
tests-2.0/part1-test6-bugs.elf:     file format elf32-littlearm


Disassembly of section .text:

00008000 <__code_start__>:
    8000:	e3a00013 	mov	r0, #19, 0
    8004:	e3800080 	orr	r0, r0, #128, 0	; 0x80
    8008:	e129f000 	msr	CPSR_fc, r0
    800c:	e3a01000 	mov	r1, #0, 0
    8010:	ee071f95 	mcr	15, 0, r1, cr7, cr5, {4}
    8014:	e3a0d302 	mov	sp, #134217728	; 0x8000000
    8018:	e3a0b000 	mov	fp, #0, 0
    801c:	eb0006ff 	bl	9c20 <_cstart>
    8020:	eb000754 	bl	9d78 <rpi_reboot>

00008024 <PUT32>:
    8024:	e5801000 	str	r1, [r0]
    8028:	e12fff1e 	bx	lr

0000802c <GET32>:
    802c:	e5900000 	ldr	r0, [r0]
    8030:	e12fff1e 	bx	lr

00008034 <BRANCHTO>:
    8034:	e12fff10 	bx	r0
    8038:	6d746f6e 	ldclvs	15, cr6, [r4, #-440]!	; 0xfffffe48
    803c:	006e6961 	rsbeq	r6, lr, r1, ror #18
    8040:	ff000008 			; <UNDEFINED> instruction: 0xff000008

00008044 <notmain>:
    8044:	e1a0c00d 	mov	ip, sp
    8048:	e92dd830 	push	{r4, r5, fp, ip, lr, pc}
    804c:	e24cb004 	sub	fp, ip, #4, 0
    8050:	e24dd048 	sub	sp, sp, #72, 0	; 0x48
    8054:	e59f0144 	ldr	r0, [pc, #324]	; 81a0 <notmain+0x15c>
    8058:	eb00042e 	bl	9118 <printk>
    805c:	e3a04000 	mov	r4, #0, 0
    8060:	e3540005 	cmp	r4, #5, 0
    8064:	ca000011 	bgt	80b0 <notmain+0x6c>
    8068:	eb00045a 	bl	91d8 <rpi_rand32>
    806c:	e1a00b00 	lsl	r0, r0, #22
    8070:	e1a00b20 	lsr	r0, r0, #22
    8074:	e24b3014 	sub	r3, fp, #20, 0
    8078:	e0835104 	add	r5, r3, r4, lsl #2
    807c:	e5050048 	str	r0, [r5, #-72]	; 0xffffffb8
    8080:	e59f311c 	ldr	r3, [pc, #284]	; 81a4 <notmain+0x160>
    8084:	e50b302c 	str	r3, [fp, #-44]	; 0xffffffd4
    8088:	e59f3118 	ldr	r3, [pc, #280]	; 81a8 <notmain+0x164>
    808c:	e50b3028 	str	r3, [fp, #-40]	; 0xffffffd8
    8090:	e3a0300e 	mov	r3, #14, 0
    8094:	e50b3024 	str	r3, [fp, #-36]	; 0xffffffdc
    8098:	e24b302c 	sub	r3, fp, #44, 0	; 0x2c
    809c:	e893000e 	ldm	r3, {r1, r2, r3}
    80a0:	eb000118 	bl	8508 <ckalloc>
    80a4:	e5050030 	str	r0, [r5, #-48]	; 0xffffffd0
    80a8:	e2844001 	add	r4, r4, #1, 0
    80ac:	eaffffeb 	b	8060 <notmain+0x1c>
    80b0:	e3a04000 	mov	r4, #0, 0
    80b4:	e3540005 	cmp	r4, #5, 0
    80b8:	ca00000d 	bgt	80f4 <notmain+0xb0>
    80bc:	e24b3014 	sub	r3, fp, #20, 0
    80c0:	e0830104 	add	r0, r3, r4, lsl #2
    80c4:	e59f30d8 	ldr	r3, [pc, #216]	; 81a4 <notmain+0x160>
    80c8:	e50b3020 	str	r3, [fp, #-32]	; 0xffffffe0
    80cc:	e59f30d4 	ldr	r3, [pc, #212]	; 81a8 <notmain+0x164>
    80d0:	e50b301c 	str	r3, [fp, #-28]	; 0xffffffe4
    80d4:	e3a03012 	mov	r3, #18, 0
    80d8:	e50b3018 	str	r3, [fp, #-24]	; 0xffffffe8
    80dc:	e24b3014 	sub	r3, fp, #20, 0
    80e0:	e913000e 	ldmdb	r3, {r1, r2, r3}
    80e4:	e5100030 	ldr	r0, [r0, #-48]	; 0xffffffd0
    80e8:	eb00009c 	bl	8360 <ckfree>
    80ec:	e2844001 	add	r4, r4, #1, 0
    80f0:	eaffffef 	b	80b4 <notmain+0x70>
    80f4:	eb000331 	bl	8dc0 <ck_heap_errors>
    80f8:	e3500000 	cmp	r0, #0, 0
    80fc:	1a00001b 	bne	8170 <notmain+0x12c>
    8100:	e59f00a4 	ldr	r0, [pc, #164]	; 81ac <notmain+0x168>
    8104:	eb000403 	bl	9118 <printk>
    8108:	eb000432 	bl	91d8 <rpi_rand32>
    810c:	e59f309c 	ldr	r3, [pc, #156]	; 81b0 <notmain+0x16c>
    8110:	e0832093 	umull	r2, r3, r3, r0
    8114:	e1a03123 	lsr	r3, r3, #2
    8118:	e0833083 	add	r3, r3, r3, lsl #1
    811c:	e0403083 	sub	r3, r0, r3, lsl #1
    8120:	e24b2014 	sub	r2, fp, #20, 0
    8124:	e0823103 	add	r3, r2, r3, lsl #2
    8128:	e5135030 	ldr	r5, [r3, #-48]	; 0xffffffd0
    812c:	e5134048 	ldr	r4, [r3, #-72]	; 0xffffffb8
    8130:	eb000428 	bl	91d8 <rpi_rand32>
    8134:	e200201f 	and	r2, r0, #31, 0
    8138:	e0842002 	add	r2, r4, r2
    813c:	e3a03001 	mov	r3, #1, 0
    8140:	e7c53002 	strb	r3, [r5, r2]
    8144:	e0853002 	add	r3, r5, r2
    8148:	e1a01005 	mov	r1, r5
    814c:	e59f0060 	ldr	r0, [pc, #96]	; 81b4 <notmain+0x170>
    8150:	eb0003f0 	bl	9118 <printk>
    8154:	eb000319 	bl	8dc0 <ck_heap_errors>
    8158:	e3500000 	cmp	r0, #0, 0
    815c:	0a000009 	beq	8188 <notmain+0x144>
    8160:	e59f0050 	ldr	r0, [pc, #80]	; 81b8 <notmain+0x174>
    8164:	eb0003eb 	bl	9118 <printk>
    8168:	e24bd014 	sub	sp, fp, #20, 0
    816c:	e89da830 	ldm	sp, {r4, r5, fp, sp, pc}
    8170:	e3a03015 	mov	r3, #21, 0
    8174:	e59f202c 	ldr	r2, [pc, #44]	; 81a8 <notmain+0x164>
    8178:	e59f1024 	ldr	r1, [pc, #36]	; 81a4 <notmain+0x160>
    817c:	e59f0038 	ldr	r0, [pc, #56]	; 81bc <notmain+0x178>
    8180:	eb0003e4 	bl	9118 <printk>
    8184:	eb00069a 	bl	9bf4 <clean_reboot>
    8188:	e3a03020 	mov	r3, #32, 0
    818c:	e59f2014 	ldr	r2, [pc, #20]	; 81a8 <notmain+0x164>
    8190:	e59f100c 	ldr	r1, [pc, #12]	; 81a4 <notmain+0x160>
    8194:	e59f0024 	ldr	r0, [pc, #36]	; 81c0 <notmain+0x17c>
    8198:	eb0003de 	bl	9118 <printk>
    819c:	eb000694 	bl	9bf4 <clean_reboot>
    81a0:	0000a740 	andeq	sl, r0, r0, asr #14
    81a4:	0000a758 	andeq	sl, r0, r8, asr r7
    81a8:	0000a820 	andeq	sl, r0, r0, lsr #16
    81ac:	0000a79c 	muleq	r0, ip, r7
    81b0:	aaaaaaab 	bge	feab2c64 <__bss_end__+0xfeaa7794>
    81b4:	0000a7bc 			; <UNDEFINED> instruction: 0x0000a7bc
    81b8:	0000a804 	andeq	sl, r0, r4, lsl #16
    81bc:	0000a778 	andeq	sl, r0, r8, ror r7
    81c0:	0000a7e4 	andeq	sl, r0, r4, ror #15
    81c4:	665f6b63 	ldrbvs	r6, [pc], -r3, ror #22
    81c8:	74737269 	ldrbtvc	r7, [r3], #-617	; 0xfffffd97
    81cc:	7264685f 	rsbvc	r6, r4, #6225920	; 0x5f0000
    81d0:	00000000 	andeq	r0, r0, r0
    81d4:	ff000010 			; <UNDEFINED> instruction: 0xff000010

000081d8 <ck_first_hdr>:
    81d8:	e1a0c00d 	mov	ip, sp
    81dc:	e92dd800 	push	{fp, ip, lr, pc}
    81e0:	e24cb004 	sub	fp, ip, #4, 0
    81e4:	e59f3004 	ldr	r3, [pc, #4]	; 81f0 <ck_first_hdr+0x18>
    81e8:	e5930000 	ldr	r0, [r3]
    81ec:	e89da800 	ldm	sp, {fp, sp, pc}
    81f0:	0000b0a0 	andeq	fp, r0, r0, lsr #1
    81f4:	6e5f6b63 	vnmlavs.f64	d22, d15, d19
    81f8:	5f747865 	svcpl	0x00747865
    81fc:	00726468 	rsbseq	r6, r2, r8, ror #8
    8200:	ff00000c 			; <UNDEFINED> instruction: 0xff00000c

00008204 <ck_next_hdr>:
    8204:	e1a0c00d 	mov	ip, sp
    8208:	e92dd800 	push	{fp, ip, lr, pc}
    820c:	e24cb004 	sub	fp, ip, #4, 0
    8210:	e3500000 	cmp	r0, #0, 0
    8214:	089da800 	ldmeq	sp, {fp, sp, pc}
    8218:	e5900000 	ldr	r0, [r0]
    821c:	e89da800 	ldm	sp, {fp, sp, pc}
    8220:	685f6b63 	ldmdavs	pc, {r0, r1, r5, r6, r8, r9, fp, sp, lr}^	; <UNPREDICTABLE>
    8224:	735f7264 	cmpvc	pc, #100, 4	; 0x40000006
    8228:	74726174 	ldrbtvc	r6, [r2], #-372	; 0xfffffe8c
    822c:	00000000 	andeq	r0, r0, r0
    8230:	ff000010 			; <UNDEFINED> instruction: 0xff000010

00008234 <ck_hdr_start>:
    8234:	e1a0c00d 	mov	ip, sp
    8238:	e92dd800 	push	{fp, ip, lr, pc}
    823c:	e24cb004 	sub	fp, ip, #4, 0
    8240:	e28000b4 	add	r0, r0, #180, 0	; 0xb4
    8244:	e89da800 	ldm	sp, {fp, sp, pc}
    8248:	685f6b63 	ldmdavs	pc, {r0, r1, r5, r6, r8, r9, fp, sp, lr}^	; <UNPREDICTABLE>
    824c:	655f7264 	ldrbvs	r7, [pc, #-612]	; 7ff0 <__code_start__-0x10>
    8250:	0000646e 	andeq	r6, r0, lr, ror #8
    8254:	ff00000c 			; <UNDEFINED> instruction: 0xff00000c

00008258 <ck_hdr_end>:
    8258:	e1a0c00d 	mov	ip, sp
    825c:	e92dd830 	push	{r4, r5, fp, ip, lr, pc}
    8260:	e24cb004 	sub	fp, ip, #4, 0
    8264:	e1a04000 	mov	r4, r0
    8268:	ebfffff1 	bl	8234 <ck_hdr_start>
    826c:	e5943004 	ldr	r3, [r4, #4]
    8270:	e0800003 	add	r0, r0, r3
    8274:	e89da830 	ldm	sp, {r4, r5, fp, sp, pc}
    8278:	705f6b63 	subsvc	r6, pc, r3, ror #22
    827c:	695f7274 	ldmdbvs	pc, {r2, r4, r5, r6, r9, ip, sp, lr}^	; <UNPREDICTABLE>
    8280:	6c625f6e 	stclvs	15, cr5, [r2], #-440	; 0xfffffe48
    8284:	006b636f 	rsbeq	r6, fp, pc, ror #6
    8288:	ff000010 			; <UNDEFINED> instruction: 0xff000010

0000828c <ck_ptr_in_block>:
    828c:	e1a0c00d 	mov	ip, sp
    8290:	e92dd8f0 	push	{r4, r5, r6, r7, fp, ip, lr, pc}
    8294:	e24cb004 	sub	fp, ip, #4, 0
    8298:	e1a06000 	mov	r6, r0
    829c:	e1a04001 	mov	r4, r1
    82a0:	ebffffe3 	bl	8234 <ck_hdr_start>
    82a4:	e1a05000 	mov	r5, r0
    82a8:	e1a00006 	mov	r0, r6
    82ac:	ebffffe9 	bl	8258 <ck_hdr_end>
    82b0:	e1550004 	cmp	r5, r4
    82b4:	91540000 	cmpls	r4, r0
    82b8:	33a00001 	movcc	r0, #1, 0
    82bc:	23a00000 	movcs	r0, #0, 0
    82c0:	e89da8f0 	ldm	sp, {r4, r5, r6, r7, fp, sp, pc}
    82c4:	64616873 	strbtvs	r6, [r1], #-2163	; 0xfffff78d
    82c8:	6c5f776f 	mrrcvs	7, 6, r7, pc, cr15	; <UNPREDICTABLE>
    82cc:	7461636f 	strbtvc	r6, [r1], #-879	; 0xfffffc91
    82d0:	006e6f69 	rsbeq	r6, lr, r9, ror #30
    82d4:	ff000010 			; <UNDEFINED> instruction: 0xff000010

000082d8 <shadow_location>:
    82d8:	e1a0c00d 	mov	ip, sp
    82dc:	e92dd800 	push	{fp, ip, lr, pc}
    82e0:	e24cb004 	sub	fp, ip, #4, 0
    82e4:	e59f302c 	ldr	r3, [pc, #44]	; 8318 <shadow_location+0x40>
    82e8:	e1500003 	cmp	r0, r3
    82ec:	3a000005 	bcc	8308 <shadow_location+0x30>
    82f0:	e2833101 	add	r3, r3, #1073741824	; 0x40000000
    82f4:	e1500003 	cmp	r0, r3
    82f8:	8a000004 	bhi	8310 <shadow_location+0x38>
    82fc:	e2000003 	and	r0, r0, #3, 0
    8300:	e2800101 	add	r0, r0, #1073741824	; 0x40000000
    8304:	e89da800 	ldm	sp, {fp, sp, pc}
    8308:	e3a00000 	mov	r0, #0, 0
    830c:	e89da800 	ldm	sp, {fp, sp, pc}
    8310:	e3a00000 	mov	r0, #0, 0
    8314:	e89da800 	ldm	sp, {fp, sp, pc}
    8318:	0000b4d0 	ldrdeq	fp, [r0], -r0
    831c:	705f6b63 	subsvc	r6, pc, r3, ror #22
    8320:	695f7274 	ldmdbvs	pc, {r2, r4, r5, r6, r9, ip, sp, lr}^	; <UNPREDICTABLE>
    8324:	6c615f73 	stclvs	15, cr5, [r1], #-460	; 0xfffffe34
    8328:	65636f6c 	strbvs	r6, [r3, #-3948]!	; 0xfffff094
    832c:	00000064 	andeq	r0, r0, r4, rrx
    8330:	ff000014 			; <UNDEFINED> instruction: 0xff000014

00008334 <ck_ptr_is_alloced>:
    8334:	e1a0c00d 	mov	ip, sp
    8338:	e92dd800 	push	{fp, ip, lr, pc}
    833c:	e24cb004 	sub	fp, ip, #4, 0
    8340:	ebffffe4 	bl	82d8 <shadow_location>
    8344:	e3500000 	cmp	r0, #0, 0
    8348:	089da800 	ldmeq	sp, {fp, sp, pc}
    834c:	e5900000 	ldr	r0, [r0]
    8350:	e89da800 	ldm	sp, {fp, sp, pc}
    8354:	72666b63 	rsbvc	r6, r6, #101376	; 0x18c00
    8358:	00006565 	andeq	r6, r0, r5, ror #10
    835c:	ff000008 			; <UNDEFINED> instruction: 0xff000008

00008360 <ckfree>:
    8360:	e1a0c00d 	mov	ip, sp
    8364:	e92dd8f0 	push	{r4, r5, r6, r7, fp, ip, lr, pc}
    8368:	e24cb004 	sub	fp, ip, #4, 0
    836c:	e24dd018 	sub	sp, sp, #24, 0
    8370:	e1a04000 	mov	r4, r0
    8374:	e24b0028 	sub	r0, fp, #40, 0	; 0x28
    8378:	e880000e 	stm	r0, {r1, r2, r3}
    837c:	e244c098 	sub	ip, r4, #152, 0	; 0x98
    8380:	e8900007 	ldm	r0, {r0, r1, r2}
    8384:	e88c000b 	stm	ip, {r0, r1, r3}
    8388:	e1a05000 	mov	r5, r0
    838c:	e51b6024 	ldr	r6, [fp, #-36]	; 0xffffffdc
    8390:	e51b7020 	ldr	r7, [fp, #-32]	; 0xffffffe0
    8394:	e1a03007 	mov	r3, r7
    8398:	e1a02006 	mov	r2, r6
    839c:	e1a01000 	mov	r1, r0
    83a0:	e59f012c 	ldr	r0, [pc, #300]	; 84d4 <ckfree+0x174>
    83a4:	eb00035b 	bl	9118 <printk>
    83a8:	e1a01004 	mov	r1, r4
    83ac:	e59f0124 	ldr	r0, [pc, #292]	; 84d8 <ckfree+0x178>
    83b0:	eb000358 	bl	9118 <printk>
    83b4:	e51430ac 	ldr	r3, [r4, #-172]	; 0xffffff54
    83b8:	e353000b 	cmp	r3, #11, 0
    83bc:	1a00000d 	bne	83f8 <ckfree+0x98>
    83c0:	e3a03000 	mov	r3, #0, 0
    83c4:	e353007f 	cmp	r3, #127, 0	; 0x7f
    83c8:	ca000026 	bgt	8468 <ckfree+0x108>
    83cc:	e0842003 	add	r2, r4, r3
    83d0:	e5522082 	ldrb	r2, [r2, #-130]	; 0xffffff7e
    83d4:	e35200fe 	cmp	r2, #254, 0	; 0xfe
    83d8:	1a000010 	bne	8420 <ckfree+0xc0>
    83dc:	e51420b0 	ldr	r2, [r4, #-176]	; 0xffffff50
    83e0:	e0832002 	add	r2, r3, r2
    83e4:	e7d42002 	ldrb	r2, [r4, r2]
    83e8:	e35200fe 	cmp	r2, #254, 0	; 0xfe
    83ec:	1a000014 	bne	8444 <ckfree+0xe4>
    83f0:	e2833001 	add	r3, r3, #1, 0
    83f4:	eafffff2 	b	83c4 <ckfree+0x64>
    83f8:	eb000300 	bl	9000 <backtrace>
    83fc:	e1a03007 	mov	r3, r7
    8400:	e1a02006 	mov	r2, r6
    8404:	e1a01005 	mov	r1, r5
    8408:	e59f00cc 	ldr	r0, [pc, #204]	; 84dc <ckfree+0x17c>
    840c:	eb000341 	bl	9118 <printk>
    8410:	e51410ac 	ldr	r1, [r4, #-172]	; 0xffffff54
    8414:	e59f00c4 	ldr	r0, [pc, #196]	; 84e0 <ckfree+0x180>
    8418:	eb00033e 	bl	9118 <printk>
    841c:	eb0005f4 	bl	9bf4 <clean_reboot>
    8420:	eb0002f6 	bl	9000 <backtrace>
    8424:	e1a03007 	mov	r3, r7
    8428:	e1a02006 	mov	r2, r6
    842c:	e1a01005 	mov	r1, r5
    8430:	e59f00a4 	ldr	r0, [pc, #164]	; 84dc <ckfree+0x17c>
    8434:	eb000337 	bl	9118 <printk>
    8438:	e59f00a4 	ldr	r0, [pc, #164]	; 84e4 <ckfree+0x184>
    843c:	eb000335 	bl	9118 <printk>
    8440:	eb0005eb 	bl	9bf4 <clean_reboot>
    8444:	eb0002ed 	bl	9000 <backtrace>
    8448:	e1a03007 	mov	r3, r7
    844c:	e1a02006 	mov	r2, r6
    8450:	e1a01005 	mov	r1, r5
    8454:	e59f0080 	ldr	r0, [pc, #128]	; 84dc <ckfree+0x17c>
    8458:	eb00032e 	bl	9118 <printk>
    845c:	e59f0084 	ldr	r0, [pc, #132]	; 84e8 <ckfree+0x188>
    8460:	eb00032c 	bl	9118 <printk>
    8464:	eb0005e2 	bl	9bf4 <clean_reboot>
    8468:	e3a03000 	mov	r3, #0, 0
    846c:	e51420b0 	ldr	r2, [r4, #-176]	; 0xffffff50
    8470:	e1520003 	cmp	r2, r3
    8474:	83e02001 	mvnhi	r2, #1, 0
    8478:	87c42003 	strbhi	r2, [r4, r3]
    847c:	82833001 	addhi	r3, r3, #1, 0
    8480:	8afffff9 	bhi	846c <ckfree+0x10c>
    8484:	e3a0300c 	mov	r3, #12, 0
    8488:	e50430ac 	str	r3, [r4, #-172]	; 0xffffff54
    848c:	e2443098 	sub	r3, r4, #152, 0	; 0x98
    8490:	e24b201c 	sub	r2, fp, #28, 0
    8494:	e9120007 	ldmdb	r2, {r0, r1, r2}
    8498:	e8830007 	stm	r3, {r0, r1, r2}
    849c:	e1a00004 	mov	r0, r4
    84a0:	ebffffa3 	bl	8334 <ck_ptr_is_alloced>
    84a4:	e3500000 	cmp	r0, #0, 0
    84a8:	0a000001 	beq	84b4 <ckfree+0x154>
    84ac:	e24bd01c 	sub	sp, fp, #28, 0
    84b0:	e89da8f0 	ldm	sp, {r4, r5, r6, r7, fp, sp, pc}
    84b4:	e59f3030 	ldr	r3, [pc, #48]	; 84ec <ckfree+0x18c>
    84b8:	e58d3000 	str	r3, [sp]
    84bc:	e3a03077 	mov	r3, #119, 0	; 0x77
    84c0:	e59f2028 	ldr	r2, [pc, #40]	; 84f0 <ckfree+0x190>
    84c4:	e59f1028 	ldr	r1, [pc, #40]	; 84f4 <ckfree+0x194>
    84c8:	e59f0028 	ldr	r0, [pc, #40]	; 84f8 <ckfree+0x198>
    84cc:	eb000311 	bl	9118 <printk>
    84d0:	eb0005c7 	bl	9bf4 <clean_reboot>
    84d4:	0000a828 	andeq	sl, r0, r8, lsr #16
    84d8:	0000a834 	andeq	sl, r0, r4, lsr r8
    84dc:	0000a844 	andeq	sl, r0, r4, asr #16
    84e0:	0000a85c 	andeq	sl, r0, ip, asr r8
    84e4:	0000a884 	andeq	sl, r0, r4, lsl #17
    84e8:	0000a8a0 	andeq	sl, r0, r0, lsr #17
    84ec:	0000a8dc 	ldrdeq	sl, [r0], -ip
    84f0:	0000a910 	andeq	sl, r0, r0, lsl r9
    84f4:	0000a8bc 			; <UNDEFINED> instruction: 0x0000a8bc
    84f8:	0000a8c8 	andeq	sl, r0, r8, asr #17
    84fc:	6c616b63 			; <UNDEFINED> instruction: 0x6c616b63
    8500:	00636f6c 	rsbeq	r6, r3, ip, ror #30
    8504:	ff000008 			; <UNDEFINED> instruction: 0xff000008

00008508 <ckalloc>:
    8508:	e1a0c00d 	mov	ip, sp
    850c:	e92dd8f0 	push	{r4, r5, r6, r7, fp, ip, lr, pc}
    8510:	e24cb004 	sub	fp, ip, #4, 0
    8514:	e24dd010 	sub	sp, sp, #16, 0
    8518:	e1a05000 	mov	r5, r0
    851c:	e24b001c 	sub	r0, fp, #28, 0
    8520:	e900000e 	stmdb	r0, {r1, r2, r3}
    8524:	e2850f4d 	add	r0, r5, #308	; 0x134
    8528:	eb000085 	bl	8744 <kr_malloc>
    852c:	e1a04000 	mov	r4, r0
    8530:	e3a020b4 	mov	r2, #180, 0	; 0xb4
    8534:	e3a01000 	mov	r1, #0, 0
    8538:	eb0002d8 	bl	90a0 <memset>
    853c:	e3a03000 	mov	r3, #0, 0
    8540:	e353007f 	cmp	r3, #127, 0	; 0x7f
    8544:	ca000007 	bgt	8568 <ckalloc+0x60>
    8548:	e0842003 	add	r2, r4, r3
    854c:	e3e01001 	mvn	r1, #1, 0
    8550:	e5c21032 	strb	r1, [r2, #50]	; 0x32
    8554:	e0832005 	add	r2, r3, r5
    8558:	e28220b4 	add	r2, r2, #180, 0	; 0xb4
    855c:	e7c41002 	strb	r1, [r4, r2]
    8560:	e2833001 	add	r3, r3, #1, 0
    8564:	eafffff5 	b	8540 <ckalloc+0x38>
    8568:	e5845004 	str	r5, [r4, #4]
    856c:	e3a0300b 	mov	r3, #11, 0
    8570:	e5843008 	str	r3, [r4, #8]
    8574:	e2843010 	add	r3, r4, #16, 0
    8578:	e24b201c 	sub	r2, fp, #28, 0
    857c:	e9120007 	ldmdb	r2, {r0, r1, r2}
    8580:	e8830007 	stm	r3, {r0, r1, r2}
    8584:	e51b3020 	ldr	r3, [fp, #-32]	; 0xffffffe0
    8588:	e51b2024 	ldr	r2, [fp, #-36]	; 0xffffffdc
    858c:	e51b1028 	ldr	r1, [fp, #-40]	; 0xffffffd8
    8590:	e59f0054 	ldr	r0, [pc, #84]	; 85ec <ckalloc+0xe4>
    8594:	eb0002df 	bl	9118 <printk>
    8598:	e28470b4 	add	r7, r4, #180, 0	; 0xb4
    859c:	e1a02005 	mov	r2, r5
    85a0:	e1a01007 	mov	r1, r7
    85a4:	e59f0044 	ldr	r0, [pc, #68]	; 85f0 <ckalloc+0xe8>
    85a8:	eb0002da 	bl	9118 <printk>
    85ac:	e3a06000 	mov	r6, #0, 0
    85b0:	e1560005 	cmp	r6, r5
    85b4:	2a000005 	bcs	85d0 <ckalloc+0xc8>
    85b8:	e28600b4 	add	r0, r6, #180, 0	; 0xb4
    85bc:	e0840000 	add	r0, r4, r0
    85c0:	ebffff44 	bl	82d8 <shadow_location>
    85c4:	e5804000 	str	r4, [r0]
    85c8:	e2866004 	add	r6, r6, #4, 0
    85cc:	eafffff7 	b	85b0 <ckalloc+0xa8>
    85d0:	e59f301c 	ldr	r3, [pc, #28]	; 85f4 <ckalloc+0xec>
    85d4:	e5932000 	ldr	r2, [r3]
    85d8:	e5842000 	str	r2, [r4]
    85dc:	e5834000 	str	r4, [r3]
    85e0:	e1a00007 	mov	r0, r7
    85e4:	e24bd01c 	sub	sp, fp, #28, 0
    85e8:	e89da8f0 	ldm	sp, {r4, r5, r6, r7, fp, sp, pc}
    85ec:	0000a828 	andeq	sl, r0, r8, lsr #16
    85f0:	0000a8f4 	strdeq	sl, [r0], -r4
    85f4:	0000b0a0 	andeq	fp, r0, r0, lsr #1
    85f8:	665f726b 	ldrbvs	r7, [pc], -fp, ror #4
    85fc:	00656572 	rsbeq	r6, r5, r2, ror r5
    8600:	ff000008 			; <UNDEFINED> instruction: 0xff000008

00008604 <kr_free>:
    8604:	e1a0c00d 	mov	ip, sp
    8608:	e92dd800 	push	{fp, ip, lr, pc}
    860c:	e24cb004 	sub	fp, ip, #4, 0
    8610:	e2401008 	sub	r1, r0, #8, 0
    8614:	e59f30a8 	ldr	r3, [pc, #168]	; 86c4 <kr_free+0xc0>
    8618:	e5933000 	ldr	r3, [r3]
    861c:	ea000000 	b	8624 <kr_free+0x20>
    8620:	e1a03002 	mov	r3, r2
    8624:	e1530001 	cmp	r3, r1
    8628:	2a000002 	bcs	8638 <kr_free+0x34>
    862c:	e5932000 	ldr	r2, [r3]
    8630:	e1520001 	cmp	r2, r1
    8634:	8a000007 	bhi	8658 <kr_free+0x54>
    8638:	e5932000 	ldr	r2, [r3]
    863c:	e1520003 	cmp	r2, r3
    8640:	8afffff6 	bhi	8620 <kr_free+0x1c>
    8644:	e1530001 	cmp	r3, r1
    8648:	3a000002 	bcc	8658 <kr_free+0x54>
    864c:	e1520001 	cmp	r2, r1
    8650:	91a03002 	movls	r3, r2
    8654:	9afffff2 	bls	8624 <kr_free+0x20>
    8658:	e510c004 	ldr	ip, [r0, #-4]
    865c:	e081e18c 	add	lr, r1, ip, lsl #3
    8660:	e5932000 	ldr	r2, [r3]
    8664:	e15e0002 	cmp	lr, r2
    8668:	0a000008 	beq	8690 <kr_free+0x8c>
    866c:	e5002008 	str	r2, [r0, #-8]
    8670:	e5932004 	ldr	r2, [r3, #4]
    8674:	e083c182 	add	ip, r3, r2, lsl #3
    8678:	e15c0001 	cmp	ip, r1
    867c:	0a00000a 	beq	86ac <kr_free+0xa8>
    8680:	e5831000 	str	r1, [r3]
    8684:	e59f2038 	ldr	r2, [pc, #56]	; 86c4 <kr_free+0xc0>
    8688:	e5823000 	str	r3, [r2]
    868c:	e89da800 	ldm	sp, {fp, sp, pc}
    8690:	e5922004 	ldr	r2, [r2, #4]
    8694:	e08cc002 	add	ip, ip, r2
    8698:	e500c004 	str	ip, [r0, #-4]
    869c:	e5932000 	ldr	r2, [r3]
    86a0:	e5922000 	ldr	r2, [r2]
    86a4:	e5002008 	str	r2, [r0, #-8]
    86a8:	eafffff0 	b	8670 <kr_free+0x6c>
    86ac:	e5101004 	ldr	r1, [r0, #-4]
    86b0:	e0822001 	add	r2, r2, r1
    86b4:	e5832004 	str	r2, [r3, #4]
    86b8:	e5102008 	ldr	r2, [r0, #-8]
    86bc:	e5832000 	str	r2, [r3]
    86c0:	eaffffef 	b	8684 <kr_free+0x80>
    86c4:	0000b0a8 	andeq	fp, r0, r8, lsr #1
    86c8:	65726f6d 	ldrbvs	r6, [r2, #-3949]!	; 0xfffff093
    86cc:	65726f63 	ldrbvs	r6, [r2, #-3939]!	; 0xfffff09d
    86d0:	00000000 	andeq	r0, r0, r0
    86d4:	ff00000c 			; <UNDEFINED> instruction: 0xff00000c

000086d8 <morecore>:
    86d8:	e1a0c00d 	mov	ip, sp
    86dc:	e92dd830 	push	{r4, r5, fp, ip, lr, pc}
    86e0:	e24cb004 	sub	fp, ip, #4, 0
    86e4:	e1a04000 	mov	r4, r0
    86e8:	e3500b01 	cmp	r0, #1024	; 0x400
    86ec:	33a04b01 	movcc	r4, #1024	; 0x400
    86f0:	e1a01004 	mov	r1, r4
    86f4:	e59f0030 	ldr	r0, [pc, #48]	; 872c <morecore+0x54>
    86f8:	eb000286 	bl	9118 <printk>
    86fc:	e1a00184 	lsl	r0, r4, #3
    8700:	eb00016a 	bl	8cb0 <sbrk>
    8704:	e3700001 	cmn	r0, #1, 0
    8708:	0a000005 	beq	8724 <morecore+0x4c>
    870c:	e5804004 	str	r4, [r0, #4]
    8710:	e2800008 	add	r0, r0, #8, 0
    8714:	ebffffba 	bl	8604 <kr_free>
    8718:	e59f3010 	ldr	r3, [pc, #16]	; 8730 <morecore+0x58>
    871c:	e5930000 	ldr	r0, [r3]
    8720:	e89da830 	ldm	sp, {r4, r5, fp, sp, pc}
    8724:	e3a00000 	mov	r0, #0, 0
    8728:	e89da830 	ldm	sp, {r4, r5, fp, sp, pc}
    872c:	0000a918 	andeq	sl, r0, r8, lsl r9
    8730:	0000b0a8 	andeq	fp, r0, r8, lsr #1
    8734:	6d5f726b 	lfmvs	f7, 2, [pc, #-428]	; 8590 <ckalloc+0x88>
    8738:	6f6c6c61 	svcvs	0x006c6c61
    873c:	00000063 	andeq	r0, r0, r3, rrx
    8740:	ff00000c 			; <UNDEFINED> instruction: 0xff00000c

00008744 <kr_malloc>:
    8744:	e1a0c00d 	mov	ip, sp
    8748:	e92dd830 	push	{r4, r5, fp, ip, lr, pc}
    874c:	e24cb004 	sub	fp, ip, #4, 0
    8750:	e2804007 	add	r4, r0, #7, 0
    8754:	e1a041a4 	lsr	r4, r4, #3
    8758:	e2844001 	add	r4, r4, #1, 0
    875c:	e59f3090 	ldr	r3, [pc, #144]	; 87f4 <kr_malloc+0xb0>
    8760:	e5932000 	ldr	r2, [r3]
    8764:	e3520000 	cmp	r2, #0, 0
    8768:	0a000001 	beq	8774 <kr_malloc+0x30>
    876c:	e5920000 	ldr	r0, [r2]
    8770:	ea000013 	b	87c4 <kr_malloc+0x80>
    8774:	e2832008 	add	r2, r3, #8, 0
    8778:	e5832000 	str	r2, [r3]
    877c:	e5832008 	str	r2, [r3, #8]
    8780:	e3a01000 	mov	r1, #0, 0
    8784:	e583100c 	str	r1, [r3, #12]
    8788:	eafffff7 	b	876c <kr_malloc+0x28>
    878c:	0a000007 	beq	87b0 <kr_malloc+0x6c>
    8790:	e0433004 	sub	r3, r3, r4
    8794:	e5803004 	str	r3, [r0, #4]
    8798:	e0800183 	add	r0, r0, r3, lsl #3
    879c:	e5804004 	str	r4, [r0, #4]
    87a0:	e59f304c 	ldr	r3, [pc, #76]	; 87f4 <kr_malloc+0xb0>
    87a4:	e5832000 	str	r2, [r3]
    87a8:	e2800008 	add	r0, r0, #8, 0
    87ac:	e89da830 	ldm	sp, {r4, r5, fp, sp, pc}
    87b0:	e5903000 	ldr	r3, [r0]
    87b4:	e5823000 	str	r3, [r2]
    87b8:	eafffff8 	b	87a0 <kr_malloc+0x5c>
    87bc:	e1a02000 	mov	r2, r0
    87c0:	e5900000 	ldr	r0, [r0]
    87c4:	e5903004 	ldr	r3, [r0, #4]
    87c8:	e1530004 	cmp	r3, r4
    87cc:	2affffee 	bcs	878c <kr_malloc+0x48>
    87d0:	e59f301c 	ldr	r3, [pc, #28]	; 87f4 <kr_malloc+0xb0>
    87d4:	e5933000 	ldr	r3, [r3]
    87d8:	e1530000 	cmp	r3, r0
    87dc:	1afffff6 	bne	87bc <kr_malloc+0x78>
    87e0:	e3a00902 	mov	r0, #32768	; 0x8000
    87e4:	ebffffbb 	bl	86d8 <morecore>
    87e8:	e3500000 	cmp	r0, #0, 0
    87ec:	1afffff2 	bne	87bc <kr_malloc+0x78>
    87f0:	e89da830 	ldm	sp, {r4, r5, fp, sp, pc}
    87f4:	0000b0a8 	andeq	fp, r0, r8, lsr #1
    87f8:	685f6e69 	ldmdavs	pc, {r0, r3, r5, r6, r9, sl, fp, sp, lr}^	; <UNPREDICTABLE>
    87fc:	00706165 	rsbseq	r6, r0, r5, ror #2
    8800:	ff000008 			; <UNDEFINED> instruction: 0xff000008

00008804 <in_heap>:
    8804:	e1a0c00d 	mov	ip, sp
    8808:	e92dd800 	push	{fp, ip, lr, pc}
    880c:	e24cb004 	sub	fp, ip, #4, 0
    8810:	e59f3030 	ldr	r3, [pc, #48]	; 8848 <in_heap+0x44>
    8814:	e5933000 	ldr	r3, [r3]
    8818:	e1530000 	cmp	r3, r0
    881c:	8a000005 	bhi	8838 <in_heap+0x34>
    8820:	e59f3020 	ldr	r3, [pc, #32]	; 8848 <in_heap+0x44>
    8824:	e5933004 	ldr	r3, [r3, #4]
    8828:	e1530000 	cmp	r3, r0
    882c:	9a000003 	bls	8840 <in_heap+0x3c>
    8830:	e3a00001 	mov	r0, #1, 0
    8834:	e89da800 	ldm	sp, {fp, sp, pc}
    8838:	e3a00000 	mov	r0, #0, 0
    883c:	e89da800 	ldm	sp, {fp, sp, pc}
    8840:	e3a00000 	mov	r0, #0, 0
    8844:	e89da800 	ldm	sp, {fp, sp, pc}
    8848:	0000b0b8 	strheq	fp, [r0], -r8
    884c:	6b72616d 	blvs	1ca0e08 <__bss_end__+0x1c95938>
    8850:	00000000 	andeq	r0, r0, r0
    8854:	ff000008 			; <UNDEFINED> instruction: 0xff000008

00008858 <mark>:
    8858:	e1a0c00d 	mov	ip, sp
    885c:	e92dd9f0 	push	{r4, r5, r6, r7, r8, fp, ip, lr, pc}
    8860:	e24cb004 	sub	fp, ip, #4, 0
    8864:	e24dd00c 	sub	sp, sp, #12, 0
    8868:	e1500001 	cmp	r0, r1
    886c:	2a00000d 	bcs	88a8 <mark+0x50>
    8870:	e1a04000 	mov	r4, r0
    8874:	e1a07001 	mov	r7, r1
    8878:	e3100003 	tst	r0, #3, 0
    887c:	1a000011 	bne	88c8 <mark+0x70>
    8880:	e3110003 	tst	r1, #3, 0
    8884:	0a000021 	beq	8910 <mark+0xb8>
    8888:	e59f3134 	ldr	r3, [pc, #308]	; 89c4 <mark+0x16c>
    888c:	e58d3000 	str	r3, [sp]
    8890:	e3a03056 	mov	r3, #86, 0	; 0x56
    8894:	e59f212c 	ldr	r2, [pc, #300]	; 89c8 <mark+0x170>
    8898:	e59f112c 	ldr	r1, [pc, #300]	; 89cc <mark+0x174>
    889c:	e59f012c 	ldr	r0, [pc, #300]	; 89d0 <mark+0x178>
    88a0:	eb00021c 	bl	9118 <printk>
    88a4:	eb0004d2 	bl	9bf4 <clean_reboot>
    88a8:	e59f3124 	ldr	r3, [pc, #292]	; 89d4 <mark+0x17c>
    88ac:	e58d3000 	str	r3, [sp]
    88b0:	e3a03052 	mov	r3, #82, 0	; 0x52
    88b4:	e59f210c 	ldr	r2, [pc, #268]	; 89c8 <mark+0x170>
    88b8:	e59f110c 	ldr	r1, [pc, #268]	; 89cc <mark+0x174>
    88bc:	e59f010c 	ldr	r0, [pc, #268]	; 89d0 <mark+0x178>
    88c0:	eb000214 	bl	9118 <printk>
    88c4:	eb0004ca 	bl	9bf4 <clean_reboot>
    88c8:	e59f3108 	ldr	r3, [pc, #264]	; 89d8 <mark+0x180>
    88cc:	e58d3000 	str	r3, [sp]
    88d0:	e3a03055 	mov	r3, #85, 0	; 0x55
    88d4:	e59f20ec 	ldr	r2, [pc, #236]	; 89c8 <mark+0x170>
    88d8:	e59f10ec 	ldr	r1, [pc, #236]	; 89cc <mark+0x174>
    88dc:	e59f00ec 	ldr	r0, [pc, #236]	; 89d0 <mark+0x178>
    88e0:	eb00020c 	bl	9118 <printk>
    88e4:	eb0004c2 	bl	9bf4 <clean_reboot>
    88e8:	e3a05000 	mov	r5, #0, 0
    88ec:	ea000011 	b	8938 <mark+0xe0>
    88f0:	e3a03002 	mov	r3, #2, 0
    88f4:	ea000021 	b	8980 <mark+0x128>
    88f8:	e3a01002 	mov	r1, #2, 0
    88fc:	e59f00d8 	ldr	r0, [pc, #216]	; 89dc <mark+0x184>
    8900:	eb000204 	bl	9118 <printk>
    8904:	e3580000 	cmp	r8, #0, 0
    8908:	0a000022 	beq	8998 <mark+0x140>
    890c:	e2844004 	add	r4, r4, #4, 0
    8910:	e1540007 	cmp	r4, r7
    8914:	8a000028 	bhi	89bc <mark+0x164>
    8918:	e5945000 	ldr	r5, [r4]
    891c:	e1a00005 	mov	r0, r5
    8920:	ebffffb7 	bl	8804 <in_heap>
    8924:	e3500000 	cmp	r0, #0, 0
    8928:	0affffee 	beq	88e8 <mark+0x90>
    892c:	e1a00005 	mov	r0, r5
    8930:	ebfffe7f 	bl	8334 <ck_ptr_is_alloced>
    8934:	e1a05000 	mov	r5, r0
    8938:	e3550000 	cmp	r5, #0, 0
    893c:	0afffff2 	beq	890c <mark+0xb4>
    8940:	e28560b4 	add	r6, r5, #180, 0	; 0xb4
    8944:	e1d583b0 	ldrh	r8, [r5, #48]	; 0x30
    8948:	e1a00005 	mov	r0, r5
    894c:	ebfffe38 	bl	8234 <ck_hdr_start>
    8950:	e1a01000 	mov	r1, r0
    8954:	e58d6000 	str	r6, [sp]
    8958:	e5943000 	ldr	r3, [r4]
    895c:	e1a02004 	mov	r2, r4
    8960:	e59f0078 	ldr	r0, [pc, #120]	; 89e0 <mark+0x188>
    8964:	eb0001eb 	bl	9118 <printk>
    8968:	e3580001 	cmp	r8, #1, 0
    896c:	8a00000f 	bhi	89b0 <mark+0x158>
    8970:	e5943000 	ldr	r3, [r4]
    8974:	e1530006 	cmp	r3, r6
    8978:	0affffdc 	beq	88f0 <mark+0x98>
    897c:	e3a03001 	mov	r3, #1, 0
    8980:	e1c533b0 	strh	r3, [r5, #48]	; 0x30
    8984:	e5943000 	ldr	r3, [r4]
    8988:	e1530006 	cmp	r3, r6
    898c:	0affffd9 	beq	88f8 <mark+0xa0>
    8990:	e3a01001 	mov	r1, #1, 0
    8994:	eaffffd8 	b	88fc <mark+0xa4>
    8998:	e5951004 	ldr	r1, [r5, #4]
    899c:	e28110b4 	add	r1, r1, #180, 0	; 0xb4
    89a0:	e0851001 	add	r1, r5, r1
    89a4:	e2850004 	add	r0, r5, #4, 0
    89a8:	ebffffaa 	bl	8858 <mark>
    89ac:	eaffffd6 	b	890c <mark+0xb4>
    89b0:	e59f002c 	ldr	r0, [pc, #44]	; 89e4 <mark+0x18c>
    89b4:	eb0001d7 	bl	9118 <printk>
    89b8:	eaffffd3 	b	890c <mark+0xb4>
    89bc:	e24bd020 	sub	sp, fp, #32, 0
    89c0:	e89da9f0 	ldm	sp, {r4, r5, r6, r7, r8, fp, sp, pc}
    89c4:	0000a95c 	andeq	sl, r0, ip, asr r9
    89c8:	0000ac9c 	muleq	r0, ip, ip
    89cc:	0000a93c 	andeq	sl, r0, ip, lsr r9
    89d0:	0000a8c8 	andeq	sl, r0, r8, asr #17
    89d4:	0000a944 	andeq	sl, r0, r4, asr #18
    89d8:	0000a94c 	andeq	sl, r0, ip, asr #18
    89dc:	0000a998 	muleq	r0, r8, r9
    89e0:	0000a96c 	andeq	sl, r0, ip, ror #18
    89e4:	0000a9a8 	andeq	sl, r0, r8, lsr #19
    89e8:	6b72616d 	blvs	1ca0fa4 <__bss_end__+0x1c95ad4>
    89ec:	6c6c615f 	stfvse	f6, [ip], #-380	; 0xfffffe84
    89f0:	00000000 	andeq	r0, r0, r0
    89f4:	ff00000c 			; <UNDEFINED> instruction: 0xff00000c

000089f8 <mark_all>:
    89f8:	e1a0c00d 	mov	ip, sp
    89fc:	e92dd800 	push	{fp, ip, lr, pc}
    8a00:	e24cb004 	sub	fp, ip, #4, 0
    8a04:	e24dd040 	sub	sp, sp, #64, 0	; 0x40
    8a08:	ebfffdf2 	bl	81d8 <ck_first_hdr>
    8a0c:	e3500000 	cmp	r0, #0, 0
    8a10:	0a000005 	beq	8a2c <mark_all+0x34>
    8a14:	e3a03000 	mov	r3, #0, 0
    8a18:	e580302c 	str	r3, [r0, #44]	; 0x2c
    8a1c:	e5803028 	str	r3, [r0, #40]	; 0x28
    8a20:	e1c033b0 	strh	r3, [r0, #48]	; 0x30
    8a24:	ebfffdf6 	bl	8204 <ck_next_hdr>
    8a28:	eafffff7 	b	8a0c <mark_all+0x14>
    8a2c:	e24b004c 	sub	r0, fp, #76, 0	; 0x4c
    8a30:	eb000170 	bl	8ff8 <dump_regs>
    8a34:	e3a03000 	mov	r3, #0, 0
    8a38:	e50b304c 	str	r3, [fp, #-76]	; 0xffffffb4
    8a3c:	e50b3048 	str	r3, [fp, #-72]	; 0xffffffb8
    8a40:	e50b3044 	str	r3, [fp, #-68]	; 0xffffffbc
    8a44:	e50b3040 	str	r3, [fp, #-64]	; 0xffffffc0
    8a48:	e24b1014 	sub	r1, fp, #20, 0
    8a4c:	e24b004c 	sub	r0, fp, #76, 0	; 0x4c
    8a50:	ebffff80 	bl	8858 <mark>
    8a54:	e3a02302 	mov	r2, #134217728	; 0x8000000
    8a58:	e51b1018 	ldr	r1, [fp, #-24]	; 0xffffffe8
    8a5c:	e59f002c 	ldr	r0, [pc, #44]	; 8a90 <mark_all+0x98>
    8a60:	eb0001ac 	bl	9118 <printk>
    8a64:	e3a01302 	mov	r1, #134217728	; 0x8000000
    8a68:	e51b0018 	ldr	r0, [fp, #-24]	; 0xffffffe8
    8a6c:	ebffff79 	bl	8858 <mark>
    8a70:	e59f101c 	ldr	r1, [pc, #28]	; 8a94 <mark_all+0x9c>
    8a74:	e59f001c 	ldr	r0, [pc, #28]	; 8a98 <mark_all+0xa0>
    8a78:	ebffff76 	bl	8858 <mark>
    8a7c:	e59f1018 	ldr	r1, [pc, #24]	; 8a9c <mark_all+0xa4>
    8a80:	e59f0018 	ldr	r0, [pc, #24]	; 8aa0 <mark_all+0xa8>
    8a84:	ebffff73 	bl	8858 <mark>
    8a88:	e24bd00c 	sub	sp, fp, #12, 0
    8a8c:	e89da800 	ldm	sp, {fp, sp, pc}
    8a90:	0000a9b8 			; <UNDEFINED> instruction: 0x0000a9b8
    8a94:	0000b4d0 	ldrdeq	fp, [r0], -r0
    8a98:	0000b0a0 	andeq	fp, r0, r0, lsr #1
    8a9c:	0000b0a0 	andeq	fp, r0, r0, lsr #1
    8aa0:	0000b088 	andeq	fp, r0, r8, lsl #1
    8aa4:	65657773 	strbvs	r7, [r5, #-1907]!	; 0xfffff88d
    8aa8:	656c5f70 	strbvs	r5, [ip, #-3952]!	; 0xfffff090
    8aac:	00006b61 	andeq	r6, r0, r1, ror #22
    8ab0:	ff00000c 			; <UNDEFINED> instruction: 0xff00000c

00008ab4 <sweep_leak>:
    8ab4:	e1a0c00d 	mov	ip, sp
    8ab8:	e92ddbf0 	push	{r4, r5, r6, r7, r8, r9, fp, ip, lr, pc}
    8abc:	e24cb004 	sub	fp, ip, #4, 0
    8ac0:	e1a07000 	mov	r7, r0
    8ac4:	e59f00c4 	ldr	r0, [pc, #196]	; 8b90 <sweep_leak+0xdc>
    8ac8:	eb000192 	bl	9118 <printk>
    8acc:	e59f00c0 	ldr	r0, [pc, #192]	; 8b94 <sweep_leak+0xe0>
    8ad0:	eb000190 	bl	9118 <printk>
    8ad4:	ebffffc7 	bl	89f8 <mark_all>
    8ad8:	ebfffdbe 	bl	81d8 <ck_first_hdr>
    8adc:	e1a04000 	mov	r4, r0
    8ae0:	e3a08000 	mov	r8, #0, 0
    8ae4:	e1a06008 	mov	r6, r8
    8ae8:	e1a05008 	mov	r5, r8
    8aec:	ea000007 	b	8b10 <sweep_leak+0x5c>
    8af0:	e2866001 	add	r6, r6, #1, 0
    8af4:	e1a02004 	mov	r2, r4
    8af8:	e1a01005 	mov	r1, r5
    8afc:	e59f0094 	ldr	r0, [pc, #148]	; 8b98 <sweep_leak+0xe4>
    8b00:	eb000184 	bl	9118 <printk>
    8b04:	e1a00004 	mov	r0, r4
    8b08:	ebfffdbd 	bl	8204 <ck_next_hdr>
    8b0c:	e1a04000 	mov	r4, r0
    8b10:	e3540000 	cmp	r4, #0, 0
    8b14:	0a00000b 	beq	8b48 <sweep_leak+0x94>
    8b18:	e2855001 	add	r5, r5, #1, 0
    8b1c:	e1d433b0 	ldrh	r3, [r4, #48]	; 0x30
    8b20:	e3530000 	cmp	r3, #0, 0
    8b24:	0afffff1 	beq	8af0 <sweep_leak+0x3c>
    8b28:	e3530001 	cmp	r3, #1, 0
    8b2c:	1afffff4 	bne	8b04 <sweep_leak+0x50>
    8b30:	e2888001 	add	r8, r8, #1, 0
    8b34:	e1a02004 	mov	r2, r4
    8b38:	e1a01005 	mov	r1, r5
    8b3c:	e59f0058 	ldr	r0, [pc, #88]	; 8b9c <sweep_leak+0xe8>
    8b40:	eb000174 	bl	9118 <printk>
    8b44:	eaffffee 	b	8b04 <sweep_leak+0x50>
    8b48:	e1a01005 	mov	r1, r5
    8b4c:	e59f004c 	ldr	r0, [pc, #76]	; 8ba0 <sweep_leak+0xec>
    8b50:	eb000170 	bl	9118 <printk>
    8b54:	e1963008 	orrs	r3, r6, r8
    8b58:	1a000007 	bne	8b7c <sweep_leak+0xc8>
    8b5c:	e59f0040 	ldr	r0, [pc, #64]	; 8ba4 <sweep_leak+0xf0>
    8b60:	eb00016c 	bl	9118 <printk>
    8b64:	e59f003c 	ldr	r0, [pc, #60]	; 8ba8 <sweep_leak+0xf4>
    8b68:	eb00016a 	bl	9118 <printk>
    8b6c:	e3570000 	cmp	r7, #0, 0
    8b70:	10866008 	addne	r6, r6, r8
    8b74:	e1a00006 	mov	r0, r6
    8b78:	e89dabf0 	ldm	sp, {r4, r5, r6, r7, r8, r9, fp, sp, pc}
    8b7c:	e1a02008 	mov	r2, r8
    8b80:	e1a01006 	mov	r1, r6
    8b84:	e59f0020 	ldr	r0, [pc, #32]	; 8bac <sweep_leak+0xf8>
    8b88:	eb000162 	bl	9118 <printk>
    8b8c:	eafffff4 	b	8b64 <sweep_leak+0xb0>
    8b90:	0000a9d4 	ldrdeq	sl, [r0], -r4
    8b94:	0000aa10 	andeq	sl, r0, r0, lsl sl
    8b98:	0000aa28 	andeq	sl, r0, r8, lsr #20
    8b9c:	0000aa3c 	andeq	sl, r0, ip, lsr sl
    8ba0:	0000aa54 	andeq	sl, r0, r4, asr sl
    8ba4:	0000aa74 	andeq	sl, r0, r4, ror sl
    8ba8:	0000aacc 	andeq	sl, r0, ip, asr #21
    8bac:	0000aa9c 	muleq	r0, ip, sl
    8bb0:	65657773 	strbvs	r7, [r5, #-1907]!	; 0xfffff88d
    8bb4:	72665f70 	rsbvc	r5, r6, #112, 30	; 0x1c0
    8bb8:	00006565 	andeq	r6, r0, r5, ror #10
    8bbc:	ff00000c 			; <UNDEFINED> instruction: 0xff00000c

00008bc0 <sweep_free>:
    8bc0:	e1a0c00d 	mov	ip, sp
    8bc4:	e92dd9f0 	push	{r4, r5, r6, r7, r8, fp, ip, lr, pc}
    8bc8:	e24cb004 	sub	fp, ip, #4, 0
    8bcc:	e24dd014 	sub	sp, sp, #20, 0
    8bd0:	e59f00b0 	ldr	r0, [pc, #176]	; 8c88 <sweep_free+0xc8>
    8bd4:	eb00014f 	bl	9118 <printk>
    8bd8:	e59f00ac 	ldr	r0, [pc, #172]	; 8c8c <sweep_free+0xcc>
    8bdc:	eb00014d 	bl	9118 <printk>
    8be0:	ebffff84 	bl	89f8 <mark_all>
    8be4:	ebfffd7b 	bl	81d8 <ck_first_hdr>
    8be8:	e1a04000 	mov	r4, r0
    8bec:	e3a07000 	mov	r7, #0, 0
    8bf0:	e1a08007 	mov	r8, r7
    8bf4:	e1a05007 	mov	r5, r7
    8bf8:	ea000013 	b	8c4c <sweep_free+0x8c>
    8bfc:	e2888001 	add	r8, r8, #1, 0
    8c00:	e5943004 	ldr	r3, [r4, #4]
    8c04:	e0877003 	add	r7, r7, r3
    8c08:	e28460b4 	add	r6, r4, #180, 0	; 0xb4
    8c0c:	e59f307c 	ldr	r3, [pc, #124]	; 8c90 <sweep_free+0xd0>
    8c10:	e50b3030 	str	r3, [fp, #-48]	; 0xffffffd0
    8c14:	e59f3078 	ldr	r3, [pc, #120]	; 8c94 <sweep_free+0xd4>
    8c18:	e50b302c 	str	r3, [fp, #-44]	; 0xffffffd4
    8c1c:	e59f3074 	ldr	r3, [pc, #116]	; 8c98 <sweep_free+0xd8>
    8c20:	e50b3028 	str	r3, [fp, #-40]	; 0xffffffd8
    8c24:	e24b3024 	sub	r3, fp, #36, 0	; 0x24
    8c28:	e913000e 	ldmdb	r3, {r1, r2, r3}
    8c2c:	e1a00006 	mov	r0, r6
    8c30:	ebfffdca 	bl	8360 <ckfree>
    8c34:	e1a01006 	mov	r1, r6
    8c38:	e59f005c 	ldr	r0, [pc, #92]	; 8c9c <sweep_free+0xdc>
    8c3c:	eb000135 	bl	9118 <printk>
    8c40:	e1a00004 	mov	r0, r4
    8c44:	ebfffd6e 	bl	8204 <ck_next_hdr>
    8c48:	e1a04000 	mov	r4, r0
    8c4c:	e3540000 	cmp	r4, #0, 0
    8c50:	0a000004 	beq	8c68 <sweep_free+0xa8>
    8c54:	e2855001 	add	r5, r5, #1, 0
    8c58:	e1d433b0 	ldrh	r3, [r4, #48]	; 0x30
    8c5c:	e3530000 	cmp	r3, #0, 0
    8c60:	1afffff6 	bne	8c40 <sweep_free+0x80>
    8c64:	eaffffe4 	b	8bfc <sweep_free+0x3c>
    8c68:	e1a03007 	mov	r3, r7
    8c6c:	e1a02008 	mov	r2, r8
    8c70:	e1a01005 	mov	r1, r5
    8c74:	e59f0024 	ldr	r0, [pc, #36]	; 8ca0 <sweep_free+0xe0>
    8c78:	eb000126 	bl	9118 <printk>
    8c7c:	e1a00007 	mov	r0, r7
    8c80:	e24bd020 	sub	sp, fp, #32, 0
    8c84:	e89da9f0 	ldm	sp, {r4, r5, r6, r7, r8, fp, sp, pc}
    8c88:	0000a9d4 	ldrdeq	sl, [r0], -r4
    8c8c:	0000ab08 	andeq	sl, r0, r8, lsl #22
    8c90:	0000a93c 	andeq	sl, r0, ip, lsr r9
    8c94:	0000aca4 	andeq	sl, r0, r4, lsr #25
    8c98:	0000011e 	andeq	r0, r0, lr, lsl r1
    8c9c:	0000ab18 	andeq	sl, r0, r8, lsl fp
    8ca0:	0000ab28 	andeq	sl, r0, r8, lsr #22
    8ca4:	6b726273 	blvs	1ca1678 <__bss_end__+0x1c961a8>
    8ca8:	00000000 	andeq	r0, r0, r0
    8cac:	ff000008 			; <UNDEFINED> instruction: 0xff000008

00008cb0 <sbrk>:
    8cb0:	e1a0c00d 	mov	ip, sp
    8cb4:	e92dd830 	push	{r4, r5, fp, ip, lr, pc}
    8cb8:	e24cb004 	sub	fp, ip, #4, 0
    8cbc:	e24dd008 	sub	sp, sp, #8, 0
    8cc0:	e2504000 	subs	r4, r0, #0, 0
    8cc4:	da000010 	ble	8d0c <sbrk+0x5c>
    8cc8:	e59f3074 	ldr	r3, [pc, #116]	; 8d44 <sbrk+0x94>
    8ccc:	e5933008 	ldr	r3, [r3, #8]
    8cd0:	e3530000 	cmp	r3, #0, 0
    8cd4:	1a000014 	bne	8d2c <sbrk+0x7c>
    8cd8:	e59f5064 	ldr	r5, [pc, #100]	; 8d44 <sbrk+0x94>
    8cdc:	e3a00601 	mov	r0, #1048576	; 0x100000
    8ce0:	e5850000 	str	r0, [r5]
    8ce4:	e3a03602 	mov	r3, #2097152	; 0x200000
    8ce8:	e5853004 	str	r3, [r5, #4]
    8cec:	e1a01000 	mov	r1, r0
    8cf0:	eb000507 	bl	a114 <kmalloc_init_set_start>
    8cf4:	e3a03001 	mov	r3, #1, 0
    8cf8:	e5853008 	str	r3, [r5, #8]
    8cfc:	e1a00004 	mov	r0, r4
    8d00:	eb000566 	bl	a2a0 <kmalloc>
    8d04:	e24bd014 	sub	sp, fp, #20, 0
    8d08:	e89da830 	ldm	sp, {r4, r5, fp, sp, pc}
    8d0c:	e59f3034 	ldr	r3, [pc, #52]	; 8d48 <sbrk+0x98>
    8d10:	e58d3000 	str	r3, [sp]
    8d14:	e3a03017 	mov	r3, #23, 0
    8d18:	e59f202c 	ldr	r2, [pc, #44]	; 8d4c <sbrk+0x9c>
    8d1c:	e59f102c 	ldr	r1, [pc, #44]	; 8d50 <sbrk+0xa0>
    8d20:	e59f002c 	ldr	r0, [pc, #44]	; 8d54 <sbrk+0xa4>
    8d24:	eb0000fb 	bl	9118 <printk>
    8d28:	eb0003b1 	bl	9bf4 <clean_reboot>
    8d2c:	e3a03019 	mov	r3, #25, 0
    8d30:	e59f2014 	ldr	r2, [pc, #20]	; 8d4c <sbrk+0x9c>
    8d34:	e59f1014 	ldr	r1, [pc, #20]	; 8d50 <sbrk+0xa0>
    8d38:	e59f0018 	ldr	r0, [pc, #24]	; 8d58 <sbrk+0xa8>
    8d3c:	eb0000f5 	bl	9118 <printk>
    8d40:	eb0003ab 	bl	9bf4 <clean_reboot>
    8d44:	0000b0b8 	strheq	fp, [r0], -r8
    8d48:	0000ab5c 	andeq	sl, r0, ip, asr fp
    8d4c:	0000acb0 			; <UNDEFINED> instruction: 0x0000acb0
    8d50:	0000a93c 	andeq	sl, r0, ip, lsr r9
    8d54:	0000a8c8 	andeq	sl, r0, r8, asr #17
    8d58:	0000ab6c 	andeq	sl, r0, ip, ror #22
    8d5c:	7a646572 	bvc	192232c <__bss_end__+0x1916e5c>
    8d60:	5f656e6f 	svcpl	0x00656e6f
    8d64:	6f727265 	svcvs	0x00727265
    8d68:	00007372 	andeq	r7, r0, r2, ror r3
    8d6c:	ff000010 			; <UNDEFINED> instruction: 0xff000010

00008d70 <redzone_errors>:
    8d70:	e1a0c00d 	mov	ip, sp
    8d74:	e92dd800 	push	{fp, ip, lr, pc}
    8d78:	e24cb004 	sub	fp, ip, #4, 0
    8d7c:	e1a0c000 	mov	ip, r0
    8d80:	e3a03000 	mov	r3, #0, 0
    8d84:	e1a00003 	mov	r0, r3
    8d88:	ea000001 	b	8d94 <redzone_errors+0x24>
    8d8c:	e2800001 	add	r0, r0, #1, 0
    8d90:	e2833001 	add	r3, r3, #1, 0
    8d94:	e1530001 	cmp	r3, r1
    8d98:	a89da800 	ldmge	sp, {fp, sp, pc}
    8d9c:	e7dc2003 	ldrb	r2, [ip, r3]
    8da0:	e35200fe 	cmp	r2, #254, 0	; 0xfe
    8da4:	1afffff8 	bne	8d8c <redzone_errors+0x1c>
    8da8:	eafffff8 	b	8d90 <redzone_errors+0x20>
    8dac:	685f6b63 	ldmdavs	pc, {r0, r1, r5, r6, r8, r9, fp, sp, lr}^	; <UNPREDICTABLE>
    8db0:	5f706165 	svcpl	0x00706165
    8db4:	6f727265 	svcvs	0x00727265
    8db8:	00007372 	andeq	r7, r0, r2, ror r3
    8dbc:	ff000010 			; <UNDEFINED> instruction: 0xff000010

00008dc0 <ck_heap_errors>:
    8dc0:	e1a0c00d 	mov	ip, sp
    8dc4:	e92dd8f0 	push	{r4, r5, r6, r7, fp, ip, lr, pc}
    8dc8:	e24cb004 	sub	fp, ip, #4, 0
    8dcc:	ebfffd01 	bl	81d8 <ck_first_hdr>
    8dd0:	e1a04000 	mov	r4, r0
    8dd4:	e3a06000 	mov	r6, #0, 0
    8dd8:	ea00000a 	b	8e08 <ck_heap_errors+0x48>
    8ddc:	e5943024 	ldr	r3, [r4, #36]	; 0x24
    8de0:	e5942020 	ldr	r2, [r4, #32]
    8de4:	e594101c 	ldr	r1, [r4, #28]
    8de8:	e59f0098 	ldr	r0, [pc, #152]	; 8e88 <ck_heap_errors+0xc8>
    8dec:	eb0000c9 	bl	9118 <printk>
    8df0:	e59f0094 	ldr	r0, [pc, #148]	; 8e8c <ck_heap_errors+0xcc>
    8df4:	eb0000c7 	bl	9118 <printk>
    8df8:	e0866005 	add	r6, r6, r5
    8dfc:	e1a00004 	mov	r0, r4
    8e00:	ebfffcff 	bl	8204 <ck_next_hdr>
    8e04:	e1a04000 	mov	r4, r0
    8e08:	e3540000 	cmp	r4, #0, 0
    8e0c:	0a00001b 	beq	8e80 <ck_heap_errors+0xc0>
    8e10:	e3a01080 	mov	r1, #128, 0	; 0x80
    8e14:	e2840032 	add	r0, r4, #50, 0	; 0x32
    8e18:	ebffffd4 	bl	8d70 <redzone_errors>
    8e1c:	e1a05000 	mov	r5, r0
    8e20:	e28470b4 	add	r7, r4, #180, 0	; 0xb4
    8e24:	e5940004 	ldr	r0, [r4, #4]
    8e28:	e28000b4 	add	r0, r0, #180, 0	; 0xb4
    8e2c:	e3a01080 	mov	r1, #128, 0	; 0x80
    8e30:	e0840000 	add	r0, r4, r0
    8e34:	ebffffcd 	bl	8d70 <redzone_errors>
    8e38:	e0855000 	add	r5, r5, r0
    8e3c:	e5943018 	ldr	r3, [r4, #24]
    8e40:	e5942014 	ldr	r2, [r4, #20]
    8e44:	e5941010 	ldr	r1, [r4, #16]
    8e48:	e59f0038 	ldr	r0, [pc, #56]	; 8e88 <ck_heap_errors+0xc8>
    8e4c:	eb0000b1 	bl	9118 <printk>
    8e50:	e59f0038 	ldr	r0, [pc, #56]	; 8e90 <ck_heap_errors+0xd0>
    8e54:	eb0000af 	bl	9118 <printk>
    8e58:	e5943008 	ldr	r3, [r4, #8]
    8e5c:	e353000c 	cmp	r3, #12, 0
    8e60:	1affffe4 	bne	8df8 <ck_heap_errors+0x38>
    8e64:	e5941004 	ldr	r1, [r4, #4]
    8e68:	e1a00007 	mov	r0, r7
    8e6c:	ebffffbf 	bl	8d70 <redzone_errors>
    8e70:	e0855000 	add	r5, r5, r0
    8e74:	e3500000 	cmp	r0, #0, 0
    8e78:	0affffde 	beq	8df8 <ck_heap_errors+0x38>
    8e7c:	eaffffd6 	b	8ddc <ck_heap_errors+0x1c>
    8e80:	e1a00006 	mov	r0, r6
    8e84:	e89da8f0 	ldm	sp, {r4, r5, r6, r7, fp, sp, pc}
    8e88:	0000a828 	andeq	sl, r0, r8, lsr #16
    8e8c:	0000abbc 			; <UNDEFINED> instruction: 0x0000abbc
    8e90:	0000ab8c 	andeq	sl, r0, ip, lsl #23
    8e94:	665f6b63 	ldrbvs	r6, [pc], -r3, ror #22
    8e98:	5f646e69 	svcpl	0x00646e69
    8e9c:	6b61656c 	blvs	1862454 <__bss_end__+0x1856f84>
    8ea0:	00000073 	andeq	r0, r0, r3, ror r0
    8ea4:	ff000010 			; <UNDEFINED> instruction: 0xff000010

00008ea8 <ck_find_leaks>:
    8ea8:	e1a0c00d 	mov	ip, sp
    8eac:	e92dd800 	push	{fp, ip, lr, pc}
    8eb0:	e24cb004 	sub	fp, ip, #4, 0
    8eb4:	ebfffefe 	bl	8ab4 <sweep_leak>
    8eb8:	e89da800 	ldm	sp, {fp, sp, pc}
    8ebc:	63656863 	cmnvs	r5, #6488064	; 0x630000
    8ec0:	6f6e5f6b 	svcvs	0x006e5f6b
    8ec4:	61656c5f 	cmnvs	r5, pc, asr ip
    8ec8:	0000006b 	andeq	r0, r0, fp, rrx
    8ecc:	ff000010 			; <UNDEFINED> instruction: 0xff000010

00008ed0 <check_no_leak>:
    8ed0:	e1a0c00d 	mov	ip, sp
    8ed4:	e92dd800 	push	{fp, ip, lr, pc}
    8ed8:	e24cb004 	sub	fp, ip, #4, 0
    8edc:	e3a00001 	mov	r0, #1, 0
    8ee0:	ebfffff0 	bl	8ea8 <ck_find_leaks>
    8ee4:	e3500000 	cmp	r0, #0, 0
    8ee8:	1a000002 	bne	8ef8 <check_no_leak+0x28>
    8eec:	e59f001c 	ldr	r0, [pc, #28]	; 8f10 <check_no_leak+0x40>
    8ef0:	eb000088 	bl	9118 <printk>
    8ef4:	e89da800 	ldm	sp, {fp, sp, pc}
    8ef8:	e3a030f9 	mov	r3, #249, 0	; 0xf9
    8efc:	e59f2010 	ldr	r2, [pc, #16]	; 8f14 <check_no_leak+0x44>
    8f00:	e59f1010 	ldr	r1, [pc, #16]	; 8f18 <check_no_leak+0x48>
    8f04:	e59f0010 	ldr	r0, [pc, #16]	; 8f1c <check_no_leak+0x4c>
    8f08:	eb000082 	bl	9118 <printk>
    8f0c:	eb000338 	bl	9bf4 <clean_reboot>
    8f10:	0000ac00 	andeq	sl, r0, r0, lsl #24
    8f14:	0000acb8 			; <UNDEFINED> instruction: 0x0000acb8
    8f18:	0000a93c 	andeq	sl, r0, ip, lsr r9
    8f1c:	0000abd4 	ldrdeq	sl, [r0], -r4
    8f20:	63656863 	cmnvs	r5, #6488064	; 0x630000
    8f24:	68735f6b 	ldmdavs	r3!, {r0, r1, r3, r5, r6, r8, r9, sl, fp, ip, lr}^
    8f28:	646c756f 	strbtvs	r7, [ip], #-1391	; 0xfffffa91
    8f2c:	61656c5f 	cmnvs	r5, pc, asr ip
    8f30:	0000006b 	andeq	r0, r0, fp, rrx
    8f34:	ff000014 			; <UNDEFINED> instruction: 0xff000014

00008f38 <check_should_leak>:
    8f38:	e1a0c00d 	mov	ip, sp
    8f3c:	e92dd830 	push	{r4, r5, fp, ip, lr, pc}
    8f40:	e24cb004 	sub	fp, ip, #4, 0
    8f44:	e3a00001 	mov	r0, #1, 0
    8f48:	ebffffd6 	bl	8ea8 <ck_find_leaks>
    8f4c:	e2504000 	subs	r4, r0, #0, 0
    8f50:	0a000004 	beq	8f68 <check_should_leak+0x30>
    8f54:	e1a01004 	mov	r1, r4
    8f58:	e59f0020 	ldr	r0, [pc, #32]	; 8f80 <check_should_leak+0x48>
    8f5c:	eb00006d 	bl	9118 <printk>
    8f60:	e1a00004 	mov	r0, r4
    8f64:	e89da830 	ldm	sp, {r4, r5, fp, sp, pc}
    8f68:	e3a03f42 	mov	r3, #264	; 0x108
    8f6c:	e59f2010 	ldr	r2, [pc, #16]	; 8f84 <check_should_leak+0x4c>
    8f70:	e59f1010 	ldr	r1, [pc, #16]	; 8f88 <check_should_leak+0x50>
    8f74:	e59f0010 	ldr	r0, [pc, #16]	; 8f8c <check_should_leak+0x54>
    8f78:	eb000066 	bl	9118 <printk>
    8f7c:	eb00031c 	bl	9bf4 <clean_reboot>
    8f80:	0000ac48 	andeq	sl, r0, r8, asr #24
    8f84:	0000acc8 	andeq	sl, r0, r8, asr #25
    8f88:	0000a93c 	andeq	sl, r0, ip, lsr r9
    8f8c:	0000ac20 	andeq	sl, r0, r0, lsr #24
    8f90:	675f6b63 	ldrbvs	r6, [pc, -r3, ror #22]
    8f94:	00000063 	andeq	r0, r0, r3, rrx
    8f98:	ff000008 			; <UNDEFINED> instruction: 0xff000008

00008f9c <ck_gc>:
    8f9c:	e1a0c00d 	mov	ip, sp
    8fa0:	e92dd800 	push	{fp, ip, lr, pc}
    8fa4:	e24cb004 	sub	fp, ip, #4, 0
    8fa8:	ebfffe92 	bl	89f8 <mark_all>
    8fac:	ebffff03 	bl	8bc0 <sweep_free>
    8fb0:	e89da800 	ldm	sp, {fp, sp, pc}
    8fb4:	6c706d69 	ldclvs	13, cr6, [r0], #-420	; 0xfffffe5c
    8fb8:	6e656d65 	cdpvs	13, 6, cr6, cr5, cr5, {3}
    8fbc:	68745f74 	ldmdavs	r4!, {r2, r4, r5, r6, r8, r9, sl, fp, ip, lr}^
    8fc0:	00007369 	andeq	r7, r0, r9, ror #6
    8fc4:	ff000010 			; <UNDEFINED> instruction: 0xff000010

00008fc8 <implement_this>:
    8fc8:	e1a0c00d 	mov	ip, sp
    8fcc:	e92dd800 	push	{fp, ip, lr, pc}
    8fd0:	e24cb004 	sub	fp, ip, #4, 0
    8fd4:	e3a03f4d 	mov	r3, #308	; 0x134
    8fd8:	e59f200c 	ldr	r2, [pc, #12]	; 8fec <implement_this+0x24>
    8fdc:	e59f100c 	ldr	r1, [pc, #12]	; 8ff0 <implement_this+0x28>
    8fe0:	e59f000c 	ldr	r0, [pc, #12]	; 8ff4 <implement_this+0x2c>
    8fe4:	eb00004b 	bl	9118 <printk>
    8fe8:	eb000301 	bl	9bf4 <clean_reboot>
    8fec:	0000acdc 	ldrdeq	sl, [r0], -ip
    8ff0:	0000a93c 	andeq	sl, r0, ip, lsr r9
    8ff4:	0000ac6c 	andeq	sl, r0, ip, ror #24

00008ff8 <dump_regs>:
    8ff8:	e8a0ffff 	stmia	r0!, {r0, r1, r2, r3, r4, r5, r6, r7, r8, r9, sl, fp, ip, sp, lr, pc}
    8ffc:	e12fff1e 	bx	lr

00009000 <backtrace>:
    9000:	e92d41f0 	push	{r4, r5, r6, r7, r8, lr}
    9004:	e1a0400b 	mov	r4, fp
    9008:	e3540000 	cmp	r4, #0, 0
    900c:	0a000016 	beq	906c <backtrace+0x6c>
    9010:	e3a07000 	mov	r7, #0, 0
    9014:	e59f605c 	ldr	r6, [pc, #92]	; 9078 <backtrace+0x78>
    9018:	e59f505c 	ldr	r5, [pc, #92]	; 907c <backtrace+0x7c>
    901c:	ea000002 	b	902c <backtrace+0x2c>
    9020:	e2877001 	add	r7, r7, #1, 0
    9024:	e3570020 	cmp	r7, #32, 0
    9028:	0a00000f 	beq	906c <backtrace+0x6c>
    902c:	e5940000 	ldr	r0, [r4]
    9030:	e1a01007 	mov	r1, r7
    9034:	e5103010 	ldr	r3, [r0, #-16]
    9038:	e240200c 	sub	r2, r0, #12, 0
    903c:	e31304ff 	tst	r3, #-16777216	; 0xff000000
    9040:	e2400010 	sub	r0, r0, #16, 0
    9044:	e3c334ff 	bic	r3, r3, #-16777216	; 0xff000000
    9048:	10403003 	subne	r3, r0, r3
    904c:	01a03006 	moveq	r3, r6
    9050:	e1a00005 	mov	r0, r5
    9054:	eb00002f 	bl	9118 <printk>
    9058:	e514400c 	ldr	r4, [r4, #-12]
    905c:	e3540000 	cmp	r4, #0, 0
    9060:	1affffee 	bne	9020 <backtrace+0x20>
    9064:	e1a00007 	mov	r0, r7
    9068:	e8bd81f0 	pop	{r4, r5, r6, r7, r8, pc}
    906c:	e3e07000 	mvn	r7, #0, 0
    9070:	e1a00007 	mov	r0, r7
    9074:	e8bd81f0 	pop	{r4, r5, r6, r7, r8, pc}
    9078:	0000acec 	andeq	sl, r0, ip, ror #25
    907c:	0000acf0 	strdeq	sl, [r0], -r0

00009080 <name_of>:
    9080:	e5103004 	ldr	r3, [r0, #-4]
    9084:	e2400004 	sub	r0, r0, #4, 0
    9088:	e31304ff 	tst	r3, #-16777216	; 0xff000000
    908c:	13c334ff 	bicne	r3, r3, #-16777216	; 0xff000000
    9090:	10400003 	subne	r0, r0, r3
    9094:	059f0000 	ldreq	r0, [pc]	; 909c <name_of+0x1c>
    9098:	e12fff1e 	bx	lr
    909c:	0000acec 	andeq	sl, r0, ip, ror #25

000090a0 <memset>:
    90a0:	e92d4010 	push	{r4, lr}
    90a4:	e0804002 	add	r4, r0, r2
    90a8:	e1500004 	cmp	r0, r4
    90ac:	28bd8010 	popcs	{r4, pc}
    90b0:	e2423001 	sub	r3, r2, #1, 0
    90b4:	e3530002 	cmp	r3, #2, 0
    90b8:	e6ef1071 	uxtb	r1, r1
    90bc:	e1a03000 	mov	r3, r0
    90c0:	9a00000b 	bls	90f4 <memset+0x54>
    90c4:	e181e401 	orr	lr, r1, r1, lsl #8
    90c8:	e18ee801 	orr	lr, lr, r1, lsl #16
    90cc:	e3c2c003 	bic	ip, r2, #3, 0
    90d0:	e18eec01 	orr	lr, lr, r1, lsl #24
    90d4:	e08cc000 	add	ip, ip, r0
    90d8:	e483e004 	str	lr, [r3], #4
    90dc:	e153000c 	cmp	r3, ip
    90e0:	1afffffc 	bne	90d8 <memset+0x38>
    90e4:	e3c23003 	bic	r3, r2, #3, 0
    90e8:	e1520003 	cmp	r2, r3
    90ec:	e0803003 	add	r3, r0, r3
    90f0:	08bd8010 	popeq	{r4, pc}
    90f4:	e1a02003 	mov	r2, r3
    90f8:	e4c21001 	strb	r1, [r2], #1
    90fc:	e1540002 	cmp	r4, r2
    9100:	98bd8010 	popls	{r4, pc}
    9104:	e2832002 	add	r2, r3, #2, 0
    9108:	e1540002 	cmp	r4, r2
    910c:	e5c31001 	strb	r1, [r3, #1]
    9110:	85c31002 	strbhi	r1, [r3, #2]
    9114:	e8bd8010 	pop	{r4, pc}

00009118 <printk>:
    9118:	e92d000f 	push	{r0, r1, r2, r3}
    911c:	e92d4030 	push	{r4, r5, lr}
    9120:	e59f5040 	ldr	r5, [pc, #64]	; 9168 <printk+0x50>
    9124:	e24dd00c 	sub	sp, sp, #12, 0
    9128:	e28d301c 	add	r3, sp, #28, 0
    912c:	e3a01b01 	mov	r1, #1024	; 0x400
    9130:	e59d2018 	ldr	r2, [sp, #24]
    9134:	e1a00005 	mov	r0, r5
    9138:	e58d3004 	str	r3, [sp, #4]
    913c:	eb000121 	bl	95c8 <va_printk>
    9140:	e1a04000 	mov	r4, r0
    9144:	e59f3020 	ldr	r3, [pc, #32]	; 916c <printk+0x54>
    9148:	e1a00005 	mov	r0, r5
    914c:	e5933000 	ldr	r3, [r3]
    9150:	e12fff33 	blx	r3
    9154:	e1a00004 	mov	r0, r4
    9158:	e28dd00c 	add	sp, sp, #12, 0
    915c:	e8bd4030 	pop	{r4, r5, lr}
    9160:	e28dd010 	add	sp, sp, #16, 0
    9164:	e12fff1e 	bx	lr
    9168:	0000b0c4 	andeq	fp, r0, r4, asr #1
    916c:	0000b088 	andeq	fp, r0, r8, lsl #1

00009170 <internal_putk>:
    9170:	e92d4070 	push	{r4, r5, r6, lr}
    9174:	e1a04000 	mov	r4, r0
    9178:	e5d00000 	ldrb	r0, [r0]
    917c:	e3500000 	cmp	r0, #0, 0
    9180:	0a000005 	beq	919c <internal_putk+0x2c>
    9184:	e59f5018 	ldr	r5, [pc, #24]	; 91a4 <internal_putk+0x34>
    9188:	e5953000 	ldr	r3, [r5]
    918c:	e12fff33 	blx	r3
    9190:	e5f40001 	ldrb	r0, [r4, #1]!
    9194:	e3500000 	cmp	r0, #0, 0
    9198:	1afffffa 	bne	9188 <internal_putk+0x18>
    919c:	e3a00001 	mov	r0, #1, 0
    91a0:	e8bd8070 	pop	{r4, r5, r6, pc}
    91a4:	0000b09c 	muleq	r0, ip, r0

000091a8 <rpi_rand16>:
    91a8:	e59f1024 	ldr	r1, [pc, #36]	; 91d4 <rpi_rand16+0x2c>
    91ac:	e1d130b0 	ldrh	r3, [r1]
    91b0:	e1a001a3 	lsr	r0, r3, #3
    91b4:	e0200123 	eor	r0, r0, r3, lsr #2
    91b8:	e0200003 	eor	r0, r0, r3
    91bc:	e02022a3 	eor	r2, r0, r3, lsr #5
    91c0:	e1a000a3 	lsr	r0, r3, #1
    91c4:	e1800782 	orr	r0, r0, r2, lsl #15
    91c8:	e6ff0070 	uxth	r0, r0
    91cc:	e1c100b0 	strh	r0, [r1]
    91d0:	e12fff1e 	bx	lr
    91d4:	0000b08c 	andeq	fp, r0, ip, lsl #1

000091d8 <rpi_rand32>:
    91d8:	e59f1044 	ldr	r1, [pc, #68]	; 9224 <rpi_rand32+0x4c>
    91dc:	e1d120b0 	ldrh	r2, [r1]
    91e0:	e1a031a2 	lsr	r3, r2, #3
    91e4:	e0233122 	eor	r3, r3, r2, lsr #2
    91e8:	e0233002 	eor	r3, r3, r2
    91ec:	e02302a2 	eor	r0, r3, r2, lsr #5
    91f0:	e1a030a2 	lsr	r3, r2, #1
    91f4:	e1833780 	orr	r3, r3, r0, lsl #15
    91f8:	e6ff3073 	uxth	r3, r3
    91fc:	e1a001a3 	lsr	r0, r3, #3
    9200:	e0200123 	eor	r0, r0, r3, lsr #2
    9204:	e0200003 	eor	r0, r0, r3
    9208:	e02002a3 	eor	r0, r0, r3, lsr #5
    920c:	e1a020a3 	lsr	r2, r3, #1
    9210:	e1820780 	orr	r0, r2, r0, lsl #15
    9214:	e6ff0070 	uxth	r0, r0
    9218:	e1c100b0 	strh	r0, [r1]
    921c:	e1800803 	orr	r0, r0, r3, lsl #16
    9220:	e12fff1e 	bx	lr
    9224:	0000b08c 	andeq	fp, r0, ip, lsl #1

00009228 <rpi_reset>:
    9228:	e59f3008 	ldr	r3, [pc, #8]	; 9238 <rpi_reset+0x10>
    922c:	e59f2008 	ldr	r2, [pc, #8]	; 923c <rpi_reset+0x14>
    9230:	e1c320b0 	strh	r2, [r3]
    9234:	e12fff1e 	bx	lr
    9238:	0000b08c 	andeq	fp, r0, ip, lsl #1
    923c:	fffface1 			; <UNDEFINED> instruction: 0xfffface1

00009240 <emit.constprop.0>:
    9240:	e92d41f0 	push	{r4, r5, r6, r7, r8, lr}
    9244:	e3530080 	cmp	r3, #128, 0	; 0x80
    9248:	e1a0c000 	mov	ip, r0
    924c:	e24dd048 	sub	sp, sp, #72, 0	; 0x48
    9250:	e1a00001 	mov	r0, r1
    9254:	ca000069 	bgt	9400 <emit.constprop.0+0x1c0>
    9258:	e24c1002 	sub	r1, ip, #2, 0
    925c:	e1a0c002 	mov	ip, r2
    9260:	e351000e 	cmp	r1, #14, 0
    9264:	979ff101 	ldrls	pc, [pc, r1, lsl #2]
    9268:	ea0000a7 	b	950c <emit.constprop.0+0x2cc>
    926c:	000093d8 	ldrdeq	r9, [r0], -r8
    9270:	0000950c 	andeq	r9, r0, ip, lsl #10
    9274:	0000950c 	andeq	r9, r0, ip, lsl #10
    9278:	0000950c 	andeq	r9, r0, ip, lsl #10
    927c:	0000950c 	andeq	r9, r0, ip, lsl #10
    9280:	0000950c 	andeq	r9, r0, ip, lsl #10
    9284:	000094b4 			; <UNDEFINED> instruction: 0x000094b4
    9288:	0000950c 	andeq	r9, r0, ip, lsl #10
    928c:	00009454 	andeq	r9, r0, r4, asr r4
    9290:	0000950c 	andeq	r9, r0, ip, lsl #10
    9294:	0000950c 	andeq	r9, r0, ip, lsl #10
    9298:	0000950c 	andeq	r9, r0, ip, lsl #10
    929c:	0000950c 	andeq	r9, r0, ip, lsl #10
    92a0:	0000950c 	andeq	r9, r0, ip, lsl #10
    92a4:	000092ac 	andeq	r9, r0, ip, lsr #5
    92a8:	e3a0307f 	mov	r3, #127, 0	; 0x7f
    92ac:	e28d2008 	add	r2, sp, #8, 0
    92b0:	e1a04002 	mov	r4, r2
    92b4:	e59f1288 	ldr	r1, [pc, #648]	; 9544 <emit.constprop.0+0x304>
    92b8:	e20ce00f 	and	lr, ip, #15, 0
    92bc:	e7d1e00e 	ldrb	lr, [r1, lr]
    92c0:	e35c000f 	cmp	ip, #15, 0
    92c4:	e4c4e001 	strb	lr, [r4], #1
    92c8:	e1a0c22c 	lsr	ip, ip, #4
    92cc:	8afffff9 	bhi	92b8 <emit.constprop.0+0x78>
    92d0:	e3a0c078 	mov	ip, #120, 0	; 0x78
    92d4:	e1a0e004 	mov	lr, r4
    92d8:	e3a01030 	mov	r1, #48, 0	; 0x30
    92dc:	e4cec002 	strb	ip, [lr], #2
    92e0:	e5c41001 	strb	r1, [r4, #1]
    92e4:	e04e1002 	sub	r1, lr, r2
    92e8:	e1510003 	cmp	r1, r3
    92ec:	aa000083 	bge	9500 <emit.constprop.0+0x2c0>
    92f0:	e1510003 	cmp	r1, r3
    92f4:	a3a0c001 	movge	ip, #1, 0
    92f8:	b3a0c000 	movlt	ip, #0, 0
    92fc:	e2434001 	sub	r4, r3, #1, 0
    9300:	e0444001 	sub	r4, r4, r1
    9304:	b0436001 	sublt	r6, r3, r1
    9308:	a3a06001 	movge	r6, #1, 0
    930c:	e3540002 	cmp	r4, #2, 0
    9310:	938cc001 	orrls	ip, ip, #1, 0
    9314:	e35c0000 	cmp	ip, #0, 0
    9318:	1a000075 	bne	94f4 <emit.constprop.0+0x2b4>
    931c:	e1a0c00e 	mov	ip, lr
    9320:	e3c65003 	bic	r5, r6, #3, 0
    9324:	e59f721c 	ldr	r7, [pc, #540]	; 9548 <emit.constprop.0+0x308>
    9328:	e085500e 	add	r5, r5, lr
    932c:	e48c7004 	str	r7, [ip], #4
    9330:	e15c0005 	cmp	ip, r5
    9334:	1afffffc 	bne	932c <emit.constprop.0+0xec>
    9338:	e3c6c003 	bic	ip, r6, #3, 0
    933c:	e156000c 	cmp	r6, ip
    9340:	e08e500c 	add	r5, lr, ip
    9344:	e08cc001 	add	ip, ip, r1
    9348:	0a000008 	beq	9370 <emit.constprop.0+0x130>
    934c:	e3a07020 	mov	r7, #32, 0
    9350:	e28c8001 	add	r8, ip, #1, 0
    9354:	e1580003 	cmp	r8, r3
    9358:	e5c57000 	strb	r7, [r5]
    935c:	aa000003 	bge	9370 <emit.constprop.0+0x130>
    9360:	e28cc002 	add	ip, ip, #2, 0
    9364:	e15c0003 	cmp	ip, r3
    9368:	e5c57001 	strb	r7, [r5, #1]
    936c:	b5c57002 	strblt	r7, [r5, #2]
    9370:	e1510003 	cmp	r1, r3
    9374:	a3a04000 	movge	r4, #0, 0
    9378:	e08e6006 	add	r6, lr, r6
    937c:	e0461002 	sub	r1, r6, r2
    9380:	e08ee004 	add	lr, lr, r4
    9384:	e3a03000 	mov	r3, #0, 0
    9388:	e351007f 	cmp	r1, #127, 0	; 0x7f
    938c:	c241407f 	subgt	r4, r1, #127, 0	; 0x7f
    9390:	c0822004 	addgt	r2, r2, r4
    9394:	e152000e 	cmp	r2, lr
    9398:	e5c63000 	strb	r3, [r6]
    939c:	8a00004f 	bhi	94e0 <emit.constprop.0+0x2a0>
    93a0:	e28ee001 	add	lr, lr, #1, 0
    93a4:	e1a0300e 	mov	r3, lr
    93a8:	e240c001 	sub	ip, r0, #1, 0
    93ac:	e5734001 	ldrb	r4, [r3, #-1]!
    93b0:	e1530002 	cmp	r3, r2
    93b4:	e5ec4001 	strb	r4, [ip, #1]!
    93b8:	1afffffb 	bne	93ac <emit.constprop.0+0x16c>
    93bc:	e04ee003 	sub	lr, lr, r3
    93c0:	e3a03000 	mov	r3, #0, 0
    93c4:	e080e00e 	add	lr, r0, lr
    93c8:	e5ce3000 	strb	r3, [lr]
    93cc:	e28dd048 	add	sp, sp, #72, 0	; 0x48
    93d0:	e8bd81f0 	pop	{r4, r5, r6, r7, r8, pc}
    93d4:	e3a0307f 	mov	r3, #127, 0	; 0x7f
    93d8:	e28d2008 	add	r2, sp, #8, 0
    93dc:	e1a0e002 	mov	lr, r2
    93e0:	e59f1164 	ldr	r1, [pc, #356]	; 954c <emit.constprop.0+0x30c>
    93e4:	e20c4001 	and	r4, ip, #1, 0
    93e8:	e7d14004 	ldrb	r4, [r1, r4]
    93ec:	e35c0001 	cmp	ip, #1, 0
    93f0:	e4ce4001 	strb	r4, [lr], #1
    93f4:	e1a0c0ac 	lsr	ip, ip, #1
    93f8:	8afffff9 	bhi	93e4 <emit.constprop.0+0x1a4>
    93fc:	eaffffb8 	b	92e4 <emit.constprop.0+0xa4>
    9400:	e24c3002 	sub	r3, ip, #2, 0
    9404:	e1a0c002 	mov	ip, r2
    9408:	e353000e 	cmp	r3, #14, 0
    940c:	979ff103 	ldrls	pc, [pc, r3, lsl #2]
    9410:	ea00003d 	b	950c <emit.constprop.0+0x2cc>
    9414:	000093d4 	ldrdeq	r9, [r0], -r4
    9418:	0000950c 	andeq	r9, r0, ip, lsl #10
    941c:	0000950c 	andeq	r9, r0, ip, lsl #10
    9420:	0000950c 	andeq	r9, r0, ip, lsl #10
    9424:	0000950c 	andeq	r9, r0, ip, lsl #10
    9428:	0000950c 	andeq	r9, r0, ip, lsl #10
    942c:	0000952c 	andeq	r9, r0, ip, lsr #10
    9430:	0000950c 	andeq	r9, r0, ip, lsl #10
    9434:	00009450 	andeq	r9, r0, r0, asr r4
    9438:	0000950c 	andeq	r9, r0, ip, lsl #10
    943c:	0000950c 	andeq	r9, r0, ip, lsl #10
    9440:	0000950c 	andeq	r9, r0, ip, lsl #10
    9444:	0000950c 	andeq	r9, r0, ip, lsl #10
    9448:	0000950c 	andeq	r9, r0, ip, lsl #10
    944c:	000092a8 	andeq	r9, r0, r8, lsr #5
    9450:	e3a0307f 	mov	r3, #127, 0	; 0x7f
    9454:	e59d1060 	ldr	r1, [sp, #96]	; 0x60
    9458:	e59f70f0 	ldr	r7, [pc, #240]	; 9550 <emit.constprop.0+0x310>
    945c:	e0118fa2 	ands	r8, r1, r2, lsr #31
    9460:	1262c000 	rsbne	ip, r2, #0, 0
    9464:	e28d2008 	add	r2, sp, #8, 0
    9468:	13a08001 	movne	r8, #1, 0
    946c:	e1a0e002 	mov	lr, r2
    9470:	e59f60dc 	ldr	r6, [pc, #220]	; 9554 <emit.constprop.0+0x314>
    9474:	e1a0500c 	mov	r5, ip
    9478:	e0814c96 	umull	r4, r1, r6, ip
    947c:	e1a011a1 	lsr	r1, r1, #3
    9480:	e0814101 	add	r4, r1, r1, lsl #2
    9484:	e04cc084 	sub	ip, ip, r4, lsl #1
    9488:	e7d7400c 	ldrb	r4, [r7, ip]
    948c:	e3550009 	cmp	r5, #9, 0
    9490:	e1a0c001 	mov	ip, r1
    9494:	e1a0100e 	mov	r1, lr
    9498:	e4ce4001 	strb	r4, [lr], #1
    949c:	8afffff4 	bhi	9474 <emit.constprop.0+0x234>
    94a0:	e3580000 	cmp	r8, #0, 0
    94a4:	13a0c02d 	movne	ip, #45, 0	; 0x2d
    94a8:	15cec000 	strbne	ip, [lr]
    94ac:	1281e002 	addne	lr, r1, #2, 0
    94b0:	eaffff8b 	b	92e4 <emit.constprop.0+0xa4>
    94b4:	e3530001 	cmp	r3, #1, 0
    94b8:	e5cd2008 	strb	r2, [sp, #8]
    94bc:	c3a01001 	movgt	r1, #1, 0
    94c0:	c28de009 	addgt	lr, sp, #9, 0
    94c4:	c28d2008 	addgt	r2, sp, #8, 0
    94c8:	caffff88 	bgt	92f0 <emit.constprop.0+0xb0>
    94cc:	e3a03000 	mov	r3, #0, 0
    94d0:	e28de008 	add	lr, sp, #8, 0
    94d4:	e1a0200e 	mov	r2, lr
    94d8:	e5cd3009 	strb	r3, [sp, #9]
    94dc:	eaffffaf 	b	93a0 <emit.constprop.0+0x160>
    94e0:	e1a0e000 	mov	lr, r0
    94e4:	e3a03000 	mov	r3, #0, 0
    94e8:	e5ce3000 	strb	r3, [lr]
    94ec:	e28dd048 	add	sp, sp, #72, 0	; 0x48
    94f0:	e8bd81f0 	pop	{r4, r5, r6, r7, r8, pc}
    94f4:	e1a0c001 	mov	ip, r1
    94f8:	e1a0500e 	mov	r5, lr
    94fc:	eaffff92 	b	934c <emit.constprop.0+0x10c>
    9500:	e1a0600e 	mov	r6, lr
    9504:	e24ee001 	sub	lr, lr, #1, 0
    9508:	eaffff9d 	b	9384 <emit.constprop.0+0x144>
    950c:	e59f2044 	ldr	r2, [pc, #68]	; 9558 <emit.constprop.0+0x318>
    9510:	e3a03079 	mov	r3, #121, 0	; 0x79
    9514:	e59f1040 	ldr	r1, [pc, #64]	; 955c <emit.constprop.0+0x31c>
    9518:	e58d2000 	str	r2, [sp]
    951c:	e59f003c 	ldr	r0, [pc, #60]	; 9560 <emit.constprop.0+0x320>
    9520:	e59f203c 	ldr	r2, [pc, #60]	; 9564 <emit.constprop.0+0x324>
    9524:	ebfffefb 	bl	9118 <printk>
    9528:	eb0001b1 	bl	9bf4 <clean_reboot>
    952c:	e5cd2008 	strb	r2, [sp, #8]
    9530:	e3a0307f 	mov	r3, #127, 0	; 0x7f
    9534:	e3a01001 	mov	r1, #1, 0
    9538:	e28de009 	add	lr, sp, #9, 0
    953c:	e28d2008 	add	r2, sp, #8, 0
    9540:	eaffff6a 	b	92f0 <emit.constprop.0+0xb0>
    9544:	0000ad14 	andeq	sl, r0, r4, lsl sp
    9548:	20202020 	eorcs	r2, r0, r0, lsr #32
    954c:	0000ad28 	andeq	sl, r0, r8, lsr #26
    9550:	0000ad2c 	andeq	sl, r0, ip, lsr #26
    9554:	cccccccd 	stclgt	12, cr12, [ip], {205}	; 0xcd
    9558:	0000ab68 	andeq	sl, r0, r8, ror #22
    955c:	0000ad00 	andeq	sl, r0, r0, lsl #26
    9560:	0000a8c8 	andeq	sl, r0, r8, asr #17
    9564:	0000ae40 	andeq	sl, r0, r0, asr #28

00009568 <rpi_set_output>:
    9568:	e3500000 	cmp	r0, #0, 0
    956c:	0a000005 	beq	9588 <rpi_set_output+0x20>
    9570:	e59f3038 	ldr	r3, [pc, #56]	; 95b0 <rpi_set_output+0x48>
    9574:	e3510000 	cmp	r1, #0, 0
    9578:	e5830000 	str	r0, [r3]
    957c:	159f3030 	ldrne	r3, [pc, #48]	; 95b4 <rpi_set_output+0x4c>
    9580:	15831000 	strne	r1, [r3]
    9584:	e12fff1e 	bx	lr
    9588:	e52de004 	push	{lr}		; (str lr, [sp, #-4]!)
    958c:	e59f2024 	ldr	r2, [pc, #36]	; 95b8 <rpi_set_output+0x50>
    9590:	e24dd00c 	sub	sp, sp, #12, 0
    9594:	e3a03020 	mov	r3, #32, 0
    9598:	e59f101c 	ldr	r1, [pc, #28]	; 95bc <rpi_set_output+0x54>
    959c:	e58d2000 	str	r2, [sp]
    95a0:	e59f0018 	ldr	r0, [pc, #24]	; 95c0 <rpi_set_output+0x58>
    95a4:	e59f2018 	ldr	r2, [pc, #24]	; 95c4 <rpi_set_output+0x5c>
    95a8:	ebfffeda 	bl	9118 <printk>
    95ac:	eb000190 	bl	9bf4 <clean_reboot>
    95b0:	0000b09c 	muleq	r0, ip, r0
    95b4:	0000b088 	andeq	fp, r0, r8, lsl #1
    95b8:	0000ad38 	andeq	sl, r0, r8, lsr sp
    95bc:	0000ad00 	andeq	sl, r0, r0, lsl #26
    95c0:	0000a8c8 	andeq	sl, r0, r8, asr #17
    95c4:	0000ae48 	andeq	sl, r0, r8, asr #28

000095c8 <va_printk>:
    95c8:	e92d4ff0 	push	{r4, r5, r6, r7, r8, r9, sl, fp, lr}
    95cc:	e1a0b000 	mov	fp, r0
    95d0:	e3a00000 	mov	r0, #0, 0
    95d4:	e5cb0000 	strb	r0, [fp]
    95d8:	e5d2c000 	ldrb	ip, [r2]
    95dc:	e2417001 	sub	r7, r1, #1, 0
    95e0:	e08b7007 	add	r7, fp, r7
    95e4:	e15c0000 	cmp	ip, r0
    95e8:	115b0007 	cmpne	fp, r7
    95ec:	e24ddf47 	sub	sp, sp, #284	; 0x11c
    95f0:	e58d2010 	str	r2, [sp, #16]
    95f4:	2a000159 	bcs	9b60 <va_printk+0x598>
    95f8:	e1a06002 	mov	r6, r2
    95fc:	e1a08003 	mov	r8, r3
    9600:	e1a0400b 	mov	r4, fp
    9604:	e59fa5a4 	ldr	sl, [pc, #1444]	; 9bb0 <va_printk+0x5e8>
    9608:	e58db00c 	str	fp, [sp, #12]
    960c:	ea000005 	b	9628 <va_printk+0x60>
    9610:	e4c4c001 	strb	ip, [r4], #1
    9614:	e2866001 	add	r6, r6, #1, 0
    9618:	e5d6c000 	ldrb	ip, [r6]
    961c:	e35c0000 	cmp	ip, #0, 0
    9620:	11570004 	cmpne	r7, r4
    9624:	9a00002f 	bls	96e8 <va_printk+0x120>
    9628:	e35c0025 	cmp	ip, #37, 0	; 0x25
    962c:	1afffff7 	bne	9610 <va_printk+0x48>
    9630:	e5d62001 	ldrb	r2, [r6, #1]
    9634:	e3520025 	cmp	r2, #37, 0	; 0x25
    9638:	04c4c001 	strbeq	ip, [r4], #1
    963c:	02866002 	addeq	r6, r6, #2, 0
    9640:	0afffff4 	beq	9618 <va_printk+0x50>
    9644:	e2423030 	sub	r3, r2, #48, 0	; 0x30
    9648:	e3530009 	cmp	r3, #9, 0
    964c:	e3a05000 	mov	r5, #0, 0
    9650:	e2866001 	add	r6, r6, #1, 0
    9654:	8a000008 	bhi	967c <va_printk+0xb4>
    9658:	e0855105 	add	r5, r5, r5, lsl #2
    965c:	e0825085 	add	r5, r2, r5, lsl #1
    9660:	e5f62001 	ldrb	r2, [r6, #1]!
    9664:	e2455030 	sub	r5, r5, #48, 0	; 0x30
    9668:	e2423030 	sub	r3, r2, #48, 0	; 0x30
    966c:	e3530009 	cmp	r3, #9, 0
    9670:	9afffff8 	bls	9658 <va_printk+0x90>
    9674:	e355001f 	cmp	r5, #31, 0
    9678:	8a00013a 	bhi	9b68 <va_printk+0x5a0>
    967c:	e2423062 	sub	r3, r2, #98, 0	; 0x62
    9680:	e3530016 	cmp	r3, #22, 0
    9684:	979ff103 	ldrls	pc, [pc, r3, lsl #2]
    9688:	ea00011b 	b	9afc <va_printk+0x534>
    968c:	00009940 	andeq	r9, r0, r0, asr #18
    9690:	0000983c 	andeq	r9, r0, ip, lsr r8
    9694:	00009834 	andeq	r9, r0, r4, lsr r8
    9698:	00009afc 	strdeq	r9, [r0], -ip
    969c:	00009b38 	andeq	r9, r0, r8, lsr fp
    96a0:	00009afc 	strdeq	r9, [r0], -ip
    96a4:	00009afc 	strdeq	r9, [r0], -ip
    96a8:	00009afc 	strdeq	r9, [r0], -ip
    96ac:	00009afc 	strdeq	r9, [r0], -ip
    96b0:	00009afc 	strdeq	r9, [r0], -ip
    96b4:	00009744 	andeq	r9, r0, r4, asr #14
    96b8:	00009afc 	strdeq	r9, [r0], -ip
    96bc:	00009afc 	strdeq	r9, [r0], -ip
    96c0:	00009afc 	strdeq	r9, [r0], -ip
    96c4:	00009700 	andeq	r9, r0, r0, lsl #14
    96c8:	00009afc 	strdeq	r9, [r0], -ip
    96cc:	00009afc 	strdeq	r9, [r0], -ip
    96d0:	00009a38 	andeq	r9, r0, r8, lsr sl
    96d4:	00009afc 	strdeq	r9, [r0], -ip
    96d8:	00009810 	andeq	r9, r0, r0, lsl r8
    96dc:	00009afc 	strdeq	r9, [r0], -ip
    96e0:	00009afc 	strdeq	r9, [r0], -ip
    96e4:	00009700 	andeq	r9, r0, r0, lsl #14
    96e8:	e59db00c 	ldr	fp, [sp, #12]
    96ec:	e3a03000 	mov	r3, #0, 0
    96f0:	e4c43001 	strb	r3, [r4], #1
    96f4:	e044000b 	sub	r0, r4, fp
    96f8:	e28ddf47 	add	sp, sp, #284	; 0x11c
    96fc:	e8bd8ff0 	pop	{r4, r5, r6, r7, r8, r9, sl, fp, pc}
    9700:	e3a01000 	mov	r1, #0, 0
    9704:	e1a03005 	mov	r3, r5
    9708:	e4982004 	ldr	r2, [r8], #4
    970c:	e3a00010 	mov	r0, #16, 0
    9710:	e58d1000 	str	r1, [sp]
    9714:	e28d1018 	add	r1, sp, #24, 0
    9718:	ebfffec8 	bl	9240 <emit.constprop.0>
    971c:	e1a05000 	mov	r5, r0
    9720:	e2866001 	add	r6, r6, #1, 0
    9724:	e2455001 	sub	r5, r5, #1, 0
    9728:	e5f53001 	ldrb	r3, [r5, #1]!
    972c:	e3530000 	cmp	r3, #0, 0
    9730:	0affffb8 	beq	9618 <va_printk+0x50>
    9734:	e4c43001 	strb	r3, [r4], #1
    9738:	e1570004 	cmp	r7, r4
    973c:	8afffff9 	bhi	9728 <va_printk+0x160>
    9740:	eaffffb4 	b	9618 <va_printk+0x50>
    9744:	e3a02003 	mov	r2, #3, 0
    9748:	e1a00006 	mov	r0, r6
    974c:	e59f1460 	ldr	r1, [pc, #1120]	; 9bb4 <va_printk+0x5ec>
    9750:	eb0003e6 	bl	a6f0 <strncmp>
    9754:	e3500000 	cmp	r0, #0, 0
    9758:	0a000005 	beq	9774 <va_printk+0x1ac>
    975c:	e3a02003 	mov	r2, #3, 0
    9760:	e1a00006 	mov	r0, r6
    9764:	e59f144c 	ldr	r1, [pc, #1100]	; 9bb8 <va_printk+0x5f0>
    9768:	eb0003e0 	bl	a6f0 <strncmp>
    976c:	e3500000 	cmp	r0, #0, 0
    9770:	1a00010b 	bne	9ba4 <va_printk+0x5dc>
    9774:	e2888007 	add	r8, r8, #7, 0
    9778:	e3c88007 	bic	r8, r8, #7, 0
    977c:	e598b004 	ldr	fp, [r8, #4]
    9780:	e4989008 	ldr	r9, [r8], #8
    9784:	e1a0100b 	mov	r1, fp
    9788:	e59f042c 	ldr	r0, [pc, #1068]	; 9bbc <va_printk+0x5f4>
    978c:	ebfffe61 	bl	9118 <printk>
    9790:	e1a01009 	mov	r1, r9
    9794:	e59f0424 	ldr	r0, [pc, #1060]	; 9bc0 <va_printk+0x5f8>
    9798:	ebfffe5e 	bl	9118 <printk>
    979c:	e3a02003 	mov	r2, #3, 0
    97a0:	e1a00006 	mov	r0, r6
    97a4:	e59f1408 	ldr	r1, [pc, #1032]	; 9bb4 <va_printk+0x5ec>
    97a8:	eb0003d0 	bl	a6f0 <strncmp>
    97ac:	e2503000 	subs	r3, r0, #0, 0
    97b0:	e1a02003 	mov	r2, r3
    97b4:	e2863002 	add	r3, r6, #2, 0
    97b8:	e58d3014 	str	r3, [sp, #20]
    97bc:	1a00009f 	bne	9a40 <va_printk+0x478>
    97c0:	e1a06002 	mov	r6, r2
    97c4:	e1a03005 	mov	r3, r5
    97c8:	e58d2000 	str	r2, [sp]
    97cc:	e28d1018 	add	r1, sp, #24, 0
    97d0:	e1a0200b 	mov	r2, fp
    97d4:	e3a00010 	mov	r0, #16, 0
    97d8:	ebfffe98 	bl	9240 <emit.constprop.0>
    97dc:	e1a0c000 	mov	ip, r0
    97e0:	e1a03005 	mov	r3, r5
    97e4:	e58d6000 	str	r6, [sp]
    97e8:	e28d1098 	add	r1, sp, #152, 0	; 0x98
    97ec:	e1a02009 	mov	r2, r9
    97f0:	e3a00010 	mov	r0, #16, 0
    97f4:	e1a0500c 	mov	r5, ip
    97f8:	ebfffe90 	bl	9240 <emit.constprop.0>
    97fc:	e28d0018 	add	r0, sp, #24, 0
    9800:	e28d109a 	add	r1, sp, #154, 0	; 0x9a
    9804:	e59d6014 	ldr	r6, [sp, #20]
    9808:	eb000396 	bl	a668 <strcat>
    980c:	eaffffc3 	b	9720 <va_printk+0x158>
    9810:	e3a01000 	mov	r1, #0, 0
    9814:	e1a03005 	mov	r3, r5
    9818:	e4982004 	ldr	r2, [r8], #4
    981c:	e3a0000a 	mov	r0, #10, 0
    9820:	e58d1000 	str	r1, [sp]
    9824:	e28d1018 	add	r1, sp, #24, 0
    9828:	ebfffe84 	bl	9240 <emit.constprop.0>
    982c:	e1a05000 	mov	r5, r0
    9830:	eaffffba 	b	9720 <va_printk+0x158>
    9834:	e3a01001 	mov	r1, #1, 0
    9838:	eafffff5 	b	9814 <va_printk+0x24c>
    983c:	e4983004 	ldr	r3, [r8], #4
    9840:	e3550001 	cmp	r5, #1, 0
    9844:	e5cd3098 	strb	r3, [sp, #152]	; 0x98
    9848:	9a0000a6 	bls	9ae8 <va_printk+0x520>
    984c:	e2453002 	sub	r3, r5, #2, 0
    9850:	e3530002 	cmp	r3, #2, 0
    9854:	e2451001 	sub	r1, r5, #1, 0
    9858:	9a0000bc 	bls	9b50 <va_printk+0x588>
    985c:	e59f0360 	ldr	r0, [pc, #864]	; 9bc4 <va_printk+0x5fc>
    9860:	e1a02121 	lsr	r2, r1, #2
    9864:	e3520001 	cmp	r2, #1, 0
    9868:	e58d0099 	str	r0, [sp, #153]	; 0x99
    986c:	0a00000e 	beq	98ac <va_printk+0x2e4>
    9870:	e3520002 	cmp	r2, #2, 0
    9874:	e58d009d 	str	r0, [sp, #157]	; 0x9d
    9878:	0a00000b 	beq	98ac <va_printk+0x2e4>
    987c:	e3520003 	cmp	r2, #3, 0
    9880:	e58d00a1 	str	r0, [sp, #161]	; 0xa1
    9884:	0a000008 	beq	98ac <va_printk+0x2e4>
    9888:	e3520004 	cmp	r2, #4, 0
    988c:	e58d00a5 	str	r0, [sp, #165]	; 0xa5
    9890:	0a000005 	beq	98ac <va_printk+0x2e4>
    9894:	e3520005 	cmp	r2, #5, 0
    9898:	e58d00a9 	str	r0, [sp, #169]	; 0xa9
    989c:	0a000002 	beq	98ac <va_printk+0x2e4>
    98a0:	e3520007 	cmp	r2, #7, 0
    98a4:	e58d00ad 	str	r0, [sp, #173]	; 0xad
    98a8:	058d00b1 	streq	r0, [sp, #177]	; 0xb1
    98ac:	e3c12003 	bic	r2, r1, #3, 0
    98b0:	e1510002 	cmp	r1, r2
    98b4:	e28dc099 	add	ip, sp, #153, 0	; 0x99
    98b8:	e08c0002 	add	r0, ip, r2
    98bc:	e2822001 	add	r2, r2, #1, 0
    98c0:	0a000008 	beq	98e8 <va_printk+0x320>
    98c4:	e3a0e020 	mov	lr, #32, 0
    98c8:	e2829001 	add	r9, r2, #1, 0
    98cc:	e1550009 	cmp	r5, r9
    98d0:	e5c0e000 	strb	lr, [r0]
    98d4:	da000003 	ble	98e8 <va_printk+0x320>
    98d8:	e2822002 	add	r2, r2, #2, 0
    98dc:	e1550002 	cmp	r5, r2
    98e0:	e5c0e001 	strb	lr, [r0, #1]
    98e4:	c5c0e002 	strbgt	lr, [r0, #2]
    98e8:	e3a0e000 	mov	lr, #0, 0
    98ec:	e28d0098 	add	r0, sp, #152, 0	; 0x98
    98f0:	e08c2001 	add	r2, ip, r1
    98f4:	e0422000 	sub	r2, r2, r0
    98f8:	e352007f 	cmp	r2, #127, 0	; 0x7f
    98fc:	c242207f 	subgt	r2, r2, #127, 0	; 0x7f
    9900:	e08c3003 	add	r3, ip, r3
    9904:	c0800002 	addgt	r0, r0, r2
    9908:	e1530000 	cmp	r3, r0
    990c:	e7cce001 	strb	lr, [ip, r1]
    9910:	3a00006c 	bcc	9ac8 <va_printk+0x500>
    9914:	e283c001 	add	ip, r3, #1, 0
    9918:	e1a0300c 	mov	r3, ip
    991c:	e28d5018 	add	r5, sp, #24, 0
    9920:	e2452001 	sub	r2, r5, #1, 0
    9924:	e5731001 	ldrb	r1, [r3, #-1]!
    9928:	e1500003 	cmp	r0, r3
    992c:	e5e21001 	strb	r1, [r2, #1]!
    9930:	1afffffb 	bne	9924 <va_printk+0x35c>
    9934:	e04c3000 	sub	r3, ip, r0
    9938:	e0853003 	add	r3, r5, r3
    993c:	ea00003a 	b	9a2c <va_printk+0x464>
    9940:	e28d1098 	add	r1, sp, #152, 0	; 0x98
    9944:	e1a03001 	mov	r3, r1
    9948:	e4980004 	ldr	r0, [r8], #4
    994c:	e200c001 	and	ip, r0, #1, 0
    9950:	e7dac00c 	ldrb	ip, [sl, ip]
    9954:	e3500001 	cmp	r0, #1, 0
    9958:	e1a02003 	mov	r2, r3
    995c:	e1a000a0 	lsr	r0, r0, #1
    9960:	e4c3c001 	strb	ip, [r3], #1
    9964:	8afffff8 	bhi	994c <va_printk+0x384>
    9968:	e0430001 	sub	r0, r3, r1
    996c:	e1550000 	cmp	r5, r0
    9970:	da000057 	ble	9ad4 <va_printk+0x50c>
    9974:	e045c000 	sub	ip, r5, r0
    9978:	e24ce001 	sub	lr, ip, #1, 0
    997c:	e35e0002 	cmp	lr, #2, 0
    9980:	e1a0e003 	mov	lr, r3
    9984:	9a00000a 	bls	99b4 <va_printk+0x3ec>
    9988:	e3cc9003 	bic	r9, ip, #3, 0
    998c:	e0899003 	add	r9, r9, r3
    9990:	e59fb22c 	ldr	fp, [pc, #556]	; 9bc4 <va_printk+0x5fc>
    9994:	e48eb004 	str	fp, [lr], #4
    9998:	e15e0009 	cmp	lr, r9
    999c:	1afffffb 	bne	9990 <va_printk+0x3c8>
    99a0:	e3cce003 	bic	lr, ip, #3, 0
    99a4:	e15e000c 	cmp	lr, ip
    99a8:	e080000e 	add	r0, r0, lr
    99ac:	e083e00e 	add	lr, r3, lr
    99b0:	0a000008 	beq	99d8 <va_printk+0x410>
    99b4:	e3a09020 	mov	r9, #32, 0
    99b8:	e280b001 	add	fp, r0, #1, 0
    99bc:	e155000b 	cmp	r5, fp
    99c0:	e5ce9000 	strb	r9, [lr]
    99c4:	da000003 	ble	99d8 <va_printk+0x410>
    99c8:	e2800002 	add	r0, r0, #2, 0
    99cc:	e1550000 	cmp	r5, r0
    99d0:	e5ce9001 	strb	r9, [lr, #1]
    99d4:	c5ce9002 	strbgt	r9, [lr, #2]
    99d8:	e3a0e000 	mov	lr, #0, 0
    99dc:	e083000c 	add	r0, r3, ip
    99e0:	e0400001 	sub	r0, r0, r1
    99e4:	e350007f 	cmp	r0, #127, 0	; 0x7f
    99e8:	e082200c 	add	r2, r2, ip
    99ec:	e7c3e00c 	strb	lr, [r3, ip]
    99f0:	da000001 	ble	99fc <va_printk+0x434>
    99f4:	e240007f 	sub	r0, r0, #127, 0	; 0x7f
    99f8:	e0811000 	add	r1, r1, r0
    99fc:	e1510002 	cmp	r1, r2
    9a00:	8a000030 	bhi	9ac8 <va_printk+0x500>
    9a04:	e2822001 	add	r2, r2, #1, 0
    9a08:	e1a03002 	mov	r3, r2
    9a0c:	e28d5018 	add	r5, sp, #24, 0
    9a10:	e245c001 	sub	ip, r5, #1, 0
    9a14:	e5730001 	ldrb	r0, [r3, #-1]!
    9a18:	e1530001 	cmp	r3, r1
    9a1c:	e5ec0001 	strb	r0, [ip, #1]!
    9a20:	1afffffb 	bne	9a14 <va_printk+0x44c>
    9a24:	e0423003 	sub	r3, r2, r3
    9a28:	e0853003 	add	r3, r5, r3
    9a2c:	e3a02000 	mov	r2, #0, 0
    9a30:	e5c32000 	strb	r2, [r3]
    9a34:	eaffff39 	b	9720 <va_printk+0x158>
    9a38:	e4985004 	ldr	r5, [r8], #4
    9a3c:	eaffff37 	b	9720 <va_printk+0x158>
    9a40:	e3a02003 	mov	r2, #3, 0
    9a44:	e1a00006 	mov	r0, r6
    9a48:	e59f1168 	ldr	r1, [pc, #360]	; 9bb8 <va_printk+0x5f0>
    9a4c:	eb000327 	bl	a6f0 <strncmp>
    9a50:	e2503000 	subs	r3, r0, #0, 0
    9a54:	1a00004b 	bne	9b88 <va_printk+0x5c0>
    9a58:	e1a06003 	mov	r6, r3
    9a5c:	e1a0200b 	mov	r2, fp
    9a60:	e58d3000 	str	r3, [sp]
    9a64:	e28d1018 	add	r1, sp, #24, 0
    9a68:	e1a03005 	mov	r3, r5
    9a6c:	e3a0000a 	mov	r0, #10, 0
    9a70:	ebfffdf2 	bl	9240 <emit.constprop.0>
    9a74:	e1a0c000 	mov	ip, r0
    9a78:	e1a03005 	mov	r3, r5
    9a7c:	e1a02009 	mov	r2, r9
    9a80:	e28d1098 	add	r1, sp, #152, 0	; 0x98
    9a84:	e3a0000a 	mov	r0, #10, 0
    9a88:	e58d6000 	str	r6, [sp]
    9a8c:	e1a0500c 	mov	r5, ip
    9a90:	ebfffdea 	bl	9240 <emit.constprop.0>
    9a94:	e59f112c 	ldr	r1, [pc, #300]	; 9bc8 <va_printk+0x600>
    9a98:	e28d0018 	add	r0, sp, #24, 0
    9a9c:	eb0002fc 	bl	a694 <strcmp>
    9aa0:	e3500000 	cmp	r0, #0, 0
    9aa4:	e28d1098 	add	r1, sp, #152, 0	; 0x98
    9aa8:	e28d0018 	add	r0, sp, #24, 0
    9aac:	1a000002 	bne	9abc <va_printk+0x4f4>
    9ab0:	eb000308 	bl	a6d8 <strcpy>
    9ab4:	e59d6014 	ldr	r6, [sp, #20]
    9ab8:	eaffff18 	b	9720 <va_printk+0x158>
    9abc:	eb0002e9 	bl	a668 <strcat>
    9ac0:	e59d6014 	ldr	r6, [sp, #20]
    9ac4:	eaffff15 	b	9720 <va_printk+0x158>
    9ac8:	e28d5018 	add	r5, sp, #24, 0
    9acc:	e1a03005 	mov	r3, r5
    9ad0:	eaffffd5 	b	9a2c <va_printk+0x464>
    9ad4:	e3a0c000 	mov	ip, #0, 0
    9ad8:	e350007f 	cmp	r0, #127, 0	; 0x7f
    9adc:	e5c3c000 	strb	ip, [r3]
    9ae0:	caffffc3 	bgt	99f4 <va_printk+0x42c>
    9ae4:	eaffffc6 	b	9a04 <va_printk+0x43c>
    9ae8:	e3a02000 	mov	r2, #0, 0
    9aec:	e28d3098 	add	r3, sp, #152, 0	; 0x98
    9af0:	e1a00003 	mov	r0, r3
    9af4:	e5cd2099 	strb	r2, [sp, #153]	; 0x99
    9af8:	eaffff85 	b	9914 <va_printk+0x34c>
    9afc:	e3a03000 	mov	r3, #0, 0
    9b00:	e1a01002 	mov	r1, r2
    9b04:	e5c63001 	strb	r3, [r6, #1]
    9b08:	e59f00bc 	ldr	r0, [pc, #188]	; 9bcc <va_printk+0x604>
    9b0c:	ebfffd81 	bl	9118 <printk>
    9b10:	e59f30b8 	ldr	r3, [pc, #184]	; 9bd0 <va_printk+0x608>
    9b14:	e59d0010 	ldr	r0, [sp, #16]
    9b18:	e5933000 	ldr	r3, [r3]
    9b1c:	e12fff33 	blx	r3
    9b20:	e3a030e2 	mov	r3, #226, 0	; 0xe2
    9b24:	e59f20a8 	ldr	r2, [pc, #168]	; 9bd4 <va_printk+0x60c>
    9b28:	e59f10a8 	ldr	r1, [pc, #168]	; 9bd8 <va_printk+0x610>
    9b2c:	e59f00a8 	ldr	r0, [pc, #168]	; 9bdc <va_printk+0x614>
    9b30:	ebfffd78 	bl	9118 <printk>
    9b34:	eb00002e 	bl	9bf4 <clean_reboot>
    9b38:	e3a030be 	mov	r3, #190, 0	; 0xbe
    9b3c:	e59f2090 	ldr	r2, [pc, #144]	; 9bd4 <va_printk+0x60c>
    9b40:	e59f1090 	ldr	r1, [pc, #144]	; 9bd8 <va_printk+0x610>
    9b44:	e59f0094 	ldr	r0, [pc, #148]	; 9be0 <va_printk+0x618>
    9b48:	ebfffd72 	bl	9118 <printk>
    9b4c:	eb000028 	bl	9bf4 <clean_reboot>
    9b50:	e28dc099 	add	ip, sp, #153, 0	; 0x99
    9b54:	e1a0000c 	mov	r0, ip
    9b58:	e3a02001 	mov	r2, #1, 0
    9b5c:	eaffff58 	b	98c4 <va_printk+0x2fc>
    9b60:	e1a0400b 	mov	r4, fp
    9b64:	eafffee0 	b	96ec <va_printk+0x124>
    9b68:	e3a03098 	mov	r3, #152, 0	; 0x98
    9b6c:	e59f2070 	ldr	r2, [pc, #112]	; 9be4 <va_printk+0x61c>
    9b70:	e59f1060 	ldr	r1, [pc, #96]	; 9bd8 <va_printk+0x610>
    9b74:	e58d2000 	str	r2, [sp]
    9b78:	e59f0068 	ldr	r0, [pc, #104]	; 9be8 <va_printk+0x620>
    9b7c:	e59f2050 	ldr	r2, [pc, #80]	; 9bd4 <va_printk+0x60c>
    9b80:	ebfffd64 	bl	9118 <printk>
    9b84:	eb00001a 	bl	9bf4 <clean_reboot>
    9b88:	e3a030b6 	mov	r3, #182, 0	; 0xb6
    9b8c:	e59f2040 	ldr	r2, [pc, #64]	; 9bd4 <va_printk+0x60c>
    9b90:	e59f1040 	ldr	r1, [pc, #64]	; 9bd8 <va_printk+0x610>
    9b94:	e59f0050 	ldr	r0, [pc, #80]	; 9bec <va_printk+0x624>
    9b98:	e58d6000 	str	r6, [sp]
    9b9c:	ebfffd5d 	bl	9118 <printk>
    9ba0:	eb000013 	bl	9bf4 <clean_reboot>
    9ba4:	e3a0309f 	mov	r3, #159, 0	; 0x9f
    9ba8:	e59f2040 	ldr	r2, [pc, #64]	; 9bf0 <va_printk+0x628>
    9bac:	eaffffef 	b	9b70 <va_printk+0x5a8>
    9bb0:	0000ad28 	andeq	sl, r0, r8, lsr #26
    9bb4:	0000ad4c 	andeq	sl, r0, ip, asr #26
    9bb8:	0000ad60 	andeq	sl, r0, r0, ror #26
    9bbc:	0000ad50 	andeq	sl, r0, r0, asr sp
    9bc0:	0000ad58 	andeq	sl, r0, r8, asr sp
    9bc4:	20202020 	eorcs	r2, r0, r0, lsr #32
    9bc8:	0000ab68 	andeq	sl, r0, r8, ror #22
    9bcc:	0000adf0 	strdeq	sl, [r0], -r0
    9bd0:	0000b088 	andeq	fp, r0, r8, lsl #1
    9bd4:	0000ae58 	andeq	sl, r0, r8, asr lr
    9bd8:	0000ad00 	andeq	sl, r0, r0, lsl #26
    9bdc:	0000ae20 	andeq	sl, r0, r0, lsr #28
    9be0:	0000adc8 	andeq	sl, r0, r8, asr #27
    9be4:	0000ad40 	andeq	sl, r0, r0, asr #26
    9be8:	0000a8c8 	andeq	sl, r0, r8, asr #17
    9bec:	0000ada0 	andeq	sl, r0, r0, lsr #27
    9bf0:	0000ad64 	andeq	sl, r0, r4, ror #26

00009bf4 <clean_reboot>:
    9bf4:	e59f301c 	ldr	r3, [pc, #28]	; 9c18 <clean_reboot+0x24>
    9bf8:	e92d4010 	push	{r4, lr}
    9bfc:	e5933000 	ldr	r3, [r3]
    9c00:	e59f0014 	ldr	r0, [pc, #20]	; 9c1c <clean_reboot+0x28>
    9c04:	e12fff33 	blx	r3
    9c08:	eb000127 	bl	a0ac <uart_flush_tx>
    9c0c:	e3a0000a 	mov	r0, #10, 0
    9c10:	eb00008e 	bl	9e50 <delay_ms>
    9c14:	eb000057 	bl	9d78 <rpi_reboot>
    9c18:	0000b088 	andeq	fp, r0, r8, lsl #1
    9c1c:	0000ae64 	andeq	sl, r0, r4, ror #28

00009c20 <_cstart>:
    9c20:	e92d4070 	push	{r4, r5, r6, lr}
    9c24:	eb000047 	bl	9d48 <custom_loader>
    9c28:	e59f2108 	ldr	r2, [pc, #264]	; 9d38 <_cstart+0x118>
    9c2c:	e59fc108 	ldr	ip, [pc, #264]	; 9d3c <_cstart+0x11c>
    9c30:	e152000c 	cmp	r2, ip
    9c34:	2a00002e 	bcs	9cf4 <_cstart+0xd4>
    9c38:	e24c1001 	sub	r1, ip, #1, 0
    9c3c:	e0411002 	sub	r1, r1, r2
    9c40:	e3510017 	cmp	r1, #23, 0
    9c44:	e1a03122 	lsr	r3, r2, #2
    9c48:	e1a01121 	lsr	r1, r1, #2
    9c4c:	e2811001 	add	r1, r1, #1, 0
    9c50:	e2033001 	and	r3, r3, #1, 0
    9c54:	9a000035 	bls	9d30 <_cstart+0x110>
    9c58:	e3530000 	cmp	r3, #0, 0
    9c5c:	11a00002 	movne	r0, r2
    9c60:	13a0e000 	movne	lr, #0, 0
    9c64:	e3a04000 	mov	r4, #0, 0
    9c68:	e3a05000 	mov	r5, #0, 0
    9c6c:	e0411003 	sub	r1, r1, r3
    9c70:	01a00002 	moveq	r0, r2
    9c74:	e0823103 	add	r3, r2, r3, lsl #2
    9c78:	e1a020a1 	lsr	r2, r1, #1
    9c7c:	1480e004 	strne	lr, [r0], #4
    9c80:	e0832182 	add	r2, r3, r2, lsl #3
    9c84:	e0c340f8 	strd	r4, [r3], #8
    9c88:	e1520003 	cmp	r2, r3
    9c8c:	1afffffc 	bne	9c84 <_cstart+0x64>
    9c90:	e3c13001 	bic	r3, r1, #1, 0
    9c94:	e1510003 	cmp	r1, r3
    9c98:	e0803103 	add	r3, r0, r3, lsl #2
    9c9c:	0a000014 	beq	9cf4 <_cstart+0xd4>
    9ca0:	e1a01003 	mov	r1, r3
    9ca4:	e3a02000 	mov	r2, #0, 0
    9ca8:	e4812004 	str	r2, [r1], #4
    9cac:	e151000c 	cmp	r1, ip
    9cb0:	2a00000f 	bcs	9cf4 <_cstart+0xd4>
    9cb4:	e2831008 	add	r1, r3, #8, 0
    9cb8:	e151000c 	cmp	r1, ip
    9cbc:	e5832004 	str	r2, [r3, #4]
    9cc0:	2a00000b 	bcs	9cf4 <_cstart+0xd4>
    9cc4:	e283100c 	add	r1, r3, #12, 0
    9cc8:	e151000c 	cmp	r1, ip
    9ccc:	e5832008 	str	r2, [r3, #8]
    9cd0:	2a000007 	bcs	9cf4 <_cstart+0xd4>
    9cd4:	e2831010 	add	r1, r3, #16, 0
    9cd8:	e151000c 	cmp	r1, ip
    9cdc:	e583200c 	str	r2, [r3, #12]
    9ce0:	2a000003 	bcs	9cf4 <_cstart+0xd4>
    9ce4:	e2831014 	add	r1, r3, #20, 0
    9ce8:	e151000c 	cmp	r1, ip
    9cec:	e5832010 	str	r2, [r3, #16]
    9cf0:	35832014 	strcc	r2, [r3, #20]
    9cf4:	eb00008e 	bl	9f34 <uart_init>
    9cf8:	e3a03001 	mov	r3, #1, 0
    9cfc:	ee0f3f1c 	mcr	15, 0, r3, cr15, cr12, {0}
    9d00:	ee1f3f3c 	mrc	15, 0, r3, cr15, cr12, {1}
    9d04:	e59f4034 	ldr	r4, [pc, #52]	; 9d40 <_cstart+0x120>
    9d08:	e5843000 	str	r3, [r4]
    9d0c:	ebfff8cc 	bl	8044 <notmain>
    9d10:	ee1f3f3c 	mrc	15, 0, r3, cr15, cr12, {1}
    9d14:	e5941000 	ldr	r1, [r4]
    9d18:	e59f0024 	ldr	r0, [pc, #36]	; 9d44 <_cstart+0x124>
    9d1c:	e3510000 	cmp	r1, #0, 0
    9d20:	10431001 	subne	r1, r3, r1
    9d24:	e5843000 	str	r3, [r4]
    9d28:	ebfffcfa 	bl	9118 <printk>
    9d2c:	ebffffb0 	bl	9bf4 <clean_reboot>
    9d30:	e1a03002 	mov	r3, r2
    9d34:	eaffffd9 	b	9ca0 <_cstart+0x80>
    9d38:	0000b0a0 	andeq	fp, r0, r0, lsr #1
    9d3c:	0000b4d0 	ldrdeq	fp, [r0], -r0
    9d40:	0000b4c4 	andeq	fp, r0, r4, asr #9
    9d44:	0000ae70 	andeq	sl, r0, r0, ror lr

00009d48 <custom_loader>:
    9d48:	e12fff1e 	bx	lr

00009d4c <at_user_level>:
    9d4c:	e10f0000 	mrs	r0, CPSR
    9d50:	e200001f 	and	r0, r0, #31, 0
    9d54:	e2400010 	sub	r0, r0, #16, 0
    9d58:	e16f0f10 	clz	r0, r0
    9d5c:	e1a002a0 	lsr	r0, r0, #5
    9d60:	e12fff1e 	bx	lr

00009d64 <set_user_level>:
    9d64:	e10f3000 	mrs	r3, CPSR
    9d68:	e3c3301f 	bic	r3, r3, #31, 0
    9d6c:	e3833010 	orr	r3, r3, #16, 0
    9d70:	e129f003 	msr	CPSR_fc, r3
    9d74:	e12fff1e 	bx	lr

00009d78 <rpi_reboot>:
    9d78:	e92d4010 	push	{r4, lr}
    9d7c:	e10f3000 	mrs	r3, CPSR
    9d80:	e203301f 	and	r3, r3, #31, 0
    9d84:	e3530010 	cmp	r3, #16, 0
    9d88:	1a000003 	bne	9d9c <rpi_reboot+0x24>
    9d8c:	e10f3000 	mrs	r3, CPSR
    9d90:	e3c3301f 	bic	r3, r3, #31, 0
    9d94:	e3833010 	orr	r3, r3, #16, 0
    9d98:	e129f003 	msr	CPSR_fc, r3
    9d9c:	eb00025f 	bl	a720 <reboot_callout>
    9da0:	eb0000c1 	bl	a0ac <uart_flush_tx>
    9da4:	e3a0000a 	mov	r0, #10, 0
    9da8:	eb000028 	bl	9e50 <delay_ms>
    9dac:	e59f1014 	ldr	r1, [pc, #20]	; 9dc8 <rpi_reboot+0x50>
    9db0:	e59f0014 	ldr	r0, [pc, #20]	; 9dcc <rpi_reboot+0x54>
    9db4:	ebfff89a 	bl	8024 <PUT32>
    9db8:	e59f1010 	ldr	r1, [pc, #16]	; 9dd0 <rpi_reboot+0x58>
    9dbc:	e59f0010 	ldr	r0, [pc, #16]	; 9dd4 <rpi_reboot+0x5c>
    9dc0:	ebfff897 	bl	8024 <PUT32>
    9dc4:	eafffffe 	b	9dc4 <rpi_reboot+0x4c>
    9dc8:	5a000001 	bpl	9dd4 <rpi_reboot+0x5c>
    9dcc:	20100024 	andscs	r0, r0, r4, lsr #32
    9dd0:	5a000020 	bpl	9e58 <delay_ms+0x8>
    9dd4:	2010001c 	andscs	r0, r0, ip, lsl r0

00009dd8 <timer_get_usec_raw>:
    9dd8:	e59f0000 	ldr	r0, [pc]	; 9de0 <timer_get_usec_raw+0x8>
    9ddc:	eafff892 	b	802c <GET32>
    9de0:	20003004 	andcs	r3, r0, r4

00009de4 <timer_get_usec>:
    9de4:	e92d4010 	push	{r4, lr}
    9de8:	eb00024d 	bl	a724 <dev_barrier>
    9dec:	e59f0010 	ldr	r0, [pc, #16]	; 9e04 <timer_get_usec+0x20>
    9df0:	ebfff88d 	bl	802c <GET32>
    9df4:	e1a04000 	mov	r4, r0
    9df8:	eb000249 	bl	a724 <dev_barrier>
    9dfc:	e1a00004 	mov	r0, r4
    9e00:	e8bd8010 	pop	{r4, pc}
    9e04:	20003004 	andcs	r3, r0, r4

00009e08 <delay_us>:
    9e08:	e92d41f0 	push	{r4, r5, r6, r7, r8, lr}
    9e0c:	e1a06000 	mov	r6, r0
    9e10:	eb000243 	bl	a724 <dev_barrier>
    9e14:	e59f0030 	ldr	r0, [pc, #48]	; 9e4c <delay_us+0x44>
    9e18:	ebfff883 	bl	802c <GET32>
    9e1c:	e1a05000 	mov	r5, r0
    9e20:	eb00023f 	bl	a724 <dev_barrier>
    9e24:	e59f7020 	ldr	r7, [pc, #32]	; 9e4c <delay_us+0x44>
    9e28:	eb00023d 	bl	a724 <dev_barrier>
    9e2c:	e1a00007 	mov	r0, r7
    9e30:	ebfff87d 	bl	802c <GET32>
    9e34:	e1a04000 	mov	r4, r0
    9e38:	e0444005 	sub	r4, r4, r5
    9e3c:	eb000238 	bl	a724 <dev_barrier>
    9e40:	e1540006 	cmp	r4, r6
    9e44:	3afffff7 	bcc	9e28 <delay_us+0x20>
    9e48:	e8bd81f0 	pop	{r4, r5, r6, r7, r8, pc}
    9e4c:	20003004 	andcs	r3, r0, r4

00009e50 <delay_ms>:
    9e50:	e92d41f0 	push	{r4, r5, r6, r7, r8, lr}
    9e54:	e0604280 	rsb	r4, r0, r0, lsl #5
    9e58:	e0800104 	add	r0, r0, r4, lsl #2
    9e5c:	e1a04180 	lsl	r4, r0, #3
    9e60:	eb00022f 	bl	a724 <dev_barrier>
    9e64:	e59f0030 	ldr	r0, [pc, #48]	; 9e9c <delay_ms+0x4c>
    9e68:	ebfff86f 	bl	802c <GET32>
    9e6c:	e1a06000 	mov	r6, r0
    9e70:	eb00022b 	bl	a724 <dev_barrier>
    9e74:	e59f7020 	ldr	r7, [pc, #32]	; 9e9c <delay_ms+0x4c>
    9e78:	eb000229 	bl	a724 <dev_barrier>
    9e7c:	e1a00007 	mov	r0, r7
    9e80:	ebfff869 	bl	802c <GET32>
    9e84:	e1a05000 	mov	r5, r0
    9e88:	e0455006 	sub	r5, r5, r6
    9e8c:	eb000224 	bl	a724 <dev_barrier>
    9e90:	e1540005 	cmp	r4, r5
    9e94:	8afffff7 	bhi	9e78 <delay_ms+0x28>
    9e98:	e8bd81f0 	pop	{r4, r5, r6, r7, r8, pc}
    9e9c:	20003004 	andcs	r3, r0, r4

00009ea0 <delay_sec>:
    9ea0:	e92d41f0 	push	{r4, r5, r6, r7, r8, lr}
    9ea4:	e0604280 	rsb	r4, r0, r0, lsl #5
    9ea8:	e0644304 	rsb	r4, r4, r4, lsl #6
    9eac:	e0800184 	add	r0, r0, r4, lsl #3
    9eb0:	e1a04300 	lsl	r4, r0, #6
    9eb4:	eb00021a 	bl	a724 <dev_barrier>
    9eb8:	e59f0030 	ldr	r0, [pc, #48]	; 9ef0 <delay_sec+0x50>
    9ebc:	ebfff85a 	bl	802c <GET32>
    9ec0:	e1a06000 	mov	r6, r0
    9ec4:	eb000216 	bl	a724 <dev_barrier>
    9ec8:	e59f7020 	ldr	r7, [pc, #32]	; 9ef0 <delay_sec+0x50>
    9ecc:	eb000214 	bl	a724 <dev_barrier>
    9ed0:	e1a00007 	mov	r0, r7
    9ed4:	ebfff854 	bl	802c <GET32>
    9ed8:	e1a05000 	mov	r5, r0
    9edc:	e0455006 	sub	r5, r5, r6
    9ee0:	eb00020f 	bl	a724 <dev_barrier>
    9ee4:	e1540005 	cmp	r4, r5
    9ee8:	8afffff7 	bhi	9ecc <delay_sec+0x2c>
    9eec:	e8bd81f0 	pop	{r4, r5, r6, r7, r8, pc}
    9ef0:	20003004 	andcs	r3, r0, r4

00009ef4 <and_in32>:
    9ef4:	e92d4070 	push	{r4, r5, r6, lr}
    9ef8:	e1a04000 	mov	r4, r0
    9efc:	e1a05001 	mov	r5, r1
    9f00:	ebfff849 	bl	802c <GET32>
    9f04:	e0001005 	and	r1, r0, r5
    9f08:	e1a00004 	mov	r0, r4
    9f0c:	ebfff844 	bl	8024 <PUT32>
    9f10:	e8bd8070 	pop	{r4, r5, r6, pc}

00009f14 <or_in32>:
    9f14:	e92d4070 	push	{r4, r5, r6, lr}
    9f18:	e1a04000 	mov	r4, r0
    9f1c:	e1a05001 	mov	r5, r1
    9f20:	ebfff841 	bl	802c <GET32>
    9f24:	e1801005 	orr	r1, r0, r5
    9f28:	e1a00004 	mov	r0, r4
    9f2c:	ebfff83c 	bl	8024 <PUT32>
    9f30:	e8bd8070 	pop	{r4, r5, r6, pc}

00009f34 <uart_init>:
    9f34:	e92d4010 	push	{r4, lr}
    9f38:	e3a01002 	mov	r1, #2, 0
    9f3c:	e3a0000e 	mov	r0, #14, 0
    9f40:	eb000153 	bl	a494 <gpio_set_function>
    9f44:	e3a01002 	mov	r1, #2, 0
    9f48:	e3a0000f 	mov	r0, #15, 0
    9f4c:	eb000150 	bl	a494 <gpio_set_function>
    9f50:	eb0001f3 	bl	a724 <dev_barrier>
    9f54:	e3a01001 	mov	r1, #1, 0
    9f58:	e59f0064 	ldr	r0, [pc, #100]	; 9fc4 <uart_init+0x90>
    9f5c:	ebffffec 	bl	9f14 <or_in32>
    9f60:	eb0001ef 	bl	a724 <dev_barrier>
    9f64:	e59f405c 	ldr	r4, [pc, #92]	; 9fc8 <uart_init+0x94>
    9f68:	e3a01000 	mov	r1, #0, 0
    9f6c:	e1a00004 	mov	r0, r4
    9f70:	ebfff82b 	bl	8024 <PUT32>
    9f74:	e3a01000 	mov	r1, #0, 0
    9f78:	e59f004c 	ldr	r0, [pc, #76]	; 9fcc <uart_init+0x98>
    9f7c:	ebfff828 	bl	8024 <PUT32>
    9f80:	e3a01003 	mov	r1, #3, 0
    9f84:	e59f0044 	ldr	r0, [pc, #68]	; 9fd0 <uart_init+0x9c>
    9f88:	ebfff825 	bl	8024 <PUT32>
    9f8c:	e3a01000 	mov	r1, #0, 0
    9f90:	e59f003c 	ldr	r0, [pc, #60]	; 9fd4 <uart_init+0xa0>
    9f94:	ebfff822 	bl	8024 <PUT32>
    9f98:	e3a010c7 	mov	r1, #199, 0	; 0xc7
    9f9c:	e59f0034 	ldr	r0, [pc, #52]	; 9fd8 <uart_init+0xa4>
    9fa0:	ebfff81f 	bl	8024 <PUT32>
    9fa4:	e59f1030 	ldr	r1, [pc, #48]	; 9fdc <uart_init+0xa8>
    9fa8:	e59f0030 	ldr	r0, [pc, #48]	; 9fe0 <uart_init+0xac>
    9fac:	ebfff81c 	bl	8024 <PUT32>
    9fb0:	e3a01003 	mov	r1, #3, 0
    9fb4:	e1a00004 	mov	r0, r4
    9fb8:	ebfff819 	bl	8024 <PUT32>
    9fbc:	eb0001d8 	bl	a724 <dev_barrier>
    9fc0:	e8bd8010 	pop	{r4, pc}
    9fc4:	20215004 	eorcs	r5, r1, r4
    9fc8:	20215060 	eorcs	r5, r1, r0, rrx
    9fcc:	20215044 	eorcs	r5, r1, r4, asr #32
    9fd0:	2021504c 	eorcs	r5, r1, ip, asr #32
    9fd4:	20215050 	eorcs	r5, r1, r0, asr r0
    9fd8:	20215048 	eorcs	r5, r1, r8, asr #32
    9fdc:	0000010e 	andeq	r0, r0, lr, lsl #2
    9fe0:	20215068 	eorcs	r5, r1, r8, rrx

00009fe4 <uart_can_getc>:
    9fe4:	e92d4010 	push	{r4, lr}
    9fe8:	e59f0008 	ldr	r0, [pc, #8]	; 9ff8 <uart_can_getc+0x14>
    9fec:	ebfff80e 	bl	802c <GET32>
    9ff0:	e2000001 	and	r0, r0, #1, 0
    9ff4:	e8bd8010 	pop	{r4, pc}
    9ff8:	20215064 	eorcs	r5, r1, r4, rrx

00009ffc <uart_can_putc>:
    9ffc:	e92d4010 	push	{r4, lr}
    a000:	e59f0010 	ldr	r0, [pc, #16]	; a018 <uart_can_putc+0x1c>
    a004:	ebfff808 	bl	802c <GET32>
    a008:	e3100002 	tst	r0, #2, 0
    a00c:	13a00001 	movne	r0, #1, 0
    a010:	03a00000 	moveq	r0, #0, 0
    a014:	e8bd8010 	pop	{r4, pc}
    a018:	20215064 	eorcs	r5, r1, r4, rrx

0000a01c <uart_getc>:
    a01c:	e92d4010 	push	{r4, lr}
    a020:	eb0001bf 	bl	a724 <dev_barrier>
    a024:	ebffffee 	bl	9fe4 <uart_can_getc>
    a028:	e3500000 	cmp	r0, #0, 0
    a02c:	0afffffc 	beq	a024 <uart_getc+0x8>
    a030:	e59f0010 	ldr	r0, [pc, #16]	; a048 <uart_getc+0x2c>
    a034:	ebfff7fc 	bl	802c <GET32>
    a038:	e6ef4070 	uxtb	r4, r0
    a03c:	eb0001b8 	bl	a724 <dev_barrier>
    a040:	e1a00004 	mov	r0, r4
    a044:	e8bd8010 	pop	{r4, pc}
    a048:	20215040 	eorcs	r5, r1, r0, asr #32

0000a04c <uart_putc>:
    a04c:	e92d4010 	push	{r4, lr}
    a050:	e1a04000 	mov	r4, r0
    a054:	eb0001b2 	bl	a724 <dev_barrier>
    a058:	ebffffe7 	bl	9ffc <uart_can_putc>
    a05c:	e3500000 	cmp	r0, #0, 0
    a060:	0afffffc 	beq	a058 <uart_putc+0xc>
    a064:	e6ef1074 	uxtb	r1, r4
    a068:	e59f0008 	ldr	r0, [pc, #8]	; a078 <uart_putc+0x2c>
    a06c:	ebfff7ec 	bl	8024 <PUT32>
    a070:	eb0001ab 	bl	a724 <dev_barrier>
    a074:	e8bd8010 	pop	{r4, pc}
    a078:	20215040 	eorcs	r5, r1, r0, asr #32

0000a07c <uart_has_data>:
    a07c:	e92d4010 	push	{r4, lr}
    a080:	eb0001a7 	bl	a724 <dev_barrier>
    a084:	ebffffd6 	bl	9fe4 <uart_can_getc>
    a088:	e8bd8010 	pop	{r4, pc}

0000a08c <uart_tx_is_empty>:
    a08c:	e92d4010 	push	{r4, lr}
    a090:	eb0001a3 	bl	a724 <dev_barrier>
    a094:	e59f000c 	ldr	r0, [pc, #12]	; a0a8 <uart_tx_is_empty+0x1c>
    a098:	ebfff7e3 	bl	802c <GET32>
    a09c:	e1a004a0 	lsr	r0, r0, #9
    a0a0:	e2000001 	and	r0, r0, #1, 0
    a0a4:	e8bd8010 	pop	{r4, pc}
    a0a8:	20215064 	eorcs	r5, r1, r4, rrx

0000a0ac <uart_flush_tx>:
    a0ac:	e92d4010 	push	{r4, lr}
    a0b0:	ebfffff5 	bl	a08c <uart_tx_is_empty>
    a0b4:	e3500000 	cmp	r0, #0, 0
    a0b8:	0afffffc 	beq	a0b0 <uart_flush_tx+0x4>
    a0bc:	e8bd8010 	pop	{r4, pc}

0000a0c0 <uart_disable>:
    a0c0:	e92d4010 	push	{r4, lr}
    a0c4:	ebfffff8 	bl	a0ac <uart_flush_tx>
    a0c8:	eb000195 	bl	a724 <dev_barrier>
    a0cc:	e3e01001 	mvn	r1, #1, 0
    a0d0:	e59f0008 	ldr	r0, [pc, #8]	; a0e0 <uart_disable+0x20>
    a0d4:	ebffff86 	bl	9ef4 <and_in32>
    a0d8:	eb000191 	bl	a724 <dev_barrier>
    a0dc:	e8bd8010 	pop	{r4, pc}
    a0e0:	20215004 	eorcs	r5, r1, r4

0000a0e4 <kmalloc_heap_end>:
    a0e4:	e59f3004 	ldr	r3, [pc, #4]	; a0f0 <kmalloc_heap_end+0xc>
    a0e8:	e5930000 	ldr	r0, [r3]
    a0ec:	e12fff1e 	bx	lr
    a0f0:	0000b090 	muleq	r0, r0, r0

0000a0f4 <kmalloc_heap_start>:
    a0f4:	e59f3004 	ldr	r3, [pc, #4]	; a100 <kmalloc_heap_start+0xc>
    a0f8:	e5930004 	ldr	r0, [r3, #4]
    a0fc:	e12fff1e 	bx	lr
    a100:	0000b090 	muleq	r0, r0, r0

0000a104 <kmalloc_heap_ptr>:
    a104:	e59f3004 	ldr	r3, [pc, #4]	; a110 <kmalloc_heap_ptr+0xc>
    a108:	e5930000 	ldr	r0, [r3]
    a10c:	e12fff1e 	bx	lr
    a110:	0000b090 	muleq	r0, r0, r0

0000a114 <kmalloc_init_set_start>:
    a114:	e52de004 	push	{lr}		; (str lr, [sp, #-4]!)
    a118:	e24dd00c 	sub	sp, sp, #12, 0
    a11c:	e3510000 	cmp	r1, #0, 0
    a120:	0a00000a 	beq	a150 <kmalloc_init_set_start+0x3c>
    a124:	e59f306c 	ldr	r3, [pc, #108]	; a198 <kmalloc_init_set_start+0x84>
    a128:	e5933000 	ldr	r3, [r3]
    a12c:	e1530000 	cmp	r3, r0
    a130:	8a00000e 	bhi	a170 <kmalloc_init_set_start+0x5c>
    a134:	e59f305c 	ldr	r3, [pc, #92]	; a198 <kmalloc_init_set_start+0x84>
    a138:	e5830000 	str	r0, [r3]
    a13c:	e5830004 	str	r0, [r3, #4]
    a140:	e0800001 	add	r0, r0, r1
    a144:	e5830008 	str	r0, [r3, #8]
    a148:	e28dd00c 	add	sp, sp, #12, 0
    a14c:	e49df004 	pop	{pc}		; (ldr pc, [sp], #4)
    a150:	e59f3044 	ldr	r3, [pc, #68]	; a19c <kmalloc_init_set_start+0x88>
    a154:	e58d3000 	str	r3, [sp]
    a158:	e3a03030 	mov	r3, #48, 0	; 0x30
    a15c:	e59f203c 	ldr	r2, [pc, #60]	; a1a0 <kmalloc_init_set_start+0x8c>
    a160:	e59f103c 	ldr	r1, [pc, #60]	; a1a4 <kmalloc_init_set_start+0x90>
    a164:	e59f003c 	ldr	r0, [pc, #60]	; a1a8 <kmalloc_init_set_start+0x94>
    a168:	ebfffbea 	bl	9118 <printk>
    a16c:	ebfffea0 	bl	9bf4 <clean_reboot>
    a170:	e59f3020 	ldr	r3, [pc, #32]	; a198 <kmalloc_init_set_start+0x84>
    a174:	e5933008 	ldr	r3, [r3, #8]
    a178:	e58d3004 	str	r3, [sp, #4]
    a17c:	e58d0000 	str	r0, [sp]
    a180:	e3a03034 	mov	r3, #52, 0	; 0x34
    a184:	e59f2014 	ldr	r2, [pc, #20]	; a1a0 <kmalloc_init_set_start+0x8c>
    a188:	e59f1014 	ldr	r1, [pc, #20]	; a1a4 <kmalloc_init_set_start+0x90>
    a18c:	e59f0018 	ldr	r0, [pc, #24]	; a1ac <kmalloc_init_set_start+0x98>
    a190:	ebfffbe0 	bl	9118 <printk>
    a194:	ebfffe96 	bl	9bf4 <clean_reboot>
    a198:	0000b090 	muleq	r0, r0, r0
    a19c:	0000ae98 	muleq	r0, r8, lr
    a1a0:	0000b024 	andeq	fp, r0, r4, lsr #32
    a1a4:	0000ae8c 	andeq	sl, r0, ip, lsl #29
    a1a8:	0000a8c8 	andeq	sl, r0, r8, asr #17
    a1ac:	0000aea4 	andeq	sl, r0, r4, lsr #29

0000a1b0 <kmalloc_init>:
    a1b0:	e92d4010 	push	{r4, lr}
    a1b4:	e59f303c 	ldr	r3, [pc, #60]	; a1f8 <kmalloc_init+0x48>
    a1b8:	e5933000 	ldr	r3, [r3]
    a1bc:	e3530000 	cmp	r3, #0, 0
    a1c0:	1a000006 	bne	a1e0 <kmalloc_init+0x30>
    a1c4:	e59f302c 	ldr	r3, [pc, #44]	; a1f8 <kmalloc_init+0x48>
    a1c8:	e3a02001 	mov	r2, #1, 0
    a1cc:	e5832000 	str	r2, [r3]
    a1d0:	e3a01201 	mov	r1, #268435456	; 0x10000000
    a1d4:	e3a00601 	mov	r0, #1048576	; 0x100000
    a1d8:	ebffffcd 	bl	a114 <kmalloc_init_set_start>
    a1dc:	e8bd8010 	pop	{r4, pc}
    a1e0:	e3a03040 	mov	r3, #64, 0	; 0x40
    a1e4:	e59f2010 	ldr	r2, [pc, #16]	; a1fc <kmalloc_init+0x4c>
    a1e8:	e59f1010 	ldr	r1, [pc, #16]	; a200 <kmalloc_init+0x50>
    a1ec:	e59f0010 	ldr	r0, [pc, #16]	; a204 <kmalloc_init+0x54>
    a1f0:	ebfffbc8 	bl	9118 <printk>
    a1f4:	ebfffe7e 	bl	9bf4 <clean_reboot>
    a1f8:	0000b4c8 	andeq	fp, r0, r8, asr #9
    a1fc:	0000b03c 	andeq	fp, r0, ip, lsr r0
    a200:	0000ae8c 	andeq	sl, r0, ip, lsl #29
    a204:	0000aee8 	andeq	sl, r0, r8, ror #29

0000a208 <kmalloc_notzero>:
    a208:	e52de004 	push	{lr}		; (str lr, [sp, #-4]!)
    a20c:	e24dd00c 	sub	sp, sp, #12, 0
    a210:	e3500000 	cmp	r0, #0, 0
    a214:	0a00000a 	beq	a244 <kmalloc_notzero+0x3c>
    a218:	e2800007 	add	r0, r0, #7, 0
    a21c:	e3c03007 	bic	r3, r0, #7, 0
    a220:	e59f2060 	ldr	r2, [pc, #96]	; a288 <kmalloc_notzero+0x80>
    a224:	e5920000 	ldr	r0, [r2]
    a228:	e0801003 	add	r1, r0, r3
    a22c:	e5821000 	str	r1, [r2]
    a230:	e5922008 	ldr	r2, [r2, #8]
    a234:	e1510002 	cmp	r1, r2
    a238:	8a000009 	bhi	a264 <kmalloc_notzero+0x5c>
    a23c:	e28dd00c 	add	sp, sp, #12, 0
    a240:	e49df004 	pop	{pc}		; (ldr pc, [sp], #4)
    a244:	e59f3040 	ldr	r3, [pc, #64]	; a28c <kmalloc_notzero+0x84>
    a248:	e58d3000 	str	r3, [sp]
    a24c:	e3a03048 	mov	r3, #72, 0	; 0x48
    a250:	e59f2038 	ldr	r2, [pc, #56]	; a290 <kmalloc_notzero+0x88>
    a254:	e59f1038 	ldr	r1, [pc, #56]	; a294 <kmalloc_notzero+0x8c>
    a258:	e59f0038 	ldr	r0, [pc, #56]	; a298 <kmalloc_notzero+0x90>
    a25c:	ebfffbad 	bl	9118 <printk>
    a260:	ebfffe63 	bl	9bf4 <clean_reboot>
    a264:	e0422000 	sub	r2, r2, r0
    a268:	e58d2004 	str	r2, [sp, #4]
    a26c:	e58d3000 	str	r3, [sp]
    a270:	e3a0304e 	mov	r3, #78, 0	; 0x4e
    a274:	e59f2014 	ldr	r2, [pc, #20]	; a290 <kmalloc_notzero+0x88>
    a278:	e59f1014 	ldr	r1, [pc, #20]	; a294 <kmalloc_notzero+0x8c>
    a27c:	e59f0018 	ldr	r0, [pc, #24]	; a29c <kmalloc_notzero+0x94>
    a280:	ebfffba4 	bl	9118 <printk>
    a284:	ebfffe5a 	bl	9bf4 <clean_reboot>
    a288:	0000b090 	muleq	r0, r0, r0
    a28c:	0000ae9c 	muleq	r0, ip, lr
    a290:	0000b04c 	andeq	fp, r0, ip, asr #32
    a294:	0000ae8c 	andeq	sl, r0, ip, lsl #29
    a298:	0000a8c8 	andeq	sl, r0, r8, asr #17
    a29c:	0000af18 	andeq	sl, r0, r8, lsl pc

0000a2a0 <kmalloc>:
    a2a0:	e92d4030 	push	{r4, r5, lr}
    a2a4:	e24dd00c 	sub	sp, sp, #12, 0
    a2a8:	e2504000 	subs	r4, r0, #0, 0
    a2ac:	0a000008 	beq	a2d4 <kmalloc+0x34>
    a2b0:	e1a00004 	mov	r0, r4
    a2b4:	ebffffd3 	bl	a208 <kmalloc_notzero>
    a2b8:	e1a05000 	mov	r5, r0
    a2bc:	e1a02004 	mov	r2, r4
    a2c0:	e3a01000 	mov	r1, #0, 0
    a2c4:	ebfffb75 	bl	90a0 <memset>
    a2c8:	e1a00005 	mov	r0, r5
    a2cc:	e28dd00c 	add	sp, sp, #12, 0
    a2d0:	e8bd8030 	pop	{r4, r5, pc}
    a2d4:	e59f3018 	ldr	r3, [pc, #24]	; a2f4 <kmalloc+0x54>
    a2d8:	e58d3000 	str	r3, [sp]
    a2dc:	e3a03054 	mov	r3, #84, 0	; 0x54
    a2e0:	e59f2010 	ldr	r2, [pc, #16]	; a2f8 <kmalloc+0x58>
    a2e4:	e59f1010 	ldr	r1, [pc, #16]	; a2fc <kmalloc+0x5c>
    a2e8:	e59f0010 	ldr	r0, [pc, #16]	; a300 <kmalloc+0x60>
    a2ec:	ebfffb89 	bl	9118 <printk>
    a2f0:	ebfffe3f 	bl	9bf4 <clean_reboot>
    a2f4:	0000ae9c 	muleq	r0, ip, lr
    a2f8:	0000b05c 	andeq	fp, r0, ip, asr r0
    a2fc:	0000ae8c 	andeq	sl, r0, ip, lsl #29
    a300:	0000a8c8 	andeq	sl, r0, r8, asr #17

0000a304 <kmalloc_aligned>:
    a304:	e52de004 	push	{lr}		; (str lr, [sp, #-4]!)
    a308:	e24dd00c 	sub	sp, sp, #12, 0
    a30c:	e3500000 	cmp	r0, #0, 0
    a310:	0a000014 	beq	a368 <kmalloc_aligned+0x64>
    a314:	e2613000 	rsb	r3, r1, #0, 0
    a318:	e1d13003 	bics	r3, r1, r3
    a31c:	1a000019 	bne	a388 <kmalloc_aligned+0x84>
    a320:	e3510008 	cmp	r1, #8, 0
    a324:	33a01008 	movcc	r1, #8, 0
    a328:	e59f30c0 	ldr	r3, [pc, #192]	; a3f0 <kmalloc_aligned+0xec>
    a32c:	e5932000 	ldr	r2, [r3]
    a330:	e2613000 	rsb	r3, r1, #0, 0
    a334:	e1d1c003 	bics	ip, r1, r3
    a338:	1a00001b 	bne	a3ac <kmalloc_aligned+0xa8>
    a33c:	e0822001 	add	r2, r2, r1
    a340:	e2422001 	sub	r2, r2, #1, 0
    a344:	e0033002 	and	r3, r3, r2
    a348:	e2411001 	sub	r1, r1, #1, 0
    a34c:	e1110003 	tst	r1, r3
    a350:	1a00001d 	bne	a3cc <kmalloc_aligned+0xc8>
    a354:	e59f2094 	ldr	r2, [pc, #148]	; a3f0 <kmalloc_aligned+0xec>
    a358:	e5823000 	str	r3, [r2]
    a35c:	ebffffcf 	bl	a2a0 <kmalloc>
    a360:	e28dd00c 	add	sp, sp, #12, 0
    a364:	e49df004 	pop	{pc}		; (ldr pc, [sp], #4)
    a368:	e59f3084 	ldr	r3, [pc, #132]	; a3f4 <kmalloc_aligned+0xf0>
    a36c:	e58d3000 	str	r3, [sp]
    a370:	e3a0305f 	mov	r3, #95, 0	; 0x5f
    a374:	e59f207c 	ldr	r2, [pc, #124]	; a3f8 <kmalloc_aligned+0xf4>
    a378:	e59f107c 	ldr	r1, [pc, #124]	; a3fc <kmalloc_aligned+0xf8>
    a37c:	e59f007c 	ldr	r0, [pc, #124]	; a400 <kmalloc_aligned+0xfc>
    a380:	ebfffb64 	bl	9118 <printk>
    a384:	ebfffe1a 	bl	9bf4 <clean_reboot>
    a388:	eb0000ac 	bl	a640 <rpi_reset_putc>
    a38c:	e59f3070 	ldr	r3, [pc, #112]	; a404 <kmalloc_aligned+0x100>
    a390:	e58d3000 	str	r3, [sp]
    a394:	e3a03060 	mov	r3, #96, 0	; 0x60
    a398:	e59f2058 	ldr	r2, [pc, #88]	; a3f8 <kmalloc_aligned+0xf4>
    a39c:	e59f1058 	ldr	r1, [pc, #88]	; a3fc <kmalloc_aligned+0xf8>
    a3a0:	e59f0060 	ldr	r0, [pc, #96]	; a408 <kmalloc_aligned+0x104>
    a3a4:	ebfffb5b 	bl	9118 <printk>
    a3a8:	ebfffe11 	bl	9bf4 <clean_reboot>
    a3ac:	e59f3058 	ldr	r3, [pc, #88]	; a40c <kmalloc_aligned+0x108>
    a3b0:	e58d3000 	str	r3, [sp]
    a3b4:	e3a03011 	mov	r3, #17, 0
    a3b8:	e59f2050 	ldr	r2, [pc, #80]	; a410 <kmalloc_aligned+0x10c>
    a3bc:	e59f1038 	ldr	r1, [pc, #56]	; a3fc <kmalloc_aligned+0xf8>
    a3c0:	e59f0038 	ldr	r0, [pc, #56]	; a400 <kmalloc_aligned+0xfc>
    a3c4:	ebfffb53 	bl	9118 <printk>
    a3c8:	ebfffe09 	bl	9bf4 <clean_reboot>
    a3cc:	eb00009b 	bl	a640 <rpi_reset_putc>
    a3d0:	e59f303c 	ldr	r3, [pc, #60]	; a414 <kmalloc_aligned+0x110>
    a3d4:	e58d3000 	str	r3, [sp]
    a3d8:	e3a03068 	mov	r3, #104, 0	; 0x68
    a3dc:	e59f2014 	ldr	r2, [pc, #20]	; a3f8 <kmalloc_aligned+0xf4>
    a3e0:	e59f1014 	ldr	r1, [pc, #20]	; a3fc <kmalloc_aligned+0xf8>
    a3e4:	e59f002c 	ldr	r0, [pc, #44]	; a418 <kmalloc_aligned+0x114>
    a3e8:	ebfffb4a 	bl	9118 <printk>
    a3ec:	ebfffe00 	bl	9bf4 <clean_reboot>
    a3f0:	0000b090 	muleq	r0, r0, r0
    a3f4:	0000ae9c 	muleq	r0, ip, lr
    a3f8:	0000b064 	andeq	fp, r0, r4, rrx
    a3fc:	0000ae8c 	andeq	sl, r0, ip, lsl #29
    a400:	0000a8c8 	andeq	sl, r0, r8, asr #17
    a404:	0000af8c 	andeq	sl, r0, ip, lsl #31
    a408:	0000af58 	andeq	sl, r0, r8, asr pc
    a40c:	0000afa0 	andeq	sl, r0, r0, lsr #31
    a410:	0000b074 	andeq	fp, r0, r4, ror r0
    a414:	0000afd8 	ldrdeq	sl, [r0], -r8
    a418:	0000afac 	andeq	sl, r0, ip, lsr #31

0000a41c <kfree>:
    a41c:	e12fff1e 	bx	lr

0000a420 <kfree_all>:
    a420:	e59f3008 	ldr	r3, [pc, #8]	; a430 <kfree_all+0x10>
    a424:	e5932004 	ldr	r2, [r3, #4]
    a428:	e5832000 	str	r2, [r3]
    a42c:	e12fff1e 	bx	lr
    a430:	0000b090 	muleq	r0, r0, r0

0000a434 <kfree_pop>:
    a434:	e59f3048 	ldr	r3, [pc, #72]	; a484 <kfree_pop+0x50>
    a438:	e5933004 	ldr	r3, [r3, #4]
    a43c:	e1530000 	cmp	r3, r0
    a440:	8a000006 	bhi	a460 <kfree_pop+0x2c>
    a444:	e59f3038 	ldr	r3, [pc, #56]	; a484 <kfree_pop+0x50>
    a448:	e5933008 	ldr	r3, [r3, #8]
    a44c:	e1530000 	cmp	r3, r0
    a450:	3a000002 	bcc	a460 <kfree_pop+0x2c>
    a454:	e59f3028 	ldr	r3, [pc, #40]	; a484 <kfree_pop+0x50>
    a458:	e5830000 	str	r0, [r3]
    a45c:	e12fff1e 	bx	lr
    a460:	e52de004 	push	{lr}		; (str lr, [sp, #-4]!)
    a464:	e24dd00c 	sub	sp, sp, #12, 0
    a468:	e58d0000 	str	r0, [sp]
    a46c:	e3a03077 	mov	r3, #119, 0	; 0x77
    a470:	e59f2010 	ldr	r2, [pc, #16]	; a488 <kfree_pop+0x54>
    a474:	e59f1010 	ldr	r1, [pc, #16]	; a48c <kfree_pop+0x58>
    a478:	e59f0010 	ldr	r0, [pc, #16]	; a490 <kfree_pop+0x5c>
    a47c:	ebfffb25 	bl	9118 <printk>
    a480:	ebfffddb 	bl	9bf4 <clean_reboot>
    a484:	0000b090 	muleq	r0, r0, r0
    a488:	0000b07c 	andeq	fp, r0, ip, ror r0
    a48c:	0000ae8c 	andeq	sl, r0, ip, lsl #29
    a490:	0000aff4 	strdeq	sl, [r0], -r4

0000a494 <gpio_set_function>:
    a494:	e350001f 	cmp	r0, #31, 0
    a498:	812fff1e 	bxhi	lr
    a49c:	e3d13007 	bics	r3, r1, #7, 0
    a4a0:	e92d4070 	push	{r4, r5, r6, lr}
    a4a4:	e1a05001 	mov	r5, r1
    a4a8:	18bd8070 	popne	{r4, r5, r6, pc}
    a4ac:	e59f403c 	ldr	r4, [pc, #60]	; a4f0 <gpio_set_function+0x5c>
    a4b0:	e0843094 	umull	r3, r4, r4, r0
    a4b4:	e1a041a4 	lsr	r4, r4, #3
    a4b8:	e2843302 	add	r3, r4, #134217728	; 0x8000000
    a4bc:	e2833702 	add	r3, r3, #524288	; 0x80000
    a4c0:	e1a06103 	lsl	r6, r3, #2
    a4c4:	e0844104 	add	r4, r4, r4, lsl #2
    a4c8:	e0404084 	sub	r4, r0, r4, lsl #1
    a4cc:	e1a00006 	mov	r0, r6
    a4d0:	ebfff6d5 	bl	802c <GET32>
    a4d4:	e3a01007 	mov	r1, #7, 0
    a4d8:	e0844084 	add	r4, r4, r4, lsl #1
    a4dc:	e1c01411 	bic	r1, r0, r1, lsl r4
    a4e0:	e1811415 	orr	r1, r1, r5, lsl r4
    a4e4:	e1a00006 	mov	r0, r6
    a4e8:	e8bd4070 	pop	{r4, r5, r6, lr}
    a4ec:	eafff6cc 	b	8024 <PUT32>
    a4f0:	cccccccd 	stclgt	12, cr12, [ip], {205}	; 0xcd

0000a4f4 <gpio_set_output>:
    a4f4:	e350001f 	cmp	r0, #31, 0
    a4f8:	812fff1e 	bxhi	lr
    a4fc:	e92d4070 	push	{r4, r5, r6, lr}
    a500:	e59f4040 	ldr	r4, [pc, #64]	; a548 <gpio_set_output+0x54>
    a504:	e0843094 	umull	r3, r4, r4, r0
    a508:	e1a041a4 	lsr	r4, r4, #3
    a50c:	e2843302 	add	r3, r4, #134217728	; 0x8000000
    a510:	e2833702 	add	r3, r3, #524288	; 0x80000
    a514:	e1a05103 	lsl	r5, r3, #2
    a518:	e0844104 	add	r4, r4, r4, lsl #2
    a51c:	e0404084 	sub	r4, r0, r4, lsl #1
    a520:	e1a00005 	mov	r0, r5
    a524:	ebfff6c0 	bl	802c <GET32>
    a528:	e3a03007 	mov	r3, #7, 0
    a52c:	e3a01001 	mov	r1, #1, 0
    a530:	e0844084 	add	r4, r4, r4, lsl #1
    a534:	e1c03413 	bic	r3, r0, r3, lsl r4
    a538:	e1831411 	orr	r1, r3, r1, lsl r4
    a53c:	e1a00005 	mov	r0, r5
    a540:	e8bd4070 	pop	{r4, r5, r6, lr}
    a544:	eafff6b6 	b	8024 <PUT32>
    a548:	cccccccd 	stclgt	12, cr12, [ip], {205}	; 0xcd

0000a54c <gpio_set_on>:
    a54c:	e1a03000 	mov	r3, r0
    a550:	e3a01001 	mov	r1, #1, 0
    a554:	e59f0004 	ldr	r0, [pc, #4]	; a560 <gpio_set_on+0x14>
    a558:	e1a01311 	lsl	r1, r1, r3
    a55c:	eafff6b0 	b	8024 <PUT32>
    a560:	2020001c 	eorcs	r0, r0, ip, lsl r0

0000a564 <gpio_set_off>:
    a564:	e1a03000 	mov	r3, r0
    a568:	e3a01001 	mov	r1, #1, 0
    a56c:	e59f0004 	ldr	r0, [pc, #4]	; a578 <gpio_set_off+0x14>
    a570:	e1a01311 	lsl	r1, r1, r3
    a574:	eafff6aa 	b	8024 <PUT32>
    a578:	20200028 	eorcs	r0, r0, r8, lsr #32

0000a57c <gpio_set_input>:
    a57c:	e350001f 	cmp	r0, #31, 0
    a580:	812fff1e 	bxhi	lr
    a584:	e92d4070 	push	{r4, r5, r6, lr}
    a588:	e59f5040 	ldr	r5, [pc, #64]	; a5d0 <gpio_set_input+0x54>
    a58c:	e1a04000 	mov	r4, r0
    a590:	e0853095 	umull	r3, r5, r5, r0
    a594:	e1a051a5 	lsr	r5, r5, #3
    a598:	e2850302 	add	r0, r5, #134217728	; 0x8000000
    a59c:	e2800702 	add	r0, r0, #524288	; 0x80000
    a5a0:	e1a06100 	lsl	r6, r0, #2
    a5a4:	e1a00006 	mov	r0, r6
    a5a8:	ebfff69f 	bl	802c <GET32>
    a5ac:	e3a01007 	mov	r1, #7, 0
    a5b0:	e1a03000 	mov	r3, r0
    a5b4:	e0855105 	add	r5, r5, r5, lsl #2
    a5b8:	e0444085 	sub	r4, r4, r5, lsl #1
    a5bc:	e0844084 	add	r4, r4, r4, lsl #1
    a5c0:	e1a00006 	mov	r0, r6
    a5c4:	e1c31411 	bic	r1, r3, r1, lsl r4
    a5c8:	e8bd4070 	pop	{r4, r5, r6, lr}
    a5cc:	eafff694 	b	8024 <PUT32>
    a5d0:	cccccccd 	stclgt	12, cr12, [ip], {205}	; 0xcd

0000a5d4 <gpio_write>:
    a5d4:	e3510000 	cmp	r1, #0, 0
    a5d8:	e3a03001 	mov	r3, #1, 0
    a5dc:	e1a01000 	mov	r1, r0
    a5e0:	0a000002 	beq	a5f0 <gpio_write+0x1c>
    a5e4:	e59f0010 	ldr	r0, [pc, #16]	; a5fc <gpio_write+0x28>
    a5e8:	e1a01113 	lsl	r1, r3, r1
    a5ec:	eafff68c 	b	8024 <PUT32>
    a5f0:	e59f0008 	ldr	r0, [pc, #8]	; a600 <gpio_write+0x2c>
    a5f4:	e1a01113 	lsl	r1, r3, r1
    a5f8:	eafff689 	b	8024 <PUT32>
    a5fc:	2020001c 	eorcs	r0, r0, ip, lsl r0
    a600:	20200028 	eorcs	r0, r0, r8, lsr #32

0000a604 <gpio_read>:
    a604:	e92d4010 	push	{r4, lr}
    a608:	e1a04000 	mov	r4, r0
    a60c:	e59f0014 	ldr	r0, [pc, #20]	; a628 <gpio_read+0x24>
    a610:	e08002a4 	add	r0, r0, r4, lsr #5
    a614:	ebfff684 	bl	802c <GET32>
    a618:	e204401f 	and	r4, r4, #31, 0
    a61c:	e1a00430 	lsr	r0, r0, r4
    a620:	e2000001 	and	r0, r0, #1, 0
    a624:	e8bd8010 	pop	{r4, pc}
    a628:	20200034 	eorcs	r0, r0, r4, lsr r0

0000a62c <internal_putchar>:
    a62c:	e92d4010 	push	{r4, lr}
    a630:	e1a04000 	mov	r4, r0
    a634:	ebfffe84 	bl	a04c <uart_putc>
    a638:	e1a00004 	mov	r0, r4
    a63c:	e8bd8010 	pop	{r4, pc}

0000a640 <rpi_reset_putc>:
    a640:	e59f3008 	ldr	r3, [pc, #8]	; a650 <rpi_reset_putc+0x10>
    a644:	e59f2008 	ldr	r2, [pc, #8]	; a654 <rpi_reset_putc+0x14>
    a648:	e5832000 	str	r2, [r3]
    a64c:	e12fff1e 	bx	lr
    a650:	0000b09c 	muleq	r0, ip, r0
    a654:	0000a62c 	andeq	sl, r0, ip, lsr #12

0000a658 <rpi_set_putc>:
    a658:	e59f3004 	ldr	r3, [pc, #4]	; a664 <rpi_set_putc+0xc>
    a65c:	e5830000 	str	r0, [r3]
    a660:	e12fff1e 	bx	lr
    a664:	0000b09c 	muleq	r0, ip, r0

0000a668 <strcat>:
    a668:	e1a02000 	mov	r2, r0
    a66c:	e1a03002 	mov	r3, r2
    a670:	e4d2c001 	ldrb	ip, [r2], #1
    a674:	e35c0000 	cmp	ip, #0, 0
    a678:	1afffffb 	bne	a66c <strcat+0x4>
    a67c:	e2433001 	sub	r3, r3, #1, 0
    a680:	e4d12001 	ldrb	r2, [r1], #1
    a684:	e3520000 	cmp	r2, #0, 0
    a688:	e5e32001 	strb	r2, [r3, #1]!
    a68c:	1afffffb 	bne	a680 <strcat+0x18>
    a690:	e12fff1e 	bx	lr

0000a694 <strcmp>:
    a694:	e5d03000 	ldrb	r3, [r0]
    a698:	e3530000 	cmp	r3, #0, 0
    a69c:	05d12000 	ldrbeq	r2, [r1]
    a6a0:	1a000003 	bne	a6b4 <strcmp+0x20>
    a6a4:	ea000006 	b	a6c4 <strcmp+0x30>
    a6a8:	e5f03001 	ldrb	r3, [r0, #1]!
    a6ac:	e3530000 	cmp	r3, #0, 0
    a6b0:	0a000005 	beq	a6cc <strcmp+0x38>
    a6b4:	e1a0c001 	mov	ip, r1
    a6b8:	e4d12001 	ldrb	r2, [r1], #1
    a6bc:	e1520003 	cmp	r2, r3
    a6c0:	0afffff8 	beq	a6a8 <strcmp+0x14>
    a6c4:	e0430002 	sub	r0, r3, r2
    a6c8:	e12fff1e 	bx	lr
    a6cc:	e5dc2001 	ldrb	r2, [ip, #1]
    a6d0:	e0430002 	sub	r0, r3, r2
    a6d4:	e12fff1e 	bx	lr

0000a6d8 <strcpy>:
    a6d8:	e2402001 	sub	r2, r0, #1, 0
    a6dc:	e4d13001 	ldrb	r3, [r1], #1
    a6e0:	e3530000 	cmp	r3, #0, 0
    a6e4:	e5e23001 	strb	r3, [r2, #1]!
    a6e8:	1afffffb 	bne	a6dc <strcpy+0x4>
    a6ec:	e12fff1e 	bx	lr

0000a6f0 <strncmp>:
    a6f0:	e0802002 	add	r2, r0, r2
    a6f4:	ea000003 	b	a708 <strncmp+0x18>
    a6f8:	e4d03001 	ldrb	r3, [r0], #1
    a6fc:	e4d1c001 	ldrb	ip, [r1], #1
    a700:	e153000c 	cmp	r3, ip
    a704:	1a000003 	bne	a718 <strncmp+0x28>
    a708:	e1500002 	cmp	r0, r2
    a70c:	1afffff9 	bne	a6f8 <strncmp+0x8>
    a710:	e3a00000 	mov	r0, #0, 0
    a714:	e12fff1e 	bx	lr
    a718:	e043000c 	sub	r0, r3, ip
    a71c:	e12fff1e 	bx	lr

0000a720 <reboot_callout>:
    a720:	e12fff1e 	bx	lr

0000a724 <dev_barrier>:
    a724:	ea000002 	b	a734 <dsb>

0000a728 <dmb>:
    a728:	e3a00000 	mov	r0, #0, 0
    a72c:	ee070fba 	mcr	15, 0, r0, cr7, cr10, {5}
    a730:	e12fff1e 	bx	lr

0000a734 <dsb>:
    a734:	ee070f9a 	mcr	15, 0, r0, cr7, cr10, {4}
    a738:	e12fff1e 	bx	lr

0000a73c <__code_end__>:
    a73c:	00000000 	andeq	r0, r0, r0

Disassembly of section .rodata:

0000a740 <__FUNCTION__.4034-0xe0>:
    a740:	74736574 	ldrbtvc	r6, [r3], #-1396	; 0xfffffa8c
    a744:	75203a34 	strvc	r3, [r0, #-2612]!	; 0xfffff5cc
    a748:	61206573 			; <UNDEFINED> instruction: 0x61206573
    a74c:	72657466 	rsbvc	r7, r5, #1711276032	; 0x66000000
    a750:	65726620 	ldrbvs	r6, [r2, #-1568]!	; 0xfffff9e0
    a754:	00000a65 	andeq	r0, r0, r5, ror #20
    a758:	74736574 	ldrbtvc	r6, [r3], #-1396	; 0xfffffa8c
    a75c:	2e322d73 	mrccs	13, 1, r2, cr2, cr3, {3}
    a760:	61702f30 	cmnvs	r0, r0, lsr pc
    a764:	2d317472 	cfldrscs	mvf7, [r1, #-456]!	; 0xfffffe38
    a768:	74736574 	ldrbtvc	r6, [r3], #-1396	; 0xfffffa8c
    a76c:	75622d36 	strbvc	r2, [r2, #-3382]!	; 0xfffff2ca
    a770:	632e7367 			; <UNDEFINED> instruction: 0x632e7367
    a774:	00000000 	andeq	r0, r0, r0
    a778:	494e4150 	stmdbmi	lr, {r4, r6, r8, lr}^
    a77c:	73253a43 			; <UNDEFINED> instruction: 0x73253a43
    a780:	3a73253a 	bcc	1cd3c70 <__bss_end__+0x1cc87a0>
    a784:	693a6425 	ldmdbvs	sl!, {r0, r2, r5, sl, sp, lr}
    a788:	6c61766e 	stclvs	6, cr7, [r1], #-440	; 0xfffffe48
    a78c:	65206469 	strvs	r6, [r0, #-1129]!	; 0xfffffb97
    a790:	726f7272 	rsbvc	r7, pc, #536870919	; 0x20000007
    a794:	0a0a2121 	beq	292c20 <__bss_end__+0x287750>
    a798:	00000000 	andeq	r0, r0, r0
    a79c:	43415254 	movtmi	r5, #4692	; 0x1254
    a7a0:	55533a45 	ldrbpl	r3, [r3, #-2629]	; 0xfffff5bb
    a7a4:	53454343 	movtpl	r4, #21315	; 0x5343
    a7a8:	65682053 	strbvs	r2, [r8, #-83]!	; 0xffffffad
    a7ac:	63207061 			; <UNDEFINED> instruction: 0x63207061
    a7b0:	6b636568 	blvs	18e3d58 <__bss_end__+0x18d8888>
    a7b4:	6f206465 	svcvs	0x00206465
    a7b8:	000a7475 	andeq	r7, sl, r5, ror r4
    a7bc:	43415254 	movtmi	r5, #4692	; 0x1254
    a7c0:	6f633a45 	svcvs	0x00633a45
    a7c4:	70757272 	rsbsvc	r7, r5, r2, ror r2
    a7c8:	676e6974 			; <UNDEFINED> instruction: 0x676e6974
    a7cc:	20702520 	rsbscs	r2, r0, r0, lsr #10
    a7d0:	6f207461 	svcvs	0x00207461
    a7d4:	65736666 	ldrbvs	r6, [r3, #-1638]!	; 0xfffff99a
    a7d8:	64252074 	strtvs	r2, [r5], #-116	; 0xffffff8c
    a7dc:	70252820 	eorvc	r2, r5, r0, lsr #16
    a7e0:	00000a29 	andeq	r0, r0, r9, lsr #20
    a7e4:	494e4150 	stmdbmi	lr, {r4, r6, r8, lr}^
    a7e8:	73253a43 			; <UNDEFINED> instruction: 0x73253a43
    a7ec:	3a73253a 	bcc	1cd3cdc <__bss_end__+0x1cc880c>
    a7f0:	6d3a6425 	cfldrsvs	mvf6, [sl, #-148]!	; 0xffffff6c
    a7f4:	65737369 	ldrbvs	r7, [r3, #-873]!	; 0xfffffc97
    a7f8:	72652064 	rsbvc	r2, r5, #100, 0	; 0x64
    a7fc:	21726f72 	cmncs	r2, r2, ror pc
    a800:	00000a0a 	andeq	r0, r0, sl, lsl #20
    a804:	43415254 	movtmi	r5, #4692	; 0x1254
    a808:	55533a45 	ldrbpl	r3, [r3, #-2629]	; 0xfffff5bb
    a80c:	53454343 	movtpl	r4, #21315	; 0x5343
    a810:	6f662053 	svcvs	0x00662053
    a814:	20646e75 	rsbcs	r6, r4, r5, ror lr
    a818:	6f727265 	svcvs	0x00727265
    a81c:	00000a72 	andeq	r0, r0, r2, ror sl

0000a820 <__FUNCTION__.4034>:
    a820:	6d746f6e 	ldclvs	15, cr6, [r4, #-440]!	; 0xfffffe48
    a824:	006e6961 	rsbeq	r6, lr, r1, ror #18
    a828:	253a7325 	ldrcs	r7, [sl, #-805]!	; 0xfffffcdb
    a82c:	64253a73 	strtvs	r3, [r5], #-2675	; 0xfffff58d
    a830:	0000003a 	andeq	r0, r0, sl, lsr r0
    a834:	65657266 	strbvs	r7, [r5, #-614]!	; 0xfffffd9a
    a838:	20676e69 	rsbcs	r6, r7, r9, ror #28
    a83c:	0a702509 	beq	1c13c68 <__bss_end__+0x1c08798>
    a840:	00000000 	andeq	r0, r0, r0
    a844:	5f434f4c 	svcpl	0x00434f4c
    a848:	494e4150 	stmdbmi	lr, {r4, r6, r8, lr}^
    a84c:	25203a43 	strcs	r3, [r0, #-2627]!	; 0xfffff5bd
    a850:	73253a73 			; <UNDEFINED> instruction: 0x73253a73
    a854:	3a64253a 	bcc	1913d44 <__bss_end__+0x1908874>
    a858:	00000000 	andeq	r0, r0, r0
    a85c:	65657266 	strbvs	r7, [r5, #-614]!	; 0xfffffd9a
    a860:	20676e69 	rsbcs	r6, r7, r9, ror #28
    a864:	6c616e75 	stclvs	14, cr6, [r1], #-468	; 0xfffffe2c
    a868:	61636f6c 	cmnvs	r3, ip, ror #30
    a86c:	20646574 	rsbcs	r6, r4, r4, ror r5
    a870:	6f6d656d 	svcvs	0x006d656d
    a874:	203a7972 	eorscs	r7, sl, r2, ror r9
    a878:	74617473 	strbtvc	r7, [r1], #-1139	; 0xfffffb8d
    a87c:	64253d65 	strtvs	r3, [r5], #-3429	; 0xfffff29b
    a880:	0000000a 	andeq	r0, r0, sl
    a884:	7a646572 	bvc	1923e54 <__bss_end__+0x1918984>
    a888:	20656e6f 	rsbcs	r6, r5, pc, ror #28
    a88c:	77203123 	strvc	r3, [r0, -r3, lsr #2]!
    a890:	63207361 			; <UNDEFINED> instruction: 0x63207361
    a894:	7572726f 	ldrbvc	r7, [r2, #-623]!	; 0xfffffd91
    a898:	64657470 	strbtvs	r7, [r5], #-1136	; 0xfffffb90
    a89c:	00000a21 	andeq	r0, r0, r1, lsr #20
    a8a0:	7a646572 	bvc	1923e70 <__bss_end__+0x19189a0>
    a8a4:	20656e6f 	rsbcs	r6, r5, pc, ror #28
    a8a8:	77203223 	strvc	r3, [r0, -r3, lsr #4]!
    a8ac:	63207361 			; <UNDEFINED> instruction: 0x63207361
    a8b0:	7572726f 	ldrbvc	r7, [r2, #-623]!	; 0xfffffd91
    a8b4:	64657470 	strbtvs	r7, [r5], #-1136	; 0xfffffb90
    a8b8:	00000a21 	andeq	r0, r0, r1, lsr #20
    a8bc:	6c616b63 			; <UNDEFINED> instruction: 0x6c616b63
    a8c0:	2e636f6c 	cdpcs	15, 6, cr6, cr3, cr12, {3}
    a8c4:	00000063 	andeq	r0, r0, r3, rrx
    a8c8:	494e4150 	stmdbmi	lr, {r4, r6, r8, lr}^
    a8cc:	73253a43 			; <UNDEFINED> instruction: 0x73253a43
    a8d0:	3a73253a 	bcc	1cd3dc0 <__bss_end__+0x1cc88f0>
    a8d4:	253a6425 	ldrcs	r6, [sl, #-1061]!	; 0xfffffbdb
    a8d8:	00000a73 	andeq	r0, r0, r3, ror sl
    a8dc:	705f6b63 	subsvc	r6, pc, r3, ror #22
    a8e0:	695f7274 	ldmdbvs	pc, {r2, r4, r5, r6, r9, ip, sp, lr}^	; <UNPREDICTABLE>
    a8e4:	6c615f73 	stclvs	15, cr5, [r1], #-460	; 0xfffffe34
    a8e8:	65636f6c 	strbvs	r6, [r3, #-3948]!	; 0xfffff094
    a8ec:	64612864 	strbtvs	r2, [r1], #-2148	; 0xfffff79c
    a8f0:	00297264 	eoreq	r7, r9, r4, ror #4
    a8f4:	6f6c6c61 	svcvs	0x006c6c61
    a8f8:	69746163 	ldmdbvs	r4!, {r0, r1, r5, r6, r8, sp, lr}^
    a8fc:	2520676e 	strcs	r6, [r0, #-1902]!	; 0xfffff892
    a900:	25282070 	strcs	r2, [r8, #-112]!	; 0xffffff90
    a904:	79622064 	stmdbvc	r2!, {r2, r5, r6, sp}^
    a908:	29736574 	ldmdbcs	r3!, {r2, r4, r5, r6, r8, sl, sp, lr}^
    a90c:	0000000a 	andeq	r0, r0, sl

0000a910 <__FUNCTION__.4086>:
    a910:	72666b63 	rsbvc	r6, r6, #101376	; 0x18c00
    a914:	00006565 	andeq	r6, r0, r5, ror #10
    a918:	75716552 	ldrbvc	r6, [r1, #-1362]!	; 0xfffffaae
    a91c:	74737265 	ldrbtvc	r7, [r3], #-613	; 0xfffffd9b
    a920:	20676e69 	rsbcs	r6, r7, r9, ror #28
    a924:	65726f6d 	ldrbvs	r6, [r2, #-3949]!	; 0xfffff093
    a928:	6d656d20 	stclvs	13, cr6, [r5, #-128]!	; 0xffffff80
    a92c:	2079726f 	rsbscs	r7, r9, pc, ror #4
    a930:	29642528 	stmdbcs	r4!, {r3, r5, r8, sl, sp}^
    a934:	0a2e2e2e 	beq	b961f4 <__bss_end__+0xb8ad24>
    a938:	00000000 	andeq	r0, r0, r0
    a93c:	672d6b63 	strvs	r6, [sp, -r3, ror #22]!
    a940:	00632e63 	rsbeq	r2, r3, r3, ror #28
    a944:	203c2070 	eorscs	r2, ip, r0, ror r0
    a948:	00000065 	andeq	r0, r0, r5, rrx
    a94c:	67696c61 	strbvs	r6, [r9, -r1, ror #24]!
    a950:	2864656e 	stmdacs	r4!, {r1, r2, r3, r5, r6, r8, sl, sp, lr}^
    a954:	34202c70 	strtcc	r2, [r0], #-3184	; 0xfffff390
    a958:	00000029 	andeq	r0, r0, r9, lsr #32
    a95c:	67696c61 	strbvs	r6, [r9, -r1, ror #24]!
    a960:	2864656e 	stmdacs	r4!, {r1, r2, r3, r5, r6, r8, sl, sp, lr}^
    a964:	34202c65 	strtcc	r2, [r0], #-3173	; 0xfffff39b
    a968:	00000029 	andeq	r0, r0, r9, lsr #32
    a96c:	6e696f67 	cdpvs	15, 6, cr6, cr9, cr7, {3}
    a970:	6f742067 	svcvs	0x00742067
    a974:	72616d20 	rsbvc	r6, r1, #32, 26	; 0x800
    a978:	7025206b 	eorvc	r2, r5, fp, rrx
    a97c:	20692820 	rsbcs	r2, r9, r0, lsr #16
    a980:	70252040 	eorvc	r2, r5, r0, asr #32
    a984:	25203d20 	strcs	r3, [r0, #-3360]!	; 0xfffff2e0
    a988:	202c2970 	eorcs	r2, ip, r0, ror r9
    a98c:	20707865 	rsbscs	r7, r0, r5, ror #16
    a990:	7025203d 	eorvc	r2, r5, sp, lsr r0
    a994:	0000000a 	andeq	r0, r0, sl
    a998:	6b72616d 	blvs	1ca2f54 <__bss_end__+0x1c97a84>
    a99c:	20676e69 	rsbcs	r6, r7, r9, ror #28
    a9a0:	25207361 	strcs	r7, [r0, #-865]!	; 0xfffffc9f
    a9a4:	00000a64 	andeq	r0, r0, r4, ror #20
    a9a8:	20746f6e 	rsbscs	r6, r4, lr, ror #30
    a9ac:	6b72616d 	blvs	1ca2f68 <__bss_end__+0x1c97a98>
    a9b0:	21676e69 	cmncs	r7, r9, ror #28
    a9b4:	0000000a 	andeq	r0, r0, sl
    a9b8:	63656863 	cmnvs	r5, #6488064	; 0x630000
    a9bc:	676e696b 	strbvs	r6, [lr, -fp, ror #18]!
    a9c0:	61747320 	cmnvs	r4, r0, lsr #6
    a9c4:	203a6b63 	eorscs	r6, sl, r3, ror #22
    a9c8:	74207025 	strtvc	r7, [r0], #-37	; 0xffffffdb
    a9cc:	7025206f 	eorvc	r2, r5, pc, rrx
    a9d0:	0000000a 	andeq	r0, r0, sl
    a9d4:	2d2d2d2d 	stccs	13, cr2, [sp, #-180]!	; 0xffffff4c
    a9d8:	2d2d2d2d 	stccs	13, cr2, [sp, #-180]!	; 0xffffff4c
    a9dc:	2d2d2d2d 	stccs	13, cr2, [sp, #-180]!	; 0xffffff4c
    a9e0:	2d2d2d2d 	stccs	13, cr2, [sp, #-180]!	; 0xffffff4c
    a9e4:	2d2d2d2d 	stccs	13, cr2, [sp, #-180]!	; 0xffffff4c
    a9e8:	2d2d2d2d 	stccs	13, cr2, [sp, #-180]!	; 0xffffff4c
    a9ec:	2d2d2d2d 	stccs	13, cr2, [sp, #-180]!	; 0xffffff4c
    a9f0:	2d2d2d2d 	stccs	13, cr2, [sp, #-180]!	; 0xffffff4c
    a9f4:	2d2d2d2d 	stccs	13, cr2, [sp, #-180]!	; 0xffffff4c
    a9f8:	2d2d2d2d 	stccs	13, cr2, [sp, #-180]!	; 0xffffff4c
    a9fc:	2d2d2d2d 	stccs	13, cr2, [sp, #-180]!	; 0xffffff4c
    aa00:	2d2d2d2d 	stccs	13, cr2, [sp, #-180]!	; 0xffffff4c
    aa04:	2d2d2d2d 	stccs	13, cr2, [sp, #-180]!	; 0xffffff4c
    aa08:	2d2d2d2d 	stccs	13, cr2, [sp, #-180]!	; 0xffffff4c
    aa0c:	00000a2d 	andeq	r0, r0, sp, lsr #20
    aa10:	63656863 	cmnvs	r5, #6488064	; 0x630000
    aa14:	676e696b 	strbvs	r6, [lr, -fp, ror #18]!
    aa18:	726f6620 	rsbvc	r6, pc, #32, 12	; 0x2000000
    aa1c:	61656c20 	cmnvs	r5, r0, lsr #24
    aa20:	0a3a736b 	beq	ea77d4 <__bss_end__+0xe9c304>
    aa24:	00000000 	andeq	r0, r0, r0
    aa28:	4c3a4347 	ldcmi	3, cr4, [sl], #-284	; 0xfffffee4
    aa2c:	2054534f 	subscs	r5, r4, pc, asr #6
    aa30:	2d206425 	cfstrscs	mvf6, [r0, #-148]!	; 0xffffff6c
    aa34:	7025203e 	eorvc	r2, r5, lr, lsr r0
    aa38:	0000000a 	andeq	r0, r0, sl
    aa3c:	4d3a4347 	ldcmi	3, cr4, [sl, #-284]!	; 0xfffffee4
    aa40:	45425941 	strbmi	r5, [r2, #-2369]	; 0xfffff6bf
    aa44:	534f4c20 	movtpl	r4, #64544	; 0xfc20
    aa48:	64252054 	strtvs	r2, [r5], #-84	; 0xffffffac
    aa4c:	203e2d20 	eorscs	r2, lr, r0, lsr #26
    aa50:	000a7025 	andeq	r7, sl, r5, lsr #32
    aa54:	43415254 	movtmi	r5, #4692	; 0x1254
    aa58:	47093a45 	strmi	r3, [r9, -r5, asr #20]
    aa5c:	68433a43 	stmdavs	r3, {r0, r1, r6, r9, fp, ip, sp}^
    aa60:	656b6365 	strbvs	r6, [fp, #-869]!	; 0xfffffc9b
    aa64:	64252064 	strtvs	r2, [r5], #-100	; 0xffffff9c
    aa68:	6f6c6220 	svcvs	0x006c6220
    aa6c:	2e736b63 	vsubcs.f64	d22, d3, d19
    aa70:	0000000a 	andeq	r0, r0, sl
    aa74:	43415254 	movtmi	r5, #4692	; 0x1254
    aa78:	09093a45 	stmdbeq	r9, {r0, r2, r6, r9, fp, ip, sp}
    aa7c:	533a4347 	teqpl	sl, #469762049	; 0x1c000001
    aa80:	45434355 	strbmi	r4, [r3, #-853]	; 0xfffffcab
    aa84:	203a5353 	eorscs	r5, sl, r3, asr r3
    aa88:	6c206f4e 	stcvs	15, cr6, [r0], #-312	; 0xfffffec8
    aa8c:	736b6165 	cmnvc	fp, #1073741849	; 0x40000019
    aa90:	756f6620 	strbvc	r6, [pc, #-1568]!	; a478 <kfree_pop+0x44>
    aa94:	0a21646e 	beq	863c54 <__bss_end__+0x858784>
    aa98:	00000000 	andeq	r0, r0, r0
    aa9c:	43415254 	movtmi	r5, #4692	; 0x1254
    aaa0:	09093a45 	stmdbeq	r9, {r0, r2, r6, r9, fp, ip, sp}
    aaa4:	453a4347 	ldrmi	r4, [sl, #-839]!	; 0xfffffcb9
    aaa8:	524f5252 	subpl	r5, pc, #536870917	; 0x20000005
    aaac:	25203a53 	strcs	r3, [r0, #-2643]!	; 0xfffff5ad
    aab0:	72652064 	rsbvc	r2, r5, #100, 0	; 0x64
    aab4:	73726f72 	cmnvc	r2, #456	; 0x1c8
    aab8:	6425202c 	strtvs	r2, [r5], #-44	; 0xffffffd4
    aabc:	79616d20 	stmdbvc	r1!, {r5, r8, sl, fp, sp, lr}^
    aac0:	655f6562 	ldrbvs	r6, [pc, #-1378]	; a566 <gpio_set_off+0x2>
    aac4:	726f7272 	rsbvc	r7, pc, #536870919	; 0x20000007
    aac8:	00000a73 	andeq	r0, r0, r3, ror sl
    aacc:	2d2d2d2d 	stccs	13, cr2, [sp, #-180]!	; 0xffffff4c
    aad0:	2d2d2d2d 	stccs	13, cr2, [sp, #-180]!	; 0xffffff4c
    aad4:	2d2d2d2d 	stccs	13, cr2, [sp, #-180]!	; 0xffffff4c
    aad8:	2d2d2d2d 	stccs	13, cr2, [sp, #-180]!	; 0xffffff4c
    aadc:	2d2d2d2d 	stccs	13, cr2, [sp, #-180]!	; 0xffffff4c
    aae0:	2d2d2d2d 	stccs	13, cr2, [sp, #-180]!	; 0xffffff4c
    aae4:	2d2d2d2d 	stccs	13, cr2, [sp, #-180]!	; 0xffffff4c
    aae8:	2d2d2d2d 	stccs	13, cr2, [sp, #-180]!	; 0xffffff4c
    aaec:	2d2d2d2d 	stccs	13, cr2, [sp, #-180]!	; 0xffffff4c
    aaf0:	2d2d2d2d 	stccs	13, cr2, [sp, #-180]!	; 0xffffff4c
    aaf4:	2d2d2d2d 	stccs	13, cr2, [sp, #-180]!	; 0xffffff4c
    aaf8:	2d2d2d2d 	stccs	13, cr2, [sp, #-180]!	; 0xffffff4c
    aafc:	2d2d2d2d 	stccs	13, cr2, [sp, #-180]!	; 0xffffff4c
    ab00:	2d2d2d2d 	stccs	13, cr2, [sp, #-180]!	; 0xffffff4c
    ab04:	000a2d2d 	andeq	r2, sl, sp, lsr #26
    ab08:	706d6f63 	rsbvc	r6, sp, r3, ror #30
    ab0c:	69746361 	ldmdbvs	r4!, {r0, r5, r6, r8, r9, sp, lr}^
    ab10:	0a3a676e 	beq	ea48d0 <__bss_end__+0xe99400>
    ab14:	00000000 	andeq	r0, r0, r0
    ab18:	463a4347 	ldrtmi	r4, [sl], -r7, asr #6
    ab1c:	44454552 	strbmi	r4, [r5], #-1362	; 0xfffffaae
    ab20:	0a702520 	beq	1c13fa8 <__bss_end__+0x1c08ad8>
    ab24:	00000000 	andeq	r0, r0, r0
    ab28:	43415254 	movtmi	r5, #4692	; 0x1254
    ab2c:	47093a45 	strmi	r3, [r9, -r5, asr #20]
    ab30:	68433a43 	stmdavs	r3, {r0, r1, r6, r9, fp, ip, sp}^
    ab34:	656b6365 	strbvs	r6, [fp, #-869]!	; 0xfffffc9b
    ab38:	64252064 	strtvs	r2, [r5], #-100	; 0xffffff9c
    ab3c:	6f6c6220 	svcvs	0x006c6220
    ab40:	2c736b63 			; <UNDEFINED> instruction: 0x2c736b63
    ab44:	65726620 	ldrbvs	r6, [r2, #-1568]!	; 0xfffff9e0
    ab48:	25206465 	strcs	r6, [r0, #-1125]!	; 0xfffffb9b
    ab4c:	25202c64 	strcs	r2, [r0, #-3172]!	; 0xfffff39c
    ab50:	79622064 	stmdbvc	r2!, {r2, r5, r6, sp}^
    ab54:	0a736574 	beq	1ce412c <__bss_end__+0x1cd8c5c>
    ab58:	00000000 	andeq	r0, r0, r0
    ab5c:	72636e69 	rsbvc	r6, r3, #1680	; 0x690
    ab60:	6e656d65 	cdpvs	13, 6, cr6, cr5, cr5, {3}
    ab64:	203e2074 	eorscs	r2, lr, r4, ror r0
    ab68:	00000030 	andeq	r0, r0, r0, lsr r0
    ab6c:	494e4150 	stmdbmi	lr, {r4, r6, r8, lr}^
    ab70:	73253a43 			; <UNDEFINED> instruction: 0x73253a43
    ab74:	3a73253a 	bcc	1cd4064 <__bss_end__+0x1cc8b94>
    ab78:	6e3a6425 	cdpvs	4, 3, cr6, cr10, cr5, {1}
    ab7c:	6820746f 	stmdavs	r0!, {r0, r1, r2, r3, r5, r6, sl, ip, sp, lr}
    ab80:	6c646e61 	stclvs	14, cr6, [r4], #-388	; 0xfffffe7c
    ab84:	0a676e69 	beq	19e6530 <__bss_end__+0x19db060>
    ab88:	0000000a 	andeq	r0, r0, sl
    ab8c:	73696874 	cmnvc	r9, #116, 16	; 0x740000
    ab90:	6c6c6120 	stfvse	f6, [ip], #-128	; 0xffffff80
    ab94:	7461636f 	strbtvc	r6, [r1], #-879	; 0xfffffc91
    ab98:	276e6f69 	strbcs	r6, [lr, -r9, ror #30]!
    ab9c:	65722073 	ldrbvs	r2, [r2, #-115]!	; 0xffffff8d
    aba0:	6e6f7a64 	vnmulvs.f32	s15, s30, s9
    aba4:	77207365 	strvc	r7, [r0, -r5, ror #6]!
    aba8:	20657265 	rsbcs	r7, r5, r5, ror #4
    abac:	74697277 	strbtvc	r7, [r9], #-631	; 0xfffffd89
    abb0:	206e6574 	rsbcs	r6, lr, r4, ror r5
    abb4:	0a216f74 	beq	86698c <__bss_end__+0x85b4bc>
    abb8:	00000000 	andeq	r0, r0, r0
    abbc:	20736177 	rsbscs	r6, r3, r7, ror r1
    abc0:	64657375 	strbtvs	r7, [r5], #-885	; 0xfffffc8b
    abc4:	74666120 	strbtvc	r6, [r6], #-288	; 0xfffffee0
    abc8:	66207265 	strtvs	r7, [r0], -r5, ror #4
    abcc:	21656572 	smccs	22098	; 0x5652
    abd0:	0000000a 	andeq	r0, r0, sl
    abd4:	494e4150 	stmdbmi	lr, {r4, r6, r8, lr}^
    abd8:	73253a43 			; <UNDEFINED> instruction: 0x73253a43
    abdc:	3a73253a 	bcc	1cd40cc <__bss_end__+0x1cc8bfc>
    abe0:	473a6425 	ldrmi	r6, [sl, -r5, lsr #8]!
    abe4:	73203a43 			; <UNDEFINED> instruction: 0x73203a43
    abe8:	6c756f68 	ldclvs	15, cr6, [r5], #-416	; 0xfffffe60
    abec:	61682064 	cmnvs	r8, r4, rrx
    abf0:	6e206576 	mcrvs	5, 1, r6, cr0, cr6, {3}
    abf4:	656c206f 	strbvs	r2, [ip, #-111]!	; 0xffffff91
    abf8:	21736b61 	cmncs	r3, r1, ror #22
    abfc:	00000a0a 	andeq	r0, r0, sl, lsl #20
    ac00:	43415254 	movtmi	r5, #4692	; 0x1254
    ac04:	43473a45 	movtmi	r3, #31301	; 0x7a45
    ac08:	5553203a 	ldrbpl	r2, [r3, #-58]	; 0xffffffc6
    ac0c:	53454343 	movtpl	r4, #21315	; 0x5343
    ac10:	6e203a53 			; <UNDEFINED> instruction: 0x6e203a53
    ac14:	656c206f 	strbvs	r2, [ip, #-111]!	; 0xffffff91
    ac18:	21736b61 	cmncs	r3, r1, ror #22
    ac1c:	0000000a 	andeq	r0, r0, sl
    ac20:	494e4150 	stmdbmi	lr, {r4, r6, r8, lr}^
    ac24:	73253a43 			; <UNDEFINED> instruction: 0x73253a43
    ac28:	3a73253a 	bcc	1cd4118 <__bss_end__+0x1cc8c48>
    ac2c:	473a6425 	ldrmi	r6, [sl, -r5, lsr #8]!
    ac30:	73203a43 			; <UNDEFINED> instruction: 0x73203a43
    ac34:	6c756f68 	ldclvs	15, cr6, [r5], #-416	; 0xfffffe60
    ac38:	61682064 	cmnvs	r8, r4, rrx
    ac3c:	6c206576 	cfstr32vs	mvfx6, [r0], #-472	; 0xfffffe28
    ac40:	736b6165 	cmnvc	fp, #1073741849	; 0x40000019
    ac44:	000a0a21 	andeq	r0, sl, r1, lsr #20
    ac48:	43415254 	movtmi	r5, #4692	; 0x1254
    ac4c:	43473a45 	movtmi	r3, #31301	; 0x7a45
    ac50:	5553203a 	ldrbpl	r2, [r3, #-58]	; 0xffffffc6
    ac54:	53454343 	movtpl	r4, #21315	; 0x5343
    ac58:	66203a53 			; <UNDEFINED> instruction: 0x66203a53
    ac5c:	646e756f 	strbtvs	r7, [lr], #-1391	; 0xfffffa91
    ac60:	20642520 	rsbcs	r2, r4, r0, lsr #10
    ac64:	6b61656c 	blvs	186421c <__bss_end__+0x1858d4c>
    ac68:	000a2173 	andeq	r2, sl, r3, ror r1
    ac6c:	494e4150 	stmdbmi	lr, {r4, r6, r8, lr}^
    ac70:	73253a43 			; <UNDEFINED> instruction: 0x73253a43
    ac74:	3a73253a 	bcc	1cd4164 <__bss_end__+0x1cc8c94>
    ac78:	643a6425 	ldrtvs	r6, [sl], #-1061	; 0xfffffbdb
    ac7c:	6e206469 	cdpvs	4, 2, cr6, cr0, cr9, {3}
    ac80:	6920746f 	stmdbvs	r0!, {r0, r1, r2, r3, r5, r6, sl, ip, sp, lr}
    ac84:	656c706d 	strbvs	r7, [ip, #-109]!	; 0xffffff93
    ac88:	746e656d 	strbtvc	r6, [lr], #-1389	; 0xfffffa93
    ac8c:	6d756420 	cfldrdvs	mvd6, [r5, #-128]!	; 0xffffff80
    ac90:	65725f70 	ldrbvs	r5, [r2, #-3952]!	; 0xfffff090
    ac94:	0a217367 	beq	867a38 <__bss_end__+0x85c568>
    ac98:	0000000a 	andeq	r0, r0, sl

0000ac9c <__FUNCTION__.4051>:
    ac9c:	6b72616d 	blvs	1ca3258 <__bss_end__+0x1c97d88>
    aca0:	00000000 	andeq	r0, r0, r0

0000aca4 <__FUNCTION__.4125>:
    aca4:	65657773 	strbvs	r7, [r5, #-1907]!	; 0xfffff88d
    aca8:	72665f70 	rsbvc	r5, r6, #112, 30	; 0x1c0
    acac:	00006565 	andeq	r6, r0, r5, ror #10

0000acb0 <__FUNCTION__.4038>:
    acb0:	6b726273 	blvs	1ca3684 <__bss_end__+0x1c981b4>
    acb4:	00000000 	andeq	r0, r0, r0

0000acb8 <__FUNCTION__.4112>:
    acb8:	63656863 	cmnvs	r5, #6488064	; 0x630000
    acbc:	6f6e5f6b 	svcvs	0x006e5f6b
    acc0:	61656c5f 	cmnvs	r5, pc, asr ip
    acc4:	0000006b 	andeq	r0, r0, fp, rrx

0000acc8 <__FUNCTION__.4117>:
    acc8:	63656863 	cmnvs	r5, #6488064	; 0x630000
    accc:	68735f6b 	ldmdavs	r3!, {r0, r1, r3, r5, r6, r8, r9, sl, fp, ip, lr}^
    acd0:	646c756f 	strbtvs	r7, [ip], #-1391	; 0xfffffa91
    acd4:	61656c5f 	cmnvs	r5, pc, asr ip
    acd8:	0000006b 	andeq	r0, r0, fp, rrx

0000acdc <__FUNCTION__.4136>:
    acdc:	6c706d69 	ldclvs	13, cr6, [r0], #-420	; 0xfffffe5c
    ace0:	6e656d65 	cdpvs	13, 6, cr6, cr5, cr5, {3}
    ace4:	68745f74 	ldmdavs	r4!, {r2, r4, r5, r6, r8, r9, sl, fp, ip, lr}^
    ace8:	00007369 	andeq	r7, r0, r9, ror #6
    acec:	003f3f3f 	eorseq	r3, pc, pc, lsr pc	; <UNPREDICTABLE>
    acf0:	20642523 	rsbcs	r2, r4, r3, lsr #10
    acf4:	28207825 	stmdacs	r0!, {r0, r2, r5, fp, ip, sp, lr}
    acf8:	0a297325 	beq	a67994 <__bss_end__+0xa5c4c4>
    acfc:	00000000 	andeq	r0, r0, r0
    ad00:	696c2f2e 	stmdbvs	ip!, {r1, r2, r3, r5, r8, r9, sl, fp, sp}^
    ad04:	762f6362 	strtvc	r6, [pc], -r2, ror #6
    ad08:	72702d61 	rsbsvc	r2, r0, #6208	; 0x1840
    ad0c:	6b746e69 	blvs	1d266b8 <__bss_end__+0x1d1b1e8>
    ad10:	0000632e 	andeq	r6, r0, lr, lsr #6
    ad14:	33323130 	teqcc	r2, #12
    ad18:	37363534 			; <UNDEFINED> instruction: 0x37363534
    ad1c:	62613938 	rsbvs	r3, r1, #56, 18	; 0xe0000
    ad20:	66656463 	strbtvs	r6, [r5], -r3, ror #8
    ad24:	00000000 	andeq	r0, r0, r0
    ad28:	00003130 	andeq	r3, r0, r0, lsr r1
    ad2c:	33323130 	teqcc	r2, #12
    ad30:	37363534 			; <UNDEFINED> instruction: 0x37363534
    ad34:	00003938 	andeq	r3, r0, r8, lsr r9
    ad38:	63747570 	cmnvs	r4, #112, 10	; 0x1c000000
    ad3c:	0070665f 	rsbseq	r6, r0, pc, asr r6
    ad40:	74646977 	strbtvc	r6, [r4], #-2423	; 0xfffff689
    ad44:	203c2068 	eorscs	r2, ip, r8, rrx
    ad48:	00003233 	andeq	r3, r0, r3, lsr r2
    ad4c:	00786c6c 	rsbseq	r6, r8, ip, ror #24
    ad50:	253d3078 	ldrcs	r3, [sp, #-120]!	; 0xffffff88
    ad54:	00000a78 	andeq	r0, r0, r8, ror sl
    ad58:	253d3178 	ldrcs	r3, [sp, #-376]!	; 0xfffffe88
    ad5c:	00000a78 	andeq	r0, r0, r8, ror sl
    ad60:	00646c6c 	rsbeq	r6, r4, ip, ror #24
    ad64:	6e727473 	mrcvs	4, 3, r7, cr2, cr3, {3}
    ad68:	28706d63 	ldmdacs	r0!, {r0, r1, r5, r6, r8, sl, fp, sp, lr}^
    ad6c:	202c7974 	eorcs	r7, ip, r4, ror r9
    ad70:	786c6c22 	stmdavc	ip!, {r1, r5, sl, fp, sp, lr}^
    ad74:	33202c22 			; <UNDEFINED> instruction: 0x33202c22
    ad78:	3d3d2029 	ldccc	0, cr2, [sp, #-164]!	; 0xffffff5c
    ad7c:	7c203020 	stcvc	0, cr3, [r0], #-128	; 0xffffff80
    ad80:	7473207c 	ldrbtvc	r2, [r3], #-124	; 0xffffff84
    ad84:	6d636e72 	stclvs	14, cr6, [r3, #-456]!	; 0xfffffe38
    ad88:	79742870 	ldmdbvc	r4!, {r4, r5, r6, fp, sp}^
    ad8c:	6c22202c 	stcvs	0, cr2, [r2], #-176	; 0xffffff50
    ad90:	2c22646c 	cfstrscs	mvf6, [r2], #-432	; 0xfffffe50
    ad94:	20293320 	eorcs	r3, r9, r0, lsr #6
    ad98:	30203d3d 	eorcc	r3, r0, sp, lsr sp
    ad9c:	00000000 	andeq	r0, r0, r0
    ada0:	494e4150 	stmdbmi	lr, {r4, r6, r8, lr}^
    ada4:	73253a43 			; <UNDEFINED> instruction: 0x73253a43
    ada8:	3a73253a 	bcc	1cd4298 <__bss_end__+0x1cc8dc8>
    adac:	693a6425 	ldmdbvs	sl!, {r0, r2, r5, sl, sp, lr}
    adb0:	736f706d 	cmnvc	pc, #109, 0	; 0x6d
    adb4:	6c626973 			; <UNDEFINED> instruction: 0x6c626973
    adb8:	66203a65 	strtvs	r3, [r0], -r5, ror #20
    adbc:	3c3d746d 	cfldrscc	mvf7, [sp], #-436	; 0xfffffe4c
    adc0:	0a3e7325 	beq	fa7a5c <__bss_end__+0xf9c58c>
    adc4:	0000000a 	andeq	r0, r0, sl
    adc8:	494e4150 	stmdbmi	lr, {r4, r6, r8, lr}^
    adcc:	73253a43 			; <UNDEFINED> instruction: 0x73253a43
    add0:	3a73253a 	bcc	1cd42c0 <__bss_end__+0x1cc8df0>
    add4:	663a6425 	ldrtvs	r6, [sl], -r5, lsr #8
    add8:	74616f6c 	strbtvc	r6, [r1], #-3948	; 0xfffff094
    addc:	746f6e20 	strbtvc	r6, [pc], #-3616	; ade4 <__FUNCTION__.4136+0x108>
    ade0:	616e6520 	cmnvs	lr, r0, lsr #10
    ade4:	64656c62 	strbtvs	r6, [r5], #-3170	; 0xfffff39e
    ade8:	0a212121 	beq	853274 <__bss_end__+0x847da4>
    adec:	00000000 	andeq	r0, r0, r0
    adf0:	6e697270 	mcrvs	2, 3, r7, cr9, cr0, {3}
    adf4:	203a6b74 	eorscs	r6, sl, r4, ror fp
    adf8:	20746f6e 	rsbscs	r6, r4, lr, ror #30
    adfc:	646e6168 	strbtvs	r6, [lr], #-360	; 0xfffffe98
    ae00:	676e696c 	strbvs	r6, [lr, -ip, ror #18]!
    ae04:	65707320 	ldrbvs	r7, [r0, #-800]!	; 0xfffffce0
    ae08:	69666963 	stmdbvs	r6!, {r0, r1, r5, r6, r8, fp, sp, lr}^
    ae0c:	27207265 	strcs	r7, [r0, -r5, ror #4]!
    ae10:	20276325 	eorcs	r6, r7, r5, lsr #6
    ae14:	63736128 	cmnvs	r3, #10
    ae18:	253d6969 	ldrcs	r6, [sp, #-2409]!	; 0xfffff697
    ae1c:	000a2964 	andeq	r2, sl, r4, ror #18
    ae20:	494e4150 	stmdbmi	lr, {r4, r6, r8, lr}^
    ae24:	73253a43 			; <UNDEFINED> instruction: 0x73253a43
    ae28:	3a73253a 	bcc	1cd4318 <__bss_end__+0x1cc8e48>
    ae2c:	703a6425 	eorsvc	r6, sl, r5, lsr #8
    ae30:	746e6972 	strbtvc	r6, [lr], #-2418	; 0xfffff68e
    ae34:	7265206b 	rsbvc	r2, r5, #107, 0	; 0x6b
    ae38:	0a726f72 	beq	1ca6c08 <__bss_end__+0x1c9b738>
    ae3c:	0000000a 	andeq	r0, r0, sl

0000ae40 <__FUNCTION__.4004>:
    ae40:	74696d65 	strbtvc	r6, [r9], #-3429	; 0xfffff29b
    ae44:	00000000 	andeq	r0, r0, r0

0000ae48 <__FUNCTION__.3952>:
    ae48:	5f697072 	svcpl	0x00697072
    ae4c:	5f746573 	svcpl	0x00746573
    ae50:	7074756f 	rsbsvc	r7, r4, pc, ror #10
    ae54:	00007475 	andeq	r7, r0, r5, ror r4

0000ae58 <__FUNCTION__.4030>:
    ae58:	705f6176 	subsvc	r6, pc, r6, ror r1	; <UNPREDICTABLE>
    ae5c:	746e6972 	strbtvc	r6, [lr], #-2418	; 0xfffff68e
    ae60:	0000006b 	andeq	r0, r0, fp, rrx
    ae64:	454e4f44 	strbmi	r4, [lr, #-3908]	; 0xfffff0bc
    ae68:	0a212121 	beq	8532f4 <__bss_end__+0x847e24>
    ae6c:	00000000 	andeq	r0, r0, r0
    ae70:	6e75525b 	mrcvs	2, 3, r5, cr5, cr11, {2}
    ae74:	676e696e 	strbvs	r6, [lr, -lr, ror #18]!
    ae78:	6f6f7420 	svcvs	0x006f7420
    ae7c:	6425206b 	strtvs	r2, [r5], #-107	; 0xffffff95
    ae80:	63796320 	cmnvs	r9, #32, 6	; 0x80000000
    ae84:	5d73656c 	cfldr64pl	mvdx6, [r3, #-432]!	; 0xfffffe50
    ae88:	0000000a 	andeq	r0, r0, sl
    ae8c:	6c616d6b 	stclvs	13, cr6, [r1], #-428	; 0xfffffe54
    ae90:	2e636f6c 	cdpcs	15, 6, cr6, cr3, cr12, {3}
    ae94:	00000063 	andeq	r0, r0, r3, rrx
    ae98:	5f78616d 	svcpl	0x0078616d
    ae9c:	7479626e 	ldrbtvc	r6, [r9], #-622	; 0xfffffd92
    aea0:	00007365 	andeq	r7, r0, r5, ror #6
    aea4:	494e4150 	stmdbmi	lr, {r4, r6, r8, lr}^
    aea8:	73253a43 			; <UNDEFINED> instruction: 0x73253a43
    aeac:	3a73253a 	bcc	1cd439c <__bss_end__+0x1cc8ecc>
    aeb0:	733a6425 	teqvc	sl, #620756992	; 0x25000000
    aeb4:	69747465 	ldmdbvs	r4!, {r0, r2, r5, r6, sl, ip, sp, lr}^
    aeb8:	6820676e 	stmdavs	r0!, {r1, r2, r3, r5, r6, r8, r9, sl, sp, lr}
    aebc:	20706165 	rsbscs	r6, r0, r5, ror #2
    aec0:	25206f74 	strcs	r6, [r0, #-3956]!	; 0xfffff08c
    aec4:	77203a70 			; <UNDEFINED> instruction: 0x77203a70
    aec8:	206c6c69 	rsbcs	r6, ip, r9, ror #24
    aecc:	20746968 	rsbscs	r6, r4, r8, ror #18
    aed0:	20656874 	rsbcs	r6, r5, r4, ror r8
    aed4:	20646c6f 	rsbcs	r6, r4, pc, ror #24
    aed8:	70616568 	rsbvc	r6, r1, r8, ror #10
    aedc:	20746120 	rsbscs	r6, r4, r0, lsr #2
    aee0:	0a0a7025 	beq	2a6f7c <__bss_end__+0x29baac>
    aee4:	00000000 	andeq	r0, r0, r0
    aee8:	494e4150 	stmdbmi	lr, {r4, r6, r8, lr}^
    aeec:	73253a43 			; <UNDEFINED> instruction: 0x73253a43
    aef0:	3a73253a 	bcc	1cd43e0 <__bss_end__+0x1cc8f10>
    aef4:	613a6425 	teqvs	sl, r5, lsr #8
    aef8:	6165726c 	cmnvs	r5, ip, ror #4
    aefc:	63207964 			; <UNDEFINED> instruction: 0x63207964
    af00:	656c6c61 	strbvs	r6, [ip, #-3169]!	; 0xfffff39f
    af04:	6d6b2064 	stclvs	0, cr2, [fp, #-400]!	; 0xfffffe70
    af08:	6f6c6c61 	svcvs	0x006c6c61
    af0c:	6e695f63 	cdpvs	15, 6, cr5, cr9, cr3, {3}
    af10:	0a0a7469 	beq	2a80bc <__bss_end__+0x29cbec>
    af14:	00000000 	andeq	r0, r0, r0
    af18:	494e4150 	stmdbmi	lr, {r4, r6, r8, lr}^
    af1c:	73253a43 			; <UNDEFINED> instruction: 0x73253a43
    af20:	3a73253a 	bcc	1cd4410 <__bss_end__+0x1cc8f40>
    af24:	253a6425 	ldrcs	r6, [sl, #-1061]!	; 0xfffffbdb
    af28:	626e2064 	rsbvs	r2, lr, #100, 0	; 0x64
    af2c:	73657479 	cmnvc	r5, #2030043136	; 0x79000000
    af30:	63786520 	cmnvs	r8, #32, 10	; 0x8000000
    af34:	65646565 	strbvs	r6, [r4, #-1381]!	; 0xfffffa9b
    af38:	69732064 	ldmdbvs	r3!, {r2, r5, r6, sp}^
    af3c:	6f20657a 	svcvs	0x0020657a
    af40:	65682066 	strbvs	r2, [r8, #-102]!	; 0xffffff9a
    af44:	62207061 	eorvs	r7, r0, #97, 0	; 0x61
    af48:	75252079 	strvc	r2, [r5, #-121]!	; 0xffffff87
    af4c:	79626e20 	stmdbvc	r2!, {r5, r9, sl, fp, sp, lr}^
    af50:	0a736574 	beq	1ce4528 <__bss_end__+0x1cd9058>
    af54:	0000000a 	andeq	r0, r0, sl
    af58:	4f525245 	svcmi	0x00525245
    af5c:	73253a52 			; <UNDEFINED> instruction: 0x73253a52
    af60:	3a73253a 	bcc	1cd4450 <__bss_end__+0x1cc8f80>
    af64:	203a6425 	eorscs	r6, sl, r5, lsr #8
    af68:	534c4146 	movtpl	r4, #49478	; 0xc146
    af6c:	253c2845 	ldrcs	r2, [ip, #-2117]!	; 0xfffff7bb
    af70:	3a293e73 	bcc	a5a944 <__bss_end__+0xa4f474>
    af74:	73736120 	cmnvc	r3, #8
    af78:	6e696d75 	mcrvs	13, 3, r6, cr9, cr5, {3}
    af7c:	6f702067 	svcvs	0x00702067
    af80:	20726577 	rsbscs	r6, r2, r7, ror r5
    af84:	7420666f 	strtvc	r6, [r0], #-1647	; 0xfffff991
    af88:	000a6f77 	andeq	r6, sl, r7, ror pc
    af8c:	705f7369 	subsvc	r7, pc, r9, ror #6
    af90:	2832776f 	ldmdacs	r2!, {r0, r1, r2, r3, r5, r6, r8, r9, sl, ip, sp, lr}
    af94:	67696c61 	strbvs	r6, [r9, -r1, ror #24]!
    af98:	6e656d6e 	cdpvs	13, 6, cr6, cr5, cr14, {3}
    af9c:	00002974 	andeq	r2, r0, r4, ror r9
    afa0:	705f7369 	subsvc	r7, pc, r9, ror #6
    afa4:	2832776f 	ldmdacs	r2!, {r0, r1, r2, r3, r5, r6, r8, r9, sl, ip, sp, lr}
    afa8:	0000296e 	andeq	r2, r0, lr, ror #18
    afac:	4f525245 	svcmi	0x00525245
    afb0:	73253a52 			; <UNDEFINED> instruction: 0x73253a52
    afb4:	3a73253a 	bcc	1cd44a4 <__bss_end__+0x1cc8fd4>
    afb8:	203a6425 	eorscs	r6, sl, r5, lsr #8
    afbc:	534c4146 	movtpl	r4, #49478	; 0xc146
    afc0:	253c2845 	ldrcs	r2, [ip, #-2117]!	; 0xfffff7bb
    afc4:	3a293e73 	bcc	a5a998 <__bss_end__+0xa4f4c8>
    afc8:	706d6920 	rsbvc	r6, sp, r0, lsr #18
    afcc:	6973736f 	ldmdbvs	r3!, {r0, r1, r2, r3, r5, r6, r8, r9, ip, sp, lr}^
    afd0:	0a656c62 	beq	1966160 <__bss_end__+0x195ac90>
    afd4:	00000000 	andeq	r0, r0, r0
    afd8:	615f7369 	cmpvs	pc, r9, ror #6
    afdc:	6e67696c 	vnmulvs.f16	s13, s14, s25	; <UNPREDICTABLE>
    afe0:	68286465 	stmdavs	r8!, {r0, r2, r5, r6, sl, sp, lr}
    afe4:	6c61202c 	stclvs	0, cr2, [r1], #-176	; 0xffffff50
    afe8:	6d6e6769 	stclvs	7, cr6, [lr, #-420]!	; 0xfffffe5c
    afec:	29746e65 	ldmdbcs	r4!, {r0, r2, r5, r6, r9, sl, fp, sp, lr}^
    aff0:	00000000 	andeq	r0, r0, r0
    aff4:	494e4150 	stmdbmi	lr, {r4, r6, r8, lr}^
    aff8:	73253a43 			; <UNDEFINED> instruction: 0x73253a43
    affc:	3a73253a 	bcc	1cd44ec <__bss_end__+0x1cc901c>
    b000:	703a6425 	eorsvc	r6, sl, r5, lsr #8
    b004:	746e696f 	strbtvc	r6, [lr], #-2415	; 0xfffff691
    b008:	25207265 	strcs	r7, [r0, #-613]!	; 0xfffffd9b
    b00c:	61772070 	cmnvs	r7, r0, ror r0
    b010:	656e2073 	strbvs	r2, [lr, #-115]!	; 0xffffff8d
    b014:	20726576 	rsbscs	r6, r2, r6, ror r5
    b018:	6f6c6c61 	svcvs	0x006c6c61
    b01c:	65746163 	ldrbvs	r6, [r4, #-355]!	; 0xfffffe9d
    b020:	000a0a64 	andeq	r0, sl, r4, ror #20

0000b024 <__FUNCTION__.7>:
    b024:	6c616d6b 	stclvs	13, cr6, [r1], #-428	; 0xfffffe54
    b028:	5f636f6c 	svcpl	0x00636f6c
    b02c:	74696e69 	strbtvc	r6, [r9], #-3689	; 0xfffff197
    b030:	7465735f 	strbtvc	r7, [r5], #-863	; 0xfffffca1
    b034:	6174735f 	cmnvs	r4, pc, asr r3
    b038:	00007472 	andeq	r7, r0, r2, ror r4

0000b03c <__FUNCTION__.5>:
    b03c:	6c616d6b 	stclvs	13, cr6, [r1], #-428	; 0xfffffe54
    b040:	5f636f6c 	svcpl	0x00636f6c
    b044:	74696e69 	strbtvc	r6, [r9], #-3689	; 0xfffff197
    b048:	00000000 	andeq	r0, r0, r0

0000b04c <__FUNCTION__.4>:
    b04c:	6c616d6b 	stclvs	13, cr6, [r1], #-428	; 0xfffffe54
    b050:	5f636f6c 	svcpl	0x00636f6c
    b054:	7a746f6e 	bvc	1d26e14 <__bss_end__+0x1d1b944>
    b058:	006f7265 	rsbeq	r7, pc, r5, ror #4

0000b05c <__FUNCTION__.2>:
    b05c:	6c616d6b 	stclvs	13, cr6, [r1], #-428	; 0xfffffe54
    b060:	00636f6c 	rsbeq	r6, r3, ip, ror #30

0000b064 <__FUNCTION__.1>:
    b064:	6c616d6b 	stclvs	13, cr6, [r1], #-428	; 0xfffffe54
    b068:	5f636f6c 	svcpl	0x00636f6c
    b06c:	67696c61 	strbvs	r6, [r9, -r1, ror #24]!
    b070:	0064656e 	rsbeq	r6, r4, lr, ror #10

0000b074 <__FUNCTION__.3>:
    b074:	6e756f72 	mrcvs	15, 3, r6, cr5, cr2, {3}
    b078:	00707564 	rsbseq	r7, r0, r4, ror #10

0000b07c <__FUNCTION__.0>:
    b07c:	6572666b 	ldrbvs	r6, [r2, #-1643]!	; 0xfffff995
    b080:	6f705f65 	svcvs	0x00705f65
    b084:	Address 0x000000000000b084 is out of bounds.


Disassembly of section .data:

0000b088 <putk>:
    b088:	00009170 	andeq	r9, r0, r0, ror r1

0000b08c <lfsr>:
    b08c:	0000ace1 	andeq	sl, r0, r1, ror #25

0000b090 <heap>:
    b090:	0000b4d0 	ldrdeq	fp, [r0], -r0

0000b094 <heap_start>:
    b094:	0000b4d0 	ldrdeq	fp, [r0], -r0

0000b098 <heap_end>:
    b098:	0020b4d0 	ldrdeq	fp, [r0], -r0	; <UNPREDICTABLE>

0000b09c <rpi_putchar>:
    b09c:	0000a62c 	andeq	sl, r0, ip, lsr #12

Disassembly of section .bss:

0000b0a0 <__bss_start__>:
	...

0000b0a8 <freep>:
	...

0000b0b0 <base>:
	...

0000b0b8 <heap_start>:
    b0b8:	00000000 	andeq	r0, r0, r0

0000b0bc <heap_end>:
    b0bc:	00000000 	andeq	r0, r0, r0

0000b0c0 <init_p.4037>:
    b0c0:	00000000 	andeq	r0, r0, r0

0000b0c4 <buf.3944>:
	...

0000b4c4 <last.3937>:
    b4c4:	00000000 	andeq	r0, r0, r0

0000b4c8 <init_p.6>:
	...

Disassembly of section .ARM.attributes:

00000000 <.ARM.attributes>:
   0:	00002a41 	andeq	r2, r0, r1, asr #20
   4:	61656100 	cmnvs	r5, r0, lsl #2
   8:	01006962 	tsteq	r0, r2, ror #18
   c:	00000020 	andeq	r0, r0, r0, lsr #32
  10:	4b5a3605 	blmi	168d82c <__bss_end__+0x168235c>
  14:	08070600 	stmdaeq	r7, {r9, sl}
  18:	12010901 	andne	r0, r1, #16384	; 0x4000
  1c:	15011404 	strne	r1, [r1, #-1028]	; 0xfffffbfc
  20:	18031701 	stmdane	r3, {r0, r8, r9, sl, ip}
  24:	22011a01 	andcs	r1, r1, #4096	; 0x1000
  28:	Address 0x0000000000000028 is out of bounds.


Disassembly of section .comment:

00000000 <.comment>:
   0:	3a434347 	bcc	10d0d24 <__bss_end__+0x10c5854>
   4:	4e472820 	cdpmi	8, 4, cr2, cr7, cr0, {1}
   8:	6f542055 	svcvs	0x00542055
   c:	20736c6f 	rsbscs	r6, r3, pc, ror #24
  10:	20726f66 	rsbscs	r6, r2, r6, ror #30
  14:	206d7241 	rsbcs	r7, sp, r1, asr #4
  18:	65626d45 	strbvs	r6, [r2, #-3397]!	; 0xfffff2bb
  1c:	64656464 	strbtvs	r6, [r5], #-1124	; 0xfffffb9c
  20:	6f725020 	svcvs	0x00725020
  24:	73736563 	cmnvc	r3, #415236096	; 0x18c00000
  28:	2073726f 	rsbscs	r7, r3, pc, ror #4
  2c:	30322d39 	eorscc	r2, r2, r9, lsr sp
  30:	712d3931 			; <UNDEFINED> instruction: 0x712d3931
  34:	616d2d34 	cmnvs	sp, r4, lsr sp
  38:	29726f6a 	ldmdbcs	r2!, {r1, r3, r5, r6, r8, r9, sl, fp, sp, lr}^
  3c:	322e3920 	eorcc	r3, lr, #32, 18	; 0x80000
  40:	3220312e 	eorcc	r3, r0, #-2147483637	; 0x8000000b
  44:	31393130 	teqcc	r9, r0, lsr r1
  48:	20353230 	eorscs	r3, r5, r0, lsr r2
  4c:	6c657228 	sfmvs	f7, 2, [r5], #-160	; 0xffffff60
  50:	65736165 	ldrbvs	r6, [r3, #-357]!	; 0xfffffe9b
  54:	415b2029 	cmpmi	fp, r9, lsr #32
  58:	612f4d52 			; <UNDEFINED> instruction: 0x612f4d52
  5c:	392d6d72 	pushcc	{r1, r4, r5, r6, r8, sl, fp, sp, lr}
  60:	6172622d 	cmnvs	r2, sp, lsr #4
  64:	2068636e 	rsbcs	r6, r8, lr, ror #6
  68:	69766572 	ldmdbvs	r6!, {r1, r4, r5, r6, r8, sl, sp, lr}^
  6c:	6e6f6973 			; <UNDEFINED> instruction: 0x6e6f6973
  70:	37373220 	ldrcc	r3, [r7, -r0, lsr #4]!
  74:	5d393935 			; <UNDEFINED> instruction: 0x5d393935
  78:	43434700 	movtmi	r4, #14080	; 0x3700
  7c:	4728203a 			; <UNDEFINED> instruction: 0x4728203a
  80:	4120554e 			; <UNDEFINED> instruction: 0x4120554e
  84:	45206d72 	strmi	r6, [r0, #-3442]!	; 0xfffff28e
  88:	6465626d 	strbtvs	r6, [r5], #-621	; 0xfffffd93
  8c:	20646564 	rsbcs	r6, r4, r4, ror #10
  90:	6c6f6f54 	stclvs	15, cr6, [pc], #-336	; ffffff48 <__bss_end__+0xffff4a78>
  94:	69616863 	stmdbvs	r1!, {r0, r1, r5, r6, fp, sp, lr}^
  98:	3031206e 	eorscc	r2, r1, lr, rrx
  9c:	322d332e 	eorcc	r3, sp, #-1207959552	; 0xb8000000
  a0:	2e313230 	mrccs	2, 1, r3, cr1, cr0, {1}
  a4:	20293031 	eorcs	r3, r9, r1, lsr r0
  a8:	332e3031 			; <UNDEFINED> instruction: 0x332e3031
  ac:	3220312e 	eorcc	r3, r0, #-2147483637	; 0x8000000b
  b0:	30313230 	eorscc	r3, r1, r0, lsr r2
  b4:	20343238 	eorscs	r3, r4, r8, lsr r2
  b8:	6c657228 	sfmvs	f7, 2, [r5], #-160	; 0xffffff60
  bc:	65736165 	ldrbvs	r6, [r3, #-357]!	; 0xfffffe9b
  c0:	Address 0x00000000000000c0 is out of bounds.


Disassembly of section .debug_info:

00000000 <.debug_info>:
       0:	00000445 	andeq	r0, r0, r5, asr #8
       4:	00000004 	andeq	r0, r0, r4
       8:	01040000 	mrseq	r0, (UNDEF: 4)
       c:	0000008f 	andeq	r0, r0, pc, lsl #1
      10:	0000000c 	andeq	r0, r0, ip
      14:	0001b500 	andeq	fp, r1, r0, lsl #10
      18:	00803800 	addeq	r3, r0, r0, lsl #16
      1c:	00018c00 	andeq	r8, r1, r0, lsl #24
      20:	00000000 	andeq	r0, r0, r0
      24:	07080200 	streq	r0, [r8, -r0, lsl #4]
      28:	00000178 	andeq	r0, r0, r8, ror r1
      2c:	82070402 	andhi	r0, r7, #33554432	; 0x2000000
      30:	03000001 	movweq	r0, #1
      34:	6e690504 	cdpvs	5, 6, cr0, cr9, cr4, {0}
      38:	01020074 	tsteq	r2, r4, ror r0
      3c:	00008306 	andeq	r8, r0, r6, lsl #6
      40:	05020200 	streq	r0, [r2, #-512]	; 0xfffffe00
      44:	0000001d 	andeq	r0, r0, sp, lsl r0
      48:	51050402 	tstpl	r5, r2, lsl #8
      4c:	02000000 	andeq	r0, r0, #0, 0
      50:	004c0508 	subeq	r0, ip, r8, lsl #10
      54:	01020000 	mrseq	r0, (UNDEF: 2)
      58:	00008108 	andeq	r8, r0, r8, lsl #2
      5c:	07020200 	streq	r0, [r2, -r0, lsl #4]
      60:	00000197 	muleq	r0, r7, r1
      64:	7d070402 	cfstrsvc	mvf0, [r7, #-8]
      68:	04000001 	streq	r0, [r0], #-1
      6c:	00000033 	andeq	r0, r0, r3, lsr r0
      70:	0000007a 	andeq	r0, r0, sl, ror r0
      74:	00003305 	andeq	r3, r0, r5, lsl #6
      78:	27060000 	strcs	r0, [r6, -r0]
      7c:	03000000 	movweq	r0, #0
      80:	00860e1c 	addeq	r0, r6, ip, lsl lr
      84:	04070000 	streq	r0, [r7], #-0
      88:	0000006b 	andeq	r0, r0, fp, rrx
      8c:	00003304 	andeq	r3, r0, r4, lsl #6
      90:	00009b00 	andeq	r9, r0, r0, lsl #22
      94:	009b0500 	addseq	r0, fp, r0, lsl #10
      98:	07000000 	streq	r0, [r0, -r0]
      9c:	0000a804 	andeq	sl, r0, r4, lsl #16
      a0:	08010200 	stmdaeq	r1, {r9}
      a4:	0000008a 	andeq	r0, r0, sl, lsl #1
      a8:	0000a108 	andeq	sl, r0, r8, lsl #2
      ac:	06c60600 	strbeq	r0, [r6], r0, lsl #12
      b0:	21030000 	mrscs	r0, (UNDEF: 3)
      b4:	0000b90e 	andeq	fp, r0, lr, lsl #18
      b8:	8c040700 	stchi	7, cr0, [r4], {-0}
      bc:	09000000 	stmdbeq	r0, {}	; <UNPREDICTABLE>
      c0:	0905020c 	stmdbeq	r5, {r2, r3, r9}
      c4:	000000f0 	strdeq	r0, [r0], -r0	; <UNPREDICTABLE>
      c8:	00003b0a 	andeq	r3, r0, sl, lsl #22
      cc:	11070200 	mrsne	r0, (UNDEF: 39)
      d0:	0000009b 	muleq	r0, fp, r0
      d4:	00470a00 	subeq	r0, r7, r0, lsl #20
      d8:	08020000 	stmdaeq	r2, {}	; <UNPREDICTABLE>
      dc:	00009b11 	andeq	r9, r0, r1, lsl fp
      e0:	710a0400 	tstvc	sl, r0, lsl #8
      e4:	02000001 	andeq	r0, r0, #1, 0
      e8:	002c0e09 	eoreq	r0, ip, r9, lsl #28
      ec:	00080000 	andeq	r0, r8, r0
      f0:	0002030b 	andeq	r0, r2, fp, lsl #6
      f4:	030a0200 	movweq	r0, #41472	; 0xa200
      f8:	000000bf 	strheq	r0, [r0], -pc	; <UNPREDICTABLE>
      fc:	7406040c 	strvc	r0, [r6], #-1036	; 0xfffffbf4
     100:	04000000 	streq	r0, [r0], #-0
     104:	002c11a8 	eoreq	r1, ip, r8, lsr #3
     108:	8f0d0000 	svchi	0x000d0000
     10c:	01000001 	tsteq	r0, r1
     110:	80440605 	subhi	r0, r4, r5, lsl #12
     114:	01800000 	orreq	r0, r0, r0
     118:	9c010000 	stcls	0, cr0, [r1], {-0}
     11c:	00000383 	andeq	r0, r0, r3, lsl #7
     120:	5601070e 	strpl	r0, [r1], -lr, lsl #14
     124:	01000000 	mrseq	r0, (UNDEF: 0)
     128:	01330a08 	teqeq	r3, r8, lsl #20
     12c:	4e0f0000 	cdpmi	0, 0, cr0, cr15, cr0, {0}
     130:	10000600 	andne	r0, r0, r0, lsl #12
     134:	09010070 	stmdbeq	r1, {r4, r5, r6}
     138:	0003830b 	andeq	r8, r3, fp, lsl #6
     13c:	b8910300 	ldmlt	r1, {r8, r9}
     140:	7a73107f 	bvc	1cc4344 <__bss_end__+0x1cb8e74>
     144:	0e0a0100 	adfeqe	f0, f2, f0
     148:	00000393 	muleq	r0, r3, r3
     14c:	7fa09103 	svcvc	0x00a09103
     150:	00005a11 	andeq	r5, r0, r1, lsl sl
     154:	0003b300 	andeq	fp, r3, r0, lsl #6
     158:	20030500 	andcs	r0, r3, r0, lsl #10
     15c:	120000a8 	andne	r0, r0, #168, 0	; 0xa8
     160:	19010069 	stmdbne	r1, {r0, r3, r5, r6}
     164:	00003309 	andeq	r3, r0, r9, lsl #6
     168:	00000400 	andeq	r0, r0, r0, lsl #8
     16c:	00000000 	andeq	r0, r0, r0
     170:	00781200 	rsbseq	r1, r8, r0, lsl #4
     174:	b80b1a01 	stmdalt	fp, {r0, r9, fp, ip}
     178:	4a000003 	bmi	18c <__code_start__-0x7e74>
     17c:	46000000 	strmi	r0, [r0], -r0
     180:	12000000 	andne	r0, r0, #0, 0
     184:	0066666f 	rsbeq	r6, r6, pc, ror #12
     188:	2c0e1b01 			; <UNDEFINED> instruction: 0x2c0e1b01
     18c:	6a000000 	bvs	194 <__code_start__-0x7e6c>
     190:	68000000 	stmdavs	r0, {}	; <UNPREDICTABLE>
     194:	13000000 	movwne	r0, #0
     198:	0000805c 	andeq	r8, r0, ip, asr r0
     19c:	00000054 	andeq	r0, r0, r4, asr r0
     1a0:	00000213 	andeq	r0, r0, r3, lsl r2
     1a4:	01006912 	tsteq	r0, r2, lsl r9
     1a8:	00330d0c 	eorseq	r0, r3, ip, lsl #26
     1ac:	00810000 	addeq	r0, r1, r0
     1b0:	007d0000 	rsbseq	r0, sp, r0
     1b4:	be140000 	cdplt	0, 1, cr0, cr4, cr0, {0}
     1b8:	80000003 	andhi	r0, r0, r3
     1bc:	01000080 	smlabbeq	r0, r0, r0, r0
     1c0:	00008080 	andeq	r8, r0, r0, lsl #1
     1c4:	00000018 	andeq	r0, r0, r8, lsl r0
     1c8:	f7100e01 			; <UNDEFINED> instruction: 0xf7100e01
     1cc:	15000001 	strne	r0, [r0, #-1]
     1d0:	000003e7 	andeq	r0, r0, r7, ror #7
     1d4:	000000a2 	andeq	r0, r0, r2, lsr #1
     1d8:	000000a0 	andeq	r0, r0, r0, lsr #1
     1dc:	0003db15 	andeq	sp, r3, r5, lsl fp
     1e0:	0000b800 	andeq	fp, r0, r0, lsl #16
     1e4:	0000b600 	andeq	fp, r0, r0, lsl #12
     1e8:	03cf1500 	biceq	r1, pc, #0, 10
     1ec:	00d20000 	sbcseq	r0, r2, r0
     1f0:	00d00000 	sbcseq	r0, r0, r0
     1f4:	16000000 	strne	r0, [r0], -r0
     1f8:	0000806c 	andeq	r8, r0, ip, rrx
     1fc:	00000400 	andeq	r0, r0, r0, lsl #8
     200:	0080a417 	addeq	sl, r0, r7, lsl r4
     204:	00040c00 	andeq	r0, r4, r0, lsl #24
     208:	50011800 	andpl	r1, r1, r0, lsl #16
     20c:	7fb87504 	svcvc	0x00b87504
     210:	13000006 	movwne	r0, #6
     214:	000080b0 	strheq	r8, [r0], -r0
     218:	00000044 	andeq	r0, r0, r4, asr #32
     21c:	0000028d 	andeq	r0, r0, sp, lsl #5
     220:	01006912 	tsteq	r0, r2, lsl r9
     224:	00330d11 	eorseq	r0, r3, r1, lsl sp
     228:	00ee0000 	rsceq	r0, lr, r0
     22c:	00ea0000 	rsceq	r0, sl, r0
     230:	be140000 	cdplt	0, 1, cr0, cr4, cr0, {0}
     234:	c4000003 	strgt	r0, [r0], #-3
     238:	00000080 	andeq	r0, r0, r0, lsl #1
     23c:	000080c4 	andeq	r8, r0, r4, asr #1
     240:	00000018 	andeq	r0, r0, r8, lsl r0
     244:	73091201 	movwvc	r1, #37377	; 0x9201
     248:	15000002 	strne	r0, [r0, #-2]
     24c:	000003e7 	andeq	r0, r0, r7, ror #7
     250:	0000010e 	andeq	r0, r0, lr, lsl #2
     254:	0000010c 	andeq	r0, r0, ip, lsl #2
     258:	0003db15 	andeq	sp, r3, r5, lsl fp
     25c:	00012400 	andeq	r2, r1, r0, lsl #8
     260:	00012200 	andeq	r2, r1, r0, lsl #4
     264:	03cf1500 	biceq	r1, pc, #0, 10
     268:	013e0000 	teqeq	lr, r0
     26c:	013c0000 	teqeq	ip, r0
     270:	17000000 	strne	r0, [r0, -r0]
     274:	000080ec 	andeq	r8, r0, ip, ror #1
     278:	00000418 	andeq	r0, r0, r8, lsl r4
     27c:	0b500118 	bleq	14006e4 <__bss_end__+0x13f5214>
     280:	24320074 	ldrtcs	r0, [r2], #-116	; 0xffffff8c
     284:	0822007b 	stmdaeq	r2!, {r0, r1, r3, r4, r5, r6}
     288:	00061c44 	andeq	r1, r6, r4, asr #24
     28c:	805c1900 	subshi	r1, ip, r0, lsl #18
     290:	04240000 	strteq	r0, [r4], #-0
     294:	02a40000 	adceq	r0, r4, #0, 0
     298:	01180000 	tsteq	r8, r0
     29c:	40030550 	andmi	r0, r3, r0, asr r5
     2a0:	000000a7 	andeq	r0, r0, r7, lsr #1
     2a4:	0080f816 	addeq	pc, r0, r6, lsl r8	; <UNPREDICTABLE>
     2a8:	00043000 	andeq	r3, r4, r0
     2ac:	81081900 	tsthi	r8, r0, lsl #18
     2b0:	04240000 	strteq	r0, [r4], #-0
     2b4:	02c40000 	sbceq	r0, r4, #0, 0
     2b8:	01180000 	tsteq	r8, r0
     2bc:	9c030550 	cfstr32ls	mvfx0, [r3], {80}	; 0x50
     2c0:	000000a7 	andeq	r0, r0, r7, lsr #1
     2c4:	00810c16 	addeq	r0, r1, r6, lsl ip
     2c8:	00040000 	andeq	r0, r4, r0
     2cc:	81341600 	teqhi	r4, r0, lsl #12
     2d0:	04000000 	streq	r0, [r0], #-0
     2d4:	54190000 	ldrpl	r0, [r9], #-0
     2d8:	24000081 	strcs	r0, [r0], #-129	; 0xffffff7f
     2dc:	f3000004 	vhadd.u8	d0, d0, d4
     2e0:	18000002 	stmdane	r0, {r1}
     2e4:	03055001 	movweq	r5, #20481	; 0x5001
     2e8:	0000a7bc 			; <UNDEFINED> instruction: 0x0000a7bc
     2ec:	02510118 	subseq	r0, r1, #6
     2f0:	16000075 			; <UNDEFINED> instruction: 0x16000075
     2f4:	00008158 	andeq	r8, r0, r8, asr r1
     2f8:	00000430 	andeq	r0, r0, r0, lsr r4
     2fc:	00816819 	addeq	r6, r1, r9, lsl r8
     300:	00042400 	andeq	r2, r4, r0, lsl #8
     304:	00031300 	andeq	r1, r3, r0, lsl #6
     308:	50011800 	andpl	r1, r1, r0, lsl #16
     30c:	a8040305 	stmdage	r4, {r0, r2, r8, r9}
     310:	19000000 	stmdbne	r0, {}	; <UNPREDICTABLE>
     314:	00008184 	andeq	r8, r0, r4, lsl #3
     318:	00000424 	andeq	r0, r0, r4, lsr #8
     31c:	00000341 	andeq	r0, r0, r1, asr #6
     320:	05500118 	ldrbeq	r0, [r0, #-280]	; 0xfffffee8
     324:	00a77803 	adceq	r7, r7, r3, lsl #16
     328:	51011800 	tstpl	r1, r0, lsl #16
     32c:	a7580305 	ldrbge	r0, [r8, -r5, lsl #6]
     330:	01180000 	tsteq	r8, r0
     334:	20030552 	andcs	r0, r3, r2, asr r5
     338:	180000a8 	stmdane	r0, {r3, r5, r7}
     33c:	45015301 	strmi	r5, [r1, #-769]	; 0xfffffcff
     340:	81881600 	orrhi	r1, r8, r0, lsl #12
     344:	043c0000 	ldrteq	r0, [ip], #-0
     348:	9c190000 	ldcls	0, cr0, [r9], {-0}
     34c:	24000081 	strcs	r0, [r0], #-129	; 0xffffff7f
     350:	79000004 	stmdbvc	r0, {r2}
     354:	18000003 	stmdane	r0, {r0, r1}
     358:	03055001 	movweq	r5, #20481	; 0x5001
     35c:	0000a7e4 	andeq	sl, r0, r4, ror #15
     360:	05510118 	ldrbeq	r0, [r1, #-280]	; 0xfffffee8
     364:	00a75803 	adceq	r5, r7, r3, lsl #16
     368:	52011800 	andpl	r1, r1, #0, 16
     36c:	a8200305 	stmdage	r0!, {r0, r2, r8, r9}
     370:	01180000 	tsteq	r8, r0
     374:	20080253 	andcs	r0, r8, r3, asr r2
     378:	81a01600 	lslhi	r1, r0, #12
     37c:	043c0000 	ldrteq	r0, [ip], #-0
     380:	1a000000 	bne	388 <__code_start__-0x7c78>
     384:	000000fc 	strdeq	r0, [r0], -ip
     388:	00000393 	muleq	r0, r3, r3
     38c:	00002c1b 	andeq	r2, r0, fp, lsl ip
     390:	1a000500 	bne	1798 <__code_start__-0x6868>
     394:	0000002c 	andeq	r0, r0, ip, lsr #32
     398:	000003a3 	andeq	r0, r0, r3, lsr #7
     39c:	00002c1b 	andeq	r2, r0, fp, lsl ip
     3a0:	1a000500 	bne	17a8 <__code_start__-0x6858>
     3a4:	000000a8 	andeq	r0, r0, r8, lsr #1
     3a8:	000003b3 			; <UNDEFINED> instruction: 0x000003b3
     3ac:	00002c1b 	andeq	r2, r0, fp, lsl ip
     3b0:	08000700 	stmdaeq	r0, {r8, r9, sl}
     3b4:	000003a3 	andeq	r0, r0, r3, lsr #7
     3b8:	00a10407 	adceq	r0, r1, r7, lsl #8
     3bc:	f81c0000 			; <UNDEFINED> instruction: 0xf81c0000
     3c0:	02000001 	andeq	r0, r0, #1, 0
     3c4:	00f00b0d 	rscseq	r0, r0, sp, lsl #22
     3c8:	f4030000 	vst4.8	{d0-d3}, [r3], r0
     3cc:	1d000003 	stcne	0, cr0, [r0, #-12]
     3d0:	0000003b 	andeq	r0, r0, fp, lsr r0
     3d4:	9b220d02 	blls	8837e4 <__bss_end__+0x878314>
     3d8:	1d000000 	stcne	0, cr0, [r0, #-0]
     3dc:	00000047 	andeq	r0, r0, r7, asr #32
     3e0:	9b340d02 	blls	d037f0 <__bss_end__+0xcf8320>
     3e4:	1d000000 	stcne	0, cr0, [r0, #-0]
     3e8:	00000171 	andeq	r0, r0, r1, ror r1
     3ec:	2c430d02 	mcrrcs	13, 0, r0, r3, cr2
     3f0:	00000000 	andeq	r0, r0, r0
     3f4:	089e0a1e 	ldmeq	lr, {r1, r2, r3, r4, r9, fp}
     3f8:	6d746f6e 	ldclvs	15, cr6, [r4, #-440]!	; 0xfffffe48
     3fc:	006e6961 	rsbeq	r6, lr, r1, ror #18
     400:	0001aa1f 	andeq	sl, r1, pc, lsl sl
     404:	0001aa00 	andeq	sl, r1, r0, lsl #20
     408:	0f310300 	svceq	0x00310300
     40c:	0000331f 	andeq	r3, r0, pc, lsl r3
     410:	00003300 	andeq	r3, r0, r0, lsl #6
     414:	084c0400 	stmdaeq	ip, {sl}^
     418:	0000401f 	andeq	r4, r0, pc, lsl r0
     41c:	00004000 	andeq	r4, r0, r0
     420:	074d0400 	strbeq	r0, [sp, -r0, lsl #8]
     424:	0006881f 	andeq	r8, r6, pc, lsl r8
     428:	00068800 	andeq	r8, r6, r0, lsl #16
     42c:	06280300 	strteq	r0, [r8], -r0, lsl #6
     430:	0001e91f 	andeq	lr, r1, pc, lsl r9
     434:	0001e900 	andeq	lr, r1, r0, lsl #18
     438:	05580400 	ldrbeq	r0, [r8, #-1024]	; 0xfffffc00
     43c:	0000671f 	andeq	r6, r0, pc, lsl r7
     440:	00006700 	andeq	r6, r0, r0, lsl #14
     444:	066e0300 	strbteq	r0, [lr], -r0, lsl #6
     448:	00085200 	andeq	r5, r8, r0, lsl #4
     44c:	ad000400 	cfstrsge	mvf0, [r0, #-0]
     450:	04000001 	streq	r0, [r0], #-1
     454:	00008f01 	andeq	r8, r0, r1, lsl #30
     458:	03220c00 			; <UNDEFINED> instruction: 0x03220c00
     45c:	01b50000 			; <UNDEFINED> instruction: 0x01b50000
     460:	81c40000 	bichi	r0, r4, r0
     464:	04340000 	ldrteq	r0, [r4], #-0
     468:	01e50000 	mvneq	r0, r0
     46c:	04020000 	streq	r0, [r2], #-0
     470:	746e6905 	strbtvc	r6, [lr], #-2309	; 0xfffff6fb
     474:	07040300 	streq	r0, [r4, -r0, lsl #6]
     478:	00000182 	andeq	r0, r0, r2, lsl #3
     47c:	83060103 	movwhi	r0, #24835	; 0x6103
     480:	03000000 	movweq	r0, #0
     484:	001d0502 	andseq	r0, sp, r2, lsl #10
     488:	04030000 	streq	r0, [r3], #-0
     48c:	00005105 	andeq	r5, r0, r5, lsl #2
     490:	05080300 	streq	r0, [r8, #-768]	; 0xfffffd00
     494:	0000004c 	andeq	r0, r0, ip, asr #32
     498:	00027504 	andeq	r7, r2, r4, lsl #10
     49c:	182e0300 	stmdane	lr!, {r8, r9}
     4a0:	0000005b 	andeq	r0, r0, fp, asr r0
     4a4:	81080103 	tsthi	r8, r3, lsl #2
     4a8:	04000000 	streq	r0, [r0], #-0
     4ac:	000002ee 	andeq	r0, r0, lr, ror #5
     4b0:	6e193103 	mufvse	f3, f1, f3
     4b4:	03000000 	movweq	r0, #0
     4b8:	01970702 	orrseq	r0, r7, r2, lsl #14
     4bc:	e5040000 	str	r0, [r4, #-0]
     4c0:	03000002 	movweq	r0, #2
     4c4:	00811934 	addeq	r1, r1, r4, lsr r9
     4c8:	04030000 	streq	r0, [r3], #-0
     4cc:	00017d07 	andeq	r7, r1, r7, lsl #26
     4d0:	07080300 	streq	r0, [r8, -r0, lsl #6]
     4d4:	00000178 	andeq	r0, r0, r8, ror r1
     4d8:	00002505 	andeq	r2, r0, r5, lsl #10
     4dc:	00009e00 	andeq	r9, r0, r0, lsl #28
     4e0:	00250600 	eoreq	r0, r5, r0, lsl #12
     4e4:	07000000 	streq	r0, [r0, -r0]
     4e8:	00000027 	andeq	r0, r0, r7, lsr #32
     4ec:	aa0e1c04 	bge	387504 <__bss_end__+0x37c034>
     4f0:	08000000 	stmdaeq	r0, {}	; <UNPREDICTABLE>
     4f4:	00008f04 	andeq	r8, r0, r4, lsl #30
     4f8:	00250500 	eoreq	r0, r5, r0, lsl #10
     4fc:	00bf0000 	adcseq	r0, pc, r0
     500:	bf060000 	svclt	0x00060000
     504:	00000000 	andeq	r0, r0, r0
     508:	00cc0408 	sbceq	r0, ip, r8, lsl #8
     50c:	01030000 	mrseq	r0, (UNDEF: 3)
     510:	00008a08 	andeq	r8, r0, r8, lsl #20
     514:	00c50900 	sbceq	r0, r5, r0, lsl #18
     518:	c6070000 	strgt	r0, [r7], -r0
     51c:	04000006 	streq	r0, [r0], #-6
     520:	00dd0e21 	sbcseq	r0, sp, r1, lsr #28
     524:	04080000 	streq	r0, [r8], #-0
     528:	000000b0 	strheq	r0, [r0], -r0	; <UNPREDICTABLE>
     52c:	05050c0a 	streq	r0, [r5, #-3082]	; 0xfffff3f6
     530:	00011409 	andeq	r1, r1, r9, lsl #8
     534:	003b0b00 	eorseq	r0, fp, r0, lsl #22
     538:	07050000 	streq	r0, [r5, -r0]
     53c:	0000bf11 	andeq	fp, r0, r1, lsl pc
     540:	470b0000 	strmi	r0, [fp, -r0]
     544:	05000000 	streq	r0, [r0, #-0]
     548:	00bf1108 	adcseq	r1, pc, r8, lsl #2
     54c:	0b040000 	bleq	100554 <__bss_end__+0xf5084>
     550:	00000171 	andeq	r0, r0, r1, ror r1
     554:	2c0e0905 			; <UNDEFINED> instruction: 0x2c0e0905
     558:	08000000 	stmdaeq	r0, {}	; <UNPREDICTABLE>
     55c:	02030400 	andeq	r0, r3, #0, 8
     560:	0a050000 	beq	140568 <__bss_end__+0x135098>
     564:	0000e303 	andeq	lr, r0, r3, lsl #6
     568:	01070c00 	tsteq	r7, r0, lsl #24
     56c:	0000005b 	andeq	r0, r0, fp, asr r0
     570:	3b0e0902 	blcc	382980 <__bss_end__+0x3774b0>
     574:	0d000001 	stceq	0, cr0, [r0, #-4]
     578:	00000338 	andeq	r0, r0, r8, lsr r3
     57c:	022c0d0b 	eoreq	r0, ip, #704	; 0x2c0
     580:	000c0000 	andeq	r0, ip, r0
     584:	5b01070c 	blpl	421bc <__bss_end__+0x36cec>
     588:	02000000 	andeq	r0, r0, #0, 0
     58c:	0156060a 	cmpeq	r6, sl, lsl #12
     590:	590d0000 	stmdbpl	sp, {}	; <UNPREDICTABLE>
     594:	80000002 	andhi	r0, r0, r2
     598:	00024d0d 	andeq	r4, r2, sp, lsl #26
     59c:	0e00fe00 	cdpeq	14, 0, cr15, cr0, cr0, {0}
     5a0:	0000029a 	muleq	r0, sl, r2
     5a4:	100d02b4 			; <UNDEFINED> instruction: 0x100d02b4
     5a8:	000001e6 	andeq	r0, r0, r6, ror #3
     5ac:	00037e0b 	andeq	r7, r3, fp, lsl #28
     5b0:	140e0200 	strne	r0, [lr], #-512	; 0xfffffe00
     5b4:	000001e6 	andeq	r0, r0, r6, ror #3
     5b8:	02320b00 	eorseq	r0, r2, #0, 22
     5bc:	0f020000 	svceq	0x00020000
     5c0:	0000750e 	andeq	r7, r0, lr, lsl #10
     5c4:	bb0b0400 	bllt	2c15cc <__bss_end__+0x2b60fc>
     5c8:	02000002 	andeq	r0, r0, #2, 0
     5cc:	00750e10 	rsbseq	r0, r5, r0, lsl lr
     5d0:	0b080000 	bleq	2005d8 <__bss_end__+0x1f5108>
     5d4:	00000223 	andeq	r0, r0, r3, lsr #4
     5d8:	750e1402 	strvc	r1, [lr, #-1026]	; 0xfffffbfe
     5dc:	0c000000 	stceq	0, cr0, [r0], {-0}
     5e0:	0002b10b 	andeq	fp, r2, fp, lsl #2
     5e4:	0f160200 	svceq	0x00160200
     5e8:	00000114 	andeq	r0, r0, r4, lsl r1
     5ec:	03610b10 	cmneq	r1, #16, 22	; 0x4000
     5f0:	17020000 	strne	r0, [r2, -r0]
     5f4:	0001140f 	andeq	r1, r1, pc, lsl #8
     5f8:	cb0b1c00 	blgt	2c7600 <__bss_end__+0x2bc130>
     5fc:	02000002 	andeq	r0, r0, #2, 0
     600:	00750e1a 	rsbseq	r0, r5, sl, lsl lr
     604:	0b280000 	bleq	a0060c <__bss_end__+0x9f513c>
     608:	0000032c 	andeq	r0, r0, ip, lsr #6
     60c:	750e1b02 	strvc	r1, [lr, #-2818]	; 0xfffff4fe
     610:	2c000000 	stccs	0, cr0, [r0], {-0}
     614:	00042d0b 	andeq	r2, r4, fp, lsl #26
     618:	0e1d0200 	cdpeq	2, 1, cr0, cr13, cr0, {0}
     61c:	00000062 	andeq	r0, r0, r2, rrx
     620:	7a720f30 	bvc	1c842e8 <__bss_end__+0x1c78e18>
     624:	1f020031 	svcne	0x00020031
     628:	0001ec0d 	andeq	lr, r1, sp, lsl #24
     62c:	08003200 	stmdaeq	r0, {r9, ip, sp}
     630:	00015604 	andeq	r5, r1, r4, lsl #12
     634:	004f1000 	subeq	r1, pc, r0
     638:	01fc0000 	mvnseq	r0, r0
     63c:	2c110000 	ldccs	0, cr0, [r1], {-0}
     640:	7f000000 	svcvc	0x00000000
     644:	021d0400 	andseq	r0, sp, #0, 8
     648:	20020000 	andcs	r0, r2, r0
     64c:	00015603 	andeq	r5, r1, r3, lsl #12
     650:	07041200 	streq	r1, [r4, -r0, lsl #4]
     654:	00000074 	andeq	r0, r0, r4, ror r0
     658:	2c11a802 	ldccs	8, cr10, [r1], {2}
     65c:	13000000 	movwne	r0, #0
     660:	00000288 	andeq	r0, r0, r8, lsl #5
     664:	280f0801 	stmdacs	pc, {r0, fp}	; <UNPREDICTABLE>
     668:	05000002 	streq	r0, [r0, #-2]
     66c:	00b0a003 	adcseq	sl, r0, r3
     670:	fc040800 	stc2	8, cr0, [r4], {-0}
     674:	07000001 	streq	r0, [r0, -r1]
     678:	000002d6 	ldrdeq	r0, [r0], -r6
     67c:	c50d0a01 	strgt	r0, [sp, #-2561]	; 0xfffff5ff
     680:	14000000 	strne	r0, [r0], #-0
     684:	00000309 	andeq	r0, r0, r9, lsl #6
     688:	46120b01 	ldrmi	r0, [r2], -r1, lsl #22
     68c:	08000002 	stmdaeq	r0, {r1}
     690:	00002c04 	andeq	r2, r0, r4, lsl #24
     694:	00331500 	eorseq	r1, r3, r0, lsl #10
     698:	88010000 	stmdahi	r1, {}	; <UNPREDICTABLE>
     69c:	00020808 	andeq	r0, r2, r8, lsl #16
     6a0:	00850800 	addeq	r0, r5, r0, lsl #16
     6a4:	0000f000 	andeq	pc, r0, r0
     6a8:	ad9c0100 	ldfges	f0, [ip]
     6ac:	16000003 	strne	r0, [r0], -r3
     6b0:	0000036d 	andeq	r0, r0, sp, ror #6
     6b4:	751a8801 	ldrvc	r8, [sl, #-2049]	; 0xfffff7ff
     6b8:	5c000000 	stcpl	0, cr0, [r0], {-0}
     6bc:	56000001 	strpl	r0, [r0], -r1
     6c0:	17000001 	strne	r0, [r0, -r1]
     6c4:	8801006c 	stmdahi	r1, {r2, r3, r5, r6}
     6c8:	0001142c 	andeq	r1, r1, ip, lsr #8
     6cc:	54910200 	ldrpl	r0, [r1], #512	; 0x200
     6d0:	01006818 	tsteq	r0, r8, lsl r8
     6d4:	02280c8a 	eoreq	r0, r8, #35328	; 0x8a00
     6d8:	018e0000 	orreq	r0, lr, r0
     6dc:	01880000 	orreq	r0, r8, r0
     6e0:	3f140000 	svccc	0x00140000
     6e4:	01000002 	tsteq	r0, r2
     6e8:	002c0e9b 	mlaeq	ip, fp, lr, r0
     6ec:	7d190000 	ldcvc	0, cr0, [r9, #-0]
     6f0:	01000002 	tsteq	r0, r2
     6f4:	02460f9c 	subeq	r0, r6, #156, 30	; 0x270
     6f8:	01be0000 			; <UNDEFINED> instruction: 0x01be0000
     6fc:	01ba0000 			; <UNDEFINED> instruction: 0x01ba0000
     700:	3c1a0000 	ldccc	0, cr0, [sl], {-0}
     704:	2c000085 	stccs	0, cr0, [r0], {133}	; 0x85
     708:	d9000000 	stmdble	r0, {}	; <UNPREDICTABLE>
     70c:	18000002 	stmdane	r0, {r1}
     710:	90010069 	andls	r0, r1, r9, rrx
     714:	0000250d 	andeq	r2, r0, sp, lsl #10
     718:	0001e000 	andeq	lr, r1, r0
     71c:	0001dc00 	andeq	sp, r1, r0, lsl #24
     720:	ac1a0000 	ldcge	0, cr0, [sl], {-0}
     724:	24000085 	strcs	r0, [r0], #-133	; 0xffffff7b
     728:	2d000000 	stccs	0, cr0, [r0, #-0]
     72c:	18000003 	stmdane	r0, {r0, r1}
     730:	9d010069 	stcls	0, cr0, [r1, #-420]	; 0xfffffe5c
     734:	0000250d 	andeq	r2, r0, sp, lsl #10
     738:	00020300 	andeq	r0, r2, r0, lsl #6
     73c:	0001ff00 	andeq	pc, r1, r0, lsl #30
     740:	85b81b00 	ldrhi	r1, [r8, #2816]!	; 0xb00
     744:	00100000 	andseq	r0, r0, r0
     748:	6c180000 	ldcvs	0, cr0, [r8], {-0}
     74c:	0100636f 	tsteq	r0, pc, ror #6
     750:	03ad119e 			; <UNDEFINED> instruction: 0x03ad119e
     754:	02240000 	eoreq	r0, r4, #0, 0
     758:	02220000 	eoreq	r0, r2, #0, 0
     75c:	c41c0000 	ldrgt	r0, [ip], #-0
     760:	b3000085 	movwlt	r0, #133	; 0x85
     764:	1d000003 	stcne	0, cr0, [r0, #-12]
     768:	74085001 	strvc	r5, [r8], #-1
     76c:	22007600 	andcs	r7, r0, #0, 12
     770:	0001b423 	andeq	fp, r1, r3, lsr #8
     774:	2c1e0000 	ldccs	0, cr0, [lr], {-0}
     778:	19000085 	stmdbne	r0, {r0, r2, r7}
     77c:	42000008 	andmi	r0, r0, #8, 0
     780:	1d000003 	stcne	0, cr0, [r0, #-12]
     784:	75035001 	strvc	r5, [r3, #-1]
     788:	1e0002b4 	mcrne	2, 0, r0, cr0, cr4, {5}
     78c:	0000853c 	andeq	r8, r0, ip, lsr r5
     790:	00000825 	andeq	r0, r0, r5, lsr #16
     794:	00000361 	andeq	r0, r0, r1, ror #6
     798:	0250011d 	subseq	r0, r0, #1073741831	; 0x40000007
     79c:	011d0074 	tsteq	sp, r4, ror r0
     7a0:	1d300151 	ldfnes	f0, [r0, #-324]!	; 0xfffffebc
     7a4:	08025201 	stmdaeq	r2, {r0, r9, ip, lr}
     7a8:	981e00b4 	ldmdals	lr, {r2, r4, r5, r7}
     7ac:	31000085 	smlabbcc	r0, r5, r0, r0
     7b0:	8d000008 	stchi	0, cr0, [r0, #-32]	; 0xffffffe0
     7b4:	1d000003 	stcne	0, cr0, [r0, #-12]
     7b8:	03055001 	movweq	r5, #20481	; 0x5001
     7bc:	0000a828 	andeq	sl, r0, r8, lsr #16
     7c0:	0351011d 	cmpeq	r1, #1073741831	; 0x40000007
     7c4:	1d06587b 	stcne	8, cr5, [r6, #-492]	; 0xfffffe14
     7c8:	7b035201 	blvc	d4fd4 <__bss_end__+0xc9b04>
     7cc:	011d065c 	tsteq	sp, ip, asr r6
     7d0:	607b0353 	rsbsvs	r0, fp, r3, asr r3
     7d4:	ac1c0006 	ldcge	0, cr0, [ip], {6}
     7d8:	31000085 	smlabbcc	r0, r5, r0, r0
     7dc:	1d000008 	stcne	0, cr0, [r0, #-32]	; 0xffffffe0
     7e0:	03055001 	movweq	r5, #20481	; 0x5001
     7e4:	0000a8f4 	strdeq	sl, [r0], -r4
     7e8:	0251011d 	subseq	r0, r1, #1073741831	; 0x40000007
     7ec:	011d0077 	tsteq	sp, r7, ror r0
     7f0:	00750252 	rsbseq	r0, r5, r2, asr r2
     7f4:	04080000 	streq	r0, [r8], #-0
     7f8:	00000228 	andeq	r0, r0, r8, lsr #4
     7fc:	0002a115 	andeq	sl, r2, r5, lsl r1
     800:	097d0100 	ldmdbeq	sp!, {r8}^
     804:	000003ad 	andeq	r0, r0, sp, lsr #7
     808:	000082d8 	ldrdeq	r8, [r0], -r8	; <UNPREDICTABLE>
     80c:	00000044 	andeq	r0, r0, r4, asr #32
     810:	03f69c01 	mvnseq	r9, #256	; 0x100
     814:	4d160000 	ldcmi	0, cr0, [r6, #-0]
     818:	01000003 	tsteq	r0, r3
     81c:	03f61f7d 	mvnseq	r1, #500	; 0x1f4
     820:	02430000 	subeq	r0, r3, #0, 0
     824:	02370000 	eorseq	r0, r7, #0, 0
     828:	3f190000 	svccc	0x00190000
     82c:	01000002 	tsteq	r0, r2
     830:	002c0e81 	eoreq	r0, ip, r1, lsl #29
     834:	02980000 	addseq	r0, r8, #0, 0
     838:	02960000 	addseq	r0, r6, #0, 0
     83c:	08000000 	stmdaeq	r0, {}	; <UNPREDICTABLE>
     840:	0000c504 	andeq	ip, r0, r4, lsl #10
     844:	00401f00 	subeq	r1, r0, r0, lsl #30
     848:	5d010000 	stcpl	0, cr0, [r1, #-0]
     84c:	00836006 	addeq	r6, r3, r6
     850:	00019c00 	andeq	r9, r1, r0, lsl #24
     854:	239c0100 	orrscs	r0, ip, #0
     858:	16000006 	strne	r0, [r0], -r6
     85c:	00000621 	andeq	r0, r0, r1, lsr #12
     860:	08145d01 	ldmdaeq	r4, {r0, r8, sl, fp, ip, lr}
     864:	b2000002 	andlt	r0, r0, #2, 0
     868:	ae000002 	cdpge	0, 0, cr0, cr0, cr2, {0}
     86c:	17000002 	strne	r0, [r0, -r2]
     870:	5d01006c 	stcpl	0, cr0, [r1, #-432]	; 0xfffffe50
     874:	00011424 	andeq	r1, r1, r4, lsr #8
     878:	54910200 	ldrpl	r0, [r1], #512	; 0x200
     87c:	01006818 	tsteq	r0, r8, lsl r8
     880:	02280c5f 	eoreq	r0, r8, #24320	; 0x5f00
     884:	02d40000 	sbcseq	r0, r4, #0, 0
     888:	02d00000 	sbcseq	r0, r0, #0, 0
     88c:	5a200000 	bpl	800894 <__bss_end__+0x7f53c4>
     890:	33000000 	movwcc	r0, #0
     894:	05000006 	streq	r0, [r0, #-6]
     898:	00a91003 	adceq	r1, r9, r3
     89c:	00002100 	andeq	r2, r0, r0, lsl #2
     8a0:	05140000 	ldreq	r0, [r4, #-0]
     8a4:	69180000 	ldmdbvs	r8, {}	; <UNPREDICTABLE>
     8a8:	0d670100 	stfeqe	f0, [r7, #-0]
     8ac:	00000025 	andeq	r0, r0, r5, lsr #32
     8b0:	000002fd 	strdeq	r0, [r0], -sp
     8b4:	000002f5 	strdeq	r0, [r0], -r5
     8b8:	00842422 	addeq	r2, r4, r2, lsr #8
     8bc:	00083d00 	andeq	r3, r8, r0, lsl #26
     8c0:	84381e00 	ldrthi	r1, [r8], #-3584	; 0xfffff200
     8c4:	08310000 	ldmdaeq	r1!, {}	; <UNPREDICTABLE>
     8c8:	04a10000 	strteq	r0, [r1], #0
     8cc:	011d0000 	tsteq	sp, r0
     8d0:	44030550 	strmi	r0, [r3], #-1360	; 0xfffffab0
     8d4:	1d0000a8 	stcne	0, cr0, [r0, #-672]	; 0xfffffd60
     8d8:	75025101 	strvc	r5, [r2, #-257]	; 0xfffffeff
     8dc:	52011d00 	andpl	r1, r1, #0, 26
     8e0:	1d007602 	stcne	6, cr7, [r0, #-8]
     8e4:	77025301 	strvc	r5, [r2, -r1, lsl #6]
     8e8:	401e0000 	andsmi	r0, lr, r0
     8ec:	31000084 	smlabbcc	r0, r4, r0, r0
     8f0:	b8000008 	stmdalt	r0, {r3}
     8f4:	1d000004 	stcne	0, cr0, [r0, #-16]
     8f8:	03055001 	movweq	r5, #20481	; 0x5001
     8fc:	0000a884 	andeq	sl, r0, r4, lsl #17
     900:	84442200 	strbhi	r2, [r4], #-512	; 0xfffffe00
     904:	08490000 	stmdaeq	r9, {}^	; <UNPREDICTABLE>
     908:	48220000 	stmdami	r2!, {}	; <UNPREDICTABLE>
     90c:	3d000084 	stccc	0, cr0, [r0, #-528]	; 0xfffffdf0
     910:	1e000008 	cdpne	0, 0, cr0, cr0, cr8, {0}
     914:	0000845c 	andeq	r8, r0, ip, asr r4
     918:	00000831 	andeq	r0, r0, r1, lsr r8
     91c:	000004f3 	strdeq	r0, [r0], -r3
     920:	0550011d 	ldrbeq	r0, [r0, #-285]	; 0xfffffee3
     924:	00a84403 	adceq	r4, r8, r3, lsl #8
     928:	51011d00 	tstpl	r1, r0, lsl #26
     92c:	1d007502 	cfstr32ne	mvfx7, [r0, #-8]
     930:	76025201 	strvc	r5, [r2], -r1, lsl #4
     934:	53011d00 	movwpl	r1, #7424	; 0x1d00
     938:	00007702 	andeq	r7, r0, r2, lsl #14
     93c:	0084641e 	addeq	r6, r4, lr, lsl r4
     940:	00083100 	andeq	r3, r8, r0, lsl #2
     944:	00050a00 	andeq	r0, r5, r0, lsl #20
     948:	50011d00 	andpl	r1, r1, r0, lsl #26
     94c:	a8a00305 	stmiage	r0!, {r0, r2, r8, r9}
     950:	22000000 	andcs	r0, r0, #0, 0
     954:	00008468 	andeq	r8, r0, r8, ror #8
     958:	00000849 	andeq	r0, r0, r9, asr #16
     95c:	84681a00 	strbthi	r1, [r8], #-2560	; 0xfffff600
     960:	001c0000 	andseq	r0, ip, r0
     964:	05340000 	ldreq	r0, [r4, #-0]!
     968:	69180000 	ldmdbvs	r8, {}	; <UNPREDICTABLE>
     96c:	0d710100 	ldfeqe	f0, [r1, #-0]
     970:	00000025 	andeq	r0, r0, r5, lsr #32
     974:	00000333 	andeq	r0, r0, r3, lsr r3
     978:	00000331 	andeq	r0, r0, r1, lsr r3
     97c:	83a81e00 			; <UNDEFINED> instruction: 0x83a81e00
     980:	08310000 	ldmdaeq	r1!, {}	; <UNPREDICTABLE>
     984:	055d0000 	ldrbeq	r0, [sp, #-0]
     988:	011d0000 	tsteq	sp, r0
     98c:	28030550 	stmdacs	r3, {r4, r6, r8, sl}
     990:	1d0000a8 	stcne	0, cr0, [r0, #-672]	; 0xfffffd60
     994:	75025101 	strvc	r5, [r2, #-257]	; 0xfffffeff
     998:	52011d00 	andpl	r1, r1, #0, 26
     99c:	1d007602 	stcne	6, cr7, [r0, #-8]
     9a0:	77025301 	strvc	r5, [r2, -r1, lsl #6]
     9a4:	b41e0000 	ldrlt	r0, [lr], #-0
     9a8:	31000083 	smlabbcc	r0, r3, r0, r0
     9ac:	7a000008 	bvc	9d4 <__code_start__-0x762c>
     9b0:	1d000005 	stcne	0, cr0, [r0, #-20]	; 0xffffffec
     9b4:	03055001 	movweq	r5, #20481	; 0x5001
     9b8:	0000a834 	andeq	sl, r0, r4, lsr r8
     9bc:	0251011d 	subseq	r0, r1, #1073741831	; 0x40000007
     9c0:	22000074 	andcs	r0, r0, #116, 0	; 0x74
     9c4:	000083fc 	strdeq	r8, [r0], -ip
     9c8:	0000083d 	andeq	r0, r0, sp, lsr r8
     9cc:	0084101e 	addeq	r1, r4, lr, lsl r0
     9d0:	00083100 	andeq	r3, r8, r0, lsl #2
     9d4:	0005ac00 	andeq	sl, r5, r0, lsl #24
     9d8:	50011d00 	andpl	r1, r1, r0, lsl #26
     9dc:	a8440305 	stmdage	r4, {r0, r2, r8, r9}^
     9e0:	011d0000 	tsteq	sp, r0
     9e4:	00750251 	rsbseq	r0, r5, r1, asr r2
     9e8:	0252011d 	subseq	r0, r2, #1073741831	; 0x40000007
     9ec:	011d0076 	tsteq	sp, r6, ror r0
     9f0:	00770253 	rsbseq	r0, r7, r3, asr r2
     9f4:	841c1e00 	ldrhi	r1, [ip], #-3584	; 0xfffff200
     9f8:	08310000 	ldmdaeq	r1!, {}	; <UNPREDICTABLE>
     9fc:	05c30000 	strbeq	r0, [r3]
     a00:	011d0000 	tsteq	sp, r0
     a04:	5c030550 	cfstr32pl	mvfx0, [r3], {80}	; 0x50
     a08:	000000a8 	andeq	r0, r0, r8, lsr #1
     a0c:	00842022 	addeq	r2, r4, r2, lsr #32
     a10:	00084900 	andeq	r4, r8, r0, lsl #18
     a14:	84a41e00 	strthi	r1, [r4], #3584	; 0xe00
     a18:	06380000 	ldrteq	r0, [r8], -r0
     a1c:	05e00000 	strbeq	r0, [r0, #0]!
     a20:	011d0000 	tsteq	sp, r0
     a24:	00740250 	rsbseq	r0, r4, r0, asr r2
     a28:	84d01e00 	ldrbhi	r1, [r0], #3584	; 0xe00
     a2c:	08310000 	ldmdaeq	r1!, {}	; <UNPREDICTABLE>
     a30:	06190000 	ldreq	r0, [r9], -r0
     a34:	011d0000 	tsteq	sp, r0
     a38:	c8030550 	stmdagt	r3, {r4, r6, r8, sl}
     a3c:	1d0000a8 	stcne	0, cr0, [r0, #-672]	; 0xfffffd60
     a40:	03055101 	movweq	r5, #20737	; 0x5101
     a44:	0000a8bc 			; <UNDEFINED> instruction: 0x0000a8bc
     a48:	0552011d 	ldrbeq	r0, [r2, #-285]	; 0xfffffee3
     a4c:	00a91003 	adceq	r1, r9, r3
     a50:	53011d00 	movwpl	r1, #7424	; 0x1d00
     a54:	1d770802 	ldclne	8, cr0, [r7, #-8]!
     a58:	05007d02 	streq	r7, [r0, #-3330]	; 0xfffff2fe
     a5c:	00a8dc03 	adceq	sp, r8, r3, lsl #24
     a60:	d4220000 	strtle	r0, [r2], #-0
     a64:	49000084 	stmdbmi	r0, {r2, r7}
     a68:	00000008 	andeq	r0, r0, r8
     a6c:	0000cc10 	andeq	ip, r0, r0, lsl ip
     a70:	00063300 	andeq	r3, r6, r0, lsl #6
     a74:	002c1100 	eoreq	r1, ip, r0, lsl #2
     a78:	00060000 	andeq	r0, r6, r0
     a7c:	00062309 	andeq	r2, r6, r9, lsl #6
     a80:	02f71500 	rscseq	r1, r7, #0, 10
     a84:	2e010000 	cdpcs	0, 0, cr0, cr1, cr0, {0}
     a88:	00022808 	andeq	r2, r2, r8, lsl #16
     a8c:	00833400 	addeq	r3, r3, r0, lsl #8
     a90:	00002000 	andeq	r2, r0, r0
     a94:	9c9c0100 	ldflss	f0, [ip], {0}
     a98:	23000006 	movwcs	r0, #6
     a9c:	00727470 	rsbseq	r7, r2, r0, ror r4
     aa0:	08202e01 	stmdaeq	r0!, {r0, r9, sl, fp, sp}
     aa4:	4a000002 	bmi	ab4 <__code_start__-0x754c>
     aa8:	46000003 	strmi	r0, [r0], -r3
     aac:	18000003 	stmdane	r0, {r0, r1}
     ab0:	0074756f 	rsbseq	r7, r4, pc, ror #10
     ab4:	ad0d3001 	stcge	0, cr3, [sp, #-4]
     ab8:	6d000003 	stcvs	0, cr0, [r0, #-12]
     abc:	6b000003 	blvs	ad0 <__code_start__-0x7530>
     ac0:	24000003 	strcs	r0, [r0], #-3
     ac4:	0000068a 	andeq	r0, r0, sl, lsl #13
     ac8:	01006825 	tsteq	r0, r5, lsr #16
     acc:	02281138 	eoreq	r1, r8, #14
     ad0:	1c000000 	stcne	0, cr0, [r0], {-0}
     ad4:	00008344 	andeq	r8, r0, r4, asr #6
     ad8:	000003b3 			; <UNDEFINED> instruction: 0x000003b3
     adc:	0350011d 	cmpeq	r0, #1073741831	; 0x40000007
     ae0:	005001f3 	ldrsheq	r0, [r0], #-19	; 0xffffffed
     ae4:	020d1500 	andeq	r1, sp, #0, 10
     ae8:	27010000 	strcs	r0, [r1, -r0]
     aec:	00002c0a 	andeq	r2, r0, sl, lsl #24
     af0:	00828c00 	addeq	r8, r2, r0, lsl #24
     af4:	00003800 	andeq	r3, r0, r0, lsl #16
     af8:	299c0100 	ldmibcs	ip, {r8}
     afc:	23000007 	movwcs	r0, #7
     b00:	27010068 	strcs	r0, [r1, -r8, rrx]
     b04:	00022821 	andeq	r2, r2, r1, lsr #16
     b08:	00038400 	andeq	r8, r3, r0, lsl #8
     b0c:	00038000 	andeq	r8, r3, r0
     b10:	74702300 	ldrbtvc	r2, [r0], #-768	; 0xfffffd00
     b14:	27010072 	smlsdxcs	r1, r2, r0, r0
     b18:	0002082a 	andeq	r0, r2, sl, lsr #16
     b1c:	0003a600 	andeq	sl, r3, r0, lsl #12
     b20:	0003a200 	andeq	sl, r3, r0, lsl #4
     b24:	696d1800 	stmdbvs	sp!, {fp, ip}^
     b28:	2901006e 	stmdbcs	r1, {r1, r2, r3, r5, r6}
     b2c:	0002080b 	andeq	r0, r2, fp, lsl #16
     b30:	0003c800 	andeq	ip, r3, r0, lsl #16
     b34:	0003c400 	andeq	ip, r3, r0, lsl #8
     b38:	616d1800 	cmnvs	sp, r0, lsl #16
     b3c:	2a010078 	bcs	40d24 <__bss_end__+0x35854>
     b40:	0002080b 	andeq	r0, r2, fp, lsl #16
     b44:	0003e800 	andeq	lr, r3, r0, lsl #16
     b48:	0003e600 	andeq	lr, r3, r0, lsl #12
     b4c:	82a41e00 	adchi	r1, r4, #0, 28
     b50:	078d0000 	streq	r0, [sp, r0]
     b54:	07180000 	ldreq	r0, [r8, -r0]
     b58:	011d0000 	tsteq	sp, r0
     b5c:	00760250 	rsbseq	r0, r6, r0, asr r2
     b60:	82b01c00 	adcshi	r1, r0, #0, 24
     b64:	07290000 	streq	r0, [r9, -r0]!
     b68:	011d0000 	tsteq	sp, r0
     b6c:	00760250 	rsbseq	r0, r6, r0, asr r2
     b70:	56150000 	ldrpl	r0, [r5], -r0
     b74:	01000003 	tsteq	r0, r3
     b78:	02080721 	andeq	r0, r8, #8650752	; 0x840000
     b7c:	82580000 	subshi	r0, r8, #0, 0
     b80:	00200000 	eoreq	r0, r0, r0
     b84:	9c010000 	stcls	0, cr0, [r1], {-0}
     b88:	0000078d 	andeq	r0, r0, sp, lsl #15
     b8c:	01006823 	tsteq	r0, r3, lsr #16
     b90:	02281921 	eoreq	r1, r8, #540672	; 0x84000
     b94:	03ff0000 	mvnseq	r0, #0, 0
     b98:	03fb0000 	mvnseq	r0, #0, 0
     b9c:	fd260000 	stc2	0, cr0, [r6, #-0]
     ba0:	6c000007 	stcvs	0, cr0, [r0], {7}
     ba4:	00000082 	andeq	r0, r0, r2, lsl #1
     ba8:	0000826c 	andeq	r8, r0, ip, ror #4
     bac:	00000004 	andeq	r0, r0, r4
     bb0:	7c262301 	stcvc	3, cr2, [r6], #-4
     bb4:	27000007 	strcs	r0, [r0, -r7]
     bb8:	0000080e 	andeq	r0, r0, lr, lsl #16
     bbc:	0000041f 	andeq	r0, r0, pc, lsl r4
     bc0:	0000041d 	andeq	r0, r0, sp, lsl r4
     bc4:	826c1c00 	rsbhi	r1, ip, #0, 24
     bc8:	078d0000 	streq	r0, [sp, r0]
     bcc:	011d0000 	tsteq	sp, r0
     bd0:	00740250 	rsbseq	r0, r4, r0, asr r2
     bd4:	40150000 	andsmi	r0, r5, r0
     bd8:	01000003 	tsteq	r0, r3
     bdc:	0208071b 	andeq	r0, r8, #7077888	; 0x6c0000
     be0:	82340000 	eorshi	r0, r4, #0, 0
     be4:	00140000 	andseq	r0, r4, r0
     be8:	9c010000 	stcls	0, cr0, [r1], {-0}
     bec:	000007ba 			; <UNDEFINED> instruction: 0x000007ba
     bf0:	01006823 	tsteq	r0, r3, lsr #16
     bf4:	02281b1b 	eoreq	r1, r8, #27648	; 0x6c00
     bf8:	04360000 	ldrteq	r0, [r6], #-0
     bfc:	04320000 	ldrteq	r0, [r2], #-0
     c00:	15000000 	strne	r0, [r0, #-0]
     c04:	00000316 	andeq	r0, r0, r6, lsl r3
     c08:	28081401 	stmdacs	r8, {r0, sl, ip}
     c0c:	04000002 	streq	r0, [r0], #-2
     c10:	1c000082 	stcne	0, cr0, [r0], {130}	; 0x82
     c14:	01000000 	mrseq	r0, (UNDEF: 0)
     c18:	0007e79c 	muleq	r7, ip, r7
     c1c:	00702300 	rsbseq	r2, r0, r0, lsl #6
     c20:	281b1401 	ldmdacs	fp, {r0, sl, ip}
     c24:	5b000002 	blpl	c34 <__code_start__-0x73cc>
     c28:	57000004 	strpl	r0, [r0, -r4]
     c2c:	00000004 	andeq	r0, r0, r4
     c30:	00026828 	andeq	r6, r2, r8, lsr #16
     c34:	080e0100 	stmdaeq	lr, {r8}
     c38:	00000228 	andeq	r0, r0, r8, lsr #4
     c3c:	000081d8 	ldrdeq	r8, [r0], -r8	; <UNPREDICTABLE>
     c40:	0000001c 	andeq	r0, r0, ip, lsl r0
     c44:	6a299c01 	bvs	a67c50 <__bss_end__+0xa5c780>
     c48:	02000003 	andeq	r0, r0, #3, 0
     c4c:	002c1831 	eoreq	r1, ip, r1, lsr r8
     c50:	19030000 	stmdbne	r3, {}	; <UNPREDICTABLE>
     c54:	2a000008 	bcs	c7c <__code_start__-0x7384>
     c58:	31020068 	tstcc	r2, r8, rrx
     c5c:	00022829 	andeq	r2, r2, r9, lsr #16
     c60:	742b0000 	strtvc	r0, [fp], #-0
     c64:	74000003 	strvc	r0, [r0], #-3
     c68:	06000003 	streq	r0, [r0], -r3
     c6c:	932b071e 			; <UNDEFINED> instruction: 0x932b071e
     c70:	93000002 	movwls	r0, #2
     c74:	04000002 	streq	r0, [r0], #-2
     c78:	882b07f2 	stmdahi	fp!, {r1, r4, r5, r6, r7, r8, r9, sl}
     c7c:	88000006 	stmdahi	r0, {r1, r2}
     c80:	04000006 	streq	r0, [r0], #-6
     c84:	c12b0628 			; <UNDEFINED> instruction: 0xc12b0628
     c88:	c1000002 	tstgt	r0, r2
     c8c:	07000002 	streq	r0, [r0, -r2]
     c90:	672b0504 	strvs	r0, [fp, -r4, lsl #10]!
     c94:	67000000 	strvs	r0, [r0, -r0]
     c98:	04000000 	streq	r0, [r0], #-0
     c9c:	ec00066e 	stc	6, cr0, [r0], {110}	; 0x6e
     ca0:	04000002 	streq	r0, [r0], #-2
     ca4:	00043300 	andeq	r3, r4, r0, lsl #6
     ca8:	8f010400 	svchi	0x00010400
     cac:	0c000000 	stceq	0, cr0, [r0], {-0}
     cb0:	000003ab 	andeq	r0, r0, fp, lsr #7
     cb4:	000001b5 			; <UNDEFINED> instruction: 0x000001b5
     cb8:	000085f8 	strdeq	r8, [r0], -r8	; <UNPREDICTABLE>
     cbc:	00000200 	andeq	r0, r0, r0, lsl #4
     cc0:	000005a8 	andeq	r0, r0, r8, lsr #11
     cc4:	69050402 	stmdbvs	r5, {r1, sl}
     cc8:	0300746e 	movweq	r7, #1134	; 0x46e
     ccc:	01820704 	orreq	r0, r2, r4, lsl #14
     cd0:	01030000 	mrseq	r0, (UNDEF: 3)
     cd4:	00008306 	andeq	r8, r0, r6, lsl #6
     cd8:	05020300 	streq	r0, [r2, #-768]	; 0xfffffd00
     cdc:	0000001d 	andeq	r0, r0, sp, lsl r0
     ce0:	51050403 	tstpl	r5, r3, lsl #8
     ce4:	03000000 	movweq	r0, #0
     ce8:	004c0508 	subeq	r0, ip, r8, lsl #10
     cec:	01030000 	mrseq	r0, (UNDEF: 3)
     cf0:	00008108 	andeq	r8, r0, r8, lsl #2
     cf4:	07020300 	streq	r0, [r2, -r0, lsl #6]
     cf8:	00000197 	muleq	r0, r7, r1
     cfc:	7d070403 	cfstrsvc	mvf0, [r7, #-12]
     d00:	03000001 	movweq	r0, #1
     d04:	01780708 	cmneq	r8, r8, lsl #14
     d08:	25040000 	strcs	r0, [r4, #-0]
     d0c:	7a000000 	bvc	d14 <__code_start__-0x72ec>
     d10:	05000000 	streq	r0, [r0, #-0]
     d14:	00000025 	andeq	r0, r0, r5, lsr #32
     d18:	00270600 	eoreq	r0, r7, r0, lsl #12
     d1c:	1c020000 	stcne	0, cr0, [r2], {-0}
     d20:	0000860e 	andeq	r8, r0, lr, lsl #12
     d24:	6b040700 	blvs	10292c <__bss_end__+0xf745c>
     d28:	04000000 	streq	r0, [r0], #-0
     d2c:	00000025 	andeq	r0, r0, r5, lsr #32
     d30:	0000009b 	muleq	r0, fp, r0
     d34:	00009b05 	andeq	r9, r0, r5, lsl #22
     d38:	04070000 	streq	r0, [r7], #-0
     d3c:	000000a8 	andeq	r0, r0, r8, lsr #1
     d40:	8a080103 	bhi	201154 <__bss_end__+0x1f5c84>
     d44:	08000000 	stmdaeq	r0, {}	; <UNPREDICTABLE>
     d48:	000000a1 	andeq	r0, r0, r1, lsr #1
     d4c:	0006c606 	andeq	ip, r6, r6, lsl #12
     d50:	0e210200 	cdpeq	2, 2, cr0, cr1, cr0, {0}
     d54:	000000b9 	strheq	r0, [r0], -r9
     d58:	008c0407 	addeq	r0, ip, r7, lsl #8
     d5c:	90090000 	andls	r0, r9, r0
     d60:	08000003 	stmdaeq	r0, {r0, r1}
     d64:	ec070501 	cfstr32	mvfx0, [r7], {1}
     d68:	0a000000 	beq	d70 <__code_start__-0x7290>
     d6c:	07010064 	streq	r0, [r1, -r4, rrx]
     d70:	0000ec09 	andeq	lr, r0, r9, lsl #24
     d74:	00700a00 	rsbseq	r0, r0, r0, lsl #20
     d78:	f3080801 	vsub.i8	d0, d8, d1
     d7c:	0a000000 	beq	d84 <__code_start__-0x727c>
     d80:	01007066 	tsteq	r0, r6, rrx
     d84:	00f60909 	rscseq	r0, r6, r9, lsl #18
     d88:	03000000 	movweq	r0, #0
     d8c:	03b70408 			; <UNDEFINED> instruction: 0x03b70408
     d90:	040b0000 	streq	r0, [fp], #-0
     d94:	f504070c 			; <UNDEFINED> instruction: 0xf504070c
     d98:	0d000000 	stceq	0, cr0, [r0, #-0]
     d9c:	020e0108 	andeq	r0, lr, #2
     da0:	00000120 	andeq	r0, r0, r0, lsr #2
     da4:	7274700e 	rsbsvc	r7, r4, #14, 0
     da8:	11100100 	tstne	r0, r0, lsl #2
     dac:	00000142 	andeq	r0, r0, r2, asr #2
     db0:	03d10f00 	bicseq	r0, r1, #0, 30
     db4:	11010000 	mrsne	r0, (UNDEF: 1)
     db8:	00002c0c 	andeq	r2, r0, ip, lsl #24
     dbc:	09000400 	stmdbeq	r0, {sl}
     dc0:	00000383 	andeq	r0, r0, r3, lsl #7
     dc4:	0f0c0108 	svceq	0x000c0108
     dc8:	00000142 	andeq	r0, r0, r2, asr #2
     dcc:	0100730a 	tsteq	r0, sl, lsl #6
     dd0:	00fc0412 	rscseq	r0, ip, r2, lsl r4
     dd4:	780a0000 	stmdavc	sl, {}	; <UNPREDICTABLE>
     dd8:	0e130100 	mufeqs	f0, f3, f0
     ddc:	000000bf 	strheq	r0, [r0], -pc	; <UNPREDICTABLE>
     de0:	20040700 	andcs	r0, r4, r0, lsl #14
     de4:	10000001 	andne	r0, r0, r1
     de8:	000003d6 	ldrdeq	r0, [r0], -r6
     dec:	20031401 	andcs	r1, r3, r1, lsl #8
     df0:	11000001 	tstne	r0, r1
     df4:	000003be 			; <UNDEFINED> instruction: 0x000003be
     df8:	480f1801 	stmdami	pc, {r0, fp, ip}	; <UNPREDICTABLE>
     dfc:	05000001 	streq	r0, [r0, #-1]
     e00:	00b0b003 	adcseq	fp, r0, r3
     e04:	039e1100 	orrseq	r1, lr, #0
     e08:	19010000 	stmdbne	r1, {}	; <UNPREDICTABLE>
     e0c:	00017810 	andeq	r7, r1, r0, lsl r8
     e10:	a8030500 	stmdage	r3, {r8, sl}
     e14:	070000b0 			; <UNDEFINED> instruction: 0x070000b0
     e18:	00014804 	andeq	r4, r1, r4, lsl #16
     e1c:	03961200 	orrseq	r1, r6, #0, 4
     e20:	53010000 	movwpl	r0, #4096	; 0x1000
     e24:	00860406 	addeq	r0, r6, r6, lsl #8
     e28:	0000c400 	andeq	ip, r0, r0, lsl #8
     e2c:	c79c0100 	ldrgt	r0, [ip, r0, lsl #2]
     e30:	13000001 	movwne	r0, #1
     e34:	01007061 	tsteq	r0, r1, rrx
     e38:	00f31453 	rscseq	r1, r3, r3, asr r4
     e3c:	50010000 	andpl	r0, r1, r0
     e40:	00706214 	rsbseq	r6, r0, r4, lsl r2
     e44:	780a5501 	stmdavc	sl, {r0, r8, sl, ip, lr}
     e48:	84000001 	strhi	r0, [r0], #-1
     e4c:	7c000004 	stcvc	0, cr0, [r0], {4}
     e50:	14000004 	strne	r0, [r0], #-4
     e54:	55010070 	strpl	r0, [r1, #-112]	; 0xffffff90
     e58:	0001780f 	andeq	r7, r1, pc, lsl #16
     e5c:	0004c000 	andeq	ip, r4, r0
     e60:	0004bc00 	andeq	fp, r4, r0, lsl #24
     e64:	74150000 	ldrvc	r0, [r5], #-0
     e68:	01000003 	tsteq	r0, r3
     e6c:	00f3072b 	rscseq	r0, r3, fp, lsr #14
     e70:	87440000 	strbhi	r0, [r4, -r0]
     e74:	00b40000 	adcseq	r0, r4, r0
     e78:	9c010000 	stcls	0, cr0, [r1], {-0}
     e7c:	00000241 	andeq	r0, r0, r1, asr #4
     e80:	00036d16 	andeq	r6, r3, r6, lsl sp
     e84:	1a2b0100 	bne	ac128c <__bss_end__+0xab5dbc>
     e88:	0000002c 	andeq	r0, r0, ip, lsr #32
     e8c:	000004e6 	andeq	r0, r0, r6, ror #9
     e90:	000004de 	ldrdeq	r0, [r0], -lr
     e94:	01007014 	tsteq	r0, r4, lsl r0
     e98:	01780a2d 	cmneq	r8, sp, lsr #20
     e9c:	052e0000 	streq	r0, [lr, #-0]!
     ea0:	05200000 	streq	r0, [r0, #-0]!
     ea4:	8a170000 	bhi	5c0eac <__bss_end__+0x5b59dc>
     ea8:	01000003 	tsteq	r0, r3
     eac:	01780e2d 	cmneq	r8, sp, lsr #28
     eb0:	05900000 	ldreq	r0, [r0]
     eb4:	05860000 	streq	r0, [r6]
     eb8:	a4170000 	ldrge	r0, [r7], #-0
     ebc:	01000003 	tsteq	r0, r3
     ec0:	002c0b2e 	eoreq	r0, ip, lr, lsr #22
     ec4:	05d60000 	ldrbeq	r0, [r6]
     ec8:	05d40000 	ldrbeq	r0, [r4]
     ecc:	e8180000 	ldmda	r8, {}	; <UNPREDICTABLE>
     ed0:	41000087 	smlabbmi	r0, r7, r0, r0
     ed4:	19000002 	stmdbne	r0, {r1}
     ed8:	0a035001 	beq	d4ee4 <__bss_end__+0xc9a14>
     edc:	00008000 	andeq	r8, r0, r0
     ee0:	0003c81a 	andeq	ip, r3, sl, lsl r8
     ee4:	101c0100 	andsne	r0, ip, r0, lsl #2
     ee8:	00000178 	andeq	r0, r0, r8, ror r1
     eec:	000086d8 	ldrdeq	r8, [r0], -r8	; <UNPREDICTABLE>
     ef0:	0000005c 	andeq	r0, r0, ip, asr r0
     ef4:	02d19c01 	sbcseq	r9, r1, #256	; 0x100
     ef8:	6e1b0000 	cdpvs	0, 1, cr0, cr11, cr0, {0}
     efc:	1c010075 	stcne	0, cr0, [r1], {117}	; 0x75
     f00:	00002c22 	andeq	r2, r0, r2, lsr #24
     f04:	0005ed00 	andeq	lr, r5, r0, lsl #26
     f08:	0005e900 	andeq	lr, r5, r0, lsl #18
     f0c:	70631400 	rsbvc	r1, r3, r0, lsl #8
     f10:	08210100 	stmdaeq	r1!, {r8}
     f14:	000002d1 	ldrdeq	r0, [r0], -r1
     f18:	00000611 	andeq	r0, r0, r1, lsl r6
     f1c:	0000060b 	andeq	r0, r0, fp, lsl #12
     f20:	00707514 	rsbseq	r7, r0, r4, lsl r5
     f24:	780a2401 	stmdavc	sl, {r0, sl, sp}
     f28:	40000001 	andmi	r0, r0, r1
     f2c:	3c000006 	stccc	0, cr0, [r0], {6}
     f30:	1c000006 	stcne	0, cr0, [r0], {6}
     f34:	000086fc 	strdeq	r8, [r0], -ip
     f38:	000002d7 	ldrdeq	r0, [r0], -r7
     f3c:	000002b1 			; <UNDEFINED> instruction: 0x000002b1
     f40:	05500119 	ldrbeq	r0, [r0, #-281]	; 0xfffffee7
     f44:	00a91803 	adceq	r1, r9, r3, lsl #16
     f48:	51011900 	tstpl	r1, r0, lsl #18
     f4c:	00007402 	andeq	r7, r0, r2, lsl #8
     f50:	0087041c 	addeq	r0, r7, ip, lsl r4
     f54:	0002e300 	andeq	lr, r2, r0, lsl #6
     f58:	0002c700 	andeq	ip, r2, r0, lsl #14
     f5c:	50011900 	andpl	r1, r1, r0, lsl #18
     f60:	33007404 	movwcc	r7, #1028	; 0x404
     f64:	181d0024 	ldmdane	sp, {r2, r5}
     f68:	7e000087 	cdpvc	0, 0, cr0, cr0, cr7, {4}
     f6c:	00000001 	andeq	r0, r0, r1
     f70:	00a10407 	adceq	r0, r1, r7, lsl #8
     f74:	881e0000 	ldmdahi	lr, {}	; <UNPREDICTABLE>
     f78:	88000006 	stmdahi	r0, {r1, r2}
     f7c:	02000006 	andeq	r0, r0, #6, 0
     f80:	c31e0628 	tstgt	lr, #40, 12	; 0x2800000
     f84:	c3000003 	movwgt	r0, #3
     f88:	03000003 	movweq	r0, #3
     f8c:	d9000b1a 	stmdble	r0, {r1, r3, r4, r8, r9, fp}
     f90:	0400000e 	streq	r0, [r0], #-14
     f94:	00060a00 	andeq	r0, r6, r0, lsl #20
     f98:	8f010400 	svchi	0x00010400
     f9c:	0c000000 	stceq	0, cr0, [r0], {-0}
     fa0:	000004b7 			; <UNDEFINED> instruction: 0x000004b7
     fa4:	000001b5 			; <UNDEFINED> instruction: 0x000001b5
     fa8:	000087f8 	strdeq	r8, [r0], -r8	; <UNPREDICTABLE>
     fac:	00000800 	andeq	r0, r0, r0, lsl #16
     fb0:	000007d4 	ldrdeq	r0, [r0], -r4
     fb4:	69050402 	stmdbvs	r5, {r1, sl}
     fb8:	0300746e 	movweq	r7, #1134	; 0x46e
     fbc:	01820704 	orreq	r0, r2, r4, lsl #14
     fc0:	01030000 	mrseq	r0, (UNDEF: 3)
     fc4:	00008306 	andeq	r8, r0, r6, lsl #6
     fc8:	05020300 	streq	r0, [r2, #-768]	; 0xfffffd00
     fcc:	0000001d 	andeq	r0, r0, sp, lsl r0
     fd0:	51050403 	tstpl	r5, r3, lsl #8
     fd4:	03000000 	movweq	r0, #0
     fd8:	004c0508 	subeq	r0, ip, r8, lsl #10
     fdc:	75040000 	strvc	r0, [r4, #-0]
     fe0:	03000002 	movweq	r0, #2
     fe4:	005b182e 	subseq	r1, fp, lr, lsr #16
     fe8:	01030000 	mrseq	r0, (UNDEF: 3)
     fec:	00008108 	andeq	r8, r0, r8, lsl #2
     ff0:	02ee0400 	rsceq	r0, lr, #0, 8
     ff4:	31030000 	mrscc	r0, (UNDEF: 3)
     ff8:	00006e19 	andeq	r6, r0, r9, lsl lr
     ffc:	07020300 	streq	r0, [r2, -r0, lsl #6]
    1000:	00000197 	muleq	r0, r7, r1
    1004:	0002e504 	andeq	lr, r2, r4, lsl #10
    1008:	19340300 	ldmdbne	r4!, {r8, r9}
    100c:	00000081 	andeq	r0, r0, r1, lsl #1
    1010:	7d070403 	cfstrsvc	mvf0, [r7, #-12]
    1014:	03000001 	movweq	r0, #1
    1018:	01780708 	cmneq	r8, r8, lsl #14
    101c:	25050000 	strcs	r0, [r5, #-0]
    1020:	9e000000 	cdpls	0, 0, cr0, cr0, cr0, {0}
    1024:	06000000 	streq	r0, [r0], -r0
    1028:	00000025 	andeq	r0, r0, r5, lsr #32
    102c:	00270700 	eoreq	r0, r7, r0, lsl #14
    1030:	1c040000 	stcne	0, cr0, [r4], {-0}
    1034:	0000aa0e 	andeq	sl, r0, lr, lsl #20
    1038:	8f040800 	svchi	0x00040800
    103c:	05000000 	streq	r0, [r0, #-0]
    1040:	00000025 	andeq	r0, r0, r5, lsr #32
    1044:	000000bf 	strheq	r0, [r0], -pc	; <UNPREDICTABLE>
    1048:	0000bf06 	andeq	fp, r0, r6, lsl #30
    104c:	04080000 	streq	r0, [r8], #-0
    1050:	000000cc 	andeq	r0, r0, ip, asr #1
    1054:	8a080103 	bhi	201468 <__bss_end__+0x1f5f98>
    1058:	09000000 	stmdbeq	r0, {}	; <UNPREDICTABLE>
    105c:	000000c5 	andeq	r0, r0, r5, asr #1
    1060:	0006c607 	andeq	ip, r6, r7, lsl #12
    1064:	0e210400 	cdpeq	4, 2, cr0, cr1, cr0, {0}
    1068:	000000dd 	ldrdeq	r0, [r0], -sp
    106c:	00b00408 	adcseq	r0, r0, r8, lsl #8
    1070:	0c0a0000 	stceq	0, cr0, [sl], {-0}
    1074:	14090502 	strne	r0, [r9], #-1282	; 0xfffffafe
    1078:	0b000001 	bleq	1084 <__code_start__-0x6f7c>
    107c:	0000003b 	andeq	r0, r0, fp, lsr r0
    1080:	bf110702 	svclt	0x00110702
    1084:	00000000 	andeq	r0, r0, r0
    1088:	0000470b 	andeq	r4, r0, fp, lsl #14
    108c:	11080200 	mrsne	r0, R8_fiq
    1090:	000000bf 	strheq	r0, [r0], -pc	; <UNPREDICTABLE>
    1094:	01710b04 	cmneq	r1, r4, lsl #22
    1098:	09020000 	stmdbeq	r2, {}	; <UNPREDICTABLE>
    109c:	00002c0e 	andeq	r2, r0, lr, lsl #24
    10a0:	04000800 	streq	r0, [r0], #-2048	; 0xfffff800
    10a4:	00000203 	andeq	r0, r0, r3, lsl #4
    10a8:	e3030a02 	movw	r0, #14850	; 0x3a02
    10ac:	0c000000 	stceq	0, cr0, [r0], {-0}
    10b0:	005b0107 	subseq	r0, fp, r7, lsl #2
    10b4:	09050000 	stmdbeq	r5, {}	; <UNPREDICTABLE>
    10b8:	00013b0e 	andeq	r3, r1, lr, lsl #22
    10bc:	03380d00 	teqeq	r8, #0, 26
    10c0:	0d0b0000 	stceq	0, cr0, [fp, #-0]
    10c4:	0000022c 	andeq	r0, r0, ip, lsr #4
    10c8:	070c000c 	streq	r0, [ip, -ip]
    10cc:	00005b01 	andeq	r5, r0, r1, lsl #22
    10d0:	060a0500 	streq	r0, [sl], -r0, lsl #10
    10d4:	00000156 	andeq	r0, r0, r6, asr r1
    10d8:	0002590d 	andeq	r5, r2, sp, lsl #18
    10dc:	4d0d8000 	stcmi	0, cr8, [sp, #-0]
    10e0:	fe000002 	cdp2	0, 0, cr0, cr0, cr2, {0}
    10e4:	029a0e00 	addseq	r0, sl, #0, 28
    10e8:	05b40000 	ldreq	r0, [r4, #0]!
    10ec:	01e6100d 	mvneq	r1, sp
    10f0:	7e0b0000 	cdpvc	0, 0, cr0, cr11, cr0, {0}
    10f4:	05000003 	streq	r0, [r0, #-3]
    10f8:	01e6140e 	mvneq	r1, lr, lsl #8
    10fc:	0b000000 	bleq	1104 <__code_start__-0x6efc>
    1100:	00000232 	andeq	r0, r0, r2, lsr r2
    1104:	750e0f05 	strvc	r0, [lr, #-3845]	; 0xfffff0fb
    1108:	04000000 	streq	r0, [r0], #-0
    110c:	0002bb0b 	andeq	fp, r2, fp, lsl #22
    1110:	0e100500 	cfmul32eq	mvfx0, mvfx0, mvfx0
    1114:	00000075 	andeq	r0, r0, r5, ror r0
    1118:	02230b08 	eoreq	r0, r3, #8, 22	; 0x2000
    111c:	14050000 	strne	r0, [r5], #-0
    1120:	0000750e 	andeq	r7, r0, lr, lsl #10
    1124:	b10b0c00 	tstlt	fp, r0, lsl #24
    1128:	05000002 	streq	r0, [r0, #-2]
    112c:	01140f16 	tsteq	r4, r6, lsl pc
    1130:	0b100000 	bleq	401138 <__bss_end__+0x3f5c68>
    1134:	00000361 	andeq	r0, r0, r1, ror #6
    1138:	140f1705 	strne	r1, [pc], #-1797	; 1140 <__code_start__-0x6ec0>
    113c:	1c000001 	stcne	0, cr0, [r0], {1}
    1140:	0002cb0b 	andeq	ip, r2, fp, lsl #22
    1144:	0e1a0500 	cfmul32eq	mvfx0, mvfx10, mvfx0
    1148:	00000075 	andeq	r0, r0, r5, ror r0
    114c:	032c0b28 			; <UNDEFINED> instruction: 0x032c0b28
    1150:	1b050000 	blne	141158 <__bss_end__+0x135c88>
    1154:	0000750e 	andeq	r7, r0, lr, lsl #10
    1158:	2d0b2c00 	stccs	12, cr2, [fp, #-0]
    115c:	05000004 	streq	r0, [r0, #-4]
    1160:	00620e1d 	rsbeq	r0, r2, sp, lsl lr
    1164:	0f300000 	svceq	0x00300000
    1168:	00317a72 	eorseq	r7, r1, r2, ror sl
    116c:	ec0d1f05 	stc	15, cr1, [sp], {5}
    1170:	32000001 	andcc	r0, r0, #1, 0
    1174:	56040800 	strpl	r0, [r4], -r0, lsl #16
    1178:	10000001 	andne	r0, r0, r1
    117c:	0000004f 	andeq	r0, r0, pc, asr #32
    1180:	000001fc 	strdeq	r0, [r0], -ip
    1184:	00002c11 	andeq	r2, r0, r1, lsl ip
    1188:	04007f00 	streq	r7, [r0], #-3840	; 0xfffff100
    118c:	0000021d 	andeq	r0, r0, sp, lsl r2
    1190:	56032005 	strpl	r2, [r3], -r5
    1194:	12000001 	andne	r0, r0, #1, 0
    1198:	00740704 	rsbseq	r0, r4, r4, lsl #14
    119c:	a8050000 	stmdage	r5, {}	; <UNPREDICTABLE>
    11a0:	00002c11 	andeq	r2, r0, r1, lsl ip
    11a4:	0b651300 	bleq	1945dac <__bss_end__+0x193a8dc>
    11a8:	10010000 	andne	r0, r1, r0
    11ac:	0002080e 	andeq	r0, r2, lr, lsl #16
    11b0:	b8030500 	stmdalt	r3, {r8, sl}
    11b4:	130000b0 	movwne	r0, #176	; 0xb0
    11b8:	00000bc0 	andeq	r0, r0, r0, asr #23
    11bc:	080e1101 	stmdaeq	lr, {r0, r8, ip}
    11c0:	05000002 	streq	r0, [r0, #-2]
    11c4:	00b0bc03 	adcseq	fp, r0, r3, lsl #24
    11c8:	03f01400 	mvnseq	r1, #0, 8
    11cc:	32010000 	andcc	r0, r1, #0, 0
    11d0:	8fc80601 	svchi	0x00c80601
    11d4:	00300000 	eorseq	r0, r0, r0
    11d8:	9c010000 	stcls	0, cr0, [r1], {-0}
    11dc:	0000029a 	muleq	r0, sl, r2
    11e0:	00005a15 	andeq	r5, r0, r5, lsl sl
    11e4:	0002aa00 	andeq	sl, r2, r0, lsl #20
    11e8:	dc030500 	cfstr32le	mvfx0, [r3], {-0}
    11ec:	160000ac 	strne	r0, [r0], -ip, lsr #1
    11f0:	00008fe8 	andeq	r8, r0, r8, ror #31
    11f4:	00000e55 	andeq	r0, r0, r5, asr lr
    11f8:	00000290 	muleq	r0, r0, r2
    11fc:	05500117 	ldrbeq	r0, [r0, #-279]	; 0xfffffee9
    1200:	00ac6c03 	adceq	r6, ip, r3, lsl #24
    1204:	51011700 	tstpl	r1, r0, lsl #14
    1208:	a93c0305 	ldmdbge	ip!, {r0, r2, r8, r9}
    120c:	01170000 	tsteq	r7, r0
    1210:	dc030552 	cfstr32le	mvfx0, [r3], {82}	; 0x52
    1214:	170000ac 	strne	r0, [r0, -ip, lsr #1]
    1218:	0a035301 	beq	d5e24 <__bss_end__+0xca954>
    121c:	18000134 	stmdane	r0, {r2, r4, r5, r8}
    1220:	00008fec 	andeq	r8, r0, ip, ror #31
    1224:	00000e61 	andeq	r0, r0, r1, ror #28
    1228:	00cc1000 	sbceq	r1, ip, r0
    122c:	02aa0000 	adceq	r0, sl, #0, 0
    1230:	2c110000 	ldccs	0, cr0, [r1], {-0}
    1234:	0e000000 	cdpeq	0, 0, cr0, cr0, cr0, {0}
    1238:	029a0900 	addseq	r0, sl, #0, 18
    123c:	57190000 	ldrpl	r0, [r9, -r0]
    1240:	01000004 	tsteq	r0, r4
    1244:	2c0a0128 	stfcss	f0, [sl], {40}	; 0x28
    1248:	9c000000 	stcls	0, cr0, [r0], {-0}
    124c:	1800008f 	stmdane	r0, {r0, r1, r2, r3, r7}
    1250:	01000000 	mrseq	r0, (UNDEF: 0)
    1254:	0002f29c 	muleq	r2, ip, r2
    1258:	036d1a00 	cmneq	sp, #0, 20
    125c:	2b010000 	blcs	41264 <__bss_end__+0x35d94>
    1260:	002c0e01 	eoreq	r0, ip, r1, lsl #28
    1264:	06620000 	strbteq	r0, [r2], -r0
    1268:	06600000 	strbteq	r0, [r0], -r0
    126c:	ac180000 	ldcge	0, cr0, [r8], {-0}
    1270:	3d00008f 	stccc	0, cr0, [r0, #-572]	; 0xfffffdc4
    1274:	18000009 	stmdane	r0, {r0, r3}
    1278:	00008fb0 			; <UNDEFINED> instruction: 0x00008fb0
    127c:	000002f2 	strdeq	r0, [r0], -r2
    1280:	052d1b00 	streq	r1, [sp, #-2816]!	; 0xfffff500
    1284:	10010000 	andne	r0, r1, r0
    1288:	002c1101 	eoreq	r1, ip, r1, lsl #2
    128c:	8bc00000 	blhi	ff001294 <__bss_end__+0xfeff5dc4>
    1290:	00e40000 	rsceq	r0, r4, r0
    1294:	9c010000 	stcls	0, cr0, [r1], {-0}
    1298:	00000461 	andeq	r0, r0, r1, ror #8
    129c:	00040d1a 	andeq	r0, r4, sl, lsl sp
    12a0:	01120100 	tsteq	r2, r0, lsl #2
    12a4:	00002c0e 	andeq	r2, r0, lr, lsl #24
    12a8:	00067900 	andeq	r7, r6, r0, lsl #18
    12ac:	00067500 	andeq	r7, r6, r0, lsl #10
    12b0:	04941a00 	ldreq	r1, [r4], #2560	; 0xa00
    12b4:	12010000 	andne	r0, r1, #0, 0
    12b8:	002c1b01 	eoreq	r1, ip, r1, lsl #22
    12bc:	069c0000 	ldreq	r0, [ip], r0
    12c0:	06980000 	ldreq	r0, [r8], r0
    12c4:	1c1a0000 	ldcne	0, cr0, [sl], {-0}
    12c8:	01000004 	tsteq	r0, r4
    12cc:	2c270112 	stfcss	f0, [r7], #-72	; 0xffffffb8
    12d0:	c1000000 	mrsgt	r0, (UNDEF: 0)
    12d4:	bb000006 	bllt	12f4 <__code_start__-0x6d0c>
    12d8:	15000006 	strne	r0, [r0, #-6]
    12dc:	0000005a 	andeq	r0, r0, sl, asr r0
    12e0:	00000471 	andeq	r0, r0, r1, ror r4
    12e4:	aca40305 	stcge	3, cr0, [r4], #20
    12e8:	781c0000 	ldmdavc	ip, {}	; <UNPREDICTABLE>
    12ec:	04000000 	streq	r0, [r0], #-0
    12f0:	1d000004 	stcne	0, cr0, [r0, #-16]
    12f4:	17010068 	strne	r0, [r1, -r8, rrx]
    12f8:	04761101 	ldrbteq	r1, [r6], #-257	; 0xfffffeff
    12fc:	06f30000 	ldrbteq	r0, [r3], r0
    1300:	06eb0000 	strbteq	r0, [fp], r0
    1304:	1f1e0000 	svcne	0x001e0000
    1308:	0c00000e 	stceq	0, cr0, [r0], {14}
    130c:	0000008c 	andeq	r0, r0, ip, lsl #1
    1310:	00008c0c 	andeq	r8, r0, ip, lsl #24
    1314:	00000018 	andeq	r0, r0, r8, lsl r0
    1318:	0d011e01 	stceq	14, cr1, [r1, #-4]
    131c:	000003b9 			; <UNDEFINED> instruction: 0x000003b9
    1320:	000e481f 	andeq	r4, lr, pc, lsl r8
    1324:	00072900 	andeq	r2, r7, r0, lsl #18
    1328:	00072700 	andeq	r2, r7, r0, lsl #14
    132c:	0e3c1f00 	cdpeq	15, 3, cr1, cr12, cr0, {0}
    1330:	07410000 	strbeq	r0, [r1, -r0]
    1334:	073f0000 	ldreq	r0, [pc, -r0]!
    1338:	301f0000 	andscc	r0, pc, r0
    133c:	5b00000e 	blpl	137c <__code_start__-0x6c84>
    1340:	59000007 	stmdbpl	r0, {r0, r1, r2}
    1344:	00000007 	andeq	r0, r0, r7
    1348:	008be818 	addeq	lr, fp, r8, lsl r8
    134c:	000e7c00 	andeq	r7, lr, r0, lsl #24
    1350:	8c341600 	ldchi	6, cr1, [r4], #-0
    1354:	0e880000 	cdpeq	0, 8, cr0, cr8, cr0, {0}
    1358:	03d60000 	bicseq	r0, r6, #0, 0
    135c:	01170000 	tsteq	r7, r0
    1360:	00760250 	rsbseq	r0, r6, r0, asr r2
    1364:	8c401600 	mcrrhi	6, 0, r1, r0, cr0
    1368:	0e550000 	cdpeq	0, 5, cr0, cr5, cr0, {0}
    136c:	03f30000 	mvnseq	r0, #0, 0
    1370:	01170000 	tsteq	r7, r0
    1374:	18030550 	stmdane	r3, {r4, r6, r8, sl}
    1378:	170000ab 	strne	r0, [r0, -fp, lsr #1]
    137c:	76025101 	strvc	r5, [r2], -r1, lsl #2
    1380:	48200000 	stmdami	r0!, {}	; <UNPREDICTABLE>
    1384:	9400008c 	strls	r0, [r0], #-140	; 0xffffff74
    1388:	1700000e 	strne	r0, [r0, -lr]
    138c:	74025001 	strvc	r5, [r2], #-1
    1390:	16000000 	strne	r0, [r0], -r0
    1394:	00008bd8 	ldrdeq	r8, [r0], -r8	; <UNPREDICTABLE>
    1398:	00000e55 	andeq	r0, r0, r5, asr lr
    139c:	0000041b 	andeq	r0, r0, fp, lsl r4
    13a0:	05500117 	ldrbeq	r0, [r0, #-279]	; 0xfffffee9
    13a4:	00a9d403 	adceq	sp, r9, r3, lsl #8
    13a8:	e0160000 	ands	r0, r6, r0
    13ac:	5500008b 	strpl	r0, [r0, #-139]	; 0xffffff75
    13b0:	3200000e 	andcc	r0, r0, #14, 0
    13b4:	17000004 	strne	r0, [r0, -r4]
    13b8:	03055001 	movweq	r5, #20481	; 0x5001
    13bc:	0000ab08 	andeq	sl, r0, r8, lsl #22
    13c0:	8be41800 	blhi	ff9073c8 <__bss_end__+0xff8fbef8>
    13c4:	093d0000 	ldmdbeq	sp!, {}	; <UNPREDICTABLE>
    13c8:	7c200000 	stcvc	0, cr0, [r0], #-0
    13cc:	5500008c 	strpl	r0, [r0, #-140]	; 0xffffff74
    13d0:	1700000e 	strne	r0, [r0, -lr]
    13d4:	03055001 	movweq	r5, #20481	; 0x5001
    13d8:	0000ab28 	andeq	sl, r0, r8, lsr #22
    13dc:	02510117 	subseq	r0, r1, #-1073741819	; 0xc0000005
    13e0:	01170075 	tsteq	r7, r5, ror r0
    13e4:	00780252 	rsbseq	r0, r8, r2, asr r2
    13e8:	02530117 	subseq	r0, r3, #-1073741819	; 0xc0000005
    13ec:	00000077 	andeq	r0, r0, r7, ror r0
    13f0:	0000cc10 	andeq	ip, r0, r0, lsl ip
    13f4:	00047100 	andeq	r7, r4, r0, lsl #2
    13f8:	002c1100 	eoreq	r1, ip, r0, lsl #2
    13fc:	000a0000 	andeq	r0, sl, r0
    1400:	00046109 	andeq	r6, r4, r9, lsl #2
    1404:	fc040800 	stc2	8, cr0, [r4], {-0}
    1408:	19000001 	stmdbne	r0, {r0}
    140c:	000004bf 			; <UNDEFINED> instruction: 0x000004bf
    1410:	0a010001 	beq	4141c <__bss_end__+0x35f4c>
    1414:	0000002c 	andeq	r0, r0, ip, lsr #32
    1418:	00008f38 	andeq	r8, r0, r8, lsr pc
    141c:	00000058 	andeq	r0, r0, r8, asr r0
    1420:	05259c01 	streq	r9, [r5, #-3073]!	; 0xfffff3ff
    1424:	741a0000 	ldrvc	r0, [sl], #-0
    1428:	01000004 	tsteq	r0, r4
    142c:	2c0e0106 	stfcss	f0, [lr], {6}
    1430:	79000000 	stmdbvc	r0, {}	; <UNPREDICTABLE>
    1434:	73000007 	movwvc	r0, #7
    1438:	15000007 	strne	r0, [r0, #-7]
    143c:	0000005a 	andeq	r0, r0, sl, asr r0
    1440:	00000535 	andeq	r0, r0, r5, lsr r5
    1444:	acc80305 	stclge	3, cr0, [r8], {5}
    1448:	4c160000 	ldcmi	0, cr0, [r6], {-0}
    144c:	d700008f 	strle	r0, [r0, -pc, lsl #1]
    1450:	ce000005 	cdpgt	0, 0, cr0, cr0, cr5, {0}
    1454:	17000004 	strne	r0, [r0, -r4]
    1458:	31015001 	tstcc	r1, r1
    145c:	8f601600 	svchi	0x00601600
    1460:	0e550000 	cdpeq	0, 5, cr0, cr5, cr0, {0}
    1464:	04eb0000 	strbteq	r0, [fp], #0
    1468:	01170000 	tsteq	r7, r0
    146c:	48030550 	stmdami	r3, {r4, r6, r8, sl}
    1470:	170000ac 	strne	r0, [r0, -ip, lsr #1]
    1474:	74025101 	strvc	r5, [r2], #-257	; 0xfffffeff
    1478:	7c160000 	ldcvc	0, cr0, [r6], {-0}
    147c:	5500008f 	strpl	r0, [r0, #-143]	; 0xffffff71
    1480:	1b00000e 	blne	14c0 <__code_start__-0x6b40>
    1484:	17000005 	strne	r0, [r0, -r5]
    1488:	03055001 	movweq	r5, #20481	; 0x5001
    148c:	0000ac20 	andeq	sl, r0, r0, lsr #24
    1490:	05510117 	ldrbeq	r0, [r1, #-279]	; 0xfffffee9
    1494:	00a93c03 	adceq	r3, r9, r3, lsl #24
    1498:	52011700 	andpl	r1, r1, #0, 14
    149c:	acc80305 	stclge	3, cr0, [r8], {5}
    14a0:	01170000 	tsteq	r7, r0
    14a4:	080a0353 	stmdaeq	sl, {r0, r1, r4, r6, r8, r9}
    14a8:	80180001 	andshi	r0, r8, r1
    14ac:	6100008f 	smlabbvs	r0, pc, r0, r0	; <UNPREDICTABLE>
    14b0:	0000000e 	andeq	r0, r0, lr
    14b4:	0000cc10 	andeq	ip, r0, r0, lsl ip
    14b8:	00053500 	andeq	r3, r5, r0, lsl #10
    14bc:	002c1100 	eoreq	r1, ip, r0, lsl #2
    14c0:	00110000 	andseq	r0, r1, r0
    14c4:	00052509 	andeq	r2, r5, r9, lsl #10
    14c8:	049b2100 	ldreq	r2, [fp], #256	; 0x100
    14cc:	f2010000 	vhadd.s8	d0, d1, d0
    14d0:	008ed006 	addeq	sp, lr, r6
    14d4:	00005000 	andeq	r5, r0, r0
    14d8:	c29c0100 	addsgt	r0, ip, #0
    14dc:	15000005 	strne	r0, [r0, #-5]
    14e0:	0000005a 	andeq	r0, r0, sl, asr r0
    14e4:	000005d2 	ldrdeq	r0, [r0], -r2
    14e8:	acb80305 	ldcge	3, cr0, [r8], #20
    14ec:	e4160000 	ldr	r0, [r6], #-0
    14f0:	d700008e 	strle	r0, [r0, -lr, lsl #1]
    14f4:	72000005 	andvc	r0, r0, #5, 0
    14f8:	17000005 	strne	r0, [r0, -r5]
    14fc:	31015001 	tstcc	r1, r1
    1500:	8ef41600 	cdphi	6, 15, cr1, cr4, cr0, {0}
    1504:	0e550000 	cdpeq	0, 5, cr0, cr5, cr0, {0}
    1508:	05890000 	streq	r0, [r9]
    150c:	01170000 	tsteq	r7, r0
    1510:	00030550 	andeq	r0, r3, r0, asr r5
    1514:	000000ac 	andeq	r0, r0, ip, lsr #1
    1518:	008f0c16 	addeq	r0, pc, r6, lsl ip	; <UNPREDICTABLE>
    151c:	000e5500 	andeq	r5, lr, r0, lsl #10
    1520:	0005b800 	andeq	fp, r5, r0, lsl #16
    1524:	50011700 	andpl	r1, r1, r0, lsl #14
    1528:	abd40305 	blge	ff502144 <__bss_end__+0xff4f6c74>
    152c:	01170000 	tsteq	r7, r0
    1530:	3c030551 	cfstr32cc	mvfx0, [r3], {81}	; 0x51
    1534:	170000a9 	strne	r0, [r0, -r9, lsr #1]
    1538:	03055201 	movweq	r5, #20993	; 0x5201
    153c:	0000acb8 			; <UNDEFINED> instruction: 0x0000acb8
    1540:	02530117 	subseq	r0, r3, #-1073741819	; 0xc0000005
    1544:	1800f908 	stmdane	r0, {r3, r8, fp, ip, sp, lr, pc}
    1548:	00008f10 	andeq	r8, r0, r0, lsl pc
    154c:	00000e61 	andeq	r0, r0, r1, ror #28
    1550:	00cc1000 	sbceq	r1, ip, r0
    1554:	05d20000 	ldrbeq	r0, [r2]
    1558:	2c110000 	ldccs	0, cr0, [r1], {-0}
    155c:	0d000000 	stceq	0, cr0, [r0, #-0]
    1560:	05c20900 	strbeq	r0, [r2, #2304]	; 0x900
    1564:	3c220000 	stccc	0, cr0, [r2], #-0
    1568:	01000004 	tsteq	r0, r4
    156c:	002c0aeb 	eoreq	r0, ip, fp, ror #21
    1570:	8ea80000 	cdphi	0, 10, cr0, cr8, cr0, {0}
    1574:	00140000 	andseq	r0, r4, r0
    1578:	9c010000 	stcls	0, cr0, [r1], {-0}
    157c:	00000617 	andeq	r0, r0, r7, lsl r6
    1580:	00053823 	andeq	r3, r5, r3, lsr #16
    1584:	1ceb0100 	stfnee	f0, [fp]
    1588:	00000025 	andeq	r0, r0, r5, lsr #32
    158c:	000007a6 	andeq	r0, r0, r6, lsr #15
    1590:	000007a2 	andeq	r0, r0, r2, lsr #15
    1594:	008eb820 	addeq	fp, lr, r0, lsr #16
    1598:	00061700 	andeq	r1, r6, r0, lsl #14
    159c:	50011700 	andpl	r1, r1, r0, lsl #14
    15a0:	5001f303 	andpl	pc, r1, r3, lsl #6
    15a4:	13240000 			; <UNDEFINED> instruction: 0x13240000
    15a8:	01000005 	tsteq	r0, r5
    15ac:	002c11c2 	eoreq	r1, ip, r2, asr #3
    15b0:	8ab40000 	bhi	fed015b8 <__bss_end__+0xfecf60e8>
    15b4:	00fc0000 	rscseq	r0, ip, r0
    15b8:	9c010000 	stcls	0, cr0, [r1], {-0}
    15bc:	0000079e 	muleq	r0, lr, r7
    15c0:	00053823 	andeq	r3, r5, r3, lsr #16
    15c4:	20c20100 	sbccs	r0, r2, r0, lsl #2
    15c8:	00000025 	andeq	r0, r0, r5, lsr #32
    15cc:	000007cb 	andeq	r0, r0, fp, asr #15
    15d0:	000007c7 	andeq	r0, r0, r7, asr #15
    15d4:	00040d25 	andeq	r0, r4, r5, lsr #26
    15d8:	0ec40100 	poleqs	f0, f4, f0
    15dc:	0000002c 	andeq	r0, r0, ip, lsr #32
    15e0:	000007ed 	andeq	r0, r0, sp, ror #15
    15e4:	000007e9 	andeq	r0, r0, r9, ror #15
    15e8:	00045025 	andeq	r5, r4, r5, lsr #32
    15ec:	1bc40100 	blne	ff1019f4 <__bss_end__+0xff0f6524>
    15f0:	0000002c 	andeq	r0, r0, ip, lsr #32
    15f4:	00000812 	andeq	r0, r0, r2, lsl r8
    15f8:	0000080c 	andeq	r0, r0, ip, lsl #16
    15fc:	00044a25 	andeq	r4, r4, r5, lsr #20
    1600:	27c40100 	strbcs	r0, [r4, r0, lsl #2]
    1604:	0000002c 	andeq	r0, r0, ip, lsr #32
    1608:	00000840 	andeq	r0, r0, r0, asr #16
    160c:	0000083c 	andeq	r0, r0, ip, lsr r8
    1610:	0000601c 	andeq	r6, r0, ip, lsl r0
    1614:	0006fc00 	andeq	pc, r6, r0, lsl #24
    1618:	00682600 	rsbeq	r2, r8, r0, lsl #12
    161c:	7611c901 	ldrvc	ip, [r1], -r1, lsl #18
    1620:	6d000004 	stcvs	0, cr0, [r0, #-16]
    1624:	5f000008 	svcpl	0x00000008
    1628:	18000008 	stmdane	r0, {r3}
    162c:	00008adc 	ldrdeq	r8, [r0], -ip
    1630:	00000e7c 	andeq	r0, r0, ip, ror lr
    1634:	008b0416 	addeq	r0, fp, r6, lsl r4
    1638:	000e5500 	andeq	r5, lr, r0, lsl #10
    163c:	0006c800 	andeq	ip, r6, r0, lsl #16
    1640:	50011700 	andpl	r1, r1, r0, lsl #14
    1644:	aa280305 	bge	a02260 <__bss_end__+0x9f6d90>
    1648:	01170000 	tsteq	r7, r0
    164c:	00750251 	rsbseq	r0, r5, r1, asr r2
    1650:	02520117 	subseq	r0, r2, #-1073741819	; 0xc0000005
    1654:	16000074 			; <UNDEFINED> instruction: 0x16000074
    1658:	00008b0c 	andeq	r8, r0, ip, lsl #22
    165c:	00000e94 	muleq	r0, r4, lr
    1660:	000006dc 	ldrdeq	r0, [r0], -ip
    1664:	02500117 	subseq	r0, r0, #-1073741819	; 0xc0000005
    1668:	20000074 	andcs	r0, r0, r4, ror r0
    166c:	00008b44 	andeq	r8, r0, r4, asr #22
    1670:	00000e55 	andeq	r0, r0, r5, asr lr
    1674:	05500117 	ldrbeq	r0, [r0, #-279]	; 0xfffffee9
    1678:	00aa3c03 	adceq	r3, sl, r3, lsl #24
    167c:	51011700 	tstpl	r1, r0, lsl #14
    1680:	17007502 	strne	r7, [r0, -r2, lsl #10]
    1684:	74025201 	strvc	r5, [r2], #-513	; 0xfffffdff
    1688:	16000000 	strne	r0, [r0], -r0
    168c:	00008acc 	andeq	r8, r0, ip, asr #21
    1690:	00000e55 	andeq	r0, r0, r5, asr lr
    1694:	00000713 	andeq	r0, r0, r3, lsl r7
    1698:	05500117 	ldrbeq	r0, [r0, #-279]	; 0xfffffee9
    169c:	00a9d403 	adceq	sp, r9, r3, lsl #8
    16a0:	d4160000 	ldrle	r0, [r6], #-0
    16a4:	5500008a 	strpl	r0, [r0, #-138]	; 0xffffff76
    16a8:	2a00000e 	bcs	16e8 <__code_start__-0x6918>
    16ac:	17000007 	strne	r0, [r0, -r7]
    16b0:	03055001 	movweq	r5, #20481	; 0x5001
    16b4:	0000aa10 	andeq	sl, r0, r0, lsl sl
    16b8:	8ad81800 	bhi	ff6076c0 <__bss_end__+0xff5fc1f0>
    16bc:	093d0000 	ldmdbeq	sp!, {}	; <UNPREDICTABLE>
    16c0:	54160000 	ldrpl	r0, [r6], #-0
    16c4:	5500008b 	strpl	r0, [r0, #-139]	; 0xffffff75
    16c8:	5000000e 	andpl	r0, r0, lr
    16cc:	17000007 	strne	r0, [r0, -r7]
    16d0:	03055001 	movweq	r5, #20481	; 0x5001
    16d4:	0000aa54 	andeq	sl, r0, r4, asr sl
    16d8:	02510117 	subseq	r0, r1, #-1073741819	; 0xc0000005
    16dc:	16000075 			; <UNDEFINED> instruction: 0x16000075
    16e0:	00008b64 	andeq	r8, r0, r4, ror #22
    16e4:	00000e55 	andeq	r0, r0, r5, asr lr
    16e8:	00000767 	andeq	r0, r0, r7, ror #14
    16ec:	05500117 	ldrbeq	r0, [r0, #-279]	; 0xfffffee9
    16f0:	00aa7403 	adceq	r7, sl, r3, lsl #8
    16f4:	6c160000 	ldcvs	0, cr0, [r6], {-0}
    16f8:	5500008b 	strpl	r0, [r0, #-139]	; 0xffffff75
    16fc:	7e00000e 	cdpvc	0, 0, cr0, cr0, cr14, {0}
    1700:	17000007 	strne	r0, [r0, -r7]
    1704:	03055001 	movweq	r5, #20481	; 0x5001
    1708:	0000aacc 	andeq	sl, r0, ip, asr #21
    170c:	8b8c2000 	blhi	fe309714 <__bss_end__+0xfe2fe244>
    1710:	0e550000 	cdpeq	0, 5, cr0, cr5, cr0, {0}
    1714:	01170000 	tsteq	r7, r0
    1718:	9c030550 	cfstr32ls	mvfx0, [r3], {80}	; 0x50
    171c:	170000aa 	strne	r0, [r0, -sl, lsr #1]
    1720:	76025101 	strvc	r5, [r2], -r1, lsl #2
    1724:	52011700 	andpl	r1, r1, #0, 14
    1728:	00007802 	andeq	r7, r0, r2, lsl #16
    172c:	01e92200 	mvneq	r2, r0, lsl #4
    1730:	ac010000 	stcge	0, cr0, [r1], {-0}
    1734:	00002505 	andeq	r2, r0, r5, lsl #10
    1738:	008dc000 	addeq	ip, sp, r0
    173c:	0000d400 	andeq	sp, r0, r0, lsl #8
    1740:	ce9c0100 	fmlgte	f0, f4, f0
    1744:	25000008 	strcs	r0, [r0, #-8]
    1748:	00000450 	andeq	r0, r0, r0, asr r4
    174c:	2509ad01 	strcs	sl, [r9, #-3329]	; 0xfffff2ff
    1750:	c6000000 	strgt	r0, [r0], -r0
    1754:	c2000008 	andgt	r0, r0, #8, 0
    1758:	27000008 	strcs	r0, [r0, -r8]
    175c:	000000a8 	andeq	r0, r0, r8, lsr #1
    1760:	01006826 	tsteq	r0, r6, lsr #16
    1764:	047611ae 	ldrbteq	r1, [r6], #-430	; 0xfffffe52
    1768:	08f10000 	ldmeq	r1!, {}^	; <UNPREDICTABLE>
    176c:	08e50000 	stmiaeq	r5!, {}^	; <UNPREDICTABLE>
    1770:	c01c0000 	andsgt	r0, ip, r0
    1774:	b3000000 	movwlt	r0, #0
    1778:	25000008 	strcs	r0, [r0, #-8]
    177c:	0000047b 	andeq	r0, r0, fp, ror r4
    1780:	250daf01 	strcs	sl, [sp, #-3841]	; 0xfffff0ff
    1784:	43000000 	movwmi	r0, #0
    1788:	3b000009 	blcc	17b4 <__code_start__-0x684c>
    178c:	1c000009 	stcne	0, cr0, [r0], {9}
    1790:	000000d8 	ldrdeq	r0, [r0], -r8
    1794:	0000085a 	andeq	r0, r0, sl, asr r8
    1798:	01006526 	tsteq	r0, r6, lsr #10
    179c:	002511b4 	strhteq	r1, [r5], -r4
    17a0:	097c0000 	ldmdbeq	ip!, {}^	; <UNPREDICTABLE>
    17a4:	09780000 	ldmdbeq	r8!, {}^	; <UNPREDICTABLE>
    17a8:	f0160000 			; <UNDEFINED> instruction: 0xf0160000
    17ac:	5500008d 	strpl	r0, [r0, #-141]	; 0xffffff73
    17b0:	3200000e 	andcc	r0, r0, #14, 0
    17b4:	17000008 	strne	r0, [r0, -r8]
    17b8:	03055001 	movweq	r5, #20481	; 0x5001
    17bc:	0000a828 	andeq	sl, r0, r8, lsr #16
    17c0:	8df81600 	ldclhi	6, cr1, [r8]
    17c4:	0e550000 	cdpeq	0, 5, cr0, cr5, cr0, {0}
    17c8:	08490000 	stmdaeq	r9, {}^	; <UNPREDICTABLE>
    17cc:	01170000 	tsteq	r7, r0
    17d0:	bc030550 	cfstr32lt	mvfx0, [r3], {80}	; 0x50
    17d4:	000000ab 	andeq	r0, r0, fp, lsr #1
    17d8:	008e7020 	addeq	r7, lr, r0, lsr #32
    17dc:	0008ce00 	andeq	ip, r8, r0, lsl #28
    17e0:	50011700 	andpl	r1, r1, r0, lsl #14
    17e4:	00007702 	andeq	r7, r0, r2, lsl #14
    17e8:	8e1c1600 	cfmsub32hi	mvax0, mvfx1, mvfx12, mvfx0
    17ec:	08ce0000 	stmiaeq	lr, {}^	; <UNPREDICTABLE>
    17f0:	08740000 	ldmdaeq	r4!, {}^	; <UNPREDICTABLE>
    17f4:	01170000 	tsteq	r7, r0
    17f8:	32740250 	rsbscc	r0, r4, #80, 4
    17fc:	02510117 	subseq	r0, r1, #-1073741819	; 0xc0000005
    1800:	16008008 	strne	r8, [r0], -r8
    1804:	00008e38 	andeq	r8, r0, r8, lsr lr
    1808:	000008ce 	andeq	r0, r0, lr, asr #17
    180c:	00000888 	andeq	r0, r0, r8, lsl #17
    1810:	02510117 	subseq	r0, r1, #-1073741819	; 0xc0000005
    1814:	16008008 	strne	r8, [r0], -r8
    1818:	00008e50 	andeq	r8, r0, r0, asr lr
    181c:	00000e55 	andeq	r0, r0, r5, asr lr
    1820:	0000089f 	muleq	r0, pc, r8	; <UNPREDICTABLE>
    1824:	05500117 	ldrbeq	r0, [r0, #-279]	; 0xfffffee9
    1828:	00a82803 	adceq	r2, r8, r3, lsl #16
    182c:	58200000 	stmdapl	r0!, {}	; <UNPREDICTABLE>
    1830:	5500008e 	strpl	r0, [r0, #-142]	; 0xffffff72
    1834:	1700000e 	strne	r0, [r0, -lr]
    1838:	03055001 	movweq	r5, #20481	; 0x5001
    183c:	0000ab8c 	andeq	sl, r0, ip, lsl #23
    1840:	d0180000 	andsle	r0, r8, r0
    1844:	7c00008d 	stcvc	0, cr0, [r0], {141}	; 0x8d
    1848:	2000000e 	andcs	r0, r0, lr
    184c:	00008e04 	andeq	r8, r0, r4, lsl #28
    1850:	00000e94 	muleq	r0, r4, lr
    1854:	02500117 	subseq	r0, r0, #-1073741819	; 0xc0000005
    1858:	00000074 	andeq	r0, r0, r4, ror r0
    185c:	04dd2200 	ldrbeq	r2, [sp], #512	; 0x200
    1860:	a2010000 	andge	r0, r1, #0, 0
    1864:	00002c0e 	andeq	r2, r0, lr, lsl #24
    1868:	008d7000 	addeq	r7, sp, r0
    186c:	00003c00 	andeq	r3, r0, r0, lsl #24
    1870:	379c0100 	ldrcc	r0, [ip, r0, lsl #2]
    1874:	23000009 	movwcs	r0, #9
    1878:	000004ec 	andeq	r0, r0, ip, ror #9
    187c:	3723a201 	strcc	sl, [r3, -r1, lsl #4]!
    1880:	9e000009 	cdpls	0, 0, cr0, cr0, cr9, {0}
    1884:	9a000009 	bls	18b0 <__code_start__-0x6750>
    1888:	28000009 	stmdacs	r0, {r0, r3}
    188c:	0000036d 	andeq	r0, r0, sp, ror #6
    1890:	2530a201 	ldrcs	sl, [r0, #-513]!	; 0xfffffdff
    1894:	01000000 	mrseq	r0, (UNDEF: 0)
    1898:	054c2551 	strbeq	r2, [ip, #-1361]	; 0xfffffaaf
    189c:	a3010000 	movwge	r0, #4096	; 0x1000
    18a0:	00002509 	andeq	r2, r0, r9, lsl #10
    18a4:	0009c000 	andeq	ip, r9, r0
    18a8:	0009bc00 	andeq	fp, r9, r0, lsl #24
    18ac:	00902700 	addseq	r2, r0, r0, lsl #14
    18b0:	69260000 	stmdbvs	r6!, {}	; <UNPREDICTABLE>
    18b4:	0ea40100 	fdveqs	f0, f4, f0
    18b8:	00000025 	andeq	r0, r0, r5, lsr #32
    18bc:	000009e3 	andeq	r0, r0, r3, ror #19
    18c0:	000009df 	ldrdeq	r0, [r0], -pc	; <UNPREDICTABLE>
    18c4:	04080000 	streq	r0, [r8], #-0
    18c8:	000000c5 	andeq	r0, r0, r5, asr #1
    18cc:	0003e729 	andeq	lr, r3, r9, lsr #14
    18d0:	0d790100 	ldfeqe	f0, [r9, #-0]
    18d4:	000089f8 	strdeq	r8, [r0], -r8	; <UNPREDICTABLE>
    18d8:	000000ac 	andeq	r0, r0, ip, lsr #1
    18dc:	0a4b9c01 	beq	12e88e8 <__bss_end__+0x12dd418>
    18e0:	6f130000 	svcvs	0x00130000
    18e4:	01000004 	tsteq	r0, r4
    18e8:	0a4b0e85 	beq	12c5304 <__bss_end__+0x12b9e34>
    18ec:	91030000 	mrsls	r0, (UNDEF: 3)
    18f0:	dd2a7fb0 	stcle	15, cr7, [sl, #-704]!	; 0xfffffd40
    18f4:	01000003 	tsteq	r0, r3
    18f8:	0a5b0f96 	beq	16c5758 <__bss_end__+0x16ba288>
    18fc:	00000000 	andeq	r0, r0, r0
    1900:	ff070800 			; <UNDEFINED> instruction: 0xff070800
    1904:	01000003 	tsteq	r0, r3
    1908:	0075159b 			; <UNDEFINED> instruction: 0x0075159b
    190c:	d1070000 	mrsle	r0, (UNDEF: 7)
    1910:	01000004 	tsteq	r0, r4
    1914:	0075249b 			; <UNDEFINED> instruction: 0x0075249b
    1918:	1e070000 	cdpne	0, 0, cr0, cr7, cr0, {0}
    191c:	01000005 	tsteq	r0, r5
    1920:	0075159e 			; <UNDEFINED> instruction: 0x0075159e
    1924:	5d070000 	stcpl	0, cr0, [r7, #-0]
    1928:	01000004 	tsteq	r0, r4
    192c:	0075259e 			; <UNDEFINED> instruction: 0x0075259e
    1930:	082b0000 	stmdaeq	fp!, {}	; <UNPREDICTABLE>
    1934:	2400008a 	strcs	r0, [r0], #-138	; 0xffffff76
    1938:	d5000000 	strle	r0, [r0, #-0]
    193c:	26000009 	strcs	r0, [r0], -r9
    1940:	7e010068 	cdpvc	0, 0, cr0, cr1, cr8, {3}
    1944:	00047611 	andeq	r7, r4, r1, lsl r6
    1948:	000a0600 	andeq	r0, sl, r0, lsl #12
    194c:	000a0200 	andeq	r0, sl, r0, lsl #4
    1950:	8a0c1800 	bhi	307958 <__bss_end__+0x2fc488>
    1954:	0e7c0000 	cdpeq	0, 7, cr0, cr12, cr0, {0}
    1958:	28180000 	ldmdacs	r8, {}	; <UNPREDICTABLE>
    195c:	9400008a 	strls	r0, [r0], #-138	; 0xffffff76
    1960:	0000000e 	andeq	r0, r0, lr
    1964:	008a3416 	addeq	r3, sl, r6, lsl r4
    1968:	000ea000 	andeq	sl, lr, r0
    196c:	0009ea00 	andeq	lr, r9, r0, lsl #20
    1970:	50011700 	andpl	r1, r1, r0, lsl #14
    1974:	7fb47b03 	svcvc	0x00b47b03
    1978:	8a541600 	bhi	1507180 <__bss_end__+0x14fbcb0>
    197c:	0a610000 	beq	1841984 <__bss_end__+0x18364b4>
    1980:	0a050000 	beq	141988 <__bss_end__+0x1364b8>
    1984:	01170000 	tsteq	r7, r0
    1988:	b47b0350 	ldrbtlt	r0, [fp], #-848	; 0xfffffcb0
    198c:	5101177f 	tstpl	r1, pc, ror r7
    1990:	006c7b02 	rsbeq	r7, ip, r2, lsl #22
    1994:	008a6416 	addeq	r6, sl, r6, lsl r4
    1998:	000e5500 	andeq	r5, lr, r0, lsl #10
    199c:	000a2300 	andeq	r2, sl, r0, lsl #6
    19a0:	50011700 	andpl	r1, r1, r0, lsl #14
    19a4:	a9b80305 	ldmibge	r8!, {r0, r2, r8, r9}
    19a8:	01170000 	tsteq	r7, r0
    19ac:	47400352 	smlsldmi	r0, r0, r2, r3	; <UNPREDICTABLE>
    19b0:	70160024 	andsvc	r0, r6, r4, lsr #32
    19b4:	6100008a 	smlabbvs	r0, sl, r0, r0
    19b8:	3800000a 	stmdacc	r0, {r1, r3}
    19bc:	1700000a 	strne	r0, [r0, -sl]
    19c0:	40035101 	andmi	r5, r3, r1, lsl #2
    19c4:	18002447 	stmdane	r0, {r0, r1, r2, r6, sl, sp}
    19c8:	00008a7c 	andeq	r8, r0, ip, ror sl
    19cc:	00000a61 	andeq	r0, r0, r1, ror #20
    19d0:	008a8818 	addeq	r8, sl, r8, lsl r8
    19d4:	000a6100 	andeq	r6, sl, r0, lsl #2
    19d8:	75100000 	ldrvc	r0, [r0, #-0]
    19dc:	5b000000 	blpl	19e4 <__code_start__-0x661c>
    19e0:	1100000a 	tstne	r0, sl
    19e4:	0000002c 	andeq	r0, r0, ip, lsr #32
    19e8:	0408000f 	streq	r0, [r8], #-15
    19ec:	00000075 	andeq	r0, r0, r5, ror r0
    19f0:	00042d29 	andeq	r2, r4, r9, lsr #26
    19f4:	0d500100 	ldfeqe	f0, [r0, #-0]
    19f8:	00008858 	andeq	r8, r0, r8, asr r8
    19fc:	00000190 	muleq	r0, r0, r1
    1a00:	0c9f9c01 	ldceq	12, cr9, [pc], {1}
    1a04:	702c0000 	eorvc	r0, ip, r0
    1a08:	1c500100 	ldfnee	f0, [r0], {-0}
    1a0c:	00000a5b 	andeq	r0, r0, fp, asr sl
    1a10:	00000a32 	andeq	r0, r0, r2, lsr sl
    1a14:	00000a24 	andeq	r0, r0, r4, lsr #20
    1a18:	0100652c 	tsteq	r0, ip, lsr #10
    1a1c:	0a5b2950 	beq	16cbf64 <__bss_end__+0x16c0a94>
    1a20:	0a9b0000 	beq	fe6c1a28 <__bss_end__+0xfe6b6558>
    1a24:	0a8d0000 	beq	fe341a2c <__bss_end__+0xfe33655c>
    1a28:	5a150000 	bpl	541a30 <__bss_end__+0x536560>
    1a2c:	af000000 	svcge	0x00000000
    1a30:	0500000c 	streq	r0, [r0, #-12]
    1a34:	00ac9c03 	adceq	r9, ip, r3, lsl #24
    1a38:	88e82b00 	stmiahi	r8!, {r8, r9, fp, sp}^
    1a3c:	00d40000 	sbcseq	r0, r4, r0
    1a40:	0bd80000 	bleq	ff601a48 <__bss_end__+0xff5f6578>
    1a44:	69260000 	stmdbvs	r6!, {}	; <UNPREDICTABLE>
    1a48:	14580100 	ldrbne	r0, [r8], #-256	; 0xffffff00
    1a4c:	00000a5b 	andeq	r0, r0, fp, asr sl
    1a50:	00000af8 	strdeq	r0, [r0], -r8
    1a54:	00000af6 	strdeq	r0, [r0], -r6
    1a58:	00001827 	andeq	r1, r0, r7, lsr #16
    1a5c:	00622600 	rsbeq	r2, r2, r0, lsl #12
    1a60:	76105a01 	ldrvc	r5, [r0], -r1, lsl #20
    1a64:	0f000004 	svceq	0x00000004
    1a68:	0b00000b 	bleq	1a9c <__code_start__-0x6564>
    1a6c:	1c00000b 	stcne	0, cr0, [r0], {11}
    1a70:	00000048 	andeq	r0, r0, r8, asr #32
    1a74:	00000b88 	andeq	r0, r0, r8, lsl #23
    1a78:	70786526 	rsbsvc	r6, r8, r6, lsr #10
    1a7c:	165d0100 	ldrbne	r0, [sp], -r0, lsl #2
    1a80:	00000075 	andeq	r0, r0, r5, ror r0
    1a84:	00000b31 	andeq	r0, r0, r1, lsr fp
    1a88:	00000b2d 	andeq	r0, r0, sp, lsr #22
    1a8c:	00042925 	andeq	r2, r4, r5, lsr #18
    1a90:	165e0100 	ldrbne	r0, [lr], -r0, lsl #2
    1a94:	00000062 	andeq	r0, r0, r2, rrx
    1a98:	00000b53 	andeq	r0, r0, r3, asr fp
    1a9c:	00000b4f 	andeq	r0, r0, pc, asr #22
    1aa0:	00890416 	addeq	r0, r9, r6, lsl r4
    1aa4:	000e5500 	andeq	r5, lr, r0, lsl #10
    1aa8:	000b2800 	andeq	r2, fp, r0, lsl #16
    1aac:	50011700 	andpl	r1, r1, r0, lsl #14
    1ab0:	a9980305 	ldmibge	r8, {r0, r2, r8, r9}
    1ab4:	16000000 	strne	r0, [r0], -r0
    1ab8:	00008950 	andeq	r8, r0, r0, asr r9
    1abc:	00000eac 	andeq	r0, r0, ip, lsr #29
    1ac0:	00000b3c 	andeq	r0, r0, ip, lsr fp
    1ac4:	02500117 	subseq	r0, r0, #-1073741819	; 0xc0000005
    1ac8:	16000075 			; <UNDEFINED> instruction: 0x16000075
    1acc:	00008968 	andeq	r8, r0, r8, ror #18
    1ad0:	00000e55 	andeq	r0, r0, r5, asr lr
    1ad4:	00000b60 	andeq	r0, r0, r0, ror #22
    1ad8:	05500117 	ldrbeq	r0, [r0, #-279]	; 0xfffffee9
    1adc:	00a96c03 	adceq	r6, r9, r3, lsl #24
    1ae0:	52011700 	andpl	r1, r1, #0, 14
    1ae4:	17007402 	strne	r7, [r0, -r2, lsl #8]
    1ae8:	02007d02 	andeq	r7, r0, #128	; 0x80
    1aec:	16000076 			; <UNDEFINED> instruction: 0x16000076
    1af0:	000089ac 	andeq	r8, r0, ip, lsr #19
    1af4:	00000a61 	andeq	r0, r0, r1, ror #20
    1af8:	00000b74 	andeq	r0, r0, r4, ror fp
    1afc:	02500117 	subseq	r0, r0, #-1073741819	; 0xc0000005
    1b00:	20000475 	andcs	r0, r0, r5, ror r4
    1b04:	000089b8 			; <UNDEFINED> instruction: 0x000089b8
    1b08:	00000e55 	andeq	r0, r0, r5, asr lr
    1b0c:	05500117 	ldrbeq	r0, [r0, #-279]	; 0xfffffee9
    1b10:	00a9a803 	adceq	sl, r9, r3, lsl #16
    1b14:	2d000000 	stccs	0, cr0, [r0, #-0]
    1b18:	00000cb4 			; <UNDEFINED> instruction: 0x00000cb4
    1b1c:	0000891c 	andeq	r8, r0, ip, lsl r9
    1b20:	00003000 	andeq	r3, r0, r0
    1b24:	145a0100 	ldrbne	r0, [sl], #-256	; 0xffffff00
    1b28:	000cc52e 	andeq	ip, ip, lr, lsr #10
    1b2c:	00302700 	eorseq	r2, r0, r0, lsl #14
    1b30:	d12f0000 			; <UNDEFINED> instruction: 0xd12f0000
    1b34:	7500000c 	strvc	r0, [r0, #-12]
    1b38:	7100000b 	tstvc	r0, fp
    1b3c:	1600000b 	strne	r0, [r0], -fp
    1b40:	00008924 	andeq	r8, r0, r4, lsr #18
    1b44:	00000cdc 	ldrdeq	r0, [r0], -ip
    1b48:	00000bc4 	andeq	r0, r0, r4, asr #23
    1b4c:	02500117 	subseq	r0, r0, #-1073741819	; 0xc0000005
    1b50:	20000075 	andcs	r0, r0, r5, ror r0
    1b54:	00008934 	andeq	r8, r0, r4, lsr r9
    1b58:	00000eb8 			; <UNDEFINED> instruction: 0x00000eb8
    1b5c:	02500117 	subseq	r0, r0, #-1073741819	; 0xc0000005
    1b60:	00000075 	andeq	r0, r0, r5, ror r0
    1b64:	16000000 	strne	r0, [r0], -r0
    1b68:	000088a4 	andeq	r8, r0, r4, lsr #17
    1b6c:	00000e55 	andeq	r0, r0, r5, asr lr
    1b70:	00000c11 	andeq	r0, r0, r1, lsl ip
    1b74:	05500117 	ldrbeq	r0, [r0, #-279]	; 0xfffffee9
    1b78:	00a8c803 	adceq	ip, r8, r3, lsl #16
    1b7c:	51011700 	tstpl	r1, r0, lsl #14
    1b80:	a93c0305 	ldmdbge	ip!, {r0, r2, r8, r9}
    1b84:	01170000 	tsteq	r7, r0
    1b88:	9c030552 	cfstr32ls	mvfx0, [r3], {82}	; 0x52
    1b8c:	170000ac 	strne	r0, [r0, -ip, lsr #1]
    1b90:	08025301 	stmdaeq	r2, {r0, r8, r9, ip, lr}
    1b94:	7d021756 	stcvc	7, cr1, [r2, #-344]	; 0xfffffea8
    1b98:	5c030500 	cfstr32pl	mvfx0, [r3], {-0}
    1b9c:	000000a9 	andeq	r0, r0, r9, lsr #1
    1ba0:	0088a818 	addeq	sl, r8, r8, lsl r8
    1ba4:	000e6100 	andeq	r6, lr, r0, lsl #2
    1ba8:	88c41600 	stmiahi	r4, {r9, sl, ip}^
    1bac:	0e550000 	cdpeq	0, 5, cr0, cr5, cr0, {0}
    1bb0:	0c530000 	mraeq	r0, r3, acc0
    1bb4:	01170000 	tsteq	r7, r0
    1bb8:	c8030550 	stmdagt	r3, {r4, r6, r8, sl}
    1bbc:	170000a8 	strne	r0, [r0, -r8, lsr #1]
    1bc0:	03055101 	movweq	r5, #20737	; 0x5101
    1bc4:	0000a93c 	andeq	sl, r0, ip, lsr r9
    1bc8:	05520117 	ldrbeq	r0, [r2, #-279]	; 0xfffffee9
    1bcc:	00ac9c03 	adceq	r9, ip, r3, lsl #24
    1bd0:	53011700 	movwpl	r1, #5888	; 0x1700
    1bd4:	17520802 	ldrbne	r0, [r2, -r2, lsl #16]
    1bd8:	05007d02 	streq	r7, [r0, #-3330]	; 0xfffff2fe
    1bdc:	00a94403 	adceq	r4, r9, r3, lsl #8
    1be0:	c8180000 	ldmdagt	r8, {}	; <UNPREDICTABLE>
    1be4:	61000088 	smlabbvs	r0, r8, r0, r0
    1be8:	1600000e 	strne	r0, [r0], -lr
    1bec:	000088e4 	andeq	r8, r0, r4, ror #17
    1bf0:	00000e55 	andeq	r0, r0, r5, asr lr
    1bf4:	00000c95 	muleq	r0, r5, ip
    1bf8:	05500117 	ldrbeq	r0, [r0, #-279]	; 0xfffffee9
    1bfc:	00a8c803 	adceq	ip, r8, r3, lsl #16
    1c00:	51011700 	tstpl	r1, r0, lsl #14
    1c04:	a93c0305 	ldmdbge	ip!, {r0, r2, r8, r9}
    1c08:	01170000 	tsteq	r7, r0
    1c0c:	9c030552 	cfstr32ls	mvfx0, [r3], {82}	; 0x52
    1c10:	170000ac 	strne	r0, [r0, -ip, lsr #1]
    1c14:	08025301 	stmdaeq	r2, {r0, r8, r9, ip, lr}
    1c18:	7d021755 	stcvc	7, cr1, [r2, #-340]	; 0xfffffeac
    1c1c:	4c030500 	cfstr32mi	mvfx0, [r3], {-0}
    1c20:	000000a9 	andeq	r0, r0, r9, lsr #1
    1c24:	0088e818 	addeq	lr, r8, r8, lsl r8
    1c28:	000e6100 	andeq	r6, lr, r0, lsl #2
    1c2c:	cc100000 	ldcgt	0, cr0, [r0], {-0}
    1c30:	af000000 	svcge	0x00000000
    1c34:	1100000c 	tstne	r0, ip
    1c38:	0000002c 	andeq	r0, r0, ip, lsr #32
    1c3c:	9f090004 	svcls	0x00090004
    1c40:	3000000c 	andcc	r0, r0, ip
    1c44:	0000048d 	andeq	r0, r0, sp, lsl #9
    1c48:	76163c01 	ldrvc	r3, [r6], -r1, lsl #24
    1c4c:	03000004 	movweq	r0, #4
    1c50:	00000cdc 	ldrdeq	r0, [r0], -ip
    1c54:	00062131 	andeq	r2, r6, r1, lsr r1
    1c58:	263c0100 	ldrtcs	r0, [ip], -r0, lsl #2
    1c5c:	00000075 	andeq	r0, r0, r5, ror r0
    1c60:	01007032 	tsteq	r0, r2, lsr r0
    1c64:	02080b3e 	andeq	r0, r8, #63488	; 0xf800
    1c68:	24000000 	strcs	r0, [r0], #-0
    1c6c:	000004a9 	andeq	r0, r0, r9, lsr #9
    1c70:	250c2b01 	strcs	r2, [ip, #-2817]	; 0xfffff4ff
    1c74:	04000000 	streq	r0, [r0], #-0
    1c78:	48000088 	stmdami	r0, {r3, r7}
    1c7c:	01000000 	mrseq	r0, (UNDEF: 0)
    1c80:	000d099c 	muleq	sp, ip, r9
    1c84:	00702c00 	rsbseq	r2, r0, r0, lsl #24
    1c88:	081a2b01 	ldmdaeq	sl, {r0, r8, r9, fp, sp}
    1c8c:	9f000002 	svcls	0x00000002
    1c90:	9300000b 	movwls	r0, #11
    1c94:	0000000b 	andeq	r0, r0, fp
    1c98:	0003c322 	andeq	ip, r3, r2, lsr #6
    1c9c:	07130100 	ldreq	r0, [r3, -r0, lsl #2]
    1ca0:	00000208 	andeq	r0, r0, r8, lsl #4
    1ca4:	00008cb0 			; <UNDEFINED> instruction: 0x00008cb0
    1ca8:	000000ac 	andeq	r0, r0, ip, lsr #1
    1cac:	0e1f9c01 	cdpeq	12, 1, cr9, cr15, cr1, {0}
    1cb0:	32230000 	eorcc	r0, r3, #0, 0
    1cb4:	01000004 	tsteq	r0, r4
    1cb8:	00411113 	subeq	r1, r1, r3, lsl r1
    1cbc:	0bfe0000 	bleq	fff81cc4 <__bss_end__+0xfff767f4>
    1cc0:	0bf20000 	bleq	ffc81cc8 <__bss_end__+0xffc767f8>
    1cc4:	15130000 	ldrne	r0, [r3, #-0]
    1cc8:	01000004 	tsteq	r0, r4
    1ccc:	00251015 	eoreq	r1, r5, r5, lsl r0
    1cd0:	03050000 	movweq	r0, #20480	; 0x5000
    1cd4:	0000b0c0 	andeq	fp, r0, r0, asr #1
    1cd8:	00005a15 	andeq	r5, r0, r5, lsl sl
    1cdc:	000caf00 	andeq	sl, ip, r0, lsl #30
    1ce0:	b0030500 	andlt	r0, r3, r0, lsl #10
    1ce4:	2b0000ac 	blcs	1f9c <__code_start__-0x6064>
    1ce8:	00008cd8 	ldrdeq	r8, [r0], -r8	; <UNPREDICTABLE>
    1cec:	00000024 	andeq	r0, r0, r4, lsr #32
    1cf0:	00000d92 	muleq	r0, r2, sp
    1cf4:	0004b125 	andeq	fp, r4, r5, lsr #2
    1cf8:	121c0100 	andsne	r0, ip, #0
    1cfc:	0000002c 	andeq	r0, r0, ip, lsr #32
    1d00:	00000c4a 	andeq	r0, r0, sl, asr #24
    1d04:	00000c48 	andeq	r0, r0, r8, asr #24
    1d08:	008cf420 	addeq	pc, ip, r0, lsr #8
    1d0c:	000ec400 	andeq	ip, lr, r0, lsl #8
    1d10:	50011700 	andpl	r1, r1, r0, lsl #14
    1d14:	24404003 	strbcs	r4, [r0], #-3
    1d18:	03510117 	cmpeq	r1, #-1073741819	; 0xc0000005
    1d1c:	00244040 	eoreq	r4, r4, r0, asr #32
    1d20:	8d041600 	stchi	6, cr1, [r4, #-0]
    1d24:	0ed00000 	cdpeq	0, 13, cr0, cr0, cr0, {0}
    1d28:	0da60000 	stceq	0, cr0, [r6]
    1d2c:	01170000 	tsteq	r7, r0
    1d30:	00740250 	rsbseq	r0, r4, r0, asr r2
    1d34:	8d281600 	stchi	6, cr1, [r8, #-0]
    1d38:	0e550000 	cdpeq	0, 5, cr0, cr5, cr0, {0}
    1d3c:	0dde0000 	ldcleq	0, cr0, [lr]
    1d40:	01170000 	tsteq	r7, r0
    1d44:	c8030550 	stmdagt	r3, {r4, r6, r8, sl}
    1d48:	170000a8 	strne	r0, [r0, -r8, lsr #1]
    1d4c:	03055101 	movweq	r5, #20737	; 0x5101
    1d50:	0000a93c 	andeq	sl, r0, ip, lsr r9
    1d54:	05520117 	ldrbeq	r0, [r2, #-279]	; 0xfffffee9
    1d58:	00acb003 	adceq	fp, ip, r3
    1d5c:	53011700 	movwpl	r1, #5888	; 0x1700
    1d60:	02174701 	andseq	r4, r7, #262144	; 0x40000
    1d64:	0305007d 	movweq	r0, #20605	; 0x507d
    1d68:	0000ab5c 	andeq	sl, r0, ip, asr fp
    1d6c:	8d2c1800 	stchi	8, cr1, [ip, #-0]
    1d70:	0e610000 	cdpeq	0, 6, cr0, cr1, cr0, {0}
    1d74:	40160000 	andsmi	r0, r6, r0
    1d78:	5500008d 	strpl	r0, [r0, #-141]	; 0xffffff73
    1d7c:	1500000e 	strne	r0, [r0, #-14]
    1d80:	1700000e 	strne	r0, [r0, -lr]
    1d84:	03055001 	movweq	r5, #20481	; 0x5001
    1d88:	0000ab6c 	andeq	sl, r0, ip, ror #22
    1d8c:	05510117 	ldrbeq	r0, [r1, #-279]	; 0xfffffee9
    1d90:	00a93c03 	adceq	r3, r9, r3, lsl #24
    1d94:	52011700 	andpl	r1, r1, #0, 14
    1d98:	acb00305 	ldcge	3, cr0, [r0], #20
    1d9c:	01170000 	tsteq	r7, r0
    1da0:	00490153 	subeq	r0, r9, r3, asr r1
    1da4:	008d4418 	addeq	r4, sp, r8, lsl r4
    1da8:	000e6100 	andeq	r6, lr, r0, lsl #2
    1dac:	f8300000 			; <UNDEFINED> instruction: 0xf8300000
    1db0:	02000001 	andeq	r0, r0, #1, 0
    1db4:	01140b0d 	tsteq	r4, sp, lsl #22
    1db8:	55030000 	strpl	r0, [r3, #-0]
    1dbc:	3100000e 	tstcc	r0, lr
    1dc0:	0000003b 	andeq	r0, r0, fp, lsr r0
    1dc4:	bf220d02 	svclt	0x00220d02
    1dc8:	31000000 	mrscc	r0, (UNDEF: 0)
    1dcc:	00000047 	andeq	r0, r0, r7, asr #32
    1dd0:	bf340d02 	svclt	0x00340d02
    1dd4:	31000000 	mrscc	r0, (UNDEF: 0)
    1dd8:	00000171 	andeq	r0, r0, r1, ror r1
    1ddc:	2c430d02 	mcrrcs	13, 0, r0, r3, cr2
    1de0:	00000000 	andeq	r0, r0, r0
    1de4:	00068833 	andeq	r8, r6, r3, lsr r8
    1de8:	00068800 	andeq	r8, r6, r0, lsl #16
    1dec:	06280400 	strteq	r0, [r8], -r0, lsl #8
    1df0:	00006733 	andeq	r6, r0, r3, lsr r7
    1df4:	00006700 	andeq	r6, r0, r0, lsl #14
    1df8:	066e0400 	strbteq	r0, [lr], -r0, lsl #8
    1dfc:	0b9e0d34 	bleq	fe7852d4 <__bss_end__+0xfe779e04>
    1e00:	65657773 	strbvs	r7, [r5, #-1907]!	; 0xfffff88d
    1e04:	72665f70 	rsbvc	r5, r6, #112, 30	; 0x1c0
    1e08:	33006565 	movwcc	r6, #1381	; 0x565
    1e0c:	00000268 	andeq	r0, r0, r8, ror #4
    1e10:	00000268 	andeq	r0, r0, r8, ror #4
    1e14:	33082905 	movwcc	r2, #35077	; 0x8905
    1e18:	00000040 	andeq	r0, r0, r0, asr #32
    1e1c:	00000040 	andeq	r0, r0, r0, asr #32
    1e20:	33074d05 	movwcc	r4, #32005	; 0x7d05
    1e24:	00000316 	andeq	r0, r0, r6, lsl r3
    1e28:	00000316 	andeq	r0, r0, r6, lsl r3
    1e2c:	33082c05 	movwcc	r2, #35845	; 0x8c05
    1e30:	0000046a 	andeq	r0, r0, sl, ror #8
    1e34:	0000046a 	andeq	r0, r0, sl, ror #8
    1e38:	33067601 	movwcc	r7, #26113	; 0x6601
    1e3c:	00000340 	andeq	r0, r0, r0, asr #6
    1e40:	00000340 	andeq	r0, r0, r0, asr #6
    1e44:	33073505 	movwcc	r3, #29957	; 0x7505
    1e48:	000002f7 	strdeq	r0, [r0], -r7
    1e4c:	000002f7 	strdeq	r0, [r0], -r7
    1e50:	33084805 	movwcc	r4, #34821	; 0x8805
    1e54:	000004fc 	strdeq	r0, [r0], -ip
    1e58:	000004fc 	strdeq	r0, [r0], -ip
    1e5c:	33068204 	movwcc	r8, #25092	; 0x6204
    1e60:	000004f4 	strdeq	r0, [r0], -r4
    1e64:	000004f4 	strdeq	r0, [r0], -r4
    1e68:	00077b04 	andeq	r7, r7, r4, lsl #22
    1e6c:	00000216 	andeq	r0, r0, r6, lsl r2
    1e70:	094f0004 	stmdbeq	pc, {r2}^	; <UNPREDICTABLE>
    1e74:	01040000 	mrseq	r0, (UNDEF: 4)
    1e78:	00000560 	andeq	r0, r0, r0, ror #10
    1e7c:	0006480c 	andeq	r4, r6, ip, lsl #16
    1e80:	00062600 	andeq	r2, r6, r0, lsl #12
    1e84:	00900000 	addseq	r0, r0, r0
    1e88:	0000a000 	andeq	sl, r0, r0
    1e8c:	000e0600 	andeq	r0, lr, r0, lsl #12
    1e90:	05040200 	streq	r0, [r4, #-512]	; 0xfffffe00
    1e94:	00746e69 	rsbseq	r6, r4, r9, ror #28
    1e98:	82070403 	andhi	r0, r7, #50331648	; 0x3000000
    1e9c:	03000001 	movweq	r0, #1
    1ea0:	00830601 	addeq	r0, r3, r1, lsl #12
    1ea4:	02030000 	andeq	r0, r3, #0, 0
    1ea8:	00001d05 	andeq	r1, r0, r5, lsl #26
    1eac:	05040300 	streq	r0, [r4, #-768]	; 0xfffffd00
    1eb0:	00000051 	andeq	r0, r0, r1, asr r0
    1eb4:	4c050803 	stcmi	8, cr0, [r5], {3}
    1eb8:	03000000 	movweq	r0, #0
    1ebc:	00810801 	addeq	r0, r1, r1, lsl #16
    1ec0:	02030000 	andeq	r0, r3, #0, 0
    1ec4:	00019707 	andeq	r9, r1, r7, lsl #14
    1ec8:	07040300 	streq	r0, [r4, -r0, lsl #6]
    1ecc:	0000017d 	andeq	r0, r0, sp, ror r1
    1ed0:	78070803 	stmdavc	r7, {r0, r1, fp}
    1ed4:	04000001 	streq	r0, [r0], #-1
    1ed8:	00000025 	andeq	r0, r0, r5, lsr #32
    1edc:	0000007a 	andeq	r0, r0, sl, ror r0
    1ee0:	00002505 	andeq	r2, r0, r5, lsl #10
    1ee4:	27060000 	strcs	r0, [r6, -r0]
    1ee8:	02000000 	andeq	r0, r0, #0, 0
    1eec:	00860e1c 	addeq	r0, r6, ip, lsl lr
    1ef0:	04070000 	streq	r0, [r7], #-0
    1ef4:	0000006b 	andeq	r0, r0, fp, rrx
    1ef8:	00002504 	andeq	r2, r0, r4, lsl #10
    1efc:	00009b00 	andeq	r9, r0, r0, lsl #22
    1f00:	009b0500 	addseq	r0, fp, r0, lsl #10
    1f04:	07000000 	streq	r0, [r0, -r0]
    1f08:	0000a804 	andeq	sl, r0, r4, lsl #16
    1f0c:	08010300 	stmdaeq	r1, {r8, r9}
    1f10:	0000008a 	andeq	r0, r0, sl, lsl #1
    1f14:	0000a108 	andeq	sl, r0, r8, lsl #2
    1f18:	06c60600 	strbeq	r0, [r6], r0, lsl #12
    1f1c:	21020000 	mrscs	r0, (UNDEF: 2)
    1f20:	0000b90e 	andeq	fp, r0, lr, lsl #18
    1f24:	8c040700 	stchi	7, cr0, [r4], {-0}
    1f28:	09000000 	stmdbeq	r0, {}	; <UNPREDICTABLE>
    1f2c:	00000661 	andeq	r0, r0, r1, ror #12
    1f30:	9b0d4201 	blls	35273c <__bss_end__+0x34726c>
    1f34:	01000000 	mrseq	r0, (UNDEF: 0)
    1f38:	000000f7 	strdeq	r0, [r0], -r7
    1f3c:	0006180a 	andeq	r1, r6, sl, lsl #16
    1f40:	1e420100 	dvfnes	f0, f2, f0
    1f44:	0000002c 	andeq	r0, r0, ip, lsr #32
    1f48:	0005520b 	andeq	r5, r5, fp, lsl #4
    1f4c:	0e430100 	dvfeqs	f0, f3, f0
    1f50:	0000002c 	andeq	r0, r0, ip, lsr #32
    1f54:	05570b0c 	ldrbeq	r0, [r7, #-2828]	; 0xfffff4f4
    1f58:	45010000 	strmi	r0, [r1, #-0]
    1f5c:	00002c12 	andeq	r2, r0, r2, lsl ip
    1f60:	0d000000 	stceq	0, cr0, [r0, #-0]
    1f64:	000002c1 	andeq	r0, r0, r1, asr #5
    1f68:	25051d01 	strcs	r1, [r5, #-3329]	; 0xfffff2ff
    1f6c:	00000000 	andeq	r0, r0, r0
    1f70:	80000090 	mulhi	r0, r0, r0
    1f74:	01000000 	mrseq	r0, (UNDEF: 0)
    1f78:	0001be9c 	muleq	r1, ip, lr
    1f7c:	065a0e00 	ldrbeq	r0, [sl], -r0, lsl #28
    1f80:	1e010000 	cdpne	0, 0, cr0, cr1, cr0, {0}
    1f84:	0001be0f 	andeq	fp, r1, pc, lsl #28
    1f88:	000c6200 	andeq	r6, ip, r0, lsl #4
    1f8c:	000c6000 	andeq	r6, ip, r0
    1f90:	90080f00 	andls	r0, r8, r0, lsl #30
    1f94:	005c0000 	subseq	r0, ip, r0
    1f98:	69100000 	ldmdbvs	r0, {}	; <UNPREDICTABLE>
    1f9c:	0e210100 	sufeqs	f0, f1, f0
    1fa0:	00000025 	andeq	r0, r0, r5, lsr #32
    1fa4:	00000c79 	andeq	r0, r0, r9, ror ip
    1fa8:	00000c75 	andeq	r0, r0, r5, ror ip
    1fac:	0000f011 	andeq	pc, r0, r1, lsl r0	; <UNPREDICTABLE>
    1fb0:	63701000 	cmnvs	r0, #0, 0
    1fb4:	12220100 	eorne	r0, r2, #0
    1fb8:	0000002c 	andeq	r0, r0, ip, lsr #32
    1fbc:	00000c9a 	muleq	r0, sl, ip
    1fc0:	00000c98 	muleq	r0, r8, ip
    1fc4:	0000bf12 	andeq	fp, r0, r2, lsl pc
    1fc8:	00903c00 	addseq	r3, r0, r0, lsl #24
    1fcc:	01100100 	tsteq	r0, r0, lsl #2
    1fd0:	23010000 	movwcs	r0, #4096	; 0x1000
    1fd4:	0001a509 	andeq	sl, r1, r9, lsl #10
    1fd8:	00d01300 	sbcseq	r1, r0, r0, lsl #6
    1fdc:	0caf0000 	stceq	0, cr0, [pc]	; 1fe4 <__code_start__-0x601c>
    1fe0:	0cad0000 	stceq	0, cr0, [sp]
    1fe4:	10110000 	andsne	r0, r1, r0
    1fe8:	14000001 	strne	r0, [r0], #-1
    1fec:	000000dc 	ldrdeq	r0, [r0], -ip
    1ff0:	00000cc6 	andeq	r0, r0, r6, asr #25
    1ff4:	00000cc2 	andeq	r0, r0, r2, asr #25
    1ff8:	0000e815 	andeq	lr, r0, r5, lsl r8
    1ffc:	00013800 	andeq	r3, r1, r0, lsl #16
    2000:	00e91400 	rsceq	r1, r9, r0, lsl #8
    2004:	0ceb0000 	stcleq	0, cr0, [fp]
    2008:	0ce50000 	stcleq	0, cr0, [r5]
    200c:	00000000 	andeq	r0, r0, r0
    2010:	90581600 	subsls	r1, r8, r0, lsl #12
    2014:	020d0000 	andeq	r0, sp, #0, 0
    2018:	01170000 	tsteq	r7, r0
    201c:	00750250 	rsbseq	r0, r5, r0, asr r2
    2020:	02510117 	subseq	r0, r1, #-1073741819	; 0xc0000005
    2024:	00000077 	andeq	r0, r0, r7, ror r0
    2028:	04070000 	streq	r0, [r7], #-0
    202c:	0000002c 	andeq	r0, r0, ip, lsr #32
    2030:	0000bf18 	andeq	fp, r0, r8, lsl pc
    2034:	00908000 	addseq	r8, r0, r0
    2038:	00002000 	andeq	r2, r0, r0
    203c:	0d9c0100 	ldfeqs	f0, [ip]
    2040:	13000002 	movwne	r0, #2
    2044:	000000d0 	ldrdeq	r0, [r0], -r0	; <UNPREDICTABLE>
    2048:	00000d2b 	andeq	r0, r0, fp, lsr #26
    204c:	00000d25 	andeq	r0, r0, r5, lsr #26
    2050:	0000dc14 	andeq	sp, r0, r4, lsl ip
    2054:	000d5f00 	andeq	r5, sp, r0, lsl #30
    2058:	000d5900 	andeq	r5, sp, r0, lsl #18
    205c:	00e81900 	rsceq	r1, r8, r0, lsl #18
    2060:	908c0000 	addls	r0, ip, r0
    2064:	00080000 	andeq	r0, r8, r0
    2068:	e9140000 	ldmdb	r4, {}	; <UNPREDICTABLE>
    206c:	93000000 	movwls	r0, #0
    2070:	8d00000d 	stchi	0, cr0, [r0, #-52]	; 0xffffffcc
    2074:	0000000d 	andeq	r0, r0, sp
    2078:	06881a00 	streq	r1, [r8], r0, lsl #20
    207c:	06880000 	streq	r0, [r8], r0
    2080:	28020000 	stmdacs	r2, {}	; <UNPREDICTABLE>
    2084:	01400006 	cmpeq	r0, r6
    2088:	00040000 	andeq	r0, r4, r0
    208c:	00000aba 			; <UNDEFINED> instruction: 0x00000aba
    2090:	05600104 	strbeq	r0, [r0, #-260]!	; 0xfffffefc
    2094:	700c0000 	andvc	r0, ip, r0
    2098:	26000006 	strcs	r0, [r0], -r6
    209c:	a0000006 	andge	r0, r0, r6
    20a0:	78000090 	stmdavc	r0, {r4, r7}
    20a4:	40000000 	andmi	r0, r0, r0
    20a8:	0200000f 	andeq	r0, r0, #15, 0
    20ac:	6e690504 	cdpvs	5, 6, cr0, cr9, cr4, {0}
    20b0:	69030074 	stmdbvs	r3, {r2, r4, r5, r6}
    20b4:	03000006 	movweq	r0, #6
    20b8:	003817d1 	ldrsbteq	r1, [r8], -r1
    20bc:	04040000 	streq	r0, [r4], #-0
    20c0:	00018207 	andeq	r8, r1, r7, lsl #4
    20c4:	06010400 	streq	r0, [r1], -r0, lsl #8
    20c8:	00000083 	andeq	r0, r0, r3, lsl #1
    20cc:	1d050204 	sfmne	f0, 4, [r5, #-16]
    20d0:	04000000 	streq	r0, [r0], #-0
    20d4:	00510504 	subseq	r0, r1, r4, lsl #10
    20d8:	08040000 	stmdaeq	r4, {}	; <UNPREDICTABLE>
    20dc:	00004c05 	andeq	r4, r0, r5, lsl #24
    20e0:	08010400 	stmdaeq	r1, {sl}
    20e4:	00000081 	andeq	r0, r0, r1, lsl #1
    20e8:	97070204 	strls	r0, [r7, -r4, lsl #4]
    20ec:	04000001 	streq	r0, [r0], #-1
    20f0:	017d0704 	cmneq	sp, r4, lsl #14
    20f4:	08040000 	stmdaeq	r4, {}	; <UNPREDICTABLE>
    20f8:	00017807 	andeq	r7, r1, r7, lsl #16
    20fc:	00250500 	eoreq	r0, r5, r0, lsl #10
    2100:	00860000 	addeq	r0, r6, r0
    2104:	25060000 	strcs	r0, [r6, #-0]
    2108:	00000000 	andeq	r0, r0, r0
    210c:	00002707 	andeq	r2, r0, r7, lsl #14
    2110:	0e1c0200 	cdpeq	2, 1, cr0, cr12, cr0, {0}
    2114:	00000092 	muleq	r0, r2, r0
    2118:	00770408 	rsbseq	r0, r7, r8, lsl #8
    211c:	25050000 	strcs	r0, [r5, #-0]
    2120:	a7000000 	strge	r0, [r0, -r0]
    2124:	06000000 	streq	r0, [r0], -r0
    2128:	000000a7 	andeq	r0, r0, r7, lsr #1
    212c:	b4040800 	strlt	r0, [r4], #-2048	; 0xfffff800
    2130:	04000000 	streq	r0, [r0], #-0
    2134:	008a0801 	addeq	r0, sl, r1, lsl #16
    2138:	ad090000 	stcge	0, cr0, [r9, #-0]
    213c:	07000000 	streq	r0, [r0, -r0]
    2140:	000006c6 	andeq	r0, r0, r6, asr #13
    2144:	c50e2102 	strgt	r2, [lr, #-258]	; 0xfffffefe
    2148:	08000000 	stmdaeq	r0, {}	; <UNPREDICTABLE>
    214c:	00009804 	andeq	r9, r0, r4, lsl #16
    2150:	02930a00 	addseq	r0, r3, #0, 20
    2154:	04010000 	streq	r0, [r1], #-0
    2158:	00013b07 	andeq	r3, r1, r7, lsl #22
    215c:	0090a000 	addseq	sl, r0, r0
    2160:	00007800 	andeq	r7, r0, r0, lsl #16
    2164:	3b9c0100 	blcc	fe70256c <__bss_end__+0xfe6f709c>
    2168:	0b000001 	bleq	2174 <__code_start__-0x5e8c>
    216c:	0100705f 	qaddeq	r7, pc, r0	; <UNPREDICTABLE>
    2170:	013b1404 	teqeq	fp, r4, lsl #8
    2174:	50010000 	andpl	r0, r1, r0
    2178:	0100630c 	tsteq	r0, ip, lsl #6
    217c:	00251c04 	eoreq	r1, r5, r4, lsl #24
    2180:	0ddd0000 	ldcleq	0, cr0, [sp]
    2184:	0dd90000 	ldcleq	0, cr0, [r9]
    2188:	6e0c0000 	cdpvs	0, 0, cr0, cr12, cr0, {0}
    218c:	26040100 	strcs	r0, [r4], -r0, lsl #2
    2190:	0000002c 	andeq	r0, r0, ip, lsr #32
    2194:	00000e02 	andeq	r0, r0, r2, lsl #28
    2198:	00000dfe 	strdeq	r0, [r0], -lr
    219c:	0100700d 	tsteq	r0, sp
    21a0:	013d0b05 	teqeq	sp, r5, lsl #22
    21a4:	0e310000 	cdpeq	0, 3, cr0, cr1, cr0, {0}
    21a8:	0e230000 	cdpeq	0, 2, cr0, cr3, cr0, {0}
    21ac:	650d0000 	strvs	r0, [sp, #-0]
    21b0:	14050100 	strne	r0, [r5], #-256	; 0xffffff00
    21b4:	0000013d 	andeq	r0, r0, sp, lsr r1
    21b8:	00000e8e 	andeq	r0, r0, lr, lsl #29
    21bc:	00000e8c 	andeq	r0, r0, ip, lsl #29
    21c0:	08040e00 	stmdaeq	r4, {r9, sl, fp}
    21c4:	0000ad04 	andeq	sl, r0, r4, lsl #26
    21c8:	019d0000 	orrseq	r0, sp, r0
    21cc:	00040000 	andeq	r0, r4, r0
    21d0:	00000b86 	andeq	r0, r0, r6, lsl #23
    21d4:	05600104 	strbeq	r0, [r0, #-260]!	; 0xfffffefc
    21d8:	a30c0000 	movwge	r0, #49152	; 0xc000
    21dc:	26000006 	strcs	r0, [r0], -r6
    21e0:	18000006 	stmdane	r0, {r1, r2}
    21e4:	58000091 	stmdapl	r0, {r0, r4, r7}
    21e8:	65000000 	strvs	r0, [r0, #-0]
    21ec:	02000010 	andeq	r0, r0, #16, 0
    21f0:	0000068f 	andeq	r0, r0, pc, lsl #13
    21f4:	311b2802 	tstcc	fp, r2, lsl #16
    21f8:	03000000 	movweq	r0, #0
    21fc:	000006b3 			; <UNDEFINED> instruction: 0x000006b3
    2200:	48000404 	stmdami	r0, {r2, sl}
    2204:	04000000 	streq	r0, [r0], #-0
    2208:	0000069e 	muleq	r0, lr, r6
    220c:	00000048 	andeq	r0, r0, r8, asr #32
    2210:	04050000 	streq	r0, [r5], #-0
    2214:	0006b502 	andeq	fp, r6, r2, lsl #10
    2218:	18630200 	stmdane	r3!, {r9}^
    221c:	00000025 	andeq	r0, r0, r5, lsr #32
    2220:	69050406 	stmdbvs	r5, {r1, r2, sl}
    2224:	0700746e 	streq	r7, [r0, -lr, ror #8]
    2228:	01820704 	orreq	r0, r2, r4, lsl #14
    222c:	01070000 	mrseq	r0, (UNDEF: 7)
    2230:	00008306 	andeq	r8, r0, r6, lsl #6
    2234:	05020700 	streq	r0, [r2, #-1792]	; 0xfffff900
    2238:	0000001d 	andeq	r0, r0, sp, lsl r0
    223c:	51050407 	tstpl	r5, r7, lsl #8
    2240:	07000000 	streq	r0, [r0, -r0]
    2244:	004c0508 	subeq	r0, ip, r8, lsl #10
    2248:	01070000 	mrseq	r0, (UNDEF: 7)
    224c:	00008108 	andeq	r8, r0, r8, lsl #2
    2250:	07020700 	streq	r0, [r2, -r0, lsl #14]
    2254:	00000197 	muleq	r0, r7, r1
    2258:	7d070407 	cfstrsvc	mvf0, [r7, #-28]	; 0xffffffe4
    225c:	07000001 	streq	r0, [r0, -r1]
    2260:	01780708 	cmneq	r8, r8, lsl #14
    2264:	56080000 	strpl	r0, [r8], -r0
    2268:	ab000000 	blge	2270 <__code_start__-0x5d90>
    226c:	09000000 	stmdbeq	r0, {}	; <UNPREDICTABLE>
    2270:	00000056 	andeq	r0, r0, r6, asr r0
    2274:	00270a00 	eoreq	r0, r7, r0, lsl #20
    2278:	1c030000 	stcne	0, cr0, [r3], {-0}
    227c:	0000b70e 	andeq	fp, r0, lr, lsl #14
    2280:	9c040b00 			; <UNDEFINED> instruction: 0x9c040b00
    2284:	08000000 	stmdaeq	r0, {}	; <UNPREDICTABLE>
    2288:	00000056 	andeq	r0, r0, r6, asr r0
    228c:	000000cc 	andeq	r0, r0, ip, asr #1
    2290:	0000cc09 	andeq	ip, r0, r9, lsl #24
    2294:	040b0000 	streq	r0, [fp], #-0
    2298:	000000d9 	ldrdeq	r0, [r0], -r9
    229c:	8a080107 	bhi	2026c0 <__bss_end__+0x1f71f0>
    22a0:	0c000000 	stceq	0, cr0, [r0], {-0}
    22a4:	000000d2 	ldrdeq	r0, [r0], -r2
    22a8:	0006c60a 	andeq	ip, r6, sl, lsl #12
    22ac:	0e210300 	cdpeq	3, 2, cr0, cr1, cr0, {0}
    22b0:	000000ea 	andeq	r0, r0, sl, ror #1
    22b4:	00bd040b 	adcseq	r0, sp, fp, lsl #8
    22b8:	880d0000 	stmdahi	sp, {}	; <UNPREDICTABLE>
    22bc:	01000006 	tsteq	r0, r6
    22c0:	00560506 	subseq	r0, r6, r6, lsl #10
    22c4:	91180000 	tstls	r8, r0
    22c8:	00580000 	subseq	r0, r8, r0
    22cc:	9c010000 	stcls	0, cr0, [r1], {-0}
    22d0:	00000183 	andeq	r0, r0, r3, lsl #3
    22d4:	746d660e 	strbtvc	r6, [sp], #-1550	; 0xfffff9f2
    22d8:	18060100 	stmdane	r6, {r8}
    22dc:	000000cc 	andeq	r0, r0, ip, asr #1
    22e0:	0f709102 	svceq	0x00709102
    22e4:	66756210 			; <UNDEFINED> instruction: 0x66756210
    22e8:	11080100 	mrsne	r0, (UNDEF: 24)
    22ec:	00000183 	andeq	r0, r0, r3, lsl #3
    22f0:	b0c40305 	sbclt	r0, r4, r5, lsl #6
    22f4:	80110000 	andshi	r0, r1, r0
    22f8:	01000006 	tsteq	r0, r6
    22fc:	004a0d09 	subeq	r0, sl, r9, lsl #26
    2300:	91020000 	mrsls	r0, (UNDEF: 2)
    2304:	7a73125c 	bvc	1cc6c7c <__bss_end__+0x1cbb7ac>
    2308:	0d0c0100 	stfeqs	f0, [ip, #-0]
    230c:	00000056 	andeq	r0, r0, r6, asr r0
    2310:	00000ea7 	andeq	r0, r0, r7, lsr #29
    2314:	00000ea1 	andeq	r0, r0, r1, lsr #29
    2318:	00914013 	addseq	r4, r1, r3, lsl r0
    231c:	00019400 	andeq	r9, r1, r0, lsl #8
    2320:	00017600 	andeq	r7, r1, r0, lsl #12
    2324:	50011400 	andpl	r1, r1, r0, lsl #8
    2328:	14007502 	strne	r7, [r0], #-1282	; 0xfffffafe
    232c:	0a035101 	beq	d6738 <__bss_end__+0xcb268>
    2330:	01140400 	tsteq	r4, r0, lsl #8
    2334:	48910352 	ldmmi	r1, {r1, r4, r6, r8, r9}
    2338:	53011406 	movwpl	r1, #5126	; 0x1406
    233c:	004c9102 	subeq	r9, ip, r2, lsl #2
    2340:	00915415 	addseq	r5, r1, r5, lsl r4
    2344:	50011400 	andpl	r1, r1, r0, lsl #8
    2348:	00007502 	andeq	r7, r0, r2, lsl #10
    234c:	00d21600 	sbcseq	r1, r2, r0, lsl #12
    2350:	01940000 	orrseq	r0, r4, r0
    2354:	5d170000 	ldcpl	0, cr0, [r7, #-0]
    2358:	ff000000 			; <UNDEFINED> instruction: 0xff000000
    235c:	85180003 	ldrhi	r0, [r8, #-3]
    2360:	85000006 	strhi	r0, [r0, #-6]
    2364:	05000006 	streq	r0, [r0, #-6]
    2368:	f3000502 	vrshl.u8	d0, d2, d0
    236c:	04000000 	streq	r0, [r0], #-0
    2370:	000cc800 	andeq	ip, ip, r0, lsl #16
    2374:	60010400 	andvs	r0, r1, r0, lsl #8
    2378:	0c000005 	stceq	0, cr0, [r0], {5}
    237c:	000006cb 	andeq	r0, r0, fp, asr #13
    2380:	00000626 	andeq	r0, r0, r6, lsr #12
    2384:	00009170 	andeq	r9, r0, r0, ror r1
    2388:	00000038 	andeq	r0, r0, r8, lsr r0
    238c:	00001189 	andeq	r1, r0, r9, lsl #3
    2390:	69050402 	stmdbvs	r5, {r1, sl}
    2394:	0300746e 	movweq	r7, #1134	; 0x46e
    2398:	01820704 	orreq	r0, r2, r4, lsl #14
    239c:	01030000 	mrseq	r0, (UNDEF: 3)
    23a0:	00008306 	andeq	r8, r0, r6, lsl #6
    23a4:	05020300 	streq	r0, [r2, #-768]	; 0xfffffd00
    23a8:	0000001d 	andeq	r0, r0, sp, lsl r0
    23ac:	51050403 	tstpl	r5, r3, lsl #8
    23b0:	03000000 	movweq	r0, #0
    23b4:	004c0508 	subeq	r0, ip, r8, lsl #10
    23b8:	01030000 	mrseq	r0, (UNDEF: 3)
    23bc:	00008108 	andeq	r8, r0, r8, lsl #2
    23c0:	07020300 	streq	r0, [r2, -r0, lsl #6]
    23c4:	00000197 	muleq	r0, r7, r1
    23c8:	7d070403 	cfstrsvc	mvf0, [r7, #-12]
    23cc:	03000001 	movweq	r0, #1
    23d0:	01780708 	cmneq	r8, r8, lsl #14
    23d4:	25040000 	strcs	r0, [r4, #-0]
    23d8:	7a000000 	bvc	23e0 <__code_start__-0x5c20>
    23dc:	05000000 	streq	r0, [r0, #-0]
    23e0:	00000025 	andeq	r0, r0, r5, lsr #32
    23e4:	00270600 	eoreq	r0, r7, r0, lsl #12
    23e8:	1c020000 	stcne	0, cr0, [r2], {-0}
    23ec:	0000860e 	andeq	r8, r0, lr, lsl #12
    23f0:	6b040700 	blvs	103ff8 <__bss_end__+0xf8b28>
    23f4:	04000000 	streq	r0, [r0], #-0
    23f8:	00000025 	andeq	r0, r0, r5, lsr #32
    23fc:	0000009b 	muleq	r0, fp, r0
    2400:	00009b05 	andeq	r9, r0, r5, lsl #22
    2404:	04070000 	streq	r0, [r7], #-0
    2408:	000000a8 	andeq	r0, r0, r8, lsr #1
    240c:	8a080103 	bhi	202820 <__bss_end__+0x1f7350>
    2410:	08000000 	stmdaeq	r0, {}	; <UNPREDICTABLE>
    2414:	000000a1 	andeq	r0, r0, r1, lsr #1
    2418:	0006c606 	andeq	ip, r6, r6, lsl #12
    241c:	0e210200 	cdpeq	2, 2, cr0, cr1, cr0, {0}
    2420:	000000b9 	strheq	r0, [r0], -r9
    2424:	008c0407 	addeq	r0, ip, r7, lsl #8
    2428:	ad090000 	stcge	0, cr0, [r9, #-0]
    242c:	01000000 	mrseq	r0, (UNDEF: 0)
    2430:	0305070c 	movweq	r0, #22284	; 0x570c
    2434:	0000b088 	andeq	fp, r0, r8, lsl #1
    2438:	0006bd0a 	andeq	fp, r6, sl, lsl #26
    243c:	05040100 	streq	r0, [r4, #-256]	; 0xffffff00
    2440:	00000025 	andeq	r0, r0, r5, lsr #32
    2444:	00009170 	andeq	r9, r0, r0, ror r1
    2448:	00000038 	andeq	r0, r0, r8, lsr r0
    244c:	700b9c01 	andvc	r9, fp, r1, lsl #24
    2450:	1f040100 	svcne	0x00040100
    2454:	0000009b 	muleq	r0, fp, r0
    2458:	00000ed8 	ldrdeq	r0, [r0], -r8
    245c:	00000ed0 	ldrdeq	r0, [r0], -r0	; <UNPREDICTABLE>
    2460:	01600000 	cmneq	r0, r0
    2464:	00040000 	andeq	r0, r4, r0
    2468:	00000d66 	andeq	r0, r0, r6, ror #26
    246c:	05600104 	strbeq	r0, [r0, #-260]!	; 0xfffffefc
    2470:	f80c0000 			; <UNDEFINED> instruction: 0xf80c0000
    2474:	26000006 	strcs	r0, [r0], -r6
    2478:	a8000006 	stmdage	r0, {r1, r2}
    247c:	98000091 	stmdals	r0, {r0, r4, r7}
    2480:	2d000000 	stccs	0, cr0, [r0, #-0]
    2484:	02000012 	andeq	r0, r0, #18, 0
    2488:	6e690504 	cdpvs	5, 6, cr0, cr9, cr4, {0}
    248c:	04030074 	streq	r0, [r3], #-116	; 0xffffff8c
    2490:	00018207 	andeq	r8, r1, r7, lsl #4
    2494:	06010300 	streq	r0, [r1], -r0, lsl #6
    2498:	00000083 	andeq	r0, r0, r3, lsl #1
    249c:	1d050203 	sfmne	f0, 4, [r5, #-12]
    24a0:	03000000 	movweq	r0, #0
    24a4:	00510504 	subseq	r0, r1, r4, lsl #10
    24a8:	08030000 	stmdaeq	r3, {}	; <UNPREDICTABLE>
    24ac:	00004c05 	andeq	r4, r0, r5, lsl #24
    24b0:	08010300 	stmdaeq	r1, {r8, r9}
    24b4:	00000081 	andeq	r0, r0, r1, lsl #1
    24b8:	97070203 	strls	r0, [r7, -r3, lsl #4]
    24bc:	03000001 	movweq	r0, #1
    24c0:	017d0704 	cmneq	sp, r4, lsl #14
    24c4:	08030000 	stmdaeq	r3, {}	; <UNPREDICTABLE>
    24c8:	00017807 	andeq	r7, r1, r7, lsl #16
    24cc:	00250400 	eoreq	r0, r5, r0, lsl #8
    24d0:	007a0000 	rsbseq	r0, sl, r0
    24d4:	25050000 	strcs	r0, [r5, #-0]
    24d8:	00000000 	andeq	r0, r0, r0
    24dc:	00002706 	andeq	r2, r0, r6, lsl #14
    24e0:	0e1c0200 	cdpeq	2, 1, cr0, cr12, cr0, {0}
    24e4:	00000086 	andeq	r0, r0, r6, lsl #1
    24e8:	006b0407 	rsbeq	r0, fp, r7, lsl #8
    24ec:	25040000 	strcs	r0, [r4, #-0]
    24f0:	9b000000 	blls	24f8 <__code_start__-0x5b08>
    24f4:	05000000 	streq	r0, [r0, #-0]
    24f8:	0000009b 	muleq	r0, fp, r0
    24fc:	a8040700 	stmdage	r4, {r8, r9, sl}
    2500:	03000000 	movweq	r0, #0
    2504:	008a0801 	addeq	r0, sl, r1, lsl #16
    2508:	a1080000 	mrsge	r0, (UNDEF: 8)
    250c:	06000000 	streq	r0, [r0], -r0
    2510:	000006c6 	andeq	r0, r0, r6, asr #13
    2514:	b90e2102 	stmdblt	lr, {r1, r8, sp}
    2518:	07000000 	streq	r0, [r0, -r0]
    251c:	00008c04 	andeq	r8, r0, r4, lsl #24
    2520:	06d90900 	ldrbeq	r0, [r9], r0, lsl #18
    2524:	08010000 	stmdaeq	r1, {}	; <UNPREDICTABLE>
    2528:	00005617 	andeq	r5, r0, r7, lsl r6
    252c:	8c030500 	cfstr32hi	mvfx0, [r3], {-0}
    2530:	0a0000b0 	beq	27f8 <__code_start__-0x5808>
    2534:	00746962 	rsbseq	r6, r4, r2, ror #18
    2538:	2c110901 			; <UNDEFINED> instruction: 0x2c110901
    253c:	0b000000 	bleq	2544 <__code_start__-0x5abc>
    2540:	000006de 	ldrdeq	r0, [r0], -lr
    2544:	28061601 	stmdacs	r6, {r0, r9, sl, ip}
    2548:	18000092 	stmdane	r0, {r1, r4, r7}
    254c:	01000000 	mrseq	r0, (UNDEF: 0)
    2550:	0001029c 	muleq	r1, ip, r2
    2554:	06f30c00 	ldrbteq	r0, [r3], r0, lsl #24
    2558:	16010000 	strne	r0, [r1], -r0
    255c:	00002c19 	andeq	r2, r0, r9, lsl ip
    2560:	00500100 	subseq	r0, r0, r0, lsl #2
    2564:	0001aa0d 	andeq	sl, r1, sp, lsl #20
    2568:	0f110100 	svceq	0x00110100
    256c:	0000005d 	andeq	r0, r0, sp, asr r0
    2570:	000091d8 	ldrdeq	r9, [r0], -r8
    2574:	00000050 	andeq	r0, r0, r0, asr r0
    2578:	01479c01 	cmpeq	r7, r1, lsl #24
    257c:	470e0000 	strmi	r0, [lr, -r0]
    2580:	d8000001 	stmdale	r0, {r0}
    2584:	02000091 	andeq	r0, r0, #145, 0	; 0x91
    2588:	000091d8 	ldrdeq	r9, [r0], -r8
    258c:	00000024 	andeq	r0, r0, r4, lsr #32
    2590:	0e0d1201 	cdpeq	2, 0, cr1, cr13, cr1, {0}
    2594:	00000147 	andeq	r0, r0, r7, asr #2
    2598:	000091fc 	strdeq	r9, [r0], -ip
    259c:	0091fc01 	addseq	pc, r1, r1, lsl #24
    25a0:	00002000 	andeq	r2, r0, r0
    25a4:	23120100 	tstcs	r2, #0
    25a8:	06e80f00 	strbteq	r0, [r8], r0, lsl #30
    25ac:	0b010000 	bleq	425b4 <__bss_end__+0x370e4>
    25b0:	00005610 	andeq	r5, r0, r0, lsl r6
    25b4:	47100100 	ldrmi	r0, [r0, -r0, lsl #2]
    25b8:	a8000001 	stmdage	r0, {r0}
    25bc:	30000091 	mulcc	r0, r1, r0
    25c0:	01000000 	mrseq	r0, (UNDEF: 0)
    25c4:	0c7f009c 	ldcleq	0, cr0, [pc], #-624	; 235c <__code_start__-0x5ca4>
    25c8:	00040000 	andeq	r0, r4, r0
    25cc:	00000e6b 	andeq	r0, r0, fp, ror #28
    25d0:	05600104 	strbeq	r0, [r0, #-260]!	; 0xfffffefc
    25d4:	1b0c0000 	blne	3025dc <__bss_end__+0x2f710c>
    25d8:	26000007 	strcs	r0, [r0], -r7
    25dc:	40000006 	andmi	r0, r0, r6
    25e0:	b4000092 	strlt	r0, [r0], #-146	; 0xffffff6e
    25e4:	12000009 	andne	r0, r0, #9, 0
    25e8:	02000013 	andeq	r0, r0, #19, 0
    25ec:	01780708 	cmneq	r8, r8, lsl #14
    25f0:	04020000 	streq	r0, [r2], #-0
    25f4:	00018207 	andeq	r8, r1, r7, lsl #4
    25f8:	05040300 	streq	r0, [r4, #-768]	; 0xfffffd00
    25fc:	00746e69 	rsbseq	r6, r4, r9, ror #28
    2600:	83060102 	movwhi	r0, #24834	; 0x6102
    2604:	02000000 	andeq	r0, r0, #0, 0
    2608:	001d0502 	andseq	r0, sp, r2, lsl #10
    260c:	04020000 	streq	r0, [r2], #-0
    2610:	00005105 	andeq	r5, r0, r5, lsl #2
    2614:	05080200 	streq	r0, [r8, #-512]	; 0xfffffe00
    2618:	0000004c 	andeq	r0, r0, ip, asr #32
    261c:	81080102 	tsthi	r8, r2, lsl #2
    2620:	02000000 	andeq	r0, r0, #0, 0
    2624:	01970702 	orrseq	r0, r7, r2, lsl #14
    2628:	e5040000 	str	r0, [r4, #-0]
    262c:	02000002 	andeq	r0, r0, #2, 0
    2630:	00701934 	rsbseq	r1, r0, r4, lsr r9
    2634:	04020000 	streq	r0, [r2], #-0
    2638:	00017d07 	andeq	r7, r1, r7, lsl #26
    263c:	07120400 	ldreq	r0, [r2, -r0, lsl #8]
    2640:	37020000 	strcc	r0, [r2, -r0]
    2644:	00002519 	andeq	r2, r0, r9, lsl r5
    2648:	00330500 	eorseq	r0, r3, r0, lsl #10
    264c:	00920000 	addseq	r0, r2, r0
    2650:	33060000 	movwcc	r0, #24576	; 0x6000
    2654:	00000000 	andeq	r0, r0, r0
    2658:	00002707 	andeq	r2, r0, r7, lsl #14
    265c:	0e1c0300 	cdpeq	3, 1, cr0, cr12, cr0, {0}
    2660:	0000009e 	muleq	r0, lr, r0
    2664:	00830408 	addeq	r0, r3, r8, lsl #8
    2668:	33050000 	movwcc	r0, #20480	; 0x5000
    266c:	b3000000 	movwlt	r0, #0
    2670:	06000000 	streq	r0, [r0], -r0
    2674:	000000b3 	strheq	r0, [r0], -r3
    2678:	c0040800 	andgt	r0, r4, r0, lsl #16
    267c:	02000000 	andeq	r0, r0, #0, 0
    2680:	008a0801 	addeq	r0, sl, r1, lsl #16
    2684:	b9090000 	stmdblt	r9, {}	; <UNPREDICTABLE>
    2688:	07000000 	streq	r0, [r0, -r0]
    268c:	000006c6 	andeq	r0, r0, r6, asr #13
    2690:	d10e2103 	tstle	lr, r3, lsl #2
    2694:	08000000 	stmdaeq	r0, {}	; <UNPREDICTABLE>
    2698:	0000a404 	andeq	sl, r0, r4, lsl #8
    269c:	072e0700 	streq	r0, [lr, -r0, lsl #14]!
    26a0:	0b040000 	bleq	1026a8 <__bss_end__+0xf71d8>
    26a4:	0000b90d 	andeq	fp, r0, sp, lsl #18
    26a8:	07780700 	ldrbeq	r0, [r8, -r0, lsl #14]!
    26ac:	0c040000 	stceq	0, cr0, [r4], {-0}
    26b0:	0000b90d 	andeq	fp, r0, sp, lsl #18
    26b4:	03ff0700 	mvnseq	r0, #0, 14
    26b8:	0d040000 	stceq	0, cr0, [r4, #-0]
    26bc:	0000b90d 	andeq	fp, r0, sp, lsl #18
    26c0:	04d10700 	ldrbeq	r0, [r1], #1792	; 0x700
    26c4:	0e040000 	cdpeq	0, 0, cr0, cr4, cr0, {0}
    26c8:	0000b90d 	andeq	fp, r0, sp, lsl #18
    26cc:	051e0700 	ldreq	r0, [lr, #-1792]	; 0xfffff900
    26d0:	0f040000 	svceq	0x00040000
    26d4:	0000b90d 	andeq	fp, r0, sp, lsl #18
    26d8:	045d0700 	ldrbeq	r0, [sp], #-1792	; 0xfffff900
    26dc:	10040000 	andne	r0, r4, r0
    26e0:	0000b90d 	andeq	fp, r0, sp, lsl #18
    26e4:	07a10700 	streq	r0, [r1, r0, lsl #14]!
    26e8:	11040000 	mrsne	r0, (UNDEF: 4)
    26ec:	0000b90d 	andeq	fp, r0, sp, lsl #18
    26f0:	02d60700 	sbcseq	r0, r6, #0, 14
    26f4:	12040000 	andne	r0, r4, #0, 0
    26f8:	0000b90d 	andeq	fp, r0, sp, lsl #18
    26fc:	068f0400 	streq	r0, [pc], r0, lsl #8
    2700:	28050000 	stmdacs	r5, {}	; <UNPREDICTABLE>
    2704:	0001431b 	andeq	r4, r1, fp, lsl r3
    2708:	06b30a00 	ldrteq	r0, [r3], r0, lsl #20
    270c:	06040000 	streq	r0, [r4], -r0
    2710:	00015a00 	andeq	r5, r1, r0, lsl #20
    2714:	069e0b00 	ldreq	r0, [lr], r0, lsl #22
    2718:	015a0000 	cmpeq	sl, r0
    271c:	00000000 	andeq	r0, r0, r0
    2720:	b504040c 	strlt	r0, [r4, #-1036]	; 0xfffffbf4
    2724:	05000006 	streq	r0, [r0, #-6]
    2728:	01371863 	teqeq	r7, r3, ror #16
    272c:	850d0000 	strhi	r0, [sp, #-0]
    2730:	01000006 	tsteq	r0, r6
    2734:	00330581 	eorseq	r0, r3, r1, lsl #11
    2738:	95c80000 	strbls	r0, [r8]
    273c:	062c0000 	strteq	r0, [ip], -r0
    2740:	9c010000 	stcls	0, cr0, [r1], {-0}
    2744:	0000086a 	andeq	r0, r0, sl, ror #16
    2748:	6675620e 	ldrbtvs	r6, [r5], -lr, lsl #4
    274c:	15810100 	strne	r0, [r1, #256]	; 0x100
    2750:	0000086a 	andeq	r0, r0, sl, ror #16
    2754:	00000f18 	andeq	r0, r0, r8, lsl pc
    2758:	00000f0e 	andeq	r0, r0, lr, lsl #30
    275c:	01006e0e 	tsteq	r0, lr, lsl #28
    2760:	00331e81 	eorseq	r1, r3, r1, lsl #29
    2764:	0f650000 	svceq	0x00650000
    2768:	0f5d0000 	svceq	0x005d0000
    276c:	660e0000 	strvs	r0, [lr], -r0
    2770:	0100746d 	tsteq	r0, sp, ror #8
    2774:	00b32d81 	adcseq	r2, r3, r1, lsl #27
    2778:	0fb70000 	svceq	0x00b70000
    277c:	0f9f0000 	svceq	0x009f0000
    2780:	800f0000 	andhi	r0, pc, r0
    2784:	01000006 	tsteq	r0, r6
    2788:	015c3a81 	cmpeq	ip, r1, lsl #21
    278c:	10790000 	rsbsne	r0, r9, r0
    2790:	104b0000 	subne	r0, fp, r0
    2794:	70100000 	andsvc	r0, r0, r0
    2798:	08820100 	stmeq	r2, {r8}
    279c:	0000086a 	andeq	r0, r0, sl, ror #16
    27a0:	000011cc 	andeq	r1, r0, ip, asr #3
    27a4:	000011b6 			; <UNDEFINED> instruction: 0x000011b6
    27a8:	01006510 	tsteq	r0, r0, lsl r5
    27ac:	086a1282 	stmdaeq	sl!, {r1, r7, r9, ip}^
    27b0:	12550000 	subsne	r0, r5, #0, 0
    27b4:	12530000 	subsne	r0, r3, #0, 0
    27b8:	78100000 	ldmdavc	r0, {}	; <UNPREDICTABLE>
    27bc:	83010030 	movwhi	r0, #4144	; 0x1030
    27c0:	0000640e 	andeq	r6, r0, lr, lsl #8
    27c4:	00126e00 	andseq	r6, r2, r0, lsl #28
    27c8:	00126800 	andseq	r6, r2, r0, lsl #16
    27cc:	31781000 	cmncc	r8, r0
    27d0:	11830100 	orrne	r0, r3, r0, lsl #2
    27d4:	00000064 	andeq	r0, r0, r4, rrx
    27d8:	0000129d 	muleq	r0, sp, r2
    27dc:	00001297 	muleq	r0, r7, r2
    27e0:	00075a11 	andeq	r5, r7, r1, lsl sl
    27e4:	11860100 	orrne	r0, r6, r0, lsl #2
    27e8:	000000b3 	strheq	r0, [r0], -r3
    27ec:	000012ce 	andeq	r1, r0, lr, asr #5
    27f0:	000012c6 	andeq	r1, r0, r6, asr #5
    27f4:	00005a12 	andeq	r5, r0, r2, lsl sl
    27f8:	00088000 	andeq	r8, r8, r0
    27fc:	58030500 	stmdapl	r3, {r8, sl}
    2800:	130000ae 	movwne	r0, #174	; 0xae
    2804:	000001c0 	andeq	r0, r0, r0, asr #3
    2808:	01007310 	tsteq	r0, r0, lsl r3
    280c:	086a0a91 	stmdaeq	sl!, {r0, r4, r7, r9, fp}^
    2810:	13140000 	tstne	r4, #0, 0
    2814:	13080000 	movwne	r0, #32768	; 0x8000
    2818:	6e140000 	cdpvs	0, 1, cr0, cr4, cr0, {0}
    281c:	01006d75 	tsteq	r0, r5, ror sp
    2820:	08850d91 	stmeq	r5, {r0, r4, r7, r8, sl, fp}
    2824:	91030000 	mrsls	r0, (UNDEF: 3)
    2828:	ae157dd8 	mrcge	13, 0, r7, cr5, cr8, {6}
    282c:	01000007 	tsteq	r0, r7
    2830:	08851791 	stmeq	r5, {r0, r4, r7, r8, r9, sl, ip}
    2834:	91030000 	mrsls	r0, (UNDEF: 3)
    2838:	3d117ed8 	ldccc	14, cr7, [r1, #-864]	; 0xfffffca0
    283c:	01000007 	tsteq	r0, r7
    2840:	002c0d92 	mlaeq	ip, r2, sp, r0
    2844:	13660000 	cmnne	r6, #0, 0
    2848:	135e0000 	cmpne	lr, #0, 0
    284c:	e8160000 	ldmda	r6, {}	; <UNPREDICTABLE>
    2850:	f1000001 	cps	#1
    2854:	10000004 	andne	r0, r0, r4
    2858:	01007974 	tsteq	r0, r4, ror r9
    285c:	00b31d9e 	umlalseq	r1, r3, lr, sp
    2860:	13a70000 			; <UNDEFINED> instruction: 0x13a70000
    2864:	139b0000 	orrsne	r0, fp, #0, 0
    2868:	78140000 	ldmdavc	r4, {}	; <UNPREDICTABLE>
    286c:	a2010078 	andge	r0, r1, #120, 0	; 0x78
    2870:	0000771a 	andeq	r7, r0, sl, lsl r7
    2874:	93590600 	cmpls	r9, #0, 12
    2878:	04935b04 	ldreq	r5, [r3], #2820	; 0xb04
    287c:	00975417 	addseq	r5, r7, r7, lsl r4
    2880:	000c3a00 	andeq	r3, ip, r0, lsl #20
    2884:	0002d800 	andeq	sp, r2, r0, lsl #16
    2888:	50011800 	andpl	r1, r1, r0, lsl #16
    288c:	18007602 	stmdane	r0, {r1, r9, sl, ip, sp, lr}
    2890:	03055101 	movweq	r5, #20737	; 0x5101
    2894:	0000ad4c 	andeq	sl, r0, ip, asr #26
    2898:	01520118 	cmpeq	r2, r8, lsl r1
    289c:	6c170033 	ldcvs	0, cr0, [r7], {51}	; 0x33
    28a0:	3a000097 	bcc	2b04 <__code_start__-0x54fc>
    28a4:	fa00000c 	blx	28dc <__code_start__-0x5724>
    28a8:	18000002 	stmdane	r0, {r1}
    28ac:	76025001 	strvc	r5, [r2], -r1
    28b0:	51011800 	tstpl	r1, r0, lsl #16
    28b4:	ad600305 	stclge	3, cr0, [r0, #-20]!	; 0xffffffec
    28b8:	01180000 	tsteq	r8, r0
    28bc:	00330152 	eorseq	r0, r3, r2, asr r1
    28c0:	00979017 	addseq	r9, r7, r7, lsl r0
    28c4:	000c4600 	andeq	r4, ip, r0, lsl #12
    28c8:	00031700 	andeq	r1, r3, r0, lsl #14
    28cc:	50011800 	andpl	r1, r1, r0, lsl #16
    28d0:	ad500305 	ldclge	3, cr0, [r0, #-20]	; 0xffffffec
    28d4:	01180000 	tsteq	r8, r0
    28d8:	007b0251 	rsbseq	r0, fp, r1, asr r2
    28dc:	979c1700 	ldrls	r1, [ip, r0, lsl #14]
    28e0:	0c460000 	mareq	acc0, r0, r6
    28e4:	03340000 	teqeq	r4, #0, 0
    28e8:	01180000 	tsteq	r8, r0
    28ec:	58030550 	stmdapl	r3, {r4, r6, r8, sl}
    28f0:	180000ad 	stmdane	r0, {r0, r2, r3, r5, r7}
    28f4:	79025101 	stmdbvc	r2, {r0, r8, ip, lr}
    28f8:	ac170000 	ldcge	0, cr0, [r7], {-0}
    28fc:	3a000097 	bcc	2b60 <__code_start__-0x54a0>
    2900:	5600000c 	strpl	r0, [r0], -ip
    2904:	18000003 	stmdane	r0, {r0, r1}
    2908:	76025001 	strvc	r5, [r2], -r1
    290c:	51011800 	tstpl	r1, r0, lsl #16
    2910:	ad4c0305 	stclge	3, cr0, [ip, #-20]	; 0xffffffec
    2914:	01180000 	tsteq	r8, r0
    2918:	00330152 	eorseq	r0, r3, r2, asr r1
    291c:	0097dc17 	addseq	sp, r7, r7, lsl ip
    2920:	000aa400 	andeq	sl, sl, r0, lsl #8
    2924:	00038300 	andeq	r8, r3, r0, lsl #6
    2928:	50011800 	andpl	r1, r1, r0, lsl #16
    292c:	01184001 	tsteq	r8, r1
    2930:	d0910351 	addsle	r0, r1, r1, asr r3
    2934:	5201187d 	andpl	r1, r1, #8192000	; 0x7d0000
    2938:	18007b02 	stmdane	r0, {r1, r8, r9, fp, ip, sp, lr}
    293c:	75025301 	strvc	r5, [r2, #-769]	; 0xfffffcff
    2940:	7d021800 	stcvc	8, cr1, [r2, #-0]
    2944:	00760200 	rsbseq	r0, r6, r0, lsl #4
    2948:	97fc1700 	ldrbls	r1, [ip, r0, lsl #14]!
    294c:	0aa40000 	beq	fe902954 <__bss_end__+0xfe8f7484>
    2950:	03aa0000 			; <UNDEFINED> instruction: 0x03aa0000
    2954:	01180000 	tsteq	r8, r0
    2958:	18400150 	stmdane	r0, {r4, r6, r8}^
    295c:	91035101 	tstls	r3, r1, lsl #2
    2960:	01187ed0 			; <UNDEFINED> instruction: 0x01187ed0
    2964:	00790252 	rsbseq	r0, r9, r2, asr r2
    2968:	007d0218 	rsbseq	r0, sp, r8, lsl r2
    296c:	00007602 	andeq	r7, r0, r2, lsl #12
    2970:	00980c17 	addseq	r0, r8, r7, lsl ip
    2974:	000c5200 	andeq	r5, ip, r0, lsl #4
    2978:	0003c600 	andeq	ip, r3, r0, lsl #12
    297c:	50011800 	andpl	r1, r1, r0, lsl #16
    2980:	7dd09103 	ldfvcp	f1, [r0, #12]
    2984:	03510118 	cmpeq	r1, #6
    2988:	007ed291 			; <UNDEFINED> instruction: 0x007ed291
    298c:	009a5017 	addseq	r5, sl, r7, lsl r0
    2990:	000c3a00 	andeq	r3, ip, r0, lsl #20
    2994:	0003e800 	andeq	lr, r3, r0, lsl #16
    2998:	50011800 	andpl	r1, r1, r0, lsl #16
    299c:	18007602 	stmdane	r0, {r1, r9, sl, ip, sp, lr}
    29a0:	03055101 	movweq	r5, #20737	; 0x5101
    29a4:	0000ad60 	andeq	sl, r0, r0, ror #26
    29a8:	01520118 	cmpeq	r2, r8, lsl r1
    29ac:	74170033 	ldrvc	r0, [r7], #-51	; 0xffffffcd
    29b0:	a400009a 	strge	r0, [r0], #-154	; 0xffffff66
    29b4:	1500000a 	strne	r0, [r0, #-10]
    29b8:	18000004 	stmdane	r0, {r2}
    29bc:	3a015001 	bcc	569c8 <__bss_end__+0x4b4f8>
    29c0:	03510118 	cmpeq	r1, #6
    29c4:	187dd091 	ldmdane	sp!, {r0, r4, r7, ip, lr, pc}^
    29c8:	7b025201 	blvc	971d4 <__bss_end__+0x8bd04>
    29cc:	53011800 	movwpl	r1, #6144	; 0x1800
    29d0:	18007502 	stmdane	r0, {r1, r8, sl, ip, sp, lr}
    29d4:	02007d02 	andeq	r7, r0, #128	; 0x80
    29d8:	17000076 	smlsdxne	r0, r6, r0, r0
    29dc:	00009a94 	muleq	r0, r4, sl
    29e0:	00000aa4 	andeq	r0, r0, r4, lsr #21
    29e4:	0000043c 	andeq	r0, r0, ip, lsr r4
    29e8:	01500118 	cmpeq	r0, r8, lsl r1
    29ec:	5101183a 	tstpl	r1, sl, lsr r8
    29f0:	7ed09103 	atnvcs	f1, f3
    29f4:	02520118 	subseq	r0, r2, #6
    29f8:	02180079 	andseq	r0, r8, #121, 0	; 0x79
    29fc:	7602007d 			; <UNDEFINED> instruction: 0x7602007d
    2a00:	a0170000 	andsge	r0, r7, r0
    2a04:	5e00009a 	mcrpl	0, 0, r0, cr0, cr10, {4}
    2a08:	5a00000c 	bpl	2a40 <__code_start__-0x55c0>
    2a0c:	18000004 	stmdane	r0, {r2}
    2a10:	91035001 	tstls	r3, r1
    2a14:	01187dd0 			; <UNDEFINED> instruction: 0x01187dd0
    2a18:	68030551 	stmdavs	r3, {r0, r4, r6, r8, sl}
    2a1c:	000000ab 	andeq	r0, r0, fp, lsr #1
    2a20:	009ab417 	addseq	fp, sl, r7, lsl r4
    2a24:	000c6a00 	andeq	r6, ip, r0, lsl #20
    2a28:	00047600 	andeq	r7, r4, r0, lsl #12
    2a2c:	50011800 	andpl	r1, r1, r0, lsl #16
    2a30:	7dd09103 	ldfvcp	f1, [r0, #12]
    2a34:	03510118 	cmpeq	r1, #6
    2a38:	007ed091 			; <UNDEFINED> instruction: 0x007ed091
    2a3c:	009ac019 	addseq	ip, sl, r9, lsl r0
    2a40:	000c5200 	andeq	r5, ip, r0, lsl #4
    2a44:	9b841700 	blls	fe10864c <__bss_end__+0xfe0fd17c>
    2a48:	0c460000 	mareq	acc0, r0, r6
    2a4c:	04a80000 	strteq	r0, [r8], #0
    2a50:	01180000 	tsteq	r8, r0
    2a54:	c8030550 	stmdagt	r3, {r4, r6, r8, sl}
    2a58:	180000a8 	stmdane	r0, {r3, r5, r7}
    2a5c:	03055101 	movweq	r5, #20737	; 0x5101
    2a60:	0000ad00 	andeq	sl, r0, r0, lsl #26
    2a64:	05520118 	ldrbeq	r0, [r2, #-280]	; 0xfffffee8
    2a68:	00ae5803 	adceq	r5, lr, r3, lsl #16
    2a6c:	88190000 	ldmdahi	r9, {}	; <UNPREDICTABLE>
    2a70:	7600009b 			; <UNDEFINED> instruction: 0x7600009b
    2a74:	1700000c 	strne	r0, [r0, -ip]
    2a78:	00009ba0 	andeq	r9, r0, r0, lsr #23
    2a7c:	00000c46 	andeq	r0, r0, r6, asr #24
    2a80:	000004e7 	andeq	r0, r0, r7, ror #9
    2a84:	05500118 	ldrbeq	r0, [r0, #-280]	; 0xfffffee8
    2a88:	00ada003 	adceq	sl, sp, r3
    2a8c:	51011800 	tstpl	r1, r0, lsl #16
    2a90:	ad000305 	stcge	3, cr0, [r0, #-20]	; 0xffffffec
    2a94:	01180000 	tsteq	r8, r0
    2a98:	58030552 	stmdapl	r3, {r1, r4, r6, r8, sl}
    2a9c:	180000ae 	stmdane	r0, {r1, r2, r3, r5, r7}
    2aa0:	08025301 	stmdaeq	r2, {r0, r8, r9, ip, lr}
    2aa4:	7d0218b6 	stcvc	8, cr1, [r2, #-728]	; 0xfffffd28
    2aa8:	00760200 	rsbseq	r0, r6, r0, lsl #4
    2aac:	9ba41900 	blls	fe908eb4 <__bss_end__+0xfe8fd9e4>
    2ab0:	0c760000 	ldcleq	0, cr0, [r6], #-0
    2ab4:	1a000000 	bne	2abc <__code_start__-0x5544>
    2ab8:	000009e3 	andeq	r0, r0, r3, ror #19
    2abc:	00009654 	andeq	r9, r0, r4, asr r6
    2ac0:	02100004 	andseq	r0, r0, #4, 0
    2ac4:	94010000 	strls	r0, [r1], #-0
    2ac8:	0005150a 	andeq	r1, r5, sl, lsl #10
    2acc:	09f41b00 	ldmibeq	r4!, {r8, r9, fp, ip}^
    2ad0:	14030000 	strne	r0, [r3], #-0
    2ad4:	13ff0000 	mvnsne	r0, #0, 0
    2ad8:	1a000000 	bne	2ae0 <__code_start__-0x5520>
    2adc:	00000895 	muleq	r0, r5, r8
    2ae0:	0000983c 	andeq	r9, r0, ip, lsr r8
    2ae4:	02300001 	eorseq	r0, r0, #1, 0
    2ae8:	dc010000 	stcle	0, cr0, [r1], {-0}
    2aec:	00064b09 	andeq	r4, r6, r9, lsl #22
    2af0:	08be1b00 	ldmeq	lr!, {r8, r9, fp, ip}
    2af4:	14310000 	ldrtne	r0, [r1], #-0
    2af8:	142b0000 	strtne	r0, [fp], #-0
    2afc:	e01b0000 	ands	r0, fp, r0
    2b00:	66000008 	strvs	r0, [r0], -r8
    2b04:	60000014 	andvs	r0, r0, r4, lsl r0
    2b08:	1b000014 	blne	2b60 <__code_start__-0x54a0>
    2b0c:	000008d4 	ldrdeq	r0, [r0], -r4
    2b10:	00001498 	muleq	r0, r8, r4
    2b14:	00001492 	muleq	r0, r2, r4
    2b18:	0008c81c 	andeq	ip, r8, ip, lsl r8
    2b1c:	08b21b00 	ldmeq	r2!, {r8, r9, fp, ip}
    2b20:	14c90000 	strbne	r0, [r9], #0
    2b24:	14c10000 	strbne	r0, [r1], #0
    2b28:	a61b0000 	ldrge	r0, [fp], -r0
    2b2c:	0c000008 	stceq	0, cr0, [r0], {8}
    2b30:	06000015 			; <UNDEFINED> instruction: 0x06000015
    2b34:	13000015 	movwne	r0, #21
    2b38:	00000230 	andeq	r0, r0, r0, lsr r2
    2b3c:	0008ec1d 	andeq	lr, r8, sp, lsl ip
    2b40:	d8910300 	ldmle	r1, {r8, r9}
    2b44:	08f81e7e 	ldmeq	r8!, {r1, r2, r3, r4, r5, r6, r9, sl, fp, ip}^
    2b48:	15460000 	strbne	r0, [r6, #-0]
    2b4c:	15380000 	ldrne	r0, [r8, #-0]!
    2b50:	021f0000 	andseq	r0, pc, #0, 0
    2b54:	1a000009 	bne	2b80 <__code_start__-0x5480>
    2b58:	000009a3 	andeq	r0, r0, r3, lsr #19
    2b5c:	00009848 	andeq	r9, r0, r8, asr #16
    2b60:	02600004 	rsbeq	r0, r0, #4, 0
    2b64:	7c010000 	stcvc	0, cr0, [r1], {-0}
    2b68:	0005e209 	andeq	lr, r5, r9, lsl #4
    2b6c:	09ca1b00 	stmibeq	sl, {r8, r9, fp, ip}^
    2b70:	15b00000 	ldrne	r0, [r0, #0]!
    2b74:	15aa0000 	strne	r0, [sl, #0]!
    2b78:	be1b0000 	cdplt	0, 1, cr0, cr11, cr0, {0}
    2b7c:	e5000009 	str	r0, [r0, #-9]
    2b80:	d9000015 	stmdble	r0, {r0, r2, r4}
    2b84:	1b000015 	blne	2be0 <__code_start__-0x5420>
    2b88:	000009b4 			; <UNDEFINED> instruction: 0x000009b4
    2b8c:	0000164b 	andeq	r1, r0, fp, asr #12
    2b90:	0000163b 	andeq	r1, r0, fp, lsr r6
    2b94:	00026013 	andeq	r6, r2, r3, lsl r0
    2b98:	09d61e00 	ldmibeq	r6, {r9, sl, fp, ip}^
    2b9c:	16c80000 	strbne	r0, [r8], r0
    2ba0:	16ba0000 	ldrtne	r0, [sl], r0
    2ba4:	00000000 	andeq	r0, r0, r0
    2ba8:	00094f20 	andeq	r4, r9, r0, lsr #30
    2bac:	00991000 	addseq	r1, r9, r0
    2bb0:	90000200 	andls	r0, r0, r0, lsl #4
    2bb4:	01000002 	tsteq	r0, r2
    2bb8:	801b097c 	andshi	r0, fp, ip, ror r9
    2bbc:	28000009 	stmdacs	r0, {r0, r3}
    2bc0:	22000017 	andcs	r0, r0, #23, 0
    2bc4:	1b000017 	blne	2c28 <__code_start__-0x53d8>
    2bc8:	00000976 	andeq	r0, r0, r6, ror r9
    2bcc:	0000175e 	andeq	r1, r0, lr, asr r7
    2bd0:	00001754 	andeq	r1, r0, r4, asr r7
    2bd4:	00096c1b 	andeq	r6, r9, fp, lsl ip
    2bd8:	0017ad00 	andseq	sl, r7, r0, lsl #26
    2bdc:	0017a900 	andseq	sl, r7, r0, lsl #18
    2be0:	09601b00 	stmdbeq	r0!, {r8, r9, fp, ip}^
    2be4:	17dd0000 	ldrbne	r0, [sp, r0]
    2be8:	17cf0000 	strbne	r0, [pc, r0]
    2bec:	90130000 	andsls	r0, r3, r0
    2bf0:	1e000002 	cdpne	0, 0, cr0, cr0, cr2, {0}
    2bf4:	0000098c 	andeq	r0, r0, ip, lsl #19
    2bf8:	00001842 	andeq	r1, r0, r2, asr #16
    2bfc:	00001840 	andeq	r1, r0, r0, asr #16
    2c00:	0009981e 	andeq	r9, r9, lr, lsl r8
    2c04:	00185c00 	andseq	r5, r8, r0, lsl #24
    2c08:	00185600 	andseq	r5, r8, r0, lsl #12
    2c0c:	00000000 	andeq	r0, r0, r0
    2c10:	08951a00 	ldmeq	r5, {r9, fp, ip}
    2c14:	994c0000 	stmdbls	ip, {}^	; <UNPREDICTABLE>
    2c18:	00000000 	andeq	r0, r0, r0
    2c1c:	000002c0 	andeq	r0, r0, r0, asr #5
    2c20:	8909d601 	stmdbhi	r9, {r0, r9, sl, ip, lr, pc}
    2c24:	1b000007 	blne	2c48 <__code_start__-0x53b8>
    2c28:	000008be 			; <UNDEFINED> instruction: 0x000008be
    2c2c:	0000188f 	andeq	r1, r0, pc, lsl #17
    2c30:	0000188b 	andeq	r1, r0, fp, lsl #17
    2c34:	0008e01b 	andeq	lr, r8, fp, lsl r0
    2c38:	0018b500 	andseq	fp, r8, r0, lsl #10
    2c3c:	0018b100 	andseq	fp, r8, r0, lsl #2
    2c40:	08d41b00 	ldmeq	r4, {r8, r9, fp, ip}^
    2c44:	18d90000 	ldmne	r9, {}^	; <UNPREDICTABLE>
    2c48:	18d50000 	ldmne	r5, {}^	; <UNPREDICTABLE>
    2c4c:	c81c0000 	ldmdagt	ip, {}	; <UNPREDICTABLE>
    2c50:	1b000008 	blne	2c78 <__code_start__-0x5388>
    2c54:	000008b2 			; <UNDEFINED> instruction: 0x000008b2
    2c58:	000018fd 	strdeq	r1, [r0], -sp
    2c5c:	000018f7 	strdeq	r1, [r0], -r7
    2c60:	0008a61b 	andeq	sl, r8, fp, lsl r6
    2c64:	00193000 	andseq	r3, r9, r0
    2c68:	00192c00 	andseq	r2, r9, r0, lsl #24
    2c6c:	02c01300 	sbceq	r1, r0, #0, 6
    2c70:	ec1d0000 	ldc	0, cr0, [sp], {-0}
    2c74:	03000008 	movweq	r0, #8
    2c78:	1e7ed891 	mrcne	8, 3, sp, cr14, cr1, {4}
    2c7c:	000008f8 	strdeq	r0, [r0], -r8
    2c80:	0000195a 	andeq	r1, r0, sl, asr r9
    2c84:	00001950 	andeq	r1, r0, r0, asr r9
    2c88:	0009021e 	andeq	r0, r9, lr, lsl r2
    2c8c:	00199f00 	andseq	r9, r9, r0, lsl #30
    2c90:	00199b00 	andseq	r9, r9, r0, lsl #22
    2c94:	09a31a00 	stmibeq	r3!, {r9, fp, ip}
    2c98:	99680000 	stmdbls	r8!, {}^	; <UNPREDICTABLE>
    2c9c:	00030000 	andeq	r0, r3, r0
    2ca0:	000002e0 	andeq	r0, r0, r0, ror #5
    2ca4:	20097c01 	andcs	r7, r9, r1, lsl #24
    2ca8:	1b000007 	blne	2ccc <__code_start__-0x5334>
    2cac:	000009ca 	andeq	r0, r0, sl, asr #19
    2cb0:	000019c1 	andeq	r1, r0, r1, asr #19
    2cb4:	000019bd 			; <UNDEFINED> instruction: 0x000019bd
    2cb8:	0009be1b 	andeq	fp, r9, fp, lsl lr
    2cbc:	0019e300 	andseq	lr, r9, r0, lsl #6
    2cc0:	0019df00 	andseq	sp, r9, r0, lsl #30
    2cc4:	09b41b00 	ldmibeq	r4!, {r8, r9, fp, ip}
    2cc8:	1a0d0000 	bne	342cd0 <__bss_end__+0x337800>
    2ccc:	1a010000 	bne	42cd4 <__bss_end__+0x37804>
    2cd0:	e0130000 	ands	r0, r3, r0
    2cd4:	1e000002 	cdpne	0, 0, cr0, cr0, cr2, {0}
    2cd8:	000009d6 	ldrdeq	r0, [r0], -r6
    2cdc:	00001a69 	andeq	r1, r0, r9, ror #20
    2ce0:	00001a5d 	andeq	r1, r0, sp, asr sl
    2ce4:	4f200000 	svcmi	0x00200000
    2ce8:	f0000009 			; <UNDEFINED> instruction: 0xf0000009
    2cec:	02000099 	andeq	r0, r0, #153, 0	; 0x99
    2cf0:	00030800 	andeq	r0, r3, r0, lsl #16
    2cf4:	097c0100 	ldmdbeq	ip!, {r8}^
    2cf8:	0009801b 	andeq	r8, r9, fp, lsl r0
    2cfc:	001ab900 	andseq	fp, sl, r0, lsl #18
    2d00:	001ab500 	andseq	fp, sl, r0, lsl #10
    2d04:	09761b00 	ldmdbeq	r6!, {r8, r9, fp, ip}^
    2d08:	1ae10000 	bne	ff842d10 <__bss_end__+0xff837840>
    2d0c:	1ad70000 	bne	ff5c2d14 <__bss_end__+0xff5b7844>
    2d10:	6c1b0000 	ldcvs	0, cr0, [fp], {-0}
    2d14:	2d000009 	stccs	0, cr0, [r0, #-36]	; 0xffffffdc
    2d18:	2900001b 	stmdbcs	r0, {r0, r1, r3, r4}
    2d1c:	1b00001b 	blne	2d90 <__code_start__-0x5270>
    2d20:	00000960 	andeq	r0, r0, r0, ror #18
    2d24:	00001b5b 	andeq	r1, r0, fp, asr fp
    2d28:	00001b4f 	andeq	r1, r0, pc, asr #22
    2d2c:	00030813 	andeq	r0, r3, r3, lsl r8
    2d30:	098c1e00 	stmibeq	ip, {r9, sl, fp, ip}
    2d34:	1bb50000 	blne	fed42d3c <__bss_end__+0xfed3786c>
    2d38:	1bb10000 	blne	fec42d40 <__bss_end__+0xfec37870>
    2d3c:	981e0000 	ldmdals	lr, {}	; <UNPREDICTABLE>
    2d40:	db000009 	blle	2d6c <__code_start__-0x5294>
    2d44:	d700001b 	smladle	r0, fp, r0, r0
    2d48:	0000001b 	andeq	r0, r0, fp, lsl r0
    2d4c:	17000000 	strne	r0, [r0, -r0]
    2d50:	0000971c 	andeq	r9, r0, ip, lsl r7
    2d54:	00000aa4 	andeq	r0, r0, r4, lsr #21
    2d58:	000007af 	andeq	r0, r0, pc, lsr #15
    2d5c:	01500118 	cmpeq	r0, r8, lsl r1
    2d60:	51011840 	tstpl	r1, r0, asr #16
    2d64:	7dd09103 	ldfvcp	f1, [r0, #12]
    2d68:	02530118 	subseq	r0, r3, #6
    2d6c:	02180075 	andseq	r0, r8, #117, 0	; 0x75
    2d70:	3001007d 	andcc	r0, r1, sp, ror r0
    2d74:	982c1700 	stmdals	ip!, {r8, r9, sl, ip}
    2d78:	0aa40000 	beq	fe902d80 <__bss_end__+0xfe8f78b0>
    2d7c:	07cf0000 	strbeq	r0, [pc, r0]
    2d80:	01180000 	tsteq	r8, r0
    2d84:	183a0150 	ldmdane	sl!, {r4, r6, r8}
    2d88:	91035101 	tstls	r3, r1, lsl #2
    2d8c:	01187dd0 			; <UNDEFINED> instruction: 0x01187dd0
    2d90:	00750253 	rsbseq	r0, r5, r3, asr r2
    2d94:	9b101700 	blls	40899c <__bss_end__+0x3fd4cc>
    2d98:	0c460000 	mareq	acc0, r0, r6
    2d9c:	07e60000 	strbeq	r0, [r6, r0]!
    2da0:	01180000 	tsteq	r8, r0
    2da4:	f0030550 			; <UNDEFINED> instruction: 0xf0030550
    2da8:	000000ad 	andeq	r0, r0, sp, lsr #1
    2dac:	009b2021 	addseq	r2, fp, r1, lsr #32
    2db0:	0007f800 	andeq	pc, r7, r0, lsl #16
    2db4:	50011800 	andpl	r1, r1, r0, lsl #16
    2db8:	7dc89104 	stfvcp	f1, [r8, #16]
    2dbc:	34170006 	ldrcc	r0, [r7], #-6
    2dc0:	4600009b 			; <UNDEFINED> instruction: 0x4600009b
    2dc4:	2700000c 	strcs	r0, [r0, -ip]
    2dc8:	18000008 	stmdane	r0, {r3}
    2dcc:	03055001 	movweq	r5, #20481	; 0x5001
    2dd0:	0000ae20 	andeq	sl, r0, r0, lsr #28
    2dd4:	05510118 	ldrbeq	r0, [r1, #-280]	; 0xfffffee8
    2dd8:	00ad0003 	adceq	r0, sp, r3
    2ddc:	52011800 	andpl	r1, r1, #0, 16
    2de0:	ae580305 	cdpge	3, 5, cr0, cr8, cr5, {0}
    2de4:	01180000 	tsteq	r8, r0
    2de8:	e2080253 	and	r0, r8, #805306373	; 0x30000005
    2dec:	9b381900 	blls	e091f4 <__bss_end__+0xdfdd24>
    2df0:	0c760000 	ldcleq	0, cr0, [r6], #-0
    2df4:	4c170000 	ldcmi	0, cr0, [r7], {-0}
    2df8:	4600009b 			; <UNDEFINED> instruction: 0x4600009b
    2dfc:	5f00000c 	svcpl	0x0000000c
    2e00:	18000008 	stmdane	r0, {r3}
    2e04:	03055001 	movweq	r5, #20481	; 0x5001
    2e08:	0000adc8 	andeq	sl, r0, r8, asr #27
    2e0c:	05510118 	ldrbeq	r0, [r1, #-280]	; 0xfffffee8
    2e10:	00ad0003 	adceq	r0, sp, r3
    2e14:	52011800 	andpl	r1, r1, #0, 16
    2e18:	ae580305 	cdpge	3, 5, cr0, cr8, cr5, {0}
    2e1c:	01180000 	tsteq	r8, r0
    2e20:	be080253 	mcrlt	2, 0, r0, cr8, cr3, {2}
    2e24:	9b501900 	blls	140922c <__bss_end__+0x13fdd5c>
    2e28:	0c760000 	ldcleq	0, cr0, [r6], #-0
    2e2c:	00000000 	andeq	r0, r0, r0
    2e30:	00b90408 	adcseq	r0, r9, r8, lsl #8
    2e34:	c0220000 	eorgt	r0, r2, r0
    2e38:	80000000 	andhi	r0, r0, r0
    2e3c:	23000008 	movwcs	r0, #8
    2e40:	0000002c 	andeq	r0, r0, ip, lsr #32
    2e44:	70090009 	andvc	r0, r9, r9
    2e48:	22000008 	andcs	r0, r0, #8, 0
    2e4c:	000000b9 	strheq	r0, [r0], -r9
    2e50:	00000895 	muleq	r0, r5, r8
    2e54:	00002c23 	andeq	r2, r0, r3, lsr #24
    2e58:	24007f00 	strcs	r7, [r0], #-3840	; 0xfffff100
    2e5c:	00000785 	andeq	r0, r0, r5, lsl #15
    2e60:	6a014901 	bvs	5526c <__bss_end__+0x49d9c>
    2e64:	01000008 	tsteq	r0, r8
    2e68:	0000092a 	andeq	r0, r0, sl, lsr #18
    2e6c:	0003be25 	andeq	fp, r3, r5, lsr #28
    2e70:	0f490100 	svceq	0x00490100
    2e74:	0000002c 	andeq	r0, r0, ip, lsr #32
    2e78:	74736426 	ldrbtvc	r6, [r3], #-1062	; 0xfffffbda
    2e7c:	1b490100 	blne	1243284 <__bss_end__+0x1237db4>
    2e80:	0000086a 	andeq	r0, r0, sl, ror #16
    2e84:	01006e26 	tsteq	r0, r6, lsr #28
    2e88:	00332449 	eorseq	r2, r3, r9, asr #8
    2e8c:	76260000 	strtvc	r0, [r6], -r0
    2e90:	01006c61 	tsteq	r0, r1, ror #24
    2e94:	00332b49 	eorseq	r2, r3, r9, asr #22
    2e98:	3d250000 	stccc	0, cr0, [r5, #-0]
    2e9c:	01000007 	tsteq	r0, r7
    2ea0:	00333449 	eorseq	r3, r3, r9, asr #8
    2ea4:	bb250000 	bllt	942eac <__bss_end__+0x9379dc>
    2ea8:	01000007 	tsteq	r0, r7
    2eac:	00333f49 	eorseq	r3, r3, r9, asr #30
    2eb0:	62270000 	eorvs	r0, r7, #0, 0
    2eb4:	01006675 	tsteq	r0, r5, ror r6
    2eb8:	092a074e 	stmdbeq	sl!, {r1, r2, r3, r6, r8, r9, sl}
    2ebc:	70270000 	eorvc	r0, r7, r0
    2ec0:	114e0100 	mrsne	r0, (UNDEF: 94)
    2ec4:	0000086a 	andeq	r0, r0, sl, ror #16
    2ec8:	01007527 	tsteq	r0, r7, lsr #10
    2ecc:	002c0b4f 	eoreq	r0, ip, pc, asr #22
    2ed0:	5a120000 	bpl	482ed8 <__bss_end__+0x477a08>
    2ed4:	4a000000 	bmi	2edc <__code_start__-0x5124>
    2ed8:	05000009 	streq	r0, [r0, #-9]
    2edc:	00ae4003 	adceq	r4, lr, r3
    2ee0:	72292800 	eorvc	r2, r9, #0, 16
    2ee4:	01000007 	tsteq	r0, r7
    2ee8:	002c0d54 	eoreq	r0, ip, r4, asr sp
    2eec:	00000000 	andeq	r0, r0, r0
    2ef0:	0000b922 	andeq	fp, r0, r2, lsr #18
    2ef4:	00093a00 	andeq	r3, r9, r0, lsl #20
    2ef8:	002c2300 	eoreq	r2, ip, r0, lsl #6
    2efc:	003f0000 	eorseq	r0, pc, r0
    2f00:	0000c022 	andeq	ip, r0, r2, lsr #32
    2f04:	00094a00 	andeq	r4, r9, r0, lsl #20
    2f08:	002c2300 	eoreq	r2, ip, r0, lsl #6
    2f0c:	00040000 	andeq	r0, r4, r0
    2f10:	00093a09 	andeq	r3, r9, r9, lsl #20
    2f14:	078a2400 	streq	r2, [sl, r0, lsl #8]
    2f18:	38010000 	stmdacc	r1, {}	; <UNPREDICTABLE>
    2f1c:	00086a0e 	andeq	r6, r8, lr, lsl #20
    2f20:	09a30100 	stmibeq	r3!, {r8}
    2f24:	64260000 	strtvs	r0, [r6], #-0
    2f28:	01007473 	tsteq	r0, r3, ror r4
    2f2c:	086a1c38 	stmdaeq	sl!, {r3, r4, r5, sl, fp, ip}^
    2f30:	6e260000 	cdpvs	0, 2, cr0, cr6, cr0, {0}
    2f34:	25380100 	ldrcs	r0, [r8, #-256]!	; 0xffffff00
    2f38:	00000033 	andeq	r0, r0, r3, lsr r0
    2f3c:	01007026 	tsteq	r0, r6, lsr #32
    2f40:	086a2e38 	stmdaeq	sl!, {r3, r4, r5, r9, sl, fp, sp}^
    2f44:	82250000 	eorhi	r0, r5, #0, 0
    2f48:	01000002 	tsteq	r0, r2
    2f4c:	086a3738 	stmdaeq	sl!, {r3, r4, r5, r8, r9, sl, ip, sp}^
    2f50:	6c270000 	stcvs	0, cr0, [r7], #-0
    2f54:	01006e65 	tsteq	r0, r5, ror #28
    2f58:	0033063a 	eorseq	r0, r3, sl, lsr r6
    2f5c:	73270000 			; <UNDEFINED> instruction: 0x73270000
    2f60:	083e0100 	ldmdaeq	lr!, {r8}
    2f64:	0000086a 	andeq	r0, r0, sl, ror #16
    2f68:	61702a00 	cmnvs	r0, r0, lsl #20
    2f6c:	2e010064 	cdpcs	0, 0, cr0, cr1, cr4, {3}
    2f70:	00086a0e 	andeq	r6, r8, lr, lsl #20
    2f74:	09e30100 	stmibeq	r3!, {r8}^
    2f78:	70260000 	eorvc	r0, r6, r0
    2f7c:	182e0100 	stmdane	lr!, {r8}
    2f80:	0000086a 	andeq	r0, r0, sl, ror #16
    2f84:	0003be25 	andeq	fp, r3, r5, lsr #28
    2f88:	222e0100 	eorcs	r0, lr, #0
    2f8c:	0000086a 	andeq	r0, r0, sl, ror #16
    2f90:	00073d25 	andeq	r3, r7, r5, lsr #26
    2f94:	2c2e0100 	stfcss	f0, [lr], #-0
    2f98:	00000033 	andeq	r0, r0, r3, lsr r0
    2f9c:	6e656c27 	cdpvs	12, 6, cr6, cr5, cr7, {1}
    2fa0:	062f0100 	strteq	r0, [pc], -r0, lsl #2
    2fa4:	00000033 	andeq	r0, r0, r3, lsr r0
    2fa8:	070a2400 	streq	r2, [sl, -r0, lsl #8]
    2fac:	27010000 	strcs	r0, [r1, -r0]
    2fb0:	0000330c 	andeq	r3, r0, ip, lsl #6
    2fb4:	09ff0100 	ldmibeq	pc!, {r8}^	; <UNPREDICTABLE>
    2fb8:	63260000 			; <UNDEFINED> instruction: 0x63260000
    2fbc:	18270100 	stmdane	r7!, {r8}
    2fc0:	00000033 	andeq	r0, r0, r3, lsr r0
    2fc4:	074b2b00 	strbeq	r2, [fp, -r0, lsl #22]
    2fc8:	1f010000 	svcne	0x00010000
    2fcc:	00956806 	addseq	r6, r5, r6, lsl #16
    2fd0:	00006000 	andeq	r6, r0, r0
    2fd4:	8f9c0100 	svchi	0x009c0100
    2fd8:	0f00000a 	svceq	0x0000000a
    2fdc:	00000743 	andeq	r0, r0, r3, asr #14
    2fe0:	9e1b1f01 	cdpls	15, 1, cr1, cr11, cr1, {0}
    2fe4:	00000000 	andeq	r0, r0, r0
    2fe8:	fc00001c 	stc2	0, cr0, [r0], {28}
    2fec:	0f00001b 	svceq	0x0000001b
    2ff0:	00000799 	muleq	r0, r9, r7
    2ff4:	d1301f01 	teqle	r0, r1, lsl #30
    2ff8:	25000000 	strcs	r0, [r0, #-0]
    2ffc:	2100001c 	tstcs	r0, ip, lsl r0
    3000:	1200001c 	andne	r0, r0, #28, 0
    3004:	0000005a 	andeq	r0, r0, sl, asr r0
    3008:	00000a9f 	muleq	r0, pc, sl	; <UNPREDICTABLE>
    300c:	ae480305 	cdpge	3, 4, cr0, cr8, cr5, {0}
    3010:	ac170000 	ldcge	0, cr0, [r7], {-0}
    3014:	46000095 			; <UNDEFINED> instruction: 0x46000095
    3018:	8500000c 	strhi	r0, [r0, #-12]
    301c:	1800000a 	stmdane	r0, {r1, r3}
    3020:	03055001 	movweq	r5, #20481	; 0x5001
    3024:	0000a8c8 	andeq	sl, r0, r8, asr #17
    3028:	05510118 	ldrbeq	r0, [r1, #-280]	; 0xfffffee8
    302c:	00ad0003 	adceq	r0, sp, r3
    3030:	52011800 	andpl	r1, r1, #0, 16
    3034:	ae480305 	cdpge	3, 4, cr0, cr8, cr5, {0}
    3038:	01180000 	tsteq	r8, r0
    303c:	20080253 	andcs	r0, r8, r3, asr r2
    3040:	007d0218 	rsbseq	r0, sp, r8, lsl r2
    3044:	ad380305 	ldcge	3, cr0, [r8, #-20]!	; 0xffffffec
    3048:	19000000 	stmdbne	r0, {}	; <UNPREDICTABLE>
    304c:	000095b0 			; <UNDEFINED> instruction: 0x000095b0
    3050:	00000c76 	andeq	r0, r0, r6, ror ip
    3054:	00c02200 	sbceq	r2, r0, r0, lsl #4
    3058:	0a9f0000 	beq	fe7c3060 <__bss_end__+0xfe7b7b90>
    305c:	2c230000 	stccs	0, cr0, [r3], #-0
    3060:	0e000000 	cdpeq	0, 0, cr0, cr0, cr0, {0}
    3064:	0a8f0900 	beq	fe3c546c <__bss_end__+0xfe3b9f9c>
    3068:	952c0000 	strls	r0, [ip, #-0]!
    306c:	40000008 	andmi	r0, r0, r8
    3070:	28000092 	stmdacs	r0, {r1, r4, r7}
    3074:	01000003 	tsteq	r0, r3
    3078:	000c3a9c 	muleq	ip, ip, sl
    307c:	08a61b00 	stmiaeq	r6!, {r8, r9, fp, ip}
    3080:	1c5e0000 	mrane	r0, lr, acc0
    3084:	1c460000 	marne	acc0, r0, r6
    3088:	b21b0000 	andslt	r0, fp, #0, 0
    308c:	08000008 	stmdaeq	r0, {r3}
    3090:	0000001d 	andeq	r0, r0, sp, lsl r0
    3094:	1b00001d 	blne	3110 <__code_start__-0x4ef0>
    3098:	000008c8 	andeq	r0, r0, r8, asr #17
    309c:	00001d5f 	andeq	r1, r0, pc, asr sp
    30a0:	00001d3f 	andeq	r1, r0, pc, lsr sp
    30a4:	0008d41b 	andeq	sp, r8, fp, lsl r4
    30a8:	001e3500 	andseq	r3, lr, r0, lsl #10
    30ac:	001e2700 	andseq	r2, lr, r0, lsl #14
    30b0:	08e02d00 	stmiaeq	r0!, {r8, sl, fp, sp}^
    30b4:	91020000 	mrsls	r0, (UNDEF: 2)
    30b8:	08ec1d00 	stmiaeq	ip!, {r8, sl, fp, ip}^
    30bc:	91030000 	mrsls	r0, (UNDEF: 3)
    30c0:	f81e7fa8 			; <UNDEFINED> instruction: 0xf81e7fa8
    30c4:	c9000008 	stmdbgt	r0, {r3}
    30c8:	9500001e 	strls	r0, [r0, #-30]	; 0xffffffe2
    30cc:	1e00001e 	mcrne	0, 0, r0, cr0, cr14, {0}
    30d0:	00000902 	andeq	r0, r0, r2, lsl #18
    30d4:	00002030 	andeq	r2, r0, r0, lsr r0
    30d8:	0000200e 	andeq	r2, r0, lr
    30dc:	0008be2e 	andeq	fp, r8, lr, lsr #28
    30e0:	a31a8000 	tstge	sl, #0, 0
    30e4:	e4000009 	str	r0, [r0], #-9
    30e8:	04000092 	streq	r0, [r0], #-146	; 0xffffff6e
    30ec:	00015800 	andeq	r5, r1, r0, lsl #16
    30f0:	097c0100 	ldmdbeq	ip!, {r8}^
    30f4:	00000b6d 	andeq	r0, r0, sp, ror #22
    30f8:	0009ca1b 	andeq	ip, r9, fp, lsl sl
    30fc:	00211800 	eoreq	r1, r1, r0, lsl #16
    3100:	00210e00 	eoreq	r0, r1, r0, lsl #28
    3104:	09be1b00 	ldmibeq	lr!, {r8, r9, fp, ip}
    3108:	216c0000 	cmncs	ip, r0
    310c:	215c0000 	cmpcs	ip, r0
    3110:	b41b0000 	ldrlt	r0, [fp], #-0
    3114:	ec000009 	stc	0, cr0, [r0], {9}
    3118:	d8000021 	stmdale	r0, {r0, r5}
    311c:	13000021 	movwne	r0, #33	; 0x21
    3120:	00000158 	andeq	r0, r0, r8, asr r1
    3124:	0009d61e 	andeq	sp, r9, lr, lsl r6
    3128:	00227e00 	eoreq	r7, r2, r0, lsl #28
    312c:	00226e00 	eoreq	r6, r2, r0, lsl #28
    3130:	1a000000 	bne	3138 <__code_start__-0x4ec8>
    3134:	0000094f 	andeq	r0, r0, pc, asr #18
    3138:	0000939c 	muleq	r0, ip, r3
    313c:	01a00002 	moveq	r0, r2
    3140:	7c010000 	stcvc	0, cr0, [r1], {-0}
    3144:	000bd809 	andeq	sp, fp, r9, lsl #16
    3148:	09801b00 	stmibeq	r0, {r8, r9, fp, ip}
    314c:	22ea0000 	rsccs	r0, sl, #0, 0
    3150:	22e20000 	rsccs	r0, r2, #0, 0
    3154:	761b0000 	ldrvc	r0, [fp], -r0
    3158:	29000009 	stmdbcs	r0, {r0, r3}
    315c:	21000023 	tstcs	r0, r3, lsr #32
    3160:	1b000023 	blne	31f4 <__code_start__-0x4e0c>
    3164:	0000096c 	andeq	r0, r0, ip, ror #18
    3168:	00002368 	andeq	r2, r0, r8, ror #6
    316c:	00002364 	andeq	r2, r0, r4, ror #6
    3170:	0009601b 	andeq	r6, r9, fp, lsl r0
    3174:	00239800 	eoreq	r9, r3, r0, lsl #16
    3178:	00238a00 	eoreq	r8, r3, r0, lsl #20
    317c:	01a01300 	lsleq	r1, r0, #6
    3180:	8c1e0000 	ldchi	0, cr0, [lr], {-0}
    3184:	fd000009 	stc2	0, cr0, [r0, #-36]	; 0xffffffdc
    3188:	f7000023 			; <UNDEFINED> instruction: 0xf7000023
    318c:	1e000023 	cdpne	0, 0, cr0, cr0, cr3, {1}
    3190:	00000998 	muleq	r0, r8, r9
    3194:	0000242f 	andeq	r2, r0, pc, lsr #8
    3198:	0000242b 	andeq	r2, r0, fp, lsr #8
    319c:	1b2f0000 	blne	bc31a4 <__bss_end__+0xbb7cd4>
    31a0:	54000009 	strpl	r0, [r0], #-9
    31a4:	60000094 	mulvs	r0, r4, r0
    31a8:	f7000000 			; <UNDEFINED> instruction: 0xf7000000
    31ac:	1e00000b 	cdpne	0, 0, cr0, cr0, cr11, {0}
    31b0:	0000091c 	andeq	r0, r0, ip, lsl r9
    31b4:	00002451 	andeq	r2, r0, r1, asr r4
    31b8:	0000244d 	andeq	r2, r0, sp, asr #8
    31bc:	95281700 	strls	r1, [r8, #-1792]!	; 0xfffff900
    31c0:	0c460000 	mareq	acc0, r0, r6
    31c4:	0c300000 	ldceq	0, cr0, [r0], #-0
    31c8:	01180000 	tsteq	r8, r0
    31cc:	c8030550 	stmdagt	r3, {r4, r6, r8, sl}
    31d0:	180000a8 	stmdane	r0, {r3, r5, r7}
    31d4:	03055101 	movweq	r5, #20737	; 0x5101
    31d8:	0000ad00 	andeq	sl, r0, r0, lsl #26
    31dc:	05520118 	ldrbeq	r0, [r2, #-280]	; 0xfffffee8
    31e0:	00ae4003 	adceq	r4, lr, r3
    31e4:	53011800 	movwpl	r1, #6144	; 0x1800
    31e8:	18790802 	ldmdane	r9!, {r1, fp}^
    31ec:	05007d02 	streq	r7, [r0, #-3330]	; 0xfffff2fe
    31f0:	00ab6803 	adceq	r6, fp, r3, lsl #16
    31f4:	2c190000 	ldccs	0, cr0, [r9], {-0}
    31f8:	76000095 			; <UNDEFINED> instruction: 0x76000095
    31fc:	0000000c 	andeq	r0, r0, ip
    3200:	0007b330 	andeq	fp, r7, r0, lsr r3
    3204:	0007b300 	andeq	fp, r7, r0, lsl #6
    3208:	05eb0300 	strbeq	r0, [fp, #768]!	; 0x300
    320c:	00068830 	andeq	r8, r6, r0, lsr r8
    3210:	00068800 	andeq	r8, r6, r0, lsl #16
    3214:	06280300 	strteq	r0, [r8], -r0, lsl #6
    3218:	00076430 	andeq	r6, r7, r0, lsr r4
    321c:	00076400 	andeq	r6, r7, r0, lsl #8
    3220:	07ee0300 	strbeq	r0, [lr, r0, lsl #6]!
    3224:	00079230 	andeq	r9, r7, r0, lsr r2
    3228:	00079200 	andeq	r9, r7, r0, lsl #4
    322c:	05ea0300 	strbeq	r0, [sl, #768]!	; 0x300
    3230:	00076b30 	andeq	r6, r7, r0, lsr fp
    3234:	00076b00 	andeq	r6, r7, r0, lsl #22
    3238:	07ed0300 	strbeq	r0, [sp, r0, lsl #6]!
    323c:	00006730 	andeq	r6, r0, r0, lsr r7
    3240:	00006700 	andeq	r6, r0, r0, lsl #14
    3244:	066e0300 	strbteq	r0, [lr], -r0, lsl #6
    3248:	00012f00 	andeq	r2, r1, r0, lsl #30
    324c:	0e000400 	cfcpyseq	mvf0, mvf0
    3250:	04000011 	streq	r0, [r0], #-17	; 0xffffffef
    3254:	00056001 	andeq	r6, r5, r1
    3258:	07d80c00 	ldrbeq	r0, [r8, r0, lsl #24]
    325c:	06260000 	strteq	r0, [r6], -r0
    3260:	9bf40000 	blls	ffd03268 <__bss_end__+0xffcf7d98>
    3264:	002c0000 	eoreq	r0, ip, r0
    3268:	1c100000 	ldcne	0, cr0, [r0], {-0}
    326c:	04020000 	streq	r0, [r2], #-0
    3270:	746e6905 	strbtvc	r6, [lr], #-2309	; 0xfffff6fb
    3274:	07040300 	streq	r0, [r4, -r0, lsl #6]
    3278:	00000182 	andeq	r0, r0, r2, lsl #3
    327c:	83060103 	movwhi	r0, #24835	; 0x6103
    3280:	03000000 	movweq	r0, #0
    3284:	001d0502 	andseq	r0, sp, r2, lsl #10
    3288:	04030000 	streq	r0, [r3], #-0
    328c:	00005105 	andeq	r5, r0, r5, lsl #2
    3290:	05080300 	streq	r0, [r8, #-768]	; 0xfffffd00
    3294:	0000004c 	andeq	r0, r0, ip, asr #32
    3298:	81080103 	tsthi	r8, r3, lsl #2
    329c:	03000000 	movweq	r0, #0
    32a0:	01970702 	orrseq	r0, r7, r2, lsl #14
    32a4:	04030000 	streq	r0, [r3], #-0
    32a8:	00017d07 	andeq	r7, r1, r7, lsl #26
    32ac:	07080300 	streq	r0, [r8, -r0, lsl #6]
    32b0:	00000178 	andeq	r0, r0, r8, ror r1
    32b4:	00002504 	andeq	r2, r0, r4, lsl #10
    32b8:	00007a00 	andeq	r7, r0, r0, lsl #20
    32bc:	00250500 	eoreq	r0, r5, r0, lsl #10
    32c0:	06000000 	streq	r0, [r0], -r0
    32c4:	00000027 	andeq	r0, r0, r7, lsr #32
    32c8:	860e1c02 	strhi	r1, [lr], -r2, lsl #24
    32cc:	07000000 	streq	r0, [r0, -r0]
    32d0:	00006b04 	andeq	r6, r0, r4, lsl #22
    32d4:	00250400 	eoreq	r0, r5, r0, lsl #8
    32d8:	009b0000 	addseq	r0, fp, r0
    32dc:	9b050000 	blls	1432e4 <__bss_end__+0x137e14>
    32e0:	00000000 	andeq	r0, r0, r0
    32e4:	00a80407 	adceq	r0, r8, r7, lsl #8
    32e8:	01030000 	mrseq	r0, (UNDEF: 3)
    32ec:	00008a08 	andeq	r8, r0, r8, lsl #20
    32f0:	00a10800 	adceq	r0, r1, r0, lsl #16
    32f4:	c6060000 	strgt	r0, [r6], -r0
    32f8:	02000006 	andeq	r0, r0, #6, 0
    32fc:	00b90e21 	adcseq	r0, r9, r1, lsr #28
    3300:	04070000 	streq	r0, [r7], #-0
    3304:	0000008c 	andeq	r0, r0, ip, lsl #1
    3308:	00006709 	andeq	r6, r0, r9, lsl #14
    330c:	06040100 	streq	r0, [r4], -r0, lsl #2
    3310:	00009bf4 	strdeq	r9, [r0], -r4
    3314:	0000002c 	andeq	r0, r0, ip, lsr #32
    3318:	010e9c01 	tsteq	lr, r1, lsl #24
    331c:	080a0000 	stmdaeq	sl, {}	; <UNPREDICTABLE>
    3320:	e800009c 	stmda	r0, {r2, r3, r4, r7}
    3324:	0b000000 	bleq	332c <__code_start__-0x4cd4>
    3328:	03055001 	movweq	r5, #20481	; 0x5001
    332c:	0000ae64 	andeq	sl, r0, r4, ror #28
    3330:	9c0c0c00 	stcls	12, cr0, [ip], {-0}
    3334:	010e0000 	mrseq	r0, (UNDEF: 14)
    3338:	140d0000 	strne	r0, [sp], #-0
    333c:	1a00009c 	bne	35b4 <__code_start__-0x4a4c>
    3340:	04000001 	streq	r0, [r0], #-1
    3344:	0b000001 	bleq	3350 <__code_start__-0x4cb0>
    3348:	3a015001 	bcc	57354 <__bss_end__+0x4be84>
    334c:	9c180c00 	ldcls	12, cr0, [r8], {-0}
    3350:	01260000 			; <UNDEFINED> instruction: 0x01260000
    3354:	0e000000 	cdpeq	0, 0, cr0, cr0, cr0, {0}
    3358:	000007f3 	strdeq	r0, [r0], -r3
    335c:	000007f3 	strdeq	r0, [r0], -r3
    3360:	0e064d02 	cdpeq	13, 0, cr4, cr6, cr2, {0}
    3364:	000007cf 	andeq	r0, r0, pc, asr #15
    3368:	000007cf 	andeq	r0, r0, pc, asr #15
    336c:	0e065802 	cdpeq	8, 0, cr5, cr6, cr2, {0}
    3370:	000007c4 	andeq	r0, r0, r4, asr #15
    3374:	000007c4 	andeq	r0, r0, r4, asr #15
    3378:	00066b02 	andeq	r6, r6, r2, lsl #22
    337c:	000002b1 			; <UNDEFINED> instruction: 0x000002b1
    3380:	11ce0004 	bicne	r0, lr, r4
    3384:	01040000 	mrseq	r0, (UNDEF: 4)
    3388:	00000560 	andeq	r0, r0, r0, ror #10
    338c:	0008290c 	andeq	r2, r8, ip, lsl #18
    3390:	00062600 	andeq	r2, r6, r0, lsl #12
    3394:	009c2000 	addseq	r2, ip, r0
    3398:	00012800 	andeq	r2, r1, r0, lsl #16
    339c:	001c9b00 	andseq	r9, ip, r0, lsl #22
    33a0:	05040200 	streq	r0, [r4, #-512]	; 0xfffffe00
    33a4:	00746e69 	rsbseq	r6, r4, r9, ror #28
    33a8:	82070403 	andhi	r0, r7, #50331648	; 0x3000000
    33ac:	03000001 	movweq	r0, #1
    33b0:	00830601 	addeq	r0, r3, r1, lsl #12
    33b4:	02030000 	andeq	r0, r3, #0, 0
    33b8:	00001d05 	andeq	r1, r0, r5, lsl #26
    33bc:	05040300 	streq	r0, [r4, #-768]	; 0xfffffd00
    33c0:	00000051 	andeq	r0, r0, r1, asr r0
    33c4:	4c050803 	stcmi	8, cr0, [r5], {3}
    33c8:	03000000 	movweq	r0, #0
    33cc:	00810801 	addeq	r0, r1, r1, lsl #16
    33d0:	02030000 	andeq	r0, r3, #0, 0
    33d4:	00019707 	andeq	r9, r1, r7, lsl #14
    33d8:	07040300 	streq	r0, [r4, -r0, lsl #6]
    33dc:	0000017d 	andeq	r0, r0, sp, ror r1
    33e0:	78070803 	stmdavc	r7, {r0, r1, fp}
    33e4:	04000001 	streq	r0, [r0], #-1
    33e8:	00000025 	andeq	r0, r0, r5, lsr #32
    33ec:	0000007a 	andeq	r0, r0, sl, ror r0
    33f0:	00002505 	andeq	r2, r0, r5, lsl #10
    33f4:	27060000 	strcs	r0, [r6, -r0]
    33f8:	02000000 	andeq	r0, r0, #0, 0
    33fc:	00860e1c 	addeq	r0, r6, ip, lsl lr
    3400:	04070000 	streq	r0, [r7], #-0
    3404:	0000006b 	andeq	r0, r0, fp, rrx
    3408:	00002504 	andeq	r2, r0, r4, lsl #10
    340c:	00009b00 	andeq	r9, r0, r0, lsl #22
    3410:	009b0500 	addseq	r0, fp, r0, lsl #10
    3414:	07000000 	streq	r0, [r0, -r0]
    3418:	0000a804 	andeq	sl, r0, r4, lsl #16
    341c:	08010300 	stmdaeq	r1, {r8, r9}
    3420:	0000008a 	andeq	r0, r0, sl, lsl #1
    3424:	0000a108 	andeq	sl, r0, r8, lsl #2
    3428:	06c60600 	strbeq	r0, [r6], r0, lsl #12
    342c:	21020000 	mrscs	r0, (UNDEF: 2)
    3430:	0000b90e 	andeq	fp, r0, lr, lsl #18
    3434:	8c040700 	stchi	7, cr0, [r4], {-0}
    3438:	09000000 	stmdbeq	r0, {}	; <UNPREDICTABLE>
    343c:	00000801 	andeq	r0, r0, r1, lsl #16
    3440:	20061101 	andcs	r1, r6, r1, lsl #2
    3444:	2800009c 	stmdacs	r0, {r2, r3, r4, r7}
    3448:	01000001 	tsteq	r0, r1
    344c:	0002269c 	muleq	r2, ip, r6
    3450:	03ff0600 	mvnseq	r0, #0, 12
    3454:	12010000 	andne	r0, r1, #0, 0
    3458:	00002510 	andeq	r2, r0, r0, lsl r5
    345c:	04d10600 	ldrbeq	r0, [r1], #1536	; 0x600
    3460:	12010000 	andne	r0, r1, #0, 0
    3464:	0000251f 	andeq	r2, r0, pc, lsl r5
    3468:	018f0a00 	orreq	r0, pc, r0, lsl #20
    346c:	13010000 	movwne	r0, #4096	; 0x1000
    3470:	73620b07 	cmnvc	r2, #7168	; 0x1c00
    3474:	17010073 	smlsdxne	r1, r3, r0, r0
    3478:	0002260a 	andeq	r2, r2, sl, lsl #12
    347c:	00248900 	eoreq	r8, r4, r0, lsl #18
    3480:	00247100 	eoreq	r7, r4, r0, lsl #2
    3484:	08090c00 	stmdaeq	r9, {sl, fp}
    3488:	18010000 	stmdane	r1, {}	; <UNPREDICTABLE>
    348c:	0002260a 	andeq	r2, r2, sl, lsl #12
    3490:	08490d00 	stmdaeq	r9, {r8, sl, fp}^
    3494:	25010000 	strcs	r0, [r1, #-0]
    3498:	00002c0e 	andeq	r2, r0, lr, lsl #24
    349c:	00252300 	eoreq	r2, r5, r0, lsl #6
    34a0:	00252100 	eoreq	r2, r5, r0, lsl #2
    34a4:	9cf80e00 	ldclls	14, cr0, [r8]
    34a8:	00080000 	andeq	r0, r8, r0
    34ac:	014a0000 	mrseq	r0, (UNDEF: 74)
    34b0:	690b0000 	stmdbvs	fp, {}	; <UNPREDICTABLE>
    34b4:	2101006e 	tstcs	r1, lr, rrx
    34b8:	00002c05 	andeq	r2, r0, r5, lsl #24
    34bc:	00253800 	eoreq	r3, r5, r0, lsl #16
    34c0:	00253600 	eoreq	r3, r5, r0, lsl #12
    34c4:	2c0f0000 	stccs	0, cr0, [pc], {-0}
    34c8:	00000002 	andeq	r0, r0, r2
    34cc:	0200009d 	andeq	r0, r0, #157, 0	; 0x9d
    34d0:	00009d00 	andeq	r9, r0, r0, lsl #26
    34d4:	0000000c 	andeq	r0, r0, ip
    34d8:	99052301 	stmdbls	r5, {r0, r8, r9, sp}
    34dc:	10000001 	andne	r0, r0, r1
    34e0:	0000024f 	andeq	r0, r0, pc, asr #4
    34e4:	0000254e 	andeq	r2, r0, lr, asr #10
    34e8:	0000254c 	andeq	r2, r0, ip, asr #10
    34ec:	00025b10 	andeq	r5, r2, r0, lsl fp
    34f0:	00256400 	eoreq	r6, r5, r0, lsl #8
    34f4:	00256200 	eoreq	r6, r5, r0, lsl #4
    34f8:	02671100 	rsbeq	r1, r7, #0
    34fc:	9d000000 	stcls	0, cr0, [r0, #-0]
    3500:	00040000 	andeq	r0, r4, r0
    3504:	68100000 	ldmdavs	r0, {}	; <UNPREDICTABLE>
    3508:	79000002 	stmdbvc	r0, {r1}
    350c:	77000025 	strvc	r0, [r0, -r5, lsr #32]
    3510:	00000025 	andeq	r0, r0, r5, lsr #32
    3514:	022c1200 	eoreq	r1, ip, #0, 4
    3518:	9d100000 	ldcls	0, cr0, [r0, #-0]
    351c:	30010000 	andcc	r0, r1, r0
    3520:	01000003 	tsteq	r0, r3
    3524:	01ea1525 	mvneq	r1, r5, lsr #10
    3528:	30130000 	andscc	r0, r3, r0
    352c:	10000003 	andne	r0, r0, r3
    3530:	0000024f 	andeq	r0, r0, pc, asr #4
    3534:	00002590 	muleq	r0, r0, r5
    3538:	0000258c 	andeq	r2, r0, ip, lsl #11
    353c:	00025b10 	andeq	r5, r2, r0, lsl fp
    3540:	0025b100 	eoreq	fp, r5, r0, lsl #2
    3544:	0025af00 	eoreq	sl, r5, r0, lsl #30
    3548:	02671100 	rsbeq	r1, r7, #0
    354c:	9d100000 	ldcls	0, cr0, [r0, #-0]
    3550:	00040000 	andeq	r0, r4, r0
    3554:	68100000 	ldmdavs	r0, {}	; <UNPREDICTABLE>
    3558:	c6000002 	strgt	r0, [r0], -r2
    355c:	c4000025 	strgt	r0, [r0], #-37	; 0xffffffdb
    3560:	00000025 	andeq	r0, r0, r5, lsr #32
    3564:	28140000 	ldmdacs	r4, {}	; <UNPREDICTABLE>
    3568:	7600009c 			; <UNDEFINED> instruction: 0x7600009c
    356c:	14000002 	strne	r0, [r0], #-2
    3570:	00009cf8 	strdeq	r9, [r0], -r8
    3574:	00000283 	andeq	r0, r0, r3, lsl #5
    3578:	009d1014 	addseq	r1, sp, r4, lsl r0
    357c:	00028f00 	andeq	r8, r2, r0, lsl #30
    3580:	9d2c1500 	cfstr32ls	mvfx1, [ip, #-0]
    3584:	029c0000 	addseq	r0, ip, #0, 0
    3588:	021c0000 	andseq	r0, ip, #0, 0
    358c:	01160000 	tsteq	r6, r0
    3590:	70030550 	andvc	r0, r3, r0, asr r5
    3594:	000000ae 	andeq	r0, r0, lr, lsr #1
    3598:	009d3014 	addseq	r3, sp, r4, lsl r0
    359c:	0002a800 	andeq	sl, r2, r0, lsl #16
    35a0:	04070000 	streq	r0, [r7], #-0
    35a4:	00000025 	andeq	r0, r0, r5, lsr #32
    35a8:	00084317 	andeq	r4, r8, r7, lsl r3
    35ac:	11040100 	mrsne	r0, (UNDEF: 20)
    35b0:	0000002c 	andeq	r0, r0, ip, lsr #32
    35b4:	00027601 	andeq	r7, r2, r1, lsl #12
    35b8:	084e1800 	stmdaeq	lr, {fp, ip}^
    35bc:	05010000 	streq	r0, [r1, #-0]
    35c0:	00002c15 	andeq	r2, r0, r5, lsl ip
    35c4:	c4030500 	strgt	r0, [r3], #-1280	; 0xfffffb00
    35c8:	0c0000b4 	stceq	0, cr0, [r0], {180}	; 0xb4
    35cc:	00000849 	andeq	r0, r0, r9, asr #16
    35d0:	2c0e0701 	stccs	7, cr0, [lr], {1}
    35d4:	19000000 	stmdbne	r0, {}	; <UNPREDICTABLE>
    35d8:	00727563 	rsbseq	r7, r2, r3, ror #10
    35dc:	2c0e0901 			; <UNDEFINED> instruction: 0x2c0e0901
    35e0:	1a000000 	bne	35e8 <__code_start__-0x4a18>
    35e4:	00083e0c 	andeq	r3, r8, ip, lsl #28
    35e8:	14090100 	strne	r0, [r9], #-256	; 0xffffff00
    35ec:	0000002c 	andeq	r0, r0, ip, lsr #32
    35f0:	1b1b0000 	blne	6c35f8 <__bss_end__+0x6b8128>
    35f4:	1b000008 	blne	361c <__code_start__-0x49e4>
    35f8:	02000008 	andeq	r0, r0, #8, 0
    35fc:	1c060131 	stfnes	f0, [r6], {49}	; 0x31
    3600:	00000811 	andeq	r0, r0, r1, lsl r8
    3604:	00000811 	andeq	r0, r0, r1, lsl r8
    3608:	1b063b02 	blne	192218 <__bss_end__+0x186d48>
    360c:	0000018f 	andeq	r0, r0, pc, lsl #3
    3610:	0000018f 	andeq	r0, r0, pc, lsl #3
    3614:	06010502 	streq	r0, [r1], -r2, lsl #10
    3618:	0006881c 	andeq	r8, r6, ip, lsl r8
    361c:	00068800 	andeq	r8, r6, r0, lsl #16
    3620:	06280200 	strteq	r0, [r8], -r0, lsl #4
    3624:	0000671c 	andeq	r6, r0, ip, lsl r7
    3628:	00006700 	andeq	r6, r0, r0, lsl #14
    362c:	066e0200 	strbteq	r0, [lr], -r0, lsl #4
    3630:	0000ce00 	andeq	ip, r0, r0, lsl #28
    3634:	6c000400 	cfstrsvs	mvf0, [r0], {-0}
    3638:	04000013 	streq	r0, [r0], #-19	; 0xffffffed
    363c:	00056001 	andeq	r6, r5, r1
    3640:	08530c00 	ldmdaeq	r3, {sl, fp}^
    3644:	06260000 	strteq	r0, [r6], -r0
    3648:	9d480000 	stclls	0, cr0, [r8, #-0]
    364c:	00040000 	andeq	r0, r4, r0
    3650:	1e150000 	cdpne	0, 1, cr0, cr5, cr0, {0}
    3654:	04020000 	streq	r0, [r2], #-0
    3658:	746e6905 	strbtvc	r6, [lr], #-2309	; 0xfffff6fb
    365c:	07040300 	streq	r0, [r4, -r0, lsl #6]
    3660:	00000182 	andeq	r0, r0, r2, lsl #3
    3664:	83060103 	movwhi	r0, #24835	; 0x6103
    3668:	03000000 	movweq	r0, #0
    366c:	001d0502 	andseq	r0, sp, r2, lsl #10
    3670:	04030000 	streq	r0, [r3], #-0
    3674:	00005105 	andeq	r5, r0, r5, lsl #2
    3678:	05080300 	streq	r0, [r8, #-768]	; 0xfffffd00
    367c:	0000004c 	andeq	r0, r0, ip, asr #32
    3680:	81080103 	tsthi	r8, r3, lsl #2
    3684:	03000000 	movweq	r0, #0
    3688:	01970702 	orrseq	r0, r7, r2, lsl #14
    368c:	04030000 	streq	r0, [r3], #-0
    3690:	00017d07 	andeq	r7, r1, r7, lsl #26
    3694:	07080300 	streq	r0, [r8, -r0, lsl #6]
    3698:	00000178 	andeq	r0, r0, r8, ror r1
    369c:	00002504 	andeq	r2, r0, r4, lsl #10
    36a0:	00007a00 	andeq	r7, r0, r0, lsl #20
    36a4:	00250500 	eoreq	r0, r5, r0, lsl #10
    36a8:	06000000 	streq	r0, [r0], -r0
    36ac:	00000027 	andeq	r0, r0, r7, lsr #32
    36b0:	860e1c02 	strhi	r1, [lr], -r2, lsl #24
    36b4:	07000000 	streq	r0, [r0, -r0]
    36b8:	00006b04 	andeq	r6, r0, r4, lsl #22
    36bc:	00250400 	eoreq	r0, r5, r0, lsl #8
    36c0:	009b0000 	addseq	r0, fp, r0
    36c4:	9b050000 	blls	1436cc <__bss_end__+0x1381fc>
    36c8:	00000000 	andeq	r0, r0, r0
    36cc:	00a80407 	adceq	r0, r8, r7, lsl #8
    36d0:	01030000 	mrseq	r0, (UNDEF: 3)
    36d4:	00008a08 	andeq	r8, r0, r8, lsl #20
    36d8:	00a10800 	adceq	r0, r1, r0, lsl #16
    36dc:	c6060000 	strgt	r0, [r6], -r0
    36e0:	02000006 	andeq	r0, r0, #6, 0
    36e4:	00b90e21 	adcseq	r0, r9, r1, lsr #28
    36e8:	04070000 	streq	r0, [r7], #-0
    36ec:	0000008c 	andeq	r0, r0, ip, lsl #1
    36f0:	00081b09 	andeq	r1, r8, r9, lsl #22
    36f4:	06040100 	streq	r0, [r4], -r0, lsl #2
    36f8:	00009d48 	andeq	r9, r0, r8, asr #26
    36fc:	00000004 	andeq	r0, r0, r4
    3700:	7d009c01 	stcvc	12, cr9, [r0, #-4]
    3704:	04000002 	streq	r0, [r0], #-2
    3708:	0013e500 	andseq	lr, r3, r0, lsl #10
    370c:	60010400 	andvs	r0, r1, r0, lsl #8
    3710:	0c000005 	stceq	0, cr0, [r0], {5}
    3714:	0000089b 	muleq	r0, fp, r8
    3718:	00000626 	andeq	r0, r0, r6, lsr #12
    371c:	00000360 	andeq	r0, r0, r0, ror #6
    3720:	00000000 	andeq	r0, r0, r0
    3724:	00001e96 	muleq	r0, r6, lr
    3728:	69050402 	stmdbvs	r5, {r1, sl}
    372c:	0300746e 	movweq	r7, #1134	; 0x46e
    3730:	00000025 	andeq	r0, r0, r5, lsr #32
    3734:	82070404 	andhi	r0, r7, #4, 8	; 0x4000000
    3738:	04000001 	streq	r0, [r0], #-1
    373c:	00830601 	addeq	r0, r3, r1, lsl #12
    3740:	02040000 	andeq	r0, r4, #0, 0
    3744:	00001d05 	andeq	r1, r0, r5, lsl #26
    3748:	05040400 	streq	r0, [r4, #-1024]	; 0xfffffc00
    374c:	00000051 	andeq	r0, r0, r1, asr r0
    3750:	4c050804 	stcmi	8, cr0, [r5], {4}
    3754:	04000000 	streq	r0, [r0], #-0
    3758:	00810801 	addeq	r0, r1, r1, lsl #16
    375c:	02040000 	andeq	r0, r4, #0, 0
    3760:	00019707 	andeq	r9, r1, r7, lsl #14
    3764:	07040400 	streq	r0, [r4, -r0, lsl #8]
    3768:	0000017d 	andeq	r0, r0, sp, ror r1
    376c:	78070804 	stmdavc	r7, {r2, fp}
    3770:	05000001 	streq	r0, [r0, #-1]
    3774:	00000025 	andeq	r0, r0, r5, lsr #32
    3778:	0000007f 	andeq	r0, r0, pc, ror r0
    377c:	00002506 	andeq	r2, r0, r6, lsl #10
    3780:	27070000 	strcs	r0, [r7, -r0]
    3784:	02000000 	andeq	r0, r0, #0, 0
    3788:	008b0e1c 	addeq	r0, fp, ip, lsl lr
    378c:	04080000 	streq	r0, [r8], #-0
    3790:	00000070 	andeq	r0, r0, r0, ror r0
    3794:	00002505 	andeq	r2, r0, r5, lsl #10
    3798:	0000a000 	andeq	sl, r0, r0
    379c:	00a00600 	adceq	r0, r0, r0, lsl #12
    37a0:	08000000 	stmdaeq	r0, {}	; <UNPREDICTABLE>
    37a4:	0000ad04 	andeq	sl, r0, r4, lsl #26
    37a8:	08010400 	stmdaeq	r1, {sl}
    37ac:	0000008a 	andeq	r0, r0, sl, lsl #1
    37b0:	0000a603 	andeq	sl, r0, r3, lsl #12
    37b4:	06c60700 	strbeq	r0, [r6], r0, lsl #14
    37b8:	21020000 	mrscs	r0, (UNDEF: 2)
    37bc:	0000be0e 	andeq	fp, r0, lr, lsl #28
    37c0:	91040800 	tstls	r4, r0, lsl #16
    37c4:	09000000 	stmdbeq	r0, {}	; <UNPREDICTABLE>
    37c8:	000008bf 			; <UNDEFINED> instruction: 0x000008bf
    37cc:	31110d01 	tstcc	r1, r1, lsl #26
    37d0:	0a000000 	beq	37d8 <__code_start__-0x4828>
    37d4:	000007c4 	andeq	r0, r0, r4, asr #15
    37d8:	78061f01 	stmdavc	r6, {r0, r8, r9, sl, fp, ip}
    37dc:	6000009d 	mulvs	r0, sp, r0
    37e0:	01000000 	mrseq	r0, (UNDEF: 0)
    37e4:	0001d59c 	muleq	r1, ip, r5
    37e8:	08e30b00 	stmiaeq	r3!, {r8, r9, fp}^
    37ec:	2c010000 	stccs	0, cr0, [r1], {-0}
    37f0:	00002c0f 	andeq	r2, r0, pc, lsl #24
    37f4:	10001c00 	andne	r1, r0, r0, lsl #24
    37f8:	087e0b20 	ldmdaeq	lr!, {r5, r8, r9, fp}^
    37fc:	2d010000 	stccs	0, cr0, [r1, #-0]
    3800:	00002c0f 	andeq	r2, r0, pc, lsl #24
    3804:	10002400 	andne	r2, r0, r0, lsl #8
    3808:	08b00b20 	ldmeq	r0!, {r5, r8, r9, fp}
    380c:	2e010000 	cdpcs	0, 0, cr0, cr1, cr0, {0}
    3810:	00002c0f 	andeq	r2, r0, pc, lsl #24
    3814:	00000000 	andeq	r0, r0, r0
    3818:	08ca0c5a 	stmiaeq	sl, {r1, r3, r4, r6, sl, fp}^
    381c:	2f010000 	svccs	0x00010000
    3820:	00002c0f 	andeq	r2, r0, pc, lsl #24
    3824:	ef0d2000 	svc	0x000d2000
    3828:	78000001 	stmdavc	r0, {r0}
    382c:	0200009d 	andeq	r0, r0, #157, 0	; 0x9d
    3830:	00000348 	andeq	r0, r0, r8, asr #6
    3834:	4c082001 	stcmi	0, cr2, [r8], {1}
    3838:	0e000001 	cdpeq	0, 0, cr0, cr0, cr1, {0}
    383c:	00000348 	andeq	r0, r0, r8, asr #6
    3840:	0002000f 	andeq	r0, r2, pc
    3844:	0025dd00 	eoreq	sp, r5, r0, lsl #26
    3848:	0025d900 	eoreq	sp, r5, r0, lsl #18
    384c:	10000000 	andne	r0, r0, r0
    3850:	000001d5 	ldrdeq	r0, [r0], -r5
    3854:	00009d8c 	andeq	r9, r0, ip, lsl #27
    3858:	009d8c01 	addseq	r8, sp, r1, lsl #24
    385c:	00001000 	andeq	r1, r0, r0
    3860:	09210100 	stmdbeq	r1!, {r8}
    3864:	00000173 	andeq	r0, r0, r3, ror r1
    3868:	0001e20f 	andeq	lr, r1, pc, lsl #4
    386c:	00260400 	eoreq	r0, r6, r0, lsl #8
    3870:	0025fc00 	eoreq	pc, r5, r0, lsl #24
    3874:	a0110000 	andsge	r0, r1, r0
    3878:	4f00009d 	svcmi	0x0000009d
    387c:	11000002 	tstne	r0, r2
    3880:	00009da4 	andeq	r9, r0, r4, lsr #27
    3884:	0000025c 	andeq	r0, r0, ip, asr r2
    3888:	009dac12 	addseq	sl, sp, r2, lsl ip
    388c:	00026800 	andeq	r6, r2, r0, lsl #16
    3890:	00019800 	andeq	r9, r1, r0, lsl #16
    3894:	50011300 	andpl	r1, r1, r0, lsl #6
    3898:	12003a01 	andne	r3, r0, #4096	; 0x1000
    389c:	00009db8 			; <UNDEFINED> instruction: 0x00009db8
    38a0:	00000274 	andeq	r0, r0, r4, ror r2
    38a4:	000001b8 			; <UNDEFINED> instruction: 0x000001b8
    38a8:	05500113 	ldrbeq	r0, [r0, #-275]	; 0xfffffeed
    38ac:	1000240c 	andne	r2, r0, ip, lsl #8
    38b0:	51011320 	tstpl	r1, r0, lsr #6
    38b4:	00010c05 	andeq	r0, r1, r5, lsl #24
    38b8:	14005a00 	strne	r5, [r0], #-2560	; 0xfffff600
    38bc:	00009dc4 	andeq	r9, r0, r4, asr #27
    38c0:	00000274 	andeq	r0, r0, r4, ror r2
    38c4:	05500113 	ldrbeq	r0, [r0, #-275]	; 0xfffffeed
    38c8:	10001c0c 	andne	r1, r0, ip, lsl #24
    38cc:	51011320 	tstpl	r1, r0, lsr #6
    38d0:	00200c05 	eoreq	r0, r0, r5, lsl #24
    38d4:	00005a00 	andeq	r5, r0, r0, lsl #20
    38d8:	00088c15 	andeq	r8, r8, r5, lsl ip
    38dc:	06170100 	ldreq	r0, [r7], -r0, lsl #2
    38e0:	0001ef01 	andeq	lr, r1, r1, lsl #30
    38e4:	08eb0900 	stmiaeq	fp!, {r8, fp}^
    38e8:	18010000 	stmdane	r1, {}	; <UNPREDICTABLE>
    38ec:	0000310e 	andeq	r3, r0, lr, lsl #2
    38f0:	bc160000 	ldclt	0, cr0, [r6], {-0}
    38f4:	01000008 	tsteq	r0, r8
    38f8:	0025050e 	eoreq	r0, r5, lr, lsl #10
    38fc:	0d010000 	stceq	0, cr0, [r1, #-0]
    3900:	09000002 	stmdbeq	r0, {r1}
    3904:	000008eb 	andeq	r0, r0, fp, ror #17
    3908:	310e0f01 	tstcc	lr, r1, lsl #30
    390c:	00000000 	andeq	r0, r0, r0
    3910:	0001ef17 	andeq	lr, r1, r7, lsl pc
    3914:	009d4c00 	addseq	r4, sp, r0, lsl #24
    3918:	00001800 	andeq	r1, r0, r0, lsl #16
    391c:	2e9c0100 	fmlcse	f0, f4, f0
    3920:	0f000002 	svceq	0x00000002
    3924:	00000200 	andeq	r0, r0, r0, lsl #4
    3928:	00002641 	andeq	r2, r0, r1, asr #12
    392c:	0000263d 	andeq	r2, r0, sp, lsr r6
    3930:	01d51700 	bicseq	r1, r5, r0, lsl #14
    3934:	9d640000 	stclls	0, cr0, [r4, #-0]
    3938:	00140000 	andseq	r0, r4, r0
    393c:	9c010000 	stcls	0, cr0, [r1], {-0}
    3940:	0000024f 	andeq	r0, r0, pc, asr #4
    3944:	0001e20f 	andeq	lr, r1, pc, lsl #4
    3948:	00266800 	eoreq	r6, r6, r0, lsl #16
    394c:	00266000 	eoreq	r6, r6, r0
    3950:	6f180000 	svcvs	0x00180000
    3954:	6f000008 	svcvs	0x00000008
    3958:	02000008 	andeq	r0, r0, #8, 0
    395c:	19060136 	stmdbne	r6, {r1, r2, r4, r5, r8}
    3960:	000007f3 	strdeq	r0, [r0], -r3
    3964:	000007f3 	strdeq	r0, [r0], -r3
    3968:	19064d02 	stmdbne	r6, {r1, r8, sl, fp, lr}
    396c:	000007cf 	andeq	r0, r0, pc, asr #15
    3970:	000007cf 	andeq	r0, r0, pc, asr #15
    3974:	19065802 	stmdbne	r6, {r1, fp, ip, lr}
    3978:	00000886 	andeq	r0, r0, r6, lsl #17
    397c:	00000886 	andeq	r0, r0, r6, lsl #17
    3980:	0006ad02 	andeq	sl, r6, r2, lsl #26
    3984:	0000053f 	andeq	r0, r0, pc, lsr r5
    3988:	15680004 	strbne	r0, [r8, #-4]!
    398c:	01040000 	mrseq	r0, (UNDEF: 4)
    3990:	00000560 	andeq	r0, r0, r0, ror #10
    3994:	0009060c 	andeq	r0, r9, ip, lsl #12
    3998:	00062600 	andeq	r2, r6, r0, lsl #12
    399c:	009dd800 	addseq	sp, sp, r0, lsl #16
    39a0:	00011c00 	andeq	r1, r1, r0, lsl #24
    39a4:	001fae00 	andseq	sl, pc, r0, lsl #28
    39a8:	05040200 	streq	r0, [r4, #-512]	; 0xfffffe00
    39ac:	00746e69 	rsbseq	r6, r4, r9, ror #28
    39b0:	82070403 	andhi	r0, r7, #50331648	; 0x3000000
    39b4:	03000001 	movweq	r0, #1
    39b8:	00830601 	addeq	r0, r3, r1, lsl #12
    39bc:	02030000 	andeq	r0, r3, #0, 0
    39c0:	00001d05 	andeq	r1, r0, r5, lsl #26
    39c4:	05040300 	streq	r0, [r4, #-768]	; 0xfffffd00
    39c8:	00000051 	andeq	r0, r0, r1, asr r0
    39cc:	4c050803 	stcmi	8, cr0, [r5], {3}
    39d0:	03000000 	movweq	r0, #0
    39d4:	00810801 	addeq	r0, r1, r1, lsl #16
    39d8:	02030000 	andeq	r0, r3, #0, 0
    39dc:	00019707 	andeq	r9, r1, r7, lsl #14
    39e0:	07040300 	streq	r0, [r4, -r0, lsl #6]
    39e4:	0000017d 	andeq	r0, r0, sp, ror r1
    39e8:	78070803 	stmdavc	r7, {r0, r1, fp}
    39ec:	04000001 	streq	r0, [r0], #-1
    39f0:	00000025 	andeq	r0, r0, r5, lsr #32
    39f4:	0000007a 	andeq	r0, r0, sl, ror r0
    39f8:	00002505 	andeq	r2, r0, r5, lsl #10
    39fc:	27060000 	strcs	r0, [r6, -r0]
    3a00:	02000000 	andeq	r0, r0, #0, 0
    3a04:	00860e1c 	addeq	r0, r6, ip, lsl lr
    3a08:	04070000 	streq	r0, [r7], #-0
    3a0c:	0000006b 	andeq	r0, r0, fp, rrx
    3a10:	00002504 	andeq	r2, r0, r4, lsl #10
    3a14:	00009b00 	andeq	r9, r0, r0, lsl #22
    3a18:	009b0500 	addseq	r0, fp, r0, lsl #10
    3a1c:	07000000 	streq	r0, [r0, -r0]
    3a20:	0000a804 	andeq	sl, r0, r4, lsl #16
    3a24:	08010300 	stmdaeq	r1, {r8, r9}
    3a28:	0000008a 	andeq	r0, r0, sl, lsl #1
    3a2c:	0000a108 	andeq	sl, r0, r8, lsl #2
    3a30:	06c60600 	strbeq	r0, [r6], r0, lsl #12
    3a34:	21020000 	mrscs	r0, (UNDEF: 2)
    3a38:	0000b90e 	andeq	fp, r0, lr, lsl #18
    3a3c:	8c040700 	stchi	7, cr0, [r4], {-0}
    3a40:	09000000 	stmdbeq	r0, {}	; <UNPREDICTABLE>
    3a44:	000008fc 	strdeq	r0, [r0], -ip
    3a48:	a0061e01 	andge	r1, r6, r1, lsl #28
    3a4c:	5400009e 	strpl	r0, [r0], #-158	; 0xffffff62
    3a50:	01000000 	mrseq	r0, (UNDEF: 0)
    3a54:	00020b9c 	muleq	r2, ip, fp
    3a58:	65730a00 	ldrbvs	r0, [r3, #-2560]!	; 0xfffff600
    3a5c:	1e010063 	cdpne	0, 0, cr0, cr1, cr3, {3}
    3a60:	00002c19 	andeq	r2, r0, r9, lsl ip
    3a64:	0026a500 	eoreq	sl, r6, r0, lsl #10
    3a68:	0026a100 	eoreq	sl, r6, r0, lsl #2
    3a6c:	020b0b00 	andeq	r0, fp, #0, 22
    3a70:	9ea00000 	cdpls	0, 10, cr0, cr0, cr0, {0}
    3a74:	28020000 	stmdacs	r2, {}	; <UNPREDICTABLE>
    3a78:	01000004 	tsteq	r0, r4
    3a7c:	180c051f 	stmdane	ip, {r0, r1, r2, r3, r4, r8, sl}
    3a80:	ca000002 	bgt	3a90 <__code_start__-0x4570>
    3a84:	c6000026 	strgt	r0, [r0], -r6, lsr #32
    3a88:	0d000026 	stceq	0, cr0, [r0, #-152]	; 0xffffff68
    3a8c:	00000224 	andeq	r0, r0, r4, lsr #4
    3a90:	00009eb4 			; <UNDEFINED> instruction: 0x00009eb4
    3a94:	009eb400 	addseq	fp, lr, r0, lsl #8
    3a98:	00004000 	andeq	r4, r0, r0
    3a9c:	051c0100 	ldreq	r0, [ip, #-256]	; 0xffffff00
    3aa0:	0002310c 	andeq	r3, r2, ip, lsl #2
    3aa4:	0026f700 	eoreq	pc, r6, r0, lsl #14
    3aa8:	0026f500 	eoreq	pc, r6, r0, lsl #10
    3aac:	023c0e00 	eorseq	r0, ip, #0, 28
    3ab0:	270c0000 	strcs	r0, [ip, -r0]
    3ab4:	270a0000 	strcs	r0, [sl, -r0]
    3ab8:	550f0000 	strpl	r0, [pc, #-0]	; 3ac0 <__code_start__-0x4540>
    3abc:	b4000002 	strlt	r0, [r0], #-2
    3ac0:	0200009e 	andeq	r0, r0, #158, 0	; 0x9e
    3ac4:	00009eb4 			; <UNDEFINED> instruction: 0x00009eb4
    3ac8:	00000014 	andeq	r0, r0, r4, lsl r0
    3acc:	9c131301 	ldcls	3, cr1, [r3], {1}
    3ad0:	0e000001 	cdpeq	0, 0, cr0, cr0, cr1, {0}
    3ad4:	00000266 	andeq	r0, r0, r6, ror #4
    3ad8:	00002723 	andeq	r2, r0, r3, lsr #14
    3adc:	0000271f 	andeq	r2, r0, pc, lsl r7
    3ae0:	0002710f 	andeq	r7, r2, pc, lsl #2
    3ae4:	009eb800 	addseq	fp, lr, r0, lsl #16
    3ae8:	9eb80100 	frdlse	f0, f0, f0
    3aec:	000c0000 	andeq	r0, ip, r0
    3af0:	0d010000 	stceq	0, cr0, [r1, #-0]
    3af4:	00018912 	andeq	r8, r1, r2, lsl r9
    3af8:	9ec01000 	cdpls	0, 12, cr1, cr0, cr0, {0}
    3afc:	052a0000 	streq	r0, [sl, #-0]!
    3b00:	01110000 	tsteq	r1, r0
    3b04:	040c0550 	streq	r0, [ip], #-1360	; 0xfffffab0
    3b08:	00200030 	eoreq	r0, r0, r0, lsr r0
    3b0c:	9eb81200 	cdpls	2, 11, cr1, cr8, cr0, {0}
    3b10:	05360000 	ldreq	r0, [r6, #-0]!
    3b14:	c8120000 	ldmdagt	r2, {}	; <UNPREDICTABLE>
    3b18:	3600009e 			; <UNDEFINED> instruction: 0x3600009e
    3b1c:	00000005 	andeq	r0, r0, r5
    3b20:	00024713 	andeq	r4, r2, r3, lsl r7
    3b24:	00044000 	andeq	r4, r4, r0
    3b28:	02481400 	subeq	r1, r8, #0, 8
    3b2c:	550b0000 	strpl	r0, [fp, #-0]
    3b30:	cc000002 	stcgt	0, cr0, [r0], {2}
    3b34:	0200009e 	andeq	r0, r0, #158, 0	; 0x9e
    3b38:	00000458 	andeq	r0, r0, r8, asr r4
    3b3c:	15171501 	ldrne	r1, [r7, #-1281]	; 0xfffffaff
    3b40:	00000458 	andeq	r0, r0, r8, asr r4
    3b44:	0002660e 	andeq	r6, r2, lr, lsl #12
    3b48:	00274300 	eoreq	r4, r7, r0, lsl #6
    3b4c:	00274100 	eoreq	r4, r7, r0, lsl #2
    3b50:	02711600 	rsbseq	r1, r1, #0, 12
    3b54:	9ed00000 	cdpls	0, 13, cr0, cr0, cr0, {0}
    3b58:	78010000 	stmdavc	r1, {}	; <UNPREDICTABLE>
    3b5c:	01000004 	tsteq	r0, r4
    3b60:	01f3120d 	mvnseq	r1, sp, lsl #4
    3b64:	d8100000 	ldmdale	r0, {}	; <UNPREDICTABLE>
    3b68:	2a00009e 	bcs	3de8 <__code_start__-0x4218>
    3b6c:	11000005 	tstne	r0, r5
    3b70:	77025001 	strvc	r5, [r2, -r1]
    3b74:	12000000 	andne	r0, r0, #0, 0
    3b78:	00009ed0 	ldrdeq	r9, [r0], -r0
    3b7c:	00000536 	andeq	r0, r0, r6, lsr r5
    3b80:	009ee412 	addseq	lr, lr, r2, lsl r4
    3b84:	00053600 	andeq	r3, r5, r0, lsl #12
    3b88:	00000000 	andeq	r0, r0, r0
    3b8c:	17000000 	strne	r0, [r0, -r0]
    3b90:	000007cf 	andeq	r0, r0, pc, asr #15
    3b94:	01061b01 	tsteq	r6, r1, lsl #22
    3b98:	00000224 	andeq	r0, r0, r4, lsr #4
    3b9c:	00736d18 	rsbseq	r6, r3, r8, lsl sp
    3ba0:	2c181b01 			; <UNDEFINED> instruction: 0x2c181b01
    3ba4:	00000000 	andeq	r0, r0, r0
    3ba8:	00092f17 	andeq	r2, r9, r7, lsl pc
    3bac:	06120100 	ldreq	r0, [r2], -r0, lsl #2
    3bb0:	00025501 	andeq	r5, r2, r1, lsl #10
    3bb4:	73751800 	cmnvc	r5, #0, 16
    3bb8:	18120100 	ldmdane	r2, {r8}
    3bbc:	0000002c 	andeq	r0, r0, ip, lsr #32
    3bc0:	00627219 	rsbeq	r7, r2, r9, lsl r2
    3bc4:	2c0e1301 	stccs	3, cr1, [lr], {1}
    3bc8:	1a000000 	bne	3bd0 <__code_start__-0x4430>
    3bcc:	00617219 	rsbeq	r7, r1, r9, lsl r2
    3bd0:	2c121501 	cfldr32cs	mvfx1, [r2], {1}
    3bd4:	00000000 	andeq	r0, r0, r0
    3bd8:	09201b00 	stmdbeq	r0!, {r8, r9, fp, ip}
    3bdc:	09010000 	stmdbeq	r1, {}	; <UNPREDICTABLE>
    3be0:	00002c0a 	andeq	r2, r0, sl, lsl #24
    3be4:	02710100 	rsbseq	r0, r1, #0
    3be8:	75190000 	ldrvc	r0, [r9, #-0]
    3bec:	0e0d0100 	adfeqe	f0, f5, f0
    3bf0:	0000002c 	andeq	r0, r0, ip, lsr #32
    3bf4:	09381c00 	ldmdbeq	r8!, {sl, fp, ip}
    3bf8:	04010000 	streq	r0, [r1], #-0
    3bfc:	00002c0a 	andeq	r2, r0, sl, lsl #24
    3c00:	711d0100 	tstvc	sp, r0, lsl #2
    3c04:	d8000002 	stmdale	r0, {r1}
    3c08:	0c00009d 	stceq	0, cr0, [r0], {157}	; 0x9d
    3c0c:	01000000 	mrseq	r0, (UNDEF: 0)
    3c10:	0002a59c 	muleq	r2, ip, r5
    3c14:	9de01e00 	stclls	14, cr1, [r0]
    3c18:	052a0000 	streq	r0, [sl, #-0]!
    3c1c:	01110000 	tsteq	r1, r0
    3c20:	040c0550 	streq	r0, [ip], #-1360	; 0xfffffab0
    3c24:	00200030 	eoreq	r0, r0, r0, lsr r0
    3c28:	02551d00 	subseq	r1, r5, #0, 26
    3c2c:	9de40000 	stclls	0, cr0, [r4]
    3c30:	00240000 	eoreq	r0, r4, r0
    3c34:	9c010000 	stcls	0, cr0, [r1], {-0}
    3c38:	00000305 	andeq	r0, r0, r5, lsl #6
    3c3c:	0002660e 	andeq	r6, r2, lr, lsl #12
    3c40:	00275a00 	eoreq	r5, r7, r0, lsl #20
    3c44:	00275600 	eoreq	r5, r7, r0, lsl #12
    3c48:	02710f00 	rsbseq	r0, r1, #0, 30
    3c4c:	9dec0000 	stclls	0, cr0, [ip]
    3c50:	ec010000 	stc	0, cr0, [r1], {-0}
    3c54:	0c00009d 	stceq	0, cr0, [r0], {157}	; 0x9d
    3c58:	01000000 	mrseq	r0, (UNDEF: 0)
    3c5c:	02f2120d 	rscseq	r1, r2, #-805306368	; 0xd0000000
    3c60:	f4100000 			; <UNDEFINED> instruction: 0xf4100000
    3c64:	2a00009d 	bcs	3ee0 <__code_start__-0x4120>
    3c68:	11000005 	tstne	r0, r5
    3c6c:	0c055001 	stceq	0, cr5, [r5], {1}
    3c70:	20003004 	andcs	r3, r0, r4
    3c74:	ec120000 	ldc	0, cr0, [r2], {-0}
    3c78:	3600009d 			; <UNDEFINED> instruction: 0x3600009d
    3c7c:	12000005 	andne	r0, r0, #5, 0
    3c80:	00009dfc 	strdeq	r9, [r0], -ip
    3c84:	00000536 	andeq	r0, r0, r6, lsr r5
    3c88:	02241d00 	eoreq	r1, r4, #0, 26
    3c8c:	9e080000 	cdpls	0, 0, cr0, cr8, cr0, {0}
    3c90:	00480000 	subeq	r0, r8, r0
    3c94:	9c010000 	stcls	0, cr0, [r1], {-0}
    3c98:	00000407 	andeq	r0, r0, r7, lsl #8
    3c9c:	0002310c 	andeq	r3, r2, ip, lsl #2
    3ca0:	00277c00 	eoreq	r7, r7, r0, lsl #24
    3ca4:	00277800 	eoreq	r7, r7, r0, lsl #16
    3ca8:	023c0e00 	eorseq	r0, ip, #0, 28
    3cac:	279c0000 	ldrcs	r0, [ip, r0]
    3cb0:	279a0000 	ldrcs	r0, [sl, r0]
    3cb4:	55160000 	ldrpl	r0, [r6, #-0]
    3cb8:	08000002 	stmdaeq	r0, {r1}
    3cbc:	0200009e 	andeq	r0, r0, #158, 0	; 0x9e
    3cc0:	00000370 	andeq	r0, r0, r0, ror r3
    3cc4:	9a131301 	bls	4c88d0 <__bss_end__+0x4bd400>
    3cc8:	15000003 	strne	r0, [r0, #-3]
    3ccc:	00000370 	andeq	r0, r0, r0, ror r3
    3cd0:	0002660e 	andeq	r6, r2, lr, lsl #12
    3cd4:	0027b300 	eoreq	fp, r7, r0, lsl #6
    3cd8:	0027af00 	eoreq	sl, r7, r0, lsl #30
    3cdc:	02710f00 	rsbseq	r0, r1, #0, 30
    3ce0:	9e140000 	cdpls	0, 1, cr0, cr4, cr0, {0}
    3ce4:	14010000 	strne	r0, [r1], #-0
    3ce8:	0c00009e 	stceq	0, cr0, [r0], {158}	; 0x9e
    3cec:	01000000 	mrseq	r0, (UNDEF: 0)
    3cf0:	0386120d 	orreq	r1, r6, #-805306368	; 0xd0000000
    3cf4:	1c100000 	ldcne	0, cr0, [r0], {-0}
    3cf8:	2a00009e 	bcs	3f78 <__code_start__-0x4088>
    3cfc:	11000005 	tstne	r0, r5
    3d00:	0c055001 	stceq	0, cr5, [r5], {1}
    3d04:	20003004 	andcs	r3, r0, r4
    3d08:	14120000 	ldrne	r0, [r2], #-0
    3d0c:	3600009e 			; <UNDEFINED> instruction: 0x3600009e
    3d10:	12000005 	andne	r0, r0, #5, 0
    3d14:	00009e24 	andeq	r9, r0, r4, lsr #28
    3d18:	00000536 	andeq	r0, r0, r6, lsr r5
    3d1c:	47130000 	ldrmi	r0, [r3, -r0]
    3d20:	88000002 	stmdahi	r0, {r1}
    3d24:	14000003 	strne	r0, [r0], #-3
    3d28:	00000248 	andeq	r0, r0, r8, asr #4
    3d2c:	0002550b 	andeq	r5, r2, fp, lsl #10
    3d30:	009e2800 	addseq	r2, lr, r0, lsl #16
    3d34:	03a00200 	moveq	r0, #0, 4
    3d38:	15010000 	strne	r0, [r1, #-0]
    3d3c:	03a01517 	moveq	r1, #96468992	; 0x5c00000
    3d40:	660e0000 	strvs	r0, [lr], -r0
    3d44:	d3000002 	movwle	r0, #2
    3d48:	d1000027 	tstle	r0, r7, lsr #32
    3d4c:	16000027 	strne	r0, [r0], -r7, lsr #32
    3d50:	00000271 	andeq	r0, r0, r1, ror r2
    3d54:	00009e2c 	andeq	r9, r0, ip, lsr #28
    3d58:	0003c001 	andeq	ip, r3, r1
    3d5c:	120d0100 	andne	r0, sp, #0
    3d60:	000003f1 	strdeq	r0, [r0], -r1
    3d64:	009e3410 	addseq	r3, lr, r0, lsl r4
    3d68:	00052a00 	andeq	r2, r5, r0, lsl #20
    3d6c:	50011100 	andpl	r1, r1, r0, lsl #2
    3d70:	00007702 	andeq	r7, r0, r2, lsl #14
    3d74:	9e2c1200 	cdpls	2, 2, cr1, cr12, cr0, {0}
    3d78:	05360000 	ldreq	r0, [r6, #-0]!
    3d7c:	40120000 	andsmi	r0, r2, r0
    3d80:	3600009e 			; <UNDEFINED> instruction: 0x3600009e
    3d84:	00000005 	andeq	r0, r0, r5
    3d88:	1d000000 	stcne	0, cr0, [r0, #-0]
    3d8c:	0000020b 	andeq	r0, r0, fp, lsl #4
    3d90:	00009e50 	andeq	r9, r0, r0, asr lr
    3d94:	00000050 	andeq	r0, r0, r0, asr r0
    3d98:	052a9c01 	streq	r9, [sl, #-3073]!	; 0xfffff3ff
    3d9c:	180c0000 	stmdane	ip, {}	; <UNPREDICTABLE>
    3da0:	ea000002 	b	3db0 <__code_start__-0x4250>
    3da4:	e6000027 	str	r0, [r0], -r7, lsr #32
    3da8:	0d000027 	stceq	0, cr0, [r0, #-156]	; 0xffffff64
    3dac:	00000224 	andeq	r0, r0, r4, lsr #4
    3db0:	00009e60 	andeq	r9, r0, r0, ror #28
    3db4:	009e6000 	addseq	r6, lr, r0
    3db8:	00004000 	andeq	r4, r0, r0
    3dbc:	051c0100 	ldreq	r0, [ip, #-256]	; 0xffffff00
    3dc0:	0002310c 	andeq	r3, r2, ip, lsl #2
    3dc4:	00280d00 	eoreq	r0, r8, r0, lsl #26
    3dc8:	00280b00 	eoreq	r0, r8, r0, lsl #22
    3dcc:	023c0e00 	eorseq	r0, ip, #0, 28
    3dd0:	28220000 	stmdacs	r2!, {}	; <UNPREDICTABLE>
    3dd4:	28200000 	stmdacs	r0!, {}	; <UNPREDICTABLE>
    3dd8:	550f0000 	strpl	r0, [pc, #-0]	; 3de0 <__code_start__-0x4220>
    3ddc:	60000002 	andvs	r0, r0, r2
    3de0:	0200009e 	andeq	r0, r0, #158, 0	; 0x9e
    3de4:	00009e60 	andeq	r9, r0, r0, ror #28
    3de8:	00000014 	andeq	r0, r0, r4, lsl r0
    3dec:	bc131301 	ldclt	3, cr1, [r3], {1}
    3df0:	0e000004 	cdpeq	0, 0, cr0, cr0, cr4, {0}
    3df4:	00000266 	andeq	r0, r0, r6, ror #4
    3df8:	00002839 	andeq	r2, r0, r9, lsr r8
    3dfc:	00002835 	andeq	r2, r0, r5, lsr r8
    3e00:	0002710f 	andeq	r7, r2, pc, lsl #2
    3e04:	009e6400 	addseq	r6, lr, r0, lsl #8
    3e08:	9e640100 	powlss	f0, f4, f0
    3e0c:	000c0000 	andeq	r0, ip, r0
    3e10:	0d010000 	stceq	0, cr0, [r1, #-0]
    3e14:	0004a912 	andeq	sl, r4, r2, lsl r9
    3e18:	9e6c1000 	cdpls	0, 6, cr1, cr12, cr0, {0}
    3e1c:	052a0000 	streq	r0, [sl, #-0]!
    3e20:	01110000 	tsteq	r1, r0
    3e24:	040c0550 	streq	r0, [ip], #-1360	; 0xfffffab0
    3e28:	00200030 	eoreq	r0, r0, r0, lsr r0
    3e2c:	9e641200 	cdpls	2, 6, cr1, cr4, cr0, {0}
    3e30:	05360000 	ldreq	r0, [r6, #-0]!
    3e34:	74120000 	ldrvc	r0, [r2], #-0
    3e38:	3600009e 			; <UNDEFINED> instruction: 0x3600009e
    3e3c:	00000005 	andeq	r0, r0, r5
    3e40:	00024713 	andeq	r4, r2, r3, lsl r7
    3e44:	0003d800 	andeq	sp, r3, r0, lsl #16
    3e48:	02481400 	subeq	r1, r8, #0, 8
    3e4c:	550b0000 	strpl	r0, [fp, #-0]
    3e50:	78000002 	stmdavc	r0, {r1}
    3e54:	0200009e 	andeq	r0, r0, #158, 0	; 0x9e
    3e58:	000003f0 	strdeq	r0, [r0], -r0	; <UNPREDICTABLE>
    3e5c:	15171501 	ldrne	r1, [r7, #-1281]	; 0xfffffaff
    3e60:	000003f0 	strdeq	r0, [r0], -r0	; <UNPREDICTABLE>
    3e64:	0002660e 	andeq	r6, r2, lr, lsl #12
    3e68:	00285900 	eoreq	r5, r8, r0, lsl #18
    3e6c:	00285700 	eoreq	r5, r8, r0, lsl #14
    3e70:	02711600 	rsbseq	r1, r1, #0, 12
    3e74:	9e7c0000 	cdpls	0, 7, cr0, cr12, cr0, {0}
    3e78:	10010000 	andne	r0, r1, r0
    3e7c:	01000004 	tsteq	r0, r4
    3e80:	0513120d 	ldreq	r1, [r3, #-525]	; 0xfffffdf3
    3e84:	84100000 	ldrhi	r0, [r0], #-0
    3e88:	2a00009e 	bcs	4108 <__code_start__-0x3ef8>
    3e8c:	11000005 	tstne	r0, r5
    3e90:	77025001 	strvc	r5, [r2, -r1]
    3e94:	12000000 	andne	r0, r0, #0, 0
    3e98:	00009e7c 	andeq	r9, r0, ip, ror lr
    3e9c:	00000536 	andeq	r0, r0, r6, lsr r5
    3ea0:	009e9012 	addseq	r9, lr, r2, lsl r0
    3ea4:	00053600 	andeq	r3, r5, r0, lsl #12
    3ea8:	00000000 	andeq	r0, r0, r0
    3eac:	1a1f0000 	bne	7c3eb4 <__bss_end__+0x7b89e4>
    3eb0:	1a000009 	bne	3edc <__code_start__-0x4124>
    3eb4:	02000009 	andeq	r0, r0, #9, 0
    3eb8:	f01f0ac2 			; <UNDEFINED> instruction: 0xf01f0ac2
    3ebc:	f0000008 			; <UNDEFINED> instruction: 0xf0000008
    3ec0:	02000008 	andeq	r0, r0, #8, 0
    3ec4:	cd00069c 	stcgt	6, cr0, [r0, #-624]	; 0xfffffd90
    3ec8:	04000005 	streq	r0, [r0], #-5
    3ecc:	00173700 	andseq	r3, r7, r0, lsl #14
    3ed0:	4b010400 	blmi	44ed8 <__bss_end__+0x39a08>
    3ed4:	0c00000a 	stceq	0, cr0, [r0], {10}
    3ed8:	0000098a 	andeq	r0, r0, sl, lsl #19
    3edc:	000009fb 	strdeq	r0, [r0], -fp
    3ee0:	00009ef4 	strdeq	r9, [r0], -r4
    3ee4:	000001f0 	strdeq	r0, [r0], -r0	; <UNPREDICTABLE>
    3ee8:	000021ac 	andeq	r2, r0, ip, lsr #3
    3eec:	69050402 	stmdbvs	r5, {r1, sl}
    3ef0:	0300746e 	movweq	r7, #1134	; 0x46e
    3ef4:	01820704 	orreq	r0, r2, r4, lsl #14
    3ef8:	2c040000 	stccs	0, cr0, [r4], {-0}
    3efc:	03000000 	movweq	r0, #0
    3f00:	00830601 	addeq	r0, r3, r1, lsl #12
    3f04:	02030000 	andeq	r0, r3, #0, 0
    3f08:	00001d05 	andeq	r1, r0, r5, lsl #26
    3f0c:	05040300 	streq	r0, [r4, #-768]	; 0xfffffd00
    3f10:	00000051 	andeq	r0, r0, r1, asr r0
    3f14:	4c050803 	stcmi	8, cr0, [r5], {3}
    3f18:	03000000 	movweq	r0, #0
    3f1c:	00810801 	addeq	r0, r1, r1, lsl #16
    3f20:	02030000 	andeq	r0, r3, #0, 0
    3f24:	00019707 	andeq	r9, r1, r7, lsl #14
    3f28:	02e50500 	rsceq	r0, r5, #0, 10
    3f2c:	34050000 	strcc	r0, [r5], #-0
    3f30:	00006e19 	andeq	r6, r0, r9, lsl lr
    3f34:	07040300 	streq	r0, [r4, -r0, lsl #6]
    3f38:	0000017d 	andeq	r0, r0, sp, ror r1
    3f3c:	78070803 	stmdavc	r7, {r0, r1, fp}
    3f40:	03000001 	movweq	r0, #1
    3f44:	008a0801 	addeq	r0, sl, r1, lsl #16
    3f48:	07060000 	streq	r0, [r6, -r0]
    3f4c:	00005401 	andeq	r5, r0, r1, lsl #8
    3f50:	0e0c0400 	cfcpyseq	mvf0, mvf12
    3f54:	000000c2 	andeq	r0, r0, r2, asr #1
    3f58:	000b3507 	andeq	r3, fp, r7, lsl #10
    3f5c:	6d070000 	stcvs	0, cr0, [r7, #-0]
    3f60:	01000009 	tsteq	r0, r9
    3f64:	0009b007 	andeq	fp, r9, r7
    3f68:	bf070400 	svclt	0x00070400
    3f6c:	05000009 	streq	r0, [r0, #-9]
    3f70:	0009ce07 	andeq	ip, r9, r7, lsl #28
    3f74:	dd070600 	stcle	6, cr0, [r7, #-0]
    3f78:	07000009 	streq	r0, [r0, -r9]
    3f7c:	000afe07 	andeq	pc, sl, r7, lsl #28
    3f80:	ec070300 	stc	3, cr0, [r7], {-0}
    3f84:	02000009 	andeq	r0, r0, #9, 0
    3f88:	097e0800 	ldmdbeq	lr!, {fp}^
    3f8c:	022c0000 	eoreq	r0, ip, #0, 0
    3f90:	015e0806 	cmpeq	lr, r6, lsl #16
    3f94:	69090000 	stmdbvs	r9, {}	; <UNPREDICTABLE>
    3f98:	0902006f 	stmdbeq	r2, {r0, r1, r2, r3, r5, r6}
    3f9c:	00003309 	andeq	r3, r0, r9, lsl #6
    3fa0:	69090000 	stmdbvs	r9, {}	; <UNPREDICTABLE>
    3fa4:	02007265 	andeq	r7, r0, #1342177286	; 0x50000006
    3fa8:	0033090a 	eorseq	r0, r3, sl, lsl #18
    3fac:	09040000 	stmdbeq	r4, {}	; <UNPREDICTABLE>
    3fb0:	00726969 	rsbseq	r6, r2, r9, ror #18
    3fb4:	33091102 	movwcc	r1, #37122	; 0x9102
    3fb8:	08000000 	stmdaeq	r0, {}	; <UNPREDICTABLE>
    3fbc:	72636c09 	rsbvc	r6, r3, #2304	; 0x900
    3fc0:	09130200 	ldmdbeq	r3, {r9}
    3fc4:	00000033 	andeq	r0, r0, r3, lsr r0
    3fc8:	636d090c 	cmnvs	sp, #12, 18	; 0x30000
    3fcc:	14020072 	strne	r0, [r2], #-114	; 0xffffff8e
    3fd0:	00003309 	andeq	r3, r0, r9, lsl #6
    3fd4:	6c091000 	stcvs	0, cr1, [r9], {-0}
    3fd8:	02007273 	andeq	r7, r0, #805306375	; 0x30000007
    3fdc:	00330915 	eorseq	r0, r3, r5, lsl r9
    3fe0:	09140000 	ldmdbeq	r4, {}	; <UNPREDICTABLE>
    3fe4:	0072736d 	rsbseq	r7, r2, sp, ror #6
    3fe8:	33091602 	movwcc	r1, #38402	; 0x9602
    3fec:	18000000 	stmdane	r0, {}	; <UNPREDICTABLE>
    3ff0:	000b150a 	andeq	r1, fp, sl, lsl #10
    3ff4:	09170200 	ldmdbeq	r7, {r9}
    3ff8:	00000033 	andeq	r0, r0, r3, lsr r0
    3ffc:	0ade0a1c 	beq	ff786874 <__bss_end__+0xff77b3a4>
    4000:	1b020000 	blne	84008 <__bss_end__+0x78b38>
    4004:	00003309 	andeq	r3, r0, r9, lsl #6
    4008:	5a0a2000 	bpl	28c010 <__bss_end__+0x280b40>
    400c:	02000009 	andeq	r0, r0, #9, 0
    4010:	0033091d 	eorseq	r0, r3, sp, lsl r9
    4014:	0a240000 	beq	90401c <__bss_end__+0x8f8b4c>
    4018:	00000a30 	andeq	r0, r0, r0, lsr sl
    401c:	33091e02 	movwcc	r1, #40450	; 0x9e02
    4020:	28000000 	stmdacs	r0, {}	; <UNPREDICTABLE>
    4024:	0a350b00 	beq	d46c2c <__bss_end__+0xd3b75c>
    4028:	08010000 	stmdaeq	r1, {}	; <UNPREDICTABLE>
    402c:	00017409 	andeq	r7, r1, r9, lsl #8
    4030:	21500400 	cmpcs	r0, r0, lsl #8
    4034:	33040c20 	movwcc	r0, #19488	; 0x4c20
    4038:	0d000000 	stceq	0, cr0, [r0, #-0]
    403c:	0000016e 	andeq	r0, r0, lr, ror #2
    4040:	000b1d0b 	andeq	r1, fp, fp, lsl #26
    4044:	23290100 			; <UNDEFINED> instruction: 0x23290100
    4048:	0000018f 	andeq	r0, r0, pc, lsl #3
    404c:	20215040 	eorcs	r5, r1, r0, asr #32
    4050:	00c2040c 	sbceq	r0, r2, ip, lsl #8
    4054:	890d0000 	stmdbhi	sp, {}	; <UNPREDICTABLE>
    4058:	0e000001 	cdpeq	0, 0, cr0, cr0, cr1, {0}
    405c:	000007f3 	strdeq	r0, [r0], -r3
    4060:	ac06cc01 	stcge	12, cr12, [r6], {1}
    4064:	140000a0 	strne	r0, [r0], #-160	; 0xffffff60
    4068:	01000000 	mrseq	r0, (UNDEF: 0)
    406c:	0001b49c 	muleq	r1, ip, r4
    4070:	a0b40f00 	adcsge	r0, r4, r0, lsl #30
    4074:	01b40000 			; <UNDEFINED> instruction: 0x01b40000
    4078:	10000000 	andne	r0, r0, r0
    407c:	0000099f 	muleq	r0, pc, r9	; <UNPREDICTABLE>
    4080:	2505b601 	strcs	fp, [r5, #-1537]	; 0xfffff9ff
    4084:	8c000000 	stchi	0, cr0, [r0], {-0}
    4088:	200000a0 	andcs	r0, r0, r0, lsr #1
    408c:	01000000 	mrseq	r0, (UNDEF: 0)
    4090:	0001eb9c 	muleq	r1, ip, fp
    4094:	a0940f00 	addsge	r0, r4, r0, lsl #30
    4098:	05a00000 	streq	r0, [r0, #0]!
    409c:	9c110000 	ldcls	0, cr0, [r1], {-0}
    40a0:	ac0000a0 	stcge	0, cr0, [r0], {160}	; 0xa0
    40a4:	12000005 	andne	r0, r0, #5, 0
    40a8:	0c055001 	stceq	0, cr5, [r5], {1}
    40ac:	20215064 	eorcs	r5, r1, r4, rrx
    40b0:	f0100000 			; <UNDEFINED> instruction: 0xf0100000
    40b4:	0100000a 	tsteq	r0, sl
    40b8:	002505b3 	strhteq	r0, [r5], -r3
    40bc:	a07c0000 	rsbsge	r0, ip, r0
    40c0:	00100000 	andseq	r0, r0, r0
    40c4:	9c010000 	stcls	0, cr0, [r1], {-0}
    40c8:	00000218 	andeq	r0, r0, r8, lsl r2
    40cc:	00a0840f 	adceq	r8, r0, pc, lsl #8
    40d0:	0005a000 	andeq	sl, r5, r0
    40d4:	a0880f00 	addge	r0, r8, r0, lsl #30
    40d8:	03090000 	movweq	r0, #36864	; 0x9000
    40dc:	0e000000 	cdpeq	0, 0, cr0, cr0, cr0, {0}
    40e0:	00000b2b 	andeq	r0, r0, fp, lsr #22
    40e4:	4c06ab01 			; <UNDEFINED> instruction: 0x4c06ab01
    40e8:	300000a0 	andcc	r0, r0, r0, lsr #1
    40ec:	01000000 	mrseq	r0, (UNDEF: 0)
    40f0:	00027c9c 	muleq	r2, ip, ip
    40f4:	00631300 	rsbeq	r1, r3, r0, lsl #6
    40f8:	2c19ab01 			; <UNDEFINED> instruction: 0x2c19ab01
    40fc:	70000000 	andvc	r0, r0, r0
    4100:	6c000028 	stcvs	0, cr0, [r0], {40}	; 0x28
    4104:	0f000028 	svceq	0x00000028
    4108:	0000a058 	andeq	sl, r0, r8, asr r0
    410c:	000005a0 	andeq	r0, r0, r0, lsr #11
    4110:	00a05c0f 	adceq	r5, r0, pc, lsl #24
    4114:	0002db00 	andeq	sp, r2, r0, lsl #22
    4118:	a0701400 	rsbsge	r1, r0, r0, lsl #8
    411c:	05b80000 	ldreq	r0, [r8, #0]!
    4120:	02720000 	rsbseq	r0, r2, #0, 0
    4124:	01120000 	tsteq	r2, r0
    4128:	400c0550 	andmi	r0, ip, r0, asr r5
    412c:	12202150 	eorne	r2, r0, #20
    4130:	74055101 	strvc	r5, [r5], #-257	; 0xfffffeff
    4134:	1aff0800 	bne	fffc613c <__bss_end__+0xfffbac6c>
    4138:	a0740f00 	rsbsge	r0, r4, r0, lsl #30
    413c:	05a00000 	streq	r0, [r0, #0]!
    4140:	10000000 	andne	r0, r0, r0
    4144:	00000a41 	andeq	r0, r0, r1, asr #20
    4148:	2505a301 	strcs	sl, [r5, #-769]	; 0xfffffcff
    414c:	1c000000 	stcne	0, cr0, [r0], {-0}
    4150:	300000a0 	andcc	r0, r0, r0, lsr #1
    4154:	01000000 	mrseq	r0, (UNDEF: 0)
    4158:	0002db9c 	muleq	r2, ip, fp
    415c:	00631500 	rsbeq	r1, r3, r0, lsl #10
    4160:	2509a701 	strcs	sl, [r9, #-1793]	; 0xfffff8ff
    4164:	90000000 	andls	r0, r0, r0
    4168:	8e000028 	cdphi	0, 0, cr0, cr0, cr8, {1}
    416c:	0f000028 	svceq	0x00000028
    4170:	0000a024 	andeq	sl, r0, r4, lsr #32
    4174:	000005a0 	andeq	r0, r0, r0, lsr #11
    4178:	00a0280f 	adceq	r2, r0, pc, lsl #16
    417c:	00030900 	andeq	r0, r3, r0, lsl #18
    4180:	a0381400 	eorsge	r1, r8, r0, lsl #8
    4184:	05ac0000 	streq	r0, [ip, #0]!
    4188:	02d10000 	sbcseq	r0, r1, #0, 0
    418c:	01120000 	tsteq	r2, r0
    4190:	400c0550 	andmi	r0, ip, r0, asr r5
    4194:	00202150 	eoreq	r2, r0, r0, asr r1
    4198:	00a0400f 	adceq	r4, r0, pc
    419c:	0005a000 	andeq	sl, r5, r0
    41a0:	91100000 	tstls	r0, r0
    41a4:	01000009 	tsteq	r0, r9
    41a8:	00250594 	mlaeq	r5, r4, r5, r0
    41ac:	9ffc0000 	svcls	0x00fc0000
    41b0:	00200000 	eoreq	r0, r0, r0
    41b4:	9c010000 	stcls	0, cr0, [r1], {-0}
    41b8:	00000309 	andeq	r0, r0, r9, lsl #6
    41bc:	00a00811 	adceq	r0, r0, r1, lsl r8
    41c0:	0005ac00 	andeq	sl, r5, r0, lsl #24
    41c4:	50011200 	andpl	r1, r1, r0, lsl #4
    41c8:	50640c05 	rsbpl	r0, r4, r5, lsl #24
    41cc:	00002021 	andeq	r2, r0, r1, lsr #32
    41d0:	00095f10 	andeq	r5, r9, r0, lsl pc
    41d4:	058b0100 	streq	r0, [fp, #256]	; 0x100
    41d8:	00000025 	andeq	r0, r0, r5, lsr #32
    41dc:	00009fe4 	andeq	r9, r0, r4, ror #31
    41e0:	00000018 	andeq	r0, r0, r8, lsl r0
    41e4:	03379c01 	teqeq	r7, #256	; 0x100
    41e8:	f0110000 			; <UNDEFINED> instruction: 0xf0110000
    41ec:	ac00009f 	stcge	0, cr0, [r0], {159}	; 0x9f
    41f0:	12000005 	andne	r0, r0, #5, 0
    41f4:	0c055001 	stceq	0, cr5, [r5], {1}
    41f8:	20215064 	eorcs	r5, r1, r4, rrx
    41fc:	110e0000 	mrsne	r0, (UNDEF: 14)
    4200:	01000008 	tsteq	r0, r8
    4204:	9f340645 	svcls	0x00340645
    4208:	00b00000 	adcseq	r0, r0, r0
    420c:	9c010000 	stcls	0, cr0, [r1], {-0}
    4210:	00000484 	andeq	r0, r0, r4, lsl #9
    4214:	00095116 	andeq	r5, r9, r6, lsl r1
    4218:	0e7e0100 	rpweqe	f0, f6, f0
    421c:	00000062 	andeq	r0, r0, r2, rrx
    4220:	4414010e 	ldrmi	r0, [r4], #-270	; 0xfffffef2
    4224:	c400009f 	strgt	r0, [r0], #-159	; 0xffffff61
    4228:	73000005 	movwvc	r0, #5
    422c:	12000003 	andne	r0, r0, #3, 0
    4230:	3e015001 	cdpcc	0, 0, cr5, cr1, cr1, {0}
    4234:	01510112 	cmpeq	r1, r2, lsl r1
    4238:	50140032 	andspl	r0, r4, r2, lsr r0
    423c:	c400009f 	strgt	r0, [r0], #-159	; 0xffffff61
    4240:	8b000005 	blhi	425c <__code_start__-0x3da4>
    4244:	12000003 	andne	r0, r0, #3, 0
    4248:	3f015001 	svccc	0x00015001
    424c:	01510112 	cmpeq	r1, r2, lsl r1
    4250:	540f0032 	strpl	r0, [pc], #-50	; 4258 <__code_start__-0x3da8>
    4254:	a000009f 	mulge	r0, pc, r0	; <UNPREDICTABLE>
    4258:	14000005 	strne	r0, [r0], #-5
    425c:	00009f60 	andeq	r9, r0, r0, ror #30
    4260:	0000053d 	andeq	r0, r0, sp, lsr r5
    4264:	000003b0 			; <UNDEFINED> instruction: 0x000003b0
    4268:	05500112 	ldrbeq	r0, [r0, #-274]	; 0xfffffeee
    426c:	2150040c 	cmpcs	r0, ip, lsl #8
    4270:	51011220 	tstpl	r1, r0, lsr #4
    4274:	0f003101 	svceq	0x00003101
    4278:	00009f64 	andeq	r9, r0, r4, ror #30
    427c:	000005a0 	andeq	r0, r0, r0, lsr #11
    4280:	009f7414 	addseq	r7, pc, r4, lsl r4	; <UNPREDICTABLE>
    4284:	0005b800 	andeq	fp, r5, r0, lsl #16
    4288:	0003d200 	andeq	sp, r3, r0, lsl #4
    428c:	50011200 	andpl	r1, r1, r0, lsl #4
    4290:	12007402 	andne	r7, r0, #33554432	; 0x2000000
    4294:	30015101 	andcc	r5, r1, r1, lsl #2
    4298:	9f801400 	svcls	0x00801400
    429c:	05b80000 	ldreq	r0, [r8, #0]!
    42a0:	03ee0000 	mvneq	r0, #0, 0
    42a4:	01120000 	tsteq	r2, r0
    42a8:	440c0550 	strmi	r0, [ip], #-1360	; 0xfffffab0
    42ac:	12202150 	eorne	r2, r0, #20
    42b0:	30015101 	andcc	r5, r1, r1, lsl #2
    42b4:	9f8c1400 	svcls	0x008c1400
    42b8:	05b80000 	ldreq	r0, [r8, #0]!
    42bc:	040a0000 	streq	r0, [sl], #-0
    42c0:	01120000 	tsteq	r2, r0
    42c4:	4c0c0550 	cfstr32mi	mvfx0, [ip], {80}	; 0x50
    42c8:	12202150 	eorne	r2, r0, #20
    42cc:	33015101 	movwcc	r5, #4353	; 0x1101
    42d0:	9f981400 	svcls	0x00981400
    42d4:	05b80000 	ldreq	r0, [r8, #0]!
    42d8:	04260000 	strteq	r0, [r6], #-0
    42dc:	01120000 	tsteq	r2, r0
    42e0:	500c0550 	andpl	r0, ip, r0, asr r5
    42e4:	12202150 	eorne	r2, r0, #20
    42e8:	30015101 	andcc	r5, r1, r1, lsl #2
    42ec:	9fa41400 	svcls	0x00a41400
    42f0:	05b80000 	ldreq	r0, [r8, #0]!
    42f4:	04430000 	strbeq	r0, [r3], #-0
    42f8:	01120000 	tsteq	r2, r0
    42fc:	480c0550 	stmdami	ip, {r4, r6, r8, sl}
    4300:	12202150 	eorne	r2, r0, #20
    4304:	08025101 	stmdaeq	r2, {r0, r8, ip, lr}
    4308:	b01400c7 	andslt	r0, r4, r7, asr #1
    430c:	b800009f 	stmdalt	r0, {r0, r1, r2, r3, r4, r7}
    4310:	61000005 	tstvs	r0, r5
    4314:	12000004 	andne	r0, r0, #4, 0
    4318:	0c055001 	stceq	0, cr5, [r5], {1}
    431c:	20215068 	eorcs	r5, r1, r8, rrx
    4320:	03510112 	cmpeq	r1, #-2147483644	; 0x80000004
    4324:	00010e0a 	andeq	r0, r1, sl, lsl #28
    4328:	009fbc14 	addseq	fp, pc, r4, lsl ip	; <UNPREDICTABLE>
    432c:	0005b800 	andeq	fp, r5, r0, lsl #16
    4330:	00047a00 	andeq	r7, r4, r0, lsl #20
    4334:	50011200 	andpl	r1, r1, r0, lsl #4
    4338:	12007402 	andne	r7, r0, #33554432	; 0x2000000
    433c:	33015101 	movwcc	r5, #4353	; 0x1101
    4340:	9fc00f00 	svcls	0x00c00f00
    4344:	05a00000 	streq	r0, [r0, #0]!
    4348:	0e000000 	cdpeq	0, 0, cr0, cr0, cr0, {0}
    434c:	00000ae3 	andeq	r0, r0, r3, ror #21
    4350:	c0063501 	andgt	r3, r6, r1, lsl #10
    4354:	240000a0 	strcs	r0, [r0], #-160	; 0xffffff60
    4358:	01000000 	mrseq	r0, (UNDEF: 0)
    435c:	0004d39c 	muleq	r4, ip, r3
    4360:	a0c80f00 	sbcge	r0, r8, r0, lsl #30
    4364:	01940000 	orrseq	r0, r4, r0
    4368:	cc0f0000 	stcgt	0, cr0, [pc], {-0}
    436c:	a00000a0 	andge	r0, r0, r0, lsr #1
    4370:	14000005 	strne	r0, [r0], #-5
    4374:	0000a0d8 	ldrdeq	sl, [r0], -r8
    4378:	000004d3 	ldrdeq	r0, [r0], -r3
    437c:	000004c9 	andeq	r0, r0, r9, asr #9
    4380:	05500112 	ldrbeq	r0, [r0, #-274]	; 0xfffffeee
    4384:	2150040c 	cmpcs	r0, ip, lsl #8
    4388:	51011220 	tstpl	r1, r0, lsr #4
    438c:	00fe0902 	rscseq	r0, lr, r2, lsl #18
    4390:	00a0dc0f 	adceq	sp, r0, pc, lsl #24
    4394:	0005a000 	andeq	sl, r5, r0
    4398:	22170000 	andscs	r0, r7, #0, 0
    439c:	0100000b 	tsteq	r0, fp
    43a0:	9ef40d31 	mrcls	13, 7, r0, cr4, cr1, {1}
    43a4:	00200000 	eoreq	r0, r0, r0
    43a8:	9c010000 	stcls	0, cr0, [r1], {-0}
    43ac:	00000536 	andeq	r0, r0, r6, lsr r5
    43b0:	00062118 	andeq	r2, r6, r8, lsl r1
    43b4:	25310100 	ldrcs	r0, [r1, #-256]!	; 0xffffff00
    43b8:	00000536 	andeq	r0, r0, r6, lsr r5
    43bc:	000028a7 	andeq	r2, r0, r7, lsr #17
    43c0:	000028a3 	andeq	r2, r0, r3, lsr #17
    43c4:	6c617613 	stclvs	6, cr7, [r1], #-76	; 0xffffffb4
    43c8:	34310100 	ldrtcc	r0, [r1], #-256	; 0xffffff00
    43cc:	0000002c 	andeq	r0, r0, ip, lsr #32
    43d0:	000028c9 	andeq	r2, r0, r9, asr #17
    43d4:	000028c5 	andeq	r2, r0, r5, asr #17
    43d8:	009f0414 	addseq	r0, pc, r4, lsl r4	; <UNPREDICTABLE>
    43dc:	0005ac00 	andeq	sl, r5, r0, lsl #24
    43e0:	00052500 	andeq	r2, r5, r0, lsl #10
    43e4:	50011200 	andpl	r1, r1, r0, lsl #4
    43e8:	00007402 	andeq	r7, r0, r2, lsl #8
    43ec:	009f1011 	addseq	r1, pc, r1, lsl r0	; <UNPREDICTABLE>
    43f0:	0005b800 	andeq	fp, r5, r0, lsl #16
    43f4:	50011200 	andpl	r1, r1, r0, lsl #4
    43f8:	00007402 	andeq	r7, r0, r2, lsl #8
    43fc:	3c040c00 	stccc	12, cr0, [r4], {-0}
    4400:	19000005 	stmdbne	r0, {r0, r2}
    4404:	000b0d17 	andeq	r0, fp, r7, lsl sp
    4408:	0d2e0100 	stfeqs	f0, [lr, #-0]
    440c:	00009f14 	andeq	r9, r0, r4, lsl pc
    4410:	00000020 	andeq	r0, r0, r0, lsr #32
    4414:	05a09c01 	streq	r9, [r0, #3073]!	; 0xc01
    4418:	21180000 	tstcs	r8, r0
    441c:	01000006 	tsteq	r0, r6
    4420:	0536242e 	ldreq	r2, [r6, #-1070]!	; 0xfffffbd2
    4424:	28eb0000 	stmiacs	fp!, {}^	; <UNPREDICTABLE>
    4428:	28e70000 	stmiacs	r7!, {}^	; <UNPREDICTABLE>
    442c:	76130000 	ldrvc	r0, [r3], -r0
    4430:	01006c61 	tsteq	r0, r1, ror #24
    4434:	002c332e 	eoreq	r3, ip, lr, lsr #6
    4438:	290d0000 	stmdbcs	sp, {}	; <UNPREDICTABLE>
    443c:	29090000 	stmdbcs	r9, {}	; <UNPREDICTABLE>
    4440:	24140000 	ldrcs	r0, [r4], #-0
    4444:	ac00009f 	stcge	0, cr0, [r0], {159}	; 0x9f
    4448:	8f000005 	svchi	0x00000005
    444c:	12000005 	andne	r0, r0, #5, 0
    4450:	74025001 	strvc	r5, [r2], #-1
    4454:	30110000 	andscc	r0, r1, r0
    4458:	b800009f 	stmdalt	r0, {r0, r1, r2, r3, r4, r7}
    445c:	12000005 	andne	r0, r0, #5, 0
    4460:	74025001 	strvc	r5, [r2], #-1
    4464:	1a000000 	bne	446c <__code_start__-0x3b94>
    4468:	000008f0 	strdeq	r0, [r0], -r0	; <UNPREDICTABLE>
    446c:	000008f0 	strdeq	r0, [r0], -r0	; <UNPREDICTABLE>
    4470:	1a069c03 	bne	1ab484 <__bss_end__+0x19ffb4>
    4474:	00000b57 	andeq	r0, r0, r7, asr fp
    4478:	00000b57 	andeq	r0, r0, r7, asr fp
    447c:	1a0bc303 	bne	2f5090 <__bss_end__+0x2e9bc0>
    4480:	0000094b 	andeq	r0, r0, fp, asr #18
    4484:	0000094b 	andeq	r0, r0, fp, asr #18
    4488:	1a06ae03 	bne	1afc9c <__bss_end__+0x1a47cc>
    448c:	00000b45 	andeq	r0, r0, r5, asr #22
    4490:	00000b45 	andeq	r0, r0, r5, asr #22
    4494:	00061904 	andeq	r1, r6, r4, lsl #18
    4498:	000008e9 	andeq	r0, r0, r9, ror #17
    449c:	18cf0004 	stmiane	pc, {r2}^	; <UNPREDICTABLE>
    44a0:	01040000 	mrseq	r0, (UNDEF: 4)
    44a4:	00000a4b 	andeq	r0, r0, fp, asr #20
    44a8:	000be10c 	andeq	lr, fp, ip, lsl #2
    44ac:	0009fb00 	andeq	pc, r9, r0, lsl #22
    44b0:	00a0e400 	adceq	lr, r0, r0, lsl #8
    44b4:	0003b000 	andeq	fp, r3, r0
    44b8:	0023b400 	eoreq	fp, r3, r0, lsl #8
    44bc:	05040200 	streq	r0, [r4, #-512]	; 0xfffffe00
    44c0:	00746e69 	rsbseq	r6, r4, r9, ror #28
    44c4:	82070403 	andhi	r0, r7, #50331648	; 0x3000000
    44c8:	03000001 	movweq	r0, #1
    44cc:	00830601 	addeq	r0, r3, r1, lsl #12
    44d0:	02030000 	andeq	r0, r3, #0, 0
    44d4:	00001d05 	andeq	r1, r0, r5, lsl #26
    44d8:	05040300 	streq	r0, [r4, #-768]	; 0xfffffd00
    44dc:	00000051 	andeq	r0, r0, r1, asr r0
    44e0:	4c050803 	stcmi	8, cr0, [r5], {3}
    44e4:	03000000 	movweq	r0, #0
    44e8:	00810801 	addeq	r0, r1, r1, lsl #16
    44ec:	02030000 	andeq	r0, r3, #0, 0
    44f0:	00019707 	andeq	r9, r1, r7, lsl #14
    44f4:	02e50400 	rsceq	r0, r5, #0, 8
    44f8:	34030000 	strcc	r0, [r3], #-0
    44fc:	00006919 	andeq	r6, r0, r9, lsl r9
    4500:	07040300 	streq	r0, [r4, -r0, lsl #6]
    4504:	0000017d 	andeq	r0, r0, sp, ror r1
    4508:	78070803 	stmdavc	r7, {r0, r1, fp}
    450c:	03000001 	movweq	r0, #1
    4510:	008a0801 	addeq	r0, sl, r1, lsl #16
    4514:	77050000 	strvc	r0, [r5, -r0]
    4518:	03000000 	movweq	r0, #0
    451c:	03b70408 			; <UNDEFINED> instruction: 0x03b70408
    4520:	04060000 	streq	r0, [r6], #-0
    4524:	2c040707 	stccs	7, cr0, [r4], {7}
    4528:	01000000 	mrseq	r0, (UNDEF: 0)
    452c:	00a4061f 	adceq	r0, r4, pc, lsl r6
    4530:	7b080000 	blvc	204538 <__bss_end__+0x1f9068>
    4534:	0000000b 	andeq	r0, r0, fp
    4538:	00002000 	andeq	r2, r0, r0
    453c:	0002d609 	andeq	sp, r2, r9, lsl #12
    4540:	0d220100 	stfeqs	f0, [r2, #-0]
    4544:	00000077 	andeq	r0, r0, r7, ror r0
    4548:	0004ac0a 	andeq	sl, r4, sl, lsl #24
    454c:	0e230100 	sufeqs	f0, f3, f0
    4550:	000000c2 	andeq	r0, r0, r2, asr #1
    4554:	b0900305 	addslt	r0, r0, r5, lsl #6
    4558:	040b0000 	streq	r0, [fp], #-0
    455c:	00000077 	andeq	r0, r0, r7, ror r0
    4560:	000b650a 	andeq	r6, fp, sl, lsl #10
    4564:	0e240100 	sufeqs	f0, f4, f0
    4568:	000000c2 	andeq	r0, r0, r2, asr #1
    456c:	b0940305 	addslt	r0, r4, r5, lsl #6
    4570:	c00a0000 	andgt	r0, sl, r0
    4574:	0100000b 	tsteq	r0, fp
    4578:	00c20e25 	sbceq	r0, r2, r5, lsr #28
    457c:	03050000 	movweq	r0, #20480	; 0x5000
    4580:	0000b098 	muleq	r0, r8, r0
    4584:	000b960c 	andeq	r9, fp, ip, lsl #12
    4588:	06750100 	ldrbteq	r0, [r5], -r0, lsl #2
    458c:	0000a434 	andeq	sl, r0, r4, lsr r4
    4590:	00000060 	andeq	r0, r0, r0, rrx
    4594:	01649c01 	cmneq	r4, r1, lsl #24
    4598:	700d0000 	andvc	r0, sp, r0
    459c:	16750100 	ldrbtne	r0, [r5], -r0, lsl #2
    45a0:	0000008a 	andeq	r0, r0, sl, lsl #1
    45a4:	00002931 	andeq	r2, r0, r1, lsr r9
    45a8:	0000292b 	andeq	r2, r0, fp, lsr #18
    45ac:	00005a0e 	andeq	r5, r0, lr, lsl #20
    45b0:	00017400 	andeq	r7, r1, r0, lsl #8
    45b4:	7c030500 	cfstr32vc	mvfx0, [r3], {-0}
    45b8:	0f0000b0 	svceq	0x000000b0
    45bc:	0000a480 	andeq	sl, r0, r0, lsl #9
    45c0:	000008bc 			; <UNDEFINED> instruction: 0x000008bc
    45c4:	0000015a 	andeq	r0, r0, sl, asr r1
    45c8:	05500110 	ldrbeq	r0, [r0, #-272]	; 0xfffffef0
    45cc:	00aff403 	adceq	pc, pc, r3, lsl #8
    45d0:	51011000 	mrspl	r1, (UNDEF: 1)
    45d4:	ae8c0305 	cdpge	3, 8, cr0, cr12, cr5, {0}
    45d8:	01100000 	tsteq	r0, r0
    45dc:	7c030552 	cfstr32vc	mvfx0, [r3], {82}	; 0x52
    45e0:	100000b0 	strhne	r0, [r0], -r0	; <UNPREDICTABLE>
    45e4:	08025301 	stmdaeq	r2, {r0, r8, r9, ip, lr}
    45e8:	7d021077 	stcvc	0, cr1, [r2, #-476]	; 0xfffffe24
    45ec:	01f30300 	mvnseq	r0, r0, lsl #6
    45f0:	84110050 	ldrhi	r0, [r1], #-80	; 0xffffffb0
    45f4:	c80000a4 	stmdagt	r0, {r2, r5, r7}
    45f8:	00000008 	andeq	r0, r0, r8
    45fc:	00007e12 	andeq	r7, r0, r2, lsl lr
    4600:	00017400 	andeq	r7, r1, r0, lsl #8
    4604:	002c1300 	eoreq	r1, ip, r0, lsl #6
    4608:	00090000 	andeq	r0, r9, r0
    460c:	00016405 	andeq	r6, r1, r5, lsl #8
    4610:	0b841400 	bleq	fe109618 <__bss_end__+0xfe0fe148>
    4614:	72010000 	andvc	r0, r1, #0, 0
    4618:	00a42006 	adceq	r2, r4, r6
    461c:	00001400 	andeq	r1, r0, r0, lsl #8
    4620:	0c9c0100 	ldfeqs	f0, [ip], {0}
    4624:	00000041 	andeq	r0, r0, r1, asr #32
    4628:	1c066f01 	stcne	15, cr6, [r6], {1}
    462c:	040000a4 	streq	r0, [r0], #-164	; 0xffffff5c
    4630:	01000000 	mrseq	r0, (UNDEF: 0)
    4634:	0001ae9c 	muleq	r1, ip, lr
    4638:	00701500 	rsbseq	r1, r0, r0, lsl #10
    463c:	8a126f01 	bhi	4a0248 <__bss_end__+0x494d78>
    4640:	01000000 	mrseq	r0, (UNDEF: 0)
    4644:	23160050 	tstcs	r6, #80, 0	; 0x50
    4648:	0100000c 	tsteq	r0, ip
    464c:	008a075e 	addeq	r0, sl, lr, asr r7
    4650:	a3040000 	movwge	r0, #16384	; 0x4000
    4654:	01180000 	tsteq	r8, r0
    4658:	9c010000 	stcls	0, cr0, [r1], {-0}
    465c:	0000042c 	andeq	r0, r0, ip, lsr #8
    4660:	00036d17 	andeq	r6, r3, r7, lsl sp
    4664:	205e0100 	subscs	r0, lr, r0, lsl #2
    4668:	0000002c 	andeq	r0, r0, ip, lsr #32
    466c:	00002972 	andeq	r2, r0, r2, ror r9
    4670:	0000295e 	andeq	r2, r0, lr, asr r9
    4674:	000ba017 	andeq	sl, fp, r7, lsl r0
    4678:	315e0100 	cmpcc	lr, r0, lsl #2
    467c:	0000002c 	andeq	r0, r0, ip, lsr #32
    4680:	00002a0b 	andeq	r2, r0, fp, lsl #20
    4684:	000029f7 	strdeq	r2, [r0], -r7
    4688:	00005a0e 	andeq	r5, r0, lr, lsl #20
    468c:	00043c00 	andeq	r3, r4, r0, lsl #24
    4690:	64030500 	strvs	r0, [r3], #-1280	; 0xfffffb00
    4694:	180000b0 	stmdane	r0, {r4, r5, r7}
    4698:	66010068 	strvs	r0, [r1], -r8, rrx
    469c:	00002c0e 	andeq	r2, r0, lr, lsl #24
    46a0:	002ac100 	eoreq	ip, sl, r0, lsl #2
    46a4:	002ab500 	eoreq	fp, sl, r0, lsl #10
    46a8:	08541900 	ldmdaeq	r4, {r8, fp, ip}^
    46ac:	a3140000 	tstge	r4, #0, 0
    46b0:	14040000 	strne	r0, [r4], #-0
    46b4:	040000a3 	streq	r0, [r0], #-163	; 0xffffff5d
    46b8:	01000000 	mrseq	r0, (UNDEF: 0)
    46bc:	02380560 	eorseq	r0, r8, #96, 10	; 0x18000000
    46c0:	651a0000 	ldrvs	r0, [sl, #-0]
    46c4:	15000008 	strne	r0, [r0, #-8]
    46c8:	1300002b 	movwne	r0, #43	; 0x2b
    46cc:	0000002b 	andeq	r0, r0, fp, lsr #32
    46d0:	00089619 	andeq	r9, r8, r9, lsl r6
    46d4:	00a32000 	adceq	r2, r3, r0
    46d8:	a3200200 	nopge	{0}	; <UNPREDICTABLE>
    46dc:	00080000 	andeq	r0, r8, r0
    46e0:	61010000 	mrsvs	r0, (UNDEF: 1)
    46e4:	00026c11 	andeq	r6, r2, r1, lsl ip
    46e8:	08b11a00 	ldmeq	r1!, {r9, fp, ip}
    46ec:	2b2a0000 	blcs	a846f4 <__bss_end__+0xa79224>
    46f0:	2b280000 	blcs	a046f8 <__bss_end__+0x9f9228>
    46f4:	a71a0000 	ldrge	r0, [sl, -r0]
    46f8:	40000008 	andmi	r0, r0, r8
    46fc:	3e00002b 	cdpcc	0, 0, cr0, cr0, cr11, {1}
    4700:	0000002b 	andeq	r0, r0, fp, lsr #32
    4704:	00081f1b 	andeq	r1, r8, fp, lsl pc
    4708:	00a33000 	adceq	r3, r3, r0
    470c:	04a80100 	strteq	r0, [r8], #256	; 0x100
    4710:	67010000 	strvs	r0, [r1, -r0]
    4714:	00030a09 	andeq	r0, r3, r9, lsl #20
    4718:	083a1a00 	ldmdaeq	sl!, {r9, fp, ip}
    471c:	2b590000 	blcs	1644724 <__bss_end__+0x1639254>
    4720:	2b530000 	blcs	14c4728 <__bss_end__+0x14b9258>
    4724:	301a0000 	andscc	r0, sl, r0
    4728:	a0000008 	andge	r0, r0, r8
    472c:	9800002b 	stmdals	r0, {r0, r1, r3, r5}
    4730:	1c00002b 	stcne	0, cr0, [r0], {43}	; 0x2b
    4734:	000004a8 	andeq	r0, r0, r8, lsr #9
    4738:	00085419 	andeq	r5, r8, r9, lsl r4
    473c:	00a33000 	adceq	r3, r3, r0
    4740:	a3300400 	teqge	r0, #0, 8
    4744:	00040000 	andeq	r0, r4, r0
    4748:	11010000 	mrsne	r0, (UNDEF: 1)
    474c:	0002c705 	andeq	ip, r2, r5, lsl #14
    4750:	08651a00 	stmdaeq	r5!, {r9, fp, ip}^
    4754:	2bde0000 	blcs	ff78475c <__bss_end__+0xff77928c>
    4758:	2bdc0000 	blcs	ff704760 <__bss_end__+0xff6f9290>
    475c:	0f000000 	svceq	0x00000000
    4760:	0000a3c8 	andeq	sl, r0, r8, asr #7
    4764:	000008bc 			; <UNDEFINED> instruction: 0x000008bc
    4768:	000002ff 	strdeq	r0, [r0], -pc	; <UNPREDICTABLE>
    476c:	05500110 	ldrbeq	r0, [r0, #-272]	; 0xfffffef0
    4770:	00a8c803 	adceq	ip, r8, r3, lsl #16
    4774:	51011000 	mrspl	r1, (UNDEF: 1)
    4778:	ae8c0305 	cdpge	3, 8, cr0, cr12, cr5, {0}
    477c:	01100000 	tsteq	r0, r0
    4780:	74030552 	strvc	r0, [r3], #-1362	; 0xfffffaae
    4784:	100000b0 	strhne	r0, [r0], -r0	; <UNPREDICTABLE>
    4788:	41015301 	tstmi	r1, r1, lsl #6
    478c:	007d0210 	rsbseq	r0, sp, r0, lsl r2
    4790:	afa00305 	svcge	0x00a00305
    4794:	11000000 	mrsne	r0, (UNDEF: 0)
    4798:	0000a3cc 	andeq	sl, r0, ip, asr #7
    479c:	000008c8 	andeq	r0, r0, r8, asr #17
    47a0:	70190000 	andsvc	r0, r9, r0
    47a4:	48000008 	stmdami	r0, {r3}
    47a8:	030000a3 	movweq	r0, #163	; 0xa3
    47ac:	0000a348 	andeq	sl, r0, r8, asr #6
    47b0:	00000004 	andeq	r0, r0, r4
    47b4:	3e056801 	cdpcc	8, 0, cr6, cr5, cr1, {0}
    47b8:	1a000003 	bne	47cc <__code_start__-0x3834>
    47bc:	0000088b 	andeq	r0, r0, fp, lsl #17
    47c0:	00002bf3 	strdeq	r2, [r0], -r3
    47c4:	00002bf1 	strdeq	r2, [r0], -r1
    47c8:	0008811a 	andeq	r8, r8, sl, lsl r1
    47cc:	002c0800 	eoreq	r0, ip, r0, lsl #16
    47d0:	002c0600 	eoreq	r0, ip, r0, lsl #12
    47d4:	600f0000 	andvs	r0, pc, r0
    47d8:	410000a3 	smlatbmi	r0, r3, r0, r0
    47dc:	53000004 	movwpl	r0, #4
    47e0:	10000003 	andne	r0, r0, r3
    47e4:	f3035001 	vhadd.u8	d5, d3, d1
    47e8:	0f005001 	svceq	0x00005001
    47ec:	0000a384 	andeq	sl, r0, r4, lsl #7
    47f0:	000008bc 			; <UNDEFINED> instruction: 0x000008bc
    47f4:	0000038c 	andeq	r0, r0, ip, lsl #7
    47f8:	05500110 	ldrbeq	r0, [r0, #-272]	; 0xfffffef0
    47fc:	00a8c803 	adceq	ip, r8, r3, lsl #16
    4800:	51011000 	mrspl	r1, (UNDEF: 1)
    4804:	ae8c0305 	cdpge	3, 8, cr0, cr12, cr5, {0}
    4808:	01100000 	tsteq	r0, r0
    480c:	64030552 	strvs	r0, [r3], #-1362	; 0xfffffaae
    4810:	100000b0 	strhne	r0, [r0], -r0	; <UNPREDICTABLE>
    4814:	08025301 	stmdaeq	r2, {r0, r8, r9, ip, lr}
    4818:	7d02105f 	stcvc	0, cr1, [r2, #-380]	; 0xfffffe84
    481c:	9c030500 	cfstr32ls	mvfx0, [r3], {-0}
    4820:	000000ae 	andeq	r0, r0, lr, lsr #1
    4824:	00a38811 	adceq	r8, r3, r1, lsl r8
    4828:	0008c800 	andeq	ip, r8, r0, lsl #16
    482c:	a38c1100 	orrge	r1, ip, #0
    4830:	08d40000 	ldmeq	r4, {}^	; <UNPREDICTABLE>
    4834:	a80f0000 	stmdage	pc, {}	; <UNPREDICTABLE>
    4838:	bc0000a3 	stclt	0, cr0, [r0], {163}	; 0xa3
    483c:	d7000008 	strle	r0, [r0, -r8]
    4840:	10000003 	andne	r0, r0, r3
    4844:	03055001 	movweq	r5, #20481	; 0x5001
    4848:	0000af58 	andeq	sl, r0, r8, asr pc
    484c:	05510110 	ldrbeq	r0, [r1, #-272]	; 0xfffffef0
    4850:	00ae8c03 	adceq	r8, lr, r3, lsl #24
    4854:	52011000 	andpl	r1, r1, #0, 0
    4858:	b0640305 	rsblt	r0, r4, r5, lsl #6
    485c:	01100000 	tsteq	r0, r0
    4860:	60080253 	andvs	r0, r8, r3, asr r2
    4864:	007d0210 	rsbseq	r0, sp, r0, lsl r2
    4868:	af8c0305 	svcge	0x008c0305
    486c:	11000000 	mrsne	r0, (UNDEF: 0)
    4870:	0000a3ac 	andeq	sl, r0, ip, lsr #7
    4874:	000008c8 	andeq	r0, r0, r8, asr #17
    4878:	00a3d011 	adceq	sp, r3, r1, lsl r0
    487c:	0008d400 	andeq	sp, r8, r0, lsl #8
    4880:	a3ec0f00 	mvnge	r0, #0, 30
    4884:	08bc0000 	ldmeq	ip!, {}	; <UNPREDICTABLE>
    4888:	04220000 	strteq	r0, [r2], #-0
    488c:	01100000 	tsteq	r0, r0
    4890:	ac030550 	cfstr32ge	mvfx0, [r3], {80}	; 0x50
    4894:	100000af 	andne	r0, r0, pc, lsr #1
    4898:	03055101 	movweq	r5, #20737	; 0x5101
    489c:	0000ae8c 	andeq	sl, r0, ip, lsl #29
    48a0:	05520110 	ldrbeq	r0, [r2, #-272]	; 0xfffffef0
    48a4:	00b06403 	adcseq	r6, r0, r3, lsl #8
    48a8:	53011000 	movwpl	r1, #4096	; 0x1000
    48ac:	10680802 	rsbne	r0, r8, r2, lsl #16
    48b0:	05007d02 	streq	r7, [r0, #-3330]	; 0xfffff2fe
    48b4:	00afd803 	adceq	sp, pc, r3, lsl #16
    48b8:	f0110000 			; <UNDEFINED> instruction: 0xf0110000
    48bc:	c80000a3 	stmdagt	r0, {r0, r1, r5, r7}
    48c0:	00000008 	andeq	r0, r0, r8
    48c4:	00007e12 	andeq	r7, r0, r2, lsl lr
    48c8:	00043c00 	andeq	r3, r4, r0, lsl #24
    48cc:	002c1300 	eoreq	r1, ip, r0, lsl #6
    48d0:	000f0000 	andeq	r0, pc, r0
    48d4:	00042c05 	andeq	r2, r4, r5, lsl #24
    48d8:	04f41600 	ldrbteq	r1, [r4], #1536	; 0x600
    48dc:	53010000 	movwpl	r0, #4096	; 0x1000
    48e0:	00008a07 	andeq	r8, r0, r7, lsl #20
    48e4:	00a2a000 	adceq	sl, r2, r0
    48e8:	00006400 	andeq	r6, r0, r0, lsl #8
    48ec:	089c0100 	ldmeq	ip, {r8}
    48f0:	17000005 	strne	r0, [r0, -r5]
    48f4:	0000036d 	andeq	r0, r0, sp, ror #6
    48f8:	2c185301 	ldccs	3, cr5, [r8], {1}
    48fc:	23000000 	movwcs	r0, #0
    4900:	1b00002c 	blne	49b8 <__code_start__-0x3648>
    4904:	0e00002c 	cdpeq	0, 0, cr0, cr0, cr12, {1}
    4908:	0000005a 	andeq	r0, r0, sl, asr r0
    490c:	00000518 	andeq	r0, r0, r8, lsl r5
    4910:	b05c0305 	subslt	r0, ip, r5, lsl #6
    4914:	211d0000 	tstcs	sp, r0
    4918:	01000006 	tsteq	r0, r6
    491c:	008a0b55 	addeq	r0, sl, r5, asr fp
    4920:	2c5b0000 	mracs	r0, fp, acc0
    4924:	2c570000 	mracs	r0, r7, acc0
    4928:	b80f0000 	stmdalt	pc, {}	; <UNPREDICTABLE>
    492c:	1d0000a2 	stcne	0, cr0, [r0, #-648]	; 0xfffffd78
    4930:	a6000005 	strge	r0, [r0], -r5
    4934:	10000004 	andne	r0, r0, r4
    4938:	74025001 	strvc	r5, [r2], #-1
    493c:	c80f0000 	stmdagt	pc, {}	; <UNPREDICTABLE>
    4940:	e00000a2 	and	r0, r0, r2, lsr #1
    4944:	c5000008 	strgt	r0, [r0, #-8]
    4948:	10000004 	andne	r0, r0, r4
    494c:	75025001 	strvc	r5, [r2, #-1]
    4950:	51011000 	mrspl	r1, (UNDEF: 1)
    4954:	01103001 	tsteq	r0, r1
    4958:	00740252 	rsbseq	r0, r4, r2, asr r2
    495c:	a2f00f00 	rscsge	r0, r0, #0, 30
    4960:	08bc0000 	ldmeq	ip!, {}	; <UNPREDICTABLE>
    4964:	04fe0000 	ldrbteq	r0, [lr], #0
    4968:	01100000 	tsteq	r0, r0
    496c:	c8030550 	stmdagt	r3, {r4, r6, r8, sl}
    4970:	100000a8 	andne	r0, r0, r8, lsr #1
    4974:	03055101 	movweq	r5, #20737	; 0x5101
    4978:	0000ae8c 	andeq	sl, r0, ip, lsl #29
    497c:	05520110 	ldrbeq	r0, [r2, #-272]	; 0xfffffef0
    4980:	00b05c03 	adcseq	r5, r0, r3, lsl #24
    4984:	53011000 	movwpl	r1, #4096	; 0x1000
    4988:	10540802 	subsne	r0, r4, r2, lsl #16
    498c:	05007d02 	streq	r7, [r0, #-3330]	; 0xfffff2fe
    4990:	00ae9c03 	adceq	r9, lr, r3, lsl #24
    4994:	f4110000 			; <UNDEFINED> instruction: 0xf4110000
    4998:	c80000a2 	stmdagt	r0, {r1, r5, r7}
    499c:	00000008 	andeq	r0, r0, r8
    49a0:	00007e12 	andeq	r7, r0, r2, lsl lr
    49a4:	00051800 	andeq	r1, r5, r0, lsl #16
    49a8:	002c1300 	eoreq	r1, ip, r0, lsl #6
    49ac:	00070000 	andeq	r0, r7, r0
    49b0:	00050805 	andeq	r0, r5, r5, lsl #16
    49b4:	0bc91600 	bleq	ff24a1bc <__bss_end__+0xff23ecec>
    49b8:	47010000 	strmi	r0, [r1, -r0]
    49bc:	00008a07 	andeq	r8, r0, r7, lsl #20
    49c0:	00a20800 	adceq	r0, r2, r0, lsl #16
    49c4:	00009800 	andeq	r9, r0, r0, lsl #16
    49c8:	2b9c0100 	blcs	fe704dd0 <__bss_end__+0xfe6f9900>
    49cc:	17000006 	strne	r0, [r0, -r6]
    49d0:	0000036d 	andeq	r0, r0, sp, ror #6
    49d4:	2c204701 	stccs	7, cr4, [r0], #-4
    49d8:	89000000 	stmdbhi	r0, {}	; <UNPREDICTABLE>
    49dc:	7900002c 	stmdbvc	r0, {r2, r3, r5}
    49e0:	0e00002c 	cdpeq	0, 0, cr0, cr0, cr12, {1}
    49e4:	0000005a 	andeq	r0, r0, sl, asr r0
    49e8:	0000043c 	andeq	r0, r0, ip, lsr r4
    49ec:	b04c0305 	sublt	r0, ip, r5, lsl #6
    49f0:	211d0000 	tstcs	sp, r0
    49f4:	01000006 	tsteq	r0, r6
    49f8:	008a0b4b 	addeq	r0, sl, fp, asr #22
    49fc:	2cfb0000 	ldclcs	0, cr0, [fp]
    4a00:	2cf70000 	ldclcs	0, cr0, [r7]
    4a04:	1f1b0000 	svcne	0x001b0000
    4a08:	18000008 	stmdane	r0, {r3}
    4a0c:	030000a2 	movweq	r0, #162	; 0xa2
    4a10:	00000490 	muleq	r0, r0, r4
    4a14:	a30e4901 	movwge	r4, #59649	; 0xe901
    4a18:	1a000005 	bne	4a34 <__code_start__-0x35cc>
    4a1c:	0000083a 	andeq	r0, r0, sl, lsr r8
    4a20:	00002d1b 	andeq	r2, r0, fp, lsl sp
    4a24:	00002d19 	andeq	r2, r0, r9, lsl sp
    4a28:	0008301a 	andeq	r3, r8, sl, lsl r0
    4a2c:	002d3300 	eoreq	r3, sp, r0, lsl #6
    4a30:	002d2f00 	eoreq	r2, sp, r0, lsl #30
    4a34:	04901e00 	ldreq	r1, [r0], #3584	; 0xe00
    4a38:	0f000000 	svceq	0x00000000
    4a3c:	0000a260 	andeq	sl, r0, r0, ror #4
    4a40:	000008bc 			; <UNDEFINED> instruction: 0x000008bc
    4a44:	000005dc 	ldrdeq	r0, [r0], -ip
    4a48:	05500110 	ldrbeq	r0, [r0, #-272]	; 0xfffffef0
    4a4c:	00a8c803 	adceq	ip, r8, r3, lsl #16
    4a50:	51011000 	mrspl	r1, (UNDEF: 1)
    4a54:	ae8c0305 	cdpge	3, 8, cr0, cr12, cr5, {0}
    4a58:	01100000 	tsteq	r0, r0
    4a5c:	4c030552 	cfstr32mi	mvfx0, [r3], {82}	; 0x52
    4a60:	100000b0 	strhne	r0, [r0], -r0	; <UNPREDICTABLE>
    4a64:	08025301 	stmdaeq	r2, {r0, r8, r9, ip, lr}
    4a68:	7d021048 	stcvc	0, cr1, [r2, #-288]	; 0xfffffee0
    4a6c:	9c030500 	cfstr32ls	mvfx0, [r3], {-0}
    4a70:	000000ae 	andeq	r0, r0, lr, lsr #1
    4a74:	00a26411 	adceq	r6, r2, r1, lsl r4
    4a78:	0008c800 	andeq	ip, r8, r0, lsl #16
    4a7c:	a2840f00 	addge	r0, r4, #0, 30
    4a80:	08bc0000 	ldmeq	ip!, {}	; <UNPREDICTABLE>
    4a84:	06210000 	strteq	r0, [r1], -r0
    4a88:	01100000 	tsteq	r0, r0
    4a8c:	18030550 	stmdane	r3, {r4, r6, r8, sl}
    4a90:	100000af 	andne	r0, r0, pc, lsr #1
    4a94:	03055101 	movweq	r5, #20737	; 0x5101
    4a98:	0000ae8c 	andeq	sl, r0, ip, lsl #29
    4a9c:	05520110 	ldrbeq	r0, [r2, #-272]	; 0xfffffef0
    4aa0:	00b04c03 	adcseq	r4, r0, r3, lsl #24
    4aa4:	53011000 	movwpl	r1, #4096	; 0x1000
    4aa8:	104e0802 	subne	r0, lr, r2, lsl #16
    4aac:	08007d02 	stmdaeq	r0, {r1, r8, sl, fp, ip, sp, lr}
    4ab0:	235001f3 	cmpcs	r0, #-1073741764	; 0xc000003c
    4ab4:	1af80907 	bne	ffe06ed8 <__bss_end__+0xffdfba08>
    4ab8:	a2881100 	addge	r1, r8, #0
    4abc:	08c80000 	stmiaeq	r8, {}^	; <UNPREDICTABLE>
    4ac0:	0c000000 	stceq	0, cr0, [r0], {-0}
    4ac4:	00000beb 	andeq	r0, r0, fp, ror #23
    4ac8:	b0063c01 	andlt	r3, r6, r1, lsl #24
    4acc:	580000a1 	stmdapl	r0, {r0, r5, r7}
    4ad0:	01000000 	mrseq	r0, (UNDEF: 0)
    4ad4:	0006cf9c 	muleq	r6, ip, pc	; <UNPREDICTABLE>
    4ad8:	04150a00 	ldreq	r0, [r5], #-2560	; 0xfffff600
    4adc:	3d010000 	stccc	0, cr0, [r1, #-0]
    4ae0:	00002510 	andeq	r2, r0, r0, lsl r5
    4ae4:	c8030500 	stmdagt	r3, {r8, sl}
    4ae8:	0e0000b4 	mcreq	0, 0, r0, cr0, cr4, {5}
    4aec:	0000005a 	andeq	r0, r0, sl, asr r0
    4af0:	000006df 	ldrdeq	r0, [r0], -pc	; <UNPREDICTABLE>
    4af4:	b03c0305 	eorslt	r0, ip, r5, lsl #6
    4af8:	07070000 	streq	r0, [r7, -r0]
    4afc:	00002c04 	andeq	r2, r0, r4, lsl #24
    4b00:	0a420100 	beq	1084f08 <__bss_end__+0x1079a38>
    4b04:	0000067a 	andeq	r0, r0, sl, ror r6
    4b08:	000bb208 	andeq	fp, fp, r8, lsl #4
    4b0c:	10000000 	andne	r0, r0, r0
    4b10:	dc0f0000 	stcle	0, cr0, [pc], {-0}
    4b14:	e40000a1 	str	r0, [r0], #-161	; 0xffffff5f
    4b18:	96000006 	strls	r0, [r0], -r6
    4b1c:	10000006 	andne	r0, r0, r6
    4b20:	40035001 	andmi	r5, r3, r1
    4b24:	01102440 	tsteq	r0, r0, asr #8
    4b28:	48400351 	stmdami	r0, {r0, r4, r6, r8, r9}^
    4b2c:	f40f0024 	vst4.8	{d0-d3}, [pc :128], r4
    4b30:	bc0000a1 	stclt	0, cr0, [r0], {161}	; 0xa1
    4b34:	c5000008 	strgt	r0, [r0, #-8]
    4b38:	10000006 	andne	r0, r0, r6
    4b3c:	03055001 	movweq	r5, #20481	; 0x5001
    4b40:	0000aee8 	andeq	sl, r0, r8, ror #29
    4b44:	05510110 	ldrbeq	r0, [r1, #-272]	; 0xfffffef0
    4b48:	00ae8c03 	adceq	r8, lr, r3, lsl #24
    4b4c:	52011000 	andpl	r1, r1, #0, 0
    4b50:	b03c0305 	eorslt	r0, ip, r5, lsl #6
    4b54:	01100000 	tsteq	r0, r0
    4b58:	40080253 	andmi	r0, r8, r3, asr r2
    4b5c:	a1f81100 	mvnsge	r1, r0, lsl #2
    4b60:	08c80000 	stmiaeq	r8, {}^	; <UNPREDICTABLE>
    4b64:	12000000 	andne	r0, r0, #0, 0
    4b68:	0000007e 	andeq	r0, r0, lr, ror r0
    4b6c:	000006df 	ldrdeq	r0, [r0], -pc	; <UNPREDICTABLE>
    4b70:	00002c13 	andeq	r2, r0, r3, lsl ip
    4b74:	05000c00 	streq	r0, [r0, #-3072]	; 0xfffff400
    4b78:	000006cf 	andeq	r0, r0, pc, asr #13
    4b7c:	0004fc0c 	andeq	pc, r4, ip, lsl #24
    4b80:	062d0100 	strteq	r0, [sp], -r0, lsl #2
    4b84:	0000a114 	andeq	sl, r0, r4, lsl r1
    4b88:	0000009c 	muleq	r0, ip, r0
    4b8c:	07c89c01 	strbeq	r9, [r8, r1, lsl #24]
    4b90:	20170000 	andscs	r0, r7, r0
    4b94:	01000006 	tsteq	r0, r6
    4b98:	002c262d 	eoreq	r2, ip, sp, lsr #12
    4b9c:	2d610000 	stclcs	0, cr0, [r1, #-0]
    4ba0:	2d530000 	ldclcs	0, cr0, [r3, #-0]
    4ba4:	70170000 	andsvc	r0, r7, r0
    4ba8:	0100000b 	tsteq	r0, fp
    4bac:	002c362d 	eoreq	r3, ip, sp, lsr #12
    4bb0:	2dc90000 	stclcs	0, cr0, [r9]
    4bb4:	2dc10000 	stclcs	0, cr0, [r1]
    4bb8:	211d0000 	tstcs	sp, r0
    4bbc:	01000006 	tsteq	r0, r6
    4bc0:	00c20b2e 	sbceq	r0, r2, lr, lsr #22
    4bc4:	2e110000 	cdpcs	0, 1, cr0, cr1, cr0, {0}
    4bc8:	2e030000 	cdpcs	0, 0, cr0, cr3, cr0, {0}
    4bcc:	5a0e0000 	bpl	384bd4 <__bss_end__+0x379704>
    4bd0:	d8000000 	stmdale	r0, {}	; <UNPREDICTABLE>
    4bd4:	05000007 	streq	r0, [r0, #-7]
    4bd8:	00b02403 	adcseq	r2, r0, r3, lsl #8
    4bdc:	a16c0f00 	cmnge	ip, r0, lsl #30
    4be0:	08bc0000 	ldmeq	ip!, {}	; <UNPREDICTABLE>
    4be4:	077e0000 	ldrbeq	r0, [lr, -r0]!
    4be8:	01100000 	tsteq	r0, r0
    4bec:	c8030550 	stmdagt	r3, {r4, r6, r8, sl}
    4bf0:	100000a8 	andne	r0, r0, r8, lsr #1
    4bf4:	03055101 	movweq	r5, #20737	; 0x5101
    4bf8:	0000ae8c 	andeq	sl, r0, ip, lsl #29
    4bfc:	05520110 	ldrbeq	r0, [r2, #-272]	; 0xfffffef0
    4c00:	00b02403 	adcseq	r2, r0, r3, lsl #8
    4c04:	53011000 	movwpl	r1, #4096	; 0x1000
    4c08:	10300802 	eorsne	r0, r0, r2, lsl #16
    4c0c:	05007d02 	streq	r7, [r0, #-3330]	; 0xfffff2fe
    4c10:	00ae9803 	adceq	r9, lr, r3, lsl #16
    4c14:	70110000 	andsvc	r0, r1, r0
    4c18:	c80000a1 	stmdagt	r0, {r0, r5, r7}
    4c1c:	0f000008 	svceq	0x00000008
    4c20:	0000a194 	muleq	r0, r4, r1
    4c24:	000008bc 			; <UNDEFINED> instruction: 0x000008bc
    4c28:	000007be 			; <UNDEFINED> instruction: 0x000007be
    4c2c:	05500110 	ldrbeq	r0, [r0, #-272]	; 0xfffffef0
    4c30:	00aea403 	adceq	sl, lr, r3, lsl #8
    4c34:	51011000 	mrspl	r1, (UNDEF: 1)
    4c38:	ae8c0305 	cdpge	3, 8, cr0, cr12, cr5, {0}
    4c3c:	01100000 	tsteq	r0, r0
    4c40:	24030552 	strcs	r0, [r3], #-1362	; 0xfffffaae
    4c44:	100000b0 	strhne	r0, [r0], -r0	; <UNPREDICTABLE>
    4c48:	08025301 	stmdaeq	r2, {r0, r8, r9, ip, lr}
    4c4c:	7d021034 	stcvc	0, cr1, [r2, #-208]	; 0xffffff30
    4c50:	01f30300 	mvnseq	r0, r0, lsl #6
    4c54:	98110050 	ldmdals	r1, {r4, r6}
    4c58:	c80000a1 	stmdagt	r0, {r0, r5, r7}
    4c5c:	00000008 	andeq	r0, r0, r8
    4c60:	00007e12 	andeq	r7, r0, r2, lsl lr
    4c64:	0007d800 	andeq	sp, r7, r0, lsl #16
    4c68:	002c1300 	eoreq	r1, ip, r0, lsl #6
    4c6c:	00160000 	andseq	r0, r6, r0
    4c70:	0007c805 	andeq	ip, r7, r5, lsl #16
    4c74:	0c031f00 	stceq	15, cr1, [r3], {-0}
    4c78:	2a010000 	bcs	44c80 <__bss_end__+0x397b0>
    4c7c:	00008a07 	andeq	r8, r0, r7, lsl #20
    4c80:	00a10400 	adceq	r0, r1, r0, lsl #8
    4c84:	00001000 	andeq	r1, r0, r0
    4c88:	1f9c0100 	svcne	0x009c0100
    4c8c:	00000b5d 	andeq	r0, r0, sp, asr fp
    4c90:	8a072901 	bhi	1cf09c <__bss_end__+0x1c3bcc>
    4c94:	f4000000 	vst4.8	{d0-d3}, [r0], r0
    4c98:	100000a0 	andne	r0, r0, r0, lsr #1
    4c9c:	01000000 	mrseq	r0, (UNDEF: 0)
    4ca0:	0bb81f9c 	bleq	fee0cb18 <__bss_end__+0xfee01648>
    4ca4:	28010000 	stmdacs	r1, {}	; <UNPREDICTABLE>
    4ca8:	00008a07 	andeq	r8, r0, r7, lsl #20
    4cac:	00a0e400 	adceq	lr, r0, r0, lsl #8
    4cb0:	00001000 	andeq	r1, r0, r0
    4cb4:	209c0100 	addscs	r0, ip, r0, lsl #2
    4cb8:	00000b8e 	andeq	r0, r0, lr, lsl #23
    4cbc:	2c181001 	ldccs	0, cr1, [r8], {1}
    4cc0:	03000000 	movweq	r0, #0
    4cc4:	00000854 	andeq	r0, r0, r4, asr r8
    4cc8:	01007821 	tsteq	r0, r1, lsr #16
    4ccc:	002c2910 	eoreq	r2, ip, r0, lsl r9
    4cd0:	6e210000 	cdpvs	0, 2, cr0, cr1, cr0, {0}
    4cd4:	35100100 	ldrcc	r0, [r0, #-256]	; 0xffffff00
    4cd8:	0000002c 	andeq	r0, r0, ip, lsr #32
    4cdc:	00005a0e 	andeq	r5, r0, lr, lsl #20
    4ce0:	00051800 	andeq	r1, r5, r0, lsl #16
    4ce4:	74030500 	strvc	r0, [r3], #-1280	; 0xfffffb00
    4ce8:	000000b0 	strheq	r0, [r0], -r0	; <UNPREDICTABLE>
    4cec:	000bd920 	andeq	sp, fp, r0, lsr #18
    4cf0:	180d0100 	stmdane	sp, {r8}
    4cf4:	0000002c 	andeq	r0, r0, ip, lsr #32
    4cf8:	00087003 	andeq	r7, r8, r3
    4cfc:	00782100 	rsbseq	r2, r8, r0, lsl #2
    4d00:	2c290d01 	stccs	13, cr0, [r9], #-4
    4d04:	00000000 	andeq	r0, r0, r0
    4d08:	000bf820 	andeq	pc, fp, r0, lsr #16
    4d0c:	18070100 	stmdane	r7, {r8}
    4d10:	0000002c 	andeq	r0, r0, ip, lsr #32
    4d14:	00089603 	andeq	r9, r8, r3, lsl #12
    4d18:	00782100 	rsbseq	r2, r8, r0, lsl #2
    4d1c:	2c2c0701 	stccs	7, cr0, [ip], #-4
    4d20:	21000000 	mrscs	r0, (UNDEF: 0)
    4d24:	0701006e 	streq	r0, [r1, -lr, rrx]
    4d28:	00002c38 	andeq	r2, r0, r8, lsr ip
    4d2c:	aa200000 	bge	804d34 <__bss_end__+0x7f9864>
    4d30:	0100000b 	tsteq	r0, fp
    4d34:	005d1804 	subseq	r1, sp, r4, lsl #16
    4d38:	bc030000 	stclt	0, cr0, [r3], {-0}
    4d3c:	21000008 	tstcs	r0, r8
    4d40:	04010078 	streq	r0, [r1], #-120	; 0xffffff88
    4d44:	00005d29 	andeq	r5, r0, r9, lsr #26
    4d48:	00792100 	rsbseq	r2, r9, r0, lsl #2
    4d4c:	5d350401 	cfldrspl	mvf0, [r5, #-4]!
    4d50:	00000000 	andeq	r0, r0, r0
    4d54:	00068822 	andeq	r8, r6, r2, lsr #16
    4d58:	00068800 	andeq	r8, r6, r0, lsl #16
    4d5c:	06280200 	strteq	r0, [r8], -r0, lsl #4
    4d60:	00006722 	andeq	r6, r0, r2, lsr #14
    4d64:	00006700 	andeq	r6, r0, r0, lsl #14
    4d68:	066e0200 	strbteq	r0, [lr], -r0, lsl #4
    4d6c:	000c1422 	andeq	r1, ip, r2, lsr #8
    4d70:	000c1400 	andeq	r1, ip, r0, lsl #8
    4d74:	061d0200 	ldreq	r0, [sp], -r0, lsl #4
    4d78:	00029322 	andeq	r9, r2, r2, lsr #6
    4d7c:	00029300 	andeq	r9, r2, r0, lsl #6
    4d80:	07f20200 	ldrbeq	r0, [r2, r0, lsl #4]!
    4d84:	00067300 	andeq	r7, r6, r0, lsl #6
    4d88:	f2000400 	vshl.s8	d0, d0, d0
    4d8c:	0400001a 	streq	r0, [r0], #-26	; 0xffffffe6
    4d90:	00056001 	andeq	r6, r5, r1
    4d94:	0c660c00 	stcleq	12, cr0, [r6], #-0
    4d98:	06260000 	strteq	r0, [r6], -r0
    4d9c:	a4940000 	ldrge	r0, [r4], #0
    4da0:	01980000 	orrseq	r0, r8, r0
    4da4:	274a0000 	strbcs	r0, [sl, -r0]
    4da8:	08020000 	stmdaeq	r2, {}	; <UNPREDICTABLE>
    4dac:	00017807 	andeq	r7, r1, r7, lsl #16
    4db0:	07040200 	streq	r0, [r4, -r0, lsl #4]
    4db4:	00000182 	andeq	r0, r0, r2, lsl #3
    4db8:	69050403 	stmdbvs	r5, {r0, r1, sl}
    4dbc:	0400746e 	streq	r7, [r0], #-1134	; 0xfffffb92
    4dc0:	0000002c 	andeq	r0, r0, ip, lsr #32
    4dc4:	83060102 	movwhi	r0, #24834	; 0x6102
    4dc8:	02000000 	andeq	r0, r0, #0, 0
    4dcc:	001d0502 	andseq	r0, sp, r2, lsl #10
    4dd0:	04020000 	streq	r0, [r2], #-0
    4dd4:	00005105 	andeq	r5, r0, r5, lsl #2
    4dd8:	05080200 	streq	r0, [r8, #-512]	; 0xfffffe00
    4ddc:	0000004c 	andeq	r0, r0, ip, asr #32
    4de0:	81080102 	tsthi	r8, r2, lsl #2
    4de4:	02000000 	andeq	r0, r0, #0, 0
    4de8:	01970702 	orrseq	r0, r7, r2, lsl #14
    4dec:	e5050000 	str	r0, [r5, #-0]
    4df0:	03000002 	movweq	r0, #2
    4df4:	00751934 	rsbseq	r1, r5, r4, lsr r9
    4df8:	04020000 	streq	r0, [r2], #-0
    4dfc:	00017d07 	andeq	r7, r1, r7, lsl #26
    4e00:	00330600 	eorseq	r0, r3, r0, lsl #12
    4e04:	008b0000 	addeq	r0, fp, r0
    4e08:	33070000 	movwcc	r0, #28672	; 0x7000
    4e0c:	00000000 	andeq	r0, r0, r0
    4e10:	00002708 	andeq	r2, r0, r8, lsl #14
    4e14:	0e1c0200 	cdpeq	2, 1, cr0, cr12, cr0, {0}
    4e18:	00000097 	muleq	r0, r7, r0
    4e1c:	007c0409 	rsbseq	r0, ip, r9, lsl #8
    4e20:	33060000 	movwcc	r0, #24576	; 0x6000
    4e24:	ac000000 	stcge	0, cr0, [r0], {-0}
    4e28:	07000000 	streq	r0, [r0, -r0]
    4e2c:	000000ac 	andeq	r0, r0, ip, lsr #1
    4e30:	b9040900 	stmdblt	r4, {r8, fp}
    4e34:	02000000 	andeq	r0, r0, #0, 0
    4e38:	008a0801 	addeq	r0, sl, r1, lsl #16
    4e3c:	b2040000 	andlt	r0, r4, #0, 0
    4e40:	08000000 	stmdaeq	r0, {}	; <UNPREDICTABLE>
    4e44:	000006c6 	andeq	r0, r0, r6, asr #13
    4e48:	ca0e2102 	bgt	38d258 <__bss_end__+0x381d88>
    4e4c:	09000000 	stmdbeq	r0, {}	; <UNPREDICTABLE>
    4e50:	00009d04 	andeq	r9, r0, r4, lsl #26
    4e54:	01070a00 	tsteq	r7, r0, lsl #20
    4e58:	0000005b 	andeq	r0, r0, fp, asr r0
    4e5c:	0f0e0c04 	svceq	0x000e0c04
    4e60:	0b000001 	bleq	4e6c <__code_start__-0x3194>
    4e64:	00000b35 	andeq	r0, r0, r5, lsr fp
    4e68:	096d0b00 	stmdbeq	sp!, {r8, r9, fp}^
    4e6c:	0b010000 	bleq	44e74 <__bss_end__+0x399a4>
    4e70:	000009b0 			; <UNDEFINED> instruction: 0x000009b0
    4e74:	09bf0b04 	ldmibeq	pc!, {r2, r8, r9, fp}	; <UNPREDICTABLE>
    4e78:	0b050000 	bleq	144e80 <__bss_end__+0x1399b0>
    4e7c:	000009ce 	andeq	r0, r0, lr, asr #19
    4e80:	09dd0b06 	ldmibeq	sp, {r1, r2, r8, r9, fp}^
    4e84:	0b070000 	bleq	1c4e8c <__bss_end__+0x1b99bc>
    4e88:	00000afe 	strdeq	r0, [r0], -lr
    4e8c:	09ec0b03 	stmibeq	ip!, {r0, r1, r8, r9, fp}^
    4e90:	00020000 	andeq	r0, r2, r0
    4e94:	000c9f05 	andeq	r9, ip, r5, lsl #30
    4e98:	03150400 	tsteq	r5, #0, 8
    4e9c:	000000d0 	ldrdeq	r0, [r0], -r0	; <UNPREDICTABLE>
    4ea0:	000c3d0c 	andeq	r3, ip, ip, lsl #26
    4ea4:	171d0100 	ldrne	r0, [sp, -r0, lsl #2]
    4ea8:	0000003a 	andeq	r0, r0, sl, lsr r0
    4eac:	2020001c 	eorcs	r0, r0, ip, lsl r0
    4eb0:	000c330c 	andeq	r3, ip, ip, lsl #6
    4eb4:	171e0100 	ldrne	r0, [lr, -r0, lsl #2]
    4eb8:	0000003a 	andeq	r0, r0, sl, lsr r0
    4ebc:	20200028 	eorcs	r0, r0, r8, lsr #32
    4ec0:	000cab0c 	andeq	sl, ip, ip, lsl #22
    4ec4:	171f0100 	ldrne	r0, [pc, -r0, lsl #2]
    4ec8:	0000003a 	andeq	r0, r0, sl, lsr r0
    4ecc:	20200034 	eorcs	r0, r0, r4, lsr r0
    4ed0:	000c5c0d 	andeq	r5, ip, sp, lsl #24
    4ed4:	05510100 	ldrbeq	r0, [r1, #-256]	; 0xffffff00
    4ed8:	00000033 	andeq	r0, r0, r3, lsr r0
    4edc:	0000a604 	andeq	sl, r0, r4, lsl #12
    4ee0:	00000028 	andeq	r0, r0, r8, lsr #32
    4ee4:	01ba9c01 			; <UNDEFINED> instruction: 0x01ba9c01
    4ee8:	700e0000 	andvc	r0, lr, r0
    4eec:	01006e69 	tsteq	r0, r9, ror #28
    4ef0:	002c1851 	eoreq	r1, ip, r1, asr r8
    4ef4:	2e770000 	cdpcs	0, 7, cr0, cr7, cr0, {0}
    4ef8:	2e710000 	cdpcs	0, 7, cr0, cr1, cr0, {0}
    4efc:	b50f0000 	strlt	r0, [pc, #-0]	; 4f04 <__code_start__-0x30fc>
    4f00:	0100000c 	tsteq	r0, ip
    4f04:	002c0e52 	eoreq	r0, ip, r2, asr lr
    4f08:	2ead0000 	cdpcs	0, 10, cr0, cr13, cr0, {0}
    4f0c:	2ea30000 	cdpcs	0, 10, cr0, cr3, cr0, {0}
    4f10:	6f100000 	svcvs	0x00100000
    4f14:	01006666 	tsteq	r0, r6, ror #12
    4f18:	002c0e53 	eoreq	r0, ip, r3, asr lr
    4f1c:	2f1b0000 	svccs	0x001b0000
    4f20:	2f150000 	svccs	0x00150000
    4f24:	18110000 	ldmdane	r1, {}	; <UNPREDICTABLE>
    4f28:	5e0000a6 	cdppl	0, 0, cr0, cr0, cr6, {5}
    4f2c:	12000006 	andne	r0, r0, #6, 0
    4f30:	740a5001 	strvc	r5, [sl], #-1
    4f34:	23253500 			; <UNDEFINED> instruction: 0x23253500
    4f38:	818080b4 	strhhi	r8, [r0, r4]
    4f3c:	13000002 	movwne	r0, #2
    4f40:	00000c47 	andeq	r0, r0, r7, asr #24
    4f44:	d4064a01 	strle	r4, [r6], #-2561	; 0xfffff5ff
    4f48:	300000a5 	andcc	r0, r0, r5, lsr #1
    4f4c:	01000000 	mrseq	r0, (UNDEF: 0)
    4f50:	0002759c 	muleq	r2, ip, r5
    4f54:	69700e00 	ldmdbvs	r0!, {r9, sl, fp}^
    4f58:	4a01006e 	bmi	45118 <__bss_end__+0x39c48>
    4f5c:	00002c1a 	andeq	r2, r0, sl, lsl ip
    4f60:	002f5800 	eoreq	r5, pc, r0, lsl #16
    4f64:	002f4c00 	eoreq	r4, pc, r0, lsl #24
    4f68:	00760e00 	rsbseq	r0, r6, r0, lsl #28
    4f6c:	2c284a01 			; <UNDEFINED> instruction: 0x2c284a01
    4f70:	ac000000 	stcge	0, cr0, [r0], {-0}
    4f74:	a800002f 	stmdage	r0, {r0, r1, r2, r3, r5}
    4f78:	1400002f 	strne	r0, [r0], #-47	; 0xffffffd1
    4f7c:	0000038d 	andeq	r0, r0, sp, lsl #7
    4f80:	0000a5e4 	andeq	sl, r0, r4, ror #11
    4f84:	00056001 	andeq	r6, r5, r1
    4f88:	094c0100 	stmdbeq	ip, {r8}^
    4f8c:	00000235 	andeq	r0, r0, r5, lsr r2
    4f90:	00039a15 	andeq	r9, r3, r5, lsl sl
    4f94:	002fd300 	eoreq	sp, pc, r0, lsl #6
    4f98:	002fcd00 	eoreq	ip, pc, r0, lsl #26
    4f9c:	a5f01600 	ldrbge	r1, [r0, #1536]!	; 0x600
    4fa0:	066a0000 	strbteq	r0, [sl], -r0
    4fa4:	01120000 	tsteq	r2, r0
    4fa8:	1c0c0550 	cfstr32ne	mvfx0, [ip], {80}	; 0x50
    4fac:	12202000 	eorne	r2, r0, #0, 0
    4fb0:	31055101 	tstcc	r5, r1, lsl #2
    4fb4:	245001f3 	ldrbcs	r0, [r0], #-499	; 0xfffffe0d
    4fb8:	73170000 	tstvc	r7, #0, 0
    4fbc:	f0000003 			; <UNDEFINED> instruction: 0xf0000003
    4fc0:	020000a5 	andeq	r0, r0, #165, 0	; 0xa5
    4fc4:	0000a5f0 	strdeq	sl, [r0], -r0
    4fc8:	00000014 	andeq	r0, r0, r4, lsl r0
    4fcc:	15094e01 	strne	r4, [r9, #-3585]	; 0xfffff1ff
    4fd0:	00000380 	andeq	r0, r0, r0, lsl #7
    4fd4:	00003005 	andeq	r3, r0, r5
    4fd8:	00002fff 	strdeq	r2, [r0], -pc	; <UNPREDICTABLE>
    4fdc:	00a5fc16 	adceq	pc, r5, r6, lsl ip	; <UNPREDICTABLE>
    4fe0:	00066a00 	andeq	r6, r6, r0, lsl #20
    4fe4:	50011200 	andpl	r1, r1, r0, lsl #4
    4fe8:	00280c05 	eoreq	r0, r8, r5, lsl #24
    4fec:	01122020 	tsteq	r2, r0, lsr #32
    4ff0:	f3310551 	vqrshl.u64	q0, <illegal reg q0.5>, <illegal reg q0.5>
    4ff4:	00245001 	eoreq	r5, r4, r1
    4ff8:	73130000 	tstvc	r3, #0, 0
    4ffc:	0100000c 	tsteq	r0, ip
    5000:	a57c0645 	ldrbge	r0, [ip, #-1605]!	; 0xfffff9bb
    5004:	00580000 	subseq	r0, r8, r0
    5008:	9c010000 	stcls	0, cr0, [r1], {-0}
    500c:	00000373 	andeq	r0, r0, r3, ror r3
    5010:	6e69700e 	cdpvs	0, 6, cr7, cr9, cr14, {0}
    5014:	1e450100 	dvfnes	f0, f5, f0
    5018:	0000002c 	andeq	r0, r0, ip, lsr #32
    501c:	00003037 	andeq	r3, r0, r7, lsr r0
    5020:	00003031 	andeq	r3, r0, r1, lsr r0
    5024:	0004a518 	andeq	sl, r4, r8, lsl r5
    5028:	00a57c00 	adceq	r7, r5, r0, lsl #24
    502c:	05200200 	streq	r0, [r0, #-512]!	; 0xfffffe00
    5030:	46010000 	strmi	r0, [r1], -r0
    5034:	04be1905 	ldrteq	r1, [lr], #2309	; 0x905
    5038:	15000000 	strne	r0, [r0, #-0]
    503c:	000004b2 			; <UNDEFINED> instruction: 0x000004b2
    5040:	00003069 	andeq	r3, r0, r9, rrx
    5044:	00003063 	andeq	r3, r0, r3, rrx
    5048:	0005201a 	andeq	r2, r5, sl, lsl r0
    504c:	04ca1b00 	strbeq	r1, [sl], #2816	; 0xb00
    5050:	d61b0000 	ldrle	r0, [fp], -r0
    5054:	1b000004 	blne	506c <__code_start__-0x2f94>
    5058:	000004e0 	andeq	r0, r0, r0, ror #9
    505c:	0004a518 	andeq	sl, r4, r8, lsl r5
    5060:	00a58400 	adceq	r8, r5, r0, lsl #8
    5064:	05400000 	strbeq	r0, [r0, #-0]
    5068:	28010000 	stmdacs	r1, {}	; <UNPREDICTABLE>
    506c:	04be1906 	ldrteq	r1, [lr], #2310	; 0x906
    5070:	15000000 	strne	r0, [r0, #-0]
    5074:	000004b2 			; <UNDEFINED> instruction: 0x000004b2
    5078:	0000309b 	muleq	r0, fp, r0
    507c:	00003095 	muleq	r0, r5, r0
    5080:	0005401a 	andeq	r4, r5, sl, lsl r0
    5084:	04ca1c00 	strbeq	r1, [sl], #3072	; 0xc00
    5088:	30cd0000 	sbccc	r0, sp, r0
    508c:	30c70000 	sbccc	r0, r7, r0
    5090:	d61c0000 	ldrle	r0, [ip], -r0
    5094:	0f000004 	svceq	0x00000004
    5098:	09000031 	stmdbeq	r0, {r0, r4, r5}
    509c:	1c000031 	stcne	0, cr0, [r0], {49}	; 0x31
    50a0:	000004e0 	andeq	r0, r0, r0, ror #9
    50a4:	00003165 	andeq	r3, r0, r5, ror #2
    50a8:	0000315d 	andeq	r3, r0, sp, asr r1
    50ac:	00a5ac1d 	adceq	sl, r5, sp, lsl ip
    50b0:	00065e00 	andeq	r5, r6, r0, lsl #28
    50b4:	00033b00 	andeq	r3, r3, r0, lsl #22
    50b8:	50011200 	andpl	r1, r1, r0, lsl #4
    50bc:	00007602 	andeq	r7, r0, r2, lsl #12
    50c0:	00a5d016 	adceq	sp, r5, r6, lsl r0
    50c4:	00066a00 	andeq	r6, r6, r0, lsl #20
    50c8:	50011200 	andpl	r1, r1, r0, lsl #4
    50cc:	5001f325 	andpl	pc, r1, r5, lsr #6
    50d0:	25f72cf7 	ldrbcs	r2, [r7, #3319]!	; 0xcf7
    50d4:	cd0825f4 	cfstr32gt	mvfx2, [r8, #-976]	; 0xfffffc30
    50d8:	00cccccc 	sbceq	ip, ip, ip, asr #25
    50dc:	1e000000 	cdpne	0, 0, cr0, cr0, cr0, {0}
    50e0:	25f72008 	ldrbcs	r2, [r7, #8]!
    50e4:	f72cf725 			; <UNDEFINED> instruction: 0xf72cf725
    50e8:	23253300 			; <UNDEFINED> instruction: 0x23253300
    50ec:	40a08080 	adcmi	r8, r0, r0, lsl #1
    50f0:	00002432 	andeq	r2, r0, r2, lsr r4
    50f4:	00000000 	andeq	r0, r0, r0
    50f8:	000c821e 	andeq	r8, ip, lr, lsl r2
    50fc:	0d400100 	stfeqe	f0, [r0, #-0]
    5100:	00038d03 	andeq	r8, r3, r3, lsl #26
    5104:	69701f00 	ldmdbvs	r0!, {r8, r9, sl, fp, ip}^
    5108:	4001006e 	andmi	r0, r1, lr, rrx
    510c:	00002c23 	andeq	r2, r0, r3, lsr #24
    5110:	ba1e0000 	blt	785118 <__bss_end__+0x779c48>
    5114:	0100000c 	tsteq	r0, ip
    5118:	a7030d3b 	smladxge	r3, fp, sp, r0
    511c:	1f000003 	svcne	0x00000003
    5120:	006e6970 	rsbeq	r6, lr, r0, ror r9
    5124:	2c223b01 			; <UNDEFINED> instruction: 0x2c223b01
    5128:	00000000 	andeq	r0, r0, r0
    512c:	000c8f13 	andeq	r8, ip, r3, lsl pc
    5130:	06360100 	ldrteq	r0, [r6], -r0, lsl #2
    5134:	0000a4f4 	strdeq	sl, [r0], -r4
    5138:	00000058 	andeq	r0, r0, r8, asr r0
    513c:	04a59c01 	strteq	r9, [r5], #3073	; 0xc01
    5140:	700e0000 	andvc	r0, lr, r0
    5144:	01006e69 	tsteq	r0, r9, ror #28
    5148:	002c1f36 	eoreq	r1, ip, r6, lsr pc
    514c:	31c30000 	biccc	r0, r3, r0
    5150:	31bf0000 			; <UNDEFINED> instruction: 0x31bf0000
    5154:	a5180000 	ldrge	r0, [r8, #-0]
    5158:	f4000004 	vst4.8	{d0-d3}, [r0], r4
    515c:	020000a4 	andeq	r0, r0, #164, 0	; 0xa4
    5160:	000004e0 	andeq	r0, r0, r0, ror #9
    5164:	19053701 	stmdbne	r5, {r0, r8, r9, sl, ip, sp}
    5168:	000004be 			; <UNDEFINED> instruction: 0x000004be
    516c:	04b21501 	ldrteq	r1, [r2], #1281	; 0x501
    5170:	31e80000 	mvncc	r0, r0
    5174:	31e40000 	mvncc	r0, r0
    5178:	e01a0000 	ands	r0, sl, r0
    517c:	1b000004 	blne	5194 <__code_start__-0x2e6c>
    5180:	000004ca 	andeq	r0, r0, sl, asr #9
    5184:	0004d61b 	andeq	sp, r4, fp, lsl r6
    5188:	04e01b00 	strbteq	r1, [r0], #2816	; 0xb00
    518c:	a5180000 	ldrge	r0, [r8, #-0]
    5190:	fc000004 	stc2	0, cr0, [r0], {4}
    5194:	000000a4 	andeq	r0, r0, r4, lsr #1
    5198:	00000500 	andeq	r0, r0, r0, lsl #10
    519c:	19062801 	stmdbne	r6, {r0, fp, sp}
    51a0:	000004be 			; <UNDEFINED> instruction: 0x000004be
    51a4:	04b21501 	ldrteq	r1, [r2], #1281	; 0x501
    51a8:	320d0000 	andcc	r0, sp, #0, 0
    51ac:	32090000 	andcc	r0, r9, #0, 0
    51b0:	001a0000 	andseq	r0, sl, r0
    51b4:	1c000005 	stcne	0, cr0, [r0], {5}
    51b8:	000004ca 	andeq	r0, r0, sl, asr #9
    51bc:	00003232 	andeq	r3, r0, r2, lsr r2
    51c0:	0000322e 	andeq	r3, r0, lr, lsr #4
    51c4:	0004d61c 	andeq	sp, r4, ip, lsl r6
    51c8:	00327e00 	eorseq	r7, r2, r0, lsl #28
    51cc:	00327800 	eorseq	r7, r2, r0, lsl #16
    51d0:	04e01c00 	strbteq	r1, [r0], #3072	; 0xc00
    51d4:	32d40000 	sbcscc	r0, r4, #0, 0
    51d8:	32cc0000 	sbccc	r0, ip, #0, 0
    51dc:	281d0000 	ldmdacs	sp, {}	; <UNPREDICTABLE>
    51e0:	5e0000a5 	cdppl	0, 0, cr0, cr0, cr5, {5}
    51e4:	6d000006 	stcvs	0, cr0, [r0, #-24]	; 0xffffffe8
    51e8:	12000004 	andne	r0, r0, #4, 0
    51ec:	75025001 	strvc	r5, [r2, #-1]
    51f0:	48160000 	ldmdami	r6, {}	; <UNPREDICTABLE>
    51f4:	6a0000a5 	bvs	5490 <__code_start__-0x2b70>
    51f8:	12000006 	andne	r0, r0, #6, 0
    51fc:	f3255001 	vhadd.u32	d5, d5, d1
    5200:	2cf75001 	ldclcs	0, cr5, [r7], #4
    5204:	25f425f7 	ldrbcs	r2, [r4, #1527]!	; 0x5f7
    5208:	cccccd08 	stclgt	13, cr12, [ip], {8}
    520c:	000000cc 	andeq	r0, r0, ip, asr #1
    5210:	20081e00 	andcs	r1, r8, r0, lsl #28
    5214:	f72525f7 			; <UNDEFINED> instruction: 0xf72525f7
    5218:	3300f72c 	movwcc	pc, #1836	; 0x72c	; <UNPREDICTABLE>
    521c:	80802325 	addhi	r2, r0, r5, lsr #6
    5220:	243240a0 	ldrtcs	r4, [r2], #-160	; 0xffffff60
    5224:	00000000 	andeq	r0, r0, r0
    5228:	451e0000 	ldrmi	r0, [lr, #-0]
    522c:	0100000b 	tsteq	r0, fp
    5230:	eb010628 	bl	46ad8 <__bss_end__+0x3b608>
    5234:	1f000004 	svcne	0x00000004
    5238:	006e6970 	rsbeq	r6, lr, r0, ror r9
    523c:	2c212801 	stccs	8, cr2, [r1], #-4
    5240:	20000000 	andcs	r0, r0, r0
    5244:	00000047 	andeq	r0, r0, r7, asr #32
    5248:	0f322801 	svceq	0x00322801
    524c:	21000001 	tstcs	r0, r1
    5250:	0066666f 	rsbeq	r6, r6, pc, ror #12
    5254:	2c0e2d01 	stccs	13, cr2, [lr], {1}
    5258:	21000000 	mrscs	r0, (UNDEF: 0)
    525c:	2e010067 	cdpcs	0, 0, cr0, cr1, cr7, {3}
    5260:	00002c0e 	andeq	r2, r0, lr, lsl #24
    5264:	00762100 	rsbseq	r2, r6, r0, lsl #2
    5268:	2c0e3001 	stccs	0, cr3, [lr], {1}
    526c:	00000000 	andeq	r0, r0, r0
    5270:	000c5222 	andeq	r5, ip, r2, lsr #4
    5274:	18b10200 	ldmne	r1!, {r9}
    5278:	00000069 	andeq	r0, r0, r9, rrx
    527c:	00050703 	andeq	r0, r5, r3, lsl #14
    5280:	00781f00 	rsbseq	r1, r8, r0, lsl #30
    5284:	692bb102 	stmdbvs	fp!, {r1, r8, ip, sp, pc}
    5288:	00000000 	andeq	r0, r0, r0
    528c:	0004a523 	andeq	sl, r4, r3, lsr #10
    5290:	00a49400 	adceq	r9, r4, r0, lsl #8
    5294:	00006000 	andeq	r6, r0, r0
    5298:	e49c0100 	ldr	r0, [ip], #256	; 0x100
    529c:	15000005 	strne	r0, [r0, #-5]
    52a0:	000004b2 			; <UNDEFINED> instruction: 0x000004b2
    52a4:	00003313 	andeq	r3, r0, r3, lsl r3
    52a8:	0000330f 	andeq	r3, r0, pc, lsl #6
    52ac:	0004be15 	andeq	fp, r4, r5, lsl lr
    52b0:	00333800 	eorseq	r3, r3, r0, lsl #16
    52b4:	00333400 	eorseq	r3, r3, r0, lsl #8
    52b8:	04ca1b00 	strbeq	r1, [sl], #2816	; 0xb00
    52bc:	d61b0000 	ldrle	r0, [fp], -r0
    52c0:	1b000004 	blne	52d8 <__code_start__-0x2d28>
    52c4:	000004e0 	andeq	r0, r0, r0, ror #9
    52c8:	0004a518 	andeq	sl, r4, r8, lsl r5
    52cc:	00a49c00 	adceq	r9, r4, r0, lsl #24
    52d0:	04c00000 	strbeq	r0, [r0], #0
    52d4:	28010000 	stmdacs	r1, {}	; <UNPREDICTABLE>
    52d8:	04be1506 	ldrteq	r1, [lr], #1286	; 0x506
    52dc:	335d0000 	cmpcc	sp, #0, 0
    52e0:	33590000 	cmpcc	r9, #0, 0
    52e4:	b2150000 	andslt	r0, r5, #0, 0
    52e8:	82000004 	andhi	r0, r0, #4, 0
    52ec:	7e000033 	mcrvc	0, 0, r0, cr0, cr3, {1}
    52f0:	1a000033 	bne	53c4 <__code_start__-0x2c3c>
    52f4:	000004c0 	andeq	r0, r0, r0, asr #9
    52f8:	0004ca1c 	andeq	ip, r4, ip, lsl sl
    52fc:	0033a700 	eorseq	sl, r3, r0, lsl #14
    5300:	0033a300 	eorseq	sl, r3, r0, lsl #6
    5304:	04d61c00 	ldrbeq	r1, [r6], #3072	; 0xc00
    5308:	33f30000 	mvnscc	r0, #0, 0
    530c:	33ed0000 	mvncc	r0, #0, 0
    5310:	e01c0000 	ands	r0, ip, r0
    5314:	49000004 	stmdbmi	r0, {r2}
    5318:	41000034 	tstmi	r0, r4, lsr r0
    531c:	1d000034 	stcne	0, cr0, [r0, #-208]	; 0xffffff30
    5320:	0000a4d4 	ldrdeq	sl, [r0], -r4
    5324:	0000065e 	andeq	r0, r0, lr, asr r6
    5328:	000005ae 	andeq	r0, r0, lr, lsr #11
    532c:	02500112 	subseq	r0, r0, #-2147483644	; 0x80000004
    5330:	16000076 			; <UNDEFINED> instruction: 0x16000076
    5334:	0000a4f0 	strdeq	sl, [r0], -r0
    5338:	0000066a 	andeq	r0, r0, sl, ror #12
    533c:	25500112 	ldrbcs	r0, [r0, #-274]	; 0xfffffeee
    5340:	f75001f3 			; <UNDEFINED> instruction: 0xf75001f3
    5344:	f425f72c 	vld1.8	{d15}, [r5 :128], ip
    5348:	cccd0825 	stclgt	8, cr0, [sp], {37}	; 0x25
    534c:	0000cccc 	andeq	ip, r0, ip, asr #25
    5350:	081e0000 	ldmdaeq	lr, {}	; <UNPREDICTABLE>
    5354:	2525f720 	strcs	pc, [r5, #-1824]!	; 0xfffff8e0
    5358:	00f72cf7 	ldrshteq	r2, [r7], #199	; 0xc7
    535c:	80232533 	eorhi	r2, r3, r3, lsr r5
    5360:	3240a080 	subcc	sl, r0, #128, 0	; 0x80
    5364:	00000024 	andeq	r0, r0, r4, lsr #32
    5368:	038d2300 	orreq	r2, sp, #0, 6
    536c:	a54c0000 	strbge	r0, [ip, #-0]
    5370:	00180000 	andseq	r0, r8, r0
    5374:	9c010000 	stcls	0, cr0, [r1], {-0}
    5378:	00000621 	andeq	r0, r0, r1, lsr #12
    537c:	00039a15 	andeq	r9, r3, r5, lsl sl
    5380:	00349f00 	eorseq	r9, r4, r0, lsl #30
    5384:	00349900 	eorseq	r9, r4, r0, lsl #18
    5388:	a5601600 	strbge	r1, [r0, #-1536]!	; 0xfffffa00
    538c:	066a0000 	strbteq	r0, [sl], -r0
    5390:	01120000 	tsteq	r2, r0
    5394:	1c0c0550 	cfstr32ne	mvfx0, [ip], {80}	; 0x50
    5398:	12202000 	eorne	r2, r0, #0, 0
    539c:	31055101 	tstcc	r5, r1, lsl #2
    53a0:	245001f3 	ldrbcs	r0, [r0], #-499	; 0xfffffe0d
    53a4:	73230000 			; <UNDEFINED> instruction: 0x73230000
    53a8:	64000003 	strvs	r0, [r0], #-3
    53ac:	180000a5 	stmdane	r0, {r0, r2, r5, r7}
    53b0:	01000000 	mrseq	r0, (UNDEF: 0)
    53b4:	00065e9c 	muleq	r6, ip, lr
    53b8:	03801500 	orreq	r1, r0, #0, 10
    53bc:	34d10000 	ldrbcc	r0, [r1], #0
    53c0:	34cb0000 	strbcc	r0, [fp], #0
    53c4:	78160000 	ldmdavc	r6, {}	; <UNPREDICTABLE>
    53c8:	6a0000a5 	bvs	5664 <__code_start__-0x299c>
    53cc:	12000006 	andne	r0, r0, #6, 0
    53d0:	0c055001 	stceq	0, cr5, [r5], {1}
    53d4:	20200028 	eorcs	r0, r0, r8, lsr #32
    53d8:	05510112 	ldrbeq	r0, [r1, #-274]	; 0xfffffeee
    53dc:	5001f331 	andpl	pc, r1, r1, lsr r3	; <UNPREDICTABLE>
    53e0:	24000024 	strcs	r0, [r0], #-36	; 0xffffffdc
    53e4:	0000091a 	andeq	r0, r0, sl, lsl r9
    53e8:	0000091a 	andeq	r0, r0, sl, lsl r9
    53ec:	240ac202 	strcs	ip, [sl], #-514	; 0xfffffdfe
    53f0:	00000886 	andeq	r0, r0, r6, lsl #17
    53f4:	00000886 	andeq	r0, r0, r6, lsl #17
    53f8:	0006ad02 	andeq	sl, r6, r2, lsl #26
    53fc:	00000149 	andeq	r0, r0, r9, asr #2
    5400:	1d200004 	stcne	0, cr0, [r0, #-16]!
    5404:	01040000 	mrseq	r0, (UNDEF: 4)
    5408:	00000560 	andeq	r0, r0, r0, ror #10
    540c:	000ce40c 	andeq	lr, ip, ip, lsl #8
    5410:	00062600 	andeq	r2, r6, r0, lsl #12
    5414:	00a62c00 	adceq	r2, r6, r0, lsl #24
    5418:	00003c00 	andeq	r3, r0, r0, lsl #24
    541c:	0029d700 	eoreq	sp, r9, r0, lsl #14
    5420:	05040200 	streq	r0, [r4, #-512]	; 0xfffffe00
    5424:	00746e69 	rsbseq	r6, r4, r9, ror #28
    5428:	82070403 	andhi	r0, r7, #50331648	; 0x3000000
    542c:	03000001 	movweq	r0, #1
    5430:	00830601 	addeq	r0, r3, r1, lsl #12
    5434:	02030000 	andeq	r0, r3, #0, 0
    5438:	00001d05 	andeq	r1, r0, r5, lsl #26
    543c:	05040300 	streq	r0, [r4, #-768]	; 0xfffffd00
    5440:	00000051 	andeq	r0, r0, r1, asr r0
    5444:	4c050803 	stcmi	8, cr0, [r5], {3}
    5448:	03000000 	movweq	r0, #0
    544c:	00810801 	addeq	r0, r1, r1, lsl #16
    5450:	02030000 	andeq	r0, r3, #0, 0
    5454:	00019707 	andeq	r9, r1, r7, lsl #14
    5458:	07040300 	streq	r0, [r4, -r0, lsl #6]
    545c:	0000017d 	andeq	r0, r0, sp, ror r1
    5460:	78070803 	stmdavc	r7, {r0, r1, fp}
    5464:	04000001 	streq	r0, [r0], #-1
    5468:	00000025 	andeq	r0, r0, r5, lsr #32
    546c:	0000007a 	andeq	r0, r0, sl, ror r0
    5470:	00002505 	andeq	r2, r0, r5, lsl #10
    5474:	27060000 	strcs	r0, [r6, -r0]
    5478:	02000000 	andeq	r0, r0, #0, 0
    547c:	00860e1c 	addeq	r0, r6, ip, lsl lr
    5480:	04070000 	streq	r0, [r7], #-0
    5484:	0000006b 	andeq	r0, r0, fp, rrx
    5488:	00002504 	andeq	r2, r0, r4, lsl #10
    548c:	00009b00 	andeq	r9, r0, r0, lsl #22
    5490:	009b0500 	addseq	r0, fp, r0, lsl #10
    5494:	07000000 	streq	r0, [r0, -r0]
    5498:	0000a804 	andeq	sl, r0, r4, lsl #16
    549c:	08010300 	stmdaeq	r1, {r8, r9}
    54a0:	0000008a 	andeq	r0, r0, sl, lsl #1
    54a4:	0000a108 	andeq	sl, r0, r8, lsl #2
    54a8:	06c60600 	strbeq	r0, [r6], r0, lsl #12
    54ac:	21020000 	mrscs	r0, (UNDEF: 2)
    54b0:	0000b90e 	andeq	fp, r0, lr, lsl #18
    54b4:	8c040700 	stchi	7, cr0, [r4], {-0}
    54b8:	09000000 	stmdbeq	r0, {}	; <UNPREDICTABLE>
    54bc:	0000007a 	andeq	r0, r0, sl, ror r0
    54c0:	05070601 	streq	r0, [r7, #-1537]	; 0xfffff9ff
    54c4:	00b09c03 	adcseq	r9, r0, r3, lsl #24
    54c8:	0cd70a00 	vldmiaeq	r7, {s1-s0}
    54cc:	0b010000 	bleq	454d4 <__bss_end__+0x3a004>
    54d0:	00a65806 	adceq	r5, r6, r6, lsl #16
    54d4:	00001000 	andeq	r1, r0, r0
    54d8:	f19c0100 			; <UNDEFINED> instruction: 0xf19c0100
    54dc:	0b000000 	bleq	54e4 <__code_start__-0x2b1c>
    54e0:	01007066 	tsteq	r0, r6, rrx
    54e4:	0086190b 	addeq	r1, r6, fp, lsl #18
    54e8:	50010000 	andpl	r0, r1, r0
    54ec:	0c140c00 	ldceq	12, cr0, [r4], {-0}
    54f0:	08010000 	stmdaeq	r1, {}	; <UNPREDICTABLE>
    54f4:	00a64006 	adceq	r4, r6, r6
    54f8:	00001800 	andeq	r1, r0, r0, lsl #16
    54fc:	0d9c0100 	ldfeqs	f0, [ip]
    5500:	00000cc6 	andeq	r0, r0, r6, asr #25
    5504:	250c0301 	strcs	r0, [ip, #-769]	; 0xfffffcff
    5508:	2c000000 	stccs	0, cr0, [r0], {-0}
    550c:	140000a6 	strne	r0, [r0], #-166	; 0xffffff5a
    5510:	01000000 	mrseq	r0, (UNDEF: 0)
    5514:	0001409c 	muleq	r1, ip, r0
    5518:	00630e00 	rsbeq	r0, r3, r0, lsl #28
    551c:	25210301 	strcs	r0, [r1, #-769]!	; 0xfffffcff
    5520:	01000000 	mrseq	r0, (UNDEF: 0)
    5524:	fd000035 	stc2	0, cr0, [r0, #-212]	; 0xffffff2c
    5528:	0f000034 	svceq	0x00000034
    552c:	0000a638 	andeq	sl, r0, r8, lsr r6
    5530:	00000140 	andeq	r0, r0, r0, asr #2
    5534:	02500110 	subseq	r0, r0, #4
    5538:	00000074 	andeq	r0, r0, r4, ror r0
    553c:	000b2b11 	andeq	r2, fp, r1, lsl fp
    5540:	000b2b00 	andeq	r2, fp, r0, lsl #22
    5544:	06420200 	strbeq	r0, [r2], -r0, lsl #4
    5548:	00013700 	andeq	r3, r1, r0, lsl #14
    554c:	2f000400 	svccs	0x00000400
    5550:	0400001e 	streq	r0, [r0], #-30	; 0xffffffe2
    5554:	00056001 	andeq	r6, r5, r1
    5558:	0cf50c00 	ldcleq	12, cr0, [r5]
    555c:	06260000 	strteq	r0, [r6], -r0
    5560:	a6680000 	strbtge	r0, [r8], -r0
    5564:	002c0000 	eoreq	r0, ip, r0
    5568:	2a790000 	bcs	1e45570 <__bss_end__+0x1e3a0a0>
    556c:	04020000 	streq	r0, [r2], #-0
    5570:	746e6905 	strbtvc	r6, [lr], #-2309	; 0xfffff6fb
    5574:	07040300 	streq	r0, [r4, -r0, lsl #6]
    5578:	00000182 	andeq	r0, r0, r2, lsl #3
    557c:	83060103 	movwhi	r0, #24835	; 0x6103
    5580:	03000000 	movweq	r0, #0
    5584:	001d0502 	andseq	r0, sp, r2, lsl #10
    5588:	04030000 	streq	r0, [r3], #-0
    558c:	00005105 	andeq	r5, r0, r5, lsl #2
    5590:	05080300 	streq	r0, [r8, #-768]	; 0xfffffd00
    5594:	0000004c 	andeq	r0, r0, ip, asr #32
    5598:	81080103 	tsthi	r8, r3, lsl #2
    559c:	03000000 	movweq	r0, #0
    55a0:	01970702 	orrseq	r0, r7, r2, lsl #14
    55a4:	04030000 	streq	r0, [r3], #-0
    55a8:	00017d07 	andeq	r7, r1, r7, lsl #26
    55ac:	07080300 	streq	r0, [r8, -r0, lsl #6]
    55b0:	00000178 	andeq	r0, r0, r8, ror r1
    55b4:	00002504 	andeq	r2, r0, r4, lsl #10
    55b8:	00007a00 	andeq	r7, r0, r0, lsl #20
    55bc:	00250500 	eoreq	r0, r5, r0, lsl #10
    55c0:	06000000 	streq	r0, [r0], -r0
    55c4:	00000027 	andeq	r0, r0, r7, lsr #32
    55c8:	860e1c02 	strhi	r1, [lr], -r2, lsl #24
    55cc:	07000000 	streq	r0, [r0, -r0]
    55d0:	00006b04 	andeq	r6, r0, r4, lsl #22
    55d4:	00250400 	eoreq	r0, r5, r0, lsl #8
    55d8:	009b0000 	addseq	r0, fp, r0
    55dc:	9b050000 	blls	1455e4 <__bss_end__+0x13a114>
    55e0:	00000000 	andeq	r0, r0, r0
    55e4:	00a80407 	adceq	r0, r8, r7, lsl #8
    55e8:	01030000 	mrseq	r0, (UNDEF: 3)
    55ec:	00008a08 	andeq	r8, r0, r8, lsl #20
    55f0:	00a10800 	adceq	r0, r1, r0, lsl #16
    55f4:	c6060000 	strgt	r0, [r6], -r0
    55f8:	02000006 	andeq	r0, r0, #6, 0
    55fc:	00b90e21 	adcseq	r0, r9, r1, lsr #28
    5600:	04070000 	streq	r0, [r7], #-0
    5604:	0000008c 	andeq	r0, r0, ip, lsl #1
    5608:	00076409 	andeq	r6, r7, r9, lsl #8
    560c:	07040100 	streq	r0, [r4, -r0, lsl #2]
    5610:	00000134 	andeq	r0, r0, r4, lsr r1
    5614:	0000a668 	andeq	sl, r0, r8, ror #12
    5618:	0000002c 	andeq	r0, r0, ip, lsr #32
    561c:	01349c01 	teqeq	r4, r1, lsl #24
    5620:	050a0000 	streq	r0, [sl, #-0]
    5624:	0100000d 	tsteq	r0, sp
    5628:	01341504 	teqeq	r4, r4, lsl #10
    562c:	50010000 	andpl	r0, r1, r0
    5630:	6372730b 	cmnvs	r2, #738197504	; 0x2c000000
    5634:	27040100 	strcs	r0, [r4, -r0, lsl #2]
    5638:	0000009b 	muleq	r0, fp, r0
    563c:	00003523 	andeq	r3, r0, r3, lsr #10
    5640:	0000351f 	andeq	r3, r0, pc, lsl r5
    5644:	0031730c 	eorseq	r7, r1, ip, lsl #6
    5648:	340b0501 	strcc	r0, [fp], #-1281	; 0xfffffaff
    564c:	52000001 	andpl	r0, r0, #1, 0
    5650:	44000035 	strmi	r0, [r0], #-53	; 0xffffffcb
    5654:	0c000035 	stceq	0, cr0, [r0], {53}	; 0x35
    5658:	01003273 	tsteq	r0, r3, ror r2
    565c:	009b1106 	addseq	r1, fp, r6, lsl #2
    5660:	35b10000 	ldrcc	r0, [r1, #0]!
    5664:	35ab0000 	strcc	r0, [fp, #0]!
    5668:	630c0000 	movwvs	r0, #49152	; 0xc000
    566c:	0a070100 	beq	1c5a74 <__bss_end__+0x1ba5a4>
    5670:	000000a1 	andeq	r0, r0, r1, lsr #1
    5674:	000035e2 	andeq	r3, r0, r2, ror #11
    5678:	000035dc 	ldrdeq	r3, [r0], -ip
    567c:	a1040700 	tstge	r4, r0, lsl #14
    5680:	00000000 	andeq	r0, r0, r0
    5684:	000000f7 	strdeq	r0, [r0], -r7
    5688:	1ee50004 	cdpne	0, 14, cr0, cr5, cr4, {0}
    568c:	01040000 	mrseq	r0, (UNDEF: 4)
    5690:	00000560 	andeq	r0, r0, r0, ror #10
    5694:	000d0a0c 	andeq	r0, sp, ip, lsl #20
    5698:	00062600 	andeq	r2, r6, r0, lsl #12
    569c:	00a69400 	adceq	r9, r6, r0, lsl #8
    56a0:	00004400 	andeq	r4, r0, r0, lsl #8
    56a4:	002b5f00 	eoreq	r5, fp, r0, lsl #30
    56a8:	05040200 	streq	r0, [r4, #-512]	; 0xfffffe00
    56ac:	00746e69 	rsbseq	r6, r4, r9, ror #28
    56b0:	82070403 	andhi	r0, r7, #50331648	; 0x3000000
    56b4:	03000001 	movweq	r0, #1
    56b8:	00830601 	addeq	r0, r3, r1, lsl #12
    56bc:	02030000 	andeq	r0, r3, #0, 0
    56c0:	00001d05 	andeq	r1, r0, r5, lsl #26
    56c4:	05040300 	streq	r0, [r4, #-768]	; 0xfffffd00
    56c8:	00000051 	andeq	r0, r0, r1, asr r0
    56cc:	4c050803 	stcmi	8, cr0, [r5], {3}
    56d0:	03000000 	movweq	r0, #0
    56d4:	00810801 	addeq	r0, r1, r1, lsl #16
    56d8:	02030000 	andeq	r0, r3, #0, 0
    56dc:	00019707 	andeq	r9, r1, r7, lsl #14
    56e0:	07040300 	streq	r0, [r4, -r0, lsl #6]
    56e4:	0000017d 	andeq	r0, r0, sp, ror r1
    56e8:	78070803 	stmdavc	r7, {r0, r1, fp}
    56ec:	04000001 	streq	r0, [r0], #-1
    56f0:	00000025 	andeq	r0, r0, r5, lsr #32
    56f4:	0000007a 	andeq	r0, r0, sl, ror r0
    56f8:	00002505 	andeq	r2, r0, r5, lsl #10
    56fc:	27060000 	strcs	r0, [r6, -r0]
    5700:	02000000 	andeq	r0, r0, #0, 0
    5704:	00860e1c 	addeq	r0, r6, ip, lsl lr
    5708:	04070000 	streq	r0, [r7], #-0
    570c:	0000006b 	andeq	r0, r0, fp, rrx
    5710:	00002504 	andeq	r2, r0, r4, lsl #10
    5714:	00009b00 	andeq	r9, r0, r0, lsl #22
    5718:	009b0500 	addseq	r0, fp, r0, lsl #10
    571c:	07000000 	streq	r0, [r0, -r0]
    5720:	0000a804 	andeq	sl, r0, r4, lsl #16
    5724:	08010300 	stmdaeq	r1, {r8, r9}
    5728:	0000008a 	andeq	r0, r0, sl, lsl #1
    572c:	0000a108 	andeq	sl, r0, r8, lsl #2
    5730:	06c60600 	strbeq	r0, [r6], r0, lsl #12
    5734:	21020000 	mrscs	r0, (UNDEF: 2)
    5738:	0000b90e 	andeq	fp, r0, lr, lsl #18
    573c:	8c040700 	stchi	7, cr0, [r4], {-0}
    5740:	09000000 	stmdbeq	r0, {}	; <UNPREDICTABLE>
    5744:	00000792 	muleq	r0, r2, r7
    5748:	25050301 	strcs	r0, [r5, #-769]	; 0xfffffcff
    574c:	94000000 	strls	r0, [r0], #-0
    5750:	440000a6 	strmi	r0, [r0], #-166	; 0xffffff5a
    5754:	01000000 	mrseq	r0, (UNDEF: 0)
    5758:	00610a9c 	mlseq	r1, ip, sl, r0
    575c:	9b180301 	blls	606368 <__bss_end__+0x5fae98>
    5760:	19000000 	stmdbne	r0, {}	; <UNPREDICTABLE>
    5764:	0d000036 	stceq	0, cr0, [r0, #-216]	; 0xffffff28
    5768:	0a000036 	beq	5848 <__code_start__-0x27b8>
    576c:	03010062 	movweq	r0, #4194	; 0x1062
    5770:	00009b27 	andeq	r9, r0, r7, lsr #22
    5774:	00366d00 	eorseq	r6, r6, r0, lsl #26
    5778:	00366700 	eorseq	r6, r6, r0, lsl #14
    577c:	0f000000 	svceq	0x00000000
    5780:	04000001 	streq	r0, [r0], #-1
    5784:	001f7400 	andseq	r7, pc, r0, lsl #8
    5788:	60010400 	andvs	r0, r1, r0, lsl #8
    578c:	0c000005 	stceq	0, cr0, [r0], {5}
    5790:	00000d1a 	andeq	r0, r0, sl, lsl sp
    5794:	00000626 	andeq	r0, r0, r6, lsr #12
    5798:	0000a6d8 	ldrdeq	sl, [r0], -r8
    579c:	00000018 	andeq	r0, r0, r8, lsl r0
    57a0:	00002c15 	andeq	r2, r0, r5, lsl ip
    57a4:	69050402 	stmdbvs	r5, {r1, sl}
    57a8:	0300746e 	movweq	r7, #1134	; 0x46e
    57ac:	01820704 	orreq	r0, r2, r4, lsl #14
    57b0:	01030000 	mrseq	r0, (UNDEF: 3)
    57b4:	00008306 	andeq	r8, r0, r6, lsl #6
    57b8:	05020300 	streq	r0, [r2, #-768]	; 0xfffffd00
    57bc:	0000001d 	andeq	r0, r0, sp, lsl r0
    57c0:	51050403 	tstpl	r5, r3, lsl #8
    57c4:	03000000 	movweq	r0, #0
    57c8:	004c0508 	subeq	r0, ip, r8, lsl #10
    57cc:	01030000 	mrseq	r0, (UNDEF: 3)
    57d0:	00008108 	andeq	r8, r0, r8, lsl #2
    57d4:	07020300 	streq	r0, [r2, -r0, lsl #6]
    57d8:	00000197 	muleq	r0, r7, r1
    57dc:	7d070403 	cfstrsvc	mvf0, [r7, #-12]
    57e0:	03000001 	movweq	r0, #1
    57e4:	01780708 	cmneq	r8, r8, lsl #14
    57e8:	25040000 	strcs	r0, [r4, #-0]
    57ec:	7a000000 	bvc	57f4 <__code_start__-0x280c>
    57f0:	05000000 	streq	r0, [r0, #-0]
    57f4:	00000025 	andeq	r0, r0, r5, lsr #32
    57f8:	00270600 	eoreq	r0, r7, r0, lsl #12
    57fc:	1c020000 	stcne	0, cr0, [r2], {-0}
    5800:	0000860e 	andeq	r8, r0, lr, lsl #12
    5804:	6b040700 	blvs	10740c <__bss_end__+0xfbf3c>
    5808:	04000000 	streq	r0, [r0], #-0
    580c:	00000025 	andeq	r0, r0, r5, lsr #32
    5810:	0000009b 	muleq	r0, fp, r0
    5814:	00009b05 	andeq	r9, r0, r5, lsl #22
    5818:	04070000 	streq	r0, [r7], #-0
    581c:	000000a8 	andeq	r0, r0, r8, lsr #1
    5820:	8a080103 	bhi	205c34 <__bss_end__+0x1fa764>
    5824:	08000000 	stmdaeq	r0, {}	; <UNPREDICTABLE>
    5828:	000000a1 	andeq	r0, r0, r1, lsr #1
    582c:	0006c606 	andeq	ip, r6, r6, lsl #12
    5830:	0e210200 	cdpeq	2, 2, cr0, cr1, cr0, {0}
    5834:	000000b9 	strheq	r0, [r0], -r9
    5838:	008c0407 	addeq	r0, ip, r7, lsl #8
    583c:	6b090000 	blvs	245844 <__bss_end__+0x23a374>
    5840:	01000007 	tsteq	r0, r7
    5844:	010c0703 	tsteq	ip, r3, lsl #14
    5848:	a6d80000 	ldrbge	r0, [r8], r0
    584c:	00180000 	andseq	r0, r8, r0
    5850:	9c010000 	stcls	0, cr0, [r1], {-0}
    5854:	0000010c 	andeq	r0, r0, ip, lsl #2
    5858:	0031730a 	eorseq	r7, r1, sl, lsl #6
    585c:	0c150301 	ldceq	3, cr0, [r5], {1}
    5860:	01000001 	tsteq	r0, r1
    5864:	32730b50 	rsbscc	r0, r3, #80, 22	; 0x14000
    5868:	26030100 	strcs	r0, [r3], -r0, lsl #2
    586c:	0000009b 	muleq	r0, fp, r0
    5870:	0000369c 	muleq	r0, ip, r6
    5874:	00003696 	muleq	r0, r6, r6
    5878:	0100730c 	tsteq	r0, ip, lsl #6
    587c:	010c1404 	tsteq	ip, r4, lsl #8
    5880:	36c90000 	strbcc	r0, [r9], r0
    5884:	36c70000 	strbcc	r0, [r7], r0
    5888:	07000000 	streq	r0, [r0, -r0]
    588c:	0000a104 	andeq	sl, r0, r4, lsl #2
    5890:	014e0000 	mrseq	r0, (UNDEF: 78)
    5894:	00040000 	andeq	r0, r4, r0
    5898:	0000202a 	andeq	r2, r0, sl, lsr #32
    589c:	05600104 	strbeq	r0, [r0, #-260]!	; 0xfffffefc
    58a0:	2a0c0000 	bcs	3058a8 <__bss_end__+0x2fa3d8>
    58a4:	2600000d 	strcs	r0, [r0], -sp
    58a8:	f0000006 			; <UNDEFINED> instruction: 0xf0000006
    58ac:	300000a6 	andcc	r0, r0, r6, lsr #1
    58b0:	b6000000 	strlt	r0, [r0], -r0
    58b4:	0200002c 	andeq	r0, r0, #44, 0	; 0x2c
    58b8:	6e690504 	cdpvs	5, 6, cr0, cr9, cr4, {0}
    58bc:	69030074 	stmdbvs	r3, {r2, r4, r5, r6}
    58c0:	03000006 	movweq	r0, #6
    58c4:	003817d1 	ldrsbteq	r1, [r8], -r1
    58c8:	04040000 	streq	r0, [r4], #-0
    58cc:	00018207 	andeq	r8, r1, r7, lsl #4
    58d0:	06010400 	streq	r0, [r1], -r0, lsl #8
    58d4:	00000083 	andeq	r0, r0, r3, lsl #1
    58d8:	1d050204 	sfmne	f0, 4, [r5, #-16]
    58dc:	04000000 	streq	r0, [r0], #-0
    58e0:	00510504 	subseq	r0, r1, r4, lsl #10
    58e4:	08040000 	stmdaeq	r4, {}	; <UNPREDICTABLE>
    58e8:	00004c05 	andeq	r4, r0, r5, lsl #24
    58ec:	08010400 	stmdaeq	r1, {sl}
    58f0:	00000081 	andeq	r0, r0, r1, lsl #1
    58f4:	00005b05 	andeq	r5, r0, r5, lsl #22
    58f8:	07020400 	streq	r0, [r2, -r0, lsl #8]
    58fc:	00000197 	muleq	r0, r7, r1
    5900:	7d070404 	cfstrsvc	mvf0, [r7, #-16]
    5904:	04000001 	streq	r0, [r0], #-1
    5908:	01780708 	cmneq	r8, r8, lsl #14
    590c:	25060000 	strcs	r0, [r6, #-0]
    5910:	8b000000 	blhi	5918 <__code_start__-0x26e8>
    5914:	07000000 	streq	r0, [r0, -r0]
    5918:	00000025 	andeq	r0, r0, r5, lsr #32
    591c:	00270800 	eoreq	r0, r7, r0, lsl #16
    5920:	1c020000 	stcne	0, cr0, [r2], {-0}
    5924:	0000970e 	andeq	r9, r0, lr, lsl #14
    5928:	7c040900 			; <UNDEFINED> instruction: 0x7c040900
    592c:	06000000 	streq	r0, [r0], -r0
    5930:	00000025 	andeq	r0, r0, r5, lsr #32
    5934:	000000ac 	andeq	r0, r0, ip, lsr #1
    5938:	0000ac07 	andeq	sl, r0, r7, lsl #24
    593c:	04090000 	streq	r0, [r9], #-0
    5940:	000000b9 	strheq	r0, [r0], -r9
    5944:	8a080104 	bhi	205d5c <__bss_end__+0x1fa88c>
    5948:	05000000 	streq	r0, [r0, #-0]
    594c:	000000b2 	strheq	r0, [r0], -r2
    5950:	0006c608 	andeq	ip, r6, r8, lsl #12
    5954:	0e210200 	cdpeq	2, 2, cr0, cr1, cr0, {0}
    5958:	000000ca 	andeq	r0, r0, sl, asr #1
    595c:	009d0409 	addseq	r0, sp, r9, lsl #8
    5960:	b30a0000 	movwlt	r0, #40960	; 0xa000
    5964:	01000007 	tsteq	r0, r7
    5968:	00250504 	eoreq	r0, r5, r4, lsl #10
    596c:	a6f00000 	ldrbtge	r0, [r0], r0
    5970:	00300000 	eorseq	r0, r0, r0
    5974:	9c010000 	stcls	0, cr0, [r1], {-0}
    5978:	0000014b 	andeq	r0, r0, fp, asr #2
    597c:	31735f0b 	cmncc	r3, fp, lsl #30
    5980:	19040100 	stmdbne	r4, {r8}
    5984:	000000ac 	andeq	r0, r0, ip, lsr #1
    5988:	000036e0 	andeq	r3, r0, r0, ror #13
    598c:	000036dc 	ldrdeq	r3, [r0], -ip
    5990:	32735f0b 	rsbscc	r5, r3, #11, 30	; 0x2c
    5994:	2a040100 	bcs	105d9c <__bss_end__+0xfa8cc>
    5998:	000000ac 	andeq	r0, r0, ip, lsr #1
    599c:	00003705 	andeq	r3, r0, r5, lsl #14
    59a0:	00003701 	andeq	r3, r0, r1, lsl #14
    59a4:	01006e0b 	tsteq	r0, fp, lsl #28
    59a8:	002c3604 	eoreq	r3, ip, r4, lsl #12
    59ac:	37300000 	ldrcc	r0, [r0, -r0]!
    59b0:	37260000 	strcc	r0, [r6, -r0]!
    59b4:	730c0000 	movwvc	r0, #49152	; 0xc000
    59b8:	05010031 	streq	r0, [r1, #-49]	; 0xffffffcf
    59bc:	00014b1a 	andeq	r4, r1, sl, lsl fp
    59c0:	00378700 	eorseq	r8, r7, r0, lsl #14
    59c4:	00377f00 	eorseq	r7, r7, r0, lsl #30
    59c8:	32730c00 	rsbscc	r0, r3, #0, 24
    59cc:	2c050100 	stfcss	f0, [r5], {-0}
    59d0:	0000014b 	andeq	r0, r0, fp, asr #2
    59d4:	000037c5 	andeq	r3, r0, r5, asr #15
    59d8:	000037bf 			; <UNDEFINED> instruction: 0x000037bf
    59dc:	62040900 	andvs	r0, r4, #0, 18
    59e0:	00000000 	andeq	r0, r0, r0
    59e4:	000000ce 	andeq	r0, r0, lr, asr #1
    59e8:	20de0004 	sbcscs	r0, lr, r4
    59ec:	01040000 	mrseq	r0, (UNDEF: 4)
    59f0:	00000560 	andeq	r0, r0, r0, ror #10
    59f4:	000d3b0c 	andeq	r3, sp, ip, lsl #22
    59f8:	00062600 	andeq	r2, r6, r0, lsl #12
    59fc:	00a72000 	adceq	r2, r7, r0
    5a00:	00000400 	andeq	r0, r0, r0, lsl #8
    5a04:	002db700 	eoreq	fp, sp, r0, lsl #14
    5a08:	05040200 	streq	r0, [r4, #-512]	; 0xfffffe00
    5a0c:	00746e69 	rsbseq	r6, r4, r9, ror #28
    5a10:	82070403 	andhi	r0, r7, #50331648	; 0x3000000
    5a14:	03000001 	movweq	r0, #1
    5a18:	00830601 	addeq	r0, r3, r1, lsl #12
    5a1c:	02030000 	andeq	r0, r3, #0, 0
    5a20:	00001d05 	andeq	r1, r0, r5, lsl #26
    5a24:	05040300 	streq	r0, [r4, #-768]	; 0xfffffd00
    5a28:	00000051 	andeq	r0, r0, r1, asr r0
    5a2c:	4c050803 	stcmi	8, cr0, [r5], {3}
    5a30:	03000000 	movweq	r0, #0
    5a34:	00810801 	addeq	r0, r1, r1, lsl #16
    5a38:	02030000 	andeq	r0, r3, #0, 0
    5a3c:	00019707 	andeq	r9, r1, r7, lsl #14
    5a40:	07040300 	streq	r0, [r4, -r0, lsl #6]
    5a44:	0000017d 	andeq	r0, r0, sp, ror r1
    5a48:	78070803 	stmdavc	r7, {r0, r1, fp}
    5a4c:	04000001 	streq	r0, [r0], #-1
    5a50:	00000025 	andeq	r0, r0, r5, lsr #32
    5a54:	0000007a 	andeq	r0, r0, sl, ror r0
    5a58:	00002505 	andeq	r2, r0, r5, lsl #10
    5a5c:	27060000 	strcs	r0, [r6, -r0]
    5a60:	02000000 	andeq	r0, r0, #0, 0
    5a64:	00860e1c 	addeq	r0, r6, ip, lsl lr
    5a68:	04070000 	streq	r0, [r7], #-0
    5a6c:	0000006b 	andeq	r0, r0, fp, rrx
    5a70:	00002504 	andeq	r2, r0, r4, lsl #10
    5a74:	00009b00 	andeq	r9, r0, r0, lsl #22
    5a78:	009b0500 	addseq	r0, fp, r0, lsl #10
    5a7c:	07000000 	streq	r0, [r0, -r0]
    5a80:	0000a804 	andeq	sl, r0, r4, lsl #16
    5a84:	08010300 	stmdaeq	r1, {r8, r9}
    5a88:	0000008a 	andeq	r0, r0, sl, lsl #1
    5a8c:	0000a108 	andeq	sl, r0, r8, lsl #2
    5a90:	06c60600 	strbeq	r0, [r6], r0, lsl #12
    5a94:	21020000 	mrscs	r0, (UNDEF: 2)
    5a98:	0000b90e 	andeq	fp, r0, lr, lsl #18
    5a9c:	8c040700 	stchi	7, cr0, [r4], {-0}
    5aa0:	09000000 	stmdbeq	r0, {}	; <UNPREDICTABLE>
    5aa4:	0000086f 	andeq	r0, r0, pc, ror #16
    5aa8:	20060301 	andcs	r0, r6, r1, lsl #6
    5aac:	040000a7 	streq	r0, [r0], #-167	; 0xffffff59
    5ab0:	01000000 	mrseq	r0, (UNDEF: 0)
    5ab4:	Address 0x0000000000005ab4 is out of bounds.


Disassembly of section .debug_abbrev:

00000000 <.debug_abbrev>:
       0:	25011101 	strcs	r1, [r1, #-257]	; 0xfffffeff
       4:	030b130e 	movweq	r1, #45838	; 0xb30e
       8:	110e1b0e 	tstne	lr, lr, lsl #22
       c:	10061201 	andne	r1, r6, r1, lsl #4
      10:	02000017 	andeq	r0, r0, #23, 0
      14:	0b0b0024 	bleq	2c00ac <__bss_end__+0x2b4bdc>
      18:	0e030b3e 	vmoveq.16	d3[0], r0
      1c:	24030000 	strcs	r0, [r3], #-0
      20:	3e0b0b00 	vmlacc.f64	d0, d11, d0
      24:	0008030b 	andeq	r0, r8, fp, lsl #6
      28:	01150400 	tsteq	r5, r0, lsl #8
      2c:	13491927 	movtne	r1, #39207	; 0x9927
      30:	00001301 	andeq	r1, r0, r1, lsl #6
      34:	49000505 	stmdbmi	r0, {r0, r2, r8, sl}
      38:	06000013 			; <UNDEFINED> instruction: 0x06000013
      3c:	0e030034 	mcreq	0, 0, r0, cr3, cr4, {1}
      40:	0b3b0b3a 	bleq	ec2d30 <__bss_end__+0xeb7860>
      44:	13490b39 	movtne	r0, #39737	; 0x9b39
      48:	193c193f 	ldmdbne	ip!, {r0, r1, r2, r3, r4, r5, r8, fp, ip}
      4c:	0f070000 	svceq	0x00070000
      50:	490b0b00 	stmdbmi	fp, {r8, r9, fp}
      54:	08000013 	stmdaeq	r0, {r0, r1, r4}
      58:	13490026 	movtne	r0, #36902	; 0x9026
      5c:	13090000 	movwne	r0, #36864	; 0x9000
      60:	3a0b0b01 	bcc	2c2c6c <__bss_end__+0x2b779c>
      64:	390b3b0b 	stmdbcc	fp, {r0, r1, r3, r8, r9, fp, ip, sp}
      68:	0013010b 	andseq	r0, r3, fp, lsl #2
      6c:	000d0a00 	andeq	r0, sp, r0, lsl #20
      70:	0b3a0e03 	bleq	e83884 <__bss_end__+0xe783b4>
      74:	0b390b3b 	bleq	e42d68 <__bss_end__+0xe37898>
      78:	0b381349 	bleq	e04da4 <__bss_end__+0xdf98d4>
      7c:	160b0000 	strne	r0, [fp], -r0
      80:	3a0e0300 	bcc	380c88 <__bss_end__+0x3757b8>
      84:	390b3b0b 	stmdbcc	fp, {r0, r1, r3, r8, r9, fp, ip, sp}
      88:	0013490b 	andseq	r4, r3, fp, lsl #18
      8c:	000f0c00 	andeq	r0, pc, r0, lsl #24
      90:	00000b0b 	andeq	r0, r0, fp, lsl #22
      94:	3f012e0d 	svccc	0x00012e0d
      98:	3a0e0319 	bcc	380d04 <__bss_end__+0x375834>
      9c:	390b3b0b 	stmdbcc	fp, {r0, r1, r3, r8, r9, fp, ip, sp}
      a0:	1119270b 	tstne	r9, fp, lsl #14
      a4:	40061201 	andmi	r1, r6, r1, lsl #4
      a8:	19429718 	stmdbne	r2, {r3, r4, r8, r9, sl, ip, pc}^
      ac:	00001301 	andeq	r1, r0, r1, lsl #6
      b0:	3e01040e 	cdpcc	4, 0, cr0, cr1, cr14, {0}
      b4:	490b0b0b 	stmdbmi	fp, {r0, r1, r3, r8, r9, fp}
      b8:	3b0b3a13 	blcc	2ce90c <__bss_end__+0x2c343c>
      bc:	010b390b 	tsteq	fp, fp, lsl #18
      c0:	0f000013 	svceq	0x00000013
      c4:	08030028 	stmdaeq	r3, {r3, r5}
      c8:	00000b1c 	andeq	r0, r0, ip, lsl fp
      cc:	03003410 	movweq	r3, #1040	; 0x410
      d0:	3b0b3a08 	blcc	2ce8f8 <__bss_end__+0x2c3428>
      d4:	490b390b 	stmdbmi	fp, {r0, r1, r3, r8, fp, ip, sp}
      d8:	00180213 	andseq	r0, r8, r3, lsl r2
      dc:	00341100 	eorseq	r1, r4, r0, lsl #2
      e0:	13490e03 	movtne	r0, #40451	; 0x9e03
      e4:	18021934 	stmdane	r2, {r2, r4, r5, r8, fp, ip}
      e8:	34120000 	ldrcc	r0, [r2], #-0
      ec:	3a080300 	bcc	200cf4 <__bss_end__+0x1f5824>
      f0:	390b3b0b 	stmdbcc	fp, {r0, r1, r3, r8, r9, fp, ip, sp}
      f4:	0213490b 	andseq	r4, r3, #180224	; 0x2c000
      f8:	1742b717 	smlaldne	fp, r2, r7, r7
      fc:	0b130000 	bleq	4c0104 <__bss_end__+0x4b4c34>
     100:	12011101 	andne	r1, r1, #1073741824	; 0x40000000
     104:	00130106 	andseq	r0, r3, r6, lsl #2
     108:	011d1400 	tsteq	sp, r0, lsl #8
     10c:	01521331 	cmpeq	r2, r1, lsr r3
     110:	110b42b8 			; <UNDEFINED> instruction: 0x110b42b8
     114:	58061201 	stmdapl	r6, {r0, r9, ip}
     118:	570b590b 	strpl	r5, [fp, -fp, lsl #18]
     11c:	0013010b 	andseq	r0, r3, fp, lsl #2
     120:	00051500 	andeq	r1, r5, r0, lsl #10
     124:	17021331 	smladxne	r2, r1, r3, r1
     128:	001742b7 			; <UNDEFINED> instruction: 0x001742b7
     12c:	82891600 	addhi	r1, r9, #0, 12
     130:	01110001 	tsteq	r1, r1
     134:	00001331 	andeq	r1, r0, r1, lsr r3
     138:	01828917 	orreq	r8, r2, r7, lsl r9
     13c:	31011101 	tstcc	r1, r1, lsl #2
     140:	18000013 	stmdane	r0, {r0, r1, r4}
     144:	0001828a 	andeq	r8, r1, sl, lsl #5
     148:	42911802 	addsmi	r1, r1, #131072	; 0x20000
     14c:	19000018 	stmdbne	r0, {r3, r4}
     150:	01018289 	smlabbeq	r1, r9, r2, r8
     154:	13310111 	teqne	r1, #1073741828	; 0x40000004
     158:	00001301 	andeq	r1, r0, r1, lsl #6
     15c:	4901011a 	stmdbmi	r1, {r1, r3, r4, r8}
     160:	00130113 	andseq	r0, r3, r3, lsl r1
     164:	00211b00 	eoreq	r1, r1, r0, lsl #22
     168:	0b2f1349 	bleq	bc4e94 <__bss_end__+0xbb99c4>
     16c:	2e1c0000 	cdpcs	0, 1, cr0, cr12, cr0, {0}
     170:	3a0e0301 	bcc	380d7c <__bss_end__+0x3758ac>
     174:	390b3b0b 	stmdbcc	fp, {r0, r1, r3, r8, r9, fp, ip, sp}
     178:	4919270b 	ldmdbmi	r9, {r0, r1, r3, r8, r9, sl, sp}
     17c:	010b2013 	tsteq	fp, r3, lsl r0
     180:	1d000013 	stcne	0, cr0, [r0, #-76]	; 0xffffffb4
     184:	0e030005 	cdpeq	0, 0, cr0, cr3, cr5, {0}
     188:	0b3b0b3a 	bleq	ec2e78 <__bss_end__+0xeb79a8>
     18c:	13490b39 	movtne	r0, #39737	; 0x9b39
     190:	361e0000 	ldrcc	r0, [lr], -r0
     194:	00180200 	andseq	r0, r8, r0, lsl #4
     198:	002e1f00 	eoreq	r1, lr, r0, lsl #30
     19c:	193c193f 	ldmdbne	ip!, {r0, r1, r2, r3, r4, r5, r8, fp, ip}
     1a0:	0e030e6e 	cdpeq	14, 0, cr0, cr3, cr14, {3}
     1a4:	0b3b0b3a 	bleq	ec2e94 <__bss_end__+0xeb79c4>
     1a8:	00000b39 	andeq	r0, r0, r9, lsr fp
     1ac:	01110100 	tsteq	r1, r0, lsl #2
     1b0:	0b130e25 	bleq	4c3a4c <__bss_end__+0x4b857c>
     1b4:	0e1b0e03 	cdpeq	14, 1, cr0, cr11, cr3, {0}
     1b8:	06120111 			; <UNDEFINED> instruction: 0x06120111
     1bc:	00001710 	andeq	r1, r0, r0, lsl r7
     1c0:	0b002402 	bleq	91d0 <rpi_rand16+0x28>
     1c4:	030b3e0b 	movweq	r3, #48651	; 0xbe0b
     1c8:	03000008 	movweq	r0, #8
     1cc:	0b0b0024 	bleq	2c0264 <__bss_end__+0x2b4d94>
     1d0:	0e030b3e 	vmoveq.16	d3[0], r0
     1d4:	16040000 	strne	r0, [r4], -r0
     1d8:	3a0e0300 	bcc	380de0 <__bss_end__+0x375910>
     1dc:	390b3b0b 	stmdbcc	fp, {r0, r1, r3, r8, r9, fp, ip, sp}
     1e0:	0013490b 	andseq	r4, r3, fp, lsl #18
     1e4:	01150500 	tsteq	r5, r0, lsl #10
     1e8:	13491927 	movtne	r1, #39207	; 0x9927
     1ec:	00001301 	andeq	r1, r0, r1, lsl #6
     1f0:	49000506 	stmdbmi	r0, {r1, r2, r8, sl}
     1f4:	07000013 	smladeq	r0, r3, r0, r0
     1f8:	0e030034 	mcreq	0, 0, r0, cr3, cr4, {1}
     1fc:	0b3b0b3a 	bleq	ec2eec <__bss_end__+0xeb7a1c>
     200:	13490b39 	movtne	r0, #39737	; 0x9b39
     204:	193c193f 	ldmdbne	ip!, {r0, r1, r2, r3, r4, r5, r8, fp, ip}
     208:	0f080000 	svceq	0x00080000
     20c:	490b0b00 	stmdbmi	fp, {r8, r9, fp}
     210:	09000013 	stmdbeq	r0, {r0, r1, r4}
     214:	13490026 	movtne	r0, #36902	; 0x9026
     218:	130a0000 	movwne	r0, #40960	; 0xa000
     21c:	3a0b0b01 	bcc	2c2e28 <__bss_end__+0x2b7958>
     220:	390b3b0b 	stmdbcc	fp, {r0, r1, r3, r8, r9, fp, ip, sp}
     224:	0013010b 	andseq	r0, r3, fp, lsl #2
     228:	000d0b00 	andeq	r0, sp, r0, lsl #22
     22c:	0b3a0e03 	bleq	e83a40 <__bss_end__+0xe78570>
     230:	0b390b3b 	bleq	e42f24 <__bss_end__+0xe37a54>
     234:	0b381349 	bleq	e04f60 <__bss_end__+0xdf9a90>
     238:	040c0000 	streq	r0, [ip], #-0
     23c:	0b0b3e01 	bleq	2cfa48 <__bss_end__+0x2c4578>
     240:	3a13490b 	bcc	4d2674 <__bss_end__+0x4c71a4>
     244:	390b3b0b 	stmdbcc	fp, {r0, r1, r3, r8, r9, fp, ip, sp}
     248:	0013010b 	andseq	r0, r3, fp, lsl #2
     24c:	00280d00 	eoreq	r0, r8, r0, lsl #26
     250:	0b1c0e03 	bleq	703a64 <__bss_end__+0x6f8594>
     254:	130e0000 	movwne	r0, #57344	; 0xe000
     258:	0b0e0301 	bleq	380e64 <__bss_end__+0x375994>
     25c:	3b0b3a0b 	blcc	2cea90 <__bss_end__+0x2c35c0>
     260:	010b390b 	tsteq	fp, fp, lsl #18
     264:	0f000013 	svceq	0x00000013
     268:	0803000d 	stmdaeq	r3, {r0, r2, r3}
     26c:	0b3b0b3a 	bleq	ec2f5c <__bss_end__+0xeb7a8c>
     270:	13490b39 	movtne	r0, #39737	; 0x9b39
     274:	00000b38 	andeq	r0, r0, r8, lsr fp
     278:	49010110 	stmdbmi	r1, {r4, r8}
     27c:	00130113 	andseq	r0, r3, r3, lsl r1
     280:	00211100 	eoreq	r1, r1, r0, lsl #2
     284:	0b2f1349 	bleq	bc4fb0 <__bss_end__+0xbb9ae0>
     288:	0f120000 	svceq	0x00120000
     28c:	000b0b00 	andeq	r0, fp, r0, lsl #22
     290:	00341300 	eorseq	r1, r4, r0, lsl #6
     294:	0b3a0e03 	bleq	e83aa8 <__bss_end__+0xe785d8>
     298:	0b390b3b 	bleq	e42f8c <__bss_end__+0xe37abc>
     29c:	18021349 	stmdane	r2, {r0, r3, r6, r8, r9, ip}
     2a0:	34140000 	ldrcc	r0, [r4], #-0
     2a4:	3a0e0300 	bcc	380eac <__bss_end__+0x3759dc>
     2a8:	390b3b0b 	stmdbcc	fp, {r0, r1, r3, r8, r9, fp, ip, sp}
     2ac:	0013490b 	andseq	r4, r3, fp, lsl #18
     2b0:	012e1500 			; <UNDEFINED> instruction: 0x012e1500
     2b4:	0e03193f 			; <UNDEFINED> instruction: 0x0e03193f
     2b8:	0b3b0b3a 	bleq	ec2fa8 <__bss_end__+0xeb7ad8>
     2bc:	19270b39 	stmdbne	r7!, {r0, r3, r4, r5, r8, r9, fp}
     2c0:	01111349 	tsteq	r1, r9, asr #6
     2c4:	18400612 	stmdane	r0, {r1, r4, r9, sl}^
     2c8:	01194297 			; <UNDEFINED> instruction: 0x01194297
     2cc:	16000013 			; <UNDEFINED> instruction: 0x16000013
     2d0:	0e030005 	cdpeq	0, 0, cr0, cr3, cr5, {0}
     2d4:	0b3b0b3a 	bleq	ec2fc4 <__bss_end__+0xeb7af4>
     2d8:	13490b39 	movtne	r0, #39737	; 0x9b39
     2dc:	42b71702 	adcsmi	r1, r7, #524288	; 0x80000
     2e0:	17000017 	smladne	r0, r7, r0, r0
     2e4:	08030005 	stmdaeq	r3, {r0, r2}
     2e8:	0b3b0b3a 	bleq	ec2fd8 <__bss_end__+0xeb7b08>
     2ec:	13490b39 	movtne	r0, #39737	; 0x9b39
     2f0:	00001802 	andeq	r1, r0, r2, lsl #16
     2f4:	03003418 	movweq	r3, #1048	; 0x418
     2f8:	3b0b3a08 	blcc	2ceb20 <__bss_end__+0x2c3650>
     2fc:	490b390b 	stmdbmi	fp, {r0, r1, r3, r8, fp, ip, sp}
     300:	b7170213 			; <UNDEFINED> instruction: 0xb7170213
     304:	00001742 	andeq	r1, r0, r2, asr #14
     308:	03003419 	movweq	r3, #1049	; 0x419
     30c:	3b0b3a0e 	blcc	2ceb4c <__bss_end__+0x2c367c>
     310:	490b390b 	stmdbmi	fp, {r0, r1, r3, r8, fp, ip, sp}
     314:	b7170213 			; <UNDEFINED> instruction: 0xb7170213
     318:	00001742 	andeq	r1, r0, r2, asr #14
     31c:	11010b1a 	tstne	r1, sl, lsl fp
     320:	01061201 	tsteq	r6, r1, lsl #4
     324:	1b000013 	blne	378 <__code_start__-0x7c88>
     328:	0111010b 	tsteq	r1, fp, lsl #2
     32c:	00000612 	andeq	r0, r0, r2, lsl r6
     330:	0182891c 	orreq	r8, r2, ip, lsl r9
     334:	31011101 	tstcc	r1, r1, lsl #2
     338:	1d000013 	stcne	0, cr0, [r0, #-76]	; 0xffffffb4
     33c:	0001828a 	andeq	r8, r1, sl, lsl #5
     340:	42911802 	addsmi	r1, r1, #131072	; 0x20000
     344:	1e000018 	mcrne	0, 0, r0, cr0, cr8, {0}
     348:	01018289 	smlabbeq	r1, r9, r2, r8
     34c:	13310111 	teqne	r1, #1073741828	; 0x40000004
     350:	00001301 	andeq	r1, r0, r1, lsl #6
     354:	3f012e1f 	svccc	0x00012e1f
     358:	3a0e0319 	bcc	380fc4 <__bss_end__+0x375af4>
     35c:	390b3b0b 	stmdbcc	fp, {r0, r1, r3, r8, r9, fp, ip, sp}
     360:	1119270b 	tstne	r9, fp, lsl #14
     364:	40061201 	andmi	r1, r6, r1, lsl #4
     368:	19429718 	stmdbne	r2, {r3, r4, r8, r9, sl, ip, pc}^
     36c:	00001301 	andeq	r1, r0, r1, lsl #6
     370:	03003420 	movweq	r3, #1056	; 0x420
     374:	3413490e 	ldrcc	r4, [r3], #-2318	; 0xfffff6f2
     378:	00180219 	andseq	r0, r8, r9, lsl r2
     37c:	010b2100 	mrseq	r2, (UNDEF: 27)
     380:	13011755 	movwne	r1, #5973	; 0x1755
     384:	89220000 	stmdbhi	r2!, {}	; <UNPREDICTABLE>
     388:	11000182 	smlabbne	r0, r2, r1, r0
     38c:	00133101 	andseq	r3, r3, r1, lsl #2
     390:	00052300 	andeq	r2, r5, r0, lsl #6
     394:	0b3a0803 	bleq	e823a8 <__bss_end__+0xe76ed8>
     398:	0b390b3b 	bleq	e4308c <__bss_end__+0xe37bbc>
     39c:	17021349 	strne	r1, [r2, -r9, asr #6]
     3a0:	001742b7 			; <UNDEFINED> instruction: 0x001742b7
     3a4:	010b2400 	tsteq	fp, r0, lsl #8
     3a8:	00001301 	andeq	r1, r0, r1, lsl #6
     3ac:	03003425 	movweq	r3, #1061	; 0x425
     3b0:	3b0b3a08 	blcc	2cebd8 <__bss_end__+0x2c3708>
     3b4:	490b390b 	stmdbmi	fp, {r0, r1, r3, r8, fp, ip, sp}
     3b8:	26000013 			; <UNDEFINED> instruction: 0x26000013
     3bc:	1331011d 	teqne	r1, #1073741831	; 0x40000007
     3c0:	42b80152 	adcsmi	r0, r8, #-2147483628	; 0x80000014
     3c4:	1201110b 	andne	r1, r1, #-1073741822	; 0xc0000002
     3c8:	590b5806 	stmdbpl	fp, {r1, r2, fp, ip, lr}
     3cc:	010b570b 	tsteq	fp, fp, lsl #14
     3d0:	27000013 	smladcs	r0, r3, r0, r0
     3d4:	13310005 	teqne	r1, #5, 0
     3d8:	42b71702 	adcsmi	r1, r7, #524288	; 0x80000
     3dc:	28000017 	stmdacs	r0, {r0, r1, r2, r4}
     3e0:	193f002e 	ldmdbne	pc!, {r1, r2, r3, r5}	; <UNPREDICTABLE>
     3e4:	0b3a0e03 	bleq	e83bf8 <__bss_end__+0xe78728>
     3e8:	0b390b3b 	bleq	e430dc <__bss_end__+0xe37c0c>
     3ec:	13491927 	movtne	r1, #39207	; 0x9927
     3f0:	06120111 			; <UNDEFINED> instruction: 0x06120111
     3f4:	42971840 	addsmi	r1, r7, #64, 16	; 0x400000
     3f8:	29000019 	stmdbcs	r0, {r0, r3, r4}
     3fc:	0e03012e 	adfeqsp	f0, f3, #0.5
     400:	0b3b0b3a 	bleq	ec30f0 <__bss_end__+0xeb7c20>
     404:	19270b39 	stmdbne	r7!, {r0, r3, r4, r5, r8, r9, fp}
     408:	0b201349 	bleq	805134 <__bss_end__+0x7f9c64>
     40c:	00001301 	andeq	r1, r0, r1, lsl #6
     410:	0300052a 	movweq	r0, #1322	; 0x52a
     414:	3b0b3a08 	blcc	2cec3c <__bss_end__+0x2c376c>
     418:	490b390b 	stmdbmi	fp, {r0, r1, r3, r8, fp, ip, sp}
     41c:	2b000013 	blcs	470 <__code_start__-0x7b90>
     420:	193f002e 	ldmdbne	pc!, {r1, r2, r3, r5}	; <UNPREDICTABLE>
     424:	0e6e193c 			; <UNDEFINED> instruction: 0x0e6e193c
     428:	0b3a0e03 	bleq	e83c3c <__bss_end__+0xe7876c>
     42c:	0b390b3b 	bleq	e43120 <__bss_end__+0xe37c50>
     430:	01000000 	mrseq	r0, (UNDEF: 0)
     434:	0e250111 	mcreq	1, 1, r0, cr5, cr1, {0}
     438:	0e030b13 	vmoveq.32	d3[0], r0
     43c:	01110e1b 	tsteq	r1, fp, lsl lr
     440:	17100612 			; <UNDEFINED> instruction: 0x17100612
     444:	24020000 	strcs	r0, [r2], #-0
     448:	3e0b0b00 	vmlacc.f64	d0, d11, d0
     44c:	0008030b 	andeq	r0, r8, fp, lsl #6
     450:	00240300 	eoreq	r0, r4, r0, lsl #6
     454:	0b3e0b0b 	bleq	f83088 <__bss_end__+0xf77bb8>
     458:	00000e03 	andeq	r0, r0, r3, lsl #28
     45c:	27011504 	strcs	r1, [r1, -r4, lsl #10]
     460:	01134919 	tsteq	r3, r9, lsl r9
     464:	05000013 	streq	r0, [r0, #-19]	; 0xffffffed
     468:	13490005 	movtne	r0, #36869	; 0x9005
     46c:	34060000 	strcc	r0, [r6], #-0
     470:	3a0e0300 	bcc	381078 <__bss_end__+0x375ba8>
     474:	390b3b0b 	stmdbcc	fp, {r0, r1, r3, r8, r9, fp, ip, sp}
     478:	3f13490b 	svccc	0x0013490b
     47c:	00193c19 	andseq	r3, r9, r9, lsl ip
     480:	000f0700 	andeq	r0, pc, r0, lsl #14
     484:	13490b0b 	movtne	r0, #39691	; 0x9b0b
     488:	26080000 	strcs	r0, [r8], -r0
     48c:	00134900 	andseq	r4, r3, r0, lsl #18
     490:	01170900 	tsteq	r7, r0, lsl #18
     494:	0b0b0e03 	bleq	2c3ca8 <__bss_end__+0x2b87d8>
     498:	0b3b0b3a 	bleq	ec3188 <__bss_end__+0xeb7cb8>
     49c:	13010b39 	movwne	r0, #6969	; 0x1b39
     4a0:	0d0a0000 	stceq	0, cr0, [sl, #-0]
     4a4:	3a080300 	bcc	2010ac <__bss_end__+0x1f5bdc>
     4a8:	390b3b0b 	stmdbcc	fp, {r0, r1, r3, r8, r9, fp, ip, sp}
     4ac:	0013490b 	andseq	r4, r3, fp, lsl #18
     4b0:	000f0b00 	andeq	r0, pc, r0, lsl #22
     4b4:	00000b0b 	andeq	r0, r0, fp, lsl #22
     4b8:	2700150c 	strcs	r1, [r0, -ip, lsl #10]
     4bc:	0d000019 	stceq	0, cr0, [r0, #-100]	; 0xffffff9c
     4c0:	0b0b0113 	bleq	2c0914 <__bss_end__+0x2b5444>
     4c4:	0b3b0b3a 	bleq	ec31b4 <__bss_end__+0xeb7ce4>
     4c8:	13010b39 	movwne	r0, #6969	; 0x1b39
     4cc:	0d0e0000 	stceq	0, cr0, [lr, #-0]
     4d0:	3a080300 	bcc	2010d8 <__bss_end__+0x1f5c08>
     4d4:	390b3b0b 	stmdbcc	fp, {r0, r1, r3, r8, r9, fp, ip, sp}
     4d8:	3813490b 	ldmdacc	r3, {r0, r1, r3, r8, fp, lr}
     4dc:	0f00000b 	svceq	0x0000000b
     4e0:	0e03000d 	cdpeq	0, 0, cr0, cr3, cr13, {0}
     4e4:	0b3b0b3a 	bleq	ec31d4 <__bss_end__+0xeb7d04>
     4e8:	13490b39 	movtne	r0, #39737	; 0x9b39
     4ec:	00000b38 	andeq	r0, r0, r8, lsr fp
     4f0:	03001610 	movweq	r1, #1552	; 0x610
     4f4:	3b0b3a0e 	blcc	2ced34 <__bss_end__+0x2c3864>
     4f8:	490b390b 	stmdbmi	fp, {r0, r1, r3, r8, fp, ip, sp}
     4fc:	11000013 	tstne	r0, r3, lsl r0
     500:	0e030034 	mcreq	0, 0, r0, cr3, cr4, {1}
     504:	0b3b0b3a 	bleq	ec31f4 <__bss_end__+0xeb7d24>
     508:	13490b39 	movtne	r0, #39737	; 0x9b39
     50c:	00001802 	andeq	r1, r0, r2, lsl #16
     510:	3f012e12 	svccc	0x00012e12
     514:	3a0e0319 	bcc	381180 <__bss_end__+0x375cb0>
     518:	390b3b0b 	stmdbcc	fp, {r0, r1, r3, r8, r9, fp, ip, sp}
     51c:	1119270b 	tstne	r9, fp, lsl #14
     520:	40061201 	andmi	r1, r6, r1, lsl #4
     524:	19429718 	stmdbne	r2, {r3, r4, r8, r9, sl, ip, pc}^
     528:	00001301 	andeq	r1, r0, r1, lsl #6
     52c:	03000513 	movweq	r0, #1299	; 0x513
     530:	3b0b3a08 	blcc	2ced58 <__bss_end__+0x2c3888>
     534:	490b390b 	stmdbmi	fp, {r0, r1, r3, r8, fp, ip, sp}
     538:	00180213 	andseq	r0, r8, r3, lsl r2
     53c:	00341400 	eorseq	r1, r4, r0, lsl #8
     540:	0b3a0803 	bleq	e82554 <__bss_end__+0xe77084>
     544:	0b390b3b 	bleq	e43238 <__bss_end__+0xe37d68>
     548:	17021349 	strne	r1, [r2, -r9, asr #6]
     54c:	001742b7 			; <UNDEFINED> instruction: 0x001742b7
     550:	012e1500 			; <UNDEFINED> instruction: 0x012e1500
     554:	0e03193f 			; <UNDEFINED> instruction: 0x0e03193f
     558:	0b3b0b3a 	bleq	ec3248 <__bss_end__+0xeb7d78>
     55c:	19270b39 	stmdbne	r7!, {r0, r3, r4, r5, r8, r9, fp}
     560:	01111349 	tsteq	r1, r9, asr #6
     564:	18400612 	stmdane	r0, {r1, r4, r9, sl}^
     568:	01194297 			; <UNDEFINED> instruction: 0x01194297
     56c:	16000013 			; <UNDEFINED> instruction: 0x16000013
     570:	0e030005 	cdpeq	0, 0, cr0, cr3, cr5, {0}
     574:	0b3b0b3a 	bleq	ec3264 <__bss_end__+0xeb7d94>
     578:	13490b39 	movtne	r0, #39737	; 0x9b39
     57c:	42b71702 	adcsmi	r1, r7, #524288	; 0x80000
     580:	17000017 	smladne	r0, r7, r0, r0
     584:	0e030034 	mcreq	0, 0, r0, cr3, cr4, {1}
     588:	0b3b0b3a 	bleq	ec3278 <__bss_end__+0xeb7da8>
     58c:	13490b39 	movtne	r0, #39737	; 0x9b39
     590:	42b71702 	adcsmi	r1, r7, #524288	; 0x80000
     594:	18000017 	stmdane	r0, {r0, r1, r2, r4}
     598:	01018289 	smlabbeq	r1, r9, r2, r8
     59c:	13310111 	teqne	r1, #1073741828	; 0x40000004
     5a0:	8a190000 	bhi	6405a8 <__bss_end__+0x6350d8>
     5a4:	02000182 	andeq	r0, r0, #-2147483616	; 0x80000020
     5a8:	18429118 	stmdane	r2, {r3, r4, r8, ip, pc}^
     5ac:	2e1a0000 	cdpcs	0, 1, cr0, cr10, cr0, {0}
     5b0:	3a0e0301 	bcc	3811bc <__bss_end__+0x375cec>
     5b4:	390b3b0b 	stmdbcc	fp, {r0, r1, r3, r8, r9, fp, ip, sp}
     5b8:	4919270b 	ldmdbmi	r9, {r0, r1, r3, r8, r9, sl, sp}
     5bc:	12011113 	andne	r1, r1, #-1073741820	; 0xc0000004
     5c0:	97184006 	ldrls	r4, [r8, -r6]
     5c4:	13011942 	movwne	r1, #6466	; 0x1942
     5c8:	051b0000 	ldreq	r0, [fp, #-0]
     5cc:	3a080300 	bcc	2011d4 <__bss_end__+0x1f5d04>
     5d0:	390b3b0b 	stmdbcc	fp, {r0, r1, r3, r8, r9, fp, ip, sp}
     5d4:	0213490b 	andseq	r4, r3, #180224	; 0x2c000
     5d8:	1742b717 	smlaldne	fp, r2, r7, r7
     5dc:	891c0000 	ldmdbhi	ip, {}	; <UNPREDICTABLE>
     5e0:	11010182 	smlabbne	r1, r2, r1, r0
     5e4:	01133101 	tsteq	r3, r1, lsl #2
     5e8:	1d000013 	stcne	0, cr0, [r0, #-76]	; 0xffffffb4
     5ec:	00018289 	andeq	r8, r1, r9, lsl #5
     5f0:	13310111 	teqne	r1, #1073741828	; 0x40000004
     5f4:	2e1e0000 	cdpcs	0, 1, cr0, cr14, cr0, {0}
     5f8:	3c193f00 	ldccc	15, cr3, [r9], {-0}
     5fc:	030e6e19 	movweq	r6, #60953	; 0xee19
     600:	3b0b3a0e 	blcc	2cee40 <__bss_end__+0x2c3970>
     604:	000b390b 	andeq	r3, fp, fp, lsl #18
     608:	11010000 	mrsne	r0, (UNDEF: 1)
     60c:	130e2501 	movwne	r2, #58625	; 0xe501
     610:	1b0e030b 	blne	381244 <__bss_end__+0x375d74>
     614:	1201110e 	andne	r1, r1, #-2147483645	; 0x80000003
     618:	00171006 	andseq	r1, r7, r6
     61c:	00240200 	eoreq	r0, r4, r0, lsl #4
     620:	0b3e0b0b 	bleq	f83254 <__bss_end__+0xf77d84>
     624:	00000803 	andeq	r0, r0, r3, lsl #16
     628:	0b002403 	bleq	963c <va_printk+0x74>
     62c:	030b3e0b 	movweq	r3, #48651	; 0xbe0b
     630:	0400000e 	streq	r0, [r0], #-14
     634:	0e030016 	mcreq	0, 0, r0, cr3, cr6, {0}
     638:	0b3b0b3a 	bleq	ec3328 <__bss_end__+0xeb7e58>
     63c:	13490b39 	movtne	r0, #39737	; 0x9b39
     640:	15050000 	strne	r0, [r5, #-0]
     644:	49192701 	ldmdbmi	r9, {r0, r8, r9, sl, sp}
     648:	00130113 	andseq	r0, r3, r3, lsl r1
     64c:	00050600 	andeq	r0, r5, r0, lsl #12
     650:	00001349 	andeq	r1, r0, r9, asr #6
     654:	03003407 	movweq	r3, #1031	; 0x407
     658:	3b0b3a0e 	blcc	2cee98 <__bss_end__+0x2c39c8>
     65c:	490b390b 	stmdbmi	fp, {r0, r1, r3, r8, fp, ip, sp}
     660:	3c193f13 	ldccc	15, cr3, [r9], {19}
     664:	08000019 	stmdaeq	r0, {r0, r3, r4}
     668:	0b0b000f 	bleq	2c06ac <__bss_end__+0x2b51dc>
     66c:	00001349 	andeq	r1, r0, r9, asr #6
     670:	49002609 	stmdbmi	r0, {r0, r3, r9, sl, sp}
     674:	0a000013 	beq	6c8 <__code_start__-0x7938>
     678:	0b0b0113 	bleq	2c0acc <__bss_end__+0x2b55fc>
     67c:	0b3b0b3a 	bleq	ec336c <__bss_end__+0xeb7e9c>
     680:	13010b39 	movwne	r0, #6969	; 0x1b39
     684:	0d0b0000 	stceq	0, cr0, [fp, #-0]
     688:	3a0e0300 	bcc	381290 <__bss_end__+0x375dc0>
     68c:	390b3b0b 	stmdbcc	fp, {r0, r1, r3, r8, r9, fp, ip, sp}
     690:	3813490b 	ldmdacc	r3, {r0, r1, r3, r8, fp, lr}
     694:	0c00000b 	stceq	0, cr0, [r0], {11}
     698:	0b3e0104 	bleq	f80ab0 <__bss_end__+0xf755e0>
     69c:	13490b0b 	movtne	r0, #39691	; 0x9b0b
     6a0:	0b3b0b3a 	bleq	ec3390 <__bss_end__+0xeb7ec0>
     6a4:	13010b39 	movwne	r0, #6969	; 0x1b39
     6a8:	280d0000 	stmdacs	sp, {}	; <UNPREDICTABLE>
     6ac:	1c0e0300 	stcne	3, cr0, [lr], {-0}
     6b0:	0e00000b 	cdpeq	0, 0, cr0, cr0, cr11, {0}
     6b4:	0e030113 	mcreq	1, 0, r0, cr3, cr3, {0}
     6b8:	0b3a0b0b 	bleq	e832ec <__bss_end__+0xe77e1c>
     6bc:	0b390b3b 	bleq	e433b0 <__bss_end__+0xe37ee0>
     6c0:	00001301 	andeq	r1, r0, r1, lsl #6
     6c4:	03000d0f 	movweq	r0, #3343	; 0xd0f
     6c8:	3b0b3a08 	blcc	2ceef0 <__bss_end__+0x2c3a20>
     6cc:	490b390b 	stmdbmi	fp, {r0, r1, r3, r8, fp, ip, sp}
     6d0:	000b3813 	andeq	r3, fp, r3, lsl r8
     6d4:	01011000 	mrseq	r1, (UNDEF: 1)
     6d8:	13011349 	movwne	r1, #4937	; 0x1349
     6dc:	21110000 	tstcs	r1, r0
     6e0:	2f134900 	svccs	0x00134900
     6e4:	1200000b 	andne	r0, r0, #11, 0
     6e8:	0b0b000f 	bleq	2c072c <__bss_end__+0x2b525c>
     6ec:	34130000 	ldrcc	r0, [r3], #-0
     6f0:	3a0e0300 	bcc	3812f8 <__bss_end__+0x375e28>
     6f4:	390b3b0b 	stmdbcc	fp, {r0, r1, r3, r8, r9, fp, ip, sp}
     6f8:	0213490b 	andseq	r4, r3, #180224	; 0x2c000
     6fc:	14000018 	strne	r0, [r0], #-24	; 0xffffffe8
     700:	193f012e 	ldmdbne	pc!, {r1, r2, r3, r5, r8}	; <UNPREDICTABLE>
     704:	0b3a0e03 	bleq	e83f18 <__bss_end__+0xe78a48>
     708:	0b39053b 	bleq	e41bfc <__bss_end__+0xe3672c>
     70c:	01111927 	tsteq	r1, r7, lsr #18
     710:	18400612 	stmdane	r0, {r1, r4, r9, sl}^
     714:	01194297 			; <UNDEFINED> instruction: 0x01194297
     718:	15000013 	strne	r0, [r0, #-19]	; 0xffffffed
     71c:	0e030034 	mcreq	0, 0, r0, cr3, cr4, {1}
     720:	19341349 	ldmdbne	r4!, {r0, r3, r6, r8, r9, ip}
     724:	00001802 	andeq	r1, r0, r2, lsl #16
     728:	01828916 	orreq	r8, r2, r6, lsl r9
     72c:	31011101 	tstcc	r1, r1, lsl #2
     730:	00130113 	andseq	r0, r3, r3, lsl r1
     734:	828a1700 	addhi	r1, sl, #0, 14
     738:	18020001 	stmdane	r2, {r0}
     73c:	00184291 	mulseq	r8, r1, r2
     740:	82891800 	addhi	r1, r9, #0, 16
     744:	01110001 	tsteq	r1, r1
     748:	00001331 	andeq	r1, r0, r1, lsr r3
     74c:	3f012e19 	svccc	0x00012e19
     750:	3a0e0319 	bcc	3813bc <__bss_end__+0x375eec>
     754:	39053b0b 	stmdbcc	r5, {r0, r1, r3, r8, r9, fp, ip, sp}
     758:	4919270b 	ldmdbmi	r9, {r0, r1, r3, r8, r9, sl, sp}
     75c:	12011113 	andne	r1, r1, #-1073741820	; 0xc0000004
     760:	97184006 	ldrls	r4, [r8, -r6]
     764:	13011942 	movwne	r1, #6466	; 0x1942
     768:	341a0000 	ldrcc	r0, [sl], #-0
     76c:	3a0e0300 	bcc	381374 <__bss_end__+0x375ea4>
     770:	39053b0b 	stmdbcc	r5, {r0, r1, r3, r8, r9, fp, ip, sp}
     774:	0213490b 	andseq	r4, r3, #180224	; 0x2c000
     778:	1742b717 	smlaldne	fp, r2, r7, r7
     77c:	2e1b0000 	cdpcs	0, 1, cr0, cr11, cr0, {0}
     780:	3a0e0301 	bcc	38138c <__bss_end__+0x375ebc>
     784:	39053b0b 	stmdbcc	r5, {r0, r1, r3, r8, r9, fp, ip, sp}
     788:	4919270b 	ldmdbmi	r9, {r0, r1, r3, r8, r9, sl, sp}
     78c:	12011113 	andne	r1, r1, #-1073741820	; 0xc0000004
     790:	97184006 	ldrls	r4, [r8, -r6]
     794:	13011942 	movwne	r1, #6466	; 0x1942
     798:	0b1c0000 	bleq	7007a0 <__bss_end__+0x6f52d0>
     79c:	01175501 	tsteq	r7, r1, lsl #10
     7a0:	1d000013 	stcne	0, cr0, [r0, #-76]	; 0xffffffb4
     7a4:	08030034 	stmdaeq	r3, {r2, r4, r5}
     7a8:	053b0b3a 	ldreq	r0, [fp, #-2874]!	; 0xfffff4c6
     7ac:	13490b39 	movtne	r0, #39737	; 0x9b39
     7b0:	42b71702 	adcsmi	r1, r7, #524288	; 0x80000
     7b4:	1e000017 	mcrne	0, 0, r0, cr0, cr7, {0}
     7b8:	1331011d 	teqne	r1, #1073741831	; 0x40000007
     7bc:	42b80152 	adcsmi	r0, r8, #-2147483628	; 0x80000014
     7c0:	1201110b 	andne	r1, r1, #-1073741822	; 0xc0000002
     7c4:	590b5806 	stmdbpl	fp, {r1, r2, fp, ip, lr}
     7c8:	010b5705 	tsteq	fp, r5, lsl #14
     7cc:	1f000013 	svcne	0x00000013
     7d0:	13310005 	teqne	r1, #5, 0
     7d4:	42b71702 	adcsmi	r1, r7, #524288	; 0x80000
     7d8:	20000017 	andcs	r0, r0, r7, lsl r0
     7dc:	01018289 	smlabbeq	r1, r9, r2, r8
     7e0:	13310111 	teqne	r1, #1073741828	; 0x40000004
     7e4:	2e210000 	cdpcs	0, 2, cr0, cr1, cr0, {0}
     7e8:	03193f01 	tsteq	r9, #1, 30
     7ec:	3b0b3a0e 	blcc	2cf02c <__bss_end__+0x2c3b5c>
     7f0:	270b390b 	strcs	r3, [fp, -fp, lsl #18]
     7f4:	12011119 	andne	r1, r1, #1073741830	; 0x40000006
     7f8:	97184006 	ldrls	r4, [r8, -r6]
     7fc:	13011942 	movwne	r1, #6466	; 0x1942
     800:	2e220000 	cdpcs	0, 2, cr0, cr2, cr0, {0}
     804:	03193f01 	tsteq	r9, #1, 30
     808:	3b0b3a0e 	blcc	2cf048 <__bss_end__+0x2c3b78>
     80c:	270b390b 	strcs	r3, [fp, -fp, lsl #18]
     810:	11134919 	tstne	r3, r9, lsl r9
     814:	40061201 	andmi	r1, r6, r1, lsl #4
     818:	19429718 	stmdbne	r2, {r3, r4, r8, r9, sl, ip, pc}^
     81c:	00001301 	andeq	r1, r0, r1, lsl #6
     820:	03000523 	movweq	r0, #1315	; 0x523
     824:	3b0b3a0e 	blcc	2cf064 <__bss_end__+0x2c3b94>
     828:	490b390b 	stmdbmi	fp, {r0, r1, r3, r8, fp, ip, sp}
     82c:	b7170213 			; <UNDEFINED> instruction: 0xb7170213
     830:	00001742 	andeq	r1, r0, r2, asr #14
     834:	03012e24 	movweq	r2, #7716	; 0x1e24
     838:	3b0b3a0e 	blcc	2cf078 <__bss_end__+0x2c3ba8>
     83c:	270b390b 	strcs	r3, [fp, -fp, lsl #18]
     840:	11134919 	tstne	r3, r9, lsl r9
     844:	40061201 	andmi	r1, r6, r1, lsl #4
     848:	19429718 	stmdbne	r2, {r3, r4, r8, r9, sl, ip, pc}^
     84c:	00001301 	andeq	r1, r0, r1, lsl #6
     850:	03003425 	movweq	r3, #1061	; 0x425
     854:	3b0b3a0e 	blcc	2cf094 <__bss_end__+0x2c3bc4>
     858:	490b390b 	stmdbmi	fp, {r0, r1, r3, r8, fp, ip, sp}
     85c:	b7170213 			; <UNDEFINED> instruction: 0xb7170213
     860:	00001742 	andeq	r1, r0, r2, asr #14
     864:	03003426 	movweq	r3, #1062	; 0x426
     868:	3b0b3a08 	blcc	2cf090 <__bss_end__+0x2c3bc0>
     86c:	490b390b 	stmdbmi	fp, {r0, r1, r3, r8, fp, ip, sp}
     870:	b7170213 			; <UNDEFINED> instruction: 0xb7170213
     874:	00001742 	andeq	r1, r0, r2, asr #14
     878:	55010b27 	strpl	r0, [r1, #-2855]	; 0xfffff4d9
     87c:	28000017 	stmdacs	r0, {r0, r1, r2, r4}
     880:	0e030005 	cdpeq	0, 0, cr0, cr3, cr5, {0}
     884:	0b3b0b3a 	bleq	ec3574 <__bss_end__+0xeb80a4>
     888:	13490b39 	movtne	r0, #39737	; 0x9b39
     88c:	00001802 	andeq	r1, r0, r2, lsl #16
     890:	03012e29 	movweq	r2, #7721	; 0x1e29
     894:	3b0b3a0e 	blcc	2cf0d4 <__bss_end__+0x2c3c04>
     898:	270b390b 	strcs	r3, [fp, -fp, lsl #18]
     89c:	12011119 	andne	r1, r1, #1073741830	; 0x40000006
     8a0:	97184006 	ldrls	r4, [r8, -r6]
     8a4:	13011942 	movwne	r1, #6466	; 0x1942
     8a8:	342a0000 	strtcc	r0, [sl], #-0
     8ac:	3a0e0300 	bcc	3814b4 <__bss_end__+0x375fe4>
     8b0:	390b3b0b 	stmdbcc	fp, {r0, r1, r3, r8, r9, fp, ip, sp}
     8b4:	1c13490b 			; <UNDEFINED> instruction: 0x1c13490b
     8b8:	2b000006 	blcs	8d8 <__code_start__-0x7728>
     8bc:	0111010b 	tsteq	r1, fp, lsl #2
     8c0:	13010612 	movwne	r0, #5650	; 0x1612
     8c4:	052c0000 	streq	r0, [ip, #-0]!
     8c8:	3a080300 	bcc	2014d0 <__bss_end__+0x1f6000>
     8cc:	390b3b0b 	stmdbcc	fp, {r0, r1, r3, r8, r9, fp, ip, sp}
     8d0:	0213490b 	andseq	r4, r3, #180224	; 0x2c000
     8d4:	1742b717 	smlaldne	fp, r2, r7, r7
     8d8:	1d2d0000 	stcne	0, cr0, [sp, #-0]
     8dc:	52133101 	andspl	r3, r3, #1073741824	; 0x40000000
     8e0:	0b42b801 	bleq	10ae8ec <__bss_end__+0x10a341c>
     8e4:	0b581755 	bleq	1606640 <__bss_end__+0x15fb170>
     8e8:	0b570b59 	bleq	15c3654 <__bss_end__+0x15b8184>
     8ec:	052e0000 	streq	r0, [lr, #-0]!
     8f0:	00133100 	andseq	r3, r3, r0, lsl #2
     8f4:	00342f00 	eorseq	r2, r4, r0, lsl #30
     8f8:	17021331 	smladxne	r2, r1, r3, r1
     8fc:	001742b7 			; <UNDEFINED> instruction: 0x001742b7
     900:	012e3000 			; <UNDEFINED> instruction: 0x012e3000
     904:	0b3a0e03 	bleq	e84118 <__bss_end__+0xe78c48>
     908:	0b390b3b 	bleq	e435fc <__bss_end__+0xe3812c>
     90c:	13491927 	movtne	r1, #39207	; 0x9927
     910:	13010b20 	movwne	r0, #6944	; 0x1b20
     914:	05310000 	ldreq	r0, [r1, #-0]!
     918:	3a0e0300 	bcc	381520 <__bss_end__+0x376050>
     91c:	390b3b0b 	stmdbcc	fp, {r0, r1, r3, r8, r9, fp, ip, sp}
     920:	0013490b 	andseq	r4, r3, fp, lsl #18
     924:	00343200 	eorseq	r3, r4, r0, lsl #4
     928:	0b3a0803 	bleq	e8293c <__bss_end__+0xe7746c>
     92c:	0b390b3b 	bleq	e43620 <__bss_end__+0xe38150>
     930:	00001349 	andeq	r1, r0, r9, asr #6
     934:	3f002e33 	svccc	0x00002e33
     938:	6e193c19 	mrcvs	12, 0, r3, cr9, cr9, {0}
     93c:	3a0e030e 	bcc	38157c <__bss_end__+0x3760ac>
     940:	390b3b0b 	stmdbcc	fp, {r0, r1, r3, r8, r9, fp, ip, sp}
     944:	3400000b 	strcc	r0, [r0], #-11
     948:	18020036 	stmdane	r2, {r1, r2, r4, r5}
     94c:	01000000 	mrseq	r0, (UNDEF: 0)
     950:	0e250111 	mcreq	1, 1, r0, cr5, cr1, {0}
     954:	0e030b13 	vmoveq.32	d3[0], r0
     958:	01110e1b 	tsteq	r1, fp, lsl lr
     95c:	17100612 			; <UNDEFINED> instruction: 0x17100612
     960:	24020000 	strcs	r0, [r2], #-0
     964:	3e0b0b00 	vmlacc.f64	d0, d11, d0
     968:	0008030b 	andeq	r0, r8, fp, lsl #6
     96c:	00240300 	eoreq	r0, r4, r0, lsl #6
     970:	0b3e0b0b 	bleq	f835a4 <__bss_end__+0xf780d4>
     974:	00000e03 	andeq	r0, r0, r3, lsl #28
     978:	27011504 	strcs	r1, [r1, -r4, lsl #10]
     97c:	01134919 	tsteq	r3, r9, lsl r9
     980:	05000013 	streq	r0, [r0, #-19]	; 0xffffffed
     984:	13490005 	movtne	r0, #36869	; 0x9005
     988:	34060000 	strcc	r0, [r6], #-0
     98c:	3a0e0300 	bcc	381594 <__bss_end__+0x3760c4>
     990:	390b3b0b 	stmdbcc	fp, {r0, r1, r3, r8, r9, fp, ip, sp}
     994:	3f13490b 	svccc	0x0013490b
     998:	00193c19 	andseq	r3, r9, r9, lsl ip
     99c:	000f0700 	andeq	r0, pc, r0, lsl #14
     9a0:	13490b0b 	movtne	r0, #39691	; 0x9b0b
     9a4:	26080000 	strcs	r0, [r8], -r0
     9a8:	00134900 	andseq	r4, r3, r0, lsl #18
     9ac:	012e0900 			; <UNDEFINED> instruction: 0x012e0900
     9b0:	0e03193f 			; <UNDEFINED> instruction: 0x0e03193f
     9b4:	0b3b0b3a 	bleq	ec36a4 <__bss_end__+0xeb81d4>
     9b8:	19270b39 	stmdbne	r7!, {r0, r3, r4, r5, r8, r9, fp}
     9bc:	0b201349 	bleq	8056e8 <__bss_end__+0x7fa218>
     9c0:	00001301 	andeq	r1, r0, r1, lsl #6
     9c4:	0300050a 	movweq	r0, #1290	; 0x50a
     9c8:	3b0b3a0e 	blcc	2cf208 <__bss_end__+0x2c3d38>
     9cc:	490b390b 	stmdbmi	fp, {r0, r1, r3, r8, fp, ip, sp}
     9d0:	0b000013 	bleq	a24 <__code_start__-0x75dc>
     9d4:	0e030034 	mcreq	0, 0, r0, cr3, cr4, {1}
     9d8:	0b3b0b3a 	bleq	ec36c8 <__bss_end__+0xeb81f8>
     9dc:	13490b39 	movtne	r0, #39737	; 0x9b39
     9e0:	0b0c0000 	bleq	3009e8 <__bss_end__+0x2f5518>
     9e4:	0d000001 	stceq	0, cr0, [r0, #-4]
     9e8:	193f012e 	ldmdbne	pc!, {r1, r2, r3, r5, r8}	; <UNPREDICTABLE>
     9ec:	0b3a0e03 	bleq	e84200 <__bss_end__+0xe78d30>
     9f0:	0b390b3b 	bleq	e436e4 <__bss_end__+0xe38214>
     9f4:	01111349 	tsteq	r1, r9, asr #6
     9f8:	18400612 	stmdane	r0, {r1, r4, r9, sl}^
     9fc:	01194297 			; <UNDEFINED> instruction: 0x01194297
     a00:	0e000013 	mcreq	0, 0, r0, cr0, cr3, {0}
     a04:	0e030034 	mcreq	0, 0, r0, cr3, cr4, {1}
     a08:	0b3b0b3a 	bleq	ec36f8 <__bss_end__+0xeb8228>
     a0c:	13490b39 	movtne	r0, #39737	; 0x9b39
     a10:	42b71702 	adcsmi	r1, r7, #524288	; 0x80000
     a14:	0f000017 	svceq	0x00000017
     a18:	0111010b 	tsteq	r1, fp, lsl #2
     a1c:	00000612 	andeq	r0, r0, r2, lsl r6
     a20:	03003410 	movweq	r3, #1040	; 0x410
     a24:	3b0b3a08 	blcc	2cf24c <__bss_end__+0x2c3d7c>
     a28:	490b390b 	stmdbmi	fp, {r0, r1, r3, r8, fp, ip, sp}
     a2c:	b7170213 			; <UNDEFINED> instruction: 0xb7170213
     a30:	00001742 	andeq	r1, r0, r2, asr #14
     a34:	55010b11 	strpl	r0, [r1, #-2833]	; 0xfffff4ef
     a38:	12000017 	andne	r0, r0, #23, 0
     a3c:	1331011d 	teqne	r1, #1073741831	; 0x40000007
     a40:	42b80152 	adcsmi	r0, r8, #-2147483628	; 0x80000014
     a44:	5817550b 	ldmdapl	r7, {r0, r1, r3, r8, sl, ip, lr}
     a48:	570b590b 	strpl	r5, [fp, -fp, lsl #18]
     a4c:	0013010b 	andseq	r0, r3, fp, lsl #2
     a50:	00051300 	andeq	r1, r5, r0, lsl #6
     a54:	17021331 	smladxne	r2, r1, r3, r1
     a58:	001742b7 			; <UNDEFINED> instruction: 0x001742b7
     a5c:	00341400 	eorseq	r1, r4, r0, lsl #8
     a60:	17021331 	smladxne	r2, r1, r3, r1
     a64:	001742b7 			; <UNDEFINED> instruction: 0x001742b7
     a68:	010b1500 	tsteq	fp, r0, lsl #10
     a6c:	17551331 	smmlarne	r5, r1, r3, r1
     a70:	89160000 	ldmdbhi	r6, {}	; <UNPREDICTABLE>
     a74:	11010182 	smlabbne	r1, r2, r1, r0
     a78:	00133101 	andseq	r3, r3, r1, lsl #2
     a7c:	828a1700 	addhi	r1, sl, #0, 14
     a80:	18020001 	stmdane	r2, {r0}
     a84:	00184291 	mulseq	r8, r1, r2
     a88:	012e1800 			; <UNDEFINED> instruction: 0x012e1800
     a8c:	01111331 	tsteq	r1, r1, lsr r3
     a90:	18400612 	stmdane	r0, {r1, r4, r9, sl}^
     a94:	01194297 			; <UNDEFINED> instruction: 0x01194297
     a98:	19000013 	stmdbne	r0, {r0, r1, r4}
     a9c:	1331010b 	teqne	r1, #-1073741822	; 0xc0000002
     aa0:	06120111 			; <UNDEFINED> instruction: 0x06120111
     aa4:	2e1a0000 	cdpcs	0, 1, cr0, cr10, cr0, {0}
     aa8:	3c193f00 	ldccc	15, cr3, [r9], {-0}
     aac:	030e6e19 	movweq	r6, #60953	; 0xee19
     ab0:	3b0b3a0e 	blcc	2cf2f0 <__bss_end__+0x2c3e20>
     ab4:	000b390b 	andeq	r3, fp, fp, lsl #18
     ab8:	11010000 	mrsne	r0, (UNDEF: 1)
     abc:	130e2501 	movwne	r2, #58625	; 0xe501
     ac0:	1b0e030b 	blne	3816f4 <__bss_end__+0x376224>
     ac4:	1201110e 	andne	r1, r1, #-2147483645	; 0x80000003
     ac8:	00171006 	andseq	r1, r7, r6
     acc:	00240200 	eoreq	r0, r4, r0, lsl #4
     ad0:	0b3e0b0b 	bleq	f83704 <__bss_end__+0xf78234>
     ad4:	00000803 	andeq	r0, r0, r3, lsl #16
     ad8:	03001603 	movweq	r1, #1539	; 0x603
     adc:	3b0b3a0e 	blcc	2cf31c <__bss_end__+0x2c3e4c>
     ae0:	490b390b 	stmdbmi	fp, {r0, r1, r3, r8, fp, ip, sp}
     ae4:	04000013 	streq	r0, [r0], #-19	; 0xffffffed
     ae8:	0b0b0024 	bleq	2c0b80 <__bss_end__+0x2b56b0>
     aec:	0e030b3e 	vmoveq.16	d3[0], r0
     af0:	15050000 	strne	r0, [r5, #-0]
     af4:	49192701 	ldmdbmi	r9, {r0, r8, r9, sl, sp}
     af8:	00130113 	andseq	r0, r3, r3, lsl r1
     afc:	00050600 	andeq	r0, r5, r0, lsl #12
     b00:	00001349 	andeq	r1, r0, r9, asr #6
     b04:	03003407 	movweq	r3, #1031	; 0x407
     b08:	3b0b3a0e 	blcc	2cf348 <__bss_end__+0x2c3e78>
     b0c:	490b390b 	stmdbmi	fp, {r0, r1, r3, r8, fp, ip, sp}
     b10:	3c193f13 	ldccc	15, cr3, [r9], {19}
     b14:	08000019 	stmdaeq	r0, {r0, r3, r4}
     b18:	0b0b000f 	bleq	2c0b5c <__bss_end__+0x2b568c>
     b1c:	00001349 	andeq	r1, r0, r9, asr #6
     b20:	49002609 	stmdbmi	r0, {r0, r3, r9, sl, sp}
     b24:	0a000013 	beq	b78 <__code_start__-0x7488>
     b28:	193f012e 	ldmdbne	pc!, {r1, r2, r3, r5, r8}	; <UNPREDICTABLE>
     b2c:	0b3a0e03 	bleq	e84340 <__bss_end__+0xe78e70>
     b30:	0b390b3b 	bleq	e43824 <__bss_end__+0xe38354>
     b34:	13491927 	movtne	r1, #39207	; 0x9927
     b38:	06120111 			; <UNDEFINED> instruction: 0x06120111
     b3c:	42971840 	addsmi	r1, r7, #64, 16	; 0x400000
     b40:	00130119 	andseq	r0, r3, r9, lsl r1
     b44:	00050b00 	andeq	r0, r5, r0, lsl #22
     b48:	0b3a0803 	bleq	e82b5c <__bss_end__+0xe7768c>
     b4c:	0b390b3b 	bleq	e43840 <__bss_end__+0xe38370>
     b50:	18021349 	stmdane	r2, {r0, r3, r6, r8, r9, ip}
     b54:	050c0000 	streq	r0, [ip, #-0]
     b58:	3a080300 	bcc	201760 <__bss_end__+0x1f6290>
     b5c:	390b3b0b 	stmdbcc	fp, {r0, r1, r3, r8, r9, fp, ip, sp}
     b60:	0213490b 	andseq	r4, r3, #180224	; 0x2c000
     b64:	1742b717 	smlaldne	fp, r2, r7, r7
     b68:	340d0000 	strcc	r0, [sp], #-0
     b6c:	3a080300 	bcc	201774 <__bss_end__+0x1f62a4>
     b70:	390b3b0b 	stmdbcc	fp, {r0, r1, r3, r8, r9, fp, ip, sp}
     b74:	0213490b 	andseq	r4, r3, #180224	; 0x2c000
     b78:	1742b717 	smlaldne	fp, r2, r7, r7
     b7c:	0f0e0000 	svceq	0x000e0000
     b80:	000b0b00 	andeq	r0, fp, r0, lsl #22
     b84:	11010000 	mrsne	r0, (UNDEF: 1)
     b88:	130e2501 	movwne	r2, #58625	; 0xe501
     b8c:	1b0e030b 	blne	3817c0 <__bss_end__+0x3762f0>
     b90:	1201110e 	andne	r1, r1, #-2147483645	; 0x80000003
     b94:	00171006 	andseq	r1, r7, r6
     b98:	00160200 	andseq	r0, r6, r0, lsl #4
     b9c:	0b3a0e03 	bleq	e843b0 <__bss_end__+0xe78ee0>
     ba0:	0b390b3b 	bleq	e43894 <__bss_end__+0xe383c4>
     ba4:	00001349 	andeq	r1, r0, r9, asr #6
     ba8:	03011303 	movweq	r1, #4867	; 0x1303
     bac:	3a0b0b0e 	bcc	2c37ec <__bss_end__+0x2b831c>
     bb0:	010b3b0b 	tsteq	fp, fp, lsl #22
     bb4:	04000013 	streq	r0, [r0], #-19	; 0xffffffed
     bb8:	0e03000d 	cdpeq	0, 0, cr0, cr3, cr13, {0}
     bbc:	0b381349 	bleq	e058e8 <__bss_end__+0xdfa418>
     bc0:	00001934 	andeq	r1, r0, r4, lsr r9
     bc4:	0b000f05 	bleq	47e0 <__code_start__-0x3820>
     bc8:	0600000b 	streq	r0, [r0], -fp
     bcc:	0b0b0024 	bleq	2c0c64 <__bss_end__+0x2b5794>
     bd0:	08030b3e 	stmdaeq	r3, {r1, r2, r3, r4, r5, r8, r9, fp}
     bd4:	24070000 	strcs	r0, [r7], #-0
     bd8:	3e0b0b00 	vmlacc.f64	d0, d11, d0
     bdc:	000e030b 	andeq	r0, lr, fp, lsl #6
     be0:	01150800 	tsteq	r5, r0, lsl #16
     be4:	13491927 	movtne	r1, #39207	; 0x9927
     be8:	00001301 	andeq	r1, r0, r1, lsl #6
     bec:	49000509 	stmdbmi	r0, {r0, r3, r8, sl}
     bf0:	0a000013 	beq	c44 <__code_start__-0x73bc>
     bf4:	0e030034 	mcreq	0, 0, r0, cr3, cr4, {1}
     bf8:	0b3b0b3a 	bleq	ec38e8 <__bss_end__+0xeb8418>
     bfc:	13490b39 	movtne	r0, #39737	; 0x9b39
     c00:	193c193f 	ldmdbne	ip!, {r0, r1, r2, r3, r4, r5, r8, fp, ip}
     c04:	0f0b0000 	svceq	0x000b0000
     c08:	490b0b00 	stmdbmi	fp, {r8, r9, fp}
     c0c:	0c000013 	stceq	0, cr0, [r0], {19}
     c10:	13490026 	movtne	r0, #36902	; 0x9026
     c14:	2e0d0000 	cdpcs	0, 0, cr0, cr13, cr0, {0}
     c18:	03193f01 	tsteq	r9, #1, 30
     c1c:	3b0b3a0e 	blcc	2cf45c <__bss_end__+0x2c3f8c>
     c20:	270b390b 	strcs	r3, [fp, -fp, lsl #18]
     c24:	11134919 	tstne	r3, r9, lsl r9
     c28:	40061201 	andmi	r1, r6, r1, lsl #4
     c2c:	19429718 	stmdbne	r2, {r3, r4, r8, r9, sl, ip, pc}^
     c30:	00001301 	andeq	r1, r0, r1, lsl #6
     c34:	0300050e 	movweq	r0, #1294	; 0x50e
     c38:	3b0b3a08 	blcc	2cf460 <__bss_end__+0x2c3f90>
     c3c:	490b390b 	stmdbmi	fp, {r0, r1, r3, r8, fp, ip, sp}
     c40:	00180213 	andseq	r0, r8, r3, lsl r2
     c44:	00180f00 	andseq	r0, r8, r0, lsl #30
     c48:	34100000 	ldrcc	r0, [r0], #-0
     c4c:	3a080300 	bcc	201854 <__bss_end__+0x1f6384>
     c50:	390b3b0b 	stmdbcc	fp, {r0, r1, r3, r8, r9, fp, ip, sp}
     c54:	0213490b 	andseq	r4, r3, #180224	; 0x2c000
     c58:	11000018 	tstne	r0, r8, lsl r0
     c5c:	0e030034 	mcreq	0, 0, r0, cr3, cr4, {1}
     c60:	0b3b0b3a 	bleq	ec3950 <__bss_end__+0xeb8480>
     c64:	13490b39 	movtne	r0, #39737	; 0x9b39
     c68:	00001802 	andeq	r1, r0, r2, lsl #16
     c6c:	03003412 	movweq	r3, #1042	; 0x412
     c70:	3b0b3a08 	blcc	2cf498 <__bss_end__+0x2c3fc8>
     c74:	490b390b 	stmdbmi	fp, {r0, r1, r3, r8, fp, ip, sp}
     c78:	b7170213 			; <UNDEFINED> instruction: 0xb7170213
     c7c:	00001742 	andeq	r1, r0, r2, asr #14
     c80:	01828913 	orreq	r8, r2, r3, lsl r9
     c84:	31011101 	tstcc	r1, r1, lsl #2
     c88:	00130113 	andseq	r0, r3, r3, lsl r1
     c8c:	828a1400 	addhi	r1, sl, #0, 8
     c90:	18020001 	stmdane	r2, {r0}
     c94:	00184291 	mulseq	r8, r1, r2
     c98:	82891500 	addhi	r1, r9, #0, 10
     c9c:	01110101 	tsteq	r1, r1, lsl #2
     ca0:	01160000 	tsteq	r6, r0
     ca4:	01134901 	tsteq	r3, r1, lsl #18
     ca8:	17000013 	smladne	r0, r3, r0, r0
     cac:	13490021 	movtne	r0, #36897	; 0x9021
     cb0:	0000052f 	andeq	r0, r0, pc, lsr #10
     cb4:	3f002e18 	svccc	0x00002e18
     cb8:	6e193c19 	mrcvs	12, 0, r3, cr9, cr9, {0}
     cbc:	3a0e030e 	bcc	3818fc <__bss_end__+0x37642c>
     cc0:	390b3b0b 	stmdbcc	fp, {r0, r1, r3, r8, r9, fp, ip, sp}
     cc4:	0000000b 	andeq	r0, r0, fp
     cc8:	25011101 	strcs	r1, [r1, #-257]	; 0xfffffeff
     ccc:	030b130e 	movweq	r1, #45838	; 0xb30e
     cd0:	110e1b0e 	tstne	lr, lr, lsl #22
     cd4:	10061201 	andne	r1, r6, r1, lsl #4
     cd8:	02000017 	andeq	r0, r0, #23, 0
     cdc:	0b0b0024 	bleq	2c0d74 <__bss_end__+0x2b58a4>
     ce0:	08030b3e 	stmdaeq	r3, {r1, r2, r3, r4, r5, r8, r9, fp}
     ce4:	24030000 	strcs	r0, [r3], #-0
     ce8:	3e0b0b00 	vmlacc.f64	d0, d11, d0
     cec:	000e030b 	andeq	r0, lr, fp, lsl #6
     cf0:	01150400 	tsteq	r5, r0, lsl #8
     cf4:	13491927 	movtne	r1, #39207	; 0x9927
     cf8:	00001301 	andeq	r1, r0, r1, lsl #6
     cfc:	49000505 	stmdbmi	r0, {r0, r2, r8, sl}
     d00:	06000013 			; <UNDEFINED> instruction: 0x06000013
     d04:	0e030034 	mcreq	0, 0, r0, cr3, cr4, {1}
     d08:	0b3b0b3a 	bleq	ec39f8 <__bss_end__+0xeb8528>
     d0c:	13490b39 	movtne	r0, #39737	; 0x9b39
     d10:	193c193f 	ldmdbne	ip!, {r0, r1, r2, r3, r4, r5, r8, fp, ip}
     d14:	0f070000 	svceq	0x00070000
     d18:	490b0b00 	stmdbmi	fp, {r8, r9, fp}
     d1c:	08000013 	stmdaeq	r0, {r0, r1, r4}
     d20:	13490026 	movtne	r0, #36902	; 0x9026
     d24:	34090000 	strcc	r0, [r9], #-0
     d28:	3a134700 	bcc	4d2930 <__bss_end__+0x4c7460>
     d2c:	390b3b0b 	stmdbcc	fp, {r0, r1, r3, r8, r9, fp, ip, sp}
     d30:	0018020b 	andseq	r0, r8, fp, lsl #4
     d34:	012e0a00 			; <UNDEFINED> instruction: 0x012e0a00
     d38:	0e03193f 			; <UNDEFINED> instruction: 0x0e03193f
     d3c:	0b3b0b3a 	bleq	ec3a2c <__bss_end__+0xeb855c>
     d40:	19270b39 	stmdbne	r7!, {r0, r3, r4, r5, r8, r9, fp}
     d44:	01111349 	tsteq	r1, r9, asr #6
     d48:	18400612 	stmdane	r0, {r1, r4, r9, sl}^
     d4c:	00194296 	mulseq	r9, r6, r2
     d50:	00050b00 	andeq	r0, r5, r0, lsl #22
     d54:	0b3a0803 	bleq	e82d68 <__bss_end__+0xe77898>
     d58:	0b390b3b 	bleq	e43a4c <__bss_end__+0xe3857c>
     d5c:	17021349 	strne	r1, [r2, -r9, asr #6]
     d60:	001742b7 			; <UNDEFINED> instruction: 0x001742b7
     d64:	11010000 	mrsne	r0, (UNDEF: 1)
     d68:	130e2501 	movwne	r2, #58625	; 0xe501
     d6c:	1b0e030b 	blne	3819a0 <__bss_end__+0x3764d0>
     d70:	1201110e 	andne	r1, r1, #-2147483645	; 0x80000003
     d74:	00171006 	andseq	r1, r7, r6
     d78:	00240200 	eoreq	r0, r4, r0, lsl #4
     d7c:	0b3e0b0b 	bleq	f839b0 <__bss_end__+0xf784e0>
     d80:	00000803 	andeq	r0, r0, r3, lsl #16
     d84:	0b002403 	bleq	9d98 <rpi_reboot+0x20>
     d88:	030b3e0b 	movweq	r3, #48651	; 0xbe0b
     d8c:	0400000e 	streq	r0, [r0], #-14
     d90:	19270115 	stmdbne	r7!, {r0, r2, r4, r8}
     d94:	13011349 	movwne	r1, #4937	; 0x1349
     d98:	05050000 	streq	r0, [r5, #-0]
     d9c:	00134900 	andseq	r4, r3, r0, lsl #18
     da0:	00340600 	eorseq	r0, r4, r0, lsl #12
     da4:	0b3a0e03 	bleq	e845b8 <__bss_end__+0xe790e8>
     da8:	0b390b3b 	bleq	e43a9c <__bss_end__+0xe385cc>
     dac:	193f1349 	ldmdbne	pc!, {r0, r3, r6, r8, r9, ip}	; <UNPREDICTABLE>
     db0:	0000193c 	andeq	r1, r0, ip, lsr r9
     db4:	0b000f07 	bleq	49d8 <__code_start__-0x3628>
     db8:	0013490b 	andseq	r4, r3, fp, lsl #18
     dbc:	00260800 	eoreq	r0, r6, r0, lsl #16
     dc0:	00001349 	andeq	r1, r0, r9, asr #6
     dc4:	03003409 	movweq	r3, #1033	; 0x409
     dc8:	3b0b3a0e 	blcc	2cf608 <__bss_end__+0x2c4138>
     dcc:	490b390b 	stmdbmi	fp, {r0, r1, r3, r8, fp, ip, sp}
     dd0:	00180213 	andseq	r0, r8, r3, lsl r2
     dd4:	00340a00 	eorseq	r0, r4, r0, lsl #20
     dd8:	0b3a0803 	bleq	e82dec <__bss_end__+0xe7791c>
     ddc:	0b390b3b 	bleq	e43ad0 <__bss_end__+0xe38600>
     de0:	00001349 	andeq	r1, r0, r9, asr #6
     de4:	3f012e0b 	svccc	0x00012e0b
     de8:	3a0e0319 	bcc	381a54 <__bss_end__+0x376584>
     dec:	390b3b0b 	stmdbcc	fp, {r0, r1, r3, r8, r9, fp, ip, sp}
     df0:	1119270b 	tstne	r9, fp, lsl #14
     df4:	40061201 	andmi	r1, r6, r1, lsl #4
     df8:	19429718 	stmdbne	r2, {r3, r4, r8, r9, sl, ip, pc}^
     dfc:	00001301 	andeq	r1, r0, r1, lsl #6
     e00:	0300050c 	movweq	r0, #1292	; 0x50c
     e04:	3b0b3a0e 	blcc	2cf644 <__bss_end__+0x2c4174>
     e08:	490b390b 	stmdbmi	fp, {r0, r1, r3, r8, fp, ip, sp}
     e0c:	00180213 	andseq	r0, r8, r3, lsl r2
     e10:	012e0d00 			; <UNDEFINED> instruction: 0x012e0d00
     e14:	0e03193f 			; <UNDEFINED> instruction: 0x0e03193f
     e18:	0b3b0b3a 	bleq	ec3b08 <__bss_end__+0xeb8638>
     e1c:	19270b39 	stmdbne	r7!, {r0, r3, r4, r5, r8, r9, fp}
     e20:	01111349 	tsteq	r1, r9, asr #6
     e24:	18400612 	stmdane	r0, {r1, r4, r9, sl}^
     e28:	01194297 			; <UNDEFINED> instruction: 0x01194297
     e2c:	0e000013 	mcreq	0, 0, r0, cr0, cr3, {0}
     e30:	1331001d 	teqne	r1, #29, 0
     e34:	42b80152 	adcsmi	r0, r8, #-2147483628	; 0x80000014
     e38:	1201110b 	andne	r1, r1, #-1073741822	; 0xc0000002
     e3c:	590b5806 	stmdbpl	fp, {r1, r2, fp, ip, lr}
     e40:	000b570b 	andeq	r5, fp, fp, lsl #14
     e44:	002e0f00 	eoreq	r0, lr, r0, lsl #30
     e48:	0e03193f 			; <UNDEFINED> instruction: 0x0e03193f
     e4c:	0b3b0b3a 	bleq	ec3b3c <__bss_end__+0xeb866c>
     e50:	19270b39 	stmdbne	r7!, {r0, r3, r4, r5, r8, r9, fp}
     e54:	0b201349 	bleq	805b80 <__bss_end__+0x7fa6b0>
     e58:	2e100000 	cdpcs	0, 1, cr0, cr0, cr0, {0}
     e5c:	11133100 	tstne	r3, r0, lsl #2
     e60:	40061201 	andmi	r1, r6, r1, lsl #4
     e64:	19429718 	stmdbne	r2, {r3, r4, r8, r9, sl, ip, pc}^
     e68:	01000000 	mrseq	r0, (UNDEF: 0)
     e6c:	0e250111 	mcreq	1, 1, r0, cr5, cr1, {0}
     e70:	0e030b13 	vmoveq.32	d3[0], r0
     e74:	01110e1b 	tsteq	r1, fp, lsl lr
     e78:	17100612 			; <UNDEFINED> instruction: 0x17100612
     e7c:	24020000 	strcs	r0, [r2], #-0
     e80:	3e0b0b00 	vmlacc.f64	d0, d11, d0
     e84:	000e030b 	andeq	r0, lr, fp, lsl #6
     e88:	00240300 	eoreq	r0, r4, r0, lsl #6
     e8c:	0b3e0b0b 	bleq	f83ac0 <__bss_end__+0xf785f0>
     e90:	00000803 	andeq	r0, r0, r3, lsl #16
     e94:	03001604 	movweq	r1, #1540	; 0x604
     e98:	3b0b3a0e 	blcc	2cf6d8 <__bss_end__+0x2c4208>
     e9c:	490b390b 	stmdbmi	fp, {r0, r1, r3, r8, fp, ip, sp}
     ea0:	05000013 	streq	r0, [r0, #-19]	; 0xffffffed
     ea4:	19270115 	stmdbne	r7!, {r0, r2, r4, r8}
     ea8:	13011349 	movwne	r1, #4937	; 0x1349
     eac:	05060000 	streq	r0, [r6, #-0]
     eb0:	00134900 	andseq	r4, r3, r0, lsl #18
     eb4:	00340700 	eorseq	r0, r4, r0, lsl #14
     eb8:	0b3a0e03 	bleq	e846cc <__bss_end__+0xe791fc>
     ebc:	0b390b3b 	bleq	e43bb0 <__bss_end__+0xe386e0>
     ec0:	193f1349 	ldmdbne	pc!, {r0, r3, r6, r8, r9, ip}	; <UNPREDICTABLE>
     ec4:	0000193c 	andeq	r1, r0, ip, lsr r9
     ec8:	0b000f08 	bleq	4af0 <__code_start__-0x3510>
     ecc:	0013490b 	andseq	r4, r3, fp, lsl #18
     ed0:	00260900 	eoreq	r0, r6, r0, lsl #18
     ed4:	00001349 	andeq	r1, r0, r9, asr #6
     ed8:	0301130a 	movweq	r1, #4874	; 0x130a
     edc:	3a0b0b0e 	bcc	2c3b1c <__bss_end__+0x2b864c>
     ee0:	010b3b0b 	tsteq	fp, fp, lsl #22
     ee4:	0b000013 	bleq	f38 <__code_start__-0x70c8>
     ee8:	0e03000d 	cdpeq	0, 0, cr0, cr3, cr13, {0}
     eec:	0b381349 	bleq	e05c18 <__bss_end__+0xdfa748>
     ef0:	00001934 	andeq	r1, r0, r4, lsr r9
     ef4:	0b000f0c 	bleq	4b2c <__code_start__-0x34d4>
     ef8:	0d00000b 	stceq	0, cr0, [r0, #-44]	; 0xffffffd4
     efc:	193f012e 	ldmdbne	pc!, {r1, r2, r3, r5, r8}	; <UNPREDICTABLE>
     f00:	0b3a0e03 	bleq	e84714 <__bss_end__+0xe79244>
     f04:	0b390b3b 	bleq	e43bf8 <__bss_end__+0xe38728>
     f08:	13491927 	movtne	r1, #39207	; 0x9927
     f0c:	06120111 			; <UNDEFINED> instruction: 0x06120111
     f10:	42971840 	addsmi	r1, r7, #64, 16	; 0x400000
     f14:	00130119 	andseq	r0, r3, r9, lsl r1
     f18:	00050e00 	andeq	r0, r5, r0, lsl #28
     f1c:	0b3a0803 	bleq	e82f30 <__bss_end__+0xe77a60>
     f20:	0b390b3b 	bleq	e43c14 <__bss_end__+0xe38744>
     f24:	17021349 	strne	r1, [r2, -r9, asr #6]
     f28:	001742b7 			; <UNDEFINED> instruction: 0x001742b7
     f2c:	00050f00 	andeq	r0, r5, r0, lsl #30
     f30:	0b3a0e03 	bleq	e84744 <__bss_end__+0xe79274>
     f34:	0b390b3b 	bleq	e43c28 <__bss_end__+0xe38758>
     f38:	17021349 	strne	r1, [r2, -r9, asr #6]
     f3c:	001742b7 			; <UNDEFINED> instruction: 0x001742b7
     f40:	00341000 	eorseq	r1, r4, r0
     f44:	0b3a0803 	bleq	e82f58 <__bss_end__+0xe77a88>
     f48:	0b390b3b 	bleq	e43c3c <__bss_end__+0xe3876c>
     f4c:	17021349 	strne	r1, [r2, -r9, asr #6]
     f50:	001742b7 			; <UNDEFINED> instruction: 0x001742b7
     f54:	00341100 	eorseq	r1, r4, r0, lsl #2
     f58:	0b3a0e03 	bleq	e8476c <__bss_end__+0xe7929c>
     f5c:	0b390b3b 	bleq	e43c50 <__bss_end__+0xe38780>
     f60:	17021349 	strne	r1, [r2, -r9, asr #6]
     f64:	001742b7 			; <UNDEFINED> instruction: 0x001742b7
     f68:	00341200 	eorseq	r1, r4, r0, lsl #4
     f6c:	13490e03 	movtne	r0, #40451	; 0x9e03
     f70:	18021934 	stmdane	r2, {r2, r4, r5, r8, fp, ip}
     f74:	0b130000 	bleq	4c0f7c <__bss_end__+0x4b5aac>
     f78:	00175501 	andseq	r5, r7, r1, lsl #10
     f7c:	00341400 	eorseq	r1, r4, r0, lsl #8
     f80:	0b3a0803 	bleq	e82f94 <__bss_end__+0xe77ac4>
     f84:	0b390b3b 	bleq	e43c78 <__bss_end__+0xe387a8>
     f88:	18021349 	stmdane	r2, {r0, r3, r6, r8, r9, ip}
     f8c:	34150000 	ldrcc	r0, [r5], #-0
     f90:	3a0e0300 	bcc	381b98 <__bss_end__+0x3766c8>
     f94:	390b3b0b 	stmdbcc	fp, {r0, r1, r3, r8, r9, fp, ip, sp}
     f98:	0213490b 	andseq	r4, r3, #180224	; 0x2c000
     f9c:	16000018 			; <UNDEFINED> instruction: 0x16000018
     fa0:	1755010b 	ldrbne	r0, [r5, -fp, lsl #2]
     fa4:	00001301 	andeq	r1, r0, r1, lsl #6
     fa8:	01828917 	orreq	r8, r2, r7, lsl r9
     fac:	31011101 	tstcc	r1, r1, lsl #2
     fb0:	00130113 	andseq	r0, r3, r3, lsl r1
     fb4:	828a1800 	addhi	r1, sl, #0, 16
     fb8:	18020001 	stmdane	r2, {r0}
     fbc:	00184291 	mulseq	r8, r1, r2
     fc0:	82891900 	addhi	r1, r9, #0, 18
     fc4:	01110001 	tsteq	r1, r1
     fc8:	00001331 	andeq	r1, r0, r1, lsr r3
     fcc:	31011d1a 	tstcc	r1, sl, lsl sp
     fd0:	b8015213 	stmdalt	r1, {r0, r1, r4, r9, ip, lr}
     fd4:	17550542 	ldrbne	r0, [r5, -r2, asr #10]
     fd8:	0b590b58 	bleq	1643d40 <__bss_end__+0x1638870>
     fdc:	13010b57 	movwne	r0, #6999	; 0x1b57
     fe0:	051b0000 	ldreq	r0, [fp, #-0]
     fe4:	02133100 	andseq	r3, r3, #0
     fe8:	1742b717 	smlaldne	fp, r2, r7, r7
     fec:	051c0000 	ldreq	r0, [ip, #-0]
     ff0:	00133100 	andseq	r3, r3, r0, lsl #2
     ff4:	00341d00 	eorseq	r1, r4, r0, lsl #26
     ff8:	18021331 	stmdane	r2, {r0, r4, r5, r8, r9, ip}
     ffc:	341e0000 	ldrcc	r0, [lr], #-0
    1000:	02133100 	andseq	r3, r3, #0
    1004:	1742b717 	smlaldne	fp, r2, r7, r7
    1008:	341f0000 	ldrcc	r0, [pc], #-0	; 1010 <__code_start__-0x6ff0>
    100c:	00133100 	andseq	r3, r3, r0, lsl #2
    1010:	011d2000 	tsteq	sp, r0
    1014:	01521331 	cmpeq	r2, r1, lsr r3
    1018:	550542b8 	strpl	r4, [r5, #-696]	; 0xfffffd48
    101c:	590b5817 	stmdbpl	fp, {r0, r1, r2, r4, fp, ip, lr}
    1020:	000b570b 	andeq	r5, fp, fp, lsl #14
    1024:	82892100 	addhi	r2, r9, #0
    1028:	01110101 	tsteq	r1, r1, lsl #2
    102c:	00001301 	andeq	r1, r0, r1, lsl #6
    1030:	49010122 	stmdbmi	r1, {r1, r5, r8}
    1034:	00130113 	andseq	r0, r3, r3, lsl r1
    1038:	00212300 	eoreq	r2, r1, r0, lsl #6
    103c:	0b2f1349 	bleq	bc5d68 <__bss_end__+0xbba898>
    1040:	2e240000 	cdpcs	0, 2, cr0, cr4, cr0, {0}
    1044:	3a0e0301 	bcc	381c50 <__bss_end__+0x376780>
    1048:	390b3b0b 	stmdbcc	fp, {r0, r1, r3, r8, r9, fp, ip, sp}
    104c:	4919270b 	ldmdbmi	r9, {r0, r1, r3, r8, r9, sl, sp}
    1050:	010b2013 	tsteq	fp, r3, lsl r0
    1054:	25000013 	strcs	r0, [r0, #-19]	; 0xffffffed
    1058:	0e030005 	cdpeq	0, 0, cr0, cr3, cr5, {0}
    105c:	0b3b0b3a 	bleq	ec3d4c <__bss_end__+0xeb887c>
    1060:	13490b39 	movtne	r0, #39737	; 0x9b39
    1064:	05260000 	streq	r0, [r6, #-0]!
    1068:	3a080300 	bcc	201c70 <__bss_end__+0x1f67a0>
    106c:	390b3b0b 	stmdbcc	fp, {r0, r1, r3, r8, r9, fp, ip, sp}
    1070:	0013490b 	andseq	r4, r3, fp, lsl #18
    1074:	00342700 	eorseq	r2, r4, r0, lsl #14
    1078:	0b3a0803 	bleq	e8308c <__bss_end__+0xe77bbc>
    107c:	0b390b3b 	bleq	e43d70 <__bss_end__+0xe388a0>
    1080:	00001349 	andeq	r1, r0, r9, asr #6
    1084:	00010b28 	andeq	r0, r1, r8, lsr #22
    1088:	00342900 	eorseq	r2, r4, r0, lsl #18
    108c:	0b3a0e03 	bleq	e848a0 <__bss_end__+0xe793d0>
    1090:	0b390b3b 	bleq	e43d84 <__bss_end__+0xe388b4>
    1094:	00001349 	andeq	r1, r0, r9, asr #6
    1098:	03012e2a 	movweq	r2, #7722	; 0x1e2a
    109c:	3b0b3a08 	blcc	2cf8c4 <__bss_end__+0x2c43f4>
    10a0:	270b390b 	strcs	r3, [fp, -fp, lsl #18]
    10a4:	20134919 	andscs	r4, r3, r9, lsl r9
    10a8:	0013010b 	andseq	r0, r3, fp, lsl #2
    10ac:	012e2b00 			; <UNDEFINED> instruction: 0x012e2b00
    10b0:	0e03193f 			; <UNDEFINED> instruction: 0x0e03193f
    10b4:	0b3b0b3a 	bleq	ec3da4 <__bss_end__+0xeb88d4>
    10b8:	19270b39 	stmdbne	r7!, {r0, r3, r4, r5, r8, r9, fp}
    10bc:	06120111 			; <UNDEFINED> instruction: 0x06120111
    10c0:	42971840 	addsmi	r1, r7, #64, 16	; 0x400000
    10c4:	00130119 	andseq	r0, r3, r9, lsl r1
    10c8:	012e2c00 			; <UNDEFINED> instruction: 0x012e2c00
    10cc:	01111331 	tsteq	r1, r1, lsr r3
    10d0:	18400612 	stmdane	r0, {r1, r4, r9, sl}^
    10d4:	01194297 			; <UNDEFINED> instruction: 0x01194297
    10d8:	2d000013 	stccs	0, cr0, [r0, #-76]	; 0xffffffb4
    10dc:	13310005 	teqne	r1, #5, 0
    10e0:	00001802 	andeq	r1, r0, r2, lsl #16
    10e4:	3100052e 	tstcc	r0, lr, lsr #10
    10e8:	000b1c13 	andeq	r1, fp, r3, lsl ip
    10ec:	010b2f00 	tsteq	fp, r0, lsl #30
    10f0:	01111331 	tsteq	r1, r1, lsr r3
    10f4:	13010612 	movwne	r0, #5650	; 0x1612
    10f8:	2e300000 	cdpcs	0, 3, cr0, cr0, cr0, {0}
    10fc:	3c193f00 	ldccc	15, cr3, [r9], {-0}
    1100:	030e6e19 	movweq	r6, #60953	; 0xee19
    1104:	3b0b3a0e 	blcc	2cf944 <__bss_end__+0x2c4474>
    1108:	000b390b 	andeq	r3, fp, fp, lsl #18
    110c:	11010000 	mrsne	r0, (UNDEF: 1)
    1110:	130e2501 	movwne	r2, #58625	; 0xe501
    1114:	1b0e030b 	blne	381d48 <__bss_end__+0x376878>
    1118:	1201110e 	andne	r1, r1, #-2147483645	; 0x80000003
    111c:	00171006 	andseq	r1, r7, r6
    1120:	00240200 	eoreq	r0, r4, r0, lsl #4
    1124:	0b3e0b0b 	bleq	f83d58 <__bss_end__+0xf78888>
    1128:	00000803 	andeq	r0, r0, r3, lsl #16
    112c:	0b002403 	bleq	a140 <kmalloc_init_set_start+0x2c>
    1130:	030b3e0b 	movweq	r3, #48651	; 0xbe0b
    1134:	0400000e 	streq	r0, [r0], #-14
    1138:	19270115 	stmdbne	r7!, {r0, r2, r4, r8}
    113c:	13011349 	movwne	r1, #4937	; 0x1349
    1140:	05050000 	streq	r0, [r5, #-0]
    1144:	00134900 	andseq	r4, r3, r0, lsl #18
    1148:	00340600 	eorseq	r0, r4, r0, lsl #12
    114c:	0b3a0e03 	bleq	e84960 <__bss_end__+0xe79490>
    1150:	0b390b3b 	bleq	e43e44 <__bss_end__+0xe38974>
    1154:	193f1349 	ldmdbne	pc!, {r0, r3, r6, r8, r9, ip}	; <UNPREDICTABLE>
    1158:	0000193c 	andeq	r1, r0, ip, lsr r9
    115c:	0b000f07 	bleq	4d80 <__code_start__-0x3280>
    1160:	0013490b 	andseq	r4, r3, fp, lsl #18
    1164:	00260800 	eoreq	r0, r6, r0, lsl #16
    1168:	00001349 	andeq	r1, r0, r9, asr #6
    116c:	3f012e09 	svccc	0x00012e09
    1170:	3a0e0319 	bcc	381ddc <__bss_end__+0x37690c>
    1174:	390b3b0b 	stmdbcc	fp, {r0, r1, r3, r8, r9, fp, ip, sp}
    1178:	8719270b 	ldrhi	r2, [r9, -fp, lsl #14]
    117c:	01111901 	tsteq	r1, r1, lsl #18
    1180:	18400612 	stmdane	r0, {r1, r4, r9, sl}^
    1184:	01194297 			; <UNDEFINED> instruction: 0x01194297
    1188:	0a000013 	beq	11dc <__code_start__-0x6e24>
    118c:	01018289 	smlabbeq	r1, r9, r2, r8
    1190:	13010111 	movwne	r0, #4369	; 0x1111
    1194:	8a0b0000 	bhi	2c119c <__bss_end__+0x2b5ccc>
    1198:	02000182 	andeq	r0, r0, #-2147483616	; 0x80000020
    119c:	18429118 	stmdane	r2, {r3, r4, r8, ip, pc}^
    11a0:	890c0000 	stmdbhi	ip, {}	; <UNPREDICTABLE>
    11a4:	11000182 	smlabbne	r0, r2, r1, r0
    11a8:	00133101 	andseq	r3, r3, r1, lsl #2
    11ac:	82890d00 	addhi	r0, r9, #0, 26
    11b0:	01110101 	tsteq	r1, r1, lsl #2
    11b4:	13011331 	movwne	r1, #4913	; 0x1331
    11b8:	2e0e0000 	cdpcs	0, 0, cr0, cr14, cr0, {0}
    11bc:	3c193f00 	ldccc	15, cr3, [r9], {-0}
    11c0:	030e6e19 	movweq	r6, #60953	; 0xee19
    11c4:	3b0b3a0e 	blcc	2cfa04 <__bss_end__+0x2c4534>
    11c8:	000b390b 	andeq	r3, fp, fp, lsl #18
    11cc:	11010000 	mrsne	r0, (UNDEF: 1)
    11d0:	130e2501 	movwne	r2, #58625	; 0xe501
    11d4:	1b0e030b 	blne	381e08 <__bss_end__+0x376938>
    11d8:	1201110e 	andne	r1, r1, #-2147483645	; 0x80000003
    11dc:	00171006 	andseq	r1, r7, r6
    11e0:	00240200 	eoreq	r0, r4, r0, lsl #4
    11e4:	0b3e0b0b 	bleq	f83e18 <__bss_end__+0xf78948>
    11e8:	00000803 	andeq	r0, r0, r3, lsl #16
    11ec:	0b002403 	bleq	a200 <kmalloc_init+0x50>
    11f0:	030b3e0b 	movweq	r3, #48651	; 0xbe0b
    11f4:	0400000e 	streq	r0, [r0], #-14
    11f8:	19270115 	stmdbne	r7!, {r0, r2, r4, r8}
    11fc:	13011349 	movwne	r1, #4937	; 0x1349
    1200:	05050000 	streq	r0, [r5, #-0]
    1204:	00134900 	andseq	r4, r3, r0, lsl #18
    1208:	00340600 	eorseq	r0, r4, r0, lsl #12
    120c:	0b3a0e03 	bleq	e84a20 <__bss_end__+0xe79550>
    1210:	0b390b3b 	bleq	e43f04 <__bss_end__+0xe38a34>
    1214:	193f1349 	ldmdbne	pc!, {r0, r3, r6, r8, r9, ip}	; <UNPREDICTABLE>
    1218:	0000193c 	andeq	r1, r0, ip, lsr r9
    121c:	0b000f07 	bleq	4e40 <__code_start__-0x31c0>
    1220:	0013490b 	andseq	r4, r3, fp, lsl #18
    1224:	00260800 	eoreq	r0, r6, r0, lsl #16
    1228:	00001349 	andeq	r1, r0, r9, asr #6
    122c:	3f012e09 	svccc	0x00012e09
    1230:	3a0e0319 	bcc	381e9c <__bss_end__+0x3769cc>
    1234:	390b3b0b 	stmdbcc	fp, {r0, r1, r3, r8, r9, fp, ip, sp}
    1238:	1201110b 	andne	r1, r1, #-1073741822	; 0xc0000002
    123c:	97184006 	ldrls	r4, [r8, -r6]
    1240:	13011942 	movwne	r1, #6466	; 0x1942
    1244:	2e0a0000 	cdpcs	0, 0, cr0, cr10, cr0, {0}
    1248:	03193f00 	tsteq	r9, #0, 30
    124c:	3b0b3a0e 	blcc	2cfa8c <__bss_end__+0x2c45bc>
    1250:	270b390b 	strcs	r3, [fp, -fp, lsl #18]
    1254:	00193c19 	andseq	r3, r9, r9, lsl ip
    1258:	00340b00 	eorseq	r0, r4, r0, lsl #22
    125c:	0b3a0803 	bleq	e83270 <__bss_end__+0xe77da0>
    1260:	0b390b3b 	bleq	e43f54 <__bss_end__+0xe38a84>
    1264:	17021349 	strne	r1, [r2, -r9, asr #6]
    1268:	001742b7 			; <UNDEFINED> instruction: 0x001742b7
    126c:	00340c00 	eorseq	r0, r4, r0, lsl #24
    1270:	0b3a0e03 	bleq	e84a84 <__bss_end__+0xe795b4>
    1274:	0b390b3b 	bleq	e43f68 <__bss_end__+0xe38a98>
    1278:	00001349 	andeq	r1, r0, r9, asr #6
    127c:	0300340d 	movweq	r3, #1037	; 0x40d
    1280:	3b0b3a0e 	blcc	2cfac0 <__bss_end__+0x2c45f0>
    1284:	490b390b 	stmdbmi	fp, {r0, r1, r3, r8, fp, ip, sp}
    1288:	b7170213 			; <UNDEFINED> instruction: 0xb7170213
    128c:	00001742 	andeq	r1, r0, r2, asr #14
    1290:	11010b0e 	tstne	r1, lr, lsl #22
    1294:	01061201 	tsteq	r6, r1, lsl #4
    1298:	0f000013 	svceq	0x00000013
    129c:	1331011d 	teqne	r1, #1073741831	; 0x40000007
    12a0:	42b80152 	adcsmi	r0, r8, #-2147483628	; 0x80000014
    12a4:	1201110b 	andne	r1, r1, #-1073741822	; 0xc0000002
    12a8:	590b5806 	stmdbpl	fp, {r1, r2, fp, ip, lr}
    12ac:	010b570b 	tsteq	fp, fp, lsl #14
    12b0:	10000013 	andne	r0, r0, r3, lsl r0
    12b4:	13310034 	teqne	r1, #52, 0	; 0x34
    12b8:	42b71702 	adcsmi	r1, r7, #524288	; 0x80000
    12bc:	11000017 	tstne	r0, r7, lsl r0
    12c0:	1331010b 	teqne	r1, #-1073741822	; 0xc0000002
    12c4:	06120111 			; <UNDEFINED> instruction: 0x06120111
    12c8:	1d120000 	ldcne	0, cr0, [r2, #-0]
    12cc:	52133101 	andspl	r3, r3, #1073741824	; 0x40000000
    12d0:	0b42b801 	bleq	10af2dc <__bss_end__+0x10a3e0c>
    12d4:	0b581755 	bleq	1607030 <__bss_end__+0x15fbb60>
    12d8:	0b570b59 	bleq	15c4044 <__bss_end__+0x15b8b74>
    12dc:	00001301 	andeq	r1, r0, r1, lsl #6
    12e0:	55010b13 	strpl	r0, [r1, #-2835]	; 0xfffff4ed
    12e4:	14000017 	strne	r0, [r0], #-23	; 0xffffffe9
    12e8:	00018289 	andeq	r8, r1, r9, lsl #5
    12ec:	13310111 	teqne	r1, #1073741828	; 0x40000004
    12f0:	89150000 	ldmdbhi	r5, {}	; <UNPREDICTABLE>
    12f4:	11010182 	smlabbne	r1, r2, r1, r0
    12f8:	01133101 	tsteq	r3, r1, lsl #2
    12fc:	16000013 			; <UNDEFINED> instruction: 0x16000013
    1300:	0001828a 	andeq	r8, r1, sl, lsl #5
    1304:	42911802 	addsmi	r1, r1, #131072	; 0x20000
    1308:	17000018 	smladne	r0, r8, r0, r0
    130c:	0e03012e 	adfeqsp	f0, f3, #0.5
    1310:	0b3b0b3a 	bleq	ec4000 <__bss_end__+0xeb8b30>
    1314:	19270b39 	stmdbne	r7!, {r0, r3, r4, r5, r8, r9, fp}
    1318:	0b201349 	bleq	806044 <__bss_end__+0x7fab74>
    131c:	00001301 	andeq	r1, r0, r1, lsl #6
    1320:	03003418 	movweq	r3, #1048	; 0x418
    1324:	3b0b3a0e 	blcc	2cfb64 <__bss_end__+0x2c4694>
    1328:	490b390b 	stmdbmi	fp, {r0, r1, r3, r8, fp, ip, sp}
    132c:	00180213 	andseq	r0, r8, r3, lsl r2
    1330:	00341900 	eorseq	r1, r4, r0, lsl #18
    1334:	0b3a0803 	bleq	e83348 <__bss_end__+0xe77e78>
    1338:	0b390b3b 	bleq	e4402c <__bss_end__+0xe38b5c>
    133c:	00001349 	andeq	r1, r0, r9, asr #6
    1340:	00010b1a 	andeq	r0, r1, sl, lsl fp
    1344:	002e1b00 	eoreq	r1, lr, r0, lsl #22
    1348:	193c193f 	ldmdbne	ip!, {r0, r1, r2, r3, r4, r5, r8, fp, ip}
    134c:	0e030e6e 	cdpeq	14, 0, cr0, cr3, cr14, {3}
    1350:	053b0b3a 	ldreq	r0, [fp, #-2874]!	; 0xfffff4c6
    1354:	00000b39 	andeq	r0, r0, r9, lsr fp
    1358:	3f002e1c 	svccc	0x00002e1c
    135c:	6e193c19 	mrcvs	12, 0, r3, cr9, cr9, {0}
    1360:	3a0e030e 	bcc	381fa0 <__bss_end__+0x376ad0>
    1364:	390b3b0b 	stmdbcc	fp, {r0, r1, r3, r8, r9, fp, ip, sp}
    1368:	0000000b 	andeq	r0, r0, fp
    136c:	25011101 	strcs	r1, [r1, #-257]	; 0xfffffeff
    1370:	030b130e 	movweq	r1, #45838	; 0xb30e
    1374:	110e1b0e 	tstne	lr, lr, lsl #22
    1378:	10061201 	andne	r1, r6, r1, lsl #4
    137c:	02000017 	andeq	r0, r0, #23, 0
    1380:	0b0b0024 	bleq	2c1418 <__bss_end__+0x2b5f48>
    1384:	08030b3e 	stmdaeq	r3, {r1, r2, r3, r4, r5, r8, r9, fp}
    1388:	24030000 	strcs	r0, [r3], #-0
    138c:	3e0b0b00 	vmlacc.f64	d0, d11, d0
    1390:	000e030b 	andeq	r0, lr, fp, lsl #6
    1394:	01150400 	tsteq	r5, r0, lsl #8
    1398:	13491927 	movtne	r1, #39207	; 0x9927
    139c:	00001301 	andeq	r1, r0, r1, lsl #6
    13a0:	49000505 	stmdbmi	r0, {r0, r2, r8, sl}
    13a4:	06000013 			; <UNDEFINED> instruction: 0x06000013
    13a8:	0e030034 	mcreq	0, 0, r0, cr3, cr4, {1}
    13ac:	0b3b0b3a 	bleq	ec409c <__bss_end__+0xeb8bcc>
    13b0:	13490b39 	movtne	r0, #39737	; 0x9b39
    13b4:	193c193f 	ldmdbne	ip!, {r0, r1, r2, r3, r4, r5, r8, fp, ip}
    13b8:	0f070000 	svceq	0x00070000
    13bc:	490b0b00 	stmdbmi	fp, {r8, r9, fp}
    13c0:	08000013 	stmdaeq	r0, {r0, r1, r4}
    13c4:	13490026 	movtne	r0, #36902	; 0x9026
    13c8:	2e090000 	cdpcs	0, 0, cr0, cr9, cr0, {0}
    13cc:	03193f00 	tsteq	r9, #0, 30
    13d0:	3b0b3a0e 	blcc	2cfc10 <__bss_end__+0x2c4740>
    13d4:	270b390b 	strcs	r3, [fp, -fp, lsl #18]
    13d8:	12011119 	andne	r1, r1, #1073741830	; 0x40000006
    13dc:	97184006 	ldrls	r4, [r8, -r6]
    13e0:	00001942 	andeq	r1, r0, r2, asr #18
    13e4:	01110100 	tsteq	r1, r0, lsl #2
    13e8:	0b130e25 	bleq	4c4c84 <__bss_end__+0x4b97b4>
    13ec:	0e1b0e03 	cdpeq	14, 1, cr0, cr11, cr3, {0}
    13f0:	01111755 	tsteq	r1, r5, asr r7
    13f4:	00001710 	andeq	r1, r0, r0, lsl r7
    13f8:	0b002402 	bleq	a408 <kmalloc_aligned+0x104>
    13fc:	030b3e0b 	movweq	r3, #48651	; 0xbe0b
    1400:	03000008 	movweq	r0, #8
    1404:	13490026 	movtne	r0, #36902	; 0x9026
    1408:	24040000 	strcs	r0, [r4], #-0
    140c:	3e0b0b00 	vmlacc.f64	d0, d11, d0
    1410:	000e030b 	andeq	r0, lr, fp, lsl #6
    1414:	01150500 	tsteq	r5, r0, lsl #10
    1418:	13491927 	movtne	r1, #39207	; 0x9927
    141c:	00001301 	andeq	r1, r0, r1, lsl #6
    1420:	49000506 	stmdbmi	r0, {r1, r2, r8, sl}
    1424:	07000013 	smladeq	r0, r3, r0, r0
    1428:	0e030034 	mcreq	0, 0, r0, cr3, cr4, {1}
    142c:	0b3b0b3a 	bleq	ec411c <__bss_end__+0xeb8c4c>
    1430:	13490b39 	movtne	r0, #39737	; 0x9b39
    1434:	193c193f 	ldmdbne	ip!, {r0, r1, r2, r3, r4, r5, r8, fp, ip}
    1438:	0f080000 	svceq	0x00080000
    143c:	490b0b00 	stmdbmi	fp, {r8, r9, fp}
    1440:	09000013 	stmdbeq	r0, {r0, r1, r4}
    1444:	0e030034 	mcreq	0, 0, r0, cr3, cr4, {1}
    1448:	0b3b0b3a 	bleq	ec4138 <__bss_end__+0xeb8c68>
    144c:	13490b39 	movtne	r0, #39737	; 0x9b39
    1450:	2e0a0000 	cdpcs	0, 0, cr0, cr10, cr0, {0}
    1454:	03193f01 	tsteq	r9, #1, 30
    1458:	3b0b3a0e 	blcc	2cfc98 <__bss_end__+0x2c47c8>
    145c:	270b390b 	strcs	r3, [fp, -fp, lsl #18]
    1460:	19018719 	stmdbne	r1, {r0, r3, r4, r8, r9, sl, pc}
    1464:	06120111 			; <UNDEFINED> instruction: 0x06120111
    1468:	42971840 	addsmi	r1, r7, #64, 16	; 0x400000
    146c:	00130119 	andseq	r0, r3, r9, lsl r1
    1470:	00340b00 	eorseq	r0, r4, r0, lsl #22
    1474:	0b3a0e03 	bleq	e84c88 <__bss_end__+0xe797b8>
    1478:	0b390b3b 	bleq	e4416c <__bss_end__+0xe38c9c>
    147c:	061c1349 	ldreq	r1, [ip], -r9, asr #6
    1480:	340c0000 	strcc	r0, [ip], #-0
    1484:	3a0e0300 	bcc	38208c <__bss_end__+0x376bbc>
    1488:	390b3b0b 	stmdbcc	fp, {r0, r1, r3, r8, r9, fp, ip, sp}
    148c:	1c13490b 			; <UNDEFINED> instruction: 0x1c13490b
    1490:	0d00000b 	stceq	0, cr0, [r0, #-44]	; 0xffffffd4
    1494:	1331011d 	teqne	r1, #1073741831	; 0x40000007
    1498:	42b80152 	adcsmi	r0, r8, #-2147483628	; 0x80000014
    149c:	5817550b 	ldmdapl	r7, {r0, r1, r3, r8, sl, ip, lr}
    14a0:	570b590b 	strpl	r5, [fp, -fp, lsl #18]
    14a4:	0013010b 	andseq	r0, r3, fp, lsl #2
    14a8:	010b0e00 	tsteq	fp, r0, lsl #28
    14ac:	00001755 	andeq	r1, r0, r5, asr r7
    14b0:	3100340f 	tstcc	r0, pc, lsl #8
    14b4:	b7170213 			; <UNDEFINED> instruction: 0xb7170213
    14b8:	00001742 	andeq	r1, r0, r2, asr #14
    14bc:	31011d10 	tstcc	r1, r0, lsl sp
    14c0:	b8015213 	stmdalt	r1, {r0, r1, r4, r9, ip, lr}
    14c4:	01110b42 	tsteq	r1, r2, asr #22
    14c8:	0b580612 	bleq	1602d18 <__bss_end__+0x15f7848>
    14cc:	0b570b59 	bleq	15c4238 <__bss_end__+0x15b8d68>
    14d0:	00001301 	andeq	r1, r0, r1, lsl #6
    14d4:	01828911 	orreq	r8, r2, r1, lsl r9
    14d8:	31011100 	mrscc	r1, (UNDEF: 17)
    14dc:	12000013 	andne	r0, r0, #19, 0
    14e0:	01018289 	smlabbeq	r1, r9, r2, r8
    14e4:	13310111 	teqne	r1, #1073741828	; 0x40000004
    14e8:	00001301 	andeq	r1, r0, r1, lsl #6
    14ec:	01828a13 	orreq	r8, r2, r3, lsl sl
    14f0:	91180200 	tstls	r8, r0, lsl #4
    14f4:	00001842 	andeq	r1, r0, r2, asr #16
    14f8:	01828914 	orreq	r8, r2, r4, lsl r9
    14fc:	31011101 	tstcc	r1, r1, lsl #2
    1500:	15000013 	strne	r0, [r0, #-19]	; 0xffffffed
    1504:	193f012e 	ldmdbne	pc!, {r1, r2, r3, r5, r8}	; <UNPREDICTABLE>
    1508:	0b3a0e03 	bleq	e84d1c <__bss_end__+0xe7984c>
    150c:	0b390b3b 	bleq	e44200 <__bss_end__+0xe38d30>
    1510:	0b201927 	bleq	8079b4 <__bss_end__+0x7fc4e4>
    1514:	00001301 	andeq	r1, r0, r1, lsl #6
    1518:	3f012e16 	svccc	0x00012e16
    151c:	3a0e0319 	bcc	382188 <__bss_end__+0x376cb8>
    1520:	390b3b0b 	stmdbcc	fp, {r0, r1, r3, r8, r9, fp, ip, sp}
    1524:	4919270b 	ldmdbmi	r9, {r0, r1, r3, r8, r9, sl, sp}
    1528:	010b2013 	tsteq	fp, r3, lsl r0
    152c:	17000013 	smladne	r0, r3, r0, r0
    1530:	1331012e 	teqne	r1, #-2147483637	; 0x8000000b
    1534:	06120111 			; <UNDEFINED> instruction: 0x06120111
    1538:	42971840 	addsmi	r1, r7, #64, 16	; 0x400000
    153c:	00130119 	andseq	r0, r3, r9, lsl r1
    1540:	002e1800 	eoreq	r1, lr, r0, lsl #16
    1544:	193c193f 	ldmdbne	ip!, {r0, r1, r2, r3, r4, r5, r8, fp, ip}
    1548:	0e030e6e 	cdpeq	14, 0, cr0, cr3, cr14, {3}
    154c:	053b0b3a 	ldreq	r0, [fp, #-2874]!	; 0xfffff4c6
    1550:	00000b39 	andeq	r0, r0, r9, lsr fp
    1554:	3f002e19 	svccc	0x00002e19
    1558:	6e193c19 	mrcvs	12, 0, r3, cr9, cr9, {0}
    155c:	3a0e030e 	bcc	38219c <__bss_end__+0x376ccc>
    1560:	390b3b0b 	stmdbcc	fp, {r0, r1, r3, r8, r9, fp, ip, sp}
    1564:	0000000b 	andeq	r0, r0, fp
    1568:	25011101 	strcs	r1, [r1, #-257]	; 0xfffffeff
    156c:	030b130e 	movweq	r1, #45838	; 0xb30e
    1570:	110e1b0e 	tstne	lr, lr, lsl #22
    1574:	10061201 	andne	r1, r6, r1, lsl #4
    1578:	02000017 	andeq	r0, r0, #23, 0
    157c:	0b0b0024 	bleq	2c1614 <__bss_end__+0x2b6144>
    1580:	08030b3e 	stmdaeq	r3, {r1, r2, r3, r4, r5, r8, r9, fp}
    1584:	24030000 	strcs	r0, [r3], #-0
    1588:	3e0b0b00 	vmlacc.f64	d0, d11, d0
    158c:	000e030b 	andeq	r0, lr, fp, lsl #6
    1590:	01150400 	tsteq	r5, r0, lsl #8
    1594:	13491927 	movtne	r1, #39207	; 0x9927
    1598:	00001301 	andeq	r1, r0, r1, lsl #6
    159c:	49000505 	stmdbmi	r0, {r0, r2, r8, sl}
    15a0:	06000013 			; <UNDEFINED> instruction: 0x06000013
    15a4:	0e030034 	mcreq	0, 0, r0, cr3, cr4, {1}
    15a8:	0b3b0b3a 	bleq	ec4298 <__bss_end__+0xeb8dc8>
    15ac:	13490b39 	movtne	r0, #39737	; 0x9b39
    15b0:	193c193f 	ldmdbne	ip!, {r0, r1, r2, r3, r4, r5, r8, fp, ip}
    15b4:	0f070000 	svceq	0x00070000
    15b8:	490b0b00 	stmdbmi	fp, {r8, r9, fp}
    15bc:	08000013 	stmdaeq	r0, {r0, r1, r4}
    15c0:	13490026 	movtne	r0, #36902	; 0x9026
    15c4:	2e090000 	cdpcs	0, 0, cr0, cr9, cr0, {0}
    15c8:	03193f01 	tsteq	r9, #1, 30
    15cc:	3b0b3a0e 	blcc	2cfe0c <__bss_end__+0x2c493c>
    15d0:	270b390b 	strcs	r3, [fp, -fp, lsl #18]
    15d4:	12011119 	andne	r1, r1, #1073741830	; 0x40000006
    15d8:	97184006 	ldrls	r4, [r8, -r6]
    15dc:	13011942 	movwne	r1, #6466	; 0x1942
    15e0:	050a0000 	streq	r0, [sl, #-0]
    15e4:	3a080300 	bcc	2021ec <__bss_end__+0x1f6d1c>
    15e8:	390b3b0b 	stmdbcc	fp, {r0, r1, r3, r8, r9, fp, ip, sp}
    15ec:	0213490b 	andseq	r4, r3, #180224	; 0x2c000
    15f0:	1742b717 	smlaldne	fp, r2, r7, r7
    15f4:	1d0b0000 	stcne	0, cr0, [fp, #-0]
    15f8:	52133101 	andspl	r3, r3, #1073741824	; 0x40000000
    15fc:	0b42b801 	bleq	10af608 <__bss_end__+0x10a4138>
    1600:	0b581755 	bleq	160735c <__bss_end__+0x15fbe8c>
    1604:	0b570b59 	bleq	15c4370 <__bss_end__+0x15b8ea0>
    1608:	050c0000 	streq	r0, [ip, #-0]
    160c:	02133100 	andseq	r3, r3, #0
    1610:	1742b717 	smlaldne	fp, r2, r7, r7
    1614:	1d0d0000 	stcne	0, cr0, [sp, #-0]
    1618:	52133101 	andspl	r3, r3, #1073741824	; 0x40000000
    161c:	0b42b801 	bleq	10af628 <__bss_end__+0x10a4158>
    1620:	06120111 			; <UNDEFINED> instruction: 0x06120111
    1624:	0b590b58 	bleq	164438c <__bss_end__+0x1638ebc>
    1628:	00000b57 	andeq	r0, r0, r7, asr fp
    162c:	3100340e 	tstcc	r0, lr, lsl #8
    1630:	b7170213 			; <UNDEFINED> instruction: 0xb7170213
    1634:	00001742 	andeq	r1, r0, r2, asr #14
    1638:	31011d0f 	tstcc	r1, pc, lsl #26
    163c:	b8015213 	stmdalt	r1, {r0, r1, r4, r9, ip, lr}
    1640:	01110b42 	tsteq	r1, r2, asr #22
    1644:	0b580612 	bleq	1602e94 <__bss_end__+0x15f79c4>
    1648:	0b570b59 	bleq	15c43b4 <__bss_end__+0x15b8ee4>
    164c:	00001301 	andeq	r1, r0, r1, lsl #6
    1650:	01828910 	orreq	r8, r2, r0, lsl r9
    1654:	31011101 	tstcc	r1, r1, lsl #2
    1658:	11000013 	tstne	r0, r3, lsl r0
    165c:	0001828a 	andeq	r8, r1, sl, lsl #5
    1660:	42911802 	addsmi	r1, r1, #131072	; 0x20000
    1664:	12000018 	andne	r0, r0, #24, 0
    1668:	00018289 	andeq	r8, r1, r9, lsl #5
    166c:	13310111 	teqne	r1, #1073741828	; 0x40000004
    1670:	0b130000 	bleq	4c1678 <__bss_end__+0x4b61a8>
    1674:	55133101 	ldrpl	r3, [r3, #-257]	; 0xfffffeff
    1678:	14000017 	strne	r0, [r0], #-23	; 0xffffffe9
    167c:	13310034 	teqne	r1, #52, 0	; 0x34
    1680:	0b150000 	bleq	541688 <__bss_end__+0x5361b8>
    1684:	00175501 	andseq	r5, r7, r1, lsl #10
    1688:	011d1600 	tsteq	sp, r0, lsl #12
    168c:	01521331 	cmpeq	r2, r1, lsr r3
    1690:	550b42b8 	strpl	r4, [fp, #-696]	; 0xfffffd48
    1694:	590b5817 	stmdbpl	fp, {r0, r1, r2, r4, fp, ip, lr}
    1698:	010b570b 	tsteq	fp, fp, lsl #14
    169c:	17000013 	smladne	r0, r3, r0, r0
    16a0:	193f012e 	ldmdbne	pc!, {r1, r2, r3, r5, r8}	; <UNPREDICTABLE>
    16a4:	0b3a0e03 	bleq	e84eb8 <__bss_end__+0xe799e8>
    16a8:	0b390b3b 	bleq	e4439c <__bss_end__+0xe38ecc>
    16ac:	0b201927 	bleq	807b50 <__bss_end__+0x7fc680>
    16b0:	00001301 	andeq	r1, r0, r1, lsl #6
    16b4:	03000518 	movweq	r0, #1304	; 0x518
    16b8:	3b0b3a08 	blcc	2cfee0 <__bss_end__+0x2c4a10>
    16bc:	490b390b 	stmdbmi	fp, {r0, r1, r3, r8, fp, ip, sp}
    16c0:	19000013 	stmdbne	r0, {r0, r1, r4}
    16c4:	08030034 	stmdaeq	r3, {r2, r4, r5}
    16c8:	0b3b0b3a 	bleq	ec43b8 <__bss_end__+0xeb8ee8>
    16cc:	13490b39 	movtne	r0, #39737	; 0x9b39
    16d0:	0b1a0000 	bleq	6816d8 <__bss_end__+0x676208>
    16d4:	1b000001 	blne	16e0 <__code_start__-0x6920>
    16d8:	193f012e 	ldmdbne	pc!, {r1, r2, r3, r5, r8}	; <UNPREDICTABLE>
    16dc:	0b3a0e03 	bleq	e84ef0 <__bss_end__+0xe79a20>
    16e0:	0b390b3b 	bleq	e443d4 <__bss_end__+0xe38f04>
    16e4:	13491927 	movtne	r1, #39207	; 0x9927
    16e8:	13010b20 	movwne	r0, #6944	; 0x1b20
    16ec:	2e1c0000 	cdpcs	0, 1, cr0, cr12, cr0, {0}
    16f0:	03193f00 	tsteq	r9, #0, 30
    16f4:	3b0b3a0e 	blcc	2cff34 <__bss_end__+0x2c4a64>
    16f8:	270b390b 	strcs	r3, [fp, -fp, lsl #18]
    16fc:	20134919 	andscs	r4, r3, r9, lsl r9
    1700:	1d00000b 	stcne	0, cr0, [r0, #-44]	; 0xffffffd4
    1704:	1331012e 	teqne	r1, #-2147483637	; 0x8000000b
    1708:	06120111 			; <UNDEFINED> instruction: 0x06120111
    170c:	42971840 	addsmi	r1, r7, #64, 16	; 0x400000
    1710:	00130119 	andseq	r0, r3, r9, lsl r1
    1714:	82891e00 	addhi	r1, r9, #0, 28
    1718:	01110101 	tsteq	r1, r1, lsl #2
    171c:	31194295 			; <UNDEFINED> instruction: 0x31194295
    1720:	1f000013 	svcne	0x00000013
    1724:	193f002e 	ldmdbne	pc!, {r1, r2, r3, r5}	; <UNPREDICTABLE>
    1728:	0e6e193c 			; <UNDEFINED> instruction: 0x0e6e193c
    172c:	0b3a0e03 	bleq	e84f40 <__bss_end__+0xe79a70>
    1730:	0b390b3b 	bleq	e44424 <__bss_end__+0xe38f54>
    1734:	01000000 	mrseq	r0, (UNDEF: 0)
    1738:	0e250111 	mcreq	1, 1, r0, cr5, cr1, {0}
    173c:	0e030b13 	vmoveq.32	d3[0], r0
    1740:	01110e1b 	tsteq	r1, fp, lsl lr
    1744:	17100612 			; <UNDEFINED> instruction: 0x17100612
    1748:	24020000 	strcs	r0, [r2], #-0
    174c:	3e0b0b00 	vmlacc.f64	d0, d11, d0
    1750:	0008030b 	andeq	r0, r8, fp, lsl #6
    1754:	00240300 	eoreq	r0, r4, r0, lsl #6
    1758:	0b3e0b0b 	bleq	f8438c <__bss_end__+0xf78ebc>
    175c:	00000e03 	andeq	r0, r0, r3, lsl #28
    1760:	49003504 	stmdbmi	r0, {r2, r8, sl, ip, sp}
    1764:	05000013 	streq	r0, [r0, #-19]	; 0xffffffed
    1768:	0e030016 	mcreq	0, 0, r0, cr3, cr6, {0}
    176c:	0b3b0b3a 	bleq	ec445c <__bss_end__+0xeb8f8c>
    1770:	13490b39 	movtne	r0, #39737	; 0x9b39
    1774:	04060000 	streq	r0, [r6], #-0
    1778:	0b0b3e01 	bleq	2d0f84 <__bss_end__+0x2c5ab4>
    177c:	3a13490b 	bcc	4d3bb0 <__bss_end__+0x4c86e0>
    1780:	390b3b0b 	stmdbcc	fp, {r0, r1, r3, r8, r9, fp, ip, sp}
    1784:	0013010b 	andseq	r0, r3, fp, lsl #2
    1788:	00280700 	eoreq	r0, r8, r0, lsl #14
    178c:	0b1c0e03 	bleq	704fa0 <__bss_end__+0x6f9ad0>
    1790:	13080000 	movwne	r0, #32768	; 0x8000
    1794:	0b0e0301 	bleq	3823a0 <__bss_end__+0x376ed0>
    1798:	3b0b3a0b 	blcc	2cffcc <__bss_end__+0x2c4afc>
    179c:	010b390b 	tsteq	fp, fp, lsl #18
    17a0:	09000013 	stmdbeq	r0, {r0, r1, r4}
    17a4:	0803000d 	stmdaeq	r3, {r0, r2, r3}
    17a8:	0b3b0b3a 	bleq	ec4498 <__bss_end__+0xeb8fc8>
    17ac:	13490b39 	movtne	r0, #39737	; 0x9b39
    17b0:	00000b38 	andeq	r0, r0, r8, lsr fp
    17b4:	03000d0a 	movweq	r0, #3338	; 0xd0a
    17b8:	3b0b3a0e 	blcc	2cfff8 <__bss_end__+0x2c4b28>
    17bc:	490b390b 	stmdbmi	fp, {r0, r1, r3, r8, fp, ip, sp}
    17c0:	000b3813 	andeq	r3, fp, r3, lsl r8
    17c4:	00340b00 	eorseq	r0, r4, r0, lsl #22
    17c8:	0b3a0e03 	bleq	e84fdc <__bss_end__+0xe79b0c>
    17cc:	0b390b3b 	bleq	e444c0 <__bss_end__+0xe38ff0>
    17d0:	061c1349 	ldreq	r1, [ip], -r9, asr #6
    17d4:	0f0c0000 	svceq	0x000c0000
    17d8:	490b0b00 	stmdbmi	fp, {r8, r9, fp}
    17dc:	0d000013 	stceq	0, cr0, [r0, #-76]	; 0xffffffb4
    17e0:	13490026 	movtne	r0, #36902	; 0x9026
    17e4:	2e0e0000 	cdpcs	0, 0, cr0, cr14, cr0, {0}
    17e8:	03193f01 	tsteq	r9, #1, 30
    17ec:	3b0b3a0e 	blcc	2d002c <__bss_end__+0x2c4b5c>
    17f0:	270b390b 	strcs	r3, [fp, -fp, lsl #18]
    17f4:	12011119 	andne	r1, r1, #1073741830	; 0x40000006
    17f8:	97184006 	ldrls	r4, [r8, -r6]
    17fc:	13011942 	movwne	r1, #6466	; 0x1942
    1800:	890f0000 	stmdbhi	pc, {}	; <UNPREDICTABLE>
    1804:	11000182 	smlabbne	r0, r2, r1, r0
    1808:	00133101 	andseq	r3, r3, r1, lsl #2
    180c:	012e1000 			; <UNDEFINED> instruction: 0x012e1000
    1810:	0e03193f 			; <UNDEFINED> instruction: 0x0e03193f
    1814:	0b3b0b3a 	bleq	ec4504 <__bss_end__+0xeb9034>
    1818:	19270b39 	stmdbne	r7!, {r0, r3, r4, r5, r8, r9, fp}
    181c:	01111349 	tsteq	r1, r9, asr #6
    1820:	18400612 	stmdane	r0, {r1, r4, r9, sl}^
    1824:	01194297 			; <UNDEFINED> instruction: 0x01194297
    1828:	11000013 	tstne	r0, r3, lsl r0
    182c:	01018289 	smlabbeq	r1, r9, r2, r8
    1830:	13310111 	teqne	r1, #1073741828	; 0x40000004
    1834:	8a120000 	bhi	48183c <__bss_end__+0x47636c>
    1838:	02000182 	andeq	r0, r0, #-2147483616	; 0x80000020
    183c:	18429118 	stmdane	r2, {r3, r4, r8, ip, pc}^
    1840:	05130000 	ldreq	r0, [r3, #-0]
    1844:	3a080300 	bcc	20244c <__bss_end__+0x1f6f7c>
    1848:	390b3b0b 	stmdbcc	fp, {r0, r1, r3, r8, r9, fp, ip, sp}
    184c:	0213490b 	andseq	r4, r3, #180224	; 0x2c000
    1850:	1742b717 	smlaldne	fp, r2, r7, r7
    1854:	89140000 	ldmdbhi	r4, {}	; <UNPREDICTABLE>
    1858:	11010182 	smlabbne	r1, r2, r1, r0
    185c:	01133101 	tsteq	r3, r1, lsl #2
    1860:	15000013 	strne	r0, [r0, #-19]	; 0xffffffed
    1864:	08030034 	stmdaeq	r3, {r2, r4, r5}
    1868:	0b3b0b3a 	bleq	ec4558 <__bss_end__+0xeb9088>
    186c:	13490b39 	movtne	r0, #39737	; 0x9b39
    1870:	42b71702 	adcsmi	r1, r7, #524288	; 0x80000
    1874:	16000017 			; <UNDEFINED> instruction: 0x16000017
    1878:	0e030034 	mcreq	0, 0, r0, cr3, cr4, {1}
    187c:	0b3b0b3a 	bleq	ec456c <__bss_end__+0xeb909c>
    1880:	13490b39 	movtne	r0, #39737	; 0x9b39
    1884:	0000051c 	andeq	r0, r0, ip, lsl r5
    1888:	03012e17 	movweq	r2, #7703	; 0x1e17
    188c:	3b0b3a0e 	blcc	2d00cc <__bss_end__+0x2c4bfc>
    1890:	270b390b 	strcs	r3, [fp, -fp, lsl #18]
    1894:	12011119 	andne	r1, r1, #1073741830	; 0x40000006
    1898:	97184006 	ldrls	r4, [r8, -r6]
    189c:	13011942 	movwne	r1, #6466	; 0x1942
    18a0:	05180000 	ldreq	r0, [r8, #-0]
    18a4:	3a0e0300 	bcc	3824ac <__bss_end__+0x376fdc>
    18a8:	390b3b0b 	stmdbcc	fp, {r0, r1, r3, r8, r9, fp, ip, sp}
    18ac:	0213490b 	andseq	r4, r3, #180224	; 0x2c000
    18b0:	1742b717 	smlaldne	fp, r2, r7, r7
    18b4:	35190000 	ldrcc	r0, [r9, #-0]
    18b8:	1a000000 	bne	18c0 <__code_start__-0x6740>
    18bc:	193f002e 	ldmdbne	pc!, {r1, r2, r3, r5}	; <UNPREDICTABLE>
    18c0:	0e6e193c 			; <UNDEFINED> instruction: 0x0e6e193c
    18c4:	0b3a0e03 	bleq	e850d8 <__bss_end__+0xe79c08>
    18c8:	0b390b3b 	bleq	e445bc <__bss_end__+0xe390ec>
    18cc:	01000000 	mrseq	r0, (UNDEF: 0)
    18d0:	0e250111 	mcreq	1, 1, r0, cr5, cr1, {0}
    18d4:	0e030b13 	vmoveq.32	d3[0], r0
    18d8:	01110e1b 	tsteq	r1, fp, lsl lr
    18dc:	17100612 			; <UNDEFINED> instruction: 0x17100612
    18e0:	24020000 	strcs	r0, [r2], #-0
    18e4:	3e0b0b00 	vmlacc.f64	d0, d11, d0
    18e8:	0008030b 	andeq	r0, r8, fp, lsl #6
    18ec:	00240300 	eoreq	r0, r4, r0, lsl #6
    18f0:	0b3e0b0b 	bleq	f84524 <__bss_end__+0xf79054>
    18f4:	00000e03 	andeq	r0, r0, r3, lsl #28
    18f8:	03001604 	movweq	r1, #1540	; 0x604
    18fc:	3b0b3a0e 	blcc	2d013c <__bss_end__+0x2c4c6c>
    1900:	490b390b 	stmdbmi	fp, {r0, r1, r3, r8, fp, ip, sp}
    1904:	05000013 	streq	r0, [r0, #-19]	; 0xffffffed
    1908:	13490026 	movtne	r0, #36902	; 0x9026
    190c:	0f060000 	svceq	0x00060000
    1910:	000b0b00 	andeq	r0, fp, r0, lsl #22
    1914:	01040700 	tsteq	r4, r0, lsl #14
    1918:	0b0b0b3e 	bleq	2c4618 <__bss_end__+0x2b9148>
    191c:	0b3a1349 	bleq	e86648 <__bss_end__+0xe7b178>
    1920:	0b390b3b 	bleq	e44614 <__bss_end__+0xe39144>
    1924:	00001301 	andeq	r1, r0, r1, lsl #6
    1928:	03002808 	movweq	r2, #2056	; 0x808
    192c:	00061c0e 	andeq	r1, r6, lr, lsl #24
    1930:	00340900 	eorseq	r0, r4, r0, lsl #18
    1934:	0b3a0e03 	bleq	e85148 <__bss_end__+0xe79c78>
    1938:	0b390b3b 	bleq	e4462c <__bss_end__+0xe3915c>
    193c:	193f1349 	ldmdbne	pc!, {r0, r3, r6, r8, r9, ip}	; <UNPREDICTABLE>
    1940:	0000193c 	andeq	r1, r0, ip, lsr r9
    1944:	0300340a 	movweq	r3, #1034	; 0x40a
    1948:	3b0b3a0e 	blcc	2d0188 <__bss_end__+0x2c4cb8>
    194c:	490b390b 	stmdbmi	fp, {r0, r1, r3, r8, fp, ip, sp}
    1950:	00180213 	andseq	r0, r8, r3, lsl r2
    1954:	000f0b00 	andeq	r0, pc, r0, lsl #22
    1958:	13490b0b 	movtne	r0, #39691	; 0x9b0b
    195c:	2e0c0000 	cdpcs	0, 0, cr0, cr12, cr0, {0}
    1960:	03193f01 	tsteq	r9, #1, 30
    1964:	3b0b3a0e 	blcc	2d01a4 <__bss_end__+0x2c4cd4>
    1968:	270b390b 	strcs	r3, [fp, -fp, lsl #18]
    196c:	12011119 	andne	r1, r1, #1073741830	; 0x40000006
    1970:	97184006 	ldrls	r4, [r8, -r6]
    1974:	13011942 	movwne	r1, #6466	; 0x1942
    1978:	050d0000 	streq	r0, [sp, #-0]
    197c:	3a080300 	bcc	202584 <__bss_end__+0x1f70b4>
    1980:	390b3b0b 	stmdbcc	fp, {r0, r1, r3, r8, r9, fp, ip, sp}
    1984:	0213490b 	andseq	r4, r3, #180224	; 0x2c000
    1988:	1742b717 	smlaldne	fp, r2, r7, r7
    198c:	340e0000 	strcc	r0, [lr], #-0
    1990:	490e0300 	stmdbmi	lr, {r8, r9}
    1994:	02193413 	andseq	r3, r9, #318767104	; 0x13000000
    1998:	0f000018 	svceq	0x00000018
    199c:	01018289 	smlabbeq	r1, r9, r2, r8
    19a0:	13310111 	teqne	r1, #1073741828	; 0x40000004
    19a4:	00001301 	andeq	r1, r0, r1, lsl #6
    19a8:	01828a10 	orreq	r8, r2, r0, lsl sl
    19ac:	91180200 	tstls	r8, r0, lsl #4
    19b0:	00001842 	andeq	r1, r0, r2, asr #16
    19b4:	01828911 	orreq	r8, r2, r1, lsl r9
    19b8:	31011100 	mrscc	r1, (UNDEF: 17)
    19bc:	12000013 	andne	r0, r0, #19, 0
    19c0:	13490101 	movtne	r0, #37121	; 0x9101
    19c4:	00001301 	andeq	r1, r0, r1, lsl #6
    19c8:	49002113 	stmdbmi	r0, {r0, r1, r4, r8, sp}
    19cc:	000b2f13 	andeq	r2, fp, r3, lsl pc
    19d0:	002e1400 	eoreq	r1, lr, r0, lsl #8
    19d4:	0e03193f 			; <UNDEFINED> instruction: 0x0e03193f
    19d8:	0b3b0b3a 	bleq	ec46c8 <__bss_end__+0xeb91f8>
    19dc:	19270b39 	stmdbne	r7!, {r0, r3, r4, r5, r8, r9, fp}
    19e0:	06120111 			; <UNDEFINED> instruction: 0x06120111
    19e4:	42971840 	addsmi	r1, r7, #64, 16	; 0x400000
    19e8:	15000019 	strne	r0, [r0, #-25]	; 0xffffffe7
    19ec:	08030005 	stmdaeq	r3, {r0, r2}
    19f0:	0b3b0b3a 	bleq	ec46e0 <__bss_end__+0xeb9210>
    19f4:	13490b39 	movtne	r0, #39737	; 0x9b39
    19f8:	00001802 	andeq	r1, r0, r2, lsl #16
    19fc:	3f012e16 	svccc	0x00012e16
    1a00:	3a0e0319 	bcc	38266c <__bss_end__+0x37719c>
    1a04:	390b3b0b 	stmdbcc	fp, {r0, r1, r3, r8, r9, fp, ip, sp}
    1a08:	4919270b 	ldmdbmi	r9, {r0, r1, r3, r8, r9, sl, sp}
    1a0c:	12011113 	andne	r1, r1, #-1073741820	; 0xc0000004
    1a10:	97184006 	ldrls	r4, [r8, -r6]
    1a14:	13011942 	movwne	r1, #6466	; 0x1942
    1a18:	05170000 	ldreq	r0, [r7, #-0]
    1a1c:	3a0e0300 	bcc	382624 <__bss_end__+0x377154>
    1a20:	390b3b0b 	stmdbcc	fp, {r0, r1, r3, r8, r9, fp, ip, sp}
    1a24:	0213490b 	andseq	r4, r3, #180224	; 0x2c000
    1a28:	1742b717 	smlaldne	fp, r2, r7, r7
    1a2c:	34180000 	ldrcc	r0, [r8], #-0
    1a30:	3a080300 	bcc	202638 <__bss_end__+0x1f7168>
    1a34:	390b3b0b 	stmdbcc	fp, {r0, r1, r3, r8, r9, fp, ip, sp}
    1a38:	0213490b 	andseq	r4, r3, #180224	; 0x2c000
    1a3c:	1742b717 	smlaldne	fp, r2, r7, r7
    1a40:	1d190000 	ldcne	0, cr0, [r9, #-0]
    1a44:	52133101 	andspl	r3, r3, #1073741824	; 0x40000000
    1a48:	0b42b801 	bleq	10afa54 <__bss_end__+0x10a4584>
    1a4c:	06120111 			; <UNDEFINED> instruction: 0x06120111
    1a50:	0b590b58 	bleq	16447b8 <__bss_end__+0x16392e8>
    1a54:	13010b57 	movwne	r0, #6999	; 0x1b57
    1a58:	051a0000 	ldreq	r0, [sl, #-0]
    1a5c:	02133100 	andseq	r3, r3, #0
    1a60:	1742b717 	smlaldne	fp, r2, r7, r7
    1a64:	1d1b0000 	ldcne	0, cr0, [fp, #-0]
    1a68:	52133101 	andspl	r3, r3, #1073741824	; 0x40000000
    1a6c:	0b42b801 	bleq	10afa78 <__bss_end__+0x10a45a8>
    1a70:	0b581755 	bleq	16077cc <__bss_end__+0x15fc2fc>
    1a74:	0b570b59 	bleq	15c47e0 <__bss_end__+0x15b9310>
    1a78:	00001301 	andeq	r1, r0, r1, lsl #6
    1a7c:	55010b1c 	strpl	r0, [r1, #-2844]	; 0xfffff4e4
    1a80:	1d000017 	stcne	0, cr0, [r0, #-92]	; 0xffffffa4
    1a84:	0e030034 	mcreq	0, 0, r0, cr3, cr4, {1}
    1a88:	0b3b0b3a 	bleq	ec4778 <__bss_end__+0xeb92a8>
    1a8c:	13490b39 	movtne	r0, #39737	; 0x9b39
    1a90:	42b71702 	adcsmi	r1, r7, #524288	; 0x80000
    1a94:	1e000017 	mcrne	0, 0, r0, cr0, cr7, {0}
    1a98:	1755000b 	ldrbne	r0, [r5, -fp]
    1a9c:	2e1f0000 	cdpcs	0, 1, cr0, cr15, cr0, {0}
    1aa0:	03193f00 	tsteq	r9, #0, 30
    1aa4:	3b0b3a0e 	blcc	2d02e4 <__bss_end__+0x2c4e14>
    1aa8:	270b390b 	strcs	r3, [fp, -fp, lsl #18]
    1aac:	11134919 	tstne	r3, r9, lsl r9
    1ab0:	40061201 	andmi	r1, r6, r1, lsl #4
    1ab4:	19429718 	stmdbne	r2, {r3, r4, r8, r9, sl, ip, pc}^
    1ab8:	2e200000 	cdpcs	0, 2, cr0, cr0, cr0, {0}
    1abc:	3a0e0301 	bcc	3826c8 <__bss_end__+0x3771f8>
    1ac0:	390b3b0b 	stmdbcc	fp, {r0, r1, r3, r8, r9, fp, ip, sp}
    1ac4:	4919270b 	ldmdbmi	r9, {r0, r1, r3, r8, r9, sl, sp}
    1ac8:	010b2013 	tsteq	fp, r3, lsl r0
    1acc:	21000013 	tstcs	r0, r3, lsl r0
    1ad0:	08030005 	stmdaeq	r3, {r0, r2}
    1ad4:	0b3b0b3a 	bleq	ec47c4 <__bss_end__+0xeb92f4>
    1ad8:	13490b39 	movtne	r0, #39737	; 0x9b39
    1adc:	2e220000 	cdpcs	0, 2, cr0, cr2, cr0, {0}
    1ae0:	3c193f00 	ldccc	15, cr3, [r9], {-0}
    1ae4:	030e6e19 	movweq	r6, #60953	; 0xee19
    1ae8:	3b0b3a0e 	blcc	2d0328 <__bss_end__+0x2c4e58>
    1aec:	000b390b 	andeq	r3, fp, fp, lsl #18
    1af0:	11010000 	mrsne	r0, (UNDEF: 1)
    1af4:	130e2501 	movwne	r2, #58625	; 0xe501
    1af8:	1b0e030b 	blne	38272c <__bss_end__+0x37725c>
    1afc:	1201110e 	andne	r1, r1, #-2147483645	; 0x80000003
    1b00:	00171006 	andseq	r1, r7, r6
    1b04:	00240200 	eoreq	r0, r4, r0, lsl #4
    1b08:	0b3e0b0b 	bleq	f8473c <__bss_end__+0xf7926c>
    1b0c:	00000e03 	andeq	r0, r0, r3, lsl #28
    1b10:	0b002403 	bleq	ab24 <__FUNCTION__.4086+0x214>
    1b14:	030b3e0b 	movweq	r3, #48651	; 0xbe0b
    1b18:	04000008 	streq	r0, [r0], #-8
    1b1c:	13490026 	movtne	r0, #36902	; 0x9026
    1b20:	16050000 	strne	r0, [r5], -r0
    1b24:	3a0e0300 	bcc	38272c <__bss_end__+0x37725c>
    1b28:	390b3b0b 	stmdbcc	fp, {r0, r1, r3, r8, r9, fp, ip, sp}
    1b2c:	0013490b 	andseq	r4, r3, fp, lsl #18
    1b30:	01150600 	tsteq	r5, r0, lsl #12
    1b34:	13491927 	movtne	r1, #39207	; 0x9927
    1b38:	00001301 	andeq	r1, r0, r1, lsl #6
    1b3c:	49000507 	stmdbmi	r0, {r0, r1, r2, r8, sl}
    1b40:	08000013 	stmdaeq	r0, {r0, r1, r4}
    1b44:	0e030034 	mcreq	0, 0, r0, cr3, cr4, {1}
    1b48:	0b3b0b3a 	bleq	ec4838 <__bss_end__+0xeb9368>
    1b4c:	13490b39 	movtne	r0, #39737	; 0x9b39
    1b50:	193c193f 	ldmdbne	ip!, {r0, r1, r2, r3, r4, r5, r8, fp, ip}
    1b54:	0f090000 	svceq	0x00090000
    1b58:	490b0b00 	stmdbmi	fp, {r8, r9, fp}
    1b5c:	0a000013 	beq	1bb0 <__code_start__-0x6450>
    1b60:	0b3e0104 	bleq	f81f78 <__bss_end__+0xf76aa8>
    1b64:	13490b0b 	movtne	r0, #39691	; 0x9b0b
    1b68:	0b3b0b3a 	bleq	ec4858 <__bss_end__+0xeb9388>
    1b6c:	13010b39 	movwne	r0, #6969	; 0x1b39
    1b70:	280b0000 	stmdacs	fp, {}	; <UNPREDICTABLE>
    1b74:	1c0e0300 	stcne	3, cr0, [lr], {-0}
    1b78:	0c00000b 	stceq	0, cr0, [r0], {11}
    1b7c:	0e030034 	mcreq	0, 0, r0, cr3, cr4, {1}
    1b80:	0b3b0b3a 	bleq	ec4870 <__bss_end__+0xeb93a0>
    1b84:	13490b39 	movtne	r0, #39737	; 0x9b39
    1b88:	0000061c 	andeq	r0, r0, ip, lsl r6
    1b8c:	3f012e0d 	svccc	0x00012e0d
    1b90:	3a0e0319 	bcc	3827fc <__bss_end__+0x37732c>
    1b94:	390b3b0b 	stmdbcc	fp, {r0, r1, r3, r8, r9, fp, ip, sp}
    1b98:	4919270b 	ldmdbmi	r9, {r0, r1, r3, r8, r9, sl, sp}
    1b9c:	12011113 	andne	r1, r1, #-1073741820	; 0xc0000004
    1ba0:	97184006 	ldrls	r4, [r8, -r6]
    1ba4:	13011942 	movwne	r1, #6466	; 0x1942
    1ba8:	050e0000 	streq	r0, [lr, #-0]
    1bac:	3a080300 	bcc	2027b4 <__bss_end__+0x1f72e4>
    1bb0:	390b3b0b 	stmdbcc	fp, {r0, r1, r3, r8, r9, fp, ip, sp}
    1bb4:	0213490b 	andseq	r4, r3, #180224	; 0x2c000
    1bb8:	1742b717 	smlaldne	fp, r2, r7, r7
    1bbc:	340f0000 	strcc	r0, [pc], #-0	; 1bc4 <__code_start__-0x643c>
    1bc0:	3a0e0300 	bcc	3827c8 <__bss_end__+0x3772f8>
    1bc4:	390b3b0b 	stmdbcc	fp, {r0, r1, r3, r8, r9, fp, ip, sp}
    1bc8:	0213490b 	andseq	r4, r3, #180224	; 0x2c000
    1bcc:	1742b717 	smlaldne	fp, r2, r7, r7
    1bd0:	34100000 	ldrcc	r0, [r0], #-0
    1bd4:	3a080300 	bcc	2027dc <__bss_end__+0x1f730c>
    1bd8:	390b3b0b 	stmdbcc	fp, {r0, r1, r3, r8, r9, fp, ip, sp}
    1bdc:	0213490b 	andseq	r4, r3, #180224	; 0x2c000
    1be0:	1742b717 	smlaldne	fp, r2, r7, r7
    1be4:	89110000 	ldmdbhi	r1, {}	; <UNPREDICTABLE>
    1be8:	11010182 	smlabbne	r1, r2, r1, r0
    1bec:	00133101 	andseq	r3, r3, r1, lsl #2
    1bf0:	828a1200 	addhi	r1, sl, #0, 4
    1bf4:	18020001 	stmdane	r2, {r0}
    1bf8:	00184291 	mulseq	r8, r1, r2
    1bfc:	012e1300 			; <UNDEFINED> instruction: 0x012e1300
    1c00:	0e03193f 			; <UNDEFINED> instruction: 0x0e03193f
    1c04:	0b3b0b3a 	bleq	ec48f4 <__bss_end__+0xeb9424>
    1c08:	19270b39 	stmdbne	r7!, {r0, r3, r4, r5, r8, r9, fp}
    1c0c:	06120111 			; <UNDEFINED> instruction: 0x06120111
    1c10:	42971840 	addsmi	r1, r7, #64, 16	; 0x400000
    1c14:	00130119 	andseq	r0, r3, r9, lsl r1
    1c18:	011d1400 	tsteq	sp, r0, lsl #8
    1c1c:	01521331 	cmpeq	r2, r1, lsr r3
    1c20:	550b42b8 	strpl	r4, [fp, #-696]	; 0xfffffd48
    1c24:	590b5817 	stmdbpl	fp, {r0, r1, r2, r4, fp, ip, lr}
    1c28:	010b570b 	tsteq	fp, fp, lsl #14
    1c2c:	15000013 	strne	r0, [r0, #-19]	; 0xffffffed
    1c30:	13310005 	teqne	r1, #5, 0
    1c34:	42b71702 	adcsmi	r1, r7, #524288	; 0x80000
    1c38:	16000017 			; <UNDEFINED> instruction: 0x16000017
    1c3c:	01018289 	smlabbeq	r1, r9, r2, r8
    1c40:	42950111 	addsmi	r0, r5, #1073741828	; 0x40000004
    1c44:	00133119 	andseq	r3, r3, r9, lsl r1
    1c48:	011d1700 	tsteq	sp, r0, lsl #14
    1c4c:	01521331 	cmpeq	r2, r1, lsr r3
    1c50:	110b42b8 			; <UNDEFINED> instruction: 0x110b42b8
    1c54:	58061201 	stmdapl	r6, {r0, r9, ip}
    1c58:	570b590b 	strpl	r5, [fp, -fp, lsl #18]
    1c5c:	1800000b 	stmdane	r0, {r0, r1, r3}
    1c60:	1331011d 	teqne	r1, #1073741831	; 0x40000007
    1c64:	42b80152 	adcsmi	r0, r8, #-2147483628	; 0x80000014
    1c68:	5817550b 	ldmdapl	r7, {r0, r1, r3, r8, sl, ip, lr}
    1c6c:	570b590b 	strpl	r5, [fp, -fp, lsl #18]
    1c70:	1900000b 	stmdbne	r0, {r0, r1, r3}
    1c74:	13310005 	teqne	r1, #5, 0
    1c78:	00000b1c 	andeq	r0, r0, ip, lsl fp
    1c7c:	55010b1a 	strpl	r0, [r1, #-2842]	; 0xfffff4e6
    1c80:	1b000017 	blne	1ce4 <__code_start__-0x631c>
    1c84:	13310034 	teqne	r1, #52, 0	; 0x34
    1c88:	341c0000 	ldrcc	r0, [ip], #-0
    1c8c:	02133100 	andseq	r3, r3, #0
    1c90:	1742b717 	smlaldne	fp, r2, r7, r7
    1c94:	891d0000 	ldmdbhi	sp, {}	; <UNPREDICTABLE>
    1c98:	11010182 	smlabbne	r1, r2, r1, r0
    1c9c:	01133101 	tsteq	r3, r1, lsl #2
    1ca0:	1e000013 	mcrne	0, 0, r0, cr0, cr3, {0}
    1ca4:	193f012e 	ldmdbne	pc!, {r1, r2, r3, r5, r8}	; <UNPREDICTABLE>
    1ca8:	0b3a0e03 	bleq	e854bc <__bss_end__+0xe79fec>
    1cac:	0b390b3b 	bleq	e449a0 <__bss_end__+0xe394d0>
    1cb0:	0b201927 	bleq	808154 <__bss_end__+0x7fcc84>
    1cb4:	00001301 	andeq	r1, r0, r1, lsl #6
    1cb8:	0300051f 	movweq	r0, #1311	; 0x51f
    1cbc:	3b0b3a08 	blcc	2d04e4 <__bss_end__+0x2c5014>
    1cc0:	490b390b 	stmdbmi	fp, {r0, r1, r3, r8, fp, ip, sp}
    1cc4:	20000013 	andcs	r0, r0, r3, lsl r0
    1cc8:	0e030005 	cdpeq	0, 0, cr0, cr3, cr5, {0}
    1ccc:	0b3b0b3a 	bleq	ec49bc <__bss_end__+0xeb94ec>
    1cd0:	13490b39 	movtne	r0, #39737	; 0x9b39
    1cd4:	34210000 	strtcc	r0, [r1], #-0
    1cd8:	3a080300 	bcc	2028e0 <__bss_end__+0x1f7410>
    1cdc:	390b3b0b 	stmdbcc	fp, {r0, r1, r3, r8, r9, fp, ip, sp}
    1ce0:	0013490b 	andseq	r4, r3, fp, lsl #18
    1ce4:	012e2200 			; <UNDEFINED> instruction: 0x012e2200
    1ce8:	0b3a0e03 	bleq	e854fc <__bss_end__+0xe7a02c>
    1cec:	0b390b3b 	bleq	e449e0 <__bss_end__+0xe39510>
    1cf0:	13491927 	movtne	r1, #39207	; 0x9927
    1cf4:	13010b20 	movwne	r0, #6944	; 0x1b20
    1cf8:	2e230000 	cdpcs	0, 2, cr0, cr3, cr0, {0}
    1cfc:	11133101 	tstne	r3, r1, lsl #2
    1d00:	40061201 	andmi	r1, r6, r1, lsl #4
    1d04:	19429718 	stmdbne	r2, {r3, r4, r8, r9, sl, ip, pc}^
    1d08:	00001301 	andeq	r1, r0, r1, lsl #6
    1d0c:	3f002e24 	svccc	0x00002e24
    1d10:	6e193c19 	mrcvs	12, 0, r3, cr9, cr9, {0}
    1d14:	3a0e030e 	bcc	382954 <__bss_end__+0x377484>
    1d18:	390b3b0b 	stmdbcc	fp, {r0, r1, r3, r8, r9, fp, ip, sp}
    1d1c:	0000000b 	andeq	r0, r0, fp
    1d20:	25011101 	strcs	r1, [r1, #-257]	; 0xfffffeff
    1d24:	030b130e 	movweq	r1, #45838	; 0xb30e
    1d28:	110e1b0e 	tstne	lr, lr, lsl #22
    1d2c:	10061201 	andne	r1, r6, r1, lsl #4
    1d30:	02000017 	andeq	r0, r0, #23, 0
    1d34:	0b0b0024 	bleq	2c1dcc <__bss_end__+0x2b68fc>
    1d38:	08030b3e 	stmdaeq	r3, {r1, r2, r3, r4, r5, r8, r9, fp}
    1d3c:	24030000 	strcs	r0, [r3], #-0
    1d40:	3e0b0b00 	vmlacc.f64	d0, d11, d0
    1d44:	000e030b 	andeq	r0, lr, fp, lsl #6
    1d48:	01150400 	tsteq	r5, r0, lsl #8
    1d4c:	13491927 	movtne	r1, #39207	; 0x9927
    1d50:	00001301 	andeq	r1, r0, r1, lsl #6
    1d54:	49000505 	stmdbmi	r0, {r0, r2, r8, sl}
    1d58:	06000013 			; <UNDEFINED> instruction: 0x06000013
    1d5c:	0e030034 	mcreq	0, 0, r0, cr3, cr4, {1}
    1d60:	0b3b0b3a 	bleq	ec4a50 <__bss_end__+0xeb9580>
    1d64:	13490b39 	movtne	r0, #39737	; 0x9b39
    1d68:	193c193f 	ldmdbne	ip!, {r0, r1, r2, r3, r4, r5, r8, fp, ip}
    1d6c:	0f070000 	svceq	0x00070000
    1d70:	490b0b00 	stmdbmi	fp, {r8, r9, fp}
    1d74:	08000013 	stmdaeq	r0, {r0, r1, r4}
    1d78:	13490026 	movtne	r0, #36902	; 0x9026
    1d7c:	34090000 	strcc	r0, [r9], #-0
    1d80:	3a134700 	bcc	4d3988 <__bss_end__+0x4c84b8>
    1d84:	390b3b0b 	stmdbcc	fp, {r0, r1, r3, r8, r9, fp, ip, sp}
    1d88:	0018020b 	andseq	r0, r8, fp, lsl #4
    1d8c:	012e0a00 			; <UNDEFINED> instruction: 0x012e0a00
    1d90:	0e03193f 			; <UNDEFINED> instruction: 0x0e03193f
    1d94:	0b3b0b3a 	bleq	ec4a84 <__bss_end__+0xeb95b4>
    1d98:	19270b39 	stmdbne	r7!, {r0, r3, r4, r5, r8, r9, fp}
    1d9c:	06120111 			; <UNDEFINED> instruction: 0x06120111
    1da0:	42971840 	addsmi	r1, r7, #64, 16	; 0x400000
    1da4:	00130119 	andseq	r0, r3, r9, lsl r1
    1da8:	00050b00 	andeq	r0, r5, r0, lsl #22
    1dac:	0b3a0803 	bleq	e83dc0 <__bss_end__+0xe788f0>
    1db0:	0b390b3b 	bleq	e44aa4 <__bss_end__+0xe395d4>
    1db4:	18021349 	stmdane	r2, {r0, r3, r6, r8, r9, ip}
    1db8:	2e0c0000 	cdpcs	0, 0, cr0, cr12, cr0, {0}
    1dbc:	03193f00 	tsteq	r9, #0, 30
    1dc0:	3b0b3a0e 	blcc	2d0600 <__bss_end__+0x2c5130>
    1dc4:	270b390b 	strcs	r3, [fp, -fp, lsl #18]
    1dc8:	12011119 	andne	r1, r1, #1073741830	; 0x40000006
    1dcc:	97184006 	ldrls	r4, [r8, -r6]
    1dd0:	00001942 	andeq	r1, r0, r2, asr #18
    1dd4:	03012e0d 	movweq	r2, #7693	; 0x1e0d
    1dd8:	3b0b3a0e 	blcc	2d0618 <__bss_end__+0x2c5148>
    1ddc:	270b390b 	strcs	r3, [fp, -fp, lsl #18]
    1de0:	11134919 	tstne	r3, r9, lsl r9
    1de4:	40061201 	andmi	r1, r6, r1, lsl #4
    1de8:	19429718 	stmdbne	r2, {r3, r4, r8, r9, sl, ip, pc}^
    1dec:	00001301 	andeq	r1, r0, r1, lsl #6
    1df0:	0300050e 	movweq	r0, #1294	; 0x50e
    1df4:	3b0b3a08 	blcc	2d061c <__bss_end__+0x2c514c>
    1df8:	490b390b 	stmdbmi	fp, {r0, r1, r3, r8, fp, ip, sp}
    1dfc:	b7170213 			; <UNDEFINED> instruction: 0xb7170213
    1e00:	00001742 	andeq	r1, r0, r2, asr #14
    1e04:	0182890f 	orreq	r8, r2, pc, lsl #18
    1e08:	31011101 	tstcc	r1, r1, lsl #2
    1e0c:	10000013 	andne	r0, r0, r3, lsl r0
    1e10:	0001828a 	andeq	r8, r1, sl, lsl #5
    1e14:	42911802 	addsmi	r1, r1, #131072	; 0x20000
    1e18:	11000018 	tstne	r0, r8, lsl r0
    1e1c:	193f002e 	ldmdbne	pc!, {r1, r2, r3, r5}	; <UNPREDICTABLE>
    1e20:	0e6e193c 			; <UNDEFINED> instruction: 0x0e6e193c
    1e24:	0b3a0e03 	bleq	e85638 <__bss_end__+0xe7a168>
    1e28:	0b390b3b 	bleq	e44b1c <__bss_end__+0xe3964c>
    1e2c:	01000000 	mrseq	r0, (UNDEF: 0)
    1e30:	0e250111 	mcreq	1, 1, r0, cr5, cr1, {0}
    1e34:	0e030b13 	vmoveq.32	d3[0], r0
    1e38:	01110e1b 	tsteq	r1, fp, lsl lr
    1e3c:	17100612 			; <UNDEFINED> instruction: 0x17100612
    1e40:	24020000 	strcs	r0, [r2], #-0
    1e44:	3e0b0b00 	vmlacc.f64	d0, d11, d0
    1e48:	0008030b 	andeq	r0, r8, fp, lsl #6
    1e4c:	00240300 	eoreq	r0, r4, r0, lsl #6
    1e50:	0b3e0b0b 	bleq	f84a84 <__bss_end__+0xf795b4>
    1e54:	00000e03 	andeq	r0, r0, r3, lsl #28
    1e58:	27011504 	strcs	r1, [r1, -r4, lsl #10]
    1e5c:	01134919 	tsteq	r3, r9, lsl r9
    1e60:	05000013 	streq	r0, [r0, #-19]	; 0xffffffed
    1e64:	13490005 	movtne	r0, #36869	; 0x9005
    1e68:	34060000 	strcc	r0, [r6], #-0
    1e6c:	3a0e0300 	bcc	382a74 <__bss_end__+0x3775a4>
    1e70:	390b3b0b 	stmdbcc	fp, {r0, r1, r3, r8, r9, fp, ip, sp}
    1e74:	3f13490b 	svccc	0x0013490b
    1e78:	00193c19 	andseq	r3, r9, r9, lsl ip
    1e7c:	000f0700 	andeq	r0, pc, r0, lsl #14
    1e80:	13490b0b 	movtne	r0, #39691	; 0x9b0b
    1e84:	26080000 	strcs	r0, [r8], -r0
    1e88:	00134900 	andseq	r4, r3, r0, lsl #18
    1e8c:	012e0900 			; <UNDEFINED> instruction: 0x012e0900
    1e90:	0e03193f 			; <UNDEFINED> instruction: 0x0e03193f
    1e94:	0b3b0b3a 	bleq	ec4b84 <__bss_end__+0xeb96b4>
    1e98:	19270b39 	stmdbne	r7!, {r0, r3, r4, r5, r8, r9, fp}
    1e9c:	01111349 	tsteq	r1, r9, asr #6
    1ea0:	18400612 	stmdane	r0, {r1, r4, r9, sl}^
    1ea4:	01194297 			; <UNDEFINED> instruction: 0x01194297
    1ea8:	0a000013 	beq	1efc <__code_start__-0x6104>
    1eac:	0e030005 	cdpeq	0, 0, cr0, cr3, cr5, {0}
    1eb0:	0b3b0b3a 	bleq	ec4ba0 <__bss_end__+0xeb96d0>
    1eb4:	13490b39 	movtne	r0, #39737	; 0x9b39
    1eb8:	00001802 	andeq	r1, r0, r2, lsl #16
    1ebc:	0300050b 	movweq	r0, #1291	; 0x50b
    1ec0:	3b0b3a08 	blcc	2d06e8 <__bss_end__+0x2c5218>
    1ec4:	490b390b 	stmdbmi	fp, {r0, r1, r3, r8, fp, ip, sp}
    1ec8:	b7170213 			; <UNDEFINED> instruction: 0xb7170213
    1ecc:	00001742 	andeq	r1, r0, r2, asr #14
    1ed0:	0300340c 	movweq	r3, #1036	; 0x40c
    1ed4:	3b0b3a08 	blcc	2d06fc <__bss_end__+0x2c522c>
    1ed8:	490b390b 	stmdbmi	fp, {r0, r1, r3, r8, fp, ip, sp}
    1edc:	b7170213 			; <UNDEFINED> instruction: 0xb7170213
    1ee0:	00001742 	andeq	r1, r0, r2, asr #14
    1ee4:	01110100 	tsteq	r1, r0, lsl #2
    1ee8:	0b130e25 	bleq	4c5784 <__bss_end__+0x4ba2b4>
    1eec:	0e1b0e03 	cdpeq	14, 1, cr0, cr11, cr3, {0}
    1ef0:	06120111 			; <UNDEFINED> instruction: 0x06120111
    1ef4:	00001710 	andeq	r1, r0, r0, lsl r7
    1ef8:	0b002402 	bleq	af08 <__FUNCTION__.4030+0xb0>
    1efc:	030b3e0b 	movweq	r3, #48651	; 0xbe0b
    1f00:	03000008 	movweq	r0, #8
    1f04:	0b0b0024 	bleq	2c1f9c <__bss_end__+0x2b6acc>
    1f08:	0e030b3e 	vmoveq.16	d3[0], r0
    1f0c:	15040000 	strne	r0, [r4, #-0]
    1f10:	49192701 	ldmdbmi	r9, {r0, r8, r9, sl, sp}
    1f14:	00130113 	andseq	r0, r3, r3, lsl r1
    1f18:	00050500 	andeq	r0, r5, r0, lsl #10
    1f1c:	00001349 	andeq	r1, r0, r9, asr #6
    1f20:	03003406 	movweq	r3, #1030	; 0x406
    1f24:	3b0b3a0e 	blcc	2d0764 <__bss_end__+0x2c5294>
    1f28:	490b390b 	stmdbmi	fp, {r0, r1, r3, r8, fp, ip, sp}
    1f2c:	3c193f13 	ldccc	15, cr3, [r9], {19}
    1f30:	07000019 	smladeq	r0, r9, r0, r0
    1f34:	0b0b000f 	bleq	2c1f78 <__bss_end__+0x2b6aa8>
    1f38:	00001349 	andeq	r1, r0, r9, asr #6
    1f3c:	49002608 	stmdbmi	r0, {r3, r9, sl, sp}
    1f40:	09000013 	stmdbeq	r0, {r0, r1, r4}
    1f44:	193f012e 	ldmdbne	pc!, {r1, r2, r3, r5, r8}	; <UNPREDICTABLE>
    1f48:	0b3a0e03 	bleq	e8575c <__bss_end__+0xe7a28c>
    1f4c:	0b390b3b 	bleq	e44c40 <__bss_end__+0xe39770>
    1f50:	13491927 	movtne	r1, #39207	; 0x9927
    1f54:	06120111 			; <UNDEFINED> instruction: 0x06120111
    1f58:	42971840 	addsmi	r1, r7, #64, 16	; 0x400000
    1f5c:	0a000019 	beq	1fc8 <__code_start__-0x6038>
    1f60:	08030005 	stmdaeq	r3, {r0, r2}
    1f64:	0b3b0b3a 	bleq	ec4c54 <__bss_end__+0xeb9784>
    1f68:	13490b39 	movtne	r0, #39737	; 0x9b39
    1f6c:	42b71702 	adcsmi	r1, r7, #524288	; 0x80000
    1f70:	00000017 	andeq	r0, r0, r7, lsl r0
    1f74:	25011101 	strcs	r1, [r1, #-257]	; 0xfffffeff
    1f78:	030b130e 	movweq	r1, #45838	; 0xb30e
    1f7c:	110e1b0e 	tstne	lr, lr, lsl #22
    1f80:	10061201 	andne	r1, r6, r1, lsl #4
    1f84:	02000017 	andeq	r0, r0, #23, 0
    1f88:	0b0b0024 	bleq	2c2020 <__bss_end__+0x2b6b50>
    1f8c:	08030b3e 	stmdaeq	r3, {r1, r2, r3, r4, r5, r8, r9, fp}
    1f90:	24030000 	strcs	r0, [r3], #-0
    1f94:	3e0b0b00 	vmlacc.f64	d0, d11, d0
    1f98:	000e030b 	andeq	r0, lr, fp, lsl #6
    1f9c:	01150400 	tsteq	r5, r0, lsl #8
    1fa0:	13491927 	movtne	r1, #39207	; 0x9927
    1fa4:	00001301 	andeq	r1, r0, r1, lsl #6
    1fa8:	49000505 	stmdbmi	r0, {r0, r2, r8, sl}
    1fac:	06000013 			; <UNDEFINED> instruction: 0x06000013
    1fb0:	0e030034 	mcreq	0, 0, r0, cr3, cr4, {1}
    1fb4:	0b3b0b3a 	bleq	ec4ca4 <__bss_end__+0xeb97d4>
    1fb8:	13490b39 	movtne	r0, #39737	; 0x9b39
    1fbc:	193c193f 	ldmdbne	ip!, {r0, r1, r2, r3, r4, r5, r8, fp, ip}
    1fc0:	0f070000 	svceq	0x00070000
    1fc4:	490b0b00 	stmdbmi	fp, {r8, r9, fp}
    1fc8:	08000013 	stmdaeq	r0, {r0, r1, r4}
    1fcc:	13490026 	movtne	r0, #36902	; 0x9026
    1fd0:	2e090000 	cdpcs	0, 0, cr0, cr9, cr0, {0}
    1fd4:	03193f01 	tsteq	r9, #1, 30
    1fd8:	3b0b3a0e 	blcc	2d0818 <__bss_end__+0x2c5348>
    1fdc:	270b390b 	strcs	r3, [fp, -fp, lsl #18]
    1fe0:	11134919 	tstne	r3, r9, lsl r9
    1fe4:	40061201 	andmi	r1, r6, r1, lsl #4
    1fe8:	19429718 	stmdbne	r2, {r3, r4, r8, r9, sl, ip, pc}^
    1fec:	00001301 	andeq	r1, r0, r1, lsl #6
    1ff0:	0300050a 	movweq	r0, #1290	; 0x50a
    1ff4:	3b0b3a08 	blcc	2d081c <__bss_end__+0x2c534c>
    1ff8:	490b390b 	stmdbmi	fp, {r0, r1, r3, r8, fp, ip, sp}
    1ffc:	00180213 	andseq	r0, r8, r3, lsl r2
    2000:	00050b00 	andeq	r0, r5, r0, lsl #22
    2004:	0b3a0803 	bleq	e84018 <__bss_end__+0xe78b48>
    2008:	0b390b3b 	bleq	e44cfc <__bss_end__+0xe3982c>
    200c:	17021349 	strne	r1, [r2, -r9, asr #6]
    2010:	001742b7 			; <UNDEFINED> instruction: 0x001742b7
    2014:	00340c00 	eorseq	r0, r4, r0, lsl #24
    2018:	0b3a0803 	bleq	e8402c <__bss_end__+0xe78b5c>
    201c:	0b390b3b 	bleq	e44d10 <__bss_end__+0xe39840>
    2020:	17021349 	strne	r1, [r2, -r9, asr #6]
    2024:	001742b7 			; <UNDEFINED> instruction: 0x001742b7
    2028:	11010000 	mrsne	r0, (UNDEF: 1)
    202c:	130e2501 	movwne	r2, #58625	; 0xe501
    2030:	1b0e030b 	blne	382c64 <__bss_end__+0x377794>
    2034:	1201110e 	andne	r1, r1, #-2147483645	; 0x80000003
    2038:	00171006 	andseq	r1, r7, r6
    203c:	00240200 	eoreq	r0, r4, r0, lsl #4
    2040:	0b3e0b0b 	bleq	f84c74 <__bss_end__+0xf797a4>
    2044:	00000803 	andeq	r0, r0, r3, lsl #16
    2048:	03001603 	movweq	r1, #1539	; 0x603
    204c:	3b0b3a0e 	blcc	2d088c <__bss_end__+0x2c53bc>
    2050:	490b390b 	stmdbmi	fp, {r0, r1, r3, r8, fp, ip, sp}
    2054:	04000013 	streq	r0, [r0], #-19	; 0xffffffed
    2058:	0b0b0024 	bleq	2c20f0 <__bss_end__+0x2b6c20>
    205c:	0e030b3e 	vmoveq.16	d3[0], r0
    2060:	26050000 	strcs	r0, [r5], -r0
    2064:	00134900 	andseq	r4, r3, r0, lsl #18
    2068:	01150600 	tsteq	r5, r0, lsl #12
    206c:	13491927 	movtne	r1, #39207	; 0x9927
    2070:	00001301 	andeq	r1, r0, r1, lsl #6
    2074:	49000507 	stmdbmi	r0, {r0, r1, r2, r8, sl}
    2078:	08000013 	stmdaeq	r0, {r0, r1, r4}
    207c:	0e030034 	mcreq	0, 0, r0, cr3, cr4, {1}
    2080:	0b3b0b3a 	bleq	ec4d70 <__bss_end__+0xeb98a0>
    2084:	13490b39 	movtne	r0, #39737	; 0x9b39
    2088:	193c193f 	ldmdbne	ip!, {r0, r1, r2, r3, r4, r5, r8, fp, ip}
    208c:	0f090000 	svceq	0x00090000
    2090:	490b0b00 	stmdbmi	fp, {r8, r9, fp}
    2094:	0a000013 	beq	20e8 <__code_start__-0x5f18>
    2098:	193f012e 	ldmdbne	pc!, {r1, r2, r3, r5, r8}	; <UNPREDICTABLE>
    209c:	0b3a0e03 	bleq	e858b0 <__bss_end__+0xe7a3e0>
    20a0:	0b390b3b 	bleq	e44d94 <__bss_end__+0xe398c4>
    20a4:	13491927 	movtne	r1, #39207	; 0x9927
    20a8:	06120111 			; <UNDEFINED> instruction: 0x06120111
    20ac:	42971840 	addsmi	r1, r7, #64, 16	; 0x400000
    20b0:	00130119 	andseq	r0, r3, r9, lsl r1
    20b4:	00050b00 	andeq	r0, r5, r0, lsl #22
    20b8:	0b3a0803 	bleq	e840cc <__bss_end__+0xe78bfc>
    20bc:	0b390b3b 	bleq	e44db0 <__bss_end__+0xe398e0>
    20c0:	17021349 	strne	r1, [r2, -r9, asr #6]
    20c4:	001742b7 			; <UNDEFINED> instruction: 0x001742b7
    20c8:	00340c00 	eorseq	r0, r4, r0, lsl #24
    20cc:	0b3a0803 	bleq	e840e0 <__bss_end__+0xe78c10>
    20d0:	0b390b3b 	bleq	e44dc4 <__bss_end__+0xe398f4>
    20d4:	17021349 	strne	r1, [r2, -r9, asr #6]
    20d8:	001742b7 			; <UNDEFINED> instruction: 0x001742b7
    20dc:	11010000 	mrsne	r0, (UNDEF: 1)
    20e0:	130e2501 	movwne	r2, #58625	; 0xe501
    20e4:	1b0e030b 	blne	382d18 <__bss_end__+0x377848>
    20e8:	1201110e 	andne	r1, r1, #-2147483645	; 0x80000003
    20ec:	00171006 	andseq	r1, r7, r6
    20f0:	00240200 	eoreq	r0, r4, r0, lsl #4
    20f4:	0b3e0b0b 	bleq	f84d28 <__bss_end__+0xf79858>
    20f8:	00000803 	andeq	r0, r0, r3, lsl #16
    20fc:	0b002403 	bleq	b110 <buf.3944+0x4c>
    2100:	030b3e0b 	movweq	r3, #48651	; 0xbe0b
    2104:	0400000e 	streq	r0, [r0], #-14
    2108:	19270115 	stmdbne	r7!, {r0, r2, r4, r8}
    210c:	13011349 	movwne	r1, #4937	; 0x1349
    2110:	05050000 	streq	r0, [r5, #-0]
    2114:	00134900 	andseq	r4, r3, r0, lsl #18
    2118:	00340600 	eorseq	r0, r4, r0, lsl #12
    211c:	0b3a0e03 	bleq	e85930 <__bss_end__+0xe7a460>
    2120:	0b390b3b 	bleq	e44e14 <__bss_end__+0xe39944>
    2124:	193f1349 	ldmdbne	pc!, {r0, r3, r6, r8, r9, ip}	; <UNPREDICTABLE>
    2128:	0000193c 	andeq	r1, r0, ip, lsr r9
    212c:	0b000f07 	bleq	5d50 <__code_start__-0x22b0>
    2130:	0013490b 	andseq	r4, r3, fp, lsl #18
    2134:	00260800 	eoreq	r0, r6, r0, lsl #16
    2138:	00001349 	andeq	r1, r0, r9, asr #6
    213c:	3f002e09 	svccc	0x00002e09
    2140:	3a0e0319 	bcc	382dac <__bss_end__+0x3778dc>
    2144:	390b3b0b 	stmdbcc	fp, {r0, r1, r3, r8, r9, fp, ip, sp}
    2148:	1119270b 	tstne	r9, fp, lsl #14
    214c:	40061201 	andmi	r1, r6, r1, lsl #4
    2150:	19429718 	stmdbne	r2, {r3, r4, r8, r9, sl, ip, pc}^
    2154:	Address 0x0000000000002154 is out of bounds.


Disassembly of section .debug_loc:

00000000 <.debug_loc>:
       0:	00000000 	andeq	r0, r0, r0
       4:	000000e8 	andeq	r0, r0, r8, ror #1
       8:	000000f0 	strdeq	r0, [r0], -r0	; <UNPREDICTABLE>
       c:	f0530001 			; <UNDEFINED> instruction: 0xf0530001
      10:	fb000000 	blx	1a <__code_start__-0x7fe6>
      14:	25000000 	strcs	r0, [r0, #-0]
      18:	70007000 	andvc	r7, r0, r0
      1c:	f72cf700 			; <UNDEFINED> instruction: 0xf72cf700
      20:	0825f425 	stmdaeq	r5!, {r0, r2, r5, sl, ip, sp, lr, pc}
      24:	aaaaaaab 	bge	feaaaad8 <__bss_end__+0xfea9f608>
      28:	00000000 	andeq	r0, r0, r0
      2c:	f720081e 			; <UNDEFINED> instruction: 0xf720081e
      30:	2cf72525 	cfldr64cs	mvdx2, [r7], #148	; 0x94
      34:	253200f7 	ldrcs	r0, [r2, #-247]!	; 0xffffff09
      38:	24311e33 	ldrtcs	r1, [r1], #-3635	; 0xfffff1cd
      3c:	00009f1c 	andeq	r9, r0, ip, lsl pc
	...
      48:	00f40000 	rscseq	r0, r4, r0
      4c:	01380000 	teqeq	r8, r0
      50:	00010000 	andeq	r0, r1, r0
      54:	00015055 	andeq	r5, r1, r5, asr r0
      58:	00018c00 	andeq	r8, r1, r0, lsl #24
      5c:	55000100 	strpl	r0, [r0, #-256]	; 0xffffff00
	...
      68:	01040000 	mrseq	r0, (UNDEF: 4)
      6c:	011b0000 	tsteq	fp, r0
      70:	00010000 	andeq	r0, r1, r0
      74:	00000052 	andeq	r0, r0, r2, asr r0
      78:	00000000 	andeq	r0, r0, r0
      7c:	00000500 	andeq	r0, r0, r0, lsl #10
      80:	00002400 	andeq	r2, r0, r0, lsl #8
      84:	00002800 	andeq	r2, r0, r0, lsl #16
      88:	30000200 	andcc	r0, r0, r0, lsl #4
      8c:	0000289f 	muleq	r0, pc, r8	; <UNPREDICTABLE>
      90:	00007c00 	andeq	r7, r0, r0, lsl #24
      94:	54000100 	strpl	r0, [r0], #-256	; 0xffffff00
	...
      a0:	00480001 	subeq	r0, r8, r1
      a4:	00600000 	rsbeq	r0, r0, r0
      a8:	00020000 	andeq	r0, r2, r0
      ac:	00009f3e 	andeq	r9, r0, lr, lsr pc
      b0:	00000000 	andeq	r0, r0, r0
      b4:	00010000 	andeq	r0, r1, r0
      b8:	00000048 	andeq	r0, r0, r8, asr #32
      bc:	00000060 	andeq	r0, r0, r0, rrx
      c0:	f4f20006 			; <UNDEFINED> instruction: 0xf4f20006
      c4:	00000003 	andeq	r0, r0, r3
	...
      d0:	00480001 	subeq	r0, r8, r1
      d4:	00600000 	rsbeq	r0, r0, r0
      d8:	00060000 	andeq	r0, r6, r0
      dc:	00a75803 	adceq	r5, r7, r3, lsl #16
      e0:	00009f00 	andeq	r9, r0, r0, lsl #30
	...
      ec:	007c0000 	rsbseq	r0, ip, r0
      f0:	00f80000 	rscseq	r0, r8, r0
      f4:	00010000 	andeq	r0, r1, r0
      f8:	00013854 	andeq	r3, r1, r4, asr r8
      fc:	00015000 	andeq	r5, r1, r0
     100:	54000100 	strpl	r0, [r0], #-256	; 0xffffff00
	...
     10c:	008c0000 	addeq	r0, ip, r0
     110:	00a40000 	adceq	r0, r4, r0
     114:	00020000 	andeq	r0, r2, r0
     118:	00009f42 	andeq	r9, r0, r2, asr #30
	...
     124:	0000008c 	andeq	r0, r0, ip, lsl #1
     128:	000000a4 	andeq	r0, r0, r4, lsr #1
     12c:	f4f20006 			; <UNDEFINED> instruction: 0xf4f20006
     130:	00000003 	andeq	r0, r0, r3
	...
     13c:	008c0000 	addeq	r0, ip, r0
     140:	00a40000 	adceq	r0, r4, r0
     144:	00060000 	andeq	r0, r6, r0
     148:	00a75803 	adceq	r5, r7, r3, lsl #16
     14c:	00009f00 	andeq	r9, r0, r0, lsl #30
	...
     15c:	00000344 	andeq	r0, r0, r4, asr #6
     160:	0000035c 	andeq	r0, r0, ip, asr r3
     164:	5c500001 	mrrcpl	0, 0, r0, r0, cr1	; <UNPREDICTABLE>
     168:	28000003 	stmdacs	r0, {r0, r1}
     16c:	01000004 	tsteq	r0, r4
     170:	04285500 	strteq	r5, [r8], #-1280	; 0xfffffb00
     174:	04340000 	ldrteq	r0, [r4], #-0
     178:	00040000 	andeq	r0, r4, r0
     17c:	9f5001f3 	svcls	0x005001f3
	...
     18c:	036c0000 	cmneq	ip, #0, 0
     190:	03770000 	cmneq	r7, #0, 0
     194:	00010000 	andeq	r0, r1, r0
     198:	00037750 	andeq	r7, r3, r0, asr r7
     19c:	00042800 	andeq	r2, r4, r0, lsl #16
     1a0:	54000100 	strpl	r0, [r0], #-256	; 0xffffff00
     1a4:	00000428 	andeq	r0, r0, r8, lsr #8
     1a8:	00000434 	andeq	r0, r0, r4, lsr r4
     1ac:	cc700004 	ldclgt	0, cr0, [r0], #-16
     1b0:	00009f7e 	andeq	r9, r0, lr, ror pc
     1b4:	00000000 	andeq	r0, r0, r0
     1b8:	00030000 	andeq	r0, r3, r0
     1bc:	03e80000 	mvneq	r0, #0, 0
     1c0:	04280000 	strteq	r0, [r8], #-0
     1c4:	00010000 	andeq	r0, r1, r0
     1c8:	00042857 	andeq	r2, r4, r7, asr r8
     1cc:	00043400 	andeq	r3, r4, r0, lsl #8
     1d0:	50000100 	andpl	r0, r0, r0, lsl #2
	...
     1dc:	00000002 	andeq	r0, r0, r2
     1e0:	00000378 	andeq	r0, r0, r8, ror r3
     1e4:	0000037c 	andeq	r0, r0, ip, ror r3
     1e8:	9f300002 	svcls	0x00300002
     1ec:	0000037c 	andeq	r0, r0, ip, ror r3
     1f0:	000003ac 	andeq	r0, r0, ip, lsr #7
     1f4:	00530001 	subseq	r0, r3, r1
     1f8:	00000000 	andeq	r0, r0, r0
     1fc:	05000000 	streq	r0, [r0, #-0]
     200:	e8000000 	stmda	r0, {}	; <UNPREDICTABLE>
     204:	ec000003 	stc	0, cr0, [r0], {3}
     208:	02000003 	andeq	r0, r0, #3, 0
     20c:	ec9f3000 	ldc	0, cr3, [pc], {0}
     210:	28000003 	stmdacs	r0, {r0, r1}
     214:	01000004 	tsteq	r0, r4
     218:	00005600 	andeq	r5, r0, r0, lsl #12
	...
     224:	00000400 	andeq	r0, r0, r0, lsl #8
     228:	0000040c 	andeq	r0, r0, ip, lsl #8
     22c:	00500001 	subseq	r0, r0, r1
	...
     240:	14000000 	strne	r0, [r0], #-0
     244:	3c000001 	stccc	0, cr0, [r0], {1}
     248:	01000001 	tsteq	r0, r1
     24c:	013c5000 	teqeq	ip, r0
     250:	01440000 	mrseq	r0, (UNDEF: 68)
     254:	00040000 	andeq	r0, r4, r0
     258:	9f5001f3 	svcls	0x005001f3
     25c:	00000144 	andeq	r0, r0, r4, asr #2
     260:	00000148 	andeq	r0, r0, r8, asr #2
     264:	48500001 	ldmdami	r0, {r0}^
     268:	4c000001 	stcmi	0, cr0, [r0], {1}
     26c:	04000001 	streq	r0, [r0], #-1
     270:	5001f300 	andpl	pc, r1, r0, lsl #6
     274:	00014c9f 	muleq	r1, pc, ip	; <UNPREDICTABLE>
     278:	00015000 	andeq	r5, r1, r0
     27c:	50000100 	andpl	r0, r0, r0, lsl #2
     280:	00000150 	andeq	r0, r0, r0, asr r1
     284:	00000158 	andeq	r0, r0, r8, asr r1
     288:	01f30004 	mvnseq	r0, r4
     28c:	00009f50 	andeq	r9, r0, r0, asr pc
     290:	00000000 	andeq	r0, r0, r0
     294:	00010000 	andeq	r0, r1, r0
     298:	00000138 	andeq	r0, r0, r8, lsr r1
     29c:	00000144 	andeq	r0, r0, r4, asr #2
     2a0:	4a400004 	bmi	10002b8 <__bss_end__+0xff4de8>
     2a4:	00009f24 	andeq	r9, r0, r4, lsr #30
	...
     2b0:	019c0000 	orrseq	r0, ip, r0
     2b4:	01b40000 			; <UNDEFINED> instruction: 0x01b40000
     2b8:	00010000 	andeq	r0, r1, r0
     2bc:	0001b450 	andeq	fp, r1, r0, asr r4
     2c0:	00033800 	andeq	r3, r3, r0, lsl #16
     2c4:	54000100 	strpl	r0, [r0], #-256	; 0xffffff00
	...
     2d0:	00020201 	andeq	r0, r2, r1, lsl #4
     2d4:	000001b8 			; <UNDEFINED> instruction: 0x000001b8
     2d8:	000001b8 			; <UNDEFINED> instruction: 0x000001b8
     2dc:	b8540001 	ldmdalt	r4, {r0}^
     2e0:	38000001 	stmdacc	r0, {r0}
     2e4:	04000003 	streq	r0, [r0], #-3
     2e8:	7ecc7400 	cdpvc	4, 12, cr7, cr12, cr0, {0}
     2ec:	0000009f 	muleq	r0, pc, r0	; <UNPREDICTABLE>
	...
     2fc:	00020000 	andeq	r0, r2, r0
     300:	00023400 	andeq	r3, r2, r0, lsl #8
     304:	53000100 	movwpl	r0, #256	; 0x100
     308:	0000025c 	andeq	r0, r0, ip, asr r2
     30c:	0000025f 	andeq	r0, r0, pc, asr r2
     310:	80530001 	subshi	r0, r3, r1
     314:	83000002 	movwhi	r0, #2
     318:	01000002 	tsteq	r0, r2
     31c:	02a45300 	adceq	r5, r4, #0, 6
     320:	02a80000 	adceq	r0, r8, #0, 0
     324:	00010000 	andeq	r0, r1, r0
     328:	00000053 	andeq	r0, r0, r3, asr r0
     32c:	00000000 	andeq	r0, r0, r0
     330:	a8000000 	stmdage	r0, {}	; <UNPREDICTABLE>
     334:	c4000002 	strgt	r0, [r0], #-2
     338:	01000002 	tsteq	r0, r2
     33c:	00005300 	andeq	r5, r0, r0, lsl #6
	...
     348:	01700000 	cmneq	r0, r0
     34c:	017f0000 	cmneq	pc, r0
     350:	00010000 	andeq	r0, r1, r0
     354:	00017f50 	andeq	r7, r1, r0, asr pc
     358:	00019000 	andeq	r9, r1, r0
     35c:	f3000400 	vshl.u8	d0, d0, d0
     360:	009f5001 	addseq	r5, pc, r1
	...
     36c:	00018000 	andeq	r8, r1, r0
     370:	00018c00 	andeq	r8, r1, r0, lsl #24
     374:	50000100 	andpl	r0, r0, r0, lsl #2
	...
     384:	000000c8 	andeq	r0, r0, r8, asr #1
     388:	000000df 	ldrdeq	r0, [r0], -pc	; <UNPREDICTABLE>
     38c:	df500001 	svcle	0x00500001
     390:	00000000 	andeq	r0, r0, r0
     394:	01000001 	tsteq	r0, r1
     398:	00005600 	andeq	r5, r0, r0, lsl #12
	...
     3a4:	00c80000 	sbceq	r0, r8, r0
     3a8:	00df0000 	sbcseq	r0, pc, r0
     3ac:	00010000 	andeq	r0, r1, r0
     3b0:	0000df51 	andeq	sp, r0, r1, asr pc
     3b4:	00010000 	andeq	r0, r1, r0
     3b8:	54000100 	strpl	r0, [r0], #-256	; 0xffffff00
	...
     3c8:	000000e4 	andeq	r0, r0, r4, ror #1
     3cc:	000000e8 	andeq	r0, r0, r8, ror #1
     3d0:	e8500001 	ldmda	r0, {r0}^
     3d4:	00000000 	andeq	r0, r0, r0
     3d8:	01000001 	tsteq	r0, r1
     3dc:	00005500 	andeq	r5, r0, r0, lsl #10
	...
     3e8:	000000ec 	andeq	r0, r0, ip, ror #1
     3ec:	000000f8 	strdeq	r0, [r0], -r8
     3f0:	00500001 	subseq	r0, r0, r1
	...
     3fc:	94000000 	strls	r0, [r0], #-0
     400:	a7000000 	strge	r0, [r0, -r0]
     404:	01000000 	mrseq	r0, (UNDEF: 0)
     408:	00a75000 	adceq	r5, r7, r0
     40c:	00b40000 	adcseq	r0, r4, r0
     410:	00010000 	andeq	r0, r1, r0
     414:	00000054 	andeq	r0, r0, r4, asr r0
     418:	00000000 	andeq	r0, r0, r0
     41c:	a8000000 	stmdage	r0, {}	; <UNPREDICTABLE>
     420:	ac000000 	stcge	0, cr0, [r0], {-0}
     424:	01000000 	mrseq	r0, (UNDEF: 0)
     428:	00005400 	andeq	r5, r0, r0, lsl #8
	...
     434:	00700000 	rsbseq	r0, r0, r0
     438:	00800000 	addeq	r0, r0, r0
     43c:	00010000 	andeq	r0, r1, r0
     440:	00008050 	andeq	r8, r0, r0, asr r0
     444:	00008400 	andeq	r8, r0, r0, lsl #8
     448:	70000400 	andvc	r0, r0, r0, lsl #8
     44c:	009f7ecc 	addseq	r7, pc, ip, asr #29
	...
     458:	40000000 	andmi	r0, r0, r0
     45c:	58000000 	stmdapl	r0, {}	; <UNPREDICTABLE>
     460:	01000000 	mrseq	r0, (UNDEF: 0)
     464:	00585000 	subseq	r5, r8, r0
     468:	005c0000 	subseq	r0, ip, r0
     46c:	00040000 	andeq	r0, r4, r0
     470:	9f5001f3 	svcls	0x005001f3
	...
     484:	0000001c 	andeq	r0, r0, ip, lsl r0
     488:	0000008c 	andeq	r0, r0, ip, lsl #1
     48c:	8c510001 	mrrchi	0, 0, r0, r1, cr1
     490:	98000000 	stmdals	r0, {}	; <UNPREDICTABLE>
     494:	03000000 	movweq	r0, #0
     498:	9f787000 	svcls	0x00787000
     49c:	00000098 	muleq	r0, r8, r0
     4a0:	000000b8 	strheq	r0, [r0], -r8
     4a4:	b8510001 	ldmdalt	r1, {r0}^
     4a8:	d0000000 	andle	r0, r0, r0
     4ac:	03000000 	movweq	r0, #0
     4b0:	9f787000 	svcls	0x00787000
	...
     4c0:	00000024 	andeq	r0, r0, r4, lsr #32
     4c4:	0000005c 	andeq	r0, r0, ip, asr r0
     4c8:	60530001 	subsvs	r0, r3, r1
     4cc:	d0000000 	andle	r0, r0, r0
     4d0:	01000000 	mrseq	r0, (UNDEF: 0)
     4d4:	00005300 	andeq	r5, r0, r0, lsl #6
	...
     4e4:	014c0000 	mrseq	r0, (UNDEF: 76)
     4e8:	01780000 	cmneq	r8, r0
     4ec:	00010000 	andeq	r0, r1, r0
     4f0:	00017850 	andeq	r7, r1, r0, asr r8
     4f4:	00017c00 	andeq	r7, r1, r0, lsl #24
     4f8:	f3000400 	vshl.u8	d0, d0, d0
     4fc:	7c9f5001 	ldcvc	0, cr5, [pc], {1}
     500:	94000001 	strls	r0, [r0], #-1
     504:	01000001 	tsteq	r0, r1
     508:	01945000 	orrseq	r5, r4, r0
     50c:	02000000 	andeq	r0, r0, #0, 0
     510:	00040000 	andeq	r0, r4, r0
     514:	9f5001f3 	svcls	0x005001f3
	...
     524:	01000000 	mrseq	r0, (UNDEF: 0)
     528:	00000001 	andeq	r0, r0, r1
     52c:	01780000 	cmneq	r8, r0
     530:	017c0000 	cmneq	ip, r0
     534:	00010000 	andeq	r0, r1, r0
     538:	00019450 	andeq	r9, r1, r0, asr r4
     53c:	0001b400 	andeq	fp, r1, r0, lsl #8
     540:	50000100 	andpl	r0, r0, r0, lsl #2
     544:	000001b4 			; <UNDEFINED> instruction: 0x000001b4
     548:	000001b8 			; <UNDEFINED> instruction: 0x000001b8
     54c:	78700003 	ldmdavc	r0!, {r0, r1}^
     550:	0001b89f 	muleq	r1, pc, r8	; <UNPREDICTABLE>
     554:	0001c400 	andeq	ip, r1, r0, lsl #8
     558:	50000100 	andpl	r0, r0, r0, lsl #2
     55c:	000001c4 	andeq	r0, r0, r4, asr #3
     560:	000001cc 	andeq	r0, r0, ip, asr #3
     564:	00700002 	rsbseq	r0, r0, r2
     568:	000001cc 	andeq	r0, r0, ip, asr #3
     56c:	000001ec 	andeq	r0, r0, ip, ror #3
     570:	f0500001 			; <UNDEFINED> instruction: 0xf0500001
     574:	00000001 	andeq	r0, r0, r1
     578:	01000002 	tsteq	r0, r2
     57c:	00005000 	andeq	r5, r0, r0
     580:	00000000 	andeq	r0, r0, r0
     584:	01000000 	mrseq	r0, (UNDEF: 0)
     588:	00000001 	andeq	r0, r0, r1
     58c:	00000001 	andeq	r0, r0, r1
     590:	0000016c 	andeq	r0, r0, ip, ror #2
     594:	0000017c 	andeq	r0, r0, ip, ror r1
     598:	7c520001 	mrrcvc	0, 0, r0, r2, cr1
     59c:	94000001 	strls	r0, [r0], #-1
     5a0:	06000001 	streq	r0, [r0], -r1
     5a4:	b0b00300 	adcslt	r0, r0, r0, lsl #6
     5a8:	949f0000 	ldrls	r0, [pc], #0	; 5b0 <__code_start__-0x7a50>
     5ac:	c4000001 	strgt	r0, [r0], #-1
     5b0:	01000001 	tsteq	r0, r1
     5b4:	01c45200 	biceq	r5, r4, r0, lsl #4
     5b8:	01cc0000 	biceq	r0, ip, r0
     5bc:	00010000 	andeq	r0, r1, r0
     5c0:	0001cc50 	andeq	ip, r1, r0, asr ip
     5c4:	0001ef00 	andeq	lr, r1, r0, lsl #30
     5c8:	52000100 	andpl	r0, r0, #0
	...
     5d4:	01640000 	cmneq	r4, r0
     5d8:	02000000 	andeq	r0, r0, #0, 0
     5dc:	00010000 	andeq	r0, r1, r0
     5e0:	00000054 	andeq	r0, r0, r4, asr r0
	...
     5ec:	0000e000 	andeq	lr, r0, r0
     5f0:	0000f800 	andeq	pc, r0, r0, lsl #16
     5f4:	50000100 	andpl	r0, r0, r0, lsl #2
     5f8:	000000f8 	strdeq	r0, [r0], -r8
     5fc:	0000013c 	andeq	r0, r0, ip, lsr r1
     600:	00540001 	subseq	r0, r4, r1
	...
     610:	00010c00 	andeq	r0, r1, r0, lsl #24
     614:	00011c00 	andeq	r1, r1, r0, lsl #24
     618:	50000100 	andpl	r0, r0, r0, lsl #2
     61c:	0000011c 	andeq	r0, r0, ip, lsl r1
     620:	0000011f 	andeq	r0, r0, pc, lsl r1
     624:	78700003 	ldmdavc	r0!, {r0, r1}^
     628:	00012c9f 	muleq	r1, pc, ip	; <UNPREDICTABLE>
     62c:	00013000 	andeq	r3, r1, r0
     630:	50000100 	andpl	r0, r0, r0, lsl #2
	...
     63c:	00000001 	andeq	r0, r0, r1
     640:	00000114 	andeq	r0, r0, r4, lsl r1
     644:	0000011c 	andeq	r0, r0, ip, lsl r1
     648:	1c500001 	mrrcne	0, 0, r0, r0, cr1	; <UNPREDICTABLE>
     64c:	1f000001 	svcne	0x00000001
     650:	03000001 	movweq	r0, #1
     654:	9f787000 	svcls	0x00787000
	...
     660:	07b80000 	ldreq	r0, [r8, r0]!
     664:	07bc0000 	ldreq	r0, [ip, r0]!
     668:	00010000 	andeq	r0, r1, r0
     66c:	00000050 	andeq	r0, r0, r0, asr r0
     670:	00000000 	andeq	r0, r0, r0
     674:	00000100 	andeq	r0, r0, r0, lsl #2
     678:	0003d800 	andeq	sp, r3, r0, lsl #16
     67c:	00040400 	andeq	r0, r4, r0, lsl #8
     680:	30000200 	andcc	r0, r0, r0, lsl #4
     684:	0004049f 	muleq	r4, pc, r4	; <UNPREDICTABLE>
     688:	00049000 	andeq	r9, r4, r0
     68c:	55000100 	strpl	r0, [r0, #-256]	; 0xffffff00
	...
     698:	00000001 	andeq	r0, r0, r1
     69c:	000003d8 	ldrdeq	r0, [r0], -r8
     6a0:	00000404 	andeq	r0, r0, r4, lsl #8
     6a4:	9f300002 	svcls	0x00300002
     6a8:	00000404 	andeq	r0, r0, r4, lsl #8
     6ac:	00000490 	muleq	r0, r0, r4
     6b0:	00580001 	subseq	r0, r8, r1
     6b4:	00000000 	andeq	r0, r0, r0
     6b8:	01000000 	mrseq	r0, (UNDEF: 0)
     6bc:	00000000 	andeq	r0, r0, r0
     6c0:	0003d800 	andeq	sp, r3, r0, lsl #16
     6c4:	00040400 	andeq	r0, r4, r0, lsl #8
     6c8:	30000200 	andcc	r0, r0, r0, lsl #4
     6cc:	0004049f 	muleq	r4, pc, r4	; <UNPREDICTABLE>
     6d0:	00049000 	andeq	r9, r4, r0
     6d4:	57000100 	strpl	r0, [r0, -r0, lsl #2]
     6d8:	00000490 	muleq	r0, r0, r4
     6dc:	000004ac 	andeq	r0, r0, ip, lsr #9
     6e0:	00500001 	subseq	r0, r0, r1
	...
     6f0:	f4000000 	vst4.8	{d0-d3}, [r0], r0
     6f4:	38000003 	stmdacc	r0, {r0, r1}
     6f8:	01000004 	tsteq	r0, r4
     6fc:	04385000 	ldrteq	r5, [r8], #-0
     700:	04540000 	ldrbeq	r0, [r4], #-0
     704:	00010000 	andeq	r0, r1, r0
     708:	00045454 	andeq	r5, r4, r4, asr r4
     70c:	00048000 	andeq	r8, r4, r0
     710:	50000100 	andpl	r0, r0, r0, lsl #2
     714:	00000480 	andeq	r0, r0, r0, lsl #9
     718:	00000490 	muleq	r0, r0, r4
     71c:	00540001 	subseq	r0, r4, r1
	...
     728:	00041400 	andeq	r1, r4, r0, lsl #8
     72c:	00042c00 	andeq	r2, r4, r0, lsl #24
     730:	0a000400 	beq	1738 <__code_start__-0x68c8>
     734:	009f011e 	addseq	r0, pc, lr, lsl r1	; <UNPREDICTABLE>
	...
     740:	00041400 	andeq	r1, r4, r0, lsl #8
     744:	00042c00 	andeq	r2, r4, r0, lsl #24
     748:	f2000600 	vmax.s8	d0, d0, d0
     74c:	00001dfc 	strdeq	r1, [r0], -ip
	...
     758:	14000000 	strne	r0, [r0], #-0
     75c:	2c000004 	stccs	0, cr0, [r0], {4}
     760:	06000004 	streq	r0, [r0], -r4
     764:	a93c0300 	ldmdbge	ip!, {r8, r9}
     768:	009f0000 	addseq	r0, pc, r0
	...
     778:	00075400 	andeq	r5, r7, r0, lsl #8
     77c:	00076400 	andeq	r6, r7, r0, lsl #8
     780:	50000100 	andpl	r0, r0, r0, lsl #2
     784:	00000764 	andeq	r0, r0, r4, ror #14
     788:	00000767 	andeq	r0, r0, r7, ror #14
     78c:	67510001 	ldrbvs	r0, [r1, -r1]
     790:	98000007 	stmdals	r0, {r0, r1, r2}
     794:	01000007 	tsteq	r0, r7
     798:	00005400 	andeq	r5, r0, r0, lsl #8
	...
     7a4:	06b00000 	ldrteq	r0, [r0], r0
     7a8:	06bf0000 	ldrteq	r0, [pc], r0
     7ac:	00010000 	andeq	r0, r1, r0
     7b0:	0006bf50 	andeq	fp, r6, r0, asr pc
     7b4:	0006c400 	andeq	ip, r6, r0, lsl #8
     7b8:	f3000400 	vshl.u8	d0, d0, d0
     7bc:	009f5001 	addseq	r5, pc, r1
	...
     7c8:	bc000000 	stclt	0, cr0, [r0], {-0}
     7cc:	d0000002 	andle	r0, r0, r2
     7d0:	01000002 	tsteq	r0, r2
     7d4:	02d05000 	sbcseq	r5, r0, #0, 0
     7d8:	03b80000 			; <UNDEFINED> instruction: 0x03b80000
     7dc:	00010000 	andeq	r0, r1, r0
     7e0:	00000057 	andeq	r0, r0, r7, asr r0
     7e4:	00000000 	andeq	r0, r0, r0
     7e8:	00000100 	andeq	r0, r0, r0, lsl #2
     7ec:	0002cc00 	andeq	ip, r2, r0, lsl #24
     7f0:	0002f800 	andeq	pc, r2, r0, lsl #16
     7f4:	30000200 	andcc	r0, r0, r0, lsl #4
     7f8:	0002f89f 	muleq	r2, pc, r8	; <UNPREDICTABLE>
     7fc:	0003b800 	andeq	fp, r3, r0, lsl #16
     800:	55000100 	strpl	r0, [r0, #-256]	; 0xffffff00
	...
     80c:	00000001 	andeq	r0, r0, r1
     810:	02cc0000 	sbceq	r0, ip, #0, 0
     814:	02f80000 	rscseq	r0, r8, #0, 0
     818:	00020000 	andeq	r0, r2, r0
     81c:	02f89f30 	rscseq	r9, r8, #48, 30	; 0xc0
     820:	037c0000 	cmneq	ip, #0, 0
     824:	00010000 	andeq	r0, r1, r0
     828:	00038456 	andeq	r8, r3, r6, asr r4
     82c:	0003b800 	andeq	fp, r3, r0, lsl #16
     830:	56000100 	strpl	r0, [r0], -r0, lsl #2
	...
     83c:	00000001 	andeq	r0, r0, r1
     840:	000002cc 	andeq	r0, r0, ip, asr #5
     844:	000002f8 	strdeq	r0, [r0], -r8
     848:	9f300002 	svcls	0x00300002
     84c:	000002f8 	strdeq	r0, [r0], -r8
     850:	000003b8 			; <UNDEFINED> instruction: 0x000003b8
     854:	00580001 	subseq	r0, r8, r1
	...
     86c:	0002e800 	andeq	lr, r2, r0, lsl #16
     870:	00030800 	andeq	r0, r3, r0, lsl #16
     874:	50000100 	andpl	r0, r0, r0, lsl #2
     878:	00000308 	andeq	r0, r0, r8, lsl #6
     87c:	00000318 	andeq	r0, r0, r8, lsl r3
     880:	18540001 	ldmdane	r4, {r0}^
     884:	48000003 	stmdami	r0, {r0, r1}
     888:	01000003 	tsteq	r0, r3
     88c:	03485000 	movteq	r5, #32768	; 0x8000
     890:	034b0000 	movteq	r0, #45056	; 0xb000
     894:	00010000 	andeq	r0, r1, r0
     898:	00034b52 	andeq	r4, r3, r2, asr fp
     89c:	00035000 	andeq	r5, r3, r0
     8a0:	54000100 	strpl	r0, [r0], #-256	; 0xffffff00
     8a4:	00000350 	andeq	r0, r0, r0, asr r3
     8a8:	00000358 	andeq	r0, r0, r8, asr r3
     8ac:	58500001 	ldmdapl	r0, {r0}^
     8b0:	b8000003 	stmdalt	r0, {r0, r1}
     8b4:	01000003 	tsteq	r0, r3
     8b8:	00005400 	andeq	r5, r0, r0, lsl #8
     8bc:	00000000 	andeq	r0, r0, r0
     8c0:	00010000 	andeq	r0, r1, r0
     8c4:	05d40000 	ldrbeq	r0, [r4]
     8c8:	05e40000 	strbeq	r0, [r4, #0]!
     8cc:	00020000 	andeq	r0, r2, r0
     8d0:	05e49f30 	strbeq	r9, [r4, #3888]!	; 0xf30
     8d4:	069c0000 	ldreq	r0, [ip], r0
     8d8:	00010000 	andeq	r0, r1, r0
     8dc:	00000056 	andeq	r0, r0, r6, asr r0
	...
     8f0:	0005dc00 	andeq	sp, r5, r0, lsl #24
     8f4:	0005e400 	andeq	lr, r5, r0, lsl #8
     8f8:	50000100 	andpl	r0, r0, r0, lsl #2
     8fc:	000005e4 	andeq	r0, r0, r4, ror #11
     900:	00000610 	andeq	r0, r0, r0, lsl r6
     904:	10540001 	subsne	r0, r4, r1
     908:	20000006 	andcs	r0, r0, r6
     90c:	01000006 	tsteq	r0, r6
     910:	06205000 	strteq	r5, [r0], -r0
     914:	06880000 	streq	r0, [r8], r0
     918:	00010000 	andeq	r0, r1, r0
     91c:	00068854 	andeq	r8, r6, r4, asr r8
     920:	00068c00 	andeq	r8, r6, r0, lsl #24
     924:	50000100 	andpl	r0, r0, r0, lsl #2
     928:	0000068c 	andeq	r0, r0, ip, lsl #13
     92c:	0000069c 	muleq	r0, ip, r6
     930:	00540001 	subseq	r0, r4, r1
	...
     93c:	00000100 	andeq	r0, r0, r0, lsl #2
     940:	e4000000 	str	r0, [r0], #-0
     944:	10000005 	andne	r0, r0, r5
     948:	01000006 	tsteq	r0, r6
     94c:	06185500 	ldreq	r5, [r8], -r0, lsl #10
     950:	06280000 	strteq	r0, [r8], -r0
     954:	00020000 	andeq	r0, r2, r0
     958:	06289f30 	qasxeq	r9, r8, r0
     95c:	06300000 	ldrteq	r0, [r0], -r0
     960:	00010000 	andeq	r0, r1, r0
     964:	00063050 	andeq	r3, r6, r0, asr r0
     968:	00068800 	andeq	r8, r6, r0, lsl #16
     96c:	55000100 	strpl	r0, [r0, #-256]	; 0xffffff00
	...
     97c:	000005e4 	andeq	r0, r0, r4, ror #11
     980:	000005f4 	strdeq	r0, [r0], -r4
     984:	78500001 	ldmdavc	r0, {r0}^
     988:	88000006 	stmdahi	r0, {r1, r2}
     98c:	01000006 	tsteq	r0, r6
     990:	00005000 	andeq	r5, r0, r0
	...
     99c:	05780000 	ldrbeq	r0, [r8, #-0]!
     9a0:	05900000 	ldreq	r0, [r0]
     9a4:	00010000 	andeq	r0, r1, r0
     9a8:	00059050 	andeq	r9, r5, r0, asr r0
     9ac:	0005b400 	andeq	fp, r5, r0, lsl #8
     9b0:	5c000100 	stfpls	f0, [r0], {-0}
	...
     9bc:	00000001 	andeq	r0, r0, r1
     9c0:	00000588 	andeq	r0, r0, r8, lsl #11
     9c4:	00000594 	muleq	r0, r4, r5
     9c8:	9f300002 	svcls	0x00300002
     9cc:	00000594 	muleq	r0, r4, r5
     9d0:	000005b4 			; <UNDEFINED> instruction: 0x000005b4
     9d4:	00500001 	subseq	r0, r0, r1
     9d8:	00000000 	andeq	r0, r0, r0
     9dc:	03000000 	movweq	r0, #0
     9e0:	88000000 	stmdahi	r0, {}	; <UNPREDICTABLE>
     9e4:	94000005 	strls	r0, [r0], #-5
     9e8:	02000005 	andeq	r0, r0, #5, 0
     9ec:	949f3000 	ldrls	r3, [pc], #0	; 9f4 <__code_start__-0x760c>
     9f0:	b4000005 	strlt	r0, [r0], #-5
     9f4:	01000005 	tsteq	r0, r5
     9f8:	00005300 	andeq	r5, r0, r0, lsl #6
	...
     a04:	02140000 	andseq	r0, r4, #0, 0
     a08:	022f0000 	eoreq	r0, pc, #0, 0
     a0c:	00010000 	andeq	r0, r1, r0
     a10:	00023050 	andeq	r3, r2, r0, asr r0
     a14:	00023800 	andeq	r3, r2, r0, lsl #16
     a18:	50000100 	andpl	r0, r0, r0, lsl #2
	...
     a30:	00600000 	rsbeq	r0, r0, r0
     a34:	00a80000 	adceq	r0, r8, r0
     a38:	00010000 	andeq	r0, r1, r0
     a3c:	0000a850 	andeq	sl, r0, r0, asr r8
     a40:	0000b000 	andeq	fp, r0, r0
     a44:	54000100 	strpl	r0, [r0], #-256	; 0xffffff00
     a48:	000000b0 	strheq	r0, [r0], -r0	; <UNPREDICTABLE>
     a4c:	000000c8 	andeq	r0, r0, r8, asr #1
     a50:	c8500001 	ldmdagt	r0, {r0}^
     a54:	d0000000 	andle	r0, r0, r0
     a58:	04000000 	streq	r0, [r0], #-0
     a5c:	5001f300 	andpl	pc, r1, r0, lsl #6
     a60:	0000d09f 	muleq	r0, pc, r0	; <UNPREDICTABLE>
     a64:	0000e800 	andeq	lr, r0, r0, lsl #16
     a68:	50000100 	andpl	r0, r0, r0, lsl #2
     a6c:	000000e8 	andeq	r0, r0, r8, ror #1
     a70:	000000f0 	strdeq	r0, [r0], -r0	; <UNPREDICTABLE>
     a74:	f0540001 			; <UNDEFINED> instruction: 0xf0540001
     a78:	f0000000 			; <UNDEFINED> instruction: 0xf0000000
     a7c:	04000001 	streq	r0, [r0], #-1
     a80:	5001f300 	andpl	pc, r1, r0, lsl #6
     a84:	0000009f 	muleq	r0, pc, r0	; <UNPREDICTABLE>
	...
     a98:	60000000 	andvs	r0, r0, r0
     a9c:	a4000000 	strge	r0, [r0], #-0
     aa0:	01000000 	mrseq	r0, (UNDEF: 0)
     aa4:	00a45100 	adceq	r5, r4, r0, lsl #2
     aa8:	00b00000 	adcseq	r0, r0, r0
     aac:	00010000 	andeq	r0, r1, r0
     ab0:	0000b057 	andeq	fp, r0, r7, asr r0
     ab4:	0000c400 	andeq	ip, r0, r0, lsl #8
     ab8:	51000100 	mrspl	r0, (UNDEF: 16)
     abc:	000000c4 	andeq	r0, r0, r4, asr #1
     ac0:	000000d0 	ldrdeq	r0, [r0], -r0	; <UNPREDICTABLE>
     ac4:	01f30004 	mvnseq	r0, r4
     ac8:	00d09f51 	sbcseq	r9, r0, r1, asr pc
     acc:	00e40000 	rsceq	r0, r4, r0
     ad0:	00010000 	andeq	r0, r1, r0
     ad4:	0000e451 	andeq	lr, r0, r1, asr r4
     ad8:	0001cc00 	andeq	ip, r1, r0, lsl #24
     adc:	57000100 	strpl	r0, [r0, -r0, lsl #2]
     ae0:	000001cc 	andeq	r0, r0, ip, asr #3
     ae4:	000001f0 	strdeq	r0, [r0], -r0	; <UNPREDICTABLE>
     ae8:	01f30004 	mvnseq	r0, r4
     aec:	00009f51 	andeq	r9, r0, r1, asr pc
	...
     af8:	000000f0 	strdeq	r0, [r0], -r0	; <UNPREDICTABLE>
     afc:	000001cc 	andeq	r0, r0, ip, asr #3
     b00:	00540001 	subseq	r0, r4, r1
	...
     b0c:	f8000000 			; <UNDEFINED> instruction: 0xf8000000
     b10:	18000000 	stmdane	r0, {}	; <UNPREDICTABLE>
     b14:	01000001 	tsteq	r0, r1
     b18:	01405500 	cmpeq	r0, r0, lsl #10
     b1c:	01c40000 	biceq	r0, r4, r0
     b20:	00010000 	andeq	r0, r1, r0
     b24:	00000055 	andeq	r0, r0, r5, asr r0
	...
     b30:	0000f800 	andeq	pc, r0, r0, lsl #16
     b34:	00011400 	andeq	r1, r1, r0, lsl #8
     b38:	56000100 	strpl	r0, [r0], -r0, lsl #2
     b3c:	0000014c 	andeq	r0, r0, ip, asr #2
     b40:	000001c4 	andeq	r0, r0, r4, asr #3
     b44:	00560001 	subseq	r0, r6, r1
	...
     b50:	f8000000 			; <UNDEFINED> instruction: 0xf8000000
     b54:	14000000 	strne	r0, [r0], #-0
     b58:	01000001 	tsteq	r0, r1
     b5c:	01505800 	cmpeq	r0, r0, lsl #16
     b60:	01c40000 	biceq	r0, r4, r0
     b64:	00010000 	andeq	r0, r1, r0
     b68:	00000058 	andeq	r0, r0, r8, asr r0
     b6c:	00000000 	andeq	r0, r0, r0
     b70:	02000000 	andeq	r0, r0, #0, 0
     b74:	0000f000 	andeq	pc, r0, r0
     b78:	0000f400 	andeq	pc, r0, r0, lsl #8
     b7c:	55000100 	strpl	r0, [r0, #-256]	; 0xffffff00
     b80:	00000124 	andeq	r0, r0, r4, lsr #2
     b84:	00000140 	andeq	r0, r0, r0, asr #2
     b88:	00550001 	subseq	r0, r5, r1
	...
     b9c:	0c000000 	stceq	0, cr0, [r0], {-0}
     ba0:	3c000000 	stccc	0, cr0, [r0], {-0}
     ba4:	01000000 	mrseq	r0, (UNDEF: 0)
     ba8:	003c5000 	eorseq	r5, ip, r0
     bac:	00400000 	subeq	r0, r0, r0
     bb0:	00040000 	andeq	r0, r4, r0
     bb4:	9f5001f3 	svcls	0x005001f3
     bb8:	00000040 	andeq	r0, r0, r0, asr #32
     bbc:	00000044 	andeq	r0, r0, r4, asr #32
     bc0:	44500001 	ldrbmi	r0, [r0], #-1
     bc4:	48000000 	stmdami	r0, {}	; <UNPREDICTABLE>
     bc8:	04000000 	streq	r0, [r0], #-0
     bcc:	5001f300 	andpl	pc, r1, r0, lsl #6
     bd0:	0000489f 	muleq	r0, pc, r8	; <UNPREDICTABLE>
     bd4:	00004c00 	andeq	r4, r0, r0, lsl #24
     bd8:	50000100 	andpl	r0, r0, r0, lsl #2
     bdc:	0000004c 	andeq	r0, r0, ip, asr #32
     be0:	00000054 	andeq	r0, r0, r4, asr r0
     be4:	01f30004 	mvnseq	r0, r4
     be8:	00009f50 	andeq	r9, r0, r0, asr pc
	...
     bfc:	04b80000 	ldrteq	r0, [r8], #0
     c00:	04e80000 	strbteq	r0, [r8], #0
     c04:	00010000 	andeq	r0, r1, r0
     c08:	0004e850 	andeq	lr, r4, r0, asr r8
     c0c:	00051400 	andeq	r1, r5, r0, lsl #8
     c10:	54000100 	strpl	r0, [r0], #-256	; 0xffffff00
     c14:	00000514 	andeq	r0, r0, r4, lsl r5
     c18:	0000052c 	andeq	r0, r0, ip, lsr #10
     c1c:	2c500001 	mrrccs	0, 0, r0, r0, cr1	; <UNPREDICTABLE>
     c20:	34000005 	strcc	r0, [r0], #-5
     c24:	01000005 	tsteq	r0, r5
     c28:	05345400 	ldreq	r5, [r4, #-1024]!	; 0xfffffc00
     c2c:	05440000 	strbeq	r0, [r4, #-0]
     c30:	00010000 	andeq	r0, r1, r0
     c34:	00054450 	andeq	r4, r5, r0, asr r4
     c38:	00056400 	andeq	r6, r5, r0, lsl #8
     c3c:	54000100 	strpl	r0, [r0], #-256	; 0xffffff00
	...
     c48:	04e00002 	strbteq	r0, [r0], #2
     c4c:	05140000 	ldreq	r0, [r4, #-0]
     c50:	00040000 	andeq	r0, r4, r0
     c54:	9f244040 	svcls	0x00244040
	...
     c60:	00080000 	andeq	r0, r8, r0
     c64:	00800000 	addeq	r0, r0, r0
     c68:	00010000 	andeq	r0, r1, r0
     c6c:	00000054 	andeq	r0, r0, r4, asr r0
     c70:	00000000 	andeq	r0, r0, r0
     c74:	00000200 	andeq	r0, r0, r0, lsl #4
     c78:	00000800 	andeq	r0, r0, r0, lsl #16
     c7c:	00002000 	andeq	r2, r0, r0
     c80:	30000200 	andcc	r0, r0, r0, lsl #4
     c84:	0000209f 	muleq	r0, pc, r0	; <UNPREDICTABLE>
     c88:	00006c00 	andeq	r6, r0, r0, lsl #24
     c8c:	57000100 	strpl	r0, [r0, -r0, lsl #2]
	...
     c98:	003c0000 	eorseq	r0, ip, r0
     c9c:	00570000 	subseq	r0, r7, r0
     ca0:	00010000 	andeq	r0, r1, r0
     ca4:	00000052 	andeq	r0, r0, r2, asr r0
     ca8:	00000000 	andeq	r0, r0, r0
     cac:	3c000100 	stfccs	f0, [r0], {-0}
     cb0:	50000000 	andpl	r0, r0, r0
     cb4:	01000000 	mrseq	r0, (UNDEF: 0)
     cb8:	00005200 	andeq	r5, r0, r0, lsl #4
     cbc:	00000000 	andeq	r0, r0, r0
     cc0:	00030000 	andeq	r0, r3, r0
     cc4:	003c0000 	eorseq	r0, ip, r0
     cc8:	00480000 	subeq	r0, r8, r0
     ccc:	00010000 	andeq	r0, r1, r0
     cd0:	00004853 	andeq	r4, r0, r3, asr r8
     cd4:	00005000 	andeq	r5, r0, r0
     cd8:	70000200 	andvc	r0, r0, r0, lsl #4
	...
     ce8:	38000000 	stmdacc	r0, {}	; <UNPREDICTABLE>
     cec:	48000000 	stmdami	r0, {}	; <UNPREDICTABLE>
     cf0:	09000000 	stmdbeq	r0, {}	; <UNPREDICTABLE>
     cf4:	0c007300 	stceq	3, cr7, [r0], {-0}
     cf8:	00ffffff 	ldrshteq	pc, [pc], #255	; <UNPREDICTABLE>
     cfc:	00489f1a 	subeq	r9, r8, sl, lsl pc
     d00:	004c0000 	subeq	r0, ip, r0
     d04:	00010000 	andeq	r0, r1, r0
     d08:	00004c53 	andeq	r4, r0, r3, asr ip
     d0c:	00005000 	andeq	r5, r0, r0
     d10:	70000a00 	andvc	r0, r0, r0, lsl #20
     d14:	ff0c0600 			; <UNDEFINED> instruction: 0xff0c0600
     d18:	1a00ffff 	bne	40d1c <__bss_end__+0x3584c>
     d1c:	0000009f 	muleq	r0, pc, r0	; <UNPREDICTABLE>
	...
     d28:	80000000 	andhi	r0, r0, r0
     d2c:	88000000 	stmdahi	r0, {}	; <UNPREDICTABLE>
     d30:	01000000 	mrseq	r0, (UNDEF: 0)
     d34:	00885000 	addeq	r5, r8, r0
     d38:	00940000 	addseq	r0, r4, r0
     d3c:	00030000 	andeq	r0, r3, r0
     d40:	949f0470 	ldrls	r0, [pc], #1136	; d48 <__code_start__-0x72b8>
     d44:	a0000000 	andge	r0, r0, r0
     d48:	04000000 	streq	r0, [r0], #-0
     d4c:	5001f300 	andpl	pc, r1, r0, lsl #6
     d50:	0000009f 	muleq	r0, pc, r0	; <UNPREDICTABLE>
	...
     d5c:	84000000 	strhi	r0, [r0], #-0
     d60:	90000000 	andls	r0, r0, r0
     d64:	01000000 	mrseq	r0, (UNDEF: 0)
     d68:	00905300 	addseq	r5, r0, r0, lsl #6
     d6c:	00940000 	addseq	r0, r4, r0
     d70:	00020000 	andeq	r0, r2, r0
     d74:	00940070 	addseq	r0, r4, r0, ror r0
     d78:	00a00000 	adceq	r0, r0, r0
     d7c:	00050000 	andeq	r0, r5, r0
     d80:	345001f3 	ldrbcc	r0, [r0], #-499	; 0xfffffe0d
     d84:	0000001c 	andeq	r0, r0, ip, lsl r0
     d88:	00000000 	andeq	r0, r0, r0
     d8c:	00000100 	andeq	r0, r0, r0, lsl #2
     d90:	8c000000 	stchi	0, cr0, [r0], {-0}
     d94:	90000000 	andls	r0, r0, r0
     d98:	09000000 	stmdbeq	r0, {}	; <UNPREDICTABLE>
     d9c:	0c007300 	stceq	3, cr7, [r0], {-0}
     da0:	00ffffff 	ldrshteq	pc, [pc], #255	; <UNPREDICTABLE>
     da4:	00909f1a 	addseq	r9, r0, sl, lsl pc
     da8:	00940000 	addseq	r0, r4, r0
     dac:	000a0000 	andeq	r0, sl, r0
     db0:	0c060070 	stceq	0, cr0, [r6], {112}	; 0x70
     db4:	00ffffff 	ldrshteq	pc, [pc], #255	; <UNPREDICTABLE>
     db8:	00949f1a 	addseq	r9, r4, sl, lsl pc
     dbc:	00a00000 	adceq	r0, r0, r0
     dc0:	000d0000 	andeq	r0, sp, r0
     dc4:	345001f3 	ldrbcc	r0, [r0], #-499	; 0xfffffe0d
     dc8:	ff0c061c 			; <UNDEFINED> instruction: 0xff0c061c
     dcc:	1a00ffff 	bne	40dd0 <__bss_end__+0x35900>
     dd0:	0000009f 	muleq	r0, pc, r0	; <UNPREDICTABLE>
	...
     de0:	00001c00 	andeq	r1, r0, r0, lsl #24
     de4:	51000100 	mrspl	r0, (UNDEF: 16)
     de8:	0000001c 	andeq	r0, r0, ip, lsl r0
     dec:	00000078 	andeq	r0, r0, r8, ror r0
     df0:	01f30004 	mvnseq	r0, r4
     df4:	00009f51 	andeq	r9, r0, r1, asr pc
	...
     e04:	00580000 	subseq	r0, r8, r0
     e08:	00010000 	andeq	r0, r1, r0
     e0c:	00005852 	andeq	r5, r0, r2, asr r8
     e10:	00007800 	andeq	r7, r0, r0, lsl #16
     e14:	f3000400 	vshl.u8	d0, d0, d0
     e18:	009f5201 	addseq	r5, pc, r1, lsl #4
     e1c:	00000000 	andeq	r0, r0, r0
     e20:	02000000 	andeq	r0, r0, #0, 0
     e24:	01010000 	mrseq	r0, (UNDEF: 1)
     e28:	01010000 	mrseq	r0, (UNDEF: 1)
     e2c:	01010000 	mrseq	r0, (UNDEF: 1)
     e30:	00000000 	andeq	r0, r0, r0
     e34:	00003800 	andeq	r3, r0, r0, lsl #16
     e38:	50000100 	andpl	r0, r0, r0, lsl #2
     e3c:	00000054 	andeq	r0, r0, r4, asr r0
     e40:	00000054 	andeq	r0, r0, r4, asr r0
     e44:	54530001 	ldrbpl	r0, [r3], #-1
     e48:	5c000000 	stcpl	0, cr0, [r0], {-0}
     e4c:	03000000 	movweq	r0, #0
     e50:	9f017300 	svcls	0x00017300
     e54:	0000005c 	andeq	r0, r0, ip, asr r0
     e58:	00000064 	andeq	r0, r0, r4, rrx
     e5c:	64520001 	ldrbvs	r0, [r2], #-1
     e60:	68000000 	stmdavs	r0, {}	; <UNPREDICTABLE>
     e64:	03000000 	movweq	r0, #0
     e68:	9f027300 	svcls	0x00027300
     e6c:	00000068 	andeq	r0, r0, r8, rrx
     e70:	00000074 	andeq	r0, r0, r4, ror r0
     e74:	74520001 	ldrbvc	r0, [r2], #-1
     e78:	78000000 	stmdavc	r0, {}	; <UNPREDICTABLE>
     e7c:	03000000 	movweq	r0, #0
     e80:	9f017200 	svcls	0x00017200
	...
     e8c:	00080000 	andeq	r0, r8, r0
     e90:	00780000 	rsbseq	r0, r8, r0
     e94:	00010000 	andeq	r0, r1, r0
     e98:	00000054 	andeq	r0, r0, r4, asr r0
	...
     ea4:	2c000000 	stccs	0, cr0, [r0], {-0}
     ea8:	34000000 	strcc	r0, [r0], #-0
     eac:	01000000 	mrseq	r0, (UNDEF: 0)
     eb0:	00345000 	eorseq	r5, r4, r0
     eb4:	00480000 	subeq	r0, r8, r0
     eb8:	00010000 	andeq	r0, r1, r0
     ebc:	00004854 	andeq	r4, r0, r4, asr r8
     ec0:	00005800 	andeq	r5, r0, r0, lsl #16
     ec4:	50000100 	andpl	r0, r0, r0, lsl #2
	...
     ed0:	01000000 	mrseq	r0, (UNDEF: 0)
     ed4:	00000001 	andeq	r0, r0, r1
     ed8:	00000000 	andeq	r0, r0, r0
     edc:	0000000c 	andeq	r0, r0, ip
     ee0:	0c500001 	mrrceq	0, 0, r0, r0, cr1	; <UNPREDICTABLE>
     ee4:	20000000 	andcs	r0, r0, r0
     ee8:	01000000 	mrseq	r0, (UNDEF: 0)
     eec:	00205400 	eoreq	r5, r0, r0, lsl #8
     ef0:	00240000 	eoreq	r0, r4, r0
     ef4:	00030000 	andeq	r0, r3, r0
     ef8:	249f0174 	ldrcs	r0, [pc], #372	; f00 <__code_start__-0x7100>
     efc:	38000000 	stmdacc	r0, {}	; <UNPREDICTABLE>
     f00:	01000000 	mrseq	r0, (UNDEF: 0)
     f04:	00005400 	andeq	r5, r0, r0, lsl #8
	...
     f18:	00000388 	andeq	r0, r0, r8, lsl #7
     f1c:	00000394 	muleq	r0, r4, r3
     f20:	94500001 	ldrbls	r0, [r0], #-1
     f24:	d0000003 	andle	r0, r0, r3
     f28:	01000003 	tsteq	r0, r3
     f2c:	03d05b00 	bicseq	r5, r0, #0, 22
     f30:	09200000 	stmdbeq	r0!, {}	; <UNPREDICTABLE>
     f34:	00040000 	andeq	r0, r4, r0
     f38:	9f5001f3 	svcls	0x005001f3
     f3c:	00000920 	andeq	r0, r0, r0, lsr #18
     f40:	00000928 	andeq	r0, r0, r8, lsr #18
     f44:	285b0001 	ldmdacs	fp, {r0}^
     f48:	b4000009 	strlt	r0, [r0], #-9
     f4c:	04000009 	streq	r0, [r0], #-9
     f50:	5001f300 	andpl	pc, r1, r0, lsl #6
     f54:	0000009f 	muleq	r0, pc, r0	; <UNPREDICTABLE>
	...
     f64:	00038800 	andeq	r8, r3, r0, lsl #16
     f68:	0003d000 	andeq	sp, r3, r0
     f6c:	51000100 	mrspl	r0, (UNDEF: 16)
     f70:	000003d0 	ldrdeq	r0, [r0], -r0	; <UNPREDICTABLE>
     f74:	00000920 	andeq	r0, r0, r0, lsr #18
     f78:	01f30004 	mvnseq	r0, r4
     f7c:	09209f51 	stmdbeq	r0!, {r0, r4, r6, r8, r9, sl, fp, ip, pc}
     f80:	09280000 	stmdbeq	r8!, {}	; <UNPREDICTABLE>
     f84:	00010000 	andeq	r0, r1, r0
     f88:	00092851 	andeq	r2, r9, r1, asr r8
     f8c:	0009b400 	andeq	fp, r9, r0, lsl #8
     f90:	f3000400 	vshl.u8	d0, d0, d0
     f94:	009f5101 	addseq	r5, pc, r1, lsl #2
	...
     fa4:	00010000 	andeq	r0, r1, r0
     fa8:	00000100 	andeq	r0, r0, r0, lsl #2
	...
     fb4:	88000000 	stmdahi	r0, {}	; <UNPREDICTABLE>
     fb8:	d0000003 	andle	r0, r0, r3
     fbc:	01000003 	tsteq	r0, r3
     fc0:	03d05200 	bicseq	r5, r0, #0, 4
     fc4:	04000000 	streq	r0, [r0], #-0
     fc8:	00010000 	andeq	r0, r1, r0
     fcc:	00041456 	andeq	r1, r4, r6, asr r4
     fd0:	00042400 	andeq	r2, r4, r0, lsl #8
     fd4:	56000100 	strpl	r0, [r0], -r0, lsl #2
     fd8:	00000424 	andeq	r0, r0, r4, lsr #8
     fdc:	00000428 	andeq	r0, r0, r8, lsr #8
     fe0:	7f760003 	svcvc	0x00760003
     fe4:	0004a89f 	muleq	r4, pc, r8	; <UNPREDICTABLE>
     fe8:	0004ac00 	andeq	sl, r4, r0, lsl #24
     fec:	56000100 	strpl	r0, [r0], -r0, lsl #2
     ff0:	000004e0 	andeq	r0, r0, r0, ror #9
     ff4:	00000504 	andeq	r0, r0, r4, lsl #10
     ff8:	7c560001 	mrrcvc	0, 0, r0, r6, cr1
     ffc:	88000005 	stmdahi	r0, {r0, r2}
    1000:	01000005 	tsteq	r0, r5
    1004:	05885300 	streq	r5, [r8, #768]	; 0x300
    1008:	05d00000 	ldrbeq	r0, [r0]
    100c:	00030000 	andeq	r0, r3, r0
    1010:	007dcc91 			; <UNDEFINED> instruction: 0x007dcc91
    1014:	0f000008 	svceq	0x00000008
    1018:	01000008 	tsteq	r0, r8
    101c:	080f5300 	stmdaeq	pc, {r8, r9, ip, lr}	; <UNPREDICTABLE>
    1020:	08880000 	stmeq	r8, {}	; <UNPREDICTABLE>
    1024:	00030000 	andeq	r0, r3, r0
    1028:	207dcc91 			; <UNDEFINED> instruction: 0x207dcc91
    102c:	28000009 	stmdacs	r0, {r0, r3}
    1030:	01000009 	tsteq	r0, r9
    1034:	09485200 	stmdbeq	r8, {r9, ip, lr}^
    1038:	09640000 	stmdbeq	r4!, {}^	; <UNPREDICTABLE>
    103c:	00030000 	andeq	r0, r3, r0
    1040:	007dcc91 			; <UNDEFINED> instruction: 0x007dcc91
	...
    1054:	00000101 	andeq	r0, r0, r1, lsl #2
    1058:	00000101 	andeq	r0, r0, r1, lsl #2
    105c:	02020000 	andeq	r0, r2, #0, 0
    1060:	02020000 	andeq	r0, r2, #0, 0
    1064:	01010000 	mrseq	r0, (UNDEF: 1)
    1068:	02020000 	andeq	r0, r2, #0, 0
    106c:	01010000 	mrseq	r0, (UNDEF: 1)
	...
    1078:	00038800 	andeq	r8, r3, r0, lsl #16
    107c:	0003ac00 	andeq	sl, r3, r0, lsl #24
    1080:	53000100 	movwpl	r0, #256	; 0x100
    1084:	000003ac 	andeq	r0, r0, ip, lsr #7
    1088:	000003c0 	andeq	r0, r0, r0, asr #7
    108c:	93530003 	cmpls	r3, #3, 0
    1090:	0003d004 	andeq	sp, r3, r4
    1094:	0003e800 	andeq	lr, r3, r0, lsl #16
    1098:	58000300 	stmdapl	r0, {r8, r9}
    109c:	03e80493 	mvneq	r0, #-1828716544	; 0x93000000
    10a0:	04ac0000 	strteq	r0, [ip], #0
    10a4:	00030000 	andeq	r0, r3, r0
    10a8:	c0049358 	andgt	r9, r4, r8, asr r3
    10ac:	c0000004 	andgt	r0, r0, r4
    10b0:	03000004 	movweq	r0, #4
    10b4:	04935800 	ldreq	r5, [r3], #2048	; 0x800
    10b8:	000004c0 	andeq	r0, r0, r0, asr #9
    10bc:	000004cc 	andeq	r0, r0, ip, asr #9
    10c0:	04780005 	ldrbteq	r0, [r8], #-5
    10c4:	cc04939f 	stcgt	3, cr9, [r4], {159}	; 0x9f
    10c8:	e0000004 	and	r0, r0, r4
    10cc:	03000004 	movweq	r0, #4
    10d0:	04935800 	ldreq	r5, [r3], #2048	; 0x800
    10d4:	000004e0 	andeq	r0, r0, r0, ror #9
    10d8:	00000538 	andeq	r0, r0, r8, lsr r5
    10dc:	93580003 	cmpls	r8, #3, 0
    10e0:	00053804 	andeq	r3, r5, r4, lsl #16
    10e4:	00053c00 	andeq	r3, r5, r0, lsl #24
    10e8:	78000500 	stmdavc	r0, {r8, sl}
    10ec:	04939f79 	ldreq	r9, [r3], #3961	; 0xf79
    10f0:	000005d0 	ldrdeq	r0, [r0], -r0	; <UNPREDICTABLE>
    10f4:	000005d0 	ldrdeq	r0, [r0], -r0	; <UNPREDICTABLE>
    10f8:	93580003 	cmpls	r8, #3, 0
    10fc:	0005d004 	andeq	sp, r5, r4
    1100:	0005d400 	andeq	sp, r5, r0, lsl #8
    1104:	78000500 	stmdavc	r0, {r8, sl}
    1108:	04939f04 	ldreq	r9, [r3], #3844	; 0xf04
    110c:	000005f4 	strdeq	r0, [r0], -r4
    1110:	000005f4 	strdeq	r0, [r0], -r4
    1114:	93580003 	cmpls	r8, #3, 0
    1118:	0005f404 	andeq	pc, r5, r4, lsl #8
    111c:	0005fc00 	andeq	pc, r5, r0, lsl #24
    1120:	78000500 	stmdavc	r0, {r8, sl}
    1124:	04939f04 	ldreq	r9, [r3], #3844	; 0xf04
    1128:	000005fc 	strdeq	r0, [r0], -ip
    112c:	000005fc 	strdeq	r0, [r0], -ip
    1130:	93580003 	cmpls	r8, #3, 0
    1134:	0005fc04 	andeq	pc, r5, r4, lsl #24
    1138:	00060000 	andeq	r0, r6, r0
    113c:	78000500 	stmdavc	r0, {r8, sl}
    1140:	04939f04 	ldreq	r9, [r3], #3844	; 0xf04
    1144:	00000600 	andeq	r0, r0, r0, lsl #12
    1148:	00000700 	andeq	r0, r0, r0, lsl #14
    114c:	93580003 	cmpls	r8, #3, 0
    1150:	00070004 	andeq	r0, r7, r4
    1154:	00070c00 	andeq	r0, r7, r0, lsl #24
    1158:	78000500 	stmdavc	r0, {r8, sl}
    115c:	04939f04 	ldreq	r9, [r3], #3844	; 0xf04
    1160:	0000070c 	andeq	r0, r0, ip, lsl #14
    1164:	000007f8 	strdeq	r0, [r0], -r8
    1168:	93580003 	cmpls	r8, #3, 0
    116c:	0007f804 	andeq	pc, r7, r4, lsl #16
    1170:	0007fc00 	andeq	pc, r7, r0, lsl #24
    1174:	78000500 	stmdavc	r0, {r8, sl}
    1178:	04939f04 	ldreq	r9, [r3], #3844	; 0xf04
    117c:	000007fc 	strdeq	r0, [r0], -ip
    1180:	00000800 	andeq	r0, r0, r0, lsl #16
    1184:	93580003 	cmpls	r8, #3, 0
    1188:	00088804 	andeq	r8, r8, r4, lsl #16
    118c:	00092000 	andeq	r2, r9, r0
    1190:	58000300 	stmdapl	r0, {r8, r9}
    1194:	09200493 	stmdbeq	r0!, {r0, r1, r4, r7, sl}
    1198:	09280000 	stmdbeq	r8!, {}	; <UNPREDICTABLE>
    119c:	00010000 	andeq	r0, r1, r0
    11a0:	00096453 	andeq	r6, r9, r3, asr r4
    11a4:	0009b400 	andeq	fp, r9, r0, lsl #8
    11a8:	58000300 	stmdapl	r0, {r8, r9}
    11ac:	00000493 	muleq	r0, r3, r4
    11b0:	00000000 	andeq	r0, r0, r0
    11b4:	00010000 	andeq	r0, r1, r0
    11b8:	00000000 	andeq	r0, r0, r0
    11bc:	02000000 	andeq	r0, r0, #0, 0
    11c0:	00000002 	andeq	r0, r0, r2
    11c4:	00010101 	andeq	r0, r1, r1, lsl #2
    11c8:	00000000 	andeq	r0, r0, r0
    11cc:	000003ac 	andeq	r0, r0, ip, lsr #7
    11d0:	000003d0 	ldrdeq	r0, [r0], -r0	; <UNPREDICTABLE>
    11d4:	d05b0001 	subsle	r0, fp, r1
    11d8:	d4000003 	strle	r0, [r0], #-3
    11dc:	01000003 	tsteq	r0, r3
    11e0:	03d45400 	bicseq	r5, r4, #0, 8
    11e4:	03d80000 	bicseq	r0, r8, #0, 0
    11e8:	00030000 	andeq	r0, r3, r0
    11ec:	d89f7f74 	ldmle	pc, {r2, r4, r5, r6, r8, r9, sl, fp, ip, sp, lr}	; <UNPREDICTABLE>
    11f0:	fc000003 	stc2	0, cr0, [r0], {3}
    11f4:	01000003 	tsteq	r0, r3
    11f8:	04a85400 	strteq	r5, [r8], #1024	; 0x400
    11fc:	04ac0000 	strteq	r0, [ip], #0
    1200:	00010000 	andeq	r0, r1, r0
    1204:	0004ac54 	andeq	sl, r4, r4, asr ip
    1208:	0004b400 	andeq	fp, r4, r0, lsl #8
    120c:	74000300 	strvc	r0, [r0], #-768	; 0xfffffd00
    1210:	04b49f01 	ldrteq	r9, [r4], #3841	; 0xf01
    1214:	04c00000 	strbeq	r0, [r0], #0
    1218:	00010000 	andeq	r0, r1, r0
    121c:	0004e454 	andeq	lr, r4, r4, asr r4
    1220:	0004f400 	andeq	pc, r4, r0, lsl #8
    1224:	54000100 	strpl	r0, [r0], #-256	; 0xffffff00
    1228:	000004f4 	strdeq	r0, [r0], -r4
    122c:	000004f8 	strdeq	r0, [r0], -r8
    1230:	01740003 	cmneq	r4, r3
    1234:	0004f89f 	muleq	r4, pc, r8	; <UNPREDICTABLE>
    1238:	00050400 	andeq	r0, r5, r0, lsl #8
    123c:	54000100 	strpl	r0, [r0], #-256	; 0xffffff00
    1240:	00000920 	andeq	r0, r0, r0, lsr #18
    1244:	00000928 	andeq	r0, r0, r8, lsr #18
    1248:	005b0001 	subseq	r0, fp, r1
    124c:	00000000 	andeq	r0, r0, r0
    1250:	01000000 	mrseq	r0, (UNDEF: 0)
    1254:	0003ac00 	andeq	sl, r3, r0, lsl #24
    1258:	0009b400 	andeq	fp, r9, r0, lsl #8
    125c:	57000100 	strpl	r0, [r0, -r0, lsl #2]
	...
    1268:	00000002 	andeq	r0, r0, r2
    126c:	057c0000 	ldrbeq	r0, [ip, #-0]!
    1270:	05d00000 	ldrbeq	r0, [r0]
    1274:	00010000 	andeq	r0, r1, r0
    1278:	0008005b 	andeq	r0, r8, fp, asr r0
    127c:	00088800 	andeq	r8, r8, r0, lsl #16
    1280:	5b000100 	blpl	1688 <__code_start__-0x6978>
    1284:	00000948 	andeq	r0, r0, r8, asr #18
    1288:	00000964 	andeq	r0, r0, r4, ror #18
    128c:	005b0001 	subseq	r0, fp, r1
    1290:	00000000 	andeq	r0, r0, r0
    1294:	03000000 	movweq	r0, #0
    1298:	00000000 	andeq	r0, r0, r0
    129c:	00057c00 	andeq	r7, r5, r0, lsl #24
    12a0:	0005d000 	andeq	sp, r5, r0
    12a4:	59000100 	stmdbpl	r0, {r8}
    12a8:	00000800 	andeq	r0, r0, r0, lsl #16
    12ac:	00000888 	andeq	r0, r0, r8, lsl #17
    12b0:	48590001 	ldmdami	r9, {r0}^
    12b4:	64000009 	strvs	r0, [r0], #-9
    12b8:	01000009 	tsteq	r0, r9
    12bc:	00005900 	andeq	r5, r0, r0, lsl #18
    12c0:	00000000 	andeq	r0, r0, r0
    12c4:	00040000 	andeq	r0, r4, r0
    12c8:	00000000 	andeq	r0, r0, r0
    12cc:	03ac0000 			; <UNDEFINED> instruction: 0x03ac0000
    12d0:	03d00000 	bicseq	r0, r0, #0, 0
    12d4:	00010000 	andeq	r0, r1, r0
    12d8:	0003d052 	andeq	sp, r3, r2, asr r0
    12dc:	00092000 	andeq	r2, r9, r0
    12e0:	f3000400 	vshl.u8	d0, d0, d0
    12e4:	209f5201 	addscs	r5, pc, r1, lsl #4
    12e8:	28000009 	stmdacs	r0, {r0, r3}
    12ec:	01000009 	tsteq	r0, r9
    12f0:	09285200 	stmdbeq	r8!, {r9, ip, lr}
    12f4:	09b40000 	ldmibeq	r4!, {}	; <UNPREDICTABLE>
    12f8:	00040000 	andeq	r0, r4, r0
    12fc:	9f5201f3 	svcls	0x005201f3
	...
    1308:	00010100 	andeq	r0, r1, r0, lsl #2
    130c:	00000000 	andeq	r0, r0, r0
    1310:	00000001 	andeq	r0, r0, r1
    1314:	000004e0 	andeq	r0, r0, r0, ror #9
    1318:	000004e0 	andeq	r0, r0, r0, ror #9
    131c:	e0500001 	subs	r0, r0, r1
    1320:	e8000004 	stmda	r0, {r2}
    1324:	01000004 	tsteq	r0, r4
    1328:	05b85500 	ldreq	r5, [r8, #1280]!	; 0x500
    132c:	05d00000 	ldrbeq	r0, [r0]
    1330:	00010000 	andeq	r0, r1, r0
    1334:	0005f055 	andeq	pc, r5, r5, asr r0	; <UNPREDICTABLE>
    1338:	0005f400 	andeq	pc, r5, r0, lsl #8
    133c:	50000100 	andpl	r0, r0, r0, lsl #2
    1340:	000007f4 	strdeq	r0, [r0], -r4
    1344:	000007f8 	strdeq	r0, [r0], -r8
    1348:	50550001 	subspl	r0, r5, r1
    134c:	88000008 	stmdahi	r0, {r3}
    1350:	01000008 	tsteq	r0, r8
    1354:	00005500 	andeq	r5, r0, r0, lsl #10
    1358:	00000000 	andeq	r0, r0, r0
    135c:	00020000 	andeq	r0, r2, r0
    1360:	00000000 	andeq	r0, r0, r0
    1364:	04140000 	ldreq	r0, [r4], #-0
    1368:	04180000 	ldreq	r0, [r8], #-0
    136c:	00020000 	andeq	r0, r2, r0
    1370:	04189f30 	ldreq	r9, [r8], #-3888	; 0xfffff0d0
    1374:	041c0000 	ldreq	r0, [ip], #-0
    1378:	00010000 	andeq	r0, r1, r0
    137c:	00042855 	andeq	r2, r4, r5, asr r8
    1380:	00043c00 	andeq	r3, r4, r0, lsl #24
    1384:	55000100 	strpl	r0, [r0, #-256]	; 0xffffff00
    1388:	00000928 	andeq	r0, r0, r8, lsr #18
    138c:	00000930 	andeq	r0, r0, r0, lsr r9
    1390:	00550001 	subseq	r0, r5, r1
    1394:	00000000 	andeq	r0, r0, r0
    1398:	01000000 	mrseq	r0, (UNDEF: 0)
	...
    13a4:	04000000 	streq	r0, [r0], #-0
    13a8:	84000005 	strhi	r0, [r0], #-5
    13ac:	01000005 	tsteq	r0, r5
    13b0:	05845600 	streq	r5, [r4, #1536]	; 0x600
    13b4:	05880000 	streq	r0, [r8]
    13b8:	00030000 	andeq	r0, r3, r0
    13bc:	889f7e73 	ldmhi	pc, {r0, r1, r4, r5, r6, r9, sl, fp, ip, sp, lr}	; <UNPREDICTABLE>
    13c0:	d0000005 	andle	r0, r0, r5
    13c4:	07000005 	streq	r0, [r0, -r5]
    13c8:	7dcc9100 	stfvcp	f1, [ip]
    13cc:	9f1c3206 	svcls	0x001c3206
    13d0:	00000800 	andeq	r0, r0, r0, lsl #16
    13d4:	0000081c 	andeq	r0, r0, ip, lsl r8
    13d8:	1c560001 	mrrcne	0, 0, r0, r6, cr1
    13dc:	88000008 	stmdahi	r0, {r3}
    13e0:	07000008 	streq	r0, [r0, -r8]
    13e4:	7dcc9100 	stfvcp	f1, [ip]
    13e8:	9f1c3206 	svcls	0x001c3206
    13ec:	00000948 	andeq	r0, r0, r8, asr #18
    13f0:	000009b4 			; <UNDEFINED> instruction: 0x000009b4
    13f4:	00560001 	subseq	r0, r6, r1
    13f8:	00000000 	andeq	r0, r0, r0
    13fc:	04000000 	streq	r0, [r0], #-0
    1400:	14040206 	strne	r0, [r4], #-518	; 0xfffffdfa
    1404:	14000004 	strne	r0, [r0], #-4
    1408:	06000004 	streq	r0, [r0], -r4
    140c:	08007200 	stmdaeq	r0, {r9, ip, sp, lr}
    1410:	289f1aff 	ldmcs	pc, {r0, r1, r2, r3, r4, r5, r6, r7, r9, fp, ip}	; <UNPREDICTABLE>
    1414:	28000004 	stmdacs	r0, {r2}
    1418:	06000004 	streq	r0, [r0], -r4
    141c:	08007200 	stmdaeq	r0, {r9, ip, sp, lr}
    1420:	009f1aff 			; <UNDEFINED> instruction: 0x009f1aff
    1424:	00000000 	andeq	r0, r0, r0
    1428:	02000000 	andeq	r0, r0, #0, 0
    142c:	00000000 	andeq	r0, r0, r0
    1430:	0005fc00 	andeq	pc, r5, r0, lsl #24
    1434:	00070000 	andeq	r0, r7, r0
    1438:	08000300 	stmdaeq	r0, {r8, r9}
    143c:	08a89f80 	stmiaeq	r8!, {r7, r8, r9, sl, fp, ip, pc}
    1440:	08bc0000 	ldmeq	ip!, {}	; <UNPREDICTABLE>
    1444:	00030000 	andeq	r0, r3, r0
    1448:	109f8008 	addsne	r8, pc, r8
    144c:	20000009 	andcs	r0, r0, r9
    1450:	03000009 	movweq	r0, #9
    1454:	9f800800 	svcls	0x00800800
	...
    1460:	00000001 	andeq	r0, r0, r1
    1464:	05fc0000 	ldrbeq	r0, [ip, #0]!
    1468:	07000000 	streq	r0, [r0, -r0]
    146c:	00020000 	andeq	r0, r2, r0
    1470:	08a89f30 	stmiaeq	r8!, {r4, r5, r8, r9, sl, fp, ip, pc}
    1474:	08bc0000 	ldmeq	ip!, {}	; <UNPREDICTABLE>
    1478:	00020000 	andeq	r0, r2, r0
    147c:	09109f30 	ldmdbeq	r0, {r4, r5, r8, r9, sl, fp, ip, pc}
    1480:	09200000 	stmdbeq	r0!, {}	; <UNPREDICTABLE>
    1484:	00020000 	andeq	r0, r2, r0
    1488:	00009f30 	andeq	r9, r0, r0, lsr pc
    148c:	00000000 	andeq	r0, r0, r0
    1490:	00010000 	andeq	r0, r1, r0
    1494:	00000000 	andeq	r0, r0, r0
    1498:	000005fc 	strdeq	r0, [r0], -ip
    149c:	000006e0 	andeq	r0, r0, r0, ror #13
    14a0:	a8550001 	ldmdage	r5, {r0}^
    14a4:	bc000008 	stclt	0, cr0, [r0], {8}
    14a8:	01000008 	tsteq	r0, r8
    14ac:	09105500 	ldmdbeq	r0, {r8, sl, ip, lr}
    14b0:	09200000 	stmdbeq	r0!, {}	; <UNPREDICTABLE>
    14b4:	00010000 	andeq	r0, r1, r0
    14b8:	00000055 	andeq	r0, r0, r5, asr r0
    14bc:	00000000 	andeq	r0, r0, r0
    14c0:	00000100 	andeq	r0, r0, r0, lsl #2
    14c4:	00000000 	andeq	r0, r0, r0
    14c8:	0005fc00 	andeq	pc, r5, r0, lsl #24
    14cc:	0006e000 	andeq	lr, r6, r0
    14d0:	91000400 	tstls	r0, r0, lsl #8
    14d4:	e09f7dd0 			; <UNDEFINED> instruction: 0xe09f7dd0
    14d8:	00000006 	andeq	r0, r0, r6
    14dc:	01000007 	tsteq	r0, r7
    14e0:	08a85500 	stmiaeq	r8!, {r8, sl, ip, lr}
    14e4:	08bc0000 	ldmeq	ip!, {}	; <UNPREDICTABLE>
    14e8:	00040000 	andeq	r0, r4, r0
    14ec:	9f7dd091 	svcls	0x007dd091
    14f0:	00000910 	andeq	r0, r0, r0, lsl r9
    14f4:	00000920 	andeq	r0, r0, r0, lsr #18
    14f8:	d0910004 	addsle	r0, r1, r4
    14fc:	00009f7d 	andeq	r9, r0, sp, ror pc
    1500:	00000000 	andeq	r0, r0, r0
    1504:	00010000 	andeq	r0, r1, r0
    1508:	00000000 	andeq	r0, r0, r0
    150c:	000005fc 	strdeq	r0, [r0], -ip
    1510:	00000700 	andeq	r0, r0, r0, lsl #14
    1514:	9f380002 	svcls	0x00380002
    1518:	000008a8 	andeq	r0, r0, r8, lsr #17
    151c:	000008bc 			; <UNDEFINED> instruction: 0x000008bc
    1520:	9f380002 	svcls	0x00380002
    1524:	00000910 	andeq	r0, r0, r0, lsl r9
    1528:	00000920 	andeq	r0, r0, r0, lsr #18
    152c:	9f380002 	svcls	0x00380002
	...
    1538:	00070704 	andeq	r0, r7, r4, lsl #14
	...
    1544:	05fc0000 	ldrbeq	r0, [ip, #0]!
    1548:	05fc0000 	ldrbeq	r0, [ip, #0]!
    154c:	00040000 	andeq	r0, r4, r0
    1550:	9f7ed091 	svcls	0x007ed091
    1554:	000005fc 	strdeq	r0, [r0], -ip
    1558:	00000678 	andeq	r0, r0, r8, ror r6
    155c:	d1910004 	orrsle	r0, r1, r4
    1560:	06789f7e 	uhsub16eq	r9, r8, lr
    1564:	06d40000 	ldrbeq	r0, [r4], r0
    1568:	00010000 	andeq	r0, r1, r0
    156c:	0006d45c 	andeq	sp, r6, ip, asr r4
    1570:	00070000 	andeq	r0, r7, r0
    1574:	91000400 	tstls	r0, r0, lsl #8
    1578:	a89f7ed1 	ldmge	pc, {r0, r4, r6, r7, r9, sl, fp, ip, sp, lr}	; <UNPREDICTABLE>
    157c:	bc000008 	stclt	0, cr0, [r0], {8}
    1580:	04000008 	streq	r0, [r0], #-8
    1584:	7ed19100 	atnvcs	f1, f0
    1588:	0009109f 	muleq	r9, pc, r0	; <UNPREDICTABLE>
    158c:	00091400 	andeq	r1, r9, r0, lsl #8
    1590:	91000400 	tstls	r0, r0, lsl #8
    1594:	149f7ed1 	ldrne	r7, [pc], #3793	; 159c <__code_start__-0x6a64>
    1598:	20000009 	andcs	r0, r0, r9
    159c:	01000009 	tsteq	r0, r9
    15a0:	00005c00 	andeq	r5, r0, r0, lsl #24
    15a4:	00000000 	andeq	r0, r0, r0
    15a8:	01040000 	mrseq	r0, (UNDEF: 4)
    15ac:	00000100 	andeq	r0, r0, r0, lsl #2
    15b0:	00000608 	andeq	r0, r0, r8, lsl #12
    15b4:	000006d0 	ldrdeq	r0, [r0], -r0	; <UNPREDICTABLE>
    15b8:	a8550001 	ldmdage	r5, {r0}^
    15bc:	b8000008 	stmdalt	r0, {r3}
    15c0:	01000008 	tsteq	r0, r8
    15c4:	09105500 	ldmdbeq	r0, {r8, sl, ip, lr}
    15c8:	09200000 	stmdbeq	r0!, {}	; <UNPREDICTABLE>
    15cc:	00010000 	andeq	r0, r1, r0
    15d0:	00000055 	andeq	r0, r0, r5, asr r0
    15d4:	00000000 	andeq	r0, r0, r0
    15d8:	00000400 	andeq	r0, r0, r0, lsl #8
    15dc:	00010000 	andeq	r0, r1, r0
    15e0:	00010000 	andeq	r0, r1, r0
    15e4:	00060800 	andeq	r0, r6, r0, lsl #16
    15e8:	0006b000 	andeq	fp, r6, r0
    15ec:	91000400 	tstls	r0, r0, lsl #8
    15f0:	b09f7ed0 			; <UNDEFINED> instruction: 0xb09f7ed0
    15f4:	c8000006 	stmdagt	r0, {r1, r2}
    15f8:	01000006 	tsteq	r0, r6
    15fc:	06c85000 	strbeq	r5, [r8], r0
    1600:	06d00000 	ldrbeq	r0, [r0], r0
    1604:	00040000 	andeq	r0, r4, r0
    1608:	9f7ed091 	svcls	0x007ed091
    160c:	000008a8 	andeq	r0, r0, r8, lsr #17
    1610:	000008b0 			; <UNDEFINED> instruction: 0x000008b0
    1614:	d0910004 	addsle	r0, r1, r4
    1618:	08b09f7e 	ldmeq	r0!, {r1, r2, r3, r4, r5, r6, r8, r9, sl, fp, ip, pc}
    161c:	08b80000 	ldmeq	r8!, {}	; <UNPREDICTABLE>
    1620:	00010000 	andeq	r0, r1, r0
    1624:	00091053 	andeq	r1, r9, r3, asr r0
    1628:	00092000 	andeq	r2, r9, r0
    162c:	91000400 	tstls	r0, r0, lsl #8
    1630:	009f7ed0 			; <UNDEFINED> instruction: 0x009f7ed0
    1634:	00000000 	andeq	r0, r0, r0
    1638:	04000000 	streq	r0, [r0], #-0
    163c:	01010000 	mrseq	r0, (UNDEF: 1)
    1640:	03030101 	movweq	r0, #12545	; 0x3101
    1644:	00010002 	andeq	r0, r1, r2
    1648:	08000000 	stmdaeq	r0, {}	; <UNPREDICTABLE>
    164c:	24000006 	strcs	r0, [r0], #-6
    1650:	04000006 	streq	r0, [r0], #-6
    1654:	7ed19100 	atnvcs	f1, f0
    1658:	0006849f 	muleq	r6, pc, r4	; <UNPREDICTABLE>
    165c:	00068400 	andeq	r8, r6, r0, lsl #8
    1660:	50000100 	andpl	r0, r0, r0, lsl #2
    1664:	00000684 	andeq	r0, r0, r4, lsl #13
    1668:	00000698 	muleq	r0, r8, r6
    166c:	01700003 	cmneq	r0, r3
    1670:	0006989f 	muleq	r6, pc, r8	; <UNPREDICTABLE>
    1674:	0006a400 	andeq	sl, r6, r0, lsl #8
    1678:	70000300 	andvc	r0, r0, r0, lsl #6
    167c:	06a49f02 	strteq	r9, [r4], r2, lsl #30
    1680:	06a80000 	strteq	r0, [r8], r0
    1684:	00030000 	andeq	r0, r3, r0
    1688:	a89f0370 	ldmge	pc, {r4, r5, r6, r8, r9}	; <UNPREDICTABLE>
    168c:	b8000008 	stmdalt	r0, {r3}
    1690:	04000008 	streq	r0, [r0], #-8
    1694:	7ed19100 	atnvcs	f1, f0
    1698:	0009109f 	muleq	r9, pc, r0	; <UNPREDICTABLE>
    169c:	00091400 	andeq	r1, r9, r0, lsl #8
    16a0:	91000400 	tstls	r0, r0, lsl #8
    16a4:	149f7ed1 	ldrne	r7, [pc], #3793	; 16ac <__code_start__-0x6954>
    16a8:	20000009 	andcs	r0, r0, r9
    16ac:	01000009 	tsteq	r0, r9
    16b0:	00005c00 	andeq	r5, r0, r0, lsl #24
    16b4:	00000000 	andeq	r0, r0, r0
    16b8:	00060000 	andeq	r0, r6, r0
    16bc:	01010100 	mrseq	r0, (UNDEF: 17)
    16c0:	02010101 	andeq	r0, r1, #1073741824	; 0x40000000
    16c4:	00000100 	andeq	r0, r0, r0, lsl #2
    16c8:	00000608 	andeq	r0, r0, r8, lsl #12
    16cc:	00000624 	andeq	r0, r0, r4, lsr #12
    16d0:	9f310002 	svcls	0x00310002
    16d4:	00000684 	andeq	r0, r0, r4, lsl #13
    16d8:	00000694 	muleq	r0, r4, r6
    16dc:	94520001 	ldrbls	r0, [r2], #-1
    16e0:	a4000006 	strge	r0, [r0], #-6
    16e4:	01000006 	tsteq	r0, r6
    16e8:	06a45900 	strteq	r5, [r4], r0, lsl #18
    16ec:	06a80000 	strteq	r0, [r8], r0
    16f0:	00010000 	andeq	r0, r1, r0
    16f4:	0006a852 	andeq	sl, r6, r2, asr r8
    16f8:	0006a800 	andeq	sl, r6, r0, lsl #16
    16fc:	72000300 	andvc	r0, r0, #0, 6
    1700:	08a89f01 	stmiaeq	r8!, {r0, r8, r9, sl, fp, ip, pc}
    1704:	08b80000 	ldmeq	r8!, {}	; <UNPREDICTABLE>
    1708:	00020000 	andeq	r0, r2, r0
    170c:	09109f31 	ldmdbeq	r0, {r0, r4, r5, r8, r9, sl, fp, ip, pc}
    1710:	09200000 	stmdbeq	r0!, {}	; <UNPREDICTABLE>
    1714:	00020000 	andeq	r0, r2, r0
    1718:	00009f31 	andeq	r9, r0, r1, lsr pc
    171c:	00000000 	andeq	r0, r0, r0
    1720:	06010000 	streq	r0, [r1], -r0
    1724:	00010006 	andeq	r0, r1, r6
    1728:	000006d0 	ldrdeq	r0, [r0], -r0	; <UNPREDICTABLE>
    172c:	000006d0 	ldrdeq	r0, [r0], -r0	; <UNPREDICTABLE>
    1730:	d0910004 	addsle	r0, r1, r4
    1734:	06d09f7e 			; <UNDEFINED> instruction: 0x06d09f7e
    1738:	07000000 	streq	r0, [r0, -r0]
    173c:	00010000 	andeq	r0, r1, r0
    1740:	0008b850 	andeq	fp, r8, r0, asr r8
    1744:	0008bc00 	andeq	fp, r8, r0, lsl #24
    1748:	53000100 	movwpl	r0, #256	; 0x100
	...
    1754:	00000801 	andeq	r0, r0, r1, lsl #16
    1758:	00010100 	andeq	r0, r1, r0, lsl #2
    175c:	06d00701 	ldrbeq	r0, [r0], r1, lsl #14
    1760:	06d00000 	ldrbeq	r0, [r0], r0
    1764:	00060000 	andeq	r0, r6, r0
    1768:	0071007c 	rsbseq	r0, r1, ip, ror r0
    176c:	06e49f22 	strbteq	r9, [r4], r2, lsr #30
    1770:	06e80000 	strbteq	r0, [r8], r0
    1774:	00030000 	andeq	r0, r3, r0
    1778:	e89f7f73 	ldm	pc, {r0, r1, r4, r5, r6, r8, r9, sl, fp, ip, sp, lr}	; <UNPREDICTABLE>
    177c:	f0000006 			; <UNDEFINED> instruction: 0xf0000006
    1780:	01000006 	tsteq	r0, r6
    1784:	06f05300 	ldrbteq	r5, [r0], r0, lsl #6
    1788:	06f80000 	ldrbteq	r0, [r8], r0
    178c:	00030000 	andeq	r0, r3, r0
    1790:	b89f7f73 	ldmlt	pc, {r0, r1, r4, r5, r6, r8, r9, sl, fp, ip, sp, lr}	; <UNPREDICTABLE>
    1794:	b8000008 	stmdalt	r0, {r3}
    1798:	04000008 	streq	r0, [r0], #-8
    179c:	7ed19100 	atnvcs	f1, f0
    17a0:	0000009f 	muleq	r0, pc, r0	; <UNPREDICTABLE>
    17a4:	00000000 	andeq	r0, r0, r0
    17a8:	01000100 	mrseq	r0, (UNDEF: 16)
    17ac:	0006d000 	andeq	sp, r6, r0
    17b0:	00070000 	andeq	r0, r7, r0
    17b4:	08000300 	stmdaeq	r0, {r8, r9}
    17b8:	08b89f80 	ldmeq	r8!, {r7, r8, r9, sl, fp, ip, pc}
    17bc:	08bc0000 	ldmeq	ip!, {}	; <UNPREDICTABLE>
    17c0:	00030000 	andeq	r0, r3, r0
    17c4:	009f8008 	addseq	r8, pc, r8
    17c8:	00000000 	andeq	r0, r0, r0
    17cc:	01000000 	mrseq	r0, (UNDEF: 0)
    17d0:	00000000 	andeq	r0, r0, r0
    17d4:	00000101 	andeq	r0, r0, r1, lsl #2
    17d8:	01010200 	mrseq	r0, R9_usr
    17dc:	0006d000 	andeq	sp, r6, r0
    17e0:	0006e000 	andeq	lr, r6, r0
    17e4:	91000400 	tstls	r0, r0, lsl #8
    17e8:	e09f7dd0 			; <UNDEFINED> instruction: 0xe09f7dd0
    17ec:	e4000006 	str	r0, [r0], #-6
    17f0:	01000006 	tsteq	r0, r6
    17f4:	06e45500 	strbteq	r5, [r4], r0, lsl #10
    17f8:	06e40000 	strbteq	r0, [r4], r0
    17fc:	00030000 	andeq	r0, r3, r0
    1800:	e49f0172 	ldr	r0, [pc], #370	; 1808 <__code_start__-0x67f8>
    1804:	f0000006 			; <UNDEFINED> instruction: 0xf0000006
    1808:	03000006 	movweq	r0, #6
    180c:	9f027200 	svcls	0x00027200
    1810:	000006f0 	strdeq	r0, [r0], -r0	; <UNPREDICTABLE>
    1814:	00000700 	andeq	r0, r0, r0, lsl #14
    1818:	01720003 	cmneq	r2, r3
    181c:	0007ec9f 	muleq	r7, pc, ip	; <UNPREDICTABLE>
    1820:	0007f400 	andeq	pc, r7, r0, lsl #8
    1824:	73000300 	movwvc	r0, #768	; 0x300
    1828:	08b89f01 	ldmeq	r8!, {r0, r8, r9, sl, fp, ip, pc}
    182c:	08bc0000 	ldmeq	ip!, {}	; <UNPREDICTABLE>
    1830:	00040000 	andeq	r0, r4, r0
    1834:	9f7dd091 	svcls	0x007dd091
	...
    1840:	08b80004 	ldmeq	r8!, {r2}
    1844:	08bc0000 	ldmeq	ip!, {}	; <UNPREDICTABLE>
    1848:	00020000 	andeq	r0, r2, r0
    184c:	00009f32 	andeq	r9, r0, r2, lsr pc
    1850:	00000000 	andeq	r0, r0, r0
    1854:	00070000 	andeq	r0, r7, r0
    1858:	00060000 	andeq	r0, r6, r0
    185c:	000006d0 	ldrdeq	r0, [r0], -r0	; <UNPREDICTABLE>
    1860:	000006e0 	andeq	r0, r0, r0, ror #13
    1864:	d0910004 	addsle	r0, r1, r4
    1868:	06e09f7d 			; <UNDEFINED> instruction: 0x06e09f7d
    186c:	07000000 	streq	r0, [r0, -r0]
    1870:	00010000 	andeq	r0, r1, r0
    1874:	0008b855 	andeq	fp, r8, r5, asr r8
    1878:	0008bc00 	andeq	fp, r8, r0, lsl #24
    187c:	91000400 	tstls	r0, r0, lsl #8
    1880:	009f7dd0 			; <UNDEFINED> instruction: 0x009f7dd0
    1884:	00000000 	andeq	r0, r0, r0
    1888:	01000000 	mrseq	r0, (UNDEF: 0)
    188c:	0c000000 	stceq	0, cr0, [r0], {-0}
    1890:	ec000007 	stc	0, cr0, [r0], {7}
    1894:	03000007 	movweq	r0, #7
    1898:	9f800800 	svcls	0x00800800
    189c:	00000894 	muleq	r0, r4, r8
    18a0:	000008a8 	andeq	r0, r0, r8, lsr #17
    18a4:	80080003 	andhi	r0, r8, r3
    18a8:	0000009f 	muleq	r0, pc, r0	; <UNPREDICTABLE>
	...
    18b4:	00070c00 	andeq	r0, r7, r0, lsl #24
    18b8:	0007ec00 	andeq	lr, r7, r0, lsl #24
    18bc:	30000200 	andcc	r0, r0, r0, lsl #4
    18c0:	0008949f 	muleq	r8, pc, r4	; <UNPREDICTABLE>
    18c4:	0008a800 	andeq	sl, r8, r0, lsl #16
    18c8:	30000200 	andcc	r0, r0, r0, lsl #4
    18cc:	0000009f 	muleq	r0, pc, r0	; <UNPREDICTABLE>
	...
    18d8:	00070c00 	andeq	r0, r7, r0, lsl #24
    18dc:	0007d000 	andeq	sp, r7, r0
    18e0:	55000100 	strpl	r0, [r0, #-256]	; 0xffffff00
    18e4:	00000894 	muleq	r0, r4, r8
    18e8:	000008a8 	andeq	r0, r0, r8, lsr #17
    18ec:	00550001 	subseq	r0, r5, r1
	...
    18fc:	00070c00 	andeq	r0, r7, r0, lsl #24
    1900:	0007d000 	andeq	sp, r7, r0
    1904:	91000400 	tstls	r0, r0, lsl #8
    1908:	d09f7dd0 			; <UNDEFINED> instruction: 0xd09f7dd0
    190c:	ec000007 	stc	0, cr0, [r0], {7}
    1910:	01000007 	tsteq	r0, r7
    1914:	08945500 	ldmeq	r4, {r8, sl, ip, lr}
    1918:	08a80000 	stmiaeq	r8!, {}	; <UNPREDICTABLE>
    191c:	00040000 	andeq	r0, r4, r0
    1920:	9f7dd091 	svcls	0x007dd091
	...
    1930:	0000070c 	andeq	r0, r0, ip, lsl #14
    1934:	000007ec 	andeq	r0, r0, ip, ror #15
    1938:	9f320002 	svcls	0x00320002
    193c:	00000894 	muleq	r0, r4, r8
    1940:	000008a8 	andeq	r0, r0, r8, lsr #17
    1944:	9f320002 	svcls	0x00320002
	...
    1950:	00050503 	andeq	r0, r5, r3, lsl #10
    1954:	00000000 	andeq	r0, r0, r0
    1958:	070c0000 	streq	r0, [ip, -r0]
    195c:	070c0000 	streq	r0, [ip, -r0]
    1960:	00010000 	andeq	r0, r1, r0
    1964:	00070c51 	andeq	r0, r7, r1, asr ip
    1968:	00071c00 	andeq	r1, r7, r0, lsl #24
    196c:	53000100 	movwpl	r0, #256	; 0x100
    1970:	0000071c 	andeq	r0, r0, ip, lsl r7
    1974:	00000724 	andeq	r0, r0, r4, lsr #14
    1978:	01720003 	cmneq	r2, r3
    197c:	0007249f 	muleq	r7, pc, r4	; <UNPREDICTABLE>
    1980:	0007cc00 	andeq	ip, r7, r0, lsl #24
    1984:	53000100 	movwpl	r0, #256	; 0x100
    1988:	00000894 	muleq	r0, r4, r8
    198c:	000008a8 	andeq	r0, r0, r8, lsr #17
    1990:	00530001 	subseq	r0, r3, r1
    1994:	00000000 	andeq	r0, r0, r0
    1998:	05000000 	streq	r0, [r0, #-0]
    199c:	0c000100 	stfeqs	f0, [r0], {-0}
    19a0:	20000007 	andcs	r0, r0, r7
    19a4:	01000007 	tsteq	r0, r7
    19a8:	07245000 	streq	r5, [r4, -r0]!
    19ac:	072c0000 	streq	r0, [ip, -r0]!
    19b0:	00010000 	andeq	r0, r1, r0
    19b4:	00000050 	andeq	r0, r0, r0, asr r0
    19b8:	00000000 	andeq	r0, r0, r0
    19bc:	00010300 	andeq	r0, r1, r0, lsl #6
    19c0:	00072801 	andeq	r2, r7, r1, lsl #16
    19c4:	0007b000 	andeq	fp, r7, r0
    19c8:	55000100 	strpl	r0, [r0, #-256]	; 0xffffff00
    19cc:	00000894 	muleq	r0, r4, r8
    19d0:	000008a0 	andeq	r0, r0, r0, lsr #17
    19d4:	00550001 	subseq	r0, r5, r1
    19d8:	00000000 	andeq	r0, r0, r0
    19dc:	03000000 	movweq	r0, #0
    19e0:	28010001 	stmdacs	r1, {r0}
    19e4:	b0000007 	andlt	r0, r0, r7
    19e8:	01000007 	tsteq	r0, r7
    19ec:	08945100 	ldmeq	r4, {r8, ip, lr}
    19f0:	08a00000 	stmiaeq	r0!, {}	; <UNPREDICTABLE>
    19f4:	00010000 	andeq	r0, r1, r0
    19f8:	00000051 	andeq	r0, r0, r1, asr r0
    19fc:	00000000 	andeq	r0, r0, r0
    1a00:	00000300 	andeq	r0, r0, r0, lsl #6
    1a04:	01010101 	tsteq	r1, r1, lsl #2
    1a08:	00020303 	andeq	r0, r2, r3, lsl #6
    1a0c:	00072801 	andeq	r2, r7, r1, lsl #16
    1a10:	00075000 	andeq	r5, r7, r0
    1a14:	53000100 	movwpl	r0, #256	; 0x100
    1a18:	00000774 	andeq	r0, r0, r4, ror r7
    1a1c:	00000774 	andeq	r0, r0, r4, ror r7
    1a20:	745e0001 	ldrbvc	r0, [lr], #-1
    1a24:	88000007 	stmdahi	r0, {r0, r1, r2}
    1a28:	03000007 	movweq	r0, #7
    1a2c:	9f017e00 	svcls	0x00017e00
    1a30:	00000788 	andeq	r0, r0, r8, lsl #15
    1a34:	00000794 	muleq	r0, r4, r7
    1a38:	027e0003 	rsbseq	r0, lr, #3, 0
    1a3c:	0007949f 	muleq	r7, pc, r4	; <UNPREDICTABLE>
    1a40:	00079800 	andeq	r9, r7, r0, lsl #16
    1a44:	7e000300 	cdpvc	3, 0, cr0, cr0, cr0, {0}
    1a48:	08949f03 	ldmeq	r4, {r0, r1, r8, r9, sl, fp, ip, pc}
    1a4c:	08a00000 	stmiaeq	r0!, {}	; <UNPREDICTABLE>
    1a50:	00010000 	andeq	r0, r1, r0
    1a54:	00000053 	andeq	r0, r0, r3, asr r0
	...
    1a60:	01010101 	tsteq	r1, r1, lsl #2
    1a64:	00020101 	andeq	r0, r2, r1, lsl #2
    1a68:	00072c01 	andeq	r2, r7, r1, lsl #24
    1a6c:	00075000 	andeq	r5, r7, r0
    1a70:	50000100 	andpl	r0, r0, r0, lsl #2
    1a74:	00000774 	andeq	r0, r0, r4, ror r7
    1a78:	00000784 	andeq	r0, r0, r4, lsl #15
    1a7c:	84500001 	ldrbhi	r0, [r0], #-1
    1a80:	94000007 	strls	r0, [r0], #-7
    1a84:	01000007 	tsteq	r0, r7
    1a88:	07945b00 	ldreq	r5, [r4, r0, lsl #22]
    1a8c:	07980000 	ldreq	r0, [r8, r0]
    1a90:	00010000 	andeq	r0, r1, r0
    1a94:	00079850 	andeq	r9, r7, r0, asr r8
    1a98:	00079800 	andeq	r9, r7, r0, lsl #16
    1a9c:	70000300 	andvc	r0, r0, r0, lsl #6
    1aa0:	08949f01 	ldmeq	r4, {r0, r8, r9, sl, fp, ip, pc}
    1aa4:	08a00000 	stmiaeq	r0!, {}	; <UNPREDICTABLE>
    1aa8:	00010000 	andeq	r0, r1, r0
    1aac:	00000050 	andeq	r0, r0, r0, asr r0
    1ab0:	00000000 	andeq	r0, r0, r0
    1ab4:	01000100 	mrseq	r0, (UNDEF: 16)
    1ab8:	0007b000 	andeq	fp, r7, r0
    1abc:	0007ec00 	andeq	lr, r7, r0, lsl #24
    1ac0:	51000100 	mrspl	r0, (UNDEF: 16)
    1ac4:	000008a0 	andeq	r0, r0, r0, lsr #17
    1ac8:	000008a8 	andeq	r0, r0, r8, lsr #17
    1acc:	00510001 	subseq	r0, r1, r1
    1ad0:	00000000 	andeq	r0, r0, r0
    1ad4:	01000000 	mrseq	r0, (UNDEF: 0)
    1ad8:	00000000 	andeq	r0, r0, r0
    1adc:	01000101 	tsteq	r0, r1, lsl #2
    1ae0:	0007b000 	andeq	fp, r7, r0
    1ae4:	0007b400 	andeq	fp, r7, r0, lsl #8
    1ae8:	73000600 	movwvc	r0, #1536	; 0x600
    1aec:	22007c00 	andcs	r7, r0, #0, 24
    1af0:	0007d49f 	muleq	r7, pc, r4	; <UNPREDICTABLE>
    1af4:	0007d800 	andeq	sp, r7, r0, lsl #16
    1af8:	73000300 	movwvc	r0, #768	; 0x300
    1afc:	07d89f7f 			; <UNDEFINED> instruction: 0x07d89f7f
    1b00:	07e00000 	strbeq	r0, [r0, r0]!
    1b04:	00010000 	andeq	r0, r1, r0
    1b08:	0007e053 	andeq	lr, r7, r3, asr r0
    1b0c:	0007e800 	andeq	lr, r7, r0, lsl #16
    1b10:	73000300 	movwvc	r0, #768	; 0x300
    1b14:	08a09f7f 	stmiaeq	r0!, {r0, r1, r2, r3, r4, r5, r6, r8, r9, sl, fp, ip, pc}
    1b18:	08a80000 	stmiaeq	r8!, {}	; <UNPREDICTABLE>
    1b1c:	00010000 	andeq	r0, r1, r0
    1b20:	00000053 	andeq	r0, r0, r3, asr r0
    1b24:	00000000 	andeq	r0, r0, r0
    1b28:	01000100 	mrseq	r0, (UNDEF: 16)
    1b2c:	0007b000 	andeq	fp, r7, r0
    1b30:	0007ec00 	andeq	lr, r7, r0, lsl #24
    1b34:	08000300 	stmdaeq	r0, {r8, r9}
    1b38:	08a09f80 	stmiaeq	r0!, {r7, r8, r9, sl, fp, ip, pc}
    1b3c:	08a80000 	stmiaeq	r8!, {}	; <UNPREDICTABLE>
    1b40:	00030000 	andeq	r0, r3, r0
    1b44:	009f8008 	addseq	r8, pc, r8
    1b48:	00000000 	andeq	r0, r0, r0
    1b4c:	01000000 	mrseq	r0, (UNDEF: 0)
    1b50:	00000000 	andeq	r0, r0, r0
    1b54:	00000101 	andeq	r0, r0, r1, lsl #2
    1b58:	b0000100 	andlt	r0, r0, r0, lsl #2
    1b5c:	d0000007 	andle	r0, r0, r7
    1b60:	04000007 	streq	r0, [r0], #-7
    1b64:	7dd09100 	ldfvcp	f1, [r0]
    1b68:	0007d09f 	muleq	r7, pc, r0	; <UNPREDICTABLE>
    1b6c:	0007d400 	andeq	sp, r7, r0, lsl #8
    1b70:	55000100 	strpl	r0, [r0, #-256]	; 0xffffff00
    1b74:	000007d4 	ldrdeq	r0, [r0], -r4
    1b78:	000007d4 	ldrdeq	r0, [r0], -r4
    1b7c:	017c0003 	cmneq	ip, r3
    1b80:	0007d49f 	muleq	r7, pc, r4	; <UNPREDICTABLE>
    1b84:	0007e000 	andeq	lr, r7, r0
    1b88:	7c000300 	stcvc	3, cr0, [r0], {-0}
    1b8c:	07e09f02 	strbeq	r9, [r0, r2, lsl #30]!
    1b90:	07ec0000 	strbeq	r0, [ip, r0]!
    1b94:	00030000 	andeq	r0, r3, r0
    1b98:	a09f017c 	addsge	r0, pc, ip, ror r1	; <UNPREDICTABLE>
    1b9c:	a8000008 	stmdage	r0, {r3}
    1ba0:	04000008 	streq	r0, [r0], #-8
    1ba4:	7dd09100 	ldfvcp	f1, [r0]
    1ba8:	0000009f 	muleq	r0, pc, r0	; <UNPREDICTABLE>
    1bac:	00000000 	andeq	r0, r0, r0
    1bb0:	04000400 	streq	r0, [r0], #-1024	; 0xfffffc00
    1bb4:	0007b000 	andeq	fp, r7, r0
    1bb8:	0007b400 	andeq	fp, r7, r0, lsl #8
    1bbc:	70000300 	andvc	r0, r0, r0, lsl #6
    1bc0:	08a09f01 	stmiaeq	r0!, {r0, r8, r9, sl, fp, ip, pc}
    1bc4:	08a80000 	stmiaeq	r8!, {}	; <UNPREDICTABLE>
    1bc8:	00030000 	andeq	r0, r3, r0
    1bcc:	009f0170 	addseq	r0, pc, r0, ror r1	; <UNPREDICTABLE>
    1bd0:	00000000 	andeq	r0, r0, r0
    1bd4:	01000000 	mrseq	r0, (UNDEF: 0)
    1bd8:	bc000000 	stclt	0, cr0, [r0], {-0}
    1bdc:	d0000007 	andle	r0, r0, r7
    1be0:	04000007 	streq	r0, [r0], #-7
    1be4:	7dd09100 	ldfvcp	f1, [r0]
    1be8:	0007d09f 	muleq	r7, pc, r0	; <UNPREDICTABLE>
    1bec:	0007ec00 	andeq	lr, r7, r0, lsl #24
    1bf0:	55000100 	strpl	r0, [r0, #-256]	; 0xffffff00
	...
    1c00:	00000328 	andeq	r0, r0, r8, lsr #6
    1c04:	00000364 	andeq	r0, r0, r4, ror #6
    1c08:	64500001 	ldrbvs	r0, [r0], #-1
    1c0c:	88000003 	stmdahi	r0, {r0, r1}
    1c10:	04000003 	streq	r0, [r0], #-3
    1c14:	5001f300 	andpl	pc, r1, r0, lsl #6
    1c18:	0000009f 	muleq	r0, pc, r0	; <UNPREDICTABLE>
	...
    1c24:	00032800 	andeq	r2, r3, r0, lsl #16
    1c28:	00035c00 	andeq	r5, r3, r0, lsl #24
    1c2c:	51000100 	mrspl	r0, (UNDEF: 16)
    1c30:	0000035c 	andeq	r0, r0, ip, asr r3
    1c34:	00000388 	andeq	r0, r0, r8, lsl #7
    1c38:	01f30004 	mvnseq	r0, r4
    1c3c:	00009f51 	andeq	r9, r0, r1, asr pc
	...
    1c60:	00140000 	andseq	r0, r4, r0
    1c64:	00010000 	andeq	r0, r1, r0
    1c68:	00001450 	andeq	r1, r0, r0, asr r4
    1c6c:	00002000 	andeq	r2, r0, r0
    1c70:	5c000100 	stfpls	f0, [r0], {-0}
    1c74:	00000020 	andeq	r0, r0, r0, lsr #32
    1c78:	00000068 	andeq	r0, r0, r8, rrx
    1c7c:	02710003 	rsbseq	r0, r1, #3, 0
    1c80:	0000689f 	muleq	r0, pc, r8	; <UNPREDICTABLE>
    1c84:	00006c00 	andeq	r6, r0, r0, lsl #24
    1c88:	73000300 	movwvc	r0, #768	; 0x300
    1c8c:	006c9f02 	rsbeq	r9, ip, r2, lsl #30
    1c90:	01940000 	orrseq	r0, r4, r0
    1c94:	00040000 	andeq	r0, r4, r0
    1c98:	9f5001f3 	svcls	0x005001f3
    1c9c:	00000194 	muleq	r0, r4, r1
    1ca0:	00000198 	muleq	r0, r8, r1
    1ca4:	02730003 	rsbseq	r0, r3, #3, 0
    1ca8:	0001989f 	muleq	r1, pc, r8	; <UNPREDICTABLE>
    1cac:	0001c000 	andeq	ip, r1, r0
    1cb0:	f3000400 	vshl.u8	d0, d0, d0
    1cb4:	c09f5001 	addsgt	r5, pc, r1
    1cb8:	c8000001 	stmdagt	r0, {r0}
    1cbc:	01000001 	tsteq	r0, r1
    1cc0:	01c85c00 	biceq	r5, r8, r0, lsl #24
    1cc4:	02140000 	andseq	r0, r4, #0, 0
    1cc8:	00030000 	andeq	r0, r3, r0
    1ccc:	149f0273 	ldrne	r0, [pc], #627	; 1cd4 <__code_start__-0x632c>
    1cd0:	ec000002 	stc	0, cr0, [r0], {2}
    1cd4:	04000002 	streq	r0, [r0], #-2
    1cd8:	5001f300 	andpl	pc, r1, r0, lsl #6
    1cdc:	0002ec9f 	muleq	r2, pc, ip	; <UNPREDICTABLE>
    1ce0:	0002f400 	andeq	pc, r2, r0, lsl #8
    1ce4:	73000300 	movwvc	r0, #768	; 0x300
    1ce8:	02f49f02 	rscseq	r9, r4, #2, 30
    1cec:	03280000 			; <UNDEFINED> instruction: 0x03280000
    1cf0:	00040000 	andeq	r0, r4, r0
    1cf4:	9f5001f3 	svcls	0x005001f3
	...
    1d0c:	0000001c 	andeq	r0, r0, ip, lsl r0
    1d10:	1c510001 	mrrcne	0, 0, r0, r1, cr1
    1d14:	e0000000 	and	r0, r0, r0
    1d18:	01000002 	tsteq	r0, r2
    1d1c:	02e05000 	rsceq	r5, r0, #0, 0
    1d20:	02ec0000 	rsceq	r0, ip, #0, 0
    1d24:	00040000 	andeq	r0, r4, r0
    1d28:	9f5101f3 	svcls	0x005101f3
    1d2c:	000002ec 	andeq	r0, r0, ip, ror #5
    1d30:	00000328 	andeq	r0, r0, r8, lsr #6
    1d34:	00500001 	subseq	r0, r0, r1
	...
    1d44:	00000001 	andeq	r0, r0, r1
    1d48:	00000000 	andeq	r0, r0, r0
    1d4c:	00000202 	andeq	r0, r0, r2, lsl #4
	...
    1d60:	70000000 	andvc	r0, r0, r0
    1d64:	01000000 	mrseq	r0, (UNDEF: 0)
    1d68:	00705200 	rsbseq	r5, r0, r0, lsl #4
    1d6c:	00780000 	rsbseq	r0, r8, r0
    1d70:	00010000 	andeq	r0, r1, r0
    1d74:	0000785c 	andeq	r7, r0, ip, asr r8
    1d78:	0000a400 	andeq	sl, r0, r0, lsl #8
    1d7c:	f3000400 	vshl.u8	d0, d0, d0
    1d80:	949f5201 	ldrls	r5, [pc], #513	; 1d88 <__code_start__-0x6278>
    1d84:	9c000001 	stcls	0, cr0, [r0], {1}
    1d88:	01000001 	tsteq	r0, r1
    1d8c:	019c5200 	orrseq	r5, ip, r0, lsl #4
    1d90:	01a40000 			; <UNDEFINED> instruction: 0x01a40000
    1d94:	00010000 	andeq	r0, r1, r0
    1d98:	0001a45c 	andeq	sl, r1, ip, asr r4
    1d9c:	0001c000 	andeq	ip, r1, r0
    1da0:	f3000400 	vshl.u8	d0, d0, d0
    1da4:	c09f5201 	addsgt	r5, pc, r1, lsl #4
    1da8:	20000001 	andcs	r0, r0, r1
    1dac:	01000002 	tsteq	r0, r2
    1db0:	02205200 	eoreq	r5, r0, #0, 4
    1db4:	02280000 	eoreq	r0, r8, #0, 0
    1db8:	00040000 	andeq	r0, r4, r0
    1dbc:	9f1f0072 	svcls	0x001f0072
    1dc0:	00000228 	andeq	r0, r0, r8, lsr #4
    1dc4:	00000274 	andeq	r0, r0, r4, ror r2
    1dc8:	01f30005 	mvnseq	r0, r5
    1dcc:	749f1f52 	ldrvc	r1, [pc], #3922	; 1dd4 <__code_start__-0x622c>
    1dd0:	88000002 	stmdahi	r0, {r1}
    1dd4:	01000002 	tsteq	r0, r2
    1dd8:	02885200 	addeq	r5, r8, #0, 4
    1ddc:	02a00000 	adceq	r0, r0, #0, 0
    1de0:	00010000 	andeq	r0, r1, r0
    1de4:	0002cc5c 	andeq	ip, r2, ip, asr ip
    1de8:	0002d000 	andeq	sp, r2, r0
    1dec:	52000100 	andpl	r0, r0, #0
    1df0:	000002d0 	ldrdeq	r0, [r0], -r0	; <UNPREDICTABLE>
    1df4:	000002e7 	andeq	r0, r0, r7, ror #5
    1df8:	e75c0001 	ldrb	r0, [ip, -r1]
    1dfc:	ec000002 	stc	0, cr0, [r0], {2}
    1e00:	04000002 	streq	r0, [r0], #-2
    1e04:	5201f300 	andpl	pc, r1, #0, 6
    1e08:	0002ec9f 	muleq	r2, pc, ip	; <UNPREDICTABLE>
    1e0c:	00030000 	andeq	r0, r3, r0
    1e10:	52000100 	andpl	r0, r0, #0
    1e14:	00000300 	andeq	r0, r0, r0, lsl #6
    1e18:	00000328 	andeq	r0, r0, r8, lsr #6
    1e1c:	005c0001 	subseq	r0, ip, r1
	...
    1e38:	00006800 	andeq	r6, r0, r0, lsl #16
    1e3c:	53000100 	movwpl	r0, #256	; 0x100
    1e40:	00000068 	andeq	r0, r0, r8, rrx
    1e44:	0000006c 	andeq	r0, r0, ip, rrx
    1e48:	7f080003 	svcvc	0x00080003
    1e4c:	0001949f 	muleq	r1, pc, r4	; <UNPREDICTABLE>
    1e50:	00019800 	andeq	r9, r1, r0, lsl #16
    1e54:	08000300 	stmdaeq	r0, {r8, r9}
    1e58:	01c09f7f 	biceq	r9, r0, pc, ror pc
    1e5c:	02140000 	andseq	r0, r4, #0, 0
    1e60:	00030000 	andeq	r0, r3, r0
    1e64:	749f7f08 	ldrvc	r7, [pc], #3848	; 1e6c <__code_start__-0x6194>
    1e68:	90000002 	andls	r0, r0, r2
    1e6c:	01000002 	tsteq	r0, r2
    1e70:	02905300 	addseq	r5, r0, #0, 6
    1e74:	02a00000 	adceq	r0, r0, #0, 0
    1e78:	00040000 	andeq	r0, r4, r0
    1e7c:	9f5301f3 	svcls	0x005301f3
    1e80:	000002ec 	andeq	r0, r0, ip, ror #5
    1e84:	00000328 	andeq	r0, r0, r8, lsr #6
    1e88:	7f080003 	svcvc	0x00080003
    1e8c:	0000009f 	muleq	r0, pc, r0	; <UNPREDICTABLE>
    1e90:	00000000 	andeq	r0, r0, r0
    1e94:	00000100 	andeq	r0, r0, r0, lsl #2
    1e98:	02020000 	andeq	r0, r2, #0, 0
    1e9c:	01010000 	mrseq	r0, (UNDEF: 1)
	...
    1ea8:	00000202 	andeq	r0, r0, r2, lsl #4
    1eac:	00000100 	andeq	r0, r0, r0, lsl #2
    1eb0:	00000000 	andeq	r0, r0, r0
    1eb4:	01010000 	mrseq	r0, (UNDEF: 1)
    1eb8:	00000000 	andeq	r0, r0, r0
    1ebc:	00000202 	andeq	r0, r0, r2, lsl #4
    1ec0:	00000000 	andeq	r0, r0, r0
    1ec4:	00000101 	andeq	r0, r0, r1, lsl #2
    1ec8:	00001800 	andeq	r1, r0, r0, lsl #16
    1ecc:	00007000 	andeq	r7, r0, r0
    1ed0:	91000400 	tstls	r0, r0, lsl #8
    1ed4:	709f7fa0 	addsvc	r7, pc, r0, lsr #31
    1ed8:	78000000 	stmdavc	r0, {}	; <UNPREDICTABLE>
    1edc:	01000000 	mrseq	r0, (UNDEF: 0)
    1ee0:	00785200 	rsbseq	r5, r8, r0, lsl #4
    1ee4:	00780000 	rsbseq	r0, r8, r0
    1ee8:	00010000 	andeq	r0, r1, r0
    1eec:	00007854 	andeq	r7, r0, r4, asr r8
    1ef0:	00008800 	andeq	r8, r0, r0, lsl #16
    1ef4:	74000300 	strvc	r0, [r0], #-768	; 0xfffffd00
    1ef8:	00889f01 	addeq	r9, r8, r1, lsl #30
    1efc:	00900000 	addseq	r0, r0, r0
    1f00:	00010000 	andeq	r0, r1, r0
    1f04:	00009054 	andeq	r9, r0, r4, asr r0
    1f08:	0000a000 	andeq	sl, r0, r0
    1f0c:	74000300 	strvc	r0, [r0], #-768	; 0xfffffd00
    1f10:	00a09f02 	adceq	r9, r0, r2, lsl #30
    1f14:	00b00000 	adcseq	r0, r0, r0
    1f18:	00010000 	andeq	r0, r1, r0
    1f1c:	0001945e 	andeq	r9, r1, lr, asr r4
    1f20:	00019c00 	andeq	r9, r1, r0, lsl #24
    1f24:	91000400 	tstls	r0, r0, lsl #8
    1f28:	9c9f7fa0 	ldcls	15, cr7, [pc], {160}	; 0xa0
    1f2c:	a4000001 	strge	r0, [r0], #-1
    1f30:	01000001 	tsteq	r0, r1
    1f34:	01a45200 			; <UNDEFINED> instruction: 0x01a45200
    1f38:	01a40000 			; <UNDEFINED> instruction: 0x01a40000
    1f3c:	00010000 	andeq	r0, r1, r0
    1f40:	0001a45e 	andeq	sl, r1, lr, asr r4
    1f44:	0001b400 	andeq	fp, r1, r0, lsl #8
    1f48:	7e000300 	cdpvc	3, 0, cr0, cr0, cr0, {0}
    1f4c:	01b49f01 			; <UNDEFINED> instruction: 0x01b49f01
    1f50:	01c00000 	biceq	r0, r0, r0
    1f54:	00010000 	andeq	r0, r1, r0
    1f58:	0001c05e 	andeq	ip, r1, lr, asr r0
    1f5c:	00022800 	andeq	r2, r2, r0, lsl #16
    1f60:	91000400 	tstls	r0, r0, lsl #8
    1f64:	289f7fa0 	ldmcs	pc, {r5, r7, r8, r9, sl, fp, ip, sp, lr}	; <UNPREDICTABLE>
    1f68:	34000002 	strcc	r0, [r0], #-2
    1f6c:	01000002 	tsteq	r0, r2
    1f70:	02345200 	eorseq	r5, r4, #0, 4
    1f74:	02580000 	subseq	r0, r8, #0, 0
    1f78:	00010000 	andeq	r0, r1, r0
    1f7c:	0002585e 	andeq	r5, r2, lr, asr r8
    1f80:	00025c00 	andeq	r5, r2, r0, lsl #24
    1f84:	7e000300 	cdpvc	3, 0, cr0, cr0, cr0, {0}
    1f88:	025c9f01 	subseq	r9, ip, #1, 30
    1f8c:	02640000 	rsbeq	r0, r4, #0, 0
    1f90:	00010000 	andeq	r0, r1, r0
    1f94:	0002645e 	andeq	r6, r2, lr, asr r4
    1f98:	00027000 	andeq	r7, r2, r0
    1f9c:	71000300 	mrsvc	r0, LR_irq
    1fa0:	02709f02 	rsbseq	r9, r0, #2, 30
    1fa4:	02740000 	rsbseq	r0, r4, #0, 0
    1fa8:	00010000 	andeq	r0, r1, r0
    1fac:	0002745e 	andeq	r7, r2, lr, asr r4
    1fb0:	00027400 	andeq	r7, r2, r0, lsl #8
    1fb4:	91000400 	tstls	r0, r0, lsl #8
    1fb8:	749f7fa0 	ldrvc	r7, [pc], #4000	; 1fc0 <__code_start__-0x6040>
    1fbc:	a0000002 	andge	r0, r0, r2
    1fc0:	04000002 	streq	r0, [r0], #-2
    1fc4:	7fa19100 	svcvc	0x00a19100
    1fc8:	0002c09f 	muleq	r2, pc, r0	; <UNPREDICTABLE>
    1fcc:	0002c800 	andeq	ip, r2, r0, lsl #16
    1fd0:	5e000100 	adfpls	f0, f0, f0
    1fd4:	000002c8 	andeq	r0, r0, r8, asr #5
    1fd8:	000002cc 	andeq	r0, r0, ip, asr #5
    1fdc:	cc560001 	mrrcgt	0, 0, r0, r6, cr1
    1fe0:	ec000002 	stc	0, cr0, [r0], {2}
    1fe4:	04000002 	streq	r0, [r0], #-2
    1fe8:	7fa09100 	svcvc	0x00a09100
    1fec:	0002ec9f 	muleq	r2, pc, ip	; <UNPREDICTABLE>
    1ff0:	0002fc00 	andeq	pc, r2, r0, lsl #24
    1ff4:	91000400 	tstls	r0, r0, lsl #8
    1ff8:	fc9f7fa1 	ldc2	15, cr7, [pc], {161}	; 0xa1
    1ffc:	28000002 	stmdacs	r0, {r1}
    2000:	01000003 	tsteq	r0, r3
    2004:	00005e00 	andeq	r5, r0, r0, lsl #28
	...
    201c:	00010100 	andeq	r0, r1, r0, lsl #2
	...
    2030:	00000020 	andeq	r0, r0, r0, lsr #32
    2034:	00000070 	andeq	r0, r0, r0, ror r0
    2038:	70520001 	subsvc	r0, r2, r1
    203c:	94000000 	strls	r0, [r0], #-0
    2040:	01000000 	mrseq	r0, (UNDEF: 0)
    2044:	01945c00 	orrseq	r5, r4, r0, lsl #24
    2048:	019c0000 	orrseq	r0, ip, r0
    204c:	00010000 	andeq	r0, r1, r0
    2050:	00019c52 	andeq	r9, r1, r2, asr ip
    2054:	0001c000 	andeq	ip, r1, r0
    2058:	5c000100 	stfpls	f0, [r0], {-0}
    205c:	000001c8 	andeq	r0, r0, r8, asr #3
    2060:	00000210 	andeq	r0, r0, r0, lsl r2
    2064:	105c0001 	subsne	r0, ip, r1
    2068:	24000002 	strcs	r0, [r0], #-2
    206c:	01000002 	tsteq	r0, r2
    2070:	02245200 	eoreq	r5, r4, #0, 4
    2074:	02480000 	subeq	r0, r8, #0, 0
    2078:	00010000 	andeq	r0, r1, r0
    207c:	0002485c 	andeq	r4, r2, ip, asr r8
    2080:	00025c00 	andeq	r5, r2, r0, lsl #24
    2084:	55000100 	strpl	r0, [r0, #-256]	; 0xffffff00
    2088:	0000025c 	andeq	r0, r0, ip, asr r2
    208c:	00000268 	andeq	r0, r0, r8, ror #4
    2090:	685c0001 	ldmdavs	ip, {r0}^
    2094:	74000002 	strvc	r0, [r0], #-2
    2098:	19000002 	stmdbne	r0, {r1}
    209c:	f7007500 			; <UNDEFINED> instruction: 0xf7007500
    20a0:	7625f72c 	strtvc	pc, [r5], -ip, lsr #14
    20a4:	f72cf700 			; <UNDEFINED> instruction: 0xf72cf700
    20a8:	20081e25 	andcs	r1, r8, r5, lsr #28
    20ac:	f72525f7 			; <UNDEFINED> instruction: 0xf72525f7
    20b0:	3300f72c 	movwcc	pc, #1836	; 0x72c	; <UNPREDICTABLE>
    20b4:	02749f25 	rsbseq	r9, r4, #148	; 0x94
    20b8:	02880000 	addeq	r0, r8, #0, 0
    20bc:	00010000 	andeq	r0, r1, r0
    20c0:	00028852 	andeq	r8, r2, r2, asr r8
    20c4:	0002a000 	andeq	sl, r2, r0
    20c8:	5c000100 	stfpls	f0, [r0], {-0}
    20cc:	000002cc 	andeq	r0, r0, ip, asr #5
    20d0:	000002d0 	ldrdeq	r0, [r0], -r0	; <UNPREDICTABLE>
    20d4:	d0520001 	subsle	r0, r2, r1
    20d8:	e7000002 	str	r0, [r0, -r2]
    20dc:	01000002 	tsteq	r0, r2
    20e0:	02e75c00 	rsceq	r5, r7, #0, 24
    20e4:	02ec0000 	rsceq	r0, ip, #0, 0
    20e8:	00040000 	andeq	r0, r4, r0
    20ec:	9f5201f3 	svcls	0x005201f3
    20f0:	000002ec 	andeq	r0, r0, ip, ror #5
    20f4:	00000300 	andeq	r0, r0, r0, lsl #6
    20f8:	00520001 	subseq	r0, r2, r1
    20fc:	28000003 	stmdacs	r0, {r0, r1}
    2100:	01000003 	tsteq	r0, r3
    2104:	00005c00 	andeq	r5, r0, r0, lsl #24
    2108:	00000000 	andeq	r0, r0, r0
    210c:	00040000 	andeq	r0, r4, r0
    2110:	01000004 	tsteq	r0, r4
    2114:	00040000 	andeq	r0, r4, r0
    2118:	000000a4 	andeq	r0, r0, r4, lsr #1
    211c:	000000b0 	strheq	r0, [r0], -r0	; <UNPREDICTABLE>
    2120:	7c530001 	mrrcvc	0, 0, r0, r3, cr1
    2124:	90000002 	andls	r0, r0, r2
    2128:	01000002 	tsteq	r0, r2
    212c:	02905300 	addseq	r5, r0, #0, 6
    2130:	029c0000 	addseq	r0, ip, #0, 0
    2134:	00040000 	andeq	r0, r4, r0
    2138:	9f5301f3 	svcls	0x005301f3
    213c:	000002c0 	andeq	r0, r0, r0, asr #5
    2140:	000002cc 	andeq	r0, r0, ip, asr #5
    2144:	f0530001 			; <UNDEFINED> instruction: 0xf0530001
    2148:	28000002 	stmdacs	r0, {r1}
    214c:	03000003 	movweq	r0, #3
    2150:	9f7f0800 	svcls	0x007f0800
	...
    215c:	01000004 	tsteq	r0, r4
    2160:	01000004 	tsteq	r0, r4
    2164:	00000000 	andeq	r0, r0, r0
    2168:	00000004 	andeq	r0, r0, r4
    216c:	000000a4 	andeq	r0, r0, r4, lsr #1
    2170:	000000b0 	strheq	r0, [r0], -r0	; <UNPREDICTABLE>
    2174:	b0520001 	subslt	r0, r2, r1
    2178:	5c000000 	stcpl	0, cr0, [r0], {-0}
    217c:	04000001 	streq	r0, [r0], #-1
    2180:	7fa09100 	svcvc	0x00a09100
    2184:	00027c9f 	muleq	r2, pc, ip	; <UNPREDICTABLE>
    2188:	00029400 	andeq	r9, r2, r0, lsl #8
    218c:	91000400 	tstls	r0, r0, lsl #8
    2190:	949f7fa0 	ldrls	r7, [pc], #4000	; 2198 <__code_start__-0x5e68>
    2194:	9c000002 	stcls	0, cr0, [r0], {2}
    2198:	01000002 	tsteq	r0, r2
    219c:	02b45e00 	adcseq	r5, r4, #0, 28
    21a0:	02c00000 	sbceq	r0, r0, #0, 0
    21a4:	00040000 	andeq	r0, r4, r0
    21a8:	9f7fa091 	svcls	0x007fa091
    21ac:	000002c0 	andeq	r0, r0, r0, asr #5
    21b0:	000002cc 	andeq	r0, r0, ip, asr #5
    21b4:	f0520001 			; <UNDEFINED> instruction: 0xf0520001
    21b8:	00000002 	andeq	r0, r0, r2
    21bc:	04000003 	streq	r0, [r0], #-3
    21c0:	7fa09100 	svcvc	0x00a09100
    21c4:	0003009f 	muleq	r3, pc, r0	; <UNPREDICTABLE>
    21c8:	00032800 	andeq	r2, r3, r0, lsl #16
    21cc:	52000100 	andpl	r0, r0, #0
	...
    21d8:	01000004 	tsteq	r0, r4
    21dc:	03010101 	movweq	r0, #4353	; 0x1101
    21e0:	01040203 	tsteq	r4, r3, lsl #4
    21e4:	00000000 	andeq	r0, r0, r0
    21e8:	00000004 	andeq	r0, r0, r4
    21ec:	000000a4 	andeq	r0, r0, r4, lsr #1
    21f0:	000000b0 	strheq	r0, [r0], -r0	; <UNPREDICTABLE>
    21f4:	0c5e0001 	mrrceq	0, 0, r0, lr, cr1
    21f8:	0c000001 	stceq	0, cr0, [r0], {1}
    21fc:	01000001 	tsteq	r0, r1
    2200:	010c5500 	tsteq	ip, r0, lsl #10
    2204:	01200000 			; <UNDEFINED> instruction: 0x01200000
    2208:	00030000 	andeq	r0, r3, r0
    220c:	209f0175 	addscs	r0, pc, r5, ror r1	; <UNPREDICTABLE>
    2210:	2c000001 	stccs	0, cr0, [r0], {1}
    2214:	03000001 	movweq	r0, #1
    2218:	9f027500 	svcls	0x00027500
    221c:	0000012c 	andeq	r0, r0, ip, lsr #2
    2220:	00000130 	andeq	r0, r0, r0, lsr r1
    2224:	03750003 	cmneq	r5, #3, 0
    2228:	00027c9f 	muleq	r2, pc, ip	; <UNPREDICTABLE>
    222c:	00029c00 	andeq	r9, r2, r0, lsl #24
    2230:	91000400 	tstls	r0, r0, lsl #8
    2234:	c09f7fa1 	addsgt	r7, pc, r1, lsr #31
    2238:	c8000002 	stmdagt	r0, {r1}
    223c:	01000002 	tsteq	r0, r2
    2240:	02c85e00 	sbceq	r5, r8, #0, 28
    2244:	02cc0000 	sbceq	r0, ip, #0, 0
    2248:	00010000 	andeq	r0, r1, r0
    224c:	0002f056 	andeq	pc, r2, r6, asr r0	; <UNPREDICTABLE>
    2250:	0002fc00 	andeq	pc, r2, r0, lsl #24
    2254:	91000400 	tstls	r0, r0, lsl #8
    2258:	fc9f7fa1 	ldc2	15, cr7, [pc], {161}	; 0xa1
    225c:	28000002 	stmdacs	r0, {r1}
    2260:	01000003 	tsteq	r0, r3
    2264:	00005e00 	andeq	r5, r0, r0, lsl #28
	...
    2270:	01010100 	mrseq	r0, (UNDEF: 17)
    2274:	02010101 	andeq	r0, r1, #1073741824	; 0x40000000
    2278:	00000106 	andeq	r0, r0, r6, lsl #2
    227c:	00a80006 	adceq	r0, r8, r6
    2280:	00b00000 	adcseq	r0, r0, r0
    2284:	00010000 	andeq	r0, r1, r0
    2288:	00010c51 	andeq	r0, r1, r1, asr ip
    228c:	00011c00 	andeq	r1, r1, r0, lsl #24
    2290:	5c000100 	stfpls	f0, [r0], {-0}
    2294:	0000011c 	andeq	r0, r0, ip, lsl r1
    2298:	0000012c 	andeq	r0, r0, ip, lsr #2
    229c:	2c580001 	mrrccs	0, 0, r0, r8, cr1
    22a0:	30000001 	andcc	r0, r0, r1
    22a4:	01000001 	tsteq	r0, r1
    22a8:	01305c00 	teqeq	r0, r0, lsl #24
    22ac:	01300000 	teqeq	r0, r0
    22b0:	00030000 	andeq	r0, r3, r0
    22b4:	7c9f017c 	ldfvcs	f0, [pc], {124}	; 0x7c
    22b8:	9c000002 	stcls	0, cr0, [r0], {2}
    22bc:	02000002 	andeq	r0, r0, #2, 0
    22c0:	c09f3100 	addsgt	r3, pc, r0, lsl #2
    22c4:	cc000002 	stcgt	0, cr0, [r0], {2}
    22c8:	01000002 	tsteq	r0, r2
    22cc:	02f05100 	rscseq	r5, r0, #0
    22d0:	03280000 			; <UNDEFINED> instruction: 0x03280000
    22d4:	00020000 	andeq	r0, r2, r0
    22d8:	00009f31 	andeq	r9, r0, r1, lsr pc
    22dc:	00000000 	andeq	r0, r0, r0
    22e0:	06010000 	streq	r0, [r1], -r0
    22e4:	00010106 	andeq	r0, r1, r6, lsl #2
    22e8:	015c0100 	cmpeq	ip, r0, lsl #2
    22ec:	015c0000 	cmpeq	ip, r0
    22f0:	00040000 	andeq	r0, r4, r0
    22f4:	9f7fa091 	svcls	0x007fa091
    22f8:	0000015c 	andeq	r0, r0, ip, asr r1
    22fc:	0000018c 	andeq	r0, r0, ip, lsl #3
    2300:	9c520001 	mrrcls	0, 0, r0, r2, cr1
    2304:	a0000002 	andge	r0, r0, r2
    2308:	01000002 	tsteq	r0, r2
    230c:	02a05e00 	adceq	r5, r0, #0, 28
    2310:	02ac0000 	adceq	r0, ip, #0, 0
    2314:	00010000 	andeq	r0, r1, r0
    2318:	00000052 	andeq	r0, r0, r2, asr r0
	...
    2324:	01000101 	tsteq	r0, r1, lsl #2
    2328:	00016c07 	andeq	r6, r1, r7, lsl #24
    232c:	00017000 	andeq	r7, r1, r0
    2330:	73000300 	movwvc	r0, #768	; 0x300
    2334:	01709f7f 	cmneq	r0, pc, ror pc
    2338:	01780000 	cmneq	r8, r0
    233c:	00010000 	andeq	r0, r1, r0
    2340:	00017853 	andeq	r7, r1, r3, asr r8
    2344:	00018400 	andeq	r8, r1, r0, lsl #8
    2348:	73000300 	movwvc	r0, #768	; 0x300
    234c:	029c9f7f 	addseq	r9, ip, #508	; 0x1fc
    2350:	029c0000 	addseq	r0, ip, #0, 0
    2354:	00040000 	andeq	r0, r4, r0
    2358:	9f7fa191 	svcls	0x007fa191
	...
    2364:	01010101 	tsteq	r1, r1, lsl #2
    2368:	0000015c 	andeq	r0, r0, ip, asr r1
    236c:	0000018c 	andeq	r0, r0, ip, lsl #3
    2370:	80080003 	andhi	r0, r8, r3
    2374:	00029c9f 	muleq	r2, pc, ip	; <UNPREDICTABLE>
    2378:	0002ac00 	andeq	sl, r2, r0, lsl #24
    237c:	08000300 	stmdaeq	r0, {r8, r9}
    2380:	00009f80 	andeq	r9, r0, r0, lsl #31
    2384:	00000000 	andeq	r0, r0, r0
    2388:	00010000 	andeq	r0, r1, r0
    238c:	00010100 	andeq	r0, r1, r0, lsl #2
    2390:	01010100 	mrseq	r0, (UNDEF: 17)
    2394:	01010101 	tsteq	r1, r1, lsl #2
    2398:	0000015c 	andeq	r0, r0, ip, asr r1
    239c:	0000016c 	andeq	r0, r0, ip, ror #2
    23a0:	6c500001 	mrrcvs	0, 0, r0, r0, cr1	; <UNPREDICTABLE>
    23a4:	6c000001 	stcvs	0, cr0, [r0], {1}
    23a8:	03000001 	movweq	r0, #1
    23ac:	9f017c00 	svcls	0x00017c00
    23b0:	0000016c 	andeq	r0, r0, ip, ror #2
    23b4:	00000178 	andeq	r0, r0, r8, ror r1
    23b8:	027c0003 	rsbseq	r0, ip, #3, 0
    23bc:	0001789f 	muleq	r1, pc, r8	; <UNPREDICTABLE>
    23c0:	00018800 	andeq	r8, r1, r0, lsl #16
    23c4:	7c000300 	stcvc	3, cr0, [r0], {-0}
    23c8:	01889f01 	orreq	r9, r8, r1, lsl #30
    23cc:	018c0000 	orreq	r0, ip, r0
    23d0:	00030000 	andeq	r0, r3, r0
    23d4:	9c9f017e 	ldflss	f0, [pc], {126}	; 0x7e
    23d8:	a4000002 	strge	r0, [r0], #-2
    23dc:	01000002 	tsteq	r0, r2
    23e0:	02a45000 	adceq	r5, r4, #0, 0
    23e4:	02ac0000 	adceq	r0, ip, #0, 0
    23e8:	00030000 	andeq	r0, r3, r0
    23ec:	009f017e 	addseq	r0, pc, lr, ror r1	; <UNPREDICTABLE>
    23f0:	00000000 	andeq	r0, r0, r0
    23f4:	04000000 	streq	r0, [r0], #-0
    23f8:	00000400 	andeq	r0, r0, r0, lsl #8
    23fc:	00015c01 	andeq	r5, r1, r1, lsl #24
    2400:	00016000 	andeq	r6, r1, r0
    2404:	71000300 	mrsvc	r0, LR_irq
    2408:	029c9f01 	addseq	r9, ip, #1, 30
    240c:	02a00000 	adceq	r0, r0, #0, 0
    2410:	00020000 	andeq	r0, r2, r0
    2414:	02a09f32 	adceq	r9, r0, #200	; 0xc8
    2418:	02ac0000 	adceq	r0, ip, #0, 0
    241c:	00030000 	andeq	r0, r3, r0
    2420:	009f0171 	addseq	r0, pc, r1, ror r1	; <UNPREDICTABLE>
    2424:	00000000 	andeq	r0, r0, r0
    2428:	07000000 	streq	r0, [r0, -r0]
    242c:	5c000600 	stcpl	6, cr0, [r0], {-0}
    2430:	94000001 	strls	r0, [r0], #-1
    2434:	01000001 	tsteq	r0, r1
    2438:	029c5000 	addseq	r5, ip, #0, 0
    243c:	02b40000 	adcseq	r0, r4, #0, 0
    2440:	00010000 	andeq	r0, r1, r0
    2444:	00000050 	andeq	r0, r0, r0, asr r0
    2448:	00000000 	andeq	r0, r0, r0
    244c:	01010100 	mrseq	r0, (UNDEF: 17)
    2450:	00021400 	andeq	r1, r2, r0, lsl #8
    2454:	00022000 	andeq	r2, r2, r0
    2458:	30000200 	andcc	r0, r0, r0, lsl #4
    245c:	0002209f 	muleq	r2, pc, r0	; <UNPREDICTABLE>
    2460:	00023400 	andeq	r3, r2, r0, lsl #8
    2464:	31000200 	mrscc	r0, R8_usr
    2468:	0000009f 	muleq	r0, pc, r0	; <UNPREDICTABLE>
    246c:	00000000 	andeq	r0, r0, r0
    2470:	01010000 	mrseq	r0, (UNDEF: 1)
    2474:	01010000 	mrseq	r0, (UNDEF: 1)
    2478:	01010000 	mrseq	r0, (UNDEF: 1)
    247c:	01010000 	mrseq	r0, (UNDEF: 1)
    2480:	01010000 	mrseq	r0, (UNDEF: 1)
    2484:	02020000 	andeq	r0, r2, #0, 0
    2488:	00008001 	andeq	r8, r0, r1
    248c:	00008000 	andeq	r8, r0, r0
    2490:	53000100 	movwpl	r0, #256	; 0x100
    2494:	00000080 	andeq	r0, r0, r0, lsl #1
    2498:	0000008c 	andeq	r0, r0, ip, lsl #1
    249c:	04730003 	ldrbteq	r0, [r3], #-3
    24a0:	00008c9f 	muleq	r0, pc, ip	; <UNPREDICTABLE>
    24a4:	00009400 	andeq	r9, r0, r0, lsl #8
    24a8:	51000100 	mrspl	r0, (UNDEF: 16)
    24ac:	00000094 	muleq	r0, r4, r0
    24b0:	00000098 	muleq	r0, r8, r0
    24b4:	08730003 	ldmdaeq	r3!, {r0, r1}^
    24b8:	0000989f 	muleq	r0, pc, r8	; <UNPREDICTABLE>
    24bc:	0000a400 	andeq	sl, r0, r0, lsl #8
    24c0:	51000100 	mrspl	r0, (UNDEF: 16)
    24c4:	000000a4 	andeq	r0, r0, r4, lsr #1
    24c8:	000000a8 	andeq	r0, r0, r8, lsr #1
    24cc:	0c730003 	ldcleq	0, cr0, [r3], #-12
    24d0:	0000a89f 	muleq	r0, pc, r8	; <UNPREDICTABLE>
    24d4:	0000b400 	andeq	fp, r0, r0, lsl #8
    24d8:	51000100 	mrspl	r0, (UNDEF: 16)
    24dc:	000000b4 	strheq	r0, [r0], -r4
    24e0:	000000b8 	strheq	r0, [r0], -r8
    24e4:	10730003 	rsbsne	r0, r3, r3
    24e8:	0000b89f 	muleq	r0, pc, r8	; <UNPREDICTABLE>
    24ec:	0000c400 	andeq	ip, r0, r0, lsl #8
    24f0:	51000100 	mrspl	r0, (UNDEF: 16)
    24f4:	000000c4 	andeq	r0, r0, r4, asr #1
    24f8:	000000c8 	andeq	r0, r0, r8, asr #1
    24fc:	14730003 	ldrbtne	r0, [r3], #-3
    2500:	0000c89f 	muleq	r0, pc, r8	; <UNPREDICTABLE>
    2504:	0000d000 	andeq	sp, r0, r0
    2508:	51000100 	mrspl	r0, (UNDEF: 16)
    250c:	000000d0 	ldrdeq	r0, [r0], -r0	; <UNPREDICTABLE>
    2510:	000000d4 	ldrdeq	r0, [r0], -r4
    2514:	04710003 	ldrbteq	r0, [r1], #-3
    2518:	0000009f 	muleq	r0, pc, r0	; <UNPREDICTABLE>
    251c:	00000000 	andeq	r0, r0, r0
    2520:	08000100 	stmdaeq	r0, {r8}
    2524:	0b000001 	bleq	2530 <__code_start__-0x5ad0>
    2528:	01000001 	tsteq	r0, r1
    252c:	00005100 	andeq	r5, r0, r0, lsl #2
    2530:	00000000 	andeq	r0, r0, r0
    2534:	00020000 	andeq	r0, r2, r0
    2538:	000000d8 	ldrdeq	r0, [r0], -r8
    253c:	00000110 	andeq	r0, r0, r0, lsl r1
    2540:	9f310002 	svcls	0x00310002
	...
    254c:	00e00305 	rsceq	r0, r0, r5, lsl #6
    2550:	00e40000 	rsceq	r0, r4, r0
    2554:	00020000 	andeq	r0, r2, r0
    2558:	00009f30 	andeq	r9, r0, r0, lsr pc
    255c:	00000000 	andeq	r0, r0, r0
    2560:	00010000 	andeq	r0, r1, r0
    2564:	000000e4 	andeq	r0, r0, r4, ror #1
    2568:	000000ef 	andeq	r0, r0, pc, ror #1
    256c:	00530001 	subseq	r0, r3, r1
	...
    2578:	0000e401 	andeq	lr, r0, r1, lsl #8
    257c:	0000ec00 	andeq	lr, r0, r0, lsl #24
    2580:	53000100 	movwpl	r0, #256	; 0x100
	...
    258c:	01000004 	tsteq	r0, r4
    2590:	000000f0 	strdeq	r0, [r0], -r0	; <UNPREDICTABLE>
    2594:	00000104 	andeq	r0, r0, r4, lsl #2
    2598:	9f300002 	svcls	0x00300002
    259c:	00000104 	andeq	r0, r0, r4, lsl #2
    25a0:	00000108 	andeq	r0, r0, r8, lsl #2
    25a4:	00510001 	subseq	r0, r1, r1
    25a8:	00000000 	andeq	r0, r0, r0
    25ac:	01000000 	mrseq	r0, (UNDEF: 0)
    25b0:	0000f400 	andeq	pc, r0, r0, lsl #8
    25b4:	00010b00 	andeq	r0, r1, r0, lsl #22
    25b8:	53000100 	movwpl	r0, #256	; 0x100
	...
    25c4:	00f40100 	rscseq	r0, r4, r0, lsl #2
    25c8:	01080000 	mrseq	r0, (UNDEF: 8)
    25cc:	00010000 	andeq	r0, r1, r0
    25d0:	00000053 	andeq	r0, r0, r3, asr r0
    25d4:	00000000 	andeq	r0, r0, r0
    25d8:	00000400 	andeq	r0, r0, r0, lsl #8
    25dc:	009d7801 	addseq	r7, sp, r1, lsl #16
    25e0:	009d8000 	addseq	r8, sp, r0
    25e4:	30000200 	andcc	r0, r0, r0, lsl #4
    25e8:	009d809f 	umullseq	r8, sp, pc, r0	; <UNPREDICTABLE>
    25ec:	009d8000 	addseq	r8, sp, r0
    25f0:	53000100 	movwpl	r0, #256	; 0x100
	...
    25fc:	00000003 	andeq	r0, r0, r3
    2600:	00000000 	andeq	r0, r0, r0
    2604:	00009d8c 	andeq	r9, r0, ip, lsl #27
    2608:	00009d90 	muleq	r0, r0, sp
    260c:	9f300002 	svcls	0x00300002
    2610:	00009d90 	muleq	r0, r0, sp
    2614:	00009d94 	muleq	r0, r4, sp
    2618:	94530001 	ldrbls	r0, [r3], #-1
    261c:	9800009d 	stmdals	r0, {r0, r2, r3, r4, r7}
    2620:	0500009d 	streq	r0, [r0, #-157]	; 0xffffff63
    2624:	40007300 	andmi	r7, r0, r0, lsl #6
    2628:	9d989f21 	ldcls	15, cr9, [r8, #132]	; 0x84
    262c:	9d9c0000 	ldcls	0, cr0, [ip]
    2630:	00010000 	andeq	r0, r1, r0
    2634:	00000053 	andeq	r0, r0, r3, asr r0
    2638:	00000000 	andeq	r0, r0, r0
    263c:	00000200 	andeq	r0, r0, r0, lsl #4
    2640:	009d4c00 	addseq	r4, sp, r0, lsl #24
    2644:	009d5000 	addseq	r5, sp, r0
    2648:	30000200 	andcc	r0, r0, r0, lsl #4
    264c:	009d509f 	umullseq	r5, sp, pc, r0	; <UNPREDICTABLE>
    2650:	009d5400 	addseq	r5, sp, r0, lsl #8
    2654:	50000100 	andpl	r0, r0, r0, lsl #2
	...
    2660:	00000002 	andeq	r0, r0, r2
    2664:	00000000 	andeq	r0, r0, r0
    2668:	00009d64 	andeq	r9, r0, r4, ror #26
    266c:	00009d68 	andeq	r9, r0, r8, ror #26
    2670:	9f300002 	svcls	0x00300002
    2674:	00009d68 	andeq	r9, r0, r8, ror #26
    2678:	00009d6c 	andeq	r9, r0, ip, ror #26
    267c:	6c530001 	mrrcvs	0, 0, r0, r3, cr1
    2680:	7000009d 	mulvc	r0, sp, r0
    2684:	0500009d 	streq	r0, [r0, #-157]	; 0xffffff63
    2688:	40007300 	andmi	r7, r0, r0, lsl #6
    268c:	9d709f21 	ldclls	15, cr9, [r0, #-132]!	; 0xffffff7c
    2690:	9d780000 	ldclls	0, cr0, [r8, #-0]
    2694:	00010000 	andeq	r0, r1, r0
    2698:	00000053 	andeq	r0, r0, r3, asr r0
	...
    26a4:	0000c800 	andeq	ip, r0, r0, lsl #16
    26a8:	0000d800 	andeq	sp, r0, r0, lsl #16
    26ac:	50000100 	andpl	r0, r0, r0, lsl #2
    26b0:	000000d8 	ldrdeq	r0, [r0], -r8
    26b4:	0000011c 	andeq	r0, r0, ip, lsl r1
    26b8:	01f30004 	mvnseq	r0, r4
    26bc:	00009f50 	andeq	r9, r0, r0, asr pc
    26c0:	00000000 	andeq	r0, r0, r0
    26c4:	00020000 	andeq	r0, r2, r0
    26c8:	00c80000 	sbceq	r0, r8, r0
    26cc:	00d80000 	sbcseq	r0, r8, r0
    26d0:	00070000 	andeq	r0, r7, r0
    26d4:	e80a0070 	stmda	sl, {r4, r5, r6}
    26d8:	d89f1e03 	ldmle	pc, {r0, r1, r9, sl, fp, ip}	; <UNPREDICTABLE>
    26dc:	1c000000 	stcne	0, cr0, [r0], {-0}
    26e0:	08000001 	stmdaeq	r0, {r0}
    26e4:	5001f300 	andpl	pc, r1, r0, lsl #6
    26e8:	1e03e80a 	cdpne	8, 0, cr14, cr3, cr10, {0}
    26ec:	0000009f 	muleq	r0, pc, r0	; <UNPREDICTABLE>
    26f0:	00000000 	andeq	r0, r0, r0
    26f4:	dc000000 	stcle	0, cr0, [r0], {-0}
    26f8:	1c000000 	stcne	0, cr0, [r0], {-0}
    26fc:	01000001 	tsteq	r0, r1
    2700:	00005400 	andeq	r5, r0, r0, lsl #8
    2704:	00000000 	andeq	r0, r0, r0
    2708:	00010000 	andeq	r0, r1, r0
    270c:	000000f0 	strdeq	r0, [r0], -r0	; <UNPREDICTABLE>
    2710:	0000011c 	andeq	r0, r0, ip, lsl r1
    2714:	00560001 	subseq	r0, r6, r1
	...
    2720:	ec000000 	stc	0, cr0, [r0], {-0}
    2724:	ef000000 	svc	0x00000000
    2728:	01000000 	mrseq	r0, (UNDEF: 0)
    272c:	00ef5000 	rsceq	r5, pc, r0
    2730:	011c0000 	tsteq	ip, r0
    2734:	00010000 	andeq	r0, r1, r0
    2738:	00000056 	andeq	r0, r0, r6, asr r0
    273c:	00000000 	andeq	r0, r0, r0
    2740:	04000000 	streq	r0, [r0], #-0
    2744:	0b000001 	bleq	2750 <__code_start__-0x58b0>
    2748:	01000001 	tsteq	r0, r1
    274c:	00005000 	andeq	r5, r0, r0
	...
    2758:	00200000 	eoreq	r0, r0, r0
    275c:	00230000 	eoreq	r0, r3, r0
    2760:	00010000 	andeq	r0, r1, r0
    2764:	00002350 	andeq	r2, r0, r0, asr r3
    2768:	00003000 	andeq	r3, r0, r0
    276c:	54000100 	strpl	r0, [r0], #-256	; 0xffffff00
	...
    277c:	00000030 	andeq	r0, r0, r0, lsr r0
    2780:	0000003b 	andeq	r0, r0, fp, lsr r0
    2784:	3b500001 	blcc	1402790 <__bss_end__+0x13f72c0>
    2788:	78000000 	stmdavc	r0, {}	; <UNPREDICTABLE>
    278c:	01000000 	mrseq	r0, (UNDEF: 0)
    2790:	00005600 	andeq	r5, r0, r0, lsl #12
    2794:	00000000 	andeq	r0, r0, r0
    2798:	00010000 	andeq	r0, r1, r0
    279c:	0000004c 	andeq	r0, r0, ip, asr #32
    27a0:	00000078 	andeq	r0, r0, r8, ror r0
    27a4:	00550001 	subseq	r0, r5, r1
	...
    27b0:	48000000 	stmdami	r0, {}	; <UNPREDICTABLE>
    27b4:	4b000000 	blmi	27bc <__code_start__-0x5844>
    27b8:	01000000 	mrseq	r0, (UNDEF: 0)
    27bc:	004b5000 	subeq	r5, fp, r0
    27c0:	00780000 	rsbseq	r0, r8, r0
    27c4:	00010000 	andeq	r0, r1, r0
    27c8:	00000055 	andeq	r0, r0, r5, asr r0
    27cc:	00000000 	andeq	r0, r0, r0
    27d0:	60000000 	andvs	r0, r0, r0
    27d4:	67000000 	strvs	r0, [r0, -r0]
    27d8:	01000000 	mrseq	r0, (UNDEF: 0)
    27dc:	00005000 	andeq	r5, r0, r0
	...
    27e8:	00780000 	rsbseq	r0, r8, r0
    27ec:	00840000 	addeq	r0, r4, r0
    27f0:	00010000 	andeq	r0, r1, r0
    27f4:	00008450 	andeq	r8, r0, r0, asr r4
    27f8:	0000c800 	andeq	ip, r0, r0, lsl #16
    27fc:	f3000400 	vshl.u8	d0, d0, d0
    2800:	009f5001 	addseq	r5, pc, r1
	...
    280c:	00008800 	andeq	r8, r0, r0, lsl #16
    2810:	0000c800 	andeq	ip, r0, r0, lsl #16
    2814:	54000100 	strpl	r0, [r0], #-256	; 0xffffff00
	...
    2820:	009c0001 	addseq	r0, ip, r1
    2824:	00c80000 	sbceq	r0, r8, r0
    2828:	00010000 	andeq	r0, r1, r0
    282c:	00000056 	andeq	r0, r0, r6, asr r0
	...
    2838:	00009800 	andeq	r9, r0, r0, lsl #16
    283c:	00009b00 	andeq	r9, r0, r0, lsl #22
    2840:	50000100 	andpl	r0, r0, r0, lsl #2
    2844:	0000009b 	muleq	r0, fp, r0
    2848:	000000c8 	andeq	r0, r0, r8, asr #1
    284c:	00560001 	subseq	r0, r6, r1
	...
    2858:	0000b000 	andeq	fp, r0, r0
    285c:	0000b700 	andeq	fp, r0, r0, lsl #14
    2860:	50000100 	andpl	r0, r0, r0, lsl #2
	...
    2870:	00000158 	andeq	r0, r0, r8, asr r1
    2874:	00000163 	andeq	r0, r0, r3, ror #2
    2878:	63500001 	cmpvs	r0, #1, 0
    287c:	88000001 	stmdahi	r0, {r0}
    2880:	01000001 	tsteq	r0, r1
    2884:	00005400 	andeq	r5, r0, r0, lsl #8
	...
    2890:	00000148 	andeq	r0, r0, r8, asr #2
    2894:	00000158 	andeq	r0, r0, r8, asr r1
    2898:	00540001 	subseq	r0, r4, r1
	...
    28a8:	0f000000 	svceq	0x00000000
    28ac:	01000000 	mrseq	r0, (UNDEF: 0)
    28b0:	000f5000 	andeq	r5, pc, r0
    28b4:	00200000 	eoreq	r0, r0, r0
    28b8:	00010000 	andeq	r0, r1, r0
    28bc:	00000054 	andeq	r0, r0, r4, asr r0
	...
    28cc:	00000f00 	andeq	r0, r0, r0, lsl #30
    28d0:	51000100 	mrspl	r0, (UNDEF: 16)
    28d4:	0000000f 	andeq	r0, r0, pc
    28d8:	00000020 	andeq	r0, r0, r0, lsr #32
    28dc:	00550001 	subseq	r0, r5, r1
	...
    28e8:	20000000 	andcs	r0, r0, r0
    28ec:	2f000000 	svccs	0x00000000
    28f0:	01000000 	mrseq	r0, (UNDEF: 0)
    28f4:	002f5000 	eoreq	r5, pc, r0
    28f8:	00400000 	subeq	r0, r0, r0
    28fc:	00010000 	andeq	r0, r1, r0
    2900:	00000054 	andeq	r0, r0, r4, asr r0
	...
    290c:	00002000 	andeq	r2, r0, r0
    2910:	00002f00 	andeq	r2, r0, r0, lsl #30
    2914:	51000100 	mrspl	r0, (UNDEF: 16)
    2918:	0000002f 	andeq	r0, r0, pc, lsr #32
    291c:	00000040 	andeq	r0, r0, r0, asr #32
    2920:	00550001 	subseq	r0, r5, r1
	...
    2930:	00035000 	andeq	r5, r3, r0
    2934:	00039800 	andeq	r9, r3, r0, lsl #16
    2938:	50000100 	andpl	r0, r0, r0, lsl #2
    293c:	00000398 	muleq	r0, r8, r3
    2940:	0000039b 	muleq	r0, fp, r3
    2944:	68910002 	ldmvs	r1, {r1}
    2948:	0000039b 	muleq	r0, fp, r3
    294c:	000003b0 			; <UNDEFINED> instruction: 0x000003b0
    2950:	01f30004 	mvnseq	r0, r4
    2954:	00009f50 	andeq	r9, r0, r0, asr pc
	...
    2970:	02200000 	eoreq	r0, r0, #0, 0
    2974:	027b0000 	rsbseq	r0, fp, #0, 0
    2978:	00010000 	andeq	r0, r1, r0
    297c:	00027b50 	andeq	r7, r2, r0, asr fp
    2980:	00028400 	andeq	r8, r2, r0, lsl #8
    2984:	f3000400 	vshl.u8	d0, d0, d0
    2988:	849f5001 	ldrhi	r5, [pc], #1	; 2990 <__code_start__-0x5670>
    298c:	9c000002 	stcls	0, cr0, [r0], {2}
    2990:	01000002 	tsteq	r0, r2
    2994:	029c5000 	addseq	r5, ip, #0, 0
    2998:	02a40000 	adceq	r0, r4, #0, 0
    299c:	00040000 	andeq	r0, r4, r0
    29a0:	9f5001f3 	svcls	0x005001f3
    29a4:	000002a4 	andeq	r0, r0, r4, lsr #5
    29a8:	000002a7 	andeq	r0, r0, r7, lsr #5
    29ac:	a7500001 	ldrbge	r0, [r0, -r1]
    29b0:	c8000002 	stmdagt	r0, {r1}
    29b4:	04000002 	streq	r0, [r0], #-2
    29b8:	5001f300 	andpl	pc, r1, r0, lsl #6
    29bc:	0002c89f 	muleq	r2, pc, r8	; <UNPREDICTABLE>
    29c0:	0002e000 	andeq	lr, r2, r0
    29c4:	50000100 	andpl	r0, r0, r0, lsl #2
    29c8:	000002e0 	andeq	r0, r0, r0, ror #5
    29cc:	000002e8 	andeq	r0, r0, r8, ror #5
    29d0:	01f30004 	mvnseq	r0, r4
    29d4:	02e89f50 	rsceq	r9, r8, #80, 30	; 0x140
    29d8:	02eb0000 	rsceq	r0, fp, #0, 0
    29dc:	00010000 	andeq	r0, r1, r0
    29e0:	0002eb50 	andeq	lr, r2, r0, asr fp
    29e4:	00033800 	andeq	r3, r3, r0, lsl #16
    29e8:	f3000400 	vshl.u8	d0, d0, d0
    29ec:	009f5001 	addseq	r5, pc, r1
	...
    2a08:	20000000 	andcs	r0, r0, r0
    2a0c:	44000002 	strmi	r0, [r0], #-2
    2a10:	01000002 	tsteq	r0, r2
    2a14:	02445100 	subeq	r5, r4, #0
    2a18:	02680000 	rsbeq	r0, r8, #0, 0
    2a1c:	00010000 	andeq	r0, r1, r0
    2a20:	00026851 	andeq	r6, r2, r1, asr r8
    2a24:	00027b00 	andeq	r7, r2, r0, lsl #22
    2a28:	71000300 	mrsvc	r0, LR_irq
    2a2c:	027b9f01 	rsbseq	r9, fp, #1, 30
    2a30:	02840000 	addeq	r0, r4, #0, 0
    2a34:	00170000 	andseq	r0, r7, r0
    2a38:	5101f338 	tstpl	r1, r8, lsr r3	; <UNPREDICTABLE>
    2a3c:	405101f3 	ldrshmi	r0, [r1], #-19	; 0xffffffed
    2a40:	0c22244b 	cfstrseq	mvf2, [r2], #-300	; 0xfffffed4
    2a44:	80000008 	andhi	r0, r0, r8
    2a48:	0001282d 	andeq	r2, r1, sp, lsr #16
    2a4c:	849f1316 	ldrhi	r1, [pc], #790	; 2a54 <__code_start__-0x55ac>
    2a50:	98000002 	stmdals	r0, {r1}
    2a54:	01000002 	tsteq	r0, r2
    2a58:	02985100 	addseq	r5, r8, #0
    2a5c:	02a40000 	adceq	r0, r4, #0, 0
    2a60:	00040000 	andeq	r0, r4, r0
    2a64:	9f5101f3 	svcls	0x005101f3
    2a68:	000002a4 	andeq	r0, r0, r4, lsr #5
    2a6c:	000002a7 	andeq	r0, r0, r7, lsr #5
    2a70:	a7510001 	ldrbge	r0, [r1, -r1]
    2a74:	c8000002 	stmdagt	r0, {r1}
    2a78:	04000002 	streq	r0, [r0], #-2
    2a7c:	5101f300 	mrspl	pc, SP_irq	; <UNPREDICTABLE>
    2a80:	0002c89f 	muleq	r2, pc, r8	; <UNPREDICTABLE>
    2a84:	0002dc00 	andeq	sp, r2, r0, lsl #24
    2a88:	51000100 	mrspl	r0, (UNDEF: 16)
    2a8c:	000002dc 	ldrdeq	r0, [r0], -ip
    2a90:	00000338 	andeq	r0, r0, r8, lsr r3
    2a94:	f3380017 	vqadd.u64	d0, d8, d7
    2a98:	01f35101 	mvnseq	r5, r1, lsl #2
    2a9c:	244b4051 	strbcs	r4, [fp], #-81	; 0xffffffaf
    2aa0:	00080c22 	andeq	r0, r8, r2, lsr #24
    2aa4:	282d8000 	stmdacs	sp!, {pc}
    2aa8:	13160001 	tstne	r6, #1, 0
    2aac:	0000009f 	muleq	r0, pc, r0	; <UNPREDICTABLE>
	...
    2ac0:	00024c00 	andeq	r4, r2, r0, lsl #24
    2ac4:	00025c00 	andeq	r5, r2, r0, lsl #24
    2ac8:	52000100 	andpl	r0, r0, #0
    2acc:	0000025c 	andeq	r0, r0, ip, asr r2
    2ad0:	00000264 	andeq	r0, r0, r4, ror #4
    2ad4:	90030005 	andls	r0, r3, r5
    2ad8:	640000b0 	strvs	r0, [r0], #-176	; 0xffffff50
    2adc:	7b000002 	blvc	2aec <__code_start__-0x5514>
    2ae0:	01000002 	tsteq	r0, r2
    2ae4:	02c85300 	sbceq	r5, r8, #0, 6
    2ae8:	02d80000 	sbcseq	r0, r8, #0, 0
    2aec:	00010000 	andeq	r0, r1, r0
    2af0:	0002d852 	andeq	sp, r2, r2, asr r8
    2af4:	0002e300 	andeq	lr, r2, r0, lsl #6
    2af8:	03000500 	movweq	r0, #1280	; 0x500
    2afc:	0000b090 	muleq	r0, r0, r0
    2b00:	000002e8 	andeq	r0, r0, r8, ror #5
    2b04:	000002eb 	andeq	r0, r0, fp, ror #5
    2b08:	00530001 	subseq	r0, r3, r1
    2b0c:	00000000 	andeq	r0, r0, r0
    2b10:	04000000 	streq	r0, [r0], #-0
    2b14:	00023000 	andeq	r3, r2, r0
    2b18:	00023400 	andeq	r3, r2, r0, lsl #8
    2b1c:	51000100 	mrspl	r0, (UNDEF: 16)
	...
    2b28:	023c0002 	eorseq	r0, ip, #2, 0
    2b2c:	02440000 	subeq	r0, r4, #0, 0
    2b30:	00020000 	andeq	r0, r2, r0
    2b34:	00009f38 	andeq	r9, r0, r8, lsr pc
    2b38:	00000000 	andeq	r0, r0, r0
    2b3c:	00020000 	andeq	r0, r2, r0
    2b40:	0000023c 	andeq	r0, r0, ip, lsr r2
    2b44:	00000244 	andeq	r0, r0, r4, asr #4
    2b48:	00510001 	subseq	r0, r1, r1
    2b4c:	00000000 	andeq	r0, r0, r0
    2b50:	01000000 	mrseq	r0, (UNDEF: 0)
    2b54:	00000000 	andeq	r0, r0, r0
    2b58:	00024c00 	andeq	r4, r2, r0, lsl #24
    2b5c:	00026400 	andeq	r6, r2, r0, lsl #8
    2b60:	51000100 	mrspl	r0, (UNDEF: 16)
    2b64:	000002c8 	andeq	r0, r0, r8, asr #5
    2b68:	000002dc 	ldrdeq	r0, [r0], -ip
    2b6c:	dc510001 	mrrcle	0, 0, r0, r1, cr1
    2b70:	e8000002 	stmda	r0, {r1}
    2b74:	17000002 	strne	r0, [r0, -r2]
    2b78:	01f33800 	mvnseq	r3, r0, lsl #16
    2b7c:	5101f351 	tstpl	r1, r1, asr r3	; <UNPREDICTABLE>
    2b80:	22244b40 	eorcs	r4, r4, #64, 22	; 0x10000
    2b84:	0000080c 	andeq	r0, r0, ip, lsl #16
    2b88:	01282d80 	smlawbeq	r8, r0, sp, r2
    2b8c:	9f131600 	svcls	0x00131600
	...
    2b98:	00000001 	andeq	r0, r0, r1
    2b9c:	00000000 	andeq	r0, r0, r0
    2ba0:	0000024c 	andeq	r0, r0, ip, asr #4
    2ba4:	0000025c 	andeq	r0, r0, ip, asr r2
    2ba8:	5c520001 	mrrcpl	0, 0, r0, r2, cr1
    2bac:	64000002 	strvs	r0, [r0], #-2
    2bb0:	05000002 	streq	r0, [r0, #-2]
    2bb4:	b0900300 	addslt	r0, r0, r0, lsl #6
    2bb8:	02c80000 	sbceq	r0, r8, #0, 0
    2bbc:	02d80000 	sbcseq	r0, r8, #0, 0
    2bc0:	00010000 	andeq	r0, r1, r0
    2bc4:	0002d852 	andeq	sp, r2, r2, asr r8
    2bc8:	0002e300 	andeq	lr, r2, r0, lsl #6
    2bcc:	03000500 	movweq	r0, #1280	; 0x500
    2bd0:	0000b090 	muleq	r0, r0, r0
	...
    2bdc:	024c0004 	subeq	r0, ip, #4, 0
    2be0:	02500000 	subseq	r0, r0, #0, 0
    2be4:	00010000 	andeq	r0, r1, r0
    2be8:	00000051 	andeq	r0, r0, r1, asr r0
    2bec:	00000000 	andeq	r0, r0, r0
    2bf0:	64000300 	strvs	r0, [r0], #-768	; 0xfffffd00
    2bf4:	68000002 	stmdavs	r0, {r1}
    2bf8:	01000002 	tsteq	r0, r2
    2bfc:	00005100 	andeq	r5, r0, r0, lsl #2
    2c00:	00000000 	andeq	r0, r0, r0
    2c04:	00030000 	andeq	r0, r3, r0
    2c08:	00000264 	andeq	r0, r0, r4, ror #4
    2c0c:	00000268 	andeq	r0, r0, r8, ror #4
    2c10:	00530001 	subseq	r0, r3, r1
	...
    2c20:	bc000000 	stclt	0, cr0, [r0], {-0}
    2c24:	d3000001 	movwle	r0, #1
    2c28:	01000001 	tsteq	r0, r1
    2c2c:	01d35000 	bicseq	r5, r3, r0
    2c30:	01f00000 	mvnseq	r0, r0
    2c34:	00010000 	andeq	r0, r1, r0
    2c38:	0001f054 	andeq	pc, r1, r4, asr r0	; <UNPREDICTABLE>
    2c3c:	00020800 	andeq	r0, r2, r0, lsl #16
    2c40:	50000100 	andpl	r0, r0, r0, lsl #2
    2c44:	00000208 	andeq	r0, r0, r8, lsl #4
    2c48:	00000220 	andeq	r0, r0, r0, lsr #4
    2c4c:	00540001 	subseq	r0, r4, r1
	...
    2c58:	d8000000 	stmdale	r0, {}	; <UNPREDICTABLE>
    2c5c:	e3000001 	movw	r0, #1
    2c60:	01000001 	tsteq	r0, r1
    2c64:	01e35000 	mvneq	r5, r0
    2c68:	01f00000 	mvnseq	r0, r0
    2c6c:	00010000 	andeq	r0, r1, r0
    2c70:	00000055 	andeq	r0, r0, r5, asr r0
	...
    2c88:	00012400 	andeq	r2, r1, r0, lsl #8
    2c8c:	00013800 	andeq	r3, r1, r0, lsl #16
    2c90:	50000100 	andpl	r0, r0, r0, lsl #2
    2c94:	00000138 	andeq	r0, r0, r8, lsr r1
    2c98:	0000013c 	andeq	r0, r0, ip, lsr r1
    2c9c:	79700003 	ldmdbvc	r0!, {r0, r1}^
    2ca0:	00013c9f 	muleq	r1, pc, ip	; <UNPREDICTABLE>
    2ca4:	00016000 	andeq	r6, r1, r0
    2ca8:	53000100 	movwpl	r0, #256	; 0x100
    2cac:	00000160 	andeq	r0, r0, r0, ror #2
    2cb0:	00000178 	andeq	r0, r0, r8, ror r1
    2cb4:	78500001 	ldmdavc	r0, {r0}^
    2cb8:	80000001 	andhi	r0, r0, r1
    2cbc:	04000001 	streq	r0, [r0], #-1
    2cc0:	5001f300 	andpl	pc, r1, r0, lsl #6
    2cc4:	0001809f 	muleq	r1, pc, r0	; <UNPREDICTABLE>
    2cc8:	00019000 	andeq	r9, r1, r0
    2ccc:	53000100 	movwpl	r0, #256	; 0x100
    2cd0:	00000190 	muleq	r0, r0, r1
    2cd4:	0000019f 	muleq	r0, pc, r1	; <UNPREDICTABLE>
    2cd8:	68910002 	ldmvs	r1, {r1}
    2cdc:	0000019f 	muleq	r0, pc, r1	; <UNPREDICTABLE>
    2ce0:	000001bc 			; <UNDEFINED> instruction: 0x000001bc
    2ce4:	01f30009 	mvnseq	r0, r9
    2ce8:	09072350 	stmdbeq	r7, {r4, r6, r8, r9, sp}
    2cec:	009f1af8 			; <UNDEFINED> instruction: 0x009f1af8
	...
    2cf8:	44000000 	strmi	r0, [r0], #-0
    2cfc:	60000001 	andvs	r0, r0, r1
    2d00:	01000001 	tsteq	r0, r1
    2d04:	01805000 	orreq	r5, r0, r0
    2d08:	019c0000 	orrseq	r0, ip, r0
    2d0c:	00010000 	andeq	r0, r1, r0
    2d10:	00000050 	andeq	r0, r0, r0, asr r0
    2d14:	00000000 	andeq	r0, r0, r0
    2d18:	34000300 	strcc	r0, [r0], #-768	; 0xfffffd00
    2d1c:	3c000001 	stccc	0, cr0, [r0], {1}
    2d20:	02000001 	andeq	r0, r0, #1, 0
    2d24:	009f3800 	addseq	r3, pc, r0, lsl #16
    2d28:	00000000 	andeq	r0, r0, r0
    2d2c:	03000000 	movweq	r0, #0
    2d30:	34000000 	strcc	r0, [r0], #-0
    2d34:	38000001 	stmdacc	r0, {r0}
    2d38:	01000001 	tsteq	r0, r1
    2d3c:	01385000 	teqeq	r8, r0
    2d40:	013c0000 	teqeq	ip, r0
    2d44:	00030000 	andeq	r0, r3, r0
    2d48:	009f7970 	addseq	r7, pc, r0, ror r9	; <UNPREDICTABLE>
	...
    2d60:	00003000 	andeq	r3, r0, r0
    2d64:	00006000 	andeq	r6, r0, r0
    2d68:	50000100 	andpl	r0, r0, r0, lsl #2
    2d6c:	00000060 	andeq	r0, r0, r0, rrx
    2d70:	0000006c 	andeq	r0, r0, ip, rrx
    2d74:	90030005 	andls	r0, r3, r5
    2d78:	6c0000b0 	stcvs	0, cr0, [r0], {176}	; 0xb0
    2d7c:	84000000 	strhi	r0, [r0], #-0
    2d80:	01000000 	mrseq	r0, (UNDEF: 0)
    2d84:	00845000 	addeq	r5, r4, r0
    2d88:	008c0000 	addeq	r0, ip, r0
    2d8c:	00040000 	andeq	r0, r4, r0
    2d90:	9f5001f3 	svcls	0x005001f3
    2d94:	0000008c 	andeq	r0, r0, ip, lsl #1
    2d98:	000000ac 	andeq	r0, r0, ip, lsr #1
    2d9c:	ac500001 	mrrcge	0, 0, r0, r0, cr1	; <UNPREDICTABLE>
    2da0:	af000000 	svcge	0x00000000
    2da4:	02000000 	andeq	r0, r0, #0, 0
    2da8:	af689100 	svcge	0x00689100
    2dac:	cc000000 	stcgt	0, cr0, [r0], {-0}
    2db0:	04000000 	streq	r0, [r0], #-0
    2db4:	5001f300 	andpl	pc, r1, r0, lsl #6
    2db8:	0000009f 	muleq	r0, pc, r0	; <UNPREDICTABLE>
	...
    2dc8:	00003000 	andeq	r3, r0, r0
    2dcc:	00008000 	andeq	r8, r0, r0
    2dd0:	51000100 	mrspl	r0, (UNDEF: 16)
    2dd4:	00000080 	andeq	r0, r0, r0, lsl #1
    2dd8:	0000008c 	andeq	r0, r0, ip, lsl #1
    2ddc:	01f30004 	mvnseq	r0, r4
    2de0:	008c9f51 	addeq	r9, ip, r1, asr pc
    2de4:	00a80000 	adceq	r0, r8, r0
    2de8:	00010000 	andeq	r0, r1, r0
    2dec:	0000a851 	andeq	sl, r0, r1, asr r8
    2df0:	0000cc00 	andeq	ip, r0, r0, lsl #24
    2df4:	f3000400 	vshl.u8	d0, d0, d0
    2df8:	009f5101 	addseq	r5, pc, r1, lsl #2
    2dfc:	00000000 	andeq	r0, r0, r0
    2e00:	01000000 	mrseq	r0, (UNDEF: 0)
	...
    2e10:	00003800 	andeq	r3, r0, r0, lsl #16
    2e14:	00006000 	andeq	r6, r0, r0
    2e18:	50000100 	andpl	r0, r0, r0, lsl #2
    2e1c:	00000060 	andeq	r0, r0, r0, rrx
    2e20:	0000006c 	andeq	r0, r0, ip, rrx
    2e24:	90030005 	andls	r0, r3, r5
    2e28:	6c0000b0 	stcvs	0, cr0, [r0], {176}	; 0xb0
    2e2c:	84000000 	strhi	r0, [r0], #-0
    2e30:	01000000 	mrseq	r0, (UNDEF: 0)
    2e34:	00845000 	addeq	r5, r4, r0
    2e38:	008c0000 	addeq	r0, ip, r0
    2e3c:	00040000 	andeq	r0, r4, r0
    2e40:	9f5001f3 	svcls	0x005001f3
    2e44:	0000008c 	andeq	r0, r0, ip, lsl #1
    2e48:	000000ac 	andeq	r0, r0, ip, lsr #1
    2e4c:	ac500001 	mrrcge	0, 0, r0, r0, cr1	; <UNPREDICTABLE>
    2e50:	af000000 	svcge	0x00000000
    2e54:	02000000 	andeq	r0, r0, #0, 0
    2e58:	af689100 	svcge	0x00689100
    2e5c:	cc000000 	stcgt	0, cr0, [r0], {-0}
    2e60:	04000000 	streq	r0, [r0], #-0
    2e64:	5001f300 	andpl	pc, r1, r0, lsl #6
    2e68:	0000009f 	muleq	r0, pc, r0	; <UNPREDICTABLE>
	...
    2e74:	70000000 	andvc	r0, r0, r0
    2e78:	7c000001 	stcvc	0, cr0, [r0], {1}
    2e7c:	01000001 	tsteq	r0, r1
    2e80:	017c5000 	cmneq	ip, r0
    2e84:	01880000 	orreq	r0, r8, r0
    2e88:	00010000 	andeq	r0, r1, r0
    2e8c:	00018854 	andeq	r8, r1, r4, asr r8
    2e90:	00019800 	andeq	r9, r1, r0, lsl #16
    2e94:	f3000400 	vshl.u8	d0, d0, d0
    2e98:	009f5001 	addseq	r5, pc, r1
	...
    2eac:	00017800 	andeq	r7, r1, r0, lsl #16
    2eb0:	00017c00 	andeq	r7, r1, r0, lsl #24
    2eb4:	70000b00 	andvc	r0, r0, r0, lsl #22
    2eb8:	23253500 			; <UNDEFINED> instruction: 0x23253500
    2ebc:	818080b4 	strhhi	r8, [r0, r4]
    2ec0:	017c9f02 	cmneq	ip, r2, lsl #30
    2ec4:	01800000 	orreq	r0, r0, r0
    2ec8:	000b0000 	andeq	r0, fp, r0
    2ecc:	25350074 	ldrcs	r0, [r5, #-116]!	; 0xffffff8c
    2ed0:	8080b423 	addhi	fp, r0, r3, lsr #8
    2ed4:	809f0281 	addshi	r0, pc, r1, lsl #5
    2ed8:	83000001 	movwhi	r0, #1
    2edc:	01000001 	tsteq	r0, r1
    2ee0:	01835000 	orreq	r5, r3, r0
    2ee4:	01880000 	orreq	r0, r8, r0
    2ee8:	000b0000 	andeq	r0, fp, r0
    2eec:	25350074 	ldrcs	r0, [r5, #-116]!	; 0xffffff8c
    2ef0:	8080b423 	addhi	fp, r0, r3, lsr #8
    2ef4:	889f0281 	ldmhi	pc, {r0, r7, r9}	; <UNPREDICTABLE>
    2ef8:	98000001 	stmdals	r0, {r0}
    2efc:	0c000001 	stceq	0, cr0, [r0], {1}
    2f00:	5001f300 	andpl	pc, r1, r0, lsl #6
    2f04:	b4232535 	strtlt	r2, [r3], #-1333	; 0xfffffacb
    2f08:	02818080 	addeq	r8, r1, #128, 0	; 0x80
    2f0c:	0000009f 	muleq	r0, pc, r0	; <UNPREDICTABLE>
    2f10:	00000000 	andeq	r0, r0, r0
    2f14:	00000100 	andeq	r0, r0, r0, lsl #2
    2f18:	78000000 	stmdavc	r0, {}	; <UNPREDICTABLE>
    2f1c:	7c000001 	stcvc	0, cr0, [r0], {1}
    2f20:	05000001 	streq	r0, [r0, #-1]
    2f24:	4f007000 	svcmi	0x00007000
    2f28:	017c9f1a 	cmneq	ip, sl, lsl pc
    2f2c:	01880000 	orreq	r0, r8, r0
    2f30:	00050000 	andeq	r0, r5, r0
    2f34:	1a4f0074 	bne	13c310c <__bss_end__+0x13b7c3c>
    2f38:	0001889f 	muleq	r1, pc, r8	; <UNPREDICTABLE>
    2f3c:	00019800 	andeq	r9, r1, r0, lsl #16
    2f40:	54000100 	strpl	r0, [r0], #-256	; 0xffffff00
	...
    2f58:	00000140 	andeq	r0, r0, r0, asr #2
    2f5c:	00000154 	andeq	r0, r0, r4, asr r1
    2f60:	54500001 	ldrbpl	r0, [r0], #-1
    2f64:	58000001 	stmdapl	r0, {r0}
    2f68:	01000001 	tsteq	r0, r1
    2f6c:	01585100 	cmpeq	r8, r0, lsl #2
    2f70:	015c0000 	cmpeq	ip, r0
    2f74:	00040000 	andeq	r0, r4, r0
    2f78:	9f5001f3 	svcls	0x005001f3
    2f7c:	0000015c 	andeq	r0, r0, ip, asr r1
    2f80:	00000160 	andeq	r0, r0, r0, ror #2
    2f84:	60500001 	subsvs	r0, r0, r1
    2f88:	64000001 	strvs	r0, [r0], #-1
    2f8c:	01000001 	tsteq	r0, r1
    2f90:	01645100 	cmneq	r4, r0, lsl #2
    2f94:	01700000 	cmneq	r0, r0
    2f98:	00040000 	andeq	r0, r4, r0
    2f9c:	9f5001f3 	svcls	0x005001f3
	...
    2fac:	00000140 	andeq	r0, r0, r0, asr #2
    2fb0:	0000014c 	andeq	r0, r0, ip, asr #2
    2fb4:	4c510001 	mrrcmi	0, 0, r0, r1, cr1
    2fb8:	70000001 	andvc	r0, r0, r1
    2fbc:	04000001 	streq	r0, [r0], #-1
    2fc0:	5101f300 	mrspl	pc, SP_irq	; <UNPREDICTABLE>
    2fc4:	0000009f 	muleq	r0, pc, r0	; <UNPREDICTABLE>
    2fc8:	00000000 	andeq	r0, r0, r0
    2fcc:	00000100 	andeq	r0, r0, r0, lsl #2
    2fd0:	50000000 	andpl	r0, r0, r0
    2fd4:	54000001 	strpl	r0, [r0], #-1
    2fd8:	01000001 	tsteq	r0, r1
    2fdc:	01545000 	cmpeq	r4, r0
    2fe0:	01580000 	cmpeq	r8, r0
    2fe4:	00010000 	andeq	r0, r1, r0
    2fe8:	00015851 	andeq	r5, r1, r1, asr r8
    2fec:	00015c00 	andeq	r5, r1, r0, lsl #24
    2ff0:	f3000400 	vshl.u8	d0, d0, d0
    2ff4:	009f5001 	addseq	r5, pc, r1
    2ff8:	00000000 	andeq	r0, r0, r0
    2ffc:	02000000 	andeq	r0, r0, #0, 0
    3000:	00000000 	andeq	r0, r0, r0
    3004:	00015c00 	andeq	r5, r1, r0, lsl #24
    3008:	00016000 	andeq	r6, r1, r0
    300c:	50000100 	andpl	r0, r0, r0, lsl #2
    3010:	00000160 	andeq	r0, r0, r0, ror #2
    3014:	00000164 	andeq	r0, r0, r4, ror #2
    3018:	64510001 	ldrbvs	r0, [r1], #-1
    301c:	70000001 	andvc	r0, r0, r1
    3020:	04000001 	streq	r0, [r0], #-1
    3024:	5001f300 	andpl	pc, r1, r0, lsl #6
    3028:	0000009f 	muleq	r0, pc, r0	; <UNPREDICTABLE>
	...
    3034:	e8000000 	stmda	r0, {}	; <UNPREDICTABLE>
    3038:	08000000 	stmdaeq	r0, {}	; <UNPREDICTABLE>
    303c:	01000001 	tsteq	r0, r1
    3040:	01085000 	mrseq	r5, (UNDEF: 8)
    3044:	01280000 			; <UNDEFINED> instruction: 0x01280000
    3048:	00010000 	andeq	r0, r1, r0
    304c:	00012854 	andeq	r2, r1, r4, asr r8
    3050:	00014000 	andeq	r4, r1, r0
    3054:	f3000400 	vshl.u8	d0, d0, d0
    3058:	009f5001 	addseq	r5, pc, r1
    305c:	00000000 	andeq	r0, r0, r0
    3060:	02000000 	andeq	r0, r0, #0, 0
    3064:	00000000 	andeq	r0, r0, r0
    3068:	0000e800 	andeq	lr, r0, r0, lsl #16
    306c:	00010800 	andeq	r0, r1, r0, lsl #16
    3070:	50000100 	andpl	r0, r0, r0, lsl #2
    3074:	00000108 	andeq	r0, r0, r8, lsl #2
    3078:	00000128 	andeq	r0, r0, r8, lsr #2
    307c:	28540001 	ldmdacs	r4, {r0}^
    3080:	40000001 	andmi	r0, r0, r1
    3084:	04000001 	streq	r0, [r0], #-1
    3088:	5001f300 	andpl	pc, r1, r0, lsl #6
    308c:	0000009f 	muleq	r0, pc, r0	; <UNPREDICTABLE>
	...
    3098:	f0000000 			; <UNDEFINED> instruction: 0xf0000000
    309c:	08000000 	stmdaeq	r0, {}	; <UNPREDICTABLE>
    30a0:	01000001 	tsteq	r0, r1
    30a4:	01085000 	mrseq	r5, (UNDEF: 8)
    30a8:	01280000 			; <UNDEFINED> instruction: 0x01280000
    30ac:	00010000 	andeq	r0, r1, r0
    30b0:	00012854 	andeq	r2, r1, r4, asr r8
    30b4:	00014000 	andeq	r4, r1, r0
    30b8:	f3000400 	vshl.u8	d0, d0, d0
    30bc:	009f5001 	addseq	r5, pc, r1
    30c0:	00000000 	andeq	r0, r0, r0
    30c4:	03000000 	movweq	r0, #0
    30c8:	00000000 	andeq	r0, r0, r0
    30cc:	0000f000 	andeq	pc, r0, r0
    30d0:	00010800 	andeq	r0, r1, r0, lsl #16
    30d4:	70000700 	andvc	r0, r0, r0, lsl #14
    30d8:	331d3a00 	tstcc	sp, #0, 20
    30dc:	01089f1e 	tsteq	r8, lr, lsl pc
    30e0:	01280000 			; <UNDEFINED> instruction: 0x01280000
    30e4:	00070000 	andeq	r0, r7, r0
    30e8:	1d3a0074 	ldcne	0, cr0, [sl, #-464]!	; 0xfffffe30
    30ec:	289f1e33 	ldmcs	pc, {r0, r1, r4, r5, r9, sl, fp, ip}	; <UNPREDICTABLE>
    30f0:	40000001 	andmi	r0, r0, r1
    30f4:	08000001 	stmdaeq	r0, {r0}
    30f8:	5001f300 	andpl	pc, r1, r0, lsl #6
    30fc:	1e331d3a 	mrcne	13, 1, r1, cr3, cr10, {1}
    3100:	0000009f 	muleq	r0, pc, r0	; <UNPREDICTABLE>
	...
    310c:	10000000 	andne	r0, r0, r0
    3110:	38000001 	stmdacc	r0, {r0}
    3114:	01000001 	tsteq	r0, r1
    3118:	01385600 	teqeq	r8, r0, lsl #12
    311c:	013b0000 	teqeq	fp, r0
    3120:	00010000 	andeq	r0, r1, r0
    3124:	00013b50 	andeq	r3, r1, r0, asr fp
    3128:	00014000 	andeq	r4, r1, r0
    312c:	f3002600 	vmax.u8	d2, d0, d0
    3130:	2cf75001 	ldclcs	0, cr5, [r7], #4
    3134:	25f425f7 	ldrbcs	r2, [r4, #1527]!	; 0x5f7
    3138:	cccccd08 	stclgt	13, cr12, [ip], {8}
    313c:	000000cc 	andeq	r0, r0, ip, asr #1
    3140:	20081e00 	andcs	r1, r8, r0, lsl #28
    3144:	f72525f7 			; <UNDEFINED> instruction: 0xf72525f7
    3148:	3300f72c 	movwcc	pc, #1836	; 0x72c	; <UNPREDICTABLE>
    314c:	80802325 	addhi	r2, r0, r5, lsr #6
    3150:	243240a0 	ldrtcs	r4, [r2], #-160	; 0xffffff60
    3154:	0000009f 	muleq	r0, pc, r0	; <UNPREDICTABLE>
    3158:	00000000 	andeq	r0, r0, r0
    315c:	01010000 	mrseq	r0, (UNDEF: 1)
    3160:	00000000 	andeq	r0, r0, r0
    3164:	00012000 	andeq	r2, r1, r0
    3168:	00012000 	andeq	r2, r1, r0
    316c:	50000100 	andpl	r0, r0, r0, lsl #2
    3170:	00000120 	andeq	r0, r0, r0, lsr #2
    3174:	00000128 	andeq	r0, r0, r8, lsr #2
    3178:	7437000d 	ldrtvc	r0, [r7], #-13
    317c:	331d3a00 	tstcc	sp, #0, 20
    3180:	7020241e 	eorvc	r2, r0, lr, lsl r4
    3184:	289f1a00 	ldmcs	pc, {r9, fp, ip}	; <UNPREDICTABLE>
    3188:	30000001 	andcc	r0, r0, r1
    318c:	0e000001 	cdpeq	0, 0, cr0, cr0, cr1, {0}
    3190:	01f33700 	mvnseq	r3, r0, lsl #14
    3194:	331d3a50 	tstcc	sp, #80, 20	; 0x50000
    3198:	7020241e 	eorvc	r2, r0, lr, lsl r4
    319c:	309f1a00 	addscc	r1, pc, r0, lsl #20
    31a0:	3b000001 	blcc	31ac <__code_start__-0x4e54>
    31a4:	0e000001 	cdpeq	0, 0, cr0, cr0, cr1, {0}
    31a8:	01f33700 	mvnseq	r3, r0, lsl #14
    31ac:	331d3a50 	tstcc	sp, #80, 20	; 0x50000
    31b0:	7320241e 			; <UNDEFINED> instruction: 0x7320241e
    31b4:	009f1a00 	addseq	r1, pc, r0, lsl #20
	...
    31c0:	60000000 	andvs	r0, r0, r0
    31c4:	90000000 	andls	r0, r0, r0
    31c8:	01000000 	mrseq	r0, (UNDEF: 0)
    31cc:	00905000 	addseq	r5, r0, r0
    31d0:	00b80000 	adcseq	r0, r8, r0
    31d4:	00040000 	andeq	r0, r4, r0
    31d8:	9f5001f3 	svcls	0x005001f3
	...
    31e4:	00000002 	andeq	r0, r0, r2
    31e8:	00000060 	andeq	r0, r0, r0, rrx
    31ec:	00000090 	muleq	r0, r0, r0
    31f0:	90500001 	subsls	r0, r0, r1
    31f4:	b8000000 	stmdalt	r0, {}	; <UNPREDICTABLE>
    31f8:	04000000 	streq	r0, [r0], #-0
    31fc:	5001f300 	andpl	pc, r1, r0, lsl #6
    3200:	0000009f 	muleq	r0, pc, r0	; <UNPREDICTABLE>
	...
    320c:	00006800 	andeq	r6, r0, r0, lsl #16
    3210:	00009000 	andeq	r9, r0, r0
    3214:	50000100 	andpl	r0, r0, r0, lsl #2
    3218:	00000090 	muleq	r0, r0, r0
    321c:	000000b8 	strheq	r0, [r0], -r8
    3220:	01f30004 	mvnseq	r0, r4
    3224:	00009f50 	andeq	r9, r0, r0, asr pc
	...
    3230:	00a00000 	adceq	r0, r0, r0
    3234:	00b00000 	adcseq	r0, r0, r0
    3238:	00010000 	andeq	r0, r1, r0
    323c:	0000b054 	andeq	fp, r0, r4, asr r0
    3240:	0000b800 	andeq	fp, r0, r0, lsl #16
    3244:	f3002900 	vmls.i8	d2, d0, d0
    3248:	01f35001 	mvnseq	r5, r1
    324c:	f72cf750 			; <UNDEFINED> instruction: 0xf72cf750
    3250:	0825f425 	stmdaeq	r5!, {r0, r2, r5, sl, ip, sp, lr, pc}
    3254:	cccccccd 	stclgt	12, cr12, [ip], {205}	; 0xcd
    3258:	00000000 	andeq	r0, r0, r0
    325c:	f720081e 			; <UNDEFINED> instruction: 0xf720081e
    3260:	2cf72525 	cfldr64cs	mvdx2, [r7], #148	; 0x94
    3264:	253300f7 	ldrcs	r0, [r3, #-247]!	; 0xffffff09
    3268:	24311e35 	ldrtcs	r1, [r1], #-3637	; 0xfffff1cb
    326c:	9f1e331c 	svcls	0x001e331c
	...
    3278:	00000001 	andeq	r0, r0, r1
    327c:	00a00000 	adceq	r0, r0, r0
    3280:	00b00000 	adcseq	r0, r0, r0
    3284:	00010000 	andeq	r0, r1, r0
    3288:	0000b055 	andeq	fp, r0, r5, asr r0
    328c:	0000b300 	andeq	fp, r0, r0, lsl #6
    3290:	50000100 	andpl	r0, r0, r0, lsl #2
    3294:	000000b3 	strheq	r0, [r0], -r3
    3298:	000000b8 	strheq	r0, [r0], -r8
    329c:	01f30026 	mvnseq	r0, r6, lsr #32
    32a0:	f72cf750 			; <UNDEFINED> instruction: 0xf72cf750
    32a4:	0825f425 	stmdaeq	r5!, {r0, r2, r5, sl, ip, sp, lr, pc}
    32a8:	cccccccd 	stclgt	12, cr12, [ip], {205}	; 0xcd
    32ac:	00000000 	andeq	r0, r0, r0
    32b0:	f720081e 			; <UNDEFINED> instruction: 0xf720081e
    32b4:	2cf72525 	cfldr64cs	mvdx2, [r7], #148	; 0x94
    32b8:	253300f7 	ldrcs	r0, [r3, #-247]!	; 0xffffff09
    32bc:	a0808023 	addge	r8, r0, r3, lsr #32
    32c0:	9f243240 	svcls	0x00243240
	...
    32cc:	01000002 	tsteq	r0, r2
    32d0:	00000001 	andeq	r0, r0, r1
    32d4:	000000a0 	andeq	r0, r0, r0, lsr #1
    32d8:	000000a4 	andeq	r0, r0, r4, lsr #1
    32dc:	a4500001 	ldrbge	r0, [r0], #-1
    32e0:	a4000000 	strge	r0, [r0], #-0
    32e4:	01000000 	mrseq	r0, (UNDEF: 0)
    32e8:	00a45300 	adceq	r5, r4, r0, lsl #6
    32ec:	00a80000 	adceq	r0, r8, r0
    32f0:	00080000 	andeq	r0, r8, r0
    32f4:	24007431 	strcs	r7, [r0], #-1073	; 0xfffffbcf
    32f8:	9f210073 	svcls	0x00210073
    32fc:	000000a8 	andeq	r0, r0, r8, lsr #1
    3300:	000000b3 	strheq	r0, [r0], -r3
    3304:	00510001 	subseq	r0, r1, r1
	...
    3314:	3c000000 	stccc	0, cr0, [r0], {-0}
    3318:	01000000 	mrseq	r0, (UNDEF: 0)
    331c:	003c5000 	eorseq	r5, ip, r0
    3320:	00600000 	rsbeq	r0, r0, r0
    3324:	00040000 	andeq	r0, r4, r0
    3328:	9f5001f3 	svcls	0x005001f3
	...
    333c:	0000003f 	andeq	r0, r0, pc, lsr r0
    3340:	3f510001 	svccc	0x00510001
    3344:	60000000 	andvs	r0, r0, r0
    3348:	04000000 	streq	r0, [r0], #-0
    334c:	5101f300 	mrspl	pc, SP_irq	; <UNPREDICTABLE>
    3350:	0000009f 	muleq	r0, pc, r0	; <UNPREDICTABLE>
	...
    335c:	00000800 	andeq	r0, r0, r0, lsl #16
    3360:	00003f00 	andeq	r3, r0, r0, lsl #30
    3364:	51000100 	mrspl	r0, (UNDEF: 16)
    3368:	0000003f 	andeq	r0, r0, pc, lsr r0
    336c:	00000060 	andeq	r0, r0, r0, rrx
    3370:	01f30004 	mvnseq	r0, r4
    3374:	00009f51 	andeq	r9, r0, r1, asr pc
	...
    3380:	00080000 	andeq	r0, r8, r0
    3384:	003c0000 	eorseq	r0, ip, r0
    3388:	00010000 	andeq	r0, r1, r0
    338c:	00003c50 	andeq	r3, r0, r0, asr ip
    3390:	00006000 	andeq	r6, r0, r0
    3394:	f3000400 	vshl.u8	d0, d0, d0
    3398:	009f5001 	addseq	r5, pc, r1
	...
    33a4:	48000000 	stmdami	r0, {}	; <UNPREDICTABLE>
    33a8:	58000000 	stmdapl	r0, {}	; <UNPREDICTABLE>
    33ac:	01000000 	mrseq	r0, (UNDEF: 0)
    33b0:	00585400 	subseq	r5, r8, r0, lsl #8
    33b4:	00600000 	rsbeq	r0, r0, r0
    33b8:	00290000 	eoreq	r0, r9, r0
    33bc:	f35001f3 	vbsl	q8, q8, <illegal reg q9.5>
    33c0:	2cf75001 	ldclcs	0, cr5, [r7], #4
    33c4:	25f425f7 	ldrbcs	r2, [r4, #1527]!	; 0x5f7
    33c8:	cccccd08 	stclgt	13, cr12, [ip], {8}
    33cc:	000000cc 	andeq	r0, r0, ip, asr #1
    33d0:	20081e00 	andcs	r1, r8, r0, lsl #28
    33d4:	f72525f7 			; <UNDEFINED> instruction: 0xf72525f7
    33d8:	3300f72c 	movwcc	pc, #1836	; 0x72c	; <UNPREDICTABLE>
    33dc:	311e3525 	tstcc	lr, r5, lsr #10
    33e0:	1e331c24 	cdpne	12, 3, cr1, cr3, cr4, {1}
    33e4:	0000009f 	muleq	r0, pc, r0	; <UNPREDICTABLE>
    33e8:	00000000 	andeq	r0, r0, r0
    33ec:	00000100 	andeq	r0, r0, r0, lsl #2
    33f0:	48000000 	stmdami	r0, {}	; <UNPREDICTABLE>
    33f4:	58000000 	stmdapl	r0, {}	; <UNPREDICTABLE>
    33f8:	01000000 	mrseq	r0, (UNDEF: 0)
    33fc:	00585600 	subseq	r5, r8, r0, lsl #12
    3400:	005b0000 	subseq	r0, fp, r0
    3404:	00010000 	andeq	r0, r1, r0
    3408:	00005b50 	andeq	r5, r0, r0, asr fp
    340c:	00006000 	andeq	r6, r0, r0
    3410:	f3002600 	vmax.u8	d2, d0, d0
    3414:	2cf75001 	ldclcs	0, cr5, [r7], #4
    3418:	25f425f7 	ldrbcs	r2, [r4, #1527]!	; 0x5f7
    341c:	cccccd08 	stclgt	13, cr12, [ip], {8}
    3420:	000000cc 	andeq	r0, r0, ip, asr #1
    3424:	20081e00 	andcs	r1, r8, r0, lsl #28
    3428:	f72525f7 			; <UNDEFINED> instruction: 0xf72525f7
    342c:	3300f72c 	movwcc	pc, #1836	; 0x72c	; <UNPREDICTABLE>
    3430:	80802325 	addhi	r2, r0, r5, lsr #6
    3434:	243240a0 	ldrtcs	r4, [r2], #-160	; 0xffffff60
    3438:	0000009f 	muleq	r0, pc, r0	; <UNPREDICTABLE>
    343c:	00000000 	andeq	r0, r0, r0
    3440:	00000200 	andeq	r0, r0, r0, lsl #4
    3444:	00000101 	andeq	r0, r0, r1, lsl #2
    3448:	00004800 	andeq	r4, r0, r0, lsl #16
    344c:	00004c00 	andeq	r4, r0, r0, lsl #24
    3450:	50000100 	andpl	r0, r0, r0, lsl #2
    3454:	0000004c 	andeq	r0, r0, ip, asr #32
    3458:	0000004c 	andeq	r0, r0, ip, asr #32
    345c:	4c510001 	mrrcmi	0, 0, r0, r1, cr1
    3460:	50000000 	andpl	r0, r0, r0
    3464:	0c000000 	stceq	0, cr0, [r0], {-0}
    3468:	08007500 	stmdaeq	r0, {r8, sl, ip, sp, lr}
    346c:	00741aff 	ldrshteq	r1, [r4], #-175	; 0xffffff51
    3470:	21007124 	tstcs	r0, r4, lsr #2
    3474:	0000509f 	muleq	r0, pc, r0	; <UNPREDICTABLE>
    3478:	00005400 	andeq	r5, r0, r0, lsl #8
    347c:	37001200 	strcc	r1, [r0, -r0, lsl #4]
    3480:	20240074 	eorcs	r0, r4, r4, ror r0
    3484:	751a0070 	ldrvc	r0, [sl, #-112]	; 0xffffff90
    3488:	1aff0800 	bne	fffc5490 <__bss_end__+0xfffb9fc0>
    348c:	21240074 			; <UNDEFINED> instruction: 0x21240074
    3490:	0000009f 	muleq	r0, pc, r0	; <UNPREDICTABLE>
	...
    349c:	b8000000 	stmdalt	r0, {}	; <UNPREDICTABLE>
    34a0:	c4000000 	strgt	r0, [r0], #-0
    34a4:	01000000 	mrseq	r0, (UNDEF: 0)
    34a8:	00c45000 	sbceq	r5, r4, r0
    34ac:	00cb0000 	sbceq	r0, fp, r0
    34b0:	00010000 	andeq	r0, r1, r0
    34b4:	0000cb53 	andeq	ip, r0, r3, asr fp
    34b8:	0000d000 	andeq	sp, r0, r0
    34bc:	f3000400 	vshl.u8	d0, d0, d0
    34c0:	009f5001 	addseq	r5, pc, r1
	...
    34d0:	0000d000 	andeq	sp, r0, r0
    34d4:	0000dc00 	andeq	sp, r0, r0, lsl #24
    34d8:	50000100 	andpl	r0, r0, r0, lsl #2
    34dc:	000000dc 	ldrdeq	r0, [r0], -ip
    34e0:	000000e3 	andeq	r0, r0, r3, ror #1
    34e4:	e3530001 	cmp	r3, #1, 0
    34e8:	e8000000 	stmda	r0, {}	; <UNPREDICTABLE>
    34ec:	04000000 	streq	r0, [r0], #-0
    34f0:	5001f300 	andpl	pc, r1, r0, lsl #6
    34f4:	0000009f 	muleq	r0, pc, r0	; <UNPREDICTABLE>
	...
    3504:	00000b00 	andeq	r0, r0, r0, lsl #22
    3508:	50000100 	andpl	r0, r0, r0, lsl #2
    350c:	0000000b 	andeq	r0, r0, fp
    3510:	00000014 	andeq	r0, r0, r4, lsl r0
    3514:	00540001 	subseq	r0, r4, r1
	...
    3524:	18000000 	stmdane	r0, {}	; <UNPREDICTABLE>
    3528:	01000000 	mrseq	r0, (UNDEF: 0)
    352c:	00185100 	andseq	r5, r8, r0, lsl #2
    3530:	002c0000 	eoreq	r0, ip, r0
    3534:	00040000 	andeq	r0, r4, r0
    3538:	9f5101f3 	svcls	0x005101f3
	...
    3544:	00000002 	andeq	r0, r0, r2
    3548:	00000000 	andeq	r0, r0, r0
    354c:	00010100 	andeq	r0, r1, r0, lsl #2
    3550:	00000000 	andeq	r0, r0, r0
    3554:	00040000 	andeq	r0, r4, r0
    3558:	00010000 	andeq	r0, r1, r0
    355c:	00000450 	andeq	r0, r0, r0, asr r4
    3560:	00000800 	andeq	r0, r0, r0, lsl #16
    3564:	52000100 	andpl	r0, r0, #0
    3568:	00000008 	andeq	r0, r0, r8
    356c:	0000000c 	andeq	r0, r0, ip
    3570:	01720003 	cmneq	r2, r3
    3574:	00000c9f 	muleq	r0, pc, ip	; <UNPREDICTABLE>
    3578:	00001800 	andeq	r1, r0, r0, lsl #16
    357c:	52000100 	andpl	r0, r0, #0
    3580:	00000018 	andeq	r0, r0, r8, lsl r0
    3584:	0000001c 	andeq	r0, r0, ip, lsl r0
    3588:	1c530001 	mrrcne	0, 0, r0, r3, cr1
    358c:	24000000 	strcs	r0, [r0], #-0
    3590:	03000000 	movweq	r0, #0
    3594:	9f017300 	svcls	0x00017300
    3598:	00000024 	andeq	r0, r0, r4, lsr #32
    359c:	0000002c 	andeq	r0, r0, ip, lsr #32
    35a0:	00530001 	subseq	r0, r3, r1
    35a4:	00000000 	andeq	r0, r0, r0
    35a8:	03000000 	movweq	r0, #0
    35ac:	00000202 	andeq	r0, r0, r2, lsl #4
    35b0:	00000000 	andeq	r0, r0, r0
    35b4:	00001800 	andeq	r1, r0, r0, lsl #16
    35b8:	51000100 	mrspl	r0, (UNDEF: 16)
    35bc:	00000018 	andeq	r0, r0, r8, lsl r0
    35c0:	0000001c 	andeq	r0, r0, ip, lsl r0
    35c4:	01710003 	cmneq	r1, r3
    35c8:	00001c9f 	muleq	r0, pc, ip	; <UNPREDICTABLE>
    35cc:	00002c00 	andeq	r2, r0, r0, lsl #24
    35d0:	51000100 	mrspl	r0, (UNDEF: 16)
	...
    35e0:	00080000 	andeq	r0, r8, r0
    35e4:	000c0000 	andeq	r0, ip, r0
    35e8:	00020000 	andeq	r0, r2, r0
    35ec:	000c0072 	andeq	r0, ip, r2, ror r0
    35f0:	00180000 	andseq	r0, r8, r0
    35f4:	00020000 	andeq	r0, r2, r0
    35f8:	001c0073 	andseq	r0, ip, r3, ror r0
    35fc:	002c0000 	eoreq	r0, ip, r0
    3600:	00010000 	andeq	r0, r1, r0
    3604:	00000052 	andeq	r0, r0, r2, asr r0
	...
    361c:	00001400 	andeq	r1, r0, r0, lsl #8
    3620:	50000100 	andpl	r0, r0, r0, lsl #2
    3624:	00000014 	andeq	r0, r0, r4, lsl r0
    3628:	00000018 	andeq	r0, r0, r8, lsl r0
    362c:	01700003 	cmneq	r0, r3
    3630:	0000189f 	muleq	r0, pc, r8	; <UNPREDICTABLE>
    3634:	00002000 	andeq	r2, r0, r0
    3638:	50000100 	andpl	r0, r0, r0, lsl #2
    363c:	00000024 	andeq	r0, r0, r4, lsr #32
    3640:	00000028 	andeq	r0, r0, r8, lsr #32
    3644:	28500001 	ldmdacs	r0, {r0}^
    3648:	30000000 	andcc	r0, r0, r0
    364c:	03000000 	movweq	r0, #0
    3650:	9f017000 	svcls	0x00017000
    3654:	00000038 	andeq	r0, r0, r8, lsr r0
    3658:	00000040 	andeq	r0, r0, r0, asr #32
    365c:	00500001 	subseq	r0, r0, r1
	...
    3670:	00002400 	andeq	r2, r0, r0, lsl #8
    3674:	51000100 	mrspl	r0, (UNDEF: 16)
    3678:	00000024 	andeq	r0, r0, r4, lsr #32
    367c:	00000028 	andeq	r0, r0, r8, lsr #32
    3680:	285c0001 	ldmdacs	ip, {r0}^
    3684:	44000000 	strmi	r0, [r0], #-0
    3688:	01000000 	mrseq	r0, (UNDEF: 0)
    368c:	00005100 	andeq	r5, r0, r0, lsl #2
    3690:	00000000 	andeq	r0, r0, r0
    3694:	02000000 	andeq	r0, r0, #0, 0
    3698:	00000002 	andeq	r0, r0, r2
    369c:	00000000 	andeq	r0, r0, r0
    36a0:	00000004 	andeq	r0, r0, r4
    36a4:	04510001 	ldrbeq	r0, [r1], #-1
    36a8:	08000000 	stmdaeq	r0, {}	; <UNPREDICTABLE>
    36ac:	03000000 	movweq	r0, #0
    36b0:	9f017100 	svcls	0x00017100
    36b4:	00000008 	andeq	r0, r0, r8
    36b8:	00000018 	andeq	r0, r0, r8, lsl r0
    36bc:	00510001 	subseq	r0, r1, r1
    36c0:	00000000 	andeq	r0, r0, r0
    36c4:	02000000 	andeq	r0, r0, #0, 0
    36c8:	00000000 	andeq	r0, r0, r0
    36cc:	00000400 	andeq	r0, r0, r0, lsl #8
    36d0:	50000100 	andpl	r0, r0, r0, lsl #2
	...
    36e4:	00000008 	andeq	r0, r0, r8
    36e8:	08500001 	ldmdaeq	r0, {r0}^
    36ec:	30000000 	andcc	r0, r0, r0
    36f0:	04000000 	streq	r0, [r0], #-0
    36f4:	5001f300 	andpl	pc, r1, r0, lsl #6
    36f8:	0000009f 	muleq	r0, pc, r0	; <UNPREDICTABLE>
	...
    3708:	00000800 	andeq	r0, r0, r0, lsl #16
    370c:	51000100 	mrspl	r0, (UNDEF: 16)
    3710:	00000008 	andeq	r0, r0, r8
    3714:	00000030 	andeq	r0, r0, r0, lsr r0
    3718:	01f30004 	mvnseq	r0, r4
    371c:	00009f51 	andeq	r9, r0, r1, asr pc
	...
    372c:	00020201 	andeq	r0, r2, r1, lsl #4
    3730:	00000000 	andeq	r0, r0, r0
    3734:	00000004 	andeq	r0, r0, r4
    3738:	04520001 	ldrbeq	r0, [r2], #-1
    373c:	08000000 	stmdaeq	r0, {}	; <UNPREDICTABLE>
    3740:	04000000 	streq	r0, [r0], #-0
    3744:	5201f300 	andpl	pc, r1, #0, 6
    3748:	0000089f 	muleq	r0, pc, r8	; <UNPREDICTABLE>
    374c:	00001800 	andeq	r1, r0, r0, lsl #16
    3750:	f3000600 	vmax.u8	d0, d0, d0
    3754:	1c315201 	lfmne	f5, 4, [r1], #-4
    3758:	0000189f 	muleq	r0, pc, r8	; <UNPREDICTABLE>
    375c:	00001800 	andeq	r1, r0, r0, lsl #16
    3760:	f3000400 	vshl.u8	d0, d0, d0
    3764:	189f5201 	ldmne	pc, {r0, r9, ip, lr}	; <UNPREDICTABLE>
    3768:	30000000 	andcc	r0, r0, r0
    376c:	06000000 	streq	r0, [r0], -r0
    3770:	5201f300 	andpl	pc, r1, #0, 6
    3774:	009f1c31 	addseq	r1, pc, r1, lsr ip	; <UNPREDICTABLE>
    3778:	00000000 	andeq	r0, r0, r0
    377c:	02000000 	andeq	r0, r0, #0, 0
    3780:	01000000 	mrseq	r0, (UNDEF: 0)
    3784:	00000000 	andeq	r0, r0, r0
    3788:	0c000000 	stceq	0, cr0, [r0], {-0}
    378c:	01000000 	mrseq	r0, (UNDEF: 0)
    3790:	000c5000 	andeq	r5, ip, r0
    3794:	00180000 	andseq	r0, r8, r0
    3798:	00030000 	andeq	r0, r3, r0
    379c:	189f7f70 	ldmne	pc, {r4, r5, r6, r8, r9, sl, fp, ip, sp, lr}	; <UNPREDICTABLE>
    37a0:	24000000 	strcs	r0, [r0], #-0
    37a4:	01000000 	mrseq	r0, (UNDEF: 0)
    37a8:	00285000 	eoreq	r5, r8, r0
    37ac:	002c0000 	eoreq	r0, ip, r0
    37b0:	00030000 	andeq	r0, r3, r0
    37b4:	009f7f70 	addseq	r7, pc, r0, ror pc	; <UNPREDICTABLE>
    37b8:	00000000 	andeq	r0, r0, r0
    37bc:	02000000 	andeq	r0, r0, #0, 0
	...
    37c8:	00000c00 	andeq	r0, r0, r0, lsl #24
    37cc:	51000100 	mrspl	r0, (UNDEF: 16)
    37d0:	0000000c 	andeq	r0, r0, ip
    37d4:	00000010 	andeq	r0, r0, r0, lsl r0
    37d8:	01710003 	cmneq	r1, r3
    37dc:	0000109f 	muleq	r0, pc, r0	; <UNPREDICTABLE>
    37e0:	00003000 	andeq	r3, r0, r0
    37e4:	51000100 	mrspl	r0, (UNDEF: 16)
	...

Disassembly of section .debug_aranges:

00000000 <.debug_aranges>:
   0:	0000001c 	andeq	r0, r0, ip, lsl r0
   4:	00000002 	andeq	r0, r0, r2
   8:	00040000 	andeq	r0, r4, r0
   c:	00000000 	andeq	r0, r0, r0
  10:	00008038 	andeq	r8, r0, r8, lsr r0
  14:	0000018c 	andeq	r0, r0, ip, lsl #3
	...
  20:	0000001c 	andeq	r0, r0, ip, lsl r0
  24:	04490002 	strbeq	r0, [r9], #-2
  28:	00040000 	andeq	r0, r4, r0
  2c:	00000000 	andeq	r0, r0, r0
  30:	000081c4 	andeq	r8, r0, r4, asr #3
  34:	00000434 	andeq	r0, r0, r4, lsr r4
	...
  40:	0000001c 	andeq	r0, r0, ip, lsl r0
  44:	0c9f0002 	ldceq	0, cr0, [pc], {2}
  48:	00040000 	andeq	r0, r4, r0
  4c:	00000000 	andeq	r0, r0, r0
  50:	000085f8 	strdeq	r8, [r0], -r8	; <UNPREDICTABLE>
  54:	00000200 	andeq	r0, r0, r0, lsl #4
	...
  60:	0000001c 	andeq	r0, r0, ip, lsl r0
  64:	0f8f0002 	svceq	0x008f0002
  68:	00040000 	andeq	r0, r4, r0
  6c:	00000000 	andeq	r0, r0, r0
  70:	000087f8 	strdeq	r8, [r0], -r8	; <UNPREDICTABLE>
  74:	00000800 	andeq	r0, r0, r0, lsl #16
	...
  80:	0000001c 	andeq	r0, r0, ip, lsl r0
  84:	1e6c0002 	cdpne	0, 6, cr0, cr12, cr2, {0}
  88:	00040000 	andeq	r0, r4, r0
  8c:	00000000 	andeq	r0, r0, r0
  90:	00009000 	andeq	r9, r0, r0
  94:	000000a0 	andeq	r0, r0, r0, lsr #1
	...
  a0:	0000001c 	andeq	r0, r0, ip, lsl r0
  a4:	20860002 	addcs	r0, r6, r2
  a8:	00040000 	andeq	r0, r4, r0
  ac:	00000000 	andeq	r0, r0, r0
  b0:	000090a0 	andeq	r9, r0, r0, lsr #1
  b4:	00000078 	andeq	r0, r0, r8, ror r0
	...
  c0:	0000001c 	andeq	r0, r0, ip, lsl r0
  c4:	21ca0002 	biccs	r0, sl, r2
  c8:	00040000 	andeq	r0, r4, r0
  cc:	00000000 	andeq	r0, r0, r0
  d0:	00009118 	andeq	r9, r0, r8, lsl r1
  d4:	00000058 	andeq	r0, r0, r8, asr r0
	...
  e0:	0000001c 	andeq	r0, r0, ip, lsl r0
  e4:	236b0002 	cmncs	fp, #2, 0
  e8:	00040000 	andeq	r0, r4, r0
  ec:	00000000 	andeq	r0, r0, r0
  f0:	00009170 	andeq	r9, r0, r0, ror r1
  f4:	00000038 	andeq	r0, r0, r8, lsr r0
	...
 100:	0000001c 	andeq	r0, r0, ip, lsl r0
 104:	24620002 	strbtcs	r0, [r2], #-2
 108:	00040000 	andeq	r0, r4, r0
 10c:	00000000 	andeq	r0, r0, r0
 110:	000091a8 	andeq	r9, r0, r8, lsr #3
 114:	00000098 	muleq	r0, r8, r0
	...
 120:	0000001c 	andeq	r0, r0, ip, lsl r0
 124:	25c60002 	strbcs	r0, [r6, #2]
 128:	00040000 	andeq	r0, r4, r0
 12c:	00000000 	andeq	r0, r0, r0
 130:	00009240 	andeq	r9, r0, r0, asr #4
 134:	000009b4 			; <UNDEFINED> instruction: 0x000009b4
	...
 140:	0000001c 	andeq	r0, r0, ip, lsl r0
 144:	32490002 	subcc	r0, r9, #2, 0
 148:	00040000 	andeq	r0, r4, r0
 14c:	00000000 	andeq	r0, r0, r0
 150:	00009bf4 	strdeq	r9, [r0], -r4
 154:	0000002c 	andeq	r0, r0, ip, lsr #32
	...
 160:	0000001c 	andeq	r0, r0, ip, lsl r0
 164:	337c0002 	cmncc	ip, #2, 0
 168:	00040000 	andeq	r0, r4, r0
 16c:	00000000 	andeq	r0, r0, r0
 170:	00009c20 	andeq	r9, r0, r0, lsr #24
 174:	00000128 	andeq	r0, r0, r8, lsr #2
	...
 180:	0000001c 	andeq	r0, r0, ip, lsl r0
 184:	36310002 	ldrtcc	r0, [r1], -r2
 188:	00040000 	andeq	r0, r4, r0
 18c:	00000000 	andeq	r0, r0, r0
 190:	00009d48 	andeq	r9, r0, r8, asr #26
 194:	00000004 	andeq	r0, r0, r4
	...
 1a0:	0000001c 	andeq	r0, r0, ip, lsl r0
 1a4:	37030002 	strcc	r0, [r3, -r2]
 1a8:	00040000 	andeq	r0, r4, r0
 1ac:	00000000 	andeq	r0, r0, r0
 1b0:	00009d4c 	andeq	r9, r0, ip, asr #26
 1b4:	0000008c 	andeq	r0, r0, ip, lsl #1
	...
 1c0:	0000001c 	andeq	r0, r0, ip, lsl r0
 1c4:	39840002 	stmibcc	r4, {r1}
 1c8:	00040000 	andeq	r0, r4, r0
 1cc:	00000000 	andeq	r0, r0, r0
 1d0:	00009dd8 	ldrdeq	r9, [r0], -r8
 1d4:	0000011c 	andeq	r0, r0, ip, lsl r1
	...
 1e0:	0000001c 	andeq	r0, r0, ip, lsl r0
 1e4:	3ec70002 	cdpcc	0, 12, cr0, cr7, cr2, {0}
 1e8:	00040000 	andeq	r0, r4, r0
 1ec:	00000000 	andeq	r0, r0, r0
 1f0:	00009ef4 	strdeq	r9, [r0], -r4
 1f4:	000001f0 	strdeq	r0, [r0], -r0	; <UNPREDICTABLE>
	...
 200:	0000001c 	andeq	r0, r0, ip, lsl r0
 204:	44980002 	ldrmi	r0, [r8], #2
 208:	00040000 	andeq	r0, r4, r0
 20c:	00000000 	andeq	r0, r0, r0
 210:	0000a0e4 	andeq	sl, r0, r4, ror #1
 214:	000003b0 			; <UNDEFINED> instruction: 0x000003b0
	...
 220:	0000001c 	andeq	r0, r0, ip, lsl r0
 224:	4d850002 	stcmi	0, cr0, [r5, #8]
 228:	00040000 	andeq	r0, r4, r0
 22c:	00000000 	andeq	r0, r0, r0
 230:	0000a494 	muleq	r0, r4, r4
 234:	00000198 	muleq	r0, r8, r1
	...
 240:	0000001c 	andeq	r0, r0, ip, lsl r0
 244:	53fc0002 	mvnspl	r0, #2, 0
 248:	00040000 	andeq	r0, r4, r0
 24c:	00000000 	andeq	r0, r0, r0
 250:	0000a62c 	andeq	sl, r0, ip, lsr #12
 254:	0000003c 	andeq	r0, r0, ip, lsr r0
	...
 260:	0000001c 	andeq	r0, r0, ip, lsl r0
 264:	55490002 	strbpl	r0, [r9, #-2]
 268:	00040000 	andeq	r0, r4, r0
 26c:	00000000 	andeq	r0, r0, r0
 270:	0000a668 	andeq	sl, r0, r8, ror #12
 274:	0000002c 	andeq	r0, r0, ip, lsr #32
	...
 280:	0000001c 	andeq	r0, r0, ip, lsl r0
 284:	56840002 	strpl	r0, [r4], r2
 288:	00040000 	andeq	r0, r4, r0
 28c:	00000000 	andeq	r0, r0, r0
 290:	0000a694 	muleq	r0, r4, r6
 294:	00000044 	andeq	r0, r0, r4, asr #32
	...
 2a0:	0000001c 	andeq	r0, r0, ip, lsl r0
 2a4:	577f0002 	ldrbpl	r0, [pc, -r2]!
 2a8:	00040000 	andeq	r0, r4, r0
 2ac:	00000000 	andeq	r0, r0, r0
 2b0:	0000a6d8 	ldrdeq	sl, [r0], -r8
 2b4:	00000018 	andeq	r0, r0, r8, lsl r0
	...
 2c0:	0000001c 	andeq	r0, r0, ip, lsl r0
 2c4:	58920002 	ldmpl	r2, {r1}
 2c8:	00040000 	andeq	r0, r4, r0
 2cc:	00000000 	andeq	r0, r0, r0
 2d0:	0000a6f0 	strdeq	sl, [r0], -r0
 2d4:	00000030 	andeq	r0, r0, r0, lsr r0
	...
 2e0:	0000001c 	andeq	r0, r0, ip, lsl r0
 2e4:	59e40002 	stmibpl	r4!, {r1}^
 2e8:	00040000 	andeq	r0, r4, r0
 2ec:	00000000 	andeq	r0, r0, r0
 2f0:	0000a720 	andeq	sl, r0, r0, lsr #14
 2f4:	00000004 	andeq	r0, r0, r4
	...

Disassembly of section .debug_line:

00000000 <.debug_line>:
       0:	000001e1 	andeq	r0, r0, r1, ror #3
       4:	00820003 	addeq	r0, r2, r3
       8:	01020000 	mrseq	r0, (UNDEF: 2)
       c:	000d0efb 	strdeq	r0, [sp], -fp
      10:	01010101 	tsteq	r1, r1, lsl #2
      14:	01000000 	mrseq	r0, (UNDEF: 0)
      18:	74010000 	strvc	r0, [r1], #-0
      1c:	73747365 	cmnvc	r4, #-1811939327	; 0x94000001
      20:	302e322d 	eorcc	r3, lr, sp, lsr #4
      24:	2f002e00 	svccs	0x00002e00
      28:	72657355 	rsbvc	r7, r5, #1409286145	; 0x54000001
      2c:	696d2f73 	stmdbvs	sp!, {r0, r1, r4, r5, r6, r8, r9, sl, fp, sp}^
      30:	2f73656c 	svccs	0x0073656c
      34:	72756f53 	rsbsvc	r6, r5, #332	; 0x14c
      38:	632f6563 			; <UNDEFINED> instruction: 0x632f6563
      3c:	30343273 	eorscc	r3, r4, r3, ror r2
      40:	6c2f786c 	stcvs	8, cr7, [pc], #-432	; fffffe98 <__bss_end__+0xffff49c8>
      44:	69706269 	ldmdbvs	r0!, {r0, r3, r5, r6, r9, sp, lr}^
      48:	636e692f 	cmnvs	lr, #770048	; 0xbc000
      4c:	6564756c 	strbvs	r7, [r4, #-1388]!	; 0xfffffa94
      50:	61700000 	cmnvs	r0, r0
      54:	2d317472 	cfldrscs	mvf7, [r1, #-456]!	; 0xfffffe38
      58:	74736574 	ldrbtvc	r6, [r3], #-1396	; 0xfffffa8c
      5c:	75622d36 	strbvc	r2, [r2, #-3382]!	; 0xfffff2ca
      60:	632e7367 			; <UNDEFINED> instruction: 0x632e7367
      64:	00000100 	andeq	r0, r0, r0, lsl #2
      68:	2d637273 	sfmcs	f7, 2, [r3, #-460]!	; 0xfffffe34
      6c:	2e636f6c 	cdpcs	15, 6, cr6, cr3, cr12, {3}
      70:	00020068 	andeq	r0, r2, r8, rrx
      74:	69707200 	ldmdbvs	r0!, {r9, ip, sp, lr}^
      78:	0300682e 	movweq	r6, #2094	; 0x82e
      7c:	6b630000 	blvs	18c0084 <__bss_end__+0x18b4bb4>
      80:	6f6c6c61 	svcvs	0x006c6c61
      84:	00682e63 	rsbeq	r2, r8, r3, ror #28
      88:	00000002 	andeq	r0, r0, r2
      8c:	05001405 	streq	r1, [r0, #-1029]	; 0xfffffbfb
      90:	00804402 	addeq	r4, r0, r2, lsl #8
      94:	05051600 	streq	r1, [r5, #-1536]	; 0xfffffa00
      98:	13134c83 	tstne	r3, #33536	; 0x8300
      9c:	01090514 	tsteq	r9, r4, lsl r5
      a0:	01060d05 	tsteq	r6, r5, lsl #26
      a4:	02001405 	andeq	r1, r0, #83886080	; 0x5000000
      a8:	2e060104 	adfcss	f0, f6, f4
      ac:	02000505 	andeq	r0, r0, #20971520	; 0x1400000
      b0:	01060104 	tsteq	r6, r4, lsl #2
      b4:	02000905 	andeq	r0, r0, #81920	; 0x14000
      b8:	4b060304 	blmi	180cd0 <__bss_end__+0x175800>
      bc:	02001105 	andeq	r1, r0, #1073741825	; 0x40000001
      c0:	01060304 	tsteq	r6, r4, lsl #6
      c4:	02001e05 	andeq	r1, r0, #80	; 0x50
      c8:	052e0304 	streq	r0, [lr, #-772]!	; 0xfffffcfc
      cc:	0402000f 	streq	r0, [r2], #-15
      d0:	09054a03 	stmdbeq	r5, {r0, r1, r9, fp, lr}
      d4:	03040200 	movweq	r0, #16896	; 0x4200
      d8:	02046706 	andeq	r6, r4, #1572864	; 0x180000
      dc:	02000b05 	andeq	r0, r0, #5120	; 0x1400
      e0:	05110304 	ldreq	r0, [r1, #-772]	; 0xfffffcfc
      e4:	04020005 	streq	r0, [r2], #-5
      e8:	0c051303 	stceq	3, cr1, [r5], {3}
      ec:	03040200 	movweq	r0, #16896	; 0x4200
      f0:	02000106 	andeq	r0, r0, #-2147483647	; 0x80000001
      f4:	04ba0304 	ldrteq	r0, [sl], #772	; 0x304
      f8:	00100501 	andseq	r0, r0, r1, lsl #10
      fc:	01030402 	tsteq	r3, r2, lsl #8
     100:	02000e05 	andeq	r0, r0, #80	; 0x50
     104:	05660304 	strbeq	r0, [r6, #-772]!	; 0xfffffcfc
     108:	0402001b 	streq	r0, [r2], #-27	; 0xffffffe5
     10c:	052c0603 	streq	r0, [ip, #-1539]!	; 0xfffff9fd
     110:	0402001c 	streq	r0, [r2], #-28	; 0xffffffe4
     114:	00010603 	andeq	r0, r1, r3, lsl #12
     118:	2e030402 	cdpcs	4, 0, cr0, cr3, cr2, {0}
     11c:	03040200 	movweq	r0, #16896	; 0x4200
     120:	170d052e 	strne	r0, [sp, -lr, lsr #10]
     124:	02001405 	andeq	r1, r0, #83886080	; 0x5000000
     128:	2e060104 	adfcss	f0, f6, f4
     12c:	02000505 	andeq	r0, r0, #20971520	; 0x1400000
     130:	01060104 	tsteq	r6, r4, lsl #2
     134:	02000905 	andeq	r0, r0, #81920	; 0x14000
     138:	4b060304 	blmi	180d50 <__bss_end__+0x175880>
     13c:	0b050204 	bleq	140954 <__bss_end__+0x135484>
     140:	03040200 	movweq	r0, #16896	; 0x4200
     144:	00050545 	andeq	r0, r5, r5, asr #10
     148:	13030402 	movwne	r0, #13314	; 0x3402
     14c:	02000c05 	andeq	r0, r0, #1280	; 0x500
     150:	01060304 	tsteq	r6, r4, lsl #6
     154:	03040200 	movweq	r0, #16896	; 0x4200
     158:	050104ba 	streq	r0, [r1, #-1210]	; 0xfffffb46
     15c:	04020009 	streq	r0, [r2], #-9
     160:	1b051603 	blne	145974 <__bss_end__+0x13a4a4>
     164:	03040200 	movweq	r0, #16896	; 0x4200
     168:	1c058106 	stfned	f0, [r5], {6}
     16c:	03040200 	movweq	r0, #16896	; 0x4200
     170:	02000106 	andeq	r0, r0, #-2147483647	; 0x80000001
     174:	002e0304 	eoreq	r0, lr, r4, lsl #6
     178:	2e030402 	cdpcs	4, 0, cr0, cr3, cr2, {0}
     17c:	15060505 	strne	r0, [r6, #-1285]	; 0xfffffafb
     180:	01060805 	tsteq	r6, r5, lsl #16
     184:	052e0705 	streq	r0, [lr, #-1797]!	; 0xfffff8fb
     188:	144b0609 	strbne	r0, [fp], #-1545	; 0xfffff9f7
     18c:	05054a01 	streq	r4, [r5, #-2561]	; 0xfffff5ff
     190:	060d0514 			; <UNDEFINED> instruction: 0x060d0514
     194:	2e1a0501 	cfmul32cs	mvfx0, mvfx10, mvfx1
     198:	9f060505 	svcls	0x00060505
     19c:	01060b05 	tsteq	r6, r5, lsl #22
     1a0:	0605054a 	streq	r0, [r5], -sl, asr #10
     1a4:	0616052f 	ldreq	r0, [r6], -pc, lsr #10
     1a8:	2e1c0501 	cfmul32cs	mvfx0, mvfx12, mvfx1
     1ac:	052e2905 	streq	r2, [lr, #-2309]!	; 0xfffff6fb
     1b0:	05052e0e 	streq	r2, [r5, #-3598]	; 0xfffff1f2
     1b4:	0c052f06 	stceq	15, cr2, [r5], {6}
     1b8:	05050106 	streq	r0, [r5, #-262]	; 0xfffffefa
     1bc:	82014b06 	andhi	r4, r1, #6144	; 0x1800
     1c0:	06090514 			; <UNDEFINED> instruction: 0x06090514
     1c4:	2e070501 	cfsh32cs	mvfx0, mvfx7, #1
     1c8:	4b060905 	blmi	1825e4 <__bss_end__+0x177114>
     1cc:	054a0114 	strbeq	r0, [sl, #-276]	; 0xfffffeec
     1d0:	05130601 	ldreq	r0, [r3, #-1537]	; 0xfffff9ff
     1d4:	72030609 	andvc	r0, r3, #9437184	; 0x900000
     1d8:	039e014a 	orrseq	r0, lr, #-2147483630	; 0x80000012
     1dc:	9e012e0b 	cdpls	14, 0, cr2, cr1, cr11, {0}
     1e0:	01001402 	tsteq	r0, r2, lsl #8
     1e4:	0003bf01 	andeq	fp, r3, r1, lsl #30
     1e8:	f4000300 	vst2.8	{d0-d3}, [r0], r0
     1ec:	02000000 	andeq	r0, r0, #0, 0
     1f0:	0d0efb01 	vstreq	d15, [lr, #-4]
     1f4:	01010100 	mrseq	r0, (UNDEF: 17)
     1f8:	00000001 	andeq	r0, r0, r1
     1fc:	01000001 	tsteq	r0, r1
     200:	74706f2f 	ldrbtvc	r6, [r0], #-3887	; 0xfffff0d1
     204:	6d6f682f 	stclvs	8, cr6, [pc, #-188]!	; 150 <__code_start__-0x7eb0>
     208:	65726265 	ldrbvs	r6, [r2, #-613]!	; 0xfffffd9b
     20c:	65432f77 	strbvs	r2, [r3, #-3959]	; 0xfffff089
     210:	72616c6c 	rsbvc	r6, r1, #108, 24	; 0x6c00
     214:	6d72612f 	ldfvse	f6, [r2, #-188]!	; 0xffffff44
     218:	6e6f6e2d 	cdpvs	14, 6, cr6, cr15, cr13, {1}
     21c:	61652d65 	cmnvs	r5, r5, ror #26
     220:	392d6962 	pushcc	{r1, r5, r6, r8, fp, sp, lr}
     224:	322d392f 	eorcc	r3, sp, #770048	; 0xbc000
     228:	71393130 	teqvc	r9, r0, lsr r1
     22c:	73632d34 	cmnvc	r3, #52, 26	; 0xd00
     230:	65373031 	ldrvs	r3, [r7, #-49]!	; 0xffffffcf
     234:	62696c2f 	rsbvs	r6, r9, #12032	; 0x2f00
     238:	6363672f 	cmnvs	r3, #12320768	; 0xbc0000
     23c:	6d72612f 	ldfvse	f6, [r2, #-188]!	; 0xffffff44
     240:	6e6f6e2d 	cdpvs	14, 6, cr6, cr15, cr13, {1}
     244:	61652d65 	cmnvs	r5, r5, ror #26
     248:	392f6962 	stmdbcc	pc!, {r1, r5, r6, r8, fp, sp, lr}	; <UNPREDICTABLE>
     24c:	312e322e 			; <UNDEFINED> instruction: 0x312e322e
     250:	636e692f 	cmnvs	lr, #770048	; 0xbc000
     254:	6564756c 	strbvs	r7, [r4, #-1388]!	; 0xfffffa94
     258:	73552f00 	cmpvc	r5, #0, 30
     25c:	2f737265 	svccs	0x00737265
     260:	656c696d 	strbvs	r6, [ip, #-2413]!	; 0xfffff693
     264:	6f532f73 	svcvs	0x00532f73
     268:	65637275 	strbvs	r7, [r3, #-629]!	; 0xfffffd8b
     26c:	3273632f 	rsbscc	r6, r3, #-1140850688	; 0xbc000000
     270:	786c3034 	stmdavc	ip!, {r2, r4, r5, ip, sp}^
     274:	62696c2f 	rsbvs	r6, r9, #12032	; 0x2f00
     278:	692f6970 	stmdbvs	pc!, {r4, r5, r6, r8, fp, sp, lr}	; <UNPREDICTABLE>
     27c:	756c636e 	strbvc	r6, [ip, #-878]!	; 0xfffffc92
     280:	00006564 	andeq	r6, r0, r4, ror #10
     284:	6c616b63 			; <UNDEFINED> instruction: 0x6c616b63
     288:	2e636f6c 	cdpcs	15, 6, cr6, cr3, cr12, {3}
     28c:	00000063 	andeq	r0, r0, r3, rrx
     290:	616b6300 	cmnvs	fp, r0, lsl #6
     294:	636f6c6c 	cmnvs	pc, #108, 24	; 0x6c00
     298:	0000682e 	andeq	r6, r0, lr, lsr #16
     29c:	74730000 	ldrbtvc	r0, [r3], #-0
     2a0:	746e6964 	strbtvc	r6, [lr], #-2404	; 0xfffff69c
     2a4:	6363672d 	cmnvs	r3, #11796480	; 0xb40000
     2a8:	0100682e 	tsteq	r0, lr, lsr #16
     2ac:	70720000 	rsbsvc	r0, r2, r0
     2b0:	00682e69 	rsbeq	r2, r8, r9, ror #28
     2b4:	73000002 	movwvc	r0, #2
     2b8:	6c2d6372 	stcvs	3, cr6, [sp], #-456	; 0xfffffe38
     2bc:	682e636f 	stmdavs	lr!, {r0, r1, r2, r3, r5, r6, r8, r9, sp, lr}
     2c0:	00000000 	andeq	r0, r0, r0
     2c4:	6d2d726b 	sfmvs	f7, 4, [sp, #-428]!	; 0xfffffe54
     2c8:	6f6c6c61 	svcvs	0x006c6c61
     2cc:	00682e63 	rsbeq	r2, r8, r3, ror #28
     2d0:	62000000 	andvs	r0, r0, #0, 0
     2d4:	746b6361 	strbtvc	r6, [fp], #-865	; 0xfffffc9f
     2d8:	65636172 	strbvs	r6, [r3, #-370]!	; 0xfffffe8e
     2dc:	0200682e 	andeq	r6, r0, #3014656	; 0x2e0000
     2e0:	05000000 	streq	r0, [r0, #-0]
     2e4:	02050001 	andeq	r0, r5, #1, 0
     2e8:	000081d8 	ldrdeq	r8, [r0], -r8	; <UNPREDICTABLE>
     2ec:	05010e03 	streq	r0, [r1, #-3587]	; 0xfffff1fd
     2f0:	01056705 	tsteq	r5, r5, lsl #14
     2f4:	f6061306 			; <UNDEFINED> instruction: 0xf6061306
     2f8:	05050106 	streq	r0, [r5, #-262]	; 0xfffffefa
     2fc:	08056706 	stmdaeq	r5, {r1, r2, r8, r9, sl, sp, lr}
     300:	052e0106 	streq	r0, [lr, #-262]!	; 0xfffffefa
     304:	052f0609 	streq	r0, [pc, #-1545]!	; fffffd03 <__bss_end__+0xffff4833>
     308:	05010611 	streq	r0, [r1, #-1553]	; 0xfffff9ef
     30c:	bd063001 	stclt	0, cr3, [r6, #-4]
     310:	05050106 	streq	r0, [r5, #-262]	; 0xfffffefa
     314:	01056706 	tsteq	r5, r6, lsl #14
     318:	062e1306 	strteq	r1, [lr], -r6, lsl #6
     31c:	050106a2 	streq	r0, [r1, #-1698]	; 0xfffff95e
     320:	05830605 	streq	r0, [r3, #1541]	; 0x605
     324:	04010614 	streq	r0, [r1], #-1556	; 0xfffff9ec
     328:	06180502 	ldreq	r0, [r8], -r2, lsl #10
     32c:	052e0e03 	streq	r0, [lr, #-3587]!	; 0xfffff1fd
     330:	0d051305 	stceq	3, cr1, [r5, #-20]	; 0xffffffec
     334:	042e0106 	strteq	r0, [lr], #-262	; 0xfffffefa
     338:	03010501 	movweq	r0, #5377	; 0x1501
     33c:	da060172 	ble	18090c <__bss_end__+0x17543c>
     340:	05050106 	streq	r0, [r5, #-262]	; 0xfffffefa
     344:	11059f06 	tstne	r5, r6, lsl #30
     348:	052e0106 	streq	r0, [lr, #-262]!	; 0xfffffefa
     34c:	052f0605 	streq	r0, [pc, #-1541]!	; fffffd4f <__bss_end__+0xffff487f>
     350:	2e010611 	mcrcs	6, 0, r0, cr1, cr1, {0}
     354:	2f060505 	svccs	0x00060505
     358:	13060105 	movwne	r0, #24837	; 0x6105
     35c:	06290566 	strteq	r0, [r9], -r6, ror #10
     360:	d600d103 	strle	sp, [r0], -r3, lsl #2
     364:	05050106 	streq	r0, [r5, #-262]	; 0xfffffefa
     368:	08056706 	stmdaeq	r5, {r1, r2, r8, r9, sl, sp, lr}
     36c:	24050106 	strcs	r0, [r5], #-262	; 0xfffffefa
     370:	01040200 	mrseq	r0, R12_usr
     374:	06050566 	streq	r0, [r5], -r6, ror #10
     378:	2b051369 	blcs	145124 <__bss_end__+0x139c54>
     37c:	32050106 	andcc	r0, r5, #-2147483647	; 0x80000001
     380:	2e0c052e 	cfsh32cs	mvfx0, mvfx12, #30
     384:	2e2b1005 	cdpcs	0, 2, cr1, cr11, cr5, {0}
     388:	3201052e 	andcc	r0, r1, #192937984	; 0xb800000
     38c:	7fac0306 	svcvc	0x00ac0306
     390:	050106f2 	streq	r0, [r1, #-1778]	; 0xfffff90e
     394:	05670605 	strbeq	r0, [r7, #-1541]!	; 0xfffff9fb
     398:	05010613 	streq	r0, [r1, #-1555]	; 0xfffff9ed
     39c:	052f0605 	streq	r0, [pc, #-1541]!	; fffffd9f <__bss_end__+0xffff48cf>
     3a0:	2e010608 	cfmadd32cs	mvax0, mvfx0, mvfx1, mvfx8
     3a4:	2f060905 	svccs	0x00060905
     3a8:	01061005 	tsteq	r6, r5
     3ac:	10030105 	andne	r0, r3, r5, lsl #2
     3b0:	1c03062e 	stcne	6, cr0, [r3], {46}	; 0x2e
     3b4:	ba010682 	blt	41dc4 <__bss_end__+0x368f4>
     3b8:	2f060505 	svccs	0x00060505
     3bc:	11051313 	tstne	r5, r3, lsl r3
     3c0:	05050106 	streq	r0, [r5, #-262]	; 0xfffffefa
     3c4:	f2016806 	vadd.i8	d6, d1, d6
     3c8:	0a051366 	beq	145168 <__bss_end__+0x139c98>
     3cc:	08050106 	stmdaeq	r5, {r1, r2, r8}
     3d0:	4d0d052e 	cfstr32mi	mvfx0, [sp, #-184]	; 0xffffff48
     3d4:	02001405 	andeq	r1, r0, #83886080	; 0x5000000
     3d8:	2e060104 	adfcss	f0, f6, f4
     3dc:	02000505 	andeq	r0, r0, #20971520	; 0x1400000
     3e0:	01060104 	tsteq	r6, r4, lsl #2
     3e4:	4b060905 	blmi	182800 <__bss_end__+0x177330>
     3e8:	01061305 	tsteq	r6, r5, lsl #6
     3ec:	054a0c05 	strbeq	r0, [sl, #-3077]	; 0xfffff3fb
     3f0:	054b060d 	strbeq	r0, [fp, #-1549]	; 0xfffff9f3
     3f4:	22051409 	andcs	r1, r5, #150994944	; 0x9000000
     3f8:	31050106 	tstcc	r5, r6, lsl #2
     3fc:	2e0d052e 	cfsh32cs	mvfx0, mvfx13, #30
     400:	052e0c05 	streq	r0, [lr, #-3077]!	; 0xfffff3fb
     404:	0402000d 	streq	r0, [r2], #-13
     408:	054b0602 	strbeq	r0, [fp, #-1538]	; 0xfffff9fe
     40c:	04020028 	streq	r0, [r2], #-40	; 0xffffffd8
     410:	29050d02 	stmdbcs	r5, {r1, r8, sl, fp}
     414:	02040200 	andeq	r0, r4, #0, 4
     418:	02000106 	andeq	r0, r0, #-2147483647	; 0x80000001
     41c:	002e0204 	eoreq	r0, lr, r4, lsl #4
     420:	2e020402 	cdpcs	4, 0, cr0, cr2, cr2, {0}
     424:	10060905 	andne	r0, r6, r5, lsl #18
     428:	669e2e01 	ldrvs	r2, [lr], r1, lsl #28
     42c:	01320d05 	teqeq	r2, r5, lsl #26
     430:	314a9e2e 	cmpcc	sl, lr, lsr #28
     434:	4a9e2e01 	bmi	fe78bc40 <__bss_end__+0xfe780770>
     438:	05172e06 	ldreq	r2, [r7, #-3590]	; 0xfffff1fa
     43c:	04020014 	streq	r0, [r2], #-20	; 0xffffffec
     440:	052e0601 	streq	r0, [lr, #-1537]!	; 0xfffff9ff
     444:	04020019 	streq	r0, [r2], #-25	; 0xffffffe7
     448:	05010601 	streq	r0, [r1, #-1537]	; 0xfffff9ff
     44c:	04020005 	streq	r0, [r2], #-5
     450:	09052e01 	stmdbeq	r5, {r0, r9, sl, fp, sp}
     454:	03040200 	movweq	r0, #16896	; 0x4200
     458:	1c052f06 	stcne	15, cr2, [r5], {6}
     45c:	03040200 	movweq	r0, #16896	; 0x4200
     460:	29050106 	stmdbcs	r5, {r1, r2, r8}
     464:	03040200 	movweq	r0, #16896	; 0x4200
     468:	2a054906 	bcs	152888 <__bss_end__+0x1473b8>
     46c:	03040200 	movweq	r0, #16896	; 0x4200
     470:	02000106 	andeq	r0, r0, #-2147483647	; 0x80000001
     474:	002e0304 	eoreq	r0, lr, r4, lsl #6
     478:	2e030402 	cdpcs	4, 0, cr0, cr3, cr2, {0}
     47c:	16060505 	strne	r0, [r6], -r5, lsl #10
     480:	01060e05 	tsteq	r6, r5, lsl #28
     484:	0605052e 	streq	r0, [r5], -lr, lsr #10
     488:	0611052f 	ldreq	r0, [r1], -pc, lsr #10
     48c:	06050501 	streq	r0, [r5], -r1, lsl #10
     490:	01050183 	smlabbeq	r5, r3, r1, r0
     494:	05058606 	streq	r8, [r5, #-1542]	; 0xfffff9fa
     498:	01040200 	mrseq	r0, R12_usr
     49c:	02004606 	andeq	r4, r0, #6291456	; 0x600000
     4a0:	00010104 	andeq	r0, r1, r4, lsl #2
     4a4:	d6010402 	strle	r0, [r1], -r2, lsl #8
     4a8:	12030105 	andne	r0, r3, #1073741825	; 0x40000001
     4ac:	0106ac08 	tsteq	r6, r8, lsl #24
     4b0:	060505ba 			; <UNDEFINED> instruction: 0x060505ba
     4b4:	0610052f 	ldreq	r0, [r0], -pc, lsr #10
     4b8:	06050501 	streq	r0, [r5], -r1, lsl #10
     4bc:	09056969 	stmdbeq	r5, {r0, r3, r5, r6, r8, fp, sp, lr}
     4c0:	060d0501 	streq	r0, [sp], -r1, lsl #10
     4c4:	00140501 	andseq	r0, r4, r1, lsl #10
     4c8:	06010402 	streq	r0, [r1], -r2, lsl #8
     4cc:	0005052e 	andeq	r0, r5, lr, lsr #10
     4d0:	06010402 	streq	r0, [r1], -r2, lsl #8
     4d4:	00090501 	andeq	r0, r9, r1, lsl #10
     4d8:	06030402 	streq	r0, [r3], -r2, lsl #8
     4dc:	0013054b 	andseq	r0, r3, fp, asr #10
     4e0:	06030402 	streq	r0, [r3], -r2, lsl #8
     4e4:	00090501 	andeq	r0, r9, r1, lsl #10
     4e8:	06030402 	streq	r0, [r3], -r2, lsl #8
     4ec:	00260567 	eoreq	r0, r6, r7, ror #10
     4f0:	06030402 	streq	r0, [r3], -r2, lsl #8
     4f4:	002b0501 	eoreq	r0, fp, r1, lsl #10
     4f8:	4a030402 	bmi	c1508 <__bss_end__+0xb6038>
     4fc:	02002805 	andeq	r2, r0, #327680	; 0x50000
     500:	2c060304 	stccs	3, cr0, [r6], {4}
     504:	02002905 	andeq	r2, r0, #81920	; 0x14000
     508:	01060304 	tsteq	r6, r4, lsl #6
     50c:	03040200 	movweq	r0, #16896	; 0x4200
     510:	0402002e 	streq	r0, [r2], #-46	; 0xffffffd2
     514:	05052e03 	streq	r2, [r5, #-3587]	; 0xfffff1fd
     518:	15051706 	strne	r1, [r5, #-1798]	; 0xfffff8fa
     51c:	05050106 	streq	r0, [r5, #-262]	; 0xfffffefa
     520:	0e052f06 	cdpeq	15, 0, cr2, cr5, cr6, {0}
     524:	052e0106 	streq	r0, [lr, #-262]!	; 0xfffffefa
     528:	052f0605 	streq	r0, [pc, #-1541]!	; ffffff2b <__bss_end__+0xffff4a5b>
     52c:	05010612 	streq	r0, [r1, #-1554]	; 0xfffff9ee
     530:	01840605 	orreq	r0, r4, r5, lsl #12
     534:	13149e9e 	tstne	r4, #2528	; 0x9e0
     538:	01090513 	tsteq	r9, r3, lsl r5
     53c:	01060d05 	tsteq	r6, r5, lsl #26
     540:	02001405 	andeq	r1, r0, #83886080	; 0x5000000
     544:	2e060104 	adfcss	f0, f6, f4
     548:	02000505 	andeq	r0, r0, #20971520	; 0x1400000
     54c:	01060104 	tsteq	r6, r4, lsl #2
     550:	02000905 	andeq	r0, r0, #81920	; 0x14000
     554:	4b060304 	blmi	18116c <__bss_end__+0x175c9c>
     558:	02001705 	andeq	r1, r0, #1310720	; 0x140000
     55c:	01060304 	tsteq	r6, r4, lsl #6
     560:	02000905 	andeq	r0, r0, #81920	; 0x14000
     564:	67060304 	strvs	r0, [r6, -r4, lsl #6]
     568:	02000e05 	andeq	r0, r0, #80	; 0x50
     56c:	01060304 	tsteq	r6, r4, lsl #6
     570:	02002005 	andeq	r2, r0, #5, 0
     574:	2c060304 	stccs	3, cr0, [r6], {4}
     578:	02002205 	andeq	r2, r0, #1342177280	; 0x50000000
     57c:	01060304 	tsteq	r6, r4, lsl #6
     580:	03040200 	movweq	r0, #16896	; 0x4200
     584:	0402002e 	streq	r0, [r2], #-46	; 0xffffffd2
     588:	05052e03 	streq	r2, [r5, #-3587]	; 0xfffff1fd
     58c:	0d051706 	stceq	7, cr1, [r5, #-24]	; 0xffffffe8
     590:	05050106 	streq	r0, [r5, #-262]	; 0xfffffefa
     594:	10056706 	andne	r6, r5, r6, lsl #14
     598:	05050106 	streq	r0, [r5, #-262]	; 0xfffffefa
     59c:	01053006 	tsteq	r5, r6
     5a0:	02661406 	rsbeq	r1, r6, #100663296	; 0x6000000
     5a4:	01010006 	tsteq	r1, r6
     5a8:	00000228 	andeq	r0, r0, r8, lsr #4
     5ac:	00640003 	rsbeq	r0, r4, r3
     5b0:	01020000 	mrseq	r0, (UNDEF: 2)
     5b4:	000d0efb 	strdeq	r0, [sp], -fp
     5b8:	01010101 	tsteq	r1, r1, lsl #2
     5bc:	01000000 	mrseq	r0, (UNDEF: 0)
     5c0:	2f010000 	svccs	0x00010000
     5c4:	72657355 	rsbvc	r7, r5, #1409286145	; 0x54000001
     5c8:	696d2f73 	stmdbvs	sp!, {r0, r1, r4, r5, r6, r8, r9, sl, fp, sp}^
     5cc:	2f73656c 	svccs	0x0073656c
     5d0:	72756f53 	rsbsvc	r6, r5, #332	; 0x14c
     5d4:	632f6563 			; <UNDEFINED> instruction: 0x632f6563
     5d8:	30343273 	eorscc	r3, r4, r3, ror r2
     5dc:	6c2f786c 	stcvs	8, cr7, [pc], #-432	; 434 <__code_start__-0x7bcc>
     5e0:	69706269 	ldmdbvs	r0!, {r0, r3, r5, r6, r9, sp, lr}^
     5e4:	636e692f 	cmnvs	lr, #770048	; 0xbc000
     5e8:	6564756c 	strbvs	r7, [r4, #-1388]!	; 0xfffffa94
     5ec:	726b0000 	rsbvc	r0, fp, #0, 0
     5f0:	6c616d2d 	stclvs	13, cr6, [r1], #-180	; 0xffffff4c
     5f4:	2e636f6c 	cdpcs	15, 6, cr6, cr3, cr12, {3}
     5f8:	00000063 	andeq	r0, r0, r3, rrx
     5fc:	69707200 	ldmdbvs	r0!, {r9, ip, sp, lr}^
     600:	0100682e 	tsteq	r0, lr, lsr #16
     604:	726b0000 	rsbvc	r0, fp, #0, 0
     608:	6c616d2d 	stclvs	13, cr6, [r1], #-180	; 0xffffff4c
     60c:	2e636f6c 	cdpcs	15, 6, cr6, cr3, cr12, {3}
     610:	00000068 	andeq	r0, r0, r8, rrx
     614:	01050000 	mrseq	r0, (UNDEF: 5)
     618:	04020500 	streq	r0, [r2], #-1280	; 0xfffffb00
     61c:	03000086 	movweq	r0, #134	; 0x86
     620:	060100d3 			; <UNDEFINED> instruction: 0x060100d3
     624:	06020501 	streq	r0, [r2], -r1, lsl #10
     628:	05051367 	streq	r1, [r5, #-871]	; 0xfffffc99
     62c:	02050106 	andeq	r0, r5, #-2147483647	; 0x80000001
     630:	09052f06 	stmdbeq	r5, {r1, r2, r8, r9, sl, fp, sp}
     634:	02050106 	andeq	r0, r5, #-2147483647	; 0x80000001
     638:	12052e4a 	andne	r2, r5, #1184	; 0x4a0
     63c:	01040200 	mrseq	r0, R12_usr
     640:	02052e06 	andeq	r2, r5, #96	; 0x60
     644:	01040200 	mrseq	r0, R12_usr
     648:	27050106 	strcs	r0, [r5, -r6, lsl #2]
     64c:	03040200 	movweq	r0, #16896	; 0x4200
     650:	0012054a 	andseq	r0, r2, sl, asr #10
     654:	2e030402 	cdpcs	4, 0, cr0, cr3, cr2, {0}
     658:	4b060305 	blmi	181274 <__bss_end__+0x175da4>
     65c:	01061005 	tsteq	r6, r5
     660:	052e0605 	streq	r0, [lr, #-1541]!	; 0xfffff9fb
     664:	04020015 	streq	r0, [r2], #-21	; 0xffffffeb
     668:	20054a01 	andcs	r4, r5, r1, lsl #20
     66c:	02040200 	andeq	r0, r4, #0, 4
     670:	0402004a 	streq	r0, [r2], #-74	; 0xffffffb6
     674:	02054a02 	andeq	r4, r5, #8192	; 0x2000
     678:	10053006 	andne	r3, r5, r6
     67c:	09050106 	stmdbeq	r5, {r1, r2, r8}
     680:	2e1d052e 	cfmul64cs	mvdx0, mvdx13, mvdx14
     684:	052e0505 	streq	r0, [lr, #-1285]!	; 0xfffffafb
     688:	05500603 	ldrbeq	r0, [r0, #-1539]	; 0xfffff9fd
     68c:	0501060d 	streq	r0, [r1, #-1549]	; 0xfffff9f3
     690:	052f0602 	streq	r0, [pc, #-1538]!	; 96 <__code_start__-0x7f6a>
     694:	0501060e 	streq	r0, [r1, #-1550]	; 0xfffff9f2
     698:	05052e08 	streq	r2, [r5, #-3592]	; 0xfffff1f8
     69c:	0603052e 	streq	r0, [r3], -lr, lsr #10
     6a0:	060c0550 			; <UNDEFINED> instruction: 0x060c0550
     6a4:	06020501 	streq	r0, [r2], -r1, lsl #10
     6a8:	0608052f 	streq	r0, [r8], -pc, lsr #10
     6ac:	4b010501 	blmi	41ab8 <__bss_end__+0x365e8>
     6b0:	03060305 	movweq	r0, #25349	; 0x6305
     6b4:	1c052e73 	stcne	14, cr2, [r5], {115}	; 0x73
     6b8:	0e050106 	adfeqs	f0, f5, f6
     6bc:	0603052e 	streq	r0, [r3], -lr, lsr #10
     6c0:	0613054b 	ldreq	r0, [r3], -fp, asr #10
     6c4:	2e1a0501 	cfmul32cs	mvfx0, mvfx10, mvfx1
     6c8:	052e0d05 	streq	r0, [lr, #-3333]!	; 0xfffff2fb
     6cc:	05500603 	ldrbeq	r0, [r0, #-1539]	; 0xfffff9fd
     6d0:	05010615 	streq	r0, [r1, #-1557]	; 0xfffff9eb
     6d4:	03052e0d 	movweq	r2, #24077	; 0x5e0d
     6d8:	13054b06 	movwne	r4, #23302	; 0x5b06
     6dc:	0c050106 	stfeqs	f0, [r5], {6}
     6e0:	0601052e 	streq	r0, [r1], -lr, lsr #10
     6e4:	d67fb903 	ldrbtle	fp, [pc], -r3, lsl #18
     6e8:	02050106 	andeq	r0, r5, #-2147483647	; 0x80000001
     6ec:	05058306 	streq	r8, [r5, #-774]	; 0xfffffcfa
     6f0:	06050106 	streq	r0, [r5], -r6, lsl #2
     6f4:	0602052f 	streq	r0, [r2], -pc, lsr #10
     6f8:	0d05672f 	stceq	7, cr6, [r5, #-188]	; 0xffffff44
     6fc:	02050106 	andeq	r0, r5, #-2147483647	; 0x80000001
     700:	05054b06 	streq	r4, [r5, #-2822]	; 0xfffff4fa
     704:	02050106 	andeq	r0, r5, #-2147483647	; 0x80000001
     708:	05134c06 	ldreq	r4, [r3, #-3078]	; 0xfffff3fa
     70c:	0501060d 	streq	r0, [r1, #-1549]	; 0xfffff9f3
     710:	062f0602 	strteq	r0, [pc], -r2, lsl #12
     714:	052f062e 	streq	r0, [pc, #-1582]!	; ee <__code_start__-0x7f12>
     718:	05010609 	streq	r0, [r1, #-1545]	; 0xfffff9f7
     71c:	0105620a 	tsteq	r5, sl, lsl #4
     720:	06da0633 			; <UNDEFINED> instruction: 0x06da0633
     724:	06020501 	streq	r0, [r2], -r1, lsl #10
     728:	05141367 	ldreq	r1, [r4, #-871]	; 0xfffffc99
     72c:	05010624 	streq	r0, [r1, #-1572]	; 0xfffff9dc
     730:	09052e29 	stmdbeq	r5, {r0, r3, r5, r9, sl, fp, sp}
     734:	0602052e 	streq	r0, [r2], -lr, lsr #10
     738:	060d052f 	streq	r0, [sp], -pc, lsr #10
     73c:	4a050501 	bmi	141b48 <__bss_end__+0x136678>
     740:	50060205 	andpl	r0, r6, r5, lsl #4
     744:	01060905 	tsteq	r6, r5, lsl #18
     748:	0603052e 	streq	r0, [r3], -lr, lsr #10
     74c:	0616052a 	ldreq	r0, [r6], -sl, lsr #10
     750:	4a0e0501 	bmi	381b5c <__bss_end__+0x37668c>
     754:	2f060305 	svccs	0x00060305
     758:	01060f05 	tsteq	r6, r5, lsl #30
     75c:	6d060405 	cfstrsvs	mvf0, [r6, #-20]	; 0xffffffec
     760:	01060705 	tsteq	r6, r5, lsl #14
     764:	34060505 	strcc	r0, [r6], #-1285	; 0xfffffafb
     768:	01060f05 	tsteq	r6, r5, lsl #30
     76c:	4b060505 	blmi	181b88 <__bss_end__+0x1766b8>
     770:	01060705 	tsteq	r6, r5, lsl #14
     774:	2f060505 	svccs	0x00060505
     778:	01060f05 	tsteq	r6, r5, lsl #30
     77c:	30060405 	andcc	r0, r6, r5, lsl #8
     780:	01060a05 	tsteq	r6, r5, lsl #20
     784:	4b060405 	blmi	1817a0 <__bss_end__+0x1762d0>
     788:	01060b05 	tsteq	r6, r5, lsl #22
     78c:	0605052e 	streq	r0, [r5], -lr, lsr #10
     790:	052e7703 	streq	r7, [lr, #-1795]!	; 0xfffff8fd
     794:	05010618 	streq	r0, [r1, #-1560]	; 0xfffff9e8
     798:	1a052e12 	bne	14bfe8 <__bss_end__+0x140b18>
     79c:	4a7a0306 	bmi	1e813bc <__bss_end__+0x1e75eec>
     7a0:	05011805 	streq	r1, [r1, #-2053]	; 0xfffff7fb
     7a4:	05010620 	streq	r0, [r1, #-1568]	; 0xfffff9e0
     7a8:	03052e27 	movweq	r2, #24103	; 0x5e27
     7ac:	0b053006 	bleq	14c7cc <__bss_end__+0x1412fc>
     7b0:	06050106 	streq	r0, [r5], -r6, lsl #2
     7b4:	0603052e 	streq	r0, [r3], -lr, lsr #10
     7b8:	054a0f03 	strbeq	r0, [sl, #-3843]	; 0xfffff0fd
     7bc:	05010609 	streq	r0, [r1, #-1545]	; 0xfffff9f7
     7c0:	04054a06 	streq	r4, [r5], #-2566	; 0xfffff5fa
     7c4:	0d054c06 	stceq	12, cr4, [r5, #-24]	; 0xffffffe8
     7c8:	052e0106 	streq	r0, [lr, #-262]!	; 0xfffffefa
     7cc:	022e2e07 	eoreq	r2, lr, #112	; 0x70
     7d0:	01010006 	tsteq	r1, r6
     7d4:	0000062e 	andeq	r0, r0, lr, lsr #12
     7d8:	00d40003 	sbcseq	r0, r4, r3
     7dc:	01020000 	mrseq	r0, (UNDEF: 2)
     7e0:	000d0efb 	strdeq	r0, [sp], -fp
     7e4:	01010101 	tsteq	r1, r1, lsl #2
     7e8:	01000000 	mrseq	r0, (UNDEF: 0)
     7ec:	2f010000 	svccs	0x00010000
     7f0:	2f74706f 	svccs	0x0074706f
     7f4:	656d6f68 	strbvs	r6, [sp, #-3944]!	; 0xfffff098
     7f8:	77657262 	strbvc	r7, [r5, -r2, ror #4]!
     7fc:	6c65432f 	stclvs	3, cr4, [r5], #-188	; 0xffffff44
     800:	2f72616c 	svccs	0x0072616c
     804:	2d6d7261 	sfmcs	f7, 2, [sp, #-388]!	; 0xfffffe7c
     808:	656e6f6e 	strbvs	r6, [lr, #-3950]!	; 0xfffff092
     80c:	6261652d 	rsbvs	r6, r1, #188743680	; 0xb400000
     810:	2f392d69 	svccs	0x00392d69
     814:	30322d39 	eorscc	r2, r2, r9, lsr sp
     818:	34713931 	ldrbtcc	r3, [r1], #-2353	; 0xfffff6cf
     81c:	3173632d 	cmncc	r3, sp, lsr #6
     820:	2f653730 	svccs	0x00653730
     824:	2f62696c 	svccs	0x0062696c
     828:	2f636367 	svccs	0x00636367
     82c:	2d6d7261 	sfmcs	f7, 2, [sp, #-388]!	; 0xfffffe7c
     830:	656e6f6e 	strbvs	r6, [lr, #-3950]!	; 0xfffff092
     834:	6261652d 	rsbvs	r6, r1, #188743680	; 0xb400000
     838:	2e392f69 	cdpcs	15, 3, cr2, cr9, cr9, {3}
     83c:	2f312e32 	svccs	0x00312e32
     840:	6c636e69 	stclvs	14, cr6, [r3], #-420	; 0xfffffe5c
     844:	00656475 	rsbeq	r6, r5, r5, ror r4
     848:	6573552f 	ldrbvs	r5, [r3, #-1327]!	; 0xfffffad1
     84c:	6d2f7372 	stcvs	3, cr7, [pc, #-456]!	; 68c <__code_start__-0x7974>
     850:	73656c69 	cmnvc	r5, #26880	; 0x6900
     854:	756f532f 	strbvc	r5, [pc, #-815]!	; 52d <__code_start__-0x7ad3>
     858:	2f656372 	svccs	0x00656372
     85c:	34327363 	ldrtcc	r7, [r2], #-867	; 0xfffffc9d
     860:	2f786c30 	svccs	0x00786c30
     864:	7062696c 	rsbvc	r6, r2, ip, ror #18
     868:	6e692f69 	cdpvs	15, 6, cr2, cr9, cr9, {3}
     86c:	64756c63 	ldrbtvs	r6, [r5], #-3171	; 0xfffff39d
     870:	63000065 	movwvs	r0, #101	; 0x65
     874:	63672d6b 	cmnvs	r7, #6848	; 0x1ac0
     878:	0000632e 	andeq	r6, r0, lr, lsr #6
     87c:	72730000 	rsbsvc	r0, r3, #0, 0
     880:	6f6c2d63 	svcvs	0x006c2d63
     884:	00682e63 	rsbeq	r2, r8, r3, ror #28
     888:	73000000 	movwvc	r0, #0
     88c:	6e696474 	mcrvs	4, 3, r6, cr9, cr4, {3}
     890:	63672d74 	cmnvs	r7, #116, 26	; 0x1d00
     894:	00682e63 	rsbeq	r2, r8, r3, ror #28
     898:	72000001 	andvc	r0, r0, #1, 0
     89c:	682e6970 	stmdavs	lr!, {r4, r5, r6, r8, fp, sp, lr}
     8a0:	00000200 	andeq	r0, r0, r0, lsl #4
     8a4:	6c616b63 			; <UNDEFINED> instruction: 0x6c616b63
     8a8:	2e636f6c 	cdpcs	15, 6, cr6, cr3, cr12, {3}
     8ac:	00000068 	andeq	r0, r0, r8, rrx
     8b0:	01050000 	mrseq	r0, (UNDEF: 5)
     8b4:	04020500 	streq	r0, [r2], #-1280	; 0xfffffb00
     8b8:	03000088 	movweq	r0, #136	; 0x88
     8bc:	0106012b 	tsteq	r6, fp, lsr #2
     8c0:	68060505 	stmdavs	r6, {r0, r2, r8, sl}
     8c4:	01060b05 	tsteq	r6, r5, lsl #22
     8c8:	054a0805 	strbeq	r0, [sl, #-2053]	; 0xfffff7fb
     8cc:	0402001d 	streq	r0, [r2], #-29	; 0xffffffe3
     8d0:	18054a01 	stmdane	r5, {r0, r9, fp, lr}
     8d4:	01040200 	mrseq	r0, R12_usr
     8d8:	4d0c054a 	cfstr32mi	mvfx0, [ip, #-296]	; 0xfffffed8
     8dc:	2c10052e 	cfldr32cs	mvfx0, [r0], {46}	; 0x2e
     8e0:	01052e2e 	tsteq	r5, lr, lsr #28
     8e4:	1f030631 	svcne	0x00030631
     8e8:	0501069e 	streq	r0, [r1, #-1694]	; 0xfffff962
     8ec:	01830605 	orreq	r0, r3, r5, lsl #12
     8f0:	02040200 	andeq	r0, r4, #0, 4
     8f4:	04020082 	streq	r0, [r2], #-130	; 0xffffff7e
     8f8:	02000102 	andeq	r0, r0, #-2147483648	; 0x80000000
     8fc:	00150204 	andseq	r0, r5, r4, lsl #4
     900:	01020402 	tsteq	r2, r2, lsl #8
     904:	02040200 	andeq	r0, r4, #0, 4
     908:	0402004a 	streq	r0, [r2], #-74	; 0xffffffb6
     90c:	02000102 	andeq	r0, r0, #-2147483648	; 0x80000000
     910:	00130204 	andseq	r0, r3, r4, lsl #4
     914:	01020402 	tsteq	r2, r2, lsl #8
     918:	01040200 	mrseq	r0, R12_usr
     91c:	0402004a 	streq	r0, [r2], #-74	; 0xffffffb6
     920:	02000101 	andeq	r0, r0, #1073741824	; 0x40000000
     924:	9e060104 	adflss	f0, f6, f4
     928:	01040200 	mrseq	r0, R12_usr
     92c:	0402002e 	streq	r0, [r2], #-46	; 0xffffffd2
     930:	002e0601 	eoreq	r0, lr, r1, lsl #12
     934:	2a010402 	bcs	41944 <__bss_end__+0x36474>
     938:	01040200 	mrseq	r0, R12_usr
     93c:	04020001 	streq	r0, [r2], #-1
     940:	009e0601 	addseq	r0, lr, r1, lsl #12
     944:	2e010402 	cdpcs	4, 0, cr0, cr1, cr2, {0}
     948:	01040200 	mrseq	r0, R12_usr
     94c:	02002e06 	andeq	r2, r0, #96	; 0x60
     950:	00310104 	eorseq	r0, r1, r4, lsl #2
     954:	01010402 	tsteq	r1, r2, lsl #8
     958:	01040200 	mrseq	r0, R12_usr
     95c:	02009e06 	andeq	r9, r0, #96	; 0x60
     960:	002e0104 	eoreq	r0, lr, r4, lsl #2
     964:	06010402 	streq	r0, [r1], -r2, lsl #8
     968:	0610052e 	ldreq	r0, [r0], -lr, lsr #10
     96c:	2e2e6c03 	cdpcs	12, 2, cr6, cr14, cr3, {0}
     970:	0319052e 	tsteq	r9, #192937984	; 0xb800000
     974:	11050121 	tstne	r5, r1, lsr #2
     978:	0402004b 	streq	r0, [r2], #-75	; 0xffffffb5
     97c:	02002e04 	andeq	r2, r0, #4, 28	; 0x40
     980:	4d060404 	cfstrsmi	mvf0, [r6, #-16]
     984:	02001405 	andeq	r1, r0, #83886080	; 0x5000000
     988:	01060404 	tsteq	r6, r4, lsl #8
     98c:	04040200 	streq	r0, [r4], #-512	; 0xfffffe00
     990:	0023054a 	eoreq	r0, r3, sl, asr #10
     994:	06020402 	streq	r0, [r2], -r2, lsl #8
     998:	05017203 	streq	r7, [r1, #-515]	; 0xfffffdfd
     99c:	04020024 	streq	r0, [r2], #-36	; 0xffffffdc
     9a0:	05010602 	streq	r0, [r1, #-1538]	; 0xfffff9fe
     9a4:	0402001b 	streq	r0, [r2], #-27	; 0xffffffe5
     9a8:	052e0601 	streq	r0, [lr, #-1537]!	; 0xfffff9ff
     9ac:	04020005 	streq	r0, [r2], #-5
     9b0:	05010601 	streq	r0, [r1, #-1537]	; 0xfffff9ff
     9b4:	054c0609 	strbeq	r0, [ip, #-1545]	; 0xfffff9f7
     9b8:	05010614 	streq	r0, [r1, #-1556]	; 0xfffff9ec
     9bc:	62030616 	andvs	r0, r3, #23068672	; 0x1600000
     9c0:	1405052e 	strne	r0, [r5], #-1326	; 0xfffffad2
     9c4:	060a0514 			; <UNDEFINED> instruction: 0x060a0514
     9c8:	4a080501 	bmi	201dd4 <__bss_end__+0x1f6904>
     9cc:	4c060505 	cfstr32mi	mvfx0, [r6], {5}
     9d0:	01060c05 	tsteq	r6, r5, lsl #24
     9d4:	06090566 	streq	r0, [r9], -r6, ror #10
     9d8:	05011903 	streq	r1, [r1, #-2307]	; 0xfffff6fd
     9dc:	0501060c 	streq	r0, [r1, #-1548]	; 0xfffff9f4
     9e0:	054c060d 	strbeq	r0, [ip, #-1549]	; 0xfffff9f3
     9e4:	05010629 	streq	r0, [r1, #-1577]	; 0xfffff9d7
     9e8:	052f060d 	streq	r0, [pc, #-1549]!	; 3e3 <__code_start__-0x7c1d>
     9ec:	05010616 	streq	r0, [r1, #-1558]	; 0xfffff9ea
     9f0:	f32f060d 	vmax.u32	d0, d15, d13
     9f4:	01061005 	tsteq	r6, r5
     9f8:	4c061105 	stfmis	f1, [r6], {5}
     9fc:	01061c05 	tsteq	r6, r5, lsl #24
     a00:	002e1905 	eoreq	r1, lr, r5, lsl #18
     a04:	66040402 	strvs	r0, [r4], -r2, lsl #8
     a08:	02001105 	andeq	r1, r0, #1073741825	; 0x40000001
     a0c:	2f060404 	svccs	0x00060404
     a10:	02002c05 	andeq	r2, r0, #1280	; 0x500
     a14:	01060404 	tsteq	r6, r4, lsl #8
     a18:	02001105 	andeq	r1, r0, #1073741825	; 0x40000001
     a1c:	4a2e0404 	bmi	b81a34 <__bss_end__+0xb76564>
     a20:	4f061505 	svcmi	0x00061505
     a24:	01064d05 	tsteq	r6, r5, lsl #26
     a28:	052e1505 	streq	r1, [lr, #-1285]!	; 0xfffffafb
     a2c:	06a30611 	ssateq	r0, #4, r1, lsl #12
     a30:	16010566 	strne	r0, [r1], -r6, ror #10
     a34:	0903064a 	stmdbeq	r3, {r1, r3, r6, r9, sl}
     a38:	05059008 	streq	r9, [r5, #-8]
     a3c:	010a0586 	smlabbeq	sl, r6, r5, r0
     a40:	01061505 	tsteq	r6, r5, lsl #10
     a44:	02002505 	andeq	r2, r0, #20971520	; 0x1400000
     a48:	2e060104 	adfcss	f0, f6, f4
     a4c:	02000505 	andeq	r0, r0, #20971520	; 0x1400000
     a50:	01060104 	tsteq	r6, r4, lsl #2
     a54:	02000905 	andeq	r0, r0, #81920	; 0x14000
     a58:	4c060304 	stcmi	3, cr0, [r6], {4}
     a5c:	02003205 	andeq	r3, r0, #1342177280	; 0x50000000
     a60:	01060304 	tsteq	r6, r4, lsl #6
     a64:	02002105 	andeq	r2, r0, #1073741825	; 0x40000001
     a68:	054a0304 	strbeq	r0, [sl, #-772]	; 0xfffffcfc
     a6c:	04020011 	streq	r0, [r2], #-17	; 0xffffffef
     a70:	28052e03 	stmdacs	r5, {r0, r1, r9, sl, fp, sp}
     a74:	03040200 	movweq	r0, #16896	; 0x4200
     a78:	2c052c06 	stccs	12, cr2, [r5], {6}
     a7c:	03040200 	movweq	r0, #16896	; 0x4200
     a80:	02000106 	andeq	r0, r0, #-2147483647	; 0x80000001
     a84:	002e0304 	eoreq	r0, lr, r4, lsl #6
     a88:	2e030402 	cdpcs	4, 0, cr0, cr3, cr2, {0}
     a8c:	19060505 	stmdbne	r6, {r0, r2, r8, sl}
     a90:	062e0613 			; <UNDEFINED> instruction: 0x062e0613
     a94:	060d0530 			; <UNDEFINED> instruction: 0x060d0530
     a98:	06050501 	streq	r0, [r5], -r1, lsl #10
     a9c:	060d054b 	streq	r0, [sp], -fp, asr #10
     aa0:	06050501 	streq	r0, [r5], -r1, lsl #10
     aa4:	060d052f 	streq	r0, [sp], -pc, lsr #10
     aa8:	06050501 	streq	r0, [r5], -r1, lsl #10
     aac:	060d052f 	streq	r0, [sp], -pc, lsr #10
     ab0:	06050501 	streq	r0, [r5], -r1, lsl #10
     ab4:	83136a35 	tsthi	r3, #217088	; 0x35000
     ab8:	13681369 	cmnne	r8, #-1543503871	; 0xa4000001
     abc:	67060105 	strvs	r0, [r6, -r5, lsl #2]
     ac0:	08230306 	stmdaeq	r3!, {r1, r2, r8, r9}
     ac4:	05010658 	streq	r0, [r1, #-1624]	; 0xfffff9a8
     ac8:	13830605 	orrne	r0, r3, #5242880	; 0x500000
     acc:	2f062e06 	svccs	0x00062e06
     ad0:	0a052f4c 	beq	14c808 <__bss_end__+0x141338>
     ad4:	06150501 	ldreq	r0, [r5], -r1, lsl #10
     ad8:	27054a01 	strcs	r4, [r5, -r1, lsl #20]
     adc:	2e1b050d 	cfmul32cs	mvfx0, mvfx11, mvfx13
     ae0:	052e0e05 	streq	r0, [lr, #-3589]!	; 0xfffff1fb
     ae4:	0d053305 	stceq	3, cr3, [r5, #-20]	; 0xffffffec
     ae8:	13053306 	movwne	r3, #21254	; 0x5306
     aec:	0d050106 	stfeqs	f0, [r5, #-24]	; 0xffffffe8
     af0:	66062f06 	strvs	r2, [r6], -r6, lsl #30
     af4:	02002805 	andeq	r2, r0, #327680	; 0x50000
     af8:	03060204 	movweq	r0, #25092	; 0x6204
     afc:	2c052e7a 	stccs	14, cr2, [r5], {122}	; 0x7a
     b00:	02040200 	andeq	r0, r4, #0, 4
     b04:	25050106 	strcs	r0, [r5, #-262]	; 0xfffffefa
     b08:	01040200 	mrseq	r0, R12_usr
     b0c:	05056606 	streq	r6, [r5, #-1542]	; 0xfffff9fa
     b10:	01040200 	mrseq	r0, R12_usr
     b14:	09050106 	stmdbeq	r5, {r1, r2, r8}
     b18:	10054c06 	andne	r4, r5, r6, lsl #24
     b1c:	09050106 	stmdbeq	r5, {r1, r2, r8}
     b20:	0e052f06 	cdpeq	15, 0, cr2, cr5, cr6, {0}
     b24:	0c050106 	stfeqs	f0, [r5], {6}
     b28:	060e052e 	streq	r0, [lr], -lr, lsr #10
     b2c:	0611054f 	ldreq	r0, [r1], -pc, asr #10
     b30:	060d0501 	streq	r0, [sp], -r1, lsl #10
     b34:	0619054c 	ldreq	r0, [r9], -ip, asr #10
     b38:	060d0501 	streq	r0, [sp], -r1, lsl #10
     b3c:	2e66062f 	cdpcs	6, 6, cr0, cr6, cr15, {1}
     b40:	0605052e 	streq	r0, [r5], -lr, lsr #10
     b44:	4a060116 	bmi	180fa4 <__bss_end__+0x175ad4>
     b48:	05132e06 	ldreq	r2, [r3, #-3590]	; 0xfffff1fa
     b4c:	05010608 	streq	r0, [r1, #-1544]	; 0xfffff9f8
     b50:	014b0609 	cmpeq	fp, r9, lsl #12
     b54:	0402004a 	streq	r0, [r2], #-74	; 0xffffffb6
     b58:	05051401 	streq	r1, [r5, #-1025]	; 0xfffffbff
     b5c:	01040200 	mrseq	r0, R12_usr
     b60:	04020014 	streq	r0, [r2], #-20	; 0xffffffec
     b64:	08054b01 	stmdaeq	r5, {r0, r8, r9, fp, lr}
     b68:	01040200 	mrseq	r0, R12_usr
     b6c:	09050106 	stmdbeq	r5, {r1, r2, r8}
     b70:	17053006 	strne	r3, [r5, -r6]
     b74:	01050106 	tsteq	r5, r6, lsl #2
     b78:	06090534 			; <UNDEFINED> instruction: 0x06090534
     b7c:	014a7503 	cmpeq	sl, r3, lsl #10
     b80:	35030105 	strcc	r0, [r3, #-261]	; 0xfffffefb
     b84:	05012202 	streq	r2, [r1, #-514]	; 0xfffffdfe
     b88:	4b138305 	blmi	4e17a4 <__bss_end__+0x4d62d4>
     b8c:	0a052f4c 	beq	14c8c4 <__bss_end__+0x1413f4>
     b90:	06150501 	ldreq	r0, [r5], -r1, lsl #10
     b94:	27054a01 	strcs	r4, [r5, -r1, lsl #20]
     b98:	2e1b050d 	cfmul32cs	mvfx0, mvfx11, mvfx13
     b9c:	052e0e05 	streq	r0, [lr, #-3589]!	; 0xfffff1fb
     ba0:	0d053305 	stceq	3, cr3, [r5, #-20]	; 0xffffffec
     ba4:	13053306 	movwne	r3, #21254	; 0x5306
     ba8:	0d050106 	stfeqs	f0, [r5, #-24]	; 0xffffffe8
     bac:	1e052f06 	cdpne	15, 0, cr2, cr5, cr6, {0}
     bb0:	1a050106 	bne	140fd0 <__bss_end__+0x135b00>
     bb4:	060d052e 	streq	r0, [sp], -lr, lsr #10
     bb8:	0502042f 	streq	r0, [r2, #-1071]	; 0xfffffbd1
     bbc:	7def030b 	stclvc	3, cr0, [pc, #44]!	; bf0 <__code_start__-0x7410>
     bc0:	1305052e 	movwne	r0, #21806	; 0x552e
     bc4:	01060c05 	tsteq	r6, r5, lsl #24
     bc8:	050104ba 	streq	r0, [r1, #-1210]	; 0xfffffb46
     bcc:	0290030d 	addseq	r0, r0, #872415232	; 0x34000000
     bd0:	2f066601 	svccs	0x00066601
     bd4:	02002805 	andeq	r2, r0, #327680	; 0x50000
     bd8:	78030204 	stmdavc	r3, {r2, r9}
     bdc:	002c0566 	eoreq	r0, ip, r6, ror #10
     be0:	06020402 	streq	r0, [r2], -r2, lsl #8
     be4:	00250501 	eoreq	r0, r5, r1, lsl #10
     be8:	06010402 	streq	r0, [r1], -r2, lsl #8
     bec:	00050566 	andeq	r0, r5, r6, ror #10
     bf0:	06010402 	streq	r0, [r1], -r2, lsl #8
     bf4:	06090501 	streq	r0, [r9], -r1, lsl #10
     bf8:	0610054c 	ldreq	r0, [r0], -ip, asr #10
     bfc:	06090501 	streq	r0, [r9], -r1, lsl #10
     c00:	060e052f 	streq	r0, [lr], -pc, lsr #10
     c04:	2e0c0501 	cfsh32cs	mvfx0, mvfx12, #1
     c08:	06050566 	streq	r0, [r5], -r6, ror #10
     c0c:	01010903 	tsteq	r1, r3, lsl #18
     c10:	2e068206 	cdpcs	2, 0, cr8, cr6, cr6, {0}
     c14:	06010514 			; <UNDEFINED> instruction: 0x06010514
     c18:	03066613 	movweq	r6, #26131	; 0x6613
     c1c:	3c087dee 	stccc	13, cr7, [r8], {238}	; 0xee
     c20:	05050106 	streq	r0, [r5, #-262]	; 0xfffffefa
     c24:	01148306 	tsteq	r4, r6, lsl #6
     c28:	02040200 	andeq	r0, r4, #0, 4
     c2c:	0402004a 	streq	r0, [r2], #-74	; 0xffffffb6
     c30:	02000102 	andeq	r0, r0, #-2147483648	; 0x80000000
     c34:	05130204 	ldreq	r0, [r3, #-516]	; 0xfffffdfc
     c38:	04020009 	streq	r0, [r2], #-9
     c3c:	05010602 	streq	r0, [r1, #-1538]	; 0xfffff9fe
     c40:	04020008 	streq	r0, [r2], #-8
     c44:	09054a02 	stmdbeq	r5, {r1, r9, fp, lr}
     c48:	13154b06 	tstne	r5, #6144	; 0x1800
     c4c:	01061405 	tsteq	r6, r5, lsl #8
     c50:	0609054a 	streq	r0, [r9], -sl, asr #10
     c54:	0612052f 	ldreq	r0, [r2], -pc, lsr #10
     c58:	06090501 	streq	r0, [r9], -r1, lsl #10
     c5c:	10054b4b 	andne	r4, r5, fp, asr #22
     c60:	05050106 	streq	r0, [r5, #-262]	; 0xfffffefa
     c64:	0c054c06 	stceq	12, cr4, [r5], {6}
     c68:	01050106 	tsteq	r5, r6, lsl #2
     c6c:	0005054b 	andeq	r0, r5, fp, asr #10
     c70:	06010402 	streq	r0, [r1], -r2, lsl #8
     c74:	004a7403 	subeq	r7, sl, r3, lsl #8
     c78:	01010402 	tsteq	r1, r2, lsl #8
     c7c:	01040200 	mrseq	r0, R12_usr
     c80:	0200ba06 	andeq	fp, r0, #24576	; 0x6000
     c84:	2e060104 	adfcss	f0, f6, f4
     c88:	01300905 	teqeq	r0, r5, lsl #18
     c8c:	2e068206 	cdpcs	2, 0, cr8, cr6, cr6, {0}
     c90:	89033805 	stmdbhi	r3, {r0, r2, fp, ip, sp}
     c94:	06740801 	ldrbteq	r0, [r4], -r1, lsl #16
     c98:	06050501 	streq	r0, [r5], -r1, lsl #10
     c9c:	0a051383 	beq	145ab0 <__bss_end__+0x13a5e0>
     ca0:	060e0501 	streq	r0, [lr], -r1, lsl #10
     ca4:	2d090501 	cfstr32cs	mvfx0, [r9, #-4]
     ca8:	052f0505 	streq	r0, [pc, #-1285]!	; 7ab <__code_start__-0x7855>
     cac:	0530060d 	ldreq	r0, [r0, #-1549]!	; 0xfffff9f3
     cb0:	05010612 	streq	r0, [r1, #-1554]	; 0xfffff9ee
     cb4:	04020021 	streq	r0, [r2], #-33	; 0xffffffdf
     cb8:	052c0602 	streq	r0, [ip, #-1538]!	; 0xfffff9fe
     cbc:	04020022 	streq	r0, [r2], #-34	; 0xffffffde
     cc0:	05010602 	streq	r0, [r1, #-1538]	; 0xfffff9fe
     cc4:	04020015 	streq	r0, [r2], #-21	; 0xffffffeb
     cc8:	052e0601 	streq	r0, [lr, #-1537]!	; 0xfffff9ff
     ccc:	04020005 	streq	r0, [r2], #-5
     cd0:	05010601 	streq	r0, [r1, #-1537]	; 0xfffff9ff
     cd4:	054b0609 	strbeq	r0, [fp, #-1545]	; 0xfffff9f7
     cd8:	05010614 	streq	r0, [r1, #-1556]	; 0xfffff9ec
     cdc:	16052e0c 	strne	r2, [r5], -ip, lsl #28
     ce0:	0505f906 	streq	pc, [r5, #-2310]	; 0xfffff6fa
     ce4:	0a051367 	beq	145a88 <__bss_end__+0x13a5b8>
     ce8:	06150501 	ldreq	r0, [r5], -r1, lsl #10
     cec:	09054a01 	stmdbeq	r5, {r0, r9, fp, lr}
     cf0:	2f050511 	svccs	0x00050511
     cf4:	03061105 	movweq	r1, #24837	; 0x6105
     cf8:	06012e09 	streq	r2, [r1], -r9, lsl #28
     cfc:	002e0682 	eoreq	r0, lr, r2, lsl #13
     d00:	4a010402 	bmi	41d10 <__bss_end__+0x36840>
     d04:	02000905 	andeq	r0, r0, #81920	; 0x14000
     d08:	05150104 	ldreq	r0, [r5, #-260]	; 0xfffffefc
     d0c:	04020010 	streq	r0, [r2], #-16
     d10:	00010601 	andeq	r0, r1, r1, lsl #12
     d14:	2e010402 	cdpcs	4, 0, cr0, cr1, cr2, {0}
     d18:	02002805 	andeq	r2, r0, #327680	; 0x50000
     d1c:	03060104 	movweq	r0, #24836	; 0x6104
     d20:	2c050174 	stfcss	f0, [r5], {116}	; 0x74
     d24:	01040200 	mrseq	r0, R12_usr
     d28:	25050106 	strcs	r0, [r5, #-262]	; 0xfffffefa
     d2c:	02040200 	andeq	r0, r4, #0, 4
     d30:	05056606 	streq	r6, [r5, #-1542]	; 0xfffff9fa
     d34:	02040200 	andeq	r0, r4, #0, 4
     d38:	09050106 	stmdbeq	r5, {r1, r2, r8}
     d3c:	05134b06 	ldreq	r4, [r3, #-2822]	; 0xfffff4fa
     d40:	4a01061e 	bmi	425c0 <__bss_end__+0x370f0>
     d44:	4b060905 	blmi	183160 <__bss_end__+0x177c90>
     d48:	01063705 	tsteq	r6, r5, lsl #14
     d4c:	052e3f05 	streq	r3, [lr, #-3845]!	; 0xfffff0fb
     d50:	1b052e1e 	blne	14c5d0 <__bss_end__+0x141100>
     d54:	06090582 	streq	r0, [r9], -r2, lsl #11
     d58:	4a9e012f 	bmi	fe78121c <__bss_end__+0xfe775d4c>
     d5c:	060e0513 			; <UNDEFINED> instruction: 0x060e0513
     d60:	2e0c0501 	cfsh32cs	mvfx0, mvfx12, #1
     d64:	4b060d05 	blmi	184180 <__bss_end__+0x178cb0>
     d68:	01061505 	tsteq	r6, r5, lsl #10
     d6c:	67060d05 	strvs	r0, [r6, -r5, lsl #26]
     d70:	01061f05 	tsteq	r6, r5, lsl #30
     d74:	2f060d05 	svccs	0x00060d05
     d78:	01061005 	tsteq	r6, r5
     d7c:	06050566 	streq	r0, [r5], -r6, ror #10
     d80:	06010518 			; <UNDEFINED> instruction: 0x06010518
     d84:	03062e13 	movweq	r2, #28179	; 0x6e13
     d88:	0620082f 	strteq	r0, [r0], -pc, lsr #16
     d8c:	06050501 	streq	r0, [r5], -r1, lsl #10
     d90:	060c0568 	streq	r0, [ip], -r8, ror #10
     d94:	2f010501 	svccs	0x00010501
     d98:	0505be06 	streq	fp, [r5, #-3590]	; 0xfffff1fa
     d9c:	0905136a 	stmdbeq	r5, {r1, r3, r5, r6, r8, r9, ip}
     da0:	08050106 	stmdaeq	r5, {r1, r2, r8}
     da4:	0609054a 	streq	r0, [r9], -sl, asr #10
     da8:	4a01144b 	bmi	45edc <__bss_end__+0x3aa0c>
     dac:	05130505 	ldreq	r0, [r3, #-1285]	; 0xfffffafb
     db0:	05130601 	ldreq	r0, [r3, #-1537]	; 0xfffff9ff
     db4:	012a0609 			; <UNDEFINED> instruction: 0x012a0609
     db8:	0801059e 	stmdaeq	r1, {r1, r2, r3, r4, r7, r8, sl}
     dbc:	6a050560 	bvs	142344 <__bss_end__+0x136e74>
     dc0:	06170513 			; <UNDEFINED> instruction: 0x06170513
     dc4:	06050501 	streq	r0, [r5], -r1, lsl #10
     dc8:	0608054b 	streq	r0, [r8], -fp, asr #10
     dcc:	06090501 	streq	r0, [r9], -r1, lsl #10
     dd0:	0601144b 	streq	r1, [r1], -fp, asr #8
     dd4:	052e064a 	streq	r0, [lr, #-1610]!	; 0xfffff9b6
     dd8:	05131305 	ldreq	r1, [r3, #-773]	; 0xfffffcfb
     ddc:	05130601 	ldreq	r0, [r3, #-1537]	; 0xfffff9ff
     de0:	01450609 	cmpeq	r5, r9, lsl #12
     de4:	0301059e 	movweq	r0, #5534	; 0x159e
     de8:	0505f221 	streq	pc, [r5, #-545]	; 0xfffffddf
     dec:	17052f67 	strne	r2, [r5, -r7, ror #30]
     df0:	05050106 	streq	r0, [r5, #-262]	; 0xfffffefa
     df4:	01053206 	tsteq	r5, r6, lsl #4
     df8:	bd061306 	stclt	3, cr1, [r6, #-24]	; 0xffffffe8
     dfc:	01670505 	cmneq	r7, r5, lsl #10
     e00:	0008029e 	muleq	r8, lr, r2
     e04:	01360101 	teqeq	r6, r1, lsl #2
     e08:	00030000 	andeq	r0, r3, r0
     e0c:	0000005b 	andeq	r0, r0, fp, asr r0
     e10:	0efb0102 	cdpeq	1, 15, cr0, cr11, cr2, {0}
     e14:	0101000d 	tsteq	r1, sp
     e18:	00000101 	andeq	r0, r0, r1, lsl #2
     e1c:	00000100 	andeq	r0, r0, r0, lsl #2
     e20:	732f2e01 			; <UNDEFINED> instruction: 0x732f2e01
     e24:	2f006372 	svccs	0x00006372
     e28:	72657355 	rsbvc	r7, r5, #1409286145	; 0x54000001
     e2c:	696d2f73 	stmdbvs	sp!, {r0, r1, r4, r5, r6, r8, r9, sl, fp, sp}^
     e30:	2f73656c 	svccs	0x0073656c
     e34:	72756f53 	rsbsvc	r6, r5, #332	; 0x14c
     e38:	632f6563 			; <UNDEFINED> instruction: 0x632f6563
     e3c:	30343273 	eorscc	r3, r4, r3, ror r2
     e40:	6c2f786c 	stcvs	8, cr7, [pc], #-432	; c98 <__code_start__-0x7368>
     e44:	69706269 	ldmdbvs	r0!, {r0, r3, r5, r6, r9, sp, lr}^
     e48:	636e692f 	cmnvs	lr, #770048	; 0xbc000
     e4c:	6564756c 	strbvs	r7, [r4, #-1388]!	; 0xfffffa94
     e50:	61620000 	cmnvs	r2, r0
     e54:	72746b63 	rsbsvc	r6, r4, #101376	; 0x18c00
     e58:	2e656361 	cdpcs	3, 6, cr6, cr5, cr1, {3}
     e5c:	00010063 	andeq	r0, r1, r3, rrx
     e60:	69707200 	ldmdbvs	r0!, {r9, ip, sp, lr}^
     e64:	0200682e 	andeq	r6, r0, #3014656	; 0x2e0000
     e68:	05000000 	streq	r0, [r0, #-0]
     e6c:	02050011 	andeq	r0, r5, #17, 0
     e70:	00009000 	andeq	r9, r0, r0
     e74:	05011c03 	streq	r1, [r1, #-3075]	; 0xfffff3fd
     e78:	05131305 	ldreq	r1, [r3, #-773]	; 0xfffffcfb
     e7c:	05100611 	ldreq	r0, [r0, #-1553]	; 0xfffff9ef
     e80:	30063005 	andcc	r3, r6, r5
     e84:	05010a05 	streq	r0, [r1, #-2565]	; 0xfffff5fb
     e88:	05050115 	streq	r0, [r5, #-277]	; 0xfffffeeb
     e8c:	0e050106 	adfeqs	f0, f5, f6
     e90:	0310054a 	tsteq	r0, #310378496	; 0x12800000
     e94:	09052e27 	stmdbeq	r5, {r0, r1, r2, r5, r9, sl, fp, sp}
     e98:	4a2e5b03 	bmi	b97aac <__bss_end__+0xb8c5dc>
     e9c:	02002f05 	andeq	r2, r0, #5, 30
     ea0:	05100204 	ldreq	r0, [r0, #-516]	; 0xfffffdfc
     ea4:	04020015 	streq	r0, [r2], #-21	; 0xffffffeb
     ea8:	052e0602 	streq	r0, [lr, #-1538]!	; 0xfffff9fe
     eac:	04020005 	streq	r0, [r2], #-5
     eb0:	05010602 	streq	r0, [r1, #-1538]	; 0xfffff9fe
     eb4:	034b0609 	movteq	r0, #46601	; 0xb609
     eb8:	17050123 	strne	r0, [r5, -r3, lsr #2]
     ebc:	015d0306 	cmpeq	sp, r6, lsl #6
     ec0:	052f0905 	streq	r0, [pc, #-2309]!	; 5c3 <__code_start__-0x7a3d>
     ec4:	2e20030e 	cdpcs	3, 2, cr0, cr0, cr14, {0}
     ec8:	31060905 	tstcc	r6, r5, lsl #18
     ecc:	03061205 	movweq	r1, #25093	; 0x6205
     ed0:	0905015c 	stmdbeq	r5, {r2, r3, r4, r6, r8}
     ed4:	0d052f06 	stceq	15, cr2, [r5, #-24]	; 0xffffffe8
     ed8:	05011f03 	streq	r1, [r1, #-3843]	; 0xfffff0fd
     edc:	05131305 	ldreq	r1, [r3, #-773]	; 0xfffffcfb
     ee0:	05010608 	streq	r0, [r1, #-1544]	; 0xfffff9f8
     ee4:	12052d31 	andne	r2, r5, #3136	; 0xc40
     ee8:	2f310530 	svccs	0x00310530
     eec:	1410052e 	ldrne	r0, [r0], #-1326	; 0xfffffad2
     ef0:	0309052e 	movweq	r0, #38190	; 0x952e
     ef4:	4b06015b 	blmi	181468 <__bss_end__+0x175f98>
     ef8:	050f2e05 	streq	r2, [pc, #-3589]	; fb <__code_start__-0x7f05>
     efc:	0515061f 	ldreq	r0, [r5, #-1567]	; 0xfffff9e1
     f00:	052f0609 	streq	r0, [pc, #-1545]!	; 8ff <__code_start__-0x7701>
     f04:	0501060c 	streq	r0, [r1, #-1548]	; 0xfffff9f4
     f08:	0c055001 	stceq	0, cr5, [r5], {1}
     f0c:	2f010549 	svccs	0x00010549
     f10:	03062d05 	movweq	r2, #27909	; 0x6d05
     f14:	05058217 	streq	r8, [r5, #-535]	; 0xfffffde9
     f18:	060e0513 			; <UNDEFINED> instruction: 0x060e0513
     f1c:	06050501 	streq	r0, [r5], -r1, lsl #10
     f20:	0631052f 	ldrteq	r0, [r1], -pc, lsr #10
     f24:	2f080511 	svccs	0x00080511
     f28:	2f060905 	svccs	0x00060905
     f2c:	06120513 			; <UNDEFINED> instruction: 0x06120513
     f30:	2f310511 	svccs	0x00310511
     f34:	1410052e 	ldrne	r0, [r0], #-1326	; 0xfffffad2
     f38:	02300105 	eorseq	r0, r0, #1073741825	; 0x40000001
     f3c:	01010004 	tsteq	r1, r4
     f40:	00000121 	andeq	r0, r0, r1, lsr #2
     f44:	00be0003 	adcseq	r0, lr, r3
     f48:	01020000 	mrseq	r0, (UNDEF: 2)
     f4c:	000d0efb 	strdeq	r0, [sp], -fp
     f50:	01010101 	tsteq	r1, r1, lsl #2
     f54:	01000000 	mrseq	r0, (UNDEF: 0)
     f58:	2e010000 	cdpcs	0, 0, cr0, cr1, cr0, {0}
     f5c:	62696c2f 	rsbvs	r6, r9, #12032	; 0x2f00
     f60:	552f0063 	strpl	r0, [pc, #-99]!	; f05 <__code_start__-0x70fb>
     f64:	73726573 	cmnvc	r2, #482344960	; 0x1cc00000
     f68:	6c696d2f 	stclvs	13, cr6, [r9], #-188	; 0xffffff44
     f6c:	532f7365 			; <UNDEFINED> instruction: 0x532f7365
     f70:	6372756f 	cmnvs	r2, #465567744	; 0x1bc00000
     f74:	73632f65 	cmnvc	r3, #404	; 0x194
     f78:	6c303432 	cfldrsvs	mvf3, [r0], #-200	; 0xffffff38
     f7c:	696c2f78 	stmdbvs	ip!, {r3, r4, r5, r6, r8, r9, sl, fp, sp}^
     f80:	2f697062 	svccs	0x00697062
     f84:	6c636e69 	stclvs	14, cr6, [r3], #-420	; 0xfffffe5c
     f88:	00656475 	rsbeq	r6, r5, r5, ror r4
     f8c:	74706f2f 	ldrbtvc	r6, [r0], #-3887	; 0xfffff0d1
     f90:	6d6f682f 	stclvs	8, cr6, [pc, #-188]!	; edc <__code_start__-0x7124>
     f94:	65726265 	ldrbvs	r6, [r2, #-613]!	; 0xfffffd9b
     f98:	65432f77 	strbvs	r2, [r3, #-3959]	; 0xfffff089
     f9c:	72616c6c 	rsbvc	r6, r1, #108, 24	; 0x6c00
     fa0:	6d72612f 	ldfvse	f6, [r2, #-188]!	; 0xffffff44
     fa4:	6e6f6e2d 	cdpvs	14, 6, cr6, cr15, cr13, {1}
     fa8:	61652d65 	cmnvs	r5, r5, ror #26
     fac:	392d6962 	pushcc	{r1, r5, r6, r8, fp, sp, lr}
     fb0:	322d392f 	eorcc	r3, sp, #770048	; 0xbc000
     fb4:	71393130 	teqvc	r9, r0, lsr r1
     fb8:	73632d34 	cmnvc	r3, #52, 26	; 0xd00
     fbc:	65373031 	ldrvs	r3, [r7, #-49]!	; 0xffffffcf
     fc0:	62696c2f 	rsbvs	r6, r9, #12032	; 0x2f00
     fc4:	6363672f 	cmnvs	r3, #12320768	; 0xbc0000
     fc8:	6d72612f 	ldfvse	f6, [r2, #-188]!	; 0xffffff44
     fcc:	6e6f6e2d 	cdpvs	14, 6, cr6, cr15, cr13, {1}
     fd0:	61652d65 	cmnvs	r5, r5, ror #26
     fd4:	392f6962 	stmdbcc	pc!, {r1, r5, r6, r8, fp, sp, lr}	; <UNPREDICTABLE>
     fd8:	312e322e 			; <UNDEFINED> instruction: 0x312e322e
     fdc:	636e692f 	cmnvs	lr, #770048	; 0xbc000
     fe0:	6564756c 	strbvs	r7, [r4, #-1388]!	; 0xfffffa94
     fe4:	656d0000 	strbvs	r0, [sp, #-0]!
     fe8:	7465736d 	strbtvc	r7, [r5], #-877	; 0xfffffc93
     fec:	0100632e 	tsteq	r0, lr, lsr #6
     ff0:	70720000 	rsbsvc	r0, r2, r0
     ff4:	00682e69 	rsbeq	r2, r8, r9, ror #28
     ff8:	73000002 	movwvc	r0, #2
     ffc:	65646474 	strbvs	r6, [r4, #-1140]!	; 0xfffffb8c
    1000:	00682e66 	rsbeq	r2, r8, r6, ror #28
    1004:	00000003 	andeq	r0, r0, r3
    1008:	05002905 	streq	r2, [r0, #-2309]	; 0xfffff6fb
    100c:	0090a002 	addseq	sl, r0, r2
    1010:	05051500 	streq	r1, [r5, #-1280]	; 0xfffffb00
    1014:	06290513 			; <UNDEFINED> instruction: 0x06290513
    1018:	2f140511 	svccs	0x00140511
    101c:	30060505 	andcc	r0, r6, r5, lsl #10
    1020:	06010a05 	streq	r0, [r1], -r5, lsl #20
    1024:	0609059e 			; <UNDEFINED> instruction: 0x0609059e
    1028:	060e05d7 			; <UNDEFINED> instruction: 0x060e05d7
    102c:	060a0501 	streq	r0, [sl], -r1, lsl #10
    1030:	bb09052d 	bllt	2424ec <__bss_end__+0x23701c>
    1034:	01060e05 	tsteq	r6, r5, lsl #28
    1038:	060a052e 	streq	r0, [sl], -lr, lsr #10
    103c:	4b09052d 	blmi	2424f8 <__bss_end__+0x237028>
    1040:	01060b05 	tsteq	r6, r5, lsl #22
    1044:	052d0a05 	streq	r0, [sp, #-2565]!	; 0xfffff5fb
    1048:	0a052f0e 	beq	14cc88 <__bss_end__+0x1417b8>
    104c:	0e052d06 	cdpeq	13, 0, cr2, cr5, cr6, {0}
    1050:	09051306 	stmdbeq	r5, {r1, r2, r8, r9, ip}
    1054:	0a052e06 	beq	14c874 <__bss_end__+0x1413a4>
    1058:	14050511 	strne	r0, [r5], #-1297	; 0xfffffaef
    105c:	13060105 	movwne	r0, #24837	; 0x6105
    1060:	01000202 	tsteq	r0, r2, lsl #4
    1064:	00012001 	andeq	r2, r1, r1
    1068:	db000300 	blle	1c70 <__code_start__-0x6390>
    106c:	02000000 	andeq	r0, r0, #0, 0
    1070:	0d0efb01 	vstreq	d15, [lr, #-4]
    1074:	01010100 	mrseq	r0, (UNDEF: 17)
    1078:	00000001 	andeq	r0, r0, r1
    107c:	01000001 	tsteq	r0, r1
    1080:	696c2f2e 	stmdbvs	ip!, {r1, r2, r3, r5, r8, r9, sl, fp, sp}^
    1084:	2f006362 	svccs	0x00006362
    1088:	2f74706f 	svccs	0x0074706f
    108c:	656d6f68 	strbvs	r6, [sp, #-3944]!	; 0xfffff098
    1090:	77657262 	strbvc	r7, [r5, -r2, ror #4]!
    1094:	6c65432f 	stclvs	3, cr4, [r5], #-188	; 0xffffff44
    1098:	2f72616c 	svccs	0x0072616c
    109c:	2d6d7261 	sfmcs	f7, 2, [sp, #-388]!	; 0xfffffe7c
    10a0:	656e6f6e 	strbvs	r6, [lr, #-3950]!	; 0xfffff092
    10a4:	6261652d 	rsbvs	r6, r1, #188743680	; 0xb400000
    10a8:	2f392d69 	svccs	0x00392d69
    10ac:	30322d39 	eorscc	r2, r2, r9, lsr sp
    10b0:	34713931 	ldrbtcc	r3, [r1], #-2353	; 0xfffff6cf
    10b4:	3173632d 	cmncc	r3, sp, lsr #6
    10b8:	2f653730 	svccs	0x00653730
    10bc:	2f62696c 	svccs	0x0062696c
    10c0:	2f636367 	svccs	0x00636367
    10c4:	2d6d7261 	sfmcs	f7, 2, [sp, #-388]!	; 0xfffffe7c
    10c8:	656e6f6e 	strbvs	r6, [lr, #-3950]!	; 0xfffff092
    10cc:	6261652d 	rsbvs	r6, r1, #188743680	; 0xb400000
    10d0:	2e392f69 	cdpcs	15, 3, cr2, cr9, cr9, {3}
    10d4:	2f312e32 	svccs	0x00312e32
    10d8:	6c636e69 	stclvs	14, cr6, [r3], #-420	; 0xfffffe5c
    10dc:	00656475 	rsbeq	r6, r5, r5, ror r4
    10e0:	6573552f 	ldrbvs	r5, [r3, #-1327]!	; 0xfffffad1
    10e4:	6d2f7372 	stcvs	3, cr7, [pc, #-456]!	; f24 <__code_start__-0x70dc>
    10e8:	73656c69 	cmnvc	r5, #26880	; 0x6900
    10ec:	756f532f 	strbvc	r5, [pc, #-815]!	; dc5 <__code_start__-0x723b>
    10f0:	2f656372 	svccs	0x00656372
    10f4:	34327363 	ldrtcc	r7, [r2], #-867	; 0xfffffc9d
    10f8:	2f786c30 	svccs	0x00786c30
    10fc:	7062696c 	rsbvc	r6, r2, ip, ror #18
    1100:	6e692f69 	cdpvs	15, 6, cr2, cr9, cr9, {3}
    1104:	64756c63 	ldrbtvs	r6, [r5], #-3171	; 0xfffff39d
    1108:	70000065 	andvc	r0, r0, r5, rrx
    110c:	746e6972 	strbtvc	r6, [lr], #-2418	; 0xfffff68e
    1110:	00632e6b 	rsbeq	r2, r3, fp, ror #28
    1114:	73000001 	movwvc	r0, #1
    1118:	72616474 	rsbvc	r6, r1, #116, 8	; 0x74000000
    111c:	00682e67 	rsbeq	r2, r8, r7, ror #28
    1120:	72000002 	andvc	r0, r0, #2, 0
    1124:	682e6970 	stmdavs	lr!, {r4, r5, r6, r8, fp, sp, lr}
    1128:	00000300 	andeq	r0, r0, r0, lsl #6
    112c:	6975623c 	ldmdbvs	r5!, {r2, r3, r4, r5, r9, sp, lr}^
    1130:	692d746c 	pushvs	{r2, r3, r5, r6, sl, ip, sp, lr}
    1134:	00003e6e 	andeq	r3, r0, lr, ror #28
    1138:	61760000 	cmnvs	r6, r0
    113c:	6972702d 	ldmdbvs	r2!, {r0, r2, r3, r5, ip, sp, lr}^
    1140:	2e6b746e 	cdpcs	4, 6, cr7, cr11, cr14, {3}
    1144:	00010068 	andeq	r0, r1, r8, rrx
    1148:	22050000 	andcs	r0, r5, #0, 0
    114c:	18020500 	stmdane	r2, {r8, sl}
    1150:	17000091 			; <UNDEFINED> instruction: 0x17000091
    1154:	13140505 	tstne	r4, #20971520	; 0x1400000
    1158:	06220514 			; <UNDEFINED> instruction: 0x06220514
    115c:	5012050d 	andspl	r0, r2, sp, lsl #10
    1160:	7a032205 	bvc	c997c <__bss_end__+0xbe4ac>
    1164:	3305052e 	movwcc	r0, #21806	; 0x552e
    1168:	052f1205 	streq	r1, [pc, #-517]!	; f6b <__code_start__-0x7095>
    116c:	09056505 	stmdbeq	r5, {r0, r2, r8, sl, sp, lr}
    1170:	12052f06 	andne	r2, r5, #6, 30
    1174:	05050106 	streq	r0, [r5, #-262]	; 0xfffffefa
    1178:	06164b06 	ldreq	r4, [r6], -r6, lsl #22
    117c:	0550064a 	ldrbeq	r0, [r0, #-1610]	; 0xfffff9b6
    1180:	66130601 	ldrvs	r0, [r3], -r1, lsl #12
    1184:	01000802 	tsteq	r0, r2, lsl #16
    1188:	0000a001 	andeq	sl, r0, r1
    118c:	57000300 	strpl	r0, [r0, -r0, lsl #6]
    1190:	02000000 	andeq	r0, r0, #0, 0
    1194:	0d0efb01 	vstreq	d15, [lr, #-4]
    1198:	01010100 	mrseq	r0, (UNDEF: 17)
    119c:	00000001 	andeq	r0, r0, r1
    11a0:	01000001 	tsteq	r0, r1
    11a4:	696c2f2e 	stmdbvs	ip!, {r1, r2, r3, r5, r8, r9, sl, fp, sp}^
    11a8:	2f006362 	svccs	0x00006362
    11ac:	72657355 	rsbvc	r7, r5, #1409286145	; 0x54000001
    11b0:	696d2f73 	stmdbvs	sp!, {r0, r1, r4, r5, r6, r8, r9, sl, fp, sp}^
    11b4:	2f73656c 	svccs	0x0073656c
    11b8:	72756f53 	rsbsvc	r6, r5, #332	; 0x14c
    11bc:	632f6563 			; <UNDEFINED> instruction: 0x632f6563
    11c0:	30343273 	eorscc	r3, r4, r3, ror r2
    11c4:	6c2f786c 	stcvs	8, cr7, [pc], #-432	; 101c <__code_start__-0x6fe4>
    11c8:	69706269 	ldmdbvs	r0!, {r0, r3, r5, r6, r9, sp, lr}^
    11cc:	636e692f 	cmnvs	lr, #770048	; 0xbc000
    11d0:	6564756c 	strbvs	r7, [r4, #-1388]!	; 0xfffffa94
    11d4:	75700000 	ldrbvc	r0, [r0, #-0]!
    11d8:	632e6b74 			; <UNDEFINED> instruction: 0x632e6b74
    11dc:	00000100 	andeq	r0, r0, r0, lsl #2
    11e0:	2e697072 	mcrcs	0, 3, r7, cr9, cr2, {3}
    11e4:	00020068 	andeq	r0, r2, r8, rrx
    11e8:	22050000 	andcs	r0, r5, #0, 0
    11ec:	70020500 	andvc	r0, r2, r0, lsl #10
    11f0:	15000091 	strne	r0, [r0, #-145]	; 0xffffff6f
    11f4:	05130505 	ldreq	r0, [r3, #-1285]	; 0xfffffafb
    11f8:	2e110622 	cfmsub32cs	mvax1, mvfx0, mvfx1, mvfx2
    11fc:	2f060b05 	svccs	0x00060b05
    1200:	2e060505 	cfsh32cs	mvfx0, mvfx6, #5
    1204:	02000905 	andeq	r0, r0, #81920	; 0x14000
    1208:	67060204 	strvs	r0, [r6, -r4, lsl #4]
    120c:	02000f05 	andeq	r0, r0, #5, 30
    1210:	05490204 	strbeq	r0, [r9, #-516]	; 0xfffffdfc
    1214:	0402000b 	streq	r0, [r2], #-11
    1218:	05050102 	streq	r0, [r5, #-258]	; 0xfffffefe
    121c:	02040200 	andeq	r0, r4, #0, 4
    1220:	4e062e06 	cdpmi	14, 0, cr2, cr6, cr6, {0}
    1224:	13060105 	movwne	r0, #24837	; 0x6105
    1228:	01000602 	tsteq	r0, r2, lsl #12
    122c:	0000e101 	andeq	lr, r0, r1, lsl #2
    1230:	5b000300 	blpl	1e38 <__code_start__-0x61c8>
    1234:	02000000 	andeq	r0, r0, #0, 0
    1238:	0d0efb01 	vstreq	d15, [lr, #-4]
    123c:	01010100 	mrseq	r0, (UNDEF: 17)
    1240:	00000001 	andeq	r0, r0, r1
    1244:	01000001 	tsteq	r0, r1
    1248:	696c2f2e 	stmdbvs	ip!, {r1, r2, r3, r5, r8, r9, sl, fp, sp}^
    124c:	2f006362 	svccs	0x00006362
    1250:	72657355 	rsbvc	r7, r5, #1409286145	; 0x54000001
    1254:	696d2f73 	stmdbvs	sp!, {r0, r1, r4, r5, r6, r8, r9, sl, fp, sp}^
    1258:	2f73656c 	svccs	0x0073656c
    125c:	72756f53 	rsbsvc	r6, r5, #332	; 0x14c
    1260:	632f6563 			; <UNDEFINED> instruction: 0x632f6563
    1264:	30343273 	eorscc	r3, r4, r3, ror r2
    1268:	6c2f786c 	stcvs	8, cr7, [pc], #-432	; 10c0 <__code_start__-0x6f40>
    126c:	69706269 	ldmdbvs	r0!, {r0, r3, r5, r6, r9, sp, lr}^
    1270:	636e692f 	cmnvs	lr, #770048	; 0xbc000
    1274:	6564756c 	strbvs	r7, [r4, #-1388]!	; 0xfffffa94
    1278:	70720000 	rsbsvc	r0, r2, r0
    127c:	61722d69 	cmnvs	r2, r9, ror #26
    1280:	632e646e 			; <UNDEFINED> instruction: 0x632e646e
    1284:	00000100 	andeq	r0, r0, r0, lsl #2
    1288:	2e697072 	mcrcs	0, 3, r7, cr9, cr2, {3}
    128c:	00020068 	andeq	r0, r2, r8, rrx
    1290:	21050000 	mrscs	r0, (UNDEF: 5)
    1294:	a8020500 	stmdage	r2, {r8, sl}
    1298:	03000091 	movweq	r0, #145	; 0x91
    129c:	0505010a 	streq	r0, [r5, #-266]	; 0xfffffef6
    12a0:	06190513 			; <UNDEFINED> instruction: 0x06190513
    12a4:	06050501 	streq	r0, [r5], -r1, lsl #10
    12a8:	0627054b 	strteq	r0, [r7], -fp, asr #10
    12ac:	66350511 			; <UNDEFINED> instruction: 0x66350511
    12b0:	052f1905 	streq	r1, [pc, #-2309]!	; 9b3 <__code_start__-0x764d>
    12b4:	0505660a 	streq	r6, [r5, #-1546]	; 0xfffff9f6
    12b8:	01052f06 	tsteq	r5, r6, lsl #30
    12bc:	20051306 	andcs	r1, r5, r6, lsl #6
    12c0:	05054c06 	streq	r4, [r5, #-3078]	; 0xfffff3fa
    12c4:	03100513 	tsteq	r0, #79691776	; 0x4c00000
    12c8:	05050179 	streq	r0, [r5, #-377]	; 0xfffffe87
    12cc:	06190513 			; <UNDEFINED> instruction: 0x06190513
    12d0:	06050501 	streq	r0, [r5], -r1, lsl #10
    12d4:	0627054b 	strteq	r0, [r7], -fp, asr #10
    12d8:	66350511 			; <UNDEFINED> instruction: 0x66350511
    12dc:	052f1905 	streq	r1, [pc, #-2309]!	; 9df <__code_start__-0x7621>
    12e0:	05670605 	strbeq	r0, [r7, #-1541]!	; 0xfffff9fb
    12e4:	05050f10 	streq	r0, [r5, #-3856]	; 0xfffff0f0
    12e8:	27051313 	smladcs	r5, r3, r3, r1
    12ec:	35051106 	strcc	r1, [r5, #-262]	; 0xfffffefa
    12f0:	2f190566 	svccs	0x00190566
    12f4:	05660a05 	strbeq	r0, [r6, #-2565]!	; 0xfffff5fb
    12f8:	052f0605 	streq	r0, [pc, #-1541]!	; cfb <__code_start__-0x7305>
    12fc:	05170601 	ldreq	r0, [r7, #-1537]	; 0xfffff9ff
    1300:	0569061f 	strbeq	r0, [r9, #-1567]!	; 0xfffff9e1
    1304:	0a051305 	beq	145f20 <__bss_end__+0x13aa50>
    1308:	01050106 	tsteq	r5, r6, lsl #2
    130c:	00060267 	andeq	r0, r6, r7, ror #4
    1310:	08fa0101 	ldmeq	sl!, {r0, r8}^
    1314:	00030000 	andeq	r0, r3, r0
    1318:	000000f1 	strdeq	r0, [r0], -r1
    131c:	0efb0102 	cdpeq	1, 15, cr0, cr11, cr2, {0}
    1320:	0101000d 	tsteq	r1, sp
    1324:	00000101 	andeq	r0, r0, r1, lsl #2
    1328:	00000100 	andeq	r0, r0, r0, lsl #2
    132c:	6c2f2e01 	stcvs	14, cr2, [pc], #-4	; 1330 <__code_start__-0x6cd0>
    1330:	00636269 	rsbeq	r6, r3, r9, ror #4
    1334:	74706f2f 	ldrbtvc	r6, [r0], #-3887	; 0xfffff0d1
    1338:	6d6f682f 	stclvs	8, cr6, [pc, #-188]!	; 1284 <__code_start__-0x6d7c>
    133c:	65726265 	ldrbvs	r6, [r2, #-613]!	; 0xfffffd9b
    1340:	65432f77 	strbvs	r2, [r3, #-3959]	; 0xfffff089
    1344:	72616c6c 	rsbvc	r6, r1, #108, 24	; 0x6c00
    1348:	6d72612f 	ldfvse	f6, [r2, #-188]!	; 0xffffff44
    134c:	6e6f6e2d 	cdpvs	14, 6, cr6, cr15, cr13, {1}
    1350:	61652d65 	cmnvs	r5, r5, ror #26
    1354:	392d6962 	pushcc	{r1, r5, r6, r8, fp, sp, lr}
    1358:	322d392f 	eorcc	r3, sp, #770048	; 0xbc000
    135c:	71393130 	teqvc	r9, r0, lsr r1
    1360:	73632d34 	cmnvc	r3, #52, 26	; 0xd00
    1364:	65373031 	ldrvs	r3, [r7, #-49]!	; 0xffffffcf
    1368:	62696c2f 	rsbvs	r6, r9, #12032	; 0x2f00
    136c:	6363672f 	cmnvs	r3, #12320768	; 0xbc0000
    1370:	6d72612f 	ldfvse	f6, [r2, #-188]!	; 0xffffff44
    1374:	6e6f6e2d 	cdpvs	14, 6, cr6, cr15, cr13, {1}
    1378:	61652d65 	cmnvs	r5, r5, ror #26
    137c:	392f6962 	stmdbcc	pc!, {r1, r5, r6, r8, fp, sp, lr}	; <UNPREDICTABLE>
    1380:	312e322e 			; <UNDEFINED> instruction: 0x312e322e
    1384:	636e692f 	cmnvs	lr, #770048	; 0xbc000
    1388:	6564756c 	strbvs	r7, [r4, #-1388]!	; 0xfffffa94
    138c:	73552f00 	cmpvc	r5, #0, 30
    1390:	2f737265 	svccs	0x00737265
    1394:	656c696d 	strbvs	r6, [ip, #-2413]!	; 0xfffff693
    1398:	6f532f73 	svcvs	0x00532f73
    139c:	65637275 	strbvs	r7, [r3, #-629]!	; 0xfffffd8b
    13a0:	3273632f 	rsbscc	r6, r3, #-1140850688	; 0xbc000000
    13a4:	786c3034 	stmdavc	ip!, {r2, r4, r5, ip, sp}^
    13a8:	62696c2f 	rsbvs	r6, r9, #12032	; 0x2f00
    13ac:	692f6970 	stmdbvs	pc!, {r4, r5, r6, r8, fp, sp, lr}	; <UNPREDICTABLE>
    13b0:	756c636e 	strbvc	r6, [ip, #-878]!	; 0xfffffc92
    13b4:	00006564 	andeq	r6, r0, r4, ror #10
    13b8:	702d6176 	eorvc	r6, sp, r6, ror r1
    13bc:	746e6972 	strbtvc	r6, [lr], #-2418	; 0xfffff68e
    13c0:	00632e6b 	rsbeq	r2, r3, fp, ror #28
    13c4:	73000001 	movwvc	r0, #1
    13c8:	6e696474 	mcrvs	4, 3, r6, cr9, cr4, {3}
    13cc:	63672d74 	cmnvs	r7, #116, 26	; 0x1d00
    13d0:	00682e63 	rsbeq	r2, r8, r3, ror #28
    13d4:	72000002 	andvc	r0, r0, #2, 0
    13d8:	682e6970 	stmdavs	lr!, {r4, r5, r6, r8, fp, sp, lr}
    13dc:	00000300 	andeq	r0, r0, r0, lsl #6
    13e0:	2d697072 	stclcs	0, cr7, [r9, #-456]!	; 0xfffffe38
    13e4:	65746e69 	ldrbvs	r6, [r4, #-3689]!	; 0xfffff197
    13e8:	6c616e72 	stclvs	14, cr6, [r1], #-456	; 0xfffffe38
    13ec:	0300682e 	movweq	r6, #2094	; 0x82e
    13f0:	74730000 	ldrbtvc	r0, [r3], #-0
    13f4:	67726164 	ldrbvs	r6, [r2, -r4, ror #2]!
    13f8:	0200682e 	andeq	r6, r0, #3014656	; 0x2e0000
    13fc:	623c0000 	eorsvs	r0, ip, #0, 0
    1400:	746c6975 	strbtvc	r6, [ip], #-2421	; 0xfffff68b
    1404:	3e6e692d 	vmulcc.f16	s13, s28, s27	; <UNPREDICTABLE>
    1408:	00000000 	andeq	r0, r0, r0
    140c:	00010500 	andeq	r0, r1, r0, lsl #10
    1410:	92400205 	subls	r0, r0, #1342177280	; 0x50000000
    1414:	c8030000 	stmdagt	r3, {}	; <UNPREDICTABLE>
    1418:	02050100 	andeq	r0, r5, #0
    141c:	06010514 			; <UNDEFINED> instruction: 0x06010514
    1420:	30040510 	andcc	r0, r4, r0, lsl r5
    1424:	4a2c0105 	bmi	b01840 <__bss_end__+0xaf6370>
    1428:	05300405 	ldreq	r0, [r0, #-1029]!	; 0xfffffbfb
    142c:	13310602 	teqne	r1, #2097152	; 0x200000
    1430:	2e060b05 	vmlacs.f64	d0, d6, d5
    1434:	30060205 	andcc	r0, r6, r5, lsl #4
    1438:	02060905 	andeq	r0, r6, #81920	; 0x14000
    143c:	2e2e0d24 	cdpcs	13, 2, cr0, cr14, cr4, {1}
    1440:	03060d05 	movweq	r0, #27909	; 0x6d05
    1444:	11054a17 	tstne	r5, r7, lsl sl
    1448:	062d0513 			; <UNDEFINED> instruction: 0x062d0513
    144c:	2e160501 	cfmul32cs	mvfx0, mvfx6, mvfx1
    1450:	052f0d05 	streq	r0, [pc, #-3333]!	; 753 <__code_start__-0x78ad>
    1454:	14052d16 	strne	r2, [r5], #-3350	; 0xfffff2ea
    1458:	17052f06 	strne	r2, [r5, -r6, lsl #30]
    145c:	0d050106 	stfeqs	f0, [r5, #-24]	; 0xffffffe8
    1460:	052f062e 	streq	r0, [pc, #-1582]!	; e3a <__code_start__-0x71c6>
    1464:	2e010612 	mcrcs	6, 0, r0, cr1, cr2, {0}
    1468:	0d052d2f 	stceq	13, cr2, [r5, #-188]	; 0xffffff44
    146c:	12052f06 	andne	r2, r5, #6, 30
    1470:	19050106 	stmdbne	r5, {r1, r2, r8}
    1474:	04052f06 	streq	r2, [r5], #-3846	; 0xfffff0fa
    1478:	01011103 	tsteq	r1, r3, lsl #2
    147c:	05150205 	ldreq	r0, [r5, #-517]	; 0xfffffdfb
    1480:	7fb2030e 	svcvc	0x00b2030e
    1484:	13020501 	movwne	r0, #9473	; 0x2501
    1488:	01060605 	tsteq	r6, r5, lsl #12
    148c:	30060205 	andcc	r0, r6, r5, lsl #4
    1490:	05010805 	streq	r0, [r1, #-2053]	; 0xfffff7fb
    1494:	4a010602 	bmi	42ca4 <__bss_end__+0x377d4>
    1498:	91080805 	tstls	r8, r5, lsl #16
    149c:	4a060305 	bmi	1820b8 <__bss_end__+0x176be8>
    14a0:	01060805 	tsteq	r6, r5, lsl #16
    14a4:	2d061505 	cfstr32cs	mvfx1, [r6, #-20]	; 0xffffffec
    14a8:	05010805 	streq	r0, [r1, #-2053]	; 0xfffff7fb
    14ac:	0805d703 	stmdaeq	r5, {r0, r1, r8, r9, sl, ip, lr, pc}
    14b0:	18050106 	stmdane	r5, {r1, r2, r8}
    14b4:	2e02052d 	cfsh32cs	mvfx0, mvfx2, #29
    14b8:	052f0805 	streq	r0, [pc, #-2053]!	; cbb <__code_start__-0x7345>
    14bc:	052d0615 	streq	r0, [sp, #-1557]!	; 0xfffff9eb
    14c0:	02050108 	andeq	r0, r5, #2
    14c4:	03050106 	movweq	r0, #20742	; 0x5106
    14c8:	18052f06 	stmdane	r5, {r1, r2, r8, r9, sl, fp, sp}
    14cc:	02051106 	andeq	r1, r5, #-2147483647	; 0x80000001
    14d0:	2f08052e 	svccs	0x0008052e
    14d4:	2d061505 	cfstr32cs	mvfx1, [r6, #-20]	; 0xffffffec
    14d8:	05010805 	streq	r0, [r1, #-2053]	; 0xfffff7fb
    14dc:	08051303 	stmdaeq	r5, {r0, r1, r8, r9, ip}
    14e0:	15050106 	strne	r0, [r5, #-262]	; 0xfffffefa
    14e4:	08052d06 	stmdaeq	r5, {r1, r2, r8, sl, fp, sp}
    14e8:	05010601 	streq	r0, [r1, #-1537]	; 0xfffff9ff
    14ec:	05a00602 	streq	r0, [r0, #1538]!	; 0x602
    14f0:	05010605 	streq	r0, [r1, #-1541]	; 0xfffff9fb
    14f4:	11053604 	tstne	r5, r4, lsl #12
    14f8:	2e09052f 	cfsh32cs	mvfx0, mvfx9, #31
    14fc:	05330205 	ldreq	r0, [r3, #-517]!	; 0xfffffdfb
    1500:	2e720305 	cdpcs	3, 7, cr0, cr2, cr5, {0}
    1504:	2f060205 	svccs	0x00060205
    1508:	0e050106 	adfeqs	f0, f5, f6
    150c:	02051606 	andeq	r1, r5, #6291456	; 0x600000
    1510:	03051314 	movweq	r1, #21268	; 0x5314
    1514:	14020513 	strne	r0, [r2], #-1299	; 0xfffffaed
    1518:	010b0515 	tsteq	fp, r5, lsl r5
    151c:	01060205 	tsteq	r6, r5, lsl #4
    1520:	0603052e 	streq	r0, [r3], -lr, lsr #10
    1524:	060a0567 	streq	r0, [sl], -r7, ror #10
    1528:	2d020501 	cfstr32cs	mvfx0, [r2, #-4]
    152c:	052f0a05 	streq	r0, [pc, #-2565]!	; b2f <__code_start__-0x74d1>
    1530:	052d0617 	streq	r0, [sp, #-1559]!	; 0xfffff9e9
    1534:	0205010b 	andeq	r0, r5, #-1073741822	; 0xc0000002
    1538:	09050106 	stmdbeq	r5, {r1, r2, r8}
    153c:	02052e4c 	andeq	r2, r5, #76, 28	; 0x4c0
    1540:	09052e06 	stmdbeq	r5, {r1, r2, r9, sl, fp, sp}
    1544:	02050106 	andeq	r0, r5, #-2147483647	; 0x80000001
    1548:	01063006 	tsteq	r6, r6
    154c:	38030105 	stmdacc	r3, {r0, r2, r8}
    1550:	03090501 	movweq	r0, #38145	; 0x9501
    1554:	2e2e4a4f 	vnmulcs.f32	s8, s28, s30
    1558:	03061905 	movweq	r1, #26885	; 0x6905
    155c:	1a054a27 	bne	153e00 <__bss_end__+0x148930>
    1560:	06280513 			; <UNDEFINED> instruction: 0x06280513
    1564:	2e1f0501 	cfmul32cs	mvfx0, mvfx15, mvfx1
    1568:	052f0405 	streq	r0, [pc, #-1029]!	; 116b <__code_start__-0x6e95>
    156c:	0b052d1f 	bleq	14c9f0 <__bss_end__+0x141520>
    1570:	0e052f06 	cdpeq	15, 0, cr2, cr5, cr6, {0}
    1574:	04050106 	streq	r0, [r5], #-262	; 0xfffffefa
    1578:	0602052e 	streq	r0, [r2], -lr, lsr #10
    157c:	134a5903 	movtne	r5, #43267	; 0xa903
    1580:	2e060b05 	vmlacs.f64	d0, d6, d5
    1584:	30060205 	andcc	r0, r6, r5, lsl #4
    1588:	02060905 	andeq	r0, r6, #81920	; 0x14000
    158c:	04050d24 	streq	r0, [r5], #-3364	; 0xfffff2dc
    1590:	05133606 	ldreq	r3, [r3, #-1542]	; 0xfffff9fa
    1594:	05010606 	streq	r0, [r1, #-1542]	; 0xfffff9fa
    1598:	13670605 	cmnne	r7, #5242880	; 0x500000
    159c:	06090513 			; <UNDEFINED> instruction: 0x06090513
    15a0:	2b0d0511 	blcs	3429ec <__bss_end__+0x33751c>
    15a4:	05300b05 	ldreq	r0, [r0, #-2821]!	; 0xfffff4fb
    15a8:	1b052c0d 	blne	14c5e4 <__bss_end__+0x141114>
    15ac:	06040535 			; <UNDEFINED> instruction: 0x06040535
    15b0:	1305052d 	movwne	r0, #21805	; 0x552d
    15b4:	2e061b05 	vmlacs.f64	d1, d6, d5
    15b8:	05820a05 	streq	r0, [r2, #2565]	; 0xa05
    15bc:	0e052f04 	cdpeq	15, 0, cr2, cr5, cr4, {0}
    15c0:	490a052e 	stmdbmi	sl, {r1, r2, r3, r5, r8, sl}
    15c4:	2f060b05 	svccs	0x00060b05
    15c8:	01060405 	tsteq	r6, r5, lsl #8
    15cc:	06052f06 	streq	r2, [r5], -r6, lsl #30
    15d0:	05050106 	streq	r0, [r5, #-262]	; 0xfffffefa
    15d4:	0a052f06 	beq	14d1f4 <__bss_end__+0x141d24>
    15d8:	052e0106 	streq	r0, [lr, #-262]!	; 0xfffffefa
    15dc:	2e2e2e07 	cdpcs	14, 2, cr2, cr14, cr7, {0}
    15e0:	03060405 	movweq	r0, #25605	; 0x6405
    15e4:	0205010d 	andeq	r0, r5, #1073741827	; 0x40000003
    15e8:	01460306 	cmpeq	r6, r6, lsl #6
    15ec:	3a030905 	bcc	c3a08 <__bss_end__+0xb8538>
    15f0:	0604052e 	streq	r0, [r4], -lr, lsr #10
    15f4:	010d032f 	tsteq	sp, pc, lsr #6
    15f8:	15020501 	strne	r0, [r2, #-1281]	; 0xfffffaff
    15fc:	b2030e05 	andlt	r0, r3, #80	; 0x50
    1600:	0205017f 	andeq	r0, r5, #-1073741793	; 0xc000001f
    1604:	08051413 	stmdaeq	r5, {r0, r1, r4, sl, ip}
    1608:	06060501 	streq	r0, [r6], -r1, lsl #10
    160c:	2e3c0310 	mrccs	3, 1, r0, cr12, cr0, {0}
    1610:	46030205 	strmi	r0, [r3], -r5, lsl #4
    1614:	0530064a 	ldreq	r0, [r0, #-1610]!	; 0xfffff9b6
    1618:	2e010605 	cfmadd32cs	mvax0, mvfx0, mvfx1, mvfx5
    161c:	0602052e 	streq	r0, [r2], -lr, lsr #10
    1620:	0501064b 	streq	r0, [r1, #-1611]	; 0xfffff9b5
    1624:	0516060e 	ldreq	r0, [r6, #-1550]	; 0xfffff9f2
    1628:	15131402 	ldrne	r1, [r3, #-1026]	; 0xfffffbfe
    162c:	010b0515 	tsteq	fp, r5, lsl r5
    1630:	2e060205 	cdpcs	2, 0, cr0, cr6, cr5, {0}
    1634:	09053006 	stmdbeq	r5, {r1, r2, ip, sp}
    1638:	02050106 	andeq	r0, r5, #-2147483647	; 0x80000001
    163c:	01064c06 	tsteq	r6, r6, lsl #24
    1640:	38030105 	stmdacc	r3, {r0, r2, r8}
    1644:	03060501 	movweq	r0, #25857	; 0x6501
    1648:	02054a6e 	andeq	r4, r5, #450560	; 0x6e000
    164c:	4a664603 	bmi	1992e60 <__bss_end__+0x1987990>
    1650:	0604052e 	streq	r0, [r4], -lr, lsr #10
    1654:	0100c803 	tsteq	r0, r3, lsl #16
    1658:	06010101 	streq	r0, [r1], -r1, lsl #2
    165c:	4a06822e 	bmi	1a1f1c <__bss_end__+0x196a4c>
    1660:	052e7203 	streq	r7, [lr, #-515]!	; 0xfffffdfd
    1664:	05010609 	streq	r0, [r1, #-1545]	; 0xfffff9f7
    1668:	032f0604 			; <UNDEFINED> instruction: 0x032f0604
    166c:	0501010d 	streq	r0, [r1, #-269]	; 0xfffffef3
    1670:	0e051502 	cfsh32eq	mvfx1, mvfx5, #2
    1674:	017fb203 	cmneq	pc, r3, lsl #4
    1678:	14130205 	ldrne	r0, [r3], #-517	; 0xfffffdfb
    167c:	05010805 	streq	r0, [r1, #-2053]	; 0xfffff7fb
    1680:	1b030609 	blne	c2eac <__bss_end__+0xb79dc>
    1684:	03060501 	movweq	r0, #25857	; 0x6501
    1688:	3c032e63 	stccc	14, cr2, [r3], {99}	; 0x63
    168c:	052e2e2e 	streq	r2, [lr, #-3630]!	; 0xfffff1d2
    1690:	b4030648 	strlt	r0, [r3], #-1608	; 0xfffff9b8
    1694:	053c087f 	ldreq	r0, [ip, #-2175]!	; 0xfffff781
    1698:	06011305 	streq	r1, [r1], -r5, lsl #6
    169c:	0402002e 	streq	r0, [r2], #-46	; 0xffffffd2
    16a0:	002e0602 	eoreq	r0, lr, r2, lsl #12
    16a4:	01020402 	tsteq	r2, r2, lsl #8
    16a8:	02040200 	andeq	r0, r4, #0, 4
    16ac:	00110513 	andseq	r0, r1, r3, lsl r5
    16b0:	06020402 	streq	r0, [r2], -r2, lsl #8
    16b4:	00070501 	andeq	r0, r7, r1, lsl #10
    16b8:	2f020402 	svccs	0x00020402
    16bc:	02001105 	andeq	r1, r0, #1073741825	; 0x40000001
    16c0:	052d0204 	streq	r0, [sp, #-516]!	; 0xfffffdfc
    16c4:	04020005 	streq	r0, [r2], #-5
    16c8:	052f0602 	streq	r0, [pc, #-1538]!	; 10ce <__code_start__-0x6f32>
    16cc:	04020009 	streq	r0, [r2], #-9
    16d0:	0e051302 	cdpeq	3, 0, cr1, cr5, cr2, {0}
    16d4:	02040200 	andeq	r0, r4, #0, 4
    16d8:	05050106 	streq	r0, [r5, #-262]	; 0xfffffefa
    16dc:	01040200 	mrseq	r0, R12_usr
    16e0:	02006306 	andeq	r6, r0, #402653184	; 0x18000000
    16e4:	05010104 	streq	r0, [r1, #-260]	; 0xfffffefc
    16e8:	04020048 	streq	r0, [r2], #-72	; 0xffffffb8
    16ec:	05110601 	ldreq	r0, [r1, #-1537]	; 0xfffff9ff
    16f0:	04020005 	streq	r0, [r2], #-5
    16f4:	48052f01 	stmdami	r5, {r0, r8, r9, sl, fp, sp}
    16f8:	01040200 	mrseq	r0, R12_usr
    16fc:	0005052d 	andeq	r0, r5, sp, lsr #10
    1700:	2f010402 	svccs	0x00010402
    1704:	01040200 	mrseq	r0, R12_usr
    1708:	0402004a 	streq	r0, [r2], #-74	; 0xffffffb6
    170c:	02004a01 	andeq	r4, r0, #4096	; 0x1000
    1710:	4a060104 	bmi	181b28 <__bss_end__+0x176658>
    1714:	e1034005 	tst	r3, r5
    1718:	0106d600 	tsteq	r6, r0, lsl #12
    171c:	2e4e0905 	vmlacs.f16	s1, s28, s10	; <UNPREDICTABLE>
    1720:	05300805 	ldreq	r0, [r0, #-2053]!	; 0xfffff7fb
    1724:	1205291e 	andne	r2, r5, #491520	; 0x78000
    1728:	330d052e 	movwcc	r0, #54574	; 0xd52e
    172c:	45060205 	strmi	r0, [r6, #-517]	; 0xfffffdfb
    1730:	05130505 	ldreq	r0, [r3, #-1285]	; 0xfffffafb
    1734:	05051402 	streq	r1, [r5, #-1026]	; 0xfffffbfe
    1738:	13020513 	movwne	r0, #9491	; 0x2513
    173c:	05010805 	streq	r0, [r1, #-2053]	; 0xfffff7fb
    1740:	7a030640 	bvc	c3048 <__bss_end__+0xb7b78>
    1744:	0d052e01 	stceq	14, cr2, [r5, #-4]
    1748:	11056634 	tstne	r5, r4, lsr r6
    174c:	4a4a2003 	bmi	1289760 <__bss_end__+0x127e290>
    1750:	03060405 	movweq	r0, #25605	; 0x6405
    1754:	09050162 	stmdbeq	r5, {r1, r5, r6, r8}
    1758:	0f050106 	svceq	0x00050106
    175c:	0608052e 	streq	r0, [r8], -lr, lsr #10
    1760:	060d052c 	streq	r0, [sp], -ip, lsr #10
    1764:	0603052e 	streq	r0, [r3], -lr, lsr #10
    1768:	06050567 	streq	r0, [r5], -r7, ror #10
    176c:	06080501 	streq	r0, [r8], -r1, lsl #10
    1770:	060e054d 	streq	r0, [lr], -sp, asr #10
    1774:	2e0a0501 	cfsh32cs	mvfx0, mvfx10, #1
    1778:	052f0905 	streq	r0, [pc, #-2309]!	; e7b <__code_start__-0x7185>
    177c:	052f0604 	streq	r0, [pc, #-1540]!	; 1180 <__code_start__-0x6e80>
    1780:	05010607 	streq	r0, [r1, #-1543]	; 0xfffff9f9
    1784:	04052c0a 	streq	r2, [r5], #-3082	; 0xfffff3f6
    1788:	2d053206 	sfmcs	f3, 4, [r5, #-24]	; 0xffffffe8
    178c:	7f980306 	svcvc	0x00980306
    1790:	03090501 	movweq	r0, #38145	; 0x9501
    1794:	052e00ed 	streq	r0, [lr, #-237]!	; 0xffffff13
    1798:	07052c0d 	streq	r2, [r5, -sp, lsl #24]
    179c:	0604052b 	streq	r0, [r4], -fp, lsr #10
    17a0:	05141330 	ldreq	r1, [r4, #-816]	; 0xfffffcd0
    17a4:	0c050109 	stfeqs	f0, [r5], {9}
    17a8:	017f9303 	cmneq	pc, r3, lsl #6
    17ac:	06011d05 	streq	r1, [r1], -r5, lsl #26
    17b0:	03090501 	movweq	r0, #38145	; 0x9501
    17b4:	050100ed 	streq	r0, [r1, #-237]	; 0xffffff13
    17b8:	052f0605 	streq	r0, [pc, #-1541]!	; 11bb <__code_start__-0x6e45>
    17bc:	2e010612 	mcrcs	6, 0, r0, cr1, cr2, {0}
    17c0:	2f0b052d 	svccs	0x000b052d
    17c4:	2f060505 	svccs	0x00060505
    17c8:	05100905 	ldreq	r0, [r0, #-2309]	; 0xfffff6fb
    17cc:	7f93030c 	svcvc	0x0093030c
    17d0:	011d0501 	tsteq	sp, r1, lsl #10
    17d4:	01062d05 	tsteq	r6, r5, lsl #26
    17d8:	ed030905 	vstr.16	s0, [r3, #-10]
    17dc:	04052e00 	streq	r2, [r5], #-3584	; 0xfffff200
    17e0:	00014e06 	andeq	r4, r1, r6, lsl #28
    17e4:	4a020402 	bmi	827f4 <__bss_end__+0x77324>
    17e8:	02040200 	andeq	r0, r4, #0, 4
    17ec:	04020001 	streq	r0, [r2], #-1
    17f0:	02001502 	andeq	r1, r0, #8388608	; 0x800000
    17f4:	02060204 	andeq	r0, r6, #4, 4	; 0x40000000
    17f8:	02001236 	andeq	r1, r0, #1610612739	; 0x60000003
    17fc:	052e0204 	streq	r0, [lr, #-516]!	; 0xfffffdfc
    1800:	d1030602 	tstle	r3, r2, lsl #12
    1804:	07050100 	streq	r0, [r5, -r0, lsl #2]
    1808:	052e0106 	streq	r0, [lr, #-262]!	; 0xfffffefa
    180c:	052f0602 	streq	r0, [pc, #-1538]!	; 1212 <__code_start__-0x6dee>
    1810:	0501060b 	streq	r0, [r1, #-1547]	; 0xfffff9f5
    1814:	05052f01 	streq	r2, [r5, #-3841]	; 0xfffff0ff
    1818:	4a650306 	bmi	1942438 <__bss_end__+0x1936f68>
    181c:	01060905 	tsteq	r6, r5, lsl #18
    1820:	06050566 	streq	r0, [r5], -r6, ror #10
    1824:	0304059f 	movweq	r0, #17823	; 0x459f
    1828:	07050111 	smladeq	r5, r1, r1, r0
    182c:	04050106 	streq	r0, [r5], #-262	; 0xfffffefa
    1830:	0a053106 	beq	14dc50 <__bss_end__+0x142780>
    1834:	00130501 	andseq	r0, r3, r1, lsl #10
    1838:	06010402 	streq	r0, [r1], -r2, lsl #8
    183c:	0010052e 	andseq	r0, r0, lr, lsr #10
    1840:	2e010402 	cdpcs	4, 0, cr0, cr1, cr2, {0}
    1844:	4b060505 	blmi	182c60 <__bss_end__+0x177790>
    1848:	01060a05 	tsteq	r6, r5, lsl #20
    184c:	04052d06 	streq	r2, [r5], #-3334	; 0xfffff2fa
    1850:	11050106 	tstne	r5, r6, lsl #2
    1854:	7fb60306 	svcvc	0x00b60306
    1858:	00011366 	andeq	r1, r1, r6, ror #6
    185c:	06020402 	streq	r0, [r2], -r2, lsl #8
    1860:	01ba06ba 			; <UNDEFINED> instruction: 0x01ba06ba
    1864:	061a0514 			; <UNDEFINED> instruction: 0x061a0514
    1868:	052e2e13 	streq	r2, [lr, #-3603]!	; 0xfffff1ed
    186c:	05674e11 	strbeq	r4, [r7, #-3601]!	; 0xfffff1ef
    1870:	13056814 	movwne	r6, #22548	; 0x5814
    1874:	03150582 	tsteq	r5, #545259520	; 0x20800000
    1878:	11054a78 	tstne	r5, r8, ror sl
    187c:	13134b06 	tstne	r3, #6144	; 0x1800
    1880:	05141314 	ldreq	r1, [r4, #-788]	; 0xfffffcec
    1884:	05010613 	streq	r0, [r1, #-1555]	; 0xfffff9ed
    1888:	052f0609 	streq	r0, [pc, #-1545]!	; 1287 <__code_start__-0x6d79>
    188c:	2e01060d 	cfmadd32cs	mvax0, mvfx0, mvfx1, mvfx13
    1890:	bb09052e 	bllt	242d50 <__bss_end__+0x237880>
    1894:	059d0d05 	ldreq	r0, [sp, #3333]	; 0xd05
    1898:	052f0609 	streq	r0, [pc, #-1545]!	; 1297 <__code_start__-0x6d69>
    189c:	03062f15 	movweq	r2, #28437	; 0x6f15
    18a0:	0b034a75 	bleq	d427c <__bss_end__+0xc8dac>
    18a4:	05054a2e 	streq	r4, [r5, #-2606]	; 0xfffff5d2
    18a8:	01230306 			; <UNDEFINED> instruction: 0x01230306
    18ac:	01060905 	tsteq	r6, r5, lsl #18
    18b0:	0605052e 	streq	r0, [r5], -lr, lsr #10
    18b4:	2e6e03d7 	mcrcs	3, 3, r0, cr14, cr7, {6}
    18b8:	05010e03 	streq	r0, [r1, #-3587]	; 0xfffff1fd
    18bc:	05010609 	streq	r0, [r1, #-1545]	; 0xfffff9f7
    18c0:	10030605 	andne	r0, r3, r5, lsl #12
    18c4:	0301054a 	movweq	r0, #5450	; 0x154a
    18c8:	05017eed 	streq	r7, [r1, #-3821]	; 0xfffff113
    18cc:	13151402 	tstne	r5, #33554432	; 0x2000000
    18d0:	03040514 	movweq	r0, #17684	; 0x4514
    18d4:	0905011a 	stmdbeq	r5, {r1, r3, r4, r8}
    18d8:	02050106 	andeq	r0, r5, #-2147483647	; 0x80000001
    18dc:	052e4603 	streq	r4, [lr, #-1539]!	; 0xfffff9fd
    18e0:	2e3a0309 	cdpcs	3, 3, cr0, cr10, cr9, {0}
    18e4:	2f060405 	svccs	0x00060405
    18e8:	01010d03 	tsteq	r1, r3, lsl #26
    18ec:	05150205 	ldreq	r0, [r5, #-517]	; 0xfffffdfb
    18f0:	7fb2030e 	svcvc	0x00b2030e
    18f4:	13020501 	movwne	r0, #9473	; 0x2501
    18f8:	01080514 	tsteq	r8, r4, lsl r5
    18fc:	01060205 	tsteq	r6, r5, lsl #4
    1900:	059f0805 	ldreq	r0, [pc, #2053]	; 210d <__code_start__-0x5ef3>
    1904:	064a0603 	strbeq	r0, [sl], -r3, lsl #12
    1908:	2e080501 	cfsh32cs	mvfx0, mvfx8, #1
    190c:	2d061505 	cfstr32cs	mvfx1, [r6, #-20]	; 0xffffffec
    1910:	05010805 	streq	r0, [r1, #-2053]	; 0xfffff7fb
    1914:	01062f03 	tsteq	r6, r3, lsl #30
    1918:	052e0805 	streq	r0, [lr, #-2053]!	; 0xfffff7fb
    191c:	052d0615 	streq	r0, [sp, #-1557]!	; 0xfffff9eb
    1920:	03050108 	movweq	r0, #20744	; 0x5108
    1924:	0501062f 	streq	r0, [r1, #-1583]	; 0xfffff9d1
    1928:	15052e08 	strne	r2, [r5, #-3592]	; 0xfffff1f8
    192c:	08052d06 	stmdaeq	r5, {r1, r2, r8, sl, fp, sp}
    1930:	2f030501 	svccs	0x00030501
    1934:	08050106 	stmdaeq	r5, {r1, r2, r8}
    1938:	0615052e 	ldreq	r0, [r5], -lr, lsr #10
    193c:	0108052d 	tsteq	r8, sp, lsr #10
    1940:	062f0305 	strteq	r0, [pc], -r5, lsl #6
    1944:	2e080501 	cfsh32cs	mvfx0, mvfx8, #1
    1948:	2d061505 	cfstr32cs	mvfx1, [r6, #-20]	; 0xffffffec
    194c:	05010805 	streq	r0, [r1, #-2053]	; 0xfffff7fb
    1950:	01062f03 	tsteq	r6, r3, lsl #30
    1954:	052e0805 	streq	r0, [lr, #-2053]!	; 0xfffff7fb
    1958:	052d0615 	streq	r0, [sp, #-1557]!	; 0xfffff9eb
    195c:	03050108 	movweq	r0, #20744	; 0x5108
    1960:	06080513 			; <UNDEFINED> instruction: 0x06080513
    1964:	06150501 	ldreq	r0, [r5], -r1, lsl #10
    1968:	0108052d 	tsteq	r8, sp, lsr #10
    196c:	03056606 	movweq	r6, #22022	; 0x5606
    1970:	08056706 	stmdaeq	r5, {r1, r2, r8, r9, sl, sp, lr}
    1974:	18050106 	stmdane	r5, {r1, r2, r8}
    1978:	2e02052d 	cfsh32cs	mvfx0, mvfx2, #29
    197c:	052f0805 	streq	r0, [pc, #-2053]!	; 117f <__code_start__-0x6e81>
    1980:	052d0615 	streq	r0, [sp, #-1557]!	; 0xfffff9eb
    1984:	02050108 	andeq	r0, r5, #2
    1988:	03050106 	movweq	r0, #20742	; 0x5106
    198c:	18052f06 	stmdane	r5, {r1, r2, r8, r9, sl, fp, sp}
    1990:	02051106 	andeq	r1, r5, #-2147483647	; 0x80000001
    1994:	2f08052e 	svccs	0x0008052e
    1998:	2d061505 	cfstr32cs	mvfx1, [r6, #-20]	; 0xffffffec
    199c:	05010805 	streq	r0, [r1, #-2053]	; 0xfffff7fb
    19a0:	08051303 	stmdaeq	r5, {r0, r1, r8, r9, ip}
    19a4:	15050106 	strne	r0, [r5, #-262]	; 0xfffffefa
    19a8:	08052d06 	stmdaeq	r5, {r1, r2, r8, sl, fp, sp}
    19ac:	06050501 	streq	r0, [r5], -r1, lsl #10
    19b0:	02054a14 	andeq	r4, r5, #20, 20	; 0x14000
    19b4:	0e052e06 	cdpeq	14, 0, cr2, cr5, cr6, {0}
    19b8:	04051906 	streq	r1, [r5], #-2310	; 0xfffff6fa
    19bc:	2f11052f 	svccs	0x0011052f
    19c0:	054a0905 	strbeq	r0, [sl, #-2309]	; 0xfffff6fb
    19c4:	05053302 	streq	r3, [r5, #-770]	; 0xfffffcfe
    19c8:	052e7203 	streq	r7, [lr, #-515]!	; 0xfffffdfd
    19cc:	062f0602 	strteq	r0, [pc], -r2, lsl #12
    19d0:	060e0501 	streq	r0, [lr], -r1, lsl #10
    19d4:	14020516 	strne	r0, [r2], #-1302	; 0xfffffaea
    19d8:	13030513 	movwne	r0, #13587	; 0x3513
    19dc:	15140205 	ldrne	r0, [r4, #-517]	; 0xfffffdfb
    19e0:	05010b05 	streq	r0, [r1, #-2821]	; 0xfffff4fb
    19e4:	2e010602 	cfmadd32cs	mvax0, mvfx0, mvfx1, mvfx2
    19e8:	06030566 	streq	r0, [r3], -r6, ror #10
    19ec:	060a052f 	streq	r0, [sl], -pc, lsr #10
    19f0:	2d020501 	cfstr32cs	mvfx0, [r2, #-4]
    19f4:	052f0a05 	streq	r0, [pc, #-2565]!	; ff7 <__code_start__-0x7009>
    19f8:	052d0617 	streq	r0, [sp, #-1559]!	; 0xfffff9e9
    19fc:	0205010b 	andeq	r0, r5, #-1073741822	; 0xc0000002
    1a00:	4a4a0106 	bmi	1281e20 <__bss_end__+0x1276950>
    1a04:	03060505 	movweq	r0, #25861	; 0x6505
    1a08:	05010195 	streq	r0, [r1, #-405]	; 0xfffffe6b
    1a0c:	f8030611 			; <UNDEFINED> instruction: 0xf8030611
    1a10:	1b05017e 	blne	142010 <__bss_end__+0x136b40>
    1a14:	4a018803 	bmi	63a28 <__bss_end__+0x58558>
    1a18:	03060105 	movweq	r0, #24837	; 0x6105
    1a1c:	052e7ef3 	streq	r7, [lr, #-3827]!	; 0xfffff10d
    1a20:	13151402 	tstne	r5, #33554432	; 0x2000000
    1a24:	03190514 	tsteq	r9, #20, 10	; 0x5000000
    1a28:	1a050122 	bne	141eb8 <__bss_end__+0x1369e8>
    1a2c:	06280513 			; <UNDEFINED> instruction: 0x06280513
    1a30:	2e1f0501 	cfmul32cs	mvfx0, mvfx15, mvfx1
    1a34:	052f0405 	streq	r0, [pc, #-1029]!	; 1637 <__code_start__-0x69c9>
    1a38:	1f054a0e 	svcne	0x00054a0e
    1a3c:	060b052d 	streq	r0, [fp], -sp, lsr #10
    1a40:	0604052f 	streq	r0, [r4], -pc, lsr #10
    1a44:	01320601 	teqeq	r2, r1, lsl #12
    1a48:	05150205 	ldreq	r0, [r5, #-517]	; 0xfffffdfb
    1a4c:	7fb2030e 	svcvc	0x00b2030e
    1a50:	13020501 	movwne	r0, #9473	; 0x2501
    1a54:	01060605 	tsteq	r6, r5, lsl #12
    1a58:	30060205 	andcc	r0, r6, r5, lsl #4
    1a5c:	05010805 	streq	r0, [r1, #-2053]	; 0xfffff7fb
    1a60:	05010602 	streq	r0, [r1, #-1538]	; 0xfffff9fe
    1a64:	21080603 	tstcs	r8, r3, lsl #12
    1a68:	01060805 	tsteq	r6, r5, lsl #16
    1a6c:	49061505 	stmdbmi	r6, {r0, r2, r8, sl, ip}
    1a70:	05010805 	streq	r0, [r1, #-2053]	; 0xfffff7fb
    1a74:	0805d703 	stmdaeq	r5, {r0, r1, r8, r9, sl, ip, lr, pc}
    1a78:	18050106 	stmdane	r5, {r1, r2, r8}
    1a7c:	2e02052d 	cfsh32cs	mvfx0, mvfx2, #29
    1a80:	052f0805 	streq	r0, [pc, #-2053]!	; 1283 <__code_start__-0x6d7d>
    1a84:	052d0615 	streq	r0, [sp, #-1557]!	; 0xfffff9eb
    1a88:	02050108 	andeq	r0, r5, #2
    1a8c:	03050106 	movweq	r0, #20742	; 0x5106
    1a90:	18052f06 	stmdane	r5, {r1, r2, r8, r9, sl, fp, sp}
    1a94:	02051106 	andeq	r1, r5, #-2147483647	; 0x80000001
    1a98:	2f08052e 	svccs	0x0008052e
    1a9c:	2d061505 	cfstr32cs	mvfx1, [r6, #-20]	; 0xffffffec
    1aa0:	05010805 	streq	r0, [r1, #-2053]	; 0xfffff7fb
    1aa4:	08051303 	stmdaeq	r5, {r0, r1, r8, r9, ip}
    1aa8:	15050106 	strne	r0, [r5, #-262]	; 0xfffffefa
    1aac:	08052d06 	stmdaeq	r5, {r1, r2, r8, sl, fp, sp}
    1ab0:	06050501 	streq	r0, [r5], -r1, lsl #10
    1ab4:	06020514 			; <UNDEFINED> instruction: 0x06020514
    1ab8:	06040566 	streq	r0, [r4], -r6, ror #10
    1abc:	0305051a 	movweq	r0, #21786	; 0x551a
    1ac0:	02054a78 	andeq	r4, r5, #120, 20	; 0x78000
    1ac4:	01062f06 	tsteq	r6, r6, lsl #30
    1ac8:	16060e05 	strne	r0, [r6], -r5, lsl #28
    1acc:	13140205 	tstne	r4, #1342177280	; 0x50000000
    1ad0:	01060405 	tsteq	r6, r5, lsl #8
    1ad4:	2f060305 	svccs	0x00060305
    1ad8:	01061105 	tsteq	r6, r5, lsl #2
    1adc:	052e0905 	streq	r0, [lr, #-2309]!	; 0xfffff6fb
    1ae0:	15300602 	ldrne	r0, [r0, #-1538]!	; 0xfffff9fe
    1ae4:	05010b05 	streq	r0, [r1, #-2821]	; 0xfffff4fb
    1ae8:	4a010602 	bmi	432f8 <__bss_end__+0x37e28>
    1aec:	03052e4a 	movweq	r2, #24138	; 0x5e4a
    1af0:	0a052f06 	beq	14d710 <__bss_end__+0x142240>
    1af4:	02050106 	andeq	r0, r5, #-2147483647	; 0x80000001
    1af8:	2f0a052d 	svccs	0x000a052d
    1afc:	2d061705 	stccs	7, cr1, [r6, #-20]	; 0xffffffec
    1b00:	05010b05 	streq	r0, [r1, #-2821]	; 0xfffff4fb
    1b04:	4a010602 	bmi	43314 <__bss_end__+0x37e44>
    1b08:	0514062e 	ldreq	r0, [r4, #-1582]	; 0xfffff9d2
    1b0c:	05010609 	streq	r0, [r1, #-1545]	; 0xfffff9f7
    1b10:	064c0602 	strbeq	r0, [ip], -r2, lsl #12
    1b14:	06050501 	streq	r0, [r5], -r1, lsl #10
    1b18:	01019803 	tsteq	r1, r3, lsl #16
    1b1c:	0607052a 	streq	r0, [r7], -sl, lsr #10
    1b20:	06050501 	streq	r0, [r5], -r1, lsl #10
    1b24:	0318052f 	tsteq	r8, #197132288	; 0xbc00000
    1b28:	1b052e53 	blne	14d47c <__bss_end__+0x141fac>
    1b2c:	1a050106 	bne	141f4c <__bss_end__+0x136a7c>
    1b30:	06090582 	streq	r0, [r9], -r2, lsl #11
    1b34:	060d054b 	streq	r0, [sp], -fp, asr #10
    1b38:	09052e01 	stmdbeq	r5, {r0, r9, sl, fp, sp}
    1b3c:	9d0d05d7 	cfstr32ls	mvfx0, [sp, #-860]	; 0xfffffca4
    1b40:	2f060905 	svccs	0x00060905
    1b44:	05301505 	ldreq	r1, [r0, #-1285]!	; 0xfffffafb
    1b48:	05010618 	streq	r0, [r1, #-1560]	; 0xfffff9e8
    1b4c:	19056617 	stmdbne	r5, {r0, r1, r2, r4, r9, sl, sp, lr}
    1b50:	4917052f 	ldmdbmi	r7, {r0, r1, r2, r3, r5, r8, sl}
    1b54:	2f061905 	svccs	0x00061905
    1b58:	03061505 	movweq	r1, #25861	; 0x6505
    1b5c:	19052e6f 	stmdbne	r5, {r0, r1, r2, r3, r5, r6, r9, sl, fp, sp}
    1b60:	4a130306 	bmi	4c2780 <__bss_end__+0x4b72b0>
    1b64:	03061505 	movweq	r1, #25861	; 0x6505
    1b68:	054a2e6d 	strbeq	r2, [sl, #-3693]	; 0xfffff193
    1b6c:	7fa00302 	svcvc	0x00a00302
    1b70:	03066601 	movweq	r6, #26113	; 0x6601
    1b74:	05050172 	streq	r0, [r5, #-370]	; 0xfffffe8e
    1b78:	04050106 	streq	r0, [r5], #-262	; 0xfffffefa
    1b7c:	03050536 	movweq	r0, #21814	; 0x5536
    1b80:	02052e78 	andeq	r2, r5, #120, 28	; 0x780
    1b84:	01062f06 	tsteq	r6, r6, lsl #30
    1b88:	16060e05 	strne	r0, [r6], -r5, lsl #28
    1b8c:	13140205 	tstne	r4, #1342177280	; 0x50000000
    1b90:	01060405 	tsteq	r6, r5, lsl #8
    1b94:	0602054a 	streq	r0, [r2], -sl, asr #10
    1b98:	05017803 	streq	r7, [r1, #-2051]	; 0xfffff7fd
    1b9c:	4a010605 	bmi	433b8 <__bss_end__+0x37ee8>
    1ba0:	4b060205 	blmi	1823bc <__bss_end__+0x176eec>
    1ba4:	0e050106 	adfeqs	f0, f5, f6
    1ba8:	02051606 	andeq	r1, r5, #6291456	; 0x600000
    1bac:	15151314 	ldrne	r1, [r5, #-788]	; 0xfffffcec
    1bb0:	06010b05 	streq	r0, [r1], -r5, lsl #22
    1bb4:	0611052e 	ldreq	r0, [r1], -lr, lsr #10
    1bb8:	01019e03 	tsteq	r1, r3, lsl #28
    1bbc:	01062205 	tsteq	r6, r5, lsl #4
    1bc0:	052f0505 	streq	r0, [pc, #-1285]!	; 16c3 <__code_start__-0x693d>
    1bc4:	05052d22 	streq	r2, [r5, #-3362]	; 0xfffff2de
    1bc8:	11052f06 	tstne	r5, r6, lsl #30
    1bcc:	8305054b 	movwhi	r0, #21835	; 0x554b
    1bd0:	5c039e01 	stcpl	14, cr9, [r3], {1}
    1bd4:	059e012e 	ldreq	r0, [lr, #302]	; 0x12e
    1bd8:	f3030602 	vmax.u8	d0, d3, d2
    1bdc:	052e2e7e 	streq	r2, [lr, #-3710]!	; 0xfffff182
    1be0:	054a2c06 	strbeq	r2, [sl, #-3078]	; 0xfffff3fa
    1be4:	00d8030d 	sbcseq	r0, r8, sp, lsl #6
    1be8:	00040501 	andeq	r0, r4, r1, lsl #10
    1bec:	06010402 	streq	r0, [r1], -r2, lsl #8
    1bf0:	004a1103 	subeq	r1, sl, r3, lsl #2
    1bf4:	01010402 	tsteq	r1, r2, lsl #8
    1bf8:	51061105 	tstpl	r6, r5, lsl #2
    1bfc:	15059e06 	strne	r9, [r5, #-3590]	; 0xfffff1fa
    1c00:	012e1703 			; <UNDEFINED> instruction: 0x012e1703
    1c04:	031105ba 	tsteq	r1, #780140544	; 0x2e800000
    1c08:	02012e69 	andeq	r2, r1, #1680	; 0x690
    1c0c:	01010028 	tsteq	r1, r8, lsr #32
    1c10:	00000087 	andeq	r0, r0, r7, lsl #1
    1c14:	00640003 	rsbeq	r0, r4, r3
    1c18:	01020000 	mrseq	r0, (UNDEF: 2)
    1c1c:	000d0efb 	strdeq	r0, [sp], -fp
    1c20:	01010101 	tsteq	r1, r1, lsl #2
    1c24:	01000000 	mrseq	r0, (UNDEF: 0)
    1c28:	2e010000 	cdpcs	0, 0, cr0, cr1, cr0, {0}
    1c2c:	6174732f 	cmnvs	r4, pc, lsr #6
    1c30:	732d6666 			; <UNDEFINED> instruction: 0x732d6666
    1c34:	2f006372 	svccs	0x00006372
    1c38:	72657355 	rsbvc	r7, r5, #1409286145	; 0x54000001
    1c3c:	696d2f73 	stmdbvs	sp!, {r0, r1, r4, r5, r6, r8, r9, sl, fp, sp}^
    1c40:	2f73656c 	svccs	0x0073656c
    1c44:	72756f53 	rsbsvc	r6, r5, #332	; 0x14c
    1c48:	632f6563 			; <UNDEFINED> instruction: 0x632f6563
    1c4c:	30343273 	eorscc	r3, r4, r3, ror r2
    1c50:	6c2f786c 	stcvs	8, cr7, [pc], #-432	; 1aa8 <__code_start__-0x6558>
    1c54:	69706269 	ldmdbvs	r0!, {r0, r3, r5, r6, r9, sp, lr}^
    1c58:	636e692f 	cmnvs	lr, #770048	; 0xbc000
    1c5c:	6564756c 	strbvs	r7, [r4, #-1388]!	; 0xfffffa94
    1c60:	6c630000 	stclvs	0, cr0, [r3], #-0
    1c64:	2d6e6165 	stfcse	f6, [lr, #-404]!	; 0xfffffe6c
    1c68:	6f626572 	svcvs	0x00626572
    1c6c:	632e746f 			; <UNDEFINED> instruction: 0x632e746f
    1c70:	00000100 	andeq	r0, r0, r0, lsl #2
    1c74:	2e697072 	mcrcs	0, 3, r7, cr9, cr2, {3}
    1c78:	00020068 	andeq	r0, r2, r8, rrx
    1c7c:	19050000 	stmdbne	r5, {}	; <UNPREDICTABLE>
    1c80:	f4020500 	vst3.8	{d0,d2,d4}, [r2], r0
    1c84:	1500009b 	strne	r0, [r0, #-155]	; 0xffffff65
    1c88:	05130505 	ldreq	r0, [r3, #-1285]	; 0xfffffafb
    1c8c:	052d0619 	streq	r0, [sp, #-1561]!	; 0xfffff9e7
    1c90:	67062f05 	strvs	r2, [r6, -r5, lsl #30]
    1c94:	06024b2f 	streq	r4, [r2], -pc, lsr #22
    1c98:	76010100 	strvc	r0, [r1], -r0, lsl #2
    1c9c:	03000001 	movweq	r0, #1
    1ca0:	00005e00 	andeq	r5, r0, r0, lsl #28
    1ca4:	fb010200 	blx	424ae <__bss_end__+0x36fde>
    1ca8:	01000d0e 	tsteq	r0, lr, lsl #26
    1cac:	00010101 	andeq	r0, r1, r1, lsl #2
    1cb0:	00010000 	andeq	r0, r1, r0
    1cb4:	2f2e0100 	svccs	0x002e0100
    1cb8:	66617473 			; <UNDEFINED> instruction: 0x66617473
    1cbc:	72732d66 	rsbsvc	r2, r3, #6528	; 0x1980
    1cc0:	552f0063 	strpl	r0, [pc, #-99]!	; 1c65 <__code_start__-0x639b>
    1cc4:	73726573 	cmnvc	r2, #482344960	; 0x1cc00000
    1cc8:	6c696d2f 	stclvs	13, cr6, [r9], #-188	; 0xffffff44
    1ccc:	532f7365 			; <UNDEFINED> instruction: 0x532f7365
    1cd0:	6372756f 	cmnvs	r2, #465567744	; 0x1bc00000
    1cd4:	73632f65 	cmnvc	r3, #404	; 0x194
    1cd8:	6c303432 	cfldrsvs	mvf3, [r0], #-200	; 0xffffff38
    1cdc:	696c2f78 	stmdbvs	ip!, {r3, r4, r5, r6, r8, r9, sl, fp, sp}^
    1ce0:	2f697062 	svccs	0x00697062
    1ce4:	6c636e69 	stclvs	14, cr6, [r3], #-420	; 0xfffffe5c
    1ce8:	00656475 	rsbeq	r6, r5, r5, ror r4
    1cec:	74736300 	ldrbtvc	r6, [r3], #-768	; 0xfffffd00
    1cf0:	2e747261 	cdpcs	2, 7, cr7, cr4, cr1, {3}
    1cf4:	00010063 	andeq	r0, r1, r3, rrx
    1cf8:	69707200 	ldmdbvs	r0!, {r9, ip, sp, lr}^
    1cfc:	0200682e 	andeq	r6, r0, #3014656	; 0x2e0000
    1d00:	05000000 	streq	r0, [r0, #-0]
    1d04:	02050010 	andeq	r0, r5, #16, 0
    1d08:	00009c20 	andeq	r9, r0, r0, lsr #24
    1d0c:	05011003 	streq	r1, [r1, #-3]
    1d10:	02051305 	andeq	r1, r5, #335544320	; 0x14000000
    1d14:	14050513 	strne	r0, [r5], #-1299	; 0xfffffaed
    1d18:	0e061005 	cdpeq	0, 0, cr1, cr6, cr5, {0}
    1d1c:	06320505 	ldrteq	r0, [r2], -r5, lsl #10
    1d20:	05141330 	ldreq	r1, [r4, #-816]	; 0xfffffcd0
    1d24:	0905010a 	stmdbeq	r5, {r1, r3, r8}
    1d28:	10059108 	andne	r9, r5, r8, lsl #2
    1d2c:	0a050106 	beq	14214c <__bss_end__+0x136c7c>
    1d30:	6a10059a 	bvs	4033a0 <__bss_end__+0x3f7ed0>
    1d34:	2d060a05 	vstrcs	s0, [r6, #-20]	; 0xffffffec
    1d38:	052f0905 	streq	r0, [pc, #-2309]!	; 143b <__code_start__-0x6bc5>
    1d3c:	05010610 	streq	r0, [r1, #-1552]	; 0xfffff9f0
    1d40:	052d060a 	streq	r0, [sp, #-1546]!	; 0xfffff9f6
    1d44:	1005bb09 	andne	fp, r5, r9, lsl #22
    1d48:	0a050106 	beq	142168 <__bss_end__+0x136c98>
    1d4c:	09056506 	stmdbeq	r5, {r1, r2, r8, sl, sp, lr}
    1d50:	060d054b 	streq	r0, [sp], -fp, asr #10
    1d54:	2d0a0501 	cfstr32cs	mvfx0, [sl, #-4]
    1d58:	052f1005 	streq	r1, [pc, #-5]!	; 1d5b <__code_start__-0x62a5>
    1d5c:	052d060a 	streq	r0, [sp, #-1546]!	; 0xfffff9f6
    1d60:	0d052f09 	stceq	15, cr2, [r5, #-36]	; 0xffffffdc
    1d64:	0a050106 	beq	142184 <__bss_end__+0x136cb4>
    1d68:	2f10052d 	svccs	0x0010052d
    1d6c:	2d060a05 	vstrcs	s0, [r6, #-20]	; 0xffffffec
    1d70:	052f0905 	streq	r0, [pc, #-2309]!	; 1473 <__code_start__-0x6b8d>
    1d74:	0501060d 	streq	r0, [r1, #-1549]	; 0xfffff9f3
    1d78:	10052d0a 	andne	r2, r5, sl, lsl #26
    1d7c:	060a052f 	streq	r0, [sl], -pc, lsr #10
    1d80:	2f09052d 	svccs	0x0009052d
    1d84:	01060d05 	tsteq	r6, r5, lsl #26
    1d88:	052d0a05 	streq	r0, [sp, #-2565]!	; 0xfffff5fb
    1d8c:	0a052f10 	beq	14d9d4 <__bss_end__+0x142504>
    1d90:	09052d06 	stmdbeq	r5, {r1, r2, r8, sl, fp, sp}
    1d94:	06100513 			; <UNDEFINED> instruction: 0x06100513
    1d98:	060a0501 	streq	r0, [sl], -r1, lsl #10
    1d9c:	1505052d 	strne	r0, [r5, #-1325]	; 0xfffffad3
    1da0:	4a010132 	bmi	42270 <__bss_end__+0x36da0>
    1da4:	03110514 	tsteq	r1, #20, 10	; 0x5000000
    1da8:	05050161 	streq	r0, [r5, #-353]	; 0xfffffe9f
    1dac:	05141413 	ldreq	r1, [r4, #-1043]	; 0xfffffbed
    1db0:	2e010114 	mcrcs	1, 0, r0, cr1, cr4, {0}
    1db4:	05050106 	streq	r0, [r5, #-262]	; 0xfffffefa
    1db8:	05151306 	ldreq	r1, [r5, #-774]	; 0xfffffcfa
    1dbc:	0501060a 	streq	r0, [r1, #-1546]	; 0xfffff9f6
    1dc0:	064b0605 	strbeq	r0, [fp], -r5, lsl #12
    1dc4:	16030601 	strne	r0, [r3], -r1, lsl #12
    1dc8:	11052f01 	tstne	r5, r1, lsl #30
    1dcc:	05015f03 	streq	r5, [r1, #-3843]	; 0xfffff0fd
    1dd0:	14141305 	ldrne	r1, [r4], #-773	; 0xfffffcfb
    1dd4:	01011405 	tsteq	r1, r5, lsl #8
    1dd8:	0501062e 	streq	r0, [r1, #-1582]	; 0xfffff9d2
    1ddc:	05130605 	ldreq	r0, [r3, #-1541]	; 0xfffff9fb
    1de0:	05010608 	streq	r0, [r1, #-1544]	; 0xfffff9f8
    1de4:	2e1c0305 	cdpcs	3, 1, cr0, cr12, cr5, {0}
    1de8:	64030705 	strvs	r0, [r3], #-1797	; 0xfffff8fb
    1dec:	0609052e 	streq	r0, [r9], -lr, lsr #10
    1df0:	060e052f 	streq	r0, [lr], -pc, lsr #10
    1df4:	06050501 	streq	r0, [r5], -r1, lsl #10
    1df8:	060a0530 			; <UNDEFINED> instruction: 0x060a0530
    1dfc:	06050501 	streq	r0, [r5], -r1, lsl #10
    1e00:	0601062f 	streq	r0, [r1], -pc, lsr #12
    1e04:	05011803 	streq	r1, [r1, #-2051]	; 0xfffff7fd
    1e08:	0a053002 	beq	14de18 <__bss_end__+0x142948>
    1e0c:	2e6f0306 	cdpcs	3, 6, cr0, cr15, cr6, {0}
    1e10:	01000c02 	tsteq	r0, r2, lsl #24
    1e14:	00007d01 	andeq	r7, r0, r1, lsl #26
    1e18:	65000300 	strvs	r0, [r0, #-768]	; 0xfffffd00
    1e1c:	02000000 	andeq	r0, r0, #0, 0
    1e20:	0d0efb01 	vstreq	d15, [lr, #-4]
    1e24:	01010100 	mrseq	r0, (UNDEF: 17)
    1e28:	00000001 	andeq	r0, r0, r1
    1e2c:	01000001 	tsteq	r0, r1
    1e30:	74732f2e 	ldrbtvc	r2, [r3], #-3886	; 0xfffff0d2
    1e34:	2d666661 	stclcs	6, cr6, [r6, #-388]!	; 0xfffffe7c
    1e38:	00637273 	rsbeq	r7, r3, r3, ror r2
    1e3c:	6573552f 	ldrbvs	r5, [r3, #-1327]!	; 0xfffffad1
    1e40:	6d2f7372 	stcvs	3, cr7, [pc, #-456]!	; 1c80 <__code_start__-0x6380>
    1e44:	73656c69 	cmnvc	r5, #26880	; 0x6900
    1e48:	756f532f 	strbvc	r5, [pc, #-815]!	; 1b21 <__code_start__-0x64df>
    1e4c:	2f656372 	svccs	0x00656372
    1e50:	34327363 	ldrtcc	r7, [r2], #-867	; 0xfffffc9d
    1e54:	2f786c30 	svccs	0x00786c30
    1e58:	7062696c 	rsbvc	r6, r2, ip, ror #18
    1e5c:	6e692f69 	cdpvs	15, 6, cr2, cr9, cr9, {3}
    1e60:	64756c63 	ldrbtvs	r6, [r5], #-3171	; 0xfffff39d
    1e64:	63000065 	movwvs	r0, #101	; 0x65
    1e68:	6f747375 	svcvs	0x00747375
    1e6c:	6f6c2d6d 	svcvs	0x006c2d6d
    1e70:	72656461 	rsbvc	r6, r5, #1627389952	; 0x61000000
    1e74:	0100632e 	tsteq	r0, lr, lsr #6
    1e78:	70720000 	rsbsvc	r0, r2, r0
    1e7c:	00682e69 	rsbeq	r2, r8, r9, ror #28
    1e80:	00000002 	andeq	r0, r0, r2
    1e84:	05001a05 	streq	r1, [r0, #-2565]	; 0xfffff5fb
    1e88:	009d4802 	addseq	r4, sp, r2, lsl #16
    1e8c:	01051500 	tsteq	r5, r0, lsl #10
    1e90:	00020214 	andeq	r0, r2, r4, lsl r2
    1e94:	01140101 	tsteq	r4, r1, lsl #2
    1e98:	00030000 	andeq	r0, r3, r0
    1e9c:	0000005e 	andeq	r0, r0, lr, asr r0
    1ea0:	0efb0102 	cdpeq	1, 15, cr0, cr11, cr2, {0}
    1ea4:	0101000d 	tsteq	r1, sp
    1ea8:	00000101 	andeq	r0, r0, r1, lsl #2
    1eac:	00000100 	andeq	r0, r0, r0, lsl #2
    1eb0:	732f2e01 			; <UNDEFINED> instruction: 0x732f2e01
    1eb4:	66666174 			; <UNDEFINED> instruction: 0x66666174
    1eb8:	6372732d 	cmnvs	r2, #-1275068416	; 0xb4000000
    1ebc:	73552f00 	cmpvc	r5, #0, 30
    1ec0:	2f737265 	svccs	0x00737265
    1ec4:	656c696d 	strbvs	r6, [ip, #-2413]!	; 0xfffff693
    1ec8:	6f532f73 	svcvs	0x00532f73
    1ecc:	65637275 	strbvs	r7, [r3, #-629]!	; 0xfffffd8b
    1ed0:	3273632f 	rsbscc	r6, r3, #-1140850688	; 0xbc000000
    1ed4:	786c3034 	stmdavc	ip!, {r2, r4, r5, ip, sp}^
    1ed8:	62696c2f 	rsbvs	r6, r9, #12032	; 0x2f00
    1edc:	692f6970 	stmdbvs	pc!, {r4, r5, r6, r8, fp, sp, lr}	; <UNPREDICTABLE>
    1ee0:	756c636e 	strbvc	r6, [ip, #-878]!	; 0xfffffc92
    1ee4:	00006564 	andeq	r6, r0, r4, ror #10
    1ee8:	6f626572 	svcvs	0x00626572
    1eec:	632e746f 			; <UNDEFINED> instruction: 0x632e746f
    1ef0:	00000100 	andeq	r0, r0, r0, lsl #2
    1ef4:	2e697072 	mcrcs	0, 3, r7, cr9, cr2, {3}
    1ef8:	00020068 	andeq	r0, r2, r8, rrx
    1efc:	19050000 	stmdbne	r5, {}	; <UNPREDICTABLE>
    1f00:	4c020500 	cfstr32mi	mvfx0, [r2], {-0}
    1f04:	0300009d 	movweq	r0, #157	; 0x9d
    1f08:	0505010d 	streq	r0, [r5, #-269]	; 0xfffffef3
    1f0c:	05311313 	ldreq	r1, [r1, #-787]!	; 0xfffffced
    1f10:	05010613 	streq	r0, [r1, #-1555]	; 0xfffff9ed
    1f14:	1b052f01 	blne	14db20 <__bss_end__+0x142650>
    1f18:	05058506 	streq	r8, [r5, #-1286]	; 0xfffffafa
    1f1c:	09051413 	stmdbeq	r5, {r0, r1, r4, sl, ip}
    1f20:	0616052f 	ldreq	r0, [r6], -pc, lsr #10
    1f24:	06050501 	streq	r0, [r5], -r1, lsl #10
    1f28:	060e052f 	streq	r0, [lr], -pc, lsr #10
    1f2c:	2f050511 	svccs	0x00050511
    1f30:	052f0105 	streq	r0, [pc, #-261]!	; 1e33 <__code_start__-0x61cd>
    1f34:	05300617 	ldreq	r0, [r0, #-1559]!	; 0xfffff9e9
    1f38:	6e031305 	cdpvs	3, 0, cr1, cr3, cr5, {0}
    1f3c:	05131301 	ldreq	r1, [r3, #-769]	; 0xfffffcff
    1f40:	0f030617 	svceq	0x00030617
    1f44:	03050501 	movweq	r0, #21761	; 0x5501
    1f48:	31062e71 	tstcc	r6, r1, ror lr
    1f4c:	01061305 	tsteq	r6, r5, lsl #6
    1f50:	0d030705 	stceq	7, cr0, [r3, #-20]	; 0xffffffec
    1f54:	0609052e 	streq	r0, [r9], -lr, lsr #10
    1f58:	0306054b 	movweq	r0, #25931	; 0x654b
    1f5c:	05050176 	streq	r0, [r5, #-374]	; 0xfffffe8a
    1f60:	09051413 	stmdbeq	r5, {r0, r1, r4, sl, ip}
    1f64:	0616052f 	ldreq	r0, [r6], -pc, lsr #10
    1f68:	06050501 	streq	r0, [r5], -r1, lsl #10
    1f6c:	060e052f 	streq	r0, [lr], -pc, lsr #10
    1f70:	2f050511 	svccs	0x00050511
    1f74:	0a03062e 	beq	c3834 <__bss_end__+0xb8364>
    1f78:	4d2f3001 	stcmi	0, cr3, [pc, #-4]!	; 1f7c <__code_start__-0x6084>
    1f7c:	15131313 	ldrne	r1, [r3, #-787]	; 0xfffffced
    1f80:	04020067 	streq	r0, [r2], #-103	; 0xffffff99
    1f84:	0d056701 	stceq	7, cr6, [r5, #-4]
    1f88:	01040200 	mrseq	r0, R12_usr
    1f8c:	000a0501 	andeq	r0, sl, r1, lsl #10
    1f90:	01010402 	tsteq	r1, r2, lsl #8
    1f94:	02000505 	andeq	r0, r0, #20971520	; 0x1400000
    1f98:	05010104 	streq	r0, [r1, #-260]	; 0xfffffefc
    1f9c:	0402000d 	streq	r0, [r2], #-13
    1fa0:	0a050101 	beq	1423ac <__bss_end__+0x136edc>
    1fa4:	01040200 	mrseq	r0, R12_usr
    1fa8:	000a0201 	andeq	r0, sl, r1, lsl #4
    1fac:	01fa0101 	mvnseq	r0, r1, lsl #2
    1fb0:	00030000 	andeq	r0, r3, r0
    1fb4:	0000005d 	andeq	r0, r0, sp, asr r0
    1fb8:	0efb0102 	cdpeq	1, 15, cr0, cr11, cr2, {0}
    1fbc:	0101000d 	tsteq	r1, sp
    1fc0:	00000101 	andeq	r0, r0, r1, lsl #2
    1fc4:	00000100 	andeq	r0, r0, r0, lsl #2
    1fc8:	732f2e01 			; <UNDEFINED> instruction: 0x732f2e01
    1fcc:	66666174 			; <UNDEFINED> instruction: 0x66666174
    1fd0:	6372732d 	cmnvs	r2, #-1275068416	; 0xb4000000
    1fd4:	73552f00 	cmpvc	r5, #0, 30
    1fd8:	2f737265 	svccs	0x00737265
    1fdc:	656c696d 	strbvs	r6, [ip, #-2413]!	; 0xfffff693
    1fe0:	6f532f73 	svcvs	0x00532f73
    1fe4:	65637275 	strbvs	r7, [r3, #-629]!	; 0xfffffd8b
    1fe8:	3273632f 	rsbscc	r6, r3, #-1140850688	; 0xbc000000
    1fec:	786c3034 	stmdavc	ip!, {r2, r4, r5, ip, sp}^
    1ff0:	62696c2f 	rsbvs	r6, r9, #12032	; 0x2f00
    1ff4:	692f6970 	stmdbvs	pc!, {r4, r5, r6, r8, fp, sp, lr}	; <UNPREDICTABLE>
    1ff8:	756c636e 	strbvc	r6, [ip, #-878]!	; 0xfffffc92
    1ffc:	00006564 	andeq	r6, r0, r4, ror #10
    2000:	656d6974 	strbvs	r6, [sp, #-2420]!	; 0xfffff68c
    2004:	00632e72 	rsbeq	r2, r3, r2, ror lr
    2008:	72000001 	andvc	r0, r0, #1, 0
    200c:	682e6970 	stmdavs	lr!, {r4, r5, r6, r8, fp, sp, lr}
    2010:	00000200 	andeq	r0, r0, r0, lsl #4
    2014:	00230500 	eoreq	r0, r3, r0, lsl #10
    2018:	9dd80205 	lfmls	f0, 2, [r8, #20]
    201c:	05150000 	ldreq	r0, [r5, #-0]
    2020:	0c051305 	stceq	3, cr1, [r5], {5}
    2024:	1f050106 	svcne	0x00050106
    2028:	05056a06 	streq	r6, [r5, #-2566]	; 0xfffff5fa
    202c:	061f0515 			; <UNDEFINED> instruction: 0x061f0515
    2030:	3105050f 	tstcc	r5, pc, lsl #10
    2034:	0a052f06 	beq	14dc54 <__bss_end__+0x142784>
    2038:	05017703 	streq	r7, [r1, #-1795]	; 0xfffff8fd
    203c:	0c051305 	stceq	3, cr1, [r5], {5}
    2040:	05660106 	strbeq	r0, [r6, #-262]!	; 0xfffffefa
    2044:	09030605 	stmdbeq	r3, {r0, r2, r9, sl}
    2048:	01052f01 	tsteq	r5, r1, lsl #30
    204c:	1c051306 	stcne	3, cr1, [r5], {6}
    2050:	05056806 	streq	r6, [r5, #-2054]	; 0xfffff7fa
    2054:	030a0513 	movweq	r0, #42259	; 0xa513
    2058:	05050176 	streq	r0, [r5, #-374]	; 0xfffffe8a
    205c:	061c0515 			; <UNDEFINED> instruction: 0x061c0515
    2060:	05052e18 	streq	r2, [r5, #-3608]	; 0xfffff1e8
    2064:	062e7a03 	strteq	r7, [lr], -r3, lsl #20
    2068:	030a052f 	movweq	r0, #42287	; 0xa52f
    206c:	05050177 	streq	r0, [r5, #-375]	; 0xfffffe89
    2070:	060c0513 			; <UNDEFINED> instruction: 0x060c0513
    2074:	05056601 	streq	r6, [r5, #-1537]	; 0xfffff9ff
    2078:	01090306 	tsteq	r9, r6, lsl #6
    207c:	0501062f 	streq	r0, [r1, #-1583]	; 0xfffff9d1
    2080:	0176030c 	cmneq	r6, ip, lsl #6
    2084:	03060505 	movweq	r0, #25861	; 0x6505
    2088:	09052e0f 	stmdbeq	r5, {r0, r1, r2, r3, r9, sl, fp, sp}
    208c:	030a0513 	movweq	r0, #42259	; 0xa513
    2090:	05050174 	streq	r0, [r5, #-372]	; 0xfffffe8c
    2094:	0a052f15 	beq	14dcf0 <__bss_end__+0x142820>
    2098:	05017703 	streq	r7, [r1, #-1795]	; 0xfffff8fd
    209c:	0c051305 	stceq	3, cr1, [r5], {5}
    20a0:	05660106 	strbeq	r0, [r6, #-262]!	; 0xfffffefa
    20a4:	09030605 	stmdbeq	r3, {r0, r2, r9, sl}
    20a8:	06110501 	ldreq	r0, [r1], -r1, lsl #10
    20ac:	0305051a 	movweq	r0, #21786	; 0x551a
    20b0:	2f062e78 	svccs	0x00062e78
    20b4:	05190905 	ldreq	r0, [r9, #-2309]	; 0xfffff6fb
    20b8:	0501060c 	streq	r0, [r1, #-1548]	; 0xfffff9f4
    20bc:	0587061c 	streq	r0, [r7, #1564]	; 0x61c
    20c0:	1c051305 	stcne	3, cr1, [r5], {5}
    20c4:	05051106 	streq	r1, [r5, #-262]	; 0xfffffefa
    20c8:	06054a2f 	streq	r4, [r5], -pc, lsr #20
    20cc:	2e760306 	cdpcs	3, 7, cr0, cr6, cr6, {0}
    20d0:	05130505 	ldreq	r0, [r3, #-1285]	; 0xfffffafb
    20d4:	0176030a 	cmneq	r6, sl, lsl #6
    20d8:	2f150505 	svccs	0x00150505
    20dc:	77030a05 	strvc	r0, [r3, -r5, lsl #20]
    20e0:	13050501 	movwne	r0, #21761	; 0x5501
    20e4:	01060c05 	tsteq	r6, r5, lsl #24
    20e8:	06050566 	streq	r0, [r5], -r6, ror #10
    20ec:	2f010903 	svccs	0x00010903
    20f0:	0c050106 	stfeqs	f0, [r5], {6}
    20f4:	05017603 	streq	r7, [r1, #-1539]	; 0xfffff9fd
    20f8:	0f030605 	svceq	0x00030605
    20fc:	1309052e 	movwne	r0, #38190	; 0x952e
    2100:	74030a05 	strvc	r0, [r3], #-2565	; 0xfffff5fb
    2104:	15050501 	strne	r0, [r5, #-1281]	; 0xfffffaff
    2108:	030a052f 	movweq	r0, #42287	; 0xa52f
    210c:	05050177 	streq	r0, [r5, #-375]	; 0xfffffe89
    2110:	060c0513 			; <UNDEFINED> instruction: 0x060c0513
    2114:	05056601 	streq	r6, [r5, #-1537]	; 0xfffff9ff
    2118:	01090306 	tsteq	r9, r6, lsl #6
    211c:	1a061105 	bne	186538 <__bss_end__+0x17b068>
    2120:	78030505 	stmdavc	r3, {r0, r2, r8, sl}
    2124:	052f062e 	streq	r0, [pc, #-1582]!	; 1afe <__code_start__-0x6502>
    2128:	0c051909 			; <UNDEFINED> instruction: 0x0c051909
    212c:	1e050106 	adfnes	f0, f5, f6
    2130:	05058a06 	streq	r8, [r5, #-2566]	; 0xfffff5fa
    2134:	0e060513 	mcreq	5, 0, r0, cr6, cr3, {0}
    2138:	05130505 	ldreq	r0, [r3, #-1285]	; 0xfffffafb
    213c:	0514061e 	ldreq	r0, [r4, #-1566]	; 0xfffff9e2
    2140:	05662c05 	strbeq	r2, [r6, #-3077]!	; 0xfffff3fb
    2144:	76030606 	strvc	r0, [r3], -r6, lsl #12
    2148:	1305052e 	movwne	r0, #21806	; 0x552e
    214c:	76030a05 	strvc	r0, [r3], -r5, lsl #20
    2150:	15050501 	strne	r0, [r5, #-1281]	; 0xfffffaff
    2154:	030a052f 	movweq	r0, #42287	; 0xa52f
    2158:	05050177 	streq	r0, [r5, #-375]	; 0xfffffe89
    215c:	060c0513 			; <UNDEFINED> instruction: 0x060c0513
    2160:	05056601 	streq	r6, [r5, #-1537]	; 0xfffff9ff
    2164:	01090306 	tsteq	r9, r6, lsl #6
    2168:	0501062f 	streq	r0, [r1, #-1583]	; 0xfffff9d1
    216c:	0176030c 	cmneq	r6, ip, lsl #6
    2170:	03060505 	movweq	r0, #25861	; 0x6505
    2174:	09052e0f 	stmdbeq	r5, {r0, r1, r2, r3, r9, sl, fp, sp}
    2178:	030a0513 	movweq	r0, #42259	; 0xa513
    217c:	05050174 	streq	r0, [r5, #-372]	; 0xfffffe8c
    2180:	0a052f15 	beq	14dddc <__bss_end__+0x14290c>
    2184:	05017703 	streq	r7, [r1, #-1795]	; 0xfffff8fd
    2188:	0c051305 	stceq	3, cr1, [r5], {5}
    218c:	05660106 	strbeq	r0, [r6, #-262]!	; 0xfffffefa
    2190:	09030605 	stmdbeq	r3, {r0, r2, r9, sl}
    2194:	06110501 	ldreq	r0, [r1], -r1, lsl #10
    2198:	0305051a 	movweq	r0, #21786	; 0x551a
    219c:	2f062e78 	svccs	0x00062e78
    21a0:	05190905 	ldreq	r0, [r9, #-2309]	; 0xfffff6fb
    21a4:	0201060c 	andeq	r0, r1, #12, 12	; 0xc00000
    21a8:	01010008 	tsteq	r1, r8
    21ac:	00000204 	andeq	r0, r0, r4, lsl #4
    21b0:	00c80003 	sbceq	r0, r8, r3
    21b4:	01020000 	mrseq	r0, (UNDEF: 2)
    21b8:	000d0efb 	strdeq	r0, [sp], -fp
    21bc:	01010101 	tsteq	r1, r1, lsl #2
    21c0:	01000000 	mrseq	r0, (UNDEF: 0)
    21c4:	2f010000 	svccs	0x00010000
    21c8:	656d6f68 	strbvs	r6, [sp, #-3944]!	; 0xfffff098
    21cc:	676e652f 	strbvs	r6, [lr, -pc, lsr #10]!
    21d0:	2f72656c 	svccs	0x0072656c
    21d4:	73616c63 	cmnvc	r1, #25344	; 0x6300
    21d8:	73632f73 	cmnvc	r3, #460	; 0x1cc
    21dc:	65303431 	ldrvs	r3, [r0, #-1073]!	; 0xfffffbcf
    21e0:	7732322d 	ldrvc	r3, [r2, -sp, lsr #4]!
    21e4:	2f2f6e69 	svccs	0x002f6e69
    21e8:	7062696c 	rsbvc	r6, r2, ip, ror #18
    21ec:	6e692f69 	cdpvs	15, 6, cr2, cr9, cr9, {3}
    21f0:	64756c63 	ldrbtvs	r6, [r5], #-3171	; 0xfffff39d
    21f4:	752f0065 	strvc	r0, [pc, #-101]!	; 2197 <__code_start__-0x5e69>
    21f8:	732f7273 			; <UNDEFINED> instruction: 0x732f7273
    21fc:	65726168 	ldrbvs	r6, [r2, #-360]!	; 0xfffffe98
    2200:	6363672f 	cmnvs	r3, #12320768	; 0xbc0000
    2204:	6d72612d 	ldfvse	f6, [r2, #-180]!	; 0xffffff4c
    2208:	6e6f6e2d 	cdpvs	14, 6, cr6, cr15, cr13, {1}
    220c:	61652d65 	cmnvs	r5, r5, ror #26
    2210:	312d6962 			; <UNDEFINED> instruction: 0x312d6962
    2214:	2d332e30 	ldccs	14, cr2, [r3, #-192]!	; 0xffffff40
    2218:	31323032 	teqcc	r2, r2, lsr r0
    221c:	2f30312e 	svccs	0x0030312e
    2220:	2f62696c 	svccs	0x0062696c
    2224:	2f636367 	svccs	0x00636367
    2228:	2d6d7261 	sfmcs	f7, 2, [sp, #-388]!	; 0xfffffe7c
    222c:	656e6f6e 	strbvs	r6, [lr, #-3950]!	; 0xfffff092
    2230:	6261652d 	rsbvs	r6, r1, #188743680	; 0xb400000
    2234:	30312f69 	eorscc	r2, r1, r9, ror #30
    2238:	312e332e 			; <UNDEFINED> instruction: 0x312e332e
    223c:	636e692f 	cmnvs	lr, #770048	; 0xbc000
    2240:	6564756c 	strbvs	r7, [r4, #-1388]!	; 0xfffffa94
    2244:	61750000 	cmnvs	r5, r0
    2248:	632e7472 			; <UNDEFINED> instruction: 0x632e7472
    224c:	00000000 	andeq	r0, r0, r0
    2250:	74726175 	ldrbtvc	r6, [r2], #-373	; 0xfffffe8b
    2254:	0100682e 	tsteq	r0, lr, lsr #16
    2258:	70720000 	rsbsvc	r0, r2, r0
    225c:	00682e69 	rsbeq	r2, r8, r9, ror #28
    2260:	67000001 	strvs	r0, [r0, -r1]
    2264:	2e6f6970 			; <UNDEFINED> instruction: 0x2e6f6970
    2268:	00010068 	andeq	r0, r1, r8, rrx
    226c:	64747300 	ldrbtvs	r7, [r4], #-768	; 0xfffffd00
    2270:	2d746e69 	ldclcs	14, cr6, [r4, #-420]!	; 0xfffffe5c
    2274:	2e636367 	cdpcs	3, 6, cr6, cr3, cr7, {3}
    2278:	00020068 	andeq	r0, r2, r8, rrx
    227c:	39050000 	stmdbcc	r5, {}	; <UNPREDICTABLE>
    2280:	f4020500 	vst3.8	{d0,d2,d4}, [r2], r0
    2284:	0300009e 	movweq	r0, #158	; 0x9e
    2288:	01060130 	tsteq	r6, r0, lsr r1
    228c:	67060505 	strvs	r0, [r6, -r5, lsl #10]
    2290:	01061105 	tsteq	r6, r5, lsl #2
    2294:	052e0505 	streq	r0, [lr, #-1285]!	; 0xfffffafb
    2298:	38056701 	stmdacc	r5, {r0, r8, r9, sl, sp, lr}
    229c:	01062906 	tsteq	r6, r6, lsl #18
    22a0:	67060505 	strvs	r0, [r6, -r5, lsl #10]
    22a4:	01061105 	tsteq	r6, r5, lsl #2
    22a8:	052e0505 	streq	r0, [lr, #-1285]!	; 0xfffffafb
    22ac:	16056701 	strne	r6, [r5], -r1, lsl #14
    22b0:	2e150306 	cdpcs	3, 1, cr0, cr5, cr6, {0}
    22b4:	67350505 	ldrvs	r0, [r5, -r5, lsl #10]!
    22b8:	03683568 	cmneq	r8, #104, 10	; 0x1a000000
    22bc:	6b852e0c 	blvs	fe14daf4 <__bss_end__+0xfe142624>
    22c0:	0c036969 			; <UNDEFINED> instruction: 0x0c036969
    22c4:	676b1366 	strbvs	r1, [fp, -r6, ror #6]!
    22c8:	2f060105 	svccs	0x00060105
    22cc:	08061905 	stmdaeq	r6, {r0, r2, r8, fp, ip}
    22d0:	34050525 	strcc	r0, [r5], #-1317	; 0xfffffadb
    22d4:	01060d05 	tsteq	r6, r5, lsl #26
    22d8:	054c0105 	strbeq	r0, [ip, #-261]	; 0xfffffefb
    22dc:	05670619 	strbeq	r0, [r7, #-1561]!	; 0xfffff9e7
    22e0:	0d053605 	stceq	6, cr3, [r5, #-20]	; 0xffffffec
    22e4:	28050106 	stmdacs	r5, {r1, r2, r8}
    22e8:	3001054a 	andcc	r0, r1, sl, asr #10
    22ec:	87061505 	strhi	r1, [r6, -r5, lsl #10]
    22f0:	2f2f0505 	svccs	0x002f0505
    22f4:	02000905 	andeq	r0, r0, #81920	; 0x14000
    22f8:	05130104 	ldreq	r0, [r3, #-260]	; 0xfffffefc
    22fc:	0402000a 	streq	r0, [r2], #-10
    2300:	0c051101 	stfeqs	f1, [r5], {1}
    2304:	01040200 	mrseq	r0, R12_usr
    2308:	0a050106 	beq	142728 <__bss_end__+0x137258>
    230c:	01040200 	mrseq	r0, R12_usr
    2310:	0605052e 	streq	r0, [r5], -lr, lsr #10
    2314:	060e054c 	streq	r0, [lr], -ip, asr #10
    2318:	4a090501 	bmi	243724 <__bss_end__+0x238254>
    231c:	2f060505 	svccs	0x00060505
    2320:	0601052f 	streq	r0, [r1], -pc, lsr #10
    2324:	061c0513 			; <UNDEFINED> instruction: 0x061c0513
    2328:	05010667 	streq	r0, [r1, #-1639]	; 0xfffff999
    232c:	2f4b0605 	svccs	0x004b0605
    2330:	02000905 	andeq	r0, r0, #81920	; 0x14000
    2334:	05130104 	ldreq	r0, [r3, #-260]	; 0xfffffefc
    2338:	0402000a 	streq	r0, [r2], #-10
    233c:	0c051101 	stfeqs	f1, [r5], {1}
    2340:	01040200 	mrseq	r0, R12_usr
    2344:	0a050106 	beq	142764 <__bss_end__+0x137294>
    2348:	01040200 	mrseq	r0, R12_usr
    234c:	0605052e 	streq	r0, [r5], -lr, lsr #10
    2350:	0105674c 	tsteq	r5, ip, asr #14
    2354:	19052f06 	stmdbne	r5, {r1, r2, r8, r9, sl, fp, sp}
    2358:	1b054c06 	blne	155378 <__bss_end__+0x149ea8>
    235c:	2e2a052e 	cfsh64cs	mvdx0, mvdx10, #30
    2360:	01063105 	tsteq	r6, r5, lsl #2
    2364:	052e4205 	streq	r4, [lr, #-517]!	; 0xfffffdfb
    2368:	0531061c 	ldreq	r0, [r1, #-1564]!	; 0xfffff9e4
    236c:	09032f05 	stmdbeq	r3, {r0, r2, r8, r9, sl, fp, sp}
    2370:	060e052e 	streq	r0, [lr], -lr, lsr #10
    2374:	4a210501 	bmi	843780 <__bss_end__+0x8382b0>
    2378:	0a030105 	beq	c2794 <__bss_end__+0xb72c4>
    237c:	061a052e 	ldreq	r0, [sl], -lr, lsr #10
    2380:	00090568 	andeq	r0, r9, r8, ror #10
    2384:	30010402 	andcc	r0, r1, r2, lsl #8
    2388:	02000a05 	andeq	r0, r0, #20480	; 0x5000
    238c:	05110104 	ldreq	r0, [r1, #-260]	; 0xfffffefc
    2390:	0402000c 	streq	r0, [r2], #-12
    2394:	05010601 	streq	r0, [r1, #-1537]	; 0xfffff9ff
    2398:	0402000a 	streq	r0, [r2], #-10
    239c:	19052e01 	stmdbne	r5, {r0, r9, sl, fp, sp}
    23a0:	7ee80306 	cdpvc	3, 14, cr0, cr8, cr6, {0}
    23a4:	2f050566 	svccs	0x00050566
    23a8:	05672f2f 	strbeq	r2, [r7, #-3887]!	; 0xfffff0d1
    23ac:	022f0601 	eoreq	r0, pc, #1048576	; 0x100000
    23b0:	01010004 	tsteq	r1, r4
    23b4:	00000392 	muleq	r0, r2, r3
    23b8:	00b70003 	adcseq	r0, r7, r3
    23bc:	01020000 	mrseq	r0, (UNDEF: 2)
    23c0:	000d0efb 	strdeq	r0, [sp], -fp
    23c4:	01010101 	tsteq	r1, r1, lsl #2
    23c8:	01000000 	mrseq	r0, (UNDEF: 0)
    23cc:	2f010000 	svccs	0x00010000
    23d0:	656d6f68 	strbvs	r6, [sp, #-3944]!	; 0xfffff098
    23d4:	676e652f 	strbvs	r6, [lr, -pc, lsr #10]!
    23d8:	2f72656c 	svccs	0x0072656c
    23dc:	73616c63 	cmnvc	r1, #25344	; 0x6300
    23e0:	73632f73 	cmnvc	r3, #460	; 0x1cc
    23e4:	65303431 	ldrvs	r3, [r0, #-1073]!	; 0xfffffbcf
    23e8:	7732322d 	ldrvc	r3, [r2, -sp, lsr #4]!
    23ec:	2f2f6e69 	svccs	0x002f6e69
    23f0:	7062696c 	rsbvc	r6, r2, ip, ror #18
    23f4:	6e692f69 	cdpvs	15, 6, cr2, cr9, cr9, {3}
    23f8:	64756c63 	ldrbtvs	r6, [r5], #-3171	; 0xfffff39d
    23fc:	752f0065 	strvc	r0, [pc, #-101]!	; 239f <__code_start__-0x5c61>
    2400:	732f7273 			; <UNDEFINED> instruction: 0x732f7273
    2404:	65726168 	ldrbvs	r6, [r2, #-360]!	; 0xfffffe98
    2408:	6363672f 	cmnvs	r3, #12320768	; 0xbc0000
    240c:	6d72612d 	ldfvse	f6, [r2, #-180]!	; 0xffffff4c
    2410:	6e6f6e2d 	cdpvs	14, 6, cr6, cr15, cr13, {1}
    2414:	61652d65 	cmnvs	r5, r5, ror #26
    2418:	312d6962 			; <UNDEFINED> instruction: 0x312d6962
    241c:	2d332e30 	ldccs	14, cr2, [r3, #-192]!	; 0xffffff40
    2420:	31323032 	teqcc	r2, r2, lsr r0
    2424:	2f30312e 	svccs	0x0030312e
    2428:	2f62696c 	svccs	0x0062696c
    242c:	2f636367 	svccs	0x00636367
    2430:	2d6d7261 	sfmcs	f7, 2, [sp, #-388]!	; 0xfffffe7c
    2434:	656e6f6e 	strbvs	r6, [lr, #-3950]!	; 0xfffff092
    2438:	6261652d 	rsbvs	r6, r1, #188743680	; 0xb400000
    243c:	30312f69 	eorscc	r2, r1, r9, ror #30
    2440:	312e332e 			; <UNDEFINED> instruction: 0x312e332e
    2444:	636e692f 	cmnvs	lr, #770048	; 0xbc000
    2448:	6564756c 	strbvs	r7, [r4, #-1388]!	; 0xfffffa94
    244c:	6d6b0000 	stclvs	0, cr0, [fp, #-0]
    2450:	6f6c6c61 	svcvs	0x006c6c61
    2454:	00632e63 	rsbeq	r2, r3, r3, ror #28
    2458:	72000000 	andvc	r0, r0, #0, 0
    245c:	682e6970 	stmdavs	lr!, {r4, r5, r6, r8, fp, sp, lr}
    2460:	00000100 	andeq	r0, r0, r0, lsl #2
    2464:	69647473 	stmdbvs	r4!, {r0, r1, r4, r5, r6, sl, ip, sp, lr}^
    2468:	672d746e 	strvs	r7, [sp, -lr, ror #8]!
    246c:	682e6363 	stmdavs	lr!, {r0, r1, r5, r6, r8, r9, sp, lr}
    2470:	00000200 	andeq	r0, r0, r0, lsl #4
    2474:	001e0500 	andseq	r0, lr, r0, lsl #10
    2478:	a0e40205 	rscge	r0, r4, r5, lsl #4
    247c:	27030000 	strcs	r0, [r3, -r0]
    2480:	01200501 			; <UNDEFINED> instruction: 0x01200501
    2484:	01062d05 	tsteq	r6, r5, lsl #26
    2488:	83062005 	movwhi	r2, #24581	; 0x6005
    248c:	05012205 	streq	r2, [r1, #-517]	; 0xfffffdfb
    2490:	05010635 	streq	r0, [r1, #-1589]	; 0xfffff9cb
    2494:	0583061e 	streq	r0, [r3, #1566]	; 0x61e
    2498:	2d050120 	stfcss	f0, [r5, #-128]	; 0xffffff80
    249c:	42050106 	andmi	r0, r5, #-2147483647	; 0x80000001
    24a0:	01068506 	tsteq	r6, r6, lsl #10
    24a4:	4b060505 	blmi	1838c0 <__bss_end__+0x1783f0>
    24a8:	2e060114 	mcrcs	1, 0, r0, cr6, cr4, {0}
    24ac:	02040200 	andeq	r0, r4, #0, 4
    24b0:	02002e06 	andeq	r2, r0, #96	; 0x60
    24b4:	00010204 	andeq	r0, r1, r4, lsl #4
    24b8:	15020402 	strne	r0, [r2, #-1026]	; 0xfffffbfe
    24bc:	02000d05 	andeq	r0, r0, #320	; 0x140
    24c0:	01060204 	tsteq	r6, r4, lsl #4
    24c4:	02000705 	andeq	r0, r0, #1310720	; 0x140000
    24c8:	054a0204 	strbeq	r0, [sl, #-516]	; 0xfffffdfc
    24cc:	054b0609 	strbeq	r0, [fp, #-1545]	; 0xfffff9f7
    24d0:	17051505 	strne	r1, [r5, -r5, lsl #10]
    24d4:	10050106 	andne	r0, r5, r6, lsl #2
    24d8:	0605054a 	streq	r0, [r5], -sl, asr #10
    24dc:	061b052f 	ldreq	r0, [fp], -pc, lsr #10
    24e0:	2e0e0501 	cfsh32cs	mvfx0, mvfx14, #1
    24e4:	052f0105 	streq	r0, [pc, #-261]!	; 23e7 <__code_start__-0x5c19>
    24e8:	04020005 	streq	r0, [r2], #-5
    24ec:	77030601 	strvc	r0, [r3, -r1, lsl #12]
    24f0:	0402004a 	streq	r0, [r2], #-74	; 0xffffffb6
    24f4:	02000101 	andeq	r0, r0, #1073741824	; 0x40000000
    24f8:	9e060104 	adflss	f0, f6, f4
    24fc:	01040200 	mrseq	r0, R12_usr
    2500:	0402002e 	streq	r0, [r2], #-46	; 0xffffffd2
    2504:	052e0601 	streq	r0, [lr, #-1537]!	; 0xfffff9ff
    2508:	06013209 	streq	r3, [r1], -r9, lsl #4
    250c:	2e062ed6 	mcrcs	14, 0, r2, cr6, cr6, {6}
    2510:	05de1905 	ldrbeq	r1, [lr, #2309]	; 0x905
    2514:	05142f05 	ldreq	r2, [r4, #-3845]	; 0xfffff0fb
    2518:	05010608 	streq	r0, [r1, #-1544]	; 0xfffff9f8
    251c:	09054a07 	stmdbeq	r5, {r0, r1, r2, r9, fp, lr}
    2520:	05054b06 	streq	r4, [r5, #-2822]	; 0xfffff4fa
    2524:	060c0513 			; <UNDEFINED> instruction: 0x060c0513
    2528:	06050501 	streq	r0, [r5], -r1, lsl #10
    252c:	01051367 	tsteq	r5, r7, ror #6
    2530:	09056706 	stmdbeq	r5, {r1, r2, r8, r9, sl, sp, lr}
    2534:	9e012a06 	vmlals.f32	s4, s2, s12
    2538:	06a52805 	strteq	r2, [r5], r5, lsl #16
    253c:	06050501 	streq	r0, [r5], -r1, lsl #10
    2540:	2e06014b 	adfcssm	f0, f6, #3.0
    2544:	13012e06 	movwne	r2, #7686	; 0x1e06
    2548:	47031805 	strmi	r1, [r3, -r5, lsl #16]
    254c:	13050501 	movwne	r0, #21761	; 0x5501
    2550:	06010601 	streq	r0, [r1], -r1, lsl #12
    2554:	1301150f 	movwne	r1, #5391	; 0x150f
    2558:	01060e05 	tsteq	r6, r5, lsl #28
    255c:	2e2e1605 	cfmadda32cs	mvax0, mvax1, mvfx14, mvfx5
    2560:	03060505 	movweq	r0, #25861	; 0x6505
    2564:	0b050139 	bleq	142a50 <__bss_end__+0x137580>
    2568:	05050106 	streq	r0, [r5, #-262]	; 0xfffffefa
    256c:	0a054b06 	beq	15518c <__bss_end__+0x149cbc>
    2570:	05050106 	streq	r0, [r5, #-262]	; 0xfffffefa
    2574:	0d054b06 	vstreq	d4, [r5, #-24]	; 0xffffffe8
    2578:	07050106 	streq	r0, [r5, -r6, lsl #2]
    257c:	4d01052e 	cfstr32mi	mvfx0, [r1, #-184]	; 0xffffff48
    2580:	02000505 	andeq	r0, r0, #20971520	; 0x1400000
    2584:	03060104 	movweq	r0, #24836	; 0x6104
    2588:	02004a78 	andeq	r4, r0, #120, 20	; 0x78000
    258c:	00010104 	andeq	r0, r1, r4, lsl #2
    2590:	06010402 	streq	r0, [r1], -r2, lsl #8
    2594:	040200ba 	streq	r0, [r2], #-186	; 0xffffff46
    2598:	052e0601 	streq	r0, [lr, #-1537]!	; 0xfffff9ff
    259c:	06013409 	streq	r3, [r1], -r9, lsl #8
    25a0:	2e066682 	cfmadd32cs	mvax4, mvfx6, mvfx6, mvfx2
    25a4:	06db2005 	ldrbeq	r2, [fp], r5
    25a8:	06050501 	streq	r0, [r5], -r1, lsl #10
    25ac:	0200014b 	andeq	r0, r0, #-1073741806	; 0xc0000012
    25b0:	004a0204 	subeq	r0, sl, r4, lsl #4
    25b4:	01020402 	tsteq	r2, r2, lsl #8
    25b8:	02040200 	andeq	r0, r4, #0, 4
    25bc:	00120513 	andseq	r0, r2, r3, lsl r5
    25c0:	06020402 	streq	r0, [r2], -r2, lsl #8
    25c4:	04020001 	streq	r0, [r2], #-1
    25c8:	02002e02 	andeq	r2, r0, #2, 28
    25cc:	052e0204 	streq	r0, [lr, #-516]!	; 0xfffffdfc
    25d0:	04020005 	streq	r0, [r2], #-5
    25d4:	002f0602 	eoreq	r0, pc, r2, lsl #12
    25d8:	67020402 	strvs	r0, [r2, -r2, lsl #8]
    25dc:	02000105 	andeq	r0, r0, #1073741825	; 0x40000001
    25e0:	13060204 	movwne	r0, #25092	; 0x6204
    25e4:	02000505 	andeq	r0, r0, #20971520	; 0x1400000
    25e8:	62060104 	andvs	r0, r6, #1
    25ec:	01040200 	mrseq	r0, R12_usr
    25f0:	04020001 	streq	r0, [r2], #-1
    25f4:	00ba0601 	adcseq	r0, sl, r1, lsl #12
    25f8:	06010402 	streq	r0, [r1], -r2, lsl #8
    25fc:	033c052e 	teqeq	ip, #192937984	; 0xb800000
    2600:	01069e0a 	tsteq	r6, sl, lsl #28
    2604:	4b060505 	blmi	183a20 <__bss_end__+0x178550>
    2608:	062e0601 	strteq	r0, [lr], -r1, lsl #12
    260c:	0113012e 	tsteq	r3, lr, lsr #2
    2610:	ad031805 	stcge	8, cr1, [r3, #-20]	; 0xffffffec
    2614:	0505017f 	streq	r0, [r5, #-383]	; 0xfffffe81
    2618:	06110513 			; <UNDEFINED> instruction: 0x06110513
    261c:	05052e01 	streq	r2, [r5, #-3585]	; 0xfffff1ff
    2620:	0100d203 	tsteq	r0, r3, lsl #4
    2624:	05134a06 	ldreq	r4, [r3, #-2566]	; 0xfffff5fa
    2628:	7fa30318 	svcvc	0x00a30318
    262c:	13050501 	movwne	r0, #21761	; 0x5501
    2630:	01061605 	tsteq	r6, r5, lsl #12
    2634:	0605054a 	streq	r0, [r5], -sl, asr #10
    2638:	0100e103 	tsteq	r0, r3, lsl #2
    263c:	01061205 	tsteq	r6, r5, lsl #4
    2640:	4b060505 	blmi	183a5c <__bss_end__+0x17858c>
    2644:	a9031805 	stmdbge	r3, {r0, r2, fp, ip}
    2648:	0505017f 	streq	r0, [r5, #-383]	; 0xfffffe81
    264c:	18050113 	stmdane	r5, {r0, r1, r4, r8}
    2650:	1305050e 	movwne	r0, #21774	; 0x550e
    2654:	01061105 	tsteq	r6, r5, lsl #2
    2658:	1505052e 	strne	r0, [r5, #-1326]	; 0xfffffad2
    265c:	13014a06 	movwne	r4, #6662	; 0x1a06
    2660:	01060e05 	tsteq	r6, r5, lsl #28
    2664:	2e16052e 	cfmul64cs	mvdx0, mvdx6, mvdx14
    2668:	0605052e 	streq	r0, [r5], -lr, lsr #10
    266c:	0100d603 	tsteq	r0, r3, lsl #12
    2670:	03180501 	tsteq	r8, #4194304	; 0x400000
    2674:	05017f9f 	streq	r7, [r1, #-3999]	; 0xfffff061
    2678:	19051305 	stmdbne	r5, {r0, r2, r8, r9, ip}
    267c:	052e0106 	streq	r0, [lr, #-262]!	; 0xfffffefa
    2680:	00e00305 	rsceq	r0, r0, r5, lsl #6
    2684:	04020001 	streq	r0, [r2], #-1
    2688:	004a0602 	subeq	r0, sl, r2, lsl #12
    268c:	14020402 	strne	r0, [r2], #-1026	; 0xfffffbfe
    2690:	02000a05 	andeq	r0, r0, #20480	; 0x5000
    2694:	01060204 	tsteq	r6, r4, lsl #4
    2698:	02000505 	andeq	r0, r0, #20971520	; 0x1400000
    269c:	4b060204 	blmi	182eb4 <__bss_end__+0x1779e4>
    26a0:	02000c05 	andeq	r0, r0, #1280	; 0x500
    26a4:	01060204 	tsteq	r6, r4, lsl #4
    26a8:	02000105 	andeq	r0, r0, #1073741825	; 0x40000001
    26ac:	052f0204 	streq	r0, [pc, #-516]!	; 24b0 <__code_start__-0x5b50>
    26b0:	04020005 	streq	r0, [r2], #-5
    26b4:	73030601 	movwvc	r0, #13825	; 0x3601
    26b8:	0402004a 	streq	r0, [r2], #-74	; 0xffffffb6
    26bc:	02000101 	andeq	r0, r0, #1073741824	; 0x40000000
    26c0:	9e060104 	adflss	f0, f6, f4
    26c4:	01040200 	mrseq	r0, R12_usr
    26c8:	0402002e 	streq	r0, [r2], #-46	; 0xffffffd2
    26cc:	002e0601 	eoreq	r0, lr, r1, lsl #12
    26d0:	2f010402 	svccs	0x00010402
    26d4:	01040200 	mrseq	r0, R12_usr
    26d8:	0402002e 	streq	r0, [r2], #-46	; 0xffffffd2
    26dc:	b103d601 	tstlt	r3, r1, lsl #12
    26e0:	06012e7f 			; <UNDEFINED> instruction: 0x06012e7f
    26e4:	062e2e82 	strteq	r2, [lr], -r2, lsl #29
    26e8:	002e062e 	eoreq	r0, lr, lr, lsr #12
    26ec:	06010402 	streq	r0, [r1], -r2, lsl #8
    26f0:	0100d703 	tsteq	r0, r3, lsl #14
    26f4:	01040200 	mrseq	r0, R12_usr
    26f8:	0402002e 	streq	r0, [r2], #-46	; 0xffffffd2
    26fc:	1505d601 	strne	sp, [r5, #-1537]	; 0xfffff9ff
    2700:	17057b08 	strne	r7, [r5, -r8, lsl #22]
    2704:	31160501 	tstcc	r6, r1, lsl #10
    2708:	05011805 	streq	r1, [r1, #-2053]	; 0xfffff7fb
    270c:	0501061d 	streq	r0, [r1, #-1565]	; 0xfffff9e3
    2710:	1905662b 	stmdbne	r5, {r0, r1, r3, r5, r9, sl, sp, lr}
    2714:	05054d06 	streq	r4, [r5, #-3334]	; 0xfffff2fa
    2718:	060c0513 			; <UNDEFINED> instruction: 0x060c0513
    271c:	4a070501 	bmi	1c3b28 <__bss_end__+0x1b8658>
    2720:	02002505 	andeq	r2, r0, #20971520	; 0x1400000
    2724:	054a0104 	strbeq	r0, [sl, #-260]	; 0xfffffefc
    2728:	0402001e 	streq	r0, [r2], #-30	; 0xffffffe2
    272c:	09054a01 	stmdbeq	r5, {r0, r9, fp, lr}
    2730:	05054b06 	streq	r4, [r5, #-2822]	; 0xfffff4fa
    2734:	060a0513 			; <UNDEFINED> instruction: 0x060a0513
    2738:	63190501 	tstvs	r9, #4194304	; 0x400000
    273c:	4c060905 			; <UNDEFINED> instruction: 0x4c060905
    2740:	069e0601 	ldreq	r0, [lr], r1, lsl #12
    2744:	000a022e 	andeq	r0, sl, lr, lsr #4
    2748:	02890101 	addeq	r0, r9, #1073741824	; 0x40000000
    274c:	00030000 	andeq	r0, r3, r0
    2750:	000000c9 	andeq	r0, r0, r9, asr #1
    2754:	0efb0102 	cdpeq	1, 15, cr0, cr11, cr2, {0}
    2758:	0101000d 	tsteq	r1, sp
    275c:	00000101 	andeq	r0, r0, r1, lsl #2
    2760:	00000100 	andeq	r0, r0, r0, lsl #2
    2764:	732f2e01 			; <UNDEFINED> instruction: 0x732f2e01
    2768:	2f006372 	svccs	0x00006372
    276c:	72657355 	rsbvc	r7, r5, #1409286145	; 0x54000001
    2770:	696d2f73 	stmdbvs	sp!, {r0, r1, r4, r5, r6, r8, r9, sl, fp, sp}^
    2774:	2f73656c 	svccs	0x0073656c
    2778:	72756f53 	rsbsvc	r6, r5, #332	; 0x14c
    277c:	632f6563 			; <UNDEFINED> instruction: 0x632f6563
    2780:	30343273 	eorscc	r3, r4, r3, ror r2
    2784:	6c2f786c 	stcvs	8, cr7, [pc], #-432	; 25dc <__code_start__-0x5a24>
    2788:	69706269 	ldmdbvs	r0!, {r0, r3, r5, r6, r9, sp, lr}^
    278c:	636e692f 	cmnvs	lr, #770048	; 0xbc000
    2790:	6564756c 	strbvs	r7, [r4, #-1388]!	; 0xfffffa94
    2794:	706f2f00 	rsbvc	r2, pc, r0, lsl #30
    2798:	6f682f74 	svcvs	0x00682f74
    279c:	7262656d 	rsbvc	r6, r2, #457179136	; 0x1b400000
    27a0:	432f7765 			; <UNDEFINED> instruction: 0x432f7765
    27a4:	616c6c65 	cmnvs	ip, r5, ror #24
    27a8:	72612f72 	rsbvc	r2, r1, #456	; 0x1c8
    27ac:	6f6e2d6d 	svcvs	0x006e2d6d
    27b0:	652d656e 	strvs	r6, [sp, #-1390]!	; 0xfffffa92
    27b4:	2d696261 	sfmcs	f6, 2, [r9, #-388]!	; 0xfffffe7c
    27b8:	2d392f39 	ldccs	15, cr2, [r9, #-228]!	; 0xffffff1c
    27bc:	39313032 	ldmdbcc	r1!, {r1, r4, r5, ip, sp}
    27c0:	632d3471 			; <UNDEFINED> instruction: 0x632d3471
    27c4:	37303173 			; <UNDEFINED> instruction: 0x37303173
    27c8:	696c2f65 	stmdbvs	ip!, {r0, r2, r5, r6, r8, r9, sl, fp, sp}^
    27cc:	63672f62 	cmnvs	r7, #392	; 0x188
    27d0:	72612f63 	rsbvc	r2, r1, #396	; 0x18c
    27d4:	6f6e2d6d 	svcvs	0x006e2d6d
    27d8:	652d656e 	strvs	r6, [sp, #-1390]!	; 0xfffffa92
    27dc:	2f696261 	svccs	0x00696261
    27e0:	2e322e39 	mrccs	14, 1, r2, cr2, cr9, {1}
    27e4:	6e692f31 	mcrvs	15, 3, r2, cr9, cr1, {1}
    27e8:	64756c63 	ldrbtvs	r6, [r5], #-3171	; 0xfffff39d
    27ec:	67000065 	strvs	r0, [r0, -r5, rrx]
    27f0:	2e6f6970 			; <UNDEFINED> instruction: 0x2e6f6970
    27f4:	00010063 	andeq	r0, r1, r3, rrx
    27f8:	69707200 	ldmdbvs	r0!, {r9, ip, sp, lr}^
    27fc:	0200682e 	andeq	r6, r0, #3014656	; 0x2e0000
    2800:	74730000 	ldrbtvc	r0, [r3], #-0
    2804:	746e6964 	strbtvc	r6, [lr], #-2404	; 0xfffff69c
    2808:	6363672d 	cmnvs	r3, #11796480	; 0xb40000
    280c:	0300682e 	movweq	r6, #2094	; 0x82e
    2810:	70670000 	rsbvc	r0, r7, r0
    2814:	682e6f69 	stmdavs	lr!, {r0, r3, r5, r6, r8, r9, sl, fp, sp, lr}
    2818:	00000200 	andeq	r0, r0, r0, lsl #4
    281c:	00380500 	eorseq	r0, r8, r0, lsl #10
    2820:	a4940205 	ldrge	r0, [r4], #517	; 0x205
    2824:	27030000 	strcs	r0, [r3, -r0]
    2828:	13050501 	movwne	r0, #21761	; 0x5501
    282c:	01060705 	tsteq	r6, r5, lsl #14
    2830:	49060605 	stmdbmi	r6, {r0, r2, r9, sl}
    2834:	05150505 	ldreq	r0, [r5, #-1285]	; 0xfffffafb
    2838:	05010607 	streq	r0, [r1, #-1543]	; 0xfffff9f9
    283c:	07052b38 	smladxeq	r5, r8, fp, r2
    2840:	0605054d 	streq	r0, [r5], -sp, asr #10
    2844:	06180530 			; <UNDEFINED> instruction: 0x06180530
    2848:	671c0501 	ldrvs	r0, [ip, -r1, lsl #10]
    284c:	054a0e05 	strbeq	r0, [sl, #-3589]	; 0xfffff1fb
    2850:	12052d18 	andne	r2, r5, #24, 26	; 0x600
    2854:	052f2e4d 	streq	r2, [pc, #-3661]!	; 1a0f <__code_start__-0x65f1>
    2858:	05052a0e 	streq	r2, [r5, #-2574]	; 0xfffff5f2
    285c:	13142f06 	tstne	r4, #6, 30
    2860:	01060705 	tsteq	r6, r5, lsl #14
    2864:	2f060505 	svccs	0x00060505
    2868:	2e2e0613 	mcrcs	6, 1, r0, cr14, cr3, {0}
    286c:	05130105 	ldreq	r0, [r3, #-261]	; 0xfffffefb
    2870:	052e2d05 	streq	r2, [lr, #-3333]!	; 0xfffff2fb
    2874:	05000624 	streq	r0, [r0, #-1572]	; 0xfffff9dc
    2878:	00a4f402 	adceq	pc, r4, r2, lsl #8
    287c:	05051500 	streq	r1, [r5, #-1280]	; 0xfffffb00
    2880:	03060513 	movweq	r0, #25875	; 0x6513
    2884:	05050171 	streq	r0, [r5, #-369]	; 0xfffffe8f
    2888:	06070513 			; <UNDEFINED> instruction: 0x06070513
    288c:	06060501 	streq	r0, [r6], -r1, lsl #10
    2890:	15050549 	strne	r0, [r5, #-1353]	; 0xfffffab7
    2894:	06240514 			; <UNDEFINED> instruction: 0x06240514
    2898:	05010903 	streq	r0, [r1, #-2307]	; 0xfffff6fd
    289c:	2e770318 	mrccs	3, 3, r0, cr7, cr8, {0}
    28a0:	05671c05 	strbeq	r1, [r7, #-3077]!	; 0xfffff3fb
    28a4:	18054a0e 	stmdane	r5, {r1, r2, r3, r9, fp, lr}
    28a8:	4d12052d 	cfldr32mi	mvfx0, [r2, #-180]	; 0xffffff4c
    28ac:	0f052f2e 	svceq	0x00052f2e
    28b0:	290e052f 	stmdbcs	lr, {r0, r1, r2, r3, r5, r8, sl}
    28b4:	2f060505 	svccs	0x00060505
    28b8:	07051314 	smladeq	r5, r4, r3, r1
    28bc:	05050106 	streq	r0, [r5, #-262]	; 0xfffffefa
    28c0:	06132f06 	ldreq	r2, [r3], -r6, lsl #30
    28c4:	3301052e 	movwcc	r0, #5422	; 0x152e
    28c8:	2e290505 	cfsh64cs	mvdx0, mvdx9, #5
    28cc:	00062705 	andeq	r2, r6, r5, lsl #14
    28d0:	a54c0205 	strbge	r0, [ip, #-517]	; 0xfffffdfb
    28d4:	051a0000 	ldreq	r0, [sl, #-0]
    28d8:	27051305 	strcs	r1, [r5, -r5, lsl #6]
    28dc:	18051106 	stmdane	r5, {r1, r2, r8, ip}
    28e0:	2e05052f 	cfsh32cs	mvfx0, mvfx5, #31
    28e4:	28054a2e 	stmdacs	r5, {r1, r2, r3, r5, r9, fp, lr}
    28e8:	02050006 	andeq	r0, r5, #6, 0
    28ec:	0000a564 	andeq	sl, r0, r4, ror #10
    28f0:	13050516 	movwne	r0, #21782	; 0x5516
    28f4:	11062805 	tstne	r6, r5, lsl #16
    28f8:	052f1805 	streq	r1, [pc, #-2053]!	; 20fb <__code_start__-0x5f05>
    28fc:	4a2e2e05 	bmi	b8e118 <__bss_end__+0xb82c48>
    2900:	00062305 	andeq	r2, r6, r5, lsl #6
    2904:	a57c0205 	ldrbge	r0, [ip, #-517]!	; 0xfffffdfb
    2908:	05160000 	ldreq	r0, [r6, #-0]
    290c:	06051305 	streq	r1, [r5], -r5, lsl #6
    2910:	05016203 	streq	r6, [r1, #-515]	; 0xfffffdfd
    2914:	07051305 	streq	r1, [r5, -r5, lsl #6]
    2918:	06050106 	streq	r0, [r5], -r6, lsl #2
    291c:	05054906 	streq	r4, [r5, #-2310]	; 0xfffff6fa
    2920:	05131415 	ldreq	r1, [r3, #-1045]	; 0xfffffbeb
    2924:	17030623 	strne	r0, [r3, -r3, lsr #12]
    2928:	03220501 			; <UNDEFINED> instruction: 0x03220501
    292c:	1c052e69 	stcne	14, cr2, [r5], {105}	; 0x69
    2930:	0e052e82 	cdpeq	14, 0, cr2, cr5, cr2, {4}
    2934:	0605052e 	streq	r0, [r5], -lr, lsr #10
    2938:	06120530 			; <UNDEFINED> instruction: 0x06120530
    293c:	052d4b01 	streq	r4, [sp, #-2817]!	; 0xfffff4ff
    2940:	132f0605 			; <UNDEFINED> instruction: 0x132f0605
    2944:	06180513 			; <UNDEFINED> instruction: 0x06180513
    2948:	05017a03 	streq	r7, [r1, #-2563]	; 0xfffff5fd
    294c:	05054a0e 	streq	r4, [r5, #-2574]	; 0xfffff5f2
    2950:	01052e34 	tsteq	r5, r4, lsr lr
    2954:	052e1403 	streq	r1, [lr, #-1027]!	; 0xfffffbfd
    2958:	2e6c0305 	cdpcs	3, 6, cr0, cr12, cr5, {0}
    295c:	062b052e 	strteq	r0, [fp], -lr, lsr #10
    2960:	d4020500 	strle	r0, [r2], #-1280	; 0xfffffb00
    2964:	030000a5 	movweq	r0, #165	; 0xa5
    2968:	05050117 	streq	r0, [r5, #-279]	; 0xfffffee9
    296c:	06070513 			; <UNDEFINED> instruction: 0x06070513
    2970:	03180501 	tsteq	r8, #4194304	; 0x400000
    2974:	2b052e71 	blcs	14e340 <__bss_end__+0x142e70>
    2978:	052e0e03 	streq	r0, [lr, #-3587]!	; 0xfffff1fd
    297c:	09052f07 	stmdbeq	r5, {r0, r1, r2, r8, r9, sl, fp, sp}
    2980:	0d052f06 	stceq	15, cr2, [r5, #-24]	; 0xffffffe8
    2984:	05016f03 	streq	r6, [r1, #-3843]	; 0xfffff0fd
    2988:	2e061305 	cdpcs	3, 0, cr1, cr6, cr5, {0}
    298c:	09052e2e 	stmdbeq	r5, {r1, r2, r3, r5, r9, sl, fp, sp}
    2990:	01120306 	tsteq	r2, r6, lsl #6
    2994:	72030d05 	andvc	r0, r3, #320	; 0x140
    2998:	13050501 	movwne	r0, #21761	; 0x5501
    299c:	052e2e06 	streq	r2, [lr, #-3590]!	; 0xfffff1fa
    29a0:	1003061d 	andne	r0, r3, sp, lsl r6
    29a4:	13050566 	movwne	r0, #21862	; 0x5566
    29a8:	11061d05 	tstne	r6, r5, lsl #26
    29ac:	0605052e 	streq	r0, [r5], -lr, lsr #10
    29b0:	0e051330 	mcreq	3, 0, r1, cr5, cr0, {1}
    29b4:	17051006 	strne	r1, [r5, -r6]
    29b8:	02042e30 	andeq	r2, r4, #48, 28	; 0x300
    29bc:	03063005 	movweq	r3, #24581	; 0x6005
    29c0:	042e00dd 	strteq	r0, [lr], #-221	; 0xffffff23
    29c4:	060e0501 	streq	r0, [lr], -r1, lsl #10
    29c8:	017fa203 	cmneq	pc, r3, lsl #4
    29cc:	052f2305 	streq	r2, [pc, #-773]!	; 26cf <__code_start__-0x5931>
    29d0:	06022f01 	streq	r2, [r2], -r1, lsl #30
    29d4:	9e010100 	adflss	f0, f1, f0
    29d8:	03000000 	movweq	r0, #0
    29dc:	00005a00 	andeq	r5, r0, r0, lsl #20
    29e0:	fb010200 	blx	431ea <__bss_end__+0x37d1a>
    29e4:	01000d0e 	tsteq	r0, lr, lsl #26
    29e8:	00010101 	andeq	r0, r1, r1, lsl #2
    29ec:	00010000 	andeq	r0, r1, r0
    29f0:	2f2e0100 	svccs	0x002e0100
    29f4:	6362696c 	cmnvs	r2, #108, 18	; 0x1b0000
    29f8:	73552f00 	cmpvc	r5, #0, 30
    29fc:	2f737265 	svccs	0x00737265
    2a00:	656c696d 	strbvs	r6, [ip, #-2413]!	; 0xfffff693
    2a04:	6f532f73 	svcvs	0x00532f73
    2a08:	65637275 	strbvs	r7, [r3, #-629]!	; 0xfffffd8b
    2a0c:	3273632f 	rsbscc	r6, r3, #-1140850688	; 0xbc000000
    2a10:	786c3034 	stmdavc	ip!, {r2, r4, r5, ip, sp}^
    2a14:	62696c2f 	rsbvs	r6, r9, #12032	; 0x2f00
    2a18:	692f6970 	stmdbvs	pc!, {r4, r5, r6, r8, fp, sp, lr}	; <UNPREDICTABLE>
    2a1c:	756c636e 	strbvc	r6, [ip, #-878]!	; 0xfffffc92
    2a20:	00006564 	andeq	r6, r0, r4, ror #10
    2a24:	63747570 	cmnvs	r4, #112, 10	; 0x1c000000
    2a28:	2e726168 	rpwcssz	f6, f2, #0.0
    2a2c:	00010063 	andeq	r0, r1, r3, rrx
    2a30:	69707200 	ldmdbvs	r0!, {r9, ip, sp, lr}^
    2a34:	0200682e 	andeq	r6, r0, #3014656	; 0x2e0000
    2a38:	05000000 	streq	r0, [r0, #-0]
    2a3c:	02050024 	andeq	r0, r5, #36, 0	; 0x24
    2a40:	0000a62c 	andeq	sl, r0, ip, lsr #12
    2a44:	01260514 			; <UNDEFINED> instruction: 0x01260514
    2a48:	01062405 	tsteq	r6, r5, lsl #8
    2a4c:	2e26052e 	cfsh64cs	mvdx0, mvdx6, #30
    2a50:	2e063405 	cdpcs	4, 0, cr3, cr6, cr5, {0}
    2a54:	01060105 	tsteq	r6, r5, lsl #2
    2a58:	4f061b05 	svcmi	0x00061b05
    2a5c:	05130505 	ldreq	r0, [r3, #-1285]	; 0xfffffafb
    2a60:	05010611 	streq	r0, [r1, #-1553]	; 0xfffff9ef
    2a64:	23056701 	movwcs	r6, #22273	; 0x5701
    2a68:	05056706 	streq	r6, [r5, #-1798]	; 0xfffff8fa
    2a6c:	06110513 			; <UNDEFINED> instruction: 0x06110513
    2a70:	4b010501 	blmi	43e7c <__bss_end__+0x389ac>
    2a74:	01000402 	tsteq	r0, r2, lsl #8
    2a78:	0000e201 	andeq	lr, r0, r1, lsl #4
    2a7c:	59000300 	stmdbpl	r0, {r8, r9}
    2a80:	02000000 	andeq	r0, r0, #0, 0
    2a84:	0d0efb01 	vstreq	d15, [lr, #-4]
    2a88:	01010100 	mrseq	r0, (UNDEF: 17)
    2a8c:	00000001 	andeq	r0, r0, r1
    2a90:	01000001 	tsteq	r0, r1
    2a94:	696c2f2e 	stmdbvs	ip!, {r1, r2, r3, r5, r8, r9, sl, fp, sp}^
    2a98:	2f006362 	svccs	0x00006362
    2a9c:	72657355 	rsbvc	r7, r5, #1409286145	; 0x54000001
    2aa0:	696d2f73 	stmdbvs	sp!, {r0, r1, r4, r5, r6, r8, r9, sl, fp, sp}^
    2aa4:	2f73656c 	svccs	0x0073656c
    2aa8:	72756f53 	rsbsvc	r6, r5, #332	; 0x14c
    2aac:	632f6563 			; <UNDEFINED> instruction: 0x632f6563
    2ab0:	30343273 	eorscc	r3, r4, r3, ror r2
    2ab4:	6c2f786c 	stcvs	8, cr7, [pc], #-432	; 290c <__code_start__-0x56f4>
    2ab8:	69706269 	ldmdbvs	r0!, {r0, r3, r5, r6, r9, sp, lr}^
    2abc:	636e692f 	cmnvs	lr, #770048	; 0xbc000
    2ac0:	6564756c 	strbvs	r7, [r4, #-1388]!	; 0xfffffa94
    2ac4:	74730000 	ldrbtvc	r0, [r3], #-0
    2ac8:	74616372 	strbtvc	r6, [r1], #-882	; 0xfffffc8e
    2acc:	0100632e 	tsteq	r0, lr, lsr #6
    2ad0:	70720000 	rsbsvc	r0, r2, r0
    2ad4:	00682e69 	rsbeq	r2, r8, r9, ror #28
    2ad8:	00000002 	andeq	r0, r0, r2
    2adc:	05002c05 	streq	r2, [r0, #-3077]	; 0xfffff3fb
    2ae0:	00a66802 	adceq	r6, r6, r2, lsl #16
    2ae4:	05051500 	streq	r1, [r5, #-1280]	; 0xfffffb00
    2ae8:	0b051313 	bleq	14773c <__bss_end__+0x13c26c>
    2aec:	05051106 	streq	r1, [r5, #-262]	; 0xfffffefa
    2af0:	01040200 	mrseq	r0, R12_usr
    2af4:	02003006 	andeq	r3, r0, #6, 0
    2af8:	05150104 	ldreq	r0, [r5, #-260]	; 0xfffffefc
    2afc:	04020009 	streq	r0, [r2], #-9
    2b00:	0b051301 	bleq	14770c <__bss_end__+0x13c23c>
    2b04:	01040200 	mrseq	r0, R12_usr
    2b08:	0005052f 	andeq	r0, r5, pc, lsr #10
    2b0c:	06010402 	streq	r0, [r1], -r2, lsl #8
    2b10:	04020001 	streq	r0, [r2], #-1
    2b14:	4e062e01 	cdpmi	14, 0, cr2, cr6, cr1, {0}
    2b18:	01060805 	tsteq	r6, r5, lsl #16
    2b1c:	02000505 	andeq	r0, r0, #20971520	; 0x1400000
    2b20:	2f060104 	svccs	0x00060104
    2b24:	02000905 	andeq	r0, r0, #81920	; 0x14000
    2b28:	05130104 	ldreq	r0, [r3, #-260]	; 0xfffffefc
    2b2c:	0402000b 	streq	r0, [r2], #-11
    2b30:	05010601 	streq	r0, [r1, #-1537]	; 0xfffff9ff
    2b34:	04020009 	streq	r0, [r2], #-9
    2b38:	052f0601 	streq	r0, [pc, #-1537]!	; 253f <__code_start__-0x5ac1>
    2b3c:	04020005 	streq	r0, [r2], #-5
    2b40:	05130601 	ldreq	r0, [r3, #-1537]	; 0xfffff9ff
    2b44:	0402000f 	streq	r0, [r2], #-15
    2b48:	0d052d01 	stceq	13, cr2, [r5, #-4]
    2b4c:	01040200 	mrseq	r0, R12_usr
    2b50:	05052f06 	streq	r2, [r5, #-3846]	; 0xfffff0fa
    2b54:	01040200 	mrseq	r0, R12_usr
    2b58:	04020106 	streq	r0, [r2], #-262	; 0xfffffefa
    2b5c:	b2010100 	andlt	r0, r1, #0
    2b60:	03000000 	movweq	r0, #0
    2b64:	00005900 	andeq	r5, r0, r0, lsl #18
    2b68:	fb010200 	blx	43372 <__bss_end__+0x37ea2>
    2b6c:	01000d0e 	tsteq	r0, lr, lsl #26
    2b70:	00010101 	andeq	r0, r1, r1, lsl #2
    2b74:	00010000 	andeq	r0, r1, r0
    2b78:	2f2e0100 	svccs	0x002e0100
    2b7c:	6362696c 	cmnvs	r2, #108, 18	; 0x1b0000
    2b80:	73552f00 	cmpvc	r5, #0, 30
    2b84:	2f737265 	svccs	0x00737265
    2b88:	656c696d 	strbvs	r6, [ip, #-2413]!	; 0xfffff693
    2b8c:	6f532f73 	svcvs	0x00532f73
    2b90:	65637275 	strbvs	r7, [r3, #-629]!	; 0xfffffd8b
    2b94:	3273632f 	rsbscc	r6, r3, #-1140850688	; 0xbc000000
    2b98:	786c3034 	stmdavc	ip!, {r2, r4, r5, ip, sp}^
    2b9c:	62696c2f 	rsbvs	r6, r9, #12032	; 0x2f00
    2ba0:	692f6970 	stmdbvs	pc!, {r4, r5, r6, r8, fp, sp, lr}	; <UNPREDICTABLE>
    2ba4:	756c636e 	strbvc	r6, [ip, #-878]!	; 0xfffffc92
    2ba8:	00006564 	andeq	r6, r0, r4, ror #10
    2bac:	63727473 	cmnvs	r2, #1929379840	; 0x73000000
    2bb0:	632e706d 			; <UNDEFINED> instruction: 0x632e706d
    2bb4:	00000100 	andeq	r0, r0, r0, lsl #2
    2bb8:	2e697072 	mcrcs	0, 3, r7, cr9, cr2, {3}
    2bbc:	00020068 	andeq	r0, r2, r8, rrx
    2bc0:	2a050000 	bcs	142bc8 <__bss_end__+0x1376f8>
    2bc4:	94020500 	strls	r0, [r2], #-1280	; 0xfffffb00
    2bc8:	140000a6 	strne	r0, [r0], #-166	; 0xffffff5a
    2bcc:	05130905 	ldreq	r0, [r3, #-2309]	; 0xfffff6fb
    2bd0:	05010610 	streq	r0, [r1, #-1552]	; 0xfffff9f0
    2bd4:	052e060f 	streq	r0, [lr, #-1551]!	; 0xfffff9f1
    2bd8:	05820610 	streq	r0, [r2, #1552]	; 0x610
    2bdc:	11052e0f 	tstne	r5, pc, lsl #28
    2be0:	01040200 	mrseq	r0, R12_usr
    2be4:	1c054b06 			; <UNDEFINED> instruction: 0x1c054b06
    2be8:	01040200 	mrseq	r0, R12_usr
    2bec:	0f052d06 	svceq	0x00052d06
    2bf0:	01040200 	mrseq	r0, R12_usr
    2bf4:	13052e06 	movwne	r2, #24070	; 0x5e06
    2bf8:	01040200 	mrseq	r0, R12_usr
    2bfc:	09050106 	stmdbeq	r5, {r1, r2, r8}
    2c00:	01054c06 	tsteq	r5, r6, lsl #24
    2c04:	054a1306 	strbeq	r1, [sl, #-774]	; 0xfffffcfa
    2c08:	052d0609 	streq	r0, [sp, #-1545]!	; 0xfffff9f7
    2c0c:	2e130601 	cfmsub32cs	mvax0, mvfx0, mvfx3, mvfx1
    2c10:	01000202 	tsteq	r0, r2, lsl #4
    2c14:	00009d01 	andeq	r9, r0, r1, lsl #26
    2c18:	59000300 	stmdbpl	r0, {r8, r9}
    2c1c:	02000000 	andeq	r0, r0, #0, 0
    2c20:	0d0efb01 	vstreq	d15, [lr, #-4]
    2c24:	01010100 	mrseq	r0, (UNDEF: 17)
    2c28:	00000001 	andeq	r0, r0, r1
    2c2c:	01000001 	tsteq	r0, r1
    2c30:	696c2f2e 	stmdbvs	ip!, {r1, r2, r3, r5, r8, r9, sl, fp, sp}^
    2c34:	2f006362 	svccs	0x00006362
    2c38:	72657355 	rsbvc	r7, r5, #1409286145	; 0x54000001
    2c3c:	696d2f73 	stmdbvs	sp!, {r0, r1, r4, r5, r6, r8, r9, sl, fp, sp}^
    2c40:	2f73656c 	svccs	0x0073656c
    2c44:	72756f53 	rsbsvc	r6, r5, #332	; 0x14c
    2c48:	632f6563 			; <UNDEFINED> instruction: 0x632f6563
    2c4c:	30343273 	eorscc	r3, r4, r3, ror r2
    2c50:	6c2f786c 	stcvs	8, cr7, [pc], #-432	; 2aa8 <__code_start__-0x5558>
    2c54:	69706269 	ldmdbvs	r0!, {r0, r3, r5, r6, r9, sp, lr}^
    2c58:	636e692f 	cmnvs	lr, #770048	; 0xbc000
    2c5c:	6564756c 	strbvs	r7, [r4, #-1388]!	; 0xfffffa94
    2c60:	74730000 	ldrbtvc	r0, [r3], #-0
    2c64:	79706372 	ldmdbvc	r0!, {r1, r4, r5, r6, r8, r9, sp, lr}^
    2c68:	0100632e 	tsteq	r0, lr, lsr #6
    2c6c:	70720000 	rsbsvc	r0, r2, r0
    2c70:	00682e69 	rsbeq	r2, r8, r9, ror #28
    2c74:	00000002 	andeq	r0, r0, r2
    2c78:	05002a05 	streq	r2, [r0, #-2565]	; 0xfffff5fb
    2c7c:	00a6d802 	adceq	sp, r6, r2, lsl #16
    2c80:	05051400 	streq	r1, [r5, #-1024]	; 0xfffffc00
    2c84:	22051313 	andcs	r1, r5, #1275068416	; 0x4c000000
    2c88:	01040200 	mrseq	r0, R12_usr
    2c8c:	000b052e 	andeq	r0, fp, lr, lsr #10
    2c90:	01010402 	tsteq	r1, r2, lsl #8
    2c94:	02001505 	andeq	r1, r0, #20971520	; 0x1400000
    2c98:	01060104 	tsteq	r6, r4, lsl #2
    2c9c:	02000b05 	andeq	r0, r0, #5120	; 0x1400
    2ca0:	052e0104 	streq	r0, [lr, #-260]!	; 0xfffffefc
    2ca4:	04020013 	streq	r0, [r2], #-19	; 0xffffffed
    2ca8:	0b052e01 	bleq	14e4b4 <__bss_end__+0x142fe4>
    2cac:	01040200 	mrseq	r0, R12_usr
    2cb0:	0004022e 	andeq	r0, r4, lr, lsr #4
    2cb4:	00fd0101 	rscseq	r0, sp, r1, lsl #2
    2cb8:	00030000 	andeq	r0, r3, r0
    2cbc:	000000bf 	strheq	r0, [r0], -pc	; <UNPREDICTABLE>
    2cc0:	0efb0102 	cdpeq	1, 15, cr0, cr11, cr2, {0}
    2cc4:	0101000d 	tsteq	r1, sp
    2cc8:	00000101 	andeq	r0, r0, r1, lsl #2
    2ccc:	00000100 	andeq	r0, r0, r0, lsl #2
    2cd0:	6c2f2e01 	stcvs	14, cr2, [pc], #-4	; 2cd4 <__code_start__-0x532c>
    2cd4:	00636269 	rsbeq	r6, r3, r9, ror #4
    2cd8:	6573552f 	ldrbvs	r5, [r3, #-1327]!	; 0xfffffad1
    2cdc:	6d2f7372 	stcvs	3, cr7, [pc, #-456]!	; 2b1c <__code_start__-0x54e4>
    2ce0:	73656c69 	cmnvc	r5, #26880	; 0x6900
    2ce4:	756f532f 	strbvc	r5, [pc, #-815]!	; 29bd <__code_start__-0x5643>
    2ce8:	2f656372 	svccs	0x00656372
    2cec:	34327363 	ldrtcc	r7, [r2], #-867	; 0xfffffc9d
    2cf0:	2f786c30 	svccs	0x00786c30
    2cf4:	7062696c 	rsbvc	r6, r2, ip, ror #18
    2cf8:	6e692f69 	cdpvs	15, 6, cr2, cr9, cr9, {3}
    2cfc:	64756c63 	ldrbtvs	r6, [r5], #-3171	; 0xfffff39d
    2d00:	6f2f0065 	svcvs	0x002f0065
    2d04:	682f7470 	stmdavs	pc!, {r4, r5, r6, sl, ip, sp, lr}	; <UNPREDICTABLE>
    2d08:	62656d6f 	rsbvs	r6, r5, #7104	; 0x1bc0
    2d0c:	2f776572 	svccs	0x00776572
    2d10:	6c6c6543 	cfstr64vs	mvdx6, [ip], #-268	; 0xfffffef4
    2d14:	612f7261 			; <UNDEFINED> instruction: 0x612f7261
    2d18:	6e2d6d72 	mcrvs	13, 1, r6, cr13, cr2, {3}
    2d1c:	2d656e6f 	stclcs	14, cr6, [r5, #-444]!	; 0xfffffe44
    2d20:	69626165 	stmdbvs	r2!, {r0, r2, r5, r6, r8, sp, lr}^
    2d24:	392f392d 	stmdbcc	pc!, {r0, r2, r3, r5, r8, fp, ip, sp}	; <UNPREDICTABLE>
    2d28:	3130322d 	teqcc	r0, sp, lsr #4
    2d2c:	2d347139 	ldfcss	f7, [r4, #-228]!	; 0xffffff1c
    2d30:	30317363 	eorscc	r7, r1, r3, ror #6
    2d34:	6c2f6537 	cfstr32vs	mvfx6, [pc], #-220	; 2c60 <__code_start__-0x53a0>
    2d38:	672f6269 	strvs	r6, [pc, -r9, ror #4]!
    2d3c:	612f6363 			; <UNDEFINED> instruction: 0x612f6363
    2d40:	6e2d6d72 	mcrvs	13, 1, r6, cr13, cr2, {3}
    2d44:	2d656e6f 	stclcs	14, cr6, [r5, #-444]!	; 0xfffffe44
    2d48:	69626165 	stmdbvs	r2!, {r0, r2, r5, r6, r8, sp, lr}^
    2d4c:	322e392f 	eorcc	r3, lr, #770048	; 0xbc000
    2d50:	692f312e 	stmdbvs	pc!, {r1, r2, r3, r5, r8, ip, sp}	; <UNPREDICTABLE>
    2d54:	756c636e 	strbvc	r6, [ip, #-878]!	; 0xfffffc92
    2d58:	00006564 	andeq	r6, r0, r4, ror #10
    2d5c:	6e727473 	mrcvs	4, 3, r7, cr2, cr3, {3}
    2d60:	2e706d63 	cdpcs	13, 7, cr6, cr0, cr3, {3}
    2d64:	00010063 	andeq	r0, r1, r3, rrx
    2d68:	69707200 	ldmdbvs	r0!, {r9, ip, sp, lr}^
    2d6c:	0200682e 	andeq	r6, r0, #3014656	; 0x2e0000
    2d70:	74730000 	ldrbtvc	r0, [r3], #-0
    2d74:	66656464 	strbtvs	r6, [r5], -r4, ror #8
    2d78:	0300682e 	movweq	r6, #2094	; 0x82e
    2d7c:	05000000 	streq	r0, [r0, #-0]
    2d80:	02050039 	andeq	r0, r5, #57, 0	; 0x39
    2d84:	0000a6f0 	strdeq	sl, [r0], -r0
    2d88:	13050515 	movwne	r0, #21781	; 0x5515
    2d8c:	060a0513 			; <UNDEFINED> instruction: 0x060a0513
    2d90:	2f0c052e 	svccs	0x000c052e
    2d94:	052e1305 	streq	r1, [lr, #-773]!	; 0xfffffcfb
    2d98:	09052e0b 	stmdbeq	r5, {r0, r1, r3, r9, sl, fp, sp}
    2d9c:	0a054a06 	beq	1555bc <__bss_end__+0x14a0ec>
    2da0:	05010611 	streq	r0, [r1, #-1553]	; 0xfffff9ef
    2da4:	01054e0c 	tsteq	r5, ip, lsl #28
    2da8:	060d052f 	streq	r0, [sp], -pc, lsr #10
    2dac:	061b052b 	ldreq	r0, [fp], -fp, lsr #10
    2db0:	02022e01 	andeq	r2, r2, #1, 28
    2db4:	8a010100 	bhi	431bc <__bss_end__+0x37cec>
    2db8:	03000000 	movweq	r0, #0
    2dbc:	00006e00 	andeq	r6, r0, r0, lsl #28
    2dc0:	fb010200 	blx	435ca <__bss_end__+0x380fa>
    2dc4:	01000d0e 	tsteq	r0, lr, lsl #26
    2dc8:	00010101 	andeq	r0, r1, r1, lsl #2
    2dcc:	00010000 	andeq	r0, r1, r0
    2dd0:	2f2e0100 	svccs	0x002e0100
    2dd4:	66617473 			; <UNDEFINED> instruction: 0x66617473
    2dd8:	72732d66 	rsbsvc	r2, r3, #6528	; 0x1980
    2ddc:	552f0063 	strpl	r0, [pc, #-99]!	; 2d81 <__code_start__-0x527f>
    2de0:	73726573 	cmnvc	r2, #482344960	; 0x1cc00000
    2de4:	6c696d2f 	stclvs	13, cr6, [r9], #-188	; 0xffffff44
    2de8:	532f7365 			; <UNDEFINED> instruction: 0x532f7365
    2dec:	6372756f 	cmnvs	r2, #465567744	; 0x1bc00000
    2df0:	73632f65 	cmnvc	r3, #404	; 0x194
    2df4:	6c303432 	cfldrsvs	mvf3, [r0], #-200	; 0xffffff38
    2df8:	696c2f78 	stmdbvs	ip!, {r3, r4, r5, r6, r8, r9, sl, fp, sp}^
    2dfc:	2f697062 	svccs	0x00697062
    2e00:	6c636e69 	stclvs	14, cr6, [r3], #-420	; 0xfffffe5c
    2e04:	00656475 	rsbeq	r6, r5, r5, ror r4
    2e08:	66656400 	strbtvs	r6, [r5], -r0, lsl #8
    2e0c:	746c7561 	strbtvc	r7, [ip], #-1377	; 0xfffffa9f
    2e10:	6265722d 	rsbvs	r7, r5, #-805306366	; 0xd0000002
    2e14:	2d746f6f 	ldclcs	15, cr6, [r4, #-444]!	; 0xfffffe44
    2e18:	6c6c6163 	stfvse	f6, [ip], #-396	; 0xfffffe74
    2e1c:	2e74756f 	cdpcs	5, 7, cr7, cr4, cr15, {3}
    2e20:	00010063 	andeq	r0, r1, r3, rrx
    2e24:	69707200 	ldmdbvs	r0!, {r9, ip, sp, lr}^
    2e28:	0200682e 	andeq	r6, r0, #3014656	; 0x2e0000
    2e2c:	05000000 	streq	r0, [r0, #-0]
    2e30:	0205001b 	andeq	r0, r5, #27, 0
    2e34:	0000a720 	andeq	sl, r0, r0, lsr #14
    2e38:	011c0514 	tsteq	ip, r4, lsl r5
    2e3c:	01060105 	tsteq	r6, r5, lsl #2
    2e40:	01000202 	tsteq	r0, r2, lsl #4
    2e44:	Address 0x0000000000002e44 is out of bounds.


Disassembly of section .debug_str:

00000000 <.debug_str>:
   0:	74736574 	ldrbtvc	r6, [r3], #-1396	; 0xfffffa8c
   4:	2e322d73 	mrccs	13, 1, r2, cr2, cr3, {3}
   8:	61702f30 	cmnvs	r0, r0, lsr pc
   c:	2d317472 	cfldrscs	mvf7, [r1, #-456]!	; 0xfffffe38
  10:	74736574 	ldrbtvc	r6, [r3], #-1396	; 0xfffffa8c
  14:	75622d36 	strbvc	r2, [r2, #-3382]!	; 0xfffff2ca
  18:	632e7367 			; <UNDEFINED> instruction: 0x632e7367
  1c:	6f687300 	svcvs	0x00687300
  20:	69207472 	stmdbvs	r0!, {r1, r4, r5, r6, sl, ip, sp, lr}
  24:	7200746e 	andvc	r7, r0, #1845493760	; 0x6e000000
  28:	705f6970 	subsvc	r6, pc, r0, ror r9	; <UNPREDICTABLE>
  2c:	68637475 	stmdavs	r3!, {r0, r2, r4, r5, r6, sl, ip, sp, lr}^
  30:	63007261 	movwvs	r7, #609	; 0x261
  34:	6c6c616b 	stfvse	f6, [ip], #-428	; 0xfffffe54
  38:	6600636f 	strvs	r6, [r0], -pc, ror #6
  3c:	00656c69 	rsbeq	r6, r5, r9, ror #24
  40:	72666b63 	rsbvc	r6, r6, #101376	; 0x18c00
  44:	66006565 	strvs	r6, [r0], -r5, ror #10
  48:	00636e75 	rsbeq	r6, r3, r5, ror lr
  4c:	676e6f6c 	strbvs	r6, [lr, -ip, ror #30]!
  50:	6e6f6c20 	cdpvs	12, 6, cr6, cr15, cr0, {1}
  54:	6e692067 	cdpvs	0, 6, cr2, cr9, cr7, {3}
  58:	5f5f0074 	svcpl	0x005f0074
  5c:	434e5546 	movtmi	r5, #58694	; 0xe546
  60:	4e4f4954 			; <UNDEFINED> instruction: 0x4e4f4954
  64:	63005f5f 	movwvs	r5, #3935	; 0xf5f
  68:	6e61656c 	cdpvs	5, 6, cr6, cr1, cr12, {3}
  6c:	6265725f 	rsbvs	r7, r5, #-268435451	; 0xf0000005
  70:	00746f6f 	rsbseq	r6, r4, pc, ror #30
  74:	765f6b63 	ldrbvc	r6, [pc], -r3, ror #22
  78:	6f627265 	svcvs	0x00627265
  7c:	705f6573 	subsvc	r6, pc, r3, ror r5	; <UNPREDICTABLE>
  80:	736e7500 	cmnvc	lr, #0, 10
  84:	656e6769 	strbvs	r6, [lr, #-1897]!	; 0xfffff897
  88:	68632064 	stmdavs	r3!, {r2, r5, r6, sp}^
  8c:	47007261 	strmi	r7, [r0, -r1, ror #4]
  90:	4320554e 			; <UNDEFINED> instruction: 0x4320554e
  94:	39203939 	stmdbcc	r0!, {r0, r3, r4, r5, r8, fp, ip, sp}
  98:	312e322e 			; <UNDEFINED> instruction: 0x312e322e
  9c:	31303220 	teqcc	r0, r0, lsr #4
  a0:	32303139 	eorscc	r3, r0, #1073741838	; 0x4000000e
  a4:	72282035 	eorvc	r2, r8, #53, 0	; 0x35
  a8:	61656c65 	cmnvs	r5, r5, ror #24
  ac:	20296573 	eorcs	r6, r9, r3, ror r5
  b0:	4d52415b 	ldfmie	f4, [r2, #-364]	; 0xfffffe94
  b4:	6d72612f 	ldfvse	f6, [r2, #-188]!	; 0xffffff44
  b8:	622d392d 	eorvs	r3, sp, #737280	; 0xb4000
  bc:	636e6172 	cmnvs	lr, #-2147483620	; 0x8000001c
  c0:	65722068 	ldrbvs	r2, [r2, #-104]!	; 0xffffff98
  c4:	69736976 	ldmdbvs	r3!, {r1, r2, r4, r5, r6, r8, fp, sp, lr}^
  c8:	32206e6f 	eorcc	r6, r0, #1776	; 0x6f0
  cc:	39353737 	ldmdbcc	r5!, {r0, r1, r2, r4, r5, r8, r9, sl, ip, sp}
  d0:	2d205d39 	stccs	13, cr5, [r0, #-228]!	; 0xffffff1c
  d4:	7570636d 	ldrbvc	r6, [r0, #-877]!	; 0xfffffc93
  d8:	6d72613d 	ldfvse	f6, [r2, #-244]!	; 0xffffff0c
  dc:	36373131 			; <UNDEFINED> instruction: 0x36373131
  e0:	2d667a6a 	vstmdbcs	r6!, {s15-s120}
  e4:	6d2d2073 	stcvs	0, cr2, [sp, #-460]!	; 0xfffffe34
  e8:	656e7574 	strbvs	r7, [lr, #-1396]!	; 0xfffffa8c
  ec:	6d72613d 	ldfvse	f6, [r2, #-244]!	; 0xffffff0c
  f0:	36373131 			; <UNDEFINED> instruction: 0x36373131
  f4:	2d667a6a 	vstmdbcs	r6!, {s15-s120}
  f8:	6d2d2073 	stcvs	0, cr2, [sp, #-460]!	; 0xfffffe34
  fc:	656b6f70 	strbvs	r6, [fp, #-3952]!	; 0xfffff090
 100:	6e75662d 	cdpvs	6, 7, cr6, cr5, cr13, {1}
 104:	6f697463 	svcvs	0x00697463
 108:	616e2d6e 	cmnvs	lr, lr, ror #26
 10c:	2d20656d 	cfstr32cs	mvfx6, [r0, #-436]!	; 0xfffffe4c
 110:	6f6c666d 	svcvs	0x006c666d
 114:	612d7461 			; <UNDEFINED> instruction: 0x612d7461
 118:	733d6962 	teqvc	sp, #1605632	; 0x188000
 11c:	2074666f 	rsbscs	r6, r4, pc, ror #12
 120:	72616d2d 	rsbvc	r6, r1, #2880	; 0xb40
 124:	6d2d206d 	stcvs	0, cr2, [sp, #-436]!	; 0xfffffe4c
 128:	68637261 	stmdavs	r3!, {r0, r5, r6, r9, ip, sp, lr}^
 12c:	6d72613d 	ldfvse	f6, [r2, #-244]!	; 0xffffff0c
 130:	7a6b3676 	bvc	1acdb10 <__bss_end__+0x1ac2640>
 134:	67672d20 	strbvs	r2, [r7, -r0, lsr #26]!
 138:	2d206264 	sfmcs	f6, 4, [r0, #-400]!	; 0xfffffe70
 13c:	2d20674f 	stccs	7, cr6, [r0, #-316]!	; 0xfffffec4
 140:	3d647473 	cfstrdcc	mvd7, [r4, #-460]!	; 0xfffffe34
 144:	39756e67 	ldmdbcc	r5!, {r0, r1, r2, r5, r6, r9, sl, fp, sp, lr}^
 148:	662d2039 			; <UNDEFINED> instruction: 0x662d2039
 14c:	65657266 	strbvs	r7, [r5, #-614]!	; 0xfffffd9a
 150:	6e617473 	mcrvs	4, 3, r7, cr1, cr3, {3}
 154:	676e6964 	strbvs	r6, [lr, -r4, ror #18]!
 158:	6e662d20 	cdpvs	13, 6, cr2, cr6, cr0, {1}
 15c:	6d6f2d6f 	stclvs	13, cr2, [pc, #-444]!	; ffffffa8 <__bss_end__+0xffff4ad8>
 160:	662d7469 	strtvs	r7, [sp], -r9, ror #8
 164:	656d6172 	strbvs	r6, [sp, #-370]!	; 0xfffffe8e
 168:	696f702d 	stmdbvs	pc!, {r0, r2, r3, r5, ip, sp, lr}^	; <UNPREDICTABLE>
 16c:	7265746e 	rsbvc	r7, r5, #1845493760	; 0x6e000000
 170:	6e696c00 	cdpvs	12, 6, cr6, cr9, cr0, {0}
 174:	006f6e65 	rsbeq	r6, pc, r5, ror #28
 178:	676e6f6c 	strbvs	r6, [lr, -ip, ror #30]!
 17c:	6e6f6c20 	cdpvs	12, 6, cr6, cr15, cr0, {1}
 180:	6e752067 	cdpvs	0, 7, cr2, cr5, cr7, {3}
 184:	6e676973 			; <UNDEFINED> instruction: 0x6e676973
 188:	69206465 	stmdbvs	r0!, {r0, r2, r5, r6, sl, sp, lr}
 18c:	6e00746e 	cdpvs	4, 0, cr7, cr0, cr14, {3}
 190:	616d746f 	cmnvs	sp, pc, ror #8
 194:	73006e69 	movwvc	r6, #3689	; 0xe69
 198:	74726f68 	ldrbtvc	r6, [r2], #-3944	; 0xfffff098
 19c:	736e7520 	cmnvc	lr, #32, 10	; 0x8000000
 1a0:	656e6769 	strbvs	r6, [lr, #-1897]!	; 0xfffff897
 1a4:	6e692064 	cdpvs	0, 6, cr2, cr9, cr4, {3}
 1a8:	70720074 	rsbsvc	r0, r2, r4, ror r0
 1ac:	61725f69 	cmnvs	r2, r9, ror #30
 1b0:	3233646e 	eorscc	r6, r3, #1845493760	; 0x6e000000
 1b4:	73552f00 	cmpvc	r5, #0, 30
 1b8:	2f737265 	svccs	0x00737265
 1bc:	656c696d 	strbvs	r6, [ip, #-2413]!	; 0xfffff693
 1c0:	6f532f73 	svcvs	0x00532f73
 1c4:	65637275 	strbvs	r7, [r3, #-629]!	; 0xfffffd8b
 1c8:	3273632f 	rsbscc	r6, r3, #-1140850688	; 0xbc000000
 1cc:	786c3034 	stmdavc	ip!, {r2, r4, r5, ip, sp}^
 1d0:	62616c2f 	rsbvs	r6, r1, #12032	; 0x2f00
 1d4:	2d362f73 	ldccs	15, cr2, [r6, #-460]!	; 0xfffffe34
 1d8:	75626564 	strbvc	r6, [r2, #-1380]!	; 0xfffffa9c
 1dc:	6c612d67 	stclvs	13, cr2, [r1], #-412	; 0xfffffe64
 1e0:	2f636f6c 	svccs	0x00636f6c
 1e4:	65646f63 	strbvs	r6, [r4, #-3939]!	; 0xfffff09d
 1e8:	5f6b6300 	svcpl	0x006b6300
 1ec:	70616568 	rsbvc	r6, r1, r8, ror #10
 1f0:	7272655f 	rsbsvc	r6, r2, #398458880	; 0x17c00000
 1f4:	0073726f 	rsbseq	r7, r3, pc, ror #4
 1f8:	5f637273 	svcpl	0x00637273
 1fc:	5f636f6c 	svcpl	0x00636f6c
 200:	73006b6d 	movwvc	r6, #2925	; 0xb6d
 204:	6c5f6372 	mrrcvs	3, 7, r6, pc, cr2	; <UNPREDICTABLE>
 208:	745f636f 	ldrbvc	r6, [pc], #-879	; 210 <__code_start__-0x7df0>
 20c:	5f6b6300 	svcpl	0x006b6300
 210:	5f727470 	svcpl	0x00727470
 214:	625f6e69 	subsvs	r6, pc, #1680	; 0x690
 218:	6b636f6c 	blvs	18dbfd0 <__bss_end__+0x18d0b00>
 21c:	72646800 	rsbvc	r6, r4, #0, 16
 220:	6200745f 	andvs	r7, r0, #1593835520	; 0x5f000000
 224:	6b636f6c 	blvs	18dbfdc <__bss_end__+0x18d0b0c>
 228:	0064695f 	rsbeq	r6, r4, pc, asr r9
 22c:	45455246 	strbmi	r5, [r5, #-582]	; 0xfffffdba
 230:	626e0044 	rsbvs	r0, lr, #68, 0	; 0x44
 234:	73657479 	cmnvc	r5, #2030043136	; 0x79000000
 238:	6c6c615f 	stfvse	f6, [ip], #-380	; 0xfffffe84
 23c:	7300636f 	movwvc	r6, #879	; 0x36f
 240:	6f646168 	svcvs	0x00646168
 244:	666f5f77 	uqsub16vs	r5, pc, r7	; <UNPREDICTABLE>
 248:	74657366 	strbtvc	r7, [r5], #-870	; 0xfffffc9a
 24c:	44455200 	strbmi	r5, [r5], #-512	; 0xfffffe00
 250:	454e4f5a 	strbmi	r4, [lr, #-3930]	; 0xfffff0a6
 254:	4c41565f 	mcrrmi	6, 5, r5, r1, cr15
 258:	44455200 	strbmi	r5, [r5], #-512	; 0xfffffe00
 25c:	454e4f5a 	strbmi	r4, [lr, #-3930]	; 0xfffff0a6
 260:	59424e5f 	stmdbpl	r2, {r0, r1, r2, r3, r4, r6, r9, sl, fp, lr}^
 264:	00534554 	subseq	r4, r3, r4, asr r5
 268:	665f6b63 	ldrbvs	r6, [pc], -r3, ror #22
 26c:	74737269 	ldrbtvc	r7, [r3], #-617	; 0xfffffd97
 270:	7264685f 	rsbvc	r6, r4, #6225920	; 0x5f0000
 274:	6e697500 	cdpvs	5, 6, cr7, cr9, cr0, {0}
 278:	745f3874 	ldrbvc	r3, [pc], #-2164	; 280 <__code_start__-0x7d80>
 27c:	74616400 	strbtvc	r6, [r1], #-1024	; 0xfffffc00
 280:	74735f61 	ldrbtvc	r5, [r3], #-3937	; 0xfffff09f
 284:	00747261 	rsbseq	r7, r4, r1, ror #4
 288:	6f6c6c61 	svcvs	0x006c6c61
 28c:	696c5f63 	stmdbvs	ip!, {r0, r1, r5, r6, r8, r9, sl, fp, ip, lr}^
 290:	6d007473 	cfstrsvs	mvf7, [r0, #-460]	; 0xfffffe34
 294:	65736d65 	ldrbvs	r6, [r3, #-3429]!	; 0xfffff29b
 298:	6b630074 	blvs	18c0470 <__bss_end__+0x18b4fa0>
 29c:	7264685f 	rsbvc	r6, r4, #6225920	; 0x5f0000
 2a0:	61687300 	cmnvs	r8, r0, lsl #6
 2a4:	5f776f64 	svcpl	0x00776f64
 2a8:	61636f6c 	cmnvs	r3, ip, ror #30
 2ac:	6e6f6974 			; <UNDEFINED> instruction: 0x6e6f6974
 2b0:	6c6c6100 	stfvse	f6, [ip], #-0
 2b4:	6c5f636f 	mrrcvs	3, 6, r6, pc, cr15	; <UNPREDICTABLE>
 2b8:	7300636f 	movwvc	r6, #879	; 0x36f
 2bc:	65746174 	ldrbvs	r6, [r4, #-372]!	; 0xfffffe8c
 2c0:	63616200 	cmnvs	r1, #0, 4
 2c4:	6172746b 	cmnvs	r2, fp, ror #8
 2c8:	72006563 	andvc	r6, r0, #415236096	; 0x18c00000
 2cc:	5f736665 	svcpl	0x00736665
 2d0:	72617473 	rsbvc	r7, r1, #1929379840	; 0x73000000
 2d4:	5f5f0074 	svcpl	0x005f0074
 2d8:	70616568 	rsbvc	r6, r1, r8, ror #10
 2dc:	6174735f 	cmnvs	r4, pc, asr r3
 2e0:	5f5f7472 	svcpl	0x005f7472
 2e4:	6e697500 	cdpvs	5, 6, cr7, cr9, cr0, {0}
 2e8:	5f323374 	svcpl	0x00323374
 2ec:	69750074 	ldmdbvs	r5!, {r2, r4, r5, r6}^
 2f0:	3631746e 	ldrtcc	r7, [r1], -lr, ror #8
 2f4:	6300745f 	movwvs	r7, #1119	; 0x45f
 2f8:	74705f6b 	ldrbtvc	r5, [r0], #-3947	; 0xfffff095
 2fc:	73695f72 	cmnvc	r9, #456	; 0x1c8
 300:	6c6c615f 	stfvse	f6, [ip], #-380	; 0xfffffe84
 304:	6465636f 	strbtvs	r6, [r5], #-879	; 0xfffffc91
 308:	61687300 	cmnvs	r8, r0, lsl #6
 30c:	5f776f64 	svcpl	0x00776f64
 310:	72617473 	rsbvc	r7, r1, #1929379840	; 0x73000000
 314:	6b630074 	blvs	18c04ec <__bss_end__+0x18b501c>
 318:	78656e5f 	stmdavc	r5!, {r0, r1, r2, r3, r4, r6, r9, sl, fp, sp, lr}^
 31c:	64685f74 	strbtvs	r5, [r8], #-3956	; 0xfffff08c
 320:	6b630072 	blvs	18c04f0 <__bss_end__+0x18b5020>
 324:	6f6c6c61 	svcvs	0x006c6c61
 328:	00632e63 	rsbeq	r2, r3, r3, ror #28
 32c:	73666572 	cmnvc	r6, #478150656	; 0x1c800000
 330:	64696d5f 	strbtvs	r6, [r9], #-3423	; 0xfffff2a1
 334:	00656c64 	rsbeq	r6, r5, r4, ror #24
 338:	4f4c4c41 	svcmi	0x004c4c41
 33c:	00444543 	subeq	r4, r4, r3, asr #10
 340:	685f6b63 	ldmdavs	pc, {r0, r1, r5, r6, r8, r9, fp, sp, lr}^	; <UNPREDICTABLE>
 344:	735f7264 	cmpvc	pc, #100, 4	; 0x40000006
 348:	74726174 	ldrbtvc	r6, [r2], #-372	; 0xfffffe8c
 34c:	69726f00 	ldmdbvs	r2!, {r8, r9, sl, fp, sp, lr}^
 350:	616e6967 	cmnvs	lr, r7, ror #18
 354:	6b63006c 	blvs	18c050c <__bss_end__+0x18b503c>
 358:	7264685f 	rsbvc	r6, r4, #6225920	; 0x5f0000
 35c:	646e655f 	strbtvs	r6, [lr], #-1375	; 0xfffffaa1
 360:	65726600 	ldrbvs	r6, [r2, #-1536]!	; 0xfffffa00
 364:	6f6c5f65 	svcvs	0x006c5f65
 368:	6b630063 	blvs	18c04fc <__bss_end__+0x18b502c>
 36c:	79626e5f 	stmdbvc	r2!, {r0, r1, r2, r3, r4, r6, r9, sl, fp, sp, lr}^
 370:	00736574 	rsbseq	r6, r3, r4, ror r5
 374:	6d5f726b 	lfmvs	f7, 2, [pc, #-428]	; 1d0 <__code_start__-0x7e30>
 378:	6f6c6c61 	svcvs	0x006c6c61
 37c:	656e0063 	strbvs	r0, [lr, #-99]!	; 0xffffff9d
 380:	68007478 	stmdavs	r0, {r3, r4, r5, r6, sl, ip, sp, lr}
 384:	65646165 	strbvs	r6, [r4, #-357]!	; 0xfffffe9b
 388:	72700072 	rsbsvc	r0, r0, #114, 0	; 0x72
 38c:	00707665 	rsbseq	r7, r0, r5, ror #12
 390:	67696c61 	strbvs	r6, [r9, -r1, ror #24]!
 394:	726b006e 	rsbvc	r0, fp, #110, 0	; 0x6e
 398:	6572665f 	ldrbvs	r6, [r2, #-1631]!	; 0xfffff9a1
 39c:	72660065 	rsbvc	r0, r6, #101, 0	; 0x65
 3a0:	00706565 	rsbseq	r6, r0, r5, ror #10
 3a4:	696e756e 	stmdbvs	lr!, {r1, r2, r3, r5, r6, r8, sl, ip, sp, lr}^
 3a8:	6b007374 	blvs	1d180 <__bss_end__+0x11cb0>
 3ac:	616d2d72 	smcvs	53970	; 0xd2d2
 3b0:	636f6c6c 	cmnvs	pc, #108, 24	; 0x6c00
 3b4:	6400632e 	strvs	r6, [r0], #-814	; 0xfffffcd2
 3b8:	6c62756f 	cfstr64vs	mvdx7, [r2], #-444	; 0xfffffe44
 3bc:	61620065 	cmnvs	r2, r5, rrx
 3c0:	73006573 	movwvc	r6, #1395	; 0x573
 3c4:	006b7262 	rsbeq	r7, fp, r2, ror #4
 3c8:	65726f6d 	ldrbvs	r6, [r2, #-3949]!	; 0xfffff093
 3cc:	65726f63 	ldrbvs	r6, [r2, #-3939]!	; 0xfffff09d
 3d0:	7a697300 	bvc	1a5cfd8 <__bss_end__+0x1a51b08>
 3d4:	65480065 	strbvs	r0, [r8, #-101]	; 0xffffff9b
 3d8:	72656461 	rsbvc	r6, r5, #1627389952	; 0x61000000
 3dc:	61747300 	cmnvs	r4, r0, lsl #6
 3e0:	745f6b63 	ldrbvc	r6, [pc], #-2915	; 3e8 <__code_start__-0x7c18>
 3e4:	6d00706f 	stcvs	0, cr7, [r0, #-444]	; 0xfffffe44
 3e8:	5f6b7261 	svcpl	0x006b7261
 3ec:	006c6c61 	rsbeq	r6, ip, r1, ror #24
 3f0:	6c706d69 	ldclvs	13, cr6, [r0], #-420	; 0xfffffe5c
 3f4:	6e656d65 	cdpvs	13, 6, cr6, cr5, cr5, {3}
 3f8:	68745f74 	ldmdavs	r4!, {r2, r4, r5, r6, r8, r9, sl, fp, ip, lr}^
 3fc:	5f007369 	svcpl	0x00007369
 400:	7373625f 	cmnvc	r3, #-268435451	; 0xf0000005
 404:	6174735f 	cmnvs	r4, pc, asr r3
 408:	5f5f7472 	svcpl	0x005f7472
 40c:	6c626e00 	stclvs	14, cr6, [r2], #-0
 410:	736b636f 	cmnvc	fp, #-1140850687	; 0xbc000001
 414:	696e6900 	stmdbvs	lr!, {r8, fp, sp, lr}^
 418:	00705f74 	rsbseq	r5, r0, r4, ror pc
 41c:	7479626e 	ldrbtvc	r6, [r9], #-622	; 0xfffffd92
 420:	665f7365 	ldrbvs	r7, [pc], -r5, ror #6
 424:	64656572 	strbtvs	r6, [r5], #-1394	; 0xfffffa8e
 428:	646c6f00 	strbtvs	r6, [ip], #-3840	; 0xfffff100
 42c:	72616d5f 	rsbvc	r6, r1, #6080	; 0x17c0
 430:	6e69006b 	cdpvs	0, 6, cr0, cr9, cr11, {3}
 434:	6d657263 	sfmvs	f7, 2, [r5, #-396]!	; 0xfffffe74
 438:	00746e65 	rsbseq	r6, r4, r5, ror #28
 43c:	665f6b63 	ldrbvs	r6, [pc], -r3, ror #22
 440:	5f646e69 	svcpl	0x00646e69
 444:	6b61656c 	blvs	18599fc <__bss_end__+0x184e52c>
 448:	616d0073 	smcvs	53251	; 0xd003
 44c:	5f656279 	svcpl	0x00656279
 450:	6f727265 	svcvs	0x00727265
 454:	63007372 	movwvs	r7, #882	; 0x372
 458:	63675f6b 	cmnvs	r7, #428	; 0x1ac
 45c:	645f5f00 	ldrbvs	r5, [pc], #-3840	; 464 <__code_start__-0x7b9c>
 460:	5f617461 	svcpl	0x00617461
 464:	5f646e65 	svcpl	0x00646e65
 468:	7564005f 	strbvc	r0, [r4, #-95]!	; 0xffffffa1
 46c:	725f706d 	subsvc	r7, pc, #109, 0	; 0x6d
 470:	00736765 	rsbseq	r6, r3, r5, ror #14
 474:	61656c6e 	cmnvs	r5, lr, ror #24
 478:	6500736b 	strvs	r7, [r0, #-875]	; 0xfffffc95
 47c:	726f7272 	rsbvc	r7, pc, #536870919	; 0x20000007
 480:	68745f73 	ldmdavs	r4!, {r0, r1, r4, r5, r6, r8, r9, sl, fp, ip, lr}^
 484:	625f7369 	subsvs	r7, pc, #-1543503871	; 0xa4000001
 488:	6b636f6c 	blvs	18dc240 <__bss_end__+0x18d0d70>
 48c:	5f736900 	svcpl	0x00736900
 490:	00727470 	rsbseq	r7, r2, r0, ror r4
 494:	6572666e 	ldrbvs	r6, [r2, #-1646]!	; 0xfffff992
 498:	63006465 	movwvs	r6, #1125	; 0x465
 49c:	6b636568 	blvs	18d9a44 <__bss_end__+0x18ce574>
 4a0:	5f6f6e5f 	svcpl	0x006f6e5f
 4a4:	6b61656c 	blvs	1859a5c <__bss_end__+0x184e58c>
 4a8:	5f6e6900 	svcpl	0x006e6900
 4ac:	70616568 	rsbvc	r6, r1, r8, ror #10
 4b0:	656e6f00 	strbvs	r6, [lr, #-3840]!	; 0xfffff100
 4b4:	6300626d 	movwvs	r6, #621	; 0x26d
 4b8:	63672d6b 	cmnvs	r7, #6848	; 0x1ac0
 4bc:	6300632e 	movwvs	r6, #814	; 0x32e
 4c0:	6b636568 	blvs	18d9a68 <__bss_end__+0x18ce598>
 4c4:	6f68735f 	svcvs	0x0068735f
 4c8:	5f646c75 	svcpl	0x00646c75
 4cc:	6b61656c 	blvs	1859a84 <__bss_end__+0x184e5b4>
 4d0:	625f5f00 	subsvs	r5, pc, #0, 30
 4d4:	655f7373 	ldrbvs	r7, [pc, #-883]	; 169 <__code_start__-0x7e97>
 4d8:	5f5f646e 	svcpl	0x005f646e
 4dc:	64657200 	strbtvs	r7, [r5], #-512	; 0xfffffe00
 4e0:	656e6f7a 	strbvs	r6, [lr, #-3962]!	; 0xfffff086
 4e4:	7272655f 	rsbsvc	r6, r2, #398458880	; 0x17c00000
 4e8:	0073726f 	rsbseq	r7, r3, pc, ror #4
 4ec:	7a646572 	bvc	1919abc <__bss_end__+0x190e5ec>
 4f0:	00656e6f 	rsbeq	r6, r5, pc, ror #28
 4f4:	6c616d6b 	stclvs	13, cr6, [r1], #-428	; 0xfffffe54
 4f8:	00636f6c 	rsbeq	r6, r3, ip, ror #30
 4fc:	6c616d6b 	stclvs	13, cr6, [r1], #-428	; 0xfffffe54
 500:	5f636f6c 	svcpl	0x00636f6c
 504:	74696e69 	strbtvc	r6, [r9], #-3689	; 0xfffff197
 508:	7465735f 	strbtvc	r7, [r5], #-863	; 0xfffffca1
 50c:	6174735f 	cmnvs	r4, pc, asr r3
 510:	73007472 	movwvc	r7, #1138	; 0x472
 514:	70656577 	rsbvc	r6, r5, r7, ror r5
 518:	61656c5f 	cmnvs	r5, pc, asr ip
 51c:	5f5f006b 	svcpl	0x005f006b
 520:	61746164 	cmnvs	r4, r4, ror #2
 524:	6174735f 	cmnvs	r4, pc, asr r3
 528:	5f5f7472 	svcpl	0x005f7472
 52c:	65777300 	ldrbvs	r7, [r7, #-768]!	; 0xfffffd00
 530:	665f7065 	ldrbvs	r7, [pc], -r5, rrx
 534:	00656572 	rsbeq	r6, r5, r2, ror r5
 538:	6e726177 	mrcvs	1, 3, r6, cr2, cr7, {3}
 53c:	5f6f6e5f 	svcpl	0x006f6e5f
 540:	72617473 	rsbvc	r7, r1, #1929379840	; 0x73000000
 544:	65725f74 	ldrbvs	r5, [r2, #-3956]!	; 0xfffff08c
 548:	00705f66 	rsbseq	r5, r0, r6, ror #30
 54c:	61746f74 	cmnvs	r4, r4, ror pc
 550:	6f77006c 	svcvs	0x0077006c
 554:	6e006472 	mcrvs	4, 0, r6, cr0, cr2, {3}
 558:	5f656d61 	svcpl	0x00656d61
 55c:	006e656c 	rsbeq	r6, lr, ip, ror #10
 560:	20554e47 	subscs	r4, r5, r7, asr #28
 564:	20393943 	eorscs	r3, r9, r3, asr #18
 568:	2e322e39 	mrccs	14, 1, r2, cr2, cr9, {1}
 56c:	30322031 	eorscc	r2, r2, r1, lsr r0
 570:	30313931 	eorscc	r3, r1, r1, lsr r9
 574:	28203532 	stmdacs	r0!, {r1, r4, r5, r8, sl, ip, sp}
 578:	656c6572 	strbvs	r6, [ip, #-1394]!	; 0xfffffa8e
 57c:	29657361 	stmdbcs	r5!, {r0, r5, r6, r8, r9, ip, sp, lr}^
 580:	52415b20 	subpl	r5, r1, #32, 22	; 0x8000
 584:	72612f4d 	rsbvc	r2, r1, #308	; 0x134
 588:	2d392d6d 	ldccs	13, cr2, [r9, #-436]!	; 0xfffffe4c
 58c:	6e617262 	cdpvs	2, 6, cr7, cr1, cr2, {3}
 590:	72206863 	eorvc	r6, r0, #6488064	; 0x630000
 594:	73697665 	cmnvc	r9, #105906176	; 0x6500000
 598:	206e6f69 	rsbcs	r6, lr, r9, ror #30
 59c:	35373732 	ldrcc	r3, [r7, #-1842]!	; 0xfffff8ce
 5a0:	205d3939 	subscs	r3, sp, r9, lsr r9
 5a4:	70636d2d 	rsbvc	r6, r3, sp, lsr #26
 5a8:	72613d75 	rsbvc	r3, r1, #7488	; 0x1d40
 5ac:	3731316d 	ldrcc	r3, [r1, -sp, ror #2]!
 5b0:	667a6a36 			; <UNDEFINED> instruction: 0x667a6a36
 5b4:	2d20732d 	stccs	3, cr7, [r0, #-180]!	; 0xffffff4c
 5b8:	6e75746d 	cdpvs	4, 7, cr7, cr5, cr13, {3}
 5bc:	72613d65 	rsbvc	r3, r1, #6464	; 0x1940
 5c0:	3731316d 	ldrcc	r3, [r1, -sp, ror #2]!
 5c4:	667a6a36 			; <UNDEFINED> instruction: 0x667a6a36
 5c8:	2d20732d 	stccs	3, cr7, [r0, #-180]!	; 0xffffff4c
 5cc:	6f6c666d 	svcvs	0x006c666d
 5d0:	612d7461 			; <UNDEFINED> instruction: 0x612d7461
 5d4:	733d6962 	teqvc	sp, #1605632	; 0x188000
 5d8:	2074666f 	rsbscs	r6, r4, pc, ror #12
 5dc:	72616d2d 	rsbvc	r6, r1, #2880	; 0xb40
 5e0:	6d2d206d 	stcvs	0, cr2, [sp, #-436]!	; 0xfffffe4c
 5e4:	68637261 	stmdavs	r3!, {r0, r5, r6, r9, ip, sp, lr}^
 5e8:	6d72613d 	ldfvse	f6, [r2, #-244]!	; 0xffffff0c
 5ec:	7a6b3676 	bvc	1acdfcc <__bss_end__+0x1ac2afc>
 5f0:	67672d20 	strbvs	r2, [r7, -r0, lsr #26]!
 5f4:	2d206264 	sfmcs	f6, 4, [r0, #-400]!	; 0xfffffe70
 5f8:	7361664f 	cmnvc	r1, #82837504	; 0x4f00000
 5fc:	732d2074 			; <UNDEFINED> instruction: 0x732d2074
 600:	673d6474 			; <UNDEFINED> instruction: 0x673d6474
 604:	3939756e 	ldmdbcc	r9!, {r1, r2, r3, r5, r6, r8, sl, ip, sp, lr}
 608:	66662d20 	strbtvs	r2, [r6], -r0, lsr #26
 60c:	73656572 	cmnvc	r5, #478150656	; 0x1c800000
 610:	646e6174 	strbtvs	r6, [lr], #-372	; 0xfffffe8c
 614:	00676e69 	rsbeq	r6, r7, r9, ror #28
 618:	735f6e66 	cmpvc	pc, #1632	; 0x660
 61c:	74726174 	ldrbtvc	r6, [r2], #-372	; 0xfffffe8c
 620:	6464615f 	strbtvs	r6, [r4], #-351	; 0xfffffea1
 624:	552f0072 	strpl	r0, [pc, #-114]!	; 5ba <__code_start__-0x7a46>
 628:	73726573 	cmnvc	r2, #482344960	; 0x1cc00000
 62c:	6c696d2f 	stclvs	13, cr6, [r9], #-188	; 0xffffff44
 630:	532f7365 			; <UNDEFINED> instruction: 0x532f7365
 634:	6372756f 	cmnvs	r2, #465567744	; 0x1bc00000
 638:	73632f65 	cmnvc	r3, #404	; 0x194
 63c:	6c303432 	cfldrsvs	mvf3, [r0], #-200	; 0xffffff38
 640:	696c2f78 	stmdbvs	ip!, {r3, r4, r5, r6, r8, r9, sl, fp, sp}^
 644:	00697062 	rsbeq	r7, r9, r2, rrx
 648:	72732f2e 	rsbsvc	r2, r3, #184	; 0xb8
 64c:	61622f63 	cmnvs	r2, r3, ror #30
 650:	72746b63 	rsbsvc	r6, r4, #101376	; 0x18c00
 654:	2e656361 	cdpcs	3, 6, cr6, cr5, cr1, {3}
 658:	75630063 	strbvc	r0, [r3, #-99]!	; 0xffffff9d
 65c:	70665f72 	rsbvc	r5, r6, r2, ror pc
 660:	6d616e00 	stclvs	14, cr6, [r1, #-0]
 664:	666f5f65 	strbtvs	r5, [pc], -r5, ror #30
 668:	7a697300 	bvc	1a5d270 <__bss_end__+0x1a51da0>
 66c:	00745f65 	rsbseq	r5, r4, r5, ror #30
 670:	696c2f2e 	stmdbvs	ip!, {r1, r2, r3, r5, r8, r9, sl, fp, sp}^
 674:	6d2f6362 	stcvs	3, cr6, [pc, #-392]!	; 4f4 <__code_start__-0x7b0c>
 678:	65736d65 	ldrbvs	r6, [r3, #-3429]!	; 0xfffff29b
 67c:	00632e74 	rsbeq	r2, r3, r4, ror lr
 680:	73677261 	cmnvc	r7, #268435462	; 0x10000006
 684:	5f617600 	svcpl	0x00617600
 688:	6e697270 	mcrvs	2, 3, r7, cr9, cr0, {3}
 68c:	5f006b74 	svcpl	0x00006b74
 690:	756e675f 	strbvc	r6, [lr, #-1887]!	; 0xfffff8a1
 694:	61765f63 	cmnvs	r6, r3, ror #30
 698:	73696c5f 	cmnvc	r9, #24320	; 0x5f00
 69c:	5f5f0074 	svcpl	0x005f0074
 6a0:	2e007061 	cdpcs	0, 0, cr7, cr0, cr1, {3}
 6a4:	62696c2f 	rsbvs	r6, r9, #12032	; 0x2f00
 6a8:	72702f63 	rsbsvc	r2, r0, #396	; 0x18c
 6ac:	6b746e69 	blvs	1d1c058 <__bss_end__+0x1d10b88>
 6b0:	5f00632e 	svcpl	0x0000632e
 6b4:	5f61765f 	svcpl	0x0061765f
 6b8:	7473696c 	ldrbtvc	r6, [r3], #-2412	; 0xfffff694
 6bc:	746e6900 	strbtvc	r6, [lr], #-2304	; 0xfffff700
 6c0:	616e7265 	cmnvs	lr, r5, ror #4
 6c4:	75705f6c 	ldrbvc	r5, [r0, #-3948]!	; 0xfffff094
 6c8:	2e006b74 	vmovcs.16	d0[1], r6
 6cc:	62696c2f 	rsbvs	r6, r9, #12032	; 0x2f00
 6d0:	75702f63 	ldrbvc	r2, [r0, #-3939]!	; 0xfffff09d
 6d4:	632e6b74 			; <UNDEFINED> instruction: 0x632e6b74
 6d8:	73666c00 	cmnvc	r6, #0, 24
 6dc:	70720072 	rsbsvc	r0, r2, r2, ror r0
 6e0:	65725f69 	ldrbvs	r5, [r2, #-3945]!	; 0xfffff097
 6e4:	00746573 	rsbseq	r6, r4, r3, ror r5
 6e8:	5f697072 	svcpl	0x00697072
 6ec:	646e6172 	strbtvs	r6, [lr], #-370	; 0xfffffe8e
 6f0:	73003631 	movwvc	r3, #1585	; 0x631
 6f4:	00646565 	rsbeq	r6, r4, r5, ror #10
 6f8:	696c2f2e 	stmdbvs	ip!, {r1, r2, r3, r5, r8, r9, sl, fp, sp}^
 6fc:	722f6362 	eorvc	r6, pc, #-2013265919	; 0x88000001
 700:	722d6970 	eorvc	r6, sp, #112, 18	; 0x1c0000
 704:	2e646e61 	cdpcs	14, 6, cr6, cr4, cr1, {3}
 708:	73690063 	cmnvc	r9, #99, 0	; 0x63
 70c:	69676964 	stmdbvs	r7!, {r2, r5, r6, r8, fp, sp, lr}^
 710:	69750074 	ldmdbvs	r5!, {r2, r4, r5, r6}^
 714:	3436746e 	ldrtcc	r7, [r6], #-1134	; 0xfffffb92
 718:	2e00745f 	cfmvsrcs	mvf0, r7
 71c:	62696c2f 	rsbvs	r6, r9, #12032	; 0x2f00
 720:	61762f63 	cmnvs	r6, r3, ror #30
 724:	6972702d 	ldmdbvs	r2!, {r0, r2, r3, r5, ip, sp, lr}^
 728:	2e6b746e 	cdpcs	4, 6, cr7, cr11, cr14, {3}
 72c:	5f5f0063 	svcpl	0x005f0063
 730:	65646f63 	strbvs	r6, [r4, #-3939]!	; 0xfffff09d
 734:	6174735f 	cmnvs	r4, pc, asr r3
 738:	5f5f7472 	svcpl	0x005f7472
 73c:	64697700 	strbtvs	r7, [r9], #-1792	; 0xfffff900
 740:	70006874 	andvc	r6, r0, r4, ror r8
 744:	5f637475 	svcpl	0x00637475
 748:	72007066 	andvc	r7, r0, #102, 0	; 0x66
 74c:	735f6970 	cmpvc	pc, #112, 18	; 0x1c0000
 750:	6f5f7465 	svcvs	0x005f7465
 754:	75707475 	ldrbvc	r7, [r0, #-1141]!	; 0xfffffb8b
 758:	6d660074 	stclvs	0, cr0, [r6, #-464]!	; 0xfffffe30
 75c:	74735f74 	ldrbtvc	r5, [r3], #-3956	; 0xfffff08c
 760:	00747261 	rsbseq	r7, r4, r1, ror #4
 764:	63727473 	cmnvs	r2, #1929379840	; 0x73000000
 768:	73007461 	movwvc	r7, #1121	; 0x461
 76c:	70637274 	rsbvc	r7, r3, r4, ror r2
 770:	656e0079 	strbvs	r0, [lr, #-121]!	; 0xffffff87
 774:	00705f67 	rsbseq	r5, r0, r7, ror #30
 778:	6f635f5f 	svcvs	0x00635f5f
 77c:	655f6564 	ldrbvs	r6, [pc, #-1380]	; 220 <__code_start__-0x7de0>
 780:	5f5f646e 	svcpl	0x005f646e
 784:	696d6500 	stmdbvs	sp!, {r8, sl, sp, lr}^
 788:	65720074 	ldrbvs	r0, [r2, #-116]!	; 0xffffff8c
 78c:	73726576 	cmnvc	r2, #494927872	; 0x1d800000
 790:	74730065 	ldrbtvc	r0, [r3], #-101	; 0xffffff9b
 794:	706d6372 	rsbvc	r6, sp, r2, ror r3
 798:	74757000 	ldrbtvc	r7, [r5], #-0
 79c:	70665f73 	rsbvc	r5, r6, r3, ror pc
 7a0:	705f5f00 	subsvc	r5, pc, r0, lsl #30
 7a4:	5f676f72 	svcpl	0x00676f72
 7a8:	5f646e65 	svcpl	0x00646e65
 7ac:	756e005f 	strbvc	r0, [lr, #-95]!	; 0xffffffa1
 7b0:	7300316d 	movwvc	r3, #365	; 0x16d
 7b4:	636e7274 	cmnvs	lr, #116, 4	; 0x40000007
 7b8:	7300706d 	movwvc	r7, #109	; 0x6d
 7bc:	656e6769 	strbvs	r6, [lr, #-1897]!	; 0xfffff897
 7c0:	00705f64 	rsbseq	r5, r0, r4, ror #30
 7c4:	5f697072 	svcpl	0x00697072
 7c8:	6f626572 	svcvs	0x00626572
 7cc:	6400746f 	strvs	r7, [r0], #-1135	; 0xfffffb91
 7d0:	79616c65 	stmdbvc	r1!, {r0, r2, r5, r6, sl, fp, sp, lr}^
 7d4:	00736d5f 	rsbseq	r6, r3, pc, asr sp
 7d8:	74732f2e 	ldrbtvc	r2, [r3], #-3886	; 0xfffff0d2
 7dc:	2d666661 	stclcs	6, cr6, [r6, #-388]!	; 0xfffffe7c
 7e0:	2f637273 	svccs	0x00637273
 7e4:	61656c63 	cmnvs	r5, r3, ror #24
 7e8:	65722d6e 	ldrbvs	r2, [r2, #-3438]!	; 0xfffff292
 7ec:	746f6f62 	strbtvc	r6, [pc], #-3938	; 7f4 <__code_start__-0x780c>
 7f0:	7500632e 	strvc	r6, [r0, #-814]	; 0xfffffcd2
 7f4:	5f747261 	svcpl	0x00747261
 7f8:	73756c66 	cmnvc	r5, #26112	; 0x6600
 7fc:	78745f68 	ldmdavc	r4!, {r3, r5, r6, r8, r9, sl, fp, ip, lr}^
 800:	73635f00 	cmnvc	r3, #0, 30
 804:	74726174 	ldrbtvc	r6, [r2], #-372	; 0xfffffe8c
 808:	73736200 	cmnvc	r3, #0, 4
 80c:	646e655f 	strbtvs	r6, [lr], #-1375	; 0xfffffaa1
 810:	72617500 	rsbvc	r7, r1, #0, 10
 814:	6e695f74 	mcrvs	15, 3, r5, cr9, cr4, {3}
 818:	63007469 	movwvs	r7, #1129	; 0x469
 81c:	6f747375 	svcvs	0x00747375
 820:	6f6c5f6d 	svcvs	0x006c5f6d
 824:	72656461 	rsbvc	r6, r5, #1627389952	; 0x61000000
 828:	732f2e00 			; <UNDEFINED> instruction: 0x732f2e00
 82c:	66666174 			; <UNDEFINED> instruction: 0x66666174
 830:	6372732d 	cmnvs	r2, #-1275068416	; 0xb4000000
 834:	7473632f 	ldrbtvc	r6, [r3], #-815	; 0xfffffcd1
 838:	2e747261 	cdpcs	2, 7, cr7, cr4, cr1, {3}
 83c:	6f5f0063 	svcvs	0x005f0063
 840:	63007475 	movwvs	r7, #1141	; 0x475
 844:	656c6379 	strbvs	r6, [ip, #-889]!	; 0xfffffc87
 848:	6669645f 			; <UNDEFINED> instruction: 0x6669645f
 84c:	616c0066 	cmnvs	ip, r6, rrx
 850:	2e007473 	mcrcs	4, 0, r7, cr0, cr3, {3}
 854:	6174732f 	cmnvs	r4, pc, lsr #6
 858:	732d6666 			; <UNDEFINED> instruction: 0x732d6666
 85c:	632f6372 			; <UNDEFINED> instruction: 0x632f6372
 860:	6f747375 	svcvs	0x00747375
 864:	6f6c2d6d 	svcvs	0x006c2d6d
 868:	72656461 	rsbvc	r6, r5, #1627389952	; 0x61000000
 86c:	7200632e 	andvc	r6, r0, #-1207959552	; 0xb8000000
 870:	6f6f6265 	svcvs	0x006f6265
 874:	61635f74 	smcvs	13812	; 0x35f4
 878:	756f6c6c 	strbvc	r6, [pc, #-3180]!	; fffffc14 <__bss_end__+0xffff4744>
 87c:	4d500074 	ldclmi	0, cr0, [r0, #-464]	; 0xfffffe30
 880:	4f44575f 	svcmi	0x0044575f
 884:	55500047 	ldrbpl	r0, [r0, #-71]	; 0xffffffb9
 888:	00323354 	eorseq	r3, r2, r4, asr r3
 88c:	5f746573 	svcpl	0x00746573
 890:	72657375 	rsbvc	r7, r5, #-738197503	; 0xd4000001
 894:	76656c5f 			; <UNDEFINED> instruction: 0x76656c5f
 898:	2e006c65 	cdpcs	12, 0, cr6, cr0, cr5, {3}
 89c:	6174732f 	cmnvs	r4, pc, lsr #6
 8a0:	732d6666 			; <UNDEFINED> instruction: 0x732d6666
 8a4:	722f6372 	eorvc	r6, pc, #-939524095	; 0xc8000001
 8a8:	6f6f6265 	svcvs	0x006f6265
 8ac:	00632e74 	rsbeq	r2, r3, r4, ror lr
 8b0:	505f4d50 	subspl	r4, pc, r0, asr sp	; <UNPREDICTABLE>
 8b4:	57535341 	ldrbpl	r5, [r3, -r1, asr #6]
 8b8:	0044524f 	subeq	r5, r4, pc, asr #4
 8bc:	755f7461 	ldrbvc	r7, [pc, #-1121]	; 463 <__code_start__-0x7b9d>
 8c0:	5f726573 	svcpl	0x00726573
 8c4:	6576656c 	ldrbvs	r6, [r6, #-1388]!	; 0xfffffa94
 8c8:	4d50006c 	ldclmi	0, cr0, [r0, #-432]	; 0xfffffe50
 8cc:	5453525f 	ldrbpl	r5, [r3], #-607	; 0xfffffda1
 8d0:	52575f43 	subspl	r5, r7, #268	; 0x10c
 8d4:	5f474643 	svcpl	0x00474643
 8d8:	4c4c5546 	cfstr64mi	mvdx5, [ip], {70}	; 0x46
 8dc:	5345525f 	movtpl	r5, #21087	; 0x525f
 8e0:	50005445 	andpl	r5, r0, r5, asr #8
 8e4:	53525f4d 	cmppl	r2, #308	; 0x134
 8e8:	63004354 	movwvs	r4, #852	; 0x354
 8ec:	00727370 	rsbseq	r7, r2, r0, ror r3
 8f0:	5f766564 	svcpl	0x00766564
 8f4:	72726162 	rsbsvc	r6, r2, #-2147483624	; 0x80000018
 8f8:	00726569 	rsbseq	r6, r2, r9, ror #10
 8fc:	616c6564 	cmnvs	ip, r4, ror #10
 900:	65735f79 	ldrbvs	r5, [r3, #-3961]!	; 0xfffff087
 904:	2f2e0063 	svccs	0x002e0063
 908:	66617473 			; <UNDEFINED> instruction: 0x66617473
 90c:	72732d66 	rsbsvc	r2, r3, #6528	; 0x1980
 910:	69742f63 	ldmdbvs	r4!, {r0, r1, r5, r6, r8, r9, sl, fp, sp}^
 914:	2e72656d 	cdpcs	5, 7, cr6, cr2, cr13, {3}
 918:	45470063 	strbmi	r0, [r7, #-99]	; 0xffffff9d
 91c:	00323354 	eorseq	r3, r2, r4, asr r3
 920:	656d6974 	strbvs	r6, [sp, #-2420]!	; 0xfffff68c
 924:	65675f72 	strbvs	r5, [r7, #-3954]!	; 0xfffff08e
 928:	73755f74 	cmnvc	r5, #116, 30	; 0x1d0
 92c:	64006365 	strvs	r6, [r0], #-869	; 0xfffffc9b
 930:	79616c65 	stmdbvc	r1!, {r0, r2, r5, r6, sl, fp, sp, lr}^
 934:	0073755f 	rsbseq	r7, r3, pc, asr r5
 938:	656d6974 	strbvs	r6, [sp, #-2420]!	; 0xfffff68c
 93c:	65675f72 	strbvs	r5, [r7, #-3954]!	; 0xfffff08e
 940:	73755f74 	cmnvc	r5, #116, 30	; 0x1d0
 944:	725f6365 	subsvc	r6, pc, #-1811939327	; 0x94000001
 948:	70007761 	andvc	r7, r0, r1, ror #14
 94c:	32337475 	eorscc	r7, r3, #1962934272	; 0x75000000
 950:	75616200 	strbvc	r6, [r1, #-512]!	; 0xfffffe00
 954:	61765f64 	cmnvs	r6, r4, ror #30
 958:	7473006c 	ldrbtvc	r0, [r3], #-108	; 0xffffff94
 95c:	75007461 	strvc	r7, [r0, #-1121]	; 0xfffffb9f
 960:	5f747261 	svcpl	0x00747261
 964:	5f6e6163 	svcpl	0x006e6163
 968:	63746567 	cmnvs	r4, #432013312	; 0x19c00000
 96c:	49504700 	ldmdbmi	r0, {r8, r9, sl, lr}^
 970:	55465f4f 	strbpl	r5, [r6, #-3919]	; 0xfffff0b1
 974:	4f5f434e 	svcmi	0x005f434e
 978:	55505455 	ldrbpl	r5, [r0, #-1109]	; 0xfffffbab
 97c:	75610054 	strbvc	r0, [r1, #-84]!	; 0xffffffac
 980:	65705f78 	ldrbvs	r5, [r0, #-3960]!	; 0xfffff088
 984:	68706972 	ldmdavs	r0!, {r1, r4, r5, r6, r8, fp, sp, lr}^
 988:	61750073 	cmnvs	r5, r3, ror r0
 98c:	632e7472 			; <UNDEFINED> instruction: 0x632e7472
 990:	72617500 	rsbvc	r7, r1, #0, 10
 994:	61635f74 	smcvs	13812	; 0x35f4
 998:	75705f6e 	ldrbvc	r5, [r0, #-3950]!	; 0xfffff092
 99c:	75006374 	strvc	r6, [r0, #-884]	; 0xfffffc8c
 9a0:	5f747261 	svcpl	0x00747261
 9a4:	695f7874 	ldmdbvs	pc, {r2, r4, r5, r6, fp, ip, sp, lr}^	; <UNPREDICTABLE>
 9a8:	6d655f73 	stclvs	15, cr5, [r5, #-460]!	; 0xfffffe34
 9ac:	00797470 	rsbseq	r7, r9, r0, ror r4
 9b0:	4f495047 	svcmi	0x00495047
 9b4:	4e55465f 	mrcmi	6, 2, r4, cr5, cr15, {2}
 9b8:	4c415f43 	mcrrmi	15, 4, r5, r1, cr3
 9bc:	47003054 	smlsdmi	r0, r4, r0, r3
 9c0:	5f4f4950 	svcpl	0x004f4950
 9c4:	434e5546 	movtmi	r5, #58694	; 0xe546
 9c8:	544c415f 	strbpl	r4, [ip], #-351	; 0xfffffea1
 9cc:	50470031 	subpl	r0, r7, r1, lsr r0
 9d0:	465f4f49 	ldrbmi	r4, [pc], -r9, asr #30
 9d4:	5f434e55 	svcpl	0x00434e55
 9d8:	32544c41 	subscc	r4, r4, #16640	; 0x4100
 9dc:	49504700 	ldmdbmi	r0, {r8, r9, sl, lr}^
 9e0:	55465f4f 	strbpl	r5, [r6, #-3919]	; 0xfffff0b1
 9e4:	415f434e 	cmpmi	pc, lr, asr #6
 9e8:	0033544c 	eorseq	r5, r3, ip, asr #8
 9ec:	4f495047 	svcmi	0x00495047
 9f0:	4e55465f 	mrcmi	6, 2, r4, cr5, cr15, {2}
 9f4:	4c415f43 	mcrrmi	15, 4, r5, r1, cr3
 9f8:	2f003554 	svccs	0x00003554
 9fc:	656d6f68 	strbvs	r6, [sp, #-3944]!	; 0xfffff098
 a00:	676e652f 	strbvs	r6, [lr, -pc, lsr #10]!
 a04:	2f72656c 	svccs	0x0072656c
 a08:	73616c63 	cmnvc	r1, #25344	; 0x6300
 a0c:	73632f73 	cmnvc	r3, #460	; 0x1cc
 a10:	6c303432 	cfldrsvs	mvf3, [r0], #-200	; 0xffffff38
 a14:	32322d78 	eorscc	r2, r2, #120, 26	; 0x1e00
 a18:	2f727073 	svccs	0x00727073
 a1c:	7062696c 	rsbvc	r6, r2, ip, ror #18
 a20:	74732f69 	ldrbtvc	r2, [r3], #-3945	; 0xfffff097
 a24:	2d666661 	stclcs	6, cr6, [r6, #-388]!	; 0xfffffe7c
 a28:	76697270 			; <UNDEFINED> instruction: 0x76697270
 a2c:	00657461 	rsbeq	r7, r5, r1, ror #8
 a30:	64756162 	ldrbtvs	r6, [r5], #-354	; 0xfffffe9e
 a34:	78756100 	ldmdavc	r5!, {r8, sp, lr}^
 a38:	616e655f 	cmnvs	lr, pc, asr r5
 a3c:	73656c62 	cmnvc	r5, #25088	; 0x6200
 a40:	72617500 	rsbvc	r7, r1, #0, 10
 a44:	65675f74 	strbvs	r5, [r7, #-3956]!	; 0xfffff08c
 a48:	47006374 	smlsdxmi	r0, r4, r3, r6
 a4c:	4320554e 			; <UNDEFINED> instruction: 0x4320554e
 a50:	31203939 			; <UNDEFINED> instruction: 0x31203939
 a54:	2e332e30 	mrccs	14, 1, r2, cr3, cr0, {1}
 a58:	30322031 	eorscc	r2, r2, r1, lsr r0
 a5c:	38303132 	ldmdacc	r0!, {r1, r4, r5, r8, ip, sp}
 a60:	28203432 	stmdacs	r0!, {r1, r4, r5, sl, ip, sp}
 a64:	656c6572 	strbvs	r6, [ip, #-1394]!	; 0xfffffa8e
 a68:	29657361 	stmdbcs	r5!, {r0, r5, r6, r8, r9, ip, sp, lr}^
 a6c:	636d2d20 	cmnvs	sp, #32, 26	; 0x800
 a70:	613d7570 	teqvs	sp, r0, ror r5
 a74:	31316d72 	teqcc	r1, r2, ror sp
 a78:	7a6a3637 	bvc	1a8e35c <__bss_end__+0x1a82e8c>
 a7c:	20732d66 	rsbscs	r2, r3, r6, ror #26
 a80:	75746d2d 	ldrbvc	r6, [r4, #-3373]!	; 0xfffff2d3
 a84:	613d656e 	teqvs	sp, lr, ror #10
 a88:	31316d72 	teqcc	r1, r2, ror sp
 a8c:	7a6a3637 	bvc	1a8e370 <__bss_end__+0x1a82ea0>
 a90:	20732d66 	rsbscs	r2, r3, r6, ror #26
 a94:	6c666d2d 	stclvs	13, cr6, [r6], #-180	; 0xffffff4c
 a98:	2d74616f 	ldfcse	f6, [r4, #-444]!	; 0xfffffe44
 a9c:	3d696261 	sfmcc	f6, 2, [r9, #-388]!	; 0xfffffe7c
 aa0:	74666f73 	strbtvc	r6, [r6], #-3955	; 0xfffff08d
 aa4:	616d2d20 	cmnvs	sp, r0, lsr #26
 aa8:	2d206d72 	stccs	13, cr6, [r0, #-456]!	; 0xfffffe38
 aac:	6372616d 	cmnvs	r2, #1073741851	; 0x4000001b
 ab0:	72613d68 	rsbvc	r3, r1, #104, 26	; 0x1a00
 ab4:	6b36766d 	blvs	d9e470 <__bss_end__+0xd92fa0>
 ab8:	672d207a 			; <UNDEFINED> instruction: 0x672d207a
 abc:	20626467 	rsbcs	r6, r2, r7, ror #8
 ac0:	20674f2d 	rsbcs	r4, r7, sp, lsr #30
 ac4:	6474732d 	ldrbtvs	r7, [r4], #-813	; 0xfffffcd3
 ac8:	756e673d 	strbvc	r6, [lr, #-1853]!	; 0xfffff8c3
 acc:	2d203939 			; <UNDEFINED> instruction: 0x2d203939
 ad0:	65726666 	ldrbvs	r6, [r2, #-1638]!	; 0xfffff99a
 ad4:	61747365 	cmnvs	r4, r5, ror #6
 ad8:	6e69646e 	cdpvs	4, 6, cr6, cr9, cr14, {3}
 adc:	6e630067 	cdpvs	0, 6, cr0, cr3, cr7, {3}
 ae0:	75006c74 	strvc	r6, [r0, #-3188]	; 0xfffff38c
 ae4:	5f747261 	svcpl	0x00747261
 ae8:	61736964 	cmnvs	r3, r4, ror #18
 aec:	00656c62 	rsbeq	r6, r5, r2, ror #24
 af0:	74726175 	ldrbtvc	r6, [r2], #-373	; 0xfffffe8b
 af4:	7361685f 	cmnvc	r1, #6225920	; 0x5f0000
 af8:	7461645f 	strbtvc	r6, [r1], #-1119	; 0xfffffba1
 afc:	50470061 	subpl	r0, r7, r1, rrx
 b00:	465f4f49 	ldrbmi	r4, [pc], -r9, asr #30
 b04:	5f434e55 	svcpl	0x00434e55
 b08:	34544c41 	ldrbcc	r4, [r4], #-3137	; 0xfffff3bf
 b0c:	5f726f00 	svcpl	0x00726f00
 b10:	32336e69 	eorscc	r6, r3, #1680	; 0x690
 b14:	72637300 	rsbvc	r7, r3, #0, 6
 b18:	68637461 	stmdavs	r3!, {r0, r5, r6, sl, ip, sp, lr}^
 b1c:	72617500 	rsbvc	r7, r1, #0, 10
 b20:	6e610074 	mcrvs	0, 3, r0, cr1, cr4, {3}
 b24:	6e695f64 	cdpvs	15, 6, cr5, cr9, cr4, {3}
 b28:	75003233 	strvc	r3, [r0, #-563]	; 0xfffffdcd
 b2c:	5f747261 	svcpl	0x00747261
 b30:	63747570 	cmnvs	r4, #112, 10	; 0x1c000000
 b34:	49504700 	ldmdbmi	r0, {r8, r9, sl, lr}^
 b38:	55465f4f 	strbpl	r5, [r6, #-3919]	; 0xfffff0b1
 b3c:	495f434e 	ldmdbmi	pc, {r1, r2, r3, r6, r8, r9, lr}^	; <UNPREDICTABLE>
 b40:	5455504e 	ldrbpl	r5, [r5], #-78	; 0xffffffb2
 b44:	69706700 	ldmdbvs	r0!, {r8, r9, sl, sp, lr}^
 b48:	65735f6f 	ldrbvs	r5, [r3, #-3951]!	; 0xfffff091
 b4c:	75665f74 	strbvc	r5, [r6, #-3956]!	; 0xfffff08c
 b50:	6974636e 	ldmdbvs	r4!, {r1, r2, r3, r5, r6, r8, r9, sp, lr}^
 b54:	67006e6f 	strvs	r6, [r0, -pc, ror #28]
 b58:	32337465 	eorscc	r7, r3, #1694498816	; 0x65000000
 b5c:	616d6b00 	cmnvs	sp, r0, lsl #22
 b60:	636f6c6c 	cmnvs	pc, #108, 24	; 0x6c00
 b64:	6165685f 	cmnvs	r5, pc, asr r8
 b68:	74735f70 	ldrbtvc	r5, [r3], #-3952	; 0xfffff090
 b6c:	00747261 	rsbseq	r7, r4, r1, ror #4
 b70:	5f78616d 	svcpl	0x0078616d
 b74:	7479626e 	ldrbtvc	r6, [r9], #-622	; 0xfffffd92
 b78:	68007365 	stmdavs	r0, {r0, r2, r5, r6, r8, r9, ip, sp, lr}
 b7c:	5f706165 	svcpl	0x00706165
 b80:	0078616d 	rsbseq	r6, r8, sp, ror #2
 b84:	6572666b 	ldrbvs	r6, [r2, #-1643]!	; 0xfffff995
 b88:	6c615f65 	stclvs	15, cr5, [r1], #-404	; 0xfffffe6c
 b8c:	6f72006c 	svcvs	0x0072006c
 b90:	75646e75 	strbvc	r6, [r4, #-3701]!	; 0xfffff18b
 b94:	666b0070 			; <UNDEFINED> instruction: 0x666b0070
 b98:	5f656572 	svcpl	0x00656572
 b9c:	00706f70 	rsbseq	r6, r0, r0, ror pc
 ba0:	67696c61 	strbvs	r6, [r9, -r1, ror #24]!
 ba4:	6e656d6e 	cdpvs	13, 6, cr6, cr5, cr14, {3}
 ba8:	616d0074 	smcvs	53252	; 0xd004
 bac:	33755f78 	cmncc	r5, #120, 30	; 0x1e0
 bb0:	6e4f0032 	mcrvs	0, 2, r0, cr15, cr2, {1}
 bb4:	00424d65 	subeq	r4, r2, r5, ror #26
 bb8:	6c616d6b 	stclvs	13, cr6, [r1], #-428	; 0xfffffe54
 bbc:	5f636f6c 	svcpl	0x00636f6c
 bc0:	70616568 	rsbvc	r6, r1, r8, ror #10
 bc4:	646e655f 	strbtvs	r6, [lr], #-1375	; 0xfffffaa1
 bc8:	616d6b00 	cmnvs	sp, r0, lsl #22
 bcc:	636f6c6c 	cmnvs	pc, #108, 24	; 0x6c00
 bd0:	746f6e5f 	strbtvc	r6, [pc], #-3679	; bd8 <__code_start__-0x7428>
 bd4:	6f72657a 	svcvs	0x0072657a
 bd8:	5f736900 	svcpl	0x00736900
 bdc:	32776f70 	rsbscc	r6, r7, #112, 30	; 0x1c0
 be0:	616d6b00 	cmnvs	sp, r0, lsl #22
 be4:	636f6c6c 	cmnvs	pc, #108, 24	; 0x6c00
 be8:	6b00632e 	blvs	198a8 <__bss_end__+0xe3d8>
 bec:	6c6c616d 	stfvse	f6, [ip], #-436	; 0xfffffe4c
 bf0:	695f636f 	ldmdbvs	pc, {r0, r1, r2, r3, r5, r6, r8, r9, sp, lr}^	; <UNPREDICTABLE>
 bf4:	0074696e 	rsbseq	r6, r4, lr, ror #18
 bf8:	615f7369 	cmpvs	pc, r9, ror #6
 bfc:	6e67696c 	vnmulvs.f16	s13, s14, s25	; <UNPREDICTABLE>
 c00:	6b006465 	blvs	19d9c <__bss_end__+0xe8cc>
 c04:	6c6c616d 	stfvse	f6, [ip], #-436	; 0xfffffe4c
 c08:	685f636f 	ldmdavs	pc, {r0, r1, r2, r3, r5, r6, r8, r9, sp, lr}^	; <UNPREDICTABLE>
 c0c:	5f706165 	svcpl	0x00706165
 c10:	00727470 	rsbseq	r7, r2, r0, ror r4
 c14:	5f697072 	svcpl	0x00697072
 c18:	65736572 	ldrbvs	r6, [r3, #-1394]!	; 0xfffffa8e
 c1c:	75705f74 	ldrbvc	r5, [r0, #-3956]!	; 0xfffff08c
 c20:	6b006374 	blvs	199f8 <__bss_end__+0xe528>
 c24:	6c6c616d 	stfvse	f6, [ip], #-436	; 0xfffffe4c
 c28:	615f636f 	cmpvs	pc, pc, ror #6
 c2c:	6e67696c 	vnmulvs.f16	s13, s14, s25	; <UNPREDICTABLE>
 c30:	67006465 	strvs	r6, [r0, -r5, ror #8]
 c34:	5f6f6970 	svcpl	0x006f6970
 c38:	30726c63 	rsbscc	r6, r2, r3, ror #24
 c3c:	69706700 	ldmdbvs	r0!, {r8, r9, sl, sp, lr}^
 c40:	65735f6f 	ldrbvs	r5, [r3, #-3951]!	; 0xfffff091
 c44:	67003074 	smlsdxvs	r0, r4, r0, r3
 c48:	5f6f6970 	svcpl	0x006f6970
 c4c:	74697277 	strbtvc	r7, [r9], #-631	; 0xfffffd89
 c50:	45440065 	strbmi	r0, [r4, #-101]	; 0xffffff9b
 c54:	41565f56 	cmpmi	r6, r6, asr pc
 c58:	0032334c 	eorseq	r3, r2, ip, asr #6
 c5c:	6f697067 	svcvs	0x00697067
 c60:	6165725f 	cmnvs	r5, pc, asr r2
 c64:	2f2e0064 	svccs	0x002e0064
 c68:	2f637273 	svccs	0x00637273
 c6c:	6f697067 	svcvs	0x00697067
 c70:	6700632e 	strvs	r6, [r0, -lr, lsr #6]
 c74:	5f6f6970 	svcpl	0x006f6970
 c78:	5f746573 	svcpl	0x00746573
 c7c:	75706e69 	ldrbvc	r6, [r0, #-3689]!	; 0xfffff197
 c80:	70670074 	rsbvc	r0, r7, r4, ror r0
 c84:	735f6f69 	cmpvc	pc, #420	; 0x1a4
 c88:	6f5f7465 	svcvs	0x005f7465
 c8c:	67006666 	strvs	r6, [r0, -r6, ror #12]
 c90:	5f6f6970 	svcpl	0x006f6970
 c94:	5f746573 	svcpl	0x00746573
 c98:	7074756f 	rsbsvc	r7, r4, pc, ror #10
 c9c:	67007475 	smlsdxvs	r0, r5, r4, r7
 ca0:	5f6f6970 	svcpl	0x006f6970
 ca4:	636e7566 	cmnvs	lr, #427819008	; 0x19800000
 ca8:	6700745f 	smlsdvs	r0, pc, r4, r7	; <UNPREDICTABLE>
 cac:	5f6f6970 	svcpl	0x006f6970
 cb0:	3076656c 	rsbscc	r6, r6, ip, ror #10
 cb4:	6e616200 	cdpvs	2, 6, cr6, cr1, cr0, {0}
 cb8:	7067006b 	rsbvc	r0, r7, fp, rrx
 cbc:	735f6f69 	cmpvc	pc, #420	; 0x1a4
 cc0:	6f5f7465 	svcvs	0x005f7465
 cc4:	6e69006e 	cdpvs	0, 6, cr0, cr9, cr14, {3}
 cc8:	6e726574 	mrcvs	5, 3, r6, cr2, cr4, {3}
 ccc:	705f6c61 	subsvc	r6, pc, r1, ror #24
 cd0:	68637475 	stmdavs	r3!, {r0, r2, r4, r5, r6, sl, ip, sp, lr}^
 cd4:	72007261 	andvc	r7, r0, #268435462	; 0x10000006
 cd8:	735f6970 	cmpvc	pc, #112, 18	; 0x1c0000
 cdc:	705f7465 	subsvc	r7, pc, r5, ror #8
 ce0:	00637475 	rsbeq	r7, r3, r5, ror r4
 ce4:	696c2f2e 	stmdbvs	ip!, {r1, r2, r3, r5, r8, r9, sl, fp, sp}^
 ce8:	702f6362 	eorvc	r6, pc, r2, ror #6
 cec:	68637475 	stmdavs	r3!, {r0, r2, r4, r5, r6, sl, ip, sp, lr}^
 cf0:	632e7261 			; <UNDEFINED> instruction: 0x632e7261
 cf4:	6c2f2e00 	stcvs	14, cr2, [pc], #-0	; cfc <__code_start__-0x7304>
 cf8:	2f636269 	svccs	0x00636269
 cfc:	63727473 	cmnvs	r2, #1929379840	; 0x73000000
 d00:	632e7461 			; <UNDEFINED> instruction: 0x632e7461
 d04:	73656400 	cmnvc	r5, #0, 8
 d08:	2f2e0074 	svccs	0x002e0074
 d0c:	6362696c 	cmnvs	r2, #108, 18	; 0x1b0000
 d10:	7274732f 	rsbsvc	r7, r4, #-1140850688	; 0xbc000000
 d14:	2e706d63 	cdpcs	13, 7, cr6, cr0, cr3, {3}
 d18:	2f2e0063 	svccs	0x002e0063
 d1c:	6362696c 	cmnvs	r2, #108, 18	; 0x1b0000
 d20:	7274732f 	rsbsvc	r7, r4, #-1140850688	; 0xbc000000
 d24:	2e797063 	cdpcs	0, 7, cr7, cr9, cr3, {3}
 d28:	2f2e0063 	svccs	0x002e0063
 d2c:	6362696c 	cmnvs	r2, #108, 18	; 0x1b0000
 d30:	7274732f 	rsbsvc	r7, r4, #-1140850688	; 0xbc000000
 d34:	706d636e 	rsbvc	r6, sp, lr, ror #6
 d38:	2e00632e 	cdpcs	3, 0, cr6, cr0, cr14, {1}
 d3c:	6174732f 	cmnvs	r4, pc, lsr #6
 d40:	732d6666 			; <UNDEFINED> instruction: 0x732d6666
 d44:	642f6372 	strtvs	r6, [pc], #-882	; d4c <__code_start__-0x72b4>
 d48:	75616665 	strbvc	r6, [r1, #-1637]!	; 0xfffff99b
 d4c:	722d746c 	eorvc	r7, sp, #108, 8	; 0x6c000000
 d50:	6f6f6265 	svcvs	0x006f6265
 d54:	61632d74 	smcvs	13012	; 0x32d4
 d58:	756f6c6c 	strbvc	r6, [pc, #-3180]!	; f4 <__code_start__-0x7f0c>
 d5c:	00632e74 	rsbeq	r2, r3, r4, ror lr

Disassembly of section .debug_frame:

00000000 <.debug_frame>:
   0:	0000000c 	andeq	r0, r0, ip
   4:	ffffffff 			; <UNDEFINED> instruction: 0xffffffff
   8:	7c020001 	stcvc	0, cr0, [r2], {1}
   c:	000d0c0e 	andeq	r0, sp, lr, lsl #24
  10:	00000028 	andeq	r0, r0, r8, lsr #32
  14:	00000000 	andeq	r0, r0, r0
  18:	00008044 	andeq	r8, r0, r4, asr #32
  1c:	00000180 	andeq	r0, r0, r0, lsl #3
  20:	420c0d42 	andmi	r0, ip, #4224	; 0x1080
  24:	05850684 	streq	r0, [r5, #1668]	; 0x684
  28:	038d048b 	orreq	r0, sp, #-1962934272	; 0x8b000000
  2c:	0c42028e 	sfmeq	f0, 2, [r2], {142}	; 0x8e
  30:	8e02040b 	cdphi	4, 0, cr0, cr2, cr11, {0}
  34:	180d0c0a 	stmdane	sp, {r1, r3, sl, fp}
  38:	00000b42 	andeq	r0, r0, r2, asr #22
  3c:	0000000c 	andeq	r0, r0, ip
  40:	ffffffff 			; <UNDEFINED> instruction: 0xffffffff
  44:	7c020001 	stcvc	0, cr0, [r2], {1}
  48:	000d0c0e 	andeq	r0, sp, lr, lsl #24
  4c:	0000001c 	andeq	r0, r0, ip, lsl r0
  50:	0000003c 	andeq	r0, r0, ip, lsr r0
  54:	000081d8 	ldrdeq	r8, [r0], -r8	; <UNPREDICTABLE>
  58:	0000001c 	andeq	r0, r0, ip, lsl r0
  5c:	420c0d42 	andmi	r0, ip, #4224	; 0x1080
  60:	038d048b 	orreq	r0, sp, #-1962934272	; 0x8b000000
  64:	0c42028e 	sfmeq	f0, 2, [r2], {142}	; 0x8e
  68:	0000040b 	andeq	r0, r0, fp, lsl #8
  6c:	0000001c 	andeq	r0, r0, ip, lsl r0
  70:	0000003c 	andeq	r0, r0, ip, lsr r0
  74:	00008204 	andeq	r8, r0, r4, lsl #4
  78:	0000001c 	andeq	r0, r0, ip, lsl r0
  7c:	420c0d42 	andmi	r0, ip, #4224	; 0x1080
  80:	038d048b 	orreq	r0, sp, #-1962934272	; 0x8b000000
  84:	0c42028e 	sfmeq	f0, 2, [r2], {142}	; 0x8e
  88:	0000040b 	andeq	r0, r0, fp, lsl #8
  8c:	0000001c 	andeq	r0, r0, ip, lsl r0
  90:	0000003c 	andeq	r0, r0, ip, lsr r0
  94:	00008234 	andeq	r8, r0, r4, lsr r2
  98:	00000014 	andeq	r0, r0, r4, lsl r0
  9c:	420c0d42 	andmi	r0, ip, #4224	; 0x1080
  a0:	038d048b 	orreq	r0, sp, #-1962934272	; 0x8b000000
  a4:	0c42028e 	sfmeq	f0, 2, [r2], {142}	; 0x8e
  a8:	0000040b 	andeq	r0, r0, fp, lsl #8
  ac:	00000020 	andeq	r0, r0, r0, lsr #32
  b0:	0000003c 	andeq	r0, r0, ip, lsr r0
  b4:	00008258 	andeq	r8, r0, r8, asr r2
  b8:	00000020 	andeq	r0, r0, r0, lsr #32
  bc:	420c0d42 	andmi	r0, ip, #4224	; 0x1080
  c0:	05850684 	streq	r0, [r5, #1668]	; 0x684
  c4:	038d048b 	orreq	r0, sp, #-1962934272	; 0x8b000000
  c8:	0c42028e 	sfmeq	f0, 2, [r2], {142}	; 0x8e
  cc:	0000040b 	andeq	r0, r0, fp, lsl #8
  d0:	00000024 	andeq	r0, r0, r4, lsr #32
  d4:	0000003c 	andeq	r0, r0, ip, lsr r0
  d8:	0000828c 	andeq	r8, r0, ip, lsl #5
  dc:	00000038 	andeq	r0, r0, r8, lsr r0
  e0:	420c0d42 	andmi	r0, ip, #4224	; 0x1080
  e4:	07850884 	streq	r0, [r5, r4, lsl #17]
  e8:	05870686 	streq	r0, [r7, #1670]	; 0x686
  ec:	038d048b 	orreq	r0, sp, #-1962934272	; 0x8b000000
  f0:	0c42028e 	sfmeq	f0, 2, [r2], {142}	; 0x8e
  f4:	0000040b 	andeq	r0, r0, fp, lsl #8
  f8:	0000001c 	andeq	r0, r0, ip, lsl r0
  fc:	0000003c 	andeq	r0, r0, ip, lsr r0
 100:	000082d8 	ldrdeq	r8, [r0], -r8	; <UNPREDICTABLE>
 104:	00000044 	andeq	r0, r0, r4, asr #32
 108:	420c0d42 	andmi	r0, ip, #4224	; 0x1080
 10c:	038d048b 	orreq	r0, sp, #-1962934272	; 0x8b000000
 110:	0c42028e 	sfmeq	f0, 2, [r2], {142}	; 0x8e
 114:	0000040b 	andeq	r0, r0, fp, lsl #8
 118:	0000001c 	andeq	r0, r0, ip, lsl r0
 11c:	0000003c 	andeq	r0, r0, ip, lsr r0
 120:	00008334 	andeq	r8, r0, r4, lsr r3
 124:	00000020 	andeq	r0, r0, r0, lsr #32
 128:	420c0d42 	andmi	r0, ip, #4224	; 0x1080
 12c:	038d048b 	orreq	r0, sp, #-1962934272	; 0x8b000000
 130:	0c42028e 	sfmeq	f0, 2, [r2], {142}	; 0x8e
 134:	0000040b 	andeq	r0, r0, fp, lsl #8
 138:	0000002c 	andeq	r0, r0, ip, lsr #32
 13c:	0000003c 	andeq	r0, r0, ip, lsr r0
 140:	00008360 	andeq	r8, r0, r0, ror #6
 144:	0000019c 	muleq	r0, ip, r1
 148:	420c0d42 	andmi	r0, ip, #4224	; 0x1080
 14c:	07850884 	streq	r0, [r5, r4, lsl #17]
 150:	05870686 	streq	r0, [r7, #1670]	; 0x686
 154:	038d048b 	orreq	r0, sp, #-1962934272	; 0x8b000000
 158:	0c42028e 	sfmeq	f0, 2, [r2], {142}	; 0x8e
 15c:	a202040b 	andge	r0, r2, #184549376	; 0xb000000
 160:	200d0c0a 	andcs	r0, sp, sl, lsl #24
 164:	00000b42 	andeq	r0, r0, r2, asr #22
 168:	00000028 	andeq	r0, r0, r8, lsr #32
 16c:	0000003c 	andeq	r0, r0, ip, lsr r0
 170:	00008508 	andeq	r8, r0, r8, lsl #10
 174:	000000f0 	strdeq	r0, [r0], -r0	; <UNPREDICTABLE>
 178:	420c0d42 	andmi	r0, ip, #4224	; 0x1080
 17c:	07850884 	streq	r0, [r5, r4, lsl #17]
 180:	05870686 	streq	r0, [r7, #1670]	; 0x686
 184:	038d048b 	orreq	r0, sp, #-1962934272	; 0x8b000000
 188:	0c42028e 	sfmeq	f0, 2, [r2], {142}	; 0x8e
 18c:	6a02040b 	bvs	811c0 <__bss_end__+0x75cf0>
 190:	00200d0c 	eoreq	r0, r0, ip, lsl #26
 194:	0000000c 	andeq	r0, r0, ip
 198:	ffffffff 			; <UNDEFINED> instruction: 0xffffffff
 19c:	7c020001 	stcvc	0, cr0, [r2], {1}
 1a0:	000d0c0e 	andeq	r0, sp, lr, lsl #24
 1a4:	0000001c 	andeq	r0, r0, ip, lsl r0
 1a8:	00000194 	muleq	r0, r4, r1
 1ac:	00008604 	andeq	r8, r0, r4, lsl #12
 1b0:	000000c4 	andeq	r0, r0, r4, asr #1
 1b4:	420c0d42 	andmi	r0, ip, #4224	; 0x1080
 1b8:	038d048b 	orreq	r0, sp, #-1962934272	; 0x8b000000
 1bc:	0c42028e 	sfmeq	f0, 2, [r2], {142}	; 0x8e
 1c0:	0000040b 	andeq	r0, r0, fp, lsl #8
 1c4:	00000020 	andeq	r0, r0, r0, lsr #32
 1c8:	00000194 	muleq	r0, r4, r1
 1cc:	000086d8 	ldrdeq	r8, [r0], -r8	; <UNPREDICTABLE>
 1d0:	0000005c 	andeq	r0, r0, ip, asr r0
 1d4:	420c0d42 	andmi	r0, ip, #4224	; 0x1080
 1d8:	05850684 	streq	r0, [r5, #1668]	; 0x684
 1dc:	038d048b 	orreq	r0, sp, #-1962934272	; 0x8b000000
 1e0:	0c42028e 	sfmeq	f0, 2, [r2], {142}	; 0x8e
 1e4:	0000040b 	andeq	r0, r0, fp, lsl #8
 1e8:	00000020 	andeq	r0, r0, r0, lsr #32
 1ec:	00000194 	muleq	r0, r4, r1
 1f0:	00008744 	andeq	r8, r0, r4, asr #14
 1f4:	000000b4 	strheq	r0, [r0], -r4
 1f8:	420c0d42 	andmi	r0, ip, #4224	; 0x1080
 1fc:	05850684 	streq	r0, [r5, #1668]	; 0x684
 200:	038d048b 	orreq	r0, sp, #-1962934272	; 0x8b000000
 204:	0c42028e 	sfmeq	f0, 2, [r2], {142}	; 0x8e
 208:	0000040b 	andeq	r0, r0, fp, lsl #8
 20c:	0000000c 	andeq	r0, r0, ip
 210:	ffffffff 			; <UNDEFINED> instruction: 0xffffffff
 214:	7c020001 	stcvc	0, cr0, [r2], {1}
 218:	000d0c0e 	andeq	r0, sp, lr, lsl #24
 21c:	0000001c 	andeq	r0, r0, ip, lsl r0
 220:	0000020c 	andeq	r0, r0, ip, lsl #4
 224:	00008804 	andeq	r8, r0, r4, lsl #16
 228:	00000048 	andeq	r0, r0, r8, asr #32
 22c:	420c0d42 	andmi	r0, ip, #4224	; 0x1080
 230:	038d048b 	orreq	r0, sp, #-1962934272	; 0x8b000000
 234:	0c42028e 	sfmeq	f0, 2, [r2], {142}	; 0x8e
 238:	0000040b 	andeq	r0, r0, fp, lsl #8
 23c:	0000002c 	andeq	r0, r0, ip, lsr #32
 240:	0000020c 	andeq	r0, r0, ip, lsl #4
 244:	00008858 	andeq	r8, r0, r8, asr r8
 248:	00000190 	muleq	r0, r0, r1
 24c:	420c0d42 	andmi	r0, ip, #4224	; 0x1080
 250:	08850984 	stmeq	r5, {r2, r7, r8, fp}
 254:	06870786 	streq	r0, [r7], r6, lsl #15
 258:	048b0588 	streq	r0, [fp], #1416	; 0x588
 25c:	028e038d 	addeq	r0, lr, #872415234	; 0x34000002
 260:	040b0c42 	streq	r0, [fp], #-3138	; 0xfffff3be
 264:	0d0cae02 	stceq	14, cr10, [ip, #-8]
 268:	00000024 	andeq	r0, r0, r4, lsr #32
 26c:	00000020 	andeq	r0, r0, r0, lsr #32
 270:	0000020c 	andeq	r0, r0, ip, lsl #4
 274:	000089f8 	strdeq	r8, [r0], -r8	; <UNPREDICTABLE>
 278:	000000ac 	andeq	r0, r0, ip, lsr #1
 27c:	420c0d42 	andmi	r0, ip, #4224	; 0x1080
 280:	038d048b 	orreq	r0, sp, #-1962934272	; 0x8b000000
 284:	0c42028e 	sfmeq	f0, 2, [r2], {142}	; 0x8e
 288:	4402040b 	strmi	r0, [r2], #-1035	; 0xfffffbf5
 28c:	00100d0c 	andseq	r0, r0, ip, lsl #26
 290:	00000028 	andeq	r0, r0, r8, lsr #32
 294:	0000020c 	andeq	r0, r0, ip, lsl #4
 298:	00008ab4 			; <UNDEFINED> instruction: 0x00008ab4
 29c:	000000fc 	strdeq	r0, [r0], -ip
 2a0:	420c0d42 	andmi	r0, ip, #4224	; 0x1080
 2a4:	09850a84 	stmibeq	r5, {r2, r7, r9, fp}
 2a8:	07870886 	streq	r0, [r7, r6, lsl #17]
 2ac:	05890688 	streq	r0, [r9, #1672]	; 0x688
 2b0:	038d048b 	orreq	r0, sp, #-1962934272	; 0x8b000000
 2b4:	0c42028e 	sfmeq	f0, 2, [r2], {142}	; 0x8e
 2b8:	0000040b 	andeq	r0, r0, fp, lsl #8
 2bc:	0000002c 	andeq	r0, r0, ip, lsr #32
 2c0:	0000020c 	andeq	r0, r0, ip, lsl #4
 2c4:	00008bc0 	andeq	r8, r0, r0, asr #23
 2c8:	000000e4 	andeq	r0, r0, r4, ror #1
 2cc:	420c0d42 	andmi	r0, ip, #4224	; 0x1080
 2d0:	08850984 	stmeq	r5, {r2, r7, r8, fp}
 2d4:	06870786 	streq	r0, [r7], r6, lsl #15
 2d8:	048b0588 	streq	r0, [fp], #1416	; 0x588
 2dc:	028e038d 	addeq	r0, lr, #872415234	; 0x34000002
 2e0:	040b0c42 	streq	r0, [fp], #-3138	; 0xfffff3be
 2e4:	0d0c5c02 	stceq	12, cr5, [ip, #-8]
 2e8:	00000024 	andeq	r0, r0, r4, lsr #32
 2ec:	00000028 	andeq	r0, r0, r8, lsr #32
 2f0:	0000020c 	andeq	r0, r0, ip, lsl #4
 2f4:	00008cb0 			; <UNDEFINED> instruction: 0x00008cb0
 2f8:	000000ac 	andeq	r0, r0, ip, lsr #1
 2fc:	420c0d42 	andmi	r0, ip, #4224	; 0x1080
 300:	05850684 	streq	r0, [r5, #1668]	; 0x684
 304:	038d048b 	orreq	r0, sp, #-1962934272	; 0x8b000000
 308:	0c42028e 	sfmeq	f0, 2, [r2], {142}	; 0x8e
 30c:	0a66040b 	beq	1981340 <__bss_end__+0x1975e70>
 310:	42180d0c 	andsmi	r0, r8, #12, 26	; 0x300
 314:	0000000b 	andeq	r0, r0, fp
 318:	0000001c 	andeq	r0, r0, ip, lsl r0
 31c:	0000020c 	andeq	r0, r0, ip, lsl #4
 320:	00008d70 	andeq	r8, r0, r0, ror sp
 324:	0000003c 	andeq	r0, r0, ip, lsr r0
 328:	420c0d42 	andmi	r0, ip, #4224	; 0x1080
 32c:	038d048b 	orreq	r0, sp, #-1962934272	; 0x8b000000
 330:	0c42028e 	sfmeq	f0, 2, [r2], {142}	; 0x8e
 334:	0000040b 	andeq	r0, r0, fp, lsl #8
 338:	00000024 	andeq	r0, r0, r4, lsr #32
 33c:	0000020c 	andeq	r0, r0, ip, lsl #4
 340:	00008dc0 	andeq	r8, r0, r0, asr #27
 344:	000000d4 	ldrdeq	r0, [r0], -r4
 348:	420c0d42 	andmi	r0, ip, #4224	; 0x1080
 34c:	07850884 	streq	r0, [r5, r4, lsl #17]
 350:	05870686 	streq	r0, [r7, #1670]	; 0x686
 354:	038d048b 	orreq	r0, sp, #-1962934272	; 0x8b000000
 358:	0c42028e 	sfmeq	f0, 2, [r2], {142}	; 0x8e
 35c:	0000040b 	andeq	r0, r0, fp, lsl #8
 360:	0000001c 	andeq	r0, r0, ip, lsl r0
 364:	0000020c 	andeq	r0, r0, ip, lsl #4
 368:	00008ea8 	andeq	r8, r0, r8, lsr #29
 36c:	00000014 	andeq	r0, r0, r4, lsl r0
 370:	420c0d42 	andmi	r0, ip, #4224	; 0x1080
 374:	038d048b 	orreq	r0, sp, #-1962934272	; 0x8b000000
 378:	0c42028e 	sfmeq	f0, 2, [r2], {142}	; 0x8e
 37c:	0000040b 	andeq	r0, r0, fp, lsl #8
 380:	0000001c 	andeq	r0, r0, ip, lsl r0
 384:	0000020c 	andeq	r0, r0, ip, lsl #4
 388:	00008ed0 	ldrdeq	r8, [r0], -r0
 38c:	00000050 	andeq	r0, r0, r0, asr r0
 390:	420c0d42 	andmi	r0, ip, #4224	; 0x1080
 394:	038d048b 	orreq	r0, sp, #-1962934272	; 0x8b000000
 398:	0c42028e 	sfmeq	f0, 2, [r2], {142}	; 0x8e
 39c:	0000040b 	andeq	r0, r0, fp, lsl #8
 3a0:	00000020 	andeq	r0, r0, r0, lsr #32
 3a4:	0000020c 	andeq	r0, r0, ip, lsl #4
 3a8:	00008f38 	andeq	r8, r0, r8, lsr pc
 3ac:	00000058 	andeq	r0, r0, r8, asr r0
 3b0:	420c0d42 	andmi	r0, ip, #4224	; 0x1080
 3b4:	05850684 	streq	r0, [r5, #1668]	; 0x684
 3b8:	038d048b 	orreq	r0, sp, #-1962934272	; 0x8b000000
 3bc:	0c42028e 	sfmeq	f0, 2, [r2], {142}	; 0x8e
 3c0:	0000040b 	andeq	r0, r0, fp, lsl #8
 3c4:	0000001c 	andeq	r0, r0, ip, lsl r0
 3c8:	0000020c 	andeq	r0, r0, ip, lsl #4
 3cc:	00008f9c 	muleq	r0, ip, pc	; <UNPREDICTABLE>
 3d0:	00000018 	andeq	r0, r0, r8, lsl r0
 3d4:	420c0d42 	andmi	r0, ip, #4224	; 0x1080
 3d8:	038d048b 	orreq	r0, sp, #-1962934272	; 0x8b000000
 3dc:	0c42028e 	sfmeq	f0, 2, [r2], {142}	; 0x8e
 3e0:	0000040b 	andeq	r0, r0, fp, lsl #8
 3e4:	0000001c 	andeq	r0, r0, ip, lsl r0
 3e8:	0000020c 	andeq	r0, r0, ip, lsl #4
 3ec:	00008fc8 	andeq	r8, r0, r8, asr #31
 3f0:	00000030 	andeq	r0, r0, r0, lsr r0
 3f4:	420c0d42 	andmi	r0, ip, #4224	; 0x1080
 3f8:	038d048b 	orreq	r0, sp, #-1962934272	; 0x8b000000
 3fc:	0c42028e 	sfmeq	f0, 2, [r2], {142}	; 0x8e
 400:	0000040b 	andeq	r0, r0, fp, lsl #8
 404:	0000000c 	andeq	r0, r0, ip
 408:	ffffffff 			; <UNDEFINED> instruction: 0xffffffff
 40c:	7c020001 	stcvc	0, cr0, [r2], {1}
 410:	000d0c0e 	andeq	r0, sp, lr, lsl #24
 414:	0000001c 	andeq	r0, r0, ip, lsl r0
 418:	00000404 	andeq	r0, r0, r4, lsl #8
 41c:	00009000 	andeq	r9, r0, r0
 420:	00000080 	andeq	r0, r0, r0, lsl #1
 424:	84180e42 	ldrhi	r0, [r8], #-3650	; 0xfffff1be
 428:	86058506 	strhi	r8, [r5], -r6, lsl #10
 42c:	88038704 	stmdahi	r3, {r2, r8, r9, sl, pc}
 430:	00018e02 	andeq	r8, r1, r2, lsl #28
 434:	0000000c 	andeq	r0, r0, ip
 438:	00000404 	andeq	r0, r0, r4, lsl #8
 43c:	00009080 	andeq	r9, r0, r0, lsl #1
 440:	00000020 	andeq	r0, r0, r0, lsr #32
 444:	0000000c 	andeq	r0, r0, ip
 448:	ffffffff 			; <UNDEFINED> instruction: 0xffffffff
 44c:	7c020001 	stcvc	0, cr0, [r2], {1}
 450:	000d0c0e 	andeq	r0, sp, lr, lsl #24
 454:	00000014 	andeq	r0, r0, r4, lsl r0
 458:	00000444 	andeq	r0, r0, r4, asr #8
 45c:	000090a0 	andeq	r9, r0, r0, lsr #1
 460:	00000078 	andeq	r0, r0, r8, ror r0
 464:	84080e42 	strhi	r0, [r8], #-3650	; 0xfffff1be
 468:	00018e02 	andeq	r8, r1, r2, lsl #28
 46c:	0000000c 	andeq	r0, r0, ip
 470:	ffffffff 			; <UNDEFINED> instruction: 0xffffffff
 474:	7c020001 	stcvc	0, cr0, [r2], {1}
 478:	000d0c0e 	andeq	r0, sp, lr, lsl #24
 47c:	00000034 	andeq	r0, r0, r4, lsr r0
 480:	0000046c 	andeq	r0, r0, ip, ror #8
 484:	00009118 	andeq	r9, r0, r8, lsl r1
 488:	00000058 	andeq	r0, r0, r8, asr r0
 48c:	80100e42 	andshi	r0, r0, r2, asr #28
 490:	82038104 	andhi	r8, r3, #1
 494:	42018302 	andmi	r8, r1, #134217728	; 0x8000000
 498:	07841c0e 	streq	r1, [r4, lr, lsl #24]
 49c:	058e0685 	streq	r0, [lr, #1669]	; 0x685
 4a0:	5a280e44 	bpl	a03db8 <__bss_end__+0x9f88e8>
 4a4:	ce421c0e 	cdpgt	12, 4, cr1, cr2, cr14, {0}
 4a8:	100ec4c5 	andne	ip, lr, r5, asr #9
 4ac:	c1c2c342 	bicgt	ip, r2, r2, asr #6
 4b0:	00000ec0 	andeq	r0, r0, r0, asr #29
 4b4:	0000000c 	andeq	r0, r0, ip
 4b8:	ffffffff 			; <UNDEFINED> instruction: 0xffffffff
 4bc:	7c020001 	stcvc	0, cr0, [r2], {1}
 4c0:	000d0c0e 	andeq	r0, sp, lr, lsl #24
 4c4:	00000018 	andeq	r0, r0, r8, lsl r0
 4c8:	000004b4 			; <UNDEFINED> instruction: 0x000004b4
 4cc:	00009170 	andeq	r9, r0, r0, ror r1
 4d0:	00000038 	andeq	r0, r0, r8, lsr r0
 4d4:	84100e42 	ldrhi	r0, [r0], #-3650	; 0xfffff1be
 4d8:	86038504 	strhi	r8, [r3], -r4, lsl #10
 4dc:	00018e02 	andeq	r8, r1, r2, lsl #28
 4e0:	0000000c 	andeq	r0, r0, ip
 4e4:	ffffffff 			; <UNDEFINED> instruction: 0xffffffff
 4e8:	7c020001 	stcvc	0, cr0, [r2], {1}
 4ec:	000d0c0e 	andeq	r0, sp, lr, lsl #24
 4f0:	0000000c 	andeq	r0, r0, ip
 4f4:	000004e0 	andeq	r0, r0, r0, ror #9
 4f8:	000091a8 	andeq	r9, r0, r8, lsr #3
 4fc:	00000030 	andeq	r0, r0, r0, lsr r0
 500:	0000000c 	andeq	r0, r0, ip
 504:	000004e0 	andeq	r0, r0, r0, ror #9
 508:	000091d8 	ldrdeq	r9, [r0], -r8
 50c:	00000050 	andeq	r0, r0, r0, asr r0
 510:	0000000c 	andeq	r0, r0, ip
 514:	000004e0 	andeq	r0, r0, r0, ror #9
 518:	00009228 	andeq	r9, r0, r8, lsr #4
 51c:	00000018 	andeq	r0, r0, r8, lsl r0
 520:	0000000c 	andeq	r0, r0, ip
 524:	ffffffff 			; <UNDEFINED> instruction: 0xffffffff
 528:	7c020001 	stcvc	0, cr0, [r2], {1}
 52c:	000d0c0e 	andeq	r0, sp, lr, lsl #24
 530:	0000002c 	andeq	r0, r0, ip, lsr #32
 534:	00000520 	andeq	r0, r0, r0, lsr #10
 538:	00009240 	andeq	r9, r0, r0, asr #4
 53c:	00000328 	andeq	r0, r0, r8, lsr #6
 540:	84180e42 	ldrhi	r0, [r8], #-3650	; 0xfffff1be
 544:	86058506 	strhi	r8, [r5], -r6, lsl #10
 548:	88038704 	stmdahi	r3, {r2, r8, r9, sl, pc}
 54c:	46018e02 	strmi	r8, [r1], -r2, lsl #28
 550:	c002600e 	andgt	r6, r2, lr
 554:	42180e0a 	andsmi	r0, r8, #160	; 0xa0
 558:	0a8e020b 	beq	fe380d8c <__bss_end__+0xfe3758bc>
 55c:	0b42180e 	bleq	108659c <__bss_end__+0x107b0cc>
 560:	00000014 	andeq	r0, r0, r4, lsl r0
 564:	00000520 	andeq	r0, r0, r0, lsr #10
 568:	00009568 	andeq	r9, r0, r8, ror #10
 56c:	00000060 	andeq	r0, r0, r0, rrx
 570:	8e040e52 	mcrhi	14, 0, r0, cr4, cr2, {2}
 574:	100e4401 	andne	r4, lr, r1, lsl #8
 578:	0000002c 	andeq	r0, r0, ip, lsr #32
 57c:	00000520 	andeq	r0, r0, r0, lsr #10
 580:	000095c8 	andeq	r9, r0, r8, asr #11
 584:	0000062c 	andeq	r0, r0, ip, lsr #12
 588:	84240e42 	strthi	r0, [r4], #-3650	; 0xfffff1be
 58c:	86088509 	strhi	r8, [r8], -r9, lsl #10
 590:	88068707 	stmdahi	r6, {r0, r1, r2, r8, r9, sl, pc}
 594:	8a048905 	bhi	1229b0 <__bss_end__+0x1174e0>
 598:	8e028b03 	vmlahi.f64	d8, d2, d3
 59c:	c00e5201 	andgt	r5, lr, r1, lsl #4
 5a0:	0a860202 	beq	fe180db0 <__bss_end__+0xfe1758e0>
 5a4:	0b42240e 	bleq	10895e4 <__bss_end__+0x107e114>
 5a8:	0000000c 	andeq	r0, r0, ip
 5ac:	ffffffff 			; <UNDEFINED> instruction: 0xffffffff
 5b0:	7c020001 	stcvc	0, cr0, [r2], {1}
 5b4:	000d0c0e 	andeq	r0, sp, lr, lsl #24
 5b8:	00000014 	andeq	r0, r0, r4, lsl r0
 5bc:	000005a8 	andeq	r0, r0, r8, lsr #11
 5c0:	00009bf4 	strdeq	r9, [r0], -r4
 5c4:	0000002c 	andeq	r0, r0, ip, lsr #32
 5c8:	84080e44 	strhi	r0, [r8], #-3652	; 0xfffff1bc
 5cc:	00018e02 	andeq	r8, r1, r2, lsl #28
 5d0:	0000000c 	andeq	r0, r0, ip
 5d4:	ffffffff 			; <UNDEFINED> instruction: 0xffffffff
 5d8:	7c020001 	stcvc	0, cr0, [r2], {1}
 5dc:	000d0c0e 	andeq	r0, sp, lr, lsl #24
 5e0:	00000018 	andeq	r0, r0, r8, lsl r0
 5e4:	000005d0 	ldrdeq	r0, [r0], -r0	; <UNPREDICTABLE>
 5e8:	00009c20 	andeq	r9, r0, r0, lsr #24
 5ec:	00000128 	andeq	r0, r0, r8, lsr #2
 5f0:	84100e42 	ldrhi	r0, [r0], #-3650	; 0xfffff1be
 5f4:	86038504 	strhi	r8, [r3], -r4, lsl #10
 5f8:	00018e02 	andeq	r8, r1, r2, lsl #28
 5fc:	0000000c 	andeq	r0, r0, ip
 600:	ffffffff 			; <UNDEFINED> instruction: 0xffffffff
 604:	7c020001 	stcvc	0, cr0, [r2], {1}
 608:	000d0c0e 	andeq	r0, sp, lr, lsl #24
 60c:	0000000c 	andeq	r0, r0, ip
 610:	000005fc 	strdeq	r0, [r0], -ip
 614:	00009d48 	andeq	r9, r0, r8, asr #26
 618:	00000004 	andeq	r0, r0, r4
 61c:	0000000c 	andeq	r0, r0, ip
 620:	ffffffff 			; <UNDEFINED> instruction: 0xffffffff
 624:	7c020001 	stcvc	0, cr0, [r2], {1}
 628:	000d0c0e 	andeq	r0, sp, lr, lsl #24
 62c:	0000000c 	andeq	r0, r0, ip
 630:	0000061c 	andeq	r0, r0, ip, lsl r6
 634:	00009d4c 	andeq	r9, r0, ip, asr #26
 638:	00000018 	andeq	r0, r0, r8, lsl r0
 63c:	0000000c 	andeq	r0, r0, ip
 640:	0000061c 	andeq	r0, r0, ip, lsl r6
 644:	00009d64 	andeq	r9, r0, r4, ror #26
 648:	00000014 	andeq	r0, r0, r4, lsl r0
 64c:	00000014 	andeq	r0, r0, r4, lsl r0
 650:	0000061c 	andeq	r0, r0, ip, lsl r6
 654:	00009d78 	andeq	r9, r0, r8, ror sp
 658:	00000060 	andeq	r0, r0, r0, rrx
 65c:	84080e42 	strhi	r0, [r8], #-3650	; 0xfffff1be
 660:	00018e02 	andeq	r8, r1, r2, lsl #28
 664:	0000000c 	andeq	r0, r0, ip
 668:	ffffffff 			; <UNDEFINED> instruction: 0xffffffff
 66c:	7c020001 	stcvc	0, cr0, [r2], {1}
 670:	000d0c0e 	andeq	r0, sp, lr, lsl #24
 674:	0000000c 	andeq	r0, r0, ip
 678:	00000664 	andeq	r0, r0, r4, ror #12
 67c:	00009dd8 	ldrdeq	r9, [r0], -r8
 680:	0000000c 	andeq	r0, r0, ip
 684:	00000014 	andeq	r0, r0, r4, lsl r0
 688:	00000664 	andeq	r0, r0, r4, ror #12
 68c:	00009de4 	andeq	r9, r0, r4, ror #27
 690:	00000024 	andeq	r0, r0, r4, lsr #32
 694:	84080e42 	strhi	r0, [r8], #-3650	; 0xfffff1be
 698:	00018e02 	andeq	r8, r1, r2, lsl #28
 69c:	0000001c 	andeq	r0, r0, ip, lsl r0
 6a0:	00000664 	andeq	r0, r0, r4, ror #12
 6a4:	00009e08 	andeq	r9, r0, r8, lsl #28
 6a8:	00000048 	andeq	r0, r0, r8, asr #32
 6ac:	84180e42 	ldrhi	r0, [r8], #-3650	; 0xfffff1be
 6b0:	86058506 	strhi	r8, [r5], -r6, lsl #10
 6b4:	88038704 	stmdahi	r3, {r2, r8, r9, sl, pc}
 6b8:	00018e02 	andeq	r8, r1, r2, lsl #28
 6bc:	0000001c 	andeq	r0, r0, ip, lsl r0
 6c0:	00000664 	andeq	r0, r0, r4, ror #12
 6c4:	00009e50 	andeq	r9, r0, r0, asr lr
 6c8:	00000050 	andeq	r0, r0, r0, asr r0
 6cc:	84180e42 	ldrhi	r0, [r8], #-3650	; 0xfffff1be
 6d0:	86058506 	strhi	r8, [r5], -r6, lsl #10
 6d4:	88038704 	stmdahi	r3, {r2, r8, r9, sl, pc}
 6d8:	00018e02 	andeq	r8, r1, r2, lsl #28
 6dc:	0000001c 	andeq	r0, r0, ip, lsl r0
 6e0:	00000664 	andeq	r0, r0, r4, ror #12
 6e4:	00009ea0 	andeq	r9, r0, r0, lsr #29
 6e8:	00000054 	andeq	r0, r0, r4, asr r0
 6ec:	84180e42 	ldrhi	r0, [r8], #-3650	; 0xfffff1be
 6f0:	86058506 	strhi	r8, [r5], -r6, lsl #10
 6f4:	88038704 	stmdahi	r3, {r2, r8, r9, sl, pc}
 6f8:	00018e02 	andeq	r8, r1, r2, lsl #28
 6fc:	0000000c 	andeq	r0, r0, ip
 700:	ffffffff 			; <UNDEFINED> instruction: 0xffffffff
 704:	7c020001 	stcvc	0, cr0, [r2], {1}
 708:	000d0c0e 	andeq	r0, sp, lr, lsl #24
 70c:	00000018 	andeq	r0, r0, r8, lsl r0
 710:	000006fc 	strdeq	r0, [r0], -ip
 714:	00009ef4 	strdeq	r9, [r0], -r4
 718:	00000020 	andeq	r0, r0, r0, lsr #32
 71c:	84100e42 	ldrhi	r0, [r0], #-3650	; 0xfffff1be
 720:	86038504 	strhi	r8, [r3], -r4, lsl #10
 724:	00018e02 	andeq	r8, r1, r2, lsl #28
 728:	00000018 	andeq	r0, r0, r8, lsl r0
 72c:	000006fc 	strdeq	r0, [r0], -ip
 730:	00009f14 	andeq	r9, r0, r4, lsl pc
 734:	00000020 	andeq	r0, r0, r0, lsr #32
 738:	84100e42 	ldrhi	r0, [r0], #-3650	; 0xfffff1be
 73c:	86038504 	strhi	r8, [r3], -r4, lsl #10
 740:	00018e02 	andeq	r8, r1, r2, lsl #28
 744:	00000014 	andeq	r0, r0, r4, lsl r0
 748:	000006fc 	strdeq	r0, [r0], -ip
 74c:	00009f34 	andeq	r9, r0, r4, lsr pc
 750:	000000b0 	strheq	r0, [r0], -r0	; <UNPREDICTABLE>
 754:	84080e42 	strhi	r0, [r8], #-3650	; 0xfffff1be
 758:	00018e02 	andeq	r8, r1, r2, lsl #28
 75c:	00000014 	andeq	r0, r0, r4, lsl r0
 760:	000006fc 	strdeq	r0, [r0], -ip
 764:	00009fe4 	andeq	r9, r0, r4, ror #31
 768:	00000018 	andeq	r0, r0, r8, lsl r0
 76c:	84080e42 	strhi	r0, [r8], #-3650	; 0xfffff1be
 770:	00018e02 	andeq	r8, r1, r2, lsl #28
 774:	00000014 	andeq	r0, r0, r4, lsl r0
 778:	000006fc 	strdeq	r0, [r0], -ip
 77c:	00009ffc 	strdeq	r9, [r0], -ip
 780:	00000020 	andeq	r0, r0, r0, lsr #32
 784:	84080e42 	strhi	r0, [r8], #-3650	; 0xfffff1be
 788:	00018e02 	andeq	r8, r1, r2, lsl #28
 78c:	00000014 	andeq	r0, r0, r4, lsl r0
 790:	000006fc 	strdeq	r0, [r0], -ip
 794:	0000a01c 	andeq	sl, r0, ip, lsl r0
 798:	00000030 	andeq	r0, r0, r0, lsr r0
 79c:	84080e42 	strhi	r0, [r8], #-3650	; 0xfffff1be
 7a0:	00018e02 	andeq	r8, r1, r2, lsl #28
 7a4:	00000014 	andeq	r0, r0, r4, lsl r0
 7a8:	000006fc 	strdeq	r0, [r0], -ip
 7ac:	0000a04c 	andeq	sl, r0, ip, asr #32
 7b0:	00000030 	andeq	r0, r0, r0, lsr r0
 7b4:	84080e42 	strhi	r0, [r8], #-3650	; 0xfffff1be
 7b8:	00018e02 	andeq	r8, r1, r2, lsl #28
 7bc:	00000014 	andeq	r0, r0, r4, lsl r0
 7c0:	000006fc 	strdeq	r0, [r0], -ip
 7c4:	0000a07c 	andeq	sl, r0, ip, ror r0
 7c8:	00000010 	andeq	r0, r0, r0, lsl r0
 7cc:	84080e42 	strhi	r0, [r8], #-3650	; 0xfffff1be
 7d0:	00018e02 	andeq	r8, r1, r2, lsl #28
 7d4:	00000014 	andeq	r0, r0, r4, lsl r0
 7d8:	000006fc 	strdeq	r0, [r0], -ip
 7dc:	0000a08c 	andeq	sl, r0, ip, lsl #1
 7e0:	00000020 	andeq	r0, r0, r0, lsr #32
 7e4:	84080e42 	strhi	r0, [r8], #-3650	; 0xfffff1be
 7e8:	00018e02 	andeq	r8, r1, r2, lsl #28
 7ec:	00000014 	andeq	r0, r0, r4, lsl r0
 7f0:	000006fc 	strdeq	r0, [r0], -ip
 7f4:	0000a0ac 	andeq	sl, r0, ip, lsr #1
 7f8:	00000014 	andeq	r0, r0, r4, lsl r0
 7fc:	84080e42 	strhi	r0, [r8], #-3650	; 0xfffff1be
 800:	00018e02 	andeq	r8, r1, r2, lsl #28
 804:	00000014 	andeq	r0, r0, r4, lsl r0
 808:	000006fc 	strdeq	r0, [r0], -ip
 80c:	0000a0c0 	andeq	sl, r0, r0, asr #1
 810:	00000024 	andeq	r0, r0, r4, lsr #32
 814:	84080e42 	strhi	r0, [r8], #-3650	; 0xfffff1be
 818:	00018e02 	andeq	r8, r1, r2, lsl #28
 81c:	0000000c 	andeq	r0, r0, ip
 820:	ffffffff 			; <UNDEFINED> instruction: 0xffffffff
 824:	7c020001 	stcvc	0, cr0, [r2], {1}
 828:	000d0c0e 	andeq	r0, sp, lr, lsl #24
 82c:	0000000c 	andeq	r0, r0, ip
 830:	0000081c 	andeq	r0, r0, ip, lsl r8
 834:	0000a0e4 	andeq	sl, r0, r4, ror #1
 838:	00000010 	andeq	r0, r0, r0, lsl r0
 83c:	0000000c 	andeq	r0, r0, ip
 840:	0000081c 	andeq	r0, r0, ip, lsl r8
 844:	0000a0f4 	strdeq	sl, [r0], -r4
 848:	00000010 	andeq	r0, r0, r0, lsl r0
 84c:	0000000c 	andeq	r0, r0, ip
 850:	0000081c 	andeq	r0, r0, ip, lsl r8
 854:	0000a104 	andeq	sl, r0, r4, lsl #2
 858:	00000010 	andeq	r0, r0, r0, lsl r0
 85c:	0000001c 	andeq	r0, r0, ip, lsl r0
 860:	0000081c 	andeq	r0, r0, ip, lsl r8
 864:	0000a114 	andeq	sl, r0, r4, lsl r1
 868:	0000009c 	muleq	r0, ip, r0
 86c:	8e040e42 	cdphi	14, 0, cr0, cr4, cr2, {2}
 870:	100e4201 	andne	r4, lr, r1, lsl #4
 874:	040e0a58 	streq	r0, [lr], #-2648	; 0xfffff5a8
 878:	00000b42 	andeq	r0, r0, r2, asr #22
 87c:	00000014 	andeq	r0, r0, r4, lsl r0
 880:	0000081c 	andeq	r0, r0, ip, lsl r8
 884:	0000a1b0 			; <UNDEFINED> instruction: 0x0000a1b0
 888:	00000058 	andeq	r0, r0, r8, asr r0
 88c:	84080e42 	strhi	r0, [r8], #-3650	; 0xfffff1be
 890:	00018e02 	andeq	r8, r1, r2, lsl #28
 894:	0000001c 	andeq	r0, r0, ip, lsl r0
 898:	0000081c 	andeq	r0, r0, ip, lsl r8
 89c:	0000a208 	andeq	sl, r0, r8, lsl #4
 8a0:	00000098 	muleq	r0, r8, r0
 8a4:	8e040e42 	cdphi	14, 0, cr0, cr4, cr2, {2}
 8a8:	100e4201 	andne	r4, lr, r1, lsl #4
 8ac:	040e0a58 	streq	r0, [lr], #-2648	; 0xfffff5a8
 8b0:	00000b42 	andeq	r0, r0, r2, asr #22
 8b4:	00000020 	andeq	r0, r0, r0, lsr #32
 8b8:	0000081c 	andeq	r0, r0, ip, lsl r8
 8bc:	0000a2a0 	andeq	sl, r0, r0, lsr #5
 8c0:	00000064 	andeq	r0, r0, r4, rrx
 8c4:	840c0e42 	strhi	r0, [ip], #-3650	; 0xfffff1be
 8c8:	8e028503 	cfsh32hi	mvfx8, mvfx2, #3
 8cc:	180e4201 	stmdane	lr, {r0, r9, lr}
 8d0:	0c0e0a54 			; <UNDEFINED> instruction: 0x0c0e0a54
 8d4:	00000b42 	andeq	r0, r0, r2, asr #22
 8d8:	0000001c 	andeq	r0, r0, ip, lsl r0
 8dc:	0000081c 	andeq	r0, r0, ip, lsl r8
 8e0:	0000a304 	andeq	sl, r0, r4, lsl #6
 8e4:	00000118 	andeq	r0, r0, r8, lsl r1
 8e8:	8e040e42 	cdphi	14, 0, cr0, cr4, cr2, {2}
 8ec:	100e4201 	andne	r4, lr, r1, lsl #4
 8f0:	040e0a6c 	streq	r0, [lr], #-2668	; 0xfffff594
 8f4:	00000b42 	andeq	r0, r0, r2, asr #22
 8f8:	0000000c 	andeq	r0, r0, ip
 8fc:	0000081c 	andeq	r0, r0, ip, lsl r8
 900:	0000a41c 	andeq	sl, r0, ip, lsl r4
 904:	00000004 	andeq	r0, r0, r4
 908:	0000000c 	andeq	r0, r0, ip
 90c:	0000081c 	andeq	r0, r0, ip, lsl r8
 910:	0000a420 	andeq	sl, r0, r0, lsr #8
 914:	00000014 	andeq	r0, r0, r4, lsl r0
 918:	00000014 	andeq	r0, r0, r4, lsl r0
 91c:	0000081c 	andeq	r0, r0, ip, lsl r8
 920:	0000a434 	andeq	sl, r0, r4, lsr r4
 924:	00000060 	andeq	r0, r0, r0, rrx
 928:	8e040e58 	mcrhi	14, 0, r0, cr4, cr8, {2}
 92c:	100e4201 	andne	r4, lr, r1, lsl #4
 930:	0000000c 	andeq	r0, r0, ip
 934:	ffffffff 			; <UNDEFINED> instruction: 0xffffffff
 938:	7c020001 	stcvc	0, cr0, [r2], {1}
 93c:	000d0c0e 	andeq	r0, sp, lr, lsl #24
 940:	00000020 	andeq	r0, r0, r0, lsr #32
 944:	00000930 	andeq	r0, r0, r0, lsr r9
 948:	0000a494 	muleq	r0, r4, r4
 94c:	00000060 	andeq	r0, r0, r0, rrx
 950:	84100e48 	ldrhi	r0, [r0], #-3656	; 0xfffff1b8
 954:	86038504 	strhi	r8, [r3], -r4, lsl #10
 958:	64018e02 	strvs	r8, [r1], #-3586	; 0xfffff1fe
 95c:	c4c5c6ce 	strbgt	ip, [r5], #1742	; 0x6ce
 960:	0000000e 	andeq	r0, r0, lr
 964:	00000020 	andeq	r0, r0, r0, lsr #32
 968:	00000930 	andeq	r0, r0, r0, lsr r9
 96c:	0000a4f4 	strdeq	sl, [r0], -r4
 970:	00000058 	andeq	r0, r0, r8, asr r0
 974:	84100e46 	ldrhi	r0, [r0], #-3654	; 0xfffff1ba
 978:	86038504 	strhi	r8, [r3], -r4, lsl #10
 97c:	62018e02 	andvs	r8, r1, #2, 28
 980:	c4c5c6ce 	strbgt	ip, [r5], #1742	; 0x6ce
 984:	0000000e 	andeq	r0, r0, lr
 988:	0000000c 	andeq	r0, r0, ip
 98c:	00000930 	andeq	r0, r0, r0, lsr r9
 990:	0000a54c 	andeq	sl, r0, ip, asr #10
 994:	00000018 	andeq	r0, r0, r8, lsl r0
 998:	0000000c 	andeq	r0, r0, ip
 99c:	00000930 	andeq	r0, r0, r0, lsr r9
 9a0:	0000a564 	andeq	sl, r0, r4, ror #10
 9a4:	00000018 	andeq	r0, r0, r8, lsl r0
 9a8:	00000020 	andeq	r0, r0, r0, lsr #32
 9ac:	00000930 	andeq	r0, r0, r0, lsr r9
 9b0:	0000a57c 	andeq	sl, r0, ip, ror r5
 9b4:	00000058 	andeq	r0, r0, r8, asr r0
 9b8:	84100e46 	ldrhi	r0, [r0], #-3654	; 0xfffff1ba
 9bc:	86038504 	strhi	r8, [r3], -r4, lsl #10
 9c0:	62018e02 	andvs	r8, r1, #2, 28
 9c4:	c4c5c6ce 	strbgt	ip, [r5], #1742	; 0x6ce
 9c8:	0000000e 	andeq	r0, r0, lr
 9cc:	0000000c 	andeq	r0, r0, ip
 9d0:	00000930 	andeq	r0, r0, r0, lsr r9
 9d4:	0000a5d4 	ldrdeq	sl, [r0], -r4
 9d8:	00000030 	andeq	r0, r0, r0, lsr r0
 9dc:	00000014 	andeq	r0, r0, r4, lsl r0
 9e0:	00000930 	andeq	r0, r0, r0, lsr r9
 9e4:	0000a604 	andeq	sl, r0, r4, lsl #12
 9e8:	00000028 	andeq	r0, r0, r8, lsr #32
 9ec:	84080e42 	strhi	r0, [r8], #-3650	; 0xfffff1be
 9f0:	00018e02 	andeq	r8, r1, r2, lsl #28
 9f4:	0000000c 	andeq	r0, r0, ip
 9f8:	ffffffff 			; <UNDEFINED> instruction: 0xffffffff
 9fc:	7c020001 	stcvc	0, cr0, [r2], {1}
 a00:	000d0c0e 	andeq	r0, sp, lr, lsl #24
 a04:	00000014 	andeq	r0, r0, r4, lsl r0
 a08:	000009f4 	strdeq	r0, [r0], -r4
 a0c:	0000a62c 	andeq	sl, r0, ip, lsr #12
 a10:	00000014 	andeq	r0, r0, r4, lsl r0
 a14:	84080e42 	strhi	r0, [r8], #-3650	; 0xfffff1be
 a18:	00018e02 	andeq	r8, r1, r2, lsl #28
 a1c:	0000000c 	andeq	r0, r0, ip
 a20:	000009f4 	strdeq	r0, [r0], -r4
 a24:	0000a640 	andeq	sl, r0, r0, asr #12
 a28:	00000018 	andeq	r0, r0, r8, lsl r0
 a2c:	0000000c 	andeq	r0, r0, ip
 a30:	000009f4 	strdeq	r0, [r0], -r4
 a34:	0000a658 	andeq	sl, r0, r8, asr r6
 a38:	00000010 	andeq	r0, r0, r0, lsl r0
 a3c:	0000000c 	andeq	r0, r0, ip
 a40:	ffffffff 			; <UNDEFINED> instruction: 0xffffffff
 a44:	7c020001 	stcvc	0, cr0, [r2], {1}
 a48:	000d0c0e 	andeq	r0, sp, lr, lsl #24
 a4c:	0000000c 	andeq	r0, r0, ip
 a50:	00000a3c 	andeq	r0, r0, ip, lsr sl
 a54:	0000a668 	andeq	sl, r0, r8, ror #12
 a58:	0000002c 	andeq	r0, r0, ip, lsr #32
 a5c:	0000000c 	andeq	r0, r0, ip
 a60:	ffffffff 			; <UNDEFINED> instruction: 0xffffffff
 a64:	7c020001 	stcvc	0, cr0, [r2], {1}
 a68:	000d0c0e 	andeq	r0, sp, lr, lsl #24
 a6c:	0000000c 	andeq	r0, r0, ip
 a70:	00000a5c 	andeq	r0, r0, ip, asr sl
 a74:	0000a694 	muleq	r0, r4, r6
 a78:	00000044 	andeq	r0, r0, r4, asr #32
 a7c:	0000000c 	andeq	r0, r0, ip
 a80:	ffffffff 			; <UNDEFINED> instruction: 0xffffffff
 a84:	7c020001 	stcvc	0, cr0, [r2], {1}
 a88:	000d0c0e 	andeq	r0, sp, lr, lsl #24
 a8c:	0000000c 	andeq	r0, r0, ip
 a90:	00000a7c 	andeq	r0, r0, ip, ror sl
 a94:	0000a6d8 	ldrdeq	sl, [r0], -r8
 a98:	00000018 	andeq	r0, r0, r8, lsl r0
 a9c:	0000000c 	andeq	r0, r0, ip
 aa0:	ffffffff 			; <UNDEFINED> instruction: 0xffffffff
 aa4:	7c020001 	stcvc	0, cr0, [r2], {1}
 aa8:	000d0c0e 	andeq	r0, sp, lr, lsl #24
 aac:	0000000c 	andeq	r0, r0, ip
 ab0:	00000a9c 	muleq	r0, ip, sl
 ab4:	0000a6f0 	strdeq	sl, [r0], -r0
 ab8:	00000030 	andeq	r0, r0, r0, lsr r0
 abc:	0000000c 	andeq	r0, r0, ip
 ac0:	ffffffff 			; <UNDEFINED> instruction: 0xffffffff
 ac4:	7c020001 	stcvc	0, cr0, [r2], {1}
 ac8:	000d0c0e 	andeq	r0, sp, lr, lsl #24
 acc:	0000000c 	andeq	r0, r0, ip
 ad0:	00000abc 			; <UNDEFINED> instruction: 0x00000abc
 ad4:	0000a720 	andeq	sl, r0, r0, lsr #14
 ad8:	00000004 	andeq	r0, r0, r4

Disassembly of section .debug_ranges:

00000000 <.debug_ranges>:
   0:	000001fc 	strdeq	r0, [r0], -ip
   4:	00000234 	andeq	r0, r0, r4, lsr r2
   8:	0000025c 	andeq	r0, r0, ip, asr r2
   c:	000002a4 	andeq	r0, r0, r4, lsr #5
	...
  18:	000000f0 	strdeq	r0, [r0], -r0	; <UNPREDICTABLE>
  1c:	00000114 	andeq	r0, r0, r4, lsl r1
  20:	00000120 	andeq	r0, r0, r0, lsr #2
  24:	000001c4 	andeq	r0, r0, r4, asr #3
	...
  30:	000000f0 	strdeq	r0, [r0], -r0	; <UNPREDICTABLE>
  34:	000000f8 	strdeq	r0, [r0], -r8
  38:	00000124 	andeq	r0, r0, r4, lsr #2
  3c:	00000140 	andeq	r0, r0, r0, asr #2
	...
  48:	000000f8 	strdeq	r0, [r0], -r8
  4c:	00000114 	andeq	r0, r0, r4, lsl r1
  50:	00000148 	andeq	r0, r0, r8, asr #2
  54:	000001c4 	andeq	r0, r0, r4, asr #3
	...
  60:	000002e0 	andeq	r0, r0, r0, ror #5
  64:	000002e8 	andeq	r0, r0, r8, ror #5
  68:	000002f4 	strdeq	r0, [r0], -r4
  6c:	00000350 	andeq	r0, r0, r0, asr r3
	...
  78:	000003ec 	andeq	r0, r0, ip, ror #7
  7c:	000003f4 	strdeq	r0, [r0], -r4
  80:	00000400 	andeq	r0, r0, r0, lsl #8
  84:	00000470 	andeq	r0, r0, r0, ror r4
	...
  90:	00000588 	andeq	r0, r0, r8, lsl #11
  94:	0000058c 	andeq	r0, r0, ip, lsl #11
  98:	00000590 	muleq	r0, r0, r5
  9c:	000005b4 			; <UNDEFINED> instruction: 0x000005b4
	...
  a8:	000005d4 	ldrdeq	r0, [r0], -r4
  ac:	000005dc 	ldrdeq	r0, [r0], -ip
  b0:	000005e0 	andeq	r0, r0, r0, ror #11
  b4:	00000688 	andeq	r0, r0, r8, lsl #13
	...
  c0:	000005e4 	andeq	r0, r0, r4, ror #11
  c4:	00000604 	andeq	r0, r0, r4, lsl #12
  c8:	00000618 	andeq	r0, r0, r8, lsl r6
  cc:	00000688 	andeq	r0, r0, r8, lsl #13
	...
  d8:	000005e4 	andeq	r0, r0, r4, ror #11
  dc:	00000600 	andeq	r0, r0, r0, lsl #12
  e0:	0000066c 	andeq	r0, r0, ip, ror #12
  e4:	00000688 	andeq	r0, r0, r8, lsl #13
	...
  f0:	00000014 	andeq	r0, r0, r4, lsl r0
  f4:	00000020 	andeq	r0, r0, r0, lsr #32
  f8:	0000002c 	andeq	r0, r0, ip, lsr #32
  fc:	00000058 	andeq	r0, r0, r8, asr r0
 100:	00000058 	andeq	r0, r0, r8, asr r0
 104:	00000064 	andeq	r0, r0, r4, rrx
	...
 110:	00000014 	andeq	r0, r0, r4, lsl r0
 114:	00000018 	andeq	r0, r0, r8, lsl r0
 118:	0000002c 	andeq	r0, r0, ip, lsr #32
 11c:	0000002c 	andeq	r0, r0, ip, lsr #32
 120:	00000034 	andeq	r0, r0, r4, lsr r0
 124:	00000038 	andeq	r0, r0, r8, lsr r0
 128:	0000003c 	andeq	r0, r0, ip, lsr r0
 12c:	00000050 	andeq	r0, r0, r0, asr r0
	...
 138:	0000002c 	andeq	r0, r0, ip, lsr #32
 13c:	0000002c 	andeq	r0, r0, ip, lsr #32
 140:	00000038 	andeq	r0, r0, r8, lsr r0
 144:	00000038 	andeq	r0, r0, r8, lsr r0
 148:	00000044 	andeq	r0, r0, r4, asr #32
 14c:	0000004c 	andeq	r0, r0, ip, asr #32
	...
 158:	000000a4 	andeq	r0, r0, r4, lsr #1
 15c:	00000148 	andeq	r0, r0, r8, asr #2
 160:	00000158 	andeq	r0, r0, r8, asr r1
 164:	0000015c 	andeq	r0, r0, ip, asr r1
 168:	00000274 	andeq	r0, r0, r4, ror r2
 16c:	00000278 	andeq	r0, r0, r8, ror r2
 170:	0000027c 	andeq	r0, r0, ip, ror r2
 174:	00000280 	andeq	r0, r0, r0, lsl #5
 178:	00000288 	andeq	r0, r0, r8, lsl #5
 17c:	0000029c 	muleq	r0, ip, r2
 180:	000002c0 	andeq	r0, r0, r0, asr #5
 184:	000002cc 	andeq	r0, r0, ip, asr #5
 188:	000002f0 	strdeq	r0, [r0], -r0	; <UNPREDICTABLE>
 18c:	000002f0 	strdeq	r0, [r0], -r0	; <UNPREDICTABLE>
 190:	000002f4 	strdeq	r0, [r0], -r4
 194:	000002f8 	strdeq	r0, [r0], -r8
	...
 1a0:	00000148 	andeq	r0, r0, r8, asr #2
 1a4:	00000158 	andeq	r0, r0, r8, asr r1
 1a8:	0000015c 	andeq	r0, r0, ip, asr r1
 1ac:	0000018c 	andeq	r0, r0, ip, lsl #3
 1b0:	0000029c 	muleq	r0, ip, r2
 1b4:	000002ac 	andeq	r0, r0, ip, lsr #5
	...
 1c0:	000003c8 	andeq	r0, r0, r8, asr #7
 1c4:	000003d0 	ldrdeq	r0, [r0], -r0	; <UNPREDICTABLE>
 1c8:	00000404 	andeq	r0, r0, r4, lsl #8
 1cc:	000004ac 	andeq	r0, r0, ip, lsr #9
 1d0:	000004c0 	andeq	r0, r0, r0, asr #9
 1d4:	00000920 	andeq	r0, r0, r0, lsr #18
 1d8:	00000928 	andeq	r0, r0, r8, lsr #18
 1dc:	000009b4 			; <UNDEFINED> instruction: 0x000009b4
	...
 1e8:	000003c8 	andeq	r0, r0, r8, asr #7
 1ec:	000003d0 	ldrdeq	r0, [r0], -r0	; <UNPREDICTABLE>
 1f0:	00000504 	andeq	r0, r0, r4, lsl #10
 1f4:	000005d0 	ldrdeq	r0, [r0], -r0	; <UNPREDICTABLE>
 1f8:	00000800 	andeq	r0, r0, r0, lsl #16
 1fc:	00000888 	andeq	r0, r0, r8, lsl #17
 200:	00000930 	andeq	r0, r0, r0, lsr r9
 204:	000009b4 			; <UNDEFINED> instruction: 0x000009b4
	...
 210:	00000404 	andeq	r0, r0, r4, lsl #8
 214:	00000408 	andeq	r0, r0, r8, lsl #8
 218:	00000414 	andeq	r0, r0, r4, lsl r4
 21c:	00000414 	andeq	r0, r0, r4, lsl r4
 220:	00000428 	andeq	r0, r0, r8, lsr #8
 224:	0000042c 	andeq	r0, r0, ip, lsr #8
	...
 230:	000005fc 	strdeq	r0, [r0], -ip
 234:	00000700 	andeq	r0, r0, r0, lsl #14
 238:	000007ec 	andeq	r0, r0, ip, ror #15
 23c:	000007f4 	strdeq	r0, [r0], -r4
 240:	00000888 	andeq	r0, r0, r8, lsl #17
 244:	00000894 	muleq	r0, r4, r8
 248:	000008a8 	andeq	r0, r0, r8, lsr #17
 24c:	000008bc 			; <UNDEFINED> instruction: 0x000008bc
 250:	00000910 	andeq	r0, r0, r0, lsl r9
 254:	00000920 	andeq	r0, r0, r0, lsr #18
	...
 260:	00000600 	andeq	r0, r0, r0, lsl #12
 264:	00000604 	andeq	r0, r0, r4, lsl #12
 268:	00000608 	andeq	r0, r0, r8, lsl #12
 26c:	000006b4 			; <UNDEFINED> instruction: 0x000006b4
 270:	000006cc 	andeq	r0, r0, ip, asr #13
 274:	000006d0 	ldrdeq	r0, [r0], -r0	; <UNPREDICTABLE>
 278:	000008a8 	andeq	r0, r0, r8, lsr #17
 27c:	000008b8 			; <UNDEFINED> instruction: 0x000008b8
 280:	00000910 	andeq	r0, r0, r0, lsl r9
 284:	00000920 	andeq	r0, r0, r0, lsr #18
	...
 290:	000006b4 			; <UNDEFINED> instruction: 0x000006b4
 294:	000006cc 	andeq	r0, r0, ip, asr #13
 298:	000006d0 	ldrdeq	r0, [r0], -r0	; <UNPREDICTABLE>
 29c:	00000700 	andeq	r0, r0, r0, lsl #14
 2a0:	000007ec 	andeq	r0, r0, ip, ror #15
 2a4:	000007f4 	strdeq	r0, [r0], -r4
 2a8:	00000888 	andeq	r0, r0, r8, lsl #17
 2ac:	00000894 	muleq	r0, r4, r8
 2b0:	000008b8 			; <UNDEFINED> instruction: 0x000008b8
 2b4:	000008bc 			; <UNDEFINED> instruction: 0x000008bc
	...
 2c0:	00000700 	andeq	r0, r0, r0, lsl #14
 2c4:	00000708 	andeq	r0, r0, r8, lsl #14
 2c8:	0000070c 	andeq	r0, r0, ip, lsl #14
 2cc:	000007ec 	andeq	r0, r0, ip, ror #15
 2d0:	00000894 	muleq	r0, r4, r8
 2d4:	000008a8 	andeq	r0, r0, r8, lsr #17
	...
 2e0:	00000728 	andeq	r0, r0, r8, lsr #14
 2e4:	000007a4 	andeq	r0, r0, r4, lsr #15
 2e8:	000007ac 	andeq	r0, r0, ip, lsr #15
 2ec:	000007b0 			; <UNDEFINED> instruction: 0x000007b0
 2f0:	00000894 	muleq	r0, r4, r8
 2f4:	00000898 	muleq	r0, r8, r8
 2f8:	0000089c 	muleq	r0, ip, r8
 2fc:	000008a0 	andeq	r0, r0, r0, lsr #17
	...
 308:	000007a4 	andeq	r0, r0, r4, lsr #15
 30c:	000007ac 	andeq	r0, r0, ip, lsr #15
 310:	000007b0 			; <UNDEFINED> instruction: 0x000007b0
 314:	000007ec 	andeq	r0, r0, ip, ror #15
 318:	00000898 	muleq	r0, r8, r8
 31c:	0000089c 	muleq	r0, ip, r8
 320:	000008a0 	andeq	r0, r0, r0, lsr #17
 324:	000008a8 	andeq	r0, r0, r8, lsr #17
	...
 330:	000000f0 	strdeq	r0, [r0], -r0	; <UNPREDICTABLE>
 334:	000000f8 	strdeq	r0, [r0], -r8
 338:	000000fc 	strdeq	r0, [r0], -ip
 33c:	00000108 	andeq	r0, r0, r8, lsl #2
	...
 348:	00009d78 	andeq	r9, r0, r8, ror sp
 34c:	00009d78 	andeq	r9, r0, r8, ror sp
 350:	00009d7c 	andeq	r9, r0, ip, ror sp
 354:	00009d84 	andeq	r9, r0, r4, lsl #27
	...
 360:	00009d4c 	andeq	r9, r0, ip, asr #26
 364:	00009dd8 	ldrdeq	r9, [r0], -r8
	...
 370:	00000030 	andeq	r0, r0, r0, lsr r0
 374:	00000030 	andeq	r0, r0, r0, lsr r0
 378:	00000038 	andeq	r0, r0, r8, lsr r0
 37c:	0000004c 	andeq	r0, r0, ip, asr #32
	...
 388:	0000004c 	andeq	r0, r0, ip, asr #32
 38c:	00000050 	andeq	r0, r0, r0, asr r0
 390:	00000050 	andeq	r0, r0, r0, asr r0
 394:	00000078 	andeq	r0, r0, r8, ror r0
	...
 3a0:	0000004c 	andeq	r0, r0, ip, asr #32
 3a4:	00000050 	andeq	r0, r0, r0, asr r0
 3a8:	00000050 	andeq	r0, r0, r0, asr r0
 3ac:	00000060 	andeq	r0, r0, r0, rrx
 3b0:	00000064 	andeq	r0, r0, r4, rrx
 3b4:	00000068 	andeq	r0, r0, r8, rrx
	...
 3c0:	0000004c 	andeq	r0, r0, ip, asr #32
 3c4:	00000050 	andeq	r0, r0, r0, asr r0
 3c8:	00000054 	andeq	r0, r0, r4, asr r0
 3cc:	00000060 	andeq	r0, r0, r0, rrx
	...
 3d8:	0000009c 	muleq	r0, ip, r0
 3dc:	000000a0 	andeq	r0, r0, r0, lsr #1
 3e0:	000000a0 	andeq	r0, r0, r0, lsr #1
 3e4:	000000c8 	andeq	r0, r0, r8, asr #1
	...
 3f0:	0000009c 	muleq	r0, ip, r0
 3f4:	000000a0 	andeq	r0, r0, r0, lsr #1
 3f8:	000000a0 	andeq	r0, r0, r0, lsr #1
 3fc:	000000b0 	strheq	r0, [r0], -r0	; <UNPREDICTABLE>
 400:	000000b4 	strheq	r0, [r0], -r4
 404:	000000b8 	strheq	r0, [r0], -r8
	...
 410:	0000009c 	muleq	r0, ip, r0
 414:	000000a0 	andeq	r0, r0, r0, lsr #1
 418:	000000a4 	andeq	r0, r0, r4, lsr #1
 41c:	000000b0 	strheq	r0, [r0], -r0	; <UNPREDICTABLE>
	...
 428:	000000c8 	andeq	r0, r0, r8, asr #1
 42c:	000000c8 	andeq	r0, r0, r8, asr #1
 430:	000000cc 	andeq	r0, r0, ip, asr #1
 434:	0000011c 	andeq	r0, r0, ip, lsl r1
	...
 440:	000000f0 	strdeq	r0, [r0], -r0	; <UNPREDICTABLE>
 444:	000000f4 	strdeq	r0, [r0], -r4
 448:	000000f4 	strdeq	r0, [r0], -r4
 44c:	0000011c 	andeq	r0, r0, ip, lsl r1
	...
 458:	000000f0 	strdeq	r0, [r0], -r0	; <UNPREDICTABLE>
 45c:	000000f4 	strdeq	r0, [r0], -r4
 460:	000000f4 	strdeq	r0, [r0], -r4
 464:	00000104 	andeq	r0, r0, r4, lsl #2
 468:	00000108 	andeq	r0, r0, r8, lsl #2
 46c:	0000010c 	andeq	r0, r0, ip, lsl #2
	...
 478:	000000f0 	strdeq	r0, [r0], -r0	; <UNPREDICTABLE>
 47c:	000000f4 	strdeq	r0, [r0], -r4
 480:	000000f8 	strdeq	r0, [r0], -r8
 484:	00000104 	andeq	r0, r0, r4, lsl #2
	...
 490:	00000134 	andeq	r0, r0, r4, lsr r1
 494:	00000134 	andeq	r0, r0, r4, lsr r1
 498:	00000134 	andeq	r0, r0, r4, lsr r1
 49c:	0000013c 	andeq	r0, r0, ip, lsr r1
	...
 4a8:	0000024c 	andeq	r0, r0, ip, asr #4
 4ac:	00000264 	andeq	r0, r0, r4, ror #4
 4b0:	000002c8 	andeq	r0, r0, r8, asr #5
 4b4:	000002e8 	andeq	r0, r0, r8, ror #5
	...
 4c0:	00000008 	andeq	r0, r0, r8
 4c4:	0000000c 	andeq	r0, r0, ip
 4c8:	00000014 	andeq	r0, r0, r4, lsl r0
 4cc:	00000054 	andeq	r0, r0, r4, asr r0
 4d0:	00000058 	andeq	r0, r0, r8, asr r0
 4d4:	00000060 	andeq	r0, r0, r0, rrx
	...
 4e0:	00000060 	andeq	r0, r0, r0, rrx
 4e4:	00000068 	andeq	r0, r0, r8, rrx
 4e8:	0000006c 	andeq	r0, r0, ip, rrx
 4ec:	000000ac 	andeq	r0, r0, ip, lsr #1
 4f0:	000000b0 	strheq	r0, [r0], -r0	; <UNPREDICTABLE>
 4f4:	000000b8 	strheq	r0, [r0], -r8
	...
 500:	00000068 	andeq	r0, r0, r8, rrx
 504:	00000068 	andeq	r0, r0, r8, rrx
 508:	0000006c 	andeq	r0, r0, ip, rrx
 50c:	000000ac 	andeq	r0, r0, ip, lsr #1
 510:	000000b0 	strheq	r0, [r0], -r0	; <UNPREDICTABLE>
 514:	000000b8 	strheq	r0, [r0], -r8
	...
 520:	000000e8 	andeq	r0, r0, r8, ror #1
 524:	000000f0 	strdeq	r0, [r0], -r0	; <UNPREDICTABLE>
 528:	000000f4 	strdeq	r0, [r0], -r4
 52c:	00000134 	andeq	r0, r0, r4, lsr r1
 530:	00000138 	andeq	r0, r0, r8, lsr r1
 534:	00000140 	andeq	r0, r0, r0, asr #2
	...
 540:	000000f0 	strdeq	r0, [r0], -r0	; <UNPREDICTABLE>
 544:	000000f0 	strdeq	r0, [r0], -r0	; <UNPREDICTABLE>
 548:	000000f4 	strdeq	r0, [r0], -r4
 54c:	00000134 	andeq	r0, r0, r4, lsr r1
 550:	00000138 	andeq	r0, r0, r8, lsr r1
 554:	00000140 	andeq	r0, r0, r0, asr #2
	...
 560:	00000144 	andeq	r0, r0, r4, asr #2
 564:	00000148 	andeq	r0, r0, r8, asr #2
 568:	00000150 	andeq	r0, r0, r0, asr r1
 56c:	0000015c 	andeq	r0, r0, ip, asr r1
	...
