
tests-2.0/part2-test5-gc.elf:     file format elf32-littlearm


Disassembly of section .text:

00008000 <__code_start__>:
    8000:	e3a00013 	mov	r0, #19, 0
    8004:	e3800080 	orr	r0, r0, #128, 0	; 0x80
    8008:	e129f000 	msr	CPSR_fc, r0
    800c:	e3a01000 	mov	r1, #0, 0
    8010:	ee071f95 	mcr	15, 0, r1, cr7, cr5, {4}
    8014:	e3a0d302 	mov	sp, #134217728	; 0x8000000
    8018:	e3a0b000 	mov	fp, #0, 0
    801c:	eb000690 	bl	9a64 <_cstart>
    8020:	eb0006e5 	bl	9bbc <rpi_reboot>

00008024 <PUT32>:
    8024:	e5801000 	str	r1, [r0]
    8028:	e12fff1e 	bx	lr

0000802c <GET32>:
    802c:	e5900000 	ldr	r0, [r0]
    8030:	e12fff1e 	bx	lr

00008034 <BRANCHTO>:
    8034:	e12fff10 	bx	r0
    8038:	74736574 	ldrbtvc	r6, [r3], #-1396	; 0xfffffa8c
    803c:	00000000 	andeq	r0, r0, r0
    8040:	ff000008 			; <UNDEFINED> instruction: 0xff000008

00008044 <test>:
    8044:	e1a0c00d 	mov	ip, sp
    8048:	e92dd870 	push	{r4, r5, r6, fp, ip, lr, pc}
    804c:	e24cb004 	sub	fp, ip, #4, 0
    8050:	e24dd01c 	sub	sp, sp, #28, 0
    8054:	e3a06000 	mov	r6, #0, 0
    8058:	e1a05006 	mov	r5, r6
    805c:	e3560000 	cmp	r6, #0, 0
    8060:	da000005 	ble	807c <test+0x38>
    8064:	e59f0098 	ldr	r0, [pc, #152]	; 8104 <test+0xc0>
    8068:	eb0003e1 	bl	8ff4 <printk>
    806c:	eb00034d 	bl	8da8 <check_no_leak>
    8070:	e1a00005 	mov	r0, r5
    8074:	e24bd018 	sub	sp, fp, #24, 0
    8078:	e89da870 	ldm	sp, {r4, r5, r6, fp, sp, pc}
    807c:	e59f3084 	ldr	r3, [pc, #132]	; 8108 <test+0xc4>
    8080:	e50b3028 	str	r3, [fp, #-40]	; 0xffffffd8
    8084:	e59f3080 	ldr	r3, [pc, #128]	; 810c <test+0xc8>
    8088:	e50b3024 	str	r3, [fp, #-36]	; 0xffffffdc
    808c:	e3a03014 	mov	r3, #20, 0
    8090:	e50b3020 	str	r3, [fp, #-32]	; 0xffffffe0
    8094:	e24b301c 	sub	r3, fp, #28, 0
    8098:	e913000e 	ldmdb	r3, {r1, r2, r3}
    809c:	e3a0000c 	mov	r0, #12, 0
    80a0:	eb000122 	bl	8530 <ckalloc>
    80a4:	e1a04000 	mov	r4, r0
    80a8:	e3a0200c 	mov	r2, #12, 0
    80ac:	e3a01000 	mov	r1, #0, 0
    80b0:	eb0003b1 	bl	8f7c <memset>
    80b4:	e3a03000 	mov	r3, #0, 0
    80b8:	e5843000 	str	r3, [r4]
    80bc:	e1550003 	cmp	r5, r3
    80c0:	0a000004 	beq	80d8 <test+0x94>
    80c4:	e5953008 	ldr	r3, [r5, #8]
    80c8:	e3530000 	cmp	r3, #0, 0
    80cc:	1a000004 	bne	80e4 <test+0xa0>
    80d0:	e5854008 	str	r4, [r5, #8]
    80d4:	e5845004 	str	r5, [r4, #4]
    80d8:	e2866001 	add	r6, r6, #1, 0
    80dc:	e1a05004 	mov	r5, r4
    80e0:	eaffffdd 	b	805c <test+0x18>
    80e4:	e59f3024 	ldr	r3, [pc, #36]	; 8110 <test+0xcc>
    80e8:	e58d3000 	str	r3, [sp]
    80ec:	e3a03018 	mov	r3, #24, 0
    80f0:	e59f2014 	ldr	r2, [pc, #20]	; 810c <test+0xc8>
    80f4:	e59f100c 	ldr	r1, [pc, #12]	; 8108 <test+0xc4>
    80f8:	e59f0014 	ldr	r0, [pc, #20]	; 8114 <test+0xd0>
    80fc:	eb0003bc 	bl	8ff4 <printk>
    8100:	eb00064c 	bl	9a38 <clean_reboot>
    8104:	0000a5bc 			; <UNDEFINED> instruction: 0x0000a5bc
    8108:	0000a580 	andeq	sl, r0, r0, lsl #11
    810c:	0000a6d8 	ldrdeq	sl, [r0], -r8
    8110:	0000a5b0 			; <UNDEFINED> instruction: 0x0000a5b0
    8114:	0000a59c 	muleq	r0, ip, r5
    8118:	00726162 	rsbseq	r6, r2, r2, ror #2
    811c:	ff000004 			; <UNDEFINED> instruction: 0xff000004

00008120 <bar>:
    8120:	e1a0c00d 	mov	ip, sp
    8124:	e92dd800 	push	{fp, ip, lr, pc}
    8128:	e24cb004 	sub	fp, ip, #4, 0
    812c:	ebffffc4 	bl	8044 <test>
    8130:	e1a01000 	mov	r1, r0
    8134:	e3a00000 	mov	r0, #0, 0
    8138:	ebffffb9 	bl	8024 <PUT32>
    813c:	e3a00000 	mov	r0, #0, 0
    8140:	e89da800 	ldm	sp, {fp, sp, pc}
    8144:	6d746f6e 	ldclvs	15, cr6, [r4, #-440]!	; 0xfffffe48
    8148:	006e6961 	rsbeq	r6, lr, r1, ror #18
    814c:	ff000008 			; <UNDEFINED> instruction: 0xff000008

00008150 <notmain>:
    8150:	e1a0c00d 	mov	ip, sp
    8154:	e92dd800 	push	{fp, ip, lr, pc}
    8158:	e24cb004 	sub	fp, ip, #4, 0
    815c:	e24dd008 	sub	sp, sp, #8, 0
    8160:	e59f0064 	ldr	r0, [pc, #100]	; 81cc <notmain+0x7c>
    8164:	eb0003a2 	bl	8ff4 <printk>
    8168:	ebffffec 	bl	8120 <bar>
    816c:	e59f005c 	ldr	r0, [pc, #92]	; 81d0 <notmain+0x80>
    8170:	eb00039f 	bl	8ff4 <printk>
    8174:	eb000325 	bl	8e10 <check_should_leak>
    8178:	eb00033d 	bl	8e74 <ck_gc>
    817c:	e1a01000 	mov	r1, r0
    8180:	e59f004c 	ldr	r0, [pc, #76]	; 81d4 <notmain+0x84>
    8184:	eb00039a 	bl	8ff4 <printk>
    8188:	e59f0048 	ldr	r0, [pc, #72]	; 81d8 <notmain+0x88>
    818c:	eb000398 	bl	8ff4 <printk>
    8190:	eb000337 	bl	8e74 <ck_gc>
    8194:	e3500000 	cmp	r0, #0, 0
    8198:	1a000004 	bne	81b0 <notmain+0x60>
    819c:	e59f0038 	ldr	r0, [pc, #56]	; 81dc <notmain+0x8c>
    81a0:	eb000393 	bl	8ff4 <printk>
    81a4:	eb0002ff 	bl	8da8 <check_no_leak>
    81a8:	e24bd00c 	sub	sp, fp, #12, 0
    81ac:	e89da800 	ldm	sp, {fp, sp, pc}
    81b0:	e58d0000 	str	r0, [sp]
    81b4:	e3a03044 	mov	r3, #68, 0	; 0x44
    81b8:	e59f2020 	ldr	r2, [pc, #32]	; 81e0 <notmain+0x90>
    81bc:	e59f1020 	ldr	r1, [pc, #32]	; 81e4 <notmain+0x94>
    81c0:	e59f0020 	ldr	r0, [pc, #32]	; 81e8 <notmain+0x98>
    81c4:	eb00038a 	bl	8ff4 <printk>
    81c8:	eb00061a 	bl	9a38 <clean_reboot>
    81cc:	0000a5ec 	andeq	sl, r0, ip, ror #11
    81d0:	0000a628 	andeq	sl, r0, r8, lsr #12
    81d4:	0000a63c 	andeq	sl, r0, ip, lsr r6
    81d8:	0000a65c 	andeq	sl, r0, ip, asr r6
    81dc:	0000a6bc 			; <UNDEFINED> instruction: 0x0000a6bc
    81e0:	0000a6e0 	andeq	sl, r0, r0, ror #13
    81e4:	0000a580 	andeq	sl, r0, r0, lsl #11
    81e8:	0000a680 	andeq	sl, r0, r0, lsl #13
    81ec:	665f6b63 	ldrbvs	r6, [pc], -r3, ror #22
    81f0:	74737269 	ldrbtvc	r7, [r3], #-617	; 0xfffffd97
    81f4:	7264685f 	rsbvc	r6, r4, #6225920	; 0x5f0000
    81f8:	00000000 	andeq	r0, r0, r0
    81fc:	ff000010 			; <UNDEFINED> instruction: 0xff000010

00008200 <ck_first_hdr>:
    8200:	e1a0c00d 	mov	ip, sp
    8204:	e92dd800 	push	{fp, ip, lr, pc}
    8208:	e24cb004 	sub	fp, ip, #4, 0
    820c:	e59f3004 	ldr	r3, [pc, #4]	; 8218 <ck_first_hdr+0x18>
    8210:	e5930000 	ldr	r0, [r3]
    8214:	e89da800 	ldm	sp, {fp, sp, pc}
    8218:	0000ae98 	muleq	r0, r8, lr
    821c:	6e5f6b63 	vnmlavs.f64	d22, d15, d19
    8220:	5f747865 	svcpl	0x00747865
    8224:	00726468 	rsbseq	r6, r2, r8, ror #8
    8228:	ff00000c 			; <UNDEFINED> instruction: 0xff00000c

0000822c <ck_next_hdr>:
    822c:	e1a0c00d 	mov	ip, sp
    8230:	e92dd800 	push	{fp, ip, lr, pc}
    8234:	e24cb004 	sub	fp, ip, #4, 0
    8238:	e3500000 	cmp	r0, #0, 0
    823c:	089da800 	ldmeq	sp, {fp, sp, pc}
    8240:	e5900000 	ldr	r0, [r0]
    8244:	e89da800 	ldm	sp, {fp, sp, pc}
    8248:	685f6b63 	ldmdavs	pc, {r0, r1, r5, r6, r8, r9, fp, sp, lr}^	; <UNPREDICTABLE>
    824c:	735f7264 	cmpvc	pc, #100, 4	; 0x40000006
    8250:	74726174 	ldrbtvc	r6, [r2], #-372	; 0xfffffe8c
    8254:	00000000 	andeq	r0, r0, r0
    8258:	ff000010 			; <UNDEFINED> instruction: 0xff000010

0000825c <ck_hdr_start>:
    825c:	e1a0c00d 	mov	ip, sp
    8260:	e92dd800 	push	{fp, ip, lr, pc}
    8264:	e24cb004 	sub	fp, ip, #4, 0
    8268:	e28000b8 	add	r0, r0, #184, 0	; 0xb8
    826c:	e89da800 	ldm	sp, {fp, sp, pc}
    8270:	685f6b63 	ldmdavs	pc, {r0, r1, r5, r6, r8, r9, fp, sp, lr}^	; <UNPREDICTABLE>
    8274:	655f7264 	ldrbvs	r7, [pc, #-612]	; 8018 <__code_start__+0x18>
    8278:	0000646e 	andeq	r6, r0, lr, ror #8
    827c:	ff00000c 			; <UNDEFINED> instruction: 0xff00000c

00008280 <ck_hdr_end>:
    8280:	e1a0c00d 	mov	ip, sp
    8284:	e92dd830 	push	{r4, r5, fp, ip, lr, pc}
    8288:	e24cb004 	sub	fp, ip, #4, 0
    828c:	e1a04000 	mov	r4, r0
    8290:	ebfffff1 	bl	825c <ck_hdr_start>
    8294:	e5943008 	ldr	r3, [r4, #8]
    8298:	e0800003 	add	r0, r0, r3
    829c:	e89da830 	ldm	sp, {r4, r5, fp, sp, pc}
    82a0:	705f6b63 	subsvc	r6, pc, r3, ror #22
    82a4:	695f7274 	ldmdbvs	pc, {r2, r4, r5, r6, r9, ip, sp, lr}^	; <UNPREDICTABLE>
    82a8:	6c625f6e 	stclvs	15, cr5, [r2], #-440	; 0xfffffe48
    82ac:	006b636f 	rsbeq	r6, fp, pc, ror #6
    82b0:	ff000010 			; <UNDEFINED> instruction: 0xff000010

000082b4 <ck_ptr_in_block>:
    82b4:	e1a0c00d 	mov	ip, sp
    82b8:	e92dd8f0 	push	{r4, r5, r6, r7, fp, ip, lr, pc}
    82bc:	e24cb004 	sub	fp, ip, #4, 0
    82c0:	e1a06000 	mov	r6, r0
    82c4:	e1a04001 	mov	r4, r1
    82c8:	ebffffe3 	bl	825c <ck_hdr_start>
    82cc:	e1a05000 	mov	r5, r0
    82d0:	e1a00006 	mov	r0, r6
    82d4:	ebffffe9 	bl	8280 <ck_hdr_end>
    82d8:	e1550004 	cmp	r5, r4
    82dc:	91540000 	cmpls	r4, r0
    82e0:	33a00001 	movcc	r0, #1, 0
    82e4:	23a00000 	movcs	r0, #0, 0
    82e8:	e89da8f0 	ldm	sp, {r4, r5, r6, r7, fp, sp, pc}
    82ec:	705f6b63 	subsvc	r6, pc, r3, ror #22
    82f0:	695f7274 	ldmdbvs	pc, {r2, r4, r5, r6, r9, ip, sp, lr}^	; <UNPREDICTABLE>
    82f4:	6c615f73 	stclvs	15, cr5, [r1], #-460	; 0xfffffe34
    82f8:	65636f6c 	strbvs	r6, [r3, #-3948]!	; 0xfffff094
    82fc:	00000064 	andeq	r0, r0, r4, rrx
    8300:	ff000014 			; <UNDEFINED> instruction: 0xff000014

00008304 <ck_ptr_is_alloced>:
    8304:	e1a0c00d 	mov	ip, sp
    8308:	e92dd830 	push	{r4, r5, fp, ip, lr, pc}
    830c:	e24cb004 	sub	fp, ip, #4, 0
    8310:	e1a05000 	mov	r5, r0
    8314:	ebffffb9 	bl	8200 <ck_first_hdr>
    8318:	e1a04000 	mov	r4, r0
    831c:	e3540000 	cmp	r4, #0, 0
    8320:	0a00000c 	beq	8358 <ck_ptr_is_alloced+0x54>
    8324:	e1a01005 	mov	r1, r5
    8328:	e1a00004 	mov	r0, r4
    832c:	ebffffe0 	bl	82b4 <ck_ptr_in_block>
    8330:	e3500000 	cmp	r0, #0, 0
    8334:	1a000003 	bne	8348 <ck_ptr_is_alloced+0x44>
    8338:	e1a00004 	mov	r0, r4
    833c:	ebffffba 	bl	822c <ck_next_hdr>
    8340:	e1a04000 	mov	r4, r0
    8344:	eafffff4 	b	831c <ck_ptr_is_alloced+0x18>
    8348:	e1a02004 	mov	r2, r4
    834c:	e1a01005 	mov	r1, r5
    8350:	e59f0008 	ldr	r0, [pc, #8]	; 8360 <ck_ptr_is_alloced+0x5c>
    8354:	eb000326 	bl	8ff4 <printk>
    8358:	e1a00004 	mov	r0, r4
    835c:	e89da830 	ldm	sp, {r4, r5, fp, sp, pc}
    8360:	0000a6e8 	andeq	sl, r0, r8, ror #13
    8364:	72666b63 	rsbvc	r6, r6, #101376	; 0x18c00
    8368:	00006565 	andeq	r6, r0, r5, ror #10
    836c:	ff000008 			; <UNDEFINED> instruction: 0xff000008

00008370 <ckfree>:
    8370:	e1a0c00d 	mov	ip, sp
    8374:	e92dd8f0 	push	{r4, r5, r6, r7, fp, ip, lr, pc}
    8378:	e24cb004 	sub	fp, ip, #4, 0
    837c:	e24dd010 	sub	sp, sp, #16, 0
    8380:	e1a04000 	mov	r4, r0
    8384:	e24b0028 	sub	r0, fp, #40, 0	; 0x28
    8388:	e880000e 	stm	r0, {r1, r2, r3}
    838c:	e244c098 	sub	ip, r4, #152, 0	; 0x98
    8390:	e8900007 	ldm	r0, {r0, r1, r2}
    8394:	e88c000b 	stm	ip, {r0, r1, r3}
    8398:	e1a05000 	mov	r5, r0
    839c:	e51b6024 	ldr	r6, [fp, #-36]	; 0xffffffdc
    83a0:	e51b7020 	ldr	r7, [fp, #-32]	; 0xffffffe0
    83a4:	e1a03007 	mov	r3, r7
    83a8:	e1a02006 	mov	r2, r6
    83ac:	e1a01000 	mov	r1, r0
    83b0:	e59f00fc 	ldr	r0, [pc, #252]	; 84b4 <ckfree+0x144>
    83b4:	eb00030e 	bl	8ff4 <printk>
    83b8:	e1a01004 	mov	r1, r4
    83bc:	e59f00f4 	ldr	r0, [pc, #244]	; 84b8 <ckfree+0x148>
    83c0:	eb00030b 	bl	8ff4 <printk>
    83c4:	e51430ac 	ldr	r3, [r4, #-172]	; 0xffffff54
    83c8:	e353000b 	cmp	r3, #11, 0
    83cc:	1a00000d 	bne	8408 <ckfree+0x98>
    83d0:	e3a03000 	mov	r3, #0, 0
    83d4:	e353007f 	cmp	r3, #127, 0	; 0x7f
    83d8:	ca000026 	bgt	8478 <ckfree+0x108>
    83dc:	e0842003 	add	r2, r4, r3
    83e0:	e5522082 	ldrb	r2, [r2, #-130]	; 0xffffff7e
    83e4:	e35200fe 	cmp	r2, #254, 0	; 0xfe
    83e8:	1a000010 	bne	8430 <ckfree+0xc0>
    83ec:	e51420b0 	ldr	r2, [r4, #-176]	; 0xffffff50
    83f0:	e0832002 	add	r2, r3, r2
    83f4:	e7d42002 	ldrb	r2, [r4, r2]
    83f8:	e35200fe 	cmp	r2, #254, 0	; 0xfe
    83fc:	1a000014 	bne	8454 <ckfree+0xe4>
    8400:	e2833001 	add	r3, r3, #1, 0
    8404:	eafffff2 	b	83d4 <ckfree+0x64>
    8408:	eb0002b3 	bl	8edc <backtrace>
    840c:	e1a03007 	mov	r3, r7
    8410:	e1a02006 	mov	r2, r6
    8414:	e1a01005 	mov	r1, r5
    8418:	e59f009c 	ldr	r0, [pc, #156]	; 84bc <ckfree+0x14c>
    841c:	eb0002f4 	bl	8ff4 <printk>
    8420:	e51410ac 	ldr	r1, [r4, #-172]	; 0xffffff54
    8424:	e59f0094 	ldr	r0, [pc, #148]	; 84c0 <ckfree+0x150>
    8428:	eb0002f1 	bl	8ff4 <printk>
    842c:	eb000581 	bl	9a38 <clean_reboot>
    8430:	eb0002a9 	bl	8edc <backtrace>
    8434:	e1a03007 	mov	r3, r7
    8438:	e1a02006 	mov	r2, r6
    843c:	e1a01005 	mov	r1, r5
    8440:	e59f0074 	ldr	r0, [pc, #116]	; 84bc <ckfree+0x14c>
    8444:	eb0002ea 	bl	8ff4 <printk>
    8448:	e59f0074 	ldr	r0, [pc, #116]	; 84c4 <ckfree+0x154>
    844c:	eb0002e8 	bl	8ff4 <printk>
    8450:	eb000578 	bl	9a38 <clean_reboot>
    8454:	eb0002a0 	bl	8edc <backtrace>
    8458:	e1a03007 	mov	r3, r7
    845c:	e1a02006 	mov	r2, r6
    8460:	e1a01005 	mov	r1, r5
    8464:	e59f0050 	ldr	r0, [pc, #80]	; 84bc <ckfree+0x14c>
    8468:	eb0002e1 	bl	8ff4 <printk>
    846c:	e59f0054 	ldr	r0, [pc, #84]	; 84c8 <ckfree+0x158>
    8470:	eb0002df 	bl	8ff4 <printk>
    8474:	eb00056f 	bl	9a38 <clean_reboot>
    8478:	e3a03000 	mov	r3, #0, 0
    847c:	e51420b0 	ldr	r2, [r4, #-176]	; 0xffffff50
    8480:	e1520003 	cmp	r2, r3
    8484:	83e02001 	mvnhi	r2, #1, 0
    8488:	87c42003 	strbhi	r2, [r4, r3]
    848c:	82833001 	addhi	r3, r3, #1, 0
    8490:	8afffff9 	bhi	847c <ckfree+0x10c>
    8494:	e3a0300c 	mov	r3, #12, 0
    8498:	e50430ac 	str	r3, [r4, #-172]	; 0xffffff54
    849c:	e2444098 	sub	r4, r4, #152, 0	; 0x98
    84a0:	e24b301c 	sub	r3, fp, #28, 0
    84a4:	e9130007 	ldmdb	r3, {r0, r1, r2}
    84a8:	e8840007 	stm	r4, {r0, r1, r2}
    84ac:	e24bd01c 	sub	sp, fp, #28, 0
    84b0:	e89da8f0 	ldm	sp, {r4, r5, r6, r7, fp, sp, pc}
    84b4:	0000a6f8 	strdeq	sl, [r0], -r8
    84b8:	0000a704 	andeq	sl, r0, r4, lsl #14
    84bc:	0000a714 	andeq	sl, r0, r4, lsl r7
    84c0:	0000a72c 	andeq	sl, r0, ip, lsr #14
    84c4:	0000a754 	andeq	sl, r0, r4, asr r7
    84c8:	0000a770 	andeq	sl, r0, r0, ror r7
    84cc:	64616873 	strbtvs	r6, [r1], #-2163	; 0xfffff78d
    84d0:	6c5f776f 	mrrcvs	7, 6, r7, pc, cr15	; <UNPREDICTABLE>
    84d4:	7461636f 	strbtvc	r6, [r1], #-879	; 0xfffffc91
    84d8:	006e6f69 	rsbeq	r6, lr, r9, ror #30
    84dc:	ff000010 			; <UNDEFINED> instruction: 0xff000010

000084e0 <shadow_location>:
    84e0:	e1a0c00d 	mov	ip, sp
    84e4:	e92dd800 	push	{fp, ip, lr, pc}
    84e8:	e24cb004 	sub	fp, ip, #4, 0
    84ec:	e59f302c 	ldr	r3, [pc, #44]	; 8520 <shadow_location+0x40>
    84f0:	e1500003 	cmp	r0, r3
    84f4:	3a000005 	bcc	8510 <shadow_location+0x30>
    84f8:	e2833101 	add	r3, r3, #1073741824	; 0x40000000
    84fc:	e1500003 	cmp	r0, r3
    8500:	2a000004 	bcs	8518 <shadow_location+0x38>
    8504:	e3c00003 	bic	r0, r0, #3, 0
    8508:	e2800201 	add	r0, r0, #268435456	; 0x10000000
    850c:	e89da800 	ldm	sp, {fp, sp, pc}
    8510:	e3a00000 	mov	r0, #0, 0
    8514:	e89da800 	ldm	sp, {fp, sp, pc}
    8518:	e3a00000 	mov	r0, #0, 0
    851c:	e89da800 	ldm	sp, {fp, sp, pc}
    8520:	0000b2c8 	andeq	fp, r0, r8, asr #5
    8524:	6c616b63 			; <UNDEFINED> instruction: 0x6c616b63
    8528:	00636f6c 	rsbeq	r6, r3, ip, ror #30
    852c:	ff000008 			; <UNDEFINED> instruction: 0xff000008

00008530 <ckalloc>:
    8530:	e1a0c00d 	mov	ip, sp
    8534:	e92dd8f0 	push	{r4, r5, r6, r7, fp, ip, lr, pc}
    8538:	e24cb004 	sub	fp, ip, #4, 0
    853c:	e24dd010 	sub	sp, sp, #16, 0
    8540:	e1a05000 	mov	r5, r0
    8544:	e24b001c 	sub	r0, fp, #28, 0
    8548:	e900000e 	stmdb	r0, {r1, r2, r3}
    854c:	e2850f4e 	add	r0, r5, #312	; 0x138
    8550:	eb000088 	bl	8778 <kr_malloc>
    8554:	e1a04000 	mov	r4, r0
    8558:	e3a020b8 	mov	r2, #184, 0	; 0xb8
    855c:	e3a01000 	mov	r1, #0, 0
    8560:	eb000285 	bl	8f7c <memset>
    8564:	e3a03000 	mov	r3, #0, 0
    8568:	e353007f 	cmp	r3, #127, 0	; 0x7f
    856c:	ca000007 	bgt	8590 <ckalloc+0x60>
    8570:	e0842003 	add	r2, r4, r3
    8574:	e3e01001 	mvn	r1, #1, 0
    8578:	e5c21036 	strb	r1, [r2, #54]	; 0x36
    857c:	e0832005 	add	r2, r3, r5
    8580:	e28220b8 	add	r2, r2, #184, 0	; 0xb8
    8584:	e7c41002 	strb	r1, [r4, r2]
    8588:	e2833001 	add	r3, r3, #1, 0
    858c:	eafffff5 	b	8568 <ckalloc+0x38>
    8590:	e5845008 	str	r5, [r4, #8]
    8594:	e3a0300b 	mov	r3, #11, 0
    8598:	e584300c 	str	r3, [r4, #12]
    859c:	e2843014 	add	r3, r4, #20, 0
    85a0:	e24b201c 	sub	r2, fp, #28, 0
    85a4:	e9120007 	ldmdb	r2, {r0, r1, r2}
    85a8:	e8830007 	stm	r3, {r0, r1, r2}
    85ac:	e59f3068 	ldr	r3, [pc, #104]	; 861c <ckalloc+0xec>
    85b0:	e5843004 	str	r3, [r4, #4]
    85b4:	e51b3020 	ldr	r3, [fp, #-32]	; 0xffffffe0
    85b8:	e51b2024 	ldr	r2, [fp, #-36]	; 0xffffffdc
    85bc:	e51b1028 	ldr	r1, [fp, #-40]	; 0xffffffd8
    85c0:	e59f0058 	ldr	r0, [pc, #88]	; 8620 <ckalloc+0xf0>
    85c4:	eb00028a 	bl	8ff4 <printk>
    85c8:	e28470b8 	add	r7, r4, #184, 0	; 0xb8
    85cc:	e1a02005 	mov	r2, r5
    85d0:	e1a01007 	mov	r1, r7
    85d4:	e59f0048 	ldr	r0, [pc, #72]	; 8624 <ckalloc+0xf4>
    85d8:	eb000285 	bl	8ff4 <printk>
    85dc:	e3a06000 	mov	r6, #0, 0
    85e0:	e1560005 	cmp	r6, r5
    85e4:	8a000005 	bhi	8600 <ckalloc+0xd0>
    85e8:	e28600b8 	add	r0, r6, #184, 0	; 0xb8
    85ec:	e0840000 	add	r0, r4, r0
    85f0:	ebffffba 	bl	84e0 <shadow_location>
    85f4:	e5804000 	str	r4, [r0]
    85f8:	e2866004 	add	r6, r6, #4, 0
    85fc:	eafffff7 	b	85e0 <ckalloc+0xb0>
    8600:	e59f3020 	ldr	r3, [pc, #32]	; 8628 <ckalloc+0xf8>
    8604:	e5932000 	ldr	r2, [r3]
    8608:	e5842000 	str	r2, [r4]
    860c:	e5834000 	str	r4, [r3]
    8610:	e1a00007 	mov	r0, r7
    8614:	e24bd01c 	sub	sp, fp, #28, 0
    8618:	e89da8f0 	ldm	sp, {r4, r5, r6, r7, fp, sp, pc}
    861c:	deadbeef 	cdple	14, 10, cr11, cr13, cr15, {7}
    8620:	0000a6f8 	strdeq	sl, [r0], -r8
    8624:	0000a78c 	andeq	sl, r0, ip, lsl #15
    8628:	0000ae98 	muleq	r0, r8, lr
    862c:	665f726b 	ldrbvs	r7, [pc], -fp, ror #4
    8630:	00656572 	rsbeq	r6, r5, r2, ror r5
    8634:	ff000008 			; <UNDEFINED> instruction: 0xff000008

00008638 <kr_free>:
    8638:	e1a0c00d 	mov	ip, sp
    863c:	e92dd800 	push	{fp, ip, lr, pc}
    8640:	e24cb004 	sub	fp, ip, #4, 0
    8644:	e2401008 	sub	r1, r0, #8, 0
    8648:	e59f30a8 	ldr	r3, [pc, #168]	; 86f8 <kr_free+0xc0>
    864c:	e5933000 	ldr	r3, [r3]
    8650:	ea000000 	b	8658 <kr_free+0x20>
    8654:	e1a03002 	mov	r3, r2
    8658:	e1530001 	cmp	r3, r1
    865c:	2a000002 	bcs	866c <kr_free+0x34>
    8660:	e5932000 	ldr	r2, [r3]
    8664:	e1520001 	cmp	r2, r1
    8668:	8a000007 	bhi	868c <kr_free+0x54>
    866c:	e5932000 	ldr	r2, [r3]
    8670:	e1520003 	cmp	r2, r3
    8674:	8afffff6 	bhi	8654 <kr_free+0x1c>
    8678:	e1530001 	cmp	r3, r1
    867c:	3a000002 	bcc	868c <kr_free+0x54>
    8680:	e1520001 	cmp	r2, r1
    8684:	91a03002 	movls	r3, r2
    8688:	9afffff2 	bls	8658 <kr_free+0x20>
    868c:	e510c004 	ldr	ip, [r0, #-4]
    8690:	e081e18c 	add	lr, r1, ip, lsl #3
    8694:	e5932000 	ldr	r2, [r3]
    8698:	e15e0002 	cmp	lr, r2
    869c:	0a000008 	beq	86c4 <kr_free+0x8c>
    86a0:	e5002008 	str	r2, [r0, #-8]
    86a4:	e5932004 	ldr	r2, [r3, #4]
    86a8:	e083c182 	add	ip, r3, r2, lsl #3
    86ac:	e15c0001 	cmp	ip, r1
    86b0:	0a00000a 	beq	86e0 <kr_free+0xa8>
    86b4:	e5831000 	str	r1, [r3]
    86b8:	e59f2038 	ldr	r2, [pc, #56]	; 86f8 <kr_free+0xc0>
    86bc:	e5823000 	str	r3, [r2]
    86c0:	e89da800 	ldm	sp, {fp, sp, pc}
    86c4:	e5922004 	ldr	r2, [r2, #4]
    86c8:	e08cc002 	add	ip, ip, r2
    86cc:	e500c004 	str	ip, [r0, #-4]
    86d0:	e5932000 	ldr	r2, [r3]
    86d4:	e5922000 	ldr	r2, [r2]
    86d8:	e5002008 	str	r2, [r0, #-8]
    86dc:	eafffff0 	b	86a4 <kr_free+0x6c>
    86e0:	e5101004 	ldr	r1, [r0, #-4]
    86e4:	e0822001 	add	r2, r2, r1
    86e8:	e5832004 	str	r2, [r3, #4]
    86ec:	e5102008 	ldr	r2, [r0, #-8]
    86f0:	e5832000 	str	r2, [r3]
    86f4:	eaffffef 	b	86b8 <kr_free+0x80>
    86f8:	0000aea0 	andeq	sl, r0, r0, lsr #29
    86fc:	65726f6d 	ldrbvs	r6, [r2, #-3949]!	; 0xfffff093
    8700:	65726f63 	ldrbvs	r6, [r2, #-3939]!	; 0xfffff09d
    8704:	00000000 	andeq	r0, r0, r0
    8708:	ff00000c 			; <UNDEFINED> instruction: 0xff00000c

0000870c <morecore>:
    870c:	e1a0c00d 	mov	ip, sp
    8710:	e92dd830 	push	{r4, r5, fp, ip, lr, pc}
    8714:	e24cb004 	sub	fp, ip, #4, 0
    8718:	e1a04000 	mov	r4, r0
    871c:	e3500b01 	cmp	r0, #1024	; 0x400
    8720:	33a04b01 	movcc	r4, #1024	; 0x400
    8724:	e1a01004 	mov	r1, r4
    8728:	e59f0030 	ldr	r0, [pc, #48]	; 8760 <morecore+0x54>
    872c:	eb000230 	bl	8ff4 <printk>
    8730:	e1a00184 	lsl	r0, r4, #3
    8734:	eb000161 	bl	8cc0 <sbrk>
    8738:	e3700001 	cmn	r0, #1, 0
    873c:	0a000005 	beq	8758 <morecore+0x4c>
    8740:	e5804004 	str	r4, [r0, #4]
    8744:	e2800008 	add	r0, r0, #8, 0
    8748:	ebffffba 	bl	8638 <kr_free>
    874c:	e59f3010 	ldr	r3, [pc, #16]	; 8764 <morecore+0x58>
    8750:	e5930000 	ldr	r0, [r3]
    8754:	e89da830 	ldm	sp, {r4, r5, fp, sp, pc}
    8758:	e3a00000 	mov	r0, #0, 0
    875c:	e89da830 	ldm	sp, {r4, r5, fp, sp, pc}
    8760:	0000a7a8 	andeq	sl, r0, r8, lsr #15
    8764:	0000aea0 	andeq	sl, r0, r0, lsr #29
    8768:	6d5f726b 	lfmvs	f7, 2, [pc, #-428]	; 85c4 <ckalloc+0x94>
    876c:	6f6c6c61 	svcvs	0x006c6c61
    8770:	00000063 	andeq	r0, r0, r3, rrx
    8774:	ff00000c 			; <UNDEFINED> instruction: 0xff00000c

00008778 <kr_malloc>:
    8778:	e1a0c00d 	mov	ip, sp
    877c:	e92dd830 	push	{r4, r5, fp, ip, lr, pc}
    8780:	e24cb004 	sub	fp, ip, #4, 0
    8784:	e2804007 	add	r4, r0, #7, 0
    8788:	e1a041a4 	lsr	r4, r4, #3
    878c:	e2844001 	add	r4, r4, #1, 0
    8790:	e59f3090 	ldr	r3, [pc, #144]	; 8828 <kr_malloc+0xb0>
    8794:	e5932000 	ldr	r2, [r3]
    8798:	e3520000 	cmp	r2, #0, 0
    879c:	0a000001 	beq	87a8 <kr_malloc+0x30>
    87a0:	e5920000 	ldr	r0, [r2]
    87a4:	ea000013 	b	87f8 <kr_malloc+0x80>
    87a8:	e2832008 	add	r2, r3, #8, 0
    87ac:	e5832000 	str	r2, [r3]
    87b0:	e5832008 	str	r2, [r3, #8]
    87b4:	e3a01000 	mov	r1, #0, 0
    87b8:	e583100c 	str	r1, [r3, #12]
    87bc:	eafffff7 	b	87a0 <kr_malloc+0x28>
    87c0:	0a000007 	beq	87e4 <kr_malloc+0x6c>
    87c4:	e0433004 	sub	r3, r3, r4
    87c8:	e5803004 	str	r3, [r0, #4]
    87cc:	e0800183 	add	r0, r0, r3, lsl #3
    87d0:	e5804004 	str	r4, [r0, #4]
    87d4:	e59f304c 	ldr	r3, [pc, #76]	; 8828 <kr_malloc+0xb0>
    87d8:	e5832000 	str	r2, [r3]
    87dc:	e2800008 	add	r0, r0, #8, 0
    87e0:	e89da830 	ldm	sp, {r4, r5, fp, sp, pc}
    87e4:	e5903000 	ldr	r3, [r0]
    87e8:	e5823000 	str	r3, [r2]
    87ec:	eafffff8 	b	87d4 <kr_malloc+0x5c>
    87f0:	e1a02000 	mov	r2, r0
    87f4:	e5900000 	ldr	r0, [r0]
    87f8:	e5903004 	ldr	r3, [r0, #4]
    87fc:	e1530004 	cmp	r3, r4
    8800:	2affffee 	bcs	87c0 <kr_malloc+0x48>
    8804:	e59f301c 	ldr	r3, [pc, #28]	; 8828 <kr_malloc+0xb0>
    8808:	e5933000 	ldr	r3, [r3]
    880c:	e1530000 	cmp	r3, r0
    8810:	1afffff6 	bne	87f0 <kr_malloc+0x78>
    8814:	e3a00902 	mov	r0, #32768	; 0x8000
    8818:	ebffffbb 	bl	870c <morecore>
    881c:	e3500000 	cmp	r0, #0, 0
    8820:	1afffff2 	bne	87f0 <kr_malloc+0x78>
    8824:	e89da830 	ldm	sp, {r4, r5, fp, sp, pc}
    8828:	0000aea0 	andeq	sl, r0, r0, lsr #29
    882c:	685f6e69 	ldmdavs	pc, {r0, r3, r5, r6, r9, sl, fp, sp, lr}^	; <UNPREDICTABLE>
    8830:	00706165 	rsbseq	r6, r0, r5, ror #2
    8834:	ff000008 			; <UNDEFINED> instruction: 0xff000008

00008838 <in_heap>:
    8838:	e1a0c00d 	mov	ip, sp
    883c:	e92dd800 	push	{fp, ip, lr, pc}
    8840:	e24cb004 	sub	fp, ip, #4, 0
    8844:	e59f3030 	ldr	r3, [pc, #48]	; 887c <in_heap+0x44>
    8848:	e5933000 	ldr	r3, [r3]
    884c:	e1530000 	cmp	r3, r0
    8850:	8a000005 	bhi	886c <in_heap+0x34>
    8854:	e59f3020 	ldr	r3, [pc, #32]	; 887c <in_heap+0x44>
    8858:	e5933004 	ldr	r3, [r3, #4]
    885c:	e1530000 	cmp	r3, r0
    8860:	9a000003 	bls	8874 <in_heap+0x3c>
    8864:	e3a00001 	mov	r0, #1, 0
    8868:	e89da800 	ldm	sp, {fp, sp, pc}
    886c:	e3a00000 	mov	r0, #0, 0
    8870:	e89da800 	ldm	sp, {fp, sp, pc}
    8874:	e3a00000 	mov	r0, #0, 0
    8878:	e89da800 	ldm	sp, {fp, sp, pc}
    887c:	0000aeb0 			; <UNDEFINED> instruction: 0x0000aeb0
    8880:	705f7369 	subsvc	r7, pc, r9, ror #6
    8884:	00007274 	andeq	r7, r0, r4, ror r2
    8888:	ff000008 			; <UNDEFINED> instruction: 0xff000008

0000888c <is_ptr>:
    888c:	e1a0c00d 	mov	ip, sp
    8890:	e92dd830 	push	{r4, r5, fp, ip, lr, pc}
    8894:	e24cb004 	sub	fp, ip, #4, 0
    8898:	e1a04000 	mov	r4, r0
    889c:	ebffffe5 	bl	8838 <in_heap>
    88a0:	e3500000 	cmp	r0, #0, 0
    88a4:	0a000002 	beq	88b4 <is_ptr+0x28>
    88a8:	e1a00004 	mov	r0, r4
    88ac:	ebfffe94 	bl	8304 <ck_ptr_is_alloced>
    88b0:	e89da830 	ldm	sp, {r4, r5, fp, sp, pc}
    88b4:	e3a00000 	mov	r0, #0, 0
    88b8:	e89da830 	ldm	sp, {r4, r5, fp, sp, pc}
    88bc:	6b72616d 	blvs	1ca0e78 <__bss_end__+0x1c95bb0>
    88c0:	00000000 	andeq	r0, r0, r0
    88c4:	ff000008 			; <UNDEFINED> instruction: 0xff000008

000088c8 <mark>:
    88c8:	e1a0c00d 	mov	ip, sp
    88cc:	e92dd830 	push	{r4, r5, fp, ip, lr, pc}
    88d0:	e24cb004 	sub	fp, ip, #4, 0
    88d4:	e24dd008 	sub	sp, sp, #8, 0
    88d8:	e1500001 	cmp	r0, r1
    88dc:	2a00000d 	bcs	8918 <mark+0x50>
    88e0:	e1a04000 	mov	r4, r0
    88e4:	e1a05001 	mov	r5, r1
    88e8:	e3100003 	tst	r0, #3, 0
    88ec:	1a000011 	bne	8938 <mark+0x70>
    88f0:	e3110003 	tst	r1, #3, 0
    88f4:	0a00001c 	beq	896c <mark+0xa4>
    88f8:	e59f30c8 	ldr	r3, [pc, #200]	; 89c8 <mark+0x100>
    88fc:	e58d3000 	str	r3, [sp]
    8900:	e3a03056 	mov	r3, #86, 0	; 0x56
    8904:	e59f20c0 	ldr	r2, [pc, #192]	; 89cc <mark+0x104>
    8908:	e59f10c0 	ldr	r1, [pc, #192]	; 89d0 <mark+0x108>
    890c:	e59f00c0 	ldr	r0, [pc, #192]	; 89d4 <mark+0x10c>
    8910:	eb0001b7 	bl	8ff4 <printk>
    8914:	eb000447 	bl	9a38 <clean_reboot>
    8918:	e59f30b8 	ldr	r3, [pc, #184]	; 89d8 <mark+0x110>
    891c:	e58d3000 	str	r3, [sp]
    8920:	e3a03052 	mov	r3, #82, 0	; 0x52
    8924:	e59f20a0 	ldr	r2, [pc, #160]	; 89cc <mark+0x104>
    8928:	e59f10a0 	ldr	r1, [pc, #160]	; 89d0 <mark+0x108>
    892c:	e59f00a0 	ldr	r0, [pc, #160]	; 89d4 <mark+0x10c>
    8930:	eb0001af 	bl	8ff4 <printk>
    8934:	eb00043f 	bl	9a38 <clean_reboot>
    8938:	e59f309c 	ldr	r3, [pc, #156]	; 89dc <mark+0x114>
    893c:	e58d3000 	str	r3, [sp]
    8940:	e3a03055 	mov	r3, #85, 0	; 0x55
    8944:	e59f2080 	ldr	r2, [pc, #128]	; 89cc <mark+0x104>
    8948:	e59f1080 	ldr	r1, [pc, #128]	; 89d0 <mark+0x108>
    894c:	e59f0080 	ldr	r0, [pc, #128]	; 89d4 <mark+0x10c>
    8950:	eb0001a7 	bl	8ff4 <printk>
    8954:	eb000437 	bl	9a38 <clean_reboot>
    8958:	e3a01002 	mov	r1, #2, 0
    895c:	e1c013b4 	strh	r1, [r0, #52]	; 0x34
    8960:	e3520000 	cmp	r2, #0, 0
    8964:	0a00000f 	beq	89a8 <mark+0xe0>
    8968:	e2844004 	add	r4, r4, #4, 0
    896c:	e1540005 	cmp	r4, r5
    8970:	8a000012 	bhi	89c0 <mark+0xf8>
    8974:	e5940000 	ldr	r0, [r4]
    8978:	ebffffc3 	bl	888c <is_ptr>
    897c:	e3500000 	cmp	r0, #0, 0
    8980:	0afffff8 	beq	8968 <mark+0xa0>
    8984:	e28010b8 	add	r1, r0, #184, 0	; 0xb8
    8988:	e1d023b4 	ldrh	r2, [r0, #52]	; 0x34
    898c:	e3520001 	cmp	r2, #1, 0
    8990:	8afffff4 	bhi	8968 <mark+0xa0>
    8994:	e5943000 	ldr	r3, [r4]
    8998:	e1530001 	cmp	r3, r1
    899c:	0affffed 	beq	8958 <mark+0x90>
    89a0:	e3a01001 	mov	r1, #1, 0
    89a4:	eaffffec 	b	895c <mark+0x94>
    89a8:	e5901008 	ldr	r1, [r0, #8]
    89ac:	e28110b8 	add	r1, r1, #184, 0	; 0xb8
    89b0:	e0801001 	add	r1, r0, r1
    89b4:	e2800004 	add	r0, r0, #4, 0
    89b8:	ebffffc2 	bl	88c8 <mark>
    89bc:	eaffffe9 	b	8968 <mark+0xa0>
    89c0:	e24bd014 	sub	sp, fp, #20, 0
    89c4:	e89da830 	ldm	sp, {r4, r5, fp, sp, pc}
    89c8:	0000a7ec 	andeq	sl, r0, ip, ror #15
    89cc:	0000aa98 	muleq	r0, r8, sl
    89d0:	0000a7cc 	andeq	sl, r0, ip, asr #15
    89d4:	0000a59c 	muleq	r0, ip, r5
    89d8:	0000a7d4 	ldrdeq	sl, [r0], -r4
    89dc:	0000a7dc 	ldrdeq	sl, [r0], -ip
    89e0:	6b72616d 	blvs	1ca0f9c <__bss_end__+0x1c95cd4>
    89e4:	6c6c615f 	stfvse	f6, [ip], #-380	; 0xfffffe84
    89e8:	00000000 	andeq	r0, r0, r0
    89ec:	ff00000c 			; <UNDEFINED> instruction: 0xff00000c

000089f0 <mark_all>:
    89f0:	e1a0c00d 	mov	ip, sp
    89f4:	e92dd800 	push	{fp, ip, lr, pc}
    89f8:	e24cb004 	sub	fp, ip, #4, 0
    89fc:	e24dd040 	sub	sp, sp, #64, 0	; 0x40
    8a00:	ebfffdfe 	bl	8200 <ck_first_hdr>
    8a04:	e3500000 	cmp	r0, #0, 0
    8a08:	0a000005 	beq	8a24 <mark_all+0x34>
    8a0c:	e3a03000 	mov	r3, #0, 0
    8a10:	e5803030 	str	r3, [r0, #48]	; 0x30
    8a14:	e580302c 	str	r3, [r0, #44]	; 0x2c
    8a18:	e1c033b4 	strh	r3, [r0, #52]	; 0x34
    8a1c:	ebfffe02 	bl	822c <ck_next_hdr>
    8a20:	eafffff7 	b	8a04 <mark_all+0x14>
    8a24:	e24b004c 	sub	r0, fp, #76, 0	; 0x4c
    8a28:	eb000129 	bl	8ed4 <dump_regs>
    8a2c:	e3a03000 	mov	r3, #0, 0
    8a30:	e50b304c 	str	r3, [fp, #-76]	; 0xffffffb4
    8a34:	e50b3048 	str	r3, [fp, #-72]	; 0xffffffb8
    8a38:	e50b3044 	str	r3, [fp, #-68]	; 0xffffffbc
    8a3c:	e50b3040 	str	r3, [fp, #-64]	; 0xffffffc0
    8a40:	e24b1014 	sub	r1, fp, #20, 0
    8a44:	e24b004c 	sub	r0, fp, #76, 0	; 0x4c
    8a48:	ebffff9e 	bl	88c8 <mark>
    8a4c:	e3a02302 	mov	r2, #134217728	; 0x8000000
    8a50:	e51b1018 	ldr	r1, [fp, #-24]	; 0xffffffe8
    8a54:	e59f002c 	ldr	r0, [pc, #44]	; 8a88 <mark_all+0x98>
    8a58:	eb000165 	bl	8ff4 <printk>
    8a5c:	e3a01302 	mov	r1, #134217728	; 0x8000000
    8a60:	e51b0018 	ldr	r0, [fp, #-24]	; 0xffffffe8
    8a64:	ebffff97 	bl	88c8 <mark>
    8a68:	e59f101c 	ldr	r1, [pc, #28]	; 8a8c <mark_all+0x9c>
    8a6c:	e59f001c 	ldr	r0, [pc, #28]	; 8a90 <mark_all+0xa0>
    8a70:	ebffff94 	bl	88c8 <mark>
    8a74:	e59f1018 	ldr	r1, [pc, #24]	; 8a94 <mark_all+0xa4>
    8a78:	e59f0018 	ldr	r0, [pc, #24]	; 8a98 <mark_all+0xa8>
    8a7c:	ebffff91 	bl	88c8 <mark>
    8a80:	e24bd00c 	sub	sp, fp, #12, 0
    8a84:	e89da800 	ldm	sp, {fp, sp, pc}
    8a88:	0000a7fc 	strdeq	sl, [r0], -ip
    8a8c:	0000b2c8 	andeq	fp, r0, r8, asr #5
    8a90:	0000ae98 	muleq	r0, r8, lr
    8a94:	0000ae98 	muleq	r0, r8, lr
    8a98:	0000ae84 	andeq	sl, r0, r4, lsl #29
    8a9c:	65657773 	strbvs	r7, [r5, #-1907]!	; 0xfffff88d
    8aa0:	656c5f70 	strbvs	r5, [ip, #-3952]!	; 0xfffff090
    8aa4:	00006b61 	andeq	r6, r0, r1, ror #22
    8aa8:	ff00000c 			; <UNDEFINED> instruction: 0xff00000c

00008aac <sweep_leak>:
    8aac:	e1a0c00d 	mov	ip, sp
    8ab0:	e92ddbf0 	push	{r4, r5, r6, r7, r8, r9, fp, ip, lr, pc}
    8ab4:	e24cb004 	sub	fp, ip, #4, 0
    8ab8:	e1a07000 	mov	r7, r0
    8abc:	e59f00d0 	ldr	r0, [pc, #208]	; 8b94 <sweep_leak+0xe8>
    8ac0:	eb00014b 	bl	8ff4 <printk>
    8ac4:	e59f00cc 	ldr	r0, [pc, #204]	; 8b98 <sweep_leak+0xec>
    8ac8:	eb000149 	bl	8ff4 <printk>
    8acc:	ebffffc7 	bl	89f0 <mark_all>
    8ad0:	ebfffdca 	bl	8200 <ck_first_hdr>
    8ad4:	e1a04000 	mov	r4, r0
    8ad8:	e3a08000 	mov	r8, #0, 0
    8adc:	e1a06008 	mov	r6, r8
    8ae0:	e1a05008 	mov	r5, r8
    8ae4:	ea000007 	b	8b08 <sweep_leak+0x5c>
    8ae8:	e2866001 	add	r6, r6, #1, 0
    8aec:	e1a02004 	mov	r2, r4
    8af0:	e1a01005 	mov	r1, r5
    8af4:	e59f00a0 	ldr	r0, [pc, #160]	; 8b9c <sweep_leak+0xf0>
    8af8:	eb00013d 	bl	8ff4 <printk>
    8afc:	e1a00004 	mov	r0, r4
    8b00:	ebfffdc9 	bl	822c <ck_next_hdr>
    8b04:	e1a04000 	mov	r4, r0
    8b08:	e3540000 	cmp	r4, #0, 0
    8b0c:	0a00000e 	beq	8b4c <sweep_leak+0xa0>
    8b10:	e594300c 	ldr	r3, [r4, #12]
    8b14:	e353000b 	cmp	r3, #11, 0
    8b18:	1afffff7 	bne	8afc <sweep_leak+0x50>
    8b1c:	e2855001 	add	r5, r5, #1, 0
    8b20:	e1d433b4 	ldrh	r3, [r4, #52]	; 0x34
    8b24:	e3530000 	cmp	r3, #0, 0
    8b28:	0affffee 	beq	8ae8 <sweep_leak+0x3c>
    8b2c:	e3530001 	cmp	r3, #1, 0
    8b30:	1afffff1 	bne	8afc <sweep_leak+0x50>
    8b34:	e2888001 	add	r8, r8, #1, 0
    8b38:	e1a02004 	mov	r2, r4
    8b3c:	e1a01005 	mov	r1, r5
    8b40:	e59f0058 	ldr	r0, [pc, #88]	; 8ba0 <sweep_leak+0xf4>
    8b44:	eb00012a 	bl	8ff4 <printk>
    8b48:	eaffffeb 	b	8afc <sweep_leak+0x50>
    8b4c:	e1a01005 	mov	r1, r5
    8b50:	e59f004c 	ldr	r0, [pc, #76]	; 8ba4 <sweep_leak+0xf8>
    8b54:	eb000126 	bl	8ff4 <printk>
    8b58:	e1963008 	orrs	r3, r6, r8
    8b5c:	1a000007 	bne	8b80 <sweep_leak+0xd4>
    8b60:	e59f0040 	ldr	r0, [pc, #64]	; 8ba8 <sweep_leak+0xfc>
    8b64:	eb000122 	bl	8ff4 <printk>
    8b68:	e59f003c 	ldr	r0, [pc, #60]	; 8bac <sweep_leak+0x100>
    8b6c:	eb000120 	bl	8ff4 <printk>
    8b70:	e3570000 	cmp	r7, #0, 0
    8b74:	10866008 	addne	r6, r6, r8
    8b78:	e1a00006 	mov	r0, r6
    8b7c:	e89dabf0 	ldm	sp, {r4, r5, r6, r7, r8, r9, fp, sp, pc}
    8b80:	e1a02008 	mov	r2, r8
    8b84:	e1a01006 	mov	r1, r6
    8b88:	e59f0020 	ldr	r0, [pc, #32]	; 8bb0 <sweep_leak+0x104>
    8b8c:	eb000118 	bl	8ff4 <printk>
    8b90:	eafffff4 	b	8b68 <sweep_leak+0xbc>
    8b94:	0000a818 	andeq	sl, r0, r8, lsl r8
    8b98:	0000a854 	andeq	sl, r0, r4, asr r8
    8b9c:	0000a86c 	andeq	sl, r0, ip, ror #16
    8ba0:	0000a880 	andeq	sl, r0, r0, lsl #17
    8ba4:	0000a898 	muleq	r0, r8, r8
    8ba8:	0000a8b8 			; <UNDEFINED> instruction: 0x0000a8b8
    8bac:	0000a910 	andeq	sl, r0, r0, lsl r9
    8bb0:	0000a8e0 	andeq	sl, r0, r0, ror #17
    8bb4:	65657773 	strbvs	r7, [r5, #-1907]!	; 0xfffff88d
    8bb8:	72665f70 	rsbvc	r5, r6, #112, 30	; 0x1c0
    8bbc:	00006565 	andeq	r6, r0, r5, ror #10
    8bc0:	ff00000c 			; <UNDEFINED> instruction: 0xff00000c

00008bc4 <sweep_free>:
    8bc4:	e1a0c00d 	mov	ip, sp
    8bc8:	e92dd9f0 	push	{r4, r5, r6, r7, r8, fp, ip, lr, pc}
    8bcc:	e24cb004 	sub	fp, ip, #4, 0
    8bd0:	e24dd014 	sub	sp, sp, #20, 0
    8bd4:	e59f00bc 	ldr	r0, [pc, #188]	; 8c98 <sweep_free+0xd4>
    8bd8:	eb000105 	bl	8ff4 <printk>
    8bdc:	e59f00b8 	ldr	r0, [pc, #184]	; 8c9c <sweep_free+0xd8>
    8be0:	eb000103 	bl	8ff4 <printk>
    8be4:	ebffff81 	bl	89f0 <mark_all>
    8be8:	ebfffd84 	bl	8200 <ck_first_hdr>
    8bec:	e1a04000 	mov	r4, r0
    8bf0:	e3a06000 	mov	r6, #0, 0
    8bf4:	e1a07006 	mov	r7, r6
    8bf8:	e1a05006 	mov	r5, r6
    8bfc:	ea000013 	b	8c50 <sweep_free+0x8c>
    8c00:	e2877001 	add	r7, r7, #1, 0
    8c04:	e5943008 	ldr	r3, [r4, #8]
    8c08:	e0866003 	add	r6, r6, r3
    8c0c:	e28480b8 	add	r8, r4, #184, 0	; 0xb8
    8c10:	e59f3088 	ldr	r3, [pc, #136]	; 8ca0 <sweep_free+0xdc>
    8c14:	e50b3030 	str	r3, [fp, #-48]	; 0xffffffd0
    8c18:	e59f3084 	ldr	r3, [pc, #132]	; 8ca4 <sweep_free+0xe0>
    8c1c:	e50b302c 	str	r3, [fp, #-44]	; 0xffffffd4
    8c20:	e59f3080 	ldr	r3, [pc, #128]	; 8ca8 <sweep_free+0xe4>
    8c24:	e50b3028 	str	r3, [fp, #-40]	; 0xffffffd8
    8c28:	e24b3024 	sub	r3, fp, #36, 0	; 0x24
    8c2c:	e913000e 	ldmdb	r3, {r1, r2, r3}
    8c30:	e1a00008 	mov	r0, r8
    8c34:	ebfffdcd 	bl	8370 <ckfree>
    8c38:	e1a01008 	mov	r1, r8
    8c3c:	e59f0068 	ldr	r0, [pc, #104]	; 8cac <sweep_free+0xe8>
    8c40:	eb0000eb 	bl	8ff4 <printk>
    8c44:	e1a00004 	mov	r0, r4
    8c48:	ebfffd77 	bl	822c <ck_next_hdr>
    8c4c:	e1a04000 	mov	r4, r0
    8c50:	e3540000 	cmp	r4, #0, 0
    8c54:	0a000007 	beq	8c78 <sweep_free+0xb4>
    8c58:	e2855001 	add	r5, r5, #1, 0
    8c5c:	e1d433b4 	ldrh	r3, [r4, #52]	; 0x34
    8c60:	e3530000 	cmp	r3, #0, 0
    8c64:	1afffff6 	bne	8c44 <sweep_free+0x80>
    8c68:	e594300c 	ldr	r3, [r4, #12]
    8c6c:	e353000b 	cmp	r3, #11, 0
    8c70:	1afffff3 	bne	8c44 <sweep_free+0x80>
    8c74:	eaffffe1 	b	8c00 <sweep_free+0x3c>
    8c78:	e1a03006 	mov	r3, r6
    8c7c:	e1a02007 	mov	r2, r7
    8c80:	e1a01005 	mov	r1, r5
    8c84:	e59f0024 	ldr	r0, [pc, #36]	; 8cb0 <sweep_free+0xec>
    8c88:	eb0000d9 	bl	8ff4 <printk>
    8c8c:	e1a00006 	mov	r0, r6
    8c90:	e24bd020 	sub	sp, fp, #32, 0
    8c94:	e89da9f0 	ldm	sp, {r4, r5, r6, r7, r8, fp, sp, pc}
    8c98:	0000a818 	andeq	sl, r0, r8, lsl r8
    8c9c:	0000a94c 	andeq	sl, r0, ip, asr #18
    8ca0:	0000a7cc 	andeq	sl, r0, ip, asr #15
    8ca4:	0000aaa0 	andeq	sl, r0, r0, lsr #21
    8ca8:	00000105 	andeq	r0, r0, r5, lsl #2
    8cac:	0000a95c 	andeq	sl, r0, ip, asr r9
    8cb0:	0000a96c 	andeq	sl, r0, ip, ror #18
    8cb4:	6b726273 	blvs	1ca1688 <__bss_end__+0x1c963c0>
    8cb8:	00000000 	andeq	r0, r0, r0
    8cbc:	ff000008 			; <UNDEFINED> instruction: 0xff000008

00008cc0 <sbrk>:
    8cc0:	e1a0c00d 	mov	ip, sp
    8cc4:	e92dd830 	push	{r4, r5, fp, ip, lr, pc}
    8cc8:	e24cb004 	sub	fp, ip, #4, 0
    8ccc:	e24dd008 	sub	sp, sp, #8, 0
    8cd0:	e2504000 	subs	r4, r0, #0, 0
    8cd4:	da000010 	ble	8d1c <sbrk+0x5c>
    8cd8:	e59f3074 	ldr	r3, [pc, #116]	; 8d54 <sbrk+0x94>
    8cdc:	e5933008 	ldr	r3, [r3, #8]
    8ce0:	e3530000 	cmp	r3, #0, 0
    8ce4:	1a000014 	bne	8d3c <sbrk+0x7c>
    8ce8:	e59f5064 	ldr	r5, [pc, #100]	; 8d54 <sbrk+0x94>
    8cec:	e3a00601 	mov	r0, #1048576	; 0x100000
    8cf0:	e5850000 	str	r0, [r5]
    8cf4:	e3a03602 	mov	r3, #2097152	; 0x200000
    8cf8:	e5853004 	str	r3, [r5, #4]
    8cfc:	e1a01000 	mov	r1, r0
    8d00:	eb000494 	bl	9f58 <kmalloc_init_set_start>
    8d04:	e3a03001 	mov	r3, #1, 0
    8d08:	e5853008 	str	r3, [r5, #8]
    8d0c:	e1a00004 	mov	r0, r4
    8d10:	eb0004f3 	bl	a0e4 <kmalloc>
    8d14:	e24bd014 	sub	sp, fp, #20, 0
    8d18:	e89da830 	ldm	sp, {r4, r5, fp, sp, pc}
    8d1c:	e59f3034 	ldr	r3, [pc, #52]	; 8d58 <sbrk+0x98>
    8d20:	e58d3000 	str	r3, [sp]
    8d24:	e3a03017 	mov	r3, #23, 0
    8d28:	e59f202c 	ldr	r2, [pc, #44]	; 8d5c <sbrk+0x9c>
    8d2c:	e59f102c 	ldr	r1, [pc, #44]	; 8d60 <sbrk+0xa0>
    8d30:	e59f002c 	ldr	r0, [pc, #44]	; 8d64 <sbrk+0xa4>
    8d34:	eb0000ae 	bl	8ff4 <printk>
    8d38:	eb00033e 	bl	9a38 <clean_reboot>
    8d3c:	e3a03019 	mov	r3, #25, 0
    8d40:	e59f2014 	ldr	r2, [pc, #20]	; 8d5c <sbrk+0x9c>
    8d44:	e59f1014 	ldr	r1, [pc, #20]	; 8d60 <sbrk+0xa0>
    8d48:	e59f0018 	ldr	r0, [pc, #24]	; 8d68 <sbrk+0xa8>
    8d4c:	eb0000a8 	bl	8ff4 <printk>
    8d50:	eb000338 	bl	9a38 <clean_reboot>
    8d54:	0000aeb0 			; <UNDEFINED> instruction: 0x0000aeb0
    8d58:	0000a9a0 	andeq	sl, r0, r0, lsr #19
    8d5c:	0000aaac 	andeq	sl, r0, ip, lsr #21
    8d60:	0000a7cc 	andeq	sl, r0, ip, asr #15
    8d64:	0000a59c 	muleq	r0, ip, r5
    8d68:	0000a9b0 			; <UNDEFINED> instruction: 0x0000a9b0
    8d6c:	665f6b63 	ldrbvs	r6, [pc], -r3, ror #22
    8d70:	5f646e69 	svcpl	0x00646e69
    8d74:	6b61656c 	blvs	186232c <__bss_end__+0x1857064>
    8d78:	00000073 	andeq	r0, r0, r3, ror r0
    8d7c:	ff000010 			; <UNDEFINED> instruction: 0xff000010

00008d80 <ck_find_leaks>:
    8d80:	e1a0c00d 	mov	ip, sp
    8d84:	e92dd800 	push	{fp, ip, lr, pc}
    8d88:	e24cb004 	sub	fp, ip, #4, 0
    8d8c:	ebffff46 	bl	8aac <sweep_leak>
    8d90:	e89da800 	ldm	sp, {fp, sp, pc}
    8d94:	63656863 	cmnvs	r5, #6488064	; 0x630000
    8d98:	6f6e5f6b 	svcvs	0x006e5f6b
    8d9c:	61656c5f 	cmnvs	r5, pc, asr ip
    8da0:	0000006b 	andeq	r0, r0, fp, rrx
    8da4:	ff000010 			; <UNDEFINED> instruction: 0xff000010

00008da8 <check_no_leak>:
    8da8:	e1a0c00d 	mov	ip, sp
    8dac:	e92dd800 	push	{fp, ip, lr, pc}
    8db0:	e24cb004 	sub	fp, ip, #4, 0
    8db4:	e3a00001 	mov	r0, #1, 0
    8db8:	ebfffff0 	bl	8d80 <ck_find_leaks>
    8dbc:	e3500000 	cmp	r0, #0, 0
    8dc0:	1a000002 	bne	8dd0 <check_no_leak+0x28>
    8dc4:	e59f001c 	ldr	r0, [pc, #28]	; 8de8 <check_no_leak+0x40>
    8dc8:	eb000089 	bl	8ff4 <printk>
    8dcc:	e89da800 	ldm	sp, {fp, sp, pc}
    8dd0:	e3a030e0 	mov	r3, #224, 0	; 0xe0
    8dd4:	e59f2010 	ldr	r2, [pc, #16]	; 8dec <check_no_leak+0x44>
    8dd8:	e59f1010 	ldr	r1, [pc, #16]	; 8df0 <check_no_leak+0x48>
    8ddc:	e59f0010 	ldr	r0, [pc, #16]	; 8df4 <check_no_leak+0x4c>
    8de0:	eb000083 	bl	8ff4 <printk>
    8de4:	eb000313 	bl	9a38 <clean_reboot>
    8de8:	0000a9fc 	strdeq	sl, [r0], -ip
    8dec:	0000aab4 			; <UNDEFINED> instruction: 0x0000aab4
    8df0:	0000a7cc 	andeq	sl, r0, ip, asr #15
    8df4:	0000a9d0 	ldrdeq	sl, [r0], -r0
    8df8:	63656863 	cmnvs	r5, #6488064	; 0x630000
    8dfc:	68735f6b 	ldmdavs	r3!, {r0, r1, r3, r5, r6, r8, r9, sl, fp, ip, lr}^
    8e00:	646c756f 	strbtvs	r7, [ip], #-1391	; 0xfffffa91
    8e04:	61656c5f 	cmnvs	r5, pc, asr ip
    8e08:	0000006b 	andeq	r0, r0, fp, rrx
    8e0c:	ff000014 			; <UNDEFINED> instruction: 0xff000014

00008e10 <check_should_leak>:
    8e10:	e1a0c00d 	mov	ip, sp
    8e14:	e92dd830 	push	{r4, r5, fp, ip, lr, pc}
    8e18:	e24cb004 	sub	fp, ip, #4, 0
    8e1c:	e3a00001 	mov	r0, #1, 0
    8e20:	ebffffd6 	bl	8d80 <ck_find_leaks>
    8e24:	e2504000 	subs	r4, r0, #0, 0
    8e28:	0a000004 	beq	8e40 <check_should_leak+0x30>
    8e2c:	e1a01004 	mov	r1, r4
    8e30:	e59f0020 	ldr	r0, [pc, #32]	; 8e58 <check_should_leak+0x48>
    8e34:	eb00006e 	bl	8ff4 <printk>
    8e38:	e1a00004 	mov	r0, r4
    8e3c:	e89da830 	ldm	sp, {r4, r5, fp, sp, pc}
    8e40:	e3a030ef 	mov	r3, #239, 0	; 0xef
    8e44:	e59f2010 	ldr	r2, [pc, #16]	; 8e5c <check_should_leak+0x4c>
    8e48:	e59f1010 	ldr	r1, [pc, #16]	; 8e60 <check_should_leak+0x50>
    8e4c:	e59f0010 	ldr	r0, [pc, #16]	; 8e64 <check_should_leak+0x54>
    8e50:	eb000067 	bl	8ff4 <printk>
    8e54:	eb0002f7 	bl	9a38 <clean_reboot>
    8e58:	0000aa44 	andeq	sl, r0, r4, asr #20
    8e5c:	0000aac4 	andeq	sl, r0, r4, asr #21
    8e60:	0000a7cc 	andeq	sl, r0, ip, asr #15
    8e64:	0000aa1c 	andeq	sl, r0, ip, lsl sl
    8e68:	675f6b63 	ldrbvs	r6, [pc, -r3, ror #22]
    8e6c:	00000063 	andeq	r0, r0, r3, rrx
    8e70:	ff000008 			; <UNDEFINED> instruction: 0xff000008

00008e74 <ck_gc>:
    8e74:	e1a0c00d 	mov	ip, sp
    8e78:	e92dd800 	push	{fp, ip, lr, pc}
    8e7c:	e24cb004 	sub	fp, ip, #4, 0
    8e80:	ebfffeda 	bl	89f0 <mark_all>
    8e84:	ebffff4e 	bl	8bc4 <sweep_free>
    8e88:	e89da800 	ldm	sp, {fp, sp, pc}
    8e8c:	6c706d69 	ldclvs	13, cr6, [r0], #-420	; 0xfffffe5c
    8e90:	6e656d65 	cdpvs	13, 6, cr6, cr5, cr5, {3}
    8e94:	68745f74 	ldmdavs	r4!, {r2, r4, r5, r6, r8, r9, sl, fp, ip, lr}^
    8e98:	00007369 	andeq	r7, r0, r9, ror #6
    8e9c:	ff000010 			; <UNDEFINED> instruction: 0xff000010

00008ea0 <implement_this>:
    8ea0:	e1a0c00d 	mov	ip, sp
    8ea4:	e92dd800 	push	{fp, ip, lr, pc}
    8ea8:	e24cb004 	sub	fp, ip, #4, 0
    8eac:	e59f3010 	ldr	r3, [pc, #16]	; 8ec4 <implement_this+0x24>
    8eb0:	e59f2010 	ldr	r2, [pc, #16]	; 8ec8 <implement_this+0x28>
    8eb4:	e59f1010 	ldr	r1, [pc, #16]	; 8ecc <implement_this+0x2c>
    8eb8:	e59f0010 	ldr	r0, [pc, #16]	; 8ed0 <implement_this+0x30>
    8ebc:	eb00004c 	bl	8ff4 <printk>
    8ec0:	eb0002dc 	bl	9a38 <clean_reboot>
    8ec4:	0000011b 	andeq	r0, r0, fp, lsl r1
    8ec8:	0000aad8 	ldrdeq	sl, [r0], -r8
    8ecc:	0000a7cc 	andeq	sl, r0, ip, asr #15
    8ed0:	0000aa68 	andeq	sl, r0, r8, ror #20

00008ed4 <dump_regs>:
    8ed4:	e8a0ffff 	stmia	r0!, {r0, r1, r2, r3, r4, r5, r6, r7, r8, r9, sl, fp, ip, sp, lr, pc}
    8ed8:	e12fff1e 	bx	lr

00008edc <backtrace>:
    8edc:	e92d41f0 	push	{r4, r5, r6, r7, r8, lr}
    8ee0:	e1a0400b 	mov	r4, fp
    8ee4:	e3540000 	cmp	r4, #0, 0
    8ee8:	0a000016 	beq	8f48 <backtrace+0x6c>
    8eec:	e3a07000 	mov	r7, #0, 0
    8ef0:	e59f605c 	ldr	r6, [pc, #92]	; 8f54 <backtrace+0x78>
    8ef4:	e59f505c 	ldr	r5, [pc, #92]	; 8f58 <backtrace+0x7c>
    8ef8:	ea000002 	b	8f08 <backtrace+0x2c>
    8efc:	e2877001 	add	r7, r7, #1, 0
    8f00:	e3570020 	cmp	r7, #32, 0
    8f04:	0a00000f 	beq	8f48 <backtrace+0x6c>
    8f08:	e5940000 	ldr	r0, [r4]
    8f0c:	e1a01007 	mov	r1, r7
    8f10:	e5103010 	ldr	r3, [r0, #-16]
    8f14:	e240200c 	sub	r2, r0, #12, 0
    8f18:	e31304ff 	tst	r3, #-16777216	; 0xff000000
    8f1c:	e2400010 	sub	r0, r0, #16, 0
    8f20:	e3c334ff 	bic	r3, r3, #-16777216	; 0xff000000
    8f24:	10403003 	subne	r3, r0, r3
    8f28:	01a03006 	moveq	r3, r6
    8f2c:	e1a00005 	mov	r0, r5
    8f30:	eb00002f 	bl	8ff4 <printk>
    8f34:	e514400c 	ldr	r4, [r4, #-12]
    8f38:	e3540000 	cmp	r4, #0, 0
    8f3c:	1affffee 	bne	8efc <backtrace+0x20>
    8f40:	e1a00007 	mov	r0, r7
    8f44:	e8bd81f0 	pop	{r4, r5, r6, r7, r8, pc}
    8f48:	e3e07000 	mvn	r7, #0, 0
    8f4c:	e1a00007 	mov	r0, r7
    8f50:	e8bd81f0 	pop	{r4, r5, r6, r7, r8, pc}
    8f54:	0000aae8 	andeq	sl, r0, r8, ror #21
    8f58:	0000aaec 	andeq	sl, r0, ip, ror #21

00008f5c <name_of>:
    8f5c:	e5103004 	ldr	r3, [r0, #-4]
    8f60:	e2400004 	sub	r0, r0, #4, 0
    8f64:	e31304ff 	tst	r3, #-16777216	; 0xff000000
    8f68:	13c334ff 	bicne	r3, r3, #-16777216	; 0xff000000
    8f6c:	10400003 	subne	r0, r0, r3
    8f70:	059f0000 	ldreq	r0, [pc]	; 8f78 <name_of+0x1c>
    8f74:	e12fff1e 	bx	lr
    8f78:	0000aae8 	andeq	sl, r0, r8, ror #21

00008f7c <memset>:
    8f7c:	e92d4010 	push	{r4, lr}
    8f80:	e0804002 	add	r4, r0, r2
    8f84:	e1500004 	cmp	r0, r4
    8f88:	28bd8010 	popcs	{r4, pc}
    8f8c:	e2423001 	sub	r3, r2, #1, 0
    8f90:	e3530002 	cmp	r3, #2, 0
    8f94:	e6ef1071 	uxtb	r1, r1
    8f98:	e1a03000 	mov	r3, r0
    8f9c:	9a00000b 	bls	8fd0 <memset+0x54>
    8fa0:	e181e401 	orr	lr, r1, r1, lsl #8
    8fa4:	e18ee801 	orr	lr, lr, r1, lsl #16
    8fa8:	e3c2c003 	bic	ip, r2, #3, 0
    8fac:	e18eec01 	orr	lr, lr, r1, lsl #24
    8fb0:	e08cc000 	add	ip, ip, r0
    8fb4:	e483e004 	str	lr, [r3], #4
    8fb8:	e153000c 	cmp	r3, ip
    8fbc:	1afffffc 	bne	8fb4 <memset+0x38>
    8fc0:	e3c23003 	bic	r3, r2, #3, 0
    8fc4:	e1520003 	cmp	r2, r3
    8fc8:	e0803003 	add	r3, r0, r3
    8fcc:	08bd8010 	popeq	{r4, pc}
    8fd0:	e1a02003 	mov	r2, r3
    8fd4:	e4c21001 	strb	r1, [r2], #1
    8fd8:	e1540002 	cmp	r4, r2
    8fdc:	98bd8010 	popls	{r4, pc}
    8fe0:	e2832002 	add	r2, r3, #2, 0
    8fe4:	e1540002 	cmp	r4, r2
    8fe8:	e5c31001 	strb	r1, [r3, #1]
    8fec:	85c31002 	strbhi	r1, [r3, #2]
    8ff0:	e8bd8010 	pop	{r4, pc}

00008ff4 <printk>:
    8ff4:	e92d000f 	push	{r0, r1, r2, r3}
    8ff8:	e92d4030 	push	{r4, r5, lr}
    8ffc:	e59f5040 	ldr	r5, [pc, #64]	; 9044 <printk+0x50>
    9000:	e24dd00c 	sub	sp, sp, #12, 0
    9004:	e28d301c 	add	r3, sp, #28, 0
    9008:	e3a01b01 	mov	r1, #1024	; 0x400
    900c:	e59d2018 	ldr	r2, [sp, #24]
    9010:	e1a00005 	mov	r0, r5
    9014:	e58d3004 	str	r3, [sp, #4]
    9018:	eb0000fb 	bl	940c <va_printk>
    901c:	e1a04000 	mov	r4, r0
    9020:	e59f3020 	ldr	r3, [pc, #32]	; 9048 <printk+0x54>
    9024:	e1a00005 	mov	r0, r5
    9028:	e5933000 	ldr	r3, [r3]
    902c:	e12fff33 	blx	r3
    9030:	e1a00004 	mov	r0, r4
    9034:	e28dd00c 	add	sp, sp, #12, 0
    9038:	e8bd4030 	pop	{r4, r5, lr}
    903c:	e28dd010 	add	sp, sp, #16, 0
    9040:	e12fff1e 	bx	lr
    9044:	0000aebc 			; <UNDEFINED> instruction: 0x0000aebc
    9048:	0000ae84 	andeq	sl, r0, r4, lsl #29

0000904c <internal_putk>:
    904c:	e92d4070 	push	{r4, r5, r6, lr}
    9050:	e1a04000 	mov	r4, r0
    9054:	e5d00000 	ldrb	r0, [r0]
    9058:	e3500000 	cmp	r0, #0, 0
    905c:	0a000005 	beq	9078 <internal_putk+0x2c>
    9060:	e59f5018 	ldr	r5, [pc, #24]	; 9080 <internal_putk+0x34>
    9064:	e5953000 	ldr	r3, [r5]
    9068:	e12fff33 	blx	r3
    906c:	e5f40001 	ldrb	r0, [r4, #1]!
    9070:	e3500000 	cmp	r0, #0, 0
    9074:	1afffffa 	bne	9064 <internal_putk+0x18>
    9078:	e3a00001 	mov	r0, #1, 0
    907c:	e8bd8070 	pop	{r4, r5, r6, pc}
    9080:	0000ae94 	muleq	r0, r4, lr

00009084 <emit.constprop.0>:
    9084:	e92d41f0 	push	{r4, r5, r6, r7, r8, lr}
    9088:	e3530080 	cmp	r3, #128, 0	; 0x80
    908c:	e1a0c000 	mov	ip, r0
    9090:	e24dd048 	sub	sp, sp, #72, 0	; 0x48
    9094:	e1a00001 	mov	r0, r1
    9098:	ca000069 	bgt	9244 <emit.constprop.0+0x1c0>
    909c:	e24c1002 	sub	r1, ip, #2, 0
    90a0:	e1a0c002 	mov	ip, r2
    90a4:	e351000e 	cmp	r1, #14, 0
    90a8:	979ff101 	ldrls	pc, [pc, r1, lsl #2]
    90ac:	ea0000a7 	b	9350 <emit.constprop.0+0x2cc>
    90b0:	0000921c 	andeq	r9, r0, ip, lsl r2
    90b4:	00009350 	andeq	r9, r0, r0, asr r3
    90b8:	00009350 	andeq	r9, r0, r0, asr r3
    90bc:	00009350 	andeq	r9, r0, r0, asr r3
    90c0:	00009350 	andeq	r9, r0, r0, asr r3
    90c4:	00009350 	andeq	r9, r0, r0, asr r3
    90c8:	000092f8 	strdeq	r9, [r0], -r8
    90cc:	00009350 	andeq	r9, r0, r0, asr r3
    90d0:	00009298 	muleq	r0, r8, r2
    90d4:	00009350 	andeq	r9, r0, r0, asr r3
    90d8:	00009350 	andeq	r9, r0, r0, asr r3
    90dc:	00009350 	andeq	r9, r0, r0, asr r3
    90e0:	00009350 	andeq	r9, r0, r0, asr r3
    90e4:	00009350 	andeq	r9, r0, r0, asr r3
    90e8:	000090f0 	strdeq	r9, [r0], -r0
    90ec:	e3a0307f 	mov	r3, #127, 0	; 0x7f
    90f0:	e28d2008 	add	r2, sp, #8, 0
    90f4:	e1a04002 	mov	r4, r2
    90f8:	e59f1288 	ldr	r1, [pc, #648]	; 9388 <emit.constprop.0+0x304>
    90fc:	e20ce00f 	and	lr, ip, #15, 0
    9100:	e7d1e00e 	ldrb	lr, [r1, lr]
    9104:	e35c000f 	cmp	ip, #15, 0
    9108:	e4c4e001 	strb	lr, [r4], #1
    910c:	e1a0c22c 	lsr	ip, ip, #4
    9110:	8afffff9 	bhi	90fc <emit.constprop.0+0x78>
    9114:	e3a0c078 	mov	ip, #120, 0	; 0x78
    9118:	e1a0e004 	mov	lr, r4
    911c:	e3a01030 	mov	r1, #48, 0	; 0x30
    9120:	e4cec002 	strb	ip, [lr], #2
    9124:	e5c41001 	strb	r1, [r4, #1]
    9128:	e04e1002 	sub	r1, lr, r2
    912c:	e1510003 	cmp	r1, r3
    9130:	aa000083 	bge	9344 <emit.constprop.0+0x2c0>
    9134:	e1510003 	cmp	r1, r3
    9138:	a3a0c001 	movge	ip, #1, 0
    913c:	b3a0c000 	movlt	ip, #0, 0
    9140:	e2434001 	sub	r4, r3, #1, 0
    9144:	e0444001 	sub	r4, r4, r1
    9148:	b0436001 	sublt	r6, r3, r1
    914c:	a3a06001 	movge	r6, #1, 0
    9150:	e3540002 	cmp	r4, #2, 0
    9154:	938cc001 	orrls	ip, ip, #1, 0
    9158:	e35c0000 	cmp	ip, #0, 0
    915c:	1a000075 	bne	9338 <emit.constprop.0+0x2b4>
    9160:	e1a0c00e 	mov	ip, lr
    9164:	e3c65003 	bic	r5, r6, #3, 0
    9168:	e59f721c 	ldr	r7, [pc, #540]	; 938c <emit.constprop.0+0x308>
    916c:	e085500e 	add	r5, r5, lr
    9170:	e48c7004 	str	r7, [ip], #4
    9174:	e15c0005 	cmp	ip, r5
    9178:	1afffffc 	bne	9170 <emit.constprop.0+0xec>
    917c:	e3c6c003 	bic	ip, r6, #3, 0
    9180:	e156000c 	cmp	r6, ip
    9184:	e08e500c 	add	r5, lr, ip
    9188:	e08cc001 	add	ip, ip, r1
    918c:	0a000008 	beq	91b4 <emit.constprop.0+0x130>
    9190:	e3a07020 	mov	r7, #32, 0
    9194:	e28c8001 	add	r8, ip, #1, 0
    9198:	e1580003 	cmp	r8, r3
    919c:	e5c57000 	strb	r7, [r5]
    91a0:	aa000003 	bge	91b4 <emit.constprop.0+0x130>
    91a4:	e28cc002 	add	ip, ip, #2, 0
    91a8:	e15c0003 	cmp	ip, r3
    91ac:	e5c57001 	strb	r7, [r5, #1]
    91b0:	b5c57002 	strblt	r7, [r5, #2]
    91b4:	e1510003 	cmp	r1, r3
    91b8:	a3a04000 	movge	r4, #0, 0
    91bc:	e08e6006 	add	r6, lr, r6
    91c0:	e0461002 	sub	r1, r6, r2
    91c4:	e08ee004 	add	lr, lr, r4
    91c8:	e3a03000 	mov	r3, #0, 0
    91cc:	e351007f 	cmp	r1, #127, 0	; 0x7f
    91d0:	c241407f 	subgt	r4, r1, #127, 0	; 0x7f
    91d4:	c0822004 	addgt	r2, r2, r4
    91d8:	e152000e 	cmp	r2, lr
    91dc:	e5c63000 	strb	r3, [r6]
    91e0:	8a00004f 	bhi	9324 <emit.constprop.0+0x2a0>
    91e4:	e28ee001 	add	lr, lr, #1, 0
    91e8:	e1a0300e 	mov	r3, lr
    91ec:	e240c001 	sub	ip, r0, #1, 0
    91f0:	e5734001 	ldrb	r4, [r3, #-1]!
    91f4:	e1530002 	cmp	r3, r2
    91f8:	e5ec4001 	strb	r4, [ip, #1]!
    91fc:	1afffffb 	bne	91f0 <emit.constprop.0+0x16c>
    9200:	e04ee003 	sub	lr, lr, r3
    9204:	e3a03000 	mov	r3, #0, 0
    9208:	e080e00e 	add	lr, r0, lr
    920c:	e5ce3000 	strb	r3, [lr]
    9210:	e28dd048 	add	sp, sp, #72, 0	; 0x48
    9214:	e8bd81f0 	pop	{r4, r5, r6, r7, r8, pc}
    9218:	e3a0307f 	mov	r3, #127, 0	; 0x7f
    921c:	e28d2008 	add	r2, sp, #8, 0
    9220:	e1a0e002 	mov	lr, r2
    9224:	e59f1164 	ldr	r1, [pc, #356]	; 9390 <emit.constprop.0+0x30c>
    9228:	e20c4001 	and	r4, ip, #1, 0
    922c:	e7d14004 	ldrb	r4, [r1, r4]
    9230:	e35c0001 	cmp	ip, #1, 0
    9234:	e4ce4001 	strb	r4, [lr], #1
    9238:	e1a0c0ac 	lsr	ip, ip, #1
    923c:	8afffff9 	bhi	9228 <emit.constprop.0+0x1a4>
    9240:	eaffffb8 	b	9128 <emit.constprop.0+0xa4>
    9244:	e24c3002 	sub	r3, ip, #2, 0
    9248:	e1a0c002 	mov	ip, r2
    924c:	e353000e 	cmp	r3, #14, 0
    9250:	979ff103 	ldrls	pc, [pc, r3, lsl #2]
    9254:	ea00003d 	b	9350 <emit.constprop.0+0x2cc>
    9258:	00009218 	andeq	r9, r0, r8, lsl r2
    925c:	00009350 	andeq	r9, r0, r0, asr r3
    9260:	00009350 	andeq	r9, r0, r0, asr r3
    9264:	00009350 	andeq	r9, r0, r0, asr r3
    9268:	00009350 	andeq	r9, r0, r0, asr r3
    926c:	00009350 	andeq	r9, r0, r0, asr r3
    9270:	00009370 	andeq	r9, r0, r0, ror r3
    9274:	00009350 	andeq	r9, r0, r0, asr r3
    9278:	00009294 	muleq	r0, r4, r2
    927c:	00009350 	andeq	r9, r0, r0, asr r3
    9280:	00009350 	andeq	r9, r0, r0, asr r3
    9284:	00009350 	andeq	r9, r0, r0, asr r3
    9288:	00009350 	andeq	r9, r0, r0, asr r3
    928c:	00009350 	andeq	r9, r0, r0, asr r3
    9290:	000090ec 	andeq	r9, r0, ip, ror #1
    9294:	e3a0307f 	mov	r3, #127, 0	; 0x7f
    9298:	e59d1060 	ldr	r1, [sp, #96]	; 0x60
    929c:	e59f70f0 	ldr	r7, [pc, #240]	; 9394 <emit.constprop.0+0x310>
    92a0:	e0118fa2 	ands	r8, r1, r2, lsr #31
    92a4:	1262c000 	rsbne	ip, r2, #0, 0
    92a8:	e28d2008 	add	r2, sp, #8, 0
    92ac:	13a08001 	movne	r8, #1, 0
    92b0:	e1a0e002 	mov	lr, r2
    92b4:	e59f60dc 	ldr	r6, [pc, #220]	; 9398 <emit.constprop.0+0x314>
    92b8:	e1a0500c 	mov	r5, ip
    92bc:	e0814c96 	umull	r4, r1, r6, ip
    92c0:	e1a011a1 	lsr	r1, r1, #3
    92c4:	e0814101 	add	r4, r1, r1, lsl #2
    92c8:	e04cc084 	sub	ip, ip, r4, lsl #1
    92cc:	e7d7400c 	ldrb	r4, [r7, ip]
    92d0:	e3550009 	cmp	r5, #9, 0
    92d4:	e1a0c001 	mov	ip, r1
    92d8:	e1a0100e 	mov	r1, lr
    92dc:	e4ce4001 	strb	r4, [lr], #1
    92e0:	8afffff4 	bhi	92b8 <emit.constprop.0+0x234>
    92e4:	e3580000 	cmp	r8, #0, 0
    92e8:	13a0c02d 	movne	ip, #45, 0	; 0x2d
    92ec:	15cec000 	strbne	ip, [lr]
    92f0:	1281e002 	addne	lr, r1, #2, 0
    92f4:	eaffff8b 	b	9128 <emit.constprop.0+0xa4>
    92f8:	e3530001 	cmp	r3, #1, 0
    92fc:	e5cd2008 	strb	r2, [sp, #8]
    9300:	c3a01001 	movgt	r1, #1, 0
    9304:	c28de009 	addgt	lr, sp, #9, 0
    9308:	c28d2008 	addgt	r2, sp, #8, 0
    930c:	caffff88 	bgt	9134 <emit.constprop.0+0xb0>
    9310:	e3a03000 	mov	r3, #0, 0
    9314:	e28de008 	add	lr, sp, #8, 0
    9318:	e1a0200e 	mov	r2, lr
    931c:	e5cd3009 	strb	r3, [sp, #9]
    9320:	eaffffaf 	b	91e4 <emit.constprop.0+0x160>
    9324:	e1a0e000 	mov	lr, r0
    9328:	e3a03000 	mov	r3, #0, 0
    932c:	e5ce3000 	strb	r3, [lr]
    9330:	e28dd048 	add	sp, sp, #72, 0	; 0x48
    9334:	e8bd81f0 	pop	{r4, r5, r6, r7, r8, pc}
    9338:	e1a0c001 	mov	ip, r1
    933c:	e1a0500e 	mov	r5, lr
    9340:	eaffff92 	b	9190 <emit.constprop.0+0x10c>
    9344:	e1a0600e 	mov	r6, lr
    9348:	e24ee001 	sub	lr, lr, #1, 0
    934c:	eaffff9d 	b	91c8 <emit.constprop.0+0x144>
    9350:	e59f2044 	ldr	r2, [pc, #68]	; 939c <emit.constprop.0+0x318>
    9354:	e3a03079 	mov	r3, #121, 0	; 0x79
    9358:	e59f1040 	ldr	r1, [pc, #64]	; 93a0 <emit.constprop.0+0x31c>
    935c:	e58d2000 	str	r2, [sp]
    9360:	e59f003c 	ldr	r0, [pc, #60]	; 93a4 <emit.constprop.0+0x320>
    9364:	e59f203c 	ldr	r2, [pc, #60]	; 93a8 <emit.constprop.0+0x324>
    9368:	ebffff21 	bl	8ff4 <printk>
    936c:	eb0001b1 	bl	9a38 <clean_reboot>
    9370:	e5cd2008 	strb	r2, [sp, #8]
    9374:	e3a0307f 	mov	r3, #127, 0	; 0x7f
    9378:	e3a01001 	mov	r1, #1, 0
    937c:	e28de009 	add	lr, sp, #9, 0
    9380:	e28d2008 	add	r2, sp, #8, 0
    9384:	eaffff6a 	b	9134 <emit.constprop.0+0xb0>
    9388:	0000ab10 	andeq	sl, r0, r0, lsl fp
    938c:	20202020 	eorcs	r2, r0, r0, lsr #32
    9390:	0000ab24 	andeq	sl, r0, r4, lsr #22
    9394:	0000ab28 	andeq	sl, r0, r8, lsr #22
    9398:	cccccccd 	stclgt	12, cr12, [ip], {205}	; 0xcd
    939c:	0000a9ac 	andeq	sl, r0, ip, lsr #19
    93a0:	0000aafc 	strdeq	sl, [r0], -ip
    93a4:	0000a59c 	muleq	r0, ip, r5
    93a8:	0000ac3c 	andeq	sl, r0, ip, lsr ip

000093ac <rpi_set_output>:
    93ac:	e3500000 	cmp	r0, #0, 0
    93b0:	0a000005 	beq	93cc <rpi_set_output+0x20>
    93b4:	e59f3038 	ldr	r3, [pc, #56]	; 93f4 <rpi_set_output+0x48>
    93b8:	e3510000 	cmp	r1, #0, 0
    93bc:	e5830000 	str	r0, [r3]
    93c0:	159f3030 	ldrne	r3, [pc, #48]	; 93f8 <rpi_set_output+0x4c>
    93c4:	15831000 	strne	r1, [r3]
    93c8:	e12fff1e 	bx	lr
    93cc:	e52de004 	push	{lr}		; (str lr, [sp, #-4]!)
    93d0:	e59f2024 	ldr	r2, [pc, #36]	; 93fc <rpi_set_output+0x50>
    93d4:	e24dd00c 	sub	sp, sp, #12, 0
    93d8:	e3a03020 	mov	r3, #32, 0
    93dc:	e59f101c 	ldr	r1, [pc, #28]	; 9400 <rpi_set_output+0x54>
    93e0:	e58d2000 	str	r2, [sp]
    93e4:	e59f0018 	ldr	r0, [pc, #24]	; 9404 <rpi_set_output+0x58>
    93e8:	e59f2018 	ldr	r2, [pc, #24]	; 9408 <rpi_set_output+0x5c>
    93ec:	ebffff00 	bl	8ff4 <printk>
    93f0:	eb000190 	bl	9a38 <clean_reboot>
    93f4:	0000ae94 	muleq	r0, r4, lr
    93f8:	0000ae84 	andeq	sl, r0, r4, lsl #29
    93fc:	0000ab34 	andeq	sl, r0, r4, lsr fp
    9400:	0000aafc 	strdeq	sl, [r0], -ip
    9404:	0000a59c 	muleq	r0, ip, r5
    9408:	0000ac44 	andeq	sl, r0, r4, asr #24

0000940c <va_printk>:
    940c:	e92d4ff0 	push	{r4, r5, r6, r7, r8, r9, sl, fp, lr}
    9410:	e1a0b000 	mov	fp, r0
    9414:	e3a00000 	mov	r0, #0, 0
    9418:	e5cb0000 	strb	r0, [fp]
    941c:	e5d2c000 	ldrb	ip, [r2]
    9420:	e2417001 	sub	r7, r1, #1, 0
    9424:	e08b7007 	add	r7, fp, r7
    9428:	e15c0000 	cmp	ip, r0
    942c:	115b0007 	cmpne	fp, r7
    9430:	e24ddf47 	sub	sp, sp, #284	; 0x11c
    9434:	e58d2010 	str	r2, [sp, #16]
    9438:	2a000159 	bcs	99a4 <va_printk+0x598>
    943c:	e1a06002 	mov	r6, r2
    9440:	e1a08003 	mov	r8, r3
    9444:	e1a0400b 	mov	r4, fp
    9448:	e59fa5a4 	ldr	sl, [pc, #1444]	; 99f4 <va_printk+0x5e8>
    944c:	e58db00c 	str	fp, [sp, #12]
    9450:	ea000005 	b	946c <va_printk+0x60>
    9454:	e4c4c001 	strb	ip, [r4], #1
    9458:	e2866001 	add	r6, r6, #1, 0
    945c:	e5d6c000 	ldrb	ip, [r6]
    9460:	e35c0000 	cmp	ip, #0, 0
    9464:	11570004 	cmpne	r7, r4
    9468:	9a00002f 	bls	952c <va_printk+0x120>
    946c:	e35c0025 	cmp	ip, #37, 0	; 0x25
    9470:	1afffff7 	bne	9454 <va_printk+0x48>
    9474:	e5d62001 	ldrb	r2, [r6, #1]
    9478:	e3520025 	cmp	r2, #37, 0	; 0x25
    947c:	04c4c001 	strbeq	ip, [r4], #1
    9480:	02866002 	addeq	r6, r6, #2, 0
    9484:	0afffff4 	beq	945c <va_printk+0x50>
    9488:	e2423030 	sub	r3, r2, #48, 0	; 0x30
    948c:	e3530009 	cmp	r3, #9, 0
    9490:	e3a05000 	mov	r5, #0, 0
    9494:	e2866001 	add	r6, r6, #1, 0
    9498:	8a000008 	bhi	94c0 <va_printk+0xb4>
    949c:	e0855105 	add	r5, r5, r5, lsl #2
    94a0:	e0825085 	add	r5, r2, r5, lsl #1
    94a4:	e5f62001 	ldrb	r2, [r6, #1]!
    94a8:	e2455030 	sub	r5, r5, #48, 0	; 0x30
    94ac:	e2423030 	sub	r3, r2, #48, 0	; 0x30
    94b0:	e3530009 	cmp	r3, #9, 0
    94b4:	9afffff8 	bls	949c <va_printk+0x90>
    94b8:	e355001f 	cmp	r5, #31, 0
    94bc:	8a00013a 	bhi	99ac <va_printk+0x5a0>
    94c0:	e2423062 	sub	r3, r2, #98, 0	; 0x62
    94c4:	e3530016 	cmp	r3, #22, 0
    94c8:	979ff103 	ldrls	pc, [pc, r3, lsl #2]
    94cc:	ea00011b 	b	9940 <va_printk+0x534>
    94d0:	00009784 	andeq	r9, r0, r4, lsl #15
    94d4:	00009680 	andeq	r9, r0, r0, lsl #13
    94d8:	00009678 	andeq	r9, r0, r8, ror r6
    94dc:	00009940 	andeq	r9, r0, r0, asr #18
    94e0:	0000997c 	andeq	r9, r0, ip, ror r9
    94e4:	00009940 	andeq	r9, r0, r0, asr #18
    94e8:	00009940 	andeq	r9, r0, r0, asr #18
    94ec:	00009940 	andeq	r9, r0, r0, asr #18
    94f0:	00009940 	andeq	r9, r0, r0, asr #18
    94f4:	00009940 	andeq	r9, r0, r0, asr #18
    94f8:	00009588 	andeq	r9, r0, r8, lsl #11
    94fc:	00009940 	andeq	r9, r0, r0, asr #18
    9500:	00009940 	andeq	r9, r0, r0, asr #18
    9504:	00009940 	andeq	r9, r0, r0, asr #18
    9508:	00009544 	andeq	r9, r0, r4, asr #10
    950c:	00009940 	andeq	r9, r0, r0, asr #18
    9510:	00009940 	andeq	r9, r0, r0, asr #18
    9514:	0000987c 	andeq	r9, r0, ip, ror r8
    9518:	00009940 	andeq	r9, r0, r0, asr #18
    951c:	00009654 	andeq	r9, r0, r4, asr r6
    9520:	00009940 	andeq	r9, r0, r0, asr #18
    9524:	00009940 	andeq	r9, r0, r0, asr #18
    9528:	00009544 	andeq	r9, r0, r4, asr #10
    952c:	e59db00c 	ldr	fp, [sp, #12]
    9530:	e3a03000 	mov	r3, #0, 0
    9534:	e4c43001 	strb	r3, [r4], #1
    9538:	e044000b 	sub	r0, r4, fp
    953c:	e28ddf47 	add	sp, sp, #284	; 0x11c
    9540:	e8bd8ff0 	pop	{r4, r5, r6, r7, r8, r9, sl, fp, pc}
    9544:	e3a01000 	mov	r1, #0, 0
    9548:	e1a03005 	mov	r3, r5
    954c:	e4982004 	ldr	r2, [r8], #4
    9550:	e3a00010 	mov	r0, #16, 0
    9554:	e58d1000 	str	r1, [sp]
    9558:	e28d1018 	add	r1, sp, #24, 0
    955c:	ebfffec8 	bl	9084 <emit.constprop.0>
    9560:	e1a05000 	mov	r5, r0
    9564:	e2866001 	add	r6, r6, #1, 0
    9568:	e2455001 	sub	r5, r5, #1, 0
    956c:	e5f53001 	ldrb	r3, [r5, #1]!
    9570:	e3530000 	cmp	r3, #0, 0
    9574:	0affffb8 	beq	945c <va_printk+0x50>
    9578:	e4c43001 	strb	r3, [r4], #1
    957c:	e1570004 	cmp	r7, r4
    9580:	8afffff9 	bhi	956c <va_printk+0x160>
    9584:	eaffffb4 	b	945c <va_printk+0x50>
    9588:	e3a02003 	mov	r2, #3, 0
    958c:	e1a00006 	mov	r0, r6
    9590:	e59f1460 	ldr	r1, [pc, #1120]	; 99f8 <va_printk+0x5ec>
    9594:	eb0003e6 	bl	a534 <strncmp>
    9598:	e3500000 	cmp	r0, #0, 0
    959c:	0a000005 	beq	95b8 <va_printk+0x1ac>
    95a0:	e3a02003 	mov	r2, #3, 0
    95a4:	e1a00006 	mov	r0, r6
    95a8:	e59f144c 	ldr	r1, [pc, #1100]	; 99fc <va_printk+0x5f0>
    95ac:	eb0003e0 	bl	a534 <strncmp>
    95b0:	e3500000 	cmp	r0, #0, 0
    95b4:	1a00010b 	bne	99e8 <va_printk+0x5dc>
    95b8:	e2888007 	add	r8, r8, #7, 0
    95bc:	e3c88007 	bic	r8, r8, #7, 0
    95c0:	e598b004 	ldr	fp, [r8, #4]
    95c4:	e4989008 	ldr	r9, [r8], #8
    95c8:	e1a0100b 	mov	r1, fp
    95cc:	e59f042c 	ldr	r0, [pc, #1068]	; 9a00 <va_printk+0x5f4>
    95d0:	ebfffe87 	bl	8ff4 <printk>
    95d4:	e1a01009 	mov	r1, r9
    95d8:	e59f0424 	ldr	r0, [pc, #1060]	; 9a04 <va_printk+0x5f8>
    95dc:	ebfffe84 	bl	8ff4 <printk>
    95e0:	e3a02003 	mov	r2, #3, 0
    95e4:	e1a00006 	mov	r0, r6
    95e8:	e59f1408 	ldr	r1, [pc, #1032]	; 99f8 <va_printk+0x5ec>
    95ec:	eb0003d0 	bl	a534 <strncmp>
    95f0:	e2503000 	subs	r3, r0, #0, 0
    95f4:	e1a02003 	mov	r2, r3
    95f8:	e2863002 	add	r3, r6, #2, 0
    95fc:	e58d3014 	str	r3, [sp, #20]
    9600:	1a00009f 	bne	9884 <va_printk+0x478>
    9604:	e1a06002 	mov	r6, r2
    9608:	e1a03005 	mov	r3, r5
    960c:	e58d2000 	str	r2, [sp]
    9610:	e28d1018 	add	r1, sp, #24, 0
    9614:	e1a0200b 	mov	r2, fp
    9618:	e3a00010 	mov	r0, #16, 0
    961c:	ebfffe98 	bl	9084 <emit.constprop.0>
    9620:	e1a0c000 	mov	ip, r0
    9624:	e1a03005 	mov	r3, r5
    9628:	e58d6000 	str	r6, [sp]
    962c:	e28d1098 	add	r1, sp, #152, 0	; 0x98
    9630:	e1a02009 	mov	r2, r9
    9634:	e3a00010 	mov	r0, #16, 0
    9638:	e1a0500c 	mov	r5, ip
    963c:	ebfffe90 	bl	9084 <emit.constprop.0>
    9640:	e28d0018 	add	r0, sp, #24, 0
    9644:	e28d109a 	add	r1, sp, #154, 0	; 0x9a
    9648:	e59d6014 	ldr	r6, [sp, #20]
    964c:	eb000396 	bl	a4ac <strcat>
    9650:	eaffffc3 	b	9564 <va_printk+0x158>
    9654:	e3a01000 	mov	r1, #0, 0
    9658:	e1a03005 	mov	r3, r5
    965c:	e4982004 	ldr	r2, [r8], #4
    9660:	e3a0000a 	mov	r0, #10, 0
    9664:	e58d1000 	str	r1, [sp]
    9668:	e28d1018 	add	r1, sp, #24, 0
    966c:	ebfffe84 	bl	9084 <emit.constprop.0>
    9670:	e1a05000 	mov	r5, r0
    9674:	eaffffba 	b	9564 <va_printk+0x158>
    9678:	e3a01001 	mov	r1, #1, 0
    967c:	eafffff5 	b	9658 <va_printk+0x24c>
    9680:	e4983004 	ldr	r3, [r8], #4
    9684:	e3550001 	cmp	r5, #1, 0
    9688:	e5cd3098 	strb	r3, [sp, #152]	; 0x98
    968c:	9a0000a6 	bls	992c <va_printk+0x520>
    9690:	e2453002 	sub	r3, r5, #2, 0
    9694:	e3530002 	cmp	r3, #2, 0
    9698:	e2451001 	sub	r1, r5, #1, 0
    969c:	9a0000bc 	bls	9994 <va_printk+0x588>
    96a0:	e59f0360 	ldr	r0, [pc, #864]	; 9a08 <va_printk+0x5fc>
    96a4:	e1a02121 	lsr	r2, r1, #2
    96a8:	e3520001 	cmp	r2, #1, 0
    96ac:	e58d0099 	str	r0, [sp, #153]	; 0x99
    96b0:	0a00000e 	beq	96f0 <va_printk+0x2e4>
    96b4:	e3520002 	cmp	r2, #2, 0
    96b8:	e58d009d 	str	r0, [sp, #157]	; 0x9d
    96bc:	0a00000b 	beq	96f0 <va_printk+0x2e4>
    96c0:	e3520003 	cmp	r2, #3, 0
    96c4:	e58d00a1 	str	r0, [sp, #161]	; 0xa1
    96c8:	0a000008 	beq	96f0 <va_printk+0x2e4>
    96cc:	e3520004 	cmp	r2, #4, 0
    96d0:	e58d00a5 	str	r0, [sp, #165]	; 0xa5
    96d4:	0a000005 	beq	96f0 <va_printk+0x2e4>
    96d8:	e3520005 	cmp	r2, #5, 0
    96dc:	e58d00a9 	str	r0, [sp, #169]	; 0xa9
    96e0:	0a000002 	beq	96f0 <va_printk+0x2e4>
    96e4:	e3520007 	cmp	r2, #7, 0
    96e8:	e58d00ad 	str	r0, [sp, #173]	; 0xad
    96ec:	058d00b1 	streq	r0, [sp, #177]	; 0xb1
    96f0:	e3c12003 	bic	r2, r1, #3, 0
    96f4:	e1510002 	cmp	r1, r2
    96f8:	e28dc099 	add	ip, sp, #153, 0	; 0x99
    96fc:	e08c0002 	add	r0, ip, r2
    9700:	e2822001 	add	r2, r2, #1, 0
    9704:	0a000008 	beq	972c <va_printk+0x320>
    9708:	e3a0e020 	mov	lr, #32, 0
    970c:	e2829001 	add	r9, r2, #1, 0
    9710:	e1550009 	cmp	r5, r9
    9714:	e5c0e000 	strb	lr, [r0]
    9718:	da000003 	ble	972c <va_printk+0x320>
    971c:	e2822002 	add	r2, r2, #2, 0
    9720:	e1550002 	cmp	r5, r2
    9724:	e5c0e001 	strb	lr, [r0, #1]
    9728:	c5c0e002 	strbgt	lr, [r0, #2]
    972c:	e3a0e000 	mov	lr, #0, 0
    9730:	e28d0098 	add	r0, sp, #152, 0	; 0x98
    9734:	e08c2001 	add	r2, ip, r1
    9738:	e0422000 	sub	r2, r2, r0
    973c:	e352007f 	cmp	r2, #127, 0	; 0x7f
    9740:	c242207f 	subgt	r2, r2, #127, 0	; 0x7f
    9744:	e08c3003 	add	r3, ip, r3
    9748:	c0800002 	addgt	r0, r0, r2
    974c:	e1530000 	cmp	r3, r0
    9750:	e7cce001 	strb	lr, [ip, r1]
    9754:	3a00006c 	bcc	990c <va_printk+0x500>
    9758:	e283c001 	add	ip, r3, #1, 0
    975c:	e1a0300c 	mov	r3, ip
    9760:	e28d5018 	add	r5, sp, #24, 0
    9764:	e2452001 	sub	r2, r5, #1, 0
    9768:	e5731001 	ldrb	r1, [r3, #-1]!
    976c:	e1500003 	cmp	r0, r3
    9770:	e5e21001 	strb	r1, [r2, #1]!
    9774:	1afffffb 	bne	9768 <va_printk+0x35c>
    9778:	e04c3000 	sub	r3, ip, r0
    977c:	e0853003 	add	r3, r5, r3
    9780:	ea00003a 	b	9870 <va_printk+0x464>
    9784:	e28d1098 	add	r1, sp, #152, 0	; 0x98
    9788:	e1a03001 	mov	r3, r1
    978c:	e4980004 	ldr	r0, [r8], #4
    9790:	e200c001 	and	ip, r0, #1, 0
    9794:	e7dac00c 	ldrb	ip, [sl, ip]
    9798:	e3500001 	cmp	r0, #1, 0
    979c:	e1a02003 	mov	r2, r3
    97a0:	e1a000a0 	lsr	r0, r0, #1
    97a4:	e4c3c001 	strb	ip, [r3], #1
    97a8:	8afffff8 	bhi	9790 <va_printk+0x384>
    97ac:	e0430001 	sub	r0, r3, r1
    97b0:	e1550000 	cmp	r5, r0
    97b4:	da000057 	ble	9918 <va_printk+0x50c>
    97b8:	e045c000 	sub	ip, r5, r0
    97bc:	e24ce001 	sub	lr, ip, #1, 0
    97c0:	e35e0002 	cmp	lr, #2, 0
    97c4:	e1a0e003 	mov	lr, r3
    97c8:	9a00000a 	bls	97f8 <va_printk+0x3ec>
    97cc:	e3cc9003 	bic	r9, ip, #3, 0
    97d0:	e0899003 	add	r9, r9, r3
    97d4:	e59fb22c 	ldr	fp, [pc, #556]	; 9a08 <va_printk+0x5fc>
    97d8:	e48eb004 	str	fp, [lr], #4
    97dc:	e15e0009 	cmp	lr, r9
    97e0:	1afffffb 	bne	97d4 <va_printk+0x3c8>
    97e4:	e3cce003 	bic	lr, ip, #3, 0
    97e8:	e15e000c 	cmp	lr, ip
    97ec:	e080000e 	add	r0, r0, lr
    97f0:	e083e00e 	add	lr, r3, lr
    97f4:	0a000008 	beq	981c <va_printk+0x410>
    97f8:	e3a09020 	mov	r9, #32, 0
    97fc:	e280b001 	add	fp, r0, #1, 0
    9800:	e155000b 	cmp	r5, fp
    9804:	e5ce9000 	strb	r9, [lr]
    9808:	da000003 	ble	981c <va_printk+0x410>
    980c:	e2800002 	add	r0, r0, #2, 0
    9810:	e1550000 	cmp	r5, r0
    9814:	e5ce9001 	strb	r9, [lr, #1]
    9818:	c5ce9002 	strbgt	r9, [lr, #2]
    981c:	e3a0e000 	mov	lr, #0, 0
    9820:	e083000c 	add	r0, r3, ip
    9824:	e0400001 	sub	r0, r0, r1
    9828:	e350007f 	cmp	r0, #127, 0	; 0x7f
    982c:	e082200c 	add	r2, r2, ip
    9830:	e7c3e00c 	strb	lr, [r3, ip]
    9834:	da000001 	ble	9840 <va_printk+0x434>
    9838:	e240007f 	sub	r0, r0, #127, 0	; 0x7f
    983c:	e0811000 	add	r1, r1, r0
    9840:	e1510002 	cmp	r1, r2
    9844:	8a000030 	bhi	990c <va_printk+0x500>
    9848:	e2822001 	add	r2, r2, #1, 0
    984c:	e1a03002 	mov	r3, r2
    9850:	e28d5018 	add	r5, sp, #24, 0
    9854:	e245c001 	sub	ip, r5, #1, 0
    9858:	e5730001 	ldrb	r0, [r3, #-1]!
    985c:	e1530001 	cmp	r3, r1
    9860:	e5ec0001 	strb	r0, [ip, #1]!
    9864:	1afffffb 	bne	9858 <va_printk+0x44c>
    9868:	e0423003 	sub	r3, r2, r3
    986c:	e0853003 	add	r3, r5, r3
    9870:	e3a02000 	mov	r2, #0, 0
    9874:	e5c32000 	strb	r2, [r3]
    9878:	eaffff39 	b	9564 <va_printk+0x158>
    987c:	e4985004 	ldr	r5, [r8], #4
    9880:	eaffff37 	b	9564 <va_printk+0x158>
    9884:	e3a02003 	mov	r2, #3, 0
    9888:	e1a00006 	mov	r0, r6
    988c:	e59f1168 	ldr	r1, [pc, #360]	; 99fc <va_printk+0x5f0>
    9890:	eb000327 	bl	a534 <strncmp>
    9894:	e2503000 	subs	r3, r0, #0, 0
    9898:	1a00004b 	bne	99cc <va_printk+0x5c0>
    989c:	e1a06003 	mov	r6, r3
    98a0:	e1a0200b 	mov	r2, fp
    98a4:	e58d3000 	str	r3, [sp]
    98a8:	e28d1018 	add	r1, sp, #24, 0
    98ac:	e1a03005 	mov	r3, r5
    98b0:	e3a0000a 	mov	r0, #10, 0
    98b4:	ebfffdf2 	bl	9084 <emit.constprop.0>
    98b8:	e1a0c000 	mov	ip, r0
    98bc:	e1a03005 	mov	r3, r5
    98c0:	e1a02009 	mov	r2, r9
    98c4:	e28d1098 	add	r1, sp, #152, 0	; 0x98
    98c8:	e3a0000a 	mov	r0, #10, 0
    98cc:	e58d6000 	str	r6, [sp]
    98d0:	e1a0500c 	mov	r5, ip
    98d4:	ebfffdea 	bl	9084 <emit.constprop.0>
    98d8:	e59f112c 	ldr	r1, [pc, #300]	; 9a0c <va_printk+0x600>
    98dc:	e28d0018 	add	r0, sp, #24, 0
    98e0:	eb0002fc 	bl	a4d8 <strcmp>
    98e4:	e3500000 	cmp	r0, #0, 0
    98e8:	e28d1098 	add	r1, sp, #152, 0	; 0x98
    98ec:	e28d0018 	add	r0, sp, #24, 0
    98f0:	1a000002 	bne	9900 <va_printk+0x4f4>
    98f4:	eb000308 	bl	a51c <strcpy>
    98f8:	e59d6014 	ldr	r6, [sp, #20]
    98fc:	eaffff18 	b	9564 <va_printk+0x158>
    9900:	eb0002e9 	bl	a4ac <strcat>
    9904:	e59d6014 	ldr	r6, [sp, #20]
    9908:	eaffff15 	b	9564 <va_printk+0x158>
    990c:	e28d5018 	add	r5, sp, #24, 0
    9910:	e1a03005 	mov	r3, r5
    9914:	eaffffd5 	b	9870 <va_printk+0x464>
    9918:	e3a0c000 	mov	ip, #0, 0
    991c:	e350007f 	cmp	r0, #127, 0	; 0x7f
    9920:	e5c3c000 	strb	ip, [r3]
    9924:	caffffc3 	bgt	9838 <va_printk+0x42c>
    9928:	eaffffc6 	b	9848 <va_printk+0x43c>
    992c:	e3a02000 	mov	r2, #0, 0
    9930:	e28d3098 	add	r3, sp, #152, 0	; 0x98
    9934:	e1a00003 	mov	r0, r3
    9938:	e5cd2099 	strb	r2, [sp, #153]	; 0x99
    993c:	eaffff85 	b	9758 <va_printk+0x34c>
    9940:	e3a03000 	mov	r3, #0, 0
    9944:	e1a01002 	mov	r1, r2
    9948:	e5c63001 	strb	r3, [r6, #1]
    994c:	e59f00bc 	ldr	r0, [pc, #188]	; 9a10 <va_printk+0x604>
    9950:	ebfffda7 	bl	8ff4 <printk>
    9954:	e59f30b8 	ldr	r3, [pc, #184]	; 9a14 <va_printk+0x608>
    9958:	e59d0010 	ldr	r0, [sp, #16]
    995c:	e5933000 	ldr	r3, [r3]
    9960:	e12fff33 	blx	r3
    9964:	e3a030e2 	mov	r3, #226, 0	; 0xe2
    9968:	e59f20a8 	ldr	r2, [pc, #168]	; 9a18 <va_printk+0x60c>
    996c:	e59f10a8 	ldr	r1, [pc, #168]	; 9a1c <va_printk+0x610>
    9970:	e59f00a8 	ldr	r0, [pc, #168]	; 9a20 <va_printk+0x614>
    9974:	ebfffd9e 	bl	8ff4 <printk>
    9978:	eb00002e 	bl	9a38 <clean_reboot>
    997c:	e3a030be 	mov	r3, #190, 0	; 0xbe
    9980:	e59f2090 	ldr	r2, [pc, #144]	; 9a18 <va_printk+0x60c>
    9984:	e59f1090 	ldr	r1, [pc, #144]	; 9a1c <va_printk+0x610>
    9988:	e59f0094 	ldr	r0, [pc, #148]	; 9a24 <va_printk+0x618>
    998c:	ebfffd98 	bl	8ff4 <printk>
    9990:	eb000028 	bl	9a38 <clean_reboot>
    9994:	e28dc099 	add	ip, sp, #153, 0	; 0x99
    9998:	e1a0000c 	mov	r0, ip
    999c:	e3a02001 	mov	r2, #1, 0
    99a0:	eaffff58 	b	9708 <va_printk+0x2fc>
    99a4:	e1a0400b 	mov	r4, fp
    99a8:	eafffee0 	b	9530 <va_printk+0x124>
    99ac:	e3a03098 	mov	r3, #152, 0	; 0x98
    99b0:	e59f2070 	ldr	r2, [pc, #112]	; 9a28 <va_printk+0x61c>
    99b4:	e59f1060 	ldr	r1, [pc, #96]	; 9a1c <va_printk+0x610>
    99b8:	e58d2000 	str	r2, [sp]
    99bc:	e59f0068 	ldr	r0, [pc, #104]	; 9a2c <va_printk+0x620>
    99c0:	e59f2050 	ldr	r2, [pc, #80]	; 9a18 <va_printk+0x60c>
    99c4:	ebfffd8a 	bl	8ff4 <printk>
    99c8:	eb00001a 	bl	9a38 <clean_reboot>
    99cc:	e3a030b6 	mov	r3, #182, 0	; 0xb6
    99d0:	e59f2040 	ldr	r2, [pc, #64]	; 9a18 <va_printk+0x60c>
    99d4:	e59f1040 	ldr	r1, [pc, #64]	; 9a1c <va_printk+0x610>
    99d8:	e59f0050 	ldr	r0, [pc, #80]	; 9a30 <va_printk+0x624>
    99dc:	e58d6000 	str	r6, [sp]
    99e0:	ebfffd83 	bl	8ff4 <printk>
    99e4:	eb000013 	bl	9a38 <clean_reboot>
    99e8:	e3a0309f 	mov	r3, #159, 0	; 0x9f
    99ec:	e59f2040 	ldr	r2, [pc, #64]	; 9a34 <va_printk+0x628>
    99f0:	eaffffef 	b	99b4 <va_printk+0x5a8>
    99f4:	0000ab24 	andeq	sl, r0, r4, lsr #22
    99f8:	0000ab48 	andeq	sl, r0, r8, asr #22
    99fc:	0000ab5c 	andeq	sl, r0, ip, asr fp
    9a00:	0000ab4c 	andeq	sl, r0, ip, asr #22
    9a04:	0000ab54 	andeq	sl, r0, r4, asr fp
    9a08:	20202020 	eorcs	r2, r0, r0, lsr #32
    9a0c:	0000a9ac 	andeq	sl, r0, ip, lsr #19
    9a10:	0000abec 	andeq	sl, r0, ip, ror #23
    9a14:	0000ae84 	andeq	sl, r0, r4, lsl #29
    9a18:	0000ac54 	andeq	sl, r0, r4, asr ip
    9a1c:	0000aafc 	strdeq	sl, [r0], -ip
    9a20:	0000ac1c 	andeq	sl, r0, ip, lsl ip
    9a24:	0000abc4 	andeq	sl, r0, r4, asr #23
    9a28:	0000ab3c 	andeq	sl, r0, ip, lsr fp
    9a2c:	0000a59c 	muleq	r0, ip, r5
    9a30:	0000ab9c 	muleq	r0, ip, fp
    9a34:	0000ab60 	andeq	sl, r0, r0, ror #22

00009a38 <clean_reboot>:
    9a38:	e59f301c 	ldr	r3, [pc, #28]	; 9a5c <clean_reboot+0x24>
    9a3c:	e92d4010 	push	{r4, lr}
    9a40:	e5933000 	ldr	r3, [r3]
    9a44:	e59f0014 	ldr	r0, [pc, #20]	; 9a60 <clean_reboot+0x28>
    9a48:	e12fff33 	blx	r3
    9a4c:	eb000127 	bl	9ef0 <uart_flush_tx>
    9a50:	e3a0000a 	mov	r0, #10, 0
    9a54:	eb00008e 	bl	9c94 <delay_ms>
    9a58:	eb000057 	bl	9bbc <rpi_reboot>
    9a5c:	0000ae84 	andeq	sl, r0, r4, lsl #29
    9a60:	0000ac60 	andeq	sl, r0, r0, ror #24

00009a64 <_cstart>:
    9a64:	e92d4070 	push	{r4, r5, r6, lr}
    9a68:	eb000047 	bl	9b8c <custom_loader>
    9a6c:	e59f2108 	ldr	r2, [pc, #264]	; 9b7c <_cstart+0x118>
    9a70:	e59fc108 	ldr	ip, [pc, #264]	; 9b80 <_cstart+0x11c>
    9a74:	e152000c 	cmp	r2, ip
    9a78:	2a00002e 	bcs	9b38 <_cstart+0xd4>
    9a7c:	e24c1001 	sub	r1, ip, #1, 0
    9a80:	e0411002 	sub	r1, r1, r2
    9a84:	e3510017 	cmp	r1, #23, 0
    9a88:	e1a03122 	lsr	r3, r2, #2
    9a8c:	e1a01121 	lsr	r1, r1, #2
    9a90:	e2811001 	add	r1, r1, #1, 0
    9a94:	e2033001 	and	r3, r3, #1, 0
    9a98:	9a000035 	bls	9b74 <_cstart+0x110>
    9a9c:	e3530000 	cmp	r3, #0, 0
    9aa0:	11a00002 	movne	r0, r2
    9aa4:	13a0e000 	movne	lr, #0, 0
    9aa8:	e3a04000 	mov	r4, #0, 0
    9aac:	e3a05000 	mov	r5, #0, 0
    9ab0:	e0411003 	sub	r1, r1, r3
    9ab4:	01a00002 	moveq	r0, r2
    9ab8:	e0823103 	add	r3, r2, r3, lsl #2
    9abc:	e1a020a1 	lsr	r2, r1, #1
    9ac0:	1480e004 	strne	lr, [r0], #4
    9ac4:	e0832182 	add	r2, r3, r2, lsl #3
    9ac8:	e0c340f8 	strd	r4, [r3], #8
    9acc:	e1520003 	cmp	r2, r3
    9ad0:	1afffffc 	bne	9ac8 <_cstart+0x64>
    9ad4:	e3c13001 	bic	r3, r1, #1, 0
    9ad8:	e1510003 	cmp	r1, r3
    9adc:	e0803103 	add	r3, r0, r3, lsl #2
    9ae0:	0a000014 	beq	9b38 <_cstart+0xd4>
    9ae4:	e1a01003 	mov	r1, r3
    9ae8:	e3a02000 	mov	r2, #0, 0
    9aec:	e4812004 	str	r2, [r1], #4
    9af0:	e151000c 	cmp	r1, ip
    9af4:	2a00000f 	bcs	9b38 <_cstart+0xd4>
    9af8:	e2831008 	add	r1, r3, #8, 0
    9afc:	e151000c 	cmp	r1, ip
    9b00:	e5832004 	str	r2, [r3, #4]
    9b04:	2a00000b 	bcs	9b38 <_cstart+0xd4>
    9b08:	e283100c 	add	r1, r3, #12, 0
    9b0c:	e151000c 	cmp	r1, ip
    9b10:	e5832008 	str	r2, [r3, #8]
    9b14:	2a000007 	bcs	9b38 <_cstart+0xd4>
    9b18:	e2831010 	add	r1, r3, #16, 0
    9b1c:	e151000c 	cmp	r1, ip
    9b20:	e583200c 	str	r2, [r3, #12]
    9b24:	2a000003 	bcs	9b38 <_cstart+0xd4>
    9b28:	e2831014 	add	r1, r3, #20, 0
    9b2c:	e151000c 	cmp	r1, ip
    9b30:	e5832010 	str	r2, [r3, #16]
    9b34:	35832014 	strcc	r2, [r3, #20]
    9b38:	eb00008e 	bl	9d78 <uart_init>
    9b3c:	e3a03001 	mov	r3, #1, 0
    9b40:	ee0f3f1c 	mcr	15, 0, r3, cr15, cr12, {0}
    9b44:	ee1f3f3c 	mrc	15, 0, r3, cr15, cr12, {1}
    9b48:	e59f4034 	ldr	r4, [pc, #52]	; 9b84 <_cstart+0x120>
    9b4c:	e5843000 	str	r3, [r4]
    9b50:	ebfff97e 	bl	8150 <notmain>
    9b54:	ee1f3f3c 	mrc	15, 0, r3, cr15, cr12, {1}
    9b58:	e5941000 	ldr	r1, [r4]
    9b5c:	e59f0024 	ldr	r0, [pc, #36]	; 9b88 <_cstart+0x124>
    9b60:	e3510000 	cmp	r1, #0, 0
    9b64:	10431001 	subne	r1, r3, r1
    9b68:	e5843000 	str	r3, [r4]
    9b6c:	ebfffd20 	bl	8ff4 <printk>
    9b70:	ebffffb0 	bl	9a38 <clean_reboot>
    9b74:	e1a03002 	mov	r3, r2
    9b78:	eaffffd9 	b	9ae4 <_cstart+0x80>
    9b7c:	0000ae98 	muleq	r0, r8, lr
    9b80:	0000b2c8 	andeq	fp, r0, r8, asr #5
    9b84:	0000b2bc 			; <UNDEFINED> instruction: 0x0000b2bc
    9b88:	0000ac6c 	andeq	sl, r0, ip, ror #24

00009b8c <custom_loader>:
    9b8c:	e12fff1e 	bx	lr

00009b90 <at_user_level>:
    9b90:	e10f0000 	mrs	r0, CPSR
    9b94:	e200001f 	and	r0, r0, #31, 0
    9b98:	e2400010 	sub	r0, r0, #16, 0
    9b9c:	e16f0f10 	clz	r0, r0
    9ba0:	e1a002a0 	lsr	r0, r0, #5
    9ba4:	e12fff1e 	bx	lr

00009ba8 <set_user_level>:
    9ba8:	e10f3000 	mrs	r3, CPSR
    9bac:	e3c3301f 	bic	r3, r3, #31, 0
    9bb0:	e3833010 	orr	r3, r3, #16, 0
    9bb4:	e129f003 	msr	CPSR_fc, r3
    9bb8:	e12fff1e 	bx	lr

00009bbc <rpi_reboot>:
    9bbc:	e92d4010 	push	{r4, lr}
    9bc0:	e10f3000 	mrs	r3, CPSR
    9bc4:	e203301f 	and	r3, r3, #31, 0
    9bc8:	e3530010 	cmp	r3, #16, 0
    9bcc:	1a000003 	bne	9be0 <rpi_reboot+0x24>
    9bd0:	e10f3000 	mrs	r3, CPSR
    9bd4:	e3c3301f 	bic	r3, r3, #31, 0
    9bd8:	e3833010 	orr	r3, r3, #16, 0
    9bdc:	e129f003 	msr	CPSR_fc, r3
    9be0:	eb00025f 	bl	a564 <reboot_callout>
    9be4:	eb0000c1 	bl	9ef0 <uart_flush_tx>
    9be8:	e3a0000a 	mov	r0, #10, 0
    9bec:	eb000028 	bl	9c94 <delay_ms>
    9bf0:	e59f1014 	ldr	r1, [pc, #20]	; 9c0c <rpi_reboot+0x50>
    9bf4:	e59f0014 	ldr	r0, [pc, #20]	; 9c10 <rpi_reboot+0x54>
    9bf8:	ebfff909 	bl	8024 <PUT32>
    9bfc:	e59f1010 	ldr	r1, [pc, #16]	; 9c14 <rpi_reboot+0x58>
    9c00:	e59f0010 	ldr	r0, [pc, #16]	; 9c18 <rpi_reboot+0x5c>
    9c04:	ebfff906 	bl	8024 <PUT32>
    9c08:	eafffffe 	b	9c08 <rpi_reboot+0x4c>
    9c0c:	5a000001 	bpl	9c18 <rpi_reboot+0x5c>
    9c10:	20100024 	andscs	r0, r0, r4, lsr #32
    9c14:	5a000020 	bpl	9c9c <delay_ms+0x8>
    9c18:	2010001c 	andscs	r0, r0, ip, lsl r0

00009c1c <timer_get_usec_raw>:
    9c1c:	e59f0000 	ldr	r0, [pc]	; 9c24 <timer_get_usec_raw+0x8>
    9c20:	eafff901 	b	802c <GET32>
    9c24:	20003004 	andcs	r3, r0, r4

00009c28 <timer_get_usec>:
    9c28:	e92d4010 	push	{r4, lr}
    9c2c:	eb00024d 	bl	a568 <dev_barrier>
    9c30:	e59f0010 	ldr	r0, [pc, #16]	; 9c48 <timer_get_usec+0x20>
    9c34:	ebfff8fc 	bl	802c <GET32>
    9c38:	e1a04000 	mov	r4, r0
    9c3c:	eb000249 	bl	a568 <dev_barrier>
    9c40:	e1a00004 	mov	r0, r4
    9c44:	e8bd8010 	pop	{r4, pc}
    9c48:	20003004 	andcs	r3, r0, r4

00009c4c <delay_us>:
    9c4c:	e92d41f0 	push	{r4, r5, r6, r7, r8, lr}
    9c50:	e1a06000 	mov	r6, r0
    9c54:	eb000243 	bl	a568 <dev_barrier>
    9c58:	e59f0030 	ldr	r0, [pc, #48]	; 9c90 <delay_us+0x44>
    9c5c:	ebfff8f2 	bl	802c <GET32>
    9c60:	e1a05000 	mov	r5, r0
    9c64:	eb00023f 	bl	a568 <dev_barrier>
    9c68:	e59f7020 	ldr	r7, [pc, #32]	; 9c90 <delay_us+0x44>
    9c6c:	eb00023d 	bl	a568 <dev_barrier>
    9c70:	e1a00007 	mov	r0, r7
    9c74:	ebfff8ec 	bl	802c <GET32>
    9c78:	e1a04000 	mov	r4, r0
    9c7c:	e0444005 	sub	r4, r4, r5
    9c80:	eb000238 	bl	a568 <dev_barrier>
    9c84:	e1540006 	cmp	r4, r6
    9c88:	3afffff7 	bcc	9c6c <delay_us+0x20>
    9c8c:	e8bd81f0 	pop	{r4, r5, r6, r7, r8, pc}
    9c90:	20003004 	andcs	r3, r0, r4

00009c94 <delay_ms>:
    9c94:	e92d41f0 	push	{r4, r5, r6, r7, r8, lr}
    9c98:	e0604280 	rsb	r4, r0, r0, lsl #5
    9c9c:	e0800104 	add	r0, r0, r4, lsl #2
    9ca0:	e1a04180 	lsl	r4, r0, #3
    9ca4:	eb00022f 	bl	a568 <dev_barrier>
    9ca8:	e59f0030 	ldr	r0, [pc, #48]	; 9ce0 <delay_ms+0x4c>
    9cac:	ebfff8de 	bl	802c <GET32>
    9cb0:	e1a06000 	mov	r6, r0
    9cb4:	eb00022b 	bl	a568 <dev_barrier>
    9cb8:	e59f7020 	ldr	r7, [pc, #32]	; 9ce0 <delay_ms+0x4c>
    9cbc:	eb000229 	bl	a568 <dev_barrier>
    9cc0:	e1a00007 	mov	r0, r7
    9cc4:	ebfff8d8 	bl	802c <GET32>
    9cc8:	e1a05000 	mov	r5, r0
    9ccc:	e0455006 	sub	r5, r5, r6
    9cd0:	eb000224 	bl	a568 <dev_barrier>
    9cd4:	e1540005 	cmp	r4, r5
    9cd8:	8afffff7 	bhi	9cbc <delay_ms+0x28>
    9cdc:	e8bd81f0 	pop	{r4, r5, r6, r7, r8, pc}
    9ce0:	20003004 	andcs	r3, r0, r4

00009ce4 <delay_sec>:
    9ce4:	e92d41f0 	push	{r4, r5, r6, r7, r8, lr}
    9ce8:	e0604280 	rsb	r4, r0, r0, lsl #5
    9cec:	e0644304 	rsb	r4, r4, r4, lsl #6
    9cf0:	e0800184 	add	r0, r0, r4, lsl #3
    9cf4:	e1a04300 	lsl	r4, r0, #6
    9cf8:	eb00021a 	bl	a568 <dev_barrier>
    9cfc:	e59f0030 	ldr	r0, [pc, #48]	; 9d34 <delay_sec+0x50>
    9d00:	ebfff8c9 	bl	802c <GET32>
    9d04:	e1a06000 	mov	r6, r0
    9d08:	eb000216 	bl	a568 <dev_barrier>
    9d0c:	e59f7020 	ldr	r7, [pc, #32]	; 9d34 <delay_sec+0x50>
    9d10:	eb000214 	bl	a568 <dev_barrier>
    9d14:	e1a00007 	mov	r0, r7
    9d18:	ebfff8c3 	bl	802c <GET32>
    9d1c:	e1a05000 	mov	r5, r0
    9d20:	e0455006 	sub	r5, r5, r6
    9d24:	eb00020f 	bl	a568 <dev_barrier>
    9d28:	e1540005 	cmp	r4, r5
    9d2c:	8afffff7 	bhi	9d10 <delay_sec+0x2c>
    9d30:	e8bd81f0 	pop	{r4, r5, r6, r7, r8, pc}
    9d34:	20003004 	andcs	r3, r0, r4

00009d38 <and_in32>:
    9d38:	e92d4070 	push	{r4, r5, r6, lr}
    9d3c:	e1a04000 	mov	r4, r0
    9d40:	e1a05001 	mov	r5, r1
    9d44:	ebfff8b8 	bl	802c <GET32>
    9d48:	e0001005 	and	r1, r0, r5
    9d4c:	e1a00004 	mov	r0, r4
    9d50:	ebfff8b3 	bl	8024 <PUT32>
    9d54:	e8bd8070 	pop	{r4, r5, r6, pc}

00009d58 <or_in32>:
    9d58:	e92d4070 	push	{r4, r5, r6, lr}
    9d5c:	e1a04000 	mov	r4, r0
    9d60:	e1a05001 	mov	r5, r1
    9d64:	ebfff8b0 	bl	802c <GET32>
    9d68:	e1801005 	orr	r1, r0, r5
    9d6c:	e1a00004 	mov	r0, r4
    9d70:	ebfff8ab 	bl	8024 <PUT32>
    9d74:	e8bd8070 	pop	{r4, r5, r6, pc}

00009d78 <uart_init>:
    9d78:	e92d4010 	push	{r4, lr}
    9d7c:	e3a01002 	mov	r1, #2, 0
    9d80:	e3a0000e 	mov	r0, #14, 0
    9d84:	eb000153 	bl	a2d8 <gpio_set_function>
    9d88:	e3a01002 	mov	r1, #2, 0
    9d8c:	e3a0000f 	mov	r0, #15, 0
    9d90:	eb000150 	bl	a2d8 <gpio_set_function>
    9d94:	eb0001f3 	bl	a568 <dev_barrier>
    9d98:	e3a01001 	mov	r1, #1, 0
    9d9c:	e59f0064 	ldr	r0, [pc, #100]	; 9e08 <uart_init+0x90>
    9da0:	ebffffec 	bl	9d58 <or_in32>
    9da4:	eb0001ef 	bl	a568 <dev_barrier>
    9da8:	e59f405c 	ldr	r4, [pc, #92]	; 9e0c <uart_init+0x94>
    9dac:	e3a01000 	mov	r1, #0, 0
    9db0:	e1a00004 	mov	r0, r4
    9db4:	ebfff89a 	bl	8024 <PUT32>
    9db8:	e3a01000 	mov	r1, #0, 0
    9dbc:	e59f004c 	ldr	r0, [pc, #76]	; 9e10 <uart_init+0x98>
    9dc0:	ebfff897 	bl	8024 <PUT32>
    9dc4:	e3a01003 	mov	r1, #3, 0
    9dc8:	e59f0044 	ldr	r0, [pc, #68]	; 9e14 <uart_init+0x9c>
    9dcc:	ebfff894 	bl	8024 <PUT32>
    9dd0:	e3a01000 	mov	r1, #0, 0
    9dd4:	e59f003c 	ldr	r0, [pc, #60]	; 9e18 <uart_init+0xa0>
    9dd8:	ebfff891 	bl	8024 <PUT32>
    9ddc:	e3a010c7 	mov	r1, #199, 0	; 0xc7
    9de0:	e59f0034 	ldr	r0, [pc, #52]	; 9e1c <uart_init+0xa4>
    9de4:	ebfff88e 	bl	8024 <PUT32>
    9de8:	e59f1030 	ldr	r1, [pc, #48]	; 9e20 <uart_init+0xa8>
    9dec:	e59f0030 	ldr	r0, [pc, #48]	; 9e24 <uart_init+0xac>
    9df0:	ebfff88b 	bl	8024 <PUT32>
    9df4:	e3a01003 	mov	r1, #3, 0
    9df8:	e1a00004 	mov	r0, r4
    9dfc:	ebfff888 	bl	8024 <PUT32>
    9e00:	eb0001d8 	bl	a568 <dev_barrier>
    9e04:	e8bd8010 	pop	{r4, pc}
    9e08:	20215004 	eorcs	r5, r1, r4
    9e0c:	20215060 	eorcs	r5, r1, r0, rrx
    9e10:	20215044 	eorcs	r5, r1, r4, asr #32
    9e14:	2021504c 	eorcs	r5, r1, ip, asr #32
    9e18:	20215050 	eorcs	r5, r1, r0, asr r0
    9e1c:	20215048 	eorcs	r5, r1, r8, asr #32
    9e20:	0000010e 	andeq	r0, r0, lr, lsl #2
    9e24:	20215068 	eorcs	r5, r1, r8, rrx

00009e28 <uart_can_getc>:
    9e28:	e92d4010 	push	{r4, lr}
    9e2c:	e59f0008 	ldr	r0, [pc, #8]	; 9e3c <uart_can_getc+0x14>
    9e30:	ebfff87d 	bl	802c <GET32>
    9e34:	e2000001 	and	r0, r0, #1, 0
    9e38:	e8bd8010 	pop	{r4, pc}
    9e3c:	20215064 	eorcs	r5, r1, r4, rrx

00009e40 <uart_can_putc>:
    9e40:	e92d4010 	push	{r4, lr}
    9e44:	e59f0010 	ldr	r0, [pc, #16]	; 9e5c <uart_can_putc+0x1c>
    9e48:	ebfff877 	bl	802c <GET32>
    9e4c:	e3100002 	tst	r0, #2, 0
    9e50:	13a00001 	movne	r0, #1, 0
    9e54:	03a00000 	moveq	r0, #0, 0
    9e58:	e8bd8010 	pop	{r4, pc}
    9e5c:	20215064 	eorcs	r5, r1, r4, rrx

00009e60 <uart_getc>:
    9e60:	e92d4010 	push	{r4, lr}
    9e64:	eb0001bf 	bl	a568 <dev_barrier>
    9e68:	ebffffee 	bl	9e28 <uart_can_getc>
    9e6c:	e3500000 	cmp	r0, #0, 0
    9e70:	0afffffc 	beq	9e68 <uart_getc+0x8>
    9e74:	e59f0010 	ldr	r0, [pc, #16]	; 9e8c <uart_getc+0x2c>
    9e78:	ebfff86b 	bl	802c <GET32>
    9e7c:	e6ef4070 	uxtb	r4, r0
    9e80:	eb0001b8 	bl	a568 <dev_barrier>
    9e84:	e1a00004 	mov	r0, r4
    9e88:	e8bd8010 	pop	{r4, pc}
    9e8c:	20215040 	eorcs	r5, r1, r0, asr #32

00009e90 <uart_putc>:
    9e90:	e92d4010 	push	{r4, lr}
    9e94:	e1a04000 	mov	r4, r0
    9e98:	eb0001b2 	bl	a568 <dev_barrier>
    9e9c:	ebffffe7 	bl	9e40 <uart_can_putc>
    9ea0:	e3500000 	cmp	r0, #0, 0
    9ea4:	0afffffc 	beq	9e9c <uart_putc+0xc>
    9ea8:	e6ef1074 	uxtb	r1, r4
    9eac:	e59f0008 	ldr	r0, [pc, #8]	; 9ebc <uart_putc+0x2c>
    9eb0:	ebfff85b 	bl	8024 <PUT32>
    9eb4:	eb0001ab 	bl	a568 <dev_barrier>
    9eb8:	e8bd8010 	pop	{r4, pc}
    9ebc:	20215040 	eorcs	r5, r1, r0, asr #32

00009ec0 <uart_has_data>:
    9ec0:	e92d4010 	push	{r4, lr}
    9ec4:	eb0001a7 	bl	a568 <dev_barrier>
    9ec8:	ebffffd6 	bl	9e28 <uart_can_getc>
    9ecc:	e8bd8010 	pop	{r4, pc}

00009ed0 <uart_tx_is_empty>:
    9ed0:	e92d4010 	push	{r4, lr}
    9ed4:	eb0001a3 	bl	a568 <dev_barrier>
    9ed8:	e59f000c 	ldr	r0, [pc, #12]	; 9eec <uart_tx_is_empty+0x1c>
    9edc:	ebfff852 	bl	802c <GET32>
    9ee0:	e1a004a0 	lsr	r0, r0, #9
    9ee4:	e2000001 	and	r0, r0, #1, 0
    9ee8:	e8bd8010 	pop	{r4, pc}
    9eec:	20215064 	eorcs	r5, r1, r4, rrx

00009ef0 <uart_flush_tx>:
    9ef0:	e92d4010 	push	{r4, lr}
    9ef4:	ebfffff5 	bl	9ed0 <uart_tx_is_empty>
    9ef8:	e3500000 	cmp	r0, #0, 0
    9efc:	0afffffc 	beq	9ef4 <uart_flush_tx+0x4>
    9f00:	e8bd8010 	pop	{r4, pc}

00009f04 <uart_disable>:
    9f04:	e92d4010 	push	{r4, lr}
    9f08:	ebfffff8 	bl	9ef0 <uart_flush_tx>
    9f0c:	eb000195 	bl	a568 <dev_barrier>
    9f10:	e3e01001 	mvn	r1, #1, 0
    9f14:	e59f0008 	ldr	r0, [pc, #8]	; 9f24 <uart_disable+0x20>
    9f18:	ebffff86 	bl	9d38 <and_in32>
    9f1c:	eb000191 	bl	a568 <dev_barrier>
    9f20:	e8bd8010 	pop	{r4, pc}
    9f24:	20215004 	eorcs	r5, r1, r4

00009f28 <kmalloc_heap_end>:
    9f28:	e59f3004 	ldr	r3, [pc, #4]	; 9f34 <kmalloc_heap_end+0xc>
    9f2c:	e5930000 	ldr	r0, [r3]
    9f30:	e12fff1e 	bx	lr
    9f34:	0000ae88 	andeq	sl, r0, r8, lsl #29

00009f38 <kmalloc_heap_start>:
    9f38:	e59f3004 	ldr	r3, [pc, #4]	; 9f44 <kmalloc_heap_start+0xc>
    9f3c:	e5930004 	ldr	r0, [r3, #4]
    9f40:	e12fff1e 	bx	lr
    9f44:	0000ae88 	andeq	sl, r0, r8, lsl #29

00009f48 <kmalloc_heap_ptr>:
    9f48:	e59f3004 	ldr	r3, [pc, #4]	; 9f54 <kmalloc_heap_ptr+0xc>
    9f4c:	e5930000 	ldr	r0, [r3]
    9f50:	e12fff1e 	bx	lr
    9f54:	0000ae88 	andeq	sl, r0, r8, lsl #29

00009f58 <kmalloc_init_set_start>:
    9f58:	e52de004 	push	{lr}		; (str lr, [sp, #-4]!)
    9f5c:	e24dd00c 	sub	sp, sp, #12, 0
    9f60:	e3510000 	cmp	r1, #0, 0
    9f64:	0a00000a 	beq	9f94 <kmalloc_init_set_start+0x3c>
    9f68:	e59f306c 	ldr	r3, [pc, #108]	; 9fdc <kmalloc_init_set_start+0x84>
    9f6c:	e5933000 	ldr	r3, [r3]
    9f70:	e1530000 	cmp	r3, r0
    9f74:	8a00000e 	bhi	9fb4 <kmalloc_init_set_start+0x5c>
    9f78:	e59f305c 	ldr	r3, [pc, #92]	; 9fdc <kmalloc_init_set_start+0x84>
    9f7c:	e5830000 	str	r0, [r3]
    9f80:	e5830004 	str	r0, [r3, #4]
    9f84:	e0800001 	add	r0, r0, r1
    9f88:	e5830008 	str	r0, [r3, #8]
    9f8c:	e28dd00c 	add	sp, sp, #12, 0
    9f90:	e49df004 	pop	{pc}		; (ldr pc, [sp], #4)
    9f94:	e59f3044 	ldr	r3, [pc, #68]	; 9fe0 <kmalloc_init_set_start+0x88>
    9f98:	e58d3000 	str	r3, [sp]
    9f9c:	e3a03030 	mov	r3, #48, 0	; 0x30
    9fa0:	e59f203c 	ldr	r2, [pc, #60]	; 9fe4 <kmalloc_init_set_start+0x8c>
    9fa4:	e59f103c 	ldr	r1, [pc, #60]	; 9fe8 <kmalloc_init_set_start+0x90>
    9fa8:	e59f003c 	ldr	r0, [pc, #60]	; 9fec <kmalloc_init_set_start+0x94>
    9fac:	ebfffc10 	bl	8ff4 <printk>
    9fb0:	ebfffea0 	bl	9a38 <clean_reboot>
    9fb4:	e59f3020 	ldr	r3, [pc, #32]	; 9fdc <kmalloc_init_set_start+0x84>
    9fb8:	e5933008 	ldr	r3, [r3, #8]
    9fbc:	e58d3004 	str	r3, [sp, #4]
    9fc0:	e58d0000 	str	r0, [sp]
    9fc4:	e3a03034 	mov	r3, #52, 0	; 0x34
    9fc8:	e59f2014 	ldr	r2, [pc, #20]	; 9fe4 <kmalloc_init_set_start+0x8c>
    9fcc:	e59f1014 	ldr	r1, [pc, #20]	; 9fe8 <kmalloc_init_set_start+0x90>
    9fd0:	e59f0018 	ldr	r0, [pc, #24]	; 9ff0 <kmalloc_init_set_start+0x98>
    9fd4:	ebfffc06 	bl	8ff4 <printk>
    9fd8:	ebfffe96 	bl	9a38 <clean_reboot>
    9fdc:	0000ae88 	andeq	sl, r0, r8, lsl #29
    9fe0:	0000ac94 	muleq	r0, r4, ip
    9fe4:	0000ae20 	andeq	sl, r0, r0, lsr #28
    9fe8:	0000ac88 	andeq	sl, r0, r8, lsl #25
    9fec:	0000a59c 	muleq	r0, ip, r5
    9ff0:	0000aca0 	andeq	sl, r0, r0, lsr #25

00009ff4 <kmalloc_init>:
    9ff4:	e92d4010 	push	{r4, lr}
    9ff8:	e59f303c 	ldr	r3, [pc, #60]	; a03c <kmalloc_init+0x48>
    9ffc:	e5933000 	ldr	r3, [r3]
    a000:	e3530000 	cmp	r3, #0, 0
    a004:	1a000006 	bne	a024 <kmalloc_init+0x30>
    a008:	e59f302c 	ldr	r3, [pc, #44]	; a03c <kmalloc_init+0x48>
    a00c:	e3a02001 	mov	r2, #1, 0
    a010:	e5832000 	str	r2, [r3]
    a014:	e3a01201 	mov	r1, #268435456	; 0x10000000
    a018:	e3a00601 	mov	r0, #1048576	; 0x100000
    a01c:	ebffffcd 	bl	9f58 <kmalloc_init_set_start>
    a020:	e8bd8010 	pop	{r4, pc}
    a024:	e3a03040 	mov	r3, #64, 0	; 0x40
    a028:	e59f2010 	ldr	r2, [pc, #16]	; a040 <kmalloc_init+0x4c>
    a02c:	e59f1010 	ldr	r1, [pc, #16]	; a044 <kmalloc_init+0x50>
    a030:	e59f0010 	ldr	r0, [pc, #16]	; a048 <kmalloc_init+0x54>
    a034:	ebfffbee 	bl	8ff4 <printk>
    a038:	ebfffe7e 	bl	9a38 <clean_reboot>
    a03c:	0000b2c0 	andeq	fp, r0, r0, asr #5
    a040:	0000ae38 	andeq	sl, r0, r8, lsr lr
    a044:	0000ac88 	andeq	sl, r0, r8, lsl #25
    a048:	0000ace4 	andeq	sl, r0, r4, ror #25

0000a04c <kmalloc_notzero>:
    a04c:	e52de004 	push	{lr}		; (str lr, [sp, #-4]!)
    a050:	e24dd00c 	sub	sp, sp, #12, 0
    a054:	e3500000 	cmp	r0, #0, 0
    a058:	0a00000a 	beq	a088 <kmalloc_notzero+0x3c>
    a05c:	e2800007 	add	r0, r0, #7, 0
    a060:	e3c03007 	bic	r3, r0, #7, 0
    a064:	e59f2060 	ldr	r2, [pc, #96]	; a0cc <kmalloc_notzero+0x80>
    a068:	e5920000 	ldr	r0, [r2]
    a06c:	e0801003 	add	r1, r0, r3
    a070:	e5821000 	str	r1, [r2]
    a074:	e5922008 	ldr	r2, [r2, #8]
    a078:	e1510002 	cmp	r1, r2
    a07c:	8a000009 	bhi	a0a8 <kmalloc_notzero+0x5c>
    a080:	e28dd00c 	add	sp, sp, #12, 0
    a084:	e49df004 	pop	{pc}		; (ldr pc, [sp], #4)
    a088:	e59f3040 	ldr	r3, [pc, #64]	; a0d0 <kmalloc_notzero+0x84>
    a08c:	e58d3000 	str	r3, [sp]
    a090:	e3a03048 	mov	r3, #72, 0	; 0x48
    a094:	e59f2038 	ldr	r2, [pc, #56]	; a0d4 <kmalloc_notzero+0x88>
    a098:	e59f1038 	ldr	r1, [pc, #56]	; a0d8 <kmalloc_notzero+0x8c>
    a09c:	e59f0038 	ldr	r0, [pc, #56]	; a0dc <kmalloc_notzero+0x90>
    a0a0:	ebfffbd3 	bl	8ff4 <printk>
    a0a4:	ebfffe63 	bl	9a38 <clean_reboot>
    a0a8:	e0422000 	sub	r2, r2, r0
    a0ac:	e58d2004 	str	r2, [sp, #4]
    a0b0:	e58d3000 	str	r3, [sp]
    a0b4:	e3a0304e 	mov	r3, #78, 0	; 0x4e
    a0b8:	e59f2014 	ldr	r2, [pc, #20]	; a0d4 <kmalloc_notzero+0x88>
    a0bc:	e59f1014 	ldr	r1, [pc, #20]	; a0d8 <kmalloc_notzero+0x8c>
    a0c0:	e59f0018 	ldr	r0, [pc, #24]	; a0e0 <kmalloc_notzero+0x94>
    a0c4:	ebfffbca 	bl	8ff4 <printk>
    a0c8:	ebfffe5a 	bl	9a38 <clean_reboot>
    a0cc:	0000ae88 	andeq	sl, r0, r8, lsl #29
    a0d0:	0000ac98 	muleq	r0, r8, ip
    a0d4:	0000ae48 	andeq	sl, r0, r8, asr #28
    a0d8:	0000ac88 	andeq	sl, r0, r8, lsl #25
    a0dc:	0000a59c 	muleq	r0, ip, r5
    a0e0:	0000ad14 	andeq	sl, r0, r4, lsl sp

0000a0e4 <kmalloc>:
    a0e4:	e92d4030 	push	{r4, r5, lr}
    a0e8:	e24dd00c 	sub	sp, sp, #12, 0
    a0ec:	e2504000 	subs	r4, r0, #0, 0
    a0f0:	0a000008 	beq	a118 <kmalloc+0x34>
    a0f4:	e1a00004 	mov	r0, r4
    a0f8:	ebffffd3 	bl	a04c <kmalloc_notzero>
    a0fc:	e1a05000 	mov	r5, r0
    a100:	e1a02004 	mov	r2, r4
    a104:	e3a01000 	mov	r1, #0, 0
    a108:	ebfffb9b 	bl	8f7c <memset>
    a10c:	e1a00005 	mov	r0, r5
    a110:	e28dd00c 	add	sp, sp, #12, 0
    a114:	e8bd8030 	pop	{r4, r5, pc}
    a118:	e59f3018 	ldr	r3, [pc, #24]	; a138 <kmalloc+0x54>
    a11c:	e58d3000 	str	r3, [sp]
    a120:	e3a03054 	mov	r3, #84, 0	; 0x54
    a124:	e59f2010 	ldr	r2, [pc, #16]	; a13c <kmalloc+0x58>
    a128:	e59f1010 	ldr	r1, [pc, #16]	; a140 <kmalloc+0x5c>
    a12c:	e59f0010 	ldr	r0, [pc, #16]	; a144 <kmalloc+0x60>
    a130:	ebfffbaf 	bl	8ff4 <printk>
    a134:	ebfffe3f 	bl	9a38 <clean_reboot>
    a138:	0000ac98 	muleq	r0, r8, ip
    a13c:	0000ae58 	andeq	sl, r0, r8, asr lr
    a140:	0000ac88 	andeq	sl, r0, r8, lsl #25
    a144:	0000a59c 	muleq	r0, ip, r5

0000a148 <kmalloc_aligned>:
    a148:	e52de004 	push	{lr}		; (str lr, [sp, #-4]!)
    a14c:	e24dd00c 	sub	sp, sp, #12, 0
    a150:	e3500000 	cmp	r0, #0, 0
    a154:	0a000014 	beq	a1ac <kmalloc_aligned+0x64>
    a158:	e2613000 	rsb	r3, r1, #0, 0
    a15c:	e1d13003 	bics	r3, r1, r3
    a160:	1a000019 	bne	a1cc <kmalloc_aligned+0x84>
    a164:	e3510008 	cmp	r1, #8, 0
    a168:	33a01008 	movcc	r1, #8, 0
    a16c:	e59f30c0 	ldr	r3, [pc, #192]	; a234 <kmalloc_aligned+0xec>
    a170:	e5932000 	ldr	r2, [r3]
    a174:	e2613000 	rsb	r3, r1, #0, 0
    a178:	e1d1c003 	bics	ip, r1, r3
    a17c:	1a00001b 	bne	a1f0 <kmalloc_aligned+0xa8>
    a180:	e0822001 	add	r2, r2, r1
    a184:	e2422001 	sub	r2, r2, #1, 0
    a188:	e0033002 	and	r3, r3, r2
    a18c:	e2411001 	sub	r1, r1, #1, 0
    a190:	e1110003 	tst	r1, r3
    a194:	1a00001d 	bne	a210 <kmalloc_aligned+0xc8>
    a198:	e59f2094 	ldr	r2, [pc, #148]	; a234 <kmalloc_aligned+0xec>
    a19c:	e5823000 	str	r3, [r2]
    a1a0:	ebffffcf 	bl	a0e4 <kmalloc>
    a1a4:	e28dd00c 	add	sp, sp, #12, 0
    a1a8:	e49df004 	pop	{pc}		; (ldr pc, [sp], #4)
    a1ac:	e59f3084 	ldr	r3, [pc, #132]	; a238 <kmalloc_aligned+0xf0>
    a1b0:	e58d3000 	str	r3, [sp]
    a1b4:	e3a0305f 	mov	r3, #95, 0	; 0x5f
    a1b8:	e59f207c 	ldr	r2, [pc, #124]	; a23c <kmalloc_aligned+0xf4>
    a1bc:	e59f107c 	ldr	r1, [pc, #124]	; a240 <kmalloc_aligned+0xf8>
    a1c0:	e59f007c 	ldr	r0, [pc, #124]	; a244 <kmalloc_aligned+0xfc>
    a1c4:	ebfffb8a 	bl	8ff4 <printk>
    a1c8:	ebfffe1a 	bl	9a38 <clean_reboot>
    a1cc:	eb0000ac 	bl	a484 <rpi_reset_putc>
    a1d0:	e59f3070 	ldr	r3, [pc, #112]	; a248 <kmalloc_aligned+0x100>
    a1d4:	e58d3000 	str	r3, [sp]
    a1d8:	e3a03060 	mov	r3, #96, 0	; 0x60
    a1dc:	e59f2058 	ldr	r2, [pc, #88]	; a23c <kmalloc_aligned+0xf4>
    a1e0:	e59f1058 	ldr	r1, [pc, #88]	; a240 <kmalloc_aligned+0xf8>
    a1e4:	e59f0060 	ldr	r0, [pc, #96]	; a24c <kmalloc_aligned+0x104>
    a1e8:	ebfffb81 	bl	8ff4 <printk>
    a1ec:	ebfffe11 	bl	9a38 <clean_reboot>
    a1f0:	e59f3058 	ldr	r3, [pc, #88]	; a250 <kmalloc_aligned+0x108>
    a1f4:	e58d3000 	str	r3, [sp]
    a1f8:	e3a03011 	mov	r3, #17, 0
    a1fc:	e59f2050 	ldr	r2, [pc, #80]	; a254 <kmalloc_aligned+0x10c>
    a200:	e59f1038 	ldr	r1, [pc, #56]	; a240 <kmalloc_aligned+0xf8>
    a204:	e59f0038 	ldr	r0, [pc, #56]	; a244 <kmalloc_aligned+0xfc>
    a208:	ebfffb79 	bl	8ff4 <printk>
    a20c:	ebfffe09 	bl	9a38 <clean_reboot>
    a210:	eb00009b 	bl	a484 <rpi_reset_putc>
    a214:	e59f303c 	ldr	r3, [pc, #60]	; a258 <kmalloc_aligned+0x110>
    a218:	e58d3000 	str	r3, [sp]
    a21c:	e3a03068 	mov	r3, #104, 0	; 0x68
    a220:	e59f2014 	ldr	r2, [pc, #20]	; a23c <kmalloc_aligned+0xf4>
    a224:	e59f1014 	ldr	r1, [pc, #20]	; a240 <kmalloc_aligned+0xf8>
    a228:	e59f002c 	ldr	r0, [pc, #44]	; a25c <kmalloc_aligned+0x114>
    a22c:	ebfffb70 	bl	8ff4 <printk>
    a230:	ebfffe00 	bl	9a38 <clean_reboot>
    a234:	0000ae88 	andeq	sl, r0, r8, lsl #29
    a238:	0000ac98 	muleq	r0, r8, ip
    a23c:	0000ae60 	andeq	sl, r0, r0, ror #28
    a240:	0000ac88 	andeq	sl, r0, r8, lsl #25
    a244:	0000a59c 	muleq	r0, ip, r5
    a248:	0000ad88 	andeq	sl, r0, r8, lsl #27
    a24c:	0000ad54 	andeq	sl, r0, r4, asr sp
    a250:	0000ad9c 	muleq	r0, ip, sp
    a254:	0000ae70 	andeq	sl, r0, r0, ror lr
    a258:	0000add4 	ldrdeq	sl, [r0], -r4
    a25c:	0000ada8 	andeq	sl, r0, r8, lsr #27

0000a260 <kfree>:
    a260:	e12fff1e 	bx	lr

0000a264 <kfree_all>:
    a264:	e59f3008 	ldr	r3, [pc, #8]	; a274 <kfree_all+0x10>
    a268:	e5932004 	ldr	r2, [r3, #4]
    a26c:	e5832000 	str	r2, [r3]
    a270:	e12fff1e 	bx	lr
    a274:	0000ae88 	andeq	sl, r0, r8, lsl #29

0000a278 <kfree_pop>:
    a278:	e59f3048 	ldr	r3, [pc, #72]	; a2c8 <kfree_pop+0x50>
    a27c:	e5933004 	ldr	r3, [r3, #4]
    a280:	e1530000 	cmp	r3, r0
    a284:	8a000006 	bhi	a2a4 <kfree_pop+0x2c>
    a288:	e59f3038 	ldr	r3, [pc, #56]	; a2c8 <kfree_pop+0x50>
    a28c:	e5933008 	ldr	r3, [r3, #8]
    a290:	e1530000 	cmp	r3, r0
    a294:	3a000002 	bcc	a2a4 <kfree_pop+0x2c>
    a298:	e59f3028 	ldr	r3, [pc, #40]	; a2c8 <kfree_pop+0x50>
    a29c:	e5830000 	str	r0, [r3]
    a2a0:	e12fff1e 	bx	lr
    a2a4:	e52de004 	push	{lr}		; (str lr, [sp, #-4]!)
    a2a8:	e24dd00c 	sub	sp, sp, #12, 0
    a2ac:	e58d0000 	str	r0, [sp]
    a2b0:	e3a03077 	mov	r3, #119, 0	; 0x77
    a2b4:	e59f2010 	ldr	r2, [pc, #16]	; a2cc <kfree_pop+0x54>
    a2b8:	e59f1010 	ldr	r1, [pc, #16]	; a2d0 <kfree_pop+0x58>
    a2bc:	e59f0010 	ldr	r0, [pc, #16]	; a2d4 <kfree_pop+0x5c>
    a2c0:	ebfffb4b 	bl	8ff4 <printk>
    a2c4:	ebfffddb 	bl	9a38 <clean_reboot>
    a2c8:	0000ae88 	andeq	sl, r0, r8, lsl #29
    a2cc:	0000ae78 	andeq	sl, r0, r8, ror lr
    a2d0:	0000ac88 	andeq	sl, r0, r8, lsl #25
    a2d4:	0000adf0 	strdeq	sl, [r0], -r0

0000a2d8 <gpio_set_function>:
    a2d8:	e350001f 	cmp	r0, #31, 0
    a2dc:	812fff1e 	bxhi	lr
    a2e0:	e3d13007 	bics	r3, r1, #7, 0
    a2e4:	e92d4070 	push	{r4, r5, r6, lr}
    a2e8:	e1a05001 	mov	r5, r1
    a2ec:	18bd8070 	popne	{r4, r5, r6, pc}
    a2f0:	e59f403c 	ldr	r4, [pc, #60]	; a334 <gpio_set_function+0x5c>
    a2f4:	e0843094 	umull	r3, r4, r4, r0
    a2f8:	e1a041a4 	lsr	r4, r4, #3
    a2fc:	e2843302 	add	r3, r4, #134217728	; 0x8000000
    a300:	e2833702 	add	r3, r3, #524288	; 0x80000
    a304:	e1a06103 	lsl	r6, r3, #2
    a308:	e0844104 	add	r4, r4, r4, lsl #2
    a30c:	e0404084 	sub	r4, r0, r4, lsl #1
    a310:	e1a00006 	mov	r0, r6
    a314:	ebfff744 	bl	802c <GET32>
    a318:	e3a01007 	mov	r1, #7, 0
    a31c:	e0844084 	add	r4, r4, r4, lsl #1
    a320:	e1c01411 	bic	r1, r0, r1, lsl r4
    a324:	e1811415 	orr	r1, r1, r5, lsl r4
    a328:	e1a00006 	mov	r0, r6
    a32c:	e8bd4070 	pop	{r4, r5, r6, lr}
    a330:	eafff73b 	b	8024 <PUT32>
    a334:	cccccccd 	stclgt	12, cr12, [ip], {205}	; 0xcd

0000a338 <gpio_set_output>:
    a338:	e350001f 	cmp	r0, #31, 0
    a33c:	812fff1e 	bxhi	lr
    a340:	e92d4070 	push	{r4, r5, r6, lr}
    a344:	e59f4040 	ldr	r4, [pc, #64]	; a38c <gpio_set_output+0x54>
    a348:	e0843094 	umull	r3, r4, r4, r0
    a34c:	e1a041a4 	lsr	r4, r4, #3
    a350:	e2843302 	add	r3, r4, #134217728	; 0x8000000
    a354:	e2833702 	add	r3, r3, #524288	; 0x80000
    a358:	e1a05103 	lsl	r5, r3, #2
    a35c:	e0844104 	add	r4, r4, r4, lsl #2
    a360:	e0404084 	sub	r4, r0, r4, lsl #1
    a364:	e1a00005 	mov	r0, r5
    a368:	ebfff72f 	bl	802c <GET32>
    a36c:	e3a03007 	mov	r3, #7, 0
    a370:	e3a01001 	mov	r1, #1, 0
    a374:	e0844084 	add	r4, r4, r4, lsl #1
    a378:	e1c03413 	bic	r3, r0, r3, lsl r4
    a37c:	e1831411 	orr	r1, r3, r1, lsl r4
    a380:	e1a00005 	mov	r0, r5
    a384:	e8bd4070 	pop	{r4, r5, r6, lr}
    a388:	eafff725 	b	8024 <PUT32>
    a38c:	cccccccd 	stclgt	12, cr12, [ip], {205}	; 0xcd

0000a390 <gpio_set_on>:
    a390:	e1a03000 	mov	r3, r0
    a394:	e3a01001 	mov	r1, #1, 0
    a398:	e59f0004 	ldr	r0, [pc, #4]	; a3a4 <gpio_set_on+0x14>
    a39c:	e1a01311 	lsl	r1, r1, r3
    a3a0:	eafff71f 	b	8024 <PUT32>
    a3a4:	2020001c 	eorcs	r0, r0, ip, lsl r0

0000a3a8 <gpio_set_off>:
    a3a8:	e1a03000 	mov	r3, r0
    a3ac:	e3a01001 	mov	r1, #1, 0
    a3b0:	e59f0004 	ldr	r0, [pc, #4]	; a3bc <gpio_set_off+0x14>
    a3b4:	e1a01311 	lsl	r1, r1, r3
    a3b8:	eafff719 	b	8024 <PUT32>
    a3bc:	20200028 	eorcs	r0, r0, r8, lsr #32

0000a3c0 <gpio_set_input>:
    a3c0:	e350001f 	cmp	r0, #31, 0
    a3c4:	812fff1e 	bxhi	lr
    a3c8:	e92d4070 	push	{r4, r5, r6, lr}
    a3cc:	e59f5040 	ldr	r5, [pc, #64]	; a414 <gpio_set_input+0x54>
    a3d0:	e1a04000 	mov	r4, r0
    a3d4:	e0853095 	umull	r3, r5, r5, r0
    a3d8:	e1a051a5 	lsr	r5, r5, #3
    a3dc:	e2850302 	add	r0, r5, #134217728	; 0x8000000
    a3e0:	e2800702 	add	r0, r0, #524288	; 0x80000
    a3e4:	e1a06100 	lsl	r6, r0, #2
    a3e8:	e1a00006 	mov	r0, r6
    a3ec:	ebfff70e 	bl	802c <GET32>
    a3f0:	e3a01007 	mov	r1, #7, 0
    a3f4:	e1a03000 	mov	r3, r0
    a3f8:	e0855105 	add	r5, r5, r5, lsl #2
    a3fc:	e0444085 	sub	r4, r4, r5, lsl #1
    a400:	e0844084 	add	r4, r4, r4, lsl #1
    a404:	e1a00006 	mov	r0, r6
    a408:	e1c31411 	bic	r1, r3, r1, lsl r4
    a40c:	e8bd4070 	pop	{r4, r5, r6, lr}
    a410:	eafff703 	b	8024 <PUT32>
    a414:	cccccccd 	stclgt	12, cr12, [ip], {205}	; 0xcd

0000a418 <gpio_write>:
    a418:	e3510000 	cmp	r1, #0, 0
    a41c:	e3a03001 	mov	r3, #1, 0
    a420:	e1a01000 	mov	r1, r0
    a424:	0a000002 	beq	a434 <gpio_write+0x1c>
    a428:	e59f0010 	ldr	r0, [pc, #16]	; a440 <gpio_write+0x28>
    a42c:	e1a01113 	lsl	r1, r3, r1
    a430:	eafff6fb 	b	8024 <PUT32>
    a434:	e59f0008 	ldr	r0, [pc, #8]	; a444 <gpio_write+0x2c>
    a438:	e1a01113 	lsl	r1, r3, r1
    a43c:	eafff6f8 	b	8024 <PUT32>
    a440:	2020001c 	eorcs	r0, r0, ip, lsl r0
    a444:	20200028 	eorcs	r0, r0, r8, lsr #32

0000a448 <gpio_read>:
    a448:	e92d4010 	push	{r4, lr}
    a44c:	e1a04000 	mov	r4, r0
    a450:	e59f0014 	ldr	r0, [pc, #20]	; a46c <gpio_read+0x24>
    a454:	e08002a4 	add	r0, r0, r4, lsr #5
    a458:	ebfff6f3 	bl	802c <GET32>
    a45c:	e204401f 	and	r4, r4, #31, 0
    a460:	e1a00430 	lsr	r0, r0, r4
    a464:	e2000001 	and	r0, r0, #1, 0
    a468:	e8bd8010 	pop	{r4, pc}
    a46c:	20200034 	eorcs	r0, r0, r4, lsr r0

0000a470 <internal_putchar>:
    a470:	e92d4010 	push	{r4, lr}
    a474:	e1a04000 	mov	r4, r0
    a478:	ebfffe84 	bl	9e90 <uart_putc>
    a47c:	e1a00004 	mov	r0, r4
    a480:	e8bd8010 	pop	{r4, pc}

0000a484 <rpi_reset_putc>:
    a484:	e59f3008 	ldr	r3, [pc, #8]	; a494 <rpi_reset_putc+0x10>
    a488:	e59f2008 	ldr	r2, [pc, #8]	; a498 <rpi_reset_putc+0x14>
    a48c:	e5832000 	str	r2, [r3]
    a490:	e12fff1e 	bx	lr
    a494:	0000ae94 	muleq	r0, r4, lr
    a498:	0000a470 	andeq	sl, r0, r0, ror r4

0000a49c <rpi_set_putc>:
    a49c:	e59f3004 	ldr	r3, [pc, #4]	; a4a8 <rpi_set_putc+0xc>
    a4a0:	e5830000 	str	r0, [r3]
    a4a4:	e12fff1e 	bx	lr
    a4a8:	0000ae94 	muleq	r0, r4, lr

0000a4ac <strcat>:
    a4ac:	e1a02000 	mov	r2, r0
    a4b0:	e1a03002 	mov	r3, r2
    a4b4:	e4d2c001 	ldrb	ip, [r2], #1
    a4b8:	e35c0000 	cmp	ip, #0, 0
    a4bc:	1afffffb 	bne	a4b0 <strcat+0x4>
    a4c0:	e2433001 	sub	r3, r3, #1, 0
    a4c4:	e4d12001 	ldrb	r2, [r1], #1
    a4c8:	e3520000 	cmp	r2, #0, 0
    a4cc:	e5e32001 	strb	r2, [r3, #1]!
    a4d0:	1afffffb 	bne	a4c4 <strcat+0x18>
    a4d4:	e12fff1e 	bx	lr

0000a4d8 <strcmp>:
    a4d8:	e5d03000 	ldrb	r3, [r0]
    a4dc:	e3530000 	cmp	r3, #0, 0
    a4e0:	05d12000 	ldrbeq	r2, [r1]
    a4e4:	1a000003 	bne	a4f8 <strcmp+0x20>
    a4e8:	ea000006 	b	a508 <strcmp+0x30>
    a4ec:	e5f03001 	ldrb	r3, [r0, #1]!
    a4f0:	e3530000 	cmp	r3, #0, 0
    a4f4:	0a000005 	beq	a510 <strcmp+0x38>
    a4f8:	e1a0c001 	mov	ip, r1
    a4fc:	e4d12001 	ldrb	r2, [r1], #1
    a500:	e1520003 	cmp	r2, r3
    a504:	0afffff8 	beq	a4ec <strcmp+0x14>
    a508:	e0430002 	sub	r0, r3, r2
    a50c:	e12fff1e 	bx	lr
    a510:	e5dc2001 	ldrb	r2, [ip, #1]
    a514:	e0430002 	sub	r0, r3, r2
    a518:	e12fff1e 	bx	lr

0000a51c <strcpy>:
    a51c:	e2402001 	sub	r2, r0, #1, 0
    a520:	e4d13001 	ldrb	r3, [r1], #1
    a524:	e3530000 	cmp	r3, #0, 0
    a528:	e5e23001 	strb	r3, [r2, #1]!
    a52c:	1afffffb 	bne	a520 <strcpy+0x4>
    a530:	e12fff1e 	bx	lr

0000a534 <strncmp>:
    a534:	e0802002 	add	r2, r0, r2
    a538:	ea000003 	b	a54c <strncmp+0x18>
    a53c:	e4d03001 	ldrb	r3, [r0], #1
    a540:	e4d1c001 	ldrb	ip, [r1], #1
    a544:	e153000c 	cmp	r3, ip
    a548:	1a000003 	bne	a55c <strncmp+0x28>
    a54c:	e1500002 	cmp	r0, r2
    a550:	1afffff9 	bne	a53c <strncmp+0x8>
    a554:	e3a00000 	mov	r0, #0, 0
    a558:	e12fff1e 	bx	lr
    a55c:	e043000c 	sub	r0, r3, ip
    a560:	e12fff1e 	bx	lr

0000a564 <reboot_callout>:
    a564:	e12fff1e 	bx	lr

0000a568 <dev_barrier>:
    a568:	ea000002 	b	a578 <dsb>

0000a56c <dmb>:
    a56c:	e3a00000 	mov	r0, #0, 0
    a570:	ee070fba 	mcr	15, 0, r0, cr7, cr10, {5}
    a574:	e12fff1e 	bx	lr

0000a578 <dsb>:
    a578:	ee070f9a 	mcr	15, 0, r0, cr7, cr10, {4}
    a57c:	e12fff1e 	bx	lr

Disassembly of section .rodata:

0000a580 <__FUNCTION__.4037-0x158>:
    a580:	74736574 	ldrbtvc	r6, [r3], #-1396	; 0xfffffa8c
    a584:	2e322d73 	mrccs	13, 1, r2, cr2, cr3, {3}
    a588:	61702f30 	cmnvs	r0, r0, lsr pc
    a58c:	2d327472 	cfldrscs	mvf7, [r2, #-456]!	; 0xfffffe38
    a590:	74736574 	ldrbtvc	r6, [r3], #-1396	; 0xfffffa8c
    a594:	63672d35 	cmnvs	r7, #3392	; 0xd40
    a598:	0000632e 	andeq	r6, r0, lr, lsr #6
    a59c:	494e4150 	stmdbmi	lr, {r4, r6, r8, lr}^
    a5a0:	73253a43 			; <UNDEFINED> instruction: 0x73253a43
    a5a4:	3a73253a 	bcc	1cd3a94 <__bss_end__+0x1cc87cc>
    a5a8:	253a6425 	ldrcs	r6, [sl, #-1061]!	; 0xfffffbdb
    a5ac:	00000a73 	andeq	r0, r0, r3, ror sl
    a5b0:	3e2d6821 	cdpcc	8, 2, cr6, cr13, cr1, {1}
    a5b4:	76657270 			; <UNDEFINED> instruction: 0x76657270
    a5b8:	00000000 	andeq	r0, r0, r0
    a5bc:	43415254 	movtmi	r5, #4692	; 0x1254
    a5c0:	61683a45 	cmnvs	r8, r5, asr #20
    a5c4:	61206576 			; <UNDEFINED> instruction: 0x61206576
    a5c8:	76696c20 	strbtvc	r6, [r9], -r0, lsr #24
    a5cc:	6f702065 	svcvs	0x00702065
    a5d0:	65746e69 	ldrbvs	r6, [r4, #-3689]!	; 0xfffff197
    a5d4:	683c2072 	ldmdavs	ip!, {r1, r4, r5, r6, sp}
    a5d8:	73203a3e 			; <UNDEFINED> instruction: 0x73203a3e
    a5dc:	6c756f68 	ldclvs	15, cr6, [r5], #-416	; 0xfffffe60
    a5e0:	6f6e2064 	svcvs	0x006e2064
    a5e4:	656c2074 	strbvs	r2, [ip, #-116]!	; 0xffffff8c
    a5e8:	000a6b61 	andeq	r6, sl, r1, ror #22
    a5ec:	74204347 	strtvc	r4, [r0], #-839	; 0xfffffcb9
    a5f0:	3a747365 	bcc	1d2738c <__bss_end__+0x1d1c0c4>
    a5f4:	65686320 	strbvs	r6, [r8, #-800]!	; 0xfffffce0
    a5f8:	6e696b63 	vnmulvs.f64	d22, d9, d19
    a5fc:	68742067 	ldmdavs	r4!, {r0, r1, r2, r5, r6, sp}^
    a600:	61207461 			; <UNDEFINED> instruction: 0x61207461
    a604:	756f6420 	strbvc	r6, [pc, #-1056]!	; a1ec <kmalloc_aligned+0xa4>
    a608:	2d796c62 	ldclcs	12, cr6, [r9, #-392]!	; 0xfffffe78
    a60c:	6b6e696c 	blvs	1ba4bc4 <__bss_end__+0x1b998fc>
    a610:	6c206465 	cfstrsvs	mvf6, [r0], #-404	; 0xfffffe6c
    a614:	20747369 	rsbscs	r7, r4, r9, ror #6
    a618:	68207369 	stmdavs	r0!, {r0, r3, r5, r6, r8, r9, ip, sp, lr}
    a61c:	6c646e61 	stclvs	14, cr6, [r4], #-388	; 0xfffffe7c
    a620:	0a2e6465 	beq	ba37bc <__bss_end__+0xb984f4>
    a624:	00000000 	andeq	r0, r0, r0
    a628:	43415254 	movtmi	r5, #4692	; 0x1254
    a62c:	68733a45 	ldmdavs	r3!, {r0, r2, r6, r9, fp, ip, sp}^
    a630:	646c756f 	strbtvs	r7, [ip], #-1391	; 0xfffffa91
    a634:	61656c20 	cmnvs	r5, r0, lsr #24
    a638:	00000a6b 	andeq	r0, r0, fp, ror #20
    a63c:	43415254 	movtmi	r5, #4692	; 0x1254
    a640:	6f633a45 	svcvs	0x00633a45
    a644:	6361706d 	cmnvs	r1, #109, 0	; 0x6d
    a648:	20646574 	rsbcs	r6, r4, r4, ror r5
    a64c:	6e5b203d 	mrcvs	0, 2, r2, cr11, cr13, {1}
    a650:	65747962 	ldrbvs	r7, [r4, #-2402]!	; 0xfffff69e
    a654:	64253d73 	strtvs	r3, [r5], #-3443	; 0xfffff28d
    a658:	00000a5d 	andeq	r0, r0, sp, asr sl
    a65c:	756f6873 	strbvc	r6, [pc, #-2163]!	; 9df1 <uart_init+0x79>
    a660:	6620646c 	strtvs	r6, [r0], -ip, ror #8
    a664:	20646e69 	rsbcs	r6, r4, r9, ror #28
    a668:	79622030 	stmdbvc	r2!, {r4, r5, sp}^
    a66c:	20736574 	rsbscs	r6, r3, r4, ror r5
    a670:	73206e6f 			; <UNDEFINED> instruction: 0x73206e6f
    a674:	6e6f6365 	cdpvs	3, 6, cr6, cr15, cr5, {3}
    a678:	63672064 	cmnvs	r7, #100, 0	; 0x64
    a67c:	0000000a 	andeq	r0, r0, sl
    a680:	494e4150 	stmdbmi	lr, {r4, r6, r8, lr}^
    a684:	73253a43 			; <UNDEFINED> instruction: 0x73253a43
    a688:	3a73253a 	bcc	1cd3b78 <__bss_end__+0x1cc88b0>
    a68c:	613a6425 	teqvs	sl, r5, lsr #8
    a690:	63657320 	cmnvs	r5, #32, 6	; 0x80000000
    a694:	20646e6f 	rsbcs	r6, r4, pc, ror #28
    a698:	73206367 			; <UNDEFINED> instruction: 0x73206367
    a69c:	6c756f68 	ldclvs	15, cr6, [r5], #-416	; 0xfffffe60
    a6a0:	72662064 	rsbvc	r2, r6, #100, 0	; 0x64
    a6a4:	30206565 	eorcc	r6, r0, r5, ror #10
    a6a8:	74796220 	ldrbtvc	r6, [r9], #-544	; 0xfffffde0
    a6ac:	203a7365 	eorscs	r7, sl, r5, ror #6
    a6b0:	6e756f66 	cdpvs	15, 7, cr6, cr5, cr6, {3}
    a6b4:	64252064 	strtvs	r2, [r5], #-100	; 0xffffff9c
    a6b8:	00000a0a 	andeq	r0, r0, sl, lsl #20
    a6bc:	43415254 	movtmi	r5, #4692	; 0x1254
    a6c0:	68733a45 	ldmdavs	r3!, {r0, r2, r6, r9, fp, ip, sp}^
    a6c4:	646c756f 	strbtvs	r7, [ip], #-1391	; 0xfffffa91
    a6c8:	6e696620 	cdpvs	6, 6, cr6, cr9, cr0, {1}
    a6cc:	6f6e2064 	svcvs	0x006e2064
    a6d0:	61656c20 	cmnvs	r5, r0, lsr #24
    a6d4:	00000a6b 	andeq	r0, r0, fp, ror #20

0000a6d8 <__FUNCTION__.4037>:
    a6d8:	74736574 	ldrbtvc	r6, [r3], #-1396	; 0xfffffa8c
    a6dc:	00000000 	andeq	r0, r0, r0

0000a6e0 <__FUNCTION__.4048>:
    a6e0:	6d746f6e 	ldclvs	15, cr6, [r4, #-440]!	; 0xfffffe48
    a6e4:	006e6961 	rsbeq	r6, lr, r1, ror #18
    a6e8:	6e756f66 	cdpvs	15, 7, cr6, cr5, cr6, {3}
    a6ec:	70252064 	eorvc	r2, r5, r4, rrx
    a6f0:	206e6920 	rsbcs	r6, lr, r0, lsr #18
    a6f4:	000a7025 	andeq	r7, sl, r5, lsr #32
    a6f8:	253a7325 	ldrcs	r7, [sl, #-805]!	; 0xfffffcdb
    a6fc:	64253a73 	strtvs	r3, [r5], #-2675	; 0xfffff58d
    a700:	0000003a 	andeq	r0, r0, sl, lsr r0
    a704:	65657266 	strbvs	r7, [r5, #-614]!	; 0xfffffd9a
    a708:	20676e69 	rsbcs	r6, r7, r9, ror #28
    a70c:	0a702509 	beq	1c13b38 <__bss_end__+0x1c08870>
    a710:	00000000 	andeq	r0, r0, r0
    a714:	5f434f4c 	svcpl	0x00434f4c
    a718:	494e4150 	stmdbmi	lr, {r4, r6, r8, lr}^
    a71c:	25203a43 	strcs	r3, [r0, #-2627]!	; 0xfffff5bd
    a720:	73253a73 			; <UNDEFINED> instruction: 0x73253a73
    a724:	3a64253a 	bcc	1913c14 <__bss_end__+0x190894c>
    a728:	00000000 	andeq	r0, r0, r0
    a72c:	65657266 	strbvs	r7, [r5, #-614]!	; 0xfffffd9a
    a730:	20676e69 	rsbcs	r6, r7, r9, ror #28
    a734:	6c616e75 	stclvs	14, cr6, [r1], #-468	; 0xfffffe2c
    a738:	61636f6c 	cmnvs	r3, ip, ror #30
    a73c:	20646574 	rsbcs	r6, r4, r4, ror r5
    a740:	6f6d656d 	svcvs	0x006d656d
    a744:	203a7972 	eorscs	r7, sl, r2, ror r9
    a748:	74617473 	strbtvc	r7, [r1], #-1139	; 0xfffffb8d
    a74c:	64253d65 	strtvs	r3, [r5], #-3429	; 0xfffff29b
    a750:	0000000a 	andeq	r0, r0, sl
    a754:	7a646572 	bvc	1923d24 <__bss_end__+0x1918a5c>
    a758:	20656e6f 	rsbcs	r6, r5, pc, ror #28
    a75c:	77203123 	strvc	r3, [r0, -r3, lsr #2]!
    a760:	63207361 			; <UNDEFINED> instruction: 0x63207361
    a764:	7572726f 	ldrbvc	r7, [r2, #-623]!	; 0xfffffd91
    a768:	64657470 	strbtvs	r7, [r5], #-1136	; 0xfffffb90
    a76c:	00000a21 	andeq	r0, r0, r1, lsr #20
    a770:	7a646572 	bvc	1923d40 <__bss_end__+0x1918a78>
    a774:	20656e6f 	rsbcs	r6, r5, pc, ror #28
    a778:	77203223 	strvc	r3, [r0, -r3, lsr #4]!
    a77c:	63207361 			; <UNDEFINED> instruction: 0x63207361
    a780:	7572726f 	ldrbvc	r7, [r2, #-623]!	; 0xfffffd91
    a784:	64657470 	strbtvs	r7, [r5], #-1136	; 0xfffffb90
    a788:	00000a21 	andeq	r0, r0, r1, lsr #20
    a78c:	6f6c6c61 	svcvs	0x006c6c61
    a790:	69746163 	ldmdbvs	r4!, {r0, r1, r5, r6, r8, sp, lr}^
    a794:	2520676e 	strcs	r6, [r0, #-1902]!	; 0xfffff892
    a798:	25282070 	strcs	r2, [r8, #-112]!	; 0xffffff90
    a79c:	79622064 	stmdbvc	r2!, {r2, r5, r6, sp}^
    a7a0:	29736574 	ldmdbcs	r3!, {r2, r4, r5, r6, r8, sl, sp, lr}^
    a7a4:	0000000a 	andeq	r0, r0, sl
    a7a8:	75716552 	ldrbvc	r6, [r1, #-1362]!	; 0xfffffaae
    a7ac:	74737265 	ldrbtvc	r7, [r3], #-613	; 0xfffffd9b
    a7b0:	20676e69 	rsbcs	r6, r7, r9, ror #28
    a7b4:	65726f6d 	ldrbvs	r6, [r2, #-3949]!	; 0xfffff093
    a7b8:	6d656d20 	stclvs	13, cr6, [r5, #-128]!	; 0xffffff80
    a7bc:	2079726f 	rsbscs	r7, r9, pc, ror #4
    a7c0:	29642528 	stmdbcs	r4!, {r3, r5, r8, sl, sp}^
    a7c4:	0a2e2e2e 	beq	b96084 <__bss_end__+0xb8adbc>
    a7c8:	00000000 	andeq	r0, r0, r0
    a7cc:	672d6b63 	strvs	r6, [sp, -r3, ror #22]!
    a7d0:	00632e63 	rsbeq	r2, r3, r3, ror #28
    a7d4:	203c2070 	eorscs	r2, ip, r0, ror r0
    a7d8:	00000065 	andeq	r0, r0, r5, rrx
    a7dc:	67696c61 	strbvs	r6, [r9, -r1, ror #24]!
    a7e0:	2864656e 	stmdacs	r4!, {r1, r2, r3, r5, r6, r8, sl, sp, lr}^
    a7e4:	34202c70 	strtcc	r2, [r0], #-3184	; 0xfffff390
    a7e8:	00000029 	andeq	r0, r0, r9, lsr #32
    a7ec:	67696c61 	strbvs	r6, [r9, -r1, ror #24]!
    a7f0:	2864656e 	stmdacs	r4!, {r1, r2, r3, r5, r6, r8, sl, sp, lr}^
    a7f4:	34202c65 	strtcc	r2, [r0], #-3173	; 0xfffff39b
    a7f8:	00000029 	andeq	r0, r0, r9, lsr #32
    a7fc:	63656863 	cmnvs	r5, #6488064	; 0x630000
    a800:	676e696b 	strbvs	r6, [lr, -fp, ror #18]!
    a804:	61747320 	cmnvs	r4, r0, lsr #6
    a808:	203a6b63 	eorscs	r6, sl, r3, ror #22
    a80c:	74207025 	strtvc	r7, [r0], #-37	; 0xffffffdb
    a810:	7025206f 	eorvc	r2, r5, pc, rrx
    a814:	0000000a 	andeq	r0, r0, sl
    a818:	2d2d2d2d 	stccs	13, cr2, [sp, #-180]!	; 0xffffff4c
    a81c:	2d2d2d2d 	stccs	13, cr2, [sp, #-180]!	; 0xffffff4c
    a820:	2d2d2d2d 	stccs	13, cr2, [sp, #-180]!	; 0xffffff4c
    a824:	2d2d2d2d 	stccs	13, cr2, [sp, #-180]!	; 0xffffff4c
    a828:	2d2d2d2d 	stccs	13, cr2, [sp, #-180]!	; 0xffffff4c
    a82c:	2d2d2d2d 	stccs	13, cr2, [sp, #-180]!	; 0xffffff4c
    a830:	2d2d2d2d 	stccs	13, cr2, [sp, #-180]!	; 0xffffff4c
    a834:	2d2d2d2d 	stccs	13, cr2, [sp, #-180]!	; 0xffffff4c
    a838:	2d2d2d2d 	stccs	13, cr2, [sp, #-180]!	; 0xffffff4c
    a83c:	2d2d2d2d 	stccs	13, cr2, [sp, #-180]!	; 0xffffff4c
    a840:	2d2d2d2d 	stccs	13, cr2, [sp, #-180]!	; 0xffffff4c
    a844:	2d2d2d2d 	stccs	13, cr2, [sp, #-180]!	; 0xffffff4c
    a848:	2d2d2d2d 	stccs	13, cr2, [sp, #-180]!	; 0xffffff4c
    a84c:	2d2d2d2d 	stccs	13, cr2, [sp, #-180]!	; 0xffffff4c
    a850:	00000a2d 	andeq	r0, r0, sp, lsr #20
    a854:	63656863 	cmnvs	r5, #6488064	; 0x630000
    a858:	676e696b 	strbvs	r6, [lr, -fp, ror #18]!
    a85c:	726f6620 	rsbvc	r6, pc, #32, 12	; 0x2000000
    a860:	61656c20 	cmnvs	r5, r0, lsr #24
    a864:	0a3a736b 	beq	ea7618 <__bss_end__+0xe9c350>
    a868:	00000000 	andeq	r0, r0, r0
    a86c:	4c3a4347 	ldcmi	3, cr4, [sl], #-284	; 0xfffffee4
    a870:	2054534f 	subscs	r5, r4, pc, asr #6
    a874:	2d206425 	cfstrscs	mvf6, [r0, #-148]!	; 0xffffff6c
    a878:	7025203e 	eorvc	r2, r5, lr, lsr r0
    a87c:	0000000a 	andeq	r0, r0, sl
    a880:	4d3a4347 	ldcmi	3, cr4, [sl, #-284]!	; 0xfffffee4
    a884:	45425941 	strbmi	r5, [r2, #-2369]	; 0xfffff6bf
    a888:	534f4c20 	movtpl	r4, #64544	; 0xfc20
    a88c:	64252054 	strtvs	r2, [r5], #-84	; 0xffffffac
    a890:	203e2d20 	eorscs	r2, lr, r0, lsr #26
    a894:	000a7025 	andeq	r7, sl, r5, lsr #32
    a898:	43415254 	movtmi	r5, #4692	; 0x1254
    a89c:	47093a45 	strmi	r3, [r9, -r5, asr #20]
    a8a0:	68433a43 	stmdavs	r3, {r0, r1, r6, r9, fp, ip, sp}^
    a8a4:	656b6365 	strbvs	r6, [fp, #-869]!	; 0xfffffc9b
    a8a8:	64252064 	strtvs	r2, [r5], #-100	; 0xffffff9c
    a8ac:	6f6c6220 	svcvs	0x006c6220
    a8b0:	2e736b63 	vsubcs.f64	d22, d3, d19
    a8b4:	0000000a 	andeq	r0, r0, sl
    a8b8:	43415254 	movtmi	r5, #4692	; 0x1254
    a8bc:	09093a45 	stmdbeq	r9, {r0, r2, r6, r9, fp, ip, sp}
    a8c0:	533a4347 	teqpl	sl, #469762049	; 0x1c000001
    a8c4:	45434355 	strbmi	r4, [r3, #-853]	; 0xfffffcab
    a8c8:	203a5353 	eorscs	r5, sl, r3, asr r3
    a8cc:	6c206f4e 	stcvs	15, cr6, [r0], #-312	; 0xfffffec8
    a8d0:	736b6165 	cmnvc	fp, #1073741849	; 0x40000019
    a8d4:	756f6620 	strbvc	r6, [pc, #-1568]!	; a2bc <kfree_pop+0x44>
    a8d8:	0a21646e 	beq	863a98 <__bss_end__+0x8587d0>
    a8dc:	00000000 	andeq	r0, r0, r0
    a8e0:	43415254 	movtmi	r5, #4692	; 0x1254
    a8e4:	09093a45 	stmdbeq	r9, {r0, r2, r6, r9, fp, ip, sp}
    a8e8:	453a4347 	ldrmi	r4, [sl, #-839]!	; 0xfffffcb9
    a8ec:	524f5252 	subpl	r5, pc, #536870917	; 0x20000005
    a8f0:	25203a53 	strcs	r3, [r0, #-2643]!	; 0xfffff5ad
    a8f4:	72652064 	rsbvc	r2, r5, #100, 0	; 0x64
    a8f8:	73726f72 	cmnvc	r2, #456	; 0x1c8
    a8fc:	6425202c 	strtvs	r2, [r5], #-44	; 0xffffffd4
    a900:	79616d20 	stmdbvc	r1!, {r5, r8, sl, fp, sp, lr}^
    a904:	655f6562 	ldrbvs	r6, [pc, #-1378]	; a3aa <gpio_set_off+0x2>
    a908:	726f7272 	rsbvc	r7, pc, #536870919	; 0x20000007
    a90c:	00000a73 	andeq	r0, r0, r3, ror sl
    a910:	2d2d2d2d 	stccs	13, cr2, [sp, #-180]!	; 0xffffff4c
    a914:	2d2d2d2d 	stccs	13, cr2, [sp, #-180]!	; 0xffffff4c
    a918:	2d2d2d2d 	stccs	13, cr2, [sp, #-180]!	; 0xffffff4c
    a91c:	2d2d2d2d 	stccs	13, cr2, [sp, #-180]!	; 0xffffff4c
    a920:	2d2d2d2d 	stccs	13, cr2, [sp, #-180]!	; 0xffffff4c
    a924:	2d2d2d2d 	stccs	13, cr2, [sp, #-180]!	; 0xffffff4c
    a928:	2d2d2d2d 	stccs	13, cr2, [sp, #-180]!	; 0xffffff4c
    a92c:	2d2d2d2d 	stccs	13, cr2, [sp, #-180]!	; 0xffffff4c
    a930:	2d2d2d2d 	stccs	13, cr2, [sp, #-180]!	; 0xffffff4c
    a934:	2d2d2d2d 	stccs	13, cr2, [sp, #-180]!	; 0xffffff4c
    a938:	2d2d2d2d 	stccs	13, cr2, [sp, #-180]!	; 0xffffff4c
    a93c:	2d2d2d2d 	stccs	13, cr2, [sp, #-180]!	; 0xffffff4c
    a940:	2d2d2d2d 	stccs	13, cr2, [sp, #-180]!	; 0xffffff4c
    a944:	2d2d2d2d 	stccs	13, cr2, [sp, #-180]!	; 0xffffff4c
    a948:	000a2d2d 	andeq	r2, sl, sp, lsr #26
    a94c:	706d6f63 	rsbvc	r6, sp, r3, ror #30
    a950:	69746361 	ldmdbvs	r4!, {r0, r5, r6, r8, r9, sp, lr}^
    a954:	0a3a676e 	beq	ea4714 <__bss_end__+0xe9944c>
    a958:	00000000 	andeq	r0, r0, r0
    a95c:	463a4347 	ldrtmi	r4, [sl], -r7, asr #6
    a960:	44454552 	strbmi	r4, [r5], #-1362	; 0xfffffaae
    a964:	0a702520 	beq	1c13dec <__bss_end__+0x1c08b24>
    a968:	00000000 	andeq	r0, r0, r0
    a96c:	43415254 	movtmi	r5, #4692	; 0x1254
    a970:	47093a45 	strmi	r3, [r9, -r5, asr #20]
    a974:	68433a43 	stmdavs	r3, {r0, r1, r6, r9, fp, ip, sp}^
    a978:	656b6365 	strbvs	r6, [fp, #-869]!	; 0xfffffc9b
    a97c:	64252064 	strtvs	r2, [r5], #-100	; 0xffffff9c
    a980:	6f6c6220 	svcvs	0x006c6220
    a984:	2c736b63 			; <UNDEFINED> instruction: 0x2c736b63
    a988:	65726620 	ldrbvs	r6, [r2, #-1568]!	; 0xfffff9e0
    a98c:	25206465 	strcs	r6, [r0, #-1125]!	; 0xfffffb9b
    a990:	25202c64 	strcs	r2, [r0, #-3172]!	; 0xfffff39c
    a994:	79622064 	stmdbvc	r2!, {r2, r5, r6, sp}^
    a998:	0a736574 	beq	1ce3f70 <__bss_end__+0x1cd8ca8>
    a99c:	00000000 	andeq	r0, r0, r0
    a9a0:	72636e69 	rsbvc	r6, r3, #1680	; 0x690
    a9a4:	6e656d65 	cdpvs	13, 6, cr6, cr5, cr5, {3}
    a9a8:	203e2074 	eorscs	r2, lr, r4, ror r0
    a9ac:	00000030 	andeq	r0, r0, r0, lsr r0
    a9b0:	494e4150 	stmdbmi	lr, {r4, r6, r8, lr}^
    a9b4:	73253a43 			; <UNDEFINED> instruction: 0x73253a43
    a9b8:	3a73253a 	bcc	1cd3ea8 <__bss_end__+0x1cc8be0>
    a9bc:	6e3a6425 	cdpvs	4, 3, cr6, cr10, cr5, {1}
    a9c0:	6820746f 	stmdavs	r0!, {r0, r1, r2, r3, r5, r6, sl, ip, sp, lr}
    a9c4:	6c646e61 	stclvs	14, cr6, [r4], #-388	; 0xfffffe7c
    a9c8:	0a676e69 	beq	19e6374 <__bss_end__+0x19db0ac>
    a9cc:	0000000a 	andeq	r0, r0, sl
    a9d0:	494e4150 	stmdbmi	lr, {r4, r6, r8, lr}^
    a9d4:	73253a43 			; <UNDEFINED> instruction: 0x73253a43
    a9d8:	3a73253a 	bcc	1cd3ec8 <__bss_end__+0x1cc8c00>
    a9dc:	473a6425 	ldrmi	r6, [sl, -r5, lsr #8]!
    a9e0:	73203a43 			; <UNDEFINED> instruction: 0x73203a43
    a9e4:	6c756f68 	ldclvs	15, cr6, [r5], #-416	; 0xfffffe60
    a9e8:	61682064 	cmnvs	r8, r4, rrx
    a9ec:	6e206576 	mcrvs	5, 1, r6, cr0, cr6, {3}
    a9f0:	656c206f 	strbvs	r2, [ip, #-111]!	; 0xffffff91
    a9f4:	21736b61 	cmncs	r3, r1, ror #22
    a9f8:	00000a0a 	andeq	r0, r0, sl, lsl #20
    a9fc:	43415254 	movtmi	r5, #4692	; 0x1254
    aa00:	43473a45 	movtmi	r3, #31301	; 0x7a45
    aa04:	5553203a 	ldrbpl	r2, [r3, #-58]	; 0xffffffc6
    aa08:	53454343 	movtpl	r4, #21315	; 0x5343
    aa0c:	6e203a53 			; <UNDEFINED> instruction: 0x6e203a53
    aa10:	656c206f 	strbvs	r2, [ip, #-111]!	; 0xffffff91
    aa14:	21736b61 	cmncs	r3, r1, ror #22
    aa18:	0000000a 	andeq	r0, r0, sl
    aa1c:	494e4150 	stmdbmi	lr, {r4, r6, r8, lr}^
    aa20:	73253a43 			; <UNDEFINED> instruction: 0x73253a43
    aa24:	3a73253a 	bcc	1cd3f14 <__bss_end__+0x1cc8c4c>
    aa28:	473a6425 	ldrmi	r6, [sl, -r5, lsr #8]!
    aa2c:	73203a43 			; <UNDEFINED> instruction: 0x73203a43
    aa30:	6c756f68 	ldclvs	15, cr6, [r5], #-416	; 0xfffffe60
    aa34:	61682064 	cmnvs	r8, r4, rrx
    aa38:	6c206576 	cfstr32vs	mvfx6, [r0], #-472	; 0xfffffe28
    aa3c:	736b6165 	cmnvc	fp, #1073741849	; 0x40000019
    aa40:	000a0a21 	andeq	r0, sl, r1, lsr #20
    aa44:	43415254 	movtmi	r5, #4692	; 0x1254
    aa48:	43473a45 	movtmi	r3, #31301	; 0x7a45
    aa4c:	5553203a 	ldrbpl	r2, [r3, #-58]	; 0xffffffc6
    aa50:	53454343 	movtpl	r4, #21315	; 0x5343
    aa54:	66203a53 			; <UNDEFINED> instruction: 0x66203a53
    aa58:	646e756f 	strbtvs	r7, [lr], #-1391	; 0xfffffa91
    aa5c:	20642520 	rsbcs	r2, r4, r0, lsr #10
    aa60:	6b61656c 	blvs	1864018 <__bss_end__+0x1858d50>
    aa64:	000a2173 	andeq	r2, sl, r3, ror r1
    aa68:	494e4150 	stmdbmi	lr, {r4, r6, r8, lr}^
    aa6c:	73253a43 			; <UNDEFINED> instruction: 0x73253a43
    aa70:	3a73253a 	bcc	1cd3f60 <__bss_end__+0x1cc8c98>
    aa74:	643a6425 	ldrtvs	r6, [sl], #-1061	; 0xfffffbdb
    aa78:	6e206469 	cdpvs	4, 2, cr6, cr0, cr9, {3}
    aa7c:	6920746f 	stmdbvs	r0!, {r0, r1, r2, r3, r5, r6, sl, ip, sp, lr}
    aa80:	656c706d 	strbvs	r7, [ip, #-109]!	; 0xffffff93
    aa84:	746e656d 	strbtvc	r6, [lr], #-1389	; 0xfffffa93
    aa88:	6d756420 	cfldrdvs	mvd6, [r5, #-128]!	; 0xffffff80
    aa8c:	65725f70 	ldrbvs	r5, [r2, #-3952]!	; 0xfffff090
    aa90:	0a217367 	beq	867834 <__bss_end__+0x85c56c>
    aa94:	0000000a 	andeq	r0, r0, sl

0000aa98 <__FUNCTION__.4052>:
    aa98:	6b72616d 	blvs	1ca3054 <__bss_end__+0x1c97d8c>
    aa9c:	00000000 	andeq	r0, r0, r0

0000aaa0 <__FUNCTION__.4109>:
    aaa0:	65657773 	strbvs	r7, [r5, #-1907]!	; 0xfffff88d
    aaa4:	72665f70 	rsbvc	r5, r6, #112, 30	; 0x1c0
    aaa8:	00006565 	andeq	r6, r0, r5, ror #10

0000aaac <__FUNCTION__.4039>:
    aaac:	6b726273 	blvs	1ca3480 <__bss_end__+0x1c981b8>
    aab0:	00000000 	andeq	r0, r0, r0

0000aab4 <__FUNCTION__.4096>:
    aab4:	63656863 	cmnvs	r5, #6488064	; 0x630000
    aab8:	6f6e5f6b 	svcvs	0x006e5f6b
    aabc:	61656c5f 	cmnvs	r5, pc, asr ip
    aac0:	0000006b 	andeq	r0, r0, fp, rrx

0000aac4 <__FUNCTION__.4101>:
    aac4:	63656863 	cmnvs	r5, #6488064	; 0x630000
    aac8:	68735f6b 	ldmdavs	r3!, {r0, r1, r3, r5, r6, r8, r9, sl, fp, ip, lr}^
    aacc:	646c756f 	strbtvs	r7, [ip], #-1391	; 0xfffffa91
    aad0:	61656c5f 	cmnvs	r5, pc, asr ip
    aad4:	0000006b 	andeq	r0, r0, fp, rrx

0000aad8 <__FUNCTION__.4120>:
    aad8:	6c706d69 	ldclvs	13, cr6, [r0], #-420	; 0xfffffe5c
    aadc:	6e656d65 	cdpvs	13, 6, cr6, cr5, cr5, {3}
    aae0:	68745f74 	ldmdavs	r4!, {r2, r4, r5, r6, r8, r9, sl, fp, ip, lr}^
    aae4:	00007369 	andeq	r7, r0, r9, ror #6
    aae8:	003f3f3f 	eorseq	r3, pc, pc, lsr pc	; <UNPREDICTABLE>
    aaec:	20642523 	rsbcs	r2, r4, r3, lsr #10
    aaf0:	28207825 	stmdacs	r0!, {r0, r2, r5, fp, ip, sp, lr}
    aaf4:	0a297325 	beq	a67790 <__bss_end__+0xa5c4c8>
    aaf8:	00000000 	andeq	r0, r0, r0
    aafc:	696c2f2e 	stmdbvs	ip!, {r1, r2, r3, r5, r8, r9, sl, fp, sp}^
    ab00:	762f6362 	strtvc	r6, [pc], -r2, ror #6
    ab04:	72702d61 	rsbsvc	r2, r0, #6208	; 0x1840
    ab08:	6b746e69 	blvs	1d264b4 <__bss_end__+0x1d1b1ec>
    ab0c:	0000632e 	andeq	r6, r0, lr, lsr #6
    ab10:	33323130 	teqcc	r2, #12
    ab14:	37363534 			; <UNDEFINED> instruction: 0x37363534
    ab18:	62613938 	rsbvs	r3, r1, #56, 18	; 0xe0000
    ab1c:	66656463 	strbtvs	r6, [r5], -r3, ror #8
    ab20:	00000000 	andeq	r0, r0, r0
    ab24:	00003130 	andeq	r3, r0, r0, lsr r1
    ab28:	33323130 	teqcc	r2, #12
    ab2c:	37363534 			; <UNDEFINED> instruction: 0x37363534
    ab30:	00003938 	andeq	r3, r0, r8, lsr r9
    ab34:	63747570 	cmnvs	r4, #112, 10	; 0x1c000000
    ab38:	0070665f 	rsbseq	r6, r0, pc, asr r6
    ab3c:	74646977 	strbtvc	r6, [r4], #-2423	; 0xfffff689
    ab40:	203c2068 	eorscs	r2, ip, r8, rrx
    ab44:	00003233 	andeq	r3, r0, r3, lsr r2
    ab48:	00786c6c 	rsbseq	r6, r8, ip, ror #24
    ab4c:	253d3078 	ldrcs	r3, [sp, #-120]!	; 0xffffff88
    ab50:	00000a78 	andeq	r0, r0, r8, ror sl
    ab54:	253d3178 	ldrcs	r3, [sp, #-376]!	; 0xfffffe88
    ab58:	00000a78 	andeq	r0, r0, r8, ror sl
    ab5c:	00646c6c 	rsbeq	r6, r4, ip, ror #24
    ab60:	6e727473 	mrcvs	4, 3, r7, cr2, cr3, {3}
    ab64:	28706d63 	ldmdacs	r0!, {r0, r1, r5, r6, r8, sl, fp, sp, lr}^
    ab68:	202c7974 	eorcs	r7, ip, r4, ror r9
    ab6c:	786c6c22 	stmdavc	ip!, {r1, r5, sl, fp, sp, lr}^
    ab70:	33202c22 			; <UNDEFINED> instruction: 0x33202c22
    ab74:	3d3d2029 	ldccc	0, cr2, [sp, #-164]!	; 0xffffff5c
    ab78:	7c203020 	stcvc	0, cr3, [r0], #-128	; 0xffffff80
    ab7c:	7473207c 	ldrbtvc	r2, [r3], #-124	; 0xffffff84
    ab80:	6d636e72 	stclvs	14, cr6, [r3, #-456]!	; 0xfffffe38
    ab84:	79742870 	ldmdbvc	r4!, {r4, r5, r6, fp, sp}^
    ab88:	6c22202c 	stcvs	0, cr2, [r2], #-176	; 0xffffff50
    ab8c:	2c22646c 	cfstrscs	mvf6, [r2], #-432	; 0xfffffe50
    ab90:	20293320 	eorcs	r3, r9, r0, lsr #6
    ab94:	30203d3d 	eorcc	r3, r0, sp, lsr sp
    ab98:	00000000 	andeq	r0, r0, r0
    ab9c:	494e4150 	stmdbmi	lr, {r4, r6, r8, lr}^
    aba0:	73253a43 			; <UNDEFINED> instruction: 0x73253a43
    aba4:	3a73253a 	bcc	1cd4094 <__bss_end__+0x1cc8dcc>
    aba8:	693a6425 	ldmdbvs	sl!, {r0, r2, r5, sl, sp, lr}
    abac:	736f706d 	cmnvc	pc, #109, 0	; 0x6d
    abb0:	6c626973 			; <UNDEFINED> instruction: 0x6c626973
    abb4:	66203a65 	strtvs	r3, [r0], -r5, ror #20
    abb8:	3c3d746d 	cfldrscc	mvf7, [sp], #-436	; 0xfffffe4c
    abbc:	0a3e7325 	beq	fa7858 <__bss_end__+0xf9c590>
    abc0:	0000000a 	andeq	r0, r0, sl
    abc4:	494e4150 	stmdbmi	lr, {r4, r6, r8, lr}^
    abc8:	73253a43 			; <UNDEFINED> instruction: 0x73253a43
    abcc:	3a73253a 	bcc	1cd40bc <__bss_end__+0x1cc8df4>
    abd0:	663a6425 	ldrtvs	r6, [sl], -r5, lsr #8
    abd4:	74616f6c 	strbtvc	r6, [r1], #-3948	; 0xfffff094
    abd8:	746f6e20 	strbtvc	r6, [pc], #-3616	; abe0 <__FUNCTION__.4120+0x108>
    abdc:	616e6520 	cmnvs	lr, r0, lsr #10
    abe0:	64656c62 	strbtvs	r6, [r5], #-3170	; 0xfffff39e
    abe4:	0a212121 	beq	853070 <__bss_end__+0x847da8>
    abe8:	00000000 	andeq	r0, r0, r0
    abec:	6e697270 	mcrvs	2, 3, r7, cr9, cr0, {3}
    abf0:	203a6b74 	eorscs	r6, sl, r4, ror fp
    abf4:	20746f6e 	rsbscs	r6, r4, lr, ror #30
    abf8:	646e6168 	strbtvs	r6, [lr], #-360	; 0xfffffe98
    abfc:	676e696c 	strbvs	r6, [lr, -ip, ror #18]!
    ac00:	65707320 	ldrbvs	r7, [r0, #-800]!	; 0xfffffce0
    ac04:	69666963 	stmdbvs	r6!, {r0, r1, r5, r6, r8, fp, sp, lr}^
    ac08:	27207265 	strcs	r7, [r0, -r5, ror #4]!
    ac0c:	20276325 	eorcs	r6, r7, r5, lsr #6
    ac10:	63736128 	cmnvs	r3, #10
    ac14:	253d6969 	ldrcs	r6, [sp, #-2409]!	; 0xfffff697
    ac18:	000a2964 	andeq	r2, sl, r4, ror #18
    ac1c:	494e4150 	stmdbmi	lr, {r4, r6, r8, lr}^
    ac20:	73253a43 			; <UNDEFINED> instruction: 0x73253a43
    ac24:	3a73253a 	bcc	1cd4114 <__bss_end__+0x1cc8e4c>
    ac28:	703a6425 	eorsvc	r6, sl, r5, lsr #8
    ac2c:	746e6972 	strbtvc	r6, [lr], #-2418	; 0xfffff68e
    ac30:	7265206b 	rsbvc	r2, r5, #107, 0	; 0x6b
    ac34:	0a726f72 	beq	1ca6a04 <__bss_end__+0x1c9b73c>
    ac38:	0000000a 	andeq	r0, r0, sl

0000ac3c <__FUNCTION__.4004>:
    ac3c:	74696d65 	strbtvc	r6, [r9], #-3429	; 0xfffff29b
    ac40:	00000000 	andeq	r0, r0, r0

0000ac44 <__FUNCTION__.3952>:
    ac44:	5f697072 	svcpl	0x00697072
    ac48:	5f746573 	svcpl	0x00746573
    ac4c:	7074756f 	rsbsvc	r7, r4, pc, ror #10
    ac50:	00007475 	andeq	r7, r0, r5, ror r4

0000ac54 <__FUNCTION__.4030>:
    ac54:	705f6176 	subsvc	r6, pc, r6, ror r1	; <UNPREDICTABLE>
    ac58:	746e6972 	strbtvc	r6, [lr], #-2418	; 0xfffff68e
    ac5c:	0000006b 	andeq	r0, r0, fp, rrx
    ac60:	454e4f44 	strbmi	r4, [lr, #-3908]	; 0xfffff0bc
    ac64:	0a212121 	beq	8530f0 <__bss_end__+0x847e28>
    ac68:	00000000 	andeq	r0, r0, r0
    ac6c:	6e75525b 	mrcvs	2, 3, r5, cr5, cr11, {2}
    ac70:	676e696e 	strbvs	r6, [lr, -lr, ror #18]!
    ac74:	6f6f7420 	svcvs	0x006f7420
    ac78:	6425206b 	strtvs	r2, [r5], #-107	; 0xffffff95
    ac7c:	63796320 	cmnvs	r9, #32, 6	; 0x80000000
    ac80:	5d73656c 	cfldr64pl	mvdx6, [r3, #-432]!	; 0xfffffe50
    ac84:	0000000a 	andeq	r0, r0, sl
    ac88:	6c616d6b 	stclvs	13, cr6, [r1], #-428	; 0xfffffe54
    ac8c:	2e636f6c 	cdpcs	15, 6, cr6, cr3, cr12, {3}
    ac90:	00000063 	andeq	r0, r0, r3, rrx
    ac94:	5f78616d 	svcpl	0x0078616d
    ac98:	7479626e 	ldrbtvc	r6, [r9], #-622	; 0xfffffd92
    ac9c:	00007365 	andeq	r7, r0, r5, ror #6
    aca0:	494e4150 	stmdbmi	lr, {r4, r6, r8, lr}^
    aca4:	73253a43 			; <UNDEFINED> instruction: 0x73253a43
    aca8:	3a73253a 	bcc	1cd4198 <__bss_end__+0x1cc8ed0>
    acac:	733a6425 	teqvc	sl, #620756992	; 0x25000000
    acb0:	69747465 	ldmdbvs	r4!, {r0, r2, r5, r6, sl, ip, sp, lr}^
    acb4:	6820676e 	stmdavs	r0!, {r1, r2, r3, r5, r6, r8, r9, sl, sp, lr}
    acb8:	20706165 	rsbscs	r6, r0, r5, ror #2
    acbc:	25206f74 	strcs	r6, [r0, #-3956]!	; 0xfffff08c
    acc0:	77203a70 			; <UNDEFINED> instruction: 0x77203a70
    acc4:	206c6c69 	rsbcs	r6, ip, r9, ror #24
    acc8:	20746968 	rsbscs	r6, r4, r8, ror #18
    accc:	20656874 	rsbcs	r6, r5, r4, ror r8
    acd0:	20646c6f 	rsbcs	r6, r4, pc, ror #24
    acd4:	70616568 	rsbvc	r6, r1, r8, ror #10
    acd8:	20746120 	rsbscs	r6, r4, r0, lsr #2
    acdc:	0a0a7025 	beq	2a6d78 <__bss_end__+0x29bab0>
    ace0:	00000000 	andeq	r0, r0, r0
    ace4:	494e4150 	stmdbmi	lr, {r4, r6, r8, lr}^
    ace8:	73253a43 			; <UNDEFINED> instruction: 0x73253a43
    acec:	3a73253a 	bcc	1cd41dc <__bss_end__+0x1cc8f14>
    acf0:	613a6425 	teqvs	sl, r5, lsr #8
    acf4:	6165726c 	cmnvs	r5, ip, ror #4
    acf8:	63207964 			; <UNDEFINED> instruction: 0x63207964
    acfc:	656c6c61 	strbvs	r6, [ip, #-3169]!	; 0xfffff39f
    ad00:	6d6b2064 	stclvs	0, cr2, [fp, #-400]!	; 0xfffffe70
    ad04:	6f6c6c61 	svcvs	0x006c6c61
    ad08:	6e695f63 	cdpvs	15, 6, cr5, cr9, cr3, {3}
    ad0c:	0a0a7469 	beq	2a7eb8 <__bss_end__+0x29cbf0>
    ad10:	00000000 	andeq	r0, r0, r0
    ad14:	494e4150 	stmdbmi	lr, {r4, r6, r8, lr}^
    ad18:	73253a43 			; <UNDEFINED> instruction: 0x73253a43
    ad1c:	3a73253a 	bcc	1cd420c <__bss_end__+0x1cc8f44>
    ad20:	253a6425 	ldrcs	r6, [sl, #-1061]!	; 0xfffffbdb
    ad24:	626e2064 	rsbvs	r2, lr, #100, 0	; 0x64
    ad28:	73657479 	cmnvc	r5, #2030043136	; 0x79000000
    ad2c:	63786520 	cmnvs	r8, #32, 10	; 0x8000000
    ad30:	65646565 	strbvs	r6, [r4, #-1381]!	; 0xfffffa9b
    ad34:	69732064 	ldmdbvs	r3!, {r2, r5, r6, sp}^
    ad38:	6f20657a 	svcvs	0x0020657a
    ad3c:	65682066 	strbvs	r2, [r8, #-102]!	; 0xffffff9a
    ad40:	62207061 	eorvs	r7, r0, #97, 0	; 0x61
    ad44:	75252079 	strvc	r2, [r5, #-121]!	; 0xffffff87
    ad48:	79626e20 	stmdbvc	r2!, {r5, r9, sl, fp, sp, lr}^
    ad4c:	0a736574 	beq	1ce4324 <__bss_end__+0x1cd905c>
    ad50:	0000000a 	andeq	r0, r0, sl
    ad54:	4f525245 	svcmi	0x00525245
    ad58:	73253a52 			; <UNDEFINED> instruction: 0x73253a52
    ad5c:	3a73253a 	bcc	1cd424c <__bss_end__+0x1cc8f84>
    ad60:	203a6425 	eorscs	r6, sl, r5, lsr #8
    ad64:	534c4146 	movtpl	r4, #49478	; 0xc146
    ad68:	253c2845 	ldrcs	r2, [ip, #-2117]!	; 0xfffff7bb
    ad6c:	3a293e73 	bcc	a5a740 <__bss_end__+0xa4f478>
    ad70:	73736120 	cmnvc	r3, #8
    ad74:	6e696d75 	mcrvs	13, 3, r6, cr9, cr5, {3}
    ad78:	6f702067 	svcvs	0x00702067
    ad7c:	20726577 	rsbscs	r6, r2, r7, ror r5
    ad80:	7420666f 	strtvc	r6, [r0], #-1647	; 0xfffff991
    ad84:	000a6f77 	andeq	r6, sl, r7, ror pc
    ad88:	705f7369 	subsvc	r7, pc, r9, ror #6
    ad8c:	2832776f 	ldmdacs	r2!, {r0, r1, r2, r3, r5, r6, r8, r9, sl, ip, sp, lr}
    ad90:	67696c61 	strbvs	r6, [r9, -r1, ror #24]!
    ad94:	6e656d6e 	cdpvs	13, 6, cr6, cr5, cr14, {3}
    ad98:	00002974 	andeq	r2, r0, r4, ror r9
    ad9c:	705f7369 	subsvc	r7, pc, r9, ror #6
    ada0:	2832776f 	ldmdacs	r2!, {r0, r1, r2, r3, r5, r6, r8, r9, sl, ip, sp, lr}
    ada4:	0000296e 	andeq	r2, r0, lr, ror #18
    ada8:	4f525245 	svcmi	0x00525245
    adac:	73253a52 			; <UNDEFINED> instruction: 0x73253a52
    adb0:	3a73253a 	bcc	1cd42a0 <__bss_end__+0x1cc8fd8>
    adb4:	203a6425 	eorscs	r6, sl, r5, lsr #8
    adb8:	534c4146 	movtpl	r4, #49478	; 0xc146
    adbc:	253c2845 	ldrcs	r2, [ip, #-2117]!	; 0xfffff7bb
    adc0:	3a293e73 	bcc	a5a794 <__bss_end__+0xa4f4cc>
    adc4:	706d6920 	rsbvc	r6, sp, r0, lsr #18
    adc8:	6973736f 	ldmdbvs	r3!, {r0, r1, r2, r3, r5, r6, r8, r9, ip, sp, lr}^
    adcc:	0a656c62 	beq	1965f5c <__bss_end__+0x195ac94>
    add0:	00000000 	andeq	r0, r0, r0
    add4:	615f7369 	cmpvs	pc, r9, ror #6
    add8:	6e67696c 	vnmulvs.f16	s13, s14, s25	; <UNPREDICTABLE>
    addc:	68286465 	stmdavs	r8!, {r0, r2, r5, r6, sl, sp, lr}
    ade0:	6c61202c 	stclvs	0, cr2, [r1], #-176	; 0xffffff50
    ade4:	6d6e6769 	stclvs	7, cr6, [lr, #-420]!	; 0xfffffe5c
    ade8:	29746e65 	ldmdbcs	r4!, {r0, r2, r5, r6, r9, sl, fp, sp, lr}^
    adec:	00000000 	andeq	r0, r0, r0
    adf0:	494e4150 	stmdbmi	lr, {r4, r6, r8, lr}^
    adf4:	73253a43 			; <UNDEFINED> instruction: 0x73253a43
    adf8:	3a73253a 	bcc	1cd42e8 <__bss_end__+0x1cc9020>
    adfc:	703a6425 	eorsvc	r6, sl, r5, lsr #8
    ae00:	746e696f 	strbtvc	r6, [lr], #-2415	; 0xfffff691
    ae04:	25207265 	strcs	r7, [r0, #-613]!	; 0xfffffd9b
    ae08:	61772070 	cmnvs	r7, r0, ror r0
    ae0c:	656e2073 	strbvs	r2, [lr, #-115]!	; 0xffffff8d
    ae10:	20726576 	rsbscs	r6, r2, r6, ror r5
    ae14:	6f6c6c61 	svcvs	0x006c6c61
    ae18:	65746163 	ldrbvs	r6, [r4, #-355]!	; 0xfffffe9d
    ae1c:	000a0a64 	andeq	r0, sl, r4, ror #20

0000ae20 <__FUNCTION__.7>:
    ae20:	6c616d6b 	stclvs	13, cr6, [r1], #-428	; 0xfffffe54
    ae24:	5f636f6c 	svcpl	0x00636f6c
    ae28:	74696e69 	strbtvc	r6, [r9], #-3689	; 0xfffff197
    ae2c:	7465735f 	strbtvc	r7, [r5], #-863	; 0xfffffca1
    ae30:	6174735f 	cmnvs	r4, pc, asr r3
    ae34:	00007472 	andeq	r7, r0, r2, ror r4

0000ae38 <__FUNCTION__.5>:
    ae38:	6c616d6b 	stclvs	13, cr6, [r1], #-428	; 0xfffffe54
    ae3c:	5f636f6c 	svcpl	0x00636f6c
    ae40:	74696e69 	strbtvc	r6, [r9], #-3689	; 0xfffff197
    ae44:	00000000 	andeq	r0, r0, r0

0000ae48 <__FUNCTION__.4>:
    ae48:	6c616d6b 	stclvs	13, cr6, [r1], #-428	; 0xfffffe54
    ae4c:	5f636f6c 	svcpl	0x00636f6c
    ae50:	7a746f6e 	bvc	1d26c10 <__bss_end__+0x1d1b948>
    ae54:	006f7265 	rsbeq	r7, pc, r5, ror #4

0000ae58 <__FUNCTION__.2>:
    ae58:	6c616d6b 	stclvs	13, cr6, [r1], #-428	; 0xfffffe54
    ae5c:	00636f6c 	rsbeq	r6, r3, ip, ror #30

0000ae60 <__FUNCTION__.1>:
    ae60:	6c616d6b 	stclvs	13, cr6, [r1], #-428	; 0xfffffe54
    ae64:	5f636f6c 	svcpl	0x00636f6c
    ae68:	67696c61 	strbvs	r6, [r9, -r1, ror #24]!
    ae6c:	0064656e 	rsbeq	r6, r4, lr, ror #10

0000ae70 <__FUNCTION__.3>:
    ae70:	6e756f72 	mrcvs	15, 3, r6, cr5, cr2, {3}
    ae74:	00707564 	rsbseq	r7, r0, r4, ror #10

0000ae78 <__FUNCTION__.0>:
    ae78:	6572666b 	ldrbvs	r6, [r2, #-1643]!	; 0xfffff995
    ae7c:	6f705f65 	svcvs	0x00705f65
    ae80:	Address 0x000000000000ae80 is out of bounds.


Disassembly of section .data:

0000ae84 <putk>:
    ae84:	0000904c 	andeq	r9, r0, ip, asr #32

0000ae88 <heap>:
    ae88:	0000b2c8 	andeq	fp, r0, r8, asr #5

0000ae8c <heap_start>:
    ae8c:	0000b2c8 	andeq	fp, r0, r8, asr #5

0000ae90 <heap_end>:
    ae90:	0020b2c8 	eoreq	fp, r0, r8, asr #5

0000ae94 <rpi_putchar>:
    ae94:	0000a470 	andeq	sl, r0, r0, ror r4

Disassembly of section .bss:

0000ae98 <__bss_start__>:
	...

0000aea0 <freep>:
	...

0000aea8 <base>:
	...

0000aeb0 <heap_start>:
    aeb0:	00000000 	andeq	r0, r0, r0

0000aeb4 <heap_end>:
    aeb4:	00000000 	andeq	r0, r0, r0

0000aeb8 <init_p.4038>:
    aeb8:	00000000 	andeq	r0, r0, r0

0000aebc <buf.3944>:
	...

0000b2bc <last.3937>:
    b2bc:	00000000 	andeq	r0, r0, r0

0000b2c0 <init_p.6>:
	...

Disassembly of section .ARM.attributes:

00000000 <.ARM.attributes>:
   0:	00002a41 	andeq	r2, r0, r1, asr #20
   4:	61656100 	cmnvs	r5, r0, lsl #2
   8:	01006962 	tsteq	r0, r2, ror #18
   c:	00000020 	andeq	r0, r0, r0, lsr #32
  10:	4b5a3605 	blmi	168d82c <__bss_end__+0x1682564>
  14:	08070600 	stmdaeq	r7, {r9, sl}
  18:	12010901 	andne	r0, r1, #16384	; 0x4000
  1c:	15011404 	strne	r1, [r1, #-1028]	; 0xfffffbfc
  20:	18031701 	stmdane	r3, {r0, r8, r9, sl, ip}
  24:	22011a01 	andcs	r1, r1, #4096	; 0x1000
  28:	Address 0x0000000000000028 is out of bounds.


Disassembly of section .comment:

00000000 <.comment>:
   0:	3a434347 	bcc	10d0d24 <__bss_end__+0x10c5a5c>
   4:	4e472820 	cdpmi	8, 4, cr2, cr7, cr0, {1}
   8:	6f542055 	svcvs	0x00542055
   c:	20736c6f 	rsbscs	r6, r3, pc, ror #24
  10:	20726f66 	rsbscs	r6, r2, r6, ror #30
  14:	206d7241 	rsbcs	r7, sp, r1, asr #4
  18:	65626d45 	strbvs	r6, [r2, #-3397]!	; 0xfffff2bb
  1c:	64656464 	strbtvs	r6, [r5], #-1124	; 0xfffffb9c
  20:	6f725020 	svcvs	0x00725020
  24:	73736563 	cmnvc	r3, #415236096	; 0x18c00000
  28:	2073726f 	rsbscs	r7, r3, pc, ror #4
  2c:	30322d39 	eorscc	r2, r2, r9, lsr sp
  30:	712d3931 			; <UNDEFINED> instruction: 0x712d3931
  34:	616d2d34 	cmnvs	sp, r4, lsr sp
  38:	29726f6a 	ldmdbcs	r2!, {r1, r3, r5, r6, r8, r9, sl, fp, sp, lr}^
  3c:	322e3920 	eorcc	r3, lr, #32, 18	; 0x80000
  40:	3220312e 	eorcc	r3, r0, #-2147483637	; 0x8000000b
  44:	31393130 	teqcc	r9, r0, lsr r1
  48:	20353230 	eorscs	r3, r5, r0, lsr r2
  4c:	6c657228 	sfmvs	f7, 2, [r5], #-160	; 0xffffff60
  50:	65736165 	ldrbvs	r6, [r3, #-357]!	; 0xfffffe9b
  54:	415b2029 	cmpmi	fp, r9, lsr #32
  58:	612f4d52 			; <UNDEFINED> instruction: 0x612f4d52
  5c:	392d6d72 	pushcc	{r1, r4, r5, r6, r8, sl, fp, sp, lr}
  60:	6172622d 	cmnvs	r2, sp, lsr #4
  64:	2068636e 	rsbcs	r6, r8, lr, ror #6
  68:	69766572 	ldmdbvs	r6!, {r1, r4, r5, r6, r8, sl, sp, lr}^
  6c:	6e6f6973 			; <UNDEFINED> instruction: 0x6e6f6973
  70:	37373220 	ldrcc	r3, [r7, -r0, lsr #4]!
  74:	5d393935 			; <UNDEFINED> instruction: 0x5d393935
  78:	43434700 	movtmi	r4, #14080	; 0x3700
  7c:	4728203a 			; <UNDEFINED> instruction: 0x4728203a
  80:	4120554e 			; <UNDEFINED> instruction: 0x4120554e
  84:	45206d72 	strmi	r6, [r0, #-3442]!	; 0xfffff28e
  88:	6465626d 	strbtvs	r6, [r5], #-621	; 0xfffffd93
  8c:	20646564 	rsbcs	r6, r4, r4, ror #10
  90:	6c6f6f54 	stclvs	15, cr6, [pc], #-336	; ffffff48 <__bss_end__+0xffff4c80>
  94:	69616863 	stmdbvs	r1!, {r0, r1, r5, r6, fp, sp, lr}^
  98:	3031206e 	eorscc	r2, r1, lr, rrx
  9c:	322d332e 	eorcc	r3, sp, #-1207959552	; 0xb8000000
  a0:	2e313230 	mrccs	2, 1, r3, cr1, cr0, {1}
  a4:	20293031 	eorcs	r3, r9, r1, lsr r0
  a8:	332e3031 			; <UNDEFINED> instruction: 0x332e3031
  ac:	3220312e 	eorcc	r3, r0, #-2147483637	; 0x8000000b
  b0:	30313230 	eorscc	r3, r1, r0, lsr r2
  b4:	20343238 	eorscs	r3, r4, r8, lsr r2
  b8:	6c657228 	sfmvs	f7, 2, [r5], #-160	; 0xffffff60
  bc:	65736165 	ldrbvs	r6, [r3, #-357]!	; 0xfffffe9b
  c0:	Address 0x00000000000000c0 is out of bounds.


Disassembly of section .debug_info:

00000000 <.debug_info>:
       0:	000004b3 			; <UNDEFINED> instruction: 0x000004b3
       4:	00000004 	andeq	r0, r0, r4
       8:	01040000 	mrseq	r0, (UNDEF: 4)
       c:	0000007e 	andeq	r0, r0, lr, ror r0
      10:	00019d0c 	andeq	r9, r1, ip, lsl #26
      14:	0001e200 	andeq	lr, r1, r0, lsl #4
      18:	00803800 	addeq	r3, r0, r0, lsl #16
      1c:	0001b400 	andeq	fp, r1, r0, lsl #8
      20:	00000000 	andeq	r0, r0, r0
      24:	05040200 	streq	r0, [r4, #-512]	; 0xfffffe00
      28:	00746e69 	rsbseq	r6, r4, r9, ror #28
      2c:	71070403 	tstvc	r7, r3, lsl #8
      30:	03000001 	movweq	r0, #1
      34:	00720601 	rsbseq	r0, r2, r1, lsl #12
      38:	02030000 	andeq	r0, r3, #0, 0
      3c:	00000005 	andeq	r0, r0, r5
      40:	05040300 	streq	r0, [r4, #-768]	; 0xfffffd00
      44:	00000033 	andeq	r0, r0, r3, lsr r0
      48:	2e050803 	cdpcs	8, 0, cr0, cr5, cr3, {0}
      4c:	03000000 	movweq	r0, #0
      50:	00700801 	rsbseq	r0, r0, r1, lsl #16
      54:	02030000 	andeq	r0, r3, #0, 0
      58:	0001b807 	andeq	fp, r1, r7, lsl #16
      5c:	017e0400 	cmneq	lr, r0, lsl #8
      60:	34040000 	strcc	r0, [r4], #-0
      64:	00006919 	andeq	r6, r0, r9, lsl r9
      68:	07040300 	streq	r0, [r4, -r0, lsl #6]
      6c:	0000016c 	andeq	r0, r0, ip, ror #2
      70:	67070803 	strvs	r0, [r7, -r3, lsl #16]
      74:	05000001 	streq	r0, [r0, #-1]
      78:	00000025 	andeq	r0, r0, r5, lsr #32
      7c:	00000086 	andeq	r0, r0, r6, lsl #1
      80:	00002506 	andeq	r2, r0, r6, lsl #10
      84:	0a070000 	beq	1c008c <__bss_end__+0x1b4dc4>
      88:	03000000 	movweq	r0, #0
      8c:	00920e1c 	addseq	r0, r2, ip, lsl lr
      90:	04080000 	streq	r0, [r8], #-0
      94:	00000077 	andeq	r0, r0, r7, ror r0
      98:	00002505 	andeq	r2, r0, r5, lsl #10
      9c:	0000a700 	andeq	sl, r0, r0, lsl #14
      a0:	00a70600 	adceq	r0, r7, r0, lsl #12
      a4:	08000000 	stmdaeq	r0, {}	; <UNPREDICTABLE>
      a8:	0000b404 	andeq	fp, r0, r4, lsl #8
      ac:	08010300 	stmdaeq	r1, {r8, r9}
      b0:	00000079 	andeq	r0, r0, r9, ror r0
      b4:	0000ad09 	andeq	sl, r0, r9, lsl #26
      b8:	06790700 	ldrbteq	r0, [r9], -r0, lsl #14
      bc:	21030000 	mrscs	r0, (UNDEF: 3)
      c0:	0000c50e 	andeq	ip, r0, lr, lsl #10
      c4:	98040800 	stmdals	r4, {fp}
      c8:	0a000000 	beq	d0 <__code_start__-0x7f30>
      cc:	0905020c 	stmdbeq	r5, {r2, r3, r9}
      d0:	000000fc 	strdeq	r0, [r0], -ip
      d4:	00001e0b 	andeq	r1, r0, fp, lsl #28
      d8:	11070200 	mrsne	r0, (UNDEF: 39)
      dc:	000000a7 	andeq	r0, r0, r7, lsr #1
      e0:	00290b00 	eoreq	r0, r9, r0, lsl #22
      e4:	08020000 	stmdaeq	r2, {}	; <UNPREDICTABLE>
      e8:	0000a711 	andeq	sl, r0, r1, lsl r7
      ec:	600b0400 	andvs	r0, fp, r0, lsl #8
      f0:	02000001 	andeq	r0, r0, #1, 0
      f4:	002c0e09 	eoreq	r0, ip, r9, lsl #28
      f8:	00080000 	andeq	r0, r8, r0
      fc:	00022b04 	andeq	r2, r2, r4, lsl #22
     100:	030a0200 	movweq	r0, #41472	; 0xa200
     104:	000000cb 	andeq	r0, r0, fp, asr #1
     108:	6307040c 	movwvs	r0, #29708	; 0x740c
     10c:	05000000 	streq	r0, [r0, #-0]
     110:	002c11a9 	eoreq	r1, ip, r9, lsr #3
     114:	620d0000 	andvs	r0, sp, #0, 0
     118:	01007261 	tsteq	r0, r1, ror #4
     11c:	002c0a4c 	eoreq	r0, ip, ip, asr #20
     120:	81200000 			; <UNDEFINED> instruction: 0x81200000
     124:	00240000 	eoreq	r0, r4, r0
     128:	9c010000 	stcls	0, cr0, [r1], {-0}
     12c:	0000015b 	andeq	r0, r0, fp, asr r1
     130:	0100700e 	tsteq	r0, lr
     134:	01080b4d 	tsteq	r8, sp, asr #22
     138:	00040000 	andeq	r0, r4, r0
     13c:	00000000 	andeq	r0, r0, r0
     140:	300f0000 	andcc	r0, pc, r0
     144:	8a000081 	bhi	350 <__code_start__-0x7cb0>
     148:	10000002 	andne	r0, r0, r2
     14c:	0000813c 	andeq	r8, r0, ip, lsr r1
     150:	0000044d 	andeq	r0, r0, sp, asr #8
     154:	01500111 	cmpeq	r0, r1, lsl r1
     158:	12000030 	andne	r0, r0, #48, 0	; 0x30
     15c:	00000195 	muleq	r0, r5, r1
     160:	50062b01 	andpl	r2, r6, r1, lsl #22
     164:	9c000081 	stcls	0, cr0, [r0], {129}	; 0x81
     168:	01000000 	mrseq	r0, (UNDEF: 0)
     16c:	0002759c 	muleq	r2, ip, r5
     170:	00781300 	rsbseq	r1, r8, r0, lsl #6
     174:	2c0e3101 	stfcss	f3, [lr], {1}
     178:	0e000000 	cdpeq	0, 0, cr0, cr0, cr0, {0}
     17c:	4201006e 	andmi	r0, r1, #110, 0	; 0x6e
     180:	00002c0e 	andeq	r2, r0, lr, lsl #24
     184:	00002800 	andeq	r2, r0, r0, lsl #16
     188:	00002200 	andeq	r2, r0, r0, lsl #4
     18c:	00491400 	subeq	r1, r9, r0, lsl #8
     190:	02850000 	addeq	r0, r5, #0, 0
     194:	03050000 	movweq	r0, #20480	; 0x5000
     198:	0000a6e0 	andeq	sl, r0, r0, ror #13
     19c:	00816815 	addeq	r6, r1, r5, lsl r8
     1a0:	00045900 	andeq	r5, r4, r0, lsl #18
     1a4:	0001b300 	andeq	fp, r1, r0, lsl #6
     1a8:	50011100 	andpl	r1, r1, r0, lsl #2
     1ac:	a5ec0305 	strbge	r0, [ip, #773]!	; 0x305
     1b0:	0f000000 	svceq	0x00000000
     1b4:	0000816c 	andeq	r8, r0, ip, ror #2
     1b8:	00000116 	andeq	r0, r0, r6, lsl r1
     1bc:	00817415 	addeq	r7, r1, r5, lsl r4
     1c0:	00045900 	andeq	r5, r4, r0, lsl #18
     1c4:	0001d300 	andeq	sp, r1, r0, lsl #6
     1c8:	50011100 	andpl	r1, r1, r0, lsl #2
     1cc:	a6280305 	strtge	r0, [r8], -r5, lsl #6
     1d0:	0f000000 	svceq	0x00000000
     1d4:	00008178 	andeq	r8, r0, r8, ror r1
     1d8:	00000465 	andeq	r0, r0, r5, ror #8
     1dc:	00817c0f 	addeq	r7, r1, pc, lsl #24
     1e0:	00047100 	andeq	r7, r4, r0, lsl #2
     1e4:	81881500 	orrhi	r1, r8, r0, lsl #10
     1e8:	04590000 	ldrbeq	r0, [r9], #-0
     1ec:	01fc0000 	mvnseq	r0, r0
     1f0:	01110000 	tsteq	r1, r0
     1f4:	3c030550 	cfstr32cc	mvfx0, [r3], {80}	; 0x50
     1f8:	000000a6 	andeq	r0, r0, r6, lsr #1
     1fc:	00819015 	addeq	r9, r1, r5, lsl r0
     200:	00045900 	andeq	r5, r4, r0, lsl #18
     204:	00021300 	andeq	r1, r2, r0, lsl #6
     208:	50011100 	andpl	r1, r1, r0, lsl #2
     20c:	a65c0305 	ldrbge	r0, [ip], -r5, lsl #6
     210:	0f000000 	svceq	0x00000000
     214:	00008194 	muleq	r0, r4, r1
     218:	00000471 	andeq	r0, r0, r1, ror r4
     21c:	0081a415 	addeq	sl, r1, r5, lsl r4
     220:	00045900 	andeq	r5, r4, r0, lsl #18
     224:	00023300 	andeq	r3, r2, r0, lsl #6
     228:	50011100 	andpl	r1, r1, r0, lsl #2
     22c:	a6bc0305 	ldrtge	r0, [ip], r5, lsl #6
     230:	0f000000 	svceq	0x00000000
     234:	000081a8 	andeq	r8, r0, r8, lsr #3
     238:	0000047d 	andeq	r0, r0, sp, ror r4
     23c:	0081c815 	addeq	ip, r1, r5, lsl r8
     240:	00045900 	andeq	r5, r4, r0, lsl #18
     244:	00026b00 	andeq	r6, r2, r0, lsl #22
     248:	50011100 	andpl	r1, r1, r0, lsl #2
     24c:	a6800305 	strge	r0, [r0], r5, lsl #6
     250:	01110000 	tsteq	r1, r0
     254:	80030551 	andhi	r0, r3, r1, asr r5
     258:	110000a5 	smlatbne	r0, r5, r0, r0
     25c:	03055201 	movweq	r5, #20993	; 0x5201
     260:	0000a6e0 	andeq	sl, r0, r0, ror #13
     264:	02530111 	subseq	r0, r3, #1073741828	; 0x40000004
     268:	0f004408 	svceq	0x00004408
     26c:	000081cc 	andeq	r8, r0, ip, asr #3
     270:	00000489 	andeq	r0, r0, r9, lsl #9
     274:	00b41600 	adcseq	r1, r4, r0, lsl #12
     278:	02850000 	addeq	r0, r5, #0, 0
     27c:	2c170000 	ldccs	0, cr0, [r7], {-0}
     280:	07000000 	streq	r0, [r0, -r0]
     284:	02750900 	rsbseq	r0, r5, #0, 18
     288:	dd180000 	ldcle	0, cr0, [r8, #-0]
     28c:	01000001 	tsteq	r0, r1
     290:	0108070c 	tsteq	r8, ip, lsl #14
     294:	80440000 	subhi	r0, r4, r0
     298:	00d40000 	sbcseq	r0, r4, r0
     29c:	9c010000 	stcls	0, cr0, [r1], {-0}
     2a0:	000003fc 	strdeq	r0, [r0], -ip
     2a4:	00066b19 	andeq	r6, r6, r9, lsl fp
     2a8:	0d010c00 	stceq	12, cr0, [r1, #-0]
     2ac:	0002d70c 	andeq	sp, r2, ip, lsl #14
     2b0:	00781a00 	rsbseq	r1, r8, r0, lsl #20
     2b4:	250d0e01 	strcs	r0, [sp, #-3585]	; 0xfffff1ff
     2b8:	00000000 	andeq	r0, r0, r0
     2bc:	0002260b 	andeq	r2, r2, fp, lsl #12
     2c0:	160f0100 	strne	r0, [pc], -r0, lsl #2
     2c4:	000003fc 	strdeq	r0, [r0], -ip
     2c8:	02160b04 	andseq	r0, r6, #4, 22	; 0x1000
     2cc:	10010000 	andne	r0, r1, r0
     2d0:	0003fc16 	andeq	pc, r3, r6, lsl ip	; <UNPREDICTABLE>
     2d4:	0e000800 	cdpeq	8, 0, cr0, cr0, cr0, {0}
     2d8:	11010068 	tstne	r1, r8, rrx
     2dc:	0003fc08 	andeq	pc, r3, r8, lsl #24
     2e0:	00005a00 	andeq	r5, r0, r0, lsl #20
     2e4:	00005200 	andeq	r5, r0, r0, lsl #4
     2e8:	00491400 	subeq	r1, r9, r0, lsl #8
     2ec:	04120000 	ldreq	r0, [r2], #-0
     2f0:	03050000 	movweq	r0, #20480	; 0x5000
     2f4:	0000a6d8 	ldrdeq	sl, [r0], -r8
     2f8:	0000001b 	andeq	r0, r0, fp, lsl r0
     2fc:	0003db00 	andeq	sp, r3, r0, lsl #22
     300:	00690e00 	rsbeq	r0, r9, r0, lsl #28
     304:	250d1301 	strcs	r1, [sp, #-769]	; 0xfffffcff
     308:	93000000 	movwls	r0, #0
     30c:	8f000000 	svchi	0x00000000
     310:	1c000000 	stcne	0, cr0, [r0], {-0}
     314:	00000020 	andeq	r0, r0, r0, lsr #32
     318:	0100650e 	tsteq	r0, lr, lsl #10
     31c:	03fc1614 	mvnseq	r1, #20, 12	; 0x1400000
     320:	00b60000 	adcseq	r0, r6, r0
     324:	00b20000 	adcseq	r0, r2, r0
     328:	171d0000 	ldrne	r0, [sp, -r0]
     32c:	7c000004 	stcvc	0, cr0, [r0], {4}
     330:	01000080 	smlabbeq	r0, r0, r0, r0
     334:	0000807c 	andeq	r8, r0, ip, ror r0
     338:	00000018 	andeq	r0, r0, r8, lsl r0
     33c:	6b1a1401 	blvs	685348 <__bss_end__+0x67a080>
     340:	1e000003 	cdpne	0, 0, cr0, cr0, cr3, {0}
     344:	00000440 	andeq	r0, r0, r0, asr #8
     348:	000000d6 	ldrdeq	r0, [r0], -r6
     34c:	000000d4 	ldrdeq	r0, [r0], -r4
     350:	0004341e 	andeq	r3, r4, lr, lsl r4
     354:	0000ec00 	andeq	lr, r0, r0, lsl #24
     358:	0000ea00 	andeq	lr, r0, r0, lsl #20
     35c:	04281e00 	strteq	r1, [r8], #-3584	; 0xfffff200
     360:	01060000 	mrseq	r0, (UNDEF: 6)
     364:	01040000 	mrseq	r0, (UNDEF: 4)
     368:	15000000 	strne	r0, [r0, #-0]
     36c:	000080a4 	andeq	r8, r0, r4, lsr #1
     370:	0000049e 	muleq	r0, lr, r4
     374:	0000037e 	andeq	r0, r0, lr, ror r3
     378:	01500111 	cmpeq	r0, r1, lsl r1
     37c:	b415003c 	ldrlt	r0, [r5], #-60	; 0xffffffc4
     380:	aa000080 	bge	588 <__code_start__-0x7a78>
     384:	9c000004 	stcls	0, cr0, [r0], {4}
     388:	11000003 	tstne	r0, r3
     38c:	74025001 	strvc	r5, [r2], #-1
     390:	51011100 	mrspl	r1, (UNDEF: 17)
     394:	01113001 	tsteq	r1, r1
     398:	003c0152 	eorseq	r0, ip, r2, asr r1
     39c:	00810015 	addeq	r0, r1, r5, lsl r0
     3a0:	00045900 	andeq	r5, r4, r0, lsl #18
     3a4:	0003d000 	andeq	sp, r3, r0
     3a8:	50011100 	andpl	r1, r1, r0, lsl #2
     3ac:	a59c0305 	ldrge	r0, [ip, #773]	; 0x305
     3b0:	01110000 	tsteq	r1, r0
     3b4:	587b0351 	ldmdapl	fp!, {r0, r4, r6, r8, r9}^
     3b8:	52011106 	andpl	r1, r1, #-2147483647	; 0x80000001
     3bc:	065c7b03 	ldrbeq	r7, [ip], -r3, lsl #22
     3c0:	01530111 	cmpeq	r3, r1, lsl r1
     3c4:	7d021148 	stfvcs	f1, [r2, #-288]	; 0xfffffee0
     3c8:	b0030500 	andlt	r0, r3, r0, lsl #10
     3cc:	000000a5 	andeq	r0, r0, r5, lsr #1
     3d0:	0081040f 	addeq	r0, r1, pc, lsl #8
     3d4:	00048900 	andeq	r8, r4, r0, lsl #18
     3d8:	15000000 	strne	r0, [r0, #-0]
     3dc:	0000806c 	andeq	r8, r0, ip, rrx
     3e0:	00000459 	andeq	r0, r0, r9, asr r4
     3e4:	000003f2 	strdeq	r0, [r0], -r2
     3e8:	05500111 	ldrbeq	r0, [r0, #-273]	; 0xfffffeef
     3ec:	00a5bc03 	adceq	fp, r5, r3, lsl #24
     3f0:	700f0000 	andvc	r0, pc, r0
     3f4:	7d000080 	stcvc	0, cr0, [r0, #-512]	; 0xfffffe00
     3f8:	00000004 	andeq	r0, r0, r4
     3fc:	02a40408 	adceq	r0, r4, #8, 8	; 0x8000000
     400:	b4160000 	ldrlt	r0, [r6], #-0
     404:	12000000 	andne	r0, r0, #0, 0
     408:	17000004 	strne	r0, [r0, -r4]
     40c:	0000002c 	andeq	r0, r0, ip, lsr #32
     410:	02090004 	andeq	r0, r9, #4, 0
     414:	1f000004 	svcne	0x00000004
     418:	0000021b 	andeq	r0, r0, fp, lsl r2
     41c:	fc0b0d02 	stc2	13, cr0, [fp], {2}
     420:	03000000 	movweq	r0, #0
     424:	0000044d 	andeq	r0, r0, sp, asr #8
     428:	00001e20 	andeq	r1, r0, r0, lsr #28
     42c:	220d0200 	andcs	r0, sp, #0, 4
     430:	000000a7 	andeq	r0, r0, r7, lsr #1
     434:	00002920 	andeq	r2, r0, r0, lsr #18
     438:	340d0200 	strcc	r0, [sp], #-512	; 0xfffffe00
     43c:	000000a7 	andeq	r0, r0, r7, lsr #1
     440:	00016020 	andeq	r6, r1, r0, lsr #32
     444:	430d0200 	movwmi	r0, #53760	; 0xd200
     448:	0000002c 	andeq	r0, r0, ip, lsr #32
     44c:	00232100 	eoreq	r2, r3, r0, lsl #2
     450:	00230000 	eoreq	r0, r3, r0
     454:	ad030000 	stcge	0, cr0, [r3, #-0]
     458:	063b2106 	ldrteq	r2, [fp], -r6, lsl #2
     45c:	063b0000 	ldrteq	r0, [fp], -r0
     460:	28030000 	stmdacs	r3, {}	; <UNPREDICTABLE>
     464:	01cb2106 	biceq	r2, fp, r6, lsl #2
     468:	01cb0000 	biceq	r0, fp, r0
     46c:	72050000 	andvc	r0, r5, #0, 0
     470:	0043210a 	subeq	r2, r3, sl, lsl #2
     474:	00430000 	subeq	r0, r3, r0
     478:	6b050000 	blvs	140480 <__bss_end__+0x1351b8>
     47c:	0187210a 	orreq	r2, r7, sl, lsl #2
     480:	01870000 	orreq	r0, r7, r0
     484:	70050000 	andvc	r0, r5, r0
     488:	00562106 	subseq	r2, r6, r6, lsl #2
     48c:	00560000 	subseq	r0, r6, r0
     490:	6e030000 	cdpvs	0, 0, cr0, cr3, cr0, {0}
     494:	9e072206 	cdpls	2, 0, cr2, cr7, cr6, {0}
     498:	73657405 	cmnvc	r5, #83886080	; 0x5000000
     49c:	16210074 			; <UNDEFINED> instruction: 0x16210074
     4a0:	16000000 	strne	r0, [r0], -r0
     4a4:	05000000 	streq	r0, [r0, #-0]
     4a8:	3c21084d 	stccc	8, cr0, [r1], #-308	; 0xfffffecc
     4ac:	3c000000 	stccc	0, cr0, [r0], {-0}
     4b0:	03000000 	movweq	r0, #0
     4b4:	ee0007f2 	mcr	7, 0, r0, cr0, cr2, {7}
     4b8:	04000007 	streq	r0, [r0], #-7
     4bc:	0001f200 	andeq	pc, r1, r0, lsl #4
     4c0:	7e010400 	cfcpysvc	mvf0, mvf1
     4c4:	0c000000 	stceq	0, cr0, [r0], {-0}
     4c8:	0000032f 	andeq	r0, r0, pc, lsr #6
     4cc:	000001e2 	andeq	r0, r0, r2, ror #3
     4d0:	000081ec 	andeq	r8, r0, ip, ror #3
     4d4:	00000440 	andeq	r0, r0, r0, asr #8
     4d8:	0000021b 	andeq	r0, r0, fp, lsl r2
     4dc:	69050402 	stmdbvs	r5, {r1, sl}
     4e0:	0300746e 	movweq	r7, #1134	; 0x46e
     4e4:	01710704 	cmneq	r1, r4, lsl #14
     4e8:	01030000 	mrseq	r0, (UNDEF: 3)
     4ec:	00007206 	andeq	r7, r0, r6, lsl #4
     4f0:	05020300 	streq	r0, [r2, #-768]	; 0xfffffd00
     4f4:	00000000 	andeq	r0, r0, r0
     4f8:	33050403 	movwcc	r0, #21507	; 0x5403
     4fc:	03000000 	movweq	r0, #0
     500:	002e0508 	eoreq	r0, lr, r8, lsl #10
     504:	8f040000 	svchi	0x00040000
     508:	03000002 	movweq	r0, #2
     50c:	005b182e 	subseq	r1, fp, lr, lsr #16
     510:	01030000 	mrseq	r0, (UNDEF: 3)
     514:	00007008 	andeq	r7, r0, r8
     518:	02fb0400 	rscseq	r0, fp, #0, 8
     51c:	31030000 	mrscc	r0, (UNDEF: 3)
     520:	00006e19 	andeq	r6, r0, r9, lsl lr
     524:	07020300 	streq	r0, [r2, -r0, lsl #6]
     528:	000001b8 			; <UNDEFINED> instruction: 0x000001b8
     52c:	00017e04 	andeq	r7, r1, r4, lsl #28
     530:	19340300 	ldmdbne	r4!, {r8, r9}
     534:	00000081 	andeq	r0, r0, r1, lsl #1
     538:	6c070403 	cfstrsvs	mvf0, [r7], {3}
     53c:	03000001 	movweq	r0, #1
     540:	01670708 	cmneq	r7, r8, lsl #14
     544:	25050000 	strcs	r0, [r5, #-0]
     548:	9e000000 	cdpls	0, 0, cr0, cr0, cr0, {0}
     54c:	06000000 	streq	r0, [r0], -r0
     550:	00000025 	andeq	r0, r0, r5, lsr #32
     554:	000a0700 	andeq	r0, sl, r0, lsl #14
     558:	1c040000 	stcne	0, cr0, [r4], {-0}
     55c:	0000aa0e 	andeq	sl, r0, lr, lsl #20
     560:	8f040800 	svchi	0x00040800
     564:	05000000 	streq	r0, [r0, #-0]
     568:	00000025 	andeq	r0, r0, r5, lsr #32
     56c:	000000bf 	strheq	r0, [r0], -pc	; <UNPREDICTABLE>
     570:	0000bf06 	andeq	fp, r0, r6, lsl #30
     574:	04080000 	streq	r0, [r8], #-0
     578:	000000cc 	andeq	r0, r0, ip, asr #1
     57c:	79080103 	stmdbvc	r8, {r0, r1, r8}
     580:	09000000 	stmdbeq	r0, {}	; <UNPREDICTABLE>
     584:	000000c5 	andeq	r0, r0, r5, asr #1
     588:	00067907 	andeq	r7, r6, r7, lsl #18
     58c:	0e210400 	cdpeq	4, 2, cr0, cr1, cr0, {0}
     590:	000000dd 	ldrdeq	r0, [r0], -sp
     594:	00b00408 	adcseq	r0, r0, r8, lsl #8
     598:	0c0a0000 	stceq	0, cr0, [sl], {-0}
     59c:	14090505 	strne	r0, [r9], #-1285	; 0xfffffafb
     5a0:	0b000001 	bleq	5ac <__code_start__-0x7a54>
     5a4:	0000001e 	andeq	r0, r0, lr, lsl r0
     5a8:	bf110705 	svclt	0x00110705
     5ac:	00000000 	andeq	r0, r0, r0
     5b0:	0000290b 	andeq	r2, r0, fp, lsl #18
     5b4:	11080500 	tstne	r8, r0, lsl #10
     5b8:	000000bf 	strheq	r0, [r0], -pc	; <UNPREDICTABLE>
     5bc:	01600b04 	cmneq	r0, r4, lsl #22
     5c0:	09050000 	stmdbeq	r5, {}	; <UNPREDICTABLE>
     5c4:	00002c0e 	andeq	r2, r0, lr, lsl #24
     5c8:	04000800 	streq	r0, [r0], #-2048	; 0xfffff800
     5cc:	0000022b 	andeq	r0, r0, fp, lsr #4
     5d0:	e3030a05 	movw	r0, #14853	; 0x3a05
     5d4:	0c000000 	stceq	0, cr0, [r0], {-0}
     5d8:	005b0107 	subseq	r0, fp, r7, lsl #2
     5dc:	09020000 	stmdbeq	r2, {}	; <UNPREDICTABLE>
     5e0:	00013b0e 	andeq	r3, r1, lr, lsl #22
     5e4:	03450d00 	movteq	r0, #23808	; 0x5d00
     5e8:	0d0b0000 	stceq	0, cr0, [fp, #-0]
     5ec:	00000254 	andeq	r0, r0, r4, asr r2
     5f0:	070c000c 	streq	r0, [ip, -ip]
     5f4:	00005b01 	andeq	r5, r0, r1, lsl #22
     5f8:	060a0200 	streq	r0, [sl], -r0, lsl #4
     5fc:	00000156 	andeq	r0, r0, r6, asr r1
     600:	0002730d 	andeq	r7, r2, sp, lsl #6
     604:	670d8000 	strvs	r8, [sp, -r0]
     608:	fe000002 	cdp2	0, 0, cr0, cr0, cr2, {0}
     60c:	02ba0e00 	adcseq	r0, sl, #0, 28
     610:	02b80000 	adcseq	r0, r8, #0, 0
     614:	01f3100d 	mvnseq	r1, sp
     618:	260b0000 	strcs	r0, [fp], -r0
     61c:	02000002 	andeq	r0, r0, #2, 0
     620:	01f3140e 	mvnseq	r1, lr, lsl #8
     624:	0b000000 	bleq	62c <__code_start__-0x79d4>
     628:	000002b3 			; <UNDEFINED> instruction: 0x000002b3
     62c:	750e0f02 	strvc	r0, [lr, #-3842]	; 0xfffff0fe
     630:	04000000 	streq	r0, [r0], #-0
     634:	00025a0b 	andeq	r5, r2, fp, lsl #20
     638:	0e100200 	cdpeq	2, 1, cr0, cr0, cr0, {0}
     63c:	00000075 	andeq	r0, r0, r5, ror r0
     640:	02db0b08 	sbcseq	r0, fp, #8, 22	; 0x2000
     644:	11020000 	mrsne	r0, (UNDEF: 2)
     648:	0000750e 	andeq	r7, r0, lr, lsl #10
     64c:	4b0b0c00 	blmi	2c3654 <__bss_end__+0x2b838c>
     650:	02000002 	andeq	r0, r0, #2, 0
     654:	00750e15 	rsbseq	r0, r5, r5, lsl lr
     658:	0b100000 	bleq	400660 <__bss_end__+0x3f5398>
     65c:	000002d1 	ldrdeq	r0, [r0], -r1
     660:	140f1702 	strne	r1, [pc], #-1794	; 668 <__code_start__-0x7998>
     664:	14000001 	strne	r0, [r0], #-1
     668:	00036e0b 	andeq	r6, r3, fp, lsl #28
     66c:	0f180200 	svceq	0x00180200
     670:	00000114 	andeq	r0, r0, r4, lsl r1
     674:	02e10b20 	rsceq	r0, r1, #32, 22	; 0x8000
     678:	1b020000 	blne	80680 <__bss_end__+0x753b8>
     67c:	0000750e 	andeq	r7, r0, lr, lsl #10
     680:	390b2c00 	stmdbcc	fp, {sl, fp, sp}
     684:	02000003 	andeq	r0, r0, #3, 0
     688:	00750e1c 	rsbseq	r0, r5, ip, lsl lr
     68c:	0b300000 	bleq	c00694 <__bss_end__+0xbf53cc>
     690:	00000435 	andeq	r0, r0, r5, lsr r4
     694:	620e1e02 	andvs	r1, lr, #2, 28
     698:	34000000 	strcc	r0, [r0], #-0
     69c:	317a720f 	cmncc	sl, pc, lsl #4
     6a0:	0d200200 	sfmeq	f0, 4, [r0, #-0]
     6a4:	000001f9 	strdeq	r0, [r0], -r9
     6a8:	04080036 	streq	r0, [r8], #-54	; 0xffffffca
     6ac:	00000156 	andeq	r0, r0, r6, asr r1
     6b0:	00004f10 	andeq	r4, r0, r0, lsl pc
     6b4:	00020900 	andeq	r0, r2, r0, lsl #18
     6b8:	002c1100 	eoreq	r1, ip, r0, lsl #2
     6bc:	007f0000 	rsbseq	r0, pc, r0
     6c0:	00024504 	andeq	r4, r2, r4, lsl #10
     6c4:	03210200 			; <UNDEFINED> instruction: 0x03210200
     6c8:	00000156 	andeq	r0, r0, r6, asr r1
     6cc:	63070412 	movwvs	r0, #29714	; 0x7412
     6d0:	02000000 	andeq	r0, r0, #0, 0
     6d4:	002c11a9 	eoreq	r1, ip, r9, lsr #3
     6d8:	a8130000 	ldmdage	r3, {}	; <UNPREDICTABLE>
     6dc:	01000002 	tsteq	r0, r2
     6e0:	02350f08 	eorseq	r0, r5, #8, 30
     6e4:	03050000 	movweq	r0, #20480	; 0x5000
     6e8:	0000ae98 	muleq	r0, r8, lr
     6ec:	02090408 	andeq	r0, r9, #8, 8	; 0x8000000
     6f0:	ec070000 	stc	0, cr0, [r7], {-0}
     6f4:	01000002 	tsteq	r0, r2
     6f8:	00c50d0c 	sbceq	r0, r5, ip, lsl #26
     6fc:	16140000 	ldrne	r0, [r4], -r0
     700:	01000003 	tsteq	r0, r3
     704:	0253120d 	subseq	r1, r3, #-805306368	; 0xd0000000
     708:	04080000 	streq	r0, [r8], #-0
     70c:	0000002c 	andeq	r0, r0, ip, lsr #32
     710:	00001615 	andeq	r1, r0, r5, lsl r6
     714:	088e0100 	stmeq	lr, {r8}
     718:	00000215 	andeq	r0, r0, r5, lsl r2
     71c:	00008530 	andeq	r8, r0, r0, lsr r5
     720:	000000fc 	strdeq	r0, [r0], -ip
     724:	039a9c01 	orrseq	r9, sl, #256	; 0x100
     728:	7a160000 	bvc	580730 <__bss_end__+0x575468>
     72c:	01000003 	tsteq	r0, r3
     730:	00751a8e 	rsbseq	r1, r5, lr, lsl #21
     734:	01240000 			; <UNDEFINED> instruction: 0x01240000
     738:	011e0000 	tsteq	lr, r0
     73c:	6c170000 	ldcvs	0, cr0, [r7], {-0}
     740:	2c8e0100 	stfcss	f0, [lr], {0}
     744:	00000114 	andeq	r0, r0, r4, lsl r1
     748:	18549102 	ldmdane	r4, {r1, r8, ip, pc}^
     74c:	90010068 	andls	r0, r1, r8, rrx
     750:	0002350c 	andeq	r3, r2, ip, lsl #10
     754:	00015600 	andeq	r5, r1, r0, lsl #12
     758:	00015000 	andeq	r5, r1, r0
     75c:	85641900 	strbhi	r1, [r4, #-2304]!	; 0xfffff700
     760:	002c0000 	eoreq	r0, ip, r0
     764:	02c60000 	sbceq	r0, r6, #0, 0
     768:	69180000 	ldmdbvs	r8, {}	; <UNPREDICTABLE>
     76c:	0e960100 	fmleqs	f0, f6, f0
     770:	00000025 	andeq	r0, r0, r5, lsr #32
     774:	00000186 	andeq	r0, r0, r6, lsl #3
     778:	00000182 	andeq	r0, r0, r2, lsl #3
     77c:	85dc1900 	ldrbhi	r1, [ip, #2304]	; 0x900
     780:	00240000 	eoreq	r0, r4, r0
     784:	031a0000 	tsteq	sl, #0, 0
     788:	69180000 	ldmdbvs	r8, {}	; <UNPREDICTABLE>
     78c:	0ea30100 	fdveqs	f0, f3, f0
     790:	00000025 	andeq	r0, r0, r5, lsr #32
     794:	000001a9 	andeq	r0, r0, r9, lsr #3
     798:	000001a5 	andeq	r0, r0, r5, lsr #3
     79c:	0085e81a 	addeq	lr, r5, sl, lsl r8
     7a0:	00001000 	andeq	r1, r0, r0
     7a4:	6f6c1800 	svcvs	0x006c1800
     7a8:	a5010063 	strge	r0, [r1, #-99]	; 0xffffff9d
     7ac:	00039a11 	andeq	r9, r3, r1, lsl sl
     7b0:	0001ca00 	andeq	ip, r1, r0, lsl #20
     7b4:	0001c800 	andeq	ip, r1, r0, lsl #16
     7b8:	85f41b00 	ldrbhi	r1, [r4, #2816]!	; 0xb00
     7bc:	03a00000 	moveq	r0, #0, 0
     7c0:	011c0000 	tsteq	ip, r0
     7c4:	00740850 	rsbseq	r0, r4, r0, asr r8
     7c8:	23220076 			; <UNDEFINED> instruction: 0x23220076
     7cc:	000001b8 			; <UNDEFINED> instruction: 0x000001b8
     7d0:	85541d00 	ldrbhi	r1, [r4, #-3328]	; 0xfffff300
     7d4:	07b50000 	ldreq	r0, [r5, r0]!
     7d8:	032f0000 			; <UNDEFINED> instruction: 0x032f0000
     7dc:	011c0000 	tsteq	ip, r0
     7e0:	b8750350 	ldmdalt	r5!, {r4, r6, r8, r9}^
     7e4:	641d0002 	ldrvs	r0, [sp], #-2
     7e8:	c1000085 	smlabbgt	r0, r5, r0, r0
     7ec:	4e000007 	cdpmi	0, 0, cr0, cr0, cr7, {0}
     7f0:	1c000003 	stcne	0, cr0, [r0], {3}
     7f4:	74025001 	strvc	r5, [r2], #-1
     7f8:	51011c00 	tstpl	r1, r0, lsl #24
     7fc:	011c3001 	tsteq	ip, r1
     800:	b8080252 	stmdalt	r8, {r1, r4, r6, r9}
     804:	85c81d00 	strbhi	r1, [r8, #3328]	; 0xd00
     808:	07cd0000 	strbeq	r0, [sp, r0]
     80c:	037a0000 	cmneq	sl, #0, 0
     810:	011c0000 	tsteq	ip, r0
     814:	f8030550 			; <UNDEFINED> instruction: 0xf8030550
     818:	1c0000a6 	stcne	0, cr0, [r0], {166}	; 0xa6
     81c:	7b035101 	blvc	d4c28 <__bss_end__+0xc9960>
     820:	011c0658 	tsteq	ip, r8, asr r6
     824:	5c7b0352 	ldclpl	3, cr0, [fp], #-328	; 0xfffffeb8
     828:	53011c06 	movwpl	r1, #7174	; 0x1c06
     82c:	06607b03 	strbteq	r7, [r0], -r3, lsl #22
     830:	85dc1b00 	ldrbhi	r1, [ip, #2816]	; 0xb00
     834:	07cd0000 	strbeq	r0, [sp, r0]
     838:	011c0000 	tsteq	ip, r0
     83c:	8c030550 	cfstr32hi	mvfx0, [r3], {80}	; 0x50
     840:	1c0000a7 	stcne	0, cr0, [r0], {167}	; 0xa7
     844:	77025101 	strvc	r5, [r2, -r1, lsl #2]
     848:	52011c00 	andpl	r1, r1, #0, 24
     84c:	00007502 	andeq	r7, r0, r2, lsl #10
     850:	35040800 	strcc	r0, [r4, #-2048]	; 0xfffff800
     854:	15000002 	strne	r0, [r0, #-2]
     858:	000002c1 	andeq	r0, r0, r1, asr #5
     85c:	9a098201 	bls	261068 <__bss_end__+0x255da0>
     860:	e0000003 	and	r0, r0, r3
     864:	44000084 	strmi	r0, [r0], #-132	; 0xffffff7c
     868:	01000000 	mrseq	r0, (UNDEF: 0)
     86c:	0003cf9c 	muleq	r3, ip, pc	; <UNPREDICTABLE>
     870:	035a1600 	cmpeq	sl, #0, 12
     874:	82010000 	andhi	r0, r1, #0, 0
     878:	0003cf1f 	andeq	ip, r3, pc, lsl pc
     87c:	0001e900 	andeq	lr, r1, r0, lsl #18
     880:	0001dd00 	andeq	sp, r1, r0, lsl #26
     884:	04080000 	streq	r0, [r8], #-0
     888:	000000c5 	andeq	r0, r0, r5, asr #1
     88c:	0002971e 	andeq	r9, r2, lr, lsl r7
     890:	06620100 	strbteq	r0, [r2], -r0, lsl #2
     894:	00008370 	andeq	r8, r0, r0, ror r3
     898:	0000015c 	andeq	r0, r0, ip, asr r1
     89c:	05979c01 	ldreq	r9, [r7, #3073]	; 0xc01
     8a0:	d4160000 	ldrle	r0, [r6], #-0
     8a4:	01000005 	tsteq	r0, r5
     8a8:	02151462 	andseq	r1, r5, #1644167168	; 0x62000000
     8ac:	02440000 	subeq	r0, r4, #0, 0
     8b0:	023c0000 	eorseq	r0, ip, #0, 0
     8b4:	6c170000 	ldcvs	0, cr0, [r7], {-0}
     8b8:	24620100 	strbtcs	r0, [r2], #-256	; 0xffffff00
     8bc:	00000114 	andeq	r0, r0, r4, lsl r1
     8c0:	18549102 	ldmdane	r4, {r1, r8, ip, pc}^
     8c4:	64010068 	strvs	r0, [r1], #-104	; 0xffffff98
     8c8:	0002350c 	andeq	r3, r2, ip, lsl #10
     8cc:	00028600 	andeq	r8, r2, r0, lsl #12
     8d0:	00027e00 	andeq	r7, r2, r0, lsl #28
     8d4:	00381f00 	eorseq	r1, r8, r0, lsl #30
     8d8:	04de0000 	ldrbeq	r0, [lr], #0
     8dc:	69180000 	ldmdbvs	r8, {}	; <UNPREDICTABLE>
     8e0:	0e6c0100 	poweqe	f0, f4, f0
     8e4:	00000025 	andeq	r0, r0, r5, lsr #32
     8e8:	000002cd 	andeq	r0, r0, sp, asr #5
     8ec:	000002c5 	andeq	r0, r0, r5, asr #5
     8f0:	00843420 	addeq	r3, r4, r0, lsr #8
     8f4:	0007d900 	andeq	sp, r7, r0, lsl #18
     8f8:	84481d00 	strbhi	r1, [r8], #-3328	; 0xfffff300
     8fc:	07cd0000 	strbeq	r0, [sp, r0]
     900:	046b0000 	strbteq	r0, [fp], #-0
     904:	011c0000 	tsteq	ip, r0
     908:	14030550 	strne	r0, [r3], #-1360	; 0xfffffab0
     90c:	1c0000a7 	stcne	0, cr0, [r0], {167}	; 0xa7
     910:	75025101 	strvc	r5, [r2, #-257]	; 0xfffffeff
     914:	52011c00 	andpl	r1, r1, #0, 24
     918:	1c007602 	stcne	6, cr7, [r0], {2}
     91c:	77025301 	strvc	r5, [r2, -r1, lsl #6]
     920:	501d0000 	andspl	r0, sp, r0
     924:	cd000084 	stcgt	0, cr0, [r0, #-528]	; 0xfffffdf0
     928:	82000007 	andhi	r0, r0, #7, 0
     92c:	1c000004 	stcne	0, cr0, [r0], {4}
     930:	03055001 	movweq	r5, #20481	; 0x5001
     934:	0000a754 	andeq	sl, r0, r4, asr r7
     938:	84542000 	ldrbhi	r2, [r4], #-0
     93c:	07e50000 	strbeq	r0, [r5, r0]!
     940:	58200000 	stmdapl	r0!, {}	; <UNPREDICTABLE>
     944:	d9000084 	stmdble	r0, {r2, r7}
     948:	1d000007 	stcne	0, cr0, [r0, #-28]	; 0xffffffe4
     94c:	0000846c 	andeq	r8, r0, ip, ror #8
     950:	000007cd 	andeq	r0, r0, sp, asr #15
     954:	000004bd 			; <UNDEFINED> instruction: 0x000004bd
     958:	0550011c 	ldrbeq	r0, [r0, #-284]	; 0xfffffee4
     95c:	00a71403 	adceq	r1, r7, r3, lsl #8
     960:	51011c00 	tstpl	r1, r0, lsl #24
     964:	1c007502 	cfstr32ne	mvfx7, [r0], {2}
     968:	76025201 	strvc	r5, [r2], -r1, lsl #4
     96c:	53011c00 	movwpl	r1, #7168	; 0x1c00
     970:	00007702 	andeq	r7, r0, r2, lsl #14
     974:	0084741d 	addeq	r7, r4, sp, lsl r4
     978:	0007cd00 	andeq	ip, r7, r0, lsl #26
     97c:	0004d400 	andeq	sp, r4, r0, lsl #8
     980:	50011c00 	andpl	r1, r1, r0, lsl #24
     984:	a7700305 	ldrbge	r0, [r0, -r5, lsl #6]!
     988:	20000000 	andcs	r0, r0, r0
     98c:	00008478 	andeq	r8, r0, r8, ror r4
     990:	000007e5 	andeq	r0, r0, r5, ror #15
     994:	84781900 	ldrbthi	r1, [r8], #-2304	; 0xfffff700
     998:	001c0000 	andseq	r0, ip, r0
     99c:	04fe0000 	ldrbteq	r0, [lr], #0
     9a0:	69180000 	ldmdbvs	r8, {}	; <UNPREDICTABLE>
     9a4:	0e790100 	rpweqe	f0, f1, f0
     9a8:	00000025 	andeq	r0, r0, r5, lsr #32
     9ac:	00000303 	andeq	r0, r0, r3, lsl #6
     9b0:	00000301 	andeq	r0, r0, r1, lsl #6
     9b4:	83b81d00 			; <UNDEFINED> instruction: 0x83b81d00
     9b8:	07cd0000 	strbeq	r0, [sp, r0]
     9bc:	05270000 	streq	r0, [r7, #-0]!
     9c0:	011c0000 	tsteq	ip, r0
     9c4:	f8030550 			; <UNDEFINED> instruction: 0xf8030550
     9c8:	1c0000a6 	stcne	0, cr0, [r0], {166}	; 0xa6
     9cc:	75025101 	strvc	r5, [r2, #-257]	; 0xfffffeff
     9d0:	52011c00 	andpl	r1, r1, #0, 24
     9d4:	1c007602 	stcne	6, cr7, [r0], {2}
     9d8:	77025301 	strvc	r5, [r2, -r1, lsl #6]
     9dc:	c41d0000 	ldrgt	r0, [sp], #-0
     9e0:	cd000083 	stcgt	0, cr0, [r0, #-524]	; 0xfffffdf4
     9e4:	44000007 	strmi	r0, [r0], #-7
     9e8:	1c000005 	stcne	0, cr0, [r0], {5}
     9ec:	03055001 	movweq	r5, #20481	; 0x5001
     9f0:	0000a704 	andeq	sl, r0, r4, lsl #14
     9f4:	0251011c 	subseq	r0, r1, #7
     9f8:	20000074 	andcs	r0, r0, r4, ror r0
     9fc:	0000840c 	andeq	r8, r0, ip, lsl #8
     a00:	000007d9 	ldrdeq	r0, [r0], -r9
     a04:	0084201d 	addeq	r2, r4, sp, lsl r0
     a08:	0007cd00 	andeq	ip, r7, r0, lsl #26
     a0c:	00057600 	andeq	r7, r5, r0, lsl #12
     a10:	50011c00 	andpl	r1, r1, r0, lsl #24
     a14:	a7140305 	ldrge	r0, [r4, -r5, lsl #6]
     a18:	011c0000 	tsteq	ip, r0
     a1c:	00750251 	rsbseq	r0, r5, r1, asr r2
     a20:	0252011c 	subseq	r0, r2, #7
     a24:	011c0076 	tsteq	ip, r6, ror r0
     a28:	00770253 	rsbseq	r0, r7, r3, asr r2
     a2c:	842c1d00 	strthi	r1, [ip], #-3328	; 0xfffff300
     a30:	07cd0000 	strbeq	r0, [sp, r0]
     a34:	058d0000 	streq	r0, [sp]
     a38:	011c0000 	tsteq	ip, r0
     a3c:	2c030550 	cfstr32cs	mvfx0, [r3], {80}	; 0x50
     a40:	000000a7 	andeq	r0, r0, r7, lsr #1
     a44:	00843020 	addeq	r3, r4, r0, lsr #32
     a48:	0007e500 	andeq	lr, r7, r0, lsl #10
     a4c:	04150000 	ldreq	r0, [r5], #-0
     a50:	01000003 	tsteq	r0, r3
     a54:	02350830 	eorseq	r0, r5, #48, 16	; 0x300000
     a58:	83040000 	movwhi	r0, #16384	; 0x4000
     a5c:	00600000 	rsbeq	r0, r0, r0
     a60:	9c010000 	stcls	0, cr0, [r1], {-0}
     a64:	00000638 	andeq	r0, r0, r8, lsr r6
     a68:	72747021 	rsbsvc	r7, r4, #33, 0	; 0x21
     a6c:	20300100 	eorscs	r0, r0, r0, lsl #2
     a70:	00000215 	andeq	r0, r0, r5, lsl r2
     a74:	0000031a 	andeq	r0, r0, sl, lsl r3
     a78:	00000316 	andeq	r0, r0, r6, lsl r3
     a7c:	0083141a 	addeq	r1, r3, sl, lsl r4
     a80:	00004400 	andeq	r4, r0, r0, lsl #8
     a84:	00681800 	rsbeq	r1, r8, r0, lsl #16
     a88:	35113d01 	ldrcc	r3, [r1, #-3329]	; 0xfffff2ff
     a8c:	40000002 	andmi	r0, r0, r2
     a90:	38000003 	stmdacc	r0, {r0, r1}
     a94:	20000003 	andcs	r0, r0, r3
     a98:	00008318 	andeq	r8, r0, r8, lsl r3
     a9c:	00000783 	andeq	r0, r0, r3, lsl #15
     aa0:	0083301d 	addeq	r3, r3, sp, lsl r0
     aa4:	00063800 	andeq	r3, r6, r0, lsl #16
     aa8:	00060300 	andeq	r0, r6, r0, lsl #6
     aac:	50011c00 	andpl	r1, r1, r0, lsl #24
     ab0:	1c007402 	cfstrsne	mvf7, [r0], {2}
     ab4:	75025101 	strvc	r5, [r2, #-257]	; 0xfffffeff
     ab8:	401d0000 	andsmi	r0, sp, r0
     abc:	56000083 	strpl	r0, [r0], -r3, lsl #1
     ac0:	17000007 	strne	r0, [r0, -r7]
     ac4:	1c000006 	stcne	0, cr0, [r0], {6}
     ac8:	74025001 	strvc	r5, [r2], #-1
     acc:	581b0000 	ldmdapl	fp, {}	; <UNPREDICTABLE>
     ad0:	cd000083 	stcgt	0, cr0, [r0, #-524]	; 0xfffffdf4
     ad4:	1c000007 	stcne	0, cr0, [r0], {7}
     ad8:	03055001 	movweq	r5, #20481	; 0x5001
     adc:	0000a6e8 	andeq	sl, r0, r8, ror #13
     ae0:	0251011c 	subseq	r0, r1, #7
     ae4:	011c0075 	tsteq	ip, r5, ror r0
     ae8:	00740252 	rsbseq	r0, r4, r2, asr r2
     aec:	15000000 	strne	r0, [r0, #-0]
     af0:	00000235 	andeq	r0, r0, r5, lsr r2
     af4:	2c0a2901 			; <UNDEFINED> instruction: 0x2c0a2901
     af8:	b4000000 	strlt	r0, [r0], #-0
     afc:	38000082 	stmdacc	r0, {r1, r7}
     b00:	01000000 	mrseq	r0, (UNDEF: 0)
     b04:	0006c59c 	muleq	r6, ip, r5
     b08:	00682100 	rsbeq	r2, r8, r0, lsl #2
     b0c:	35212901 	strcc	r2, [r1, #-2305]!	; 0xfffff6ff
     b10:	78000002 	stmdavc	r0, {r1}
     b14:	74000003 	strvc	r0, [r0], #-3
     b18:	21000003 	tstcs	r0, r3
     b1c:	00727470 	rsbseq	r7, r2, r0, ror r4
     b20:	152a2901 	strne	r2, [sl, #-2305]!	; 0xfffff6ff
     b24:	9a000002 	bls	b34 <__code_start__-0x74cc>
     b28:	96000003 	strls	r0, [r0], -r3
     b2c:	18000003 	stmdane	r0, {r0, r1}
     b30:	006e696d 	rsbeq	r6, lr, sp, ror #18
     b34:	150b2b01 	strne	r2, [fp, #-2817]	; 0xfffff4ff
     b38:	bc000002 	stclt	0, cr0, [r0], {2}
     b3c:	b8000003 	stmdalt	r0, {r0, r1}
     b40:	18000003 	stmdane	r0, {r0, r1}
     b44:	0078616d 	rsbseq	r6, r8, sp, ror #2
     b48:	150b2c01 	strne	r2, [fp, #-3073]	; 0xfffff3ff
     b4c:	dc000002 	stcle	0, cr0, [r0], {2}
     b50:	da000003 	ble	b64 <__code_start__-0x749c>
     b54:	1d000003 	stcne	0, cr0, [r0, #-12]
     b58:	000082cc 	andeq	r8, r0, ip, asr #5
     b5c:	00000729 	andeq	r0, r0, r9, lsr #14
     b60:	000006b4 			; <UNDEFINED> instruction: 0x000006b4
     b64:	0250011c 	subseq	r0, r0, #7
     b68:	1b000076 	blne	d48 <__code_start__-0x72b8>
     b6c:	000082d8 	ldrdeq	r8, [r0], -r8	; <UNPREDICTABLE>
     b70:	000006c5 	andeq	r0, r0, r5, asr #13
     b74:	0250011c 	subseq	r0, r0, #7
     b78:	00000076 	andeq	r0, r0, r6, ror r0
     b7c:	00036315 	andeq	r6, r3, r5, lsl r3
     b80:	07230100 	streq	r0, [r3, -r0, lsl #2]!
     b84:	00000215 	andeq	r0, r0, r5, lsl r2
     b88:	00008280 	andeq	r8, r0, r0, lsl #5
     b8c:	00000020 	andeq	r0, r0, r0, lsr #32
     b90:	07299c01 	streq	r9, [r9, -r1, lsl #24]!
     b94:	68210000 	stmdavs	r1!, {}	; <UNPREDICTABLE>
     b98:	19230100 	stmdbne	r3!, {r8}
     b9c:	00000235 	andeq	r0, r0, r5, lsr r2
     ba0:	000003f3 	strdeq	r0, [r0], -r3
     ba4:	000003ef 	andeq	r0, r0, pc, ror #7
     ba8:	00079922 	andeq	r9, r7, r2, lsr #18
     bac:	00829400 	addeq	r9, r2, r0, lsl #8
     bb0:	82940000 	addshi	r0, r4, #0, 0
     bb4:	00040000 	andeq	r0, r4, r0
     bb8:	25010000 	strcs	r0, [r1, #-0]
     bbc:	00071826 	andeq	r1, r7, r6, lsr #16
     bc0:	07aa2300 	streq	r2, [sl, r0, lsl #6]!
     bc4:	04130000 	ldreq	r0, [r3], #-0
     bc8:	04110000 	ldreq	r0, [r1], #-0
     bcc:	1b000000 	blne	bd4 <__code_start__-0x742c>
     bd0:	00008294 	muleq	r0, r4, r2
     bd4:	00000729 	andeq	r0, r0, r9, lsr #14
     bd8:	0250011c 	subseq	r0, r0, #7
     bdc:	00000074 	andeq	r0, r0, r4, ror r0
     be0:	00034d15 	andeq	r4, r3, r5, lsl sp
     be4:	071d0100 	ldreq	r0, [sp, -r0, lsl #2]
     be8:	00000215 	andeq	r0, r0, r5, lsl r2
     bec:	0000825c 	andeq	r8, r0, ip, asr r2
     bf0:	00000014 	andeq	r0, r0, r4, lsl r0
     bf4:	07569c01 	ldrbeq	r9, [r6, -r1, lsl #24]
     bf8:	68210000 	stmdavs	r1!, {}	; <UNPREDICTABLE>
     bfc:	1b1d0100 	blne	741004 <__bss_end__+0x735d3c>
     c00:	00000235 	andeq	r0, r0, r5, lsr r2
     c04:	0000042a 	andeq	r0, r0, sl, lsr #8
     c08:	00000426 	andeq	r0, r0, r6, lsr #8
     c0c:	03231500 			; <UNDEFINED> instruction: 0x03231500
     c10:	16010000 	strne	r0, [r1], -r0
     c14:	00023508 	andeq	r3, r2, r8, lsl #10
     c18:	00822c00 	addeq	r2, r2, r0, lsl #24
     c1c:	00001c00 	andeq	r1, r0, r0, lsl #24
     c20:	839c0100 	orrshi	r0, ip, #0
     c24:	21000007 	tstcs	r0, r7
     c28:	16010070 			; <UNDEFINED> instruction: 0x16010070
     c2c:	0002351b 	andeq	r3, r2, fp, lsl r5
     c30:	00044f00 	andeq	r4, r4, r0, lsl #30
     c34:	00044b00 	andeq	r4, r4, r0, lsl #22
     c38:	82240000 	eorhi	r0, r4, #0, 0
     c3c:	01000002 	tsteq	r0, r2
     c40:	02350810 	eorseq	r0, r5, #16, 16	; 0x100000
     c44:	82000000 	andhi	r0, r0, #0, 0
     c48:	001c0000 	andseq	r0, ip, r0
     c4c:	9c010000 	stcls	0, cr0, [r1], {-0}
     c50:	00037725 	andeq	r7, r3, r5, lsr #14
     c54:	18320200 	ldmdane	r2!, {r9}
     c58:	0000002c 	andeq	r0, r0, ip, lsr #32
     c5c:	0007b503 	andeq	fp, r7, r3, lsl #10
     c60:	00682600 	rsbeq	r2, r8, r0, lsl #12
     c64:	35293202 	strcc	r3, [r9, #-514]!	; 0xfffffdfe
     c68:	00000002 	andeq	r0, r0, r2
     c6c:	00038127 	andeq	r8, r3, r7, lsr #2
     c70:	00038100 	andeq	r8, r3, r0, lsl #2
     c74:	071e0600 	ldreq	r0, [lr, -r0, lsl #12]
     c78:	00003c27 	andeq	r3, r0, r7, lsr #24
     c7c:	00003c00 	andeq	r3, r0, r0, lsl #24
     c80:	07f20400 	ldrbeq	r0, [r2, r0, lsl #8]!
     c84:	00063b27 	andeq	r3, r6, r7, lsr #22
     c88:	00063b00 	andeq	r3, r6, r0, lsl #22
     c8c:	06280400 	strteq	r0, [r8], -r0, lsl #8
     c90:	00029e27 	andeq	r9, r2, r7, lsr #28
     c94:	00029e00 	andeq	r9, r2, r0, lsl #28
     c98:	05040700 	streq	r0, [r4, #-1792]	; 0xfffff900
     c9c:	00005627 	andeq	r5, r0, r7, lsr #12
     ca0:	00005600 	andeq	r5, r0, r0, lsl #12
     ca4:	066e0400 	strbteq	r0, [lr], -r0, lsl #8
     ca8:	0002ec00 	andeq	lr, r2, r0, lsl #24
     cac:	41000400 	tstmi	r0, r0, lsl #8
     cb0:	04000004 	streq	r0, [r0], #-4
     cb4:	00007e01 	andeq	r7, r0, r1, lsl #28
     cb8:	03b30c00 			; <UNDEFINED> instruction: 0x03b30c00
     cbc:	01e20000 	mvneq	r0, r0
     cc0:	862c0000 	strthi	r0, [ip], -r0
     cc4:	02000000 	andeq	r0, r0, #0, 0
     cc8:	05f10000 	ldrbeq	r0, [r1, #0]!
     ccc:	04020000 	streq	r0, [r2], #-0
     cd0:	746e6905 	strbtvc	r6, [lr], #-2309	; 0xfffff6fb
     cd4:	07040300 	streq	r0, [r4, -r0, lsl #6]
     cd8:	00000171 	andeq	r0, r0, r1, ror r1
     cdc:	72060103 	andvc	r0, r6, #-1073741824	; 0xc0000000
     ce0:	03000000 	movweq	r0, #0
     ce4:	00000502 	andeq	r0, r0, r2, lsl #10
     ce8:	04030000 	streq	r0, [r3], #-0
     cec:	00003305 	andeq	r3, r0, r5, lsl #6
     cf0:	05080300 	streq	r0, [r8, #-768]	; 0xfffffd00
     cf4:	0000002e 	andeq	r0, r0, lr, lsr #32
     cf8:	70080103 	andvc	r0, r8, r3, lsl #2
     cfc:	03000000 	movweq	r0, #0
     d00:	01b80702 			; <UNDEFINED> instruction: 0x01b80702
     d04:	04030000 	streq	r0, [r3], #-0
     d08:	00016c07 	andeq	r6, r1, r7, lsl #24
     d0c:	07080300 	streq	r0, [r8, -r0, lsl #6]
     d10:	00000167 	andeq	r0, r0, r7, ror #2
     d14:	00002504 	andeq	r2, r0, r4, lsl #10
     d18:	00007a00 	andeq	r7, r0, r0, lsl #20
     d1c:	00250500 	eoreq	r0, r5, r0, lsl #10
     d20:	06000000 	streq	r0, [r0], -r0
     d24:	0000000a 	andeq	r0, r0, sl
     d28:	860e1c02 	strhi	r1, [lr], -r2, lsl #24
     d2c:	07000000 	streq	r0, [r0, -r0]
     d30:	00006b04 	andeq	r6, r0, r4, lsl #22
     d34:	00250400 	eoreq	r0, r5, r0, lsl #8
     d38:	009b0000 	addseq	r0, fp, r0
     d3c:	9b050000 	blls	140d44 <__bss_end__+0x135a7c>
     d40:	00000000 	andeq	r0, r0, r0
     d44:	00a80407 	adceq	r0, r8, r7, lsl #8
     d48:	01030000 	mrseq	r0, (UNDEF: 3)
     d4c:	00007908 	andeq	r7, r0, r8, lsl #18
     d50:	00a10800 	adceq	r0, r1, r0, lsl #16
     d54:	79060000 	stmdbvc	r6, {}	; <UNPREDICTABLE>
     d58:	02000006 	andeq	r0, r0, #6, 0
     d5c:	00b90e21 	adcseq	r0, r9, r1, lsr #28
     d60:	04070000 	streq	r0, [r7], #-0
     d64:	0000008c 	andeq	r0, r0, ip, lsl #1
     d68:	00039809 	andeq	r9, r3, r9, lsl #16
     d6c:	05010800 	streq	r0, [r1, #-2048]	; 0xfffff800
     d70:	0000ec07 	andeq	lr, r0, r7, lsl #24
     d74:	00640a00 	rsbeq	r0, r4, r0, lsl #20
     d78:	ec090701 	stc	7, cr0, [r9], {1}
     d7c:	0a000000 	beq	d84 <__code_start__-0x727c>
     d80:	08010070 	stmdaeq	r1, {r4, r5, r6}
     d84:	0000f308 	andeq	pc, r0, r8, lsl #6
     d88:	70660a00 	rsbvc	r0, r6, r0, lsl #20
     d8c:	09090100 	stmdbeq	r9, {r8}
     d90:	000000f6 	strdeq	r0, [r0], -r6
     d94:	04080300 	streq	r0, [r8], #-768	; 0xfffffd00
     d98:	000003bf 			; <UNDEFINED> instruction: 0x000003bf
     d9c:	070c040b 	streq	r0, [ip, -fp, lsl #8]
     da0:	0000f504 	andeq	pc, r0, r4, lsl #10
     da4:	01080d00 	tsteq	r8, r0, lsl #26
     da8:	0120020e 			; <UNDEFINED> instruction: 0x0120020e
     dac:	700e0000 	andvc	r0, lr, r0
     db0:	01007274 	tsteq	r0, r4, ror r2
     db4:	01421110 	cmpeq	r2, r0, lsl r1
     db8:	0f000000 	svceq	0x00000000
     dbc:	000003d9 	ldrdeq	r0, [r0], -r9
     dc0:	2c0c1101 	stfcss	f1, [ip], {1}
     dc4:	04000000 	streq	r0, [r0], #-0
     dc8:	038b0900 	orreq	r0, fp, #0, 18
     dcc:	01080000 	mrseq	r0, (UNDEF: 8)
     dd0:	01420f0c 	cmpeq	r2, ip, lsl #30
     dd4:	730a0000 	movwvc	r0, #40960	; 0xa000
     dd8:	04120100 	ldreq	r0, [r2], #-256	; 0xffffff00
     ddc:	000000fc 	strdeq	r0, [r0], -ip
     de0:	0100780a 	tsteq	r0, sl, lsl #16
     de4:	00bf0e13 	adcseq	r0, pc, r3, lsl lr	; <UNPREDICTABLE>
     de8:	07000000 	streq	r0, [r0, -r0]
     dec:	00012004 	andeq	r2, r1, r4
     df0:	03de1000 	bicseq	r1, lr, #0, 0
     df4:	14010000 	strne	r0, [r1], #-0
     df8:	00012003 	andeq	r2, r1, r3
     dfc:	03c61100 	biceq	r1, r6, #0
     e00:	18010000 	stmdane	r1, {}	; <UNPREDICTABLE>
     e04:	0001480f 	andeq	r4, r1, pc, lsl #16
     e08:	a8030500 	stmdage	r3, {r8, sl}
     e0c:	110000ae 	smlatbne	r0, lr, r0, r0
     e10:	000003a6 	andeq	r0, r0, r6, lsr #7
     e14:	78101901 	ldmdavc	r0, {r0, r8, fp, ip}
     e18:	05000001 	streq	r0, [r0, #-1]
     e1c:	00aea003 	adceq	sl, lr, r3
     e20:	48040700 	stmdami	r4, {r8, r9, sl}
     e24:	12000001 	andne	r0, r0, #1, 0
     e28:	0000039e 	muleq	r0, lr, r3
     e2c:	38065301 	stmdacc	r6, {r0, r8, r9, ip, lr}
     e30:	c4000086 	strgt	r0, [r0], #-134	; 0xffffff7a
     e34:	01000000 	mrseq	r0, (UNDEF: 0)
     e38:	0001c79c 	muleq	r1, ip, r7
     e3c:	70611300 	rsbvc	r1, r1, r0, lsl #6
     e40:	14530100 	ldrbne	r0, [r3], #-256	; 0xffffff00
     e44:	000000f3 	strdeq	r0, [r0], -r3
     e48:	62145001 	andsvs	r5, r4, #1, 0
     e4c:	55010070 	strpl	r0, [r1, #-112]	; 0xffffff90
     e50:	0001780a 	andeq	r7, r1, sl, lsl #16
     e54:	00047800 	andeq	r7, r4, r0, lsl #16
     e58:	00047000 	andeq	r7, r4, r0
     e5c:	00701400 	rsbseq	r1, r0, r0, lsl #8
     e60:	780f5501 	stmdavc	pc, {r0, r8, sl, ip, lr}	; <UNPREDICTABLE>
     e64:	b4000001 	strlt	r0, [r0], #-1
     e68:	b0000004 	andlt	r0, r0, r4
     e6c:	00000004 	andeq	r0, r0, r4
     e70:	00038115 	andeq	r8, r3, r5, lsl r1
     e74:	072b0100 	streq	r0, [fp, -r0, lsl #2]!
     e78:	000000f3 	strdeq	r0, [r0], -r3
     e7c:	00008778 	andeq	r8, r0, r8, ror r7
     e80:	000000b4 	strheq	r0, [r0], -r4
     e84:	02419c01 	subeq	r9, r1, #256	; 0x100
     e88:	7a160000 	bvc	580e90 <__bss_end__+0x575bc8>
     e8c:	01000003 	tsteq	r0, r3
     e90:	002c1a2b 	eoreq	r1, ip, fp, lsr #20
     e94:	04da0000 	ldrbeq	r0, [sl], #0
     e98:	04d20000 	ldrbeq	r0, [r2], #0
     e9c:	70140000 	andsvc	r0, r4, r0
     ea0:	0a2d0100 	beq	b412a8 <__bss_end__+0xb35fe0>
     ea4:	00000178 	andeq	r0, r0, r8, ror r1
     ea8:	00000522 	andeq	r0, r0, r2, lsr #10
     eac:	00000514 	andeq	r0, r0, r4, lsl r5
     eb0:	00039217 	andeq	r9, r3, r7, lsl r2
     eb4:	0e2d0100 	sufeqe	f0, f5, f0
     eb8:	00000178 	andeq	r0, r0, r8, ror r1
     ebc:	00000584 	andeq	r0, r0, r4, lsl #11
     ec0:	0000057a 	andeq	r0, r0, sl, ror r5
     ec4:	0003ac17 	andeq	sl, r3, r7, lsl ip
     ec8:	0b2e0100 	bleq	b812d0 <__bss_end__+0xb76008>
     ecc:	0000002c 	andeq	r0, r0, ip, lsr #32
     ed0:	000005ca 	andeq	r0, r0, sl, asr #11
     ed4:	000005c8 	andeq	r0, r0, r8, asr #11
     ed8:	00881c18 	addeq	r1, r8, r8, lsl ip
     edc:	00024100 	andeq	r4, r2, r0, lsl #2
     ee0:	50011900 	andpl	r1, r1, r0, lsl #18
     ee4:	80000a03 	andhi	r0, r0, r3, lsl #20
     ee8:	d01a0000 	andsle	r0, sl, r0
     eec:	01000003 	tsteq	r0, r3
     ef0:	0178101c 	cmneq	r8, ip, lsl r0
     ef4:	870c0000 	strhi	r0, [ip, -r0]
     ef8:	005c0000 	subseq	r0, ip, r0
     efc:	9c010000 	stcls	0, cr0, [r1], {-0}
     f00:	000002d1 	ldrdeq	r0, [r0], -r1
     f04:	00756e1b 	rsbseq	r6, r5, fp, lsl lr
     f08:	2c221c01 	stccs	12, cr1, [r2], #-4
     f0c:	e1000000 	mrs	r0, (UNDEF: 0)
     f10:	dd000005 	stcle	0, cr0, [r0, #-20]	; 0xffffffec
     f14:	14000005 	strne	r0, [r0], #-5
     f18:	01007063 	tsteq	r0, r3, rrx
     f1c:	02d10821 	sbcseq	r0, r1, #2162688	; 0x210000
     f20:	06050000 	streq	r0, [r5], -r0
     f24:	05ff0000 	ldrbeq	r0, [pc, #0]!	; f2c <__code_start__-0x70d4>
     f28:	75140000 	ldrvc	r0, [r4, #-0]
     f2c:	24010070 	strcs	r0, [r1], #-112	; 0xffffff90
     f30:	0001780a 	andeq	r7, r1, sl, lsl #16
     f34:	00063400 	andeq	r3, r6, r0, lsl #8
     f38:	00063000 	andeq	r3, r6, r0
     f3c:	87301c00 	ldrhi	r1, [r0, -r0, lsl #24]!
     f40:	02d70000 	sbcseq	r0, r7, #0, 0
     f44:	02b10000 	adcseq	r0, r1, #0, 0
     f48:	01190000 	tsteq	r9, r0
     f4c:	a8030550 	stmdage	r3, {r4, r6, r8, sl}
     f50:	190000a7 	stmdbne	r0, {r0, r1, r2, r5, r7}
     f54:	74025101 	strvc	r5, [r2], #-257	; 0xfffffeff
     f58:	381c0000 	ldmdacc	ip, {}	; <UNPREDICTABLE>
     f5c:	e3000087 	movw	r0, #135	; 0x87
     f60:	c7000002 	strgt	r0, [r0, -r2]
     f64:	19000002 	stmdbne	r0, {r1}
     f68:	74045001 	strvc	r5, [r4], #-1
     f6c:	00243300 	eoreq	r3, r4, r0, lsl #6
     f70:	00874c1d 	addeq	r4, r7, sp, lsl ip
     f74:	00017e00 	andeq	r7, r1, r0, lsl #28
     f78:	04070000 	streq	r0, [r7], #-0
     f7c:	000000a1 	andeq	r0, r0, r1, lsr #1
     f80:	00063b1e 	andeq	r3, r6, lr, lsl fp
     f84:	00063b00 	andeq	r3, r6, r0, lsl #22
     f88:	06280200 	strteq	r0, [r8], -r0, lsl #4
     f8c:	0003cb1e 	andeq	ip, r3, lr, lsl fp
     f90:	0003cb00 	andeq	ip, r3, r0, lsl #22
     f94:	0b1a0300 	bleq	681b9c <__bss_end__+0x6768d4>
     f98:	000cbe00 	andeq	fp, ip, r0, lsl #28
     f9c:	18000400 	stmdane	r0, {sl}
     fa0:	04000006 	streq	r0, [r0], #-6
     fa4:	00007e01 	andeq	r7, r0, r1, lsl #28
     fa8:	04990c00 	ldreq	r0, [r9], #3072	; 0xc00
     fac:	01e20000 	mvneq	r0, r0
     fb0:	882c0000 	stmdahi	ip!, {}	; <UNPREDICTABLE>
     fb4:	06a80000 	strteq	r0, [r8], r0
     fb8:	081d0000 	ldmdaeq	sp, {}	; <UNPREDICTABLE>
     fbc:	04020000 	streq	r0, [r2], #-0
     fc0:	746e6905 	strbtvc	r6, [lr], #-2309	; 0xfffff6fb
     fc4:	07040300 	streq	r0, [r4, -r0, lsl #6]
     fc8:	00000171 	andeq	r0, r0, r1, ror r1
     fcc:	72060103 	andvc	r0, r6, #-1073741824	; 0xc0000000
     fd0:	03000000 	movweq	r0, #0
     fd4:	00000502 	andeq	r0, r0, r2, lsl #10
     fd8:	04030000 	streq	r0, [r3], #-0
     fdc:	00003305 	andeq	r3, r0, r5, lsl #6
     fe0:	05080300 	streq	r0, [r8, #-768]	; 0xfffffd00
     fe4:	0000002e 	andeq	r0, r0, lr, lsr #32
     fe8:	00028f04 	andeq	r8, r2, r4, lsl #30
     fec:	182e0300 	stmdane	lr!, {r8, r9}
     ff0:	0000005b 	andeq	r0, r0, fp, asr r0
     ff4:	70080103 	andvc	r0, r8, r3, lsl #2
     ff8:	04000000 	streq	r0, [r0], #-0
     ffc:	000002fb 	strdeq	r0, [r0], -fp
    1000:	6e193103 	mufvse	f3, f1, f3
    1004:	03000000 	movweq	r0, #0
    1008:	01b80702 			; <UNDEFINED> instruction: 0x01b80702
    100c:	7e040000 	cdpvc	0, 0, cr0, cr4, cr0, {0}
    1010:	03000001 	movweq	r0, #1
    1014:	00811934 	addeq	r1, r1, r4, lsr r9
    1018:	04030000 	streq	r0, [r3], #-0
    101c:	00016c07 	andeq	r6, r1, r7, lsl #24
    1020:	07080300 	streq	r0, [r8, -r0, lsl #6]
    1024:	00000167 	andeq	r0, r0, r7, ror #2
    1028:	00002505 	andeq	r2, r0, r5, lsl #10
    102c:	00009e00 	andeq	r9, r0, r0, lsl #28
    1030:	00250600 	eoreq	r0, r5, r0, lsl #12
    1034:	07000000 	streq	r0, [r0, -r0]
    1038:	0000000a 	andeq	r0, r0, sl
    103c:	aa0e1c04 	bge	388054 <__bss_end__+0x37cd8c>
    1040:	08000000 	stmdaeq	r0, {}	; <UNPREDICTABLE>
    1044:	00008f04 	andeq	r8, r0, r4, lsl #30
    1048:	00250500 	eoreq	r0, r5, r0, lsl #10
    104c:	00bf0000 	adcseq	r0, pc, r0
    1050:	bf060000 	svclt	0x00060000
    1054:	00000000 	andeq	r0, r0, r0
    1058:	00cc0408 	sbceq	r0, ip, r8, lsl #8
    105c:	01030000 	mrseq	r0, (UNDEF: 3)
    1060:	00007908 	andeq	r7, r0, r8, lsl #18
    1064:	00c50900 	sbceq	r0, r5, r0, lsl #18
    1068:	79070000 	stmdbvc	r7, {}	; <UNPREDICTABLE>
    106c:	04000006 	streq	r0, [r0], #-6
    1070:	00dd0e21 	sbcseq	r0, sp, r1, lsr #28
    1074:	04080000 	streq	r0, [r8], #-0
    1078:	000000b0 	strheq	r0, [r0], -r0	; <UNPREDICTABLE>
    107c:	05020c0a 	streq	r0, [r2, #-3082]	; 0xfffff3f6
    1080:	00011409 	andeq	r1, r1, r9, lsl #8
    1084:	001e0b00 	andseq	r0, lr, r0, lsl #22
    1088:	07020000 	streq	r0, [r2, -r0]
    108c:	0000bf11 	andeq	fp, r0, r1, lsl pc
    1090:	290b0000 	stmdbcs	fp, {}	; <UNPREDICTABLE>
    1094:	02000000 	andeq	r0, r0, #0, 0
    1098:	00bf1108 	adcseq	r1, pc, r8, lsl #2
    109c:	0b040000 	bleq	1010a4 <__bss_end__+0xf5ddc>
    10a0:	00000160 	andeq	r0, r0, r0, ror #2
    10a4:	2c0e0902 			; <UNDEFINED> instruction: 0x2c0e0902
    10a8:	08000000 	stmdaeq	r0, {}	; <UNPREDICTABLE>
    10ac:	022b0400 	eoreq	r0, fp, #0, 8
    10b0:	0a020000 	beq	810b8 <__bss_end__+0x75df0>
    10b4:	0000e303 	andeq	lr, r0, r3, lsl #6
    10b8:	01070c00 	tsteq	r7, r0, lsl #24
    10bc:	0000005b 	andeq	r0, r0, fp, asr r0
    10c0:	3b0e0905 	blcc	3834dc <__bss_end__+0x378214>
    10c4:	0d000001 	stceq	0, cr0, [r0, #-4]
    10c8:	00000345 	andeq	r0, r0, r5, asr #6
    10cc:	02540d0b 	subseq	r0, r4, #704	; 0x2c0
    10d0:	000c0000 	andeq	r0, ip, r0
    10d4:	5b01070c 	blpl	42d0c <__bss_end__+0x37a44>
    10d8:	05000000 	streq	r0, [r0, #-0]
    10dc:	0156060a 	cmpeq	r6, sl, lsl #12
    10e0:	730d0000 	movwvc	r0, #53248	; 0xd000
    10e4:	80000002 	andhi	r0, r0, r2
    10e8:	0002670d 	andeq	r6, r2, sp, lsl #14
    10ec:	0e00fe00 	cdpeq	14, 0, cr15, cr0, cr0, {0}
    10f0:	000002ba 			; <UNDEFINED> instruction: 0x000002ba
    10f4:	100d05b8 			; <UNDEFINED> instruction: 0x100d05b8
    10f8:	000001f3 	strdeq	r0, [r0], -r3
    10fc:	0002260b 	andeq	r2, r2, fp, lsl #12
    1100:	140e0500 	strne	r0, [lr], #-1280	; 0xfffffb00
    1104:	000001f3 	strdeq	r0, [r0], -r3
    1108:	02b30b00 	adcseq	r0, r3, #0, 22
    110c:	0f050000 	svceq	0x00050000
    1110:	0000750e 	andeq	r7, r0, lr, lsl #10
    1114:	5a0b0400 	bpl	2c211c <__bss_end__+0x2b6e54>
    1118:	05000002 	streq	r0, [r0, #-2]
    111c:	00750e10 	rsbseq	r0, r5, r0, lsl lr
    1120:	0b080000 	bleq	201128 <__bss_end__+0x1f5e60>
    1124:	000002db 	ldrdeq	r0, [r0], -fp
    1128:	750e1105 	strvc	r1, [lr, #-261]	; 0xfffffefb
    112c:	0c000000 	stceq	0, cr0, [r0], {-0}
    1130:	00024b0b 	andeq	r4, r2, fp, lsl #22
    1134:	0e150500 	cfmul32eq	mvfx0, mvfx5, mvfx0
    1138:	00000075 	andeq	r0, r0, r5, ror r0
    113c:	02d10b10 	sbcseq	r0, r1, #16, 22	; 0x4000
    1140:	17050000 	strne	r0, [r5, -r0]
    1144:	0001140f 	andeq	r1, r1, pc, lsl #8
    1148:	6e0b1400 	cfcpysvs	mvf1, mvf11
    114c:	05000003 	streq	r0, [r0, #-3]
    1150:	01140f18 	tsteq	r4, r8, lsl pc
    1154:	0b200000 	bleq	80115c <__bss_end__+0x7f5e94>
    1158:	000002e1 	andeq	r0, r0, r1, ror #5
    115c:	750e1b05 	strvc	r1, [lr, #-2821]	; 0xfffff4fb
    1160:	2c000000 	stccs	0, cr0, [r0], {-0}
    1164:	0003390b 	andeq	r3, r3, fp, lsl #18
    1168:	0e1c0500 	cfmul32eq	mvfx0, mvfx12, mvfx0
    116c:	00000075 	andeq	r0, r0, r5, ror r0
    1170:	04350b30 	ldrteq	r0, [r5], #-2864	; 0xfffff4d0
    1174:	1e050000 	cdpne	0, 0, cr0, cr5, cr0, {0}
    1178:	0000620e 	andeq	r6, r0, lr, lsl #4
    117c:	720f3400 	andvc	r3, pc, #0, 8
    1180:	0500317a 	streq	r3, [r0, #-378]	; 0xfffffe86
    1184:	01f90d20 	mvnseq	r0, r0, lsr #26
    1188:	00360000 	eorseq	r0, r6, r0
    118c:	01560408 	cmpeq	r6, r8, lsl #8
    1190:	4f100000 	svcmi	0x00100000
    1194:	09000000 	stmdbeq	r0, {}	; <UNPREDICTABLE>
    1198:	11000002 	tstne	r0, r2
    119c:	0000002c 	andeq	r0, r0, ip, lsr #32
    11a0:	4504007f 	strmi	r0, [r4, #-127]	; 0xffffff81
    11a4:	05000002 	streq	r0, [r0, #-2]
    11a8:	01560321 	cmpeq	r6, r1, lsr #6
    11ac:	04120000 	ldreq	r0, [r2], #-0
    11b0:	00006307 	andeq	r6, r0, r7, lsl #6
    11b4:	11a90500 			; <UNDEFINED> instruction: 0x11a90500
    11b8:	0000002c 	andeq	r0, r0, ip, lsr #32
    11bc:	000ae113 	andeq	lr, sl, r3, lsl r1
    11c0:	0e100100 	mufeqs	f0, f0, f0
    11c4:	00000215 	andeq	r0, r0, r5, lsl r2
    11c8:	aeb00305 	cdpge	3, 11, cr0, cr0, cr5, {0}
    11cc:	3c130000 	ldccc	0, cr0, [r3], {-0}
    11d0:	0100000b 	tsteq	r0, fp
    11d4:	02150e11 	andseq	r0, r5, #272	; 0x110
    11d8:	03050000 	movweq	r0, #20480	; 0x5000
    11dc:	0000aeb4 			; <UNDEFINED> instruction: 0x0000aeb4
    11e0:	0003f814 	andeq	pc, r3, r4, lsl r8	; <UNPREDICTABLE>
    11e4:	01190100 	tsteq	r9, r0, lsl #2
    11e8:	008ea006 	addeq	sl, lr, r6
    11ec:	00003400 	andeq	r3, r0, r0, lsl #8
    11f0:	a79c0100 	ldrge	r0, [ip, r0, lsl #2]
    11f4:	15000002 	strne	r0, [r0, #-2]
    11f8:	00000049 	andeq	r0, r0, r9, asr #32
    11fc:	000002b7 			; <UNDEFINED> instruction: 0x000002b7
    1200:	aad80305 	bge	ff601e1c <__bss_end__+0xff5f6b54>
    1204:	c0160000 	andsgt	r0, r6, r0
    1208:	4600008e 	strmi	r0, [r0], -lr, lsl #1
    120c:	9d00000c 	stcls	0, cr0, [r0, #-48]	; 0xffffffd0
    1210:	17000002 	strne	r0, [r0, -r2]
    1214:	03055001 	movweq	r5, #20481	; 0x5001
    1218:	0000aa68 	andeq	sl, r0, r8, ror #20
    121c:	05510117 	ldrbeq	r0, [r1, #-279]	; 0xfffffee9
    1220:	00a7cc03 	adceq	ip, r7, r3, lsl #24
    1224:	52011700 	andpl	r1, r1, #0, 14
    1228:	aad80305 	bge	ff601e44 <__bss_end__+0xff5f6b7c>
    122c:	01170000 	tsteq	r7, r0
    1230:	1b0a0353 	blne	281f84 <__bss_end__+0x276cbc>
    1234:	c4180001 	ldrgt	r0, [r8], #-1
    1238:	5200008e 	andpl	r0, r0, #142, 0	; 0x8e
    123c:	0000000c 	andeq	r0, r0, ip
    1240:	0000cc10 	andeq	ip, r0, r0, lsl ip
    1244:	0002b700 	andeq	fp, r2, r0, lsl #14
    1248:	002c1100 	eoreq	r1, ip, r0, lsl #2
    124c:	000e0000 	andeq	r0, lr, r0
    1250:	0002a709 	andeq	sl, r2, r9, lsl #14
    1254:	00431900 	subeq	r1, r3, r0, lsl #18
    1258:	0f010000 	svceq	0x00010000
    125c:	002c0a01 	eoreq	r0, ip, r1, lsl #20
    1260:	8e740000 	cdphi	0, 7, cr0, cr4, cr0, {0}
    1264:	00180000 	andseq	r0, r8, r0
    1268:	9c010000 	stcls	0, cr0, [r1], {-0}
    126c:	000002ff 	strdeq	r0, [r0], -pc	; <UNPREDICTABLE>
    1270:	00037a1a 	andeq	r7, r3, sl, lsl sl
    1274:	01120100 	tsteq	r2, r0, lsl #2
    1278:	00002c0e 	andeq	r2, r0, lr, lsl #24
    127c:	00065600 	andeq	r5, r6, r0, lsl #12
    1280:	00065400 	andeq	r5, r6, r0, lsl #8
    1284:	8e841800 	cdphi	8, 8, cr1, cr4, cr0, {0}
    1288:	07a30000 	streq	r0, [r3, r0]!
    128c:	88180000 	ldmdahi	r8, {}	; <UNPREDICTABLE>
    1290:	ff00008e 			; <UNDEFINED> instruction: 0xff00008e
    1294:	00000002 	andeq	r0, r0, r2
    1298:	0004e61b 	andeq	lr, r4, fp, lsl r6
    129c:	11f70100 	mvnsne	r0, r0, lsl #2
    12a0:	0000002c 	andeq	r0, r0, ip, lsr #32
    12a4:	00008bc4 	andeq	r8, r0, r4, asr #23
    12a8:	000000f0 	strdeq	r0, [r0], -r0	; <UNPREDICTABLE>
    12ac:	04699c01 	strbteq	r9, [r9], #-3073	; 0xfffff3ff
    12b0:	151c0000 	ldrne	r0, [ip, #-0]
    12b4:	01000004 	tsteq	r0, r4
    12b8:	002c0ef9 	strdeq	r0, [ip], -r9	; <UNPREDICTABLE>
    12bc:	066d0000 	strbteq	r0, [sp], -r0
    12c0:	06690000 	strbteq	r0, [r9], -r0
    12c4:	841c0000 	ldrhi	r0, [ip], #-0
    12c8:	01000004 	tsteq	r0, r4
    12cc:	002c1bf9 	strdeq	r1, [ip], -r9	; <UNPREDICTABLE>
    12d0:	06900000 	ldreq	r0, [r0], r0
    12d4:	068c0000 	streq	r0, [ip], r0
    12d8:	241c0000 	ldrcs	r0, [ip], #-0
    12dc:	01000004 	tsteq	r0, r4
    12e0:	002c27f9 	strdeq	r2, [ip], -r9	; <UNPREDICTABLE>
    12e4:	06b50000 	ldrteq	r0, [r5], r0
    12e8:	06af0000 	strteq	r0, [pc], r0
    12ec:	49150000 	ldmdbmi	r5, {}	; <UNPREDICTABLE>
    12f0:	79000000 	stmdbvc	r0, {}	; <UNPREDICTABLE>
    12f4:	05000004 	streq	r0, [r0, #-4]
    12f8:	00aaa003 	adceq	sl, sl, r3
    12fc:	00981d00 	addseq	r1, r8, r0, lsl #26
    1300:	040c0000 	streq	r0, [ip], #-0
    1304:	681e0000 	ldmdavs	lr, {}	; <UNPREDICTABLE>
    1308:	11fe0100 	mvnsne	r0, r0, lsl #2
    130c:	0000047e 	andeq	r0, r0, lr, ror r4
    1310:	000006e7 	andeq	r0, r0, r7, ror #13
    1314:	000006df 	ldrdeq	r0, [r0], -pc	; <UNPREDICTABLE>
    1318:	000c101f 	andeq	r1, ip, pc, lsl r0
    131c:	008c1000 	addeq	r1, ip, r0
    1320:	8c100000 	ldchi	0, cr0, [r0], {-0}
    1324:	00180000 	andseq	r0, r8, r0
    1328:	05010000 	streq	r0, [r1, #-0]
    132c:	03c10d01 	biceq	r0, r1, #64	; 0x40
    1330:	39200000 	stmdbcc	r0!, {}	; <UNPREDICTABLE>
    1334:	1d00000c 	stcne	0, cr0, [r0, #-48]	; 0xffffffd0
    1338:	1b000007 	blne	135c <__code_start__-0x6ca4>
    133c:	20000007 	andcs	r0, r0, r7
    1340:	00000c2d 	andeq	r0, r0, sp, lsr #24
    1344:	00000735 	andeq	r0, r0, r5, lsr r7
    1348:	00000733 	andeq	r0, r0, r3, lsr r7
    134c:	000c2120 	andeq	r2, ip, r0, lsr #2
    1350:	00074f00 	andeq	r4, r7, r0, lsl #30
    1354:	00074d00 	andeq	r4, r7, r0, lsl #26
    1358:	ec180000 	ldc	0, cr0, [r8], {-0}
    135c:	6d00008b 	stcvs	0, cr0, [r0, #-556]	; 0xfffffdd4
    1360:	1600000c 	strne	r0, [r0], -ip
    1364:	00008c38 	andeq	r8, r0, r8, lsr ip
    1368:	00000c79 	andeq	r0, r0, r9, ror ip
    136c:	000003de 	ldrdeq	r0, [r0], -lr
    1370:	02500117 	subseq	r0, r0, #-1073741819	; 0xc0000005
    1374:	16000078 			; <UNDEFINED> instruction: 0x16000078
    1378:	00008c44 	andeq	r8, r0, r4, asr #24
    137c:	00000c46 	andeq	r0, r0, r6, asr #24
    1380:	000003fb 	strdeq	r0, [r0], -fp
    1384:	05500117 	ldrbeq	r0, [r0, #-279]	; 0xfffffee9
    1388:	00a95c03 	adceq	r5, r9, r3, lsl #24
    138c:	51011700 	tstpl	r1, r0, lsl #14
    1390:	00007802 	andeq	r7, r0, r2, lsl #16
    1394:	008c4c21 	addeq	r4, ip, r1, lsr #24
    1398:	000c8500 	andeq	r8, ip, r0, lsl #10
    139c:	50011700 	andpl	r1, r1, r0, lsl #14
    13a0:	00007402 	andeq	r7, r0, r2, lsl #8
    13a4:	8bdc1600 	blhi	ff706bac <__bss_end__+0xff6fb8e4>
    13a8:	0c460000 	mareq	acc0, r0, r6
    13ac:	04230000 	strteq	r0, [r3], #-0
    13b0:	01170000 	tsteq	r7, r0
    13b4:	18030550 	stmdane	r3, {r4, r6, r8, sl}
    13b8:	000000a8 	andeq	r0, r0, r8, lsr #1
    13bc:	008be416 	addeq	lr, fp, r6, lsl r4
    13c0:	000c4600 	andeq	r4, ip, r0, lsl #12
    13c4:	00043a00 	andeq	r3, r4, r0, lsl #20
    13c8:	50011700 	andpl	r1, r1, r0, lsl #14
    13cc:	a94c0305 	stmdbge	ip, {r0, r2, r8, r9}^
    13d0:	18000000 	stmdane	r0, {}	; <UNPREDICTABLE>
    13d4:	00008be8 	andeq	r8, r0, r8, ror #23
    13d8:	000007a3 	andeq	r0, r0, r3, lsr #15
    13dc:	008c8c21 	addeq	r8, ip, r1, lsr #24
    13e0:	000c4600 	andeq	r4, ip, r0, lsl #12
    13e4:	50011700 	andpl	r1, r1, r0, lsl #14
    13e8:	a96c0305 	stmdbge	ip!, {r0, r2, r8, r9}^
    13ec:	01170000 	tsteq	r7, r0
    13f0:	00750251 	rsbseq	r0, r5, r1, asr r2
    13f4:	02520117 	subseq	r0, r2, #-1073741819	; 0xc0000005
    13f8:	01170077 	tsteq	r7, r7, ror r0
    13fc:	00760253 	rsbseq	r0, r6, r3, asr r2
    1400:	cc100000 	ldcgt	0, cr0, [r0], {-0}
    1404:	79000000 	stmdbvc	r0, {}	; <UNPREDICTABLE>
    1408:	11000004 	tstne	r0, r4
    140c:	0000002c 	andeq	r0, r0, ip, lsr #32
    1410:	6909000a 	stmdbvs	r9, {r1, r3}
    1414:	08000004 	stmdaeq	r0, {r2}
    1418:	00020904 	andeq	r0, r2, r4, lsl #18
    141c:	01cb2200 	biceq	r2, fp, r0, lsl #4
    1420:	e7010000 	str	r0, [r1, -r0]
    1424:	00002c0a 	andeq	r2, r0, sl, lsl #24
    1428:	008e1000 	addeq	r1, lr, r0
    142c:	00005800 	andeq	r5, r0, r0, lsl #16
    1430:	2a9c0100 	bcs	fe701838 <__bss_end__+0xfe6f6570>
    1434:	1c000005 	stcne	0, cr0, [r0], {5}
    1438:	00000469 	andeq	r0, r0, r9, ror #8
    143c:	2c0eed01 	stccs	13, cr14, [lr], {1}
    1440:	6d000000 	stcvs	0, cr0, [r0, #-0]
    1444:	67000007 	strvs	r0, [r0, -r7]
    1448:	15000007 	strne	r0, [r0, #-7]
    144c:	00000049 	andeq	r0, r0, r9, asr #32
    1450:	0000053a 	andeq	r0, r0, sl, lsr r5
    1454:	aac40305 	bge	ff102070 <__bss_end__+0xff0f6da8>
    1458:	24160000 	ldrcs	r0, [r6], #-0
    145c:	dc00008e 	stcle	0, cr0, [r0], {142}	; 0x8e
    1460:	d4000005 	strle	r0, [r0], #-5
    1464:	17000004 	strne	r0, [r0, -r4]
    1468:	31015001 	tstcc	r1, r1
    146c:	8e381600 	cfmsuba32hi	mvax0, mvax1, mvfx8, mvfx0
    1470:	0c460000 	mareq	acc0, r0, r6
    1474:	04f10000 	ldrbteq	r0, [r1], #0
    1478:	01170000 	tsteq	r7, r0
    147c:	44030550 	strmi	r0, [r3], #-1360	; 0xfffffab0
    1480:	170000aa 	strne	r0, [r0, -sl, lsr #1]
    1484:	74025101 	strvc	r5, [r2], #-257	; 0xfffffeff
    1488:	54160000 	ldrpl	r0, [r6], #-0
    148c:	4600008e 	strmi	r0, [r0], -lr, lsl #1
    1490:	2000000c 	andcs	r0, r0, ip
    1494:	17000005 	strne	r0, [r0, -r5]
    1498:	03055001 	movweq	r5, #20481	; 0x5001
    149c:	0000aa1c 	andeq	sl, r0, ip, lsl sl
    14a0:	05510117 	ldrbeq	r0, [r1, #-279]	; 0xfffffee9
    14a4:	00a7cc03 	adceq	ip, r7, r3, lsl #24
    14a8:	52011700 	andpl	r1, r1, #0, 14
    14ac:	aac40305 	bge	ff1020c8 <__bss_end__+0xff0f6e00>
    14b0:	01170000 	tsteq	r7, r0
    14b4:	ef080253 	svc	0x00080253
    14b8:	8e581800 	cdphi	8, 5, cr1, cr8, cr0, {0}
    14bc:	0c520000 	mraeq	r0, r2, acc0
    14c0:	10000000 	andne	r0, r0, r0
    14c4:	000000cc 	andeq	r0, r0, ip, asr #1
    14c8:	0000053a 	andeq	r0, r0, sl, lsr r5
    14cc:	00002c11 	andeq	r2, r0, r1, lsl ip
    14d0:	09001100 	stmdbeq	r0, {r8, ip}
    14d4:	0000052a 	andeq	r0, r0, sl, lsr #10
    14d8:	00018723 	andeq	r8, r1, r3, lsr #14
    14dc:	06d90100 	ldrbeq	r0, [r9], r0, lsl #2
    14e0:	00008da8 	andeq	r8, r0, r8, lsr #27
    14e4:	00000050 	andeq	r0, r0, r0, asr r0
    14e8:	05c79c01 	strbeq	r9, [r7, #3073]	; 0xc01
    14ec:	49150000 	ldmdbmi	r5, {}	; <UNPREDICTABLE>
    14f0:	d7000000 	strle	r0, [r0, -r0]
    14f4:	05000005 	streq	r0, [r0, #-5]
    14f8:	00aab403 	adceq	fp, sl, r3, lsl #8
    14fc:	8dbc1600 	ldchi	6, cr1, [ip]
    1500:	05dc0000 	ldrbeq	r0, [ip]
    1504:	05770000 	ldrbeq	r0, [r7, #-0]!
    1508:	01170000 	tsteq	r7, r0
    150c:	00310150 	eorseq	r0, r1, r0, asr r1
    1510:	008dcc16 	addeq	ip, sp, r6, lsl ip
    1514:	000c4600 	andeq	r4, ip, r0, lsl #12
    1518:	00058e00 	andeq	r8, r5, r0, lsl #28
    151c:	50011700 	andpl	r1, r1, r0, lsl #14
    1520:	a9fc0305 	ldmibge	ip!, {r0, r2, r8, r9}^
    1524:	16000000 	strne	r0, [r0], -r0
    1528:	00008de4 	andeq	r8, r0, r4, ror #27
    152c:	00000c46 	andeq	r0, r0, r6, asr #24
    1530:	000005bd 			; <UNDEFINED> instruction: 0x000005bd
    1534:	05500117 	ldrbeq	r0, [r0, #-279]	; 0xfffffee9
    1538:	00a9d003 	adceq	sp, r9, r3
    153c:	51011700 	tstpl	r1, r0, lsl #14
    1540:	a7cc0305 	strbge	r0, [ip, r5, lsl #6]
    1544:	01170000 	tsteq	r7, r0
    1548:	b4030552 	strlt	r0, [r3], #-1362	; 0xfffffaae
    154c:	170000aa 	strne	r0, [r0, -sl, lsr #1]
    1550:	08025301 	stmdaeq	r2, {r0, r8, r9, ip, lr}
    1554:	e81800e0 	ldmda	r8, {r5, r6, r7}
    1558:	5200008d 	andpl	r0, r0, #141, 0	; 0x8d
    155c:	0000000c 	andeq	r0, r0, ip
    1560:	0000cc10 	andeq	ip, r0, r0, lsl ip
    1564:	0005d700 	andeq	sp, r5, r0, lsl #14
    1568:	002c1100 	eoreq	r1, ip, r0, lsl #2
    156c:	000d0000 	andeq	r0, sp, r0
    1570:	0005c709 	andeq	ip, r5, r9, lsl #14
    1574:	04442200 	strbeq	r2, [r4], #-512	; 0xfffffe00
    1578:	d2010000 	andle	r0, r1, #0, 0
    157c:	00002c0a 	andeq	r2, r0, sl, lsl #24
    1580:	008d8000 	addeq	r8, sp, r0
    1584:	00001400 	andeq	r1, r0, r0, lsl #8
    1588:	1c9c0100 	ldfnes	f0, [ip], {0}
    158c:	24000006 	strcs	r0, [r0], #-6
    1590:	000004f1 	strdeq	r0, [r0], -r1
    1594:	251cd201 	ldrcs	sp, [ip, #-513]	; 0xfffffdff
    1598:	9a000000 	bls	15a0 <__code_start__-0x6a60>
    159c:	96000007 	strls	r0, [r0], -r7
    15a0:	21000007 	tstcs	r0, r7
    15a4:	00008d90 	muleq	r0, r0, sp
    15a8:	0000061c 	andeq	r0, r0, ip, lsl r6
    15ac:	03500117 	cmpeq	r0, #-1073741819	; 0xc0000005
    15b0:	005001f3 	ldrsheq	r0, [r0], #-19	; 0xffffffed
    15b4:	04cc1b00 	strbeq	r1, [ip], #2816	; 0xb00
    15b8:	a5010000 	strge	r0, [r1, #-0]
    15bc:	00002c11 	andeq	r2, r0, r1, lsl ip
    15c0:	008aac00 	addeq	sl, sl, r0, lsl #24
    15c4:	00010800 	andeq	r0, r1, r0, lsl #16
    15c8:	a39c0100 	orrsge	r0, ip, #0
    15cc:	24000007 	strcs	r0, [r0], #-7
    15d0:	000004f1 	strdeq	r0, [r0], -r1
    15d4:	2520a501 	strcs	sl, [r0, #-1281]!	; 0xfffffaff
    15d8:	bf000000 	svclt	0x00000000
    15dc:	bb000007 	bllt	1600 <__code_start__-0x6a00>
    15e0:	1c000007 	stcne	0, cr0, [r0], {7}
    15e4:	00000415 	andeq	r0, r0, r5, lsl r4
    15e8:	2c0ea701 	stccs	7, cr10, [lr], {1}
    15ec:	e1000000 	mrs	r0, (UNDEF: 0)
    15f0:	dd000007 	stcle	0, cr0, [r0, #-28]	; 0xffffffe4
    15f4:	1c000007 	stcne	0, cr0, [r0], {7}
    15f8:	00000458 	andeq	r0, r0, r8, asr r4
    15fc:	2c1ba701 	ldccs	7, cr10, [fp], {1}
    1600:	06000000 	streq	r0, [r0], -r0
    1604:	00000008 	andeq	r0, r0, r8
    1608:	1c000008 	stcne	0, cr0, [r0], {8}
    160c:	00000452 	andeq	r0, r0, r2, asr r4
    1610:	2c27a701 	stccs	7, cr10, [r7], #-4
    1614:	34000000 	strcc	r0, [r0], #-0
    1618:	30000008 	andcc	r0, r0, r8
    161c:	1d000008 	stcne	0, cr0, [r0, #-32]	; 0xffffffe0
    1620:	00000080 	andeq	r0, r0, r0, lsl #1
    1624:	00000701 	andeq	r0, r0, r1, lsl #14
    1628:	0100681e 	tsteq	r0, lr, lsl r8
    162c:	047e11ac 	ldrbteq	r1, [lr], #-428	; 0xfffffe54
    1630:	08610000 	stmdaeq	r1!, {}^	; <UNPREDICTABLE>
    1634:	08530000 	ldmdaeq	r3, {}^	; <UNPREDICTABLE>
    1638:	d4180000 	ldrle	r0, [r8], #-0
    163c:	6d00008a 	stcvs	0, cr0, [r0, #-552]	; 0xfffffdd8
    1640:	1600000c 	strne	r0, [r0], -ip
    1644:	00008afc 	strdeq	r8, [r0], -ip
    1648:	00000c46 	andeq	r0, r0, r6, asr #24
    164c:	000006cd 	andeq	r0, r0, sp, asr #13
    1650:	05500117 	ldrbeq	r0, [r0, #-279]	; 0xfffffee9
    1654:	00a86c03 	adceq	r6, r8, r3, lsl #24
    1658:	51011700 	tstpl	r1, r0, lsl #14
    165c:	17007502 	strne	r7, [r0, -r2, lsl #10]
    1660:	74025201 	strvc	r5, [r2], #-513	; 0xfffffdff
    1664:	04160000 	ldreq	r0, [r6], #-0
    1668:	8500008b 	strhi	r0, [r0, #-139]	; 0xffffff75
    166c:	e100000c 	tst	r0, ip
    1670:	17000006 	strne	r0, [r0, -r6]
    1674:	74025001 	strvc	r5, [r2], #-1
    1678:	48210000 	stmdami	r1!, {}	; <UNPREDICTABLE>
    167c:	4600008b 	strmi	r0, [r0], -fp, lsl #1
    1680:	1700000c 	strne	r0, [r0, -ip]
    1684:	03055001 	movweq	r5, #20481	; 0x5001
    1688:	0000a880 	andeq	sl, r0, r0, lsl #17
    168c:	02510117 	subseq	r0, r1, #-1073741819	; 0xc0000005
    1690:	01170075 	tsteq	r7, r5, ror r0
    1694:	00740252 	rsbseq	r0, r4, r2, asr r2
    1698:	c4160000 	ldrgt	r0, [r6], #-0
    169c:	4600008a 	strmi	r0, [r0], -sl, lsl #1
    16a0:	1800000c 	stmdane	r0, {r2, r3}
    16a4:	17000007 	strne	r0, [r0, -r7]
    16a8:	03055001 	movweq	r5, #20481	; 0x5001
    16ac:	0000a818 	andeq	sl, r0, r8, lsl r8
    16b0:	8acc1600 	bhi	ff306eb8 <__bss_end__+0xff2fbbf0>
    16b4:	0c460000 	mareq	acc0, r0, r6
    16b8:	072f0000 	streq	r0, [pc, -r0]!
    16bc:	01170000 	tsteq	r7, r0
    16c0:	54030550 	strpl	r0, [r3], #-1360	; 0xfffffab0
    16c4:	000000a8 	andeq	r0, r0, r8, lsr #1
    16c8:	008ad018 	addeq	sp, sl, r8, lsl r0
    16cc:	0007a300 	andeq	sl, r7, r0, lsl #6
    16d0:	8b581600 	blhi	1606ed8 <__bss_end__+0x15fbc10>
    16d4:	0c460000 	mareq	acc0, r0, r6
    16d8:	07550000 	ldrbeq	r0, [r5, -r0]
    16dc:	01170000 	tsteq	r7, r0
    16e0:	98030550 	stmdals	r3, {r4, r6, r8, sl}
    16e4:	170000a8 	strne	r0, [r0, -r8, lsr #1]
    16e8:	75025101 	strvc	r5, [r2, #-257]	; 0xfffffeff
    16ec:	68160000 	ldmdavs	r6, {}	; <UNPREDICTABLE>
    16f0:	4600008b 	strmi	r0, [r0], -fp, lsl #1
    16f4:	6c00000c 	stcvs	0, cr0, [r0], {12}
    16f8:	17000007 	strne	r0, [r0, -r7]
    16fc:	03055001 	movweq	r5, #20481	; 0x5001
    1700:	0000a8b8 			; <UNDEFINED> instruction: 0x0000a8b8
    1704:	8b701600 	blhi	1c06f0c <__bss_end__+0x1bfbc44>
    1708:	0c460000 	mareq	acc0, r0, r6
    170c:	07830000 	streq	r0, [r3, r0]
    1710:	01170000 	tsteq	r7, r0
    1714:	10030550 	andne	r0, r3, r0, asr r5
    1718:	000000a9 	andeq	r0, r0, r9, lsr #1
    171c:	008b9021 	addeq	r9, fp, r1, lsr #32
    1720:	000c4600 	andeq	r4, ip, r0, lsl #12
    1724:	50011700 	andpl	r1, r1, r0, lsl #14
    1728:	a8e00305 	stmiage	r0!, {r0, r2, r8, r9}^
    172c:	01170000 	tsteq	r7, r0
    1730:	00760251 	rsbseq	r0, r6, r1, asr r2
    1734:	02520117 	subseq	r0, r2, #-1073741819	; 0xc0000005
    1738:	00000078 	andeq	r0, r0, r8, ror r0
    173c:	0003ef25 	andeq	lr, r3, r5, lsr #30
    1740:	0d790100 	ldfeqe	f0, [r9, #-0]
    1744:	000089f0 	strdeq	r8, [r0], -r0
    1748:	000000ac 	andeq	r0, r0, ip, lsr #1
    174c:	08b19c01 	ldmeq	r1!, {r0, sl, fp, ip, pc}
    1750:	64130000 	ldrvs	r0, [r3], #-0
    1754:	01000004 	tsteq	r0, r4
    1758:	08b10e85 	ldmeq	r1!, {r0, r2, r7, r9, sl, fp}
    175c:	91030000 	mrsls	r0, (UNDEF: 3)
    1760:	e5267fb0 	str	r7, [r6, #-4016]!	; 0xfffff050
    1764:	01000003 	tsteq	r0, r3
    1768:	08c10f96 	stmiaeq	r1, {r1, r2, r4, r7, r8, r9, sl, fp}^
    176c:	00000000 	andeq	r0, r0, r0
    1770:	07070800 	streq	r0, [r7, -r0, lsl #16]
    1774:	01000004 	tsteq	r0, r4
    1778:	0075159b 			; <UNDEFINED> instruction: 0x0075159b
    177c:	a1070000 	mrsge	r0, (UNDEF: 7)
    1780:	01000004 	tsteq	r0, r4
    1784:	0075249b 			; <UNDEFINED> instruction: 0x0075249b
    1788:	d7070000 	strle	r0, [r7, -r0]
    178c:	01000004 	tsteq	r0, r4
    1790:	0075159e 			; <UNDEFINED> instruction: 0x0075159e
    1794:	70070000 	andvc	r0, r7, r0
    1798:	01000004 	tsteq	r0, r4
    179c:	0075259e 			; <UNDEFINED> instruction: 0x0075259e
    17a0:	00270000 	eoreq	r0, r7, r0
    17a4:	2400008a 	strcs	r0, [r0], #-138	; 0xffffff76
    17a8:	3b000000 	blcc	17b0 <__code_start__-0x6850>
    17ac:	1e000008 	cdpne	0, 0, cr0, cr0, cr8, {0}
    17b0:	7e010068 	cdpvc	0, 0, cr0, cr1, cr8, {3}
    17b4:	00047e11 	andeq	r7, r4, r1, lsl lr
    17b8:	0008ba00 	andeq	fp, r8, r0, lsl #20
    17bc:	0008b600 	andeq	fp, r8, r0, lsl #12
    17c0:	8a041800 	bhi	1077c8 <__bss_end__+0xfc500>
    17c4:	0c6d0000 	stcleq	0, cr0, [sp], #-0
    17c8:	20180000 	andscs	r0, r8, r0
    17cc:	8500008a 	strhi	r0, [r0, #-138]	; 0xffffff76
    17d0:	0000000c 	andeq	r0, r0, ip
    17d4:	008a2c16 	addeq	r2, sl, r6, lsl ip
    17d8:	000c9100 	andeq	r9, ip, r0, lsl #2
    17dc:	00085000 	andeq	r5, r8, r0
    17e0:	50011700 	andpl	r1, r1, r0, lsl #14
    17e4:	7fb47b03 	svcvc	0x00b47b03
    17e8:	8a4c1600 	bhi	1306ff0 <__bss_end__+0x12fbd28>
    17ec:	08c70000 	stmiaeq	r7, {}^	; <UNPREDICTABLE>
    17f0:	086b0000 	stmdaeq	fp!, {}^	; <UNPREDICTABLE>
    17f4:	01170000 	tsteq	r7, r0
    17f8:	b47b0350 	ldrbtlt	r0, [fp], #-848	; 0xfffffcb0
    17fc:	5101177f 	tstpl	r1, pc, ror r7
    1800:	006c7b02 	rsbeq	r7, ip, r2, lsl #22
    1804:	008a5c16 	addeq	r5, sl, r6, lsl ip
    1808:	000c4600 	andeq	r4, ip, r0, lsl #12
    180c:	00088900 	andeq	r8, r8, r0, lsl #18
    1810:	50011700 	andpl	r1, r1, r0, lsl #14
    1814:	a7fc0305 	ldrbge	r0, [ip, r5, lsl #6]!
    1818:	01170000 	tsteq	r7, r0
    181c:	47400352 	smlsldmi	r0, r0, r2, r3	; <UNPREDICTABLE>
    1820:	68160024 	ldmdavs	r6, {r2, r5}
    1824:	c700008a 	strgt	r0, [r0, -sl, lsl #1]
    1828:	9e000008 	cdpls	0, 0, cr0, cr0, cr8, {0}
    182c:	17000008 	strne	r0, [r0, -r8]
    1830:	40035101 	andmi	r5, r3, r1, lsl #2
    1834:	18002447 	stmdane	r0, {r0, r1, r2, r6, sl, sp}
    1838:	00008a74 	andeq	r8, r0, r4, ror sl
    183c:	000008c7 	andeq	r0, r0, r7, asr #17
    1840:	008a8018 	addeq	r8, sl, r8, lsl r0
    1844:	0008c700 	andeq	ip, r8, r0, lsl #14
    1848:	75100000 	ldrvc	r0, [r0, #-0]
    184c:	c1000000 	mrsgt	r0, (UNDEF: 0)
    1850:	11000008 	tstne	r0, r8
    1854:	0000002c 	andeq	r0, r0, ip, lsr #32
    1858:	0408000f 	streq	r0, [r8], #-15
    185c:	00000075 	andeq	r0, r0, r5, ror r0
    1860:	00043525 	andeq	r3, r4, r5, lsr #10
    1864:	0d500100 	ldfeqe	f0, [r0, #-0]
    1868:	000088c8 	andeq	r8, r0, r8, asr #17
    186c:	00000118 	andeq	r0, r0, r8, lsl r1
    1870:	0a539c01 	beq	14e887c <__bss_end__+0x14dd5b4>
    1874:	70280000 	eorvc	r0, r8, r0
    1878:	1c500100 	ldfnee	f0, [r0], {-0}
    187c:	000008c1 	andeq	r0, r0, r1, asr #17
    1880:	000008e6 	andeq	r0, r0, r6, ror #17
    1884:	000008d8 	ldrdeq	r0, [r0], -r8
    1888:	01006528 	tsteq	r0, r8, lsr #10
    188c:	08c12950 	stmiaeq	r1, {r4, r6, r8, fp, sp}^
    1890:	094f0000 	stmdbeq	pc, {}^	; <UNPREDICTABLE>
    1894:	09410000 	stmdbeq	r1, {}^	; <UNPREDICTABLE>
    1898:	49150000 	ldmdbmi	r5, {}	; <UNPREDICTABLE>
    189c:	63000000 	movwvs	r0, #0
    18a0:	0500000a 	streq	r0, [r0, #-10]
    18a4:	00aa9803 	adceq	r9, sl, r3, lsl #16
    18a8:	89582700 	ldmdbhi	r8, {r8, r9, sl, sp}^
    18ac:	00680000 	rsbeq	r0, r8, r0
    18b0:	098c0000 	stmibeq	ip, {}	; <UNPREDICTABLE>
    18b4:	691e0000 	ldmdbvs	lr, {}	; <UNPREDICTABLE>
    18b8:	14580100 	ldrbne	r0, [r8], #-256	; 0xffffff00
    18bc:	000008c1 	andeq	r0, r0, r1, asr #17
    18c0:	000009ac 	andeq	r0, r0, ip, lsr #19
    18c4:	000009aa 	andeq	r0, r0, sl, lsr #19
    18c8:	00005029 	andeq	r5, r0, r9, lsr #32
    18cc:	00621e00 	rsbeq	r1, r2, r0, lsl #28
    18d0:	7e105a01 	vnmlsvc.f32	s10, s0, s2
    18d4:	c5000004 	strgt	r0, [r0, #-4]
    18d8:	bf000009 	svclt	0x00000009
    18dc:	1d000009 	stcne	0, cr0, [r0, #-36]	; 0xffffffdc
    18e0:	00000068 	andeq	r0, r0, r8, rrx
    18e4:	00000981 	andeq	r0, r0, r1, lsl #19
    18e8:	7078651e 	rsbsvc	r6, r8, lr, lsl r5
    18ec:	165d0100 	ldrbne	r0, [sp], -r0, lsl #2
    18f0:	00000075 	andeq	r0, r0, r5, ror r0
    18f4:	000009fa 	strdeq	r0, [r0], -sl
    18f8:	000009f0 	strdeq	r0, [r0], -r0	; <UNPREDICTABLE>
    18fc:	0004311c 	andeq	r3, r4, ip, lsl r1
    1900:	165e0100 	ldrbne	r0, [lr], -r0, lsl #2
    1904:	00000062 	andeq	r0, r0, r2, rrx
    1908:	00000a46 	andeq	r0, r0, r6, asr #20
    190c:	00000a42 	andeq	r0, r0, r2, asr #20
    1910:	0089bc18 	addeq	fp, r9, r8, lsl ip
    1914:	0008c700 	andeq	ip, r8, r0, lsl #14
    1918:	7c180000 	ldcvc	0, cr0, [r8], {-0}
    191c:	68000089 	stmdavs	r0, {r0, r3, r7}
    1920:	0000000a 	andeq	r0, r0, sl
    1924:	89141600 	ldmdbhi	r4, {r9, sl, ip}
    1928:	0c460000 	mareq	acc0, r0, r6
    192c:	09c50000 	stmibeq	r5, {}^	; <UNPREDICTABLE>
    1930:	01170000 	tsteq	r7, r0
    1934:	9c030550 	cfstr32ls	mvfx0, [r3], {80}	; 0x50
    1938:	170000a5 	strne	r0, [r0, -r5, lsr #1]
    193c:	03055101 	movweq	r5, #20737	; 0x5101
    1940:	0000a7cc 	andeq	sl, r0, ip, asr #15
    1944:	05520117 	ldrbeq	r0, [r2, #-279]	; 0xfffffee9
    1948:	00aa9803 	adceq	r9, sl, r3, lsl #16
    194c:	53011700 	movwpl	r1, #5888	; 0x1700
    1950:	17560802 	ldrbne	r0, [r6, -r2, lsl #16]
    1954:	05007d02 	streq	r7, [r0, #-3330]	; 0xfffff2fe
    1958:	00a7ec03 	adceq	lr, r7, r3, lsl #24
    195c:	18180000 	ldmdane	r8, {}	; <UNPREDICTABLE>
    1960:	52000089 	andpl	r0, r0, #137, 0	; 0x89
    1964:	1600000c 	strne	r0, [r0], -ip
    1968:	00008934 	andeq	r8, r0, r4, lsr r9
    196c:	00000c46 	andeq	r0, r0, r6, asr #24
    1970:	00000a07 	andeq	r0, r0, r7, lsl #20
    1974:	05500117 	ldrbeq	r0, [r0, #-279]	; 0xfffffee9
    1978:	00a59c03 	adceq	r9, r5, r3, lsl #24
    197c:	51011700 	tstpl	r1, r0, lsl #14
    1980:	a7cc0305 	strbge	r0, [ip, r5, lsl #6]
    1984:	01170000 	tsteq	r7, r0
    1988:	98030552 	stmdals	r3, {r1, r4, r6, r8, sl}
    198c:	170000aa 	strne	r0, [r0, -sl, lsr #1]
    1990:	08025301 	stmdaeq	r2, {r0, r8, r9, ip, lr}
    1994:	7d021752 	stcvc	7, cr1, [r2, #-328]	; 0xfffffeb8
    1998:	d4030500 	strle	r0, [r3], #-1280	; 0xfffffb00
    199c:	000000a7 	andeq	r0, r0, r7, lsr #1
    19a0:	00893818 	addeq	r3, r9, r8, lsl r8
    19a4:	000c5200 	andeq	r5, ip, r0, lsl #4
    19a8:	89541600 	ldmdbhi	r4, {r9, sl, ip}^
    19ac:	0c460000 	mareq	acc0, r0, r6
    19b0:	0a490000 	beq	12419b8 <__bss_end__+0x12366f0>
    19b4:	01170000 	tsteq	r7, r0
    19b8:	9c030550 	cfstr32ls	mvfx0, [r3], {80}	; 0x50
    19bc:	170000a5 	strne	r0, [r0, -r5, lsr #1]
    19c0:	03055101 	movweq	r5, #20737	; 0x5101
    19c4:	0000a7cc 	andeq	sl, r0, ip, asr #15
    19c8:	05520117 	ldrbeq	r0, [r2, #-279]	; 0xfffffee9
    19cc:	00aa9803 	adceq	r9, sl, r3, lsl #16
    19d0:	53011700 	movwpl	r1, #5888	; 0x1700
    19d4:	17550802 	ldrbne	r0, [r5, -r2, lsl #16]
    19d8:	05007d02 	streq	r7, [r0, #-3330]	; 0xfffff2fe
    19dc:	00a7dc03 	adceq	sp, r7, r3, lsl #24
    19e0:	58180000 	ldmdapl	r8, {}	; <UNPREDICTABLE>
    19e4:	52000089 	andpl	r0, r0, #137, 0	; 0x89
    19e8:	0000000c 	andeq	r0, r0, ip
    19ec:	0000cc10 	andeq	ip, r0, r0, lsl ip
    19f0:	000a6300 	andeq	r6, sl, r0, lsl #6
    19f4:	002c1100 	eoreq	r1, ip, r0, lsl #2
    19f8:	00040000 	andeq	r0, r4, r0
    19fc:	000a5309 	andeq	r5, sl, r9, lsl #6
    1a00:	047d1b00 	ldrbteq	r1, [sp], #-2816	; 0xfffff500
    1a04:	3c010000 	stccc	0, cr0, [r1], {-0}
    1a08:	00047e0f 	andeq	r7, r4, pc, lsl #28
    1a0c:	00888c00 	addeq	r8, r8, r0, lsl #24
    1a10:	00003000 	andeq	r3, r0, r0
    1a14:	cd9c0100 	ldfgts	f0, [ip]
    1a18:	2400000a 	strcs	r0, [r0], #-10
    1a1c:	000005d4 	ldrdeq	r0, [r0], -r4
    1a20:	751f3c01 	ldrvc	r3, [pc, #-3073]	; e27 <__code_start__-0x71d9>
    1a24:	68000000 	stmdavs	r0, {}	; <UNPREDICTABLE>
    1a28:	6400000a 	strvs	r0, [r0], #-10
    1a2c:	1e00000a 	cdpne	0, 0, cr0, cr0, cr10, {0}
    1a30:	3e010070 	mcrcc	0, 0, r0, cr1, cr0, {3}
    1a34:	0002150b 	andeq	r1, r2, fp, lsl #10
    1a38:	000a8a00 	andeq	r8, sl, r0, lsl #20
    1a3c:	000a8600 	andeq	r8, sl, r0, lsl #12
    1a40:	88a01600 	stmiahi	r0!, {r9, sl, ip}
    1a44:	0acd0000 	beq	ff341a4c <__bss_end__+0xff336784>
    1a48:	0abc0000 	beq	fef01a50 <__bss_end__+0xfeef6788>
    1a4c:	01170000 	tsteq	r7, r0
    1a50:	00740250 	rsbseq	r0, r4, r0, asr r2
    1a54:	88b02100 	ldmhi	r0!, {r8, sp}
    1a58:	0c9d0000 	ldceq	0, cr0, [sp], {0}
    1a5c:	01170000 	tsteq	r7, r0
    1a60:	00740250 	rsbseq	r0, r4, r0, asr r2
    1a64:	8b1b0000 	blhi	6c1a6c <__bss_end__+0x6b67a4>
    1a68:	01000004 	tsteq	r0, r4
    1a6c:	00250c2b 	eoreq	r0, r5, fp, lsr #24
    1a70:	88380000 	ldmdahi	r8!, {}	; <UNPREDICTABLE>
    1a74:	00480000 	subeq	r0, r8, r0
    1a78:	9c010000 	stcls	0, cr0, [r1], {-0}
    1a7c:	00000afa 	strdeq	r0, [r0], -sl
    1a80:	01007028 	tsteq	r0, r8, lsr #32
    1a84:	02151a2b 	andseq	r1, r5, #176128	; 0x2b000
    1a88:	0ab40000 	beq	fed01a90 <__bss_end__+0xfecf67c8>
    1a8c:	0aa80000 	beq	fea01a94 <__bss_end__+0xfe9f67cc>
    1a90:	22000000 	andcs	r0, r0, #0, 0
    1a94:	000003cb 	andeq	r0, r0, fp, asr #7
    1a98:	15071301 	strne	r1, [r7, #-769]	; 0xfffffcff
    1a9c:	c0000002 	andgt	r0, r0, r2
    1aa0:	ac00008c 	stcge	0, cr0, [r0], {140}	; 0x8c
    1aa4:	01000000 	mrseq	r0, (UNDEF: 0)
    1aa8:	000c109c 	muleq	ip, ip, r0
    1aac:	043a2400 	ldrteq	r2, [sl], #-1024	; 0xfffffc00
    1ab0:	13010000 	movwne	r0, #4096	; 0x1000
    1ab4:	00004111 	andeq	r4, r0, r1, lsl r1
    1ab8:	000b1300 	andeq	r1, fp, r0, lsl #6
    1abc:	000b0700 	andeq	r0, fp, r0, lsl #14
    1ac0:	041d1300 	ldreq	r1, [sp], #-768	; 0xfffffd00
    1ac4:	15010000 	strne	r0, [r1, #-0]
    1ac8:	00002510 	andeq	r2, r0, r0, lsl r5
    1acc:	b8030500 	stmdalt	r3, {r8, sl}
    1ad0:	150000ae 	strne	r0, [r0, #-174]	; 0xffffff52
    1ad4:	00000049 	andeq	r0, r0, r9, asr #32
    1ad8:	00000a63 	andeq	r0, r0, r3, ror #20
    1adc:	aaac0305 	bge	feb026f8 <__bss_end__+0xfeaf7430>
    1ae0:	e8270000 	stmda	r7!, {}	; <UNPREDICTABLE>
    1ae4:	2400008c 	strcs	r0, [r0], #-140	; 0xffffff74
    1ae8:	83000000 	movwhi	r0, #0
    1aec:	1c00000b 	stcne	0, cr0, [r0], {11}
    1af0:	00000493 	muleq	r0, r3, r4
    1af4:	2c121c01 	ldccs	12, cr1, [r2], {1}
    1af8:	5f000000 	svcpl	0x00000000
    1afc:	5d00000b 	stcpl	0, cr0, [r0, #-44]	; 0xffffffd4
    1b00:	2100000b 	tstcs	r0, fp
    1b04:	00008d04 	andeq	r8, r0, r4, lsl #26
    1b08:	00000ca9 	andeq	r0, r0, r9, lsr #25
    1b0c:	03500117 	cmpeq	r0, #-1073741819	; 0xc0000005
    1b10:	17244040 	strne	r4, [r4, -r0, asr #32]!
    1b14:	40035101 	andmi	r5, r3, r1, lsl #2
    1b18:	00002440 	andeq	r2, r0, r0, asr #8
    1b1c:	008d1416 	addeq	r1, sp, r6, lsl r4
    1b20:	000cb500 	andeq	fp, ip, r0, lsl #10
    1b24:	000b9700 	andeq	r9, fp, r0, lsl #14
    1b28:	50011700 	andpl	r1, r1, r0, lsl #14
    1b2c:	00007402 	andeq	r7, r0, r2, lsl #8
    1b30:	008d3816 	addeq	r3, sp, r6, lsl r8
    1b34:	000c4600 	andeq	r4, ip, r0, lsl #12
    1b38:	000bcf00 	andeq	ip, fp, r0, lsl #30
    1b3c:	50011700 	andpl	r1, r1, r0, lsl #14
    1b40:	a59c0305 	ldrge	r0, [ip, #773]	; 0x305
    1b44:	01170000 	tsteq	r7, r0
    1b48:	cc030551 	cfstr32gt	mvfx0, [r3], {81}	; 0x51
    1b4c:	170000a7 	strne	r0, [r0, -r7, lsr #1]
    1b50:	03055201 	movweq	r5, #20993	; 0x5201
    1b54:	0000aaac 	andeq	sl, r0, ip, lsr #21
    1b58:	01530117 	cmpeq	r3, r7, lsl r1
    1b5c:	7d021747 	stcvc	7, cr1, [r2, #-284]	; 0xfffffee4
    1b60:	a0030500 	andge	r0, r3, r0, lsl #10
    1b64:	000000a9 	andeq	r0, r0, r9, lsr #1
    1b68:	008d3c18 	addeq	r3, sp, r8, lsl ip
    1b6c:	000c5200 	andeq	r5, ip, r0, lsl #4
    1b70:	8d501600 	ldclhi	6, cr1, [r0, #-0]
    1b74:	0c460000 	mareq	acc0, r0, r6
    1b78:	0c060000 	stceq	0, cr0, [r6], {-0}
    1b7c:	01170000 	tsteq	r7, r0
    1b80:	b0030550 	andlt	r0, r3, r0, asr r5
    1b84:	170000a9 	strne	r0, [r0, -r9, lsr #1]
    1b88:	03055101 	movweq	r5, #20737	; 0x5101
    1b8c:	0000a7cc 	andeq	sl, r0, ip, asr #15
    1b90:	05520117 	ldrbeq	r0, [r2, #-279]	; 0xfffffee9
    1b94:	00aaac03 	adceq	sl, sl, r3, lsl #24
    1b98:	53011700 	movwpl	r1, #5888	; 0x1700
    1b9c:	18004901 	stmdane	r0, {r0, r8, fp, lr}
    1ba0:	00008d54 	andeq	r8, r0, r4, asr sp
    1ba4:	00000c52 	andeq	r0, r0, r2, asr ip
    1ba8:	021b2a00 	andseq	r2, fp, #0, 20
    1bac:	0d020000 	stceq	0, cr0, [r2, #-0]
    1bb0:	0001140b 	andeq	r1, r1, fp, lsl #8
    1bb4:	0c460300 	mcrreq	3, 0, r0, r6, cr0
    1bb8:	1e2b0000 	cdpne	0, 2, cr0, cr11, cr0, {0}
    1bbc:	02000000 	andeq	r0, r0, #0, 0
    1bc0:	00bf220d 	adcseq	r2, pc, sp, lsl #4
    1bc4:	292b0000 	stmdbcs	fp!, {}	; <UNPREDICTABLE>
    1bc8:	02000000 	andeq	r0, r0, #0, 0
    1bcc:	00bf340d 	adcseq	r3, pc, sp, lsl #8
    1bd0:	602b0000 	eorvs	r0, fp, r0
    1bd4:	02000001 	andeq	r0, r0, #1, 0
    1bd8:	002c430d 	eoreq	r4, ip, sp, lsl #6
    1bdc:	2c000000 	stccs	0, cr0, [r0], {-0}
    1be0:	0000063b 	andeq	r0, r0, fp, lsr r6
    1be4:	0000063b 	andeq	r0, r0, fp, lsr r6
    1be8:	2c062804 	stccs	8, cr2, [r6], {4}
    1bec:	00000056 	andeq	r0, r0, r6, asr r0
    1bf0:	00000056 	andeq	r0, r0, r6, asr r0
    1bf4:	2d066e04 	stccs	14, cr6, [r6, #-16]
    1bf8:	730b9e0d 	movwvc	r9, #48653	; 0xbe0d
    1bfc:	70656577 	rsbvc	r6, r5, r7, ror r5
    1c00:	6572665f 	ldrbvs	r6, [r2, #-1631]!	; 0xfffff9a1
    1c04:	822c0065 	eorhi	r0, ip, #101, 0	; 0x65
    1c08:	82000002 	andhi	r0, r0, #2, 0
    1c0c:	05000002 	streq	r0, [r0, #-2]
    1c10:	972c082a 	strls	r0, [ip, -sl, lsr #16]!
    1c14:	97000002 	strls	r0, [r0, -r2]
    1c18:	05000002 	streq	r0, [r0, #-2]
    1c1c:	232c074e 			; <UNDEFINED> instruction: 0x232c074e
    1c20:	23000003 	movwcs	r0, #3
    1c24:	05000003 	streq	r0, [r0, #-3]
    1c28:	5f2c082d 	svcpl	0x002c082d
    1c2c:	5f000004 	svcpl	0x00000004
    1c30:	01000004 	tsteq	r0, r4
    1c34:	042c0676 	strteq	r0, [ip], #-1654	; 0xfffff98a
    1c38:	04000003 	streq	r0, [r0], #-3
    1c3c:	05000003 	streq	r0, [r0, #-3]
    1c40:	b52c0849 	strlt	r0, [ip, #-2121]!	; 0xfffff7b7
    1c44:	b5000004 	strlt	r0, [r0, #-4]
    1c48:	04000004 	streq	r0, [r0], #-4
    1c4c:	ad2c0682 	stcge	6, cr0, [ip, #-520]!	; 0xfffffdf8
    1c50:	ad000004 	stcge	0, cr0, [r0, #-16]
    1c54:	04000004 	streq	r0, [r0], #-4
    1c58:	1600077b 			; <UNDEFINED> instruction: 0x1600077b
    1c5c:	04000002 	streq	r0, [r0], #-2
    1c60:	0008e600 	andeq	lr, r8, r0, lsl #12
    1c64:	13010400 	movwne	r0, #5120	; 0x1400
    1c68:	0c000005 	stceq	0, cr0, [r0], {5}
    1c6c:	000005fb 	strdeq	r0, [r0], -fp
    1c70:	000005d9 	ldrdeq	r0, [r0], -r9
    1c74:	00008edc 	ldrdeq	r8, [r0], -ip
    1c78:	000000a0 	andeq	r0, r0, r0, lsr #1
    1c7c:	00000d59 	andeq	r0, r0, r9, asr sp
    1c80:	69050402 	stmdbvs	r5, {r1, sl}
    1c84:	0300746e 	movweq	r7, #1134	; 0x46e
    1c88:	01710704 	cmneq	r1, r4, lsl #14
    1c8c:	01030000 	mrseq	r0, (UNDEF: 3)
    1c90:	00007206 	andeq	r7, r0, r6, lsl #4
    1c94:	05020300 	streq	r0, [r2, #-768]	; 0xfffffd00
    1c98:	00000000 	andeq	r0, r0, r0
    1c9c:	33050403 	movwcc	r0, #21507	; 0x5403
    1ca0:	03000000 	movweq	r0, #0
    1ca4:	002e0508 	eoreq	r0, lr, r8, lsl #10
    1ca8:	01030000 	mrseq	r0, (UNDEF: 3)
    1cac:	00007008 	andeq	r7, r0, r8
    1cb0:	07020300 	streq	r0, [r2, -r0, lsl #6]
    1cb4:	000001b8 			; <UNDEFINED> instruction: 0x000001b8
    1cb8:	6c070403 	cfstrsvs	mvf0, [r7], {3}
    1cbc:	03000001 	movweq	r0, #1
    1cc0:	01670708 	cmneq	r7, r8, lsl #14
    1cc4:	25040000 	strcs	r0, [r4, #-0]
    1cc8:	7a000000 	bvc	1cd0 <__code_start__-0x6330>
    1ccc:	05000000 	streq	r0, [r0, #-0]
    1cd0:	00000025 	andeq	r0, r0, r5, lsr #32
    1cd4:	000a0600 	andeq	r0, sl, r0, lsl #12
    1cd8:	1c020000 	stcne	0, cr0, [r2], {-0}
    1cdc:	0000860e 	andeq	r8, r0, lr, lsl #12
    1ce0:	6b040700 	blvs	1038e8 <__bss_end__+0xf8620>
    1ce4:	04000000 	streq	r0, [r0], #-0
    1ce8:	00000025 	andeq	r0, r0, r5, lsr #32
    1cec:	0000009b 	muleq	r0, fp, r0
    1cf0:	00009b05 	andeq	r9, r0, r5, lsl #22
    1cf4:	04070000 	streq	r0, [r7], #-0
    1cf8:	000000a8 	andeq	r0, r0, r8, lsr #1
    1cfc:	79080103 	stmdbvc	r8, {r0, r1, r8}
    1d00:	08000000 	stmdaeq	r0, {}	; <UNPREDICTABLE>
    1d04:	000000a1 	andeq	r0, r0, r1, lsr #1
    1d08:	00067906 	andeq	r7, r6, r6, lsl #18
    1d0c:	0e210200 	cdpeq	2, 2, cr0, cr1, cr0, {0}
    1d10:	000000b9 	strheq	r0, [r0], -r9
    1d14:	008c0407 	addeq	r0, ip, r7, lsl #8
    1d18:	14090000 	strne	r0, [r9], #-0
    1d1c:	01000006 	tsteq	r0, r6
    1d20:	009b0d42 	addseq	r0, fp, r2, asr #26
    1d24:	f7010000 			; <UNDEFINED> instruction: 0xf7010000
    1d28:	0a000000 	beq	1d30 <__code_start__-0x62d0>
    1d2c:	000005cb 	andeq	r0, r0, fp, asr #11
    1d30:	2c1e4201 	lfmcs	f4, 4, [lr], {1}
    1d34:	0b000000 	bleq	1d3c <__code_start__-0x62c4>
    1d38:	00000505 	andeq	r0, r0, r5, lsl #10
    1d3c:	2c0e4301 	stccs	3, cr4, [lr], {1}
    1d40:	0c000000 	stceq	0, cr0, [r0], {-0}
    1d44:	00050a0b 	andeq	r0, r5, fp, lsl #20
    1d48:	12450100 	subne	r0, r5, #0
    1d4c:	0000002c 	andeq	r0, r0, ip, lsr #32
    1d50:	9e0d0000 	cdpls	0, 0, cr0, cr13, cr0, {0}
    1d54:	01000002 	tsteq	r0, r2
    1d58:	0025051d 	eoreq	r0, r5, sp, lsl r5
    1d5c:	8edc0000 	cdphi	0, 13, cr0, cr12, cr0, {0}
    1d60:	00800000 	addeq	r0, r0, r0
    1d64:	9c010000 	stcls	0, cr0, [r1], {-0}
    1d68:	000001be 			; <UNDEFINED> instruction: 0x000001be
    1d6c:	00060d0e 	andeq	r0, r6, lr, lsl #26
    1d70:	0f1e0100 	svceq	0x001e0100
    1d74:	000001be 			; <UNDEFINED> instruction: 0x000001be
    1d78:	00000b77 	andeq	r0, r0, r7, ror fp
    1d7c:	00000b75 	andeq	r0, r0, r5, ror fp
    1d80:	008ee40f 	addeq	lr, lr, pc, lsl #8
    1d84:	00005c00 	andeq	r5, r0, r0, lsl #24
    1d88:	00691000 	rsbeq	r1, r9, r0
    1d8c:	250e2101 	strcs	r2, [lr, #-257]	; 0xfffffeff
    1d90:	8e000000 	cdphi	0, 0, cr0, cr0, cr0, {0}
    1d94:	8a00000b 	bhi	1dc8 <__code_start__-0x6238>
    1d98:	1100000b 	tstne	r0, fp
    1d9c:	000000b0 	strheq	r0, [r0], -r0	; <UNPREDICTABLE>
    1da0:	00637010 	rsbeq	r7, r3, r0, lsl r0
    1da4:	2c122201 	lfmcs	f2, 4, [r2], {1}
    1da8:	af000000 	svcge	0x00000000
    1dac:	ad00000b 	stcge	0, cr0, [r0, #-44]	; 0xffffffd4
    1db0:	1200000b 	andne	r0, r0, #11, 0
    1db4:	000000bf 	strheq	r0, [r0], -pc	; <UNPREDICTABLE>
    1db8:	00008f18 	andeq	r8, r0, r8, lsl pc
    1dbc:	0000d001 	andeq	sp, r0, r1
    1dc0:	09230100 	stmdbeq	r3!, {r8}
    1dc4:	000001a5 	andeq	r0, r0, r5, lsr #3
    1dc8:	0000d013 	andeq	sp, r0, r3, lsl r0
    1dcc:	000bc400 	andeq	ip, fp, r0, lsl #8
    1dd0:	000bc200 	andeq	ip, fp, r0, lsl #4
    1dd4:	00d01100 	sbcseq	r1, r0, r0, lsl #2
    1dd8:	dc140000 	ldcle	0, cr0, [r4], {-0}
    1ddc:	db000000 	blle	1de4 <__code_start__-0x621c>
    1de0:	d700000b 	strle	r0, [r0, -fp]
    1de4:	1500000b 	strne	r0, [r0, #-11]
    1de8:	000000e8 	andeq	r0, r0, r8, ror #1
    1dec:	000000f8 	strdeq	r0, [r0], -r8
    1df0:	0000e914 	andeq	lr, r0, r4, lsl r9
    1df4:	000c0000 	andeq	r0, ip, r0
    1df8:	000bfa00 	andeq	pc, fp, r0, lsl #20
    1dfc:	00000000 	andeq	r0, r0, r0
    1e00:	008f3416 	addeq	r3, pc, r6, lsl r4	; <UNPREDICTABLE>
    1e04:	00020d00 	andeq	r0, r2, r0, lsl #26
    1e08:	50011700 	andpl	r1, r1, r0, lsl #14
    1e0c:	17007502 	strne	r7, [r0, -r2, lsl #10]
    1e10:	77025101 	strvc	r5, [r2, -r1, lsl #2]
    1e14:	00000000 	andeq	r0, r0, r0
    1e18:	2c040700 	stccs	7, cr0, [r4], {-0}
    1e1c:	18000000 	stmdane	r0, {}	; <UNPREDICTABLE>
    1e20:	000000bf 	strheq	r0, [r0], -pc	; <UNPREDICTABLE>
    1e24:	00008f5c 	andeq	r8, r0, ip, asr pc
    1e28:	00000020 	andeq	r0, r0, r0, lsr #32
    1e2c:	020d9c01 	andeq	r9, sp, #256	; 0x100
    1e30:	d0130000 	andsle	r0, r3, r0
    1e34:	40000000 	andmi	r0, r0, r0
    1e38:	3a00000c 	bcc	1e70 <__code_start__-0x6190>
    1e3c:	1400000c 	strne	r0, [r0], #-12
    1e40:	000000dc 	ldrdeq	r0, [r0], -ip
    1e44:	00000c74 	andeq	r0, r0, r4, ror ip
    1e48:	00000c6e 	andeq	r0, r0, lr, ror #24
    1e4c:	0000e819 	andeq	lr, r0, r9, lsl r8
    1e50:	008f6800 	addeq	r6, pc, r0, lsl #16
    1e54:	00000800 	andeq	r0, r0, r0, lsl #16
    1e58:	00e91400 	rsceq	r1, r9, r0, lsl #8
    1e5c:	0ca80000 	stceq	0, cr0, [r8]
    1e60:	0ca20000 	stceq	0, cr0, [r2]
    1e64:	00000000 	andeq	r0, r0, r0
    1e68:	00063b1a 	andeq	r3, r6, sl, lsl fp
    1e6c:	00063b00 	andeq	r3, r6, r0, lsl #22
    1e70:	06280200 	strteq	r0, [r8], -r0, lsl #4
    1e74:	00014000 	andeq	r4, r1, r0
    1e78:	51000400 	tstpl	r0, r0, lsl #8
    1e7c:	0400000a 	streq	r0, [r0], #-10
    1e80:	00051301 	andeq	r1, r5, r1, lsl #6
    1e84:	06230c00 	strteq	r0, [r3], -r0, lsl #24
    1e88:	05d90000 	ldrbeq	r0, [r9]
    1e8c:	8f7c0000 	svchi	0x007c0000
    1e90:	00780000 	rsbseq	r0, r8, r0
    1e94:	0e930000 	cdpeq	0, 9, cr0, cr3, cr0, {0}
    1e98:	04020000 	streq	r0, [r2], #-0
    1e9c:	746e6905 	strbtvc	r6, [lr], #-2309	; 0xfffff6fb
    1ea0:	061c0300 	ldreq	r0, [ip], -r0, lsl #6
    1ea4:	d1030000 	mrsle	r0, (UNDEF: 3)
    1ea8:	00003817 	andeq	r3, r0, r7, lsl r8
    1eac:	07040400 	streq	r0, [r4, -r0, lsl #8]
    1eb0:	00000171 	andeq	r0, r0, r1, ror r1
    1eb4:	72060104 	andvc	r0, r6, #1
    1eb8:	04000000 	streq	r0, [r0], #-0
    1ebc:	00000502 	andeq	r0, r0, r2, lsl #10
    1ec0:	04040000 	streq	r0, [r4], #-0
    1ec4:	00003305 	andeq	r3, r0, r5, lsl #6
    1ec8:	05080400 	streq	r0, [r8, #-1024]	; 0xfffffc00
    1ecc:	0000002e 	andeq	r0, r0, lr, lsr #32
    1ed0:	70080104 	andvc	r0, r8, r4, lsl #2
    1ed4:	04000000 	streq	r0, [r0], #-0
    1ed8:	01b80702 			; <UNDEFINED> instruction: 0x01b80702
    1edc:	04040000 	streq	r0, [r4], #-0
    1ee0:	00016c07 	andeq	r6, r1, r7, lsl #24
    1ee4:	07080400 	streq	r0, [r8, -r0, lsl #8]
    1ee8:	00000167 	andeq	r0, r0, r7, ror #2
    1eec:	00002505 	andeq	r2, r0, r5, lsl #10
    1ef0:	00008600 	andeq	r8, r0, r0, lsl #12
    1ef4:	00250600 	eoreq	r0, r5, r0, lsl #12
    1ef8:	07000000 	streq	r0, [r0, -r0]
    1efc:	0000000a 	andeq	r0, r0, sl
    1f00:	920e1c02 	andls	r1, lr, #512	; 0x200
    1f04:	08000000 	stmdaeq	r0, {}	; <UNPREDICTABLE>
    1f08:	00007704 	andeq	r7, r0, r4, lsl #14
    1f0c:	00250500 	eoreq	r0, r5, r0, lsl #10
    1f10:	00a70000 	adceq	r0, r7, r0
    1f14:	a7060000 	strge	r0, [r6, -r0]
    1f18:	00000000 	andeq	r0, r0, r0
    1f1c:	00b40408 	adcseq	r0, r4, r8, lsl #8
    1f20:	01040000 	mrseq	r0, (UNDEF: 4)
    1f24:	00007908 	andeq	r7, r0, r8, lsl #18
    1f28:	00ad0900 	adceq	r0, sp, r0, lsl #18
    1f2c:	79070000 	stmdbvc	r7, {}	; <UNPREDICTABLE>
    1f30:	02000006 	andeq	r0, r0, #6, 0
    1f34:	00c50e21 	sbceq	r0, r5, r1, lsr #28
    1f38:	04080000 	streq	r0, [r8], #-0
    1f3c:	00000098 	muleq	r0, r8, r0
    1f40:	00003c0a 	andeq	r3, r0, sl, lsl #24
    1f44:	07040100 	streq	r0, [r4, -r0, lsl #2]
    1f48:	0000013b 	andeq	r0, r0, fp, lsr r1
    1f4c:	00008f7c 	andeq	r8, r0, ip, ror pc
    1f50:	00000078 	andeq	r0, r0, r8, ror r0
    1f54:	013b9c01 	teqeq	fp, r1, lsl #24
    1f58:	5f0b0000 	svcpl	0x000b0000
    1f5c:	04010070 	streq	r0, [r1], #-112	; 0xffffff90
    1f60:	00013b14 	andeq	r3, r1, r4, lsl fp
    1f64:	0c500100 	ldfeqe	f0, [r0], {-0}
    1f68:	04010063 	streq	r0, [r1], #-99	; 0xffffff9d
    1f6c:	0000251c 	andeq	r2, r0, ip, lsl r5
    1f70:	000cf200 	andeq	pc, ip, r0, lsl #4
    1f74:	000cee00 	andeq	lr, ip, r0, lsl #28
    1f78:	006e0c00 	rsbeq	r0, lr, r0, lsl #24
    1f7c:	2c260401 	cfstrscs	mvf0, [r6], #-4
    1f80:	17000000 	strne	r0, [r0, -r0]
    1f84:	1300000d 	movwne	r0, #13
    1f88:	0d00000d 	stceq	0, cr0, [r0, #-52]	; 0xffffffcc
    1f8c:	05010070 	streq	r0, [r1, #-112]	; 0xffffff90
    1f90:	00013d0b 	andeq	r3, r1, fp, lsl #26
    1f94:	000d4600 	andeq	r4, sp, r0, lsl #12
    1f98:	000d3800 	andeq	r3, sp, r0, lsl #16
    1f9c:	00650d00 	rsbeq	r0, r5, r0, lsl #26
    1fa0:	3d140501 	cfldr32cc	mvfx0, [r4, #-4]
    1fa4:	a3000001 	movwge	r0, #1
    1fa8:	a100000d 	tstge	r0, sp
    1fac:	0000000d 	andeq	r0, r0, sp
    1fb0:	0408040e 	streq	r0, [r8], #-1038	; 0xfffffbf2
    1fb4:	000000ad 	andeq	r0, r0, sp, lsr #1
    1fb8:	00019d00 	andeq	r9, r1, r0, lsl #26
    1fbc:	1d000400 	cfstrsne	mvf0, [r0, #-0]
    1fc0:	0400000b 	streq	r0, [r0], #-11
    1fc4:	00051301 	andeq	r1, r5, r1, lsl #6
    1fc8:	06560c00 	ldrbeq	r0, [r6], -r0, lsl #24
    1fcc:	05d90000 	ldrbeq	r0, [r9]
    1fd0:	8ff40000 	svchi	0x00f40000
    1fd4:	00580000 	subseq	r0, r8, r0
    1fd8:	0fb80000 	svceq	0x00b80000
    1fdc:	42020000 	andmi	r0, r2, #0, 0
    1fe0:	02000006 	andeq	r0, r0, #6, 0
    1fe4:	00311b28 	eorseq	r1, r1, r8, lsr #22
    1fe8:	66030000 	strvs	r0, [r3], -r0
    1fec:	04000006 	streq	r0, [r0], #-6
    1ff0:	00480004 	subeq	r0, r8, r4
    1ff4:	51040000 	mrspl	r0, (UNDEF: 4)
    1ff8:	48000006 	stmdami	r0, {r1, r2}
    1ffc:	00000000 	andeq	r0, r0, r0
    2000:	02040500 	andeq	r0, r4, #0, 10
    2004:	00000668 	andeq	r0, r0, r8, ror #12
    2008:	25186302 	ldrcs	r6, [r8, #-770]	; 0xfffffcfe
    200c:	06000000 	streq	r0, [r0], -r0
    2010:	6e690504 	cdpvs	5, 6, cr0, cr9, cr4, {0}
    2014:	04070074 	streq	r0, [r7], #-116	; 0xffffff8c
    2018:	00017107 	andeq	r7, r1, r7, lsl #2
    201c:	06010700 	streq	r0, [r1], -r0, lsl #14
    2020:	00000072 	andeq	r0, r0, r2, ror r0
    2024:	00050207 	andeq	r0, r5, r7, lsl #4
    2028:	07000000 	streq	r0, [r0, -r0]
    202c:	00330504 	eorseq	r0, r3, r4, lsl #10
    2030:	08070000 	stmdaeq	r7, {}	; <UNPREDICTABLE>
    2034:	00002e05 	andeq	r2, r0, r5, lsl #28
    2038:	08010700 	stmdaeq	r1, {r8, r9, sl}
    203c:	00000070 	andeq	r0, r0, r0, ror r0
    2040:	b8070207 	stmdalt	r7, {r0, r1, r2, r9}
    2044:	07000001 	streq	r0, [r0, -r1]
    2048:	016c0704 	cmneq	ip, r4, lsl #14
    204c:	08070000 	stmdaeq	r7, {}	; <UNPREDICTABLE>
    2050:	00016707 	andeq	r6, r1, r7, lsl #14
    2054:	00560800 	subseq	r0, r6, r0, lsl #16
    2058:	00ab0000 	adceq	r0, fp, r0
    205c:	56090000 	strpl	r0, [r9], -r0
    2060:	00000000 	andeq	r0, r0, r0
    2064:	00000a0a 	andeq	r0, r0, sl, lsl #20
    2068:	0e1c0300 	cdpeq	3, 1, cr0, cr12, cr0, {0}
    206c:	000000b7 	strheq	r0, [r0], -r7
    2070:	009c040b 	addseq	r0, ip, fp, lsl #8
    2074:	56080000 	strpl	r0, [r8], -r0
    2078:	cc000000 	stcgt	0, cr0, [r0], {-0}
    207c:	09000000 	stmdbeq	r0, {}	; <UNPREDICTABLE>
    2080:	000000cc 	andeq	r0, r0, ip, asr #1
    2084:	d9040b00 	stmdble	r4, {r8, r9, fp}
    2088:	07000000 	streq	r0, [r0, -r0]
    208c:	00790801 	rsbseq	r0, r9, r1, lsl #16
    2090:	d20c0000 	andle	r0, ip, #0, 0
    2094:	0a000000 	beq	209c <__code_start__-0x5f64>
    2098:	00000679 	andeq	r0, r0, r9, ror r6
    209c:	ea0e2103 	b	38a4b0 <__bss_end__+0x37f1e8>
    20a0:	0b000000 	bleq	20a8 <__code_start__-0x5f58>
    20a4:	0000bd04 	andeq	fp, r0, r4, lsl #26
    20a8:	063b0d00 	ldrteq	r0, [fp], -r0, lsl #26
    20ac:	06010000 	streq	r0, [r1], -r0
    20b0:	00005605 	andeq	r5, r0, r5, lsl #12
    20b4:	008ff400 	addeq	pc, pc, r0, lsl #8
    20b8:	00005800 	andeq	r5, r0, r0, lsl #16
    20bc:	839c0100 	orrshi	r0, ip, #0
    20c0:	0e000001 	cdpeq	0, 0, cr0, cr0, cr1, {0}
    20c4:	00746d66 	rsbseq	r6, r4, r6, ror #26
    20c8:	cc180601 	ldcgt	6, cr0, [r8], {1}
    20cc:	02000000 	andeq	r0, r0, #0, 0
    20d0:	100f7091 	mulne	pc, r1, r0	; <UNPREDICTABLE>
    20d4:	00667562 	rsbeq	r7, r6, r2, ror #10
    20d8:	83110801 	tsthi	r1, #65536	; 0x10000
    20dc:	05000001 	streq	r0, [r0, #-1]
    20e0:	00aebc03 	adceq	fp, lr, r3, lsl #24
    20e4:	06331100 	ldrteq	r1, [r3], -r0, lsl #2
    20e8:	09010000 	stmdbeq	r1, {}	; <UNPREDICTABLE>
    20ec:	00004a0d 	andeq	r4, r0, sp, lsl #20
    20f0:	5c910200 	lfmpl	f0, 4, [r1], {0}
    20f4:	007a7312 	rsbseq	r7, sl, r2, lsl r3
    20f8:	560d0c01 	strpl	r0, [sp], -r1, lsl #24
    20fc:	bc000000 	stclt	0, cr0, [r0], {-0}
    2100:	b600000d 	strlt	r0, [r0], -sp
    2104:	1300000d 	movwne	r0, #13
    2108:	0000901c 	andeq	r9, r0, ip, lsl r0
    210c:	00000194 	muleq	r0, r4, r1
    2110:	00000176 	andeq	r0, r0, r6, ror r1
    2114:	02500114 	subseq	r0, r0, #5
    2118:	01140075 	tsteq	r4, r5, ror r0
    211c:	000a0351 	andeq	r0, sl, r1, asr r3
    2120:	52011404 	andpl	r1, r1, #4, 8	; 0x4000000
    2124:	06489103 	strbeq	r9, [r8], -r3, lsl #2
    2128:	02530114 	subseq	r0, r3, #5
    212c:	15004c91 	strne	r4, [r0, #-3217]	; 0xfffff36f
    2130:	00009030 	andeq	r9, r0, r0, lsr r0
    2134:	02500114 	subseq	r0, r0, #5
    2138:	00000075 	andeq	r0, r0, r5, ror r0
    213c:	0000d216 	andeq	sp, r0, r6, lsl r2
    2140:	00019400 	andeq	r9, r1, r0, lsl #8
    2144:	005d1700 	subseq	r1, sp, r0, lsl #14
    2148:	03ff0000 	mvnseq	r0, #0, 0
    214c:	06381800 	ldrteq	r1, [r8], -r0, lsl #16
    2150:	06380000 	ldrteq	r0, [r8], -r0
    2154:	02050000 	andeq	r0, r5, #0, 0
    2158:	00f30005 	rscseq	r0, r3, r5
    215c:	00040000 	andeq	r0, r4, r0
    2160:	00000c5f 	andeq	r0, r0, pc, asr ip
    2164:	05130104 	ldreq	r0, [r3, #-260]	; 0xfffffefc
    2168:	7e0c0000 	cdpvc	0, 0, cr0, cr12, cr0, {0}
    216c:	d9000006 	stmdble	r0, {r1, r2}
    2170:	4c000005 	stcmi	0, cr0, [r0], {5}
    2174:	38000090 	stmdacc	r0, {r4, r7}
    2178:	dc000000 	stcle	0, cr0, [r0], {-0}
    217c:	02000010 	andeq	r0, r0, #16, 0
    2180:	6e690504 	cdpvs	5, 6, cr0, cr9, cr4, {0}
    2184:	04030074 	streq	r0, [r3], #-116	; 0xffffff8c
    2188:	00017107 	andeq	r7, r1, r7, lsl #2
    218c:	06010300 	streq	r0, [r1], -r0, lsl #6
    2190:	00000072 	andeq	r0, r0, r2, ror r0
    2194:	00050203 	andeq	r0, r5, r3, lsl #4
    2198:	03000000 	movweq	r0, #0
    219c:	00330504 	eorseq	r0, r3, r4, lsl #10
    21a0:	08030000 	stmdaeq	r3, {}	; <UNPREDICTABLE>
    21a4:	00002e05 	andeq	r2, r0, r5, lsl #28
    21a8:	08010300 	stmdaeq	r1, {r8, r9}
    21ac:	00000070 	andeq	r0, r0, r0, ror r0
    21b0:	b8070203 	stmdalt	r7, {r0, r1, r9}
    21b4:	03000001 	movweq	r0, #1
    21b8:	016c0704 	cmneq	ip, r4, lsl #14
    21bc:	08030000 	stmdaeq	r3, {}	; <UNPREDICTABLE>
    21c0:	00016707 	andeq	r6, r1, r7, lsl #14
    21c4:	00250400 	eoreq	r0, r5, r0, lsl #8
    21c8:	007a0000 	rsbseq	r0, sl, r0
    21cc:	25050000 	strcs	r0, [r5, #-0]
    21d0:	00000000 	andeq	r0, r0, r0
    21d4:	00000a06 	andeq	r0, r0, r6, lsl #20
    21d8:	0e1c0200 	cdpeq	2, 1, cr0, cr12, cr0, {0}
    21dc:	00000086 	andeq	r0, r0, r6, lsl #1
    21e0:	006b0407 	rsbeq	r0, fp, r7, lsl #8
    21e4:	25040000 	strcs	r0, [r4, #-0]
    21e8:	9b000000 	blls	21f0 <__code_start__-0x5e10>
    21ec:	05000000 	streq	r0, [r0, #-0]
    21f0:	0000009b 	muleq	r0, fp, r0
    21f4:	a8040700 	stmdage	r4, {r8, r9, sl}
    21f8:	03000000 	movweq	r0, #0
    21fc:	00790801 	rsbseq	r0, r9, r1, lsl #16
    2200:	a1080000 	mrsge	r0, (UNDEF: 8)
    2204:	06000000 	streq	r0, [r0], -r0
    2208:	00000679 	andeq	r0, r0, r9, ror r6
    220c:	b90e2102 	stmdblt	lr, {r1, r8, sp}
    2210:	07000000 	streq	r0, [r0, -r0]
    2214:	00008c04 	andeq	r8, r0, r4, lsl #24
    2218:	00ad0900 	adceq	r0, sp, r0, lsl #18
    221c:	0c010000 	stceq	0, cr0, [r1], {-0}
    2220:	84030507 	strhi	r0, [r3], #-1287	; 0xfffffaf9
    2224:	0a0000ae 	beq	24e4 <__code_start__-0x5b1c>
    2228:	00000670 	andeq	r0, r0, r0, ror r6
    222c:	25050401 	strcs	r0, [r5, #-1025]	; 0xfffffbff
    2230:	4c000000 	stcmi	0, cr0, [r0], {-0}
    2234:	38000090 	stmdacc	r0, {r4, r7}
    2238:	01000000 	mrseq	r0, (UNDEF: 0)
    223c:	00700b9c 			; <UNDEFINED> instruction: 0x00700b9c
    2240:	9b1f0401 	blls	7c324c <__bss_end__+0x7b7f84>
    2244:	ed000000 	stc	0, cr0, [r0, #-0]
    2248:	e500000d 	str	r0, [r0, #-13]
    224c:	0000000d 	andeq	r0, r0, sp
    2250:	000c7f00 	andeq	r7, ip, r0, lsl #30
    2254:	fd000400 	stc2	4, cr0, [r0, #-0]
    2258:	0400000c 	streq	r0, [r0], #-12
    225c:	00051301 	andeq	r1, r5, r1, lsl #6
    2260:	069d0c00 	ldreq	r0, [sp], r0, lsl #24
    2264:	05d90000 	ldrbeq	r0, [r9]
    2268:	90840000 	addls	r0, r4, r0
    226c:	09b40000 	ldmibeq	r4!, {}	; <UNPREDICTABLE>
    2270:	11800000 	orrne	r0, r0, r0
    2274:	08020000 	stmdaeq	r2, {}	; <UNPREDICTABLE>
    2278:	00016707 	andeq	r6, r1, r7, lsl #14
    227c:	07040200 	streq	r0, [r4, -r0, lsl #4]
    2280:	00000171 	andeq	r0, r0, r1, ror r1
    2284:	69050403 	stmdbvs	r5, {r0, r1, sl}
    2288:	0200746e 	andeq	r7, r0, #1845493760	; 0x6e000000
    228c:	00720601 	rsbseq	r0, r2, r1, lsl #12
    2290:	02020000 	andeq	r0, r2, #0, 0
    2294:	00000005 	andeq	r0, r0, r5
    2298:	05040200 	streq	r0, [r4, #-512]	; 0xfffffe00
    229c:	00000033 	andeq	r0, r0, r3, lsr r0
    22a0:	2e050802 	cdpcs	8, 0, cr0, cr5, cr2, {0}
    22a4:	02000000 	andeq	r0, r0, #0, 0
    22a8:	00700801 	rsbseq	r0, r0, r1, lsl #16
    22ac:	02020000 	andeq	r0, r2, #0, 0
    22b0:	0001b807 	andeq	fp, r1, r7, lsl #16
    22b4:	017e0400 	cmneq	lr, r0, lsl #8
    22b8:	34020000 	strcc	r0, [r2], #-0
    22bc:	00007019 	andeq	r7, r0, r9, lsl r0
    22c0:	07040200 	streq	r0, [r4, -r0, lsl #4]
    22c4:	0000016c 	andeq	r0, r0, ip, ror #2
    22c8:	00069404 	andeq	r9, r6, r4, lsl #8
    22cc:	19370200 	ldmdbne	r7!, {r9}
    22d0:	00000025 	andeq	r0, r0, r5, lsr #32
    22d4:	00003305 	andeq	r3, r0, r5, lsl #6
    22d8:	00009200 	andeq	r9, r0, r0, lsl #4
    22dc:	00330600 	eorseq	r0, r3, r0, lsl #12
    22e0:	07000000 	streq	r0, [r0, -r0]
    22e4:	0000000a 	andeq	r0, r0, sl
    22e8:	9e0e1c03 	cdpls	12, 0, cr1, cr14, cr3, {0}
    22ec:	08000000 	stmdaeq	r0, {}	; <UNPREDICTABLE>
    22f0:	00008304 	andeq	r8, r0, r4, lsl #6
    22f4:	00330500 	eorseq	r0, r3, r0, lsl #10
    22f8:	00b30000 	adcseq	r0, r3, r0
    22fc:	b3060000 	movwlt	r0, #24576	; 0x6000
    2300:	00000000 	andeq	r0, r0, r0
    2304:	00c00408 	sbceq	r0, r0, r8, lsl #8
    2308:	01020000 	mrseq	r0, (UNDEF: 2)
    230c:	00007908 	andeq	r7, r0, r8, lsl #18
    2310:	00b90900 	adcseq	r0, r9, r0, lsl #18
    2314:	79070000 	stmdbvc	r7, {}	; <UNPREDICTABLE>
    2318:	03000006 	movweq	r0, #6
    231c:	00d10e21 	sbcseq	r0, r1, r1, lsr #28
    2320:	04080000 	streq	r0, [r8], #-0
    2324:	000000a4 	andeq	r0, r0, r4, lsr #1
    2328:	0006b007 	andeq	fp, r6, r7
    232c:	0d0b0400 	cfstrseq	mvf0, [fp, #-0]
    2330:	000000b9 	strheq	r0, [r0], -r9
    2334:	0006fa07 	andeq	pc, r6, r7, lsl #20
    2338:	0d0c0400 	cfstrseq	mvf0, [ip, #-0]
    233c:	000000b9 	strheq	r0, [r0], -r9
    2340:	00040707 	andeq	r0, r4, r7, lsl #14
    2344:	0d0d0400 	cfstrseq	mvf0, [sp, #-0]
    2348:	000000b9 	strheq	r0, [r0], -r9
    234c:	0004a107 	andeq	sl, r4, r7, lsl #2
    2350:	0d0e0400 	cfstrseq	mvf0, [lr, #-0]
    2354:	000000b9 	strheq	r0, [r0], -r9
    2358:	0004d707 	andeq	sp, r4, r7, lsl #14
    235c:	0d0f0400 	cfstrseq	mvf0, [pc, #-0]	; 2364 <__code_start__-0x5c9c>
    2360:	000000b9 	strheq	r0, [r0], -r9
    2364:	00047007 	andeq	r7, r4, r7
    2368:	0d100400 	cfldrseq	mvf0, [r0, #-0]
    236c:	000000b9 	strheq	r0, [r0], -r9
    2370:	00072307 	andeq	r2, r7, r7, lsl #6
    2374:	0d110400 	cfldrseq	mvf0, [r1, #-0]
    2378:	000000b9 	strheq	r0, [r0], -r9
    237c:	0002ec07 	andeq	lr, r2, r7, lsl #24
    2380:	0d120400 	cfldrseq	mvf0, [r2, #-0]
    2384:	000000b9 	strheq	r0, [r0], -r9
    2388:	00064204 	andeq	r4, r6, r4, lsl #4
    238c:	1b280500 	blne	a03794 <__bss_end__+0x9f84cc>
    2390:	00000143 	andeq	r0, r0, r3, asr #2
    2394:	0006660a 	andeq	r6, r6, sl, lsl #12
    2398:	00060400 	andeq	r0, r6, r0, lsl #8
    239c:	0000015a 	andeq	r0, r0, sl, asr r1
    23a0:	0006510b 	andeq	r5, r6, fp, lsl #2
    23a4:	00015a00 	andeq	r5, r1, r0, lsl #20
    23a8:	0c000000 	stceq	0, cr0, [r0], {-0}
    23ac:	06680404 	strbteq	r0, [r8], -r4, lsl #8
    23b0:	63050000 	movwvs	r0, #20480	; 0x5000
    23b4:	00013718 	andeq	r3, r1, r8, lsl r7
    23b8:	06380d00 	ldrteq	r0, [r8], -r0, lsl #26
    23bc:	81010000 	mrshi	r0, (UNDEF: 1)
    23c0:	00003305 	andeq	r3, r0, r5, lsl #6
    23c4:	00940c00 	addseq	r0, r4, r0, lsl #24
    23c8:	00062c00 	andeq	r2, r6, r0, lsl #24
    23cc:	6a9c0100 	bvs	fe7027d4 <__bss_end__+0xfe6f750c>
    23d0:	0e000008 	cdpeq	0, 0, cr0, cr0, cr8, {0}
    23d4:	00667562 	rsbeq	r7, r6, r2, ror #10
    23d8:	6a158101 	bvs	5627e4 <__bss_end__+0x55751c>
    23dc:	2d000008 	stccs	0, cr0, [r0, #-32]	; 0xffffffe0
    23e0:	2300000e 	movwcs	r0, #14
    23e4:	0e00000e 	cdpeq	0, 0, cr0, cr0, cr14, {0}
    23e8:	8101006e 	tsthi	r1, lr, rrx
    23ec:	0000331e 	andeq	r3, r0, lr, lsl r3
    23f0:	000e7a00 	andeq	r7, lr, r0, lsl #20
    23f4:	000e7200 	andeq	r7, lr, r0, lsl #4
    23f8:	6d660e00 	stclvs	14, cr0, [r6, #-0]
    23fc:	81010074 	tsthi	r1, r4, ror r0
    2400:	0000b32d 	andeq	fp, r0, sp, lsr #6
    2404:	000ecc00 	andeq	ip, lr, r0, lsl #24
    2408:	000eb400 	andeq	fp, lr, r0, lsl #8
    240c:	06330f00 	ldrteq	r0, [r3], -r0, lsl #30
    2410:	81010000 	mrshi	r0, (UNDEF: 1)
    2414:	00015c3a 	andeq	r5, r1, sl, lsr ip
    2418:	000f8e00 	andeq	r8, pc, r0, lsl #28
    241c:	000f6000 	andeq	r6, pc, r0
    2420:	00701000 	rsbseq	r1, r0, r0
    2424:	6a088201 	bvs	222c30 <__bss_end__+0x217968>
    2428:	e1000008 	tst	r0, r8
    242c:	cb000010 	blgt	2474 <__code_start__-0x5b8c>
    2430:	10000010 	andne	r0, r0, r0, lsl r0
    2434:	82010065 	andhi	r0, r1, #101, 0	; 0x65
    2438:	00086a12 	andeq	r6, r8, r2, lsl sl
    243c:	00116a00 	andseq	r6, r1, r0, lsl #20
    2440:	00116800 	andseq	r6, r1, r0, lsl #16
    2444:	30781000 	rsbscc	r1, r8, r0
    2448:	0e830100 	rmfeqs	f0, f3, f0
    244c:	00000064 	andeq	r0, r0, r4, rrx
    2450:	00001183 	andeq	r1, r0, r3, lsl #3
    2454:	0000117d 	andeq	r1, r0, sp, ror r1
    2458:	00317810 	eorseq	r7, r1, r0, lsl r8
    245c:	64118301 	ldrvs	r8, [r1], #-769	; 0xfffffcff
    2460:	b2000000 	andlt	r0, r0, #0, 0
    2464:	ac000011 	stcge	0, cr0, [r0], {17}
    2468:	11000011 	tstne	r0, r1, lsl r0
    246c:	000006dc 	ldrdeq	r0, [r0], -ip
    2470:	b3118601 	tstlt	r1, #1048576	; 0x100000
    2474:	e3000000 	movw	r0, #0
    2478:	db000011 	blle	24c4 <__code_start__-0x5b3c>
    247c:	12000011 	andne	r0, r0, #17, 0
    2480:	00000049 	andeq	r0, r0, r9, asr #32
    2484:	00000880 	andeq	r0, r0, r0, lsl #17
    2488:	ac540305 	mrrcge	3, 0, r0, r4, cr5
    248c:	80130000 	andshi	r0, r3, r0
    2490:	10000001 	andne	r0, r0, r1
    2494:	91010073 	tstls	r1, r3, ror r0
    2498:	00086a0a 	andeq	r6, r8, sl, lsl #20
    249c:	00122900 	andseq	r2, r2, r0, lsl #18
    24a0:	00121d00 	andseq	r1, r2, r0, lsl #26
    24a4:	756e1400 	strbvc	r1, [lr, #-1024]!	; 0xfffffc00
    24a8:	9101006d 	tstls	r1, sp, rrx
    24ac:	0008850d 	andeq	r8, r8, sp, lsl #10
    24b0:	d8910300 	ldmle	r1, {r8, r9}
    24b4:	0730157d 			; <UNDEFINED> instruction: 0x0730157d
    24b8:	91010000 	mrsls	r0, (UNDEF: 1)
    24bc:	00088517 	andeq	r8, r8, r7, lsl r5
    24c0:	d8910300 	ldmle	r1, {r8, r9}
    24c4:	06bf117e 			; <UNDEFINED> instruction: 0x06bf117e
    24c8:	92010000 	andls	r0, r1, #0, 0
    24cc:	00002c0d 	andeq	r2, r0, sp, lsl #24
    24d0:	00127b00 	andseq	r7, r2, r0, lsl #22
    24d4:	00127300 	andseq	r7, r2, r0, lsl #6
    24d8:	01a81600 			; <UNDEFINED> instruction: 0x01a81600
    24dc:	04f10000 	ldrbteq	r0, [r1], #0
    24e0:	74100000 	ldrvc	r0, [r0], #-0
    24e4:	9e010079 	mcrls	0, 0, r0, cr1, cr9, {3}
    24e8:	0000b31d 	andeq	fp, r0, sp, lsl r3
    24ec:	0012bc00 	andseq	fp, r2, r0, lsl #24
    24f0:	0012b000 	andseq	fp, r2, r0
    24f4:	78781400 	ldmdavc	r8!, {sl, ip}^
    24f8:	1aa20100 	bne	fe882900 <__bss_end__+0xfe877638>
    24fc:	00000077 	andeq	r0, r0, r7, ror r0
    2500:	04935906 	ldreq	r5, [r3], #2310	; 0x906
    2504:	1704935b 	smlsdne	r4, fp, r3, r9
    2508:	00009598 	muleq	r0, r8, r5
    250c:	00000c3a 	andeq	r0, r0, sl, lsr ip
    2510:	000002d8 	ldrdeq	r0, [r0], -r8
    2514:	02500118 	subseq	r0, r0, #6
    2518:	01180076 	tsteq	r8, r6, ror r0
    251c:	48030551 	stmdami	r3, {r0, r4, r6, r8, sl}
    2520:	180000ab 	stmdane	r0, {r0, r1, r3, r5, r7}
    2524:	33015201 	movwcc	r5, #4609	; 0x1201
    2528:	95b01700 	ldrls	r1, [r0, #1792]!	; 0x700
    252c:	0c3a0000 	ldceq	0, cr0, [sl], #-0
    2530:	02fa0000 	rscseq	r0, sl, #0, 0
    2534:	01180000 	tsteq	r8, r0
    2538:	00760250 	rsbseq	r0, r6, r0, asr r2
    253c:	05510118 	ldrbeq	r0, [r1, #-280]	; 0xfffffee8
    2540:	00ab5c03 	adceq	r5, fp, r3, lsl #24
    2544:	52011800 	andpl	r1, r1, #0, 16
    2548:	17003301 	strne	r3, [r0, -r1, lsl #6]
    254c:	000095d4 	ldrdeq	r9, [r0], -r4
    2550:	00000c46 	andeq	r0, r0, r6, asr #24
    2554:	00000317 	andeq	r0, r0, r7, lsl r3
    2558:	05500118 	ldrbeq	r0, [r0, #-280]	; 0xfffffee8
    255c:	00ab4c03 	adceq	r4, fp, r3, lsl #24
    2560:	51011800 	tstpl	r1, r0, lsl #16
    2564:	00007b02 	andeq	r7, r0, r2, lsl #22
    2568:	0095e017 	addseq	lr, r5, r7, lsl r0
    256c:	000c4600 	andeq	r4, ip, r0, lsl #12
    2570:	00033400 	andeq	r3, r3, r0, lsl #8
    2574:	50011800 	andpl	r1, r1, r0, lsl #16
    2578:	ab540305 	blge	1503194 <__bss_end__+0x14f7ecc>
    257c:	01180000 	tsteq	r8, r0
    2580:	00790251 	rsbseq	r0, r9, r1, asr r2
    2584:	95f01700 	ldrbls	r1, [r0, #1792]!	; 0x700
    2588:	0c3a0000 	ldceq	0, cr0, [sl], #-0
    258c:	03560000 	cmpeq	r6, #0, 0
    2590:	01180000 	tsteq	r8, r0
    2594:	00760250 	rsbseq	r0, r6, r0, asr r2
    2598:	05510118 	ldrbeq	r0, [r1, #-280]	; 0xfffffee8
    259c:	00ab4803 	adceq	r4, fp, r3, lsl #16
    25a0:	52011800 	andpl	r1, r1, #0, 16
    25a4:	17003301 	strne	r3, [r0, -r1, lsl #6]
    25a8:	00009620 	andeq	r9, r0, r0, lsr #12
    25ac:	00000aa4 	andeq	r0, r0, r4, lsr #21
    25b0:	00000383 	andeq	r0, r0, r3, lsl #7
    25b4:	01500118 	cmpeq	r0, r8, lsl r1
    25b8:	51011840 	tstpl	r1, r0, asr #16
    25bc:	7dd09103 	ldfvcp	f1, [r0, #12]
    25c0:	02520118 	subseq	r0, r2, #6
    25c4:	0118007b 	tsteq	r8, fp, ror r0
    25c8:	00750253 	rsbseq	r0, r5, r3, asr r2
    25cc:	007d0218 	rsbseq	r0, sp, r8, lsl r2
    25d0:	00007602 	andeq	r7, r0, r2, lsl #12
    25d4:	00964017 	addseq	r4, r6, r7, lsl r0
    25d8:	000aa400 	andeq	sl, sl, r0, lsl #8
    25dc:	0003aa00 	andeq	sl, r3, r0, lsl #20
    25e0:	50011800 	andpl	r1, r1, r0, lsl #16
    25e4:	01184001 	tsteq	r8, r1
    25e8:	d0910351 	addsle	r0, r1, r1, asr r3
    25ec:	5201187e 	andpl	r1, r1, #8257536	; 0x7e0000
    25f0:	18007902 	stmdane	r0, {r1, r8, fp, ip, sp, lr}
    25f4:	02007d02 	andeq	r7, r0, #128	; 0x80
    25f8:	17000076 	smlsdxne	r0, r6, r0, r0
    25fc:	00009650 	andeq	r9, r0, r0, asr r6
    2600:	00000c52 	andeq	r0, r0, r2, asr ip
    2604:	000003c6 	andeq	r0, r0, r6, asr #7
    2608:	03500118 	cmpeq	r0, #6
    260c:	187dd091 	ldmdane	sp!, {r0, r4, r7, ip, lr, pc}^
    2610:	91035101 	tstls	r3, r1, lsl #2
    2614:	17007ed2 			; <UNDEFINED> instruction: 0x17007ed2
    2618:	00009894 	muleq	r0, r4, r8
    261c:	00000c3a 	andeq	r0, r0, sl, lsr ip
    2620:	000003e8 	andeq	r0, r0, r8, ror #7
    2624:	02500118 	subseq	r0, r0, #6
    2628:	01180076 	tsteq	r8, r6, ror r0
    262c:	5c030551 	cfstr32pl	mvfx0, [r3], {81}	; 0x51
    2630:	180000ab 	stmdane	r0, {r0, r1, r3, r5, r7}
    2634:	33015201 	movwcc	r5, #4609	; 0x1201
    2638:	98b81700 	ldmls	r8!, {r8, r9, sl, ip}
    263c:	0aa40000 	beq	fe902644 <__bss_end__+0xfe8f737c>
    2640:	04150000 	ldreq	r0, [r5], #-0
    2644:	01180000 	tsteq	r8, r0
    2648:	183a0150 	ldmdane	sl!, {r4, r6, r8}
    264c:	91035101 	tstls	r3, r1, lsl #2
    2650:	01187dd0 			; <UNDEFINED> instruction: 0x01187dd0
    2654:	007b0252 	rsbseq	r0, fp, r2, asr r2
    2658:	02530118 	subseq	r0, r3, #6
    265c:	02180075 	andseq	r0, r8, #117, 0	; 0x75
    2660:	7602007d 			; <UNDEFINED> instruction: 0x7602007d
    2664:	d8170000 	ldmdale	r7, {}	; <UNPREDICTABLE>
    2668:	a4000098 	strge	r0, [r0], #-152	; 0xffffff68
    266c:	3c00000a 	stccc	0, cr0, [r0], {10}
    2670:	18000004 	stmdane	r0, {r2}
    2674:	3a015001 	bcc	56680 <__bss_end__+0x4b3b8>
    2678:	03510118 	cmpeq	r1, #6
    267c:	187ed091 	ldmdane	lr!, {r0, r4, r7, ip, lr, pc}^
    2680:	79025201 	stmdbvc	r2, {r0, r9, ip, lr}
    2684:	7d021800 	stcvc	8, cr1, [r2, #-0]
    2688:	00760200 	rsbseq	r0, r6, r0, lsl #4
    268c:	98e41700 	stmials	r4!, {r8, r9, sl, ip}^
    2690:	0c5e0000 	mraeq	r0, lr, acc0
    2694:	045a0000 	ldrbeq	r0, [sl], #-0
    2698:	01180000 	tsteq	r8, r0
    269c:	d0910350 	addsle	r0, r1, r0, asr r3
    26a0:	5101187d 	tstpl	r1, sp, ror r8
    26a4:	a9ac0305 	stmibge	ip!, {r0, r2, r8, r9}
    26a8:	17000000 	strne	r0, [r0, -r0]
    26ac:	000098f8 	strdeq	r9, [r0], -r8
    26b0:	00000c6a 	andeq	r0, r0, sl, ror #24
    26b4:	00000476 	andeq	r0, r0, r6, ror r4
    26b8:	03500118 	cmpeq	r0, #6
    26bc:	187dd091 	ldmdane	sp!, {r0, r4, r7, ip, lr, pc}^
    26c0:	91035101 	tstls	r3, r1, lsl #2
    26c4:	19007ed0 	stmdbne	r0, {r4, r6, r7, r9, sl, fp, ip, sp, lr}
    26c8:	00009904 	andeq	r9, r0, r4, lsl #18
    26cc:	00000c52 	andeq	r0, r0, r2, asr ip
    26d0:	0099c817 	addseq	ip, r9, r7, lsl r8
    26d4:	000c4600 	andeq	r4, ip, r0, lsl #12
    26d8:	0004a800 	andeq	sl, r4, r0, lsl #16
    26dc:	50011800 	andpl	r1, r1, r0, lsl #16
    26e0:	a59c0305 	ldrge	r0, [ip, #773]	; 0x305
    26e4:	01180000 	tsteq	r8, r0
    26e8:	fc030551 	stc2	5, cr0, [r3], {81}	; 0x51
    26ec:	180000aa 	stmdane	r0, {r1, r3, r5, r7}
    26f0:	03055201 	movweq	r5, #20993	; 0x5201
    26f4:	0000ac54 	andeq	sl, r0, r4, asr ip
    26f8:	99cc1900 	stmibls	ip, {r8, fp, ip}^
    26fc:	0c760000 	ldcleq	0, cr0, [r6], #-0
    2700:	e4170000 	ldr	r0, [r7], #-0
    2704:	46000099 			; <UNDEFINED> instruction: 0x46000099
    2708:	e700000c 	str	r0, [r0, -ip]
    270c:	18000004 	stmdane	r0, {r2}
    2710:	03055001 	movweq	r5, #20481	; 0x5001
    2714:	0000ab9c 	muleq	r0, ip, fp
    2718:	05510118 	ldrbeq	r0, [r1, #-280]	; 0xfffffee8
    271c:	00aafc03 	adceq	pc, sl, r3, lsl #24
    2720:	52011800 	andpl	r1, r1, #0, 16
    2724:	ac540305 	mrrcge	3, 0, r0, r4, cr5
    2728:	01180000 	tsteq	r8, r0
    272c:	b6080253 			; <UNDEFINED> instruction: 0xb6080253
    2730:	007d0218 	rsbseq	r0, sp, r8, lsl r2
    2734:	00007602 	andeq	r7, r0, r2, lsl #12
    2738:	0099e819 	addseq	lr, r9, r9, lsl r8
    273c:	000c7600 	andeq	r7, ip, r0, lsl #12
    2740:	e31a0000 	tst	sl, #0, 0
    2744:	98000009 	stmdals	r0, {r0, r3}
    2748:	04000094 	streq	r0, [r0], #-148	; 0xffffff6c
    274c:	0001d000 	andeq	sp, r1, r0
    2750:	0a940100 	beq	fe502b58 <__bss_end__+0xfe4f7890>
    2754:	00000515 	andeq	r0, r0, r5, lsl r5
    2758:	0009f41b 	andeq	pc, r9, fp, lsl r4	; <UNPREDICTABLE>
    275c:	00131800 	andseq	r1, r3, r0, lsl #16
    2760:	00131400 	andseq	r1, r3, r0, lsl #8
    2764:	951a0000 	ldrls	r0, [sl, #-0]
    2768:	80000008 	andhi	r0, r0, r8
    276c:	01000096 	swpeq	r0, r6, [r0]	; <UNPREDICTABLE>
    2770:	0001f000 	andeq	pc, r1, r0
    2774:	09dc0100 	ldmibeq	ip, {r8}^
    2778:	0000064b 	andeq	r0, r0, fp, asr #12
    277c:	0008be1b 	andeq	fp, r8, fp, lsl lr
    2780:	00134600 	andseq	r4, r3, r0, lsl #12
    2784:	00134000 	andseq	r4, r3, r0
    2788:	08e01b00 	stmiaeq	r0!, {r8, r9, fp, ip}^
    278c:	137b0000 	cmnne	fp, #0, 0
    2790:	13750000 	cmnne	r5, #0, 0
    2794:	d41b0000 	ldrle	r0, [fp], #-0
    2798:	ad000008 	stcge	0, cr0, [r0, #-32]	; 0xffffffe0
    279c:	a7000013 	smladge	r0, r3, r0, r0
    27a0:	1c000013 	stcne	0, cr0, [r0], {19}
    27a4:	000008c8 	andeq	r0, r0, r8, asr #17
    27a8:	0008b21b 	andeq	fp, r8, fp, lsl r2
    27ac:	0013de00 	andseq	sp, r3, r0, lsl #28
    27b0:	0013d600 	andseq	sp, r3, r0, lsl #12
    27b4:	08a61b00 	stmiaeq	r6!, {r8, r9, fp, ip}
    27b8:	14210000 	strtne	r0, [r1], #-0
    27bc:	141b0000 	ldrne	r0, [fp], #-0
    27c0:	f0130000 			; <UNDEFINED> instruction: 0xf0130000
    27c4:	1d000001 	stcne	0, cr0, [r0, #-4]
    27c8:	000008ec 	andeq	r0, r0, ip, ror #17
    27cc:	7ed89103 	atnvce	f1, f3
    27d0:	0008f81e 	andeq	pc, r8, lr, lsl r8	; <UNPREDICTABLE>
    27d4:	00145b00 	andseq	r5, r4, r0, lsl #22
    27d8:	00144d00 	andseq	r4, r4, r0, lsl #26
    27dc:	09021f00 	stmdbeq	r2, {r8, r9, sl, fp, ip}
    27e0:	a31a0000 	tstge	sl, #0, 0
    27e4:	8c000009 	stchi	0, cr0, [r0], {9}
    27e8:	04000096 	streq	r0, [r0], #-150	; 0xffffff6a
    27ec:	00022000 	andeq	r2, r2, r0
    27f0:	097c0100 	ldmdbeq	ip!, {r8}^
    27f4:	000005e2 	andeq	r0, r0, r2, ror #11
    27f8:	0009ca1b 	andeq	ip, r9, fp, lsl sl
    27fc:	0014c500 	andseq	ip, r4, r0, lsl #10
    2800:	0014bf00 	andseq	fp, r4, r0, lsl #30
    2804:	09be1b00 	ldmibeq	lr!, {r8, r9, fp, ip}
    2808:	14fa0000 	ldrbtne	r0, [sl], #0
    280c:	14ee0000 	strbtne	r0, [lr], #0
    2810:	b41b0000 	ldrlt	r0, [fp], #-0
    2814:	60000009 	andvs	r0, r0, r9
    2818:	50000015 	andpl	r0, r0, r5, lsl r0
    281c:	13000015 	movwne	r0, #21
    2820:	00000220 	andeq	r0, r0, r0, lsr #4
    2824:	0009d61e 	andeq	sp, r9, lr, lsl r6
    2828:	0015dd00 	andseq	sp, r5, r0, lsl #26
    282c:	0015cf00 	andseq	ip, r5, r0, lsl #30
    2830:	20000000 	andcs	r0, r0, r0
    2834:	0000094f 	andeq	r0, r0, pc, asr #18
    2838:	00009754 	andeq	r9, r0, r4, asr r7
    283c:	02500002 	subseq	r0, r0, #2, 0
    2840:	7c010000 	stcvc	0, cr0, [r1], {-0}
    2844:	09801b09 	stmibeq	r0, {r0, r3, r8, r9, fp, ip}
    2848:	163d0000 	ldrtne	r0, [sp], -r0
    284c:	16370000 	ldrtne	r0, [r7], -r0
    2850:	761b0000 	ldrvc	r0, [fp], -r0
    2854:	73000009 	movwvc	r0, #9
    2858:	69000016 	stmdbvs	r0, {r1, r2, r4}
    285c:	1b000016 	blne	28bc <__code_start__-0x5744>
    2860:	0000096c 	andeq	r0, r0, ip, ror #18
    2864:	000016c2 	andeq	r1, r0, r2, asr #13
    2868:	000016be 			; <UNDEFINED> instruction: 0x000016be
    286c:	0009601b 	andeq	r6, r9, fp, lsl r0
    2870:	0016f200 	andseq	pc, r6, r0, lsl #4
    2874:	0016e400 	andseq	lr, r6, r0, lsl #8
    2878:	02501300 	subseq	r1, r0, #0, 6
    287c:	8c1e0000 	ldchi	0, cr0, [lr], {-0}
    2880:	57000009 	strpl	r0, [r0, -r9]
    2884:	55000017 	strpl	r0, [r0, #-23]	; 0xffffffe9
    2888:	1e000017 	mcrne	0, 0, r0, cr0, cr7, {0}
    288c:	00000998 	muleq	r0, r8, r9
    2890:	00001771 	andeq	r1, r0, r1, ror r7
    2894:	0000176b 	andeq	r1, r0, fp, ror #14
    2898:	00000000 	andeq	r0, r0, r0
    289c:	0008951a 	andeq	r9, r8, sl, lsl r5
    28a0:	00979000 	addseq	r9, r7, r0
    28a4:	80000000 	andhi	r0, r0, r0
    28a8:	01000002 	tsteq	r0, r2
    28ac:	078909d6 			; <UNDEFINED> instruction: 0x078909d6
    28b0:	be1b0000 	cdplt	0, 1, cr0, cr11, cr0, {0}
    28b4:	a4000008 	strge	r0, [r0], #-8
    28b8:	a0000017 	andge	r0, r0, r7, lsl r0
    28bc:	1b000017 	blne	2920 <__code_start__-0x56e0>
    28c0:	000008e0 	andeq	r0, r0, r0, ror #17
    28c4:	000017ca 	andeq	r1, r0, sl, asr #15
    28c8:	000017c6 	andeq	r1, r0, r6, asr #15
    28cc:	0008d41b 	andeq	sp, r8, fp, lsl r4
    28d0:	0017ee00 	andseq	lr, r7, r0, lsl #28
    28d4:	0017ea00 	andseq	lr, r7, r0, lsl #20
    28d8:	08c81c00 	stmiaeq	r8, {sl, fp, ip}^
    28dc:	b21b0000 	andslt	r0, fp, #0, 0
    28e0:	12000008 	andne	r0, r0, #8, 0
    28e4:	0c000018 	stceq	0, cr0, [r0], {24}
    28e8:	1b000018 	blne	2950 <__code_start__-0x56b0>
    28ec:	000008a6 	andeq	r0, r0, r6, lsr #17
    28f0:	00001845 	andeq	r1, r0, r5, asr #16
    28f4:	00001841 	andeq	r1, r0, r1, asr #16
    28f8:	00028013 	andeq	r8, r2, r3, lsl r0
    28fc:	08ec1d00 	stmiaeq	ip!, {r8, sl, fp, ip}^
    2900:	91030000 	mrsls	r0, (UNDEF: 3)
    2904:	f81e7ed8 			; <UNDEFINED> instruction: 0xf81e7ed8
    2908:	6f000008 	svcvs	0x00000008
    290c:	65000018 	strvs	r0, [r0, #-24]	; 0xffffffe8
    2910:	1e000018 	mcrne	0, 0, r0, cr0, cr8, {0}
    2914:	00000902 	andeq	r0, r0, r2, lsl #18
    2918:	000018b4 			; <UNDEFINED> instruction: 0x000018b4
    291c:	000018b0 			; <UNDEFINED> instruction: 0x000018b0
    2920:	0009a31a 	andeq	sl, r9, sl, lsl r3
    2924:	0097ac00 	addseq	sl, r7, r0, lsl #24
    2928:	a0000300 	andge	r0, r0, r0, lsl #6
    292c:	01000002 	tsteq	r0, r2
    2930:	0720097c 			; <UNDEFINED> instruction: 0x0720097c
    2934:	ca1b0000 	bgt	6c293c <__bss_end__+0x6b7674>
    2938:	d6000009 	strle	r0, [r0], -r9
    293c:	d2000018 	andle	r0, r0, #24, 0
    2940:	1b000018 	blne	29a8 <__code_start__-0x5658>
    2944:	000009be 			; <UNDEFINED> instruction: 0x000009be
    2948:	000018f8 	strdeq	r1, [r0], -r8
    294c:	000018f4 	strdeq	r1, [r0], -r4
    2950:	0009b41b 	andeq	fp, r9, fp, lsl r4
    2954:	00192200 	andseq	r2, r9, r0, lsl #4
    2958:	00191600 	andseq	r1, r9, r0, lsl #12
    295c:	02a01300 	adceq	r1, r0, #0, 6
    2960:	d61e0000 	ldrle	r0, [lr], -r0
    2964:	7e000009 	cdpvc	0, 0, cr0, cr0, cr9, {0}
    2968:	72000019 	andvc	r0, r0, #25, 0
    296c:	00000019 	andeq	r0, r0, r9, lsl r0
    2970:	094f2000 	stmdbeq	pc, {sp}^	; <UNPREDICTABLE>
    2974:	98340000 	ldmdals	r4!, {}	; <UNPREDICTABLE>
    2978:	00020000 	andeq	r0, r2, r0
    297c:	000002c8 	andeq	r0, r0, r8, asr #5
    2980:	1b097c01 	blne	26198c <__bss_end__+0x2566c4>
    2984:	00000980 	andeq	r0, r0, r0, lsl #19
    2988:	000019ce 	andeq	r1, r0, lr, asr #19
    298c:	000019ca 	andeq	r1, r0, sl, asr #19
    2990:	0009761b 	andeq	r7, r9, fp, lsl r6
    2994:	0019f600 	andseq	pc, r9, r0, lsl #12
    2998:	0019ec00 	andseq	lr, r9, r0, lsl #24
    299c:	096c1b00 	stmdbeq	ip!, {r8, r9, fp, ip}^
    29a0:	1a420000 	bne	10829a8 <__bss_end__+0x10776e0>
    29a4:	1a3e0000 	bne	f829ac <__bss_end__+0xf776e4>
    29a8:	601b0000 	andsvs	r0, fp, r0
    29ac:	70000009 	andvc	r0, r0, r9
    29b0:	6400001a 	strvs	r0, [r0], #-26	; 0xffffffe6
    29b4:	1300001a 	movwne	r0, #26
    29b8:	000002c8 	andeq	r0, r0, r8, asr #5
    29bc:	00098c1e 	andeq	r8, r9, lr, lsl ip
    29c0:	001aca00 	andseq	ip, sl, r0, lsl #20
    29c4:	001ac600 	andseq	ip, sl, r0, lsl #12
    29c8:	09981e00 	ldmibeq	r8, {r9, sl, fp, ip}
    29cc:	1af00000 	bne	ffc029d4 <__bss_end__+0xffbf770c>
    29d0:	1aec0000 	bne	ffb029d8 <__bss_end__+0xffaf7710>
    29d4:	00000000 	andeq	r0, r0, r0
    29d8:	60170000 	andsvs	r0, r7, r0
    29dc:	a4000095 	strge	r0, [r0], #-149	; 0xffffff6b
    29e0:	af00000a 	svcge	0x0000000a
    29e4:	18000007 	stmdane	r0, {r0, r1, r2}
    29e8:	40015001 	andmi	r5, r1, r1
    29ec:	03510118 	cmpeq	r1, #6
    29f0:	187dd091 	ldmdane	sp!, {r0, r4, r7, ip, lr, pc}^
    29f4:	75025301 	strvc	r5, [r2, #-769]	; 0xfffffcff
    29f8:	7d021800 	stcvc	8, cr1, [r2, #-0]
    29fc:	00300100 	eorseq	r0, r0, r0, lsl #2
    2a00:	00967017 	addseq	r7, r6, r7, lsl r0
    2a04:	000aa400 	andeq	sl, sl, r0, lsl #8
    2a08:	0007cf00 	andeq	ip, r7, r0, lsl #30
    2a0c:	50011800 	andpl	r1, r1, r0, lsl #16
    2a10:	01183a01 	tsteq	r8, r1, lsl #20
    2a14:	d0910351 	addsle	r0, r1, r1, asr r3
    2a18:	5301187d 	movwpl	r1, #6269	; 0x187d
    2a1c:	00007502 	andeq	r7, r0, r2, lsl #10
    2a20:	00995417 	addseq	r5, r9, r7, lsl r4
    2a24:	000c4600 	andeq	r4, ip, r0, lsl #12
    2a28:	0007e600 	andeq	lr, r7, r0, lsl #12
    2a2c:	50011800 	andpl	r1, r1, r0, lsl #16
    2a30:	abec0305 	blge	ffb0364c <__bss_end__+0xffaf8384>
    2a34:	21000000 	mrscs	r0, (UNDEF: 0)
    2a38:	00009964 	andeq	r9, r0, r4, ror #18
    2a3c:	000007f8 	strdeq	r0, [r0], -r8
    2a40:	04500118 	ldrbeq	r0, [r0], #-280	; 0xfffffee8
    2a44:	067dc891 			; <UNDEFINED> instruction: 0x067dc891
    2a48:	99781700 	ldmdbls	r8!, {r8, r9, sl, ip}^
    2a4c:	0c460000 	mareq	acc0, r0, r6
    2a50:	08270000 	stmdaeq	r7!, {}	; <UNPREDICTABLE>
    2a54:	01180000 	tsteq	r8, r0
    2a58:	1c030550 	cfstr32ne	mvfx0, [r3], {80}	; 0x50
    2a5c:	180000ac 	stmdane	r0, {r2, r3, r5, r7}
    2a60:	03055101 	movweq	r5, #20737	; 0x5101
    2a64:	0000aafc 	strdeq	sl, [r0], -ip
    2a68:	05520118 	ldrbeq	r0, [r2, #-280]	; 0xfffffee8
    2a6c:	00ac5403 	adceq	r5, ip, r3, lsl #8
    2a70:	53011800 	movwpl	r1, #6144	; 0x1800
    2a74:	00e20802 	rsceq	r0, r2, r2, lsl #16
    2a78:	00997c19 	addseq	r7, r9, r9, lsl ip
    2a7c:	000c7600 	andeq	r7, ip, r0, lsl #12
    2a80:	99901700 	ldmibls	r0, {r8, r9, sl, ip}
    2a84:	0c460000 	mareq	acc0, r0, r6
    2a88:	085f0000 	ldmdaeq	pc, {}^	; <UNPREDICTABLE>
    2a8c:	01180000 	tsteq	r8, r0
    2a90:	c4030550 	strgt	r0, [r3], #-1360	; 0xfffffab0
    2a94:	180000ab 	stmdane	r0, {r0, r1, r3, r5, r7}
    2a98:	03055101 	movweq	r5, #20737	; 0x5101
    2a9c:	0000aafc 	strdeq	sl, [r0], -ip
    2aa0:	05520118 	ldrbeq	r0, [r2, #-280]	; 0xfffffee8
    2aa4:	00ac5403 	adceq	r5, ip, r3, lsl #8
    2aa8:	53011800 	movwpl	r1, #6144	; 0x1800
    2aac:	00be0802 	adcseq	r0, lr, r2, lsl #16
    2ab0:	00999419 	addseq	r9, r9, r9, lsl r4
    2ab4:	000c7600 	andeq	r7, ip, r0, lsl #12
    2ab8:	08000000 	stmdaeq	r0, {}	; <UNPREDICTABLE>
    2abc:	0000b904 	andeq	fp, r0, r4, lsl #18
    2ac0:	00c02200 	sbceq	r2, r0, r0, lsl #4
    2ac4:	08800000 	stmeq	r0, {}	; <UNPREDICTABLE>
    2ac8:	2c230000 	stccs	0, cr0, [r3], #-0
    2acc:	09000000 	stmdbeq	r0, {}	; <UNPREDICTABLE>
    2ad0:	08700900 	ldmdaeq	r0!, {r8, fp}^
    2ad4:	b9220000 	stmdblt	r2!, {}	; <UNPREDICTABLE>
    2ad8:	95000000 	strls	r0, [r0, #-0]
    2adc:	23000008 	movwcs	r0, #8
    2ae0:	0000002c 	andeq	r0, r0, ip, lsr #32
    2ae4:	0724007f 			; <UNDEFINED> instruction: 0x0724007f
    2ae8:	01000007 	tsteq	r0, r7
    2aec:	086a0149 	stmdaeq	sl!, {r0, r3, r6, r8}^
    2af0:	2a010000 	bcs	42af8 <__bss_end__+0x37830>
    2af4:	25000009 	strcs	r0, [r0, #-9]
    2af8:	000003c6 	andeq	r0, r0, r6, asr #7
    2afc:	2c0f4901 			; <UNDEFINED> instruction: 0x2c0f4901
    2b00:	26000000 	strcs	r0, [r0], -r0
    2b04:	00747364 	rsbseq	r7, r4, r4, ror #6
    2b08:	6a1b4901 	bvs	6d4f14 <__bss_end__+0x6c9c4c>
    2b0c:	26000008 	strcs	r0, [r0], -r8
    2b10:	4901006e 	stmdbmi	r1, {r1, r2, r3, r5, r6}
    2b14:	00003324 	andeq	r3, r0, r4, lsr #6
    2b18:	61762600 	cmnvs	r6, r0, lsl #12
    2b1c:	4901006c 	stmdbmi	r1, {r2, r3, r5, r6}
    2b20:	0000332b 	andeq	r3, r0, fp, lsr #6
    2b24:	06bf2500 	ldrteq	r2, [pc], r0, lsl #10
    2b28:	49010000 	stmdbmi	r1, {}	; <UNPREDICTABLE>
    2b2c:	00003334 	andeq	r3, r0, r4, lsr r3
    2b30:	073d2500 	ldreq	r2, [sp, -r0, lsl #10]!
    2b34:	49010000 	stmdbmi	r1, {}	; <UNPREDICTABLE>
    2b38:	0000333f 	andeq	r3, r0, pc, lsr r3
    2b3c:	75622700 	strbvc	r2, [r2, #-1792]!	; 0xfffff900
    2b40:	4e010066 	cdpmi	0, 0, cr0, cr1, cr6, {3}
    2b44:	00092a07 	andeq	r2, r9, r7, lsl #20
    2b48:	00702700 	rsbseq	r2, r0, r0, lsl #14
    2b4c:	6a114e01 	bvs	456358 <__bss_end__+0x44b090>
    2b50:	27000008 	strcs	r0, [r0, -r8]
    2b54:	4f010075 	svcmi	0x00010075
    2b58:	00002c0b 	andeq	r2, r0, fp, lsl #24
    2b5c:	00491200 	subeq	r1, r9, r0, lsl #4
    2b60:	094a0000 	stmdbeq	sl, {}^	; <UNPREDICTABLE>
    2b64:	03050000 	movweq	r0, #20480	; 0x5000
    2b68:	0000ac3c 	andeq	sl, r0, ip, lsr ip
    2b6c:	06f42928 	ldrbteq	r2, [r4], r8, lsr #18
    2b70:	54010000 	strpl	r0, [r1], #-0
    2b74:	00002c0d 	andeq	r2, r0, sp, lsl #24
    2b78:	22000000 	andcs	r0, r0, #0, 0
    2b7c:	000000b9 	strheq	r0, [r0], -r9
    2b80:	0000093a 	andeq	r0, r0, sl, lsr r9
    2b84:	00002c23 	andeq	r2, r0, r3, lsr #24
    2b88:	22003f00 	andcs	r3, r0, #0, 30
    2b8c:	000000c0 	andeq	r0, r0, r0, asr #1
    2b90:	0000094a 	andeq	r0, r0, sl, asr #18
    2b94:	00002c23 	andeq	r2, r0, r3, lsr #24
    2b98:	09000400 	stmdbeq	r0, {sl}
    2b9c:	0000093a 	andeq	r0, r0, sl, lsr r9
    2ba0:	00070c24 	andeq	r0, r7, r4, lsr #24
    2ba4:	0e380100 	rsfeqe	f0, f0, f0
    2ba8:	0000086a 	andeq	r0, r0, sl, ror #16
    2bac:	0009a301 	andeq	sl, r9, r1, lsl #6
    2bb0:	73642600 	cmnvc	r4, #0, 12
    2bb4:	38010074 	stmdacc	r1, {r2, r4, r5, r6}
    2bb8:	00086a1c 	andeq	r6, r8, ip, lsl sl
    2bbc:	006e2600 	rsbeq	r2, lr, r0, lsl #12
    2bc0:	33253801 			; <UNDEFINED> instruction: 0x33253801
    2bc4:	26000000 	strcs	r0, [r0], -r0
    2bc8:	38010070 	stmdacc	r1, {r4, r5, r6}
    2bcc:	00086a2e 	andeq	r6, r8, lr, lsr #20
    2bd0:	0ae62500 	beq	ff98bfd8 <__bss_end__+0xff980d10>
    2bd4:	38010000 	stmdacc	r1, {}	; <UNPREDICTABLE>
    2bd8:	00086a37 	andeq	r6, r8, r7, lsr sl
    2bdc:	656c2700 	strbvs	r2, [ip, #-1792]!	; 0xfffff900
    2be0:	3a01006e 	bcc	42da0 <__bss_end__+0x37ad8>
    2be4:	00003306 	andeq	r3, r0, r6, lsl #6
    2be8:	00732700 	rsbseq	r2, r3, r0, lsl #14
    2bec:	6a083e01 	bvs	2123f8 <__bss_end__+0x207130>
    2bf0:	00000008 	andeq	r0, r0, r8
    2bf4:	6461702a 	strbtvs	r7, [r1], #-42	; 0xffffffd6
    2bf8:	0e2e0100 	sufeqe	f0, f6, f0
    2bfc:	0000086a 	andeq	r0, r0, sl, ror #16
    2c00:	0009e301 	andeq	lr, r9, r1, lsl #6
    2c04:	00702600 	rsbseq	r2, r0, r0, lsl #12
    2c08:	6a182e01 	bvs	60e414 <__bss_end__+0x60314c>
    2c0c:	25000008 	strcs	r0, [r0, #-8]
    2c10:	000003c6 	andeq	r0, r0, r6, asr #7
    2c14:	6a222e01 	bvs	88e420 <__bss_end__+0x883158>
    2c18:	25000008 	strcs	r0, [r0, #-8]
    2c1c:	000006bf 			; <UNDEFINED> instruction: 0x000006bf
    2c20:	332c2e01 			; <UNDEFINED> instruction: 0x332c2e01
    2c24:	27000000 	strcs	r0, [r0, -r0]
    2c28:	006e656c 	rsbeq	r6, lr, ip, ror #10
    2c2c:	33062f01 	movwcc	r2, #28417	; 0x6f01
    2c30:	00000000 	andeq	r0, r0, r0
    2c34:	00068c24 	andeq	r8, r6, r4, lsr #24
    2c38:	0c270100 	stfeqs	f0, [r7], #-0
    2c3c:	00000033 	andeq	r0, r0, r3, lsr r0
    2c40:	0009ff01 	andeq	pc, r9, r1, lsl #30
    2c44:	00632600 	rsbeq	r2, r3, r0, lsl #12
    2c48:	33182701 	tstcc	r8, #262144	; 0x40000
    2c4c:	00000000 	andeq	r0, r0, r0
    2c50:	0006cd2b 	andeq	ip, r6, fp, lsr #26
    2c54:	061f0100 	ldreq	r0, [pc], -r0, lsl #2
    2c58:	000093ac 	andeq	r9, r0, ip, lsr #7
    2c5c:	00000060 	andeq	r0, r0, r0, rrx
    2c60:	0a8f9c01 	beq	fe3e9c6c <__bss_end__+0xfe3de9a4>
    2c64:	c50f0000 	strgt	r0, [pc, #-0]	; 2c6c <__code_start__-0x5394>
    2c68:	01000006 	tsteq	r0, r6
    2c6c:	009e1b1f 	addseq	r1, lr, pc, lsl fp
    2c70:	1b150000 	blne	542c78 <__bss_end__+0x5379b0>
    2c74:	1b110000 	blne	442c7c <__bss_end__+0x4379b4>
    2c78:	1b0f0000 	blne	3c2c80 <__bss_end__+0x3b79b8>
    2c7c:	01000007 	tsteq	r0, r7
    2c80:	00d1301f 	sbcseq	r3, r1, pc, lsl r0
    2c84:	1b3a0000 	blne	e82c8c <__bss_end__+0xe779c4>
    2c88:	1b360000 	blne	d82c90 <__bss_end__+0xd779c8>
    2c8c:	49120000 	ldmdbmi	r2, {}	; <UNPREDICTABLE>
    2c90:	9f000000 	svcls	0x00000000
    2c94:	0500000a 	streq	r0, [r0, #-10]
    2c98:	00ac4403 	adceq	r4, ip, r3, lsl #8
    2c9c:	93f01700 	mvnsls	r1, #0, 14
    2ca0:	0c460000 	mareq	acc0, r0, r6
    2ca4:	0a850000 	beq	fe142cac <__bss_end__+0xfe1379e4>
    2ca8:	01180000 	tsteq	r8, r0
    2cac:	9c030550 	cfstr32ls	mvfx0, [r3], {80}	; 0x50
    2cb0:	180000a5 	stmdane	r0, {r0, r2, r5, r7}
    2cb4:	03055101 	movweq	r5, #20737	; 0x5101
    2cb8:	0000aafc 	strdeq	sl, [r0], -ip
    2cbc:	05520118 	ldrbeq	r0, [r2, #-280]	; 0xfffffee8
    2cc0:	00ac4403 	adceq	r4, ip, r3, lsl #8
    2cc4:	53011800 	movwpl	r1, #6144	; 0x1800
    2cc8:	18200802 	stmdane	r0!, {r1, fp}
    2ccc:	05007d02 	streq	r7, [r0, #-3330]	; 0xfffff2fe
    2cd0:	00ab3403 	adceq	r3, fp, r3, lsl #8
    2cd4:	f4190000 			; <UNDEFINED> instruction: 0xf4190000
    2cd8:	76000093 			; <UNDEFINED> instruction: 0x76000093
    2cdc:	0000000c 	andeq	r0, r0, ip
    2ce0:	0000c022 	andeq	ip, r0, r2, lsr #32
    2ce4:	000a9f00 	andeq	r9, sl, r0, lsl #30
    2ce8:	002c2300 	eoreq	r2, ip, r0, lsl #6
    2cec:	000e0000 	andeq	r0, lr, r0
    2cf0:	000a8f09 	andeq	r8, sl, r9, lsl #30
    2cf4:	08952c00 	ldmeq	r5, {sl, fp, sp}
    2cf8:	90840000 	addls	r0, r4, r0
    2cfc:	03280000 			; <UNDEFINED> instruction: 0x03280000
    2d00:	9c010000 	stcls	0, cr0, [r1], {-0}
    2d04:	00000c3a 	andeq	r0, r0, sl, lsr ip
    2d08:	0008a61b 	andeq	sl, r8, fp, lsl r6
    2d0c:	001b7300 	andseq	r7, fp, r0, lsl #6
    2d10:	001b5b00 	andseq	r5, fp, r0, lsl #22
    2d14:	08b21b00 	ldmeq	r2!, {r8, r9, fp, ip}
    2d18:	1c1d0000 	ldcne	0, cr0, [sp], {-0}
    2d1c:	1c150000 	ldcne	0, cr0, [r5], {-0}
    2d20:	c81b0000 	ldmdagt	fp, {}	; <UNPREDICTABLE>
    2d24:	74000008 	strvc	r0, [r0], #-8
    2d28:	5400001c 	strpl	r0, [r0], #-28	; 0xffffffe4
    2d2c:	1b00001c 	blne	2da4 <__code_start__-0x525c>
    2d30:	000008d4 	ldrdeq	r0, [r0], -r4
    2d34:	00001d4a 	andeq	r1, r0, sl, asr #26
    2d38:	00001d3c 	andeq	r1, r0, ip, lsr sp
    2d3c:	0008e02d 	andeq	lr, r8, sp, lsr #32
    2d40:	00910200 	addseq	r0, r1, r0, lsl #4
    2d44:	0008ec1d 	andeq	lr, r8, sp, lsl ip
    2d48:	a8910300 	ldmge	r1, {r8, r9}
    2d4c:	08f81e7f 	ldmeq	r8!, {r0, r1, r2, r3, r4, r5, r6, r9, sl, fp, ip}^
    2d50:	1dde0000 	ldclne	0, cr0, [lr]
    2d54:	1daa0000 	stcne	0, cr0, [sl]
    2d58:	021e0000 	andseq	r0, lr, #0, 0
    2d5c:	45000009 	strmi	r0, [r0, #-9]
    2d60:	2300001f 	movwcs	r0, #31
    2d64:	2e00001f 	mcrcs	0, 0, r0, cr0, cr15, {0}
    2d68:	000008be 			; <UNDEFINED> instruction: 0x000008be
    2d6c:	09a31a80 	stmibeq	r3!, {r7, r9, fp, ip}
    2d70:	91280000 			; <UNDEFINED> instruction: 0x91280000
    2d74:	00040000 	andeq	r0, r4, r0
    2d78:	00000118 	andeq	r0, r0, r8, lsl r1
    2d7c:	6d097c01 	stcvs	12, cr7, [r9, #-4]
    2d80:	1b00000b 	blne	2db4 <__code_start__-0x524c>
    2d84:	000009ca 	andeq	r0, r0, sl, asr #19
    2d88:	0000202d 	andeq	r2, r0, sp, lsr #32
    2d8c:	00002023 	andeq	r2, r0, r3, lsr #32
    2d90:	0009be1b 	andeq	fp, r9, fp, lsl lr
    2d94:	00208100 	eoreq	r8, r0, r0, lsl #2
    2d98:	00207100 	eoreq	r7, r0, r0, lsl #2
    2d9c:	09b41b00 	ldmibeq	r4!, {r8, r9, fp, ip}
    2da0:	21010000 	mrscs	r0, (UNDEF: 1)
    2da4:	20ed0000 	rsccs	r0, sp, r0
    2da8:	18130000 	ldmdane	r3, {}	; <UNPREDICTABLE>
    2dac:	1e000001 	cdpne	0, 0, cr0, cr0, cr1, {0}
    2db0:	000009d6 	ldrdeq	r0, [r0], -r6
    2db4:	00002193 	muleq	r0, r3, r1
    2db8:	00002183 	andeq	r2, r0, r3, lsl #3
    2dbc:	4f1a0000 	svcmi	0x001a0000
    2dc0:	e0000009 	and	r0, r0, r9
    2dc4:	02000091 	andeq	r0, r0, #145, 0	; 0x91
    2dc8:	00016000 	andeq	r6, r1, r0
    2dcc:	097c0100 	ldmdbeq	ip!, {r8}^
    2dd0:	00000bd8 	ldrdeq	r0, [r0], -r8
    2dd4:	0009801b 	andeq	r8, r9, fp, lsl r0
    2dd8:	0021ff00 	eoreq	pc, r1, r0, lsl #30
    2ddc:	0021f700 	eoreq	pc, r1, r0, lsl #14
    2de0:	09761b00 	ldmdbeq	r6!, {r8, r9, fp, ip}^
    2de4:	223e0000 	eorscs	r0, lr, #0, 0
    2de8:	22360000 	eorscs	r0, r6, #0, 0
    2dec:	6c1b0000 	ldcvs	0, cr0, [fp], {-0}
    2df0:	7d000009 	stcvc	0, cr0, [r0, #-36]	; 0xffffffdc
    2df4:	79000022 	stmdbvc	r0, {r1, r5}
    2df8:	1b000022 	blne	2e88 <__code_start__-0x5178>
    2dfc:	00000960 	andeq	r0, r0, r0, ror #18
    2e00:	000022ad 	andeq	r2, r0, sp, lsr #5
    2e04:	0000229f 	muleq	r0, pc, r2	; <UNPREDICTABLE>
    2e08:	00016013 	andeq	r6, r1, r3, lsl r0
    2e0c:	098c1e00 	stmibeq	ip, {r9, sl, fp, ip}
    2e10:	23120000 	tstcs	r2, #0, 0
    2e14:	230c0000 	movwcs	r0, #49152	; 0xc000
    2e18:	981e0000 	ldmdals	lr, {}	; <UNPREDICTABLE>
    2e1c:	44000009 	strmi	r0, [r0], #-9
    2e20:	40000023 	andmi	r0, r0, r3, lsr #32
    2e24:	00000023 	andeq	r0, r0, r3, lsr #32
    2e28:	091b2f00 	ldmdbeq	fp, {r8, r9, sl, fp, sp}
    2e2c:	92980000 	addsls	r0, r8, #0, 0
    2e30:	00600000 	rsbeq	r0, r0, r0
    2e34:	0bf70000 	bleq	ffdc2e3c <__bss_end__+0xffdb7b74>
    2e38:	1c1e0000 	ldcne	0, cr0, [lr], {-0}
    2e3c:	66000009 	strvs	r0, [r0], -r9
    2e40:	62000023 	andvs	r0, r0, #35, 0	; 0x23
    2e44:	00000023 	andeq	r0, r0, r3, lsr #32
    2e48:	00936c17 	addseq	r6, r3, r7, lsl ip
    2e4c:	000c4600 	andeq	r4, ip, r0, lsl #12
    2e50:	000c3000 	andeq	r3, ip, r0
    2e54:	50011800 	andpl	r1, r1, r0, lsl #16
    2e58:	a59c0305 	ldrge	r0, [ip, #773]	; 0x305
    2e5c:	01180000 	tsteq	r8, r0
    2e60:	fc030551 	stc2	5, cr0, [r3], {81}	; 0x51
    2e64:	180000aa 	stmdane	r0, {r1, r3, r5, r7}
    2e68:	03055201 	movweq	r5, #20993	; 0x5201
    2e6c:	0000ac3c 	andeq	sl, r0, ip, lsr ip
    2e70:	02530118 	subseq	r0, r3, #6
    2e74:	02187908 	andseq	r7, r8, #8, 18	; 0x20000
    2e78:	0305007d 	movweq	r0, #20605	; 0x507d
    2e7c:	0000a9ac 	andeq	sl, r0, ip, lsr #19
    2e80:	93701900 	cmnls	r0, #0, 18
    2e84:	0c760000 	ldcleq	0, cr0, [r6], #-0
    2e88:	30000000 	andcc	r0, r0, r0
    2e8c:	00000735 	andeq	r0, r0, r5, lsr r7
    2e90:	00000735 	andeq	r0, r0, r5, lsr r7
    2e94:	3005eb03 	andcc	lr, r5, r3, lsl #22
    2e98:	0000063b 	andeq	r0, r0, fp, lsr r6
    2e9c:	0000063b 	andeq	r0, r0, fp, lsr r6
    2ea0:	30062803 	andcc	r2, r6, r3, lsl #16
    2ea4:	000006e6 	andeq	r0, r0, r6, ror #13
    2ea8:	000006e6 	andeq	r0, r0, r6, ror #13
    2eac:	3007ee03 	andcc	lr, r7, r3, lsl #28
    2eb0:	00000714 	andeq	r0, r0, r4, lsl r7
    2eb4:	00000714 	andeq	r0, r0, r4, lsl r7
    2eb8:	3005ea03 	andcc	lr, r5, r3, lsl #20
    2ebc:	000006ed 	andeq	r0, r0, sp, ror #13
    2ec0:	000006ed 	andeq	r0, r0, sp, ror #13
    2ec4:	3007ed03 	andcc	lr, r7, r3, lsl #26
    2ec8:	00000056 	andeq	r0, r0, r6, asr r0
    2ecc:	00000056 	andeq	r0, r0, r6, asr r0
    2ed0:	00066e03 	andeq	r6, r6, r3, lsl #28
    2ed4:	0000012f 	andeq	r0, r0, pc, lsr #2
    2ed8:	0fa00004 	svceq	0x00a00004
    2edc:	01040000 	mrseq	r0, (UNDEF: 4)
    2ee0:	00000513 	andeq	r0, r0, r3, lsl r5
    2ee4:	00075a0c 	andeq	r5, r7, ip, lsl #20
    2ee8:	0005d900 	andeq	sp, r5, r0, lsl #18
    2eec:	009a3800 	addseq	r3, sl, r0, lsl #16
    2ef0:	00002c00 	andeq	r2, r0, r0, lsl #24
    2ef4:	001a7e00 	andseq	r7, sl, r0, lsl #28
    2ef8:	05040200 	streq	r0, [r4, #-512]	; 0xfffffe00
    2efc:	00746e69 	rsbseq	r6, r4, r9, ror #28
    2f00:	71070403 	tstvc	r7, r3, lsl #8
    2f04:	03000001 	movweq	r0, #1
    2f08:	00720601 	rsbseq	r0, r2, r1, lsl #12
    2f0c:	02030000 	andeq	r0, r3, #0, 0
    2f10:	00000005 	andeq	r0, r0, r5
    2f14:	05040300 	streq	r0, [r4, #-768]	; 0xfffffd00
    2f18:	00000033 	andeq	r0, r0, r3, lsr r0
    2f1c:	2e050803 	cdpcs	8, 0, cr0, cr5, cr3, {0}
    2f20:	03000000 	movweq	r0, #0
    2f24:	00700801 	rsbseq	r0, r0, r1, lsl #16
    2f28:	02030000 	andeq	r0, r3, #0, 0
    2f2c:	0001b807 	andeq	fp, r1, r7, lsl #16
    2f30:	07040300 	streq	r0, [r4, -r0, lsl #6]
    2f34:	0000016c 	andeq	r0, r0, ip, ror #2
    2f38:	67070803 	strvs	r0, [r7, -r3, lsl #16]
    2f3c:	04000001 	streq	r0, [r0], #-1
    2f40:	00000025 	andeq	r0, r0, r5, lsr #32
    2f44:	0000007a 	andeq	r0, r0, sl, ror r0
    2f48:	00002505 	andeq	r2, r0, r5, lsl #10
    2f4c:	0a060000 	beq	182f54 <__bss_end__+0x177c8c>
    2f50:	02000000 	andeq	r0, r0, #0, 0
    2f54:	00860e1c 	addeq	r0, r6, ip, lsl lr
    2f58:	04070000 	streq	r0, [r7], #-0
    2f5c:	0000006b 	andeq	r0, r0, fp, rrx
    2f60:	00002504 	andeq	r2, r0, r4, lsl #10
    2f64:	00009b00 	andeq	r9, r0, r0, lsl #22
    2f68:	009b0500 	addseq	r0, fp, r0, lsl #10
    2f6c:	07000000 	streq	r0, [r0, -r0]
    2f70:	0000a804 	andeq	sl, r0, r4, lsl #16
    2f74:	08010300 	stmdaeq	r1, {r8, r9}
    2f78:	00000079 	andeq	r0, r0, r9, ror r0
    2f7c:	0000a108 	andeq	sl, r0, r8, lsl #2
    2f80:	06790600 	ldrbteq	r0, [r9], -r0, lsl #12
    2f84:	21020000 	mrscs	r0, (UNDEF: 2)
    2f88:	0000b90e 	andeq	fp, r0, lr, lsl #18
    2f8c:	8c040700 	stchi	7, cr0, [r4], {-0}
    2f90:	09000000 	stmdbeq	r0, {}	; <UNPREDICTABLE>
    2f94:	00000056 	andeq	r0, r0, r6, asr r0
    2f98:	38060401 	stmdacc	r6, {r0, sl}
    2f9c:	2c00009a 	stccs	0, cr0, [r0], {154}	; 0x9a
    2fa0:	01000000 	mrseq	r0, (UNDEF: 0)
    2fa4:	00010e9c 	muleq	r1, ip, lr
    2fa8:	9a4c0a00 	bls	13057b0 <__bss_end__+0x12fa4e8>
    2fac:	00e80000 	rsceq	r0, r8, r0
    2fb0:	010b0000 	mrseq	r0, (UNDEF: 11)
    2fb4:	60030550 	andvs	r0, r3, r0, asr r5
    2fb8:	000000ac 	andeq	r0, r0, ip, lsr #1
    2fbc:	009a500c 	addseq	r5, sl, ip
    2fc0:	00010e00 	andeq	r0, r1, r0, lsl #28
    2fc4:	9a580d00 	bls	16063cc <__bss_end__+0x15fb104>
    2fc8:	011a0000 	tsteq	sl, r0
    2fcc:	01040000 	mrseq	r0, (UNDEF: 4)
    2fd0:	010b0000 	mrseq	r0, (UNDEF: 11)
    2fd4:	003a0150 	eorseq	r0, sl, r0, asr r1
    2fd8:	009a5c0c 	addseq	r5, sl, ip, lsl #24
    2fdc:	00012600 	andeq	r2, r1, r0, lsl #12
    2fe0:	750e0000 	strvc	r0, [lr, #-0]
    2fe4:	75000007 	strvc	r0, [r0, #-7]
    2fe8:	02000007 	andeq	r0, r0, #7, 0
    2fec:	510e064d 	tstpl	lr, sp, asr #12
    2ff0:	51000007 	tstpl	r0, r7
    2ff4:	02000007 	andeq	r0, r0, #7, 0
    2ff8:	460e0658 			; <UNDEFINED> instruction: 0x460e0658
    2ffc:	46000007 	strmi	r0, [r0], -r7
    3000:	02000007 	andeq	r0, r0, #7, 0
    3004:	b100066b 	tstlt	r0, fp, ror #12
    3008:	04000002 	streq	r0, [r0], #-2
    300c:	00106000 	andseq	r6, r0, r0
    3010:	13010400 	movwne	r0, #5120	; 0x1400
    3014:	0c000005 	stceq	0, cr0, [r0], {5}
    3018:	000007ab 	andeq	r0, r0, fp, lsr #15
    301c:	000005d9 	ldrdeq	r0, [r0], -r9
    3020:	00009a64 	andeq	r9, r0, r4, ror #20
    3024:	00000128 	andeq	r0, r0, r8, lsr #2
    3028:	00001b09 	andeq	r1, r0, r9, lsl #22
    302c:	69050402 	stmdbvs	r5, {r1, sl}
    3030:	0300746e 	movweq	r7, #1134	; 0x46e
    3034:	01710704 	cmneq	r1, r4, lsl #14
    3038:	01030000 	mrseq	r0, (UNDEF: 3)
    303c:	00007206 	andeq	r7, r0, r6, lsl #4
    3040:	05020300 	streq	r0, [r2, #-768]	; 0xfffffd00
    3044:	00000000 	andeq	r0, r0, r0
    3048:	33050403 	movwcc	r0, #21507	; 0x5403
    304c:	03000000 	movweq	r0, #0
    3050:	002e0508 	eoreq	r0, lr, r8, lsl #10
    3054:	01030000 	mrseq	r0, (UNDEF: 3)
    3058:	00007008 	andeq	r7, r0, r8
    305c:	07020300 	streq	r0, [r2, -r0, lsl #6]
    3060:	000001b8 			; <UNDEFINED> instruction: 0x000001b8
    3064:	6c070403 	cfstrsvs	mvf0, [r7], {3}
    3068:	03000001 	movweq	r0, #1
    306c:	01670708 	cmneq	r7, r8, lsl #14
    3070:	25040000 	strcs	r0, [r4, #-0]
    3074:	7a000000 	bvc	307c <__code_start__-0x4f84>
    3078:	05000000 	streq	r0, [r0, #-0]
    307c:	00000025 	andeq	r0, r0, r5, lsr #32
    3080:	000a0600 	andeq	r0, sl, r0, lsl #12
    3084:	1c020000 	stcne	0, cr0, [r2], {-0}
    3088:	0000860e 	andeq	r8, r0, lr, lsl #12
    308c:	6b040700 	blvs	104c94 <__bss_end__+0xf99cc>
    3090:	04000000 	streq	r0, [r0], #-0
    3094:	00000025 	andeq	r0, r0, r5, lsr #32
    3098:	0000009b 	muleq	r0, fp, r0
    309c:	00009b05 	andeq	r9, r0, r5, lsl #22
    30a0:	04070000 	streq	r0, [r7], #-0
    30a4:	000000a8 	andeq	r0, r0, r8, lsr #1
    30a8:	79080103 	stmdbvc	r8, {r0, r1, r8}
    30ac:	08000000 	stmdaeq	r0, {}	; <UNPREDICTABLE>
    30b0:	000000a1 	andeq	r0, r0, r1, lsr #1
    30b4:	00067906 	andeq	r7, r6, r6, lsl #18
    30b8:	0e210200 	cdpeq	2, 2, cr0, cr1, cr0, {0}
    30bc:	000000b9 	strheq	r0, [r0], -r9
    30c0:	008c0407 	addeq	r0, ip, r7, lsl #8
    30c4:	83090000 	movwhi	r0, #36864	; 0x9000
    30c8:	01000007 	tsteq	r0, r7
    30cc:	9a640611 	bls	1904918 <__bss_end__+0x18f9650>
    30d0:	01280000 			; <UNDEFINED> instruction: 0x01280000
    30d4:	9c010000 	stcls	0, cr0, [r1], {-0}
    30d8:	00000226 	andeq	r0, r0, r6, lsr #4
    30dc:	00040706 	andeq	r0, r4, r6, lsl #14
    30e0:	10120100 	andsne	r0, r2, r0, lsl #2
    30e4:	00000025 	andeq	r0, r0, r5, lsr #32
    30e8:	0004a106 	andeq	sl, r4, r6, lsl #2
    30ec:	1f120100 	svcne	0x00120100
    30f0:	00000025 	andeq	r0, r0, r5, lsr #32
    30f4:	0001950a 	andeq	r9, r1, sl, lsl #10
    30f8:	07130100 	ldreq	r0, [r3, -r0, lsl #2]
    30fc:	7373620b 	cmnvc	r3, #-1342177280	; 0xb0000000
    3100:	0a170100 	beq	5c3508 <__bss_end__+0x5b8240>
    3104:	00000226 	andeq	r0, r0, r6, lsr #4
    3108:	0000239e 	muleq	r0, lr, r3
    310c:	00002386 	andeq	r2, r0, r6, lsl #7
    3110:	00078b0c 	andeq	r8, r7, ip, lsl #22
    3114:	0a180100 	beq	60351c <__bss_end__+0x5f8254>
    3118:	00000226 	andeq	r0, r0, r6, lsr #4
    311c:	0007cb0d 	andeq	ip, r7, sp, lsl #22
    3120:	0e250100 	sufeqs	f0, f5, f0
    3124:	0000002c 	andeq	r0, r0, ip, lsr #32
    3128:	00002438 	andeq	r2, r0, r8, lsr r4
    312c:	00002436 	andeq	r2, r0, r6, lsr r4
    3130:	009b3c0e 	addseq	r3, fp, lr, lsl #24
    3134:	00000800 	andeq	r0, r0, r0, lsl #16
    3138:	00014a00 	andeq	r4, r1, r0, lsl #20
    313c:	6e690b00 	vmulvs.f64	d16, d9, d0
    3140:	05210100 	streq	r0, [r1, #-256]!	; 0xffffff00
    3144:	0000002c 	andeq	r0, r0, ip, lsr #32
    3148:	0000244d 	andeq	r2, r0, sp, asr #8
    314c:	0000244b 	andeq	r2, r0, fp, asr #8
    3150:	022c0f00 	eoreq	r0, ip, #0, 30
    3154:	9b440000 	blls	110315c <__bss_end__+0x10f7e94>
    3158:	44020000 	strmi	r0, [r2], #-0
    315c:	0c00009b 	stceq	0, cr0, [r0], {155}	; 0x9b
    3160:	01000000 	mrseq	r0, (UNDEF: 0)
    3164:	01990523 	orrseq	r0, r9, r3, lsr #10
    3168:	4f100000 	svcmi	0x00100000
    316c:	63000002 	movwvs	r0, #2
    3170:	61000024 	tstvs	r0, r4, lsr #32
    3174:	10000024 	andne	r0, r0, r4, lsr #32
    3178:	0000025b 	andeq	r0, r0, fp, asr r2
    317c:	00002479 	andeq	r2, r0, r9, ror r4
    3180:	00002477 	andeq	r2, r0, r7, ror r4
    3184:	00026711 	andeq	r6, r2, r1, lsl r7
    3188:	009b4400 	addseq	r4, fp, r0, lsl #8
    318c:	00000400 	andeq	r0, r0, r0, lsl #8
    3190:	02681000 	rsbeq	r1, r8, #0, 0
    3194:	248e0000 	strcs	r0, [lr], #0
    3198:	248c0000 	strcs	r0, [ip], #0
    319c:	00000000 	andeq	r0, r0, r0
    31a0:	00022c12 	andeq	r2, r2, r2, lsl ip
    31a4:	009b5400 	addseq	r5, fp, r0, lsl #8
    31a8:	02f00100 	rscseq	r0, r0, #0
    31ac:	25010000 	strcs	r0, [r1, #-0]
    31b0:	0001ea15 	andeq	lr, r1, r5, lsl sl
    31b4:	02f01300 	rscseq	r1, r0, #0, 6
    31b8:	4f100000 	svcmi	0x00100000
    31bc:	a5000002 	strge	r0, [r0, #-2]
    31c0:	a1000024 	tstge	r0, r4, lsr #32
    31c4:	10000024 	andne	r0, r0, r4, lsr #32
    31c8:	0000025b 	andeq	r0, r0, fp, asr r2
    31cc:	000024c6 	andeq	r2, r0, r6, asr #9
    31d0:	000024c4 	andeq	r2, r0, r4, asr #9
    31d4:	00026711 	andeq	r6, r2, r1, lsl r7
    31d8:	009b5400 	addseq	r5, fp, r0, lsl #8
    31dc:	00000400 	andeq	r0, r0, r0, lsl #8
    31e0:	02681000 	rsbeq	r1, r8, #0, 0
    31e4:	24db0000 	ldrbcs	r0, [fp], #0
    31e8:	24d90000 	ldrbcs	r0, [r9], #0
    31ec:	00000000 	andeq	r0, r0, r0
    31f0:	9a6c1400 	bls	1b081f8 <__bss_end__+0x1afcf30>
    31f4:	02760000 	rsbseq	r0, r6, #0, 0
    31f8:	3c140000 	ldccc	0, cr0, [r4], {-0}
    31fc:	8300009b 	movwhi	r0, #155	; 0x9b
    3200:	14000002 	strne	r0, [r0], #-2
    3204:	00009b54 	andeq	r9, r0, r4, asr fp
    3208:	0000028f 	andeq	r0, r0, pc, lsl #5
    320c:	009b7015 	addseq	r7, fp, r5, lsl r0
    3210:	00029c00 	andeq	r9, r2, r0, lsl #24
    3214:	00021c00 	andeq	r1, r2, r0, lsl #24
    3218:	50011600 	andpl	r1, r1, r0, lsl #12
    321c:	ac6c0305 	stclge	3, cr0, [ip], #-20	; 0xffffffec
    3220:	14000000 	strne	r0, [r0], #-0
    3224:	00009b74 	andeq	r9, r0, r4, ror fp
    3228:	000002a8 	andeq	r0, r0, r8, lsr #5
    322c:	25040700 	strcs	r0, [r4, #-1792]	; 0xfffff900
    3230:	17000000 	strne	r0, [r0, -r0]
    3234:	000007c5 	andeq	r0, r0, r5, asr #15
    3238:	2c110401 	cfldrscs	mvf0, [r1], {1}
    323c:	01000000 	mrseq	r0, (UNDEF: 0)
    3240:	00000276 	andeq	r0, r0, r6, ror r2
    3244:	0007d018 	andeq	sp, r7, r8, lsl r0
    3248:	15050100 	strne	r0, [r5, #-256]	; 0xffffff00
    324c:	0000002c 	andeq	r0, r0, ip, lsr #32
    3250:	b2bc0305 	adcslt	r0, ip, #335544320	; 0x14000000
    3254:	cb0c0000 	blgt	30325c <__bss_end__+0x2f7f94>
    3258:	01000007 	tsteq	r0, r7
    325c:	002c0e07 	eoreq	r0, ip, r7, lsl #28
    3260:	63190000 	tstvs	r9, #0, 0
    3264:	01007275 	tsteq	r0, r5, ror r2
    3268:	002c0e09 	eoreq	r0, ip, r9, lsl #28
    326c:	0c1a0000 	ldceq	0, cr0, [sl], {-0}
    3270:	000007c0 	andeq	r0, r0, r0, asr #15
    3274:	2c140901 			; <UNDEFINED> instruction: 0x2c140901
    3278:	00000000 	andeq	r0, r0, r0
    327c:	079d1b00 	ldreq	r1, [sp, r0, lsl #22]
    3280:	079d0000 	ldreq	r0, [sp, r0]
    3284:	31020000 	mrscc	r0, (UNDEF: 2)
    3288:	931c0601 	tstls	ip, #1048576	; 0x100000
    328c:	93000007 	movwls	r0, #7
    3290:	02000007 	andeq	r0, r0, #7, 0
    3294:	951b063b 	ldrls	r0, [fp, #-1595]	; 0xfffff9c5
    3298:	95000001 	strls	r0, [r0, #-1]
    329c:	02000001 	andeq	r0, r0, #1, 0
    32a0:	1c060105 	stfnes	f0, [r6], {5}
    32a4:	0000063b 	andeq	r0, r0, fp, lsr r6
    32a8:	0000063b 	andeq	r0, r0, fp, lsr r6
    32ac:	1c062802 	stcne	8, cr2, [r6], {2}
    32b0:	00000056 	andeq	r0, r0, r6, asr r0
    32b4:	00000056 	andeq	r0, r0, r6, asr r0
    32b8:	00066e02 	andeq	r6, r6, r2, lsl #28
    32bc:	000000ce 	andeq	r0, r0, lr, asr #1
    32c0:	11fe0004 	mvnsne	r0, r4
    32c4:	01040000 	mrseq	r0, (UNDEF: 4)
    32c8:	00000513 	andeq	r0, r0, r3, lsl r5
    32cc:	0007d50c 	andeq	sp, r7, ip, lsl #10
    32d0:	0005d900 	andeq	sp, r5, r0, lsl #18
    32d4:	009b8c00 	addseq	r8, fp, r0, lsl #24
    32d8:	00000400 	andeq	r0, r0, r0, lsl #8
    32dc:	001c8300 	andseq	r8, ip, r0, lsl #6
    32e0:	05040200 	streq	r0, [r4, #-512]	; 0xfffffe00
    32e4:	00746e69 	rsbseq	r6, r4, r9, ror #28
    32e8:	71070403 	tstvc	r7, r3, lsl #8
    32ec:	03000001 	movweq	r0, #1
    32f0:	00720601 	rsbseq	r0, r2, r1, lsl #12
    32f4:	02030000 	andeq	r0, r3, #0, 0
    32f8:	00000005 	andeq	r0, r0, r5
    32fc:	05040300 	streq	r0, [r4, #-768]	; 0xfffffd00
    3300:	00000033 	andeq	r0, r0, r3, lsr r0
    3304:	2e050803 	cdpcs	8, 0, cr0, cr5, cr3, {0}
    3308:	03000000 	movweq	r0, #0
    330c:	00700801 	rsbseq	r0, r0, r1, lsl #16
    3310:	02030000 	andeq	r0, r3, #0, 0
    3314:	0001b807 	andeq	fp, r1, r7, lsl #16
    3318:	07040300 	streq	r0, [r4, -r0, lsl #6]
    331c:	0000016c 	andeq	r0, r0, ip, ror #2
    3320:	67070803 	strvs	r0, [r7, -r3, lsl #16]
    3324:	04000001 	streq	r0, [r0], #-1
    3328:	00000025 	andeq	r0, r0, r5, lsr #32
    332c:	0000007a 	andeq	r0, r0, sl, ror r0
    3330:	00002505 	andeq	r2, r0, r5, lsl #10
    3334:	0a060000 	beq	18333c <__bss_end__+0x178074>
    3338:	02000000 	andeq	r0, r0, #0, 0
    333c:	00860e1c 	addeq	r0, r6, ip, lsl lr
    3340:	04070000 	streq	r0, [r7], #-0
    3344:	0000006b 	andeq	r0, r0, fp, rrx
    3348:	00002504 	andeq	r2, r0, r4, lsl #10
    334c:	00009b00 	andeq	r9, r0, r0, lsl #22
    3350:	009b0500 	addseq	r0, fp, r0, lsl #10
    3354:	07000000 	streq	r0, [r0, -r0]
    3358:	0000a804 	andeq	sl, r0, r4, lsl #16
    335c:	08010300 	stmdaeq	r1, {r8, r9}
    3360:	00000079 	andeq	r0, r0, r9, ror r0
    3364:	0000a108 	andeq	sl, r0, r8, lsl #2
    3368:	06790600 	ldrbteq	r0, [r9], -r0, lsl #12
    336c:	21020000 	mrscs	r0, (UNDEF: 2)
    3370:	0000b90e 	andeq	fp, r0, lr, lsl #18
    3374:	8c040700 	stchi	7, cr0, [r4], {-0}
    3378:	09000000 	stmdbeq	r0, {}	; <UNPREDICTABLE>
    337c:	0000079d 	muleq	r0, sp, r7
    3380:	8c060401 	cfstrshi	mvf0, [r6], {1}
    3384:	0400009b 	streq	r0, [r0], #-155	; 0xffffff65
    3388:	01000000 	mrseq	r0, (UNDEF: 0)
    338c:	027d009c 	rsbseq	r0, sp, #156, 0	; 0x9c
    3390:	00040000 	andeq	r0, r4, r0
    3394:	00001277 	andeq	r1, r0, r7, ror r2
    3398:	05130104 	ldreq	r0, [r3, #-260]	; 0xfffffefc
    339c:	170c0000 	strne	r0, [ip, -r0]
    33a0:	d9000008 	stmdble	r0, {r3}
    33a4:	20000005 	andcs	r0, r0, r5
    33a8:	00000003 	andeq	r0, r0, r3
    33ac:	04000000 	streq	r0, [r0], #-0
    33b0:	0200001d 	andeq	r0, r0, #29, 0
    33b4:	6e690504 	cdpvs	5, 6, cr0, cr9, cr4, {0}
    33b8:	25030074 	strcs	r0, [r3, #-116]	; 0xffffff8c
    33bc:	04000000 	streq	r0, [r0], #-0
    33c0:	01710704 	cmneq	r1, r4, lsl #14
    33c4:	01040000 	mrseq	r0, (UNDEF: 4)
    33c8:	00007206 	andeq	r7, r0, r6, lsl #4
    33cc:	05020400 	streq	r0, [r2, #-1024]	; 0xfffffc00
    33d0:	00000000 	andeq	r0, r0, r0
    33d4:	33050404 	movwcc	r0, #21508	; 0x5404
    33d8:	04000000 	streq	r0, [r0], #-0
    33dc:	002e0508 	eoreq	r0, lr, r8, lsl #10
    33e0:	01040000 	mrseq	r0, (UNDEF: 4)
    33e4:	00007008 	andeq	r7, r0, r8
    33e8:	07020400 	streq	r0, [r2, -r0, lsl #8]
    33ec:	000001b8 			; <UNDEFINED> instruction: 0x000001b8
    33f0:	6c070404 	cfstrsvs	mvf0, [r7], {4}
    33f4:	04000001 	streq	r0, [r0], #-1
    33f8:	01670708 	cmneq	r7, r8, lsl #14
    33fc:	25050000 	strcs	r0, [r5, #-0]
    3400:	7f000000 	svcvc	0x00000000
    3404:	06000000 	streq	r0, [r0], -r0
    3408:	00000025 	andeq	r0, r0, r5, lsr #32
    340c:	000a0700 	andeq	r0, sl, r0, lsl #14
    3410:	1c020000 	stcne	0, cr0, [r2], {-0}
    3414:	00008b0e 	andeq	r8, r0, lr, lsl #22
    3418:	70040800 	andvc	r0, r4, r0, lsl #16
    341c:	05000000 	streq	r0, [r0, #-0]
    3420:	00000025 	andeq	r0, r0, r5, lsr #32
    3424:	000000a0 	andeq	r0, r0, r0, lsr #1
    3428:	0000a006 	andeq	sl, r0, r6
    342c:	04080000 	streq	r0, [r8], #-0
    3430:	000000ad 	andeq	r0, r0, sp, lsr #1
    3434:	79080104 	stmdbvc	r8, {r2, r8}
    3438:	03000000 	movweq	r0, #0
    343c:	000000a6 	andeq	r0, r0, r6, lsr #1
    3440:	00067907 	andeq	r7, r6, r7, lsl #18
    3444:	0e210200 	cdpeq	2, 2, cr0, cr1, cr0, {0}
    3448:	000000be 	strheq	r0, [r0], -lr
    344c:	00910408 	addseq	r0, r1, r8, lsl #8
    3450:	3b090000 	blcc	243458 <__bss_end__+0x238190>
    3454:	01000008 	tsteq	r0, r8
    3458:	0031110d 	eorseq	r1, r1, sp, lsl #2
    345c:	460a0000 	strmi	r0, [sl], -r0
    3460:	01000007 	tsteq	r0, r7
    3464:	9bbc061f 	blls	fef04ce8 <__bss_end__+0xfeef9a20>
    3468:	00600000 	rsbeq	r0, r0, r0
    346c:	9c010000 	stcls	0, cr0, [r1], {-0}
    3470:	000001d5 	ldrdeq	r0, [r0], -r5
    3474:	00085f0b 	andeq	r5, r8, fp, lsl #30
    3478:	0f2c0100 	svceq	0x002c0100
    347c:	0000002c 	andeq	r0, r0, ip, lsr #32
    3480:	2010001c 	andscs	r0, r0, ip, lsl r0
    3484:	0008000b 	andeq	r0, r8, fp
    3488:	0f2d0100 	svceq	0x002d0100
    348c:	0000002c 	andeq	r0, r0, ip, lsr #32
    3490:	20100024 	andscs	r0, r0, r4, lsr #32
    3494:	00082c0b 	andeq	r2, r8, fp, lsl #24
    3498:	0f2e0100 	svceq	0x002e0100
    349c:	0000002c 	andeq	r0, r0, ip, lsr #32
    34a0:	5a000000 	bpl	34a8 <__code_start__-0x4b58>
    34a4:	0008460c 	andeq	r4, r8, ip, lsl #12
    34a8:	0f2f0100 	svceq	0x002f0100
    34ac:	0000002c 	andeq	r0, r0, ip, lsr #32
    34b0:	01ef0d20 	mvneq	r0, r0, lsr #26
    34b4:	9bbc0000 	blls	fef034bc <__bss_end__+0xfeef81f4>
    34b8:	08020000 	stmdaeq	r2, {}	; <UNPREDICTABLE>
    34bc:	01000003 	tsteq	r0, r3
    34c0:	014c0820 	cmpeq	ip, r0, lsr #16
    34c4:	080e0000 	stmdaeq	lr, {}	; <UNPREDICTABLE>
    34c8:	0f000003 	svceq	0x00000003
    34cc:	00000200 	andeq	r0, r0, r0, lsl #4
    34d0:	000024f2 	strdeq	r2, [r0], -r2	; <UNPREDICTABLE>
    34d4:	000024ee 	andeq	r2, r0, lr, ror #9
    34d8:	d5100000 	ldrle	r0, [r0, #-0]
    34dc:	d0000001 	andle	r0, r0, r1
    34e0:	0100009b 	swpeq	r0, fp, [r0]	; <UNPREDICTABLE>
    34e4:	00009bd0 	ldrdeq	r9, [r0], -r0
    34e8:	00000010 	andeq	r0, r0, r0, lsl r0
    34ec:	73092101 	movwvc	r2, #37121	; 0x9101
    34f0:	0f000001 	svceq	0x00000001
    34f4:	000001e2 	andeq	r0, r0, r2, ror #3
    34f8:	00002519 	andeq	r2, r0, r9, lsl r5
    34fc:	00002511 	andeq	r2, r0, r1, lsl r5
    3500:	9be41100 	blls	ff907908 <__bss_end__+0xff8fc640>
    3504:	024f0000 	subeq	r0, pc, #0, 0
    3508:	e8110000 	ldmda	r1, {}	; <UNPREDICTABLE>
    350c:	5c00009b 	stcpl	0, cr0, [r0], {155}	; 0x9b
    3510:	12000002 	andne	r0, r0, #2, 0
    3514:	00009bf0 	strdeq	r9, [r0], -r0
    3518:	00000268 	andeq	r0, r0, r8, ror #4
    351c:	00000198 	muleq	r0, r8, r1
    3520:	01500113 	cmpeq	r0, r3, lsl r1
    3524:	fc12003a 	ldc2	0, cr0, [r2], {58}	; 0x3a
    3528:	7400009b 	strvc	r0, [r0], #-155	; 0xffffff65
    352c:	b8000002 	stmdalt	r0, {r1}
    3530:	13000001 	movwne	r0, #1
    3534:	0c055001 	stceq	0, cr5, [r5], {1}
    3538:	20100024 	andscs	r0, r0, r4, lsr #32
    353c:	05510113 	ldrbeq	r0, [r1, #-275]	; 0xfffffeed
    3540:	0000010c 	andeq	r0, r0, ip, lsl #2
    3544:	0814005a 	ldmdaeq	r4, {r1, r3, r4, r6}
    3548:	7400009c 	strvc	r0, [r0], #-156	; 0xffffff64
    354c:	13000002 	movwne	r0, #2
    3550:	0c055001 	stceq	0, cr5, [r5], {1}
    3554:	2010001c 	andscs	r0, r0, ip, lsl r0
    3558:	05510113 	ldrbeq	r0, [r1, #-275]	; 0xfffffeed
    355c:	0000200c 	andeq	r2, r0, ip
    3560:	1500005a 	strne	r0, [r0, #-90]	; 0xffffffa6
    3564:	00000808 	andeq	r0, r0, r8, lsl #16
    3568:	01061701 	tsteq	r6, r1, lsl #14
    356c:	000001ef 	andeq	r0, r0, pc, ror #3
    3570:	00086709 	andeq	r6, r8, r9, lsl #14
    3574:	0e180100 	mufeqe	f0, f0, f0
    3578:	00000031 	andeq	r0, r0, r1, lsr r0
    357c:	08381600 	ldmdaeq	r8!, {r9, sl, ip}
    3580:	0e010000 	cdpeq	0, 0, cr0, cr1, cr0, {0}
    3584:	00002505 	andeq	r2, r0, r5, lsl #10
    3588:	020d0100 	andeq	r0, sp, #0
    358c:	67090000 	strvs	r0, [r9, -r0]
    3590:	01000008 	tsteq	r0, r8
    3594:	00310e0f 	eorseq	r0, r1, pc, lsl #28
    3598:	17000000 	strne	r0, [r0, -r0]
    359c:	000001ef 	andeq	r0, r0, pc, ror #3
    35a0:	00009b90 	muleq	r0, r0, fp
    35a4:	00000018 	andeq	r0, r0, r8, lsl r0
    35a8:	022e9c01 	eoreq	r9, lr, #256	; 0x100
    35ac:	000f0000 	andeq	r0, pc, r0
    35b0:	56000002 	strpl	r0, [r0], -r2
    35b4:	52000025 	andpl	r0, r0, #37, 0	; 0x25
    35b8:	00000025 	andeq	r0, r0, r5, lsr #32
    35bc:	0001d517 	andeq	sp, r1, r7, lsl r5
    35c0:	009ba800 	addseq	sl, fp, r0, lsl #16
    35c4:	00001400 	andeq	r1, r0, r0, lsl #8
    35c8:	4f9c0100 	svcmi	0x009c0100
    35cc:	0f000002 	svceq	0x00000002
    35d0:	000001e2 	andeq	r0, r0, r2, ror #3
    35d4:	0000257d 	andeq	r2, r0, sp, ror r5
    35d8:	00002575 	andeq	r2, r0, r5, ror r5
    35dc:	07f11800 	ldrbeq	r1, [r1, r0, lsl #16]!
    35e0:	07f10000 	ldrbeq	r0, [r1, r0]!
    35e4:	36020000 	strcc	r0, [r2], -r0
    35e8:	75190601 	ldrvc	r0, [r9, #-1537]	; 0xfffff9ff
    35ec:	75000007 	strvc	r0, [r0, #-7]
    35f0:	02000007 	andeq	r0, r0, #7, 0
    35f4:	5119064d 	tstpl	r9, sp, asr #12
    35f8:	51000007 	tstpl	r0, r7
    35fc:	02000007 	andeq	r0, r0, #7, 0
    3600:	23190658 	tstcs	r9, #88, 12	; 0x5800000
    3604:	23000000 	movwcs	r0, #0
    3608:	02000000 	andeq	r0, r0, #0, 0
    360c:	3f0006ad 	svccc	0x000006ad
    3610:	04000005 	streq	r0, [r0], #-5
    3614:	0013fa00 	andseq	pc, r3, r0, lsl #20
    3618:	13010400 	movwne	r0, #5120	; 0x1400
    361c:	0c000005 	stceq	0, cr0, [r0], {5}
    3620:	00000882 	andeq	r0, r0, r2, lsl #17
    3624:	000005d9 	ldrdeq	r0, [r0], -r9
    3628:	00009c1c 	andeq	r9, r0, ip, lsl ip
    362c:	0000011c 	andeq	r0, r0, ip, lsl r1
    3630:	00001e1c 	andeq	r1, r0, ip, lsl lr
    3634:	69050402 	stmdbvs	r5, {r1, sl}
    3638:	0300746e 	movweq	r7, #1134	; 0x46e
    363c:	01710704 	cmneq	r1, r4, lsl #14
    3640:	01030000 	mrseq	r0, (UNDEF: 3)
    3644:	00007206 	andeq	r7, r0, r6, lsl #4
    3648:	05020300 	streq	r0, [r2, #-768]	; 0xfffffd00
    364c:	00000000 	andeq	r0, r0, r0
    3650:	33050403 	movwcc	r0, #21507	; 0x5403
    3654:	03000000 	movweq	r0, #0
    3658:	002e0508 	eoreq	r0, lr, r8, lsl #10
    365c:	01030000 	mrseq	r0, (UNDEF: 3)
    3660:	00007008 	andeq	r7, r0, r8
    3664:	07020300 	streq	r0, [r2, -r0, lsl #6]
    3668:	000001b8 			; <UNDEFINED> instruction: 0x000001b8
    366c:	6c070403 	cfstrsvs	mvf0, [r7], {3}
    3670:	03000001 	movweq	r0, #1
    3674:	01670708 	cmneq	r7, r8, lsl #14
    3678:	25040000 	strcs	r0, [r4, #-0]
    367c:	7a000000 	bvc	3684 <__code_start__-0x497c>
    3680:	05000000 	streq	r0, [r0, #-0]
    3684:	00000025 	andeq	r0, r0, r5, lsr #32
    3688:	000a0600 	andeq	r0, sl, r0, lsl #12
    368c:	1c020000 	stcne	0, cr0, [r2], {-0}
    3690:	0000860e 	andeq	r8, r0, lr, lsl #12
    3694:	6b040700 	blvs	10529c <__bss_end__+0xf9fd4>
    3698:	04000000 	streq	r0, [r0], #-0
    369c:	00000025 	andeq	r0, r0, r5, lsr #32
    36a0:	0000009b 	muleq	r0, fp, r0
    36a4:	00009b05 	andeq	r9, r0, r5, lsl #22
    36a8:	04070000 	streq	r0, [r7], #-0
    36ac:	000000a8 	andeq	r0, r0, r8, lsr #1
    36b0:	79080103 	stmdbvc	r8, {r0, r1, r8}
    36b4:	08000000 	stmdaeq	r0, {}	; <UNPREDICTABLE>
    36b8:	000000a1 	andeq	r0, r0, r1, lsr #1
    36bc:	00067906 	andeq	r7, r6, r6, lsl #18
    36c0:	0e210200 	cdpeq	2, 2, cr0, cr1, cr0, {0}
    36c4:	000000b9 	strheq	r0, [r0], -r9
    36c8:	008c0407 	addeq	r0, ip, r7, lsl #8
    36cc:	78090000 	stmdavc	r9, {}	; <UNPREDICTABLE>
    36d0:	01000008 	tsteq	r0, r8
    36d4:	9ce4061e 	stclls	6, cr0, [r4], #120	; 0x78
    36d8:	00540000 	subseq	r0, r4, r0
    36dc:	9c010000 	stcls	0, cr0, [r1], {-0}
    36e0:	0000020b 	andeq	r0, r0, fp, lsl #4
    36e4:	6365730a 	cmnvs	r5, #671088640	; 0x28000000
    36e8:	191e0100 	ldmdbne	lr, {r8}
    36ec:	0000002c 	andeq	r0, r0, ip, lsr #32
    36f0:	000025ba 			; <UNDEFINED> instruction: 0x000025ba
    36f4:	000025b6 			; <UNDEFINED> instruction: 0x000025b6
    36f8:	00020b0b 	andeq	r0, r2, fp, lsl #22
    36fc:	009ce400 	addseq	lr, ip, r0, lsl #8
    3700:	03e80200 	mvneq	r0, #0, 4
    3704:	1f010000 	svcne	0x00010000
    3708:	02180c05 	andseq	r0, r8, #1280	; 0x500
    370c:	25df0000 	ldrbcs	r0, [pc]	; 3714 <__code_start__-0x48ec>
    3710:	25db0000 	ldrbcs	r0, [fp]
    3714:	240d0000 	strcs	r0, [sp], #-0
    3718:	f8000002 			; <UNDEFINED> instruction: 0xf8000002
    371c:	0000009c 	muleq	r0, ip, r0
    3720:	00009cf8 	strdeq	r9, [r0], -r8
    3724:	00000040 	andeq	r0, r0, r0, asr #32
    3728:	0c051c01 	stceq	12, cr1, [r5], {1}
    372c:	00000231 	andeq	r0, r0, r1, lsr r2
    3730:	0000260c 	andeq	r2, r0, ip, lsl #12
    3734:	0000260a 	andeq	r2, r0, sl, lsl #12
    3738:	00023c0e 	andeq	r3, r2, lr, lsl #24
    373c:	00262100 	eoreq	r2, r6, r0, lsl #2
    3740:	00261f00 	eoreq	r1, r6, r0, lsl #30
    3744:	02550f00 	subseq	r0, r5, #0, 30
    3748:	9cf80000 	ldclls	0, cr0, [r8]
    374c:	f8020000 			; <UNDEFINED> instruction: 0xf8020000
    3750:	1400009c 	strne	r0, [r0], #-156	; 0xffffff64
    3754:	01000000 	mrseq	r0, (UNDEF: 0)
    3758:	019c1313 	orrseq	r1, ip, r3, lsl r3
    375c:	660e0000 	strvs	r0, [lr], -r0
    3760:	38000002 	stmdacc	r0, {r1}
    3764:	34000026 	strcc	r0, [r0], #-38	; 0xffffffda
    3768:	0f000026 	svceq	0x00000026
    376c:	00000271 	andeq	r0, r0, r1, ror r2
    3770:	00009cfc 	strdeq	r9, [r0], -ip
    3774:	009cfc01 	addseq	pc, ip, r1, lsl #24
    3778:	00000c00 	andeq	r0, r0, r0, lsl #24
    377c:	120d0100 	andne	r0, sp, #0
    3780:	00000189 	andeq	r0, r0, r9, lsl #3
    3784:	009d0410 	addseq	r0, sp, r0, lsl r4
    3788:	00052a00 	andeq	r2, r5, r0, lsl #20
    378c:	50011100 	andpl	r1, r1, r0, lsl #2
    3790:	30040c05 	andcc	r0, r4, r5, lsl #24
    3794:	00002000 	andeq	r2, r0, r0
    3798:	009cfc12 	addseq	pc, ip, r2, lsl ip	; <UNPREDICTABLE>
    379c:	00053600 	andeq	r3, r5, r0, lsl #12
    37a0:	9d0c1200 	sfmls	f1, 4, [ip, #-0]
    37a4:	05360000 	ldreq	r0, [r6, #-0]!
    37a8:	13000000 	movwne	r0, #0
    37ac:	00000247 	andeq	r0, r0, r7, asr #4
    37b0:	00000400 	andeq	r0, r0, r0, lsl #8
    37b4:	00024814 	andeq	r4, r2, r4, lsl r8
    37b8:	02550b00 	subseq	r0, r5, #0, 22
    37bc:	9d100000 	ldcls	0, cr0, [r0, #-0]
    37c0:	18020000 	stmdane	r2, {}	; <UNPREDICTABLE>
    37c4:	01000004 	tsteq	r0, r4
    37c8:	18151715 	ldmdane	r5, {r0, r2, r4, r8, r9, sl, ip}
    37cc:	0e000004 	cdpeq	0, 0, cr0, cr0, cr4, {0}
    37d0:	00000266 	andeq	r0, r0, r6, ror #4
    37d4:	00002658 	andeq	r2, r0, r8, asr r6
    37d8:	00002656 	andeq	r2, r0, r6, asr r6
    37dc:	00027116 	andeq	r7, r2, r6, lsl r1
    37e0:	009d1400 	addseq	r1, sp, r0, lsl #8
    37e4:	04380100 	ldrteq	r0, [r8], #-256	; 0xffffff00
    37e8:	0d010000 	stceq	0, cr0, [r1, #-0]
    37ec:	0001f312 	andeq	pc, r1, r2, lsl r3	; <UNPREDICTABLE>
    37f0:	9d1c1000 	ldcls	0, cr1, [ip, #-0]
    37f4:	052a0000 	streq	r0, [sl, #-0]!
    37f8:	01110000 	tsteq	r1, r0
    37fc:	00770250 	rsbseq	r0, r7, r0, asr r2
    3800:	14120000 	ldrne	r0, [r2], #-0
    3804:	3600009d 			; <UNDEFINED> instruction: 0x3600009d
    3808:	12000005 	andne	r0, r0, #5, 0
    380c:	00009d28 	andeq	r9, r0, r8, lsr #26
    3810:	00000536 	andeq	r0, r0, r6, lsr r5
    3814:	00000000 	andeq	r0, r0, r0
    3818:	51170000 	tstpl	r7, r0
    381c:	01000007 	tsteq	r0, r7
    3820:	2401061b 	strcs	r0, [r1], #-1563	; 0xfffff9e5
    3824:	18000002 	stmdane	r0, {r1}
    3828:	0100736d 	tsteq	r0, sp, ror #6
    382c:	002c181b 	eoreq	r1, ip, fp, lsl r8
    3830:	17000000 	strne	r0, [r0, -r0]
    3834:	000008ab 	andeq	r0, r0, fp, lsr #17
    3838:	01061201 	tsteq	r6, r1, lsl #4
    383c:	00000255 	andeq	r0, r0, r5, asr r2
    3840:	00737518 	rsbseq	r7, r3, r8, lsl r5
    3844:	2c181201 	lfmcs	f1, 4, [r8], {1}
    3848:	19000000 	stmdbne	r0, {}	; <UNPREDICTABLE>
    384c:	01006272 	tsteq	r0, r2, ror r2
    3850:	002c0e13 	eoreq	r0, ip, r3, lsl lr
    3854:	191a0000 	ldmdbne	sl, {}	; <UNPREDICTABLE>
    3858:	01006172 	tsteq	r0, r2, ror r1
    385c:	002c1215 	eoreq	r1, ip, r5, lsl r2
    3860:	00000000 	andeq	r0, r0, r0
    3864:	00089c1b 	andeq	r9, r8, fp, lsl ip
    3868:	0a090100 	beq	243c70 <__bss_end__+0x2389a8>
    386c:	0000002c 	andeq	r0, r0, ip, lsr #32
    3870:	00027101 	andeq	r7, r2, r1, lsl #2
    3874:	00751900 	rsbseq	r1, r5, r0, lsl #18
    3878:	2c0e0d01 	stccs	13, cr0, [lr], {1}
    387c:	00000000 	andeq	r0, r0, r0
    3880:	0008b41c 	andeq	fp, r8, ip, lsl r4
    3884:	0a040100 	beq	103c8c <__bss_end__+0xf89c4>
    3888:	0000002c 	andeq	r0, r0, ip, lsr #32
    388c:	02711d01 	rsbseq	r1, r1, #64	; 0x40
    3890:	9c1c0000 	ldcls	0, cr0, [ip], {-0}
    3894:	000c0000 	andeq	r0, ip, r0
    3898:	9c010000 	stcls	0, cr0, [r1], {-0}
    389c:	000002a5 	andeq	r0, r0, r5, lsr #5
    38a0:	009c241e 	addseq	r2, ip, lr, lsl r4
    38a4:	00052a00 	andeq	r2, r5, r0, lsl #20
    38a8:	50011100 	andpl	r1, r1, r0, lsl #2
    38ac:	30040c05 	andcc	r0, r4, r5, lsl #24
    38b0:	00002000 	andeq	r2, r0, r0
    38b4:	0002551d 	andeq	r5, r2, sp, lsl r5
    38b8:	009c2800 	addseq	r2, ip, r0, lsl #16
    38bc:	00002400 	andeq	r2, r0, r0, lsl #8
    38c0:	059c0100 	ldreq	r0, [ip, #256]	; 0x100
    38c4:	0e000003 	cdpeq	0, 0, cr0, cr0, cr3, {0}
    38c8:	00000266 	andeq	r0, r0, r6, ror #4
    38cc:	0000266f 	andeq	r2, r0, pc, ror #12
    38d0:	0000266b 	andeq	r2, r0, fp, ror #12
    38d4:	0002710f 	andeq	r7, r2, pc, lsl #2
    38d8:	009c3000 	addseq	r3, ip, r0
    38dc:	9c300100 	ldflss	f0, [r0], #-0
    38e0:	000c0000 	andeq	r0, ip, r0
    38e4:	0d010000 	stceq	0, cr0, [r1, #-0]
    38e8:	0002f212 	andeq	pc, r2, r2, lsl r2	; <UNPREDICTABLE>
    38ec:	9c381000 	ldcls	0, cr1, [r8], #-0
    38f0:	052a0000 	streq	r0, [sl, #-0]!
    38f4:	01110000 	tsteq	r1, r0
    38f8:	040c0550 	streq	r0, [ip], #-1360	; 0xfffffab0
    38fc:	00200030 	eoreq	r0, r0, r0, lsr r0
    3900:	9c301200 	lfmls	f1, 4, [r0], #-0
    3904:	05360000 	ldreq	r0, [r6, #-0]!
    3908:	40120000 	andsmi	r0, r2, r0
    390c:	3600009c 			; <UNDEFINED> instruction: 0x3600009c
    3910:	00000005 	andeq	r0, r0, r5
    3914:	0002241d 	andeq	r2, r2, sp, lsl r4
    3918:	009c4c00 	addseq	r4, ip, r0, lsl #24
    391c:	00004800 	andeq	r4, r0, r0, lsl #16
    3920:	079c0100 	ldreq	r0, [ip, r0, lsl #2]
    3924:	0c000004 	stceq	0, cr0, [r0], {4}
    3928:	00000231 	andeq	r0, r0, r1, lsr r2
    392c:	00002691 	muleq	r0, r1, r6
    3930:	0000268d 	andeq	r2, r0, sp, lsl #13
    3934:	00023c0e 	andeq	r3, r2, lr, lsl #24
    3938:	0026b100 	eoreq	fp, r6, r0, lsl #2
    393c:	0026af00 	eoreq	sl, r6, r0, lsl #30
    3940:	02551600 	subseq	r1, r5, #0, 12
    3944:	9c4c0000 	marls	acc0, r0, ip
    3948:	30020000 	andcc	r0, r2, r0
    394c:	01000003 	tsteq	r0, r3
    3950:	039a1313 	orrseq	r1, sl, #1275068416	; 0x4c000000
    3954:	30150000 	andscc	r0, r5, r0
    3958:	0e000003 	cdpeq	0, 0, cr0, cr0, cr3, {0}
    395c:	00000266 	andeq	r0, r0, r6, ror #4
    3960:	000026c8 	andeq	r2, r0, r8, asr #13
    3964:	000026c4 	andeq	r2, r0, r4, asr #13
    3968:	0002710f 	andeq	r7, r2, pc, lsl #2
    396c:	009c5800 	addseq	r5, ip, r0, lsl #16
    3970:	9c580100 	ldflse	f0, [r8], {-0}
    3974:	000c0000 	andeq	r0, ip, r0
    3978:	0d010000 	stceq	0, cr0, [r1, #-0]
    397c:	00038612 	andeq	r8, r3, r2, lsl r6
    3980:	9c601000 	stclls	0, cr1, [r0], #-0
    3984:	052a0000 	streq	r0, [sl, #-0]!
    3988:	01110000 	tsteq	r1, r0
    398c:	040c0550 	streq	r0, [ip], #-1360	; 0xfffffab0
    3990:	00200030 	eoreq	r0, r0, r0, lsr r0
    3994:	9c581200 	lfmls	f1, 2, [r8], {-0}
    3998:	05360000 	ldreq	r0, [r6, #-0]!
    399c:	68120000 	ldmdavs	r2, {}	; <UNPREDICTABLE>
    39a0:	3600009c 			; <UNDEFINED> instruction: 0x3600009c
    39a4:	00000005 	andeq	r0, r0, r5
    39a8:	02471300 	subeq	r1, r7, #0, 6
    39ac:	03480000 	movteq	r0, #32768	; 0x8000
    39b0:	48140000 	ldmdami	r4, {}	; <UNPREDICTABLE>
    39b4:	0b000002 	bleq	39c4 <__code_start__-0x463c>
    39b8:	00000255 	andeq	r0, r0, r5, asr r2
    39bc:	00009c6c 	andeq	r9, r0, ip, ror #24
    39c0:	00036002 	andeq	r6, r3, r2
    39c4:	17150100 	ldrne	r0, [r5, -r0, lsl #2]
    39c8:	00036015 	andeq	r6, r3, r5, lsl r0
    39cc:	02660e00 	rsbeq	r0, r6, #0, 28
    39d0:	26e80000 	strbtcs	r0, [r8], r0
    39d4:	26e60000 	strbtcs	r0, [r6], r0
    39d8:	71160000 	tstvc	r6, r0
    39dc:	70000002 	andvc	r0, r0, r2
    39e0:	0100009c 	swpeq	r0, ip, [r0]	; <UNPREDICTABLE>
    39e4:	00000380 	andeq	r0, r0, r0, lsl #7
    39e8:	f1120d01 			; <UNDEFINED> instruction: 0xf1120d01
    39ec:	10000003 	andne	r0, r0, r3
    39f0:	00009c78 	andeq	r9, r0, r8, ror ip
    39f4:	0000052a 	andeq	r0, r0, sl, lsr #10
    39f8:	02500111 	subseq	r0, r0, #1073741828	; 0x40000004
    39fc:	00000077 	andeq	r0, r0, r7, ror r0
    3a00:	009c7012 	addseq	r7, ip, r2, lsl r0
    3a04:	00053600 	andeq	r3, r5, r0, lsl #12
    3a08:	9c841200 	sfmls	f1, 4, [r4], {0}
    3a0c:	05360000 	ldreq	r0, [r6, #-0]!
    3a10:	00000000 	andeq	r0, r0, r0
    3a14:	0b1d0000 	bleq	743a1c <__bss_end__+0x738754>
    3a18:	94000002 	strls	r0, [r0], #-2
    3a1c:	5000009c 	mulpl	r0, ip, r0
    3a20:	01000000 	mrseq	r0, (UNDEF: 0)
    3a24:	00052a9c 	muleq	r5, ip, sl
    3a28:	02180c00 	andseq	r0, r8, #0, 24
    3a2c:	26ff0000 	ldrbtcs	r0, [pc], r0
    3a30:	26fb0000 	ldrbtcs	r0, [fp], r0
    3a34:	240d0000 	strcs	r0, [sp], #-0
    3a38:	a4000002 	strge	r0, [r0], #-2
    3a3c:	0000009c 	muleq	r0, ip, r0
    3a40:	00009ca4 	andeq	r9, r0, r4, lsr #25
    3a44:	00000040 	andeq	r0, r0, r0, asr #32
    3a48:	0c051c01 	stceq	12, cr1, [r5], {1}
    3a4c:	00000231 	andeq	r0, r0, r1, lsr r2
    3a50:	00002722 	andeq	r2, r0, r2, lsr #14
    3a54:	00002720 	andeq	r2, r0, r0, lsr #14
    3a58:	00023c0e 	andeq	r3, r2, lr, lsl #24
    3a5c:	00273700 	eoreq	r3, r7, r0, lsl #14
    3a60:	00273500 	eoreq	r3, r7, r0, lsl #10
    3a64:	02550f00 	subseq	r0, r5, #0, 30
    3a68:	9ca40000 	stcls	0, cr0, [r4]
    3a6c:	a4020000 	strge	r0, [r2], #-0
    3a70:	1400009c 	strne	r0, [r0], #-156	; 0xffffff64
    3a74:	01000000 	mrseq	r0, (UNDEF: 0)
    3a78:	04bc1313 	ldrteq	r1, [ip], #787	; 0x313
    3a7c:	660e0000 	strvs	r0, [lr], -r0
    3a80:	4e000002 	cdpmi	0, 0, cr0, cr0, cr2, {0}
    3a84:	4a000027 	bmi	3b28 <__code_start__-0x44d8>
    3a88:	0f000027 	svceq	0x00000027
    3a8c:	00000271 	andeq	r0, r0, r1, ror r2
    3a90:	00009ca8 	andeq	r9, r0, r8, lsr #25
    3a94:	009ca801 	addseq	sl, ip, r1, lsl #16
    3a98:	00000c00 	andeq	r0, r0, r0, lsl #24
    3a9c:	120d0100 	andne	r0, sp, #0
    3aa0:	000004a9 	andeq	r0, r0, r9, lsr #9
    3aa4:	009cb010 	addseq	fp, ip, r0, lsl r0
    3aa8:	00052a00 	andeq	r2, r5, r0, lsl #20
    3aac:	50011100 	andpl	r1, r1, r0, lsl #2
    3ab0:	30040c05 	andcc	r0, r4, r5, lsl #24
    3ab4:	00002000 	andeq	r2, r0, r0
    3ab8:	009ca812 	addseq	sl, ip, r2, lsl r8
    3abc:	00053600 	andeq	r3, r5, r0, lsl #12
    3ac0:	9cb81200 	lfmls	f1, 4, [r8]
    3ac4:	05360000 	ldreq	r0, [r6, #-0]!
    3ac8:	13000000 	movwne	r0, #0
    3acc:	00000247 	andeq	r0, r0, r7, asr #4
    3ad0:	00000398 	muleq	r0, r8, r3
    3ad4:	00024814 	andeq	r4, r2, r4, lsl r8
    3ad8:	02550b00 	subseq	r0, r5, #0, 22
    3adc:	9cbc0000 	ldcls	0, cr0, [ip]
    3ae0:	b0020000 	andlt	r0, r2, r0
    3ae4:	01000003 	tsteq	r0, r3
    3ae8:	b0151715 	andslt	r1, r5, r5, lsl r7
    3aec:	0e000003 	cdpeq	0, 0, cr0, cr0, cr3, {0}
    3af0:	00000266 	andeq	r0, r0, r6, ror #4
    3af4:	0000276e 	andeq	r2, r0, lr, ror #14
    3af8:	0000276c 	andeq	r2, r0, ip, ror #14
    3afc:	00027116 	andeq	r7, r2, r6, lsl r1
    3b00:	009cc000 	addseq	ip, ip, r0
    3b04:	03d00100 	bicseq	r0, r0, #0
    3b08:	0d010000 	stceq	0, cr0, [r1, #-0]
    3b0c:	00051312 	andeq	r1, r5, r2, lsl r3
    3b10:	9cc81000 	stclls	0, cr1, [r8], {0}
    3b14:	052a0000 	streq	r0, [sl, #-0]!
    3b18:	01110000 	tsteq	r1, r0
    3b1c:	00770250 	rsbseq	r0, r7, r0, asr r2
    3b20:	c0120000 	andsgt	r0, r2, r0
    3b24:	3600009c 			; <UNDEFINED> instruction: 0x3600009c
    3b28:	12000005 	andne	r0, r0, #5, 0
    3b2c:	00009cd4 	ldrdeq	r9, [r0], -r4
    3b30:	00000536 	andeq	r0, r0, r6, lsr r5
    3b34:	00000000 	andeq	r0, r0, r0
    3b38:	08961f00 	ldmeq	r6, {r8, r9, sl, fp, ip}
    3b3c:	08960000 	ldmeq	r6, {}	; <UNPREDICTABLE>
    3b40:	c2020000 	andgt	r0, r2, #0, 0
    3b44:	086c1f0a 	stmdaeq	ip!, {r1, r3, r8, r9, sl, fp, ip}^
    3b48:	086c0000 	stmdaeq	ip!, {}^	; <UNPREDICTABLE>
    3b4c:	9c020000 	stcls	0, cr0, [r2], {-0}
    3b50:	05cd0006 	strbeq	r0, [sp, #6]
    3b54:	00040000 	andeq	r0, r4, r0
    3b58:	000015c9 	andeq	r1, r0, r9, asr #11
    3b5c:	09c70104 	stmibeq	r7, {r2, r8}^
    3b60:	060c0000 	streq	r0, [ip], -r0
    3b64:	77000009 	strvc	r0, [r0, -r9]
    3b68:	38000009 	stmdacc	r0, {r0, r3}
    3b6c:	f000009d 			; <UNDEFINED> instruction: 0xf000009d
    3b70:	1a000001 	bne	3b7c <__code_start__-0x4484>
    3b74:	02000020 	andeq	r0, r0, #32, 0
    3b78:	6e690504 	cdpvs	5, 6, cr0, cr9, cr4, {0}
    3b7c:	04030074 	streq	r0, [r3], #-116	; 0xffffff8c
    3b80:	00017107 	andeq	r7, r1, r7, lsl #2
    3b84:	002c0400 	eoreq	r0, ip, r0, lsl #8
    3b88:	01030000 	mrseq	r0, (UNDEF: 3)
    3b8c:	00007206 	andeq	r7, r0, r6, lsl #4
    3b90:	05020300 	streq	r0, [r2, #-768]	; 0xfffffd00
    3b94:	00000000 	andeq	r0, r0, r0
    3b98:	33050403 	movwcc	r0, #21507	; 0x5403
    3b9c:	03000000 	movweq	r0, #0
    3ba0:	002e0508 	eoreq	r0, lr, r8, lsl #10
    3ba4:	01030000 	mrseq	r0, (UNDEF: 3)
    3ba8:	00007008 	andeq	r7, r0, r8
    3bac:	07020300 	streq	r0, [r2, -r0, lsl #6]
    3bb0:	000001b8 			; <UNDEFINED> instruction: 0x000001b8
    3bb4:	00017e05 	andeq	r7, r1, r5, lsl #28
    3bb8:	19340500 	ldmdbne	r4!, {r8, sl}
    3bbc:	0000006e 	andeq	r0, r0, lr, rrx
    3bc0:	6c070403 	cfstrsvs	mvf0, [r7], {3}
    3bc4:	03000001 	movweq	r0, #1
    3bc8:	01670708 	cmneq	r7, r8, lsl #14
    3bcc:	01030000 	mrseq	r0, (UNDEF: 3)
    3bd0:	00007908 	andeq	r7, r0, r8, lsl #18
    3bd4:	01070600 	tsteq	r7, r0, lsl #12
    3bd8:	00000054 	andeq	r0, r0, r4, asr r0
    3bdc:	c20e0c04 	andgt	r0, lr, #4, 24	; 0x400
    3be0:	07000000 	streq	r0, [r0, -r0]
    3be4:	00000ab1 			; <UNDEFINED> instruction: 0x00000ab1
    3be8:	08e90700 	stmiaeq	r9!, {r8, r9, sl}^
    3bec:	07010000 	streq	r0, [r1, -r0]
    3bf0:	0000092c 	andeq	r0, r0, ip, lsr #18
    3bf4:	093b0704 	ldmdbeq	fp!, {r2, r8, r9, sl}
    3bf8:	07050000 	streq	r0, [r5, -r0]
    3bfc:	0000094a 	andeq	r0, r0, sl, asr #18
    3c00:	09590706 	ldmdbeq	r9, {r1, r2, r8, r9, sl}^
    3c04:	07070000 	streq	r0, [r7, -r0]
    3c08:	00000a7a 	andeq	r0, r0, sl, ror sl
    3c0c:	09680703 	stmdbeq	r8!, {r0, r1, r8, r9, sl}^
    3c10:	00020000 	andeq	r0, r2, r0
    3c14:	0008fa08 	andeq	pc, r8, r8, lsl #20
    3c18:	06022c00 	streq	r2, [r2], -r0, lsl #24
    3c1c:	00015e08 	andeq	r5, r1, r8, lsl #28
    3c20:	6f690900 	svcvs	0x00690900
    3c24:	09090200 	stmdbeq	r9, {r9}
    3c28:	00000033 	andeq	r0, r0, r3, lsr r0
    3c2c:	65690900 	strbvs	r0, [r9, #-2304]!	; 0xfffff700
    3c30:	0a020072 	beq	83e00 <__bss_end__+0x78b38>
    3c34:	00003309 	andeq	r3, r0, r9, lsl #6
    3c38:	69090400 	stmdbvs	r9, {sl}
    3c3c:	02007269 	andeq	r7, r0, #-1879048186	; 0x90000006
    3c40:	00330911 	eorseq	r0, r3, r1, lsl r9
    3c44:	09080000 	stmdbeq	r8, {}	; <UNPREDICTABLE>
    3c48:	0072636c 	rsbseq	r6, r2, ip, ror #6
    3c4c:	33091302 	movwcc	r1, #37634	; 0x9302
    3c50:	0c000000 	stceq	0, cr0, [r0], {-0}
    3c54:	72636d09 	rsbvc	r6, r3, #576	; 0x240
    3c58:	09140200 	ldmdbeq	r4, {r9}
    3c5c:	00000033 	andeq	r0, r0, r3, lsr r0
    3c60:	736c0910 	cmnvc	ip, #16, 18	; 0x40000
    3c64:	15020072 	strne	r0, [r2, #-114]	; 0xffffff8e
    3c68:	00003309 	andeq	r3, r0, r9, lsl #6
    3c6c:	6d091400 	cfstrsvs	mvf1, [r9, #-0]
    3c70:	02007273 	andeq	r7, r0, #805306375	; 0x30000007
    3c74:	00330916 	eorseq	r0, r3, r6, lsl r9
    3c78:	0a180000 	beq	603c80 <__bss_end__+0x5f89b8>
    3c7c:	00000a91 	muleq	r0, r1, sl
    3c80:	33091702 	movwcc	r1, #38658	; 0x9702
    3c84:	1c000000 	stcne	0, cr0, [r0], {-0}
    3c88:	000a5a0a 	andeq	r5, sl, sl, lsl #20
    3c8c:	091b0200 	ldmdbeq	fp, {r9}
    3c90:	00000033 	andeq	r0, r0, r3, lsr r0
    3c94:	08d60a20 	ldmeq	r6, {r5, r9, fp}^
    3c98:	1d020000 	stcne	0, cr0, [r2, #-0]
    3c9c:	00003309 	andeq	r3, r0, r9, lsl #6
    3ca0:	ac0a2400 	cfstrsge	mvf2, [sl], {-0}
    3ca4:	02000009 	andeq	r0, r0, #9, 0
    3ca8:	0033091e 	eorseq	r0, r3, lr, lsl r9
    3cac:	00280000 	eoreq	r0, r8, r0
    3cb0:	0009b10b 	andeq	fp, r9, fp, lsl #2
    3cb4:	09080100 	stmdbeq	r8, {r8}
    3cb8:	00000174 	andeq	r0, r0, r4, ror r1
    3cbc:	20215004 	eorcs	r5, r1, r4
    3cc0:	0033040c 	eorseq	r0, r3, ip, lsl #8
    3cc4:	6e0d0000 	cdpvs	0, 0, cr0, cr13, cr0, {0}
    3cc8:	0b000001 	bleq	3cd4 <__code_start__-0x432c>
    3ccc:	00000a99 	muleq	r0, r9, sl
    3cd0:	8f232901 	svchi	0x00232901
    3cd4:	40000001 	andmi	r0, r0, r1
    3cd8:	0c202150 	stfeqs	f2, [r0], #-320	; 0xfffffec0
    3cdc:	0000c204 	andeq	ip, r0, r4, lsl #4
    3ce0:	01890d00 	orreq	r0, r9, r0, lsl #26
    3ce4:	750e0000 	strvc	r0, [lr, #-0]
    3ce8:	01000007 	tsteq	r0, r7
    3cec:	9ef006cc 	cdpls	6, 15, cr0, cr0, cr12, {6}
    3cf0:	00140000 	andseq	r0, r4, r0
    3cf4:	9c010000 	stcls	0, cr0, [r1], {-0}
    3cf8:	000001b4 			; <UNDEFINED> instruction: 0x000001b4
    3cfc:	009ef80f 	addseq	pc, lr, pc, lsl #16
    3d00:	0001b400 	andeq	fp, r1, r0, lsl #8
    3d04:	1b100000 	blne	403d0c <__bss_end__+0x3f8a44>
    3d08:	01000009 	tsteq	r0, r9
    3d0c:	002505b6 	strhteq	r0, [r5], -r6
    3d10:	9ed00000 	cdpls	0, 13, cr0, cr0, cr0, {0}
    3d14:	00200000 	eoreq	r0, r0, r0
    3d18:	9c010000 	stcls	0, cr0, [r1], {-0}
    3d1c:	000001eb 	andeq	r0, r0, fp, ror #3
    3d20:	009ed80f 	addseq	sp, lr, pc, lsl #16
    3d24:	0005a000 	andeq	sl, r5, r0
    3d28:	9ee01100 	cdpls	1, 14, cr1, cr0, cr0, {0}
    3d2c:	05ac0000 	streq	r0, [ip, #0]!
    3d30:	01120000 	tsteq	r2, r0
    3d34:	640c0550 	strvs	r0, [ip], #-1360	; 0xfffffab0
    3d38:	00202150 	eoreq	r2, r0, r0, asr r1
    3d3c:	0a6c1000 	beq	1b07d44 <__bss_end__+0x1afca7c>
    3d40:	b3010000 	movwlt	r0, #4096	; 0x1000
    3d44:	00002505 	andeq	r2, r0, r5, lsl #10
    3d48:	009ec000 	addseq	ip, lr, r0
    3d4c:	00001000 	andeq	r1, r0, r0
    3d50:	189c0100 	ldmne	ip, {r8}
    3d54:	0f000002 	svceq	0x00000002
    3d58:	00009ec8 	andeq	r9, r0, r8, asr #29
    3d5c:	000005a0 	andeq	r0, r0, r0, lsr #11
    3d60:	009ecc0f 	addseq	ip, lr, pc, lsl #24
    3d64:	00030900 	andeq	r0, r3, r0, lsl #18
    3d68:	a70e0000 	strge	r0, [lr, -r0]
    3d6c:	0100000a 	tsteq	r0, sl
    3d70:	9e9006ab 	cdpls	6, 9, cr0, cr0, cr11, {5}
    3d74:	00300000 	eorseq	r0, r0, r0
    3d78:	9c010000 	stcls	0, cr0, [r1], {-0}
    3d7c:	0000027c 	andeq	r0, r0, ip, ror r2
    3d80:	01006313 	tsteq	r0, r3, lsl r3
    3d84:	002c19ab 	eoreq	r1, ip, fp, lsr #19
    3d88:	27850000 	strcs	r0, [r5, r0]
    3d8c:	27810000 	strcs	r0, [r1, r0]
    3d90:	9c0f0000 	stcls	0, cr0, [pc], {-0}
    3d94:	a000009e 	mulge	r0, lr, r0
    3d98:	0f000005 	svceq	0x00000005
    3d9c:	00009ea0 	andeq	r9, r0, r0, lsr #29
    3da0:	000002db 	ldrdeq	r0, [r0], -fp
    3da4:	009eb414 	addseq	fp, lr, r4, lsl r4
    3da8:	0005b800 	andeq	fp, r5, r0, lsl #16
    3dac:	00027200 	andeq	r7, r2, r0, lsl #4
    3db0:	50011200 	andpl	r1, r1, r0, lsl #4
    3db4:	50400c05 	subpl	r0, r0, r5, lsl #24
    3db8:	01122021 	tsteq	r2, r1, lsr #32
    3dbc:	00740551 	rsbseq	r0, r4, r1, asr r5
    3dc0:	001aff08 	andseq	pc, sl, r8, lsl #30
    3dc4:	009eb80f 	addseq	fp, lr, pc, lsl #16
    3dc8:	0005a000 	andeq	sl, r5, r0
    3dcc:	bd100000 	ldclt	0, cr0, [r0, #-0]
    3dd0:	01000009 	tsteq	r0, r9
    3dd4:	002505a3 	eoreq	r0, r5, r3, lsr #11
    3dd8:	9e600000 	cdpls	0, 6, cr0, cr0, cr0, {0}
    3ddc:	00300000 	eorseq	r0, r0, r0
    3de0:	9c010000 	stcls	0, cr0, [r1], {-0}
    3de4:	000002db 	ldrdeq	r0, [r0], -fp
    3de8:	01006315 	tsteq	r0, r5, lsl r3
    3dec:	002509a7 	eoreq	r0, r5, r7, lsr #19
    3df0:	27a50000 	strcs	r0, [r5, r0]!
    3df4:	27a30000 	strcs	r0, [r3, r0]!
    3df8:	680f0000 	stmdavs	pc, {}	; <UNPREDICTABLE>
    3dfc:	a000009e 	mulge	r0, lr, r0
    3e00:	0f000005 	svceq	0x00000005
    3e04:	00009e6c 	andeq	r9, r0, ip, ror #28
    3e08:	00000309 	andeq	r0, r0, r9, lsl #6
    3e0c:	009e7c14 	addseq	r7, lr, r4, lsl ip
    3e10:	0005ac00 	andeq	sl, r5, r0, lsl #24
    3e14:	0002d100 	andeq	sp, r2, r0, lsl #2
    3e18:	50011200 	andpl	r1, r1, r0, lsl #4
    3e1c:	50400c05 	subpl	r0, r0, r5, lsl #24
    3e20:	0f002021 	svceq	0x00002021
    3e24:	00009e84 	andeq	r9, r0, r4, lsl #29
    3e28:	000005a0 	andeq	r0, r0, r0, lsr #11
    3e2c:	090d1000 	stmdbeq	sp, {ip}
    3e30:	94010000 	strls	r0, [r1], #-0
    3e34:	00002505 	andeq	r2, r0, r5, lsl #10
    3e38:	009e4000 	addseq	r4, lr, r0
    3e3c:	00002000 	andeq	r2, r0, r0
    3e40:	099c0100 	ldmibeq	ip, {r8}
    3e44:	11000003 	tstne	r0, r3
    3e48:	00009e4c 	andeq	r9, r0, ip, asr #28
    3e4c:	000005ac 	andeq	r0, r0, ip, lsr #11
    3e50:	05500112 	ldrbeq	r0, [r0, #-274]	; 0xfffffeee
    3e54:	2150640c 	cmpcs	r0, ip, lsl #8
    3e58:	10000020 	andne	r0, r0, r0, lsr #32
    3e5c:	000008db 	ldrdeq	r0, [r0], -fp
    3e60:	25058b01 	strcs	r8, [r5, #-2817]	; 0xfffff4ff
    3e64:	28000000 	stmdacs	r0, {}	; <UNPREDICTABLE>
    3e68:	1800009e 	stmdane	r0, {r1, r2, r3, r4, r7}
    3e6c:	01000000 	mrseq	r0, (UNDEF: 0)
    3e70:	0003379c 	muleq	r3, ip, r7
    3e74:	9e341100 	rsflss	f1, f4, f0
    3e78:	05ac0000 	streq	r0, [ip, #0]!
    3e7c:	01120000 	tsteq	r2, r0
    3e80:	640c0550 	strvs	r0, [ip], #-1360	; 0xfffffab0
    3e84:	00202150 	eoreq	r2, r0, r0, asr r1
    3e88:	07930e00 	ldreq	r0, [r3, r0, lsl #28]
    3e8c:	45010000 	strmi	r0, [r1, #-0]
    3e90:	009d7806 	addseq	r7, sp, r6, lsl #16
    3e94:	0000b000 	andeq	fp, r0, r0
    3e98:	849c0100 	ldrhi	r0, [ip], #256	; 0x100
    3e9c:	16000004 	strne	r0, [r0], -r4
    3ea0:	000008cd 	andeq	r0, r0, sp, asr #17
    3ea4:	620e7e01 	andvs	r7, lr, #1, 28
    3ea8:	0e000000 	cdpeq	0, 0, cr0, cr0, cr0, {0}
    3eac:	9d881401 	cfstrsls	mvf1, [r8, #4]
    3eb0:	05c40000 	strbeq	r0, [r4]
    3eb4:	03730000 	cmneq	r3, #0, 0
    3eb8:	01120000 	tsteq	r2, r0
    3ebc:	123e0150 	eorsne	r0, lr, #20
    3ec0:	32015101 	andcc	r5, r1, #1073741824	; 0x40000000
    3ec4:	9d941400 	cfldrsls	mvf1, [r4]
    3ec8:	05c40000 	strbeq	r0, [r4]
    3ecc:	038b0000 	orreq	r0, fp, #0, 0
    3ed0:	01120000 	tsteq	r2, r0
    3ed4:	123f0150 	eorsne	r0, pc, #20
    3ed8:	32015101 	andcc	r5, r1, #1073741824	; 0x40000000
    3edc:	9d980f00 	ldcls	15, cr0, [r8]
    3ee0:	05a00000 	streq	r0, [r0, #0]!
    3ee4:	a4140000 	ldrge	r0, [r4], #-0
    3ee8:	3d00009d 	stccc	0, cr0, [r0, #-628]	; 0xfffffd8c
    3eec:	b0000005 	andlt	r0, r0, r5
    3ef0:	12000003 	andne	r0, r0, #3, 0
    3ef4:	0c055001 	stceq	0, cr5, [r5], {1}
    3ef8:	20215004 	eorcs	r5, r1, r4
    3efc:	01510112 	cmpeq	r1, r2, lsl r1
    3f00:	a80f0031 	stmdage	pc, {r0, r4, r5}	; <UNPREDICTABLE>
    3f04:	a000009d 	mulge	r0, sp, r0
    3f08:	14000005 	strne	r0, [r0], #-5
    3f0c:	00009db8 			; <UNDEFINED> instruction: 0x00009db8
    3f10:	000005b8 			; <UNDEFINED> instruction: 0x000005b8
    3f14:	000003d2 	ldrdeq	r0, [r0], -r2
    3f18:	02500112 	subseq	r0, r0, #-2147483644	; 0x80000004
    3f1c:	01120074 	tsteq	r2, r4, ror r0
    3f20:	00300151 	eorseq	r0, r0, r1, asr r1
    3f24:	009dc414 	addseq	ip, sp, r4, lsl r4
    3f28:	0005b800 	andeq	fp, r5, r0, lsl #16
    3f2c:	0003ee00 	andeq	lr, r3, r0, lsl #28
    3f30:	50011200 	andpl	r1, r1, r0, lsl #4
    3f34:	50440c05 	subpl	r0, r4, r5, lsl #24
    3f38:	01122021 	tsteq	r2, r1, lsr #32
    3f3c:	00300151 	eorseq	r0, r0, r1, asr r1
    3f40:	009dd014 	addseq	sp, sp, r4, lsl r0
    3f44:	0005b800 	andeq	fp, r5, r0, lsl #16
    3f48:	00040a00 	andeq	r0, r4, r0, lsl #20
    3f4c:	50011200 	andpl	r1, r1, r0, lsl #4
    3f50:	504c0c05 	subpl	r0, ip, r5, lsl #24
    3f54:	01122021 	tsteq	r2, r1, lsr #32
    3f58:	00330151 	eorseq	r0, r3, r1, asr r1
    3f5c:	009ddc14 	addseq	sp, sp, r4, lsl ip
    3f60:	0005b800 	andeq	fp, r5, r0, lsl #16
    3f64:	00042600 	andeq	r2, r4, r0, lsl #12
    3f68:	50011200 	andpl	r1, r1, r0, lsl #4
    3f6c:	50500c05 	subspl	r0, r0, r5, lsl #24
    3f70:	01122021 	tsteq	r2, r1, lsr #32
    3f74:	00300151 	eorseq	r0, r0, r1, asr r1
    3f78:	009de814 	addseq	lr, sp, r4, lsl r8
    3f7c:	0005b800 	andeq	fp, r5, r0, lsl #16
    3f80:	00044300 	andeq	r4, r4, r0, lsl #6
    3f84:	50011200 	andpl	r1, r1, r0, lsl #4
    3f88:	50480c05 	subpl	r0, r8, r5, lsl #24
    3f8c:	01122021 	tsteq	r2, r1, lsr #32
    3f90:	c7080251 	smlsdgt	r8, r1, r2, r0
    3f94:	9df41400 	cfldrdls	mvd1, [r4]
    3f98:	05b80000 	ldreq	r0, [r8, #0]!
    3f9c:	04610000 	strbteq	r0, [r1], #-0
    3fa0:	01120000 	tsteq	r2, r0
    3fa4:	680c0550 	stmdavs	ip, {r4, r6, r8, sl}
    3fa8:	12202150 	eorne	r2, r0, #20
    3fac:	0a035101 	beq	d83b8 <__bss_end__+0xcd0f0>
    3fb0:	1400010e 	strne	r0, [r0], #-270	; 0xfffffef2
    3fb4:	00009e00 	andeq	r9, r0, r0, lsl #28
    3fb8:	000005b8 			; <UNDEFINED> instruction: 0x000005b8
    3fbc:	0000047a 	andeq	r0, r0, sl, ror r4
    3fc0:	02500112 	subseq	r0, r0, #-2147483644	; 0x80000004
    3fc4:	01120074 	tsteq	r2, r4, ror r0
    3fc8:	00330151 	eorseq	r0, r3, r1, asr r1
    3fcc:	009e040f 	addseq	r0, lr, pc, lsl #8
    3fd0:	0005a000 	andeq	sl, r5, r0
    3fd4:	5f0e0000 	svcpl	0x000e0000
    3fd8:	0100000a 	tsteq	r0, sl
    3fdc:	9f040635 	svcls	0x00040635
    3fe0:	00240000 	eoreq	r0, r4, r0
    3fe4:	9c010000 	stcls	0, cr0, [r1], {-0}
    3fe8:	000004d3 	ldrdeq	r0, [r0], -r3
    3fec:	009f0c0f 	addseq	r0, pc, pc, lsl #24
    3ff0:	00019400 	andeq	r9, r1, r0, lsl #8
    3ff4:	9f100f00 	svcls	0x00100f00
    3ff8:	05a00000 	streq	r0, [r0, #0]!
    3ffc:	1c140000 	ldcne	0, cr0, [r4], {-0}
    4000:	d300009f 	movwle	r0, #159	; 0x9f
    4004:	c9000004 	stmdbgt	r0, {r2}
    4008:	12000004 	andne	r0, r0, #4, 0
    400c:	0c055001 	stceq	0, cr5, [r5], {1}
    4010:	20215004 	eorcs	r5, r1, r4
    4014:	02510112 	subseq	r0, r1, #-2147483644	; 0x80000004
    4018:	0f00fe09 	svceq	0x0000fe09
    401c:	00009f20 	andeq	r9, r0, r0, lsr #30
    4020:	000005a0 	andeq	r0, r0, r0, lsr #11
    4024:	0a9e1700 	beq	fe789c2c <__bss_end__+0xfe77e964>
    4028:	31010000 	mrscc	r0, (UNDEF: 1)
    402c:	009d380d 	addseq	r3, sp, sp, lsl #16
    4030:	00002000 	andeq	r2, r0, r0
    4034:	369c0100 	ldrcc	r0, [ip], r0, lsl #2
    4038:	18000005 	stmdane	r0, {r0, r2}
    403c:	000005d4 	ldrdeq	r0, [r0], -r4
    4040:	36253101 	strtcc	r3, [r5], -r1, lsl #2
    4044:	bc000005 	stclt	0, cr0, [r0], {5}
    4048:	b8000027 	stmdalt	r0, {r0, r1, r2, r5}
    404c:	13000027 	movwne	r0, #39	; 0x27
    4050:	006c6176 	rsbeq	r6, ip, r6, ror r1
    4054:	2c343101 	ldfcss	f3, [r4], #-4
    4058:	de000000 	cdple	0, 0, cr0, cr0, cr0, {0}
    405c:	da000027 	ble	4100 <__code_start__-0x3f00>
    4060:	14000027 	strne	r0, [r0], #-39	; 0xffffffd9
    4064:	00009d48 	andeq	r9, r0, r8, asr #26
    4068:	000005ac 	andeq	r0, r0, ip, lsr #11
    406c:	00000525 	andeq	r0, r0, r5, lsr #10
    4070:	02500112 	subseq	r0, r0, #-2147483644	; 0x80000004
    4074:	11000074 	tstne	r0, r4, ror r0
    4078:	00009d54 	andeq	r9, r0, r4, asr sp
    407c:	000005b8 			; <UNDEFINED> instruction: 0x000005b8
    4080:	02500112 	subseq	r0, r0, #-2147483644	; 0x80000004
    4084:	00000074 	andeq	r0, r0, r4, ror r0
    4088:	053c040c 	ldreq	r0, [ip, #-1036]!	; 0xfffffbf4
    408c:	17190000 	ldrne	r0, [r9, -r0]
    4090:	00000a89 	andeq	r0, r0, r9, lsl #21
    4094:	580d2e01 	stmdapl	sp, {r0, r9, sl, fp, sp}
    4098:	2000009d 	mulcs	r0, sp, r0
    409c:	01000000 	mrseq	r0, (UNDEF: 0)
    40a0:	0005a09c 	muleq	r5, ip, r0
    40a4:	05d41800 	ldrbeq	r1, [r4, #2048]	; 0x800
    40a8:	2e010000 	cdpcs	0, 0, cr0, cr1, cr0, {0}
    40ac:	00053624 	andeq	r3, r5, r4, lsr #12
    40b0:	00280000 	eoreq	r0, r8, r0
    40b4:	0027fc00 	eoreq	pc, r7, r0, lsl #24
    40b8:	61761300 	cmnvs	r6, r0, lsl #6
    40bc:	2e01006c 	cdpcs	0, 0, cr0, cr1, cr12, {3}
    40c0:	00002c33 	andeq	r2, r0, r3, lsr ip
    40c4:	00282200 	eoreq	r2, r8, r0, lsl #4
    40c8:	00281e00 	eoreq	r1, r8, r0, lsl #28
    40cc:	9d681400 	cfstrdls	mvd1, [r8, #-0]
    40d0:	05ac0000 	streq	r0, [ip, #0]!
    40d4:	058f0000 	streq	r0, [pc]	; 40dc <__code_start__-0x3f24>
    40d8:	01120000 	tsteq	r2, r0
    40dc:	00740250 	rsbseq	r0, r4, r0, asr r2
    40e0:	9d741100 	ldflse	f1, [r4, #-0]
    40e4:	05b80000 	ldreq	r0, [r8, #0]!
    40e8:	01120000 	tsteq	r2, r0
    40ec:	00740250 	rsbseq	r0, r4, r0, asr r2
    40f0:	6c1a0000 	ldcvs	0, cr0, [sl], {-0}
    40f4:	6c000008 	stcvs	0, cr0, [r0], {8}
    40f8:	03000008 	movweq	r0, #8
    40fc:	d31a069c 	tstle	sl, #156, 12	; 0x9c00000
    4100:	d300000a 	movwle	r0, #10
    4104:	0300000a 	movweq	r0, #10
    4108:	c71a0bc3 	ldrgt	r0, [sl, -r3, asr #23]
    410c:	c7000008 	strgt	r0, [r0, -r8]
    4110:	03000008 	movweq	r0, #8
    4114:	c11a06ae 	tstgt	sl, lr, lsr #13
    4118:	c100000a 	tstgt	r0, sl
    411c:	0400000a 	streq	r0, [r0], #-10
    4120:	e9000619 	stmdb	r0, {r0, r3, r4, r9, sl}
    4124:	04000008 	streq	r0, [r0], #-8
    4128:	00176100 	andseq	r6, r7, r0, lsl #2
    412c:	c7010400 	strgt	r0, [r1, -r0, lsl #8]
    4130:	0c000009 	stceq	0, cr0, [r0], {9}
    4134:	00000b5d 	andeq	r0, r0, sp, asr fp
    4138:	00000977 	andeq	r0, r0, r7, ror r9
    413c:	00009f28 	andeq	r9, r0, r8, lsr #30
    4140:	000003b0 			; <UNDEFINED> instruction: 0x000003b0
    4144:	00002222 	andeq	r2, r0, r2, lsr #4
    4148:	69050402 	stmdbvs	r5, {r1, sl}
    414c:	0300746e 	movweq	r7, #1134	; 0x46e
    4150:	01710704 	cmneq	r1, r4, lsl #14
    4154:	01030000 	mrseq	r0, (UNDEF: 3)
    4158:	00007206 	andeq	r7, r0, r6, lsl #4
    415c:	05020300 	streq	r0, [r2, #-768]	; 0xfffffd00
    4160:	00000000 	andeq	r0, r0, r0
    4164:	33050403 	movwcc	r0, #21507	; 0x5403
    4168:	03000000 	movweq	r0, #0
    416c:	002e0508 	eoreq	r0, lr, r8, lsl #10
    4170:	01030000 	mrseq	r0, (UNDEF: 3)
    4174:	00007008 	andeq	r7, r0, r8
    4178:	07020300 	streq	r0, [r2, -r0, lsl #6]
    417c:	000001b8 			; <UNDEFINED> instruction: 0x000001b8
    4180:	00017e04 	andeq	r7, r1, r4, lsl #28
    4184:	19340300 	ldmdbne	r4!, {r8, r9}
    4188:	00000069 	andeq	r0, r0, r9, rrx
    418c:	6c070403 	cfstrsvs	mvf0, [r7], {3}
    4190:	03000001 	movweq	r0, #1
    4194:	01670708 	cmneq	r7, r8, lsl #14
    4198:	01030000 	mrseq	r0, (UNDEF: 3)
    419c:	00007908 	andeq	r7, r0, r8, lsl #18
    41a0:	00770500 	rsbseq	r0, r7, r0, lsl #10
    41a4:	08030000 	stmdaeq	r3, {}	; <UNPREDICTABLE>
    41a8:	0003bf04 	andeq	fp, r3, r4, lsl #30
    41ac:	07040600 	streq	r0, [r4, -r0, lsl #12]
    41b0:	002c0407 	eoreq	r0, ip, r7, lsl #8
    41b4:	1f010000 	svcne	0x00010000
    41b8:	0000a406 	andeq	sl, r0, r6, lsl #8
    41bc:	0af70800 	beq	ffdc61c4 <__bss_end__+0xffdbaefc>
    41c0:	00000000 	andeq	r0, r0, r0
    41c4:	09000020 	stmdbeq	r0, {r5}
    41c8:	000002ec 	andeq	r0, r0, ip, ror #5
    41cc:	770d2201 	strvc	r2, [sp, -r1, lsl #4]
    41d0:	0a000000 	beq	41d8 <__code_start__-0x3e28>
    41d4:	0000048e 	andeq	r0, r0, lr, lsl #9
    41d8:	c20e2301 	andgt	r2, lr, #67108864	; 0x4000000
    41dc:	05000000 	streq	r0, [r0, #-0]
    41e0:	00ae8803 	adceq	r8, lr, r3, lsl #16
    41e4:	77040b00 	strvc	r0, [r4, -r0, lsl #22]
    41e8:	0a000000 	beq	41f0 <__code_start__-0x3e10>
    41ec:	00000ae1 	andeq	r0, r0, r1, ror #21
    41f0:	c20e2401 	andgt	r2, lr, #16777216	; 0x1000000
    41f4:	05000000 	streq	r0, [r0, #-0]
    41f8:	00ae8c03 	adceq	r8, lr, r3, lsl #24
    41fc:	0b3c0a00 	bleq	f06a04 <__bss_end__+0xefb73c>
    4200:	25010000 	strcs	r0, [r1, #-0]
    4204:	0000c20e 	andeq	ip, r0, lr, lsl #4
    4208:	90030500 	andls	r0, r3, r0, lsl #10
    420c:	0c0000ae 	stceq	0, cr0, [r0], {174}	; 0xae
    4210:	00000b12 	andeq	r0, r0, r2, lsl fp
    4214:	78067501 	stmdavc	r6, {r0, r8, sl, ip, sp, lr}
    4218:	600000a2 	andvs	r0, r0, r2, lsr #1
    421c:	01000000 	mrseq	r0, (UNDEF: 0)
    4220:	0001649c 	muleq	r1, ip, r4
    4224:	00700d00 	rsbseq	r0, r0, r0, lsl #26
    4228:	8a167501 	bhi	5a1634 <__bss_end__+0x59636c>
    422c:	46000000 	strmi	r0, [r0], -r0
    4230:	40000028 	andmi	r0, r0, r8, lsr #32
    4234:	0e000028 	cdpeq	0, 0, cr0, cr0, cr8, {1}
    4238:	00000049 	andeq	r0, r0, r9, asr #32
    423c:	00000174 	andeq	r0, r0, r4, ror r1
    4240:	ae780305 	cdpge	3, 7, cr0, cr8, cr5, {0}
    4244:	c40f0000 	strgt	r0, [pc], #-0	; 424c <__code_start__-0x3db4>
    4248:	bc0000a2 	stclt	0, cr0, [r0], {162}	; 0xa2
    424c:	5a000008 	bpl	4274 <__code_start__-0x3d8c>
    4250:	10000001 	andne	r0, r0, r1
    4254:	03055001 	movweq	r5, #20481	; 0x5001
    4258:	0000adf0 	strdeq	sl, [r0], -r0
    425c:	05510110 	ldrbeq	r0, [r1, #-272]	; 0xfffffef0
    4260:	00ac8803 	adceq	r8, ip, r3, lsl #16
    4264:	52011000 	andpl	r1, r1, #0, 0
    4268:	ae780305 	cdpge	3, 7, cr0, cr8, cr5, {0}
    426c:	01100000 	tsteq	r0, r0
    4270:	77080253 	smlsdvc	r8, r3, r2, r0
    4274:	007d0210 	rsbseq	r0, sp, r0, lsl r2
    4278:	5001f303 	andpl	pc, r1, r3, lsl #6
    427c:	a2c81100 	sbcge	r1, r8, #0
    4280:	08c80000 	stmiaeq	r8, {}^	; <UNPREDICTABLE>
    4284:	12000000 	andne	r0, r0, #0, 0
    4288:	0000007e 	andeq	r0, r0, lr, ror r0
    428c:	00000174 	andeq	r0, r0, r4, ror r1
    4290:	00002c13 	andeq	r2, r0, r3, lsl ip
    4294:	05000900 	streq	r0, [r0, #-2304]	; 0xfffff700
    4298:	00000164 	andeq	r0, r0, r4, ror #2
    429c:	000b0014 	andeq	r0, fp, r4, lsl r0
    42a0:	06720100 	ldrbteq	r0, [r2], -r0, lsl #2
    42a4:	0000a264 	andeq	sl, r0, r4, ror #4
    42a8:	00000014 	andeq	r0, r0, r4, lsl r0
    42ac:	980c9c01 	stmdals	ip, {r0, sl, fp, ip, pc}
    42b0:	01000002 	tsteq	r0, r2
    42b4:	a260066f 	rsbge	r0, r0, #116391936	; 0x6f00000
    42b8:	00040000 	andeq	r0, r4, r0
    42bc:	9c010000 	stcls	0, cr0, [r1], {-0}
    42c0:	000001ae 	andeq	r0, r0, lr, lsr #3
    42c4:	01007015 	tsteq	r0, r5, lsl r0
    42c8:	008a126f 	addeq	r1, sl, pc, ror #4
    42cc:	50010000 	andpl	r0, r1, r0
    42d0:	0b9f1600 	bleq	fe7c9ad8 <__bss_end__+0xfe7be810>
    42d4:	5e010000 	cdppl	0, 0, cr0, cr1, cr0, {0}
    42d8:	00008a07 	andeq	r8, r0, r7, lsl #20
    42dc:	00a14800 	adceq	r4, r1, r0, lsl #16
    42e0:	00011800 	andeq	r1, r1, r0, lsl #16
    42e4:	2c9c0100 	ldfcss	f0, [ip], {0}
    42e8:	17000004 	strne	r0, [r0, -r4]
    42ec:	0000037a 	andeq	r0, r0, sl, ror r3
    42f0:	2c205e01 	stccs	14, cr5, [r0], #-4
    42f4:	87000000 	strhi	r0, [r0, -r0]
    42f8:	73000028 	movwvc	r0, #40	; 0x28
    42fc:	17000028 	strne	r0, [r0, -r8, lsr #32]
    4300:	00000b1c 	andeq	r0, r0, ip, lsl fp
    4304:	2c315e01 	ldccs	14, cr5, [r1], #-4
    4308:	20000000 	andcs	r0, r0, r0
    430c:	0c000029 	stceq	0, cr0, [r0], {41}	; 0x29
    4310:	0e000029 	cdpeq	0, 0, cr0, cr0, cr9, {1}
    4314:	00000049 	andeq	r0, r0, r9, asr #32
    4318:	0000043c 	andeq	r0, r0, ip, lsr r4
    431c:	ae600305 	cdpge	3, 6, cr0, cr0, cr5, {0}
    4320:	68180000 	ldmdavs	r8, {}	; <UNPREDICTABLE>
    4324:	0e660100 	poweqs	f0, f6, f0
    4328:	0000002c 	andeq	r0, r0, ip, lsr #32
    432c:	000029d6 	ldrdeq	r2, [r0], -r6
    4330:	000029ca 	andeq	r2, r0, sl, asr #19
    4334:	00085419 	andeq	r5, r8, r9, lsl r4
    4338:	00a15800 	adceq	r5, r1, r0, lsl #16
    433c:	a1580400 	cmpge	r8, r0, lsl #8
    4340:	00040000 	andeq	r0, r4, r0
    4344:	60010000 	andvs	r0, r1, r0
    4348:	00023805 	andeq	r3, r2, r5, lsl #16
    434c:	08651a00 	stmdaeq	r5!, {r9, fp, ip}^
    4350:	2a2a0000 	bcs	a84358 <__bss_end__+0xa79090>
    4354:	2a280000 	bcs	a0435c <__bss_end__+0x9f9094>
    4358:	19000000 	stmdbne	r0, {}	; <UNPREDICTABLE>
    435c:	00000896 	muleq	r0, r6, r8
    4360:	0000a164 	andeq	sl, r0, r4, ror #2
    4364:	00a16402 	adceq	r6, r1, r2, lsl #8
    4368:	00000800 	andeq	r0, r0, r0, lsl #16
    436c:	11610100 	cmnne	r1, r0, lsl #2
    4370:	0000026c 	andeq	r0, r0, ip, ror #4
    4374:	0008b11a 	andeq	fp, r8, sl, lsl r1
    4378:	002a3f00 	eoreq	r3, sl, r0, lsl #30
    437c:	002a3d00 	eoreq	r3, sl, r0, lsl #26
    4380:	08a71a00 	stmiaeq	r7!, {r9, fp, ip}
    4384:	2a550000 	bcs	154438c <__bss_end__+0x15390c4>
    4388:	2a530000 	bcs	14c4390 <__bss_end__+0x14b90c8>
    438c:	1b000000 	blne	4394 <__code_start__-0x3c6c>
    4390:	0000081f 	andeq	r0, r0, pc, lsl r8
    4394:	0000a174 	andeq	sl, r0, r4, ror r1
    4398:	00046801 	andeq	r6, r4, r1, lsl #16
    439c:	09670100 	stmdbeq	r7!, {r8}^
    43a0:	0000030a 	andeq	r0, r0, sl, lsl #6
    43a4:	00083a1a 	andeq	r3, r8, sl, lsl sl
    43a8:	002a6e00 	eoreq	r6, sl, r0, lsl #28
    43ac:	002a6800 	eoreq	r6, sl, r0, lsl #16
    43b0:	08301a00 	ldmdaeq	r0!, {r9, fp, ip}
    43b4:	2ab50000 	bcs	fed443bc <__bss_end__+0xfed390f4>
    43b8:	2aad0000 	bcs	feb443c0 <__bss_end__+0xfeb390f8>
    43bc:	681c0000 	ldmdavs	ip, {}	; <UNPREDICTABLE>
    43c0:	19000004 	stmdbne	r0, {r2}
    43c4:	00000854 	andeq	r0, r0, r4, asr r8
    43c8:	0000a174 	andeq	sl, r0, r4, ror r1
    43cc:	00a17404 	adceq	r7, r1, r4, lsl #8
    43d0:	00000400 	andeq	r0, r0, r0, lsl #8
    43d4:	05110100 	ldreq	r0, [r1, #-256]	; 0xffffff00
    43d8:	000002c7 	andeq	r0, r0, r7, asr #5
    43dc:	0008651a 	andeq	r6, r8, sl, lsl r5
    43e0:	002af300 	eoreq	pc, sl, r0, lsl #6
    43e4:	002af100 	eoreq	pc, sl, r0, lsl #2
    43e8:	0c0f0000 	stceq	0, cr0, [pc], {-0}
    43ec:	bc0000a2 	stclt	0, cr0, [r0], {162}	; 0xa2
    43f0:	ff000008 			; <UNDEFINED> instruction: 0xff000008
    43f4:	10000002 	andne	r0, r0, r2
    43f8:	03055001 	movweq	r5, #20481	; 0x5001
    43fc:	0000a59c 	muleq	r0, ip, r5
    4400:	05510110 	ldrbeq	r0, [r1, #-272]	; 0xfffffef0
    4404:	00ac8803 	adceq	r8, ip, r3, lsl #16
    4408:	52011000 	andpl	r1, r1, #0, 0
    440c:	ae700305 	cdpge	3, 7, cr0, cr0, cr5, {0}
    4410:	01100000 	tsteq	r0, r0
    4414:	10410153 	subne	r0, r1, r3, asr r1
    4418:	05007d02 	streq	r7, [r0, #-3330]	; 0xfffff2fe
    441c:	00ad9c03 	adceq	r9, sp, r3, lsl #24
    4420:	10110000 	andsne	r0, r1, r0
    4424:	c80000a2 	stmdagt	r0, {r1, r5, r7}
    4428:	00000008 	andeq	r0, r0, r8
    442c:	08701900 	ldmdaeq	r0!, {r8, fp, ip}^
    4430:	a18c0000 	orrge	r0, ip, r0
    4434:	8c030000 	stchi	0, cr0, [r3], {-0}
    4438:	040000a1 	streq	r0, [r0], #-161	; 0xffffff5f
    443c:	01000000 	mrseq	r0, (UNDEF: 0)
    4440:	033e0568 	teqeq	lr, #104, 10	; 0x1a000000
    4444:	8b1a0000 	blhi	68444c <__bss_end__+0x679184>
    4448:	08000008 	stmdaeq	r0, {r3}
    444c:	0600002b 	streq	r0, [r0], -fp, lsr #32
    4450:	1a00002b 	bne	4504 <__code_start__-0x3afc>
    4454:	00000881 	andeq	r0, r0, r1, lsl #17
    4458:	00002b1d 	andeq	r2, r0, sp, lsl fp
    445c:	00002b1b 	andeq	r2, r0, fp, lsl fp
    4460:	a1a40f00 			; <UNDEFINED> instruction: 0xa1a40f00
    4464:	04410000 	strbeq	r0, [r1], #-0
    4468:	03530000 	cmpeq	r3, #0, 0
    446c:	01100000 	tsteq	r0, r0
    4470:	01f30350 	mvnseq	r0, r0, asr r3
    4474:	c80f0050 	stmdagt	pc, {r4, r6}	; <UNPREDICTABLE>
    4478:	bc0000a1 	stclt	0, cr0, [r0], {161}	; 0xa1
    447c:	8c000008 	stchi	0, cr0, [r0], {8}
    4480:	10000003 	andne	r0, r0, r3
    4484:	03055001 	movweq	r5, #20481	; 0x5001
    4488:	0000a59c 	muleq	r0, ip, r5
    448c:	05510110 	ldrbeq	r0, [r1, #-272]	; 0xfffffef0
    4490:	00ac8803 	adceq	r8, ip, r3, lsl #16
    4494:	52011000 	andpl	r1, r1, #0, 0
    4498:	ae600305 	cdpge	3, 6, cr0, cr0, cr5, {0}
    449c:	01100000 	tsteq	r0, r0
    44a0:	5f080253 	svcpl	0x00080253
    44a4:	007d0210 	rsbseq	r0, sp, r0, lsl r2
    44a8:	ac980305 	ldcge	3, cr0, [r8], {5}
    44ac:	11000000 	mrsne	r0, (UNDEF: 0)
    44b0:	0000a1cc 	andeq	sl, r0, ip, asr #3
    44b4:	000008c8 	andeq	r0, r0, r8, asr #17
    44b8:	00a1d011 	adceq	sp, r1, r1, lsl r0
    44bc:	0008d400 	andeq	sp, r8, r0, lsl #8
    44c0:	a1ec0f00 	mvnge	r0, r0, lsl #30
    44c4:	08bc0000 	ldmeq	ip!, {}	; <UNPREDICTABLE>
    44c8:	03d70000 	bicseq	r0, r7, #0, 0
    44cc:	01100000 	tsteq	r0, r0
    44d0:	54030550 	strpl	r0, [r3], #-1360	; 0xfffffab0
    44d4:	100000ad 	andne	r0, r0, sp, lsr #1
    44d8:	03055101 	movweq	r5, #20737	; 0x5101
    44dc:	0000ac88 	andeq	sl, r0, r8, lsl #25
    44e0:	05520110 	ldrbeq	r0, [r2, #-272]	; 0xfffffef0
    44e4:	00ae6003 	adceq	r6, lr, r3
    44e8:	53011000 	movwpl	r1, #4096	; 0x1000
    44ec:	10600802 	rsbne	r0, r0, r2, lsl #16
    44f0:	05007d02 	streq	r7, [r0, #-3330]	; 0xfffff2fe
    44f4:	00ad8803 	adceq	r8, sp, r3, lsl #16
    44f8:	f0110000 			; <UNDEFINED> instruction: 0xf0110000
    44fc:	c80000a1 	stmdagt	r0, {r0, r5, r7}
    4500:	11000008 	tstne	r0, r8
    4504:	0000a214 	andeq	sl, r0, r4, lsl r2
    4508:	000008d4 	ldrdeq	r0, [r0], -r4
    450c:	00a2300f 	adceq	r3, r2, pc
    4510:	0008bc00 	andeq	fp, r8, r0, lsl #24
    4514:	00042200 	andeq	r2, r4, r0, lsl #4
    4518:	50011000 	andpl	r1, r1, r0
    451c:	ada80305 	stcge	3, cr0, [r8, #20]!
    4520:	01100000 	tsteq	r0, r0
    4524:	88030551 	stmdahi	r3, {r0, r4, r6, r8, sl}
    4528:	100000ac 	andne	r0, r0, ip, lsr #1
    452c:	03055201 	movweq	r5, #20993	; 0x5201
    4530:	0000ae60 	andeq	sl, r0, r0, ror #28
    4534:	02530110 	subseq	r0, r3, #4
    4538:	02106808 	andseq	r6, r0, #8, 16	; 0x80000
    453c:	0305007d 	movweq	r0, #20605	; 0x507d
    4540:	0000add4 	ldrdeq	sl, [r0], -r4
    4544:	a2341100 	eorsge	r1, r4, #0
    4548:	08c80000 	stmiaeq	r8, {}^	; <UNPREDICTABLE>
    454c:	12000000 	andne	r0, r0, #0, 0
    4550:	0000007e 	andeq	r0, r0, lr, ror r0
    4554:	0000043c 	andeq	r0, r0, ip, lsr r4
    4558:	00002c13 	andeq	r2, r0, r3, lsl ip
    455c:	05000f00 	streq	r0, [r0, #-3840]	; 0xfffff100
    4560:	0000042c 	andeq	r0, r0, ip, lsr #8
    4564:	0004ad16 	andeq	sl, r4, r6, lsl sp
    4568:	07530100 	ldrbeq	r0, [r3, -r0, lsl #2]
    456c:	0000008a 	andeq	r0, r0, sl, lsl #1
    4570:	0000a0e4 	andeq	sl, r0, r4, ror #1
    4574:	00000064 	andeq	r0, r0, r4, rrx
    4578:	05089c01 	streq	r9, [r8, #-3073]	; 0xfffff3ff
    457c:	7a170000 	bvc	5c4584 <__bss_end__+0x5b92bc>
    4580:	01000003 	tsteq	r0, r3
    4584:	002c1853 	eoreq	r1, ip, r3, asr r8
    4588:	2b380000 	blcs	e04590 <__bss_end__+0xdf92c8>
    458c:	2b300000 	blcs	c04594 <__bss_end__+0xbf92cc>
    4590:	490e0000 	stmdbmi	lr, {}	; <UNPREDICTABLE>
    4594:	18000000 	stmdane	r0, {}	; <UNPREDICTABLE>
    4598:	05000005 	streq	r0, [r0, #-5]
    459c:	00ae5803 	adceq	r5, lr, r3, lsl #16
    45a0:	05d41d00 	ldrbeq	r1, [r4, #3328]	; 0xd00
    45a4:	55010000 	strpl	r0, [r1, #-0]
    45a8:	00008a0b 	andeq	r8, r0, fp, lsl #20
    45ac:	002b7000 	eoreq	r7, fp, r0
    45b0:	002b6c00 	eoreq	r6, fp, r0, lsl #24
    45b4:	a0fc0f00 	rscsge	r0, ip, r0, lsl #30
    45b8:	051d0000 	ldreq	r0, [sp, #-0]
    45bc:	04a60000 	strteq	r0, [r6], #0
    45c0:	01100000 	tsteq	r0, r0
    45c4:	00740250 	rsbseq	r0, r4, r0, asr r2
    45c8:	a10c0f00 	tstge	ip, r0, lsl #30
    45cc:	08e00000 	stmiaeq	r0!, {}^	; <UNPREDICTABLE>
    45d0:	04c50000 	strbeq	r0, [r5], #0
    45d4:	01100000 	tsteq	r0, r0
    45d8:	00750250 	rsbseq	r0, r5, r0, asr r2
    45dc:	01510110 	cmpeq	r1, r0, lsl r1
    45e0:	52011030 	andpl	r1, r1, #48, 0	; 0x30
    45e4:	00007402 	andeq	r7, r0, r2, lsl #8
    45e8:	00a1340f 	adceq	r3, r1, pc, lsl #8
    45ec:	0008bc00 	andeq	fp, r8, r0, lsl #24
    45f0:	0004fe00 	andeq	pc, r4, r0, lsl #28
    45f4:	50011000 	andpl	r1, r1, r0
    45f8:	a59c0305 	ldrge	r0, [ip, #773]	; 0x305
    45fc:	01100000 	tsteq	r0, r0
    4600:	88030551 	stmdahi	r3, {r0, r4, r6, r8, sl}
    4604:	100000ac 	andne	r0, r0, ip, lsr #1
    4608:	03055201 	movweq	r5, #20993	; 0x5201
    460c:	0000ae58 	andeq	sl, r0, r8, asr lr
    4610:	02530110 	subseq	r0, r3, #4
    4614:	02105408 	andseq	r5, r0, #8, 8	; 0x8000000
    4618:	0305007d 	movweq	r0, #20605	; 0x507d
    461c:	0000ac98 	muleq	r0, r8, ip
    4620:	a1381100 	teqge	r8, r0, lsl #2
    4624:	08c80000 	stmiaeq	r8, {}^	; <UNPREDICTABLE>
    4628:	12000000 	andne	r0, r0, #0, 0
    462c:	0000007e 	andeq	r0, r0, lr, ror r0
    4630:	00000518 	andeq	r0, r0, r8, lsl r5
    4634:	00002c13 	andeq	r2, r0, r3, lsl ip
    4638:	05000700 	streq	r0, [r0, #-1792]	; 0xfffff900
    463c:	00000508 	andeq	r0, r0, r8, lsl #10
    4640:	000b4516 	andeq	r4, fp, r6, lsl r5
    4644:	07470100 	strbeq	r0, [r7, -r0, lsl #2]
    4648:	0000008a 	andeq	r0, r0, sl, lsl #1
    464c:	0000a04c 	andeq	sl, r0, ip, asr #32
    4650:	00000098 	muleq	r0, r8, r0
    4654:	062b9c01 	strteq	r9, [fp], -r1, lsl #24
    4658:	7a170000 	bvc	5c4660 <__bss_end__+0x5b9398>
    465c:	01000003 	tsteq	r0, r3
    4660:	002c2047 	eoreq	r2, ip, r7, asr #32
    4664:	2b9e0000 	blcs	fe78466c <__bss_end__+0xfe7793a4>
    4668:	2b8e0000 	blcs	fe384670 <__bss_end__+0xfe3793a8>
    466c:	490e0000 	stmdbmi	lr, {}	; <UNPREDICTABLE>
    4670:	3c000000 	stccc	0, cr0, [r0], {-0}
    4674:	05000004 	streq	r0, [r0, #-4]
    4678:	00ae4803 	adceq	r4, lr, r3, lsl #16
    467c:	05d41d00 	ldrbeq	r1, [r4, #3328]	; 0xd00
    4680:	4b010000 	blmi	44688 <__bss_end__+0x393c0>
    4684:	00008a0b 	andeq	r8, r0, fp, lsl #20
    4688:	002c1000 	eoreq	r1, ip, r0
    468c:	002c0c00 	eoreq	r0, ip, r0, lsl #24
    4690:	081f1b00 	ldmdaeq	pc, {r8, r9, fp, ip}	; <UNPREDICTABLE>
    4694:	a05c0000 	subsge	r0, ip, r0
    4698:	50030000 	andpl	r0, r3, r0
    469c:	01000004 	tsteq	r0, r4
    46a0:	05a30e49 	streq	r0, [r3, #3657]!	; 0xe49
    46a4:	3a1a0000 	bcc	6846ac <__bss_end__+0x6793e4>
    46a8:	30000008 	andcc	r0, r0, r8
    46ac:	2e00002c 	cdpcs	0, 0, cr0, cr0, cr12, {1}
    46b0:	1a00002c 	bne	4768 <__code_start__-0x3898>
    46b4:	00000830 	andeq	r0, r0, r0, lsr r8
    46b8:	00002c48 	andeq	r2, r0, r8, asr #24
    46bc:	00002c44 	andeq	r2, r0, r4, asr #24
    46c0:	0004501e 	andeq	r5, r4, lr, lsl r0
    46c4:	a40f0000 	strge	r0, [pc], #-0	; 46cc <__code_start__-0x3934>
    46c8:	bc0000a0 	stclt	0, cr0, [r0], {160}	; 0xa0
    46cc:	dc000008 	stcle	0, cr0, [r0], {8}
    46d0:	10000005 	andne	r0, r0, r5
    46d4:	03055001 	movweq	r5, #20481	; 0x5001
    46d8:	0000a59c 	muleq	r0, ip, r5
    46dc:	05510110 	ldrbeq	r0, [r1, #-272]	; 0xfffffef0
    46e0:	00ac8803 	adceq	r8, ip, r3, lsl #16
    46e4:	52011000 	andpl	r1, r1, #0, 0
    46e8:	ae480305 	cdpge	3, 4, cr0, cr8, cr5, {0}
    46ec:	01100000 	tsteq	r0, r0
    46f0:	48080253 	stmdami	r8, {r0, r1, r4, r6, r9}
    46f4:	007d0210 	rsbseq	r0, sp, r0, lsl r2
    46f8:	ac980305 	ldcge	3, cr0, [r8], {5}
    46fc:	11000000 	mrsne	r0, (UNDEF: 0)
    4700:	0000a0a8 	andeq	sl, r0, r8, lsr #1
    4704:	000008c8 	andeq	r0, r0, r8, asr #17
    4708:	00a0c80f 	adceq	ip, r0, pc, lsl #16
    470c:	0008bc00 	andeq	fp, r8, r0, lsl #24
    4710:	00062100 	andeq	r2, r6, r0, lsl #2
    4714:	50011000 	andpl	r1, r1, r0
    4718:	ad140305 	ldcge	3, cr0, [r4, #-20]	; 0xffffffec
    471c:	01100000 	tsteq	r0, r0
    4720:	88030551 	stmdahi	r3, {r0, r4, r6, r8, sl}
    4724:	100000ac 	andne	r0, r0, ip, lsr #1
    4728:	03055201 	movweq	r5, #20993	; 0x5201
    472c:	0000ae48 	andeq	sl, r0, r8, asr #28
    4730:	02530110 	subseq	r0, r3, #4
    4734:	02104e08 	andseq	r4, r0, #8, 28	; 0x80
    4738:	f308007d 	vqadd.u8	q0, q4, <illegal reg q14.5>
    473c:	07235001 	streq	r5, [r3, -r1]!
    4740:	001af809 	andseq	pc, sl, r9, lsl #16
    4744:	00a0cc11 	adceq	ip, r0, r1, lsl ip
    4748:	0008c800 	andeq	ip, r8, r0, lsl #16
    474c:	670c0000 	strvs	r0, [ip, -r0]
    4750:	0100000b 	tsteq	r0, fp
    4754:	9ff4063c 	svcls	0x00f4063c
    4758:	00580000 	subseq	r0, r8, r0
    475c:	9c010000 	stcls	0, cr0, [r1], {-0}
    4760:	000006cf 	andeq	r0, r0, pc, asr #13
    4764:	00041d0a 	andeq	r1, r4, sl, lsl #26
    4768:	103d0100 	eorsne	r0, sp, r0, lsl #2
    476c:	00000025 	andeq	r0, r0, r5, lsr #32
    4770:	b2c00305 	sbclt	r0, r0, #335544320	; 0x14000000
    4774:	490e0000 	stmdbmi	lr, {}	; <UNPREDICTABLE>
    4778:	df000000 	svcle	0x00000000
    477c:	05000006 	streq	r0, [r0, #-6]
    4780:	00ae3803 	adceq	r3, lr, r3, lsl #16
    4784:	04070700 	streq	r0, [r7], #-1792	; 0xfffff900
    4788:	0000002c 	andeq	r0, r0, ip, lsr #32
    478c:	7a0a4201 	bvc	294f98 <__bss_end__+0x289cd0>
    4790:	08000006 	stmdaeq	r0, {r1, r2}
    4794:	00000b2e 	andeq	r0, r0, lr, lsr #22
    4798:	00100000 	andseq	r0, r0, r0
    479c:	a0200f00 	eorge	r0, r0, r0, lsl #30
    47a0:	06e40000 	strbteq	r0, [r4], r0
    47a4:	06960000 	ldreq	r0, [r6], r0
    47a8:	01100000 	tsteq	r0, r0
    47ac:	40400350 	submi	r0, r0, r0, asr r3
    47b0:	51011024 	tstpl	r1, r4, lsr #32
    47b4:	24484003 	strbcs	r4, [r8], #-3
    47b8:	a0380f00 	eorsge	r0, r8, r0, lsl #30
    47bc:	08bc0000 	ldmeq	ip!, {}	; <UNPREDICTABLE>
    47c0:	06c50000 	strbeq	r0, [r5], r0
    47c4:	01100000 	tsteq	r0, r0
    47c8:	e4030550 	str	r0, [r3], #-1360	; 0xfffffab0
    47cc:	100000ac 	andne	r0, r0, ip, lsr #1
    47d0:	03055101 	movweq	r5, #20737	; 0x5101
    47d4:	0000ac88 	andeq	sl, r0, r8, lsl #25
    47d8:	05520110 	ldrbeq	r0, [r2, #-272]	; 0xfffffef0
    47dc:	00ae3803 	adceq	r3, lr, r3, lsl #16
    47e0:	53011000 	movwpl	r1, #4096	; 0x1000
    47e4:	00400802 	subeq	r0, r0, r2, lsl #16
    47e8:	00a03c11 	adceq	r3, r0, r1, lsl ip
    47ec:	0008c800 	andeq	ip, r8, r0, lsl #16
    47f0:	7e120000 	cdpvc	0, 1, cr0, cr2, cr0, {0}
    47f4:	df000000 	svcle	0x00000000
    47f8:	13000006 	movwne	r0, #6
    47fc:	0000002c 	andeq	r0, r0, ip, lsr #32
    4800:	cf05000c 	svcgt	0x0005000c
    4804:	0c000006 	stceq	0, cr0, [r0], {6}
    4808:	000004b5 			; <UNDEFINED> instruction: 0x000004b5
    480c:	58062d01 	stmdapl	r6, {r0, r8, sl, fp, sp}
    4810:	9c00009f 	stcls	0, cr0, [r0], {159}	; 0x9f
    4814:	01000000 	mrseq	r0, (UNDEF: 0)
    4818:	0007c89c 	muleq	r7, ip, r8
    481c:	05d31700 	ldrbeq	r1, [r3, #1792]	; 0x700
    4820:	2d010000 	stccs	0, cr0, [r1, #-0]
    4824:	00002c26 	andeq	r2, r0, r6, lsr #24
    4828:	002c7600 	eoreq	r7, ip, r0, lsl #12
    482c:	002c6800 	eoreq	r6, ip, r0, lsl #16
    4830:	0aec1700 	beq	ffb0a438 <__bss_end__+0xffaff170>
    4834:	2d010000 	stccs	0, cr0, [r1, #-0]
    4838:	00002c36 	andeq	r2, r0, r6, lsr ip
    483c:	002cde00 	eoreq	sp, ip, r0, lsl #28
    4840:	002cd600 	eoreq	sp, ip, r0, lsl #12
    4844:	05d41d00 	ldrbeq	r1, [r4, #3328]	; 0xd00
    4848:	2e010000 	cdpcs	0, 0, cr0, cr1, cr0, {0}
    484c:	0000c20b 	andeq	ip, r0, fp, lsl #4
    4850:	002d2600 	eoreq	r2, sp, r0, lsl #12
    4854:	002d1800 	eoreq	r1, sp, r0, lsl #16
    4858:	00490e00 	subeq	r0, r9, r0, lsl #28
    485c:	07d80000 	ldrbeq	r0, [r8, r0]
    4860:	03050000 	movweq	r0, #20480	; 0x5000
    4864:	0000ae20 	andeq	sl, r0, r0, lsr #28
    4868:	009fb00f 	addseq	fp, pc, pc
    486c:	0008bc00 	andeq	fp, r8, r0, lsl #24
    4870:	00077e00 	andeq	r7, r7, r0, lsl #28
    4874:	50011000 	andpl	r1, r1, r0
    4878:	a59c0305 	ldrge	r0, [ip, #773]	; 0x305
    487c:	01100000 	tsteq	r0, r0
    4880:	88030551 	stmdahi	r3, {r0, r4, r6, r8, sl}
    4884:	100000ac 	andne	r0, r0, ip, lsr #1
    4888:	03055201 	movweq	r5, #20993	; 0x5201
    488c:	0000ae20 	andeq	sl, r0, r0, lsr #28
    4890:	02530110 	subseq	r0, r3, #4
    4894:	02103008 	andseq	r3, r0, #8, 0
    4898:	0305007d 	movweq	r0, #20605	; 0x507d
    489c:	0000ac94 	muleq	r0, r4, ip
    48a0:	9fb41100 	svcls	0x00b41100
    48a4:	08c80000 	stmiaeq	r8, {}^	; <UNPREDICTABLE>
    48a8:	d80f0000 	stmdale	pc, {}	; <UNPREDICTABLE>
    48ac:	bc00009f 	stclt	0, cr0, [r0], {159}	; 0x9f
    48b0:	be000008 	cdplt	0, 0, cr0, cr0, cr8, {0}
    48b4:	10000007 	andne	r0, r0, r7
    48b8:	03055001 	movweq	r5, #20481	; 0x5001
    48bc:	0000aca0 	andeq	sl, r0, r0, lsr #25
    48c0:	05510110 	ldrbeq	r0, [r1, #-272]	; 0xfffffef0
    48c4:	00ac8803 	adceq	r8, ip, r3, lsl #16
    48c8:	52011000 	andpl	r1, r1, #0, 0
    48cc:	ae200305 	cdpge	3, 2, cr0, cr0, cr5, {0}
    48d0:	01100000 	tsteq	r0, r0
    48d4:	34080253 	strcc	r0, [r8], #-595	; 0xfffffdad
    48d8:	007d0210 	rsbseq	r0, sp, r0, lsl r2
    48dc:	5001f303 	andpl	pc, r1, r3, lsl #6
    48e0:	9fdc1100 	svcls	0x00dc1100
    48e4:	08c80000 	stmiaeq	r8, {}^	; <UNPREDICTABLE>
    48e8:	12000000 	andne	r0, r0, #0, 0
    48ec:	0000007e 	andeq	r0, r0, lr, ror r0
    48f0:	000007d8 	ldrdeq	r0, [r0], -r8
    48f4:	00002c13 	andeq	r2, r0, r3, lsl ip
    48f8:	05001600 	streq	r1, [r0, #-1536]	; 0xfffffa00
    48fc:	000007c8 	andeq	r0, r0, r8, asr #15
    4900:	000b7f1f 	andeq	r7, fp, pc, lsl pc
    4904:	072a0100 	streq	r0, [sl, -r0, lsl #2]!
    4908:	0000008a 	andeq	r0, r0, sl, lsl #1
    490c:	00009f48 	andeq	r9, r0, r8, asr #30
    4910:	00000010 	andeq	r0, r0, r0, lsl r0
    4914:	d91f9c01 	ldmdble	pc, {r0, sl, fp, ip, pc}	; <UNPREDICTABLE>
    4918:	0100000a 	tsteq	r0, sl
    491c:	008a0729 	addeq	r0, sl, r9, lsr #14
    4920:	9f380000 	svcls	0x00380000
    4924:	00100000 	andseq	r0, r0, r0
    4928:	9c010000 	stcls	0, cr0, [r1], {-0}
    492c:	000b341f 	andeq	r3, fp, pc, lsl r4
    4930:	07280100 	streq	r0, [r8, -r0, lsl #2]!
    4934:	0000008a 	andeq	r0, r0, sl, lsl #1
    4938:	00009f28 	andeq	r9, r0, r8, lsr #30
    493c:	00000010 	andeq	r0, r0, r0, lsl r0
    4940:	0a209c01 	beq	82b94c <__bss_end__+0x820684>
    4944:	0100000b 	tsteq	r0, fp
    4948:	002c1810 	eoreq	r1, ip, r0, lsl r8
    494c:	54030000 	strpl	r0, [r3], #-0
    4950:	21000008 	tstcs	r0, r8
    4954:	10010078 	andne	r0, r1, r8, ror r0
    4958:	00002c29 	andeq	r2, r0, r9, lsr #24
    495c:	006e2100 	rsbeq	r2, lr, r0, lsl #2
    4960:	2c351001 	ldccs	0, cr1, [r5], #-4
    4964:	0e000000 	cdpeq	0, 0, cr0, cr0, cr0, {0}
    4968:	00000049 	andeq	r0, r0, r9, asr #32
    496c:	00000518 	andeq	r0, r0, r8, lsl r5
    4970:	ae700305 	cdpge	3, 7, cr0, cr0, cr5, {0}
    4974:	20000000 	andcs	r0, r0, r0
    4978:	00000b55 	andeq	r0, r0, r5, asr fp
    497c:	2c180d01 	ldccs	13, cr0, [r8], {1}
    4980:	03000000 	movweq	r0, #0
    4984:	00000870 	andeq	r0, r0, r0, ror r8
    4988:	01007821 	tsteq	r0, r1, lsr #16
    498c:	002c290d 	eoreq	r2, ip, sp, lsl #18
    4990:	20000000 	andcs	r0, r0, r0
    4994:	00000b74 	andeq	r0, r0, r4, ror fp
    4998:	2c180701 	ldccs	7, cr0, [r8], {1}
    499c:	03000000 	movweq	r0, #0
    49a0:	00000896 	muleq	r0, r6, r8
    49a4:	01007821 	tsteq	r0, r1, lsr #16
    49a8:	002c2c07 	eoreq	r2, ip, r7, lsl #24
    49ac:	6e210000 	cdpvs	0, 2, cr0, cr1, cr0, {0}
    49b0:	38070100 	stmdacc	r7, {r8}
    49b4:	0000002c 	andeq	r0, r0, ip, lsr #32
    49b8:	0b262000 	bleq	98c9c0 <__bss_end__+0x9816f8>
    49bc:	04010000 	streq	r0, [r1], #-0
    49c0:	00005d18 	andeq	r5, r0, r8, lsl sp
    49c4:	08bc0300 	ldmeq	ip!, {r8, r9}
    49c8:	78210000 	stmdavc	r1!, {}	; <UNPREDICTABLE>
    49cc:	29040100 	stmdbcs	r4, {r8}
    49d0:	0000005d 	andeq	r0, r0, sp, asr r0
    49d4:	01007921 	tsteq	r0, r1, lsr #18
    49d8:	005d3504 	subseq	r3, sp, r4, lsl #10
    49dc:	22000000 	andcs	r0, r0, #0, 0
    49e0:	0000063b 	andeq	r0, r0, fp, lsr r6
    49e4:	0000063b 	andeq	r0, r0, fp, lsr r6
    49e8:	22062802 	andcs	r2, r6, #131072	; 0x20000
    49ec:	00000056 	andeq	r0, r0, r6, asr r0
    49f0:	00000056 	andeq	r0, r0, r6, asr r0
    49f4:	22066e02 	andcs	r6, r6, #2, 28
    49f8:	00000b90 	muleq	r0, r0, fp
    49fc:	00000b90 	muleq	r0, r0, fp
    4a00:	22061d02 	andcs	r1, r6, #128	; 0x80
    4a04:	0000003c 	andeq	r0, r0, ip, lsr r0
    4a08:	0000003c 	andeq	r0, r0, ip, lsr r0
    4a0c:	0007f202 	andeq	pc, r7, r2, lsl #4
    4a10:	00000673 	andeq	r0, r0, r3, ror r6
    4a14:	19840004 	stmibne	r4, {r2}
    4a18:	01040000 	mrseq	r0, (UNDEF: 4)
    4a1c:	00000513 	andeq	r0, r0, r3, lsl r5
    4a20:	000be20c 	andeq	lr, fp, ip, lsl #4
    4a24:	0005d900 	andeq	sp, r5, r0, lsl #18
    4a28:	00a2d800 	adceq	sp, r2, r0, lsl #16
    4a2c:	00019800 	andeq	r9, r1, r0, lsl #16
    4a30:	0025b800 	eoreq	fp, r5, r0, lsl #16
    4a34:	07080200 	streq	r0, [r8, -r0, lsl #4]
    4a38:	00000167 	andeq	r0, r0, r7, ror #2
    4a3c:	71070402 	tstvc	r7, r2, lsl #8
    4a40:	03000001 	movweq	r0, #1
    4a44:	6e690504 	cdpvs	5, 6, cr0, cr9, cr4, {0}
    4a48:	2c040074 	stccs	0, cr0, [r4], {116}	; 0x74
    4a4c:	02000000 	andeq	r0, r0, #0, 0
    4a50:	00720601 	rsbseq	r0, r2, r1, lsl #12
    4a54:	02020000 	andeq	r0, r2, #0, 0
    4a58:	00000005 	andeq	r0, r0, r5
    4a5c:	05040200 	streq	r0, [r4, #-512]	; 0xfffffe00
    4a60:	00000033 	andeq	r0, r0, r3, lsr r0
    4a64:	2e050802 	cdpcs	8, 0, cr0, cr5, cr2, {0}
    4a68:	02000000 	andeq	r0, r0, #0, 0
    4a6c:	00700801 	rsbseq	r0, r0, r1, lsl #16
    4a70:	02020000 	andeq	r0, r2, #0, 0
    4a74:	0001b807 	andeq	fp, r1, r7, lsl #16
    4a78:	017e0500 	cmneq	lr, r0, lsl #10
    4a7c:	34030000 	strcc	r0, [r3], #-0
    4a80:	00007519 	andeq	r7, r0, r9, lsl r5
    4a84:	07040200 	streq	r0, [r4, -r0, lsl #4]
    4a88:	0000016c 	andeq	r0, r0, ip, ror #2
    4a8c:	00003306 	andeq	r3, r0, r6, lsl #6
    4a90:	00008b00 	andeq	r8, r0, r0, lsl #22
    4a94:	00330700 	eorseq	r0, r3, r0, lsl #14
    4a98:	08000000 	stmdaeq	r0, {}	; <UNPREDICTABLE>
    4a9c:	0000000a 	andeq	r0, r0, sl
    4aa0:	970e1c02 	strls	r1, [lr, -r2, lsl #24]
    4aa4:	09000000 	stmdbeq	r0, {}	; <UNPREDICTABLE>
    4aa8:	00007c04 	andeq	r7, r0, r4, lsl #24
    4aac:	00330600 	eorseq	r0, r3, r0, lsl #12
    4ab0:	00ac0000 	adceq	r0, ip, r0
    4ab4:	ac070000 	stcge	0, cr0, [r7], {-0}
    4ab8:	00000000 	andeq	r0, r0, r0
    4abc:	00b90409 	adcseq	r0, r9, r9, lsl #8
    4ac0:	01020000 	mrseq	r0, (UNDEF: 2)
    4ac4:	00007908 	andeq	r7, r0, r8, lsl #18
    4ac8:	00b20400 	adcseq	r0, r2, r0, lsl #8
    4acc:	79080000 	stmdbvc	r8, {}	; <UNPREDICTABLE>
    4ad0:	02000006 	andeq	r0, r0, #6, 0
    4ad4:	00ca0e21 	sbceq	r0, sl, r1, lsr #28
    4ad8:	04090000 	streq	r0, [r9], #-0
    4adc:	0000009d 	muleq	r0, sp, r0
    4ae0:	5b01070a 	blpl	46710 <__bss_end__+0x3b448>
    4ae4:	04000000 	streq	r0, [r0], #-0
    4ae8:	010f0e0c 	tsteq	pc, ip, lsl #28
    4aec:	b10b0000 	mrslt	r0, (UNDEF: 11)
    4af0:	0000000a 	andeq	r0, r0, sl
    4af4:	0008e90b 	andeq	lr, r8, fp, lsl #18
    4af8:	2c0b0100 	stfcss	f0, [fp], {-0}
    4afc:	04000009 	streq	r0, [r0], #-9
    4b00:	00093b0b 	andeq	r3, r9, fp, lsl #22
    4b04:	4a0b0500 	bmi	2c5f0c <__bss_end__+0x2bac44>
    4b08:	06000009 	streq	r0, [r0], -r9
    4b0c:	0009590b 	andeq	r5, r9, fp, lsl #18
    4b10:	7a0b0700 	bvc	2c6718 <__bss_end__+0x2bb450>
    4b14:	0300000a 	movweq	r0, #10
    4b18:	0009680b 	andeq	r6, r9, fp, lsl #16
    4b1c:	05000200 	streq	r0, [r0, #-512]	; 0xfffffe00
    4b20:	00000c1b 	andeq	r0, r0, fp, lsl ip
    4b24:	d0031504 	andle	r1, r3, r4, lsl #10
    4b28:	0c000000 	stceq	0, cr0, [r0], {-0}
    4b2c:	00000bb9 			; <UNDEFINED> instruction: 0x00000bb9
    4b30:	3a171d01 	bcc	5cbf3c <__bss_end__+0x5c0c74>
    4b34:	1c000000 	stcne	0, cr0, [r0], {-0}
    4b38:	0c202000 	stceq	0, cr2, [r0], #-0
    4b3c:	00000baf 	andeq	r0, r0, pc, lsr #23
    4b40:	3a171e01 	bcc	5cc34c <__bss_end__+0x5c1084>
    4b44:	28000000 	stmdacs	r0, {}	; <UNPREDICTABLE>
    4b48:	0c202000 	stceq	0, cr2, [r0], #-0
    4b4c:	00000c27 	andeq	r0, r0, r7, lsr #24
    4b50:	3a171f01 	bcc	5cc75c <__bss_end__+0x5c1494>
    4b54:	34000000 	strcc	r0, [r0], #-0
    4b58:	0d202000 	stceq	0, cr2, [r0, #-0]
    4b5c:	00000bd8 	ldrdeq	r0, [r0], -r8
    4b60:	33055101 	movwcc	r5, #20737	; 0x5101
    4b64:	48000000 	stmdami	r0, {}	; <UNPREDICTABLE>
    4b68:	280000a4 	stmdacs	r0, {r2, r5, r7}
    4b6c:	01000000 	mrseq	r0, (UNDEF: 0)
    4b70:	0001ba9c 	muleq	r1, ip, sl
    4b74:	69700e00 	ldmdbvs	r0!, {r9, sl, fp}^
    4b78:	5101006e 	tstpl	r1, lr, rrx
    4b7c:	00002c18 	andeq	r2, r0, r8, lsl ip
    4b80:	002d8c00 	eoreq	r8, sp, r0, lsl #24
    4b84:	002d8600 	eoreq	r8, sp, r0, lsl #12
    4b88:	0c310f00 	ldceq	15, cr0, [r1], #-0
    4b8c:	52010000 	andpl	r0, r1, #0, 0
    4b90:	00002c0e 	andeq	r2, r0, lr, lsl #24
    4b94:	002dc200 	eoreq	ip, sp, r0, lsl #4
    4b98:	002db800 	eoreq	fp, sp, r0, lsl #16
    4b9c:	666f1000 	strbtvs	r1, [pc], -r0
    4ba0:	53010066 	movwpl	r0, #4198	; 0x1066
    4ba4:	00002c0e 	andeq	r2, r0, lr, lsl #24
    4ba8:	002e3000 	eoreq	r3, lr, r0
    4bac:	002e2a00 	eoreq	r2, lr, r0, lsl #20
    4bb0:	a45c1100 	ldrbge	r1, [ip], #-256	; 0xffffff00
    4bb4:	065e0000 	ldrbeq	r0, [lr], -r0
    4bb8:	01120000 	tsteq	r2, r0
    4bbc:	00740a50 	rsbseq	r0, r4, r0, asr sl
    4bc0:	b4232535 	strtlt	r2, [r3], #-1333	; 0xfffffacb
    4bc4:	02818080 	addeq	r8, r1, #128, 0	; 0x80
    4bc8:	c3130000 	tstgt	r3, #0, 0
    4bcc:	0100000b 	tsteq	r0, fp
    4bd0:	a418064a 	ldrge	r0, [r8], #-1610	; 0xfffff9b6
    4bd4:	00300000 	eorseq	r0, r0, r0
    4bd8:	9c010000 	stcls	0, cr0, [r1], {-0}
    4bdc:	00000275 	andeq	r0, r0, r5, ror r2
    4be0:	6e69700e 	cdpvs	0, 6, cr7, cr9, cr14, {0}
    4be4:	1a4a0100 	bne	1284fec <__bss_end__+0x1279d24>
    4be8:	0000002c 	andeq	r0, r0, ip, lsr #32
    4bec:	00002e6d 	andeq	r2, r0, sp, ror #28
    4bf0:	00002e61 	andeq	r2, r0, r1, ror #28
    4bf4:	0100760e 	tsteq	r0, lr, lsl #12
    4bf8:	002c284a 	eoreq	r2, ip, sl, asr #16
    4bfc:	2ec10000 	cdpcs	0, 12, cr0, cr1, cr0, {0}
    4c00:	2ebd0000 	cdpcs	0, 11, cr0, cr13, cr0, {0}
    4c04:	8d140000 	ldchi	0, cr0, [r4, #-0]
    4c08:	28000003 	stmdacs	r0, {r0, r1}
    4c0c:	010000a4 	smlatbeq	r0, r4, r0, r0
    4c10:	00000520 	andeq	r0, r0, r0, lsr #10
    4c14:	35094c01 	strcc	r4, [r9, #-3073]	; 0xfffff3ff
    4c18:	15000002 	strne	r0, [r0, #-2]
    4c1c:	0000039a 	muleq	r0, sl, r3
    4c20:	00002ee8 	andeq	r2, r0, r8, ror #29
    4c24:	00002ee2 	andeq	r2, r0, r2, ror #29
    4c28:	00a43416 	adceq	r3, r4, r6, lsl r4
    4c2c:	00066a00 	andeq	r6, r6, r0, lsl #20
    4c30:	50011200 	andpl	r1, r1, r0, lsl #4
    4c34:	001c0c05 	andseq	r0, ip, r5, lsl #24
    4c38:	01122020 	tsteq	r2, r0, lsr #32
    4c3c:	f3310551 	vqrshl.u64	q0, <illegal reg q0.5>, <illegal reg q0.5>
    4c40:	00245001 	eoreq	r5, r4, r1
    4c44:	03731700 	cmneq	r3, #0, 14
    4c48:	a4340000 	ldrtge	r0, [r4], #-0
    4c4c:	34020000 	strcc	r0, [r2], #-0
    4c50:	140000a4 	strne	r0, [r0], #-164	; 0xffffff5c
    4c54:	01000000 	mrseq	r0, (UNDEF: 0)
    4c58:	8015094e 	andshi	r0, r5, lr, asr #18
    4c5c:	1a000003 	bne	4c70 <__code_start__-0x3390>
    4c60:	1400002f 	strne	r0, [r0], #-47	; 0xffffffd1
    4c64:	1600002f 	strne	r0, [r0], -pc, lsr #32
    4c68:	0000a440 	andeq	sl, r0, r0, asr #8
    4c6c:	0000066a 	andeq	r0, r0, sl, ror #12
    4c70:	05500112 	ldrbeq	r0, [r0, #-274]	; 0xfffffeee
    4c74:	2000280c 	andcs	r2, r0, ip, lsl #16
    4c78:	51011220 	tstpl	r1, r0, lsr #4
    4c7c:	01f33105 	mvnseq	r3, r5, lsl #2
    4c80:	00002450 	andeq	r2, r0, r0, asr r4
    4c84:	0bef1300 	bleq	ffbc988c <__bss_end__+0xffbbe5c4>
    4c88:	45010000 	strmi	r0, [r1, #-0]
    4c8c:	00a3c006 	adceq	ip, r3, r6
    4c90:	00005800 	andeq	r5, r0, r0, lsl #16
    4c94:	739c0100 	orrsvc	r0, ip, #0
    4c98:	0e000003 	cdpeq	0, 0, cr0, cr0, cr3, {0}
    4c9c:	006e6970 	rsbeq	r6, lr, r0, ror r9
    4ca0:	2c1e4501 	cfldr32cs	mvfx4, [lr], {1}
    4ca4:	4c000000 	stcmi	0, cr0, [r0], {-0}
    4ca8:	4600002f 	strmi	r0, [r0], -pc, lsr #32
    4cac:	1800002f 	stmdane	r0, {r0, r1, r2, r3, r5}
    4cb0:	000004a5 	andeq	r0, r0, r5, lsr #9
    4cb4:	0000a3c0 	andeq	sl, r0, r0, asr #7
    4cb8:	0004e002 	andeq	lr, r4, r2
    4cbc:	05460100 	strbeq	r0, [r6, #-256]	; 0xffffff00
    4cc0:	0004be19 	andeq	fp, r4, r9, lsl lr
    4cc4:	b2150000 	andslt	r0, r5, #0, 0
    4cc8:	7e000004 	cdpvc	0, 0, cr0, cr0, cr4, {0}
    4ccc:	7800002f 	stmdavc	r0, {r0, r1, r2, r3, r5}
    4cd0:	1a00002f 	bne	4d94 <__code_start__-0x326c>
    4cd4:	000004e0 	andeq	r0, r0, r0, ror #9
    4cd8:	0004ca1b 	andeq	ip, r4, fp, lsl sl
    4cdc:	04d61b00 	ldrbeq	r1, [r6], #2816	; 0xb00
    4ce0:	e01b0000 	ands	r0, fp, r0
    4ce4:	18000004 	stmdane	r0, {r2}
    4ce8:	000004a5 	andeq	r0, r0, r5, lsr #9
    4cec:	0000a3c8 	andeq	sl, r0, r8, asr #7
    4cf0:	00050000 	andeq	r0, r5, r0
    4cf4:	06280100 	strteq	r0, [r8], -r0, lsl #2
    4cf8:	0004be19 	andeq	fp, r4, r9, lsl lr
    4cfc:	b2150000 	andslt	r0, r5, #0, 0
    4d00:	b0000004 	andlt	r0, r0, r4
    4d04:	aa00002f 	bge	4dc8 <__code_start__-0x3238>
    4d08:	1a00002f 	bne	4dcc <__code_start__-0x3234>
    4d0c:	00000500 	andeq	r0, r0, r0, lsl #10
    4d10:	0004ca1c 	andeq	ip, r4, ip, lsl sl
    4d14:	002fe200 	eoreq	lr, pc, r0, lsl #4
    4d18:	002fdc00 	eoreq	sp, pc, r0, lsl #24
    4d1c:	04d61c00 	ldrbeq	r1, [r6], #3072	; 0xc00
    4d20:	30240000 	eorcc	r0, r4, r0
    4d24:	301e0000 	andscc	r0, lr, r0
    4d28:	e01c0000 	ands	r0, ip, r0
    4d2c:	7a000004 	bvc	4d44 <__code_start__-0x32bc>
    4d30:	72000030 	andvc	r0, r0, #48, 0	; 0x30
    4d34:	1d000030 	stcne	0, cr0, [r0, #-192]	; 0xffffff40
    4d38:	0000a3f0 	strdeq	sl, [r0], -r0
    4d3c:	0000065e 	andeq	r0, r0, lr, asr r6
    4d40:	0000033b 	andeq	r0, r0, fp, lsr r3
    4d44:	02500112 	subseq	r0, r0, #-2147483644	; 0x80000004
    4d48:	16000076 			; <UNDEFINED> instruction: 0x16000076
    4d4c:	0000a414 	andeq	sl, r0, r4, lsl r4
    4d50:	0000066a 	andeq	r0, r0, sl, ror #12
    4d54:	25500112 	ldrbcs	r0, [r0, #-274]	; 0xfffffeee
    4d58:	f75001f3 			; <UNDEFINED> instruction: 0xf75001f3
    4d5c:	f425f72c 	vld1.8	{d15}, [r5 :128], ip
    4d60:	cccd0825 	stclgt	8, cr0, [sp], {37}	; 0x25
    4d64:	0000cccc 	andeq	ip, r0, ip, asr #25
    4d68:	081e0000 	ldmdaeq	lr, {}	; <UNPREDICTABLE>
    4d6c:	2525f720 	strcs	pc, [r5, #-1824]!	; 0xfffff8e0
    4d70:	00f72cf7 	ldrshteq	r2, [r7], #199	; 0xc7
    4d74:	80232533 	eorhi	r2, r3, r3, lsr r5
    4d78:	3240a080 	subcc	sl, r0, #128, 0	; 0x80
    4d7c:	00000024 	andeq	r0, r0, r4, lsr #32
    4d80:	1e000000 	cdpne	0, 0, cr0, cr0, cr0, {0}
    4d84:	00000bfe 	strdeq	r0, [r0], -lr
    4d88:	030d4001 	movweq	r4, #53249	; 0xd001
    4d8c:	0000038d 	andeq	r0, r0, sp, lsl #7
    4d90:	6e69701f 	mcrvs	0, 3, r7, cr9, cr15, {0}
    4d94:	23400100 	movtcs	r0, #256	; 0x100
    4d98:	0000002c 	andeq	r0, r0, ip, lsr #32
    4d9c:	0c361e00 	ldceq	14, cr1, [r6], #-0
    4da0:	3b010000 	blcc	44da8 <__bss_end__+0x39ae0>
    4da4:	03a7030d 			; <UNDEFINED> instruction: 0x03a7030d
    4da8:	701f0000 	andsvc	r0, pc, r0
    4dac:	01006e69 	tsteq	r0, r9, ror #28
    4db0:	002c223b 	eoreq	r2, ip, fp, lsr r2
    4db4:	13000000 	movwne	r0, #0
    4db8:	00000c0b 	andeq	r0, r0, fp, lsl #24
    4dbc:	38063601 	stmdacc	r6, {r0, r9, sl, ip, sp}
    4dc0:	580000a3 	stmdapl	r0, {r0, r1, r5, r7}
    4dc4:	01000000 	mrseq	r0, (UNDEF: 0)
    4dc8:	0004a59c 	muleq	r4, ip, r5
    4dcc:	69700e00 	ldmdbvs	r0!, {r9, sl, fp}^
    4dd0:	3601006e 	strcc	r0, [r1], -lr, rrx
    4dd4:	00002c1f 	andeq	r2, r0, pc, lsl ip
    4dd8:	0030d800 	eorseq	sp, r0, r0, lsl #16
    4ddc:	0030d400 	eorseq	sp, r0, r0, lsl #8
    4de0:	04a51800 	strteq	r1, [r5], #2048	; 0x800
    4de4:	a3380000 	teqge	r8, #0, 0
    4de8:	a0020000 	andge	r0, r2, r0
    4dec:	01000004 	tsteq	r0, r4
    4df0:	be190537 	mrclt	5, 0, r0, cr9, cr7, {1}
    4df4:	01000004 	tsteq	r0, r4
    4df8:	0004b215 	andeq	fp, r4, r5, lsl r2
    4dfc:	0030fd00 	eorseq	pc, r0, r0, lsl #26
    4e00:	0030f900 	eorseq	pc, r0, r0, lsl #18
    4e04:	04a01a00 	strteq	r1, [r0], #2560	; 0xa00
    4e08:	ca1b0000 	bgt	6c4e10 <__bss_end__+0x6b9b48>
    4e0c:	1b000004 	blne	4e24 <__code_start__-0x31dc>
    4e10:	000004d6 	ldrdeq	r0, [r0], -r6
    4e14:	0004e01b 	andeq	lr, r4, fp, lsl r0
    4e18:	04a51800 	strteq	r1, [r5], #2048	; 0x800
    4e1c:	a3400000 	movtge	r0, #0
    4e20:	c0000000 	andgt	r0, r0, r0
    4e24:	01000004 	tsteq	r0, r4
    4e28:	be190628 	cfmsub32lt	mvax1, mvfx0, mvfx9, mvfx8
    4e2c:	01000004 	tsteq	r0, r4
    4e30:	0004b215 	andeq	fp, r4, r5, lsl r2
    4e34:	00312200 	eorseq	r2, r1, r0, lsl #4
    4e38:	00311e00 	eorseq	r1, r1, r0, lsl #28
    4e3c:	04c01a00 	strbeq	r1, [r0], #2560	; 0xa00
    4e40:	ca1c0000 	bgt	704e48 <__bss_end__+0x6f9b80>
    4e44:	47000004 	strmi	r0, [r0, -r4]
    4e48:	43000031 	movwmi	r0, #49	; 0x31
    4e4c:	1c000031 	stcne	0, cr0, [r0], {49}	; 0x31
    4e50:	000004d6 	ldrdeq	r0, [r0], -r6
    4e54:	00003193 	muleq	r0, r3, r1
    4e58:	0000318d 	andeq	r3, r0, sp, lsl #3
    4e5c:	0004e01c 	andeq	lr, r4, ip, lsl r0
    4e60:	0031e900 	eorseq	lr, r1, r0, lsl #18
    4e64:	0031e100 	eorseq	lr, r1, r0, lsl #2
    4e68:	a36c1d00 	cmnge	ip, #0, 26
    4e6c:	065e0000 	ldrbeq	r0, [lr], -r0
    4e70:	046d0000 	strbteq	r0, [sp], #-0
    4e74:	01120000 	tsteq	r2, r0
    4e78:	00750250 	rsbseq	r0, r5, r0, asr r2
    4e7c:	a38c1600 	orrge	r1, ip, #0, 12
    4e80:	066a0000 	strbteq	r0, [sl], -r0
    4e84:	01120000 	tsteq	r2, r0
    4e88:	01f32550 	mvnseq	r2, r0, asr r5
    4e8c:	f72cf750 			; <UNDEFINED> instruction: 0xf72cf750
    4e90:	0825f425 	stmdaeq	r5!, {r0, r2, r5, sl, ip, sp, lr, pc}
    4e94:	cccccccd 	stclgt	12, cr12, [ip], {205}	; 0xcd
    4e98:	00000000 	andeq	r0, r0, r0
    4e9c:	f720081e 			; <UNDEFINED> instruction: 0xf720081e
    4ea0:	2cf72525 	cfldr64cs	mvdx2, [r7], #148	; 0x94
    4ea4:	253300f7 	ldrcs	r0, [r3, #-247]!	; 0xffffff09
    4ea8:	a0808023 	addge	r8, r0, r3, lsr #32
    4eac:	00243240 	eoreq	r3, r4, r0, asr #4
    4eb0:	00000000 	andeq	r0, r0, r0
    4eb4:	0ac11e00 	beq	ff04c6bc <__bss_end__+0xff0413f4>
    4eb8:	28010000 	stmdacs	r1, {}	; <UNPREDICTABLE>
    4ebc:	04eb0106 	strbteq	r0, [fp], #262	; 0x106
    4ec0:	701f0000 	andsvc	r0, pc, r0
    4ec4:	01006e69 	tsteq	r0, r9, ror #28
    4ec8:	002c2128 	eoreq	r2, ip, r8, lsr #2
    4ecc:	29200000 	stmdbcs	r0!, {}	; <UNPREDICTABLE>
    4ed0:	01000000 	mrseq	r0, (UNDEF: 0)
    4ed4:	010f3228 	tsteq	pc, r8, lsr #4
    4ed8:	6f210000 	svcvs	0x00210000
    4edc:	01006666 	tsteq	r0, r6, ror #12
    4ee0:	002c0e2d 	eoreq	r0, ip, sp, lsr #28
    4ee4:	67210000 	strvs	r0, [r1, -r0]!
    4ee8:	0e2e0100 	sufeqe	f0, f6, f0
    4eec:	0000002c 	andeq	r0, r0, ip, lsr #32
    4ef0:	01007621 	tsteq	r0, r1, lsr #12
    4ef4:	002c0e30 	eoreq	r0, ip, r0, lsr lr
    4ef8:	22000000 	andcs	r0, r0, #0, 0
    4efc:	00000bce 	andeq	r0, r0, lr, asr #23
    4f00:	6918b102 	ldmdbvs	r8, {r1, r8, ip, sp, pc}
    4f04:	03000000 	movweq	r0, #0
    4f08:	00000507 	andeq	r0, r0, r7, lsl #10
    4f0c:	0200781f 	andeq	r7, r0, #2031616	; 0x1f0000
    4f10:	00692bb1 	strhteq	r2, [r9], #-177	; 0xffffff4f
    4f14:	23000000 	movwcs	r0, #0
    4f18:	000004a5 	andeq	r0, r0, r5, lsr #9
    4f1c:	0000a2d8 	ldrdeq	sl, [r0], -r8
    4f20:	00000060 	andeq	r0, r0, r0, rrx
    4f24:	05e49c01 	strbeq	r9, [r4, #3073]!	; 0xc01
    4f28:	b2150000 	andslt	r0, r5, #0, 0
    4f2c:	28000004 	stmdacs	r0, {r2}
    4f30:	24000032 	strcs	r0, [r0], #-50	; 0xffffffce
    4f34:	15000032 	strne	r0, [r0, #-50]	; 0xffffffce
    4f38:	000004be 			; <UNDEFINED> instruction: 0x000004be
    4f3c:	0000324d 	andeq	r3, r0, sp, asr #4
    4f40:	00003249 	andeq	r3, r0, r9, asr #4
    4f44:	0004ca1b 	andeq	ip, r4, fp, lsl sl
    4f48:	04d61b00 	ldrbeq	r1, [r6], #2816	; 0xb00
    4f4c:	e01b0000 	ands	r0, fp, r0
    4f50:	18000004 	stmdane	r0, {r2}
    4f54:	000004a5 	andeq	r0, r0, r5, lsr #9
    4f58:	0000a2e0 	andeq	sl, r0, r0, ror #5
    4f5c:	00048000 	andeq	r8, r4, r0
    4f60:	06280100 	strteq	r0, [r8], -r0, lsl #2
    4f64:	0004be15 	andeq	fp, r4, r5, lsl lr
    4f68:	00327200 	eorseq	r7, r2, r0, lsl #4
    4f6c:	00326e00 	eorseq	r6, r2, r0, lsl #28
    4f70:	04b21500 	ldrteq	r1, [r2], #1280	; 0x500
    4f74:	32970000 	addscc	r0, r7, #0, 0
    4f78:	32930000 	addscc	r0, r3, #0, 0
    4f7c:	801a0000 	andshi	r0, sl, r0
    4f80:	1c000004 	stcne	0, cr0, [r0], {4}
    4f84:	000004ca 	andeq	r0, r0, sl, asr #9
    4f88:	000032bc 			; <UNDEFINED> instruction: 0x000032bc
    4f8c:	000032b8 			; <UNDEFINED> instruction: 0x000032b8
    4f90:	0004d61c 	andeq	sp, r4, ip, lsl r6
    4f94:	00330800 	eorseq	r0, r3, r0, lsl #16
    4f98:	00330200 	eorseq	r0, r3, r0, lsl #4
    4f9c:	04e01c00 	strbteq	r1, [r0], #3072	; 0xc00
    4fa0:	335e0000 	cmpcc	lr, #0, 0
    4fa4:	33560000 	cmpcc	r6, #0, 0
    4fa8:	181d0000 	ldmdane	sp, {}	; <UNPREDICTABLE>
    4fac:	5e0000a3 	cdppl	0, 0, cr0, cr0, cr3, {5}
    4fb0:	ae000006 	cdpge	0, 0, cr0, cr0, cr6, {0}
    4fb4:	12000005 	andne	r0, r0, #5, 0
    4fb8:	76025001 	strvc	r5, [r2], -r1
    4fbc:	34160000 	ldrcc	r0, [r6], #-0
    4fc0:	6a0000a3 	bvs	5254 <__code_start__-0x2dac>
    4fc4:	12000006 	andne	r0, r0, #6, 0
    4fc8:	f3255001 	vhadd.u32	d5, d5, d1
    4fcc:	2cf75001 	ldclcs	0, cr5, [r7], #4
    4fd0:	25f425f7 	ldrbcs	r2, [r4, #1527]!	; 0x5f7
    4fd4:	cccccd08 	stclgt	13, cr12, [ip], {8}
    4fd8:	000000cc 	andeq	r0, r0, ip, asr #1
    4fdc:	20081e00 	andcs	r1, r8, r0, lsl #28
    4fe0:	f72525f7 			; <UNDEFINED> instruction: 0xf72525f7
    4fe4:	3300f72c 	movwcc	pc, #1836	; 0x72c	; <UNPREDICTABLE>
    4fe8:	80802325 	addhi	r2, r0, r5, lsr #6
    4fec:	243240a0 	ldrtcs	r4, [r2], #-160	; 0xffffff60
    4ff0:	00000000 	andeq	r0, r0, r0
    4ff4:	00038d23 	andeq	r8, r3, r3, lsr #26
    4ff8:	00a39000 	adceq	r9, r3, r0
    4ffc:	00001800 	andeq	r1, r0, r0, lsl #16
    5000:	219c0100 	orrscs	r0, ip, r0, lsl #2
    5004:	15000006 	strne	r0, [r0, #-6]
    5008:	0000039a 	muleq	r0, sl, r3
    500c:	000033b4 			; <UNDEFINED> instruction: 0x000033b4
    5010:	000033ae 	andeq	r3, r0, lr, lsr #7
    5014:	00a3a416 	adceq	sl, r3, r6, lsl r4
    5018:	00066a00 	andeq	r6, r6, r0, lsl #20
    501c:	50011200 	andpl	r1, r1, r0, lsl #4
    5020:	001c0c05 	andseq	r0, ip, r5, lsl #24
    5024:	01122020 	tsteq	r2, r0, lsr #32
    5028:	f3310551 	vqrshl.u64	q0, <illegal reg q0.5>, <illegal reg q0.5>
    502c:	00245001 	eoreq	r5, r4, r1
    5030:	03732300 	cmneq	r3, #0, 6
    5034:	a3a80000 			; <UNDEFINED> instruction: 0xa3a80000
    5038:	00180000 	andseq	r0, r8, r0
    503c:	9c010000 	stcls	0, cr0, [r1], {-0}
    5040:	0000065e 	andeq	r0, r0, lr, asr r6
    5044:	00038015 	andeq	r8, r3, r5, lsl r0
    5048:	0033e600 	eorseq	lr, r3, r0, lsl #12
    504c:	0033e000 	eorseq	lr, r3, r0
    5050:	a3bc1600 			; <UNDEFINED> instruction: 0xa3bc1600
    5054:	066a0000 	strbteq	r0, [sl], -r0
    5058:	01120000 	tsteq	r2, r0
    505c:	280c0550 	stmdacs	ip, {r4, r6, r8, sl}
    5060:	12202000 	eorne	r2, r0, #0, 0
    5064:	31055101 	tstcc	r5, r1, lsl #2
    5068:	245001f3 	ldrbcs	r0, [r0], #-499	; 0xfffffe0d
    506c:	96240000 	strtls	r0, [r4], -r0
    5070:	96000008 	strls	r0, [r0], -r8
    5074:	02000008 	andeq	r0, r0, #8, 0
    5078:	23240ac2 			; <UNDEFINED> instruction: 0x23240ac2
    507c:	23000000 	movwcs	r0, #0
    5080:	02000000 	andeq	r0, r0, #0, 0
    5084:	490006ad 	stmdbmi	r0, {r0, r2, r3, r5, r7, r9, sl}
    5088:	04000001 	streq	r0, [r0], #-1
    508c:	001bb200 	andseq	fp, fp, r0, lsl #4
    5090:	13010400 	movwne	r0, #5120	; 0x1400
    5094:	0c000005 	stceq	0, cr0, [r0], {5}
    5098:	00000c60 	andeq	r0, r0, r0, ror #24
    509c:	000005d9 	ldrdeq	r0, [r0], -r9
    50a0:	0000a470 	andeq	sl, r0, r0, ror r4
    50a4:	0000003c 	andeq	r0, r0, ip, lsr r0
    50a8:	00002845 	andeq	r2, r0, r5, asr #16
    50ac:	69050402 	stmdbvs	r5, {r1, sl}
    50b0:	0300746e 	movweq	r7, #1134	; 0x46e
    50b4:	01710704 	cmneq	r1, r4, lsl #14
    50b8:	01030000 	mrseq	r0, (UNDEF: 3)
    50bc:	00007206 	andeq	r7, r0, r6, lsl #4
    50c0:	05020300 	streq	r0, [r2, #-768]	; 0xfffffd00
    50c4:	00000000 	andeq	r0, r0, r0
    50c8:	33050403 	movwcc	r0, #21507	; 0x5403
    50cc:	03000000 	movweq	r0, #0
    50d0:	002e0508 	eoreq	r0, lr, r8, lsl #10
    50d4:	01030000 	mrseq	r0, (UNDEF: 3)
    50d8:	00007008 	andeq	r7, r0, r8
    50dc:	07020300 	streq	r0, [r2, -r0, lsl #6]
    50e0:	000001b8 			; <UNDEFINED> instruction: 0x000001b8
    50e4:	6c070403 	cfstrsvs	mvf0, [r7], {3}
    50e8:	03000001 	movweq	r0, #1
    50ec:	01670708 	cmneq	r7, r8, lsl #14
    50f0:	25040000 	strcs	r0, [r4, #-0]
    50f4:	7a000000 	bvc	50fc <__code_start__-0x2f04>
    50f8:	05000000 	streq	r0, [r0, #-0]
    50fc:	00000025 	andeq	r0, r0, r5, lsr #32
    5100:	000a0600 	andeq	r0, sl, r0, lsl #12
    5104:	1c020000 	stcne	0, cr0, [r2], {-0}
    5108:	0000860e 	andeq	r8, r0, lr, lsl #12
    510c:	6b040700 	blvs	106d14 <__bss_end__+0xfba4c>
    5110:	04000000 	streq	r0, [r0], #-0
    5114:	00000025 	andeq	r0, r0, r5, lsr #32
    5118:	0000009b 	muleq	r0, fp, r0
    511c:	00009b05 	andeq	r9, r0, r5, lsl #22
    5120:	04070000 	streq	r0, [r7], #-0
    5124:	000000a8 	andeq	r0, r0, r8, lsr #1
    5128:	79080103 	stmdbvc	r8, {r0, r1, r8}
    512c:	08000000 	stmdaeq	r0, {}	; <UNPREDICTABLE>
    5130:	000000a1 	andeq	r0, r0, r1, lsr #1
    5134:	00067906 	andeq	r7, r6, r6, lsl #18
    5138:	0e210200 	cdpeq	2, 2, cr0, cr1, cr0, {0}
    513c:	000000b9 	strheq	r0, [r0], -r9
    5140:	008c0407 	addeq	r0, ip, r7, lsl #8
    5144:	7a090000 	bvc	24514c <__bss_end__+0x239e84>
    5148:	01000000 	mrseq	r0, (UNDEF: 0)
    514c:	03050706 	movweq	r0, #22278	; 0x5706
    5150:	0000ae94 	muleq	r0, r4, lr
    5154:	000c530a 	andeq	r5, ip, sl, lsl #6
    5158:	060b0100 	streq	r0, [fp], -r0, lsl #2
    515c:	0000a49c 	muleq	r0, ip, r4
    5160:	00000010 	andeq	r0, r0, r0, lsl r0
    5164:	00f19c01 	rscseq	r9, r1, r1, lsl #24
    5168:	660b0000 	strvs	r0, [fp], -r0
    516c:	0b010070 	bleq	45334 <__bss_end__+0x3a06c>
    5170:	00008619 	andeq	r8, r0, r9, lsl r6
    5174:	00500100 	subseq	r0, r0, r0, lsl #2
    5178:	000b900c 	andeq	r9, fp, ip
    517c:	06080100 	streq	r0, [r8], -r0, lsl #2
    5180:	0000a484 	andeq	sl, r0, r4, lsl #9
    5184:	00000018 	andeq	r0, r0, r8, lsl r0
    5188:	420d9c01 	andmi	r9, sp, #256	; 0x100
    518c:	0100000c 	tsteq	r0, ip
    5190:	00250c03 	eoreq	r0, r5, r3, lsl #24
    5194:	a4700000 	ldrbtge	r0, [r0], #-0
    5198:	00140000 	andseq	r0, r4, r0
    519c:	9c010000 	stcls	0, cr0, [r1], {-0}
    51a0:	00000140 	andeq	r0, r0, r0, asr #2
    51a4:	0100630e 	tsteq	r0, lr, lsl #6
    51a8:	00252103 	eoreq	r2, r5, r3, lsl #2
    51ac:	34160000 	ldrcc	r0, [r6], #-0
    51b0:	34120000 	ldrcc	r0, [r2], #-0
    51b4:	7c0f0000 	stcvc	0, cr0, [pc], {-0}
    51b8:	400000a4 	andmi	r0, r0, r4, lsr #1
    51bc:	10000001 	andne	r0, r0, r1
    51c0:	74025001 	strvc	r5, [r2], #-1
    51c4:	11000000 	mrsne	r0, (UNDEF: 0)
    51c8:	00000aa7 	andeq	r0, r0, r7, lsr #21
    51cc:	00000aa7 	andeq	r0, r0, r7, lsr #21
    51d0:	00064202 	andeq	r4, r6, r2, lsl #4
    51d4:	00000137 	andeq	r0, r0, r7, lsr r1
    51d8:	1cc10004 	stclne	0, cr0, [r1], {4}
    51dc:	01040000 	mrseq	r0, (UNDEF: 4)
    51e0:	00000513 	andeq	r0, r0, r3, lsl r5
    51e4:	000c710c 	andeq	r7, ip, ip, lsl #2
    51e8:	0005d900 	andeq	sp, r5, r0, lsl #18
    51ec:	00a4ac00 	adceq	sl, r4, r0, lsl #24
    51f0:	00002c00 	andeq	r2, r0, r0, lsl #24
    51f4:	0028e700 	eoreq	lr, r8, r0, lsl #14
    51f8:	05040200 	streq	r0, [r4, #-512]	; 0xfffffe00
    51fc:	00746e69 	rsbseq	r6, r4, r9, ror #28
    5200:	71070403 	tstvc	r7, r3, lsl #8
    5204:	03000001 	movweq	r0, #1
    5208:	00720601 	rsbseq	r0, r2, r1, lsl #12
    520c:	02030000 	andeq	r0, r3, #0, 0
    5210:	00000005 	andeq	r0, r0, r5
    5214:	05040300 	streq	r0, [r4, #-768]	; 0xfffffd00
    5218:	00000033 	andeq	r0, r0, r3, lsr r0
    521c:	2e050803 	cdpcs	8, 0, cr0, cr5, cr3, {0}
    5220:	03000000 	movweq	r0, #0
    5224:	00700801 	rsbseq	r0, r0, r1, lsl #16
    5228:	02030000 	andeq	r0, r3, #0, 0
    522c:	0001b807 	andeq	fp, r1, r7, lsl #16
    5230:	07040300 	streq	r0, [r4, -r0, lsl #6]
    5234:	0000016c 	andeq	r0, r0, ip, ror #2
    5238:	67070803 	strvs	r0, [r7, -r3, lsl #16]
    523c:	04000001 	streq	r0, [r0], #-1
    5240:	00000025 	andeq	r0, r0, r5, lsr #32
    5244:	0000007a 	andeq	r0, r0, sl, ror r0
    5248:	00002505 	andeq	r2, r0, r5, lsl #10
    524c:	0a060000 	beq	185254 <__bss_end__+0x179f8c>
    5250:	02000000 	andeq	r0, r0, #0, 0
    5254:	00860e1c 	addeq	r0, r6, ip, lsl lr
    5258:	04070000 	streq	r0, [r7], #-0
    525c:	0000006b 	andeq	r0, r0, fp, rrx
    5260:	00002504 	andeq	r2, r0, r4, lsl #10
    5264:	00009b00 	andeq	r9, r0, r0, lsl #22
    5268:	009b0500 	addseq	r0, fp, r0, lsl #10
    526c:	07000000 	streq	r0, [r0, -r0]
    5270:	0000a804 	andeq	sl, r0, r4, lsl #16
    5274:	08010300 	stmdaeq	r1, {r8, r9}
    5278:	00000079 	andeq	r0, r0, r9, ror r0
    527c:	0000a108 	andeq	sl, r0, r8, lsl #2
    5280:	06790600 	ldrbteq	r0, [r9], -r0, lsl #12
    5284:	21020000 	mrscs	r0, (UNDEF: 2)
    5288:	0000b90e 	andeq	fp, r0, lr, lsl #18
    528c:	8c040700 	stchi	7, cr0, [r4], {-0}
    5290:	09000000 	stmdbeq	r0, {}	; <UNPREDICTABLE>
    5294:	000006e6 	andeq	r0, r0, r6, ror #13
    5298:	34070401 	strcc	r0, [r7], #-1025	; 0xfffffbff
    529c:	ac000001 	stcge	0, cr0, [r0], {1}
    52a0:	2c0000a4 	stccs	0, cr0, [r0], {164}	; 0xa4
    52a4:	01000000 	mrseq	r0, (UNDEF: 0)
    52a8:	0001349c 	muleq	r1, ip, r4
    52ac:	0c810a00 	vstmiaeq	r1, {s0-s-1}
    52b0:	04010000 	streq	r0, [r1], #-0
    52b4:	00013415 	andeq	r3, r1, r5, lsl r4
    52b8:	0b500100 	bleq	14056c0 <__bss_end__+0x13fa3f8>
    52bc:	00637273 	rsbeq	r7, r3, r3, ror r2
    52c0:	9b270401 	blls	9c62cc <__bss_end__+0x9bb004>
    52c4:	38000000 	stmdacc	r0, {}	; <UNPREDICTABLE>
    52c8:	34000034 	strcc	r0, [r0], #-52	; 0xffffffcc
    52cc:	0c000034 	stceq	0, cr0, [r0], {52}	; 0x34
    52d0:	01003173 	tsteq	r0, r3, ror r1
    52d4:	01340b05 	teqeq	r4, r5, lsl #22
    52d8:	34670000 	strbtcc	r0, [r7], #-0
    52dc:	34590000 	ldrbcc	r0, [r9], #-0
    52e0:	730c0000 	movwvc	r0, #49152	; 0xc000
    52e4:	06010032 			; <UNDEFINED> instruction: 0x06010032
    52e8:	00009b11 	andeq	r9, r0, r1, lsl fp
    52ec:	0034c600 	eorseq	ip, r4, r0, lsl #12
    52f0:	0034c000 	eorseq	ip, r4, r0
    52f4:	00630c00 	rsbeq	r0, r3, r0, lsl #24
    52f8:	a10a0701 	tstge	sl, r1, lsl #14
    52fc:	f7000000 			; <UNDEFINED> instruction: 0xf7000000
    5300:	f1000034 			; <UNDEFINED> instruction: 0xf1000034
    5304:	00000034 	andeq	r0, r0, r4, lsr r0
    5308:	00a10407 	adceq	r0, r1, r7, lsl #8
    530c:	f7000000 			; <UNDEFINED> instruction: 0xf7000000
    5310:	04000000 	streq	r0, [r0], #-0
    5314:	001d7700 	andseq	r7, sp, r0, lsl #14
    5318:	13010400 	movwne	r0, #5120	; 0x1400
    531c:	0c000005 	stceq	0, cr0, [r0], {5}
    5320:	00000c86 	andeq	r0, r0, r6, lsl #25
    5324:	000005d9 	ldrdeq	r0, [r0], -r9
    5328:	0000a4d8 	ldrdeq	sl, [r0], -r8
    532c:	00000044 	andeq	r0, r0, r4, asr #32
    5330:	000029cd 	andeq	r2, r0, sp, asr #19
    5334:	69050402 	stmdbvs	r5, {r1, sl}
    5338:	0300746e 	movweq	r7, #1134	; 0x46e
    533c:	01710704 	cmneq	r1, r4, lsl #14
    5340:	01030000 	mrseq	r0, (UNDEF: 3)
    5344:	00007206 	andeq	r7, r0, r6, lsl #4
    5348:	05020300 	streq	r0, [r2, #-768]	; 0xfffffd00
    534c:	00000000 	andeq	r0, r0, r0
    5350:	33050403 	movwcc	r0, #21507	; 0x5403
    5354:	03000000 	movweq	r0, #0
    5358:	002e0508 	eoreq	r0, lr, r8, lsl #10
    535c:	01030000 	mrseq	r0, (UNDEF: 3)
    5360:	00007008 	andeq	r7, r0, r8
    5364:	07020300 	streq	r0, [r2, -r0, lsl #6]
    5368:	000001b8 			; <UNDEFINED> instruction: 0x000001b8
    536c:	6c070403 	cfstrsvs	mvf0, [r7], {3}
    5370:	03000001 	movweq	r0, #1
    5374:	01670708 	cmneq	r7, r8, lsl #14
    5378:	25040000 	strcs	r0, [r4, #-0]
    537c:	7a000000 	bvc	5384 <__code_start__-0x2c7c>
    5380:	05000000 	streq	r0, [r0, #-0]
    5384:	00000025 	andeq	r0, r0, r5, lsr #32
    5388:	000a0600 	andeq	r0, sl, r0, lsl #12
    538c:	1c020000 	stcne	0, cr0, [r2], {-0}
    5390:	0000860e 	andeq	r8, r0, lr, lsl #12
    5394:	6b040700 	blvs	106f9c <__bss_end__+0xfbcd4>
    5398:	04000000 	streq	r0, [r0], #-0
    539c:	00000025 	andeq	r0, r0, r5, lsr #32
    53a0:	0000009b 	muleq	r0, fp, r0
    53a4:	00009b05 	andeq	r9, r0, r5, lsl #22
    53a8:	04070000 	streq	r0, [r7], #-0
    53ac:	000000a8 	andeq	r0, r0, r8, lsr #1
    53b0:	79080103 	stmdbvc	r8, {r0, r1, r8}
    53b4:	08000000 	stmdaeq	r0, {}	; <UNPREDICTABLE>
    53b8:	000000a1 	andeq	r0, r0, r1, lsr #1
    53bc:	00067906 	andeq	r7, r6, r6, lsl #18
    53c0:	0e210200 	cdpeq	2, 2, cr0, cr1, cr0, {0}
    53c4:	000000b9 	strheq	r0, [r0], -r9
    53c8:	008c0407 	addeq	r0, ip, r7, lsl #8
    53cc:	14090000 	strne	r0, [r9], #-0
    53d0:	01000007 	tsteq	r0, r7
    53d4:	00250503 	eoreq	r0, r5, r3, lsl #10
    53d8:	a4d80000 	ldrbge	r0, [r8], #0
    53dc:	00440000 	subeq	r0, r4, r0
    53e0:	9c010000 	stcls	0, cr0, [r1], {-0}
    53e4:	0100610a 	tsteq	r0, sl, lsl #2
    53e8:	009b1803 	addseq	r1, fp, r3, lsl #16
    53ec:	352e0000 	strcc	r0, [lr, #-0]!
    53f0:	35220000 	strcc	r0, [r2, #-0]!
    53f4:	620a0000 	andvs	r0, sl, #0, 0
    53f8:	27030100 	strcs	r0, [r3, -r0, lsl #2]
    53fc:	0000009b 	muleq	r0, fp, r0
    5400:	00003582 	andeq	r3, r0, r2, lsl #11
    5404:	0000357c 	andeq	r3, r0, ip, ror r5
    5408:	010f0000 	mrseq	r0, CPSR
    540c:	00040000 	andeq	r0, r4, r0
    5410:	00001e06 	andeq	r1, r0, r6, lsl #28
    5414:	05130104 	ldreq	r0, [r3, #-260]	; 0xfffffefc
    5418:	960c0000 	strls	r0, [ip], -r0
    541c:	d900000c 	stmdble	r0, {r2, r3}
    5420:	1c000005 	stcne	0, cr0, [r0], {5}
    5424:	180000a5 	stmdane	r0, {r0, r2, r5, r7}
    5428:	83000000 	movwhi	r0, #0
    542c:	0200002a 	andeq	r0, r0, #42, 0	; 0x2a
    5430:	6e690504 	cdpvs	5, 6, cr0, cr9, cr4, {0}
    5434:	04030074 	streq	r0, [r3], #-116	; 0xffffff8c
    5438:	00017107 	andeq	r7, r1, r7, lsl #2
    543c:	06010300 	streq	r0, [r1], -r0, lsl #6
    5440:	00000072 	andeq	r0, r0, r2, ror r0
    5444:	00050203 	andeq	r0, r5, r3, lsl #4
    5448:	03000000 	movweq	r0, #0
    544c:	00330504 	eorseq	r0, r3, r4, lsl #10
    5450:	08030000 	stmdaeq	r3, {}	; <UNPREDICTABLE>
    5454:	00002e05 	andeq	r2, r0, r5, lsl #28
    5458:	08010300 	stmdaeq	r1, {r8, r9}
    545c:	00000070 	andeq	r0, r0, r0, ror r0
    5460:	b8070203 	stmdalt	r7, {r0, r1, r9}
    5464:	03000001 	movweq	r0, #1
    5468:	016c0704 	cmneq	ip, r4, lsl #14
    546c:	08030000 	stmdaeq	r3, {}	; <UNPREDICTABLE>
    5470:	00016707 	andeq	r6, r1, r7, lsl #14
    5474:	00250400 	eoreq	r0, r5, r0, lsl #8
    5478:	007a0000 	rsbseq	r0, sl, r0
    547c:	25050000 	strcs	r0, [r5, #-0]
    5480:	00000000 	andeq	r0, r0, r0
    5484:	00000a06 	andeq	r0, r0, r6, lsl #20
    5488:	0e1c0200 	cdpeq	2, 1, cr0, cr12, cr0, {0}
    548c:	00000086 	andeq	r0, r0, r6, lsl #1
    5490:	006b0407 	rsbeq	r0, fp, r7, lsl #8
    5494:	25040000 	strcs	r0, [r4, #-0]
    5498:	9b000000 	blls	54a0 <__code_start__-0x2b60>
    549c:	05000000 	streq	r0, [r0, #-0]
    54a0:	0000009b 	muleq	r0, fp, r0
    54a4:	a8040700 	stmdage	r4, {r8, r9, sl}
    54a8:	03000000 	movweq	r0, #0
    54ac:	00790801 	rsbseq	r0, r9, r1, lsl #16
    54b0:	a1080000 	mrsge	r0, (UNDEF: 8)
    54b4:	06000000 	streq	r0, [r0], -r0
    54b8:	00000679 	andeq	r0, r0, r9, ror r6
    54bc:	b90e2102 	stmdblt	lr, {r1, r8, sp}
    54c0:	07000000 	streq	r0, [r0, -r0]
    54c4:	00008c04 	andeq	r8, r0, r4, lsl #24
    54c8:	06ed0900 	strbteq	r0, [sp], r0, lsl #18
    54cc:	03010000 	movweq	r0, #4096	; 0x1000
    54d0:	00010c07 	andeq	r0, r1, r7, lsl #24
    54d4:	00a51c00 	adceq	r1, r5, r0, lsl #24
    54d8:	00001800 	andeq	r1, r0, r0, lsl #16
    54dc:	0c9c0100 	ldfeqs	f0, [ip], {0}
    54e0:	0a000001 	beq	54ec <__code_start__-0x2b14>
    54e4:	01003173 	tsteq	r0, r3, ror r1
    54e8:	010c1503 	tsteq	ip, r3, lsl #10
    54ec:	50010000 	andpl	r0, r1, r0
    54f0:	0032730b 	eorseq	r7, r2, fp, lsl #6
    54f4:	9b260301 	blls	986100 <__bss_end__+0x97ae38>
    54f8:	b1000000 	mrslt	r0, (UNDEF: 0)
    54fc:	ab000035 	blge	55d8 <__code_start__-0x2a28>
    5500:	0c000035 	stceq	0, cr0, [r0], {53}	; 0x35
    5504:	04010073 	streq	r0, [r1], #-115	; 0xffffff8d
    5508:	00010c14 	andeq	r0, r1, r4, lsl ip
    550c:	0035de00 	eorseq	sp, r5, r0, lsl #28
    5510:	0035dc00 	eorseq	sp, r5, r0, lsl #24
    5514:	04070000 	streq	r0, [r7], #-0
    5518:	000000a1 	andeq	r0, r0, r1, lsr #1
    551c:	00014e00 	andeq	r4, r1, r0, lsl #28
    5520:	bc000400 	cfstrslt	mvf0, [r0], {-0}
    5524:	0400001e 	streq	r0, [r0], #-30	; 0xffffffe2
    5528:	00051301 	andeq	r1, r5, r1, lsl #6
    552c:	0ca60c00 	stceq	12, cr0, [r6]
    5530:	05d90000 	ldrbeq	r0, [r9]
    5534:	a5340000 	ldrge	r0, [r4, #-0]!
    5538:	00300000 	eorseq	r0, r0, r0
    553c:	2b240000 	blcs	905544 <__bss_end__+0x8fa27c>
    5540:	04020000 	streq	r0, [r2], #-0
    5544:	746e6905 	strbtvc	r6, [lr], #-2309	; 0xfffff6fb
    5548:	061c0300 	ldreq	r0, [ip], -r0, lsl #6
    554c:	d1030000 	mrsle	r0, (UNDEF: 3)
    5550:	00003817 	andeq	r3, r0, r7, lsl r8
    5554:	07040400 	streq	r0, [r4, -r0, lsl #8]
    5558:	00000171 	andeq	r0, r0, r1, ror r1
    555c:	72060104 	andvc	r0, r6, #1
    5560:	04000000 	streq	r0, [r0], #-0
    5564:	00000502 	andeq	r0, r0, r2, lsl #10
    5568:	04040000 	streq	r0, [r4], #-0
    556c:	00003305 	andeq	r3, r0, r5, lsl #6
    5570:	05080400 	streq	r0, [r8, #-1024]	; 0xfffffc00
    5574:	0000002e 	andeq	r0, r0, lr, lsr #32
    5578:	70080104 	andvc	r0, r8, r4, lsl #2
    557c:	05000000 	streq	r0, [r0, #-0]
    5580:	0000005b 	andeq	r0, r0, fp, asr r0
    5584:	b8070204 	stmdalt	r7, {r2, r9}
    5588:	04000001 	streq	r0, [r0], #-1
    558c:	016c0704 	cmneq	ip, r4, lsl #14
    5590:	08040000 	stmdaeq	r4, {}	; <UNPREDICTABLE>
    5594:	00016707 	andeq	r6, r1, r7, lsl #14
    5598:	00250600 	eoreq	r0, r5, r0, lsl #12
    559c:	008b0000 	addeq	r0, fp, r0
    55a0:	25070000 	strcs	r0, [r7, #-0]
    55a4:	00000000 	andeq	r0, r0, r0
    55a8:	00000a08 	andeq	r0, r0, r8, lsl #20
    55ac:	0e1c0200 	cdpeq	2, 1, cr0, cr12, cr0, {0}
    55b0:	00000097 	muleq	r0, r7, r0
    55b4:	007c0409 	rsbseq	r0, ip, r9, lsl #8
    55b8:	25060000 	strcs	r0, [r6, #-0]
    55bc:	ac000000 	stcge	0, cr0, [r0], {-0}
    55c0:	07000000 	streq	r0, [r0, -r0]
    55c4:	000000ac 	andeq	r0, r0, ip, lsr #1
    55c8:	b9040900 	stmdblt	r4, {r8, fp}
    55cc:	04000000 	streq	r0, [r0], #-0
    55d0:	00790801 	rsbseq	r0, r9, r1, lsl #16
    55d4:	b2050000 	andlt	r0, r5, #0, 0
    55d8:	08000000 	stmdaeq	r0, {}	; <UNPREDICTABLE>
    55dc:	00000679 	andeq	r0, r0, r9, ror r6
    55e0:	ca0e2102 	bgt	38d9f0 <__bss_end__+0x382728>
    55e4:	09000000 	stmdbeq	r0, {}	; <UNPREDICTABLE>
    55e8:	00009d04 	andeq	r9, r0, r4, lsl #26
    55ec:	07350a00 	ldreq	r0, [r5, -r0, lsl #20]!
    55f0:	04010000 	streq	r0, [r1], #-0
    55f4:	00002505 	andeq	r2, r0, r5, lsl #10
    55f8:	00a53400 	adceq	r3, r5, r0, lsl #8
    55fc:	00003000 	andeq	r3, r0, r0
    5600:	4b9c0100 	blmi	fe705a08 <__bss_end__+0xfe6fa740>
    5604:	0b000001 	bleq	5610 <__code_start__-0x29f0>
    5608:	0031735f 	eorseq	r7, r1, pc, asr r3
    560c:	ac190401 	cfldrsge	mvf0, [r9], {1}
    5610:	f5000000 			; <UNDEFINED> instruction: 0xf5000000
    5614:	f1000035 			; <UNDEFINED> instruction: 0xf1000035
    5618:	0b000035 	bleq	56f4 <__code_start__-0x290c>
    561c:	0032735f 	eorseq	r7, r2, pc, asr r3
    5620:	ac2a0401 	cfstrsge	mvf0, [sl], #-4
    5624:	1a000000 	bne	562c <__code_start__-0x29d4>
    5628:	16000036 			; <UNDEFINED> instruction: 0x16000036
    562c:	0b000036 	bleq	570c <__code_start__-0x28f4>
    5630:	0401006e 	streq	r0, [r1], #-110	; 0xffffff92
    5634:	00002c36 	andeq	r2, r0, r6, lsr ip
    5638:	00364500 	eorseq	r4, r6, r0, lsl #10
    563c:	00363b00 	eorseq	r3, r6, r0, lsl #22
    5640:	31730c00 	cmncc	r3, r0, lsl #24
    5644:	1a050100 	bne	145a4c <__bss_end__+0x13a784>
    5648:	0000014b 	andeq	r0, r0, fp, asr #2
    564c:	0000369c 	muleq	r0, ip, r6
    5650:	00003694 	muleq	r0, r4, r6
    5654:	0032730c 	eorseq	r7, r2, ip, lsl #6
    5658:	4b2c0501 	blmi	b06a64 <__bss_end__+0xafb79c>
    565c:	da000001 	ble	5668 <__code_start__-0x2998>
    5660:	d4000036 	strle	r0, [r0], #-54	; 0xffffffca
    5664:	00000036 	andeq	r0, r0, r6, lsr r0
    5668:	00620409 	rsbeq	r0, r2, r9, lsl #8
    566c:	ce000000 	cdpgt	0, 0, cr0, cr0, cr0, {0}
    5670:	04000000 	streq	r0, [r0], #-0
    5674:	001f7000 	andseq	r7, pc, r0
    5678:	13010400 	movwne	r0, #5120	; 0x1400
    567c:	0c000005 	stceq	0, cr0, [r0], {5}
    5680:	00000cb7 			; <UNDEFINED> instruction: 0x00000cb7
    5684:	000005d9 	ldrdeq	r0, [r0], -r9
    5688:	0000a564 	andeq	sl, r0, r4, ror #10
    568c:	00000004 	andeq	r0, r0, r4
    5690:	00002c25 	andeq	r2, r0, r5, lsr #24
    5694:	69050402 	stmdbvs	r5, {r1, sl}
    5698:	0300746e 	movweq	r7, #1134	; 0x46e
    569c:	01710704 	cmneq	r1, r4, lsl #14
    56a0:	01030000 	mrseq	r0, (UNDEF: 3)
    56a4:	00007206 	andeq	r7, r0, r6, lsl #4
    56a8:	05020300 	streq	r0, [r2, #-768]	; 0xfffffd00
    56ac:	00000000 	andeq	r0, r0, r0
    56b0:	33050403 	movwcc	r0, #21507	; 0x5403
    56b4:	03000000 	movweq	r0, #0
    56b8:	002e0508 	eoreq	r0, lr, r8, lsl #10
    56bc:	01030000 	mrseq	r0, (UNDEF: 3)
    56c0:	00007008 	andeq	r7, r0, r8
    56c4:	07020300 	streq	r0, [r2, -r0, lsl #6]
    56c8:	000001b8 			; <UNDEFINED> instruction: 0x000001b8
    56cc:	6c070403 	cfstrsvs	mvf0, [r7], {3}
    56d0:	03000001 	movweq	r0, #1
    56d4:	01670708 	cmneq	r7, r8, lsl #14
    56d8:	25040000 	strcs	r0, [r4, #-0]
    56dc:	7a000000 	bvc	56e4 <__code_start__-0x291c>
    56e0:	05000000 	streq	r0, [r0, #-0]
    56e4:	00000025 	andeq	r0, r0, r5, lsr #32
    56e8:	000a0600 	andeq	r0, sl, r0, lsl #12
    56ec:	1c020000 	stcne	0, cr0, [r2], {-0}
    56f0:	0000860e 	andeq	r8, r0, lr, lsl #12
    56f4:	6b040700 	blvs	1072fc <__bss_end__+0xfc034>
    56f8:	04000000 	streq	r0, [r0], #-0
    56fc:	00000025 	andeq	r0, r0, r5, lsr #32
    5700:	0000009b 	muleq	r0, fp, r0
    5704:	00009b05 	andeq	r9, r0, r5, lsl #22
    5708:	04070000 	streq	r0, [r7], #-0
    570c:	000000a8 	andeq	r0, r0, r8, lsr #1
    5710:	79080103 	stmdbvc	r8, {r0, r1, r8}
    5714:	08000000 	stmdaeq	r0, {}	; <UNPREDICTABLE>
    5718:	000000a1 	andeq	r0, r0, r1, lsr #1
    571c:	00067906 	andeq	r7, r6, r6, lsl #18
    5720:	0e210200 	cdpeq	2, 2, cr0, cr1, cr0, {0}
    5724:	000000b9 	strheq	r0, [r0], -r9
    5728:	008c0407 	addeq	r0, ip, r7, lsl #8
    572c:	f1090000 			; <UNDEFINED> instruction: 0xf1090000
    5730:	01000007 	tsteq	r0, r7
    5734:	a5640603 	strbge	r0, [r4, #-1539]!	; 0xfffff9fd
    5738:	00040000 	andeq	r0, r4, r0
    573c:	9c010000 	stcls	0, cr0, [r1], {-0}
	...

Disassembly of section .debug_abbrev:

00000000 <.debug_abbrev>:
       0:	25011101 	strcs	r1, [r1, #-257]	; 0xfffffeff
       4:	030b130e 	movweq	r1, #45838	; 0xb30e
       8:	110e1b0e 	tstne	lr, lr, lsl #22
       c:	10061201 	andne	r1, r6, r1, lsl #4
      10:	02000017 	andeq	r0, r0, #23, 0
      14:	0b0b0024 	bleq	2c00ac <__bss_end__+0x2b4de4>
      18:	08030b3e 	stmdaeq	r3, {r1, r2, r3, r4, r5, r8, r9, fp}
      1c:	24030000 	strcs	r0, [r3], #-0
      20:	3e0b0b00 	vmlacc.f64	d0, d11, d0
      24:	000e030b 	andeq	r0, lr, fp, lsl #6
      28:	00160400 	andseq	r0, r6, r0, lsl #8
      2c:	0b3a0e03 	bleq	e83840 <__bss_end__+0xe78578>
      30:	0b390b3b 	bleq	e42d24 <__bss_end__+0xe37a5c>
      34:	00001349 	andeq	r1, r0, r9, asr #6
      38:	27011505 	strcs	r1, [r1, -r5, lsl #10]
      3c:	01134919 	tsteq	r3, r9, lsl r9
      40:	06000013 			; <UNDEFINED> instruction: 0x06000013
      44:	13490005 	movtne	r0, #36869	; 0x9005
      48:	34070000 	strcc	r0, [r7], #-0
      4c:	3a0e0300 	bcc	380c54 <__bss_end__+0x37598c>
      50:	390b3b0b 	stmdbcc	fp, {r0, r1, r3, r8, r9, fp, ip, sp}
      54:	3f13490b 	svccc	0x0013490b
      58:	00193c19 	andseq	r3, r9, r9, lsl ip
      5c:	000f0800 	andeq	r0, pc, r0, lsl #16
      60:	13490b0b 	movtne	r0, #39691	; 0x9b0b
      64:	26090000 	strcs	r0, [r9], -r0
      68:	00134900 	andseq	r4, r3, r0, lsl #18
      6c:	01130a00 	tsteq	r3, r0, lsl #20
      70:	0b3a0b0b 	bleq	e82ca4 <__bss_end__+0xe779dc>
      74:	0b390b3b 	bleq	e42d68 <__bss_end__+0xe37aa0>
      78:	00001301 	andeq	r1, r0, r1, lsl #6
      7c:	03000d0b 	movweq	r0, #3339	; 0xd0b
      80:	3b0b3a0e 	blcc	2ce8c0 <__bss_end__+0x2c35f8>
      84:	490b390b 	stmdbmi	fp, {r0, r1, r3, r8, fp, ip, sp}
      88:	000b3813 	andeq	r3, fp, r3, lsl r8
      8c:	000f0c00 	andeq	r0, pc, r0, lsl #24
      90:	00000b0b 	andeq	r0, r0, fp, lsl #22
      94:	3f012e0d 	svccc	0x00012e0d
      98:	3a080319 	bcc	200d04 <__bss_end__+0x1f5a3c>
      9c:	390b3b0b 	stmdbcc	fp, {r0, r1, r3, r8, r9, fp, ip, sp}
      a0:	4919270b 	ldmdbmi	r9, {r0, r1, r3, r8, r9, sl, sp}
      a4:	12011113 	andne	r1, r1, #-1073741820	; 0xc0000004
      a8:	97184006 	ldrls	r4, [r8, -r6]
      ac:	13011942 	movwne	r1, #6466	; 0x1942
      b0:	340e0000 	strcc	r0, [lr], #-0
      b4:	3a080300 	bcc	200cbc <__bss_end__+0x1f59f4>
      b8:	390b3b0b 	stmdbcc	fp, {r0, r1, r3, r8, r9, fp, ip, sp}
      bc:	0213490b 	andseq	r4, r3, #180224	; 0x2c000
      c0:	1742b717 	smlaldne	fp, r2, r7, r7
      c4:	890f0000 	stmdbhi	pc, {}	; <UNPREDICTABLE>
      c8:	11000182 	smlabbne	r0, r2, r1, r0
      cc:	00133101 	andseq	r3, r3, r1, lsl #2
      d0:	82891000 	addhi	r1, r9, #0, 0
      d4:	01110101 	tsteq	r1, r1, lsl #2
      d8:	00001331 	andeq	r1, r0, r1, lsr r3
      dc:	01828a11 	orreq	r8, r2, r1, lsl sl
      e0:	91180200 	tstls	r8, r0, lsl #4
      e4:	00001842 	andeq	r1, r0, r2, asr #16
      e8:	3f012e12 	svccc	0x00012e12
      ec:	3a0e0319 	bcc	380d58 <__bss_end__+0x375a90>
      f0:	390b3b0b 	stmdbcc	fp, {r0, r1, r3, r8, r9, fp, ip, sp}
      f4:	1119270b 	tstne	r9, fp, lsl #14
      f8:	40061201 	andmi	r1, r6, r1, lsl #4
      fc:	19429718 	stmdbne	r2, {r3, r4, r8, r9, sl, ip, pc}^
     100:	00001301 	andeq	r1, r0, r1, lsl #6
     104:	03003413 	movweq	r3, #1043	; 0x413
     108:	3b0b3a08 	blcc	2ce930 <__bss_end__+0x2c3668>
     10c:	490b390b 	stmdbmi	fp, {r0, r1, r3, r8, fp, ip, sp}
     110:	14000013 	strne	r0, [r0], #-19	; 0xffffffed
     114:	0e030034 	mcreq	0, 0, r0, cr3, cr4, {1}
     118:	19341349 	ldmdbne	r4!, {r0, r3, r6, r8, r9, ip}
     11c:	00001802 	andeq	r1, r0, r2, lsl #16
     120:	01828915 	orreq	r8, r2, r5, lsl r9
     124:	31011101 	tstcc	r1, r1, lsl #2
     128:	00130113 	andseq	r0, r3, r3, lsl r1
     12c:	01011600 	tsteq	r1, r0, lsl #12
     130:	13011349 	movwne	r1, #4937	; 0x1349
     134:	21170000 	tstcs	r7, r0
     138:	2f134900 	svccs	0x00134900
     13c:	1800000b 	stmdane	r0, {r0, r1, r3}
     140:	193f012e 	ldmdbne	pc!, {r1, r2, r3, r5, r8}	; <UNPREDICTABLE>
     144:	0b3a0e03 	bleq	e83958 <__bss_end__+0xe78690>
     148:	0b390b3b 	bleq	e42e3c <__bss_end__+0xe37b74>
     14c:	13491927 	movtne	r1, #39207	; 0x9927
     150:	06120111 			; <UNDEFINED> instruction: 0x06120111
     154:	42971840 	addsmi	r1, r7, #64, 16	; 0x400000
     158:	00130119 	andseq	r0, r3, r9, lsl r1
     15c:	01131900 	tsteq	r3, r0, lsl #18
     160:	0b0b0e03 	bleq	2c3974 <__bss_end__+0x2b86ac>
     164:	0b3b0b3a 	bleq	ec2e54 <__bss_end__+0xeb7b8c>
     168:	13010b39 	movwne	r0, #6969	; 0x1b39
     16c:	0d1a0000 	ldceq	0, cr0, [sl, #-0]
     170:	3a080300 	bcc	200d78 <__bss_end__+0x1f5ab0>
     174:	390b3b0b 	stmdbcc	fp, {r0, r1, r3, r8, r9, fp, ip, sp}
     178:	3813490b 	ldmdacc	r3, {r0, r1, r3, r8, fp, lr}
     17c:	1b00000b 	blne	1b0 <__code_start__-0x7e50>
     180:	1755010b 	ldrbne	r0, [r5, -fp, lsl #2]
     184:	00001301 	andeq	r1, r0, r1, lsl #6
     188:	55010b1c 	strpl	r0, [r1, #-2844]	; 0xfffff4e4
     18c:	1d000017 	stcne	0, cr0, [r0, #-92]	; 0xffffffa4
     190:	1331011d 	teqne	r1, #1073741831	; 0x40000007
     194:	42b80152 	adcsmi	r0, r8, #-2147483628	; 0x80000014
     198:	1201110b 	andne	r1, r1, #-1073741822	; 0xc0000002
     19c:	590b5806 	stmdbpl	fp, {r1, r2, fp, ip, lr}
     1a0:	010b570b 	tsteq	fp, fp, lsl #14
     1a4:	1e000013 	mcrne	0, 0, r0, cr0, cr3, {0}
     1a8:	13310005 	teqne	r1, #5, 0
     1ac:	42b71702 	adcsmi	r1, r7, #524288	; 0x80000
     1b0:	1f000017 	svcne	0x00000017
     1b4:	0e03012e 	adfeqsp	f0, f3, #0.5
     1b8:	0b3b0b3a 	bleq	ec2ea8 <__bss_end__+0xeb7be0>
     1bc:	19270b39 	stmdbne	r7!, {r0, r3, r4, r5, r8, r9, fp}
     1c0:	0b201349 	bleq	804eec <__bss_end__+0x7f9c24>
     1c4:	00001301 	andeq	r1, r0, r1, lsl #6
     1c8:	03000520 	movweq	r0, #1312	; 0x520
     1cc:	3b0b3a0e 	blcc	2cea0c <__bss_end__+0x2c3744>
     1d0:	490b390b 	stmdbmi	fp, {r0, r1, r3, r8, fp, ip, sp}
     1d4:	21000013 	tstcs	r0, r3, lsl r0
     1d8:	193f002e 	ldmdbne	pc!, {r1, r2, r3, r5}	; <UNPREDICTABLE>
     1dc:	0e6e193c 			; <UNDEFINED> instruction: 0x0e6e193c
     1e0:	0b3a0e03 	bleq	e839f4 <__bss_end__+0xe7872c>
     1e4:	0b390b3b 	bleq	e42ed8 <__bss_end__+0xe37c10>
     1e8:	36220000 	strtcc	r0, [r2], -r0
     1ec:	00180200 	andseq	r0, r8, r0, lsl #4
     1f0:	11010000 	mrsne	r0, (UNDEF: 1)
     1f4:	130e2501 	movwne	r2, #58625	; 0xe501
     1f8:	1b0e030b 	blne	380e2c <__bss_end__+0x375b64>
     1fc:	1201110e 	andne	r1, r1, #-2147483645	; 0x80000003
     200:	00171006 	andseq	r1, r7, r6
     204:	00240200 	eoreq	r0, r4, r0, lsl #4
     208:	0b3e0b0b 	bleq	f82e3c <__bss_end__+0xf77b74>
     20c:	00000803 	andeq	r0, r0, r3, lsl #16
     210:	0b002403 	bleq	9224 <emit.constprop.0+0x1a0>
     214:	030b3e0b 	movweq	r3, #48651	; 0xbe0b
     218:	0400000e 	streq	r0, [r0], #-14
     21c:	0e030016 	mcreq	0, 0, r0, cr3, cr6, {0}
     220:	0b3b0b3a 	bleq	ec2f10 <__bss_end__+0xeb7c48>
     224:	13490b39 	movtne	r0, #39737	; 0x9b39
     228:	15050000 	strne	r0, [r5, #-0]
     22c:	49192701 	ldmdbmi	r9, {r0, r8, r9, sl, sp}
     230:	00130113 	andseq	r0, r3, r3, lsl r1
     234:	00050600 	andeq	r0, r5, r0, lsl #12
     238:	00001349 	andeq	r1, r0, r9, asr #6
     23c:	03003407 	movweq	r3, #1031	; 0x407
     240:	3b0b3a0e 	blcc	2cea80 <__bss_end__+0x2c37b8>
     244:	490b390b 	stmdbmi	fp, {r0, r1, r3, r8, fp, ip, sp}
     248:	3c193f13 	ldccc	15, cr3, [r9], {19}
     24c:	08000019 	stmdaeq	r0, {r0, r3, r4}
     250:	0b0b000f 	bleq	2c0294 <__bss_end__+0x2b4fcc>
     254:	00001349 	andeq	r1, r0, r9, asr #6
     258:	49002609 	stmdbmi	r0, {r0, r3, r9, sl, sp}
     25c:	0a000013 	beq	2b0 <__code_start__-0x7d50>
     260:	0b0b0113 	bleq	2c06b4 <__bss_end__+0x2b53ec>
     264:	0b3b0b3a 	bleq	ec2f54 <__bss_end__+0xeb7c8c>
     268:	13010b39 	movwne	r0, #6969	; 0x1b39
     26c:	0d0b0000 	stceq	0, cr0, [fp, #-0]
     270:	3a0e0300 	bcc	380e78 <__bss_end__+0x375bb0>
     274:	390b3b0b 	stmdbcc	fp, {r0, r1, r3, r8, r9, fp, ip, sp}
     278:	3813490b 	ldmdacc	r3, {r0, r1, r3, r8, fp, lr}
     27c:	0c00000b 	stceq	0, cr0, [r0], {11}
     280:	0b3e0104 	bleq	f80698 <__bss_end__+0xf753d0>
     284:	13490b0b 	movtne	r0, #39691	; 0x9b0b
     288:	0b3b0b3a 	bleq	ec2f78 <__bss_end__+0xeb7cb0>
     28c:	13010b39 	movwne	r0, #6969	; 0x1b39
     290:	280d0000 	stmdacs	sp, {}	; <UNPREDICTABLE>
     294:	1c0e0300 	stcne	3, cr0, [lr], {-0}
     298:	0e00000b 	cdpeq	0, 0, cr0, cr0, cr11, {0}
     29c:	0e030113 	mcreq	1, 0, r0, cr3, cr3, {0}
     2a0:	0b3a0b0b 	bleq	e82ed4 <__bss_end__+0xe77c0c>
     2a4:	0b390b3b 	bleq	e42f98 <__bss_end__+0xe37cd0>
     2a8:	00001301 	andeq	r1, r0, r1, lsl #6
     2ac:	03000d0f 	movweq	r0, #3343	; 0xd0f
     2b0:	3b0b3a08 	blcc	2cead8 <__bss_end__+0x2c3810>
     2b4:	490b390b 	stmdbmi	fp, {r0, r1, r3, r8, fp, ip, sp}
     2b8:	000b3813 	andeq	r3, fp, r3, lsl r8
     2bc:	01011000 	mrseq	r1, (UNDEF: 1)
     2c0:	13011349 	movwne	r1, #4937	; 0x1349
     2c4:	21110000 	tstcs	r1, r0
     2c8:	2f134900 	svccs	0x00134900
     2cc:	1200000b 	andne	r0, r0, #11, 0
     2d0:	0b0b000f 	bleq	2c0314 <__bss_end__+0x2b504c>
     2d4:	34130000 	ldrcc	r0, [r3], #-0
     2d8:	3a0e0300 	bcc	380ee0 <__bss_end__+0x375c18>
     2dc:	390b3b0b 	stmdbcc	fp, {r0, r1, r3, r8, r9, fp, ip, sp}
     2e0:	0213490b 	andseq	r4, r3, #180224	; 0x2c000
     2e4:	14000018 	strne	r0, [r0], #-24	; 0xffffffe8
     2e8:	0e030034 	mcreq	0, 0, r0, cr3, cr4, {1}
     2ec:	0b3b0b3a 	bleq	ec2fdc <__bss_end__+0xeb7d14>
     2f0:	13490b39 	movtne	r0, #39737	; 0x9b39
     2f4:	2e150000 	cdpcs	0, 1, cr0, cr5, cr0, {0}
     2f8:	03193f01 	tsteq	r9, #1, 30
     2fc:	3b0b3a0e 	blcc	2ceb3c <__bss_end__+0x2c3874>
     300:	270b390b 	strcs	r3, [fp, -fp, lsl #18]
     304:	11134919 	tstne	r3, r9, lsl r9
     308:	40061201 	andmi	r1, r6, r1, lsl #4
     30c:	19429718 	stmdbne	r2, {r3, r4, r8, r9, sl, ip, pc}^
     310:	00001301 	andeq	r1, r0, r1, lsl #6
     314:	03000516 	movweq	r0, #1302	; 0x516
     318:	3b0b3a0e 	blcc	2ceb58 <__bss_end__+0x2c3890>
     31c:	490b390b 	stmdbmi	fp, {r0, r1, r3, r8, fp, ip, sp}
     320:	b7170213 			; <UNDEFINED> instruction: 0xb7170213
     324:	00001742 	andeq	r1, r0, r2, asr #14
     328:	03000517 	movweq	r0, #1303	; 0x517
     32c:	3b0b3a08 	blcc	2ceb54 <__bss_end__+0x2c388c>
     330:	490b390b 	stmdbmi	fp, {r0, r1, r3, r8, fp, ip, sp}
     334:	00180213 	andseq	r0, r8, r3, lsl r2
     338:	00341800 	eorseq	r1, r4, r0, lsl #16
     33c:	0b3a0803 	bleq	e82350 <__bss_end__+0xe77088>
     340:	0b390b3b 	bleq	e43034 <__bss_end__+0xe37d6c>
     344:	17021349 	strne	r1, [r2, -r9, asr #6]
     348:	001742b7 			; <UNDEFINED> instruction: 0x001742b7
     34c:	010b1900 	tsteq	fp, r0, lsl #18
     350:	06120111 			; <UNDEFINED> instruction: 0x06120111
     354:	00001301 	andeq	r1, r0, r1, lsl #6
     358:	11010b1a 	tstne	r1, sl, lsl fp
     35c:	00061201 	andeq	r1, r6, r1, lsl #4
     360:	82891b00 	addhi	r1, r9, #0, 22
     364:	01110101 	tsteq	r1, r1, lsl #2
     368:	00001331 	andeq	r1, r0, r1, lsr r3
     36c:	01828a1c 	orreq	r8, r2, ip, lsl sl
     370:	91180200 	tstls	r8, r0, lsl #4
     374:	00001842 	andeq	r1, r0, r2, asr #16
     378:	0182891d 	orreq	r8, r2, sp, lsl r9
     37c:	31011101 	tstcc	r1, r1, lsl #2
     380:	00130113 	andseq	r0, r3, r3, lsl r1
     384:	012e1e00 			; <UNDEFINED> instruction: 0x012e1e00
     388:	0e03193f 			; <UNDEFINED> instruction: 0x0e03193f
     38c:	0b3b0b3a 	bleq	ec307c <__bss_end__+0xeb7db4>
     390:	19270b39 	stmdbne	r7!, {r0, r3, r4, r5, r8, r9, fp}
     394:	06120111 			; <UNDEFINED> instruction: 0x06120111
     398:	42971840 	addsmi	r1, r7, #64, 16	; 0x400000
     39c:	00130119 	andseq	r0, r3, r9, lsl r1
     3a0:	010b1f00 	tsteq	fp, r0, lsl #30
     3a4:	13011755 	movwne	r1, #5973	; 0x1755
     3a8:	89200000 	stmdbhi	r0!, {}	; <UNPREDICTABLE>
     3ac:	11000182 	smlabbne	r0, r2, r1, r0
     3b0:	00133101 	andseq	r3, r3, r1, lsl #2
     3b4:	00052100 	andeq	r2, r5, r0, lsl #2
     3b8:	0b3a0803 	bleq	e823cc <__bss_end__+0xe77104>
     3bc:	0b390b3b 	bleq	e430b0 <__bss_end__+0xe37de8>
     3c0:	17021349 	strne	r1, [r2, -r9, asr #6]
     3c4:	001742b7 			; <UNDEFINED> instruction: 0x001742b7
     3c8:	011d2200 	tsteq	sp, r0, lsl #4
     3cc:	01521331 	cmpeq	r2, r1, lsr r3
     3d0:	110b42b8 			; <UNDEFINED> instruction: 0x110b42b8
     3d4:	58061201 	stmdapl	r6, {r0, r9, ip}
     3d8:	570b590b 	strpl	r5, [fp, -fp, lsl #18]
     3dc:	0013010b 	andseq	r0, r3, fp, lsl #2
     3e0:	00052300 	andeq	r2, r5, r0, lsl #6
     3e4:	17021331 	smladxne	r2, r1, r3, r1
     3e8:	001742b7 			; <UNDEFINED> instruction: 0x001742b7
     3ec:	002e2400 	eoreq	r2, lr, r0, lsl #8
     3f0:	0e03193f 			; <UNDEFINED> instruction: 0x0e03193f
     3f4:	0b3b0b3a 	bleq	ec30e4 <__bss_end__+0xeb7e1c>
     3f8:	19270b39 	stmdbne	r7!, {r0, r3, r4, r5, r8, r9, fp}
     3fc:	01111349 	tsteq	r1, r9, asr #6
     400:	18400612 	stmdane	r0, {r1, r4, r9, sl}^
     404:	00194297 	mulseq	r9, r7, r2
     408:	012e2500 			; <UNDEFINED> instruction: 0x012e2500
     40c:	0b3a0e03 	bleq	e83c20 <__bss_end__+0xe78958>
     410:	0b390b3b 	bleq	e43104 <__bss_end__+0xe37e3c>
     414:	13491927 	movtne	r1, #39207	; 0x9927
     418:	13010b20 	movwne	r0, #6944	; 0x1b20
     41c:	05260000 	streq	r0, [r6, #-0]!
     420:	3a080300 	bcc	201028 <__bss_end__+0x1f5d60>
     424:	390b3b0b 	stmdbcc	fp, {r0, r1, r3, r8, r9, fp, ip, sp}
     428:	0013490b 	andseq	r4, r3, fp, lsl #18
     42c:	002e2700 	eoreq	r2, lr, r0, lsl #14
     430:	193c193f 	ldmdbne	ip!, {r0, r1, r2, r3, r4, r5, r8, fp, ip}
     434:	0e030e6e 	cdpeq	14, 0, cr0, cr3, cr14, {3}
     438:	0b3b0b3a 	bleq	ec3128 <__bss_end__+0xeb7e60>
     43c:	00000b39 	andeq	r0, r0, r9, lsr fp
     440:	01110100 	tsteq	r1, r0, lsl #2
     444:	0b130e25 	bleq	4c3ce0 <__bss_end__+0x4b8a18>
     448:	0e1b0e03 	cdpeq	14, 1, cr0, cr11, cr3, {0}
     44c:	06120111 			; <UNDEFINED> instruction: 0x06120111
     450:	00001710 	andeq	r1, r0, r0, lsl r7
     454:	0b002402 	bleq	9464 <va_printk+0x58>
     458:	030b3e0b 	movweq	r3, #48651	; 0xbe0b
     45c:	03000008 	movweq	r0, #8
     460:	0b0b0024 	bleq	2c04f8 <__bss_end__+0x2b5230>
     464:	0e030b3e 	vmoveq.16	d3[0], r0
     468:	15040000 	strne	r0, [r4, #-0]
     46c:	49192701 	ldmdbmi	r9, {r0, r8, r9, sl, sp}
     470:	00130113 	andseq	r0, r3, r3, lsl r1
     474:	00050500 	andeq	r0, r5, r0, lsl #10
     478:	00001349 	andeq	r1, r0, r9, asr #6
     47c:	03003406 	movweq	r3, #1030	; 0x406
     480:	3b0b3a0e 	blcc	2cecc0 <__bss_end__+0x2c39f8>
     484:	490b390b 	stmdbmi	fp, {r0, r1, r3, r8, fp, ip, sp}
     488:	3c193f13 	ldccc	15, cr3, [r9], {19}
     48c:	07000019 	smladeq	r0, r9, r0, r0
     490:	0b0b000f 	bleq	2c04d4 <__bss_end__+0x2b520c>
     494:	00001349 	andeq	r1, r0, r9, asr #6
     498:	49002608 	stmdbmi	r0, {r3, r9, sl, sp}
     49c:	09000013 	stmdbeq	r0, {r0, r1, r4}
     4a0:	0e030117 	mcreq	1, 0, r0, cr3, cr7, {0}
     4a4:	0b3a0b0b 	bleq	e830d8 <__bss_end__+0xe77e10>
     4a8:	0b390b3b 	bleq	e4319c <__bss_end__+0xe37ed4>
     4ac:	00001301 	andeq	r1, r0, r1, lsl #6
     4b0:	03000d0a 	movweq	r0, #3338	; 0xd0a
     4b4:	3b0b3a08 	blcc	2cecdc <__bss_end__+0x2c3a14>
     4b8:	490b390b 	stmdbmi	fp, {r0, r1, r3, r8, fp, ip, sp}
     4bc:	0b000013 	bleq	510 <__code_start__-0x7af0>
     4c0:	0b0b000f 	bleq	2c0504 <__bss_end__+0x2b523c>
     4c4:	150c0000 	strne	r0, [ip, #-0]
     4c8:	00192700 	andseq	r2, r9, r0, lsl #14
     4cc:	01130d00 	tsteq	r3, r0, lsl #26
     4d0:	0b3a0b0b 	bleq	e83104 <__bss_end__+0xe77e3c>
     4d4:	0b390b3b 	bleq	e431c8 <__bss_end__+0xe37f00>
     4d8:	00001301 	andeq	r1, r0, r1, lsl #6
     4dc:	03000d0e 	movweq	r0, #3342	; 0xd0e
     4e0:	3b0b3a08 	blcc	2ced08 <__bss_end__+0x2c3a40>
     4e4:	490b390b 	stmdbmi	fp, {r0, r1, r3, r8, fp, ip, sp}
     4e8:	000b3813 	andeq	r3, fp, r3, lsl r8
     4ec:	000d0f00 	andeq	r0, sp, r0, lsl #30
     4f0:	0b3a0e03 	bleq	e83d04 <__bss_end__+0xe78a3c>
     4f4:	0b390b3b 	bleq	e431e8 <__bss_end__+0xe37f20>
     4f8:	0b381349 	bleq	e05224 <__bss_end__+0xdf9f5c>
     4fc:	16100000 	ldrne	r0, [r0], -r0
     500:	3a0e0300 	bcc	381108 <__bss_end__+0x375e40>
     504:	390b3b0b 	stmdbcc	fp, {r0, r1, r3, r8, r9, fp, ip, sp}
     508:	0013490b 	andseq	r4, r3, fp, lsl #18
     50c:	00341100 	eorseq	r1, r4, r0, lsl #2
     510:	0b3a0e03 	bleq	e83d24 <__bss_end__+0xe78a5c>
     514:	0b390b3b 	bleq	e43208 <__bss_end__+0xe37f40>
     518:	18021349 	stmdane	r2, {r0, r3, r6, r8, r9, ip}
     51c:	2e120000 	cdpcs	0, 1, cr0, cr2, cr0, {0}
     520:	03193f01 	tsteq	r9, #1, 30
     524:	3b0b3a0e 	blcc	2ced64 <__bss_end__+0x2c3a9c>
     528:	270b390b 	strcs	r3, [fp, -fp, lsl #18]
     52c:	12011119 	andne	r1, r1, #1073741830	; 0x40000006
     530:	97184006 	ldrls	r4, [r8, -r6]
     534:	13011942 	movwne	r1, #6466	; 0x1942
     538:	05130000 	ldreq	r0, [r3, #-0]
     53c:	3a080300 	bcc	201144 <__bss_end__+0x1f5e7c>
     540:	390b3b0b 	stmdbcc	fp, {r0, r1, r3, r8, r9, fp, ip, sp}
     544:	0213490b 	andseq	r4, r3, #180224	; 0x2c000
     548:	14000018 	strne	r0, [r0], #-24	; 0xffffffe8
     54c:	08030034 	stmdaeq	r3, {r2, r4, r5}
     550:	0b3b0b3a 	bleq	ec3240 <__bss_end__+0xeb7f78>
     554:	13490b39 	movtne	r0, #39737	; 0x9b39
     558:	42b71702 	adcsmi	r1, r7, #524288	; 0x80000
     55c:	15000017 	strne	r0, [r0, #-23]	; 0xffffffe9
     560:	193f012e 	ldmdbne	pc!, {r1, r2, r3, r5, r8}	; <UNPREDICTABLE>
     564:	0b3a0e03 	bleq	e83d78 <__bss_end__+0xe78ab0>
     568:	0b390b3b 	bleq	e4325c <__bss_end__+0xe37f94>
     56c:	13491927 	movtne	r1, #39207	; 0x9927
     570:	06120111 			; <UNDEFINED> instruction: 0x06120111
     574:	42971840 	addsmi	r1, r7, #64, 16	; 0x400000
     578:	00130119 	andseq	r0, r3, r9, lsl r1
     57c:	00051600 	andeq	r1, r5, r0, lsl #12
     580:	0b3a0e03 	bleq	e83d94 <__bss_end__+0xe78acc>
     584:	0b390b3b 	bleq	e43278 <__bss_end__+0xe37fb0>
     588:	17021349 	strne	r1, [r2, -r9, asr #6]
     58c:	001742b7 			; <UNDEFINED> instruction: 0x001742b7
     590:	00341700 	eorseq	r1, r4, r0, lsl #14
     594:	0b3a0e03 	bleq	e83da8 <__bss_end__+0xe78ae0>
     598:	0b390b3b 	bleq	e4328c <__bss_end__+0xe37fc4>
     59c:	17021349 	strne	r1, [r2, -r9, asr #6]
     5a0:	001742b7 			; <UNDEFINED> instruction: 0x001742b7
     5a4:	82891800 	addhi	r1, r9, #0, 16
     5a8:	01110101 	tsteq	r1, r1, lsl #2
     5ac:	00001331 	andeq	r1, r0, r1, lsr r3
     5b0:	01828a19 	orreq	r8, r2, r9, lsl sl
     5b4:	91180200 	tstls	r8, r0, lsl #4
     5b8:	00001842 	andeq	r1, r0, r2, asr #16
     5bc:	03012e1a 	movweq	r2, #7706	; 0x1e1a
     5c0:	3b0b3a0e 	blcc	2cee00 <__bss_end__+0x2c3b38>
     5c4:	270b390b 	strcs	r3, [fp, -fp, lsl #18]
     5c8:	11134919 	tstne	r3, r9, lsl r9
     5cc:	40061201 	andmi	r1, r6, r1, lsl #4
     5d0:	19429718 	stmdbne	r2, {r3, r4, r8, r9, sl, ip, pc}^
     5d4:	00001301 	andeq	r1, r0, r1, lsl #6
     5d8:	0300051b 	movweq	r0, #1307	; 0x51b
     5dc:	3b0b3a08 	blcc	2cee04 <__bss_end__+0x2c3b3c>
     5e0:	490b390b 	stmdbmi	fp, {r0, r1, r3, r8, fp, ip, sp}
     5e4:	b7170213 			; <UNDEFINED> instruction: 0xb7170213
     5e8:	00001742 	andeq	r1, r0, r2, asr #14
     5ec:	0182891c 	orreq	r8, r2, ip, lsl r9
     5f0:	31011101 	tstcc	r1, r1, lsl #2
     5f4:	00130113 	andseq	r0, r3, r3, lsl r1
     5f8:	82891d00 	addhi	r1, r9, #0, 26
     5fc:	01110001 	tsteq	r1, r1
     600:	00001331 	andeq	r1, r0, r1, lsr r3
     604:	3f002e1e 	svccc	0x00002e1e
     608:	6e193c19 	mrcvs	12, 0, r3, cr9, cr9, {0}
     60c:	3a0e030e 	bcc	38124c <__bss_end__+0x375f84>
     610:	390b3b0b 	stmdbcc	fp, {r0, r1, r3, r8, r9, fp, ip, sp}
     614:	0000000b 	andeq	r0, r0, fp
     618:	25011101 	strcs	r1, [r1, #-257]	; 0xfffffeff
     61c:	030b130e 	movweq	r1, #45838	; 0xb30e
     620:	110e1b0e 	tstne	lr, lr, lsl #22
     624:	10061201 	andne	r1, r6, r1, lsl #4
     628:	02000017 	andeq	r0, r0, #23, 0
     62c:	0b0b0024 	bleq	2c06c4 <__bss_end__+0x2b53fc>
     630:	08030b3e 	stmdaeq	r3, {r1, r2, r3, r4, r5, r8, r9, fp}
     634:	24030000 	strcs	r0, [r3], #-0
     638:	3e0b0b00 	vmlacc.f64	d0, d11, d0
     63c:	000e030b 	andeq	r0, lr, fp, lsl #6
     640:	00160400 	andseq	r0, r6, r0, lsl #8
     644:	0b3a0e03 	bleq	e83e58 <__bss_end__+0xe78b90>
     648:	0b390b3b 	bleq	e4333c <__bss_end__+0xe38074>
     64c:	00001349 	andeq	r1, r0, r9, asr #6
     650:	27011505 	strcs	r1, [r1, -r5, lsl #10]
     654:	01134919 	tsteq	r3, r9, lsl r9
     658:	06000013 			; <UNDEFINED> instruction: 0x06000013
     65c:	13490005 	movtne	r0, #36869	; 0x9005
     660:	34070000 	strcc	r0, [r7], #-0
     664:	3a0e0300 	bcc	38126c <__bss_end__+0x375fa4>
     668:	390b3b0b 	stmdbcc	fp, {r0, r1, r3, r8, r9, fp, ip, sp}
     66c:	3f13490b 	svccc	0x0013490b
     670:	00193c19 	andseq	r3, r9, r9, lsl ip
     674:	000f0800 	andeq	r0, pc, r0, lsl #16
     678:	13490b0b 	movtne	r0, #39691	; 0x9b0b
     67c:	26090000 	strcs	r0, [r9], -r0
     680:	00134900 	andseq	r4, r3, r0, lsl #18
     684:	01130a00 	tsteq	r3, r0, lsl #20
     688:	0b3a0b0b 	bleq	e832bc <__bss_end__+0xe77ff4>
     68c:	0b390b3b 	bleq	e43380 <__bss_end__+0xe380b8>
     690:	00001301 	andeq	r1, r0, r1, lsl #6
     694:	03000d0b 	movweq	r0, #3339	; 0xd0b
     698:	3b0b3a0e 	blcc	2ceed8 <__bss_end__+0x2c3c10>
     69c:	490b390b 	stmdbmi	fp, {r0, r1, r3, r8, fp, ip, sp}
     6a0:	000b3813 	andeq	r3, fp, r3, lsl r8
     6a4:	01040c00 	tsteq	r4, r0, lsl #24
     6a8:	0b0b0b3e 	bleq	2c33a8 <__bss_end__+0x2b80e0>
     6ac:	0b3a1349 	bleq	e853d8 <__bss_end__+0xe7a110>
     6b0:	0b390b3b 	bleq	e433a4 <__bss_end__+0xe380dc>
     6b4:	00001301 	andeq	r1, r0, r1, lsl #6
     6b8:	0300280d 	movweq	r2, #2061	; 0x80d
     6bc:	000b1c0e 	andeq	r1, fp, lr, lsl #24
     6c0:	01130e00 	tsteq	r3, r0, lsl #28
     6c4:	0b0b0e03 	bleq	2c3ed8 <__bss_end__+0x2b8c10>
     6c8:	0b3b0b3a 	bleq	ec33b8 <__bss_end__+0xeb80f0>
     6cc:	13010b39 	movwne	r0, #6969	; 0x1b39
     6d0:	0d0f0000 	stceq	0, cr0, [pc, #-0]	; 6d8 <__code_start__-0x7928>
     6d4:	3a080300 	bcc	2012dc <__bss_end__+0x1f6014>
     6d8:	390b3b0b 	stmdbcc	fp, {r0, r1, r3, r8, r9, fp, ip, sp}
     6dc:	3813490b 	ldmdacc	r3, {r0, r1, r3, r8, fp, lr}
     6e0:	1000000b 	andne	r0, r0, fp
     6e4:	13490101 	movtne	r0, #37121	; 0x9101
     6e8:	00001301 	andeq	r1, r0, r1, lsl #6
     6ec:	49002111 	stmdbmi	r0, {r0, r4, r8, sp}
     6f0:	000b2f13 	andeq	r2, fp, r3, lsl pc
     6f4:	000f1200 	andeq	r1, pc, r0, lsl #4
     6f8:	00000b0b 	andeq	r0, r0, fp, lsl #22
     6fc:	03003413 	movweq	r3, #1043	; 0x413
     700:	3b0b3a0e 	blcc	2cef40 <__bss_end__+0x2c3c78>
     704:	490b390b 	stmdbmi	fp, {r0, r1, r3, r8, fp, ip, sp}
     708:	00180213 	andseq	r0, r8, r3, lsl r2
     70c:	012e1400 			; <UNDEFINED> instruction: 0x012e1400
     710:	0e03193f 			; <UNDEFINED> instruction: 0x0e03193f
     714:	053b0b3a 	ldreq	r0, [fp, #-2874]!	; 0xfffff4c6
     718:	19270b39 	stmdbne	r7!, {r0, r3, r4, r5, r8, r9, fp}
     71c:	06120111 			; <UNDEFINED> instruction: 0x06120111
     720:	42971840 	addsmi	r1, r7, #64, 16	; 0x400000
     724:	00130119 	andseq	r0, r3, r9, lsl r1
     728:	00341500 	eorseq	r1, r4, r0, lsl #10
     72c:	13490e03 	movtne	r0, #40451	; 0x9e03
     730:	18021934 	stmdane	r2, {r2, r4, r5, r8, fp, ip}
     734:	89160000 	ldmdbhi	r6, {}	; <UNPREDICTABLE>
     738:	11010182 	smlabbne	r1, r2, r1, r0
     73c:	01133101 	tsteq	r3, r1, lsl #2
     740:	17000013 	smladne	r0, r3, r0, r0
     744:	0001828a 	andeq	r8, r1, sl, lsl #5
     748:	42911802 	addsmi	r1, r1, #131072	; 0x20000
     74c:	18000018 	stmdane	r0, {r3, r4}
     750:	00018289 	andeq	r8, r1, r9, lsl #5
     754:	13310111 	teqne	r1, #1073741828	; 0x40000004
     758:	2e190000 	cdpcs	0, 1, cr0, cr9, cr0, {0}
     75c:	03193f01 	tsteq	r9, #1, 30
     760:	3b0b3a0e 	blcc	2cefa0 <__bss_end__+0x2c3cd8>
     764:	270b3905 	strcs	r3, [fp, -r5, lsl #18]
     768:	11134919 	tstne	r3, r9, lsl r9
     76c:	40061201 	andmi	r1, r6, r1, lsl #4
     770:	19429718 	stmdbne	r2, {r3, r4, r8, r9, sl, ip, pc}^
     774:	00001301 	andeq	r1, r0, r1, lsl #6
     778:	0300341a 	movweq	r3, #1050	; 0x41a
     77c:	3b0b3a0e 	blcc	2cefbc <__bss_end__+0x2c3cf4>
     780:	490b3905 	stmdbmi	fp, {r0, r2, r8, fp, ip, sp}
     784:	b7170213 			; <UNDEFINED> instruction: 0xb7170213
     788:	00001742 	andeq	r1, r0, r2, asr #14
     78c:	03012e1b 	movweq	r2, #7707	; 0x1e1b
     790:	3b0b3a0e 	blcc	2cefd0 <__bss_end__+0x2c3d08>
     794:	270b390b 	strcs	r3, [fp, -fp, lsl #18]
     798:	11134919 	tstne	r3, r9, lsl r9
     79c:	40061201 	andmi	r1, r6, r1, lsl #4
     7a0:	19429718 	stmdbne	r2, {r3, r4, r8, r9, sl, ip, pc}^
     7a4:	00001301 	andeq	r1, r0, r1, lsl #6
     7a8:	0300341c 	movweq	r3, #1052	; 0x41c
     7ac:	3b0b3a0e 	blcc	2cefec <__bss_end__+0x2c3d24>
     7b0:	490b390b 	stmdbmi	fp, {r0, r1, r3, r8, fp, ip, sp}
     7b4:	b7170213 			; <UNDEFINED> instruction: 0xb7170213
     7b8:	00001742 	andeq	r1, r0, r2, asr #14
     7bc:	55010b1d 	strpl	r0, [r1, #-2845]	; 0xfffff4e3
     7c0:	00130117 	andseq	r0, r3, r7, lsl r1
     7c4:	00341e00 	eorseq	r1, r4, r0, lsl #28
     7c8:	0b3a0803 	bleq	e827dc <__bss_end__+0xe77514>
     7cc:	0b390b3b 	bleq	e434c0 <__bss_end__+0xe381f8>
     7d0:	17021349 	strne	r1, [r2, -r9, asr #6]
     7d4:	001742b7 			; <UNDEFINED> instruction: 0x001742b7
     7d8:	011d1f00 	tsteq	sp, r0, lsl #30
     7dc:	01521331 	cmpeq	r2, r1, lsr r3
     7e0:	110b42b8 			; <UNDEFINED> instruction: 0x110b42b8
     7e4:	58061201 	stmdapl	r6, {r0, r9, ip}
     7e8:	5705590b 	strpl	r5, [r5, -fp, lsl #18]
     7ec:	0013010b 	andseq	r0, r3, fp, lsl #2
     7f0:	00052000 	andeq	r2, r5, r0
     7f4:	17021331 	smladxne	r2, r1, r3, r1
     7f8:	001742b7 			; <UNDEFINED> instruction: 0x001742b7
     7fc:	82892100 	addhi	r2, r9, #0
     800:	01110101 	tsteq	r1, r1, lsl #2
     804:	00001331 	andeq	r1, r0, r1, lsr r3
     808:	3f012e22 	svccc	0x00012e22
     80c:	3a0e0319 	bcc	381478 <__bss_end__+0x3761b0>
     810:	390b3b0b 	stmdbcc	fp, {r0, r1, r3, r8, r9, fp, ip, sp}
     814:	4919270b 	ldmdbmi	r9, {r0, r1, r3, r8, r9, sl, sp}
     818:	12011113 	andne	r1, r1, #-1073741820	; 0xc0000004
     81c:	97184006 	ldrls	r4, [r8, -r6]
     820:	13011942 	movwne	r1, #6466	; 0x1942
     824:	2e230000 	cdpcs	0, 2, cr0, cr3, cr0, {0}
     828:	03193f01 	tsteq	r9, #1, 30
     82c:	3b0b3a0e 	blcc	2cf06c <__bss_end__+0x2c3da4>
     830:	270b390b 	strcs	r3, [fp, -fp, lsl #18]
     834:	12011119 	andne	r1, r1, #1073741830	; 0x40000006
     838:	97184006 	ldrls	r4, [r8, -r6]
     83c:	13011942 	movwne	r1, #6466	; 0x1942
     840:	05240000 	streq	r0, [r4, #-0]!
     844:	3a0e0300 	bcc	38144c <__bss_end__+0x376184>
     848:	390b3b0b 	stmdbcc	fp, {r0, r1, r3, r8, r9, fp, ip, sp}
     84c:	0213490b 	andseq	r4, r3, #180224	; 0x2c000
     850:	1742b717 	smlaldne	fp, r2, r7, r7
     854:	2e250000 	cdpcs	0, 2, cr0, cr5, cr0, {0}
     858:	3a0e0301 	bcc	381464 <__bss_end__+0x37619c>
     85c:	390b3b0b 	stmdbcc	fp, {r0, r1, r3, r8, r9, fp, ip, sp}
     860:	1119270b 	tstne	r9, fp, lsl #14
     864:	40061201 	andmi	r1, r6, r1, lsl #4
     868:	19429718 	stmdbne	r2, {r3, r4, r8, r9, sl, ip, pc}^
     86c:	00001301 	andeq	r1, r0, r1, lsl #6
     870:	03003426 	movweq	r3, #1062	; 0x426
     874:	3b0b3a0e 	blcc	2cf0b4 <__bss_end__+0x2c3dec>
     878:	490b390b 	stmdbmi	fp, {r0, r1, r3, r8, fp, ip, sp}
     87c:	00061c13 	andeq	r1, r6, r3, lsl ip
     880:	010b2700 	tsteq	fp, r0, lsl #14
     884:	06120111 			; <UNDEFINED> instruction: 0x06120111
     888:	00001301 	andeq	r1, r0, r1, lsl #6
     88c:	03000528 	movweq	r0, #1320	; 0x528
     890:	3b0b3a08 	blcc	2cf0b8 <__bss_end__+0x2c3df0>
     894:	490b390b 	stmdbmi	fp, {r0, r1, r3, r8, fp, ip, sp}
     898:	b7170213 			; <UNDEFINED> instruction: 0xb7170213
     89c:	00001742 	andeq	r1, r0, r2, asr #14
     8a0:	55010b29 	strpl	r0, [r1, #-2857]	; 0xfffff4d7
     8a4:	2a000017 	bcs	908 <__code_start__-0x76f8>
     8a8:	0e03012e 	adfeqsp	f0, f3, #0.5
     8ac:	0b3b0b3a 	bleq	ec359c <__bss_end__+0xeb82d4>
     8b0:	19270b39 	stmdbne	r7!, {r0, r3, r4, r5, r8, r9, fp}
     8b4:	0b201349 	bleq	8055e0 <__bss_end__+0x7fa318>
     8b8:	00001301 	andeq	r1, r0, r1, lsl #6
     8bc:	0300052b 	movweq	r0, #1323	; 0x52b
     8c0:	3b0b3a0e 	blcc	2cf100 <__bss_end__+0x2c3e38>
     8c4:	490b390b 	stmdbmi	fp, {r0, r1, r3, r8, fp, ip, sp}
     8c8:	2c000013 	stccs	0, cr0, [r0], {19}
     8cc:	193f002e 	ldmdbne	pc!, {r1, r2, r3, r5}	; <UNPREDICTABLE>
     8d0:	0e6e193c 			; <UNDEFINED> instruction: 0x0e6e193c
     8d4:	0b3a0e03 	bleq	e840e8 <__bss_end__+0xe78e20>
     8d8:	0b390b3b 	bleq	e435cc <__bss_end__+0xe38304>
     8dc:	362d0000 	strtcc	r0, [sp], -r0
     8e0:	00180200 	andseq	r0, r8, r0, lsl #4
     8e4:	11010000 	mrsne	r0, (UNDEF: 1)
     8e8:	130e2501 	movwne	r2, #58625	; 0xe501
     8ec:	1b0e030b 	blne	381520 <__bss_end__+0x376258>
     8f0:	1201110e 	andne	r1, r1, #-2147483645	; 0x80000003
     8f4:	00171006 	andseq	r1, r7, r6
     8f8:	00240200 	eoreq	r0, r4, r0, lsl #4
     8fc:	0b3e0b0b 	bleq	f83530 <__bss_end__+0xf78268>
     900:	00000803 	andeq	r0, r0, r3, lsl #16
     904:	0b002403 	bleq	9918 <va_printk+0x50c>
     908:	030b3e0b 	movweq	r3, #48651	; 0xbe0b
     90c:	0400000e 	streq	r0, [r0], #-14
     910:	19270115 	stmdbne	r7!, {r0, r2, r4, r8}
     914:	13011349 	movwne	r1, #4937	; 0x1349
     918:	05050000 	streq	r0, [r5, #-0]
     91c:	00134900 	andseq	r4, r3, r0, lsl #18
     920:	00340600 	eorseq	r0, r4, r0, lsl #12
     924:	0b3a0e03 	bleq	e84138 <__bss_end__+0xe78e70>
     928:	0b390b3b 	bleq	e4361c <__bss_end__+0xe38354>
     92c:	193f1349 	ldmdbne	pc!, {r0, r3, r6, r8, r9, ip}	; <UNPREDICTABLE>
     930:	0000193c 	andeq	r1, r0, ip, lsr r9
     934:	0b000f07 	bleq	4558 <__code_start__-0x3aa8>
     938:	0013490b 	andseq	r4, r3, fp, lsl #18
     93c:	00260800 	eoreq	r0, r6, r0, lsl #16
     940:	00001349 	andeq	r1, r0, r9, asr #6
     944:	3f012e09 	svccc	0x00012e09
     948:	3a0e0319 	bcc	3815b4 <__bss_end__+0x3762ec>
     94c:	390b3b0b 	stmdbcc	fp, {r0, r1, r3, r8, r9, fp, ip, sp}
     950:	4919270b 	ldmdbmi	r9, {r0, r1, r3, r8, r9, sl, sp}
     954:	010b2013 	tsteq	fp, r3, lsl r0
     958:	0a000013 	beq	9ac <__code_start__-0x7654>
     95c:	0e030005 	cdpeq	0, 0, cr0, cr3, cr5, {0}
     960:	0b3b0b3a 	bleq	ec3650 <__bss_end__+0xeb8388>
     964:	13490b39 	movtne	r0, #39737	; 0x9b39
     968:	340b0000 	strcc	r0, [fp], #-0
     96c:	3a0e0300 	bcc	381574 <__bss_end__+0x3762ac>
     970:	390b3b0b 	stmdbcc	fp, {r0, r1, r3, r8, r9, fp, ip, sp}
     974:	0013490b 	andseq	r4, r3, fp, lsl #18
     978:	010b0c00 	tsteq	fp, r0, lsl #24
     97c:	2e0d0000 	cdpcs	0, 0, cr0, cr13, cr0, {0}
     980:	03193f01 	tsteq	r9, #1, 30
     984:	3b0b3a0e 	blcc	2cf1c4 <__bss_end__+0x2c3efc>
     988:	490b390b 	stmdbmi	fp, {r0, r1, r3, r8, fp, ip, sp}
     98c:	12011113 	andne	r1, r1, #-1073741820	; 0xc0000004
     990:	97184006 	ldrls	r4, [r8, -r6]
     994:	13011942 	movwne	r1, #6466	; 0x1942
     998:	340e0000 	strcc	r0, [lr], #-0
     99c:	3a0e0300 	bcc	3815a4 <__bss_end__+0x3762dc>
     9a0:	390b3b0b 	stmdbcc	fp, {r0, r1, r3, r8, r9, fp, ip, sp}
     9a4:	0213490b 	andseq	r4, r3, #180224	; 0x2c000
     9a8:	1742b717 	smlaldne	fp, r2, r7, r7
     9ac:	0b0f0000 	bleq	3c09b4 <__bss_end__+0x3b56ec>
     9b0:	12011101 	andne	r1, r1, #1073741824	; 0x40000000
     9b4:	10000006 	andne	r0, r0, r6
     9b8:	08030034 	stmdaeq	r3, {r2, r4, r5}
     9bc:	0b3b0b3a 	bleq	ec36ac <__bss_end__+0xeb83e4>
     9c0:	13490b39 	movtne	r0, #39737	; 0x9b39
     9c4:	42b71702 	adcsmi	r1, r7, #524288	; 0x80000
     9c8:	11000017 	tstne	r0, r7, lsl r0
     9cc:	1755010b 	ldrbne	r0, [r5, -fp, lsl #2]
     9d0:	1d120000 	ldcne	0, cr0, [r2, #-0]
     9d4:	52133101 	andspl	r3, r3, #1073741824	; 0x40000000
     9d8:	0b42b801 	bleq	10ae9e4 <__bss_end__+0x10a371c>
     9dc:	0b581755 	bleq	1606738 <__bss_end__+0x15fb470>
     9e0:	0b570b59 	bleq	15c374c <__bss_end__+0x15b8484>
     9e4:	00001301 	andeq	r1, r0, r1, lsl #6
     9e8:	31000513 	tstcc	r0, r3, lsl r5
     9ec:	b7170213 			; <UNDEFINED> instruction: 0xb7170213
     9f0:	00001742 	andeq	r1, r0, r2, asr #14
     9f4:	31003414 	tstcc	r0, r4, lsl r4
     9f8:	b7170213 			; <UNDEFINED> instruction: 0xb7170213
     9fc:	00001742 	andeq	r1, r0, r2, asr #14
     a00:	31010b15 	tstcc	r1, r5, lsl fp
     a04:	00175513 	andseq	r5, r7, r3, lsl r5
     a08:	82891600 	addhi	r1, r9, #0, 12
     a0c:	01110101 	tsteq	r1, r1, lsl #2
     a10:	00001331 	andeq	r1, r0, r1, lsr r3
     a14:	01828a17 	orreq	r8, r2, r7, lsl sl
     a18:	91180200 	tstls	r8, r0, lsl #4
     a1c:	00001842 	andeq	r1, r0, r2, asr #16
     a20:	31012e18 	tstcc	r1, r8, lsl lr
     a24:	12011113 	andne	r1, r1, #-1073741820	; 0xc0000004
     a28:	97184006 	ldrls	r4, [r8, -r6]
     a2c:	13011942 	movwne	r1, #6466	; 0x1942
     a30:	0b190000 	bleq	640a38 <__bss_end__+0x635770>
     a34:	11133101 	tstne	r3, r1, lsl #2
     a38:	00061201 	andeq	r1, r6, r1, lsl #4
     a3c:	002e1a00 	eoreq	r1, lr, r0, lsl #20
     a40:	193c193f 	ldmdbne	ip!, {r0, r1, r2, r3, r4, r5, r8, fp, ip}
     a44:	0e030e6e 	cdpeq	14, 0, cr0, cr3, cr14, {3}
     a48:	0b3b0b3a 	bleq	ec3738 <__bss_end__+0xeb8470>
     a4c:	00000b39 	andeq	r0, r0, r9, lsr fp
     a50:	01110100 	tsteq	r1, r0, lsl #2
     a54:	0b130e25 	bleq	4c42f0 <__bss_end__+0x4b9028>
     a58:	0e1b0e03 	cdpeq	14, 1, cr0, cr11, cr3, {0}
     a5c:	06120111 			; <UNDEFINED> instruction: 0x06120111
     a60:	00001710 	andeq	r1, r0, r0, lsl r7
     a64:	0b002402 	bleq	9a74 <_cstart+0x10>
     a68:	030b3e0b 	movweq	r3, #48651	; 0xbe0b
     a6c:	03000008 	movweq	r0, #8
     a70:	0e030016 	mcreq	0, 0, r0, cr3, cr6, {0}
     a74:	0b3b0b3a 	bleq	ec3764 <__bss_end__+0xeb849c>
     a78:	13490b39 	movtne	r0, #39737	; 0x9b39
     a7c:	24040000 	strcs	r0, [r4], #-0
     a80:	3e0b0b00 	vmlacc.f64	d0, d11, d0
     a84:	000e030b 	andeq	r0, lr, fp, lsl #6
     a88:	01150500 	tsteq	r5, r0, lsl #10
     a8c:	13491927 	movtne	r1, #39207	; 0x9927
     a90:	00001301 	andeq	r1, r0, r1, lsl #6
     a94:	49000506 	stmdbmi	r0, {r1, r2, r8, sl}
     a98:	07000013 	smladeq	r0, r3, r0, r0
     a9c:	0e030034 	mcreq	0, 0, r0, cr3, cr4, {1}
     aa0:	0b3b0b3a 	bleq	ec3790 <__bss_end__+0xeb84c8>
     aa4:	13490b39 	movtne	r0, #39737	; 0x9b39
     aa8:	193c193f 	ldmdbne	ip!, {r0, r1, r2, r3, r4, r5, r8, fp, ip}
     aac:	0f080000 	svceq	0x00080000
     ab0:	490b0b00 	stmdbmi	fp, {r8, r9, fp}
     ab4:	09000013 	stmdbeq	r0, {r0, r1, r4}
     ab8:	13490026 	movtne	r0, #36902	; 0x9026
     abc:	2e0a0000 	cdpcs	0, 0, cr0, cr10, cr0, {0}
     ac0:	03193f01 	tsteq	r9, #1, 30
     ac4:	3b0b3a0e 	blcc	2cf304 <__bss_end__+0x2c403c>
     ac8:	270b390b 	strcs	r3, [fp, -fp, lsl #18]
     acc:	11134919 	tstne	r3, r9, lsl r9
     ad0:	40061201 	andmi	r1, r6, r1, lsl #4
     ad4:	19429718 	stmdbne	r2, {r3, r4, r8, r9, sl, ip, pc}^
     ad8:	00001301 	andeq	r1, r0, r1, lsl #6
     adc:	0300050b 	movweq	r0, #1291	; 0x50b
     ae0:	3b0b3a08 	blcc	2cf308 <__bss_end__+0x2c4040>
     ae4:	490b390b 	stmdbmi	fp, {r0, r1, r3, r8, fp, ip, sp}
     ae8:	00180213 	andseq	r0, r8, r3, lsl r2
     aec:	00050c00 	andeq	r0, r5, r0, lsl #24
     af0:	0b3a0803 	bleq	e82b04 <__bss_end__+0xe7783c>
     af4:	0b390b3b 	bleq	e437e8 <__bss_end__+0xe38520>
     af8:	17021349 	strne	r1, [r2, -r9, asr #6]
     afc:	001742b7 			; <UNDEFINED> instruction: 0x001742b7
     b00:	00340d00 	eorseq	r0, r4, r0, lsl #26
     b04:	0b3a0803 	bleq	e82b18 <__bss_end__+0xe77850>
     b08:	0b390b3b 	bleq	e437fc <__bss_end__+0xe38534>
     b0c:	17021349 	strne	r1, [r2, -r9, asr #6]
     b10:	001742b7 			; <UNDEFINED> instruction: 0x001742b7
     b14:	000f0e00 	andeq	r0, pc, r0, lsl #28
     b18:	00000b0b 	andeq	r0, r0, fp, lsl #22
     b1c:	01110100 	tsteq	r1, r0, lsl #2
     b20:	0b130e25 	bleq	4c43bc <__bss_end__+0x4b90f4>
     b24:	0e1b0e03 	cdpeq	14, 1, cr0, cr11, cr3, {0}
     b28:	06120111 			; <UNDEFINED> instruction: 0x06120111
     b2c:	00001710 	andeq	r1, r0, r0, lsl r7
     b30:	03001602 	movweq	r1, #1538	; 0x602
     b34:	3b0b3a0e 	blcc	2cf374 <__bss_end__+0x2c40ac>
     b38:	490b390b 	stmdbmi	fp, {r0, r1, r3, r8, fp, ip, sp}
     b3c:	03000013 	movweq	r0, #19
     b40:	0e030113 	mcreq	1, 0, r0, cr3, cr3, {0}
     b44:	0b3a0b0b 	bleq	e83778 <__bss_end__+0xe784b0>
     b48:	13010b3b 	movwne	r0, #6971	; 0x1b3b
     b4c:	0d040000 	stceq	0, cr0, [r4, #-0]
     b50:	490e0300 	stmdbmi	lr, {r8, r9}
     b54:	340b3813 	strcc	r3, [fp], #-2067	; 0xfffff7ed
     b58:	05000019 	streq	r0, [r0, #-25]	; 0xffffffe7
     b5c:	0b0b000f 	bleq	2c0ba0 <__bss_end__+0x2b58d8>
     b60:	24060000 	strcs	r0, [r6], #-0
     b64:	3e0b0b00 	vmlacc.f64	d0, d11, d0
     b68:	0008030b 	andeq	r0, r8, fp, lsl #6
     b6c:	00240700 	eoreq	r0, r4, r0, lsl #14
     b70:	0b3e0b0b 	bleq	f837a4 <__bss_end__+0xf784dc>
     b74:	00000e03 	andeq	r0, r0, r3, lsl #28
     b78:	27011508 	strcs	r1, [r1, -r8, lsl #10]
     b7c:	01134919 	tsteq	r3, r9, lsl r9
     b80:	09000013 	stmdbeq	r0, {r0, r1, r4}
     b84:	13490005 	movtne	r0, #36869	; 0x9005
     b88:	340a0000 	strcc	r0, [sl], #-0
     b8c:	3a0e0300 	bcc	381794 <__bss_end__+0x3764cc>
     b90:	390b3b0b 	stmdbcc	fp, {r0, r1, r3, r8, r9, fp, ip, sp}
     b94:	3f13490b 	svccc	0x0013490b
     b98:	00193c19 	andseq	r3, r9, r9, lsl ip
     b9c:	000f0b00 	andeq	r0, pc, r0, lsl #22
     ba0:	13490b0b 	movtne	r0, #39691	; 0x9b0b
     ba4:	260c0000 	strcs	r0, [ip], -r0
     ba8:	00134900 	andseq	r4, r3, r0, lsl #18
     bac:	012e0d00 			; <UNDEFINED> instruction: 0x012e0d00
     bb0:	0e03193f 			; <UNDEFINED> instruction: 0x0e03193f
     bb4:	0b3b0b3a 	bleq	ec38a4 <__bss_end__+0xeb85dc>
     bb8:	19270b39 	stmdbne	r7!, {r0, r3, r4, r5, r8, r9, fp}
     bbc:	01111349 	tsteq	r1, r9, asr #6
     bc0:	18400612 	stmdane	r0, {r1, r4, r9, sl}^
     bc4:	01194297 			; <UNDEFINED> instruction: 0x01194297
     bc8:	0e000013 	mcreq	0, 0, r0, cr0, cr3, {0}
     bcc:	08030005 	stmdaeq	r3, {r0, r2}
     bd0:	0b3b0b3a 	bleq	ec38c0 <__bss_end__+0xeb85f8>
     bd4:	13490b39 	movtne	r0, #39737	; 0x9b39
     bd8:	00001802 	andeq	r1, r0, r2, lsl #16
     bdc:	0000180f 	andeq	r1, r0, pc, lsl #16
     be0:	00341000 	eorseq	r1, r4, r0
     be4:	0b3a0803 	bleq	e82bf8 <__bss_end__+0xe77930>
     be8:	0b390b3b 	bleq	e438dc <__bss_end__+0xe38614>
     bec:	18021349 	stmdane	r2, {r0, r3, r6, r8, r9, ip}
     bf0:	34110000 	ldrcc	r0, [r1], #-0
     bf4:	3a0e0300 	bcc	3817fc <__bss_end__+0x376534>
     bf8:	390b3b0b 	stmdbcc	fp, {r0, r1, r3, r8, r9, fp, ip, sp}
     bfc:	0213490b 	andseq	r4, r3, #180224	; 0x2c000
     c00:	12000018 	andne	r0, r0, #24, 0
     c04:	08030034 	stmdaeq	r3, {r2, r4, r5}
     c08:	0b3b0b3a 	bleq	ec38f8 <__bss_end__+0xeb8630>
     c0c:	13490b39 	movtne	r0, #39737	; 0x9b39
     c10:	42b71702 	adcsmi	r1, r7, #524288	; 0x80000
     c14:	13000017 	movwne	r0, #23
     c18:	01018289 	smlabbeq	r1, r9, r2, r8
     c1c:	13310111 	teqne	r1, #1073741828	; 0x40000004
     c20:	00001301 	andeq	r1, r0, r1, lsl #6
     c24:	01828a14 	orreq	r8, r2, r4, lsl sl
     c28:	91180200 	tstls	r8, r0, lsl #4
     c2c:	00001842 	andeq	r1, r0, r2, asr #16
     c30:	01828915 	orreq	r8, r2, r5, lsl r9
     c34:	00011101 	andeq	r1, r1, r1, lsl #2
     c38:	01011600 	tsteq	r1, r0, lsl #12
     c3c:	13011349 	movwne	r1, #4937	; 0x1349
     c40:	21170000 	tstcs	r7, r0
     c44:	2f134900 	svccs	0x00134900
     c48:	18000005 	stmdane	r0, {r0, r2}
     c4c:	193f002e 	ldmdbne	pc!, {r1, r2, r3, r5}	; <UNPREDICTABLE>
     c50:	0e6e193c 			; <UNDEFINED> instruction: 0x0e6e193c
     c54:	0b3a0e03 	bleq	e84468 <__bss_end__+0xe791a0>
     c58:	0b390b3b 	bleq	e4394c <__bss_end__+0xe38684>
     c5c:	01000000 	mrseq	r0, (UNDEF: 0)
     c60:	0e250111 	mcreq	1, 1, r0, cr5, cr1, {0}
     c64:	0e030b13 	vmoveq.32	d3[0], r0
     c68:	01110e1b 	tsteq	r1, fp, lsl lr
     c6c:	17100612 			; <UNDEFINED> instruction: 0x17100612
     c70:	24020000 	strcs	r0, [r2], #-0
     c74:	3e0b0b00 	vmlacc.f64	d0, d11, d0
     c78:	0008030b 	andeq	r0, r8, fp, lsl #6
     c7c:	00240300 	eoreq	r0, r4, r0, lsl #6
     c80:	0b3e0b0b 	bleq	f838b4 <__bss_end__+0xf785ec>
     c84:	00000e03 	andeq	r0, r0, r3, lsl #28
     c88:	27011504 	strcs	r1, [r1, -r4, lsl #10]
     c8c:	01134919 	tsteq	r3, r9, lsl r9
     c90:	05000013 	streq	r0, [r0, #-19]	; 0xffffffed
     c94:	13490005 	movtne	r0, #36869	; 0x9005
     c98:	34060000 	strcc	r0, [r6], #-0
     c9c:	3a0e0300 	bcc	3818a4 <__bss_end__+0x3765dc>
     ca0:	390b3b0b 	stmdbcc	fp, {r0, r1, r3, r8, r9, fp, ip, sp}
     ca4:	3f13490b 	svccc	0x0013490b
     ca8:	00193c19 	andseq	r3, r9, r9, lsl ip
     cac:	000f0700 	andeq	r0, pc, r0, lsl #14
     cb0:	13490b0b 	movtne	r0, #39691	; 0x9b0b
     cb4:	26080000 	strcs	r0, [r8], -r0
     cb8:	00134900 	andseq	r4, r3, r0, lsl #18
     cbc:	00340900 	eorseq	r0, r4, r0, lsl #18
     cc0:	0b3a1347 	bleq	e859e4 <__bss_end__+0xe7a71c>
     cc4:	0b390b3b 	bleq	e439b8 <__bss_end__+0xe386f0>
     cc8:	00001802 	andeq	r1, r0, r2, lsl #16
     ccc:	3f012e0a 	svccc	0x00012e0a
     cd0:	3a0e0319 	bcc	38193c <__bss_end__+0x376674>
     cd4:	390b3b0b 	stmdbcc	fp, {r0, r1, r3, r8, r9, fp, ip, sp}
     cd8:	4919270b 	ldmdbmi	r9, {r0, r1, r3, r8, r9, sl, sp}
     cdc:	12011113 	andne	r1, r1, #-1073741820	; 0xc0000004
     ce0:	96184006 	ldrls	r4, [r8], -r6
     ce4:	00001942 	andeq	r1, r0, r2, asr #18
     ce8:	0300050b 	movweq	r0, #1291	; 0x50b
     cec:	3b0b3a08 	blcc	2cf514 <__bss_end__+0x2c424c>
     cf0:	490b390b 	stmdbmi	fp, {r0, r1, r3, r8, fp, ip, sp}
     cf4:	b7170213 			; <UNDEFINED> instruction: 0xb7170213
     cf8:	00001742 	andeq	r1, r0, r2, asr #14
     cfc:	01110100 	tsteq	r1, r0, lsl #2
     d00:	0b130e25 	bleq	4c459c <__bss_end__+0x4b92d4>
     d04:	0e1b0e03 	cdpeq	14, 1, cr0, cr11, cr3, {0}
     d08:	06120111 			; <UNDEFINED> instruction: 0x06120111
     d0c:	00001710 	andeq	r1, r0, r0, lsl r7
     d10:	0b002402 	bleq	9d20 <delay_sec+0x3c>
     d14:	030b3e0b 	movweq	r3, #48651	; 0xbe0b
     d18:	0300000e 	movweq	r0, #14
     d1c:	0b0b0024 	bleq	2c0db4 <__bss_end__+0x2b5aec>
     d20:	08030b3e 	stmdaeq	r3, {r1, r2, r3, r4, r5, r8, r9, fp}
     d24:	16040000 	strne	r0, [r4], -r0
     d28:	3a0e0300 	bcc	381930 <__bss_end__+0x376668>
     d2c:	390b3b0b 	stmdbcc	fp, {r0, r1, r3, r8, r9, fp, ip, sp}
     d30:	0013490b 	andseq	r4, r3, fp, lsl #18
     d34:	01150500 	tsteq	r5, r0, lsl #10
     d38:	13491927 	movtne	r1, #39207	; 0x9927
     d3c:	00001301 	andeq	r1, r0, r1, lsl #6
     d40:	49000506 	stmdbmi	r0, {r1, r2, r8, sl}
     d44:	07000013 	smladeq	r0, r3, r0, r0
     d48:	0e030034 	mcreq	0, 0, r0, cr3, cr4, {1}
     d4c:	0b3b0b3a 	bleq	ec3a3c <__bss_end__+0xeb8774>
     d50:	13490b39 	movtne	r0, #39737	; 0x9b39
     d54:	193c193f 	ldmdbne	ip!, {r0, r1, r2, r3, r4, r5, r8, fp, ip}
     d58:	0f080000 	svceq	0x00080000
     d5c:	490b0b00 	stmdbmi	fp, {r8, r9, fp}
     d60:	09000013 	stmdbeq	r0, {r0, r1, r4}
     d64:	13490026 	movtne	r0, #36902	; 0x9026
     d68:	130a0000 	movwne	r0, #40960	; 0xa000
     d6c:	0b0e0301 	bleq	381978 <__bss_end__+0x3766b0>
     d70:	3b0b3a0b 	blcc	2cf5a4 <__bss_end__+0x2c42dc>
     d74:	0013010b 	andseq	r0, r3, fp, lsl #2
     d78:	000d0b00 	andeq	r0, sp, r0, lsl #22
     d7c:	13490e03 	movtne	r0, #40451	; 0x9e03
     d80:	19340b38 	ldmdbne	r4!, {r3, r4, r5, r8, r9, fp}
     d84:	0f0c0000 	svceq	0x000c0000
     d88:	000b0b00 	andeq	r0, fp, r0, lsl #22
     d8c:	012e0d00 			; <UNDEFINED> instruction: 0x012e0d00
     d90:	0e03193f 			; <UNDEFINED> instruction: 0x0e03193f
     d94:	0b3b0b3a 	bleq	ec3a84 <__bss_end__+0xeb87bc>
     d98:	19270b39 	stmdbne	r7!, {r0, r3, r4, r5, r8, r9, fp}
     d9c:	01111349 	tsteq	r1, r9, asr #6
     da0:	18400612 	stmdane	r0, {r1, r4, r9, sl}^
     da4:	01194297 			; <UNDEFINED> instruction: 0x01194297
     da8:	0e000013 	mcreq	0, 0, r0, cr0, cr3, {0}
     dac:	08030005 	stmdaeq	r3, {r0, r2}
     db0:	0b3b0b3a 	bleq	ec3aa0 <__bss_end__+0xeb87d8>
     db4:	13490b39 	movtne	r0, #39737	; 0x9b39
     db8:	42b71702 	adcsmi	r1, r7, #524288	; 0x80000
     dbc:	0f000017 	svceq	0x00000017
     dc0:	0e030005 	cdpeq	0, 0, cr0, cr3, cr5, {0}
     dc4:	0b3b0b3a 	bleq	ec3ab4 <__bss_end__+0xeb87ec>
     dc8:	13490b39 	movtne	r0, #39737	; 0x9b39
     dcc:	42b71702 	adcsmi	r1, r7, #524288	; 0x80000
     dd0:	10000017 	andne	r0, r0, r7, lsl r0
     dd4:	08030034 	stmdaeq	r3, {r2, r4, r5}
     dd8:	0b3b0b3a 	bleq	ec3ac8 <__bss_end__+0xeb8800>
     ddc:	13490b39 	movtne	r0, #39737	; 0x9b39
     de0:	42b71702 	adcsmi	r1, r7, #524288	; 0x80000
     de4:	11000017 	tstne	r0, r7, lsl r0
     de8:	0e030034 	mcreq	0, 0, r0, cr3, cr4, {1}
     dec:	0b3b0b3a 	bleq	ec3adc <__bss_end__+0xeb8814>
     df0:	13490b39 	movtne	r0, #39737	; 0x9b39
     df4:	42b71702 	adcsmi	r1, r7, #524288	; 0x80000
     df8:	12000017 	andne	r0, r0, #23, 0
     dfc:	0e030034 	mcreq	0, 0, r0, cr3, cr4, {1}
     e00:	19341349 	ldmdbne	r4!, {r0, r3, r6, r8, r9, ip}
     e04:	00001802 	andeq	r1, r0, r2, lsl #16
     e08:	55010b13 	strpl	r0, [r1, #-2835]	; 0xfffff4ed
     e0c:	14000017 	strne	r0, [r0], #-23	; 0xffffffe9
     e10:	08030034 	stmdaeq	r3, {r2, r4, r5}
     e14:	0b3b0b3a 	bleq	ec3b04 <__bss_end__+0xeb883c>
     e18:	13490b39 	movtne	r0, #39737	; 0x9b39
     e1c:	00001802 	andeq	r1, r0, r2, lsl #16
     e20:	03003415 	movweq	r3, #1045	; 0x415
     e24:	3b0b3a0e 	blcc	2cf664 <__bss_end__+0x2c439c>
     e28:	490b390b 	stmdbmi	fp, {r0, r1, r3, r8, fp, ip, sp}
     e2c:	00180213 	andseq	r0, r8, r3, lsl r2
     e30:	010b1600 	tsteq	fp, r0, lsl #12
     e34:	13011755 	movwne	r1, #5973	; 0x1755
     e38:	89170000 	ldmdbhi	r7, {}	; <UNPREDICTABLE>
     e3c:	11010182 	smlabbne	r1, r2, r1, r0
     e40:	01133101 	tsteq	r3, r1, lsl #2
     e44:	18000013 	stmdane	r0, {r0, r1, r4}
     e48:	0001828a 	andeq	r8, r1, sl, lsl #5
     e4c:	42911802 	addsmi	r1, r1, #131072	; 0x20000
     e50:	19000018 	stmdbne	r0, {r3, r4}
     e54:	00018289 	andeq	r8, r1, r9, lsl #5
     e58:	13310111 	teqne	r1, #1073741828	; 0x40000004
     e5c:	1d1a0000 	ldcne	0, cr0, [sl, #-0]
     e60:	52133101 	andspl	r3, r3, #1073741824	; 0x40000000
     e64:	0542b801 	strbeq	fp, [r2, #-2049]	; 0xfffff7ff
     e68:	0b581755 	bleq	1606bc4 <__bss_end__+0x15fb8fc>
     e6c:	0b570b59 	bleq	15c3bd8 <__bss_end__+0x15b8910>
     e70:	00001301 	andeq	r1, r0, r1, lsl #6
     e74:	3100051b 	tstcc	r0, fp, lsl r5
     e78:	b7170213 			; <UNDEFINED> instruction: 0xb7170213
     e7c:	00001742 	andeq	r1, r0, r2, asr #14
     e80:	3100051c 	tstcc	r0, ip, lsl r5
     e84:	1d000013 	stcne	0, cr0, [r0, #-76]	; 0xffffffb4
     e88:	13310034 	teqne	r1, #52, 0	; 0x34
     e8c:	00001802 	andeq	r1, r0, r2, lsl #16
     e90:	3100341e 	tstcc	r0, lr, lsl r4
     e94:	b7170213 			; <UNDEFINED> instruction: 0xb7170213
     e98:	00001742 	andeq	r1, r0, r2, asr #14
     e9c:	3100341f 	tstcc	r0, pc, lsl r4
     ea0:	20000013 	andcs	r0, r0, r3, lsl r0
     ea4:	1331011d 	teqne	r1, #1073741831	; 0x40000007
     ea8:	42b80152 	adcsmi	r0, r8, #-2147483628	; 0x80000014
     eac:	58175505 	ldmdapl	r7, {r0, r2, r8, sl, ip, lr}
     eb0:	570b590b 	strpl	r5, [fp, -fp, lsl #18]
     eb4:	2100000b 	tstcs	r0, fp
     eb8:	01018289 	smlabbeq	r1, r9, r2, r8
     ebc:	13010111 	movwne	r0, #4369	; 0x1111
     ec0:	01220000 			; <UNDEFINED> instruction: 0x01220000
     ec4:	01134901 	tsteq	r3, r1, lsl #18
     ec8:	23000013 	movwcs	r0, #19
     ecc:	13490021 	movtne	r0, #36897	; 0x9021
     ed0:	00000b2f 	andeq	r0, r0, pc, lsr #22
     ed4:	03012e24 	movweq	r2, #7716	; 0x1e24
     ed8:	3b0b3a0e 	blcc	2cf718 <__bss_end__+0x2c4450>
     edc:	270b390b 	strcs	r3, [fp, -fp, lsl #18]
     ee0:	20134919 	andscs	r4, r3, r9, lsl r9
     ee4:	0013010b 	andseq	r0, r3, fp, lsl #2
     ee8:	00052500 	andeq	r2, r5, r0, lsl #10
     eec:	0b3a0e03 	bleq	e84700 <__bss_end__+0xe79438>
     ef0:	0b390b3b 	bleq	e43be4 <__bss_end__+0xe3891c>
     ef4:	00001349 	andeq	r1, r0, r9, asr #6
     ef8:	03000526 	movweq	r0, #1318	; 0x526
     efc:	3b0b3a08 	blcc	2cf724 <__bss_end__+0x2c445c>
     f00:	490b390b 	stmdbmi	fp, {r0, r1, r3, r8, fp, ip, sp}
     f04:	27000013 	smladcs	r0, r3, r0, r0
     f08:	08030034 	stmdaeq	r3, {r2, r4, r5}
     f0c:	0b3b0b3a 	bleq	ec3bfc <__bss_end__+0xeb8934>
     f10:	13490b39 	movtne	r0, #39737	; 0x9b39
     f14:	0b280000 	bleq	a00f1c <__bss_end__+0x9f5c54>
     f18:	29000001 	stmdbcs	r0, {r0}
     f1c:	0e030034 	mcreq	0, 0, r0, cr3, cr4, {1}
     f20:	0b3b0b3a 	bleq	ec3c10 <__bss_end__+0xeb8948>
     f24:	13490b39 	movtne	r0, #39737	; 0x9b39
     f28:	2e2a0000 	cdpcs	0, 2, cr0, cr10, cr0, {0}
     f2c:	3a080301 	bcc	201b38 <__bss_end__+0x1f6870>
     f30:	390b3b0b 	stmdbcc	fp, {r0, r1, r3, r8, r9, fp, ip, sp}
     f34:	4919270b 	ldmdbmi	r9, {r0, r1, r3, r8, r9, sl, sp}
     f38:	010b2013 	tsteq	fp, r3, lsl r0
     f3c:	2b000013 	blcs	f90 <__code_start__-0x7070>
     f40:	193f012e 	ldmdbne	pc!, {r1, r2, r3, r5, r8}	; <UNPREDICTABLE>
     f44:	0b3a0e03 	bleq	e84758 <__bss_end__+0xe79490>
     f48:	0b390b3b 	bleq	e43c3c <__bss_end__+0xe38974>
     f4c:	01111927 	tsteq	r1, r7, lsr #18
     f50:	18400612 	stmdane	r0, {r1, r4, r9, sl}^
     f54:	01194297 			; <UNDEFINED> instruction: 0x01194297
     f58:	2c000013 	stccs	0, cr0, [r0], {19}
     f5c:	1331012e 	teqne	r1, #-2147483637	; 0x8000000b
     f60:	06120111 			; <UNDEFINED> instruction: 0x06120111
     f64:	42971840 	addsmi	r1, r7, #64, 16	; 0x400000
     f68:	00130119 	andseq	r0, r3, r9, lsl r1
     f6c:	00052d00 	andeq	r2, r5, r0, lsl #26
     f70:	18021331 	stmdane	r2, {r0, r4, r5, r8, r9, ip}
     f74:	052e0000 	streq	r0, [lr, #-0]!
     f78:	1c133100 	ldfnes	f3, [r3], {-0}
     f7c:	2f00000b 	svccs	0x0000000b
     f80:	1331010b 	teqne	r1, #-1073741822	; 0xc0000002
     f84:	06120111 			; <UNDEFINED> instruction: 0x06120111
     f88:	00001301 	andeq	r1, r0, r1, lsl #6
     f8c:	3f002e30 	svccc	0x00002e30
     f90:	6e193c19 	mrcvs	12, 0, r3, cr9, cr9, {0}
     f94:	3a0e030e 	bcc	381bd4 <__bss_end__+0x37690c>
     f98:	390b3b0b 	stmdbcc	fp, {r0, r1, r3, r8, r9, fp, ip, sp}
     f9c:	0000000b 	andeq	r0, r0, fp
     fa0:	25011101 	strcs	r1, [r1, #-257]	; 0xfffffeff
     fa4:	030b130e 	movweq	r1, #45838	; 0xb30e
     fa8:	110e1b0e 	tstne	lr, lr, lsl #22
     fac:	10061201 	andne	r1, r6, r1, lsl #4
     fb0:	02000017 	andeq	r0, r0, #23, 0
     fb4:	0b0b0024 	bleq	2c104c <__bss_end__+0x2b5d84>
     fb8:	08030b3e 	stmdaeq	r3, {r1, r2, r3, r4, r5, r8, r9, fp}
     fbc:	24030000 	strcs	r0, [r3], #-0
     fc0:	3e0b0b00 	vmlacc.f64	d0, d11, d0
     fc4:	000e030b 	andeq	r0, lr, fp, lsl #6
     fc8:	01150400 	tsteq	r5, r0, lsl #8
     fcc:	13491927 	movtne	r1, #39207	; 0x9927
     fd0:	00001301 	andeq	r1, r0, r1, lsl #6
     fd4:	49000505 	stmdbmi	r0, {r0, r2, r8, sl}
     fd8:	06000013 			; <UNDEFINED> instruction: 0x06000013
     fdc:	0e030034 	mcreq	0, 0, r0, cr3, cr4, {1}
     fe0:	0b3b0b3a 	bleq	ec3cd0 <__bss_end__+0xeb8a08>
     fe4:	13490b39 	movtne	r0, #39737	; 0x9b39
     fe8:	193c193f 	ldmdbne	ip!, {r0, r1, r2, r3, r4, r5, r8, fp, ip}
     fec:	0f070000 	svceq	0x00070000
     ff0:	490b0b00 	stmdbmi	fp, {r8, r9, fp}
     ff4:	08000013 	stmdaeq	r0, {r0, r1, r4}
     ff8:	13490026 	movtne	r0, #36902	; 0x9026
     ffc:	2e090000 	cdpcs	0, 0, cr0, cr9, cr0, {0}
    1000:	03193f01 	tsteq	r9, #1, 30
    1004:	3b0b3a0e 	blcc	2cf844 <__bss_end__+0x2c457c>
    1008:	270b390b 	strcs	r3, [fp, -fp, lsl #18]
    100c:	19018719 	stmdbne	r1, {r0, r3, r4, r8, r9, sl, pc}
    1010:	06120111 			; <UNDEFINED> instruction: 0x06120111
    1014:	42971840 	addsmi	r1, r7, #64, 16	; 0x400000
    1018:	00130119 	andseq	r0, r3, r9, lsl r1
    101c:	82890a00 	addhi	r0, r9, #0, 20
    1020:	01110101 	tsteq	r1, r1, lsl #2
    1024:	00001301 	andeq	r1, r0, r1, lsl #6
    1028:	01828a0b 	orreq	r8, r2, fp, lsl #20
    102c:	91180200 	tstls	r8, r0, lsl #4
    1030:	00001842 	andeq	r1, r0, r2, asr #16
    1034:	0182890c 	orreq	r8, r2, ip, lsl #18
    1038:	31011100 	mrscc	r1, (UNDEF: 17)
    103c:	0d000013 	stceq	0, cr0, [r0, #-76]	; 0xffffffb4
    1040:	01018289 	smlabbeq	r1, r9, r2, r8
    1044:	13310111 	teqne	r1, #1073741828	; 0x40000004
    1048:	00001301 	andeq	r1, r0, r1, lsl #6
    104c:	3f002e0e 	svccc	0x00002e0e
    1050:	6e193c19 	mrcvs	12, 0, r3, cr9, cr9, {0}
    1054:	3a0e030e 	bcc	381c94 <__bss_end__+0x3769cc>
    1058:	390b3b0b 	stmdbcc	fp, {r0, r1, r3, r8, r9, fp, ip, sp}
    105c:	0000000b 	andeq	r0, r0, fp
    1060:	25011101 	strcs	r1, [r1, #-257]	; 0xfffffeff
    1064:	030b130e 	movweq	r1, #45838	; 0xb30e
    1068:	110e1b0e 	tstne	lr, lr, lsl #22
    106c:	10061201 	andne	r1, r6, r1, lsl #4
    1070:	02000017 	andeq	r0, r0, #23, 0
    1074:	0b0b0024 	bleq	2c110c <__bss_end__+0x2b5e44>
    1078:	08030b3e 	stmdaeq	r3, {r1, r2, r3, r4, r5, r8, r9, fp}
    107c:	24030000 	strcs	r0, [r3], #-0
    1080:	3e0b0b00 	vmlacc.f64	d0, d11, d0
    1084:	000e030b 	andeq	r0, lr, fp, lsl #6
    1088:	01150400 	tsteq	r5, r0, lsl #8
    108c:	13491927 	movtne	r1, #39207	; 0x9927
    1090:	00001301 	andeq	r1, r0, r1, lsl #6
    1094:	49000505 	stmdbmi	r0, {r0, r2, r8, sl}
    1098:	06000013 			; <UNDEFINED> instruction: 0x06000013
    109c:	0e030034 	mcreq	0, 0, r0, cr3, cr4, {1}
    10a0:	0b3b0b3a 	bleq	ec3d90 <__bss_end__+0xeb8ac8>
    10a4:	13490b39 	movtne	r0, #39737	; 0x9b39
    10a8:	193c193f 	ldmdbne	ip!, {r0, r1, r2, r3, r4, r5, r8, fp, ip}
    10ac:	0f070000 	svceq	0x00070000
    10b0:	490b0b00 	stmdbmi	fp, {r8, r9, fp}
    10b4:	08000013 	stmdaeq	r0, {r0, r1, r4}
    10b8:	13490026 	movtne	r0, #36902	; 0x9026
    10bc:	2e090000 	cdpcs	0, 0, cr0, cr9, cr0, {0}
    10c0:	03193f01 	tsteq	r9, #1, 30
    10c4:	3b0b3a0e 	blcc	2cf904 <__bss_end__+0x2c463c>
    10c8:	110b390b 	tstne	fp, fp, lsl #18
    10cc:	40061201 	andmi	r1, r6, r1, lsl #4
    10d0:	19429718 	stmdbne	r2, {r3, r4, r8, r9, sl, ip, pc}^
    10d4:	00001301 	andeq	r1, r0, r1, lsl #6
    10d8:	3f002e0a 	svccc	0x00002e0a
    10dc:	3a0e0319 	bcc	381d48 <__bss_end__+0x376a80>
    10e0:	390b3b0b 	stmdbcc	fp, {r0, r1, r3, r8, r9, fp, ip, sp}
    10e4:	3c19270b 	ldccc	7, cr2, [r9], {11}
    10e8:	0b000019 	bleq	1154 <__code_start__-0x6eac>
    10ec:	08030034 	stmdaeq	r3, {r2, r4, r5}
    10f0:	0b3b0b3a 	bleq	ec3de0 <__bss_end__+0xeb8b18>
    10f4:	13490b39 	movtne	r0, #39737	; 0x9b39
    10f8:	42b71702 	adcsmi	r1, r7, #524288	; 0x80000
    10fc:	0c000017 	stceq	0, cr0, [r0], {23}
    1100:	0e030034 	mcreq	0, 0, r0, cr3, cr4, {1}
    1104:	0b3b0b3a 	bleq	ec3df4 <__bss_end__+0xeb8b2c>
    1108:	13490b39 	movtne	r0, #39737	; 0x9b39
    110c:	340d0000 	strcc	r0, [sp], #-0
    1110:	3a0e0300 	bcc	381d18 <__bss_end__+0x376a50>
    1114:	390b3b0b 	stmdbcc	fp, {r0, r1, r3, r8, r9, fp, ip, sp}
    1118:	0213490b 	andseq	r4, r3, #180224	; 0x2c000
    111c:	1742b717 	smlaldne	fp, r2, r7, r7
    1120:	0b0e0000 	bleq	381128 <__bss_end__+0x375e60>
    1124:	12011101 	andne	r1, r1, #1073741824	; 0x40000000
    1128:	00130106 	andseq	r0, r3, r6, lsl #2
    112c:	011d0f00 	tsteq	sp, r0, lsl #30
    1130:	01521331 	cmpeq	r2, r1, lsr r3
    1134:	110b42b8 			; <UNDEFINED> instruction: 0x110b42b8
    1138:	58061201 	stmdapl	r6, {r0, r9, ip}
    113c:	570b590b 	strpl	r5, [fp, -fp, lsl #18]
    1140:	0013010b 	andseq	r0, r3, fp, lsl #2
    1144:	00341000 	eorseq	r1, r4, r0
    1148:	17021331 	smladxne	r2, r1, r3, r1
    114c:	001742b7 			; <UNDEFINED> instruction: 0x001742b7
    1150:	010b1100 	mrseq	r1, (UNDEF: 27)
    1154:	01111331 	tsteq	r1, r1, lsr r3
    1158:	00000612 	andeq	r0, r0, r2, lsl r6
    115c:	31011d12 	tstcc	r1, r2, lsl sp
    1160:	b8015213 	stmdalt	r1, {r0, r1, r4, r9, ip, lr}
    1164:	17550b42 	ldrbne	r0, [r5, -r2, asr #22]
    1168:	0b590b58 	bleq	1643ed0 <__bss_end__+0x1638c08>
    116c:	13010b57 	movwne	r0, #6999	; 0x1b57
    1170:	0b130000 	bleq	4c1178 <__bss_end__+0x4b5eb0>
    1174:	00175501 	andseq	r5, r7, r1, lsl #10
    1178:	82891400 	addhi	r1, r9, #0, 8
    117c:	01110001 	tsteq	r1, r1
    1180:	00001331 	andeq	r1, r0, r1, lsr r3
    1184:	01828915 	orreq	r8, r2, r5, lsl r9
    1188:	31011101 	tstcc	r1, r1, lsl #2
    118c:	00130113 	andseq	r0, r3, r3, lsl r1
    1190:	828a1600 	addhi	r1, sl, #0, 12
    1194:	18020001 	stmdane	r2, {r0}
    1198:	00184291 	mulseq	r8, r1, r2
    119c:	012e1700 			; <UNDEFINED> instruction: 0x012e1700
    11a0:	0b3a0e03 	bleq	e849b4 <__bss_end__+0xe796ec>
    11a4:	0b390b3b 	bleq	e43e98 <__bss_end__+0xe38bd0>
    11a8:	13491927 	movtne	r1, #39207	; 0x9927
    11ac:	13010b20 	movwne	r0, #6944	; 0x1b20
    11b0:	34180000 	ldrcc	r0, [r8], #-0
    11b4:	3a0e0300 	bcc	381dbc <__bss_end__+0x376af4>
    11b8:	390b3b0b 	stmdbcc	fp, {r0, r1, r3, r8, r9, fp, ip, sp}
    11bc:	0213490b 	andseq	r4, r3, #180224	; 0x2c000
    11c0:	19000018 	stmdbne	r0, {r3, r4}
    11c4:	08030034 	stmdaeq	r3, {r2, r4, r5}
    11c8:	0b3b0b3a 	bleq	ec3eb8 <__bss_end__+0xeb8bf0>
    11cc:	13490b39 	movtne	r0, #39737	; 0x9b39
    11d0:	0b1a0000 	bleq	6811d8 <__bss_end__+0x675f10>
    11d4:	1b000001 	blne	11e0 <__code_start__-0x6e20>
    11d8:	193f002e 	ldmdbne	pc!, {r1, r2, r3, r5}	; <UNPREDICTABLE>
    11dc:	0e6e193c 			; <UNDEFINED> instruction: 0x0e6e193c
    11e0:	0b3a0e03 	bleq	e849f4 <__bss_end__+0xe7972c>
    11e4:	0b39053b 	bleq	e426d8 <__bss_end__+0xe37410>
    11e8:	2e1c0000 	cdpcs	0, 1, cr0, cr12, cr0, {0}
    11ec:	3c193f00 	ldccc	15, cr3, [r9], {-0}
    11f0:	030e6e19 	movweq	r6, #60953	; 0xee19
    11f4:	3b0b3a0e 	blcc	2cfa34 <__bss_end__+0x2c476c>
    11f8:	000b390b 	andeq	r3, fp, fp, lsl #18
    11fc:	11010000 	mrsne	r0, (UNDEF: 1)
    1200:	130e2501 	movwne	r2, #58625	; 0xe501
    1204:	1b0e030b 	blne	381e38 <__bss_end__+0x376b70>
    1208:	1201110e 	andne	r1, r1, #-2147483645	; 0x80000003
    120c:	00171006 	andseq	r1, r7, r6
    1210:	00240200 	eoreq	r0, r4, r0, lsl #4
    1214:	0b3e0b0b 	bleq	f83e48 <__bss_end__+0xf78b80>
    1218:	00000803 	andeq	r0, r0, r3, lsl #16
    121c:	0b002403 	bleq	a230 <kmalloc_aligned+0xe8>
    1220:	030b3e0b 	movweq	r3, #48651	; 0xbe0b
    1224:	0400000e 	streq	r0, [r0], #-14
    1228:	19270115 	stmdbne	r7!, {r0, r2, r4, r8}
    122c:	13011349 	movwne	r1, #4937	; 0x1349
    1230:	05050000 	streq	r0, [r5, #-0]
    1234:	00134900 	andseq	r4, r3, r0, lsl #18
    1238:	00340600 	eorseq	r0, r4, r0, lsl #12
    123c:	0b3a0e03 	bleq	e84a50 <__bss_end__+0xe79788>
    1240:	0b390b3b 	bleq	e43f34 <__bss_end__+0xe38c6c>
    1244:	193f1349 	ldmdbne	pc!, {r0, r3, r6, r8, r9, ip}	; <UNPREDICTABLE>
    1248:	0000193c 	andeq	r1, r0, ip, lsr r9
    124c:	0b000f07 	bleq	4e70 <__code_start__-0x3190>
    1250:	0013490b 	andseq	r4, r3, fp, lsl #18
    1254:	00260800 	eoreq	r0, r6, r0, lsl #16
    1258:	00001349 	andeq	r1, r0, r9, asr #6
    125c:	3f002e09 	svccc	0x00002e09
    1260:	3a0e0319 	bcc	381ecc <__bss_end__+0x376c04>
    1264:	390b3b0b 	stmdbcc	fp, {r0, r1, r3, r8, r9, fp, ip, sp}
    1268:	1119270b 	tstne	r9, fp, lsl #14
    126c:	40061201 	andmi	r1, r6, r1, lsl #4
    1270:	19429718 	stmdbne	r2, {r3, r4, r8, r9, sl, ip, pc}^
    1274:	01000000 	mrseq	r0, (UNDEF: 0)
    1278:	0e250111 	mcreq	1, 1, r0, cr5, cr1, {0}
    127c:	0e030b13 	vmoveq.32	d3[0], r0
    1280:	17550e1b 	smmlane	r5, fp, lr, r0
    1284:	17100111 			; <UNDEFINED> instruction: 0x17100111
    1288:	24020000 	strcs	r0, [r2], #-0
    128c:	3e0b0b00 	vmlacc.f64	d0, d11, d0
    1290:	0008030b 	andeq	r0, r8, fp, lsl #6
    1294:	00260300 	eoreq	r0, r6, r0, lsl #6
    1298:	00001349 	andeq	r1, r0, r9, asr #6
    129c:	0b002404 	bleq	a2b4 <kfree_pop+0x3c>
    12a0:	030b3e0b 	movweq	r3, #48651	; 0xbe0b
    12a4:	0500000e 	streq	r0, [r0, #-14]
    12a8:	19270115 	stmdbne	r7!, {r0, r2, r4, r8}
    12ac:	13011349 	movwne	r1, #4937	; 0x1349
    12b0:	05060000 	streq	r0, [r6, #-0]
    12b4:	00134900 	andseq	r4, r3, r0, lsl #18
    12b8:	00340700 	eorseq	r0, r4, r0, lsl #14
    12bc:	0b3a0e03 	bleq	e84ad0 <__bss_end__+0xe79808>
    12c0:	0b390b3b 	bleq	e43fb4 <__bss_end__+0xe38cec>
    12c4:	193f1349 	ldmdbne	pc!, {r0, r3, r6, r8, r9, ip}	; <UNPREDICTABLE>
    12c8:	0000193c 	andeq	r1, r0, ip, lsr r9
    12cc:	0b000f08 	bleq	4ef4 <__code_start__-0x310c>
    12d0:	0013490b 	andseq	r4, r3, fp, lsl #18
    12d4:	00340900 	eorseq	r0, r4, r0, lsl #18
    12d8:	0b3a0e03 	bleq	e84aec <__bss_end__+0xe79824>
    12dc:	0b390b3b 	bleq	e43fd0 <__bss_end__+0xe38d08>
    12e0:	00001349 	andeq	r1, r0, r9, asr #6
    12e4:	3f012e0a 	svccc	0x00012e0a
    12e8:	3a0e0319 	bcc	381f54 <__bss_end__+0x376c8c>
    12ec:	390b3b0b 	stmdbcc	fp, {r0, r1, r3, r8, r9, fp, ip, sp}
    12f0:	8719270b 	ldrhi	r2, [r9, -fp, lsl #14]
    12f4:	01111901 	tsteq	r1, r1, lsl #18
    12f8:	18400612 	stmdane	r0, {r1, r4, r9, sl}^
    12fc:	01194297 			; <UNDEFINED> instruction: 0x01194297
    1300:	0b000013 	bleq	1354 <__code_start__-0x6cac>
    1304:	0e030034 	mcreq	0, 0, r0, cr3, cr4, {1}
    1308:	0b3b0b3a 	bleq	ec3ff8 <__bss_end__+0xeb8d30>
    130c:	13490b39 	movtne	r0, #39737	; 0x9b39
    1310:	0000061c 	andeq	r0, r0, ip, lsl r6
    1314:	0300340c 	movweq	r3, #1036	; 0x40c
    1318:	3b0b3a0e 	blcc	2cfb58 <__bss_end__+0x2c4890>
    131c:	490b390b 	stmdbmi	fp, {r0, r1, r3, r8, fp, ip, sp}
    1320:	000b1c13 	andeq	r1, fp, r3, lsl ip
    1324:	011d0d00 	tsteq	sp, r0, lsl #26
    1328:	01521331 	cmpeq	r2, r1, lsr r3
    132c:	550b42b8 	strpl	r4, [fp, #-696]	; 0xfffffd48
    1330:	590b5817 	stmdbpl	fp, {r0, r1, r2, r4, fp, ip, lr}
    1334:	010b570b 	tsteq	fp, fp, lsl #14
    1338:	0e000013 	mcreq	0, 0, r0, cr0, cr3, {0}
    133c:	1755010b 	ldrbne	r0, [r5, -fp, lsl #2]
    1340:	340f0000 	strcc	r0, [pc], #-0	; 1348 <__code_start__-0x6cb8>
    1344:	02133100 	andseq	r3, r3, #0
    1348:	1742b717 	smlaldne	fp, r2, r7, r7
    134c:	1d100000 	ldcne	0, cr0, [r0, #-0]
    1350:	52133101 	andspl	r3, r3, #1073741824	; 0x40000000
    1354:	0b42b801 	bleq	10af360 <__bss_end__+0x10a4098>
    1358:	06120111 			; <UNDEFINED> instruction: 0x06120111
    135c:	0b590b58 	bleq	16440c4 <__bss_end__+0x1638dfc>
    1360:	13010b57 	movwne	r0, #6999	; 0x1b57
    1364:	89110000 	ldmdbhi	r1, {}	; <UNPREDICTABLE>
    1368:	11000182 	smlabbne	r0, r2, r1, r0
    136c:	00133101 	andseq	r3, r3, r1, lsl #2
    1370:	82891200 	addhi	r1, r9, #0, 4
    1374:	01110101 	tsteq	r1, r1, lsl #2
    1378:	13011331 	movwne	r1, #4913	; 0x1331
    137c:	8a130000 	bhi	4c1384 <__bss_end__+0x4b60bc>
    1380:	02000182 	andeq	r0, r0, #-2147483616	; 0x80000020
    1384:	18429118 	stmdane	r2, {r3, r4, r8, ip, pc}^
    1388:	89140000 	ldmdbhi	r4, {}	; <UNPREDICTABLE>
    138c:	11010182 	smlabbne	r1, r2, r1, r0
    1390:	00133101 	andseq	r3, r3, r1, lsl #2
    1394:	012e1500 			; <UNDEFINED> instruction: 0x012e1500
    1398:	0e03193f 			; <UNDEFINED> instruction: 0x0e03193f
    139c:	0b3b0b3a 	bleq	ec408c <__bss_end__+0xeb8dc4>
    13a0:	19270b39 	stmdbne	r7!, {r0, r3, r4, r5, r8, r9, fp}
    13a4:	13010b20 	movwne	r0, #6944	; 0x1b20
    13a8:	2e160000 	cdpcs	0, 1, cr0, cr6, cr0, {0}
    13ac:	03193f01 	tsteq	r9, #1, 30
    13b0:	3b0b3a0e 	blcc	2cfbf0 <__bss_end__+0x2c4928>
    13b4:	270b390b 	strcs	r3, [fp, -fp, lsl #18]
    13b8:	20134919 	andscs	r4, r3, r9, lsl r9
    13bc:	0013010b 	andseq	r0, r3, fp, lsl #2
    13c0:	012e1700 			; <UNDEFINED> instruction: 0x012e1700
    13c4:	01111331 	tsteq	r1, r1, lsr r3
    13c8:	18400612 	stmdane	r0, {r1, r4, r9, sl}^
    13cc:	01194297 			; <UNDEFINED> instruction: 0x01194297
    13d0:	18000013 	stmdane	r0, {r0, r1, r4}
    13d4:	193f002e 	ldmdbne	pc!, {r1, r2, r3, r5}	; <UNPREDICTABLE>
    13d8:	0e6e193c 			; <UNDEFINED> instruction: 0x0e6e193c
    13dc:	0b3a0e03 	bleq	e84bf0 <__bss_end__+0xe79928>
    13e0:	0b39053b 	bleq	e428d4 <__bss_end__+0xe3760c>
    13e4:	2e190000 	cdpcs	0, 1, cr0, cr9, cr0, {0}
    13e8:	3c193f00 	ldccc	15, cr3, [r9], {-0}
    13ec:	030e6e19 	movweq	r6, #60953	; 0xee19
    13f0:	3b0b3a0e 	blcc	2cfc30 <__bss_end__+0x2c4968>
    13f4:	000b390b 	andeq	r3, fp, fp, lsl #18
    13f8:	11010000 	mrsne	r0, (UNDEF: 1)
    13fc:	130e2501 	movwne	r2, #58625	; 0xe501
    1400:	1b0e030b 	blne	382034 <__bss_end__+0x376d6c>
    1404:	1201110e 	andne	r1, r1, #-2147483645	; 0x80000003
    1408:	00171006 	andseq	r1, r7, r6
    140c:	00240200 	eoreq	r0, r4, r0, lsl #4
    1410:	0b3e0b0b 	bleq	f84044 <__bss_end__+0xf78d7c>
    1414:	00000803 	andeq	r0, r0, r3, lsl #16
    1418:	0b002403 	bleq	a42c <gpio_write+0x14>
    141c:	030b3e0b 	movweq	r3, #48651	; 0xbe0b
    1420:	0400000e 	streq	r0, [r0], #-14
    1424:	19270115 	stmdbne	r7!, {r0, r2, r4, r8}
    1428:	13011349 	movwne	r1, #4937	; 0x1349
    142c:	05050000 	streq	r0, [r5, #-0]
    1430:	00134900 	andseq	r4, r3, r0, lsl #18
    1434:	00340600 	eorseq	r0, r4, r0, lsl #12
    1438:	0b3a0e03 	bleq	e84c4c <__bss_end__+0xe79984>
    143c:	0b390b3b 	bleq	e44130 <__bss_end__+0xe38e68>
    1440:	193f1349 	ldmdbne	pc!, {r0, r3, r6, r8, r9, ip}	; <UNPREDICTABLE>
    1444:	0000193c 	andeq	r1, r0, ip, lsr r9
    1448:	0b000f07 	bleq	506c <__code_start__-0x2f94>
    144c:	0013490b 	andseq	r4, r3, fp, lsl #18
    1450:	00260800 	eoreq	r0, r6, r0, lsl #16
    1454:	00001349 	andeq	r1, r0, r9, asr #6
    1458:	3f012e09 	svccc	0x00012e09
    145c:	3a0e0319 	bcc	3820c8 <__bss_end__+0x376e00>
    1460:	390b3b0b 	stmdbcc	fp, {r0, r1, r3, r8, r9, fp, ip, sp}
    1464:	1119270b 	tstne	r9, fp, lsl #14
    1468:	40061201 	andmi	r1, r6, r1, lsl #4
    146c:	19429718 	stmdbne	r2, {r3, r4, r8, r9, sl, ip, pc}^
    1470:	00001301 	andeq	r1, r0, r1, lsl #6
    1474:	0300050a 	movweq	r0, #1290	; 0x50a
    1478:	3b0b3a08 	blcc	2cfca0 <__bss_end__+0x2c49d8>
    147c:	490b390b 	stmdbmi	fp, {r0, r1, r3, r8, fp, ip, sp}
    1480:	b7170213 			; <UNDEFINED> instruction: 0xb7170213
    1484:	00001742 	andeq	r1, r0, r2, asr #14
    1488:	31011d0b 	tstcc	r1, fp, lsl #26
    148c:	b8015213 	stmdalt	r1, {r0, r1, r4, r9, ip, lr}
    1490:	17550b42 	ldrbne	r0, [r5, -r2, asr #22]
    1494:	0b590b58 	bleq	16441fc <__bss_end__+0x1638f34>
    1498:	00000b57 	andeq	r0, r0, r7, asr fp
    149c:	3100050c 	tstcc	r0, ip, lsl #10
    14a0:	b7170213 			; <UNDEFINED> instruction: 0xb7170213
    14a4:	00001742 	andeq	r1, r0, r2, asr #14
    14a8:	31011d0d 	tstcc	r1, sp, lsl #26
    14ac:	b8015213 	stmdalt	r1, {r0, r1, r4, r9, ip, lr}
    14b0:	01110b42 	tsteq	r1, r2, asr #22
    14b4:	0b580612 	bleq	1602d04 <__bss_end__+0x15f7a3c>
    14b8:	0b570b59 	bleq	15c4224 <__bss_end__+0x15b8f5c>
    14bc:	340e0000 	strcc	r0, [lr], #-0
    14c0:	02133100 	andseq	r3, r3, #0
    14c4:	1742b717 	smlaldne	fp, r2, r7, r7
    14c8:	1d0f0000 	stcne	0, cr0, [pc, #-0]	; 14d0 <__code_start__-0x6b30>
    14cc:	52133101 	andspl	r3, r3, #1073741824	; 0x40000000
    14d0:	0b42b801 	bleq	10af4dc <__bss_end__+0x10a4214>
    14d4:	06120111 			; <UNDEFINED> instruction: 0x06120111
    14d8:	0b590b58 	bleq	1644240 <__bss_end__+0x1638f78>
    14dc:	13010b57 	movwne	r0, #6999	; 0x1b57
    14e0:	89100000 	ldmdbhi	r0, {}	; <UNPREDICTABLE>
    14e4:	11010182 	smlabbne	r1, r2, r1, r0
    14e8:	00133101 	andseq	r3, r3, r1, lsl #2
    14ec:	828a1100 	addhi	r1, sl, #0
    14f0:	18020001 	stmdane	r2, {r0}
    14f4:	00184291 	mulseq	r8, r1, r2
    14f8:	82891200 	addhi	r1, r9, #0, 4
    14fc:	01110001 	tsteq	r1, r1
    1500:	00001331 	andeq	r1, r0, r1, lsr r3
    1504:	31010b13 	tstcc	r1, r3, lsl fp
    1508:	00175513 	andseq	r5, r7, r3, lsl r5
    150c:	00341400 	eorseq	r1, r4, r0, lsl #8
    1510:	00001331 	andeq	r1, r0, r1, lsr r3
    1514:	55010b15 	strpl	r0, [r1, #-2837]	; 0xfffff4eb
    1518:	16000017 			; <UNDEFINED> instruction: 0x16000017
    151c:	1331011d 	teqne	r1, #1073741831	; 0x40000007
    1520:	42b80152 	adcsmi	r0, r8, #-2147483628	; 0x80000014
    1524:	5817550b 	ldmdapl	r7, {r0, r1, r3, r8, sl, ip, lr}
    1528:	570b590b 	strpl	r5, [fp, -fp, lsl #18]
    152c:	0013010b 	andseq	r0, r3, fp, lsl #2
    1530:	012e1700 			; <UNDEFINED> instruction: 0x012e1700
    1534:	0e03193f 			; <UNDEFINED> instruction: 0x0e03193f
    1538:	0b3b0b3a 	bleq	ec4228 <__bss_end__+0xeb8f60>
    153c:	19270b39 	stmdbne	r7!, {r0, r3, r4, r5, r8, r9, fp}
    1540:	13010b20 	movwne	r0, #6944	; 0x1b20
    1544:	05180000 	ldreq	r0, [r8, #-0]
    1548:	3a080300 	bcc	202150 <__bss_end__+0x1f6e88>
    154c:	390b3b0b 	stmdbcc	fp, {r0, r1, r3, r8, r9, fp, ip, sp}
    1550:	0013490b 	andseq	r4, r3, fp, lsl #18
    1554:	00341900 	eorseq	r1, r4, r0, lsl #18
    1558:	0b3a0803 	bleq	e8356c <__bss_end__+0xe782a4>
    155c:	0b390b3b 	bleq	e44250 <__bss_end__+0xe38f88>
    1560:	00001349 	andeq	r1, r0, r9, asr #6
    1564:	00010b1a 	andeq	r0, r1, sl, lsl fp
    1568:	012e1b00 			; <UNDEFINED> instruction: 0x012e1b00
    156c:	0e03193f 			; <UNDEFINED> instruction: 0x0e03193f
    1570:	0b3b0b3a 	bleq	ec4260 <__bss_end__+0xeb8f98>
    1574:	19270b39 	stmdbne	r7!, {r0, r3, r4, r5, r8, r9, fp}
    1578:	0b201349 	bleq	8062a4 <__bss_end__+0x7fafdc>
    157c:	00001301 	andeq	r1, r0, r1, lsl #6
    1580:	3f002e1c 	svccc	0x00002e1c
    1584:	3a0e0319 	bcc	3821f0 <__bss_end__+0x376f28>
    1588:	390b3b0b 	stmdbcc	fp, {r0, r1, r3, r8, r9, fp, ip, sp}
    158c:	4919270b 	ldmdbmi	r9, {r0, r1, r3, r8, r9, sl, sp}
    1590:	000b2013 	andeq	r2, fp, r3, lsl r0
    1594:	012e1d00 			; <UNDEFINED> instruction: 0x012e1d00
    1598:	01111331 	tsteq	r1, r1, lsr r3
    159c:	18400612 	stmdane	r0, {r1, r4, r9, sl}^
    15a0:	01194297 			; <UNDEFINED> instruction: 0x01194297
    15a4:	1e000013 	mcrne	0, 0, r0, cr0, cr3, {0}
    15a8:	01018289 	smlabbeq	r1, r9, r2, r8
    15ac:	42950111 	addsmi	r0, r5, #1073741828	; 0x40000004
    15b0:	00133119 	andseq	r3, r3, r9, lsl r1
    15b4:	002e1f00 	eoreq	r1, lr, r0, lsl #30
    15b8:	193c193f 	ldmdbne	ip!, {r0, r1, r2, r3, r4, r5, r8, fp, ip}
    15bc:	0e030e6e 	cdpeq	14, 0, cr0, cr3, cr14, {3}
    15c0:	0b3b0b3a 	bleq	ec42b0 <__bss_end__+0xeb8fe8>
    15c4:	00000b39 	andeq	r0, r0, r9, lsr fp
    15c8:	01110100 	tsteq	r1, r0, lsl #2
    15cc:	0b130e25 	bleq	4c4e68 <__bss_end__+0x4b9ba0>
    15d0:	0e1b0e03 	cdpeq	14, 1, cr0, cr11, cr3, {0}
    15d4:	06120111 			; <UNDEFINED> instruction: 0x06120111
    15d8:	00001710 	andeq	r1, r0, r0, lsl r7
    15dc:	0b002402 	bleq	a5ec <__code_end__+0x6c>
    15e0:	030b3e0b 	movweq	r3, #48651	; 0xbe0b
    15e4:	03000008 	movweq	r0, #8
    15e8:	0b0b0024 	bleq	2c1680 <__bss_end__+0x2b63b8>
    15ec:	0e030b3e 	vmoveq.16	d3[0], r0
    15f0:	35040000 	strcc	r0, [r4, #-0]
    15f4:	00134900 	andseq	r4, r3, r0, lsl #18
    15f8:	00160500 	andseq	r0, r6, r0, lsl #10
    15fc:	0b3a0e03 	bleq	e84e10 <__bss_end__+0xe79b48>
    1600:	0b390b3b 	bleq	e442f4 <__bss_end__+0xe3902c>
    1604:	00001349 	andeq	r1, r0, r9, asr #6
    1608:	3e010406 	cdpcc	4, 0, cr0, cr1, cr6, {0}
    160c:	490b0b0b 	stmdbmi	fp, {r0, r1, r3, r8, r9, fp}
    1610:	3b0b3a13 	blcc	2cfe64 <__bss_end__+0x2c4b9c>
    1614:	010b390b 	tsteq	fp, fp, lsl #18
    1618:	07000013 	smladeq	r0, r3, r0, r0
    161c:	0e030028 	cdpeq	0, 0, cr0, cr3, cr8, {1}
    1620:	00000b1c 	andeq	r0, r0, ip, lsl fp
    1624:	03011308 	movweq	r1, #4872	; 0x1308
    1628:	3a0b0b0e 	bcc	2c4268 <__bss_end__+0x2b8fa0>
    162c:	390b3b0b 	stmdbcc	fp, {r0, r1, r3, r8, r9, fp, ip, sp}
    1630:	0013010b 	andseq	r0, r3, fp, lsl #2
    1634:	000d0900 	andeq	r0, sp, r0, lsl #18
    1638:	0b3a0803 	bleq	e8364c <__bss_end__+0xe78384>
    163c:	0b390b3b 	bleq	e44330 <__bss_end__+0xe39068>
    1640:	0b381349 	bleq	e0636c <__bss_end__+0xdfb0a4>
    1644:	0d0a0000 	stceq	0, cr0, [sl, #-0]
    1648:	3a0e0300 	bcc	382250 <__bss_end__+0x376f88>
    164c:	390b3b0b 	stmdbcc	fp, {r0, r1, r3, r8, r9, fp, ip, sp}
    1650:	3813490b 	ldmdacc	r3, {r0, r1, r3, r8, fp, lr}
    1654:	0b00000b 	bleq	1688 <__code_start__-0x6978>
    1658:	0e030034 	mcreq	0, 0, r0, cr3, cr4, {1}
    165c:	0b3b0b3a 	bleq	ec434c <__bss_end__+0xeb9084>
    1660:	13490b39 	movtne	r0, #39737	; 0x9b39
    1664:	0000061c 	andeq	r0, r0, ip, lsl r6
    1668:	0b000f0c 	bleq	52a0 <__code_start__-0x2d60>
    166c:	0013490b 	andseq	r4, r3, fp, lsl #18
    1670:	00260d00 	eoreq	r0, r6, r0, lsl #26
    1674:	00001349 	andeq	r1, r0, r9, asr #6
    1678:	3f012e0e 	svccc	0x00012e0e
    167c:	3a0e0319 	bcc	3822e8 <__bss_end__+0x377020>
    1680:	390b3b0b 	stmdbcc	fp, {r0, r1, r3, r8, r9, fp, ip, sp}
    1684:	1119270b 	tstne	r9, fp, lsl #14
    1688:	40061201 	andmi	r1, r6, r1, lsl #4
    168c:	19429718 	stmdbne	r2, {r3, r4, r8, r9, sl, ip, pc}^
    1690:	00001301 	andeq	r1, r0, r1, lsl #6
    1694:	0182890f 	orreq	r8, r2, pc, lsl #18
    1698:	31011100 	mrscc	r1, (UNDEF: 17)
    169c:	10000013 	andne	r0, r0, r3, lsl r0
    16a0:	193f012e 	ldmdbne	pc!, {r1, r2, r3, r5, r8}	; <UNPREDICTABLE>
    16a4:	0b3a0e03 	bleq	e84eb8 <__bss_end__+0xe79bf0>
    16a8:	0b390b3b 	bleq	e4439c <__bss_end__+0xe390d4>
    16ac:	13491927 	movtne	r1, #39207	; 0x9927
    16b0:	06120111 			; <UNDEFINED> instruction: 0x06120111
    16b4:	42971840 	addsmi	r1, r7, #64, 16	; 0x400000
    16b8:	00130119 	andseq	r0, r3, r9, lsl r1
    16bc:	82891100 	addhi	r1, r9, #0
    16c0:	01110101 	tsteq	r1, r1, lsl #2
    16c4:	00001331 	andeq	r1, r0, r1, lsr r3
    16c8:	01828a12 	orreq	r8, r2, r2, lsl sl
    16cc:	91180200 	tstls	r8, r0, lsl #4
    16d0:	00001842 	andeq	r1, r0, r2, asr #16
    16d4:	03000513 	movweq	r0, #1299	; 0x513
    16d8:	3b0b3a08 	blcc	2cff00 <__bss_end__+0x2c4c38>
    16dc:	490b390b 	stmdbmi	fp, {r0, r1, r3, r8, fp, ip, sp}
    16e0:	b7170213 			; <UNDEFINED> instruction: 0xb7170213
    16e4:	00001742 	andeq	r1, r0, r2, asr #14
    16e8:	01828914 	orreq	r8, r2, r4, lsl r9
    16ec:	31011101 	tstcc	r1, r1, lsl #2
    16f0:	00130113 	andseq	r0, r3, r3, lsl r1
    16f4:	00341500 	eorseq	r1, r4, r0, lsl #10
    16f8:	0b3a0803 	bleq	e8370c <__bss_end__+0xe78444>
    16fc:	0b390b3b 	bleq	e443f0 <__bss_end__+0xe39128>
    1700:	17021349 	strne	r1, [r2, -r9, asr #6]
    1704:	001742b7 			; <UNDEFINED> instruction: 0x001742b7
    1708:	00341600 	eorseq	r1, r4, r0, lsl #12
    170c:	0b3a0e03 	bleq	e84f20 <__bss_end__+0xe79c58>
    1710:	0b390b3b 	bleq	e44404 <__bss_end__+0xe3913c>
    1714:	051c1349 	ldreq	r1, [ip, #-841]	; 0xfffffcb7
    1718:	2e170000 	cdpcs	0, 1, cr0, cr7, cr0, {0}
    171c:	3a0e0301 	bcc	382328 <__bss_end__+0x377060>
    1720:	390b3b0b 	stmdbcc	fp, {r0, r1, r3, r8, r9, fp, ip, sp}
    1724:	1119270b 	tstne	r9, fp, lsl #14
    1728:	40061201 	andmi	r1, r6, r1, lsl #4
    172c:	19429718 	stmdbne	r2, {r3, r4, r8, r9, sl, ip, pc}^
    1730:	00001301 	andeq	r1, r0, r1, lsl #6
    1734:	03000518 	movweq	r0, #1304	; 0x518
    1738:	3b0b3a0e 	blcc	2cff78 <__bss_end__+0x2c4cb0>
    173c:	490b390b 	stmdbmi	fp, {r0, r1, r3, r8, fp, ip, sp}
    1740:	b7170213 			; <UNDEFINED> instruction: 0xb7170213
    1744:	00001742 	andeq	r1, r0, r2, asr #14
    1748:	00003519 	andeq	r3, r0, r9, lsl r5
    174c:	002e1a00 	eoreq	r1, lr, r0, lsl #20
    1750:	193c193f 	ldmdbne	ip!, {r0, r1, r2, r3, r4, r5, r8, fp, ip}
    1754:	0e030e6e 	cdpeq	14, 0, cr0, cr3, cr14, {3}
    1758:	0b3b0b3a 	bleq	ec4448 <__bss_end__+0xeb9180>
    175c:	00000b39 	andeq	r0, r0, r9, lsr fp
    1760:	01110100 	tsteq	r1, r0, lsl #2
    1764:	0b130e25 	bleq	4c5000 <__bss_end__+0x4b9d38>
    1768:	0e1b0e03 	cdpeq	14, 1, cr0, cr11, cr3, {0}
    176c:	06120111 			; <UNDEFINED> instruction: 0x06120111
    1770:	00001710 	andeq	r1, r0, r0, lsl r7
    1774:	0b002402 	bleq	a784 <__FUNCTION__.4048+0xa4>
    1778:	030b3e0b 	movweq	r3, #48651	; 0xbe0b
    177c:	03000008 	movweq	r0, #8
    1780:	0b0b0024 	bleq	2c1818 <__bss_end__+0x2b6550>
    1784:	0e030b3e 	vmoveq.16	d3[0], r0
    1788:	16040000 	strne	r0, [r4], -r0
    178c:	3a0e0300 	bcc	382394 <__bss_end__+0x3770cc>
    1790:	390b3b0b 	stmdbcc	fp, {r0, r1, r3, r8, r9, fp, ip, sp}
    1794:	0013490b 	andseq	r4, r3, fp, lsl #18
    1798:	00260500 	eoreq	r0, r6, r0, lsl #10
    179c:	00001349 	andeq	r1, r0, r9, asr #6
    17a0:	0b000f06 	bleq	53c0 <__code_start__-0x2c40>
    17a4:	0700000b 	streq	r0, [r0, -fp]
    17a8:	0b3e0104 	bleq	f81bc0 <__bss_end__+0xf768f8>
    17ac:	13490b0b 	movtne	r0, #39691	; 0x9b0b
    17b0:	0b3b0b3a 	bleq	ec44a0 <__bss_end__+0xeb91d8>
    17b4:	13010b39 	movwne	r0, #6969	; 0x1b39
    17b8:	28080000 	stmdacs	r8, {}	; <UNPREDICTABLE>
    17bc:	1c0e0300 	stcne	3, cr0, [lr], {-0}
    17c0:	09000006 	stmdbeq	r0, {r1, r2}
    17c4:	0e030034 	mcreq	0, 0, r0, cr3, cr4, {1}
    17c8:	0b3b0b3a 	bleq	ec44b8 <__bss_end__+0xeb91f0>
    17cc:	13490b39 	movtne	r0, #39737	; 0x9b39
    17d0:	193c193f 	ldmdbne	ip!, {r0, r1, r2, r3, r4, r5, r8, fp, ip}
    17d4:	340a0000 	strcc	r0, [sl], #-0
    17d8:	3a0e0300 	bcc	3823e0 <__bss_end__+0x377118>
    17dc:	390b3b0b 	stmdbcc	fp, {r0, r1, r3, r8, r9, fp, ip, sp}
    17e0:	0213490b 	andseq	r4, r3, #180224	; 0x2c000
    17e4:	0b000018 	bleq	184c <__code_start__-0x67b4>
    17e8:	0b0b000f 	bleq	2c182c <__bss_end__+0x2b6564>
    17ec:	00001349 	andeq	r1, r0, r9, asr #6
    17f0:	3f012e0c 	svccc	0x00012e0c
    17f4:	3a0e0319 	bcc	382460 <__bss_end__+0x377198>
    17f8:	390b3b0b 	stmdbcc	fp, {r0, r1, r3, r8, r9, fp, ip, sp}
    17fc:	1119270b 	tstne	r9, fp, lsl #14
    1800:	40061201 	andmi	r1, r6, r1, lsl #4
    1804:	19429718 	stmdbne	r2, {r3, r4, r8, r9, sl, ip, pc}^
    1808:	00001301 	andeq	r1, r0, r1, lsl #6
    180c:	0300050d 	movweq	r0, #1293	; 0x50d
    1810:	3b0b3a08 	blcc	2d0038 <__bss_end__+0x2c4d70>
    1814:	490b390b 	stmdbmi	fp, {r0, r1, r3, r8, fp, ip, sp}
    1818:	b7170213 			; <UNDEFINED> instruction: 0xb7170213
    181c:	00001742 	andeq	r1, r0, r2, asr #14
    1820:	0300340e 	movweq	r3, #1038	; 0x40e
    1824:	3413490e 	ldrcc	r4, [r3], #-2318	; 0xfffff6f2
    1828:	00180219 	andseq	r0, r8, r9, lsl r2
    182c:	82890f00 	addhi	r0, r9, #0, 30
    1830:	01110101 	tsteq	r1, r1, lsl #2
    1834:	13011331 	movwne	r1, #4913	; 0x1331
    1838:	8a100000 	bhi	401840 <__bss_end__+0x3f6578>
    183c:	02000182 	andeq	r0, r0, #-2147483616	; 0x80000020
    1840:	18429118 	stmdane	r2, {r3, r4, r8, ip, pc}^
    1844:	89110000 	ldmdbhi	r1, {}	; <UNPREDICTABLE>
    1848:	11000182 	smlabbne	r0, r2, r1, r0
    184c:	00133101 	andseq	r3, r3, r1, lsl #2
    1850:	01011200 	mrseq	r1, R9_usr
    1854:	13011349 	movwne	r1, #4937	; 0x1349
    1858:	21130000 	tstcs	r3, r0
    185c:	2f134900 	svccs	0x00134900
    1860:	1400000b 	strne	r0, [r0], #-11
    1864:	193f002e 	ldmdbne	pc!, {r1, r2, r3, r5}	; <UNPREDICTABLE>
    1868:	0b3a0e03 	bleq	e8507c <__bss_end__+0xe79db4>
    186c:	0b390b3b 	bleq	e44560 <__bss_end__+0xe39298>
    1870:	01111927 	tsteq	r1, r7, lsr #18
    1874:	18400612 	stmdane	r0, {r1, r4, r9, sl}^
    1878:	00194297 	mulseq	r9, r7, r2
    187c:	00051500 	andeq	r1, r5, r0, lsl #10
    1880:	0b3a0803 	bleq	e83894 <__bss_end__+0xe785cc>
    1884:	0b390b3b 	bleq	e44578 <__bss_end__+0xe392b0>
    1888:	18021349 	stmdane	r2, {r0, r3, r6, r8, r9, ip}
    188c:	2e160000 	cdpcs	0, 1, cr0, cr6, cr0, {0}
    1890:	03193f01 	tsteq	r9, #1, 30
    1894:	3b0b3a0e 	blcc	2d00d4 <__bss_end__+0x2c4e0c>
    1898:	270b390b 	strcs	r3, [fp, -fp, lsl #18]
    189c:	11134919 	tstne	r3, r9, lsl r9
    18a0:	40061201 	andmi	r1, r6, r1, lsl #4
    18a4:	19429718 	stmdbne	r2, {r3, r4, r8, r9, sl, ip, pc}^
    18a8:	00001301 	andeq	r1, r0, r1, lsl #6
    18ac:	03000517 	movweq	r0, #1303	; 0x517
    18b0:	3b0b3a0e 	blcc	2d00f0 <__bss_end__+0x2c4e28>
    18b4:	490b390b 	stmdbmi	fp, {r0, r1, r3, r8, fp, ip, sp}
    18b8:	b7170213 			; <UNDEFINED> instruction: 0xb7170213
    18bc:	00001742 	andeq	r1, r0, r2, asr #14
    18c0:	03003418 	movweq	r3, #1048	; 0x418
    18c4:	3b0b3a08 	blcc	2d00ec <__bss_end__+0x2c4e24>
    18c8:	490b390b 	stmdbmi	fp, {r0, r1, r3, r8, fp, ip, sp}
    18cc:	b7170213 			; <UNDEFINED> instruction: 0xb7170213
    18d0:	00001742 	andeq	r1, r0, r2, asr #14
    18d4:	31011d19 	tstcc	r1, r9, lsl sp
    18d8:	b8015213 	stmdalt	r1, {r0, r1, r4, r9, ip, lr}
    18dc:	01110b42 	tsteq	r1, r2, asr #22
    18e0:	0b580612 	bleq	1603130 <__bss_end__+0x15f7e68>
    18e4:	0b570b59 	bleq	15c4650 <__bss_end__+0x15b9388>
    18e8:	00001301 	andeq	r1, r0, r1, lsl #6
    18ec:	3100051a 	tstcc	r0, sl, lsl r5
    18f0:	b7170213 			; <UNDEFINED> instruction: 0xb7170213
    18f4:	00001742 	andeq	r1, r0, r2, asr #14
    18f8:	31011d1b 	tstcc	r1, fp, lsl sp
    18fc:	b8015213 	stmdalt	r1, {r0, r1, r4, r9, ip, lr}
    1900:	17550b42 	ldrbne	r0, [r5, -r2, asr #22]
    1904:	0b590b58 	bleq	164466c <__bss_end__+0x16393a4>
    1908:	13010b57 	movwne	r0, #6999	; 0x1b57
    190c:	0b1c0000 	bleq	701914 <__bss_end__+0x6f664c>
    1910:	00175501 	andseq	r5, r7, r1, lsl #10
    1914:	00341d00 	eorseq	r1, r4, r0, lsl #26
    1918:	0b3a0e03 	bleq	e8512c <__bss_end__+0xe79e64>
    191c:	0b390b3b 	bleq	e44610 <__bss_end__+0xe39348>
    1920:	17021349 	strne	r1, [r2, -r9, asr #6]
    1924:	001742b7 			; <UNDEFINED> instruction: 0x001742b7
    1928:	000b1e00 	andeq	r1, fp, r0, lsl #28
    192c:	00001755 	andeq	r1, r0, r5, asr r7
    1930:	3f002e1f 	svccc	0x00002e1f
    1934:	3a0e0319 	bcc	3825a0 <__bss_end__+0x3772d8>
    1938:	390b3b0b 	stmdbcc	fp, {r0, r1, r3, r8, r9, fp, ip, sp}
    193c:	4919270b 	ldmdbmi	r9, {r0, r1, r3, r8, r9, sl, sp}
    1940:	12011113 	andne	r1, r1, #-1073741820	; 0xc0000004
    1944:	97184006 	ldrls	r4, [r8, -r6]
    1948:	00001942 	andeq	r1, r0, r2, asr #18
    194c:	03012e20 	movweq	r2, #7712	; 0x1e20
    1950:	3b0b3a0e 	blcc	2d0190 <__bss_end__+0x2c4ec8>
    1954:	270b390b 	strcs	r3, [fp, -fp, lsl #18]
    1958:	20134919 	andscs	r4, r3, r9, lsl r9
    195c:	0013010b 	andseq	r0, r3, fp, lsl #2
    1960:	00052100 	andeq	r2, r5, r0, lsl #2
    1964:	0b3a0803 	bleq	e83978 <__bss_end__+0xe786b0>
    1968:	0b390b3b 	bleq	e4465c <__bss_end__+0xe39394>
    196c:	00001349 	andeq	r1, r0, r9, asr #6
    1970:	3f002e22 	svccc	0x00002e22
    1974:	6e193c19 	mrcvs	12, 0, r3, cr9, cr9, {0}
    1978:	3a0e030e 	bcc	3825b8 <__bss_end__+0x3772f0>
    197c:	390b3b0b 	stmdbcc	fp, {r0, r1, r3, r8, r9, fp, ip, sp}
    1980:	0000000b 	andeq	r0, r0, fp
    1984:	25011101 	strcs	r1, [r1, #-257]	; 0xfffffeff
    1988:	030b130e 	movweq	r1, #45838	; 0xb30e
    198c:	110e1b0e 	tstne	lr, lr, lsl #22
    1990:	10061201 	andne	r1, r6, r1, lsl #4
    1994:	02000017 	andeq	r0, r0, #23, 0
    1998:	0b0b0024 	bleq	2c1a30 <__bss_end__+0x2b6768>
    199c:	0e030b3e 	vmoveq.16	d3[0], r0
    19a0:	24030000 	strcs	r0, [r3], #-0
    19a4:	3e0b0b00 	vmlacc.f64	d0, d11, d0
    19a8:	0008030b 	andeq	r0, r8, fp, lsl #6
    19ac:	00260400 	eoreq	r0, r6, r0, lsl #8
    19b0:	00001349 	andeq	r1, r0, r9, asr #6
    19b4:	03001605 	movweq	r1, #1541	; 0x605
    19b8:	3b0b3a0e 	blcc	2d01f8 <__bss_end__+0x2c4f30>
    19bc:	490b390b 	stmdbmi	fp, {r0, r1, r3, r8, fp, ip, sp}
    19c0:	06000013 			; <UNDEFINED> instruction: 0x06000013
    19c4:	19270115 	stmdbne	r7!, {r0, r2, r4, r8}
    19c8:	13011349 	movwne	r1, #4937	; 0x1349
    19cc:	05070000 	streq	r0, [r7, #-0]
    19d0:	00134900 	andseq	r4, r3, r0, lsl #18
    19d4:	00340800 	eorseq	r0, r4, r0, lsl #16
    19d8:	0b3a0e03 	bleq	e851ec <__bss_end__+0xe79f24>
    19dc:	0b390b3b 	bleq	e446d0 <__bss_end__+0xe39408>
    19e0:	193f1349 	ldmdbne	pc!, {r0, r3, r6, r8, r9, ip}	; <UNPREDICTABLE>
    19e4:	0000193c 	andeq	r1, r0, ip, lsr r9
    19e8:	0b000f09 	bleq	5614 <__code_start__-0x29ec>
    19ec:	0013490b 	andseq	r4, r3, fp, lsl #18
    19f0:	01040a00 	tsteq	r4, r0, lsl #20
    19f4:	0b0b0b3e 	bleq	2c46f4 <__bss_end__+0x2b942c>
    19f8:	0b3a1349 	bleq	e86724 <__bss_end__+0xe7b45c>
    19fc:	0b390b3b 	bleq	e446f0 <__bss_end__+0xe39428>
    1a00:	00001301 	andeq	r1, r0, r1, lsl #6
    1a04:	0300280b 	movweq	r2, #2059	; 0x80b
    1a08:	000b1c0e 	andeq	r1, fp, lr, lsl #24
    1a0c:	00340c00 	eorseq	r0, r4, r0, lsl #24
    1a10:	0b3a0e03 	bleq	e85224 <__bss_end__+0xe79f5c>
    1a14:	0b390b3b 	bleq	e44708 <__bss_end__+0xe39440>
    1a18:	061c1349 	ldreq	r1, [ip], -r9, asr #6
    1a1c:	2e0d0000 	cdpcs	0, 0, cr0, cr13, cr0, {0}
    1a20:	03193f01 	tsteq	r9, #1, 30
    1a24:	3b0b3a0e 	blcc	2d0264 <__bss_end__+0x2c4f9c>
    1a28:	270b390b 	strcs	r3, [fp, -fp, lsl #18]
    1a2c:	11134919 	tstne	r3, r9, lsl r9
    1a30:	40061201 	andmi	r1, r6, r1, lsl #4
    1a34:	19429718 	stmdbne	r2, {r3, r4, r8, r9, sl, ip, pc}^
    1a38:	00001301 	andeq	r1, r0, r1, lsl #6
    1a3c:	0300050e 	movweq	r0, #1294	; 0x50e
    1a40:	3b0b3a08 	blcc	2d0268 <__bss_end__+0x2c4fa0>
    1a44:	490b390b 	stmdbmi	fp, {r0, r1, r3, r8, fp, ip, sp}
    1a48:	b7170213 			; <UNDEFINED> instruction: 0xb7170213
    1a4c:	00001742 	andeq	r1, r0, r2, asr #14
    1a50:	0300340f 	movweq	r3, #1039	; 0x40f
    1a54:	3b0b3a0e 	blcc	2d0294 <__bss_end__+0x2c4fcc>
    1a58:	490b390b 	stmdbmi	fp, {r0, r1, r3, r8, fp, ip, sp}
    1a5c:	b7170213 			; <UNDEFINED> instruction: 0xb7170213
    1a60:	00001742 	andeq	r1, r0, r2, asr #14
    1a64:	03003410 	movweq	r3, #1040	; 0x410
    1a68:	3b0b3a08 	blcc	2d0290 <__bss_end__+0x2c4fc8>
    1a6c:	490b390b 	stmdbmi	fp, {r0, r1, r3, r8, fp, ip, sp}
    1a70:	b7170213 			; <UNDEFINED> instruction: 0xb7170213
    1a74:	00001742 	andeq	r1, r0, r2, asr #14
    1a78:	01828911 	orreq	r8, r2, r1, lsl r9
    1a7c:	31011101 	tstcc	r1, r1, lsl #2
    1a80:	12000013 	andne	r0, r0, #19, 0
    1a84:	0001828a 	andeq	r8, r1, sl, lsl #5
    1a88:	42911802 	addsmi	r1, r1, #131072	; 0x20000
    1a8c:	13000018 	movwne	r0, #24
    1a90:	193f012e 	ldmdbne	pc!, {r1, r2, r3, r5, r8}	; <UNPREDICTABLE>
    1a94:	0b3a0e03 	bleq	e852a8 <__bss_end__+0xe79fe0>
    1a98:	0b390b3b 	bleq	e4478c <__bss_end__+0xe394c4>
    1a9c:	01111927 	tsteq	r1, r7, lsr #18
    1aa0:	18400612 	stmdane	r0, {r1, r4, r9, sl}^
    1aa4:	01194297 			; <UNDEFINED> instruction: 0x01194297
    1aa8:	14000013 	strne	r0, [r0], #-19	; 0xffffffed
    1aac:	1331011d 	teqne	r1, #1073741831	; 0x40000007
    1ab0:	42b80152 	adcsmi	r0, r8, #-2147483628	; 0x80000014
    1ab4:	5817550b 	ldmdapl	r7, {r0, r1, r3, r8, sl, ip, lr}
    1ab8:	570b590b 	strpl	r5, [fp, -fp, lsl #18]
    1abc:	0013010b 	andseq	r0, r3, fp, lsl #2
    1ac0:	00051500 	andeq	r1, r5, r0, lsl #10
    1ac4:	17021331 	smladxne	r2, r1, r3, r1
    1ac8:	001742b7 			; <UNDEFINED> instruction: 0x001742b7
    1acc:	82891600 	addhi	r1, r9, #0, 12
    1ad0:	01110101 	tsteq	r1, r1, lsl #2
    1ad4:	31194295 			; <UNDEFINED> instruction: 0x31194295
    1ad8:	17000013 	smladne	r0, r3, r0, r0
    1adc:	1331011d 	teqne	r1, #1073741831	; 0x40000007
    1ae0:	42b80152 	adcsmi	r0, r8, #-2147483628	; 0x80000014
    1ae4:	1201110b 	andne	r1, r1, #-1073741822	; 0xc0000002
    1ae8:	590b5806 	stmdbpl	fp, {r1, r2, fp, ip, lr}
    1aec:	000b570b 	andeq	r5, fp, fp, lsl #14
    1af0:	011d1800 	tsteq	sp, r0, lsl #16
    1af4:	01521331 	cmpeq	r2, r1, lsr r3
    1af8:	550b42b8 	strpl	r4, [fp, #-696]	; 0xfffffd48
    1afc:	590b5817 	stmdbpl	fp, {r0, r1, r2, r4, fp, ip, lr}
    1b00:	000b570b 	andeq	r5, fp, fp, lsl #14
    1b04:	00051900 	andeq	r1, r5, r0, lsl #18
    1b08:	0b1c1331 	bleq	7067d4 <__bss_end__+0x6fb50c>
    1b0c:	0b1a0000 	bleq	681b14 <__bss_end__+0x67684c>
    1b10:	00175501 	andseq	r5, r7, r1, lsl #10
    1b14:	00341b00 	eorseq	r1, r4, r0, lsl #22
    1b18:	00001331 	andeq	r1, r0, r1, lsr r3
    1b1c:	3100341c 	tstcc	r0, ip, lsl r4
    1b20:	b7170213 			; <UNDEFINED> instruction: 0xb7170213
    1b24:	00001742 	andeq	r1, r0, r2, asr #14
    1b28:	0182891d 	orreq	r8, r2, sp, lsl r9
    1b2c:	31011101 	tstcc	r1, r1, lsl #2
    1b30:	00130113 	andseq	r0, r3, r3, lsl r1
    1b34:	012e1e00 			; <UNDEFINED> instruction: 0x012e1e00
    1b38:	0e03193f 			; <UNDEFINED> instruction: 0x0e03193f
    1b3c:	0b3b0b3a 	bleq	ec482c <__bss_end__+0xeb9564>
    1b40:	19270b39 	stmdbne	r7!, {r0, r3, r4, r5, r8, r9, fp}
    1b44:	13010b20 	movwne	r0, #6944	; 0x1b20
    1b48:	051f0000 	ldreq	r0, [pc, #-0]	; 1b50 <__code_start__-0x64b0>
    1b4c:	3a080300 	bcc	202754 <__bss_end__+0x1f748c>
    1b50:	390b3b0b 	stmdbcc	fp, {r0, r1, r3, r8, r9, fp, ip, sp}
    1b54:	0013490b 	andseq	r4, r3, fp, lsl #18
    1b58:	00052000 	andeq	r2, r5, r0
    1b5c:	0b3a0e03 	bleq	e85370 <__bss_end__+0xe7a0a8>
    1b60:	0b390b3b 	bleq	e44854 <__bss_end__+0xe3958c>
    1b64:	00001349 	andeq	r1, r0, r9, asr #6
    1b68:	03003421 	movweq	r3, #1057	; 0x421
    1b6c:	3b0b3a08 	blcc	2d0394 <__bss_end__+0x2c50cc>
    1b70:	490b390b 	stmdbmi	fp, {r0, r1, r3, r8, fp, ip, sp}
    1b74:	22000013 	andcs	r0, r0, #19, 0
    1b78:	0e03012e 	adfeqsp	f0, f3, #0.5
    1b7c:	0b3b0b3a 	bleq	ec486c <__bss_end__+0xeb95a4>
    1b80:	19270b39 	stmdbne	r7!, {r0, r3, r4, r5, r8, r9, fp}
    1b84:	0b201349 	bleq	8068b0 <__bss_end__+0x7fb5e8>
    1b88:	00001301 	andeq	r1, r0, r1, lsl #6
    1b8c:	31012e23 	tstcc	r1, r3, lsr #28
    1b90:	12011113 	andne	r1, r1, #-1073741820	; 0xc0000004
    1b94:	97184006 	ldrls	r4, [r8, -r6]
    1b98:	13011942 	movwne	r1, #6466	; 0x1942
    1b9c:	2e240000 	cdpcs	0, 2, cr0, cr4, cr0, {0}
    1ba0:	3c193f00 	ldccc	15, cr3, [r9], {-0}
    1ba4:	030e6e19 	movweq	r6, #60953	; 0xee19
    1ba8:	3b0b3a0e 	blcc	2d03e8 <__bss_end__+0x2c5120>
    1bac:	000b390b 	andeq	r3, fp, fp, lsl #18
    1bb0:	11010000 	mrsne	r0, (UNDEF: 1)
    1bb4:	130e2501 	movwne	r2, #58625	; 0xe501
    1bb8:	1b0e030b 	blne	3827ec <__bss_end__+0x377524>
    1bbc:	1201110e 	andne	r1, r1, #-2147483645	; 0x80000003
    1bc0:	00171006 	andseq	r1, r7, r6
    1bc4:	00240200 	eoreq	r0, r4, r0, lsl #4
    1bc8:	0b3e0b0b 	bleq	f847fc <__bss_end__+0xf79534>
    1bcc:	00000803 	andeq	r0, r0, r3, lsl #16
    1bd0:	0b002403 	bleq	abe4 <__FUNCTION__.4120+0x10c>
    1bd4:	030b3e0b 	movweq	r3, #48651	; 0xbe0b
    1bd8:	0400000e 	streq	r0, [r0], #-14
    1bdc:	19270115 	stmdbne	r7!, {r0, r2, r4, r8}
    1be0:	13011349 	movwne	r1, #4937	; 0x1349
    1be4:	05050000 	streq	r0, [r5, #-0]
    1be8:	00134900 	andseq	r4, r3, r0, lsl #18
    1bec:	00340600 	eorseq	r0, r4, r0, lsl #12
    1bf0:	0b3a0e03 	bleq	e85404 <__bss_end__+0xe7a13c>
    1bf4:	0b390b3b 	bleq	e448e8 <__bss_end__+0xe39620>
    1bf8:	193f1349 	ldmdbne	pc!, {r0, r3, r6, r8, r9, ip}	; <UNPREDICTABLE>
    1bfc:	0000193c 	andeq	r1, r0, ip, lsr r9
    1c00:	0b000f07 	bleq	5824 <__code_start__-0x27dc>
    1c04:	0013490b 	andseq	r4, r3, fp, lsl #18
    1c08:	00260800 	eoreq	r0, r6, r0, lsl #16
    1c0c:	00001349 	andeq	r1, r0, r9, asr #6
    1c10:	47003409 	strmi	r3, [r0, -r9, lsl #8]
    1c14:	3b0b3a13 	blcc	2d0468 <__bss_end__+0x2c51a0>
    1c18:	020b390b 	andeq	r3, fp, #180224	; 0x2c000
    1c1c:	0a000018 	beq	1c84 <__code_start__-0x637c>
    1c20:	193f012e 	ldmdbne	pc!, {r1, r2, r3, r5, r8}	; <UNPREDICTABLE>
    1c24:	0b3a0e03 	bleq	e85438 <__bss_end__+0xe7a170>
    1c28:	0b390b3b 	bleq	e4491c <__bss_end__+0xe39654>
    1c2c:	01111927 	tsteq	r1, r7, lsr #18
    1c30:	18400612 	stmdane	r0, {r1, r4, r9, sl}^
    1c34:	01194297 			; <UNDEFINED> instruction: 0x01194297
    1c38:	0b000013 	bleq	1c8c <__code_start__-0x6374>
    1c3c:	08030005 	stmdaeq	r3, {r0, r2}
    1c40:	0b3b0b3a 	bleq	ec4930 <__bss_end__+0xeb9668>
    1c44:	13490b39 	movtne	r0, #39737	; 0x9b39
    1c48:	00001802 	andeq	r1, r0, r2, lsl #16
    1c4c:	3f002e0c 	svccc	0x00002e0c
    1c50:	3a0e0319 	bcc	3828bc <__bss_end__+0x3775f4>
    1c54:	390b3b0b 	stmdbcc	fp, {r0, r1, r3, r8, r9, fp, ip, sp}
    1c58:	1119270b 	tstne	r9, fp, lsl #14
    1c5c:	40061201 	andmi	r1, r6, r1, lsl #4
    1c60:	19429718 	stmdbne	r2, {r3, r4, r8, r9, sl, ip, pc}^
    1c64:	2e0d0000 	cdpcs	0, 0, cr0, cr13, cr0, {0}
    1c68:	3a0e0301 	bcc	382874 <__bss_end__+0x3775ac>
    1c6c:	390b3b0b 	stmdbcc	fp, {r0, r1, r3, r8, r9, fp, ip, sp}
    1c70:	4919270b 	ldmdbmi	r9, {r0, r1, r3, r8, r9, sl, sp}
    1c74:	12011113 	andne	r1, r1, #-1073741820	; 0xc0000004
    1c78:	97184006 	ldrls	r4, [r8, -r6]
    1c7c:	13011942 	movwne	r1, #6466	; 0x1942
    1c80:	050e0000 	streq	r0, [lr, #-0]
    1c84:	3a080300 	bcc	20288c <__bss_end__+0x1f75c4>
    1c88:	390b3b0b 	stmdbcc	fp, {r0, r1, r3, r8, r9, fp, ip, sp}
    1c8c:	0213490b 	andseq	r4, r3, #180224	; 0x2c000
    1c90:	1742b717 	smlaldne	fp, r2, r7, r7
    1c94:	890f0000 	stmdbhi	pc, {}	; <UNPREDICTABLE>
    1c98:	11010182 	smlabbne	r1, r2, r1, r0
    1c9c:	00133101 	andseq	r3, r3, r1, lsl #2
    1ca0:	828a1000 	addhi	r1, sl, #0, 0
    1ca4:	18020001 	stmdane	r2, {r0}
    1ca8:	00184291 	mulseq	r8, r1, r2
    1cac:	002e1100 	eoreq	r1, lr, r0, lsl #2
    1cb0:	193c193f 	ldmdbne	ip!, {r0, r1, r2, r3, r4, r5, r8, fp, ip}
    1cb4:	0e030e6e 	cdpeq	14, 0, cr0, cr3, cr14, {3}
    1cb8:	0b3b0b3a 	bleq	ec49a8 <__bss_end__+0xeb96e0>
    1cbc:	00000b39 	andeq	r0, r0, r9, lsr fp
    1cc0:	01110100 	tsteq	r1, r0, lsl #2
    1cc4:	0b130e25 	bleq	4c5560 <__bss_end__+0x4ba298>
    1cc8:	0e1b0e03 	cdpeq	14, 1, cr0, cr11, cr3, {0}
    1ccc:	06120111 			; <UNDEFINED> instruction: 0x06120111
    1cd0:	00001710 	andeq	r1, r0, r0, lsl r7
    1cd4:	0b002402 	bleq	ace4 <__FUNCTION__.4030+0x90>
    1cd8:	030b3e0b 	movweq	r3, #48651	; 0xbe0b
    1cdc:	03000008 	movweq	r0, #8
    1ce0:	0b0b0024 	bleq	2c1d78 <__bss_end__+0x2b6ab0>
    1ce4:	0e030b3e 	vmoveq.16	d3[0], r0
    1ce8:	15040000 	strne	r0, [r4, #-0]
    1cec:	49192701 	ldmdbmi	r9, {r0, r8, r9, sl, sp}
    1cf0:	00130113 	andseq	r0, r3, r3, lsl r1
    1cf4:	00050500 	andeq	r0, r5, r0, lsl #10
    1cf8:	00001349 	andeq	r1, r0, r9, asr #6
    1cfc:	03003406 	movweq	r3, #1030	; 0x406
    1d00:	3b0b3a0e 	blcc	2d0540 <__bss_end__+0x2c5278>
    1d04:	490b390b 	stmdbmi	fp, {r0, r1, r3, r8, fp, ip, sp}
    1d08:	3c193f13 	ldccc	15, cr3, [r9], {19}
    1d0c:	07000019 	smladeq	r0, r9, r0, r0
    1d10:	0b0b000f 	bleq	2c1d54 <__bss_end__+0x2b6a8c>
    1d14:	00001349 	andeq	r1, r0, r9, asr #6
    1d18:	49002608 	stmdbmi	r0, {r3, r9, sl, sp}
    1d1c:	09000013 	stmdbeq	r0, {r0, r1, r4}
    1d20:	193f012e 	ldmdbne	pc!, {r1, r2, r3, r5, r8}	; <UNPREDICTABLE>
    1d24:	0b3a0e03 	bleq	e85538 <__bss_end__+0xe7a270>
    1d28:	0b390b3b 	bleq	e44a1c <__bss_end__+0xe39754>
    1d2c:	13491927 	movtne	r1, #39207	; 0x9927
    1d30:	06120111 			; <UNDEFINED> instruction: 0x06120111
    1d34:	42971840 	addsmi	r1, r7, #64, 16	; 0x400000
    1d38:	00130119 	andseq	r0, r3, r9, lsl r1
    1d3c:	00050a00 	andeq	r0, r5, r0, lsl #20
    1d40:	0b3a0e03 	bleq	e85554 <__bss_end__+0xe7a28c>
    1d44:	0b390b3b 	bleq	e44a38 <__bss_end__+0xe39770>
    1d48:	18021349 	stmdane	r2, {r0, r3, r6, r8, r9, ip}
    1d4c:	050b0000 	streq	r0, [fp, #-0]
    1d50:	3a080300 	bcc	202958 <__bss_end__+0x1f7690>
    1d54:	390b3b0b 	stmdbcc	fp, {r0, r1, r3, r8, r9, fp, ip, sp}
    1d58:	0213490b 	andseq	r4, r3, #180224	; 0x2c000
    1d5c:	1742b717 	smlaldne	fp, r2, r7, r7
    1d60:	340c0000 	strcc	r0, [ip], #-0
    1d64:	3a080300 	bcc	20296c <__bss_end__+0x1f76a4>
    1d68:	390b3b0b 	stmdbcc	fp, {r0, r1, r3, r8, r9, fp, ip, sp}
    1d6c:	0213490b 	andseq	r4, r3, #180224	; 0x2c000
    1d70:	1742b717 	smlaldne	fp, r2, r7, r7
    1d74:	01000000 	mrseq	r0, (UNDEF: 0)
    1d78:	0e250111 	mcreq	1, 1, r0, cr5, cr1, {0}
    1d7c:	0e030b13 	vmoveq.32	d3[0], r0
    1d80:	01110e1b 	tsteq	r1, fp, lsl lr
    1d84:	17100612 			; <UNDEFINED> instruction: 0x17100612
    1d88:	24020000 	strcs	r0, [r2], #-0
    1d8c:	3e0b0b00 	vmlacc.f64	d0, d11, d0
    1d90:	0008030b 	andeq	r0, r8, fp, lsl #6
    1d94:	00240300 	eoreq	r0, r4, r0, lsl #6
    1d98:	0b3e0b0b 	bleq	f849cc <__bss_end__+0xf79704>
    1d9c:	00000e03 	andeq	r0, r0, r3, lsl #28
    1da0:	27011504 	strcs	r1, [r1, -r4, lsl #10]
    1da4:	01134919 	tsteq	r3, r9, lsl r9
    1da8:	05000013 	streq	r0, [r0, #-19]	; 0xffffffed
    1dac:	13490005 	movtne	r0, #36869	; 0x9005
    1db0:	34060000 	strcc	r0, [r6], #-0
    1db4:	3a0e0300 	bcc	3829bc <__bss_end__+0x3776f4>
    1db8:	390b3b0b 	stmdbcc	fp, {r0, r1, r3, r8, r9, fp, ip, sp}
    1dbc:	3f13490b 	svccc	0x0013490b
    1dc0:	00193c19 	andseq	r3, r9, r9, lsl ip
    1dc4:	000f0700 	andeq	r0, pc, r0, lsl #14
    1dc8:	13490b0b 	movtne	r0, #39691	; 0x9b0b
    1dcc:	26080000 	strcs	r0, [r8], -r0
    1dd0:	00134900 	andseq	r4, r3, r0, lsl #18
    1dd4:	012e0900 			; <UNDEFINED> instruction: 0x012e0900
    1dd8:	0e03193f 			; <UNDEFINED> instruction: 0x0e03193f
    1ddc:	0b3b0b3a 	bleq	ec4acc <__bss_end__+0xeb9804>
    1de0:	19270b39 	stmdbne	r7!, {r0, r3, r4, r5, r8, r9, fp}
    1de4:	01111349 	tsteq	r1, r9, asr #6
    1de8:	18400612 	stmdane	r0, {r1, r4, r9, sl}^
    1dec:	00194297 	mulseq	r9, r7, r2
    1df0:	00050a00 	andeq	r0, r5, r0, lsl #20
    1df4:	0b3a0803 	bleq	e83e08 <__bss_end__+0xe78b40>
    1df8:	0b390b3b 	bleq	e44aec <__bss_end__+0xe39824>
    1dfc:	17021349 	strne	r1, [r2, -r9, asr #6]
    1e00:	001742b7 			; <UNDEFINED> instruction: 0x001742b7
    1e04:	11010000 	mrsne	r0, (UNDEF: 1)
    1e08:	130e2501 	movwne	r2, #58625	; 0xe501
    1e0c:	1b0e030b 	blne	382a40 <__bss_end__+0x377778>
    1e10:	1201110e 	andne	r1, r1, #-2147483645	; 0x80000003
    1e14:	00171006 	andseq	r1, r7, r6
    1e18:	00240200 	eoreq	r0, r4, r0, lsl #4
    1e1c:	0b3e0b0b 	bleq	f84a50 <__bss_end__+0xf79788>
    1e20:	00000803 	andeq	r0, r0, r3, lsl #16
    1e24:	0b002403 	bleq	ae38 <__FUNCTION__.5>
    1e28:	030b3e0b 	movweq	r3, #48651	; 0xbe0b
    1e2c:	0400000e 	streq	r0, [r0], #-14
    1e30:	19270115 	stmdbne	r7!, {r0, r2, r4, r8}
    1e34:	13011349 	movwne	r1, #4937	; 0x1349
    1e38:	05050000 	streq	r0, [r5, #-0]
    1e3c:	00134900 	andseq	r4, r3, r0, lsl #18
    1e40:	00340600 	eorseq	r0, r4, r0, lsl #12
    1e44:	0b3a0e03 	bleq	e85658 <__bss_end__+0xe7a390>
    1e48:	0b390b3b 	bleq	e44b3c <__bss_end__+0xe39874>
    1e4c:	193f1349 	ldmdbne	pc!, {r0, r3, r6, r8, r9, ip}	; <UNPREDICTABLE>
    1e50:	0000193c 	andeq	r1, r0, ip, lsr r9
    1e54:	0b000f07 	bleq	5a78 <__code_start__-0x2588>
    1e58:	0013490b 	andseq	r4, r3, fp, lsl #18
    1e5c:	00260800 	eoreq	r0, r6, r0, lsl #16
    1e60:	00001349 	andeq	r1, r0, r9, asr #6
    1e64:	3f012e09 	svccc	0x00012e09
    1e68:	3a0e0319 	bcc	382ad4 <__bss_end__+0x37780c>
    1e6c:	390b3b0b 	stmdbcc	fp, {r0, r1, r3, r8, r9, fp, ip, sp}
    1e70:	4919270b 	ldmdbmi	r9, {r0, r1, r3, r8, r9, sl, sp}
    1e74:	12011113 	andne	r1, r1, #-1073741820	; 0xc0000004
    1e78:	97184006 	ldrls	r4, [r8, -r6]
    1e7c:	13011942 	movwne	r1, #6466	; 0x1942
    1e80:	050a0000 	streq	r0, [sl, #-0]
    1e84:	3a080300 	bcc	202a8c <__bss_end__+0x1f77c4>
    1e88:	390b3b0b 	stmdbcc	fp, {r0, r1, r3, r8, r9, fp, ip, sp}
    1e8c:	0213490b 	andseq	r4, r3, #180224	; 0x2c000
    1e90:	0b000018 	bleq	1ef8 <__code_start__-0x6108>
    1e94:	08030005 	stmdaeq	r3, {r0, r2}
    1e98:	0b3b0b3a 	bleq	ec4b88 <__bss_end__+0xeb98c0>
    1e9c:	13490b39 	movtne	r0, #39737	; 0x9b39
    1ea0:	42b71702 	adcsmi	r1, r7, #524288	; 0x80000
    1ea4:	0c000017 	stceq	0, cr0, [r0], {23}
    1ea8:	08030034 	stmdaeq	r3, {r2, r4, r5}
    1eac:	0b3b0b3a 	bleq	ec4b9c <__bss_end__+0xeb98d4>
    1eb0:	13490b39 	movtne	r0, #39737	; 0x9b39
    1eb4:	42b71702 	adcsmi	r1, r7, #524288	; 0x80000
    1eb8:	00000017 	andeq	r0, r0, r7, lsl r0
    1ebc:	25011101 	strcs	r1, [r1, #-257]	; 0xfffffeff
    1ec0:	030b130e 	movweq	r1, #45838	; 0xb30e
    1ec4:	110e1b0e 	tstne	lr, lr, lsl #22
    1ec8:	10061201 	andne	r1, r6, r1, lsl #4
    1ecc:	02000017 	andeq	r0, r0, #23, 0
    1ed0:	0b0b0024 	bleq	2c1f68 <__bss_end__+0x2b6ca0>
    1ed4:	08030b3e 	stmdaeq	r3, {r1, r2, r3, r4, r5, r8, r9, fp}
    1ed8:	16030000 	strne	r0, [r3], -r0
    1edc:	3a0e0300 	bcc	382ae4 <__bss_end__+0x37781c>
    1ee0:	390b3b0b 	stmdbcc	fp, {r0, r1, r3, r8, r9, fp, ip, sp}
    1ee4:	0013490b 	andseq	r4, r3, fp, lsl #18
    1ee8:	00240400 	eoreq	r0, r4, r0, lsl #8
    1eec:	0b3e0b0b 	bleq	f84b20 <__bss_end__+0xf79858>
    1ef0:	00000e03 	andeq	r0, r0, r3, lsl #28
    1ef4:	49002605 	stmdbmi	r0, {r0, r2, r9, sl, sp}
    1ef8:	06000013 			; <UNDEFINED> instruction: 0x06000013
    1efc:	19270115 	stmdbne	r7!, {r0, r2, r4, r8}
    1f00:	13011349 	movwne	r1, #4937	; 0x1349
    1f04:	05070000 	streq	r0, [r7, #-0]
    1f08:	00134900 	andseq	r4, r3, r0, lsl #18
    1f0c:	00340800 	eorseq	r0, r4, r0, lsl #16
    1f10:	0b3a0e03 	bleq	e85724 <__bss_end__+0xe7a45c>
    1f14:	0b390b3b 	bleq	e44c08 <__bss_end__+0xe39940>
    1f18:	193f1349 	ldmdbne	pc!, {r0, r3, r6, r8, r9, ip}	; <UNPREDICTABLE>
    1f1c:	0000193c 	andeq	r1, r0, ip, lsr r9
    1f20:	0b000f09 	bleq	5b4c <__code_start__-0x24b4>
    1f24:	0013490b 	andseq	r4, r3, fp, lsl #18
    1f28:	012e0a00 			; <UNDEFINED> instruction: 0x012e0a00
    1f2c:	0e03193f 			; <UNDEFINED> instruction: 0x0e03193f
    1f30:	0b3b0b3a 	bleq	ec4c20 <__bss_end__+0xeb9958>
    1f34:	19270b39 	stmdbne	r7!, {r0, r3, r4, r5, r8, r9, fp}
    1f38:	01111349 	tsteq	r1, r9, asr #6
    1f3c:	18400612 	stmdane	r0, {r1, r4, r9, sl}^
    1f40:	01194297 			; <UNDEFINED> instruction: 0x01194297
    1f44:	0b000013 	bleq	1f98 <__code_start__-0x6068>
    1f48:	08030005 	stmdaeq	r3, {r0, r2}
    1f4c:	0b3b0b3a 	bleq	ec4c3c <__bss_end__+0xeb9974>
    1f50:	13490b39 	movtne	r0, #39737	; 0x9b39
    1f54:	42b71702 	adcsmi	r1, r7, #524288	; 0x80000
    1f58:	0c000017 	stceq	0, cr0, [r0], {23}
    1f5c:	08030034 	stmdaeq	r3, {r2, r4, r5}
    1f60:	0b3b0b3a 	bleq	ec4c50 <__bss_end__+0xeb9988>
    1f64:	13490b39 	movtne	r0, #39737	; 0x9b39
    1f68:	42b71702 	adcsmi	r1, r7, #524288	; 0x80000
    1f6c:	00000017 	andeq	r0, r0, r7, lsl r0
    1f70:	25011101 	strcs	r1, [r1, #-257]	; 0xfffffeff
    1f74:	030b130e 	movweq	r1, #45838	; 0xb30e
    1f78:	110e1b0e 	tstne	lr, lr, lsl #22
    1f7c:	10061201 	andne	r1, r6, r1, lsl #4
    1f80:	02000017 	andeq	r0, r0, #23, 0
    1f84:	0b0b0024 	bleq	2c201c <__bss_end__+0x2b6d54>
    1f88:	08030b3e 	stmdaeq	r3, {r1, r2, r3, r4, r5, r8, r9, fp}
    1f8c:	24030000 	strcs	r0, [r3], #-0
    1f90:	3e0b0b00 	vmlacc.f64	d0, d11, d0
    1f94:	000e030b 	andeq	r0, lr, fp, lsl #6
    1f98:	01150400 	tsteq	r5, r0, lsl #8
    1f9c:	13491927 	movtne	r1, #39207	; 0x9927
    1fa0:	00001301 	andeq	r1, r0, r1, lsl #6
    1fa4:	49000505 	stmdbmi	r0, {r0, r2, r8, sl}
    1fa8:	06000013 			; <UNDEFINED> instruction: 0x06000013
    1fac:	0e030034 	mcreq	0, 0, r0, cr3, cr4, {1}
    1fb0:	0b3b0b3a 	bleq	ec4ca0 <__bss_end__+0xeb99d8>
    1fb4:	13490b39 	movtne	r0, #39737	; 0x9b39
    1fb8:	193c193f 	ldmdbne	ip!, {r0, r1, r2, r3, r4, r5, r8, fp, ip}
    1fbc:	0f070000 	svceq	0x00070000
    1fc0:	490b0b00 	stmdbmi	fp, {r8, r9, fp}
    1fc4:	08000013 	stmdaeq	r0, {r0, r1, r4}
    1fc8:	13490026 	movtne	r0, #36902	; 0x9026
    1fcc:	2e090000 	cdpcs	0, 0, cr0, cr9, cr0, {0}
    1fd0:	03193f00 	tsteq	r9, #0, 30
    1fd4:	3b0b3a0e 	blcc	2d0814 <__bss_end__+0x2c554c>
    1fd8:	270b390b 	strcs	r3, [fp, -fp, lsl #18]
    1fdc:	12011119 	andne	r1, r1, #1073741830	; 0x40000006
    1fe0:	97184006 	ldrls	r4, [r8, -r6]
    1fe4:	00001942 	andeq	r1, r0, r2, asr #18
	...

Disassembly of section .debug_loc:

00000000 <.debug_loc>:
       0:	00000000 	andeq	r0, r0, r0
       4:	000000fc 	strdeq	r0, [r0], -ip
       8:	00000100 	andeq	r0, r0, r0, lsl #2
       c:	00500001 	subseq	r0, r0, r1
      10:	03000001 	movweq	r0, #1
      14:	01000001 	tsteq	r0, r1
      18:	00005100 	andeq	r5, r0, r0, lsl #2
	...
      28:	0000015c 	andeq	r0, r0, ip, asr r1
      2c:	00000168 	andeq	r0, r0, r8, ror #2
      30:	78500001 	ldmdavc	r0, {r0}^
      34:	8c000001 	stchi	0, cr0, [r0], {1}
      38:	01000001 	tsteq	r0, r1
      3c:	018c5000 	orreq	r5, ip, r0
      40:	018f0000 	orreq	r0, pc, r0
      44:	00020000 	andeq	r0, r2, r0
      48:	0000007d 	andeq	r0, r0, sp, ror r0
      4c:	00000000 	andeq	r0, r0, r0
      50:	00010000 	andeq	r0, r1, r0
      54:	00010100 	andeq	r0, r1, r0, lsl #2
      58:	001c0000 	andseq	r0, ip, r0
      5c:	00240000 	eoreq	r0, r4, r0
      60:	00020000 	andeq	r0, r2, r0
      64:	00249f30 	eoreq	r9, r4, r0, lsr pc
      68:	00a00000 	adceq	r0, r0, r0
      6c:	00010000 	andeq	r0, r1, r0
      70:	0000a055 	andeq	sl, r0, r5, asr r0
      74:	0000ac00 	andeq	sl, r0, r0, lsl #24
      78:	54000100 	strpl	r0, [r0], #-256	; 0xffffff00
      7c:	000000ac 	andeq	r0, r0, ip, lsr #1
      80:	000000e0 	andeq	r0, r0, r0, ror #1
      84:	00550001 	subseq	r0, r5, r1
      88:	00000000 	andeq	r0, r0, r0
      8c:	03000000 	movweq	r0, #0
      90:	1c000000 	stcne	0, cr0, [r0], {-0}
      94:	24000000 	strcs	r0, [r0], #-0
      98:	02000000 	andeq	r0, r0, #0, 0
      9c:	249f3000 	ldrcs	r3, [pc], #0	; a4 <__code_start__-0x7f5c>
      a0:	e0000000 	and	r0, r0, r0
      a4:	01000000 	mrseq	r0, (UNDEF: 0)
      a8:	00005600 	andeq	r5, r0, r0, lsl #12
	...
      b4:	00700000 	rsbseq	r0, r0, r0
      b8:	007b0000 	rsbseq	r0, fp, r0
      bc:	00010000 	andeq	r0, r1, r0
      c0:	00007b50 	andeq	r7, r0, r0, asr fp
      c4:	0000e000 	andeq	lr, r0, r0
      c8:	54000100 	strpl	r0, [r0], #-256	; 0xffffff00
	...
      d4:	00440001 	subeq	r0, r4, r1
      d8:	005c0000 	subseq	r0, ip, r0
      dc:	00020000 	andeq	r0, r2, r0
      e0:	00009f44 	andeq	r9, r0, r4, asr #30
      e4:	00000000 	andeq	r0, r0, r0
      e8:	00010000 	andeq	r0, r1, r0
      ec:	00000044 	andeq	r0, r0, r4, asr #32
      f0:	0000005c 	andeq	r0, r0, ip, asr r0
      f4:	95f20006 	ldrbls	r0, [r2, #6]!
      f8:	00000004 	andeq	r0, r0, r4
	...
     104:	00440001 	subeq	r0, r4, r1
     108:	005c0000 	subseq	r0, ip, r0
     10c:	00060000 	andeq	r0, r6, r0
     110:	00a58003 	adceq	r8, r5, r3
     114:	00009f00 	andeq	r9, r0, r0, lsl #30
	...
     124:	00000344 	andeq	r0, r0, r4, asr #6
     128:	0000035c 	andeq	r0, r0, ip, asr r3
     12c:	5c500001 	mrrcpl	0, 0, r0, r0, cr1	; <UNPREDICTABLE>
     130:	30000003 	andcc	r0, r0, r3
     134:	01000004 	tsteq	r0, r4
     138:	04305500 	ldrteq	r5, [r0], #-1280	; 0xfffffb00
     13c:	04400000 	strbeq	r0, [r0], #-0
     140:	00040000 	andeq	r0, r4, r0
     144:	9f5001f3 	svcls	0x005001f3
	...
     154:	036c0000 	cmneq	ip, #0, 0
     158:	03770000 	cmneq	r7, #0, 0
     15c:	00010000 	andeq	r0, r1, r0
     160:	00037750 	andeq	r7, r3, r0, asr r7
     164:	00043000 	andeq	r3, r4, r0
     168:	54000100 	strpl	r0, [r0], #-256	; 0xffffff00
     16c:	00000430 	andeq	r0, r0, r0, lsr r4
     170:	00000440 	andeq	r0, r0, r0, asr #8
     174:	c8700004 	ldmdagt	r0!, {r2}^
     178:	00009f7e 	andeq	r9, r0, lr, ror pc
     17c:	00000000 	andeq	r0, r0, r0
     180:	00020000 	andeq	r0, r2, r0
     184:	03780000 	cmneq	r8, #0, 0
     188:	037c0000 	cmneq	ip, #0, 0
     18c:	00020000 	andeq	r0, r2, r0
     190:	037c9f30 	cmneq	ip, #48, 30	; 0xc0
     194:	03ac0000 			; <UNDEFINED> instruction: 0x03ac0000
     198:	00010000 	andeq	r0, r1, r0
     19c:	00000053 	andeq	r0, r0, r3, asr r0
     1a0:	00000000 	andeq	r0, r0, r0
     1a4:	00000300 	andeq	r0, r0, r0, lsl #6
     1a8:	0003f000 	andeq	pc, r3, r0
     1ac:	0003f400 	andeq	pc, r3, r0, lsl #8
     1b0:	30000200 	andcc	r0, r0, r0, lsl #4
     1b4:	0003f49f 	muleq	r3, pc, r4	; <UNPREDICTABLE>
     1b8:	00043000 	andeq	r3, r4, r0
     1bc:	56000100 	strpl	r0, [r0], -r0, lsl #2
	...
     1c8:	04080000 	streq	r0, [r8], #-0
     1cc:	04140000 	ldreq	r0, [r4], #-0
     1d0:	00010000 	andeq	r0, r1, r0
     1d4:	00000050 	andeq	r0, r0, r0, asr r0
	...
     1e8:	0002f400 	andeq	pc, r2, r0, lsl #8
     1ec:	00031c00 	andeq	r1, r3, r0, lsl #24
     1f0:	50000100 	andpl	r0, r0, r0, lsl #2
     1f4:	0000031c 	andeq	r0, r0, ip, lsl r3
     1f8:	00000324 	andeq	r0, r0, r4, lsr #6
     1fc:	01f30004 	mvnseq	r0, r4
     200:	03249f50 			; <UNDEFINED> instruction: 0x03249f50
     204:	03280000 			; <UNDEFINED> instruction: 0x03280000
     208:	00010000 	andeq	r0, r1, r0
     20c:	00032850 	andeq	r2, r3, r0, asr r8
     210:	00032c00 	andeq	r2, r3, r0, lsl #24
     214:	f3000400 	vshl.u8	d0, d0, d0
     218:	2c9f5001 	ldccs	0, cr5, [pc], {1}
     21c:	30000003 	andcc	r0, r0, r3
     220:	01000003 	tsteq	r0, r3
     224:	03305000 	teqeq	r0, #0, 0
     228:	03380000 	teqeq	r8, #0, 0
     22c:	00040000 	andeq	r0, r4, r0
     230:	9f5001f3 	svcls	0x005001f3
	...
     244:	00000184 	andeq	r0, r0, r4, lsl #3
     248:	0000019c 	muleq	r0, ip, r1
     24c:	9c500001 	mrrcls	0, 0, r0, r0, cr1	; <UNPREDICTABLE>
     250:	b4000001 	strlt	r0, [r0], #-1
     254:	01000002 	tsteq	r0, r2
     258:	02b45400 	adcseq	r5, r4, #0, 8
     25c:	02c80000 	sbceq	r0, r8, #0, 0
     260:	00040000 	andeq	r0, r4, r0
     264:	9f019874 	svcls	0x00019874
     268:	000002c8 	andeq	r0, r0, r8, asr #5
     26c:	000002e0 	andeq	r0, r0, r0, ror #5
     270:	01f30004 	mvnseq	r0, r4
     274:	00009f50 	andeq	r9, r0, r0, asr pc
     278:	00000000 	andeq	r0, r0, r0
     27c:	02010000 	andeq	r0, r1, #0, 0
     280:	00000002 	andeq	r0, r0, r2
     284:	01a00000 	moveq	r0, r0
     288:	01a00000 	moveq	r0, r0
     28c:	00010000 	andeq	r0, r1, r0
     290:	0001a054 	andeq	sl, r1, r4, asr r0
     294:	0002b400 	andeq	fp, r2, r0, lsl #8
     298:	74000400 	strvc	r0, [r0], #-1024	; 0xfffffc00
     29c:	b49f7ec8 	ldrlt	r7, [pc], #3784	; 2a4 <__code_start__-0x7d5c>
     2a0:	c8000002 	stmdagt	r0, {r1}
     2a4:	03000002 	movweq	r0, #2
     2a8:	9f607400 	svcls	0x00607400
     2ac:	000002c8 	andeq	r0, r0, r8, asr #5
     2b0:	000002e0 	andeq	r0, r0, r0, ror #5
     2b4:	01f30007 	mvnseq	r0, r7
     2b8:	1cb80850 	ldcne	8, cr0, [r8], #320	; 0x140
     2bc:	0000009f 	muleq	r0, pc, r0	; <UNPREDICTABLE>
	...
     2cc:	0001e800 	andeq	lr, r1, r0, lsl #16
     2d0:	00021c00 	andeq	r1, r2, r0, lsl #24
     2d4:	53000100 	movwpl	r0, #256	; 0x100
     2d8:	00000244 	andeq	r0, r0, r4, asr #4
     2dc:	00000247 	andeq	r0, r0, r7, asr #4
     2e0:	68530001 	ldmdavs	r3, {r0}^
     2e4:	6b000002 	blvs	2f4 <__code_start__-0x7d0c>
     2e8:	01000002 	tsteq	r0, r2
     2ec:	028c5300 	addeq	r5, ip, #0, 6
     2f0:	02900000 	addseq	r0, r0, #0, 0
     2f4:	00010000 	andeq	r0, r1, r0
     2f8:	00000053 	andeq	r0, r0, r3, asr r0
     2fc:	00000000 	andeq	r0, r0, r0
     300:	90000000 	andls	r0, r0, r0
     304:	ac000002 	stcge	0, cr0, [r0], {2}
     308:	01000002 	tsteq	r0, r2
     30c:	00005300 	andeq	r5, r0, r0, lsl #6
	...
     318:	01180000 	tsteq	r8, r0
     31c:	012b0000 			; <UNDEFINED> instruction: 0x012b0000
     320:	00010000 	andeq	r0, r1, r0
     324:	00012b50 	andeq	r2, r1, r0, asr fp
     328:	00017800 	andeq	r7, r1, r0, lsl #16
     32c:	55000100 	strpl	r0, [r0, #-256]	; 0xffffff00
	...
     340:	00000130 	andeq	r0, r0, r0, lsr r1
     344:	00000143 	andeq	r0, r0, r3, asr #2
     348:	43500001 	cmpmi	r0, #1, 0
     34c:	58000001 	stmdapl	r0, {r0}
     350:	01000001 	tsteq	r0, r1
     354:	01585400 	cmpeq	r8, r0, lsl #8
     358:	015c0000 	cmpeq	ip, r0
     35c:	00010000 	andeq	r0, r1, r0
     360:	00015c50 	andeq	r5, r1, r0, asr ip
     364:	00017800 	andeq	r7, r1, r0, lsl #16
     368:	54000100 	strpl	r0, [r0], #-256	; 0xffffff00
	...
     378:	000000c8 	andeq	r0, r0, r8, asr #1
     37c:	000000df 	ldrdeq	r0, [r0], -pc	; <UNPREDICTABLE>
     380:	df500001 	svcle	0x00500001
     384:	00000000 	andeq	r0, r0, r0
     388:	01000001 	tsteq	r0, r1
     38c:	00005600 	andeq	r5, r0, r0, lsl #12
	...
     398:	00c80000 	sbceq	r0, r8, r0
     39c:	00df0000 	sbcseq	r0, pc, r0
     3a0:	00010000 	andeq	r0, r1, r0
     3a4:	0000df51 	andeq	sp, r0, r1, asr pc
     3a8:	00010000 	andeq	r0, r1, r0
     3ac:	54000100 	strpl	r0, [r0], #-256	; 0xffffff00
	...
     3bc:	000000e4 	andeq	r0, r0, r4, ror #1
     3c0:	000000e8 	andeq	r0, r0, r8, ror #1
     3c4:	e8500001 	ldmda	r0, {r0}^
     3c8:	00000000 	andeq	r0, r0, r0
     3cc:	01000001 	tsteq	r0, r1
     3d0:	00005500 	andeq	r5, r0, r0, lsl #10
	...
     3dc:	000000ec 	andeq	r0, r0, ip, ror #1
     3e0:	000000f8 	strdeq	r0, [r0], -r8
     3e4:	00500001 	subseq	r0, r0, r1
	...
     3f0:	94000000 	strls	r0, [r0], #-0
     3f4:	a7000000 	strge	r0, [r0, -r0]
     3f8:	01000000 	mrseq	r0, (UNDEF: 0)
     3fc:	00a75000 	adceq	r5, r7, r0
     400:	00b40000 	adcseq	r0, r4, r0
     404:	00010000 	andeq	r0, r1, r0
     408:	00000054 	andeq	r0, r0, r4, asr r0
     40c:	00000000 	andeq	r0, r0, r0
     410:	a8000000 	stmdage	r0, {}	; <UNPREDICTABLE>
     414:	ac000000 	stcge	0, cr0, [r0], {-0}
     418:	01000000 	mrseq	r0, (UNDEF: 0)
     41c:	00005400 	andeq	r5, r0, r0, lsl #8
	...
     428:	00700000 	rsbseq	r0, r0, r0
     42c:	00800000 	addeq	r0, r0, r0
     430:	00010000 	andeq	r0, r1, r0
     434:	00008050 	andeq	r8, r0, r0, asr r0
     438:	00008400 	andeq	r8, r0, r0, lsl #8
     43c:	70000400 	andvc	r0, r0, r0, lsl #8
     440:	009f7ec8 	addseq	r7, pc, r8, asr #29
	...
     44c:	40000000 	andmi	r0, r0, r0
     450:	58000000 	stmdapl	r0, {}	; <UNPREDICTABLE>
     454:	01000000 	mrseq	r0, (UNDEF: 0)
     458:	00585000 	subseq	r5, r8, r0
     45c:	005c0000 	subseq	r0, ip, r0
     460:	00040000 	andeq	r0, r4, r0
     464:	9f5001f3 	svcls	0x005001f3
	...
     478:	0000001c 	andeq	r0, r0, ip, lsl r0
     47c:	0000008c 	andeq	r0, r0, ip, lsl #1
     480:	8c510001 	mrrchi	0, 0, r0, r1, cr1
     484:	98000000 	stmdals	r0, {}	; <UNPREDICTABLE>
     488:	03000000 	movweq	r0, #0
     48c:	9f787000 	svcls	0x00787000
     490:	00000098 	muleq	r0, r8, r0
     494:	000000b8 	strheq	r0, [r0], -r8
     498:	b8510001 	ldmdalt	r1, {r0}^
     49c:	d0000000 	andle	r0, r0, r0
     4a0:	03000000 	movweq	r0, #0
     4a4:	9f787000 	svcls	0x00787000
	...
     4b4:	00000024 	andeq	r0, r0, r4, lsr #32
     4b8:	0000005c 	andeq	r0, r0, ip, asr r0
     4bc:	60530001 	subsvs	r0, r3, r1
     4c0:	d0000000 	andle	r0, r0, r0
     4c4:	01000000 	mrseq	r0, (UNDEF: 0)
     4c8:	00005300 	andeq	r5, r0, r0, lsl #6
	...
     4d8:	014c0000 	mrseq	r0, (UNDEF: 76)
     4dc:	01780000 	cmneq	r8, r0
     4e0:	00010000 	andeq	r0, r1, r0
     4e4:	00017850 	andeq	r7, r1, r0, asr r8
     4e8:	00017c00 	andeq	r7, r1, r0, lsl #24
     4ec:	f3000400 	vshl.u8	d0, d0, d0
     4f0:	7c9f5001 	ldcvc	0, cr5, [pc], {1}
     4f4:	94000001 	strls	r0, [r0], #-1
     4f8:	01000001 	tsteq	r0, r1
     4fc:	01945000 	orrseq	r5, r4, r0
     500:	02000000 	andeq	r0, r0, #0, 0
     504:	00040000 	andeq	r0, r4, r0
     508:	9f5001f3 	svcls	0x005001f3
	...
     518:	01000000 	mrseq	r0, (UNDEF: 0)
     51c:	00000001 	andeq	r0, r0, r1
     520:	01780000 	cmneq	r8, r0
     524:	017c0000 	cmneq	ip, r0
     528:	00010000 	andeq	r0, r1, r0
     52c:	00019450 	andeq	r9, r1, r0, asr r4
     530:	0001b400 	andeq	fp, r1, r0, lsl #8
     534:	50000100 	andpl	r0, r0, r0, lsl #2
     538:	000001b4 			; <UNDEFINED> instruction: 0x000001b4
     53c:	000001b8 			; <UNDEFINED> instruction: 0x000001b8
     540:	78700003 	ldmdavc	r0!, {r0, r1}^
     544:	0001b89f 	muleq	r1, pc, r8	; <UNPREDICTABLE>
     548:	0001c400 	andeq	ip, r1, r0, lsl #8
     54c:	50000100 	andpl	r0, r0, r0, lsl #2
     550:	000001c4 	andeq	r0, r0, r4, asr #3
     554:	000001cc 	andeq	r0, r0, ip, asr #3
     558:	00700002 	rsbseq	r0, r0, r2
     55c:	000001cc 	andeq	r0, r0, ip, asr #3
     560:	000001ec 	andeq	r0, r0, ip, ror #3
     564:	f0500001 			; <UNDEFINED> instruction: 0xf0500001
     568:	00000001 	andeq	r0, r0, r1
     56c:	01000002 	tsteq	r0, r2
     570:	00005000 	andeq	r5, r0, r0
     574:	00000000 	andeq	r0, r0, r0
     578:	01000000 	mrseq	r0, (UNDEF: 0)
     57c:	00000001 	andeq	r0, r0, r1
     580:	00000001 	andeq	r0, r0, r1
     584:	0000016c 	andeq	r0, r0, ip, ror #2
     588:	0000017c 	andeq	r0, r0, ip, ror r1
     58c:	7c520001 	mrrcvc	0, 0, r0, r2, cr1
     590:	94000001 	strls	r0, [r0], #-1
     594:	06000001 	streq	r0, [r0], -r1
     598:	aea80300 	cdpge	3, 10, cr0, cr8, cr0, {0}
     59c:	949f0000 	ldrls	r0, [pc], #0	; 5a4 <__code_start__-0x7a5c>
     5a0:	c4000001 	strgt	r0, [r0], #-1
     5a4:	01000001 	tsteq	r0, r1
     5a8:	01c45200 	biceq	r5, r4, r0, lsl #4
     5ac:	01cc0000 	biceq	r0, ip, r0
     5b0:	00010000 	andeq	r0, r1, r0
     5b4:	0001cc50 	andeq	ip, r1, r0, asr ip
     5b8:	0001ef00 	andeq	lr, r1, r0, lsl #30
     5bc:	52000100 	andpl	r0, r0, #0
	...
     5c8:	01640000 	cmneq	r4, r0
     5cc:	02000000 	andeq	r0, r0, #0, 0
     5d0:	00010000 	andeq	r0, r1, r0
     5d4:	00000054 	andeq	r0, r0, r4, asr r0
	...
     5e0:	0000e000 	andeq	lr, r0, r0
     5e4:	0000f800 	andeq	pc, r0, r0, lsl #16
     5e8:	50000100 	andpl	r0, r0, r0, lsl #2
     5ec:	000000f8 	strdeq	r0, [r0], -r8
     5f0:	0000013c 	andeq	r0, r0, ip, lsr r1
     5f4:	00540001 	subseq	r0, r4, r1
	...
     604:	00010c00 	andeq	r0, r1, r0, lsl #24
     608:	00011c00 	andeq	r1, r1, r0, lsl #24
     60c:	50000100 	andpl	r0, r0, r0, lsl #2
     610:	0000011c 	andeq	r0, r0, ip, lsl r1
     614:	0000011f 	andeq	r0, r0, pc, lsl r1
     618:	78700003 	ldmdavc	r0!, {r0, r1}^
     61c:	00012c9f 	muleq	r1, pc, ip	; <UNPREDICTABLE>
     620:	00013000 	andeq	r3, r1, r0
     624:	50000100 	andpl	r0, r0, r0, lsl #2
	...
     630:	00000001 	andeq	r0, r0, r1
     634:	00000114 	andeq	r0, r0, r4, lsl r1
     638:	0000011c 	andeq	r0, r0, ip, lsl r1
     63c:	1c500001 	mrrcne	0, 0, r0, r0, cr1	; <UNPREDICTABLE>
     640:	1f000001 	svcne	0x00000001
     644:	03000001 	movweq	r0, #1
     648:	9f787000 	svcls	0x00787000
	...
     654:	065c0000 	ldrbeq	r0, [ip], -r0
     658:	06600000 	strbteq	r0, [r0], -r0
     65c:	00010000 	andeq	r0, r1, r0
     660:	00000050 	andeq	r0, r0, r0, asr r0
     664:	00000000 	andeq	r0, r0, r0
     668:	00000100 	andeq	r0, r0, r0, lsl #2
     66c:	0003a800 	andeq	sl, r3, r0, lsl #16
     670:	0003d400 	andeq	sp, r3, r0, lsl #8
     674:	30000200 	andcc	r0, r0, r0, lsl #4
     678:	0003d49f 	muleq	r3, pc, r4	; <UNPREDICTABLE>
     67c:	00046c00 	andeq	r6, r4, r0, lsl #24
     680:	55000100 	strpl	r0, [r0, #-256]	; 0xffffff00
	...
     68c:	00000001 	andeq	r0, r0, r1
     690:	000003a8 	andeq	r0, r0, r8, lsr #7
     694:	000003d4 	ldrdeq	r0, [r0], -r4
     698:	9f300002 	svcls	0x00300002
     69c:	000003d4 	ldrdeq	r0, [r0], -r4
     6a0:	0000046c 	andeq	r0, r0, ip, ror #8
     6a4:	00570001 	subseq	r0, r7, r1
     6a8:	00000000 	andeq	r0, r0, r0
     6ac:	01000000 	mrseq	r0, (UNDEF: 0)
     6b0:	00000000 	andeq	r0, r0, r0
     6b4:	0003a800 	andeq	sl, r3, r0, lsl #16
     6b8:	0003d400 	andeq	sp, r3, r0, lsl #8
     6bc:	30000200 	andcc	r0, r0, r0, lsl #4
     6c0:	0003d49f 	muleq	r3, pc, r4	; <UNPREDICTABLE>
     6c4:	00046c00 	andeq	r6, r4, r0, lsl #24
     6c8:	56000100 	strpl	r0, [r0], -r0, lsl #2
     6cc:	0000046c 	andeq	r0, r0, ip, ror #8
     6d0:	00000488 	andeq	r0, r0, r8, lsl #9
     6d4:	00500001 	subseq	r0, r0, r1
	...
     6e4:	c4000000 	strgt	r0, [r0], #-0
     6e8:	08000003 	stmdaeq	r0, {r0, r1}
     6ec:	01000004 	tsteq	r0, r4
     6f0:	04085000 	streq	r5, [r8], #-0
     6f4:	04240000 	strteq	r0, [r4], #-0
     6f8:	00010000 	andeq	r0, r1, r0
     6fc:	00042454 	andeq	r2, r4, r4, asr r4
     700:	00045c00 	andeq	r5, r4, r0, lsl #24
     704:	50000100 	andpl	r0, r0, r0, lsl #2
     708:	0000045c 	andeq	r0, r0, ip, asr r4
     70c:	0000046c 	andeq	r0, r0, ip, ror #8
     710:	00540001 	subseq	r0, r4, r1
	...
     71c:	0003e400 	andeq	lr, r3, r0, lsl #8
     720:	0003fc00 	andeq	pc, r3, r0, lsl #24
     724:	0a000400 	beq	172c <__code_start__-0x68d4>
     728:	009f0105 	addseq	r0, pc, r5, lsl #2
	...
     734:	0003e400 	andeq	lr, r3, r0, lsl #8
     738:	0003fc00 	andeq	pc, r3, r0, lsl #24
     73c:	f2000600 	vmax.s8	d0, d0, d0
     740:	00001bf7 	strdeq	r1, [r0], -r7
	...
     74c:	e4000000 	str	r0, [r0], #-0
     750:	fc000003 	stc2	0, cr0, [r0], {3}
     754:	06000003 	streq	r0, [r0], -r3
     758:	a7cc0300 	strbge	r0, [ip, r0, lsl #6]
     75c:	009f0000 	addseq	r0, pc, r0
	...
     76c:	0005f800 	andeq	pc, r5, r0, lsl #16
     770:	00060800 	andeq	r0, r6, r0, lsl #16
     774:	50000100 	andpl	r0, r0, r0, lsl #2
     778:	00000608 	andeq	r0, r0, r8, lsl #12
     77c:	0000060b 	andeq	r0, r0, fp, lsl #12
     780:	0b510001 	bleq	144078c <__bss_end__+0x14354c4>
     784:	3c000006 	stccc	0, cr0, [r0], {6}
     788:	01000006 	tsteq	r0, r6
     78c:	00005400 	andeq	r5, r0, r0, lsl #8
	...
     798:	05540000 	ldrbeq	r0, [r4, #-0]
     79c:	05630000 	strbeq	r0, [r3, #-0]!
     7a0:	00010000 	andeq	r0, r1, r0
     7a4:	00056350 	andeq	r6, r5, r0, asr r3
     7a8:	00056800 	andeq	r6, r5, r0, lsl #16
     7ac:	f3000400 	vshl.u8	d0, d0, d0
     7b0:	009f5001 	addseq	r5, pc, r1
	...
     7bc:	80000000 	andhi	r0, r0, r0
     7c0:	94000002 	strls	r0, [r0], #-2
     7c4:	01000002 	tsteq	r0, r2
     7c8:	02945000 	addseq	r5, r4, #0, 0
     7cc:	03880000 	orreq	r0, r8, #0, 0
     7d0:	00010000 	andeq	r0, r1, r0
     7d4:	00000057 	andeq	r0, r0, r7, asr r0
     7d8:	00000000 	andeq	r0, r0, r0
     7dc:	00000100 	andeq	r0, r0, r0, lsl #2
     7e0:	00029000 	andeq	r9, r2, r0
     7e4:	0002bc00 	andeq	fp, r2, r0, lsl #24
     7e8:	30000200 	andcc	r0, r0, r0, lsl #4
     7ec:	0002bc9f 	muleq	r2, pc, ip	; <UNPREDICTABLE>
     7f0:	00038800 	andeq	r8, r3, r0, lsl #16
     7f4:	55000100 	strpl	r0, [r0, #-256]	; 0xffffff00
	...
     800:	00000001 	andeq	r0, r0, r1
     804:	02900000 	addseq	r0, r0, #0, 0
     808:	02bc0000 	adcseq	r0, ip, #0, 0
     80c:	00020000 	andeq	r0, r2, r0
     810:	02bc9f30 	adcseq	r9, ip, #48, 30	; 0xc0
     814:	034c0000 	movteq	r0, #49152	; 0xc000
     818:	00010000 	andeq	r0, r1, r0
     81c:	00035456 	andeq	r5, r3, r6, asr r4
     820:	00038800 	andeq	r8, r3, r0, lsl #16
     824:	56000100 	strpl	r0, [r0], -r0, lsl #2
	...
     830:	00000001 	andeq	r0, r0, r1
     834:	00000290 	muleq	r0, r0, r2
     838:	000002bc 			; <UNDEFINED> instruction: 0x000002bc
     83c:	9f300002 	svcls	0x00300002
     840:	000002bc 			; <UNDEFINED> instruction: 0x000002bc
     844:	00000388 	andeq	r0, r0, r8, lsl #7
     848:	00580001 	subseq	r0, r8, r1
	...
     860:	0002ac00 	andeq	sl, r2, r0, lsl #24
     864:	0002cc00 	andeq	ip, r2, r0, lsl #24
     868:	50000100 	andpl	r0, r0, r0, lsl #2
     86c:	000002cc 	andeq	r0, r0, ip, asr #5
     870:	000002dc 	ldrdeq	r0, [r0], -ip
     874:	dc540001 	mrrcle	0, 0, r0, r4, cr1
     878:	18000002 	stmdane	r0, {r1}
     87c:	01000003 	tsteq	r0, r3
     880:	03185000 	tsteq	r8, #0, 0
     884:	031b0000 	tsteq	fp, #0, 0
     888:	00010000 	andeq	r0, r1, r0
     88c:	00031b52 	andeq	r1, r3, r2, asr fp
     890:	00032000 	andeq	r2, r3, r0
     894:	54000100 	strpl	r0, [r0], #-256	; 0xffffff00
     898:	00000320 	andeq	r0, r0, r0, lsr #6
     89c:	00000328 	andeq	r0, r0, r8, lsr #6
     8a0:	28500001 	ldmdacs	r0, {r0}^
     8a4:	88000003 	stmdahi	r0, {r0, r1}
     8a8:	01000003 	tsteq	r0, r3
     8ac:	00005400 	andeq	r5, r0, r0, lsl #8
	...
     8b8:	01d80000 	bicseq	r0, r8, r0
     8bc:	01f30000 	mvnseq	r0, r0
     8c0:	00010000 	andeq	r0, r1, r0
     8c4:	0001f450 	andeq	pc, r1, r0, asr r4	; <UNPREDICTABLE>
     8c8:	0001fc00 	andeq	pc, r1, r0, lsl #24
     8cc:	50000100 	andpl	r0, r0, r0, lsl #2
	...
     8e4:	009c0000 	addseq	r0, ip, r0
     8e8:	00e40000 	rsceq	r0, r4, r0
     8ec:	00010000 	andeq	r0, r1, r0
     8f0:	0000e450 	andeq	lr, r0, r0, asr r4
     8f4:	0000ec00 	andeq	lr, r0, r0, lsl #24
     8f8:	54000100 	strpl	r0, [r0], #-256	; 0xffffff00
     8fc:	000000ec 	andeq	r0, r0, ip, ror #1
     900:	00000104 	andeq	r0, r0, r4, lsl #2
     904:	04500001 	ldrbeq	r0, [r0], #-1
     908:	0c000001 	stceq	0, cr0, [r0], {1}
     90c:	04000001 	streq	r0, [r0], #-1
     910:	5001f300 	andpl	pc, r1, r0, lsl #6
     914:	00010c9f 	muleq	r1, pc, ip	; <UNPREDICTABLE>
     918:	00012400 	andeq	r2, r1, r0, lsl #8
     91c:	50000100 	andpl	r0, r0, r0, lsl #2
     920:	00000124 	andeq	r0, r0, r4, lsr #2
     924:	0000012c 	andeq	r0, r0, ip, lsr #2
     928:	2c540001 	mrrccs	0, 0, r0, r4, cr1
     92c:	b4000001 	strlt	r0, [r0], #-1
     930:	04000001 	streq	r0, [r0], #-1
     934:	5001f300 	andpl	pc, r1, r0, lsl #6
     938:	0000009f 	muleq	r0, pc, r0	; <UNPREDICTABLE>
	...
     94c:	9c000000 	stcls	0, cr0, [r0], {-0}
     950:	e0000000 	and	r0, r0, r0
     954:	01000000 	mrseq	r0, (UNDEF: 0)
     958:	00e05100 	rsceq	r5, r0, r0, lsl #2
     95c:	00ec0000 	rsceq	r0, ip, r0
     960:	00010000 	andeq	r0, r1, r0
     964:	0000ec55 	andeq	lr, r0, r5, asr ip
     968:	00010000 	andeq	r0, r1, r0
     96c:	51000100 	mrspl	r0, (UNDEF: 16)
     970:	00000100 	andeq	r0, r0, r0, lsl #2
     974:	0000010c 	andeq	r0, r0, ip, lsl #2
     978:	01f30004 	mvnseq	r0, r4
     97c:	010c9f51 	tsteq	ip, r1, asr pc
     980:	01200000 			; <UNDEFINED> instruction: 0x01200000
     984:	00010000 	andeq	r0, r1, r0
     988:	00012051 	andeq	r2, r1, r1, asr r0
     98c:	00019c00 	andeq	r9, r1, r0, lsl #24
     990:	55000100 	strpl	r0, [r0, #-256]	; 0xffffff00
     994:	0000019c 	muleq	r0, ip, r1
     998:	000001b4 			; <UNDEFINED> instruction: 0x000001b4
     99c:	01f30004 	mvnseq	r0, r4
     9a0:	00009f51 	andeq	r9, r0, r1, asr pc
	...
     9ac:	0000012c 	andeq	r0, r0, ip, lsr #2
     9b0:	0000019c 	muleq	r0, ip, r1
     9b4:	00540001 	subseq	r0, r4, r1
	...
     9c4:	00012c00 	andeq	r2, r1, r0, lsl #24
     9c8:	00013c00 	andeq	r3, r1, r0, lsl #24
     9cc:	50000100 	andpl	r0, r0, r0, lsl #2
     9d0:	00000150 	andeq	r0, r0, r0, asr r1
     9d4:	0000018c 	andeq	r0, r0, ip, lsl #3
     9d8:	8c500001 	mrrchi	0, 0, r0, r0, cr1	; <UNPREDICTABLE>
     9dc:	8f000001 	svchi	0x00000001
     9e0:	03000001 	movweq	r0, #1
     9e4:	9f7c7000 	svcls	0x007c7000
	...
     9f8:	012c0000 			; <UNDEFINED> instruction: 0x012c0000
     9fc:	01300000 	teqeq	r0, r0
     a00:	00010000 	andeq	r0, r1, r0
     a04:	00013051 	andeq	r3, r1, r1, asr r0
     a08:	00013c00 	andeq	r3, r1, r0, lsl #24
     a0c:	70000400 	andvc	r0, r0, r0, lsl #8
     a10:	5c9f01b8 	ldfpls	f0, [pc], {184}	; 0xb8
     a14:	78000001 	stmdavc	r0, {r0}
     a18:	01000001 	tsteq	r0, r1
     a1c:	01785100 	cmneq	r8, r0, lsl #2
     a20:	018c0000 	orreq	r0, ip, r0
     a24:	00040000 	andeq	r0, r4, r0
     a28:	9f01b870 	svcls	0x0001b870
     a2c:	0000018c 	andeq	r0, r0, ip, lsl #3
     a30:	0000018f 	andeq	r0, r0, pc, lsl #3
     a34:	b4700004 	ldrbtlt	r0, [r0], #-4
     a38:	00009f01 	andeq	r9, r0, r1, lsl #30
	...
     a44:	012c0000 			; <UNDEFINED> instruction: 0x012c0000
     a48:	013c0000 	teqeq	ip, r0
     a4c:	00010000 	andeq	r0, r1, r0
     a50:	00016052 	andeq	r6, r1, r2, asr r0
     a54:	00018f00 	andeq	r8, r1, r0, lsl #30
     a58:	52000100 	andpl	r0, r0, #0
	...
     a68:	00000060 	andeq	r0, r0, r0, rrx
     a6c:	00000073 	andeq	r0, r0, r3, ror r0
     a70:	73500001 	cmpvc	r0, #1, 0
     a74:	90000000 	andls	r0, r0, r0
     a78:	01000000 	mrseq	r0, (UNDEF: 0)
     a7c:	00005400 	andeq	r5, r0, r0, lsl #8
     a80:	00000000 	andeq	r0, r0, r0
     a84:	00010000 	andeq	r0, r1, r0
     a88:	00700000 	rsbseq	r0, r0, r0
     a8c:	00730000 	rsbseq	r0, r3, r0
     a90:	00010000 	andeq	r0, r1, r0
     a94:	00007350 	andeq	r7, r0, r0, asr r3
     a98:	00009000 	andeq	r9, r0, r0
     a9c:	54000100 	strpl	r0, [r0], #-256	; 0xffffff00
	...
     ab4:	0000000c 	andeq	r0, r0, ip
     ab8:	0000003c 	andeq	r0, r0, ip, lsr r0
     abc:	3c500001 	mrrccc	0, 0, r0, r0, cr1	; <UNPREDICTABLE>
     ac0:	40000000 	andmi	r0, r0, r0
     ac4:	04000000 	streq	r0, [r0], #-0
     ac8:	5001f300 	andpl	pc, r1, r0, lsl #6
     acc:	0000409f 	muleq	r0, pc, r0	; <UNPREDICTABLE>
     ad0:	00004400 	andeq	r4, r0, r0, lsl #8
     ad4:	50000100 	andpl	r0, r0, r0, lsl #2
     ad8:	00000044 	andeq	r0, r0, r4, asr #32
     adc:	00000048 	andeq	r0, r0, r8, asr #32
     ae0:	01f30004 	mvnseq	r0, r4
     ae4:	00489f50 	subeq	r9, r8, r0, asr pc
     ae8:	004c0000 	subeq	r0, ip, r0
     aec:	00010000 	andeq	r0, r1, r0
     af0:	00004c50 	andeq	r4, r0, r0, asr ip
     af4:	00005400 	andeq	r5, r0, r0, lsl #8
     af8:	f3000400 	vshl.u8	d0, d0, d0
     afc:	009f5001 	addseq	r5, pc, r1
	...
     b10:	94000000 	strls	r0, [r0], #-0
     b14:	c4000004 	strgt	r0, [r0], #-4
     b18:	01000004 	tsteq	r0, r4
     b1c:	04c45000 	strbeq	r5, [r4], #0
     b20:	04f00000 	ldrbteq	r0, [r0], #0
     b24:	00010000 	andeq	r0, r1, r0
     b28:	0004f054 	andeq	pc, r4, r4, asr r0	; <UNPREDICTABLE>
     b2c:	00050800 	andeq	r0, r5, r0, lsl #16
     b30:	50000100 	andpl	r0, r0, r0, lsl #2
     b34:	00000508 	andeq	r0, r0, r8, lsl #10
     b38:	00000510 	andeq	r0, r0, r0, lsl r5
     b3c:	10540001 	subsne	r0, r4, r1
     b40:	20000005 	andcs	r0, r0, r5
     b44:	01000005 	tsteq	r0, r5
     b48:	05205000 	streq	r5, [r0, #-0]!
     b4c:	05400000 	strbeq	r0, [r0, #-0]
     b50:	00010000 	andeq	r0, r1, r0
     b54:	00000054 	andeq	r0, r0, r4, asr r0
     b58:	00000000 	andeq	r0, r0, r0
     b5c:	bc000200 	sfmlt	f0, 4, [r0], {-0}
     b60:	f0000004 			; <UNDEFINED> instruction: 0xf0000004
     b64:	04000004 	streq	r0, [r0], #-4
     b68:	24404000 	strbcs	r4, [r0], #-0
     b6c:	0000009f 	muleq	r0, pc, r0	; <UNPREDICTABLE>
     b70:	00000000 	andeq	r0, r0, r0
     b74:	08000000 	stmdaeq	r0, {}	; <UNPREDICTABLE>
     b78:	80000000 	andhi	r0, r0, r0
     b7c:	01000000 	mrseq	r0, (UNDEF: 0)
     b80:	00005400 	andeq	r5, r0, r0, lsl #8
     b84:	00000000 	andeq	r0, r0, r0
     b88:	00020000 	andeq	r0, r2, r0
     b8c:	00080000 	andeq	r0, r8, r0
     b90:	00200000 	eoreq	r0, r0, r0
     b94:	00020000 	andeq	r0, r2, r0
     b98:	00209f30 	eoreq	r9, r0, r0, lsr pc
     b9c:	006c0000 	rsbeq	r0, ip, r0
     ba0:	00010000 	andeq	r0, r1, r0
     ba4:	00000057 	andeq	r0, r0, r7, asr r0
     ba8:	00000000 	andeq	r0, r0, r0
     bac:	3c000000 	stccc	0, cr0, [r0], {-0}
     bb0:	57000000 	strpl	r0, [r0, -r0]
     bb4:	01000000 	mrseq	r0, (UNDEF: 0)
     bb8:	00005200 	andeq	r5, r0, r0, lsl #4
     bbc:	00000000 	andeq	r0, r0, r0
     bc0:	00010000 	andeq	r0, r1, r0
     bc4:	0000003c 	andeq	r0, r0, ip, lsr r0
     bc8:	00000050 	andeq	r0, r0, r0, asr r0
     bcc:	00520001 	subseq	r0, r2, r1
     bd0:	00000000 	andeq	r0, r0, r0
     bd4:	03000000 	movweq	r0, #0
     bd8:	3c000000 	stccc	0, cr0, [r0], {-0}
     bdc:	48000000 	stmdami	r0, {}	; <UNPREDICTABLE>
     be0:	01000000 	mrseq	r0, (UNDEF: 0)
     be4:	00485300 	subeq	r5, r8, r0, lsl #6
     be8:	00500000 	subseq	r0, r0, r0
     bec:	00020000 	andeq	r0, r2, r0
     bf0:	00000070 	andeq	r0, r0, r0, ror r0
	...
     c00:	00000038 	andeq	r0, r0, r8, lsr r0
     c04:	00000048 	andeq	r0, r0, r8, asr #32
     c08:	00730009 	rsbseq	r0, r3, r9
     c0c:	ffffff0c 			; <UNDEFINED> instruction: 0xffffff0c
     c10:	489f1a00 	ldmmi	pc, {r9, fp, ip}	; <UNPREDICTABLE>
     c14:	4c000000 	stcmi	0, cr0, [r0], {-0}
     c18:	01000000 	mrseq	r0, (UNDEF: 0)
     c1c:	004c5300 	subeq	r5, ip, r0, lsl #6
     c20:	00500000 	subseq	r0, r0, r0
     c24:	000a0000 	andeq	r0, sl, r0
     c28:	0c060070 	stceq	0, cr0, [r6], {112}	; 0x70
     c2c:	00ffffff 	ldrshteq	pc, [pc], #255	; <UNPREDICTABLE>
     c30:	00009f1a 	andeq	r9, r0, sl, lsl pc
	...
     c40:	00000080 	andeq	r0, r0, r0, lsl #1
     c44:	00000088 	andeq	r0, r0, r8, lsl #1
     c48:	88500001 	ldmdahi	r0, {r0}^
     c4c:	94000000 	strls	r0, [r0], #-0
     c50:	03000000 	movweq	r0, #0
     c54:	9f047000 	svcls	0x00047000
     c58:	00000094 	muleq	r0, r4, r0
     c5c:	000000a0 	andeq	r0, r0, r0, lsr #1
     c60:	01f30004 	mvnseq	r0, r4
     c64:	00009f50 	andeq	r9, r0, r0, asr pc
	...
     c74:	00000084 	andeq	r0, r0, r4, lsl #1
     c78:	00000090 	muleq	r0, r0, r0
     c7c:	90530001 	subsls	r0, r3, r1
     c80:	94000000 	strls	r0, [r0], #-0
     c84:	02000000 	andeq	r0, r0, #0, 0
     c88:	94007000 	strls	r7, [r0], #-0
     c8c:	a0000000 	andge	r0, r0, r0
     c90:	05000000 	streq	r0, [r0, #-0]
     c94:	5001f300 	andpl	pc, r1, r0, lsl #6
     c98:	00001c34 	andeq	r1, r0, r4, lsr ip
     c9c:	00000000 	andeq	r0, r0, r0
     ca0:	00010000 	andeq	r0, r1, r0
     ca4:	00000000 	andeq	r0, r0, r0
     ca8:	0000008c 	andeq	r0, r0, ip, lsl #1
     cac:	00000090 	muleq	r0, r0, r0
     cb0:	00730009 	rsbseq	r0, r3, r9
     cb4:	ffffff0c 			; <UNDEFINED> instruction: 0xffffff0c
     cb8:	909f1a00 	addsls	r1, pc, r0, lsl #20
     cbc:	94000000 	strls	r0, [r0], #-0
     cc0:	0a000000 	beq	cc8 <__code_start__-0x7338>
     cc4:	06007000 	streq	r7, [r0], -r0
     cc8:	ffffff0c 			; <UNDEFINED> instruction: 0xffffff0c
     ccc:	949f1a00 	ldrls	r1, [pc], #2560	; cd4 <__code_start__-0x732c>
     cd0:	a0000000 	andge	r0, r0, r0
     cd4:	0d000000 	stceq	0, cr0, [r0, #-0]
     cd8:	5001f300 	andpl	pc, r1, r0, lsl #6
     cdc:	0c061c34 	stceq	12, cr1, [r6], {52}	; 0x34
     ce0:	00ffffff 	ldrshteq	pc, [pc], #255	; <UNPREDICTABLE>
     ce4:	00009f1a 	andeq	r9, r0, sl, lsl pc
	...
     cf4:	001c0000 	andseq	r0, ip, r0
     cf8:	00010000 	andeq	r0, r1, r0
     cfc:	00001c51 	andeq	r1, r0, r1, asr ip
     d00:	00007800 	andeq	r7, r0, r0, lsl #16
     d04:	f3000400 	vshl.u8	d0, d0, d0
     d08:	009f5101 	addseq	r5, pc, r1, lsl #2
	...
     d18:	58000000 	stmdapl	r0, {}	; <UNPREDICTABLE>
     d1c:	01000000 	mrseq	r0, (UNDEF: 0)
     d20:	00585200 	subseq	r5, r8, r0, lsl #4
     d24:	00780000 	rsbseq	r0, r8, r0
     d28:	00040000 	andeq	r0, r4, r0
     d2c:	9f5201f3 	svcls	0x005201f3
	...
     d38:	01000002 	tsteq	r0, r2
     d3c:	01000001 	tsteq	r0, r1
     d40:	01000001 	tsteq	r0, r1
     d44:	00000001 	andeq	r0, r0, r1
     d48:	00380000 	eorseq	r0, r8, r0
     d4c:	00010000 	andeq	r0, r1, r0
     d50:	00005450 	andeq	r5, r0, r0, asr r4
     d54:	00005400 	andeq	r5, r0, r0, lsl #8
     d58:	53000100 	movwpl	r0, #256	; 0x100
     d5c:	00000054 	andeq	r0, r0, r4, asr r0
     d60:	0000005c 	andeq	r0, r0, ip, asr r0
     d64:	01730003 	cmneq	r3, r3
     d68:	00005c9f 	muleq	r0, pc, ip	; <UNPREDICTABLE>
     d6c:	00006400 	andeq	r6, r0, r0, lsl #8
     d70:	52000100 	andpl	r0, r0, #0
     d74:	00000064 	andeq	r0, r0, r4, rrx
     d78:	00000068 	andeq	r0, r0, r8, rrx
     d7c:	02730003 	rsbseq	r0, r3, #3, 0
     d80:	0000689f 	muleq	r0, pc, r8	; <UNPREDICTABLE>
     d84:	00007400 	andeq	r7, r0, r0, lsl #8
     d88:	52000100 	andpl	r0, r0, #0
     d8c:	00000074 	andeq	r0, r0, r4, ror r0
     d90:	00000078 	andeq	r0, r0, r8, ror r0
     d94:	01720003 	cmneq	r2, r3
     d98:	0000009f 	muleq	r0, pc, r0	; <UNPREDICTABLE>
     d9c:	00000000 	andeq	r0, r0, r0
     da0:	08000000 	stmdaeq	r0, {}	; <UNPREDICTABLE>
     da4:	78000000 	stmdavc	r0, {}	; <UNPREDICTABLE>
     da8:	01000000 	mrseq	r0, (UNDEF: 0)
     dac:	00005400 	andeq	r5, r0, r0, lsl #8
	...
     dbc:	0000002c 	andeq	r0, r0, ip, lsr #32
     dc0:	00000034 	andeq	r0, r0, r4, lsr r0
     dc4:	34500001 	ldrbcc	r0, [r0], #-1
     dc8:	48000000 	stmdami	r0, {}	; <UNPREDICTABLE>
     dcc:	01000000 	mrseq	r0, (UNDEF: 0)
     dd0:	00485400 	subeq	r5, r8, r0, lsl #8
     dd4:	00580000 	subseq	r0, r8, r0
     dd8:	00010000 	andeq	r0, r1, r0
     ddc:	00000050 	andeq	r0, r0, r0, asr r0
	...
     de8:	00000101 	andeq	r0, r0, r1, lsl #2
     dec:	00000000 	andeq	r0, r0, r0
     df0:	00000c00 	andeq	r0, r0, r0, lsl #24
     df4:	50000100 	andpl	r0, r0, r0, lsl #2
     df8:	0000000c 	andeq	r0, r0, ip
     dfc:	00000020 	andeq	r0, r0, r0, lsr #32
     e00:	20540001 	subscs	r0, r4, r1
     e04:	24000000 	strcs	r0, [r0], #-0
     e08:	03000000 	movweq	r0, #0
     e0c:	9f017400 	svcls	0x00017400
     e10:	00000024 	andeq	r0, r0, r4, lsr #32
     e14:	00000038 	andeq	r0, r0, r8, lsr r0
     e18:	00540001 	subseq	r0, r4, r1
	...
     e2c:	00038800 	andeq	r8, r3, r0, lsl #16
     e30:	00039400 	andeq	r9, r3, r0, lsl #8
     e34:	50000100 	andpl	r0, r0, r0, lsl #2
     e38:	00000394 	muleq	r0, r4, r3
     e3c:	000003d0 	ldrdeq	r0, [r0], -r0	; <UNPREDICTABLE>
     e40:	d05b0001 	subsle	r0, fp, r1
     e44:	20000003 	andcs	r0, r0, r3
     e48:	04000009 	streq	r0, [r0], #-9
     e4c:	5001f300 	andpl	pc, r1, r0, lsl #6
     e50:	0009209f 	muleq	r9, pc, r0	; <UNPREDICTABLE>
     e54:	00092800 	andeq	r2, r9, r0, lsl #16
     e58:	5b000100 	blpl	1260 <__code_start__-0x6da0>
     e5c:	00000928 	andeq	r0, r0, r8, lsr #18
     e60:	000009b4 			; <UNDEFINED> instruction: 0x000009b4
     e64:	01f30004 	mvnseq	r0, r4
     e68:	00009f50 	andeq	r9, r0, r0, asr pc
	...
     e78:	03880000 	orreq	r0, r8, #0, 0
     e7c:	03d00000 	bicseq	r0, r0, #0, 0
     e80:	00010000 	andeq	r0, r1, r0
     e84:	0003d051 	andeq	sp, r3, r1, asr r0
     e88:	00092000 	andeq	r2, r9, r0
     e8c:	f3000400 	vshl.u8	d0, d0, d0
     e90:	209f5101 	addscs	r5, pc, r1, lsl #2
     e94:	28000009 	stmdacs	r0, {r0, r3}
     e98:	01000009 	tsteq	r0, r9
     e9c:	09285100 	stmdbeq	r8!, {r8, ip, lr}
     ea0:	09b40000 	ldmibeq	r4!, {}	; <UNPREDICTABLE>
     ea4:	00040000 	andeq	r0, r4, r0
     ea8:	9f5101f3 	svcls	0x005101f3
	...
     eb8:	01000000 	mrseq	r0, (UNDEF: 0)
     ebc:	00010000 	andeq	r0, r1, r0
	...
     ecc:	00000388 	andeq	r0, r0, r8, lsl #7
     ed0:	000003d0 	ldrdeq	r0, [r0], -r0	; <UNPREDICTABLE>
     ed4:	d0520001 	subsle	r0, r2, r1
     ed8:	00000003 	andeq	r0, r0, r3
     edc:	01000004 	tsteq	r0, r4
     ee0:	04145600 	ldreq	r5, [r4], #-1536	; 0xfffffa00
     ee4:	04240000 	strteq	r0, [r4], #-0
     ee8:	00010000 	andeq	r0, r1, r0
     eec:	00042456 	andeq	r2, r4, r6, asr r4
     ef0:	00042800 	andeq	r2, r4, r0, lsl #16
     ef4:	76000300 	strvc	r0, [r0], -r0, lsl #6
     ef8:	04a89f7f 	strteq	r9, [r8], #3967	; 0xf7f
     efc:	04ac0000 	strteq	r0, [ip], #0
     f00:	00010000 	andeq	r0, r1, r0
     f04:	0004e056 	andeq	lr, r4, r6, asr r0
     f08:	00050400 	andeq	r0, r5, r0, lsl #8
     f0c:	56000100 	strpl	r0, [r0], -r0, lsl #2
     f10:	0000057c 	andeq	r0, r0, ip, ror r5
     f14:	00000588 	andeq	r0, r0, r8, lsl #11
     f18:	88530001 	ldmdahi	r3, {r0}^
     f1c:	d0000005 	andle	r0, r0, r5
     f20:	03000005 	movweq	r0, #5
     f24:	7dcc9100 	stfvcp	f1, [ip]
     f28:	00000800 	andeq	r0, r0, r0, lsl #16
     f2c:	0000080f 	andeq	r0, r0, pc, lsl #16
     f30:	0f530001 	svceq	0x00530001
     f34:	88000008 	stmdahi	r0, {r3}
     f38:	03000008 	movweq	r0, #8
     f3c:	7dcc9100 	stfvcp	f1, [ip]
     f40:	00000920 	andeq	r0, r0, r0, lsr #18
     f44:	00000928 	andeq	r0, r0, r8, lsr #18
     f48:	48520001 	ldmdami	r2, {r0}^
     f4c:	64000009 	strvs	r0, [r0], #-9
     f50:	03000009 	movweq	r0, #9
     f54:	7dcc9100 	stfvcp	f1, [ip]
	...
     f68:	00010100 	andeq	r0, r1, r0, lsl #2
     f6c:	00010100 	andeq	r0, r1, r0, lsl #2
     f70:	02000000 	andeq	r0, r0, #0, 0
     f74:	02000002 	andeq	r0, r0, #2, 0
     f78:	01000002 	tsteq	r0, r2
     f7c:	02000001 	andeq	r0, r0, #1, 0
     f80:	01000002 	tsteq	r0, r2
     f84:	00000001 	andeq	r0, r0, r1
     f88:	00000000 	andeq	r0, r0, r0
     f8c:	03880000 	orreq	r0, r8, #0, 0
     f90:	03ac0000 			; <UNDEFINED> instruction: 0x03ac0000
     f94:	00010000 	andeq	r0, r1, r0
     f98:	0003ac53 	andeq	sl, r3, r3, asr ip
     f9c:	0003c000 	andeq	ip, r3, r0
     fa0:	53000300 	movwpl	r0, #768	; 0x300
     fa4:	03d00493 	bicseq	r0, r0, #-1828716544	; 0x93000000
     fa8:	03e80000 	mvneq	r0, #0, 0
     fac:	00030000 	andeq	r0, r3, r0
     fb0:	e8049358 	stmda	r4, {r3, r4, r6, r8, r9, ip, pc}
     fb4:	ac000003 	stcge	0, cr0, [r0], {3}
     fb8:	03000004 	movweq	r0, #4
     fbc:	04935800 	ldreq	r5, [r3], #2048	; 0x800
     fc0:	000004c0 	andeq	r0, r0, r0, asr #9
     fc4:	000004c0 	andeq	r0, r0, r0, asr #9
     fc8:	93580003 	cmpls	r8, #3, 0
     fcc:	0004c004 	andeq	ip, r4, r4
     fd0:	0004cc00 	andeq	ip, r4, r0, lsl #24
     fd4:	78000500 	stmdavc	r0, {r8, sl}
     fd8:	04939f04 	ldreq	r9, [r3], #3844	; 0xf04
     fdc:	000004cc 	andeq	r0, r0, ip, asr #9
     fe0:	000004e0 	andeq	r0, r0, r0, ror #9
     fe4:	93580003 	cmpls	r8, #3, 0
     fe8:	0004e004 	andeq	lr, r4, r4
     fec:	00053800 	andeq	r3, r5, r0, lsl #16
     ff0:	58000300 	stmdapl	r0, {r8, r9}
     ff4:	05380493 	ldreq	r0, [r8, #-1171]!	; 0xfffffb6d
     ff8:	053c0000 	ldreq	r0, [ip, #-0]!
     ffc:	00050000 	andeq	r0, r5, r0
    1000:	939f7978 	orrsls	r7, pc, #120, 18	; 0x1e0000
    1004:	0005d004 	andeq	sp, r5, r4
    1008:	0005d000 	andeq	sp, r5, r0
    100c:	58000300 	stmdapl	r0, {r8, r9}
    1010:	05d00493 	ldrbeq	r0, [r0, #1171]	; 0x493
    1014:	05d40000 	ldrbeq	r0, [r4]
    1018:	00050000 	andeq	r0, r5, r0
    101c:	939f0478 	orrsls	r0, pc, #120, 8	; 0x78000000
    1020:	0005f404 	andeq	pc, r5, r4, lsl #8
    1024:	0005f400 	andeq	pc, r5, r0, lsl #8
    1028:	58000300 	stmdapl	r0, {r8, r9}
    102c:	05f40493 	ldrbeq	r0, [r4, #1171]!	; 0x493
    1030:	05fc0000 	ldrbeq	r0, [ip, #0]!
    1034:	00050000 	andeq	r0, r5, r0
    1038:	939f0478 	orrsls	r0, pc, #120, 8	; 0x78000000
    103c:	0005fc04 	andeq	pc, r5, r4, lsl #24
    1040:	0005fc00 	andeq	pc, r5, r0, lsl #24
    1044:	58000300 	stmdapl	r0, {r8, r9}
    1048:	05fc0493 	ldrbeq	r0, [ip, #1171]!	; 0x493
    104c:	06000000 	streq	r0, [r0], -r0
    1050:	00050000 	andeq	r0, r5, r0
    1054:	939f0478 	orrsls	r0, pc, #120, 8	; 0x78000000
    1058:	00060004 	andeq	r0, r6, r4
    105c:	00070000 	andeq	r0, r7, r0
    1060:	58000300 	stmdapl	r0, {r8, r9}
    1064:	07000493 			; <UNDEFINED> instruction: 0x07000493
    1068:	070c0000 	streq	r0, [ip, -r0]
    106c:	00050000 	andeq	r0, r5, r0
    1070:	939f0478 	orrsls	r0, pc, #120, 8	; 0x78000000
    1074:	00070c04 	andeq	r0, r7, r4, lsl #24
    1078:	0007f800 	andeq	pc, r7, r0, lsl #16
    107c:	58000300 	stmdapl	r0, {r8, r9}
    1080:	07f80493 			; <UNDEFINED> instruction: 0x07f80493
    1084:	07fc0000 	ldrbeq	r0, [ip, r0]!
    1088:	00050000 	andeq	r0, r5, r0
    108c:	939f0478 	orrsls	r0, pc, #120, 8	; 0x78000000
    1090:	0007fc04 	andeq	pc, r7, r4, lsl #24
    1094:	00080000 	andeq	r0, r8, r0
    1098:	58000300 	stmdapl	r0, {r8, r9}
    109c:	08880493 	stmeq	r8, {r0, r1, r4, r7, sl}
    10a0:	09200000 	stmdbeq	r0!, {}	; <UNPREDICTABLE>
    10a4:	00030000 	andeq	r0, r3, r0
    10a8:	20049358 	andcs	r9, r4, r8, asr r3
    10ac:	28000009 	stmdacs	r0, {r0, r3}
    10b0:	01000009 	tsteq	r0, r9
    10b4:	09645300 	stmdbeq	r4!, {r8, r9, ip, lr}^
    10b8:	09b40000 	ldmibeq	r4!, {}	; <UNPREDICTABLE>
    10bc:	00030000 	andeq	r0, r3, r0
    10c0:	00049358 	andeq	r9, r4, r8, asr r3
    10c4:	00000000 	andeq	r0, r0, r0
    10c8:	01000000 	mrseq	r0, (UNDEF: 0)
	...
    10d4:	00000202 	andeq	r0, r0, r2, lsl #4
    10d8:	01010100 	mrseq	r0, (UNDEF: 17)
    10dc:	00000000 	andeq	r0, r0, r0
    10e0:	0003ac00 	andeq	sl, r3, r0, lsl #24
    10e4:	0003d000 	andeq	sp, r3, r0
    10e8:	5b000100 	blpl	14f0 <__code_start__-0x6b10>
    10ec:	000003d0 	ldrdeq	r0, [r0], -r0	; <UNPREDICTABLE>
    10f0:	000003d4 	ldrdeq	r0, [r0], -r4
    10f4:	d4540001 	ldrble	r0, [r4], #-1
    10f8:	d8000003 	stmdale	r0, {r0, r1}
    10fc:	03000003 	movweq	r0, #3
    1100:	9f7f7400 	svcls	0x007f7400
    1104:	000003d8 	ldrdeq	r0, [r0], -r8
    1108:	000003fc 	strdeq	r0, [r0], -ip
    110c:	a8540001 	ldmdage	r4, {r0}^
    1110:	ac000004 	stcge	0, cr0, [r0], {4}
    1114:	01000004 	tsteq	r0, r4
    1118:	04ac5400 	strteq	r5, [ip], #1024	; 0x400
    111c:	04b40000 	ldrteq	r0, [r4], #0
    1120:	00030000 	andeq	r0, r3, r0
    1124:	b49f0174 	ldrlt	r0, [pc], #372	; 112c <__code_start__-0x6ed4>
    1128:	c0000004 	andgt	r0, r0, r4
    112c:	01000004 	tsteq	r0, r4
    1130:	04e45400 	strbteq	r5, [r4], #1024	; 0x400
    1134:	04f40000 	ldrbteq	r0, [r4], #0
    1138:	00010000 	andeq	r0, r1, r0
    113c:	0004f454 	andeq	pc, r4, r4, asr r4	; <UNPREDICTABLE>
    1140:	0004f800 	andeq	pc, r4, r0, lsl #16
    1144:	74000300 	strvc	r0, [r0], #-768	; 0xfffffd00
    1148:	04f89f01 	ldrbteq	r9, [r8], #3841	; 0xf01
    114c:	05040000 	streq	r0, [r4, #-0]
    1150:	00010000 	andeq	r0, r1, r0
    1154:	00092054 	andeq	r2, r9, r4, asr r0
    1158:	00092800 	andeq	r2, r9, r0, lsl #16
    115c:	5b000100 	blpl	1564 <__code_start__-0x6a9c>
	...
    1168:	03ac0001 			; <UNDEFINED> instruction: 0x03ac0001
    116c:	09b40000 	ldmibeq	r4!, {}	; <UNPREDICTABLE>
    1170:	00010000 	andeq	r0, r1, r0
    1174:	00000057 	andeq	r0, r0, r7, asr r0
    1178:	00000000 	andeq	r0, r0, r0
    117c:	00000200 	andeq	r0, r0, r0, lsl #4
    1180:	7c000000 	stcvc	0, cr0, [r0], {-0}
    1184:	d0000005 	andle	r0, r0, r5
    1188:	01000005 	tsteq	r0, r5
    118c:	08005b00 	stmdaeq	r0, {r8, r9, fp, ip, lr}
    1190:	08880000 	stmeq	r8, {}	; <UNPREDICTABLE>
    1194:	00010000 	andeq	r0, r1, r0
    1198:	0009485b 	andeq	r4, r9, fp, asr r8
    119c:	00096400 	andeq	r6, r9, r0, lsl #8
    11a0:	5b000100 	blpl	15a8 <__code_start__-0x6a58>
	...
    11ac:	00000003 	andeq	r0, r0, r3
    11b0:	057c0000 	ldrbeq	r0, [ip, #-0]!
    11b4:	05d00000 	ldrbeq	r0, [r0]
    11b8:	00010000 	andeq	r0, r1, r0
    11bc:	00080059 	andeq	r0, r8, r9, asr r0
    11c0:	00088800 	andeq	r8, r8, r0, lsl #16
    11c4:	59000100 	stmdbpl	r0, {r8}
    11c8:	00000948 	andeq	r0, r0, r8, asr #18
    11cc:	00000964 	andeq	r0, r0, r4, ror #18
    11d0:	00590001 	subseq	r0, r9, r1
    11d4:	00000000 	andeq	r0, r0, r0
    11d8:	04000000 	streq	r0, [r0], #-0
    11dc:	00000000 	andeq	r0, r0, r0
    11e0:	ac000000 	stcge	0, cr0, [r0], {-0}
    11e4:	d0000003 	andle	r0, r0, r3
    11e8:	01000003 	tsteq	r0, r3
    11ec:	03d05200 	bicseq	r5, r0, #0, 4
    11f0:	09200000 	stmdbeq	r0!, {}	; <UNPREDICTABLE>
    11f4:	00040000 	andeq	r0, r4, r0
    11f8:	9f5201f3 	svcls	0x005201f3
    11fc:	00000920 	andeq	r0, r0, r0, lsr #18
    1200:	00000928 	andeq	r0, r0, r8, lsr #18
    1204:	28520001 	ldmdacs	r2, {r0}^
    1208:	b4000009 	strlt	r0, [r0], #-9
    120c:	04000009 	streq	r0, [r0], #-9
    1210:	5201f300 	andpl	pc, r1, #0, 6
    1214:	0000009f 	muleq	r0, pc, r0	; <UNPREDICTABLE>
    1218:	00000000 	andeq	r0, r0, r0
    121c:	01010000 	mrseq	r0, (UNDEF: 1)
    1220:	00000000 	andeq	r0, r0, r0
    1224:	00000100 	andeq	r0, r0, r0, lsl #2
    1228:	0004e000 	andeq	lr, r4, r0
    122c:	0004e000 	andeq	lr, r4, r0
    1230:	50000100 	andpl	r0, r0, r0, lsl #2
    1234:	000004e0 	andeq	r0, r0, r0, ror #9
    1238:	000004e8 	andeq	r0, r0, r8, ror #9
    123c:	b8550001 	ldmdalt	r5, {r0}^
    1240:	d0000005 	andle	r0, r0, r5
    1244:	01000005 	tsteq	r0, r5
    1248:	05f05500 	ldrbeq	r5, [r0, #1280]!	; 0x500
    124c:	05f40000 	ldrbeq	r0, [r4, #0]!
    1250:	00010000 	andeq	r0, r1, r0
    1254:	0007f450 	andeq	pc, r7, r0, asr r4	; <UNPREDICTABLE>
    1258:	0007f800 	andeq	pc, r7, r0, lsl #16
    125c:	55000100 	strpl	r0, [r0, #-256]	; 0xffffff00
    1260:	00000850 	andeq	r0, r0, r0, asr r8
    1264:	00000888 	andeq	r0, r0, r8, lsl #17
    1268:	00550001 	subseq	r0, r5, r1
    126c:	00000000 	andeq	r0, r0, r0
    1270:	02000000 	andeq	r0, r0, #0, 0
    1274:	00000000 	andeq	r0, r0, r0
    1278:	14000000 	strne	r0, [r0], #-0
    127c:	18000004 	stmdane	r0, {r2}
    1280:	02000004 	andeq	r0, r0, #4, 0
    1284:	189f3000 	ldmne	pc, {ip, sp}	; <UNPREDICTABLE>
    1288:	1c000004 	stcne	0, cr0, [r0], {4}
    128c:	01000004 	tsteq	r0, r4
    1290:	04285500 	strteq	r5, [r8], #-1280	; 0xfffffb00
    1294:	043c0000 	ldrteq	r0, [ip], #-0
    1298:	00010000 	andeq	r0, r1, r0
    129c:	00092855 	andeq	r2, r9, r5, asr r8
    12a0:	00093000 	andeq	r3, r9, r0
    12a4:	55000100 	strpl	r0, [r0, #-256]	; 0xffffff00
	...
    12b0:	00000001 	andeq	r0, r0, r1
	...
    12bc:	00000504 	andeq	r0, r0, r4, lsl #10
    12c0:	00000584 	andeq	r0, r0, r4, lsl #11
    12c4:	84560001 	ldrbhi	r0, [r6], #-1
    12c8:	88000005 	stmdahi	r0, {r0, r2}
    12cc:	03000005 	movweq	r0, #5
    12d0:	9f7e7300 	svcls	0x007e7300
    12d4:	00000588 	andeq	r0, r0, r8, lsl #11
    12d8:	000005d0 	ldrdeq	r0, [r0], -r0	; <UNPREDICTABLE>
    12dc:	cc910007 	ldcgt	0, cr0, [r1], {7}
    12e0:	1c32067d 	ldcne	6, cr0, [r2], #-500	; 0xfffffe0c
    12e4:	0008009f 	muleq	r8, pc, r0	; <UNPREDICTABLE>
    12e8:	00081c00 	andeq	r1, r8, r0, lsl #24
    12ec:	56000100 	strpl	r0, [r0], -r0, lsl #2
    12f0:	0000081c 	andeq	r0, r0, ip, lsl r8
    12f4:	00000888 	andeq	r0, r0, r8, lsl #17
    12f8:	cc910007 	ldcgt	0, cr0, [r1], {7}
    12fc:	1c32067d 	ldcne	6, cr0, [r2], #-500	; 0xfffffe0c
    1300:	0009489f 	muleq	r9, pc, r8	; <UNPREDICTABLE>
    1304:	0009b400 	andeq	fp, r9, r0, lsl #8
    1308:	56000100 	strpl	r0, [r0], -r0, lsl #2
	...
    1314:	04020604 	streq	r0, [r2], #-1540	; 0xfffff9fc
    1318:	00000414 	andeq	r0, r0, r4, lsl r4
    131c:	00000414 	andeq	r0, r0, r4, lsl r4
    1320:	00720006 	rsbseq	r0, r2, r6
    1324:	9f1aff08 	svcls	0x001aff08
    1328:	00000428 	andeq	r0, r0, r8, lsr #8
    132c:	00000428 	andeq	r0, r0, r8, lsr #8
    1330:	00720006 	rsbseq	r0, r2, r6
    1334:	9f1aff08 	svcls	0x001aff08
	...
    1340:	00000002 	andeq	r0, r0, r2
    1344:	05fc0000 	ldrbeq	r0, [ip, #0]!
    1348:	07000000 	streq	r0, [r0, -r0]
    134c:	00030000 	andeq	r0, r3, r0
    1350:	a89f8008 	ldmge	pc, {r3, pc}	; <UNPREDICTABLE>
    1354:	bc000008 	stclt	0, cr0, [r0], {8}
    1358:	03000008 	movweq	r0, #8
    135c:	9f800800 	svcls	0x00800800
    1360:	00000910 	andeq	r0, r0, r0, lsl r9
    1364:	00000920 	andeq	r0, r0, r0, lsr #18
    1368:	80080003 	andhi	r0, r8, r3
    136c:	0000009f 	muleq	r0, pc, r0	; <UNPREDICTABLE>
    1370:	00000000 	andeq	r0, r0, r0
    1374:	00000100 	andeq	r0, r0, r0, lsl #2
    1378:	fc000000 	stc2	0, cr0, [r0], {-0}
    137c:	00000005 	andeq	r0, r0, r5
    1380:	02000007 	andeq	r0, r0, #7, 0
    1384:	a89f3000 	ldmge	pc, {ip, sp}	; <UNPREDICTABLE>
    1388:	bc000008 	stclt	0, cr0, [r0], {8}
    138c:	02000008 	andeq	r0, r0, #8, 0
    1390:	109f3000 	addsne	r3, pc, r0
    1394:	20000009 	andcs	r0, r0, r9
    1398:	02000009 	andeq	r0, r0, #9, 0
    139c:	009f3000 	addseq	r3, pc, r0
    13a0:	00000000 	andeq	r0, r0, r0
    13a4:	01000000 	mrseq	r0, (UNDEF: 0)
    13a8:	00000000 	andeq	r0, r0, r0
    13ac:	0005fc00 	andeq	pc, r5, r0, lsl #24
    13b0:	0006e000 	andeq	lr, r6, r0
    13b4:	55000100 	strpl	r0, [r0, #-256]	; 0xffffff00
    13b8:	000008a8 	andeq	r0, r0, r8, lsr #17
    13bc:	000008bc 			; <UNDEFINED> instruction: 0x000008bc
    13c0:	10550001 	subsne	r0, r5, r1
    13c4:	20000009 	andcs	r0, r0, r9
    13c8:	01000009 	tsteq	r0, r9
    13cc:	00005500 	andeq	r5, r0, r0, lsl #10
    13d0:	00000000 	andeq	r0, r0, r0
    13d4:	00010000 	andeq	r0, r1, r0
    13d8:	00000000 	andeq	r0, r0, r0
    13dc:	05fc0000 	ldrbeq	r0, [ip, #0]!
    13e0:	06e00000 	strbteq	r0, [r0], r0
    13e4:	00040000 	andeq	r0, r4, r0
    13e8:	9f7dd091 	svcls	0x007dd091
    13ec:	000006e0 	andeq	r0, r0, r0, ror #13
    13f0:	00000700 	andeq	r0, r0, r0, lsl #14
    13f4:	a8550001 	ldmdage	r5, {r0}^
    13f8:	bc000008 	stclt	0, cr0, [r0], {8}
    13fc:	04000008 	streq	r0, [r0], #-8
    1400:	7dd09100 	ldfvcp	f1, [r0]
    1404:	0009109f 	muleq	r9, pc, r0	; <UNPREDICTABLE>
    1408:	00092000 	andeq	r2, r9, r0
    140c:	91000400 	tstls	r0, r0, lsl #8
    1410:	009f7dd0 			; <UNDEFINED> instruction: 0x009f7dd0
    1414:	00000000 	andeq	r0, r0, r0
    1418:	01000000 	mrseq	r0, (UNDEF: 0)
    141c:	00000000 	andeq	r0, r0, r0
    1420:	0005fc00 	andeq	pc, r5, r0, lsl #24
    1424:	00070000 	andeq	r0, r7, r0
    1428:	38000200 	stmdacc	r0, {r9}
    142c:	0008a89f 	muleq	r8, pc, r8	; <UNPREDICTABLE>
    1430:	0008bc00 	andeq	fp, r8, r0, lsl #24
    1434:	38000200 	stmdacc	r0, {r9}
    1438:	0009109f 	muleq	r9, pc, r0	; <UNPREDICTABLE>
    143c:	00092000 	andeq	r2, r9, r0
    1440:	38000200 	stmdacc	r0, {r9}
    1444:	0000009f 	muleq	r0, pc, r0	; <UNPREDICTABLE>
    1448:	00000000 	andeq	r0, r0, r0
    144c:	07070400 	streq	r0, [r7, -r0, lsl #8]
	...
    1458:	fc000000 	stc2	0, cr0, [r0], {-0}
    145c:	fc000005 	stc2	0, cr0, [r0], {5}
    1460:	04000005 	streq	r0, [r0], #-5
    1464:	7ed09100 	atnvcs	f1, f0
    1468:	0005fc9f 	muleq	r5, pc, ip	; <UNPREDICTABLE>
    146c:	00067800 	andeq	r7, r6, r0, lsl #16
    1470:	91000400 	tstls	r0, r0, lsl #8
    1474:	789f7ed1 	ldmvc	pc, {r0, r4, r6, r7, r9, sl, fp, ip, sp, lr}	; <UNPREDICTABLE>
    1478:	d4000006 	strle	r0, [r0], #-6
    147c:	01000006 	tsteq	r0, r6
    1480:	06d45c00 	ldrbeq	r5, [r4], r0, lsl #24
    1484:	07000000 	streq	r0, [r0, -r0]
    1488:	00040000 	andeq	r0, r4, r0
    148c:	9f7ed191 	svcls	0x007ed191
    1490:	000008a8 	andeq	r0, r0, r8, lsr #17
    1494:	000008bc 			; <UNDEFINED> instruction: 0x000008bc
    1498:	d1910004 	orrsle	r0, r1, r4
    149c:	09109f7e 	ldmdbeq	r0, {r1, r2, r3, r4, r5, r6, r8, r9, sl, fp, ip, pc}
    14a0:	09140000 	ldmdbeq	r4, {}	; <UNPREDICTABLE>
    14a4:	00040000 	andeq	r0, r4, r0
    14a8:	9f7ed191 	svcls	0x007ed191
    14ac:	00000914 	andeq	r0, r0, r4, lsl r9
    14b0:	00000920 	andeq	r0, r0, r0, lsr #18
    14b4:	005c0001 	subseq	r0, ip, r1
    14b8:	00000000 	andeq	r0, r0, r0
    14bc:	04000000 	streq	r0, [r0], #-0
    14c0:	00010001 	andeq	r0, r1, r1
    14c4:	00060800 	andeq	r0, r6, r0, lsl #16
    14c8:	0006d000 	andeq	sp, r6, r0
    14cc:	55000100 	strpl	r0, [r0, #-256]	; 0xffffff00
    14d0:	000008a8 	andeq	r0, r0, r8, lsr #17
    14d4:	000008b8 			; <UNDEFINED> instruction: 0x000008b8
    14d8:	10550001 	subsne	r0, r5, r1
    14dc:	20000009 	andcs	r0, r0, r9
    14e0:	01000009 	tsteq	r0, r9
    14e4:	00005500 	andeq	r5, r0, r0, lsl #10
    14e8:	00000000 	andeq	r0, r0, r0
    14ec:	00040000 	andeq	r0, r4, r0
    14f0:	01000000 	mrseq	r0, (UNDEF: 0)
    14f4:	01000000 	mrseq	r0, (UNDEF: 0)
    14f8:	06080000 	streq	r0, [r8], -r0
    14fc:	06b00000 	ldrteq	r0, [r0], r0
    1500:	00040000 	andeq	r0, r4, r0
    1504:	9f7ed091 	svcls	0x007ed091
    1508:	000006b0 			; <UNDEFINED> instruction: 0x000006b0
    150c:	000006c8 	andeq	r0, r0, r8, asr #13
    1510:	c8500001 	ldmdagt	r0, {r0}^
    1514:	d0000006 	andle	r0, r0, r6
    1518:	04000006 	streq	r0, [r0], #-6
    151c:	7ed09100 	atnvcs	f1, f0
    1520:	0008a89f 	muleq	r8, pc, r8	; <UNPREDICTABLE>
    1524:	0008b000 	andeq	fp, r8, r0
    1528:	91000400 	tstls	r0, r0, lsl #8
    152c:	b09f7ed0 			; <UNDEFINED> instruction: 0xb09f7ed0
    1530:	b8000008 	stmdalt	r0, {r3}
    1534:	01000008 	tsteq	r0, r8
    1538:	09105300 	ldmdbeq	r0, {r8, r9, ip, lr}
    153c:	09200000 	stmdbeq	r0!, {}	; <UNPREDICTABLE>
    1540:	00040000 	andeq	r0, r4, r0
    1544:	9f7ed091 	svcls	0x007ed091
	...
    1550:	01000004 	tsteq	r0, r4
    1554:	03010101 	movweq	r0, #4353	; 0x1101
    1558:	01000203 	tsteq	r0, r3, lsl #4
    155c:	00000000 	andeq	r0, r0, r0
    1560:	00000608 	andeq	r0, r0, r8, lsl #12
    1564:	00000624 	andeq	r0, r0, r4, lsr #12
    1568:	d1910004 	orrsle	r0, r1, r4
    156c:	06849f7e 			; <UNDEFINED> instruction: 0x06849f7e
    1570:	06840000 	streq	r0, [r4], r0
    1574:	00010000 	andeq	r0, r1, r0
    1578:	00068450 	andeq	r8, r6, r0, asr r4
    157c:	00069800 	andeq	r9, r6, r0, lsl #16
    1580:	70000300 	andvc	r0, r0, r0, lsl #6
    1584:	06989f01 	ldreq	r9, [r8], r1, lsl #30
    1588:	06a40000 	strteq	r0, [r4], r0
    158c:	00030000 	andeq	r0, r3, r0
    1590:	a49f0270 	ldrge	r0, [pc], #624	; 1598 <__code_start__-0x6a68>
    1594:	a8000006 	stmdage	r0, {r1, r2}
    1598:	03000006 	movweq	r0, #6
    159c:	9f037000 	svcls	0x00037000
    15a0:	000008a8 	andeq	r0, r0, r8, lsr #17
    15a4:	000008b8 			; <UNDEFINED> instruction: 0x000008b8
    15a8:	d1910004 	orrsle	r0, r1, r4
    15ac:	09109f7e 	ldmdbeq	r0, {r1, r2, r3, r4, r5, r6, r8, r9, sl, fp, ip, pc}
    15b0:	09140000 	ldmdbeq	r4, {}	; <UNPREDICTABLE>
    15b4:	00040000 	andeq	r0, r4, r0
    15b8:	9f7ed191 	svcls	0x007ed191
    15bc:	00000914 	andeq	r0, r0, r4, lsl r9
    15c0:	00000920 	andeq	r0, r0, r0, lsr #18
    15c4:	005c0001 	subseq	r0, ip, r1
    15c8:	00000000 	andeq	r0, r0, r0
    15cc:	06000000 	streq	r0, [r0], -r0
    15d0:	01010000 	mrseq	r0, (UNDEF: 1)
    15d4:	01010101 	tsteq	r1, r1, lsl #2
    15d8:	00010002 	andeq	r0, r1, r2
    15dc:	00060800 	andeq	r0, r6, r0, lsl #16
    15e0:	00062400 	andeq	r2, r6, r0, lsl #8
    15e4:	31000200 	mrscc	r0, R8_usr
    15e8:	0006849f 	muleq	r6, pc, r4	; <UNPREDICTABLE>
    15ec:	00069400 	andeq	r9, r6, r0, lsl #8
    15f0:	52000100 	andpl	r0, r0, #0
    15f4:	00000694 	muleq	r0, r4, r6
    15f8:	000006a4 	andeq	r0, r0, r4, lsr #13
    15fc:	a4590001 	ldrbge	r0, [r9], #-1
    1600:	a8000006 	stmdage	r0, {r1, r2}
    1604:	01000006 	tsteq	r0, r6
    1608:	06a85200 	strteq	r5, [r8], r0, lsl #4
    160c:	06a80000 	strteq	r0, [r8], r0
    1610:	00030000 	andeq	r0, r3, r0
    1614:	a89f0172 	ldmge	pc, {r1, r4, r5, r6, r8}	; <UNPREDICTABLE>
    1618:	b8000008 	stmdalt	r0, {r3}
    161c:	02000008 	andeq	r0, r0, #8, 0
    1620:	109f3100 	addsne	r3, pc, r0, lsl #2
    1624:	20000009 	andcs	r0, r0, r9
    1628:	02000009 	andeq	r0, r0, #9, 0
    162c:	009f3100 	addseq	r3, pc, r0, lsl #2
    1630:	00000000 	andeq	r0, r0, r0
    1634:	01000000 	mrseq	r0, (UNDEF: 0)
    1638:	01000606 	tsteq	r0, r6, lsl #12
    163c:	0006d000 	andeq	sp, r6, r0
    1640:	0006d000 	andeq	sp, r6, r0
    1644:	91000400 	tstls	r0, r0, lsl #8
    1648:	d09f7ed0 			; <UNDEFINED> instruction: 0xd09f7ed0
    164c:	00000006 	andeq	r0, r0, r6
    1650:	01000007 	tsteq	r0, r7
    1654:	08b85000 	ldmeq	r8!, {ip, lr}
    1658:	08bc0000 	ldmeq	ip!, {}	; <UNPREDICTABLE>
    165c:	00010000 	andeq	r0, r1, r0
    1660:	00000053 	andeq	r0, r0, r3, asr r0
    1664:	00000000 	andeq	r0, r0, r0
    1668:	00080100 	andeq	r0, r8, r0, lsl #2
    166c:	01010000 	mrseq	r0, (UNDEF: 1)
    1670:	d0070100 	andle	r0, r7, r0, lsl #2
    1674:	d0000006 	andle	r0, r0, r6
    1678:	06000006 	streq	r0, [r0], -r6
    167c:	71007c00 	tstvc	r0, r0, lsl #24
    1680:	e49f2200 	ldr	r2, [pc], #512	; 1688 <__code_start__-0x6978>
    1684:	e8000006 	stmda	r0, {r1, r2}
    1688:	03000006 	movweq	r0, #6
    168c:	9f7f7300 	svcls	0x007f7300
    1690:	000006e8 	andeq	r0, r0, r8, ror #13
    1694:	000006f0 	strdeq	r0, [r0], -r0	; <UNPREDICTABLE>
    1698:	f0530001 			; <UNDEFINED> instruction: 0xf0530001
    169c:	f8000006 			; <UNDEFINED> instruction: 0xf8000006
    16a0:	03000006 	movweq	r0, #6
    16a4:	9f7f7300 	svcls	0x007f7300
    16a8:	000008b8 			; <UNDEFINED> instruction: 0x000008b8
    16ac:	000008b8 			; <UNDEFINED> instruction: 0x000008b8
    16b0:	d1910004 	orrsle	r0, r1, r4
    16b4:	00009f7e 	andeq	r9, r0, lr, ror pc
    16b8:	00000000 	andeq	r0, r0, r0
    16bc:	00010000 	andeq	r0, r1, r0
    16c0:	06d00001 	ldrbeq	r0, [r0], r1
    16c4:	07000000 	streq	r0, [r0, -r0]
    16c8:	00030000 	andeq	r0, r3, r0
    16cc:	b89f8008 	ldmlt	pc, {r3, pc}	; <UNPREDICTABLE>
    16d0:	bc000008 	stclt	0, cr0, [r0], {8}
    16d4:	03000008 	movweq	r0, #8
    16d8:	9f800800 	svcls	0x00800800
	...
    16e4:	00000001 	andeq	r0, r0, r1
    16e8:	00010100 	andeq	r0, r1, r0, lsl #2
    16ec:	01020000 	mrseq	r0, (UNDEF: 2)
    16f0:	06d00001 	ldrbeq	r0, [r0], r1
    16f4:	06e00000 	strbteq	r0, [r0], r0
    16f8:	00040000 	andeq	r0, r4, r0
    16fc:	9f7dd091 	svcls	0x007dd091
    1700:	000006e0 	andeq	r0, r0, r0, ror #13
    1704:	000006e4 	andeq	r0, r0, r4, ror #13
    1708:	e4550001 	ldrb	r0, [r5], #-1
    170c:	e4000006 	str	r0, [r0], #-6
    1710:	03000006 	movweq	r0, #6
    1714:	9f017200 	svcls	0x00017200
    1718:	000006e4 	andeq	r0, r0, r4, ror #13
    171c:	000006f0 	strdeq	r0, [r0], -r0	; <UNPREDICTABLE>
    1720:	02720003 	rsbseq	r0, r2, #3, 0
    1724:	0006f09f 	muleq	r6, pc, r0	; <UNPREDICTABLE>
    1728:	00070000 	andeq	r0, r7, r0
    172c:	72000300 	andvc	r0, r0, #0, 6
    1730:	07ec9f01 	strbeq	r9, [ip, r1, lsl #30]!
    1734:	07f40000 	ldrbeq	r0, [r4, r0]!
    1738:	00030000 	andeq	r0, r3, r0
    173c:	b89f0173 	ldmlt	pc, {r0, r1, r4, r5, r6, r8}	; <UNPREDICTABLE>
    1740:	bc000008 	stclt	0, cr0, [r0], {8}
    1744:	04000008 	streq	r0, [r0], #-8
    1748:	7dd09100 	ldfvcp	f1, [r0]
    174c:	0000009f 	muleq	r0, pc, r0	; <UNPREDICTABLE>
    1750:	00000000 	andeq	r0, r0, r0
    1754:	b8000400 	stmdalt	r0, {sl}
    1758:	bc000008 	stclt	0, cr0, [r0], {8}
    175c:	02000008 	andeq	r0, r0, #8, 0
    1760:	009f3200 	addseq	r3, pc, r0, lsl #4
    1764:	00000000 	andeq	r0, r0, r0
    1768:	07000000 	streq	r0, [r0, -r0]
    176c:	06000000 	streq	r0, [r0], -r0
    1770:	0006d000 	andeq	sp, r6, r0
    1774:	0006e000 	andeq	lr, r6, r0
    1778:	91000400 	tstls	r0, r0, lsl #8
    177c:	e09f7dd0 			; <UNDEFINED> instruction: 0xe09f7dd0
    1780:	00000006 	andeq	r0, r0, r6
    1784:	01000007 	tsteq	r0, r7
    1788:	08b85500 	ldmeq	r8!, {r8, sl, ip, lr}
    178c:	08bc0000 	ldmeq	ip!, {}	; <UNPREDICTABLE>
    1790:	00040000 	andeq	r0, r4, r0
    1794:	9f7dd091 	svcls	0x007dd091
	...
    17a0:	00000001 	andeq	r0, r0, r1
    17a4:	0000070c 	andeq	r0, r0, ip, lsl #14
    17a8:	000007ec 	andeq	r0, r0, ip, ror #15
    17ac:	80080003 	andhi	r0, r8, r3
    17b0:	0008949f 	muleq	r8, pc, r4	; <UNPREDICTABLE>
    17b4:	0008a800 	andeq	sl, r8, r0, lsl #16
    17b8:	08000300 	stmdaeq	r0, {r8, r9}
    17bc:	00009f80 	andeq	r9, r0, r0, lsl #31
	...
    17c8:	070c0000 	streq	r0, [ip, -r0]
    17cc:	07ec0000 	strbeq	r0, [ip, r0]!
    17d0:	00020000 	andeq	r0, r2, r0
    17d4:	08949f30 	ldmeq	r4, {r4, r5, r8, r9, sl, fp, ip, pc}
    17d8:	08a80000 	stmiaeq	r8!, {}	; <UNPREDICTABLE>
    17dc:	00020000 	andeq	r0, r2, r0
    17e0:	00009f30 	andeq	r9, r0, r0, lsr pc
	...
    17ec:	070c0000 	streq	r0, [ip, -r0]
    17f0:	07d00000 	ldrbeq	r0, [r0, r0]
    17f4:	00010000 	andeq	r0, r1, r0
    17f8:	00089455 	andeq	r9, r8, r5, asr r4
    17fc:	0008a800 	andeq	sl, r8, r0, lsl #16
    1800:	55000100 	strpl	r0, [r0, #-256]	; 0xffffff00
	...
    1810:	070c0000 	streq	r0, [ip, -r0]
    1814:	07d00000 	ldrbeq	r0, [r0, r0]
    1818:	00040000 	andeq	r0, r4, r0
    181c:	9f7dd091 	svcls	0x007dd091
    1820:	000007d0 	ldrdeq	r0, [r0], -r0	; <UNPREDICTABLE>
    1824:	000007ec 	andeq	r0, r0, ip, ror #15
    1828:	94550001 	ldrbls	r0, [r5], #-1
    182c:	a8000008 	stmdage	r0, {r3}
    1830:	04000008 	streq	r0, [r0], #-8
    1834:	7dd09100 	ldfvcp	f1, [r0]
    1838:	0000009f 	muleq	r0, pc, r0	; <UNPREDICTABLE>
	...
    1844:	00070c00 	andeq	r0, r7, r0, lsl #24
    1848:	0007ec00 	andeq	lr, r7, r0, lsl #24
    184c:	32000200 	andcc	r0, r0, #0, 4
    1850:	0008949f 	muleq	r8, pc, r4	; <UNPREDICTABLE>
    1854:	0008a800 	andeq	sl, r8, r0, lsl #16
    1858:	32000200 	andcc	r0, r0, #0, 4
    185c:	0000009f 	muleq	r0, pc, r0	; <UNPREDICTABLE>
    1860:	00000000 	andeq	r0, r0, r0
    1864:	05050300 	streq	r0, [r5, #-768]	; 0xfffffd00
    1868:	00000000 	andeq	r0, r0, r0
    186c:	0c000000 	stceq	0, cr0, [r0], {-0}
    1870:	0c000007 	stceq	0, cr0, [r0], {7}
    1874:	01000007 	tsteq	r0, r7
    1878:	070c5100 	streq	r5, [ip, -r0, lsl #2]
    187c:	071c0000 	ldreq	r0, [ip, -r0]
    1880:	00010000 	andeq	r0, r1, r0
    1884:	00071c53 	andeq	r1, r7, r3, asr ip
    1888:	00072400 	andeq	r2, r7, r0, lsl #8
    188c:	72000300 	andvc	r0, r0, #0, 6
    1890:	07249f01 	streq	r9, [r4, -r1, lsl #30]!
    1894:	07cc0000 	strbeq	r0, [ip, r0]
    1898:	00010000 	andeq	r0, r1, r0
    189c:	00089453 	andeq	r9, r8, r3, asr r4
    18a0:	0008a800 	andeq	sl, r8, r0, lsl #16
    18a4:	53000100 	movwpl	r0, #256	; 0x100
	...
    18b0:	00010005 	andeq	r0, r1, r5
    18b4:	0000070c 	andeq	r0, r0, ip, lsl #14
    18b8:	00000720 	andeq	r0, r0, r0, lsr #14
    18bc:	24500001 	ldrbcs	r0, [r0], #-1
    18c0:	2c000007 	stccs	0, cr0, [r0], {7}
    18c4:	01000007 	tsteq	r0, r7
    18c8:	00005000 	andeq	r5, r0, r0
    18cc:	00000000 	andeq	r0, r0, r0
    18d0:	01030000 	mrseq	r0, (UNDEF: 3)
    18d4:	07280100 	streq	r0, [r8, -r0, lsl #2]!
    18d8:	07b00000 	ldreq	r0, [r0, r0]!
    18dc:	00010000 	andeq	r0, r1, r0
    18e0:	00089455 	andeq	r9, r8, r5, asr r4
    18e4:	0008a000 	andeq	sl, r8, r0
    18e8:	55000100 	strpl	r0, [r0, #-256]	; 0xffffff00
	...
    18f4:	01000103 	tsteq	r0, r3, lsl #2
    18f8:	00000728 	andeq	r0, r0, r8, lsr #14
    18fc:	000007b0 			; <UNDEFINED> instruction: 0x000007b0
    1900:	94510001 	ldrbls	r0, [r1], #-1
    1904:	a0000008 	andge	r0, r0, r8
    1908:	01000008 	tsteq	r0, r8
    190c:	00005100 	andeq	r5, r0, r0, lsl #2
    1910:	00000000 	andeq	r0, r0, r0
    1914:	00030000 	andeq	r0, r3, r0
    1918:	01010100 	mrseq	r0, (UNDEF: 17)
    191c:	02030301 	andeq	r0, r3, #67108864	; 0x4000000
    1920:	07280100 	streq	r0, [r8, -r0, lsl #2]!
    1924:	07500000 	ldrbeq	r0, [r0, -r0]
    1928:	00010000 	andeq	r0, r1, r0
    192c:	00077453 	andeq	r7, r7, r3, asr r4
    1930:	00077400 	andeq	r7, r7, r0, lsl #8
    1934:	5e000100 	adfpls	f0, f0, f0
    1938:	00000774 	andeq	r0, r0, r4, ror r7
    193c:	00000788 	andeq	r0, r0, r8, lsl #15
    1940:	017e0003 	cmneq	lr, r3
    1944:	0007889f 	muleq	r7, pc, r8	; <UNPREDICTABLE>
    1948:	00079400 	andeq	r9, r7, r0, lsl #8
    194c:	7e000300 	cdpvc	3, 0, cr0, cr0, cr0, {0}
    1950:	07949f02 	ldreq	r9, [r4, r2, lsl #30]
    1954:	07980000 	ldreq	r0, [r8, r0]
    1958:	00030000 	andeq	r0, r3, r0
    195c:	949f037e 	ldrls	r0, [pc], #894	; 1964 <__code_start__-0x669c>
    1960:	a0000008 	andge	r0, r0, r8
    1964:	01000008 	tsteq	r0, r8
    1968:	00005300 	andeq	r5, r0, r0, lsl #6
	...
    1974:	01010100 	mrseq	r0, (UNDEF: 17)
    1978:	02010101 	andeq	r0, r1, #1073741824	; 0x40000000
    197c:	072c0100 	streq	r0, [ip, -r0, lsl #2]!
    1980:	07500000 	ldrbeq	r0, [r0, -r0]
    1984:	00010000 	andeq	r0, r1, r0
    1988:	00077450 	andeq	r7, r7, r0, asr r4
    198c:	00078400 	andeq	r8, r7, r0, lsl #8
    1990:	50000100 	andpl	r0, r0, r0, lsl #2
    1994:	00000784 	andeq	r0, r0, r4, lsl #15
    1998:	00000794 	muleq	r0, r4, r7
    199c:	945b0001 	ldrbls	r0, [fp], #-1
    19a0:	98000007 	stmdals	r0, {r0, r1, r2}
    19a4:	01000007 	tsteq	r0, r7
    19a8:	07985000 	ldreq	r5, [r8, r0]
    19ac:	07980000 	ldreq	r0, [r8, r0]
    19b0:	00030000 	andeq	r0, r3, r0
    19b4:	949f0170 	ldrls	r0, [pc], #368	; 19bc <__code_start__-0x6644>
    19b8:	a0000008 	andge	r0, r0, r8
    19bc:	01000008 	tsteq	r0, r8
    19c0:	00005000 	andeq	r5, r0, r0
    19c4:	00000000 	andeq	r0, r0, r0
    19c8:	00010000 	andeq	r0, r1, r0
    19cc:	07b00001 	ldreq	r0, [r0, r1]!
    19d0:	07ec0000 	strbeq	r0, [ip, r0]!
    19d4:	00010000 	andeq	r0, r1, r0
    19d8:	0008a051 	andeq	sl, r8, r1, asr r0
    19dc:	0008a800 	andeq	sl, r8, r0, lsl #16
    19e0:	51000100 	mrspl	r0, (UNDEF: 16)
	...
    19ec:	00000001 	andeq	r0, r0, r1
    19f0:	00010100 	andeq	r0, r1, r0, lsl #2
    19f4:	07b00001 	ldreq	r0, [r0, r1]!
    19f8:	07b40000 	ldreq	r0, [r4, r0]!
    19fc:	00060000 	andeq	r0, r6, r0
    1a00:	007c0073 	rsbseq	r0, ip, r3, ror r0
    1a04:	07d49f22 	ldrbeq	r9, [r4, r2, lsr #30]
    1a08:	07d80000 	ldrbeq	r0, [r8, r0]
    1a0c:	00030000 	andeq	r0, r3, r0
    1a10:	d89f7f73 	ldmle	pc, {r0, r1, r4, r5, r6, r8, r9, sl, fp, ip, sp, lr}	; <UNPREDICTABLE>
    1a14:	e0000007 	and	r0, r0, r7
    1a18:	01000007 	tsteq	r0, r7
    1a1c:	07e05300 	strbeq	r5, [r0, r0, lsl #6]!
    1a20:	07e80000 	strbeq	r0, [r8, r0]!
    1a24:	00030000 	andeq	r0, r3, r0
    1a28:	a09f7f73 	addsge	r7, pc, r3, ror pc	; <UNPREDICTABLE>
    1a2c:	a8000008 	stmdage	r0, {r3}
    1a30:	01000008 	tsteq	r0, r8
    1a34:	00005300 	andeq	r5, r0, r0, lsl #6
    1a38:	00000000 	andeq	r0, r0, r0
    1a3c:	00010000 	andeq	r0, r1, r0
    1a40:	07b00001 	ldreq	r0, [r0, r1]!
    1a44:	07ec0000 	strbeq	r0, [ip, r0]!
    1a48:	00030000 	andeq	r0, r3, r0
    1a4c:	a09f8008 	addsge	r8, pc, r8
    1a50:	a8000008 	stmdage	r0, {r3}
    1a54:	03000008 	movweq	r0, #8
    1a58:	9f800800 	svcls	0x00800800
	...
    1a64:	00000001 	andeq	r0, r0, r1
    1a68:	00010100 	andeq	r0, r1, r0, lsl #2
    1a6c:	00010000 	andeq	r0, r1, r0
    1a70:	000007b0 			; <UNDEFINED> instruction: 0x000007b0
    1a74:	000007d0 	ldrdeq	r0, [r0], -r0	; <UNPREDICTABLE>
    1a78:	d0910004 	addsle	r0, r1, r4
    1a7c:	07d09f7d 			; <UNDEFINED> instruction: 0x07d09f7d
    1a80:	07d40000 	ldrbeq	r0, [r4, r0]
    1a84:	00010000 	andeq	r0, r1, r0
    1a88:	0007d455 	andeq	sp, r7, r5, asr r4
    1a8c:	0007d400 	andeq	sp, r7, r0, lsl #8
    1a90:	7c000300 	stcvc	3, cr0, [r0], {-0}
    1a94:	07d49f01 	ldrbeq	r9, [r4, r1, lsl #30]
    1a98:	07e00000 	strbeq	r0, [r0, r0]!
    1a9c:	00030000 	andeq	r0, r3, r0
    1aa0:	e09f027c 	adds	r0, pc, ip, ror r2	; <UNPREDICTABLE>
    1aa4:	ec000007 	stc	0, cr0, [r0], {7}
    1aa8:	03000007 	movweq	r0, #7
    1aac:	9f017c00 	svcls	0x00017c00
    1ab0:	000008a0 	andeq	r0, r0, r0, lsr #17
    1ab4:	000008a8 	andeq	r0, r0, r8, lsr #17
    1ab8:	d0910004 	addsle	r0, r1, r4
    1abc:	00009f7d 	andeq	r9, r0, sp, ror pc
    1ac0:	00000000 	andeq	r0, r0, r0
    1ac4:	00040000 	andeq	r0, r4, r0
    1ac8:	07b00004 	ldreq	r0, [r0, r4]!
    1acc:	07b40000 	ldreq	r0, [r4, r0]!
    1ad0:	00030000 	andeq	r0, r3, r0
    1ad4:	a09f0170 	addsge	r0, pc, r0, ror r1	; <UNPREDICTABLE>
    1ad8:	a8000008 	stmdage	r0, {r3}
    1adc:	03000008 	movweq	r0, #8
    1ae0:	9f017000 	svcls	0x00017000
	...
    1aec:	00000001 	andeq	r0, r0, r1
    1af0:	000007bc 			; <UNDEFINED> instruction: 0x000007bc
    1af4:	000007d0 	ldrdeq	r0, [r0], -r0	; <UNPREDICTABLE>
    1af8:	d0910004 	addsle	r0, r1, r4
    1afc:	07d09f7d 			; <UNDEFINED> instruction: 0x07d09f7d
    1b00:	07ec0000 	strbeq	r0, [ip, r0]!
    1b04:	00010000 	andeq	r0, r1, r0
    1b08:	00000055 	andeq	r0, r0, r5, asr r0
	...
    1b14:	00032800 	andeq	r2, r3, r0, lsl #16
    1b18:	00036400 	andeq	r6, r3, r0, lsl #8
    1b1c:	50000100 	andpl	r0, r0, r0, lsl #2
    1b20:	00000364 	andeq	r0, r0, r4, ror #6
    1b24:	00000388 	andeq	r0, r0, r8, lsl #7
    1b28:	01f30004 	mvnseq	r0, r4
    1b2c:	00009f50 	andeq	r9, r0, r0, asr pc
	...
    1b38:	03280000 			; <UNDEFINED> instruction: 0x03280000
    1b3c:	035c0000 	cmpeq	ip, #0, 0
    1b40:	00010000 	andeq	r0, r1, r0
    1b44:	00035c51 	andeq	r5, r3, r1, asr ip
    1b48:	00038800 	andeq	r8, r3, r0, lsl #16
    1b4c:	f3000400 	vshl.u8	d0, d0, d0
    1b50:	009f5101 	addseq	r5, pc, r1, lsl #2
	...
    1b74:	14000000 	strne	r0, [r0], #-0
    1b78:	01000000 	mrseq	r0, (UNDEF: 0)
    1b7c:	00145000 	andseq	r5, r4, r0
    1b80:	00200000 	eoreq	r0, r0, r0
    1b84:	00010000 	andeq	r0, r1, r0
    1b88:	0000205c 	andeq	r2, r0, ip, asr r0
    1b8c:	00006800 	andeq	r6, r0, r0, lsl #16
    1b90:	71000300 	mrsvc	r0, LR_irq
    1b94:	00689f02 	rsbeq	r9, r8, r2, lsl #30
    1b98:	006c0000 	rsbeq	r0, ip, r0
    1b9c:	00030000 	andeq	r0, r3, r0
    1ba0:	6c9f0273 	lfmvs	f0, 4, [pc], {115}	; 0x73
    1ba4:	94000000 	strls	r0, [r0], #-0
    1ba8:	04000001 	streq	r0, [r0], #-1
    1bac:	5001f300 	andpl	pc, r1, r0, lsl #6
    1bb0:	0001949f 	muleq	r1, pc, r4	; <UNPREDICTABLE>
    1bb4:	00019800 	andeq	r9, r1, r0, lsl #16
    1bb8:	73000300 	movwvc	r0, #768	; 0x300
    1bbc:	01989f02 	orrseq	r9, r8, r2, lsl #30
    1bc0:	01c00000 	biceq	r0, r0, r0
    1bc4:	00040000 	andeq	r0, r4, r0
    1bc8:	9f5001f3 	svcls	0x005001f3
    1bcc:	000001c0 	andeq	r0, r0, r0, asr #3
    1bd0:	000001c8 	andeq	r0, r0, r8, asr #3
    1bd4:	c85c0001 	ldmdagt	ip, {r0}^
    1bd8:	14000001 	strne	r0, [r0], #-1
    1bdc:	03000002 	movweq	r0, #2
    1be0:	9f027300 	svcls	0x00027300
    1be4:	00000214 	andeq	r0, r0, r4, lsl r2
    1be8:	000002ec 	andeq	r0, r0, ip, ror #5
    1bec:	01f30004 	mvnseq	r0, r4
    1bf0:	02ec9f50 	rsceq	r9, ip, #80, 30	; 0x140
    1bf4:	02f40000 	rscseq	r0, r4, #0, 0
    1bf8:	00030000 	andeq	r0, r3, r0
    1bfc:	f49f0273 			; <UNDEFINED> instruction: 0xf49f0273
    1c00:	28000002 	stmdacs	r0, {r1}
    1c04:	04000003 	streq	r0, [r0], #-3
    1c08:	5001f300 	andpl	pc, r1, r0, lsl #6
    1c0c:	0000009f 	muleq	r0, pc, r0	; <UNPREDICTABLE>
	...
    1c20:	00001c00 	andeq	r1, r0, r0, lsl #24
    1c24:	51000100 	mrspl	r0, (UNDEF: 16)
    1c28:	0000001c 	andeq	r0, r0, ip, lsl r0
    1c2c:	000002e0 	andeq	r0, r0, r0, ror #5
    1c30:	e0500001 	subs	r0, r0, r1
    1c34:	ec000002 	stc	0, cr0, [r0], {2}
    1c38:	04000002 	streq	r0, [r0], #-2
    1c3c:	5101f300 	mrspl	pc, SP_irq	; <UNPREDICTABLE>
    1c40:	0002ec9f 	muleq	r2, pc, ip	; <UNPREDICTABLE>
    1c44:	00032800 	andeq	r2, r3, r0, lsl #16
    1c48:	50000100 	andpl	r0, r0, r0, lsl #2
	...
    1c58:	00000100 	andeq	r0, r0, r0, lsl #2
    1c5c:	00000000 	andeq	r0, r0, r0
    1c60:	00020200 	andeq	r0, r2, r0, lsl #4
	...
    1c78:	00000070 	andeq	r0, r0, r0, ror r0
    1c7c:	70520001 	subsvc	r0, r2, r1
    1c80:	78000000 	stmdavc	r0, {}	; <UNPREDICTABLE>
    1c84:	01000000 	mrseq	r0, (UNDEF: 0)
    1c88:	00785c00 	rsbseq	r5, r8, r0, lsl #24
    1c8c:	00a40000 	adceq	r0, r4, r0
    1c90:	00040000 	andeq	r0, r4, r0
    1c94:	9f5201f3 	svcls	0x005201f3
    1c98:	00000194 	muleq	r0, r4, r1
    1c9c:	0000019c 	muleq	r0, ip, r1
    1ca0:	9c520001 	mrrcls	0, 0, r0, r2, cr1
    1ca4:	a4000001 	strge	r0, [r0], #-1
    1ca8:	01000001 	tsteq	r0, r1
    1cac:	01a45c00 			; <UNDEFINED> instruction: 0x01a45c00
    1cb0:	01c00000 	biceq	r0, r0, r0
    1cb4:	00040000 	andeq	r0, r4, r0
    1cb8:	9f5201f3 	svcls	0x005201f3
    1cbc:	000001c0 	andeq	r0, r0, r0, asr #3
    1cc0:	00000220 	andeq	r0, r0, r0, lsr #4
    1cc4:	20520001 	subscs	r0, r2, r1
    1cc8:	28000002 	stmdacs	r0, {r1}
    1ccc:	04000002 	streq	r0, [r0], #-2
    1cd0:	1f007200 	svcne	0x00007200
    1cd4:	0002289f 	muleq	r2, pc, r8	; <UNPREDICTABLE>
    1cd8:	00027400 	andeq	r7, r2, r0, lsl #8
    1cdc:	f3000500 	vrshl.u8	d0, d0, d0
    1ce0:	9f1f5201 	svcls	0x001f5201
    1ce4:	00000274 	andeq	r0, r0, r4, ror r2
    1ce8:	00000288 	andeq	r0, r0, r8, lsl #5
    1cec:	88520001 	ldmdahi	r2, {r0}^
    1cf0:	a0000002 	andge	r0, r0, r2
    1cf4:	01000002 	tsteq	r0, r2
    1cf8:	02cc5c00 	sbceq	r5, ip, #0, 24
    1cfc:	02d00000 	sbcseq	r0, r0, #0, 0
    1d00:	00010000 	andeq	r0, r1, r0
    1d04:	0002d052 	andeq	sp, r2, r2, asr r0
    1d08:	0002e700 	andeq	lr, r2, r0, lsl #14
    1d0c:	5c000100 	stfpls	f0, [r0], {-0}
    1d10:	000002e7 	andeq	r0, r0, r7, ror #5
    1d14:	000002ec 	andeq	r0, r0, ip, ror #5
    1d18:	01f30004 	mvnseq	r0, r4
    1d1c:	02ec9f52 	rsceq	r9, ip, #328	; 0x148
    1d20:	03000000 	movweq	r0, #0
    1d24:	00010000 	andeq	r0, r1, r0
    1d28:	00030052 	andeq	r0, r3, r2, asr r0
    1d2c:	00032800 	andeq	r2, r3, r0, lsl #16
    1d30:	5c000100 	stfpls	f0, [r0], {-0}
	...
    1d4c:	00680000 	rsbeq	r0, r8, r0
    1d50:	00010000 	andeq	r0, r1, r0
    1d54:	00006853 	andeq	r6, r0, r3, asr r8
    1d58:	00006c00 	andeq	r6, r0, r0, lsl #24
    1d5c:	08000300 	stmdaeq	r0, {r8, r9}
    1d60:	01949f7f 	orrseq	r9, r4, pc, ror pc
    1d64:	01980000 	orrseq	r0, r8, r0
    1d68:	00030000 	andeq	r0, r3, r0
    1d6c:	c09f7f08 	addsgt	r7, pc, r8, lsl #30
    1d70:	14000001 	strne	r0, [r0], #-1
    1d74:	03000002 	movweq	r0, #2
    1d78:	9f7f0800 	svcls	0x007f0800
    1d7c:	00000274 	andeq	r0, r0, r4, ror r2
    1d80:	00000290 	muleq	r0, r0, r2
    1d84:	90530001 	subsls	r0, r3, r1
    1d88:	a0000002 	andge	r0, r0, r2
    1d8c:	04000002 	streq	r0, [r0], #-2
    1d90:	5301f300 	movwpl	pc, #4864	; 0x1300	; <UNPREDICTABLE>
    1d94:	0002ec9f 	muleq	r2, pc, ip	; <UNPREDICTABLE>
    1d98:	00032800 	andeq	r2, r3, r0, lsl #16
    1d9c:	08000300 	stmdaeq	r0, {r8, r9}
    1da0:	00009f7f 	andeq	r9, r0, pc, ror pc
    1da4:	00000000 	andeq	r0, r0, r0
    1da8:	00010000 	andeq	r0, r1, r0
    1dac:	02000000 	andeq	r0, r0, #0, 0
    1db0:	01000002 	tsteq	r0, r2
    1db4:	00000001 	andeq	r0, r0, r1
    1db8:	00000000 	andeq	r0, r0, r0
    1dbc:	00020200 	andeq	r0, r2, r0, lsl #4
    1dc0:	00010000 	andeq	r0, r1, r0
    1dc4:	00000000 	andeq	r0, r0, r0
    1dc8:	01000000 	mrseq	r0, (UNDEF: 0)
    1dcc:	00000001 	andeq	r0, r0, r1
    1dd0:	00020200 	andeq	r0, r2, r0, lsl #4
    1dd4:	00000000 	andeq	r0, r0, r0
    1dd8:	00010100 	andeq	r0, r1, r0, lsl #2
    1ddc:	00180000 	andseq	r0, r8, r0
    1de0:	00700000 	rsbseq	r0, r0, r0
    1de4:	00040000 	andeq	r0, r4, r0
    1de8:	9f7fa091 	svcls	0x007fa091
    1dec:	00000070 	andeq	r0, r0, r0, ror r0
    1df0:	00000078 	andeq	r0, r0, r8, ror r0
    1df4:	78520001 	ldmdavc	r2, {r0}^
    1df8:	78000000 	stmdavc	r0, {}	; <UNPREDICTABLE>
    1dfc:	01000000 	mrseq	r0, (UNDEF: 0)
    1e00:	00785400 	rsbseq	r5, r8, r0, lsl #8
    1e04:	00880000 	addeq	r0, r8, r0
    1e08:	00030000 	andeq	r0, r3, r0
    1e0c:	889f0174 	ldmhi	pc, {r2, r4, r5, r6, r8}	; <UNPREDICTABLE>
    1e10:	90000000 	andls	r0, r0, r0
    1e14:	01000000 	mrseq	r0, (UNDEF: 0)
    1e18:	00905400 	addseq	r5, r0, r0, lsl #8
    1e1c:	00a00000 	adceq	r0, r0, r0
    1e20:	00030000 	andeq	r0, r3, r0
    1e24:	a09f0274 	addsge	r0, pc, r4, ror r2	; <UNPREDICTABLE>
    1e28:	b0000000 	andlt	r0, r0, r0
    1e2c:	01000000 	mrseq	r0, (UNDEF: 0)
    1e30:	01945e00 	orrseq	r5, r4, r0, lsl #28
    1e34:	019c0000 	orrseq	r0, ip, r0
    1e38:	00040000 	andeq	r0, r4, r0
    1e3c:	9f7fa091 	svcls	0x007fa091
    1e40:	0000019c 	muleq	r0, ip, r1
    1e44:	000001a4 	andeq	r0, r0, r4, lsr #3
    1e48:	a4520001 	ldrbge	r0, [r2], #-1
    1e4c:	a4000001 	strge	r0, [r0], #-1
    1e50:	01000001 	tsteq	r0, r1
    1e54:	01a45e00 			; <UNDEFINED> instruction: 0x01a45e00
    1e58:	01b40000 			; <UNDEFINED> instruction: 0x01b40000
    1e5c:	00030000 	andeq	r0, r3, r0
    1e60:	b49f017e 	ldrlt	r0, [pc], #382	; 1e68 <__code_start__-0x6198>
    1e64:	c0000001 	andgt	r0, r0, r1
    1e68:	01000001 	tsteq	r0, r1
    1e6c:	01c05e00 	biceq	r5, r0, r0, lsl #28
    1e70:	02280000 	eoreq	r0, r8, #0, 0
    1e74:	00040000 	andeq	r0, r4, r0
    1e78:	9f7fa091 	svcls	0x007fa091
    1e7c:	00000228 	andeq	r0, r0, r8, lsr #4
    1e80:	00000234 	andeq	r0, r0, r4, lsr r2
    1e84:	34520001 	ldrbcc	r0, [r2], #-1
    1e88:	58000002 	stmdapl	r0, {r1}
    1e8c:	01000002 	tsteq	r0, r2
    1e90:	02585e00 	subseq	r5, r8, #0, 28
    1e94:	025c0000 	subseq	r0, ip, #0, 0
    1e98:	00030000 	andeq	r0, r3, r0
    1e9c:	5c9f017e 	ldfpls	f0, [pc], {126}	; 0x7e
    1ea0:	64000002 	strvs	r0, [r0], #-2
    1ea4:	01000002 	tsteq	r0, r2
    1ea8:	02645e00 	rsbeq	r5, r4, #0, 28
    1eac:	02700000 	rsbseq	r0, r0, #0, 0
    1eb0:	00030000 	andeq	r0, r3, r0
    1eb4:	709f0271 	addsvc	r0, pc, r1, ror r2	; <UNPREDICTABLE>
    1eb8:	74000002 	strvc	r0, [r0], #-2
    1ebc:	01000002 	tsteq	r0, r2
    1ec0:	02745e00 	rsbseq	r5, r4, #0, 28
    1ec4:	02740000 	rsbseq	r0, r4, #0, 0
    1ec8:	00040000 	andeq	r0, r4, r0
    1ecc:	9f7fa091 	svcls	0x007fa091
    1ed0:	00000274 	andeq	r0, r0, r4, ror r2
    1ed4:	000002a0 	andeq	r0, r0, r0, lsr #5
    1ed8:	a1910004 	orrsge	r0, r1, r4
    1edc:	02c09f7f 	sbceq	r9, r0, #508	; 0x1fc
    1ee0:	02c80000 	sbceq	r0, r8, #0, 0
    1ee4:	00010000 	andeq	r0, r1, r0
    1ee8:	0002c85e 	andeq	ip, r2, lr, asr r8
    1eec:	0002cc00 	andeq	ip, r2, r0, lsl #24
    1ef0:	56000100 	strpl	r0, [r0], -r0, lsl #2
    1ef4:	000002cc 	andeq	r0, r0, ip, asr #5
    1ef8:	000002ec 	andeq	r0, r0, ip, ror #5
    1efc:	a0910004 	addsge	r0, r1, r4
    1f00:	02ec9f7f 	rsceq	r9, ip, #508	; 0x1fc
    1f04:	02fc0000 	rscseq	r0, ip, #0, 0
    1f08:	00040000 	andeq	r0, r4, r0
    1f0c:	9f7fa191 	svcls	0x007fa191
    1f10:	000002fc 	strdeq	r0, [r0], -ip
    1f14:	00000328 	andeq	r0, r0, r8, lsr #6
    1f18:	005e0001 	subseq	r0, lr, r1
	...
    1f30:	01010000 	mrseq	r0, (UNDEF: 1)
	...
    1f44:	00002000 	andeq	r2, r0, r0
    1f48:	00007000 	andeq	r7, r0, r0
    1f4c:	52000100 	andpl	r0, r0, #0
    1f50:	00000070 	andeq	r0, r0, r0, ror r0
    1f54:	00000094 	muleq	r0, r4, r0
    1f58:	945c0001 	ldrbls	r0, [ip], #-1
    1f5c:	9c000001 	stcls	0, cr0, [r0], {1}
    1f60:	01000001 	tsteq	r0, r1
    1f64:	019c5200 	orrseq	r5, ip, r0, lsl #4
    1f68:	01c00000 	biceq	r0, r0, r0
    1f6c:	00010000 	andeq	r0, r1, r0
    1f70:	0001c85c 	andeq	ip, r1, ip, asr r8
    1f74:	00021000 	andeq	r1, r2, r0
    1f78:	5c000100 	stfpls	f0, [r0], {-0}
    1f7c:	00000210 	andeq	r0, r0, r0, lsl r2
    1f80:	00000224 	andeq	r0, r0, r4, lsr #4
    1f84:	24520001 	ldrbcs	r0, [r2], #-1
    1f88:	48000002 	stmdami	r0, {r1}
    1f8c:	01000002 	tsteq	r0, r2
    1f90:	02485c00 	subeq	r5, r8, #0, 24
    1f94:	025c0000 	subseq	r0, ip, #0, 0
    1f98:	00010000 	andeq	r0, r1, r0
    1f9c:	00025c55 	andeq	r5, r2, r5, asr ip
    1fa0:	00026800 	andeq	r6, r2, r0, lsl #16
    1fa4:	5c000100 	stfpls	f0, [r0], {-0}
    1fa8:	00000268 	andeq	r0, r0, r8, ror #4
    1fac:	00000274 	andeq	r0, r0, r4, ror r2
    1fb0:	00750019 	rsbseq	r0, r5, r9, lsl r0
    1fb4:	25f72cf7 	ldrbcs	r2, [r7, #3319]!	; 0xcf7
    1fb8:	2cf70076 	ldclcs	0, cr0, [r7], #472	; 0x1d8
    1fbc:	081e25f7 	ldmdaeq	lr, {r0, r1, r2, r4, r5, r6, r7, r8, sl, sp}
    1fc0:	2525f720 	strcs	pc, [r5, #-1824]!	; 0xfffff8e0
    1fc4:	00f72cf7 	ldrshteq	r2, [r7], #199	; 0xc7
    1fc8:	749f2533 	ldrvc	r2, [pc], #1331	; 1fd0 <__code_start__-0x6030>
    1fcc:	88000002 	stmdahi	r0, {r1}
    1fd0:	01000002 	tsteq	r0, r2
    1fd4:	02885200 	addeq	r5, r8, #0, 4
    1fd8:	02a00000 	adceq	r0, r0, #0, 0
    1fdc:	00010000 	andeq	r0, r1, r0
    1fe0:	0002cc5c 	andeq	ip, r2, ip, asr ip
    1fe4:	0002d000 	andeq	sp, r2, r0
    1fe8:	52000100 	andpl	r0, r0, #0
    1fec:	000002d0 	ldrdeq	r0, [r0], -r0	; <UNPREDICTABLE>
    1ff0:	000002e7 	andeq	r0, r0, r7, ror #5
    1ff4:	e75c0001 	ldrb	r0, [ip, -r1]
    1ff8:	ec000002 	stc	0, cr0, [r0], {2}
    1ffc:	04000002 	streq	r0, [r0], #-2
    2000:	5201f300 	andpl	pc, r1, #0, 6
    2004:	0002ec9f 	muleq	r2, pc, ip	; <UNPREDICTABLE>
    2008:	00030000 	andeq	r0, r3, r0
    200c:	52000100 	andpl	r0, r0, #0
    2010:	00000300 	andeq	r0, r0, r0, lsl #6
    2014:	00000328 	andeq	r0, r0, r8, lsr #6
    2018:	005c0001 	subseq	r0, ip, r1
    201c:	00000000 	andeq	r0, r0, r0
    2020:	04000000 	streq	r0, [r0], #-0
    2024:	00000400 	andeq	r0, r0, r0, lsl #8
    2028:	04000001 	streq	r0, [r0], #-1
    202c:	0000a400 	andeq	sl, r0, r0, lsl #8
    2030:	0000b000 	andeq	fp, r0, r0
    2034:	53000100 	movwpl	r0, #256	; 0x100
    2038:	0000027c 	andeq	r0, r0, ip, ror r2
    203c:	00000290 	muleq	r0, r0, r2
    2040:	90530001 	subsls	r0, r3, r1
    2044:	9c000002 	stcls	0, cr0, [r0], {2}
    2048:	04000002 	streq	r0, [r0], #-2
    204c:	5301f300 	movwpl	pc, #4864	; 0x1300	; <UNPREDICTABLE>
    2050:	0002c09f 	muleq	r2, pc, r0	; <UNPREDICTABLE>
    2054:	0002cc00 	andeq	ip, r2, r0, lsl #24
    2058:	53000100 	movwpl	r0, #256	; 0x100
    205c:	000002f0 	strdeq	r0, [r0], -r0	; <UNPREDICTABLE>
    2060:	00000328 	andeq	r0, r0, r8, lsr #6
    2064:	7f080003 	svcvc	0x00080003
    2068:	0000009f 	muleq	r0, pc, r0	; <UNPREDICTABLE>
    206c:	00000000 	andeq	r0, r0, r0
    2070:	00000400 	andeq	r0, r0, r0, lsl #8
    2074:	00000401 	andeq	r0, r0, r1, lsl #8
    2078:	00000001 	andeq	r0, r0, r1
    207c:	00000400 	andeq	r0, r0, r0, lsl #8
    2080:	0000a400 	andeq	sl, r0, r0, lsl #8
    2084:	0000b000 	andeq	fp, r0, r0
    2088:	52000100 	andpl	r0, r0, #0
    208c:	000000b0 	strheq	r0, [r0], -r0	; <UNPREDICTABLE>
    2090:	0000015c 	andeq	r0, r0, ip, asr r1
    2094:	a0910004 	addsge	r0, r1, r4
    2098:	027c9f7f 	rsbseq	r9, ip, #508	; 0x1fc
    209c:	02940000 	addseq	r0, r4, #0, 0
    20a0:	00040000 	andeq	r0, r4, r0
    20a4:	9f7fa091 	svcls	0x007fa091
    20a8:	00000294 	muleq	r0, r4, r2
    20ac:	0000029c 	muleq	r0, ip, r2
    20b0:	b45e0001 	ldrblt	r0, [lr], #-1
    20b4:	c0000002 	andgt	r0, r0, r2
    20b8:	04000002 	streq	r0, [r0], #-2
    20bc:	7fa09100 	svcvc	0x00a09100
    20c0:	0002c09f 	muleq	r2, pc, r0	; <UNPREDICTABLE>
    20c4:	0002cc00 	andeq	ip, r2, r0, lsl #24
    20c8:	52000100 	andpl	r0, r0, #0
    20cc:	000002f0 	strdeq	r0, [r0], -r0	; <UNPREDICTABLE>
    20d0:	00000300 	andeq	r0, r0, r0, lsl #6
    20d4:	a0910004 	addsge	r0, r1, r4
    20d8:	03009f7f 	movweq	r9, #3967	; 0xf7f
    20dc:	03280000 			; <UNDEFINED> instruction: 0x03280000
    20e0:	00010000 	andeq	r0, r1, r0
    20e4:	00000052 	andeq	r0, r0, r2, asr r0
    20e8:	00000000 	andeq	r0, r0, r0
    20ec:	00000400 	andeq	r0, r0, r0, lsl #8
    20f0:	01010101 	tsteq	r1, r1, lsl #2
    20f4:	04020303 	streq	r0, [r2], #-771	; 0xfffffcfd
    20f8:	00000001 	andeq	r0, r0, r1
    20fc:	00000400 	andeq	r0, r0, r0, lsl #8
    2100:	0000a400 	andeq	sl, r0, r0, lsl #8
    2104:	0000b000 	andeq	fp, r0, r0
    2108:	5e000100 	adfpls	f0, f0, f0
    210c:	0000010c 	andeq	r0, r0, ip, lsl #2
    2110:	0000010c 	andeq	r0, r0, ip, lsl #2
    2114:	0c550001 	mrrceq	0, 0, r0, r5, cr1
    2118:	20000001 	andcs	r0, r0, r1
    211c:	03000001 	movweq	r0, #1
    2120:	9f017500 	svcls	0x00017500
    2124:	00000120 	andeq	r0, r0, r0, lsr #2
    2128:	0000012c 	andeq	r0, r0, ip, lsr #2
    212c:	02750003 	rsbseq	r0, r5, #3, 0
    2130:	00012c9f 	muleq	r1, pc, ip	; <UNPREDICTABLE>
    2134:	00013000 	andeq	r3, r1, r0
    2138:	75000300 	strvc	r0, [r0, #-768]	; 0xfffffd00
    213c:	027c9f03 	rsbseq	r9, ip, #3, 30
    2140:	029c0000 	addseq	r0, ip, #0, 0
    2144:	00040000 	andeq	r0, r4, r0
    2148:	9f7fa191 	svcls	0x007fa191
    214c:	000002c0 	andeq	r0, r0, r0, asr #5
    2150:	000002c8 	andeq	r0, r0, r8, asr #5
    2154:	c85e0001 	ldmdagt	lr, {r0}^
    2158:	cc000002 	stcgt	0, cr0, [r0], {2}
    215c:	01000002 	tsteq	r0, r2
    2160:	02f05600 	rscseq	r5, r0, #0, 12
    2164:	02fc0000 	rscseq	r0, ip, #0, 0
    2168:	00040000 	andeq	r0, r4, r0
    216c:	9f7fa191 	svcls	0x007fa191
    2170:	000002fc 	strdeq	r0, [r0], -ip
    2174:	00000328 	andeq	r0, r0, r8, lsr #6
    2178:	005e0001 	subseq	r0, lr, r1
	...
    2184:	01010000 	mrseq	r0, (UNDEF: 1)
    2188:	01010101 	tsteq	r1, r1, lsl #2
    218c:	00010602 	andeq	r0, r1, r2, lsl #12
    2190:	a8000600 	stmdage	r0, {r9, sl}
    2194:	b0000000 	andlt	r0, r0, r0
    2198:	01000000 	mrseq	r0, (UNDEF: 0)
    219c:	010c5100 	mrseq	r5, (UNDEF: 28)
    21a0:	011c0000 	tsteq	ip, r0
    21a4:	00010000 	andeq	r0, r1, r0
    21a8:	00011c5c 	andeq	r1, r1, ip, asr ip
    21ac:	00012c00 	andeq	r2, r1, r0, lsl #24
    21b0:	58000100 	stmdapl	r0, {r8}
    21b4:	0000012c 	andeq	r0, r0, ip, lsr #2
    21b8:	00000130 	andeq	r0, r0, r0, lsr r1
    21bc:	305c0001 	subscc	r0, ip, r1
    21c0:	30000001 	andcc	r0, r0, r1
    21c4:	03000001 	movweq	r0, #1
    21c8:	9f017c00 	svcls	0x00017c00
    21cc:	0000027c 	andeq	r0, r0, ip, ror r2
    21d0:	0000029c 	muleq	r0, ip, r2
    21d4:	9f310002 	svcls	0x00310002
    21d8:	000002c0 	andeq	r0, r0, r0, asr #5
    21dc:	000002cc 	andeq	r0, r0, ip, asr #5
    21e0:	f0510001 			; <UNDEFINED> instruction: 0xf0510001
    21e4:	28000002 	stmdacs	r0, {r1}
    21e8:	02000003 	andeq	r0, r0, #3, 0
    21ec:	009f3100 	addseq	r3, pc, r0, lsl #2
    21f0:	00000000 	andeq	r0, r0, r0
    21f4:	01000000 	mrseq	r0, (UNDEF: 0)
    21f8:	01010606 	tsteq	r1, r6, lsl #12
    21fc:	5c010000 	stcpl	0, cr0, [r1], {-0}
    2200:	5c000001 	stcpl	0, cr0, [r0], {1}
    2204:	04000001 	streq	r0, [r0], #-1
    2208:	7fa09100 	svcvc	0x00a09100
    220c:	00015c9f 	muleq	r1, pc, ip	; <UNPREDICTABLE>
    2210:	00018c00 	andeq	r8, r1, r0, lsl #24
    2214:	52000100 	andpl	r0, r0, #0
    2218:	0000029c 	muleq	r0, ip, r2
    221c:	000002a0 	andeq	r0, r0, r0, lsr #5
    2220:	a05e0001 	subsge	r0, lr, r1
    2224:	ac000002 	stcge	0, cr0, [r0], {2}
    2228:	01000002 	tsteq	r0, r2
    222c:	00005200 	andeq	r5, r0, r0, lsl #4
	...
    2238:	00010100 	andeq	r0, r1, r0, lsl #2
    223c:	016c0701 	cmneq	ip, r1, lsl #14
    2240:	01700000 	cmneq	r0, r0
    2244:	00030000 	andeq	r0, r3, r0
    2248:	709f7f73 	addsvc	r7, pc, r3, ror pc	; <UNPREDICTABLE>
    224c:	78000001 	stmdavc	r0, {r0}
    2250:	01000001 	tsteq	r0, r1
    2254:	01785300 	cmneq	r8, r0, lsl #6
    2258:	01840000 	orreq	r0, r4, r0
    225c:	00030000 	andeq	r0, r3, r0
    2260:	9c9f7f73 	ldcls	15, cr7, [pc], {115}	; 0x73
    2264:	9c000002 	stcls	0, cr0, [r0], {2}
    2268:	04000002 	streq	r0, [r0], #-2
    226c:	7fa19100 	svcvc	0x00a19100
    2270:	0000009f 	muleq	r0, pc, r0	; <UNPREDICTABLE>
    2274:	00000000 	andeq	r0, r0, r0
    2278:	01010100 	mrseq	r0, (UNDEF: 17)
    227c:	00015c01 	andeq	r5, r1, r1, lsl #24
    2280:	00018c00 	andeq	r8, r1, r0, lsl #24
    2284:	08000300 	stmdaeq	r0, {r8, r9}
    2288:	029c9f80 	addseq	r9, ip, #128, 30	; 0x200
    228c:	02ac0000 	adceq	r0, ip, #0, 0
    2290:	00030000 	andeq	r0, r3, r0
    2294:	009f8008 	addseq	r8, pc, r8
    2298:	00000000 	andeq	r0, r0, r0
    229c:	01000000 	mrseq	r0, (UNDEF: 0)
    22a0:	01010000 	mrseq	r0, (UNDEF: 1)
    22a4:	01010000 	mrseq	r0, (UNDEF: 1)
    22a8:	01010101 	tsteq	r1, r1, lsl #2
    22ac:	00015c01 	andeq	r5, r1, r1, lsl #24
    22b0:	00016c00 	andeq	r6, r1, r0, lsl #24
    22b4:	50000100 	andpl	r0, r0, r0, lsl #2
    22b8:	0000016c 	andeq	r0, r0, ip, ror #2
    22bc:	0000016c 	andeq	r0, r0, ip, ror #2
    22c0:	017c0003 	cmneq	ip, r3
    22c4:	00016c9f 	muleq	r1, pc, ip	; <UNPREDICTABLE>
    22c8:	00017800 	andeq	r7, r1, r0, lsl #16
    22cc:	7c000300 	stcvc	3, cr0, [r0], {-0}
    22d0:	01789f02 	cmneq	r8, r2, lsl #30
    22d4:	01880000 	orreq	r0, r8, r0
    22d8:	00030000 	andeq	r0, r3, r0
    22dc:	889f017c 	ldmhi	pc, {r2, r3, r4, r5, r6, r8}	; <UNPREDICTABLE>
    22e0:	8c000001 	stchi	0, cr0, [r0], {1}
    22e4:	03000001 	movweq	r0, #1
    22e8:	9f017e00 	svcls	0x00017e00
    22ec:	0000029c 	muleq	r0, ip, r2
    22f0:	000002a4 	andeq	r0, r0, r4, lsr #5
    22f4:	a4500001 	ldrbge	r0, [r0], #-1
    22f8:	ac000002 	stcge	0, cr0, [r0], {2}
    22fc:	03000002 	movweq	r0, #2
    2300:	9f017e00 	svcls	0x00017e00
	...
    230c:	00040004 	andeq	r0, r4, r4
    2310:	015c0100 	cmpeq	ip, r0, lsl #2
    2314:	01600000 	cmneq	r0, r0
    2318:	00030000 	andeq	r0, r3, r0
    231c:	9c9f0171 	ldflss	f0, [pc], {113}	; 0x71
    2320:	a0000002 	andge	r0, r0, r2
    2324:	02000002 	andeq	r0, r0, #2, 0
    2328:	a09f3200 	addsge	r3, pc, r0, lsl #4
    232c:	ac000002 	stcge	0, cr0, [r0], {2}
    2330:	03000002 	movweq	r0, #2
    2334:	9f017100 	svcls	0x00017100
	...
    2340:	00060007 	andeq	r0, r6, r7
    2344:	0000015c 	andeq	r0, r0, ip, asr r1
    2348:	00000194 	muleq	r0, r4, r1
    234c:	9c500001 	mrrcls	0, 0, r0, r0, cr1	; <UNPREDICTABLE>
    2350:	b4000002 	strlt	r0, [r0], #-2
    2354:	01000002 	tsteq	r0, r2
    2358:	00005000 	andeq	r5, r0, r0
    235c:	00000000 	andeq	r0, r0, r0
    2360:	01010000 	mrseq	r0, (UNDEF: 1)
    2364:	02140001 	andseq	r0, r4, #1, 0
    2368:	02200000 	eoreq	r0, r0, #0, 0
    236c:	00020000 	andeq	r0, r2, r0
    2370:	02209f30 	eoreq	r9, r0, #48, 30	; 0xc0
    2374:	02340000 	eorseq	r0, r4, #0, 0
    2378:	00020000 	andeq	r0, r2, r0
    237c:	00009f31 	andeq	r9, r0, r1, lsr pc
    2380:	00000000 	andeq	r0, r0, r0
    2384:	01000000 	mrseq	r0, (UNDEF: 0)
    2388:	01000001 	tsteq	r0, r1
    238c:	01000001 	tsteq	r0, r1
    2390:	01000001 	tsteq	r0, r1
    2394:	01000001 	tsteq	r0, r1
    2398:	02000001 	andeq	r0, r0, #1, 0
    239c:	00800102 	addeq	r0, r0, r2, lsl #2
    23a0:	00800000 	addeq	r0, r0, r0
    23a4:	00010000 	andeq	r0, r1, r0
    23a8:	00008053 	andeq	r8, r0, r3, asr r0
    23ac:	00008c00 	andeq	r8, r0, r0, lsl #24
    23b0:	73000300 	movwvc	r0, #768	; 0x300
    23b4:	008c9f04 	addeq	r9, ip, r4, lsl #30
    23b8:	00940000 	addseq	r0, r4, r0
    23bc:	00010000 	andeq	r0, r1, r0
    23c0:	00009451 	andeq	r9, r0, r1, asr r4
    23c4:	00009800 	andeq	r9, r0, r0, lsl #16
    23c8:	73000300 	movwvc	r0, #768	; 0x300
    23cc:	00989f08 	addseq	r9, r8, r8, lsl #30
    23d0:	00a40000 	adceq	r0, r4, r0
    23d4:	00010000 	andeq	r0, r1, r0
    23d8:	0000a451 	andeq	sl, r0, r1, asr r4
    23dc:	0000a800 	andeq	sl, r0, r0, lsl #16
    23e0:	73000300 	movwvc	r0, #768	; 0x300
    23e4:	00a89f0c 	adceq	r9, r8, ip, lsl #30
    23e8:	00b40000 	adcseq	r0, r4, r0
    23ec:	00010000 	andeq	r0, r1, r0
    23f0:	0000b451 	andeq	fp, r0, r1, asr r4
    23f4:	0000b800 	andeq	fp, r0, r0, lsl #16
    23f8:	73000300 	movwvc	r0, #768	; 0x300
    23fc:	00b89f10 	adcseq	r9, r8, r0, lsl pc
    2400:	00c40000 	sbceq	r0, r4, r0
    2404:	00010000 	andeq	r0, r1, r0
    2408:	0000c451 	andeq	ip, r0, r1, asr r4
    240c:	0000c800 	andeq	ip, r0, r0, lsl #16
    2410:	73000300 	movwvc	r0, #768	; 0x300
    2414:	00c89f14 	sbceq	r9, r8, r4, lsl pc
    2418:	00d00000 	sbcseq	r0, r0, r0
    241c:	00010000 	andeq	r0, r1, r0
    2420:	0000d051 	andeq	sp, r0, r1, asr r0
    2424:	0000d400 	andeq	sp, r0, r0, lsl #8
    2428:	71000300 	mrsvc	r0, LR_irq
    242c:	00009f04 	andeq	r9, r0, r4, lsl #30
    2430:	00000000 	andeq	r0, r0, r0
    2434:	00010000 	andeq	r0, r1, r0
    2438:	00000108 	andeq	r0, r0, r8, lsl #2
    243c:	0000010b 	andeq	r0, r0, fp, lsl #2
    2440:	00510001 	subseq	r0, r1, r1
    2444:	00000000 	andeq	r0, r0, r0
    2448:	02000000 	andeq	r0, r0, #0, 0
    244c:	0000d800 	andeq	sp, r0, r0, lsl #16
    2450:	00011000 	andeq	r1, r1, r0
    2454:	31000200 	mrscc	r0, R8_usr
    2458:	0000009f 	muleq	r0, pc, r0	; <UNPREDICTABLE>
    245c:	00000000 	andeq	r0, r0, r0
    2460:	e0030500 	and	r0, r3, r0, lsl #10
    2464:	e4000000 	str	r0, [r0], #-0
    2468:	02000000 	andeq	r0, r0, #0, 0
    246c:	009f3000 	addseq	r3, pc, r0
    2470:	00000000 	andeq	r0, r0, r0
    2474:	01000000 	mrseq	r0, (UNDEF: 0)
    2478:	0000e400 	andeq	lr, r0, r0, lsl #8
    247c:	0000ef00 	andeq	lr, r0, r0, lsl #30
    2480:	53000100 	movwpl	r0, #256	; 0x100
	...
    248c:	00e40100 	rsceq	r0, r4, r0, lsl #2
    2490:	00ec0000 	rsceq	r0, ip, r0
    2494:	00010000 	andeq	r0, r1, r0
    2498:	00000053 	andeq	r0, r0, r3, asr r0
    249c:	00000000 	andeq	r0, r0, r0
    24a0:	00000400 	andeq	r0, r0, r0, lsl #8
    24a4:	0000f001 	andeq	pc, r0, r1
    24a8:	00010400 	andeq	r0, r1, r0, lsl #8
    24ac:	30000200 	andcc	r0, r0, r0, lsl #4
    24b0:	0001049f 	muleq	r1, pc, r4	; <UNPREDICTABLE>
    24b4:	00010800 	andeq	r0, r1, r0, lsl #16
    24b8:	51000100 	mrspl	r0, (UNDEF: 16)
	...
    24c4:	00f40001 	rscseq	r0, r4, r1
    24c8:	010b0000 	mrseq	r0, (UNDEF: 11)
    24cc:	00010000 	andeq	r0, r1, r0
    24d0:	00000053 	andeq	r0, r0, r3, asr r0
    24d4:	00000000 	andeq	r0, r0, r0
    24d8:	f4010000 	vst4.8	{d0-d3}, [r1], r0
    24dc:	08000000 	stmdaeq	r0, {}	; <UNPREDICTABLE>
    24e0:	01000001 	tsteq	r0, r1
    24e4:	00005300 	andeq	r5, r0, r0, lsl #6
    24e8:	00000000 	andeq	r0, r0, r0
    24ec:	00040000 	andeq	r0, r4, r0
    24f0:	9bbc0100 	blls	fef028f8 <__bss_end__+0xfeef7630>
    24f4:	9bc40000 	blls	ff1024fc <__bss_end__+0xff0f7234>
    24f8:	00020000 	andeq	r0, r2, r0
    24fc:	9bc49f30 	blls	ff12a1c4 <__bss_end__+0xff11eefc>
    2500:	9bc40000 	blls	ff102508 <__bss_end__+0xff0f7240>
    2504:	00010000 	andeq	r0, r1, r0
    2508:	00000053 	andeq	r0, r0, r3, asr r0
    250c:	00000000 	andeq	r0, r0, r0
    2510:	00000300 	andeq	r0, r0, r0, lsl #6
    2514:	00000000 	andeq	r0, r0, r0
    2518:	009bd000 	addseq	sp, fp, r0
    251c:	009bd400 	addseq	sp, fp, r0, lsl #8
    2520:	30000200 	andcc	r0, r0, r0, lsl #4
    2524:	009bd49f 	umullseq	sp, fp, pc, r4	; <UNPREDICTABLE>
    2528:	009bd800 	addseq	sp, fp, r0, lsl #16
    252c:	53000100 	movwpl	r0, #256	; 0x100
    2530:	00009bd8 	ldrdeq	r9, [r0], -r8
    2534:	00009bdc 	ldrdeq	r9, [r0], -ip
    2538:	00730005 	rsbseq	r0, r3, r5
    253c:	dc9f2140 	ldfles	f2, [pc], {64}	; 0x40
    2540:	e000009b 	mul	r0, fp, r0
    2544:	0100009b 	swpeq	r0, fp, [r0]	; <UNPREDICTABLE>
    2548:	00005300 	andeq	r5, r0, r0, lsl #6
    254c:	00000000 	andeq	r0, r0, r0
    2550:	00020000 	andeq	r0, r2, r0
    2554:	9b900000 	blls	fe40255c <__bss_end__+0xfe3f7294>
    2558:	9b940000 	blls	fe502560 <__bss_end__+0xfe4f7298>
    255c:	00020000 	andeq	r0, r2, r0
    2560:	9b949f30 	blls	fe52a228 <__bss_end__+0xfe51ef60>
    2564:	9b980000 	blls	fe60256c <__bss_end__+0xfe5f72a4>
    2568:	00010000 	andeq	r0, r1, r0
    256c:	00000050 	andeq	r0, r0, r0, asr r0
    2570:	00000000 	andeq	r0, r0, r0
    2574:	00000200 	andeq	r0, r0, r0, lsl #4
    2578:	00000000 	andeq	r0, r0, r0
    257c:	009ba800 	addseq	sl, fp, r0, lsl #16
    2580:	009bac00 	addseq	sl, fp, r0, lsl #24
    2584:	30000200 	andcc	r0, r0, r0, lsl #4
    2588:	009bac9f 	umullseq	sl, fp, pc, ip	; <UNPREDICTABLE>
    258c:	009bb000 	addseq	fp, fp, r0
    2590:	53000100 	movwpl	r0, #256	; 0x100
    2594:	00009bb0 			; <UNDEFINED> instruction: 0x00009bb0
    2598:	00009bb4 			; <UNDEFINED> instruction: 0x00009bb4
    259c:	00730005 	rsbseq	r0, r3, r5
    25a0:	b49f2140 	ldrlt	r2, [pc], #320	; 25a8 <__code_start__-0x5a58>
    25a4:	bc00009b 	stclt	0, cr0, [r0], {155}	; 0x9b
    25a8:	0100009b 	swpeq	r0, fp, [r0]	; <UNPREDICTABLE>
    25ac:	00005300 	andeq	r5, r0, r0, lsl #6
	...
    25b8:	00c80000 	sbceq	r0, r8, r0
    25bc:	00d80000 	sbcseq	r0, r8, r0
    25c0:	00010000 	andeq	r0, r1, r0
    25c4:	0000d850 	andeq	sp, r0, r0, asr r8
    25c8:	00011c00 	andeq	r1, r1, r0, lsl #24
    25cc:	f3000400 	vshl.u8	d0, d0, d0
    25d0:	009f5001 	addseq	r5, pc, r1
    25d4:	00000000 	andeq	r0, r0, r0
    25d8:	02000000 	andeq	r0, r0, #0, 0
    25dc:	c8000000 	stmdagt	r0, {}	; <UNPREDICTABLE>
    25e0:	d8000000 	stmdale	r0, {}	; <UNPREDICTABLE>
    25e4:	07000000 	streq	r0, [r0, -r0]
    25e8:	0a007000 	beq	1e5f0 <__bss_end__+0x13328>
    25ec:	9f1e03e8 	svcls	0x001e03e8
    25f0:	000000d8 	ldrdeq	r0, [r0], -r8
    25f4:	0000011c 	andeq	r0, r0, ip, lsl r1
    25f8:	01f30008 	mvnseq	r0, r8
    25fc:	03e80a50 	mvneq	r0, #80, 20	; 0x50000
    2600:	00009f1e 	andeq	r9, r0, lr, lsl pc
	...
    260c:	000000dc 	ldrdeq	r0, [r0], -ip
    2610:	0000011c 	andeq	r0, r0, ip, lsl r1
    2614:	00540001 	subseq	r0, r4, r1
    2618:	00000000 	andeq	r0, r0, r0
    261c:	01000000 	mrseq	r0, (UNDEF: 0)
    2620:	0000f000 	andeq	pc, r0, r0
    2624:	00011c00 	andeq	r1, r1, r0, lsl #24
    2628:	56000100 	strpl	r0, [r0], -r0, lsl #2
	...
    2638:	000000ec 	andeq	r0, r0, ip, ror #1
    263c:	000000ef 	andeq	r0, r0, pc, ror #1
    2640:	ef500001 	svc	0x00500001
    2644:	1c000000 	stcne	0, cr0, [r0], {-0}
    2648:	01000001 	tsteq	r0, r1
    264c:	00005600 	andeq	r5, r0, r0, lsl #12
	...
    2658:	00000104 	andeq	r0, r0, r4, lsl #2
    265c:	0000010b 	andeq	r0, r0, fp, lsl #2
    2660:	00500001 	subseq	r0, r0, r1
	...
    266c:	20000000 	andcs	r0, r0, r0
    2670:	23000000 	movwcs	r0, #0
    2674:	01000000 	mrseq	r0, (UNDEF: 0)
    2678:	00235000 	eoreq	r5, r3, r0
    267c:	00300000 	eorseq	r0, r0, r0
    2680:	00010000 	andeq	r0, r1, r0
    2684:	00000054 	andeq	r0, r0, r4, asr r0
	...
    2690:	00003000 	andeq	r3, r0, r0
    2694:	00003b00 	andeq	r3, r0, r0, lsl #22
    2698:	50000100 	andpl	r0, r0, r0, lsl #2
    269c:	0000003b 	andeq	r0, r0, fp, lsr r0
    26a0:	00000078 	andeq	r0, r0, r8, ror r0
    26a4:	00560001 	subseq	r0, r6, r1
    26a8:	00000000 	andeq	r0, r0, r0
    26ac:	01000000 	mrseq	r0, (UNDEF: 0)
    26b0:	00004c00 	andeq	r4, r0, r0, lsl #24
    26b4:	00007800 	andeq	r7, r0, r0, lsl #16
    26b8:	55000100 	strpl	r0, [r0, #-256]	; 0xffffff00
	...
    26c8:	00000048 	andeq	r0, r0, r8, asr #32
    26cc:	0000004b 	andeq	r0, r0, fp, asr #32
    26d0:	4b500001 	blmi	14026dc <__bss_end__+0x13f7414>
    26d4:	78000000 	stmdavc	r0, {}	; <UNPREDICTABLE>
    26d8:	01000000 	mrseq	r0, (UNDEF: 0)
    26dc:	00005500 	andeq	r5, r0, r0, lsl #10
	...
    26e8:	00000060 	andeq	r0, r0, r0, rrx
    26ec:	00000067 	andeq	r0, r0, r7, rrx
    26f0:	00500001 	subseq	r0, r0, r1
	...
    26fc:	78000000 	stmdavc	r0, {}	; <UNPREDICTABLE>
    2700:	84000000 	strhi	r0, [r0], #-0
    2704:	01000000 	mrseq	r0, (UNDEF: 0)
    2708:	00845000 	addeq	r5, r4, r0
    270c:	00c80000 	sbceq	r0, r8, r0
    2710:	00040000 	andeq	r0, r4, r0
    2714:	9f5001f3 	svcls	0x005001f3
	...
    2720:	00880000 	addeq	r0, r8, r0
    2724:	00c80000 	sbceq	r0, r8, r0
    2728:	00010000 	andeq	r0, r1, r0
    272c:	00000054 	andeq	r0, r0, r4, asr r0
    2730:	00000000 	andeq	r0, r0, r0
    2734:	9c000100 	stflss	f0, [r0], {-0}
    2738:	c8000000 	stmdagt	r0, {}	; <UNPREDICTABLE>
    273c:	01000000 	mrseq	r0, (UNDEF: 0)
    2740:	00005600 	andeq	r5, r0, r0, lsl #12
	...
    274c:	00980000 	addseq	r0, r8, r0
    2750:	009b0000 	addseq	r0, fp, r0
    2754:	00010000 	andeq	r0, r1, r0
    2758:	00009b50 	andeq	r9, r0, r0, asr fp
    275c:	0000c800 	andeq	ip, r0, r0, lsl #16
    2760:	56000100 	strpl	r0, [r0], -r0, lsl #2
	...
    276c:	00b00000 	adcseq	r0, r0, r0
    2770:	00b70000 	adcseq	r0, r7, r0
    2774:	00010000 	andeq	r0, r1, r0
    2778:	00000050 	andeq	r0, r0, r0, asr r0
	...
    2784:	00015800 	andeq	r5, r1, r0, lsl #16
    2788:	00016300 	andeq	r6, r1, r0, lsl #6
    278c:	50000100 	andpl	r0, r0, r0, lsl #2
    2790:	00000163 	andeq	r0, r0, r3, ror #2
    2794:	00000188 	andeq	r0, r0, r8, lsl #3
    2798:	00540001 	subseq	r0, r4, r1
	...
    27a4:	00014800 	andeq	r4, r1, r0, lsl #16
    27a8:	00015800 	andeq	r5, r1, r0, lsl #16
    27ac:	54000100 	strpl	r0, [r0], #-256	; 0xffffff00
	...
    27c0:	0000000f 	andeq	r0, r0, pc
    27c4:	0f500001 	svceq	0x00500001
    27c8:	20000000 	andcs	r0, r0, r0
    27cc:	01000000 	mrseq	r0, (UNDEF: 0)
    27d0:	00005400 	andeq	r5, r0, r0, lsl #8
	...
    27e0:	000f0000 	andeq	r0, pc, r0
    27e4:	00010000 	andeq	r0, r1, r0
    27e8:	00000f51 	andeq	r0, r0, r1, asr pc
    27ec:	00002000 	andeq	r2, r0, r0
    27f0:	55000100 	strpl	r0, [r0, #-256]	; 0xffffff00
	...
    2800:	00000020 	andeq	r0, r0, r0, lsr #32
    2804:	0000002f 	andeq	r0, r0, pc, lsr #32
    2808:	2f500001 	svccs	0x00500001
    280c:	40000000 	andmi	r0, r0, r0
    2810:	01000000 	mrseq	r0, (UNDEF: 0)
    2814:	00005400 	andeq	r5, r0, r0, lsl #8
	...
    2820:	00200000 	eoreq	r0, r0, r0
    2824:	002f0000 	eoreq	r0, pc, r0
    2828:	00010000 	andeq	r0, r1, r0
    282c:	00002f51 	andeq	r2, r0, r1, asr pc
    2830:	00004000 	andeq	r4, r0, r0
    2834:	55000100 	strpl	r0, [r0, #-256]	; 0xffffff00
	...
    2844:	03500000 	cmpeq	r0, #0, 0
    2848:	03980000 	orrseq	r0, r8, #0, 0
    284c:	00010000 	andeq	r0, r1, r0
    2850:	00039850 	andeq	r9, r3, r0, asr r8
    2854:	00039b00 	andeq	r9, r3, r0, lsl #22
    2858:	91000200 	mrsls	r0, R8_usr
    285c:	00039b68 	andeq	r9, r3, r8, ror #22
    2860:	0003b000 	andeq	fp, r3, r0
    2864:	f3000400 	vshl.u8	d0, d0, d0
    2868:	009f5001 	addseq	r5, pc, r1
	...
    2884:	20000000 	andcs	r0, r0, r0
    2888:	7b000002 	blvc	2898 <__code_start__-0x5768>
    288c:	01000002 	tsteq	r0, r2
    2890:	027b5000 	rsbseq	r5, fp, #0, 0
    2894:	02840000 	addeq	r0, r4, #0, 0
    2898:	00040000 	andeq	r0, r4, r0
    289c:	9f5001f3 	svcls	0x005001f3
    28a0:	00000284 	andeq	r0, r0, r4, lsl #5
    28a4:	0000029c 	muleq	r0, ip, r2
    28a8:	9c500001 	mrrcls	0, 0, r0, r0, cr1	; <UNPREDICTABLE>
    28ac:	a4000002 	strge	r0, [r0], #-2
    28b0:	04000002 	streq	r0, [r0], #-2
    28b4:	5001f300 	andpl	pc, r1, r0, lsl #6
    28b8:	0002a49f 	muleq	r2, pc, r4	; <UNPREDICTABLE>
    28bc:	0002a700 	andeq	sl, r2, r0, lsl #14
    28c0:	50000100 	andpl	r0, r0, r0, lsl #2
    28c4:	000002a7 	andeq	r0, r0, r7, lsr #5
    28c8:	000002c8 	andeq	r0, r0, r8, asr #5
    28cc:	01f30004 	mvnseq	r0, r4
    28d0:	02c89f50 	sbceq	r9, r8, #80, 30	; 0x140
    28d4:	02e00000 	rsceq	r0, r0, #0, 0
    28d8:	00010000 	andeq	r0, r1, r0
    28dc:	0002e050 	andeq	lr, r2, r0, asr r0
    28e0:	0002e800 	andeq	lr, r2, r0, lsl #16
    28e4:	f3000400 	vshl.u8	d0, d0, d0
    28e8:	e89f5001 	ldm	pc, {r0, ip, lr}	; <UNPREDICTABLE>
    28ec:	eb000002 	bl	28fc <__code_start__-0x5704>
    28f0:	01000002 	tsteq	r0, r2
    28f4:	02eb5000 	rsceq	r5, fp, #0, 0
    28f8:	03380000 	teqeq	r8, #0, 0
    28fc:	00040000 	andeq	r0, r4, r0
    2900:	9f5001f3 	svcls	0x005001f3
	...
    2920:	00000220 	andeq	r0, r0, r0, lsr #4
    2924:	00000244 	andeq	r0, r0, r4, asr #4
    2928:	44510001 	ldrbmi	r0, [r1], #-1
    292c:	68000002 	stmdavs	r0, {r1}
    2930:	01000002 	tsteq	r0, r2
    2934:	02685100 	rsbeq	r5, r8, #0
    2938:	027b0000 	rsbseq	r0, fp, #0, 0
    293c:	00030000 	andeq	r0, r3, r0
    2940:	7b9f0171 	blvc	fe7c2f0c <__bss_end__+0xfe7b7c44>
    2944:	84000002 	strhi	r0, [r0], #-2
    2948:	17000002 	strne	r0, [r0, -r2]
    294c:	01f33800 	mvnseq	r3, r0, lsl #16
    2950:	5101f351 	tstpl	r1, r1, asr r3	; <UNPREDICTABLE>
    2954:	22244b40 	eorcs	r4, r4, #64, 22	; 0x10000
    2958:	0000080c 	andeq	r0, r0, ip, lsl #16
    295c:	01282d80 	smlawbeq	r8, r0, sp, r2
    2960:	9f131600 	svcls	0x00131600
    2964:	00000284 	andeq	r0, r0, r4, lsl #5
    2968:	00000298 	muleq	r0, r8, r2
    296c:	98510001 	ldmdals	r1, {r0}^
    2970:	a4000002 	strge	r0, [r0], #-2
    2974:	04000002 	streq	r0, [r0], #-2
    2978:	5101f300 	mrspl	pc, SP_irq	; <UNPREDICTABLE>
    297c:	0002a49f 	muleq	r2, pc, r4	; <UNPREDICTABLE>
    2980:	0002a700 	andeq	sl, r2, r0, lsl #14
    2984:	51000100 	mrspl	r0, (UNDEF: 16)
    2988:	000002a7 	andeq	r0, r0, r7, lsr #5
    298c:	000002c8 	andeq	r0, r0, r8, asr #5
    2990:	01f30004 	mvnseq	r0, r4
    2994:	02c89f51 	sbceq	r9, r8, #324	; 0x144
    2998:	02dc0000 	sbcseq	r0, ip, #0, 0
    299c:	00010000 	andeq	r0, r1, r0
    29a0:	0002dc51 	andeq	sp, r2, r1, asr ip
    29a4:	00033800 	andeq	r3, r3, r0, lsl #16
    29a8:	38001700 	stmdacc	r0, {r8, r9, sl, ip}
    29ac:	f35101f3 	vbsl	q8, <illegal reg q8.5>, <illegal reg q9.5>
    29b0:	4b405101 	blmi	1016dbc <__bss_end__+0x100baf4>
    29b4:	080c2224 	stmdaeq	ip, {r2, r5, r9, sp}
    29b8:	2d800000 	stccs	0, cr0, [r0]
    29bc:	16000128 	strne	r0, [r0], -r8, lsr #2
    29c0:	00009f13 	andeq	r9, r0, r3, lsl pc
	...
    29d4:	024c0000 	subeq	r0, ip, #0, 0
    29d8:	025c0000 	subseq	r0, ip, #0, 0
    29dc:	00010000 	andeq	r0, r1, r0
    29e0:	00025c52 	andeq	r5, r2, r2, asr ip
    29e4:	00026400 	andeq	r6, r2, r0, lsl #8
    29e8:	03000500 	movweq	r0, #1280	; 0x500
    29ec:	0000ae88 	andeq	sl, r0, r8, lsl #29
    29f0:	00000264 	andeq	r0, r0, r4, ror #4
    29f4:	0000027b 	andeq	r0, r0, fp, ror r2
    29f8:	c8530001 	ldmdagt	r3, {r0}^
    29fc:	d8000002 	stmdale	r0, {r1}
    2a00:	01000002 	tsteq	r0, r2
    2a04:	02d85200 	sbcseq	r5, r8, #0, 4
    2a08:	02e30000 	rsceq	r0, r3, #0, 0
    2a0c:	00050000 	andeq	r0, r5, r0
    2a10:	00ae8803 	adceq	r8, lr, r3, lsl #16
    2a14:	0002e800 	andeq	lr, r2, r0, lsl #16
    2a18:	0002eb00 	andeq	lr, r2, r0, lsl #22
    2a1c:	53000100 	movwpl	r0, #256	; 0x100
	...
    2a28:	02300004 	eorseq	r0, r0, #4, 0
    2a2c:	02340000 	eorseq	r0, r4, #0, 0
    2a30:	00010000 	andeq	r0, r1, r0
    2a34:	00000051 	andeq	r0, r0, r1, asr r0
    2a38:	00000000 	andeq	r0, r0, r0
    2a3c:	3c000200 	sfmcc	f0, 4, [r0], {-0}
    2a40:	44000002 	strmi	r0, [r0], #-2
    2a44:	02000002 	andeq	r0, r0, #2, 0
    2a48:	009f3800 	addseq	r3, pc, r0, lsl #16
    2a4c:	00000000 	andeq	r0, r0, r0
    2a50:	02000000 	andeq	r0, r0, #0, 0
    2a54:	00023c00 	andeq	r3, r2, r0, lsl #24
    2a58:	00024400 	andeq	r4, r2, r0, lsl #8
    2a5c:	51000100 	mrspl	r0, (UNDEF: 16)
	...
    2a68:	00000001 	andeq	r0, r0, r1
    2a6c:	024c0000 	subeq	r0, ip, #0, 0
    2a70:	02640000 	rsbeq	r0, r4, #0, 0
    2a74:	00010000 	andeq	r0, r1, r0
    2a78:	0002c851 	andeq	ip, r2, r1, asr r8
    2a7c:	0002dc00 	andeq	sp, r2, r0, lsl #24
    2a80:	51000100 	mrspl	r0, (UNDEF: 16)
    2a84:	000002dc 	ldrdeq	r0, [r0], -ip
    2a88:	000002e8 	andeq	r0, r0, r8, ror #5
    2a8c:	f3380017 	vqadd.u64	d0, d8, d7
    2a90:	01f35101 	mvnseq	r5, r1, lsl #2
    2a94:	244b4051 	strbcs	r4, [fp], #-81	; 0xffffffaf
    2a98:	00080c22 	andeq	r0, r8, r2, lsr #24
    2a9c:	282d8000 	stmdacs	sp!, {pc}
    2aa0:	13160001 	tstne	r6, #1, 0
    2aa4:	0000009f 	muleq	r0, pc, r0	; <UNPREDICTABLE>
    2aa8:	00000000 	andeq	r0, r0, r0
    2aac:	00000100 	andeq	r0, r0, r0, lsl #2
    2ab0:	00000000 	andeq	r0, r0, r0
    2ab4:	00024c00 	andeq	r4, r2, r0, lsl #24
    2ab8:	00025c00 	andeq	r5, r2, r0, lsl #24
    2abc:	52000100 	andpl	r0, r0, #0
    2ac0:	0000025c 	andeq	r0, r0, ip, asr r2
    2ac4:	00000264 	andeq	r0, r0, r4, ror #4
    2ac8:	88030005 	stmdahi	r3, {r0, r2}
    2acc:	c80000ae 	stmdagt	r0, {r1, r2, r3, r5, r7}
    2ad0:	d8000002 	stmdale	r0, {r1}
    2ad4:	01000002 	tsteq	r0, r2
    2ad8:	02d85200 	sbcseq	r5, r8, #0, 4
    2adc:	02e30000 	rsceq	r0, r3, #0, 0
    2ae0:	00050000 	andeq	r0, r5, r0
    2ae4:	00ae8803 	adceq	r8, lr, r3, lsl #16
	...
    2af0:	4c000400 	cfstrsmi	mvf0, [r0], {-0}
    2af4:	50000002 	andpl	r0, r0, r2
    2af8:	01000002 	tsteq	r0, r2
    2afc:	00005100 	andeq	r5, r0, r0, lsl #2
    2b00:	00000000 	andeq	r0, r0, r0
    2b04:	00030000 	andeq	r0, r3, r0
    2b08:	00000264 	andeq	r0, r0, r4, ror #4
    2b0c:	00000268 	andeq	r0, r0, r8, ror #4
    2b10:	00510001 	subseq	r0, r1, r1
    2b14:	00000000 	andeq	r0, r0, r0
    2b18:	03000000 	movweq	r0, #0
    2b1c:	00026400 	andeq	r6, r2, r0, lsl #8
    2b20:	00026800 	andeq	r6, r2, r0, lsl #16
    2b24:	53000100 	movwpl	r0, #256	; 0x100
	...
    2b38:	000001bc 			; <UNDEFINED> instruction: 0x000001bc
    2b3c:	000001d3 	ldrdeq	r0, [r0], -r3
    2b40:	d3500001 	cmple	r0, #1, 0
    2b44:	f0000001 			; <UNDEFINED> instruction: 0xf0000001
    2b48:	01000001 	tsteq	r0, r1
    2b4c:	01f05400 	mvnseq	r5, r0, lsl #8
    2b50:	02080000 	andeq	r0, r8, #0, 0
    2b54:	00010000 	andeq	r0, r1, r0
    2b58:	00020850 	andeq	r0, r2, r0, asr r8
    2b5c:	00022000 	andeq	r2, r2, r0
    2b60:	54000100 	strpl	r0, [r0], #-256	; 0xffffff00
	...
    2b70:	000001d8 	ldrdeq	r0, [r0], -r8
    2b74:	000001e3 	andeq	r0, r0, r3, ror #3
    2b78:	e3500001 	cmp	r0, #1, 0
    2b7c:	f0000001 			; <UNDEFINED> instruction: 0xf0000001
    2b80:	01000001 	tsteq	r0, r1
    2b84:	00005500 	andeq	r5, r0, r0, lsl #10
	...
    2b9c:	01240000 			; <UNDEFINED> instruction: 0x01240000
    2ba0:	01380000 	teqeq	r8, r0
    2ba4:	00010000 	andeq	r0, r1, r0
    2ba8:	00013850 	andeq	r3, r1, r0, asr r8
    2bac:	00013c00 	andeq	r3, r1, r0, lsl #24
    2bb0:	70000300 	andvc	r0, r0, r0, lsl #6
    2bb4:	013c9f79 	teqeq	ip, r9, ror pc
    2bb8:	01600000 	cmneq	r0, r0
    2bbc:	00010000 	andeq	r0, r1, r0
    2bc0:	00016053 	andeq	r6, r1, r3, asr r0
    2bc4:	00017800 	andeq	r7, r1, r0, lsl #16
    2bc8:	50000100 	andpl	r0, r0, r0, lsl #2
    2bcc:	00000178 	andeq	r0, r0, r8, ror r1
    2bd0:	00000180 	andeq	r0, r0, r0, lsl #3
    2bd4:	01f30004 	mvnseq	r0, r4
    2bd8:	01809f50 	orreq	r9, r0, r0, asr pc
    2bdc:	01900000 	orrseq	r0, r0, r0
    2be0:	00010000 	andeq	r0, r1, r0
    2be4:	00019053 	andeq	r9, r1, r3, asr r0
    2be8:	00019f00 	andeq	r9, r1, r0, lsl #30
    2bec:	91000200 	mrsls	r0, R8_usr
    2bf0:	00019f68 	andeq	r9, r1, r8, ror #30
    2bf4:	0001bc00 	andeq	fp, r1, r0, lsl #24
    2bf8:	f3000900 	vmls.i8	d0, d0, d0
    2bfc:	07235001 	streq	r5, [r3, -r1]!
    2c00:	9f1af809 	svcls	0x001af809
	...
    2c10:	00000144 	andeq	r0, r0, r4, asr #2
    2c14:	00000160 	andeq	r0, r0, r0, ror #2
    2c18:	80500001 	subshi	r0, r0, r1
    2c1c:	9c000001 	stcls	0, cr0, [r0], {1}
    2c20:	01000001 	tsteq	r0, r1
    2c24:	00005000 	andeq	r5, r0, r0
    2c28:	00000000 	andeq	r0, r0, r0
    2c2c:	00030000 	andeq	r0, r3, r0
    2c30:	00000134 	andeq	r0, r0, r4, lsr r1
    2c34:	0000013c 	andeq	r0, r0, ip, lsr r1
    2c38:	9f380002 	svcls	0x00380002
	...
    2c44:	00000003 	andeq	r0, r0, r3
    2c48:	00000134 	andeq	r0, r0, r4, lsr r1
    2c4c:	00000138 	andeq	r0, r0, r8, lsr r1
    2c50:	38500001 	ldmdacc	r0, {r0}^
    2c54:	3c000001 	stccc	0, cr0, [r0], {1}
    2c58:	03000001 	movweq	r0, #1
    2c5c:	9f797000 	svcls	0x00797000
	...
    2c74:	00300000 	eorseq	r0, r0, r0
    2c78:	00600000 	rsbeq	r0, r0, r0
    2c7c:	00010000 	andeq	r0, r1, r0
    2c80:	00006050 	andeq	r6, r0, r0, asr r0
    2c84:	00006c00 	andeq	r6, r0, r0, lsl #24
    2c88:	03000500 	movweq	r0, #1280	; 0x500
    2c8c:	0000ae88 	andeq	sl, r0, r8, lsl #29
    2c90:	0000006c 	andeq	r0, r0, ip, rrx
    2c94:	00000084 	andeq	r0, r0, r4, lsl #1
    2c98:	84500001 	ldrbhi	r0, [r0], #-1
    2c9c:	8c000000 	stchi	0, cr0, [r0], {-0}
    2ca0:	04000000 	streq	r0, [r0], #-0
    2ca4:	5001f300 	andpl	pc, r1, r0, lsl #6
    2ca8:	00008c9f 	muleq	r0, pc, ip	; <UNPREDICTABLE>
    2cac:	0000ac00 	andeq	sl, r0, r0, lsl #24
    2cb0:	50000100 	andpl	r0, r0, r0, lsl #2
    2cb4:	000000ac 	andeq	r0, r0, ip, lsr #1
    2cb8:	000000af 	andeq	r0, r0, pc, lsr #1
    2cbc:	68910002 	ldmvs	r1, {r1}
    2cc0:	000000af 	andeq	r0, r0, pc, lsr #1
    2cc4:	000000cc 	andeq	r0, r0, ip, asr #1
    2cc8:	01f30004 	mvnseq	r0, r4
    2ccc:	00009f50 	andeq	r9, r0, r0, asr pc
	...
    2cdc:	00300000 	eorseq	r0, r0, r0
    2ce0:	00800000 	addeq	r0, r0, r0
    2ce4:	00010000 	andeq	r0, r1, r0
    2ce8:	00008051 	andeq	r8, r0, r1, asr r0
    2cec:	00008c00 	andeq	r8, r0, r0, lsl #24
    2cf0:	f3000400 	vshl.u8	d0, d0, d0
    2cf4:	8c9f5101 	ldfhis	f5, [pc], {1}
    2cf8:	a8000000 	stmdage	r0, {}	; <UNPREDICTABLE>
    2cfc:	01000000 	mrseq	r0, (UNDEF: 0)
    2d00:	00a85100 	adceq	r5, r8, r0, lsl #2
    2d04:	00cc0000 	sbceq	r0, ip, r0
    2d08:	00040000 	andeq	r0, r4, r0
    2d0c:	9f5101f3 	svcls	0x005101f3
	...
    2d18:	00000001 	andeq	r0, r0, r1
	...
    2d24:	00380000 	eorseq	r0, r8, r0
    2d28:	00600000 	rsbeq	r0, r0, r0
    2d2c:	00010000 	andeq	r0, r1, r0
    2d30:	00006050 	andeq	r6, r0, r0, asr r0
    2d34:	00006c00 	andeq	r6, r0, r0, lsl #24
    2d38:	03000500 	movweq	r0, #1280	; 0x500
    2d3c:	0000ae88 	andeq	sl, r0, r8, lsl #29
    2d40:	0000006c 	andeq	r0, r0, ip, rrx
    2d44:	00000084 	andeq	r0, r0, r4, lsl #1
    2d48:	84500001 	ldrbhi	r0, [r0], #-1
    2d4c:	8c000000 	stchi	0, cr0, [r0], {-0}
    2d50:	04000000 	streq	r0, [r0], #-0
    2d54:	5001f300 	andpl	pc, r1, r0, lsl #6
    2d58:	00008c9f 	muleq	r0, pc, ip	; <UNPREDICTABLE>
    2d5c:	0000ac00 	andeq	sl, r0, r0, lsl #24
    2d60:	50000100 	andpl	r0, r0, r0, lsl #2
    2d64:	000000ac 	andeq	r0, r0, ip, lsr #1
    2d68:	000000af 	andeq	r0, r0, pc, lsr #1
    2d6c:	68910002 	ldmvs	r1, {r1}
    2d70:	000000af 	andeq	r0, r0, pc, lsr #1
    2d74:	000000cc 	andeq	r0, r0, ip, asr #1
    2d78:	01f30004 	mvnseq	r0, r4
    2d7c:	00009f50 	andeq	r9, r0, r0, asr pc
	...
    2d8c:	00000170 	andeq	r0, r0, r0, ror r1
    2d90:	0000017c 	andeq	r0, r0, ip, ror r1
    2d94:	7c500001 	mrrcvc	0, 0, r0, r0, cr1	; <UNPREDICTABLE>
    2d98:	88000001 	stmdahi	r0, {r0}
    2d9c:	01000001 	tsteq	r0, r1
    2da0:	01885400 	orreq	r5, r8, r0, lsl #8
    2da4:	01980000 	orrseq	r0, r8, r0
    2da8:	00040000 	andeq	r0, r4, r0
    2dac:	9f5001f3 	svcls	0x005001f3
	...
    2dc0:	01780000 	cmneq	r8, r0
    2dc4:	017c0000 	cmneq	ip, r0
    2dc8:	000b0000 	andeq	r0, fp, r0
    2dcc:	25350070 	ldrcs	r0, [r5, #-112]!	; 0xffffff90
    2dd0:	8080b423 	addhi	fp, r0, r3, lsr #8
    2dd4:	7c9f0281 	lfmvc	f0, 4, [pc], {129}	; 0x81
    2dd8:	80000001 	andhi	r0, r0, r1
    2ddc:	0b000001 	bleq	2de8 <__code_start__-0x5218>
    2de0:	35007400 	strcc	r7, [r0, #-1024]	; 0xfffffc00
    2de4:	80b42325 	adcshi	r2, r4, r5, lsr #6
    2de8:	9f028180 	svcls	0x00028180
    2dec:	00000180 	andeq	r0, r0, r0, lsl #3
    2df0:	00000183 	andeq	r0, r0, r3, lsl #3
    2df4:	83500001 	cmphi	r0, #1, 0
    2df8:	88000001 	stmdahi	r0, {r0}
    2dfc:	0b000001 	bleq	2e08 <__code_start__-0x51f8>
    2e00:	35007400 	strcc	r7, [r0, #-1024]	; 0xfffffc00
    2e04:	80b42325 	adcshi	r2, r4, r5, lsr #6
    2e08:	9f028180 	svcls	0x00028180
    2e0c:	00000188 	andeq	r0, r0, r8, lsl #3
    2e10:	00000198 	muleq	r0, r8, r1
    2e14:	01f3000c 	mvnseq	r0, ip
    2e18:	23253550 			; <UNDEFINED> instruction: 0x23253550
    2e1c:	818080b4 	strhhi	r8, [r0, r4]
    2e20:	00009f02 	andeq	r9, r0, r2, lsl #30
    2e24:	00000000 	andeq	r0, r0, r0
    2e28:	00010000 	andeq	r0, r1, r0
    2e2c:	00000000 	andeq	r0, r0, r0
    2e30:	00000178 	andeq	r0, r0, r8, ror r1
    2e34:	0000017c 	andeq	r0, r0, ip, ror r1
    2e38:	00700005 	rsbseq	r0, r0, r5
    2e3c:	7c9f1a4f 	vldmiavc	pc, {s2-s80}
    2e40:	88000001 	stmdahi	r0, {r0}
    2e44:	05000001 	streq	r0, [r0, #-1]
    2e48:	4f007400 	svcmi	0x00007400
    2e4c:	01889f1a 	orreq	r9, r8, sl, lsl pc
    2e50:	01980000 	orrseq	r0, r8, r0
    2e54:	00010000 	andeq	r0, r1, r0
    2e58:	00000054 	andeq	r0, r0, r4, asr r0
	...
    2e6c:	00014000 	andeq	r4, r1, r0
    2e70:	00015400 	andeq	r5, r1, r0, lsl #8
    2e74:	50000100 	andpl	r0, r0, r0, lsl #2
    2e78:	00000154 	andeq	r0, r0, r4, asr r1
    2e7c:	00000158 	andeq	r0, r0, r8, asr r1
    2e80:	58510001 	ldmdapl	r1, {r0}^
    2e84:	5c000001 	stcpl	0, cr0, [r0], {1}
    2e88:	04000001 	streq	r0, [r0], #-1
    2e8c:	5001f300 	andpl	pc, r1, r0, lsl #6
    2e90:	00015c9f 	muleq	r1, pc, ip	; <UNPREDICTABLE>
    2e94:	00016000 	andeq	r6, r1, r0
    2e98:	50000100 	andpl	r0, r0, r0, lsl #2
    2e9c:	00000160 	andeq	r0, r0, r0, ror #2
    2ea0:	00000164 	andeq	r0, r0, r4, ror #2
    2ea4:	64510001 	ldrbvs	r0, [r1], #-1
    2ea8:	70000001 	andvc	r0, r0, r1
    2eac:	04000001 	streq	r0, [r0], #-1
    2eb0:	5001f300 	andpl	pc, r1, r0, lsl #6
    2eb4:	0000009f 	muleq	r0, pc, r0	; <UNPREDICTABLE>
	...
    2ec0:	00014000 	andeq	r4, r1, r0
    2ec4:	00014c00 	andeq	r4, r1, r0, lsl #24
    2ec8:	51000100 	mrspl	r0, (UNDEF: 16)
    2ecc:	0000014c 	andeq	r0, r0, ip, asr #2
    2ed0:	00000170 	andeq	r0, r0, r0, ror r1
    2ed4:	01f30004 	mvnseq	r0, r4
    2ed8:	00009f51 	andeq	r9, r0, r1, asr pc
    2edc:	00000000 	andeq	r0, r0, r0
    2ee0:	00010000 	andeq	r0, r1, r0
    2ee4:	00000000 	andeq	r0, r0, r0
    2ee8:	00000150 	andeq	r0, r0, r0, asr r1
    2eec:	00000154 	andeq	r0, r0, r4, asr r1
    2ef0:	54500001 	ldrbpl	r0, [r0], #-1
    2ef4:	58000001 	stmdapl	r0, {r0}
    2ef8:	01000001 	tsteq	r0, r1
    2efc:	01585100 	cmpeq	r8, r0, lsl #2
    2f00:	015c0000 	cmpeq	ip, r0
    2f04:	00040000 	andeq	r0, r4, r0
    2f08:	9f5001f3 	svcls	0x005001f3
	...
    2f14:	00000002 	andeq	r0, r0, r2
    2f18:	015c0000 	cmpeq	ip, r0
    2f1c:	01600000 	cmneq	r0, r0
    2f20:	00010000 	andeq	r0, r1, r0
    2f24:	00016050 	andeq	r6, r1, r0, asr r0
    2f28:	00016400 	andeq	r6, r1, r0, lsl #8
    2f2c:	51000100 	mrspl	r0, (UNDEF: 16)
    2f30:	00000164 	andeq	r0, r0, r4, ror #2
    2f34:	00000170 	andeq	r0, r0, r0, ror r1
    2f38:	01f30004 	mvnseq	r0, r4
    2f3c:	00009f50 	andeq	r9, r0, r0, asr pc
	...
    2f4c:	000000e8 	andeq	r0, r0, r8, ror #1
    2f50:	00000108 	andeq	r0, r0, r8, lsl #2
    2f54:	08500001 	ldmdaeq	r0, {r0}^
    2f58:	28000001 	stmdacs	r0, {r0}
    2f5c:	01000001 	tsteq	r0, r1
    2f60:	01285400 			; <UNDEFINED> instruction: 0x01285400
    2f64:	01400000 	mrseq	r0, (UNDEF: 64)
    2f68:	00040000 	andeq	r0, r4, r0
    2f6c:	9f5001f3 	svcls	0x005001f3
	...
    2f78:	00000002 	andeq	r0, r0, r2
    2f7c:	00e80000 	rsceq	r0, r8, r0
    2f80:	01080000 	mrseq	r0, (UNDEF: 8)
    2f84:	00010000 	andeq	r0, r1, r0
    2f88:	00010850 	andeq	r0, r1, r0, asr r8
    2f8c:	00012800 	andeq	r2, r1, r0, lsl #16
    2f90:	54000100 	strpl	r0, [r0], #-256	; 0xffffff00
    2f94:	00000128 	andeq	r0, r0, r8, lsr #2
    2f98:	00000140 	andeq	r0, r0, r0, asr #2
    2f9c:	01f30004 	mvnseq	r0, r4
    2fa0:	00009f50 	andeq	r9, r0, r0, asr pc
	...
    2fb0:	000000f0 	strdeq	r0, [r0], -r0	; <UNPREDICTABLE>
    2fb4:	00000108 	andeq	r0, r0, r8, lsl #2
    2fb8:	08500001 	ldmdaeq	r0, {r0}^
    2fbc:	28000001 	stmdacs	r0, {r0}
    2fc0:	01000001 	tsteq	r0, r1
    2fc4:	01285400 			; <UNDEFINED> instruction: 0x01285400
    2fc8:	01400000 	mrseq	r0, (UNDEF: 64)
    2fcc:	00040000 	andeq	r0, r4, r0
    2fd0:	9f5001f3 	svcls	0x005001f3
	...
    2fdc:	00000003 	andeq	r0, r0, r3
    2fe0:	00f00000 	rscseq	r0, r0, r0
    2fe4:	01080000 	mrseq	r0, (UNDEF: 8)
    2fe8:	00070000 	andeq	r0, r7, r0
    2fec:	1d3a0070 	ldcne	0, cr0, [sl, #-448]!	; 0xfffffe40
    2ff0:	089f1e33 	ldmeq	pc, {r0, r1, r4, r5, r9, sl, fp, ip}	; <UNPREDICTABLE>
    2ff4:	28000001 	stmdacs	r0, {r0}
    2ff8:	07000001 	streq	r0, [r0, -r1]
    2ffc:	3a007400 	bcc	20004 <__bss_end__+0x14d3c>
    3000:	9f1e331d 	svcls	0x001e331d
    3004:	00000128 	andeq	r0, r0, r8, lsr #2
    3008:	00000140 	andeq	r0, r0, r0, asr #2
    300c:	01f30008 	mvnseq	r0, r8
    3010:	331d3a50 	tstcc	sp, #80, 20	; 0x50000
    3014:	00009f1e 	andeq	r9, r0, lr, lsl pc
	...
    3024:	00000110 	andeq	r0, r0, r0, lsl r1
    3028:	00000138 	andeq	r0, r0, r8, lsr r1
    302c:	38560001 	ldmdacc	r6, {r0}^
    3030:	3b000001 	blcc	303c <__code_start__-0x4fc4>
    3034:	01000001 	tsteq	r0, r1
    3038:	013b5000 	teqeq	fp, r0
    303c:	01400000 	mrseq	r0, (UNDEF: 64)
    3040:	00260000 	eoreq	r0, r6, r0
    3044:	f75001f3 			; <UNDEFINED> instruction: 0xf75001f3
    3048:	f425f72c 	vld1.8	{d15}, [r5 :128], ip
    304c:	cccd0825 	stclgt	8, cr0, [sp], {37}	; 0x25
    3050:	0000cccc 	andeq	ip, r0, ip, asr #25
    3054:	081e0000 	ldmdaeq	lr, {}	; <UNPREDICTABLE>
    3058:	2525f720 	strcs	pc, [r5, #-1824]!	; 0xfffff8e0
    305c:	00f72cf7 	ldrshteq	r2, [r7], #199	; 0xc7
    3060:	80232533 	eorhi	r2, r3, r3, lsr r5
    3064:	3240a080 	subcc	sl, r0, #128, 0	; 0x80
    3068:	00009f24 	andeq	r9, r0, r4, lsr #30
    306c:	00000000 	andeq	r0, r0, r0
    3070:	01000000 	mrseq	r0, (UNDEF: 0)
    3074:	00000001 	andeq	r0, r0, r1
    3078:	01200000 			; <UNDEFINED> instruction: 0x01200000
    307c:	01200000 			; <UNDEFINED> instruction: 0x01200000
    3080:	00010000 	andeq	r0, r1, r0
    3084:	00012050 	andeq	r2, r1, r0, asr r0
    3088:	00012800 	andeq	r2, r1, r0, lsl #16
    308c:	37000d00 	strcc	r0, [r0, -r0, lsl #26]
    3090:	1d3a0074 	ldcne	0, cr0, [sl, #-464]!	; 0xfffffe30
    3094:	20241e33 	eorcs	r1, r4, r3, lsr lr
    3098:	9f1a0070 	svcls	0x001a0070
    309c:	00000128 	andeq	r0, r0, r8, lsr #2
    30a0:	00000130 	andeq	r0, r0, r0, lsr r1
    30a4:	f337000e 	vhadd.u<illegal width 64>	d0, d7, d14
    30a8:	1d3a5001 	ldcne	0, cr5, [sl, #-4]!
    30ac:	20241e33 	eorcs	r1, r4, r3, lsr lr
    30b0:	9f1a0070 	svcls	0x001a0070
    30b4:	00000130 	andeq	r0, r0, r0, lsr r1
    30b8:	0000013b 	andeq	r0, r0, fp, lsr r1
    30bc:	f337000e 	vhadd.u<illegal width 64>	d0, d7, d14
    30c0:	1d3a5001 	ldcne	0, cr5, [sl, #-4]!
    30c4:	20241e33 	eorcs	r1, r4, r3, lsr lr
    30c8:	9f1a0073 	svcls	0x001a0073
	...
    30d8:	00000060 	andeq	r0, r0, r0, rrx
    30dc:	00000090 	muleq	r0, r0, r0
    30e0:	90500001 	subsls	r0, r0, r1
    30e4:	b8000000 	stmdalt	r0, {}	; <UNPREDICTABLE>
    30e8:	04000000 	streq	r0, [r0], #-0
    30ec:	5001f300 	andpl	pc, r1, r0, lsl #6
    30f0:	0000009f 	muleq	r0, pc, r0	; <UNPREDICTABLE>
    30f4:	00000000 	andeq	r0, r0, r0
    30f8:	00000200 	andeq	r0, r0, r0, lsl #4
    30fc:	00006000 	andeq	r6, r0, r0
    3100:	00009000 	andeq	r9, r0, r0
    3104:	50000100 	andpl	r0, r0, r0, lsl #2
    3108:	00000090 	muleq	r0, r0, r0
    310c:	000000b8 	strheq	r0, [r0], -r8
    3110:	01f30004 	mvnseq	r0, r4
    3114:	00009f50 	andeq	r9, r0, r0, asr pc
	...
    3120:	00680000 	rsbeq	r0, r8, r0
    3124:	00900000 	addseq	r0, r0, r0
    3128:	00010000 	andeq	r0, r1, r0
    312c:	00009050 	andeq	r9, r0, r0, asr r0
    3130:	0000b800 	andeq	fp, r0, r0, lsl #16
    3134:	f3000400 	vshl.u8	d0, d0, d0
    3138:	009f5001 	addseq	r5, pc, r1
	...
    3144:	a0000000 	andge	r0, r0, r0
    3148:	b0000000 	andlt	r0, r0, r0
    314c:	01000000 	mrseq	r0, (UNDEF: 0)
    3150:	00b05400 	adcseq	r5, r0, r0, lsl #8
    3154:	00b80000 	adcseq	r0, r8, r0
    3158:	00290000 	eoreq	r0, r9, r0
    315c:	f35001f3 	vbsl	q8, q8, <illegal reg q9.5>
    3160:	2cf75001 	ldclcs	0, cr5, [r7], #4
    3164:	25f425f7 	ldrbcs	r2, [r4, #1527]!	; 0x5f7
    3168:	cccccd08 	stclgt	13, cr12, [ip], {8}
    316c:	000000cc 	andeq	r0, r0, ip, asr #1
    3170:	20081e00 	andcs	r1, r8, r0, lsl #28
    3174:	f72525f7 			; <UNDEFINED> instruction: 0xf72525f7
    3178:	3300f72c 	movwcc	pc, #1836	; 0x72c	; <UNPREDICTABLE>
    317c:	311e3525 	tstcc	lr, r5, lsr #10
    3180:	1e331c24 	cdpne	12, 3, cr1, cr3, cr4, {1}
    3184:	0000009f 	muleq	r0, pc, r0	; <UNPREDICTABLE>
    3188:	00000000 	andeq	r0, r0, r0
    318c:	00000100 	andeq	r0, r0, r0, lsl #2
    3190:	a0000000 	andge	r0, r0, r0
    3194:	b0000000 	andlt	r0, r0, r0
    3198:	01000000 	mrseq	r0, (UNDEF: 0)
    319c:	00b05500 	adcseq	r5, r0, r0, lsl #10
    31a0:	00b30000 	adcseq	r0, r3, r0
    31a4:	00010000 	andeq	r0, r1, r0
    31a8:	0000b350 	andeq	fp, r0, r0, asr r3
    31ac:	0000b800 	andeq	fp, r0, r0, lsl #16
    31b0:	f3002600 	vmax.u8	d2, d0, d0
    31b4:	2cf75001 	ldclcs	0, cr5, [r7], #4
    31b8:	25f425f7 	ldrbcs	r2, [r4, #1527]!	; 0x5f7
    31bc:	cccccd08 	stclgt	13, cr12, [ip], {8}
    31c0:	000000cc 	andeq	r0, r0, ip, asr #1
    31c4:	20081e00 	andcs	r1, r8, r0, lsl #28
    31c8:	f72525f7 			; <UNDEFINED> instruction: 0xf72525f7
    31cc:	3300f72c 	movwcc	pc, #1836	; 0x72c	; <UNPREDICTABLE>
    31d0:	80802325 	addhi	r2, r0, r5, lsr #6
    31d4:	243240a0 	ldrtcs	r4, [r2], #-160	; 0xffffff60
    31d8:	0000009f 	muleq	r0, pc, r0	; <UNPREDICTABLE>
    31dc:	00000000 	andeq	r0, r0, r0
    31e0:	00000200 	andeq	r0, r0, r0, lsl #4
    31e4:	00000101 	andeq	r0, r0, r1, lsl #2
    31e8:	0000a000 	andeq	sl, r0, r0
    31ec:	0000a400 	andeq	sl, r0, r0, lsl #8
    31f0:	50000100 	andpl	r0, r0, r0, lsl #2
    31f4:	000000a4 	andeq	r0, r0, r4, lsr #1
    31f8:	000000a4 	andeq	r0, r0, r4, lsr #1
    31fc:	a4530001 	ldrbge	r0, [r3], #-1
    3200:	a8000000 	stmdage	r0, {}	; <UNPREDICTABLE>
    3204:	08000000 	stmdaeq	r0, {}	; <UNPREDICTABLE>
    3208:	00743100 	rsbseq	r3, r4, r0, lsl #2
    320c:	21007324 	tstcs	r0, r4, lsr #6
    3210:	0000a89f 	muleq	r0, pc, r8	; <UNPREDICTABLE>
    3214:	0000b300 	andeq	fp, r0, r0, lsl #6
    3218:	51000100 	mrspl	r0, (UNDEF: 16)
	...
    322c:	0000003c 	andeq	r0, r0, ip, lsr r0
    3230:	3c500001 	mrrccc	0, 0, r0, r0, cr1	; <UNPREDICTABLE>
    3234:	60000000 	andvs	r0, r0, r0
    3238:	04000000 	streq	r0, [r0], #-0
    323c:	5001f300 	andpl	pc, r1, r0, lsl #6
    3240:	0000009f 	muleq	r0, pc, r0	; <UNPREDICTABLE>
	...
    3250:	00003f00 	andeq	r3, r0, r0, lsl #30
    3254:	51000100 	mrspl	r0, (UNDEF: 16)
    3258:	0000003f 	andeq	r0, r0, pc, lsr r0
    325c:	00000060 	andeq	r0, r0, r0, rrx
    3260:	01f30004 	mvnseq	r0, r4
    3264:	00009f51 	andeq	r9, r0, r1, asr pc
	...
    3270:	00080000 	andeq	r0, r8, r0
    3274:	003f0000 	eorseq	r0, pc, r0
    3278:	00010000 	andeq	r0, r1, r0
    327c:	00003f51 	andeq	r3, r0, r1, asr pc
    3280:	00006000 	andeq	r6, r0, r0
    3284:	f3000400 	vshl.u8	d0, d0, d0
    3288:	009f5101 	addseq	r5, pc, r1, lsl #2
	...
    3294:	08000000 	stmdaeq	r0, {}	; <UNPREDICTABLE>
    3298:	3c000000 	stccc	0, cr0, [r0], {-0}
    329c:	01000000 	mrseq	r0, (UNDEF: 0)
    32a0:	003c5000 	eorseq	r5, ip, r0
    32a4:	00600000 	rsbeq	r0, r0, r0
    32a8:	00040000 	andeq	r0, r4, r0
    32ac:	9f5001f3 	svcls	0x005001f3
	...
    32bc:	00000048 	andeq	r0, r0, r8, asr #32
    32c0:	00000058 	andeq	r0, r0, r8, asr r0
    32c4:	58540001 	ldmdapl	r4, {r0}^
    32c8:	60000000 	andvs	r0, r0, r0
    32cc:	29000000 	stmdbcs	r0, {}	; <UNPREDICTABLE>
    32d0:	5001f300 	andpl	pc, r1, r0, lsl #6
    32d4:	f75001f3 			; <UNDEFINED> instruction: 0xf75001f3
    32d8:	f425f72c 	vld1.8	{d15}, [r5 :128], ip
    32dc:	cccd0825 	stclgt	8, cr0, [sp], {37}	; 0x25
    32e0:	0000cccc 	andeq	ip, r0, ip, asr #25
    32e4:	081e0000 	ldmdaeq	lr, {}	; <UNPREDICTABLE>
    32e8:	2525f720 	strcs	pc, [r5, #-1824]!	; 0xfffff8e0
    32ec:	00f72cf7 	ldrshteq	r2, [r7], #199	; 0xc7
    32f0:	1e352533 	mrcne	5, 1, r2, cr5, cr3, {1}
    32f4:	331c2431 	tstcc	ip, #822083584	; 0x31000000
    32f8:	00009f1e 	andeq	r9, r0, lr, lsl pc
    32fc:	00000000 	andeq	r0, r0, r0
    3300:	00010000 	andeq	r0, r1, r0
    3304:	00000000 	andeq	r0, r0, r0
    3308:	00000048 	andeq	r0, r0, r8, asr #32
    330c:	00000058 	andeq	r0, r0, r8, asr r0
    3310:	58560001 	ldmdapl	r6, {r0}^
    3314:	5b000000 	blpl	331c <__code_start__-0x4ce4>
    3318:	01000000 	mrseq	r0, (UNDEF: 0)
    331c:	005b5000 	subseq	r5, fp, r0
    3320:	00600000 	rsbeq	r0, r0, r0
    3324:	00260000 	eoreq	r0, r6, r0
    3328:	f75001f3 			; <UNDEFINED> instruction: 0xf75001f3
    332c:	f425f72c 	vld1.8	{d15}, [r5 :128], ip
    3330:	cccd0825 	stclgt	8, cr0, [sp], {37}	; 0x25
    3334:	0000cccc 	andeq	ip, r0, ip, asr #25
    3338:	081e0000 	ldmdaeq	lr, {}	; <UNPREDICTABLE>
    333c:	2525f720 	strcs	pc, [r5, #-1824]!	; 0xfffff8e0
    3340:	00f72cf7 	ldrshteq	r2, [r7], #199	; 0xc7
    3344:	80232533 	eorhi	r2, r3, r3, lsr r5
    3348:	3240a080 	subcc	sl, r0, #128, 0	; 0x80
    334c:	00009f24 	andeq	r9, r0, r4, lsr #30
    3350:	00000000 	andeq	r0, r0, r0
    3354:	00020000 	andeq	r0, r2, r0
    3358:	00010100 	andeq	r0, r1, r0, lsl #2
    335c:	00480000 	subeq	r0, r8, r0
    3360:	004c0000 	subeq	r0, ip, r0
    3364:	00010000 	andeq	r0, r1, r0
    3368:	00004c50 	andeq	r4, r0, r0, asr ip
    336c:	00004c00 	andeq	r4, r0, r0, lsl #24
    3370:	51000100 	mrspl	r0, (UNDEF: 16)
    3374:	0000004c 	andeq	r0, r0, ip, asr #32
    3378:	00000050 	andeq	r0, r0, r0, asr r0
    337c:	0075000c 	rsbseq	r0, r5, ip
    3380:	741aff08 	ldrvc	pc, [sl], #-3848	; 0xfffff0f8
    3384:	00712400 	rsbseq	r2, r1, r0, lsl #8
    3388:	00509f21 	subseq	r9, r0, r1, lsr #30
    338c:	00540000 	subseq	r0, r4, r0
    3390:	00120000 	andseq	r0, r2, r0
    3394:	24007437 	strcs	r7, [r0], #-1079	; 0xfffffbc9
    3398:	1a007020 	bne	1f420 <__bss_end__+0x14158>
    339c:	ff080075 			; <UNDEFINED> instruction: 0xff080075
    33a0:	2400741a 	strcs	r7, [r0], #-1050	; 0xfffffbe6
    33a4:	00009f21 	andeq	r9, r0, r1, lsr #30
	...
    33b4:	000000b8 	strheq	r0, [r0], -r8
    33b8:	000000c4 	andeq	r0, r0, r4, asr #1
    33bc:	c4500001 	ldrbgt	r0, [r0], #-1
    33c0:	cb000000 	blgt	33c8 <__code_start__-0x4c38>
    33c4:	01000000 	mrseq	r0, (UNDEF: 0)
    33c8:	00cb5300 	sbceq	r5, fp, r0, lsl #6
    33cc:	00d00000 	sbcseq	r0, r0, r0
    33d0:	00040000 	andeq	r0, r4, r0
    33d4:	9f5001f3 	svcls	0x005001f3
	...
    33e4:	00d00000 	sbcseq	r0, r0, r0
    33e8:	00dc0000 	sbcseq	r0, ip, r0
    33ec:	00010000 	andeq	r0, r1, r0
    33f0:	0000dc50 	andeq	sp, r0, r0, asr ip
    33f4:	0000e300 	andeq	lr, r0, r0, lsl #6
    33f8:	53000100 	movwpl	r0, #256	; 0x100
    33fc:	000000e3 	andeq	r0, r0, r3, ror #1
    3400:	000000e8 	andeq	r0, r0, r8, ror #1
    3404:	01f30004 	mvnseq	r0, r4
    3408:	00009f50 	andeq	r9, r0, r0, asr pc
	...
    3418:	000b0000 	andeq	r0, fp, r0
    341c:	00010000 	andeq	r0, r1, r0
    3420:	00000b50 	andeq	r0, r0, r0, asr fp
    3424:	00001400 	andeq	r1, r0, r0, lsl #8
    3428:	54000100 	strpl	r0, [r0], #-256	; 0xffffff00
	...
    343c:	00000018 	andeq	r0, r0, r8, lsl r0
    3440:	18510001 	ldmdane	r1, {r0}^
    3444:	2c000000 	stccs	0, cr0, [r0], {-0}
    3448:	04000000 	streq	r0, [r0], #-0
    344c:	5101f300 	mrspl	pc, SP_irq	; <UNPREDICTABLE>
    3450:	0000009f 	muleq	r0, pc, r0	; <UNPREDICTABLE>
    3454:	00000000 	andeq	r0, r0, r0
    3458:	00000200 	andeq	r0, r0, r0, lsl #4
    345c:	00000000 	andeq	r0, r0, r0
    3460:	01010000 	mrseq	r0, (UNDEF: 1)
    3464:	00000000 	andeq	r0, r0, r0
    3468:	04000000 	streq	r0, [r0], #-0
    346c:	01000000 	mrseq	r0, (UNDEF: 0)
    3470:	00045000 	andeq	r5, r4, r0
    3474:	00080000 	andeq	r0, r8, r0
    3478:	00010000 	andeq	r0, r1, r0
    347c:	00000852 	andeq	r0, r0, r2, asr r8
    3480:	00000c00 	andeq	r0, r0, r0, lsl #24
    3484:	72000300 	andvc	r0, r0, #0, 6
    3488:	000c9f01 	andeq	r9, ip, r1, lsl #30
    348c:	00180000 	andseq	r0, r8, r0
    3490:	00010000 	andeq	r0, r1, r0
    3494:	00001852 	andeq	r1, r0, r2, asr r8
    3498:	00001c00 	andeq	r1, r0, r0, lsl #24
    349c:	53000100 	movwpl	r0, #256	; 0x100
    34a0:	0000001c 	andeq	r0, r0, ip, lsl r0
    34a4:	00000024 	andeq	r0, r0, r4, lsr #32
    34a8:	01730003 	cmneq	r3, r3
    34ac:	0000249f 	muleq	r0, pc, r4	; <UNPREDICTABLE>
    34b0:	00002c00 	andeq	r2, r0, r0, lsl #24
    34b4:	53000100 	movwpl	r0, #256	; 0x100
	...
    34c0:	00020203 	andeq	r0, r2, r3, lsl #4
    34c4:	00000000 	andeq	r0, r0, r0
    34c8:	00180000 	andseq	r0, r8, r0
    34cc:	00010000 	andeq	r0, r1, r0
    34d0:	00001851 	andeq	r1, r0, r1, asr r8
    34d4:	00001c00 	andeq	r1, r0, r0, lsl #24
    34d8:	71000300 	mrsvc	r0, LR_irq
    34dc:	001c9f01 	andseq	r9, ip, r1, lsl #30
    34e0:	002c0000 	eoreq	r0, ip, r0
    34e4:	00010000 	andeq	r0, r1, r0
    34e8:	00000051 	andeq	r0, r0, r1, asr r0
	...
    34f4:	08000000 	stmdaeq	r0, {}	; <UNPREDICTABLE>
    34f8:	0c000000 	stceq	0, cr0, [r0], {-0}
    34fc:	02000000 	andeq	r0, r0, #0, 0
    3500:	0c007200 	sfmeq	f7, 4, [r0], {-0}
    3504:	18000000 	stmdane	r0, {}	; <UNPREDICTABLE>
    3508:	02000000 	andeq	r0, r0, #0, 0
    350c:	1c007300 	stcne	3, cr7, [r0], {-0}
    3510:	2c000000 	stccs	0, cr0, [r0], {-0}
    3514:	01000000 	mrseq	r0, (UNDEF: 0)
    3518:	00005200 	andeq	r5, r0, r0, lsl #4
	...
    3530:	00140000 	andseq	r0, r4, r0
    3534:	00010000 	andeq	r0, r1, r0
    3538:	00001450 	andeq	r1, r0, r0, asr r4
    353c:	00001800 	andeq	r1, r0, r0, lsl #16
    3540:	70000300 	andvc	r0, r0, r0, lsl #6
    3544:	00189f01 	andseq	r9, r8, r1, lsl #30
    3548:	00200000 	eoreq	r0, r0, r0
    354c:	00010000 	andeq	r0, r1, r0
    3550:	00002450 	andeq	r2, r0, r0, asr r4
    3554:	00002800 	andeq	r2, r0, r0, lsl #16
    3558:	50000100 	andpl	r0, r0, r0, lsl #2
    355c:	00000028 	andeq	r0, r0, r8, lsr #32
    3560:	00000030 	andeq	r0, r0, r0, lsr r0
    3564:	01700003 	cmneq	r0, r3
    3568:	0000389f 	muleq	r0, pc, r8	; <UNPREDICTABLE>
    356c:	00004000 	andeq	r4, r0, r0
    3570:	50000100 	andpl	r0, r0, r0, lsl #2
	...
    3584:	00240000 	eoreq	r0, r4, r0
    3588:	00010000 	andeq	r0, r1, r0
    358c:	00002451 	andeq	r2, r0, r1, asr r4
    3590:	00002800 	andeq	r2, r0, r0, lsl #16
    3594:	5c000100 	stfpls	f0, [r0], {-0}
    3598:	00000028 	andeq	r0, r0, r8, lsr #32
    359c:	00000044 	andeq	r0, r0, r4, asr #32
    35a0:	00510001 	subseq	r0, r1, r1
	...
    35ac:	00000202 	andeq	r0, r0, r2, lsl #4
    35b0:	00000000 	andeq	r0, r0, r0
    35b4:	00000400 	andeq	r0, r0, r0, lsl #8
    35b8:	51000100 	mrspl	r0, (UNDEF: 16)
    35bc:	00000004 	andeq	r0, r0, r4
    35c0:	00000008 	andeq	r0, r0, r8
    35c4:	01710003 	cmneq	r1, r3
    35c8:	0000089f 	muleq	r0, pc, r8	; <UNPREDICTABLE>
    35cc:	00001800 	andeq	r1, r0, r0, lsl #16
    35d0:	51000100 	mrspl	r0, (UNDEF: 16)
	...
    35dc:	00000002 	andeq	r0, r0, r2
    35e0:	00040000 	andeq	r0, r4, r0
    35e4:	00010000 	andeq	r0, r1, r0
    35e8:	00000050 	andeq	r0, r0, r0, asr r0
	...
    35f8:	00000800 	andeq	r0, r0, r0, lsl #16
    35fc:	50000100 	andpl	r0, r0, r0, lsl #2
    3600:	00000008 	andeq	r0, r0, r8
    3604:	00000030 	andeq	r0, r0, r0, lsr r0
    3608:	01f30004 	mvnseq	r0, r4
    360c:	00009f50 	andeq	r9, r0, r0, asr pc
	...
    361c:	00080000 	andeq	r0, r8, r0
    3620:	00010000 	andeq	r0, r1, r0
    3624:	00000851 	andeq	r0, r0, r1, asr r8
    3628:	00003000 	andeq	r3, r0, r0
    362c:	f3000400 	vshl.u8	d0, d0, d0
    3630:	009f5101 	addseq	r5, pc, r1, lsl #2
	...
    3640:	02020100 	andeq	r0, r2, #0
    3644:	00000000 	andeq	r0, r0, r0
    3648:	00000400 	andeq	r0, r0, r0, lsl #8
    364c:	52000100 	andpl	r0, r0, #0
    3650:	00000004 	andeq	r0, r0, r4
    3654:	00000008 	andeq	r0, r0, r8
    3658:	01f30004 	mvnseq	r0, r4
    365c:	00089f52 	andeq	r9, r8, r2, asr pc
    3660:	00180000 	andseq	r0, r8, r0
    3664:	00060000 	andeq	r0, r6, r0
    3668:	315201f3 	ldrshcc	r0, [r2, #-19]	; 0xffffffed
    366c:	00189f1c 	andseq	r9, r8, ip, lsl pc
    3670:	00180000 	andseq	r0, r8, r0
    3674:	00040000 	andeq	r0, r4, r0
    3678:	9f5201f3 	svcls	0x005201f3
    367c:	00000018 	andeq	r0, r0, r8, lsl r0
    3680:	00000030 	andeq	r0, r0, r0, lsr r0
    3684:	01f30006 	mvnseq	r0, r6
    3688:	9f1c3152 	svcls	0x001c3152
	...
    3694:	00000002 	andeq	r0, r0, r2
    3698:	00000001 	andeq	r0, r0, r1
    369c:	00000000 	andeq	r0, r0, r0
    36a0:	0000000c 	andeq	r0, r0, ip
    36a4:	0c500001 	mrrceq	0, 0, r0, r0, cr1	; <UNPREDICTABLE>
    36a8:	18000000 	stmdane	r0, {}	; <UNPREDICTABLE>
    36ac:	03000000 	movweq	r0, #0
    36b0:	9f7f7000 	svcls	0x007f7000
    36b4:	00000018 	andeq	r0, r0, r8, lsl r0
    36b8:	00000024 	andeq	r0, r0, r4, lsr #32
    36bc:	28500001 	ldmdacs	r0, {r0}^
    36c0:	2c000000 	stccs	0, cr0, [r0], {-0}
    36c4:	03000000 	movweq	r0, #0
    36c8:	9f7f7000 	svcls	0x007f7000
	...
    36d4:	00000002 	andeq	r0, r0, r2
    36d8:	00000000 	andeq	r0, r0, r0
    36dc:	000c0000 	andeq	r0, ip, r0
    36e0:	00010000 	andeq	r0, r1, r0
    36e4:	00000c51 	andeq	r0, r0, r1, asr ip
    36e8:	00001000 	andeq	r1, r0, r0
    36ec:	71000300 	mrsvc	r0, LR_irq
    36f0:	00109f01 	andseq	r9, r0, r1, lsl #30
    36f4:	00300000 	eorseq	r0, r0, r0
    36f8:	00010000 	andeq	r0, r1, r0
    36fc:	00000051 	andeq	r0, r0, r1, asr r0
    3700:	00000000 	andeq	r0, r0, r0
	...

Disassembly of section .debug_aranges:

00000000 <.debug_aranges>:
   0:	0000001c 	andeq	r0, r0, ip, lsl r0
   4:	00000002 	andeq	r0, r0, r2
   8:	00040000 	andeq	r0, r4, r0
   c:	00000000 	andeq	r0, r0, r0
  10:	00008038 	andeq	r8, r0, r8, lsr r0
  14:	000001b4 			; <UNDEFINED> instruction: 0x000001b4
	...
  20:	0000001c 	andeq	r0, r0, ip, lsl r0
  24:	04b70002 	ldrteq	r0, [r7], #2
  28:	00040000 	andeq	r0, r4, r0
  2c:	00000000 	andeq	r0, r0, r0
  30:	000081ec 	andeq	r8, r0, ip, ror #3
  34:	00000440 	andeq	r0, r0, r0, asr #8
	...
  40:	0000001c 	andeq	r0, r0, ip, lsl r0
  44:	0ca90002 	stceq	0, cr0, [r9], #8
  48:	00040000 	andeq	r0, r4, r0
  4c:	00000000 	andeq	r0, r0, r0
  50:	0000862c 	andeq	r8, r0, ip, lsr #12
  54:	00000200 	andeq	r0, r0, r0, lsl #4
	...
  60:	0000001c 	andeq	r0, r0, ip, lsl r0
  64:	0f990002 	svceq	0x00990002
  68:	00040000 	andeq	r0, r4, r0
  6c:	00000000 	andeq	r0, r0, r0
  70:	0000882c 	andeq	r8, r0, ip, lsr #16
  74:	000006a8 	andeq	r0, r0, r8, lsr #13
	...
  80:	0000001c 	andeq	r0, r0, ip, lsl r0
  84:	1c5b0002 	mrrcne	0, 0, r0, fp, cr2
  88:	00040000 	andeq	r0, r4, r0
  8c:	00000000 	andeq	r0, r0, r0
  90:	00008edc 	ldrdeq	r8, [r0], -ip
  94:	000000a0 	andeq	r0, r0, r0, lsr #1
	...
  a0:	0000001c 	andeq	r0, r0, ip, lsl r0
  a4:	1e750002 	cdpne	0, 7, cr0, cr5, cr2, {0}
  a8:	00040000 	andeq	r0, r4, r0
  ac:	00000000 	andeq	r0, r0, r0
  b0:	00008f7c 	andeq	r8, r0, ip, ror pc
  b4:	00000078 	andeq	r0, r0, r8, ror r0
	...
  c0:	0000001c 	andeq	r0, r0, ip, lsl r0
  c4:	1fb90002 	svcne	0x00b90002
  c8:	00040000 	andeq	r0, r4, r0
  cc:	00000000 	andeq	r0, r0, r0
  d0:	00008ff4 	strdeq	r8, [r0], -r4
  d4:	00000058 	andeq	r0, r0, r8, asr r0
	...
  e0:	0000001c 	andeq	r0, r0, ip, lsl r0
  e4:	215a0002 	cmpcs	sl, r2
  e8:	00040000 	andeq	r0, r4, r0
  ec:	00000000 	andeq	r0, r0, r0
  f0:	0000904c 	andeq	r9, r0, ip, asr #32
  f4:	00000038 	andeq	r0, r0, r8, lsr r0
	...
 100:	0000001c 	andeq	r0, r0, ip, lsl r0
 104:	22510002 	subscs	r0, r1, #2, 0
 108:	00040000 	andeq	r0, r4, r0
 10c:	00000000 	andeq	r0, r0, r0
 110:	00009084 	andeq	r9, r0, r4, lsl #1
 114:	000009b4 			; <UNDEFINED> instruction: 0x000009b4
	...
 120:	0000001c 	andeq	r0, r0, ip, lsl r0
 124:	2ed40002 	cdpcs	0, 13, cr0, cr4, cr2, {0}
 128:	00040000 	andeq	r0, r4, r0
 12c:	00000000 	andeq	r0, r0, r0
 130:	00009a38 	andeq	r9, r0, r8, lsr sl
 134:	0000002c 	andeq	r0, r0, ip, lsr #32
	...
 140:	0000001c 	andeq	r0, r0, ip, lsl r0
 144:	30070002 	andcc	r0, r7, r2
 148:	00040000 	andeq	r0, r4, r0
 14c:	00000000 	andeq	r0, r0, r0
 150:	00009a64 	andeq	r9, r0, r4, ror #20
 154:	00000128 	andeq	r0, r0, r8, lsr #2
	...
 160:	0000001c 	andeq	r0, r0, ip, lsl r0
 164:	32bc0002 	adcscc	r0, ip, #2, 0
 168:	00040000 	andeq	r0, r4, r0
 16c:	00000000 	andeq	r0, r0, r0
 170:	00009b8c 	andeq	r9, r0, ip, lsl #23
 174:	00000004 	andeq	r0, r0, r4
	...
 180:	0000001c 	andeq	r0, r0, ip, lsl r0
 184:	338e0002 	orrcc	r0, lr, #2, 0
 188:	00040000 	andeq	r0, r4, r0
 18c:	00000000 	andeq	r0, r0, r0
 190:	00009b90 	muleq	r0, r0, fp
 194:	0000008c 	andeq	r0, r0, ip, lsl #1
	...
 1a0:	0000001c 	andeq	r0, r0, ip, lsl r0
 1a4:	360f0002 	strcc	r0, [pc], -r2
 1a8:	00040000 	andeq	r0, r4, r0
 1ac:	00000000 	andeq	r0, r0, r0
 1b0:	00009c1c 	andeq	r9, r0, ip, lsl ip
 1b4:	0000011c 	andeq	r0, r0, ip, lsl r1
	...
 1c0:	0000001c 	andeq	r0, r0, ip, lsl r0
 1c4:	3b520002 	blcc	14801d4 <__bss_end__+0x1474f0c>
 1c8:	00040000 	andeq	r0, r4, r0
 1cc:	00000000 	andeq	r0, r0, r0
 1d0:	00009d38 	andeq	r9, r0, r8, lsr sp
 1d4:	000001f0 	strdeq	r0, [r0], -r0	; <UNPREDICTABLE>
	...
 1e0:	0000001c 	andeq	r0, r0, ip, lsl r0
 1e4:	41230002 			; <UNDEFINED> instruction: 0x41230002
 1e8:	00040000 	andeq	r0, r4, r0
 1ec:	00000000 	andeq	r0, r0, r0
 1f0:	00009f28 	andeq	r9, r0, r8, lsr #30
 1f4:	000003b0 			; <UNDEFINED> instruction: 0x000003b0
	...
 200:	0000001c 	andeq	r0, r0, ip, lsl r0
 204:	4a100002 	bmi	400214 <__bss_end__+0x3f4f4c>
 208:	00040000 	andeq	r0, r4, r0
 20c:	00000000 	andeq	r0, r0, r0
 210:	0000a2d8 	ldrdeq	sl, [r0], -r8
 214:	00000198 	muleq	r0, r8, r1
	...
 220:	0000001c 	andeq	r0, r0, ip, lsl r0
 224:	50870002 	addpl	r0, r7, r2
 228:	00040000 	andeq	r0, r4, r0
 22c:	00000000 	andeq	r0, r0, r0
 230:	0000a470 	andeq	sl, r0, r0, ror r4
 234:	0000003c 	andeq	r0, r0, ip, lsr r0
	...
 240:	0000001c 	andeq	r0, r0, ip, lsl r0
 244:	51d40002 	bicspl	r0, r4, r2
 248:	00040000 	andeq	r0, r4, r0
 24c:	00000000 	andeq	r0, r0, r0
 250:	0000a4ac 	andeq	sl, r0, ip, lsr #9
 254:	0000002c 	andeq	r0, r0, ip, lsr #32
	...
 260:	0000001c 	andeq	r0, r0, ip, lsl r0
 264:	530f0002 	movwpl	r0, #61442	; 0xf002
 268:	00040000 	andeq	r0, r4, r0
 26c:	00000000 	andeq	r0, r0, r0
 270:	0000a4d8 	ldrdeq	sl, [r0], -r8
 274:	00000044 	andeq	r0, r0, r4, asr #32
	...
 280:	0000001c 	andeq	r0, r0, ip, lsl r0
 284:	540a0002 	strpl	r0, [sl], #-2
 288:	00040000 	andeq	r0, r4, r0
 28c:	00000000 	andeq	r0, r0, r0
 290:	0000a51c 	andeq	sl, r0, ip, lsl r5
 294:	00000018 	andeq	r0, r0, r8, lsl r0
	...
 2a0:	0000001c 	andeq	r0, r0, ip, lsl r0
 2a4:	551d0002 	ldrpl	r0, [sp, #-2]
 2a8:	00040000 	andeq	r0, r4, r0
 2ac:	00000000 	andeq	r0, r0, r0
 2b0:	0000a534 	andeq	sl, r0, r4, lsr r5
 2b4:	00000030 	andeq	r0, r0, r0, lsr r0
	...
 2c0:	0000001c 	andeq	r0, r0, ip, lsl r0
 2c4:	566f0002 	strbtpl	r0, [pc], -r2
 2c8:	00040000 	andeq	r0, r4, r0
 2cc:	00000000 	andeq	r0, r0, r0
 2d0:	0000a564 	andeq	sl, r0, r4, ror #10
 2d4:	00000004 	andeq	r0, r0, r4
	...

Disassembly of section .debug_ranges:

00000000 <.debug_ranges>:
   0:	0000001c 	andeq	r0, r0, ip, lsl r0
   4:	00000020 	andeq	r0, r0, r0, lsr #32
   8:	00000024 	andeq	r0, r0, r4, lsr #32
   c:	0000002c 	andeq	r0, r0, ip, lsr #32
  10:	00000044 	andeq	r0, r0, r4, asr #32
  14:	000000e0 	andeq	r0, r0, r0, ror #1
	...
  20:	00000044 	andeq	r0, r0, r4, asr #32
  24:	000000a0 	andeq	r0, r0, r0, lsr #1
  28:	000000a4 	andeq	r0, r0, r4, lsr #1
  2c:	000000e0 	andeq	r0, r0, r0, ror #1
	...
  38:	000001e4 	andeq	r0, r0, r4, ror #3
  3c:	0000021c 	andeq	r0, r0, ip, lsl r2
  40:	00000244 	andeq	r0, r0, r4, asr #4
  44:	0000028c 	andeq	r0, r0, ip, lsl #5
	...
  50:	0000012c 	andeq	r0, r0, ip, lsr #2
  54:	0000013c 	andeq	r0, r0, ip, lsr r1
  58:	00000148 	andeq	r0, r0, r8, asr #2
  5c:	00000194 	muleq	r0, r4, r1
	...
  68:	0000012c 	andeq	r0, r0, ip, lsr #2
  6c:	0000013c 	andeq	r0, r0, ip, lsr r1
  70:	00000158 	andeq	r0, r0, r8, asr r1
  74:	00000194 	muleq	r0, r4, r1
	...
  80:	000002a4 	andeq	r0, r0, r4, lsr #5
  84:	000002ac 	andeq	r0, r0, ip, lsr #5
  88:	000002b8 			; <UNDEFINED> instruction: 0x000002b8
  8c:	00000320 	andeq	r0, r0, r0, lsr #6
	...
  98:	000003bc 			; <UNDEFINED> instruction: 0x000003bc
  9c:	000003c4 	andeq	r0, r0, r4, asr #7
  a0:	000003d0 	ldrdeq	r0, [r0], -r0	; <UNPREDICTABLE>
  a4:	0000044c 	andeq	r0, r0, ip, asr #8
	...
  b0:	00000014 	andeq	r0, r0, r4, lsl r0
  b4:	00000020 	andeq	r0, r0, r0, lsr #32
  b8:	0000002c 	andeq	r0, r0, ip, lsr #32
  bc:	00000058 	andeq	r0, r0, r8, asr r0
  c0:	00000058 	andeq	r0, r0, r8, asr r0
  c4:	00000064 	andeq	r0, r0, r4, rrx
	...
  d0:	00000014 	andeq	r0, r0, r4, lsl r0
  d4:	00000018 	andeq	r0, r0, r8, lsl r0
  d8:	0000002c 	andeq	r0, r0, ip, lsr #32
  dc:	0000002c 	andeq	r0, r0, ip, lsr #32
  e0:	00000034 	andeq	r0, r0, r4, lsr r0
  e4:	00000038 	andeq	r0, r0, r8, lsr r0
  e8:	0000003c 	andeq	r0, r0, ip, lsr r0
  ec:	00000050 	andeq	r0, r0, r0, asr r0
	...
  f8:	0000002c 	andeq	r0, r0, ip, lsr #32
  fc:	0000002c 	andeq	r0, r0, ip, lsr #32
 100:	00000038 	andeq	r0, r0, r8, lsr r0
 104:	00000038 	andeq	r0, r0, r8, lsr r0
 108:	00000044 	andeq	r0, r0, r4, asr #32
 10c:	0000004c 	andeq	r0, r0, ip, asr #32
	...
 118:	000000a4 	andeq	r0, r0, r4, lsr #1
 11c:	00000148 	andeq	r0, r0, r8, asr #2
 120:	00000158 	andeq	r0, r0, r8, asr r1
 124:	0000015c 	andeq	r0, r0, ip, asr r1
 128:	00000274 	andeq	r0, r0, r4, ror r2
 12c:	00000278 	andeq	r0, r0, r8, ror r2
 130:	0000027c 	andeq	r0, r0, ip, ror r2
 134:	00000280 	andeq	r0, r0, r0, lsl #5
 138:	00000288 	andeq	r0, r0, r8, lsl #5
 13c:	0000029c 	muleq	r0, ip, r2
 140:	000002c0 	andeq	r0, r0, r0, asr #5
 144:	000002cc 	andeq	r0, r0, ip, asr #5
 148:	000002f0 	strdeq	r0, [r0], -r0	; <UNPREDICTABLE>
 14c:	000002f0 	strdeq	r0, [r0], -r0	; <UNPREDICTABLE>
 150:	000002f4 	strdeq	r0, [r0], -r4
 154:	000002f8 	strdeq	r0, [r0], -r8
	...
 160:	00000148 	andeq	r0, r0, r8, asr #2
 164:	00000158 	andeq	r0, r0, r8, asr r1
 168:	0000015c 	andeq	r0, r0, ip, asr r1
 16c:	0000018c 	andeq	r0, r0, ip, lsl #3
 170:	0000029c 	muleq	r0, ip, r2
 174:	000002ac 	andeq	r0, r0, ip, lsr #5
	...
 180:	000003c8 	andeq	r0, r0, r8, asr #7
 184:	000003d0 	ldrdeq	r0, [r0], -r0	; <UNPREDICTABLE>
 188:	00000404 	andeq	r0, r0, r4, lsl #8
 18c:	000004ac 	andeq	r0, r0, ip, lsr #9
 190:	000004c0 	andeq	r0, r0, r0, asr #9
 194:	00000920 	andeq	r0, r0, r0, lsr #18
 198:	00000928 	andeq	r0, r0, r8, lsr #18
 19c:	000009b4 			; <UNDEFINED> instruction: 0x000009b4
	...
 1a8:	000003c8 	andeq	r0, r0, r8, asr #7
 1ac:	000003d0 	ldrdeq	r0, [r0], -r0	; <UNPREDICTABLE>
 1b0:	00000504 	andeq	r0, r0, r4, lsl #10
 1b4:	000005d0 	ldrdeq	r0, [r0], -r0	; <UNPREDICTABLE>
 1b8:	00000800 	andeq	r0, r0, r0, lsl #16
 1bc:	00000888 	andeq	r0, r0, r8, lsl #17
 1c0:	00000930 	andeq	r0, r0, r0, lsr r9
 1c4:	000009b4 			; <UNDEFINED> instruction: 0x000009b4
	...
 1d0:	00000404 	andeq	r0, r0, r4, lsl #8
 1d4:	00000408 	andeq	r0, r0, r8, lsl #8
 1d8:	00000414 	andeq	r0, r0, r4, lsl r4
 1dc:	00000414 	andeq	r0, r0, r4, lsl r4
 1e0:	00000428 	andeq	r0, r0, r8, lsr #8
 1e4:	0000042c 	andeq	r0, r0, ip, lsr #8
	...
 1f0:	000005fc 	strdeq	r0, [r0], -ip
 1f4:	00000700 	andeq	r0, r0, r0, lsl #14
 1f8:	000007ec 	andeq	r0, r0, ip, ror #15
 1fc:	000007f4 	strdeq	r0, [r0], -r4
 200:	00000888 	andeq	r0, r0, r8, lsl #17
 204:	00000894 	muleq	r0, r4, r8
 208:	000008a8 	andeq	r0, r0, r8, lsr #17
 20c:	000008bc 			; <UNDEFINED> instruction: 0x000008bc
 210:	00000910 	andeq	r0, r0, r0, lsl r9
 214:	00000920 	andeq	r0, r0, r0, lsr #18
	...
 220:	00000600 	andeq	r0, r0, r0, lsl #12
 224:	00000604 	andeq	r0, r0, r4, lsl #12
 228:	00000608 	andeq	r0, r0, r8, lsl #12
 22c:	000006b4 			; <UNDEFINED> instruction: 0x000006b4
 230:	000006cc 	andeq	r0, r0, ip, asr #13
 234:	000006d0 	ldrdeq	r0, [r0], -r0	; <UNPREDICTABLE>
 238:	000008a8 	andeq	r0, r0, r8, lsr #17
 23c:	000008b8 			; <UNDEFINED> instruction: 0x000008b8
 240:	00000910 	andeq	r0, r0, r0, lsl r9
 244:	00000920 	andeq	r0, r0, r0, lsr #18
	...
 250:	000006b4 			; <UNDEFINED> instruction: 0x000006b4
 254:	000006cc 	andeq	r0, r0, ip, asr #13
 258:	000006d0 	ldrdeq	r0, [r0], -r0	; <UNPREDICTABLE>
 25c:	00000700 	andeq	r0, r0, r0, lsl #14
 260:	000007ec 	andeq	r0, r0, ip, ror #15
 264:	000007f4 	strdeq	r0, [r0], -r4
 268:	00000888 	andeq	r0, r0, r8, lsl #17
 26c:	00000894 	muleq	r0, r4, r8
 270:	000008b8 			; <UNDEFINED> instruction: 0x000008b8
 274:	000008bc 			; <UNDEFINED> instruction: 0x000008bc
	...
 280:	00000700 	andeq	r0, r0, r0, lsl #14
 284:	00000708 	andeq	r0, r0, r8, lsl #14
 288:	0000070c 	andeq	r0, r0, ip, lsl #14
 28c:	000007ec 	andeq	r0, r0, ip, ror #15
 290:	00000894 	muleq	r0, r4, r8
 294:	000008a8 	andeq	r0, r0, r8, lsr #17
	...
 2a0:	00000728 	andeq	r0, r0, r8, lsr #14
 2a4:	000007a4 	andeq	r0, r0, r4, lsr #15
 2a8:	000007ac 	andeq	r0, r0, ip, lsr #15
 2ac:	000007b0 			; <UNDEFINED> instruction: 0x000007b0
 2b0:	00000894 	muleq	r0, r4, r8
 2b4:	00000898 	muleq	r0, r8, r8
 2b8:	0000089c 	muleq	r0, ip, r8
 2bc:	000008a0 	andeq	r0, r0, r0, lsr #17
	...
 2c8:	000007a4 	andeq	r0, r0, r4, lsr #15
 2cc:	000007ac 	andeq	r0, r0, ip, lsr #15
 2d0:	000007b0 			; <UNDEFINED> instruction: 0x000007b0
 2d4:	000007ec 	andeq	r0, r0, ip, ror #15
 2d8:	00000898 	muleq	r0, r8, r8
 2dc:	0000089c 	muleq	r0, ip, r8
 2e0:	000008a0 	andeq	r0, r0, r0, lsr #17
 2e4:	000008a8 	andeq	r0, r0, r8, lsr #17
	...
 2f0:	000000f0 	strdeq	r0, [r0], -r0	; <UNPREDICTABLE>
 2f4:	000000f8 	strdeq	r0, [r0], -r8
 2f8:	000000fc 	strdeq	r0, [r0], -ip
 2fc:	00000108 	andeq	r0, r0, r8, lsl #2
	...
 308:	00009bbc 			; <UNDEFINED> instruction: 0x00009bbc
 30c:	00009bbc 			; <UNDEFINED> instruction: 0x00009bbc
 310:	00009bc0 	andeq	r9, r0, r0, asr #23
 314:	00009bc8 	andeq	r9, r0, r8, asr #23
	...
 320:	00009b90 	muleq	r0, r0, fp
 324:	00009c1c 	andeq	r9, r0, ip, lsl ip
	...
 330:	00000030 	andeq	r0, r0, r0, lsr r0
 334:	00000030 	andeq	r0, r0, r0, lsr r0
 338:	00000038 	andeq	r0, r0, r8, lsr r0
 33c:	0000004c 	andeq	r0, r0, ip, asr #32
	...
 348:	0000004c 	andeq	r0, r0, ip, asr #32
 34c:	00000050 	andeq	r0, r0, r0, asr r0
 350:	00000050 	andeq	r0, r0, r0, asr r0
 354:	00000078 	andeq	r0, r0, r8, ror r0
	...
 360:	0000004c 	andeq	r0, r0, ip, asr #32
 364:	00000050 	andeq	r0, r0, r0, asr r0
 368:	00000050 	andeq	r0, r0, r0, asr r0
 36c:	00000060 	andeq	r0, r0, r0, rrx
 370:	00000064 	andeq	r0, r0, r4, rrx
 374:	00000068 	andeq	r0, r0, r8, rrx
	...
 380:	0000004c 	andeq	r0, r0, ip, asr #32
 384:	00000050 	andeq	r0, r0, r0, asr r0
 388:	00000054 	andeq	r0, r0, r4, asr r0
 38c:	00000060 	andeq	r0, r0, r0, rrx
	...
 398:	0000009c 	muleq	r0, ip, r0
 39c:	000000a0 	andeq	r0, r0, r0, lsr #1
 3a0:	000000a0 	andeq	r0, r0, r0, lsr #1
 3a4:	000000c8 	andeq	r0, r0, r8, asr #1
	...
 3b0:	0000009c 	muleq	r0, ip, r0
 3b4:	000000a0 	andeq	r0, r0, r0, lsr #1
 3b8:	000000a0 	andeq	r0, r0, r0, lsr #1
 3bc:	000000b0 	strheq	r0, [r0], -r0	; <UNPREDICTABLE>
 3c0:	000000b4 	strheq	r0, [r0], -r4
 3c4:	000000b8 	strheq	r0, [r0], -r8
	...
 3d0:	0000009c 	muleq	r0, ip, r0
 3d4:	000000a0 	andeq	r0, r0, r0, lsr #1
 3d8:	000000a4 	andeq	r0, r0, r4, lsr #1
 3dc:	000000b0 	strheq	r0, [r0], -r0	; <UNPREDICTABLE>
	...
 3e8:	000000c8 	andeq	r0, r0, r8, asr #1
 3ec:	000000c8 	andeq	r0, r0, r8, asr #1
 3f0:	000000cc 	andeq	r0, r0, ip, asr #1
 3f4:	0000011c 	andeq	r0, r0, ip, lsl r1
	...
 400:	000000f0 	strdeq	r0, [r0], -r0	; <UNPREDICTABLE>
 404:	000000f4 	strdeq	r0, [r0], -r4
 408:	000000f4 	strdeq	r0, [r0], -r4
 40c:	0000011c 	andeq	r0, r0, ip, lsl r1
	...
 418:	000000f0 	strdeq	r0, [r0], -r0	; <UNPREDICTABLE>
 41c:	000000f4 	strdeq	r0, [r0], -r4
 420:	000000f4 	strdeq	r0, [r0], -r4
 424:	00000104 	andeq	r0, r0, r4, lsl #2
 428:	00000108 	andeq	r0, r0, r8, lsl #2
 42c:	0000010c 	andeq	r0, r0, ip, lsl #2
	...
 438:	000000f0 	strdeq	r0, [r0], -r0	; <UNPREDICTABLE>
 43c:	000000f4 	strdeq	r0, [r0], -r4
 440:	000000f8 	strdeq	r0, [r0], -r8
 444:	00000104 	andeq	r0, r0, r4, lsl #2
	...
 450:	00000134 	andeq	r0, r0, r4, lsr r1
 454:	00000134 	andeq	r0, r0, r4, lsr r1
 458:	00000134 	andeq	r0, r0, r4, lsr r1
 45c:	0000013c 	andeq	r0, r0, ip, lsr r1
	...
 468:	0000024c 	andeq	r0, r0, ip, asr #4
 46c:	00000264 	andeq	r0, r0, r4, ror #4
 470:	000002c8 	andeq	r0, r0, r8, asr #5
 474:	000002e8 	andeq	r0, r0, r8, ror #5
	...
 480:	00000008 	andeq	r0, r0, r8
 484:	0000000c 	andeq	r0, r0, ip
 488:	00000014 	andeq	r0, r0, r4, lsl r0
 48c:	00000054 	andeq	r0, r0, r4, asr r0
 490:	00000058 	andeq	r0, r0, r8, asr r0
 494:	00000060 	andeq	r0, r0, r0, rrx
	...
 4a0:	00000060 	andeq	r0, r0, r0, rrx
 4a4:	00000068 	andeq	r0, r0, r8, rrx
 4a8:	0000006c 	andeq	r0, r0, ip, rrx
 4ac:	000000ac 	andeq	r0, r0, ip, lsr #1
 4b0:	000000b0 	strheq	r0, [r0], -r0	; <UNPREDICTABLE>
 4b4:	000000b8 	strheq	r0, [r0], -r8
	...
 4c0:	00000068 	andeq	r0, r0, r8, rrx
 4c4:	00000068 	andeq	r0, r0, r8, rrx
 4c8:	0000006c 	andeq	r0, r0, ip, rrx
 4cc:	000000ac 	andeq	r0, r0, ip, lsr #1
 4d0:	000000b0 	strheq	r0, [r0], -r0	; <UNPREDICTABLE>
 4d4:	000000b8 	strheq	r0, [r0], -r8
	...
 4e0:	000000e8 	andeq	r0, r0, r8, ror #1
 4e4:	000000f0 	strdeq	r0, [r0], -r0	; <UNPREDICTABLE>
 4e8:	000000f4 	strdeq	r0, [r0], -r4
 4ec:	00000134 	andeq	r0, r0, r4, lsr r1
 4f0:	00000138 	andeq	r0, r0, r8, lsr r1
 4f4:	00000140 	andeq	r0, r0, r0, asr #2
	...
 500:	000000f0 	strdeq	r0, [r0], -r0	; <UNPREDICTABLE>
 504:	000000f0 	strdeq	r0, [r0], -r0	; <UNPREDICTABLE>
 508:	000000f4 	strdeq	r0, [r0], -r4
 50c:	00000134 	andeq	r0, r0, r4, lsr r1
 510:	00000138 	andeq	r0, r0, r8, lsr r1
 514:	00000140 	andeq	r0, r0, r0, asr #2
	...
 520:	00000144 	andeq	r0, r0, r4, asr #2
 524:	00000148 	andeq	r0, r0, r8, asr #2
 528:	00000150 	andeq	r0, r0, r0, asr r1
 52c:	0000015c 	andeq	r0, r0, ip, asr r1
	...

Disassembly of section .debug_line:

00000000 <.debug_line>:
       0:	00000217 	andeq	r0, r0, r7, lsl r2
       4:	00e90003 	rsceq	r0, r9, r3
       8:	01020000 	mrseq	r0, (UNDEF: 2)
       c:	000d0efb 	strdeq	r0, [sp], -fp
      10:	01010101 	tsteq	r1, r1, lsl #2
      14:	01000000 	mrseq	r0, (UNDEF: 0)
      18:	74010000 	strvc	r0, [r1], #-0
      1c:	73747365 	cmnvc	r4, #-1811939327	; 0x94000001
      20:	302e322d 	eorcc	r3, lr, sp, lsr #4
      24:	2f002e00 	svccs	0x00002e00
      28:	72657355 	rsbvc	r7, r5, #1409286145	; 0x54000001
      2c:	696d2f73 	stmdbvs	sp!, {r0, r1, r4, r5, r6, r8, r9, sl, fp, sp}^
      30:	2f73656c 	svccs	0x0073656c
      34:	72756f53 	rsbsvc	r6, r5, #332	; 0x14c
      38:	632f6563 			; <UNDEFINED> instruction: 0x632f6563
      3c:	30343273 	eorscc	r3, r4, r3, ror r2
      40:	6c2f786c 	stcvs	8, cr7, [pc], #-432	; fffffe98 <__bss_end__+0xffff4bd0>
      44:	69706269 	ldmdbvs	r0!, {r0, r3, r5, r6, r9, sp, lr}^
      48:	636e692f 	cmnvs	lr, #770048	; 0xbc000
      4c:	6564756c 	strbvs	r7, [r4, #-1388]!	; 0xfffffa94
      50:	706f2f00 	rsbvc	r2, pc, r0, lsl #30
      54:	6f682f74 	svcvs	0x00682f74
      58:	7262656d 	rsbvc	r6, r2, #457179136	; 0x1b400000
      5c:	432f7765 			; <UNDEFINED> instruction: 0x432f7765
      60:	616c6c65 	cmnvs	ip, r5, ror #24
      64:	72612f72 	rsbvc	r2, r1, #456	; 0x1c8
      68:	6f6e2d6d 	svcvs	0x006e2d6d
      6c:	652d656e 	strvs	r6, [sp, #-1390]!	; 0xfffffa92
      70:	2d696261 	sfmcs	f6, 2, [r9, #-388]!	; 0xfffffe7c
      74:	2d392f39 	ldccs	15, cr2, [r9, #-228]!	; 0xffffff1c
      78:	39313032 	ldmdbcc	r1!, {r1, r4, r5, ip, sp}
      7c:	632d3471 			; <UNDEFINED> instruction: 0x632d3471
      80:	37303173 			; <UNDEFINED> instruction: 0x37303173
      84:	696c2f65 	stmdbvs	ip!, {r0, r2, r5, r6, r8, r9, sl, fp, sp}^
      88:	63672f62 	cmnvs	r7, #392	; 0x188
      8c:	72612f63 	rsbvc	r2, r1, #396	; 0x18c
      90:	6f6e2d6d 	svcvs	0x006e2d6d
      94:	652d656e 	strvs	r6, [sp, #-1390]!	; 0xfffffa92
      98:	2f696261 	svccs	0x00696261
      9c:	2e322e39 	mrccs	14, 1, r2, cr2, cr9, {1}
      a0:	6e692f31 	mcrvs	15, 3, r2, cr9, cr1, {1}
      a4:	64756c63 	ldrbtvs	r6, [r5], #-3171	; 0xfffff39d
      a8:	70000065 	andvc	r0, r0, r5, rrx
      ac:	32747261 	rsbscc	r7, r4, #268435462	; 0x10000006
      b0:	7365742d 	cmnvc	r5, #754974720	; 0x2d000000
      b4:	672d3574 			; <UNDEFINED> instruction: 0x672d3574
      b8:	00632e63 	rsbeq	r2, r3, r3, ror #28
      bc:	73000001 	movwvc	r0, #1
      c0:	6c2d6372 	stcvs	3, cr6, [sp], #-456	; 0xfffffe38
      c4:	682e636f 	stmdavs	lr!, {r0, r1, r2, r3, r5, r6, r8, r9, sp, lr}
      c8:	00000200 	andeq	r0, r0, r0, lsl #4
      cc:	2e697072 	mcrcs	0, 3, r7, cr9, cr2, {3}
      d0:	00030068 	andeq	r0, r3, r8, rrx
      d4:	64747300 	ldrbtvs	r7, [r4], #-768	; 0xfffffd00
      d8:	2d746e69 	ldclcs	14, cr6, [r4, #-420]!	; 0xfffffe5c
      dc:	2e636367 	cdpcs	3, 6, cr6, cr3, cr7, {3}
      e0:	00040068 	andeq	r0, r4, r8, rrx
      e4:	616b6300 	cmnvs	fp, r0, lsl #6
      e8:	636f6c6c 	cmnvs	pc, #108, 24	; 0x6c00
      ec:	0200682e 	andeq	r6, r0, #3014656	; 0x2e0000
      f0:	05000000 	streq	r0, [r0, #-0]
      f4:	02050012 	andeq	r0, r5, #18, 0
      f8:	00008044 	andeq	r8, r0, r4, asr #32
      fc:	05010b03 	streq	r0, [r1, #-2819]	; 0xfffff4fd
     100:	05188305 	ldreq	r8, [r8, #-773]	; 0xfffffcfb
     104:	0d050109 	stfeqs	f0, [r5, #-36]	; 0xffffffdc
     108:	08050106 	stmdaeq	r5, {r1, r2, r8}
     10c:	0014052c 	andseq	r0, r4, ip, lsr #10
     110:	06010402 	streq	r0, [r1], -r2, lsl #8
     114:	00050530 	andeq	r0, r5, r0, lsr r5
     118:	06010402 	streq	r0, [r1], -r2, lsl #8
     11c:	10030601 	andne	r0, r3, r1, lsl #12
     120:	134a014a 	movtne	r0, #41290	; 0xa14a
     124:	06010530 			; <UNDEFINED> instruction: 0x06010530
     128:	06090513 			; <UNDEFINED> instruction: 0x06090513
     12c:	04666d03 	strbteq	r6, [r6], #-3331	; 0xfffff2fd
     130:	030b0502 	movweq	r0, #46338	; 0xb502
     134:	05050179 	streq	r0, [r5, #-377]	; 0xfffffe87
     138:	060c0513 			; <UNDEFINED> instruction: 0x060c0513
     13c:	0104ba01 	tsteq	r4, r1, lsl #20
     140:	05181a05 	ldreq	r1, [r8, #-2565]	; 0xfffff5fb
     144:	679f0609 	ldrvs	r0, [pc, r9, lsl #12]
     148:	01060e05 	tsteq	r6, r5, lsl #28
     14c:	4b060905 	blmi	182568 <__bss_end__+0x1772a0>
     150:	01060b05 	tsteq	r6, r5, lsl #22
     154:	4b060d05 	blmi	183570 <__bss_end__+0x1782a8>
     158:	04020001 	streq	r0, [r2], #-1
     15c:	02006602 	andeq	r6, r0, #2097152	; 0x200000
     160:	00010204 	andeq	r0, r1, r4, lsl #4
     164:	13020402 	movwne	r0, #9218	; 0x2402
     168:	02001505 	andeq	r1, r0, #20971520	; 0x1400000
     16c:	01060204 	tsteq	r6, r4, lsl #4
     170:	02000d05 	andeq	r0, r0, #320	; 0x140
     174:	2f060204 	svccs	0x00060204
     178:	02001505 	andeq	r1, r0, #20971520	; 0x1400000
     17c:	01060204 	tsteq	r6, r4, lsl #4
     180:	02000905 	andeq	r0, r0, #81920	; 0x14000
     184:	30060204 	andcc	r0, r6, r4, lsl #4
     188:	02040200 	andeq	r0, r4, #0, 4
     18c:	1b050106 	blne	1405ac <__bss_end__+0x1352e4>
     190:	02040200 	andeq	r0, r4, #0, 4
     194:	01770306 	cmneq	r7, r6, lsl #6
     198:	02001c05 	andeq	r1, r0, #1280	; 0x500
     19c:	01060204 	tsteq	r6, r4, lsl #4
     1a0:	02000b05 	andeq	r0, r0, #5120	; 0x1400
     1a4:	09030204 	stmdbeq	r3, {r2, r9}
     1a8:	000d052e 	andeq	r0, sp, lr, lsr #10
     1ac:	06010402 	streq	r0, [r1], -r2, lsl #8
     1b0:	04020046 	streq	r0, [r2], #-70	; 0xffffffba
     1b4:	02000101 	andeq	r0, r0, #1073741824	; 0x40000000
     1b8:	05d60104 	ldrbeq	r0, [r6, #260]	; 0x104
     1bc:	f2340314 	vcge.s<illegal width 64>	d0, d4, d4
     1c0:	05670505 	strbeq	r0, [r7, #-1285]!	; 0xfffffafb
     1c4:	0501060f 	streq	r0, [r1, #-1551]	; 0xfffff9f1
     1c8:	064b0605 	strbeq	r0, [fp], -r5, lsl #12
     1cc:	052f062e 	streq	r0, [pc, #-1582]!	; fffffba6 <__bss_end__+0xffff48de>
     1d0:	05130601 	ldreq	r0, [r3, #-1537]	; 0xfffff9ff
     1d4:	5b030614 	blpl	c1a2c <__bss_end__+0xb6764>
     1d8:	8305059e 	movwhi	r0, #21918	; 0x559e
     1dc:	0612054f 	ldreq	r0, [r2], -pc, asr #10
     1e0:	06050501 	streq	r0, [r5], -r1, lsl #10
     1e4:	134a0131 	movtne	r0, #41265	; 0xa131
     1e8:	012e0903 			; <UNDEFINED> instruction: 0x012e0903
     1ec:	054b1582 	strbeq	r1, [fp, #-1410]	; 0xfffffa7e
     1f0:	05010612 	streq	r0, [r1, #-1554]	; 0xfffff9ee
     1f4:	052f0605 	streq	r0, [pc, #-1541]!	; fffffbf7 <__bss_end__+0xffff492f>
     1f8:	2e010607 	cfmadd32cs	mvax0, mvfx0, mvfx1, mvfx7
     1fc:	2f060905 	svccs	0x00060905
     200:	01140505 	tsteq	r4, r5, lsl #10
     204:	2e062e06 	cdpcs	14, 0, cr2, cr6, cr6, {0}
     208:	06010513 			; <UNDEFINED> instruction: 0x06010513
     20c:	0609052f 	streq	r0, [r9], -pc, lsr #10
     210:	9e060146 	adflssm	f0, f6, f6
     214:	12022e06 	andne	r2, r2, #96	; 0x60
     218:	d2010100 	andle	r0, r1, #0
     21c:	03000003 	movweq	r0, #3
     220:	0000f400 	andeq	pc, r0, r0, lsl #8
     224:	fb010200 	blx	40a2e <__bss_end__+0x35766>
     228:	01000d0e 	tsteq	r0, lr, lsl #26
     22c:	00010101 	andeq	r0, r1, r1, lsl #2
     230:	00010000 	andeq	r0, r1, r0
     234:	6f2f0100 	svcvs	0x002f0100
     238:	682f7470 	stmdavs	pc!, {r4, r5, r6, sl, ip, sp, lr}	; <UNPREDICTABLE>
     23c:	62656d6f 	rsbvs	r6, r5, #7104	; 0x1bc0
     240:	2f776572 	svccs	0x00776572
     244:	6c6c6543 	cfstr64vs	mvdx6, [ip], #-268	; 0xfffffef4
     248:	612f7261 			; <UNDEFINED> instruction: 0x612f7261
     24c:	6e2d6d72 	mcrvs	13, 1, r6, cr13, cr2, {3}
     250:	2d656e6f 	stclcs	14, cr6, [r5, #-444]!	; 0xfffffe44
     254:	69626165 	stmdbvs	r2!, {r0, r2, r5, r6, r8, sp, lr}^
     258:	392f392d 	stmdbcc	pc!, {r0, r2, r3, r5, r8, fp, ip, sp}	; <UNPREDICTABLE>
     25c:	3130322d 	teqcc	r0, sp, lsr #4
     260:	2d347139 	ldfcss	f7, [r4, #-228]!	; 0xffffff1c
     264:	30317363 	eorscc	r7, r1, r3, ror #6
     268:	6c2f6537 	cfstr32vs	mvfx6, [pc], #-220	; 194 <__code_start__-0x7e6c>
     26c:	672f6269 	strvs	r6, [pc, -r9, ror #4]!
     270:	612f6363 			; <UNDEFINED> instruction: 0x612f6363
     274:	6e2d6d72 	mcrvs	13, 1, r6, cr13, cr2, {3}
     278:	2d656e6f 	stclcs	14, cr6, [r5, #-444]!	; 0xfffffe44
     27c:	69626165 	stmdbvs	r2!, {r0, r2, r5, r6, r8, sp, lr}^
     280:	322e392f 	eorcc	r3, lr, #770048	; 0xbc000
     284:	692f312e 	stmdbvs	pc!, {r1, r2, r3, r5, r8, ip, sp}	; <UNPREDICTABLE>
     288:	756c636e 	strbvc	r6, [ip, #-878]!	; 0xfffffc92
     28c:	2f006564 	svccs	0x00006564
     290:	72657355 	rsbvc	r7, r5, #1409286145	; 0x54000001
     294:	696d2f73 	stmdbvs	sp!, {r0, r1, r4, r5, r6, r8, r9, sl, fp, sp}^
     298:	2f73656c 	svccs	0x0073656c
     29c:	72756f53 	rsbsvc	r6, r5, #332	; 0x14c
     2a0:	632f6563 			; <UNDEFINED> instruction: 0x632f6563
     2a4:	30343273 	eorscc	r3, r4, r3, ror r2
     2a8:	6c2f786c 	stcvs	8, cr7, [pc], #-432	; 100 <__code_start__-0x7f00>
     2ac:	69706269 	ldmdbvs	r0!, {r0, r3, r5, r6, r9, sp, lr}^
     2b0:	636e692f 	cmnvs	lr, #770048	; 0xbc000
     2b4:	6564756c 	strbvs	r7, [r4, #-1388]!	; 0xfffffa94
     2b8:	6b630000 	blvs	18c02c0 <__bss_end__+0x18b4ff8>
     2bc:	6f6c6c61 	svcvs	0x006c6c61
     2c0:	00632e63 	rsbeq	r2, r3, r3, ror #28
     2c4:	63000000 	movwvs	r0, #0
     2c8:	6c6c616b 	stfvse	f6, [ip], #-428	; 0xfffffe54
     2cc:	682e636f 	stmdavs	lr!, {r0, r1, r2, r3, r5, r6, r8, r9, sp, lr}
     2d0:	00000000 	andeq	r0, r0, r0
     2d4:	69647473 	stmdbvs	r4!, {r0, r1, r4, r5, r6, sl, ip, sp, lr}^
     2d8:	672d746e 	strvs	r7, [sp, -lr, ror #8]!
     2dc:	682e6363 	stmdavs	lr!, {r0, r1, r5, r6, r8, r9, sp, lr}
     2e0:	00000100 	andeq	r0, r0, r0, lsl #2
     2e4:	2e697072 	mcrcs	0, 3, r7, cr9, cr2, {3}
     2e8:	00020068 	andeq	r0, r2, r8, rrx
     2ec:	63727300 	cmnvs	r2, #0, 6
     2f0:	636f6c2d 	cmnvs	pc, #11520	; 0x2d00
     2f4:	0000682e 	andeq	r6, r0, lr, lsr #16
     2f8:	726b0000 	rsbvc	r0, fp, #0, 0
     2fc:	6c616d2d 	stclvs	13, cr6, [r1], #-180	; 0xffffff4c
     300:	2e636f6c 	cdpcs	15, 6, cr6, cr3, cr12, {3}
     304:	00000068 	andeq	r0, r0, r8, rrx
     308:	63616200 	cmnvs	r1, #0, 4
     30c:	6172746b 	cmnvs	r2, fp, ror #8
     310:	682e6563 	stmdavs	lr!, {r0, r1, r5, r6, r8, sl, sp, lr}
     314:	00000200 	andeq	r0, r0, r0, lsl #4
     318:	00010500 	andeq	r0, r1, r0, lsl #10
     31c:	82000205 	andhi	r0, r0, #1342177280	; 0x50000000
     320:	10030000 	andne	r0, r3, r0
     324:	67050501 	strvs	r0, [r5, -r1, lsl #10]
     328:	13060105 	movwne	r0, #24837	; 0x6105
     32c:	0106f606 	tsteq	r6, r6, lsl #12	; <UNPREDICTABLE>
     330:	67060505 	strvs	r0, [r6, -r5, lsl #10]
     334:	01060805 	tsteq	r6, r5, lsl #16
     338:	0609052e 	streq	r0, [r9], -lr, lsr #10
     33c:	0611052f 	ldreq	r0, [r1], -pc, lsr #10
     340:	30010501 	andcc	r0, r1, r1, lsl #10
     344:	0106bd06 	tsteq	r6, r6, lsl #26
     348:	67060505 	strvs	r0, [r6, -r5, lsl #10]
     34c:	13060105 	movwne	r0, #24837	; 0x6105
     350:	06a2062e 	strteq	r0, [r2], lr, lsr #12
     354:	06050501 	streq	r0, [r5], -r1, lsl #10
     358:	06140583 	ldreq	r0, [r4], -r3, lsl #11
     35c:	05020401 	streq	r0, [r2, #-1025]	; 0xfffffbff
     360:	0d030618 	stceq	6, cr0, [r3, #-96]	; 0xffffffa0
     364:	1305052e 	movwne	r0, #21806	; 0x552e
     368:	01060d05 	tsteq	r6, r5, lsl #26
     36c:	0501042e 	streq	r0, [r1, #-1070]	; 0xfffffbd2
     370:	01730301 	cmneq	r3, r1, lsl #6
     374:	0106da06 	tsteq	r6, r6, lsl #20
     378:	9f060505 	svcls	0x00060505
     37c:	01061105 	tsteq	r6, r5, lsl #2
     380:	0605052e 	streq	r0, [r5], -lr, lsr #10
     384:	0611052f 	ldreq	r0, [r1], -pc, lsr #10
     388:	05052e01 	streq	r2, [r5, #-3585]	; 0xfffff1ff
     38c:	01052f06 	tsteq	r5, r6, lsl #30
     390:	06661306 	strbteq	r1, [r6], -r6, lsl #6
     394:	050106f5 	streq	r0, [r1, #-1781]	; 0xfffff90b
     398:	0c030605 	stceq	6, cr0, [r3], {5}
     39c:	010a0582 	smlabbeq	sl, r2, r5, r0
     3a0:	01061505 	tsteq	r6, r5, lsl #10
     3a4:	0025052e 	eoreq	r0, r5, lr, lsr #10
     3a8:	06010402 	streq	r0, [r1], -r2, lsl #8
     3ac:	0005052e 	andeq	r0, r5, lr, lsr #10
     3b0:	06010402 	streq	r0, [r1], -r2, lsl #8
     3b4:	06090501 	streq	r0, [r9], -r1, lsl #10
     3b8:	060d054d 	streq	r0, [sp], -sp, asr #10
     3bc:	0c054a01 			; <UNDEFINED> instruction: 0x0c054a01
     3c0:	0028052e 	eoreq	r0, r8, lr, lsr #10
     3c4:	06020402 	streq	r0, [r2], -r2, lsl #8
     3c8:	002c0547 	eoreq	r0, ip, r7, asr #10
     3cc:	06020402 	streq	r0, [r2], -r2, lsl #8
     3d0:	04020001 	streq	r0, [r2], #-1
     3d4:	0d056602 	stceq	6, cr6, [r5, #-8]
     3d8:	06833306 	streq	r3, [r3], r6, lsl #6
     3dc:	16010501 	strne	r0, [r1], -r1, lsl #10
     3e0:	ba1c0306 	blt	701000 <__bss_end__+0x6f5d38>
     3e4:	05ba0106 	ldreq	r0, [sl, #262]!	; 0x106
     3e8:	132f0605 			; <UNDEFINED> instruction: 0x132f0605
     3ec:	06110513 			; <UNDEFINED> instruction: 0x06110513
     3f0:	06050501 	streq	r0, [r5], -r1, lsl #10
     3f4:	66f20168 	ldrbtvs	r0, [r2], r8, ror #2
     3f8:	060a0513 			; <UNDEFINED> instruction: 0x060a0513
     3fc:	2e080501 	cfsh32cs	mvfx0, mvfx8, #1
     400:	054d0e05 	strbeq	r0, [sp, #-3589]	; 0xfffff1fb
     404:	04020015 	streq	r0, [r2], #-21	; 0xffffffeb
     408:	052e0601 	streq	r0, [lr, #-1537]!	; 0xfffff9ff
     40c:	04020005 	streq	r0, [r2], #-5
     410:	05010601 	streq	r0, [r1, #-1537]	; 0xfffff9ff
     414:	054c0609 	strbeq	r0, [ip, #-1545]	; 0xfffff9f7
     418:	05010613 	streq	r0, [r1, #-1555]	; 0xfffff9ed
     41c:	0d054a0c 	vstreq	s8, [r5, #-48]	; 0xffffffd0
     420:	09054c06 	stmdbeq	r5, {r1, r2, sl, fp, lr}
     424:	06220514 			; <UNDEFINED> instruction: 0x06220514
     428:	2e310501 	cdpcs	5, 3, cr0, cr1, cr1, {0}
     42c:	052e0d05 	streq	r0, [lr, #-3333]!	; 0xfffff2fb
     430:	0d052e0c 	stceq	14, cr2, [r5, #-48]	; 0xffffffd0
     434:	02040200 	andeq	r0, r4, #0, 4
     438:	29054c06 	stmdbcs	r5, {r1, r2, sl, fp, lr}
     43c:	02040200 	andeq	r0, r4, #0, 4
     440:	05017803 	streq	r7, [r1, #-2051]	; 0xfffff7fd
     444:	0402002a 	streq	r0, [r2], #-42	; 0xffffffd6
     448:	00010602 	andeq	r0, r1, r2, lsl #12
     44c:	2e020402 	cdpcs	4, 0, cr0, cr2, cr2, {0}
     450:	02040200 	andeq	r0, r4, #0, 4
     454:	0609052e 	streq	r0, [r9], -lr, lsr #10
     458:	9e2e0110 	mcrls	1, 1, r0, cr14, cr0, {0}
     45c:	340d0566 	strcc	r0, [sp], #-1382	; 0xfffffa9a
     460:	4a9e2e01 	bmi	fe78bc6c <__bss_end__+0xfe7809a4>
     464:	9e2e0132 	mcrls	1, 1, r0, cr14, cr2, {1}
     468:	052e064a 	streq	r0, [lr, #-1610]!	; 0xfffff9b6
     46c:	1505170e 	strne	r1, [r5, #-1806]	; 0xfffff8f2
     470:	01040200 	mrseq	r0, R12_usr
     474:	1a052e06 	bne	14bc94 <__bss_end__+0x1409cc>
     478:	01040200 	mrseq	r0, R12_usr
     47c:	05050106 	streq	r0, [r5, #-262]	; 0xfffffefa
     480:	01040200 	mrseq	r0, R12_usr
     484:	0009052e 	andeq	r0, r9, lr, lsr #10
     488:	06030402 	streq	r0, [r3], -r2, lsl #8
     48c:	001d0530 	andseq	r0, sp, r0, lsr r5
     490:	06030402 	streq	r0, [r3], -r2, lsl #8
     494:	002a0501 	eoreq	r0, sl, r1, lsl #10
     498:	06030402 	streq	r0, [r3], -r2, lsl #8
     49c:	002b0548 	eoreq	r0, fp, r8, asr #10
     4a0:	06030402 	streq	r0, [r3], -r2, lsl #8
     4a4:	04020001 	streq	r0, [r2], #-1
     4a8:	02002e03 	andeq	r2, r0, #3, 28	; 0x30
     4ac:	052e0304 	streq	r0, [lr, #-772]!	; 0xfffffcfc
     4b0:	05170605 	ldreq	r0, [r7, #-1541]	; 0xfffff9fb
     4b4:	2e01060e 	cfmadd32cs	mvax0, mvfx0, mvfx1, mvfx14
     4b8:	2f060505 	svccs	0x00060505
     4bc:	01061105 	tsteq	r6, r5, lsl #2
     4c0:	6701052e 	strvs	r0, [r1, -lr, lsr #10]
     4c4:	5b08064a 	blpl	201df4 <__bss_end__+0x1f6b2c>
     4c8:	05050106 	streq	r0, [r5, #-262]	; 0xfffffefa
     4cc:	08056706 	stmdaeq	r5, {r1, r2, r8, r9, sl, sp, lr}
     4d0:	24050106 	strcs	r0, [r5], #-262	; 0xfffffefa
     4d4:	01040200 	mrseq	r0, R12_usr
     4d8:	06050566 	streq	r0, [r5], -r6, ror #10
     4dc:	062b056a 	strteq	r0, [fp], -sl, ror #10
     4e0:	2e330501 	cdpcs	5, 3, cr0, cr3, cr1, {0}
     4e4:	052e0c05 	streq	r0, [lr, #-3077]!	; 0xfffff3fb
     4e8:	2e2e2c10 	mcrcs	12, 1, r2, cr14, cr0, {0}
     4ec:	06310105 	ldrteq	r0, [r1], -r5, lsl #2
     4f0:	ba0106a4 	blt	41f88 <__bss_end__+0x36cc0>
     4f4:	2f060505 	svccs	0x00060505
     4f8:	01061005 	tsteq	r6, r5
     4fc:	69060505 	stmdbvs	r6, {r0, r2, r8, sl}
     500:	010a0569 	tsteq	sl, r9, ror #10
     504:	01060e05 	tsteq	r6, r5, lsl #28
     508:	02001505 	andeq	r1, r0, #20971520	; 0x1400000
     50c:	2e060104 	adfcss	f0, f6, f4
     510:	02000505 	andeq	r0, r0, #20971520	; 0x1400000
     514:	01060104 	tsteq	r6, r4, lsl #2
     518:	02000905 	andeq	r0, r0, #81920	; 0x14000
     51c:	4c060304 	stcmi	3, cr0, [r6], {4}
     520:	02001305 	andeq	r1, r0, #335544320	; 0x14000000
     524:	01060304 	tsteq	r6, r4, lsl #6
     528:	02000905 	andeq	r0, r0, #81920	; 0x14000
     52c:	67060304 	strvs	r0, [r6, -r4, lsl #6]
     530:	02002605 	andeq	r2, r0, #5242880	; 0x500000
     534:	01060304 	tsteq	r6, r4, lsl #6
     538:	02002b05 	andeq	r2, r0, #5120	; 0x1400
     53c:	054a0304 	strbeq	r0, [sl, #-772]	; 0xfffffcfc
     540:	04020029 	streq	r0, [r2], #-41	; 0xffffffd7
     544:	052b0603 	streq	r0, [fp, #-1539]!	; 0xfffff9fd
     548:	0402002a 	streq	r0, [r2], #-42	; 0xffffffd6
     54c:	00010603 	andeq	r0, r1, r3, lsl #12
     550:	2e030402 	cdpcs	4, 0, cr0, cr3, cr2, {0}
     554:	03040200 	movweq	r0, #16896	; 0x4200
     558:	0605052e 	streq	r0, [r5], -lr, lsr #10
     55c:	06150518 			; <UNDEFINED> instruction: 0x06150518
     560:	06050501 	streq	r0, [r5], -r1, lsl #10
     564:	060e052f 	streq	r0, [lr], -pc, lsr #10
     568:	05052e01 	streq	r2, [r5, #-3585]	; 0xfffff1ff
     56c:	12052f06 	andne	r2, r5, #6, 30
     570:	05050106 	streq	r0, [r5, #-262]	; 0xfffffefa
     574:	0f058306 	svceq	0x00058306
     578:	05050106 	streq	r0, [r5, #-262]	; 0xfffffefa
     57c:	9e014c06 	cdpls	12, 0, cr4, cr1, cr6, {0}
     580:	0a05149e 	beq	145800 <__bss_end__+0x13a538>
     584:	060e0501 	streq	r0, [lr], -r1, lsl #10
     588:	00150501 	andseq	r0, r5, r1, lsl #10
     58c:	06010402 	streq	r0, [r1], -r2, lsl #8
     590:	0005052e 	andeq	r0, r5, lr, lsr #10
     594:	06010402 	streq	r0, [r1], -r2, lsl #8
     598:	00090501 	andeq	r0, r9, r1, lsl #10
     59c:	06030402 	streq	r0, [r3], -r2, lsl #8
     5a0:	0017054c 	andseq	r0, r7, ip, asr #10
     5a4:	06030402 	streq	r0, [r3], -r2, lsl #8
     5a8:	00090501 	andeq	r0, r9, r1, lsl #10
     5ac:	06030402 	streq	r0, [r3], -r2, lsl #8
     5b0:	000e0567 	andeq	r0, lr, r7, ror #10
     5b4:	06030402 	streq	r0, [r3], -r2, lsl #8
     5b8:	00220501 	eoreq	r0, r2, r1, lsl #10
     5bc:	06030402 	streq	r0, [r3], -r2, lsl #8
     5c0:	0024052b 	eoreq	r0, r4, fp, lsr #10
     5c4:	06030402 	streq	r0, [r3], -r2, lsl #8
     5c8:	04020001 	streq	r0, [r2], #-1
     5cc:	02002e03 	andeq	r2, r0, #3, 28	; 0x30
     5d0:	052e0304 	streq	r0, [lr, #-772]!	; 0xfffffcfc
     5d4:	05180605 	ldreq	r0, [r8, #-1541]	; 0xfffff9fb
     5d8:	0501060d 	streq	r0, [r1, #-1549]	; 0xfffff9f3
     5dc:	05670605 	strbeq	r0, [r7, #-1541]!	; 0xfffff9fb
     5e0:	05010610 	streq	r0, [r1, #-1552]	; 0xfffff9f0
     5e4:	05300605 	ldreq	r0, [r0, #-1541]!	; 0xfffff9fb
     5e8:	66140601 	ldrvs	r0, [r4], -r1, lsl #12
     5ec:	01000802 	tsteq	r0, r2, lsl #16
     5f0:	00022801 	andeq	r2, r2, r1, lsl #16
     5f4:	64000300 	strvs	r0, [r0], #-768	; 0xfffffd00
     5f8:	02000000 	andeq	r0, r0, #0, 0
     5fc:	0d0efb01 	vstreq	d15, [lr, #-4]
     600:	01010100 	mrseq	r0, (UNDEF: 17)
     604:	00000001 	andeq	r0, r0, r1
     608:	01000001 	tsteq	r0, r1
     60c:	6573552f 	ldrbvs	r5, [r3, #-1327]!	; 0xfffffad1
     610:	6d2f7372 	stcvs	3, cr7, [pc, #-456]!	; 450 <__code_start__-0x7bb0>
     614:	73656c69 	cmnvc	r5, #26880	; 0x6900
     618:	756f532f 	strbvc	r5, [pc, #-815]!	; 2f1 <__code_start__-0x7d0f>
     61c:	2f656372 	svccs	0x00656372
     620:	34327363 	ldrtcc	r7, [r2], #-867	; 0xfffffc9d
     624:	2f786c30 	svccs	0x00786c30
     628:	7062696c 	rsbvc	r6, r2, ip, ror #18
     62c:	6e692f69 	cdpvs	15, 6, cr2, cr9, cr9, {3}
     630:	64756c63 	ldrbtvs	r6, [r5], #-3171	; 0xfffff39d
     634:	6b000065 	blvs	7d0 <__code_start__-0x7830>
     638:	616d2d72 	smcvs	53970	; 0xd2d2
     63c:	636f6c6c 	cmnvs	pc, #108, 24	; 0x6c00
     640:	0000632e 	andeq	r6, r0, lr, lsr #6
     644:	70720000 	rsbsvc	r0, r2, r0
     648:	00682e69 	rsbeq	r2, r8, r9, ror #28
     64c:	6b000001 	blvs	658 <__code_start__-0x79a8>
     650:	616d2d72 	smcvs	53970	; 0xd2d2
     654:	636f6c6c 	cmnvs	pc, #108, 24	; 0x6c00
     658:	0000682e 	andeq	r6, r0, lr, lsr #16
     65c:	05000000 	streq	r0, [r0, #-0]
     660:	02050001 	andeq	r0, r5, #1, 0
     664:	00008638 	andeq	r8, r0, r8, lsr r6
     668:	0100d303 	tsteq	r0, r3, lsl #6
     66c:	02050106 	andeq	r0, r5, #-2147483647	; 0x80000001
     670:	05136706 	ldreq	r6, [r3, #-1798]	; 0xfffff8fa
     674:	05010605 	streq	r0, [r1, #-1541]	; 0xfffff9fb
     678:	052f0602 	streq	r0, [pc, #-1538]!	; 7e <__code_start__-0x7f82>
     67c:	05010609 	streq	r0, [r1, #-1545]	; 0xfffff9f7
     680:	052e4a02 	streq	r4, [lr, #-2562]!	; 0xfffff5fe
     684:	04020012 	streq	r0, [r2], #-18	; 0xffffffee
     688:	052e0601 	streq	r0, [lr, #-1537]!	; 0xfffff9ff
     68c:	04020002 	streq	r0, [r2], #-2
     690:	05010601 	streq	r0, [r1, #-1537]	; 0xfffff9ff
     694:	04020027 	streq	r0, [r2], #-39	; 0xffffffd9
     698:	12054a03 	andne	r4, r5, #12288	; 0x3000
     69c:	03040200 	movweq	r0, #16896	; 0x4200
     6a0:	0603052e 	streq	r0, [r3], -lr, lsr #10
     6a4:	0610054b 	ldreq	r0, [r0], -fp, asr #10
     6a8:	2e060501 	cfsh32cs	mvfx0, mvfx6, #1
     6ac:	02001505 	andeq	r1, r0, #20971520	; 0x1400000
     6b0:	054a0104 	strbeq	r0, [sl, #-260]	; 0xfffffefc
     6b4:	04020020 	streq	r0, [r2], #-32	; 0xffffffe0
     6b8:	02004a02 	andeq	r4, r0, #8192	; 0x2000
     6bc:	054a0204 	strbeq	r0, [sl, #-516]	; 0xfffffdfc
     6c0:	05300602 	ldreq	r0, [r0, #-1538]!	; 0xfffff9fe
     6c4:	05010610 	streq	r0, [r1, #-1552]	; 0xfffff9f0
     6c8:	1d052e09 	stcne	14, cr2, [r5, #-36]	; 0xffffffdc
     6cc:	2e05052e 	cfsh32cs	mvfx0, mvfx5, #30
     6d0:	50060305 	andpl	r0, r6, r5, lsl #6
     6d4:	01060d05 	tsteq	r6, r5, lsl #26
     6d8:	2f060205 	svccs	0x00060205
     6dc:	01060e05 	tsteq	r6, r5, lsl #28
     6e0:	052e0805 	streq	r0, [lr, #-2053]!	; 0xfffff7fb
     6e4:	03052e05 	movweq	r2, #24069	; 0x5e05
     6e8:	0c055006 	stceq	0, cr5, [r5], {6}
     6ec:	02050106 	andeq	r0, r5, #-2147483647	; 0x80000001
     6f0:	08052f06 	stmdaeq	r5, {r1, r2, r8, r9, sl, fp, sp}
     6f4:	01050106 	tsteq	r5, r6, lsl #2
     6f8:	0603054b 	streq	r0, [r3], -fp, asr #10
     6fc:	052e7303 	streq	r7, [lr, #-771]!	; 0xfffffcfd
     700:	0501061c 	streq	r0, [r1, #-1564]	; 0xfffff9e4
     704:	03052e0e 	movweq	r2, #24078	; 0x5e0e
     708:	13054b06 	movwne	r4, #23302	; 0x5b06
     70c:	1a050106 	bne	140b2c <__bss_end__+0x135864>
     710:	2e0d052e 	cfsh32cs	mvfx0, mvfx13, #30
     714:	50060305 	andpl	r0, r6, r5, lsl #6
     718:	01061505 	tsteq	r6, r5, lsl #10
     71c:	052e0d05 	streq	r0, [lr, #-3333]!	; 0xfffff2fb
     720:	054b0603 	strbeq	r0, [fp, #-1539]	; 0xfffff9fd
     724:	05010613 	streq	r0, [r1, #-1555]	; 0xfffff9ed
     728:	01052e0c 	tsteq	r5, ip, lsl #28
     72c:	7fb90306 	svcvc	0x00b90306
     730:	050106d6 	streq	r0, [r1, #-1750]	; 0xfffff92a
     734:	05830602 	streq	r0, [r3, #1538]	; 0x602
     738:	05010605 	streq	r0, [r1, #-1541]	; 0xfffff9fb
     73c:	02052f06 	andeq	r2, r5, #6, 30
     740:	05672f06 	strbeq	r2, [r7, #-3846]!	; 0xfffff0fa
     744:	0501060d 	streq	r0, [r1, #-1549]	; 0xfffff9f3
     748:	054b0602 	strbeq	r0, [fp, #-1538]	; 0xfffff9fe
     74c:	05010605 	streq	r0, [r1, #-1541]	; 0xfffff9fb
     750:	134c0602 	movtne	r0, #50690	; 0xc602
     754:	01060d05 	tsteq	r6, r5, lsl #26
     758:	2f060205 	svccs	0x00060205
     75c:	2f062e06 	svccs	0x00062e06
     760:	01060905 	tsteq	r6, r5, lsl #18
     764:	05620a05 	strbeq	r0, [r2, #-2565]!	; 0xfffff5fb
     768:	da063301 	ble	18d374 <__bss_end__+0x1820ac>
     76c:	02050106 	andeq	r0, r5, #-2147483647	; 0x80000001
     770:	14136706 	ldrne	r6, [r3], #-1798	; 0xfffff8fa
     774:	01062405 	tsteq	r6, r5, lsl #8
     778:	052e2905 	streq	r2, [lr, #-2309]!	; 0xfffff6fb
     77c:	02052e09 	andeq	r2, r5, #144	; 0x90
     780:	0d052f06 	stceq	15, cr2, [r5, #-24]	; 0xffffffe8
     784:	05050106 	streq	r0, [r5, #-262]	; 0xfffffefa
     788:	0602054a 	streq	r0, [r2], -sl, asr #10
     78c:	06090550 			; <UNDEFINED> instruction: 0x06090550
     790:	03052e01 	movweq	r2, #24065	; 0x5e01
     794:	16052a06 	strne	r2, [r5], -r6, lsl #20
     798:	0e050106 	adfeqs	f0, f5, f6
     79c:	0603054a 	streq	r0, [r3], -sl, asr #10
     7a0:	060f052f 	streq	r0, [pc], -pc, lsr #10
     7a4:	06040501 	streq	r0, [r4], -r1, lsl #10
     7a8:	0607056d 	streq	r0, [r7], -sp, ror #10
     7ac:	06050501 	streq	r0, [r5], -r1, lsl #10
     7b0:	060f0534 			; <UNDEFINED> instruction: 0x060f0534
     7b4:	06050501 	streq	r0, [r5], -r1, lsl #10
     7b8:	0607054b 	streq	r0, [r7], -fp, asr #10
     7bc:	06050501 	streq	r0, [r5], -r1, lsl #10
     7c0:	060f052f 	streq	r0, [pc], -pc, lsr #10
     7c4:	06040501 	streq	r0, [r4], -r1, lsl #10
     7c8:	060a0530 			; <UNDEFINED> instruction: 0x060a0530
     7cc:	06040501 	streq	r0, [r4], -r1, lsl #10
     7d0:	060b054b 	streq	r0, [fp], -fp, asr #10
     7d4:	05052e01 	streq	r2, [r5, #-3585]	; 0xfffff1ff
     7d8:	2e770306 	cdpcs	3, 7, cr0, cr7, cr6, {0}
     7dc:	01061805 	tsteq	r6, r5, lsl #16
     7e0:	052e1205 	streq	r1, [lr, #-517]!	; 0xfffffdfb
     7e4:	7a03061a 	bvc	c2054 <__bss_end__+0xb6d8c>
     7e8:	0118054a 	tsteq	r8, sl, asr #10
     7ec:	01062005 	tsteq	r6, r5
     7f0:	052e2705 	streq	r2, [lr, #-1797]!	; 0xfffff8fb
     7f4:	05300603 	ldreq	r0, [r0, #-1539]!	; 0xfffff9fd
     7f8:	0501060b 	streq	r0, [r1, #-1547]	; 0xfffff9f5
     7fc:	03052e06 	movweq	r2, #24070	; 0x5e06
     800:	4a0f0306 	bmi	3c1420 <__bss_end__+0x3b6158>
     804:	01060905 	tsteq	r6, r5, lsl #18
     808:	054a0605 	strbeq	r0, [sl, #-1541]	; 0xfffff9fb
     80c:	054c0604 	strbeq	r0, [ip, #-1540]	; 0xfffff9fc
     810:	2e01060d 	cfmadd32cs	mvax0, mvfx0, mvfx1, mvfx13
     814:	2e2e0705 	cdpcs	7, 2, cr0, cr14, cr5, {0}
     818:	01000602 	tsteq	r0, r2, lsl #12
     81c:	00053801 	andeq	r3, r5, r1, lsl #16
     820:	d4000300 	strle	r0, [r0], #-768	; 0xfffffd00
     824:	02000000 	andeq	r0, r0, #0, 0
     828:	0d0efb01 	vstreq	d15, [lr, #-4]
     82c:	01010100 	mrseq	r0, (UNDEF: 17)
     830:	00000001 	andeq	r0, r0, r1
     834:	01000001 	tsteq	r0, r1
     838:	74706f2f 	ldrbtvc	r6, [r0], #-3887	; 0xfffff0d1
     83c:	6d6f682f 	stclvs	8, cr6, [pc, #-188]!	; 788 <__code_start__-0x7878>
     840:	65726265 	ldrbvs	r6, [r2, #-613]!	; 0xfffffd9b
     844:	65432f77 	strbvs	r2, [r3, #-3959]	; 0xfffff089
     848:	72616c6c 	rsbvc	r6, r1, #108, 24	; 0x6c00
     84c:	6d72612f 	ldfvse	f6, [r2, #-188]!	; 0xffffff44
     850:	6e6f6e2d 	cdpvs	14, 6, cr6, cr15, cr13, {1}
     854:	61652d65 	cmnvs	r5, r5, ror #26
     858:	392d6962 	pushcc	{r1, r5, r6, r8, fp, sp, lr}
     85c:	322d392f 	eorcc	r3, sp, #770048	; 0xbc000
     860:	71393130 	teqvc	r9, r0, lsr r1
     864:	73632d34 	cmnvc	r3, #52, 26	; 0xd00
     868:	65373031 	ldrvs	r3, [r7, #-49]!	; 0xffffffcf
     86c:	62696c2f 	rsbvs	r6, r9, #12032	; 0x2f00
     870:	6363672f 	cmnvs	r3, #12320768	; 0xbc0000
     874:	6d72612f 	ldfvse	f6, [r2, #-188]!	; 0xffffff44
     878:	6e6f6e2d 	cdpvs	14, 6, cr6, cr15, cr13, {1}
     87c:	61652d65 	cmnvs	r5, r5, ror #26
     880:	392f6962 	stmdbcc	pc!, {r1, r5, r6, r8, fp, sp, lr}	; <UNPREDICTABLE>
     884:	312e322e 			; <UNDEFINED> instruction: 0x312e322e
     888:	636e692f 	cmnvs	lr, #770048	; 0xbc000
     88c:	6564756c 	strbvs	r7, [r4, #-1388]!	; 0xfffffa94
     890:	73552f00 	cmpvc	r5, #0, 30
     894:	2f737265 	svccs	0x00737265
     898:	656c696d 	strbvs	r6, [ip, #-2413]!	; 0xfffff693
     89c:	6f532f73 	svcvs	0x00532f73
     8a0:	65637275 	strbvs	r7, [r3, #-629]!	; 0xfffffd8b
     8a4:	3273632f 	rsbscc	r6, r3, #-1140850688	; 0xbc000000
     8a8:	786c3034 	stmdavc	ip!, {r2, r4, r5, ip, sp}^
     8ac:	62696c2f 	rsbvs	r6, r9, #12032	; 0x2f00
     8b0:	692f6970 	stmdbvs	pc!, {r4, r5, r6, r8, fp, sp, lr}	; <UNPREDICTABLE>
     8b4:	756c636e 	strbvc	r6, [ip, #-878]!	; 0xfffffc92
     8b8:	00006564 	andeq	r6, r0, r4, ror #10
     8bc:	672d6b63 	strvs	r6, [sp, -r3, ror #22]!
     8c0:	00632e63 	rsbeq	r2, r3, r3, ror #28
     8c4:	73000000 	movwvc	r0, #0
     8c8:	6c2d6372 	stcvs	3, cr6, [sp], #-456	; 0xfffffe38
     8cc:	682e636f 	stmdavs	lr!, {r0, r1, r2, r3, r5, r6, r8, r9, sp, lr}
     8d0:	00000000 	andeq	r0, r0, r0
     8d4:	69647473 	stmdbvs	r4!, {r0, r1, r4, r5, r6, sl, ip, sp, lr}^
     8d8:	672d746e 	strvs	r7, [sp, -lr, ror #8]!
     8dc:	682e6363 	stmdavs	lr!, {r0, r1, r5, r6, r8, r9, sp, lr}
     8e0:	00000100 	andeq	r0, r0, r0, lsl #2
     8e4:	2e697072 	mcrcs	0, 3, r7, cr9, cr2, {3}
     8e8:	00020068 	andeq	r0, r2, r8, rrx
     8ec:	616b6300 	cmnvs	fp, r0, lsl #6
     8f0:	636f6c6c 	cmnvs	pc, #108, 24	; 0x6c00
     8f4:	0000682e 	andeq	r6, r0, lr, lsr #16
     8f8:	05000000 	streq	r0, [r0, #-0]
     8fc:	02050001 	andeq	r0, r5, #1, 0
     900:	00008838 	andeq	r8, r0, r8, lsr r8
     904:	06012b03 	streq	r2, [r1], -r3, lsl #22
     908:	06050501 	streq	r0, [r5], -r1, lsl #10
     90c:	060b0568 	streq	r0, [fp], -r8, ror #10
     910:	4a080501 	bmi	201d1c <__bss_end__+0x1f6a54>
     914:	02001d05 	andeq	r1, r0, #320	; 0x140
     918:	054a0104 	strbeq	r0, [sl, #-260]	; 0xfffffefc
     91c:	04020018 	streq	r0, [r2], #-24	; 0xffffffe8
     920:	0c054a01 			; <UNDEFINED> instruction: 0x0c054a01
     924:	10052e4d 	andne	r2, r5, sp, asr #28
     928:	052e2e2c 	streq	r2, [lr, #-3628]!	; 0xfffff1d4
     92c:	03063101 	movweq	r3, #24833	; 0x6101
     930:	01069e0b 	tsteq	r6, fp, lsl #28
     934:	83060505 	movwhi	r0, #25861	; 0x6505
     938:	060a0514 			; <UNDEFINED> instruction: 0x060a0514
     93c:	2e080501 	cfsh32cs	mvfx0, mvfx8, #1
     940:	4c060505 	cfstr32mi	mvfx0, [r6], {5}
     944:	01060c05 	tsteq	r6, r5, lsl #24
     948:	05651005 	strbeq	r1, [r5, #-5]!
     94c:	03063001 	movweq	r3, #24577	; 0x6001
     950:	0106820e 	tsteq	r6, lr, lsl #4
     954:	83060505 	movwhi	r0, #25861	; 0x6505
     958:	04020001 	streq	r0, [r2], #-1
     95c:	02008202 	andeq	r8, r0, #536870912	; 0x20000000
     960:	00010204 	andeq	r0, r1, r4, lsl #4
     964:	15020402 	strne	r0, [r2, #-1026]	; 0xfffffbfe
     968:	02040200 	andeq	r0, r4, #0, 4
     96c:	04020001 	streq	r0, [r2], #-1
     970:	02004a02 	andeq	r4, r0, #8192	; 0x2000
     974:	00010204 	andeq	r0, r1, r4, lsl #4
     978:	13020402 	movwne	r0, #9218	; 0x2402
     97c:	02040200 	andeq	r0, r4, #0, 4
     980:	04020001 	streq	r0, [r2], #-1
     984:	02004a01 	andeq	r4, r0, #4096	; 0x1000
     988:	00010104 	andeq	r0, r1, r4, lsl #2
     98c:	06010402 	streq	r0, [r1], -r2, lsl #8
     990:	0402009e 	streq	r0, [r2], #-158	; 0xffffff62
     994:	02002e01 	andeq	r2, r0, #1, 28
     998:	2e060104 	adfcss	f0, f6, f4
     99c:	01040200 	mrseq	r0, R12_usr
     9a0:	0402002a 	streq	r0, [r2], #-42	; 0xffffffd6
     9a4:	02000101 	andeq	r0, r0, #1073741824	; 0x40000000
     9a8:	9e060104 	adflss	f0, f6, f4
     9ac:	01040200 	mrseq	r0, R12_usr
     9b0:	0402002e 	streq	r0, [r2], #-46	; 0xffffffd2
     9b4:	002e0601 	eoreq	r0, lr, r1, lsl #12
     9b8:	31010402 	tstcc	r1, r2, lsl #8
     9bc:	01040200 	mrseq	r0, R12_usr
     9c0:	04020001 	streq	r0, [r2], #-1
     9c4:	009e0601 	addseq	r0, lr, r1, lsl #12
     9c8:	2e010402 	cdpcs	4, 0, cr0, cr1, cr2, {0}
     9cc:	01040200 	mrseq	r0, R12_usr
     9d0:	19052e06 	stmdbne	r5, {r1, r2, r9, sl, fp, sp}
     9d4:	2e0d0306 	cdpcs	3, 0, cr0, cr13, cr6, {0}
     9d8:	04040200 	streq	r0, [r4], #-512	; 0xfffffe00
     9dc:	0011052e 	andseq	r0, r1, lr, lsr #10
     9e0:	06040402 	streq	r0, [r4], -r2, lsl #8
     9e4:	00140532 	andseq	r0, r4, r2, lsr r5
     9e8:	06040402 	streq	r0, [r4], -r2, lsl #8
     9ec:	000d0501 	andeq	r0, sp, r1, lsl #10
     9f0:	06020402 	streq	r0, [r2], -r2, lsl #8
     9f4:	00230552 	eoreq	r0, r3, r2, asr r5
     9f8:	03020402 	movweq	r0, #9218	; 0x2402
     9fc:	2405016a 	strcs	r0, [r5], #-362	; 0xfffffe96
     a00:	02040200 	andeq	r0, r4, #0, 4
     a04:	1b050106 	blne	140e24 <__bss_end__+0x135b5c>
     a08:	01040200 	mrseq	r0, R12_usr
     a0c:	05052e06 	streq	r2, [r5, #-3590]	; 0xfffff1fa
     a10:	01040200 	mrseq	r0, R12_usr
     a14:	09050106 	stmdbeq	r5, {r1, r2, r8}
     a18:	14054c06 	strne	r4, [r5], #-3078	; 0xfffff3fa
     a1c:	09050106 	stmdbeq	r5, {r1, r2, r8}
     a20:	0c054b06 			; <UNDEFINED> instruction: 0x0c054b06
     a24:	052e0106 	streq	r0, [lr, #-262]!	; 0xfffffefa
     a28:	0530060d 	ldreq	r0, [r0, #-1549]!	; 0xfffff9f3
     a2c:	05010629 	streq	r0, [r1, #-1577]	; 0xfffff9d7
     a30:	052f060d 	streq	r0, [pc, #-1549]!	; 42b <__code_start__-0x7bd5>
     a34:	05010616 	streq	r0, [r1, #-1558]	; 0xfffff9ea
     a38:	0530060d 	ldreq	r0, [r0, #-1549]!	; 0xfffff9f3
     a3c:	05010610 	streq	r0, [r1, #-1552]	; 0xfffff9f0
     a40:	054c0611 	strbeq	r0, [ip, #-1553]	; 0xfffff9ef
     a44:	0501061c 	streq	r0, [r1, #-1564]	; 0xfffff9e4
     a48:	05662e19 	strbeq	r2, [r6, #-3609]!	; 0xfffff1e7
     a4c:	05340615 	ldreq	r0, [r4, #-1557]!	; 0xfffff9eb
     a50:	0501064d 	streq	r0, [r1, #-1613]	; 0xfffff9b3
     a54:	2e662e15 	mcrcs	14, 3, r2, cr6, cr5, {0}
     a58:	0301052e 	movweq	r0, #5422	; 0x152e
     a5c:	064a0109 	strbeq	r0, [sl], -r9, lsl #2
     a60:	3c080903 			; <UNDEFINED> instruction: 0x3c080903
     a64:	05860505 	streq	r0, [r6, #1285]	; 0x505
     a68:	1505010a 	strne	r0, [r5, #-266]	; 0xfffffef6
     a6c:	25050106 	strcs	r0, [r5, #-262]	; 0xfffffefa
     a70:	01040200 	mrseq	r0, R12_usr
     a74:	05052e06 	streq	r2, [r5, #-3590]	; 0xfffff1fa
     a78:	01040200 	mrseq	r0, R12_usr
     a7c:	09050106 	stmdbeq	r5, {r1, r2, r8}
     a80:	03040200 	movweq	r0, #16896	; 0x4200
     a84:	32054c06 	andcc	r4, r5, #1536	; 0x600
     a88:	03040200 	movweq	r0, #16896	; 0x4200
     a8c:	21050106 	tstcs	r5, r6, lsl #2
     a90:	03040200 	movweq	r0, #16896	; 0x4200
     a94:	0011054a 	andseq	r0, r1, sl, asr #10
     a98:	2e030402 	cdpcs	4, 0, cr0, cr3, cr2, {0}
     a9c:	02002805 	andeq	r2, r0, #327680	; 0x50000
     aa0:	2c060304 	stccs	3, cr0, [r6], {4}
     aa4:	02002c05 	andeq	r2, r0, #1280	; 0x500
     aa8:	01060304 	tsteq	r6, r4, lsl #6
     aac:	03040200 	movweq	r0, #16896	; 0x4200
     ab0:	0402002e 	streq	r0, [r2], #-46	; 0xffffffd2
     ab4:	05052e03 	streq	r2, [r5, #-3587]	; 0xfffff1fd
     ab8:	06131906 	ldreq	r1, [r3], -r6, lsl #18
     abc:	0530062e 	ldreq	r0, [r0, #-1582]!	; 0xfffff9d2
     ac0:	0501060d 	streq	r0, [r1, #-1549]	; 0xfffff9f3
     ac4:	054b0605 	strbeq	r0, [fp, #-1541]	; 0xfffff9fb
     ac8:	0501060d 	streq	r0, [r1, #-1549]	; 0xfffff9f3
     acc:	052f0605 	streq	r0, [pc, #-1541]!	; 4cf <__code_start__-0x7b31>
     ad0:	0501060d 	streq	r0, [r1, #-1549]	; 0xfffff9f3
     ad4:	052f0605 	streq	r0, [pc, #-1541]!	; 4d7 <__code_start__-0x7b29>
     ad8:	0501060d 	streq	r0, [r1, #-1549]	; 0xfffff9f3
     adc:	6a350605 	bvs	d422f8 <__bss_end__+0xd37030>
     ae0:	13698313 	cmnne	r9, #1275068416	; 0x4c000000
     ae4:	01051368 	tsteq	r5, r8, ror #6
     ae8:	08066706 	stmdaeq	r6, {r1, r2, r8, r9, sl, sp, lr}
     aec:	0501065e 	streq	r0, [r1, #-1630]	; 0xfffff9a2
     af0:	13830605 	orrne	r0, r3, #5242880	; 0x500000
     af4:	2f062e06 	svccs	0x00062e06
     af8:	0a052f4c 	beq	14c830 <__bss_end__+0x141568>
     afc:	06150501 	ldreq	r0, [r5], -r1, lsl #10
     b00:	27054a01 	strcs	r4, [r5, -r1, lsl #20]
     b04:	2e1b050d 	cfmul32cs	mvfx0, mvfx11, mvfx13
     b08:	052e0e05 	streq	r0, [lr, #-3589]!	; 0xfffff1fb
     b0c:	0d053305 	stceq	3, cr3, [r5, #-20]	; 0xffffffec
     b10:	2e090306 	cdpcs	3, 0, cr0, cr9, cr6, {0}
     b14:	01061305 	tsteq	r6, r5, lsl #6
     b18:	2f060d05 	svccs	0x00060d05
     b1c:	28056606 	stmdacs	r5, {r1, r2, r9, sl, sp, lr}
     b20:	02040200 	andeq	r0, r4, #0, 4
     b24:	2e760306 	cdpcs	3, 7, cr0, cr6, cr6, {0}
     b28:	02002c05 	andeq	r2, r0, #1280	; 0x500
     b2c:	01060204 	tsteq	r6, r4, lsl #4
     b30:	02002505 	andeq	r2, r0, #20971520	; 0x1400000
     b34:	66060104 	strvs	r0, [r6], -r4, lsl #2
     b38:	02000505 	andeq	r0, r0, #20971520	; 0x1400000
     b3c:	01060104 	tsteq	r6, r4, lsl #2
     b40:	4c060905 			; <UNDEFINED> instruction: 0x4c060905
     b44:	01060e05 	tsteq	r6, r5, lsl #28
     b48:	052e0c05 	streq	r0, [lr, #-3077]!	; 0xfffff3fb
     b4c:	054e0609 	strbeq	r0, [lr, #-1545]	; 0xfffff9f7
     b50:	05010610 	streq	r0, [r1, #-1552]	; 0xfffff9f0
     b54:	052f0609 	streq	r0, [pc, #-1545]!	; 553 <__code_start__-0x7aad>
     b58:	0501060e 	streq	r0, [r1, #-1550]	; 0xfffff9f2
     b5c:	0e052e0c 	cdpeq	14, 0, cr2, cr5, cr12, {0}
     b60:	11054f06 	tstne	r5, r6, lsl #30
     b64:	0d050106 	stfeqs	f0, [r5, #-24]	; 0xffffffe8
     b68:	19054c06 	stmdbne	r5, {r1, r2, sl, fp, lr}
     b6c:	0d050106 	stfeqs	f0, [r5, #-24]	; 0xffffffe8
     b70:	66062f06 	strvs	r2, [r6], -r6, lsl #30
     b74:	05052e2e 	streq	r2, [r5, #-3630]	; 0xfffff1d2
     b78:	06011606 	streq	r1, [r1], -r6, lsl #12
     b7c:	132e064a 			; <UNDEFINED> instruction: 0x132e064a
     b80:	01060805 	tsteq	r6, r5, lsl #16
     b84:	4b060905 	blmi	182fa0 <__bss_end__+0x177cd8>
     b88:	02004a01 	andeq	r4, r0, #4096	; 0x1000
     b8c:	05140104 	ldreq	r0, [r4, #-260]	; 0xfffffefc
     b90:	04020005 	streq	r0, [r2], #-5
     b94:	02001401 	andeq	r1, r0, #16777216	; 0x1000000
     b98:	054b0104 	strbeq	r0, [fp, #-260]	; 0xfffffefc
     b9c:	04020008 	streq	r0, [r2], #-8
     ba0:	05010601 	streq	r0, [r1, #-1537]	; 0xfffff9ff
     ba4:	05300609 	ldreq	r0, [r0, #-1545]!	; 0xfffff9f7
     ba8:	05010617 	streq	r0, [r1, #-1559]	; 0xfffff9e9
     bac:	09053401 	stmdbeq	r5, {r0, sl, ip, sp}
     bb0:	4a750306 	bmi	1d417d0 <__bss_end__+0x1d36508>
     bb4:	03010501 	movweq	r0, #5377	; 0x1501
     bb8:	01220235 			; <UNDEFINED> instruction: 0x01220235
     bbc:	13830505 	orrne	r0, r3, #20971520	; 0x1400000
     bc0:	052f4c4b 	streq	r4, [pc, #-3147]!	; ffffff7d <__bss_end__+0xffff4cb5>
     bc4:	1505010a 	strne	r0, [r5, #-266]	; 0xfffffef6
     bc8:	054a0106 	strbeq	r0, [sl, #-262]	; 0xfffffefa
     bcc:	1b050d27 	blne	144070 <__bss_end__+0x138da8>
     bd0:	2e0e052e 	cfsh32cs	mvfx0, mvfx14, #30
     bd4:	05330505 	ldreq	r0, [r3, #-1285]!	; 0xfffffafb
     bd8:	0533060d 	ldreq	r0, [r3, #-1549]!	; 0xfffff9f3
     bdc:	05010613 	streq	r0, [r1, #-1555]	; 0xfffff9ed
     be0:	052f060d 	streq	r0, [pc, #-1549]!	; 5db <__code_start__-0x7a25>
     be4:	0501061e 	streq	r0, [r1, #-1566]	; 0xfffff9e2
     be8:	0d052e1a 	stceq	14, cr2, [r5, #-104]	; 0xffffff98
     bec:	02042f06 	andeq	r2, r4, #6, 30
     bf0:	88030b05 	stmdahi	r3, {r0, r2, r8, r9, fp}
     bf4:	05052e7e 	streq	r2, [r5, #-3710]	; 0xfffff182
     bf8:	060c0513 			; <UNDEFINED> instruction: 0x060c0513
     bfc:	0104ba01 	tsteq	r4, r1, lsl #20
     c00:	f7030d05 			; <UNDEFINED> instruction: 0xf7030d05
     c04:	06660101 	strbteq	r0, [r6], -r1, lsl #2
     c08:	0028052f 	eoreq	r0, r8, pc, lsr #10
     c0c:	03020402 	movweq	r0, #9218	; 0x2402
     c10:	2c056678 	stccs	6, cr6, [r5], {120}	; 0x78
     c14:	02040200 	andeq	r0, r4, #0, 4
     c18:	25050106 	strcs	r0, [r5, #-262]	; 0xfffffefa
     c1c:	01040200 	mrseq	r0, R12_usr
     c20:	05056606 	streq	r6, [r5, #-1542]	; 0xfffff9fa
     c24:	01040200 	mrseq	r0, R12_usr
     c28:	09050106 	stmdbeq	r5, {r1, r2, r8}
     c2c:	10054c06 	andne	r4, r5, r6, lsl #24
     c30:	09050106 	stmdbeq	r5, {r1, r2, r8}
     c34:	0e052f06 	cdpeq	15, 0, cr2, cr5, cr6, {0}
     c38:	0c050106 	stfeqs	f0, [r5], {6}
     c3c:	001e052e 	andseq	r0, lr, lr, lsr #10
     c40:	4a010402 	bmi	41c50 <__bss_end__+0x36988>
     c44:	02001a05 	andeq	r1, r0, #20480	; 0x5000
     c48:	002e0104 	eoreq	r0, lr, r4, lsl #2
     c4c:	66010402 	strvs	r0, [r1], -r2, lsl #8
     c50:	03060505 	movweq	r0, #25861	; 0x6505
     c54:	06010109 	streq	r0, [r1], -r9, lsl #2
     c58:	142e0682 	strtne	r0, [lr], #-1666	; 0xfffff97e
     c5c:	13060105 	movwne	r0, #24837	; 0x6105
     c60:	87030666 	strhi	r0, [r3, -r6, ror #12]
     c64:	063c087e 			; <UNDEFINED> instruction: 0x063c087e
     c68:	06050501 	streq	r0, [r5], -r1, lsl #10
     c6c:	00011483 	andeq	r1, r1, r3, lsl #9
     c70:	4a020402 	bmi	81c80 <__bss_end__+0x769b8>
     c74:	02040200 	andeq	r0, r4, #0, 4
     c78:	04020001 	streq	r0, [r2], #-1
     c7c:	09051302 	stmdbeq	r5, {r1, r8, r9, ip}
     c80:	02040200 	andeq	r0, r4, #0, 4
     c84:	08050106 	stmdaeq	r5, {r1, r2, r8}
     c88:	02040200 	andeq	r0, r4, #0, 4
     c8c:	0609054a 	streq	r0, [r9], -sl, asr #10
     c90:	0513154b 	ldreq	r1, [r3, #-1355]	; 0xfffffab5
     c94:	4a010614 	bmi	424ec <__bss_end__+0x37224>
     c98:	2f060905 	svccs	0x00060905
     c9c:	01061205 	tsteq	r6, r5, lsl #4
     ca0:	4b060905 	blmi	1830bc <__bss_end__+0x177df4>
     ca4:	0610054b 	ldreq	r0, [r0], -fp, asr #10
     ca8:	06050501 	streq	r0, [r5], -r1, lsl #10
     cac:	060c054c 	streq	r0, [ip], -ip, asr #10
     cb0:	4b010501 	blmi	420bc <__bss_end__+0x36df4>
     cb4:	02000505 	andeq	r0, r0, #20971520	; 0x1400000
     cb8:	03060104 	movweq	r0, #24836	; 0x6104
     cbc:	02004a74 	andeq	r4, r0, #116, 20	; 0x74000
     cc0:	00010104 	andeq	r0, r1, r4, lsl #2
     cc4:	06010402 	streq	r0, [r1], -r2, lsl #8
     cc8:	040200ba 	streq	r0, [r2], #-186	; 0xffffff46
     ccc:	052e0601 	streq	r0, [lr, #-1537]!	; 0xfffff9ff
     cd0:	06013009 	streq	r3, [r1], -r9
     cd4:	052e0682 	streq	r0, [lr, #-1666]!	; 0xfffff97e
     cd8:	01ba0301 			; <UNDEFINED> instruction: 0x01ba0301
     cdc:	01067408 	tsteq	r6, r8, lsl #8
     ce0:	68060505 	stmdavs	r6, {r0, r2, r8, sl}
     ce4:	01060c05 	tsteq	r6, r5, lsl #24
     ce8:	062f0105 	strteq	r0, [pc], -r5, lsl #2
     cec:	6a0505be 	bvs	1423ec <__bss_end__+0x137124>
     cf0:	06090513 			; <UNDEFINED> instruction: 0x06090513
     cf4:	4a080501 	bmi	202100 <__bss_end__+0x1f6e38>
     cf8:	4b060905 	blmi	183114 <__bss_end__+0x177e4c>
     cfc:	054a0114 	strbeq	r0, [sl, #-276]	; 0xfffffeec
     d00:	01051305 	tsteq	r5, r5, lsl #6
     d04:	09051306 	stmdbeq	r5, {r1, r2, r8, r9, ip}
     d08:	9e012a06 	vmlals.f32	s4, s2, s12
     d0c:	60080105 	andvs	r0, r8, r5, lsl #2
     d10:	136a0505 	cmnne	sl, #20971520	; 0x1400000
     d14:	01061705 	tsteq	r6, r5, lsl #14
     d18:	4b060505 	blmi	182134 <__bss_end__+0x176e6c>
     d1c:	01060805 	tsteq	r6, r5, lsl #16
     d20:	4b060905 	blmi	18313c <__bss_end__+0x177e74>
     d24:	4a060114 	bmi	18117c <__bss_end__+0x175eb4>
     d28:	05052e06 	streq	r2, [r5, #-3590]	; 0xfffff1fa
     d2c:	01051313 	tsteq	r5, r3, lsl r3
     d30:	09051306 	stmdbeq	r5, {r1, r2, r8, r9, ip}
     d34:	9e014506 	cfsh32ls	mvfx4, mvfx1, #6
     d38:	21030105 	tstcs	r3, r5, lsl #2
     d3c:	670505f2 			; <UNDEFINED> instruction: 0x670505f2
     d40:	0617052f 	ldreq	r0, [r7], -pc, lsr #10
     d44:	06050501 	streq	r0, [r5], -r1, lsl #10
     d48:	06010532 			; <UNDEFINED> instruction: 0x06010532
     d4c:	05bd0613 	ldreq	r0, [sp, #1555]!	; 0x613
     d50:	9e016705 	cdpls	7, 0, cr6, cr1, cr5, {0}
     d54:	01000a02 	tsteq	r0, r2, lsl #20
     d58:	00013601 	andeq	r3, r1, r1, lsl #12
     d5c:	5b000300 	blpl	1964 <__code_start__-0x669c>
     d60:	02000000 	andeq	r0, r0, #0, 0
     d64:	0d0efb01 	vstreq	d15, [lr, #-4]
     d68:	01010100 	mrseq	r0, (UNDEF: 17)
     d6c:	00000001 	andeq	r0, r0, r1
     d70:	01000001 	tsteq	r0, r1
     d74:	72732f2e 	rsbsvc	r2, r3, #184	; 0xb8
     d78:	552f0063 	strpl	r0, [pc, #-99]!	; d1d <__code_start__-0x72e3>
     d7c:	73726573 	cmnvc	r2, #482344960	; 0x1cc00000
     d80:	6c696d2f 	stclvs	13, cr6, [r9], #-188	; 0xffffff44
     d84:	532f7365 			; <UNDEFINED> instruction: 0x532f7365
     d88:	6372756f 	cmnvs	r2, #465567744	; 0x1bc00000
     d8c:	73632f65 	cmnvc	r3, #404	; 0x194
     d90:	6c303432 	cfldrsvs	mvf3, [r0], #-200	; 0xffffff38
     d94:	696c2f78 	stmdbvs	ip!, {r3, r4, r5, r6, r8, r9, sl, fp, sp}^
     d98:	2f697062 	svccs	0x00697062
     d9c:	6c636e69 	stclvs	14, cr6, [r3], #-420	; 0xfffffe5c
     da0:	00656475 	rsbeq	r6, r5, r5, ror r4
     da4:	63616200 	cmnvs	r1, #0, 4
     da8:	6172746b 	cmnvs	r2, fp, ror #8
     dac:	632e6563 			; <UNDEFINED> instruction: 0x632e6563
     db0:	00000100 	andeq	r0, r0, r0, lsl #2
     db4:	2e697072 	mcrcs	0, 3, r7, cr9, cr2, {3}
     db8:	00020068 	andeq	r0, r2, r8, rrx
     dbc:	11050000 	mrsne	r0, (UNDEF: 5)
     dc0:	dc020500 	cfstr32le	mvfx0, [r2], {-0}
     dc4:	0300008e 	movweq	r0, #142	; 0x8e
     dc8:	0505011c 	streq	r0, [r5, #-284]	; 0xfffffee4
     dcc:	11051313 	tstne	r5, r3, lsl r3
     dd0:	05051006 	streq	r1, [r5, #-6]
     dd4:	05300630 	ldreq	r0, [r0, #-1584]!	; 0xfffff9d0
     dd8:	1505010a 	strne	r0, [r5, #-266]	; 0xfffffef6
     ddc:	06050501 	streq	r0, [r5], -r1, lsl #10
     de0:	4a0e0501 	bmi	3821ec <__bss_end__+0x376f24>
     de4:	27031005 	strcs	r1, [r3, -r5]
     de8:	0309052e 	movweq	r0, #38190	; 0x952e
     dec:	054a2e5b 	strbeq	r2, [sl, #-3675]	; 0xfffff1a5
     df0:	0402002f 	streq	r0, [r2], #-47	; 0xffffffd1
     df4:	15051002 	strne	r1, [r5, #-2]
     df8:	02040200 	andeq	r0, r4, #0, 4
     dfc:	05052e06 	streq	r2, [r5, #-3590]	; 0xfffff1fa
     e00:	02040200 	andeq	r0, r4, #0, 4
     e04:	09050106 	stmdbeq	r5, {r1, r2, r8}
     e08:	23034b06 	movwcs	r4, #15110	; 0x3b06
     e0c:	06170501 	ldreq	r0, [r7], -r1, lsl #10
     e10:	05015d03 	streq	r5, [r1, #-3331]	; 0xfffff2fd
     e14:	0e052f09 	cdpeq	15, 0, cr2, cr5, cr9, {0}
     e18:	052e2003 	streq	r2, [lr, #-3]!
     e1c:	05310609 	ldreq	r0, [r1, #-1545]!	; 0xfffff9f7
     e20:	5c030612 	stcpl	6, cr0, [r3], {18}
     e24:	06090501 	streq	r0, [r9], -r1, lsl #10
     e28:	030d052f 	movweq	r0, #54575	; 0xd52f
     e2c:	0505011f 	streq	r0, [r5, #-287]	; 0xfffffee1
     e30:	08051313 	stmdaeq	r5, {r0, r1, r4, r8, r9, ip}
     e34:	31050106 	tstcc	r5, r6, lsl #2
     e38:	3012052d 	andscc	r0, r2, sp, lsr #10
     e3c:	2e2f3105 	sufcse	f3, f7, f5
     e40:	2e141005 	cdpcs	0, 1, cr1, cr4, cr5, {0}
     e44:	5b030905 	blpl	c3260 <__bss_end__+0xb7f98>
     e48:	054b0601 	strbeq	r0, [fp, #-1537]	; 0xfffff9ff
     e4c:	1f050f2e 	svcne	0x00050f2e
     e50:	09051506 	stmdbeq	r5, {r1, r2, r8, sl, ip}
     e54:	0c052f06 	stceq	15, cr2, [r5], {6}
     e58:	01050106 	tsteq	r5, r6, lsl #2
     e5c:	490c0550 	stmdbmi	ip, {r4, r6, r8, sl}
     e60:	052f0105 	streq	r0, [pc, #-261]!	; d63 <__code_start__-0x729d>
     e64:	1703062d 	strne	r0, [r3, -sp, lsr #12]
     e68:	13050582 	movwne	r0, #21890	; 0x5582
     e6c:	01060e05 	tsteq	r6, r5, lsl #28
     e70:	2f060505 	svccs	0x00060505
     e74:	11063105 	tstne	r6, r5, lsl #2
     e78:	052f0805 	streq	r0, [pc, #-2053]!	; 67b <__code_start__-0x7985>
     e7c:	132f0609 			; <UNDEFINED> instruction: 0x132f0609
     e80:	11061205 	tstne	r6, r5, lsl #4
     e84:	2e2f3105 	sufcse	f3, f7, f5
     e88:	05141005 	ldreq	r1, [r4, #-5]
     e8c:	04023001 	streq	r3, [r2], #-1
     e90:	21010100 	mrscs	r0, (UNDEF: 17)
     e94:	03000001 	movweq	r0, #1
     e98:	0000be00 	andeq	fp, r0, r0, lsl #28
     e9c:	fb010200 	blx	416a6 <__bss_end__+0x363de>
     ea0:	01000d0e 	tsteq	r0, lr, lsl #26
     ea4:	00010101 	andeq	r0, r1, r1, lsl #2
     ea8:	00010000 	andeq	r0, r1, r0
     eac:	2f2e0100 	svccs	0x002e0100
     eb0:	6362696c 	cmnvs	r2, #108, 18	; 0x1b0000
     eb4:	73552f00 	cmpvc	r5, #0, 30
     eb8:	2f737265 	svccs	0x00737265
     ebc:	656c696d 	strbvs	r6, [ip, #-2413]!	; 0xfffff693
     ec0:	6f532f73 	svcvs	0x00532f73
     ec4:	65637275 	strbvs	r7, [r3, #-629]!	; 0xfffffd8b
     ec8:	3273632f 	rsbscc	r6, r3, #-1140850688	; 0xbc000000
     ecc:	786c3034 	stmdavc	ip!, {r2, r4, r5, ip, sp}^
     ed0:	62696c2f 	rsbvs	r6, r9, #12032	; 0x2f00
     ed4:	692f6970 	stmdbvs	pc!, {r4, r5, r6, r8, fp, sp, lr}	; <UNPREDICTABLE>
     ed8:	756c636e 	strbvc	r6, [ip, #-878]!	; 0xfffffc92
     edc:	2f006564 	svccs	0x00006564
     ee0:	2f74706f 	svccs	0x0074706f
     ee4:	656d6f68 	strbvs	r6, [sp, #-3944]!	; 0xfffff098
     ee8:	77657262 	strbvc	r7, [r5, -r2, ror #4]!
     eec:	6c65432f 	stclvs	3, cr4, [r5], #-188	; 0xffffff44
     ef0:	2f72616c 	svccs	0x0072616c
     ef4:	2d6d7261 	sfmcs	f7, 2, [sp, #-388]!	; 0xfffffe7c
     ef8:	656e6f6e 	strbvs	r6, [lr, #-3950]!	; 0xfffff092
     efc:	6261652d 	rsbvs	r6, r1, #188743680	; 0xb400000
     f00:	2f392d69 	svccs	0x00392d69
     f04:	30322d39 	eorscc	r2, r2, r9, lsr sp
     f08:	34713931 	ldrbtcc	r3, [r1], #-2353	; 0xfffff6cf
     f0c:	3173632d 	cmncc	r3, sp, lsr #6
     f10:	2f653730 	svccs	0x00653730
     f14:	2f62696c 	svccs	0x0062696c
     f18:	2f636367 	svccs	0x00636367
     f1c:	2d6d7261 	sfmcs	f7, 2, [sp, #-388]!	; 0xfffffe7c
     f20:	656e6f6e 	strbvs	r6, [lr, #-3950]!	; 0xfffff092
     f24:	6261652d 	rsbvs	r6, r1, #188743680	; 0xb400000
     f28:	2e392f69 	cdpcs	15, 3, cr2, cr9, cr9, {3}
     f2c:	2f312e32 	svccs	0x00312e32
     f30:	6c636e69 	stclvs	14, cr6, [r3], #-420	; 0xfffffe5c
     f34:	00656475 	rsbeq	r6, r5, r5, ror r4
     f38:	6d656d00 	stclvs	13, cr6, [r5, #-0]
     f3c:	2e746573 	mrccs	5, 3, r6, cr4, cr3, {3}
     f40:	00010063 	andeq	r0, r1, r3, rrx
     f44:	69707200 	ldmdbvs	r0!, {r9, ip, sp, lr}^
     f48:	0200682e 	andeq	r6, r0, #3014656	; 0x2e0000
     f4c:	74730000 	ldrbtvc	r0, [r3], #-0
     f50:	66656464 	strbtvs	r6, [r5], -r4, ror #8
     f54:	0300682e 	movweq	r6, #2094	; 0x82e
     f58:	05000000 	streq	r0, [r0, #-0]
     f5c:	02050029 	andeq	r0, r5, #41, 0	; 0x29
     f60:	00008f7c 	andeq	r8, r0, ip, ror pc
     f64:	13050515 	movwne	r0, #21781	; 0x5515
     f68:	11062905 	tstne	r6, r5, lsl #18
     f6c:	052f1405 	streq	r1, [pc, #-1029]!	; b6f <__code_start__-0x7491>
     f70:	05300605 	ldreq	r0, [r0, #-1541]!	; 0xfffff9fb
     f74:	9e06010a 	adflss	f0, f6, #2.0
     f78:	d7060905 	strle	r0, [r6, -r5, lsl #18]
     f7c:	01060e05 	tsteq	r6, r5, lsl #28
     f80:	2d060a05 	vstrcs	s0, [r6, #-20]	; 0xffffffec
     f84:	05bb0905 	ldreq	r0, [fp, #2309]!	; 0x905
     f88:	2e01060e 	cfmadd32cs	mvax0, mvfx0, mvfx1, mvfx14
     f8c:	2d060a05 	vstrcs	s0, [r6, #-20]	; 0xffffffec
     f90:	054b0905 	strbeq	r0, [fp, #-2309]	; 0xfffff6fb
     f94:	0501060b 	streq	r0, [r1, #-1547]	; 0xfffff9f5
     f98:	0e052d0a 	cdpeq	13, 0, cr2, cr5, cr10, {0}
     f9c:	060a052f 	streq	r0, [sl], -pc, lsr #10
     fa0:	060e052d 	streq	r0, [lr], -sp, lsr #10
     fa4:	06090513 			; <UNDEFINED> instruction: 0x06090513
     fa8:	110a052e 	tstne	sl, lr, lsr #10
     fac:	05140505 	ldreq	r0, [r4, #-1285]	; 0xfffffafb
     fb0:	02130601 	andseq	r0, r3, #1048576	; 0x100000
     fb4:	01010002 	tsteq	r1, r2
     fb8:	00000120 	andeq	r0, r0, r0, lsr #2
     fbc:	00db0003 	sbcseq	r0, fp, r3
     fc0:	01020000 	mrseq	r0, (UNDEF: 2)
     fc4:	000d0efb 	strdeq	r0, [sp], -fp
     fc8:	01010101 	tsteq	r1, r1, lsl #2
     fcc:	01000000 	mrseq	r0, (UNDEF: 0)
     fd0:	2e010000 	cdpcs	0, 0, cr0, cr1, cr0, {0}
     fd4:	62696c2f 	rsbvs	r6, r9, #12032	; 0x2f00
     fd8:	6f2f0063 	svcvs	0x002f0063
     fdc:	682f7470 	stmdavs	pc!, {r4, r5, r6, sl, ip, sp, lr}	; <UNPREDICTABLE>
     fe0:	62656d6f 	rsbvs	r6, r5, #7104	; 0x1bc0
     fe4:	2f776572 	svccs	0x00776572
     fe8:	6c6c6543 	cfstr64vs	mvdx6, [ip], #-268	; 0xfffffef4
     fec:	612f7261 			; <UNDEFINED> instruction: 0x612f7261
     ff0:	6e2d6d72 	mcrvs	13, 1, r6, cr13, cr2, {3}
     ff4:	2d656e6f 	stclcs	14, cr6, [r5, #-444]!	; 0xfffffe44
     ff8:	69626165 	stmdbvs	r2!, {r0, r2, r5, r6, r8, sp, lr}^
     ffc:	392f392d 	stmdbcc	pc!, {r0, r2, r3, r5, r8, fp, ip, sp}	; <UNPREDICTABLE>
    1000:	3130322d 	teqcc	r0, sp, lsr #4
    1004:	2d347139 	ldfcss	f7, [r4, #-228]!	; 0xffffff1c
    1008:	30317363 	eorscc	r7, r1, r3, ror #6
    100c:	6c2f6537 	cfstr32vs	mvfx6, [pc], #-220	; f38 <__code_start__-0x70c8>
    1010:	672f6269 	strvs	r6, [pc, -r9, ror #4]!
    1014:	612f6363 			; <UNDEFINED> instruction: 0x612f6363
    1018:	6e2d6d72 	mcrvs	13, 1, r6, cr13, cr2, {3}
    101c:	2d656e6f 	stclcs	14, cr6, [r5, #-444]!	; 0xfffffe44
    1020:	69626165 	stmdbvs	r2!, {r0, r2, r5, r6, r8, sp, lr}^
    1024:	322e392f 	eorcc	r3, lr, #770048	; 0xbc000
    1028:	692f312e 	stmdbvs	pc!, {r1, r2, r3, r5, r8, ip, sp}	; <UNPREDICTABLE>
    102c:	756c636e 	strbvc	r6, [ip, #-878]!	; 0xfffffc92
    1030:	2f006564 	svccs	0x00006564
    1034:	72657355 	rsbvc	r7, r5, #1409286145	; 0x54000001
    1038:	696d2f73 	stmdbvs	sp!, {r0, r1, r4, r5, r6, r8, r9, sl, fp, sp}^
    103c:	2f73656c 	svccs	0x0073656c
    1040:	72756f53 	rsbsvc	r6, r5, #332	; 0x14c
    1044:	632f6563 			; <UNDEFINED> instruction: 0x632f6563
    1048:	30343273 	eorscc	r3, r4, r3, ror r2
    104c:	6c2f786c 	stcvs	8, cr7, [pc], #-432	; ea4 <__code_start__-0x715c>
    1050:	69706269 	ldmdbvs	r0!, {r0, r3, r5, r6, r9, sp, lr}^
    1054:	636e692f 	cmnvs	lr, #770048	; 0xbc000
    1058:	6564756c 	strbvs	r7, [r4, #-1388]!	; 0xfffffa94
    105c:	72700000 	rsbsvc	r0, r0, #0, 0
    1060:	6b746e69 	blvs	1d1ca0c <__bss_end__+0x1d11744>
    1064:	0100632e 	tsteq	r0, lr, lsr #6
    1068:	74730000 	ldrbtvc	r0, [r3], #-0
    106c:	67726164 	ldrbvs	r6, [r2, -r4, ror #2]!
    1070:	0200682e 	andeq	r6, r0, #3014656	; 0x2e0000
    1074:	70720000 	rsbsvc	r0, r2, r0
    1078:	00682e69 	rsbeq	r2, r8, r9, ror #28
    107c:	3c000003 	stccc	0, cr0, [r0], {3}
    1080:	6c697562 	cfstr64vs	mvdx7, [r9], #-392	; 0xfffffe78
    1084:	6e692d74 	mcrvs	13, 3, r2, cr9, cr4, {3}
    1088:	0000003e 	andeq	r0, r0, lr, lsr r0
    108c:	2d617600 	stclcs	6, cr7, [r1, #-0]
    1090:	6e697270 	mcrvs	2, 3, r7, cr9, cr0, {3}
    1094:	682e6b74 	stmdavs	lr!, {r2, r4, r5, r6, r8, r9, fp, sp, lr}
    1098:	00000100 	andeq	r0, r0, r0, lsl #2
    109c:	00220500 	eoreq	r0, r2, r0, lsl #10
    10a0:	8ff40205 	svchi	0x00f40205
    10a4:	05170000 	ldreq	r0, [r7, #-0]
    10a8:	14131405 	ldrne	r1, [r3], #-1029	; 0xfffffbfb
    10ac:	0d062205 	sfmeq	f2, 4, [r6, #-20]	; 0xffffffec
    10b0:	05501205 	ldrbeq	r1, [r0, #-517]	; 0xfffffdfb
    10b4:	2e7a0322 	cdpcs	3, 7, cr0, cr10, cr2, {1}
    10b8:	05330505 	ldreq	r0, [r3, #-1285]!	; 0xfffffafb
    10bc:	05052f12 	streq	r2, [r5, #-3858]	; 0xfffff0ee
    10c0:	06090565 	streq	r0, [r9], -r5, ror #10
    10c4:	0612052f 	ldreq	r0, [r2], -pc, lsr #10
    10c8:	06050501 	streq	r0, [r5], -r1, lsl #10
    10cc:	4a06164b 	bmi	186a00 <__bss_end__+0x17b738>
    10d0:	01055006 	tsteq	r5, r6
    10d4:	02661306 	rsbeq	r1, r6, #402653184	; 0x18000000
    10d8:	01010008 	tsteq	r1, r8
    10dc:	000000a0 	andeq	r0, r0, r0, lsr #1
    10e0:	00570003 	subseq	r0, r7, r3
    10e4:	01020000 	mrseq	r0, (UNDEF: 2)
    10e8:	000d0efb 	strdeq	r0, [sp], -fp
    10ec:	01010101 	tsteq	r1, r1, lsl #2
    10f0:	01000000 	mrseq	r0, (UNDEF: 0)
    10f4:	2e010000 	cdpcs	0, 0, cr0, cr1, cr0, {0}
    10f8:	62696c2f 	rsbvs	r6, r9, #12032	; 0x2f00
    10fc:	552f0063 	strpl	r0, [pc, #-99]!	; 10a1 <__code_start__-0x6f5f>
    1100:	73726573 	cmnvc	r2, #482344960	; 0x1cc00000
    1104:	6c696d2f 	stclvs	13, cr6, [r9], #-188	; 0xffffff44
    1108:	532f7365 			; <UNDEFINED> instruction: 0x532f7365
    110c:	6372756f 	cmnvs	r2, #465567744	; 0x1bc00000
    1110:	73632f65 	cmnvc	r3, #404	; 0x194
    1114:	6c303432 	cfldrsvs	mvf3, [r0], #-200	; 0xffffff38
    1118:	696c2f78 	stmdbvs	ip!, {r3, r4, r5, r6, r8, r9, sl, fp, sp}^
    111c:	2f697062 	svccs	0x00697062
    1120:	6c636e69 	stclvs	14, cr6, [r3], #-420	; 0xfffffe5c
    1124:	00656475 	rsbeq	r6, r5, r5, ror r4
    1128:	74757000 	ldrbtvc	r7, [r5], #-0
    112c:	00632e6b 	rsbeq	r2, r3, fp, ror #28
    1130:	72000001 	andvc	r0, r0, #1, 0
    1134:	682e6970 	stmdavs	lr!, {r4, r5, r6, r8, fp, sp, lr}
    1138:	00000200 	andeq	r0, r0, r0, lsl #4
    113c:	00220500 	eoreq	r0, r2, r0, lsl #10
    1140:	904c0205 	subls	r0, ip, r5, lsl #4
    1144:	05150000 	ldreq	r0, [r5, #-0]
    1148:	22051305 	andcs	r1, r5, #335544320	; 0x14000000
    114c:	052e1106 	streq	r1, [lr, #-262]!	; 0xfffffefa
    1150:	052f060b 	streq	r0, [pc, #-1547]!	; b4d <__code_start__-0x74b3>
    1154:	052e0605 	streq	r0, [lr, #-1541]!	; 0xfffff9fb
    1158:	04020009 	streq	r0, [r2], #-9
    115c:	05670602 	strbeq	r0, [r7, #-1538]!	; 0xfffff9fe
    1160:	0402000f 	streq	r0, [r2], #-15
    1164:	0b054902 	bleq	153574 <__bss_end__+0x1482ac>
    1168:	02040200 	andeq	r0, r4, #0, 4
    116c:	00050501 	andeq	r0, r5, r1, lsl #10
    1170:	06020402 	streq	r0, [r2], -r2, lsl #8
    1174:	054e062e 	strbeq	r0, [lr, #-1582]	; 0xfffff9d2
    1178:	02130601 	andseq	r0, r3, #1048576	; 0x100000
    117c:	01010006 	tsteq	r1, r6
    1180:	000008fa 	strdeq	r0, [r0], -sl
    1184:	00f10003 	rscseq	r0, r1, r3
    1188:	01020000 	mrseq	r0, (UNDEF: 2)
    118c:	000d0efb 	strdeq	r0, [sp], -fp
    1190:	01010101 	tsteq	r1, r1, lsl #2
    1194:	01000000 	mrseq	r0, (UNDEF: 0)
    1198:	2e010000 	cdpcs	0, 0, cr0, cr1, cr0, {0}
    119c:	62696c2f 	rsbvs	r6, r9, #12032	; 0x2f00
    11a0:	6f2f0063 	svcvs	0x002f0063
    11a4:	682f7470 	stmdavs	pc!, {r4, r5, r6, sl, ip, sp, lr}	; <UNPREDICTABLE>
    11a8:	62656d6f 	rsbvs	r6, r5, #7104	; 0x1bc0
    11ac:	2f776572 	svccs	0x00776572
    11b0:	6c6c6543 	cfstr64vs	mvdx6, [ip], #-268	; 0xfffffef4
    11b4:	612f7261 			; <UNDEFINED> instruction: 0x612f7261
    11b8:	6e2d6d72 	mcrvs	13, 1, r6, cr13, cr2, {3}
    11bc:	2d656e6f 	stclcs	14, cr6, [r5, #-444]!	; 0xfffffe44
    11c0:	69626165 	stmdbvs	r2!, {r0, r2, r5, r6, r8, sp, lr}^
    11c4:	392f392d 	stmdbcc	pc!, {r0, r2, r3, r5, r8, fp, ip, sp}	; <UNPREDICTABLE>
    11c8:	3130322d 	teqcc	r0, sp, lsr #4
    11cc:	2d347139 	ldfcss	f7, [r4, #-228]!	; 0xffffff1c
    11d0:	30317363 	eorscc	r7, r1, r3, ror #6
    11d4:	6c2f6537 	cfstr32vs	mvfx6, [pc], #-220	; 1100 <__code_start__-0x6f00>
    11d8:	672f6269 	strvs	r6, [pc, -r9, ror #4]!
    11dc:	612f6363 			; <UNDEFINED> instruction: 0x612f6363
    11e0:	6e2d6d72 	mcrvs	13, 1, r6, cr13, cr2, {3}
    11e4:	2d656e6f 	stclcs	14, cr6, [r5, #-444]!	; 0xfffffe44
    11e8:	69626165 	stmdbvs	r2!, {r0, r2, r5, r6, r8, sp, lr}^
    11ec:	322e392f 	eorcc	r3, lr, #770048	; 0xbc000
    11f0:	692f312e 	stmdbvs	pc!, {r1, r2, r3, r5, r8, ip, sp}	; <UNPREDICTABLE>
    11f4:	756c636e 	strbvc	r6, [ip, #-878]!	; 0xfffffc92
    11f8:	2f006564 	svccs	0x00006564
    11fc:	72657355 	rsbvc	r7, r5, #1409286145	; 0x54000001
    1200:	696d2f73 	stmdbvs	sp!, {r0, r1, r4, r5, r6, r8, r9, sl, fp, sp}^
    1204:	2f73656c 	svccs	0x0073656c
    1208:	72756f53 	rsbsvc	r6, r5, #332	; 0x14c
    120c:	632f6563 			; <UNDEFINED> instruction: 0x632f6563
    1210:	30343273 	eorscc	r3, r4, r3, ror r2
    1214:	6c2f786c 	stcvs	8, cr7, [pc], #-432	; 106c <__code_start__-0x6f94>
    1218:	69706269 	ldmdbvs	r0!, {r0, r3, r5, r6, r9, sp, lr}^
    121c:	636e692f 	cmnvs	lr, #770048	; 0xbc000
    1220:	6564756c 	strbvs	r7, [r4, #-1388]!	; 0xfffffa94
    1224:	61760000 	cmnvs	r6, r0
    1228:	6972702d 	ldmdbvs	r2!, {r0, r2, r3, r5, ip, sp, lr}^
    122c:	2e6b746e 	cdpcs	4, 6, cr7, cr11, cr14, {3}
    1230:	00010063 	andeq	r0, r1, r3, rrx
    1234:	64747300 	ldrbtvs	r7, [r4], #-768	; 0xfffffd00
    1238:	2d746e69 	ldclcs	14, cr6, [r4, #-420]!	; 0xfffffe5c
    123c:	2e636367 	cdpcs	3, 6, cr6, cr3, cr7, {3}
    1240:	00020068 	andeq	r0, r2, r8, rrx
    1244:	69707200 	ldmdbvs	r0!, {r9, ip, sp, lr}^
    1248:	0300682e 	movweq	r6, #2094	; 0x82e
    124c:	70720000 	rsbsvc	r0, r2, r0
    1250:	6e692d69 	cdpvs	13, 6, cr2, cr9, cr9, {3}
    1254:	6e726574 	mrcvs	5, 3, r6, cr2, cr4, {3}
    1258:	682e6c61 	stmdavs	lr!, {r0, r5, r6, sl, fp, sp, lr}
    125c:	00000300 	andeq	r0, r0, r0, lsl #6
    1260:	61647473 	smcvs	18243	; 0x4743
    1264:	682e6772 	stmdavs	lr!, {r1, r4, r5, r6, r8, r9, sl, sp, lr}
    1268:	00000200 	andeq	r0, r0, r0, lsl #4
    126c:	6975623c 	ldmdbvs	r5!, {r2, r3, r4, r5, r9, sp, lr}^
    1270:	692d746c 	pushvs	{r2, r3, r5, r6, sl, ip, sp, lr}
    1274:	00003e6e 	andeq	r3, r0, lr, ror #28
    1278:	05000000 	streq	r0, [r0, #-0]
    127c:	02050001 	andeq	r0, r5, #1, 0
    1280:	00009084 	andeq	r9, r0, r4, lsl #1
    1284:	0100c803 	tsteq	r0, r3, lsl #16
    1288:	05140205 	ldreq	r0, [r4, #-517]	; 0xfffffdfb
    128c:	05100601 	ldreq	r0, [r0, #-1537]	; 0xfffff9ff
    1290:	01053004 	tsteq	r5, r4
    1294:	04054a2c 	streq	r4, [r5], #-2604	; 0xfffff5d4
    1298:	06020530 			; <UNDEFINED> instruction: 0x06020530
    129c:	0b051331 	bleq	145f68 <__bss_end__+0x13aca0>
    12a0:	02052e06 	andeq	r2, r5, #96	; 0x60
    12a4:	09053006 	stmdbeq	r5, {r1, r2, ip, sp}
    12a8:	0d240206 	sfmeq	f0, 4, [r4, #-24]!	; 0xffffffe8
    12ac:	0d052e2e 	stceq	14, cr2, [r5, #-184]	; 0xffffff48
    12b0:	4a170306 	bmi	5c1ed0 <__bss_end__+0x5b6c08>
    12b4:	05131105 	ldreq	r1, [r3, #-261]	; 0xfffffefb
    12b8:	0501062d 	streq	r0, [r1, #-1581]	; 0xfffff9d3
    12bc:	0d052e16 	stceq	14, cr2, [r5, #-88]	; 0xffffffa8
    12c0:	2d16052f 	cfldr32cs	mvfx0, [r6, #-188]	; 0xffffff44
    12c4:	2f061405 	svccs	0x00061405
    12c8:	01061705 	tsteq	r6, r5, lsl #14
    12cc:	062e0d05 	strteq	r0, [lr], -r5, lsl #26
    12d0:	0612052f 	ldreq	r0, [r2], -pc, lsr #10
    12d4:	2d2f2e01 	stccs	14, cr2, [pc, #-4]!	; 12d8 <__code_start__-0x6d28>
    12d8:	2f060d05 	svccs	0x00060d05
    12dc:	01061205 	tsteq	r6, r5, lsl #4
    12e0:	2f061905 	svccs	0x00061905
    12e4:	11030405 	tstne	r3, r5, lsl #8
    12e8:	02050101 	andeq	r0, r5, #1073741824	; 0x40000000
    12ec:	030e0515 	movweq	r0, #58645	; 0xe515
    12f0:	05017fb2 	streq	r7, [r1, #-4018]	; 0xfffff04e
    12f4:	06051302 	streq	r1, [r5], -r2, lsl #6
    12f8:	02050106 	andeq	r0, r5, #-2147483647	; 0x80000001
    12fc:	08053006 	stmdaeq	r5, {r1, r2, ip, sp}
    1300:	06020501 	streq	r0, [r2], -r1, lsl #10
    1304:	08054a01 	stmdaeq	r5, {r0, r9, fp, lr}
    1308:	03059108 	movweq	r9, #20744	; 0x5108
    130c:	08054a06 	stmdaeq	r5, {r1, r2, r9, fp, lr}
    1310:	15050106 	strne	r0, [r5, #-262]	; 0xfffffefa
    1314:	08052d06 	stmdaeq	r5, {r1, r2, r8, sl, fp, sp}
    1318:	d7030501 	strle	r0, [r3, -r1, lsl #10]
    131c:	01060805 	tsteq	r6, r5, lsl #16
    1320:	052d1805 	streq	r1, [sp, #-2053]!	; 0xfffff7fb
    1324:	08052e02 	stmdaeq	r5, {r1, r9, sl, fp, sp}
    1328:	0615052f 	ldreq	r0, [r5], -pc, lsr #10
    132c:	0108052d 	tsteq	r8, sp, lsr #10
    1330:	01060205 	tsteq	r6, r5, lsl #4
    1334:	2f060305 	svccs	0x00060305
    1338:	11061805 	tstne	r6, r5, lsl #16
    133c:	052e0205 	streq	r0, [lr, #-517]!	; 0xfffffdfb
    1340:	15052f08 	strne	r2, [r5, #-3848]	; 0xfffff0f8
    1344:	08052d06 	stmdaeq	r5, {r1, r2, r8, sl, fp, sp}
    1348:	13030501 	movwne	r0, #13569	; 0x3501
    134c:	01060805 	tsteq	r6, r5, lsl #16
    1350:	2d061505 	cfstr32cs	mvfx1, [r6, #-20]	; 0xffffffec
    1354:	06010805 	streq	r0, [r1], -r5, lsl #16
    1358:	06020501 	streq	r0, [r2], -r1, lsl #10
    135c:	060505a0 	streq	r0, [r5], -r0, lsr #11
    1360:	36040501 	strcc	r0, [r4], -r1, lsl #10
    1364:	052f1105 	streq	r1, [pc, #-261]!	; 1267 <__code_start__-0x6d99>
    1368:	02052e09 	andeq	r2, r5, #144	; 0x90
    136c:	03050533 	movweq	r0, #21811	; 0x5533
    1370:	02052e72 	andeq	r2, r5, #1824	; 0x720
    1374:	01062f06 	tsteq	r6, r6, lsl #30
    1378:	16060e05 	strne	r0, [r6], -r5, lsl #28
    137c:	13140205 	tstne	r4, #1342177280	; 0x50000000
    1380:	05130305 	ldreq	r0, [r3, #-773]	; 0xfffffcfb
    1384:	05151402 	ldreq	r1, [r5, #-1026]	; 0xfffffbfe
    1388:	0205010b 	andeq	r0, r5, #-1073741822	; 0xc0000002
    138c:	052e0106 	streq	r0, [lr, #-262]!	; 0xfffffefa
    1390:	05670603 	strbeq	r0, [r7, #-1539]!	; 0xfffff9fd
    1394:	0501060a 	streq	r0, [r1, #-1546]	; 0xfffff9f6
    1398:	0a052d02 	beq	14c7a8 <__bss_end__+0x1414e0>
    139c:	0617052f 	ldreq	r0, [r7], -pc, lsr #10
    13a0:	010b052d 	tsteq	fp, sp, lsr #10
    13a4:	01060205 	tsteq	r6, r5, lsl #4
    13a8:	2e4c0905 	vmlacs.f16	s1, s24, s10	; <UNPREDICTABLE>
    13ac:	2e060205 	cdpcs	2, 0, cr0, cr6, cr5, {0}
    13b0:	01060905 	tsteq	r6, r5, lsl #18
    13b4:	30060205 	andcc	r0, r6, r5, lsl #4
    13b8:	01050106 	tsteq	r5, r6, lsl #2
    13bc:	05013803 	streq	r3, [r1, #-2051]	; 0xfffff7fd
    13c0:	4a4f0309 	bmi	13c1fec <__bss_end__+0x13b6d24>
    13c4:	19052e2e 	stmdbne	r5, {r1, r2, r3, r5, r9, sl, fp, sp}
    13c8:	4a270306 	bmi	9c1fe8 <__bss_end__+0x9b6d20>
    13cc:	05131a05 	ldreq	r1, [r3, #-2565]	; 0xfffff5fb
    13d0:	05010628 	streq	r0, [r1, #-1576]	; 0xfffff9d8
    13d4:	04052e1f 	streq	r2, [r5], #-3615	; 0xfffff1e1
    13d8:	2d1f052f 	cfldr32cs	mvfx0, [pc, #-188]	; 1324 <__code_start__-0x6cdc>
    13dc:	2f060b05 	svccs	0x00060b05
    13e0:	01060e05 	tsteq	r6, r5, lsl #28
    13e4:	052e0405 	streq	r0, [lr, #-1029]!	; 0xfffffbfb
    13e8:	59030602 	stmdbpl	r3, {r1, r9, sl}
    13ec:	0b05134a 	bleq	14611c <__bss_end__+0x13ae54>
    13f0:	02052e06 	andeq	r2, r5, #96	; 0x60
    13f4:	09053006 	stmdbeq	r5, {r1, r2, ip, sp}
    13f8:	0d240206 	sfmeq	f0, 4, [r4, #-24]!	; 0xffffffe8
    13fc:	36060405 	strcc	r0, [r6], -r5, lsl #8
    1400:	06060513 			; <UNDEFINED> instruction: 0x06060513
    1404:	06050501 	streq	r0, [r5], -r1, lsl #10
    1408:	05131367 	ldreq	r1, [r3, #-871]	; 0xfffffc99
    140c:	05110609 	ldreq	r0, [r1, #-1545]	; 0xfffff9f7
    1410:	0b052b0d 	bleq	14c04c <__bss_end__+0x140d84>
    1414:	2c0d0530 	cfstr32cs	mvfx0, [sp], {48}	; 0x30
    1418:	05351b05 	ldreq	r1, [r5, #-2821]!	; 0xfffff4fb
    141c:	052d0604 	streq	r0, [sp, #-1540]!	; 0xfffff9fc
    1420:	1b051305 	blne	14603c <__bss_end__+0x13ad74>
    1424:	0a052e06 	beq	14cc44 <__bss_end__+0x14197c>
    1428:	2f040582 	svccs	0x00040582
    142c:	052e0e05 	streq	r0, [lr, #-3589]!	; 0xfffff1fb
    1430:	0b05490a 	bleq	153860 <__bss_end__+0x148598>
    1434:	04052f06 	streq	r2, [r5], #-3846	; 0xfffff0fa
    1438:	2f060106 	svccs	0x00060106
    143c:	01060605 	tsteq	r6, r5, lsl #12
    1440:	2f060505 	svccs	0x00060505
    1444:	01060a05 	tsteq	r6, r5, lsl #20
    1448:	2e07052e 	cfsh32cs	mvfx0, mvfx7, #30
    144c:	04052e2e 	streq	r2, [r5], #-3630	; 0xfffff1d2
    1450:	010d0306 	tsteq	sp, r6, lsl #6
    1454:	03060205 	movweq	r0, #25093	; 0x6205
    1458:	09050146 	stmdbeq	r5, {r1, r2, r6, r8}
    145c:	052e3a03 	streq	r3, [lr, #-2563]!	; 0xfffff5fd
    1460:	032f0604 			; <UNDEFINED> instruction: 0x032f0604
    1464:	0501010d 	streq	r0, [r1, #-269]	; 0xfffffef3
    1468:	0e051502 	cfsh32eq	mvfx1, mvfx5, #2
    146c:	017fb203 	cmneq	pc, r3, lsl #4
    1470:	14130205 	ldrne	r0, [r3], #-517	; 0xfffffdfb
    1474:	05010805 	streq	r0, [r1, #-2053]	; 0xfffff7fb
    1478:	03100606 	tsteq	r0, #6291456	; 0x600000
    147c:	02052e3c 	andeq	r2, r5, #60, 28	; 0x3c0
    1480:	064a4603 	strbeq	r4, [sl], -r3, lsl #12
    1484:	06050530 			; <UNDEFINED> instruction: 0x06050530
    1488:	052e2e01 	streq	r2, [lr, #-3585]!	; 0xfffff1ff
    148c:	064b0602 	strbeq	r0, [fp], -r2, lsl #12
    1490:	060e0501 	streq	r0, [lr], -r1, lsl #10
    1494:	14020516 	strne	r0, [r2], #-1302	; 0xfffffaea
    1498:	05151513 	ldreq	r1, [r5, #-1299]	; 0xfffffaed
    149c:	0205010b 	andeq	r0, r5, #-1073741822	; 0xc0000002
    14a0:	30062e06 	andcc	r2, r6, r6, lsl #28
    14a4:	01060905 	tsteq	r6, r5, lsl #18
    14a8:	4c060205 	sfmmi	f0, 4, [r6], {5}
    14ac:	01050106 	tsteq	r5, r6, lsl #2
    14b0:	05013803 	streq	r3, [r1, #-2051]	; 0xfffff7fd
    14b4:	4a6e0306 	bmi	1b820d4 <__bss_end__+0x1b76e0c>
    14b8:	46030205 	strmi	r0, [r3], -r5, lsl #4
    14bc:	052e4a66 	streq	r4, [lr, #-2662]!	; 0xfffff59a
    14c0:	c8030604 	stmdagt	r3, {r2, r9, sl}
    14c4:	01010100 	mrseq	r0, (UNDEF: 17)
    14c8:	822e0601 	eorhi	r0, lr, #1048576	; 0x100000
    14cc:	72034a06 	andvc	r4, r3, #24576	; 0x6000
    14d0:	0609052e 	streq	r0, [r9], -lr, lsr #10
    14d4:	06040501 	streq	r0, [r4], -r1, lsl #10
    14d8:	010d032f 	tsteq	sp, pc, lsr #6
    14dc:	15020501 	strne	r0, [r2, #-1281]	; 0xfffffaff
    14e0:	b2030e05 	andlt	r0, r3, #80	; 0x50
    14e4:	0205017f 	andeq	r0, r5, #-1073741793	; 0xc000001f
    14e8:	08051413 	stmdaeq	r5, {r0, r1, r4, sl, ip}
    14ec:	06090501 	streq	r0, [r9], -r1, lsl #10
    14f0:	05011b03 	streq	r1, [r1, #-2819]	; 0xfffff4fd
    14f4:	2e630306 	cdpcs	3, 6, cr0, cr3, cr6, {0}
    14f8:	2e2e3c03 	cdpcs	12, 2, cr3, cr14, cr3, {0}
    14fc:	0648052e 	strbeq	r0, [r8], -lr, lsr #10
    1500:	087fb403 	ldmdaeq	pc!, {r0, r1, sl, ip, sp, pc}^	; <UNPREDICTABLE>
    1504:	1305053c 	movwne	r0, #21820	; 0x553c
    1508:	002e0601 	eoreq	r0, lr, r1, lsl #12
    150c:	06020402 	streq	r0, [r2], -r2, lsl #8
    1510:	0402002e 	streq	r0, [r2], #-46	; 0xffffffd2
    1514:	02000102 	andeq	r0, r0, #-2147483648	; 0x80000000
    1518:	05130204 	ldreq	r0, [r3, #-516]	; 0xfffffdfc
    151c:	04020011 	streq	r0, [r2], #-17	; 0xffffffef
    1520:	05010602 	streq	r0, [r1, #-1538]	; 0xfffff9fe
    1524:	04020007 	streq	r0, [r2], #-7
    1528:	11052f02 	tstne	r5, r2, lsl #30
    152c:	02040200 	andeq	r0, r4, #0, 4
    1530:	0005052d 	andeq	r0, r5, sp, lsr #10
    1534:	06020402 	streq	r0, [r2], -r2, lsl #8
    1538:	0009052f 	andeq	r0, r9, pc, lsr #10
    153c:	13020402 	movwne	r0, #9218	; 0x2402
    1540:	02000e05 	andeq	r0, r0, #80	; 0x50
    1544:	01060204 	tsteq	r6, r4, lsl #4
    1548:	02000505 	andeq	r0, r0, #20971520	; 0x1400000
    154c:	63060104 	movwvs	r0, #24836	; 0x6104
    1550:	01040200 	mrseq	r0, R12_usr
    1554:	00480501 	subeq	r0, r8, r1, lsl #10
    1558:	06010402 	streq	r0, [r1], -r2, lsl #8
    155c:	00050511 	andeq	r0, r5, r1, lsl r5
    1560:	2f010402 	svccs	0x00010402
    1564:	02004805 	andeq	r4, r0, #327680	; 0x50000
    1568:	052d0104 	streq	r0, [sp, #-260]!	; 0xfffffefc
    156c:	04020005 	streq	r0, [r2], #-5
    1570:	02002f01 	andeq	r2, r0, #1, 30
    1574:	004a0104 	subeq	r0, sl, r4, lsl #2
    1578:	4a010402 	bmi	42588 <__bss_end__+0x372c0>
    157c:	01040200 	mrseq	r0, R12_usr
    1580:	40054a06 	andmi	r4, r5, r6, lsl #20
    1584:	d600e103 	strle	lr, [r0], -r3, lsl #2
    1588:	09050106 	stmdbeq	r5, {r1, r2, r8}
    158c:	08052e4e 	stmdaeq	r5, {r1, r2, r3, r6, r9, sl, fp, sp}
    1590:	291e0530 	ldmdbcs	lr, {r4, r5, r8, sl}
    1594:	052e1205 	streq	r1, [lr, #-517]!	; 0xfffffdfb
    1598:	0205330d 	andeq	r3, r5, #872415232	; 0x34000000
    159c:	05054506 	streq	r4, [r5, #-1286]	; 0xfffffafa
    15a0:	14020513 	strne	r0, [r2], #-1299	; 0xfffffaed
    15a4:	05130505 	ldreq	r0, [r3, #-1285]	; 0xfffffafb
    15a8:	08051302 	stmdaeq	r5, {r1, r8, r9, ip}
    15ac:	06400501 	strbeq	r0, [r0], -r1, lsl #10
    15b0:	2e017a03 	vmlacs.f32	s14, s2, s6
    15b4:	66340d05 	ldrtvs	r0, [r4], -r5, lsl #26
    15b8:	20031105 	andcs	r1, r3, r5, lsl #2
    15bc:	04054a4a 	streq	r4, [r5], #-2634	; 0xfffff5b6
    15c0:	01620306 	cmneq	r2, r6, lsl #6
    15c4:	01060905 	tsteq	r6, r5, lsl #18
    15c8:	052e0f05 	streq	r0, [lr, #-3845]!	; 0xfffff0fb
    15cc:	052c0608 	streq	r0, [ip, #-1544]!	; 0xfffff9f8
    15d0:	052e060d 	streq	r0, [lr, #-1549]!	; 0xfffff9f3
    15d4:	05670603 	strbeq	r0, [r7, #-1539]!	; 0xfffff9fd
    15d8:	05010605 	streq	r0, [r1, #-1541]	; 0xfffff9fb
    15dc:	054d0608 	strbeq	r0, [sp, #-1544]	; 0xfffff9f8
    15e0:	0501060e 	streq	r0, [r1, #-1550]	; 0xfffff9f2
    15e4:	09052e0a 	stmdbeq	r5, {r1, r3, r9, sl, fp, sp}
    15e8:	0604052f 	streq	r0, [r4], -pc, lsr #10
    15ec:	0607052f 	streq	r0, [r7], -pc, lsr #10
    15f0:	2c0a0501 	cfstr32cs	mvfx0, [sl], {1}
    15f4:	32060405 	andcc	r0, r6, #83886080	; 0x5000000
    15f8:	03062d05 	movweq	r2, #27909	; 0x6d05
    15fc:	05017f98 	streq	r7, [r1, #-3992]	; 0xfffff068
    1600:	00ed0309 	rsceq	r0, sp, r9, lsl #6
    1604:	2c0d052e 	cfstr32cs	mvfx0, [sp], {46}	; 0x2e
    1608:	052b0705 	streq	r0, [fp, #-1797]!	; 0xfffff8fb
    160c:	13300604 	teqne	r0, #4, 12	; 0x400000
    1610:	01090514 	tsteq	r9, r4, lsl r5
    1614:	93030c05 	movwls	r0, #15365	; 0x3c05
    1618:	1d05017f 	stfnes	f0, [r5, #-508]	; 0xfffffe04
    161c:	05010601 	streq	r0, [r1, #-1537]	; 0xfffff9ff
    1620:	00ed0309 	rsceq	r0, sp, r9, lsl #6
    1624:	06050501 	streq	r0, [r5], -r1, lsl #10
    1628:	0612052f 	ldreq	r0, [r2], -pc, lsr #10
    162c:	052d2e01 	streq	r2, [sp, #-3585]!	; 0xfffff1ff
    1630:	05052f0b 	streq	r2, [r5, #-3851]	; 0xfffff0f5
    1634:	09052f06 	stmdbeq	r5, {r1, r2, r8, r9, sl, fp, sp}
    1638:	030c0510 	movweq	r0, #50448	; 0xc510
    163c:	05017f93 	streq	r7, [r1, #-3987]	; 0xfffff06d
    1640:	2d05011d 	stfcss	f0, [r5, #-116]	; 0xffffff8c
    1644:	09050106 	stmdbeq	r5, {r1, r2, r8}
    1648:	2e00ed03 	cdpcs	13, 0, cr14, cr0, cr3, {0}
    164c:	4e060405 	cdpmi	4, 0, cr0, cr6, cr5, {0}
    1650:	04020001 	streq	r0, [r2], #-1
    1654:	02004a02 	andeq	r4, r0, #8192	; 0x2000
    1658:	00010204 	andeq	r0, r1, r4, lsl #4
    165c:	15020402 	strne	r0, [r2, #-1026]	; 0xfffffbfe
    1660:	02040200 	andeq	r0, r4, #0, 4
    1664:	12360206 	eorsne	r0, r6, #1610612736	; 0x60000000
    1668:	02040200 	andeq	r0, r4, #0, 4
    166c:	0602052e 	streq	r0, [r2], -lr, lsr #10
    1670:	0100d103 	tsteq	r0, r3, lsl #2
    1674:	01060705 	tsteq	r6, r5, lsl #14
    1678:	0602052e 	streq	r0, [r2], -lr, lsr #10
    167c:	060b052f 	streq	r0, [fp], -pc, lsr #10
    1680:	2f010501 	svccs	0x00010501
    1684:	03060505 	movweq	r0, #25861	; 0x6505
    1688:	09054a65 	stmdbeq	r5, {r0, r2, r5, r6, r9, fp, lr}
    168c:	05660106 	strbeq	r0, [r6, #-262]!	; 0xfffffefa
    1690:	059f0605 	ldreq	r0, [pc, #1541]	; 1c9d <__code_start__-0x6363>
    1694:	01110304 	tsteq	r1, r4, lsl #6
    1698:	01060705 	tsteq	r6, r5, lsl #14
    169c:	31060405 	tstcc	r6, r5, lsl #8
    16a0:	05010a05 	streq	r0, [r1, #-2565]	; 0xfffff5fb
    16a4:	04020013 	streq	r0, [r2], #-19	; 0xffffffed
    16a8:	052e0601 	streq	r0, [lr, #-1537]!	; 0xfffff9ff
    16ac:	04020010 	streq	r0, [r2], #-16
    16b0:	05052e01 	streq	r2, [r5, #-3585]	; 0xfffff1ff
    16b4:	0a054b06 	beq	1542d4 <__bss_end__+0x14900c>
    16b8:	2d060106 	stfcss	f0, [r6, #-24]	; 0xffffffe8
    16bc:	01060405 	tsteq	r6, r5, lsl #8
    16c0:	03061105 	movweq	r1, #24837	; 0x6105
    16c4:	13667fb6 	cmnne	r6, #728	; 0x2d8
    16c8:	04020001 	streq	r0, [r2], #-1
    16cc:	06ba0602 	ldrteq	r0, [sl], r2, lsl #12
    16d0:	051401ba 	ldreq	r0, [r4, #-442]	; 0xfffffe46
    16d4:	2e13061a 	mrccs	6, 0, r0, cr3, cr10, {0}
    16d8:	4e11052e 	cfmul64mi	mvdx0, mvdx1, mvdx14
    16dc:	68140567 	ldmdavs	r4, {r0, r1, r2, r5, r6, r8, sl}
    16e0:	05821305 	streq	r1, [r2, #773]	; 0x305
    16e4:	4a780315 	bmi	1e02340 <__bss_end__+0x1df7078>
    16e8:	4b061105 	blmi	185b04 <__bss_end__+0x17a83c>
    16ec:	13141313 	tstne	r4, #1275068416	; 0x4c000000
    16f0:	06130514 			; <UNDEFINED> instruction: 0x06130514
    16f4:	06090501 	streq	r0, [r9], -r1, lsl #10
    16f8:	060d052f 	streq	r0, [sp], -pc, lsr #10
    16fc:	052e2e01 	streq	r2, [lr, #-3585]!	; 0xfffff1ff
    1700:	0d05bb09 	vstreq	d11, [r5, #-36]	; 0xffffffdc
    1704:	0609059d 			; <UNDEFINED> instruction: 0x0609059d
    1708:	2f15052f 	svccs	0x0015052f
    170c:	4a750306 	bmi	1d4232c <__bss_end__+0x1d37064>
    1710:	4a2e0b03 	bmi	b84324 <__bss_end__+0xb7905c>
    1714:	03060505 	movweq	r0, #25861	; 0x6505
    1718:	09050123 	stmdbeq	r5, {r0, r1, r5, r8}
    171c:	052e0106 	streq	r0, [lr, #-262]!	; 0xfffffefa
    1720:	03d70605 	bicseq	r0, r7, #5242880	; 0x500000
    1724:	0e032e6e 	cdpeq	14, 0, cr2, cr3, cr14, {3}
    1728:	06090501 	streq	r0, [r9], -r1, lsl #10
    172c:	06050501 	streq	r0, [r5], -r1, lsl #10
    1730:	054a1003 	strbeq	r1, [sl, #-3]
    1734:	7eed0301 	cdpvc	3, 14, cr0, cr13, cr1, {0}
    1738:	14020501 	strne	r0, [r2], #-1281	; 0xfffffaff
    173c:	05141315 	ldreq	r1, [r4, #-789]	; 0xfffffceb
    1740:	011a0304 	tsteq	sl, r4, lsl #6
    1744:	01060905 	tsteq	r6, r5, lsl #18
    1748:	46030205 	strmi	r0, [r3], -r5, lsl #4
    174c:	0309052e 	movweq	r0, #38190	; 0x952e
    1750:	04052e3a 	streq	r2, [r5], #-3642	; 0xfffff1c6
    1754:	0d032f06 	stceq	15, cr2, [r3, #-24]	; 0xffffffe8
    1758:	02050101 	andeq	r0, r5, #1073741824	; 0x40000000
    175c:	030e0515 	movweq	r0, #58645	; 0xe515
    1760:	05017fb2 	streq	r7, [r1, #-4018]	; 0xfffff04e
    1764:	05141302 	ldreq	r1, [r4, #-770]	; 0xfffffcfe
    1768:	02050108 	andeq	r0, r5, #2
    176c:	08050106 	stmdaeq	r5, {r1, r2, r8}
    1770:	0603059f 			; <UNDEFINED> instruction: 0x0603059f
    1774:	0501064a 	streq	r0, [r1, #-1610]	; 0xfffff9b6
    1778:	15052e08 	strne	r2, [r5, #-3592]	; 0xfffff1f8
    177c:	08052d06 	stmdaeq	r5, {r1, r2, r8, sl, fp, sp}
    1780:	2f030501 	svccs	0x00030501
    1784:	08050106 	stmdaeq	r5, {r1, r2, r8}
    1788:	0615052e 	ldreq	r0, [r5], -lr, lsr #10
    178c:	0108052d 	tsteq	r8, sp, lsr #10
    1790:	062f0305 	strteq	r0, [pc], -r5, lsl #6
    1794:	2e080501 	cfsh32cs	mvfx0, mvfx8, #1
    1798:	2d061505 	cfstr32cs	mvfx1, [r6, #-20]	; 0xffffffec
    179c:	05010805 	streq	r0, [r1, #-2053]	; 0xfffff7fb
    17a0:	01062f03 	tsteq	r6, r3, lsl #30
    17a4:	052e0805 	streq	r0, [lr, #-2053]!	; 0xfffff7fb
    17a8:	052d0615 	streq	r0, [sp, #-1557]!	; 0xfffff9eb
    17ac:	03050108 	movweq	r0, #20744	; 0x5108
    17b0:	0501062f 	streq	r0, [r1, #-1583]	; 0xfffff9d1
    17b4:	15052e08 	strne	r2, [r5, #-3592]	; 0xfffff1f8
    17b8:	08052d06 	stmdaeq	r5, {r1, r2, r8, sl, fp, sp}
    17bc:	2f030501 	svccs	0x00030501
    17c0:	08050106 	stmdaeq	r5, {r1, r2, r8}
    17c4:	0615052e 	ldreq	r0, [r5], -lr, lsr #10
    17c8:	0108052d 	tsteq	r8, sp, lsr #10
    17cc:	05130305 	ldreq	r0, [r3, #-773]	; 0xfffffcfb
    17d0:	05010608 	streq	r0, [r1, #-1544]	; 0xfffff9f8
    17d4:	052d0615 	streq	r0, [sp, #-1557]!	; 0xfffff9eb
    17d8:	66060108 	strvs	r0, [r6], -r8, lsl #2
    17dc:	67060305 	strvs	r0, [r6, -r5, lsl #6]
    17e0:	01060805 	tsteq	r6, r5, lsl #16
    17e4:	052d1805 	streq	r1, [sp, #-2053]!	; 0xfffff7fb
    17e8:	08052e02 	stmdaeq	r5, {r1, r9, sl, fp, sp}
    17ec:	0615052f 	ldreq	r0, [r5], -pc, lsr #10
    17f0:	0108052d 	tsteq	r8, sp, lsr #10
    17f4:	01060205 	tsteq	r6, r5, lsl #4
    17f8:	2f060305 	svccs	0x00060305
    17fc:	11061805 	tstne	r6, r5, lsl #16
    1800:	052e0205 	streq	r0, [lr, #-517]!	; 0xfffffdfb
    1804:	15052f08 	strne	r2, [r5, #-3848]	; 0xfffff0f8
    1808:	08052d06 	stmdaeq	r5, {r1, r2, r8, sl, fp, sp}
    180c:	13030501 	movwne	r0, #13569	; 0x3501
    1810:	01060805 	tsteq	r6, r5, lsl #16
    1814:	2d061505 	cfstr32cs	mvfx1, [r6, #-20]	; 0xffffffec
    1818:	05010805 	streq	r0, [r1, #-2053]	; 0xfffff7fb
    181c:	4a140605 	bmi	503038 <__bss_end__+0x4f7d70>
    1820:	2e060205 	cdpcs	2, 0, cr0, cr6, cr5, {0}
    1824:	19060e05 	stmdbne	r6, {r0, r2, r9, sl, fp}
    1828:	052f0405 	streq	r0, [pc, #-1029]!	; 142b <__code_start__-0x6bd5>
    182c:	09052f11 	stmdbeq	r5, {r0, r4, r8, r9, sl, fp, sp}
    1830:	3302054a 	movwcc	r0, #9546	; 0x254a
    1834:	72030505 	andvc	r0, r3, #20971520	; 0x1400000
    1838:	0602052e 	streq	r0, [r2], -lr, lsr #10
    183c:	0501062f 	streq	r0, [r1, #-1583]	; 0xfffff9d1
    1840:	0516060e 	ldreq	r0, [r6, #-1550]	; 0xfffff9f2
    1844:	05131402 	ldreq	r1, [r3, #-1026]	; 0xfffffbfe
    1848:	02051303 	andeq	r1, r5, #201326592	; 0xc000000
    184c:	0b051514 	bleq	146ca4 <__bss_end__+0x13b9dc>
    1850:	06020501 	streq	r0, [r2], -r1, lsl #10
    1854:	05662e01 	strbeq	r2, [r6, #-3585]!	; 0xfffff1ff
    1858:	052f0603 	streq	r0, [pc, #-1539]!	; 125d <__code_start__-0x6da3>
    185c:	0501060a 	streq	r0, [r1, #-1546]	; 0xfffff9f6
    1860:	0a052d02 	beq	14cc70 <__bss_end__+0x1419a8>
    1864:	0617052f 	ldreq	r0, [r7], -pc, lsr #10
    1868:	010b052d 	tsteq	fp, sp, lsr #10
    186c:	01060205 	tsteq	r6, r5, lsl #4
    1870:	05054a4a 	streq	r4, [r5, #-2634]	; 0xfffff5b6
    1874:	01950306 	orrseq	r0, r5, r6, lsl #6
    1878:	06110501 	ldreq	r0, [r1], -r1, lsl #10
    187c:	017ef803 	cmneq	lr, r3, lsl #16	; <UNPREDICTABLE>
    1880:	88031b05 	stmdahi	r3, {r0, r2, r8, r9, fp, ip}
    1884:	01054a01 	tsteq	r5, r1, lsl #20
    1888:	7ef30306 	cdpvc	3, 15, cr0, cr3, cr6, {0}
    188c:	1402052e 	strne	r0, [r2], #-1326	; 0xfffffad2
    1890:	05141315 	ldreq	r1, [r4, #-789]	; 0xfffffceb
    1894:	01220319 			; <UNDEFINED> instruction: 0x01220319
    1898:	05131a05 	ldreq	r1, [r3, #-2565]	; 0xfffff5fb
    189c:	05010628 	streq	r0, [r1, #-1576]	; 0xfffff9d8
    18a0:	04052e1f 	streq	r2, [r5], #-3615	; 0xfffff1e1
    18a4:	4a0e052f 	bmi	382d68 <__bss_end__+0x377aa0>
    18a8:	052d1f05 	streq	r1, [sp, #-3845]!	; 0xfffff0fb
    18ac:	052f060b 	streq	r0, [pc, #-1547]!	; 12a9 <__code_start__-0x6d57>
    18b0:	06010604 	streq	r0, [r1], -r4, lsl #12
    18b4:	02050132 	andeq	r0, r5, #-2147483636	; 0x8000000c
    18b8:	030e0515 	movweq	r0, #58645	; 0xe515
    18bc:	05017fb2 	streq	r7, [r1, #-4018]	; 0xfffff04e
    18c0:	06051302 	streq	r1, [r5], -r2, lsl #6
    18c4:	02050106 	andeq	r0, r5, #-2147483647	; 0x80000001
    18c8:	08053006 	stmdaeq	r5, {r1, r2, ip, sp}
    18cc:	06020501 	streq	r0, [r2], -r1, lsl #10
    18d0:	06030501 	streq	r0, [r3], -r1, lsl #10
    18d4:	08052108 	stmdaeq	r5, {r3, r8, sp}
    18d8:	15050106 	strne	r0, [r5, #-262]	; 0xfffffefa
    18dc:	08054906 	stmdaeq	r5, {r1, r2, r8, fp, lr}
    18e0:	d7030501 	strle	r0, [r3, -r1, lsl #10]
    18e4:	01060805 	tsteq	r6, r5, lsl #16
    18e8:	052d1805 	streq	r1, [sp, #-2053]!	; 0xfffff7fb
    18ec:	08052e02 	stmdaeq	r5, {r1, r9, sl, fp, sp}
    18f0:	0615052f 	ldreq	r0, [r5], -pc, lsr #10
    18f4:	0108052d 	tsteq	r8, sp, lsr #10
    18f8:	01060205 	tsteq	r6, r5, lsl #4
    18fc:	2f060305 	svccs	0x00060305
    1900:	11061805 	tstne	r6, r5, lsl #16
    1904:	052e0205 	streq	r0, [lr, #-517]!	; 0xfffffdfb
    1908:	15052f08 	strne	r2, [r5, #-3848]	; 0xfffff0f8
    190c:	08052d06 	stmdaeq	r5, {r1, r2, r8, sl, fp, sp}
    1910:	13030501 	movwne	r0, #13569	; 0x3501
    1914:	01060805 	tsteq	r6, r5, lsl #16
    1918:	2d061505 	cfstr32cs	mvfx1, [r6, #-20]	; 0xffffffec
    191c:	05010805 	streq	r0, [r1, #-2053]	; 0xfffff7fb
    1920:	05140605 	ldreq	r0, [r4, #-1541]	; 0xfffff9fb
    1924:	05660602 	strbeq	r0, [r6, #-1538]!	; 0xfffff9fe
    1928:	051a0604 	ldreq	r0, [sl, #-1540]	; 0xfffff9fc
    192c:	4a780305 	bmi	1e02548 <__bss_end__+0x1df7280>
    1930:	2f060205 	svccs	0x00060205
    1934:	0e050106 	adfeqs	f0, f5, f6
    1938:	02051606 	andeq	r1, r5, #6291456	; 0x600000
    193c:	04051314 	streq	r1, [r5], #-788	; 0xfffffcec
    1940:	03050106 	movweq	r0, #20742	; 0x5106
    1944:	11052f06 	tstne	r5, r6, lsl #30
    1948:	09050106 	stmdbeq	r5, {r1, r2, r8}
    194c:	0602052e 	streq	r0, [r2], -lr, lsr #10
    1950:	0b051530 	bleq	146e18 <__bss_end__+0x13bb50>
    1954:	06020501 	streq	r0, [r2], -r1, lsl #10
    1958:	2e4a4a01 	vmlacs.f32	s9, s20, s2
    195c:	2f060305 	svccs	0x00060305
    1960:	01060a05 	tsteq	r6, r5, lsl #20
    1964:	052d0205 	streq	r0, [sp, #-517]!	; 0xfffffdfb
    1968:	17052f0a 	strne	r2, [r5, -sl, lsl #30]
    196c:	0b052d06 	bleq	14cd8c <__bss_end__+0x141ac4>
    1970:	06020501 	streq	r0, [r2], -r1, lsl #10
    1974:	062e4a01 	strteq	r4, [lr], -r1, lsl #20
    1978:	06090514 			; <UNDEFINED> instruction: 0x06090514
    197c:	06020501 	streq	r0, [r2], -r1, lsl #10
    1980:	0501064c 	streq	r0, [r1, #-1612]	; 0xfffff9b4
    1984:	98030605 	stmdals	r3, {r0, r2, r9, sl}
    1988:	052a0101 	streq	r0, [sl, #-257]!	; 0xfffffeff
    198c:	05010607 	streq	r0, [r1, #-1543]	; 0xfffff9f9
    1990:	052f0605 	streq	r0, [pc, #-1541]!	; 1393 <__code_start__-0x6c6d>
    1994:	2e530318 	mrccs	3, 2, r0, cr3, cr8, {0}
    1998:	01061b05 	tsteq	r6, r5, lsl #22
    199c:	05821a05 	streq	r1, [r2, #2565]	; 0xa05
    19a0:	054b0609 	strbeq	r0, [fp, #-1545]	; 0xfffff9f7
    19a4:	2e01060d 	cfmadd32cs	mvax0, mvfx0, mvfx1, mvfx13
    19a8:	05d70905 	ldrbeq	r0, [r7, #2309]	; 0x905
    19ac:	09059d0d 	stmdbeq	r5, {r0, r2, r3, r8, sl, fp, ip, pc}
    19b0:	15052f06 	strne	r2, [r5, #-3846]	; 0xfffff0fa
    19b4:	06180530 			; <UNDEFINED> instruction: 0x06180530
    19b8:	66170501 	ldrvs	r0, [r7], -r1, lsl #10
    19bc:	052f1905 	streq	r1, [pc, #-2309]!	; 10bf <__code_start__-0x6f41>
    19c0:	19054917 	stmdbne	r5, {r0, r1, r2, r4, r8, fp, lr}
    19c4:	15052f06 	strne	r2, [r5, #-3846]	; 0xfffff0fa
    19c8:	2e6f0306 	cdpcs	3, 6, cr0, cr15, cr6, {0}
    19cc:	03061905 	movweq	r1, #26885	; 0x6905
    19d0:	15054a13 	strne	r4, [r5, #-2579]	; 0xfffff5ed
    19d4:	2e6d0306 	cdpcs	3, 6, cr0, cr13, cr6, {0}
    19d8:	0302054a 	movweq	r0, #9546	; 0x254a
    19dc:	66017fa0 	strvs	r7, [r1], -r0, lsr #31
    19e0:	01720306 	cmneq	r2, r6, lsl #6
    19e4:	01060505 	tsteq	r6, r5, lsl #10
    19e8:	05360405 	ldreq	r0, [r6, #-1029]!	; 0xfffffbfb
    19ec:	2e780305 	cdpcs	3, 7, cr0, cr8, cr5, {0}
    19f0:	2f060205 	svccs	0x00060205
    19f4:	0e050106 	adfeqs	f0, f5, f6
    19f8:	02051606 	andeq	r1, r5, #6291456	; 0x600000
    19fc:	04051314 	streq	r1, [r5], #-788	; 0xfffffcec
    1a00:	054a0106 	strbeq	r0, [sl, #-262]	; 0xfffffefa
    1a04:	78030602 	stmdavc	r3, {r1, r9, sl}
    1a08:	06050501 	streq	r0, [r5], -r1, lsl #10
    1a0c:	02054a01 	andeq	r4, r5, #4096	; 0x1000
    1a10:	01064b06 	tsteq	r6, r6, lsl #22
    1a14:	16060e05 	strne	r0, [r6], -r5, lsl #28
    1a18:	13140205 	tstne	r4, #1342177280	; 0x50000000
    1a1c:	0b051515 	bleq	146e78 <__bss_end__+0x13bbb0>
    1a20:	052e0601 	streq	r0, [lr, #-1537]!	; 0xfffff9ff
    1a24:	9e030611 	mcrls	6, 0, r0, cr3, cr1, {0}
    1a28:	22050101 	andcs	r0, r5, #1073741824	; 0x40000000
    1a2c:	05050106 	streq	r0, [r5, #-262]	; 0xfffffefa
    1a30:	2d22052f 	cfstr32cs	mvfx0, [r2, #-188]!	; 0xffffff44
    1a34:	2f060505 	svccs	0x00060505
    1a38:	054b1105 	strbeq	r1, [fp, #-261]	; 0xfffffefb
    1a3c:	9e018305 	cdpls	3, 0, cr8, cr1, cr5, {0}
    1a40:	012e5c03 			; <UNDEFINED> instruction: 0x012e5c03
    1a44:	0602059e 			; <UNDEFINED> instruction: 0x0602059e
    1a48:	2e7ef303 	cdpcs	3, 7, cr15, cr14, cr3, {0}
    1a4c:	2c06052e 	cfstr32cs	mvfx0, [r6], {46}	; 0x2e
    1a50:	030d054a 	movweq	r0, #54602	; 0xd54a
    1a54:	050100d8 	streq	r0, [r1, #-216]	; 0xffffff28
    1a58:	04020004 	streq	r0, [r2], #-4
    1a5c:	11030601 	tstne	r3, r1, lsl #12
    1a60:	0402004a 	streq	r0, [r2], #-74	; 0xffffffb6
    1a64:	11050101 	tstne	r5, r1, lsl #2
    1a68:	9e065106 	adflss	f5, f6, f6
    1a6c:	17031505 	strne	r1, [r3, -r5, lsl #10]
    1a70:	05ba012e 	ldreq	r0, [sl, #302]!	; 0x12e
    1a74:	2e690311 	mcrcs	3, 3, r0, cr9, cr1, {0}
    1a78:	00280201 	eoreq	r0, r8, r1, lsl #4
    1a7c:	00870101 	addeq	r0, r7, r1, lsl #2
    1a80:	00030000 	andeq	r0, r3, r0
    1a84:	00000064 	andeq	r0, r0, r4, rrx
    1a88:	0efb0102 	cdpeq	1, 15, cr0, cr11, cr2, {0}
    1a8c:	0101000d 	tsteq	r1, sp
    1a90:	00000101 	andeq	r0, r0, r1, lsl #2
    1a94:	00000100 	andeq	r0, r0, r0, lsl #2
    1a98:	732f2e01 			; <UNDEFINED> instruction: 0x732f2e01
    1a9c:	66666174 			; <UNDEFINED> instruction: 0x66666174
    1aa0:	6372732d 	cmnvs	r2, #-1275068416	; 0xb4000000
    1aa4:	73552f00 	cmpvc	r5, #0, 30
    1aa8:	2f737265 	svccs	0x00737265
    1aac:	656c696d 	strbvs	r6, [ip, #-2413]!	; 0xfffff693
    1ab0:	6f532f73 	svcvs	0x00532f73
    1ab4:	65637275 	strbvs	r7, [r3, #-629]!	; 0xfffffd8b
    1ab8:	3273632f 	rsbscc	r6, r3, #-1140850688	; 0xbc000000
    1abc:	786c3034 	stmdavc	ip!, {r2, r4, r5, ip, sp}^
    1ac0:	62696c2f 	rsbvs	r6, r9, #12032	; 0x2f00
    1ac4:	692f6970 	stmdbvs	pc!, {r4, r5, r6, r8, fp, sp, lr}	; <UNPREDICTABLE>
    1ac8:	756c636e 	strbvc	r6, [ip, #-878]!	; 0xfffffc92
    1acc:	00006564 	andeq	r6, r0, r4, ror #10
    1ad0:	61656c63 	cmnvs	r5, r3, ror #24
    1ad4:	65722d6e 	ldrbvs	r2, [r2, #-3438]!	; 0xfffff292
    1ad8:	746f6f62 	strbtvc	r6, [pc], #-3938	; 1ae0 <__code_start__-0x6520>
    1adc:	0100632e 	tsteq	r0, lr, lsr #6
    1ae0:	70720000 	rsbsvc	r0, r2, r0
    1ae4:	00682e69 	rsbeq	r2, r8, r9, ror #28
    1ae8:	00000002 	andeq	r0, r0, r2
    1aec:	05001905 	streq	r1, [r0, #-2309]	; 0xfffff6fb
    1af0:	009a3802 	addseq	r3, sl, r2, lsl #16
    1af4:	05051500 	streq	r1, [r5, #-1280]	; 0xfffffb00
    1af8:	06190513 			; <UNDEFINED> instruction: 0x06190513
    1afc:	2f05052d 	svccs	0x0005052d
    1b00:	4b2f6706 	blmi	bdb720 <__bss_end__+0xbd0458>
    1b04:	01000602 	tsteq	r0, r2, lsl #12
    1b08:	00017601 	andeq	r7, r1, r1, lsl #12
    1b0c:	5e000300 	cdppl	3, 0, cr0, cr0, cr0, {0}
    1b10:	02000000 	andeq	r0, r0, #0, 0
    1b14:	0d0efb01 	vstreq	d15, [lr, #-4]
    1b18:	01010100 	mrseq	r0, (UNDEF: 17)
    1b1c:	00000001 	andeq	r0, r0, r1
    1b20:	01000001 	tsteq	r0, r1
    1b24:	74732f2e 	ldrbtvc	r2, [r3], #-3886	; 0xfffff0d2
    1b28:	2d666661 	stclcs	6, cr6, [r6, #-388]!	; 0xfffffe7c
    1b2c:	00637273 	rsbeq	r7, r3, r3, ror r2
    1b30:	6573552f 	ldrbvs	r5, [r3, #-1327]!	; 0xfffffad1
    1b34:	6d2f7372 	stcvs	3, cr7, [pc, #-456]!	; 1974 <__code_start__-0x668c>
    1b38:	73656c69 	cmnvc	r5, #26880	; 0x6900
    1b3c:	756f532f 	strbvc	r5, [pc, #-815]!	; 1815 <__code_start__-0x67eb>
    1b40:	2f656372 	svccs	0x00656372
    1b44:	34327363 	ldrtcc	r7, [r2], #-867	; 0xfffffc9d
    1b48:	2f786c30 	svccs	0x00786c30
    1b4c:	7062696c 	rsbvc	r6, r2, ip, ror #18
    1b50:	6e692f69 	cdpvs	15, 6, cr2, cr9, cr9, {3}
    1b54:	64756c63 	ldrbtvs	r6, [r5], #-3171	; 0xfffff39d
    1b58:	63000065 	movwvs	r0, #101	; 0x65
    1b5c:	72617473 	rsbvc	r7, r1, #1929379840	; 0x73000000
    1b60:	00632e74 	rsbeq	r2, r3, r4, ror lr
    1b64:	72000001 	andvc	r0, r0, #1, 0
    1b68:	682e6970 	stmdavs	lr!, {r4, r5, r6, r8, fp, sp, lr}
    1b6c:	00000200 	andeq	r0, r0, r0, lsl #4
    1b70:	00100500 	andseq	r0, r0, r0, lsl #10
    1b74:	9a640205 	bls	1902390 <__bss_end__+0x18f70c8>
    1b78:	10030000 	andne	r0, r3, r0
    1b7c:	13050501 	movwne	r0, #21761	; 0x5501
    1b80:	05130205 	ldreq	r0, [r3, #-517]	; 0xfffffdfb
    1b84:	10051405 	andne	r1, r5, r5, lsl #8
    1b88:	05050e06 	streq	r0, [r5, #-3590]	; 0xfffff1fa
    1b8c:	13300632 	teqne	r0, #52428800	; 0x3200000
    1b90:	010a0514 	tsteq	sl, r4, lsl r5
    1b94:	91080905 	tstls	r8, r5, lsl #18
    1b98:	01061005 	tsteq	r6, r5
    1b9c:	059a0a05 	ldreq	r0, [sl, #2565]	; 0xa05
    1ba0:	0a056a10 	beq	15c3e8 <__bss_end__+0x151120>
    1ba4:	09052d06 	stmdbeq	r5, {r1, r2, r8, sl, fp, sp}
    1ba8:	0610052f 	ldreq	r0, [r0], -pc, lsr #10
    1bac:	060a0501 	streq	r0, [sl], -r1, lsl #10
    1bb0:	bb09052d 	bllt	24306c <__bss_end__+0x237da4>
    1bb4:	01061005 	tsteq	r6, r5
    1bb8:	65060a05 	strvs	r0, [r6, #-2565]	; 0xfffff5fb
    1bbc:	054b0905 	strbeq	r0, [fp, #-2309]	; 0xfffff6fb
    1bc0:	0501060d 	streq	r0, [r1, #-1549]	; 0xfffff9f3
    1bc4:	10052d0a 	andne	r2, r5, sl, lsl #26
    1bc8:	060a052f 	streq	r0, [sl], -pc, lsr #10
    1bcc:	2f09052d 	svccs	0x0009052d
    1bd0:	01060d05 	tsteq	r6, r5, lsl #26
    1bd4:	052d0a05 	streq	r0, [sp, #-2565]!	; 0xfffff5fb
    1bd8:	0a052f10 	beq	14d820 <__bss_end__+0x142558>
    1bdc:	09052d06 	stmdbeq	r5, {r1, r2, r8, sl, fp, sp}
    1be0:	060d052f 	streq	r0, [sp], -pc, lsr #10
    1be4:	2d0a0501 	cfstr32cs	mvfx0, [sl, #-4]
    1be8:	052f1005 	streq	r1, [pc, #-5]!	; 1beb <__code_start__-0x6415>
    1bec:	052d060a 	streq	r0, [sp, #-1546]!	; 0xfffff9f6
    1bf0:	0d052f09 	stceq	15, cr2, [r5, #-36]	; 0xffffffdc
    1bf4:	0a050106 	beq	142014 <__bss_end__+0x136d4c>
    1bf8:	2f10052d 	svccs	0x0010052d
    1bfc:	2d060a05 	vstrcs	s0, [r6, #-20]	; 0xffffffec
    1c00:	05130905 	ldreq	r0, [r3, #-2309]	; 0xfffff6fb
    1c04:	05010610 	streq	r0, [r1, #-1552]	; 0xfffff9f0
    1c08:	052d060a 	streq	r0, [sp, #-1546]!	; 0xfffff9f6
    1c0c:	01321505 	teqeq	r2, r5, lsl #10
    1c10:	05144a01 	ldreq	r4, [r4, #-2561]	; 0xfffff5ff
    1c14:	01610311 	cmneq	r1, r1, lsl r3
    1c18:	14130505 	ldrne	r0, [r3], #-1285	; 0xfffffafb
    1c1c:	01140514 	tsteq	r4, r4, lsl r5
    1c20:	01062e01 	tsteq	r6, r1, lsl #28
    1c24:	13060505 	movwne	r0, #25861	; 0x6505
    1c28:	060a0515 			; <UNDEFINED> instruction: 0x060a0515
    1c2c:	06050501 	streq	r0, [r5], -r1, lsl #10
    1c30:	0601064b 	streq	r0, [r1], -fp, asr #12
    1c34:	2f011603 	svccs	0x00011603
    1c38:	5f031105 	svcpl	0x00031105
    1c3c:	13050501 	movwne	r0, #21761	; 0x5501
    1c40:	14051414 	strne	r1, [r5], #-1044	; 0xfffffbec
    1c44:	062e0101 	strteq	r0, [lr], -r1, lsl #2
    1c48:	06050501 	streq	r0, [r5], -r1, lsl #10
    1c4c:	06080513 			; <UNDEFINED> instruction: 0x06080513
    1c50:	03050501 	movweq	r0, #21761	; 0x5501
    1c54:	07052e1c 	smladeq	r5, ip, lr, r2
    1c58:	052e6403 	streq	r6, [lr, #-1027]!	; 0xfffffbfd
    1c5c:	052f0609 	streq	r0, [pc, #-1545]!	; 165b <__code_start__-0x69a5>
    1c60:	0501060e 	streq	r0, [r1, #-1550]	; 0xfffff9f2
    1c64:	05300605 	ldreq	r0, [r0, #-1541]!	; 0xfffff9fb
    1c68:	0501060a 	streq	r0, [r1, #-1546]	; 0xfffff9f6
    1c6c:	062f0605 	strteq	r0, [pc], -r5, lsl #12
    1c70:	18030601 	stmdane	r3, {r0, r9, sl}
    1c74:	30020501 	andcc	r0, r2, r1, lsl #10
    1c78:	03060a05 	movweq	r0, #27141	; 0x6a05
    1c7c:	0c022e6f 	stceq	14, cr2, [r2], {111}	; 0x6f
    1c80:	7d010100 	stfvcs	f0, [r1, #-0]
    1c84:	03000000 	movweq	r0, #0
    1c88:	00006500 	andeq	r6, r0, r0, lsl #10
    1c8c:	fb010200 	blx	42496 <__bss_end__+0x371ce>
    1c90:	01000d0e 	tsteq	r0, lr, lsl #26
    1c94:	00010101 	andeq	r0, r1, r1, lsl #2
    1c98:	00010000 	andeq	r0, r1, r0
    1c9c:	2f2e0100 	svccs	0x002e0100
    1ca0:	66617473 			; <UNDEFINED> instruction: 0x66617473
    1ca4:	72732d66 	rsbsvc	r2, r3, #6528	; 0x1980
    1ca8:	552f0063 	strpl	r0, [pc, #-99]!	; 1c4d <__code_start__-0x63b3>
    1cac:	73726573 	cmnvc	r2, #482344960	; 0x1cc00000
    1cb0:	6c696d2f 	stclvs	13, cr6, [r9], #-188	; 0xffffff44
    1cb4:	532f7365 			; <UNDEFINED> instruction: 0x532f7365
    1cb8:	6372756f 	cmnvs	r2, #465567744	; 0x1bc00000
    1cbc:	73632f65 	cmnvc	r3, #404	; 0x194
    1cc0:	6c303432 	cfldrsvs	mvf3, [r0], #-200	; 0xffffff38
    1cc4:	696c2f78 	stmdbvs	ip!, {r3, r4, r5, r6, r8, r9, sl, fp, sp}^
    1cc8:	2f697062 	svccs	0x00697062
    1ccc:	6c636e69 	stclvs	14, cr6, [r3], #-420	; 0xfffffe5c
    1cd0:	00656475 	rsbeq	r6, r5, r5, ror r4
    1cd4:	73756300 	cmnvc	r5, #0, 6
    1cd8:	2d6d6f74 	stclcs	15, cr6, [sp, #-464]!	; 0xfffffe30
    1cdc:	64616f6c 	strbtvs	r6, [r1], #-3948	; 0xfffff094
    1ce0:	632e7265 			; <UNDEFINED> instruction: 0x632e7265
    1ce4:	00000100 	andeq	r0, r0, r0, lsl #2
    1ce8:	2e697072 	mcrcs	0, 3, r7, cr9, cr2, {3}
    1cec:	00020068 	andeq	r0, r2, r8, rrx
    1cf0:	1a050000 	bne	141cf8 <__bss_end__+0x136a30>
    1cf4:	8c020500 	cfstr32hi	mvfx0, [r2], {-0}
    1cf8:	1500009b 	strne	r0, [r0, #-155]	; 0xffffff65
    1cfc:	02140105 	andseq	r0, r4, #1073741825	; 0x40000001
    1d00:	01010002 	tsteq	r1, r2
    1d04:	00000114 	andeq	r0, r0, r4, lsl r1
    1d08:	005e0003 	subseq	r0, lr, r3
    1d0c:	01020000 	mrseq	r0, (UNDEF: 2)
    1d10:	000d0efb 	strdeq	r0, [sp], -fp
    1d14:	01010101 	tsteq	r1, r1, lsl #2
    1d18:	01000000 	mrseq	r0, (UNDEF: 0)
    1d1c:	2e010000 	cdpcs	0, 0, cr0, cr1, cr0, {0}
    1d20:	6174732f 	cmnvs	r4, pc, lsr #6
    1d24:	732d6666 			; <UNDEFINED> instruction: 0x732d6666
    1d28:	2f006372 	svccs	0x00006372
    1d2c:	72657355 	rsbvc	r7, r5, #1409286145	; 0x54000001
    1d30:	696d2f73 	stmdbvs	sp!, {r0, r1, r4, r5, r6, r8, r9, sl, fp, sp}^
    1d34:	2f73656c 	svccs	0x0073656c
    1d38:	72756f53 	rsbsvc	r6, r5, #332	; 0x14c
    1d3c:	632f6563 			; <UNDEFINED> instruction: 0x632f6563
    1d40:	30343273 	eorscc	r3, r4, r3, ror r2
    1d44:	6c2f786c 	stcvs	8, cr7, [pc], #-432	; 1b9c <__code_start__-0x6464>
    1d48:	69706269 	ldmdbvs	r0!, {r0, r3, r5, r6, r9, sp, lr}^
    1d4c:	636e692f 	cmnvs	lr, #770048	; 0xbc000
    1d50:	6564756c 	strbvs	r7, [r4, #-1388]!	; 0xfffffa94
    1d54:	65720000 	ldrbvs	r0, [r2, #-0]!
    1d58:	746f6f62 	strbtvc	r6, [pc], #-3938	; 1d60 <__code_start__-0x62a0>
    1d5c:	0100632e 	tsteq	r0, lr, lsr #6
    1d60:	70720000 	rsbsvc	r0, r2, r0
    1d64:	00682e69 	rsbeq	r2, r8, r9, ror #28
    1d68:	00000002 	andeq	r0, r0, r2
    1d6c:	05001905 	streq	r1, [r0, #-2309]	; 0xfffff6fb
    1d70:	009b9002 	addseq	r9, fp, r2
    1d74:	010d0300 	mrseq	r0, SP_mon
    1d78:	13130505 	tstne	r3, #20971520	; 0x1400000
    1d7c:	06130531 			; <UNDEFINED> instruction: 0x06130531
    1d80:	2f010501 	svccs	0x00010501
    1d84:	85061b05 	strhi	r1, [r6, #-2821]	; 0xfffff4fb
    1d88:	14130505 	ldrne	r0, [r3], #-1285	; 0xfffffafb
    1d8c:	052f0905 	streq	r0, [pc, #-2309]!	; 148f <__code_start__-0x6b71>
    1d90:	05010616 	streq	r0, [r1, #-1558]	; 0xfffff9ea
    1d94:	052f0605 	streq	r0, [pc, #-1541]!	; 1797 <__code_start__-0x6869>
    1d98:	0511060e 	ldreq	r0, [r1, #-1550]	; 0xfffff9f2
    1d9c:	01052f05 	tsteq	r5, r5, lsl #30
    1da0:	0617052f 	ldreq	r0, [r7], -pc, lsr #10
    1da4:	13050530 	movwne	r0, #21808	; 0x5530
    1da8:	13016e03 	movwne	r6, #7683	; 0x1e03
    1dac:	06170513 			; <UNDEFINED> instruction: 0x06170513
    1db0:	05010f03 	streq	r0, [r1, #-3843]	; 0xfffff0fd
    1db4:	2e710305 	cdpcs	3, 7, cr0, cr1, cr5, {0}
    1db8:	13053106 	movwne	r3, #20742	; 0x5106
    1dbc:	07050106 	streq	r0, [r5, -r6, lsl #2]
    1dc0:	052e0d03 	streq	r0, [lr, #-3331]!	; 0xfffff2fd
    1dc4:	054b0609 	strbeq	r0, [fp, #-1545]	; 0xfffff9f7
    1dc8:	01760306 	cmneq	r6, r6, lsl #6
    1dcc:	14130505 	ldrne	r0, [r3], #-1285	; 0xfffffafb
    1dd0:	052f0905 	streq	r0, [pc, #-2309]!	; 14d3 <__code_start__-0x6b2d>
    1dd4:	05010616 	streq	r0, [r1, #-1558]	; 0xfffff9ea
    1dd8:	052f0605 	streq	r0, [pc, #-1541]!	; 17db <__code_start__-0x6825>
    1ddc:	0511060e 	ldreq	r0, [r1, #-1550]	; 0xfffff9f2
    1de0:	062e2f05 	strteq	r2, [lr], -r5, lsl #30
    1de4:	30010a03 	andcc	r0, r1, r3, lsl #20
    1de8:	13134d2f 	tstne	r3, #3008	; 0xbc0
    1dec:	00671513 	rsbeq	r1, r7, r3, lsl r5
    1df0:	67010402 	strvs	r0, [r1, -r2, lsl #8]
    1df4:	02000d05 	andeq	r0, r0, #320	; 0x140
    1df8:	05010104 	streq	r0, [r1, #-260]	; 0xfffffefc
    1dfc:	0402000a 	streq	r0, [r2], #-10
    1e00:	05050101 	streq	r0, [r5, #-257]	; 0xfffffeff
    1e04:	01040200 	mrseq	r0, R12_usr
    1e08:	000d0501 	andeq	r0, sp, r1, lsl #10
    1e0c:	01010402 	tsteq	r1, r2, lsl #8
    1e10:	02000a05 	andeq	r0, r0, #20480	; 0x5000
    1e14:	02010104 	andeq	r0, r1, #1
    1e18:	0101000a 	tsteq	r1, sl
    1e1c:	000001fa 	strdeq	r0, [r0], -sl
    1e20:	005d0003 	subseq	r0, sp, r3
    1e24:	01020000 	mrseq	r0, (UNDEF: 2)
    1e28:	000d0efb 	strdeq	r0, [sp], -fp
    1e2c:	01010101 	tsteq	r1, r1, lsl #2
    1e30:	01000000 	mrseq	r0, (UNDEF: 0)
    1e34:	2e010000 	cdpcs	0, 0, cr0, cr1, cr0, {0}
    1e38:	6174732f 	cmnvs	r4, pc, lsr #6
    1e3c:	732d6666 			; <UNDEFINED> instruction: 0x732d6666
    1e40:	2f006372 	svccs	0x00006372
    1e44:	72657355 	rsbvc	r7, r5, #1409286145	; 0x54000001
    1e48:	696d2f73 	stmdbvs	sp!, {r0, r1, r4, r5, r6, r8, r9, sl, fp, sp}^
    1e4c:	2f73656c 	svccs	0x0073656c
    1e50:	72756f53 	rsbsvc	r6, r5, #332	; 0x14c
    1e54:	632f6563 			; <UNDEFINED> instruction: 0x632f6563
    1e58:	30343273 	eorscc	r3, r4, r3, ror r2
    1e5c:	6c2f786c 	stcvs	8, cr7, [pc], #-432	; 1cb4 <__code_start__-0x634c>
    1e60:	69706269 	ldmdbvs	r0!, {r0, r3, r5, r6, r9, sp, lr}^
    1e64:	636e692f 	cmnvs	lr, #770048	; 0xbc000
    1e68:	6564756c 	strbvs	r7, [r4, #-1388]!	; 0xfffffa94
    1e6c:	69740000 	ldmdbvs	r4!, {}^	; <UNPREDICTABLE>
    1e70:	2e72656d 	cdpcs	5, 7, cr6, cr2, cr13, {3}
    1e74:	00010063 	andeq	r0, r1, r3, rrx
    1e78:	69707200 	ldmdbvs	r0!, {r9, ip, sp, lr}^
    1e7c:	0200682e 	andeq	r6, r0, #3014656	; 0x2e0000
    1e80:	05000000 	streq	r0, [r0, #-0]
    1e84:	02050023 	andeq	r0, r5, #35, 0	; 0x23
    1e88:	00009c1c 	andeq	r9, r0, ip, lsl ip
    1e8c:	13050515 	movwne	r0, #21781	; 0x5515
    1e90:	01060c05 	tsteq	r6, r5, lsl #24
    1e94:	6a061f05 	bvs	189ab0 <__bss_end__+0x17e7e8>
    1e98:	05150505 	ldreq	r0, [r5, #-1285]	; 0xfffffafb
    1e9c:	050f061f 	streq	r0, [pc, #-1567]	; 1885 <__code_start__-0x677b>
    1ea0:	2f063105 	svccs	0x00063105
    1ea4:	77030a05 	strvc	r0, [r3, -r5, lsl #20]
    1ea8:	13050501 	movwne	r0, #21761	; 0x5501
    1eac:	01060c05 	tsteq	r6, r5, lsl #24
    1eb0:	06050566 	streq	r0, [r5], -r6, ror #10
    1eb4:	2f010903 	svccs	0x00010903
    1eb8:	13060105 	movwne	r0, #24837	; 0x6105
    1ebc:	68061c05 	stmdavs	r6, {r0, r2, sl, fp, ip}
    1ec0:	05130505 	ldreq	r0, [r3, #-1285]	; 0xfffffafb
    1ec4:	0176030a 	cmneq	r6, sl, lsl #6
    1ec8:	05150505 	ldreq	r0, [r5, #-1285]	; 0xfffffafb
    1ecc:	2e18061c 	mrccs	6, 0, r0, cr8, cr12, {0}
    1ed0:	7a030505 	bvc	c32ec <__bss_end__+0xb8024>
    1ed4:	052f062e 	streq	r0, [pc, #-1582]!	; 18ae <__code_start__-0x6752>
    1ed8:	0177030a 	cmneq	r7, sl, lsl #6
    1edc:	05130505 	ldreq	r0, [r3, #-1285]	; 0xfffffafb
    1ee0:	6601060c 	strvs	r0, [r1], -ip, lsl #12
    1ee4:	03060505 	movweq	r0, #25861	; 0x6505
    1ee8:	062f0109 	strteq	r0, [pc], -r9, lsl #2
    1eec:	030c0501 	movweq	r0, #50433	; 0xc501
    1ef0:	05050176 	streq	r0, [r5, #-374]	; 0xfffffe8a
    1ef4:	2e0f0306 	cdpcs	3, 0, cr0, cr15, cr6, {0}
    1ef8:	05130905 	ldreq	r0, [r3, #-2309]	; 0xfffff6fb
    1efc:	0174030a 	cmneq	r4, sl, lsl #6
    1f00:	2f150505 	svccs	0x00150505
    1f04:	77030a05 	strvc	r0, [r3, -r5, lsl #20]
    1f08:	13050501 	movwne	r0, #21761	; 0x5501
    1f0c:	01060c05 	tsteq	r6, r5, lsl #24
    1f10:	06050566 	streq	r0, [r5], -r6, ror #10
    1f14:	05010903 	streq	r0, [r1, #-2307]	; 0xfffff6fd
    1f18:	051a0611 	ldreq	r0, [sl, #-1553]	; 0xfffff9ef
    1f1c:	2e780305 	cdpcs	3, 7, cr0, cr8, cr5, {0}
    1f20:	09052f06 	stmdbeq	r5, {r1, r2, r8, r9, sl, fp, sp}
    1f24:	060c0519 			; <UNDEFINED> instruction: 0x060c0519
    1f28:	061c0501 	ldreq	r0, [ip], -r1, lsl #10
    1f2c:	13050587 	movwne	r0, #21895	; 0x5587
    1f30:	11061c05 	tstne	r6, r5, lsl #24
    1f34:	4a2f0505 	bmi	bc3350 <__bss_end__+0xbb8088>
    1f38:	03060605 	movweq	r0, #26117	; 0x6605
    1f3c:	05052e76 	streq	r2, [r5, #-3702]	; 0xfffff18a
    1f40:	030a0513 	movweq	r0, #42259	; 0xa513
    1f44:	05050176 	streq	r0, [r5, #-374]	; 0xfffffe8a
    1f48:	0a052f15 	beq	14dba4 <__bss_end__+0x1428dc>
    1f4c:	05017703 	streq	r7, [r1, #-1795]	; 0xfffff8fd
    1f50:	0c051305 	stceq	3, cr1, [r5], {5}
    1f54:	05660106 	strbeq	r0, [r6, #-262]!	; 0xfffffefa
    1f58:	09030605 	stmdbeq	r3, {r0, r2, r9, sl}
    1f5c:	01062f01 	tsteq	r6, r1, lsl #30
    1f60:	76030c05 	strvc	r0, [r3], -r5, lsl #24
    1f64:	06050501 	streq	r0, [r5], -r1, lsl #10
    1f68:	052e0f03 	streq	r0, [lr, #-3843]!	; 0xfffff0fd
    1f6c:	0a051309 	beq	146b98 <__bss_end__+0x13b8d0>
    1f70:	05017403 	streq	r7, [r1, #-1027]	; 0xfffffbfd
    1f74:	052f1505 	streq	r1, [pc, #-1285]!	; 1a77 <__code_start__-0x6589>
    1f78:	0177030a 	cmneq	r7, sl, lsl #6
    1f7c:	05130505 	ldreq	r0, [r3, #-1285]	; 0xfffffafb
    1f80:	6601060c 	strvs	r0, [r1], -ip, lsl #12
    1f84:	03060505 	movweq	r0, #25861	; 0x6505
    1f88:	11050109 	tstne	r5, r9, lsl #2
    1f8c:	05051a06 	streq	r1, [r5, #-2566]	; 0xfffff5fa
    1f90:	062e7803 	strteq	r7, [lr], -r3, lsl #16
    1f94:	1909052f 	stmdbne	r9, {r0, r1, r2, r3, r5, r8, sl}
    1f98:	01060c05 	tsteq	r6, r5, lsl #24
    1f9c:	8a061e05 	bhi	1897b8 <__bss_end__+0x17e4f0>
    1fa0:	05130505 	ldreq	r0, [r3, #-1285]	; 0xfffffafb
    1fa4:	05050e06 	streq	r0, [r5, #-3590]	; 0xfffff1fa
    1fa8:	061e0513 			; <UNDEFINED> instruction: 0x061e0513
    1fac:	2c050514 	cfstr32cs	mvfx0, [r5], {20}
    1fb0:	06060566 	streq	r0, [r6], -r6, ror #10
    1fb4:	052e7603 	streq	r7, [lr, #-1539]!	; 0xfffff9fd
    1fb8:	0a051305 	beq	146bd4 <__bss_end__+0x13b90c>
    1fbc:	05017603 	streq	r7, [r1, #-1539]	; 0xfffff9fd
    1fc0:	052f1505 	streq	r1, [pc, #-1285]!	; 1ac3 <__code_start__-0x653d>
    1fc4:	0177030a 	cmneq	r7, sl, lsl #6
    1fc8:	05130505 	ldreq	r0, [r3, #-1285]	; 0xfffffafb
    1fcc:	6601060c 	strvs	r0, [r1], -ip, lsl #12
    1fd0:	03060505 	movweq	r0, #25861	; 0x6505
    1fd4:	062f0109 	strteq	r0, [pc], -r9, lsl #2
    1fd8:	030c0501 	movweq	r0, #50433	; 0xc501
    1fdc:	05050176 	streq	r0, [r5, #-374]	; 0xfffffe8a
    1fe0:	2e0f0306 	cdpcs	3, 0, cr0, cr15, cr6, {0}
    1fe4:	05130905 	ldreq	r0, [r3, #-2309]	; 0xfffff6fb
    1fe8:	0174030a 	cmneq	r4, sl, lsl #6
    1fec:	2f150505 	svccs	0x00150505
    1ff0:	77030a05 	strvc	r0, [r3, -r5, lsl #20]
    1ff4:	13050501 	movwne	r0, #21761	; 0x5501
    1ff8:	01060c05 	tsteq	r6, r5, lsl #24
    1ffc:	06050566 	streq	r0, [r5], -r6, ror #10
    2000:	05010903 	streq	r0, [r1, #-2307]	; 0xfffff6fd
    2004:	051a0611 	ldreq	r0, [sl, #-1553]	; 0xfffff9ef
    2008:	2e780305 	cdpcs	3, 7, cr0, cr8, cr5, {0}
    200c:	09052f06 	stmdbeq	r5, {r1, r2, r8, r9, sl, fp, sp}
    2010:	060c0519 			; <UNDEFINED> instruction: 0x060c0519
    2014:	00080201 	andeq	r0, r8, r1, lsl #4
    2018:	02040101 	andeq	r0, r4, #1073741824	; 0x40000000
    201c:	00030000 	andeq	r0, r3, r0
    2020:	000000c8 	andeq	r0, r0, r8, asr #1
    2024:	0efb0102 	cdpeq	1, 15, cr0, cr11, cr2, {0}
    2028:	0101000d 	tsteq	r1, sp
    202c:	00000101 	andeq	r0, r0, r1, lsl #2
    2030:	00000100 	andeq	r0, r0, r0, lsl #2
    2034:	6f682f01 	svcvs	0x00682f01
    2038:	652f656d 	strvs	r6, [pc, #-1389]!	; 1ad3 <__code_start__-0x652d>
    203c:	656c676e 	strbvs	r6, [ip, #-1902]!	; 0xfffff892
    2040:	6c632f72 	stclvs	15, cr2, [r3], #-456	; 0xfffffe38
    2044:	2f737361 	svccs	0x00737361
    2048:	34317363 	ldrtcc	r7, [r1], #-867	; 0xfffffc9d
    204c:	322d6530 	eorcc	r6, sp, #48, 10	; 0xc000000
    2050:	6e697732 	mcrvs	7, 3, r7, cr9, cr2, {1}
    2054:	696c2f2f 	stmdbvs	ip!, {r0, r1, r2, r3, r5, r8, r9, sl, fp, sp}^
    2058:	2f697062 	svccs	0x00697062
    205c:	6c636e69 	stclvs	14, cr6, [r3], #-420	; 0xfffffe5c
    2060:	00656475 	rsbeq	r6, r5, r5, ror r4
    2064:	7273752f 	rsbsvc	r7, r3, #197132288	; 0xbc00000
    2068:	6168732f 	cmnvs	r8, pc, lsr #6
    206c:	672f6572 			; <UNDEFINED> instruction: 0x672f6572
    2070:	612d6363 			; <UNDEFINED> instruction: 0x612d6363
    2074:	6e2d6d72 	mcrvs	13, 1, r6, cr13, cr2, {3}
    2078:	2d656e6f 	stclcs	14, cr6, [r5, #-444]!	; 0xfffffe44
    207c:	69626165 	stmdbvs	r2!, {r0, r2, r5, r6, r8, sp, lr}^
    2080:	2e30312d 	rsfcssp	f3, f0, #5.0
    2084:	30322d33 	eorscc	r2, r2, r3, lsr sp
    2088:	312e3132 			; <UNDEFINED> instruction: 0x312e3132
    208c:	696c2f30 	stmdbvs	ip!, {r4, r5, r8, r9, sl, fp, sp}^
    2090:	63672f62 	cmnvs	r7, #392	; 0x188
    2094:	72612f63 	rsbvc	r2, r1, #396	; 0x18c
    2098:	6f6e2d6d 	svcvs	0x006e2d6d
    209c:	652d656e 	strvs	r6, [sp, #-1390]!	; 0xfffffa92
    20a0:	2f696261 	svccs	0x00696261
    20a4:	332e3031 			; <UNDEFINED> instruction: 0x332e3031
    20a8:	692f312e 	stmdbvs	pc!, {r1, r2, r3, r5, r8, ip, sp}	; <UNPREDICTABLE>
    20ac:	756c636e 	strbvc	r6, [ip, #-878]!	; 0xfffffc92
    20b0:	00006564 	andeq	r6, r0, r4, ror #10
    20b4:	74726175 	ldrbtvc	r6, [r2], #-373	; 0xfffffe8b
    20b8:	0000632e 	andeq	r6, r0, lr, lsr #6
    20bc:	61750000 	cmnvs	r5, r0
    20c0:	682e7472 	stmdavs	lr!, {r1, r4, r5, r6, sl, ip, sp, lr}
    20c4:	00000100 	andeq	r0, r0, r0, lsl #2
    20c8:	2e697072 	mcrcs	0, 3, r7, cr9, cr2, {3}
    20cc:	00010068 	andeq	r0, r1, r8, rrx
    20d0:	69706700 	ldmdbvs	r0!, {r8, r9, sl, sp, lr}^
    20d4:	00682e6f 	rsbeq	r2, r8, pc, ror #28
    20d8:	73000001 	movwvc	r0, #1
    20dc:	6e696474 	mcrvs	4, 3, r6, cr9, cr4, {3}
    20e0:	63672d74 	cmnvs	r7, #116, 26	; 0x1d00
    20e4:	00682e63 	rsbeq	r2, r8, r3, ror #28
    20e8:	00000002 	andeq	r0, r0, r2
    20ec:	05003905 	streq	r3, [r0, #-2309]	; 0xfffff6fb
    20f0:	009d3802 	addseq	r3, sp, r2, lsl #16
    20f4:	01300300 	teqeq	r0, r0, lsl #6
    20f8:	05050106 	streq	r0, [r5, #-262]	; 0xfffffefa
    20fc:	11056706 	tstne	r5, r6, lsl #14
    2100:	05050106 	streq	r0, [r5, #-262]	; 0xfffffefa
    2104:	6701052e 	strvs	r0, [r1, -lr, lsr #10]
    2108:	29063805 	stmdbcs	r6, {r0, r2, fp, ip, sp}
    210c:	05050106 	streq	r0, [r5, #-262]	; 0xfffffefa
    2110:	11056706 	tstne	r5, r6, lsl #14
    2114:	05050106 	streq	r0, [r5, #-262]	; 0xfffffefa
    2118:	6701052e 	strvs	r0, [r1, -lr, lsr #10]
    211c:	03061605 	movweq	r1, #26117	; 0x6605
    2120:	05052e15 	streq	r2, [r5, #-3605]	; 0xfffff1eb
    2124:	35686735 	strbcc	r6, [r8, #-1845]!	; 0xfffff8cb
    2128:	2e0c0368 	cdpcs	3, 0, cr0, cr12, cr8, {3}
    212c:	69696b85 	stmdbvs	r9!, {r0, r2, r7, r8, r9, fp, sp, lr}^
    2130:	13660c03 	cmnne	r6, #768	; 0x300
    2134:	0105676b 	tsteq	r5, fp, ror #14
    2138:	19052f06 	stmdbne	r5, {r1, r2, r8, r9, sl, fp, sp}
    213c:	05250806 	streq	r0, [r5, #-2054]!	; 0xfffff7fa
    2140:	0d053405 	cfstrseq	mvf3, [r5, #-20]	; 0xffffffec
    2144:	01050106 	tsteq	r5, r6, lsl #2
    2148:	0619054c 	ldreq	r0, [r9], -ip, asr #10
    214c:	36050567 	strcc	r0, [r5], -r7, ror #10
    2150:	01060d05 	tsteq	r6, r5, lsl #26
    2154:	054a2805 	strbeq	r2, [sl, #-2053]	; 0xfffff7fb
    2158:	15053001 	strne	r3, [r5, #-1]
    215c:	05058706 	streq	r8, [r5, #-1798]	; 0xfffff8fa
    2160:	09052f2f 	stmdbeq	r5, {r0, r1, r2, r3, r5, r8, r9, sl, fp, sp}
    2164:	01040200 	mrseq	r0, R12_usr
    2168:	000a0513 	andeq	r0, sl, r3, lsl r5
    216c:	11010402 	tstne	r1, r2, lsl #8
    2170:	02000c05 	andeq	r0, r0, #1280	; 0x500
    2174:	01060104 	tsteq	r6, r4, lsl #2
    2178:	02000a05 	andeq	r0, r0, #20480	; 0x5000
    217c:	052e0104 	streq	r0, [lr, #-260]!	; 0xfffffefc
    2180:	054c0605 	strbeq	r0, [ip, #-1541]	; 0xfffff9fb
    2184:	0501060e 	streq	r0, [r1, #-1550]	; 0xfffff9f2
    2188:	05054a09 	streq	r4, [r5, #-2569]	; 0xfffff5f7
    218c:	052f2f06 	streq	r2, [pc, #-3846]!	; 128e <__code_start__-0x6d72>
    2190:	05130601 	ldreq	r0, [r3, #-1537]	; 0xfffff9ff
    2194:	0667061c 			; <UNDEFINED> instruction: 0x0667061c
    2198:	06050501 	streq	r0, [r5], -r1, lsl #10
    219c:	09052f4b 	stmdbeq	r5, {r0, r1, r3, r6, r8, r9, sl, fp, sp}
    21a0:	01040200 	mrseq	r0, R12_usr
    21a4:	000a0513 	andeq	r0, sl, r3, lsl r5
    21a8:	11010402 	tstne	r1, r2, lsl #8
    21ac:	02000c05 	andeq	r0, r0, #1280	; 0x500
    21b0:	01060104 	tsteq	r6, r4, lsl #2
    21b4:	02000a05 	andeq	r0, r0, #20480	; 0x5000
    21b8:	052e0104 	streq	r0, [lr, #-260]!	; 0xfffffefc
    21bc:	674c0605 	strbvs	r0, [ip, -r5, lsl #12]
    21c0:	2f060105 	svccs	0x00060105
    21c4:	4c061905 			; <UNDEFINED> instruction: 0x4c061905
    21c8:	052e1b05 	streq	r1, [lr, #-2821]!	; 0xfffff4fb
    21cc:	31052e2a 	tstcc	r5, sl, lsr #28
    21d0:	42050106 	andmi	r0, r5, #-2147483647	; 0x80000001
    21d4:	061c052e 	ldreq	r0, [ip], -lr, lsr #10
    21d8:	2f050531 	svccs	0x00050531
    21dc:	052e0903 	streq	r0, [lr, #-2307]!	; 0xfffff6fd
    21e0:	0501060e 	streq	r0, [r1, #-1550]	; 0xfffff9f2
    21e4:	01054a21 	tsteq	r5, r1, lsr #20
    21e8:	052e0a03 	streq	r0, [lr, #-2563]!	; 0xfffff5fd
    21ec:	0568061a 	strbeq	r0, [r8, #-1562]!	; 0xfffff9e6
    21f0:	04020009 	streq	r0, [r2], #-9
    21f4:	0a053001 	beq	14e200 <__bss_end__+0x142f38>
    21f8:	01040200 	mrseq	r0, R12_usr
    21fc:	000c0511 	andeq	r0, ip, r1, lsl r5
    2200:	06010402 	streq	r0, [r1], -r2, lsl #8
    2204:	000a0501 	andeq	r0, sl, r1, lsl #10
    2208:	2e010402 	cdpcs	4, 0, cr0, cr1, cr2, {0}
    220c:	03061905 	movweq	r1, #26885	; 0x6905
    2210:	05667ee8 	strbeq	r7, [r6, #-3816]!	; 0xfffff118
    2214:	2f2f2f05 	svccs	0x002f2f05
    2218:	06010567 	streq	r0, [r1], -r7, ror #10
    221c:	0004022f 	andeq	r0, r4, pc, lsr #4
    2220:	03920101 	orrseq	r0, r2, #1073741824	; 0x40000000
    2224:	00030000 	andeq	r0, r3, r0
    2228:	000000b7 	strheq	r0, [r0], -r7
    222c:	0efb0102 	cdpeq	1, 15, cr0, cr11, cr2, {0}
    2230:	0101000d 	tsteq	r1, sp
    2234:	00000101 	andeq	r0, r0, r1, lsl #2
    2238:	00000100 	andeq	r0, r0, r0, lsl #2
    223c:	6f682f01 	svcvs	0x00682f01
    2240:	652f656d 	strvs	r6, [pc, #-1389]!	; 1cdb <__code_start__-0x6325>
    2244:	656c676e 	strbvs	r6, [ip, #-1902]!	; 0xfffff892
    2248:	6c632f72 	stclvs	15, cr2, [r3], #-456	; 0xfffffe38
    224c:	2f737361 	svccs	0x00737361
    2250:	34317363 	ldrtcc	r7, [r1], #-867	; 0xfffffc9d
    2254:	322d6530 	eorcc	r6, sp, #48, 10	; 0xc000000
    2258:	6e697732 	mcrvs	7, 3, r7, cr9, cr2, {1}
    225c:	696c2f2f 	stmdbvs	ip!, {r0, r1, r2, r3, r5, r8, r9, sl, fp, sp}^
    2260:	2f697062 	svccs	0x00697062
    2264:	6c636e69 	stclvs	14, cr6, [r3], #-420	; 0xfffffe5c
    2268:	00656475 	rsbeq	r6, r5, r5, ror r4
    226c:	7273752f 	rsbsvc	r7, r3, #197132288	; 0xbc00000
    2270:	6168732f 	cmnvs	r8, pc, lsr #6
    2274:	672f6572 			; <UNDEFINED> instruction: 0x672f6572
    2278:	612d6363 			; <UNDEFINED> instruction: 0x612d6363
    227c:	6e2d6d72 	mcrvs	13, 1, r6, cr13, cr2, {3}
    2280:	2d656e6f 	stclcs	14, cr6, [r5, #-444]!	; 0xfffffe44
    2284:	69626165 	stmdbvs	r2!, {r0, r2, r5, r6, r8, sp, lr}^
    2288:	2e30312d 	rsfcssp	f3, f0, #5.0
    228c:	30322d33 	eorscc	r2, r2, r3, lsr sp
    2290:	312e3132 			; <UNDEFINED> instruction: 0x312e3132
    2294:	696c2f30 	stmdbvs	ip!, {r4, r5, r8, r9, sl, fp, sp}^
    2298:	63672f62 	cmnvs	r7, #392	; 0x188
    229c:	72612f63 	rsbvc	r2, r1, #396	; 0x18c
    22a0:	6f6e2d6d 	svcvs	0x006e2d6d
    22a4:	652d656e 	strvs	r6, [sp, #-1390]!	; 0xfffffa92
    22a8:	2f696261 	svccs	0x00696261
    22ac:	332e3031 			; <UNDEFINED> instruction: 0x332e3031
    22b0:	692f312e 	stmdbvs	pc!, {r1, r2, r3, r5, r8, ip, sp}	; <UNPREDICTABLE>
    22b4:	756c636e 	strbvc	r6, [ip, #-878]!	; 0xfffffc92
    22b8:	00006564 	andeq	r6, r0, r4, ror #10
    22bc:	6c616d6b 	stclvs	13, cr6, [r1], #-428	; 0xfffffe54
    22c0:	2e636f6c 	cdpcs	15, 6, cr6, cr3, cr12, {3}
    22c4:	00000063 	andeq	r0, r0, r3, rrx
    22c8:	69707200 	ldmdbvs	r0!, {r9, ip, sp, lr}^
    22cc:	0100682e 	tsteq	r0, lr, lsr #16
    22d0:	74730000 	ldrbtvc	r0, [r3], #-0
    22d4:	746e6964 	strbtvc	r6, [lr], #-2404	; 0xfffff69c
    22d8:	6363672d 	cmnvs	r3, #11796480	; 0xb40000
    22dc:	0200682e 	andeq	r6, r0, #3014656	; 0x2e0000
    22e0:	05000000 	streq	r0, [r0, #-0]
    22e4:	0205001e 	andeq	r0, r5, #30, 0
    22e8:	00009f28 	andeq	r9, r0, r8, lsr #30
    22ec:	05012703 	streq	r2, [r1, #-1795]	; 0xfffff8fd
    22f0:	2d050120 	stfcss	f0, [r5, #-128]	; 0xffffff80
    22f4:	20050106 	andcs	r0, r5, r6, lsl #2
    22f8:	22058306 	andcs	r8, r5, #402653184	; 0x18000000
    22fc:	06350501 	ldrteq	r0, [r5], -r1, lsl #10
    2300:	061e0501 	ldreq	r0, [lr], -r1, lsl #10
    2304:	01200583 	smlawbeq	r0, r3, r5, r0
    2308:	01062d05 	tsteq	r6, r5, lsl #26
    230c:	85064205 	strhi	r4, [r6, #-517]	; 0xfffffdfb
    2310:	05050106 	streq	r0, [r5, #-262]	; 0xfffffefa
    2314:	01144b06 	tsteq	r4, r6, lsl #22
    2318:	02002e06 	andeq	r2, r0, #96	; 0x60
    231c:	2e060204 	cdpcs	2, 0, cr0, cr6, cr4, {0}
    2320:	02040200 	andeq	r0, r4, #0, 4
    2324:	04020001 	streq	r0, [r2], #-1
    2328:	0d051502 	cfstr32eq	mvfx1, [r5, #-8]
    232c:	02040200 	andeq	r0, r4, #0, 4
    2330:	07050106 	streq	r0, [r5, -r6, lsl #2]
    2334:	02040200 	andeq	r0, r4, #0, 4
    2338:	0609054a 	streq	r0, [r9], -sl, asr #10
    233c:	1505054b 	strne	r0, [r5, #-1355]	; 0xfffffab5
    2340:	01061705 	tsteq	r6, r5, lsl #14
    2344:	054a1005 	strbeq	r1, [sl, #-5]
    2348:	052f0605 	streq	r0, [pc, #-1541]!	; 1d4b <__code_start__-0x62b5>
    234c:	0501061b 	streq	r0, [r1, #-1563]	; 0xfffff9e5
    2350:	01052e0e 	tsteq	r5, lr, lsl #28
    2354:	0005052f 	andeq	r0, r5, pc, lsr #10
    2358:	06010402 	streq	r0, [r1], -r2, lsl #8
    235c:	004a7703 	subeq	r7, sl, r3, lsl #14
    2360:	01010402 	tsteq	r1, r2, lsl #8
    2364:	01040200 	mrseq	r0, R12_usr
    2368:	02009e06 	andeq	r9, r0, #96	; 0x60
    236c:	002e0104 	eoreq	r0, lr, r4, lsl #2
    2370:	06010402 	streq	r0, [r1], -r2, lsl #8
    2374:	3209052e 	andcc	r0, r9, #192937984	; 0xb800000
    2378:	2ed60601 	cdpcs	6, 13, cr0, cr6, cr1, {0}
    237c:	19052e06 	stmdbne	r5, {r1, r2, r9, sl, fp, sp}
    2380:	2f0505de 	svccs	0x000505de
    2384:	06080514 			; <UNDEFINED> instruction: 0x06080514
    2388:	4a070501 	bmi	1c3794 <__bss_end__+0x1b84cc>
    238c:	4b060905 	blmi	1847a8 <__bss_end__+0x1794e0>
    2390:	05130505 	ldreq	r0, [r3, #-1285]	; 0xfffffafb
    2394:	0501060c 	streq	r0, [r1, #-1548]	; 0xfffff9f4
    2398:	13670605 	cmnne	r7, #5242880	; 0x500000
    239c:	67060105 	strvs	r0, [r6, -r5, lsl #2]
    23a0:	2a060905 	bcs	1847bc <__bss_end__+0x1794f4>
    23a4:	28059e01 	stmdacs	r5, {r0, r9, sl, fp, ip, pc}
    23a8:	050106a5 	streq	r0, [r1, #-1701]	; 0xfffff95b
    23ac:	014b0605 	cmpeq	fp, r5, lsl #12
    23b0:	2e062e06 	cdpcs	14, 0, cr2, cr6, cr6, {0}
    23b4:	18051301 	stmdane	r5, {r0, r8, r9, ip}
    23b8:	05014703 	streq	r4, [r1, #-1795]	; 0xfffff8fd
    23bc:	06011305 	streq	r1, [r1], -r5, lsl #6
    23c0:	150f0601 	strne	r0, [pc, #-1537]	; 1dc7 <__code_start__-0x6239>
    23c4:	0e051301 	cdpeq	3, 0, cr1, cr5, cr1, {0}
    23c8:	16050106 	strne	r0, [r5], -r6, lsl #2
    23cc:	05052e2e 	streq	r2, [r5, #-3630]	; 0xfffff1d2
    23d0:	01390306 	teqeq	r9, r6, lsl #6
    23d4:	01060b05 	tsteq	r6, r5, lsl #22
    23d8:	4b060505 	blmi	1837f4 <__bss_end__+0x17852c>
    23dc:	01060a05 	tsteq	r6, r5, lsl #20
    23e0:	4b060505 	blmi	1837fc <__bss_end__+0x178534>
    23e4:	01060d05 	tsteq	r6, r5, lsl #26
    23e8:	052e0705 	streq	r0, [lr, #-1797]!	; 0xfffff8fb
    23ec:	05054d01 	streq	r4, [r5, #-3329]	; 0xfffff2ff
    23f0:	01040200 	mrseq	r0, R12_usr
    23f4:	4a780306 	bmi	1e03014 <__bss_end__+0x1df7d4c>
    23f8:	01040200 	mrseq	r0, R12_usr
    23fc:	04020001 	streq	r0, [r2], #-1
    2400:	00ba0601 	adcseq	r0, sl, r1, lsl #12
    2404:	06010402 	streq	r0, [r1], -r2, lsl #8
    2408:	3409052e 	strcc	r0, [r9], #-1326	; 0xfffffad2
    240c:	66820601 	strvs	r0, [r2], r1, lsl #12
    2410:	20052e06 	andcs	r2, r5, r6, lsl #28
    2414:	050106db 	streq	r0, [r1, #-1755]	; 0xfffff925
    2418:	014b0605 	cmpeq	fp, r5, lsl #12
    241c:	02040200 	andeq	r0, r4, #0, 4
    2420:	0402004a 	streq	r0, [r2], #-74	; 0xffffffb6
    2424:	02000102 	andeq	r0, r0, #-2147483648	; 0x80000000
    2428:	05130204 	ldreq	r0, [r3, #-516]	; 0xfffffdfc
    242c:	04020012 	streq	r0, [r2], #-18	; 0xffffffee
    2430:	00010602 	andeq	r0, r1, r2, lsl #12
    2434:	2e020402 	cdpcs	4, 0, cr0, cr2, cr2, {0}
    2438:	02040200 	andeq	r0, r4, #0, 4
    243c:	0005052e 	andeq	r0, r5, lr, lsr #10
    2440:	06020402 	streq	r0, [r2], -r2, lsl #8
    2444:	0402002f 	streq	r0, [r2], #-47	; 0xffffffd1
    2448:	01056702 	tsteq	r5, r2, lsl #14
    244c:	02040200 	andeq	r0, r4, #0, 4
    2450:	05051306 	streq	r1, [r5, #-774]	; 0xfffffcfa
    2454:	01040200 	mrseq	r0, R12_usr
    2458:	02006206 	andeq	r6, r0, #1610612736	; 0x60000000
    245c:	00010104 	andeq	r0, r1, r4, lsl #2
    2460:	06010402 	streq	r0, [r1], -r2, lsl #8
    2464:	040200ba 	streq	r0, [r2], #-186	; 0xffffff46
    2468:	052e0601 	streq	r0, [lr, #-1537]!	; 0xfffff9ff
    246c:	9e0a033c 	mcrls	3, 0, r0, cr10, cr12, {1}
    2470:	05050106 	streq	r0, [r5, #-262]	; 0xfffffefa
    2474:	06014b06 	streq	r4, [r1], -r6, lsl #22
    2478:	012e062e 			; <UNDEFINED> instruction: 0x012e062e
    247c:	18050113 	stmdane	r5, {r0, r1, r4, r8}
    2480:	017fad03 	cmneq	pc, r3, lsl #26
    2484:	05130505 	ldreq	r0, [r3, #-1285]	; 0xfffffafb
    2488:	2e010611 	mcrcs	6, 0, r0, cr1, cr1, {0}
    248c:	d2030505 	andle	r0, r3, #20971520	; 0x1400000
    2490:	4a060100 	bmi	182898 <__bss_end__+0x1775d0>
    2494:	03180513 	tsteq	r8, #79691776	; 0x4c00000
    2498:	05017fa3 	streq	r7, [r1, #-4003]	; 0xfffff05d
    249c:	16051305 	strne	r1, [r5], -r5, lsl #6
    24a0:	054a0106 	strbeq	r0, [sl, #-262]	; 0xfffffefa
    24a4:	e1030605 	tst	r3, r5, lsl #12
    24a8:	12050100 	andne	r0, r5, #0
    24ac:	05050106 	streq	r0, [r5, #-262]	; 0xfffffefa
    24b0:	18054b06 	stmdane	r5, {r1, r2, r8, r9, fp, lr}
    24b4:	017fa903 	cmneq	pc, r3, lsl #18
    24b8:	01130505 	tsteq	r3, r5, lsl #10
    24bc:	050e1805 	streq	r1, [lr, #-2053]	; 0xfffff7fb
    24c0:	11051305 	tstne	r5, r5, lsl #6
    24c4:	052e0106 	streq	r0, [lr, #-262]!	; 0xfffffefa
    24c8:	4a061505 	bmi	1878e4 <__bss_end__+0x17c61c>
    24cc:	0e051301 	cdpeq	3, 0, cr1, cr5, cr1, {0}
    24d0:	052e0106 	streq	r0, [lr, #-262]!	; 0xfffffefa
    24d4:	052e2e16 	streq	r2, [lr, #-3606]!	; 0xfffff1ea
    24d8:	d6030605 	strle	r0, [r3], -r5, lsl #12
    24dc:	05010100 	streq	r0, [r1, #-256]	; 0xffffff00
    24e0:	7f9f0318 	svcvc	0x009f0318
    24e4:	13050501 	movwne	r0, #21761	; 0x5501
    24e8:	01061905 	tsteq	r6, r5, lsl #18
    24ec:	0305052e 	movweq	r0, #21806	; 0x552e
    24f0:	000100e0 	andeq	r0, r1, r0, ror #1
    24f4:	06020402 	streq	r0, [r2], -r2, lsl #8
    24f8:	0402004a 	streq	r0, [r2], #-74	; 0xffffffb6
    24fc:	0a051402 	beq	14750c <__bss_end__+0x13c244>
    2500:	02040200 	andeq	r0, r4, #0, 4
    2504:	05050106 	streq	r0, [r5, #-262]	; 0xfffffefa
    2508:	02040200 	andeq	r0, r4, #0, 4
    250c:	0c054b06 			; <UNDEFINED> instruction: 0x0c054b06
    2510:	02040200 	andeq	r0, r4, #0, 4
    2514:	01050106 	tsteq	r5, r6, lsl #2
    2518:	02040200 	andeq	r0, r4, #0, 4
    251c:	0005052f 	andeq	r0, r5, pc, lsr #10
    2520:	06010402 	streq	r0, [r1], -r2, lsl #8
    2524:	004a7303 	subeq	r7, sl, r3, lsl #6
    2528:	01010402 	tsteq	r1, r2, lsl #8
    252c:	01040200 	mrseq	r0, R12_usr
    2530:	02009e06 	andeq	r9, r0, #96	; 0x60
    2534:	002e0104 	eoreq	r0, lr, r4, lsl #2
    2538:	06010402 	streq	r0, [r1], -r2, lsl #8
    253c:	0402002e 	streq	r0, [r2], #-46	; 0xffffffd2
    2540:	02002f01 	andeq	r2, r0, #1, 30
    2544:	002e0104 	eoreq	r0, lr, r4, lsl #2
    2548:	d6010402 	strle	r0, [r1], -r2, lsl #8
    254c:	2e7fb103 	expcse	f3, f3
    2550:	2e820601 	cdpcs	6, 8, cr0, cr2, cr1, {0}
    2554:	062e062e 	strteq	r0, [lr], -lr, lsr #12
    2558:	0402002e 	streq	r0, [r2], #-46	; 0xffffffd2
    255c:	d7030601 	strle	r0, [r3, -r1, lsl #12]
    2560:	02000100 	andeq	r0, r0, #0
    2564:	002e0104 	eoreq	r0, lr, r4, lsl #2
    2568:	d6010402 	strle	r0, [r1], -r2, lsl #8
    256c:	7b081505 	blvc	207988 <__bss_end__+0x1fc6c0>
    2570:	05011705 	streq	r1, [r1, #-1797]	; 0xfffff8fb
    2574:	18053116 	stmdane	r5, {r1, r2, r4, r8, ip, sp}
    2578:	061d0501 	ldreq	r0, [sp], -r1, lsl #10
    257c:	662b0501 	strtvs	r0, [fp], -r1, lsl #10
    2580:	4d061905 	vstrmi.16	s2, [r6, #-10]	; <UNPREDICTABLE>
    2584:	05130505 	ldreq	r0, [r3, #-1285]	; 0xfffffafb
    2588:	0501060c 	streq	r0, [r1, #-1548]	; 0xfffff9f4
    258c:	25054a07 	strcs	r4, [r5, #-2567]	; 0xfffff5f9
    2590:	01040200 	mrseq	r0, R12_usr
    2594:	001e054a 	andseq	r0, lr, sl, asr #10
    2598:	4a010402 	bmi	435a8 <__bss_end__+0x382e0>
    259c:	4b060905 	blmi	1849b8 <__bss_end__+0x1796f0>
    25a0:	05130505 	ldreq	r0, [r3, #-1285]	; 0xfffffafb
    25a4:	0501060a 	streq	r0, [r1, #-1546]	; 0xfffff9f6
    25a8:	09056319 	stmdbeq	r5, {r0, r3, r4, r8, r9, sp, lr}
    25ac:	06014c06 	streq	r4, [r1], -r6, lsl #24
    25b0:	022e069e 	eoreq	r0, lr, #165675008	; 0x9e00000
    25b4:	0101000a 	tsteq	r1, sl
    25b8:	00000289 	andeq	r0, r0, r9, lsl #5
    25bc:	00c90003 	sbceq	r0, r9, r3
    25c0:	01020000 	mrseq	r0, (UNDEF: 2)
    25c4:	000d0efb 	strdeq	r0, [sp], -fp
    25c8:	01010101 	tsteq	r1, r1, lsl #2
    25cc:	01000000 	mrseq	r0, (UNDEF: 0)
    25d0:	2e010000 	cdpcs	0, 0, cr0, cr1, cr0, {0}
    25d4:	6372732f 	cmnvs	r2, #-1140850688	; 0xbc000000
    25d8:	73552f00 	cmpvc	r5, #0, 30
    25dc:	2f737265 	svccs	0x00737265
    25e0:	656c696d 	strbvs	r6, [ip, #-2413]!	; 0xfffff693
    25e4:	6f532f73 	svcvs	0x00532f73
    25e8:	65637275 	strbvs	r7, [r3, #-629]!	; 0xfffffd8b
    25ec:	3273632f 	rsbscc	r6, r3, #-1140850688	; 0xbc000000
    25f0:	786c3034 	stmdavc	ip!, {r2, r4, r5, ip, sp}^
    25f4:	62696c2f 	rsbvs	r6, r9, #12032	; 0x2f00
    25f8:	692f6970 	stmdbvs	pc!, {r4, r5, r6, r8, fp, sp, lr}	; <UNPREDICTABLE>
    25fc:	756c636e 	strbvc	r6, [ip, #-878]!	; 0xfffffc92
    2600:	2f006564 	svccs	0x00006564
    2604:	2f74706f 	svccs	0x0074706f
    2608:	656d6f68 	strbvs	r6, [sp, #-3944]!	; 0xfffff098
    260c:	77657262 	strbvc	r7, [r5, -r2, ror #4]!
    2610:	6c65432f 	stclvs	3, cr4, [r5], #-188	; 0xffffff44
    2614:	2f72616c 	svccs	0x0072616c
    2618:	2d6d7261 	sfmcs	f7, 2, [sp, #-388]!	; 0xfffffe7c
    261c:	656e6f6e 	strbvs	r6, [lr, #-3950]!	; 0xfffff092
    2620:	6261652d 	rsbvs	r6, r1, #188743680	; 0xb400000
    2624:	2f392d69 	svccs	0x00392d69
    2628:	30322d39 	eorscc	r2, r2, r9, lsr sp
    262c:	34713931 	ldrbtcc	r3, [r1], #-2353	; 0xfffff6cf
    2630:	3173632d 	cmncc	r3, sp, lsr #6
    2634:	2f653730 	svccs	0x00653730
    2638:	2f62696c 	svccs	0x0062696c
    263c:	2f636367 	svccs	0x00636367
    2640:	2d6d7261 	sfmcs	f7, 2, [sp, #-388]!	; 0xfffffe7c
    2644:	656e6f6e 	strbvs	r6, [lr, #-3950]!	; 0xfffff092
    2648:	6261652d 	rsbvs	r6, r1, #188743680	; 0xb400000
    264c:	2e392f69 	cdpcs	15, 3, cr2, cr9, cr9, {3}
    2650:	2f312e32 	svccs	0x00312e32
    2654:	6c636e69 	stclvs	14, cr6, [r3], #-420	; 0xfffffe5c
    2658:	00656475 	rsbeq	r6, r5, r5, ror r4
    265c:	69706700 	ldmdbvs	r0!, {r8, r9, sl, sp, lr}^
    2660:	00632e6f 	rsbeq	r2, r3, pc, ror #28
    2664:	72000001 	andvc	r0, r0, #1, 0
    2668:	682e6970 	stmdavs	lr!, {r4, r5, r6, r8, fp, sp, lr}
    266c:	00000200 	andeq	r0, r0, r0, lsl #4
    2670:	69647473 	stmdbvs	r4!, {r0, r1, r4, r5, r6, sl, ip, sp, lr}^
    2674:	672d746e 	strvs	r7, [sp, -lr, ror #8]!
    2678:	682e6363 	stmdavs	lr!, {r0, r1, r5, r6, r8, r9, sp, lr}
    267c:	00000300 	andeq	r0, r0, r0, lsl #6
    2680:	6f697067 	svcvs	0x00697067
    2684:	0200682e 	andeq	r6, r0, #3014656	; 0x2e0000
    2688:	05000000 	streq	r0, [r0, #-0]
    268c:	02050038 	andeq	r0, r5, #56, 0	; 0x38
    2690:	0000a2d8 	ldrdeq	sl, [r0], -r8
    2694:	05012703 	streq	r2, [r1, #-1795]	; 0xfffff8fd
    2698:	07051305 	streq	r1, [r5, -r5, lsl #6]
    269c:	06050106 	streq	r0, [r5], -r6, lsl #2
    26a0:	05054906 	streq	r4, [r5, #-2310]	; 0xfffff6fa
    26a4:	06070515 			; <UNDEFINED> instruction: 0x06070515
    26a8:	2b380501 	blcs	e03ab4 <__bss_end__+0xdf87ec>
    26ac:	054d0705 	strbeq	r0, [sp, #-1797]	; 0xfffff8fb
    26b0:	05300605 	ldreq	r0, [r0, #-1541]!	; 0xfffff9fb
    26b4:	05010618 	streq	r0, [r1, #-1560]	; 0xfffff9e8
    26b8:	0e05671c 	mcreq	7, 0, r6, cr5, cr12, {0}
    26bc:	2d18054a 	cfldr32cs	mvfx0, [r8, #-296]	; 0xfffffed8
    26c0:	2e4d1205 	cdpcs	2, 4, cr1, cr13, cr5, {0}
    26c4:	2a0e052f 	bcs	383b88 <__bss_end__+0x3788c0>
    26c8:	2f060505 	svccs	0x00060505
    26cc:	07051314 	smladeq	r5, r4, r3, r1
    26d0:	05050106 	streq	r0, [r5, #-262]	; 0xfffffefa
    26d4:	06132f06 	ldreq	r2, [r3], -r6, lsl #30
    26d8:	01052e2e 	tsteq	r5, lr, lsr #28
    26dc:	2d050513 	cfstr32cs	mvfx0, [r5, #-76]	; 0xffffffb4
    26e0:	0624052e 	strteq	r0, [r4], -lr, lsr #10
    26e4:	38020500 	stmdacc	r2, {r8, sl}
    26e8:	150000a3 	strne	r0, [r0, #-163]	; 0xffffff5d
    26ec:	05130505 	ldreq	r0, [r3, #-1285]	; 0xfffffafb
    26f0:	01710306 	cmneq	r1, r6, lsl #6
    26f4:	05130505 	ldreq	r0, [r3, #-1285]	; 0xfffffafb
    26f8:	05010607 	streq	r0, [r1, #-1543]	; 0xfffff9f9
    26fc:	05490606 	strbeq	r0, [r9, #-1542]	; 0xfffff9fa
    2700:	05141505 	ldreq	r1, [r4, #-1285]	; 0xfffffafb
    2704:	09030624 	stmdbeq	r3, {r2, r5, r9, sl}
    2708:	03180501 	tsteq	r8, #4194304	; 0x400000
    270c:	1c052e77 	stcne	14, cr2, [r5], {119}	; 0x77
    2710:	4a0e0567 	bmi	383cb4 <__bss_end__+0x3789ec>
    2714:	052d1805 	streq	r1, [sp, #-2053]!	; 0xfffff7fb
    2718:	2f2e4d12 	svccs	0x002e4d12
    271c:	052f0f05 	streq	r0, [pc, #-3845]!	; 181f <__code_start__-0x67e1>
    2720:	0505290e 	streq	r2, [r5, #-2318]	; 0xfffff6f2
    2724:	13142f06 	tstne	r4, #6, 30
    2728:	01060705 	tsteq	r6, r5, lsl #14
    272c:	2f060505 	svccs	0x00060505
    2730:	052e0613 	streq	r0, [lr, #-1555]!	; 0xfffff9ed
    2734:	05053301 	streq	r3, [r5, #-769]	; 0xfffffcff
    2738:	27052e29 	strcs	r2, [r5, -r9, lsr #28]
    273c:	02050006 	andeq	r0, r5, #6, 0
    2740:	0000a390 	muleq	r0, r0, r3
    2744:	1305051a 	movwne	r0, #21786	; 0x551a
    2748:	11062705 	tstne	r6, r5, lsl #14
    274c:	052f1805 	streq	r1, [pc, #-2053]!	; 1f4f <__code_start__-0x60b1>
    2750:	4a2e2e05 	bmi	b8df6c <__bss_end__+0xb82ca4>
    2754:	00062805 	andeq	r2, r6, r5, lsl #16
    2758:	a3a80205 			; <UNDEFINED> instruction: 0xa3a80205
    275c:	05160000 	ldreq	r0, [r6, #-0]
    2760:	28051305 	stmdacs	r5, {r0, r2, r8, r9, ip}
    2764:	18051106 	stmdane	r5, {r1, r2, r8, ip}
    2768:	2e05052f 	cfsh32cs	mvfx0, mvfx5, #31
    276c:	23054a2e 	movwcs	r4, #23086	; 0x5a2e
    2770:	02050006 	andeq	r0, r5, #6, 0
    2774:	0000a3c0 	andeq	sl, r0, r0, asr #7
    2778:	13050516 	movwne	r0, #21782	; 0x5516
    277c:	62030605 	andvs	r0, r3, #5242880	; 0x500000
    2780:	13050501 	movwne	r0, #21761	; 0x5501
    2784:	01060705 	tsteq	r6, r5, lsl #14
    2788:	49060605 	stmdbmi	r6, {r0, r2, r9, sl}
    278c:	14150505 	ldrne	r0, [r5], #-1285	; 0xfffffafb
    2790:	06230513 			; <UNDEFINED> instruction: 0x06230513
    2794:	05011703 	streq	r1, [r1, #-1795]	; 0xfffff8fd
    2798:	2e690322 	cdpcs	3, 6, cr0, cr9, cr2, {1}
    279c:	2e821c05 	cdpcs	12, 8, cr1, cr2, cr5, {0}
    27a0:	052e0e05 	streq	r0, [lr, #-3589]!	; 0xfffff1fb
    27a4:	05300605 	ldreq	r0, [r0, #-1541]!	; 0xfffff9fb
    27a8:	4b010612 	blmi	43ff8 <__bss_end__+0x38d30>
    27ac:	0605052d 	streq	r0, [r5], -sp, lsr #10
    27b0:	0513132f 	ldreq	r1, [r3, #-815]	; 0xfffffcd1
    27b4:	7a030618 	bvc	c401c <__bss_end__+0xb8d54>
    27b8:	4a0e0501 	bmi	383bc4 <__bss_end__+0x3788fc>
    27bc:	2e340505 	cdpcs	5, 3, cr0, cr4, cr5, {0}
    27c0:	14030105 	strne	r0, [r3], #-261	; 0xfffffefb
    27c4:	0305052e 	movweq	r0, #21806	; 0x552e
    27c8:	052e2e6c 	streq	r2, [lr, #-3692]!	; 0xfffff194
    27cc:	0500062b 	streq	r0, [r0, #-1579]	; 0xfffff9d5
    27d0:	00a41802 	adceq	r1, r4, r2, lsl #16
    27d4:	01170300 	tsteq	r7, r0, lsl #6
    27d8:	05130505 	ldreq	r0, [r3, #-1285]	; 0xfffffafb
    27dc:	05010607 	streq	r0, [r1, #-1543]	; 0xfffff9f9
    27e0:	2e710318 	mrccs	3, 3, r0, cr1, cr8, {0}
    27e4:	0e032b05 	vmlaeq.f64	d2, d3, d5
    27e8:	2f07052e 	svccs	0x0007052e
    27ec:	2f060905 	svccs	0x00060905
    27f0:	6f030d05 	svcvs	0x00030d05
    27f4:	13050501 	movwne	r0, #21761	; 0x5501
    27f8:	2e2e2e06 	cdpcs	14, 2, cr2, cr14, cr6, {0}
    27fc:	03060905 	movweq	r0, #26885	; 0x6905
    2800:	0d050112 	stfeqs	f0, [r5, #-72]	; 0xffffffb8
    2804:	05017203 	streq	r7, [r1, #-515]	; 0xfffffdfd
    2808:	2e061305 	cdpcs	3, 0, cr1, cr6, cr5, {0}
    280c:	061d052e 	ldreq	r0, [sp], -lr, lsr #10
    2810:	05661003 	strbeq	r1, [r6, #-3]!
    2814:	1d051305 	stcne	3, cr1, [r5, #-20]	; 0xffffffec
    2818:	052e1106 	streq	r1, [lr, #-262]!	; 0xfffffefa
    281c:	13300605 	teqne	r0, #5242880	; 0x500000
    2820:	10060e05 	andne	r0, r6, r5, lsl #28
    2824:	2e301705 	cdpcs	7, 3, cr1, cr0, cr5, {0}
    2828:	30050204 	andcc	r0, r5, r4, lsl #4
    282c:	00dd0306 	sbcseq	r0, sp, r6, lsl #6
    2830:	0501042e 	streq	r0, [r1, #-1070]	; 0xfffffbd2
    2834:	a203060e 	andge	r0, r3, #14680064	; 0xe00000
    2838:	2305017f 	movwcs	r0, #20863	; 0x517f
    283c:	2f01052f 	svccs	0x0001052f
    2840:	01000602 	tsteq	r0, r2, lsl #12
    2844:	00009e01 	andeq	r9, r0, r1, lsl #28
    2848:	5a000300 	bpl	3450 <__code_start__-0x4bb0>
    284c:	02000000 	andeq	r0, r0, #0, 0
    2850:	0d0efb01 	vstreq	d15, [lr, #-4]
    2854:	01010100 	mrseq	r0, (UNDEF: 17)
    2858:	00000001 	andeq	r0, r0, r1
    285c:	01000001 	tsteq	r0, r1
    2860:	696c2f2e 	stmdbvs	ip!, {r1, r2, r3, r5, r8, r9, sl, fp, sp}^
    2864:	2f006362 	svccs	0x00006362
    2868:	72657355 	rsbvc	r7, r5, #1409286145	; 0x54000001
    286c:	696d2f73 	stmdbvs	sp!, {r0, r1, r4, r5, r6, r8, r9, sl, fp, sp}^
    2870:	2f73656c 	svccs	0x0073656c
    2874:	72756f53 	rsbsvc	r6, r5, #332	; 0x14c
    2878:	632f6563 			; <UNDEFINED> instruction: 0x632f6563
    287c:	30343273 	eorscc	r3, r4, r3, ror r2
    2880:	6c2f786c 	stcvs	8, cr7, [pc], #-432	; 26d8 <__code_start__-0x5928>
    2884:	69706269 	ldmdbvs	r0!, {r0, r3, r5, r6, r9, sp, lr}^
    2888:	636e692f 	cmnvs	lr, #770048	; 0xbc000
    288c:	6564756c 	strbvs	r7, [r4, #-1388]!	; 0xfffffa94
    2890:	75700000 	ldrbvc	r0, [r0, #-0]!
    2894:	61686374 	smcvs	34356	; 0x8634
    2898:	00632e72 	rsbeq	r2, r3, r2, ror lr
    289c:	72000001 	andvc	r0, r0, #1, 0
    28a0:	682e6970 	stmdavs	lr!, {r4, r5, r6, r8, fp, sp, lr}
    28a4:	00000200 	andeq	r0, r0, r0, lsl #4
    28a8:	00240500 	eoreq	r0, r4, r0, lsl #10
    28ac:	a4700205 	ldrbtge	r0, [r0], #-517	; 0xfffffdfb
    28b0:	05140000 	ldreq	r0, [r4, #-0]
    28b4:	24050126 	strcs	r0, [r5], #-294	; 0xfffffeda
    28b8:	052e0106 	streq	r0, [lr, #-262]!	; 0xfffffefa
    28bc:	34052e26 	strcc	r2, [r5], #-3622	; 0xfffff1da
    28c0:	01052e06 	tsteq	r5, r6, lsl #28
    28c4:	1b050106 	blne	142ce4 <__bss_end__+0x137a1c>
    28c8:	05054f06 	streq	r4, [r5, #-3846]	; 0xfffff0fa
    28cc:	06110513 			; <UNDEFINED> instruction: 0x06110513
    28d0:	67010501 	strvs	r0, [r1, -r1, lsl #10]
    28d4:	67062305 	strvs	r2, [r6, -r5, lsl #6]
    28d8:	05130505 	ldreq	r0, [r3, #-1285]	; 0xfffffafb
    28dc:	05010611 	streq	r0, [r1, #-1553]	; 0xfffff9ef
    28e0:	04024b01 	streq	r4, [r2], #-2817	; 0xfffff4ff
    28e4:	e2010100 	and	r0, r1, #0
    28e8:	03000000 	movweq	r0, #0
    28ec:	00005900 	andeq	r5, r0, r0, lsl #18
    28f0:	fb010200 	blx	430fa <__bss_end__+0x37e32>
    28f4:	01000d0e 	tsteq	r0, lr, lsl #26
    28f8:	00010101 	andeq	r0, r1, r1, lsl #2
    28fc:	00010000 	andeq	r0, r1, r0
    2900:	2f2e0100 	svccs	0x002e0100
    2904:	6362696c 	cmnvs	r2, #108, 18	; 0x1b0000
    2908:	73552f00 	cmpvc	r5, #0, 30
    290c:	2f737265 	svccs	0x00737265
    2910:	656c696d 	strbvs	r6, [ip, #-2413]!	; 0xfffff693
    2914:	6f532f73 	svcvs	0x00532f73
    2918:	65637275 	strbvs	r7, [r3, #-629]!	; 0xfffffd8b
    291c:	3273632f 	rsbscc	r6, r3, #-1140850688	; 0xbc000000
    2920:	786c3034 	stmdavc	ip!, {r2, r4, r5, ip, sp}^
    2924:	62696c2f 	rsbvs	r6, r9, #12032	; 0x2f00
    2928:	692f6970 	stmdbvs	pc!, {r4, r5, r6, r8, fp, sp, lr}	; <UNPREDICTABLE>
    292c:	756c636e 	strbvc	r6, [ip, #-878]!	; 0xfffffc92
    2930:	00006564 	andeq	r6, r0, r4, ror #10
    2934:	63727473 	cmnvs	r2, #1929379840	; 0x73000000
    2938:	632e7461 			; <UNDEFINED> instruction: 0x632e7461
    293c:	00000100 	andeq	r0, r0, r0, lsl #2
    2940:	2e697072 	mcrcs	0, 3, r7, cr9, cr2, {3}
    2944:	00020068 	andeq	r0, r2, r8, rrx
    2948:	2c050000 	stccs	0, cr0, [r5], {-0}
    294c:	ac020500 	cfstr32ge	mvfx0, [r2], {-0}
    2950:	150000a4 	strne	r0, [r0, #-164]	; 0xffffff5c
    2954:	13130505 	tstne	r3, #20971520	; 0x1400000
    2958:	11060b05 	tstne	r6, r5, lsl #22
    295c:	02000505 	andeq	r0, r0, #20971520	; 0x1400000
    2960:	30060104 	andcc	r0, r6, r4, lsl #2
    2964:	01040200 	mrseq	r0, R12_usr
    2968:	00090515 	andeq	r0, r9, r5, lsl r5
    296c:	13010402 	movwne	r0, #5122	; 0x1402
    2970:	02000b05 	andeq	r0, r0, #5120	; 0x1400
    2974:	052f0104 	streq	r0, [pc, #-260]!	; 2878 <__code_start__-0x5788>
    2978:	04020005 	streq	r0, [r2], #-5
    297c:	00010601 	andeq	r0, r1, r1, lsl #12
    2980:	2e010402 	cdpcs	4, 0, cr0, cr1, cr2, {0}
    2984:	08054e06 	stmdaeq	r5, {r1, r2, r9, sl, fp, lr}
    2988:	05050106 	streq	r0, [r5, #-262]	; 0xfffffefa
    298c:	01040200 	mrseq	r0, R12_usr
    2990:	09052f06 	stmdbeq	r5, {r1, r2, r8, r9, sl, fp, sp}
    2994:	01040200 	mrseq	r0, R12_usr
    2998:	000b0513 	andeq	r0, fp, r3, lsl r5
    299c:	06010402 	streq	r0, [r1], -r2, lsl #8
    29a0:	00090501 	andeq	r0, r9, r1, lsl #10
    29a4:	06010402 	streq	r0, [r1], -r2, lsl #8
    29a8:	0005052f 	andeq	r0, r5, pc, lsr #10
    29ac:	06010402 	streq	r0, [r1], -r2, lsl #8
    29b0:	000f0513 	andeq	r0, pc, r3, lsl r5	; <UNPREDICTABLE>
    29b4:	2d010402 	cfstrscs	mvf0, [r1, #-8]
    29b8:	02000d05 	andeq	r0, r0, #320	; 0x140
    29bc:	2f060104 	svccs	0x00060104
    29c0:	02000505 	andeq	r0, r0, #20971520	; 0x1400000
    29c4:	01060104 	tsteq	r6, r4, lsl #2
    29c8:	01000402 	tsteq	r0, r2, lsl #8
    29cc:	0000b201 	andeq	fp, r0, r1, lsl #4
    29d0:	59000300 	stmdbpl	r0, {r8, r9}
    29d4:	02000000 	andeq	r0, r0, #0, 0
    29d8:	0d0efb01 	vstreq	d15, [lr, #-4]
    29dc:	01010100 	mrseq	r0, (UNDEF: 17)
    29e0:	00000001 	andeq	r0, r0, r1
    29e4:	01000001 	tsteq	r0, r1
    29e8:	696c2f2e 	stmdbvs	ip!, {r1, r2, r3, r5, r8, r9, sl, fp, sp}^
    29ec:	2f006362 	svccs	0x00006362
    29f0:	72657355 	rsbvc	r7, r5, #1409286145	; 0x54000001
    29f4:	696d2f73 	stmdbvs	sp!, {r0, r1, r4, r5, r6, r8, r9, sl, fp, sp}^
    29f8:	2f73656c 	svccs	0x0073656c
    29fc:	72756f53 	rsbsvc	r6, r5, #332	; 0x14c
    2a00:	632f6563 			; <UNDEFINED> instruction: 0x632f6563
    2a04:	30343273 	eorscc	r3, r4, r3, ror r2
    2a08:	6c2f786c 	stcvs	8, cr7, [pc], #-432	; 2860 <__code_start__-0x57a0>
    2a0c:	69706269 	ldmdbvs	r0!, {r0, r3, r5, r6, r9, sp, lr}^
    2a10:	636e692f 	cmnvs	lr, #770048	; 0xbc000
    2a14:	6564756c 	strbvs	r7, [r4, #-1388]!	; 0xfffffa94
    2a18:	74730000 	ldrbtvc	r0, [r3], #-0
    2a1c:	706d6372 	rsbvc	r6, sp, r2, ror r3
    2a20:	0100632e 	tsteq	r0, lr, lsr #6
    2a24:	70720000 	rsbsvc	r0, r2, r0
    2a28:	00682e69 	rsbeq	r2, r8, r9, ror #28
    2a2c:	00000002 	andeq	r0, r0, r2
    2a30:	05002a05 	streq	r2, [r0, #-2565]	; 0xfffff5fb
    2a34:	00a4d802 	adceq	sp, r4, r2, lsl #16
    2a38:	09051400 	stmdbeq	r5, {sl, ip}
    2a3c:	06100513 			; <UNDEFINED> instruction: 0x06100513
    2a40:	060f0501 	streq	r0, [pc], -r1, lsl #10
    2a44:	0610052e 	ldreq	r0, [r0], -lr, lsr #10
    2a48:	2e0f0582 	cfsh32cs	mvfx0, mvfx15, #-62
    2a4c:	02001105 	andeq	r1, r0, #1073741825	; 0x40000001
    2a50:	4b060104 	blmi	182e68 <__bss_end__+0x177ba0>
    2a54:	02001c05 	andeq	r1, r0, #1280	; 0x500
    2a58:	2d060104 	stfcss	f0, [r6, #-16]
    2a5c:	02000f05 	andeq	r0, r0, #5, 30
    2a60:	2e060104 	adfcss	f0, f6, f4
    2a64:	02001305 	andeq	r1, r0, #335544320	; 0x14000000
    2a68:	01060104 	tsteq	r6, r4, lsl #2
    2a6c:	4c060905 			; <UNDEFINED> instruction: 0x4c060905
    2a70:	13060105 	movwne	r0, #24837	; 0x6105
    2a74:	0609054a 	streq	r0, [r9], -sl, asr #10
    2a78:	0601052d 	streq	r0, [r1], -sp, lsr #10
    2a7c:	02022e13 	andeq	r2, r2, #304	; 0x130
    2a80:	9d010100 	stflss	f0, [r1, #-0]
    2a84:	03000000 	movweq	r0, #0
    2a88:	00005900 	andeq	r5, r0, r0, lsl #18
    2a8c:	fb010200 	blx	43296 <__bss_end__+0x37fce>
    2a90:	01000d0e 	tsteq	r0, lr, lsl #26
    2a94:	00010101 	andeq	r0, r1, r1, lsl #2
    2a98:	00010000 	andeq	r0, r1, r0
    2a9c:	2f2e0100 	svccs	0x002e0100
    2aa0:	6362696c 	cmnvs	r2, #108, 18	; 0x1b0000
    2aa4:	73552f00 	cmpvc	r5, #0, 30
    2aa8:	2f737265 	svccs	0x00737265
    2aac:	656c696d 	strbvs	r6, [ip, #-2413]!	; 0xfffff693
    2ab0:	6f532f73 	svcvs	0x00532f73
    2ab4:	65637275 	strbvs	r7, [r3, #-629]!	; 0xfffffd8b
    2ab8:	3273632f 	rsbscc	r6, r3, #-1140850688	; 0xbc000000
    2abc:	786c3034 	stmdavc	ip!, {r2, r4, r5, ip, sp}^
    2ac0:	62696c2f 	rsbvs	r6, r9, #12032	; 0x2f00
    2ac4:	692f6970 	stmdbvs	pc!, {r4, r5, r6, r8, fp, sp, lr}	; <UNPREDICTABLE>
    2ac8:	756c636e 	strbvc	r6, [ip, #-878]!	; 0xfffffc92
    2acc:	00006564 	andeq	r6, r0, r4, ror #10
    2ad0:	63727473 	cmnvs	r2, #1929379840	; 0x73000000
    2ad4:	632e7970 			; <UNDEFINED> instruction: 0x632e7970
    2ad8:	00000100 	andeq	r0, r0, r0, lsl #2
    2adc:	2e697072 	mcrcs	0, 3, r7, cr9, cr2, {3}
    2ae0:	00020068 	andeq	r0, r2, r8, rrx
    2ae4:	2a050000 	bcs	142aec <__bss_end__+0x137824>
    2ae8:	1c020500 	cfstr32ne	mvfx0, [r2], {-0}
    2aec:	140000a5 	strne	r0, [r0], #-165	; 0xffffff5b
    2af0:	13130505 	tstne	r3, #20971520	; 0x1400000
    2af4:	02002205 	andeq	r2, r0, #1342177280	; 0x50000000
    2af8:	052e0104 	streq	r0, [lr, #-260]!	; 0xfffffefc
    2afc:	0402000b 	streq	r0, [r2], #-11
    2b00:	15050101 	strne	r0, [r5, #-257]	; 0xfffffeff
    2b04:	01040200 	mrseq	r0, R12_usr
    2b08:	0b050106 	bleq	142f28 <__bss_end__+0x137c60>
    2b0c:	01040200 	mrseq	r0, R12_usr
    2b10:	0013052e 	andseq	r0, r3, lr, lsr #10
    2b14:	2e010402 	cdpcs	4, 0, cr0, cr1, cr2, {0}
    2b18:	02000b05 	andeq	r0, r0, #5120	; 0x1400
    2b1c:	022e0104 	eoreq	r0, lr, #1
    2b20:	01010004 	tsteq	r1, r4
    2b24:	000000fd 	strdeq	r0, [r0], -sp
    2b28:	00bf0003 	adcseq	r0, pc, r3
    2b2c:	01020000 	mrseq	r0, (UNDEF: 2)
    2b30:	000d0efb 	strdeq	r0, [sp], -fp
    2b34:	01010101 	tsteq	r1, r1, lsl #2
    2b38:	01000000 	mrseq	r0, (UNDEF: 0)
    2b3c:	2e010000 	cdpcs	0, 0, cr0, cr1, cr0, {0}
    2b40:	62696c2f 	rsbvs	r6, r9, #12032	; 0x2f00
    2b44:	552f0063 	strpl	r0, [pc, #-99]!	; 2ae9 <__code_start__-0x5517>
    2b48:	73726573 	cmnvc	r2, #482344960	; 0x1cc00000
    2b4c:	6c696d2f 	stclvs	13, cr6, [r9], #-188	; 0xffffff44
    2b50:	532f7365 			; <UNDEFINED> instruction: 0x532f7365
    2b54:	6372756f 	cmnvs	r2, #465567744	; 0x1bc00000
    2b58:	73632f65 	cmnvc	r3, #404	; 0x194
    2b5c:	6c303432 	cfldrsvs	mvf3, [r0], #-200	; 0xffffff38
    2b60:	696c2f78 	stmdbvs	ip!, {r3, r4, r5, r6, r8, r9, sl, fp, sp}^
    2b64:	2f697062 	svccs	0x00697062
    2b68:	6c636e69 	stclvs	14, cr6, [r3], #-420	; 0xfffffe5c
    2b6c:	00656475 	rsbeq	r6, r5, r5, ror r4
    2b70:	74706f2f 	ldrbtvc	r6, [r0], #-3887	; 0xfffff0d1
    2b74:	6d6f682f 	stclvs	8, cr6, [pc, #-188]!	; 2ac0 <__code_start__-0x5540>
    2b78:	65726265 	ldrbvs	r6, [r2, #-613]!	; 0xfffffd9b
    2b7c:	65432f77 	strbvs	r2, [r3, #-3959]	; 0xfffff089
    2b80:	72616c6c 	rsbvc	r6, r1, #108, 24	; 0x6c00
    2b84:	6d72612f 	ldfvse	f6, [r2, #-188]!	; 0xffffff44
    2b88:	6e6f6e2d 	cdpvs	14, 6, cr6, cr15, cr13, {1}
    2b8c:	61652d65 	cmnvs	r5, r5, ror #26
    2b90:	392d6962 	pushcc	{r1, r5, r6, r8, fp, sp, lr}
    2b94:	322d392f 	eorcc	r3, sp, #770048	; 0xbc000
    2b98:	71393130 	teqvc	r9, r0, lsr r1
    2b9c:	73632d34 	cmnvc	r3, #52, 26	; 0xd00
    2ba0:	65373031 	ldrvs	r3, [r7, #-49]!	; 0xffffffcf
    2ba4:	62696c2f 	rsbvs	r6, r9, #12032	; 0x2f00
    2ba8:	6363672f 	cmnvs	r3, #12320768	; 0xbc0000
    2bac:	6d72612f 	ldfvse	f6, [r2, #-188]!	; 0xffffff44
    2bb0:	6e6f6e2d 	cdpvs	14, 6, cr6, cr15, cr13, {1}
    2bb4:	61652d65 	cmnvs	r5, r5, ror #26
    2bb8:	392f6962 	stmdbcc	pc!, {r1, r5, r6, r8, fp, sp, lr}	; <UNPREDICTABLE>
    2bbc:	312e322e 			; <UNDEFINED> instruction: 0x312e322e
    2bc0:	636e692f 	cmnvs	lr, #770048	; 0xbc000
    2bc4:	6564756c 	strbvs	r7, [r4, #-1388]!	; 0xfffffa94
    2bc8:	74730000 	ldrbtvc	r0, [r3], #-0
    2bcc:	6d636e72 	stclvs	14, cr6, [r3, #-456]!	; 0xfffffe38
    2bd0:	00632e70 	rsbeq	r2, r3, r0, ror lr
    2bd4:	72000001 	andvc	r0, r0, #1, 0
    2bd8:	682e6970 	stmdavs	lr!, {r4, r5, r6, r8, fp, sp, lr}
    2bdc:	00000200 	andeq	r0, r0, r0, lsl #4
    2be0:	64647473 	strbtvs	r7, [r4], #-1139	; 0xfffffb8d
    2be4:	682e6665 	stmdavs	lr!, {r0, r2, r5, r6, r9, sl, sp, lr}
    2be8:	00000300 	andeq	r0, r0, r0, lsl #6
    2bec:	00390500 	eorseq	r0, r9, r0, lsl #10
    2bf0:	a5340205 	ldrge	r0, [r4, #-517]!	; 0xfffffdfb
    2bf4:	05150000 	ldreq	r0, [r5, #-0]
    2bf8:	05131305 	ldreq	r1, [r3, #-773]	; 0xfffffcfb
    2bfc:	052e060a 	streq	r0, [lr, #-1546]!	; 0xfffff9f6
    2c00:	13052f0c 	movwne	r2, #24332	; 0x5f0c
    2c04:	2e0b052e 	cfsh32cs	mvfx0, mvfx11, #30
    2c08:	4a060905 	bmi	185024 <__bss_end__+0x179d5c>
    2c0c:	06110a05 	ldreq	r0, [r1], -r5, lsl #20
    2c10:	4e0c0501 	cfsh32mi	mvfx0, mvfx12, #1
    2c14:	052f0105 	streq	r0, [pc, #-261]!	; 2b17 <__code_start__-0x54e9>
    2c18:	052b060d 	streq	r0, [fp, #-1549]!	; 0xfffff9f3
    2c1c:	2e01061b 	mcrcs	6, 0, r0, cr1, cr11, {0}
    2c20:	01000202 	tsteq	r0, r2, lsl #4
    2c24:	00008a01 	andeq	r8, r0, r1, lsl #20
    2c28:	6e000300 	cdpvs	3, 0, cr0, cr0, cr0, {0}
    2c2c:	02000000 	andeq	r0, r0, #0, 0
    2c30:	0d0efb01 	vstreq	d15, [lr, #-4]
    2c34:	01010100 	mrseq	r0, (UNDEF: 17)
    2c38:	00000001 	andeq	r0, r0, r1
    2c3c:	01000001 	tsteq	r0, r1
    2c40:	74732f2e 	ldrbtvc	r2, [r3], #-3886	; 0xfffff0d2
    2c44:	2d666661 	stclcs	6, cr6, [r6, #-388]!	; 0xfffffe7c
    2c48:	00637273 	rsbeq	r7, r3, r3, ror r2
    2c4c:	6573552f 	ldrbvs	r5, [r3, #-1327]!	; 0xfffffad1
    2c50:	6d2f7372 	stcvs	3, cr7, [pc, #-456]!	; 2a90 <__code_start__-0x5570>
    2c54:	73656c69 	cmnvc	r5, #26880	; 0x6900
    2c58:	756f532f 	strbvc	r5, [pc, #-815]!	; 2931 <__code_start__-0x56cf>
    2c5c:	2f656372 	svccs	0x00656372
    2c60:	34327363 	ldrtcc	r7, [r2], #-867	; 0xfffffc9d
    2c64:	2f786c30 	svccs	0x00786c30
    2c68:	7062696c 	rsbvc	r6, r2, ip, ror #18
    2c6c:	6e692f69 	cdpvs	15, 6, cr2, cr9, cr9, {3}
    2c70:	64756c63 	ldrbtvs	r6, [r5], #-3171	; 0xfffff39d
    2c74:	64000065 	strvs	r0, [r0], #-101	; 0xffffff9b
    2c78:	75616665 	strbvc	r6, [r1, #-1637]!	; 0xfffff99b
    2c7c:	722d746c 	eorvc	r7, sp, #108, 8	; 0x6c000000
    2c80:	6f6f6265 	svcvs	0x006f6265
    2c84:	61632d74 	smcvs	13012	; 0x32d4
    2c88:	756f6c6c 	strbvc	r6, [pc, #-3180]!	; 2024 <__code_start__-0x5fdc>
    2c8c:	00632e74 	rsbeq	r2, r3, r4, ror lr
    2c90:	72000001 	andvc	r0, r0, #1, 0
    2c94:	682e6970 	stmdavs	lr!, {r4, r5, r6, r8, fp, sp, lr}
    2c98:	00000200 	andeq	r0, r0, r0, lsl #4
    2c9c:	001b0500 	andseq	r0, fp, r0, lsl #10
    2ca0:	a5640205 	strbge	r0, [r4, #-517]!	; 0xfffffdfb
    2ca4:	05140000 	ldreq	r0, [r4, #-0]
    2ca8:	0105011c 	tsteq	r5, ip, lsl r1
    2cac:	02020106 	andeq	r0, r2, #-2147483647	; 0x80000001
    2cb0:	Address 0x0000000000002cb0 is out of bounds.


Disassembly of section .debug_str:

00000000 <.debug_str>:
   0:	726f6873 	rsbvc	r6, pc, #7536640	; 0x730000
   4:	6e692074 	mcrvs	0, 3, r2, cr9, cr4, {3}
   8:	70720074 	rsbsvc	r0, r2, r4, ror r0
   c:	75705f69 	ldrbvc	r5, [r0, #-3945]!	; 0xfffff097
  10:	61686374 	smcvs	34356	; 0x8634
  14:	6b630072 	blvs	18c01e4 <__bss_end__+0x18b4f1c>
  18:	6f6c6c61 	svcvs	0x006c6c61
  1c:	69660063 	stmdbvs	r6!, {r0, r1, r5, r6}^
  20:	5000656c 	andpl	r6, r0, ip, ror #10
  24:	32335455 	eorscc	r5, r3, #1426063360	; 0x55000000
  28:	6e756600 	cdpvs	6, 7, cr6, cr5, cr0, {0}
  2c:	6f6c0063 	svcvs	0x006c0063
  30:	6c20676e 	stcvs	7, cr6, [r0], #-440	; 0xfffffe48
  34:	20676e6f 	rsbcs	r6, r7, pc, ror #28
  38:	00746e69 	rsbseq	r6, r4, r9, ror #28
  3c:	736d656d 	cmnvc	sp, #457179136	; 0x1b400000
  40:	63007465 	movwvs	r7, #1125	; 0x465
  44:	63675f6b 	cmnvs	r7, #428	; 0x1ac
  48:	465f5f00 	ldrbmi	r5, [pc], -r0, lsl #30
  4c:	54434e55 	strbpl	r4, [r3], #-3669	; 0xfffff1ab
  50:	5f4e4f49 	svcpl	0x004e4f49
  54:	6c63005f 	stclvs	0, cr0, [r3], #-380	; 0xfffffe84
  58:	5f6e6165 	svcpl	0x006e6165
  5c:	6f626572 	svcvs	0x00626572
  60:	6300746f 	movwvs	r7, #1135	; 0x46f
  64:	65765f6b 	ldrbvs	r5, [r6, #-3947]!	; 0xfffff095
  68:	736f6272 	cmnvc	pc, #536870919	; 0x20000007
  6c:	00705f65 	rsbseq	r5, r0, r5, ror #30
  70:	69736e75 	ldmdbvs	r3!, {r0, r2, r4, r5, r6, r9, sl, fp, sp, lr}^
  74:	64656e67 	strbtvs	r6, [r5], #-3687	; 0xfffff199
  78:	61686320 	cmnvs	r8, r0, lsr #6
  7c:	4e470072 	mcrmi	0, 2, r0, cr7, cr2, {3}
  80:	39432055 	stmdbcc	r3, {r0, r2, r4, r6, sp}^
  84:	2e392039 	mrccs	0, 1, r2, cr9, cr9, {1}
  88:	20312e32 	eorscs	r2, r1, r2, lsr lr
  8c:	39313032 	ldmdbcc	r1!, {r1, r4, r5, ip, sp}
  90:	35323031 	ldrcc	r3, [r2, #-49]!	; 0xffffffcf
  94:	65722820 	ldrbvs	r2, [r2, #-2080]!	; 0xfffff7e0
  98:	7361656c 	cmnvc	r1, #108, 10	; 0x1b000000
  9c:	5b202965 	blpl	80a638 <__bss_end__+0x7ff370>
  a0:	2f4d5241 	svccs	0x004d5241
  a4:	2d6d7261 	sfmcs	f7, 2, [sp, #-388]!	; 0xfffffe7c
  a8:	72622d39 	rsbvc	r2, r2, #3648	; 0xe40
  ac:	68636e61 	stmdavs	r3!, {r0, r5, r6, r9, sl, fp, sp, lr}^
  b0:	76657220 	strbtvc	r7, [r5], -r0, lsr #4
  b4:	6f697369 	svcvs	0x00697369
  b8:	3732206e 	ldrcc	r2, [r2, -lr, rrx]!
  bc:	39393537 	ldmdbcc	r9!, {r0, r1, r2, r4, r5, r8, sl, ip, sp}
  c0:	6d2d205d 	stcvs	0, cr2, [sp, #-372]!	; 0xfffffe8c
  c4:	3d757063 	ldclcc	0, cr7, [r5, #-396]!	; 0xfffffe74
  c8:	316d7261 	cmncc	sp, r1, ror #4
  cc:	6a363731 	bvs	d8dd98 <__bss_end__+0xd82ad0>
  d0:	732d667a 			; <UNDEFINED> instruction: 0x732d667a
  d4:	746d2d20 	strbtvc	r2, [sp], #-3360	; 0xfffff2e0
  d8:	3d656e75 	stclcc	14, cr6, [r5, #-468]!	; 0xfffffe2c
  dc:	316d7261 	cmncc	sp, r1, ror #4
  e0:	6a363731 	bvs	d8ddac <__bss_end__+0xd82ae4>
  e4:	732d667a 			; <UNDEFINED> instruction: 0x732d667a
  e8:	706d2d20 	rsbvc	r2, sp, r0, lsr #26
  ec:	2d656b6f 	fstmdbxcs	r5!, {d22-d76}	;@ Deprecated
  f0:	636e7566 	cmnvs	lr, #427819008	; 0x19800000
  f4:	6e6f6974 			; <UNDEFINED> instruction: 0x6e6f6974
  f8:	6d616e2d 	stclvs	14, cr6, [r1, #-180]!	; 0xffffff4c
  fc:	6d2d2065 	stcvs	0, cr2, [sp, #-404]!	; 0xfffffe6c
 100:	616f6c66 	cmnvs	pc, r6, ror #24
 104:	62612d74 	rsbvs	r2, r1, #116, 26	; 0x1d00
 108:	6f733d69 	svcvs	0x00733d69
 10c:	2d207466 	cfstrscs	mvf7, [r0, #-408]!	; 0xfffffe68
 110:	6d72616d 	ldfvse	f6, [r2, #-436]!	; 0xfffffe4c
 114:	616d2d20 	cmnvs	sp, r0, lsr #26
 118:	3d686372 	stclcc	3, cr6, [r8, #-456]!	; 0xfffffe38
 11c:	766d7261 	strbtvc	r7, [sp], -r1, ror #4
 120:	207a6b36 	rsbscs	r6, sl, r6, lsr fp
 124:	6467672d 	strbtvs	r6, [r7], #-1837	; 0xfffff8d3
 128:	4f2d2062 	svcmi	0x002d2062
 12c:	732d2067 			; <UNDEFINED> instruction: 0x732d2067
 130:	673d6474 			; <UNDEFINED> instruction: 0x673d6474
 134:	3939756e 	ldmdbcc	r9!, {r1, r2, r3, r5, r6, r8, sl, ip, sp, lr}
 138:	66662d20 	strbtvs	r2, [r6], -r0, lsr #26
 13c:	73656572 	cmnvc	r5, #478150656	; 0x1c800000
 140:	646e6174 	strbtvs	r6, [lr], #-372	; 0xfffffe8c
 144:	20676e69 	rsbcs	r6, r7, r9, ror #28
 148:	6f6e662d 	svcvs	0x006e662d
 14c:	696d6f2d 	stmdbvs	sp!, {r0, r2, r3, r5, r8, r9, sl, fp, sp, lr}^
 150:	72662d74 	rsbvc	r2, r6, #116, 26	; 0x1d00
 154:	2d656d61 	stclcs	13, cr6, [r5, #-388]!	; 0xfffffe7c
 158:	6e696f70 	mcrvs	15, 3, r6, cr9, cr0, {3}
 15c:	00726574 	rsbseq	r6, r2, r4, ror r5
 160:	656e696c 	strbvs	r6, [lr, #-2412]!	; 0xfffff694
 164:	6c006f6e 	stcvs	15, cr6, [r0], {110}	; 0x6e
 168:	20676e6f 	rsbcs	r6, r7, pc, ror #28
 16c:	676e6f6c 	strbvs	r6, [lr, -ip, ror #30]!
 170:	736e7520 	cmnvc	lr, #32, 10	; 0x8000000
 174:	656e6769 	strbvs	r6, [lr, #-1897]!	; 0xfffff897
 178:	6e692064 	cdpvs	0, 6, cr2, cr9, cr4, {3}
 17c:	69750074 	ldmdbvs	r5!, {r2, r4, r5, r6}^
 180:	3233746e 	eorscc	r7, r3, #1845493760	; 0x6e000000
 184:	6300745f 	movwvs	r7, #1119	; 0x45f
 188:	6b636568 	blvs	18d9730 <__bss_end__+0x18ce468>
 18c:	5f6f6e5f 	svcpl	0x006f6e5f
 190:	6b61656c 	blvs	1859748 <__bss_end__+0x184e480>
 194:	746f6e00 	strbtvc	r6, [pc], #-3584	; 19c <__code_start__-0x7e64>
 198:	6e69616d 	powvsez	f6, f1, #5.0
 19c:	73657400 	cmnvc	r5, #0, 8
 1a0:	322d7374 	eorcc	r7, sp, #116, 6	; 0xd0000001
 1a4:	702f302e 	eorvc	r3, pc, lr, lsr #32
 1a8:	32747261 	rsbscc	r7, r4, #268435462	; 0x10000006
 1ac:	7365742d 	cmnvc	r5, #754974720	; 0x2d000000
 1b0:	672d3574 			; <UNDEFINED> instruction: 0x672d3574
 1b4:	00632e63 	rsbeq	r2, r3, r3, ror #28
 1b8:	726f6873 	rsbvc	r6, pc, #7536640	; 0x730000
 1bc:	6e752074 	mrcvs	0, 3, r2, cr5, cr4, {3}
 1c0:	6e676973 			; <UNDEFINED> instruction: 0x6e676973
 1c4:	69206465 	stmdbvs	r0!, {r0, r2, r5, r6, sl, sp, lr}
 1c8:	6300746e 	movwvs	r7, #1134	; 0x46e
 1cc:	6b636568 	blvs	18d9774 <__bss_end__+0x18ce4ac>
 1d0:	6f68735f 	svcvs	0x0068735f
 1d4:	5f646c75 	svcpl	0x00646c75
 1d8:	6b61656c 	blvs	1859790 <__bss_end__+0x184e4c8>
 1dc:	73657400 	cmnvc	r5, #0, 8
 1e0:	552f0074 	strpl	r0, [pc, #-116]!	; 174 <__code_start__-0x7e8c>
 1e4:	73726573 	cmnvc	r2, #482344960	; 0x1cc00000
 1e8:	6c696d2f 	stclvs	13, cr6, [r9], #-188	; 0xffffff44
 1ec:	532f7365 			; <UNDEFINED> instruction: 0x532f7365
 1f0:	6372756f 	cmnvs	r2, #465567744	; 0x1bc00000
 1f4:	73632f65 	cmnvc	r3, #404	; 0x194
 1f8:	6c303432 	cfldrsvs	mvf3, [r0], #-200	; 0xffffff38
 1fc:	616c2f78 	smcvs	49912	; 0xc2f8
 200:	362f7362 	strtcc	r7, [pc], -r2, ror #6
 204:	6265642d 	rsbvs	r6, r5, #754974720	; 0x2d000000
 208:	612d6775 			; <UNDEFINED> instruction: 0x612d6775
 20c:	636f6c6c 	cmnvs	pc, #108, 24	; 0x6c00
 210:	646f632f 	strbtvs	r6, [pc], #-815	; 218 <__code_start__-0x7de8>
 214:	72700065 	rsbsvc	r0, r0, #101, 0	; 0x65
 218:	73007665 	movwvc	r7, #1637	; 0x665
 21c:	6c5f6372 	mrrcvs	3, 7, r6, pc, cr2	; <UNPREDICTABLE>
 220:	6d5f636f 	ldclvs	3, cr6, [pc, #-444]	; 6c <__code_start__-0x7f94>
 224:	656e006b 	strbvs	r0, [lr, #-107]!	; 0xffffff95
 228:	73007478 	movwvc	r7, #1144	; 0x478
 22c:	6c5f6372 	mrrcvs	3, 7, r6, pc, cr2	; <UNPREDICTABLE>
 230:	745f636f 	ldrbvc	r6, [pc], #-879	; 238 <__code_start__-0x7dc8>
 234:	5f6b6300 	svcpl	0x006b6300
 238:	5f727470 	svcpl	0x00727470
 23c:	625f6e69 	subsvs	r6, pc, #1680	; 0x690
 240:	6b636f6c 	blvs	18dbff8 <__bss_end__+0x18d0d30>
 244:	72646800 	rsbvc	r6, r4, #0, 16
 248:	6200745f 	andvs	r7, r0, #1593835520	; 0x5f000000
 24c:	6b636f6c 	blvs	18dc004 <__bss_end__+0x18d0d3c>
 250:	0064695f 	rsbeq	r6, r4, pc, asr r9
 254:	45455246 	strbmi	r5, [r5, #-582]	; 0xfffffdba
 258:	626e0044 	rsbvs	r0, lr, #68, 0	; 0x44
 25c:	73657479 	cmnvc	r5, #2030043136	; 0x79000000
 260:	6c6c615f 	stfvse	f6, [ip], #-380	; 0xfffffe84
 264:	5200636f 	andpl	r6, r0, #-1140850687	; 0xbc000001
 268:	4f5a4445 	svcmi	0x005a4445
 26c:	565f454e 	ldrbpl	r4, [pc], -lr, asr #10
 270:	52004c41 	andpl	r4, r0, #16640	; 0x4100
 274:	4f5a4445 	svcmi	0x005a4445
 278:	4e5f454e 	cdpmi	5, 5, cr4, cr15, cr14, {2}
 27c:	45545942 	ldrbmi	r5, [r4, #-2370]	; 0xfffff6be
 280:	6b630053 	blvs	18c03d4 <__bss_end__+0x18b510c>
 284:	7269665f 	rsbvc	r6, r9, #99614720	; 0x5f00000
 288:	685f7473 	ldmdavs	pc, {r0, r1, r4, r5, r6, sl, ip, sp, lr}^	; <UNPREDICTABLE>
 28c:	75007264 	strvc	r7, [r0, #-612]	; 0xfffffd9c
 290:	38746e69 	ldmdacc	r4!, {r0, r3, r5, r6, r9, sl, fp, sp, lr}^
 294:	6300745f 	movwvs	r7, #1119	; 0x45f
 298:	6572666b 	ldrbvs	r6, [r2, #-1643]!	; 0xfffff995
 29c:	61620065 	cmnvs	r2, r5, rrx
 2a0:	72746b63 	rsbsvc	r6, r4, #101376	; 0x18c00
 2a4:	00656361 	rsbeq	r6, r5, r1, ror #6
 2a8:	6f6c6c61 	svcvs	0x006c6c61
 2ac:	696c5f63 	stmdbvs	ip!, {r0, r1, r5, r6, r8, r9, sl, fp, ip, lr}^
 2b0:	63007473 	movwvs	r7, #1139	; 0x473
 2b4:	72616e61 	rsbvc	r6, r1, #1552	; 0x610
 2b8:	6b630079 	blvs	18c04a4 <__bss_end__+0x18b51dc>
 2bc:	7264685f 	rsbvc	r6, r4, #6225920	; 0x5f0000
 2c0:	61687300 	cmnvs	r8, r0, lsl #6
 2c4:	5f776f64 	svcpl	0x00776f64
 2c8:	61636f6c 	cmnvs	r3, ip, ror #30
 2cc:	6e6f6974 			; <UNDEFINED> instruction: 0x6e6f6974
 2d0:	6c6c6100 	stfvse	f6, [ip], #-0
 2d4:	6c5f636f 	mrrcvs	3, 6, r6, pc, cr15	; <UNPREDICTABLE>
 2d8:	7300636f 	movwvc	r6, #879	; 0x36f
 2dc:	65746174 	ldrbvs	r6, [r4, #-372]!	; 0xfffffe8c
 2e0:	66657200 	strbtvs	r7, [r5], -r0, lsl #4
 2e4:	74735f73 	ldrbtvc	r5, [r3], #-3955	; 0xfffff08d
 2e8:	00747261 	rsbseq	r7, r4, r1, ror #4
 2ec:	65685f5f 	strbvs	r5, [r8, #-3935]!	; 0xfffff0a1
 2f0:	735f7061 	cmpvc	pc, #97, 0	; 0x61
 2f4:	74726174 	ldrbtvc	r6, [r2], #-372	; 0xfffffe8c
 2f8:	75005f5f 	strvc	r5, [r0, #-3935]	; 0xfffff0a1
 2fc:	31746e69 	cmncc	r4, r9, ror #28
 300:	00745f36 	rsbseq	r5, r4, r6, lsr pc
 304:	705f6b63 	subsvc	r6, pc, r3, ror #22
 308:	695f7274 	ldmdbvs	pc, {r2, r4, r5, r6, r9, ip, sp, lr}^	; <UNPREDICTABLE>
 30c:	6c615f73 	stclvs	15, cr5, [r1], #-460	; 0xfffffe34
 310:	65636f6c 	strbvs	r6, [r3, #-3948]!	; 0xfffff094
 314:	68730064 	ldmdavs	r3!, {r2, r5, r6}^
 318:	776f6461 	strbvc	r6, [pc, -r1, ror #8]!
 31c:	6174735f 	cmnvs	r4, pc, asr r3
 320:	63007472 	movwvs	r7, #1138	; 0x472
 324:	656e5f6b 	strbvs	r5, [lr, #-3947]!	; 0xfffff095
 328:	685f7478 	ldmdavs	pc, {r3, r4, r5, r6, sl, ip, sp, lr}^	; <UNPREDICTABLE>
 32c:	63007264 	movwvs	r7, #612	; 0x264
 330:	6c6c616b 	stfvse	f6, [ip], #-428	; 0xfffffe54
 334:	632e636f 			; <UNDEFINED> instruction: 0x632e636f
 338:	66657200 	strbtvs	r7, [r5], -r0, lsl #4
 33c:	696d5f73 	stmdbvs	sp!, {r0, r1, r4, r5, r6, r8, r9, sl, fp, ip, lr}^
 340:	656c6464 	strbvs	r6, [ip, #-1124]!	; 0xfffffb9c
 344:	4c4c4100 	stfmie	f4, [ip], {-0}
 348:	4445434f 	strbmi	r4, [r5], #-847	; 0xfffffcb1
 34c:	5f6b6300 	svcpl	0x006b6300
 350:	5f726468 	svcpl	0x00726468
 354:	72617473 	rsbvc	r7, r1, #1929379840	; 0x73000000
 358:	726f0074 	rsbvc	r0, pc, #116, 0	; 0x74
 35c:	6e696769 	cdpvs	7, 6, cr6, cr9, cr9, {3}
 360:	63006c61 	movwvs	r6, #3169	; 0xc61
 364:	64685f6b 	strbtvs	r5, [r8], #-3947	; 0xfffff095
 368:	6e655f72 	mcrvs	15, 3, r5, cr5, cr2, {3}
 36c:	72660064 	rsbvc	r0, r6, #100, 0	; 0x64
 370:	6c5f6565 	cfldr64vs	mvdx6, [pc], {101}	; 0x65
 374:	6300636f 	movwvs	r6, #879	; 0x36f
 378:	626e5f6b 	rsbvs	r5, lr, #428	; 0x1ac
 37c:	73657479 	cmnvc	r5, #2030043136	; 0x79000000
 380:	5f726b00 	svcpl	0x00726b00
 384:	6c6c616d 	stfvse	f6, [ip], #-436	; 0xfffffe4c
 388:	6800636f 	stmdavs	r0, {r0, r1, r2, r3, r5, r6, r8, r9, sp, lr}
 38c:	65646165 	strbvs	r6, [r4, #-357]!	; 0xfffffe9b
 390:	72700072 	rsbsvc	r0, r0, #114, 0	; 0x72
 394:	00707665 	rsbseq	r7, r0, r5, ror #12
 398:	67696c61 	strbvs	r6, [r9, -r1, ror #24]!
 39c:	726b006e 	rsbvc	r0, fp, #110, 0	; 0x6e
 3a0:	6572665f 	ldrbvs	r6, [r2, #-1631]!	; 0xfffff9a1
 3a4:	72660065 	rsbvc	r0, r6, #101, 0	; 0x65
 3a8:	00706565 	rsbseq	r6, r0, r5, ror #10
 3ac:	696e756e 	stmdbvs	lr!, {r1, r2, r3, r5, r6, r8, sl, ip, sp, lr}^
 3b0:	6b007374 	blvs	1d188 <__bss_end__+0x11ec0>
 3b4:	616d2d72 	smcvs	53970	; 0xd2d2
 3b8:	636f6c6c 	cmnvs	pc, #108, 24	; 0x6c00
 3bc:	6400632e 	strvs	r6, [r0], #-814	; 0xfffffcd2
 3c0:	6c62756f 	cfstr64vs	mvdx7, [r2], #-444	; 0xfffffe44
 3c4:	61620065 	cmnvs	r2, r5, rrx
 3c8:	73006573 	movwvc	r6, #1395	; 0x573
 3cc:	006b7262 	rsbeq	r7, fp, r2, ror #4
 3d0:	65726f6d 	ldrbvs	r6, [r2, #-3949]!	; 0xfffff093
 3d4:	65726f63 	ldrbvs	r6, [r2, #-3939]!	; 0xfffff09d
 3d8:	7a697300 	bvc	1a5cfe0 <__bss_end__+0x1a51d18>
 3dc:	65480065 	strbvs	r0, [r8, #-101]	; 0xffffff9b
 3e0:	72656461 	rsbvc	r6, r5, #1627389952	; 0x61000000
 3e4:	61747300 	cmnvs	r4, r0, lsl #6
 3e8:	745f6b63 	ldrbvc	r6, [pc], #-2915	; 3f0 <__code_start__-0x7c10>
 3ec:	6d00706f 	stcvs	0, cr7, [r0, #-444]	; 0xfffffe44
 3f0:	5f6b7261 	svcpl	0x006b7261
 3f4:	006c6c61 	rsbeq	r6, ip, r1, ror #24
 3f8:	6c706d69 	ldclvs	13, cr6, [r0], #-420	; 0xfffffe5c
 3fc:	6e656d65 	cdpvs	13, 6, cr6, cr5, cr5, {3}
 400:	68745f74 	ldmdavs	r4!, {r2, r4, r5, r6, r8, r9, sl, fp, ip, lr}^
 404:	5f007369 	svcpl	0x00007369
 408:	7373625f 	cmnvc	r3, #-268435451	; 0xf0000005
 40c:	6174735f 	cmnvs	r4, pc, asr r3
 410:	5f5f7472 	svcpl	0x005f7472
 414:	6c626e00 	stclvs	14, cr6, [r2], #-0
 418:	736b636f 	cmnvc	fp, #-1140850687	; 0xbc000001
 41c:	696e6900 	stmdbvs	lr!, {r8, fp, sp, lr}^
 420:	00705f74 	rsbseq	r5, r0, r4, ror pc
 424:	7479626e 	ldrbtvc	r6, [r9], #-622	; 0xfffffd92
 428:	665f7365 	ldrbvs	r7, [pc], -r5, ror #6
 42c:	64656572 	strbtvs	r6, [r5], #-1394	; 0xfffffa8e
 430:	646c6f00 	strbtvs	r6, [ip], #-3840	; 0xfffff100
 434:	72616d5f 	rsbvc	r6, r1, #6080	; 0x17c0
 438:	6e69006b 	cdpvs	0, 6, cr0, cr9, cr11, {3}
 43c:	6d657263 	sfmvs	f7, 2, [r5, #-396]!	; 0xfffffe74
 440:	00746e65 	rsbseq	r6, r4, r5, ror #28
 444:	665f6b63 	ldrbvs	r6, [pc], -r3, ror #22
 448:	5f646e69 	svcpl	0x00646e69
 44c:	6b61656c 	blvs	1859a04 <__bss_end__+0x184e73c>
 450:	616d0073 	smcvs	53251	; 0xd003
 454:	5f656279 	svcpl	0x00656279
 458:	6f727265 	svcvs	0x00727265
 45c:	64007372 	strvs	r7, [r0], #-882	; 0xfffffc8e
 460:	5f706d75 	svcpl	0x00706d75
 464:	73676572 	cmnvc	r7, #478150656	; 0x1c800000
 468:	656c6e00 	strbvs	r6, [ip, #-3584]!	; 0xfffff200
 46c:	00736b61 	rsbseq	r6, r3, r1, ror #22
 470:	61645f5f 	cmnvs	r4, pc, asr pc
 474:	655f6174 	ldrbvs	r6, [pc, #-372]	; 308 <__code_start__-0x7cf8>
 478:	5f5f646e 	svcpl	0x005f646e
 47c:	5f736900 	svcpl	0x00736900
 480:	00727470 	rsbseq	r7, r2, r0, ror r4
 484:	6572666e 	ldrbvs	r6, [r2, #-1646]!	; 0xfffff992
 488:	69006465 	stmdbvs	r0, {r0, r2, r5, r6, sl, sp, lr}
 48c:	65685f6e 	strbvs	r5, [r8, #-3950]!	; 0xfffff092
 490:	6f007061 	svcvs	0x00007061
 494:	626d656e 	rsbvs	r6, sp, #461373440	; 0x1b800000
 498:	2d6b6300 	stclcs	3, cr6, [fp, #-0]
 49c:	632e6367 			; <UNDEFINED> instruction: 0x632e6367
 4a0:	625f5f00 	subsvs	r5, pc, #0, 30
 4a4:	655f7373 	ldrbvs	r7, [pc, #-883]	; 139 <__code_start__-0x7ec7>
 4a8:	5f5f646e 	svcpl	0x005f646e
 4ac:	616d6b00 	cmnvs	sp, r0, lsl #22
 4b0:	636f6c6c 	cmnvs	pc, #108, 24	; 0x6c00
 4b4:	616d6b00 	cmnvs	sp, r0, lsl #22
 4b8:	636f6c6c 	cmnvs	pc, #108, 24	; 0x6c00
 4bc:	696e695f 	stmdbvs	lr!, {r0, r1, r2, r3, r4, r6, r8, fp, sp, lr}^
 4c0:	65735f74 	ldrbvs	r5, [r3, #-3956]!	; 0xfffff08c
 4c4:	74735f74 	ldrbtvc	r5, [r3], #-3956	; 0xfffff08c
 4c8:	00747261 	rsbseq	r7, r4, r1, ror #4
 4cc:	65657773 	strbvs	r7, [r5, #-1907]!	; 0xfffff88d
 4d0:	656c5f70 	strbvs	r5, [ip, #-3952]!	; 0xfffff090
 4d4:	5f006b61 	svcpl	0x00006b61
 4d8:	7461645f 	strbtvc	r6, [r1], #-1119	; 0xfffffba1
 4dc:	74735f61 	ldrbtvc	r5, [r3], #-3937	; 0xfffff09f
 4e0:	5f747261 	svcpl	0x00747261
 4e4:	7773005f 			; <UNDEFINED> instruction: 0x7773005f
 4e8:	5f706565 	svcpl	0x00706565
 4ec:	65657266 	strbvs	r7, [r5, #-614]!	; 0xfffffd9a
 4f0:	72617700 	rsbvc	r7, r1, #0, 14
 4f4:	6f6e5f6e 	svcvs	0x006e5f6e
 4f8:	6174735f 	cmnvs	r4, pc, asr r3
 4fc:	725f7472 	subsvc	r7, pc, #1912602624	; 0x72000000
 500:	705f6665 	subsvc	r6, pc, r5, ror #12
 504:	726f7700 	rsbvc	r7, pc, #0, 14
 508:	616e0064 	cmnvs	lr, r4, rrx
 50c:	6c5f656d 	cfldr64vs	mvdx6, [pc], {109}	; 0x6d
 510:	47006e65 	strmi	r6, [r0, -r5, ror #28]
 514:	4320554e 			; <UNDEFINED> instruction: 0x4320554e
 518:	39203939 	stmdbcc	r0!, {r0, r3, r4, r5, r8, fp, ip, sp}
 51c:	312e322e 			; <UNDEFINED> instruction: 0x312e322e
 520:	31303220 	teqcc	r0, r0, lsr #4
 524:	32303139 	eorscc	r3, r0, #1073741838	; 0x4000000e
 528:	72282035 	eorvc	r2, r8, #53, 0	; 0x35
 52c:	61656c65 	cmnvs	r5, r5, ror #24
 530:	20296573 	eorcs	r6, r9, r3, ror r5
 534:	4d52415b 	ldfmie	f4, [r2, #-364]	; 0xfffffe94
 538:	6d72612f 	ldfvse	f6, [r2, #-188]!	; 0xffffff44
 53c:	622d392d 	eorvs	r3, sp, #737280	; 0xb4000
 540:	636e6172 	cmnvs	lr, #-2147483620	; 0x8000001c
 544:	65722068 	ldrbvs	r2, [r2, #-104]!	; 0xffffff98
 548:	69736976 	ldmdbvs	r3!, {r1, r2, r4, r5, r6, r8, fp, sp, lr}^
 54c:	32206e6f 	eorcc	r6, r0, #1776	; 0x6f0
 550:	39353737 	ldmdbcc	r5!, {r0, r1, r2, r4, r5, r8, r9, sl, ip, sp}
 554:	2d205d39 	stccs	13, cr5, [r0, #-228]!	; 0xffffff1c
 558:	7570636d 	ldrbvc	r6, [r0, #-877]!	; 0xfffffc93
 55c:	6d72613d 	ldfvse	f6, [r2, #-244]!	; 0xffffff0c
 560:	36373131 			; <UNDEFINED> instruction: 0x36373131
 564:	2d667a6a 	vstmdbcs	r6!, {s15-s120}
 568:	6d2d2073 	stcvs	0, cr2, [sp, #-460]!	; 0xfffffe34
 56c:	656e7574 	strbvs	r7, [lr, #-1396]!	; 0xfffffa8c
 570:	6d72613d 	ldfvse	f6, [r2, #-244]!	; 0xffffff0c
 574:	36373131 			; <UNDEFINED> instruction: 0x36373131
 578:	2d667a6a 	vstmdbcs	r6!, {s15-s120}
 57c:	6d2d2073 	stcvs	0, cr2, [sp, #-460]!	; 0xfffffe34
 580:	616f6c66 	cmnvs	pc, r6, ror #24
 584:	62612d74 	rsbvs	r2, r1, #116, 26	; 0x1d00
 588:	6f733d69 	svcvs	0x00733d69
 58c:	2d207466 	cfstrscs	mvf7, [r0, #-408]!	; 0xfffffe68
 590:	6d72616d 	ldfvse	f6, [r2, #-436]!	; 0xfffffe4c
 594:	616d2d20 	cmnvs	sp, r0, lsr #26
 598:	3d686372 	stclcc	3, cr6, [r8, #-456]!	; 0xfffffe38
 59c:	766d7261 	strbtvc	r7, [sp], -r1, ror #4
 5a0:	207a6b36 	rsbscs	r6, sl, r6, lsr fp
 5a4:	6467672d 	strbtvs	r6, [r7], #-1837	; 0xfffff8d3
 5a8:	4f2d2062 	svcmi	0x002d2062
 5ac:	74736166 	ldrbtvc	r6, [r3], #-358	; 0xfffffe9a
 5b0:	74732d20 	ldrbtvc	r2, [r3], #-3360	; 0xfffff2e0
 5b4:	6e673d64 	cdpvs	13, 6, cr3, cr7, cr4, {3}
 5b8:	20393975 	eorscs	r3, r9, r5, ror r9
 5bc:	7266662d 	rsbvc	r6, r6, #47185920	; 0x2d00000
 5c0:	74736565 	ldrbtvc	r6, [r3], #-1381	; 0xfffffa9b
 5c4:	69646e61 	stmdbvs	r4!, {r0, r5, r6, r9, sl, fp, sp, lr}^
 5c8:	6600676e 	strvs	r6, [r0], -lr, ror #14
 5cc:	74735f6e 	ldrbtvc	r5, [r3], #-3950	; 0xfffff092
 5d0:	5f747261 	svcpl	0x00747261
 5d4:	72646461 	rsbvc	r6, r4, #1627389952	; 0x61000000
 5d8:	73552f00 	cmpvc	r5, #0, 30
 5dc:	2f737265 	svccs	0x00737265
 5e0:	656c696d 	strbvs	r6, [ip, #-2413]!	; 0xfffff693
 5e4:	6f532f73 	svcvs	0x00532f73
 5e8:	65637275 	strbvs	r7, [r3, #-629]!	; 0xfffffd8b
 5ec:	3273632f 	rsbscc	r6, r3, #-1140850688	; 0xbc000000
 5f0:	786c3034 	stmdavc	ip!, {r2, r4, r5, ip, sp}^
 5f4:	62696c2f 	rsbvs	r6, r9, #12032	; 0x2f00
 5f8:	2e006970 			; <UNDEFINED> instruction: 0x2e006970
 5fc:	6372732f 	cmnvs	r2, #-1140850688	; 0xbc000000
 600:	6361622f 	cmnvs	r1, #-268435454	; 0xf0000002
 604:	6172746b 	cmnvs	r2, fp, ror #8
 608:	632e6563 			; <UNDEFINED> instruction: 0x632e6563
 60c:	72756300 	rsbsvc	r6, r5, #0, 6
 610:	0070665f 	rsbseq	r6, r0, pc, asr r6
 614:	656d616e 	strbvs	r6, [sp, #-366]!	; 0xfffffe92
 618:	00666f5f 	rsbeq	r6, r6, pc, asr pc
 61c:	657a6973 	ldrbvs	r6, [sl, #-2419]!	; 0xfffff68d
 620:	2e00745f 	cfmvsrcs	mvf0, r7
 624:	62696c2f 	rsbvs	r6, r9, #12032	; 0x2f00
 628:	656d2f63 	strbvs	r2, [sp, #-3939]!	; 0xfffff09d
 62c:	7465736d 	strbtvc	r7, [r5], #-877	; 0xfffffc93
 630:	6100632e 	tstvs	r0, lr, lsr #6
 634:	00736772 	rsbseq	r6, r3, r2, ror r7
 638:	705f6176 	subsvc	r6, pc, r6, ror r1	; <UNPREDICTABLE>
 63c:	746e6972 	strbtvc	r6, [lr], #-2418	; 0xfffff68e
 640:	5f5f006b 	svcpl	0x005f006b
 644:	63756e67 	cmnvs	r5, #1648	; 0x670
 648:	5f61765f 	svcpl	0x0061765f
 64c:	7473696c 	ldrbtvc	r6, [r3], #-2412	; 0xfffff694
 650:	615f5f00 	cmpvs	pc, r0, lsl #30
 654:	2f2e0070 	svccs	0x002e0070
 658:	6362696c 	cmnvs	r2, #108, 18	; 0x1b0000
 65c:	6972702f 	ldmdbvs	r2!, {r0, r1, r2, r3, r5, ip, sp, lr}^
 660:	2e6b746e 	cdpcs	4, 6, cr7, cr11, cr14, {3}
 664:	5f5f0063 	svcpl	0x005f0063
 668:	6c5f6176 	ldfvse	f6, [pc], {118}	; 0x76
 66c:	00747369 	rsbseq	r7, r4, r9, ror #6
 670:	65746e69 	ldrbvs	r6, [r4, #-3689]!	; 0xfffff197
 674:	6c616e72 	stclvs	14, cr6, [r1], #-456	; 0xfffffe38
 678:	7475705f 	ldrbtvc	r7, [r5], #-95	; 0xffffffa1
 67c:	2f2e006b 	svccs	0x002e006b
 680:	6362696c 	cmnvs	r2, #108, 18	; 0x1b0000
 684:	7475702f 	ldrbtvc	r7, [r5], #-47	; 0xffffffd1
 688:	00632e6b 	rsbeq	r2, r3, fp, ror #28
 68c:	69647369 	stmdbvs	r4!, {r0, r3, r5, r6, r8, r9, ip, sp, lr}^
 690:	00746967 	rsbseq	r6, r4, r7, ror #18
 694:	746e6975 	strbtvc	r6, [lr], #-2421	; 0xfffff68b
 698:	745f3436 	ldrbvc	r3, [pc], #-1078	; 6a0 <__code_start__-0x7960>
 69c:	6c2f2e00 	stcvs	14, cr2, [pc], #-0	; 6a4 <__code_start__-0x795c>
 6a0:	2f636269 	svccs	0x00636269
 6a4:	702d6176 	eorvc	r6, sp, r6, ror r1
 6a8:	746e6972 	strbtvc	r6, [lr], #-2418	; 0xfffff68e
 6ac:	00632e6b 	rsbeq	r2, r3, fp, ror #28
 6b0:	6f635f5f 	svcvs	0x00635f5f
 6b4:	735f6564 	cmpvc	pc, #100, 10	; 0x19000000
 6b8:	74726174 	ldrbtvc	r6, [r2], #-372	; 0xfffffe8c
 6bc:	77005f5f 	smlsdvc	r0, pc, pc, r5	; <UNPREDICTABLE>
 6c0:	68746469 	ldmdavs	r4!, {r0, r3, r5, r6, sl, sp, lr}^
 6c4:	74757000 	ldrbtvc	r7, [r5], #-0
 6c8:	70665f63 	rsbvc	r5, r6, r3, ror #30
 6cc:	69707200 	ldmdbvs	r0!, {r9, ip, sp, lr}^
 6d0:	7465735f 	strbtvc	r7, [r5], #-863	; 0xfffffca1
 6d4:	74756f5f 	ldrbtvc	r6, [r5], #-3935	; 0xfffff0a1
 6d8:	00747570 	rsbseq	r7, r4, r0, ror r5
 6dc:	5f746d66 	svcpl	0x00746d66
 6e0:	72617473 	rsbvc	r7, r1, #1929379840	; 0x73000000
 6e4:	74730074 	ldrbtvc	r0, [r3], #-116	; 0xffffff8c
 6e8:	74616372 	strbtvc	r6, [r1], #-882	; 0xfffffc8e
 6ec:	72747300 	rsbsvc	r7, r4, #0, 6
 6f0:	00797063 	rsbseq	r7, r9, r3, rrx
 6f4:	5f67656e 	svcpl	0x0067656e
 6f8:	5f5f0070 	svcpl	0x005f0070
 6fc:	65646f63 	strbvs	r6, [r4, #-3939]!	; 0xfffff09d
 700:	646e655f 	strbtvs	r6, [lr], #-1375	; 0xfffffaa1
 704:	65005f5f 	strvs	r5, [r0, #-3935]	; 0xfffff0a1
 708:	0074696d 	rsbseq	r6, r4, sp, ror #18
 70c:	65766572 	ldrbvs	r6, [r6, #-1394]!	; 0xfffffa8e
 710:	00657372 	rsbeq	r7, r5, r2, ror r3
 714:	63727473 	cmnvs	r2, #1929379840	; 0x73000000
 718:	7000706d 	andvc	r7, r0, sp, rrx
 71c:	5f737475 	svcpl	0x00737475
 720:	5f007066 	svcpl	0x00007066
 724:	6f72705f 	svcvs	0x0072705f
 728:	6e655f67 	cdpvs	15, 6, cr5, cr5, cr7, {3}
 72c:	005f5f64 	subseq	r5, pc, r4, ror #30
 730:	316d756e 	cmncc	sp, lr, ror #10
 734:	72747300 	rsbsvc	r7, r4, #0, 6
 738:	706d636e 	rsbvc	r6, sp, lr, ror #6
 73c:	67697300 	strbvs	r7, [r9, -r0, lsl #6]!
 740:	5f64656e 	svcpl	0x0064656e
 744:	70720070 	rsbsvc	r0, r2, r0, ror r0
 748:	65725f69 	ldrbvs	r5, [r2, #-3945]!	; 0xfffff097
 74c:	746f6f62 	strbtvc	r6, [pc], #-3938	; 754 <__code_start__-0x78ac>
 750:	6c656400 	cfstrdvs	mvd6, [r5], #-0
 754:	6d5f7961 	vldrvs.16	s15, [pc, #-194]	; 69a <__code_start__-0x7966>	; <UNPREDICTABLE>
 758:	2f2e0073 	svccs	0x002e0073
 75c:	66617473 			; <UNDEFINED> instruction: 0x66617473
 760:	72732d66 	rsbsvc	r2, r3, #6528	; 0x1980
 764:	6c632f63 	stclvs	15, cr2, [r3], #-396	; 0xfffffe74
 768:	2d6e6165 	stfcse	f6, [lr, #-404]!	; 0xfffffe6c
 76c:	6f626572 	svcvs	0x00626572
 770:	632e746f 			; <UNDEFINED> instruction: 0x632e746f
 774:	72617500 	rsbvc	r7, r1, #0, 10
 778:	6c665f74 	stclvs	15, cr5, [r6], #-464	; 0xfffffe30
 77c:	5f687375 	svcpl	0x00687375
 780:	5f007874 	svcpl	0x00007874
 784:	61747363 	cmnvs	r4, r3, ror #6
 788:	62007472 	andvs	r7, r0, #1912602624	; 0x72000000
 78c:	655f7373 	ldrbvs	r7, [pc, #-883]	; 421 <__code_start__-0x7bdf>
 790:	7500646e 	strvc	r6, [r0, #-1134]	; 0xfffffb92
 794:	5f747261 	svcpl	0x00747261
 798:	74696e69 	strbtvc	r6, [r9], #-3689	; 0xfffff197
 79c:	73756300 	cmnvc	r5, #0, 6
 7a0:	5f6d6f74 	svcpl	0x006d6f74
 7a4:	64616f6c 	strbtvs	r6, [r1], #-3948	; 0xfffff094
 7a8:	2e007265 	cdpcs	2, 0, cr7, cr0, cr5, {3}
 7ac:	6174732f 	cmnvs	r4, pc, lsr #6
 7b0:	732d6666 			; <UNDEFINED> instruction: 0x732d6666
 7b4:	632f6372 			; <UNDEFINED> instruction: 0x632f6372
 7b8:	72617473 	rsbvc	r7, r1, #1929379840	; 0x73000000
 7bc:	00632e74 	rsbeq	r2, r3, r4, ror lr
 7c0:	74756f5f 	ldrbtvc	r6, [r5], #-3935	; 0xfffff0a1
 7c4:	63796300 	cmnvs	r9, #0, 6
 7c8:	645f656c 	ldrbvs	r6, [pc], #-1388	; 7d0 <__code_start__-0x7830>
 7cc:	00666669 	rsbeq	r6, r6, r9, ror #12
 7d0:	7473616c 	ldrbtvc	r6, [r3], #-364	; 0xfffffe94
 7d4:	732f2e00 			; <UNDEFINED> instruction: 0x732f2e00
 7d8:	66666174 			; <UNDEFINED> instruction: 0x66666174
 7dc:	6372732d 	cmnvs	r2, #-1275068416	; 0xb4000000
 7e0:	7375632f 	cmnvc	r5, #-1140850688	; 0xbc000000
 7e4:	2d6d6f74 	stclcs	15, cr6, [sp, #-464]!	; 0xfffffe30
 7e8:	64616f6c 	strbtvs	r6, [r1], #-3948	; 0xfffff094
 7ec:	632e7265 			; <UNDEFINED> instruction: 0x632e7265
 7f0:	62657200 	rsbvs	r7, r5, #0, 4
 7f4:	5f746f6f 	svcpl	0x00746f6f
 7f8:	6c6c6163 	stfvse	f6, [ip], #-396	; 0xfffffe74
 7fc:	0074756f 	rsbseq	r7, r4, pc, ror #10
 800:	575f4d50 			; <UNDEFINED> instruction: 0x575f4d50
 804:	00474f44 	subeq	r4, r7, r4, asr #30
 808:	5f746573 	svcpl	0x00746573
 80c:	72657375 	rsbvc	r7, r5, #-738197503	; 0xd4000001
 810:	76656c5f 			; <UNDEFINED> instruction: 0x76656c5f
 814:	2e006c65 	cdpcs	12, 0, cr6, cr0, cr5, {3}
 818:	6174732f 	cmnvs	r4, pc, lsr #6
 81c:	732d6666 			; <UNDEFINED> instruction: 0x732d6666
 820:	722f6372 	eorvc	r6, pc, #-939524095	; 0xc8000001
 824:	6f6f6265 	svcvs	0x006f6265
 828:	00632e74 	rsbeq	r2, r3, r4, ror lr
 82c:	505f4d50 	subspl	r4, pc, r0, asr sp	; <UNPREDICTABLE>
 830:	57535341 	ldrbpl	r5, [r3, -r1, asr #6]
 834:	0044524f 	subeq	r5, r4, pc, asr #4
 838:	755f7461 	ldrbvc	r7, [pc, #-1121]	; 3df <__code_start__-0x7c21>
 83c:	5f726573 	svcpl	0x00726573
 840:	6576656c 	ldrbvs	r6, [r6, #-1388]!	; 0xfffffa94
 844:	4d50006c 	ldclmi	0, cr0, [r0, #-432]	; 0xfffffe50
 848:	5453525f 	ldrbpl	r5, [r3], #-607	; 0xfffffda1
 84c:	52575f43 	subspl	r5, r7, #268	; 0x10c
 850:	5f474643 	svcpl	0x00474643
 854:	4c4c5546 	cfstr64mi	mvdx5, [ip], {70}	; 0x46
 858:	5345525f 	movtpl	r5, #21087	; 0x525f
 85c:	50005445 	andpl	r5, r0, r5, asr #8
 860:	53525f4d 	cmppl	r2, #308	; 0x134
 864:	63004354 	movwvs	r4, #852	; 0x354
 868:	00727370 	rsbseq	r7, r2, r0, ror r3
 86c:	5f766564 	svcpl	0x00766564
 870:	72726162 	rsbsvc	r6, r2, #-2147483624	; 0x80000018
 874:	00726569 	rsbseq	r6, r2, r9, ror #10
 878:	616c6564 	cmnvs	ip, r4, ror #10
 87c:	65735f79 	ldrbvs	r5, [r3, #-3961]!	; 0xfffff087
 880:	2f2e0063 	svccs	0x002e0063
 884:	66617473 			; <UNDEFINED> instruction: 0x66617473
 888:	72732d66 	rsbsvc	r2, r3, #6528	; 0x1980
 88c:	69742f63 	ldmdbvs	r4!, {r0, r1, r5, r6, r8, r9, sl, fp, sp}^
 890:	2e72656d 	cdpcs	5, 7, cr6, cr2, cr13, {3}
 894:	45470063 	strbmi	r0, [r7, #-99]	; 0xffffff9d
 898:	00323354 	eorseq	r3, r2, r4, asr r3
 89c:	656d6974 	strbvs	r6, [sp, #-2420]!	; 0xfffff68c
 8a0:	65675f72 	strbvs	r5, [r7, #-3954]!	; 0xfffff08e
 8a4:	73755f74 	cmnvc	r5, #116, 30	; 0x1d0
 8a8:	64006365 	strvs	r6, [r0], #-869	; 0xfffffc9b
 8ac:	79616c65 	stmdbvc	r1!, {r0, r2, r5, r6, sl, fp, sp, lr}^
 8b0:	0073755f 	rsbseq	r7, r3, pc, asr r5
 8b4:	656d6974 	strbvs	r6, [sp, #-2420]!	; 0xfffff68c
 8b8:	65675f72 	strbvs	r5, [r7, #-3954]!	; 0xfffff08e
 8bc:	73755f74 	cmnvc	r5, #116, 30	; 0x1d0
 8c0:	725f6365 	subsvc	r6, pc, #-1811939327	; 0x94000001
 8c4:	70007761 	andvc	r7, r0, r1, ror #14
 8c8:	32337475 	eorscc	r7, r3, #1962934272	; 0x75000000
 8cc:	75616200 	strbvc	r6, [r1, #-512]!	; 0xfffffe00
 8d0:	61765f64 	cmnvs	r6, r4, ror #30
 8d4:	7473006c 	ldrbtvc	r0, [r3], #-108	; 0xffffff94
 8d8:	75007461 	strvc	r7, [r0, #-1121]	; 0xfffffb9f
 8dc:	5f747261 	svcpl	0x00747261
 8e0:	5f6e6163 	svcpl	0x006e6163
 8e4:	63746567 	cmnvs	r4, #432013312	; 0x19c00000
 8e8:	49504700 	ldmdbmi	r0, {r8, r9, sl, lr}^
 8ec:	55465f4f 	strbpl	r5, [r6, #-3919]	; 0xfffff0b1
 8f0:	4f5f434e 	svcmi	0x005f434e
 8f4:	55505455 	ldrbpl	r5, [r0, #-1109]	; 0xfffffbab
 8f8:	75610054 	strbvc	r0, [r1, #-84]!	; 0xffffffac
 8fc:	65705f78 	ldrbvs	r5, [r0, #-3960]!	; 0xfffff088
 900:	68706972 	ldmdavs	r0!, {r1, r4, r5, r6, r8, fp, sp, lr}^
 904:	61750073 	cmnvs	r5, r3, ror r0
 908:	632e7472 			; <UNDEFINED> instruction: 0x632e7472
 90c:	72617500 	rsbvc	r7, r1, #0, 10
 910:	61635f74 	smcvs	13812	; 0x35f4
 914:	75705f6e 	ldrbvc	r5, [r0, #-3950]!	; 0xfffff092
 918:	75006374 	strvc	r6, [r0, #-884]	; 0xfffffc8c
 91c:	5f747261 	svcpl	0x00747261
 920:	695f7874 	ldmdbvs	pc, {r2, r4, r5, r6, fp, ip, sp, lr}^	; <UNPREDICTABLE>
 924:	6d655f73 	stclvs	15, cr5, [r5, #-460]!	; 0xfffffe34
 928:	00797470 	rsbseq	r7, r9, r0, ror r4
 92c:	4f495047 	svcmi	0x00495047
 930:	4e55465f 	mrcmi	6, 2, r4, cr5, cr15, {2}
 934:	4c415f43 	mcrrmi	15, 4, r5, r1, cr3
 938:	47003054 	smlsdmi	r0, r4, r0, r3
 93c:	5f4f4950 	svcpl	0x004f4950
 940:	434e5546 	movtmi	r5, #58694	; 0xe546
 944:	544c415f 	strbpl	r4, [ip], #-351	; 0xfffffea1
 948:	50470031 	subpl	r0, r7, r1, lsr r0
 94c:	465f4f49 	ldrbmi	r4, [pc], -r9, asr #30
 950:	5f434e55 	svcpl	0x00434e55
 954:	32544c41 	subscc	r4, r4, #16640	; 0x4100
 958:	49504700 	ldmdbmi	r0, {r8, r9, sl, lr}^
 95c:	55465f4f 	strbpl	r5, [r6, #-3919]	; 0xfffff0b1
 960:	415f434e 	cmpmi	pc, lr, asr #6
 964:	0033544c 	eorseq	r5, r3, ip, asr #8
 968:	4f495047 	svcmi	0x00495047
 96c:	4e55465f 	mrcmi	6, 2, r4, cr5, cr15, {2}
 970:	4c415f43 	mcrrmi	15, 4, r5, r1, cr3
 974:	2f003554 	svccs	0x00003554
 978:	656d6f68 	strbvs	r6, [sp, #-3944]!	; 0xfffff098
 97c:	676e652f 	strbvs	r6, [lr, -pc, lsr #10]!
 980:	2f72656c 	svccs	0x0072656c
 984:	73616c63 	cmnvc	r1, #25344	; 0x6300
 988:	73632f73 	cmnvc	r3, #460	; 0x1cc
 98c:	6c303432 	cfldrsvs	mvf3, [r0], #-200	; 0xffffff38
 990:	32322d78 	eorscc	r2, r2, #120, 26	; 0x1e00
 994:	2f727073 	svccs	0x00727073
 998:	7062696c 	rsbvc	r6, r2, ip, ror #18
 99c:	74732f69 	ldrbtvc	r2, [r3], #-3945	; 0xfffff097
 9a0:	2d666661 	stclcs	6, cr6, [r6, #-388]!	; 0xfffffe7c
 9a4:	76697270 			; <UNDEFINED> instruction: 0x76697270
 9a8:	00657461 	rsbeq	r7, r5, r1, ror #8
 9ac:	64756162 	ldrbtvs	r6, [r5], #-354	; 0xfffffe9e
 9b0:	78756100 	ldmdavc	r5!, {r8, sp, lr}^
 9b4:	616e655f 	cmnvs	lr, pc, asr r5
 9b8:	73656c62 	cmnvc	r5, #25088	; 0x6200
 9bc:	72617500 	rsbvc	r7, r1, #0, 10
 9c0:	65675f74 	strbvs	r5, [r7, #-3956]!	; 0xfffff08c
 9c4:	47006374 	smlsdxmi	r0, r4, r3, r6
 9c8:	4320554e 			; <UNDEFINED> instruction: 0x4320554e
 9cc:	31203939 			; <UNDEFINED> instruction: 0x31203939
 9d0:	2e332e30 	mrccs	14, 1, r2, cr3, cr0, {1}
 9d4:	30322031 	eorscc	r2, r2, r1, lsr r0
 9d8:	38303132 	ldmdacc	r0!, {r1, r4, r5, r8, ip, sp}
 9dc:	28203432 	stmdacs	r0!, {r1, r4, r5, sl, ip, sp}
 9e0:	656c6572 	strbvs	r6, [ip, #-1394]!	; 0xfffffa8e
 9e4:	29657361 	stmdbcs	r5!, {r0, r5, r6, r8, r9, ip, sp, lr}^
 9e8:	636d2d20 	cmnvs	sp, #32, 26	; 0x800
 9ec:	613d7570 	teqvs	sp, r0, ror r5
 9f0:	31316d72 	teqcc	r1, r2, ror sp
 9f4:	7a6a3637 	bvc	1a8e2d8 <__bss_end__+0x1a83010>
 9f8:	20732d66 	rsbscs	r2, r3, r6, ror #26
 9fc:	75746d2d 	ldrbvc	r6, [r4, #-3373]!	; 0xfffff2d3
 a00:	613d656e 	teqvs	sp, lr, ror #10
 a04:	31316d72 	teqcc	r1, r2, ror sp
 a08:	7a6a3637 	bvc	1a8e2ec <__bss_end__+0x1a83024>
 a0c:	20732d66 	rsbscs	r2, r3, r6, ror #26
 a10:	6c666d2d 	stclvs	13, cr6, [r6], #-180	; 0xffffff4c
 a14:	2d74616f 	ldfcse	f6, [r4, #-444]!	; 0xfffffe44
 a18:	3d696261 	sfmcc	f6, 2, [r9, #-388]!	; 0xfffffe7c
 a1c:	74666f73 	strbtvc	r6, [r6], #-3955	; 0xfffff08d
 a20:	616d2d20 	cmnvs	sp, r0, lsr #26
 a24:	2d206d72 	stccs	13, cr6, [r0, #-456]!	; 0xfffffe38
 a28:	6372616d 	cmnvs	r2, #1073741851	; 0x4000001b
 a2c:	72613d68 	rsbvc	r3, r1, #104, 26	; 0x1a00
 a30:	6b36766d 	blvs	d9e3ec <__bss_end__+0xd93124>
 a34:	672d207a 			; <UNDEFINED> instruction: 0x672d207a
 a38:	20626467 	rsbcs	r6, r2, r7, ror #8
 a3c:	20674f2d 	rsbcs	r4, r7, sp, lsr #30
 a40:	6474732d 	ldrbtvs	r7, [r4], #-813	; 0xfffffcd3
 a44:	756e673d 	strbvc	r6, [lr, #-1853]!	; 0xfffff8c3
 a48:	2d203939 			; <UNDEFINED> instruction: 0x2d203939
 a4c:	65726666 	ldrbvs	r6, [r2, #-1638]!	; 0xfffff99a
 a50:	61747365 	cmnvs	r4, r5, ror #6
 a54:	6e69646e 	cdpvs	4, 6, cr6, cr9, cr14, {3}
 a58:	6e630067 	cdpvs	0, 6, cr0, cr3, cr7, {3}
 a5c:	75006c74 	strvc	r6, [r0, #-3188]	; 0xfffff38c
 a60:	5f747261 	svcpl	0x00747261
 a64:	61736964 	cmnvs	r3, r4, ror #18
 a68:	00656c62 	rsbeq	r6, r5, r2, ror #24
 a6c:	74726175 	ldrbtvc	r6, [r2], #-373	; 0xfffffe8b
 a70:	7361685f 	cmnvc	r1, #6225920	; 0x5f0000
 a74:	7461645f 	strbtvc	r6, [r1], #-1119	; 0xfffffba1
 a78:	50470061 	subpl	r0, r7, r1, rrx
 a7c:	465f4f49 	ldrbmi	r4, [pc], -r9, asr #30
 a80:	5f434e55 	svcpl	0x00434e55
 a84:	34544c41 	ldrbcc	r4, [r4], #-3137	; 0xfffff3bf
 a88:	5f726f00 	svcpl	0x00726f00
 a8c:	32336e69 	eorscc	r6, r3, #1680	; 0x690
 a90:	72637300 	rsbvc	r7, r3, #0, 6
 a94:	68637461 	stmdavs	r3!, {r0, r5, r6, sl, ip, sp, lr}^
 a98:	72617500 	rsbvc	r7, r1, #0, 10
 a9c:	6e610074 	mcrvs	0, 3, r0, cr1, cr4, {3}
 aa0:	6e695f64 	cdpvs	15, 6, cr5, cr9, cr4, {3}
 aa4:	75003233 	strvc	r3, [r0, #-563]	; 0xfffffdcd
 aa8:	5f747261 	svcpl	0x00747261
 aac:	63747570 	cmnvs	r4, #112, 10	; 0x1c000000
 ab0:	49504700 	ldmdbmi	r0, {r8, r9, sl, lr}^
 ab4:	55465f4f 	strbpl	r5, [r6, #-3919]	; 0xfffff0b1
 ab8:	495f434e 	ldmdbmi	pc, {r1, r2, r3, r6, r8, r9, lr}^	; <UNPREDICTABLE>
 abc:	5455504e 	ldrbpl	r5, [r5], #-78	; 0xffffffb2
 ac0:	69706700 	ldmdbvs	r0!, {r8, r9, sl, sp, lr}^
 ac4:	65735f6f 	ldrbvs	r5, [r3, #-3951]!	; 0xfffff091
 ac8:	75665f74 	strbvc	r5, [r6, #-3956]!	; 0xfffff08c
 acc:	6974636e 	ldmdbvs	r4!, {r1, r2, r3, r5, r6, r8, r9, sp, lr}^
 ad0:	67006e6f 	strvs	r6, [r0, -pc, ror #28]
 ad4:	32337465 	eorscc	r7, r3, #1694498816	; 0x65000000
 ad8:	616d6b00 	cmnvs	sp, r0, lsl #22
 adc:	636f6c6c 	cmnvs	pc, #108, 24	; 0x6c00
 ae0:	6165685f 	cmnvs	r5, pc, asr r8
 ae4:	74735f70 	ldrbtvc	r5, [r3], #-3952	; 0xfffff090
 ae8:	00747261 	rsbseq	r7, r4, r1, ror #4
 aec:	5f78616d 	svcpl	0x0078616d
 af0:	7479626e 	ldrbtvc	r6, [r9], #-622	; 0xfffffd92
 af4:	68007365 	stmdavs	r0, {r0, r2, r5, r6, r8, r9, ip, sp, lr}
 af8:	5f706165 	svcpl	0x00706165
 afc:	0078616d 	rsbseq	r6, r8, sp, ror #2
 b00:	6572666b 	ldrbvs	r6, [r2, #-1643]!	; 0xfffff995
 b04:	6c615f65 	stclvs	15, cr5, [r1], #-404	; 0xfffffe6c
 b08:	6f72006c 	svcvs	0x0072006c
 b0c:	75646e75 	strbvc	r6, [r4, #-3701]!	; 0xfffff18b
 b10:	666b0070 			; <UNDEFINED> instruction: 0x666b0070
 b14:	5f656572 	svcpl	0x00656572
 b18:	00706f70 	rsbseq	r6, r0, r0, ror pc
 b1c:	67696c61 	strbvs	r6, [r9, -r1, ror #24]!
 b20:	6e656d6e 	cdpvs	13, 6, cr6, cr5, cr14, {3}
 b24:	616d0074 	smcvs	53252	; 0xd004
 b28:	33755f78 	cmncc	r5, #120, 30	; 0x1e0
 b2c:	6e4f0032 	mcrvs	0, 2, r0, cr15, cr2, {1}
 b30:	00424d65 	subeq	r4, r2, r5, ror #26
 b34:	6c616d6b 	stclvs	13, cr6, [r1], #-428	; 0xfffffe54
 b38:	5f636f6c 	svcpl	0x00636f6c
 b3c:	70616568 	rsbvc	r6, r1, r8, ror #10
 b40:	646e655f 	strbtvs	r6, [lr], #-1375	; 0xfffffaa1
 b44:	616d6b00 	cmnvs	sp, r0, lsl #22
 b48:	636f6c6c 	cmnvs	pc, #108, 24	; 0x6c00
 b4c:	746f6e5f 	strbtvc	r6, [pc], #-3679	; b54 <__code_start__-0x74ac>
 b50:	6f72657a 	svcvs	0x0072657a
 b54:	5f736900 	svcpl	0x00736900
 b58:	32776f70 	rsbscc	r6, r7, #112, 30	; 0x1c0
 b5c:	616d6b00 	cmnvs	sp, r0, lsl #22
 b60:	636f6c6c 	cmnvs	pc, #108, 24	; 0x6c00
 b64:	6b00632e 	blvs	19824 <__bss_end__+0xe55c>
 b68:	6c6c616d 	stfvse	f6, [ip], #-436	; 0xfffffe4c
 b6c:	695f636f 	ldmdbvs	pc, {r0, r1, r2, r3, r5, r6, r8, r9, sp, lr}^	; <UNPREDICTABLE>
 b70:	0074696e 	rsbseq	r6, r4, lr, ror #18
 b74:	615f7369 	cmpvs	pc, r9, ror #6
 b78:	6e67696c 	vnmulvs.f16	s13, s14, s25	; <UNPREDICTABLE>
 b7c:	6b006465 	blvs	19d18 <__bss_end__+0xea50>
 b80:	6c6c616d 	stfvse	f6, [ip], #-436	; 0xfffffe4c
 b84:	685f636f 	ldmdavs	pc, {r0, r1, r2, r3, r5, r6, r8, r9, sp, lr}^	; <UNPREDICTABLE>
 b88:	5f706165 	svcpl	0x00706165
 b8c:	00727470 	rsbseq	r7, r2, r0, ror r4
 b90:	5f697072 	svcpl	0x00697072
 b94:	65736572 	ldrbvs	r6, [r3, #-1394]!	; 0xfffffa8e
 b98:	75705f74 	ldrbvc	r5, [r0, #-3956]!	; 0xfffff08c
 b9c:	6b006374 	blvs	19974 <__bss_end__+0xe6ac>
 ba0:	6c6c616d 	stfvse	f6, [ip], #-436	; 0xfffffe4c
 ba4:	615f636f 	cmpvs	pc, pc, ror #6
 ba8:	6e67696c 	vnmulvs.f16	s13, s14, s25	; <UNPREDICTABLE>
 bac:	67006465 	strvs	r6, [r0, -r5, ror #8]
 bb0:	5f6f6970 	svcpl	0x006f6970
 bb4:	30726c63 	rsbscc	r6, r2, r3, ror #24
 bb8:	69706700 	ldmdbvs	r0!, {r8, r9, sl, sp, lr}^
 bbc:	65735f6f 	ldrbvs	r5, [r3, #-3951]!	; 0xfffff091
 bc0:	67003074 	smlsdxvs	r0, r4, r0, r3
 bc4:	5f6f6970 	svcpl	0x006f6970
 bc8:	74697277 	strbtvc	r7, [r9], #-631	; 0xfffffd89
 bcc:	45440065 	strbmi	r0, [r4, #-101]	; 0xffffff9b
 bd0:	41565f56 	cmpmi	r6, r6, asr pc
 bd4:	0032334c 	eorseq	r3, r2, ip, asr #6
 bd8:	6f697067 	svcvs	0x00697067
 bdc:	6165725f 	cmnvs	r5, pc, asr r2
 be0:	2f2e0064 	svccs	0x002e0064
 be4:	2f637273 	svccs	0x00637273
 be8:	6f697067 	svcvs	0x00697067
 bec:	6700632e 	strvs	r6, [r0, -lr, lsr #6]
 bf0:	5f6f6970 	svcpl	0x006f6970
 bf4:	5f746573 	svcpl	0x00746573
 bf8:	75706e69 	ldrbvc	r6, [r0, #-3689]!	; 0xfffff197
 bfc:	70670074 	rsbvc	r0, r7, r4, ror r0
 c00:	735f6f69 	cmpvc	pc, #420	; 0x1a4
 c04:	6f5f7465 	svcvs	0x005f7465
 c08:	67006666 	strvs	r6, [r0, -r6, ror #12]
 c0c:	5f6f6970 	svcpl	0x006f6970
 c10:	5f746573 	svcpl	0x00746573
 c14:	7074756f 	rsbsvc	r7, r4, pc, ror #10
 c18:	67007475 	smlsdxvs	r0, r5, r4, r7
 c1c:	5f6f6970 	svcpl	0x006f6970
 c20:	636e7566 	cmnvs	lr, #427819008	; 0x19800000
 c24:	6700745f 	smlsdvs	r0, pc, r4, r7	; <UNPREDICTABLE>
 c28:	5f6f6970 	svcpl	0x006f6970
 c2c:	3076656c 	rsbscc	r6, r6, ip, ror #10
 c30:	6e616200 	cdpvs	2, 6, cr6, cr1, cr0, {0}
 c34:	7067006b 	rsbvc	r0, r7, fp, rrx
 c38:	735f6f69 	cmpvc	pc, #420	; 0x1a4
 c3c:	6f5f7465 	svcvs	0x005f7465
 c40:	6e69006e 	cdpvs	0, 6, cr0, cr9, cr14, {3}
 c44:	6e726574 	mrcvs	5, 3, r6, cr2, cr4, {3}
 c48:	705f6c61 	subsvc	r6, pc, r1, ror #24
 c4c:	68637475 	stmdavs	r3!, {r0, r2, r4, r5, r6, sl, ip, sp, lr}^
 c50:	72007261 	andvc	r7, r0, #268435462	; 0x10000006
 c54:	735f6970 	cmpvc	pc, #112, 18	; 0x1c0000
 c58:	705f7465 	subsvc	r7, pc, r5, ror #8
 c5c:	00637475 	rsbeq	r7, r3, r5, ror r4
 c60:	696c2f2e 	stmdbvs	ip!, {r1, r2, r3, r5, r8, r9, sl, fp, sp}^
 c64:	702f6362 	eorvc	r6, pc, r2, ror #6
 c68:	68637475 	stmdavs	r3!, {r0, r2, r4, r5, r6, sl, ip, sp, lr}^
 c6c:	632e7261 			; <UNDEFINED> instruction: 0x632e7261
 c70:	6c2f2e00 	stcvs	14, cr2, [pc], #-0	; c78 <__code_start__-0x7388>
 c74:	2f636269 	svccs	0x00636269
 c78:	63727473 	cmnvs	r2, #1929379840	; 0x73000000
 c7c:	632e7461 			; <UNDEFINED> instruction: 0x632e7461
 c80:	73656400 	cmnvc	r5, #0, 8
 c84:	2f2e0074 	svccs	0x002e0074
 c88:	6362696c 	cmnvs	r2, #108, 18	; 0x1b0000
 c8c:	7274732f 	rsbsvc	r7, r4, #-1140850688	; 0xbc000000
 c90:	2e706d63 	cdpcs	13, 7, cr6, cr0, cr3, {3}
 c94:	2f2e0063 	svccs	0x002e0063
 c98:	6362696c 	cmnvs	r2, #108, 18	; 0x1b0000
 c9c:	7274732f 	rsbsvc	r7, r4, #-1140850688	; 0xbc000000
 ca0:	2e797063 	cdpcs	0, 7, cr7, cr9, cr3, {3}
 ca4:	2f2e0063 	svccs	0x002e0063
 ca8:	6362696c 	cmnvs	r2, #108, 18	; 0x1b0000
 cac:	7274732f 	rsbsvc	r7, r4, #-1140850688	; 0xbc000000
 cb0:	706d636e 	rsbvc	r6, sp, lr, ror #6
 cb4:	2e00632e 	cdpcs	3, 0, cr6, cr0, cr14, {1}
 cb8:	6174732f 	cmnvs	r4, pc, lsr #6
 cbc:	732d6666 			; <UNDEFINED> instruction: 0x732d6666
 cc0:	642f6372 	strtvs	r6, [pc], #-882	; cc8 <__code_start__-0x7338>
 cc4:	75616665 	strbvc	r6, [r1, #-1637]!	; 0xfffff99b
 cc8:	722d746c 	eorvc	r7, sp, #108, 8	; 0x6c000000
 ccc:	6f6f6265 	svcvs	0x006f6265
 cd0:	61632d74 	smcvs	13012	; 0x32d4
 cd4:	756f6c6c 	strbvc	r6, [pc, #-3180]!	; 70 <__code_start__-0x7f90>
 cd8:	00632e74 	rsbeq	r2, r3, r4, ror lr

Disassembly of section .debug_frame:

00000000 <.debug_frame>:
   0:	0000000c 	andeq	r0, r0, ip
   4:	ffffffff 			; <UNDEFINED> instruction: 0xffffffff
   8:	7c020001 	stcvc	0, cr0, [r2], {1}
   c:	000d0c0e 	andeq	r0, sp, lr, lsl #24
  10:	00000028 	andeq	r0, r0, r8, lsr #32
  14:	00000000 	andeq	r0, r0, r0
  18:	00008044 	andeq	r8, r0, r4, asr #32
  1c:	000000d4 	ldrdeq	r0, [r0], -r4
  20:	420c0d42 	andmi	r0, ip, #4224	; 0x1080
  24:	06850784 	streq	r0, [r5], r4, lsl #15
  28:	048b0586 	streq	r0, [fp], #1414	; 0x586
  2c:	028e038d 	addeq	r0, lr, #872415234	; 0x34000002
  30:	040b0c42 	streq	r0, [fp], #-3138	; 0xfffff3be
  34:	0d0c0a54 	vstreq	s0, [ip, #-336]	; 0xfffffeb0
  38:	000b421c 	andeq	r4, fp, ip, lsl r2
  3c:	0000001c 	andeq	r0, r0, ip, lsl r0
  40:	00000000 	andeq	r0, r0, r0
  44:	00008120 	andeq	r8, r0, r0, lsr #2
  48:	00000024 	andeq	r0, r0, r4, lsr #32
  4c:	420c0d42 	andmi	r0, ip, #4224	; 0x1080
  50:	038d048b 	orreq	r0, sp, #-1962934272	; 0x8b000000
  54:	0c42028e 	sfmeq	f0, 2, [r2], {142}	; 0x8e
  58:	0000040b 	andeq	r0, r0, fp, lsl #8
  5c:	00000024 	andeq	r0, r0, r4, lsr #32
  60:	00000000 	andeq	r0, r0, r0
  64:	00008150 	andeq	r8, r0, r0, asr r1
  68:	0000009c 	muleq	r0, ip, r0
  6c:	420c0d42 	andmi	r0, ip, #4224	; 0x1080
  70:	038d048b 	orreq	r0, sp, #-1962934272	; 0x8b000000
  74:	0c42028e 	sfmeq	f0, 2, [r2], {142}	; 0x8e
  78:	0a68040b 	beq	1a010ac <__bss_end__+0x19f5de4>
  7c:	42100d0c 	andsmi	r0, r0, #12, 26	; 0x300
  80:	0000000b 	andeq	r0, r0, fp
  84:	0000000c 	andeq	r0, r0, ip
  88:	ffffffff 			; <UNDEFINED> instruction: 0xffffffff
  8c:	7c020001 	stcvc	0, cr0, [r2], {1}
  90:	000d0c0e 	andeq	r0, sp, lr, lsl #24
  94:	0000001c 	andeq	r0, r0, ip, lsl r0
  98:	00000084 	andeq	r0, r0, r4, lsl #1
  9c:	00008200 	andeq	r8, r0, r0, lsl #4
  a0:	0000001c 	andeq	r0, r0, ip, lsl r0
  a4:	420c0d42 	andmi	r0, ip, #4224	; 0x1080
  a8:	038d048b 	orreq	r0, sp, #-1962934272	; 0x8b000000
  ac:	0c42028e 	sfmeq	f0, 2, [r2], {142}	; 0x8e
  b0:	0000040b 	andeq	r0, r0, fp, lsl #8
  b4:	0000001c 	andeq	r0, r0, ip, lsl r0
  b8:	00000084 	andeq	r0, r0, r4, lsl #1
  bc:	0000822c 	andeq	r8, r0, ip, lsr #4
  c0:	0000001c 	andeq	r0, r0, ip, lsl r0
  c4:	420c0d42 	andmi	r0, ip, #4224	; 0x1080
  c8:	038d048b 	orreq	r0, sp, #-1962934272	; 0x8b000000
  cc:	0c42028e 	sfmeq	f0, 2, [r2], {142}	; 0x8e
  d0:	0000040b 	andeq	r0, r0, fp, lsl #8
  d4:	0000001c 	andeq	r0, r0, ip, lsl r0
  d8:	00000084 	andeq	r0, r0, r4, lsl #1
  dc:	0000825c 	andeq	r8, r0, ip, asr r2
  e0:	00000014 	andeq	r0, r0, r4, lsl r0
  e4:	420c0d42 	andmi	r0, ip, #4224	; 0x1080
  e8:	038d048b 	orreq	r0, sp, #-1962934272	; 0x8b000000
  ec:	0c42028e 	sfmeq	f0, 2, [r2], {142}	; 0x8e
  f0:	0000040b 	andeq	r0, r0, fp, lsl #8
  f4:	00000020 	andeq	r0, r0, r0, lsr #32
  f8:	00000084 	andeq	r0, r0, r4, lsl #1
  fc:	00008280 	andeq	r8, r0, r0, lsl #5
 100:	00000020 	andeq	r0, r0, r0, lsr #32
 104:	420c0d42 	andmi	r0, ip, #4224	; 0x1080
 108:	05850684 	streq	r0, [r5, #1668]	; 0x684
 10c:	038d048b 	orreq	r0, sp, #-1962934272	; 0x8b000000
 110:	0c42028e 	sfmeq	f0, 2, [r2], {142}	; 0x8e
 114:	0000040b 	andeq	r0, r0, fp, lsl #8
 118:	00000024 	andeq	r0, r0, r4, lsr #32
 11c:	00000084 	andeq	r0, r0, r4, lsl #1
 120:	000082b4 			; <UNDEFINED> instruction: 0x000082b4
 124:	00000038 	andeq	r0, r0, r8, lsr r0
 128:	420c0d42 	andmi	r0, ip, #4224	; 0x1080
 12c:	07850884 	streq	r0, [r5, r4, lsl #17]
 130:	05870686 	streq	r0, [r7, #1670]	; 0x686
 134:	038d048b 	orreq	r0, sp, #-1962934272	; 0x8b000000
 138:	0c42028e 	sfmeq	f0, 2, [r2], {142}	; 0x8e
 13c:	0000040b 	andeq	r0, r0, fp, lsl #8
 140:	00000020 	andeq	r0, r0, r0, lsr #32
 144:	00000084 	andeq	r0, r0, r4, lsl #1
 148:	00008304 	andeq	r8, r0, r4, lsl #6
 14c:	00000060 	andeq	r0, r0, r0, rrx
 150:	420c0d42 	andmi	r0, ip, #4224	; 0x1080
 154:	05850684 	streq	r0, [r5, #1668]	; 0x684
 158:	038d048b 	orreq	r0, sp, #-1962934272	; 0x8b000000
 15c:	0c42028e 	sfmeq	f0, 2, [r2], {142}	; 0x8e
 160:	0000040b 	andeq	r0, r0, fp, lsl #8
 164:	00000028 	andeq	r0, r0, r8, lsr #32
 168:	00000084 	andeq	r0, r0, r4, lsl #1
 16c:	00008370 	andeq	r8, r0, r0, ror r3
 170:	0000015c 	andeq	r0, r0, ip, asr r1
 174:	420c0d42 	andmi	r0, ip, #4224	; 0x1080
 178:	07850884 	streq	r0, [r5, r4, lsl #17]
 17c:	05870686 	streq	r0, [r7, #1670]	; 0x686
 180:	038d048b 	orreq	r0, sp, #-1962934272	; 0x8b000000
 184:	0c42028e 	sfmeq	f0, 2, [r2], {142}	; 0x8e
 188:	9a02040b 	bls	811bc <__bss_end__+0x75ef4>
 18c:	00200d0c 	eoreq	r0, r0, ip, lsl #26
 190:	0000001c 	andeq	r0, r0, ip, lsl r0
 194:	00000084 	andeq	r0, r0, r4, lsl #1
 198:	000084e0 	andeq	r8, r0, r0, ror #9
 19c:	00000044 	andeq	r0, r0, r4, asr #32
 1a0:	420c0d42 	andmi	r0, ip, #4224	; 0x1080
 1a4:	038d048b 	orreq	r0, sp, #-1962934272	; 0x8b000000
 1a8:	0c42028e 	sfmeq	f0, 2, [r2], {142}	; 0x8e
 1ac:	0000040b 	andeq	r0, r0, fp, lsl #8
 1b0:	00000028 	andeq	r0, r0, r8, lsr #32
 1b4:	00000084 	andeq	r0, r0, r4, lsl #1
 1b8:	00008530 	andeq	r8, r0, r0, lsr r5
 1bc:	000000fc 	strdeq	r0, [r0], -ip
 1c0:	420c0d42 	andmi	r0, ip, #4224	; 0x1080
 1c4:	07850884 	streq	r0, [r5, r4, lsl #17]
 1c8:	05870686 	streq	r0, [r7, #1670]	; 0x686
 1cc:	038d048b 	orreq	r0, sp, #-1962934272	; 0x8b000000
 1d0:	0c42028e 	sfmeq	f0, 2, [r2], {142}	; 0x8e
 1d4:	6e02040b 	cdpvs	4, 0, cr0, cr2, cr11, {0}
 1d8:	00200d0c 	eoreq	r0, r0, ip, lsl #26
 1dc:	0000000c 	andeq	r0, r0, ip
 1e0:	ffffffff 			; <UNDEFINED> instruction: 0xffffffff
 1e4:	7c020001 	stcvc	0, cr0, [r2], {1}
 1e8:	000d0c0e 	andeq	r0, sp, lr, lsl #24
 1ec:	0000001c 	andeq	r0, r0, ip, lsl r0
 1f0:	000001dc 	ldrdeq	r0, [r0], -ip
 1f4:	00008638 	andeq	r8, r0, r8, lsr r6
 1f8:	000000c4 	andeq	r0, r0, r4, asr #1
 1fc:	420c0d42 	andmi	r0, ip, #4224	; 0x1080
 200:	038d048b 	orreq	r0, sp, #-1962934272	; 0x8b000000
 204:	0c42028e 	sfmeq	f0, 2, [r2], {142}	; 0x8e
 208:	0000040b 	andeq	r0, r0, fp, lsl #8
 20c:	00000020 	andeq	r0, r0, r0, lsr #32
 210:	000001dc 	ldrdeq	r0, [r0], -ip
 214:	0000870c 	andeq	r8, r0, ip, lsl #14
 218:	0000005c 	andeq	r0, r0, ip, asr r0
 21c:	420c0d42 	andmi	r0, ip, #4224	; 0x1080
 220:	05850684 	streq	r0, [r5, #1668]	; 0x684
 224:	038d048b 	orreq	r0, sp, #-1962934272	; 0x8b000000
 228:	0c42028e 	sfmeq	f0, 2, [r2], {142}	; 0x8e
 22c:	0000040b 	andeq	r0, r0, fp, lsl #8
 230:	00000020 	andeq	r0, r0, r0, lsr #32
 234:	000001dc 	ldrdeq	r0, [r0], -ip
 238:	00008778 	andeq	r8, r0, r8, ror r7
 23c:	000000b4 	strheq	r0, [r0], -r4
 240:	420c0d42 	andmi	r0, ip, #4224	; 0x1080
 244:	05850684 	streq	r0, [r5, #1668]	; 0x684
 248:	038d048b 	orreq	r0, sp, #-1962934272	; 0x8b000000
 24c:	0c42028e 	sfmeq	f0, 2, [r2], {142}	; 0x8e
 250:	0000040b 	andeq	r0, r0, fp, lsl #8
 254:	0000000c 	andeq	r0, r0, ip
 258:	ffffffff 			; <UNDEFINED> instruction: 0xffffffff
 25c:	7c020001 	stcvc	0, cr0, [r2], {1}
 260:	000d0c0e 	andeq	r0, sp, lr, lsl #24
 264:	0000001c 	andeq	r0, r0, ip, lsl r0
 268:	00000254 	andeq	r0, r0, r4, asr r2
 26c:	00008838 	andeq	r8, r0, r8, lsr r8
 270:	00000048 	andeq	r0, r0, r8, asr #32
 274:	420c0d42 	andmi	r0, ip, #4224	; 0x1080
 278:	038d048b 	orreq	r0, sp, #-1962934272	; 0x8b000000
 27c:	0c42028e 	sfmeq	f0, 2, [r2], {142}	; 0x8e
 280:	0000040b 	andeq	r0, r0, fp, lsl #8
 284:	00000020 	andeq	r0, r0, r0, lsr #32
 288:	00000254 	andeq	r0, r0, r4, asr r2
 28c:	0000888c 	andeq	r8, r0, ip, lsl #17
 290:	00000030 	andeq	r0, r0, r0, lsr r0
 294:	420c0d42 	andmi	r0, ip, #4224	; 0x1080
 298:	05850684 	streq	r0, [r5, #1668]	; 0x684
 29c:	038d048b 	orreq	r0, sp, #-1962934272	; 0x8b000000
 2a0:	0c42028e 	sfmeq	f0, 2, [r2], {142}	; 0x8e
 2a4:	0000040b 	andeq	r0, r0, fp, lsl #8
 2a8:	00000024 	andeq	r0, r0, r4, lsr #32
 2ac:	00000254 	andeq	r0, r0, r4, asr r2
 2b0:	000088c8 	andeq	r8, r0, r8, asr #17
 2b4:	00000118 	andeq	r0, r0, r8, lsl r1
 2b8:	420c0d42 	andmi	r0, ip, #4224	; 0x1080
 2bc:	05850684 	streq	r0, [r5, #1668]	; 0x684
 2c0:	038d048b 	orreq	r0, sp, #-1962934272	; 0x8b000000
 2c4:	0c42028e 	sfmeq	f0, 2, [r2], {142}	; 0x8e
 2c8:	7802040b 	stmdavc	r2, {r0, r1, r3, sl}
 2cc:	00180d0c 	andseq	r0, r8, ip, lsl #26
 2d0:	00000020 	andeq	r0, r0, r0, lsr #32
 2d4:	00000254 	andeq	r0, r0, r4, asr r2
 2d8:	000089f0 	strdeq	r8, [r0], -r0
 2dc:	000000ac 	andeq	r0, r0, ip, lsr #1
 2e0:	420c0d42 	andmi	r0, ip, #4224	; 0x1080
 2e4:	038d048b 	orreq	r0, sp, #-1962934272	; 0x8b000000
 2e8:	0c42028e 	sfmeq	f0, 2, [r2], {142}	; 0x8e
 2ec:	4402040b 	strmi	r0, [r2], #-1035	; 0xfffffbf5
 2f0:	00100d0c 	andseq	r0, r0, ip, lsl #26
 2f4:	00000028 	andeq	r0, r0, r8, lsr #32
 2f8:	00000254 	andeq	r0, r0, r4, asr r2
 2fc:	00008aac 	andeq	r8, r0, ip, lsr #21
 300:	00000108 	andeq	r0, r0, r8, lsl #2
 304:	420c0d42 	andmi	r0, ip, #4224	; 0x1080
 308:	09850a84 	stmibeq	r5, {r2, r7, r9, fp}
 30c:	07870886 	streq	r0, [r7, r6, lsl #17]
 310:	05890688 	streq	r0, [r9, #1672]	; 0x688
 314:	038d048b 	orreq	r0, sp, #-1962934272	; 0x8b000000
 318:	0c42028e 	sfmeq	f0, 2, [r2], {142}	; 0x8e
 31c:	0000040b 	andeq	r0, r0, fp, lsl #8
 320:	0000002c 	andeq	r0, r0, ip, lsr #32
 324:	00000254 	andeq	r0, r0, r4, asr r2
 328:	00008bc4 	andeq	r8, r0, r4, asr #23
 32c:	000000f0 	strdeq	r0, [r0], -r0	; <UNPREDICTABLE>
 330:	420c0d42 	andmi	r0, ip, #4224	; 0x1080
 334:	08850984 	stmeq	r5, {r2, r7, r8, fp}
 338:	06870786 	streq	r0, [r7], r6, lsl #15
 33c:	048b0588 	streq	r0, [fp], #1416	; 0x588
 340:	028e038d 	addeq	r0, lr, #872415234	; 0x34000002
 344:	040b0c42 	streq	r0, [fp], #-3138	; 0xfffff3be
 348:	0d0c6202 	sfmeq	f6, 4, [ip, #-8]
 34c:	00000024 	andeq	r0, r0, r4, lsr #32
 350:	00000028 	andeq	r0, r0, r8, lsr #32
 354:	00000254 	andeq	r0, r0, r4, asr r2
 358:	00008cc0 	andeq	r8, r0, r0, asr #25
 35c:	000000ac 	andeq	r0, r0, ip, lsr #1
 360:	420c0d42 	andmi	r0, ip, #4224	; 0x1080
 364:	05850684 	streq	r0, [r5, #1668]	; 0x684
 368:	038d048b 	orreq	r0, sp, #-1962934272	; 0x8b000000
 36c:	0c42028e 	sfmeq	f0, 2, [r2], {142}	; 0x8e
 370:	0a66040b 	beq	19813a4 <__bss_end__+0x19760dc>
 374:	42180d0c 	andsmi	r0, r8, #12, 26	; 0x300
 378:	0000000b 	andeq	r0, r0, fp
 37c:	0000001c 	andeq	r0, r0, ip, lsl r0
 380:	00000254 	andeq	r0, r0, r4, asr r2
 384:	00008d80 	andeq	r8, r0, r0, lsl #27
 388:	00000014 	andeq	r0, r0, r4, lsl r0
 38c:	420c0d42 	andmi	r0, ip, #4224	; 0x1080
 390:	038d048b 	orreq	r0, sp, #-1962934272	; 0x8b000000
 394:	0c42028e 	sfmeq	f0, 2, [r2], {142}	; 0x8e
 398:	0000040b 	andeq	r0, r0, fp, lsl #8
 39c:	0000001c 	andeq	r0, r0, ip, lsl r0
 3a0:	00000254 	andeq	r0, r0, r4, asr r2
 3a4:	00008da8 	andeq	r8, r0, r8, lsr #27
 3a8:	00000050 	andeq	r0, r0, r0, asr r0
 3ac:	420c0d42 	andmi	r0, ip, #4224	; 0x1080
 3b0:	038d048b 	orreq	r0, sp, #-1962934272	; 0x8b000000
 3b4:	0c42028e 	sfmeq	f0, 2, [r2], {142}	; 0x8e
 3b8:	0000040b 	andeq	r0, r0, fp, lsl #8
 3bc:	00000020 	andeq	r0, r0, r0, lsr #32
 3c0:	00000254 	andeq	r0, r0, r4, asr r2
 3c4:	00008e10 	andeq	r8, r0, r0, lsl lr
 3c8:	00000058 	andeq	r0, r0, r8, asr r0
 3cc:	420c0d42 	andmi	r0, ip, #4224	; 0x1080
 3d0:	05850684 	streq	r0, [r5, #1668]	; 0x684
 3d4:	038d048b 	orreq	r0, sp, #-1962934272	; 0x8b000000
 3d8:	0c42028e 	sfmeq	f0, 2, [r2], {142}	; 0x8e
 3dc:	0000040b 	andeq	r0, r0, fp, lsl #8
 3e0:	0000001c 	andeq	r0, r0, ip, lsl r0
 3e4:	00000254 	andeq	r0, r0, r4, asr r2
 3e8:	00008e74 	andeq	r8, r0, r4, ror lr
 3ec:	00000018 	andeq	r0, r0, r8, lsl r0
 3f0:	420c0d42 	andmi	r0, ip, #4224	; 0x1080
 3f4:	038d048b 	orreq	r0, sp, #-1962934272	; 0x8b000000
 3f8:	0c42028e 	sfmeq	f0, 2, [r2], {142}	; 0x8e
 3fc:	0000040b 	andeq	r0, r0, fp, lsl #8
 400:	0000001c 	andeq	r0, r0, ip, lsl r0
 404:	00000254 	andeq	r0, r0, r4, asr r2
 408:	00008ea0 	andeq	r8, r0, r0, lsr #29
 40c:	00000034 	andeq	r0, r0, r4, lsr r0
 410:	420c0d42 	andmi	r0, ip, #4224	; 0x1080
 414:	038d048b 	orreq	r0, sp, #-1962934272	; 0x8b000000
 418:	0c42028e 	sfmeq	f0, 2, [r2], {142}	; 0x8e
 41c:	0000040b 	andeq	r0, r0, fp, lsl #8
 420:	0000000c 	andeq	r0, r0, ip
 424:	ffffffff 			; <UNDEFINED> instruction: 0xffffffff
 428:	7c020001 	stcvc	0, cr0, [r2], {1}
 42c:	000d0c0e 	andeq	r0, sp, lr, lsl #24
 430:	0000001c 	andeq	r0, r0, ip, lsl r0
 434:	00000420 	andeq	r0, r0, r0, lsr #8
 438:	00008edc 	ldrdeq	r8, [r0], -ip
 43c:	00000080 	andeq	r0, r0, r0, lsl #1
 440:	84180e42 	ldrhi	r0, [r8], #-3650	; 0xfffff1be
 444:	86058506 	strhi	r8, [r5], -r6, lsl #10
 448:	88038704 	stmdahi	r3, {r2, r8, r9, sl, pc}
 44c:	00018e02 	andeq	r8, r1, r2, lsl #28
 450:	0000000c 	andeq	r0, r0, ip
 454:	00000420 	andeq	r0, r0, r0, lsr #8
 458:	00008f5c 	andeq	r8, r0, ip, asr pc
 45c:	00000020 	andeq	r0, r0, r0, lsr #32
 460:	0000000c 	andeq	r0, r0, ip
 464:	ffffffff 			; <UNDEFINED> instruction: 0xffffffff
 468:	7c020001 	stcvc	0, cr0, [r2], {1}
 46c:	000d0c0e 	andeq	r0, sp, lr, lsl #24
 470:	00000014 	andeq	r0, r0, r4, lsl r0
 474:	00000460 	andeq	r0, r0, r0, ror #8
 478:	00008f7c 	andeq	r8, r0, ip, ror pc
 47c:	00000078 	andeq	r0, r0, r8, ror r0
 480:	84080e42 	strhi	r0, [r8], #-3650	; 0xfffff1be
 484:	00018e02 	andeq	r8, r1, r2, lsl #28
 488:	0000000c 	andeq	r0, r0, ip
 48c:	ffffffff 			; <UNDEFINED> instruction: 0xffffffff
 490:	7c020001 	stcvc	0, cr0, [r2], {1}
 494:	000d0c0e 	andeq	r0, sp, lr, lsl #24
 498:	00000034 	andeq	r0, r0, r4, lsr r0
 49c:	00000488 	andeq	r0, r0, r8, lsl #9
 4a0:	00008ff4 	strdeq	r8, [r0], -r4
 4a4:	00000058 	andeq	r0, r0, r8, asr r0
 4a8:	80100e42 	andshi	r0, r0, r2, asr #28
 4ac:	82038104 	andhi	r8, r3, #1
 4b0:	42018302 	andmi	r8, r1, #134217728	; 0x8000000
 4b4:	07841c0e 	streq	r1, [r4, lr, lsl #24]
 4b8:	058e0685 	streq	r0, [lr, #1669]	; 0x685
 4bc:	5a280e44 	bpl	a03dd4 <__bss_end__+0x9f8b0c>
 4c0:	ce421c0e 	cdpgt	12, 4, cr1, cr2, cr14, {0}
 4c4:	100ec4c5 	andne	ip, lr, r5, asr #9
 4c8:	c1c2c342 	bicgt	ip, r2, r2, asr #6
 4cc:	00000ec0 	andeq	r0, r0, r0, asr #29
 4d0:	0000000c 	andeq	r0, r0, ip
 4d4:	ffffffff 			; <UNDEFINED> instruction: 0xffffffff
 4d8:	7c020001 	stcvc	0, cr0, [r2], {1}
 4dc:	000d0c0e 	andeq	r0, sp, lr, lsl #24
 4e0:	00000018 	andeq	r0, r0, r8, lsl r0
 4e4:	000004d0 	ldrdeq	r0, [r0], -r0	; <UNPREDICTABLE>
 4e8:	0000904c 	andeq	r9, r0, ip, asr #32
 4ec:	00000038 	andeq	r0, r0, r8, lsr r0
 4f0:	84100e42 	ldrhi	r0, [r0], #-3650	; 0xfffff1be
 4f4:	86038504 	strhi	r8, [r3], -r4, lsl #10
 4f8:	00018e02 	andeq	r8, r1, r2, lsl #28
 4fc:	0000000c 	andeq	r0, r0, ip
 500:	ffffffff 			; <UNDEFINED> instruction: 0xffffffff
 504:	7c020001 	stcvc	0, cr0, [r2], {1}
 508:	000d0c0e 	andeq	r0, sp, lr, lsl #24
 50c:	0000002c 	andeq	r0, r0, ip, lsr #32
 510:	000004fc 	strdeq	r0, [r0], -ip
 514:	00009084 	andeq	r9, r0, r4, lsl #1
 518:	00000328 	andeq	r0, r0, r8, lsr #6
 51c:	84180e42 	ldrhi	r0, [r8], #-3650	; 0xfffff1be
 520:	86058506 	strhi	r8, [r5], -r6, lsl #10
 524:	88038704 	stmdahi	r3, {r2, r8, r9, sl, pc}
 528:	46018e02 	strmi	r8, [r1], -r2, lsl #28
 52c:	c002600e 	andgt	r6, r2, lr
 530:	42180e0a 	andsmi	r0, r8, #160	; 0xa0
 534:	0a8e020b 	beq	fe380d68 <__bss_end__+0xfe375aa0>
 538:	0b42180e 	bleq	1086578 <__bss_end__+0x107b2b0>
 53c:	00000014 	andeq	r0, r0, r4, lsl r0
 540:	000004fc 	strdeq	r0, [r0], -ip
 544:	000093ac 	andeq	r9, r0, ip, lsr #7
 548:	00000060 	andeq	r0, r0, r0, rrx
 54c:	8e040e52 	mcrhi	14, 0, r0, cr4, cr2, {2}
 550:	100e4401 	andne	r4, lr, r1, lsl #8
 554:	0000002c 	andeq	r0, r0, ip, lsr #32
 558:	000004fc 	strdeq	r0, [r0], -ip
 55c:	0000940c 	andeq	r9, r0, ip, lsl #8
 560:	0000062c 	andeq	r0, r0, ip, lsr #12
 564:	84240e42 	strthi	r0, [r4], #-3650	; 0xfffff1be
 568:	86088509 	strhi	r8, [r8], -r9, lsl #10
 56c:	88068707 	stmdahi	r6, {r0, r1, r2, r8, r9, sl, pc}
 570:	8a048905 	bhi	12298c <__bss_end__+0x1176c4>
 574:	8e028b03 	vmlahi.f64	d8, d2, d3
 578:	c00e5201 	andgt	r5, lr, r1, lsl #4
 57c:	0a860202 	beq	fe180d8c <__bss_end__+0xfe175ac4>
 580:	0b42240e 	bleq	10895c0 <__bss_end__+0x107e2f8>
 584:	0000000c 	andeq	r0, r0, ip
 588:	ffffffff 			; <UNDEFINED> instruction: 0xffffffff
 58c:	7c020001 	stcvc	0, cr0, [r2], {1}
 590:	000d0c0e 	andeq	r0, sp, lr, lsl #24
 594:	00000014 	andeq	r0, r0, r4, lsl r0
 598:	00000584 	andeq	r0, r0, r4, lsl #11
 59c:	00009a38 	andeq	r9, r0, r8, lsr sl
 5a0:	0000002c 	andeq	r0, r0, ip, lsr #32
 5a4:	84080e44 	strhi	r0, [r8], #-3652	; 0xfffff1bc
 5a8:	00018e02 	andeq	r8, r1, r2, lsl #28
 5ac:	0000000c 	andeq	r0, r0, ip
 5b0:	ffffffff 			; <UNDEFINED> instruction: 0xffffffff
 5b4:	7c020001 	stcvc	0, cr0, [r2], {1}
 5b8:	000d0c0e 	andeq	r0, sp, lr, lsl #24
 5bc:	00000018 	andeq	r0, r0, r8, lsl r0
 5c0:	000005ac 	andeq	r0, r0, ip, lsr #11
 5c4:	00009a64 	andeq	r9, r0, r4, ror #20
 5c8:	00000128 	andeq	r0, r0, r8, lsr #2
 5cc:	84100e42 	ldrhi	r0, [r0], #-3650	; 0xfffff1be
 5d0:	86038504 	strhi	r8, [r3], -r4, lsl #10
 5d4:	00018e02 	andeq	r8, r1, r2, lsl #28
 5d8:	0000000c 	andeq	r0, r0, ip
 5dc:	ffffffff 			; <UNDEFINED> instruction: 0xffffffff
 5e0:	7c020001 	stcvc	0, cr0, [r2], {1}
 5e4:	000d0c0e 	andeq	r0, sp, lr, lsl #24
 5e8:	0000000c 	andeq	r0, r0, ip
 5ec:	000005d8 	ldrdeq	r0, [r0], -r8
 5f0:	00009b8c 	andeq	r9, r0, ip, lsl #23
 5f4:	00000004 	andeq	r0, r0, r4
 5f8:	0000000c 	andeq	r0, r0, ip
 5fc:	ffffffff 			; <UNDEFINED> instruction: 0xffffffff
 600:	7c020001 	stcvc	0, cr0, [r2], {1}
 604:	000d0c0e 	andeq	r0, sp, lr, lsl #24
 608:	0000000c 	andeq	r0, r0, ip
 60c:	000005f8 	strdeq	r0, [r0], -r8
 610:	00009b90 	muleq	r0, r0, fp
 614:	00000018 	andeq	r0, r0, r8, lsl r0
 618:	0000000c 	andeq	r0, r0, ip
 61c:	000005f8 	strdeq	r0, [r0], -r8
 620:	00009ba8 	andeq	r9, r0, r8, lsr #23
 624:	00000014 	andeq	r0, r0, r4, lsl r0
 628:	00000014 	andeq	r0, r0, r4, lsl r0
 62c:	000005f8 	strdeq	r0, [r0], -r8
 630:	00009bbc 			; <UNDEFINED> instruction: 0x00009bbc
 634:	00000060 	andeq	r0, r0, r0, rrx
 638:	84080e42 	strhi	r0, [r8], #-3650	; 0xfffff1be
 63c:	00018e02 	andeq	r8, r1, r2, lsl #28
 640:	0000000c 	andeq	r0, r0, ip
 644:	ffffffff 			; <UNDEFINED> instruction: 0xffffffff
 648:	7c020001 	stcvc	0, cr0, [r2], {1}
 64c:	000d0c0e 	andeq	r0, sp, lr, lsl #24
 650:	0000000c 	andeq	r0, r0, ip
 654:	00000640 	andeq	r0, r0, r0, asr #12
 658:	00009c1c 	andeq	r9, r0, ip, lsl ip
 65c:	0000000c 	andeq	r0, r0, ip
 660:	00000014 	andeq	r0, r0, r4, lsl r0
 664:	00000640 	andeq	r0, r0, r0, asr #12
 668:	00009c28 	andeq	r9, r0, r8, lsr #24
 66c:	00000024 	andeq	r0, r0, r4, lsr #32
 670:	84080e42 	strhi	r0, [r8], #-3650	; 0xfffff1be
 674:	00018e02 	andeq	r8, r1, r2, lsl #28
 678:	0000001c 	andeq	r0, r0, ip, lsl r0
 67c:	00000640 	andeq	r0, r0, r0, asr #12
 680:	00009c4c 	andeq	r9, r0, ip, asr #24
 684:	00000048 	andeq	r0, r0, r8, asr #32
 688:	84180e42 	ldrhi	r0, [r8], #-3650	; 0xfffff1be
 68c:	86058506 	strhi	r8, [r5], -r6, lsl #10
 690:	88038704 	stmdahi	r3, {r2, r8, r9, sl, pc}
 694:	00018e02 	andeq	r8, r1, r2, lsl #28
 698:	0000001c 	andeq	r0, r0, ip, lsl r0
 69c:	00000640 	andeq	r0, r0, r0, asr #12
 6a0:	00009c94 	muleq	r0, r4, ip
 6a4:	00000050 	andeq	r0, r0, r0, asr r0
 6a8:	84180e42 	ldrhi	r0, [r8], #-3650	; 0xfffff1be
 6ac:	86058506 	strhi	r8, [r5], -r6, lsl #10
 6b0:	88038704 	stmdahi	r3, {r2, r8, r9, sl, pc}
 6b4:	00018e02 	andeq	r8, r1, r2, lsl #28
 6b8:	0000001c 	andeq	r0, r0, ip, lsl r0
 6bc:	00000640 	andeq	r0, r0, r0, asr #12
 6c0:	00009ce4 	andeq	r9, r0, r4, ror #25
 6c4:	00000054 	andeq	r0, r0, r4, asr r0
 6c8:	84180e42 	ldrhi	r0, [r8], #-3650	; 0xfffff1be
 6cc:	86058506 	strhi	r8, [r5], -r6, lsl #10
 6d0:	88038704 	stmdahi	r3, {r2, r8, r9, sl, pc}
 6d4:	00018e02 	andeq	r8, r1, r2, lsl #28
 6d8:	0000000c 	andeq	r0, r0, ip
 6dc:	ffffffff 			; <UNDEFINED> instruction: 0xffffffff
 6e0:	7c020001 	stcvc	0, cr0, [r2], {1}
 6e4:	000d0c0e 	andeq	r0, sp, lr, lsl #24
 6e8:	00000018 	andeq	r0, r0, r8, lsl r0
 6ec:	000006d8 	ldrdeq	r0, [r0], -r8
 6f0:	00009d38 	andeq	r9, r0, r8, lsr sp
 6f4:	00000020 	andeq	r0, r0, r0, lsr #32
 6f8:	84100e42 	ldrhi	r0, [r0], #-3650	; 0xfffff1be
 6fc:	86038504 	strhi	r8, [r3], -r4, lsl #10
 700:	00018e02 	andeq	r8, r1, r2, lsl #28
 704:	00000018 	andeq	r0, r0, r8, lsl r0
 708:	000006d8 	ldrdeq	r0, [r0], -r8
 70c:	00009d58 	andeq	r9, r0, r8, asr sp
 710:	00000020 	andeq	r0, r0, r0, lsr #32
 714:	84100e42 	ldrhi	r0, [r0], #-3650	; 0xfffff1be
 718:	86038504 	strhi	r8, [r3], -r4, lsl #10
 71c:	00018e02 	andeq	r8, r1, r2, lsl #28
 720:	00000014 	andeq	r0, r0, r4, lsl r0
 724:	000006d8 	ldrdeq	r0, [r0], -r8
 728:	00009d78 	andeq	r9, r0, r8, ror sp
 72c:	000000b0 	strheq	r0, [r0], -r0	; <UNPREDICTABLE>
 730:	84080e42 	strhi	r0, [r8], #-3650	; 0xfffff1be
 734:	00018e02 	andeq	r8, r1, r2, lsl #28
 738:	00000014 	andeq	r0, r0, r4, lsl r0
 73c:	000006d8 	ldrdeq	r0, [r0], -r8
 740:	00009e28 	andeq	r9, r0, r8, lsr #28
 744:	00000018 	andeq	r0, r0, r8, lsl r0
 748:	84080e42 	strhi	r0, [r8], #-3650	; 0xfffff1be
 74c:	00018e02 	andeq	r8, r1, r2, lsl #28
 750:	00000014 	andeq	r0, r0, r4, lsl r0
 754:	000006d8 	ldrdeq	r0, [r0], -r8
 758:	00009e40 	andeq	r9, r0, r0, asr #28
 75c:	00000020 	andeq	r0, r0, r0, lsr #32
 760:	84080e42 	strhi	r0, [r8], #-3650	; 0xfffff1be
 764:	00018e02 	andeq	r8, r1, r2, lsl #28
 768:	00000014 	andeq	r0, r0, r4, lsl r0
 76c:	000006d8 	ldrdeq	r0, [r0], -r8
 770:	00009e60 	andeq	r9, r0, r0, ror #28
 774:	00000030 	andeq	r0, r0, r0, lsr r0
 778:	84080e42 	strhi	r0, [r8], #-3650	; 0xfffff1be
 77c:	00018e02 	andeq	r8, r1, r2, lsl #28
 780:	00000014 	andeq	r0, r0, r4, lsl r0
 784:	000006d8 	ldrdeq	r0, [r0], -r8
 788:	00009e90 	muleq	r0, r0, lr
 78c:	00000030 	andeq	r0, r0, r0, lsr r0
 790:	84080e42 	strhi	r0, [r8], #-3650	; 0xfffff1be
 794:	00018e02 	andeq	r8, r1, r2, lsl #28
 798:	00000014 	andeq	r0, r0, r4, lsl r0
 79c:	000006d8 	ldrdeq	r0, [r0], -r8
 7a0:	00009ec0 	andeq	r9, r0, r0, asr #29
 7a4:	00000010 	andeq	r0, r0, r0, lsl r0
 7a8:	84080e42 	strhi	r0, [r8], #-3650	; 0xfffff1be
 7ac:	00018e02 	andeq	r8, r1, r2, lsl #28
 7b0:	00000014 	andeq	r0, r0, r4, lsl r0
 7b4:	000006d8 	ldrdeq	r0, [r0], -r8
 7b8:	00009ed0 	ldrdeq	r9, [r0], -r0
 7bc:	00000020 	andeq	r0, r0, r0, lsr #32
 7c0:	84080e42 	strhi	r0, [r8], #-3650	; 0xfffff1be
 7c4:	00018e02 	andeq	r8, r1, r2, lsl #28
 7c8:	00000014 	andeq	r0, r0, r4, lsl r0
 7cc:	000006d8 	ldrdeq	r0, [r0], -r8
 7d0:	00009ef0 	strdeq	r9, [r0], -r0
 7d4:	00000014 	andeq	r0, r0, r4, lsl r0
 7d8:	84080e42 	strhi	r0, [r8], #-3650	; 0xfffff1be
 7dc:	00018e02 	andeq	r8, r1, r2, lsl #28
 7e0:	00000014 	andeq	r0, r0, r4, lsl r0
 7e4:	000006d8 	ldrdeq	r0, [r0], -r8
 7e8:	00009f04 	andeq	r9, r0, r4, lsl #30
 7ec:	00000024 	andeq	r0, r0, r4, lsr #32
 7f0:	84080e42 	strhi	r0, [r8], #-3650	; 0xfffff1be
 7f4:	00018e02 	andeq	r8, r1, r2, lsl #28
 7f8:	0000000c 	andeq	r0, r0, ip
 7fc:	ffffffff 			; <UNDEFINED> instruction: 0xffffffff
 800:	7c020001 	stcvc	0, cr0, [r2], {1}
 804:	000d0c0e 	andeq	r0, sp, lr, lsl #24
 808:	0000000c 	andeq	r0, r0, ip
 80c:	000007f8 	strdeq	r0, [r0], -r8
 810:	00009f28 	andeq	r9, r0, r8, lsr #30
 814:	00000010 	andeq	r0, r0, r0, lsl r0
 818:	0000000c 	andeq	r0, r0, ip
 81c:	000007f8 	strdeq	r0, [r0], -r8
 820:	00009f38 	andeq	r9, r0, r8, lsr pc
 824:	00000010 	andeq	r0, r0, r0, lsl r0
 828:	0000000c 	andeq	r0, r0, ip
 82c:	000007f8 	strdeq	r0, [r0], -r8
 830:	00009f48 	andeq	r9, r0, r8, asr #30
 834:	00000010 	andeq	r0, r0, r0, lsl r0
 838:	0000001c 	andeq	r0, r0, ip, lsl r0
 83c:	000007f8 	strdeq	r0, [r0], -r8
 840:	00009f58 	andeq	r9, r0, r8, asr pc
 844:	0000009c 	muleq	r0, ip, r0
 848:	8e040e42 	cdphi	14, 0, cr0, cr4, cr2, {2}
 84c:	100e4201 	andne	r4, lr, r1, lsl #4
 850:	040e0a58 	streq	r0, [lr], #-2648	; 0xfffff5a8
 854:	00000b42 	andeq	r0, r0, r2, asr #22
 858:	00000014 	andeq	r0, r0, r4, lsl r0
 85c:	000007f8 	strdeq	r0, [r0], -r8
 860:	00009ff4 	strdeq	r9, [r0], -r4
 864:	00000058 	andeq	r0, r0, r8, asr r0
 868:	84080e42 	strhi	r0, [r8], #-3650	; 0xfffff1be
 86c:	00018e02 	andeq	r8, r1, r2, lsl #28
 870:	0000001c 	andeq	r0, r0, ip, lsl r0
 874:	000007f8 	strdeq	r0, [r0], -r8
 878:	0000a04c 	andeq	sl, r0, ip, asr #32
 87c:	00000098 	muleq	r0, r8, r0
 880:	8e040e42 	cdphi	14, 0, cr0, cr4, cr2, {2}
 884:	100e4201 	andne	r4, lr, r1, lsl #4
 888:	040e0a58 	streq	r0, [lr], #-2648	; 0xfffff5a8
 88c:	00000b42 	andeq	r0, r0, r2, asr #22
 890:	00000020 	andeq	r0, r0, r0, lsr #32
 894:	000007f8 	strdeq	r0, [r0], -r8
 898:	0000a0e4 	andeq	sl, r0, r4, ror #1
 89c:	00000064 	andeq	r0, r0, r4, rrx
 8a0:	840c0e42 	strhi	r0, [ip], #-3650	; 0xfffff1be
 8a4:	8e028503 	cfsh32hi	mvfx8, mvfx2, #3
 8a8:	180e4201 	stmdane	lr, {r0, r9, lr}
 8ac:	0c0e0a54 			; <UNDEFINED> instruction: 0x0c0e0a54
 8b0:	00000b42 	andeq	r0, r0, r2, asr #22
 8b4:	0000001c 	andeq	r0, r0, ip, lsl r0
 8b8:	000007f8 	strdeq	r0, [r0], -r8
 8bc:	0000a148 	andeq	sl, r0, r8, asr #2
 8c0:	00000118 	andeq	r0, r0, r8, lsl r1
 8c4:	8e040e42 	cdphi	14, 0, cr0, cr4, cr2, {2}
 8c8:	100e4201 	andne	r4, lr, r1, lsl #4
 8cc:	040e0a6c 	streq	r0, [lr], #-2668	; 0xfffff594
 8d0:	00000b42 	andeq	r0, r0, r2, asr #22
 8d4:	0000000c 	andeq	r0, r0, ip
 8d8:	000007f8 	strdeq	r0, [r0], -r8
 8dc:	0000a260 	andeq	sl, r0, r0, ror #4
 8e0:	00000004 	andeq	r0, r0, r4
 8e4:	0000000c 	andeq	r0, r0, ip
 8e8:	000007f8 	strdeq	r0, [r0], -r8
 8ec:	0000a264 	andeq	sl, r0, r4, ror #4
 8f0:	00000014 	andeq	r0, r0, r4, lsl r0
 8f4:	00000014 	andeq	r0, r0, r4, lsl r0
 8f8:	000007f8 	strdeq	r0, [r0], -r8
 8fc:	0000a278 	andeq	sl, r0, r8, ror r2
 900:	00000060 	andeq	r0, r0, r0, rrx
 904:	8e040e58 	mcrhi	14, 0, r0, cr4, cr8, {2}
 908:	100e4201 	andne	r4, lr, r1, lsl #4
 90c:	0000000c 	andeq	r0, r0, ip
 910:	ffffffff 			; <UNDEFINED> instruction: 0xffffffff
 914:	7c020001 	stcvc	0, cr0, [r2], {1}
 918:	000d0c0e 	andeq	r0, sp, lr, lsl #24
 91c:	00000020 	andeq	r0, r0, r0, lsr #32
 920:	0000090c 	andeq	r0, r0, ip, lsl #18
 924:	0000a2d8 	ldrdeq	sl, [r0], -r8
 928:	00000060 	andeq	r0, r0, r0, rrx
 92c:	84100e48 	ldrhi	r0, [r0], #-3656	; 0xfffff1b8
 930:	86038504 	strhi	r8, [r3], -r4, lsl #10
 934:	64018e02 	strvs	r8, [r1], #-3586	; 0xfffff1fe
 938:	c4c5c6ce 	strbgt	ip, [r5], #1742	; 0x6ce
 93c:	0000000e 	andeq	r0, r0, lr
 940:	00000020 	andeq	r0, r0, r0, lsr #32
 944:	0000090c 	andeq	r0, r0, ip, lsl #18
 948:	0000a338 	andeq	sl, r0, r8, lsr r3
 94c:	00000058 	andeq	r0, r0, r8, asr r0
 950:	84100e46 	ldrhi	r0, [r0], #-3654	; 0xfffff1ba
 954:	86038504 	strhi	r8, [r3], -r4, lsl #10
 958:	62018e02 	andvs	r8, r1, #2, 28
 95c:	c4c5c6ce 	strbgt	ip, [r5], #1742	; 0x6ce
 960:	0000000e 	andeq	r0, r0, lr
 964:	0000000c 	andeq	r0, r0, ip
 968:	0000090c 	andeq	r0, r0, ip, lsl #18
 96c:	0000a390 	muleq	r0, r0, r3
 970:	00000018 	andeq	r0, r0, r8, lsl r0
 974:	0000000c 	andeq	r0, r0, ip
 978:	0000090c 	andeq	r0, r0, ip, lsl #18
 97c:	0000a3a8 	andeq	sl, r0, r8, lsr #7
 980:	00000018 	andeq	r0, r0, r8, lsl r0
 984:	00000020 	andeq	r0, r0, r0, lsr #32
 988:	0000090c 	andeq	r0, r0, ip, lsl #18
 98c:	0000a3c0 	andeq	sl, r0, r0, asr #7
 990:	00000058 	andeq	r0, r0, r8, asr r0
 994:	84100e46 	ldrhi	r0, [r0], #-3654	; 0xfffff1ba
 998:	86038504 	strhi	r8, [r3], -r4, lsl #10
 99c:	62018e02 	andvs	r8, r1, #2, 28
 9a0:	c4c5c6ce 	strbgt	ip, [r5], #1742	; 0x6ce
 9a4:	0000000e 	andeq	r0, r0, lr
 9a8:	0000000c 	andeq	r0, r0, ip
 9ac:	0000090c 	andeq	r0, r0, ip, lsl #18
 9b0:	0000a418 	andeq	sl, r0, r8, lsl r4
 9b4:	00000030 	andeq	r0, r0, r0, lsr r0
 9b8:	00000014 	andeq	r0, r0, r4, lsl r0
 9bc:	0000090c 	andeq	r0, r0, ip, lsl #18
 9c0:	0000a448 	andeq	sl, r0, r8, asr #8
 9c4:	00000028 	andeq	r0, r0, r8, lsr #32
 9c8:	84080e42 	strhi	r0, [r8], #-3650	; 0xfffff1be
 9cc:	00018e02 	andeq	r8, r1, r2, lsl #28
 9d0:	0000000c 	andeq	r0, r0, ip
 9d4:	ffffffff 			; <UNDEFINED> instruction: 0xffffffff
 9d8:	7c020001 	stcvc	0, cr0, [r2], {1}
 9dc:	000d0c0e 	andeq	r0, sp, lr, lsl #24
 9e0:	00000014 	andeq	r0, r0, r4, lsl r0
 9e4:	000009d0 	ldrdeq	r0, [r0], -r0	; <UNPREDICTABLE>
 9e8:	0000a470 	andeq	sl, r0, r0, ror r4
 9ec:	00000014 	andeq	r0, r0, r4, lsl r0
 9f0:	84080e42 	strhi	r0, [r8], #-3650	; 0xfffff1be
 9f4:	00018e02 	andeq	r8, r1, r2, lsl #28
 9f8:	0000000c 	andeq	r0, r0, ip
 9fc:	000009d0 	ldrdeq	r0, [r0], -r0	; <UNPREDICTABLE>
 a00:	0000a484 	andeq	sl, r0, r4, lsl #9
 a04:	00000018 	andeq	r0, r0, r8, lsl r0
 a08:	0000000c 	andeq	r0, r0, ip
 a0c:	000009d0 	ldrdeq	r0, [r0], -r0	; <UNPREDICTABLE>
 a10:	0000a49c 	muleq	r0, ip, r4
 a14:	00000010 	andeq	r0, r0, r0, lsl r0
 a18:	0000000c 	andeq	r0, r0, ip
 a1c:	ffffffff 			; <UNDEFINED> instruction: 0xffffffff
 a20:	7c020001 	stcvc	0, cr0, [r2], {1}
 a24:	000d0c0e 	andeq	r0, sp, lr, lsl #24
 a28:	0000000c 	andeq	r0, r0, ip
 a2c:	00000a18 	andeq	r0, r0, r8, lsl sl
 a30:	0000a4ac 	andeq	sl, r0, ip, lsr #9
 a34:	0000002c 	andeq	r0, r0, ip, lsr #32
 a38:	0000000c 	andeq	r0, r0, ip
 a3c:	ffffffff 			; <UNDEFINED> instruction: 0xffffffff
 a40:	7c020001 	stcvc	0, cr0, [r2], {1}
 a44:	000d0c0e 	andeq	r0, sp, lr, lsl #24
 a48:	0000000c 	andeq	r0, r0, ip
 a4c:	00000a38 	andeq	r0, r0, r8, lsr sl
 a50:	0000a4d8 	ldrdeq	sl, [r0], -r8
 a54:	00000044 	andeq	r0, r0, r4, asr #32
 a58:	0000000c 	andeq	r0, r0, ip
 a5c:	ffffffff 			; <UNDEFINED> instruction: 0xffffffff
 a60:	7c020001 	stcvc	0, cr0, [r2], {1}
 a64:	000d0c0e 	andeq	r0, sp, lr, lsl #24
 a68:	0000000c 	andeq	r0, r0, ip
 a6c:	00000a58 	andeq	r0, r0, r8, asr sl
 a70:	0000a51c 	andeq	sl, r0, ip, lsl r5
 a74:	00000018 	andeq	r0, r0, r8, lsl r0
 a78:	0000000c 	andeq	r0, r0, ip
 a7c:	ffffffff 			; <UNDEFINED> instruction: 0xffffffff
 a80:	7c020001 	stcvc	0, cr0, [r2], {1}
 a84:	000d0c0e 	andeq	r0, sp, lr, lsl #24
 a88:	0000000c 	andeq	r0, r0, ip
 a8c:	00000a78 	andeq	r0, r0, r8, ror sl
 a90:	0000a534 	andeq	sl, r0, r4, lsr r5
 a94:	00000030 	andeq	r0, r0, r0, lsr r0
 a98:	0000000c 	andeq	r0, r0, ip
 a9c:	ffffffff 			; <UNDEFINED> instruction: 0xffffffff
 aa0:	7c020001 	stcvc	0, cr0, [r2], {1}
 aa4:	000d0c0e 	andeq	r0, sp, lr, lsl #24
 aa8:	0000000c 	andeq	r0, r0, ip
 aac:	00000a98 	muleq	r0, r8, sl
 ab0:	0000a564 	andeq	sl, r0, r4, ror #10
 ab4:	00000004 	andeq	r0, r0, r4
