
tests-2.0/part2-test1-no-leak.elf:     file format elf32-littlearm


Disassembly of section .text:

00008000 <__code_start__>:
    8000:	e3a00013 	mov	r0, #19, 0
    8004:	e3800080 	orr	r0, r0, #128, 0	; 0x80
    8008:	e129f000 	msr	CPSR_fc, r0
    800c:	e3a01000 	mov	r1, #0, 0
    8010:	ee071f95 	mcr	15, 0, r1, cr7, cr5, {4}
    8014:	e3a0d302 	mov	sp, #134217728	; 0x8000000
    8018:	e3a0b000 	mov	fp, #0, 0
    801c:	eb0005c7 	bl	9740 <_cstart>
    8020:	eb000610 	bl	9868 <rpi_reboot>

00008024 <PUT32>:
    8024:	e5801000 	str	r1, [r0]
    8028:	e12fff1e 	bx	lr

0000802c <GET32>:
    802c:	e5900000 	ldr	r0, [r0]
    8030:	e12fff1e 	bx	lr

00008034 <BRANCHTO>:
    8034:	e12fff10 	bx	r0

00008038 <test1>:
    8038:	e3a03009 	mov	r3, #9, 0
    803c:	e92d4070 	push	{r4, r5, r6, lr}
    8040:	e24dd018 	sub	sp, sp, #24, 0
    8044:	e58d3008 	str	r3, [sp, #8]
    8048:	e1a0300d 	mov	r3, sp
    804c:	e59f6060 	ldr	r6, [pc, #96]	; 80b4 <test1+0x7c>
    8050:	e59f5060 	ldr	r5, [pc, #96]	; 80b8 <test1+0x80>
    8054:	e58d6000 	str	r6, [sp]
    8058:	e58d5004 	str	r5, [sp, #4]
    805c:	e893000e 	ldm	r3, {r1, r2, r3}
    8060:	e3a00004 	mov	r0, #4, 0
    8064:	eb000105 	bl	8480 <ckalloc>
    8068:	e1a04000 	mov	r4, r0
    806c:	e59f0048 	ldr	r0, [pc, #72]	; 80bc <test1+0x84>
    8070:	e1a02004 	mov	r2, r4
    8074:	e514109c 	ldr	r1, [r4, #-156]	; 0xffffff64
    8078:	eb000314 	bl	8cd0 <printk>
    807c:	e1a00004 	mov	r0, r4
    8080:	e3a02004 	mov	r2, #4, 0
    8084:	e3a01000 	mov	r1, #0, 0
    8088:	eb0002f2 	bl	8c58 <memset>
    808c:	e3a0300c 	mov	r3, #12, 0
    8090:	e1a00004 	mov	r0, r4
    8094:	e58d3014 	str	r3, [sp, #20]
    8098:	e58d600c 	str	r6, [sp, #12]
    809c:	e58d5010 	str	r5, [sp, #16]
    80a0:	e28d3018 	add	r3, sp, #24, 0
    80a4:	e913000e 	ldmdb	r3, {r1, r2, r3}
    80a8:	e28dd018 	add	sp, sp, #24, 0
    80ac:	e8bd4070 	pop	{r4, r5, r6, lr}
    80b0:	ea00008f 	b	82f4 <ckfree>
    80b4:	0000a230 	andeq	sl, r0, r0, lsr r2
    80b8:	0000a2cc 	andeq	sl, r0, ip, asr #5
    80bc:	0000a250 	andeq	sl, r0, r0, asr r2

000080c0 <notmain>:
    80c0:	e92d4070 	push	{r4, r5, r6, lr}
    80c4:	e59f00a4 	ldr	r0, [pc, #164]	; 8170 <notmain+0xb0>
    80c8:	e24dd018 	sub	sp, sp, #24, 0
    80cc:	eb0002ff 	bl	8cd0 <printk>
    80d0:	e3a03009 	mov	r3, #9, 0
    80d4:	e58d3008 	str	r3, [sp, #8]
    80d8:	e1a0300d 	mov	r3, sp
    80dc:	e59f5090 	ldr	r5, [pc, #144]	; 8174 <notmain+0xb4>
    80e0:	e59f6090 	ldr	r6, [pc, #144]	; 8178 <notmain+0xb8>
    80e4:	e3a00004 	mov	r0, #4, 0
    80e8:	e88d0060 	stm	sp, {r5, r6}
    80ec:	e893000e 	ldm	r3, {r1, r2, r3}
    80f0:	eb0000e2 	bl	8480 <ckalloc>
    80f4:	e1a04000 	mov	r4, r0
    80f8:	e59f007c 	ldr	r0, [pc, #124]	; 817c <notmain+0xbc>
    80fc:	e1a02004 	mov	r2, r4
    8100:	e514109c 	ldr	r1, [r4, #-156]	; 0xffffff64
    8104:	eb0002f1 	bl	8cd0 <printk>
    8108:	e3a02004 	mov	r2, #4, 0
    810c:	e3a01000 	mov	r1, #0, 0
    8110:	e1a00004 	mov	r0, r4
    8114:	eb0002cf 	bl	8c58 <memset>
    8118:	e3a0300c 	mov	r3, #12, 0
    811c:	e58d500c 	str	r5, [sp, #12]
    8120:	e58d3014 	str	r3, [sp, #20]
    8124:	e58d6010 	str	r6, [sp, #16]
    8128:	e28d3018 	add	r3, sp, #24, 0
    812c:	e1a00004 	mov	r0, r4
    8130:	e913000e 	ldmdb	r3, {r1, r2, r3}
    8134:	eb00006e 	bl	82f4 <ckfree>
    8138:	e3a00001 	mov	r0, #1, 0
    813c:	eb000251 	bl	8a88 <ck_find_leaks>
    8140:	e3500000 	cmp	r0, #0, 0
    8144:	1a000003 	bne	8158 <notmain+0x98>
    8148:	e59f0030 	ldr	r0, [pc, #48]	; 8180 <notmain+0xc0>
    814c:	e28dd018 	add	sp, sp, #24, 0
    8150:	e8bd4070 	pop	{r4, r5, r6, lr}
    8154:	ea0002dd 	b	8cd0 <printk>
    8158:	e1a01005 	mov	r1, r5
    815c:	e3a0301f 	mov	r3, #31, 0
    8160:	e2862008 	add	r2, r6, #8, 0
    8164:	e59f0018 	ldr	r0, [pc, #24]	; 8184 <notmain+0xc4>
    8168:	eb0002d8 	bl	8cd0 <printk>
    816c:	eb000568 	bl	9714 <clean_reboot>
    8170:	0000a27c 	andeq	sl, r0, ip, ror r2
    8174:	0000a230 	andeq	sl, r0, r0, lsr r2
    8178:	0000a2cc 	andeq	sl, r0, ip, asr #5
    817c:	0000a250 	andeq	sl, r0, r0, asr r2
    8180:	0000a2b0 			; <UNDEFINED> instruction: 0x0000a2b0
    8184:	0000a288 	andeq	sl, r0, r8, lsl #5

00008188 <ck_first_hdr>:
    8188:	e59f3004 	ldr	r3, [pc, #4]	; 8194 <ck_first_hdr+0xc>
    818c:	e5930000 	ldr	r0, [r3]
    8190:	e12fff1e 	bx	lr
    8194:	0000ab38 	andeq	sl, r0, r8, lsr fp

00008198 <ck_next_hdr>:
    8198:	e3500000 	cmp	r0, #0, 0
    819c:	012fff1e 	bxeq	lr
    81a0:	e5900000 	ldr	r0, [r0]
    81a4:	e12fff1e 	bx	lr

000081a8 <list_remove>:
    81a8:	e92d4030 	push	{r4, r5, lr}
    81ac:	e24dd00c 	sub	sp, sp, #12, 0
    81b0:	e2503000 	subs	r3, r0, #0, 0
    81b4:	0a00000d 	beq	81f0 <list_remove+0x48>
    81b8:	e1a04001 	mov	r4, r1
    81bc:	e5930000 	ldr	r0, [r3]
    81c0:	e1500001 	cmp	r0, r1
    81c4:	0a000011 	beq	8210 <list_remove+0x68>
    81c8:	e1a05000 	mov	r5, r0
    81cc:	ebfffff1 	bl	8198 <ck_next_hdr>
    81d0:	e3500000 	cmp	r0, #0, 0
    81d4:	0a000010 	beq	821c <list_remove+0x74>
    81d8:	e1540000 	cmp	r4, r0
    81dc:	1afffff9 	bne	81c8 <list_remove+0x20>
    81e0:	e5903000 	ldr	r3, [r0]
    81e4:	e5853000 	str	r3, [r5]
    81e8:	e28dd00c 	add	sp, sp, #12, 0
    81ec:	e8bd8030 	pop	{r4, r5, pc}
    81f0:	e59f3040 	ldr	r3, [pc, #64]	; 8238 <list_remove+0x90>
    81f4:	e58d3000 	str	r3, [sp]
    81f8:	e3a0303c 	mov	r3, #60, 0	; 0x3c
    81fc:	e59f2038 	ldr	r2, [pc, #56]	; 823c <list_remove+0x94>
    8200:	e59f1038 	ldr	r1, [pc, #56]	; 8240 <list_remove+0x98>
    8204:	e59f0038 	ldr	r0, [pc, #56]	; 8244 <list_remove+0x9c>
    8208:	eb0002b0 	bl	8cd0 <printk>
    820c:	eb000540 	bl	9714 <clean_reboot>
    8210:	e5912000 	ldr	r2, [r1]
    8214:	e5832000 	str	r2, [r3]
    8218:	eafffff2 	b	81e8 <list_remove+0x40>
    821c:	e58d4000 	str	r4, [sp]
    8220:	e3a0304f 	mov	r3, #79, 0	; 0x4f
    8224:	e59f2010 	ldr	r2, [pc, #16]	; 823c <list_remove+0x94>
    8228:	e59f1010 	ldr	r1, [pc, #16]	; 8240 <list_remove+0x98>
    822c:	e59f0014 	ldr	r0, [pc, #20]	; 8248 <list_remove+0xa0>
    8230:	eb0002a6 	bl	8cd0 <printk>
    8234:	eb000536 	bl	9714 <clean_reboot>
    8238:	0000a2fc 	strdeq	sl, [r0], -ip
    823c:	0000a418 	andeq	sl, r0, r8, lsl r4
    8240:	0000a2dc 	ldrdeq	sl, [r0], -ip
    8244:	0000a2e8 	andeq	sl, r0, r8, ror #5
    8248:	0000a300 	andeq	sl, r0, r0, lsl #6

0000824c <ck_hdr_start>:
    824c:	e28000a8 	add	r0, r0, #168, 0	; 0xa8
    8250:	e12fff1e 	bx	lr

00008254 <ck_hdr_end>:
    8254:	e92d4010 	push	{r4, lr}
    8258:	e1a04000 	mov	r4, r0
    825c:	ebfffffa 	bl	824c <ck_hdr_start>
    8260:	e5943004 	ldr	r3, [r4, #4]
    8264:	e0800003 	add	r0, r0, r3
    8268:	e8bd8010 	pop	{r4, pc}

0000826c <ck_ptr_in_block>:
    826c:	e92d4070 	push	{r4, r5, r6, lr}
    8270:	e1a06000 	mov	r6, r0
    8274:	e1a04001 	mov	r4, r1
    8278:	ebfffff3 	bl	824c <ck_hdr_start>
    827c:	e1a05000 	mov	r5, r0
    8280:	e1a00006 	mov	r0, r6
    8284:	ebfffff2 	bl	8254 <ck_hdr_end>
    8288:	e1550004 	cmp	r5, r4
    828c:	91540000 	cmpls	r4, r0
    8290:	33a00001 	movcc	r0, #1, 0
    8294:	23a00000 	movcs	r0, #0, 0
    8298:	e8bd8070 	pop	{r4, r5, r6, pc}

0000829c <ck_ptr_is_alloced>:
    829c:	e92d4070 	push	{r4, r5, r6, lr}
    82a0:	e1a05000 	mov	r5, r0
    82a4:	ebffffb7 	bl	8188 <ck_first_hdr>
    82a8:	e1a04000 	mov	r4, r0
    82ac:	e3540000 	cmp	r4, #0, 0
    82b0:	0a00000c 	beq	82e8 <ck_ptr_is_alloced+0x4c>
    82b4:	e1a01005 	mov	r1, r5
    82b8:	e1a00004 	mov	r0, r4
    82bc:	ebffffea 	bl	826c <ck_ptr_in_block>
    82c0:	e3500000 	cmp	r0, #0, 0
    82c4:	1a000003 	bne	82d8 <ck_ptr_is_alloced+0x3c>
    82c8:	e1a00004 	mov	r0, r4
    82cc:	ebffffb1 	bl	8198 <ck_next_hdr>
    82d0:	e1a04000 	mov	r4, r0
    82d4:	eafffff4 	b	82ac <ck_ptr_is_alloced+0x10>
    82d8:	e1a02004 	mov	r2, r4
    82dc:	e1a01005 	mov	r1, r5
    82e0:	e59f0008 	ldr	r0, [pc, #8]	; 82f0 <ck_ptr_is_alloced+0x54>
    82e4:	eb000279 	bl	8cd0 <printk>
    82e8:	e1a00004 	mov	r0, r4
    82ec:	e8bd8070 	pop	{r4, r5, r6, pc}
    82f0:	0000a32c 	andeq	sl, r0, ip, lsr #6

000082f4 <ckfree>:
    82f4:	e92d43f0 	push	{r4, r5, r6, r7, r8, r9, lr}
    82f8:	e24dd01c 	sub	sp, sp, #28, 0
    82fc:	e1a05000 	mov	r5, r0
    8300:	e28d0018 	add	r0, sp, #24, 0
    8304:	e900000e 	stmdb	r0, {r1, r2, r3}
    8308:	e59d600c 	ldr	r6, [sp, #12]
    830c:	e59d7010 	ldr	r7, [sp, #16]
    8310:	e59d8014 	ldr	r8, [sp, #20]
    8314:	e1a03008 	mov	r3, r8
    8318:	e1a02007 	mov	r2, r7
    831c:	e1a01006 	mov	r1, r6
    8320:	e59f012c 	ldr	r0, [pc, #300]	; 8454 <ckfree+0x160>
    8324:	eb000269 	bl	8cd0 <printk>
    8328:	e1a01005 	mov	r1, r5
    832c:	e59f0124 	ldr	r0, [pc, #292]	; 8458 <ckfree+0x164>
    8330:	eb000266 	bl	8cd0 <printk>
    8334:	e51530a0 	ldr	r3, [r5, #-160]	; 0xffffff60
    8338:	e353000b 	cmp	r3, #11, 0
    833c:	1a00000e 	bne	837c <ckfree+0x88>
    8340:	e24590a8 	sub	r9, r5, #168, 0	; 0xa8
    8344:	e3a04000 	mov	r4, #0, 0
    8348:	e354007f 	cmp	r4, #127, 0	; 0x7f
    834c:	ca000026 	bgt	83ec <ckfree+0xf8>
    8350:	e0853004 	add	r3, r5, r4
    8354:	e5533082 	ldrb	r3, [r3, #-130]	; 0xffffff7e
    8358:	e35300fe 	cmp	r3, #254, 0	; 0xfe
    835c:	1a00000f 	bne	83a0 <ckfree+0xac>
    8360:	e51530a4 	ldr	r3, [r5, #-164]	; 0xffffff5c
    8364:	e0843003 	add	r3, r4, r3
    8368:	e7d53003 	ldrb	r3, [r5, r3]
    836c:	e35300fe 	cmp	r3, #254, 0	; 0xfe
    8370:	1a000015 	bne	83cc <ckfree+0xd8>
    8374:	e2844001 	add	r4, r4, #1, 0
    8378:	eafffff2 	b	8348 <ckfree+0x54>
    837c:	e1a03008 	mov	r3, r8
    8380:	e1a02007 	mov	r2, r7
    8384:	e1a01006 	mov	r1, r6
    8388:	e59f00cc 	ldr	r0, [pc, #204]	; 845c <ckfree+0x168>
    838c:	eb00024f 	bl	8cd0 <printk>
    8390:	e51510a0 	ldr	r1, [r5, #-160]	; 0xffffff60
    8394:	e59f00c4 	ldr	r0, [pc, #196]	; 8460 <ckfree+0x16c>
    8398:	eb00024c 	bl	8cd0 <printk>
    839c:	eb0004dc 	bl	9714 <clean_reboot>
    83a0:	e1a03008 	mov	r3, r8
    83a4:	e1a02007 	mov	r2, r7
    83a8:	e1a01006 	mov	r1, r6
    83ac:	e59f00a8 	ldr	r0, [pc, #168]	; 845c <ckfree+0x168>
    83b0:	eb000246 	bl	8cd0 <printk>
    83b4:	e0854004 	add	r4, r5, r4
    83b8:	e3a020fe 	mov	r2, #254, 0	; 0xfe
    83bc:	e5541082 	ldrb	r1, [r4, #-130]	; 0xffffff7e
    83c0:	e59f009c 	ldr	r0, [pc, #156]	; 8464 <ckfree+0x170>
    83c4:	eb000241 	bl	8cd0 <printk>
    83c8:	eb0004d1 	bl	9714 <clean_reboot>
    83cc:	e1a03008 	mov	r3, r8
    83d0:	e1a02007 	mov	r2, r7
    83d4:	e1a01006 	mov	r1, r6
    83d8:	e59f007c 	ldr	r0, [pc, #124]	; 845c <ckfree+0x168>
    83dc:	eb00023b 	bl	8cd0 <printk>
    83e0:	e59f0080 	ldr	r0, [pc, #128]	; 8468 <ckfree+0x174>
    83e4:	eb000239 	bl	8cd0 <printk>
    83e8:	eb0004c9 	bl	9714 <clean_reboot>
    83ec:	e3a03000 	mov	r3, #0, 0
    83f0:	e51520a4 	ldr	r2, [r5, #-164]	; 0xffffff5c
    83f4:	e1520003 	cmp	r2, r3
    83f8:	83e02001 	mvnhi	r2, #1, 0
    83fc:	87c52003 	strbhi	r2, [r5, r3]
    8400:	82833001 	addhi	r3, r3, #1, 0
    8404:	8afffff9 	bhi	83f0 <ckfree+0xfc>
    8408:	e3a0300c 	mov	r3, #12, 0
    840c:	e50530a0 	str	r3, [r5, #-160]	; 0xffffff60
    8410:	e1a00005 	mov	r0, r5
    8414:	ebffffa0 	bl	829c <ck_ptr_is_alloced>
    8418:	e3500000 	cmp	r0, #0, 0
    841c:	0a000004 	beq	8434 <ckfree+0x140>
    8420:	e1a01009 	mov	r1, r9
    8424:	e59f0040 	ldr	r0, [pc, #64]	; 846c <ckfree+0x178>
    8428:	ebffff5e 	bl	81a8 <list_remove>
    842c:	e28dd01c 	add	sp, sp, #28, 0
    8430:	e8bd83f0 	pop	{r4, r5, r6, r7, r8, r9, pc}
    8434:	e59f3034 	ldr	r3, [pc, #52]	; 8470 <ckfree+0x17c>
    8438:	e58d3000 	str	r3, [sp]
    843c:	e3a03069 	mov	r3, #105, 0	; 0x69
    8440:	e59f202c 	ldr	r2, [pc, #44]	; 8474 <ckfree+0x180>
    8444:	e59f102c 	ldr	r1, [pc, #44]	; 8478 <ckfree+0x184>
    8448:	e59f002c 	ldr	r0, [pc, #44]	; 847c <ckfree+0x188>
    844c:	eb00021f 	bl	8cd0 <printk>
    8450:	eb0004af 	bl	9714 <clean_reboot>
    8454:	0000a33c 	andeq	sl, r0, ip, lsr r3
    8458:	0000a348 	andeq	sl, r0, r8, asr #6
    845c:	0000a358 	andeq	sl, r0, r8, asr r3
    8460:	0000a370 	andeq	sl, r0, r0, ror r3
    8464:	0000a398 	muleq	r0, r8, r3
    8468:	0000a3c8 	andeq	sl, r0, r8, asr #7
    846c:	0000ab38 	andeq	sl, r0, r8, lsr fp
    8470:	0000a3e4 	andeq	sl, r0, r4, ror #7
    8474:	0000a424 	andeq	sl, r0, r4, lsr #8
    8478:	0000a2dc 	ldrdeq	sl, [r0], -ip
    847c:	0000a2e8 	andeq	sl, r0, r8, ror #5

00008480 <ckalloc>:
    8480:	e92d4070 	push	{r4, r5, r6, lr}
    8484:	e24dd010 	sub	sp, sp, #16, 0
    8488:	e1a05000 	mov	r5, r0
    848c:	e28d0010 	add	r0, sp, #16, 0
    8490:	e900000e 	stmdb	r0, {r1, r2, r3}
    8494:	e2850f4a 	add	r0, r5, #296	; 0x128
    8498:	eb00004b 	bl	85cc <kr_malloc>
    849c:	e1a04000 	mov	r4, r0
    84a0:	e3a020a8 	mov	r2, #168, 0	; 0xa8
    84a4:	e3a01000 	mov	r1, #0, 0
    84a8:	eb0001ea 	bl	8c58 <memset>
    84ac:	e3a03000 	mov	r3, #0, 0
    84b0:	e353007f 	cmp	r3, #127, 0	; 0x7f
    84b4:	ca000007 	bgt	84d8 <ckalloc+0x58>
    84b8:	e0842003 	add	r2, r4, r3
    84bc:	e3e01001 	mvn	r1, #1, 0
    84c0:	e5c21026 	strb	r1, [r2, #38]	; 0x26
    84c4:	e0832005 	add	r2, r3, r5
    84c8:	e28220a8 	add	r2, r2, #168, 0	; 0xa8
    84cc:	e7c41002 	strb	r1, [r4, r2]
    84d0:	e2833001 	add	r3, r3, #1, 0
    84d4:	eafffff5 	b	84b0 <ckalloc+0x30>
    84d8:	e5845004 	str	r5, [r4, #4]
    84dc:	e3a0300b 	mov	r3, #11, 0
    84e0:	e5843008 	str	r3, [r4, #8]
    84e4:	e2843010 	add	r3, r4, #16, 0
    84e8:	e28d2010 	add	r2, sp, #16, 0
    84ec:	e9120007 	ldmdb	r2, {r0, r1, r2}
    84f0:	e8830007 	stm	r3, {r0, r1, r2}
    84f4:	e59d300c 	ldr	r3, [sp, #12]
    84f8:	e59d2008 	ldr	r2, [sp, #8]
    84fc:	e59d1004 	ldr	r1, [sp, #4]
    8500:	e59f0030 	ldr	r0, [pc, #48]	; 8538 <ckalloc+0xb8>
    8504:	eb0001f1 	bl	8cd0 <printk>
    8508:	e28460a8 	add	r6, r4, #168, 0	; 0xa8
    850c:	e1a02005 	mov	r2, r5
    8510:	e1a01006 	mov	r1, r6
    8514:	e59f0020 	ldr	r0, [pc, #32]	; 853c <ckalloc+0xbc>
    8518:	eb0001ec 	bl	8cd0 <printk>
    851c:	e59f301c 	ldr	r3, [pc, #28]	; 8540 <ckalloc+0xc0>
    8520:	e5932000 	ldr	r2, [r3]
    8524:	e5842000 	str	r2, [r4]
    8528:	e5834000 	str	r4, [r3]
    852c:	e1a00006 	mov	r0, r6
    8530:	e28dd010 	add	sp, sp, #16, 0
    8534:	e8bd8070 	pop	{r4, r5, r6, pc}
    8538:	0000a33c 	andeq	sl, r0, ip, lsr r3
    853c:	0000a3fc 	strdeq	sl, [r0], -ip
    8540:	0000ab38 	andeq	sl, r0, r8, lsr fp

00008544 <kr_free>:
    8544:	e92d4010 	push	{r4, lr}
    8548:	e59fe078 	ldr	lr, [pc, #120]	; 85c8 <kr_free+0x84>
    854c:	e2401008 	sub	r1, r0, #8, 0
    8550:	e59e3000 	ldr	r3, [lr]
    8554:	ea000004 	b	856c <kr_free+0x28>
    8558:	e1520001 	cmp	r2, r1
    855c:	8a000009 	bhi	8588 <kr_free+0x44>
    8560:	e1520003 	cmp	r2, r3
    8564:	9a000007 	bls	8588 <kr_free+0x44>
    8568:	e1a03002 	mov	r3, r2
    856c:	e1530001 	cmp	r3, r1
    8570:	e5932000 	ldr	r2, [r3]
    8574:	3afffff7 	bcc	8558 <kr_free+0x14>
    8578:	e1530002 	cmp	r3, r2
    857c:	3afffff9 	bcc	8568 <kr_free+0x24>
    8580:	e1510002 	cmp	r1, r2
    8584:	2afffff7 	bcs	8568 <kr_free+0x24>
    8588:	e510c004 	ldr	ip, [r0, #-4]
    858c:	e58e3000 	str	r3, [lr]
    8590:	e081418c 	add	r4, r1, ip, lsl #3
    8594:	e1520004 	cmp	r2, r4
    8598:	08920014 	ldmeq	r2, {r2, r4}
    859c:	008cc004 	addeq	ip, ip, r4
    85a0:	0500c004 	streq	ip, [r0, #-4]
    85a4:	e5934004 	ldr	r4, [r3, #4]
    85a8:	e5002008 	str	r2, [r0, #-8]
    85ac:	e0830184 	add	r0, r3, r4, lsl #3
    85b0:	e1510000 	cmp	r1, r0
    85b4:	01a01002 	moveq	r1, r2
    85b8:	0084c00c 	addeq	ip, r4, ip
    85bc:	0583c004 	streq	ip, [r3, #4]
    85c0:	e5831000 	str	r1, [r3]
    85c4:	e8bd8010 	pop	{r4, pc}
    85c8:	0000ab40 	andeq	sl, r0, r0, asr #22

000085cc <kr_malloc>:
    85cc:	e92d41f0 	push	{r4, r5, r6, r7, r8, lr}
    85d0:	e59f50ec 	ldr	r5, [pc, #236]	; 86c4 <kr_malloc+0xf8>
    85d4:	e2804007 	add	r4, r0, #7, 0
    85d8:	e5951000 	ldr	r1, [r5]
    85dc:	e1a041a4 	lsr	r4, r4, #3
    85e0:	e3510000 	cmp	r1, #0, 0
    85e4:	e2844001 	add	r4, r4, #1, 0
    85e8:	0a00002c 	beq	86a0 <kr_malloc+0xd4>
    85ec:	e5910000 	ldr	r0, [r1]
    85f0:	e5902004 	ldr	r2, [r0, #4]
    85f4:	e1520004 	cmp	r2, r4
    85f8:	2a00002f 	bcs	86bc <kr_malloc+0xf0>
    85fc:	e3a07902 	mov	r7, #32768	; 0x8000
    8600:	e59f60c0 	ldr	r6, [pc, #192]	; 86c8 <kr_malloc+0xfc>
    8604:	ea000003 	b	8618 <kr_malloc+0x4c>
    8608:	e5930000 	ldr	r0, [r3]
    860c:	e5902004 	ldr	r2, [r0, #4]
    8610:	e1520004 	cmp	r2, r4
    8614:	2a000015 	bcs	8670 <kr_malloc+0xa4>
    8618:	e1510000 	cmp	r1, r0
    861c:	11a03000 	movne	r3, r0
    8620:	1afffff8 	bne	8608 <kr_malloc+0x3c>
    8624:	e3a01902 	mov	r1, #32768	; 0x8000
    8628:	e1a00006 	mov	r0, r6
    862c:	eb0001a7 	bl	8cd0 <printk>
    8630:	e3a00701 	mov	r0, #262144	; 0x40000
    8634:	eb0000ec 	bl	89ec <sbrk>
    8638:	e1a03000 	mov	r3, r0
    863c:	e3730001 	cmn	r3, #1, 0
    8640:	e2800008 	add	r0, r0, #8, 0
    8644:	0a000013 	beq	8698 <kr_malloc+0xcc>
    8648:	e5837004 	str	r7, [r3, #4]
    864c:	ebffffbc 	bl	8544 <kr_free>
    8650:	e5953000 	ldr	r3, [r5]
    8654:	e3530000 	cmp	r3, #0, 0
    8658:	0a00000e 	beq	8698 <kr_malloc+0xcc>
    865c:	e5930000 	ldr	r0, [r3]
    8660:	e1a01003 	mov	r1, r3
    8664:	e5902004 	ldr	r2, [r0, #4]
    8668:	e1520004 	cmp	r2, r4
    866c:	3affffe9 	bcc	8618 <kr_malloc+0x4c>
    8670:	e1520004 	cmp	r2, r4
    8674:	05902000 	ldreq	r2, [r0]
    8678:	10422004 	subne	r2, r2, r4
    867c:	15802004 	strne	r2, [r0, #4]
    8680:	10800182 	addne	r0, r0, r2, lsl #3
    8684:	15804004 	strne	r4, [r0, #4]
    8688:	05832000 	streq	r2, [r3]
    868c:	e5853000 	str	r3, [r5]
    8690:	e2800008 	add	r0, r0, #8, 0
    8694:	e8bd81f0 	pop	{r4, r5, r6, r7, r8, pc}
    8698:	e3a00000 	mov	r0, #0, 0
    869c:	e8bd81f0 	pop	{r4, r5, r6, r7, r8, pc}
    86a0:	e2853008 	add	r3, r5, #8, 0
    86a4:	e585100c 	str	r1, [r5, #12]
    86a8:	e1a00003 	mov	r0, r3
    86ac:	e1a01003 	mov	r1, r3
    86b0:	e5853000 	str	r3, [r5]
    86b4:	e5853008 	str	r3, [r5, #8]
    86b8:	eaffffcf 	b	85fc <kr_malloc+0x30>
    86bc:	e1a03001 	mov	r3, r1
    86c0:	eaffffea 	b	8670 <kr_malloc+0xa4>
    86c4:	0000ab40 	andeq	sl, r0, r0, asr #22
    86c8:	0000a42c 	andeq	sl, r0, ip, lsr #8

000086cc <mark>:
    86cc:	e92d4ff0 	push	{r4, r5, r6, r7, r8, r9, sl, fp, lr}
    86d0:	e1500001 	cmp	r0, r1
    86d4:	23a03052 	movcs	r3, #82, 0	; 0x52
    86d8:	259f2120 	ldrcs	r2, [pc, #288]	; 8800 <mark+0x134>
    86dc:	e24dd00c 	sub	sp, sp, #12, 0
    86e0:	2a000040 	bcs	87e8 <mark+0x11c>
    86e4:	e3100003 	tst	r0, #3, 0
    86e8:	e1a04000 	mov	r4, r0
    86ec:	1a00003b 	bne	87e0 <mark+0x114>
    86f0:	e3110003 	tst	r1, #3, 0
    86f4:	13a03056 	movne	r3, #86, 0	; 0x56
    86f8:	159f2104 	ldrne	r2, [pc, #260]	; 8804 <mark+0x138>
    86fc:	1a000039 	bne	87e8 <mark+0x11c>
    8700:	e0411000 	sub	r1, r1, r0
    8704:	e3c11003 	bic	r1, r1, #3, 0
    8708:	e2805004 	add	r5, r0, #4, 0
    870c:	e59f70f4 	ldr	r7, [pc, #244]	; 8808 <mark+0x13c>
    8710:	e59fa0f4 	ldr	sl, [pc, #244]	; 880c <mark+0x140>
    8714:	e0815005 	add	r5, r1, r5
    8718:	e5940000 	ldr	r0, [r4]
    871c:	e5973000 	ldr	r3, [r7]
    8720:	e1a08004 	mov	r8, r4
    8724:	e1500003 	cmp	r0, r3
    8728:	e2844004 	add	r4, r4, #4, 0
    872c:	3a00001a 	bcc	879c <mark+0xd0>
    8730:	e5973004 	ldr	r3, [r7, #4]
    8734:	e1500003 	cmp	r0, r3
    8738:	2a000017 	bcs	879c <mark+0xd0>
    873c:	ebfffed6 	bl	829c <ck_ptr_is_alloced>
    8740:	e2506000 	subs	r6, r0, #0, 0
    8744:	0a000014 	beq	879c <mark+0xd0>
    8748:	e1d692b4 	ldrh	r9, [r6, #36]	; 0x24
    874c:	ebfffebe 	bl	824c <ck_hdr_start>
    8750:	e286b0a8 	add	fp, r6, #168, 0	; 0xa8
    8754:	e1a01000 	mov	r1, r0
    8758:	e5143004 	ldr	r3, [r4, #-4]
    875c:	e1a02008 	mov	r2, r8
    8760:	e1a0000a 	mov	r0, sl
    8764:	e58db000 	str	fp, [sp]
    8768:	eb000158 	bl	8cd0 <printk>
    876c:	e3590001 	cmp	r9, #1, 0
    8770:	8a00000d 	bhi	87ac <mark+0xe0>
    8774:	e5143004 	ldr	r3, [r4, #-4]
    8778:	e59f0090 	ldr	r0, [pc, #144]	; 8810 <mark+0x144>
    877c:	e15b0003 	cmp	fp, r3
    8780:	03a03002 	moveq	r3, #2, 0
    8784:	13a03001 	movne	r3, #1, 0
    8788:	e1a01003 	mov	r1, r3
    878c:	e1c632b4 	strh	r3, [r6, #36]	; 0x24
    8790:	eb00014e 	bl	8cd0 <printk>
    8794:	e3590000 	cmp	r9, #0, 0
    8798:	0a000008 	beq	87c0 <mark+0xf4>
    879c:	e1550004 	cmp	r5, r4
    87a0:	1affffdc 	bne	8718 <mark+0x4c>
    87a4:	e28dd00c 	add	sp, sp, #12, 0
    87a8:	e8bd8ff0 	pop	{r4, r5, r6, r7, r8, r9, sl, fp, pc}
    87ac:	e59f0060 	ldr	r0, [pc, #96]	; 8814 <mark+0x148>
    87b0:	eb000146 	bl	8cd0 <printk>
    87b4:	e1550004 	cmp	r5, r4
    87b8:	1affffd6 	bne	8718 <mark+0x4c>
    87bc:	eafffff8 	b	87a4 <mark+0xd8>
    87c0:	e5961004 	ldr	r1, [r6, #4]
    87c4:	e2860004 	add	r0, r6, #4, 0
    87c8:	e28110a8 	add	r1, r1, #168, 0	; 0xa8
    87cc:	e0861001 	add	r1, r6, r1
    87d0:	ebffffbd 	bl	86cc <mark>
    87d4:	e1550004 	cmp	r5, r4
    87d8:	1affffce 	bne	8718 <mark+0x4c>
    87dc:	eafffff0 	b	87a4 <mark+0xd8>
    87e0:	e3a03055 	mov	r3, #85, 0	; 0x55
    87e4:	e59f202c 	ldr	r2, [pc, #44]	; 8818 <mark+0x14c>
    87e8:	e59f102c 	ldr	r1, [pc, #44]	; 881c <mark+0x150>
    87ec:	e58d2000 	str	r2, [sp]
    87f0:	e59f0028 	ldr	r0, [pc, #40]	; 8820 <mark+0x154>
    87f4:	e59f2028 	ldr	r2, [pc, #40]	; 8824 <mark+0x158>
    87f8:	eb000134 	bl	8cd0 <printk>
    87fc:	eb0003c4 	bl	9714 <clean_reboot>
    8800:	0000a458 	andeq	sl, r0, r8, asr r4
    8804:	0000a470 	andeq	sl, r0, r0, ror r4
    8808:	0000ab50 	andeq	sl, r0, r0, asr fp
    880c:	0000a480 	andeq	sl, r0, r0, lsl #9
    8810:	0000a4ac 	andeq	sl, r0, ip, lsr #9
    8814:	0000a4bc 			; <UNDEFINED> instruction: 0x0000a4bc
    8818:	0000a460 	andeq	sl, r0, r0, ror #8
    881c:	0000a450 	andeq	sl, r0, r0, asr r4
    8820:	0000a2e8 	andeq	sl, r0, r8, ror #5
    8824:	0000a768 	andeq	sl, r0, r8, ror #14

00008828 <mark_all>:
    8828:	e92d4010 	push	{r4, lr}
    882c:	e24dd040 	sub	sp, sp, #64, 0	; 0x40
    8830:	ebfffe54 	bl	8188 <ck_first_hdr>
    8834:	e3500000 	cmp	r0, #0, 0
    8838:	0a000006 	beq	8858 <mark_all+0x30>
    883c:	e3a04000 	mov	r4, #0, 0
    8840:	e5804020 	str	r4, [r0, #32]
    8844:	e580401c 	str	r4, [r0, #28]
    8848:	e1c042b4 	strh	r4, [r0, #36]	; 0x24
    884c:	ebfffe51 	bl	8198 <ck_next_hdr>
    8850:	e3500000 	cmp	r0, #0, 0
    8854:	1afffff9 	bne	8840 <mark_all+0x18>
    8858:	e1a0000d 	mov	r0, sp
    885c:	eb0000fb 	bl	8c50 <dump_regs>
    8860:	e3a03000 	mov	r3, #0, 0
    8864:	e3a02000 	mov	r2, #0, 0
    8868:	e1a0000d 	mov	r0, sp
    886c:	e28d1038 	add	r1, sp, #56, 0	; 0x38
    8870:	e1cd20f0 	strd	r2, [sp]
    8874:	e1cd20f8 	strd	r2, [sp, #8]
    8878:	ebffff93 	bl	86cc <mark>
    887c:	e3a02302 	mov	r2, #134217728	; 0x8000000
    8880:	e59d1034 	ldr	r1, [sp, #52]	; 0x34
    8884:	e59f002c 	ldr	r0, [pc, #44]	; 88b8 <mark_all+0x90>
    8888:	eb000110 	bl	8cd0 <printk>
    888c:	e59d0034 	ldr	r0, [sp, #52]	; 0x34
    8890:	e3a01302 	mov	r1, #134217728	; 0x8000000
    8894:	ebffff8c 	bl	86cc <mark>
    8898:	e59f101c 	ldr	r1, [pc, #28]	; 88bc <mark_all+0x94>
    889c:	e59f001c 	ldr	r0, [pc, #28]	; 88c0 <mark_all+0x98>
    88a0:	ebffff89 	bl	86cc <mark>
    88a4:	e59f1018 	ldr	r1, [pc, #24]	; 88c4 <mark_all+0x9c>
    88a8:	e59f0018 	ldr	r0, [pc, #24]	; 88c8 <mark_all+0xa0>
    88ac:	ebffff86 	bl	86cc <mark>
    88b0:	e28dd040 	add	sp, sp, #64, 0	; 0x40
    88b4:	e8bd8010 	pop	{r4, pc}
    88b8:	0000a4cc 	andeq	sl, r0, ip, asr #9
    88bc:	0000af60 	andeq	sl, r0, r0, ror #30
    88c0:	0000ab38 	andeq	sl, r0, r8, lsr fp
    88c4:	0000ab38 	andeq	sl, r0, r8, lsr fp
    88c8:	0000ab24 	andeq	sl, r0, r4, lsr #22

000088cc <sweep_leak>:
    88cc:	e92d47f0 	push	{r4, r5, r6, r7, r8, r9, sl, lr}
    88d0:	e1a08000 	mov	r8, r0
    88d4:	e59f00f0 	ldr	r0, [pc, #240]	; 89cc <sweep_leak+0x100>
    88d8:	eb0000fc 	bl	8cd0 <printk>
    88dc:	e59f00ec 	ldr	r0, [pc, #236]	; 89d0 <sweep_leak+0x104>
    88e0:	eb0000fa 	bl	8cd0 <printk>
    88e4:	ebffffcf 	bl	8828 <mark_all>
    88e8:	ebfffe26 	bl	8188 <ck_first_hdr>
    88ec:	e2504000 	subs	r4, r0, #0, 0
    88f0:	0a00002d 	beq	89ac <sweep_leak+0xe0>
    88f4:	e3a07000 	mov	r7, #0, 0
    88f8:	e59fa0d4 	ldr	sl, [pc, #212]	; 89d4 <sweep_leak+0x108>
    88fc:	e1a06007 	mov	r6, r7
    8900:	e1a05007 	mov	r5, r7
    8904:	e59f90cc 	ldr	r9, [pc, #204]	; 89d8 <sweep_leak+0x10c>
    8908:	ea000005 	b	8924 <sweep_leak+0x58>
    890c:	e3530001 	cmp	r3, #1, 0
    8910:	0a00001f 	beq	8994 <sweep_leak+0xc8>
    8914:	e1a00004 	mov	r0, r4
    8918:	ebfffe1e 	bl	8198 <ck_next_hdr>
    891c:	e2504000 	subs	r4, r0, #0, 0
    8920:	0a00000c 	beq	8958 <sweep_leak+0x8c>
    8924:	e1d432b4 	ldrh	r3, [r4, #36]	; 0x24
    8928:	e2855001 	add	r5, r5, #1, 0
    892c:	e3530000 	cmp	r3, #0, 0
    8930:	1afffff5 	bne	890c <sweep_leak+0x40>
    8934:	e1a02004 	mov	r2, r4
    8938:	e1a01005 	mov	r1, r5
    893c:	e1a00009 	mov	r0, r9
    8940:	eb0000e2 	bl	8cd0 <printk>
    8944:	e1a00004 	mov	r0, r4
    8948:	ebfffe12 	bl	8198 <ck_next_hdr>
    894c:	e2504000 	subs	r4, r0, #0, 0
    8950:	e2866001 	add	r6, r6, #1, 0
    8954:	1afffff2 	bne	8924 <sweep_leak+0x58>
    8958:	e1a01005 	mov	r1, r5
    895c:	e59f0078 	ldr	r0, [pc, #120]	; 89dc <sweep_leak+0x110>
    8960:	eb0000da 	bl	8cd0 <printk>
    8964:	e1963007 	orrs	r3, r6, r7
    8968:	0a000012 	beq	89b8 <sweep_leak+0xec>
    896c:	e1a02007 	mov	r2, r7
    8970:	e1a01006 	mov	r1, r6
    8974:	e59f0064 	ldr	r0, [pc, #100]	; 89e0 <sweep_leak+0x114>
    8978:	eb0000d4 	bl	8cd0 <printk>
    897c:	e59f0060 	ldr	r0, [pc, #96]	; 89e4 <sweep_leak+0x118>
    8980:	eb0000d2 	bl	8cd0 <printk>
    8984:	e3580000 	cmp	r8, #0, 0
    8988:	10866007 	addne	r6, r6, r7
    898c:	e1a00006 	mov	r0, r6
    8990:	e8bd87f0 	pop	{r4, r5, r6, r7, r8, r9, sl, pc}
    8994:	e1a02004 	mov	r2, r4
    8998:	e1a01005 	mov	r1, r5
    899c:	e1a0000a 	mov	r0, sl
    89a0:	e2877001 	add	r7, r7, #1, 0
    89a4:	eb0000c9 	bl	8cd0 <printk>
    89a8:	eaffffd9 	b	8914 <sweep_leak+0x48>
    89ac:	e1a01004 	mov	r1, r4
    89b0:	e59f0024 	ldr	r0, [pc, #36]	; 89dc <sweep_leak+0x110>
    89b4:	eb0000c5 	bl	8cd0 <printk>
    89b8:	e3a07000 	mov	r7, #0, 0
    89bc:	e59f0024 	ldr	r0, [pc, #36]	; 89e8 <sweep_leak+0x11c>
    89c0:	e1a06007 	mov	r6, r7
    89c4:	eb0000c1 	bl	8cd0 <printk>
    89c8:	eaffffeb 	b	897c <sweep_leak+0xb0>
    89cc:	0000a4e8 	andeq	sl, r0, r8, ror #9
    89d0:	0000a524 	andeq	sl, r0, r4, lsr #10
    89d4:	0000a550 	andeq	sl, r0, r0, asr r5
    89d8:	0000a53c 	andeq	sl, r0, ip, lsr r5
    89dc:	0000a568 	andeq	sl, r0, r8, ror #10
    89e0:	0000a5b0 			; <UNDEFINED> instruction: 0x0000a5b0
    89e4:	0000a5e0 	andeq	sl, r0, r0, ror #11
    89e8:	0000a588 	andeq	sl, r0, r8, lsl #11

000089ec <sbrk>:
    89ec:	e92d4030 	push	{r4, r5, lr}
    89f0:	e2504000 	subs	r4, r0, #0, 0
    89f4:	e24dd00c 	sub	sp, sp, #12, 0
    89f8:	da00000e 	ble	8a38 <sbrk+0x4c>
    89fc:	e59f506c 	ldr	r5, [pc, #108]	; 8a70 <sbrk+0x84>
    8a00:	e5953008 	ldr	r3, [r5, #8]
    8a04:	e3530000 	cmp	r3, #0, 0
    8a08:	1a000012 	bne	8a58 <sbrk+0x6c>
    8a0c:	e3a01601 	mov	r1, #1048576	; 0x100000
    8a10:	e3a03602 	mov	r3, #2097152	; 0x200000
    8a14:	e1a00001 	mov	r0, r1
    8a18:	e885000a 	stm	r5, {r1, r3}
    8a1c:	eb000478 	bl	9c04 <kmalloc_init_set_start>
    8a20:	e3a03001 	mov	r3, #1, 0
    8a24:	e1a00004 	mov	r0, r4
    8a28:	e5853008 	str	r3, [r5, #8]
    8a2c:	e28dd00c 	add	sp, sp, #12, 0
    8a30:	e8bd4030 	pop	{r4, r5, lr}
    8a34:	ea0004d5 	b	9d90 <kmalloc>
    8a38:	e59f2034 	ldr	r2, [pc, #52]	; 8a74 <sbrk+0x88>
    8a3c:	e3a03017 	mov	r3, #23, 0
    8a40:	e59f1030 	ldr	r1, [pc, #48]	; 8a78 <sbrk+0x8c>
    8a44:	e58d2000 	str	r2, [sp]
    8a48:	e59f002c 	ldr	r0, [pc, #44]	; 8a7c <sbrk+0x90>
    8a4c:	e59f202c 	ldr	r2, [pc, #44]	; 8a80 <sbrk+0x94>
    8a50:	eb00009e 	bl	8cd0 <printk>
    8a54:	eb00032e 	bl	9714 <clean_reboot>
    8a58:	e3a03019 	mov	r3, #25, 0
    8a5c:	e59f201c 	ldr	r2, [pc, #28]	; 8a80 <sbrk+0x94>
    8a60:	e59f1010 	ldr	r1, [pc, #16]	; 8a78 <sbrk+0x8c>
    8a64:	e59f0018 	ldr	r0, [pc, #24]	; 8a84 <sbrk+0x98>
    8a68:	eb000098 	bl	8cd0 <printk>
    8a6c:	eb000328 	bl	9714 <clean_reboot>
    8a70:	0000ab50 	andeq	sl, r0, r0, asr fp
    8a74:	0000a61c 	andeq	sl, r0, ip, lsl r6
    8a78:	0000a450 	andeq	sl, r0, r0, asr r4
    8a7c:	0000a2e8 	andeq	sl, r0, r8, ror #5
    8a80:	0000a770 	andeq	sl, r0, r0, ror r7
    8a84:	0000a62c 	andeq	sl, r0, ip, lsr #12

00008a88 <ck_find_leaks>:
    8a88:	eaffff8f 	b	88cc <sweep_leak>

00008a8c <check_no_leak>:
    8a8c:	e92d4010 	push	{r4, lr}
    8a90:	e3a00001 	mov	r0, #1, 0
    8a94:	ebffff8c 	bl	88cc <sweep_leak>
    8a98:	e3500000 	cmp	r0, #0, 0
    8a9c:	1a000002 	bne	8aac <check_no_leak+0x20>
    8aa0:	e59f001c 	ldr	r0, [pc, #28]	; 8ac4 <check_no_leak+0x38>
    8aa4:	eb000089 	bl	8cd0 <printk>
    8aa8:	e8bd8010 	pop	{r4, pc}
    8aac:	e3a030dc 	mov	r3, #220, 0	; 0xdc
    8ab0:	e59f2010 	ldr	r2, [pc, #16]	; 8ac8 <check_no_leak+0x3c>
    8ab4:	e59f1010 	ldr	r1, [pc, #16]	; 8acc <check_no_leak+0x40>
    8ab8:	e59f0010 	ldr	r0, [pc, #16]	; 8ad0 <check_no_leak+0x44>
    8abc:	eb000083 	bl	8cd0 <printk>
    8ac0:	eb000313 	bl	9714 <clean_reboot>
    8ac4:	0000a678 	andeq	sl, r0, r8, ror r6
    8ac8:	0000a778 	andeq	sl, r0, r8, ror r7
    8acc:	0000a450 	andeq	sl, r0, r0, asr r4
    8ad0:	0000a64c 	andeq	sl, r0, ip, asr #12

00008ad4 <check_should_leak>:
    8ad4:	e92d4010 	push	{r4, lr}
    8ad8:	e3a00001 	mov	r0, #1, 0
    8adc:	ebffff7a 	bl	88cc <sweep_leak>
    8ae0:	e2504000 	subs	r4, r0, #0, 0
    8ae4:	0a000004 	beq	8afc <check_should_leak+0x28>
    8ae8:	e1a01004 	mov	r1, r4
    8aec:	e59f0020 	ldr	r0, [pc, #32]	; 8b14 <check_should_leak+0x40>
    8af0:	eb000076 	bl	8cd0 <printk>
    8af4:	e1a00004 	mov	r0, r4
    8af8:	e8bd8010 	pop	{r4, pc}
    8afc:	e3a030eb 	mov	r3, #235, 0	; 0xeb
    8b00:	e59f2010 	ldr	r2, [pc, #16]	; 8b18 <check_should_leak+0x44>
    8b04:	e59f1010 	ldr	r1, [pc, #16]	; 8b1c <check_should_leak+0x48>
    8b08:	e59f0010 	ldr	r0, [pc, #16]	; 8b20 <check_should_leak+0x4c>
    8b0c:	eb00006f 	bl	8cd0 <printk>
    8b10:	eb0002ff 	bl	9714 <clean_reboot>
    8b14:	0000a6c0 	andeq	sl, r0, r0, asr #13
    8b18:	0000a788 	andeq	sl, r0, r8, lsl #15
    8b1c:	0000a450 	andeq	sl, r0, r0, asr r4
    8b20:	0000a698 	muleq	r0, r8, r6

00008b24 <ck_gc>:
    8b24:	e92d4ff0 	push	{r4, r5, r6, r7, r8, r9, sl, fp, lr}
    8b28:	e24dd014 	sub	sp, sp, #20, 0
    8b2c:	ebffff3d 	bl	8828 <mark_all>
    8b30:	e59f00d0 	ldr	r0, [pc, #208]	; 8c08 <ck_gc+0xe4>
    8b34:	eb000065 	bl	8cd0 <printk>
    8b38:	e59f00cc 	ldr	r0, [pc, #204]	; 8c0c <ck_gc+0xe8>
    8b3c:	eb000063 	bl	8cd0 <printk>
    8b40:	ebffff38 	bl	8828 <mark_all>
    8b44:	ebfffd8f 	bl	8188 <ck_first_hdr>
    8b48:	e2504000 	subs	r4, r0, #0, 0
    8b4c:	0a000029 	beq	8bf8 <ck_gc+0xd4>
    8b50:	e3a05000 	mov	r5, #0, 0
    8b54:	e1a07005 	mov	r7, r5
    8b58:	e1a06005 	mov	r6, r5
    8b5c:	e59fa0ac 	ldr	sl, [pc, #172]	; 8c10 <ck_gc+0xec>
    8b60:	e59f90ac 	ldr	r9, [pc, #172]	; 8c14 <ck_gc+0xf0>
    8b64:	e59f80ac 	ldr	r8, [pc, #172]	; 8c18 <ck_gc+0xf4>
    8b68:	e1d432b4 	ldrh	r3, [r4, #36]	; 0x24
    8b6c:	e2866001 	add	r6, r6, #1, 0
    8b70:	e3530000 	cmp	r3, #0, 0
    8b74:	0a00000b 	beq	8ba8 <ck_gc+0x84>
    8b78:	e1a00004 	mov	r0, r4
    8b7c:	ebfffd85 	bl	8198 <ck_next_hdr>
    8b80:	e2504000 	subs	r4, r0, #0, 0
    8b84:	1afffff7 	bne	8b68 <ck_gc+0x44>
    8b88:	e1a02007 	mov	r2, r7
    8b8c:	e1a01006 	mov	r1, r6
    8b90:	e1a03005 	mov	r3, r5
    8b94:	e59f0080 	ldr	r0, [pc, #128]	; 8c1c <ck_gc+0xf8>
    8b98:	eb00004c 	bl	8cd0 <printk>
    8b9c:	e1a00005 	mov	r0, r5
    8ba0:	e28dd014 	add	sp, sp, #20, 0
    8ba4:	e8bd8ff0 	pop	{r4, r5, r6, r7, r8, r9, sl, fp, pc}
    8ba8:	e59f3070 	ldr	r3, [pc, #112]	; 8c20 <ck_gc+0xfc>
    8bac:	e594c004 	ldr	ip, [r4, #4]
    8bb0:	e58d300c 	str	r3, [sp, #12]
    8bb4:	e284b0a8 	add	fp, r4, #168, 0	; 0xa8
    8bb8:	e58da004 	str	sl, [sp, #4]
    8bbc:	e58d9008 	str	r9, [sp, #8]
    8bc0:	e28d3010 	add	r3, sp, #16, 0
    8bc4:	e913000e 	ldmdb	r3, {r1, r2, r3}
    8bc8:	e1a0000b 	mov	r0, fp
    8bcc:	e085500c 	add	r5, r5, ip
    8bd0:	ebfffdc7 	bl	82f4 <ckfree>
    8bd4:	e1a0100b 	mov	r1, fp
    8bd8:	e1a00008 	mov	r0, r8
    8bdc:	eb00003b 	bl	8cd0 <printk>
    8be0:	e1a00004 	mov	r0, r4
    8be4:	ebfffd6b 	bl	8198 <ck_next_hdr>
    8be8:	e2504000 	subs	r4, r0, #0, 0
    8bec:	e2877001 	add	r7, r7, #1, 0
    8bf0:	1affffdc 	bne	8b68 <ck_gc+0x44>
    8bf4:	eaffffe3 	b	8b88 <ck_gc+0x64>
    8bf8:	e1a05004 	mov	r5, r4
    8bfc:	e1a07004 	mov	r7, r4
    8c00:	e1a06004 	mov	r6, r4
    8c04:	eaffffdf 	b	8b88 <ck_gc+0x64>
    8c08:	0000a4e8 	andeq	sl, r0, r8, ror #9
    8c0c:	0000a6e4 	andeq	sl, r0, r4, ror #13
    8c10:	0000a450 	andeq	sl, r0, r0, asr r4
    8c14:	0000a79c 	muleq	r0, ip, r7
    8c18:	0000a6f4 	strdeq	sl, [r0], -r4
    8c1c:	0000a704 	andeq	sl, r0, r4, lsl #14
    8c20:	00000101 	andeq	r0, r0, r1, lsl #2

00008c24 <implement_this>:
    8c24:	e92d4010 	push	{r4, lr}
    8c28:	e59f3010 	ldr	r3, [pc, #16]	; 8c40 <implement_this+0x1c>
    8c2c:	e59f2010 	ldr	r2, [pc, #16]	; 8c44 <implement_this+0x20>
    8c30:	e59f1010 	ldr	r1, [pc, #16]	; 8c48 <implement_this+0x24>
    8c34:	e59f0010 	ldr	r0, [pc, #16]	; 8c4c <implement_this+0x28>
    8c38:	eb000024 	bl	8cd0 <printk>
    8c3c:	eb0002b4 	bl	9714 <clean_reboot>
    8c40:	00000117 	andeq	r0, r0, r7, lsl r1
    8c44:	0000a7a8 	andeq	sl, r0, r8, lsr #15
    8c48:	0000a450 	andeq	sl, r0, r0, asr r4
    8c4c:	0000a738 	andeq	sl, r0, r8, lsr r7

00008c50 <dump_regs>:
    8c50:	e8a0ffff 	stmia	r0!, {r0, r1, r2, r3, r4, r5, r6, r7, r8, r9, sl, fp, ip, sp, lr, pc}
    8c54:	e12fff1e 	bx	lr

00008c58 <memset>:
    8c58:	e92d4010 	push	{r4, lr}
    8c5c:	e0804002 	add	r4, r0, r2
    8c60:	e1500004 	cmp	r0, r4
    8c64:	28bd8010 	popcs	{r4, pc}
    8c68:	e2423001 	sub	r3, r2, #1, 0
    8c6c:	e3530002 	cmp	r3, #2, 0
    8c70:	e6ef1071 	uxtb	r1, r1
    8c74:	e1a03000 	mov	r3, r0
    8c78:	9a00000b 	bls	8cac <memset+0x54>
    8c7c:	e181e401 	orr	lr, r1, r1, lsl #8
    8c80:	e18ee801 	orr	lr, lr, r1, lsl #16
    8c84:	e3c2c003 	bic	ip, r2, #3, 0
    8c88:	e18eec01 	orr	lr, lr, r1, lsl #24
    8c8c:	e08cc000 	add	ip, ip, r0
    8c90:	e483e004 	str	lr, [r3], #4
    8c94:	e153000c 	cmp	r3, ip
    8c98:	1afffffc 	bne	8c90 <memset+0x38>
    8c9c:	e3c23003 	bic	r3, r2, #3, 0
    8ca0:	e1520003 	cmp	r2, r3
    8ca4:	e0803003 	add	r3, r0, r3
    8ca8:	08bd8010 	popeq	{r4, pc}
    8cac:	e1a02003 	mov	r2, r3
    8cb0:	e4c21001 	strb	r1, [r2], #1
    8cb4:	e1540002 	cmp	r4, r2
    8cb8:	98bd8010 	popls	{r4, pc}
    8cbc:	e2832002 	add	r2, r3, #2, 0
    8cc0:	e1540002 	cmp	r4, r2
    8cc4:	e5c31001 	strb	r1, [r3, #1]
    8cc8:	85c31002 	strbhi	r1, [r3, #2]
    8ccc:	e8bd8010 	pop	{r4, pc}

00008cd0 <printk>:
    8cd0:	e92d000f 	push	{r0, r1, r2, r3}
    8cd4:	e92d4030 	push	{r4, r5, lr}
    8cd8:	e59f5040 	ldr	r5, [pc, #64]	; 8d20 <printk+0x50>
    8cdc:	e24dd00c 	sub	sp, sp, #12, 0
    8ce0:	e28d301c 	add	r3, sp, #28, 0
    8ce4:	e3a01b01 	mov	r1, #1024	; 0x400
    8ce8:	e59d2018 	ldr	r2, [sp, #24]
    8cec:	e1a00005 	mov	r0, r5
    8cf0:	e58d3004 	str	r3, [sp, #4]
    8cf4:	eb0000fb 	bl	90e8 <va_printk>
    8cf8:	e1a04000 	mov	r4, r0
    8cfc:	e59f3020 	ldr	r3, [pc, #32]	; 8d24 <printk+0x54>
    8d00:	e1a00005 	mov	r0, r5
    8d04:	e5933000 	ldr	r3, [r3]
    8d08:	e12fff33 	blx	r3
    8d0c:	e1a00004 	mov	r0, r4
    8d10:	e28dd00c 	add	sp, sp, #12, 0
    8d14:	e8bd4030 	pop	{r4, r5, lr}
    8d18:	e28dd010 	add	sp, sp, #16, 0
    8d1c:	e12fff1e 	bx	lr
    8d20:	0000ab5c 	andeq	sl, r0, ip, asr fp
    8d24:	0000ab24 	andeq	sl, r0, r4, lsr #22

00008d28 <internal_putk>:
    8d28:	e92d4070 	push	{r4, r5, r6, lr}
    8d2c:	e1a04000 	mov	r4, r0
    8d30:	e5d00000 	ldrb	r0, [r0]
    8d34:	e3500000 	cmp	r0, #0, 0
    8d38:	0a000005 	beq	8d54 <internal_putk+0x2c>
    8d3c:	e59f5018 	ldr	r5, [pc, #24]	; 8d5c <internal_putk+0x34>
    8d40:	e5953000 	ldr	r3, [r5]
    8d44:	e12fff33 	blx	r3
    8d48:	e5f40001 	ldrb	r0, [r4, #1]!
    8d4c:	e3500000 	cmp	r0, #0, 0
    8d50:	1afffffa 	bne	8d40 <internal_putk+0x18>
    8d54:	e3a00001 	mov	r0, #1, 0
    8d58:	e8bd8070 	pop	{r4, r5, r6, pc}
    8d5c:	0000ab34 	andeq	sl, r0, r4, lsr fp

00008d60 <emit.constprop.0>:
    8d60:	e92d41f0 	push	{r4, r5, r6, r7, r8, lr}
    8d64:	e3530080 	cmp	r3, #128, 0	; 0x80
    8d68:	e1a0c000 	mov	ip, r0
    8d6c:	e24dd048 	sub	sp, sp, #72, 0	; 0x48
    8d70:	e1a00001 	mov	r0, r1
    8d74:	ca000069 	bgt	8f20 <emit.constprop.0+0x1c0>
    8d78:	e24c1002 	sub	r1, ip, #2, 0
    8d7c:	e1a0c002 	mov	ip, r2
    8d80:	e351000e 	cmp	r1, #14, 0
    8d84:	979ff101 	ldrls	pc, [pc, r1, lsl #2]
    8d88:	ea0000a7 	b	902c <emit.constprop.0+0x2cc>
    8d8c:	00008ef8 	strdeq	r8, [r0], -r8	; <UNPREDICTABLE>
    8d90:	0000902c 	andeq	r9, r0, ip, lsr #32
    8d94:	0000902c 	andeq	r9, r0, ip, lsr #32
    8d98:	0000902c 	andeq	r9, r0, ip, lsr #32
    8d9c:	0000902c 	andeq	r9, r0, ip, lsr #32
    8da0:	0000902c 	andeq	r9, r0, ip, lsr #32
    8da4:	00008fd4 	ldrdeq	r8, [r0], -r4
    8da8:	0000902c 	andeq	r9, r0, ip, lsr #32
    8dac:	00008f74 	andeq	r8, r0, r4, ror pc
    8db0:	0000902c 	andeq	r9, r0, ip, lsr #32
    8db4:	0000902c 	andeq	r9, r0, ip, lsr #32
    8db8:	0000902c 	andeq	r9, r0, ip, lsr #32
    8dbc:	0000902c 	andeq	r9, r0, ip, lsr #32
    8dc0:	0000902c 	andeq	r9, r0, ip, lsr #32
    8dc4:	00008dcc 	andeq	r8, r0, ip, asr #27
    8dc8:	e3a0307f 	mov	r3, #127, 0	; 0x7f
    8dcc:	e28d2008 	add	r2, sp, #8, 0
    8dd0:	e1a04002 	mov	r4, r2
    8dd4:	e59f1288 	ldr	r1, [pc, #648]	; 9064 <emit.constprop.0+0x304>
    8dd8:	e20ce00f 	and	lr, ip, #15, 0
    8ddc:	e7d1e00e 	ldrb	lr, [r1, lr]
    8de0:	e35c000f 	cmp	ip, #15, 0
    8de4:	e4c4e001 	strb	lr, [r4], #1
    8de8:	e1a0c22c 	lsr	ip, ip, #4
    8dec:	8afffff9 	bhi	8dd8 <emit.constprop.0+0x78>
    8df0:	e3a0c078 	mov	ip, #120, 0	; 0x78
    8df4:	e1a0e004 	mov	lr, r4
    8df8:	e3a01030 	mov	r1, #48, 0	; 0x30
    8dfc:	e4cec002 	strb	ip, [lr], #2
    8e00:	e5c41001 	strb	r1, [r4, #1]
    8e04:	e04e1002 	sub	r1, lr, r2
    8e08:	e1510003 	cmp	r1, r3
    8e0c:	aa000083 	bge	9020 <emit.constprop.0+0x2c0>
    8e10:	e1510003 	cmp	r1, r3
    8e14:	a3a0c001 	movge	ip, #1, 0
    8e18:	b3a0c000 	movlt	ip, #0, 0
    8e1c:	e2434001 	sub	r4, r3, #1, 0
    8e20:	e0444001 	sub	r4, r4, r1
    8e24:	b0436001 	sublt	r6, r3, r1
    8e28:	a3a06001 	movge	r6, #1, 0
    8e2c:	e3540002 	cmp	r4, #2, 0
    8e30:	938cc001 	orrls	ip, ip, #1, 0
    8e34:	e35c0000 	cmp	ip, #0, 0
    8e38:	1a000075 	bne	9014 <emit.constprop.0+0x2b4>
    8e3c:	e1a0c00e 	mov	ip, lr
    8e40:	e3c65003 	bic	r5, r6, #3, 0
    8e44:	e59f721c 	ldr	r7, [pc, #540]	; 9068 <emit.constprop.0+0x308>
    8e48:	e085500e 	add	r5, r5, lr
    8e4c:	e48c7004 	str	r7, [ip], #4
    8e50:	e15c0005 	cmp	ip, r5
    8e54:	1afffffc 	bne	8e4c <emit.constprop.0+0xec>
    8e58:	e3c6c003 	bic	ip, r6, #3, 0
    8e5c:	e156000c 	cmp	r6, ip
    8e60:	e08e500c 	add	r5, lr, ip
    8e64:	e08cc001 	add	ip, ip, r1
    8e68:	0a000008 	beq	8e90 <emit.constprop.0+0x130>
    8e6c:	e3a07020 	mov	r7, #32, 0
    8e70:	e28c8001 	add	r8, ip, #1, 0
    8e74:	e1580003 	cmp	r8, r3
    8e78:	e5c57000 	strb	r7, [r5]
    8e7c:	aa000003 	bge	8e90 <emit.constprop.0+0x130>
    8e80:	e28cc002 	add	ip, ip, #2, 0
    8e84:	e15c0003 	cmp	ip, r3
    8e88:	e5c57001 	strb	r7, [r5, #1]
    8e8c:	b5c57002 	strblt	r7, [r5, #2]
    8e90:	e1510003 	cmp	r1, r3
    8e94:	a3a04000 	movge	r4, #0, 0
    8e98:	e08e6006 	add	r6, lr, r6
    8e9c:	e0461002 	sub	r1, r6, r2
    8ea0:	e08ee004 	add	lr, lr, r4
    8ea4:	e3a03000 	mov	r3, #0, 0
    8ea8:	e351007f 	cmp	r1, #127, 0	; 0x7f
    8eac:	c241407f 	subgt	r4, r1, #127, 0	; 0x7f
    8eb0:	c0822004 	addgt	r2, r2, r4
    8eb4:	e152000e 	cmp	r2, lr
    8eb8:	e5c63000 	strb	r3, [r6]
    8ebc:	8a00004f 	bhi	9000 <emit.constprop.0+0x2a0>
    8ec0:	e28ee001 	add	lr, lr, #1, 0
    8ec4:	e1a0300e 	mov	r3, lr
    8ec8:	e240c001 	sub	ip, r0, #1, 0
    8ecc:	e5734001 	ldrb	r4, [r3, #-1]!
    8ed0:	e1530002 	cmp	r3, r2
    8ed4:	e5ec4001 	strb	r4, [ip, #1]!
    8ed8:	1afffffb 	bne	8ecc <emit.constprop.0+0x16c>
    8edc:	e04ee003 	sub	lr, lr, r3
    8ee0:	e3a03000 	mov	r3, #0, 0
    8ee4:	e080e00e 	add	lr, r0, lr
    8ee8:	e5ce3000 	strb	r3, [lr]
    8eec:	e28dd048 	add	sp, sp, #72, 0	; 0x48
    8ef0:	e8bd81f0 	pop	{r4, r5, r6, r7, r8, pc}
    8ef4:	e3a0307f 	mov	r3, #127, 0	; 0x7f
    8ef8:	e28d2008 	add	r2, sp, #8, 0
    8efc:	e1a0e002 	mov	lr, r2
    8f00:	e59f1164 	ldr	r1, [pc, #356]	; 906c <emit.constprop.0+0x30c>
    8f04:	e20c4001 	and	r4, ip, #1, 0
    8f08:	e7d14004 	ldrb	r4, [r1, r4]
    8f0c:	e35c0001 	cmp	ip, #1, 0
    8f10:	e4ce4001 	strb	r4, [lr], #1
    8f14:	e1a0c0ac 	lsr	ip, ip, #1
    8f18:	8afffff9 	bhi	8f04 <emit.constprop.0+0x1a4>
    8f1c:	eaffffb8 	b	8e04 <emit.constprop.0+0xa4>
    8f20:	e24c3002 	sub	r3, ip, #2, 0
    8f24:	e1a0c002 	mov	ip, r2
    8f28:	e353000e 	cmp	r3, #14, 0
    8f2c:	979ff103 	ldrls	pc, [pc, r3, lsl #2]
    8f30:	ea00003d 	b	902c <emit.constprop.0+0x2cc>
    8f34:	00008ef4 	strdeq	r8, [r0], -r4
    8f38:	0000902c 	andeq	r9, r0, ip, lsr #32
    8f3c:	0000902c 	andeq	r9, r0, ip, lsr #32
    8f40:	0000902c 	andeq	r9, r0, ip, lsr #32
    8f44:	0000902c 	andeq	r9, r0, ip, lsr #32
    8f48:	0000902c 	andeq	r9, r0, ip, lsr #32
    8f4c:	0000904c 	andeq	r9, r0, ip, asr #32
    8f50:	0000902c 	andeq	r9, r0, ip, lsr #32
    8f54:	00008f70 	andeq	r8, r0, r0, ror pc
    8f58:	0000902c 	andeq	r9, r0, ip, lsr #32
    8f5c:	0000902c 	andeq	r9, r0, ip, lsr #32
    8f60:	0000902c 	andeq	r9, r0, ip, lsr #32
    8f64:	0000902c 	andeq	r9, r0, ip, lsr #32
    8f68:	0000902c 	andeq	r9, r0, ip, lsr #32
    8f6c:	00008dc8 	andeq	r8, r0, r8, asr #27
    8f70:	e3a0307f 	mov	r3, #127, 0	; 0x7f
    8f74:	e59d1060 	ldr	r1, [sp, #96]	; 0x60
    8f78:	e59f70f0 	ldr	r7, [pc, #240]	; 9070 <emit.constprop.0+0x310>
    8f7c:	e0118fa2 	ands	r8, r1, r2, lsr #31
    8f80:	1262c000 	rsbne	ip, r2, #0, 0
    8f84:	e28d2008 	add	r2, sp, #8, 0
    8f88:	13a08001 	movne	r8, #1, 0
    8f8c:	e1a0e002 	mov	lr, r2
    8f90:	e59f60dc 	ldr	r6, [pc, #220]	; 9074 <emit.constprop.0+0x314>
    8f94:	e1a0500c 	mov	r5, ip
    8f98:	e0814c96 	umull	r4, r1, r6, ip
    8f9c:	e1a011a1 	lsr	r1, r1, #3
    8fa0:	e0814101 	add	r4, r1, r1, lsl #2
    8fa4:	e04cc084 	sub	ip, ip, r4, lsl #1
    8fa8:	e7d7400c 	ldrb	r4, [r7, ip]
    8fac:	e3550009 	cmp	r5, #9, 0
    8fb0:	e1a0c001 	mov	ip, r1
    8fb4:	e1a0100e 	mov	r1, lr
    8fb8:	e4ce4001 	strb	r4, [lr], #1
    8fbc:	8afffff4 	bhi	8f94 <emit.constprop.0+0x234>
    8fc0:	e3580000 	cmp	r8, #0, 0
    8fc4:	13a0c02d 	movne	ip, #45, 0	; 0x2d
    8fc8:	15cec000 	strbne	ip, [lr]
    8fcc:	1281e002 	addne	lr, r1, #2, 0
    8fd0:	eaffff8b 	b	8e04 <emit.constprop.0+0xa4>
    8fd4:	e3530001 	cmp	r3, #1, 0
    8fd8:	e5cd2008 	strb	r2, [sp, #8]
    8fdc:	c3a01001 	movgt	r1, #1, 0
    8fe0:	c28de009 	addgt	lr, sp, #9, 0
    8fe4:	c28d2008 	addgt	r2, sp, #8, 0
    8fe8:	caffff88 	bgt	8e10 <emit.constprop.0+0xb0>
    8fec:	e3a03000 	mov	r3, #0, 0
    8ff0:	e28de008 	add	lr, sp, #8, 0
    8ff4:	e1a0200e 	mov	r2, lr
    8ff8:	e5cd3009 	strb	r3, [sp, #9]
    8ffc:	eaffffaf 	b	8ec0 <emit.constprop.0+0x160>
    9000:	e1a0e000 	mov	lr, r0
    9004:	e3a03000 	mov	r3, #0, 0
    9008:	e5ce3000 	strb	r3, [lr]
    900c:	e28dd048 	add	sp, sp, #72, 0	; 0x48
    9010:	e8bd81f0 	pop	{r4, r5, r6, r7, r8, pc}
    9014:	e1a0c001 	mov	ip, r1
    9018:	e1a0500e 	mov	r5, lr
    901c:	eaffff92 	b	8e6c <emit.constprop.0+0x10c>
    9020:	e1a0600e 	mov	r6, lr
    9024:	e24ee001 	sub	lr, lr, #1, 0
    9028:	eaffff9d 	b	8ea4 <emit.constprop.0+0x144>
    902c:	e59f2044 	ldr	r2, [pc, #68]	; 9078 <emit.constprop.0+0x318>
    9030:	e3a03079 	mov	r3, #121, 0	; 0x79
    9034:	e59f1040 	ldr	r1, [pc, #64]	; 907c <emit.constprop.0+0x31c>
    9038:	e58d2000 	str	r2, [sp]
    903c:	e59f003c 	ldr	r0, [pc, #60]	; 9080 <emit.constprop.0+0x320>
    9040:	e59f203c 	ldr	r2, [pc, #60]	; 9084 <emit.constprop.0+0x324>
    9044:	ebffff21 	bl	8cd0 <printk>
    9048:	eb0001b1 	bl	9714 <clean_reboot>
    904c:	e5cd2008 	strb	r2, [sp, #8]
    9050:	e3a0307f 	mov	r3, #127, 0	; 0x7f
    9054:	e3a01001 	mov	r1, #1, 0
    9058:	e28de009 	add	lr, sp, #9, 0
    905c:	e28d2008 	add	r2, sp, #8, 0
    9060:	eaffff6a 	b	8e10 <emit.constprop.0+0xb0>
    9064:	0000a7cc 	andeq	sl, r0, ip, asr #15
    9068:	20202020 	eorcs	r2, r0, r0, lsr #32
    906c:	0000a7e0 	andeq	sl, r0, r0, ror #15
    9070:	0000a7e4 	andeq	sl, r0, r4, ror #15
    9074:	cccccccd 	stclgt	12, cr12, [ip], {205}	; 0xcd
    9078:	0000a628 	andeq	sl, r0, r8, lsr #12
    907c:	0000a7b8 			; <UNDEFINED> instruction: 0x0000a7b8
    9080:	0000a2e8 	andeq	sl, r0, r8, ror #5
    9084:	0000a8f8 	strdeq	sl, [r0], -r8

00009088 <rpi_set_output>:
    9088:	e3500000 	cmp	r0, #0, 0
    908c:	0a000005 	beq	90a8 <rpi_set_output+0x20>
    9090:	e59f3038 	ldr	r3, [pc, #56]	; 90d0 <rpi_set_output+0x48>
    9094:	e3510000 	cmp	r1, #0, 0
    9098:	e5830000 	str	r0, [r3]
    909c:	159f3030 	ldrne	r3, [pc, #48]	; 90d4 <rpi_set_output+0x4c>
    90a0:	15831000 	strne	r1, [r3]
    90a4:	e12fff1e 	bx	lr
    90a8:	e52de004 	push	{lr}		; (str lr, [sp, #-4]!)
    90ac:	e59f2024 	ldr	r2, [pc, #36]	; 90d8 <rpi_set_output+0x50>
    90b0:	e24dd00c 	sub	sp, sp, #12, 0
    90b4:	e3a03020 	mov	r3, #32, 0
    90b8:	e59f101c 	ldr	r1, [pc, #28]	; 90dc <rpi_set_output+0x54>
    90bc:	e58d2000 	str	r2, [sp]
    90c0:	e59f0018 	ldr	r0, [pc, #24]	; 90e0 <rpi_set_output+0x58>
    90c4:	e59f2018 	ldr	r2, [pc, #24]	; 90e4 <rpi_set_output+0x5c>
    90c8:	ebffff00 	bl	8cd0 <printk>
    90cc:	eb000190 	bl	9714 <clean_reboot>
    90d0:	0000ab34 	andeq	sl, r0, r4, lsr fp
    90d4:	0000ab24 	andeq	sl, r0, r4, lsr #22
    90d8:	0000a7f0 	strdeq	sl, [r0], -r0
    90dc:	0000a7b8 			; <UNDEFINED> instruction: 0x0000a7b8
    90e0:	0000a2e8 	andeq	sl, r0, r8, ror #5
    90e4:	0000a900 	andeq	sl, r0, r0, lsl #18

000090e8 <va_printk>:
    90e8:	e92d4ff0 	push	{r4, r5, r6, r7, r8, r9, sl, fp, lr}
    90ec:	e1a0b000 	mov	fp, r0
    90f0:	e3a00000 	mov	r0, #0, 0
    90f4:	e5cb0000 	strb	r0, [fp]
    90f8:	e5d2c000 	ldrb	ip, [r2]
    90fc:	e2417001 	sub	r7, r1, #1, 0
    9100:	e08b7007 	add	r7, fp, r7
    9104:	e15c0000 	cmp	ip, r0
    9108:	115b0007 	cmpne	fp, r7
    910c:	e24ddf47 	sub	sp, sp, #284	; 0x11c
    9110:	e58d2010 	str	r2, [sp, #16]
    9114:	2a000159 	bcs	9680 <va_printk+0x598>
    9118:	e1a06002 	mov	r6, r2
    911c:	e1a08003 	mov	r8, r3
    9120:	e1a0400b 	mov	r4, fp
    9124:	e59fa5a4 	ldr	sl, [pc, #1444]	; 96d0 <va_printk+0x5e8>
    9128:	e58db00c 	str	fp, [sp, #12]
    912c:	ea000005 	b	9148 <va_printk+0x60>
    9130:	e4c4c001 	strb	ip, [r4], #1
    9134:	e2866001 	add	r6, r6, #1, 0
    9138:	e5d6c000 	ldrb	ip, [r6]
    913c:	e35c0000 	cmp	ip, #0, 0
    9140:	11570004 	cmpne	r7, r4
    9144:	9a00002f 	bls	9208 <va_printk+0x120>
    9148:	e35c0025 	cmp	ip, #37, 0	; 0x25
    914c:	1afffff7 	bne	9130 <va_printk+0x48>
    9150:	e5d62001 	ldrb	r2, [r6, #1]
    9154:	e3520025 	cmp	r2, #37, 0	; 0x25
    9158:	04c4c001 	strbeq	ip, [r4], #1
    915c:	02866002 	addeq	r6, r6, #2, 0
    9160:	0afffff4 	beq	9138 <va_printk+0x50>
    9164:	e2423030 	sub	r3, r2, #48, 0	; 0x30
    9168:	e3530009 	cmp	r3, #9, 0
    916c:	e3a05000 	mov	r5, #0, 0
    9170:	e2866001 	add	r6, r6, #1, 0
    9174:	8a000008 	bhi	919c <va_printk+0xb4>
    9178:	e0855105 	add	r5, r5, r5, lsl #2
    917c:	e0825085 	add	r5, r2, r5, lsl #1
    9180:	e5f62001 	ldrb	r2, [r6, #1]!
    9184:	e2455030 	sub	r5, r5, #48, 0	; 0x30
    9188:	e2423030 	sub	r3, r2, #48, 0	; 0x30
    918c:	e3530009 	cmp	r3, #9, 0
    9190:	9afffff8 	bls	9178 <va_printk+0x90>
    9194:	e355001f 	cmp	r5, #31, 0
    9198:	8a00013a 	bhi	9688 <va_printk+0x5a0>
    919c:	e2423062 	sub	r3, r2, #98, 0	; 0x62
    91a0:	e3530016 	cmp	r3, #22, 0
    91a4:	979ff103 	ldrls	pc, [pc, r3, lsl #2]
    91a8:	ea00011b 	b	961c <va_printk+0x534>
    91ac:	00009460 	andeq	r9, r0, r0, ror #8
    91b0:	0000935c 	andeq	r9, r0, ip, asr r3
    91b4:	00009354 	andeq	r9, r0, r4, asr r3
    91b8:	0000961c 	andeq	r9, r0, ip, lsl r6
    91bc:	00009658 	andeq	r9, r0, r8, asr r6
    91c0:	0000961c 	andeq	r9, r0, ip, lsl r6
    91c4:	0000961c 	andeq	r9, r0, ip, lsl r6
    91c8:	0000961c 	andeq	r9, r0, ip, lsl r6
    91cc:	0000961c 	andeq	r9, r0, ip, lsl r6
    91d0:	0000961c 	andeq	r9, r0, ip, lsl r6
    91d4:	00009264 	andeq	r9, r0, r4, ror #4
    91d8:	0000961c 	andeq	r9, r0, ip, lsl r6
    91dc:	0000961c 	andeq	r9, r0, ip, lsl r6
    91e0:	0000961c 	andeq	r9, r0, ip, lsl r6
    91e4:	00009220 	andeq	r9, r0, r0, lsr #4
    91e8:	0000961c 	andeq	r9, r0, ip, lsl r6
    91ec:	0000961c 	andeq	r9, r0, ip, lsl r6
    91f0:	00009558 	andeq	r9, r0, r8, asr r5
    91f4:	0000961c 	andeq	r9, r0, ip, lsl r6
    91f8:	00009330 	andeq	r9, r0, r0, lsr r3
    91fc:	0000961c 	andeq	r9, r0, ip, lsl r6
    9200:	0000961c 	andeq	r9, r0, ip, lsl r6
    9204:	00009220 	andeq	r9, r0, r0, lsr #4
    9208:	e59db00c 	ldr	fp, [sp, #12]
    920c:	e3a03000 	mov	r3, #0, 0
    9210:	e4c43001 	strb	r3, [r4], #1
    9214:	e044000b 	sub	r0, r4, fp
    9218:	e28ddf47 	add	sp, sp, #284	; 0x11c
    921c:	e8bd8ff0 	pop	{r4, r5, r6, r7, r8, r9, sl, fp, pc}
    9220:	e3a01000 	mov	r1, #0, 0
    9224:	e1a03005 	mov	r3, r5
    9228:	e4982004 	ldr	r2, [r8], #4
    922c:	e3a00010 	mov	r0, #16, 0
    9230:	e58d1000 	str	r1, [sp]
    9234:	e28d1018 	add	r1, sp, #24, 0
    9238:	ebfffec8 	bl	8d60 <emit.constprop.0>
    923c:	e1a05000 	mov	r5, r0
    9240:	e2866001 	add	r6, r6, #1, 0
    9244:	e2455001 	sub	r5, r5, #1, 0
    9248:	e5f53001 	ldrb	r3, [r5, #1]!
    924c:	e3530000 	cmp	r3, #0, 0
    9250:	0affffb8 	beq	9138 <va_printk+0x50>
    9254:	e4c43001 	strb	r3, [r4], #1
    9258:	e1570004 	cmp	r7, r4
    925c:	8afffff9 	bhi	9248 <va_printk+0x160>
    9260:	eaffffb4 	b	9138 <va_printk+0x50>
    9264:	e3a02003 	mov	r2, #3, 0
    9268:	e1a00006 	mov	r0, r6
    926c:	e59f1460 	ldr	r1, [pc, #1120]	; 96d4 <va_printk+0x5ec>
    9270:	eb0003da 	bl	a1e0 <strncmp>
    9274:	e3500000 	cmp	r0, #0, 0
    9278:	0a000005 	beq	9294 <va_printk+0x1ac>
    927c:	e3a02003 	mov	r2, #3, 0
    9280:	e1a00006 	mov	r0, r6
    9284:	e59f144c 	ldr	r1, [pc, #1100]	; 96d8 <va_printk+0x5f0>
    9288:	eb0003d4 	bl	a1e0 <strncmp>
    928c:	e3500000 	cmp	r0, #0, 0
    9290:	1a00010b 	bne	96c4 <va_printk+0x5dc>
    9294:	e2888007 	add	r8, r8, #7, 0
    9298:	e3c88007 	bic	r8, r8, #7, 0
    929c:	e598b004 	ldr	fp, [r8, #4]
    92a0:	e4989008 	ldr	r9, [r8], #8
    92a4:	e1a0100b 	mov	r1, fp
    92a8:	e59f042c 	ldr	r0, [pc, #1068]	; 96dc <va_printk+0x5f4>
    92ac:	ebfffe87 	bl	8cd0 <printk>
    92b0:	e1a01009 	mov	r1, r9
    92b4:	e59f0424 	ldr	r0, [pc, #1060]	; 96e0 <va_printk+0x5f8>
    92b8:	ebfffe84 	bl	8cd0 <printk>
    92bc:	e3a02003 	mov	r2, #3, 0
    92c0:	e1a00006 	mov	r0, r6
    92c4:	e59f1408 	ldr	r1, [pc, #1032]	; 96d4 <va_printk+0x5ec>
    92c8:	eb0003c4 	bl	a1e0 <strncmp>
    92cc:	e2503000 	subs	r3, r0, #0, 0
    92d0:	e1a02003 	mov	r2, r3
    92d4:	e2863002 	add	r3, r6, #2, 0
    92d8:	e58d3014 	str	r3, [sp, #20]
    92dc:	1a00009f 	bne	9560 <va_printk+0x478>
    92e0:	e1a06002 	mov	r6, r2
    92e4:	e1a03005 	mov	r3, r5
    92e8:	e58d2000 	str	r2, [sp]
    92ec:	e28d1018 	add	r1, sp, #24, 0
    92f0:	e1a0200b 	mov	r2, fp
    92f4:	e3a00010 	mov	r0, #16, 0
    92f8:	ebfffe98 	bl	8d60 <emit.constprop.0>
    92fc:	e1a0c000 	mov	ip, r0
    9300:	e1a03005 	mov	r3, r5
    9304:	e58d6000 	str	r6, [sp]
    9308:	e28d1098 	add	r1, sp, #152, 0	; 0x98
    930c:	e1a02009 	mov	r2, r9
    9310:	e3a00010 	mov	r0, #16, 0
    9314:	e1a0500c 	mov	r5, ip
    9318:	ebfffe90 	bl	8d60 <emit.constprop.0>
    931c:	e28d0018 	add	r0, sp, #24, 0
    9320:	e28d109a 	add	r1, sp, #154, 0	; 0x9a
    9324:	e59d6014 	ldr	r6, [sp, #20]
    9328:	eb00038a 	bl	a158 <strcat>
    932c:	eaffffc3 	b	9240 <va_printk+0x158>
    9330:	e3a01000 	mov	r1, #0, 0
    9334:	e1a03005 	mov	r3, r5
    9338:	e4982004 	ldr	r2, [r8], #4
    933c:	e3a0000a 	mov	r0, #10, 0
    9340:	e58d1000 	str	r1, [sp]
    9344:	e28d1018 	add	r1, sp, #24, 0
    9348:	ebfffe84 	bl	8d60 <emit.constprop.0>
    934c:	e1a05000 	mov	r5, r0
    9350:	eaffffba 	b	9240 <va_printk+0x158>
    9354:	e3a01001 	mov	r1, #1, 0
    9358:	eafffff5 	b	9334 <va_printk+0x24c>
    935c:	e4983004 	ldr	r3, [r8], #4
    9360:	e3550001 	cmp	r5, #1, 0
    9364:	e5cd3098 	strb	r3, [sp, #152]	; 0x98
    9368:	9a0000a6 	bls	9608 <va_printk+0x520>
    936c:	e2453002 	sub	r3, r5, #2, 0
    9370:	e3530002 	cmp	r3, #2, 0
    9374:	e2451001 	sub	r1, r5, #1, 0
    9378:	9a0000bc 	bls	9670 <va_printk+0x588>
    937c:	e59f0360 	ldr	r0, [pc, #864]	; 96e4 <va_printk+0x5fc>
    9380:	e1a02121 	lsr	r2, r1, #2
    9384:	e3520001 	cmp	r2, #1, 0
    9388:	e58d0099 	str	r0, [sp, #153]	; 0x99
    938c:	0a00000e 	beq	93cc <va_printk+0x2e4>
    9390:	e3520002 	cmp	r2, #2, 0
    9394:	e58d009d 	str	r0, [sp, #157]	; 0x9d
    9398:	0a00000b 	beq	93cc <va_printk+0x2e4>
    939c:	e3520003 	cmp	r2, #3, 0
    93a0:	e58d00a1 	str	r0, [sp, #161]	; 0xa1
    93a4:	0a000008 	beq	93cc <va_printk+0x2e4>
    93a8:	e3520004 	cmp	r2, #4, 0
    93ac:	e58d00a5 	str	r0, [sp, #165]	; 0xa5
    93b0:	0a000005 	beq	93cc <va_printk+0x2e4>
    93b4:	e3520005 	cmp	r2, #5, 0
    93b8:	e58d00a9 	str	r0, [sp, #169]	; 0xa9
    93bc:	0a000002 	beq	93cc <va_printk+0x2e4>
    93c0:	e3520007 	cmp	r2, #7, 0
    93c4:	e58d00ad 	str	r0, [sp, #173]	; 0xad
    93c8:	058d00b1 	streq	r0, [sp, #177]	; 0xb1
    93cc:	e3c12003 	bic	r2, r1, #3, 0
    93d0:	e1510002 	cmp	r1, r2
    93d4:	e28dc099 	add	ip, sp, #153, 0	; 0x99
    93d8:	e08c0002 	add	r0, ip, r2
    93dc:	e2822001 	add	r2, r2, #1, 0
    93e0:	0a000008 	beq	9408 <va_printk+0x320>
    93e4:	e3a0e020 	mov	lr, #32, 0
    93e8:	e2829001 	add	r9, r2, #1, 0
    93ec:	e1550009 	cmp	r5, r9
    93f0:	e5c0e000 	strb	lr, [r0]
    93f4:	da000003 	ble	9408 <va_printk+0x320>
    93f8:	e2822002 	add	r2, r2, #2, 0
    93fc:	e1550002 	cmp	r5, r2
    9400:	e5c0e001 	strb	lr, [r0, #1]
    9404:	c5c0e002 	strbgt	lr, [r0, #2]
    9408:	e3a0e000 	mov	lr, #0, 0
    940c:	e28d0098 	add	r0, sp, #152, 0	; 0x98
    9410:	e08c2001 	add	r2, ip, r1
    9414:	e0422000 	sub	r2, r2, r0
    9418:	e352007f 	cmp	r2, #127, 0	; 0x7f
    941c:	c242207f 	subgt	r2, r2, #127, 0	; 0x7f
    9420:	e08c3003 	add	r3, ip, r3
    9424:	c0800002 	addgt	r0, r0, r2
    9428:	e1530000 	cmp	r3, r0
    942c:	e7cce001 	strb	lr, [ip, r1]
    9430:	3a00006c 	bcc	95e8 <va_printk+0x500>
    9434:	e283c001 	add	ip, r3, #1, 0
    9438:	e1a0300c 	mov	r3, ip
    943c:	e28d5018 	add	r5, sp, #24, 0
    9440:	e2452001 	sub	r2, r5, #1, 0
    9444:	e5731001 	ldrb	r1, [r3, #-1]!
    9448:	e1500003 	cmp	r0, r3
    944c:	e5e21001 	strb	r1, [r2, #1]!
    9450:	1afffffb 	bne	9444 <va_printk+0x35c>
    9454:	e04c3000 	sub	r3, ip, r0
    9458:	e0853003 	add	r3, r5, r3
    945c:	ea00003a 	b	954c <va_printk+0x464>
    9460:	e28d1098 	add	r1, sp, #152, 0	; 0x98
    9464:	e1a03001 	mov	r3, r1
    9468:	e4980004 	ldr	r0, [r8], #4
    946c:	e200c001 	and	ip, r0, #1, 0
    9470:	e7dac00c 	ldrb	ip, [sl, ip]
    9474:	e3500001 	cmp	r0, #1, 0
    9478:	e1a02003 	mov	r2, r3
    947c:	e1a000a0 	lsr	r0, r0, #1
    9480:	e4c3c001 	strb	ip, [r3], #1
    9484:	8afffff8 	bhi	946c <va_printk+0x384>
    9488:	e0430001 	sub	r0, r3, r1
    948c:	e1550000 	cmp	r5, r0
    9490:	da000057 	ble	95f4 <va_printk+0x50c>
    9494:	e045c000 	sub	ip, r5, r0
    9498:	e24ce001 	sub	lr, ip, #1, 0
    949c:	e35e0002 	cmp	lr, #2, 0
    94a0:	e1a0e003 	mov	lr, r3
    94a4:	9a00000a 	bls	94d4 <va_printk+0x3ec>
    94a8:	e3cc9003 	bic	r9, ip, #3, 0
    94ac:	e0899003 	add	r9, r9, r3
    94b0:	e59fb22c 	ldr	fp, [pc, #556]	; 96e4 <va_printk+0x5fc>
    94b4:	e48eb004 	str	fp, [lr], #4
    94b8:	e15e0009 	cmp	lr, r9
    94bc:	1afffffb 	bne	94b0 <va_printk+0x3c8>
    94c0:	e3cce003 	bic	lr, ip, #3, 0
    94c4:	e15e000c 	cmp	lr, ip
    94c8:	e080000e 	add	r0, r0, lr
    94cc:	e083e00e 	add	lr, r3, lr
    94d0:	0a000008 	beq	94f8 <va_printk+0x410>
    94d4:	e3a09020 	mov	r9, #32, 0
    94d8:	e280b001 	add	fp, r0, #1, 0
    94dc:	e155000b 	cmp	r5, fp
    94e0:	e5ce9000 	strb	r9, [lr]
    94e4:	da000003 	ble	94f8 <va_printk+0x410>
    94e8:	e2800002 	add	r0, r0, #2, 0
    94ec:	e1550000 	cmp	r5, r0
    94f0:	e5ce9001 	strb	r9, [lr, #1]
    94f4:	c5ce9002 	strbgt	r9, [lr, #2]
    94f8:	e3a0e000 	mov	lr, #0, 0
    94fc:	e083000c 	add	r0, r3, ip
    9500:	e0400001 	sub	r0, r0, r1
    9504:	e350007f 	cmp	r0, #127, 0	; 0x7f
    9508:	e082200c 	add	r2, r2, ip
    950c:	e7c3e00c 	strb	lr, [r3, ip]
    9510:	da000001 	ble	951c <va_printk+0x434>
    9514:	e240007f 	sub	r0, r0, #127, 0	; 0x7f
    9518:	e0811000 	add	r1, r1, r0
    951c:	e1510002 	cmp	r1, r2
    9520:	8a000030 	bhi	95e8 <va_printk+0x500>
    9524:	e2822001 	add	r2, r2, #1, 0
    9528:	e1a03002 	mov	r3, r2
    952c:	e28d5018 	add	r5, sp, #24, 0
    9530:	e245c001 	sub	ip, r5, #1, 0
    9534:	e5730001 	ldrb	r0, [r3, #-1]!
    9538:	e1530001 	cmp	r3, r1
    953c:	e5ec0001 	strb	r0, [ip, #1]!
    9540:	1afffffb 	bne	9534 <va_printk+0x44c>
    9544:	e0423003 	sub	r3, r2, r3
    9548:	e0853003 	add	r3, r5, r3
    954c:	e3a02000 	mov	r2, #0, 0
    9550:	e5c32000 	strb	r2, [r3]
    9554:	eaffff39 	b	9240 <va_printk+0x158>
    9558:	e4985004 	ldr	r5, [r8], #4
    955c:	eaffff37 	b	9240 <va_printk+0x158>
    9560:	e3a02003 	mov	r2, #3, 0
    9564:	e1a00006 	mov	r0, r6
    9568:	e59f1168 	ldr	r1, [pc, #360]	; 96d8 <va_printk+0x5f0>
    956c:	eb00031b 	bl	a1e0 <strncmp>
    9570:	e2503000 	subs	r3, r0, #0, 0
    9574:	1a00004b 	bne	96a8 <va_printk+0x5c0>
    9578:	e1a06003 	mov	r6, r3
    957c:	e1a0200b 	mov	r2, fp
    9580:	e58d3000 	str	r3, [sp]
    9584:	e28d1018 	add	r1, sp, #24, 0
    9588:	e1a03005 	mov	r3, r5
    958c:	e3a0000a 	mov	r0, #10, 0
    9590:	ebfffdf2 	bl	8d60 <emit.constprop.0>
    9594:	e1a0c000 	mov	ip, r0
    9598:	e1a03005 	mov	r3, r5
    959c:	e1a02009 	mov	r2, r9
    95a0:	e28d1098 	add	r1, sp, #152, 0	; 0x98
    95a4:	e3a0000a 	mov	r0, #10, 0
    95a8:	e58d6000 	str	r6, [sp]
    95ac:	e1a0500c 	mov	r5, ip
    95b0:	ebfffdea 	bl	8d60 <emit.constprop.0>
    95b4:	e59f112c 	ldr	r1, [pc, #300]	; 96e8 <va_printk+0x600>
    95b8:	e28d0018 	add	r0, sp, #24, 0
    95bc:	eb0002f0 	bl	a184 <strcmp>
    95c0:	e3500000 	cmp	r0, #0, 0
    95c4:	e28d1098 	add	r1, sp, #152, 0	; 0x98
    95c8:	e28d0018 	add	r0, sp, #24, 0
    95cc:	1a000002 	bne	95dc <va_printk+0x4f4>
    95d0:	eb0002fc 	bl	a1c8 <strcpy>
    95d4:	e59d6014 	ldr	r6, [sp, #20]
    95d8:	eaffff18 	b	9240 <va_printk+0x158>
    95dc:	eb0002dd 	bl	a158 <strcat>
    95e0:	e59d6014 	ldr	r6, [sp, #20]
    95e4:	eaffff15 	b	9240 <va_printk+0x158>
    95e8:	e28d5018 	add	r5, sp, #24, 0
    95ec:	e1a03005 	mov	r3, r5
    95f0:	eaffffd5 	b	954c <va_printk+0x464>
    95f4:	e3a0c000 	mov	ip, #0, 0
    95f8:	e350007f 	cmp	r0, #127, 0	; 0x7f
    95fc:	e5c3c000 	strb	ip, [r3]
    9600:	caffffc3 	bgt	9514 <va_printk+0x42c>
    9604:	eaffffc6 	b	9524 <va_printk+0x43c>
    9608:	e3a02000 	mov	r2, #0, 0
    960c:	e28d3098 	add	r3, sp, #152, 0	; 0x98
    9610:	e1a00003 	mov	r0, r3
    9614:	e5cd2099 	strb	r2, [sp, #153]	; 0x99
    9618:	eaffff85 	b	9434 <va_printk+0x34c>
    961c:	e3a03000 	mov	r3, #0, 0
    9620:	e1a01002 	mov	r1, r2
    9624:	e5c63001 	strb	r3, [r6, #1]
    9628:	e59f00bc 	ldr	r0, [pc, #188]	; 96ec <va_printk+0x604>
    962c:	ebfffda7 	bl	8cd0 <printk>
    9630:	e59f30b8 	ldr	r3, [pc, #184]	; 96f0 <va_printk+0x608>
    9634:	e59d0010 	ldr	r0, [sp, #16]
    9638:	e5933000 	ldr	r3, [r3]
    963c:	e12fff33 	blx	r3
    9640:	e3a030e2 	mov	r3, #226, 0	; 0xe2
    9644:	e59f20a8 	ldr	r2, [pc, #168]	; 96f4 <va_printk+0x60c>
    9648:	e59f10a8 	ldr	r1, [pc, #168]	; 96f8 <va_printk+0x610>
    964c:	e59f00a8 	ldr	r0, [pc, #168]	; 96fc <va_printk+0x614>
    9650:	ebfffd9e 	bl	8cd0 <printk>
    9654:	eb00002e 	bl	9714 <clean_reboot>
    9658:	e3a030be 	mov	r3, #190, 0	; 0xbe
    965c:	e59f2090 	ldr	r2, [pc, #144]	; 96f4 <va_printk+0x60c>
    9660:	e59f1090 	ldr	r1, [pc, #144]	; 96f8 <va_printk+0x610>
    9664:	e59f0094 	ldr	r0, [pc, #148]	; 9700 <va_printk+0x618>
    9668:	ebfffd98 	bl	8cd0 <printk>
    966c:	eb000028 	bl	9714 <clean_reboot>
    9670:	e28dc099 	add	ip, sp, #153, 0	; 0x99
    9674:	e1a0000c 	mov	r0, ip
    9678:	e3a02001 	mov	r2, #1, 0
    967c:	eaffff58 	b	93e4 <va_printk+0x2fc>
    9680:	e1a0400b 	mov	r4, fp
    9684:	eafffee0 	b	920c <va_printk+0x124>
    9688:	e3a03098 	mov	r3, #152, 0	; 0x98
    968c:	e59f2070 	ldr	r2, [pc, #112]	; 9704 <va_printk+0x61c>
    9690:	e59f1060 	ldr	r1, [pc, #96]	; 96f8 <va_printk+0x610>
    9694:	e58d2000 	str	r2, [sp]
    9698:	e59f0068 	ldr	r0, [pc, #104]	; 9708 <va_printk+0x620>
    969c:	e59f2050 	ldr	r2, [pc, #80]	; 96f4 <va_printk+0x60c>
    96a0:	ebfffd8a 	bl	8cd0 <printk>
    96a4:	eb00001a 	bl	9714 <clean_reboot>
    96a8:	e3a030b6 	mov	r3, #182, 0	; 0xb6
    96ac:	e59f2040 	ldr	r2, [pc, #64]	; 96f4 <va_printk+0x60c>
    96b0:	e59f1040 	ldr	r1, [pc, #64]	; 96f8 <va_printk+0x610>
    96b4:	e59f0050 	ldr	r0, [pc, #80]	; 970c <va_printk+0x624>
    96b8:	e58d6000 	str	r6, [sp]
    96bc:	ebfffd83 	bl	8cd0 <printk>
    96c0:	eb000013 	bl	9714 <clean_reboot>
    96c4:	e3a0309f 	mov	r3, #159, 0	; 0x9f
    96c8:	e59f2040 	ldr	r2, [pc, #64]	; 9710 <va_printk+0x628>
    96cc:	eaffffef 	b	9690 <va_printk+0x5a8>
    96d0:	0000a7e0 	andeq	sl, r0, r0, ror #15
    96d4:	0000a804 	andeq	sl, r0, r4, lsl #16
    96d8:	0000a818 	andeq	sl, r0, r8, lsl r8
    96dc:	0000a808 	andeq	sl, r0, r8, lsl #16
    96e0:	0000a810 	andeq	sl, r0, r0, lsl r8
    96e4:	20202020 	eorcs	r2, r0, r0, lsr #32
    96e8:	0000a628 	andeq	sl, r0, r8, lsr #12
    96ec:	0000a8a8 	andeq	sl, r0, r8, lsr #17
    96f0:	0000ab24 	andeq	sl, r0, r4, lsr #22
    96f4:	0000a910 	andeq	sl, r0, r0, lsl r9
    96f8:	0000a7b8 			; <UNDEFINED> instruction: 0x0000a7b8
    96fc:	0000a8d8 	ldrdeq	sl, [r0], -r8
    9700:	0000a880 	andeq	sl, r0, r0, lsl #17
    9704:	0000a7f8 	strdeq	sl, [r0], -r8
    9708:	0000a2e8 	andeq	sl, r0, r8, ror #5
    970c:	0000a858 	andeq	sl, r0, r8, asr r8
    9710:	0000a81c 	andeq	sl, r0, ip, lsl r8

00009714 <clean_reboot>:
    9714:	e59f301c 	ldr	r3, [pc, #28]	; 9738 <clean_reboot+0x24>
    9718:	e92d4010 	push	{r4, lr}
    971c:	e5933000 	ldr	r3, [r3]
    9720:	e59f0014 	ldr	r0, [pc, #20]	; 973c <clean_reboot+0x28>
    9724:	e12fff33 	blx	r3
    9728:	eb00011b 	bl	9b9c <uart_flush_tx>
    972c:	e3a0000a 	mov	r0, #10, 0
    9730:	eb000082 	bl	9940 <delay_ms>
    9734:	eb00004b 	bl	9868 <rpi_reboot>
    9738:	0000ab24 	andeq	sl, r0, r4, lsr #22
    973c:	0000a91c 	andeq	sl, r0, ip, lsl r9

00009740 <_cstart>:
    9740:	e92d4070 	push	{r4, r5, r6, lr}
    9744:	eb00003b 	bl	9838 <custom_loader>
    9748:	e59f20e0 	ldr	r2, [pc, #224]	; 9830 <_cstart+0xf0>
    974c:	e59fc0e0 	ldr	ip, [pc, #224]	; 9834 <_cstart+0xf4>
    9750:	e152000c 	cmp	r2, ip
    9754:	2a00002e 	bcs	9814 <_cstart+0xd4>
    9758:	e24c1001 	sub	r1, ip, #1, 0
    975c:	e0411002 	sub	r1, r1, r2
    9760:	e3510017 	cmp	r1, #23, 0
    9764:	e1a03122 	lsr	r3, r2, #2
    9768:	e1a01121 	lsr	r1, r1, #2
    976c:	e2811001 	add	r1, r1, #1, 0
    9770:	e2033001 	and	r3, r3, #1, 0
    9774:	9a00002b 	bls	9828 <_cstart+0xe8>
    9778:	e3530000 	cmp	r3, #0, 0
    977c:	11a00002 	movne	r0, r2
    9780:	13a0e000 	movne	lr, #0, 0
    9784:	e3a04000 	mov	r4, #0, 0
    9788:	e3a05000 	mov	r5, #0, 0
    978c:	e0411003 	sub	r1, r1, r3
    9790:	01a00002 	moveq	r0, r2
    9794:	e0823103 	add	r3, r2, r3, lsl #2
    9798:	e1a020a1 	lsr	r2, r1, #1
    979c:	1480e004 	strne	lr, [r0], #4
    97a0:	e0832182 	add	r2, r3, r2, lsl #3
    97a4:	e0c340f8 	strd	r4, [r3], #8
    97a8:	e1520003 	cmp	r2, r3
    97ac:	1afffffc 	bne	97a4 <_cstart+0x64>
    97b0:	e3c13001 	bic	r3, r1, #1, 0
    97b4:	e1510003 	cmp	r1, r3
    97b8:	e0803103 	add	r3, r0, r3, lsl #2
    97bc:	0a000014 	beq	9814 <_cstart+0xd4>
    97c0:	e1a01003 	mov	r1, r3
    97c4:	e3a02000 	mov	r2, #0, 0
    97c8:	e4812004 	str	r2, [r1], #4
    97cc:	e151000c 	cmp	r1, ip
    97d0:	2a00000f 	bcs	9814 <_cstart+0xd4>
    97d4:	e2831008 	add	r1, r3, #8, 0
    97d8:	e151000c 	cmp	r1, ip
    97dc:	e5832004 	str	r2, [r3, #4]
    97e0:	2a00000b 	bcs	9814 <_cstart+0xd4>
    97e4:	e283100c 	add	r1, r3, #12, 0
    97e8:	e151000c 	cmp	r1, ip
    97ec:	e5832008 	str	r2, [r3, #8]
    97f0:	2a000007 	bcs	9814 <_cstart+0xd4>
    97f4:	e2831010 	add	r1, r3, #16, 0
    97f8:	e151000c 	cmp	r1, ip
    97fc:	e583200c 	str	r2, [r3, #12]
    9800:	2a000003 	bcs	9814 <_cstart+0xd4>
    9804:	e2831014 	add	r1, r3, #20, 0
    9808:	e151000c 	cmp	r1, ip
    980c:	e5832010 	str	r2, [r3, #16]
    9810:	35832014 	strcc	r2, [r3, #20]
    9814:	eb000082 	bl	9a24 <uart_init>
    9818:	e3a03001 	mov	r3, #1, 0
    981c:	ee0f3f1c 	mcr	15, 0, r3, cr15, cr12, {0}
    9820:	ebfffa26 	bl	80c0 <notmain>
    9824:	ebffffba 	bl	9714 <clean_reboot>
    9828:	e1a03002 	mov	r3, r2
    982c:	eaffffe3 	b	97c0 <_cstart+0x80>
    9830:	0000ab38 	andeq	sl, r0, r8, lsr fp
    9834:	0000af60 	andeq	sl, r0, r0, ror #30

00009838 <custom_loader>:
    9838:	e12fff1e 	bx	lr

0000983c <at_user_level>:
    983c:	e10f0000 	mrs	r0, CPSR
    9840:	e200001f 	and	r0, r0, #31, 0
    9844:	e2400010 	sub	r0, r0, #16, 0
    9848:	e16f0f10 	clz	r0, r0
    984c:	e1a002a0 	lsr	r0, r0, #5
    9850:	e12fff1e 	bx	lr

00009854 <set_user_level>:
    9854:	e10f3000 	mrs	r3, CPSR
    9858:	e3c3301f 	bic	r3, r3, #31, 0
    985c:	e3833010 	orr	r3, r3, #16, 0
    9860:	e129f003 	msr	CPSR_fc, r3
    9864:	e12fff1e 	bx	lr

00009868 <rpi_reboot>:
    9868:	e92d4010 	push	{r4, lr}
    986c:	e10f3000 	mrs	r3, CPSR
    9870:	e203301f 	and	r3, r3, #31, 0
    9874:	e3530010 	cmp	r3, #16, 0
    9878:	1a000003 	bne	988c <rpi_reboot+0x24>
    987c:	e10f3000 	mrs	r3, CPSR
    9880:	e3c3301f 	bic	r3, r3, #31, 0
    9884:	e3833010 	orr	r3, r3, #16, 0
    9888:	e129f003 	msr	CPSR_fc, r3
    988c:	eb00025f 	bl	a210 <reboot_callout>
    9890:	eb0000c1 	bl	9b9c <uart_flush_tx>
    9894:	e3a0000a 	mov	r0, #10, 0
    9898:	eb000028 	bl	9940 <delay_ms>
    989c:	e59f1014 	ldr	r1, [pc, #20]	; 98b8 <rpi_reboot+0x50>
    98a0:	e59f0014 	ldr	r0, [pc, #20]	; 98bc <rpi_reboot+0x54>
    98a4:	ebfff9de 	bl	8024 <PUT32>
    98a8:	e59f1010 	ldr	r1, [pc, #16]	; 98c0 <rpi_reboot+0x58>
    98ac:	e59f0010 	ldr	r0, [pc, #16]	; 98c4 <rpi_reboot+0x5c>
    98b0:	ebfff9db 	bl	8024 <PUT32>
    98b4:	eafffffe 	b	98b4 <rpi_reboot+0x4c>
    98b8:	5a000001 	bpl	98c4 <rpi_reboot+0x5c>
    98bc:	20100024 	andscs	r0, r0, r4, lsr #32
    98c0:	5a000020 	bpl	9948 <delay_ms+0x8>
    98c4:	2010001c 	andscs	r0, r0, ip, lsl r0

000098c8 <timer_get_usec_raw>:
    98c8:	e59f0000 	ldr	r0, [pc]	; 98d0 <timer_get_usec_raw+0x8>
    98cc:	eafff9d6 	b	802c <GET32>
    98d0:	20003004 	andcs	r3, r0, r4

000098d4 <timer_get_usec>:
    98d4:	e92d4010 	push	{r4, lr}
    98d8:	eb00024d 	bl	a214 <dev_barrier>
    98dc:	e59f0010 	ldr	r0, [pc, #16]	; 98f4 <timer_get_usec+0x20>
    98e0:	ebfff9d1 	bl	802c <GET32>
    98e4:	e1a04000 	mov	r4, r0
    98e8:	eb000249 	bl	a214 <dev_barrier>
    98ec:	e1a00004 	mov	r0, r4
    98f0:	e8bd8010 	pop	{r4, pc}
    98f4:	20003004 	andcs	r3, r0, r4

000098f8 <delay_us>:
    98f8:	e92d41f0 	push	{r4, r5, r6, r7, r8, lr}
    98fc:	e1a06000 	mov	r6, r0
    9900:	eb000243 	bl	a214 <dev_barrier>
    9904:	e59f0030 	ldr	r0, [pc, #48]	; 993c <delay_us+0x44>
    9908:	ebfff9c7 	bl	802c <GET32>
    990c:	e1a05000 	mov	r5, r0
    9910:	eb00023f 	bl	a214 <dev_barrier>
    9914:	e59f7020 	ldr	r7, [pc, #32]	; 993c <delay_us+0x44>
    9918:	eb00023d 	bl	a214 <dev_barrier>
    991c:	e1a00007 	mov	r0, r7
    9920:	ebfff9c1 	bl	802c <GET32>
    9924:	e1a04000 	mov	r4, r0
    9928:	e0444005 	sub	r4, r4, r5
    992c:	eb000238 	bl	a214 <dev_barrier>
    9930:	e1540006 	cmp	r4, r6
    9934:	3afffff7 	bcc	9918 <delay_us+0x20>
    9938:	e8bd81f0 	pop	{r4, r5, r6, r7, r8, pc}
    993c:	20003004 	andcs	r3, r0, r4

00009940 <delay_ms>:
    9940:	e92d41f0 	push	{r4, r5, r6, r7, r8, lr}
    9944:	e0604280 	rsb	r4, r0, r0, lsl #5
    9948:	e0800104 	add	r0, r0, r4, lsl #2
    994c:	e1a04180 	lsl	r4, r0, #3
    9950:	eb00022f 	bl	a214 <dev_barrier>
    9954:	e59f0030 	ldr	r0, [pc, #48]	; 998c <delay_ms+0x4c>
    9958:	ebfff9b3 	bl	802c <GET32>
    995c:	e1a06000 	mov	r6, r0
    9960:	eb00022b 	bl	a214 <dev_barrier>
    9964:	e59f7020 	ldr	r7, [pc, #32]	; 998c <delay_ms+0x4c>
    9968:	eb000229 	bl	a214 <dev_barrier>
    996c:	e1a00007 	mov	r0, r7
    9970:	ebfff9ad 	bl	802c <GET32>
    9974:	e1a05000 	mov	r5, r0
    9978:	e0455006 	sub	r5, r5, r6
    997c:	eb000224 	bl	a214 <dev_barrier>
    9980:	e1540005 	cmp	r4, r5
    9984:	8afffff7 	bhi	9968 <delay_ms+0x28>
    9988:	e8bd81f0 	pop	{r4, r5, r6, r7, r8, pc}
    998c:	20003004 	andcs	r3, r0, r4

00009990 <delay_sec>:
    9990:	e92d41f0 	push	{r4, r5, r6, r7, r8, lr}
    9994:	e0604280 	rsb	r4, r0, r0, lsl #5
    9998:	e0644304 	rsb	r4, r4, r4, lsl #6
    999c:	e0800184 	add	r0, r0, r4, lsl #3
    99a0:	e1a04300 	lsl	r4, r0, #6
    99a4:	eb00021a 	bl	a214 <dev_barrier>
    99a8:	e59f0030 	ldr	r0, [pc, #48]	; 99e0 <delay_sec+0x50>
    99ac:	ebfff99e 	bl	802c <GET32>
    99b0:	e1a06000 	mov	r6, r0
    99b4:	eb000216 	bl	a214 <dev_barrier>
    99b8:	e59f7020 	ldr	r7, [pc, #32]	; 99e0 <delay_sec+0x50>
    99bc:	eb000214 	bl	a214 <dev_barrier>
    99c0:	e1a00007 	mov	r0, r7
    99c4:	ebfff998 	bl	802c <GET32>
    99c8:	e1a05000 	mov	r5, r0
    99cc:	e0455006 	sub	r5, r5, r6
    99d0:	eb00020f 	bl	a214 <dev_barrier>
    99d4:	e1540005 	cmp	r4, r5
    99d8:	8afffff7 	bhi	99bc <delay_sec+0x2c>
    99dc:	e8bd81f0 	pop	{r4, r5, r6, r7, r8, pc}
    99e0:	20003004 	andcs	r3, r0, r4

000099e4 <and_in32>:
    99e4:	e92d4070 	push	{r4, r5, r6, lr}
    99e8:	e1a04000 	mov	r4, r0
    99ec:	e1a05001 	mov	r5, r1
    99f0:	ebfff98d 	bl	802c <GET32>
    99f4:	e0001005 	and	r1, r0, r5
    99f8:	e1a00004 	mov	r0, r4
    99fc:	ebfff988 	bl	8024 <PUT32>
    9a00:	e8bd8070 	pop	{r4, r5, r6, pc}

00009a04 <or_in32>:
    9a04:	e92d4070 	push	{r4, r5, r6, lr}
    9a08:	e1a04000 	mov	r4, r0
    9a0c:	e1a05001 	mov	r5, r1
    9a10:	ebfff985 	bl	802c <GET32>
    9a14:	e1801005 	orr	r1, r0, r5
    9a18:	e1a00004 	mov	r0, r4
    9a1c:	ebfff980 	bl	8024 <PUT32>
    9a20:	e8bd8070 	pop	{r4, r5, r6, pc}

00009a24 <uart_init>:
    9a24:	e92d4010 	push	{r4, lr}
    9a28:	e3a01002 	mov	r1, #2, 0
    9a2c:	e3a0000e 	mov	r0, #14, 0
    9a30:	eb000153 	bl	9f84 <gpio_set_function>
    9a34:	e3a01002 	mov	r1, #2, 0
    9a38:	e3a0000f 	mov	r0, #15, 0
    9a3c:	eb000150 	bl	9f84 <gpio_set_function>
    9a40:	eb0001f3 	bl	a214 <dev_barrier>
    9a44:	e3a01001 	mov	r1, #1, 0
    9a48:	e59f0064 	ldr	r0, [pc, #100]	; 9ab4 <uart_init+0x90>
    9a4c:	ebffffec 	bl	9a04 <or_in32>
    9a50:	eb0001ef 	bl	a214 <dev_barrier>
    9a54:	e59f405c 	ldr	r4, [pc, #92]	; 9ab8 <uart_init+0x94>
    9a58:	e3a01000 	mov	r1, #0, 0
    9a5c:	e1a00004 	mov	r0, r4
    9a60:	ebfff96f 	bl	8024 <PUT32>
    9a64:	e3a01000 	mov	r1, #0, 0
    9a68:	e59f004c 	ldr	r0, [pc, #76]	; 9abc <uart_init+0x98>
    9a6c:	ebfff96c 	bl	8024 <PUT32>
    9a70:	e3a01003 	mov	r1, #3, 0
    9a74:	e59f0044 	ldr	r0, [pc, #68]	; 9ac0 <uart_init+0x9c>
    9a78:	ebfff969 	bl	8024 <PUT32>
    9a7c:	e3a01000 	mov	r1, #0, 0
    9a80:	e59f003c 	ldr	r0, [pc, #60]	; 9ac4 <uart_init+0xa0>
    9a84:	ebfff966 	bl	8024 <PUT32>
    9a88:	e3a010c7 	mov	r1, #199, 0	; 0xc7
    9a8c:	e59f0034 	ldr	r0, [pc, #52]	; 9ac8 <uart_init+0xa4>
    9a90:	ebfff963 	bl	8024 <PUT32>
    9a94:	e59f1030 	ldr	r1, [pc, #48]	; 9acc <uart_init+0xa8>
    9a98:	e59f0030 	ldr	r0, [pc, #48]	; 9ad0 <uart_init+0xac>
    9a9c:	ebfff960 	bl	8024 <PUT32>
    9aa0:	e3a01003 	mov	r1, #3, 0
    9aa4:	e1a00004 	mov	r0, r4
    9aa8:	ebfff95d 	bl	8024 <PUT32>
    9aac:	eb0001d8 	bl	a214 <dev_barrier>
    9ab0:	e8bd8010 	pop	{r4, pc}
    9ab4:	20215004 	eorcs	r5, r1, r4
    9ab8:	20215060 	eorcs	r5, r1, r0, rrx
    9abc:	20215044 	eorcs	r5, r1, r4, asr #32
    9ac0:	2021504c 	eorcs	r5, r1, ip, asr #32
    9ac4:	20215050 	eorcs	r5, r1, r0, asr r0
    9ac8:	20215048 	eorcs	r5, r1, r8, asr #32
    9acc:	0000010e 	andeq	r0, r0, lr, lsl #2
    9ad0:	20215068 	eorcs	r5, r1, r8, rrx

00009ad4 <uart_can_getc>:
    9ad4:	e92d4010 	push	{r4, lr}
    9ad8:	e59f0008 	ldr	r0, [pc, #8]	; 9ae8 <uart_can_getc+0x14>
    9adc:	ebfff952 	bl	802c <GET32>
    9ae0:	e2000001 	and	r0, r0, #1, 0
    9ae4:	e8bd8010 	pop	{r4, pc}
    9ae8:	20215064 	eorcs	r5, r1, r4, rrx

00009aec <uart_can_putc>:
    9aec:	e92d4010 	push	{r4, lr}
    9af0:	e59f0010 	ldr	r0, [pc, #16]	; 9b08 <uart_can_putc+0x1c>
    9af4:	ebfff94c 	bl	802c <GET32>
    9af8:	e3100002 	tst	r0, #2, 0
    9afc:	13a00001 	movne	r0, #1, 0
    9b00:	03a00000 	moveq	r0, #0, 0
    9b04:	e8bd8010 	pop	{r4, pc}
    9b08:	20215064 	eorcs	r5, r1, r4, rrx

00009b0c <uart_getc>:
    9b0c:	e92d4010 	push	{r4, lr}
    9b10:	eb0001bf 	bl	a214 <dev_barrier>
    9b14:	ebffffee 	bl	9ad4 <uart_can_getc>
    9b18:	e3500000 	cmp	r0, #0, 0
    9b1c:	0afffffc 	beq	9b14 <uart_getc+0x8>
    9b20:	e59f0010 	ldr	r0, [pc, #16]	; 9b38 <uart_getc+0x2c>
    9b24:	ebfff940 	bl	802c <GET32>
    9b28:	e6ef4070 	uxtb	r4, r0
    9b2c:	eb0001b8 	bl	a214 <dev_barrier>
    9b30:	e1a00004 	mov	r0, r4
    9b34:	e8bd8010 	pop	{r4, pc}
    9b38:	20215040 	eorcs	r5, r1, r0, asr #32

00009b3c <uart_putc>:
    9b3c:	e92d4010 	push	{r4, lr}
    9b40:	e1a04000 	mov	r4, r0
    9b44:	eb0001b2 	bl	a214 <dev_barrier>
    9b48:	ebffffe7 	bl	9aec <uart_can_putc>
    9b4c:	e3500000 	cmp	r0, #0, 0
    9b50:	0afffffc 	beq	9b48 <uart_putc+0xc>
    9b54:	e6ef1074 	uxtb	r1, r4
    9b58:	e59f0008 	ldr	r0, [pc, #8]	; 9b68 <uart_putc+0x2c>
    9b5c:	ebfff930 	bl	8024 <PUT32>
    9b60:	eb0001ab 	bl	a214 <dev_barrier>
    9b64:	e8bd8010 	pop	{r4, pc}
    9b68:	20215040 	eorcs	r5, r1, r0, asr #32

00009b6c <uart_has_data>:
    9b6c:	e92d4010 	push	{r4, lr}
    9b70:	eb0001a7 	bl	a214 <dev_barrier>
    9b74:	ebffffd6 	bl	9ad4 <uart_can_getc>
    9b78:	e8bd8010 	pop	{r4, pc}

00009b7c <uart_tx_is_empty>:
    9b7c:	e92d4010 	push	{r4, lr}
    9b80:	eb0001a3 	bl	a214 <dev_barrier>
    9b84:	e59f000c 	ldr	r0, [pc, #12]	; 9b98 <uart_tx_is_empty+0x1c>
    9b88:	ebfff927 	bl	802c <GET32>
    9b8c:	e1a004a0 	lsr	r0, r0, #9
    9b90:	e2000001 	and	r0, r0, #1, 0
    9b94:	e8bd8010 	pop	{r4, pc}
    9b98:	20215064 	eorcs	r5, r1, r4, rrx

00009b9c <uart_flush_tx>:
    9b9c:	e92d4010 	push	{r4, lr}
    9ba0:	ebfffff5 	bl	9b7c <uart_tx_is_empty>
    9ba4:	e3500000 	cmp	r0, #0, 0
    9ba8:	0afffffc 	beq	9ba0 <uart_flush_tx+0x4>
    9bac:	e8bd8010 	pop	{r4, pc}

00009bb0 <uart_disable>:
    9bb0:	e92d4010 	push	{r4, lr}
    9bb4:	ebfffff8 	bl	9b9c <uart_flush_tx>
    9bb8:	eb000195 	bl	a214 <dev_barrier>
    9bbc:	e3e01001 	mvn	r1, #1, 0
    9bc0:	e59f0008 	ldr	r0, [pc, #8]	; 9bd0 <uart_disable+0x20>
    9bc4:	ebffff86 	bl	99e4 <and_in32>
    9bc8:	eb000191 	bl	a214 <dev_barrier>
    9bcc:	e8bd8010 	pop	{r4, pc}
    9bd0:	20215004 	eorcs	r5, r1, r4

00009bd4 <kmalloc_heap_end>:
    9bd4:	e59f3004 	ldr	r3, [pc, #4]	; 9be0 <kmalloc_heap_end+0xc>
    9bd8:	e5930000 	ldr	r0, [r3]
    9bdc:	e12fff1e 	bx	lr
    9be0:	0000ab28 	andeq	sl, r0, r8, lsr #22

00009be4 <kmalloc_heap_start>:
    9be4:	e59f3004 	ldr	r3, [pc, #4]	; 9bf0 <kmalloc_heap_start+0xc>
    9be8:	e5930004 	ldr	r0, [r3, #4]
    9bec:	e12fff1e 	bx	lr
    9bf0:	0000ab28 	andeq	sl, r0, r8, lsr #22

00009bf4 <kmalloc_heap_ptr>:
    9bf4:	e59f3004 	ldr	r3, [pc, #4]	; 9c00 <kmalloc_heap_ptr+0xc>
    9bf8:	e5930000 	ldr	r0, [r3]
    9bfc:	e12fff1e 	bx	lr
    9c00:	0000ab28 	andeq	sl, r0, r8, lsr #22

00009c04 <kmalloc_init_set_start>:
    9c04:	e52de004 	push	{lr}		; (str lr, [sp, #-4]!)
    9c08:	e24dd00c 	sub	sp, sp, #12, 0
    9c0c:	e3510000 	cmp	r1, #0, 0
    9c10:	0a00000a 	beq	9c40 <kmalloc_init_set_start+0x3c>
    9c14:	e59f306c 	ldr	r3, [pc, #108]	; 9c88 <kmalloc_init_set_start+0x84>
    9c18:	e5933000 	ldr	r3, [r3]
    9c1c:	e1530000 	cmp	r3, r0
    9c20:	8a00000e 	bhi	9c60 <kmalloc_init_set_start+0x5c>
    9c24:	e59f305c 	ldr	r3, [pc, #92]	; 9c88 <kmalloc_init_set_start+0x84>
    9c28:	e5830000 	str	r0, [r3]
    9c2c:	e5830004 	str	r0, [r3, #4]
    9c30:	e0800001 	add	r0, r0, r1
    9c34:	e5830008 	str	r0, [r3, #8]
    9c38:	e28dd00c 	add	sp, sp, #12, 0
    9c3c:	e49df004 	pop	{pc}		; (ldr pc, [sp], #4)
    9c40:	e59f3044 	ldr	r3, [pc, #68]	; 9c8c <kmalloc_init_set_start+0x88>
    9c44:	e58d3000 	str	r3, [sp]
    9c48:	e3a03030 	mov	r3, #48, 0	; 0x30
    9c4c:	e59f203c 	ldr	r2, [pc, #60]	; 9c90 <kmalloc_init_set_start+0x8c>
    9c50:	e59f103c 	ldr	r1, [pc, #60]	; 9c94 <kmalloc_init_set_start+0x90>
    9c54:	e59f003c 	ldr	r0, [pc, #60]	; 9c98 <kmalloc_init_set_start+0x94>
    9c58:	ebfffc1c 	bl	8cd0 <printk>
    9c5c:	ebfffeac 	bl	9714 <clean_reboot>
    9c60:	e59f3020 	ldr	r3, [pc, #32]	; 9c88 <kmalloc_init_set_start+0x84>
    9c64:	e5933008 	ldr	r3, [r3, #8]
    9c68:	e58d3004 	str	r3, [sp, #4]
    9c6c:	e58d0000 	str	r0, [sp]
    9c70:	e3a03034 	mov	r3, #52, 0	; 0x34
    9c74:	e59f2014 	ldr	r2, [pc, #20]	; 9c90 <kmalloc_init_set_start+0x8c>
    9c78:	e59f1014 	ldr	r1, [pc, #20]	; 9c94 <kmalloc_init_set_start+0x90>
    9c7c:	e59f0018 	ldr	r0, [pc, #24]	; 9c9c <kmalloc_init_set_start+0x98>
    9c80:	ebfffc12 	bl	8cd0 <printk>
    9c84:	ebfffea2 	bl	9714 <clean_reboot>
    9c88:	0000ab28 	andeq	sl, r0, r8, lsr #22
    9c8c:	0000a934 	andeq	sl, r0, r4, lsr r9
    9c90:	0000aac0 	andeq	sl, r0, r0, asr #21
    9c94:	0000a928 	andeq	sl, r0, r8, lsr #18
    9c98:	0000a2e8 	andeq	sl, r0, r8, ror #5
    9c9c:	0000a940 	andeq	sl, r0, r0, asr #18

00009ca0 <kmalloc_init>:
    9ca0:	e92d4010 	push	{r4, lr}
    9ca4:	e59f303c 	ldr	r3, [pc, #60]	; 9ce8 <kmalloc_init+0x48>
    9ca8:	e5933000 	ldr	r3, [r3]
    9cac:	e3530000 	cmp	r3, #0, 0
    9cb0:	1a000006 	bne	9cd0 <kmalloc_init+0x30>
    9cb4:	e59f302c 	ldr	r3, [pc, #44]	; 9ce8 <kmalloc_init+0x48>
    9cb8:	e3a02001 	mov	r2, #1, 0
    9cbc:	e5832000 	str	r2, [r3]
    9cc0:	e3a01201 	mov	r1, #268435456	; 0x10000000
    9cc4:	e3a00601 	mov	r0, #1048576	; 0x100000
    9cc8:	ebffffcd 	bl	9c04 <kmalloc_init_set_start>
    9ccc:	e8bd8010 	pop	{r4, pc}
    9cd0:	e3a03040 	mov	r3, #64, 0	; 0x40
    9cd4:	e59f2010 	ldr	r2, [pc, #16]	; 9cec <kmalloc_init+0x4c>
    9cd8:	e59f1010 	ldr	r1, [pc, #16]	; 9cf0 <kmalloc_init+0x50>
    9cdc:	e59f0010 	ldr	r0, [pc, #16]	; 9cf4 <kmalloc_init+0x54>
    9ce0:	ebfffbfa 	bl	8cd0 <printk>
    9ce4:	ebfffe8a 	bl	9714 <clean_reboot>
    9ce8:	0000af5c 	andeq	sl, r0, ip, asr pc
    9cec:	0000aad8 	ldrdeq	sl, [r0], -r8
    9cf0:	0000a928 	andeq	sl, r0, r8, lsr #18
    9cf4:	0000a984 	andeq	sl, r0, r4, lsl #19

00009cf8 <kmalloc_notzero>:
    9cf8:	e52de004 	push	{lr}		; (str lr, [sp, #-4]!)
    9cfc:	e24dd00c 	sub	sp, sp, #12, 0
    9d00:	e3500000 	cmp	r0, #0, 0
    9d04:	0a00000a 	beq	9d34 <kmalloc_notzero+0x3c>
    9d08:	e2800007 	add	r0, r0, #7, 0
    9d0c:	e3c03007 	bic	r3, r0, #7, 0
    9d10:	e59f2060 	ldr	r2, [pc, #96]	; 9d78 <kmalloc_notzero+0x80>
    9d14:	e5920000 	ldr	r0, [r2]
    9d18:	e0801003 	add	r1, r0, r3
    9d1c:	e5821000 	str	r1, [r2]
    9d20:	e5922008 	ldr	r2, [r2, #8]
    9d24:	e1510002 	cmp	r1, r2
    9d28:	8a000009 	bhi	9d54 <kmalloc_notzero+0x5c>
    9d2c:	e28dd00c 	add	sp, sp, #12, 0
    9d30:	e49df004 	pop	{pc}		; (ldr pc, [sp], #4)
    9d34:	e59f3040 	ldr	r3, [pc, #64]	; 9d7c <kmalloc_notzero+0x84>
    9d38:	e58d3000 	str	r3, [sp]
    9d3c:	e3a03048 	mov	r3, #72, 0	; 0x48
    9d40:	e59f2038 	ldr	r2, [pc, #56]	; 9d80 <kmalloc_notzero+0x88>
    9d44:	e59f1038 	ldr	r1, [pc, #56]	; 9d84 <kmalloc_notzero+0x8c>
    9d48:	e59f0038 	ldr	r0, [pc, #56]	; 9d88 <kmalloc_notzero+0x90>
    9d4c:	ebfffbdf 	bl	8cd0 <printk>
    9d50:	ebfffe6f 	bl	9714 <clean_reboot>
    9d54:	e0422000 	sub	r2, r2, r0
    9d58:	e58d2004 	str	r2, [sp, #4]
    9d5c:	e58d3000 	str	r3, [sp]
    9d60:	e3a0304e 	mov	r3, #78, 0	; 0x4e
    9d64:	e59f2014 	ldr	r2, [pc, #20]	; 9d80 <kmalloc_notzero+0x88>
    9d68:	e59f1014 	ldr	r1, [pc, #20]	; 9d84 <kmalloc_notzero+0x8c>
    9d6c:	e59f0018 	ldr	r0, [pc, #24]	; 9d8c <kmalloc_notzero+0x94>
    9d70:	ebfffbd6 	bl	8cd0 <printk>
    9d74:	ebfffe66 	bl	9714 <clean_reboot>
    9d78:	0000ab28 	andeq	sl, r0, r8, lsr #22
    9d7c:	0000a938 	andeq	sl, r0, r8, lsr r9
    9d80:	0000aae8 	andeq	sl, r0, r8, ror #21
    9d84:	0000a928 	andeq	sl, r0, r8, lsr #18
    9d88:	0000a2e8 	andeq	sl, r0, r8, ror #5
    9d8c:	0000a9b4 			; <UNDEFINED> instruction: 0x0000a9b4

00009d90 <kmalloc>:
    9d90:	e92d4030 	push	{r4, r5, lr}
    9d94:	e24dd00c 	sub	sp, sp, #12, 0
    9d98:	e2504000 	subs	r4, r0, #0, 0
    9d9c:	0a000008 	beq	9dc4 <kmalloc+0x34>
    9da0:	e1a00004 	mov	r0, r4
    9da4:	ebffffd3 	bl	9cf8 <kmalloc_notzero>
    9da8:	e1a05000 	mov	r5, r0
    9dac:	e1a02004 	mov	r2, r4
    9db0:	e3a01000 	mov	r1, #0, 0
    9db4:	ebfffba7 	bl	8c58 <memset>
    9db8:	e1a00005 	mov	r0, r5
    9dbc:	e28dd00c 	add	sp, sp, #12, 0
    9dc0:	e8bd8030 	pop	{r4, r5, pc}
    9dc4:	e59f3018 	ldr	r3, [pc, #24]	; 9de4 <kmalloc+0x54>
    9dc8:	e58d3000 	str	r3, [sp]
    9dcc:	e3a03054 	mov	r3, #84, 0	; 0x54
    9dd0:	e59f2010 	ldr	r2, [pc, #16]	; 9de8 <kmalloc+0x58>
    9dd4:	e59f1010 	ldr	r1, [pc, #16]	; 9dec <kmalloc+0x5c>
    9dd8:	e59f0010 	ldr	r0, [pc, #16]	; 9df0 <kmalloc+0x60>
    9ddc:	ebfffbbb 	bl	8cd0 <printk>
    9de0:	ebfffe4b 	bl	9714 <clean_reboot>
    9de4:	0000a938 	andeq	sl, r0, r8, lsr r9
    9de8:	0000aaf8 	strdeq	sl, [r0], -r8
    9dec:	0000a928 	andeq	sl, r0, r8, lsr #18
    9df0:	0000a2e8 	andeq	sl, r0, r8, ror #5

00009df4 <kmalloc_aligned>:
    9df4:	e52de004 	push	{lr}		; (str lr, [sp, #-4]!)
    9df8:	e24dd00c 	sub	sp, sp, #12, 0
    9dfc:	e3500000 	cmp	r0, #0, 0
    9e00:	0a000014 	beq	9e58 <kmalloc_aligned+0x64>
    9e04:	e2613000 	rsb	r3, r1, #0, 0
    9e08:	e1d13003 	bics	r3, r1, r3
    9e0c:	1a000019 	bne	9e78 <kmalloc_aligned+0x84>
    9e10:	e3510008 	cmp	r1, #8, 0
    9e14:	33a01008 	movcc	r1, #8, 0
    9e18:	e59f30c0 	ldr	r3, [pc, #192]	; 9ee0 <kmalloc_aligned+0xec>
    9e1c:	e5932000 	ldr	r2, [r3]
    9e20:	e2613000 	rsb	r3, r1, #0, 0
    9e24:	e1d1c003 	bics	ip, r1, r3
    9e28:	1a00001b 	bne	9e9c <kmalloc_aligned+0xa8>
    9e2c:	e0822001 	add	r2, r2, r1
    9e30:	e2422001 	sub	r2, r2, #1, 0
    9e34:	e0033002 	and	r3, r3, r2
    9e38:	e2411001 	sub	r1, r1, #1, 0
    9e3c:	e1110003 	tst	r1, r3
    9e40:	1a00001d 	bne	9ebc <kmalloc_aligned+0xc8>
    9e44:	e59f2094 	ldr	r2, [pc, #148]	; 9ee0 <kmalloc_aligned+0xec>
    9e48:	e5823000 	str	r3, [r2]
    9e4c:	ebffffcf 	bl	9d90 <kmalloc>
    9e50:	e28dd00c 	add	sp, sp, #12, 0
    9e54:	e49df004 	pop	{pc}		; (ldr pc, [sp], #4)
    9e58:	e59f3084 	ldr	r3, [pc, #132]	; 9ee4 <kmalloc_aligned+0xf0>
    9e5c:	e58d3000 	str	r3, [sp]
    9e60:	e3a0305f 	mov	r3, #95, 0	; 0x5f
    9e64:	e59f207c 	ldr	r2, [pc, #124]	; 9ee8 <kmalloc_aligned+0xf4>
    9e68:	e59f107c 	ldr	r1, [pc, #124]	; 9eec <kmalloc_aligned+0xf8>
    9e6c:	e59f007c 	ldr	r0, [pc, #124]	; 9ef0 <kmalloc_aligned+0xfc>
    9e70:	ebfffb96 	bl	8cd0 <printk>
    9e74:	ebfffe26 	bl	9714 <clean_reboot>
    9e78:	eb0000ac 	bl	a130 <rpi_reset_putc>
    9e7c:	e59f3070 	ldr	r3, [pc, #112]	; 9ef4 <kmalloc_aligned+0x100>
    9e80:	e58d3000 	str	r3, [sp]
    9e84:	e3a03060 	mov	r3, #96, 0	; 0x60
    9e88:	e59f2058 	ldr	r2, [pc, #88]	; 9ee8 <kmalloc_aligned+0xf4>
    9e8c:	e59f1058 	ldr	r1, [pc, #88]	; 9eec <kmalloc_aligned+0xf8>
    9e90:	e59f0060 	ldr	r0, [pc, #96]	; 9ef8 <kmalloc_aligned+0x104>
    9e94:	ebfffb8d 	bl	8cd0 <printk>
    9e98:	ebfffe1d 	bl	9714 <clean_reboot>
    9e9c:	e59f3058 	ldr	r3, [pc, #88]	; 9efc <kmalloc_aligned+0x108>
    9ea0:	e58d3000 	str	r3, [sp]
    9ea4:	e3a03011 	mov	r3, #17, 0
    9ea8:	e59f2050 	ldr	r2, [pc, #80]	; 9f00 <kmalloc_aligned+0x10c>
    9eac:	e59f1038 	ldr	r1, [pc, #56]	; 9eec <kmalloc_aligned+0xf8>
    9eb0:	e59f0038 	ldr	r0, [pc, #56]	; 9ef0 <kmalloc_aligned+0xfc>
    9eb4:	ebfffb85 	bl	8cd0 <printk>
    9eb8:	ebfffe15 	bl	9714 <clean_reboot>
    9ebc:	eb00009b 	bl	a130 <rpi_reset_putc>
    9ec0:	e59f303c 	ldr	r3, [pc, #60]	; 9f04 <kmalloc_aligned+0x110>
    9ec4:	e58d3000 	str	r3, [sp]
    9ec8:	e3a03068 	mov	r3, #104, 0	; 0x68
    9ecc:	e59f2014 	ldr	r2, [pc, #20]	; 9ee8 <kmalloc_aligned+0xf4>
    9ed0:	e59f1014 	ldr	r1, [pc, #20]	; 9eec <kmalloc_aligned+0xf8>
    9ed4:	e59f002c 	ldr	r0, [pc, #44]	; 9f08 <kmalloc_aligned+0x114>
    9ed8:	ebfffb7c 	bl	8cd0 <printk>
    9edc:	ebfffe0c 	bl	9714 <clean_reboot>
    9ee0:	0000ab28 	andeq	sl, r0, r8, lsr #22
    9ee4:	0000a938 	andeq	sl, r0, r8, lsr r9
    9ee8:	0000ab00 	andeq	sl, r0, r0, lsl #22
    9eec:	0000a928 	andeq	sl, r0, r8, lsr #18
    9ef0:	0000a2e8 	andeq	sl, r0, r8, ror #5
    9ef4:	0000aa28 	andeq	sl, r0, r8, lsr #20
    9ef8:	0000a9f4 	strdeq	sl, [r0], -r4
    9efc:	0000aa3c 	andeq	sl, r0, ip, lsr sl
    9f00:	0000ab10 	andeq	sl, r0, r0, lsl fp
    9f04:	0000aa74 	andeq	sl, r0, r4, ror sl
    9f08:	0000aa48 	andeq	sl, r0, r8, asr #20

00009f0c <kfree>:
    9f0c:	e12fff1e 	bx	lr

00009f10 <kfree_all>:
    9f10:	e59f3008 	ldr	r3, [pc, #8]	; 9f20 <kfree_all+0x10>
    9f14:	e5932004 	ldr	r2, [r3, #4]
    9f18:	e5832000 	str	r2, [r3]
    9f1c:	e12fff1e 	bx	lr
    9f20:	0000ab28 	andeq	sl, r0, r8, lsr #22

00009f24 <kfree_pop>:
    9f24:	e59f3048 	ldr	r3, [pc, #72]	; 9f74 <kfree_pop+0x50>
    9f28:	e5933004 	ldr	r3, [r3, #4]
    9f2c:	e1530000 	cmp	r3, r0
    9f30:	8a000006 	bhi	9f50 <kfree_pop+0x2c>
    9f34:	e59f3038 	ldr	r3, [pc, #56]	; 9f74 <kfree_pop+0x50>
    9f38:	e5933008 	ldr	r3, [r3, #8]
    9f3c:	e1530000 	cmp	r3, r0
    9f40:	3a000002 	bcc	9f50 <kfree_pop+0x2c>
    9f44:	e59f3028 	ldr	r3, [pc, #40]	; 9f74 <kfree_pop+0x50>
    9f48:	e5830000 	str	r0, [r3]
    9f4c:	e12fff1e 	bx	lr
    9f50:	e52de004 	push	{lr}		; (str lr, [sp, #-4]!)
    9f54:	e24dd00c 	sub	sp, sp, #12, 0
    9f58:	e58d0000 	str	r0, [sp]
    9f5c:	e3a03077 	mov	r3, #119, 0	; 0x77
    9f60:	e59f2010 	ldr	r2, [pc, #16]	; 9f78 <kfree_pop+0x54>
    9f64:	e59f1010 	ldr	r1, [pc, #16]	; 9f7c <kfree_pop+0x58>
    9f68:	e59f0010 	ldr	r0, [pc, #16]	; 9f80 <kfree_pop+0x5c>
    9f6c:	ebfffb57 	bl	8cd0 <printk>
    9f70:	ebfffde7 	bl	9714 <clean_reboot>
    9f74:	0000ab28 	andeq	sl, r0, r8, lsr #22
    9f78:	0000ab18 	andeq	sl, r0, r8, lsl fp
    9f7c:	0000a928 	andeq	sl, r0, r8, lsr #18
    9f80:	0000aa90 	muleq	r0, r0, sl

00009f84 <gpio_set_function>:
    9f84:	e350001f 	cmp	r0, #31, 0
    9f88:	812fff1e 	bxhi	lr
    9f8c:	e3d13007 	bics	r3, r1, #7, 0
    9f90:	e92d4070 	push	{r4, r5, r6, lr}
    9f94:	e1a05001 	mov	r5, r1
    9f98:	18bd8070 	popne	{r4, r5, r6, pc}
    9f9c:	e59f403c 	ldr	r4, [pc, #60]	; 9fe0 <gpio_set_function+0x5c>
    9fa0:	e0843094 	umull	r3, r4, r4, r0
    9fa4:	e1a041a4 	lsr	r4, r4, #3
    9fa8:	e2843302 	add	r3, r4, #134217728	; 0x8000000
    9fac:	e2833702 	add	r3, r3, #524288	; 0x80000
    9fb0:	e1a06103 	lsl	r6, r3, #2
    9fb4:	e0844104 	add	r4, r4, r4, lsl #2
    9fb8:	e0404084 	sub	r4, r0, r4, lsl #1
    9fbc:	e1a00006 	mov	r0, r6
    9fc0:	ebfff819 	bl	802c <GET32>
    9fc4:	e3a01007 	mov	r1, #7, 0
    9fc8:	e0844084 	add	r4, r4, r4, lsl #1
    9fcc:	e1c01411 	bic	r1, r0, r1, lsl r4
    9fd0:	e1811415 	orr	r1, r1, r5, lsl r4
    9fd4:	e1a00006 	mov	r0, r6
    9fd8:	e8bd4070 	pop	{r4, r5, r6, lr}
    9fdc:	eafff810 	b	8024 <PUT32>
    9fe0:	cccccccd 	stclgt	12, cr12, [ip], {205}	; 0xcd

00009fe4 <gpio_set_output>:
    9fe4:	e350001f 	cmp	r0, #31, 0
    9fe8:	812fff1e 	bxhi	lr
    9fec:	e92d4070 	push	{r4, r5, r6, lr}
    9ff0:	e59f4040 	ldr	r4, [pc, #64]	; a038 <gpio_set_output+0x54>
    9ff4:	e0843094 	umull	r3, r4, r4, r0
    9ff8:	e1a041a4 	lsr	r4, r4, #3
    9ffc:	e2843302 	add	r3, r4, #134217728	; 0x8000000
    a000:	e2833702 	add	r3, r3, #524288	; 0x80000
    a004:	e1a05103 	lsl	r5, r3, #2
    a008:	e0844104 	add	r4, r4, r4, lsl #2
    a00c:	e0404084 	sub	r4, r0, r4, lsl #1
    a010:	e1a00005 	mov	r0, r5
    a014:	ebfff804 	bl	802c <GET32>
    a018:	e3a03007 	mov	r3, #7, 0
    a01c:	e3a01001 	mov	r1, #1, 0
    a020:	e0844084 	add	r4, r4, r4, lsl #1
    a024:	e1c03413 	bic	r3, r0, r3, lsl r4
    a028:	e1831411 	orr	r1, r3, r1, lsl r4
    a02c:	e1a00005 	mov	r0, r5
    a030:	e8bd4070 	pop	{r4, r5, r6, lr}
    a034:	eafff7fa 	b	8024 <PUT32>
    a038:	cccccccd 	stclgt	12, cr12, [ip], {205}	; 0xcd

0000a03c <gpio_set_on>:
    a03c:	e1a03000 	mov	r3, r0
    a040:	e3a01001 	mov	r1, #1, 0
    a044:	e59f0004 	ldr	r0, [pc, #4]	; a050 <gpio_set_on+0x14>
    a048:	e1a01311 	lsl	r1, r1, r3
    a04c:	eafff7f4 	b	8024 <PUT32>
    a050:	2020001c 	eorcs	r0, r0, ip, lsl r0

0000a054 <gpio_set_off>:
    a054:	e1a03000 	mov	r3, r0
    a058:	e3a01001 	mov	r1, #1, 0
    a05c:	e59f0004 	ldr	r0, [pc, #4]	; a068 <gpio_set_off+0x14>
    a060:	e1a01311 	lsl	r1, r1, r3
    a064:	eafff7ee 	b	8024 <PUT32>
    a068:	20200028 	eorcs	r0, r0, r8, lsr #32

0000a06c <gpio_set_input>:
    a06c:	e350001f 	cmp	r0, #31, 0
    a070:	812fff1e 	bxhi	lr
    a074:	e92d4070 	push	{r4, r5, r6, lr}
    a078:	e59f5040 	ldr	r5, [pc, #64]	; a0c0 <gpio_set_input+0x54>
    a07c:	e1a04000 	mov	r4, r0
    a080:	e0853095 	umull	r3, r5, r5, r0
    a084:	e1a051a5 	lsr	r5, r5, #3
    a088:	e2850302 	add	r0, r5, #134217728	; 0x8000000
    a08c:	e2800702 	add	r0, r0, #524288	; 0x80000
    a090:	e1a06100 	lsl	r6, r0, #2
    a094:	e1a00006 	mov	r0, r6
    a098:	ebfff7e3 	bl	802c <GET32>
    a09c:	e3a01007 	mov	r1, #7, 0
    a0a0:	e1a03000 	mov	r3, r0
    a0a4:	e0855105 	add	r5, r5, r5, lsl #2
    a0a8:	e0444085 	sub	r4, r4, r5, lsl #1
    a0ac:	e0844084 	add	r4, r4, r4, lsl #1
    a0b0:	e1a00006 	mov	r0, r6
    a0b4:	e1c31411 	bic	r1, r3, r1, lsl r4
    a0b8:	e8bd4070 	pop	{r4, r5, r6, lr}
    a0bc:	eafff7d8 	b	8024 <PUT32>
    a0c0:	cccccccd 	stclgt	12, cr12, [ip], {205}	; 0xcd

0000a0c4 <gpio_write>:
    a0c4:	e3510000 	cmp	r1, #0, 0
    a0c8:	e3a03001 	mov	r3, #1, 0
    a0cc:	e1a01000 	mov	r1, r0
    a0d0:	0a000002 	beq	a0e0 <gpio_write+0x1c>
    a0d4:	e59f0010 	ldr	r0, [pc, #16]	; a0ec <gpio_write+0x28>
    a0d8:	e1a01113 	lsl	r1, r3, r1
    a0dc:	eafff7d0 	b	8024 <PUT32>
    a0e0:	e59f0008 	ldr	r0, [pc, #8]	; a0f0 <gpio_write+0x2c>
    a0e4:	e1a01113 	lsl	r1, r3, r1
    a0e8:	eafff7cd 	b	8024 <PUT32>
    a0ec:	2020001c 	eorcs	r0, r0, ip, lsl r0
    a0f0:	20200028 	eorcs	r0, r0, r8, lsr #32

0000a0f4 <gpio_read>:
    a0f4:	e92d4010 	push	{r4, lr}
    a0f8:	e1a04000 	mov	r4, r0
    a0fc:	e59f0014 	ldr	r0, [pc, #20]	; a118 <gpio_read+0x24>
    a100:	e08002a4 	add	r0, r0, r4, lsr #5
    a104:	ebfff7c8 	bl	802c <GET32>
    a108:	e204401f 	and	r4, r4, #31, 0
    a10c:	e1a00430 	lsr	r0, r0, r4
    a110:	e2000001 	and	r0, r0, #1, 0
    a114:	e8bd8010 	pop	{r4, pc}
    a118:	20200034 	eorcs	r0, r0, r4, lsr r0

0000a11c <internal_putchar>:
    a11c:	e92d4010 	push	{r4, lr}
    a120:	e1a04000 	mov	r4, r0
    a124:	ebfffe84 	bl	9b3c <uart_putc>
    a128:	e1a00004 	mov	r0, r4
    a12c:	e8bd8010 	pop	{r4, pc}

0000a130 <rpi_reset_putc>:
    a130:	e59f3008 	ldr	r3, [pc, #8]	; a140 <rpi_reset_putc+0x10>
    a134:	e59f2008 	ldr	r2, [pc, #8]	; a144 <rpi_reset_putc+0x14>
    a138:	e5832000 	str	r2, [r3]
    a13c:	e12fff1e 	bx	lr
    a140:	0000ab34 	andeq	sl, r0, r4, lsr fp
    a144:	0000a11c 	andeq	sl, r0, ip, lsl r1

0000a148 <rpi_set_putc>:
    a148:	e59f3004 	ldr	r3, [pc, #4]	; a154 <rpi_set_putc+0xc>
    a14c:	e5830000 	str	r0, [r3]
    a150:	e12fff1e 	bx	lr
    a154:	0000ab34 	andeq	sl, r0, r4, lsr fp

0000a158 <strcat>:
    a158:	e1a02000 	mov	r2, r0
    a15c:	e1a03002 	mov	r3, r2
    a160:	e4d2c001 	ldrb	ip, [r2], #1
    a164:	e35c0000 	cmp	ip, #0, 0
    a168:	1afffffb 	bne	a15c <strcat+0x4>
    a16c:	e2433001 	sub	r3, r3, #1, 0
    a170:	e4d12001 	ldrb	r2, [r1], #1
    a174:	e3520000 	cmp	r2, #0, 0
    a178:	e5e32001 	strb	r2, [r3, #1]!
    a17c:	1afffffb 	bne	a170 <strcat+0x18>
    a180:	e12fff1e 	bx	lr

0000a184 <strcmp>:
    a184:	e5d03000 	ldrb	r3, [r0]
    a188:	e3530000 	cmp	r3, #0, 0
    a18c:	05d12000 	ldrbeq	r2, [r1]
    a190:	1a000003 	bne	a1a4 <strcmp+0x20>
    a194:	ea000006 	b	a1b4 <strcmp+0x30>
    a198:	e5f03001 	ldrb	r3, [r0, #1]!
    a19c:	e3530000 	cmp	r3, #0, 0
    a1a0:	0a000005 	beq	a1bc <strcmp+0x38>
    a1a4:	e1a0c001 	mov	ip, r1
    a1a8:	e4d12001 	ldrb	r2, [r1], #1
    a1ac:	e1520003 	cmp	r2, r3
    a1b0:	0afffff8 	beq	a198 <strcmp+0x14>
    a1b4:	e0430002 	sub	r0, r3, r2
    a1b8:	e12fff1e 	bx	lr
    a1bc:	e5dc2001 	ldrb	r2, [ip, #1]
    a1c0:	e0430002 	sub	r0, r3, r2
    a1c4:	e12fff1e 	bx	lr

0000a1c8 <strcpy>:
    a1c8:	e2402001 	sub	r2, r0, #1, 0
    a1cc:	e4d13001 	ldrb	r3, [r1], #1
    a1d0:	e3530000 	cmp	r3, #0, 0
    a1d4:	e5e23001 	strb	r3, [r2, #1]!
    a1d8:	1afffffb 	bne	a1cc <strcpy+0x4>
    a1dc:	e12fff1e 	bx	lr

0000a1e0 <strncmp>:
    a1e0:	e0802002 	add	r2, r0, r2
    a1e4:	ea000003 	b	a1f8 <strncmp+0x18>
    a1e8:	e4d03001 	ldrb	r3, [r0], #1
    a1ec:	e4d1c001 	ldrb	ip, [r1], #1
    a1f0:	e153000c 	cmp	r3, ip
    a1f4:	1a000003 	bne	a208 <strncmp+0x28>
    a1f8:	e1500002 	cmp	r0, r2
    a1fc:	1afffff9 	bne	a1e8 <strncmp+0x8>
    a200:	e3a00000 	mov	r0, #0, 0
    a204:	e12fff1e 	bx	lr
    a208:	e043000c 	sub	r0, r3, ip
    a20c:	e12fff1e 	bx	lr

0000a210 <reboot_callout>:
    a210:	e12fff1e 	bx	lr

0000a214 <dev_barrier>:
    a214:	ea000002 	b	a224 <dsb>

0000a218 <dmb>:
    a218:	e3a00000 	mov	r0, #0, 0
    a21c:	ee070fba 	mcr	15, 0, r0, cr7, cr10, {5}
    a220:	e12fff1e 	bx	lr

0000a224 <dsb>:
    a224:	ee070f9a 	mcr	15, 0, r0, cr7, cr10, {4}
    a228:	e12fff1e 	bx	lr

0000a22c <__code_end__>:
    a22c:	00000000 	andeq	r0, r0, r0

Disassembly of section .rodata:

0000a230 <__FUNCTION__.4024-0x9c>:
    a230:	74736574 	ldrbtvc	r6, [r3], #-1396	; 0xfffffa8c
    a234:	2e322d73 	mrccs	13, 1, r2, cr2, cr3, {3}
    a238:	61702f30 	cmnvs	r0, r0, lsr pc
    a23c:	2d327472 	cfldrscs	mvf7, [r2, #-456]!	; 0xfffffe38
    a240:	74736574 	ldrbtvc	r6, [r3], #-1396	; 0xfffffa8c
    a244:	6f6e2d31 	svcvs	0x006e2d31
    a248:	61656c2d 	cmnvs	r5, sp, lsr #24
    a24c:	00632e6b 	rsbeq	r2, r3, fp, ror #28
    a250:	43415254 	movtmi	r5, #4692	; 0x1254
    a254:	6c613a45 			; <UNDEFINED> instruction: 0x6c613a45
    a258:	20636f6c 	rsbcs	r6, r3, ip, ror #30
    a25c:	75746572 	ldrbvc	r6, [r4, #-1394]!	; 0xfffffa8e
    a260:	64656e72 	strbtvs	r6, [r5], #-3698	; 0xfffff18e
    a264:	6f6c6220 	svcvs	0x006c6220
    a268:	69206b63 	stmdbvs	r0!, {r0, r1, r5, r6, r8, r9, fp, sp, lr}
    a26c:	75253d64 	strvc	r3, [r5, #-3428]!	; 0xfffff29c
    a270:	64615b20 	strbtvs	r5, [r1], #-2848	; 0xfffff4e0
    a274:	253d7264 	ldrcs	r7, [sp, #-612]!	; 0xfffffd9c
    a278:	000a5d70 	andeq	r5, sl, r0, ror sp
    a27c:	74204347 	strtvc	r4, [r0], #-839	; 0xfffffcb9
    a280:	31747365 	cmncc	r4, r5, ror #6
    a284:	0000000a 	andeq	r0, r0, sl
    a288:	494e4150 	stmdbmi	lr, {r4, r6, r8, lr}^
    a28c:	73253a43 			; <UNDEFINED> instruction: 0x73253a43
    a290:	3a73253a 	bcc	1cd3780 <__bss_end__+0x1cc8820>
    a294:	733a6425 	teqvc	sl, #620756992	; 0x25000000
    a298:	6c756f68 	ldclvs	15, cr6, [r5], #-416	; 0xfffffe60
    a29c:	61682064 	cmnvs	r8, r4, rrx
    a2a0:	6e206576 	mcrvs	5, 1, r6, cr0, cr6, {3}
    a2a4:	656c206f 	strbvs	r2, [ip, #-111]!	; 0xffffff91
    a2a8:	21736b61 	cmncs	r3, r1, ror #22
    a2ac:	00000a0a 	andeq	r0, r0, sl, lsl #20
    a2b0:	43415254 	movtmi	r5, #4692	; 0x1254
    a2b4:	55533a45 	ldrbpl	r3, [r3, #-2629]	; 0xfffff5bb
    a2b8:	53454343 	movtpl	r4, #21315	; 0x5343
    a2bc:	6e203a53 			; <UNDEFINED> instruction: 0x6e203a53
    a2c0:	656c206f 	strbvs	r2, [ip, #-111]!	; 0xffffff91
    a2c4:	21736b61 	cmncs	r3, r1, ror #22
    a2c8:	0000000a 	andeq	r0, r0, sl

0000a2cc <__FUNCTION__.4024>:
    a2cc:	74736574 	ldrbtvc	r6, [r3], #-1396	; 0xfffffa8c
    a2d0:	00000031 	andeq	r0, r0, r1, lsr r0

0000a2d4 <__FUNCTION__.4028>:
    a2d4:	6d746f6e 	ldclvs	15, cr6, [r4, #-440]!	; 0xfffffe48
    a2d8:	006e6961 	rsbeq	r6, lr, r1, ror #18
    a2dc:	6c616b63 			; <UNDEFINED> instruction: 0x6c616b63
    a2e0:	2e636f6c 	cdpcs	15, 6, cr6, cr3, cr12, {3}
    a2e4:	00000063 	andeq	r0, r0, r3, rrx
    a2e8:	494e4150 	stmdbmi	lr, {r4, r6, r8, lr}^
    a2ec:	73253a43 			; <UNDEFINED> instruction: 0x73253a43
    a2f0:	3a73253a 	bcc	1cd37e0 <__bss_end__+0x1cc8880>
    a2f4:	253a6425 	ldrcs	r6, [sl, #-1061]!	; 0xfffffbdb
    a2f8:	00000a73 	andeq	r0, r0, r3, ror sl
    a2fc:	0000006c 	andeq	r0, r0, ip, rrx
    a300:	494e4150 	stmdbmi	lr, {r4, r6, r8, lr}^
    a304:	73253a43 			; <UNDEFINED> instruction: 0x73253a43
    a308:	3a73253a 	bcc	1cd37f8 <__bss_end__+0x1cc8898>
    a30c:	643a6425 	ldrtvs	r6, [sl], #-1061	; 0xfffffbdb
    a310:	6e206469 	cdpvs	4, 2, cr6, cr0, cr9, {3}
    a314:	6620746f 	strtvs	r7, [r0], -pc, ror #8
    a318:	20646e69 	rsbcs	r6, r4, r9, ror #28
    a31c:	69207025 	stmdbvs	r0!, {r0, r2, r5, ip, sp, lr}
    a320:	696c206e 	stmdbvs	ip!, {r1, r2, r3, r5, r6, sp}^
    a324:	0a0a7473 	beq	2a74f8 <__bss_end__+0x29c598>
    a328:	00000000 	andeq	r0, r0, r0
    a32c:	6e756f66 	cdpvs	15, 7, cr6, cr5, cr6, {3}
    a330:	70252064 	eorvc	r2, r5, r4, rrx
    a334:	206e6920 	rsbcs	r6, lr, r0, lsr #18
    a338:	000a7025 	andeq	r7, sl, r5, lsr #32
    a33c:	253a7325 	ldrcs	r7, [sl, #-805]!	; 0xfffffcdb
    a340:	64253a73 	strtvs	r3, [r5], #-2675	; 0xfffff58d
    a344:	0000003a 	andeq	r0, r0, sl, lsr r0
    a348:	65657266 	strbvs	r7, [r5, #-614]!	; 0xfffffd9a
    a34c:	20676e69 	rsbcs	r6, r7, r9, ror #28
    a350:	0a702509 	beq	1c1377c <__bss_end__+0x1c0881c>
    a354:	00000000 	andeq	r0, r0, r0
    a358:	5f434f4c 	svcpl	0x00434f4c
    a35c:	494e4150 	stmdbmi	lr, {r4, r6, r8, lr}^
    a360:	25203a43 	strcs	r3, [r0, #-2627]!	; 0xfffff5bd
    a364:	73253a73 			; <UNDEFINED> instruction: 0x73253a73
    a368:	3a64253a 	bcc	1913858 <__bss_end__+0x19088f8>
    a36c:	00000000 	andeq	r0, r0, r0
    a370:	65657266 	strbvs	r7, [r5, #-614]!	; 0xfffffd9a
    a374:	20676e69 	rsbcs	r6, r7, r9, ror #28
    a378:	6c616e75 	stclvs	14, cr6, [r1], #-468	; 0xfffffe2c
    a37c:	61636f6c 	cmnvs	r3, ip, ror #30
    a380:	20646574 	rsbcs	r6, r4, r4, ror r5
    a384:	6f6d656d 	svcvs	0x006d656d
    a388:	203a7972 	eorscs	r7, sl, r2, ror r9
    a38c:	74617473 	strbtvc	r7, [r1], #-1139	; 0xfffffb8d
    a390:	64253d65 	strtvs	r3, [r5], #-3429	; 0xfffff29b
    a394:	0000000a 	andeq	r0, r0, sl
    a398:	7a646572 	bvc	1923968 <__bss_end__+0x1918a08>
    a39c:	31656e6f 	cmncc	r5, pc, ror #28
    a3a0:	73617720 	cmnvc	r1, #32, 14	; 0x800000
    a3a4:	726f6320 	rsbvc	r6, pc, #32, 6	; 0x80000000
    a3a8:	74707572 	ldrbtvc	r7, [r0], #-1394	; 0xfffffa8e
    a3ac:	20216465 	eorcs	r6, r1, r5, ror #8
    a3b0:	6e756f66 	cdpvs	15, 7, cr6, cr5, cr6, {3}
    a3b4:	78252064 	stmdavc	r5!, {r2, r5, r6, sp}
    a3b8:	7865202c 	stmdavc	r5!, {r2, r3, r5, sp}^
    a3bc:	74636570 	strbtvc	r6, [r3], #-1392	; 0xfffffa90
    a3c0:	25206465 	strcs	r6, [r0, #-1125]!	; 0xfffffb9b
    a3c4:	00000a78 	andeq	r0, r0, r8, ror sl
    a3c8:	7a646572 	bvc	1923998 <__bss_end__+0x1918a38>
    a3cc:	32656e6f 	rsbcc	r6, r5, #1776	; 0x6f0
    a3d0:	73617720 	cmnvc	r1, #32, 14	; 0x800000
    a3d4:	726f6320 	rsbvc	r6, pc, #32, 6	; 0x80000000
    a3d8:	74707572 	ldrbtvc	r7, [r0], #-1394	; 0xfffffa8e
    a3dc:	0a216465 	beq	863578 <__bss_end__+0x858618>
    a3e0:	00000000 	andeq	r0, r0, r0
    a3e4:	705f6b63 	subsvc	r6, pc, r3, ror #22
    a3e8:	695f7274 	ldmdbvs	pc, {r2, r4, r5, r6, r9, ip, sp, lr}^	; <UNPREDICTABLE>
    a3ec:	6c615f73 	stclvs	15, cr5, [r1], #-460	; 0xfffffe34
    a3f0:	65636f6c 	strbvs	r6, [r3, #-3948]!	; 0xfffff094
    a3f4:	64612864 	strbtvs	r2, [r1], #-2148	; 0xfffff79c
    a3f8:	00297264 	eoreq	r7, r9, r4, ror #4
    a3fc:	6f6c6c61 	svcvs	0x006c6c61
    a400:	69746163 	ldmdbvs	r4!, {r0, r1, r5, r6, r8, sp, lr}^
    a404:	2520676e 	strcs	r6, [r0, #-1902]!	; 0xfffff892
    a408:	25282070 	strcs	r2, [r8, #-112]!	; 0xffffff90
    a40c:	79622064 	stmdbvc	r2!, {r2, r5, r6, sp}^
    a410:	29736574 	ldmdbcs	r3!, {r2, r4, r5, r6, r8, sl, sp, lr}^
    a414:	0000000a 	andeq	r0, r0, sl

0000a418 <__FUNCTION__.4058>:
    a418:	7473696c 	ldrbtvc	r6, [r3], #-2412	; 0xfffff694
    a41c:	6d65725f 	sfmvs	f7, 2, [r5, #-380]!	; 0xfffffe84
    a420:	0065766f 	rsbeq	r7, r5, pc, ror #12

0000a424 <__FUNCTION__.4077>:
    a424:	72666b63 	rsbvc	r6, r6, #101376	; 0x18c00
    a428:	00006565 	andeq	r6, r0, r5, ror #10
    a42c:	75716552 	ldrbvc	r6, [r1, #-1362]!	; 0xfffffaae
    a430:	74737265 	ldrbtvc	r7, [r3], #-613	; 0xfffffd9b
    a434:	20676e69 	rsbcs	r6, r7, r9, ror #28
    a438:	65726f6d 	ldrbvs	r6, [r2, #-3949]!	; 0xfffff093
    a43c:	6d656d20 	stclvs	13, cr6, [r5, #-128]!	; 0xffffff80
    a440:	2079726f 	rsbscs	r7, r9, pc, ror #4
    a444:	29642528 	stmdbcs	r4!, {r3, r5, r8, sl, sp}^
    a448:	0a2e2e2e 	beq	b95d08 <__bss_end__+0xb8ada8>
    a44c:	00000000 	andeq	r0, r0, r0
    a450:	672d6b63 	strvs	r6, [sp, -r3, ror #22]!
    a454:	00632e63 	rsbeq	r2, r3, r3, ror #28
    a458:	203c2070 	eorscs	r2, ip, r0, ror r0
    a45c:	00000065 	andeq	r0, r0, r5, rrx
    a460:	67696c61 	strbvs	r6, [r9, -r1, ror #24]!
    a464:	2864656e 	stmdacs	r4!, {r1, r2, r3, r5, r6, r8, sl, sp, lr}^
    a468:	34202c70 	strtcc	r2, [r0], #-3184	; 0xfffff390
    a46c:	00000029 	andeq	r0, r0, r9, lsr #32
    a470:	67696c61 	strbvs	r6, [r9, -r1, ror #24]!
    a474:	2864656e 	stmdacs	r4!, {r1, r2, r3, r5, r6, r8, sl, sp, lr}^
    a478:	34202c65 	strtcc	r2, [r0], #-3173	; 0xfffff39b
    a47c:	00000029 	andeq	r0, r0, r9, lsr #32
    a480:	6e696f67 	cdpvs	15, 6, cr6, cr9, cr7, {3}
    a484:	6f742067 	svcvs	0x00742067
    a488:	72616d20 	rsbvc	r6, r1, #32, 26	; 0x800
    a48c:	7025206b 	eorvc	r2, r5, fp, rrx
    a490:	20692820 	rsbcs	r2, r9, r0, lsr #16
    a494:	70252040 	eorvc	r2, r5, r0, asr #32
    a498:	25203d20 	strcs	r3, [r0, #-3360]!	; 0xfffff2e0
    a49c:	202c2970 	eorcs	r2, ip, r0, ror r9
    a4a0:	20707865 	rsbscs	r7, r0, r5, ror #16
    a4a4:	7025203d 	eorvc	r2, r5, sp, lsr r0
    a4a8:	0000000a 	andeq	r0, r0, sl
    a4ac:	6b72616d 	blvs	1ca2a68 <__bss_end__+0x1c97b08>
    a4b0:	20676e69 	rsbcs	r6, r7, r9, ror #28
    a4b4:	25207361 	strcs	r7, [r0, #-865]!	; 0xfffffc9f
    a4b8:	00000a64 	andeq	r0, r0, r4, ror #20
    a4bc:	20746f6e 	rsbscs	r6, r4, lr, ror #30
    a4c0:	6b72616d 	blvs	1ca2a7c <__bss_end__+0x1c97b1c>
    a4c4:	21676e69 	cmncs	r7, r9, ror #28
    a4c8:	0000000a 	andeq	r0, r0, sl
    a4cc:	63656863 	cmnvs	r5, #6488064	; 0x630000
    a4d0:	676e696b 	strbvs	r6, [lr, -fp, ror #18]!
    a4d4:	61747320 	cmnvs	r4, r0, lsr #6
    a4d8:	203a6b63 	eorscs	r6, sl, r3, ror #22
    a4dc:	74207025 	strtvc	r7, [r0], #-37	; 0xffffffdb
    a4e0:	7025206f 	eorvc	r2, r5, pc, rrx
    a4e4:	0000000a 	andeq	r0, r0, sl
    a4e8:	2d2d2d2d 	stccs	13, cr2, [sp, #-180]!	; 0xffffff4c
    a4ec:	2d2d2d2d 	stccs	13, cr2, [sp, #-180]!	; 0xffffff4c
    a4f0:	2d2d2d2d 	stccs	13, cr2, [sp, #-180]!	; 0xffffff4c
    a4f4:	2d2d2d2d 	stccs	13, cr2, [sp, #-180]!	; 0xffffff4c
    a4f8:	2d2d2d2d 	stccs	13, cr2, [sp, #-180]!	; 0xffffff4c
    a4fc:	2d2d2d2d 	stccs	13, cr2, [sp, #-180]!	; 0xffffff4c
    a500:	2d2d2d2d 	stccs	13, cr2, [sp, #-180]!	; 0xffffff4c
    a504:	2d2d2d2d 	stccs	13, cr2, [sp, #-180]!	; 0xffffff4c
    a508:	2d2d2d2d 	stccs	13, cr2, [sp, #-180]!	; 0xffffff4c
    a50c:	2d2d2d2d 	stccs	13, cr2, [sp, #-180]!	; 0xffffff4c
    a510:	2d2d2d2d 	stccs	13, cr2, [sp, #-180]!	; 0xffffff4c
    a514:	2d2d2d2d 	stccs	13, cr2, [sp, #-180]!	; 0xffffff4c
    a518:	2d2d2d2d 	stccs	13, cr2, [sp, #-180]!	; 0xffffff4c
    a51c:	2d2d2d2d 	stccs	13, cr2, [sp, #-180]!	; 0xffffff4c
    a520:	00000a2d 	andeq	r0, r0, sp, lsr #20
    a524:	63656863 	cmnvs	r5, #6488064	; 0x630000
    a528:	676e696b 	strbvs	r6, [lr, -fp, ror #18]!
    a52c:	726f6620 	rsbvc	r6, pc, #32, 12	; 0x2000000
    a530:	61656c20 	cmnvs	r5, r0, lsr #24
    a534:	0a3a736b 	beq	ea72e8 <__bss_end__+0xe9c388>
    a538:	00000000 	andeq	r0, r0, r0
    a53c:	4c3a4347 	ldcmi	3, cr4, [sl], #-284	; 0xfffffee4
    a540:	2054534f 	subscs	r5, r4, pc, asr #6
    a544:	2d206425 	cfstrscs	mvf6, [r0, #-148]!	; 0xffffff6c
    a548:	7025203e 	eorvc	r2, r5, lr, lsr r0
    a54c:	0000000a 	andeq	r0, r0, sl
    a550:	4d3a4347 	ldcmi	3, cr4, [sl, #-284]!	; 0xfffffee4
    a554:	45425941 	strbmi	r5, [r2, #-2369]	; 0xfffff6bf
    a558:	534f4c20 	movtpl	r4, #64544	; 0xfc20
    a55c:	64252054 	strtvs	r2, [r5], #-84	; 0xffffffac
    a560:	203e2d20 	eorscs	r2, lr, r0, lsr #26
    a564:	000a7025 	andeq	r7, sl, r5, lsr #32
    a568:	43415254 	movtmi	r5, #4692	; 0x1254
    a56c:	47093a45 	strmi	r3, [r9, -r5, asr #20]
    a570:	68433a43 	stmdavs	r3, {r0, r1, r6, r9, fp, ip, sp}^
    a574:	656b6365 	strbvs	r6, [fp, #-869]!	; 0xfffffc9b
    a578:	64252064 	strtvs	r2, [r5], #-100	; 0xffffff9c
    a57c:	6f6c6220 	svcvs	0x006c6220
    a580:	2e736b63 	vsubcs.f64	d22, d3, d19
    a584:	0000000a 	andeq	r0, r0, sl
    a588:	43415254 	movtmi	r5, #4692	; 0x1254
    a58c:	09093a45 	stmdbeq	r9, {r0, r2, r6, r9, fp, ip, sp}
    a590:	533a4347 	teqpl	sl, #469762049	; 0x1c000001
    a594:	45434355 	strbmi	r4, [r3, #-853]	; 0xfffffcab
    a598:	203a5353 	eorscs	r5, sl, r3, asr r3
    a59c:	6c206f4e 	stcvs	15, cr6, [r0], #-312	; 0xfffffec8
    a5a0:	736b6165 	cmnvc	fp, #1073741849	; 0x40000019
    a5a4:	756f6620 	strbvc	r6, [pc, #-1568]!	; 9f8c <gpio_set_function+0x8>
    a5a8:	0a21646e 	beq	863768 <__bss_end__+0x858808>
    a5ac:	00000000 	andeq	r0, r0, r0
    a5b0:	43415254 	movtmi	r5, #4692	; 0x1254
    a5b4:	09093a45 	stmdbeq	r9, {r0, r2, r6, r9, fp, ip, sp}
    a5b8:	453a4347 	ldrmi	r4, [sl, #-839]!	; 0xfffffcb9
    a5bc:	524f5252 	subpl	r5, pc, #536870917	; 0x20000005
    a5c0:	25203a53 	strcs	r3, [r0, #-2643]!	; 0xfffff5ad
    a5c4:	72652064 	rsbvc	r2, r5, #100, 0	; 0x64
    a5c8:	73726f72 	cmnvc	r2, #456	; 0x1c8
    a5cc:	6425202c 	strtvs	r2, [r5], #-44	; 0xffffffd4
    a5d0:	79616d20 	stmdbvc	r1!, {r5, r8, sl, fp, sp, lr}^
    a5d4:	655f6562 	ldrbvs	r6, [pc, #-1378]	; a07a <gpio_set_input+0xe>
    a5d8:	726f7272 	rsbvc	r7, pc, #536870919	; 0x20000007
    a5dc:	00000a73 	andeq	r0, r0, r3, ror sl
    a5e0:	2d2d2d2d 	stccs	13, cr2, [sp, #-180]!	; 0xffffff4c
    a5e4:	2d2d2d2d 	stccs	13, cr2, [sp, #-180]!	; 0xffffff4c
    a5e8:	2d2d2d2d 	stccs	13, cr2, [sp, #-180]!	; 0xffffff4c
    a5ec:	2d2d2d2d 	stccs	13, cr2, [sp, #-180]!	; 0xffffff4c
    a5f0:	2d2d2d2d 	stccs	13, cr2, [sp, #-180]!	; 0xffffff4c
    a5f4:	2d2d2d2d 	stccs	13, cr2, [sp, #-180]!	; 0xffffff4c
    a5f8:	2d2d2d2d 	stccs	13, cr2, [sp, #-180]!	; 0xffffff4c
    a5fc:	2d2d2d2d 	stccs	13, cr2, [sp, #-180]!	; 0xffffff4c
    a600:	2d2d2d2d 	stccs	13, cr2, [sp, #-180]!	; 0xffffff4c
    a604:	2d2d2d2d 	stccs	13, cr2, [sp, #-180]!	; 0xffffff4c
    a608:	2d2d2d2d 	stccs	13, cr2, [sp, #-180]!	; 0xffffff4c
    a60c:	2d2d2d2d 	stccs	13, cr2, [sp, #-180]!	; 0xffffff4c
    a610:	2d2d2d2d 	stccs	13, cr2, [sp, #-180]!	; 0xffffff4c
    a614:	2d2d2d2d 	stccs	13, cr2, [sp, #-180]!	; 0xffffff4c
    a618:	000a2d2d 	andeq	r2, sl, sp, lsr #26
    a61c:	72636e69 	rsbvc	r6, r3, #1680	; 0x690
    a620:	6e656d65 	cdpvs	13, 6, cr6, cr5, cr5, {3}
    a624:	203e2074 	eorscs	r2, lr, r4, ror r0
    a628:	00000030 	andeq	r0, r0, r0, lsr r0
    a62c:	494e4150 	stmdbmi	lr, {r4, r6, r8, lr}^
    a630:	73253a43 			; <UNDEFINED> instruction: 0x73253a43
    a634:	3a73253a 	bcc	1cd3b24 <__bss_end__+0x1cc8bc4>
    a638:	6e3a6425 	cdpvs	4, 3, cr6, cr10, cr5, {1}
    a63c:	6820746f 	stmdavs	r0!, {r0, r1, r2, r3, r5, r6, sl, ip, sp, lr}
    a640:	6c646e61 	stclvs	14, cr6, [r4], #-388	; 0xfffffe7c
    a644:	0a676e69 	beq	19e5ff0 <__bss_end__+0x19db090>
    a648:	0000000a 	andeq	r0, r0, sl
    a64c:	494e4150 	stmdbmi	lr, {r4, r6, r8, lr}^
    a650:	73253a43 			; <UNDEFINED> instruction: 0x73253a43
    a654:	3a73253a 	bcc	1cd3b44 <__bss_end__+0x1cc8be4>
    a658:	473a6425 	ldrmi	r6, [sl, -r5, lsr #8]!
    a65c:	73203a43 			; <UNDEFINED> instruction: 0x73203a43
    a660:	6c756f68 	ldclvs	15, cr6, [r5], #-416	; 0xfffffe60
    a664:	61682064 	cmnvs	r8, r4, rrx
    a668:	6e206576 	mcrvs	5, 1, r6, cr0, cr6, {3}
    a66c:	656c206f 	strbvs	r2, [ip, #-111]!	; 0xffffff91
    a670:	21736b61 	cmncs	r3, r1, ror #22
    a674:	00000a0a 	andeq	r0, r0, sl, lsl #20
    a678:	43415254 	movtmi	r5, #4692	; 0x1254
    a67c:	43473a45 	movtmi	r3, #31301	; 0x7a45
    a680:	5553203a 	ldrbpl	r2, [r3, #-58]	; 0xffffffc6
    a684:	53454343 	movtpl	r4, #21315	; 0x5343
    a688:	6e203a53 			; <UNDEFINED> instruction: 0x6e203a53
    a68c:	656c206f 	strbvs	r2, [ip, #-111]!	; 0xffffff91
    a690:	21736b61 	cmncs	r3, r1, ror #22
    a694:	0000000a 	andeq	r0, r0, sl
    a698:	494e4150 	stmdbmi	lr, {r4, r6, r8, lr}^
    a69c:	73253a43 			; <UNDEFINED> instruction: 0x73253a43
    a6a0:	3a73253a 	bcc	1cd3b90 <__bss_end__+0x1cc8c30>
    a6a4:	473a6425 	ldrmi	r6, [sl, -r5, lsr #8]!
    a6a8:	73203a43 			; <UNDEFINED> instruction: 0x73203a43
    a6ac:	6c756f68 	ldclvs	15, cr6, [r5], #-416	; 0xfffffe60
    a6b0:	61682064 	cmnvs	r8, r4, rrx
    a6b4:	6c206576 	cfstr32vs	mvfx6, [r0], #-472	; 0xfffffe28
    a6b8:	736b6165 	cmnvc	fp, #1073741849	; 0x40000019
    a6bc:	000a0a21 	andeq	r0, sl, r1, lsr #20
    a6c0:	43415254 	movtmi	r5, #4692	; 0x1254
    a6c4:	43473a45 	movtmi	r3, #31301	; 0x7a45
    a6c8:	5553203a 	ldrbpl	r2, [r3, #-58]	; 0xffffffc6
    a6cc:	53454343 	movtpl	r4, #21315	; 0x5343
    a6d0:	66203a53 			; <UNDEFINED> instruction: 0x66203a53
    a6d4:	646e756f 	strbtvs	r7, [lr], #-1391	; 0xfffffa91
    a6d8:	20642520 	rsbcs	r2, r4, r0, lsr #10
    a6dc:	6b61656c 	blvs	1863c94 <__bss_end__+0x1858d34>
    a6e0:	000a2173 	andeq	r2, sl, r3, ror r1
    a6e4:	706d6f63 	rsbvc	r6, sp, r3, ror #30
    a6e8:	69746361 	ldmdbvs	r4!, {r0, r5, r6, r8, r9, sp, lr}^
    a6ec:	0a3a676e 	beq	ea44ac <__bss_end__+0xe9954c>
    a6f0:	00000000 	andeq	r0, r0, r0
    a6f4:	463a4347 	ldrtmi	r4, [sl], -r7, asr #6
    a6f8:	44454552 	strbmi	r4, [r5], #-1362	; 0xfffffaae
    a6fc:	0a702520 	beq	1c13b84 <__bss_end__+0x1c08c24>
    a700:	00000000 	andeq	r0, r0, r0
    a704:	43415254 	movtmi	r5, #4692	; 0x1254
    a708:	47093a45 	strmi	r3, [r9, -r5, asr #20]
    a70c:	68433a43 	stmdavs	r3, {r0, r1, r6, r9, fp, ip, sp}^
    a710:	656b6365 	strbvs	r6, [fp, #-869]!	; 0xfffffc9b
    a714:	64252064 	strtvs	r2, [r5], #-100	; 0xffffff9c
    a718:	6f6c6220 	svcvs	0x006c6220
    a71c:	2c736b63 			; <UNDEFINED> instruction: 0x2c736b63
    a720:	65726620 	ldrbvs	r6, [r2, #-1568]!	; 0xfffff9e0
    a724:	25206465 	strcs	r6, [r0, #-1125]!	; 0xfffffb9b
    a728:	25202c64 	strcs	r2, [r0, #-3172]!	; 0xfffff39c
    a72c:	79622064 	stmdbvc	r2!, {r2, r5, r6, sp}^
    a730:	0a736574 	beq	1ce3d08 <__bss_end__+0x1cd8da8>
    a734:	00000000 	andeq	r0, r0, r0
    a738:	494e4150 	stmdbmi	lr, {r4, r6, r8, lr}^
    a73c:	73253a43 			; <UNDEFINED> instruction: 0x73253a43
    a740:	3a73253a 	bcc	1cd3c30 <__bss_end__+0x1cc8cd0>
    a744:	643a6425 	ldrtvs	r6, [sl], #-1061	; 0xfffffbdb
    a748:	6e206469 	cdpvs	4, 2, cr6, cr0, cr9, {3}
    a74c:	6920746f 	stmdbvs	r0!, {r0, r1, r2, r3, r5, r6, sl, ip, sp, lr}
    a750:	656c706d 	strbvs	r7, [ip, #-109]!	; 0xffffff93
    a754:	746e656d 	strbtvc	r6, [lr], #-1389	; 0xfffffa93
    a758:	6d756420 	cfldrdvs	mvd6, [r5, #-128]!	; 0xffffff80
    a75c:	65725f70 	ldrbvs	r5, [r2, #-3952]!	; 0xfffff090
    a760:	0a217367 	beq	867504 <__bss_end__+0x85c5a4>
    a764:	0000000a 	andeq	r0, r0, sl

0000a768 <__FUNCTION__.4045>:
    a768:	6b72616d 	blvs	1ca2d24 <__bss_end__+0x1c97dc4>
    a76c:	00000000 	andeq	r0, r0, r0

0000a770 <__FUNCTION__.4032>:
    a770:	6b726273 	blvs	1ca3144 <__bss_end__+0x1c981e4>
    a774:	00000000 	andeq	r0, r0, r0

0000a778 <__FUNCTION__.4088>:
    a778:	63656863 	cmnvs	r5, #6488064	; 0x630000
    a77c:	6f6e5f6b 	svcvs	0x006e5f6b
    a780:	61656c5f 	cmnvs	r5, pc, asr ip
    a784:	0000006b 	andeq	r0, r0, fp, rrx

0000a788 <__FUNCTION__.4093>:
    a788:	63656863 	cmnvs	r5, #6488064	; 0x630000
    a78c:	68735f6b 	ldmdavs	r3!, {r0, r1, r3, r5, r6, r8, r9, sl, fp, ip, lr}^
    a790:	646c756f 	strbtvs	r7, [ip], #-1391	; 0xfffffa91
    a794:	61656c5f 	cmnvs	r5, pc, asr ip
    a798:	0000006b 	andeq	r0, r0, fp, rrx

0000a79c <__FUNCTION__.4101>:
    a79c:	65657773 	strbvs	r7, [r5, #-1907]!	; 0xfffff88d
    a7a0:	72665f70 	rsbvc	r5, r6, #112, 30	; 0x1c0
    a7a4:	00006565 	andeq	r6, r0, r5, ror #10

0000a7a8 <__FUNCTION__.4112>:
    a7a8:	6c706d69 	ldclvs	13, cr6, [r0], #-420	; 0xfffffe5c
    a7ac:	6e656d65 	cdpvs	13, 6, cr6, cr5, cr5, {3}
    a7b0:	68745f74 	ldmdavs	r4!, {r2, r4, r5, r6, r8, r9, sl, fp, ip, lr}^
    a7b4:	00007369 	andeq	r7, r0, r9, ror #6
    a7b8:	696c2f2e 	stmdbvs	ip!, {r1, r2, r3, r5, r8, r9, sl, fp, sp}^
    a7bc:	762f6362 	strtvc	r6, [pc], -r2, ror #6
    a7c0:	72702d61 	rsbsvc	r2, r0, #6208	; 0x1840
    a7c4:	6b746e69 	blvs	1d26170 <__bss_end__+0x1d1b210>
    a7c8:	0000632e 	andeq	r6, r0, lr, lsr #6
    a7cc:	33323130 	teqcc	r2, #12
    a7d0:	37363534 			; <UNDEFINED> instruction: 0x37363534
    a7d4:	62613938 	rsbvs	r3, r1, #56, 18	; 0xe0000
    a7d8:	66656463 	strbtvs	r6, [r5], -r3, ror #8
    a7dc:	00000000 	andeq	r0, r0, r0
    a7e0:	00003130 	andeq	r3, r0, r0, lsr r1
    a7e4:	33323130 	teqcc	r2, #12
    a7e8:	37363534 			; <UNDEFINED> instruction: 0x37363534
    a7ec:	00003938 	andeq	r3, r0, r8, lsr r9
    a7f0:	63747570 	cmnvs	r4, #112, 10	; 0x1c000000
    a7f4:	0070665f 	rsbseq	r6, r0, pc, asr r6
    a7f8:	74646977 	strbtvc	r6, [r4], #-2423	; 0xfffff689
    a7fc:	203c2068 	eorscs	r2, ip, r8, rrx
    a800:	00003233 	andeq	r3, r0, r3, lsr r2
    a804:	00786c6c 	rsbseq	r6, r8, ip, ror #24
    a808:	253d3078 	ldrcs	r3, [sp, #-120]!	; 0xffffff88
    a80c:	00000a78 	andeq	r0, r0, r8, ror sl
    a810:	253d3178 	ldrcs	r3, [sp, #-376]!	; 0xfffffe88
    a814:	00000a78 	andeq	r0, r0, r8, ror sl
    a818:	00646c6c 	rsbeq	r6, r4, ip, ror #24
    a81c:	6e727473 	mrcvs	4, 3, r7, cr2, cr3, {3}
    a820:	28706d63 	ldmdacs	r0!, {r0, r1, r5, r6, r8, sl, fp, sp, lr}^
    a824:	202c7974 	eorcs	r7, ip, r4, ror r9
    a828:	786c6c22 	stmdavc	ip!, {r1, r5, sl, fp, sp, lr}^
    a82c:	33202c22 			; <UNDEFINED> instruction: 0x33202c22
    a830:	3d3d2029 	ldccc	0, cr2, [sp, #-164]!	; 0xffffff5c
    a834:	7c203020 	stcvc	0, cr3, [r0], #-128	; 0xffffff80
    a838:	7473207c 	ldrbtvc	r2, [r3], #-124	; 0xffffff84
    a83c:	6d636e72 	stclvs	14, cr6, [r3, #-456]!	; 0xfffffe38
    a840:	79742870 	ldmdbvc	r4!, {r4, r5, r6, fp, sp}^
    a844:	6c22202c 	stcvs	0, cr2, [r2], #-176	; 0xffffff50
    a848:	2c22646c 	cfstrscs	mvf6, [r2], #-432	; 0xfffffe50
    a84c:	20293320 	eorcs	r3, r9, r0, lsr #6
    a850:	30203d3d 	eorcc	r3, r0, sp, lsr sp
    a854:	00000000 	andeq	r0, r0, r0
    a858:	494e4150 	stmdbmi	lr, {r4, r6, r8, lr}^
    a85c:	73253a43 			; <UNDEFINED> instruction: 0x73253a43
    a860:	3a73253a 	bcc	1cd3d50 <__bss_end__+0x1cc8df0>
    a864:	693a6425 	ldmdbvs	sl!, {r0, r2, r5, sl, sp, lr}
    a868:	736f706d 	cmnvc	pc, #109, 0	; 0x6d
    a86c:	6c626973 			; <UNDEFINED> instruction: 0x6c626973
    a870:	66203a65 	strtvs	r3, [r0], -r5, ror #20
    a874:	3c3d746d 	cfldrscc	mvf7, [sp], #-436	; 0xfffffe4c
    a878:	0a3e7325 	beq	fa7514 <__bss_end__+0xf9c5b4>
    a87c:	0000000a 	andeq	r0, r0, sl
    a880:	494e4150 	stmdbmi	lr, {r4, r6, r8, lr}^
    a884:	73253a43 			; <UNDEFINED> instruction: 0x73253a43
    a888:	3a73253a 	bcc	1cd3d78 <__bss_end__+0x1cc8e18>
    a88c:	663a6425 	ldrtvs	r6, [sl], -r5, lsr #8
    a890:	74616f6c 	strbtvc	r6, [r1], #-3948	; 0xfffff094
    a894:	746f6e20 	strbtvc	r6, [pc], #-3616	; a89c <__FUNCTION__.4112+0xf4>
    a898:	616e6520 	cmnvs	lr, r0, lsr #10
    a89c:	64656c62 	strbtvs	r6, [r5], #-3170	; 0xfffff39e
    a8a0:	0a212121 	beq	852d2c <__bss_end__+0x847dcc>
    a8a4:	00000000 	andeq	r0, r0, r0
    a8a8:	6e697270 	mcrvs	2, 3, r7, cr9, cr0, {3}
    a8ac:	203a6b74 	eorscs	r6, sl, r4, ror fp
    a8b0:	20746f6e 	rsbscs	r6, r4, lr, ror #30
    a8b4:	646e6168 	strbtvs	r6, [lr], #-360	; 0xfffffe98
    a8b8:	676e696c 	strbvs	r6, [lr, -ip, ror #18]!
    a8bc:	65707320 	ldrbvs	r7, [r0, #-800]!	; 0xfffffce0
    a8c0:	69666963 	stmdbvs	r6!, {r0, r1, r5, r6, r8, fp, sp, lr}^
    a8c4:	27207265 	strcs	r7, [r0, -r5, ror #4]!
    a8c8:	20276325 	eorcs	r6, r7, r5, lsr #6
    a8cc:	63736128 	cmnvs	r3, #10
    a8d0:	253d6969 	ldrcs	r6, [sp, #-2409]!	; 0xfffff697
    a8d4:	000a2964 	andeq	r2, sl, r4, ror #18
    a8d8:	494e4150 	stmdbmi	lr, {r4, r6, r8, lr}^
    a8dc:	73253a43 			; <UNDEFINED> instruction: 0x73253a43
    a8e0:	3a73253a 	bcc	1cd3dd0 <__bss_end__+0x1cc8e70>
    a8e4:	703a6425 	eorsvc	r6, sl, r5, lsr #8
    a8e8:	746e6972 	strbtvc	r6, [lr], #-2418	; 0xfffff68e
    a8ec:	7265206b 	rsbvc	r2, r5, #107, 0	; 0x6b
    a8f0:	0a726f72 	beq	1ca66c0 <__bss_end__+0x1c9b760>
    a8f4:	0000000a 	andeq	r0, r0, sl

0000a8f8 <__FUNCTION__.4004>:
    a8f8:	74696d65 	strbtvc	r6, [r9], #-3429	; 0xfffff29b
    a8fc:	00000000 	andeq	r0, r0, r0

0000a900 <__FUNCTION__.3952>:
    a900:	5f697072 	svcpl	0x00697072
    a904:	5f746573 	svcpl	0x00746573
    a908:	7074756f 	rsbsvc	r7, r4, pc, ror #10
    a90c:	00007475 	andeq	r7, r0, r5, ror r4

0000a910 <__FUNCTION__.4030>:
    a910:	705f6176 	subsvc	r6, pc, r6, ror r1	; <UNPREDICTABLE>
    a914:	746e6972 	strbtvc	r6, [lr], #-2418	; 0xfffff68e
    a918:	0000006b 	andeq	r0, r0, fp, rrx
    a91c:	454e4f44 	strbmi	r4, [lr, #-3908]	; 0xfffff0bc
    a920:	0a212121 	beq	852dac <__bss_end__+0x847e4c>
    a924:	00000000 	andeq	r0, r0, r0
    a928:	6c616d6b 	stclvs	13, cr6, [r1], #-428	; 0xfffffe54
    a92c:	2e636f6c 	cdpcs	15, 6, cr6, cr3, cr12, {3}
    a930:	00000063 	andeq	r0, r0, r3, rrx
    a934:	5f78616d 	svcpl	0x0078616d
    a938:	7479626e 	ldrbtvc	r6, [r9], #-622	; 0xfffffd92
    a93c:	00007365 	andeq	r7, r0, r5, ror #6
    a940:	494e4150 	stmdbmi	lr, {r4, r6, r8, lr}^
    a944:	73253a43 			; <UNDEFINED> instruction: 0x73253a43
    a948:	3a73253a 	bcc	1cd3e38 <__bss_end__+0x1cc8ed8>
    a94c:	733a6425 	teqvc	sl, #620756992	; 0x25000000
    a950:	69747465 	ldmdbvs	r4!, {r0, r2, r5, r6, sl, ip, sp, lr}^
    a954:	6820676e 	stmdavs	r0!, {r1, r2, r3, r5, r6, r8, r9, sl, sp, lr}
    a958:	20706165 	rsbscs	r6, r0, r5, ror #2
    a95c:	25206f74 	strcs	r6, [r0, #-3956]!	; 0xfffff08c
    a960:	77203a70 			; <UNDEFINED> instruction: 0x77203a70
    a964:	206c6c69 	rsbcs	r6, ip, r9, ror #24
    a968:	20746968 	rsbscs	r6, r4, r8, ror #18
    a96c:	20656874 	rsbcs	r6, r5, r4, ror r8
    a970:	20646c6f 	rsbcs	r6, r4, pc, ror #24
    a974:	70616568 	rsbvc	r6, r1, r8, ror #10
    a978:	20746120 	rsbscs	r6, r4, r0, lsr #2
    a97c:	0a0a7025 	beq	2a6a18 <__bss_end__+0x29bab8>
    a980:	00000000 	andeq	r0, r0, r0
    a984:	494e4150 	stmdbmi	lr, {r4, r6, r8, lr}^
    a988:	73253a43 			; <UNDEFINED> instruction: 0x73253a43
    a98c:	3a73253a 	bcc	1cd3e7c <__bss_end__+0x1cc8f1c>
    a990:	613a6425 	teqvs	sl, r5, lsr #8
    a994:	6165726c 	cmnvs	r5, ip, ror #4
    a998:	63207964 			; <UNDEFINED> instruction: 0x63207964
    a99c:	656c6c61 	strbvs	r6, [ip, #-3169]!	; 0xfffff39f
    a9a0:	6d6b2064 	stclvs	0, cr2, [fp, #-400]!	; 0xfffffe70
    a9a4:	6f6c6c61 	svcvs	0x006c6c61
    a9a8:	6e695f63 	cdpvs	15, 6, cr5, cr9, cr3, {3}
    a9ac:	0a0a7469 	beq	2a7b58 <__bss_end__+0x29cbf8>
    a9b0:	00000000 	andeq	r0, r0, r0
    a9b4:	494e4150 	stmdbmi	lr, {r4, r6, r8, lr}^
    a9b8:	73253a43 			; <UNDEFINED> instruction: 0x73253a43
    a9bc:	3a73253a 	bcc	1cd3eac <__bss_end__+0x1cc8f4c>
    a9c0:	253a6425 	ldrcs	r6, [sl, #-1061]!	; 0xfffffbdb
    a9c4:	626e2064 	rsbvs	r2, lr, #100, 0	; 0x64
    a9c8:	73657479 	cmnvc	r5, #2030043136	; 0x79000000
    a9cc:	63786520 	cmnvs	r8, #32, 10	; 0x8000000
    a9d0:	65646565 	strbvs	r6, [r4, #-1381]!	; 0xfffffa9b
    a9d4:	69732064 	ldmdbvs	r3!, {r2, r5, r6, sp}^
    a9d8:	6f20657a 	svcvs	0x0020657a
    a9dc:	65682066 	strbvs	r2, [r8, #-102]!	; 0xffffff9a
    a9e0:	62207061 	eorvs	r7, r0, #97, 0	; 0x61
    a9e4:	75252079 	strvc	r2, [r5, #-121]!	; 0xffffff87
    a9e8:	79626e20 	stmdbvc	r2!, {r5, r9, sl, fp, sp, lr}^
    a9ec:	0a736574 	beq	1ce3fc4 <__bss_end__+0x1cd9064>
    a9f0:	0000000a 	andeq	r0, r0, sl
    a9f4:	4f525245 	svcmi	0x00525245
    a9f8:	73253a52 			; <UNDEFINED> instruction: 0x73253a52
    a9fc:	3a73253a 	bcc	1cd3eec <__bss_end__+0x1cc8f8c>
    aa00:	203a6425 	eorscs	r6, sl, r5, lsr #8
    aa04:	534c4146 	movtpl	r4, #49478	; 0xc146
    aa08:	253c2845 	ldrcs	r2, [ip, #-2117]!	; 0xfffff7bb
    aa0c:	3a293e73 	bcc	a5a3e0 <__bss_end__+0xa4f480>
    aa10:	73736120 	cmnvc	r3, #8
    aa14:	6e696d75 	mcrvs	13, 3, r6, cr9, cr5, {3}
    aa18:	6f702067 	svcvs	0x00702067
    aa1c:	20726577 	rsbscs	r6, r2, r7, ror r5
    aa20:	7420666f 	strtvc	r6, [r0], #-1647	; 0xfffff991
    aa24:	000a6f77 	andeq	r6, sl, r7, ror pc
    aa28:	705f7369 	subsvc	r7, pc, r9, ror #6
    aa2c:	2832776f 	ldmdacs	r2!, {r0, r1, r2, r3, r5, r6, r8, r9, sl, ip, sp, lr}
    aa30:	67696c61 	strbvs	r6, [r9, -r1, ror #24]!
    aa34:	6e656d6e 	cdpvs	13, 6, cr6, cr5, cr14, {3}
    aa38:	00002974 	andeq	r2, r0, r4, ror r9
    aa3c:	705f7369 	subsvc	r7, pc, r9, ror #6
    aa40:	2832776f 	ldmdacs	r2!, {r0, r1, r2, r3, r5, r6, r8, r9, sl, ip, sp, lr}
    aa44:	0000296e 	andeq	r2, r0, lr, ror #18
    aa48:	4f525245 	svcmi	0x00525245
    aa4c:	73253a52 			; <UNDEFINED> instruction: 0x73253a52
    aa50:	3a73253a 	bcc	1cd3f40 <__bss_end__+0x1cc8fe0>
    aa54:	203a6425 	eorscs	r6, sl, r5, lsr #8
    aa58:	534c4146 	movtpl	r4, #49478	; 0xc146
    aa5c:	253c2845 	ldrcs	r2, [ip, #-2117]!	; 0xfffff7bb
    aa60:	3a293e73 	bcc	a5a434 <__bss_end__+0xa4f4d4>
    aa64:	706d6920 	rsbvc	r6, sp, r0, lsr #18
    aa68:	6973736f 	ldmdbvs	r3!, {r0, r1, r2, r3, r5, r6, r8, r9, ip, sp, lr}^
    aa6c:	0a656c62 	beq	1965bfc <__bss_end__+0x195ac9c>
    aa70:	00000000 	andeq	r0, r0, r0
    aa74:	615f7369 	cmpvs	pc, r9, ror #6
    aa78:	6e67696c 	vnmulvs.f16	s13, s14, s25	; <UNPREDICTABLE>
    aa7c:	68286465 	stmdavs	r8!, {r0, r2, r5, r6, sl, sp, lr}
    aa80:	6c61202c 	stclvs	0, cr2, [r1], #-176	; 0xffffff50
    aa84:	6d6e6769 	stclvs	7, cr6, [lr, #-420]!	; 0xfffffe5c
    aa88:	29746e65 	ldmdbcs	r4!, {r0, r2, r5, r6, r9, sl, fp, sp, lr}^
    aa8c:	00000000 	andeq	r0, r0, r0
    aa90:	494e4150 	stmdbmi	lr, {r4, r6, r8, lr}^
    aa94:	73253a43 			; <UNDEFINED> instruction: 0x73253a43
    aa98:	3a73253a 	bcc	1cd3f88 <__bss_end__+0x1cc9028>
    aa9c:	703a6425 	eorsvc	r6, sl, r5, lsr #8
    aaa0:	746e696f 	strbtvc	r6, [lr], #-2415	; 0xfffff691
    aaa4:	25207265 	strcs	r7, [r0, #-613]!	; 0xfffffd9b
    aaa8:	61772070 	cmnvs	r7, r0, ror r0
    aaac:	656e2073 	strbvs	r2, [lr, #-115]!	; 0xffffff8d
    aab0:	20726576 	rsbscs	r6, r2, r6, ror r5
    aab4:	6f6c6c61 	svcvs	0x006c6c61
    aab8:	65746163 	ldrbvs	r6, [r4, #-355]!	; 0xfffffe9d
    aabc:	000a0a64 	andeq	r0, sl, r4, ror #20

0000aac0 <__FUNCTION__.7>:
    aac0:	6c616d6b 	stclvs	13, cr6, [r1], #-428	; 0xfffffe54
    aac4:	5f636f6c 	svcpl	0x00636f6c
    aac8:	74696e69 	strbtvc	r6, [r9], #-3689	; 0xfffff197
    aacc:	7465735f 	strbtvc	r7, [r5], #-863	; 0xfffffca1
    aad0:	6174735f 	cmnvs	r4, pc, asr r3
    aad4:	00007472 	andeq	r7, r0, r2, ror r4

0000aad8 <__FUNCTION__.5>:
    aad8:	6c616d6b 	stclvs	13, cr6, [r1], #-428	; 0xfffffe54
    aadc:	5f636f6c 	svcpl	0x00636f6c
    aae0:	74696e69 	strbtvc	r6, [r9], #-3689	; 0xfffff197
    aae4:	00000000 	andeq	r0, r0, r0

0000aae8 <__FUNCTION__.4>:
    aae8:	6c616d6b 	stclvs	13, cr6, [r1], #-428	; 0xfffffe54
    aaec:	5f636f6c 	svcpl	0x00636f6c
    aaf0:	7a746f6e 	bvc	1d268b0 <__bss_end__+0x1d1b950>
    aaf4:	006f7265 	rsbeq	r7, pc, r5, ror #4

0000aaf8 <__FUNCTION__.2>:
    aaf8:	6c616d6b 	stclvs	13, cr6, [r1], #-428	; 0xfffffe54
    aafc:	00636f6c 	rsbeq	r6, r3, ip, ror #30

0000ab00 <__FUNCTION__.1>:
    ab00:	6c616d6b 	stclvs	13, cr6, [r1], #-428	; 0xfffffe54
    ab04:	5f636f6c 	svcpl	0x00636f6c
    ab08:	67696c61 	strbvs	r6, [r9, -r1, ror #24]!
    ab0c:	0064656e 	rsbeq	r6, r4, lr, ror #10

0000ab10 <__FUNCTION__.3>:
    ab10:	6e756f72 	mrcvs	15, 3, r6, cr5, cr2, {3}
    ab14:	00707564 	rsbseq	r7, r0, r4, ror #10

0000ab18 <__FUNCTION__.0>:
    ab18:	6572666b 	ldrbvs	r6, [r2, #-1643]!	; 0xfffff995
    ab1c:	6f705f65 	svcvs	0x00705f65
    ab20:	Address 0x000000000000ab20 is out of bounds.


Disassembly of section .data:

0000ab24 <putk>:
    ab24:	00008d28 	andeq	r8, r0, r8, lsr #26

0000ab28 <heap>:
    ab28:	0000af60 	andeq	sl, r0, r0, ror #30

0000ab2c <heap_start>:
    ab2c:	0000af60 	andeq	sl, r0, r0, ror #30

0000ab30 <heap_end>:
    ab30:	0020af60 	eoreq	sl, r0, r0, ror #30

0000ab34 <rpi_putchar>:
    ab34:	0000a11c 	andeq	sl, r0, ip, lsl r1

Disassembly of section .bss:

0000ab38 <__bss_start__>:
	...

0000ab40 <freep>:
	...

0000ab48 <base>:
	...

0000ab50 <heap_start>:
    ab50:	00000000 	andeq	r0, r0, r0

0000ab54 <heap_end>:
    ab54:	00000000 	andeq	r0, r0, r0

0000ab58 <init_p.4031>:
    ab58:	00000000 	andeq	r0, r0, r0

0000ab5c <buf.3944>:
	...

0000af5c <init_p.6>:
    af5c:	00000000 	andeq	r0, r0, r0

Disassembly of section .ARM.attributes:

00000000 <.ARM.attributes>:
   0:	00002a41 	andeq	r2, r0, r1, asr #20
   4:	61656100 	cmnvs	r5, r0, lsl #2
   8:	01006962 	tsteq	r0, r2, ror #18
   c:	00000020 	andeq	r0, r0, r0, lsr #32
  10:	4b5a3605 	blmi	168d82c <__bss_end__+0x16828cc>
  14:	08070600 	stmdaeq	r7, {r9, sl}
  18:	12010901 	andne	r0, r1, #16384	; 0x4000
  1c:	15011404 	strne	r1, [r1, #-1028]	; 0xfffffbfc
  20:	18031701 	stmdane	r3, {r0, r8, r9, sl, ip}
  24:	22011a01 	andcs	r1, r1, #4096	; 0x1000
  28:	Address 0x0000000000000028 is out of bounds.


Disassembly of section .comment:

00000000 <.comment>:
   0:	3a434347 	bcc	10d0d24 <__bss_end__+0x10c5dc4>
   4:	4e472820 	cdpmi	8, 4, cr2, cr7, cr0, {1}
   8:	6f542055 	svcvs	0x00542055
   c:	20736c6f 	rsbscs	r6, r3, pc, ror #24
  10:	20726f66 	rsbscs	r6, r2, r6, ror #30
  14:	206d7241 	rsbcs	r7, sp, r1, asr #4
  18:	65626d45 	strbvs	r6, [r2, #-3397]!	; 0xfffff2bb
  1c:	64656464 	strbtvs	r6, [r5], #-1124	; 0xfffffb9c
  20:	6f725020 	svcvs	0x00725020
  24:	73736563 	cmnvc	r3, #415236096	; 0x18c00000
  28:	2073726f 	rsbscs	r7, r3, pc, ror #4
  2c:	30322d39 	eorscc	r2, r2, r9, lsr sp
  30:	712d3931 			; <UNDEFINED> instruction: 0x712d3931
  34:	616d2d34 	cmnvs	sp, r4, lsr sp
  38:	29726f6a 	ldmdbcs	r2!, {r1, r3, r5, r6, r8, r9, sl, fp, sp, lr}^
  3c:	322e3920 	eorcc	r3, lr, #32, 18	; 0x80000
  40:	3220312e 	eorcc	r3, r0, #-2147483637	; 0x8000000b
  44:	31393130 	teqcc	r9, r0, lsr r1
  48:	20353230 	eorscs	r3, r5, r0, lsr r2
  4c:	6c657228 	sfmvs	f7, 2, [r5], #-160	; 0xffffff60
  50:	65736165 	ldrbvs	r6, [r3, #-357]!	; 0xfffffe9b
  54:	415b2029 	cmpmi	fp, r9, lsr #32
  58:	612f4d52 			; <UNDEFINED> instruction: 0x612f4d52
  5c:	392d6d72 	pushcc	{r1, r4, r5, r6, r8, sl, fp, sp, lr}
  60:	6172622d 	cmnvs	r2, sp, lsr #4
  64:	2068636e 	rsbcs	r6, r8, lr, ror #6
  68:	69766572 	ldmdbvs	r6!, {r1, r4, r5, r6, r8, sl, sp, lr}^
  6c:	6e6f6973 			; <UNDEFINED> instruction: 0x6e6f6973
  70:	37373220 	ldrcc	r3, [r7, -r0, lsr #4]!
  74:	5d393935 			; <UNDEFINED> instruction: 0x5d393935
  78:	43434700 	movtmi	r4, #14080	; 0x3700
  7c:	4728203a 			; <UNDEFINED> instruction: 0x4728203a
  80:	4120554e 			; <UNDEFINED> instruction: 0x4120554e
  84:	45206d72 	strmi	r6, [r0, #-3442]!	; 0xfffff28e
  88:	6465626d 	strbtvs	r6, [r5], #-621	; 0xfffffd93
  8c:	20646564 	rsbcs	r6, r4, r4, ror #10
  90:	6c6f6f54 	stclvs	15, cr6, [pc], #-336	; ffffff48 <__bss_end__+0xffff4fe8>
  94:	69616863 	stmdbvs	r1!, {r0, r1, r5, r6, fp, sp, lr}^
  98:	3031206e 	eorscc	r2, r1, lr, rrx
  9c:	322d332e 	eorcc	r3, sp, #-1207959552	; 0xb8000000
  a0:	2e313230 	mrccs	2, 1, r3, cr1, cr0, {1}
  a4:	20293031 	eorcs	r3, r9, r1, lsr r0
  a8:	332e3031 			; <UNDEFINED> instruction: 0x332e3031
  ac:	3220312e 	eorcc	r3, r0, #-2147483637	; 0x8000000b
  b0:	30313230 	eorscc	r3, r1, r0, lsr r2
  b4:	20343238 	eorscs	r3, r4, r8, lsr r2
  b8:	6c657228 	sfmvs	f7, 2, [r5], #-160	; 0xffffff60
  bc:	65736165 	ldrbvs	r6, [r3, #-357]!	; 0xfffffe9b
  c0:	Address 0x00000000000000c0 is out of bounds.


Disassembly of section .debug_info:

00000000 <.debug_info>:
       0:	000005d0 	ldrdeq	r0, [r0], -r0	; <UNPREDICTABLE>
       4:	00000004 	andeq	r0, r0, r4
       8:	01040000 	mrseq	r0, (UNDEF: 4)
       c:	000000fe 	strdeq	r0, [r0], -lr
      10:	0000de0c 	andeq	sp, r0, ip, lsl #28
      14:	0001d600 	andeq	sp, r1, r0, lsl #12
      18:	00803800 	addeq	r3, r0, r0, lsl #16
      1c:	00015000 	andeq	r5, r1, r0
      20:	00000000 	andeq	r0, r0, r0
      24:	05040200 	streq	r0, [r4, #-512]	; 0xfffffe00
      28:	00746e69 	rsbseq	r6, r4, r9, ror #28
      2c:	5a070403 	bpl	1c1040 <__bss_end__+0x1b60e0>
      30:	03000000 	movweq	r0, #0
      34:	00690601 	rsbeq	r0, r9, r1, lsl #12
      38:	02030000 	andeq	r0, r3, #0, 0
      3c:	00020f05 	andeq	r0, r2, r5, lsl #30
      40:	05040300 	streq	r0, [r4, #-768]	; 0xfffffd00
      44:	000001cd 	andeq	r0, r0, sp, asr #3
      48:	c8050803 	stmdagt	r5, {r0, r1, fp}
      4c:	04000001 	streq	r0, [r0], #-1
      50:	000001b6 			; <UNDEFINED> instruction: 0x000001b6
      54:	5b182e04 	blpl	60b86c <__bss_end__+0x60090c>
      58:	03000000 	movweq	r0, #0
      5c:	00670801 	rsbeq	r0, r7, r1, lsl #16
      60:	23040000 	movwcs	r0, #16384	; 0x4000
      64:	04000002 	streq	r0, [r0], #-2
      68:	006e1931 	rsbeq	r1, lr, r1, lsr r9
      6c:	02030000 	andeq	r0, r3, #0, 0
      70:	00008207 	andeq	r8, r0, r7, lsl #4
      74:	022c0400 	eoreq	r0, ip, #0, 8
      78:	34040000 	strcc	r0, [r4], #-0
      7c:	00008119 	andeq	r8, r0, r9, lsl r1
      80:	07040300 	streq	r0, [r4, -r0, lsl #6]
      84:	00000055 	andeq	r0, r0, r5, asr r0
      88:	50070803 	andpl	r0, r7, r3, lsl #16
      8c:	05000000 	streq	r0, [r0, #-0]
      90:	00000025 	andeq	r0, r0, r5, lsr #32
      94:	0000009e 	muleq	r0, lr, r0
      98:	00002506 	andeq	r2, r0, r6, lsl #10
      9c:	35070000 	strcc	r0, [r7, #-0]
      a0:	05000002 	streq	r0, [r0, #-2]
      a4:	00aa0e1c 	adceq	r0, sl, ip, lsl lr
      a8:	04080000 	streq	r0, [r8], #-0
      ac:	0000008f 	andeq	r0, r0, pc, lsl #1
      b0:	00002505 	andeq	r2, r0, r5, lsl #10
      b4:	0000bf00 	andeq	fp, r0, r0, lsl #30
      b8:	00bf0600 	adcseq	r0, pc, r0, lsl #12
      bc:	08000000 	stmdaeq	r0, {}	; <UNPREDICTABLE>
      c0:	0000cc04 	andeq	ip, r0, r4, lsl #24
      c4:	08010300 	stmdaeq	r1, {r8, r9}
      c8:	00000070 	andeq	r0, r0, r0, ror r0
      cc:	0000c509 	andeq	ip, r0, r9, lsl #10
      d0:	06080700 	streq	r0, [r8], -r0, lsl #14
      d4:	21050000 	mrscs	r0, (UNDEF: 5)
      d8:	0000dd0e 	andeq	sp, r0, lr, lsl #26
      dc:	b0040800 	andlt	r0, r4, r0, lsl #16
      e0:	0a000000 	beq	e8 <__code_start__-0x7f18>
      e4:	0904020c 	stmdbeq	r4, {r2, r3, r9}
      e8:	00000114 	andeq	r0, r0, r4, lsl r1
      ec:	0000a70b 	andeq	sl, r0, fp, lsl #14
      f0:	11060200 	mrsne	r0, LR_usr
      f4:	000000bf 	strheq	r0, [r0], -pc	; <UNPREDICTABLE>
      f8:	00b60b00 	adcseq	r0, r6, r0, lsl #22
      fc:	07020000 	streq	r0, [r2, -r0]
     100:	0000bf11 	andeq	fp, r0, r1, lsl pc
     104:	260b0400 	strcs	r0, [fp], -r0, lsl #8
     108:	02000000 	andeq	r0, r0, #0, 0
     10c:	002c0e08 	eoreq	r0, ip, r8, lsl #28
     110:	00080000 	andeq	r0, r8, r0
     114:	00021904 	andeq	r1, r2, r4, lsl #18
     118:	03090200 	movweq	r0, #37376	; 0x9200
     11c:	000000e3 	andeq	r0, r0, r3, ror #1
     120:	0000950c 	andeq	r9, r0, ip, lsl #10
     124:	0d03a800 	stceq	8, cr10, [r3, #-0]
     128:	0001a310 	andeq	sl, r1, r0, lsl r3
     12c:	00130b00 	andseq	r0, r3, r0, lsl #22
     130:	0e030000 	cdpeq	0, 0, cr0, cr3, cr0, {0}
     134:	0001a314 	andeq	sl, r1, r4, lsl r3
     138:	430b0000 	movwmi	r0, #45056	; 0xb000
     13c:	03000000 	movweq	r0, #0
     140:	00750e0f 	rsbseq	r0, r5, pc, lsl #28
     144:	0b040000 	bleq	10014c <__bss_end__+0xf51ec>
     148:	00000020 	andeq	r0, r0, r0, lsr #32
     14c:	750e1003 	strvc	r1, [lr, #-3]
     150:	08000000 	stmdaeq	r0, {}	; <UNPREDICTABLE>
     154:	0000d50b 	andeq	sp, r0, fp, lsl #10
     158:	0e140300 	cdpeq	3, 1, cr0, cr4, cr0, {0}
     15c:	00000075 	andeq	r0, r0, r5, ror r0
     160:	01be0b0c 			; <UNDEFINED> instruction: 0x01be0b0c
     164:	16030000 	strne	r0, [r3], -r0
     168:	0001140f 	andeq	r1, r1, pc, lsl #8
     16c:	410b1000 	mrsmi	r1, (UNDEF: 11)
     170:	03000002 	movweq	r0, #2
     174:	00750e19 	rsbseq	r0, r5, r9, lsl lr
     178:	0b1c0000 	bleq	700180 <__bss_end__+0x6f5220>
     17c:	0000024c 	andeq	r0, r0, ip, asr #4
     180:	750e1a03 	strvc	r1, [lr, #-2563]	; 0xfffff5fd
     184:	20000000 	andcs	r0, r0, r0
     188:	0004a10b 	andeq	sl, r4, fp, lsl #2
     18c:	0e1c0300 	cdpeq	3, 1, cr0, cr12, cr0, {0}
     190:	00000062 	andeq	r0, r0, r2, rrx
     194:	7a720d24 	bvc	1c8362c <__bss_end__+0x1c786cc>
     198:	1e030031 	mcrne	0, 0, r0, cr3, cr1, {1}
     19c:	0001a90d 	andeq	sl, r1, sp, lsl #18
     1a0:	08002600 	stmdaeq	r0, {r9, sl, sp}
     1a4:	00012004 	andeq	r2, r1, r4
     1a8:	004f0e00 	subeq	r0, pc, r0, lsl #28
     1ac:	01b90000 			; <UNDEFINED> instruction: 0x01b90000
     1b0:	2c0f0000 	stccs	0, cr0, [pc], {-0}
     1b4:	7f000000 	svcvc	0x00000000
     1b8:	000d0400 	andeq	r0, sp, r0, lsl #8
     1bc:	1f030000 	svcne	0x00030000
     1c0:	00012003 	andeq	r2, r1, r3
     1c4:	07041000 	streq	r1, [r4, -r0]
     1c8:	00000000 	andeq	r0, r0, r0
     1cc:	2c11a503 	cfldr32cs	mvfx10, [r1], {3}
     1d0:	11000000 	mrsne	r0, (UNDEF: 0)
     1d4:	0000003b 	andeq	r0, r0, fp, lsr r0
     1d8:	c0060f01 	andgt	r0, r6, r1, lsl #30
     1dc:	c8000080 	stmdagt	r0, {r7}
     1e0:	01000000 	mrseq	r0, (UNDEF: 0)
     1e4:	0003a29c 	muleq	r3, ip, r2
     1e8:	00bb1200 	adcseq	r1, fp, r0, lsl #4
     1ec:	03b20000 			; <UNDEFINED> instruction: 0x03b20000
     1f0:	03050000 	movweq	r0, #20480	; 0x5000
     1f4:	0000a2d4 	ldrdeq	sl, [r0], -r4
     1f8:	0003b713 	andeq	fp, r3, r3, lsl r7
     1fc:	0080d000 	addeq	sp, r0, r0
     200:	80d00100 	sbcshi	r0, r0, r0, lsl #2
     204:	00680000 	rsbeq	r0, r8, r0
     208:	15010000 	strne	r0, [r1, #-0]
     20c:	00032f05 	andeq	r2, r3, r5, lsl #30
     210:	03c41400 	biceq	r1, r4, #0, 8
     214:	00040000 	andeq	r0, r4, r0
     218:	00000000 	andeq	r0, r0, r0
     21c:	25150000 	ldrcs	r0, [r5, #-0]
     220:	d0000004 	andle	r0, r0, r4
     224:	03000080 	movweq	r0, #128	; 0x80
     228:	00000038 	andeq	r0, r0, r8, lsr r0
     22c:	5b0f0901 	blpl	3c2638 <__bss_end__+0x3b76d8>
     230:	16000002 	strne	r0, [r0], -r2
     234:	0000044e 	andeq	r0, r0, lr, asr #8
     238:	00000024 	andeq	r0, r0, r4, lsr #32
     23c:	00000022 	andeq	r0, r0, r2, lsr #32
     240:	00044216 	andeq	r4, r4, r6, lsl r2
     244:	00003a00 	andeq	r3, r0, r0, lsl #20
     248:	00003800 	andeq	r3, r0, r0, lsl #16
     24c:	04361600 	ldrteq	r1, [r6], #-1536	; 0xfffffa00
     250:	00540000 	subseq	r0, r4, r0
     254:	00520000 	subseq	r0, r2, r0
     258:	13000000 	movwne	r0, #0
     25c:	000003f9 	strdeq	r0, [r0], -r9
     260:	000080f8 	strdeq	r8, [r0], -r8	; <UNPREDICTABLE>
     264:	0080f802 	addeq	pc, r0, r2, lsl #16
     268:	00000000 	andeq	r0, r0, r0
     26c:	050a0100 	streq	r0, [sl, #-256]	; 0xffffff00
     270:	0000028f 	andeq	r0, r0, pc, lsl #5
     274:	00040a16 	andeq	r0, r4, r6, lsl sl
     278:	00006e00 	andeq	r6, r0, r0, lsl #28
     27c:	00006c00 	andeq	r6, r0, r0, lsl #24
     280:	04141400 	ldreq	r1, [r4], #-1024	; 0xfffffc00
     284:	00870000 	addeq	r0, r7, r0
     288:	00810000 	addeq	r0, r1, r0
     28c:	13000000 	movwne	r0, #0
     290:	00000425 	andeq	r0, r0, r5, lsr #8
     294:	00008118 	andeq	r8, r0, r8, lsl r1
     298:	00811801 	addeq	r1, r1, r1, lsl #16
     29c:	00001000 	andeq	r1, r0, r0
     2a0:	050c0100 	streq	r0, [ip, #-256]	; 0xffffff00
     2a4:	000002d0 	ldrdeq	r0, [r0], -r0	; <UNPREDICTABLE>
     2a8:	00044e16 	andeq	r4, r4, r6, lsl lr
     2ac:	0000b200 	andeq	fp, r0, r0, lsl #4
     2b0:	0000b000 	andeq	fp, r0, r0
     2b4:	04421600 	strbeq	r1, [r2], #-1536	; 0xfffffa00
     2b8:	00c80000 	sbceq	r0, r8, r0
     2bc:	00c60000 	sbceq	r0, r6, r0
     2c0:	36160000 	ldrcc	r0, [r6], -r0
     2c4:	e2000004 	and	r0, r0, #4, 0
     2c8:	e0000000 	and	r0, r0, r0
     2cc:	00000000 	andeq	r0, r0, r0
     2d0:	0080f417 	addeq	pc, r0, r7, lsl r4	; <UNPREDICTABLE>
     2d4:	00058b00 	andeq	r8, r5, r0, lsl #22
     2d8:	0002e300 	andeq	lr, r2, r0, lsl #6
     2dc:	50011800 	andpl	r1, r1, r0, lsl #16
     2e0:	17003401 	strne	r3, [r0, -r1, lsl #8]
     2e4:	00008108 	andeq	r8, r0, r8, lsl #2
     2e8:	00000597 	muleq	r0, r7, r5
     2ec:	00000300 	andeq	r0, r0, r0, lsl #6
     2f0:	05500118 	ldrbeq	r0, [r0, #-280]	; 0xfffffee8
     2f4:	00a25003 	adceq	r5, r2, r3
     2f8:	52011800 	andpl	r1, r1, #0, 16
     2fc:	00007402 	andeq	r7, r0, r2, lsl #8
     300:	00811817 	addeq	r1, r1, r7, lsl r8
     304:	0005a300 	andeq	sl, r5, r0, lsl #6
     308:	00031e00 	andeq	r1, r3, r0, lsl #28
     30c:	50011800 	andpl	r1, r1, r0, lsl #16
     310:	18007402 	stmdane	r0, {r1, sl, ip, sp, lr}
     314:	30015101 	andcc	r5, r1, r1, lsl #2
     318:	01520118 	cmpeq	r2, r8, lsl r1
     31c:	38190034 	ldmdacc	r9, {r2, r4, r5}
     320:	af000081 	svcge	0x00000081
     324:	18000005 	stmdane	r0, {r0, r2}
     328:	74025001 	strvc	r5, [r2], #-1
     32c:	17000000 	strne	r0, [r0, -r0]
     330:	000080d0 	ldrdeq	r8, [r0], -r0
     334:	00000597 	muleq	r0, r7, r5
     338:	00000346 	andeq	r0, r0, r6, asr #6
     33c:	05500118 	ldrbeq	r0, [r0, #-280]	; 0xfffffee8
     340:	00a27c03 	adceq	r7, r2, r3, lsl #24
     344:	40170000 	andsmi	r0, r7, r0
     348:	bb000081 	bllt	554 <__code_start__-0x7aac>
     34c:	59000005 	stmdbpl	r0, {r0, r2}
     350:	18000003 	stmdane	r0, {r0, r1}
     354:	31015001 	tstcc	r1, r1
     358:	81581a00 	cmphi	r8, r0, lsl #20
     35c:	05970000 	ldreq	r0, [r7]
     360:	03700000 	cmneq	r0, #0, 0
     364:	01180000 	tsteq	r8, r0
     368:	b0030550 	andlt	r0, r3, r0, asr r5
     36c:	000000a2 	andeq	r0, r0, r2, lsr #1
     370:	00816c17 	addeq	r6, r1, r7, lsl ip
     374:	00059700 	andeq	r9, r5, r0, lsl #14
     378:	00039800 	andeq	r9, r3, r0, lsl #16
     37c:	50011800 	andpl	r1, r1, r0, lsl #16
     380:	a2880305 	addge	r0, r8, #335544320	; 0x14000000
     384:	01180000 	tsteq	r8, r0
     388:	00750251 	rsbseq	r0, r5, r1, asr r2
     38c:	02520118 	subseq	r0, r2, #6
     390:	01180876 	tsteq	r8, r6, ror r8
     394:	004f0153 	subeq	r0, pc, r3, asr r1	; <UNPREDICTABLE>
     398:	0081701b 	addeq	r7, r1, fp, lsl r0
     39c:	0005c700 	andeq	ip, r5, r0, lsl #14
     3a0:	cc0e0000 	stcgt	0, cr0, [lr], {-0}
     3a4:	b2000000 	andlt	r0, r0, #0, 0
     3a8:	0f000003 	svceq	0x00000003
     3ac:	0000002c 	andeq	r0, r0, ip, lsr #32
     3b0:	a2090007 	andge	r0, r9, #7, 0
     3b4:	1c000003 	stcne	0, cr0, [r0], {3}
     3b8:	000000cf 	andeq	r0, r0, pc, asr #1
     3bc:	01060801 	tsteq	r6, r1, lsl #16
     3c0:	000003de 	ldrdeq	r0, [r0], -lr
     3c4:	0100701d 	tsteq	r0, sp, lsl r0
     3c8:	03de0b09 	bicseq	r0, lr, #9216	; 0x2400
     3cc:	bb120000 	bllt	4803d4 <__bss_end__+0x475474>
     3d0:	f4000000 	vst4.8	{d0-d3}, [r0], r0
     3d4:	05000003 	streq	r0, [r0, #-3]
     3d8:	00a2cc03 	adceq	ip, r2, r3, lsl #24
     3dc:	04080000 	streq	r0, [r8], #-0
     3e0:	000000c5 	andeq	r0, r0, r5, asr #1
     3e4:	0000cc0e 	andeq	ip, r0, lr, lsl #24
     3e8:	0003f400 	andeq	pc, r3, r0, lsl #8
     3ec:	002c0f00 	eoreq	r0, ip, r0, lsl #30
     3f0:	00050000 	andeq	r0, r5, r0
     3f4:	0003e409 	andeq	lr, r3, r9, lsl #8
     3f8:	00ac1e00 	adceq	r1, ip, r0, lsl #28
     3fc:	22030000 	andcs	r0, r3, #0, 0
     400:	00002c11 	andeq	r2, r0, r1, lsl ip
     404:	041f0100 	ldreq	r0, [pc], #-256	; 40c <__code_start__-0x7bf4>
     408:	701f0000 	andsvc	r0, pc, r0
     40c:	21220300 			; <UNDEFINED> instruction: 0x21220300
     410:	000001c5 	andeq	r0, r0, r5, asr #3
     414:	0300681d 	movweq	r6, #2077	; 0x81d
     418:	041f0c23 	ldreq	r0, [pc], #-3107	; 420 <__code_start__-0x7be0>
     41c:	08000000 	stmdaeq	r0, {}	; <UNPREDICTABLE>
     420:	0001b904 	andeq	fp, r1, r4, lsl #18
     424:	009c1e00 	addseq	r1, ip, r0, lsl #28
     428:	0c020000 	stceq	0, cr0, [r2], {-0}
     42c:	0001140b 	andeq	r1, r1, fp, lsl #8
     430:	045b0300 	ldrbeq	r0, [fp], #-768	; 0xfffffd00
     434:	a7200000 	strge	r0, [r0, -r0]!
     438:	02000000 	andeq	r0, r0, #0, 0
     43c:	00bf220c 	adcseq	r2, pc, ip, lsl #4
     440:	b6200000 	strtlt	r0, [r0], -r0
     444:	02000000 	andeq	r0, r0, #0, 0
     448:	00bf340c 	adcseq	r3, pc, ip, lsl #8
     44c:	26200000 	strtcs	r0, [r0], -r0
     450:	02000000 	andeq	r0, r0, #0, 0
     454:	002c430c 	eoreq	r4, ip, ip, lsl #6
     458:	21000000 	mrscs	r0, (UNDEF: 0)
     45c:	000003b7 			; <UNDEFINED> instruction: 0x000003b7
     460:	00008038 	andeq	r8, r0, r8, lsr r0
     464:	00000088 	andeq	r0, r0, r8, lsl #1
     468:	05819c01 	streq	r9, [r1, #3073]	; 0xc01
     46c:	c4140000 	ldrgt	r0, [r4], #-0
     470:	00000003 	andeq	r0, r0, r3
     474:	fa000001 	blx	480 <__code_start__-0x7b80>
     478:	15000000 	strne	r0, [r0, #-0]
     47c:	00000425 	andeq	r0, r0, r5, lsr #8
     480:	00008038 	andeq	r8, r0, r8, lsr r0
     484:	00000002 	andeq	r0, r0, r2
     488:	0f090100 	svceq	0x00090100
     48c:	000004b8 			; <UNDEFINED> instruction: 0x000004b8
     490:	00044e16 	andeq	r4, r4, r6, lsl lr
     494:	00012b00 	andeq	r2, r1, r0, lsl #22
     498:	00012900 	andeq	r2, r1, r0, lsl #18
     49c:	04421600 	strbeq	r1, [r2], #-1536	; 0xfffffa00
     4a0:	01410000 	mrseq	r0, (UNDEF: 65)
     4a4:	013f0000 	teqeq	pc, r0
     4a8:	36160000 	ldrcc	r0, [r6], -r0
     4ac:	5b000004 	blpl	4c4 <__code_start__-0x7b3c>
     4b0:	59000001 	stmdbpl	r0, {r0}
     4b4:	00000001 	andeq	r0, r0, r1
     4b8:	0003f913 	andeq	pc, r3, r3, lsl r9	; <UNPREDICTABLE>
     4bc:	00806c00 	addeq	r6, r0, r0, lsl #24
     4c0:	806c0200 	rsbhi	r0, ip, r0, lsl #4
     4c4:	00000000 	andeq	r0, r0, r0
     4c8:	0a010000 	beq	404d0 <__bss_end__+0x35570>
     4cc:	0004ec05 	andeq	lr, r4, r5, lsl #24
     4d0:	040a1600 	streq	r1, [sl], #-1536	; 0xfffffa00
     4d4:	01750000 	cmneq	r5, r0
     4d8:	01730000 	cmneq	r3, r0
     4dc:	14140000 	ldrne	r0, [r4], #-0
     4e0:	8e000004 	cdphi	0, 0, cr0, cr0, cr4, {0}
     4e4:	88000001 	stmdahi	r0, {r0}
     4e8:	00000001 	andeq	r0, r0, r1
     4ec:	00042515 	andeq	r2, r4, r5, lsl r5
     4f0:	00808c00 	addeq	r8, r0, r0, lsl #24
     4f4:	00200100 	eoreq	r0, r0, r0, lsl #2
     4f8:	0c010000 	stceq	0, cr0, [r1], {-0}
     4fc:	00052905 	andeq	r2, r5, r5, lsl #18
     500:	044e1600 	strbeq	r1, [lr], #-1536	; 0xfffffa00
     504:	01b90000 			; <UNDEFINED> instruction: 0x01b90000
     508:	01b70000 			; <UNDEFINED> instruction: 0x01b70000
     50c:	42160000 	andsmi	r0, r6, #0, 0
     510:	cf000004 	svcgt	0x00000004
     514:	cd000001 	stcgt	0, cr0, [r0, #-4]
     518:	16000001 	strne	r0, [r0], -r1
     51c:	00000436 	andeq	r0, r0, r6, lsr r4
     520:	000001e9 	andeq	r0, r0, r9, ror #3
     524:	000001e7 	andeq	r0, r0, r7, ror #3
     528:	80681700 	rsbhi	r1, r8, r0, lsl #14
     52c:	058b0000 	streq	r0, [fp]
     530:	053c0000 	ldreq	r0, [ip, #-0]!
     534:	01180000 	tsteq	r8, r0
     538:	00340150 	eorseq	r0, r4, r0, asr r1
     53c:	00807c17 	addeq	r7, r0, r7, lsl ip
     540:	00059700 	andeq	r9, r5, r0, lsl #14
     544:	00055900 	andeq	r5, r5, r0, lsl #18
     548:	50011800 	andpl	r1, r1, r0, lsl #16
     54c:	a2500305 	subsge	r0, r0, #335544320	; 0x14000000
     550:	01180000 	tsteq	r8, r0
     554:	00740252 	rsbseq	r0, r4, r2, asr r2
     558:	808c1700 	addhi	r1, ip, r0, lsl #14
     55c:	05a30000 	streq	r0, [r3, #0]!
     560:	05770000 	ldrbeq	r0, [r7, #-0]!
     564:	01180000 	tsteq	r8, r0
     568:	00740250 	rsbseq	r0, r4, r0, asr r2
     56c:	01510118 	cmpeq	r1, r8, lsl r1
     570:	52011830 	andpl	r1, r1, #48, 16	; 0x300000
     574:	22003401 	andcs	r3, r0, #16777216	; 0x1000000
     578:	000080b4 	strheq	r8, [r0], -r4
     57c:	000005af 	andeq	r0, r0, pc, lsr #11
     580:	9e082300 	cdpls	3, 0, cr2, cr8, cr0, {0}
     584:	73657406 	cmnvc	r5, #100663296	; 0x6000000
     588:	24003174 	strcs	r3, [r0], #-372	; 0xfffffe8c
     58c:	00000018 	andeq	r0, r0, r8, lsl r0
     590:	00000018 	andeq	r0, r0, r8, lsl r0
     594:	24084903 	strcs	r4, [r8], #-2307	; 0xfffff6fd
     598:	000005ca 	andeq	r0, r0, sl, asr #11
     59c:	000005ca 	andeq	r0, r0, sl, asr #11
     5a0:	24062805 	strcs	r2, [r6], #-2053	; 0xfffff7fb
     5a4:	000000c8 	andeq	r0, r0, r8, asr #1
     5a8:	000000c8 	andeq	r0, r0, r8, asr #1
     5ac:	2407f205 	strcs	pc, [r7], #-517	; 0xfffffdfb
     5b0:	00000208 	andeq	r0, r0, r8, lsl #4
     5b4:	00000208 	andeq	r0, r0, r8, lsl #4
     5b8:	24074a03 	strcs	r4, [r7], #-2563	; 0xfffff5fd
     5bc:	0000002d 	andeq	r0, r0, sp, lsr #32
     5c0:	0000002d 	andeq	r0, r0, sp, lsr #32
     5c4:	240a5e03 	strcs	r5, [sl], #-3587	; 0xfffff1fd
     5c8:	00000075 	andeq	r0, r0, r5, ror r0
     5cc:	00000075 	andeq	r0, r0, r5, ror r0
     5d0:	00066e05 	andeq	r6, r6, r5, lsl #28
     5d4:	000008bd 			; <UNDEFINED> instruction: 0x000008bd
     5d8:	02080004 	andeq	r0, r8, #4, 0
     5dc:	01040000 	mrseq	r0, (UNDEF: 4)
     5e0:	000002d5 	ldrdeq	r0, [r0], -r5
     5e4:	0002cb0c 	andeq	ip, r2, ip, lsl #22
     5e8:	00039200 	andeq	r9, r3, r0, lsl #4
     5ec:	00818800 	addeq	r8, r1, r0, lsl #16
     5f0:	0003bc00 	andeq	fp, r3, r0, lsl #24
     5f4:	00020500 	andeq	r0, r2, r0, lsl #10
     5f8:	05040200 	streq	r0, [r4, #-512]	; 0xfffffe00
     5fc:	00746e69 	rsbseq	r6, r4, r9, ror #28
     600:	5a070403 	bpl	1c1614 <__bss_end__+0x1b66b4>
     604:	03000000 	movweq	r0, #0
     608:	00690601 	rsbeq	r0, r9, r1, lsl #12
     60c:	02030000 	andeq	r0, r3, #0, 0
     610:	00020f05 	andeq	r0, r2, r5, lsl #30
     614:	05040300 	streq	r0, [r4, #-768]	; 0xfffffd00
     618:	000001cd 	andeq	r0, r0, sp, asr #3
     61c:	c8050803 	stmdagt	r5, {r0, r1, fp}
     620:	04000001 	streq	r0, [r0], #-1
     624:	000001b6 			; <UNDEFINED> instruction: 0x000001b6
     628:	5b182e03 	blpl	60be3c <__bss_end__+0x600edc>
     62c:	03000000 	movweq	r0, #0
     630:	00670801 	rsbeq	r0, r7, r1, lsl #16
     634:	23040000 	movwcs	r0, #16384	; 0x4000
     638:	03000002 	movweq	r0, #2
     63c:	006e1931 	rsbeq	r1, lr, r1, lsr r9
     640:	02030000 	andeq	r0, r3, #0, 0
     644:	00008207 	andeq	r8, r0, r7, lsl #4
     648:	022c0400 	eoreq	r0, ip, #0, 8
     64c:	34030000 	strcc	r0, [r3], #-0
     650:	00008119 	andeq	r8, r0, r9, lsl r1
     654:	07040300 	streq	r0, [r4, -r0, lsl #6]
     658:	00000055 	andeq	r0, r0, r5, asr r0
     65c:	50070803 	andpl	r0, r7, r3, lsl #16
     660:	05000000 	streq	r0, [r0, #-0]
     664:	00000025 	andeq	r0, r0, r5, lsr #32
     668:	0000009e 	muleq	r0, lr, r0
     66c:	00002506 	andeq	r2, r0, r6, lsl #10
     670:	35070000 	strcc	r0, [r7, #-0]
     674:	04000002 	streq	r0, [r0], #-2
     678:	00aa0e1c 	adceq	r0, sl, ip, lsl lr
     67c:	04080000 	streq	r0, [r8], #-0
     680:	0000008f 	andeq	r0, r0, pc, lsl #1
     684:	00002505 	andeq	r2, r0, r5, lsl #10
     688:	0000bf00 	andeq	fp, r0, r0, lsl #30
     68c:	00bf0600 	adcseq	r0, pc, r0, lsl #12
     690:	08000000 	stmdaeq	r0, {}	; <UNPREDICTABLE>
     694:	0000cc04 	andeq	ip, r0, r4, lsl #24
     698:	08010300 	stmdaeq	r1, {r8, r9}
     69c:	00000070 	andeq	r0, r0, r0, ror r0
     6a0:	0000c509 	andeq	ip, r0, r9, lsl #10
     6a4:	06080700 	streq	r0, [r8], -r0, lsl #14
     6a8:	21040000 	mrscs	r0, (UNDEF: 4)
     6ac:	0000dd0e 	andeq	sp, r0, lr, lsl #26
     6b0:	b0040800 	andlt	r0, r4, r0, lsl #16
     6b4:	0a000000 	beq	6bc <__code_start__-0x7944>
     6b8:	0904050c 	stmdbeq	r4, {r2, r3, r8, sl}
     6bc:	00000114 	andeq	r0, r0, r4, lsl r1
     6c0:	0000a70b 	andeq	sl, r0, fp, lsl #14
     6c4:	11060500 	tstne	r6, r0, lsl #10
     6c8:	000000bf 	strheq	r0, [r0], -pc	; <UNPREDICTABLE>
     6cc:	00b60b00 	adcseq	r0, r6, r0, lsl #22
     6d0:	07050000 	streq	r0, [r5, -r0]
     6d4:	0000bf11 	andeq	fp, r0, r1, lsl pc
     6d8:	260b0400 	strcs	r0, [fp], -r0, lsl #8
     6dc:	05000000 	streq	r0, [r0, #-0]
     6e0:	002c0e08 	eoreq	r0, ip, r8, lsl #28
     6e4:	00080000 	andeq	r0, r8, r0
     6e8:	00021904 	andeq	r1, r2, r4, lsl #18
     6ec:	03090500 	movweq	r0, #38144	; 0x9500
     6f0:	000000e3 	andeq	r0, r0, r3, ror #1
     6f4:	5b01070c 	blpl	4232c <__bss_end__+0x373cc>
     6f8:	02000000 	andeq	r0, r0, #0, 0
     6fc:	013b0e09 	teqeq	fp, r9, lsl #28
     700:	8a0d0000 	bhi	340708 <__bss_end__+0x3357a8>
     704:	0b000003 	bleq	718 <__code_start__-0x78e8>
     708:	0002680d 	andeq	r6, r2, sp, lsl #16
     70c:	0c000c00 	stceq	12, cr0, [r0], {-0}
     710:	005b0107 	subseq	r0, fp, r7, lsl #2
     714:	0a020000 	beq	8071c <__bss_end__+0x757bc>
     718:	00015606 	andeq	r5, r1, r6, lsl #12
     71c:	027a0d00 	rsbseq	r0, sl, #0, 26
     720:	0d800000 	stceq	0, cr0, [r0]
     724:	0000026e 	andeq	r0, r0, lr, ror #4
     728:	950e00fe 	strls	r0, [lr, #-254]	; 0xffffff02
     72c:	a8000000 	stmdage	r0, {}	; <UNPREDICTABLE>
     730:	d9100d02 	ldmdble	r0, {r1, r8, sl, fp}
     734:	0b000001 	bleq	740 <__code_start__-0x78c0>
     738:	00000013 	andeq	r0, r0, r3, lsl r0
     73c:	d9140e02 	ldmdble	r4, {r1, r9, sl, fp}
     740:	00000001 	andeq	r0, r0, r1
     744:	0000430b 	andeq	r4, r0, fp, lsl #6
     748:	0e0f0200 	cdpeq	2, 0, cr0, cr15, cr0, {0}
     74c:	00000075 	andeq	r0, r0, r5, ror r0
     750:	00200b04 	eoreq	r0, r0, r4, lsl #22
     754:	10020000 	andne	r0, r2, r0
     758:	0000750e 	andeq	r7, r0, lr, lsl #10
     75c:	d50b0800 	strle	r0, [fp, #-2048]	; 0xfffff800
     760:	02000000 	andeq	r0, r0, #0, 0
     764:	00750e14 	rsbseq	r0, r5, r4, lsl lr
     768:	0b0c0000 	bleq	300770 <__bss_end__+0x2f5810>
     76c:	000001be 			; <UNDEFINED> instruction: 0x000001be
     770:	140f1602 	strne	r1, [pc], #-1538	; 778 <__code_start__-0x7888>
     774:	10000001 	andne	r0, r0, r1
     778:	0002410b 	andeq	r4, r2, fp, lsl #2
     77c:	0e190200 	cdpeq	2, 1, cr0, cr9, cr0, {0}
     780:	00000075 	andeq	r0, r0, r5, ror r0
     784:	024c0b1c 	subeq	r0, ip, #28, 22	; 0x7000
     788:	1a020000 	bne	80790 <__bss_end__+0x75830>
     78c:	0000750e 	andeq	r7, r0, lr, lsl #10
     790:	a10b2000 	mrsge	r2, (UNDEF: 11)
     794:	02000004 	andeq	r0, r0, #4, 0
     798:	00620e1c 	rsbeq	r0, r2, ip, lsl lr
     79c:	0f240000 	svceq	0x00240000
     7a0:	00317a72 	eorseq	r7, r1, r2, ror sl
     7a4:	df0d1e02 	svcle	0x000d1e02
     7a8:	26000001 	strcs	r0, [r0], -r1
     7ac:	56040800 	strpl	r0, [r4], -r0, lsl #16
     7b0:	10000001 	andne	r0, r0, r1
     7b4:	0000004f 	andeq	r0, r0, pc, asr #32
     7b8:	000001ef 	andeq	r0, r0, pc, ror #3
     7bc:	00002c11 	andeq	r2, r0, r1, lsl ip
     7c0:	04007f00 	streq	r7, [r0], #-3840	; 0xfffff100
     7c4:	0000000d 	andeq	r0, r0, sp
     7c8:	56031f02 	strpl	r1, [r3], -r2, lsl #30
     7cc:	12000001 	andne	r0, r0, #1, 0
     7d0:	00000704 	andeq	r0, r0, r4, lsl #14
     7d4:	a5020000 	strge	r0, [r2, #-0]
     7d8:	00002c11 	andeq	r2, r0, r1, lsl ip
     7dc:	02961300 	addseq	r1, r6, #0, 6
     7e0:	08010000 	stmdaeq	r1, {}	; <UNPREDICTABLE>
     7e4:	00021b0f 	andeq	r1, r2, pc, lsl #22
     7e8:	38030500 	stmdacc	r3, {r8, sl}
     7ec:	080000ab 	stmdaeq	r0, {r0, r1, r3, r5, r7}
     7f0:	0001ef04 	andeq	lr, r1, r4, lsl #30
     7f4:	00181400 	andseq	r1, r8, r0, lsl #8
     7f8:	72010000 	andvc	r0, r1, #0, 0
     7fc:	0001fb08 	andeq	pc, r1, r8, lsl #22
     800:	00848000 	addeq	r8, r4, r0
     804:	0000c400 	andeq	ip, r0, r0, lsl #8
     808:	0e9c0100 	fmleqe	f0, f4, f0
     80c:	15000003 	strne	r0, [r0, #-3]
     810:	000003e6 	andeq	r0, r0, r6, ror #7
     814:	751a7201 	ldrvc	r7, [sl, #-513]	; 0xfffffdff
     818:	07000000 	streq	r0, [r0, -r0]
     81c:	01000002 	tsteq	r0, r2
     820:	16000002 	strne	r0, [r0], -r2
     824:	7201006c 	andvc	r0, r1, #108, 0	; 0x6c
     828:	0001142c 	andeq	r1, r1, ip, lsr #8
     82c:	64910200 	ldrvs	r0, [r1], #512	; 0x200
     830:	01006817 	tsteq	r0, r7, lsl r8
     834:	021b0c74 	andseq	r0, fp, #116, 24	; 0x7400
     838:	02390000 	eorseq	r0, r9, #0, 0
     83c:	02330000 	eorseq	r0, r3, #0, 0
     840:	ac180000 	ldcge	0, cr0, [r8], {-0}
     844:	2c000084 	stccs	0, cr0, [r0], {132}	; 0x84
     848:	8e000000 	cdphi	0, 0, cr0, cr0, cr0, {0}
     84c:	17000002 	strne	r0, [r0, -r2]
     850:	7a010069 	bvc	409fc <__bss_end__+0x35a9c>
     854:	0000250d 	andeq	r2, r0, sp, lsl #10
     858:	00026a00 	andeq	r6, r2, r0, lsl #20
     85c:	00026600 	andeq	r6, r2, r0, lsl #12
     860:	9c190000 	ldcls	0, cr0, [r9], {-0}
     864:	90000084 	andls	r0, r0, r4, lsl #1
     868:	a3000008 	movwge	r0, #8
     86c:	1a000002 	bne	87c <__code_start__-0x7784>
     870:	75035001 	strvc	r5, [r3, #-1]
     874:	190002a8 	stmdbne	r0, {r3, r5, r7, r9}
     878:	000084ac 	andeq	r8, r0, ip, lsr #9
     87c:	0000089c 	muleq	r0, ip, r8
     880:	000002c2 	andeq	r0, r0, r2, asr #5
     884:	0250011a 	subseq	r0, r0, #-2147483642	; 0x80000006
     888:	011a0074 	tsteq	sl, r4, ror r0
     88c:	1a300151 	bne	c00dd8 <__bss_end__+0xbf5e78>
     890:	08025201 	stmdaeq	r2, {r0, r9, ip, lr}
     894:	081900a8 	ldmdaeq	r9, {r3, r5, r7}
     898:	a8000085 	stmdage	r0, {r0, r2, r7}
     89c:	ee000008 	cdp	0, 0, cr0, cr0, cr8, {0}
     8a0:	1a000002 	bne	8b0 <__code_start__-0x7750>
     8a4:	03055001 	movweq	r5, #20481	; 0x5001
     8a8:	0000a33c 	andeq	sl, r0, ip, lsr r3
     8ac:	0351011a 	cmpeq	r1, #-2147483642	; 0x80000006
     8b0:	1a065c91 	bne	197afc <__bss_end__+0x18cb9c>
     8b4:	91035201 	tstls	r3, r1, lsl #4
     8b8:	011a0660 	tsteq	sl, r0, ror #12
     8bc:	64910353 	ldrvs	r0, [r1], #851	; 0x353
     8c0:	1c1b0006 	ldcne	0, cr0, [fp], {6}
     8c4:	a8000085 	stmdage	r0, {r0, r2, r7}
     8c8:	1a000008 	bne	8f0 <__code_start__-0x7710>
     8cc:	03055001 	movweq	r5, #20481	; 0x5001
     8d0:	0000a3fc 	strdeq	sl, [r0], -ip
     8d4:	0251011a 	subseq	r0, r1, #-2147483642	; 0x80000006
     8d8:	011a0076 	tsteq	sl, r6, ror r0
     8dc:	00750252 	rsbseq	r0, r5, r2, asr r2
     8e0:	081c0000 	ldmdaeq	ip, {}	; <UNPREDICTABLE>
     8e4:	01000002 	tsteq	r0, r2
     8e8:	82f40653 	rscshi	r0, r4, #87031808	; 0x5300000
     8ec:	018c0000 	orreq	r0, ip, r0
     8f0:	9c010000 	stcls	0, cr0, [r1], {-0}
     8f4:	0000053d 	andeq	r0, r0, sp, lsr r5
     8f8:	000a8715 	andeq	r8, sl, r5, lsl r7
     8fc:	14530100 	ldrbne	r0, [r3], #-256	; 0xffffff00
     900:	000001fb 	strdeq	r0, [r0], -fp
     904:	0000028d 	andeq	r0, r0, sp, lsl #5
     908:	00000289 	andeq	r0, r0, r9, lsl #5
     90c:	01006c16 	tsteq	r0, r6, lsl ip
     910:	01142453 	tsteq	r4, r3, asr r4
     914:	91020000 	mrsls	r0, (UNDEF: 2)
     918:	00681754 	rsbeq	r1, r8, r4, asr r7
     91c:	1b0c5501 	blne	315d28 <__bss_end__+0x30adc8>
     920:	b5000002 	strlt	r0, [r0, #-2]
     924:	ab000002 	blge	934 <__code_start__-0x76cc>
     928:	1d000002 	stcne	0, cr0, [r0, #-8]
     92c:	000000bb 	strheq	r0, [r0], -fp
     930:	0000054d 	andeq	r0, r0, sp, asr #10
     934:	a4240305 	strtge	r0, [r4], #-773	; 0xfffffcfb
     938:	581e0000 	ldmdapl	lr, {}	; <UNPREDICTABLE>
     93c:	1a000000 	bne	944 <__code_start__-0x76bc>
     940:	17000004 	strne	r0, [r0, -r4]
     944:	5c010069 	stcpl	0, cr0, [r1], {105}	; 0x69
     948:	0000250d 	andeq	r2, r0, sp, lsl #10
     94c:	00030000 	andeq	r0, r3, r0
     950:	0002fa00 	andeq	pc, r2, r0, lsl #20
     954:	83b41900 			; <UNDEFINED> instruction: 0x83b41900
     958:	08a80000 	stmiaeq	r8!, {}	; <UNPREDICTABLE>
     95c:	03aa0000 			; <UNDEFINED> instruction: 0x03aa0000
     960:	011a0000 	tsteq	sl, r0
     964:	58030550 	stmdapl	r3, {r4, r6, r8, sl}
     968:	1a0000a3 	bne	bfc <__code_start__-0x7404>
     96c:	76025101 	strvc	r5, [r2], -r1, lsl #2
     970:	52011a00 	andpl	r1, r1, #0, 20
     974:	1a007702 	bne	1e584 <__bss_end__+0x13624>
     978:	78025301 	stmdavc	r2, {r0, r8, r9, ip, lr}
     97c:	c8190000 	ldmdagt	r9, {}	; <UNPREDICTABLE>
     980:	a8000083 	stmdage	r0, {r0, r1, r7}
     984:	c7000008 	strgt	r0, [r0, -r8]
     988:	1a000003 	bne	99c <__code_start__-0x7664>
     98c:	03055001 	movweq	r5, #20481	; 0x5001
     990:	0000a398 	muleq	r0, r8, r3
     994:	0252011a 	subseq	r0, r2, #-2147483642	; 0x80000006
     998:	1f00fe08 	svcne	0x0000fe08
     99c:	000083cc 	andeq	r8, r0, ip, asr #7
     9a0:	000008b4 			; <UNDEFINED> instruction: 0x000008b4
     9a4:	0083e019 	addeq	lr, r3, r9, lsl r0
     9a8:	0008a800 	andeq	sl, r8, r0, lsl #16
     9ac:	0003f900 	andeq	pc, r3, r0, lsl #18
     9b0:	50011a00 	andpl	r1, r1, r0, lsl #20
     9b4:	a3580305 	cmpge	r8, #335544320	; 0x14000000
     9b8:	011a0000 	tsteq	sl, r0
     9bc:	00760251 	rsbseq	r0, r6, r1, asr r2
     9c0:	0252011a 	subseq	r0, r2, #-2147483642	; 0x80000006
     9c4:	011a0077 	tsteq	sl, r7, ror r0
     9c8:	00780253 	rsbseq	r0, r8, r3, asr r2
     9cc:	83e81900 	mvnhi	r1, #0, 18
     9d0:	08a80000 	stmiaeq	r8!, {}	; <UNPREDICTABLE>
     9d4:	04100000 	ldreq	r0, [r0], #-0
     9d8:	011a0000 	tsteq	sl, r0
     9dc:	c8030550 	stmdagt	r3, {r4, r6, r8, sl}
     9e0:	000000a3 	andeq	r0, r0, r3, lsr #1
     9e4:	0083ec1f 	addeq	lr, r3, pc, lsl ip
     9e8:	0008b400 	andeq	fp, r8, r0, lsl #8
     9ec:	ec180000 	ldc	0, cr0, [r8], {-0}
     9f0:	1c000083 	stcne	0, cr0, [r0], {131}	; 0x83
     9f4:	3a000000 	bcc	9fc <__code_start__-0x7604>
     9f8:	17000004 	strne	r0, [r0, -r4]
     9fc:	64010069 	strvs	r0, [r1], #-105	; 0xffffff97
     a00:	0000250d 	andeq	r2, r0, sp, lsl #10
     a04:	00032b00 	andeq	r2, r3, r0, lsl #22
     a08:	00032900 	andeq	r2, r3, r0, lsl #18
     a0c:	28190000 	ldmdacs	r9, {}	; <UNPREDICTABLE>
     a10:	a8000083 	stmdage	r0, {r0, r1, r7}
     a14:	63000008 	movwvs	r0, #8
     a18:	1a000004 	bne	a30 <__code_start__-0x75d0>
     a1c:	03055001 	movweq	r5, #20481	; 0x5001
     a20:	0000a33c 	andeq	sl, r0, ip, lsr r3
     a24:	0251011a 	subseq	r0, r1, #-2147483642	; 0x80000006
     a28:	011a0076 	tsteq	sl, r6, ror r0
     a2c:	00770252 	rsbseq	r0, r7, r2, asr r2
     a30:	0253011a 	subseq	r0, r3, #-2147483642	; 0x80000006
     a34:	19000078 	stmdbne	r0, {r3, r4, r5, r6}
     a38:	00008334 	andeq	r8, r0, r4, lsr r3
     a3c:	000008a8 	andeq	r0, r0, r8, lsr #17
     a40:	00000480 	andeq	r0, r0, r0, lsl #9
     a44:	0550011a 	ldrbeq	r0, [r0, #-282]	; 0xfffffee6
     a48:	00a34803 	adceq	r4, r3, r3, lsl #16
     a4c:	51011a00 	tstpl	r1, r0, lsl #20
     a50:	00007502 	andeq	r7, r0, r2, lsl #10
     a54:	00839019 	addeq	r9, r3, r9, lsl r0
     a58:	0008a800 	andeq	sl, r8, r0, lsl #16
     a5c:	0004a900 	andeq	sl, r4, r0, lsl #18
     a60:	50011a00 	andpl	r1, r1, r0, lsl #20
     a64:	a3580305 	cmpge	r8, #335544320	; 0x14000000
     a68:	011a0000 	tsteq	sl, r0
     a6c:	00760251 	rsbseq	r0, r6, r1, asr r2
     a70:	0252011a 	subseq	r0, r2, #-2147483642	; 0x80000006
     a74:	011a0077 	tsteq	sl, r7, ror r0
     a78:	00780253 	rsbseq	r0, r8, r3, asr r2
     a7c:	839c1900 	orrshi	r1, ip, #0, 18
     a80:	08a80000 	stmiaeq	r8!, {}	; <UNPREDICTABLE>
     a84:	04c00000 	strbeq	r0, [r0], #0
     a88:	011a0000 	tsteq	sl, r0
     a8c:	70030550 	andvc	r0, r3, r0, asr r5
     a90:	000000a3 	andeq	r0, r0, r3, lsr #1
     a94:	0083a01f 	addeq	sl, r3, pc, lsl r0
     a98:	0008b400 	andeq	fp, r8, r0, lsl #8
     a9c:	84181900 	ldrhi	r1, [r8], #-2304	; 0xfffff700
     aa0:	06720000 	ldrbteq	r0, [r2], -r0
     aa4:	04dd0000 	ldrbeq	r0, [sp], #0
     aa8:	011a0000 	tsteq	sl, r0
     aac:	00750250 	rsbseq	r0, r5, r0, asr r2
     ab0:	842c1900 	strthi	r1, [ip], #-2304	; 0xfffff700
     ab4:	05520000 	ldrbeq	r0, [r2, #-0]
     ab8:	04fa0000 	ldrbteq	r0, [sl], #0
     abc:	011a0000 	tsteq	sl, r0
     ac0:	38030550 	stmdacc	r3, {r4, r6, r8, sl}
     ac4:	1a0000ab 	bne	d78 <__code_start__-0x7288>
     ac8:	79025101 	stmdbvc	r2, {r0, r8, ip, lr}
     acc:	50190000 	andspl	r0, r9, r0
     ad0:	a8000084 	stmdage	r0, {r2, r7}
     ad4:	33000008 	movwcc	r0, #8
     ad8:	1a000005 	bne	af4 <__code_start__-0x750c>
     adc:	03055001 	movweq	r5, #20481	; 0x5001
     ae0:	0000a2e8 	andeq	sl, r0, r8, ror #5
     ae4:	0551011a 	ldrbeq	r0, [r1, #-282]	; 0xfffffee6
     ae8:	00a2dc03 	adceq	sp, r2, r3, lsl #24
     aec:	52011a00 	andpl	r1, r1, #0, 20
     af0:	a4240305 	strtge	r0, [r4], #-773	; 0xfffffcfb
     af4:	011a0000 	tsteq	sl, r0
     af8:	69080253 	stmdbvs	r8, {r0, r1, r4, r6, r9}
     afc:	007d021a 	rsbseq	r0, sp, sl, lsl r2
     b00:	a3e40305 	mvnge	r0, #335544320	; 0x14000000
     b04:	1f000000 	svcne	0x00000000
     b08:	00008454 	andeq	r8, r0, r4, asr r4
     b0c:	000008b4 			; <UNDEFINED> instruction: 0x000008b4
     b10:	00cc1000 	sbceq	r1, ip, r0
     b14:	054d0000 	strbeq	r0, [sp, #-0]
     b18:	2c110000 	ldccs	0, cr0, [r1], {-0}
     b1c:	06000000 	streq	r0, [r0], -r0
     b20:	053d0900 	ldreq	r0, [sp, #-2304]!	; 0xfffff700
     b24:	a1200000 			; <UNDEFINED> instruction: 0xa1200000
     b28:	01000002 	tsteq	r0, r2
     b2c:	81a80d3a 			; <UNDEFINED> instruction: 0x81a80d3a
     b30:	00a40000 	adceq	r0, r4, r0
     b34:	9c010000 	stcls	0, cr0, [r1], {-0}
     b38:	00000657 	andeq	r0, r0, r7, asr r6
     b3c:	01006c21 	tsteq	r0, r1, lsr #24
     b40:	0657213a 			; <UNDEFINED> instruction: 0x0657213a
     b44:	034c0000 	movteq	r0, #49152	; 0xc000
     b48:	033e0000 	teqeq	lr, #0, 0
     b4c:	68210000 	stmdavs	r1!, {}	; <UNPREDICTABLE>
     b50:	2b3a0100 	blcs	e80f58 <__bss_end__+0xe75ff8>
     b54:	0000021b 	andeq	r0, r0, fp, lsl r2
     b58:	000003b6 			; <UNDEFINED> instruction: 0x000003b6
     b5c:	000003aa 	andeq	r0, r0, sl, lsr #7
     b60:	0000bb1d 	andeq	fp, r0, sp, lsl fp
     b64:	00066d00 	andeq	r6, r6, r0, lsl #26
     b68:	18030500 	stmdane	r3, {r8, sl}
     b6c:	220000a4 	andcs	r0, r0, #164, 0	; 0xa4
     b70:	000003de 	ldrdeq	r0, [r0], -lr
     b74:	1b0c3d01 	blne	30ff80 <__bss_end__+0x305020>
     b78:	0b000002 	bleq	b88 <__code_start__-0x7478>
     b7c:	03000004 	movweq	r0, #4
     b80:	17000004 	strne	r0, [r0, -r4]
     b84:	45010070 	strmi	r0, [r1, #-112]	; 0xffffff90
     b88:	00021b0c 	andeq	r1, r2, ip, lsl #22
     b8c:	00044300 	andeq	r4, r4, r0, lsl #6
     b90:	00043f00 	andeq	r3, r4, r0, lsl #30
     b94:	81d01900 	bicshi	r1, r0, r0, lsl #18
     b98:	08310000 	ldmdaeq	r1!, {}	; <UNPREDICTABLE>
     b9c:	05d50000 	ldrbeq	r0, [r5]
     ba0:	011a0000 	tsteq	sl, r0
     ba4:	00750250 	rsbseq	r0, r5, r0, asr r2
     ba8:	820c1900 	andhi	r1, ip, #0, 18
     bac:	08a80000 	stmiaeq	r8!, {}	; <UNPREDICTABLE>
     bb0:	060e0000 	streq	r0, [lr], -r0
     bb4:	011a0000 	tsteq	sl, r0
     bb8:	e8030550 	stmda	r3, {r4, r6, r8, sl}
     bbc:	1a0000a2 	bne	e4c <__code_start__-0x71b4>
     bc0:	03055101 	movweq	r5, #20737	; 0x5101
     bc4:	0000a2dc 	ldrdeq	sl, [r0], -ip
     bc8:	0552011a 	ldrbeq	r0, [r2, #-282]	; 0xfffffee6
     bcc:	00a41803 	adceq	r1, r4, r3, lsl #16
     bd0:	53011a00 	movwpl	r1, #6656	; 0x1a00
     bd4:	1a3c0802 	bne	f02be4 <__bss_end__+0xef7c84>
     bd8:	05007d02 	streq	r7, [r0, #-3330]	; 0xfffff2fe
     bdc:	00a2fc03 	adceq	pc, r2, r3, lsl #24
     be0:	101f0000 	andsne	r0, pc, r0
     be4:	b4000082 	strlt	r0, [r0], #-130	; 0xffffff7e
     be8:	19000008 	stmdbne	r0, {r3}
     bec:	00008234 	andeq	r8, r0, r4, lsr r2
     bf0:	000008a8 	andeq	r0, r0, r8, lsr #17
     bf4:	0000064d 	andeq	r0, r0, sp, asr #12
     bf8:	0550011a 	ldrbeq	r0, [r0, #-282]	; 0xfffffee6
     bfc:	00a30003 	adceq	r0, r3, r3
     c00:	51011a00 	tstpl	r1, r0, lsl #20
     c04:	a2dc0305 	sbcsge	r0, ip, #335544320	; 0x14000000
     c08:	011a0000 	tsteq	sl, r0
     c0c:	18030552 	stmdane	r3, {r1, r4, r6, r8, sl}
     c10:	1a0000a4 	bne	ea8 <__code_start__-0x7158>
     c14:	08025301 	stmdaeq	r2, {r0, r8, r9, ip, lr}
     c18:	7d021a4f 	vstrvc	s2, [r2, #-316]	; 0xfffffec4
     c1c:	00740200 	rsbseq	r0, r4, r0, lsl #4
     c20:	82381f00 	eorshi	r1, r8, #0, 30
     c24:	08b40000 	ldmeq	r4!, {}	; <UNPREDICTABLE>
     c28:	08000000 	stmdaeq	r0, {}	; <UNPREDICTABLE>
     c2c:	00021b04 	andeq	r1, r2, r4, lsl #22
     c30:	00cc1000 	sbceq	r1, ip, r0
     c34:	066d0000 	strbteq	r0, [sp], -r0
     c38:	2c110000 	ldccs	0, cr0, [r1], {-0}
     c3c:	0b000000 	bleq	c44 <__code_start__-0x73bc>
     c40:	065d0900 	ldrbeq	r0, [sp], -r0, lsl #18
     c44:	ad140000 	ldcge	0, cr0, [r4, #-0]
     c48:	01000002 	tsteq	r0, r2
     c4c:	021b082b 	andseq	r0, fp, #2818048	; 0x2b0000
     c50:	829c0000 	addshi	r0, ip, #0, 0
     c54:	00580000 	subseq	r0, r8, r0
     c58:	9c010000 	stcls	0, cr0, [r1], {-0}
     c5c:	00000713 	andeq	r0, r0, r3, lsl r7
     c60:	72747021 	rsbsvc	r7, r4, #33, 0	; 0x21
     c64:	202b0100 	eorcs	r0, fp, r0, lsl #2
     c68:	000001fb 	strdeq	r0, [r0], -fp
     c6c:	00000465 	andeq	r0, r0, r5, ror #8
     c70:	00000461 	andeq	r0, r0, r1, ror #8
     c74:	0082a423 	addeq	sl, r2, r3, lsr #8
     c78:	00004400 	andeq	r4, r0, r0, lsl #8
     c7c:	00681700 	rsbeq	r1, r8, r0, lsl #14
     c80:	1b112e01 	blne	44c48c <__bss_end__+0x44152c>
     c84:	8b000002 	blhi	c94 <__code_start__-0x736c>
     c88:	83000004 	movwhi	r0, #4
     c8c:	1f000004 	svcne	0x00000004
     c90:	000082a8 	andeq	r8, r0, r8, lsr #5
     c94:	0000085e 	andeq	r0, r0, lr, asr r8
     c98:	0082c019 	addeq	ip, r2, r9, lsl r0
     c9c:	00071300 	andeq	r1, r7, r0, lsl #6
     ca0:	0006de00 	andeq	sp, r6, r0, lsl #28
     ca4:	50011a00 	andpl	r1, r1, r0, lsl #20
     ca8:	1a007402 	bne	1dcb8 <__bss_end__+0x12d58>
     cac:	75025101 	strvc	r5, [r2, #-257]	; 0xfffffeff
     cb0:	d0190000 	andsle	r0, r9, r0
     cb4:	31000082 	smlabbcc	r0, r2, r0, r0
     cb8:	f2000008 	vhadd.s8	d0, d0, d8
     cbc:	1a000006 	bne	cdc <__code_start__-0x7324>
     cc0:	74025001 	strvc	r5, [r2], #-1
     cc4:	e81b0000 	ldmda	fp, {}	; <UNPREDICTABLE>
     cc8:	a8000082 	stmdage	r0, {r1, r7}
     ccc:	1a000008 	bne	cf4 <__code_start__-0x730c>
     cd0:	03055001 	movweq	r5, #20481	; 0x5001
     cd4:	0000a32c 	andeq	sl, r0, ip, lsr #6
     cd8:	0251011a 	subseq	r0, r1, #-2147483642	; 0x80000006
     cdc:	011a0075 	tsteq	sl, r5, ror r0
     ce0:	00740252 	rsbseq	r0, r4, r2, asr r2
     ce4:	14000000 	strne	r0, [r0], #-0
     ce8:	00000258 	andeq	r0, r0, r8, asr r2
     cec:	2c0a2401 	cfstrscs	mvf2, [sl], {1}
     cf0:	6c000000 	stcvs	0, cr0, [r0], {-0}
     cf4:	30000082 	andcc	r0, r0, r2, lsl #1
     cf8:	01000000 	mrseq	r0, (UNDEF: 0)
     cfc:	0007a09c 	muleq	r7, ip, r0
     d00:	00682100 	rsbeq	r2, r8, r0, lsl #2
     d04:	1b212401 	blne	849d10 <__bss_end__+0x83edb0>
     d08:	c3000002 	movwgt	r0, #2
     d0c:	bf000004 	svclt	0x00000004
     d10:	21000004 	tstcs	r0, r4
     d14:	00727470 	rsbseq	r7, r2, r0, ror r4
     d18:	fb2a2401 	blx	a89d26 <__bss_end__+0xa7edc6>
     d1c:	e5000001 	str	r0, [r0, #-1]
     d20:	e1000004 	tst	r0, r4
     d24:	17000004 	strne	r0, [r0, -r4]
     d28:	006e696d 	rsbeq	r6, lr, sp, ror #18
     d2c:	fb0b2601 	blx	2ca53a <__bss_end__+0x2bf5da>
     d30:	07000001 	streq	r0, [r0, -r1]
     d34:	03000005 	movweq	r0, #5
     d38:	17000005 	strne	r0, [r0, -r5]
     d3c:	0078616d 	rsbseq	r6, r8, sp, ror #2
     d40:	fb0b2701 	blx	2ca94e <__bss_end__+0x2bf9ee>
     d44:	27000001 	strcs	r0, [r0, -r1]
     d48:	25000005 	strcs	r0, [r0, #-5]
     d4c:	19000005 	stmdbne	r0, {r0, r2}
     d50:	0000827c 	andeq	r8, r0, ip, ror r2
     d54:	00000804 	andeq	r0, r0, r4, lsl #16
     d58:	0000078f 	andeq	r0, r0, pc, lsl #15
     d5c:	0250011a 	subseq	r0, r0, #-2147483642	; 0x80000006
     d60:	1b000076 	blne	f40 <__code_start__-0x70c0>
     d64:	00008288 	andeq	r8, r0, r8, lsl #5
     d68:	000007a0 	andeq	r0, r0, r0, lsr #15
     d6c:	0250011a 	subseq	r0, r0, #-2147483642	; 0x80000006
     d70:	00000076 	andeq	r0, r0, r6, ror r0
     d74:	0003d314 	andeq	sp, r3, r4, lsl r3
     d78:	071e0100 	ldreq	r0, [lr, -r0, lsl #2]
     d7c:	000001fb 	strdeq	r0, [r0], -fp
     d80:	00008254 	andeq	r8, r0, r4, asr r2
     d84:	00000018 	andeq	r0, r0, r8, lsl r0
     d88:	08049c01 	stmdaeq	r4, {r0, sl, fp, ip, pc}
     d8c:	68210000 	stmdavs	r1!, {}	; <UNPREDICTABLE>
     d90:	191e0100 	ldmdbne	lr, {r8}
     d94:	0000021b 	andeq	r0, r0, fp, lsl r2
     d98:	0000053e 	andeq	r0, r0, lr, lsr r5
     d9c:	0000053a 	andeq	r0, r0, sl, lsr r5
     da0:	00087424 	andeq	r7, r8, r4, lsr #8
     da4:	00826000 	addeq	r6, r2, r0
     da8:	82600000 	rsbhi	r0, r0, #0, 0
     dac:	00040000 	andeq	r0, r4, r0
     db0:	20010000 	andcs	r0, r1, r0
     db4:	0007f326 	andeq	pc, r7, r6, lsr #6
     db8:	08852500 	stmeq	r5, {r8, sl, sp}
     dbc:	055e0000 	ldrbeq	r0, [lr, #-0]
     dc0:	055c0000 	ldrbeq	r0, [ip, #-0]
     dc4:	1b000000 	blne	dcc <__code_start__-0x7234>
     dc8:	00008260 	andeq	r8, r0, r0, ror #4
     dcc:	00000804 	andeq	r0, r0, r4, lsl #16
     dd0:	0250011a 	subseq	r0, r0, #-2147483642	; 0x80000006
     dd4:	00000074 	andeq	r0, r0, r4, ror r0
     dd8:	0003c614 	andeq	ip, r3, r4, lsl r6
     ddc:	07180100 	ldreq	r0, [r8, -r0, lsl #2]
     de0:	000001fb 	strdeq	r0, [r0], -fp
     de4:	0000824c 	andeq	r8, r0, ip, asr #4
     de8:	00000008 	andeq	r0, r0, r8
     dec:	08319c01 	ldmdaeq	r1!, {r0, sl, fp, ip, pc}
     df0:	68210000 	stmdavs	r1!, {}	; <UNPREDICTABLE>
     df4:	1b180100 	blne	6011fc <__bss_end__+0x5f629c>
     df8:	0000021b 	andeq	r0, r0, fp, lsl r2
     dfc:	00000575 	andeq	r0, r0, r5, ror r5
     e00:	00000571 	andeq	r0, r0, r1, ror r5
     e04:	02bf1400 	adcseq	r1, pc, #0, 8
     e08:	11010000 	mrsne	r0, (UNDEF: 1)
     e0c:	00021b08 	andeq	r1, r2, r8, lsl #22
     e10:	00819800 	addeq	r9, r1, r0, lsl #16
     e14:	00001000 	andeq	r1, r0, r0
     e18:	5e9c0100 	fmlple	f0, f4, f0
     e1c:	21000008 	tstcs	r0, r8
     e20:	11010070 	tstne	r1, r0, ror r0
     e24:	00021b1b 	andeq	r1, r2, fp, lsl fp
     e28:	00059a00 	andeq	r9, r5, r0, lsl #20
     e2c:	00059600 	andeq	r9, r5, r0, lsl #12
     e30:	89260000 	stmdbhi	r6!, {}	; <UNPREDICTABLE>
     e34:	01000002 	tsteq	r0, r2
     e38:	021b080b 	andseq	r0, fp, #720896	; 0xb0000
     e3c:	81880000 	orrhi	r0, r8, r0
     e40:	00100000 	andseq	r0, r0, r0
     e44:	9c010000 	stcls	0, cr0, [r1], {-0}
     e48:	0003e327 	andeq	lr, r3, r7, lsr #6
     e4c:	182e0200 	stmdane	lr!, {r9}
     e50:	0000002c 	andeq	r0, r0, ip, lsr #32
     e54:	00089003 	andeq	r9, r8, r3
     e58:	00682800 	rsbeq	r2, r8, r0, lsl #16
     e5c:	1b292e02 	blne	a4c66c <__bss_end__+0xa4170c>
     e60:	00000002 	andeq	r0, r0, r2
     e64:	0003ed29 	andeq	lr, r3, r9, lsr #26
     e68:	0003ed00 	andeq	lr, r3, r0, lsl #26
     e6c:	071e0600 	ldreq	r0, [lr, -r0, lsl #12]
     e70:	0000c829 	andeq	ip, r0, r9, lsr #16
     e74:	0000c800 	andeq	ip, r0, r0, lsl #16
     e78:	07f20400 	ldrbeq	r0, [r2, r0, lsl #8]!
     e7c:	0005ca29 	andeq	ip, r5, r9, lsr #20
     e80:	0005ca00 	andeq	ip, r5, r0, lsl #20
     e84:	06280400 	strteq	r0, [r8], -r0, lsl #8
     e88:	00007529 	andeq	r7, r0, r9, lsr #10
     e8c:	00007500 	andeq	r7, r0, r0, lsl #10
     e90:	066e0400 	strbteq	r0, [lr], -r0, lsl #8
     e94:	0002fb00 	andeq	pc, r2, r0, lsl #22
     e98:	83000400 	movwhi	r0, #1024	; 0x400
     e9c:	04000004 	streq	r0, [r0], #-4
     ea0:	0000fe01 	andeq	pc, r0, r1, lsl #28
     ea4:	041f0c00 	ldreq	r0, [pc], #-3072	; eac <__code_start__-0x7154>
     ea8:	01d60000 	bicseq	r0, r6, r0
     eac:	85440000 	strbhi	r0, [r4, #-0]
     eb0:	01880000 	orreq	r0, r8, r0
     eb4:	05ea0000 	strbeq	r0, [sl, #0]!
     eb8:	04020000 	streq	r0, [r2], #-0
     ebc:	746e6905 	strbtvc	r6, [lr], #-2309	; 0xfffff6fb
     ec0:	07040300 	streq	r0, [r4, -r0, lsl #6]
     ec4:	0000005a 	andeq	r0, r0, sl, asr r0
     ec8:	69060103 	stmdbvs	r6, {r0, r1, r8}
     ecc:	03000000 	movweq	r0, #0
     ed0:	020f0502 	andeq	r0, pc, #8388608	; 0x800000
     ed4:	04030000 	streq	r0, [r3], #-0
     ed8:	0001cd05 	andeq	ip, r1, r5, lsl #26
     edc:	05080300 	streq	r0, [r8, #-768]	; 0xfffffd00
     ee0:	000001c8 	andeq	r0, r0, r8, asr #3
     ee4:	67080103 	strvs	r0, [r8, -r3, lsl #2]
     ee8:	03000000 	movweq	r0, #0
     eec:	00820702 	addeq	r0, r2, r2, lsl #14
     ef0:	04030000 	streq	r0, [r3], #-0
     ef4:	00005507 	andeq	r5, r0, r7, lsl #10
     ef8:	07080300 	streq	r0, [r8, -r0, lsl #6]
     efc:	00000050 	andeq	r0, r0, r0, asr r0
     f00:	00002504 	andeq	r2, r0, r4, lsl #10
     f04:	00007a00 	andeq	r7, r0, r0, lsl #20
     f08:	00250500 	eoreq	r0, r5, r0, lsl #10
     f0c:	06000000 	streq	r0, [r0], -r0
     f10:	00000235 	andeq	r0, r0, r5, lsr r2
     f14:	860e1c02 	strhi	r1, [lr], -r2, lsl #24
     f18:	07000000 	streq	r0, [r0, -r0]
     f1c:	00006b04 	andeq	r6, r0, r4, lsl #22
     f20:	00250400 	eoreq	r0, r5, r0, lsl #8
     f24:	009b0000 	addseq	r0, fp, r0
     f28:	9b050000 	blls	140f30 <__bss_end__+0x135fd0>
     f2c:	00000000 	andeq	r0, r0, r0
     f30:	00a80407 	adceq	r0, r8, r7, lsl #8
     f34:	01030000 	mrseq	r0, (UNDEF: 3)
     f38:	00007008 	andeq	r7, r0, r8
     f3c:	00a10800 	adceq	r0, r1, r0, lsl #16
     f40:	08060000 	stmdaeq	r6, {}	; <UNPREDICTABLE>
     f44:	02000006 	andeq	r0, r0, #6, 0
     f48:	00b90e21 	adcseq	r0, r9, r1, lsr #28
     f4c:	04070000 	streq	r0, [r7], #-0
     f50:	0000008c 	andeq	r0, r0, ip, lsl #1
     f54:	00040409 	andeq	r0, r4, r9, lsl #8
     f58:	05010800 	streq	r0, [r1, #-2048]	; 0xfffff800
     f5c:	0000ec07 	andeq	lr, r0, r7, lsl #24
     f60:	00640a00 	rsbeq	r0, r4, r0, lsl #20
     f64:	ec090701 	stc	7, cr0, [r9], {1}
     f68:	0a000000 	beq	f70 <__code_start__-0x7090>
     f6c:	08010070 	stmdaeq	r1, {r4, r5, r6}
     f70:	0000f308 	andeq	pc, r0, r8, lsl #6
     f74:	70660a00 	rsbvc	r0, r6, r0, lsl #20
     f78:	09090100 	stmdbeq	r9, {r8}
     f7c:	000000f6 	strdeq	r0, [r0], -r6
     f80:	04080300 	streq	r0, [r8], #-768	; 0xfffffd00
     f84:	0000042b 	andeq	r0, r0, fp, lsr #8
     f88:	070c040b 	streq	r0, [ip, -fp, lsl #8]
     f8c:	0000f504 	andeq	pc, r0, r4, lsl #10
     f90:	01080d00 	tsteq	r8, r0, lsl #26
     f94:	0120020e 			; <UNDEFINED> instruction: 0x0120020e
     f98:	700e0000 	andvc	r0, lr, r0
     f9c:	01007274 	tsteq	r0, r4, ror r2
     fa0:	01421110 	cmpeq	r2, r0, lsl r1
     fa4:	0f000000 	svceq	0x00000000
     fa8:	00000445 	andeq	r0, r0, r5, asr #8
     fac:	2c0c1101 	stfcss	f1, [ip], {1}
     fb0:	04000000 	streq	r0, [r0], #-0
     fb4:	03f70900 	mvnseq	r0, #0, 18
     fb8:	01080000 	mrseq	r0, (UNDEF: 8)
     fbc:	01420f0c 	cmpeq	r2, ip, lsl #30
     fc0:	730a0000 	movwvc	r0, #40960	; 0xa000
     fc4:	04120100 	ldreq	r0, [r2], #-256	; 0xffffff00
     fc8:	000000fc 	strdeq	r0, [r0], -ip
     fcc:	0100780a 	tsteq	r0, sl, lsl #16
     fd0:	00bf0e13 	adcseq	r0, pc, r3, lsl lr	; <UNPREDICTABLE>
     fd4:	07000000 	streq	r0, [r0, -r0]
     fd8:	00012004 	andeq	r2, r1, r4
     fdc:	044a1000 	strbeq	r1, [sl], #-0
     fe0:	14010000 	strne	r0, [r1], #-0
     fe4:	00012003 	andeq	r2, r1, r3
     fe8:	04321100 	ldrteq	r1, [r2], #-256	; 0xffffff00
     fec:	18010000 	stmdane	r1, {}	; <UNPREDICTABLE>
     ff0:	0001480f 	andeq	r4, r1, pc, lsl #16
     ff4:	48030500 	stmdami	r3, {r8, sl}
     ff8:	110000ab 	smlatbne	r0, fp, r0, r0
     ffc:	00000412 	andeq	r0, r0, r2, lsl r4
    1000:	78101901 	ldmdavc	r0, {r0, r8, fp, ip}
    1004:	05000001 	streq	r0, [r0, #-1]
    1008:	00ab4003 	adceq	r4, fp, r3
    100c:	48040700 	stmdami	r4, {r8, r9, sl}
    1010:	12000001 	andne	r0, r0, #1, 0
    1014:	0000040a 	andeq	r0, r0, sl, lsl #8
    1018:	44065301 	strmi	r5, [r6], #-769	; 0xfffffcff
    101c:	88000085 	stmdahi	r0, {r0, r2, r7}
    1020:	01000000 	mrseq	r0, (UNDEF: 0)
    1024:	0001cd9c 	muleq	r1, ip, sp
    1028:	70611300 	rsbvc	r1, r1, r0, lsl #6
    102c:	14530100 	ldrbne	r0, [r3], #-256	; 0xffffff00
    1030:	000000f3 	strdeq	r0, [r0], -r3
    1034:	000005c1 	andeq	r0, r0, r1, asr #11
    1038:	000005bb 			; <UNDEFINED> instruction: 0x000005bb
    103c:	00706214 	rsbseq	r6, r0, r4, lsl r2
    1040:	780a5501 	stmdavc	sl, {r0, r8, sl, ip, lr}
    1044:	f3000001 	vhadd.u8	d0, d0, d1
    1048:	ef000005 	svc	0x00000005
    104c:	14000005 	strne	r0, [r0], #-5
    1050:	55010070 	strpl	r0, [r1, #-112]	; 0xffffff90
    1054:	0001780f 	andeq	r7, r1, pc, lsl #16
    1058:	00061800 	andeq	r1, r6, r0, lsl #16
    105c:	00061600 	andeq	r1, r6, r0, lsl #12
    1060:	ed150000 	ldc	0, cr0, [r5, #-0]
    1064:	01000003 	tsteq	r0, r3
    1068:	00f3072b 	rscseq	r0, r3, fp, lsr #14
    106c:	85cc0000 	strbhi	r0, [ip]
    1070:	01000000 	mrseq	r0, (UNDEF: 0)
    1074:	9c010000 	stcls	0, cr0, [r1], {-0}
    1078:	000002ad 	andeq	r0, r0, sp, lsr #5
    107c:	0003e616 	andeq	lr, r3, r6, lsl r6
    1080:	1a2b0100 	bne	ac1488 <__bss_end__+0xab6528>
    1084:	0000002c 	andeq	r0, r0, ip, lsr #32
    1088:	00000633 	andeq	r0, r0, r3, lsr r6
    108c:	0000062b 	andeq	r0, r0, fp, lsr #12
    1090:	01007014 	tsteq	r0, r4, lsl r0
    1094:	01780a2d 	cmneq	r8, sp, lsr #20
    1098:	067d0000 	ldrbteq	r0, [sp], -r0
    109c:	066d0000 	strbteq	r0, [sp], -r0
    10a0:	fe170000 	cdp2	0, 1, cr0, cr7, cr0, {0}
    10a4:	01000003 	tsteq	r0, r3
    10a8:	01780e2d 	cmneq	r8, sp, lsr #28
    10ac:	06f50000 	ldrbteq	r0, [r5], r0
    10b0:	06e90000 	strbteq	r0, [r9], r0
    10b4:	18170000 	ldmdane	r7, {}	; <UNPREDICTABLE>
    10b8:	01000004 	tsteq	r0, r4
    10bc:	002c0b2e 	eoreq	r0, ip, lr, lsr #22
    10c0:	07460000 	strbeq	r0, [r6, -r0]
    10c4:	07440000 	strbeq	r0, [r4, -r0]
    10c8:	ad180000 	ldcge	0, cr0, [r8, #-0]
    10cc:	24000002 	strcs	r0, [r0], #-2
    10d0:	01000086 	smlabbeq	r0, r6, r0, r0
    10d4:	00000070 	andeq	r0, r0, r0, ror r0
    10d8:	190d4a01 	stmdbne	sp, {r0, r9, fp, lr}
    10dc:	000002be 			; <UNDEFINED> instruction: 0x000002be
    10e0:	0000075b 	andeq	r0, r0, fp, asr r7
    10e4:	00000759 	andeq	r0, r0, r9, asr r7
    10e8:	0000701a 	andeq	r7, r0, sl, lsl r0
    10ec:	02c91b00 	sbceq	r1, r9, #0, 22
    10f0:	07750000 	ldrbeq	r0, [r5, -r0]!
    10f4:	07710000 	ldrbeq	r0, [r1, -r0]!
    10f8:	d41b0000 	ldrle	r0, [fp], #-0
    10fc:	97000002 	strls	r0, [r0, -r2]
    1100:	93000007 	movwls	r0, #7
    1104:	1c000007 	stcne	0, cr0, [r0], {7}
    1108:	00008630 	andeq	r8, r0, r0, lsr r6
    110c:	000002e6 	andeq	r0, r0, r6, ror #5
    1110:	0000028c 	andeq	r0, r0, ip, lsl #5
    1114:	0250011d 	subseq	r0, r0, #1073741831	; 0x40000007
    1118:	011d0076 	tsteq	sp, r6, ror r0
    111c:	00770251 	rsbseq	r0, r7, r1, asr r2
    1120:	86381c00 	ldrthi	r1, [r8], -r0, lsl #24
    1124:	02f20000 	rscseq	r0, r2, #0, 0
    1128:	02a10000 	adceq	r0, r1, #0, 0
    112c:	011d0000 	tsteq	sp, r0
    1130:	3e400350 	mcrcc	3, 2, r0, cr0, cr0, {2}
    1134:	501e0024 	andspl	r0, lr, r4, lsr #32
    1138:	7e000086 	cdpvc	0, 0, cr0, cr0, cr6, {4}
    113c:	00000001 	andeq	r0, r0, r1
    1140:	3c1f0000 	ldccc	0, cr0, [pc], {-0}
    1144:	01000004 	tsteq	r0, r4
    1148:	0178101c 	cmneq	r8, ip, lsl r0
    114c:	e0010000 	and	r0, r1, r0
    1150:	20000002 	andcs	r0, r0, r2
    1154:	0100756e 	tsteq	r0, lr, ror #10
    1158:	002c221c 	eoreq	r2, ip, ip, lsl r2
    115c:	63210000 			; <UNDEFINED> instruction: 0x63210000
    1160:	21010070 	tstcs	r1, r0, ror r0
    1164:	0002e008 	andeq	lr, r2, r8
    1168:	70752100 	rsbsvc	r2, r5, r0, lsl #2
    116c:	0a240100 	beq	901574 <__bss_end__+0x8f6614>
    1170:	00000178 	andeq	r0, r0, r8, ror r1
    1174:	a1040700 	tstge	r4, r0, lsl #14
    1178:	22000000 	andcs	r0, r0, #0, 0
    117c:	000005ca 	andeq	r0, r0, sl, asr #11
    1180:	000005ca 	andeq	r0, r0, sl, asr #11
    1184:	22062802 	andcs	r2, r6, #131072	; 0x20000
    1188:	00000437 	andeq	r0, r0, r7, lsr r4
    118c:	00000437 	andeq	r0, r0, r7, lsr r4
    1190:	000b1a03 	andeq	r1, fp, r3, lsl #20
    1194:	00000d70 	andeq	r0, r0, r0, ror sp
    1198:	06880004 	streq	r0, [r8], r4
    119c:	01040000 	mrseq	r0, (UNDEF: 4)
    11a0:	000000fe 	strdeq	r0, [r0], -lr
    11a4:	00050b0c 	andeq	r0, r5, ip, lsl #22
    11a8:	0001d600 	andeq	sp, r1, r0, lsl #12
    11ac:	0086cc00 	addeq	ip, r6, r0, lsl #24
    11b0:	00058400 	andeq	r8, r5, r0, lsl #8
    11b4:	00082a00 	andeq	r2, r8, r0, lsl #20
    11b8:	05040200 	streq	r0, [r4, #-512]	; 0xfffffe00
    11bc:	00746e69 	rsbseq	r6, r4, r9, ror #28
    11c0:	5a070403 	bpl	1c21d4 <__bss_end__+0x1b7274>
    11c4:	03000000 	movweq	r0, #0
    11c8:	00690601 	rsbeq	r0, r9, r1, lsl #12
    11cc:	02030000 	andeq	r0, r3, #0, 0
    11d0:	00020f05 	andeq	r0, r2, r5, lsl #30
    11d4:	05040300 	streq	r0, [r4, #-768]	; 0xfffffd00
    11d8:	000001cd 	andeq	r0, r0, sp, asr #3
    11dc:	c8050803 	stmdagt	r5, {r0, r1, fp}
    11e0:	04000001 	streq	r0, [r0], #-1
    11e4:	000001b6 			; <UNDEFINED> instruction: 0x000001b6
    11e8:	5b182e03 	blpl	60c9fc <__bss_end__+0x601a9c>
    11ec:	03000000 	movweq	r0, #0
    11f0:	00670801 	rsbeq	r0, r7, r1, lsl #16
    11f4:	23040000 	movwcs	r0, #16384	; 0x4000
    11f8:	03000002 	movweq	r0, #2
    11fc:	006e1931 	rsbeq	r1, lr, r1, lsr r9
    1200:	02030000 	andeq	r0, r3, #0, 0
    1204:	00008207 	andeq	r8, r0, r7, lsl #4
    1208:	022c0400 	eoreq	r0, ip, #0, 8
    120c:	34030000 	strcc	r0, [r3], #-0
    1210:	00008119 	andeq	r8, r0, r9, lsl r1
    1214:	07040300 	streq	r0, [r4, -r0, lsl #6]
    1218:	00000055 	andeq	r0, r0, r5, asr r0
    121c:	50070803 	andpl	r0, r7, r3, lsl #16
    1220:	05000000 	streq	r0, [r0, #-0]
    1224:	00000025 	andeq	r0, r0, r5, lsr #32
    1228:	0000009e 	muleq	r0, lr, r0
    122c:	00002506 	andeq	r2, r0, r6, lsl #10
    1230:	35070000 	strcc	r0, [r7, #-0]
    1234:	04000002 	streq	r0, [r0], #-2
    1238:	00aa0e1c 	adceq	r0, sl, ip, lsl lr
    123c:	04080000 	streq	r0, [r8], #-0
    1240:	0000008f 	andeq	r0, r0, pc, lsl #1
    1244:	00002505 	andeq	r2, r0, r5, lsl #10
    1248:	0000bf00 	andeq	fp, r0, r0, lsl #30
    124c:	00bf0600 	adcseq	r0, pc, r0, lsl #12
    1250:	08000000 	stmdaeq	r0, {}	; <UNPREDICTABLE>
    1254:	0000cc04 	andeq	ip, r0, r4, lsl #24
    1258:	08010300 	stmdaeq	r1, {r8, r9}
    125c:	00000070 	andeq	r0, r0, r0, ror r0
    1260:	0000c509 	andeq	ip, r0, r9, lsl #10
    1264:	06080700 	streq	r0, [r8], -r0, lsl #14
    1268:	21040000 	mrscs	r0, (UNDEF: 4)
    126c:	0000dd0e 	andeq	sp, r0, lr, lsl #26
    1270:	b0040800 	andlt	r0, r4, r0, lsl #16
    1274:	0a000000 	beq	127c <__code_start__-0x6d84>
    1278:	0904020c 	stmdbeq	r4, {r2, r3, r9}
    127c:	00000114 	andeq	r0, r0, r4, lsl r1
    1280:	0000a70b 	andeq	sl, r0, fp, lsl #14
    1284:	11060200 	mrsne	r0, LR_usr
    1288:	000000bf 	strheq	r0, [r0], -pc	; <UNPREDICTABLE>
    128c:	00b60b00 	adcseq	r0, r6, r0, lsl #22
    1290:	07020000 	streq	r0, [r2, -r0]
    1294:	0000bf11 	andeq	fp, r0, r1, lsl pc
    1298:	260b0400 	strcs	r0, [fp], -r0, lsl #8
    129c:	02000000 	andeq	r0, r0, #0, 0
    12a0:	002c0e08 	eoreq	r0, ip, r8, lsl #28
    12a4:	00080000 	andeq	r0, r8, r0
    12a8:	00021904 	andeq	r1, r2, r4, lsl #18
    12ac:	03090200 	movweq	r0, #37376	; 0x9200
    12b0:	000000e3 	andeq	r0, r0, r3, ror #1
    12b4:	5b01070c 	blpl	42eec <__bss_end__+0x37f8c>
    12b8:	05000000 	streq	r0, [r0, #-0]
    12bc:	013b060a 	teqeq	fp, sl, lsl #12
    12c0:	7a0d0000 	bvc	3412c8 <__bss_end__+0x336368>
    12c4:	80000002 	andhi	r0, r0, r2
    12c8:	00026e0d 	andeq	r6, r2, sp, lsl #28
    12cc:	0e00fe00 	cdpeq	14, 0, cr15, cr0, cr0, {0}
    12d0:	00000095 	muleq	r0, r5, r0
    12d4:	100d05a8 	andne	r0, sp, r8, lsr #11
    12d8:	000001be 			; <UNDEFINED> instruction: 0x000001be
    12dc:	0000130b 	andeq	r1, r0, fp, lsl #6
    12e0:	140e0500 	strne	r0, [lr], #-1280	; 0xfffffb00
    12e4:	000001be 			; <UNDEFINED> instruction: 0x000001be
    12e8:	00430b00 	subeq	r0, r3, r0, lsl #22
    12ec:	0f050000 	svceq	0x00050000
    12f0:	0000750e 	andeq	r7, r0, lr, lsl #10
    12f4:	200b0400 	andcs	r0, fp, r0, lsl #8
    12f8:	05000000 	streq	r0, [r0, #-0]
    12fc:	00750e10 	rsbseq	r0, r5, r0, lsl lr
    1300:	0b080000 	bleq	201308 <__bss_end__+0x1f63a8>
    1304:	000000d5 	ldrdeq	r0, [r0], -r5
    1308:	750e1405 	strvc	r1, [lr, #-1029]	; 0xfffffbfb
    130c:	0c000000 	stceq	0, cr0, [r0], {-0}
    1310:	0001be0b 	andeq	fp, r1, fp, lsl #28
    1314:	0f160500 	svceq	0x00160500
    1318:	00000114 	andeq	r0, r0, r4, lsl r1
    131c:	02410b10 	subeq	r0, r1, #16, 22	; 0x4000
    1320:	19050000 	stmdbne	r5, {}	; <UNPREDICTABLE>
    1324:	0000750e 	andeq	r7, r0, lr, lsl #10
    1328:	4c0b1c00 	stcmi	12, cr1, [fp], {-0}
    132c:	05000002 	streq	r0, [r0, #-2]
    1330:	00750e1a 	rsbseq	r0, r5, sl, lsl lr
    1334:	0b200000 	bleq	80133c <__bss_end__+0x7f63dc>
    1338:	000004a1 	andeq	r0, r0, r1, lsr #9
    133c:	620e1c05 	andvs	r1, lr, #1280	; 0x500
    1340:	24000000 	strcs	r0, [r0], #-0
    1344:	317a720f 	cmncc	sl, pc, lsl #4
    1348:	0d1e0500 	cfldr32eq	mvfx0, [lr, #-0]
    134c:	000001c4 	andeq	r0, r0, r4, asr #3
    1350:	04080026 	streq	r0, [r8], #-38	; 0xffffffda
    1354:	0000013b 	andeq	r0, r0, fp, lsr r1
    1358:	00004f10 	andeq	r4, r0, r0, lsl pc
    135c:	0001d400 	andeq	sp, r1, r0, lsl #8
    1360:	002c1100 	eoreq	r1, ip, r0, lsl #2
    1364:	007f0000 	rsbseq	r0, pc, r0
    1368:	00000d04 	andeq	r0, r0, r4, lsl #26
    136c:	031f0500 	tsteq	pc, #0, 10
    1370:	0000013b 	andeq	r0, r0, fp, lsr r1
    1374:	00070412 	andeq	r0, r7, r2, lsl r4
    1378:	05000000 	streq	r0, [r0, #-0]
    137c:	002c11a5 	eoreq	r1, ip, r5, lsr #3
    1380:	70130000 	andsvc	r0, r3, r0
    1384:	0100000a 	tsteq	r0, sl
    1388:	01e00e10 	mvneq	r0, r0, lsl lr
    138c:	03050000 	movweq	r0, #20480	; 0x5000
    1390:	0000ab50 	andeq	sl, r0, r0, asr fp
    1394:	000ad113 	andeq	sp, sl, r3, lsl r1
    1398:	0e110100 	mufeqs	f0, f1, f0
    139c:	000001e0 	andeq	r0, r0, r0, ror #3
    13a0:	ab540305 	blge	1501fbc <__bss_end__+0x14f705c>
    13a4:	64140000 	ldrvs	r0, [r4], #-0
    13a8:	01000004 	tsteq	r0, r4
    13ac:	24060115 	strcs	r0, [r6], #-277	; 0xfffffeeb
    13b0:	2c00008c 	stccs	0, cr0, [r0], {140}	; 0x8c
    13b4:	01000000 	mrseq	r0, (UNDEF: 0)
    13b8:	0002729c 	muleq	r2, ip, r2
    13bc:	00bb1500 	adcseq	r1, fp, r0, lsl #10
    13c0:	02820000 	addeq	r0, r2, #0, 0
    13c4:	03050000 	movweq	r0, #20480	; 0x5000
    13c8:	0000a7a8 	andeq	sl, r0, r8, lsr #15
    13cc:	008c3c16 	addeq	r3, ip, r6, lsl ip
    13d0:	000cec00 	andeq	lr, ip, r0, lsl #24
    13d4:	00026800 	andeq	r6, r2, r0, lsl #16
    13d8:	50011700 	andpl	r1, r1, r0, lsl #14
    13dc:	a7380305 	ldrge	r0, [r8, -r5, lsl #6]!
    13e0:	01170000 	tsteq	r7, r0
    13e4:	50030551 	andpl	r0, r3, r1, asr r5
    13e8:	170000a4 	strne	r0, [r0, -r4, lsr #1]
    13ec:	03055201 	movweq	r5, #20993	; 0x5201
    13f0:	0000a7a8 	andeq	sl, r0, r8, lsr #15
    13f4:	03530117 	cmpeq	r3, #-1073741819	; 0xc0000005
    13f8:	0001170a 	andeq	r1, r1, sl, lsl #14
    13fc:	008c4018 	addeq	r4, ip, r8, lsl r0
    1400:	000cf800 	andeq	pc, ip, r0, lsl #16
    1404:	cc100000 	ldcgt	0, cr0, [r0], {-0}
    1408:	82000000 	andhi	r0, r0, #0, 0
    140c:	11000002 	tstne	r0, r2
    1410:	0000002c 	andeq	r0, r0, ip, lsr #32
    1414:	7209000e 	andvc	r0, r9, #14, 0
    1418:	19000002 	stmdbne	r0, {r1}
    141c:	000004b3 			; <UNDEFINED> instruction: 0x000004b3
    1420:	0a010b01 	beq	4402c <__bss_end__+0x390cc>
    1424:	0000002c 	andeq	r0, r0, ip, lsr #32
    1428:	00008b24 	andeq	r8, r0, r4, lsr #22
    142c:	00000100 	andeq	r0, r0, r0, lsl #2
    1430:	04159c01 	ldreq	r9, [r5], #-3073	; 0xfffff3ff
    1434:	e61a0000 	ldr	r0, [sl], -r0
    1438:	01000003 	tsteq	r0, r3
    143c:	2c0e010e 	stfcss	f0, [lr], {14}
    1440:	b7000000 	strlt	r0, [r0, -r0]
    1444:	b5000007 	strlt	r0, [r0, #-7]
    1448:	1b000007 	blne	146c <__code_start__-0x6b94>
    144c:	00000415 	andeq	r0, r0, r5, lsl r4
    1450:	00008b30 	andeq	r8, r0, r0, lsr fp
    1454:	00019801 	andeq	r9, r1, r1, lsl #16
    1458:	010e0100 	mrseq	r0, (UNDEF: 30)
    145c:	00040b17 	andeq	r0, r4, r7, lsl fp
    1460:	01981c00 	orrseq	r1, r8, r0, lsl #24
    1464:	261d0000 	ldrcs	r0, [sp], -r0
    1468:	d2000004 	andle	r0, r0, #4, 0
    146c:	ca000007 	bgt	1490 <__code_start__-0x6b70>
    1470:	1d000007 	stcne	0, cr0, [r0, #-28]	; 0xffffffe4
    1474:	00000432 	andeq	r0, r0, r2, lsr r4
    1478:	00000810 	andeq	r0, r0, r0, lsl r8
    147c:	00000808 	andeq	r0, r0, r8, lsl #16
    1480:	00043e1d 	andeq	r3, r4, sp, lsl lr
    1484:	00085000 	andeq	r5, r8, r0
    1488:	00084600 	andeq	r4, r8, r0, lsl #12
    148c:	04591e00 	ldrbeq	r1, [r9], #-3584	; 0xfffff200
    1490:	01b00000 	movseq	r0, r0
    1494:	03ad0000 			; <UNDEFINED> instruction: 0x03ad0000
    1498:	5a1d0000 	bpl	7414a0 <__bss_end__+0x736540>
    149c:	9d000004 	stcls	0, cr0, [r0, #-16]
    14a0:	91000008 	tstls	r0, r8
    14a4:	1b000008 	blne	14cc <__code_start__-0x6b34>
    14a8:	00000adc 	ldrdeq	r0, [r0], -ip
    14ac:	00008bf0 	strdeq	r8, [r0], -r0
    14b0:	0001d002 	andeq	sp, r1, r2
    14b4:	01010100 	mrseq	r0, (UNDEF: 17)
    14b8:	0003510d 	andeq	r5, r3, sp, lsl #2
    14bc:	0b051f00 	bleq	1490c4 <__bss_end__+0x13e164>
    14c0:	08ec0000 	stmiaeq	ip!, {}^	; <UNPREDICTABLE>
    14c4:	08ea0000 	stmiaeq	sl!, {}^	; <UNPREDICTABLE>
    14c8:	f91f0000 			; <UNDEFINED> instruction: 0xf91f0000
    14cc:	0400000a 	streq	r0, [r0], #-10
    14d0:	02000009 	andeq	r0, r0, #9, 0
    14d4:	1f000009 	svcne	0x00000009
    14d8:	00000aed 	andeq	r0, r0, sp, ror #21
    14dc:	0000091e 	andeq	r0, r0, lr, lsl r9
    14e0:	0000091c 	andeq	r0, r0, ip, lsl r9
    14e4:	8b481800 	blhi	12074ec <__bss_end__+0x11fc58c>
    14e8:	0d130000 	ldceq	0, cr0, [r3, #-0]
    14ec:	80160000 	andshi	r0, r6, r0
    14f0:	1f00008b 	svcne	0x0000008b
    14f4:	6e00000d 	cdpvs	0, 0, cr0, cr0, cr13, {0}
    14f8:	17000003 	strne	r0, [r0, -r3]
    14fc:	74025001 	strvc	r5, [r2], #-1
    1500:	d4160000 	ldrle	r0, [r6], #-0
    1504:	2b00008b 	blcs	1738 <__code_start__-0x68c8>
    1508:	8200000d 	andhi	r0, r0, #13, 0
    150c:	17000003 	strne	r0, [r0, -r3]
    1510:	7b025001 	blvc	9551c <__bss_end__+0x8a5bc>
    1514:	e0160000 	ands	r0, r6, r0
    1518:	ec00008b 	stc	0, cr0, [r0], {139}	; 0x8b
    151c:	9c00000c 	stcls	0, cr0, [r0], {12}
    1520:	17000003 	strne	r0, [r0, -r3]
    1524:	78025001 	stmdavc	r2, {r0, ip, lr}
    1528:	51011700 	tstpl	r1, r0, lsl #14
    152c:	00007b02 	andeq	r7, r0, r2, lsl #22
    1530:	008be820 	addeq	lr, fp, r0, lsr #16
    1534:	000d1f00 	andeq	r1, sp, r0, lsl #30
    1538:	50011700 	andpl	r1, r1, r0, lsl #14
    153c:	00007402 	andeq	r7, r0, r2, lsl #8
    1540:	8b381600 	blhi	e06d48 <__bss_end__+0xdfbde8>
    1544:	0cec0000 	stcleq	0, cr0, [ip]
    1548:	03c40000 	biceq	r0, r4, #0, 0
    154c:	01170000 	tsteq	r7, r0
    1550:	e8030550 	stmda	r3, {r4, r6, r8, sl}
    1554:	000000a4 	andeq	r0, r0, r4, lsr #1
    1558:	008b4016 	addeq	r4, fp, r6, lsl r0
    155c:	000cec00 	andeq	lr, ip, r0, lsl #24
    1560:	0003db00 	andeq	sp, r3, r0, lsl #22
    1564:	50011700 	andpl	r1, r1, r0, lsl #14
    1568:	a6e40305 	strbtge	r0, [r4], r5, lsl #6
    156c:	18000000 	stmdane	r0, {}	; <UNPREDICTABLE>
    1570:	00008b44 	andeq	r8, r0, r4, asr #22
    1574:	000007ef 	andeq	r0, r0, pc, ror #15
    1578:	008b9c20 	addeq	r9, fp, r0, lsr #24
    157c:	000cec00 	andeq	lr, ip, r0, lsl #24
    1580:	50011700 	andpl	r1, r1, r0, lsl #14
    1584:	a7040305 	strge	r0, [r4, -r5, lsl #6]
    1588:	01170000 	tsteq	r7, r0
    158c:	00760251 	rsbseq	r0, r6, r1, asr r2
    1590:	02520117 	subseq	r0, r2, #-1073741819	; 0xc0000005
    1594:	01170077 	tsteq	r7, r7, ror r0
    1598:	00750253 	rsbseq	r0, r5, r3, asr r2
    159c:	18000000 	stmdane	r0, {}	; <UNPREDICTABLE>
    15a0:	00008b30 	andeq	r8, r0, r0, lsr fp
    15a4:	000007ef 	andeq	r0, r0, pc, ror #15
    15a8:	056a2100 	strbeq	r2, [sl, #-256]!	; 0xffffff00
    15ac:	f3010000 	vhadd.u8	d0, d1, d0
    15b0:	00002c11 	andeq	r2, r0, r1, lsl ip
    15b4:	04660100 	strbteq	r0, [r6], #-256	; 0xffffff00
    15b8:	81220000 			; <UNDEFINED> instruction: 0x81220000
    15bc:	01000004 	tsteq	r0, r4
    15c0:	002c0ef5 	strdeq	r0, [ip], -r5	; <UNPREDICTABLE>
    15c4:	f6220000 			; <UNDEFINED> instruction: 0xf6220000
    15c8:	01000004 	tsteq	r0, r4
    15cc:	002c1bf5 	strdeq	r1, [ip], -r5	; <UNPREDICTABLE>
    15d0:	90220000 	eorls	r0, r2, r0
    15d4:	01000004 	tsteq	r0, r4
    15d8:	002c27f5 	strdeq	r2, [ip], -r5	; <UNPREDICTABLE>
    15dc:	bb150000 	bllt	5415e4 <__bss_end__+0x536684>
    15e0:	76000000 	strvc	r0, [r0], -r0
    15e4:	05000004 	streq	r0, [r0, #-4]
    15e8:	00a79c03 	adceq	r9, r7, r3, lsl #24
    15ec:	68242300 	stmdavs	r4!, {r8, r9, sp}
    15f0:	11fa0100 	mvnsne	r0, r0, lsl #2
    15f4:	0000047b 	andeq	r0, r0, fp, ror r4
    15f8:	cc100000 	ldcgt	0, cr0, [r0], {-0}
    15fc:	76000000 	strvc	r0, [r0], -r0
    1600:	11000004 	tstne	r0, r4
    1604:	0000002c 	andeq	r0, r0, ip, lsr #32
    1608:	6609000a 	strvs	r0, [r9], -sl
    160c:	08000004 	stmdaeq	r0, {r2}
    1610:	0001d404 	andeq	sp, r1, r4, lsl #8
    1614:	05132500 	ldreq	r2, [r3, #-1280]	; 0xfffffb00
    1618:	e3010000 	movw	r0, #4096	; 0x1000
    161c:	00002c0a 	andeq	r2, r0, sl, lsl #24
    1620:	008ad400 	addeq	sp, sl, r0, lsl #8
    1624:	00005000 	andeq	r5, r0, r0
    1628:	4a9c0100 	bmi	fe701a30 <__bss_end__+0xfe6f6ad0>
    162c:	26000005 	strcs	r0, [r0], -r5
    1630:	000004c3 	andeq	r0, r0, r3, asr #9
    1634:	2c0ee901 			; <UNDEFINED> instruction: 0x2c0ee901
    1638:	3c000000 	stccc	0, cr0, [r0], {-0}
    163c:	36000009 	strcc	r0, [r0], -r9
    1640:	15000009 	strne	r0, [r0, #-9]
    1644:	000000bb 	strheq	r0, [r0], -fp
    1648:	0000055a 	andeq	r0, r0, sl, asr r5
    164c:	a7880305 	strge	r0, [r8, r5, lsl #6]
    1650:	1f270000 	svcne	0x00270000
    1654:	d8000006 	stmdale	r0, {r1, r2}
    1658:	0200008a 	andeq	r0, r0, #138, 0	; 0x8a
    165c:	00008ad8 	ldrdeq	r8, [r0], -r8	; <UNPREDICTABLE>
    1660:	00000008 	andeq	r0, r0, r8
    1664:	f417e901 			; <UNDEFINED> instruction: 0xf417e901
    1668:	1f000004 	svcne	0x00000004
    166c:	00000630 	andeq	r0, r0, r0, lsr r6
    1670:	00000967 	andeq	r0, r0, r7, ror #18
    1674:	00000965 	andeq	r0, r0, r5, ror #18
    1678:	008ae020 	addeq	lr, sl, r0, lsr #32
    167c:	00063d00 	andeq	r3, r6, r0, lsl #26
    1680:	50011700 	andpl	r1, r1, r0, lsl #14
    1684:	00003101 	andeq	r3, r0, r1, lsl #2
    1688:	008af416 	addeq	pc, sl, r6, lsl r4	; <UNPREDICTABLE>
    168c:	000cec00 	andeq	lr, ip, r0, lsl #24
    1690:	00051100 	andeq	r1, r5, r0, lsl #2
    1694:	50011700 	andpl	r1, r1, r0, lsl #14
    1698:	a6c00305 	strbge	r0, [r0], r5, lsl #6
    169c:	01170000 	tsteq	r7, r0
    16a0:	00740251 	rsbseq	r0, r4, r1, asr r2
    16a4:	8b101600 	blhi	406eac <__bss_end__+0x3fbf4c>
    16a8:	0cec0000 	stcleq	0, cr0, [ip]
    16ac:	05400000 	strbeq	r0, [r0, #-0]
    16b0:	01170000 	tsteq	r7, r0
    16b4:	98030550 	stmdals	r3, {r4, r6, r8, sl}
    16b8:	170000a6 	strne	r0, [r0, -r6, lsr #1]
    16bc:	03055101 	movweq	r5, #20737	; 0x5101
    16c0:	0000a450 	andeq	sl, r0, r0, asr r4
    16c4:	05520117 	ldrbeq	r0, [r2, #-279]	; 0xfffffee9
    16c8:	00a78803 	adceq	r8, r7, r3, lsl #16
    16cc:	53011700 	movwpl	r1, #5888	; 0x1700
    16d0:	00eb0802 	rsceq	r0, fp, r2, lsl #16
    16d4:	008b1418 	addeq	r1, fp, r8, lsl r4
    16d8:	000cf800 	andeq	pc, ip, r0, lsl #16
    16dc:	cc100000 	ldcgt	0, cr0, [r0], {-0}
    16e0:	5a000000 	bpl	16e8 <__code_start__-0x6918>
    16e4:	11000005 	tstne	r0, r5
    16e8:	0000002c 	andeq	r0, r0, ip, lsr #32
    16ec:	4a090011 	bmi	241738 <__bss_end__+0x2367d8>
    16f0:	28000005 	stmdacs	r0, {r0, r2}
    16f4:	000004e8 	andeq	r0, r0, r8, ror #9
    16f8:	8c06d501 	cfstr32hi	mvfx13, [r6], {1}
    16fc:	4800008a 	stmdami	r0, {r1, r3, r7}
    1700:	01000000 	mrseq	r0, (UNDEF: 0)
    1704:	00060a9c 	muleq	r6, ip, sl
    1708:	00bb1500 	adcseq	r1, fp, r0, lsl #10
    170c:	061a0000 	ldreq	r0, [sl], -r0
    1710:	03050000 	movweq	r0, #20480	; 0x5000
    1714:	0000a778 	andeq	sl, r0, r8, ror r7
    1718:	00061f27 	andeq	r1, r6, r7, lsr #30
    171c:	008a9000 	addeq	r9, sl, r0
    1720:	8a900200 	bhi	fe401f28 <__bss_end__+0xfe3f6fc8>
    1724:	00080000 	andeq	r0, r8, r0
    1728:	db010000 	blle	41730 <__bss_end__+0x367d0>
    172c:	0005ba09 	andeq	fp, r5, r9, lsl #20
    1730:	06301f00 	ldrteq	r1, [r0], -r0, lsl #30
    1734:	097d0000 	ldmdbeq	sp!, {}^	; <UNPREDICTABLE>
    1738:	097b0000 	ldmdbeq	fp!, {}^	; <UNPREDICTABLE>
    173c:	98200000 	stmdals	r0!, {}	; <UNPREDICTABLE>
    1740:	3d00008a 	stccc	0, cr0, [r0, #-552]	; 0xfffffdd8
    1744:	17000006 	strne	r0, [r0, -r6]
    1748:	31015001 	tstcc	r1, r1
    174c:	a8160000 	ldmdage	r6, {}	; <UNPREDICTABLE>
    1750:	ec00008a 	stc	0, cr0, [r0], {138}	; 0x8a
    1754:	d100000c 	tstle	r0, ip
    1758:	17000005 	strne	r0, [r0, -r5]
    175c:	03055001 	movweq	r5, #20481	; 0x5001
    1760:	0000a678 	andeq	sl, r0, r8, ror r6
    1764:	8ac01600 	bhi	ff006f6c <__bss_end__+0xfeffc00c>
    1768:	0cec0000 	stcleq	0, cr0, [ip]
    176c:	06000000 	streq	r0, [r0], -r0
    1770:	01170000 	tsteq	r7, r0
    1774:	4c030550 	cfstr32mi	mvfx0, [r3], {80}	; 0x50
    1778:	170000a6 	strne	r0, [r0, -r6, lsr #1]
    177c:	03055101 	movweq	r5, #20737	; 0x5101
    1780:	0000a450 	andeq	sl, r0, r0, asr r4
    1784:	05520117 	ldrbeq	r0, [r2, #-279]	; 0xfffffee9
    1788:	00a77803 	adceq	r7, r7, r3, lsl #16
    178c:	53011700 	movwpl	r1, #5888	; 0x1700
    1790:	00dc0802 	sbcseq	r0, ip, r2, lsl #16
    1794:	008ac418 	addeq	ip, sl, r8, lsl r4
    1798:	000cf800 	andeq	pc, ip, r0, lsl #16
    179c:	cc100000 	ldcgt	0, cr0, [r0], {-0}
    17a0:	1a000000 	bne	17a8 <__code_start__-0x6858>
    17a4:	11000006 	tstne	r0, r6
    17a8:	0000002c 	andeq	r0, r0, ip, lsr #32
    17ac:	0a09000d 	beq	2417e8 <__bss_end__+0x236888>
    17b0:	29000006 	stmdbcs	r0, {r1, r2}
    17b4:	0000002d 	andeq	r0, r0, sp, lsr #32
    17b8:	2c0ace01 	stccs	14, cr12, [sl], {1}
    17bc:	01000000 	mrseq	r0, (UNDEF: 0)
    17c0:	0000063d 	andeq	r0, r0, sp, lsr r6
    17c4:	0005752a 	andeq	r7, r5, sl, lsr #10
    17c8:	1cce0100 	stfnee	f0, [lr], {0}
    17cc:	00000025 	andeq	r0, r0, r5, lsr #32
    17d0:	05502b00 	ldrbeq	r2, [r0, #-2816]	; 0xfffff500
    17d4:	a5010000 	strge	r0, [r1, #-0]
    17d8:	00002c11 	andeq	r2, r0, r1, lsl ip
    17dc:	0088cc00 	addeq	ip, r8, r0, lsl #24
    17e0:	00012000 	andeq	r2, r1, r0
    17e4:	ef9c0100 	svc	0x009c0100
    17e8:	2c000007 	stccs	0, cr0, [r0], {7}
    17ec:	00000575 	andeq	r0, r0, r5, ror r5
    17f0:	2520a501 	strcs	sl, [r0, #-1281]!	; 0xfffffaff
    17f4:	95000000 	strls	r0, [r0, #-0]
    17f8:	91000009 	tstls	r0, r9
    17fc:	26000009 	strcs	r0, [r0], -r9
    1800:	00000481 	andeq	r0, r0, r1, lsl #9
    1804:	2c0ea701 	stccs	7, cr10, [lr], {1}
    1808:	bb000000 	bllt	1810 <__code_start__-0x67f0>
    180c:	b3000009 	movwlt	r0, #9
    1810:	26000009 	strcs	r0, [r0], -r9
    1814:	000004ac 	andeq	r0, r0, ip, lsr #9
    1818:	2c1ba701 	ldccs	7, cr10, [fp], {1}
    181c:	f9000000 			; <UNDEFINED> instruction: 0xf9000000
    1820:	f1000009 	cps	#9
    1824:	26000009 	strcs	r0, [r0], -r9
    1828:	000004a6 	andeq	r0, r0, r6, lsr #9
    182c:	2c27a701 	stccs	7, cr10, [r7], #-4
    1830:	37000000 	strcc	r0, [r0, -r0]
    1834:	2f00000a 	svccs	0x0000000a
    1838:	2d00000a 	stccs	0, cr0, [r0, #-40]	; 0xffffffd8
    183c:	00000158 	andeq	r0, r0, r8, asr r1
    1840:	00000730 	andeq	r0, r0, r0, lsr r7
    1844:	0100682e 	tsteq	r0, lr, lsr #16
    1848:	047b11ac 	ldrbteq	r1, [fp], #-428	; 0xfffffe54
    184c:	0a830000 	beq	fe0c1854 <__bss_end__+0xfe0b68f4>
    1850:	0a6d0000 	beq	1b41858 <__bss_end__+0x1b368f8>
    1854:	ec180000 	ldc	0, cr0, [r8], {-0}
    1858:	13000088 	movwne	r0, #136	; 0x88
    185c:	1600000d 	strne	r0, [r0], -sp
    1860:	0000891c 	andeq	r8, r0, ip, lsl r9
    1864:	00000d1f 	andeq	r0, r0, pc, lsl sp
    1868:	000006df 	ldrdeq	r0, [r0], -pc	; <UNPREDICTABLE>
    186c:	02500117 	subseq	r0, r0, #-1073741819	; 0xc0000005
    1870:	16000074 			; <UNDEFINED> instruction: 0x16000074
    1874:	00008944 	andeq	r8, r0, r4, asr #18
    1878:	00000cec 	andeq	r0, r0, ip, ror #25
    187c:	000006ff 	strdeq	r0, [r0], -pc	; <UNPREDICTABLE>
    1880:	02500117 	subseq	r0, r0, #-1073741819	; 0xc0000005
    1884:	01170079 	tsteq	r7, r9, ror r0
    1888:	00750251 	rsbseq	r0, r5, r1, asr r2
    188c:	02520117 	subseq	r0, r2, #-1073741819	; 0xc0000005
    1890:	16000074 			; <UNDEFINED> instruction: 0x16000074
    1894:	0000894c 	andeq	r8, r0, ip, asr #18
    1898:	00000d1f 	andeq	r0, r0, pc, lsl sp
    189c:	00000713 	andeq	r0, r0, r3, lsl r7
    18a0:	02500117 	subseq	r0, r0, #-1073741819	; 0xc0000005
    18a4:	20000074 	andcs	r0, r0, r4, ror r0
    18a8:	000089a8 	andeq	r8, r0, r8, lsr #19
    18ac:	00000cec 	andeq	r0, r0, ip, ror #25
    18b0:	02500117 	subseq	r0, r0, #-1073741819	; 0xc0000005
    18b4:	0117007a 	tsteq	r7, sl, ror r0
    18b8:	00750251 	rsbseq	r0, r5, r1, asr r2
    18bc:	02520117 	subseq	r0, r2, #-1073741819	; 0xc0000005
    18c0:	00000074 	andeq	r0, r0, r4, ror r0
    18c4:	0088dc16 	addeq	sp, r8, r6, lsl ip
    18c8:	000cec00 	andeq	lr, ip, r0, lsl #24
    18cc:	00074700 	andeq	r4, r7, r0, lsl #14
    18d0:	50011700 	andpl	r1, r1, r0, lsl #14
    18d4:	a4e80305 	strbtge	r0, [r8], #773	; 0x305
    18d8:	16000000 	strne	r0, [r0], -r0
    18dc:	000088e4 	andeq	r8, r0, r4, ror #17
    18e0:	00000cec 	andeq	r0, r0, ip, ror #25
    18e4:	0000075e 	andeq	r0, r0, lr, asr r7
    18e8:	05500117 	ldrbeq	r0, [r0, #-279]	; 0xfffffee9
    18ec:	00a52403 	adceq	r2, r5, r3, lsl #8
    18f0:	e8180000 	ldmda	r8, {}	; <UNPREDICTABLE>
    18f4:	ef000088 	svc	0x00000088
    18f8:	16000007 	strne	r0, [r0], -r7
    18fc:	00008964 	andeq	r8, r0, r4, ror #18
    1900:	00000cec 	andeq	r0, r0, ip, ror #25
    1904:	00000784 	andeq	r0, r0, r4, lsl #15
    1908:	05500117 	ldrbeq	r0, [r0, #-279]	; 0xfffffee9
    190c:	00a56803 	adceq	r6, r5, r3, lsl #16
    1910:	51011700 	tstpl	r1, r0, lsl #14
    1914:	00007502 	andeq	r7, r0, r2, lsl #10
    1918:	00897c16 	addeq	r7, r9, r6, lsl ip
    191c:	000cec00 	andeq	lr, ip, r0, lsl #24
    1920:	0007a700 	andeq	sl, r7, r0, lsl #14
    1924:	50011700 	andpl	r1, r1, r0, lsl #14
    1928:	a5b00305 	ldrge	r0, [r0, #773]!	; 0x305
    192c:	01170000 	tsteq	r7, r0
    1930:	00760251 	rsbseq	r0, r6, r1, asr r2
    1934:	02520117 	subseq	r0, r2, #-1073741819	; 0xc0000005
    1938:	16000077 			; <UNDEFINED> instruction: 0x16000077
    193c:	00008984 	andeq	r8, r0, r4, lsl #19
    1940:	00000cec 	andeq	r0, r0, ip, ror #25
    1944:	000007be 			; <UNDEFINED> instruction: 0x000007be
    1948:	05500117 	ldrbeq	r0, [r0, #-279]	; 0xfffffee9
    194c:	00a5e003 	adceq	lr, r5, r3
    1950:	b8160000 	ldmdalt	r6, {}	; <UNPREDICTABLE>
    1954:	ec000089 	stc	0, cr0, [r0], {137}	; 0x89
    1958:	db00000c 	blle	1990 <__code_start__-0x6670>
    195c:	17000007 	strne	r0, [r0, -r7]
    1960:	03055001 	movweq	r5, #20481	; 0x5001
    1964:	0000a568 	andeq	sl, r0, r8, ror #10
    1968:	02510117 	subseq	r0, r1, #-1073741819	; 0xc0000005
    196c:	20000074 	andcs	r0, r0, r4, ror r0
    1970:	000089c8 	andeq	r8, r0, r8, asr #19
    1974:	00000cec 	andeq	r0, r0, ip, ror #25
    1978:	05500117 	ldrbeq	r0, [r0, #-279]	; 0xfffffee9
    197c:	00a58803 	adceq	r8, r5, r3, lsl #16
    1980:	2f000000 	svccs	0x00000000
    1984:	0000045b 	andeq	r0, r0, fp, asr r4
    1988:	280d7901 	stmdacs	sp, {r0, r8, fp, ip, sp, lr}
    198c:	a4000088 	strge	r0, [r0], #-136	; 0xffffff78
    1990:	01000000 	mrseq	r0, (UNDEF: 0)
    1994:	0008f79c 	muleq	r8, ip, r7
    1998:	04be1300 	ldrteq	r1, [lr], #768	; 0x300
    199c:	85010000 	strhi	r0, [r1, #-0]
    19a0:	0008f70e 	andeq	pc, r8, lr, lsl #14
    19a4:	b8910300 	ldmlt	r1, {r8, r9}
    19a8:	0451307f 	ldrbeq	r3, [r1], #-127	; 0xffffff81
    19ac:	96010000 	strls	r0, [r1], -r0
    19b0:	0009070f 	andeq	r0, r9, pc, lsl #14
    19b4:	00000000 	andeq	r0, r0, r0
    19b8:	04730708 	ldrbteq	r0, [r3], #-1800	; 0xfffff8f8
    19bc:	9b010000 	blls	419c4 <__bss_end__+0x36a64>
    19c0:	00007515 	andeq	r7, r0, r5, lsl r5
    19c4:	05250700 	streq	r0, [r5, #-1792]!	; 0xfffff900
    19c8:	9b010000 	blls	419d0 <__bss_end__+0x36a70>
    19cc:	00007524 	andeq	r7, r0, r4, lsr #10
    19d0:	055b0700 	ldrbeq	r0, [fp, #-1792]	; 0xfffff900
    19d4:	9e010000 	cdpls	0, 0, cr0, cr1, cr0, {0}
    19d8:	00007515 	andeq	r7, r0, r5, lsl r5
    19dc:	04d40700 	ldrbeq	r0, [r4], #1792	; 0x700
    19e0:	9e010000 	cdpls	0, 0, cr0, cr1, cr0, {0}
    19e4:	00007525 	andeq	r7, r0, r5, lsr #10
    19e8:	01402d00 	cmpeq	r0, r0, lsl #26
    19ec:	08830000 	stmeq	r3, {}	; <UNPREDICTABLE>
    19f0:	682e0000 	stmdavs	lr!, {}	; <UNPREDICTABLE>
    19f4:	117e0100 	cmnne	lr, r0, lsl #2
    19f8:	0000047b 	andeq	r0, r0, fp, ror r4
    19fc:	00000b08 	andeq	r0, r0, r8, lsl #22
    1a00:	00000b04 	andeq	r0, r0, r4, lsl #22
    1a04:	00883418 	addeq	r3, r8, r8, lsl r4
    1a08:	000d1300 	andeq	r1, sp, r0, lsl #6
    1a0c:	88501800 	ldmdahi	r0, {fp, ip}^
    1a10:	0d1f0000 	ldceq	0, cr0, [pc, #-0]	; 1a18 <__code_start__-0x65e8>
    1a14:	16000000 	strne	r0, [r0], -r0
    1a18:	00008860 	andeq	r8, r0, r0, ror #16
    1a1c:	00000d37 	andeq	r0, r0, r7, lsr sp
    1a20:	00000897 	muleq	r0, r7, r8
    1a24:	02500117 	subseq	r0, r0, #-1073741819	; 0xc0000005
    1a28:	1600007d 			; <UNDEFINED> instruction: 0x1600007d
    1a2c:	0000887c 	andeq	r8, r0, ip, ror r8
    1a30:	0000090d 	andeq	r0, r0, sp, lsl #18
    1a34:	000008b1 			; <UNDEFINED> instruction: 0x000008b1
    1a38:	02500117 	subseq	r0, r0, #-1073741819	; 0xc0000005
    1a3c:	0117007d 	tsteq	r7, sp, ror r0
    1a40:	68910251 	ldmvs	r1, {r0, r4, r6, r9}
    1a44:	888c1600 	stmhi	ip, {r9, sl, ip}
    1a48:	0cec0000 	stcleq	0, cr0, [ip]
    1a4c:	08cf0000 	stmiaeq	pc, {}^	; <UNPREDICTABLE>
    1a50:	01170000 	tsteq	r7, r0
    1a54:	cc030550 	cfstr32gt	mvfx0, [r3], {80}	; 0x50
    1a58:	170000a4 	strne	r0, [r0, -r4, lsr #1]
    1a5c:	40035201 	andmi	r5, r3, r1, lsl #4
    1a60:	16002447 	strne	r2, [r0], -r7, asr #8
    1a64:	00008898 	muleq	r0, r8, r8
    1a68:	0000090d 	andeq	r0, r0, sp, lsl #18
    1a6c:	000008e4 	andeq	r0, r0, r4, ror #17
    1a70:	03510117 	cmpeq	r1, #-1073741819	; 0xc0000005
    1a74:	00244740 	eoreq	r4, r4, r0, asr #14
    1a78:	0088a418 	addeq	sl, r8, r8, lsl r4
    1a7c:	00090d00 	andeq	r0, r9, r0, lsl #26
    1a80:	88b01800 	ldmhi	r0!, {fp, ip}
    1a84:	090d0000 	stmdbeq	sp, {}	; <UNPREDICTABLE>
    1a88:	10000000 	andne	r0, r0, r0
    1a8c:	00000075 	andeq	r0, r0, r5, ror r0
    1a90:	00000907 	andeq	r0, r0, r7, lsl #18
    1a94:	00002c11 	andeq	r2, r0, r1, lsl ip
    1a98:	08000f00 	stmdaeq	r0, {r8, r9, sl, fp}
    1a9c:	00007504 	andeq	r7, r0, r4, lsl #10
    1aa0:	04a13100 	strteq	r3, [r1], #256	; 0x100
    1aa4:	50010000 	andpl	r0, r1, r0
    1aa8:	0970010d 	ldmdbeq	r0!, {r0, r2, r3, r8}^
    1aac:	70320000 	eorsvc	r0, r2, r0
    1ab0:	1c500100 	ldfnee	f0, [r0], {-0}
    1ab4:	00000907 	andeq	r0, r0, r7, lsl #18
    1ab8:	01006532 	tsteq	r0, r2, lsr r5
    1abc:	09072950 	stmdbeq	r7, {r4, r6, r8, fp, sp}
    1ac0:	bb150000 	bllt	541ac8 <__bss_end__+0x536b68>
    1ac4:	80000000 	andhi	r0, r0, r0
    1ac8:	05000009 	streq	r0, [r0, #-9]
    1acc:	00a76803 	adceq	r6, r7, r3, lsl #16
    1ad0:	69242300 	stmdbvs	r4!, {r8, r9, sp}
    1ad4:	14580100 	ldrbne	r0, [r8], #-256	; 0xffffff00
    1ad8:	00000907 	andeq	r0, r0, r7, lsl #18
    1adc:	00622423 	rsbeq	r2, r2, r3, lsr #8
    1ae0:	7b105a01 	blvc	4182ec <__bss_end__+0x40d38c>
    1ae4:	23000004 	movwcs	r0, #4
    1ae8:	70786524 	rsbsvc	r6, r8, r4, lsr #10
    1aec:	165d0100 	ldrbne	r0, [sp], -r0, lsl #2
    1af0:	00000075 	andeq	r0, r0, r5, ror r0
    1af4:	00049d22 	andeq	r9, r4, r2, lsr #26
    1af8:	165e0100 	ldrbne	r0, [lr], -r0, lsl #2
    1afc:	00000062 	andeq	r0, r0, r2, rrx
    1b00:	00000000 	andeq	r0, r0, r0
    1b04:	0000cc10 	andeq	ip, r0, r0, lsl ip
    1b08:	00098000 	andeq	r8, r9, r0
    1b0c:	002c1100 	eoreq	r1, ip, r0, lsl #2
    1b10:	00040000 	andeq	r0, r4, r0
    1b14:	00097009 	andeq	r7, r9, r9
    1b18:	04e12100 	strbteq	r2, [r1], #256	; 0x100
    1b1c:	3c010000 	stccc	0, cr0, [r1], {-0}
    1b20:	00047b0f 	andeq	r7, r4, pc, lsl #22
    1b24:	09ad0100 	stmibeq	sp!, {r8}
    1b28:	872a0000 	strhi	r0, [sl, -r0]!
    1b2c:	0100000a 	tsteq	r0, sl
    1b30:	00751f3c 	rsbseq	r1, r5, ip, lsr pc
    1b34:	70240000 	eorvc	r0, r4, r0
    1b38:	0b3e0100 	bleq	f81f40 <__bss_end__+0xf76fe0>
    1b3c:	000001e0 	andeq	r0, r0, r0, ror #3
    1b40:	04fd2100 	ldrbteq	r2, [sp], #256	; 0x100
    1b44:	2b010000 	blcs	41b4c <__bss_end__+0x36bec>
    1b48:	0000250c 	andeq	r2, r0, ip, lsl #10
    1b4c:	09c90100 	stmibeq	r9, {r8}^
    1b50:	70320000 	eorsvc	r0, r2, r0
    1b54:	1a2b0100 	bne	ac1f5c <__bss_end__+0xab6ffc>
    1b58:	000001e0 	andeq	r0, r0, r0, ror #3
    1b5c:	04372500 	ldrteq	r2, [r7], #-1280	; 0xfffffb00
    1b60:	13010000 	movwne	r0, #4096	; 0x1000
    1b64:	0001e007 	andeq	lr, r1, r7
    1b68:	0089ec00 	addeq	lr, r9, r0, lsl #24
    1b6c:	00009c00 	andeq	r9, r0, r0, lsl #24
    1b70:	dc9c0100 	ldfles	f0, [ip], {0}
    1b74:	2c00000a 	stccs	0, cr0, [r0], {10}
    1b78:	000004ca 	andeq	r0, r0, sl, asr #9
    1b7c:	41111301 	tstmi	r1, r1, lsl #6
    1b80:	36000000 	strcc	r0, [r0], -r0
    1b84:	2600000b 	strcs	r0, [r0], -fp
    1b88:	1300000b 	movwne	r0, #11
    1b8c:	00000489 	andeq	r0, r0, r9, lsl #9
    1b90:	25101501 	ldrcs	r1, [r0, #-1281]	; 0xfffffaff
    1b94:	05000000 	streq	r0, [r0, #-0]
    1b98:	00ab5803 	adceq	r5, fp, r3, lsl #16
    1b9c:	00bb1500 	adcseq	r1, fp, r0, lsl #10
    1ba0:	09800000 	stmibeq	r0, {}	; <UNPREDICTABLE>
    1ba4:	03050000 	movweq	r0, #20480	; 0x5000
    1ba8:	0000a770 	andeq	sl, r0, r0, ror r7
    1bac:	0001802d 	andeq	r8, r1, sp, lsr #32
    1bb0:	000a4e00 	andeq	r4, sl, r0, lsl #28
    1bb4:	05052600 	streq	r2, [r5, #-1536]	; 0xfffffa00
    1bb8:	1c010000 	stcne	0, cr0, [r1], {-0}
    1bbc:	00002c12 	andeq	r2, r0, r2, lsl ip
    1bc0:	000b9b00 	andeq	r9, fp, r0, lsl #22
    1bc4:	000b9900 	andeq	r9, fp, r0, lsl #18
    1bc8:	8a202000 	bhi	809bd0 <__bss_end__+0x7fec70>
    1bcc:	0d430000 	stcleq	0, cr0, [r3, #-0]
    1bd0:	01170000 	tsteq	r7, r0
    1bd4:	40400350 	submi	r0, r0, r0, asr r3
    1bd8:	51011724 	tstpl	r1, r4, lsr #14
    1bdc:	24404003 	strbcs	r4, [r0], #-3
    1be0:	38330000 	ldmdacc	r3!, {}	; <UNPREDICTABLE>
    1be4:	4f00008a 	svcmi	0x0000008a
    1be8:	6300000d 	movwvs	r0, #13
    1bec:	1700000a 	strne	r0, [r0, -sl]
    1bf0:	f3035001 	vhadd.u8	d5, d3, d1
    1bf4:	16005001 	strne	r5, [r0], -r1
    1bf8:	00008a54 	andeq	r8, r0, r4, asr sl
    1bfc:	00000cec 	andeq	r0, r0, ip, ror #25
    1c00:	00000a9b 	muleq	r0, fp, sl
    1c04:	05500117 	ldrbeq	r0, [r0, #-279]	; 0xfffffee9
    1c08:	00a2e803 	adceq	lr, r2, r3, lsl #16
    1c0c:	51011700 	tstpl	r1, r0, lsl #14
    1c10:	a4500305 	ldrbge	r0, [r0], #-773	; 0xfffffcfb
    1c14:	01170000 	tsteq	r7, r0
    1c18:	70030552 	andvc	r0, r3, r2, asr r5
    1c1c:	170000a7 	strne	r0, [r0, -r7, lsr #1]
    1c20:	47015301 	strmi	r5, [r1, -r1, lsl #6]
    1c24:	007d0217 	rsbseq	r0, sp, r7, lsl r2
    1c28:	a61c0305 	ldrge	r0, [ip], -r5, lsl #6
    1c2c:	18000000 	stmdane	r0, {}	; <UNPREDICTABLE>
    1c30:	00008a58 	andeq	r8, r0, r8, asr sl
    1c34:	00000cf8 	strdeq	r0, [r0], -r8
    1c38:	008a6c16 	addeq	r6, sl, r6, lsl ip
    1c3c:	000cec00 	andeq	lr, ip, r0, lsl #24
    1c40:	000ad200 	andeq	sp, sl, r0, lsl #4
    1c44:	50011700 	andpl	r1, r1, r0, lsl #14
    1c48:	a62c0305 	strtge	r0, [ip], -r5, lsl #6
    1c4c:	01170000 	tsteq	r7, r0
    1c50:	50030551 	andpl	r0, r3, r1, asr r5
    1c54:	170000a4 	strne	r0, [r0, -r4, lsr #1]
    1c58:	03055201 	movweq	r5, #20993	; 0x5201
    1c5c:	0000a770 	andeq	sl, r0, r0, ror r7
    1c60:	01530117 	cmpeq	r3, r7, lsl r1
    1c64:	70180049 	andsvc	r0, r8, r9, asr #32
    1c68:	f800008a 			; <UNDEFINED> instruction: 0xf800008a
    1c6c:	0000000c 	andeq	r0, r0, ip
    1c70:	00009c21 	andeq	r9, r0, r1, lsr #24
    1c74:	0b0c0200 	bleq	30247c <__bss_end__+0x2f751c>
    1c78:	00000114 	andeq	r0, r0, r4, lsl r1
    1c7c:	000b1203 	andeq	r1, fp, r3, lsl #4
    1c80:	00a72a00 	adceq	r2, r7, r0, lsl #20
    1c84:	0c020000 	stceq	0, cr0, [r2], {-0}
    1c88:	0000bf22 	andeq	fp, r0, r2, lsr #30
    1c8c:	00b62a00 	adcseq	r2, r6, r0, lsl #20
    1c90:	0c020000 	stceq	0, cr0, [r2], {-0}
    1c94:	0000bf34 	andeq	fp, r0, r4, lsr pc
    1c98:	00262a00 	eoreq	r2, r6, r0, lsl #20
    1c9c:	0c020000 	stceq	0, cr0, [r2], {-0}
    1ca0:	00002c43 	andeq	r2, r0, r3, asr #24
    1ca4:	0d340000 	ldceq	0, cr0, [r4, #-0]
    1ca8:	cc000009 	stcgt	0, cr0, [r0], {9}
    1cac:	5c000086 	stcpl	0, cr0, [r0], {134}	; 0x86
    1cb0:	01000001 	tsteq	r0, r1
    1cb4:	000cba9c 	muleq	ip, ip, sl
    1cb8:	091a1f00 	ldmdbeq	sl, {r8, r9, sl, fp, ip}
    1cbc:	0bb90000 	bleq	fee41cc4 <__bss_end__+0xfee36d64>
    1cc0:	0bb10000 	bleq	fec41cc8 <__bss_end__+0xfec36d68>
    1cc4:	241f0000 	ldrcs	r0, [pc], #-0	; 1ccc <__code_start__-0x6334>
    1cc8:	fb000009 	blx	1cf6 <__code_start__-0x630a>
    1ccc:	f300000b 	vhadd.u8	d0, d0, d11
    1cd0:	3500000b 	strcc	r0, [r0, #-11]
    1cd4:	0000090d 	andeq	r0, r0, sp, lsl #18
    1cd8:	00000088 	andeq	r0, r0, r8, lsl #1
    1cdc:	870d5001 	strhi	r5, [sp, -r1]
    1ce0:	3600000c 	strcc	r0, [r0], -ip
    1ce4:	00000924 	andeq	r0, r0, r4, lsr #18
    1ce8:	00091a36 	andeq	r1, r9, r6, lsr sl
    1cec:	00881c00 	addeq	r1, r8, r0, lsl #24
    1cf0:	3d370000 	ldccc	0, cr0, [r7, #-0]
    1cf4:	88000009 	stmdahi	r0, {r0, r3}
    1cf8:	1d000000 	stcne	0, cr0, [r0, #-0]
    1cfc:	0000093e 	andeq	r0, r0, lr, lsr r9
    1d00:	00000c43 	andeq	r0, r0, r3, asr #24
    1d04:	00000c35 	andeq	r0, r0, r5, lsr ip
    1d08:	00094837 	andeq	r4, r9, r7, lsr r8
    1d0c:	0000a000 	andeq	sl, r0, r0
    1d10:	09491d00 	stmdbeq	r9, {r8, sl, fp, ip}^
    1d14:	0ca00000 	stceq	0, cr0, [r0]
    1d18:	0c980000 	ldceq	0, cr0, [r8], {0}
    1d1c:	531e0000 	tstpl	lr, #0, 0
    1d20:	c0000009 	andgt	r0, r0, r9
    1d24:	25000000 	strcs	r0, [r0, #-0]
    1d28:	1d00000c 	stcne	0, cr0, [r0, #-48]	; 0xffffffd0
    1d2c:	00000954 	andeq	r0, r0, r4, asr r9
    1d30:	00000cd8 	ldrdeq	r0, [r0], -r8
    1d34:	00000cd4 	ldrdeq	r0, [r0], -r4
    1d38:	0009601d 	andeq	r6, r9, sp, lsl r0
    1d3c:	000cfa00 	andeq	pc, ip, r0, lsl #20
    1d40:	000cf600 	andeq	pc, ip, r0, lsl #12
    1d44:	87501600 	ldrbhi	r1, [r0, -r0, lsl #12]
    1d48:	0d5b0000 	ldcleq	0, cr0, [fp, #-0]
    1d4c:	0bc50000 	bleq	ff141d54 <__bss_end__+0xff136df4>
    1d50:	01170000 	tsteq	r7, r0
    1d54:	00760250 	rsbseq	r0, r6, r0, asr r2
    1d58:	876c1600 	strbhi	r1, [ip, -r0, lsl #12]!
    1d5c:	0cec0000 	stcleq	0, cr0, [ip]
    1d60:	0be60000 	bleq	ff981d68 <__bss_end__+0xff976e08>
    1d64:	01170000 	tsteq	r7, r0
    1d68:	007a0250 	rsbseq	r0, sl, r0, asr r2
    1d6c:	02520117 	subseq	r0, r2, #-1073741819	; 0xc0000005
    1d70:	02170078 	andseq	r0, r7, #120, 0	; 0x78
    1d74:	7b02007d 	blvc	81f70 <__bss_end__+0x77010>
    1d78:	94160000 	ldrls	r0, [r6], #-0
    1d7c:	ec000087 	stc	0, cr0, [r0], {135}	; 0x87
    1d80:	fd00000c 	stc2	0, cr0, [r0, #-48]	; 0xffffffd0
    1d84:	1700000b 	strne	r0, [r0, -fp]
    1d88:	03055001 	movweq	r5, #20481	; 0x5001
    1d8c:	0000a4ac 	andeq	sl, r0, ip, lsr #9
    1d90:	87b41600 	ldrhi	r1, [r4, r0, lsl #12]!
    1d94:	0cec0000 	stcleq	0, cr0, [ip]
    1d98:	0c140000 	ldceq	0, cr0, [r4], {-0}
    1d9c:	01170000 	tsteq	r7, r0
    1da0:	bc030550 	cfstr32lt	mvfx0, [r3], {80}	; 0x50
    1da4:	000000a4 	andeq	r0, r0, r4, lsr #1
    1da8:	0087d420 	addeq	sp, r7, r0, lsr #8
    1dac:	00090d00 	andeq	r0, r9, r0, lsl #26
    1db0:	50011700 	andpl	r1, r1, r0, lsl #14
    1db4:	00047602 	andeq	r7, r4, r2, lsl #12
    1db8:	09853800 	stmibeq	r5, {fp, ip, sp}
    1dbc:	872c0000 	strhi	r0, [ip, -r0]!
    1dc0:	e8010000 	stmda	r1, {}	; <UNPREDICTABLE>
    1dc4:	01000000 	mrseq	r0, (UNDEF: 0)
    1dc8:	961f145a 			; <UNDEFINED> instruction: 0x961f145a
    1dcc:	1a000009 	bne	1df8 <__code_start__-0x6208>
    1dd0:	1800000d 	stmdane	r0, {r0, r2, r3}
    1dd4:	1c00000d 	stcne	0, cr0, [r0], {13}
    1dd8:	00000100 	andeq	r0, r0, r0, lsl #2
    1ddc:	0009a21d 	andeq	sl, r9, sp, lsl r2
    1de0:	000d2f00 	andeq	r2, sp, r0, lsl #30
    1de4:	000d2d00 	andeq	r2, sp, r0, lsl #26
    1de8:	09ad3900 	stmibeq	sp!, {r8, fp, ip, sp}
    1dec:	872c0000 	strhi	r0, [ip, -r0]!
    1df0:	20040000 	andcs	r0, r4, r0
    1df4:	01000001 	tsteq	r0, r1
    1df8:	0c780a40 			; <UNDEFINED> instruction: 0x0c780a40
    1dfc:	be1f0000 	cdplt	0, 1, cr0, cr15, cr0, {0}
    1e00:	44000009 	strmi	r0, [r0], #-9
    1e04:	4200000d 	andmi	r0, r0, #13, 0
    1e08:	0000000d 	andeq	r0, r0, sp
    1e0c:	00874018 	addeq	r4, r7, r8, lsl r0
    1e10:	000d6700 	andeq	r6, sp, r0, lsl #14
    1e14:	00000000 	andeq	r0, r0, r0
    1e18:	16000000 	strne	r0, [r0], -r0
    1e1c:	000087fc 	strdeq	r8, [r0], -ip
    1e20:	00000cec 	andeq	r0, r0, ip, ror #25
    1e24:	00000cb0 			; <UNDEFINED> instruction: 0x00000cb0
    1e28:	05500117 	ldrbeq	r0, [r0, #-279]	; 0xfffffee9
    1e2c:	00a2e803 	adceq	lr, r2, r3, lsl #16
    1e30:	51011700 	tstpl	r1, r0, lsl #14
    1e34:	a4500305 	ldrbge	r0, [r0], #-773	; 0xfffffcfb
    1e38:	01170000 	tsteq	r7, r0
    1e3c:	68030552 	stmdavs	r3, {r1, r4, r6, r8, sl}
    1e40:	000000a7 	andeq	r0, r0, r7, lsr #1
    1e44:	00880018 	addeq	r0, r8, r8, lsl r0
    1e48:	000cf800 	andeq	pc, ip, r0, lsl #16
    1e4c:	1f340000 	svcne	0x00340000
    1e50:	88000006 	stmdahi	r0, {r1, r2}
    1e54:	0400008a 	streq	r0, [r0], #-138	; 0xffffff76
    1e58:	01000000 	mrseq	r0, (UNDEF: 0)
    1e5c:	000cec9c 	muleq	ip, ip, ip
    1e60:	06301f00 	ldrteq	r1, [r0], -r0, lsl #30
    1e64:	0d5b0000 	ldcleq	0, cr0, [fp, #-0]
    1e68:	0d570000 	ldcleq	0, cr0, [r7, #-0]
    1e6c:	8c3a0000 	ldchi	0, cr0, [sl], #-0
    1e70:	3d00008a 	stccc	0, cr0, [r0, #-552]	; 0xfffffdd8
    1e74:	17000006 	strne	r0, [r0, -r6]
    1e78:	f3035001 	vhadd.u8	d5, d3, d1
    1e7c:	00005001 	andeq	r5, r0, r1
    1e80:	0005ca3b 	andeq	ip, r5, fp, lsr sl
    1e84:	0005ca00 	andeq	ip, r5, r0, lsl #20
    1e88:	06280400 	strteq	r0, [r8], -r0, lsl #8
    1e8c:	0000753b 	andeq	r7, r0, fp, lsr r5
    1e90:	00007500 	andeq	r7, r0, r0, lsl #10
    1e94:	066e0400 	strbteq	r0, [lr], -r0, lsl #8
    1e98:	0b9e0d3c 	bleq	fe785390 <__bss_end__+0xfe77a430>
    1e9c:	65657773 	strbvs	r7, [r5, #-1907]!	; 0xfffff88d
    1ea0:	72665f70 	rsbvc	r5, r6, #112, 30	; 0x1c0
    1ea4:	3b006565 	blcc	1b440 <__bss_end__+0x104e0>
    1ea8:	00000289 	andeq	r0, r0, r9, lsl #5
    1eac:	00000289 	andeq	r0, r0, r9, lsl #5
    1eb0:	3b082805 	blcc	20becc <__bss_end__+0x200f6c>
    1eb4:	000002bf 			; <UNDEFINED> instruction: 0x000002bf
    1eb8:	000002bf 			; <UNDEFINED> instruction: 0x000002bf
    1ebc:	3b082b05 	blcc	20cad8 <__bss_end__+0x201b78>
    1ec0:	00000208 	andeq	r0, r0, r8, lsl #4
    1ec4:	00000208 	andeq	r0, r0, r8, lsl #4
    1ec8:	3b074a05 	blcc	1d46e4 <__bss_end__+0x1c9784>
    1ecc:	000004b9 			; <UNDEFINED> instruction: 0x000004b9
    1ed0:	000004b9 			; <UNDEFINED> instruction: 0x000004b9
    1ed4:	3b067601 	blcc	19f6e0 <__bss_end__+0x194780>
    1ed8:	00000539 	andeq	r0, r0, r9, lsr r5
    1edc:	00000539 	andeq	r0, r0, r9, lsr r5
    1ee0:	3b068204 	blcc	1a26f8 <__bss_end__+0x197798>
    1ee4:	00000531 	andeq	r0, r0, r1, lsr r5
    1ee8:	00000531 	andeq	r0, r0, r1, lsr r5
    1eec:	3b077b04 	blcc	1e0b04 <__bss_end__+0x1d5ba4>
    1ef0:	000003c6 	andeq	r0, r0, r6, asr #7
    1ef4:	000003c6 	andeq	r0, r0, r6, asr #7
    1ef8:	3b073205 	blcc	1ce714 <__bss_end__+0x1c37b4>
    1efc:	000002ad 	andeq	r0, r0, sp, lsr #5
    1f00:	000002ad 	andeq	r0, r0, sp, lsr #5
    1f04:	00084505 	andeq	r4, r8, r5, lsl #10
    1f08:	00000140 	andeq	r0, r0, r0, asr #2
    1f0c:	0a3b0004 	beq	ec1f24 <__bss_end__+0xeb6fc4>
    1f10:	01040000 	mrseq	r0, (UNDEF: 4)
    1f14:	000000fe 	strdeq	r0, [r0], -lr
    1f18:	0005900c 	andeq	r9, r5, ip
    1f1c:	0005a000 	andeq	sl, r5, r0
    1f20:	008c5800 	addeq	r5, ip, r0, lsl #16
    1f24:	00007800 	andeq	r7, r0, r0, lsl #16
    1f28:	000dca00 	andeq	ip, sp, r0, lsl #20
    1f2c:	05040200 	streq	r0, [r4, #-512]	; 0xfffffe00
    1f30:	00746e69 	rsbseq	r6, r4, r9, ror #28
    1f34:	00058903 	andeq	r8, r5, r3, lsl #18
    1f38:	17d10300 	ldrbne	r0, [r1, r0, lsl #6]
    1f3c:	00000038 	andeq	r0, r0, r8, lsr r0
    1f40:	5a070404 	bpl	1c2f58 <__bss_end__+0x1b7ff8>
    1f44:	04000000 	streq	r0, [r0], #-0
    1f48:	00690601 	rsbeq	r0, r9, r1, lsl #12
    1f4c:	02040000 	andeq	r0, r4, #0, 0
    1f50:	00020f05 	andeq	r0, r2, r5, lsl #30
    1f54:	05040400 	streq	r0, [r4, #-1024]	; 0xfffffc00
    1f58:	000001cd 	andeq	r0, r0, sp, asr #3
    1f5c:	c8050804 	stmdagt	r5, {r2, fp}
    1f60:	04000001 	streq	r0, [r0], #-1
    1f64:	00670801 	rsbeq	r0, r7, r1, lsl #16
    1f68:	02040000 	andeq	r0, r4, #0, 0
    1f6c:	00008207 	andeq	r8, r0, r7, lsl #4
    1f70:	07040400 	streq	r0, [r4, -r0, lsl #8]
    1f74:	00000055 	andeq	r0, r0, r5, asr r0
    1f78:	50070804 	andpl	r0, r7, r4, lsl #16
    1f7c:	05000000 	streq	r0, [r0, #-0]
    1f80:	00000025 	andeq	r0, r0, r5, lsr #32
    1f84:	00000086 	andeq	r0, r0, r6, lsl #1
    1f88:	00002506 	andeq	r2, r0, r6, lsl #10
    1f8c:	35070000 	strcc	r0, [r7, #-0]
    1f90:	02000002 	andeq	r0, r0, #2, 0
    1f94:	00920e1c 	addseq	r0, r2, ip, lsl lr
    1f98:	04080000 	streq	r0, [r8], #-0
    1f9c:	00000077 	andeq	r0, r0, r7, ror r0
    1fa0:	00002505 	andeq	r2, r0, r5, lsl #10
    1fa4:	0000a700 	andeq	sl, r0, r0, lsl #14
    1fa8:	00a70600 	adceq	r0, r7, r0, lsl #12
    1fac:	08000000 	stmdaeq	r0, {}	; <UNPREDICTABLE>
    1fb0:	0000b404 	andeq	fp, r0, r4, lsl #8
    1fb4:	08010400 	stmdaeq	r1, {sl}
    1fb8:	00000070 	andeq	r0, r0, r0, ror r0
    1fbc:	0000ad09 	andeq	sl, r0, r9, lsl #26
    1fc0:	06080700 	streq	r0, [r8], -r0, lsl #14
    1fc4:	21020000 	mrscs	r0, (UNDEF: 2)
    1fc8:	0000c50e 	andeq	ip, r0, lr, lsl #10
    1fcc:	98040800 	stmdals	r4, {fp}
    1fd0:	0a000000 	beq	1fd8 <__code_start__-0x6028>
    1fd4:	000000c8 	andeq	r0, r0, r8, asr #1
    1fd8:	3b070401 	blcc	1c2fe4 <__bss_end__+0x1b8084>
    1fdc:	58000001 	stmdapl	r0, {r0}
    1fe0:	7800008c 	stmdavc	r0, {r2, r3, r7}
    1fe4:	01000000 	mrseq	r0, (UNDEF: 0)
    1fe8:	00013b9c 	muleq	r1, ip, fp
    1fec:	705f0b00 	subsvc	r0, pc, r0, lsl #22
    1ff0:	14040100 	strne	r0, [r4], #-256	; 0xffffff00
    1ff4:	0000013b 	andeq	r0, r0, fp, lsr r1
    1ff8:	630c5001 	movwvs	r5, #49153	; 0xc001
    1ffc:	1c040100 	stfnes	f0, [r4], {-0}
    2000:	00000025 	andeq	r0, r0, r5, lsr #32
    2004:	00000d80 	andeq	r0, r0, r0, lsl #27
    2008:	00000d7c 	andeq	r0, r0, ip, ror sp
    200c:	01006e0c 	tsteq	r0, ip, lsl #28
    2010:	002c2604 	eoreq	r2, ip, r4, lsl #12
    2014:	0da50000 	stceq	0, cr0, [r5]
    2018:	0da10000 	stceq	0, cr0, [r1]
    201c:	700d0000 	andvc	r0, sp, r0
    2020:	0b050100 	bleq	142428 <__bss_end__+0x1374c8>
    2024:	0000013d 	andeq	r0, r0, sp, lsr r1
    2028:	00000dd4 	ldrdeq	r0, [r0], -r4
    202c:	00000dc6 	andeq	r0, r0, r6, asr #27
    2030:	0100650d 	tsteq	r0, sp, lsl #10
    2034:	013d1405 	teqeq	sp, r5, lsl #8
    2038:	0e310000 	cdpeq	0, 3, cr0, cr1, cr0, {0}
    203c:	0e2f0000 	cdpeq	0, 2, cr0, cr15, cr0, {0}
    2040:	0e000000 	cdpeq	0, 0, cr0, cr0, cr0, {0}
    2044:	ad040804 	stcge	8, cr0, [r4, #-16]
    2048:	00000000 	andeq	r0, r0, r0
    204c:	0000019d 	muleq	r0, sp, r1
    2050:	0b070004 	bleq	1c2068 <__bss_end__+0x1b7108>
    2054:	01040000 	mrseq	r0, (UNDEF: 4)
    2058:	000000fe 	strdeq	r0, [r0], -lr
    205c:	0005e50c 	andeq	lr, r5, ip, lsl #10
    2060:	0005a000 	andeq	sl, r5, r0
    2064:	008cd000 	addeq	sp, ip, r0
    2068:	00005800 	andeq	r5, r0, r0, lsl #16
    206c:	000eef00 	andeq	lr, lr, r0, lsl #30
    2070:	05d10200 	ldrbeq	r0, [r1, #512]	; 0x200
    2074:	28020000 	stmdacs	r2, {}	; <UNPREDICTABLE>
    2078:	0000311b 	andeq	r3, r0, fp, lsl r1
    207c:	05f50300 	ldrbeq	r0, [r5, #768]!	; 0x300
    2080:	04040000 	streq	r0, [r4], #-0
    2084:	00004800 	andeq	r4, r0, r0, lsl #16
    2088:	05e00400 	strbeq	r0, [r0, #1024]!	; 0x400
    208c:	00480000 	subeq	r0, r8, r0
    2090:	00000000 	andeq	r0, r0, r0
    2094:	f7020405 			; <UNDEFINED> instruction: 0xf7020405
    2098:	02000005 	andeq	r0, r0, #5, 0
    209c:	00251863 	eoreq	r1, r5, r3, ror #16
    20a0:	04060000 	streq	r0, [r6], #-0
    20a4:	746e6905 	strbtvc	r6, [lr], #-2309	; 0xfffff6fb
    20a8:	07040700 	streq	r0, [r4, -r0, lsl #14]
    20ac:	0000005a 	andeq	r0, r0, sl, asr r0
    20b0:	69060107 	stmdbvs	r6, {r0, r1, r2, r8}
    20b4:	07000000 	streq	r0, [r0, -r0]
    20b8:	020f0502 	andeq	r0, pc, #8388608	; 0x800000
    20bc:	04070000 	streq	r0, [r7], #-0
    20c0:	0001cd05 	andeq	ip, r1, r5, lsl #26
    20c4:	05080700 	streq	r0, [r8, #-1792]	; 0xfffff900
    20c8:	000001c8 	andeq	r0, r0, r8, asr #3
    20cc:	67080107 	strvs	r0, [r8, -r7, lsl #2]
    20d0:	07000000 	streq	r0, [r0, -r0]
    20d4:	00820702 	addeq	r0, r2, r2, lsl #14
    20d8:	04070000 	streq	r0, [r7], #-0
    20dc:	00005507 	andeq	r5, r0, r7, lsl #10
    20e0:	07080700 	streq	r0, [r8, -r0, lsl #14]
    20e4:	00000050 	andeq	r0, r0, r0, asr r0
    20e8:	00005608 	andeq	r5, r0, r8, lsl #12
    20ec:	0000ab00 	andeq	sl, r0, r0, lsl #22
    20f0:	00560900 	subseq	r0, r6, r0, lsl #18
    20f4:	0a000000 	beq	20fc <__code_start__-0x5f04>
    20f8:	00000235 	andeq	r0, r0, r5, lsr r2
    20fc:	b70e1c03 	strlt	r1, [lr, -r3, lsl #24]
    2100:	0b000000 	bleq	2108 <__code_start__-0x5ef8>
    2104:	00009c04 	andeq	r9, r0, r4, lsl #24
    2108:	00560800 	subseq	r0, r6, r0, lsl #16
    210c:	00cc0000 	sbceq	r0, ip, r0
    2110:	cc090000 	stcgt	0, cr0, [r9], {-0}
    2114:	00000000 	andeq	r0, r0, r0
    2118:	00d9040b 	sbcseq	r0, r9, fp, lsl #8
    211c:	01070000 	mrseq	r0, (UNDEF: 7)
    2120:	00007008 	andeq	r7, r0, r8
    2124:	00d20c00 	sbcseq	r0, r2, r0, lsl #24
    2128:	080a0000 	stmdaeq	sl, {}	; <UNPREDICTABLE>
    212c:	03000006 	movweq	r0, #6
    2130:	00ea0e21 	rsceq	r0, sl, r1, lsr #28
    2134:	040b0000 	streq	r0, [fp], #-0
    2138:	000000bd 	strheq	r0, [r0], -sp
    213c:	0005ca0d 	andeq	ip, r5, sp, lsl #20
    2140:	05060100 	streq	r0, [r6, #-256]	; 0xffffff00
    2144:	00000056 	andeq	r0, r0, r6, asr r0
    2148:	00008cd0 	ldrdeq	r8, [r0], -r0
    214c:	00000058 	andeq	r0, r0, r8, asr r0
    2150:	01839c01 	orreq	r9, r3, r1, lsl #24
    2154:	660e0000 	strvs	r0, [lr], -r0
    2158:	0100746d 	tsteq	r0, sp, ror #8
    215c:	00cc1806 	sbceq	r1, ip, r6, lsl #16
    2160:	91020000 	mrsls	r0, (UNDEF: 2)
    2164:	62100f70 	andsvs	r0, r0, #112, 30	; 0x1c0
    2168:	01006675 	tsteq	r0, r5, ror r6
    216c:	01831108 	orreq	r1, r3, r8, lsl #2
    2170:	03050000 	movweq	r0, #20480	; 0x5000
    2174:	0000ab5c 	andeq	sl, r0, ip, asr fp
    2178:	0005c211 	andeq	ip, r5, r1, lsl r2
    217c:	0d090100 	stfeqs	f0, [r9, #-0]
    2180:	0000004a 	andeq	r0, r0, sl, asr #32
    2184:	125c9102 	subsne	r9, ip, #-2147483648	; 0x80000000
    2188:	01007a73 	tsteq	r0, r3, ror sl
    218c:	00560d0c 	subseq	r0, r6, ip, lsl #26
    2190:	0e4a0000 	cdpeq	0, 4, cr0, cr10, cr0, {0}
    2194:	0e440000 	cdpeq	0, 4, cr0, cr4, cr0, {0}
    2198:	f8130000 			; <UNDEFINED> instruction: 0xf8130000
    219c:	9400008c 	strls	r0, [r0], #-140	; 0xffffff74
    21a0:	76000001 	strvc	r0, [r0], -r1
    21a4:	14000001 	strne	r0, [r0], #-1
    21a8:	75025001 	strvc	r5, [r2, #-1]
    21ac:	51011400 	tstpl	r1, r0, lsl #8
    21b0:	04000a03 	streq	r0, [r0], #-2563	; 0xfffff5fd
    21b4:	03520114 	cmpeq	r2, #5
    21b8:	14064891 	strne	r4, [r6], #-2193	; 0xfffff76f
    21bc:	91025301 	tstls	r2, r1, lsl #6
    21c0:	0c15004c 	ldceq	0, cr0, [r5], {76}	; 0x4c
    21c4:	1400008d 	strne	r0, [r0], #-141	; 0xffffff73
    21c8:	75025001 	strvc	r5, [r2, #-1]
    21cc:	16000000 	strne	r0, [r0], -r0
    21d0:	000000d2 	ldrdeq	r0, [r0], -r2
    21d4:	00000194 	muleq	r0, r4, r1
    21d8:	00005d17 	andeq	r5, r0, r7, lsl sp
    21dc:	0003ff00 	andeq	pc, r3, r0, lsl #30
    21e0:	0005c718 	andeq	ip, r5, r8, lsl r7
    21e4:	0005c700 	andeq	ip, r5, r0, lsl #14
    21e8:	05020500 	streq	r0, [r2, #-1280]	; 0xfffffb00
    21ec:	0000f300 	andeq	pc, r0, r0, lsl #6
    21f0:	49000400 	stmdbmi	r0, {sl}
    21f4:	0400000c 	streq	r0, [r0], #-12
    21f8:	0000fe01 	andeq	pc, r0, r1, lsl #28
    21fc:	060d0c00 	streq	r0, [sp], -r0, lsl #24
    2200:	05a00000 	streq	r0, [r0, #0]!
    2204:	8d280000 	stchi	0, cr0, [r8, #-0]
    2208:	00380000 	eorseq	r0, r8, r0
    220c:	10130000 	andsne	r0, r3, r0
    2210:	04020000 	streq	r0, [r2], #-0
    2214:	746e6905 	strbtvc	r6, [lr], #-2309	; 0xfffff6fb
    2218:	07040300 	streq	r0, [r4, -r0, lsl #6]
    221c:	0000005a 	andeq	r0, r0, sl, asr r0
    2220:	69060103 	stmdbvs	r6, {r0, r1, r8}
    2224:	03000000 	movweq	r0, #0
    2228:	020f0502 	andeq	r0, pc, #8388608	; 0x800000
    222c:	04030000 	streq	r0, [r3], #-0
    2230:	0001cd05 	andeq	ip, r1, r5, lsl #26
    2234:	05080300 	streq	r0, [r8, #-768]	; 0xfffffd00
    2238:	000001c8 	andeq	r0, r0, r8, asr #3
    223c:	67080103 	strvs	r0, [r8, -r3, lsl #2]
    2240:	03000000 	movweq	r0, #0
    2244:	00820702 	addeq	r0, r2, r2, lsl #14
    2248:	04030000 	streq	r0, [r3], #-0
    224c:	00005507 	andeq	r5, r0, r7, lsl #10
    2250:	07080300 	streq	r0, [r8, -r0, lsl #6]
    2254:	00000050 	andeq	r0, r0, r0, asr r0
    2258:	00002504 	andeq	r2, r0, r4, lsl #10
    225c:	00007a00 	andeq	r7, r0, r0, lsl #20
    2260:	00250500 	eoreq	r0, r5, r0, lsl #10
    2264:	06000000 	streq	r0, [r0], -r0
    2268:	00000235 	andeq	r0, r0, r5, lsr r2
    226c:	860e1c02 	strhi	r1, [lr], -r2, lsl #24
    2270:	07000000 	streq	r0, [r0, -r0]
    2274:	00006b04 	andeq	r6, r0, r4, lsl #22
    2278:	00250400 	eoreq	r0, r5, r0, lsl #8
    227c:	009b0000 	addseq	r0, fp, r0
    2280:	9b050000 	blls	142288 <__bss_end__+0x137328>
    2284:	00000000 	andeq	r0, r0, r0
    2288:	00a80407 	adceq	r0, r8, r7, lsl #8
    228c:	01030000 	mrseq	r0, (UNDEF: 3)
    2290:	00007008 	andeq	r7, r0, r8
    2294:	00a10800 	adceq	r0, r1, r0, lsl #16
    2298:	08060000 	stmdaeq	r6, {}	; <UNPREDICTABLE>
    229c:	02000006 	andeq	r0, r0, #6, 0
    22a0:	00b90e21 	adcseq	r0, r9, r1, lsr #28
    22a4:	04070000 	streq	r0, [r7], #-0
    22a8:	0000008c 	andeq	r0, r0, ip, lsl #1
    22ac:	0000ad09 	andeq	sl, r0, r9, lsl #26
    22b0:	070c0100 	streq	r0, [ip, -r0, lsl #2]
    22b4:	ab240305 	blge	902ed0 <__bss_end__+0x8f7f70>
    22b8:	ff0a0000 			; <UNDEFINED> instruction: 0xff0a0000
    22bc:	01000005 	tsteq	r0, r5
    22c0:	00250504 	eoreq	r0, r5, r4, lsl #10
    22c4:	8d280000 	stchi	0, cr0, [r8, #-0]
    22c8:	00380000 	eorseq	r0, r8, r0
    22cc:	9c010000 	stcls	0, cr0, [r1], {-0}
    22d0:	0100700b 	tsteq	r0, fp
    22d4:	009b1f04 	addseq	r1, fp, r4, lsl #30
    22d8:	0e7b0000 	cdpeq	0, 7, cr0, cr11, cr0, {0}
    22dc:	0e730000 	cdpeq	0, 7, cr0, cr3, cr0, {0}
    22e0:	00000000 	andeq	r0, r0, r0
    22e4:	00000c7f 	andeq	r0, r0, pc, ror ip
    22e8:	0ce70004 	stcleq	0, cr0, [r7], #16
    22ec:	01040000 	mrseq	r0, (UNDEF: 4)
    22f0:	000000fe 	strdeq	r0, [r0], -lr
    22f4:	00062c0c 	andeq	r2, r6, ip, lsl #24
    22f8:	0005a000 	andeq	sl, r5, r0
    22fc:	008d6000 	addeq	r6, sp, r0
    2300:	0009b400 	andeq	fp, r9, r0, lsl #8
    2304:	0010b700 	andseq	fp, r0, r0, lsl #14
    2308:	07080200 	streq	r0, [r8, -r0, lsl #4]
    230c:	00000050 	andeq	r0, r0, r0, asr r0
    2310:	5a070402 	bpl	1c3320 <__bss_end__+0x1b83c0>
    2314:	03000000 	movweq	r0, #0
    2318:	6e690504 	cdpvs	5, 6, cr0, cr9, cr4, {0}
    231c:	01020074 	tsteq	r2, r4, ror r0
    2320:	00006906 	andeq	r6, r0, r6, lsl #18
    2324:	05020200 	streq	r0, [r2, #-512]	; 0xfffffe00
    2328:	0000020f 	andeq	r0, r0, pc, lsl #4
    232c:	cd050402 	cfstrsgt	mvf0, [r5, #-8]
    2330:	02000001 	andeq	r0, r0, #1, 0
    2334:	01c80508 	biceq	r0, r8, r8, lsl #10
    2338:	01020000 	mrseq	r0, (UNDEF: 2)
    233c:	00006708 	andeq	r6, r0, r8, lsl #14
    2340:	07020200 	streq	r0, [r2, -r0, lsl #4]
    2344:	00000082 	andeq	r0, r0, r2, lsl #1
    2348:	00022c04 	andeq	r2, r2, r4, lsl #24
    234c:	19340200 	ldmdbne	r4!, {r9}
    2350:	00000070 	andeq	r0, r0, r0, ror r0
    2354:	55070402 	strpl	r0, [r7, #-1026]	; 0xfffffbfe
    2358:	04000000 	streq	r0, [r0], #-0
    235c:	00000623 	andeq	r0, r0, r3, lsr #12
    2360:	25193702 	ldrcs	r3, [r9, #-1794]	; 0xfffff8fe
    2364:	05000000 	streq	r0, [r0, #-0]
    2368:	00000033 	andeq	r0, r0, r3, lsr r0
    236c:	00000092 	muleq	r0, r2, r0
    2370:	00003306 	andeq	r3, r0, r6, lsl #6
    2374:	35070000 	strcc	r0, [r7, #-0]
    2378:	03000002 	movweq	r0, #2
    237c:	009e0e1c 	addseq	r0, lr, ip, lsl lr
    2380:	04080000 	streq	r0, [r8], #-0
    2384:	00000083 	andeq	r0, r0, r3, lsl #1
    2388:	00003305 	andeq	r3, r0, r5, lsl #6
    238c:	0000b300 	andeq	fp, r0, r0, lsl #6
    2390:	00b30600 	adcseq	r0, r3, r0, lsl #12
    2394:	08000000 	stmdaeq	r0, {}	; <UNPREDICTABLE>
    2398:	0000c004 	andeq	ip, r0, r4
    239c:	08010200 	stmdaeq	r1, {r9}
    23a0:	00000070 	andeq	r0, r0, r0, ror r0
    23a4:	0000b909 	andeq	fp, r0, r9, lsl #18
    23a8:	06080700 	streq	r0, [r8], -r0, lsl #14
    23ac:	21030000 	mrscs	r0, (UNDEF: 3)
    23b0:	0000d10e 	andeq	sp, r0, lr, lsl #2
    23b4:	a4040800 	strge	r0, [r4], #-2048	; 0xfffff800
    23b8:	07000000 	streq	r0, [r0, -r0]
    23bc:	0000063f 	andeq	r0, r0, pc, lsr r6
    23c0:	b90d0b04 	stmdblt	sp, {r2, r8, r9, fp}
    23c4:	07000000 	streq	r0, [r0, -r0]
    23c8:	00000698 	muleq	r0, r8, r6
    23cc:	b90d0c04 	stmdblt	sp, {r2, sl, fp}
    23d0:	07000000 	streq	r0, [r0, -r0]
    23d4:	00000473 	andeq	r0, r0, r3, ror r4
    23d8:	b90d0d04 	stmdblt	sp, {r2, r8, sl, fp}
    23dc:	07000000 	streq	r0, [r0, -r0]
    23e0:	00000525 	andeq	r0, r0, r5, lsr #10
    23e4:	b90d0e04 	stmdblt	sp, {r2, r9, sl, fp}
    23e8:	07000000 	streq	r0, [r0, -r0]
    23ec:	0000055b 	andeq	r0, r0, fp, asr r5
    23f0:	b90d0f04 	stmdblt	sp, {r2, r8, r9, sl, fp}
    23f4:	07000000 	streq	r0, [r0, -r0]
    23f8:	000004d4 	ldrdeq	r0, [r0], -r4
    23fc:	b90d1004 	stmdblt	sp, {r2, ip}
    2400:	07000000 	streq	r0, [r0, -r0]
    2404:	000006c1 	andeq	r0, r0, r1, asr #13
    2408:	b90d1104 	stmdblt	sp, {r2, r8, ip}
    240c:	07000000 	streq	r0, [r0, -r0]
    2410:	0000065c 	andeq	r0, r0, ip, asr r6
    2414:	b90d1204 	stmdblt	sp, {r2, r9, ip}
    2418:	04000000 	streq	r0, [r0], #-0
    241c:	000005d1 	ldrdeq	r0, [r0], -r1
    2420:	431b2805 	tstmi	fp, #327680	; 0x50000
    2424:	0a000001 	beq	2430 <__code_start__-0x5bd0>
    2428:	000005f5 	strdeq	r0, [r0], -r5
    242c:	5a000604 	bpl	3c44 <__code_start__-0x43bc>
    2430:	0b000001 	bleq	243c <__code_start__-0x5bc4>
    2434:	000005e0 	andeq	r0, r0, r0, ror #11
    2438:	0000015a 	andeq	r0, r0, sl, asr r1
    243c:	040c0000 	streq	r0, [ip], #-0
    2440:	0005f704 	andeq	pc, r5, r4, lsl #14
    2444:	18630500 	stmdane	r3!, {r8, sl}^
    2448:	00000137 	andeq	r0, r0, r7, lsr r1
    244c:	0005c70d 	andeq	ip, r5, sp, lsl #14
    2450:	05810100 	streq	r0, [r1, #256]	; 0x100
    2454:	00000033 	andeq	r0, r0, r3, lsr r0
    2458:	000090e8 	andeq	r9, r0, r8, ror #1
    245c:	0000062c 	andeq	r0, r0, ip, lsr #12
    2460:	086a9c01 	stmdaeq	sl!, {r0, sl, fp, ip, pc}^
    2464:	620e0000 	andvs	r0, lr, #0, 0
    2468:	01006675 	tsteq	r0, r5, ror r6
    246c:	086a1581 	stmdaeq	sl!, {r0, r7, r8, sl, ip}^
    2470:	0ebb0000 	cdpeq	0, 11, cr0, cr11, cr0, {0}
    2474:	0eb10000 	cdpeq	0, 11, cr0, cr1, cr0, {0}
    2478:	6e0e0000 	cdpvs	0, 0, cr0, cr14, cr0, {0}
    247c:	1e810100 	rmfnes	f0, f1, f0
    2480:	00000033 	andeq	r0, r0, r3, lsr r0
    2484:	00000f08 	andeq	r0, r0, r8, lsl #30
    2488:	00000f00 	andeq	r0, r0, r0, lsl #30
    248c:	746d660e 	strbtvc	r6, [sp], #-1550	; 0xfffff9f2
    2490:	2d810100 	stfcss	f0, [r1]
    2494:	000000b3 	strheq	r0, [r0], -r3
    2498:	00000f5a 	andeq	r0, r0, sl, asr pc
    249c:	00000f42 	andeq	r0, r0, r2, asr #30
    24a0:	0005c20f 	andeq	ip, r5, pc, lsl #4
    24a4:	3a810100 	bcc	fe0428ac <__bss_end__+0xfe03794c>
    24a8:	0000015c 	andeq	r0, r0, ip, asr r1
    24ac:	0000101c 	andeq	r1, r0, ip, lsl r0
    24b0:	00000fee 	andeq	r0, r0, lr, ror #31
    24b4:	01007010 	tsteq	r0, r0, lsl r0
    24b8:	086a0882 	stmdaeq	sl!, {r1, r7, fp}^
    24bc:	116f0000 	cmnne	pc, r0
    24c0:	11590000 	cmpne	r9, r0
    24c4:	65100000 	ldrvs	r0, [r0, #-0]
    24c8:	12820100 	addne	r0, r2, #0
    24cc:	0000086a 	andeq	r0, r0, sl, ror #16
    24d0:	000011f8 	strdeq	r1, [r0], -r8
    24d4:	000011f6 	strdeq	r1, [r0], -r6
    24d8:	00307810 	eorseq	r7, r0, r0, lsl r8
    24dc:	640e8301 	strvs	r8, [lr], #-769	; 0xfffffcff
    24e0:	11000000 	mrsne	r0, (UNDEF: 0)
    24e4:	0b000012 	bleq	2534 <__code_start__-0x5acc>
    24e8:	10000012 	andne	r0, r0, r2, lsl r0
    24ec:	01003178 	tsteq	r0, r8, ror r1
    24f0:	00641183 	rsbeq	r1, r4, r3, lsl #3
    24f4:	12400000 	subne	r0, r0, #0, 0
    24f8:	123a0000 	eorsne	r0, sl, #0, 0
    24fc:	7a110000 	bvc	442504 <__bss_end__+0x4375a4>
    2500:	01000006 	tsteq	r0, r6
    2504:	00b31186 	adcseq	r1, r3, r6, lsl #3
    2508:	12710000 	rsbsne	r0, r1, #0, 0
    250c:	12690000 	rsbne	r0, r9, #0, 0
    2510:	bb120000 	bllt	482518 <__bss_end__+0x4775b8>
    2514:	80000000 	andhi	r0, r0, r0
    2518:	05000008 	streq	r0, [r0, #-8]
    251c:	00a91003 	adceq	r1, r9, r3
    2520:	02681300 	rsbeq	r1, r8, #0, 6
    2524:	73100000 	tstvc	r0, #0, 0
    2528:	0a910100 	beq	fe442930 <__bss_end__+0xfe4379d0>
    252c:	0000086a 	andeq	r0, r0, sl, ror #16
    2530:	000012b7 			; <UNDEFINED> instruction: 0x000012b7
    2534:	000012ab 	andeq	r1, r0, fp, lsr #5
    2538:	6d756e14 	ldclvs	14, cr6, [r5, #-80]!	; 0xffffffb0
    253c:	0d910100 	ldfeqs	f0, [r1]
    2540:	00000885 	andeq	r0, r0, r5, lsl #17
    2544:	7dd89103 	ldfvcp	f1, [r8, #12]
    2548:	0006ce15 	andeq	ip, r6, r5, lsl lr
    254c:	17910100 	ldrne	r0, [r1, r0, lsl #2]
    2550:	00000885 	andeq	r0, r0, r5, lsl #17
    2554:	7ed89103 	atnvce	f1, f3
    2558:	00064e11 	andeq	r4, r6, r1, lsl lr
    255c:	0d920100 	ldfeqs	f0, [r2]
    2560:	0000002c 	andeq	r0, r0, ip, lsr #32
    2564:	00001309 	andeq	r1, r0, r9, lsl #6
    2568:	00001301 	andeq	r1, r0, r1, lsl #6
    256c:	00029016 	andeq	r9, r2, r6, lsl r0
    2570:	0004f100 	andeq	pc, r4, r0, lsl #2
    2574:	79741000 	ldmdbvc	r4!, {ip}^
    2578:	1d9e0100 	ldfnes	f0, [lr]
    257c:	000000b3 	strheq	r0, [r0], -r3
    2580:	0000134a 	andeq	r1, r0, sl, asr #6
    2584:	0000133e 	andeq	r1, r0, lr, lsr r3
    2588:	00787814 	rsbseq	r7, r8, r4, lsl r8
    258c:	771aa201 	ldrvc	sl, [sl, -r1, lsl #4]
    2590:	06000000 	streq	r0, [r0], -r0
    2594:	5b049359 	blpl	127300 <__bss_end__+0x11c3a0>
    2598:	74170493 	ldrvc	r0, [r7], #-1171	; 0xfffffb6d
    259c:	3a000092 	bcc	27ec <__code_start__-0x5814>
    25a0:	d800000c 	stmdale	r0, {r2, r3}
    25a4:	18000002 	stmdane	r0, {r1}
    25a8:	76025001 	strvc	r5, [r2], -r1
    25ac:	51011800 	tstpl	r1, r0, lsl #16
    25b0:	a8040305 	stmdage	r4, {r0, r2, r8, r9}
    25b4:	01180000 	tsteq	r8, r0
    25b8:	00330152 	eorseq	r0, r3, r2, asr r1
    25bc:	00928c17 	addseq	r8, r2, r7, lsl ip
    25c0:	000c3a00 	andeq	r3, ip, r0, lsl #20
    25c4:	0002fa00 	andeq	pc, r2, r0, lsl #20
    25c8:	50011800 	andpl	r1, r1, r0, lsl #16
    25cc:	18007602 	stmdane	r0, {r1, r9, sl, ip, sp, lr}
    25d0:	03055101 	movweq	r5, #20737	; 0x5101
    25d4:	0000a818 	andeq	sl, r0, r8, lsl r8
    25d8:	01520118 	cmpeq	r2, r8, lsl r1
    25dc:	b0170033 	andslt	r0, r7, r3, lsr r0
    25e0:	46000092 			; <UNDEFINED> instruction: 0x46000092
    25e4:	1700000c 	strne	r0, [r0, -ip]
    25e8:	18000003 	stmdane	r0, {r0, r1}
    25ec:	03055001 	movweq	r5, #20481	; 0x5001
    25f0:	0000a808 	andeq	sl, r0, r8, lsl #16
    25f4:	02510118 	subseq	r0, r1, #6
    25f8:	1700007b 	smlsdxne	r0, fp, r0, r0
    25fc:	000092bc 			; <UNDEFINED> instruction: 0x000092bc
    2600:	00000c46 	andeq	r0, r0, r6, asr #24
    2604:	00000334 	andeq	r0, r0, r4, lsr r3
    2608:	05500118 	ldrbeq	r0, [r0, #-280]	; 0xfffffee8
    260c:	00a81003 	adceq	r1, r8, r3
    2610:	51011800 	tstpl	r1, r0, lsl #16
    2614:	00007902 	andeq	r7, r0, r2, lsl #18
    2618:	0092cc17 	addseq	ip, r2, r7, lsl ip
    261c:	000c3a00 	andeq	r3, ip, r0, lsl #20
    2620:	00035600 	andeq	r5, r3, r0, lsl #12
    2624:	50011800 	andpl	r1, r1, r0, lsl #16
    2628:	18007602 	stmdane	r0, {r1, r9, sl, ip, sp, lr}
    262c:	03055101 	movweq	r5, #20737	; 0x5101
    2630:	0000a804 	andeq	sl, r0, r4, lsl #16
    2634:	01520118 	cmpeq	r2, r8, lsl r1
    2638:	fc170033 	ldc2	0, cr0, [r7], {51}	; 0x33
    263c:	a4000092 	strge	r0, [r0], #-146	; 0xffffff6e
    2640:	8300000a 	movwhi	r0, #10
    2644:	18000003 	stmdane	r0, {r0, r1}
    2648:	40015001 	andmi	r5, r1, r1
    264c:	03510118 	cmpeq	r1, #6
    2650:	187dd091 	ldmdane	sp!, {r0, r4, r7, ip, lr, pc}^
    2654:	7b025201 	blvc	96e60 <__bss_end__+0x8bf00>
    2658:	53011800 	movwpl	r1, #6144	; 0x1800
    265c:	18007502 	stmdane	r0, {r1, r8, sl, ip, sp, lr}
    2660:	02007d02 	andeq	r7, r0, #128	; 0x80
    2664:	17000076 	smlsdxne	r0, r6, r0, r0
    2668:	0000931c 	andeq	r9, r0, ip, lsl r3
    266c:	00000aa4 	andeq	r0, r0, r4, lsr #21
    2670:	000003aa 	andeq	r0, r0, sl, lsr #7
    2674:	01500118 	cmpeq	r0, r8, lsl r1
    2678:	51011840 	tstpl	r1, r0, asr #16
    267c:	7ed09103 	atnvcs	f1, f3
    2680:	02520118 	subseq	r0, r2, #6
    2684:	02180079 	andseq	r0, r8, #121, 0	; 0x79
    2688:	7602007d 			; <UNDEFINED> instruction: 0x7602007d
    268c:	2c170000 	ldccs	0, cr0, [r7], {-0}
    2690:	52000093 	andpl	r0, r0, #147, 0	; 0x93
    2694:	c600000c 	strgt	r0, [r0], -ip
    2698:	18000003 	stmdane	r0, {r0, r1}
    269c:	91035001 	tstls	r3, r1
    26a0:	01187dd0 			; <UNDEFINED> instruction: 0x01187dd0
    26a4:	d2910351 	addsle	r0, r1, #1140850689	; 0x44000001
    26a8:	7017007e 	andsvc	r0, r7, lr, ror r0
    26ac:	3a000095 	bcc	2908 <__code_start__-0x56f8>
    26b0:	e800000c 	stmda	r0, {r2, r3}
    26b4:	18000003 	stmdane	r0, {r0, r1}
    26b8:	76025001 	strvc	r5, [r2], -r1
    26bc:	51011800 	tstpl	r1, r0, lsl #16
    26c0:	a8180305 	ldmdage	r8, {r0, r2, r8, r9}
    26c4:	01180000 	tsteq	r8, r0
    26c8:	00330152 	eorseq	r0, r3, r2, asr r1
    26cc:	00959417 	addseq	r9, r5, r7, lsl r4
    26d0:	000aa400 	andeq	sl, sl, r0, lsl #8
    26d4:	00041500 	andeq	r1, r4, r0, lsl #10
    26d8:	50011800 	andpl	r1, r1, r0, lsl #16
    26dc:	01183a01 	tsteq	r8, r1, lsl #20
    26e0:	d0910351 	addsle	r0, r1, r1, asr r3
    26e4:	5201187d 	andpl	r1, r1, #8192000	; 0x7d0000
    26e8:	18007b02 	stmdane	r0, {r1, r8, r9, fp, ip, sp, lr}
    26ec:	75025301 	strvc	r5, [r2, #-769]	; 0xfffffcff
    26f0:	7d021800 	stcvc	8, cr1, [r2, #-0]
    26f4:	00760200 	rsbseq	r0, r6, r0, lsl #4
    26f8:	95b41700 	ldrls	r1, [r4, #1792]!	; 0x700
    26fc:	0aa40000 	beq	fe902704 <__bss_end__+0xfe8f77a4>
    2700:	043c0000 	ldrteq	r0, [ip], #-0
    2704:	01180000 	tsteq	r8, r0
    2708:	183a0150 	ldmdane	sl!, {r4, r6, r8}
    270c:	91035101 	tstls	r3, r1, lsl #2
    2710:	01187ed0 			; <UNDEFINED> instruction: 0x01187ed0
    2714:	00790252 	rsbseq	r0, r9, r2, asr r2
    2718:	007d0218 	rsbseq	r0, sp, r8, lsl r2
    271c:	00007602 	andeq	r7, r0, r2, lsl #12
    2720:	0095c017 	addseq	ip, r5, r7, lsl r0
    2724:	000c5e00 	andeq	r5, ip, r0, lsl #28
    2728:	00045a00 	andeq	r5, r4, r0, lsl #20
    272c:	50011800 	andpl	r1, r1, r0, lsl #16
    2730:	7dd09103 	ldfvcp	f1, [r0, #12]
    2734:	05510118 	ldrbeq	r0, [r1, #-280]	; 0xfffffee8
    2738:	00a62803 	adceq	r2, r6, r3, lsl #16
    273c:	d4170000 	ldrle	r0, [r7], #-0
    2740:	6a000095 	bvs	299c <__code_start__-0x5664>
    2744:	7600000c 	strvc	r0, [r0], -ip
    2748:	18000004 	stmdane	r0, {r2}
    274c:	91035001 	tstls	r3, r1
    2750:	01187dd0 			; <UNDEFINED> instruction: 0x01187dd0
    2754:	d0910351 	addsle	r0, r1, r1, asr r3
    2758:	e019007e 	ands	r0, r9, lr, ror r0
    275c:	52000095 	andpl	r0, r0, #149, 0	; 0x95
    2760:	1700000c 	strne	r0, [r0, -ip]
    2764:	000096a4 	andeq	r9, r0, r4, lsr #13
    2768:	00000c46 	andeq	r0, r0, r6, asr #24
    276c:	000004a8 	andeq	r0, r0, r8, lsr #9
    2770:	05500118 	ldrbeq	r0, [r0, #-280]	; 0xfffffee8
    2774:	00a2e803 	adceq	lr, r2, r3, lsl #16
    2778:	51011800 	tstpl	r1, r0, lsl #16
    277c:	a7b80305 	ldrge	r0, [r8, r5, lsl #6]!
    2780:	01180000 	tsteq	r8, r0
    2784:	10030552 	andne	r0, r3, r2, asr r5
    2788:	000000a9 	andeq	r0, r0, r9, lsr #1
    278c:	0096a819 	addseq	sl, r6, r9, lsl r8
    2790:	000c7600 	andeq	r7, ip, r0, lsl #12
    2794:	96c01700 	strbls	r1, [r0], r0, lsl #14
    2798:	0c460000 	mareq	acc0, r0, r6
    279c:	04e70000 	strbteq	r0, [r7], #0
    27a0:	01180000 	tsteq	r8, r0
    27a4:	58030550 	stmdapl	r3, {r4, r6, r8, sl}
    27a8:	180000a8 	stmdane	r0, {r3, r5, r7}
    27ac:	03055101 	movweq	r5, #20737	; 0x5101
    27b0:	0000a7b8 			; <UNDEFINED> instruction: 0x0000a7b8
    27b4:	05520118 	ldrbeq	r0, [r2, #-280]	; 0xfffffee8
    27b8:	00a91003 	adceq	r1, r9, r3
    27bc:	53011800 	movwpl	r1, #6144	; 0x1800
    27c0:	18b60802 	ldmne	r6!, {r1, fp}
    27c4:	02007d02 	andeq	r7, r0, #128	; 0x80
    27c8:	19000076 	stmdbne	r0, {r1, r2, r4, r5, r6}
    27cc:	000096c4 	andeq	r9, r0, r4, asr #13
    27d0:	00000c76 	andeq	r0, r0, r6, ror ip
    27d4:	09e31a00 	stmibeq	r3!, {r9, fp, ip}^
    27d8:	91740000 	cmnls	r4, r0
    27dc:	00040000 	andeq	r0, r4, r0
    27e0:	000002b8 			; <UNDEFINED> instruction: 0x000002b8
    27e4:	150a9401 	strne	r9, [sl, #-1025]	; 0xfffffbff
    27e8:	1b000005 	blne	2804 <__code_start__-0x57fc>
    27ec:	000009f4 	strdeq	r0, [r0], -r4
    27f0:	000013a6 	andeq	r1, r0, r6, lsr #7
    27f4:	000013a2 	andeq	r1, r0, r2, lsr #7
    27f8:	08951a00 	ldmeq	r5, {r9, fp, ip}
    27fc:	935c0000 	cmpls	ip, #0, 0
    2800:	00010000 	andeq	r0, r1, r0
    2804:	000002d8 	ldrdeq	r0, [r0], -r8
    2808:	4b09dc01 	blmi	279814 <__bss_end__+0x26e8b4>
    280c:	1b000006 	blne	282c <__code_start__-0x57d4>
    2810:	000008be 			; <UNDEFINED> instruction: 0x000008be
    2814:	000013d4 	ldrdeq	r1, [r0], -r4
    2818:	000013ce 	andeq	r1, r0, lr, asr #7
    281c:	0008e01b 	andeq	lr, r8, fp, lsl r0
    2820:	00140900 	andseq	r0, r4, r0, lsl #18
    2824:	00140300 	andseq	r0, r4, r0, lsl #6
    2828:	08d41b00 	ldmeq	r4, {r8, r9, fp, ip}^
    282c:	143b0000 	ldrtne	r0, [fp], #-0
    2830:	14350000 	ldrtne	r0, [r5], #-0
    2834:	c81c0000 	ldmdagt	ip, {}	; <UNPREDICTABLE>
    2838:	1b000008 	blne	2860 <__code_start__-0x57a0>
    283c:	000008b2 			; <UNDEFINED> instruction: 0x000008b2
    2840:	0000146c 	andeq	r1, r0, ip, ror #8
    2844:	00001464 	andeq	r1, r0, r4, ror #8
    2848:	0008a61b 	andeq	sl, r8, fp, lsl r6
    284c:	0014af00 	andseq	sl, r4, r0, lsl #30
    2850:	0014a900 	andseq	sl, r4, r0, lsl #18
    2854:	02d81300 	sbcseq	r1, r8, #0, 6
    2858:	ec1d0000 	ldc	0, cr0, [sp], {-0}
    285c:	03000008 	movweq	r0, #8
    2860:	1e7ed891 	mrcne	8, 3, sp, cr14, cr1, {4}
    2864:	000008f8 	strdeq	r0, [r0], -r8
    2868:	000014e9 	andeq	r1, r0, r9, ror #9
    286c:	000014db 	ldrdeq	r1, [r0], -fp
    2870:	0009021f 	andeq	r0, r9, pc, lsl r2
    2874:	09a31a00 	stmibeq	r3!, {r9, fp, ip}
    2878:	93680000 	cmnls	r8, #0, 0
    287c:	00040000 	andeq	r0, r4, r0
    2880:	00000308 	andeq	r0, r0, r8, lsl #6
    2884:	e2097c01 	and	r7, r9, #256	; 0x100
    2888:	1b000005 	blne	28a4 <__code_start__-0x575c>
    288c:	000009ca 	andeq	r0, r0, sl, asr #19
    2890:	00001553 	andeq	r1, r0, r3, asr r5
    2894:	0000154d 	andeq	r1, r0, sp, asr #10
    2898:	0009be1b 	andeq	fp, r9, fp, lsl lr
    289c:	00158800 	andseq	r8, r5, r0, lsl #16
    28a0:	00157c00 	andseq	r7, r5, r0, lsl #24
    28a4:	09b41b00 	ldmibeq	r4!, {r8, r9, fp, ip}
    28a8:	15ee0000 	strbne	r0, [lr, #0]!
    28ac:	15de0000 	ldrbne	r0, [lr]
    28b0:	08130000 	ldmdaeq	r3, {}	; <UNPREDICTABLE>
    28b4:	1e000003 	cdpne	0, 0, cr0, cr0, cr3, {0}
    28b8:	000009d6 	ldrdeq	r0, [r0], -r6
    28bc:	0000166b 	andeq	r1, r0, fp, ror #12
    28c0:	0000165d 	andeq	r1, r0, sp, asr r6
    28c4:	4f200000 	svcmi	0x00200000
    28c8:	30000009 	andcc	r0, r0, r9
    28cc:	02000094 	andeq	r0, r0, #148, 0	; 0x94
    28d0:	00033800 	andeq	r3, r3, r0, lsl #16
    28d4:	097c0100 	ldmdbeq	ip!, {r8}^
    28d8:	0009801b 	andeq	r8, r9, fp, lsl r0
    28dc:	0016cb00 	andseq	ip, r6, r0, lsl #22
    28e0:	0016c500 	andseq	ip, r6, r0, lsl #10
    28e4:	09761b00 	ldmdbeq	r6!, {r8, r9, fp, ip}^
    28e8:	17010000 	strne	r0, [r1, -r0]
    28ec:	16f70000 	ldrbtne	r0, [r7], r0
    28f0:	6c1b0000 	ldcvs	0, cr0, [fp], {-0}
    28f4:	50000009 	andpl	r0, r0, r9
    28f8:	4c000017 	stcmi	0, cr0, [r0], {23}
    28fc:	1b000017 	blne	2960 <__code_start__-0x56a0>
    2900:	00000960 	andeq	r0, r0, r0, ror #18
    2904:	00001780 	andeq	r1, r0, r0, lsl #15
    2908:	00001772 	andeq	r1, r0, r2, ror r7
    290c:	00033813 	andeq	r3, r3, r3, lsl r8
    2910:	098c1e00 	stmibeq	ip, {r9, sl, fp, ip}
    2914:	17e50000 	strbne	r0, [r5, r0]!
    2918:	17e30000 	strbne	r0, [r3, r0]!
    291c:	981e0000 	ldmdals	lr, {}	; <UNPREDICTABLE>
    2920:	ff000009 			; <UNDEFINED> instruction: 0xff000009
    2924:	f9000017 			; <UNDEFINED> instruction: 0xf9000017
    2928:	00000017 	andeq	r0, r0, r7, lsl r0
    292c:	1a000000 	bne	2934 <__code_start__-0x56cc>
    2930:	00000895 	muleq	r0, r5, r8
    2934:	0000946c 	andeq	r9, r0, ip, ror #8
    2938:	03680000 	cmneq	r8, #0, 0
    293c:	d6010000 	strle	r0, [r1], -r0
    2940:	00078909 	andeq	r8, r7, r9, lsl #18
    2944:	08be1b00 	ldmeq	lr!, {r8, r9, fp, ip}
    2948:	18320000 	ldmdane	r2!, {}	; <UNPREDICTABLE>
    294c:	182e0000 	stmdane	lr!, {}	; <UNPREDICTABLE>
    2950:	e01b0000 	ands	r0, fp, r0
    2954:	58000008 	stmdapl	r0, {r3}
    2958:	54000018 	strpl	r0, [r0], #-24	; 0xffffffe8
    295c:	1b000018 	blne	29c4 <__code_start__-0x563c>
    2960:	000008d4 	ldrdeq	r0, [r0], -r4
    2964:	0000187c 	andeq	r1, r0, ip, ror r8
    2968:	00001878 	andeq	r1, r0, r8, ror r8
    296c:	0008c81c 	andeq	ip, r8, ip, lsl r8
    2970:	08b21b00 	ldmeq	r2!, {r8, r9, fp, ip}
    2974:	18a00000 	stmiane	r0!, {}	; <UNPREDICTABLE>
    2978:	189a0000 	ldmne	sl, {}	; <UNPREDICTABLE>
    297c:	a61b0000 	ldrge	r0, [fp], -r0
    2980:	d3000008 	movwle	r0, #8
    2984:	cf000018 	svcgt	0x00000018
    2988:	13000018 	movwne	r0, #24
    298c:	00000368 	andeq	r0, r0, r8, ror #6
    2990:	0008ec1d 	andeq	lr, r8, sp, lsl ip
    2994:	d8910300 	ldmle	r1, {r8, r9}
    2998:	08f81e7e 	ldmeq	r8!, {r1, r2, r3, r4, r5, r6, r9, sl, fp, ip}^
    299c:	18fd0000 	ldmne	sp!, {}^	; <UNPREDICTABLE>
    29a0:	18f30000 	ldmne	r3!, {}^	; <UNPREDICTABLE>
    29a4:	021e0000 	andseq	r0, lr, #0, 0
    29a8:	42000009 	andmi	r0, r0, #9, 0
    29ac:	3e000019 	mcrcc	0, 0, r0, cr0, cr9, {0}
    29b0:	1a000019 	bne	2a1c <__code_start__-0x55e4>
    29b4:	000009a3 	andeq	r0, r0, r3, lsr #19
    29b8:	00009488 	andeq	r9, r0, r8, lsl #9
    29bc:	03880003 	orreq	r0, r8, #3, 0
    29c0:	7c010000 	stcvc	0, cr0, [r1], {-0}
    29c4:	00072009 	andeq	r2, r7, r9
    29c8:	09ca1b00 	stmibeq	sl, {r8, r9, fp, ip}^
    29cc:	19640000 	stmdbne	r4!, {}^	; <UNPREDICTABLE>
    29d0:	19600000 	stmdbne	r0!, {}^	; <UNPREDICTABLE>
    29d4:	be1b0000 	cdplt	0, 1, cr0, cr11, cr0, {0}
    29d8:	86000009 	strhi	r0, [r0], -r9
    29dc:	82000019 	andhi	r0, r0, #25, 0
    29e0:	1b000019 	blne	2a4c <__code_start__-0x55b4>
    29e4:	000009b4 			; <UNDEFINED> instruction: 0x000009b4
    29e8:	000019b0 			; <UNDEFINED> instruction: 0x000019b0
    29ec:	000019a4 	andeq	r1, r0, r4, lsr #19
    29f0:	00038813 	andeq	r8, r3, r3, lsl r8
    29f4:	09d61e00 	ldmibeq	r6, {r9, sl, fp, ip}^
    29f8:	1a0c0000 	bne	302a00 <__bss_end__+0x2f7aa0>
    29fc:	1a000000 	bne	2a04 <__code_start__-0x55fc>
    2a00:	00000000 	andeq	r0, r0, r0
    2a04:	00094f20 	andeq	r4, r9, r0, lsr #30
    2a08:	00951000 	addseq	r1, r5, r0
    2a0c:	b0000200 	andlt	r0, r0, r0, lsl #4
    2a10:	01000003 	tsteq	r0, r3
    2a14:	801b097c 	andshi	r0, fp, ip, ror r9
    2a18:	5c000009 	stcpl	0, cr0, [r0], {9}
    2a1c:	5800001a 	stmdapl	r0, {r1, r3, r4}
    2a20:	1b00001a 	blne	2a90 <__code_start__-0x5570>
    2a24:	00000976 	andeq	r0, r0, r6, ror r9
    2a28:	00001a84 	andeq	r1, r0, r4, lsl #21
    2a2c:	00001a7a 	andeq	r1, r0, sl, ror sl
    2a30:	00096c1b 	andeq	r6, r9, fp, lsl ip
    2a34:	001ad000 	andseq	sp, sl, r0
    2a38:	001acc00 	andseq	ip, sl, r0, lsl #24
    2a3c:	09601b00 	stmdbeq	r0!, {r8, r9, fp, ip}^
    2a40:	1afe0000 	bne	fff82a48 <__bss_end__+0xfff77ae8>
    2a44:	1af20000 	bne	ffc82a4c <__bss_end__+0xffc77aec>
    2a48:	b0130000 	andslt	r0, r3, r0
    2a4c:	1e000003 	cdpne	0, 0, cr0, cr0, cr3, {0}
    2a50:	0000098c 	andeq	r0, r0, ip, lsl #19
    2a54:	00001b58 	andeq	r1, r0, r8, asr fp
    2a58:	00001b54 	andeq	r1, r0, r4, asr fp
    2a5c:	0009981e 	andeq	r9, r9, lr, lsl r8
    2a60:	001b7e00 	andseq	r7, fp, r0, lsl #28
    2a64:	001b7a00 	andseq	r7, fp, r0, lsl #20
    2a68:	00000000 	andeq	r0, r0, r0
    2a6c:	923c1700 	eorsls	r1, ip, #0, 14
    2a70:	0aa40000 	beq	fe902a78 <__bss_end__+0xfe8f7b18>
    2a74:	07af0000 	streq	r0, [pc, r0]!
    2a78:	01180000 	tsteq	r8, r0
    2a7c:	18400150 	stmdane	r0, {r4, r6, r8}^
    2a80:	91035101 	tstls	r3, r1, lsl #2
    2a84:	01187dd0 			; <UNDEFINED> instruction: 0x01187dd0
    2a88:	00750253 	rsbseq	r0, r5, r3, asr r2
    2a8c:	007d0218 	rsbseq	r0, sp, r8, lsl r2
    2a90:	17003001 	strne	r3, [r0, -r1]
    2a94:	0000934c 	andeq	r9, r0, ip, asr #6
    2a98:	00000aa4 	andeq	r0, r0, r4, lsr #21
    2a9c:	000007cf 	andeq	r0, r0, pc, asr #15
    2aa0:	01500118 	cmpeq	r0, r8, lsl r1
    2aa4:	5101183a 	tstpl	r1, sl, lsr r8
    2aa8:	7dd09103 	ldfvcp	f1, [r0, #12]
    2aac:	02530118 	subseq	r0, r3, #6
    2ab0:	17000075 	smlsdxne	r0, r5, r0, r0
    2ab4:	00009630 	andeq	r9, r0, r0, lsr r6
    2ab8:	00000c46 	andeq	r0, r0, r6, asr #24
    2abc:	000007e6 	andeq	r0, r0, r6, ror #15
    2ac0:	05500118 	ldrbeq	r0, [r0, #-280]	; 0xfffffee8
    2ac4:	00a8a803 	adceq	sl, r8, r3, lsl #16
    2ac8:	40210000 	eormi	r0, r1, r0
    2acc:	f8000096 			; <UNDEFINED> instruction: 0xf8000096
    2ad0:	18000007 	stmdane	r0, {r0, r1, r2}
    2ad4:	91045001 	tstls	r4, r1
    2ad8:	00067dc8 	andeq	r7, r6, r8, asr #27
    2adc:	00965417 	addseq	r5, r6, r7, lsl r4
    2ae0:	000c4600 	andeq	r4, ip, r0, lsl #12
    2ae4:	00082700 	andeq	r2, r8, r0, lsl #14
    2ae8:	50011800 	andpl	r1, r1, r0, lsl #16
    2aec:	a8d80305 	ldmge	r8, {r0, r2, r8, r9}^
    2af0:	01180000 	tsteq	r8, r0
    2af4:	b8030551 	stmdalt	r3, {r0, r4, r6, r8, sl}
    2af8:	180000a7 	stmdane	r0, {r0, r1, r2, r5, r7}
    2afc:	03055201 	movweq	r5, #20993	; 0x5201
    2b00:	0000a910 	andeq	sl, r0, r0, lsl r9
    2b04:	02530118 	subseq	r0, r3, #6
    2b08:	1900e208 	stmdbne	r0, {r3, r9, sp, lr, pc}
    2b0c:	00009658 	andeq	r9, r0, r8, asr r6
    2b10:	00000c76 	andeq	r0, r0, r6, ror ip
    2b14:	00966c17 	addseq	r6, r6, r7, lsl ip
    2b18:	000c4600 	andeq	r4, ip, r0, lsl #12
    2b1c:	00085f00 	andeq	r5, r8, r0, lsl #30
    2b20:	50011800 	andpl	r1, r1, r0, lsl #16
    2b24:	a8800305 	stmge	r0, {r0, r2, r8, r9}
    2b28:	01180000 	tsteq	r8, r0
    2b2c:	b8030551 	stmdalt	r3, {r0, r4, r6, r8, sl}
    2b30:	180000a7 	stmdane	r0, {r0, r1, r2, r5, r7}
    2b34:	03055201 	movweq	r5, #20993	; 0x5201
    2b38:	0000a910 	andeq	sl, r0, r0, lsl r9
    2b3c:	02530118 	subseq	r0, r3, #6
    2b40:	1900be08 	stmdbne	r0, {r3, r9, sl, fp, ip, sp, pc}
    2b44:	00009670 	andeq	r9, r0, r0, ror r6
    2b48:	00000c76 	andeq	r0, r0, r6, ror ip
    2b4c:	04080000 	streq	r0, [r8], #-0
    2b50:	000000b9 	strheq	r0, [r0], -r9
    2b54:	0000c022 	andeq	ip, r0, r2, lsr #32
    2b58:	00088000 	andeq	r8, r8, r0
    2b5c:	002c2300 	eoreq	r2, ip, r0, lsl #6
    2b60:	00090000 	andeq	r0, r9, r0
    2b64:	00087009 	andeq	r7, r8, r9
    2b68:	00b92200 	adcseq	r2, r9, r0, lsl #4
    2b6c:	08950000 	ldmeq	r5, {}	; <UNPREDICTABLE>
    2b70:	2c230000 	stccs	0, cr0, [r3], #-0
    2b74:	7f000000 	svcvc	0x00000000
    2b78:	06a52400 	strteq	r2, [r5], r0, lsl #8
    2b7c:	49010000 	stmdbmi	r1, {}	; <UNPREDICTABLE>
    2b80:	00086a01 	andeq	r6, r8, r1, lsl #20
    2b84:	092a0100 	stmdbeq	sl!, {r8}
    2b88:	32250000 	eorcc	r0, r5, #0, 0
    2b8c:	01000004 	tsteq	r0, r4
    2b90:	002c0f49 	eoreq	r0, ip, r9, asr #30
    2b94:	64260000 	strtvs	r0, [r6], #-0
    2b98:	01007473 	tsteq	r0, r3, ror r4
    2b9c:	086a1b49 	stmdaeq	sl!, {r0, r3, r6, r8, r9, fp, ip}^
    2ba0:	6e260000 	cdpvs	0, 2, cr0, cr6, cr0, {0}
    2ba4:	24490100 	strbcs	r0, [r9], #-256	; 0xffffff00
    2ba8:	00000033 	andeq	r0, r0, r3, lsr r0
    2bac:	6c617626 	stclvs	6, cr7, [r1], #-152	; 0xffffff68
    2bb0:	2b490100 	blcs	1242fb8 <__bss_end__+0x1238058>
    2bb4:	00000033 	andeq	r0, r0, r3, lsr r0
    2bb8:	00064e25 	andeq	r4, r6, r5, lsr #28
    2bbc:	34490100 	strbcc	r0, [r9], #-256	; 0xffffff00
    2bc0:	00000033 	andeq	r0, r0, r3, lsr r0
    2bc4:	0006db25 	andeq	sp, r6, r5, lsr #22
    2bc8:	3f490100 	svccc	0x00490100
    2bcc:	00000033 	andeq	r0, r0, r3, lsr r0
    2bd0:	66756227 	ldrbtvs	r6, [r5], -r7, lsr #4
    2bd4:	074e0100 	strbeq	r0, [lr, -r0, lsl #2]
    2bd8:	0000092a 	andeq	r0, r0, sl, lsr #18
    2bdc:	01007027 	tsteq	r0, r7, lsr #32
    2be0:	086a114e 	stmdaeq	sl!, {r1, r2, r3, r6, r8, ip}^
    2be4:	75270000 	strvc	r0, [r7, #-0]!
    2be8:	0b4f0100 	bleq	13c2ff0 <__bss_end__+0x13b8090>
    2bec:	0000002c 	andeq	r0, r0, ip, lsr #32
    2bf0:	0000bb12 	andeq	fp, r0, r2, lsl fp
    2bf4:	00094a00 	andeq	r4, r9, r0, lsl #20
    2bf8:	f8030500 			; <UNDEFINED> instruction: 0xf8030500
    2bfc:	280000a8 	stmdacs	r0, {r3, r5, r7}
    2c00:	00069229 	andeq	r9, r6, r9, lsr #4
    2c04:	0d540100 	ldfeqe	f0, [r4, #-0]
    2c08:	0000002c 	andeq	r0, r0, ip, lsr #32
    2c0c:	b9220000 	stmdblt	r2!, {}	; <UNPREDICTABLE>
    2c10:	3a000000 	bcc	2c18 <__code_start__-0x53e8>
    2c14:	23000009 	movwcs	r0, #9
    2c18:	0000002c 	andeq	r0, r0, ip, lsr #32
    2c1c:	c022003f 	eorgt	r0, r2, pc, lsr r0
    2c20:	4a000000 	bmi	2c28 <__code_start__-0x53d8>
    2c24:	23000009 	movwcs	r0, #9
    2c28:	0000002c 	andeq	r0, r0, ip, lsr #32
    2c2c:	3a090004 	bcc	242c44 <__bss_end__+0x237ce4>
    2c30:	24000009 	strcs	r0, [r0], #-9
    2c34:	000006aa 	andeq	r0, r0, sl, lsr #13
    2c38:	6a0e3801 	bvs	390c44 <__bss_end__+0x385ce4>
    2c3c:	01000008 	tsteq	r0, r8
    2c40:	000009a3 	andeq	r0, r0, r3, lsr #19
    2c44:	74736426 	ldrbtvc	r6, [r3], #-1062	; 0xfffffbda
    2c48:	1c380100 	ldfnes	f0, [r8], #-0
    2c4c:	0000086a 	andeq	r0, r0, sl, ror #16
    2c50:	01006e26 	tsteq	r0, r6, lsr #28
    2c54:	00332538 	eorseq	r2, r3, r8, lsr r5
    2c58:	70260000 	eorvc	r0, r6, r0
    2c5c:	2e380100 	rsfcse	f0, f0, f0
    2c60:	0000086a 	andeq	r0, r0, sl, ror #16
    2c64:	000a7525 	andeq	r7, sl, r5, lsr #10
    2c68:	37380100 	ldrcc	r0, [r8, -r0, lsl #2]!
    2c6c:	0000086a 	andeq	r0, r0, sl, ror #16
    2c70:	6e656c27 	cdpvs	12, 6, cr6, cr5, cr7, {1}
    2c74:	063a0100 	ldrteq	r0, [sl], -r0, lsl #2
    2c78:	00000033 	andeq	r0, r0, r3, lsr r0
    2c7c:	01007327 	tsteq	r0, r7, lsr #6
    2c80:	086a083e 	stmdaeq	sl!, {r1, r2, r3, r4, r5, fp}^
    2c84:	2a000000 	bcs	2c8c <__code_start__-0x5374>
    2c88:	00646170 	rsbeq	r6, r4, r0, ror r1
    2c8c:	6a0e2e01 	bvs	38e498 <__bss_end__+0x383538>
    2c90:	01000008 	tsteq	r0, r8
    2c94:	000009e3 	andeq	r0, r0, r3, ror #19
    2c98:	01007026 	tsteq	r0, r6, lsr #32
    2c9c:	086a182e 	stmdaeq	sl!, {r1, r2, r3, r5, fp, ip}^
    2ca0:	32250000 	eorcc	r0, r5, #0, 0
    2ca4:	01000004 	tsteq	r0, r4
    2ca8:	086a222e 	stmdaeq	sl!, {r1, r2, r3, r5, r9, sp}^
    2cac:	4e250000 	cdpmi	0, 2, cr0, cr5, cr0, {0}
    2cb0:	01000006 	tsteq	r0, r6
    2cb4:	00332c2e 	eorseq	r2, r3, lr, lsr #24
    2cb8:	6c270000 	stcvs	0, cr0, [r7], #-0
    2cbc:	01006e65 	tsteq	r0, r5, ror #28
    2cc0:	0033062f 	eorseq	r0, r3, pc, lsr #12
    2cc4:	24000000 	strcs	r0, [r0], #-0
    2cc8:	0000061b 	andeq	r0, r0, fp, lsl r6
    2ccc:	330c2701 	movwcc	r2, #50945	; 0xc701
    2cd0:	01000000 	mrseq	r0, (UNDEF: 0)
    2cd4:	000009ff 	strdeq	r0, [r0], -pc	; <UNPREDICTABLE>
    2cd8:	01006326 	tsteq	r0, r6, lsr #6
    2cdc:	00331827 	eorseq	r1, r3, r7, lsr #16
    2ce0:	2b000000 	blcs	2ce8 <__code_start__-0x5318>
    2ce4:	0000066b 	andeq	r0, r0, fp, ror #12
    2ce8:	88061f01 	stmdahi	r6, {r0, r8, r9, sl, fp, ip}
    2cec:	60000090 	mulvs	r0, r0, r0
    2cf0:	01000000 	mrseq	r0, (UNDEF: 0)
    2cf4:	000a8f9c 	muleq	sl, ip, pc	; <UNPREDICTABLE>
    2cf8:	06540f00 	ldrbeq	r0, [r4], -r0, lsl #30
    2cfc:	1f010000 	svcne	0x00010000
    2d00:	00009e1b 	andeq	r9, r0, fp, lsl lr
    2d04:	001ba300 	andseq	sl, fp, r0, lsl #6
    2d08:	001b9f00 	andseq	r9, fp, r0, lsl #30
    2d0c:	06b90f00 	ldrteq	r0, [r9], r0, lsl #30
    2d10:	1f010000 	svcne	0x00010000
    2d14:	0000d130 	andeq	sp, r0, r0, lsr r1
    2d18:	001bc800 	andseq	ip, fp, r0, lsl #16
    2d1c:	001bc400 	andseq	ip, fp, r0, lsl #8
    2d20:	00bb1200 	adcseq	r1, fp, r0, lsl #4
    2d24:	0a9f0000 	beq	fe7c2d2c <__bss_end__+0xfe7b7dcc>
    2d28:	03050000 	movweq	r0, #20480	; 0x5000
    2d2c:	0000a900 	andeq	sl, r0, r0, lsl #18
    2d30:	0090cc17 	addseq	ip, r0, r7, lsl ip
    2d34:	000c4600 	andeq	r4, ip, r0, lsl #12
    2d38:	000a8500 	andeq	r8, sl, r0, lsl #10
    2d3c:	50011800 	andpl	r1, r1, r0, lsl #16
    2d40:	a2e80305 	rscge	r0, r8, #335544320	; 0x14000000
    2d44:	01180000 	tsteq	r8, r0
    2d48:	b8030551 	stmdalt	r3, {r0, r4, r6, r8, sl}
    2d4c:	180000a7 	stmdane	r0, {r0, r1, r2, r5, r7}
    2d50:	03055201 	movweq	r5, #20993	; 0x5201
    2d54:	0000a900 	andeq	sl, r0, r0, lsl #18
    2d58:	02530118 	subseq	r0, r3, #6
    2d5c:	02182008 	andseq	r2, r8, #8, 0
    2d60:	0305007d 	movweq	r0, #20605	; 0x507d
    2d64:	0000a7f0 	strdeq	sl, [r0], -r0
    2d68:	90d01900 	sbcsls	r1, r0, r0, lsl #18
    2d6c:	0c760000 	ldcleq	0, cr0, [r6], #-0
    2d70:	22000000 	andcs	r0, r0, #0, 0
    2d74:	000000c0 	andeq	r0, r0, r0, asr #1
    2d78:	00000a9f 	muleq	r0, pc, sl	; <UNPREDICTABLE>
    2d7c:	00002c23 	andeq	r2, r0, r3, lsr #24
    2d80:	09000e00 	stmdbeq	r0, {r9, sl, fp}
    2d84:	00000a8f 	andeq	r0, r0, pc, lsl #21
    2d88:	0008952c 	andeq	r9, r8, ip, lsr #10
    2d8c:	008d6000 	addeq	r6, sp, r0
    2d90:	00032800 	andeq	r2, r3, r0, lsl #16
    2d94:	3a9c0100 	bcc	fe70319c <__bss_end__+0xfe6f823c>
    2d98:	1b00000c 	blne	2dd0 <__code_start__-0x5230>
    2d9c:	000008a6 	andeq	r0, r0, r6, lsr #17
    2da0:	00001c01 	andeq	r1, r0, r1, lsl #24
    2da4:	00001be9 	andeq	r1, r0, r9, ror #23
    2da8:	0008b21b 	andeq	fp, r8, fp, lsl r2
    2dac:	001cab00 	andseq	sl, ip, r0, lsl #22
    2db0:	001ca300 	andseq	sl, ip, r0, lsl #6
    2db4:	08c81b00 	stmiaeq	r8, {r8, r9, fp, ip}^
    2db8:	1d020000 	stcne	0, cr0, [r2, #-0]
    2dbc:	1ce20000 	stclne	0, cr0, [r2]
    2dc0:	d41b0000 	ldrle	r0, [fp], #-0
    2dc4:	d8000008 	stmdale	r0, {r3}
    2dc8:	ca00001d 	bgt	2e44 <__code_start__-0x51bc>
    2dcc:	2d00001d 	stccs	0, cr0, [r0, #-116]	; 0xffffff8c
    2dd0:	000008e0 	andeq	r0, r0, r0, ror #17
    2dd4:	1d009102 	stfned	f1, [r0, #-8]
    2dd8:	000008ec 	andeq	r0, r0, ip, ror #17
    2ddc:	7fa89103 	svcvc	0x00a89103
    2de0:	0008f81e 	andeq	pc, r8, lr, lsl r8	; <UNPREDICTABLE>
    2de4:	001e6c00 	andseq	r6, lr, r0, lsl #24
    2de8:	001e3800 	andseq	r3, lr, r0, lsl #16
    2dec:	09021e00 	stmdbeq	r2, {r9, sl, fp, ip}
    2df0:	1fd30000 	svcne	0x00d30000
    2df4:	1fb10000 	svcne	0x00b10000
    2df8:	be2e0000 	cdplt	0, 2, cr0, cr14, cr0, {0}
    2dfc:	80000008 	andhi	r0, r0, r8
    2e00:	0009a31a 	andeq	sl, r9, sl, lsl r3
    2e04:	008e0400 	addeq	r0, lr, r0, lsl #8
    2e08:	00000400 	andeq	r0, r0, r0, lsl #8
    2e0c:	01000002 	tsteq	r0, r2
    2e10:	0b6d097c 	bleq	1b45408 <__bss_end__+0x1b3a4a8>
    2e14:	ca1b0000 	bgt	6c2e1c <__bss_end__+0x6b7ebc>
    2e18:	bb000009 	bllt	2e44 <__code_start__-0x51bc>
    2e1c:	b1000020 	tstlt	r0, r0, lsr #32
    2e20:	1b000020 	blne	2ea8 <__code_start__-0x5158>
    2e24:	000009be 			; <UNDEFINED> instruction: 0x000009be
    2e28:	0000210f 	andeq	r2, r0, pc, lsl #2
    2e2c:	000020ff 	strdeq	r2, [r0], -pc	; <UNPREDICTABLE>
    2e30:	0009b41b 	andeq	fp, r9, fp, lsl r4
    2e34:	00218f00 	eoreq	r8, r1, r0, lsl #30
    2e38:	00217b00 	eoreq	r7, r1, r0, lsl #22
    2e3c:	02001300 	andeq	r1, r0, #0, 6
    2e40:	d61e0000 	ldrle	r0, [lr], -r0
    2e44:	21000009 	tstcs	r0, r9
    2e48:	11000022 	tstne	r0, r2, lsr #32
    2e4c:	00000022 	andeq	r0, r0, r2, lsr #32
    2e50:	094f1a00 	stmdbeq	pc, {r9, fp, ip}^	; <UNPREDICTABLE>
    2e54:	8ebc0000 	cdphi	0, 11, cr0, cr12, cr0, {0}
    2e58:	00020000 	andeq	r0, r2, r0
    2e5c:	00000248 	andeq	r0, r0, r8, asr #4
    2e60:	d8097c01 	stmdale	r9, {r0, sl, fp, ip, sp, lr}
    2e64:	1b00000b 	blne	2e98 <__code_start__-0x5168>
    2e68:	00000980 	andeq	r0, r0, r0, lsl #19
    2e6c:	0000228d 	andeq	r2, r0, sp, lsl #5
    2e70:	00002285 	andeq	r2, r0, r5, lsl #5
    2e74:	0009761b 	andeq	r7, r9, fp, lsl r6
    2e78:	0022cc00 	eoreq	ip, r2, r0, lsl #24
    2e7c:	0022c400 	eoreq	ip, r2, r0, lsl #8
    2e80:	096c1b00 	stmdbeq	ip!, {r8, r9, fp, ip}^
    2e84:	230b0000 	movwcs	r0, #45056	; 0xb000
    2e88:	23070000 	movwcs	r0, #28672	; 0x7000
    2e8c:	601b0000 	andsvs	r0, fp, r0
    2e90:	3b000009 	blcc	2ebc <__code_start__-0x5144>
    2e94:	2d000023 	stccs	0, cr0, [r0, #-140]	; 0xffffff74
    2e98:	13000023 	movwne	r0, #35	; 0x23
    2e9c:	00000248 	andeq	r0, r0, r8, asr #4
    2ea0:	00098c1e 	andeq	r8, r9, lr, lsl ip
    2ea4:	0023a000 	eoreq	sl, r3, r0
    2ea8:	00239a00 	eoreq	r9, r3, r0, lsl #20
    2eac:	09981e00 	ldmibeq	r8, {r9, sl, fp, ip}
    2eb0:	23d20000 	bicscs	r0, r2, #0, 0
    2eb4:	23ce0000 	biccs	r0, lr, #0, 0
    2eb8:	00000000 	andeq	r0, r0, r0
    2ebc:	00091b2f 	andeq	r1, r9, pc, lsr #22
    2ec0:	008f7400 	addeq	r7, pc, r0, lsl #8
    2ec4:	00006000 	andeq	r6, r0, r0
    2ec8:	000bf700 	andeq	pc, fp, r0, lsl #14
    2ecc:	091c1e00 	ldmdbeq	ip, {r9, sl, fp, ip}
    2ed0:	23f40000 	mvnscs	r0, #0, 0
    2ed4:	23f00000 	mvnscs	r0, #0, 0
    2ed8:	17000000 	strne	r0, [r0, -r0]
    2edc:	00009048 	andeq	r9, r0, r8, asr #32
    2ee0:	00000c46 	andeq	r0, r0, r6, asr #24
    2ee4:	00000c30 	andeq	r0, r0, r0, lsr ip
    2ee8:	05500118 	ldrbeq	r0, [r0, #-280]	; 0xfffffee8
    2eec:	00a2e803 	adceq	lr, r2, r3, lsl #16
    2ef0:	51011800 	tstpl	r1, r0, lsl #16
    2ef4:	a7b80305 	ldrge	r0, [r8, r5, lsl #6]!
    2ef8:	01180000 	tsteq	r8, r0
    2efc:	f8030552 			; <UNDEFINED> instruction: 0xf8030552
    2f00:	180000a8 	stmdane	r0, {r3, r5, r7}
    2f04:	08025301 	stmdaeq	r2, {r0, r8, r9, ip, lr}
    2f08:	7d021879 	stcvc	8, cr1, [r2, #-484]	; 0xfffffe1c
    2f0c:	28030500 	stmdacs	r3, {r8, sl}
    2f10:	000000a6 	andeq	r0, r0, r6, lsr #1
    2f14:	00904c19 	addseq	r4, r0, r9, lsl ip
    2f18:	000c7600 	andeq	r7, ip, r0, lsl #12
    2f1c:	d3300000 	teqle	r0, #0, 0
    2f20:	d3000006 	movwle	r0, #6
    2f24:	03000006 	movweq	r0, #6
    2f28:	ca3005eb 	bgt	c046dc <__bss_end__+0xbf977c>
    2f2c:	ca000005 	bgt	2f48 <__code_start__-0x50b8>
    2f30:	03000005 	movweq	r0, #5
    2f34:	84300628 	ldrthi	r0, [r0], #-1576	; 0xfffff9d8
    2f38:	84000006 	strhi	r0, [r0], #-6
    2f3c:	03000006 	movweq	r0, #6
    2f40:	b23007ee 	eorslt	r0, r0, #62390272	; 0x3b80000
    2f44:	b2000006 	andlt	r0, r0, #6, 0
    2f48:	03000006 	movweq	r0, #6
    2f4c:	8b3005ea 	blhi	c046fc <__bss_end__+0xbf979c>
    2f50:	8b000006 	blhi	2f70 <__code_start__-0x5090>
    2f54:	03000006 	movweq	r0, #6
    2f58:	753007ed 	ldrvc	r0, [r0, #-2029]!	; 0xfffff813
    2f5c:	75000000 	strvc	r0, [r0, #-0]
    2f60:	03000000 	movweq	r0, #0
    2f64:	2f00066e 	svccs	0x0000066e
    2f68:	04000001 	streq	r0, [r0], #-1
    2f6c:	000f8a00 	andeq	r8, pc, r0, lsl #20
    2f70:	fe010400 	cdp2	4, 0, cr0, cr1, cr0, {0}
    2f74:	0c000000 	stceq	0, cr0, [r0], {-0}
    2f78:	000006f8 	strdeq	r0, [r0], -r8
    2f7c:	000005a0 	andeq	r0, r0, r0, lsr #11
    2f80:	00009714 	andeq	r9, r0, r4, lsl r7
    2f84:	0000002c 	andeq	r0, r0, ip, lsr #32
    2f88:	000019b5 			; <UNDEFINED> instruction: 0x000019b5
    2f8c:	69050402 	stmdbvs	r5, {r1, sl}
    2f90:	0300746e 	movweq	r7, #1134	; 0x46e
    2f94:	005a0704 	subseq	r0, sl, r4, lsl #14
    2f98:	01030000 	mrseq	r0, (UNDEF: 3)
    2f9c:	00006906 	andeq	r6, r0, r6, lsl #18
    2fa0:	05020300 	streq	r0, [r2, #-768]	; 0xfffffd00
    2fa4:	0000020f 	andeq	r0, r0, pc, lsl #4
    2fa8:	cd050403 	cfstrsgt	mvf0, [r5, #-12]
    2fac:	03000001 	movweq	r0, #1
    2fb0:	01c80508 	biceq	r0, r8, r8, lsl #10
    2fb4:	01030000 	mrseq	r0, (UNDEF: 3)
    2fb8:	00006708 	andeq	r6, r0, r8, lsl #14
    2fbc:	07020300 	streq	r0, [r2, -r0, lsl #6]
    2fc0:	00000082 	andeq	r0, r0, r2, lsl #1
    2fc4:	55070403 	strpl	r0, [r7, #-1027]	; 0xfffffbfd
    2fc8:	03000000 	movweq	r0, #0
    2fcc:	00500708 	subseq	r0, r0, r8, lsl #14
    2fd0:	25040000 	strcs	r0, [r4, #-0]
    2fd4:	7a000000 	bvc	2fdc <__code_start__-0x5024>
    2fd8:	05000000 	streq	r0, [r0, #-0]
    2fdc:	00000025 	andeq	r0, r0, r5, lsr #32
    2fe0:	02350600 	eorseq	r0, r5, #0, 12
    2fe4:	1c020000 	stcne	0, cr0, [r2], {-0}
    2fe8:	0000860e 	andeq	r8, r0, lr, lsl #12
    2fec:	6b040700 	blvs	104bf4 <__bss_end__+0xf9c94>
    2ff0:	04000000 	streq	r0, [r0], #-0
    2ff4:	00000025 	andeq	r0, r0, r5, lsr #32
    2ff8:	0000009b 	muleq	r0, fp, r0
    2ffc:	00009b05 	andeq	r9, r0, r5, lsl #22
    3000:	04070000 	streq	r0, [r7], #-0
    3004:	000000a8 	andeq	r0, r0, r8, lsr #1
    3008:	70080103 	andvc	r0, r8, r3, lsl #2
    300c:	08000000 	stmdaeq	r0, {}	; <UNPREDICTABLE>
    3010:	000000a1 	andeq	r0, r0, r1, lsr #1
    3014:	00060806 	andeq	r0, r6, r6, lsl #16
    3018:	0e210200 	cdpeq	2, 2, cr0, cr1, cr0, {0}
    301c:	000000b9 	strheq	r0, [r0], -r9
    3020:	008c0407 	addeq	r0, ip, r7, lsl #8
    3024:	75090000 	strvc	r0, [r9, #-0]
    3028:	01000000 	mrseq	r0, (UNDEF: 0)
    302c:	97140604 	ldrls	r0, [r4, -r4, lsl #12]
    3030:	002c0000 	eoreq	r0, ip, r0
    3034:	9c010000 	stcls	0, cr0, [r1], {-0}
    3038:	0000010e 	andeq	r0, r0, lr, lsl #2
    303c:	0097280a 	addseq	r2, r7, sl, lsl #16
    3040:	0000e800 	andeq	lr, r0, r0, lsl #16
    3044:	50010b00 	andpl	r0, r1, r0, lsl #22
    3048:	a91c0305 	ldmdbge	ip, {r0, r2, r8, r9}
    304c:	0c000000 	stceq	0, cr0, [r0], {-0}
    3050:	0000972c 	andeq	r9, r0, ip, lsr #14
    3054:	0000010e 	andeq	r0, r0, lr, lsl #2
    3058:	0097340d 	addseq	r3, r7, sp, lsl #8
    305c:	00011a00 	andeq	r1, r1, r0, lsl #20
    3060:	00010400 	andeq	r0, r1, r0, lsl #8
    3064:	50010b00 	andpl	r0, r1, r0, lsl #22
    3068:	0c003a01 			; <UNDEFINED> instruction: 0x0c003a01
    306c:	00009738 	andeq	r9, r0, r8, lsr r7
    3070:	00000126 	andeq	r0, r0, r6, lsr #2
    3074:	07130e00 	ldreq	r0, [r3, -r0, lsl #28]
    3078:	07130000 	ldreq	r0, [r3, -r0]
    307c:	4d020000 	stcmi	0, cr0, [r2, #-0]
    3080:	06ef0e06 	strbteq	r0, [pc], r6, lsl #28
    3084:	06ef0000 	strbteq	r0, [pc], r0
    3088:	58020000 	stmdapl	r2, {}	; <UNPREDICTABLE>
    308c:	06e40e06 	strbteq	r0, [r4], r6, lsl #28
    3090:	06e40000 	strbteq	r0, [r4], r0
    3094:	6b020000 	blvs	8309c <__bss_end__+0x7813c>
    3098:	01900006 	orrseq	r0, r0, r6
    309c:	00040000 	andeq	r0, r4, r0
    30a0:	0000104a 	andeq	r1, r0, sl, asr #32
    30a4:	00fe0104 	rscseq	r0, lr, r4, lsl #2
    30a8:	490c0000 	stmdbmi	ip, {}	; <UNPREDICTABLE>
    30ac:	a0000007 	andge	r0, r0, r7
    30b0:	40000005 	andmi	r0, r0, r5
    30b4:	f8000097 			; <UNDEFINED> instruction: 0xf8000097
    30b8:	40000000 	andmi	r0, r0, r0
    30bc:	0200001a 	andeq	r0, r0, #26, 0
    30c0:	6e690504 	cdpvs	5, 6, cr0, cr9, cr4, {0}
    30c4:	04030074 	streq	r0, [r3], #-116	; 0xffffff8c
    30c8:	00005a07 	andeq	r5, r0, r7, lsl #20
    30cc:	06010300 	streq	r0, [r1], -r0, lsl #6
    30d0:	00000069 	andeq	r0, r0, r9, rrx
    30d4:	0f050203 	svceq	0x00050203
    30d8:	03000002 	movweq	r0, #2
    30dc:	01cd0504 	biceq	r0, sp, r4, lsl #10
    30e0:	08030000 	stmdaeq	r3, {}	; <UNPREDICTABLE>
    30e4:	0001c805 	andeq	ip, r1, r5, lsl #16
    30e8:	08010300 	stmdaeq	r1, {r8, r9}
    30ec:	00000067 	andeq	r0, r0, r7, rrx
    30f0:	82070203 	andhi	r0, r7, #805306368	; 0x30000000
    30f4:	03000000 	movweq	r0, #0
    30f8:	00550704 	subseq	r0, r5, r4, lsl #14
    30fc:	08030000 	stmdaeq	r3, {}	; <UNPREDICTABLE>
    3100:	00005007 	andeq	r5, r0, r7
    3104:	00250400 	eoreq	r0, r5, r0, lsl #8
    3108:	007a0000 	rsbseq	r0, sl, r0
    310c:	25050000 	strcs	r0, [r5, #-0]
    3110:	00000000 	andeq	r0, r0, r0
    3114:	00023506 	andeq	r3, r2, r6, lsl #10
    3118:	0e1c0200 	cdpeq	2, 1, cr0, cr12, cr0, {0}
    311c:	00000086 	andeq	r0, r0, r6, lsl #1
    3120:	006b0407 	rsbeq	r0, fp, r7, lsl #8
    3124:	25040000 	strcs	r0, [r4, #-0]
    3128:	9b000000 	blls	3130 <__code_start__-0x4ed0>
    312c:	05000000 	streq	r0, [r0, #-0]
    3130:	0000009b 	muleq	r0, fp, r0
    3134:	a8040700 	stmdage	r4, {r8, r9, sl}
    3138:	03000000 	movweq	r0, #0
    313c:	00700801 	rsbseq	r0, r0, r1, lsl #16
    3140:	a1080000 	mrsge	r0, (UNDEF: 8)
    3144:	06000000 	streq	r0, [r0], -r0
    3148:	00000608 	andeq	r0, r0, r8, lsl #12
    314c:	b90e2102 	stmdblt	lr, {r1, r8, sp}
    3150:	07000000 	streq	r0, [r0, -r0]
    3154:	00008c04 	andeq	r8, r0, r4, lsl #24
    3158:	07210900 	streq	r0, [r1, -r0, lsl #18]!
    315c:	04010000 	streq	r0, [r1], #-0
    3160:	00974006 	addseq	r4, r7, r6
    3164:	0000f800 	andeq	pc, r0, r0, lsl #16
    3168:	5b9c0100 	blpl	fe703570 <__bss_end__+0xfe6f8610>
    316c:	06000001 	streq	r0, [r0], -r1
    3170:	00000473 	andeq	r0, r0, r3, ror r4
    3174:	25100501 	ldrcs	r0, [r0, #-1281]	; 0xfffffaff
    3178:	06000000 	streq	r0, [r0], -r0
    317c:	00000525 	andeq	r0, r0, r5, lsr #10
    3180:	251f0501 	ldrcs	r0, [pc, #-1281]	; 2c87 <__code_start__-0x5379>
    3184:	0a000000 	beq	318c <__code_start__-0x4e74>
    3188:	0000003b 	andeq	r0, r0, fp, lsr r0
    318c:	0b070601 	bleq	1c4998 <__bss_end__+0x1b9a38>
    3190:	00737362 	rsbseq	r7, r3, r2, ror #6
    3194:	5b0a0a01 	blpl	2859a0 <__bss_end__+0x27aa40>
    3198:	2c000001 	stccs	0, cr0, [r0], {1}
    319c:	14000024 	strne	r0, [r0], #-36	; 0xffffffdc
    31a0:	0c000024 	stceq	0, cr0, [r0], {36}	; 0x24
    31a4:	00000729 	andeq	r0, r0, r9, lsr #14
    31a8:	5b0a0b01 	blpl	285db4 <__bss_end__+0x27ae54>
    31ac:	0d000001 	stceq	0, cr0, [r0, #-4]
    31b0:	00009818 	andeq	r9, r0, r8, lsl r8
    31b4:	00000008 	andeq	r0, r0, r8
    31b8:	00000136 	andeq	r0, r0, r6, lsr r1
    31bc:	006e690b 	rsbeq	r6, lr, fp, lsl #18
    31c0:	2c051401 	cfstrscs	mvf1, [r5], {1}
    31c4:	c6000000 	strgt	r0, [r0], -r0
    31c8:	c4000024 	strgt	r0, [r0], #-36	; 0xffffffdc
    31cc:	00000024 	andeq	r0, r0, r4, lsr #32
    31d0:	0097480e 	addseq	r4, r7, lr, lsl #16
    31d4:	00016100 	andeq	r6, r1, r0, lsl #2
    31d8:	98180e00 	ldmdals	r8, {r9, sl, fp}
    31dc:	016e0000 	cmneq	lr, r0
    31e0:	240e0000 	strcs	r0, [lr], #-0
    31e4:	7a000098 	bvc	344c <__code_start__-0x4bb4>
    31e8:	0e000001 	cdpeq	0, 0, cr0, cr0, cr1, {0}
    31ec:	00009828 	andeq	r9, r0, r8, lsr #16
    31f0:	00000187 	andeq	r0, r0, r7, lsl #3
    31f4:	25040700 	strcs	r0, [r4, #-1792]	; 0xfffff900
    31f8:	0f000000 	svceq	0x00000000
    31fc:	0000073b 	andeq	r0, r0, fp, lsr r7
    3200:	0000073b 	andeq	r0, r0, fp, lsr r7
    3204:	06013102 	streq	r3, [r1], -r2, lsl #2
    3208:	00073110 	andeq	r3, r7, r0, lsl r1
    320c:	00073100 	andeq	r3, r7, r0, lsl #2
    3210:	063b0200 	ldrteq	r0, [fp], -r0, lsl #4
    3214:	00003b0f 	andeq	r3, r0, pc, lsl #22
    3218:	00003b00 	andeq	r3, r0, r0, lsl #22
    321c:	01050200 	mrseq	r0, SP_usr
    3220:	00751006 	rsbseq	r1, r5, r6
    3224:	00750000 	rsbseq	r0, r5, r0
    3228:	6e020000 	cdpvs	0, 0, cr0, cr2, cr0, {0}
    322c:	00ce0006 	sbceq	r0, lr, r6
    3230:	00040000 	andeq	r0, r4, r0
    3234:	00001135 	andeq	r1, r0, r5, lsr r1
    3238:	00fe0104 	rscseq	r0, lr, r4, lsl #2
    323c:	5e0c0000 	cdppl	0, 0, cr0, cr12, cr0, {0}
    3240:	a0000007 	andge	r0, r0, r7
    3244:	38000005 	stmdacc	r0, {r0, r2}
    3248:	04000098 	streq	r0, [r0], #-152	; 0xffffff68
    324c:	56000000 	strpl	r0, [r0], -r0
    3250:	0200001b 	andeq	r0, r0, #27, 0
    3254:	6e690504 	cdpvs	5, 6, cr0, cr9, cr4, {0}
    3258:	04030074 	streq	r0, [r3], #-116	; 0xffffff8c
    325c:	00005a07 	andeq	r5, r0, r7, lsl #20
    3260:	06010300 	streq	r0, [r1], -r0, lsl #6
    3264:	00000069 	andeq	r0, r0, r9, rrx
    3268:	0f050203 	svceq	0x00050203
    326c:	03000002 	movweq	r0, #2
    3270:	01cd0504 	biceq	r0, sp, r4, lsl #10
    3274:	08030000 	stmdaeq	r3, {}	; <UNPREDICTABLE>
    3278:	0001c805 	andeq	ip, r1, r5, lsl #16
    327c:	08010300 	stmdaeq	r1, {r8, r9}
    3280:	00000067 	andeq	r0, r0, r7, rrx
    3284:	82070203 	andhi	r0, r7, #805306368	; 0x30000000
    3288:	03000000 	movweq	r0, #0
    328c:	00550704 	subseq	r0, r5, r4, lsl #14
    3290:	08030000 	stmdaeq	r3, {}	; <UNPREDICTABLE>
    3294:	00005007 	andeq	r5, r0, r7
    3298:	00250400 	eoreq	r0, r5, r0, lsl #8
    329c:	007a0000 	rsbseq	r0, sl, r0
    32a0:	25050000 	strcs	r0, [r5, #-0]
    32a4:	00000000 	andeq	r0, r0, r0
    32a8:	00023506 	andeq	r3, r2, r6, lsl #10
    32ac:	0e1c0200 	cdpeq	2, 1, cr0, cr12, cr0, {0}
    32b0:	00000086 	andeq	r0, r0, r6, lsl #1
    32b4:	006b0407 	rsbeq	r0, fp, r7, lsl #8
    32b8:	25040000 	strcs	r0, [r4, #-0]
    32bc:	9b000000 	blls	32c4 <__code_start__-0x4d3c>
    32c0:	05000000 	streq	r0, [r0, #-0]
    32c4:	0000009b 	muleq	r0, fp, r0
    32c8:	a8040700 	stmdage	r4, {r8, r9, sl}
    32cc:	03000000 	movweq	r0, #0
    32d0:	00700801 	rsbseq	r0, r0, r1, lsl #16
    32d4:	a1080000 	mrsge	r0, (UNDEF: 8)
    32d8:	06000000 	streq	r0, [r0], -r0
    32dc:	00000608 	andeq	r0, r0, r8, lsl #12
    32e0:	b90e2102 	stmdblt	lr, {r1, r8, sp}
    32e4:	07000000 	streq	r0, [r0, -r0]
    32e8:	00008c04 	andeq	r8, r0, r4, lsl #24
    32ec:	073b0900 	ldreq	r0, [fp, -r0, lsl #18]!
    32f0:	04010000 	streq	r0, [r1], #-0
    32f4:	00983806 	addseq	r3, r8, r6, lsl #16
    32f8:	00000400 	andeq	r0, r0, r0, lsl #8
    32fc:	009c0100 	addseq	r0, ip, r0, lsl #2
    3300:	0000027d 	andeq	r0, r0, sp, ror r2
    3304:	11ae0004 			; <UNDEFINED> instruction: 0x11ae0004
    3308:	01040000 	mrseq	r0, (UNDEF: 4)
    330c:	000000fe 	strdeq	r0, [r0], -lr
    3310:	0007a60c 	andeq	sl, r7, ip, lsl #12
    3314:	0005a000 	andeq	sl, r5, r0
    3318:	0003f000 	andeq	pc, r3, r0
    331c:	00000000 	andeq	r0, r0, r0
    3320:	001bd700 	andseq	sp, fp, r0, lsl #14
    3324:	05040200 	streq	r0, [r4, #-512]	; 0xfffffe00
    3328:	00746e69 	rsbseq	r6, r4, r9, ror #28
    332c:	00002503 	andeq	r2, r0, r3, lsl #10
    3330:	07040400 	streq	r0, [r4, -r0, lsl #8]
    3334:	0000005a 	andeq	r0, r0, sl, asr r0
    3338:	69060104 	stmdbvs	r6, {r2, r8}
    333c:	04000000 	streq	r0, [r0], #-0
    3340:	020f0502 	andeq	r0, pc, #8388608	; 0x800000
    3344:	04040000 	streq	r0, [r4], #-0
    3348:	0001cd05 	andeq	ip, r1, r5, lsl #26
    334c:	05080400 	streq	r0, [r8, #-1024]	; 0xfffffc00
    3350:	000001c8 	andeq	r0, r0, r8, asr #3
    3354:	67080104 	strvs	r0, [r8, -r4, lsl #2]
    3358:	04000000 	streq	r0, [r0], #-0
    335c:	00820702 	addeq	r0, r2, r2, lsl #14
    3360:	04040000 	streq	r0, [r4], #-0
    3364:	00005507 	andeq	r5, r0, r7, lsl #10
    3368:	07080400 	streq	r0, [r8, -r0, lsl #8]
    336c:	00000050 	andeq	r0, r0, r0, asr r0
    3370:	00002505 	andeq	r2, r0, r5, lsl #10
    3374:	00007f00 	andeq	r7, r0, r0, lsl #30
    3378:	00250600 	eoreq	r0, r5, r0, lsl #12
    337c:	07000000 	streq	r0, [r0, -r0]
    3380:	00000235 	andeq	r0, r0, r5, lsr r2
    3384:	8b0e1c02 	blhi	38a394 <__bss_end__+0x37f434>
    3388:	08000000 	stmdaeq	r0, {}	; <UNPREDICTABLE>
    338c:	00007004 	andeq	r7, r0, r4
    3390:	00250500 	eoreq	r0, r5, r0, lsl #10
    3394:	00a00000 	adceq	r0, r0, r0
    3398:	a0060000 	andge	r0, r6, r0
    339c:	00000000 	andeq	r0, r0, r0
    33a0:	00ad0408 	adceq	r0, sp, r8, lsl #8
    33a4:	01040000 	mrseq	r0, (UNDEF: 4)
    33a8:	00007008 	andeq	r7, r0, r8
    33ac:	00a60300 	adceq	r0, r6, r0, lsl #6
    33b0:	08070000 	stmdaeq	r7, {}	; <UNPREDICTABLE>
    33b4:	02000006 	andeq	r0, r0, #6, 0
    33b8:	00be0e21 	adcseq	r0, lr, r1, lsr #28
    33bc:	04080000 	streq	r0, [r8], #-0
    33c0:	00000091 	muleq	r0, r1, r0
    33c4:	0007ca09 	andeq	ip, r7, r9, lsl #20
    33c8:	110d0100 	mrsne	r0, (UNDEF: 29)
    33cc:	00000031 	andeq	r0, r0, r1, lsr r0
    33d0:	0006e40a 	andeq	lr, r6, sl, lsl #8
    33d4:	061f0100 	ldreq	r0, [pc], -r0, lsl #2
    33d8:	00009868 	andeq	r9, r0, r8, ror #16
    33dc:	00000060 	andeq	r0, r0, r0, rrx
    33e0:	01d59c01 	bicseq	r9, r5, r1, lsl #24
    33e4:	ee0b0000 	cdp	0, 0, cr0, cr11, cr0, {0}
    33e8:	01000007 	tsteq	r0, r7
    33ec:	002c0f2c 	eoreq	r0, ip, ip, lsr #30
    33f0:	001c0000 	andseq	r0, ip, r0
    33f4:	890b2010 	stmdbhi	fp, {r4, sp}
    33f8:	01000007 	tsteq	r0, r7
    33fc:	002c0f2d 	eoreq	r0, ip, sp, lsr #30
    3400:	00240000 	eoreq	r0, r4, r0
    3404:	bb0b2010 	bllt	2cb44c <__bss_end__+0x2c04ec>
    3408:	01000007 	tsteq	r0, r7
    340c:	002c0f2e 	eoreq	r0, ip, lr, lsr #30
    3410:	00000000 	andeq	r0, r0, r0
    3414:	d50c5a00 	strle	r5, [ip, #-2560]	; 0xfffff600
    3418:	01000007 	tsteq	r0, r7
    341c:	002c0f2f 	eoreq	r0, ip, pc, lsr #30
    3420:	0d200000 	stceq	0, cr0, [r0, #-0]
    3424:	000001ef 	andeq	r0, r0, pc, ror #3
    3428:	00009868 	andeq	r9, r0, r8, ror #16
    342c:	0003d802 	andeq	sp, r3, r2, lsl #16
    3430:	08200100 	stmdaeq	r0!, {r8}
    3434:	0000014c 	andeq	r0, r0, ip, asr #2
    3438:	0003d80e 	andeq	sp, r3, lr, lsl #16
    343c:	02000f00 	andeq	r0, r0, #0, 30
    3440:	24de0000 	ldrbcs	r0, [lr], #0
    3444:	24da0000 	ldrbcs	r0, [sl], #0
    3448:	00000000 	andeq	r0, r0, r0
    344c:	0001d510 	andeq	sp, r1, r0, lsl r5
    3450:	00987c00 	addseq	r7, r8, r0, lsl #24
    3454:	987c0100 	ldmdals	ip!, {r8}^
    3458:	00100000 	andseq	r0, r0, r0
    345c:	21010000 	mrscs	r0, (UNDEF: 1)
    3460:	00017309 	andeq	r7, r1, r9, lsl #6
    3464:	01e20f00 	mvneq	r0, r0, lsl #30
    3468:	25050000 	strcs	r0, [r5, #-0]
    346c:	24fd0000 	ldrbtcs	r0, [sp], #0
    3470:	11000000 	mrsne	r0, (UNDEF: 0)
    3474:	00009890 	muleq	r0, r0, r8
    3478:	0000024f 	andeq	r0, r0, pc, asr #4
    347c:	00989411 	addseq	r9, r8, r1, lsl r4
    3480:	00025c00 	andeq	r5, r2, r0, lsl #24
    3484:	989c1200 	ldmls	ip, {r9, ip}
    3488:	02680000 	rsbeq	r0, r8, #0, 0
    348c:	01980000 	orrseq	r0, r8, r0
    3490:	01130000 	tsteq	r3, r0
    3494:	003a0150 	eorseq	r0, sl, r0, asr r1
    3498:	0098a812 	addseq	sl, r8, r2, lsl r8
    349c:	00027400 	andeq	r7, r2, r0, lsl #8
    34a0:	0001b800 	andeq	fp, r1, r0, lsl #16
    34a4:	50011300 	andpl	r1, r1, r0, lsl #6
    34a8:	00240c05 	eoreq	r0, r4, r5, lsl #24
    34ac:	01132010 	tsteq	r3, r0, lsl r0
    34b0:	010c0551 	tsteq	ip, r1, asr r5
    34b4:	005a0000 	subseq	r0, sl, r0
    34b8:	0098b414 	addseq	fp, r8, r4, lsl r4
    34bc:	00027400 	andeq	r7, r2, r0, lsl #8
    34c0:	50011300 	andpl	r1, r1, r0, lsl #6
    34c4:	001c0c05 	andseq	r0, ip, r5, lsl #24
    34c8:	01132010 	tsteq	r3, r0, lsl r0
    34cc:	200c0551 	andcs	r0, ip, r1, asr r5
    34d0:	005a0000 	subseq	r0, sl, r0
    34d4:	07971500 	ldreq	r1, [r7, r0, lsl #10]
    34d8:	17010000 	strne	r0, [r1, -r0]
    34dc:	01ef0106 	mvneq	r0, r6, lsl #2
    34e0:	f6090000 			; <UNDEFINED> instruction: 0xf6090000
    34e4:	01000007 	tsteq	r0, r7
    34e8:	00310e18 	eorseq	r0, r1, r8, lsl lr
    34ec:	16000000 	strne	r0, [r0], -r0
    34f0:	000007c7 	andeq	r0, r0, r7, asr #15
    34f4:	25050e01 	strcs	r0, [r5, #-3585]	; 0xfffff1ff
    34f8:	01000000 	mrseq	r0, (UNDEF: 0)
    34fc:	0000020d 	andeq	r0, r0, sp, lsl #4
    3500:	0007f609 	andeq	pc, r7, r9, lsl #12
    3504:	0e0f0100 	adfeqe	f0, f7, f0
    3508:	00000031 	andeq	r0, r0, r1, lsr r0
    350c:	01ef1700 	mvneq	r1, r0, lsl #14
    3510:	983c0000 	ldmdals	ip!, {}	; <UNPREDICTABLE>
    3514:	00180000 	andseq	r0, r8, r0
    3518:	9c010000 	stcls	0, cr0, [r1], {-0}
    351c:	0000022e 	andeq	r0, r0, lr, lsr #4
    3520:	0002000f 	andeq	r0, r2, pc
    3524:	00254200 	eoreq	r4, r5, r0, lsl #4
    3528:	00253e00 	eoreq	r3, r5, r0, lsl #28
    352c:	d5170000 	ldrle	r0, [r7, #-0]
    3530:	54000001 	strpl	r0, [r0], #-1
    3534:	14000098 	strne	r0, [r0], #-152	; 0xffffff68
    3538:	01000000 	mrseq	r0, (UNDEF: 0)
    353c:	00024f9c 	muleq	r2, ip, pc	; <UNPREDICTABLE>
    3540:	01e20f00 	mvneq	r0, r0, lsl #30
    3544:	25690000 	strbcs	r0, [r9, #-0]!
    3548:	25610000 	strbcs	r0, [r1, #-0]!
    354c:	18000000 	stmdane	r0, {}	; <UNPREDICTABLE>
    3550:	0000077a 	andeq	r0, r0, sl, ror r7
    3554:	0000077a 	andeq	r0, r0, sl, ror r7
    3558:	06013602 	streq	r3, [r1], -r2, lsl #12
    355c:	00071319 	andeq	r1, r7, r9, lsl r3
    3560:	00071300 	andeq	r1, r7, r0, lsl #6
    3564:	064d0200 	strbeq	r0, [sp], -r0, lsl #4
    3568:	0006ef19 	andeq	lr, r6, r9, lsl pc
    356c:	0006ef00 	andeq	lr, r6, r0, lsl #30
    3570:	06580200 	ldrbeq	r0, [r8], -r0, lsl #4
    3574:	00079119 	andeq	r9, r7, r9, lsl r1
    3578:	00079100 	andeq	r9, r7, r0, lsl #2
    357c:	06ad0200 	strteq	r0, [sp], r0, lsl #4
    3580:	00053f00 	andeq	r3, r5, r0, lsl #30
    3584:	31000400 	tstcc	r0, r0, lsl #8
    3588:	04000013 	streq	r0, [r0], #-19	; 0xffffffed
    358c:	0000fe01 	andeq	pc, r0, r1, lsl #28
    3590:	08110c00 	ldmdaeq	r1, {sl, fp}
    3594:	05a00000 	streq	r0, [r0, #0]!
    3598:	98c80000 	stmials	r8, {}^	; <UNPREDICTABLE>
    359c:	011c0000 	tsteq	ip, r0
    35a0:	1cef0000 	stclne	0, cr0, [pc]	; 35a8 <__code_start__-0x4a58>
    35a4:	04020000 	streq	r0, [r2], #-0
    35a8:	746e6905 	strbtvc	r6, [lr], #-2309	; 0xfffff6fb
    35ac:	07040300 	streq	r0, [r4, -r0, lsl #6]
    35b0:	0000005a 	andeq	r0, r0, sl, asr r0
    35b4:	69060103 	stmdbvs	r6, {r0, r1, r8}
    35b8:	03000000 	movweq	r0, #0
    35bc:	020f0502 	andeq	r0, pc, #8388608	; 0x800000
    35c0:	04030000 	streq	r0, [r3], #-0
    35c4:	0001cd05 	andeq	ip, r1, r5, lsl #26
    35c8:	05080300 	streq	r0, [r8, #-768]	; 0xfffffd00
    35cc:	000001c8 	andeq	r0, r0, r8, asr #3
    35d0:	67080103 	strvs	r0, [r8, -r3, lsl #2]
    35d4:	03000000 	movweq	r0, #0
    35d8:	00820702 	addeq	r0, r2, r2, lsl #14
    35dc:	04030000 	streq	r0, [r3], #-0
    35e0:	00005507 	andeq	r5, r0, r7, lsl #10
    35e4:	07080300 	streq	r0, [r8, -r0, lsl #6]
    35e8:	00000050 	andeq	r0, r0, r0, asr r0
    35ec:	00002504 	andeq	r2, r0, r4, lsl #10
    35f0:	00007a00 	andeq	r7, r0, r0, lsl #20
    35f4:	00250500 	eoreq	r0, r5, r0, lsl #10
    35f8:	06000000 	streq	r0, [r0], -r0
    35fc:	00000235 	andeq	r0, r0, r5, lsr r2
    3600:	860e1c02 	strhi	r1, [lr], -r2, lsl #24
    3604:	07000000 	streq	r0, [r0, -r0]
    3608:	00006b04 	andeq	r6, r0, r4, lsl #22
    360c:	00250400 	eoreq	r0, r5, r0, lsl #8
    3610:	009b0000 	addseq	r0, fp, r0
    3614:	9b050000 	blls	14361c <__bss_end__+0x1386bc>
    3618:	00000000 	andeq	r0, r0, r0
    361c:	00a80407 	adceq	r0, r8, r7, lsl #8
    3620:	01030000 	mrseq	r0, (UNDEF: 3)
    3624:	00007008 	andeq	r7, r0, r8
    3628:	00a10800 	adceq	r0, r1, r0, lsl #16
    362c:	08060000 	stmdaeq	r6, {}	; <UNPREDICTABLE>
    3630:	02000006 	andeq	r0, r0, #6, 0
    3634:	00b90e21 	adcseq	r0, r9, r1, lsr #28
    3638:	04070000 	streq	r0, [r7], #-0
    363c:	0000008c 	andeq	r0, r0, ip, lsl #1
    3640:	00080709 	andeq	r0, r8, r9, lsl #14
    3644:	061e0100 	ldreq	r0, [lr], -r0, lsl #2
    3648:	00009990 	muleq	r0, r0, r9
    364c:	00000054 	andeq	r0, r0, r4, asr r0
    3650:	020b9c01 	andeq	r9, fp, #256	; 0x100
    3654:	730a0000 	movwvc	r0, #40960	; 0xa000
    3658:	01006365 	tsteq	r0, r5, ror #6
    365c:	002c191e 	eoreq	r1, ip, lr, lsl r9
    3660:	25a60000 	strcs	r0, [r6, #0]!
    3664:	25a20000 	strcs	r0, [r2, #0]!
    3668:	0b0b0000 	bleq	2c3670 <__bss_end__+0x2b8710>
    366c:	90000002 	andls	r0, r0, r2
    3670:	02000099 	andeq	r0, r0, #153, 0	; 0x99
    3674:	000004b8 			; <UNDEFINED> instruction: 0x000004b8
    3678:	0c051f01 	stceq	15, cr1, [r5], {1}
    367c:	00000218 	andeq	r0, r0, r8, lsl r2
    3680:	000025cb 	andeq	r2, r0, fp, asr #11
    3684:	000025c7 	andeq	r2, r0, r7, asr #11
    3688:	0002240d 	andeq	r2, r2, sp, lsl #8
    368c:	0099a400 	addseq	sl, r9, r0, lsl #8
    3690:	99a40000 	stmibls	r4!, {}	; <UNPREDICTABLE>
    3694:	00400000 	subeq	r0, r0, r0
    3698:	1c010000 	stcne	0, cr0, [r1], {-0}
    369c:	02310c05 	eorseq	r0, r1, #1280	; 0x500
    36a0:	25f80000 	ldrbcs	r0, [r8, #0]!
    36a4:	25f60000 	ldrbcs	r0, [r6, #0]!
    36a8:	3c0e0000 	stccc	0, cr0, [lr], {-0}
    36ac:	0d000002 	stceq	0, cr0, [r0, #-8]
    36b0:	0b000026 	bleq	3750 <__code_start__-0x48b0>
    36b4:	0f000026 	svceq	0x00000026
    36b8:	00000255 	andeq	r0, r0, r5, asr r2
    36bc:	000099a4 	andeq	r9, r0, r4, lsr #19
    36c0:	0099a402 	addseq	sl, r9, r2, lsl #8
    36c4:	00001400 	andeq	r1, r0, r0, lsl #8
    36c8:	13130100 	tstne	r3, #0
    36cc:	0000019c 	muleq	r0, ip, r1
    36d0:	0002660e 	andeq	r6, r2, lr, lsl #12
    36d4:	00262400 	eoreq	r2, r6, r0, lsl #8
    36d8:	00262000 	eoreq	r2, r6, r0
    36dc:	02710f00 	rsbseq	r0, r1, #0, 30
    36e0:	99a80000 	stmibls	r8!, {}	; <UNPREDICTABLE>
    36e4:	a8010000 	stmdage	r1, {}	; <UNPREDICTABLE>
    36e8:	0c000099 	stceq	0, cr0, [r0], {153}	; 0x99
    36ec:	01000000 	mrseq	r0, (UNDEF: 0)
    36f0:	0189120d 	orreq	r1, r9, sp, lsl #4
    36f4:	b0100000 	andslt	r0, r0, r0
    36f8:	2a000099 	bcs	3964 <__code_start__-0x469c>
    36fc:	11000005 	tstne	r0, r5
    3700:	0c055001 	stceq	0, cr5, [r5], {1}
    3704:	20003004 	andcs	r3, r0, r4
    3708:	a8120000 	ldmdage	r2, {}	; <UNPREDICTABLE>
    370c:	36000099 			; <UNDEFINED> instruction: 0x36000099
    3710:	12000005 	andne	r0, r0, #5, 0
    3714:	000099b8 			; <UNDEFINED> instruction: 0x000099b8
    3718:	00000536 	andeq	r0, r0, r6, lsr r5
    371c:	02471300 	subeq	r1, r7, #0, 6
    3720:	04d00000 	ldrbeq	r0, [r0], #0
    3724:	48140000 	ldmdami	r4, {}	; <UNPREDICTABLE>
    3728:	0b000002 	bleq	3738 <__code_start__-0x48c8>
    372c:	00000255 	andeq	r0, r0, r5, asr r2
    3730:	000099bc 			; <UNDEFINED> instruction: 0x000099bc
    3734:	0004e802 	andeq	lr, r4, r2, lsl #16
    3738:	17150100 	ldrne	r0, [r5, -r0, lsl #2]
    373c:	0004e815 	andeq	lr, r4, r5, lsl r8
    3740:	02660e00 	rsbeq	r0, r6, #0, 28
    3744:	26440000 	strbcs	r0, [r4], -r0
    3748:	26420000 	strbcs	r0, [r2], -r0
    374c:	71160000 	tstvc	r6, r0
    3750:	c0000002 	andgt	r0, r0, r2
    3754:	01000099 	swpeq	r0, r9, [r0]	; <UNPREDICTABLE>
    3758:	00000508 	andeq	r0, r0, r8, lsl #10
    375c:	f3120d01 	vpadd.f16	d0, d2, d1
    3760:	10000001 	andne	r0, r0, r1
    3764:	000099c8 	andeq	r9, r0, r8, asr #19
    3768:	0000052a 	andeq	r0, r0, sl, lsr #10
    376c:	02500111 	subseq	r0, r0, #1073741828	; 0x40000004
    3770:	00000077 	andeq	r0, r0, r7, ror r0
    3774:	0099c012 	addseq	ip, r9, r2, lsl r0
    3778:	00053600 	andeq	r3, r5, r0, lsl #12
    377c:	99d41200 	ldmibls	r4, {r9, ip}^
    3780:	05360000 	ldreq	r0, [r6, #-0]!
	...
    378c:	0006ef17 	andeq	lr, r6, r7, lsl pc
    3790:	061b0100 	ldreq	r0, [fp], -r0, lsl #2
    3794:	00022401 	andeq	r2, r2, r1, lsl #8
    3798:	736d1800 	cmnvc	sp, #0, 16
    379c:	181b0100 	ldmdane	fp, {r8}
    37a0:	0000002c 	andeq	r0, r0, ip, lsr #32
    37a4:	083a1700 	ldmdaeq	sl!, {r8, r9, sl, ip}
    37a8:	12010000 	andne	r0, r1, #0, 0
    37ac:	02550106 	subseq	r0, r5, #-2147483647	; 0x80000001
    37b0:	75180000 	ldrvc	r0, [r8, #-0]
    37b4:	12010073 	andne	r0, r1, #115, 0	; 0x73
    37b8:	00002c18 	andeq	r2, r0, r8, lsl ip
    37bc:	62721900 	rsbsvs	r1, r2, #0, 18
    37c0:	0e130100 	mufeqs	f0, f3, f0
    37c4:	0000002c 	andeq	r0, r0, ip, lsr #32
    37c8:	6172191a 	cmnvs	r2, sl, lsl r9
    37cc:	12150100 	andsne	r0, r5, #0
    37d0:	0000002c 	andeq	r0, r0, ip, lsr #32
    37d4:	2b1b0000 	blcs	6c37dc <__bss_end__+0x6b887c>
    37d8:	01000008 	tsteq	r0, r8
    37dc:	002c0a09 	eoreq	r0, ip, r9, lsl #20
    37e0:	71010000 	mrsvc	r0, (UNDEF: 1)
    37e4:	19000002 	stmdbne	r0, {r1}
    37e8:	0d010075 	stceq	0, cr0, [r1, #-468]	; 0xfffffe2c
    37ec:	00002c0e 	andeq	r2, r0, lr, lsl #24
    37f0:	431c0000 	tstmi	ip, #0, 0
    37f4:	01000008 	tsteq	r0, r8
    37f8:	002c0a04 	eoreq	r0, ip, r4, lsl #20
    37fc:	1d010000 	stcne	0, cr0, [r1, #-0]
    3800:	00000271 	andeq	r0, r0, r1, ror r2
    3804:	000098c8 	andeq	r9, r0, r8, asr #17
    3808:	0000000c 	andeq	r0, r0, ip
    380c:	02a59c01 	adceq	r9, r5, #256	; 0x100
    3810:	d01e0000 	andsle	r0, lr, r0
    3814:	2a000098 	bcs	3a7c <__code_start__-0x4584>
    3818:	11000005 	tstne	r0, r5
    381c:	0c055001 	stceq	0, cr5, [r5], {1}
    3820:	20003004 	andcs	r3, r0, r4
    3824:	551d0000 	ldrpl	r0, [sp, #-0]
    3828:	d4000002 	strle	r0, [r0], #-2
    382c:	24000098 	strcs	r0, [r0], #-152	; 0xffffff68
    3830:	01000000 	mrseq	r0, (UNDEF: 0)
    3834:	0003059c 	muleq	r3, ip, r5
    3838:	02660e00 	rsbeq	r0, r6, #0, 28
    383c:	265b0000 	ldrbcs	r0, [fp], -r0
    3840:	26570000 	ldrbcs	r0, [r7], -r0
    3844:	710f0000 	mrsvc	r0, CPSR
    3848:	dc000002 	stcle	0, cr0, [r0], {2}
    384c:	01000098 	swpeq	r0, r8, [r0]	; <UNPREDICTABLE>
    3850:	000098dc 	ldrdeq	r9, [r0], -ip
    3854:	0000000c 	andeq	r0, r0, ip
    3858:	f2120d01 	vadd.f16	d0, d2, d1
    385c:	10000002 	andne	r0, r0, r2
    3860:	000098e4 	andeq	r9, r0, r4, ror #17
    3864:	0000052a 	andeq	r0, r0, sl, lsr #10
    3868:	05500111 	ldrbeq	r0, [r0, #-273]	; 0xfffffeef
    386c:	0030040c 	eorseq	r0, r0, ip, lsl #8
    3870:	12000020 	andne	r0, r0, #32, 0
    3874:	000098dc 	ldrdeq	r9, [r0], -ip
    3878:	00000536 	andeq	r0, r0, r6, lsr r5
    387c:	0098ec12 	addseq	lr, r8, r2, lsl ip
    3880:	00053600 	andeq	r3, r5, r0, lsl #12
    3884:	241d0000 	ldrcs	r0, [sp], #-0
    3888:	f8000002 			; <UNDEFINED> instruction: 0xf8000002
    388c:	48000098 	stmdami	r0, {r3, r4, r7}
    3890:	01000000 	mrseq	r0, (UNDEF: 0)
    3894:	0004079c 	muleq	r4, ip, r7
    3898:	02310c00 	eorseq	r0, r1, #0, 24
    389c:	267d0000 	ldrbtcs	r0, [sp], -r0
    38a0:	26790000 	ldrbtcs	r0, [r9], -r0
    38a4:	3c0e0000 	stccc	0, cr0, [lr], {-0}
    38a8:	9d000002 	stcls	0, cr0, [r0, #-8]
    38ac:	9b000026 	blls	394c <__code_start__-0x46b4>
    38b0:	16000026 	strne	r0, [r0], -r6, lsr #32
    38b4:	00000255 	andeq	r0, r0, r5, asr r2
    38b8:	000098f8 	strdeq	r9, [r0], -r8
    38bc:	00040002 	andeq	r0, r4, r2
    38c0:	13130100 	tstne	r3, #0
    38c4:	0000039a 	muleq	r0, sl, r3
    38c8:	00040015 	andeq	r0, r4, r5, lsl r0
    38cc:	02660e00 	rsbeq	r0, r6, #0, 28
    38d0:	26b40000 	ldrtcs	r0, [r4], r0
    38d4:	26b00000 	ldrtcs	r0, [r0], r0
    38d8:	710f0000 	mrsvc	r0, CPSR
    38dc:	04000002 	streq	r0, [r0], #-2
    38e0:	01000099 	swpeq	r0, r9, [r0]	; <UNPREDICTABLE>
    38e4:	00009904 	andeq	r9, r0, r4, lsl #18
    38e8:	0000000c 	andeq	r0, r0, ip
    38ec:	86120d01 	ldrhi	r0, [r2], -r1, lsl #26
    38f0:	10000003 	andne	r0, r0, r3
    38f4:	0000990c 	andeq	r9, r0, ip, lsl #18
    38f8:	0000052a 	andeq	r0, r0, sl, lsr #10
    38fc:	05500111 	ldrbeq	r0, [r0, #-273]	; 0xfffffeef
    3900:	0030040c 	eorseq	r0, r0, ip, lsl #8
    3904:	12000020 	andne	r0, r0, #32, 0
    3908:	00009904 	andeq	r9, r0, r4, lsl #18
    390c:	00000536 	andeq	r0, r0, r6, lsr r5
    3910:	00991412 	addseq	r1, r9, r2, lsl r4
    3914:	00053600 	andeq	r3, r5, r0, lsl #12
    3918:	13000000 	movwne	r0, #0
    391c:	00000247 	andeq	r0, r0, r7, asr #4
    3920:	00000418 	andeq	r0, r0, r8, lsl r4
    3924:	00024814 	andeq	r4, r2, r4, lsl r8
    3928:	02550b00 	subseq	r0, r5, #0, 22
    392c:	99180000 	ldmdbls	r8, {}	; <UNPREDICTABLE>
    3930:	30020000 	andcc	r0, r2, r0
    3934:	01000004 	tsteq	r0, r4
    3938:	30151715 	andscc	r1, r5, r5, lsl r7
    393c:	0e000004 	cdpeq	0, 0, cr0, cr0, cr4, {0}
    3940:	00000266 	andeq	r0, r0, r6, ror #4
    3944:	000026d4 	ldrdeq	r2, [r0], -r4
    3948:	000026d2 	ldrdeq	r2, [r0], -r2	; <UNPREDICTABLE>
    394c:	00027116 	andeq	r7, r2, r6, lsl r1
    3950:	00991c00 	addseq	r1, r9, r0, lsl #24
    3954:	04500100 	ldrbeq	r0, [r0], #-256	; 0xffffff00
    3958:	0d010000 	stceq	0, cr0, [r1, #-0]
    395c:	0003f112 	andeq	pc, r3, r2, lsl r1	; <UNPREDICTABLE>
    3960:	99241000 	stmdbls	r4!, {ip}
    3964:	052a0000 	streq	r0, [sl, #-0]!
    3968:	01110000 	tsteq	r1, r0
    396c:	00770250 	rsbseq	r0, r7, r0, asr r2
    3970:	1c120000 	ldcne	0, cr0, [r2], {-0}
    3974:	36000099 			; <UNDEFINED> instruction: 0x36000099
    3978:	12000005 	andne	r0, r0, #5, 0
    397c:	00009930 	andeq	r9, r0, r0, lsr r9
    3980:	00000536 	andeq	r0, r0, r6, lsr r5
    3984:	00000000 	andeq	r0, r0, r0
    3988:	00020b1d 	andeq	r0, r2, sp, lsl fp
    398c:	00994000 	addseq	r4, r9, r0
    3990:	00005000 	andeq	r5, r0, r0
    3994:	2a9c0100 	bcs	fe703d9c <__bss_end__+0xfe6f8e3c>
    3998:	0c000005 	stceq	0, cr0, [r0], {5}
    399c:	00000218 	andeq	r0, r0, r8, lsl r2
    39a0:	000026eb 	andeq	r2, r0, fp, ror #13
    39a4:	000026e7 	andeq	r2, r0, r7, ror #13
    39a8:	0002240d 	andeq	r2, r2, sp, lsl #8
    39ac:	00995000 	addseq	r5, r9, r0
    39b0:	99500000 	ldmdbls	r0, {}^	; <UNPREDICTABLE>
    39b4:	00400000 	subeq	r0, r0, r0
    39b8:	1c010000 	stcne	0, cr0, [r1], {-0}
    39bc:	02310c05 	eorseq	r0, r1, #1280	; 0x500
    39c0:	270e0000 	strcs	r0, [lr, -r0]
    39c4:	270c0000 	strcs	r0, [ip, -r0]
    39c8:	3c0e0000 	stccc	0, cr0, [lr], {-0}
    39cc:	23000002 	movwcs	r0, #2
    39d0:	21000027 	tstcs	r0, r7, lsr #32
    39d4:	0f000027 	svceq	0x00000027
    39d8:	00000255 	andeq	r0, r0, r5, asr r2
    39dc:	00009950 	andeq	r9, r0, r0, asr r9
    39e0:	00995002 	addseq	r5, r9, r2
    39e4:	00001400 	andeq	r1, r0, r0, lsl #8
    39e8:	13130100 	tstne	r3, #0
    39ec:	000004bc 			; <UNDEFINED> instruction: 0x000004bc
    39f0:	0002660e 	andeq	r6, r2, lr, lsl #12
    39f4:	00273a00 	eoreq	r3, r7, r0, lsl #20
    39f8:	00273600 	eoreq	r3, r7, r0, lsl #12
    39fc:	02710f00 	rsbseq	r0, r1, #0, 30
    3a00:	99540000 	ldmdbls	r4, {}^	; <UNPREDICTABLE>
    3a04:	54010000 	strpl	r0, [r1], #-0
    3a08:	0c000099 	stceq	0, cr0, [r0], {153}	; 0x99
    3a0c:	01000000 	mrseq	r0, (UNDEF: 0)
    3a10:	04a9120d 	strteq	r1, [r9], #525	; 0x20d
    3a14:	5c100000 	ldcpl	0, cr0, [r0], {-0}
    3a18:	2a000099 	bcs	3c84 <__code_start__-0x437c>
    3a1c:	11000005 	tstne	r0, r5
    3a20:	0c055001 	stceq	0, cr5, [r5], {1}
    3a24:	20003004 	andcs	r3, r0, r4
    3a28:	54120000 	ldrpl	r0, [r2], #-0
    3a2c:	36000099 			; <UNDEFINED> instruction: 0x36000099
    3a30:	12000005 	andne	r0, r0, #5, 0
    3a34:	00009964 	andeq	r9, r0, r4, ror #18
    3a38:	00000536 	andeq	r0, r0, r6, lsr r5
    3a3c:	02471300 	subeq	r1, r7, #0, 6
    3a40:	04680000 	strbteq	r0, [r8], #-0
    3a44:	48140000 	ldmdami	r4, {}	; <UNPREDICTABLE>
    3a48:	0b000002 	bleq	3a58 <__code_start__-0x45a8>
    3a4c:	00000255 	andeq	r0, r0, r5, asr r2
    3a50:	00009968 	andeq	r9, r0, r8, ror #18
    3a54:	00048002 	andeq	r8, r4, r2
    3a58:	17150100 	ldrne	r0, [r5, -r0, lsl #2]
    3a5c:	00048015 	andeq	r8, r4, r5, lsl r0
    3a60:	02660e00 	rsbeq	r0, r6, #0, 28
    3a64:	275a0000 	ldrbcs	r0, [sl, -r0]
    3a68:	27580000 	ldrbcs	r0, [r8, -r0]
    3a6c:	71160000 	tstvc	r6, r0
    3a70:	6c000002 	stcvs	0, cr0, [r0], {2}
    3a74:	01000099 	swpeq	r0, r9, [r0]	; <UNPREDICTABLE>
    3a78:	000004a0 	andeq	r0, r0, r0, lsr #9
    3a7c:	13120d01 	tstne	r2, #64	; 0x40
    3a80:	10000005 	andne	r0, r0, r5
    3a84:	00009974 	andeq	r9, r0, r4, ror r9
    3a88:	0000052a 	andeq	r0, r0, sl, lsr #10
    3a8c:	02500111 	subseq	r0, r0, #1073741828	; 0x40000004
    3a90:	00000077 	andeq	r0, r0, r7, ror r0
    3a94:	00996c12 	addseq	r6, r9, r2, lsl ip
    3a98:	00053600 	andeq	r3, r5, r0, lsl #12
    3a9c:	99801200 	stmibls	r0, {r9, ip}
    3aa0:	05360000 	ldreq	r0, [r6, #-0]!
    3aa4:	00000000 	andeq	r0, r0, r0
    3aa8:	1f000000 	svcne	0x00000000
    3aac:	00000825 	andeq	r0, r0, r5, lsr #16
    3ab0:	00000825 	andeq	r0, r0, r5, lsr #16
    3ab4:	1f0ac202 	svcne	0x000ac202
    3ab8:	000007fb 	strdeq	r0, [r0], -fp
    3abc:	000007fb 	strdeq	r0, [r0], -fp
    3ac0:	00069c02 	andeq	r9, r6, r2, lsl #24
    3ac4:	000005cd 	andeq	r0, r0, sp, asr #11
    3ac8:	15000004 	strne	r0, [r0, #-4]
    3acc:	01040000 	mrseq	r0, (UNDEF: 4)
    3ad0:	00000956 	andeq	r0, r0, r6, asr r9
    3ad4:	0008950c 	andeq	r9, r8, ip, lsl #10
    3ad8:	00090600 	andeq	r0, r9, r0, lsl #12
    3adc:	0099e400 	addseq	lr, r9, r0, lsl #8
    3ae0:	0001f000 	andeq	pc, r1, r0
    3ae4:	001eed00 	andseq	lr, lr, r0, lsl #26
    3ae8:	05040200 	streq	r0, [r4, #-512]	; 0xfffffe00
    3aec:	00746e69 	rsbseq	r6, r4, r9, ror #28
    3af0:	5a070403 	bpl	1c4b04 <__bss_end__+0x1b9ba4>
    3af4:	04000000 	streq	r0, [r0], #-0
    3af8:	0000002c 	andeq	r0, r0, ip, lsr #32
    3afc:	69060103 	stmdbvs	r6, {r0, r1, r8}
    3b00:	03000000 	movweq	r0, #0
    3b04:	020f0502 	andeq	r0, pc, #8388608	; 0x800000
    3b08:	04030000 	streq	r0, [r3], #-0
    3b0c:	0001cd05 	andeq	ip, r1, r5, lsl #26
    3b10:	05080300 	streq	r0, [r8, #-768]	; 0xfffffd00
    3b14:	000001c8 	andeq	r0, r0, r8, asr #3
    3b18:	67080103 	strvs	r0, [r8, -r3, lsl #2]
    3b1c:	03000000 	movweq	r0, #0
    3b20:	00820702 	addeq	r0, r2, r2, lsl #14
    3b24:	2c050000 	stccs	0, cr0, [r5], {-0}
    3b28:	05000002 	streq	r0, [r0, #-2]
    3b2c:	006e1934 	rsbeq	r1, lr, r4, lsr r9
    3b30:	04030000 	streq	r0, [r3], #-0
    3b34:	00005507 	andeq	r5, r0, r7, lsl #10
    3b38:	07080300 	streq	r0, [r8, -r0, lsl #6]
    3b3c:	00000050 	andeq	r0, r0, r0, asr r0
    3b40:	70080103 	andvc	r0, r8, r3, lsl #2
    3b44:	06000000 	streq	r0, [r0], -r0
    3b48:	00540107 	subseq	r0, r4, r7, lsl #2
    3b4c:	0c040000 	stceq	0, cr0, [r4], {-0}
    3b50:	0000c20e 	andeq	ip, r0, lr, lsl #4
    3b54:	0a400700 	beq	100575c <__bss_end__+0xffa7fc>
    3b58:	07000000 	streq	r0, [r0, -r0]
    3b5c:	00000878 	andeq	r0, r0, r8, ror r8
    3b60:	08bb0701 	ldmeq	fp!, {r0, r8, r9, sl}
    3b64:	07040000 	streq	r0, [r4, -r0]
    3b68:	000008ca 	andeq	r0, r0, sl, asr #17
    3b6c:	08d90705 	ldmeq	r9, {r0, r2, r8, r9, sl}^
    3b70:	07060000 	streq	r0, [r6, -r0]
    3b74:	000008e8 	andeq	r0, r0, r8, ror #17
    3b78:	0a090707 	beq	24579c <__bss_end__+0x23a83c>
    3b7c:	07030000 	streq	r0, [r3, -r0]
    3b80:	000008f7 	strdeq	r0, [r0], -r7
    3b84:	89080002 	stmdbhi	r8, {r1}
    3b88:	2c000008 	stccs	0, cr0, [r0], {8}
    3b8c:	5e080602 	cfmadd32pl	mvax0, mvfx0, mvfx8, mvfx2
    3b90:	09000001 	stmdbeq	r0, {r0}
    3b94:	02006f69 	andeq	r6, r0, #420	; 0x1a4
    3b98:	00330909 	eorseq	r0, r3, r9, lsl #18
    3b9c:	09000000 	stmdbeq	r0, {}	; <UNPREDICTABLE>
    3ba0:	00726569 	rsbseq	r6, r2, r9, ror #10
    3ba4:	33090a02 	movwcc	r0, #39426	; 0x9a02
    3ba8:	04000000 	streq	r0, [r0], #-0
    3bac:	72696909 	rsbvc	r6, r9, #147456	; 0x24000
    3bb0:	09110200 	ldmdbeq	r1, {r9}
    3bb4:	00000033 	andeq	r0, r0, r3, lsr r0
    3bb8:	636c0908 	cmnvs	ip, #8, 18	; 0x20000
    3bbc:	13020072 	movwne	r0, #8306	; 0x2072
    3bc0:	00003309 	andeq	r3, r0, r9, lsl #6
    3bc4:	6d090c00 	stcvs	12, cr0, [r9, #-0]
    3bc8:	02007263 	andeq	r7, r0, #805306374	; 0x30000006
    3bcc:	00330914 	eorseq	r0, r3, r4, lsl r9
    3bd0:	09100000 	ldmdbeq	r0, {}	; <UNPREDICTABLE>
    3bd4:	0072736c 	rsbseq	r7, r2, ip, ror #6
    3bd8:	33091502 	movwcc	r1, #38146	; 0x9502
    3bdc:	14000000 	strne	r0, [r0], #-0
    3be0:	72736d09 	rsbsvc	r6, r3, #576	; 0x240
    3be4:	09160200 	ldmdbeq	r6, {r9}
    3be8:	00000033 	andeq	r0, r0, r3, lsr r0
    3bec:	0a200a18 	beq	806454 <__bss_end__+0x7fb4f4>
    3bf0:	17020000 	strne	r0, [r2, -r0]
    3bf4:	00003309 	andeq	r3, r0, r9, lsl #6
    3bf8:	e90a1c00 	stmdb	sl, {sl, fp, ip}
    3bfc:	02000009 	andeq	r0, r0, #9, 0
    3c00:	0033091b 	eorseq	r0, r3, fp, lsl r9
    3c04:	0a200000 	beq	803c0c <__bss_end__+0x7f8cac>
    3c08:	00000865 	andeq	r0, r0, r5, ror #16
    3c0c:	33091d02 	movwcc	r1, #40194	; 0x9d02
    3c10:	24000000 	strcs	r0, [r0], #-0
    3c14:	00093b0a 	andeq	r3, r9, sl, lsl #22
    3c18:	091e0200 	ldmdbeq	lr, {r9}
    3c1c:	00000033 	andeq	r0, r0, r3, lsr r0
    3c20:	400b0028 	andmi	r0, fp, r8, lsr #32
    3c24:	01000009 	tsteq	r0, r9
    3c28:	01740908 	cmneq	r4, r8, lsl #18
    3c2c:	50040000 	andpl	r0, r4, r0
    3c30:	040c2021 	streq	r2, [ip], #-33	; 0xffffffdf
    3c34:	00000033 	andeq	r0, r0, r3, lsr r0
    3c38:	00016e0d 	andeq	r6, r1, sp, lsl #28
    3c3c:	0a280b00 	beq	a06844 <__bss_end__+0x9fb8e4>
    3c40:	29010000 	stmdbcs	r1, {}	; <UNPREDICTABLE>
    3c44:	00018f23 	andeq	r8, r1, r3, lsr #30
    3c48:	21504000 	cmpcs	r0, r0
    3c4c:	c2040c20 	andgt	r0, r4, #32, 24	; 0x2000
    3c50:	0d000000 	stceq	0, cr0, [r0, #-0]
    3c54:	00000189 	andeq	r0, r0, r9, lsl #3
    3c58:	0007130e 	andeq	r1, r7, lr, lsl #6
    3c5c:	06cc0100 	strbeq	r0, [ip], r0, lsl #2
    3c60:	00009b9c 	muleq	r0, ip, fp
    3c64:	00000014 	andeq	r0, r0, r4, lsl r0
    3c68:	01b49c01 			; <UNDEFINED> instruction: 0x01b49c01
    3c6c:	a40f0000 	strge	r0, [pc], #-0	; 3c74 <__code_start__-0x438c>
    3c70:	b400009b 	strlt	r0, [r0], #-155	; 0xffffff65
    3c74:	00000001 	andeq	r0, r0, r1
    3c78:	0008aa10 	andeq	sl, r8, r0, lsl sl
    3c7c:	05b60100 	ldreq	r0, [r6, #256]!	; 0x100
    3c80:	00000025 	andeq	r0, r0, r5, lsr #32
    3c84:	00009b7c 	andeq	r9, r0, ip, ror fp
    3c88:	00000020 	andeq	r0, r0, r0, lsr #32
    3c8c:	01eb9c01 	mvneq	r9, r1, lsl #24
    3c90:	840f0000 	strhi	r0, [pc], #-0	; 3c98 <__code_start__-0x4368>
    3c94:	a000009b 	mulge	r0, fp, r0
    3c98:	11000005 	tstne	r0, r5
    3c9c:	00009b8c 	andeq	r9, r0, ip, lsl #23
    3ca0:	000005ac 	andeq	r0, r0, ip, lsr #11
    3ca4:	05500112 	ldrbeq	r0, [r0, #-274]	; 0xfffffeee
    3ca8:	2150640c 	cmpcs	r0, ip, lsl #8
    3cac:	10000020 	andne	r0, r0, r0, lsr #32
    3cb0:	000009fb 	strdeq	r0, [r0], -fp
    3cb4:	2505b301 	strcs	fp, [r5, #-769]	; 0xfffffcff
    3cb8:	6c000000 	stcvs	0, cr0, [r0], {-0}
    3cbc:	1000009b 	mulne	r0, fp, r0
    3cc0:	01000000 	mrseq	r0, (UNDEF: 0)
    3cc4:	0002189c 	muleq	r2, ip, r8
    3cc8:	9b740f00 	blls	1d078d0 <__bss_end__+0x1cfc970>
    3ccc:	05a00000 	streq	r0, [r0, #0]!
    3cd0:	780f0000 	stmdavc	pc, {}	; <UNPREDICTABLE>
    3cd4:	0900009b 	stmdbeq	r0, {r0, r1, r3, r4, r7}
    3cd8:	00000003 	andeq	r0, r0, r3
    3cdc:	000a360e 	andeq	r3, sl, lr, lsl #12
    3ce0:	06ab0100 	strteq	r0, [fp], r0, lsl #2
    3ce4:	00009b3c 	andeq	r9, r0, ip, lsr fp
    3ce8:	00000030 	andeq	r0, r0, r0, lsr r0
    3cec:	027c9c01 	rsbseq	r9, ip, #256	; 0x100
    3cf0:	63130000 	tstvs	r3, #0, 0
    3cf4:	19ab0100 	stmibne	fp!, {r8}
    3cf8:	0000002c 	andeq	r0, r0, ip, lsr #32
    3cfc:	00002771 	andeq	r2, r0, r1, ror r7
    3d00:	0000276d 	andeq	r2, r0, sp, ror #14
    3d04:	009b480f 	addseq	r4, fp, pc, lsl #16
    3d08:	0005a000 	andeq	sl, r5, r0
    3d0c:	9b4c0f00 	blls	1307914 <__bss_end__+0x12fc9b4>
    3d10:	02db0000 	sbcseq	r0, fp, #0, 0
    3d14:	60140000 	andsvs	r0, r4, r0
    3d18:	b800009b 	stmdalt	r0, {r0, r1, r3, r4, r7}
    3d1c:	72000005 	andvc	r0, r0, #5, 0
    3d20:	12000002 	andne	r0, r0, #2, 0
    3d24:	0c055001 	stceq	0, cr5, [r5], {1}
    3d28:	20215040 	eorcs	r5, r1, r0, asr #32
    3d2c:	05510112 	ldrbeq	r0, [r1, #-274]	; 0xfffffeee
    3d30:	ff080074 			; <UNDEFINED> instruction: 0xff080074
    3d34:	640f001a 	strvs	r0, [pc], #-26	; 3d3c <__code_start__-0x42c4>
    3d38:	a000009b 	mulge	r0, fp, r0
    3d3c:	00000005 	andeq	r0, r0, r5
    3d40:	00094c10 	andeq	r4, r9, r0, lsl ip
    3d44:	05a30100 	streq	r0, [r3, #256]!	; 0x100
    3d48:	00000025 	andeq	r0, r0, r5, lsr #32
    3d4c:	00009b0c 	andeq	r9, r0, ip, lsl #22
    3d50:	00000030 	andeq	r0, r0, r0, lsr r0
    3d54:	02db9c01 	sbcseq	r9, fp, #256	; 0x100
    3d58:	63150000 	tstvs	r5, #0, 0
    3d5c:	09a70100 	stmibeq	r7!, {r8}
    3d60:	00000025 	andeq	r0, r0, r5, lsr #32
    3d64:	00002791 	muleq	r0, r1, r7
    3d68:	0000278f 	andeq	r2, r0, pc, lsl #15
    3d6c:	009b140f 	addseq	r1, fp, pc, lsl #8
    3d70:	0005a000 	andeq	sl, r5, r0
    3d74:	9b180f00 	blls	60797c <__bss_end__+0x5fca1c>
    3d78:	03090000 	movweq	r0, #36864	; 0x9000
    3d7c:	28140000 	ldmdacs	r4, {}	; <UNPREDICTABLE>
    3d80:	ac00009b 	stcge	0, cr0, [r0], {155}	; 0x9b
    3d84:	d1000005 	tstle	r0, r5
    3d88:	12000002 	andne	r0, r0, #2, 0
    3d8c:	0c055001 	stceq	0, cr5, [r5], {1}
    3d90:	20215040 	eorcs	r5, r1, r0, asr #32
    3d94:	9b300f00 	blls	c0799c <__bss_end__+0xbfca3c>
    3d98:	05a00000 	streq	r0, [r0, #0]!
    3d9c:	10000000 	andne	r0, r0, r0
    3da0:	0000089c 	muleq	r0, ip, r8
    3da4:	25059401 	strcs	r9, [r5, #-1025]	; 0xfffffbff
    3da8:	ec000000 	stc	0, cr0, [r0], {-0}
    3dac:	2000009a 	mulcs	r0, sl, r0
    3db0:	01000000 	mrseq	r0, (UNDEF: 0)
    3db4:	0003099c 	muleq	r3, ip, r9
    3db8:	9af81100 	bls	ffe081c0 <__bss_end__+0xffdfd260>
    3dbc:	05ac0000 	streq	r0, [ip, #0]!
    3dc0:	01120000 	tsteq	r2, r0
    3dc4:	640c0550 	strvs	r0, [ip], #-1360	; 0xfffffab0
    3dc8:	00202150 	eoreq	r2, r0, r0, asr r1
    3dcc:	086a1000 	stmdaeq	sl!, {ip}^
    3dd0:	8b010000 	blhi	43dd8 <__bss_end__+0x38e78>
    3dd4:	00002505 	andeq	r2, r0, r5, lsl #10
    3dd8:	009ad400 	addseq	sp, sl, r0, lsl #8
    3ddc:	00001800 	andeq	r1, r0, r0, lsl #16
    3de0:	379c0100 	ldrcc	r0, [ip, r0, lsl #2]
    3de4:	11000003 	tstne	r0, r3
    3de8:	00009ae0 	andeq	r9, r0, r0, ror #21
    3dec:	000005ac 	andeq	r0, r0, ip, lsr #11
    3df0:	05500112 	ldrbeq	r0, [r0, #-274]	; 0xfffffeee
    3df4:	2150640c 	cmpcs	r0, ip, lsl #8
    3df8:	0e000020 	cdpeq	0, 0, cr0, cr0, cr0, {1}
    3dfc:	00000731 	andeq	r0, r0, r1, lsr r7
    3e00:	24064501 	strcs	r4, [r6], #-1281	; 0xfffffaff
    3e04:	b000009a 	mullt	r0, sl, r0
    3e08:	01000000 	mrseq	r0, (UNDEF: 0)
    3e0c:	0004849c 	muleq	r4, ip, r4
    3e10:	085c1600 	ldmdaeq	ip, {r9, sl, ip}^
    3e14:	7e010000 	cdpvc	0, 0, cr0, cr1, cr0, {0}
    3e18:	0000620e 	andeq	r6, r0, lr, lsl #4
    3e1c:	14010e00 	strne	r0, [r1], #-3584	; 0xfffff200
    3e20:	00009a34 	andeq	r9, r0, r4, lsr sl
    3e24:	000005c4 	andeq	r0, r0, r4, asr #11
    3e28:	00000373 	andeq	r0, r0, r3, ror r3
    3e2c:	01500112 	cmpeq	r0, r2, lsl r1
    3e30:	5101123e 	tstpl	r1, lr, lsr r2
    3e34:	14003201 	strne	r3, [r0], #-513	; 0xfffffdff
    3e38:	00009a40 	andeq	r9, r0, r0, asr #20
    3e3c:	000005c4 	andeq	r0, r0, r4, asr #11
    3e40:	0000038b 	andeq	r0, r0, fp, lsl #7
    3e44:	01500112 	cmpeq	r0, r2, lsl r1
    3e48:	5101123f 	tstpl	r1, pc, lsr r2
    3e4c:	0f003201 	svceq	0x00003201
    3e50:	00009a44 	andeq	r9, r0, r4, asr #20
    3e54:	000005a0 	andeq	r0, r0, r0, lsr #11
    3e58:	009a5014 	addseq	r5, sl, r4, lsl r0
    3e5c:	00053d00 	andeq	r3, r5, r0, lsl #26
    3e60:	0003b000 	andeq	fp, r3, r0
    3e64:	50011200 	andpl	r1, r1, r0, lsl #4
    3e68:	50040c05 	andpl	r0, r4, r5, lsl #24
    3e6c:	01122021 	tsteq	r2, r1, lsr #32
    3e70:	00310151 	eorseq	r0, r1, r1, asr r1
    3e74:	009a540f 	addseq	r5, sl, pc, lsl #8
    3e78:	0005a000 	andeq	sl, r5, r0
    3e7c:	9a641400 	bls	1908e84 <__bss_end__+0x18fdf24>
    3e80:	05b80000 	ldreq	r0, [r8, #0]!
    3e84:	03d20000 	bicseq	r0, r2, #0, 0
    3e88:	01120000 	tsteq	r2, r0
    3e8c:	00740250 	rsbseq	r0, r4, r0, asr r2
    3e90:	01510112 	cmpeq	r1, r2, lsl r1
    3e94:	70140030 	andsvc	r0, r4, r0, lsr r0
    3e98:	b800009a 	stmdalt	r0, {r1, r3, r4, r7}
    3e9c:	ee000005 	cdp	0, 0, cr0, cr0, cr5, {0}
    3ea0:	12000003 	andne	r0, r0, #3, 0
    3ea4:	0c055001 	stceq	0, cr5, [r5], {1}
    3ea8:	20215044 	eorcs	r5, r1, r4, asr #32
    3eac:	01510112 	cmpeq	r1, r2, lsl r1
    3eb0:	7c140030 	ldcvc	0, cr0, [r4], {48}	; 0x30
    3eb4:	b800009a 	stmdalt	r0, {r1, r3, r4, r7}
    3eb8:	0a000005 	beq	3ed4 <__code_start__-0x412c>
    3ebc:	12000004 	andne	r0, r0, #4, 0
    3ec0:	0c055001 	stceq	0, cr5, [r5], {1}
    3ec4:	2021504c 	eorcs	r5, r1, ip, asr #32
    3ec8:	01510112 	cmpeq	r1, r2, lsl r1
    3ecc:	88140033 	ldmdahi	r4, {r0, r1, r4, r5}
    3ed0:	b800009a 	stmdalt	r0, {r1, r3, r4, r7}
    3ed4:	26000005 	strcs	r0, [r0], -r5
    3ed8:	12000004 	andne	r0, r0, #4, 0
    3edc:	0c055001 	stceq	0, cr5, [r5], {1}
    3ee0:	20215050 	eorcs	r5, r1, r0, asr r0
    3ee4:	01510112 	cmpeq	r1, r2, lsl r1
    3ee8:	94140030 	ldrls	r0, [r4], #-48	; 0xffffffd0
    3eec:	b800009a 	stmdalt	r0, {r1, r3, r4, r7}
    3ef0:	43000005 	movwmi	r0, #5
    3ef4:	12000004 	andne	r0, r0, #4, 0
    3ef8:	0c055001 	stceq	0, cr5, [r5], {1}
    3efc:	20215048 	eorcs	r5, r1, r8, asr #32
    3f00:	02510112 	subseq	r0, r1, #-2147483644	; 0x80000004
    3f04:	1400c708 	strne	ip, [r0], #-1800	; 0xfffff8f8
    3f08:	00009aa0 	andeq	r9, r0, r0, lsr #21
    3f0c:	000005b8 			; <UNDEFINED> instruction: 0x000005b8
    3f10:	00000461 	andeq	r0, r0, r1, ror #8
    3f14:	05500112 	ldrbeq	r0, [r0, #-274]	; 0xfffffeee
    3f18:	2150680c 	cmpcs	r0, ip, lsl #16
    3f1c:	51011220 	tstpl	r1, r0, lsr #4
    3f20:	010e0a03 	tsteq	lr, r3, lsl #20
    3f24:	9aac1400 	bls	feb08f2c <__bss_end__+0xfeafdfcc>
    3f28:	05b80000 	ldreq	r0, [r8, #0]!
    3f2c:	047a0000 	ldrbteq	r0, [sl], #-0
    3f30:	01120000 	tsteq	r2, r0
    3f34:	00740250 	rsbseq	r0, r4, r0, asr r2
    3f38:	01510112 	cmpeq	r1, r2, lsl r1
    3f3c:	b00f0033 	andlt	r0, pc, r3, lsr r0	; <UNPREDICTABLE>
    3f40:	a000009a 	mulge	r0, sl, r0
    3f44:	00000005 	andeq	r0, r0, r5
    3f48:	0009ee0e 	andeq	lr, r9, lr, lsl #28
    3f4c:	06350100 	ldrteq	r0, [r5], -r0, lsl #2
    3f50:	00009bb0 			; <UNDEFINED> instruction: 0x00009bb0
    3f54:	00000024 	andeq	r0, r0, r4, lsr #32
    3f58:	04d39c01 	ldrbeq	r9, [r3], #3073	; 0xc01
    3f5c:	b80f0000 	stmdalt	pc, {}	; <UNPREDICTABLE>
    3f60:	9400009b 	strls	r0, [r0], #-155	; 0xffffff65
    3f64:	0f000001 	svceq	0x00000001
    3f68:	00009bbc 			; <UNDEFINED> instruction: 0x00009bbc
    3f6c:	000005a0 	andeq	r0, r0, r0, lsr #11
    3f70:	009bc814 	addseq	ip, fp, r4, lsl r8
    3f74:	0004d300 	andeq	sp, r4, r0, lsl #6
    3f78:	0004c900 	andeq	ip, r4, r0, lsl #18
    3f7c:	50011200 	andpl	r1, r1, r0, lsl #4
    3f80:	50040c05 	andpl	r0, r4, r5, lsl #24
    3f84:	01122021 	tsteq	r2, r1, lsr #32
    3f88:	fe090251 	mcr2	2, 0, r0, cr9, cr1, {2}
    3f8c:	9bcc0f00 	blls	ff307b94 <__bss_end__+0xff2fcc34>
    3f90:	05a00000 	streq	r0, [r0, #0]!
    3f94:	17000000 	strne	r0, [r0, -r0]
    3f98:	00000a2d 	andeq	r0, r0, sp, lsr #20
    3f9c:	e40d3101 	str	r3, [sp], #-257	; 0xfffffeff
    3fa0:	20000099 	mulcs	r0, r9, r0
    3fa4:	01000000 	mrseq	r0, (UNDEF: 0)
    3fa8:	0005369c 	muleq	r5, ip, r6
    3fac:	0a871800 	beq	fe1c9fb4 <__bss_end__+0xfe1bf054>
    3fb0:	31010000 	mrscc	r0, (UNDEF: 1)
    3fb4:	00053625 	andeq	r3, r5, r5, lsr #12
    3fb8:	0027a800 	eoreq	sl, r7, r0, lsl #16
    3fbc:	0027a400 	eoreq	sl, r7, r0, lsl #8
    3fc0:	61761300 	cmnvs	r6, r0, lsl #6
    3fc4:	3101006c 	tstcc	r1, ip, rrx
    3fc8:	00002c34 	andeq	r2, r0, r4, lsr ip
    3fcc:	0027ca00 	eoreq	ip, r7, r0, lsl #20
    3fd0:	0027c600 	eoreq	ip, r7, r0, lsl #12
    3fd4:	99f41400 	ldmibls	r4!, {sl, ip}^
    3fd8:	05ac0000 	streq	r0, [ip, #0]!
    3fdc:	05250000 	streq	r0, [r5, #-0]!
    3fe0:	01120000 	tsteq	r2, r0
    3fe4:	00740250 	rsbseq	r0, r4, r0, asr r2
    3fe8:	9a001100 	bls	83f0 <ckfree+0xfc>
    3fec:	05b80000 	ldreq	r0, [r8, #0]!
    3ff0:	01120000 	tsteq	r2, r0
    3ff4:	00740250 	rsbseq	r0, r4, r0, asr r2
    3ff8:	040c0000 	streq	r0, [ip], #-0
    3ffc:	0000053c 	andeq	r0, r0, ip, lsr r5
    4000:	0a181719 	beq	609c6c <__bss_end__+0x5fed0c>
    4004:	2e010000 	cdpcs	0, 0, cr0, cr1, cr0, {0}
    4008:	009a040d 	addseq	r0, sl, sp, lsl #8
    400c:	00002000 	andeq	r2, r0, r0
    4010:	a09c0100 	addsge	r0, ip, r0, lsl #2
    4014:	18000005 	stmdane	r0, {r0, r2}
    4018:	00000a87 	andeq	r0, r0, r7, lsl #21
    401c:	36242e01 	strtcc	r2, [r4], -r1, lsl #28
    4020:	ec000005 	stc	0, cr0, [r0], {5}
    4024:	e8000027 	stmda	r0, {r0, r1, r2, r5}
    4028:	13000027 	movwne	r0, #39	; 0x27
    402c:	006c6176 	rsbeq	r6, ip, r6, ror r1
    4030:	2c332e01 	ldccs	14, cr2, [r3], #-4
    4034:	0e000000 	cdpeq	0, 0, cr0, cr0, cr0, {0}
    4038:	0a000028 	beq	40e0 <__code_start__-0x3f20>
    403c:	14000028 	strne	r0, [r0], #-40	; 0xffffffd8
    4040:	00009a14 	andeq	r9, r0, r4, lsl sl
    4044:	000005ac 	andeq	r0, r0, ip, lsr #11
    4048:	0000058f 	andeq	r0, r0, pc, lsl #11
    404c:	02500112 	subseq	r0, r0, #-2147483644	; 0x80000004
    4050:	11000074 	tstne	r0, r4, ror r0
    4054:	00009a20 	andeq	r9, r0, r0, lsr #20
    4058:	000005b8 			; <UNDEFINED> instruction: 0x000005b8
    405c:	02500112 	subseq	r0, r0, #-2147483644	; 0x80000004
    4060:	00000074 	andeq	r0, r0, r4, ror r0
    4064:	0007fb1a 	andeq	pc, r7, sl, lsl fp	; <UNPREDICTABLE>
    4068:	0007fb00 	andeq	pc, r7, r0, lsl #22
    406c:	069c0300 	ldreq	r0, [ip], r0, lsl #6
    4070:	000a621a 	andeq	r6, sl, sl, lsl r2
    4074:	000a6200 	andeq	r6, sl, r0, lsl #4
    4078:	0bc30300 	bleq	ff0c4c80 <__bss_end__+0xff0b9d20>
    407c:	0008561a 	andeq	r5, r8, sl, lsl r6
    4080:	00085600 	andeq	r5, r8, r0, lsl #12
    4084:	06ae0300 	strteq	r0, [lr], r0, lsl #6
    4088:	000a501a 	andeq	r5, sl, sl, lsl r0
    408c:	000a5000 	andeq	r5, sl, r0
    4090:	06190400 	ldreq	r0, [r9], -r0, lsl #8
    4094:	0008e900 	andeq	lr, r8, r0, lsl #18
    4098:	98000400 	stmdals	r0, {sl}
    409c:	04000016 	streq	r0, [r0], #-22	; 0xffffffea
    40a0:	00095601 	andeq	r5, r9, r1, lsl #12
    40a4:	0af20c00 	beq	ffc870ac <__bss_end__+0xffc7c14c>
    40a8:	09060000 	stmdbeq	r6, {}	; <UNPREDICTABLE>
    40ac:	9bd40000 	blls	ff5040b4 <__bss_end__+0xff4f9154>
    40b0:	03b00000 	movseq	r0, #0, 0
    40b4:	20f50000 	rscscs	r0, r5, r0
    40b8:	04020000 	streq	r0, [r2], #-0
    40bc:	746e6905 	strbtvc	r6, [lr], #-2309	; 0xfffff6fb
    40c0:	07040300 	streq	r0, [r4, -r0, lsl #6]
    40c4:	0000005a 	andeq	r0, r0, sl, asr r0
    40c8:	69060103 	stmdbvs	r6, {r0, r1, r8}
    40cc:	03000000 	movweq	r0, #0
    40d0:	020f0502 	andeq	r0, pc, #8388608	; 0x800000
    40d4:	04030000 	streq	r0, [r3], #-0
    40d8:	0001cd05 	andeq	ip, r1, r5, lsl #26
    40dc:	05080300 	streq	r0, [r8, #-768]	; 0xfffffd00
    40e0:	000001c8 	andeq	r0, r0, r8, asr #3
    40e4:	67080103 	strvs	r0, [r8, -r3, lsl #2]
    40e8:	03000000 	movweq	r0, #0
    40ec:	00820702 	addeq	r0, r2, r2, lsl #14
    40f0:	2c040000 	stccs	0, cr0, [r4], {-0}
    40f4:	03000002 	movweq	r0, #2
    40f8:	00691934 	rsbeq	r1, r9, r4, lsr r9
    40fc:	04030000 	streq	r0, [r3], #-0
    4100:	00005507 	andeq	r5, r0, r7, lsl #10
    4104:	07080300 	streq	r0, [r8, -r0, lsl #6]
    4108:	00000050 	andeq	r0, r0, r0, asr r0
    410c:	70080103 	andvc	r0, r8, r3, lsl #2
    4110:	05000000 	streq	r0, [r0, #-0]
    4114:	00000077 	andeq	r0, r0, r7, ror r0
    4118:	2b040803 	blcs	10612c <__bss_end__+0xfb1cc>
    411c:	06000004 	streq	r0, [r0], -r4
    4120:	04070704 	streq	r0, [r7], #-1796	; 0xfffff8fc
    4124:	0000002c 	andeq	r0, r0, ip, lsr #32
    4128:	a4061f01 	strge	r1, [r6], #-3841	; 0xfffff0ff
    412c:	08000000 	stmdaeq	r0, {}	; <UNPREDICTABLE>
    4130:	00000a8c 	andeq	r0, r0, ip, lsl #21
    4134:	00200000 	eoreq	r0, r0, r0
    4138:	065c0900 	ldrbeq	r0, [ip], -r0, lsl #18
    413c:	22010000 	andcs	r0, r1, #0, 0
    4140:	0000770d 	andeq	r7, r0, sp, lsl #14
    4144:	05000a00 	streq	r0, [r0, #-2560]	; 0xfffff600
    4148:	23010000 	movwcs	r0, #4096	; 0x1000
    414c:	0000c20e 	andeq	ip, r0, lr, lsl #4
    4150:	28030500 	stmdacs	r3, {r8, sl}
    4154:	0b0000ab 	bleq	4408 <__code_start__-0x3bf8>
    4158:	00007704 	andeq	r7, r0, r4, lsl #14
    415c:	0a700a00 	beq	1c06964 <__bss_end__+0x1bfba04>
    4160:	24010000 	strcs	r0, [r1], #-0
    4164:	0000c20e 	andeq	ip, r0, lr, lsl #4
    4168:	2c030500 	cfstr32cs	mvfx0, [r3], {-0}
    416c:	0a0000ab 	beq	4420 <__code_start__-0x3be0>
    4170:	00000ad1 	ldrdeq	r0, [r0], -r1
    4174:	c20e2501 	andgt	r2, lr, #4194304	; 0x400000
    4178:	05000000 	streq	r0, [r0, #-0]
    417c:	00ab3003 	adceq	r3, fp, r3
    4180:	0aa70c00 	beq	fe9c7188 <__bss_end__+0xfe9bc228>
    4184:	75010000 	strvc	r0, [r1, #-0]
    4188:	009f2406 	addseq	r2, pc, r6, lsl #8
    418c:	00006000 	andeq	r6, r0, r0
    4190:	649c0100 	ldrvs	r0, [ip], #256	; 0x100
    4194:	0d000001 	stceq	0, cr0, [r0, #-4]
    4198:	75010070 	strvc	r0, [r1, #-112]	; 0xffffff90
    419c:	00008a16 	andeq	r8, r0, r6, lsl sl
    41a0:	00283200 	eoreq	r3, r8, r0, lsl #4
    41a4:	00282c00 	eoreq	r2, r8, r0, lsl #24
    41a8:	00bb0e00 	adcseq	r0, fp, r0, lsl #28
    41ac:	01740000 	cmneq	r4, r0
    41b0:	03050000 	movweq	r0, #20480	; 0x5000
    41b4:	0000ab18 	andeq	sl, r0, r8, lsl fp
    41b8:	009f700f 	addseq	r7, pc, pc
    41bc:	0008bc00 	andeq	fp, r8, r0, lsl #24
    41c0:	00015a00 	andeq	r5, r1, r0, lsl #20
    41c4:	50011000 	andpl	r1, r1, r0
    41c8:	aa900305 	bge	fe404de4 <__bss_end__+0xfe3f9e84>
    41cc:	01100000 	tsteq	r0, r0
    41d0:	28030551 	stmdacs	r3, {r0, r4, r6, r8, sl}
    41d4:	100000a9 	andne	r0, r0, r9, lsr #1
    41d8:	03055201 	movweq	r5, #20993	; 0x5201
    41dc:	0000ab18 	andeq	sl, r0, r8, lsl fp
    41e0:	02530110 	subseq	r0, r3, #4
    41e4:	02107708 	andseq	r7, r0, #8, 14	; 0x200000
    41e8:	f303007d 	vqadd.u8	q0, <illegal reg q1.5>, <illegal reg q14.5>
    41ec:	11005001 	tstne	r0, r1
    41f0:	00009f74 	andeq	r9, r0, r4, ror pc
    41f4:	000008c8 	andeq	r0, r0, r8, asr #17
    41f8:	007e1200 	rsbseq	r1, lr, r0, lsl #4
    41fc:	01740000 	cmneq	r4, r0
    4200:	2c130000 	ldccs	0, cr0, [r3], {-0}
    4204:	09000000 	stmdbeq	r0, {}	; <UNPREDICTABLE>
    4208:	01640500 	cmneq	r4, r0, lsl #10
    420c:	95140000 	ldrls	r0, [r4, #-0]
    4210:	0100000a 	tsteq	r0, sl
    4214:	9f100672 	svcls	0x00100672
    4218:	00140000 	andseq	r0, r4, r0
    421c:	9c010000 	stcls	0, cr0, [r1], {-0}
    4220:	0002090c 	andeq	r0, r2, ip, lsl #18
    4224:	066f0100 	strbteq	r0, [pc], -r0, lsl #2
    4228:	00009f0c 	andeq	r9, r0, ip, lsl #30
    422c:	00000004 	andeq	r0, r0, r4
    4230:	01ae9c01 			; <UNDEFINED> instruction: 0x01ae9c01
    4234:	70150000 	andsvc	r0, r5, r0
    4238:	126f0100 	rsbne	r0, pc, #0
    423c:	0000008a 	andeq	r0, r0, sl, lsl #1
    4240:	16005001 	strne	r5, [r0], -r1
    4244:	00000b34 	andeq	r0, r0, r4, lsr fp
    4248:	8a075e01 	bhi	1dba54 <__bss_end__+0x1d0af4>
    424c:	f4000000 	vst4.8	{d0-d3}, [r0], r0
    4250:	1800009d 	stmdane	r0, {r0, r2, r3, r4, r7}
    4254:	01000001 	tsteq	r0, r1
    4258:	00042c9c 	muleq	r4, ip, ip
    425c:	03e61700 	mvneq	r1, #0, 14
    4260:	5e010000 	cdppl	0, 0, cr0, cr1, cr0, {0}
    4264:	00002c20 	andeq	r2, r0, r0, lsr #24
    4268:	00287300 	eoreq	r7, r8, r0, lsl #6
    426c:	00285f00 	eoreq	r5, r8, r0, lsl #30
    4270:	0ab11700 	beq	fec49e78 <__bss_end__+0xfec3ef18>
    4274:	5e010000 	cdppl	0, 0, cr0, cr1, cr0, {0}
    4278:	00002c31 	andeq	r2, r0, r1, lsr ip
    427c:	00290c00 	eoreq	r0, r9, r0, lsl #24
    4280:	0028f800 	eoreq	pc, r8, r0, lsl #16
    4284:	00bb0e00 	adcseq	r0, fp, r0, lsl #28
    4288:	043c0000 	ldrteq	r0, [ip], #-0
    428c:	03050000 	movweq	r0, #20480	; 0x5000
    4290:	0000ab00 	andeq	sl, r0, r0, lsl #22
    4294:	01006818 	tsteq	r0, r8, lsl r8
    4298:	002c0e66 	eoreq	r0, ip, r6, ror #28
    429c:	29c20000 	stmibcs	r2, {}^	; <UNPREDICTABLE>
    42a0:	29b60000 	ldmibcs	r6!, {}	; <UNPREDICTABLE>
    42a4:	54190000 	ldrpl	r0, [r9], #-0
    42a8:	04000008 	streq	r0, [r0], #-8
    42ac:	0400009e 	streq	r0, [r0], #-158	; 0xffffff62
    42b0:	00009e04 	andeq	r9, r0, r4, lsl #28
    42b4:	00000004 	andeq	r0, r0, r4
    42b8:	38056001 	stmdacc	r5, {r0, sp, lr}
    42bc:	1a000002 	bne	42cc <__code_start__-0x3d34>
    42c0:	00000865 	andeq	r0, r0, r5, ror #16
    42c4:	00002a16 	andeq	r2, r0, r6, lsl sl
    42c8:	00002a14 	andeq	r2, r0, r4, lsl sl
    42cc:	08961900 	ldmeq	r6, {r8, fp, ip}
    42d0:	9e100000 	cdpls	0, 1, cr0, cr0, cr0, {0}
    42d4:	10020000 	andne	r0, r2, r0
    42d8:	0800009e 	stmdaeq	r0, {r1, r2, r3, r4, r7}
    42dc:	01000000 	mrseq	r0, (UNDEF: 0)
    42e0:	026c1161 	rsbeq	r1, ip, #1073741848	; 0x40000018
    42e4:	b11a0000 	tstlt	sl, r0
    42e8:	2b000008 	blcs	4310 <__code_start__-0x3cf0>
    42ec:	2900002a 	stmdbcs	r0, {r1, r3, r5}
    42f0:	1a00002a 	bne	43a0 <__code_start__-0x3c60>
    42f4:	000008a7 	andeq	r0, r0, r7, lsr #17
    42f8:	00002a41 	andeq	r2, r0, r1, asr #20
    42fc:	00002a3f 	andeq	r2, r0, pc, lsr sl
    4300:	081f1b00 	ldmdaeq	pc, {r8, r9, fp, ip}	; <UNPREDICTABLE>
    4304:	9e200000 	cdpls	0, 2, cr0, cr0, cr0, {0}
    4308:	38010000 	stmdacc	r1, {}	; <UNPREDICTABLE>
    430c:	01000005 	tsteq	r0, r5
    4310:	030a0967 	movweq	r0, #43367	; 0xa967
    4314:	3a1a0000 	bcc	68431c <__bss_end__+0x6793bc>
    4318:	5a000008 	bpl	4340 <__code_start__-0x3cc0>
    431c:	5400002a 	strpl	r0, [r0], #-42	; 0xffffffd6
    4320:	1a00002a 	bne	43d0 <__code_start__-0x3c30>
    4324:	00000830 	andeq	r0, r0, r0, lsr r8
    4328:	00002aa1 	andeq	r2, r0, r1, lsr #21
    432c:	00002a99 	muleq	r0, r9, sl
    4330:	0005381c 	andeq	r3, r5, ip, lsl r8
    4334:	08541900 	ldmdaeq	r4, {r8, fp, ip}^
    4338:	9e200000 	cdpls	0, 2, cr0, cr0, cr0, {0}
    433c:	20040000 	andcs	r0, r4, r0
    4340:	0400009e 	streq	r0, [r0], #-158	; 0xffffff62
    4344:	01000000 	mrseq	r0, (UNDEF: 0)
    4348:	02c70511 	sbceq	r0, r7, #71303168	; 0x4400000
    434c:	651a0000 	ldrvs	r0, [sl, #-0]
    4350:	df000008 	svcle	0x00000008
    4354:	dd00002a 	stcle	0, cr0, [r0, #-168]	; 0xffffff58
    4358:	0000002a 	andeq	r0, r0, sl, lsr #32
    435c:	009eb80f 	addseq	fp, lr, pc, lsl #16
    4360:	0008bc00 	andeq	fp, r8, r0, lsl #24
    4364:	0002ff00 	andeq	pc, r2, r0, lsl #30
    4368:	50011000 	andpl	r1, r1, r0
    436c:	a2e80305 	rscge	r0, r8, #335544320	; 0x14000000
    4370:	01100000 	tsteq	r0, r0
    4374:	28030551 	stmdacs	r3, {r0, r4, r6, r8, sl}
    4378:	100000a9 	andne	r0, r0, r9, lsr #1
    437c:	03055201 	movweq	r5, #20993	; 0x5201
    4380:	0000ab10 	andeq	sl, r0, r0, lsl fp
    4384:	01530110 	cmpeq	r3, r0, lsl r1
    4388:	7d021041 	stcvc	0, cr1, [r2, #-260]	; 0xfffffefc
    438c:	3c030500 	cfstr32cc	mvfx0, [r3], {-0}
    4390:	000000aa 	andeq	r0, r0, sl, lsr #1
    4394:	009ebc11 	addseq	fp, lr, r1, lsl ip
    4398:	0008c800 	andeq	ip, r8, r0, lsl #16
    439c:	19000000 	stmdbne	r0, {}	; <UNPREDICTABLE>
    43a0:	00000870 	andeq	r0, r0, r0, ror r8
    43a4:	00009e38 	andeq	r9, r0, r8, lsr lr
    43a8:	009e3803 	addseq	r3, lr, r3, lsl #16
    43ac:	00000400 	andeq	r0, r0, r0, lsl #8
    43b0:	05680100 	strbeq	r0, [r8, #-256]!	; 0xffffff00
    43b4:	0000033e 	andeq	r0, r0, lr, lsr r3
    43b8:	00088b1a 	andeq	r8, r8, sl, lsl fp
    43bc:	002af400 	eoreq	pc, sl, r0, lsl #8
    43c0:	002af200 	eoreq	pc, sl, r0, lsl #4
    43c4:	08811a00 	stmeq	r1, {r9, fp, ip}
    43c8:	2b090000 	blcs	2443d0 <__bss_end__+0x239470>
    43cc:	2b070000 	blcs	1c43d4 <__bss_end__+0x1b9474>
    43d0:	0f000000 	svceq	0x00000000
    43d4:	00009e50 	andeq	r9, r0, r0, asr lr
    43d8:	00000441 	andeq	r0, r0, r1, asr #8
    43dc:	00000353 	andeq	r0, r0, r3, asr r3
    43e0:	03500110 	cmpeq	r0, #4
    43e4:	005001f3 	ldrsheq	r0, [r0], #-19	; 0xffffffed
    43e8:	009e740f 	addseq	r7, lr, pc, lsl #8
    43ec:	0008bc00 	andeq	fp, r8, r0, lsl #24
    43f0:	00038c00 	andeq	r8, r3, r0, lsl #24
    43f4:	50011000 	andpl	r1, r1, r0
    43f8:	a2e80305 	rscge	r0, r8, #335544320	; 0x14000000
    43fc:	01100000 	tsteq	r0, r0
    4400:	28030551 	stmdacs	r3, {r0, r4, r6, r8, sl}
    4404:	100000a9 	andne	r0, r0, r9, lsr #1
    4408:	03055201 	movweq	r5, #20993	; 0x5201
    440c:	0000ab00 	andeq	sl, r0, r0, lsl #22
    4410:	02530110 	subseq	r0, r3, #4
    4414:	02105f08 	andseq	r5, r0, #8, 30
    4418:	0305007d 	movweq	r0, #20605	; 0x507d
    441c:	0000a938 	andeq	sl, r0, r8, lsr r9
    4420:	9e781100 	rpwlse	f1, f0, f0
    4424:	08c80000 	stmiaeq	r8, {}^	; <UNPREDICTABLE>
    4428:	7c110000 	ldcvc	0, cr0, [r1], {-0}
    442c:	d400009e 	strle	r0, [r0], #-158	; 0xffffff62
    4430:	0f000008 	svceq	0x00000008
    4434:	00009e98 	muleq	r0, r8, lr
    4438:	000008bc 			; <UNDEFINED> instruction: 0x000008bc
    443c:	000003d7 	ldrdeq	r0, [r0], -r7
    4440:	05500110 	ldrbeq	r0, [r0, #-272]	; 0xfffffef0
    4444:	00a9f403 	adceq	pc, r9, r3, lsl #8
    4448:	51011000 	mrspl	r1, (UNDEF: 1)
    444c:	a9280305 	stmdbge	r8!, {r0, r2, r8, r9}
    4450:	01100000 	tsteq	r0, r0
    4454:	00030552 	andeq	r0, r3, r2, asr r5
    4458:	100000ab 	andne	r0, r0, fp, lsr #1
    445c:	08025301 	stmdaeq	r2, {r0, r8, r9, ip, lr}
    4460:	7d021060 	stcvc	0, cr1, [r2, #-384]	; 0xfffffe80
    4464:	28030500 	stmdacs	r3, {r8, sl}
    4468:	000000aa 	andeq	r0, r0, sl, lsr #1
    446c:	009e9c11 	addseq	r9, lr, r1, lsl ip
    4470:	0008c800 	andeq	ip, r8, r0, lsl #16
    4474:	9ec01100 	pollss	f1, f0, f0
    4478:	08d40000 	ldmeq	r4, {}^	; <UNPREDICTABLE>
    447c:	dc0f0000 	stcle	0, cr0, [pc], {-0}
    4480:	bc00009e 	stclt	0, cr0, [r0], {158}	; 0x9e
    4484:	22000008 	andcs	r0, r0, #8, 0
    4488:	10000004 	andne	r0, r0, r4
    448c:	03055001 	movweq	r5, #20481	; 0x5001
    4490:	0000aa48 	andeq	sl, r0, r8, asr #20
    4494:	05510110 	ldrbeq	r0, [r1, #-272]	; 0xfffffef0
    4498:	00a92803 	adceq	r2, r9, r3, lsl #16
    449c:	52011000 	andpl	r1, r1, #0, 0
    44a0:	ab000305 	blge	50bc <__code_start__-0x2f44>
    44a4:	01100000 	tsteq	r0, r0
    44a8:	68080253 	stmdavs	r8, {r0, r1, r4, r6, r9}
    44ac:	007d0210 	rsbseq	r0, sp, r0, lsl r2
    44b0:	aa740305 	bge	1d050cc <__bss_end__+0x1cfa16c>
    44b4:	11000000 	mrsne	r0, (UNDEF: 0)
    44b8:	00009ee0 	andeq	r9, r0, r0, ror #29
    44bc:	000008c8 	andeq	r0, r0, r8, asr #17
    44c0:	007e1200 	rsbseq	r1, lr, r0, lsl #4
    44c4:	043c0000 	ldrteq	r0, [ip], #-0
    44c8:	2c130000 	ldccs	0, cr0, [r3], {-0}
    44cc:	0f000000 	svceq	0x00000000
    44d0:	042c0500 	strteq	r0, [ip], #-1280	; 0xfffffb00
    44d4:	31160000 	tstcc	r6, r0
    44d8:	01000005 	tsteq	r0, r5
    44dc:	008a0753 	addeq	r0, sl, r3, asr r7
    44e0:	9d900000 	ldcls	0, cr0, [r0]
    44e4:	00640000 	rsbeq	r0, r4, r0
    44e8:	9c010000 	stcls	0, cr0, [r1], {-0}
    44ec:	00000508 	andeq	r0, r0, r8, lsl #10
    44f0:	0003e617 	andeq	lr, r3, r7, lsl r6
    44f4:	18530100 	ldmdane	r3, {r8}^
    44f8:	0000002c 	andeq	r0, r0, ip, lsr #32
    44fc:	00002b24 	andeq	r2, r0, r4, lsr #22
    4500:	00002b1c 	andeq	r2, r0, ip, lsl fp
    4504:	0000bb0e 	andeq	fp, r0, lr, lsl #22
    4508:	00051800 	andeq	r1, r5, r0, lsl #16
    450c:	f8030500 			; <UNDEFINED> instruction: 0xf8030500
    4510:	1d0000aa 	stcne	0, cr0, [r0, #-680]	; 0xfffffd58
    4514:	00000a87 	andeq	r0, r0, r7, lsl #21
    4518:	8a0b5501 	bhi	2d9924 <__bss_end__+0x2ce9c4>
    451c:	5c000000 	stcpl	0, cr0, [r0], {-0}
    4520:	5800002b 	stmdapl	r0, {r0, r1, r3, r5}
    4524:	0f00002b 	svceq	0x0000002b
    4528:	00009da8 	andeq	r9, r0, r8, lsr #27
    452c:	0000051d 	andeq	r0, r0, sp, lsl r5
    4530:	000004a6 	andeq	r0, r0, r6, lsr #9
    4534:	02500110 	subseq	r0, r0, #4
    4538:	0f000074 	svceq	0x00000074
    453c:	00009db8 			; <UNDEFINED> instruction: 0x00009db8
    4540:	000008e0 	andeq	r0, r0, r0, ror #17
    4544:	000004c5 	andeq	r0, r0, r5, asr #9
    4548:	02500110 	subseq	r0, r0, #4
    454c:	01100075 	tsteq	r0, r5, ror r0
    4550:	10300151 	eorsne	r0, r0, r1, asr r1
    4554:	74025201 	strvc	r5, [r2], #-513	; 0xfffffdff
    4558:	e00f0000 	and	r0, pc, r0
    455c:	bc00009d 	stclt	0, cr0, [r0], {157}	; 0x9d
    4560:	fe000008 	cdp2	0, 0, cr0, cr0, cr8, {0}
    4564:	10000004 	andne	r0, r0, r4
    4568:	03055001 	movweq	r5, #20481	; 0x5001
    456c:	0000a2e8 	andeq	sl, r0, r8, ror #5
    4570:	05510110 	ldrbeq	r0, [r1, #-272]	; 0xfffffef0
    4574:	00a92803 	adceq	r2, r9, r3, lsl #16
    4578:	52011000 	andpl	r1, r1, #0, 0
    457c:	aaf80305 	bge	ffe05198 <__bss_end__+0xffdfa238>
    4580:	01100000 	tsteq	r0, r0
    4584:	54080253 	strpl	r0, [r8], #-595	; 0xfffffdad
    4588:	007d0210 	rsbseq	r0, sp, r0, lsl r2
    458c:	a9380305 	ldmdbge	r8!, {r0, r2, r8, r9}
    4590:	11000000 	mrsne	r0, (UNDEF: 0)
    4594:	00009de4 	andeq	r9, r0, r4, ror #27
    4598:	000008c8 	andeq	r0, r0, r8, asr #17
    459c:	007e1200 	rsbseq	r1, lr, r0, lsl #4
    45a0:	05180000 	ldreq	r0, [r8, #-0]
    45a4:	2c130000 	ldccs	0, cr0, [r3], {-0}
    45a8:	07000000 	streq	r0, [r0, -r0]
    45ac:	05080500 	streq	r0, [r8, #-1280]	; 0xfffffb00
    45b0:	da160000 	ble	5845b8 <__bss_end__+0x579658>
    45b4:	0100000a 	tsteq	r0, sl
    45b8:	008a0747 	addeq	r0, sl, r7, asr #14
    45bc:	9cf80000 	ldclls	0, cr0, [r8]
    45c0:	00980000 	addseq	r0, r8, r0
    45c4:	9c010000 	stcls	0, cr0, [r1], {-0}
    45c8:	0000062b 	andeq	r0, r0, fp, lsr #12
    45cc:	0003e617 	andeq	lr, r3, r7, lsl r6
    45d0:	20470100 	subcs	r0, r7, r0, lsl #2
    45d4:	0000002c 	andeq	r0, r0, ip, lsr #32
    45d8:	00002b8a 	andeq	r2, r0, sl, lsl #23
    45dc:	00002b7a 	andeq	r2, r0, sl, ror fp
    45e0:	0000bb0e 	andeq	fp, r0, lr, lsl #22
    45e4:	00043c00 	andeq	r3, r4, r0, lsl #24
    45e8:	e8030500 	stmda	r3, {r8, sl}
    45ec:	1d0000aa 	stcne	0, cr0, [r0, #-680]	; 0xfffffd58
    45f0:	00000a87 	andeq	r0, r0, r7, lsl #21
    45f4:	8a0b4b01 	bhi	2d7200 <__bss_end__+0x2cc2a0>
    45f8:	fc000000 	stc2	0, cr0, [r0], {-0}
    45fc:	f800002b 			; <UNDEFINED> instruction: 0xf800002b
    4600:	1b00002b 	blne	46b4 <__code_start__-0x394c>
    4604:	0000081f 	andeq	r0, r0, pc, lsl r8
    4608:	00009d08 	andeq	r9, r0, r8, lsl #26
    460c:	00052003 	andeq	r2, r5, r3
    4610:	0e490100 	dvfeqe	f0, f1, f0
    4614:	000005a3 	andeq	r0, r0, r3, lsr #11
    4618:	00083a1a 	andeq	r3, r8, sl, lsl sl
    461c:	002c1c00 	eoreq	r1, ip, r0, lsl #24
    4620:	002c1a00 	eoreq	r1, ip, r0, lsl #20
    4624:	08301a00 	ldmdaeq	r0!, {r9, fp, ip}
    4628:	2c340000 	ldccs	0, cr0, [r4], #-0
    462c:	2c300000 	ldccs	0, cr0, [r0], #-0
    4630:	201e0000 	andscs	r0, lr, r0
    4634:	00000005 	andeq	r0, r0, r5
    4638:	009d500f 	addseq	r5, sp, pc
    463c:	0008bc00 	andeq	fp, r8, r0, lsl #24
    4640:	0005dc00 	andeq	sp, r5, r0, lsl #24
    4644:	50011000 	andpl	r1, r1, r0
    4648:	a2e80305 	rscge	r0, r8, #335544320	; 0x14000000
    464c:	01100000 	tsteq	r0, r0
    4650:	28030551 	stmdacs	r3, {r0, r4, r6, r8, sl}
    4654:	100000a9 	andne	r0, r0, r9, lsr #1
    4658:	03055201 	movweq	r5, #20993	; 0x5201
    465c:	0000aae8 	andeq	sl, r0, r8, ror #21
    4660:	02530110 	subseq	r0, r3, #4
    4664:	02104808 	andseq	r4, r0, #8, 16	; 0x80000
    4668:	0305007d 	movweq	r0, #20605	; 0x507d
    466c:	0000a938 	andeq	sl, r0, r8, lsr r9
    4670:	9d541100 	ldflse	f1, [r4, #-0]
    4674:	08c80000 	stmiaeq	r8, {}^	; <UNPREDICTABLE>
    4678:	740f0000 	strvc	r0, [pc], #-0	; 4680 <__code_start__-0x3980>
    467c:	bc00009d 	stclt	0, cr0, [r0], {157}	; 0x9d
    4680:	21000008 	tstcs	r0, r8
    4684:	10000006 	andne	r0, r0, r6
    4688:	03055001 	movweq	r5, #20481	; 0x5001
    468c:	0000a9b4 			; <UNDEFINED> instruction: 0x0000a9b4
    4690:	05510110 	ldrbeq	r0, [r1, #-272]	; 0xfffffef0
    4694:	00a92803 	adceq	r2, r9, r3, lsl #16
    4698:	52011000 	andpl	r1, r1, #0, 0
    469c:	aae80305 	bge	ffa052b8 <__bss_end__+0xff9fa358>
    46a0:	01100000 	tsteq	r0, r0
    46a4:	4e080253 	mcrmi	2, 0, r0, cr8, cr3, {2}
    46a8:	007d0210 	rsbseq	r0, sp, r0, lsl r2
    46ac:	5001f308 	andpl	pc, r1, r8, lsl #6
    46b0:	f8090723 			; <UNDEFINED> instruction: 0xf8090723
    46b4:	7811001a 	ldmdavc	r1, {r1, r3, r4}
    46b8:	c800009d 	stmdagt	r0, {r0, r2, r3, r4, r7}
    46bc:	00000008 	andeq	r0, r0, r8
    46c0:	000afc0c 	andeq	pc, sl, ip, lsl #24
    46c4:	063c0100 	ldrteq	r0, [ip], -r0, lsl #2
    46c8:	00009ca0 	andeq	r9, r0, r0, lsr #25
    46cc:	00000058 	andeq	r0, r0, r8, asr r0
    46d0:	06cf9c01 	strbeq	r9, [pc], r1, lsl #24
    46d4:	890a0000 	stmdbhi	sl, {}	; <UNPREDICTABLE>
    46d8:	01000004 	tsteq	r0, r4
    46dc:	0025103d 	eoreq	r1, r5, sp, lsr r0
    46e0:	03050000 	movweq	r0, #20480	; 0x5000
    46e4:	0000af5c 	andeq	sl, r0, ip, asr pc
    46e8:	0000bb0e 	andeq	fp, r0, lr, lsl #22
    46ec:	0006df00 	andeq	sp, r6, r0, lsl #30
    46f0:	d8030500 	stmdale	r3, {r8, sl}
    46f4:	070000aa 	streq	r0, [r0, -sl, lsr #1]
    46f8:	002c0407 	eoreq	r0, ip, r7, lsl #8
    46fc:	42010000 	andmi	r0, r1, #0, 0
    4700:	00067a0a 	andeq	r7, r6, sl, lsl #20
    4704:	0ac30800 	beq	ff0c670c <__bss_end__+0xff0bb7ac>
    4708:	00000000 	andeq	r0, r0, r0
    470c:	0f000010 	svceq	0x00000010
    4710:	00009ccc 	andeq	r9, r0, ip, asr #25
    4714:	000006e4 	andeq	r0, r0, r4, ror #13
    4718:	00000696 	muleq	r0, r6, r6
    471c:	03500110 	cmpeq	r0, #4
    4720:	10244040 	eorne	r4, r4, r0, asr #32
    4724:	40035101 	andmi	r5, r3, r1, lsl #2
    4728:	0f002448 	svceq	0x00002448
    472c:	00009ce4 	andeq	r9, r0, r4, ror #25
    4730:	000008bc 			; <UNDEFINED> instruction: 0x000008bc
    4734:	000006c5 	andeq	r0, r0, r5, asr #13
    4738:	05500110 	ldrbeq	r0, [r0, #-272]	; 0xfffffef0
    473c:	00a98403 	adceq	r8, r9, r3, lsl #8
    4740:	51011000 	mrspl	r1, (UNDEF: 1)
    4744:	a9280305 	stmdbge	r8!, {r0, r2, r8, r9}
    4748:	01100000 	tsteq	r0, r0
    474c:	d8030552 	stmdale	r3, {r1, r4, r6, r8, sl}
    4750:	100000aa 	andne	r0, r0, sl, lsr #1
    4754:	08025301 	stmdaeq	r2, {r0, r8, r9, ip, lr}
    4758:	e8110040 	ldmda	r1, {r6}
    475c:	c800009c 	stmdagt	r0, {r2, r3, r4, r7}
    4760:	00000008 	andeq	r0, r0, r8
    4764:	00007e12 	andeq	r7, r0, r2, lsl lr
    4768:	0006df00 	andeq	sp, r6, r0, lsl #30
    476c:	002c1300 	eoreq	r1, ip, r0, lsl #6
    4770:	000c0000 	andeq	r0, ip, r0
    4774:	0006cf05 	andeq	ip, r6, r5, lsl #30
    4778:	05390c00 	ldreq	r0, [r9, #-3072]!	; 0xfffff400
    477c:	2d010000 	stccs	0, cr0, [r1, #-0]
    4780:	009c0406 	addseq	r0, ip, r6, lsl #8
    4784:	00009c00 	andeq	r9, r0, r0, lsl #24
    4788:	c89c0100 	ldmgt	ip, {r8}
    478c:	17000007 	strne	r0, [r0, -r7]
    4790:	00000a86 	andeq	r0, r0, r6, lsl #21
    4794:	2c262d01 	stccs	13, cr2, [r6], #-4
    4798:	62000000 	andvs	r0, r0, #0, 0
    479c:	5400002c 	strpl	r0, [r0], #-44	; 0xffffffd4
    47a0:	1700002c 	strne	r0, [r0, -ip, lsr #32]
    47a4:	00000a7b 	andeq	r0, r0, fp, ror sl
    47a8:	2c362d01 	ldccs	13, cr2, [r6], #-4
    47ac:	ca000000 	bgt	47b4 <__code_start__-0x384c>
    47b0:	c200002c 	andgt	r0, r0, #44, 0	; 0x2c
    47b4:	1d00002c 	stcne	0, cr0, [r0, #-176]	; 0xffffff50
    47b8:	00000a87 	andeq	r0, r0, r7, lsl #21
    47bc:	c20b2e01 	andgt	r2, fp, #1, 28
    47c0:	12000000 	andne	r0, r0, #0, 0
    47c4:	0400002d 	streq	r0, [r0], #-45	; 0xffffffd3
    47c8:	0e00002d 	cdpeq	0, 0, cr0, cr0, cr13, {1}
    47cc:	000000bb 	strheq	r0, [r0], -fp
    47d0:	000007d8 	ldrdeq	r0, [r0], -r8
    47d4:	aac00305 	bge	ff0053f0 <__bss_end__+0xfeffa490>
    47d8:	5c0f0000 	stcpl	0, cr0, [pc], {-0}
    47dc:	bc00009c 	stclt	0, cr0, [r0], {156}	; 0x9c
    47e0:	7e000008 	cdpvc	0, 0, cr0, cr0, cr8, {0}
    47e4:	10000007 	andne	r0, r0, r7
    47e8:	03055001 	movweq	r5, #20481	; 0x5001
    47ec:	0000a2e8 	andeq	sl, r0, r8, ror #5
    47f0:	05510110 	ldrbeq	r0, [r1, #-272]	; 0xfffffef0
    47f4:	00a92803 	adceq	r2, r9, r3, lsl #16
    47f8:	52011000 	andpl	r1, r1, #0, 0
    47fc:	aac00305 	bge	ff005418 <__bss_end__+0xfeffa4b8>
    4800:	01100000 	tsteq	r0, r0
    4804:	30080253 	andcc	r0, r8, r3, asr r2
    4808:	007d0210 	rsbseq	r0, sp, r0, lsl r2
    480c:	a9340305 	ldmdbge	r4!, {r0, r2, r8, r9}
    4810:	11000000 	mrsne	r0, (UNDEF: 0)
    4814:	00009c60 	andeq	r9, r0, r0, ror #24
    4818:	000008c8 	andeq	r0, r0, r8, asr #17
    481c:	009c840f 	addseq	r8, ip, pc, lsl #8
    4820:	0008bc00 	andeq	fp, r8, r0, lsl #24
    4824:	0007be00 	andeq	fp, r7, r0, lsl #28
    4828:	50011000 	andpl	r1, r1, r0
    482c:	a9400305 	stmdbge	r0, {r0, r2, r8, r9}^
    4830:	01100000 	tsteq	r0, r0
    4834:	28030551 	stmdacs	r3, {r0, r4, r6, r8, sl}
    4838:	100000a9 	andne	r0, r0, r9, lsr #1
    483c:	03055201 	movweq	r5, #20993	; 0x5201
    4840:	0000aac0 	andeq	sl, r0, r0, asr #21
    4844:	02530110 	subseq	r0, r3, #4
    4848:	02103408 	andseq	r3, r0, #8, 8	; 0x8000000
    484c:	f303007d 	vqadd.u8	q0, <illegal reg q1.5>, <illegal reg q14.5>
    4850:	11005001 	tstne	r0, r1
    4854:	00009c88 	andeq	r9, r0, r8, lsl #25
    4858:	000008c8 	andeq	r0, r0, r8, asr #17
    485c:	007e1200 	rsbseq	r1, lr, r0, lsl #4
    4860:	07d80000 	ldrbeq	r0, [r8, r0]
    4864:	2c130000 	ldccs	0, cr0, [r3], {-0}
    4868:	16000000 	strne	r0, [r0], -r0
    486c:	07c80500 	strbeq	r0, [r8, r0, lsl #10]
    4870:	141f0000 	ldrne	r0, [pc], #-0	; 4878 <__code_start__-0x3788>
    4874:	0100000b 	tsteq	r0, fp
    4878:	008a072a 	addeq	r0, sl, sl, lsr #14
    487c:	9bf40000 	blls	ffd04884 <__bss_end__+0xffcf9924>
    4880:	00100000 	andseq	r0, r0, r0
    4884:	9c010000 	stcls	0, cr0, [r1], {-0}
    4888:	000a681f 	andeq	r6, sl, pc, lsl r8
    488c:	07290100 	streq	r0, [r9, -r0, lsl #2]!
    4890:	0000008a 	andeq	r0, r0, sl, lsl #1
    4894:	00009be4 	andeq	r9, r0, r4, ror #23
    4898:	00000010 	andeq	r0, r0, r0, lsl r0
    489c:	c91f9c01 	ldmdbgt	pc, {r0, sl, fp, ip, pc}	; <UNPREDICTABLE>
    48a0:	0100000a 	tsteq	r0, sl
    48a4:	008a0728 	addeq	r0, sl, r8, lsr #14
    48a8:	9bd40000 	blls	ff5048b0 <__bss_end__+0xff4f9950>
    48ac:	00100000 	andseq	r0, r0, r0
    48b0:	9c010000 	stcls	0, cr0, [r1], {-0}
    48b4:	000a9f20 	andeq	r9, sl, r0, lsr #30
    48b8:	18100100 	ldmdane	r0, {r8}
    48bc:	0000002c 	andeq	r0, r0, ip, lsr #32
    48c0:	00085403 	andeq	r5, r8, r3, lsl #8
    48c4:	00782100 	rsbseq	r2, r8, r0, lsl #2
    48c8:	2c291001 	stccs	0, cr1, [r9], #-4
    48cc:	21000000 	mrscs	r0, (UNDEF: 0)
    48d0:	1001006e 	andne	r0, r1, lr, rrx
    48d4:	00002c35 	andeq	r2, r0, r5, lsr ip
    48d8:	00bb0e00 	adcseq	r0, fp, r0, lsl #28
    48dc:	05180000 	ldreq	r0, [r8, #-0]
    48e0:	03050000 	movweq	r0, #20480	; 0x5000
    48e4:	0000ab10 	andeq	sl, r0, r0, lsl fp
    48e8:	0aea2000 	beq	ffa8c8f0 <__bss_end__+0xffa81990>
    48ec:	0d010000 	stceq	0, cr0, [r1, #-0]
    48f0:	00002c18 	andeq	r2, r0, r8, lsl ip
    48f4:	08700300 	ldmdaeq	r0!, {r8, r9}^
    48f8:	78210000 	stmdavc	r1!, {}	; <UNPREDICTABLE>
    48fc:	290d0100 	stmdbcs	sp, {r8}
    4900:	0000002c 	andeq	r0, r0, ip, lsr #32
    4904:	0b092000 	bleq	24c90c <__bss_end__+0x2419ac>
    4908:	07010000 	streq	r0, [r1, -r0]
    490c:	00002c18 	andeq	r2, r0, r8, lsl ip
    4910:	08960300 	ldmeq	r6, {r8, r9}
    4914:	78210000 	stmdavc	r1!, {}	; <UNPREDICTABLE>
    4918:	2c070100 	stfcss	f0, [r7], {-0}
    491c:	0000002c 	andeq	r0, r0, ip, lsr #32
    4920:	01006e21 	tsteq	r0, r1, lsr #28
    4924:	002c3807 	eoreq	r3, ip, r7, lsl #16
    4928:	20000000 	andcs	r0, r0, r0
    492c:	00000abb 			; <UNDEFINED> instruction: 0x00000abb
    4930:	5d180401 	cfldrspl	mvf0, [r8, #-4]
    4934:	03000000 	movweq	r0, #0
    4938:	000008bc 			; <UNDEFINED> instruction: 0x000008bc
    493c:	01007821 	tsteq	r0, r1, lsr #16
    4940:	005d2904 	subseq	r2, sp, r4, lsl #18
    4944:	79210000 	stmdbvc	r1!, {}	; <UNPREDICTABLE>
    4948:	35040100 	strcc	r0, [r4, #-256]	; 0xffffff00
    494c:	0000005d 	andeq	r0, r0, sp, asr r0
    4950:	05ca2200 	strbeq	r2, [sl, #512]	; 0x200
    4954:	05ca0000 	strbeq	r0, [sl]
    4958:	28020000 	stmdacs	r2, {}	; <UNPREDICTABLE>
    495c:	00752206 	rsbseq	r2, r5, r6, lsl #4
    4960:	00750000 	rsbseq	r0, r5, r0
    4964:	6e020000 	cdpvs	0, 0, cr0, cr2, cr0, {0}
    4968:	0b252206 	bleq	94d188 <__bss_end__+0x942228>
    496c:	0b250000 	bleq	944974 <__bss_end__+0x939a14>
    4970:	1d020000 	stcne	0, cr0, [r2, #-0]
    4974:	00c82206 	sbceq	r2, r8, r6, lsl #4
    4978:	00c80000 	sbceq	r0, r8, r0
    497c:	f2020000 	vhadd.s8	d0, d2, d0
    4980:	06730007 	ldrbteq	r0, [r3], -r7
    4984:	00040000 	andeq	r0, r4, r0
    4988:	000018bb 			; <UNDEFINED> instruction: 0x000018bb
    498c:	00fe0104 	rscseq	r0, lr, r4, lsl #2
    4990:	770c0000 	strvc	r0, [ip, -r0]
    4994:	a000000b 	andge	r0, r0, fp
    4998:	84000005 	strhi	r0, [r0], #-5
    499c:	9800009f 	stmdals	r0, {r0, r1, r2, r3, r4, r7}
    49a0:	8b000001 	blhi	49ac <__code_start__-0x3654>
    49a4:	02000024 	andeq	r0, r0, #36, 0	; 0x24
    49a8:	00500708 	subseq	r0, r0, r8, lsl #14
    49ac:	04020000 	streq	r0, [r2], #-0
    49b0:	00005a07 	andeq	r5, r0, r7, lsl #20
    49b4:	05040300 	streq	r0, [r4, #-768]	; 0xfffffd00
    49b8:	00746e69 	rsbseq	r6, r4, r9, ror #28
    49bc:	00002c04 	andeq	r2, r0, r4, lsl #24
    49c0:	06010200 	streq	r0, [r1], -r0, lsl #4
    49c4:	00000069 	andeq	r0, r0, r9, rrx
    49c8:	0f050202 	svceq	0x00050202
    49cc:	02000002 	andeq	r0, r0, #2, 0
    49d0:	01cd0504 	biceq	r0, sp, r4, lsl #10
    49d4:	08020000 	stmdaeq	r2, {}	; <UNPREDICTABLE>
    49d8:	0001c805 	andeq	ip, r1, r5, lsl #16
    49dc:	08010200 	stmdaeq	r1, {r9}
    49e0:	00000067 	andeq	r0, r0, r7, rrx
    49e4:	82070202 	andhi	r0, r7, #536870912	; 0x20000000
    49e8:	05000000 	streq	r0, [r0, #-0]
    49ec:	0000022c 	andeq	r0, r0, ip, lsr #4
    49f0:	75193403 	ldrvc	r3, [r9, #-1027]	; 0xfffffbfd
    49f4:	02000000 	andeq	r0, r0, #0, 0
    49f8:	00550704 	subseq	r0, r5, r4, lsl #14
    49fc:	33060000 	movwcc	r0, #24576	; 0x6000
    4a00:	8b000000 	blhi	4a08 <__code_start__-0x35f8>
    4a04:	07000000 	streq	r0, [r0, -r0]
    4a08:	00000033 	andeq	r0, r0, r3, lsr r0
    4a0c:	02350800 	eorseq	r0, r5, #0, 16
    4a10:	1c020000 	stcne	0, cr0, [r2], {-0}
    4a14:	0000970e 	andeq	r9, r0, lr, lsl #14
    4a18:	7c040900 			; <UNDEFINED> instruction: 0x7c040900
    4a1c:	06000000 	streq	r0, [r0], -r0
    4a20:	00000033 	andeq	r0, r0, r3, lsr r0
    4a24:	000000ac 	andeq	r0, r0, ip, lsr #1
    4a28:	0000ac07 	andeq	sl, r0, r7, lsl #24
    4a2c:	04090000 	streq	r0, [r9], #-0
    4a30:	000000b9 	strheq	r0, [r0], -r9
    4a34:	70080102 	andvc	r0, r8, r2, lsl #2
    4a38:	04000000 	streq	r0, [r0], #-0
    4a3c:	000000b2 	strheq	r0, [r0], -r2
    4a40:	00060808 	andeq	r0, r6, r8, lsl #16
    4a44:	0e210200 	cdpeq	2, 2, cr0, cr1, cr0, {0}
    4a48:	000000ca 	andeq	r0, r0, sl, asr #1
    4a4c:	009d0409 	addseq	r0, sp, r9, lsl #8
    4a50:	070a0000 	streq	r0, [sl, -r0]
    4a54:	00005b01 	andeq	r5, r0, r1, lsl #22
    4a58:	0e0c0400 	cfcpyseq	mvf0, mvf12
    4a5c:	0000010f 	andeq	r0, r0, pc, lsl #2
    4a60:	000a400b 	andeq	r4, sl, fp
    4a64:	780b0000 	stmdavc	fp, {}	; <UNPREDICTABLE>
    4a68:	01000008 	tsteq	r0, r8
    4a6c:	0008bb0b 	andeq	fp, r8, fp, lsl #22
    4a70:	ca0b0400 	bgt	2c5a78 <__bss_end__+0x2bab18>
    4a74:	05000008 	streq	r0, [r0, #-8]
    4a78:	0008d90b 	andeq	sp, r8, fp, lsl #18
    4a7c:	e80b0600 	stmda	fp, {r9, sl}
    4a80:	07000008 	streq	r0, [r0, -r8]
    4a84:	000a090b 	andeq	r0, sl, fp, lsl #18
    4a88:	f70b0300 			; <UNDEFINED> instruction: 0xf70b0300
    4a8c:	02000008 	andeq	r0, r0, #8, 0
    4a90:	0bb00500 	bleq	fec05e98 <__bss_end__+0xfebfaf38>
    4a94:	15040000 	strne	r0, [r4, #-0]
    4a98:	0000d003 	andeq	sp, r0, r3
    4a9c:	0b4e0c00 	bleq	1387aa4 <__bss_end__+0x137cb44>
    4aa0:	1d010000 	stcne	0, cr0, [r1, #-0]
    4aa4:	00003a17 	andeq	r3, r0, r7, lsl sl
    4aa8:	20001c00 	andcs	r1, r0, r0, lsl #24
    4aac:	0b440c20 	bleq	1107b34 <__bss_end__+0x10fcbd4>
    4ab0:	1e010000 	cdpne	0, 0, cr0, cr1, cr0, {0}
    4ab4:	00003a17 	andeq	r3, r0, r7, lsl sl
    4ab8:	20002800 	andcs	r2, r0, r0, lsl #16
    4abc:	0bbc0c20 	bleq	fef07b44 <__bss_end__+0xfeefcbe4>
    4ac0:	1f010000 	svcne	0x00010000
    4ac4:	00003a17 	andeq	r3, r0, r7, lsl sl
    4ac8:	20003400 	andcs	r3, r0, r0, lsl #8
    4acc:	0b6d0d20 	bleq	1b47f54 <__bss_end__+0x1b3cff4>
    4ad0:	51010000 	mrspl	r0, (UNDEF: 1)
    4ad4:	00003305 	andeq	r3, r0, r5, lsl #6
    4ad8:	00a0f400 	adceq	pc, r0, r0, lsl #8
    4adc:	00002800 	andeq	r2, r0, r0, lsl #16
    4ae0:	ba9c0100 	blt	fe704ee8 <__bss_end__+0xfe6f9f88>
    4ae4:	0e000001 	cdpeq	0, 0, cr0, cr0, cr1, {0}
    4ae8:	006e6970 	rsbeq	r6, lr, r0, ror r9
    4aec:	2c185101 	ldfcss	f5, [r8], {1}
    4af0:	78000000 	stmdavc	r0, {}	; <UNPREDICTABLE>
    4af4:	7200002d 	andvc	r0, r0, #45, 0	; 0x2d
    4af8:	0f00002d 	svceq	0x0000002d
    4afc:	00000bc6 	andeq	r0, r0, r6, asr #23
    4b00:	2c0e5201 	sfmcs	f5, 4, [lr], {1}
    4b04:	ae000000 	cdpge	0, 0, cr0, cr0, cr0, {0}
    4b08:	a400002d 	strge	r0, [r0], #-45	; 0xffffffd3
    4b0c:	1000002d 	andne	r0, r0, sp, lsr #32
    4b10:	0066666f 	rsbeq	r6, r6, pc, ror #12
    4b14:	2c0e5301 	stccs	3, cr5, [lr], {1}
    4b18:	1c000000 	stcne	0, cr0, [r0], {-0}
    4b1c:	1600002e 	strne	r0, [r0], -lr, lsr #32
    4b20:	1100002e 	tstne	r0, lr, lsr #32
    4b24:	0000a108 	andeq	sl, r0, r8, lsl #2
    4b28:	0000065e 	andeq	r0, r0, lr, asr r6
    4b2c:	0a500112 	beq	1404f7c <__bss_end__+0x13fa01c>
    4b30:	25350074 	ldrcs	r0, [r5, #-116]!	; 0xffffff8c
    4b34:	8080b423 	addhi	fp, r0, r3, lsr #8
    4b38:	00000281 	andeq	r0, r0, r1, lsl #5
    4b3c:	000b5813 	andeq	r5, fp, r3, lsl r8
    4b40:	064a0100 	strbeq	r0, [sl], -r0, lsl #2
    4b44:	0000a0c4 	andeq	sl, r0, r4, asr #1
    4b48:	00000030 	andeq	r0, r0, r0, lsr r0
    4b4c:	02759c01 	rsbseq	r9, r5, #256	; 0x100
    4b50:	700e0000 	andvc	r0, lr, r0
    4b54:	01006e69 	tsteq	r0, r9, ror #28
    4b58:	002c1a4a 	eoreq	r1, ip, sl, asr #20
    4b5c:	2e590000 	cdpcs	0, 5, cr0, cr9, cr0, {0}
    4b60:	2e4d0000 	cdpcs	0, 4, cr0, cr13, cr0, {0}
    4b64:	760e0000 	strvc	r0, [lr], -r0
    4b68:	284a0100 	stmdacs	sl, {r8}^
    4b6c:	0000002c 	andeq	r0, r0, ip, lsr #32
    4b70:	00002ead 	andeq	r2, r0, sp, lsr #29
    4b74:	00002ea9 	andeq	r2, r0, r9, lsr #29
    4b78:	00038d14 	andeq	r8, r3, r4, lsl sp
    4b7c:	00a0d400 	adceq	sp, r0, r0, lsl #8
    4b80:	05f00100 	ldrbeq	r0, [r0, #256]!	; 0x100
    4b84:	4c010000 	stcmi	0, cr0, [r1], {-0}
    4b88:	00023509 	andeq	r3, r2, r9, lsl #10
    4b8c:	039a1500 	orrseq	r1, sl, #0, 10
    4b90:	2ed40000 	cdpcs	0, 13, cr0, cr4, cr0, {0}
    4b94:	2ece0000 	cdpcs	0, 12, cr0, cr14, cr0, {0}
    4b98:	e0160000 	ands	r0, r6, r0
    4b9c:	6a0000a0 	bvs	4e24 <__code_start__-0x31dc>
    4ba0:	12000006 	andne	r0, r0, #6, 0
    4ba4:	0c055001 	stceq	0, cr5, [r5], {1}
    4ba8:	2020001c 	eorcs	r0, r0, ip, lsl r0
    4bac:	05510112 	ldrbeq	r0, [r1, #-274]	; 0xfffffeee
    4bb0:	5001f331 	andpl	pc, r1, r1, lsr r3	; <UNPREDICTABLE>
    4bb4:	17000024 	strne	r0, [r0, -r4, lsr #32]
    4bb8:	00000373 	andeq	r0, r0, r3, ror r3
    4bbc:	0000a0e0 	andeq	sl, r0, r0, ror #1
    4bc0:	00a0e002 	adceq	lr, r0, r2
    4bc4:	00001400 	andeq	r1, r0, r0, lsl #8
    4bc8:	094e0100 	stmdbeq	lr, {r8}^
    4bcc:	00038015 	andeq	r8, r3, r5, lsl r0
    4bd0:	002f0600 	eoreq	r0, pc, r0, lsl #12
    4bd4:	002f0000 	eoreq	r0, pc, r0
    4bd8:	a0ec1600 	rscge	r1, ip, r0, lsl #12
    4bdc:	066a0000 	strbteq	r0, [sl], -r0
    4be0:	01120000 	tsteq	r2, r0
    4be4:	280c0550 	stmdacs	ip, {r4, r6, r8, sl}
    4be8:	12202000 	eorne	r2, r0, #0, 0
    4bec:	31055101 	tstcc	r5, r1, lsl #2
    4bf0:	245001f3 	ldrbcs	r0, [r0], #-499	; 0xfffffe0d
    4bf4:	13000000 	movwne	r0, #0
    4bf8:	00000b84 	andeq	r0, r0, r4, lsl #23
    4bfc:	6c064501 	cfstr32vs	mvfx4, [r6], {1}
    4c00:	580000a0 	stmdapl	r0, {r5, r7}
    4c04:	01000000 	mrseq	r0, (UNDEF: 0)
    4c08:	0003739c 	muleq	r3, ip, r3
    4c0c:	69700e00 	ldmdbvs	r0!, {r9, sl, fp}^
    4c10:	4501006e 	strmi	r0, [r1, #-110]	; 0xffffff92
    4c14:	00002c1e 	andeq	r2, r0, lr, lsl ip
    4c18:	002f3800 	eoreq	r3, pc, r0, lsl #16
    4c1c:	002f3200 	eoreq	r3, pc, r0, lsl #4
    4c20:	04a51800 	strteq	r1, [r5], #2048	; 0x800
    4c24:	a06c0000 	rsbge	r0, ip, r0
    4c28:	b0020000 	andlt	r0, r2, r0
    4c2c:	01000005 	tsteq	r0, r5
    4c30:	be190546 	cfmac32lt	mvfx0, mvfx9, mvfx6
    4c34:	00000004 	andeq	r0, r0, r4
    4c38:	0004b215 	andeq	fp, r4, r5, lsl r2
    4c3c:	002f6a00 	eoreq	r6, pc, r0, lsl #20
    4c40:	002f6400 	eoreq	r6, pc, r0, lsl #8
    4c44:	05b01a00 	ldreq	r1, [r0, #2560]!	; 0xa00
    4c48:	ca1b0000 	bgt	6c4c50 <__bss_end__+0x6b9cf0>
    4c4c:	1b000004 	blne	4c64 <__code_start__-0x339c>
    4c50:	000004d6 	ldrdeq	r0, [r0], -r6
    4c54:	0004e01b 	andeq	lr, r4, fp, lsl r0
    4c58:	04a51800 	strteq	r1, [r5], #2048	; 0x800
    4c5c:	a0740000 	rsbsge	r0, r4, r0
    4c60:	d0000000 	andle	r0, r0, r0
    4c64:	01000005 	tsteq	r0, r5
    4c68:	be190628 	cfmsub32lt	mvax1, mvfx0, mvfx9, mvfx8
    4c6c:	00000004 	andeq	r0, r0, r4
    4c70:	0004b215 	andeq	fp, r4, r5, lsl r2
    4c74:	002f9c00 	eoreq	r9, pc, r0, lsl #24
    4c78:	002f9600 	eoreq	r9, pc, r0, lsl #12
    4c7c:	05d01a00 	ldrbeq	r1, [r0, #2560]	; 0xa00
    4c80:	ca1c0000 	bgt	704c88 <__bss_end__+0x6f9d28>
    4c84:	ce000004 	cdpgt	0, 0, cr0, cr0, cr4, {0}
    4c88:	c800002f 	stmdagt	r0, {r0, r1, r2, r3, r5}
    4c8c:	1c00002f 	stcne	0, cr0, [r0], {47}	; 0x2f
    4c90:	000004d6 	ldrdeq	r0, [r0], -r6
    4c94:	00003010 	andeq	r3, r0, r0, lsl r0
    4c98:	0000300a 	andeq	r3, r0, sl
    4c9c:	0004e01c 	andeq	lr, r4, ip, lsl r0
    4ca0:	00306600 	eorseq	r6, r0, r0, lsl #12
    4ca4:	00305e00 	eorseq	r5, r0, r0, lsl #28
    4ca8:	a09c1d00 	addsge	r1, ip, r0, lsl #26
    4cac:	065e0000 	ldrbeq	r0, [lr], -r0
    4cb0:	033b0000 	teqeq	fp, #0, 0
    4cb4:	01120000 	tsteq	r2, r0
    4cb8:	00760250 	rsbseq	r0, r6, r0, asr r2
    4cbc:	a0c01600 	sbcge	r1, r0, r0, lsl #12
    4cc0:	066a0000 	strbteq	r0, [sl], -r0
    4cc4:	01120000 	tsteq	r2, r0
    4cc8:	01f32550 	mvnseq	r2, r0, asr r5
    4ccc:	f72cf750 			; <UNDEFINED> instruction: 0xf72cf750
    4cd0:	0825f425 	stmdaeq	r5!, {r0, r2, r5, sl, ip, sp, lr, pc}
    4cd4:	cccccccd 	stclgt	12, cr12, [ip], {205}	; 0xcd
    4cd8:	00000000 	andeq	r0, r0, r0
    4cdc:	f720081e 			; <UNDEFINED> instruction: 0xf720081e
    4ce0:	2cf72525 	cfldr64cs	mvdx2, [r7], #148	; 0x94
    4ce4:	253300f7 	ldrcs	r0, [r3, #-247]!	; 0xffffff09
    4ce8:	a0808023 	addge	r8, r0, r3, lsr #32
    4cec:	00243240 	eoreq	r3, r4, r0, asr #4
    4cf0:	00000000 	andeq	r0, r0, r0
    4cf4:	0b931e00 	bleq	fe4cc4fc <__bss_end__+0xfe4c159c>
    4cf8:	40010000 	andmi	r0, r1, r0
    4cfc:	038d030d 	orreq	r0, sp, #872415232	; 0x34000000
    4d00:	701f0000 	andsvc	r0, pc, r0
    4d04:	01006e69 	tsteq	r0, r9, ror #28
    4d08:	002c2340 	eoreq	r2, ip, r0, asr #6
    4d0c:	1e000000 	cdpne	0, 0, cr0, cr0, cr0, {0}
    4d10:	00000bcb 	andeq	r0, r0, fp, asr #23
    4d14:	030d3b01 	movweq	r3, #56065	; 0xdb01
    4d18:	000003a7 	andeq	r0, r0, r7, lsr #7
    4d1c:	6e69701f 	mcrvs	0, 3, r7, cr9, cr15, {0}
    4d20:	223b0100 	eorscs	r0, fp, #0
    4d24:	0000002c 	andeq	r0, r0, ip, lsr #32
    4d28:	0ba01300 	bleq	fe809930 <__bss_end__+0xfe7fe9d0>
    4d2c:	36010000 	strcc	r0, [r1], -r0
    4d30:	009fe406 	addseq	lr, pc, r6, lsl #8
    4d34:	00005800 	andeq	r5, r0, r0, lsl #16
    4d38:	a59c0100 	ldrge	r0, [ip, #256]	; 0x100
    4d3c:	0e000004 	cdpeq	0, 0, cr0, cr0, cr4, {0}
    4d40:	006e6970 	rsbeq	r6, lr, r0, ror r9
    4d44:	2c1f3601 	ldccs	6, cr3, [pc], {1}
    4d48:	c4000000 	strgt	r0, [r0], #-0
    4d4c:	c0000030 	andgt	r0, r0, r0, lsr r0
    4d50:	18000030 	stmdane	r0, {r4, r5}
    4d54:	000004a5 	andeq	r0, r0, r5, lsr #9
    4d58:	00009fe4 	andeq	r9, r0, r4, ror #31
    4d5c:	00057002 	andeq	r7, r5, r2
    4d60:	05370100 	ldreq	r0, [r7, #-256]!	; 0xffffff00
    4d64:	0004be19 	andeq	fp, r4, r9, lsl lr
    4d68:	b2150100 	andslt	r0, r5, #0
    4d6c:	e9000004 	stmdb	r0, {r2}
    4d70:	e5000030 	str	r0, [r0, #-48]	; 0xffffffd0
    4d74:	1a000030 	bne	4e3c <__code_start__-0x31c4>
    4d78:	00000570 	andeq	r0, r0, r0, ror r5
    4d7c:	0004ca1b 	andeq	ip, r4, fp, lsl sl
    4d80:	04d61b00 	ldrbeq	r1, [r6], #2816	; 0xb00
    4d84:	e01b0000 	ands	r0, fp, r0
    4d88:	18000004 	stmdane	r0, {r2}
    4d8c:	000004a5 	andeq	r0, r0, r5, lsr #9
    4d90:	00009fec 	andeq	r9, r0, ip, ror #31
    4d94:	00059000 	andeq	r9, r5, r0
    4d98:	06280100 	strteq	r0, [r8], -r0, lsl #2
    4d9c:	0004be19 	andeq	fp, r4, r9, lsl lr
    4da0:	b2150100 	andslt	r0, r5, #0
    4da4:	0e000004 	cdpeq	0, 0, cr0, cr0, cr4, {0}
    4da8:	0a000031 	beq	4e74 <__code_start__-0x318c>
    4dac:	1a000031 	bne	4e78 <__code_start__-0x3188>
    4db0:	00000590 	muleq	r0, r0, r5
    4db4:	0004ca1c 	andeq	ip, r4, ip, lsl sl
    4db8:	00313300 	eorseq	r3, r1, r0, lsl #6
    4dbc:	00312f00 	eorseq	r2, r1, r0, lsl #30
    4dc0:	04d61c00 	ldrbeq	r1, [r6], #3072	; 0xc00
    4dc4:	317f0000 	cmncc	pc, r0
    4dc8:	31790000 	cmncc	r9, r0
    4dcc:	e01c0000 	ands	r0, ip, r0
    4dd0:	d5000004 	strle	r0, [r0, #-4]
    4dd4:	cd000031 	stcgt	0, cr0, [r0, #-196]	; 0xffffff3c
    4dd8:	1d000031 	stcne	0, cr0, [r0, #-196]	; 0xffffff3c
    4ddc:	0000a018 	andeq	sl, r0, r8, lsl r0
    4de0:	0000065e 	andeq	r0, r0, lr, asr r6
    4de4:	0000046d 	andeq	r0, r0, sp, ror #8
    4de8:	02500112 	subseq	r0, r0, #-2147483644	; 0x80000004
    4dec:	16000075 			; <UNDEFINED> instruction: 0x16000075
    4df0:	0000a038 	andeq	sl, r0, r8, lsr r0
    4df4:	0000066a 	andeq	r0, r0, sl, ror #12
    4df8:	25500112 	ldrbcs	r0, [r0, #-274]	; 0xfffffeee
    4dfc:	f75001f3 			; <UNDEFINED> instruction: 0xf75001f3
    4e00:	f425f72c 	vld1.8	{d15}, [r5 :128], ip
    4e04:	cccd0825 	stclgt	8, cr0, [sp], {37}	; 0x25
    4e08:	0000cccc 	andeq	ip, r0, ip, asr #25
    4e0c:	081e0000 	ldmdaeq	lr, {}	; <UNPREDICTABLE>
    4e10:	2525f720 	strcs	pc, [r5, #-1824]!	; 0xfffff8e0
    4e14:	00f72cf7 	ldrshteq	r2, [r7], #199	; 0xc7
    4e18:	80232533 	eorhi	r2, r3, r3, lsr r5
    4e1c:	3240a080 	subcc	sl, r0, #128, 0	; 0x80
    4e20:	00000024 	andeq	r0, r0, r4, lsr #32
    4e24:	1e000000 	cdpne	0, 0, cr0, cr0, cr0, {0}
    4e28:	00000a50 	andeq	r0, r0, r0, asr sl
    4e2c:	01062801 	tsteq	r6, r1, lsl #16
    4e30:	000004eb 	andeq	r0, r0, fp, ror #9
    4e34:	6e69701f 	mcrvs	0, 3, r7, cr9, cr15, {0}
    4e38:	21280100 			; <UNDEFINED> instruction: 0x21280100
    4e3c:	0000002c 	andeq	r0, r0, ip, lsr #32
    4e40:	0000b620 	andeq	fp, r0, r0, lsr #12
    4e44:	32280100 	eorcc	r0, r8, #0
    4e48:	0000010f 	andeq	r0, r0, pc, lsl #2
    4e4c:	66666f21 	strbtvs	r6, [r6], -r1, lsr #30
    4e50:	0e2d0100 	sufeqe	f0, f5, f0
    4e54:	0000002c 	andeq	r0, r0, ip, lsr #32
    4e58:	01006721 	tsteq	r0, r1, lsr #14
    4e5c:	002c0e2e 	eoreq	r0, ip, lr, lsr #28
    4e60:	76210000 	strtvc	r0, [r1], -r0
    4e64:	0e300100 	rsfeqs	f0, f0, f0
    4e68:	0000002c 	andeq	r0, r0, ip, lsr #32
    4e6c:	0b632200 	bleq	18cd674 <__bss_end__+0x18c2714>
    4e70:	b1020000 	mrslt	r0, (UNDEF: 2)
    4e74:	00006918 	andeq	r6, r0, r8, lsl r9
    4e78:	05070300 	streq	r0, [r7, #-768]	; 0xfffffd00
    4e7c:	781f0000 	ldmdavc	pc, {}	; <UNPREDICTABLE>
    4e80:	2bb10200 	blcs	fec45688 <__bss_end__+0xfec3a728>
    4e84:	00000069 	andeq	r0, r0, r9, rrx
    4e88:	04a52300 	strteq	r2, [r5], #768	; 0x300
    4e8c:	9f840000 	svcls	0x00840000
    4e90:	00600000 	rsbeq	r0, r0, r0
    4e94:	9c010000 	stcls	0, cr0, [r1], {-0}
    4e98:	000005e4 	andeq	r0, r0, r4, ror #11
    4e9c:	0004b215 	andeq	fp, r4, r5, lsl r2
    4ea0:	00321400 	eorseq	r1, r2, r0, lsl #8
    4ea4:	00321000 	eorseq	r1, r2, r0
    4ea8:	04be1500 	ldrteq	r1, [lr], #1280	; 0x500
    4eac:	32390000 	eorscc	r0, r9, #0, 0
    4eb0:	32350000 	eorscc	r0, r5, #0, 0
    4eb4:	ca1b0000 	bgt	6c4ebc <__bss_end__+0x6b9f5c>
    4eb8:	1b000004 	blne	4ed0 <__code_start__-0x3130>
    4ebc:	000004d6 	ldrdeq	r0, [r0], -r6
    4ec0:	0004e01b 	andeq	lr, r4, fp, lsl r0
    4ec4:	04a51800 	strteq	r1, [r5], #2048	; 0x800
    4ec8:	9f8c0000 	svcls	0x008c0000
    4ecc:	50000000 	andpl	r0, r0, r0
    4ed0:	01000005 	tsteq	r0, r5
    4ed4:	be150628 	cfmsub32lt	mvax1, mvfx0, mvfx5, mvfx8
    4ed8:	5e000004 	cdppl	0, 0, cr0, cr0, cr4, {0}
    4edc:	5a000032 	bpl	4fac <__code_start__-0x3054>
    4ee0:	15000032 	strne	r0, [r0, #-50]	; 0xffffffce
    4ee4:	000004b2 			; <UNDEFINED> instruction: 0x000004b2
    4ee8:	00003283 	andeq	r3, r0, r3, lsl #5
    4eec:	0000327f 	andeq	r3, r0, pc, ror r2
    4ef0:	0005501a 	andeq	r5, r5, sl, lsl r0
    4ef4:	04ca1c00 	strbeq	r1, [sl], #3072	; 0xc00
    4ef8:	32a80000 	adccc	r0, r8, #0, 0
    4efc:	32a40000 	adccc	r0, r4, #0, 0
    4f00:	d61c0000 	ldrle	r0, [ip], -r0
    4f04:	f4000004 	vst4.8	{d0-d3}, [r0], r4
    4f08:	ee000032 	mcr	0, 0, r0, cr0, cr2, {1}
    4f0c:	1c000032 	stcne	0, cr0, [r0], {50}	; 0x32
    4f10:	000004e0 	andeq	r0, r0, r0, ror #9
    4f14:	0000334a 	andeq	r3, r0, sl, asr #6
    4f18:	00003342 	andeq	r3, r0, r2, asr #6
    4f1c:	009fc41d 	addseq	ip, pc, sp, lsl r4	; <UNPREDICTABLE>
    4f20:	00065e00 	andeq	r5, r6, r0, lsl #28
    4f24:	0005ae00 	andeq	sl, r5, r0, lsl #28
    4f28:	50011200 	andpl	r1, r1, r0, lsl #4
    4f2c:	00007602 	andeq	r7, r0, r2, lsl #12
    4f30:	009fe016 	addseq	lr, pc, r6, lsl r0	; <UNPREDICTABLE>
    4f34:	00066a00 	andeq	r6, r6, r0, lsl #20
    4f38:	50011200 	andpl	r1, r1, r0, lsl #4
    4f3c:	5001f325 	andpl	pc, r1, r5, lsr #6
    4f40:	25f72cf7 	ldrbcs	r2, [r7, #3319]!	; 0xcf7
    4f44:	cd0825f4 	cfstr32gt	mvfx2, [r8, #-976]	; 0xfffffc30
    4f48:	00cccccc 	sbceq	ip, ip, ip, asr #25
    4f4c:	1e000000 	cdpne	0, 0, cr0, cr0, cr0, {0}
    4f50:	25f72008 	ldrbcs	r2, [r7, #8]!
    4f54:	f72cf725 			; <UNDEFINED> instruction: 0xf72cf725
    4f58:	23253300 			; <UNDEFINED> instruction: 0x23253300
    4f5c:	40a08080 	adcmi	r8, r0, r0, lsl #1
    4f60:	00002432 	andeq	r2, r0, r2, lsr r4
    4f64:	8d230000 	stchi	0, cr0, [r3, #-0]
    4f68:	3c000003 	stccc	0, cr0, [r0], {3}
    4f6c:	180000a0 	stmdane	r0, {r5, r7}
    4f70:	01000000 	mrseq	r0, (UNDEF: 0)
    4f74:	0006219c 	muleq	r6, ip, r1
    4f78:	039a1500 	orrseq	r1, sl, #0, 10
    4f7c:	33a00000 	movcc	r0, #0, 0
    4f80:	339a0000 	orrscc	r0, sl, #0, 0
    4f84:	50160000 	andspl	r0, r6, r0
    4f88:	6a0000a0 	bvs	5210 <__code_start__-0x2df0>
    4f8c:	12000006 	andne	r0, r0, #6, 0
    4f90:	0c055001 	stceq	0, cr5, [r5], {1}
    4f94:	2020001c 	eorcs	r0, r0, ip, lsl r0
    4f98:	05510112 	ldrbeq	r0, [r1, #-274]	; 0xfffffeee
    4f9c:	5001f331 	andpl	pc, r1, r1, lsr r3	; <UNPREDICTABLE>
    4fa0:	23000024 	movwcs	r0, #36	; 0x24
    4fa4:	00000373 	andeq	r0, r0, r3, ror r3
    4fa8:	0000a054 	andeq	sl, r0, r4, asr r0
    4fac:	00000018 	andeq	r0, r0, r8, lsl r0
    4fb0:	065e9c01 	ldrbeq	r9, [lr], -r1, lsl #24
    4fb4:	80150000 	andshi	r0, r5, r0
    4fb8:	d2000003 	andle	r0, r0, #3, 0
    4fbc:	cc000033 	stcgt	0, cr0, [r0], {51}	; 0x33
    4fc0:	16000033 			; <UNDEFINED> instruction: 0x16000033
    4fc4:	0000a068 	andeq	sl, r0, r8, rrx
    4fc8:	0000066a 	andeq	r0, r0, sl, ror #12
    4fcc:	05500112 	ldrbeq	r0, [r0, #-274]	; 0xfffffeee
    4fd0:	2000280c 	andcs	r2, r0, ip, lsl #16
    4fd4:	51011220 	tstpl	r1, r0, lsr #4
    4fd8:	01f33105 	mvnseq	r3, r5, lsl #2
    4fdc:	00002450 	andeq	r2, r0, r0, asr r4
    4fe0:	00082524 	andeq	r2, r8, r4, lsr #10
    4fe4:	00082500 	andeq	r2, r8, r0, lsl #10
    4fe8:	0ac20200 	beq	ff0857f0 <__bss_end__+0xff07a890>
    4fec:	00079124 	andeq	r9, r7, r4, lsr #2
    4ff0:	00079100 	andeq	r9, r7, r0, lsl #2
    4ff4:	06ad0200 	strteq	r0, [sp], r0, lsl #4
    4ff8:	00014900 	andeq	r4, r1, r0, lsl #18
    4ffc:	e9000400 	stmdb	r0, {sl}
    5000:	0400001a 	streq	r0, [r0], #-26	; 0xffffffe6
    5004:	0000fe01 	andeq	pc, r0, r1, lsl #28
    5008:	0bf50c00 	bleq	ffd48010 <__bss_end__+0xffd3d0b0>
    500c:	05a00000 	streq	r0, [r0, #0]!
    5010:	a11c0000 	tstge	ip, r0
    5014:	003c0000 	eorseq	r0, ip, r0
    5018:	27180000 	ldrcs	r0, [r8, -r0]
    501c:	04020000 	streq	r0, [r2], #-0
    5020:	746e6905 	strbtvc	r6, [lr], #-2309	; 0xfffff6fb
    5024:	07040300 	streq	r0, [r4, -r0, lsl #6]
    5028:	0000005a 	andeq	r0, r0, sl, asr r0
    502c:	69060103 	stmdbvs	r6, {r0, r1, r8}
    5030:	03000000 	movweq	r0, #0
    5034:	020f0502 	andeq	r0, pc, #8388608	; 0x800000
    5038:	04030000 	streq	r0, [r3], #-0
    503c:	0001cd05 	andeq	ip, r1, r5, lsl #26
    5040:	05080300 	streq	r0, [r8, #-768]	; 0xfffffd00
    5044:	000001c8 	andeq	r0, r0, r8, asr #3
    5048:	67080103 	strvs	r0, [r8, -r3, lsl #2]
    504c:	03000000 	movweq	r0, #0
    5050:	00820702 	addeq	r0, r2, r2, lsl #14
    5054:	04030000 	streq	r0, [r3], #-0
    5058:	00005507 	andeq	r5, r0, r7, lsl #10
    505c:	07080300 	streq	r0, [r8, -r0, lsl #6]
    5060:	00000050 	andeq	r0, r0, r0, asr r0
    5064:	00002504 	andeq	r2, r0, r4, lsl #10
    5068:	00007a00 	andeq	r7, r0, r0, lsl #20
    506c:	00250500 	eoreq	r0, r5, r0, lsl #10
    5070:	06000000 	streq	r0, [r0], -r0
    5074:	00000235 	andeq	r0, r0, r5, lsr r2
    5078:	860e1c02 	strhi	r1, [lr], -r2, lsl #24
    507c:	07000000 	streq	r0, [r0, -r0]
    5080:	00006b04 	andeq	r6, r0, r4, lsl #22
    5084:	00250400 	eoreq	r0, r5, r0, lsl #8
    5088:	009b0000 	addseq	r0, fp, r0
    508c:	9b050000 	blls	145094 <__bss_end__+0x13a134>
    5090:	00000000 	andeq	r0, r0, r0
    5094:	00a80407 	adceq	r0, r8, r7, lsl #8
    5098:	01030000 	mrseq	r0, (UNDEF: 3)
    509c:	00007008 	andeq	r7, r0, r8
    50a0:	00a10800 	adceq	r0, r1, r0, lsl #16
    50a4:	08060000 	stmdaeq	r6, {}	; <UNPREDICTABLE>
    50a8:	02000006 	andeq	r0, r0, #6, 0
    50ac:	00b90e21 	adcseq	r0, r9, r1, lsr #28
    50b0:	04070000 	streq	r0, [r7], #-0
    50b4:	0000008c 	andeq	r0, r0, ip, lsl #1
    50b8:	00007a09 	andeq	r7, r0, r9, lsl #20
    50bc:	07060100 	streq	r0, [r6, -r0, lsl #2]
    50c0:	ab340305 	blge	d05cdc <__bss_end__+0xcfad7c>
    50c4:	e80a0000 	stmda	sl, {}	; <UNPREDICTABLE>
    50c8:	0100000b 	tsteq	r0, fp
    50cc:	a148060b 	cmpge	r8, fp, lsl #12
    50d0:	00100000 	andseq	r0, r0, r0
    50d4:	9c010000 	stcls	0, cr0, [r1], {-0}
    50d8:	000000f1 	strdeq	r0, [r0], -r1
    50dc:	0070660b 	rsbseq	r6, r0, fp, lsl #12
    50e0:	86190b01 	ldrhi	r0, [r9], -r1, lsl #22
    50e4:	01000000 	mrseq	r0, (UNDEF: 0)
    50e8:	250c0050 	strcs	r0, [ip, #-80]	; 0xffffffb0
    50ec:	0100000b 	tsteq	r0, fp
    50f0:	a1300608 	teqge	r0, r8, lsl #12
    50f4:	00180000 	andseq	r0, r8, r0
    50f8:	9c010000 	stcls	0, cr0, [r1], {-0}
    50fc:	000bd70d 	andeq	sp, fp, sp, lsl #14
    5100:	0c030100 	stfeqs	f0, [r3], {-0}
    5104:	00000025 	andeq	r0, r0, r5, lsr #32
    5108:	0000a11c 	andeq	sl, r0, ip, lsl r1
    510c:	00000014 	andeq	r0, r0, r4, lsl r0
    5110:	01409c01 	cmpeq	r0, r1, lsl #24
    5114:	630e0000 	movwvs	r0, #57344	; 0xe000
    5118:	21030100 	mrscs	r0, (UNDEF: 19)
    511c:	00000025 	andeq	r0, r0, r5, lsr #32
    5120:	00003402 	andeq	r3, r0, r2, lsl #8
    5124:	000033fe 	strdeq	r3, [r0], -lr
    5128:	00a1280f 	adceq	r2, r1, pc, lsl #16
    512c:	00014000 	andeq	r4, r1, r0
    5130:	50011000 	andpl	r1, r1, r0
    5134:	00007402 	andeq	r7, r0, r2, lsl #8
    5138:	0a361100 	beq	d89540 <__bss_end__+0xd7e5e0>
    513c:	0a360000 	beq	d85144 <__bss_end__+0xd7a1e4>
    5140:	42020000 	andmi	r0, r2, #0, 0
    5144:	01370006 	teqeq	r7, r6
    5148:	00040000 	andeq	r0, r4, r0
    514c:	00001bf8 	strdeq	r1, [r0], -r8
    5150:	00fe0104 	rscseq	r0, lr, r4, lsl #2
    5154:	060c0000 	streq	r0, [ip], -r0
    5158:	a000000c 	andge	r0, r0, ip
    515c:	58000005 	stmdapl	r0, {r0, r2}
    5160:	2c0000a1 	stccs	0, cr0, [r0], {161}	; 0xa1
    5164:	ba000000 	blt	516c <__code_start__-0x2e94>
    5168:	02000027 	andeq	r0, r0, #39, 0	; 0x27
    516c:	6e690504 	cdpvs	5, 6, cr0, cr9, cr4, {0}
    5170:	04030074 	streq	r0, [r3], #-116	; 0xffffff8c
    5174:	00005a07 	andeq	r5, r0, r7, lsl #20
    5178:	06010300 	streq	r0, [r1], -r0, lsl #6
    517c:	00000069 	andeq	r0, r0, r9, rrx
    5180:	0f050203 	svceq	0x00050203
    5184:	03000002 	movweq	r0, #2
    5188:	01cd0504 	biceq	r0, sp, r4, lsl #10
    518c:	08030000 	stmdaeq	r3, {}	; <UNPREDICTABLE>
    5190:	0001c805 	andeq	ip, r1, r5, lsl #16
    5194:	08010300 	stmdaeq	r1, {r8, r9}
    5198:	00000067 	andeq	r0, r0, r7, rrx
    519c:	82070203 	andhi	r0, r7, #805306368	; 0x30000000
    51a0:	03000000 	movweq	r0, #0
    51a4:	00550704 	subseq	r0, r5, r4, lsl #14
    51a8:	08030000 	stmdaeq	r3, {}	; <UNPREDICTABLE>
    51ac:	00005007 	andeq	r5, r0, r7
    51b0:	00250400 	eoreq	r0, r5, r0, lsl #8
    51b4:	007a0000 	rsbseq	r0, sl, r0
    51b8:	25050000 	strcs	r0, [r5, #-0]
    51bc:	00000000 	andeq	r0, r0, r0
    51c0:	00023506 	andeq	r3, r2, r6, lsl #10
    51c4:	0e1c0200 	cdpeq	2, 1, cr0, cr12, cr0, {0}
    51c8:	00000086 	andeq	r0, r0, r6, lsl #1
    51cc:	006b0407 	rsbeq	r0, fp, r7, lsl #8
    51d0:	25040000 	strcs	r0, [r4, #-0]
    51d4:	9b000000 	blls	51dc <__code_start__-0x2e24>
    51d8:	05000000 	streq	r0, [r0, #-0]
    51dc:	0000009b 	muleq	r0, fp, r0
    51e0:	a8040700 	stmdage	r4, {r8, r9, sl}
    51e4:	03000000 	movweq	r0, #0
    51e8:	00700801 	rsbseq	r0, r0, r1, lsl #16
    51ec:	a1080000 	mrsge	r0, (UNDEF: 8)
    51f0:	06000000 	streq	r0, [r0], -r0
    51f4:	00000608 	andeq	r0, r0, r8, lsl #12
    51f8:	b90e2102 	stmdblt	lr, {r1, r8, sp}
    51fc:	07000000 	streq	r0, [r0, -r0]
    5200:	00008c04 	andeq	r8, r0, r4, lsl #24
    5204:	06840900 	streq	r0, [r4], r0, lsl #18
    5208:	04010000 	streq	r0, [r1], #-0
    520c:	00013407 	andeq	r3, r1, r7, lsl #8
    5210:	00a15800 	adceq	r5, r1, r0, lsl #16
    5214:	00002c00 	andeq	r2, r0, r0, lsl #24
    5218:	349c0100 	ldrcc	r0, [ip], #256	; 0x100
    521c:	0a000001 	beq	5228 <__code_start__-0x2dd8>
    5220:	00000c16 	andeq	r0, r0, r6, lsl ip
    5224:	34150401 	ldrcc	r0, [r5], #-1025	; 0xfffffbff
    5228:	01000001 	tsteq	r0, r1
    522c:	72730b50 	rsbsvc	r0, r3, #80, 22	; 0x14000
    5230:	04010063 	streq	r0, [r1], #-99	; 0xffffff9d
    5234:	00009b27 	andeq	r9, r0, r7, lsr #22
    5238:	00342400 	eorseq	r2, r4, r0, lsl #8
    523c:	00342000 	eorseq	r2, r4, r0
    5240:	31730c00 	cmncc	r3, r0, lsl #24
    5244:	0b050100 	bleq	14564c <__bss_end__+0x13a6ec>
    5248:	00000134 	andeq	r0, r0, r4, lsr r1
    524c:	00003453 	andeq	r3, r0, r3, asr r4
    5250:	00003445 	andeq	r3, r0, r5, asr #8
    5254:	0032730c 	eorseq	r7, r2, ip, lsl #6
    5258:	9b110601 	blls	446a64 <__bss_end__+0x43bb04>
    525c:	b2000000 	andlt	r0, r0, #0, 0
    5260:	ac000034 	stcge	0, cr0, [r0], {52}	; 0x34
    5264:	0c000034 	stceq	0, cr0, [r0], {52}	; 0x34
    5268:	07010063 	streq	r0, [r1, -r3, rrx]
    526c:	0000a10a 	andeq	sl, r0, sl, lsl #2
    5270:	0034e300 	eorseq	lr, r4, r0, lsl #6
    5274:	0034dd00 	eorseq	sp, r4, r0, lsl #26
    5278:	04070000 	streq	r0, [r7], #-0
    527c:	000000a1 	andeq	r0, r0, r1, lsr #1
    5280:	0000f700 	andeq	pc, r0, r0, lsl #14
    5284:	ae000400 	cfcpysge	mvf0, mvf0
    5288:	0400001c 	streq	r0, [r0], #-28	; 0xffffffe4
    528c:	0000fe01 	andeq	pc, r0, r1, lsl #28
    5290:	0c1b0c00 	ldceq	12, cr0, [fp], {-0}
    5294:	05a00000 	streq	r0, [r0, #0]!
    5298:	a1840000 	orrge	r0, r4, r0
    529c:	00440000 	subeq	r0, r4, r0
    52a0:	28a00000 	stmiacs	r0!, {}	; <UNPREDICTABLE>
    52a4:	04020000 	streq	r0, [r2], #-0
    52a8:	746e6905 	strbtvc	r6, [lr], #-2309	; 0xfffff6fb
    52ac:	07040300 	streq	r0, [r4, -r0, lsl #6]
    52b0:	0000005a 	andeq	r0, r0, sl, asr r0
    52b4:	69060103 	stmdbvs	r6, {r0, r1, r8}
    52b8:	03000000 	movweq	r0, #0
    52bc:	020f0502 	andeq	r0, pc, #8388608	; 0x800000
    52c0:	04030000 	streq	r0, [r3], #-0
    52c4:	0001cd05 	andeq	ip, r1, r5, lsl #26
    52c8:	05080300 	streq	r0, [r8, #-768]	; 0xfffffd00
    52cc:	000001c8 	andeq	r0, r0, r8, asr #3
    52d0:	67080103 	strvs	r0, [r8, -r3, lsl #2]
    52d4:	03000000 	movweq	r0, #0
    52d8:	00820702 	addeq	r0, r2, r2, lsl #14
    52dc:	04030000 	streq	r0, [r3], #-0
    52e0:	00005507 	andeq	r5, r0, r7, lsl #10
    52e4:	07080300 	streq	r0, [r8, -r0, lsl #6]
    52e8:	00000050 	andeq	r0, r0, r0, asr r0
    52ec:	00002504 	andeq	r2, r0, r4, lsl #10
    52f0:	00007a00 	andeq	r7, r0, r0, lsl #20
    52f4:	00250500 	eoreq	r0, r5, r0, lsl #10
    52f8:	06000000 	streq	r0, [r0], -r0
    52fc:	00000235 	andeq	r0, r0, r5, lsr r2
    5300:	860e1c02 	strhi	r1, [lr], -r2, lsl #24
    5304:	07000000 	streq	r0, [r0, -r0]
    5308:	00006b04 	andeq	r6, r0, r4, lsl #22
    530c:	00250400 	eoreq	r0, r5, r0, lsl #8
    5310:	009b0000 	addseq	r0, fp, r0
    5314:	9b050000 	blls	14531c <__bss_end__+0x13a3bc>
    5318:	00000000 	andeq	r0, r0, r0
    531c:	00a80407 	adceq	r0, r8, r7, lsl #8
    5320:	01030000 	mrseq	r0, (UNDEF: 3)
    5324:	00007008 	andeq	r7, r0, r8
    5328:	00a10800 	adceq	r0, r1, r0, lsl #16
    532c:	08060000 	stmdaeq	r6, {}	; <UNPREDICTABLE>
    5330:	02000006 	andeq	r0, r0, #6, 0
    5334:	00b90e21 	adcseq	r0, r9, r1, lsr #28
    5338:	04070000 	streq	r0, [r7], #-0
    533c:	0000008c 	andeq	r0, r0, ip, lsl #1
    5340:	0006b209 	andeq	fp, r6, r9, lsl #4
    5344:	05030100 	streq	r0, [r3, #-256]	; 0xffffff00
    5348:	00000025 	andeq	r0, r0, r5, lsr #32
    534c:	0000a184 	andeq	sl, r0, r4, lsl #3
    5350:	00000044 	andeq	r0, r0, r4, asr #32
    5354:	610a9c01 	tstvs	sl, r1, lsl #24
    5358:	18030100 	stmdane	r3, {r8}
    535c:	0000009b 	muleq	r0, fp, r0
    5360:	0000351a 	andeq	r3, r0, sl, lsl r5
    5364:	0000350e 	andeq	r3, r0, lr, lsl #10
    5368:	0100620a 	tsteq	r0, sl, lsl #4
    536c:	009b2703 	addseq	r2, fp, r3, lsl #14
    5370:	356e0000 	strbcc	r0, [lr, #-0]!
    5374:	35680000 	strbcc	r0, [r8, #-0]!
    5378:	00000000 	andeq	r0, r0, r0
    537c:	0000010f 	andeq	r0, r0, pc, lsl #2
    5380:	1d3d0004 	ldcne	0, cr0, [sp, #-16]!
    5384:	01040000 	mrseq	r0, (UNDEF: 4)
    5388:	000000fe 	strdeq	r0, [r0], -lr
    538c:	000c2b0c 	andeq	r2, ip, ip, lsl #22
    5390:	0005a000 	andeq	sl, r5, r0
    5394:	00a1c800 	adceq	ip, r1, r0, lsl #16
    5398:	00001800 	andeq	r1, r0, r0, lsl #16
    539c:	00295600 	eoreq	r5, r9, r0, lsl #12
    53a0:	05040200 	streq	r0, [r4, #-512]	; 0xfffffe00
    53a4:	00746e69 	rsbseq	r6, r4, r9, ror #28
    53a8:	5a070403 	bpl	1c63bc <__bss_end__+0x1bb45c>
    53ac:	03000000 	movweq	r0, #0
    53b0:	00690601 	rsbeq	r0, r9, r1, lsl #12
    53b4:	02030000 	andeq	r0, r3, #0, 0
    53b8:	00020f05 	andeq	r0, r2, r5, lsl #30
    53bc:	05040300 	streq	r0, [r4, #-768]	; 0xfffffd00
    53c0:	000001cd 	andeq	r0, r0, sp, asr #3
    53c4:	c8050803 	stmdagt	r5, {r0, r1, fp}
    53c8:	03000001 	movweq	r0, #1
    53cc:	00670801 	rsbeq	r0, r7, r1, lsl #16
    53d0:	02030000 	andeq	r0, r3, #0, 0
    53d4:	00008207 	andeq	r8, r0, r7, lsl #4
    53d8:	07040300 	streq	r0, [r4, -r0, lsl #6]
    53dc:	00000055 	andeq	r0, r0, r5, asr r0
    53e0:	50070803 	andpl	r0, r7, r3, lsl #16
    53e4:	04000000 	streq	r0, [r0], #-0
    53e8:	00000025 	andeq	r0, r0, r5, lsr #32
    53ec:	0000007a 	andeq	r0, r0, sl, ror r0
    53f0:	00002505 	andeq	r2, r0, r5, lsl #10
    53f4:	35060000 	strcc	r0, [r6, #-0]
    53f8:	02000002 	andeq	r0, r0, #2, 0
    53fc:	00860e1c 	addeq	r0, r6, ip, lsl lr
    5400:	04070000 	streq	r0, [r7], #-0
    5404:	0000006b 	andeq	r0, r0, fp, rrx
    5408:	00002504 	andeq	r2, r0, r4, lsl #10
    540c:	00009b00 	andeq	r9, r0, r0, lsl #22
    5410:	009b0500 	addseq	r0, fp, r0, lsl #10
    5414:	07000000 	streq	r0, [r0, -r0]
    5418:	0000a804 	andeq	sl, r0, r4, lsl #16
    541c:	08010300 	stmdaeq	r1, {r8, r9}
    5420:	00000070 	andeq	r0, r0, r0, ror r0
    5424:	0000a108 	andeq	sl, r0, r8, lsl #2
    5428:	06080600 	streq	r0, [r8], -r0, lsl #12
    542c:	21020000 	mrscs	r0, (UNDEF: 2)
    5430:	0000b90e 	andeq	fp, r0, lr, lsl #18
    5434:	8c040700 	stchi	7, cr0, [r4], {-0}
    5438:	09000000 	stmdbeq	r0, {}	; <UNPREDICTABLE>
    543c:	0000068b 	andeq	r0, r0, fp, lsl #13
    5440:	0c070301 	stceq	3, cr0, [r7], {1}
    5444:	c8000001 	stmdagt	r0, {r0}
    5448:	180000a1 	stmdane	r0, {r0, r5, r7}
    544c:	01000000 	mrseq	r0, (UNDEF: 0)
    5450:	00010c9c 	muleq	r1, ip, ip
    5454:	31730a00 	cmncc	r3, r0, lsl #20
    5458:	15030100 	strne	r0, [r3, #-256]	; 0xffffff00
    545c:	0000010c 	andeq	r0, r0, ip, lsl #2
    5460:	730b5001 	movwvc	r5, #45057	; 0xb001
    5464:	03010032 	movweq	r0, #4146	; 0x1032
    5468:	00009b26 	andeq	r9, r0, r6, lsr #22
    546c:	00359d00 	eorseq	r9, r5, r0, lsl #26
    5470:	00359700 	eorseq	r9, r5, r0, lsl #14
    5474:	00730c00 	rsbseq	r0, r3, r0, lsl #24
    5478:	0c140401 	cfldrseq	mvf0, [r4], {1}
    547c:	ca000001 	bgt	5488 <__code_start__-0x2b78>
    5480:	c8000035 	stmdagt	r0, {r0, r2, r4, r5}
    5484:	00000035 	andeq	r0, r0, r5, lsr r0
    5488:	00a10407 	adceq	r0, r1, r7, lsl #8
    548c:	4e000000 	cdpmi	0, 0, cr0, cr0, cr0, {0}
    5490:	04000001 	streq	r0, [r0], #-1
    5494:	001df300 	andseq	pc, sp, r0, lsl #6
    5498:	fe010400 	cdp2	4, 0, cr0, cr1, cr0, {0}
    549c:	0c000000 	stceq	0, cr0, [r0], {-0}
    54a0:	00000c3b 	andeq	r0, r0, fp, lsr ip
    54a4:	000005a0 	andeq	r0, r0, r0, lsr #11
    54a8:	0000a1e0 	andeq	sl, r0, r0, ror #3
    54ac:	00000030 	andeq	r0, r0, r0, lsr r0
    54b0:	000029f7 	strdeq	r2, [r0], -r7
    54b4:	69050402 	stmdbvs	r5, {r1, sl}
    54b8:	0300746e 	movweq	r7, #1134	; 0x46e
    54bc:	00000589 	andeq	r0, r0, r9, lsl #11
    54c0:	3817d103 	ldmdacc	r7, {r0, r1, r8, ip, lr, pc}
    54c4:	04000000 	streq	r0, [r0], #-0
    54c8:	005a0704 	subseq	r0, sl, r4, lsl #14
    54cc:	01040000 	mrseq	r0, (UNDEF: 4)
    54d0:	00006906 	andeq	r6, r0, r6, lsl #18
    54d4:	05020400 	streq	r0, [r2, #-1024]	; 0xfffffc00
    54d8:	0000020f 	andeq	r0, r0, pc, lsl #4
    54dc:	cd050404 	cfstrsgt	mvf0, [r5, #-16]
    54e0:	04000001 	streq	r0, [r0], #-1
    54e4:	01c80508 	biceq	r0, r8, r8, lsl #10
    54e8:	01040000 	mrseq	r0, (UNDEF: 4)
    54ec:	00006708 	andeq	r6, r0, r8, lsl #14
    54f0:	005b0500 	subseq	r0, fp, r0, lsl #10
    54f4:	02040000 	andeq	r0, r4, #0, 0
    54f8:	00008207 	andeq	r8, r0, r7, lsl #4
    54fc:	07040400 	streq	r0, [r4, -r0, lsl #8]
    5500:	00000055 	andeq	r0, r0, r5, asr r0
    5504:	50070804 	andpl	r0, r7, r4, lsl #16
    5508:	06000000 	streq	r0, [r0], -r0
    550c:	00000025 	andeq	r0, r0, r5, lsr #32
    5510:	0000008b 	andeq	r0, r0, fp, lsl #1
    5514:	00002507 	andeq	r2, r0, r7, lsl #10
    5518:	35080000 	strcc	r0, [r8, #-0]
    551c:	02000002 	andeq	r0, r0, #2, 0
    5520:	00970e1c 	addseq	r0, r7, ip, lsl lr
    5524:	04090000 	streq	r0, [r9], #-0
    5528:	0000007c 	andeq	r0, r0, ip, ror r0
    552c:	00002506 	andeq	r2, r0, r6, lsl #10
    5530:	0000ac00 	andeq	sl, r0, r0, lsl #24
    5534:	00ac0700 	adceq	r0, ip, r0, lsl #14
    5538:	09000000 	stmdbeq	r0, {}	; <UNPREDICTABLE>
    553c:	0000b904 	andeq	fp, r0, r4, lsl #18
    5540:	08010400 	stmdaeq	r1, {sl}
    5544:	00000070 	andeq	r0, r0, r0, ror r0
    5548:	0000b205 	andeq	fp, r0, r5, lsl #4
    554c:	06080800 	streq	r0, [r8], -r0, lsl #16
    5550:	21020000 	mrscs	r0, (UNDEF: 2)
    5554:	0000ca0e 	andeq	ip, r0, lr, lsl #20
    5558:	9d040900 	vstrls.16	s0, [r4, #-0]	; <UNPREDICTABLE>
    555c:	0a000000 	beq	5564 <__code_start__-0x2a9c>
    5560:	000006d3 	ldrdeq	r0, [r0], -r3
    5564:	25050401 	strcs	r0, [r5, #-1025]	; 0xfffffbff
    5568:	e0000000 	and	r0, r0, r0
    556c:	300000a1 	andcc	r0, r0, r1, lsr #1
    5570:	01000000 	mrseq	r0, (UNDEF: 0)
    5574:	00014b9c 	muleq	r1, ip, fp
    5578:	735f0b00 	cmpvc	pc, #0, 22
    557c:	04010031 	streq	r0, [r1], #-49	; 0xffffffcf
    5580:	0000ac19 	andeq	sl, r0, r9, lsl ip
    5584:	0035e100 	eorseq	lr, r5, r0, lsl #2
    5588:	0035dd00 	eorseq	sp, r5, r0, lsl #26
    558c:	735f0b00 	cmpvc	pc, #0, 22
    5590:	04010032 	streq	r0, [r1], #-50	; 0xffffffce
    5594:	0000ac2a 	andeq	sl, r0, sl, lsr #24
    5598:	00360600 	eorseq	r0, r6, r0, lsl #12
    559c:	00360200 	eorseq	r0, r6, r0, lsl #4
    55a0:	006e0b00 	rsbeq	r0, lr, r0, lsl #22
    55a4:	2c360401 	cfldrscs	mvf0, [r6], #-4
    55a8:	31000000 	mrscc	r0, (UNDEF: 0)
    55ac:	27000036 	smladxcs	r0, r6, r0, r0
    55b0:	0c000036 	stceq	0, cr0, [r0], {54}	; 0x36
    55b4:	01003173 	tsteq	r0, r3, ror r1
    55b8:	014b1a05 	cmpeq	fp, r5, lsl #20
    55bc:	36880000 	strcc	r0, [r8], r0
    55c0:	36800000 	strcc	r0, [r0], r0
    55c4:	730c0000 	movwvc	r0, #49152	; 0xc000
    55c8:	05010032 	streq	r0, [r1, #-50]	; 0xffffffce
    55cc:	00014b2c 	andeq	r4, r1, ip, lsr #22
    55d0:	0036c600 	eorseq	ip, r6, r0, lsl #12
    55d4:	0036c000 	eorseq	ip, r6, r0
    55d8:	04090000 	streq	r0, [r9], #-0
    55dc:	00000062 	andeq	r0, r0, r2, rrx
    55e0:	0000ce00 	andeq	ip, r0, r0, lsl #28
    55e4:	a7000400 	strge	r0, [r0, -r0, lsl #8]
    55e8:	0400001e 	streq	r0, [r0], #-30	; 0xffffffe2
    55ec:	0000fe01 	andeq	pc, r0, r1, lsl #28
    55f0:	0c4c0c00 	mcrreq	12, 0, r0, ip, cr0
    55f4:	05a00000 	streq	r0, [r0, #0]!
    55f8:	a2100000 	andsge	r0, r0, #0, 0
    55fc:	00040000 	andeq	r0, r4, r0
    5600:	2af80000 	bcs	ffe05608 <__bss_end__+0xffdfa6a8>
    5604:	04020000 	streq	r0, [r2], #-0
    5608:	746e6905 	strbtvc	r6, [lr], #-2309	; 0xfffff6fb
    560c:	07040300 	streq	r0, [r4, -r0, lsl #6]
    5610:	0000005a 	andeq	r0, r0, sl, asr r0
    5614:	69060103 	stmdbvs	r6, {r0, r1, r8}
    5618:	03000000 	movweq	r0, #0
    561c:	020f0502 	andeq	r0, pc, #8388608	; 0x800000
    5620:	04030000 	streq	r0, [r3], #-0
    5624:	0001cd05 	andeq	ip, r1, r5, lsl #26
    5628:	05080300 	streq	r0, [r8, #-768]	; 0xfffffd00
    562c:	000001c8 	andeq	r0, r0, r8, asr #3
    5630:	67080103 	strvs	r0, [r8, -r3, lsl #2]
    5634:	03000000 	movweq	r0, #0
    5638:	00820702 	addeq	r0, r2, r2, lsl #14
    563c:	04030000 	streq	r0, [r3], #-0
    5640:	00005507 	andeq	r5, r0, r7, lsl #10
    5644:	07080300 	streq	r0, [r8, -r0, lsl #6]
    5648:	00000050 	andeq	r0, r0, r0, asr r0
    564c:	00002504 	andeq	r2, r0, r4, lsl #10
    5650:	00007a00 	andeq	r7, r0, r0, lsl #20
    5654:	00250500 	eoreq	r0, r5, r0, lsl #10
    5658:	06000000 	streq	r0, [r0], -r0
    565c:	00000235 	andeq	r0, r0, r5, lsr r2
    5660:	860e1c02 	strhi	r1, [lr], -r2, lsl #24
    5664:	07000000 	streq	r0, [r0, -r0]
    5668:	00006b04 	andeq	r6, r0, r4, lsl #22
    566c:	00250400 	eoreq	r0, r5, r0, lsl #8
    5670:	009b0000 	addseq	r0, fp, r0
    5674:	9b050000 	blls	14567c <__bss_end__+0x13a71c>
    5678:	00000000 	andeq	r0, r0, r0
    567c:	00a80407 	adceq	r0, r8, r7, lsl #8
    5680:	01030000 	mrseq	r0, (UNDEF: 3)
    5684:	00007008 	andeq	r7, r0, r8
    5688:	00a10800 	adceq	r0, r1, r0, lsl #16
    568c:	08060000 	stmdaeq	r6, {}	; <UNPREDICTABLE>
    5690:	02000006 	andeq	r0, r0, #6, 0
    5694:	00b90e21 	adcseq	r0, r9, r1, lsr #28
    5698:	04070000 	streq	r0, [r7], #-0
    569c:	0000008c 	andeq	r0, r0, ip, lsl #1
    56a0:	00077a09 	andeq	r7, r7, r9, lsl #20
    56a4:	06030100 	streq	r0, [r3], -r0, lsl #2
    56a8:	0000a210 	andeq	sl, r0, r0, lsl r2
    56ac:	00000004 	andeq	r0, r0, r4
    56b0:	Address 0x00000000000056b0 is out of bounds.


Disassembly of section .debug_abbrev:

00000000 <.debug_abbrev>:
       0:	25011101 	strcs	r1, [r1, #-257]	; 0xfffffeff
       4:	030b130e 	movweq	r1, #45838	; 0xb30e
       8:	110e1b0e 	tstne	lr, lr, lsl #22
       c:	10061201 	andne	r1, r6, r1, lsl #4
      10:	02000017 	andeq	r0, r0, #23, 0
      14:	0b0b0024 	bleq	2c00ac <__bss_end__+0x2b514c>
      18:	08030b3e 	stmdaeq	r3, {r1, r2, r3, r4, r5, r8, r9, fp}
      1c:	24030000 	strcs	r0, [r3], #-0
      20:	3e0b0b00 	vmlacc.f64	d0, d11, d0
      24:	000e030b 	andeq	r0, lr, fp, lsl #6
      28:	00160400 	andseq	r0, r6, r0, lsl #8
      2c:	0b3a0e03 	bleq	e83840 <__bss_end__+0xe788e0>
      30:	0b390b3b 	bleq	e42d24 <__bss_end__+0xe37dc4>
      34:	00001349 	andeq	r1, r0, r9, asr #6
      38:	27011505 	strcs	r1, [r1, -r5, lsl #10]
      3c:	01134919 	tsteq	r3, r9, lsl r9
      40:	06000013 			; <UNDEFINED> instruction: 0x06000013
      44:	13490005 	movtne	r0, #36869	; 0x9005
      48:	34070000 	strcc	r0, [r7], #-0
      4c:	3a0e0300 	bcc	380c54 <__bss_end__+0x375cf4>
      50:	390b3b0b 	stmdbcc	fp, {r0, r1, r3, r8, r9, fp, ip, sp}
      54:	3f13490b 	svccc	0x0013490b
      58:	00193c19 	andseq	r3, r9, r9, lsl ip
      5c:	000f0800 	andeq	r0, pc, r0, lsl #16
      60:	13490b0b 	movtne	r0, #39691	; 0x9b0b
      64:	26090000 	strcs	r0, [r9], -r0
      68:	00134900 	andseq	r4, r3, r0, lsl #18
      6c:	01130a00 	tsteq	r3, r0, lsl #20
      70:	0b3a0b0b 	bleq	e82ca4 <__bss_end__+0xe77d44>
      74:	0b390b3b 	bleq	e42d68 <__bss_end__+0xe37e08>
      78:	00001301 	andeq	r1, r0, r1, lsl #6
      7c:	03000d0b 	movweq	r0, #3339	; 0xd0b
      80:	3b0b3a0e 	blcc	2ce8c0 <__bss_end__+0x2c3960>
      84:	490b390b 	stmdbmi	fp, {r0, r1, r3, r8, fp, ip, sp}
      88:	000b3813 	andeq	r3, fp, r3, lsl r8
      8c:	01130c00 	tsteq	r3, r0, lsl #24
      90:	0b0b0e03 	bleq	2c38a4 <__bss_end__+0x2b8944>
      94:	0b3b0b3a 	bleq	ec2d84 <__bss_end__+0xeb7e24>
      98:	13010b39 	movwne	r0, #6969	; 0x1b39
      9c:	0d0d0000 	stceq	0, cr0, [sp, #-0]
      a0:	3a080300 	bcc	200ca8 <__bss_end__+0x1f5d48>
      a4:	390b3b0b 	stmdbcc	fp, {r0, r1, r3, r8, r9, fp, ip, sp}
      a8:	3813490b 	ldmdacc	r3, {r0, r1, r3, r8, fp, lr}
      ac:	0e00000b 	cdpeq	0, 0, cr0, cr0, cr11, {0}
      b0:	13490101 	movtne	r0, #37121	; 0x9101
      b4:	00001301 	andeq	r1, r0, r1, lsl #6
      b8:	4900210f 	stmdbmi	r0, {r0, r1, r2, r3, r8, sp}
      bc:	000b2f13 	andeq	r2, fp, r3, lsl pc
      c0:	000f1000 	andeq	r1, pc, r0
      c4:	00000b0b 	andeq	r0, r0, fp, lsl #22
      c8:	3f012e11 	svccc	0x00012e11
      cc:	3a0e0319 	bcc	380d38 <__bss_end__+0x375dd8>
      d0:	390b3b0b 	stmdbcc	fp, {r0, r1, r3, r8, r9, fp, ip, sp}
      d4:	1119270b 	tstne	r9, fp, lsl #14
      d8:	40061201 	andmi	r1, r6, r1, lsl #4
      dc:	19429718 	stmdbne	r2, {r3, r4, r8, r9, sl, ip, pc}^
      e0:	00001301 	andeq	r1, r0, r1, lsl #6
      e4:	03003412 	movweq	r3, #1042	; 0x412
      e8:	3413490e 	ldrcc	r4, [r3], #-2318	; 0xfffff6f2
      ec:	00180219 	andseq	r0, r8, r9, lsl r2
      f0:	011d1300 	tsteq	sp, r0, lsl #6
      f4:	01521331 	cmpeq	r2, r1, lsr r3
      f8:	110b42b8 			; <UNDEFINED> instruction: 0x110b42b8
      fc:	58061201 	stmdapl	r6, {r0, r9, ip}
     100:	570b590b 	strpl	r5, [fp, -fp, lsl #18]
     104:	0013010b 	andseq	r0, r3, fp, lsl #2
     108:	00341400 	eorseq	r1, r4, r0, lsl #8
     10c:	17021331 	smladxne	r2, r1, r3, r1
     110:	001742b7 			; <UNDEFINED> instruction: 0x001742b7
     114:	011d1500 	tsteq	sp, r0, lsl #10
     118:	01521331 	cmpeq	r2, r1, lsr r3
     11c:	550b42b8 	strpl	r4, [fp, #-696]	; 0xfffffd48
     120:	590b5817 	stmdbpl	fp, {r0, r1, r2, r4, fp, ip, lr}
     124:	010b570b 	tsteq	fp, fp, lsl #14
     128:	16000013 			; <UNDEFINED> instruction: 0x16000013
     12c:	13310005 	teqne	r1, #5, 0
     130:	42b71702 	adcsmi	r1, r7, #524288	; 0x80000
     134:	17000017 	smladne	r0, r7, r0, r0
     138:	01018289 	smlabbeq	r1, r9, r2, r8
     13c:	13310111 	teqne	r1, #1073741828	; 0x40000004
     140:	00001301 	andeq	r1, r0, r1, lsl #6
     144:	01828a18 	orreq	r8, r2, r8, lsl sl
     148:	91180200 	tstls	r8, r0, lsl #4
     14c:	00001842 	andeq	r1, r0, r2, asr #16
     150:	01828919 	orreq	r8, r2, r9, lsl r9
     154:	31011101 	tstcc	r1, r1, lsl #2
     158:	1a000013 	bne	1ac <__code_start__-0x7e54>
     15c:	01018289 	smlabbeq	r1, r9, r2, r8
     160:	42950111 	addsmi	r0, r5, #1073741828	; 0x40000004
     164:	01133119 	tsteq	r3, r9, lsl r1
     168:	1b000013 	blne	1bc <__code_start__-0x7e44>
     16c:	00018289 	andeq	r8, r1, r9, lsl #5
     170:	13310111 	teqne	r1, #1073741828	; 0x40000004
     174:	2e1c0000 	cdpcs	0, 1, cr0, cr12, cr0, {0}
     178:	03193f01 	tsteq	r9, #1, 30
     17c:	3b0b3a0e 	blcc	2ce9bc <__bss_end__+0x2c3a5c>
     180:	270b390b 	strcs	r3, [fp, -fp, lsl #18]
     184:	010b2019 	tsteq	fp, r9, lsl r0
     188:	1d000013 	stcne	0, cr0, [r0, #-76]	; 0xffffffb4
     18c:	08030034 	stmdaeq	r3, {r2, r4, r5}
     190:	0b3b0b3a 	bleq	ec2e80 <__bss_end__+0xeb7f20>
     194:	13490b39 	movtne	r0, #39737	; 0x9b39
     198:	2e1e0000 	cdpcs	0, 1, cr0, cr14, cr0, {0}
     19c:	3a0e0301 	bcc	380da8 <__bss_end__+0x375e48>
     1a0:	390b3b0b 	stmdbcc	fp, {r0, r1, r3, r8, r9, fp, ip, sp}
     1a4:	4919270b 	ldmdbmi	r9, {r0, r1, r3, r8, r9, sl, sp}
     1a8:	010b2013 	tsteq	fp, r3, lsl r0
     1ac:	1f000013 	svcne	0x00000013
     1b0:	08030005 	stmdaeq	r3, {r0, r2}
     1b4:	0b3b0b3a 	bleq	ec2ea4 <__bss_end__+0xeb7f44>
     1b8:	13490b39 	movtne	r0, #39737	; 0x9b39
     1bc:	05200000 	streq	r0, [r0, #-0]!
     1c0:	3a0e0300 	bcc	380dc8 <__bss_end__+0x375e68>
     1c4:	390b3b0b 	stmdbcc	fp, {r0, r1, r3, r8, r9, fp, ip, sp}
     1c8:	0013490b 	andseq	r4, r3, fp, lsl #18
     1cc:	012e2100 			; <UNDEFINED> instruction: 0x012e2100
     1d0:	01111331 	tsteq	r1, r1, lsr r3
     1d4:	18400612 	stmdane	r0, {r1, r4, r9, sl}^
     1d8:	01194297 			; <UNDEFINED> instruction: 0x01194297
     1dc:	22000013 	andcs	r0, r0, #19, 0
     1e0:	00018289 	andeq	r8, r1, r9, lsl #5
     1e4:	42950111 	addsmi	r0, r5, #1073741828	; 0x40000004
     1e8:	00133119 	andseq	r3, r3, r9, lsl r1
     1ec:	00362300 	eorseq	r2, r6, r0, lsl #6
     1f0:	00001802 	andeq	r1, r0, r2, lsl #16
     1f4:	3f002e24 	svccc	0x00002e24
     1f8:	6e193c19 	mrcvs	12, 0, r3, cr9, cr9, {0}
     1fc:	3a0e030e 	bcc	380e3c <__bss_end__+0x375edc>
     200:	390b3b0b 	stmdbcc	fp, {r0, r1, r3, r8, r9, fp, ip, sp}
     204:	0000000b 	andeq	r0, r0, fp
     208:	25011101 	strcs	r1, [r1, #-257]	; 0xfffffeff
     20c:	030b130e 	movweq	r1, #45838	; 0xb30e
     210:	110e1b0e 	tstne	lr, lr, lsl #22
     214:	10061201 	andne	r1, r6, r1, lsl #4
     218:	02000017 	andeq	r0, r0, #23, 0
     21c:	0b0b0024 	bleq	2c02b4 <__bss_end__+0x2b5354>
     220:	08030b3e 	stmdaeq	r3, {r1, r2, r3, r4, r5, r8, r9, fp}
     224:	24030000 	strcs	r0, [r3], #-0
     228:	3e0b0b00 	vmlacc.f64	d0, d11, d0
     22c:	000e030b 	andeq	r0, lr, fp, lsl #6
     230:	00160400 	andseq	r0, r6, r0, lsl #8
     234:	0b3a0e03 	bleq	e83a48 <__bss_end__+0xe78ae8>
     238:	0b390b3b 	bleq	e42f2c <__bss_end__+0xe37fcc>
     23c:	00001349 	andeq	r1, r0, r9, asr #6
     240:	27011505 	strcs	r1, [r1, -r5, lsl #10]
     244:	01134919 	tsteq	r3, r9, lsl r9
     248:	06000013 			; <UNDEFINED> instruction: 0x06000013
     24c:	13490005 	movtne	r0, #36869	; 0x9005
     250:	34070000 	strcc	r0, [r7], #-0
     254:	3a0e0300 	bcc	380e5c <__bss_end__+0x375efc>
     258:	390b3b0b 	stmdbcc	fp, {r0, r1, r3, r8, r9, fp, ip, sp}
     25c:	3f13490b 	svccc	0x0013490b
     260:	00193c19 	andseq	r3, r9, r9, lsl ip
     264:	000f0800 	andeq	r0, pc, r0, lsl #16
     268:	13490b0b 	movtne	r0, #39691	; 0x9b0b
     26c:	26090000 	strcs	r0, [r9], -r0
     270:	00134900 	andseq	r4, r3, r0, lsl #18
     274:	01130a00 	tsteq	r3, r0, lsl #20
     278:	0b3a0b0b 	bleq	e82eac <__bss_end__+0xe77f4c>
     27c:	0b390b3b 	bleq	e42f70 <__bss_end__+0xe38010>
     280:	00001301 	andeq	r1, r0, r1, lsl #6
     284:	03000d0b 	movweq	r0, #3339	; 0xd0b
     288:	3b0b3a0e 	blcc	2ceac8 <__bss_end__+0x2c3b68>
     28c:	490b390b 	stmdbmi	fp, {r0, r1, r3, r8, fp, ip, sp}
     290:	000b3813 	andeq	r3, fp, r3, lsl r8
     294:	01040c00 	tsteq	r4, r0, lsl #24
     298:	0b0b0b3e 	bleq	2c2f98 <__bss_end__+0x2b8038>
     29c:	0b3a1349 	bleq	e84fc8 <__bss_end__+0xe7a068>
     2a0:	0b390b3b 	bleq	e42f94 <__bss_end__+0xe38034>
     2a4:	00001301 	andeq	r1, r0, r1, lsl #6
     2a8:	0300280d 	movweq	r2, #2061	; 0x80d
     2ac:	000b1c0e 	andeq	r1, fp, lr, lsl #24
     2b0:	01130e00 	tsteq	r3, r0, lsl #28
     2b4:	0b0b0e03 	bleq	2c3ac8 <__bss_end__+0x2b8b68>
     2b8:	0b3b0b3a 	bleq	ec2fa8 <__bss_end__+0xeb8048>
     2bc:	13010b39 	movwne	r0, #6969	; 0x1b39
     2c0:	0d0f0000 	stceq	0, cr0, [pc, #-0]	; 2c8 <__code_start__-0x7d38>
     2c4:	3a080300 	bcc	200ecc <__bss_end__+0x1f5f6c>
     2c8:	390b3b0b 	stmdbcc	fp, {r0, r1, r3, r8, r9, fp, ip, sp}
     2cc:	3813490b 	ldmdacc	r3, {r0, r1, r3, r8, fp, lr}
     2d0:	1000000b 	andne	r0, r0, fp
     2d4:	13490101 	movtne	r0, #37121	; 0x9101
     2d8:	00001301 	andeq	r1, r0, r1, lsl #6
     2dc:	49002111 	stmdbmi	r0, {r0, r4, r8, sp}
     2e0:	000b2f13 	andeq	r2, fp, r3, lsl pc
     2e4:	000f1200 	andeq	r1, pc, r0, lsl #4
     2e8:	00000b0b 	andeq	r0, r0, fp, lsl #22
     2ec:	03003413 	movweq	r3, #1043	; 0x413
     2f0:	3b0b3a0e 	blcc	2ceb30 <__bss_end__+0x2c3bd0>
     2f4:	490b390b 	stmdbmi	fp, {r0, r1, r3, r8, fp, ip, sp}
     2f8:	00180213 	andseq	r0, r8, r3, lsl r2
     2fc:	012e1400 			; <UNDEFINED> instruction: 0x012e1400
     300:	0e03193f 			; <UNDEFINED> instruction: 0x0e03193f
     304:	0b3b0b3a 	bleq	ec2ff4 <__bss_end__+0xeb8094>
     308:	19270b39 	stmdbne	r7!, {r0, r3, r4, r5, r8, r9, fp}
     30c:	01111349 	tsteq	r1, r9, asr #6
     310:	18400612 	stmdane	r0, {r1, r4, r9, sl}^
     314:	01194297 			; <UNDEFINED> instruction: 0x01194297
     318:	15000013 	strne	r0, [r0, #-19]	; 0xffffffed
     31c:	0e030005 	cdpeq	0, 0, cr0, cr3, cr5, {0}
     320:	0b3b0b3a 	bleq	ec3010 <__bss_end__+0xeb80b0>
     324:	13490b39 	movtne	r0, #39737	; 0x9b39
     328:	42b71702 	adcsmi	r1, r7, #524288	; 0x80000
     32c:	16000017 			; <UNDEFINED> instruction: 0x16000017
     330:	08030005 	stmdaeq	r3, {r0, r2}
     334:	0b3b0b3a 	bleq	ec3024 <__bss_end__+0xeb80c4>
     338:	13490b39 	movtne	r0, #39737	; 0x9b39
     33c:	00001802 	andeq	r1, r0, r2, lsl #16
     340:	03003417 	movweq	r3, #1047	; 0x417
     344:	3b0b3a08 	blcc	2ceb6c <__bss_end__+0x2c3c0c>
     348:	490b390b 	stmdbmi	fp, {r0, r1, r3, r8, fp, ip, sp}
     34c:	b7170213 			; <UNDEFINED> instruction: 0xb7170213
     350:	00001742 	andeq	r1, r0, r2, asr #14
     354:	11010b18 	tstne	r1, r8, lsl fp
     358:	01061201 	tsteq	r6, r1, lsl #4
     35c:	19000013 	stmdbne	r0, {r0, r1, r4}
     360:	01018289 	smlabbeq	r1, r9, r2, r8
     364:	13310111 	teqne	r1, #1073741828	; 0x40000004
     368:	00001301 	andeq	r1, r0, r1, lsl #6
     36c:	01828a1a 	orreq	r8, r2, sl, lsl sl
     370:	91180200 	tstls	r8, r0, lsl #4
     374:	00001842 	andeq	r1, r0, r2, asr #16
     378:	0182891b 	orreq	r8, r2, fp, lsl r9
     37c:	31011101 	tstcc	r1, r1, lsl #2
     380:	1c000013 	stcne	0, cr0, [r0], {19}
     384:	193f012e 	ldmdbne	pc!, {r1, r2, r3, r5, r8}	; <UNPREDICTABLE>
     388:	0b3a0e03 	bleq	e83b9c <__bss_end__+0xe78c3c>
     38c:	0b390b3b 	bleq	e43080 <__bss_end__+0xe38120>
     390:	01111927 	tsteq	r1, r7, lsr #18
     394:	18400612 	stmdane	r0, {r1, r4, r9, sl}^
     398:	01194297 			; <UNDEFINED> instruction: 0x01194297
     39c:	1d000013 	stcne	0, cr0, [r0, #-76]	; 0xffffffb4
     3a0:	0e030034 	mcreq	0, 0, r0, cr3, cr4, {1}
     3a4:	19341349 	ldmdbne	r4!, {r0, r3, r6, r8, r9, ip}
     3a8:	00001802 	andeq	r1, r0, r2, lsl #16
     3ac:	55010b1e 	strpl	r0, [r1, #-2846]	; 0xfffff4e2
     3b0:	00130117 	andseq	r0, r3, r7, lsl r1
     3b4:	82891f00 	addhi	r1, r9, #0, 30
     3b8:	01110001 	tsteq	r1, r1
     3bc:	00001331 	andeq	r1, r0, r1, lsr r3
     3c0:	03012e20 	movweq	r2, #7712	; 0x1e20
     3c4:	3b0b3a0e 	blcc	2cec04 <__bss_end__+0x2c3ca4>
     3c8:	270b390b 	strcs	r3, [fp, -fp, lsl #18]
     3cc:	12011119 	andne	r1, r1, #1073741830	; 0x40000006
     3d0:	97184006 	ldrls	r4, [r8, -r6]
     3d4:	13011942 	movwne	r1, #6466	; 0x1942
     3d8:	05210000 	streq	r0, [r1, #-0]!
     3dc:	3a080300 	bcc	200fe4 <__bss_end__+0x1f6084>
     3e0:	390b3b0b 	stmdbcc	fp, {r0, r1, r3, r8, r9, fp, ip, sp}
     3e4:	0213490b 	andseq	r4, r3, #180224	; 0x2c000
     3e8:	1742b717 	smlaldne	fp, r2, r7, r7
     3ec:	34220000 	strtcc	r0, [r2], #-0
     3f0:	3a0e0300 	bcc	380ff8 <__bss_end__+0x376098>
     3f4:	390b3b0b 	stmdbcc	fp, {r0, r1, r3, r8, r9, fp, ip, sp}
     3f8:	0213490b 	andseq	r4, r3, #180224	; 0x2c000
     3fc:	1742b717 	smlaldne	fp, r2, r7, r7
     400:	0b230000 	bleq	8c0408 <__bss_end__+0x8b54a8>
     404:	12011101 	andne	r1, r1, #1073741824	; 0x40000000
     408:	24000006 	strcs	r0, [r0], #-6
     40c:	1331011d 	teqne	r1, #1073741831	; 0x40000007
     410:	42b80152 	adcsmi	r0, r8, #-2147483628	; 0x80000014
     414:	1201110b 	andne	r1, r1, #-1073741822	; 0xc0000002
     418:	590b5806 	stmdbpl	fp, {r1, r2, fp, ip, lr}
     41c:	010b570b 	tsteq	fp, fp, lsl #14
     420:	25000013 	strcs	r0, [r0, #-19]	; 0xffffffed
     424:	13310005 	teqne	r1, #5, 0
     428:	42b71702 	adcsmi	r1, r7, #524288	; 0x80000
     42c:	26000017 			; <UNDEFINED> instruction: 0x26000017
     430:	193f002e 	ldmdbne	pc!, {r1, r2, r3, r5}	; <UNPREDICTABLE>
     434:	0b3a0e03 	bleq	e83c48 <__bss_end__+0xe78ce8>
     438:	0b390b3b 	bleq	e4312c <__bss_end__+0xe381cc>
     43c:	13491927 	movtne	r1, #39207	; 0x9927
     440:	06120111 			; <UNDEFINED> instruction: 0x06120111
     444:	42971840 	addsmi	r1, r7, #64, 16	; 0x400000
     448:	27000019 	smladcs	r0, r9, r0, r0
     44c:	0e03012e 	adfeqsp	f0, f3, #0.5
     450:	0b3b0b3a 	bleq	ec3140 <__bss_end__+0xeb81e0>
     454:	19270b39 	stmdbne	r7!, {r0, r3, r4, r5, r8, r9, fp}
     458:	0b201349 	bleq	805184 <__bss_end__+0x7fa224>
     45c:	00001301 	andeq	r1, r0, r1, lsl #6
     460:	03000528 	movweq	r0, #1320	; 0x528
     464:	3b0b3a08 	blcc	2cec8c <__bss_end__+0x2c3d2c>
     468:	490b390b 	stmdbmi	fp, {r0, r1, r3, r8, fp, ip, sp}
     46c:	29000013 	stmdbcs	r0, {r0, r1, r4}
     470:	193f002e 	ldmdbne	pc!, {r1, r2, r3, r5}	; <UNPREDICTABLE>
     474:	0e6e193c 			; <UNDEFINED> instruction: 0x0e6e193c
     478:	0b3a0e03 	bleq	e83c8c <__bss_end__+0xe78d2c>
     47c:	0b390b3b 	bleq	e43170 <__bss_end__+0xe38210>
     480:	01000000 	mrseq	r0, (UNDEF: 0)
     484:	0e250111 	mcreq	1, 1, r0, cr5, cr1, {0}
     488:	0e030b13 	vmoveq.32	d3[0], r0
     48c:	01110e1b 	tsteq	r1, fp, lsl lr
     490:	17100612 			; <UNDEFINED> instruction: 0x17100612
     494:	24020000 	strcs	r0, [r2], #-0
     498:	3e0b0b00 	vmlacc.f64	d0, d11, d0
     49c:	0008030b 	andeq	r0, r8, fp, lsl #6
     4a0:	00240300 	eoreq	r0, r4, r0, lsl #6
     4a4:	0b3e0b0b 	bleq	f830d8 <__bss_end__+0xf78178>
     4a8:	00000e03 	andeq	r0, r0, r3, lsl #28
     4ac:	27011504 	strcs	r1, [r1, -r4, lsl #10]
     4b0:	01134919 	tsteq	r3, r9, lsl r9
     4b4:	05000013 	streq	r0, [r0, #-19]	; 0xffffffed
     4b8:	13490005 	movtne	r0, #36869	; 0x9005
     4bc:	34060000 	strcc	r0, [r6], #-0
     4c0:	3a0e0300 	bcc	3810c8 <__bss_end__+0x376168>
     4c4:	390b3b0b 	stmdbcc	fp, {r0, r1, r3, r8, r9, fp, ip, sp}
     4c8:	3f13490b 	svccc	0x0013490b
     4cc:	00193c19 	andseq	r3, r9, r9, lsl ip
     4d0:	000f0700 	andeq	r0, pc, r0, lsl #14
     4d4:	13490b0b 	movtne	r0, #39691	; 0x9b0b
     4d8:	26080000 	strcs	r0, [r8], -r0
     4dc:	00134900 	andseq	r4, r3, r0, lsl #18
     4e0:	01170900 	tsteq	r7, r0, lsl #18
     4e4:	0b0b0e03 	bleq	2c3cf8 <__bss_end__+0x2b8d98>
     4e8:	0b3b0b3a 	bleq	ec31d8 <__bss_end__+0xeb8278>
     4ec:	13010b39 	movwne	r0, #6969	; 0x1b39
     4f0:	0d0a0000 	stceq	0, cr0, [sl, #-0]
     4f4:	3a080300 	bcc	2010fc <__bss_end__+0x1f619c>
     4f8:	390b3b0b 	stmdbcc	fp, {r0, r1, r3, r8, r9, fp, ip, sp}
     4fc:	0013490b 	andseq	r4, r3, fp, lsl #18
     500:	000f0b00 	andeq	r0, pc, r0, lsl #22
     504:	00000b0b 	andeq	r0, r0, fp, lsl #22
     508:	2700150c 	strcs	r1, [r0, -ip, lsl #10]
     50c:	0d000019 	stceq	0, cr0, [r0, #-100]	; 0xffffff9c
     510:	0b0b0113 	bleq	2c0964 <__bss_end__+0x2b5a04>
     514:	0b3b0b3a 	bleq	ec3204 <__bss_end__+0xeb82a4>
     518:	13010b39 	movwne	r0, #6969	; 0x1b39
     51c:	0d0e0000 	stceq	0, cr0, [lr, #-0]
     520:	3a080300 	bcc	201128 <__bss_end__+0x1f61c8>
     524:	390b3b0b 	stmdbcc	fp, {r0, r1, r3, r8, r9, fp, ip, sp}
     528:	3813490b 	ldmdacc	r3, {r0, r1, r3, r8, fp, lr}
     52c:	0f00000b 	svceq	0x0000000b
     530:	0e03000d 	cdpeq	0, 0, cr0, cr3, cr13, {0}
     534:	0b3b0b3a 	bleq	ec3224 <__bss_end__+0xeb82c4>
     538:	13490b39 	movtne	r0, #39737	; 0x9b39
     53c:	00000b38 	andeq	r0, r0, r8, lsr fp
     540:	03001610 	movweq	r1, #1552	; 0x610
     544:	3b0b3a0e 	blcc	2ced84 <__bss_end__+0x2c3e24>
     548:	490b390b 	stmdbmi	fp, {r0, r1, r3, r8, fp, ip, sp}
     54c:	11000013 	tstne	r0, r3, lsl r0
     550:	0e030034 	mcreq	0, 0, r0, cr3, cr4, {1}
     554:	0b3b0b3a 	bleq	ec3244 <__bss_end__+0xeb82e4>
     558:	13490b39 	movtne	r0, #39737	; 0x9b39
     55c:	00001802 	andeq	r1, r0, r2, lsl #16
     560:	3f012e12 	svccc	0x00012e12
     564:	3a0e0319 	bcc	3811d0 <__bss_end__+0x376270>
     568:	390b3b0b 	stmdbcc	fp, {r0, r1, r3, r8, r9, fp, ip, sp}
     56c:	1119270b 	tstne	r9, fp, lsl #14
     570:	40061201 	andmi	r1, r6, r1, lsl #4
     574:	19429718 	stmdbne	r2, {r3, r4, r8, r9, sl, ip, pc}^
     578:	00001301 	andeq	r1, r0, r1, lsl #6
     57c:	03000513 	movweq	r0, #1299	; 0x513
     580:	3b0b3a08 	blcc	2ceda8 <__bss_end__+0x2c3e48>
     584:	490b390b 	stmdbmi	fp, {r0, r1, r3, r8, fp, ip, sp}
     588:	b7170213 			; <UNDEFINED> instruction: 0xb7170213
     58c:	00001742 	andeq	r1, r0, r2, asr #14
     590:	03003414 	movweq	r3, #1044	; 0x414
     594:	3b0b3a08 	blcc	2cedbc <__bss_end__+0x2c3e5c>
     598:	490b390b 	stmdbmi	fp, {r0, r1, r3, r8, fp, ip, sp}
     59c:	b7170213 			; <UNDEFINED> instruction: 0xb7170213
     5a0:	00001742 	andeq	r1, r0, r2, asr #14
     5a4:	3f012e15 	svccc	0x00012e15
     5a8:	3a0e0319 	bcc	381214 <__bss_end__+0x3762b4>
     5ac:	390b3b0b 	stmdbcc	fp, {r0, r1, r3, r8, r9, fp, ip, sp}
     5b0:	4919270b 	ldmdbmi	r9, {r0, r1, r3, r8, r9, sl, sp}
     5b4:	12011113 	andne	r1, r1, #-1073741820	; 0xc0000004
     5b8:	97184006 	ldrls	r4, [r8, -r6]
     5bc:	13011942 	movwne	r1, #6466	; 0x1942
     5c0:	05160000 	ldreq	r0, [r6, #-0]
     5c4:	3a0e0300 	bcc	3811cc <__bss_end__+0x37626c>
     5c8:	390b3b0b 	stmdbcc	fp, {r0, r1, r3, r8, r9, fp, ip, sp}
     5cc:	0213490b 	andseq	r4, r3, #180224	; 0x2c000
     5d0:	1742b717 	smlaldne	fp, r2, r7, r7
     5d4:	34170000 	ldrcc	r0, [r7], #-0
     5d8:	3a0e0300 	bcc	3811e0 <__bss_end__+0x376280>
     5dc:	390b3b0b 	stmdbcc	fp, {r0, r1, r3, r8, r9, fp, ip, sp}
     5e0:	0213490b 	andseq	r4, r3, #180224	; 0x2c000
     5e4:	1742b717 	smlaldne	fp, r2, r7, r7
     5e8:	1d180000 	ldcne	0, cr0, [r8, #-0]
     5ec:	52133101 	andspl	r3, r3, #1073741824	; 0x40000000
     5f0:	0b42b801 	bleq	10ae5fc <__bss_end__+0x10a369c>
     5f4:	0b581755 	bleq	1606350 <__bss_end__+0x15fb3f0>
     5f8:	0b570b59 	bleq	15c3364 <__bss_end__+0x15b8404>
     5fc:	05190000 	ldreq	r0, [r9, #-0]
     600:	02133100 	andseq	r3, r3, #0
     604:	1742b717 	smlaldne	fp, r2, r7, r7
     608:	0b1a0000 	bleq	680610 <__bss_end__+0x6756b0>
     60c:	00175501 	andseq	r5, r7, r1, lsl #10
     610:	00341b00 	eorseq	r1, r4, r0, lsl #22
     614:	17021331 	smladxne	r2, r1, r3, r1
     618:	001742b7 			; <UNDEFINED> instruction: 0x001742b7
     61c:	82891c00 	addhi	r1, r9, #0, 24
     620:	01110101 	tsteq	r1, r1, lsl #2
     624:	13011331 	movwne	r1, #4913	; 0x1331
     628:	8a1d0000 	bhi	740630 <__bss_end__+0x7356d0>
     62c:	02000182 	andeq	r0, r0, #-2147483616	; 0x80000020
     630:	18429118 	stmdane	r2, {r3, r4, r8, ip, pc}^
     634:	891e0000 	ldmdbhi	lr, {}	; <UNPREDICTABLE>
     638:	11000182 	smlabbne	r0, r2, r1, r0
     63c:	00133101 	andseq	r3, r3, r1, lsl #2
     640:	012e1f00 			; <UNDEFINED> instruction: 0x012e1f00
     644:	0b3a0e03 	bleq	e83e58 <__bss_end__+0xe78ef8>
     648:	0b390b3b 	bleq	e4333c <__bss_end__+0xe383dc>
     64c:	13491927 	movtne	r1, #39207	; 0x9927
     650:	13010b20 	movwne	r0, #6944	; 0x1b20
     654:	05200000 	streq	r0, [r0, #-0]!
     658:	3a080300 	bcc	201260 <__bss_end__+0x1f6300>
     65c:	390b3b0b 	stmdbcc	fp, {r0, r1, r3, r8, r9, fp, ip, sp}
     660:	0013490b 	andseq	r4, r3, fp, lsl #18
     664:	00342100 	eorseq	r2, r4, r0, lsl #2
     668:	0b3a0803 	bleq	e8267c <__bss_end__+0xe7771c>
     66c:	0b390b3b 	bleq	e43360 <__bss_end__+0xe38400>
     670:	00001349 	andeq	r1, r0, r9, asr #6
     674:	3f002e22 	svccc	0x00002e22
     678:	6e193c19 	mrcvs	12, 0, r3, cr9, cr9, {0}
     67c:	3a0e030e 	bcc	3812bc <__bss_end__+0x37635c>
     680:	390b3b0b 	stmdbcc	fp, {r0, r1, r3, r8, r9, fp, ip, sp}
     684:	0000000b 	andeq	r0, r0, fp
     688:	25011101 	strcs	r1, [r1, #-257]	; 0xfffffeff
     68c:	030b130e 	movweq	r1, #45838	; 0xb30e
     690:	110e1b0e 	tstne	lr, lr, lsl #22
     694:	10061201 	andne	r1, r6, r1, lsl #4
     698:	02000017 	andeq	r0, r0, #23, 0
     69c:	0b0b0024 	bleq	2c0734 <__bss_end__+0x2b57d4>
     6a0:	08030b3e 	stmdaeq	r3, {r1, r2, r3, r4, r5, r8, r9, fp}
     6a4:	24030000 	strcs	r0, [r3], #-0
     6a8:	3e0b0b00 	vmlacc.f64	d0, d11, d0
     6ac:	000e030b 	andeq	r0, lr, fp, lsl #6
     6b0:	00160400 	andseq	r0, r6, r0, lsl #8
     6b4:	0b3a0e03 	bleq	e83ec8 <__bss_end__+0xe78f68>
     6b8:	0b390b3b 	bleq	e433ac <__bss_end__+0xe3844c>
     6bc:	00001349 	andeq	r1, r0, r9, asr #6
     6c0:	27011505 	strcs	r1, [r1, -r5, lsl #10]
     6c4:	01134919 	tsteq	r3, r9, lsl r9
     6c8:	06000013 			; <UNDEFINED> instruction: 0x06000013
     6cc:	13490005 	movtne	r0, #36869	; 0x9005
     6d0:	34070000 	strcc	r0, [r7], #-0
     6d4:	3a0e0300 	bcc	3812dc <__bss_end__+0x37637c>
     6d8:	390b3b0b 	stmdbcc	fp, {r0, r1, r3, r8, r9, fp, ip, sp}
     6dc:	3f13490b 	svccc	0x0013490b
     6e0:	00193c19 	andseq	r3, r9, r9, lsl ip
     6e4:	000f0800 	andeq	r0, pc, r0, lsl #16
     6e8:	13490b0b 	movtne	r0, #39691	; 0x9b0b
     6ec:	26090000 	strcs	r0, [r9], -r0
     6f0:	00134900 	andseq	r4, r3, r0, lsl #18
     6f4:	01130a00 	tsteq	r3, r0, lsl #20
     6f8:	0b3a0b0b 	bleq	e8332c <__bss_end__+0xe783cc>
     6fc:	0b390b3b 	bleq	e433f0 <__bss_end__+0xe38490>
     700:	00001301 	andeq	r1, r0, r1, lsl #6
     704:	03000d0b 	movweq	r0, #3339	; 0xd0b
     708:	3b0b3a0e 	blcc	2cef48 <__bss_end__+0x2c3fe8>
     70c:	490b390b 	stmdbmi	fp, {r0, r1, r3, r8, fp, ip, sp}
     710:	000b3813 	andeq	r3, fp, r3, lsl r8
     714:	01040c00 	tsteq	r4, r0, lsl #24
     718:	0b0b0b3e 	bleq	2c3418 <__bss_end__+0x2b84b8>
     71c:	0b3a1349 	bleq	e85448 <__bss_end__+0xe7a4e8>
     720:	0b390b3b 	bleq	e43414 <__bss_end__+0xe384b4>
     724:	00001301 	andeq	r1, r0, r1, lsl #6
     728:	0300280d 	movweq	r2, #2061	; 0x80d
     72c:	000b1c0e 	andeq	r1, fp, lr, lsl #24
     730:	01130e00 	tsteq	r3, r0, lsl #28
     734:	0b0b0e03 	bleq	2c3f48 <__bss_end__+0x2b8fe8>
     738:	0b3b0b3a 	bleq	ec3428 <__bss_end__+0xeb84c8>
     73c:	13010b39 	movwne	r0, #6969	; 0x1b39
     740:	0d0f0000 	stceq	0, cr0, [pc, #-0]	; 748 <__code_start__-0x78b8>
     744:	3a080300 	bcc	20134c <__bss_end__+0x1f63ec>
     748:	390b3b0b 	stmdbcc	fp, {r0, r1, r3, r8, r9, fp, ip, sp}
     74c:	3813490b 	ldmdacc	r3, {r0, r1, r3, r8, fp, lr}
     750:	1000000b 	andne	r0, r0, fp
     754:	13490101 	movtne	r0, #37121	; 0x9101
     758:	00001301 	andeq	r1, r0, r1, lsl #6
     75c:	49002111 	stmdbmi	r0, {r0, r4, r8, sp}
     760:	000b2f13 	andeq	r2, fp, r3, lsl pc
     764:	000f1200 	andeq	r1, pc, r0, lsl #4
     768:	00000b0b 	andeq	r0, r0, fp, lsl #22
     76c:	03003413 	movweq	r3, #1043	; 0x413
     770:	3b0b3a0e 	blcc	2cefb0 <__bss_end__+0x2c4050>
     774:	490b390b 	stmdbmi	fp, {r0, r1, r3, r8, fp, ip, sp}
     778:	00180213 	andseq	r0, r8, r3, lsl r2
     77c:	012e1400 			; <UNDEFINED> instruction: 0x012e1400
     780:	0e03193f 			; <UNDEFINED> instruction: 0x0e03193f
     784:	053b0b3a 	ldreq	r0, [fp, #-2874]!	; 0xfffff4c6
     788:	19270b39 	stmdbne	r7!, {r0, r3, r4, r5, r8, r9, fp}
     78c:	06120111 			; <UNDEFINED> instruction: 0x06120111
     790:	42971840 	addsmi	r1, r7, #64, 16	; 0x400000
     794:	00130119 	andseq	r0, r3, r9, lsl r1
     798:	00341500 	eorseq	r1, r4, r0, lsl #10
     79c:	13490e03 	movtne	r0, #40451	; 0x9e03
     7a0:	18021934 	stmdane	r2, {r2, r4, r5, r8, fp, ip}
     7a4:	89160000 	ldmdbhi	r6, {}	; <UNPREDICTABLE>
     7a8:	11010182 	smlabbne	r1, r2, r1, r0
     7ac:	01133101 	tsteq	r3, r1, lsl #2
     7b0:	17000013 	smladne	r0, r3, r0, r0
     7b4:	0001828a 	andeq	r8, r1, sl, lsl #5
     7b8:	42911802 	addsmi	r1, r1, #131072	; 0x20000
     7bc:	18000018 	stmdane	r0, {r3, r4}
     7c0:	00018289 	andeq	r8, r1, r9, lsl #5
     7c4:	13310111 	teqne	r1, #1073741828	; 0x40000004
     7c8:	2e190000 	cdpcs	0, 1, cr0, cr9, cr0, {0}
     7cc:	03193f01 	tsteq	r9, #1, 30
     7d0:	3b0b3a0e 	blcc	2cf010 <__bss_end__+0x2c40b0>
     7d4:	270b3905 	strcs	r3, [fp, -r5, lsl #18]
     7d8:	11134919 	tstne	r3, r9, lsl r9
     7dc:	40061201 	andmi	r1, r6, r1, lsl #4
     7e0:	19429718 	stmdbne	r2, {r3, r4, r8, r9, sl, ip, pc}^
     7e4:	00001301 	andeq	r1, r0, r1, lsl #6
     7e8:	0300341a 	movweq	r3, #1050	; 0x41a
     7ec:	3b0b3a0e 	blcc	2cf02c <__bss_end__+0x2c40cc>
     7f0:	490b3905 	stmdbmi	fp, {r0, r2, r8, fp, ip, sp}
     7f4:	b7170213 			; <UNDEFINED> instruction: 0xb7170213
     7f8:	00001742 	andeq	r1, r0, r2, asr #14
     7fc:	31011d1b 	tstcc	r1, fp, lsl sp
     800:	b8015213 	stmdalt	r1, {r0, r1, r4, r9, ip, lr}
     804:	17550b42 	ldrbne	r0, [r5, -r2, asr #22]
     808:	05590b58 	ldrbeq	r0, [r9, #-2904]	; 0xfffff4a8
     80c:	13010b57 	movwne	r0, #6999	; 0x1b57
     810:	0b1c0000 	bleq	700818 <__bss_end__+0x6f58b8>
     814:	00175501 	andseq	r5, r7, r1, lsl #10
     818:	00341d00 	eorseq	r1, r4, r0, lsl #26
     81c:	17021331 	smladxne	r2, r1, r3, r1
     820:	001742b7 			; <UNDEFINED> instruction: 0x001742b7
     824:	010b1e00 	tsteq	fp, r0, lsl #28
     828:	17551331 	smmlarne	r5, r1, r3, r1
     82c:	00001301 	andeq	r1, r0, r1, lsl #6
     830:	3100051f 	tstcc	r0, pc, lsl r5
     834:	b7170213 			; <UNDEFINED> instruction: 0xb7170213
     838:	00001742 	andeq	r1, r0, r2, asr #14
     83c:	01828920 	orreq	r8, r2, r0, lsr #18
     840:	31011101 	tstcc	r1, r1, lsl #2
     844:	21000013 	tstcs	r0, r3, lsl r0
     848:	0e03012e 	adfeqsp	f0, f3, #0.5
     84c:	0b3b0b3a 	bleq	ec353c <__bss_end__+0xeb85dc>
     850:	19270b39 	stmdbne	r7!, {r0, r3, r4, r5, r8, r9, fp}
     854:	0b201349 	bleq	805580 <__bss_end__+0x7fa620>
     858:	00001301 	andeq	r1, r0, r1, lsl #6
     85c:	03003422 	movweq	r3, #1058	; 0x422
     860:	3b0b3a0e 	blcc	2cf0a0 <__bss_end__+0x2c4140>
     864:	490b390b 	stmdbmi	fp, {r0, r1, r3, r8, fp, ip, sp}
     868:	23000013 	movwcs	r0, #19
     86c:	0000010b 	andeq	r0, r0, fp, lsl #2
     870:	03003424 	movweq	r3, #1060	; 0x424
     874:	3b0b3a08 	blcc	2cf09c <__bss_end__+0x2c413c>
     878:	490b390b 	stmdbmi	fp, {r0, r1, r3, r8, fp, ip, sp}
     87c:	25000013 	strcs	r0, [r0, #-19]	; 0xffffffed
     880:	193f012e 	ldmdbne	pc!, {r1, r2, r3, r5, r8}	; <UNPREDICTABLE>
     884:	0b3a0e03 	bleq	e84098 <__bss_end__+0xe79138>
     888:	0b390b3b 	bleq	e4357c <__bss_end__+0xe3861c>
     88c:	13491927 	movtne	r1, #39207	; 0x9927
     890:	06120111 			; <UNDEFINED> instruction: 0x06120111
     894:	42971840 	addsmi	r1, r7, #64, 16	; 0x400000
     898:	00130119 	andseq	r0, r3, r9, lsl r1
     89c:	00342600 	eorseq	r2, r4, r0, lsl #12
     8a0:	0b3a0e03 	bleq	e840b4 <__bss_end__+0xe79154>
     8a4:	0b390b3b 	bleq	e43598 <__bss_end__+0xe38638>
     8a8:	17021349 	strne	r1, [r2, -r9, asr #6]
     8ac:	001742b7 			; <UNDEFINED> instruction: 0x001742b7
     8b0:	011d2700 	tsteq	sp, r0, lsl #14
     8b4:	01521331 	cmpeq	r2, r1, lsr r3
     8b8:	110b42b8 			; <UNDEFINED> instruction: 0x110b42b8
     8bc:	58061201 	stmdapl	r6, {r0, r9, ip}
     8c0:	570b590b 	strpl	r5, [fp, -fp, lsl #18]
     8c4:	0013010b 	andseq	r0, r3, fp, lsl #2
     8c8:	012e2800 			; <UNDEFINED> instruction: 0x012e2800
     8cc:	0e03193f 			; <UNDEFINED> instruction: 0x0e03193f
     8d0:	0b3b0b3a 	bleq	ec35c0 <__bss_end__+0xeb8660>
     8d4:	19270b39 	stmdbne	r7!, {r0, r3, r4, r5, r8, r9, fp}
     8d8:	06120111 			; <UNDEFINED> instruction: 0x06120111
     8dc:	42971840 	addsmi	r1, r7, #64, 16	; 0x400000
     8e0:	00130119 	andseq	r0, r3, r9, lsl r1
     8e4:	012e2900 			; <UNDEFINED> instruction: 0x012e2900
     8e8:	0e03193f 			; <UNDEFINED> instruction: 0x0e03193f
     8ec:	0b3b0b3a 	bleq	ec35dc <__bss_end__+0xeb867c>
     8f0:	19270b39 	stmdbne	r7!, {r0, r3, r4, r5, r8, r9, fp}
     8f4:	0b201349 	bleq	805620 <__bss_end__+0x7fa6c0>
     8f8:	00001301 	andeq	r1, r0, r1, lsl #6
     8fc:	0300052a 	movweq	r0, #1322	; 0x52a
     900:	3b0b3a0e 	blcc	2cf140 <__bss_end__+0x2c41e0>
     904:	490b390b 	stmdbmi	fp, {r0, r1, r3, r8, fp, ip, sp}
     908:	2b000013 	blcs	95c <__code_start__-0x76a4>
     90c:	0e03012e 	adfeqsp	f0, f3, #0.5
     910:	0b3b0b3a 	bleq	ec3600 <__bss_end__+0xeb86a0>
     914:	19270b39 	stmdbne	r7!, {r0, r3, r4, r5, r8, r9, fp}
     918:	01111349 	tsteq	r1, r9, asr #6
     91c:	18400612 	stmdane	r0, {r1, r4, r9, sl}^
     920:	01194297 			; <UNDEFINED> instruction: 0x01194297
     924:	2c000013 	stccs	0, cr0, [r0], {19}
     928:	0e030005 	cdpeq	0, 0, cr0, cr3, cr5, {0}
     92c:	0b3b0b3a 	bleq	ec361c <__bss_end__+0xeb86bc>
     930:	13490b39 	movtne	r0, #39737	; 0x9b39
     934:	42b71702 	adcsmi	r1, r7, #524288	; 0x80000
     938:	2d000017 	stccs	0, cr0, [r0, #-92]	; 0xffffffa4
     93c:	1755010b 	ldrbne	r0, [r5, -fp, lsl #2]
     940:	00001301 	andeq	r1, r0, r1, lsl #6
     944:	0300342e 	movweq	r3, #1070	; 0x42e
     948:	3b0b3a08 	blcc	2cf170 <__bss_end__+0x2c4210>
     94c:	490b390b 	stmdbmi	fp, {r0, r1, r3, r8, fp, ip, sp}
     950:	b7170213 			; <UNDEFINED> instruction: 0xb7170213
     954:	00001742 	andeq	r1, r0, r2, asr #14
     958:	03012e2f 	movweq	r2, #7727	; 0x1e2f
     95c:	3b0b3a0e 	blcc	2cf19c <__bss_end__+0x2c423c>
     960:	270b390b 	strcs	r3, [fp, -fp, lsl #18]
     964:	12011119 	andne	r1, r1, #1073741830	; 0x40000006
     968:	97184006 	ldrls	r4, [r8, -r6]
     96c:	13011942 	movwne	r1, #6466	; 0x1942
     970:	34300000 	ldrtcc	r0, [r0], #-0
     974:	3a0e0300 	bcc	38157c <__bss_end__+0x37661c>
     978:	390b3b0b 	stmdbcc	fp, {r0, r1, r3, r8, r9, fp, ip, sp}
     97c:	1c13490b 			; <UNDEFINED> instruction: 0x1c13490b
     980:	31000006 	tstcc	r0, r6
     984:	0e03012e 	adfeqsp	f0, f3, #0.5
     988:	0b3b0b3a 	bleq	ec3678 <__bss_end__+0xeb8718>
     98c:	19270b39 	stmdbne	r7!, {r0, r3, r4, r5, r8, r9, fp}
     990:	13010b20 	movwne	r0, #6944	; 0x1b20
     994:	05320000 	ldreq	r0, [r2, #-0]!
     998:	3a080300 	bcc	2015a0 <__bss_end__+0x1f6640>
     99c:	390b3b0b 	stmdbcc	fp, {r0, r1, r3, r8, r9, fp, ip, sp}
     9a0:	0013490b 	andseq	r4, r3, fp, lsl #18
     9a4:	82893300 	addhi	r3, r9, #0, 6
     9a8:	01110101 	tsteq	r1, r1, lsl #2
     9ac:	31194295 			; <UNDEFINED> instruction: 0x31194295
     9b0:	00130113 	andseq	r0, r3, r3, lsl r1
     9b4:	012e3400 			; <UNDEFINED> instruction: 0x012e3400
     9b8:	01111331 	tsteq	r1, r1, lsr r3
     9bc:	18400612 	stmdane	r0, {r1, r4, r9, sl}^
     9c0:	01194297 			; <UNDEFINED> instruction: 0x01194297
     9c4:	35000013 	strcc	r0, [r0, #-19]	; 0xffffffed
     9c8:	1331011d 	teqne	r1, #1073741831	; 0x40000007
     9cc:	0b581755 	bleq	1606728 <__bss_end__+0x15fb7c8>
     9d0:	0b570b59 	bleq	15c373c <__bss_end__+0x15b87dc>
     9d4:	00001301 	andeq	r1, r0, r1, lsl #6
     9d8:	31000536 	tstcc	r0, r6, lsr r5
     9dc:	37000013 	smladcc	r0, r3, r0, r0
     9e0:	1331010b 	teqne	r1, #-1073741822	; 0xc0000002
     9e4:	00001755 	andeq	r1, r0, r5, asr r7
     9e8:	31011d38 	tstcc	r1, r8, lsr sp
     9ec:	b8015213 	stmdalt	r1, {r0, r1, r4, r9, ip, lr}
     9f0:	17550b42 	ldrbne	r0, [r5, -r2, asr #22]
     9f4:	0b590b58 	bleq	164375c <__bss_end__+0x16387fc>
     9f8:	00000b57 	andeq	r0, r0, r7, asr fp
     9fc:	31011d39 	tstcc	r1, r9, lsr sp
     a00:	b8015213 	stmdalt	r1, {r0, r1, r4, r9, ip, lr}
     a04:	17550b42 	ldrbne	r0, [r5, -r2, asr #22]
     a08:	0b590b58 	bleq	1643770 <__bss_end__+0x1638810>
     a0c:	13010b57 	movwne	r0, #6999	; 0x1b57
     a10:	893a0000 	ldmdbhi	sl!, {}	; <UNPREDICTABLE>
     a14:	11010182 	smlabbne	r1, r2, r1, r0
     a18:	19429501 	stmdbne	r2, {r0, r8, sl, ip, pc}^
     a1c:	00001331 	andeq	r1, r0, r1, lsr r3
     a20:	3f002e3b 	svccc	0x00002e3b
     a24:	6e193c19 	mrcvs	12, 0, r3, cr9, cr9, {0}
     a28:	3a0e030e 	bcc	381668 <__bss_end__+0x376708>
     a2c:	390b3b0b 	stmdbcc	fp, {r0, r1, r3, r8, r9, fp, ip, sp}
     a30:	3c00000b 	stccc	0, cr0, [r0], {11}
     a34:	18020036 	stmdane	r2, {r1, r2, r4, r5}
     a38:	01000000 	mrseq	r0, (UNDEF: 0)
     a3c:	0e250111 	mcreq	1, 1, r0, cr5, cr1, {0}
     a40:	0e030b13 	vmoveq.32	d3[0], r0
     a44:	01110e1b 	tsteq	r1, fp, lsl lr
     a48:	17100612 			; <UNDEFINED> instruction: 0x17100612
     a4c:	24020000 	strcs	r0, [r2], #-0
     a50:	3e0b0b00 	vmlacc.f64	d0, d11, d0
     a54:	0008030b 	andeq	r0, r8, fp, lsl #6
     a58:	00160300 	andseq	r0, r6, r0, lsl #6
     a5c:	0b3a0e03 	bleq	e84270 <__bss_end__+0xe79310>
     a60:	0b390b3b 	bleq	e43754 <__bss_end__+0xe387f4>
     a64:	00001349 	andeq	r1, r0, r9, asr #6
     a68:	0b002404 	bleq	9a80 <uart_init+0x5c>
     a6c:	030b3e0b 	movweq	r3, #48651	; 0xbe0b
     a70:	0500000e 	streq	r0, [r0, #-14]
     a74:	19270115 	stmdbne	r7!, {r0, r2, r4, r8}
     a78:	13011349 	movwne	r1, #4937	; 0x1349
     a7c:	05060000 	streq	r0, [r6, #-0]
     a80:	00134900 	andseq	r4, r3, r0, lsl #18
     a84:	00340700 	eorseq	r0, r4, r0, lsl #14
     a88:	0b3a0e03 	bleq	e8429c <__bss_end__+0xe7933c>
     a8c:	0b390b3b 	bleq	e43780 <__bss_end__+0xe38820>
     a90:	193f1349 	ldmdbne	pc!, {r0, r3, r6, r8, r9, ip}	; <UNPREDICTABLE>
     a94:	0000193c 	andeq	r1, r0, ip, lsr r9
     a98:	0b000f08 	bleq	46c0 <__code_start__-0x3940>
     a9c:	0013490b 	andseq	r4, r3, fp, lsl #18
     aa0:	00260900 	eoreq	r0, r6, r0, lsl #18
     aa4:	00001349 	andeq	r1, r0, r9, asr #6
     aa8:	3f012e0a 	svccc	0x00012e0a
     aac:	3a0e0319 	bcc	381718 <__bss_end__+0x3767b8>
     ab0:	390b3b0b 	stmdbcc	fp, {r0, r1, r3, r8, r9, fp, ip, sp}
     ab4:	4919270b 	ldmdbmi	r9, {r0, r1, r3, r8, r9, sl, sp}
     ab8:	12011113 	andne	r1, r1, #-1073741820	; 0xc0000004
     abc:	97184006 	ldrls	r4, [r8, -r6]
     ac0:	13011942 	movwne	r1, #6466	; 0x1942
     ac4:	050b0000 	streq	r0, [fp, #-0]
     ac8:	3a080300 	bcc	2016d0 <__bss_end__+0x1f6770>
     acc:	390b3b0b 	stmdbcc	fp, {r0, r1, r3, r8, r9, fp, ip, sp}
     ad0:	0213490b 	andseq	r4, r3, #180224	; 0x2c000
     ad4:	0c000018 	stceq	0, cr0, [r0], {24}
     ad8:	08030005 	stmdaeq	r3, {r0, r2}
     adc:	0b3b0b3a 	bleq	ec37cc <__bss_end__+0xeb886c>
     ae0:	13490b39 	movtne	r0, #39737	; 0x9b39
     ae4:	42b71702 	adcsmi	r1, r7, #524288	; 0x80000
     ae8:	0d000017 	stceq	0, cr0, [r0, #-92]	; 0xffffffa4
     aec:	08030034 	stmdaeq	r3, {r2, r4, r5}
     af0:	0b3b0b3a 	bleq	ec37e0 <__bss_end__+0xeb8880>
     af4:	13490b39 	movtne	r0, #39737	; 0x9b39
     af8:	42b71702 	adcsmi	r1, r7, #524288	; 0x80000
     afc:	0e000017 	mcreq	0, 0, r0, cr0, cr7, {0}
     b00:	0b0b000f 	bleq	2c0b44 <__bss_end__+0x2b5be4>
     b04:	01000000 	mrseq	r0, (UNDEF: 0)
     b08:	0e250111 	mcreq	1, 1, r0, cr5, cr1, {0}
     b0c:	0e030b13 	vmoveq.32	d3[0], r0
     b10:	01110e1b 	tsteq	r1, fp, lsl lr
     b14:	17100612 			; <UNDEFINED> instruction: 0x17100612
     b18:	16020000 	strne	r0, [r2], -r0
     b1c:	3a0e0300 	bcc	381724 <__bss_end__+0x3767c4>
     b20:	390b3b0b 	stmdbcc	fp, {r0, r1, r3, r8, r9, fp, ip, sp}
     b24:	0013490b 	andseq	r4, r3, fp, lsl #18
     b28:	01130300 	tsteq	r3, r0, lsl #6
     b2c:	0b0b0e03 	bleq	2c4340 <__bss_end__+0x2b93e0>
     b30:	0b3b0b3a 	bleq	ec3820 <__bss_end__+0xeb88c0>
     b34:	00001301 	andeq	r1, r0, r1, lsl #6
     b38:	03000d04 	movweq	r0, #3332	; 0xd04
     b3c:	3813490e 	ldmdacc	r3, {r1, r2, r3, r8, fp, lr}
     b40:	0019340b 	andseq	r3, r9, fp, lsl #8
     b44:	000f0500 	andeq	r0, pc, r0, lsl #10
     b48:	00000b0b 	andeq	r0, r0, fp, lsl #22
     b4c:	0b002406 	bleq	9b6c <uart_has_data>
     b50:	030b3e0b 	movweq	r3, #48651	; 0xbe0b
     b54:	07000008 	streq	r0, [r0, -r8]
     b58:	0b0b0024 	bleq	2c0bf0 <__bss_end__+0x2b5c90>
     b5c:	0e030b3e 	vmoveq.16	d3[0], r0
     b60:	15080000 	strne	r0, [r8, #-0]
     b64:	49192701 	ldmdbmi	r9, {r0, r8, r9, sl, sp}
     b68:	00130113 	andseq	r0, r3, r3, lsl r1
     b6c:	00050900 	andeq	r0, r5, r0, lsl #18
     b70:	00001349 	andeq	r1, r0, r9, asr #6
     b74:	0300340a 	movweq	r3, #1034	; 0x40a
     b78:	3b0b3a0e 	blcc	2cf3b8 <__bss_end__+0x2c4458>
     b7c:	490b390b 	stmdbmi	fp, {r0, r1, r3, r8, fp, ip, sp}
     b80:	3c193f13 	ldccc	15, cr3, [r9], {19}
     b84:	0b000019 	bleq	bf0 <__code_start__-0x7410>
     b88:	0b0b000f 	bleq	2c0bcc <__bss_end__+0x2b5c6c>
     b8c:	00001349 	andeq	r1, r0, r9, asr #6
     b90:	4900260c 	stmdbmi	r0, {r2, r3, r9, sl, sp}
     b94:	0d000013 	stceq	0, cr0, [r0, #-76]	; 0xffffffb4
     b98:	193f012e 	ldmdbne	pc!, {r1, r2, r3, r5, r8}	; <UNPREDICTABLE>
     b9c:	0b3a0e03 	bleq	e843b0 <__bss_end__+0xe79450>
     ba0:	0b390b3b 	bleq	e43894 <__bss_end__+0xe38934>
     ba4:	13491927 	movtne	r1, #39207	; 0x9927
     ba8:	06120111 			; <UNDEFINED> instruction: 0x06120111
     bac:	42971840 	addsmi	r1, r7, #64, 16	; 0x400000
     bb0:	00130119 	andseq	r0, r3, r9, lsl r1
     bb4:	00050e00 	andeq	r0, r5, r0, lsl #28
     bb8:	0b3a0803 	bleq	e82bcc <__bss_end__+0xe77c6c>
     bbc:	0b390b3b 	bleq	e438b0 <__bss_end__+0xe38950>
     bc0:	18021349 	stmdane	r2, {r0, r3, r6, r8, r9, ip}
     bc4:	180f0000 	stmdane	pc, {}	; <UNPREDICTABLE>
     bc8:	10000000 	andne	r0, r0, r0
     bcc:	08030034 	stmdaeq	r3, {r2, r4, r5}
     bd0:	0b3b0b3a 	bleq	ec38c0 <__bss_end__+0xeb8960>
     bd4:	13490b39 	movtne	r0, #39737	; 0x9b39
     bd8:	00001802 	andeq	r1, r0, r2, lsl #16
     bdc:	03003411 	movweq	r3, #1041	; 0x411
     be0:	3b0b3a0e 	blcc	2cf420 <__bss_end__+0x2c44c0>
     be4:	490b390b 	stmdbmi	fp, {r0, r1, r3, r8, fp, ip, sp}
     be8:	00180213 	andseq	r0, r8, r3, lsl r2
     bec:	00341200 	eorseq	r1, r4, r0, lsl #4
     bf0:	0b3a0803 	bleq	e82c04 <__bss_end__+0xe77ca4>
     bf4:	0b390b3b 	bleq	e438e8 <__bss_end__+0xe38988>
     bf8:	17021349 	strne	r1, [r2, -r9, asr #6]
     bfc:	001742b7 			; <UNDEFINED> instruction: 0x001742b7
     c00:	82891300 	addhi	r1, r9, #0, 6
     c04:	01110101 	tsteq	r1, r1, lsl #2
     c08:	13011331 	movwne	r1, #4913	; 0x1331
     c0c:	8a140000 	bhi	500c14 <__bss_end__+0x4f5cb4>
     c10:	02000182 	andeq	r0, r0, #-2147483616	; 0x80000020
     c14:	18429118 	stmdane	r2, {r3, r4, r8, ip, pc}^
     c18:	89150000 	ldmdbhi	r5, {}	; <UNPREDICTABLE>
     c1c:	11010182 	smlabbne	r1, r2, r1, r0
     c20:	16000001 	strne	r0, [r0], -r1
     c24:	13490101 	movtne	r0, #37121	; 0x9101
     c28:	00001301 	andeq	r1, r0, r1, lsl #6
     c2c:	49002117 	stmdbmi	r0, {r0, r1, r2, r4, r8, sp}
     c30:	00052f13 	andeq	r2, r5, r3, lsl pc
     c34:	002e1800 	eoreq	r1, lr, r0, lsl #16
     c38:	193c193f 	ldmdbne	ip!, {r0, r1, r2, r3, r4, r5, r8, fp, ip}
     c3c:	0e030e6e 	cdpeq	14, 0, cr0, cr3, cr14, {3}
     c40:	0b3b0b3a 	bleq	ec3930 <__bss_end__+0xeb89d0>
     c44:	00000b39 	andeq	r0, r0, r9, lsr fp
     c48:	01110100 	tsteq	r1, r0, lsl #2
     c4c:	0b130e25 	bleq	4c44e8 <__bss_end__+0x4b9588>
     c50:	0e1b0e03 	cdpeq	14, 1, cr0, cr11, cr3, {0}
     c54:	06120111 			; <UNDEFINED> instruction: 0x06120111
     c58:	00001710 	andeq	r1, r0, r0, lsl r7
     c5c:	0b002402 	bleq	9c6c <kmalloc_init_set_start+0x68>
     c60:	030b3e0b 	movweq	r3, #48651	; 0xbe0b
     c64:	03000008 	movweq	r0, #8
     c68:	0b0b0024 	bleq	2c0d00 <__bss_end__+0x2b5da0>
     c6c:	0e030b3e 	vmoveq.16	d3[0], r0
     c70:	15040000 	strne	r0, [r4, #-0]
     c74:	49192701 	ldmdbmi	r9, {r0, r8, r9, sl, sp}
     c78:	00130113 	andseq	r0, r3, r3, lsl r1
     c7c:	00050500 	andeq	r0, r5, r0, lsl #10
     c80:	00001349 	andeq	r1, r0, r9, asr #6
     c84:	03003406 	movweq	r3, #1030	; 0x406
     c88:	3b0b3a0e 	blcc	2cf4c8 <__bss_end__+0x2c4568>
     c8c:	490b390b 	stmdbmi	fp, {r0, r1, r3, r8, fp, ip, sp}
     c90:	3c193f13 	ldccc	15, cr3, [r9], {19}
     c94:	07000019 	smladeq	r0, r9, r0, r0
     c98:	0b0b000f 	bleq	2c0cdc <__bss_end__+0x2b5d7c>
     c9c:	00001349 	andeq	r1, r0, r9, asr #6
     ca0:	49002608 	stmdbmi	r0, {r3, r9, sl, sp}
     ca4:	09000013 	stmdbeq	r0, {r0, r1, r4}
     ca8:	13470034 	movtne	r0, #28724	; 0x7034
     cac:	0b3b0b3a 	bleq	ec399c <__bss_end__+0xeb8a3c>
     cb0:	18020b39 	stmdane	r2, {r0, r3, r4, r5, r8, r9, fp}
     cb4:	2e0a0000 	cdpcs	0, 0, cr0, cr10, cr0, {0}
     cb8:	03193f01 	tsteq	r9, #1, 30
     cbc:	3b0b3a0e 	blcc	2cf4fc <__bss_end__+0x2c459c>
     cc0:	270b390b 	strcs	r3, [fp, -fp, lsl #18]
     cc4:	11134919 	tstne	r3, r9, lsl r9
     cc8:	40061201 	andmi	r1, r6, r1, lsl #4
     ccc:	19429618 	stmdbne	r2, {r3, r4, r9, sl, ip, pc}^
     cd0:	050b0000 	streq	r0, [fp, #-0]
     cd4:	3a080300 	bcc	2018dc <__bss_end__+0x1f697c>
     cd8:	390b3b0b 	stmdbcc	fp, {r0, r1, r3, r8, r9, fp, ip, sp}
     cdc:	0213490b 	andseq	r4, r3, #180224	; 0x2c000
     ce0:	1742b717 	smlaldne	fp, r2, r7, r7
     ce4:	01000000 	mrseq	r0, (UNDEF: 0)
     ce8:	0e250111 	mcreq	1, 1, r0, cr5, cr1, {0}
     cec:	0e030b13 	vmoveq.32	d3[0], r0
     cf0:	01110e1b 	tsteq	r1, fp, lsl lr
     cf4:	17100612 			; <UNDEFINED> instruction: 0x17100612
     cf8:	24020000 	strcs	r0, [r2], #-0
     cfc:	3e0b0b00 	vmlacc.f64	d0, d11, d0
     d00:	000e030b 	andeq	r0, lr, fp, lsl #6
     d04:	00240300 	eoreq	r0, r4, r0, lsl #6
     d08:	0b3e0b0b 	bleq	f8393c <__bss_end__+0xf789dc>
     d0c:	00000803 	andeq	r0, r0, r3, lsl #16
     d10:	03001604 	movweq	r1, #1540	; 0x604
     d14:	3b0b3a0e 	blcc	2cf554 <__bss_end__+0x2c45f4>
     d18:	490b390b 	stmdbmi	fp, {r0, r1, r3, r8, fp, ip, sp}
     d1c:	05000013 	streq	r0, [r0, #-19]	; 0xffffffed
     d20:	19270115 	stmdbne	r7!, {r0, r2, r4, r8}
     d24:	13011349 	movwne	r1, #4937	; 0x1349
     d28:	05060000 	streq	r0, [r6, #-0]
     d2c:	00134900 	andseq	r4, r3, r0, lsl #18
     d30:	00340700 	eorseq	r0, r4, r0, lsl #14
     d34:	0b3a0e03 	bleq	e84548 <__bss_end__+0xe795e8>
     d38:	0b390b3b 	bleq	e43a2c <__bss_end__+0xe38acc>
     d3c:	193f1349 	ldmdbne	pc!, {r0, r3, r6, r8, r9, ip}	; <UNPREDICTABLE>
     d40:	0000193c 	andeq	r1, r0, ip, lsr r9
     d44:	0b000f08 	bleq	496c <__code_start__-0x3694>
     d48:	0013490b 	andseq	r4, r3, fp, lsl #18
     d4c:	00260900 	eoreq	r0, r6, r0, lsl #18
     d50:	00001349 	andeq	r1, r0, r9, asr #6
     d54:	0301130a 	movweq	r1, #4874	; 0x130a
     d58:	3a0b0b0e 	bcc	2c3998 <__bss_end__+0x2b8a38>
     d5c:	010b3b0b 	tsteq	fp, fp, lsl #22
     d60:	0b000013 	bleq	db4 <__code_start__-0x724c>
     d64:	0e03000d 	cdpeq	0, 0, cr0, cr3, cr13, {0}
     d68:	0b381349 	bleq	e05a94 <__bss_end__+0xdfab34>
     d6c:	00001934 	andeq	r1, r0, r4, lsr r9
     d70:	0b000f0c 	bleq	49a8 <__code_start__-0x3658>
     d74:	0d00000b 	stceq	0, cr0, [r0, #-44]	; 0xffffffd4
     d78:	193f012e 	ldmdbne	pc!, {r1, r2, r3, r5, r8}	; <UNPREDICTABLE>
     d7c:	0b3a0e03 	bleq	e84590 <__bss_end__+0xe79630>
     d80:	0b390b3b 	bleq	e43a74 <__bss_end__+0xe38b14>
     d84:	13491927 	movtne	r1, #39207	; 0x9927
     d88:	06120111 			; <UNDEFINED> instruction: 0x06120111
     d8c:	42971840 	addsmi	r1, r7, #64, 16	; 0x400000
     d90:	00130119 	andseq	r0, r3, r9, lsl r1
     d94:	00050e00 	andeq	r0, r5, r0, lsl #28
     d98:	0b3a0803 	bleq	e82dac <__bss_end__+0xe77e4c>
     d9c:	0b390b3b 	bleq	e43a90 <__bss_end__+0xe38b30>
     da0:	17021349 	strne	r1, [r2, -r9, asr #6]
     da4:	001742b7 			; <UNDEFINED> instruction: 0x001742b7
     da8:	00050f00 	andeq	r0, r5, r0, lsl #30
     dac:	0b3a0e03 	bleq	e845c0 <__bss_end__+0xe79660>
     db0:	0b390b3b 	bleq	e43aa4 <__bss_end__+0xe38b44>
     db4:	17021349 	strne	r1, [r2, -r9, asr #6]
     db8:	001742b7 			; <UNDEFINED> instruction: 0x001742b7
     dbc:	00341000 	eorseq	r1, r4, r0
     dc0:	0b3a0803 	bleq	e82dd4 <__bss_end__+0xe77e74>
     dc4:	0b390b3b 	bleq	e43ab8 <__bss_end__+0xe38b58>
     dc8:	17021349 	strne	r1, [r2, -r9, asr #6]
     dcc:	001742b7 			; <UNDEFINED> instruction: 0x001742b7
     dd0:	00341100 	eorseq	r1, r4, r0, lsl #2
     dd4:	0b3a0e03 	bleq	e845e8 <__bss_end__+0xe79688>
     dd8:	0b390b3b 	bleq	e43acc <__bss_end__+0xe38b6c>
     ddc:	17021349 	strne	r1, [r2, -r9, asr #6]
     de0:	001742b7 			; <UNDEFINED> instruction: 0x001742b7
     de4:	00341200 	eorseq	r1, r4, r0, lsl #4
     de8:	13490e03 	movtne	r0, #40451	; 0x9e03
     dec:	18021934 	stmdane	r2, {r2, r4, r5, r8, fp, ip}
     df0:	0b130000 	bleq	4c0df8 <__bss_end__+0x4b5e98>
     df4:	00175501 	andseq	r5, r7, r1, lsl #10
     df8:	00341400 	eorseq	r1, r4, r0, lsl #8
     dfc:	0b3a0803 	bleq	e82e10 <__bss_end__+0xe77eb0>
     e00:	0b390b3b 	bleq	e43af4 <__bss_end__+0xe38b94>
     e04:	18021349 	stmdane	r2, {r0, r3, r6, r8, r9, ip}
     e08:	34150000 	ldrcc	r0, [r5], #-0
     e0c:	3a0e0300 	bcc	381a14 <__bss_end__+0x376ab4>
     e10:	390b3b0b 	stmdbcc	fp, {r0, r1, r3, r8, r9, fp, ip, sp}
     e14:	0213490b 	andseq	r4, r3, #180224	; 0x2c000
     e18:	16000018 			; <UNDEFINED> instruction: 0x16000018
     e1c:	1755010b 	ldrbne	r0, [r5, -fp, lsl #2]
     e20:	00001301 	andeq	r1, r0, r1, lsl #6
     e24:	01828917 	orreq	r8, r2, r7, lsl r9
     e28:	31011101 	tstcc	r1, r1, lsl #2
     e2c:	00130113 	andseq	r0, r3, r3, lsl r1
     e30:	828a1800 	addhi	r1, sl, #0, 16
     e34:	18020001 	stmdane	r2, {r0}
     e38:	00184291 	mulseq	r8, r1, r2
     e3c:	82891900 	addhi	r1, r9, #0, 18
     e40:	01110001 	tsteq	r1, r1
     e44:	00001331 	andeq	r1, r0, r1, lsr r3
     e48:	31011d1a 	tstcc	r1, sl, lsl sp
     e4c:	b8015213 	stmdalt	r1, {r0, r1, r4, r9, ip, lr}
     e50:	17550542 	ldrbne	r0, [r5, -r2, asr #10]
     e54:	0b590b58 	bleq	1643bbc <__bss_end__+0x1638c5c>
     e58:	13010b57 	movwne	r0, #6999	; 0x1b57
     e5c:	051b0000 	ldreq	r0, [fp, #-0]
     e60:	02133100 	andseq	r3, r3, #0
     e64:	1742b717 	smlaldne	fp, r2, r7, r7
     e68:	051c0000 	ldreq	r0, [ip, #-0]
     e6c:	00133100 	andseq	r3, r3, r0, lsl #2
     e70:	00341d00 	eorseq	r1, r4, r0, lsl #26
     e74:	18021331 	stmdane	r2, {r0, r4, r5, r8, r9, ip}
     e78:	341e0000 	ldrcc	r0, [lr], #-0
     e7c:	02133100 	andseq	r3, r3, #0
     e80:	1742b717 	smlaldne	fp, r2, r7, r7
     e84:	341f0000 	ldrcc	r0, [pc], #-0	; e8c <__code_start__-0x7174>
     e88:	00133100 	andseq	r3, r3, r0, lsl #2
     e8c:	011d2000 	tsteq	sp, r0
     e90:	01521331 	cmpeq	r2, r1, lsr r3
     e94:	550542b8 	strpl	r4, [r5, #-696]	; 0xfffffd48
     e98:	590b5817 	stmdbpl	fp, {r0, r1, r2, r4, fp, ip, lr}
     e9c:	000b570b 	andeq	r5, fp, fp, lsl #14
     ea0:	82892100 	addhi	r2, r9, #0
     ea4:	01110101 	tsteq	r1, r1, lsl #2
     ea8:	00001301 	andeq	r1, r0, r1, lsl #6
     eac:	49010122 	stmdbmi	r1, {r1, r5, r8}
     eb0:	00130113 	andseq	r0, r3, r3, lsl r1
     eb4:	00212300 	eoreq	r2, r1, r0, lsl #6
     eb8:	0b2f1349 	bleq	bc5be4 <__bss_end__+0xbbac84>
     ebc:	2e240000 	cdpcs	0, 2, cr0, cr4, cr0, {0}
     ec0:	3a0e0301 	bcc	381acc <__bss_end__+0x376b6c>
     ec4:	390b3b0b 	stmdbcc	fp, {r0, r1, r3, r8, r9, fp, ip, sp}
     ec8:	4919270b 	ldmdbmi	r9, {r0, r1, r3, r8, r9, sl, sp}
     ecc:	010b2013 	tsteq	fp, r3, lsl r0
     ed0:	25000013 	strcs	r0, [r0, #-19]	; 0xffffffed
     ed4:	0e030005 	cdpeq	0, 0, cr0, cr3, cr5, {0}
     ed8:	0b3b0b3a 	bleq	ec3bc8 <__bss_end__+0xeb8c68>
     edc:	13490b39 	movtne	r0, #39737	; 0x9b39
     ee0:	05260000 	streq	r0, [r6, #-0]!
     ee4:	3a080300 	bcc	201aec <__bss_end__+0x1f6b8c>
     ee8:	390b3b0b 	stmdbcc	fp, {r0, r1, r3, r8, r9, fp, ip, sp}
     eec:	0013490b 	andseq	r4, r3, fp, lsl #18
     ef0:	00342700 	eorseq	r2, r4, r0, lsl #14
     ef4:	0b3a0803 	bleq	e82f08 <__bss_end__+0xe77fa8>
     ef8:	0b390b3b 	bleq	e43bec <__bss_end__+0xe38c8c>
     efc:	00001349 	andeq	r1, r0, r9, asr #6
     f00:	00010b28 	andeq	r0, r1, r8, lsr #22
     f04:	00342900 	eorseq	r2, r4, r0, lsl #18
     f08:	0b3a0e03 	bleq	e8471c <__bss_end__+0xe797bc>
     f0c:	0b390b3b 	bleq	e43c00 <__bss_end__+0xe38ca0>
     f10:	00001349 	andeq	r1, r0, r9, asr #6
     f14:	03012e2a 	movweq	r2, #7722	; 0x1e2a
     f18:	3b0b3a08 	blcc	2cf740 <__bss_end__+0x2c47e0>
     f1c:	270b390b 	strcs	r3, [fp, -fp, lsl #18]
     f20:	20134919 	andscs	r4, r3, r9, lsl r9
     f24:	0013010b 	andseq	r0, r3, fp, lsl #2
     f28:	012e2b00 			; <UNDEFINED> instruction: 0x012e2b00
     f2c:	0e03193f 			; <UNDEFINED> instruction: 0x0e03193f
     f30:	0b3b0b3a 	bleq	ec3c20 <__bss_end__+0xeb8cc0>
     f34:	19270b39 	stmdbne	r7!, {r0, r3, r4, r5, r8, r9, fp}
     f38:	06120111 			; <UNDEFINED> instruction: 0x06120111
     f3c:	42971840 	addsmi	r1, r7, #64, 16	; 0x400000
     f40:	00130119 	andseq	r0, r3, r9, lsl r1
     f44:	012e2c00 			; <UNDEFINED> instruction: 0x012e2c00
     f48:	01111331 	tsteq	r1, r1, lsr r3
     f4c:	18400612 	stmdane	r0, {r1, r4, r9, sl}^
     f50:	01194297 			; <UNDEFINED> instruction: 0x01194297
     f54:	2d000013 	stccs	0, cr0, [r0, #-76]	; 0xffffffb4
     f58:	13310005 	teqne	r1, #5, 0
     f5c:	00001802 	andeq	r1, r0, r2, lsl #16
     f60:	3100052e 	tstcc	r0, lr, lsr #10
     f64:	000b1c13 	andeq	r1, fp, r3, lsl ip
     f68:	010b2f00 	tsteq	fp, r0, lsl #30
     f6c:	01111331 	tsteq	r1, r1, lsr r3
     f70:	13010612 	movwne	r0, #5650	; 0x1612
     f74:	2e300000 	cdpcs	0, 3, cr0, cr0, cr0, {0}
     f78:	3c193f00 	ldccc	15, cr3, [r9], {-0}
     f7c:	030e6e19 	movweq	r6, #60953	; 0xee19
     f80:	3b0b3a0e 	blcc	2cf7c0 <__bss_end__+0x2c4860>
     f84:	000b390b 	andeq	r3, fp, fp, lsl #18
     f88:	11010000 	mrsne	r0, (UNDEF: 1)
     f8c:	130e2501 	movwne	r2, #58625	; 0xe501
     f90:	1b0e030b 	blne	381bc4 <__bss_end__+0x376c64>
     f94:	1201110e 	andne	r1, r1, #-2147483645	; 0x80000003
     f98:	00171006 	andseq	r1, r7, r6
     f9c:	00240200 	eoreq	r0, r4, r0, lsl #4
     fa0:	0b3e0b0b 	bleq	f83bd4 <__bss_end__+0xf78c74>
     fa4:	00000803 	andeq	r0, r0, r3, lsl #16
     fa8:	0b002403 	bleq	9fbc <gpio_set_function+0x38>
     fac:	030b3e0b 	movweq	r3, #48651	; 0xbe0b
     fb0:	0400000e 	streq	r0, [r0], #-14
     fb4:	19270115 	stmdbne	r7!, {r0, r2, r4, r8}
     fb8:	13011349 	movwne	r1, #4937	; 0x1349
     fbc:	05050000 	streq	r0, [r5, #-0]
     fc0:	00134900 	andseq	r4, r3, r0, lsl #18
     fc4:	00340600 	eorseq	r0, r4, r0, lsl #12
     fc8:	0b3a0e03 	bleq	e847dc <__bss_end__+0xe7987c>
     fcc:	0b390b3b 	bleq	e43cc0 <__bss_end__+0xe38d60>
     fd0:	193f1349 	ldmdbne	pc!, {r0, r3, r6, r8, r9, ip}	; <UNPREDICTABLE>
     fd4:	0000193c 	andeq	r1, r0, ip, lsr r9
     fd8:	0b000f07 	bleq	4bfc <__code_start__-0x3404>
     fdc:	0013490b 	andseq	r4, r3, fp, lsl #18
     fe0:	00260800 	eoreq	r0, r6, r0, lsl #16
     fe4:	00001349 	andeq	r1, r0, r9, asr #6
     fe8:	3f012e09 	svccc	0x00012e09
     fec:	3a0e0319 	bcc	381c58 <__bss_end__+0x376cf8>
     ff0:	390b3b0b 	stmdbcc	fp, {r0, r1, r3, r8, r9, fp, ip, sp}
     ff4:	8719270b 	ldrhi	r2, [r9, -fp, lsl #14]
     ff8:	01111901 	tsteq	r1, r1, lsl #18
     ffc:	18400612 	stmdane	r0, {r1, r4, r9, sl}^
    1000:	01194297 			; <UNDEFINED> instruction: 0x01194297
    1004:	0a000013 	beq	1058 <__code_start__-0x6fa8>
    1008:	01018289 	smlabbeq	r1, r9, r2, r8
    100c:	13010111 	movwne	r0, #4369	; 0x1111
    1010:	8a0b0000 	bhi	2c1018 <__bss_end__+0x2b60b8>
    1014:	02000182 	andeq	r0, r0, #-2147483616	; 0x80000020
    1018:	18429118 	stmdane	r2, {r3, r4, r8, ip, pc}^
    101c:	890c0000 	stmdbhi	ip, {}	; <UNPREDICTABLE>
    1020:	11000182 	smlabbne	r0, r2, r1, r0
    1024:	00133101 	andseq	r3, r3, r1, lsl #2
    1028:	82890d00 	addhi	r0, r9, #0, 26
    102c:	01110101 	tsteq	r1, r1, lsl #2
    1030:	13011331 	movwne	r1, #4913	; 0x1331
    1034:	2e0e0000 	cdpcs	0, 0, cr0, cr14, cr0, {0}
    1038:	3c193f00 	ldccc	15, cr3, [r9], {-0}
    103c:	030e6e19 	movweq	r6, #60953	; 0xee19
    1040:	3b0b3a0e 	blcc	2cf880 <__bss_end__+0x2c4920>
    1044:	000b390b 	andeq	r3, fp, fp, lsl #18
    1048:	11010000 	mrsne	r0, (UNDEF: 1)
    104c:	130e2501 	movwne	r2, #58625	; 0xe501
    1050:	1b0e030b 	blne	381c84 <__bss_end__+0x376d24>
    1054:	1201110e 	andne	r1, r1, #-2147483645	; 0x80000003
    1058:	00171006 	andseq	r1, r7, r6
    105c:	00240200 	eoreq	r0, r4, r0, lsl #4
    1060:	0b3e0b0b 	bleq	f83c94 <__bss_end__+0xf78d34>
    1064:	00000803 	andeq	r0, r0, r3, lsl #16
    1068:	0b002403 	bleq	a07c <gpio_set_input+0x10>
    106c:	030b3e0b 	movweq	r3, #48651	; 0xbe0b
    1070:	0400000e 	streq	r0, [r0], #-14
    1074:	19270115 	stmdbne	r7!, {r0, r2, r4, r8}
    1078:	13011349 	movwne	r1, #4937	; 0x1349
    107c:	05050000 	streq	r0, [r5, #-0]
    1080:	00134900 	andseq	r4, r3, r0, lsl #18
    1084:	00340600 	eorseq	r0, r4, r0, lsl #12
    1088:	0b3a0e03 	bleq	e8489c <__bss_end__+0xe7993c>
    108c:	0b390b3b 	bleq	e43d80 <__bss_end__+0xe38e20>
    1090:	193f1349 	ldmdbne	pc!, {r0, r3, r6, r8, r9, ip}	; <UNPREDICTABLE>
    1094:	0000193c 	andeq	r1, r0, ip, lsr r9
    1098:	0b000f07 	bleq	4cbc <__code_start__-0x3344>
    109c:	0013490b 	andseq	r4, r3, fp, lsl #18
    10a0:	00260800 	eoreq	r0, r6, r0, lsl #16
    10a4:	00001349 	andeq	r1, r0, r9, asr #6
    10a8:	3f012e09 	svccc	0x00012e09
    10ac:	3a0e0319 	bcc	381d18 <__bss_end__+0x376db8>
    10b0:	390b3b0b 	stmdbcc	fp, {r0, r1, r3, r8, r9, fp, ip, sp}
    10b4:	1201110b 	andne	r1, r1, #-1073741822	; 0xc0000002
    10b8:	97184006 	ldrls	r4, [r8, -r6]
    10bc:	13011942 	movwne	r1, #6466	; 0x1942
    10c0:	2e0a0000 	cdpcs	0, 0, cr0, cr10, cr0, {0}
    10c4:	03193f00 	tsteq	r9, #0, 30
    10c8:	3b0b3a0e 	blcc	2cf908 <__bss_end__+0x2c49a8>
    10cc:	270b390b 	strcs	r3, [fp, -fp, lsl #18]
    10d0:	00193c19 	andseq	r3, r9, r9, lsl ip
    10d4:	00340b00 	eorseq	r0, r4, r0, lsl #22
    10d8:	0b3a0803 	bleq	e830ec <__bss_end__+0xe7818c>
    10dc:	0b390b3b 	bleq	e43dd0 <__bss_end__+0xe38e70>
    10e0:	17021349 	strne	r1, [r2, -r9, asr #6]
    10e4:	001742b7 			; <UNDEFINED> instruction: 0x001742b7
    10e8:	00340c00 	eorseq	r0, r4, r0, lsl #24
    10ec:	0b3a0e03 	bleq	e84900 <__bss_end__+0xe799a0>
    10f0:	0b390b3b 	bleq	e43de4 <__bss_end__+0xe38e84>
    10f4:	00001349 	andeq	r1, r0, r9, asr #6
    10f8:	11010b0d 	tstne	r1, sp, lsl #22
    10fc:	01061201 	tsteq	r6, r1, lsl #4
    1100:	0e000013 	mcreq	0, 0, r0, cr0, cr3, {0}
    1104:	00018289 	andeq	r8, r1, r9, lsl #5
    1108:	13310111 	teqne	r1, #1073741828	; 0x40000004
    110c:	2e0f0000 	cdpcs	0, 0, cr0, cr15, cr0, {0}
    1110:	3c193f00 	ldccc	15, cr3, [r9], {-0}
    1114:	030e6e19 	movweq	r6, #60953	; 0xee19
    1118:	3b0b3a0e 	blcc	2cf958 <__bss_end__+0x2c49f8>
    111c:	000b3905 	andeq	r3, fp, r5, lsl #18
    1120:	002e1000 	eoreq	r1, lr, r0
    1124:	193c193f 	ldmdbne	ip!, {r0, r1, r2, r3, r4, r5, r8, fp, ip}
    1128:	0e030e6e 	cdpeq	14, 0, cr0, cr3, cr14, {3}
    112c:	0b3b0b3a 	bleq	ec3e1c <__bss_end__+0xeb8ebc>
    1130:	00000b39 	andeq	r0, r0, r9, lsr fp
    1134:	01110100 	tsteq	r1, r0, lsl #2
    1138:	0b130e25 	bleq	4c49d4 <__bss_end__+0x4b9a74>
    113c:	0e1b0e03 	cdpeq	14, 1, cr0, cr11, cr3, {0}
    1140:	06120111 			; <UNDEFINED> instruction: 0x06120111
    1144:	00001710 	andeq	r1, r0, r0, lsl r7
    1148:	0b002402 	bleq	a158 <strcat>
    114c:	030b3e0b 	movweq	r3, #48651	; 0xbe0b
    1150:	03000008 	movweq	r0, #8
    1154:	0b0b0024 	bleq	2c11ec <__bss_end__+0x2b628c>
    1158:	0e030b3e 	vmoveq.16	d3[0], r0
    115c:	15040000 	strne	r0, [r4, #-0]
    1160:	49192701 	ldmdbmi	r9, {r0, r8, r9, sl, sp}
    1164:	00130113 	andseq	r0, r3, r3, lsl r1
    1168:	00050500 	andeq	r0, r5, r0, lsl #10
    116c:	00001349 	andeq	r1, r0, r9, asr #6
    1170:	03003406 	movweq	r3, #1030	; 0x406
    1174:	3b0b3a0e 	blcc	2cf9b4 <__bss_end__+0x2c4a54>
    1178:	490b390b 	stmdbmi	fp, {r0, r1, r3, r8, fp, ip, sp}
    117c:	3c193f13 	ldccc	15, cr3, [r9], {19}
    1180:	07000019 	smladeq	r0, r9, r0, r0
    1184:	0b0b000f 	bleq	2c11c8 <__bss_end__+0x2b6268>
    1188:	00001349 	andeq	r1, r0, r9, asr #6
    118c:	49002608 	stmdbmi	r0, {r3, r9, sl, sp}
    1190:	09000013 	stmdbeq	r0, {r0, r1, r4}
    1194:	193f002e 	ldmdbne	pc!, {r1, r2, r3, r5}	; <UNPREDICTABLE>
    1198:	0b3a0e03 	bleq	e849ac <__bss_end__+0xe79a4c>
    119c:	0b390b3b 	bleq	e43e90 <__bss_end__+0xe38f30>
    11a0:	01111927 	tsteq	r1, r7, lsr #18
    11a4:	18400612 	stmdane	r0, {r1, r4, r9, sl}^
    11a8:	00194297 	mulseq	r9, r7, r2
    11ac:	11010000 	mrsne	r0, (UNDEF: 1)
    11b0:	130e2501 	movwne	r2, #58625	; 0xe501
    11b4:	1b0e030b 	blne	381de8 <__bss_end__+0x376e88>
    11b8:	1117550e 	tstne	r7, lr, lsl #10
    11bc:	00171001 	andseq	r1, r7, r1
    11c0:	00240200 	eoreq	r0, r4, r0, lsl #4
    11c4:	0b3e0b0b 	bleq	f83df8 <__bss_end__+0xf78e98>
    11c8:	00000803 	andeq	r0, r0, r3, lsl #16
    11cc:	49002603 	stmdbmi	r0, {r0, r1, r9, sl, sp}
    11d0:	04000013 	streq	r0, [r0], #-19	; 0xffffffed
    11d4:	0b0b0024 	bleq	2c126c <__bss_end__+0x2b630c>
    11d8:	0e030b3e 	vmoveq.16	d3[0], r0
    11dc:	15050000 	strne	r0, [r5, #-0]
    11e0:	49192701 	ldmdbmi	r9, {r0, r8, r9, sl, sp}
    11e4:	00130113 	andseq	r0, r3, r3, lsl r1
    11e8:	00050600 	andeq	r0, r5, r0, lsl #12
    11ec:	00001349 	andeq	r1, r0, r9, asr #6
    11f0:	03003407 	movweq	r3, #1031	; 0x407
    11f4:	3b0b3a0e 	blcc	2cfa34 <__bss_end__+0x2c4ad4>
    11f8:	490b390b 	stmdbmi	fp, {r0, r1, r3, r8, fp, ip, sp}
    11fc:	3c193f13 	ldccc	15, cr3, [r9], {19}
    1200:	08000019 	stmdaeq	r0, {r0, r3, r4}
    1204:	0b0b000f 	bleq	2c1248 <__bss_end__+0x2b62e8>
    1208:	00001349 	andeq	r1, r0, r9, asr #6
    120c:	03003409 	movweq	r3, #1033	; 0x409
    1210:	3b0b3a0e 	blcc	2cfa50 <__bss_end__+0x2c4af0>
    1214:	490b390b 	stmdbmi	fp, {r0, r1, r3, r8, fp, ip, sp}
    1218:	0a000013 	beq	126c <__code_start__-0x6d94>
    121c:	193f012e 	ldmdbne	pc!, {r1, r2, r3, r5, r8}	; <UNPREDICTABLE>
    1220:	0b3a0e03 	bleq	e84a34 <__bss_end__+0xe79ad4>
    1224:	0b390b3b 	bleq	e43f18 <__bss_end__+0xe38fb8>
    1228:	01871927 	orreq	r1, r7, r7, lsr #18
    122c:	12011119 	andne	r1, r1, #1073741830	; 0x40000006
    1230:	97184006 	ldrls	r4, [r8, -r6]
    1234:	13011942 	movwne	r1, #6466	; 0x1942
    1238:	340b0000 	strcc	r0, [fp], #-0
    123c:	3a0e0300 	bcc	381e44 <__bss_end__+0x376ee4>
    1240:	390b3b0b 	stmdbcc	fp, {r0, r1, r3, r8, r9, fp, ip, sp}
    1244:	1c13490b 			; <UNDEFINED> instruction: 0x1c13490b
    1248:	0c000006 	stceq	0, cr0, [r0], {6}
    124c:	0e030034 	mcreq	0, 0, r0, cr3, cr4, {1}
    1250:	0b3b0b3a 	bleq	ec3f40 <__bss_end__+0xeb8fe0>
    1254:	13490b39 	movtne	r0, #39737	; 0x9b39
    1258:	00000b1c 	andeq	r0, r0, ip, lsl fp
    125c:	31011d0d 	tstcc	r1, sp, lsl #26
    1260:	b8015213 	stmdalt	r1, {r0, r1, r4, r9, ip, lr}
    1264:	17550b42 	ldrbne	r0, [r5, -r2, asr #22]
    1268:	0b590b58 	bleq	1643fd0 <__bss_end__+0x1639070>
    126c:	13010b57 	movwne	r0, #6999	; 0x1b57
    1270:	0b0e0000 	bleq	381278 <__bss_end__+0x376318>
    1274:	00175501 	andseq	r5, r7, r1, lsl #10
    1278:	00340f00 	eorseq	r0, r4, r0, lsl #30
    127c:	17021331 	smladxne	r2, r1, r3, r1
    1280:	001742b7 			; <UNDEFINED> instruction: 0x001742b7
    1284:	011d1000 	tsteq	sp, r0
    1288:	01521331 	cmpeq	r2, r1, lsr r3
    128c:	110b42b8 			; <UNDEFINED> instruction: 0x110b42b8
    1290:	58061201 	stmdapl	r6, {r0, r9, ip}
    1294:	570b590b 	strpl	r5, [fp, -fp, lsl #18]
    1298:	0013010b 	andseq	r0, r3, fp, lsl #2
    129c:	82891100 	addhi	r1, r9, #0
    12a0:	01110001 	tsteq	r1, r1
    12a4:	00001331 	andeq	r1, r0, r1, lsr r3
    12a8:	01828912 	orreq	r8, r2, r2, lsl r9
    12ac:	31011101 	tstcc	r1, r1, lsl #2
    12b0:	00130113 	andseq	r0, r3, r3, lsl r1
    12b4:	828a1300 	addhi	r1, sl, #0, 6
    12b8:	18020001 	stmdane	r2, {r0}
    12bc:	00184291 	mulseq	r8, r1, r2
    12c0:	82891400 	addhi	r1, r9, #0, 8
    12c4:	01110101 	tsteq	r1, r1, lsl #2
    12c8:	00001331 	andeq	r1, r0, r1, lsr r3
    12cc:	3f012e15 	svccc	0x00012e15
    12d0:	3a0e0319 	bcc	381f3c <__bss_end__+0x376fdc>
    12d4:	390b3b0b 	stmdbcc	fp, {r0, r1, r3, r8, r9, fp, ip, sp}
    12d8:	2019270b 	andscs	r2, r9, fp, lsl #14
    12dc:	0013010b 	andseq	r0, r3, fp, lsl #2
    12e0:	012e1600 			; <UNDEFINED> instruction: 0x012e1600
    12e4:	0e03193f 			; <UNDEFINED> instruction: 0x0e03193f
    12e8:	0b3b0b3a 	bleq	ec3fd8 <__bss_end__+0xeb9078>
    12ec:	19270b39 	stmdbne	r7!, {r0, r3, r4, r5, r8, r9, fp}
    12f0:	0b201349 	bleq	80601c <__bss_end__+0x7fb0bc>
    12f4:	00001301 	andeq	r1, r0, r1, lsl #6
    12f8:	31012e17 	tstcc	r1, r7, lsl lr
    12fc:	12011113 	andne	r1, r1, #-1073741820	; 0xc0000004
    1300:	97184006 	ldrls	r4, [r8, -r6]
    1304:	13011942 	movwne	r1, #6466	; 0x1942
    1308:	2e180000 	cdpcs	0, 1, cr0, cr8, cr0, {0}
    130c:	3c193f00 	ldccc	15, cr3, [r9], {-0}
    1310:	030e6e19 	movweq	r6, #60953	; 0xee19
    1314:	3b0b3a0e 	blcc	2cfb54 <__bss_end__+0x2c4bf4>
    1318:	000b3905 	andeq	r3, fp, r5, lsl #18
    131c:	002e1900 	eoreq	r1, lr, r0, lsl #18
    1320:	193c193f 	ldmdbne	ip!, {r0, r1, r2, r3, r4, r5, r8, fp, ip}
    1324:	0e030e6e 	cdpeq	14, 0, cr0, cr3, cr14, {3}
    1328:	0b3b0b3a 	bleq	ec4018 <__bss_end__+0xeb90b8>
    132c:	00000b39 	andeq	r0, r0, r9, lsr fp
    1330:	01110100 	tsteq	r1, r0, lsl #2
    1334:	0b130e25 	bleq	4c4bd0 <__bss_end__+0x4b9c70>
    1338:	0e1b0e03 	cdpeq	14, 1, cr0, cr11, cr3, {0}
    133c:	06120111 			; <UNDEFINED> instruction: 0x06120111
    1340:	00001710 	andeq	r1, r0, r0, lsl r7
    1344:	0b002402 	bleq	a354 <__FUNCTION__.4028+0x80>
    1348:	030b3e0b 	movweq	r3, #48651	; 0xbe0b
    134c:	03000008 	movweq	r0, #8
    1350:	0b0b0024 	bleq	2c13e8 <__bss_end__+0x2b6488>
    1354:	0e030b3e 	vmoveq.16	d3[0], r0
    1358:	15040000 	strne	r0, [r4, #-0]
    135c:	49192701 	ldmdbmi	r9, {r0, r8, r9, sl, sp}
    1360:	00130113 	andseq	r0, r3, r3, lsl r1
    1364:	00050500 	andeq	r0, r5, r0, lsl #10
    1368:	00001349 	andeq	r1, r0, r9, asr #6
    136c:	03003406 	movweq	r3, #1030	; 0x406
    1370:	3b0b3a0e 	blcc	2cfbb0 <__bss_end__+0x2c4c50>
    1374:	490b390b 	stmdbmi	fp, {r0, r1, r3, r8, fp, ip, sp}
    1378:	3c193f13 	ldccc	15, cr3, [r9], {19}
    137c:	07000019 	smladeq	r0, r9, r0, r0
    1380:	0b0b000f 	bleq	2c13c4 <__bss_end__+0x2b6464>
    1384:	00001349 	andeq	r1, r0, r9, asr #6
    1388:	49002608 	stmdbmi	r0, {r3, r9, sl, sp}
    138c:	09000013 	stmdbeq	r0, {r0, r1, r4}
    1390:	193f012e 	ldmdbne	pc!, {r1, r2, r3, r5, r8}	; <UNPREDICTABLE>
    1394:	0b3a0e03 	bleq	e84ba8 <__bss_end__+0xe79c48>
    1398:	0b390b3b 	bleq	e4408c <__bss_end__+0xe3912c>
    139c:	01111927 	tsteq	r1, r7, lsr #18
    13a0:	18400612 	stmdane	r0, {r1, r4, r9, sl}^
    13a4:	01194297 			; <UNDEFINED> instruction: 0x01194297
    13a8:	0a000013 	beq	13fc <__code_start__-0x6c04>
    13ac:	08030005 	stmdaeq	r3, {r0, r2}
    13b0:	0b3b0b3a 	bleq	ec40a0 <__bss_end__+0xeb9140>
    13b4:	13490b39 	movtne	r0, #39737	; 0x9b39
    13b8:	42b71702 	adcsmi	r1, r7, #524288	; 0x80000
    13bc:	0b000017 	bleq	1420 <__code_start__-0x6be0>
    13c0:	1331011d 	teqne	r1, #1073741831	; 0x40000007
    13c4:	42b80152 	adcsmi	r0, r8, #-2147483628	; 0x80000014
    13c8:	5817550b 	ldmdapl	r7, {r0, r1, r3, r8, sl, ip, lr}
    13cc:	570b590b 	strpl	r5, [fp, -fp, lsl #18]
    13d0:	0c00000b 	stceq	0, cr0, [r0], {11}
    13d4:	13310005 	teqne	r1, #5, 0
    13d8:	42b71702 	adcsmi	r1, r7, #524288	; 0x80000
    13dc:	0d000017 	stceq	0, cr0, [r0, #-92]	; 0xffffffa4
    13e0:	1331011d 	teqne	r1, #1073741831	; 0x40000007
    13e4:	42b80152 	adcsmi	r0, r8, #-2147483628	; 0x80000014
    13e8:	1201110b 	andne	r1, r1, #-1073741822	; 0xc0000002
    13ec:	590b5806 	stmdbpl	fp, {r1, r2, fp, ip, lr}
    13f0:	000b570b 	andeq	r5, fp, fp, lsl #14
    13f4:	00340e00 	eorseq	r0, r4, r0, lsl #28
    13f8:	17021331 	smladxne	r2, r1, r3, r1
    13fc:	001742b7 			; <UNDEFINED> instruction: 0x001742b7
    1400:	011d0f00 	tsteq	sp, r0, lsl #30
    1404:	01521331 	cmpeq	r2, r1, lsr r3
    1408:	110b42b8 			; <UNDEFINED> instruction: 0x110b42b8
    140c:	58061201 	stmdapl	r6, {r0, r9, ip}
    1410:	570b590b 	strpl	r5, [fp, -fp, lsl #18]
    1414:	0013010b 	andseq	r0, r3, fp, lsl #2
    1418:	82891000 	addhi	r1, r9, #0, 0
    141c:	01110101 	tsteq	r1, r1, lsl #2
    1420:	00001331 	andeq	r1, r0, r1, lsr r3
    1424:	01828a11 	orreq	r8, r2, r1, lsl sl
    1428:	91180200 	tstls	r8, r0, lsl #4
    142c:	00001842 	andeq	r1, r0, r2, asr #16
    1430:	01828912 	orreq	r8, r2, r2, lsl r9
    1434:	31011100 	mrscc	r1, (UNDEF: 17)
    1438:	13000013 	movwne	r0, #19
    143c:	1331010b 	teqne	r1, #-1073741822	; 0xc0000002
    1440:	00001755 	andeq	r1, r0, r5, asr r7
    1444:	31003414 	tstcc	r0, r4, lsl r4
    1448:	15000013 	strne	r0, [r0, #-19]	; 0xffffffed
    144c:	1755010b 	ldrbne	r0, [r5, -fp, lsl #2]
    1450:	1d160000 	ldcne	0, cr0, [r6, #-0]
    1454:	52133101 	andspl	r3, r3, #1073741824	; 0x40000000
    1458:	0b42b801 	bleq	10af464 <__bss_end__+0x10a4504>
    145c:	0b581755 	bleq	16071b8 <__bss_end__+0x15fc258>
    1460:	0b570b59 	bleq	15c41cc <__bss_end__+0x15b926c>
    1464:	00001301 	andeq	r1, r0, r1, lsl #6
    1468:	3f012e17 	svccc	0x00012e17
    146c:	3a0e0319 	bcc	3820d8 <__bss_end__+0x377178>
    1470:	390b3b0b 	stmdbcc	fp, {r0, r1, r3, r8, r9, fp, ip, sp}
    1474:	2019270b 	andscs	r2, r9, fp, lsl #14
    1478:	0013010b 	andseq	r0, r3, fp, lsl #2
    147c:	00051800 	andeq	r1, r5, r0, lsl #16
    1480:	0b3a0803 	bleq	e83494 <__bss_end__+0xe78534>
    1484:	0b390b3b 	bleq	e44178 <__bss_end__+0xe39218>
    1488:	00001349 	andeq	r1, r0, r9, asr #6
    148c:	03003419 	movweq	r3, #1049	; 0x419
    1490:	3b0b3a08 	blcc	2cfcb8 <__bss_end__+0x2c4d58>
    1494:	490b390b 	stmdbmi	fp, {r0, r1, r3, r8, fp, ip, sp}
    1498:	1a000013 	bne	14ec <__code_start__-0x6b14>
    149c:	0000010b 	andeq	r0, r0, fp, lsl #2
    14a0:	3f012e1b 	svccc	0x00012e1b
    14a4:	3a0e0319 	bcc	382110 <__bss_end__+0x3771b0>
    14a8:	390b3b0b 	stmdbcc	fp, {r0, r1, r3, r8, r9, fp, ip, sp}
    14ac:	4919270b 	ldmdbmi	r9, {r0, r1, r3, r8, r9, sl, sp}
    14b0:	010b2013 	tsteq	fp, r3, lsl r0
    14b4:	1c000013 	stcne	0, cr0, [r0], {19}
    14b8:	193f002e 	ldmdbne	pc!, {r1, r2, r3, r5}	; <UNPREDICTABLE>
    14bc:	0b3a0e03 	bleq	e84cd0 <__bss_end__+0xe79d70>
    14c0:	0b390b3b 	bleq	e441b4 <__bss_end__+0xe39254>
    14c4:	13491927 	movtne	r1, #39207	; 0x9927
    14c8:	00000b20 	andeq	r0, r0, r0, lsr #22
    14cc:	31012e1d 	tstcc	r1, sp, lsl lr
    14d0:	12011113 	andne	r1, r1, #-1073741820	; 0xc0000004
    14d4:	97184006 	ldrls	r4, [r8, -r6]
    14d8:	13011942 	movwne	r1, #6466	; 0x1942
    14dc:	891e0000 	ldmdbhi	lr, {}	; <UNPREDICTABLE>
    14e0:	11010182 	smlabbne	r1, r2, r1, r0
    14e4:	19429501 	stmdbne	r2, {r0, r8, sl, ip, pc}^
    14e8:	00001331 	andeq	r1, r0, r1, lsr r3
    14ec:	3f002e1f 	svccc	0x00002e1f
    14f0:	6e193c19 	mrcvs	12, 0, r3, cr9, cr9, {0}
    14f4:	3a0e030e 	bcc	382134 <__bss_end__+0x3771d4>
    14f8:	390b3b0b 	stmdbcc	fp, {r0, r1, r3, r8, r9, fp, ip, sp}
    14fc:	0000000b 	andeq	r0, r0, fp
    1500:	25011101 	strcs	r1, [r1, #-257]	; 0xfffffeff
    1504:	030b130e 	movweq	r1, #45838	; 0xb30e
    1508:	110e1b0e 	tstne	lr, lr, lsl #22
    150c:	10061201 	andne	r1, r6, r1, lsl #4
    1510:	02000017 	andeq	r0, r0, #23, 0
    1514:	0b0b0024 	bleq	2c15ac <__bss_end__+0x2b664c>
    1518:	08030b3e 	stmdaeq	r3, {r1, r2, r3, r4, r5, r8, r9, fp}
    151c:	24030000 	strcs	r0, [r3], #-0
    1520:	3e0b0b00 	vmlacc.f64	d0, d11, d0
    1524:	000e030b 	andeq	r0, lr, fp, lsl #6
    1528:	00350400 	eorseq	r0, r5, r0, lsl #8
    152c:	00001349 	andeq	r1, r0, r9, asr #6
    1530:	03001605 	movweq	r1, #1541	; 0x605
    1534:	3b0b3a0e 	blcc	2cfd74 <__bss_end__+0x2c4e14>
    1538:	490b390b 	stmdbmi	fp, {r0, r1, r3, r8, fp, ip, sp}
    153c:	06000013 			; <UNDEFINED> instruction: 0x06000013
    1540:	0b3e0104 	bleq	f81958 <__bss_end__+0xf769f8>
    1544:	13490b0b 	movtne	r0, #39691	; 0x9b0b
    1548:	0b3b0b3a 	bleq	ec4238 <__bss_end__+0xeb92d8>
    154c:	13010b39 	movwne	r0, #6969	; 0x1b39
    1550:	28070000 	stmdacs	r7, {}	; <UNPREDICTABLE>
    1554:	1c0e0300 	stcne	3, cr0, [lr], {-0}
    1558:	0800000b 	stmdaeq	r0, {r0, r1, r3}
    155c:	0e030113 	mcreq	1, 0, r0, cr3, cr3, {0}
    1560:	0b3a0b0b 	bleq	e84194 <__bss_end__+0xe79234>
    1564:	0b390b3b 	bleq	e44258 <__bss_end__+0xe392f8>
    1568:	00001301 	andeq	r1, r0, r1, lsl #6
    156c:	03000d09 	movweq	r0, #3337	; 0xd09
    1570:	3b0b3a08 	blcc	2cfd98 <__bss_end__+0x2c4e38>
    1574:	490b390b 	stmdbmi	fp, {r0, r1, r3, r8, fp, ip, sp}
    1578:	000b3813 	andeq	r3, fp, r3, lsl r8
    157c:	000d0a00 	andeq	r0, sp, r0, lsl #20
    1580:	0b3a0e03 	bleq	e84d94 <__bss_end__+0xe79e34>
    1584:	0b390b3b 	bleq	e44278 <__bss_end__+0xe39318>
    1588:	0b381349 	bleq	e062b4 <__bss_end__+0xdfb354>
    158c:	340b0000 	strcc	r0, [fp], #-0
    1590:	3a0e0300 	bcc	382198 <__bss_end__+0x377238>
    1594:	390b3b0b 	stmdbcc	fp, {r0, r1, r3, r8, r9, fp, ip, sp}
    1598:	1c13490b 			; <UNDEFINED> instruction: 0x1c13490b
    159c:	0c000006 	stceq	0, cr0, [r0], {6}
    15a0:	0b0b000f 	bleq	2c15e4 <__bss_end__+0x2b6684>
    15a4:	00001349 	andeq	r1, r0, r9, asr #6
    15a8:	4900260d 	stmdbmi	r0, {r0, r2, r3, r9, sl, sp}
    15ac:	0e000013 	mcreq	0, 0, r0, cr0, cr3, {0}
    15b0:	193f012e 	ldmdbne	pc!, {r1, r2, r3, r5, r8}	; <UNPREDICTABLE>
    15b4:	0b3a0e03 	bleq	e84dc8 <__bss_end__+0xe79e68>
    15b8:	0b390b3b 	bleq	e442ac <__bss_end__+0xe3934c>
    15bc:	01111927 	tsteq	r1, r7, lsr #18
    15c0:	18400612 	stmdane	r0, {r1, r4, r9, sl}^
    15c4:	01194297 			; <UNDEFINED> instruction: 0x01194297
    15c8:	0f000013 	svceq	0x00000013
    15cc:	00018289 	andeq	r8, r1, r9, lsl #5
    15d0:	13310111 	teqne	r1, #1073741828	; 0x40000004
    15d4:	2e100000 	cdpcs	0, 1, cr0, cr0, cr0, {0}
    15d8:	03193f01 	tsteq	r9, #1, 30
    15dc:	3b0b3a0e 	blcc	2cfe1c <__bss_end__+0x2c4ebc>
    15e0:	270b390b 	strcs	r3, [fp, -fp, lsl #18]
    15e4:	11134919 	tstne	r3, r9, lsl r9
    15e8:	40061201 	andmi	r1, r6, r1, lsl #4
    15ec:	19429718 	stmdbne	r2, {r3, r4, r8, r9, sl, ip, pc}^
    15f0:	00001301 	andeq	r1, r0, r1, lsl #6
    15f4:	01828911 	orreq	r8, r2, r1, lsl r9
    15f8:	31011101 	tstcc	r1, r1, lsl #2
    15fc:	12000013 	andne	r0, r0, #19, 0
    1600:	0001828a 	andeq	r8, r1, sl, lsl #5
    1604:	42911802 	addsmi	r1, r1, #131072	; 0x20000
    1608:	13000018 	movwne	r0, #24
    160c:	08030005 	stmdaeq	r3, {r0, r2}
    1610:	0b3b0b3a 	bleq	ec4300 <__bss_end__+0xeb93a0>
    1614:	13490b39 	movtne	r0, #39737	; 0x9b39
    1618:	42b71702 	adcsmi	r1, r7, #524288	; 0x80000
    161c:	14000017 	strne	r0, [r0], #-23	; 0xffffffe9
    1620:	01018289 	smlabbeq	r1, r9, r2, r8
    1624:	13310111 	teqne	r1, #1073741828	; 0x40000004
    1628:	00001301 	andeq	r1, r0, r1, lsl #6
    162c:	03003415 	movweq	r3, #1045	; 0x415
    1630:	3b0b3a08 	blcc	2cfe58 <__bss_end__+0x2c4ef8>
    1634:	490b390b 	stmdbmi	fp, {r0, r1, r3, r8, fp, ip, sp}
    1638:	b7170213 			; <UNDEFINED> instruction: 0xb7170213
    163c:	00001742 	andeq	r1, r0, r2, asr #14
    1640:	03003416 	movweq	r3, #1046	; 0x416
    1644:	3b0b3a0e 	blcc	2cfe84 <__bss_end__+0x2c4f24>
    1648:	490b390b 	stmdbmi	fp, {r0, r1, r3, r8, fp, ip, sp}
    164c:	00051c13 	andeq	r1, r5, r3, lsl ip
    1650:	012e1700 			; <UNDEFINED> instruction: 0x012e1700
    1654:	0b3a0e03 	bleq	e84e68 <__bss_end__+0xe79f08>
    1658:	0b390b3b 	bleq	e4434c <__bss_end__+0xe393ec>
    165c:	01111927 	tsteq	r1, r7, lsr #18
    1660:	18400612 	stmdane	r0, {r1, r4, r9, sl}^
    1664:	01194297 			; <UNDEFINED> instruction: 0x01194297
    1668:	18000013 	stmdane	r0, {r0, r1, r4}
    166c:	0e030005 	cdpeq	0, 0, cr0, cr3, cr5, {0}
    1670:	0b3b0b3a 	bleq	ec4360 <__bss_end__+0xeb9400>
    1674:	13490b39 	movtne	r0, #39737	; 0x9b39
    1678:	42b71702 	adcsmi	r1, r7, #524288	; 0x80000
    167c:	19000017 	stmdbne	r0, {r0, r1, r2, r4}
    1680:	00000035 	andeq	r0, r0, r5, lsr r0
    1684:	3f002e1a 	svccc	0x00002e1a
    1688:	6e193c19 	mrcvs	12, 0, r3, cr9, cr9, {0}
    168c:	3a0e030e 	bcc	3822cc <__bss_end__+0x37736c>
    1690:	390b3b0b 	stmdbcc	fp, {r0, r1, r3, r8, r9, fp, ip, sp}
    1694:	0000000b 	andeq	r0, r0, fp
    1698:	25011101 	strcs	r1, [r1, #-257]	; 0xfffffeff
    169c:	030b130e 	movweq	r1, #45838	; 0xb30e
    16a0:	110e1b0e 	tstne	lr, lr, lsl #22
    16a4:	10061201 	andne	r1, r6, r1, lsl #4
    16a8:	02000017 	andeq	r0, r0, #23, 0
    16ac:	0b0b0024 	bleq	2c1744 <__bss_end__+0x2b67e4>
    16b0:	08030b3e 	stmdaeq	r3, {r1, r2, r3, r4, r5, r8, r9, fp}
    16b4:	24030000 	strcs	r0, [r3], #-0
    16b8:	3e0b0b00 	vmlacc.f64	d0, d11, d0
    16bc:	000e030b 	andeq	r0, lr, fp, lsl #6
    16c0:	00160400 	andseq	r0, r6, r0, lsl #8
    16c4:	0b3a0e03 	bleq	e84ed8 <__bss_end__+0xe79f78>
    16c8:	0b390b3b 	bleq	e443bc <__bss_end__+0xe3945c>
    16cc:	00001349 	andeq	r1, r0, r9, asr #6
    16d0:	49002605 	stmdbmi	r0, {r0, r2, r9, sl, sp}
    16d4:	06000013 			; <UNDEFINED> instruction: 0x06000013
    16d8:	0b0b000f 	bleq	2c171c <__bss_end__+0x2b67bc>
    16dc:	04070000 	streq	r0, [r7], #-0
    16e0:	0b0b3e01 	bleq	2d0eec <__bss_end__+0x2c5f8c>
    16e4:	3a13490b 	bcc	4d3b18 <__bss_end__+0x4c8bb8>
    16e8:	390b3b0b 	stmdbcc	fp, {r0, r1, r3, r8, r9, fp, ip, sp}
    16ec:	0013010b 	andseq	r0, r3, fp, lsl #2
    16f0:	00280800 	eoreq	r0, r8, r0, lsl #16
    16f4:	061c0e03 	ldreq	r0, [ip], -r3, lsl #28
    16f8:	34090000 	strcc	r0, [r9], #-0
    16fc:	3a0e0300 	bcc	382304 <__bss_end__+0x3773a4>
    1700:	390b3b0b 	stmdbcc	fp, {r0, r1, r3, r8, r9, fp, ip, sp}
    1704:	3f13490b 	svccc	0x0013490b
    1708:	00193c19 	andseq	r3, r9, r9, lsl ip
    170c:	00340a00 	eorseq	r0, r4, r0, lsl #20
    1710:	0b3a0e03 	bleq	e84f24 <__bss_end__+0xe79fc4>
    1714:	0b390b3b 	bleq	e44408 <__bss_end__+0xe394a8>
    1718:	18021349 	stmdane	r2, {r0, r3, r6, r8, r9, ip}
    171c:	0f0b0000 	svceq	0x000b0000
    1720:	490b0b00 	stmdbmi	fp, {r8, r9, fp}
    1724:	0c000013 	stceq	0, cr0, [r0], {19}
    1728:	193f012e 	ldmdbne	pc!, {r1, r2, r3, r5, r8}	; <UNPREDICTABLE>
    172c:	0b3a0e03 	bleq	e84f40 <__bss_end__+0xe79fe0>
    1730:	0b390b3b 	bleq	e44424 <__bss_end__+0xe394c4>
    1734:	01111927 	tsteq	r1, r7, lsr #18
    1738:	18400612 	stmdane	r0, {r1, r4, r9, sl}^
    173c:	01194297 			; <UNDEFINED> instruction: 0x01194297
    1740:	0d000013 	stceq	0, cr0, [r0, #-76]	; 0xffffffb4
    1744:	08030005 	stmdaeq	r3, {r0, r2}
    1748:	0b3b0b3a 	bleq	ec4438 <__bss_end__+0xeb94d8>
    174c:	13490b39 	movtne	r0, #39737	; 0x9b39
    1750:	42b71702 	adcsmi	r1, r7, #524288	; 0x80000
    1754:	0e000017 	mcreq	0, 0, r0, cr0, cr7, {0}
    1758:	0e030034 	mcreq	0, 0, r0, cr3, cr4, {1}
    175c:	19341349 	ldmdbne	r4!, {r0, r3, r6, r8, r9, ip}
    1760:	00001802 	andeq	r1, r0, r2, lsl #16
    1764:	0182890f 	orreq	r8, r2, pc, lsl #18
    1768:	31011101 	tstcc	r1, r1, lsl #2
    176c:	00130113 	andseq	r0, r3, r3, lsl r1
    1770:	828a1000 	addhi	r1, sl, #0, 0
    1774:	18020001 	stmdane	r2, {r0}
    1778:	00184291 	mulseq	r8, r1, r2
    177c:	82891100 	addhi	r1, r9, #0
    1780:	01110001 	tsteq	r1, r1
    1784:	00001331 	andeq	r1, r0, r1, lsr r3
    1788:	49010112 	stmdbmi	r1, {r1, r4, r8}
    178c:	00130113 	andseq	r0, r3, r3, lsl r1
    1790:	00211300 	eoreq	r1, r1, r0, lsl #6
    1794:	0b2f1349 	bleq	bc64c0 <__bss_end__+0xbbb560>
    1798:	2e140000 	cdpcs	0, 1, cr0, cr4, cr0, {0}
    179c:	03193f00 	tsteq	r9, #0, 30
    17a0:	3b0b3a0e 	blcc	2cffe0 <__bss_end__+0x2c5080>
    17a4:	270b390b 	strcs	r3, [fp, -fp, lsl #18]
    17a8:	12011119 	andne	r1, r1, #1073741830	; 0x40000006
    17ac:	97184006 	ldrls	r4, [r8, -r6]
    17b0:	00001942 	andeq	r1, r0, r2, asr #18
    17b4:	03000515 	movweq	r0, #1301	; 0x515
    17b8:	3b0b3a08 	blcc	2cffe0 <__bss_end__+0x2c5080>
    17bc:	490b390b 	stmdbmi	fp, {r0, r1, r3, r8, fp, ip, sp}
    17c0:	00180213 	andseq	r0, r8, r3, lsl r2
    17c4:	012e1600 			; <UNDEFINED> instruction: 0x012e1600
    17c8:	0e03193f 			; <UNDEFINED> instruction: 0x0e03193f
    17cc:	0b3b0b3a 	bleq	ec44bc <__bss_end__+0xeb955c>
    17d0:	19270b39 	stmdbne	r7!, {r0, r3, r4, r5, r8, r9, fp}
    17d4:	01111349 	tsteq	r1, r9, asr #6
    17d8:	18400612 	stmdane	r0, {r1, r4, r9, sl}^
    17dc:	01194297 			; <UNDEFINED> instruction: 0x01194297
    17e0:	17000013 	smladne	r0, r3, r0, r0
    17e4:	0e030005 	cdpeq	0, 0, cr0, cr3, cr5, {0}
    17e8:	0b3b0b3a 	bleq	ec44d8 <__bss_end__+0xeb9578>
    17ec:	13490b39 	movtne	r0, #39737	; 0x9b39
    17f0:	42b71702 	adcsmi	r1, r7, #524288	; 0x80000
    17f4:	18000017 	stmdane	r0, {r0, r1, r2, r4}
    17f8:	08030034 	stmdaeq	r3, {r2, r4, r5}
    17fc:	0b3b0b3a 	bleq	ec44ec <__bss_end__+0xeb958c>
    1800:	13490b39 	movtne	r0, #39737	; 0x9b39
    1804:	42b71702 	adcsmi	r1, r7, #524288	; 0x80000
    1808:	19000017 	stmdbne	r0, {r0, r1, r2, r4}
    180c:	1331011d 	teqne	r1, #1073741831	; 0x40000007
    1810:	42b80152 	adcsmi	r0, r8, #-2147483628	; 0x80000014
    1814:	1201110b 	andne	r1, r1, #-1073741822	; 0xc0000002
    1818:	590b5806 	stmdbpl	fp, {r1, r2, fp, ip, lr}
    181c:	010b570b 	tsteq	fp, fp, lsl #14
    1820:	1a000013 	bne	1874 <__code_start__-0x678c>
    1824:	13310005 	teqne	r1, #5, 0
    1828:	42b71702 	adcsmi	r1, r7, #524288	; 0x80000
    182c:	1b000017 	blne	1890 <__code_start__-0x6770>
    1830:	1331011d 	teqne	r1, #1073741831	; 0x40000007
    1834:	42b80152 	adcsmi	r0, r8, #-2147483628	; 0x80000014
    1838:	5817550b 	ldmdapl	r7, {r0, r1, r3, r8, sl, ip, lr}
    183c:	570b590b 	strpl	r5, [fp, -fp, lsl #18]
    1840:	0013010b 	andseq	r0, r3, fp, lsl #2
    1844:	010b1c00 	tsteq	fp, r0, lsl #24
    1848:	00001755 	andeq	r1, r0, r5, asr r7
    184c:	0300341d 	movweq	r3, #1053	; 0x41d
    1850:	3b0b3a0e 	blcc	2d0090 <__bss_end__+0x2c5130>
    1854:	490b390b 	stmdbmi	fp, {r0, r1, r3, r8, fp, ip, sp}
    1858:	b7170213 			; <UNDEFINED> instruction: 0xb7170213
    185c:	00001742 	andeq	r1, r0, r2, asr #14
    1860:	55000b1e 	strpl	r0, [r0, #-2846]	; 0xfffff4e2
    1864:	1f000017 	svcne	0x00000017
    1868:	193f002e 	ldmdbne	pc!, {r1, r2, r3, r5}	; <UNPREDICTABLE>
    186c:	0b3a0e03 	bleq	e85080 <__bss_end__+0xe7a120>
    1870:	0b390b3b 	bleq	e44564 <__bss_end__+0xe39604>
    1874:	13491927 	movtne	r1, #39207	; 0x9927
    1878:	06120111 			; <UNDEFINED> instruction: 0x06120111
    187c:	42971840 	addsmi	r1, r7, #64, 16	; 0x400000
    1880:	20000019 	andcs	r0, r0, r9, lsl r0
    1884:	0e03012e 	adfeqsp	f0, f3, #0.5
    1888:	0b3b0b3a 	bleq	ec4578 <__bss_end__+0xeb9618>
    188c:	19270b39 	stmdbne	r7!, {r0, r3, r4, r5, r8, r9, fp}
    1890:	0b201349 	bleq	8065bc <__bss_end__+0x7fb65c>
    1894:	00001301 	andeq	r1, r0, r1, lsl #6
    1898:	03000521 	movweq	r0, #1313	; 0x521
    189c:	3b0b3a08 	blcc	2d00c4 <__bss_end__+0x2c5164>
    18a0:	490b390b 	stmdbmi	fp, {r0, r1, r3, r8, fp, ip, sp}
    18a4:	22000013 	andcs	r0, r0, #19, 0
    18a8:	193f002e 	ldmdbne	pc!, {r1, r2, r3, r5}	; <UNPREDICTABLE>
    18ac:	0e6e193c 			; <UNDEFINED> instruction: 0x0e6e193c
    18b0:	0b3a0e03 	bleq	e850c4 <__bss_end__+0xe7a164>
    18b4:	0b390b3b 	bleq	e445a8 <__bss_end__+0xe39648>
    18b8:	01000000 	mrseq	r0, (UNDEF: 0)
    18bc:	0e250111 	mcreq	1, 1, r0, cr5, cr1, {0}
    18c0:	0e030b13 	vmoveq.32	d3[0], r0
    18c4:	01110e1b 	tsteq	r1, fp, lsl lr
    18c8:	17100612 			; <UNDEFINED> instruction: 0x17100612
    18cc:	24020000 	strcs	r0, [r2], #-0
    18d0:	3e0b0b00 	vmlacc.f64	d0, d11, d0
    18d4:	000e030b 	andeq	r0, lr, fp, lsl #6
    18d8:	00240300 	eoreq	r0, r4, r0, lsl #6
    18dc:	0b3e0b0b 	bleq	f84510 <__bss_end__+0xf795b0>
    18e0:	00000803 	andeq	r0, r0, r3, lsl #16
    18e4:	49002604 	stmdbmi	r0, {r2, r9, sl, sp}
    18e8:	05000013 	streq	r0, [r0, #-19]	; 0xffffffed
    18ec:	0e030016 	mcreq	0, 0, r0, cr3, cr6, {0}
    18f0:	0b3b0b3a 	bleq	ec45e0 <__bss_end__+0xeb9680>
    18f4:	13490b39 	movtne	r0, #39737	; 0x9b39
    18f8:	15060000 	strne	r0, [r6, #-0]
    18fc:	49192701 	ldmdbmi	r9, {r0, r8, r9, sl, sp}
    1900:	00130113 	andseq	r0, r3, r3, lsl r1
    1904:	00050700 	andeq	r0, r5, r0, lsl #14
    1908:	00001349 	andeq	r1, r0, r9, asr #6
    190c:	03003408 	movweq	r3, #1032	; 0x408
    1910:	3b0b3a0e 	blcc	2d0150 <__bss_end__+0x2c51f0>
    1914:	490b390b 	stmdbmi	fp, {r0, r1, r3, r8, fp, ip, sp}
    1918:	3c193f13 	ldccc	15, cr3, [r9], {19}
    191c:	09000019 	stmdbeq	r0, {r0, r3, r4}
    1920:	0b0b000f 	bleq	2c1964 <__bss_end__+0x2b6a04>
    1924:	00001349 	andeq	r1, r0, r9, asr #6
    1928:	3e01040a 	cdpcc	4, 0, cr0, cr1, cr10, {0}
    192c:	490b0b0b 	stmdbmi	fp, {r0, r1, r3, r8, r9, fp}
    1930:	3b0b3a13 	blcc	2d0184 <__bss_end__+0x2c5224>
    1934:	010b390b 	tsteq	fp, fp, lsl #18
    1938:	0b000013 	bleq	198c <__code_start__-0x6674>
    193c:	0e030028 	cdpeq	0, 0, cr0, cr3, cr8, {1}
    1940:	00000b1c 	andeq	r0, r0, ip, lsl fp
    1944:	0300340c 	movweq	r3, #1036	; 0x40c
    1948:	3b0b3a0e 	blcc	2d0188 <__bss_end__+0x2c5228>
    194c:	490b390b 	stmdbmi	fp, {r0, r1, r3, r8, fp, ip, sp}
    1950:	00061c13 	andeq	r1, r6, r3, lsl ip
    1954:	012e0d00 			; <UNDEFINED> instruction: 0x012e0d00
    1958:	0e03193f 			; <UNDEFINED> instruction: 0x0e03193f
    195c:	0b3b0b3a 	bleq	ec464c <__bss_end__+0xeb96ec>
    1960:	19270b39 	stmdbne	r7!, {r0, r3, r4, r5, r8, r9, fp}
    1964:	01111349 	tsteq	r1, r9, asr #6
    1968:	18400612 	stmdane	r0, {r1, r4, r9, sl}^
    196c:	01194297 			; <UNDEFINED> instruction: 0x01194297
    1970:	0e000013 	mcreq	0, 0, r0, cr0, cr3, {0}
    1974:	08030005 	stmdaeq	r3, {r0, r2}
    1978:	0b3b0b3a 	bleq	ec4668 <__bss_end__+0xeb9708>
    197c:	13490b39 	movtne	r0, #39737	; 0x9b39
    1980:	42b71702 	adcsmi	r1, r7, #524288	; 0x80000
    1984:	0f000017 	svceq	0x00000017
    1988:	0e030034 	mcreq	0, 0, r0, cr3, cr4, {1}
    198c:	0b3b0b3a 	bleq	ec467c <__bss_end__+0xeb971c>
    1990:	13490b39 	movtne	r0, #39737	; 0x9b39
    1994:	42b71702 	adcsmi	r1, r7, #524288	; 0x80000
    1998:	10000017 	andne	r0, r0, r7, lsl r0
    199c:	08030034 	stmdaeq	r3, {r2, r4, r5}
    19a0:	0b3b0b3a 	bleq	ec4690 <__bss_end__+0xeb9730>
    19a4:	13490b39 	movtne	r0, #39737	; 0x9b39
    19a8:	42b71702 	adcsmi	r1, r7, #524288	; 0x80000
    19ac:	11000017 	tstne	r0, r7, lsl r0
    19b0:	01018289 	smlabbeq	r1, r9, r2, r8
    19b4:	13310111 	teqne	r1, #1073741828	; 0x40000004
    19b8:	8a120000 	bhi	4819c0 <__bss_end__+0x476a60>
    19bc:	02000182 	andeq	r0, r0, #-2147483616	; 0x80000020
    19c0:	18429118 	stmdane	r2, {r3, r4, r8, ip, pc}^
    19c4:	2e130000 	cdpcs	0, 1, cr0, cr3, cr0, {0}
    19c8:	03193f01 	tsteq	r9, #1, 30
    19cc:	3b0b3a0e 	blcc	2d020c <__bss_end__+0x2c52ac>
    19d0:	270b390b 	strcs	r3, [fp, -fp, lsl #18]
    19d4:	12011119 	andne	r1, r1, #1073741830	; 0x40000006
    19d8:	97184006 	ldrls	r4, [r8, -r6]
    19dc:	13011942 	movwne	r1, #6466	; 0x1942
    19e0:	1d140000 	ldcne	0, cr0, [r4, #-0]
    19e4:	52133101 	andspl	r3, r3, #1073741824	; 0x40000000
    19e8:	0b42b801 	bleq	10af9f4 <__bss_end__+0x10a4a94>
    19ec:	0b581755 	bleq	1607748 <__bss_end__+0x15fc7e8>
    19f0:	0b570b59 	bleq	15c475c <__bss_end__+0x15b97fc>
    19f4:	00001301 	andeq	r1, r0, r1, lsl #6
    19f8:	31000515 	tstcc	r0, r5, lsl r5
    19fc:	b7170213 			; <UNDEFINED> instruction: 0xb7170213
    1a00:	00001742 	andeq	r1, r0, r2, asr #14
    1a04:	01828916 	orreq	r8, r2, r6, lsl r9
    1a08:	95011101 	strls	r1, [r1, #-257]	; 0xfffffeff
    1a0c:	13311942 	teqne	r1, #1081344	; 0x108000
    1a10:	1d170000 	ldcne	0, cr0, [r7, #-0]
    1a14:	52133101 	andspl	r3, r3, #1073741824	; 0x40000000
    1a18:	0b42b801 	bleq	10afa24 <__bss_end__+0x10a4ac4>
    1a1c:	06120111 			; <UNDEFINED> instruction: 0x06120111
    1a20:	0b590b58 	bleq	1644788 <__bss_end__+0x1639828>
    1a24:	00000b57 	andeq	r0, r0, r7, asr fp
    1a28:	31011d18 	tstcc	r1, r8, lsl sp
    1a2c:	b8015213 	stmdalt	r1, {r0, r1, r4, r9, ip, lr}
    1a30:	17550b42 	ldrbne	r0, [r5, -r2, asr #22]
    1a34:	0b590b58 	bleq	164479c <__bss_end__+0x163983c>
    1a38:	00000b57 	andeq	r0, r0, r7, asr fp
    1a3c:	31000519 	tstcc	r0, r9, lsl r5
    1a40:	000b1c13 	andeq	r1, fp, r3, lsl ip
    1a44:	010b1a00 	tsteq	fp, r0, lsl #20
    1a48:	00001755 	andeq	r1, r0, r5, asr r7
    1a4c:	3100341b 	tstcc	r0, fp, lsl r4
    1a50:	1c000013 	stcne	0, cr0, [r0], {19}
    1a54:	13310034 	teqne	r1, #52, 0	; 0x34
    1a58:	42b71702 	adcsmi	r1, r7, #524288	; 0x80000
    1a5c:	1d000017 	stcne	0, cr0, [r0, #-92]	; 0xffffffa4
    1a60:	01018289 	smlabbeq	r1, r9, r2, r8
    1a64:	13310111 	teqne	r1, #1073741828	; 0x40000004
    1a68:	00001301 	andeq	r1, r0, r1, lsl #6
    1a6c:	3f012e1e 	svccc	0x00012e1e
    1a70:	3a0e0319 	bcc	3826dc <__bss_end__+0x37777c>
    1a74:	390b3b0b 	stmdbcc	fp, {r0, r1, r3, r8, r9, fp, ip, sp}
    1a78:	2019270b 	andscs	r2, r9, fp, lsl #14
    1a7c:	0013010b 	andseq	r0, r3, fp, lsl #2
    1a80:	00051f00 	andeq	r1, r5, r0, lsl #30
    1a84:	0b3a0803 	bleq	e83a98 <__bss_end__+0xe78b38>
    1a88:	0b390b3b 	bleq	e4477c <__bss_end__+0xe3981c>
    1a8c:	00001349 	andeq	r1, r0, r9, asr #6
    1a90:	03000520 	movweq	r0, #1312	; 0x520
    1a94:	3b0b3a0e 	blcc	2d02d4 <__bss_end__+0x2c5374>
    1a98:	490b390b 	stmdbmi	fp, {r0, r1, r3, r8, fp, ip, sp}
    1a9c:	21000013 	tstcs	r0, r3, lsl r0
    1aa0:	08030034 	stmdaeq	r3, {r2, r4, r5}
    1aa4:	0b3b0b3a 	bleq	ec4794 <__bss_end__+0xeb9834>
    1aa8:	13490b39 	movtne	r0, #39737	; 0x9b39
    1aac:	2e220000 	cdpcs	0, 2, cr0, cr2, cr0, {0}
    1ab0:	3a0e0301 	bcc	3826bc <__bss_end__+0x37775c>
    1ab4:	390b3b0b 	stmdbcc	fp, {r0, r1, r3, r8, r9, fp, ip, sp}
    1ab8:	4919270b 	ldmdbmi	r9, {r0, r1, r3, r8, r9, sl, sp}
    1abc:	010b2013 	tsteq	fp, r3, lsl r0
    1ac0:	23000013 	movwcs	r0, #19
    1ac4:	1331012e 	teqne	r1, #-2147483637	; 0x8000000b
    1ac8:	06120111 			; <UNDEFINED> instruction: 0x06120111
    1acc:	42971840 	addsmi	r1, r7, #64, 16	; 0x400000
    1ad0:	00130119 	andseq	r0, r3, r9, lsl r1
    1ad4:	002e2400 	eoreq	r2, lr, r0, lsl #8
    1ad8:	193c193f 	ldmdbne	ip!, {r0, r1, r2, r3, r4, r5, r8, fp, ip}
    1adc:	0e030e6e 	cdpeq	14, 0, cr0, cr3, cr14, {3}
    1ae0:	0b3b0b3a 	bleq	ec47d0 <__bss_end__+0xeb9870>
    1ae4:	00000b39 	andeq	r0, r0, r9, lsr fp
    1ae8:	01110100 	tsteq	r1, r0, lsl #2
    1aec:	0b130e25 	bleq	4c5388 <__bss_end__+0x4ba428>
    1af0:	0e1b0e03 	cdpeq	14, 1, cr0, cr11, cr3, {0}
    1af4:	06120111 			; <UNDEFINED> instruction: 0x06120111
    1af8:	00001710 	andeq	r1, r0, r0, lsl r7
    1afc:	0b002402 	bleq	ab0c <__FUNCTION__.1+0xc>
    1b00:	030b3e0b 	movweq	r3, #48651	; 0xbe0b
    1b04:	03000008 	movweq	r0, #8
    1b08:	0b0b0024 	bleq	2c1ba0 <__bss_end__+0x2b6c40>
    1b0c:	0e030b3e 	vmoveq.16	d3[0], r0
    1b10:	15040000 	strne	r0, [r4, #-0]
    1b14:	49192701 	ldmdbmi	r9, {r0, r8, r9, sl, sp}
    1b18:	00130113 	andseq	r0, r3, r3, lsl r1
    1b1c:	00050500 	andeq	r0, r5, r0, lsl #10
    1b20:	00001349 	andeq	r1, r0, r9, asr #6
    1b24:	03003406 	movweq	r3, #1030	; 0x406
    1b28:	3b0b3a0e 	blcc	2d0368 <__bss_end__+0x2c5408>
    1b2c:	490b390b 	stmdbmi	fp, {r0, r1, r3, r8, fp, ip, sp}
    1b30:	3c193f13 	ldccc	15, cr3, [r9], {19}
    1b34:	07000019 	smladeq	r0, r9, r0, r0
    1b38:	0b0b000f 	bleq	2c1b7c <__bss_end__+0x2b6c1c>
    1b3c:	00001349 	andeq	r1, r0, r9, asr #6
    1b40:	49002608 	stmdbmi	r0, {r3, r9, sl, sp}
    1b44:	09000013 	stmdbeq	r0, {r0, r1, r4}
    1b48:	13470034 	movtne	r0, #28724	; 0x7034
    1b4c:	0b3b0b3a 	bleq	ec483c <__bss_end__+0xeb98dc>
    1b50:	18020b39 	stmdane	r2, {r0, r3, r4, r5, r8, r9, fp}
    1b54:	2e0a0000 	cdpcs	0, 0, cr0, cr10, cr0, {0}
    1b58:	03193f01 	tsteq	r9, #1, 30
    1b5c:	3b0b3a0e 	blcc	2d039c <__bss_end__+0x2c543c>
    1b60:	270b390b 	strcs	r3, [fp, -fp, lsl #18]
    1b64:	12011119 	andne	r1, r1, #1073741830	; 0x40000006
    1b68:	97184006 	ldrls	r4, [r8, -r6]
    1b6c:	13011942 	movwne	r1, #6466	; 0x1942
    1b70:	050b0000 	streq	r0, [fp, #-0]
    1b74:	3a080300 	bcc	20277c <__bss_end__+0x1f781c>
    1b78:	390b3b0b 	stmdbcc	fp, {r0, r1, r3, r8, r9, fp, ip, sp}
    1b7c:	0213490b 	andseq	r4, r3, #180224	; 0x2c000
    1b80:	0c000018 	stceq	0, cr0, [r0], {24}
    1b84:	193f002e 	ldmdbne	pc!, {r1, r2, r3, r5}	; <UNPREDICTABLE>
    1b88:	0b3a0e03 	bleq	e8539c <__bss_end__+0xe7a43c>
    1b8c:	0b390b3b 	bleq	e44880 <__bss_end__+0xe39920>
    1b90:	01111927 	tsteq	r1, r7, lsr #18
    1b94:	18400612 	stmdane	r0, {r1, r4, r9, sl}^
    1b98:	00194297 	mulseq	r9, r7, r2
    1b9c:	012e0d00 			; <UNDEFINED> instruction: 0x012e0d00
    1ba0:	0b3a0e03 	bleq	e853b4 <__bss_end__+0xe7a454>
    1ba4:	0b390b3b 	bleq	e44898 <__bss_end__+0xe39938>
    1ba8:	13491927 	movtne	r1, #39207	; 0x9927
    1bac:	06120111 			; <UNDEFINED> instruction: 0x06120111
    1bb0:	42971840 	addsmi	r1, r7, #64, 16	; 0x400000
    1bb4:	00130119 	andseq	r0, r3, r9, lsl r1
    1bb8:	00050e00 	andeq	r0, r5, r0, lsl #28
    1bbc:	0b3a0803 	bleq	e83bd0 <__bss_end__+0xe78c70>
    1bc0:	0b390b3b 	bleq	e448b4 <__bss_end__+0xe39954>
    1bc4:	17021349 	strne	r1, [r2, -r9, asr #6]
    1bc8:	001742b7 			; <UNDEFINED> instruction: 0x001742b7
    1bcc:	82890f00 	addhi	r0, r9, #0, 30
    1bd0:	01110101 	tsteq	r1, r1, lsl #2
    1bd4:	00001331 	andeq	r1, r0, r1, lsr r3
    1bd8:	01828a10 	orreq	r8, r2, r0, lsl sl
    1bdc:	91180200 	tstls	r8, r0, lsl #4
    1be0:	00001842 	andeq	r1, r0, r2, asr #16
    1be4:	3f002e11 	svccc	0x00002e11
    1be8:	6e193c19 	mrcvs	12, 0, r3, cr9, cr9, {0}
    1bec:	3a0e030e 	bcc	38282c <__bss_end__+0x3778cc>
    1bf0:	390b3b0b 	stmdbcc	fp, {r0, r1, r3, r8, r9, fp, ip, sp}
    1bf4:	0000000b 	andeq	r0, r0, fp
    1bf8:	25011101 	strcs	r1, [r1, #-257]	; 0xfffffeff
    1bfc:	030b130e 	movweq	r1, #45838	; 0xb30e
    1c00:	110e1b0e 	tstne	lr, lr, lsl #22
    1c04:	10061201 	andne	r1, r6, r1, lsl #4
    1c08:	02000017 	andeq	r0, r0, #23, 0
    1c0c:	0b0b0024 	bleq	2c1ca4 <__bss_end__+0x2b6d44>
    1c10:	08030b3e 	stmdaeq	r3, {r1, r2, r3, r4, r5, r8, r9, fp}
    1c14:	24030000 	strcs	r0, [r3], #-0
    1c18:	3e0b0b00 	vmlacc.f64	d0, d11, d0
    1c1c:	000e030b 	andeq	r0, lr, fp, lsl #6
    1c20:	01150400 	tsteq	r5, r0, lsl #8
    1c24:	13491927 	movtne	r1, #39207	; 0x9927
    1c28:	00001301 	andeq	r1, r0, r1, lsl #6
    1c2c:	49000505 	stmdbmi	r0, {r0, r2, r8, sl}
    1c30:	06000013 			; <UNDEFINED> instruction: 0x06000013
    1c34:	0e030034 	mcreq	0, 0, r0, cr3, cr4, {1}
    1c38:	0b3b0b3a 	bleq	ec4928 <__bss_end__+0xeb99c8>
    1c3c:	13490b39 	movtne	r0, #39737	; 0x9b39
    1c40:	193c193f 	ldmdbne	ip!, {r0, r1, r2, r3, r4, r5, r8, fp, ip}
    1c44:	0f070000 	svceq	0x00070000
    1c48:	490b0b00 	stmdbmi	fp, {r8, r9, fp}
    1c4c:	08000013 	stmdaeq	r0, {r0, r1, r4}
    1c50:	13490026 	movtne	r0, #36902	; 0x9026
    1c54:	2e090000 	cdpcs	0, 0, cr0, cr9, cr0, {0}
    1c58:	03193f01 	tsteq	r9, #1, 30
    1c5c:	3b0b3a0e 	blcc	2d049c <__bss_end__+0x2c553c>
    1c60:	270b390b 	strcs	r3, [fp, -fp, lsl #18]
    1c64:	11134919 	tstne	r3, r9, lsl r9
    1c68:	40061201 	andmi	r1, r6, r1, lsl #4
    1c6c:	19429718 	stmdbne	r2, {r3, r4, r8, r9, sl, ip, pc}^
    1c70:	00001301 	andeq	r1, r0, r1, lsl #6
    1c74:	0300050a 	movweq	r0, #1290	; 0x50a
    1c78:	3b0b3a0e 	blcc	2d04b8 <__bss_end__+0x2c5558>
    1c7c:	490b390b 	stmdbmi	fp, {r0, r1, r3, r8, fp, ip, sp}
    1c80:	00180213 	andseq	r0, r8, r3, lsl r2
    1c84:	00050b00 	andeq	r0, r5, r0, lsl #22
    1c88:	0b3a0803 	bleq	e83c9c <__bss_end__+0xe78d3c>
    1c8c:	0b390b3b 	bleq	e44980 <__bss_end__+0xe39a20>
    1c90:	17021349 	strne	r1, [r2, -r9, asr #6]
    1c94:	001742b7 			; <UNDEFINED> instruction: 0x001742b7
    1c98:	00340c00 	eorseq	r0, r4, r0, lsl #24
    1c9c:	0b3a0803 	bleq	e83cb0 <__bss_end__+0xe78d50>
    1ca0:	0b390b3b 	bleq	e44994 <__bss_end__+0xe39a34>
    1ca4:	17021349 	strne	r1, [r2, -r9, asr #6]
    1ca8:	001742b7 			; <UNDEFINED> instruction: 0x001742b7
    1cac:	11010000 	mrsne	r0, (UNDEF: 1)
    1cb0:	130e2501 	movwne	r2, #58625	; 0xe501
    1cb4:	1b0e030b 	blne	3828e8 <__bss_end__+0x377988>
    1cb8:	1201110e 	andne	r1, r1, #-2147483645	; 0x80000003
    1cbc:	00171006 	andseq	r1, r7, r6
    1cc0:	00240200 	eoreq	r0, r4, r0, lsl #4
    1cc4:	0b3e0b0b 	bleq	f848f8 <__bss_end__+0xf79998>
    1cc8:	00000803 	andeq	r0, r0, r3, lsl #16
    1ccc:	0b002403 	bleq	ace0 <buf.3944+0x184>
    1cd0:	030b3e0b 	movweq	r3, #48651	; 0xbe0b
    1cd4:	0400000e 	streq	r0, [r0], #-14
    1cd8:	19270115 	stmdbne	r7!, {r0, r2, r4, r8}
    1cdc:	13011349 	movwne	r1, #4937	; 0x1349
    1ce0:	05050000 	streq	r0, [r5, #-0]
    1ce4:	00134900 	andseq	r4, r3, r0, lsl #18
    1ce8:	00340600 	eorseq	r0, r4, r0, lsl #12
    1cec:	0b3a0e03 	bleq	e85500 <__bss_end__+0xe7a5a0>
    1cf0:	0b390b3b 	bleq	e449e4 <__bss_end__+0xe39a84>
    1cf4:	193f1349 	ldmdbne	pc!, {r0, r3, r6, r8, r9, ip}	; <UNPREDICTABLE>
    1cf8:	0000193c 	andeq	r1, r0, ip, lsr r9
    1cfc:	0b000f07 	bleq	5920 <__code_start__-0x26e0>
    1d00:	0013490b 	andseq	r4, r3, fp, lsl #18
    1d04:	00260800 	eoreq	r0, r6, r0, lsl #16
    1d08:	00001349 	andeq	r1, r0, r9, asr #6
    1d0c:	3f012e09 	svccc	0x00012e09
    1d10:	3a0e0319 	bcc	38297c <__bss_end__+0x377a1c>
    1d14:	390b3b0b 	stmdbcc	fp, {r0, r1, r3, r8, r9, fp, ip, sp}
    1d18:	4919270b 	ldmdbmi	r9, {r0, r1, r3, r8, r9, sl, sp}
    1d1c:	12011113 	andne	r1, r1, #-1073741820	; 0xc0000004
    1d20:	97184006 	ldrls	r4, [r8, -r6]
    1d24:	00001942 	andeq	r1, r0, r2, asr #18
    1d28:	0300050a 	movweq	r0, #1290	; 0x50a
    1d2c:	3b0b3a08 	blcc	2d0554 <__bss_end__+0x2c55f4>
    1d30:	490b390b 	stmdbmi	fp, {r0, r1, r3, r8, fp, ip, sp}
    1d34:	b7170213 			; <UNDEFINED> instruction: 0xb7170213
    1d38:	00001742 	andeq	r1, r0, r2, asr #14
    1d3c:	01110100 	tsteq	r1, r0, lsl #2
    1d40:	0b130e25 	bleq	4c55dc <__bss_end__+0x4ba67c>
    1d44:	0e1b0e03 	cdpeq	14, 1, cr0, cr11, cr3, {0}
    1d48:	06120111 			; <UNDEFINED> instruction: 0x06120111
    1d4c:	00001710 	andeq	r1, r0, r0, lsl r7
    1d50:	0b002402 	bleq	ad60 <buf.3944+0x204>
    1d54:	030b3e0b 	movweq	r3, #48651	; 0xbe0b
    1d58:	03000008 	movweq	r0, #8
    1d5c:	0b0b0024 	bleq	2c1df4 <__bss_end__+0x2b6e94>
    1d60:	0e030b3e 	vmoveq.16	d3[0], r0
    1d64:	15040000 	strne	r0, [r4, #-0]
    1d68:	49192701 	ldmdbmi	r9, {r0, r8, r9, sl, sp}
    1d6c:	00130113 	andseq	r0, r3, r3, lsl r1
    1d70:	00050500 	andeq	r0, r5, r0, lsl #10
    1d74:	00001349 	andeq	r1, r0, r9, asr #6
    1d78:	03003406 	movweq	r3, #1030	; 0x406
    1d7c:	3b0b3a0e 	blcc	2d05bc <__bss_end__+0x2c565c>
    1d80:	490b390b 	stmdbmi	fp, {r0, r1, r3, r8, fp, ip, sp}
    1d84:	3c193f13 	ldccc	15, cr3, [r9], {19}
    1d88:	07000019 	smladeq	r0, r9, r0, r0
    1d8c:	0b0b000f 	bleq	2c1dd0 <__bss_end__+0x2b6e70>
    1d90:	00001349 	andeq	r1, r0, r9, asr #6
    1d94:	49002608 	stmdbmi	r0, {r3, r9, sl, sp}
    1d98:	09000013 	stmdbeq	r0, {r0, r1, r4}
    1d9c:	193f012e 	ldmdbne	pc!, {r1, r2, r3, r5, r8}	; <UNPREDICTABLE>
    1da0:	0b3a0e03 	bleq	e855b4 <__bss_end__+0xe7a654>
    1da4:	0b390b3b 	bleq	e44a98 <__bss_end__+0xe39b38>
    1da8:	13491927 	movtne	r1, #39207	; 0x9927
    1dac:	06120111 			; <UNDEFINED> instruction: 0x06120111
    1db0:	42971840 	addsmi	r1, r7, #64, 16	; 0x400000
    1db4:	00130119 	andseq	r0, r3, r9, lsl r1
    1db8:	00050a00 	andeq	r0, r5, r0, lsl #20
    1dbc:	0b3a0803 	bleq	e83dd0 <__bss_end__+0xe78e70>
    1dc0:	0b390b3b 	bleq	e44ab4 <__bss_end__+0xe39b54>
    1dc4:	18021349 	stmdane	r2, {r0, r3, r6, r8, r9, ip}
    1dc8:	050b0000 	streq	r0, [fp, #-0]
    1dcc:	3a080300 	bcc	2029d4 <__bss_end__+0x1f7a74>
    1dd0:	390b3b0b 	stmdbcc	fp, {r0, r1, r3, r8, r9, fp, ip, sp}
    1dd4:	0213490b 	andseq	r4, r3, #180224	; 0x2c000
    1dd8:	1742b717 	smlaldne	fp, r2, r7, r7
    1ddc:	340c0000 	strcc	r0, [ip], #-0
    1de0:	3a080300 	bcc	2029e8 <__bss_end__+0x1f7a88>
    1de4:	390b3b0b 	stmdbcc	fp, {r0, r1, r3, r8, r9, fp, ip, sp}
    1de8:	0213490b 	andseq	r4, r3, #180224	; 0x2c000
    1dec:	1742b717 	smlaldne	fp, r2, r7, r7
    1df0:	01000000 	mrseq	r0, (UNDEF: 0)
    1df4:	0e250111 	mcreq	1, 1, r0, cr5, cr1, {0}
    1df8:	0e030b13 	vmoveq.32	d3[0], r0
    1dfc:	01110e1b 	tsteq	r1, fp, lsl lr
    1e00:	17100612 			; <UNDEFINED> instruction: 0x17100612
    1e04:	24020000 	strcs	r0, [r2], #-0
    1e08:	3e0b0b00 	vmlacc.f64	d0, d11, d0
    1e0c:	0008030b 	andeq	r0, r8, fp, lsl #6
    1e10:	00160300 	andseq	r0, r6, r0, lsl #6
    1e14:	0b3a0e03 	bleq	e85628 <__bss_end__+0xe7a6c8>
    1e18:	0b390b3b 	bleq	e44b0c <__bss_end__+0xe39bac>
    1e1c:	00001349 	andeq	r1, r0, r9, asr #6
    1e20:	0b002404 	bleq	ae38 <buf.3944+0x2dc>
    1e24:	030b3e0b 	movweq	r3, #48651	; 0xbe0b
    1e28:	0500000e 	streq	r0, [r0, #-14]
    1e2c:	13490026 	movtne	r0, #36902	; 0x9026
    1e30:	15060000 	strne	r0, [r6, #-0]
    1e34:	49192701 	ldmdbmi	r9, {r0, r8, r9, sl, sp}
    1e38:	00130113 	andseq	r0, r3, r3, lsl r1
    1e3c:	00050700 	andeq	r0, r5, r0, lsl #14
    1e40:	00001349 	andeq	r1, r0, r9, asr #6
    1e44:	03003408 	movweq	r3, #1032	; 0x408
    1e48:	3b0b3a0e 	blcc	2d0688 <__bss_end__+0x2c5728>
    1e4c:	490b390b 	stmdbmi	fp, {r0, r1, r3, r8, fp, ip, sp}
    1e50:	3c193f13 	ldccc	15, cr3, [r9], {19}
    1e54:	09000019 	stmdbeq	r0, {r0, r3, r4}
    1e58:	0b0b000f 	bleq	2c1e9c <__bss_end__+0x2b6f3c>
    1e5c:	00001349 	andeq	r1, r0, r9, asr #6
    1e60:	3f012e0a 	svccc	0x00012e0a
    1e64:	3a0e0319 	bcc	382ad0 <__bss_end__+0x377b70>
    1e68:	390b3b0b 	stmdbcc	fp, {r0, r1, r3, r8, r9, fp, ip, sp}
    1e6c:	4919270b 	ldmdbmi	r9, {r0, r1, r3, r8, r9, sl, sp}
    1e70:	12011113 	andne	r1, r1, #-1073741820	; 0xc0000004
    1e74:	97184006 	ldrls	r4, [r8, -r6]
    1e78:	13011942 	movwne	r1, #6466	; 0x1942
    1e7c:	050b0000 	streq	r0, [fp, #-0]
    1e80:	3a080300 	bcc	202a88 <__bss_end__+0x1f7b28>
    1e84:	390b3b0b 	stmdbcc	fp, {r0, r1, r3, r8, r9, fp, ip, sp}
    1e88:	0213490b 	andseq	r4, r3, #180224	; 0x2c000
    1e8c:	1742b717 	smlaldne	fp, r2, r7, r7
    1e90:	340c0000 	strcc	r0, [ip], #-0
    1e94:	3a080300 	bcc	202a9c <__bss_end__+0x1f7b3c>
    1e98:	390b3b0b 	stmdbcc	fp, {r0, r1, r3, r8, r9, fp, ip, sp}
    1e9c:	0213490b 	andseq	r4, r3, #180224	; 0x2c000
    1ea0:	1742b717 	smlaldne	fp, r2, r7, r7
    1ea4:	01000000 	mrseq	r0, (UNDEF: 0)
    1ea8:	0e250111 	mcreq	1, 1, r0, cr5, cr1, {0}
    1eac:	0e030b13 	vmoveq.32	d3[0], r0
    1eb0:	01110e1b 	tsteq	r1, fp, lsl lr
    1eb4:	17100612 			; <UNDEFINED> instruction: 0x17100612
    1eb8:	24020000 	strcs	r0, [r2], #-0
    1ebc:	3e0b0b00 	vmlacc.f64	d0, d11, d0
    1ec0:	0008030b 	andeq	r0, r8, fp, lsl #6
    1ec4:	00240300 	eoreq	r0, r4, r0, lsl #6
    1ec8:	0b3e0b0b 	bleq	f84afc <__bss_end__+0xf79b9c>
    1ecc:	00000e03 	andeq	r0, r0, r3, lsl #28
    1ed0:	27011504 	strcs	r1, [r1, -r4, lsl #10]
    1ed4:	01134919 	tsteq	r3, r9, lsl r9
    1ed8:	05000013 	streq	r0, [r0, #-19]	; 0xffffffed
    1edc:	13490005 	movtne	r0, #36869	; 0x9005
    1ee0:	34060000 	strcc	r0, [r6], #-0
    1ee4:	3a0e0300 	bcc	382aec <__bss_end__+0x377b8c>
    1ee8:	390b3b0b 	stmdbcc	fp, {r0, r1, r3, r8, r9, fp, ip, sp}
    1eec:	3f13490b 	svccc	0x0013490b
    1ef0:	00193c19 	andseq	r3, r9, r9, lsl ip
    1ef4:	000f0700 	andeq	r0, pc, r0, lsl #14
    1ef8:	13490b0b 	movtne	r0, #39691	; 0x9b0b
    1efc:	26080000 	strcs	r0, [r8], -r0
    1f00:	00134900 	andseq	r4, r3, r0, lsl #18
    1f04:	002e0900 	eoreq	r0, lr, r0, lsl #18
    1f08:	0e03193f 			; <UNDEFINED> instruction: 0x0e03193f
    1f0c:	0b3b0b3a 	bleq	ec4bfc <__bss_end__+0xeb9c9c>
    1f10:	19270b39 	stmdbne	r7!, {r0, r3, r4, r5, r8, r9, fp}
    1f14:	06120111 			; <UNDEFINED> instruction: 0x06120111
    1f18:	42971840 	addsmi	r1, r7, #64, 16	; 0x400000
    1f1c:	00000019 	andeq	r0, r0, r9, lsl r0

Disassembly of section .debug_loc:

00000000 <.debug_loc>:
       0:	00000000 	andeq	r0, r0, r0
       4:	000000c0 	andeq	r0, r0, r0, asr #1
       8:	000000c4 	andeq	r0, r0, r4, asr #1
       c:	c4500001 	ldrbgt	r0, [r0], #-1
      10:	00000000 	andeq	r0, r0, r0
      14:	01000001 	tsteq	r0, r1
      18:	00005400 	andeq	r5, r0, r0, lsl #8
      1c:	00000000 	andeq	r0, r0, r0
      20:	00030000 	andeq	r0, r3, r0
      24:	00000098 	muleq	r0, r8, r0
      28:	000000a0 	andeq	r0, r0, r0, lsr #1
      2c:	9f390002 	svcls	0x00390002
	...
      38:	00980003 	addseq	r0, r8, r3
      3c:	00a00000 	adceq	r0, r0, r0
      40:	00060000 	andeq	r0, r6, r0
      44:	000581f2 	strdeq	r8, [r5], -r2
	...
      50:	00030000 	andeq	r0, r3, r0
      54:	00000098 	muleq	r0, r8, r0
      58:	000000a0 	andeq	r0, r0, r0, lsr #1
      5c:	30030006 	andcc	r0, r3, r6
      60:	9f0000a2 	svcls	0x000000a2
	...
      6c:	00c00502 	sbceq	r0, r0, r2, lsl #10
      70:	00c00000 	sbceq	r0, r0, r0
      74:	00010000 	andeq	r0, r1, r0
      78:	00000050 	andeq	r0, r0, r0, asr r0
      7c:	00000000 	andeq	r0, r0, r0
      80:	00000400 	andeq	r0, r0, r0, lsl #8
      84:	c0000000 	andgt	r0, r0, r0
      88:	c4000000 	strgt	r0, [r0], #-0
      8c:	01000000 	mrseq	r0, (UNDEF: 0)
      90:	00c45000 	sbceq	r5, r4, r0
      94:	011c0000 	tsteq	ip, r0
      98:	00010000 	andeq	r0, r1, r0
      9c:	00012054 	andeq	r2, r1, r4, asr r0
      a0:	00015000 	andeq	r5, r1, r0
      a4:	54000100 	strpl	r0, [r0], #-256	; 0xffffff00
	...
      b0:	00e00001 	rsceq	r0, r0, r1
      b4:	00ec0000 	rsceq	r0, ip, r0
      b8:	00020000 	andeq	r0, r2, r0
      bc:	00009f3c 	andeq	r9, r0, ip, lsr pc
      c0:	00000000 	andeq	r0, r0, r0
      c4:	00010000 	andeq	r0, r1, r0
      c8:	000000e0 	andeq	r0, r0, r0, ror #1
      cc:	000000ec 	andeq	r0, r0, ip, ror #1
      d0:	81f20006 	mvnshi	r0, r6
      d4:	00000005 	andeq	r0, r0, r5
	...
      e0:	00e00001 	rsceq	r0, r0, r1
      e4:	00ec0000 	rsceq	r0, ip, r0
      e8:	00060000 	andeq	r0, r6, r0
      ec:	00a23003 	adceq	r3, r2, r3
      f0:	00009f00 	andeq	r9, r0, r0, lsl #30
	...
     100:	00000034 	andeq	r0, r0, r4, lsr r0
     104:	00000038 	andeq	r0, r0, r8, lsr r0
     108:	38500001 	ldmdacc	r0, {r0}^
     10c:	78000000 	stmdavc	r0, {}	; <UNPREDICTABLE>
     110:	01000000 	mrseq	r0, (UNDEF: 0)
     114:	00785400 	rsbseq	r5, r8, r0, lsl #8
     118:	007b0000 	rsbseq	r0, fp, r0
     11c:	00010000 	andeq	r0, r1, r0
     120:	00000050 	andeq	r0, r0, r0, asr r0
     124:	00000000 	andeq	r0, r0, r0
     128:	00000200 	andeq	r0, r0, r0, lsl #4
     12c:	10000000 	andne	r0, r0, r0
     130:	02000000 	andeq	r0, r0, #0, 0
     134:	009f3900 	addseq	r3, pc, r0, lsl #18
     138:	00000000 	andeq	r0, r0, r0
     13c:	02000000 	andeq	r0, r0, #0, 0
     140:	00000000 	andeq	r0, r0, r0
     144:	00001000 	andeq	r1, r0, r0
     148:	f2000600 	vmax.s8	d0, d0, d0
     14c:	00000581 	andeq	r0, r0, r1, lsl #11
	...
     158:	00000200 	andeq	r0, r0, r0, lsl #4
     15c:	10000000 	andne	r0, r0, r0
     160:	06000000 	streq	r0, [r0], -r0
     164:	a2300300 	eorsge	r0, r0, #0, 6
     168:	009f0000 	addseq	r0, pc, r0
     16c:	00000000 	andeq	r0, r0, r0
     170:	02000000 	andeq	r0, r0, #0, 0
     174:	00003405 	andeq	r3, r0, r5, lsl #8
     178:	00003400 	andeq	r3, r0, r0, lsl #8
     17c:	50000100 	andpl	r0, r0, r0, lsl #2
	...
     188:	00000004 	andeq	r0, r0, r4
     18c:	00340000 	eorseq	r0, r4, r0
     190:	00380000 	eorseq	r0, r8, r0
     194:	00010000 	andeq	r0, r1, r0
     198:	00003850 	andeq	r3, r0, r0, asr r8
     19c:	00007800 	andeq	r7, r0, r0, lsl #16
     1a0:	54000100 	strpl	r0, [r0], #-256	; 0xffffff00
     1a4:	00000078 	andeq	r0, r0, r8, ror r0
     1a8:	0000007b 	andeq	r0, r0, fp, ror r0
     1ac:	00500001 	subseq	r0, r0, r1
     1b0:	00000000 	andeq	r0, r0, r0
     1b4:	01000000 	mrseq	r0, (UNDEF: 0)
     1b8:	00005400 	andeq	r5, r0, r0, lsl #8
     1bc:	00006000 	andeq	r6, r0, r0
     1c0:	3c000200 	sfmcc	f0, 4, [r0], {-0}
     1c4:	0000009f 	muleq	r0, pc, r0	; <UNPREDICTABLE>
     1c8:	00000000 	andeq	r0, r0, r0
     1cc:	54000100 	strpl	r0, [r0], #-256	; 0xffffff00
     1d0:	60000000 	andvs	r0, r0, r0
     1d4:	06000000 	streq	r0, [r0], -r0
     1d8:	0581f200 	streq	pc, [r1, #512]	; 0x200
	...
     1e4:	01000000 	mrseq	r0, (UNDEF: 0)
     1e8:	00005400 	andeq	r5, r0, r0, lsl #8
     1ec:	00006000 	andeq	r6, r0, r0
     1f0:	03000600 	movweq	r0, #1536	; 0x600
     1f4:	0000a230 	andeq	sl, r0, r0, lsr r2
     1f8:	0000009f 	muleq	r0, pc, r0	; <UNPREDICTABLE>
	...
     204:	f8000000 			; <UNDEFINED> instruction: 0xf8000000
     208:	08000002 	stmdaeq	r0, {r1}
     20c:	01000003 	tsteq	r0, r3
     210:	03085000 	movweq	r5, #32768	; 0x8000
     214:	03b00000 	movseq	r0, #0, 0
     218:	00010000 	andeq	r0, r1, r0
     21c:	0003b055 	andeq	fp, r3, r5, asr r0
     220:	0003bc00 	andeq	fp, r3, r0, lsl #24
     224:	f3000400 	vshl.u8	d0, d0, d0
     228:	009f5001 	addseq	r5, pc, r1
	...
     238:	00031800 	andeq	r1, r3, r0, lsl #16
     23c:	00032300 	andeq	r2, r3, r0, lsl #6
     240:	50000100 	andpl	r0, r0, r0, lsl #2
     244:	00000323 	andeq	r0, r0, r3, lsr #6
     248:	000003b0 			; <UNDEFINED> instruction: 0x000003b0
     24c:	b0540001 	subslt	r0, r4, r1
     250:	bc000003 	stclt	0, cr0, [r0], {3}
     254:	05000003 	streq	r0, [r0, #-3]
     258:	ab380300 	blge	e00e60 <__bss_end__+0xdf5f00>
	...
     264:	00020000 	andeq	r0, r2, r0
     268:	03240000 			; <UNDEFINED> instruction: 0x03240000
     26c:	03280000 			; <UNDEFINED> instruction: 0x03280000
     270:	00020000 	andeq	r0, r2, r0
     274:	03289f30 			; <UNDEFINED> instruction: 0x03289f30
     278:	03580000 	cmpeq	r8, #0, 0
     27c:	00010000 	andeq	r0, r1, r0
     280:	00000053 	andeq	r0, r0, r3, asr r0
	...
     28c:	00016c00 	andeq	r6, r1, r0, lsl #24
     290:	00017c00 	andeq	r7, r1, r0, lsl #24
     294:	50000100 	andpl	r0, r0, r0, lsl #2
     298:	0000017c 	andeq	r0, r0, ip, ror r1
     29c:	000002f8 	strdeq	r0, [r0], -r8
     2a0:	00550001 	subseq	r0, r5, r1
     2a4:	00000000 	andeq	r0, r0, r0
     2a8:	01000000 	mrseq	r0, (UNDEF: 0)
     2ac:	00000202 	andeq	r0, r0, r2, lsl #4
     2b0:	00000000 	andeq	r0, r0, r0
     2b4:	00018000 	andeq	r8, r1, r0
     2b8:	00018000 	andeq	r8, r1, r0
     2bc:	55000100 	strpl	r0, [r0, #-256]	; 0xffffff00
     2c0:	00000180 	andeq	r0, r0, r0, lsl #3
     2c4:	000001bc 			; <UNDEFINED> instruction: 0x000001bc
     2c8:	d8750004 	ldmdale	r5!, {r2}^
     2cc:	01bc9f7e 			; <UNDEFINED> instruction: 0x01bc9f7e
     2d0:	01f40000 	mvnseq	r0, r0
     2d4:	00010000 	andeq	r0, r1, r0
     2d8:	0001f459 	andeq	pc, r1, r9, asr r4	; <UNPREDICTABLE>
     2dc:	00021800 	andeq	r1, r2, r0, lsl #16
     2e0:	75000400 	strvc	r0, [r0, #-1024]	; 0xfffffc00
     2e4:	189f7ed8 	ldmne	pc, {r3, r4, r6, r7, r9, sl, fp, ip, sp, lr}	; <UNPREDICTABLE>
     2e8:	f8000002 			; <UNDEFINED> instruction: 0xf8000002
     2ec:	01000002 	tsteq	r0, r2
     2f0:	00005900 	andeq	r5, r0, r0, lsl #18
	...
     300:	000001c0 	andeq	r0, r0, r0, asr #3
     304:	000001f4 	strdeq	r0, [r0], -r4
     308:	18540001 	ldmdane	r4, {r0}^
     30c:	30000002 	andcc	r0, r0, r2
     310:	01000002 	tsteq	r0, r2
     314:	02445400 	subeq	r5, r4, #0, 8
     318:	02f80000 	rscseq	r0, r8, #0, 0
     31c:	00010000 	andeq	r0, r1, r0
     320:	00000054 	andeq	r0, r0, r4, asr r0
     324:	00000000 	andeq	r0, r0, r0
     328:	68000000 	stmdavs	r0, {}	; <UNPREDICTABLE>
     32c:	84000002 	strhi	r0, [r0], #-2
     330:	01000002 	tsteq	r0, r2
     334:	00005300 	andeq	r5, r0, r0, lsl #6
	...
     34c:	00000020 	andeq	r0, r0, r0, lsr #32
     350:	00000038 	andeq	r0, r0, r8, lsr r0
     354:	38500001 	ldmdacc	r0, {r0}^
     358:	40000000 	andmi	r0, r0, r0
     35c:	01000000 	mrseq	r0, (UNDEF: 0)
     360:	00405300 	subeq	r5, r0, r0, lsl #6
     364:	00680000 	rsbeq	r0, r8, r0
     368:	00040000 	andeq	r0, r4, r0
     36c:	9f5001f3 	svcls	0x005001f3
     370:	00000068 	andeq	r0, r0, r8, rrx
     374:	00000080 	andeq	r0, r0, r0, lsl #1
     378:	80500001 	subshi	r0, r0, r1
     37c:	88000000 	stmdahi	r0, {}	; <UNPREDICTABLE>
     380:	04000000 	streq	r0, [r0], #-0
     384:	5001f300 	andpl	pc, r1, r0, lsl #6
     388:	0000889f 	muleq	r0, pc, r8	; <UNPREDICTABLE>
     38c:	00009400 	andeq	r9, r0, r0, lsl #8
     390:	53000100 	movwpl	r0, #256	; 0x100
     394:	00000094 	muleq	r0, r4, r0
     398:	000000c4 	andeq	r0, r0, r4, asr #1
     39c:	01f30004 	mvnseq	r0, r4
     3a0:	00009f50 	andeq	r9, r0, r0, asr pc
	...
     3b4:	00200000 	eoreq	r0, r0, r0
     3b8:	00400000 	subeq	r0, r0, r0
     3bc:	00010000 	andeq	r0, r1, r0
     3c0:	00004051 	andeq	r4, r0, r1, asr r0
     3c4:	00006800 	andeq	r6, r0, r0, lsl #16
     3c8:	54000100 	strpl	r0, [r0], #-256	; 0xffffff00
     3cc:	00000068 	andeq	r0, r0, r8, rrx
     3d0:	0000007c 	andeq	r0, r0, ip, ror r0
     3d4:	7c510001 	mrrcvc	0, 0, r0, r1, cr1
     3d8:	88000000 	stmdahi	r0, {}	; <UNPREDICTABLE>
     3dc:	04000000 	streq	r0, [r0], #-0
     3e0:	5101f300 	mrspl	pc, SP_irq	; <UNPREDICTABLE>
     3e4:	0000889f 	muleq	r0, pc, r8	; <UNPREDICTABLE>
     3e8:	00009400 	andeq	r9, r0, r0, lsl #8
     3ec:	51000100 	mrspl	r0, (UNDEF: 16)
     3f0:	00000094 	muleq	r0, r4, r0
     3f4:	000000c4 	andeq	r0, r0, r4, asr #1
     3f8:	00540001 	subseq	r0, r4, r1
	...
     404:	00010000 	andeq	r0, r1, r0
     408:	38000000 	stmdacc	r0, {}	; <UNPREDICTABLE>
     40c:	47000000 	strmi	r0, [r0, -r0]
     410:	01000000 	mrseq	r0, (UNDEF: 0)
     414:	00475000 	subeq	r5, r7, r0
     418:	00600000 	rsbeq	r0, r0, r0
     41c:	00010000 	andeq	r0, r1, r0
     420:	00008855 	andeq	r8, r0, r5, asr r8
     424:	00009400 	andeq	r9, r0, r0, lsl #8
     428:	50000100 	andpl	r0, r0, r0, lsl #2
     42c:	00000094 	muleq	r0, r4, r0
     430:	000000c4 	andeq	r0, r0, r4, asr #1
     434:	00550001 	subseq	r0, r5, r1
	...
     440:	48000001 	stmdami	r0, {r0}
     444:	60000000 	andvs	r0, r0, r0
     448:	01000000 	mrseq	r0, (UNDEF: 0)
     44c:	00945000 	addseq	r5, r4, r0
     450:	00a80000 	adceq	r0, r8, r0
     454:	00010000 	andeq	r0, r1, r0
     458:	00000050 	andeq	r0, r0, r0, asr r0
	...
     464:	00011400 	andeq	r1, r1, r0, lsl #8
     468:	00011f00 	andeq	r1, r1, r0, lsl #30
     46c:	50000100 	andpl	r0, r0, r0, lsl #2
     470:	0000011f 	andeq	r0, r0, pc, lsl r1
     474:	0000016c 	andeq	r0, r0, ip, ror #2
     478:	00550001 	subseq	r0, r5, r1
	...
     488:	24000000 	strcs	r0, [r0], #-0
     48c:	37000001 	strcc	r0, [r0, -r1]
     490:	01000001 	tsteq	r0, r1
     494:	01375000 	teqeq	r7, r0
     498:	014c0000 	mrseq	r0, (UNDEF: 76)
     49c:	00010000 	andeq	r0, r1, r0
     4a0:	00014c54 	andeq	r4, r1, r4, asr ip
     4a4:	00015000 	andeq	r5, r1, r0
     4a8:	50000100 	andpl	r0, r0, r0, lsl #2
     4ac:	00000150 	andeq	r0, r0, r0, asr r1
     4b0:	0000016c 	andeq	r0, r0, ip, ror #2
     4b4:	00540001 	subseq	r0, r4, r1
	...
     4c0:	e4000000 	str	r0, [r0], #-0
     4c4:	f3000000 	vhadd.u8	d0, d0, d0
     4c8:	01000000 	mrseq	r0, (UNDEF: 0)
     4cc:	00f35000 	rscseq	r5, r3, r0
     4d0:	01140000 	tsteq	r4, r0
     4d4:	00010000 	andeq	r0, r1, r0
     4d8:	00000056 	andeq	r0, r0, r6, asr r0
	...
     4e4:	0000e400 	andeq	lr, r0, r0, lsl #8
     4e8:	0000f300 	andeq	pc, r0, r0, lsl #6
     4ec:	51000100 	mrspl	r0, (UNDEF: 16)
     4f0:	000000f3 	strdeq	r0, [r0], -r3
     4f4:	00000114 	andeq	r0, r0, r4, lsl r1
     4f8:	00540001 	subseq	r0, r4, r1
	...
     504:	f8000000 			; <UNDEFINED> instruction: 0xf8000000
     508:	fc000000 	stc2	0, cr0, [r0], {-0}
     50c:	01000000 	mrseq	r0, (UNDEF: 0)
     510:	00fc5000 	rscseq	r5, ip, r0
     514:	01140000 	tsteq	r4, r0
     518:	00010000 	andeq	r0, r1, r0
     51c:	00000055 	andeq	r0, r0, r5, asr r0
	...
     528:	0c000001 	stceq	0, cr0, [r0], {1}
     52c:	01000001 	tsteq	r0, r1
     530:	00005000 	andeq	r5, r0, r0
	...
     53c:	00cc0000 	sbceq	r0, ip, r0
     540:	00d70000 	sbcseq	r0, r7, r0
     544:	00010000 	andeq	r0, r1, r0
     548:	0000d750 	andeq	sp, r0, r0, asr r7
     54c:	0000e400 	andeq	lr, r0, r0, lsl #8
     550:	54000100 	strpl	r0, [r0], #-256	; 0xffffff00
	...
     55c:	00d80000 	sbcseq	r0, r8, r0
     560:	00dc0000 	sbcseq	r0, ip, r0
     564:	00010000 	andeq	r0, r1, r0
     568:	00000054 	andeq	r0, r0, r4, asr r0
	...
     574:	0000c400 	andeq	ip, r0, r0, lsl #8
     578:	0000c800 	andeq	ip, r0, r0, lsl #16
     57c:	50000100 	andpl	r0, r0, r0, lsl #2
     580:	000000c8 	andeq	r0, r0, r8, asr #1
     584:	000000cc 	andeq	r0, r0, ip, asr #1
     588:	d8700004 	ldmdale	r0!, {r2}^
     58c:	00009f7e 	andeq	r9, r0, lr, ror pc
	...
     598:	00100000 	andseq	r0, r0, r0
     59c:	001c0000 	andseq	r0, ip, r0
     5a0:	00010000 	andeq	r0, r1, r0
     5a4:	00001c50 	andeq	r1, r0, r0, asr ip
     5a8:	00002000 	andeq	r2, r0, r0
     5ac:	f3000400 	vshl.u8	d0, d0, d0
     5b0:	009f5001 	addseq	r5, pc, r1
	...
     5c4:	00006c00 	andeq	r6, r0, r0, lsl #24
     5c8:	50000100 	andpl	r0, r0, r0, lsl #2
     5cc:	0000006c 	andeq	r0, r0, ip, rrx
     5d0:	00000074 	andeq	r0, r0, r4, ror r0
     5d4:	08710003 	ldmdaeq	r1!, {r0, r1}^
     5d8:	0000749f 	muleq	r0, pc, r4	; <UNPREDICTABLE>
     5dc:	00008800 	andeq	r8, r0, r0, lsl #16
     5e0:	f3000400 	vshl.u8	d0, d0, d0
     5e4:	009f5001 	addseq	r5, pc, r1
	...
     5f0:	0c000000 	stceq	0, cr0, [r0], {-0}
     5f4:	74000000 	strvc	r0, [r0], #-0
     5f8:	01000000 	mrseq	r0, (UNDEF: 0)
     5fc:	00745100 	rsbseq	r5, r4, r0, lsl #2
     600:	00880000 	addeq	r0, r8, r0
     604:	00060000 	andeq	r0, r6, r0
     608:	385001f3 	ldmdacc	r0, {r0, r1, r4, r5, r6, r7, r8}^
     60c:	00009f1c 	andeq	r9, r0, ip, lsl pc
	...
     618:	00000010 	andeq	r0, r0, r0, lsl r0
     61c:	00000088 	andeq	r0, r0, r8, lsl #1
     620:	00530001 	subseq	r0, r3, r1
	...
     630:	88000000 	stmdahi	r0, {}	; <UNPREDICTABLE>
     634:	ac000000 	stcge	0, cr0, [r0], {-0}
     638:	01000000 	mrseq	r0, (UNDEF: 0)
     63c:	00ac5000 	adceq	r5, ip, r0
     640:	015c0000 	cmpeq	ip, r0
     644:	00040000 	andeq	r0, r4, r0
     648:	9f5001f3 	svcls	0x005001f3
     64c:	0000015c 	andeq	r0, r0, ip, asr r1
     650:	00000168 	andeq	r0, r0, r8, ror #2
     654:	68500001 	ldmdavs	r0, {r0}^
     658:	88000001 	stmdahi	r0, {r0}
     65c:	04000001 	streq	r0, [r0], #-1
     660:	5001f300 	andpl	pc, r1, r0, lsl #6
     664:	0000009f 	muleq	r0, pc, r0	; <UNPREDICTABLE>
	...
     674:	01010101 	tsteq	r1, r1, lsl #2
     678:	00000200 	andeq	r0, r0, r0, lsl #4
     67c:	0000ac00 	andeq	sl, r0, r0, lsl #24
     680:	0000b800 	andeq	fp, r0, r0, lsl #16
     684:	50000100 	andpl	r0, r0, r0, lsl #2
     688:	000000c4 	andeq	r0, r0, r4, asr #1
     68c:	000000c8 	andeq	r0, r0, r8, asr #1
     690:	c8530001 	ldmdagt	r3, {r0}^
     694:	d4000000 	strle	r0, [r0], #-0
     698:	01000000 	mrseq	r0, (UNDEF: 0)
     69c:	01105000 	tsteq	r0, r0
     6a0:	01200000 			; <UNDEFINED> instruction: 0x01200000
     6a4:	00010000 	andeq	r0, r1, r0
     6a8:	00012053 	andeq	r2, r1, r3, asr r0
     6ac:	00013c00 	andeq	r3, r1, r0, lsl #24
     6b0:	50000100 	andpl	r0, r0, r0, lsl #2
     6b4:	0000013c 	andeq	r0, r0, ip, lsr r1
     6b8:	00000140 	andeq	r0, r0, r0, asr #2
     6bc:	00720008 	rsbseq	r0, r2, r8
     6c0:	00702433 	rsbseq	r2, r0, r3, lsr r4
     6c4:	01749f22 	cmneq	r4, r2, lsr #30
     6c8:	01780000 	cmneq	r8, r0
     6cc:	00060000 	andeq	r0, r6, r0
     6d0:	00ab4803 	adceq	r4, fp, r3, lsl #16
     6d4:	01789f00 	cmneq	r8, r0, lsl #30
     6d8:	01880000 	orreq	r0, r8, r0
     6dc:	00010000 	andeq	r0, r1, r0
     6e0:	00000050 	andeq	r0, r0, r0, asr r0
     6e4:	00000000 	andeq	r0, r0, r0
     6e8:	02000100 	andeq	r0, r0, #0
     6ec:	00000100 	andeq	r0, r0, r0, lsl #2
     6f0:	00000101 	andeq	r0, r0, r1, lsl #2
     6f4:	0000a400 	andeq	sl, r0, r0, lsl #8
     6f8:	0000b800 	andeq	fp, r0, r0, lsl #16
     6fc:	51000100 	mrspl	r0, (UNDEF: 16)
     700:	000000c4 	andeq	r0, r0, r4, asr #1
     704:	000000d4 	ldrdeq	r0, [r0], -r4
     708:	20530001 	subscs	r0, r3, r1
     70c:	2c000001 	stccs	0, cr0, [r0], {1}
     710:	01000001 	tsteq	r0, r1
     714:	015c5300 	cmpeq	ip, r0, lsl #6
     718:	015c0000 	cmpeq	ip, r0
     71c:	00010000 	andeq	r0, r1, r0
     720:	00015c51 	andeq	r5, r1, r1, asr ip
     724:	00017800 	andeq	r7, r1, r0, lsl #16
     728:	03000600 	movweq	r0, #1536	; 0x600
     72c:	0000ab48 	andeq	sl, r0, r8, asr #22
     730:	0001789f 	muleq	r1, pc, r8	; <UNPREDICTABLE>
     734:	00018800 	andeq	r8, r1, r0, lsl #16
     738:	51000100 	mrspl	r0, (UNDEF: 16)
	...
     744:	00a40000 	adceq	r0, r4, r0
     748:	01880000 	orreq	r0, r8, r0
     74c:	00010000 	andeq	r0, r1, r0
     750:	00000054 	andeq	r0, r0, r4, asr r0
     754:	00000000 	andeq	r0, r0, r0
     758:	e0000200 	and	r0, r0, r0, lsl #4
     75c:	10000000 	andne	r0, r0, r0
     760:	04000001 	streq	r0, [r0], #-1
     764:	80000a00 	andhi	r0, r0, r0, lsl #20
     768:	0000009f 	muleq	r0, pc, r0	; <UNPREDICTABLE>
	...
     774:	0000f800 	andeq	pc, r0, r0, lsl #16
     778:	00010000 	andeq	r0, r1, r0
     77c:	50000100 	andpl	r0, r0, r0, lsl #2
     780:	00000100 	andeq	r0, r0, r0, lsl #2
     784:	0000010b 	andeq	r0, r0, fp, lsl #2
     788:	00530001 	subseq	r0, r3, r1
     78c:	00000000 	andeq	r0, r0, r0
     790:	01000000 	mrseq	r0, (UNDEF: 0)
     794:	f8000000 			; <UNDEFINED> instruction: 0xf8000000
     798:	00000000 	andeq	r0, r0, r0
     79c:	01000001 	tsteq	r0, r1
     7a0:	01005000 	mrseq	r5, (UNDEF: 0)
     7a4:	010b0000 	mrseq	r0, (UNDEF: 11)
     7a8:	00010000 	andeq	r0, r1, r0
     7ac:	00000053 	andeq	r0, r0, r3, asr r0
     7b0:	00000000 	andeq	r0, r0, r0
     7b4:	d0000200 	andle	r0, r0, r0, lsl #4
     7b8:	dc000004 	stcle	0, cr0, [r0], {4}
     7bc:	01000004 	tsteq	r0, r4
     7c0:	00005500 	andeq	r5, r0, r0, lsl #10
     7c4:	00000000 	andeq	r0, r0, r0
     7c8:	00030000 	andeq	r0, r3, r0
     7cc:	00000000 	andeq	r0, r0, r0
     7d0:	04640000 	strbteq	r0, [r4], #-0
     7d4:	049c0000 	ldreq	r0, [ip], #0
     7d8:	00020000 	andeq	r0, r2, r0
     7dc:	049c9f30 	ldreq	r9, [ip], #3888	; 0xf30
     7e0:	04bc0000 	ldrteq	r0, [ip], #0
     7e4:	00010000 	andeq	r0, r1, r0
     7e8:	0004dc56 	andeq	sp, r4, r6, asr ip
     7ec:	00052c00 	andeq	r2, r5, r0, lsl #24
     7f0:	56000100 	strpl	r0, [r0], -r0, lsl #2
     7f4:	0000052c 	andeq	r0, r0, ip, lsr #10
     7f8:	00000558 	andeq	r0, r0, r8, asr r5
     7fc:	9f300002 	svcls	0x00300002
	...
     808:	00000003 	andeq	r0, r0, r3
     80c:	00000000 	andeq	r0, r0, r0
     810:	00000464 	andeq	r0, r0, r4, ror #8
     814:	0000049c 	muleq	r0, ip, r4
     818:	9f300002 	svcls	0x00300002
     81c:	0000049c 	muleq	r0, ip, r4
     820:	000004bc 			; <UNDEFINED> instruction: 0x000004bc
     824:	dc570001 	mrrcle	0, 0, r0, r7, cr1
     828:	2c000004 	stccs	0, cr0, [r0], {4}
     82c:	01000005 	tsteq	r0, r5
     830:	052c5700 	streq	r5, [ip, #-1792]!	; 0xfffff900
     834:	05580000 	ldrbeq	r0, [r8, #-0]
     838:	00020000 	andeq	r0, r2, r0
     83c:	00009f30 	andeq	r9, r0, r0, lsr pc
     840:	00000000 	andeq	r0, r0, r0
     844:	00030000 	andeq	r0, r3, r0
     848:	00000000 	andeq	r0, r0, r0
     84c:	00000001 	andeq	r0, r0, r1
     850:	00000464 	andeq	r0, r0, r4, ror #8
     854:	0000049c 	muleq	r0, ip, r4
     858:	9f300002 	svcls	0x00300002
     85c:	0000049c 	muleq	r0, ip, r4
     860:	000004bc 			; <UNDEFINED> instruction: 0x000004bc
     864:	dc550001 	mrrcle	0, 0, r0, r5, cr1
     868:	04000004 	streq	r0, [r0], #-4
     86c:	01000005 	tsteq	r0, r5
     870:	05245500 	streq	r5, [r4, #-1280]!	; 0xfffffb00
     874:	052c0000 	streq	r0, [ip, #-0]!
     878:	00010000 	andeq	r0, r1, r0
     87c:	00052c55 	andeq	r2, r5, r5, asr ip
     880:	00055800 	andeq	r5, r5, r0, lsl #16
     884:	30000200 	andcc	r0, r0, r0, lsl #4
     888:	0000009f 	muleq	r0, pc, r0	; <UNPREDICTABLE>
	...
     898:	07070000 	streq	r0, [r7, -r0]
     89c:	00047c00 	andeq	r7, r4, r0, lsl #24
     8a0:	00049c00 	andeq	r9, r4, r0, lsl #24
     8a4:	50000100 	andpl	r0, r0, r0, lsl #2
     8a8:	0000049c 	muleq	r0, ip, r4
     8ac:	000004b4 			; <UNDEFINED> instruction: 0x000004b4
     8b0:	b4540001 	ldrblt	r0, [r4], #-1
     8b4:	bc000004 	stclt	0, cr0, [r0], {4}
     8b8:	01000004 	tsteq	r0, r4
     8bc:	04dc5000 	ldrbeq	r5, [ip], #0
     8c0:	05200000 	streq	r0, [r0, #-0]!
     8c4:	00010000 	andeq	r0, r1, r0
     8c8:	00052054 	andeq	r2, r5, r4, asr r0
     8cc:	00052400 	andeq	r2, r5, r0, lsl #8
     8d0:	7b000400 	blvc	18d8 <__code_start__-0x6728>
     8d4:	249f7ed8 	ldrcs	r7, [pc], #3800	; 8dc <__code_start__-0x7724>
     8d8:	58000005 	stmdapl	r0, {r0, r2}
     8dc:	01000005 	tsteq	r0, r5
     8e0:	00005000 	andeq	r5, r0, r0
     8e4:	00000000 	andeq	r0, r0, r0
     8e8:	04020000 	streq	r0, [r2], #-0
     8ec:	00000524 	andeq	r0, r0, r4, lsr #10
     8f0:	00000524 	andeq	r0, r0, r4, lsr #10
     8f4:	010a0004 	tsteq	sl, r4
     8f8:	00009f01 	andeq	r9, r0, r1, lsl #30
     8fc:	00000000 	andeq	r0, r0, r0
     900:	04020000 	streq	r0, [r2], #-0
     904:	00000524 	andeq	r0, r0, r4, lsr #10
     908:	00000524 	andeq	r0, r0, r4, lsr #10
     90c:	98f20006 	ldmls	r2!, {r1, r2}^
     910:	0000001e 	andeq	r0, r0, lr, lsl r0
	...
     91c:	05240402 	streq	r0, [r4, #-1026]!	; 0xfffffbfe
     920:	05240000 	streq	r0, [r4, #-0]!
     924:	00060000 	andeq	r0, r6, r0
     928:	00a45003 	adceq	r5, r4, r3
     92c:	00009f00 	andeq	r9, r0, r0, lsl #30
	...
     93c:	00000414 	andeq	r0, r0, r4, lsl r4
     940:	00000424 	andeq	r0, r0, r4, lsr #8
     944:	24500001 	ldrbcs	r0, [r0], #-1
     948:	27000004 	strcs	r0, [r0, -r4]
     94c:	01000004 	tsteq	r0, r4
     950:	04275100 	strteq	r5, [r7], #-256	; 0xffffff00
     954:	04580000 	ldrbeq	r0, [r8], #-0
     958:	00010000 	andeq	r0, r1, r0
     95c:	00000054 	andeq	r0, r0, r4, asr r0
     960:	00000000 	andeq	r0, r0, r0
     964:	0c000200 	sfmeq	f0, 4, [r0], {-0}
     968:	14000004 	strne	r0, [r0], #-4
     96c:	02000004 	andeq	r0, r0, #4, 0
     970:	009f3100 	addseq	r3, pc, r0, lsl #2
     974:	00000000 	andeq	r0, r0, r0
     978:	02000000 	andeq	r0, r0, #0, 0
     97c:	0003c400 	andeq	ip, r3, r0, lsl #8
     980:	0003cc00 	andeq	ip, r3, r0, lsl #24
     984:	31000200 	mrscc	r0, R8_usr
     988:	0000009f 	muleq	r0, pc, r0	; <UNPREDICTABLE>
	...
     994:	00020000 	andeq	r0, r2, r0
     998:	00020c00 	andeq	r0, r2, r0, lsl #24
     99c:	50000100 	andpl	r0, r0, r0, lsl #2
     9a0:	0000020c 	andeq	r0, r0, ip, lsl #4
     9a4:	00000320 	andeq	r0, r0, r0, lsr #6
     9a8:	00580001 	subseq	r0, r8, r1
     9ac:	00000000 	andeq	r0, r0, r0
     9b0:	02000000 	andeq	r0, r0, #0, 0
     9b4:	00000000 	andeq	r0, r0, r0
     9b8:	00020000 	andeq	r0, r2, r0
     9bc:	40000002 	andmi	r0, r0, r2
     9c0:	02000002 	andeq	r0, r0, #2, 0
     9c4:	409f3000 	addsmi	r3, pc, r0
     9c8:	b0000002 	andlt	r0, r0, r2
     9cc:	01000002 	tsteq	r0, r2
     9d0:	02c85500 	sbceq	r5, r8, #0, 10
     9d4:	02e00000 	rsceq	r0, r0, #0, 0
     9d8:	00010000 	andeq	r0, r1, r0
     9dc:	0002e055 	andeq	lr, r2, r5, asr r0
     9e0:	0002ec00 	andeq	lr, r2, r0, lsl #24
     9e4:	30000200 	andcc	r0, r0, r0, lsl #4
     9e8:	0000009f 	muleq	r0, pc, r0	; <UNPREDICTABLE>
     9ec:	00000000 	andeq	r0, r0, r0
     9f0:	00000200 	andeq	r0, r0, r0, lsl #4
     9f4:	00000000 	andeq	r0, r0, r0
     9f8:	00020002 	andeq	r0, r2, r2
     9fc:	00024000 	andeq	r4, r2, r0
     a00:	30000200 	andcc	r0, r0, r0, lsl #4
     a04:	0002409f 	muleq	r2, pc, r0	; <UNPREDICTABLE>
     a08:	0002b000 	andeq	fp, r2, r0
     a0c:	56000100 	strpl	r0, [r0], -r0, lsl #2
     a10:	000002c8 	andeq	r0, r0, r8, asr #5
     a14:	000002e0 	andeq	r0, r0, r0, ror #5
     a18:	e0560001 	subs	r0, r6, r1
     a1c:	ec000002 	stc	0, cr0, [r0], {2}
     a20:	02000002 	andeq	r0, r0, #2, 0
     a24:	009f3000 	addseq	r3, pc, r0
     a28:	00000000 	andeq	r0, r0, r0
     a2c:	02000000 	andeq	r0, r0, #0, 0
     a30:	00000000 	andeq	r0, r0, r0
     a34:	00020000 	andeq	r0, r2, r0
     a38:	40000002 	andmi	r0, r0, r2
     a3c:	02000002 	andeq	r0, r0, #2, 0
     a40:	409f3000 	addsmi	r3, pc, r0
     a44:	b0000002 	andlt	r0, r0, r2
     a48:	01000002 	tsteq	r0, r2
     a4c:	02c85700 	sbceq	r5, r8, #0, 14
     a50:	02e00000 	rsceq	r0, r0, #0, 0
     a54:	00010000 	andeq	r0, r1, r0
     a58:	0002e057 	andeq	lr, r2, r7, asr r0
     a5c:	0002ec00 	andeq	lr, r2, r0, lsl #24
     a60:	30000200 	andcc	r0, r0, r0, lsl #4
     a64:	0000009f 	muleq	r0, pc, r0	; <UNPREDICTABLE>
	...
     a74:	02000000 	andeq	r0, r0, #0, 0
	...
     a80:	20000000 	andcs	r0, r0, r0
     a84:	48000002 	stmdami	r0, {r1}
     a88:	01000002 	tsteq	r0, r2
     a8c:	02485000 	subeq	r5, r8, #0, 0
     a90:	02500000 	subseq	r0, r0, #0, 0
     a94:	00010000 	andeq	r0, r1, r0
     a98:	00025054 	andeq	r5, r2, r4, asr r0
     a9c:	00027400 	andeq	r7, r2, r0, lsl #8
     aa0:	50000100 	andpl	r0, r0, r0, lsl #2
     aa4:	00000274 	andeq	r0, r0, r4, ror r2
     aa8:	00000277 	andeq	r0, r0, r7, ror r2
     aac:	77520001 	ldrbvc	r0, [r2, -r1]
     ab0:	84000002 	strhi	r0, [r0], #-2
     ab4:	01000002 	tsteq	r0, r2
     ab8:	02885400 	addeq	r5, r8, #0, 8
     abc:	02940000 	addseq	r0, r4, #0, 0
     ac0:	00010000 	andeq	r0, r1, r0
     ac4:	00029450 	andeq	r9, r2, r0, asr r4
     ac8:	0002c800 	andeq	ip, r2, r0, lsl #16
     acc:	54000100 	strpl	r0, [r0], #-256	; 0xffffff00
     ad0:	000002c8 	andeq	r0, r0, r8, asr #5
     ad4:	000002d4 	ldrdeq	r0, [r0], -r4
     ad8:	d4500001 	ldrble	r0, [r0], #-1
     adc:	e0000002 	and	r0, r0, r2
     ae0:	01000002 	tsteq	r0, r2
     ae4:	02e05400 	rsceq	r5, r0, #0, 8
     ae8:	02e80000 	rsceq	r0, r8, #0, 0
     aec:	00010000 	andeq	r0, r1, r0
     af0:	0002e850 	andeq	lr, r2, r0, asr r8
     af4:	00032000 	andeq	r2, r3, r0
     af8:	54000100 	strpl	r0, [r0], #-256	; 0xffffff00
	...
     b08:	00000168 	andeq	r0, r0, r8, ror #2
     b0c:	00000183 	andeq	r0, r0, r3, lsl #3
     b10:	84500001 	ldrbhi	r0, [r0], #-1
     b14:	90000001 	andls	r0, r0, r1
     b18:	01000001 	tsteq	r0, r1
     b1c:	00005000 	andeq	r5, r0, r0
	...
     b34:	03200000 	nopeq	{0}	; <UNPREDICTABLE>
     b38:	034c0000 	movteq	r0, #49152	; 0xc000
     b3c:	00010000 	andeq	r0, r1, r0
     b40:	00034c50 	andeq	r4, r3, r0, asr ip
     b44:	00036800 	andeq	r6, r3, r0, lsl #16
     b48:	54000100 	strpl	r0, [r0], #-256	; 0xffffff00
     b4c:	00000368 	andeq	r0, r0, r8, ror #6
     b50:	0000036b 	andeq	r0, r0, fp, ror #6
     b54:	6b500001 	blvs	1400b60 <__bss_end__+0x13f5c00>
     b58:	6c000003 	stcvs	0, cr0, [r0], {3}
     b5c:	04000003 	streq	r0, [r0], #-3
     b60:	5001f300 	andpl	pc, r1, r0, lsl #6
     b64:	00036c9f 	muleq	r3, pc, ip	; <UNPREDICTABLE>
     b68:	00038000 	andeq	r8, r3, r0
     b6c:	50000100 	andpl	r0, r0, r0, lsl #2
     b70:	00000380 	andeq	r0, r0, r0, lsl #7
     b74:	0000038c 	andeq	r0, r0, ip, lsl #7
     b78:	8c540001 	mrrchi	0, 0, r0, r4, cr1
     b7c:	9c000003 	stcls	0, cr0, [r0], {3}
     b80:	01000003 	tsteq	r0, r3
     b84:	039c5000 	orrseq	r5, ip, #0, 0
     b88:	03bc0000 			; <UNDEFINED> instruction: 0x03bc0000
     b8c:	00010000 	andeq	r0, r1, r0
     b90:	00000054 	andeq	r0, r0, r4, asr r0
     b94:	00000000 	andeq	r0, r0, r0
     b98:	40000200 	andmi	r0, r0, r0, lsl #4
     b9c:	6c000003 	stcvs	0, cr0, [r0], {3}
     ba0:	04000003 	streq	r0, [r0], #-3
     ba4:	24404000 	strbcs	r4, [r0], #-0
     ba8:	0000009f 	muleq	r0, pc, r0	; <UNPREDICTABLE>
	...
     bbc:	00004c00 	andeq	r4, r0, r0, lsl #24
     bc0:	50000100 	andpl	r0, r0, r0, lsl #2
     bc4:	0000004c 	andeq	r0, r0, ip, asr #32
     bc8:	00000114 	andeq	r0, r0, r4, lsl r1
     bcc:	01f30004 	mvnseq	r0, r4
     bd0:	01149f50 	tsteq	r4, r0, asr pc
     bd4:	01280000 			; <UNDEFINED> instruction: 0x01280000
     bd8:	00010000 	andeq	r0, r1, r0
     bdc:	00012850 	andeq	r2, r1, r0, asr r8
     be0:	00015c00 	andeq	r5, r1, r0, lsl #24
     be4:	f3000400 	vshl.u8	d0, d0, d0
     be8:	009f5001 	addseq	r5, pc, r1
	...
     bfc:	38000000 	stmdacc	r0, {}	; <UNPREDICTABLE>
     c00:	01000000 	mrseq	r0, (UNDEF: 0)
     c04:	00385100 	eorseq	r5, r8, r0, lsl #2
     c08:	01140000 	tsteq	r4, r0
     c0c:	00040000 	andeq	r0, r4, r0
     c10:	9f5101f3 	svcls	0x005101f3
     c14:	00000114 	andeq	r0, r0, r4, lsl r1
     c18:	00000120 	andeq	r0, r0, r0, lsr #2
     c1c:	20510001 	subscs	r0, r1, r1
     c20:	5c000001 	stcpl	0, cr0, [r0], {1}
     c24:	04000001 	streq	r0, [r0], #-1
     c28:	5101f300 	mrspl	pc, SP_irq	; <UNPREDICTABLE>
     c2c:	0000009f 	muleq	r0, pc, r0	; <UNPREDICTABLE>
	...
     c38:	00000202 	andeq	r0, r0, r2, lsl #4
     c3c:	00000202 	andeq	r0, r0, r2, lsl #4
     c40:	58000202 	stmdapl	r0, {r1, r9}
     c44:	60000000 	andvs	r0, r0, r0
     c48:	01000000 	mrseq	r0, (UNDEF: 0)
     c4c:	00605400 	rsbeq	r5, r0, r0, lsl #8
     c50:	00d00000 	sbcseq	r0, r0, r0
     c54:	00010000 	andeq	r0, r1, r0
     c58:	0000d058 	andeq	sp, r0, r8, asr r0
     c5c:	0000e000 	andeq	lr, r0, r0
     c60:	54000100 	strpl	r0, [r0], #-256	; 0xffffff00
     c64:	000000e0 	andeq	r0, r0, r0, ror #1
     c68:	000000e8 	andeq	r0, r0, r8, ror #1
     c6c:	e8580001 	ldmda	r8, {r0}^
     c70:	f4000000 	vst4.8	{d0-d3}, [r0], r0
     c74:	01000000 	mrseq	r0, (UNDEF: 0)
     c78:	00f45400 	rscseq	r5, r4, r0, lsl #8
     c7c:	01080000 	mrseq	r0, (UNDEF: 8)
     c80:	00010000 	andeq	r0, r1, r0
     c84:	00010858 	andeq	r0, r1, r8, asr r8
     c88:	00011400 	andeq	r1, r1, r0, lsl #8
     c8c:	54000100 	strpl	r0, [r0], #-256	; 0xffffff00
	...
     ca0:	00000074 	andeq	r0, r0, r4, ror r0
     ca4:	00000083 	andeq	r0, r0, r3, lsl #1
     ca8:	83500001 	cmphi	r0, #1, 0
     cac:	d0000000 	andle	r0, r0, r0
     cb0:	01000000 	mrseq	r0, (UNDEF: 0)
     cb4:	00e05600 	rsceq	r5, r0, r0, lsl #12
     cb8:	00e80000 	rsceq	r0, r8, r0
     cbc:	00010000 	andeq	r0, r1, r0
     cc0:	0000f456 	andeq	pc, r0, r6, asr r4	; <UNPREDICTABLE>
     cc4:	00010800 	andeq	r0, r1, r0, lsl #16
     cc8:	56000100 	strpl	r0, [r0], -r0, lsl #2
	...
     cd8:	00000088 	andeq	r0, r0, r8, lsl #1
     cdc:	000000d0 	ldrdeq	r0, [r0], -r0	; <UNPREDICTABLE>
     ce0:	e05b0001 	subs	r0, fp, r1
     ce4:	14000000 	strne	r0, [r0], #-0
     ce8:	01000001 	tsteq	r0, r1
     cec:	00005b00 	andeq	r5, r0, r0, lsl #22
     cf0:	00000000 	andeq	r0, r0, r0
     cf4:	00010000 	andeq	r0, r1, r0
     cf8:	00880000 	addeq	r0, r8, r0
     cfc:	00d00000 	sbcseq	r0, r0, r0
     d00:	00010000 	andeq	r0, r1, r0
     d04:	0000e059 	andeq	lr, r0, r9, asr r0
     d08:	00011400 	andeq	r1, r1, r0, lsl #8
     d0c:	59000100 	stmdbpl	r0, {r8}
	...
     d18:	00600000 	rsbeq	r0, r0, r0
     d1c:	00730000 	rsbseq	r0, r3, r0
     d20:	00010000 	andeq	r0, r1, r0
     d24:	00000050 	andeq	r0, r0, r0, asr r0
     d28:	00000000 	andeq	r0, r0, r0
     d2c:	60000300 	andvs	r0, r0, r0, lsl #6
     d30:	73000000 	movwvc	r0, #0
     d34:	01000000 	mrseq	r0, (UNDEF: 0)
     d38:	00005000 	andeq	r5, r0, r0
     d3c:	00000000 	andeq	r0, r0, r0
     d40:	00040000 	andeq	r0, r4, r0
     d44:	00000060 	andeq	r0, r0, r0, rrx
     d48:	00000070 	andeq	r0, r0, r0, ror r0
     d4c:	00500001 	subseq	r0, r0, r1
	...
     d58:	bc000000 	stclt	0, cr0, [r0], {-0}
     d5c:	bf000003 	svclt	0x00000003
     d60:	01000003 	tsteq	r0, r3
     d64:	03bf5000 			; <UNDEFINED> instruction: 0x03bf5000
     d68:	03c00000 	biceq	r0, r0, #0, 0
     d6c:	00040000 	andeq	r0, r4, r0
     d70:	9f5001f3 	svcls	0x005001f3
	...
     d84:	0000001c 	andeq	r0, r0, ip, lsl r0
     d88:	1c510001 	mrrcne	0, 0, r0, r1, cr1
     d8c:	78000000 	stmdavc	r0, {}	; <UNPREDICTABLE>
     d90:	04000000 	streq	r0, [r0], #-0
     d94:	5101f300 	mrspl	pc, SP_irq	; <UNPREDICTABLE>
     d98:	0000009f 	muleq	r0, pc, r0	; <UNPREDICTABLE>
	...
     da8:	00005800 	andeq	r5, r0, r0, lsl #16
     dac:	52000100 	andpl	r0, r0, #0
     db0:	00000058 	andeq	r0, r0, r8, asr r0
     db4:	00000078 	andeq	r0, r0, r8, ror r0
     db8:	01f30004 	mvnseq	r0, r4
     dbc:	00009f52 	andeq	r9, r0, r2, asr pc
     dc0:	00000000 	andeq	r0, r0, r0
     dc4:	00020000 	andeq	r0, r2, r0
     dc8:	00010100 	andeq	r0, r1, r0, lsl #2
     dcc:	00010100 	andeq	r0, r1, r0, lsl #2
     dd0:	00010100 	andeq	r0, r1, r0, lsl #2
     dd4:	00000000 	andeq	r0, r0, r0
     dd8:	00000038 	andeq	r0, r0, r8, lsr r0
     ddc:	54500001 	ldrbpl	r0, [r0], #-1
     de0:	54000000 	strpl	r0, [r0], #-0
     de4:	01000000 	mrseq	r0, (UNDEF: 0)
     de8:	00545300 	subseq	r5, r4, r0, lsl #6
     dec:	005c0000 	subseq	r0, ip, r0
     df0:	00030000 	andeq	r0, r3, r0
     df4:	5c9f0173 	ldfpls	f0, [pc], {115}	; 0x73
     df8:	64000000 	strvs	r0, [r0], #-0
     dfc:	01000000 	mrseq	r0, (UNDEF: 0)
     e00:	00645200 	rsbeq	r5, r4, r0, lsl #4
     e04:	00680000 	rsbeq	r0, r8, r0
     e08:	00030000 	andeq	r0, r3, r0
     e0c:	689f0273 	ldmvs	pc, {r0, r1, r4, r5, r6, r9}	; <UNPREDICTABLE>
     e10:	74000000 	strvc	r0, [r0], #-0
     e14:	01000000 	mrseq	r0, (UNDEF: 0)
     e18:	00745200 	rsbseq	r5, r4, r0, lsl #4
     e1c:	00780000 	rsbseq	r0, r8, r0
     e20:	00030000 	andeq	r0, r3, r0
     e24:	009f0172 	addseq	r0, pc, r2, ror r1	; <UNPREDICTABLE>
	...
     e30:	00000800 	andeq	r0, r0, r0, lsl #16
     e34:	00007800 	andeq	r7, r0, r0, lsl #16
     e38:	54000100 	strpl	r0, [r0], #-256	; 0xffffff00
	...
     e48:	002c0000 	eoreq	r0, ip, r0
     e4c:	00340000 	eorseq	r0, r4, r0
     e50:	00010000 	andeq	r0, r1, r0
     e54:	00003450 	andeq	r3, r0, r0, asr r4
     e58:	00004800 	andeq	r4, r0, r0, lsl #16
     e5c:	54000100 	strpl	r0, [r0], #-256	; 0xffffff00
     e60:	00000048 	andeq	r0, r0, r8, asr #32
     e64:	00000058 	andeq	r0, r0, r8, asr r0
     e68:	00500001 	subseq	r0, r0, r1
	...
     e74:	01010000 	mrseq	r0, (UNDEF: 1)
     e78:	00000000 	andeq	r0, r0, r0
     e7c:	0c000000 	stceq	0, cr0, [r0], {-0}
     e80:	01000000 	mrseq	r0, (UNDEF: 0)
     e84:	000c5000 	andeq	r5, ip, r0
     e88:	00200000 	eoreq	r0, r0, r0
     e8c:	00010000 	andeq	r0, r1, r0
     e90:	00002054 	andeq	r2, r0, r4, asr r0
     e94:	00002400 	andeq	r2, r0, r0, lsl #8
     e98:	74000300 	strvc	r0, [r0], #-768	; 0xfffffd00
     e9c:	00249f01 	eoreq	r9, r4, r1, lsl #30
     ea0:	00380000 	eorseq	r0, r8, r0
     ea4:	00010000 	andeq	r0, r1, r0
     ea8:	00000054 	andeq	r0, r0, r4, asr r0
	...
     eb8:	88000000 	stmdahi	r0, {}	; <UNPREDICTABLE>
     ebc:	94000003 	strls	r0, [r0], #-3
     ec0:	01000003 	tsteq	r0, r3
     ec4:	03945000 	orrseq	r5, r4, #0, 0
     ec8:	03d00000 	bicseq	r0, r0, #0, 0
     ecc:	00010000 	andeq	r0, r1, r0
     ed0:	0003d05b 	andeq	sp, r3, fp, asr r0
     ed4:	00092000 	andeq	r2, r9, r0
     ed8:	f3000400 	vshl.u8	d0, d0, d0
     edc:	209f5001 	addscs	r5, pc, r1
     ee0:	28000009 	stmdacs	r0, {r0, r3}
     ee4:	01000009 	tsteq	r0, r9
     ee8:	09285b00 	stmdbeq	r8!, {r8, r9, fp, ip, lr}
     eec:	09b40000 	ldmibeq	r4!, {}	; <UNPREDICTABLE>
     ef0:	00040000 	andeq	r0, r4, r0
     ef4:	9f5001f3 	svcls	0x005001f3
	...
     f08:	00000388 	andeq	r0, r0, r8, lsl #7
     f0c:	000003d0 	ldrdeq	r0, [r0], -r0	; <UNPREDICTABLE>
     f10:	d0510001 	subsle	r0, r1, r1
     f14:	20000003 	andcs	r0, r0, r3
     f18:	04000009 	streq	r0, [r0], #-9
     f1c:	5101f300 	mrspl	pc, SP_irq	; <UNPREDICTABLE>
     f20:	0009209f 	muleq	r9, pc, r0	; <UNPREDICTABLE>
     f24:	00092800 	andeq	r2, r9, r0, lsl #16
     f28:	51000100 	mrspl	r0, (UNDEF: 16)
     f2c:	00000928 	andeq	r0, r0, r8, lsr #18
     f30:	000009b4 			; <UNDEFINED> instruction: 0x000009b4
     f34:	01f30004 	mvnseq	r0, r4
     f38:	00009f51 	andeq	r9, r0, r1, asr pc
	...
     f48:	00000100 	andeq	r0, r0, r0, lsl #2
     f4c:	00000001 	andeq	r0, r0, r1
	...
     f58:	03880000 	orreq	r0, r8, #0, 0
     f5c:	03d00000 	bicseq	r0, r0, #0, 0
     f60:	00010000 	andeq	r0, r1, r0
     f64:	0003d052 	andeq	sp, r3, r2, asr r0
     f68:	00040000 	andeq	r0, r4, r0
     f6c:	56000100 	strpl	r0, [r0], -r0, lsl #2
     f70:	00000414 	andeq	r0, r0, r4, lsl r4
     f74:	00000424 	andeq	r0, r0, r4, lsr #8
     f78:	24560001 	ldrbcs	r0, [r6], #-1
     f7c:	28000004 	stmdacs	r0, {r2}
     f80:	03000004 	movweq	r0, #4
     f84:	9f7f7600 	svcls	0x007f7600
     f88:	000004a8 	andeq	r0, r0, r8, lsr #9
     f8c:	000004ac 	andeq	r0, r0, ip, lsr #9
     f90:	e0560001 	subs	r0, r6, r1
     f94:	04000004 	streq	r0, [r0], #-4
     f98:	01000005 	tsteq	r0, r5
     f9c:	057c5600 	ldrbeq	r5, [ip, #-1536]!	; 0xfffffa00
     fa0:	05880000 	streq	r0, [r8]
     fa4:	00010000 	andeq	r0, r1, r0
     fa8:	00058853 	andeq	r8, r5, r3, asr r8
     fac:	0005d000 	andeq	sp, r5, r0
     fb0:	91000300 	mrsls	r0, LR_irq
     fb4:	08007dcc 	stmdaeq	r0, {r2, r3, r6, r7, r8, sl, fp, ip, sp, lr}
     fb8:	080f0000 	stmdaeq	pc, {}	; <UNPREDICTABLE>
     fbc:	00010000 	andeq	r0, r1, r0
     fc0:	00080f53 	andeq	r0, r8, r3, asr pc
     fc4:	00088800 	andeq	r8, r8, r0, lsl #16
     fc8:	91000300 	mrsls	r0, LR_irq
     fcc:	09207dcc 	stmdbeq	r0!, {r2, r3, r6, r7, r8, sl, fp, ip, sp, lr}
     fd0:	09280000 	stmdbeq	r8!, {}	; <UNPREDICTABLE>
     fd4:	00010000 	andeq	r0, r1, r0
     fd8:	00094852 	andeq	r4, r9, r2, asr r8
     fdc:	00096400 	andeq	r6, r9, r0, lsl #8
     fe0:	91000300 	mrsls	r0, LR_irq
     fe4:	00007dcc 	andeq	r7, r0, ip, asr #27
	...
     ff4:	01000000 	mrseq	r0, (UNDEF: 0)
     ff8:	01000001 	tsteq	r0, r1
     ffc:	00000001 	andeq	r0, r0, r1
    1000:	00020200 	andeq	r0, r2, r0, lsl #4
    1004:	00020200 	andeq	r0, r2, r0, lsl #4
    1008:	00010100 	andeq	r0, r1, r0, lsl #2
    100c:	00020200 	andeq	r0, r2, r0, lsl #4
    1010:	00010100 	andeq	r0, r1, r0, lsl #2
	...
    101c:	00000388 	andeq	r0, r0, r8, lsl #7
    1020:	000003ac 	andeq	r0, r0, ip, lsr #7
    1024:	ac530001 	mrrcge	0, 0, r0, r3, cr1
    1028:	c0000003 	andgt	r0, r0, r3
    102c:	03000003 	movweq	r0, #3
    1030:	04935300 	ldreq	r5, [r3], #768	; 0x300
    1034:	000003d0 	ldrdeq	r0, [r0], -r0	; <UNPREDICTABLE>
    1038:	000003e8 	andeq	r0, r0, r8, ror #7
    103c:	93580003 	cmpls	r8, #3, 0
    1040:	0003e804 	andeq	lr, r3, r4, lsl #16
    1044:	0004ac00 	andeq	sl, r4, r0, lsl #24
    1048:	58000300 	stmdapl	r0, {r8, r9}
    104c:	04c00493 	strbeq	r0, [r0], #1171	; 0x493
    1050:	04c00000 	strbeq	r0, [r0], #0
    1054:	00030000 	andeq	r0, r3, r0
    1058:	c0049358 	andgt	r9, r4, r8, asr r3
    105c:	cc000004 	stcgt	0, cr0, [r0], {4}
    1060:	05000004 	streq	r0, [r0, #-4]
    1064:	9f047800 	svcls	0x00047800
    1068:	04cc0493 	strbeq	r0, [ip], #1171	; 0x493
    106c:	04e00000 	strbteq	r0, [r0], #0
    1070:	00030000 	andeq	r0, r3, r0
    1074:	e0049358 	and	r9, r4, r8, asr r3
    1078:	38000004 	stmdacc	r0, {r2}
    107c:	03000005 	movweq	r0, #5
    1080:	04935800 	ldreq	r5, [r3], #2048	; 0x800
    1084:	00000538 	andeq	r0, r0, r8, lsr r5
    1088:	0000053c 	andeq	r0, r0, ip, lsr r5
    108c:	79780005 	ldmdbvc	r8!, {r0, r2}^
    1090:	d004939f 	mulle	r4, pc, r3	; <UNPREDICTABLE>
    1094:	d0000005 	andle	r0, r0, r5
    1098:	03000005 	movweq	r0, #5
    109c:	04935800 	ldreq	r5, [r3], #2048	; 0x800
    10a0:	000005d0 	ldrdeq	r0, [r0], -r0	; <UNPREDICTABLE>
    10a4:	000005d4 	ldrdeq	r0, [r0], -r4
    10a8:	04780005 	ldrbteq	r0, [r8], #-5
    10ac:	f404939f 	vst2.32	{d9-d12}, [r4 :64]
    10b0:	f4000005 	vst4.8	{d0-d3}, [r0], r5
    10b4:	03000005 	movweq	r0, #5
    10b8:	04935800 	ldreq	r5, [r3], #2048	; 0x800
    10bc:	000005f4 	strdeq	r0, [r0], -r4
    10c0:	000005fc 	strdeq	r0, [r0], -ip
    10c4:	04780005 	ldrbteq	r0, [r8], #-5
    10c8:	fc04939f 	stc2	3, cr9, [r4], {159}	; 0x9f
    10cc:	fc000005 	stc2	0, cr0, [r0], {5}
    10d0:	03000005 	movweq	r0, #5
    10d4:	04935800 	ldreq	r5, [r3], #2048	; 0x800
    10d8:	000005fc 	strdeq	r0, [r0], -ip
    10dc:	00000600 	andeq	r0, r0, r0, lsl #12
    10e0:	04780005 	ldrbteq	r0, [r8], #-5
    10e4:	0004939f 	muleq	r4, pc, r3	; <UNPREDICTABLE>
    10e8:	00000006 	andeq	r0, r0, r6
    10ec:	03000007 	movweq	r0, #7
    10f0:	04935800 	ldreq	r5, [r3], #2048	; 0x800
    10f4:	00000700 	andeq	r0, r0, r0, lsl #14
    10f8:	0000070c 	andeq	r0, r0, ip, lsl #14
    10fc:	04780005 	ldrbteq	r0, [r8], #-5
    1100:	0c04939f 	stceq	3, cr9, [r4], {159}	; 0x9f
    1104:	f8000007 			; <UNDEFINED> instruction: 0xf8000007
    1108:	03000007 	movweq	r0, #7
    110c:	04935800 	ldreq	r5, [r3], #2048	; 0x800
    1110:	000007f8 	strdeq	r0, [r0], -r8
    1114:	000007fc 	strdeq	r0, [r0], -ip
    1118:	04780005 	ldrbteq	r0, [r8], #-5
    111c:	fc04939f 	stc2	3, cr9, [r4], {159}	; 0x9f
    1120:	00000007 	andeq	r0, r0, r7
    1124:	03000008 	movweq	r0, #8
    1128:	04935800 	ldreq	r5, [r3], #2048	; 0x800
    112c:	00000888 	andeq	r0, r0, r8, lsl #17
    1130:	00000920 	andeq	r0, r0, r0, lsr #18
    1134:	93580003 	cmpls	r8, #3, 0
    1138:	00092004 	andeq	r2, r9, r4
    113c:	00092800 	andeq	r2, r9, r0, lsl #16
    1140:	53000100 	movwpl	r0, #256	; 0x100
    1144:	00000964 	andeq	r0, r0, r4, ror #18
    1148:	000009b4 			; <UNDEFINED> instruction: 0x000009b4
    114c:	93580003 	cmpls	r8, #3, 0
    1150:	00000004 	andeq	r0, r0, r4
    1154:	00000000 	andeq	r0, r0, r0
    1158:	00000100 	andeq	r0, r0, r0, lsl #2
    115c:	00000000 	andeq	r0, r0, r0
    1160:	02020000 	andeq	r0, r2, #0, 0
    1164:	01000000 	mrseq	r0, (UNDEF: 0)
    1168:	00000101 	andeq	r0, r0, r1, lsl #2
    116c:	ac000000 	stcge	0, cr0, [r0], {-0}
    1170:	d0000003 	andle	r0, r0, r3
    1174:	01000003 	tsteq	r0, r3
    1178:	03d05b00 	bicseq	r5, r0, #0, 22
    117c:	03d40000 	bicseq	r0, r4, #0, 0
    1180:	00010000 	andeq	r0, r1, r0
    1184:	0003d454 	andeq	sp, r3, r4, asr r4
    1188:	0003d800 	andeq	sp, r3, r0, lsl #16
    118c:	74000300 	strvc	r0, [r0], #-768	; 0xfffffd00
    1190:	03d89f7f 	bicseq	r9, r8, #508	; 0x1fc
    1194:	03fc0000 	mvnseq	r0, #0, 0
    1198:	00010000 	andeq	r0, r1, r0
    119c:	0004a854 	andeq	sl, r4, r4, asr r8
    11a0:	0004ac00 	andeq	sl, r4, r0, lsl #24
    11a4:	54000100 	strpl	r0, [r0], #-256	; 0xffffff00
    11a8:	000004ac 	andeq	r0, r0, ip, lsr #9
    11ac:	000004b4 			; <UNDEFINED> instruction: 0x000004b4
    11b0:	01740003 	cmneq	r4, r3
    11b4:	0004b49f 	muleq	r4, pc, r4	; <UNPREDICTABLE>
    11b8:	0004c000 	andeq	ip, r4, r0
    11bc:	54000100 	strpl	r0, [r0], #-256	; 0xffffff00
    11c0:	000004e4 	andeq	r0, r0, r4, ror #9
    11c4:	000004f4 	strdeq	r0, [r0], -r4
    11c8:	f4540001 			; <UNDEFINED> instruction: 0xf4540001
    11cc:	f8000004 			; <UNDEFINED> instruction: 0xf8000004
    11d0:	03000004 	movweq	r0, #4
    11d4:	9f017400 	svcls	0x00017400
    11d8:	000004f8 	strdeq	r0, [r0], -r8
    11dc:	00000504 	andeq	r0, r0, r4, lsl #10
    11e0:	20540001 	subscs	r0, r4, r1
    11e4:	28000009 	stmdacs	r0, {r0, r3}
    11e8:	01000009 	tsteq	r0, r9
    11ec:	00005b00 	andeq	r5, r0, r0, lsl #22
    11f0:	00000000 	andeq	r0, r0, r0
    11f4:	00010000 	andeq	r0, r1, r0
    11f8:	000003ac 	andeq	r0, r0, ip, lsr #7
    11fc:	000009b4 			; <UNDEFINED> instruction: 0x000009b4
    1200:	00570001 	subseq	r0, r7, r1
    1204:	00000000 	andeq	r0, r0, r0
    1208:	02000000 	andeq	r0, r0, #0, 0
    120c:	00000000 	andeq	r0, r0, r0
    1210:	00057c00 	andeq	r7, r5, r0, lsl #24
    1214:	0005d000 	andeq	sp, r5, r0
    1218:	5b000100 	blpl	1620 <__code_start__-0x69e0>
    121c:	00000800 	andeq	r0, r0, r0, lsl #16
    1220:	00000888 	andeq	r0, r0, r8, lsl #17
    1224:	485b0001 	ldmdami	fp, {r0}^
    1228:	64000009 	strvs	r0, [r0], #-9
    122c:	01000009 	tsteq	r0, r9
    1230:	00005b00 	andeq	r5, r0, r0, lsl #22
    1234:	00000000 	andeq	r0, r0, r0
    1238:	00030000 	andeq	r0, r3, r0
    123c:	00000000 	andeq	r0, r0, r0
    1240:	0000057c 	andeq	r0, r0, ip, ror r5
    1244:	000005d0 	ldrdeq	r0, [r0], -r0	; <UNPREDICTABLE>
    1248:	00590001 	subseq	r0, r9, r1
    124c:	88000008 	stmdahi	r0, {r3}
    1250:	01000008 	tsteq	r0, r8
    1254:	09485900 	stmdbeq	r8, {r8, fp, ip, lr}^
    1258:	09640000 	stmdbeq	r4!, {}^	; <UNPREDICTABLE>
    125c:	00010000 	andeq	r0, r1, r0
    1260:	00000059 	andeq	r0, r0, r9, asr r0
    1264:	00000000 	andeq	r0, r0, r0
    1268:	00000400 	andeq	r0, r0, r0, lsl #8
    126c:	00000000 	andeq	r0, r0, r0
    1270:	0003ac00 	andeq	sl, r3, r0, lsl #24
    1274:	0003d000 	andeq	sp, r3, r0
    1278:	52000100 	andpl	r0, r0, #0
    127c:	000003d0 	ldrdeq	r0, [r0], -r0	; <UNPREDICTABLE>
    1280:	00000920 	andeq	r0, r0, r0, lsr #18
    1284:	01f30004 	mvnseq	r0, r4
    1288:	09209f52 	stmdbeq	r0!, {r1, r4, r6, r8, r9, sl, fp, ip, pc}
    128c:	09280000 	stmdbeq	r8!, {}	; <UNPREDICTABLE>
    1290:	00010000 	andeq	r0, r1, r0
    1294:	00092852 	andeq	r2, r9, r2, asr r8
    1298:	0009b400 	andeq	fp, r9, r0, lsl #8
    129c:	f3000400 	vshl.u8	d0, d0, d0
    12a0:	009f5201 	addseq	r5, pc, r1, lsl #4
	...
    12ac:	00000101 	andeq	r0, r0, r1, lsl #2
    12b0:	01000000 	mrseq	r0, (UNDEF: 0)
    12b4:	e0000000 	and	r0, r0, r0
    12b8:	e0000004 	and	r0, r0, r4
    12bc:	01000004 	tsteq	r0, r4
    12c0:	04e05000 	strbteq	r5, [r0], #0
    12c4:	04e80000 	strbteq	r0, [r8], #0
    12c8:	00010000 	andeq	r0, r1, r0
    12cc:	0005b855 	andeq	fp, r5, r5, asr r8
    12d0:	0005d000 	andeq	sp, r5, r0
    12d4:	55000100 	strpl	r0, [r0, #-256]	; 0xffffff00
    12d8:	000005f0 	strdeq	r0, [r0], -r0	; <UNPREDICTABLE>
    12dc:	000005f4 	strdeq	r0, [r0], -r4
    12e0:	f4500001 			; <UNDEFINED> instruction: 0xf4500001
    12e4:	f8000007 			; <UNDEFINED> instruction: 0xf8000007
    12e8:	01000007 	tsteq	r0, r7
    12ec:	08505500 	ldmdaeq	r0, {r8, sl, ip, lr}^
    12f0:	08880000 	stmeq	r8, {}	; <UNPREDICTABLE>
    12f4:	00010000 	andeq	r0, r1, r0
    12f8:	00000055 	andeq	r0, r0, r5, asr r0
    12fc:	00000000 	andeq	r0, r0, r0
    1300:	00000200 	andeq	r0, r0, r0, lsl #4
    1304:	00000000 	andeq	r0, r0, r0
    1308:	00041400 	andeq	r1, r4, r0, lsl #8
    130c:	00041800 	andeq	r1, r4, r0, lsl #16
    1310:	30000200 	andcc	r0, r0, r0, lsl #4
    1314:	0004189f 	muleq	r4, pc, r8	; <UNPREDICTABLE>
    1318:	00041c00 	andeq	r1, r4, r0, lsl #24
    131c:	55000100 	strpl	r0, [r0, #-256]	; 0xffffff00
    1320:	00000428 	andeq	r0, r0, r8, lsr #8
    1324:	0000043c 	andeq	r0, r0, ip, lsr r4
    1328:	28550001 	ldmdacs	r5, {r0}^
    132c:	30000009 	andcc	r0, r0, r9
    1330:	01000009 	tsteq	r0, r9
    1334:	00005500 	andeq	r5, r0, r0, lsl #10
    1338:	00000000 	andeq	r0, r0, r0
    133c:	00010000 	andeq	r0, r1, r0
	...
    1348:	05040000 	streq	r0, [r4, #-0]
    134c:	05840000 	streq	r0, [r4]
    1350:	00010000 	andeq	r0, r1, r0
    1354:	00058456 	andeq	r8, r5, r6, asr r4
    1358:	00058800 	andeq	r8, r5, r0, lsl #16
    135c:	73000300 	movwvc	r0, #768	; 0x300
    1360:	05889f7e 	streq	r9, [r8, #3966]	; 0xf7e
    1364:	05d00000 	ldrbeq	r0, [r0]
    1368:	00070000 	andeq	r0, r7, r0
    136c:	067dcc91 			; <UNDEFINED> instruction: 0x067dcc91
    1370:	009f1c32 	addseq	r1, pc, r2, lsr ip	; <UNPREDICTABLE>
    1374:	1c000008 	stcne	0, cr0, [r0], {8}
    1378:	01000008 	tsteq	r0, r8
    137c:	081c5600 	ldmdaeq	ip, {r9, sl, ip, lr}
    1380:	08880000 	stmeq	r8, {}	; <UNPREDICTABLE>
    1384:	00070000 	andeq	r0, r7, r0
    1388:	067dcc91 			; <UNDEFINED> instruction: 0x067dcc91
    138c:	489f1c32 	ldmmi	pc, {r1, r4, r5, sl, fp, ip}	; <UNPREDICTABLE>
    1390:	b4000009 	strlt	r0, [r0], #-9
    1394:	01000009 	tsteq	r0, r9
    1398:	00005600 	andeq	r5, r0, r0, lsl #12
    139c:	00000000 	andeq	r0, r0, r0
    13a0:	06040000 	streq	r0, [r4], -r0
    13a4:	04140402 	ldreq	r0, [r4], #-1026	; 0xfffffbfe
    13a8:	04140000 	ldreq	r0, [r4], #-0
    13ac:	00060000 	andeq	r0, r6, r0
    13b0:	ff080072 			; <UNDEFINED> instruction: 0xff080072
    13b4:	04289f1a 	strteq	r9, [r8], #-3866	; 0xfffff0e6
    13b8:	04280000 	strteq	r0, [r8], #-0
    13bc:	00060000 	andeq	r0, r6, r0
    13c0:	ff080072 			; <UNDEFINED> instruction: 0xff080072
    13c4:	00009f1a 	andeq	r9, r0, sl, lsl pc
    13c8:	00000000 	andeq	r0, r0, r0
    13cc:	00020000 	andeq	r0, r2, r0
    13d0:	00000000 	andeq	r0, r0, r0
    13d4:	000005fc 	strdeq	r0, [r0], -ip
    13d8:	00000700 	andeq	r0, r0, r0, lsl #14
    13dc:	80080003 	andhi	r0, r8, r3
    13e0:	0008a89f 	muleq	r8, pc, r8	; <UNPREDICTABLE>
    13e4:	0008bc00 	andeq	fp, r8, r0, lsl #24
    13e8:	08000300 	stmdaeq	r0, {r8, r9}
    13ec:	09109f80 	ldmdbeq	r0, {r7, r8, r9, sl, fp, ip, pc}
    13f0:	09200000 	stmdbeq	r0!, {}	; <UNPREDICTABLE>
    13f4:	00030000 	andeq	r0, r3, r0
    13f8:	009f8008 	addseq	r8, pc, r8
    13fc:	00000000 	andeq	r0, r0, r0
    1400:	01000000 	mrseq	r0, (UNDEF: 0)
    1404:	00000000 	andeq	r0, r0, r0
    1408:	0005fc00 	andeq	pc, r5, r0, lsl #24
    140c:	00070000 	andeq	r0, r7, r0
    1410:	30000200 	andcc	r0, r0, r0, lsl #4
    1414:	0008a89f 	muleq	r8, pc, r8	; <UNPREDICTABLE>
    1418:	0008bc00 	andeq	fp, r8, r0, lsl #24
    141c:	30000200 	andcc	r0, r0, r0, lsl #4
    1420:	0009109f 	muleq	r9, pc, r0	; <UNPREDICTABLE>
    1424:	00092000 	andeq	r2, r9, r0
    1428:	30000200 	andcc	r0, r0, r0, lsl #4
    142c:	0000009f 	muleq	r0, pc, r0	; <UNPREDICTABLE>
    1430:	00000000 	andeq	r0, r0, r0
    1434:	00000100 	andeq	r0, r0, r0, lsl #2
    1438:	fc000000 	stc2	0, cr0, [r0], {-0}
    143c:	e0000005 	and	r0, r0, r5
    1440:	01000006 	tsteq	r0, r6
    1444:	08a85500 	stmiaeq	r8!, {r8, sl, ip, lr}
    1448:	08bc0000 	ldmeq	ip!, {}	; <UNPREDICTABLE>
    144c:	00010000 	andeq	r0, r1, r0
    1450:	00091055 	andeq	r1, r9, r5, asr r0
    1454:	00092000 	andeq	r2, r9, r0
    1458:	55000100 	strpl	r0, [r0, #-256]	; 0xffffff00
	...
    1464:	00000001 	andeq	r0, r0, r1
    1468:	00000000 	andeq	r0, r0, r0
    146c:	000005fc 	strdeq	r0, [r0], -ip
    1470:	000006e0 	andeq	r0, r0, r0, ror #13
    1474:	d0910004 	addsle	r0, r1, r4
    1478:	06e09f7d 			; <UNDEFINED> instruction: 0x06e09f7d
    147c:	07000000 	streq	r0, [r0, -r0]
    1480:	00010000 	andeq	r0, r1, r0
    1484:	0008a855 	andeq	sl, r8, r5, asr r8
    1488:	0008bc00 	andeq	fp, r8, r0, lsl #24
    148c:	91000400 	tstls	r0, r0, lsl #8
    1490:	109f7dd0 			; <UNDEFINED> instruction: 0x109f7dd0
    1494:	20000009 	andcs	r0, r0, r9
    1498:	04000009 	streq	r0, [r0], #-9
    149c:	7dd09100 	ldfvcp	f1, [r0]
    14a0:	0000009f 	muleq	r0, pc, r0	; <UNPREDICTABLE>
    14a4:	00000000 	andeq	r0, r0, r0
    14a8:	00000100 	andeq	r0, r0, r0, lsl #2
    14ac:	fc000000 	stc2	0, cr0, [r0], {-0}
    14b0:	00000005 	andeq	r0, r0, r5
    14b4:	02000007 	andeq	r0, r0, #7, 0
    14b8:	a89f3800 	ldmge	pc, {fp, ip, sp}	; <UNPREDICTABLE>
    14bc:	bc000008 	stclt	0, cr0, [r0], {8}
    14c0:	02000008 	andeq	r0, r0, #8, 0
    14c4:	109f3800 	addsne	r3, pc, r0, lsl #16
    14c8:	20000009 	andcs	r0, r0, r9
    14cc:	02000009 	andeq	r0, r0, #9, 0
    14d0:	009f3800 	addseq	r3, pc, r0, lsl #16
    14d4:	00000000 	andeq	r0, r0, r0
    14d8:	04000000 	streq	r0, [r0], #-0
    14dc:	00000707 	andeq	r0, r0, r7, lsl #14
	...
    14e8:	0005fc00 	andeq	pc, r5, r0, lsl #24
    14ec:	0005fc00 	andeq	pc, r5, r0, lsl #24
    14f0:	91000400 	tstls	r0, r0, lsl #8
    14f4:	fc9f7ed0 	ldc2	14, cr7, [pc], {208}	; 0xd0
    14f8:	78000005 	stmdavc	r0, {r0, r2}
    14fc:	04000006 	streq	r0, [r0], #-6
    1500:	7ed19100 	atnvcs	f1, f0
    1504:	0006789f 	muleq	r6, pc, r8	; <UNPREDICTABLE>
    1508:	0006d400 	andeq	sp, r6, r0, lsl #8
    150c:	5c000100 	stfpls	f0, [r0], {-0}
    1510:	000006d4 	ldrdeq	r0, [r0], -r4
    1514:	00000700 	andeq	r0, r0, r0, lsl #14
    1518:	d1910004 	orrsle	r0, r1, r4
    151c:	08a89f7e 	stmiaeq	r8!, {r1, r2, r3, r4, r5, r6, r8, r9, sl, fp, ip, pc}
    1520:	08bc0000 	ldmeq	ip!, {}	; <UNPREDICTABLE>
    1524:	00040000 	andeq	r0, r4, r0
    1528:	9f7ed191 	svcls	0x007ed191
    152c:	00000910 	andeq	r0, r0, r0, lsl r9
    1530:	00000914 	andeq	r0, r0, r4, lsl r9
    1534:	d1910004 	orrsle	r0, r1, r4
    1538:	09149f7e 	ldmdbeq	r4, {r1, r2, r3, r4, r5, r6, r8, r9, sl, fp, ip, pc}
    153c:	09200000 	stmdbeq	r0!, {}	; <UNPREDICTABLE>
    1540:	00010000 	andeq	r0, r1, r0
    1544:	0000005c 	andeq	r0, r0, ip, asr r0
    1548:	00000000 	andeq	r0, r0, r0
    154c:	00010400 	andeq	r0, r1, r0, lsl #8
    1550:	08000001 	stmdaeq	r0, {r0}
    1554:	d0000006 	andle	r0, r0, r6
    1558:	01000006 	tsteq	r0, r6
    155c:	08a85500 	stmiaeq	r8!, {r8, sl, ip, lr}
    1560:	08b80000 	ldmeq	r8!, {}	; <UNPREDICTABLE>
    1564:	00010000 	andeq	r0, r1, r0
    1568:	00091055 	andeq	r1, r9, r5, asr r0
    156c:	00092000 	andeq	r2, r9, r0
    1570:	55000100 	strpl	r0, [r0, #-256]	; 0xffffff00
	...
    157c:	00000004 	andeq	r0, r0, r4
    1580:	00000100 	andeq	r0, r0, r0, lsl #2
    1584:	00000100 	andeq	r0, r0, r0, lsl #2
    1588:	00000608 	andeq	r0, r0, r8, lsl #12
    158c:	000006b0 			; <UNDEFINED> instruction: 0x000006b0
    1590:	d0910004 	addsle	r0, r1, r4
    1594:	06b09f7e 			; <UNDEFINED> instruction: 0x06b09f7e
    1598:	06c80000 	strbeq	r0, [r8], r0
    159c:	00010000 	andeq	r0, r1, r0
    15a0:	0006c850 	andeq	ip, r6, r0, asr r8
    15a4:	0006d000 	andeq	sp, r6, r0
    15a8:	91000400 	tstls	r0, r0, lsl #8
    15ac:	a89f7ed0 	ldmge	pc, {r4, r6, r7, r9, sl, fp, ip, sp, lr}	; <UNPREDICTABLE>
    15b0:	b0000008 	andlt	r0, r0, r8
    15b4:	04000008 	streq	r0, [r0], #-8
    15b8:	7ed09100 	atnvcs	f1, f0
    15bc:	0008b09f 	muleq	r8, pc, r0	; <UNPREDICTABLE>
    15c0:	0008b800 	andeq	fp, r8, r0, lsl #16
    15c4:	53000100 	movwpl	r0, #256	; 0x100
    15c8:	00000910 	andeq	r0, r0, r0, lsl r9
    15cc:	00000920 	andeq	r0, r0, r0, lsr #18
    15d0:	d0910004 	addsle	r0, r1, r4
    15d4:	00009f7e 	andeq	r9, r0, lr, ror pc
    15d8:	00000000 	andeq	r0, r0, r0
    15dc:	00040000 	andeq	r0, r4, r0
    15e0:	01010100 	mrseq	r0, (UNDEF: 17)
    15e4:	02030301 	andeq	r0, r3, #67108864	; 0x4000000
    15e8:	00000100 	andeq	r0, r0, r0, lsl #2
    15ec:	06080000 	streq	r0, [r8], -r0
    15f0:	06240000 	strteq	r0, [r4], -r0
    15f4:	00040000 	andeq	r0, r4, r0
    15f8:	9f7ed191 	svcls	0x007ed191
    15fc:	00000684 	andeq	r0, r0, r4, lsl #13
    1600:	00000684 	andeq	r0, r0, r4, lsl #13
    1604:	84500001 	ldrbhi	r0, [r0], #-1
    1608:	98000006 	stmdals	r0, {r1, r2}
    160c:	03000006 	movweq	r0, #6
    1610:	9f017000 	svcls	0x00017000
    1614:	00000698 	muleq	r0, r8, r6
    1618:	000006a4 	andeq	r0, r0, r4, lsr #13
    161c:	02700003 	rsbseq	r0, r0, #3, 0
    1620:	0006a49f 	muleq	r6, pc, r4	; <UNPREDICTABLE>
    1624:	0006a800 	andeq	sl, r6, r0, lsl #16
    1628:	70000300 	andvc	r0, r0, r0, lsl #6
    162c:	08a89f03 	stmiaeq	r8!, {r0, r1, r8, r9, sl, fp, ip, pc}
    1630:	08b80000 	ldmeq	r8!, {}	; <UNPREDICTABLE>
    1634:	00040000 	andeq	r0, r4, r0
    1638:	9f7ed191 	svcls	0x007ed191
    163c:	00000910 	andeq	r0, r0, r0, lsl r9
    1640:	00000914 	andeq	r0, r0, r4, lsl r9
    1644:	d1910004 	orrsle	r0, r1, r4
    1648:	09149f7e 	ldmdbeq	r4, {r1, r2, r3, r4, r5, r6, r8, r9, sl, fp, ip, pc}
    164c:	09200000 	stmdbeq	r0!, {}	; <UNPREDICTABLE>
    1650:	00010000 	andeq	r0, r1, r0
    1654:	0000005c 	andeq	r0, r0, ip, asr r0
    1658:	00000000 	andeq	r0, r0, r0
    165c:	00000600 	andeq	r0, r0, r0, lsl #12
    1660:	01010101 	tsteq	r1, r1, lsl #2
    1664:	00020101 	andeq	r0, r2, r1, lsl #2
    1668:	08000001 	stmdaeq	r0, {r0}
    166c:	24000006 	strcs	r0, [r0], #-6
    1670:	02000006 	andeq	r0, r0, #6, 0
    1674:	849f3100 	ldrhi	r3, [pc], #256	; 167c <__code_start__-0x6984>
    1678:	94000006 	strls	r0, [r0], #-6
    167c:	01000006 	tsteq	r0, r6
    1680:	06945200 	ldreq	r5, [r4], r0, lsl #4
    1684:	06a40000 	strteq	r0, [r4], r0
    1688:	00010000 	andeq	r0, r1, r0
    168c:	0006a459 	andeq	sl, r6, r9, asr r4
    1690:	0006a800 	andeq	sl, r6, r0, lsl #16
    1694:	52000100 	andpl	r0, r0, #0
    1698:	000006a8 	andeq	r0, r0, r8, lsr #13
    169c:	000006a8 	andeq	r0, r0, r8, lsr #13
    16a0:	01720003 	cmneq	r2, r3
    16a4:	0008a89f 	muleq	r8, pc, r8	; <UNPREDICTABLE>
    16a8:	0008b800 	andeq	fp, r8, r0, lsl #16
    16ac:	31000200 	mrscc	r0, R8_usr
    16b0:	0009109f 	muleq	r9, pc, r0	; <UNPREDICTABLE>
    16b4:	00092000 	andeq	r2, r9, r0
    16b8:	31000200 	mrscc	r0, R8_usr
    16bc:	0000009f 	muleq	r0, pc, r0	; <UNPREDICTABLE>
    16c0:	00000000 	andeq	r0, r0, r0
    16c4:	06060100 	streq	r0, [r6], -r0, lsl #2
    16c8:	d0000100 	andle	r0, r0, r0, lsl #2
    16cc:	d0000006 	andle	r0, r0, r6
    16d0:	04000006 	streq	r0, [r0], #-6
    16d4:	7ed09100 	atnvcs	f1, f0
    16d8:	0006d09f 	muleq	r6, pc, r0	; <UNPREDICTABLE>
    16dc:	00070000 	andeq	r0, r7, r0
    16e0:	50000100 	andpl	r0, r0, r0, lsl #2
    16e4:	000008b8 			; <UNDEFINED> instruction: 0x000008b8
    16e8:	000008bc 			; <UNDEFINED> instruction: 0x000008bc
    16ec:	00530001 	subseq	r0, r3, r1
    16f0:	00000000 	andeq	r0, r0, r0
    16f4:	01000000 	mrseq	r0, (UNDEF: 0)
    16f8:	00000008 	andeq	r0, r0, r8
    16fc:	01000101 	tsteq	r0, r1, lsl #2
    1700:	0006d007 	andeq	sp, r6, r7
    1704:	0006d000 	andeq	sp, r6, r0
    1708:	7c000600 	stcvc	6, cr0, [r0], {-0}
    170c:	22007100 	andcs	r7, r0, #0
    1710:	0006e49f 	muleq	r6, pc, r4	; <UNPREDICTABLE>
    1714:	0006e800 	andeq	lr, r6, r0, lsl #16
    1718:	73000300 	movwvc	r0, #768	; 0x300
    171c:	06e89f7f 			; <UNDEFINED> instruction: 0x06e89f7f
    1720:	06f00000 	ldrbteq	r0, [r0], r0
    1724:	00010000 	andeq	r0, r1, r0
    1728:	0006f053 	andeq	pc, r6, r3, asr r0	; <UNPREDICTABLE>
    172c:	0006f800 	andeq	pc, r6, r0, lsl #16
    1730:	73000300 	movwvc	r0, #768	; 0x300
    1734:	08b89f7f 	ldmeq	r8!, {r0, r1, r2, r3, r4, r5, r6, r8, r9, sl, fp, ip, pc}
    1738:	08b80000 	ldmeq	r8!, {}	; <UNPREDICTABLE>
    173c:	00040000 	andeq	r0, r4, r0
    1740:	9f7ed191 	svcls	0x007ed191
	...
    174c:	00010001 	andeq	r0, r1, r1
    1750:	000006d0 	ldrdeq	r0, [r0], -r0	; <UNPREDICTABLE>
    1754:	00000700 	andeq	r0, r0, r0, lsl #14
    1758:	80080003 	andhi	r0, r8, r3
    175c:	0008b89f 	muleq	r8, pc, r8	; <UNPREDICTABLE>
    1760:	0008bc00 	andeq	fp, r8, r0, lsl #24
    1764:	08000300 	stmdaeq	r0, {r8, r9}
    1768:	00009f80 	andeq	r9, r0, r0, lsl #31
    176c:	00000000 	andeq	r0, r0, r0
    1770:	00010000 	andeq	r0, r1, r0
    1774:	01000000 	mrseq	r0, (UNDEF: 0)
    1778:	00000001 	andeq	r0, r0, r1
    177c:	00010102 	andeq	r0, r1, r2, lsl #2
    1780:	000006d0 	ldrdeq	r0, [r0], -r0	; <UNPREDICTABLE>
    1784:	000006e0 	andeq	r0, r0, r0, ror #13
    1788:	d0910004 	addsle	r0, r1, r4
    178c:	06e09f7d 			; <UNDEFINED> instruction: 0x06e09f7d
    1790:	06e40000 	strbteq	r0, [r4], r0
    1794:	00010000 	andeq	r0, r1, r0
    1798:	0006e455 	andeq	lr, r6, r5, asr r4
    179c:	0006e400 	andeq	lr, r6, r0, lsl #8
    17a0:	72000300 	andvc	r0, r0, #0, 6
    17a4:	06e49f01 	strbteq	r9, [r4], r1, lsl #30
    17a8:	06f00000 	ldrbteq	r0, [r0], r0
    17ac:	00030000 	andeq	r0, r3, r0
    17b0:	f09f0272 			; <UNDEFINED> instruction: 0xf09f0272
    17b4:	00000006 	andeq	r0, r0, r6
    17b8:	03000007 	movweq	r0, #7
    17bc:	9f017200 	svcls	0x00017200
    17c0:	000007ec 	andeq	r0, r0, ip, ror #15
    17c4:	000007f4 	strdeq	r0, [r0], -r4
    17c8:	01730003 	cmneq	r3, r3
    17cc:	0008b89f 	muleq	r8, pc, r8	; <UNPREDICTABLE>
    17d0:	0008bc00 	andeq	fp, r8, r0, lsl #24
    17d4:	91000400 	tstls	r0, r0, lsl #8
    17d8:	009f7dd0 			; <UNDEFINED> instruction: 0x009f7dd0
    17dc:	00000000 	andeq	r0, r0, r0
    17e0:	04000000 	streq	r0, [r0], #-0
    17e4:	0008b800 	andeq	fp, r8, r0, lsl #16
    17e8:	0008bc00 	andeq	fp, r8, r0, lsl #24
    17ec:	32000200 	andcc	r0, r0, #0, 4
    17f0:	0000009f 	muleq	r0, pc, r0	; <UNPREDICTABLE>
    17f4:	00000000 	andeq	r0, r0, r0
    17f8:	00000700 	andeq	r0, r0, r0, lsl #14
    17fc:	d0000600 	andle	r0, r0, r0, lsl #12
    1800:	e0000006 	and	r0, r0, r6
    1804:	04000006 	streq	r0, [r0], #-6
    1808:	7dd09100 	ldfvcp	f1, [r0]
    180c:	0006e09f 	muleq	r6, pc, r0	; <UNPREDICTABLE>
    1810:	00070000 	andeq	r0, r7, r0
    1814:	55000100 	strpl	r0, [r0, #-256]	; 0xffffff00
    1818:	000008b8 			; <UNDEFINED> instruction: 0x000008b8
    181c:	000008bc 			; <UNDEFINED> instruction: 0x000008bc
    1820:	d0910004 	addsle	r0, r1, r4
    1824:	00009f7d 	andeq	r9, r0, sp, ror pc
    1828:	00000000 	andeq	r0, r0, r0
    182c:	00010000 	andeq	r0, r1, r0
    1830:	070c0000 	streq	r0, [ip, -r0]
    1834:	07ec0000 	strbeq	r0, [ip, r0]!
    1838:	00030000 	andeq	r0, r3, r0
    183c:	949f8008 	ldrls	r8, [pc], #8	; 1844 <__code_start__-0x67bc>
    1840:	a8000008 	stmdage	r0, {r3}
    1844:	03000008 	movweq	r0, #8
    1848:	9f800800 	svcls	0x00800800
	...
    1858:	0000070c 	andeq	r0, r0, ip, lsl #14
    185c:	000007ec 	andeq	r0, r0, ip, ror #15
    1860:	9f300002 	svcls	0x00300002
    1864:	00000894 	muleq	r0, r4, r8
    1868:	000008a8 	andeq	r0, r0, r8, lsr #17
    186c:	9f300002 	svcls	0x00300002
	...
    187c:	0000070c 	andeq	r0, r0, ip, lsl #14
    1880:	000007d0 	ldrdeq	r0, [r0], -r0	; <UNPREDICTABLE>
    1884:	94550001 	ldrbls	r0, [r5], #-1
    1888:	a8000008 	stmdage	r0, {r3}
    188c:	01000008 	tsteq	r0, r8
    1890:	00005500 	andeq	r5, r0, r0, lsl #10
	...
    18a0:	0000070c 	andeq	r0, r0, ip, lsl #14
    18a4:	000007d0 	ldrdeq	r0, [r0], -r0	; <UNPREDICTABLE>
    18a8:	d0910004 	addsle	r0, r1, r4
    18ac:	07d09f7d 			; <UNDEFINED> instruction: 0x07d09f7d
    18b0:	07ec0000 	strbeq	r0, [ip, r0]!
    18b4:	00010000 	andeq	r0, r1, r0
    18b8:	00089455 	andeq	r9, r8, r5, asr r4
    18bc:	0008a800 	andeq	sl, r8, r0, lsl #16
    18c0:	91000400 	tstls	r0, r0, lsl #8
    18c4:	009f7dd0 			; <UNDEFINED> instruction: 0x009f7dd0
	...
    18d0:	0c000000 	stceq	0, cr0, [r0], {-0}
    18d4:	ec000007 	stc	0, cr0, [r0], {7}
    18d8:	02000007 	andeq	r0, r0, #7, 0
    18dc:	949f3200 	ldrls	r3, [pc], #512	; 18e4 <__code_start__-0x671c>
    18e0:	a8000008 	stmdage	r0, {r3}
    18e4:	02000008 	andeq	r0, r0, #8, 0
    18e8:	009f3200 	addseq	r3, pc, r0, lsl #4
    18ec:	00000000 	andeq	r0, r0, r0
    18f0:	03000000 	movweq	r0, #0
    18f4:	00000505 	andeq	r0, r0, r5, lsl #10
    18f8:	00000000 	andeq	r0, r0, r0
    18fc:	00070c00 	andeq	r0, r7, r0, lsl #24
    1900:	00070c00 	andeq	r0, r7, r0, lsl #24
    1904:	51000100 	mrspl	r0, (UNDEF: 16)
    1908:	0000070c 	andeq	r0, r0, ip, lsl #14
    190c:	0000071c 	andeq	r0, r0, ip, lsl r7
    1910:	1c530001 	mrrcne	0, 0, r0, r3, cr1
    1914:	24000007 	strcs	r0, [r0], #-7
    1918:	03000007 	movweq	r0, #7
    191c:	9f017200 	svcls	0x00017200
    1920:	00000724 	andeq	r0, r0, r4, lsr #14
    1924:	000007cc 	andeq	r0, r0, ip, asr #15
    1928:	94530001 	ldrbls	r0, [r3], #-1
    192c:	a8000008 	stmdage	r0, {r3}
    1930:	01000008 	tsteq	r0, r8
    1934:	00005300 	andeq	r5, r0, r0, lsl #6
    1938:	00000000 	andeq	r0, r0, r0
    193c:	00050000 	andeq	r0, r5, r0
    1940:	070c0001 	streq	r0, [ip, -r1]
    1944:	07200000 	streq	r0, [r0, -r0]!
    1948:	00010000 	andeq	r0, r1, r0
    194c:	00072450 	andeq	r2, r7, r0, asr r4
    1950:	00072c00 	andeq	r2, r7, r0, lsl #24
    1954:	50000100 	andpl	r0, r0, r0, lsl #2
	...
    1960:	01000103 	tsteq	r0, r3, lsl #2
    1964:	00000728 	andeq	r0, r0, r8, lsr #14
    1968:	000007b0 			; <UNDEFINED> instruction: 0x000007b0
    196c:	94550001 	ldrbls	r0, [r5], #-1
    1970:	a0000008 	andge	r0, r0, r8
    1974:	01000008 	tsteq	r0, r8
    1978:	00005500 	andeq	r5, r0, r0, lsl #10
    197c:	00000000 	andeq	r0, r0, r0
    1980:	01030000 	mrseq	r0, (UNDEF: 3)
    1984:	07280100 	streq	r0, [r8, -r0, lsl #2]!
    1988:	07b00000 	ldreq	r0, [r0, r0]!
    198c:	00010000 	andeq	r0, r1, r0
    1990:	00089451 	andeq	r9, r8, r1, asr r4
    1994:	0008a000 	andeq	sl, r8, r0
    1998:	51000100 	mrspl	r0, (UNDEF: 16)
	...
    19a4:	01000003 	tsteq	r0, r3
    19a8:	03010101 	movweq	r0, #4353	; 0x1101
    19ac:	01000203 	tsteq	r0, r3, lsl #4
    19b0:	00000728 	andeq	r0, r0, r8, lsr #14
    19b4:	00000750 	andeq	r0, r0, r0, asr r7
    19b8:	74530001 	ldrbvc	r0, [r3], #-1
    19bc:	74000007 	strvc	r0, [r0], #-7
    19c0:	01000007 	tsteq	r0, r7
    19c4:	07745e00 	ldrbeq	r5, [r4, -r0, lsl #28]!
    19c8:	07880000 	streq	r0, [r8, r0]
    19cc:	00030000 	andeq	r0, r3, r0
    19d0:	889f017e 	ldmhi	pc, {r1, r2, r3, r4, r5, r6, r8}	; <UNPREDICTABLE>
    19d4:	94000007 	strls	r0, [r0], #-7
    19d8:	03000007 	movweq	r0, #7
    19dc:	9f027e00 	svcls	0x00027e00
    19e0:	00000794 	muleq	r0, r4, r7
    19e4:	00000798 	muleq	r0, r8, r7
    19e8:	037e0003 	cmneq	lr, #3, 0
    19ec:	0008949f 	muleq	r8, pc, r4	; <UNPREDICTABLE>
    19f0:	0008a000 	andeq	sl, r8, r0
    19f4:	53000100 	movwpl	r0, #256	; 0x100
	...
    1a00:	01000000 	mrseq	r0, (UNDEF: 0)
    1a04:	01010101 	tsteq	r1, r1, lsl #2
    1a08:	01000201 	tsteq	r0, r1, lsl #4
    1a0c:	0000072c 	andeq	r0, r0, ip, lsr #14
    1a10:	00000750 	andeq	r0, r0, r0, asr r7
    1a14:	74500001 	ldrbvc	r0, [r0], #-1
    1a18:	84000007 	strhi	r0, [r0], #-7
    1a1c:	01000007 	tsteq	r0, r7
    1a20:	07845000 	streq	r5, [r4, r0]
    1a24:	07940000 	ldreq	r0, [r4, r0]
    1a28:	00010000 	andeq	r0, r1, r0
    1a2c:	0007945b 	andeq	r9, r7, fp, asr r4
    1a30:	00079800 	andeq	r9, r7, r0, lsl #16
    1a34:	50000100 	andpl	r0, r0, r0, lsl #2
    1a38:	00000798 	muleq	r0, r8, r7
    1a3c:	00000798 	muleq	r0, r8, r7
    1a40:	01700003 	cmneq	r0, r3
    1a44:	0008949f 	muleq	r8, pc, r4	; <UNPREDICTABLE>
    1a48:	0008a000 	andeq	sl, r8, r0
    1a4c:	50000100 	andpl	r0, r0, r0, lsl #2
	...
    1a58:	00010001 	andeq	r0, r1, r1
    1a5c:	000007b0 			; <UNDEFINED> instruction: 0x000007b0
    1a60:	000007ec 	andeq	r0, r0, ip, ror #15
    1a64:	a0510001 	subsge	r0, r1, r1
    1a68:	a8000008 	stmdage	r0, {r3}
    1a6c:	01000008 	tsteq	r0, r8
    1a70:	00005100 	andeq	r5, r0, r0, lsl #2
    1a74:	00000000 	andeq	r0, r0, r0
    1a78:	00010000 	andeq	r0, r1, r0
    1a7c:	01000000 	mrseq	r0, (UNDEF: 0)
    1a80:	00010001 	andeq	r0, r1, r1
    1a84:	000007b0 			; <UNDEFINED> instruction: 0x000007b0
    1a88:	000007b4 			; <UNDEFINED> instruction: 0x000007b4
    1a8c:	00730006 	rsbseq	r0, r3, r6
    1a90:	9f22007c 	svcls	0x0022007c
    1a94:	000007d4 	ldrdeq	r0, [r0], -r4
    1a98:	000007d8 	ldrdeq	r0, [r0], -r8
    1a9c:	7f730003 	svcvc	0x00730003
    1aa0:	0007d89f 	muleq	r7, pc, r8	; <UNPREDICTABLE>
    1aa4:	0007e000 	andeq	lr, r7, r0
    1aa8:	53000100 	movwpl	r0, #256	; 0x100
    1aac:	000007e0 	andeq	r0, r0, r0, ror #15
    1ab0:	000007e8 	andeq	r0, r0, r8, ror #15
    1ab4:	7f730003 	svcvc	0x00730003
    1ab8:	0008a09f 	muleq	r8, pc, r0	; <UNPREDICTABLE>
    1abc:	0008a800 	andeq	sl, r8, r0, lsl #16
    1ac0:	53000100 	movwpl	r0, #256	; 0x100
	...
    1acc:	00010001 	andeq	r0, r1, r1
    1ad0:	000007b0 			; <UNDEFINED> instruction: 0x000007b0
    1ad4:	000007ec 	andeq	r0, r0, ip, ror #15
    1ad8:	80080003 	andhi	r0, r8, r3
    1adc:	0008a09f 	muleq	r8, pc, r0	; <UNPREDICTABLE>
    1ae0:	0008a800 	andeq	sl, r8, r0, lsl #16
    1ae4:	08000300 	stmdaeq	r0, {r8, r9}
    1ae8:	00009f80 	andeq	r9, r0, r0, lsl #31
    1aec:	00000000 	andeq	r0, r0, r0
    1af0:	00010000 	andeq	r0, r1, r0
    1af4:	01000000 	mrseq	r0, (UNDEF: 0)
    1af8:	00000001 	andeq	r0, r0, r1
    1afc:	07b00001 	ldreq	r0, [r0, r1]!
    1b00:	07d00000 	ldrbeq	r0, [r0, r0]
    1b04:	00040000 	andeq	r0, r4, r0
    1b08:	9f7dd091 	svcls	0x007dd091
    1b0c:	000007d0 	ldrdeq	r0, [r0], -r0	; <UNPREDICTABLE>
    1b10:	000007d4 	ldrdeq	r0, [r0], -r4
    1b14:	d4550001 	ldrble	r0, [r5], #-1
    1b18:	d4000007 	strle	r0, [r0], #-7
    1b1c:	03000007 	movweq	r0, #7
    1b20:	9f017c00 	svcls	0x00017c00
    1b24:	000007d4 	ldrdeq	r0, [r0], -r4
    1b28:	000007e0 	andeq	r0, r0, r0, ror #15
    1b2c:	027c0003 	rsbseq	r0, ip, #3, 0
    1b30:	0007e09f 	muleq	r7, pc, r0	; <UNPREDICTABLE>
    1b34:	0007ec00 	andeq	lr, r7, r0, lsl #24
    1b38:	7c000300 	stcvc	3, cr0, [r0], {-0}
    1b3c:	08a09f01 	stmiaeq	r0!, {r0, r8, r9, sl, fp, ip, pc}
    1b40:	08a80000 	stmiaeq	r8!, {}	; <UNPREDICTABLE>
    1b44:	00040000 	andeq	r0, r4, r0
    1b48:	9f7dd091 	svcls	0x007dd091
	...
    1b54:	00040004 	andeq	r0, r4, r4
    1b58:	000007b0 			; <UNDEFINED> instruction: 0x000007b0
    1b5c:	000007b4 			; <UNDEFINED> instruction: 0x000007b4
    1b60:	01700003 	cmneq	r0, r3
    1b64:	0008a09f 	muleq	r8, pc, r0	; <UNPREDICTABLE>
    1b68:	0008a800 	andeq	sl, r8, r0, lsl #16
    1b6c:	70000300 	andvc	r0, r0, r0, lsl #6
    1b70:	00009f01 	andeq	r9, r0, r1, lsl #30
    1b74:	00000000 	andeq	r0, r0, r0
    1b78:	00010000 	andeq	r0, r1, r0
    1b7c:	07bc0000 	ldreq	r0, [ip, r0]!
    1b80:	07d00000 	ldrbeq	r0, [r0, r0]
    1b84:	00040000 	andeq	r0, r4, r0
    1b88:	9f7dd091 	svcls	0x007dd091
    1b8c:	000007d0 	ldrdeq	r0, [r0], -r0	; <UNPREDICTABLE>
    1b90:	000007ec 	andeq	r0, r0, ip, ror #15
    1b94:	00550001 	subseq	r0, r5, r1
	...
    1ba0:	28000000 	stmdacs	r0, {}	; <UNPREDICTABLE>
    1ba4:	64000003 	strvs	r0, [r0], #-3
    1ba8:	01000003 	tsteq	r0, r3
    1bac:	03645000 	cmneq	r4, #0, 0
    1bb0:	03880000 	orreq	r0, r8, #0, 0
    1bb4:	00040000 	andeq	r0, r4, r0
    1bb8:	9f5001f3 	svcls	0x005001f3
	...
    1bc8:	00000328 	andeq	r0, r0, r8, lsr #6
    1bcc:	0000035c 	andeq	r0, r0, ip, asr r3
    1bd0:	5c510001 	mrrcpl	0, 0, r0, r1, cr1
    1bd4:	88000003 	stmdahi	r0, {r0, r1}
    1bd8:	04000003 	streq	r0, [r0], #-3
    1bdc:	5101f300 	mrspl	pc, SP_irq	; <UNPREDICTABLE>
    1be0:	0000009f 	muleq	r0, pc, r0	; <UNPREDICTABLE>
	...
    1c04:	00001400 	andeq	r1, r0, r0, lsl #8
    1c08:	50000100 	andpl	r0, r0, r0, lsl #2
    1c0c:	00000014 	andeq	r0, r0, r4, lsl r0
    1c10:	00000020 	andeq	r0, r0, r0, lsr #32
    1c14:	205c0001 	subscs	r0, ip, r1
    1c18:	68000000 	stmdavs	r0, {}	; <UNPREDICTABLE>
    1c1c:	03000000 	movweq	r0, #0
    1c20:	9f027100 	svcls	0x00027100
    1c24:	00000068 	andeq	r0, r0, r8, rrx
    1c28:	0000006c 	andeq	r0, r0, ip, rrx
    1c2c:	02730003 	rsbseq	r0, r3, #3, 0
    1c30:	00006c9f 	muleq	r0, pc, ip	; <UNPREDICTABLE>
    1c34:	00019400 	andeq	r9, r1, r0, lsl #8
    1c38:	f3000400 	vshl.u8	d0, d0, d0
    1c3c:	949f5001 	ldrls	r5, [pc], #1	; 1c44 <__code_start__-0x63bc>
    1c40:	98000001 	stmdals	r0, {r0}
    1c44:	03000001 	movweq	r0, #1
    1c48:	9f027300 	svcls	0x00027300
    1c4c:	00000198 	muleq	r0, r8, r1
    1c50:	000001c0 	andeq	r0, r0, r0, asr #3
    1c54:	01f30004 	mvnseq	r0, r4
    1c58:	01c09f50 	biceq	r9, r0, r0, asr pc
    1c5c:	01c80000 	biceq	r0, r8, r0
    1c60:	00010000 	andeq	r0, r1, r0
    1c64:	0001c85c 	andeq	ip, r1, ip, asr r8
    1c68:	00021400 	andeq	r1, r2, r0, lsl #8
    1c6c:	73000300 	movwvc	r0, #768	; 0x300
    1c70:	02149f02 	andseq	r9, r4, #2, 30
    1c74:	02ec0000 	rsceq	r0, ip, #0, 0
    1c78:	00040000 	andeq	r0, r4, r0
    1c7c:	9f5001f3 	svcls	0x005001f3
    1c80:	000002ec 	andeq	r0, r0, ip, ror #5
    1c84:	000002f4 	strdeq	r0, [r0], -r4
    1c88:	02730003 	rsbseq	r0, r3, #3, 0
    1c8c:	0002f49f 	muleq	r2, pc, r4	; <UNPREDICTABLE>
    1c90:	00032800 	andeq	r2, r3, r0, lsl #16
    1c94:	f3000400 	vshl.u8	d0, d0, d0
    1c98:	009f5001 	addseq	r5, pc, r1
	...
    1cac:	1c000000 	stcne	0, cr0, [r0], {-0}
    1cb0:	01000000 	mrseq	r0, (UNDEF: 0)
    1cb4:	001c5100 	andseq	r5, ip, r0, lsl #2
    1cb8:	02e00000 	rsceq	r0, r0, #0, 0
    1cbc:	00010000 	andeq	r0, r1, r0
    1cc0:	0002e050 	andeq	lr, r2, r0, asr r0
    1cc4:	0002ec00 	andeq	lr, r2, r0, lsl #24
    1cc8:	f3000400 	vshl.u8	d0, d0, d0
    1ccc:	ec9f5101 	ldfs	f5, [pc], {1}
    1cd0:	28000002 	stmdacs	r0, {r1}
    1cd4:	01000003 	tsteq	r0, r3
    1cd8:	00005000 	andeq	r5, r0, r0
	...
    1ce4:	01000000 	mrseq	r0, (UNDEF: 0)
    1ce8:	00000000 	andeq	r0, r0, r0
    1cec:	02000000 	andeq	r0, r0, #0, 0
    1cf0:	00000002 	andeq	r0, r0, r2
	...
    1d04:	00700000 	rsbseq	r0, r0, r0
    1d08:	00010000 	andeq	r0, r1, r0
    1d0c:	00007052 	andeq	r7, r0, r2, asr r0
    1d10:	00007800 	andeq	r7, r0, r0, lsl #16
    1d14:	5c000100 	stfpls	f0, [r0], {-0}
    1d18:	00000078 	andeq	r0, r0, r8, ror r0
    1d1c:	000000a4 	andeq	r0, r0, r4, lsr #1
    1d20:	01f30004 	mvnseq	r0, r4
    1d24:	01949f52 	orrseq	r9, r4, r2, asr pc
    1d28:	019c0000 	orrseq	r0, ip, r0
    1d2c:	00010000 	andeq	r0, r1, r0
    1d30:	00019c52 	andeq	r9, r1, r2, asr ip
    1d34:	0001a400 	andeq	sl, r1, r0, lsl #8
    1d38:	5c000100 	stfpls	f0, [r0], {-0}
    1d3c:	000001a4 	andeq	r0, r0, r4, lsr #3
    1d40:	000001c0 	andeq	r0, r0, r0, asr #3
    1d44:	01f30004 	mvnseq	r0, r4
    1d48:	01c09f52 	biceq	r9, r0, r2, asr pc
    1d4c:	02200000 	eoreq	r0, r0, #0, 0
    1d50:	00010000 	andeq	r0, r1, r0
    1d54:	00022052 	andeq	r2, r2, r2, asr r0
    1d58:	00022800 	andeq	r2, r2, r0, lsl #16
    1d5c:	72000400 	andvc	r0, r0, #0, 8
    1d60:	289f1f00 	ldmcs	pc, {r8, r9, sl, fp, ip}	; <UNPREDICTABLE>
    1d64:	74000002 	strvc	r0, [r0], #-2
    1d68:	05000002 	streq	r0, [r0, #-2]
    1d6c:	5201f300 	andpl	pc, r1, #0, 6
    1d70:	02749f1f 	rsbseq	r9, r4, #124	; 0x7c
    1d74:	02880000 	addeq	r0, r8, #0, 0
    1d78:	00010000 	andeq	r0, r1, r0
    1d7c:	00028852 	andeq	r8, r2, r2, asr r8
    1d80:	0002a000 	andeq	sl, r2, r0
    1d84:	5c000100 	stfpls	f0, [r0], {-0}
    1d88:	000002cc 	andeq	r0, r0, ip, asr #5
    1d8c:	000002d0 	ldrdeq	r0, [r0], -r0	; <UNPREDICTABLE>
    1d90:	d0520001 	subsle	r0, r2, r1
    1d94:	e7000002 	str	r0, [r0, -r2]
    1d98:	01000002 	tsteq	r0, r2
    1d9c:	02e75c00 	rsceq	r5, r7, #0, 24
    1da0:	02ec0000 	rsceq	r0, ip, #0, 0
    1da4:	00040000 	andeq	r0, r4, r0
    1da8:	9f5201f3 	svcls	0x005201f3
    1dac:	000002ec 	andeq	r0, r0, ip, ror #5
    1db0:	00000300 	andeq	r0, r0, r0, lsl #6
    1db4:	00520001 	subseq	r0, r2, r1
    1db8:	28000003 	stmdacs	r0, {r0, r1}
    1dbc:	01000003 	tsteq	r0, r3
    1dc0:	00005c00 	andeq	r5, r0, r0, lsl #24
	...
    1ddc:	00000068 	andeq	r0, r0, r8, rrx
    1de0:	68530001 	ldmdavs	r3, {r0}^
    1de4:	6c000000 	stcvs	0, cr0, [r0], {-0}
    1de8:	03000000 	movweq	r0, #0
    1dec:	9f7f0800 	svcls	0x007f0800
    1df0:	00000194 	muleq	r0, r4, r1
    1df4:	00000198 	muleq	r0, r8, r1
    1df8:	7f080003 	svcvc	0x00080003
    1dfc:	0001c09f 	muleq	r1, pc, r0	; <UNPREDICTABLE>
    1e00:	00021400 	andeq	r1, r2, r0, lsl #8
    1e04:	08000300 	stmdaeq	r0, {r8, r9}
    1e08:	02749f7f 	rsbseq	r9, r4, #508	; 0x1fc
    1e0c:	02900000 	addseq	r0, r0, #0, 0
    1e10:	00010000 	andeq	r0, r1, r0
    1e14:	00029053 	andeq	r9, r2, r3, asr r0
    1e18:	0002a000 	andeq	sl, r2, r0
    1e1c:	f3000400 	vshl.u8	d0, d0, d0
    1e20:	ec9f5301 	ldc	3, cr5, [pc], {1}
    1e24:	28000002 	stmdacs	r0, {r1}
    1e28:	03000003 	movweq	r0, #3
    1e2c:	9f7f0800 	svcls	0x007f0800
	...
    1e38:	00000001 	andeq	r0, r0, r1
    1e3c:	00020200 	andeq	r0, r2, r0, lsl #4
    1e40:	00010100 	andeq	r0, r1, r0, lsl #2
    1e44:	00000000 	andeq	r0, r0, r0
    1e48:	02000000 	andeq	r0, r0, #0, 0
    1e4c:	00000002 	andeq	r0, r0, r2
    1e50:	00000001 	andeq	r0, r0, r1
    1e54:	00000000 	andeq	r0, r0, r0
    1e58:	00010100 	andeq	r0, r1, r0, lsl #2
    1e5c:	02000000 	andeq	r0, r0, #0, 0
    1e60:	00000002 	andeq	r0, r0, r2
    1e64:	01000000 	mrseq	r0, (UNDEF: 0)
    1e68:	00000001 	andeq	r0, r0, r1
    1e6c:	00000018 	andeq	r0, r0, r8, lsl r0
    1e70:	00000070 	andeq	r0, r0, r0, ror r0
    1e74:	a0910004 	addsge	r0, r1, r4
    1e78:	00709f7f 	rsbseq	r9, r0, pc, ror pc
    1e7c:	00780000 	rsbseq	r0, r8, r0
    1e80:	00010000 	andeq	r0, r1, r0
    1e84:	00007852 	andeq	r7, r0, r2, asr r8
    1e88:	00007800 	andeq	r7, r0, r0, lsl #16
    1e8c:	54000100 	strpl	r0, [r0], #-256	; 0xffffff00
    1e90:	00000078 	andeq	r0, r0, r8, ror r0
    1e94:	00000088 	andeq	r0, r0, r8, lsl #1
    1e98:	01740003 	cmneq	r4, r3
    1e9c:	0000889f 	muleq	r0, pc, r8	; <UNPREDICTABLE>
    1ea0:	00009000 	andeq	r9, r0, r0
    1ea4:	54000100 	strpl	r0, [r0], #-256	; 0xffffff00
    1ea8:	00000090 	muleq	r0, r0, r0
    1eac:	000000a0 	andeq	r0, r0, r0, lsr #1
    1eb0:	02740003 	rsbseq	r0, r4, #3, 0
    1eb4:	0000a09f 	muleq	r0, pc, r0	; <UNPREDICTABLE>
    1eb8:	0000b000 	andeq	fp, r0, r0
    1ebc:	5e000100 	adfpls	f0, f0, f0
    1ec0:	00000194 	muleq	r0, r4, r1
    1ec4:	0000019c 	muleq	r0, ip, r1
    1ec8:	a0910004 	addsge	r0, r1, r4
    1ecc:	019c9f7f 	orrseq	r9, ip, pc, ror pc
    1ed0:	01a40000 			; <UNDEFINED> instruction: 0x01a40000
    1ed4:	00010000 	andeq	r0, r1, r0
    1ed8:	0001a452 	andeq	sl, r1, r2, asr r4
    1edc:	0001a400 	andeq	sl, r1, r0, lsl #8
    1ee0:	5e000100 	adfpls	f0, f0, f0
    1ee4:	000001a4 	andeq	r0, r0, r4, lsr #3
    1ee8:	000001b4 			; <UNDEFINED> instruction: 0x000001b4
    1eec:	017e0003 	cmneq	lr, r3
    1ef0:	0001b49f 	muleq	r1, pc, r4	; <UNPREDICTABLE>
    1ef4:	0001c000 	andeq	ip, r1, r0
    1ef8:	5e000100 	adfpls	f0, f0, f0
    1efc:	000001c0 	andeq	r0, r0, r0, asr #3
    1f00:	00000228 	andeq	r0, r0, r8, lsr #4
    1f04:	a0910004 	addsge	r0, r1, r4
    1f08:	02289f7f 	eoreq	r9, r8, #508	; 0x1fc
    1f0c:	02340000 	eorseq	r0, r4, #0, 0
    1f10:	00010000 	andeq	r0, r1, r0
    1f14:	00023452 	andeq	r3, r2, r2, asr r4
    1f18:	00025800 	andeq	r5, r2, r0, lsl #16
    1f1c:	5e000100 	adfpls	f0, f0, f0
    1f20:	00000258 	andeq	r0, r0, r8, asr r2
    1f24:	0000025c 	andeq	r0, r0, ip, asr r2
    1f28:	017e0003 	cmneq	lr, r3
    1f2c:	00025c9f 	muleq	r2, pc, ip	; <UNPREDICTABLE>
    1f30:	00026400 	andeq	r6, r2, r0, lsl #8
    1f34:	5e000100 	adfpls	f0, f0, f0
    1f38:	00000264 	andeq	r0, r0, r4, ror #4
    1f3c:	00000270 	andeq	r0, r0, r0, ror r2
    1f40:	02710003 	rsbseq	r0, r1, #3, 0
    1f44:	0002709f 	muleq	r2, pc, r0	; <UNPREDICTABLE>
    1f48:	00027400 	andeq	r7, r2, r0, lsl #8
    1f4c:	5e000100 	adfpls	f0, f0, f0
    1f50:	00000274 	andeq	r0, r0, r4, ror r2
    1f54:	00000274 	andeq	r0, r0, r4, ror r2
    1f58:	a0910004 	addsge	r0, r1, r4
    1f5c:	02749f7f 	rsbseq	r9, r4, #508	; 0x1fc
    1f60:	02a00000 	adceq	r0, r0, #0, 0
    1f64:	00040000 	andeq	r0, r4, r0
    1f68:	9f7fa191 	svcls	0x007fa191
    1f6c:	000002c0 	andeq	r0, r0, r0, asr #5
    1f70:	000002c8 	andeq	r0, r0, r8, asr #5
    1f74:	c85e0001 	ldmdagt	lr, {r0}^
    1f78:	cc000002 	stcgt	0, cr0, [r0], {2}
    1f7c:	01000002 	tsteq	r0, r2
    1f80:	02cc5600 	sbceq	r5, ip, #0, 12
    1f84:	02ec0000 	rsceq	r0, ip, #0, 0
    1f88:	00040000 	andeq	r0, r4, r0
    1f8c:	9f7fa091 	svcls	0x007fa091
    1f90:	000002ec 	andeq	r0, r0, ip, ror #5
    1f94:	000002fc 	strdeq	r0, [r0], -ip
    1f98:	a1910004 	orrsge	r0, r1, r4
    1f9c:	02fc9f7f 	rscseq	r9, ip, #508	; 0x1fc
    1fa0:	03280000 			; <UNDEFINED> instruction: 0x03280000
    1fa4:	00010000 	andeq	r0, r1, r0
    1fa8:	0000005e 	andeq	r0, r0, lr, asr r0
	...
    1fc0:	00000101 	andeq	r0, r0, r1, lsl #2
	...
    1fd0:	20000000 	andcs	r0, r0, r0
    1fd4:	70000000 	andvc	r0, r0, r0
    1fd8:	01000000 	mrseq	r0, (UNDEF: 0)
    1fdc:	00705200 	rsbseq	r5, r0, r0, lsl #4
    1fe0:	00940000 	addseq	r0, r4, r0
    1fe4:	00010000 	andeq	r0, r1, r0
    1fe8:	0001945c 	andeq	r9, r1, ip, asr r4
    1fec:	00019c00 	andeq	r9, r1, r0, lsl #24
    1ff0:	52000100 	andpl	r0, r0, #0
    1ff4:	0000019c 	muleq	r0, ip, r1
    1ff8:	000001c0 	andeq	r0, r0, r0, asr #3
    1ffc:	c85c0001 	ldmdagt	ip, {r0}^
    2000:	10000001 	andne	r0, r0, r1
    2004:	01000002 	tsteq	r0, r2
    2008:	02105c00 	andseq	r5, r0, #0, 24
    200c:	02240000 	eoreq	r0, r4, #0, 0
    2010:	00010000 	andeq	r0, r1, r0
    2014:	00022452 	andeq	r2, r2, r2, asr r4
    2018:	00024800 	andeq	r4, r2, r0, lsl #16
    201c:	5c000100 	stfpls	f0, [r0], {-0}
    2020:	00000248 	andeq	r0, r0, r8, asr #4
    2024:	0000025c 	andeq	r0, r0, ip, asr r2
    2028:	5c550001 	mrrcpl	0, 0, r0, r5, cr1
    202c:	68000002 	stmdavs	r0, {r1}
    2030:	01000002 	tsteq	r0, r2
    2034:	02685c00 	rsbeq	r5, r8, #0, 24
    2038:	02740000 	rsbseq	r0, r4, #0, 0
    203c:	00190000 	andseq	r0, r9, r0
    2040:	2cf70075 	ldclcs	0, cr0, [r7], #468	; 0x1d4
    2044:	007625f7 	ldrshteq	r2, [r6], #-87	; 0xffffffa9
    2048:	25f72cf7 	ldrbcs	r2, [r7, #3319]!	; 0xcf7
    204c:	f720081e 			; <UNDEFINED> instruction: 0xf720081e
    2050:	2cf72525 	cfldr64cs	mvdx2, [r7], #148	; 0x94
    2054:	253300f7 	ldrcs	r0, [r3, #-247]!	; 0xffffff09
    2058:	0002749f 	muleq	r2, pc, r4	; <UNPREDICTABLE>
    205c:	00028800 	andeq	r8, r2, r0, lsl #16
    2060:	52000100 	andpl	r0, r0, #0
    2064:	00000288 	andeq	r0, r0, r8, lsl #5
    2068:	000002a0 	andeq	r0, r0, r0, lsr #5
    206c:	cc5c0001 	mrrcgt	0, 0, r0, ip, cr1
    2070:	d0000002 	andle	r0, r0, r2
    2074:	01000002 	tsteq	r0, r2
    2078:	02d05200 	sbcseq	r5, r0, #0, 4
    207c:	02e70000 	rsceq	r0, r7, #0, 0
    2080:	00010000 	andeq	r0, r1, r0
    2084:	0002e75c 	andeq	lr, r2, ip, asr r7
    2088:	0002ec00 	andeq	lr, r2, r0, lsl #24
    208c:	f3000400 	vshl.u8	d0, d0, d0
    2090:	ec9f5201 	lfm	f5, 4, [pc], {1}
    2094:	00000002 	andeq	r0, r0, r2
    2098:	01000003 	tsteq	r0, r3
    209c:	03005200 	movweq	r5, #512	; 0x200
    20a0:	03280000 			; <UNDEFINED> instruction: 0x03280000
    20a4:	00010000 	andeq	r0, r1, r0
    20a8:	0000005c 	andeq	r0, r0, ip, asr r0
    20ac:	00000000 	andeq	r0, r0, r0
    20b0:	04000400 	streq	r0, [r0], #-1024	; 0xfffffc00
    20b4:	00010000 	andeq	r0, r1, r0
    20b8:	a4000400 	strge	r0, [r0], #-1024	; 0xfffffc00
    20bc:	b0000000 	andlt	r0, r0, r0
    20c0:	01000000 	mrseq	r0, (UNDEF: 0)
    20c4:	027c5300 	rsbseq	r5, ip, #0, 6
    20c8:	02900000 	addseq	r0, r0, #0, 0
    20cc:	00010000 	andeq	r0, r1, r0
    20d0:	00029053 	andeq	r9, r2, r3, asr r0
    20d4:	00029c00 	andeq	r9, r2, r0, lsl #24
    20d8:	f3000400 	vshl.u8	d0, d0, d0
    20dc:	c09f5301 	addsgt	r5, pc, r1, lsl #6
    20e0:	cc000002 	stcgt	0, cr0, [r0], {2}
    20e4:	01000002 	tsteq	r0, r2
    20e8:	02f05300 	rscseq	r5, r0, #0, 6
    20ec:	03280000 			; <UNDEFINED> instruction: 0x03280000
    20f0:	00030000 	andeq	r0, r3, r0
    20f4:	009f7f08 	addseq	r7, pc, r8, lsl #30
    20f8:	00000000 	andeq	r0, r0, r0
    20fc:	04000000 	streq	r0, [r0], #-0
    2100:	04010000 	streq	r0, [r1], #-0
    2104:	00010000 	andeq	r0, r1, r0
    2108:	04000000 	streq	r0, [r0], #-0
    210c:	a4000000 	strge	r0, [r0], #-0
    2110:	b0000000 	andlt	r0, r0, r0
    2114:	01000000 	mrseq	r0, (UNDEF: 0)
    2118:	00b05200 	adcseq	r5, r0, r0, lsl #4
    211c:	015c0000 	cmpeq	ip, r0
    2120:	00040000 	andeq	r0, r4, r0
    2124:	9f7fa091 	svcls	0x007fa091
    2128:	0000027c 	andeq	r0, r0, ip, ror r2
    212c:	00000294 	muleq	r0, r4, r2
    2130:	a0910004 	addsge	r0, r1, r4
    2134:	02949f7f 	addseq	r9, r4, #508	; 0x1fc
    2138:	029c0000 	addseq	r0, ip, #0, 0
    213c:	00010000 	andeq	r0, r1, r0
    2140:	0002b45e 	andeq	fp, r2, lr, asr r4
    2144:	0002c000 	andeq	ip, r2, r0
    2148:	91000400 	tstls	r0, r0, lsl #8
    214c:	c09f7fa0 	addsgt	r7, pc, r0, lsr #31
    2150:	cc000002 	stcgt	0, cr0, [r0], {2}
    2154:	01000002 	tsteq	r0, r2
    2158:	02f05200 	rscseq	r5, r0, #0, 4
    215c:	03000000 	movweq	r0, #0
    2160:	00040000 	andeq	r0, r4, r0
    2164:	9f7fa091 	svcls	0x007fa091
    2168:	00000300 	andeq	r0, r0, r0, lsl #6
    216c:	00000328 	andeq	r0, r0, r8, lsr #6
    2170:	00520001 	subseq	r0, r2, r1
    2174:	00000000 	andeq	r0, r0, r0
    2178:	04000000 	streq	r0, [r0], #-0
    217c:	01010000 	mrseq	r0, (UNDEF: 1)
    2180:	03030101 	movweq	r0, #12545	; 0x3101
    2184:	00010402 	andeq	r0, r1, r2, lsl #8
    2188:	04000000 	streq	r0, [r0], #-0
    218c:	a4000000 	strge	r0, [r0], #-0
    2190:	b0000000 	andlt	r0, r0, r0
    2194:	01000000 	mrseq	r0, (UNDEF: 0)
    2198:	010c5e00 	tsteq	ip, r0, lsl #28
    219c:	010c0000 	mrseq	r0, (UNDEF: 12)
    21a0:	00010000 	andeq	r0, r1, r0
    21a4:	00010c55 	andeq	r0, r1, r5, asr ip
    21a8:	00012000 	andeq	r2, r1, r0
    21ac:	75000300 	strvc	r0, [r0, #-768]	; 0xfffffd00
    21b0:	01209f01 			; <UNDEFINED> instruction: 0x01209f01
    21b4:	012c0000 			; <UNDEFINED> instruction: 0x012c0000
    21b8:	00030000 	andeq	r0, r3, r0
    21bc:	2c9f0275 	lfmcs	f0, 4, [pc], {117}	; 0x75
    21c0:	30000001 	andcc	r0, r0, r1
    21c4:	03000001 	movweq	r0, #1
    21c8:	9f037500 	svcls	0x00037500
    21cc:	0000027c 	andeq	r0, r0, ip, ror r2
    21d0:	0000029c 	muleq	r0, ip, r2
    21d4:	a1910004 	orrsge	r0, r1, r4
    21d8:	02c09f7f 	sbceq	r9, r0, #508	; 0x1fc
    21dc:	02c80000 	sbceq	r0, r8, #0, 0
    21e0:	00010000 	andeq	r0, r1, r0
    21e4:	0002c85e 	andeq	ip, r2, lr, asr r8
    21e8:	0002cc00 	andeq	ip, r2, r0, lsl #24
    21ec:	56000100 	strpl	r0, [r0], -r0, lsl #2
    21f0:	000002f0 	strdeq	r0, [r0], -r0	; <UNPREDICTABLE>
    21f4:	000002fc 	strdeq	r0, [r0], -ip
    21f8:	a1910004 	orrsge	r0, r1, r4
    21fc:	02fc9f7f 	rscseq	r9, ip, #508	; 0x1fc
    2200:	03280000 			; <UNDEFINED> instruction: 0x03280000
    2204:	00010000 	andeq	r0, r1, r0
    2208:	0000005e 	andeq	r0, r0, lr, asr r0
	...
    2214:	01010101 	tsteq	r1, r1, lsl #2
    2218:	06020101 	streq	r0, [r2], -r1, lsl #2
    221c:	06000001 	streq	r0, [r0], -r1
    2220:	0000a800 	andeq	sl, r0, r0, lsl #16
    2224:	0000b000 	andeq	fp, r0, r0
    2228:	51000100 	mrspl	r0, (UNDEF: 16)
    222c:	0000010c 	andeq	r0, r0, ip, lsl #2
    2230:	0000011c 	andeq	r0, r0, ip, lsl r1
    2234:	1c5c0001 	mrrcne	0, 0, r0, ip, cr1
    2238:	2c000001 	stccs	0, cr0, [r0], {1}
    223c:	01000001 	tsteq	r0, r1
    2240:	012c5800 			; <UNDEFINED> instruction: 0x012c5800
    2244:	01300000 	teqeq	r0, r0
    2248:	00010000 	andeq	r0, r1, r0
    224c:	0001305c 	andeq	r3, r1, ip, asr r0
    2250:	00013000 	andeq	r3, r1, r0
    2254:	7c000300 	stcvc	3, cr0, [r0], {-0}
    2258:	027c9f01 	rsbseq	r9, ip, #1, 30
    225c:	029c0000 	addseq	r0, ip, #0, 0
    2260:	00020000 	andeq	r0, r2, r0
    2264:	02c09f31 	sbceq	r9, r0, #196	; 0xc4
    2268:	02cc0000 	sbceq	r0, ip, #0, 0
    226c:	00010000 	andeq	r0, r1, r0
    2270:	0002f051 	andeq	pc, r2, r1, asr r0	; <UNPREDICTABLE>
    2274:	00032800 	andeq	r2, r3, r0, lsl #16
    2278:	31000200 	mrscc	r0, R8_usr
    227c:	0000009f 	muleq	r0, pc, r0	; <UNPREDICTABLE>
    2280:	00000000 	andeq	r0, r0, r0
    2284:	06060100 	streq	r0, [r6], -r0, lsl #2
    2288:	00000101 	andeq	r0, r0, r1, lsl #2
    228c:	00015c01 	andeq	r5, r1, r1, lsl #24
    2290:	00015c00 	andeq	r5, r1, r0, lsl #24
    2294:	91000400 	tstls	r0, r0, lsl #8
    2298:	5c9f7fa0 	ldcpl	15, cr7, [pc], {160}	; 0xa0
    229c:	8c000001 	stchi	0, cr0, [r0], {1}
    22a0:	01000001 	tsteq	r0, r1
    22a4:	029c5200 	addseq	r5, ip, #0, 4
    22a8:	02a00000 	adceq	r0, r0, #0, 0
    22ac:	00010000 	andeq	r0, r1, r0
    22b0:	0002a05e 	andeq	sl, r2, lr, asr r0
    22b4:	0002ac00 	andeq	sl, r2, r0, lsl #24
    22b8:	52000100 	andpl	r0, r0, #0
	...
    22c4:	01000000 	mrseq	r0, (UNDEF: 0)
    22c8:	07010001 	streq	r0, [r1, -r1]
    22cc:	0000016c 	andeq	r0, r0, ip, ror #2
    22d0:	00000170 	andeq	r0, r0, r0, ror r1
    22d4:	7f730003 	svcvc	0x00730003
    22d8:	0001709f 	muleq	r1, pc, r0	; <UNPREDICTABLE>
    22dc:	00017800 	andeq	r7, r1, r0, lsl #16
    22e0:	53000100 	movwpl	r0, #256	; 0x100
    22e4:	00000178 	andeq	r0, r0, r8, ror r1
    22e8:	00000184 	andeq	r0, r0, r4, lsl #3
    22ec:	7f730003 	svcvc	0x00730003
    22f0:	00029c9f 	muleq	r2, pc, ip	; <UNPREDICTABLE>
    22f4:	00029c00 	andeq	r9, r2, r0, lsl #24
    22f8:	91000400 	tstls	r0, r0, lsl #8
    22fc:	009f7fa1 	addseq	r7, pc, r1, lsr #31
    2300:	00000000 	andeq	r0, r0, r0
    2304:	01000000 	mrseq	r0, (UNDEF: 0)
    2308:	5c010101 	stfpls	f0, [r1], {1}
    230c:	8c000001 	stchi	0, cr0, [r0], {1}
    2310:	03000001 	movweq	r0, #1
    2314:	9f800800 	svcls	0x00800800
    2318:	0000029c 	muleq	r0, ip, r2
    231c:	000002ac 	andeq	r0, r0, ip, lsr #5
    2320:	80080003 	andhi	r0, r8, r3
    2324:	0000009f 	muleq	r0, pc, r0	; <UNPREDICTABLE>
    2328:	00000000 	andeq	r0, r0, r0
    232c:	00000100 	andeq	r0, r0, r0, lsl #2
    2330:	00000101 	andeq	r0, r0, r1, lsl #2
    2334:	01010101 	tsteq	r1, r1, lsl #2
    2338:	5c010101 	stfpls	f0, [r1], {1}
    233c:	6c000001 	stcvs	0, cr0, [r0], {1}
    2340:	01000001 	tsteq	r0, r1
    2344:	016c5000 	cmneq	ip, r0
    2348:	016c0000 	cmneq	ip, r0
    234c:	00030000 	andeq	r0, r3, r0
    2350:	6c9f017c 	ldfvss	f0, [pc], {124}	; 0x7c
    2354:	78000001 	stmdavc	r0, {r0}
    2358:	03000001 	movweq	r0, #1
    235c:	9f027c00 	svcls	0x00027c00
    2360:	00000178 	andeq	r0, r0, r8, ror r1
    2364:	00000188 	andeq	r0, r0, r8, lsl #3
    2368:	017c0003 	cmneq	ip, r3
    236c:	0001889f 	muleq	r1, pc, r8	; <UNPREDICTABLE>
    2370:	00018c00 	andeq	r8, r1, r0, lsl #24
    2374:	7e000300 	cdpvc	3, 0, cr0, cr0, cr0, {0}
    2378:	029c9f01 	addseq	r9, ip, #1, 30
    237c:	02a40000 	adceq	r0, r4, #0, 0
    2380:	00010000 	andeq	r0, r1, r0
    2384:	0002a450 	andeq	sl, r2, r0, asr r4
    2388:	0002ac00 	andeq	sl, r2, r0, lsl #24
    238c:	7e000300 	cdpvc	3, 0, cr0, cr0, cr0, {0}
    2390:	00009f01 	andeq	r9, r0, r1, lsl #30
    2394:	00000000 	andeq	r0, r0, r0
    2398:	00040000 	andeq	r0, r4, r0
    239c:	01000004 	tsteq	r0, r4
    23a0:	0000015c 	andeq	r0, r0, ip, asr r1
    23a4:	00000160 	andeq	r0, r0, r0, ror #2
    23a8:	01710003 	cmneq	r1, r3
    23ac:	00029c9f 	muleq	r2, pc, ip	; <UNPREDICTABLE>
    23b0:	0002a000 	andeq	sl, r2, r0
    23b4:	32000200 	andcc	r0, r0, #0, 4
    23b8:	0002a09f 	muleq	r2, pc, r0	; <UNPREDICTABLE>
    23bc:	0002ac00 	andeq	sl, r2, r0, lsl #24
    23c0:	71000300 	mrsvc	r0, LR_irq
    23c4:	00009f01 	andeq	r9, r0, r1, lsl #30
    23c8:	00000000 	andeq	r0, r0, r0
    23cc:	00070000 	andeq	r0, r7, r0
    23d0:	015c0006 	cmpeq	ip, r6
    23d4:	01940000 	orrseq	r0, r4, r0
    23d8:	00010000 	andeq	r0, r1, r0
    23dc:	00029c50 	andeq	r9, r2, r0, asr ip
    23e0:	0002b400 	andeq	fp, r2, r0, lsl #8
    23e4:	50000100 	andpl	r0, r0, r0, lsl #2
	...
    23f0:	00010101 	andeq	r0, r1, r1, lsl #2
    23f4:	00000214 	andeq	r0, r0, r4, lsl r2
    23f8:	00000220 	andeq	r0, r0, r0, lsr #4
    23fc:	9f300002 	svcls	0x00300002
    2400:	00000220 	andeq	r0, r0, r0, lsr #4
    2404:	00000234 	andeq	r0, r0, r4, lsr r2
    2408:	9f310002 	svcls	0x00310002
	...
    2414:	00010100 	andeq	r0, r1, r0, lsl #2
    2418:	00010100 	andeq	r0, r1, r0, lsl #2
    241c:	00010100 	andeq	r0, r1, r0, lsl #2
    2420:	00010100 	andeq	r0, r1, r0, lsl #2
    2424:	00010100 	andeq	r0, r1, r0, lsl #2
    2428:	01020200 	mrseq	r0, R10_usr
    242c:	00000080 	andeq	r0, r0, r0, lsl #1
    2430:	00000080 	andeq	r0, r0, r0, lsl #1
    2434:	80530001 	subshi	r0, r3, r1
    2438:	8c000000 	stchi	0, cr0, [r0], {-0}
    243c:	03000000 	movweq	r0, #0
    2440:	9f047300 	svcls	0x00047300
    2444:	0000008c 	andeq	r0, r0, ip, lsl #1
    2448:	00000094 	muleq	r0, r4, r0
    244c:	94510001 	ldrbls	r0, [r1], #-1
    2450:	98000000 	stmdals	r0, {}	; <UNPREDICTABLE>
    2454:	03000000 	movweq	r0, #0
    2458:	9f087300 	svcls	0x00087300
    245c:	00000098 	muleq	r0, r8, r0
    2460:	000000a4 	andeq	r0, r0, r4, lsr #1
    2464:	a4510001 	ldrbge	r0, [r1], #-1
    2468:	a8000000 	stmdage	r0, {}	; <UNPREDICTABLE>
    246c:	03000000 	movweq	r0, #0
    2470:	9f0c7300 	svcls	0x000c7300
    2474:	000000a8 	andeq	r0, r0, r8, lsr #1
    2478:	000000b4 	strheq	r0, [r0], -r4
    247c:	b4510001 	ldrblt	r0, [r1], #-1
    2480:	b8000000 	stmdalt	r0, {}	; <UNPREDICTABLE>
    2484:	03000000 	movweq	r0, #0
    2488:	9f107300 	svcls	0x00107300
    248c:	000000b8 	strheq	r0, [r0], -r8
    2490:	000000c4 	andeq	r0, r0, r4, asr #1
    2494:	c4510001 	ldrbgt	r0, [r1], #-1
    2498:	c8000000 	stmdagt	r0, {}	; <UNPREDICTABLE>
    249c:	03000000 	movweq	r0, #0
    24a0:	9f147300 	svcls	0x00147300
    24a4:	000000c8 	andeq	r0, r0, r8, asr #1
    24a8:	000000d0 	ldrdeq	r0, [r0], -r0	; <UNPREDICTABLE>
    24ac:	d0510001 	subsle	r0, r1, r1
    24b0:	d4000000 	strle	r0, [r0], #-0
    24b4:	03000000 	movweq	r0, #0
    24b8:	9f047100 	svcls	0x00047100
	...
    24c4:	00d80002 	sbcseq	r0, r8, r2
    24c8:	00e80000 	rsceq	r0, r8, r0
    24cc:	00020000 	andeq	r0, r2, r0
    24d0:	00009f31 	andeq	r9, r0, r1, lsr pc
    24d4:	00000000 	andeq	r0, r0, r0
    24d8:	00040000 	andeq	r0, r4, r0
    24dc:	98680100 	stmdals	r8!, {r8}^
    24e0:	98700000 	ldmdals	r0!, {}^	; <UNPREDICTABLE>
    24e4:	00020000 	andeq	r0, r2, r0
    24e8:	98709f30 	ldmdals	r0!, {r4, r5, r8, r9, sl, fp, ip, pc}^
    24ec:	98700000 	ldmdals	r0!, {}^	; <UNPREDICTABLE>
    24f0:	00010000 	andeq	r0, r1, r0
    24f4:	00000053 	andeq	r0, r0, r3, asr r0
    24f8:	00000000 	andeq	r0, r0, r0
    24fc:	00000300 	andeq	r0, r0, r0, lsl #6
    2500:	00000000 	andeq	r0, r0, r0
    2504:	00987c00 	addseq	r7, r8, r0, lsl #24
    2508:	00988000 	addseq	r8, r8, r0
    250c:	30000200 	andcc	r0, r0, r0, lsl #4
    2510:	0098809f 	umullseq	r8, r8, pc, r0	; <UNPREDICTABLE>
    2514:	00988400 	addseq	r8, r8, r0, lsl #8
    2518:	53000100 	movwpl	r0, #256	; 0x100
    251c:	00009884 	andeq	r9, r0, r4, lsl #17
    2520:	00009888 	andeq	r9, r0, r8, lsl #17
    2524:	00730005 	rsbseq	r0, r3, r5
    2528:	889f2140 	ldmhi	pc, {r6, r8, sp}	; <UNPREDICTABLE>
    252c:	8c000098 	stchi	0, cr0, [r0], {152}	; 0x98
    2530:	01000098 	swpeq	r0, r8, [r0]	; <UNPREDICTABLE>
    2534:	00005300 	andeq	r5, r0, r0, lsl #6
    2538:	00000000 	andeq	r0, r0, r0
    253c:	00020000 	andeq	r0, r2, r0
    2540:	983c0000 	ldmdals	ip!, {}	; <UNPREDICTABLE>
    2544:	98400000 	stmdals	r0, {}^	; <UNPREDICTABLE>
    2548:	00020000 	andeq	r0, r2, r0
    254c:	98409f30 	stmdals	r0, {r4, r5, r8, r9, sl, fp, ip, pc}^
    2550:	98440000 	stmdals	r4, {}^	; <UNPREDICTABLE>
    2554:	00010000 	andeq	r0, r1, r0
    2558:	00000050 	andeq	r0, r0, r0, asr r0
    255c:	00000000 	andeq	r0, r0, r0
    2560:	00000200 	andeq	r0, r0, r0, lsl #4
    2564:	00000000 	andeq	r0, r0, r0
    2568:	00985400 	addseq	r5, r8, r0, lsl #8
    256c:	00985800 	addseq	r5, r8, r0, lsl #16
    2570:	30000200 	andcc	r0, r0, r0, lsl #4
    2574:	0098589f 	umullseq	r5, r8, pc, r8	; <UNPREDICTABLE>
    2578:	00985c00 	addseq	r5, r8, r0, lsl #24
    257c:	53000100 	movwpl	r0, #256	; 0x100
    2580:	0000985c 	andeq	r9, r0, ip, asr r8
    2584:	00009860 	andeq	r9, r0, r0, ror #16
    2588:	00730005 	rsbseq	r0, r3, r5
    258c:	609f2140 	addsvs	r2, pc, r0, asr #2
    2590:	68000098 	stmdavs	r0, {r3, r4, r7}
    2594:	01000098 	swpeq	r0, r8, [r0]	; <UNPREDICTABLE>
    2598:	00005300 	andeq	r5, r0, r0, lsl #6
	...
    25a4:	00c80000 	sbceq	r0, r8, r0
    25a8:	00d80000 	sbcseq	r0, r8, r0
    25ac:	00010000 	andeq	r0, r1, r0
    25b0:	0000d850 	andeq	sp, r0, r0, asr r8
    25b4:	00011c00 	andeq	r1, r1, r0, lsl #24
    25b8:	f3000400 	vshl.u8	d0, d0, d0
    25bc:	009f5001 	addseq	r5, pc, r1
    25c0:	00000000 	andeq	r0, r0, r0
    25c4:	02000000 	andeq	r0, r0, #0, 0
    25c8:	c8000000 	stmdagt	r0, {}	; <UNPREDICTABLE>
    25cc:	d8000000 	stmdale	r0, {}	; <UNPREDICTABLE>
    25d0:	07000000 	streq	r0, [r0, -r0]
    25d4:	0a007000 	beq	1e5dc <__bss_end__+0x1367c>
    25d8:	9f1e03e8 	svcls	0x001e03e8
    25dc:	000000d8 	ldrdeq	r0, [r0], -r8
    25e0:	0000011c 	andeq	r0, r0, ip, lsl r1
    25e4:	01f30008 	mvnseq	r0, r8
    25e8:	03e80a50 	mvneq	r0, #80, 20	; 0x50000
    25ec:	00009f1e 	andeq	r9, r0, lr, lsl pc
	...
    25f8:	000000dc 	ldrdeq	r0, [r0], -ip
    25fc:	0000011c 	andeq	r0, r0, ip, lsl r1
    2600:	00540001 	subseq	r0, r4, r1
    2604:	00000000 	andeq	r0, r0, r0
    2608:	01000000 	mrseq	r0, (UNDEF: 0)
    260c:	0000f000 	andeq	pc, r0, r0
    2610:	00011c00 	andeq	r1, r1, r0, lsl #24
    2614:	56000100 	strpl	r0, [r0], -r0, lsl #2
	...
    2624:	000000ec 	andeq	r0, r0, ip, ror #1
    2628:	000000ef 	andeq	r0, r0, pc, ror #1
    262c:	ef500001 	svc	0x00500001
    2630:	1c000000 	stcne	0, cr0, [r0], {-0}
    2634:	01000001 	tsteq	r0, r1
    2638:	00005600 	andeq	r5, r0, r0, lsl #12
	...
    2644:	00000104 	andeq	r0, r0, r4, lsl #2
    2648:	0000010b 	andeq	r0, r0, fp, lsl #2
    264c:	00500001 	subseq	r0, r0, r1
	...
    2658:	20000000 	andcs	r0, r0, r0
    265c:	23000000 	movwcs	r0, #0
    2660:	01000000 	mrseq	r0, (UNDEF: 0)
    2664:	00235000 	eoreq	r5, r3, r0
    2668:	00300000 	eorseq	r0, r0, r0
    266c:	00010000 	andeq	r0, r1, r0
    2670:	00000054 	andeq	r0, r0, r4, asr r0
	...
    267c:	00003000 	andeq	r3, r0, r0
    2680:	00003b00 	andeq	r3, r0, r0, lsl #22
    2684:	50000100 	andpl	r0, r0, r0, lsl #2
    2688:	0000003b 	andeq	r0, r0, fp, lsr r0
    268c:	00000078 	andeq	r0, r0, r8, ror r0
    2690:	00560001 	subseq	r0, r6, r1
    2694:	00000000 	andeq	r0, r0, r0
    2698:	01000000 	mrseq	r0, (UNDEF: 0)
    269c:	00004c00 	andeq	r4, r0, r0, lsl #24
    26a0:	00007800 	andeq	r7, r0, r0, lsl #16
    26a4:	55000100 	strpl	r0, [r0, #-256]	; 0xffffff00
	...
    26b4:	00000048 	andeq	r0, r0, r8, asr #32
    26b8:	0000004b 	andeq	r0, r0, fp, asr #32
    26bc:	4b500001 	blmi	14026c8 <__bss_end__+0x13f7768>
    26c0:	78000000 	stmdavc	r0, {}	; <UNPREDICTABLE>
    26c4:	01000000 	mrseq	r0, (UNDEF: 0)
    26c8:	00005500 	andeq	r5, r0, r0, lsl #10
	...
    26d4:	00000060 	andeq	r0, r0, r0, rrx
    26d8:	00000067 	andeq	r0, r0, r7, rrx
    26dc:	00500001 	subseq	r0, r0, r1
	...
    26e8:	78000000 	stmdavc	r0, {}	; <UNPREDICTABLE>
    26ec:	84000000 	strhi	r0, [r0], #-0
    26f0:	01000000 	mrseq	r0, (UNDEF: 0)
    26f4:	00845000 	addeq	r5, r4, r0
    26f8:	00c80000 	sbceq	r0, r8, r0
    26fc:	00040000 	andeq	r0, r4, r0
    2700:	9f5001f3 	svcls	0x005001f3
	...
    270c:	00880000 	addeq	r0, r8, r0
    2710:	00c80000 	sbceq	r0, r8, r0
    2714:	00010000 	andeq	r0, r1, r0
    2718:	00000054 	andeq	r0, r0, r4, asr r0
    271c:	00000000 	andeq	r0, r0, r0
    2720:	9c000100 	stflss	f0, [r0], {-0}
    2724:	c8000000 	stmdagt	r0, {}	; <UNPREDICTABLE>
    2728:	01000000 	mrseq	r0, (UNDEF: 0)
    272c:	00005600 	andeq	r5, r0, r0, lsl #12
	...
    2738:	00980000 	addseq	r0, r8, r0
    273c:	009b0000 	addseq	r0, fp, r0
    2740:	00010000 	andeq	r0, r1, r0
    2744:	00009b50 	andeq	r9, r0, r0, asr fp
    2748:	0000c800 	andeq	ip, r0, r0, lsl #16
    274c:	56000100 	strpl	r0, [r0], -r0, lsl #2
	...
    2758:	00b00000 	adcseq	r0, r0, r0
    275c:	00b70000 	adcseq	r0, r7, r0
    2760:	00010000 	andeq	r0, r1, r0
    2764:	00000050 	andeq	r0, r0, r0, asr r0
	...
    2770:	00015800 	andeq	r5, r1, r0, lsl #16
    2774:	00016300 	andeq	r6, r1, r0, lsl #6
    2778:	50000100 	andpl	r0, r0, r0, lsl #2
    277c:	00000163 	andeq	r0, r0, r3, ror #2
    2780:	00000188 	andeq	r0, r0, r8, lsl #3
    2784:	00540001 	subseq	r0, r4, r1
	...
    2790:	00014800 	andeq	r4, r1, r0, lsl #16
    2794:	00015800 	andeq	r5, r1, r0, lsl #16
    2798:	54000100 	strpl	r0, [r0], #-256	; 0xffffff00
	...
    27ac:	0000000f 	andeq	r0, r0, pc
    27b0:	0f500001 	svceq	0x00500001
    27b4:	20000000 	andcs	r0, r0, r0
    27b8:	01000000 	mrseq	r0, (UNDEF: 0)
    27bc:	00005400 	andeq	r5, r0, r0, lsl #8
	...
    27cc:	000f0000 	andeq	r0, pc, r0
    27d0:	00010000 	andeq	r0, r1, r0
    27d4:	00000f51 	andeq	r0, r0, r1, asr pc
    27d8:	00002000 	andeq	r2, r0, r0
    27dc:	55000100 	strpl	r0, [r0, #-256]	; 0xffffff00
	...
    27ec:	00000020 	andeq	r0, r0, r0, lsr #32
    27f0:	0000002f 	andeq	r0, r0, pc, lsr #32
    27f4:	2f500001 	svccs	0x00500001
    27f8:	40000000 	andmi	r0, r0, r0
    27fc:	01000000 	mrseq	r0, (UNDEF: 0)
    2800:	00005400 	andeq	r5, r0, r0, lsl #8
	...
    280c:	00200000 	eoreq	r0, r0, r0
    2810:	002f0000 	eoreq	r0, pc, r0
    2814:	00010000 	andeq	r0, r1, r0
    2818:	00002f51 	andeq	r2, r0, r1, asr pc
    281c:	00004000 	andeq	r4, r0, r0
    2820:	55000100 	strpl	r0, [r0, #-256]	; 0xffffff00
	...
    2830:	03500000 	cmpeq	r0, #0, 0
    2834:	03980000 	orrseq	r0, r8, #0, 0
    2838:	00010000 	andeq	r0, r1, r0
    283c:	00039850 	andeq	r9, r3, r0, asr r8
    2840:	00039b00 	andeq	r9, r3, r0, lsl #22
    2844:	91000200 	mrsls	r0, R8_usr
    2848:	00039b68 	andeq	r9, r3, r8, ror #22
    284c:	0003b000 	andeq	fp, r3, r0
    2850:	f3000400 	vshl.u8	d0, d0, d0
    2854:	009f5001 	addseq	r5, pc, r1
	...
    2870:	20000000 	andcs	r0, r0, r0
    2874:	7b000002 	blvc	2884 <__code_start__-0x577c>
    2878:	01000002 	tsteq	r0, r2
    287c:	027b5000 	rsbseq	r5, fp, #0, 0
    2880:	02840000 	addeq	r0, r4, #0, 0
    2884:	00040000 	andeq	r0, r4, r0
    2888:	9f5001f3 	svcls	0x005001f3
    288c:	00000284 	andeq	r0, r0, r4, lsl #5
    2890:	0000029c 	muleq	r0, ip, r2
    2894:	9c500001 	mrrcls	0, 0, r0, r0, cr1	; <UNPREDICTABLE>
    2898:	a4000002 	strge	r0, [r0], #-2
    289c:	04000002 	streq	r0, [r0], #-2
    28a0:	5001f300 	andpl	pc, r1, r0, lsl #6
    28a4:	0002a49f 	muleq	r2, pc, r4	; <UNPREDICTABLE>
    28a8:	0002a700 	andeq	sl, r2, r0, lsl #14
    28ac:	50000100 	andpl	r0, r0, r0, lsl #2
    28b0:	000002a7 	andeq	r0, r0, r7, lsr #5
    28b4:	000002c8 	andeq	r0, r0, r8, asr #5
    28b8:	01f30004 	mvnseq	r0, r4
    28bc:	02c89f50 	sbceq	r9, r8, #80, 30	; 0x140
    28c0:	02e00000 	rsceq	r0, r0, #0, 0
    28c4:	00010000 	andeq	r0, r1, r0
    28c8:	0002e050 	andeq	lr, r2, r0, asr r0
    28cc:	0002e800 	andeq	lr, r2, r0, lsl #16
    28d0:	f3000400 	vshl.u8	d0, d0, d0
    28d4:	e89f5001 	ldm	pc, {r0, ip, lr}	; <UNPREDICTABLE>
    28d8:	eb000002 	bl	28e8 <__code_start__-0x5718>
    28dc:	01000002 	tsteq	r0, r2
    28e0:	02eb5000 	rsceq	r5, fp, #0, 0
    28e4:	03380000 	teqeq	r8, #0, 0
    28e8:	00040000 	andeq	r0, r4, r0
    28ec:	9f5001f3 	svcls	0x005001f3
	...
    290c:	00000220 	andeq	r0, r0, r0, lsr #4
    2910:	00000244 	andeq	r0, r0, r4, asr #4
    2914:	44510001 	ldrbmi	r0, [r1], #-1
    2918:	68000002 	stmdavs	r0, {r1}
    291c:	01000002 	tsteq	r0, r2
    2920:	02685100 	rsbeq	r5, r8, #0
    2924:	027b0000 	rsbseq	r0, fp, #0, 0
    2928:	00030000 	andeq	r0, r3, r0
    292c:	7b9f0171 	blvc	fe7c2ef8 <__bss_end__+0xfe7b7f98>
    2930:	84000002 	strhi	r0, [r0], #-2
    2934:	17000002 	strne	r0, [r0, -r2]
    2938:	01f33800 	mvnseq	r3, r0, lsl #16
    293c:	5101f351 	tstpl	r1, r1, asr r3	; <UNPREDICTABLE>
    2940:	22244b40 	eorcs	r4, r4, #64, 22	; 0x10000
    2944:	0000080c 	andeq	r0, r0, ip, lsl #16
    2948:	01282d80 	smlawbeq	r8, r0, sp, r2
    294c:	9f131600 	svcls	0x00131600
    2950:	00000284 	andeq	r0, r0, r4, lsl #5
    2954:	00000298 	muleq	r0, r8, r2
    2958:	98510001 	ldmdals	r1, {r0}^
    295c:	a4000002 	strge	r0, [r0], #-2
    2960:	04000002 	streq	r0, [r0], #-2
    2964:	5101f300 	mrspl	pc, SP_irq	; <UNPREDICTABLE>
    2968:	0002a49f 	muleq	r2, pc, r4	; <UNPREDICTABLE>
    296c:	0002a700 	andeq	sl, r2, r0, lsl #14
    2970:	51000100 	mrspl	r0, (UNDEF: 16)
    2974:	000002a7 	andeq	r0, r0, r7, lsr #5
    2978:	000002c8 	andeq	r0, r0, r8, asr #5
    297c:	01f30004 	mvnseq	r0, r4
    2980:	02c89f51 	sbceq	r9, r8, #324	; 0x144
    2984:	02dc0000 	sbcseq	r0, ip, #0, 0
    2988:	00010000 	andeq	r0, r1, r0
    298c:	0002dc51 	andeq	sp, r2, r1, asr ip
    2990:	00033800 	andeq	r3, r3, r0, lsl #16
    2994:	38001700 	stmdacc	r0, {r8, r9, sl, ip}
    2998:	f35101f3 	vbsl	q8, <illegal reg q8.5>, <illegal reg q9.5>
    299c:	4b405101 	blmi	1016da8 <__bss_end__+0x100be48>
    29a0:	080c2224 	stmdaeq	ip, {r2, r5, r9, sp}
    29a4:	2d800000 	stccs	0, cr0, [r0]
    29a8:	16000128 	strne	r0, [r0], -r8, lsr #2
    29ac:	00009f13 	andeq	r9, r0, r3, lsl pc
	...
    29c0:	024c0000 	subeq	r0, ip, #0, 0
    29c4:	025c0000 	subseq	r0, ip, #0, 0
    29c8:	00010000 	andeq	r0, r1, r0
    29cc:	00025c52 	andeq	r5, r2, r2, asr ip
    29d0:	00026400 	andeq	r6, r2, r0, lsl #8
    29d4:	03000500 	movweq	r0, #1280	; 0x500
    29d8:	0000ab28 	andeq	sl, r0, r8, lsr #22
    29dc:	00000264 	andeq	r0, r0, r4, ror #4
    29e0:	0000027b 	andeq	r0, r0, fp, ror r2
    29e4:	c8530001 	ldmdagt	r3, {r0}^
    29e8:	d8000002 	stmdale	r0, {r1}
    29ec:	01000002 	tsteq	r0, r2
    29f0:	02d85200 	sbcseq	r5, r8, #0, 4
    29f4:	02e30000 	rsceq	r0, r3, #0, 0
    29f8:	00050000 	andeq	r0, r5, r0
    29fc:	00ab2803 	adceq	r2, fp, r3, lsl #16
    2a00:	0002e800 	andeq	lr, r2, r0, lsl #16
    2a04:	0002eb00 	andeq	lr, r2, r0, lsl #22
    2a08:	53000100 	movwpl	r0, #256	; 0x100
	...
    2a14:	02300004 	eorseq	r0, r0, #4, 0
    2a18:	02340000 	eorseq	r0, r4, #0, 0
    2a1c:	00010000 	andeq	r0, r1, r0
    2a20:	00000051 	andeq	r0, r0, r1, asr r0
    2a24:	00000000 	andeq	r0, r0, r0
    2a28:	3c000200 	sfmcc	f0, 4, [r0], {-0}
    2a2c:	44000002 	strmi	r0, [r0], #-2
    2a30:	02000002 	andeq	r0, r0, #2, 0
    2a34:	009f3800 	addseq	r3, pc, r0, lsl #16
    2a38:	00000000 	andeq	r0, r0, r0
    2a3c:	02000000 	andeq	r0, r0, #0, 0
    2a40:	00023c00 	andeq	r3, r2, r0, lsl #24
    2a44:	00024400 	andeq	r4, r2, r0, lsl #8
    2a48:	51000100 	mrspl	r0, (UNDEF: 16)
	...
    2a54:	00000001 	andeq	r0, r0, r1
    2a58:	024c0000 	subeq	r0, ip, #0, 0
    2a5c:	02640000 	rsbeq	r0, r4, #0, 0
    2a60:	00010000 	andeq	r0, r1, r0
    2a64:	0002c851 	andeq	ip, r2, r1, asr r8
    2a68:	0002dc00 	andeq	sp, r2, r0, lsl #24
    2a6c:	51000100 	mrspl	r0, (UNDEF: 16)
    2a70:	000002dc 	ldrdeq	r0, [r0], -ip
    2a74:	000002e8 	andeq	r0, r0, r8, ror #5
    2a78:	f3380017 	vqadd.u64	d0, d8, d7
    2a7c:	01f35101 	mvnseq	r5, r1, lsl #2
    2a80:	244b4051 	strbcs	r4, [fp], #-81	; 0xffffffaf
    2a84:	00080c22 	andeq	r0, r8, r2, lsr #24
    2a88:	282d8000 	stmdacs	sp!, {pc}
    2a8c:	13160001 	tstne	r6, #1, 0
    2a90:	0000009f 	muleq	r0, pc, r0	; <UNPREDICTABLE>
    2a94:	00000000 	andeq	r0, r0, r0
    2a98:	00000100 	andeq	r0, r0, r0, lsl #2
    2a9c:	00000000 	andeq	r0, r0, r0
    2aa0:	00024c00 	andeq	r4, r2, r0, lsl #24
    2aa4:	00025c00 	andeq	r5, r2, r0, lsl #24
    2aa8:	52000100 	andpl	r0, r0, #0
    2aac:	0000025c 	andeq	r0, r0, ip, asr r2
    2ab0:	00000264 	andeq	r0, r0, r4, ror #4
    2ab4:	28030005 	stmdacs	r3, {r0, r2}
    2ab8:	c80000ab 	stmdagt	r0, {r0, r1, r3, r5, r7}
    2abc:	d8000002 	stmdale	r0, {r1}
    2ac0:	01000002 	tsteq	r0, r2
    2ac4:	02d85200 	sbcseq	r5, r8, #0, 4
    2ac8:	02e30000 	rsceq	r0, r3, #0, 0
    2acc:	00050000 	andeq	r0, r5, r0
    2ad0:	00ab2803 	adceq	r2, fp, r3, lsl #16
	...
    2adc:	4c000400 	cfstrsmi	mvf0, [r0], {-0}
    2ae0:	50000002 	andpl	r0, r0, r2
    2ae4:	01000002 	tsteq	r0, r2
    2ae8:	00005100 	andeq	r5, r0, r0, lsl #2
    2aec:	00000000 	andeq	r0, r0, r0
    2af0:	00030000 	andeq	r0, r3, r0
    2af4:	00000264 	andeq	r0, r0, r4, ror #4
    2af8:	00000268 	andeq	r0, r0, r8, ror #4
    2afc:	00510001 	subseq	r0, r1, r1
    2b00:	00000000 	andeq	r0, r0, r0
    2b04:	03000000 	movweq	r0, #0
    2b08:	00026400 	andeq	r6, r2, r0, lsl #8
    2b0c:	00026800 	andeq	r6, r2, r0, lsl #16
    2b10:	53000100 	movwpl	r0, #256	; 0x100
	...
    2b24:	000001bc 			; <UNDEFINED> instruction: 0x000001bc
    2b28:	000001d3 	ldrdeq	r0, [r0], -r3
    2b2c:	d3500001 	cmple	r0, #1, 0
    2b30:	f0000001 			; <UNDEFINED> instruction: 0xf0000001
    2b34:	01000001 	tsteq	r0, r1
    2b38:	01f05400 	mvnseq	r5, r0, lsl #8
    2b3c:	02080000 	andeq	r0, r8, #0, 0
    2b40:	00010000 	andeq	r0, r1, r0
    2b44:	00020850 	andeq	r0, r2, r0, asr r8
    2b48:	00022000 	andeq	r2, r2, r0
    2b4c:	54000100 	strpl	r0, [r0], #-256	; 0xffffff00
	...
    2b5c:	000001d8 	ldrdeq	r0, [r0], -r8
    2b60:	000001e3 	andeq	r0, r0, r3, ror #3
    2b64:	e3500001 	cmp	r0, #1, 0
    2b68:	f0000001 			; <UNDEFINED> instruction: 0xf0000001
    2b6c:	01000001 	tsteq	r0, r1
    2b70:	00005500 	andeq	r5, r0, r0, lsl #10
	...
    2b88:	01240000 			; <UNDEFINED> instruction: 0x01240000
    2b8c:	01380000 	teqeq	r8, r0
    2b90:	00010000 	andeq	r0, r1, r0
    2b94:	00013850 	andeq	r3, r1, r0, asr r8
    2b98:	00013c00 	andeq	r3, r1, r0, lsl #24
    2b9c:	70000300 	andvc	r0, r0, r0, lsl #6
    2ba0:	013c9f79 	teqeq	ip, r9, ror pc
    2ba4:	01600000 	cmneq	r0, r0
    2ba8:	00010000 	andeq	r0, r1, r0
    2bac:	00016053 	andeq	r6, r1, r3, asr r0
    2bb0:	00017800 	andeq	r7, r1, r0, lsl #16
    2bb4:	50000100 	andpl	r0, r0, r0, lsl #2
    2bb8:	00000178 	andeq	r0, r0, r8, ror r1
    2bbc:	00000180 	andeq	r0, r0, r0, lsl #3
    2bc0:	01f30004 	mvnseq	r0, r4
    2bc4:	01809f50 	orreq	r9, r0, r0, asr pc
    2bc8:	01900000 	orrseq	r0, r0, r0
    2bcc:	00010000 	andeq	r0, r1, r0
    2bd0:	00019053 	andeq	r9, r1, r3, asr r0
    2bd4:	00019f00 	andeq	r9, r1, r0, lsl #30
    2bd8:	91000200 	mrsls	r0, R8_usr
    2bdc:	00019f68 	andeq	r9, r1, r8, ror #30
    2be0:	0001bc00 	andeq	fp, r1, r0, lsl #24
    2be4:	f3000900 	vmls.i8	d0, d0, d0
    2be8:	07235001 	streq	r5, [r3, -r1]!
    2bec:	9f1af809 	svcls	0x001af809
	...
    2bfc:	00000144 	andeq	r0, r0, r4, asr #2
    2c00:	00000160 	andeq	r0, r0, r0, ror #2
    2c04:	80500001 	subshi	r0, r0, r1
    2c08:	9c000001 	stcls	0, cr0, [r0], {1}
    2c0c:	01000001 	tsteq	r0, r1
    2c10:	00005000 	andeq	r5, r0, r0
    2c14:	00000000 	andeq	r0, r0, r0
    2c18:	00030000 	andeq	r0, r3, r0
    2c1c:	00000134 	andeq	r0, r0, r4, lsr r1
    2c20:	0000013c 	andeq	r0, r0, ip, lsr r1
    2c24:	9f380002 	svcls	0x00380002
	...
    2c30:	00000003 	andeq	r0, r0, r3
    2c34:	00000134 	andeq	r0, r0, r4, lsr r1
    2c38:	00000138 	andeq	r0, r0, r8, lsr r1
    2c3c:	38500001 	ldmdacc	r0, {r0}^
    2c40:	3c000001 	stccc	0, cr0, [r0], {1}
    2c44:	03000001 	movweq	r0, #1
    2c48:	9f797000 	svcls	0x00797000
	...
    2c60:	00300000 	eorseq	r0, r0, r0
    2c64:	00600000 	rsbeq	r0, r0, r0
    2c68:	00010000 	andeq	r0, r1, r0
    2c6c:	00006050 	andeq	r6, r0, r0, asr r0
    2c70:	00006c00 	andeq	r6, r0, r0, lsl #24
    2c74:	03000500 	movweq	r0, #1280	; 0x500
    2c78:	0000ab28 	andeq	sl, r0, r8, lsr #22
    2c7c:	0000006c 	andeq	r0, r0, ip, rrx
    2c80:	00000084 	andeq	r0, r0, r4, lsl #1
    2c84:	84500001 	ldrbhi	r0, [r0], #-1
    2c88:	8c000000 	stchi	0, cr0, [r0], {-0}
    2c8c:	04000000 	streq	r0, [r0], #-0
    2c90:	5001f300 	andpl	pc, r1, r0, lsl #6
    2c94:	00008c9f 	muleq	r0, pc, ip	; <UNPREDICTABLE>
    2c98:	0000ac00 	andeq	sl, r0, r0, lsl #24
    2c9c:	50000100 	andpl	r0, r0, r0, lsl #2
    2ca0:	000000ac 	andeq	r0, r0, ip, lsr #1
    2ca4:	000000af 	andeq	r0, r0, pc, lsr #1
    2ca8:	68910002 	ldmvs	r1, {r1}
    2cac:	000000af 	andeq	r0, r0, pc, lsr #1
    2cb0:	000000cc 	andeq	r0, r0, ip, asr #1
    2cb4:	01f30004 	mvnseq	r0, r4
    2cb8:	00009f50 	andeq	r9, r0, r0, asr pc
	...
    2cc8:	00300000 	eorseq	r0, r0, r0
    2ccc:	00800000 	addeq	r0, r0, r0
    2cd0:	00010000 	andeq	r0, r1, r0
    2cd4:	00008051 	andeq	r8, r0, r1, asr r0
    2cd8:	00008c00 	andeq	r8, r0, r0, lsl #24
    2cdc:	f3000400 	vshl.u8	d0, d0, d0
    2ce0:	8c9f5101 	ldfhis	f5, [pc], {1}
    2ce4:	a8000000 	stmdage	r0, {}	; <UNPREDICTABLE>
    2ce8:	01000000 	mrseq	r0, (UNDEF: 0)
    2cec:	00a85100 	adceq	r5, r8, r0, lsl #2
    2cf0:	00cc0000 	sbceq	r0, ip, r0
    2cf4:	00040000 	andeq	r0, r4, r0
    2cf8:	9f5101f3 	svcls	0x005101f3
	...
    2d04:	00000001 	andeq	r0, r0, r1
	...
    2d10:	00380000 	eorseq	r0, r8, r0
    2d14:	00600000 	rsbeq	r0, r0, r0
    2d18:	00010000 	andeq	r0, r1, r0
    2d1c:	00006050 	andeq	r6, r0, r0, asr r0
    2d20:	00006c00 	andeq	r6, r0, r0, lsl #24
    2d24:	03000500 	movweq	r0, #1280	; 0x500
    2d28:	0000ab28 	andeq	sl, r0, r8, lsr #22
    2d2c:	0000006c 	andeq	r0, r0, ip, rrx
    2d30:	00000084 	andeq	r0, r0, r4, lsl #1
    2d34:	84500001 	ldrbhi	r0, [r0], #-1
    2d38:	8c000000 	stchi	0, cr0, [r0], {-0}
    2d3c:	04000000 	streq	r0, [r0], #-0
    2d40:	5001f300 	andpl	pc, r1, r0, lsl #6
    2d44:	00008c9f 	muleq	r0, pc, ip	; <UNPREDICTABLE>
    2d48:	0000ac00 	andeq	sl, r0, r0, lsl #24
    2d4c:	50000100 	andpl	r0, r0, r0, lsl #2
    2d50:	000000ac 	andeq	r0, r0, ip, lsr #1
    2d54:	000000af 	andeq	r0, r0, pc, lsr #1
    2d58:	68910002 	ldmvs	r1, {r1}
    2d5c:	000000af 	andeq	r0, r0, pc, lsr #1
    2d60:	000000cc 	andeq	r0, r0, ip, asr #1
    2d64:	01f30004 	mvnseq	r0, r4
    2d68:	00009f50 	andeq	r9, r0, r0, asr pc
	...
    2d78:	00000170 	andeq	r0, r0, r0, ror r1
    2d7c:	0000017c 	andeq	r0, r0, ip, ror r1
    2d80:	7c500001 	mrrcvc	0, 0, r0, r0, cr1	; <UNPREDICTABLE>
    2d84:	88000001 	stmdahi	r0, {r0}
    2d88:	01000001 	tsteq	r0, r1
    2d8c:	01885400 	orreq	r5, r8, r0, lsl #8
    2d90:	01980000 	orrseq	r0, r8, r0
    2d94:	00040000 	andeq	r0, r4, r0
    2d98:	9f5001f3 	svcls	0x005001f3
	...
    2dac:	01780000 	cmneq	r8, r0
    2db0:	017c0000 	cmneq	ip, r0
    2db4:	000b0000 	andeq	r0, fp, r0
    2db8:	25350070 	ldrcs	r0, [r5, #-112]!	; 0xffffff90
    2dbc:	8080b423 	addhi	fp, r0, r3, lsr #8
    2dc0:	7c9f0281 	lfmvc	f0, 4, [pc], {129}	; 0x81
    2dc4:	80000001 	andhi	r0, r0, r1
    2dc8:	0b000001 	bleq	2dd4 <__code_start__-0x522c>
    2dcc:	35007400 	strcc	r7, [r0, #-1024]	; 0xfffffc00
    2dd0:	80b42325 	adcshi	r2, r4, r5, lsr #6
    2dd4:	9f028180 	svcls	0x00028180
    2dd8:	00000180 	andeq	r0, r0, r0, lsl #3
    2ddc:	00000183 	andeq	r0, r0, r3, lsl #3
    2de0:	83500001 	cmphi	r0, #1, 0
    2de4:	88000001 	stmdahi	r0, {r0}
    2de8:	0b000001 	bleq	2df4 <__code_start__-0x520c>
    2dec:	35007400 	strcc	r7, [r0, #-1024]	; 0xfffffc00
    2df0:	80b42325 	adcshi	r2, r4, r5, lsr #6
    2df4:	9f028180 	svcls	0x00028180
    2df8:	00000188 	andeq	r0, r0, r8, lsl #3
    2dfc:	00000198 	muleq	r0, r8, r1
    2e00:	01f3000c 	mvnseq	r0, ip
    2e04:	23253550 			; <UNDEFINED> instruction: 0x23253550
    2e08:	818080b4 	strhhi	r8, [r0, r4]
    2e0c:	00009f02 	andeq	r9, r0, r2, lsl #30
    2e10:	00000000 	andeq	r0, r0, r0
    2e14:	00010000 	andeq	r0, r1, r0
    2e18:	00000000 	andeq	r0, r0, r0
    2e1c:	00000178 	andeq	r0, r0, r8, ror r1
    2e20:	0000017c 	andeq	r0, r0, ip, ror r1
    2e24:	00700005 	rsbseq	r0, r0, r5
    2e28:	7c9f1a4f 	vldmiavc	pc, {s2-s80}
    2e2c:	88000001 	stmdahi	r0, {r0}
    2e30:	05000001 	streq	r0, [r0, #-1]
    2e34:	4f007400 	svcmi	0x00007400
    2e38:	01889f1a 	orreq	r9, r8, sl, lsl pc
    2e3c:	01980000 	orrseq	r0, r8, r0
    2e40:	00010000 	andeq	r0, r1, r0
    2e44:	00000054 	andeq	r0, r0, r4, asr r0
	...
    2e58:	00014000 	andeq	r4, r1, r0
    2e5c:	00015400 	andeq	r5, r1, r0, lsl #8
    2e60:	50000100 	andpl	r0, r0, r0, lsl #2
    2e64:	00000154 	andeq	r0, r0, r4, asr r1
    2e68:	00000158 	andeq	r0, r0, r8, asr r1
    2e6c:	58510001 	ldmdapl	r1, {r0}^
    2e70:	5c000001 	stcpl	0, cr0, [r0], {1}
    2e74:	04000001 	streq	r0, [r0], #-1
    2e78:	5001f300 	andpl	pc, r1, r0, lsl #6
    2e7c:	00015c9f 	muleq	r1, pc, ip	; <UNPREDICTABLE>
    2e80:	00016000 	andeq	r6, r1, r0
    2e84:	50000100 	andpl	r0, r0, r0, lsl #2
    2e88:	00000160 	andeq	r0, r0, r0, ror #2
    2e8c:	00000164 	andeq	r0, r0, r4, ror #2
    2e90:	64510001 	ldrbvs	r0, [r1], #-1
    2e94:	70000001 	andvc	r0, r0, r1
    2e98:	04000001 	streq	r0, [r0], #-1
    2e9c:	5001f300 	andpl	pc, r1, r0, lsl #6
    2ea0:	0000009f 	muleq	r0, pc, r0	; <UNPREDICTABLE>
	...
    2eac:	00014000 	andeq	r4, r1, r0
    2eb0:	00014c00 	andeq	r4, r1, r0, lsl #24
    2eb4:	51000100 	mrspl	r0, (UNDEF: 16)
    2eb8:	0000014c 	andeq	r0, r0, ip, asr #2
    2ebc:	00000170 	andeq	r0, r0, r0, ror r1
    2ec0:	01f30004 	mvnseq	r0, r4
    2ec4:	00009f51 	andeq	r9, r0, r1, asr pc
    2ec8:	00000000 	andeq	r0, r0, r0
    2ecc:	00010000 	andeq	r0, r1, r0
    2ed0:	00000000 	andeq	r0, r0, r0
    2ed4:	00000150 	andeq	r0, r0, r0, asr r1
    2ed8:	00000154 	andeq	r0, r0, r4, asr r1
    2edc:	54500001 	ldrbpl	r0, [r0], #-1
    2ee0:	58000001 	stmdapl	r0, {r0}
    2ee4:	01000001 	tsteq	r0, r1
    2ee8:	01585100 	cmpeq	r8, r0, lsl #2
    2eec:	015c0000 	cmpeq	ip, r0
    2ef0:	00040000 	andeq	r0, r4, r0
    2ef4:	9f5001f3 	svcls	0x005001f3
	...
    2f00:	00000002 	andeq	r0, r0, r2
    2f04:	015c0000 	cmpeq	ip, r0
    2f08:	01600000 	cmneq	r0, r0
    2f0c:	00010000 	andeq	r0, r1, r0
    2f10:	00016050 	andeq	r6, r1, r0, asr r0
    2f14:	00016400 	andeq	r6, r1, r0, lsl #8
    2f18:	51000100 	mrspl	r0, (UNDEF: 16)
    2f1c:	00000164 	andeq	r0, r0, r4, ror #2
    2f20:	00000170 	andeq	r0, r0, r0, ror r1
    2f24:	01f30004 	mvnseq	r0, r4
    2f28:	00009f50 	andeq	r9, r0, r0, asr pc
	...
    2f38:	000000e8 	andeq	r0, r0, r8, ror #1
    2f3c:	00000108 	andeq	r0, r0, r8, lsl #2
    2f40:	08500001 	ldmdaeq	r0, {r0}^
    2f44:	28000001 	stmdacs	r0, {r0}
    2f48:	01000001 	tsteq	r0, r1
    2f4c:	01285400 			; <UNDEFINED> instruction: 0x01285400
    2f50:	01400000 	mrseq	r0, (UNDEF: 64)
    2f54:	00040000 	andeq	r0, r4, r0
    2f58:	9f5001f3 	svcls	0x005001f3
	...
    2f64:	00000002 	andeq	r0, r0, r2
    2f68:	00e80000 	rsceq	r0, r8, r0
    2f6c:	01080000 	mrseq	r0, (UNDEF: 8)
    2f70:	00010000 	andeq	r0, r1, r0
    2f74:	00010850 	andeq	r0, r1, r0, asr r8
    2f78:	00012800 	andeq	r2, r1, r0, lsl #16
    2f7c:	54000100 	strpl	r0, [r0], #-256	; 0xffffff00
    2f80:	00000128 	andeq	r0, r0, r8, lsr #2
    2f84:	00000140 	andeq	r0, r0, r0, asr #2
    2f88:	01f30004 	mvnseq	r0, r4
    2f8c:	00009f50 	andeq	r9, r0, r0, asr pc
	...
    2f9c:	000000f0 	strdeq	r0, [r0], -r0	; <UNPREDICTABLE>
    2fa0:	00000108 	andeq	r0, r0, r8, lsl #2
    2fa4:	08500001 	ldmdaeq	r0, {r0}^
    2fa8:	28000001 	stmdacs	r0, {r0}
    2fac:	01000001 	tsteq	r0, r1
    2fb0:	01285400 			; <UNDEFINED> instruction: 0x01285400
    2fb4:	01400000 	mrseq	r0, (UNDEF: 64)
    2fb8:	00040000 	andeq	r0, r4, r0
    2fbc:	9f5001f3 	svcls	0x005001f3
	...
    2fc8:	00000003 	andeq	r0, r0, r3
    2fcc:	00f00000 	rscseq	r0, r0, r0
    2fd0:	01080000 	mrseq	r0, (UNDEF: 8)
    2fd4:	00070000 	andeq	r0, r7, r0
    2fd8:	1d3a0070 	ldcne	0, cr0, [sl, #-448]!	; 0xfffffe40
    2fdc:	089f1e33 	ldmeq	pc, {r0, r1, r4, r5, r9, sl, fp, ip}	; <UNPREDICTABLE>
    2fe0:	28000001 	stmdacs	r0, {r0}
    2fe4:	07000001 	streq	r0, [r0, -r1]
    2fe8:	3a007400 	bcc	1fff0 <__bss_end__+0x15090>
    2fec:	9f1e331d 	svcls	0x001e331d
    2ff0:	00000128 	andeq	r0, r0, r8, lsr #2
    2ff4:	00000140 	andeq	r0, r0, r0, asr #2
    2ff8:	01f30008 	mvnseq	r0, r8
    2ffc:	331d3a50 	tstcc	sp, #80, 20	; 0x50000
    3000:	00009f1e 	andeq	r9, r0, lr, lsl pc
	...
    3010:	00000110 	andeq	r0, r0, r0, lsl r1
    3014:	00000138 	andeq	r0, r0, r8, lsr r1
    3018:	38560001 	ldmdacc	r6, {r0}^
    301c:	3b000001 	blcc	3028 <__code_start__-0x4fd8>
    3020:	01000001 	tsteq	r0, r1
    3024:	013b5000 	teqeq	fp, r0
    3028:	01400000 	mrseq	r0, (UNDEF: 64)
    302c:	00260000 	eoreq	r0, r6, r0
    3030:	f75001f3 			; <UNDEFINED> instruction: 0xf75001f3
    3034:	f425f72c 	vld1.8	{d15}, [r5 :128], ip
    3038:	cccd0825 	stclgt	8, cr0, [sp], {37}	; 0x25
    303c:	0000cccc 	andeq	ip, r0, ip, asr #25
    3040:	081e0000 	ldmdaeq	lr, {}	; <UNPREDICTABLE>
    3044:	2525f720 	strcs	pc, [r5, #-1824]!	; 0xfffff8e0
    3048:	00f72cf7 	ldrshteq	r2, [r7], #199	; 0xc7
    304c:	80232533 	eorhi	r2, r3, r3, lsr r5
    3050:	3240a080 	subcc	sl, r0, #128, 0	; 0x80
    3054:	00009f24 	andeq	r9, r0, r4, lsr #30
    3058:	00000000 	andeq	r0, r0, r0
    305c:	01000000 	mrseq	r0, (UNDEF: 0)
    3060:	00000001 	andeq	r0, r0, r1
    3064:	01200000 			; <UNDEFINED> instruction: 0x01200000
    3068:	01200000 			; <UNDEFINED> instruction: 0x01200000
    306c:	00010000 	andeq	r0, r1, r0
    3070:	00012050 	andeq	r2, r1, r0, asr r0
    3074:	00012800 	andeq	r2, r1, r0, lsl #16
    3078:	37000d00 	strcc	r0, [r0, -r0, lsl #26]
    307c:	1d3a0074 	ldcne	0, cr0, [sl, #-464]!	; 0xfffffe30
    3080:	20241e33 	eorcs	r1, r4, r3, lsr lr
    3084:	9f1a0070 	svcls	0x001a0070
    3088:	00000128 	andeq	r0, r0, r8, lsr #2
    308c:	00000130 	andeq	r0, r0, r0, lsr r1
    3090:	f337000e 	vhadd.u<illegal width 64>	d0, d7, d14
    3094:	1d3a5001 	ldcne	0, cr5, [sl, #-4]!
    3098:	20241e33 	eorcs	r1, r4, r3, lsr lr
    309c:	9f1a0070 	svcls	0x001a0070
    30a0:	00000130 	andeq	r0, r0, r0, lsr r1
    30a4:	0000013b 	andeq	r0, r0, fp, lsr r1
    30a8:	f337000e 	vhadd.u<illegal width 64>	d0, d7, d14
    30ac:	1d3a5001 	ldcne	0, cr5, [sl, #-4]!
    30b0:	20241e33 	eorcs	r1, r4, r3, lsr lr
    30b4:	9f1a0073 	svcls	0x001a0073
	...
    30c4:	00000060 	andeq	r0, r0, r0, rrx
    30c8:	00000090 	muleq	r0, r0, r0
    30cc:	90500001 	subsls	r0, r0, r1
    30d0:	b8000000 	stmdalt	r0, {}	; <UNPREDICTABLE>
    30d4:	04000000 	streq	r0, [r0], #-0
    30d8:	5001f300 	andpl	pc, r1, r0, lsl #6
    30dc:	0000009f 	muleq	r0, pc, r0	; <UNPREDICTABLE>
    30e0:	00000000 	andeq	r0, r0, r0
    30e4:	00000200 	andeq	r0, r0, r0, lsl #4
    30e8:	00006000 	andeq	r6, r0, r0
    30ec:	00009000 	andeq	r9, r0, r0
    30f0:	50000100 	andpl	r0, r0, r0, lsl #2
    30f4:	00000090 	muleq	r0, r0, r0
    30f8:	000000b8 	strheq	r0, [r0], -r8
    30fc:	01f30004 	mvnseq	r0, r4
    3100:	00009f50 	andeq	r9, r0, r0, asr pc
	...
    310c:	00680000 	rsbeq	r0, r8, r0
    3110:	00900000 	addseq	r0, r0, r0
    3114:	00010000 	andeq	r0, r1, r0
    3118:	00009050 	andeq	r9, r0, r0, asr r0
    311c:	0000b800 	andeq	fp, r0, r0, lsl #16
    3120:	f3000400 	vshl.u8	d0, d0, d0
    3124:	009f5001 	addseq	r5, pc, r1
	...
    3130:	a0000000 	andge	r0, r0, r0
    3134:	b0000000 	andlt	r0, r0, r0
    3138:	01000000 	mrseq	r0, (UNDEF: 0)
    313c:	00b05400 	adcseq	r5, r0, r0, lsl #8
    3140:	00b80000 	adcseq	r0, r8, r0
    3144:	00290000 	eoreq	r0, r9, r0
    3148:	f35001f3 	vbsl	q8, q8, <illegal reg q9.5>
    314c:	2cf75001 	ldclcs	0, cr5, [r7], #4
    3150:	25f425f7 	ldrbcs	r2, [r4, #1527]!	; 0x5f7
    3154:	cccccd08 	stclgt	13, cr12, [ip], {8}
    3158:	000000cc 	andeq	r0, r0, ip, asr #1
    315c:	20081e00 	andcs	r1, r8, r0, lsl #28
    3160:	f72525f7 			; <UNDEFINED> instruction: 0xf72525f7
    3164:	3300f72c 	movwcc	pc, #1836	; 0x72c	; <UNPREDICTABLE>
    3168:	311e3525 	tstcc	lr, r5, lsr #10
    316c:	1e331c24 	cdpne	12, 3, cr1, cr3, cr4, {1}
    3170:	0000009f 	muleq	r0, pc, r0	; <UNPREDICTABLE>
    3174:	00000000 	andeq	r0, r0, r0
    3178:	00000100 	andeq	r0, r0, r0, lsl #2
    317c:	a0000000 	andge	r0, r0, r0
    3180:	b0000000 	andlt	r0, r0, r0
    3184:	01000000 	mrseq	r0, (UNDEF: 0)
    3188:	00b05500 	adcseq	r5, r0, r0, lsl #10
    318c:	00b30000 	adcseq	r0, r3, r0
    3190:	00010000 	andeq	r0, r1, r0
    3194:	0000b350 	andeq	fp, r0, r0, asr r3
    3198:	0000b800 	andeq	fp, r0, r0, lsl #16
    319c:	f3002600 	vmax.u8	d2, d0, d0
    31a0:	2cf75001 	ldclcs	0, cr5, [r7], #4
    31a4:	25f425f7 	ldrbcs	r2, [r4, #1527]!	; 0x5f7
    31a8:	cccccd08 	stclgt	13, cr12, [ip], {8}
    31ac:	000000cc 	andeq	r0, r0, ip, asr #1
    31b0:	20081e00 	andcs	r1, r8, r0, lsl #28
    31b4:	f72525f7 			; <UNDEFINED> instruction: 0xf72525f7
    31b8:	3300f72c 	movwcc	pc, #1836	; 0x72c	; <UNPREDICTABLE>
    31bc:	80802325 	addhi	r2, r0, r5, lsr #6
    31c0:	243240a0 	ldrtcs	r4, [r2], #-160	; 0xffffff60
    31c4:	0000009f 	muleq	r0, pc, r0	; <UNPREDICTABLE>
    31c8:	00000000 	andeq	r0, r0, r0
    31cc:	00000200 	andeq	r0, r0, r0, lsl #4
    31d0:	00000101 	andeq	r0, r0, r1, lsl #2
    31d4:	0000a000 	andeq	sl, r0, r0
    31d8:	0000a400 	andeq	sl, r0, r0, lsl #8
    31dc:	50000100 	andpl	r0, r0, r0, lsl #2
    31e0:	000000a4 	andeq	r0, r0, r4, lsr #1
    31e4:	000000a4 	andeq	r0, r0, r4, lsr #1
    31e8:	a4530001 	ldrbge	r0, [r3], #-1
    31ec:	a8000000 	stmdage	r0, {}	; <UNPREDICTABLE>
    31f0:	08000000 	stmdaeq	r0, {}	; <UNPREDICTABLE>
    31f4:	00743100 	rsbseq	r3, r4, r0, lsl #2
    31f8:	21007324 	tstcs	r0, r4, lsr #6
    31fc:	0000a89f 	muleq	r0, pc, r8	; <UNPREDICTABLE>
    3200:	0000b300 	andeq	fp, r0, r0, lsl #6
    3204:	51000100 	mrspl	r0, (UNDEF: 16)
	...
    3218:	0000003c 	andeq	r0, r0, ip, lsr r0
    321c:	3c500001 	mrrccc	0, 0, r0, r0, cr1	; <UNPREDICTABLE>
    3220:	60000000 	andvs	r0, r0, r0
    3224:	04000000 	streq	r0, [r0], #-0
    3228:	5001f300 	andpl	pc, r1, r0, lsl #6
    322c:	0000009f 	muleq	r0, pc, r0	; <UNPREDICTABLE>
	...
    323c:	00003f00 	andeq	r3, r0, r0, lsl #30
    3240:	51000100 	mrspl	r0, (UNDEF: 16)
    3244:	0000003f 	andeq	r0, r0, pc, lsr r0
    3248:	00000060 	andeq	r0, r0, r0, rrx
    324c:	01f30004 	mvnseq	r0, r4
    3250:	00009f51 	andeq	r9, r0, r1, asr pc
	...
    325c:	00080000 	andeq	r0, r8, r0
    3260:	003f0000 	eorseq	r0, pc, r0
    3264:	00010000 	andeq	r0, r1, r0
    3268:	00003f51 	andeq	r3, r0, r1, asr pc
    326c:	00006000 	andeq	r6, r0, r0
    3270:	f3000400 	vshl.u8	d0, d0, d0
    3274:	009f5101 	addseq	r5, pc, r1, lsl #2
	...
    3280:	08000000 	stmdaeq	r0, {}	; <UNPREDICTABLE>
    3284:	3c000000 	stccc	0, cr0, [r0], {-0}
    3288:	01000000 	mrseq	r0, (UNDEF: 0)
    328c:	003c5000 	eorseq	r5, ip, r0
    3290:	00600000 	rsbeq	r0, r0, r0
    3294:	00040000 	andeq	r0, r4, r0
    3298:	9f5001f3 	svcls	0x005001f3
	...
    32a8:	00000048 	andeq	r0, r0, r8, asr #32
    32ac:	00000058 	andeq	r0, r0, r8, asr r0
    32b0:	58540001 	ldmdapl	r4, {r0}^
    32b4:	60000000 	andvs	r0, r0, r0
    32b8:	29000000 	stmdbcs	r0, {}	; <UNPREDICTABLE>
    32bc:	5001f300 	andpl	pc, r1, r0, lsl #6
    32c0:	f75001f3 			; <UNDEFINED> instruction: 0xf75001f3
    32c4:	f425f72c 	vld1.8	{d15}, [r5 :128], ip
    32c8:	cccd0825 	stclgt	8, cr0, [sp], {37}	; 0x25
    32cc:	0000cccc 	andeq	ip, r0, ip, asr #25
    32d0:	081e0000 	ldmdaeq	lr, {}	; <UNPREDICTABLE>
    32d4:	2525f720 	strcs	pc, [r5, #-1824]!	; 0xfffff8e0
    32d8:	00f72cf7 	ldrshteq	r2, [r7], #199	; 0xc7
    32dc:	1e352533 	mrcne	5, 1, r2, cr5, cr3, {1}
    32e0:	331c2431 	tstcc	ip, #822083584	; 0x31000000
    32e4:	00009f1e 	andeq	r9, r0, lr, lsl pc
    32e8:	00000000 	andeq	r0, r0, r0
    32ec:	00010000 	andeq	r0, r1, r0
    32f0:	00000000 	andeq	r0, r0, r0
    32f4:	00000048 	andeq	r0, r0, r8, asr #32
    32f8:	00000058 	andeq	r0, r0, r8, asr r0
    32fc:	58560001 	ldmdapl	r6, {r0}^
    3300:	5b000000 	blpl	3308 <__code_start__-0x4cf8>
    3304:	01000000 	mrseq	r0, (UNDEF: 0)
    3308:	005b5000 	subseq	r5, fp, r0
    330c:	00600000 	rsbeq	r0, r0, r0
    3310:	00260000 	eoreq	r0, r6, r0
    3314:	f75001f3 			; <UNDEFINED> instruction: 0xf75001f3
    3318:	f425f72c 	vld1.8	{d15}, [r5 :128], ip
    331c:	cccd0825 	stclgt	8, cr0, [sp], {37}	; 0x25
    3320:	0000cccc 	andeq	ip, r0, ip, asr #25
    3324:	081e0000 	ldmdaeq	lr, {}	; <UNPREDICTABLE>
    3328:	2525f720 	strcs	pc, [r5, #-1824]!	; 0xfffff8e0
    332c:	00f72cf7 	ldrshteq	r2, [r7], #199	; 0xc7
    3330:	80232533 	eorhi	r2, r3, r3, lsr r5
    3334:	3240a080 	subcc	sl, r0, #128, 0	; 0x80
    3338:	00009f24 	andeq	r9, r0, r4, lsr #30
    333c:	00000000 	andeq	r0, r0, r0
    3340:	00020000 	andeq	r0, r2, r0
    3344:	00010100 	andeq	r0, r1, r0, lsl #2
    3348:	00480000 	subeq	r0, r8, r0
    334c:	004c0000 	subeq	r0, ip, r0
    3350:	00010000 	andeq	r0, r1, r0
    3354:	00004c50 	andeq	r4, r0, r0, asr ip
    3358:	00004c00 	andeq	r4, r0, r0, lsl #24
    335c:	51000100 	mrspl	r0, (UNDEF: 16)
    3360:	0000004c 	andeq	r0, r0, ip, asr #32
    3364:	00000050 	andeq	r0, r0, r0, asr r0
    3368:	0075000c 	rsbseq	r0, r5, ip
    336c:	741aff08 	ldrvc	pc, [sl], #-3848	; 0xfffff0f8
    3370:	00712400 	rsbseq	r2, r1, r0, lsl #8
    3374:	00509f21 	subseq	r9, r0, r1, lsr #30
    3378:	00540000 	subseq	r0, r4, r0
    337c:	00120000 	andseq	r0, r2, r0
    3380:	24007437 	strcs	r7, [r0], #-1079	; 0xfffffbc9
    3384:	1a007020 	bne	1f40c <__bss_end__+0x144ac>
    3388:	ff080075 			; <UNDEFINED> instruction: 0xff080075
    338c:	2400741a 	strcs	r7, [r0], #-1050	; 0xfffffbe6
    3390:	00009f21 	andeq	r9, r0, r1, lsr #30
	...
    33a0:	000000b8 	strheq	r0, [r0], -r8
    33a4:	000000c4 	andeq	r0, r0, r4, asr #1
    33a8:	c4500001 	ldrbgt	r0, [r0], #-1
    33ac:	cb000000 	blgt	33b4 <__code_start__-0x4c4c>
    33b0:	01000000 	mrseq	r0, (UNDEF: 0)
    33b4:	00cb5300 	sbceq	r5, fp, r0, lsl #6
    33b8:	00d00000 	sbcseq	r0, r0, r0
    33bc:	00040000 	andeq	r0, r4, r0
    33c0:	9f5001f3 	svcls	0x005001f3
	...
    33d0:	00d00000 	sbcseq	r0, r0, r0
    33d4:	00dc0000 	sbcseq	r0, ip, r0
    33d8:	00010000 	andeq	r0, r1, r0
    33dc:	0000dc50 	andeq	sp, r0, r0, asr ip
    33e0:	0000e300 	andeq	lr, r0, r0, lsl #6
    33e4:	53000100 	movwpl	r0, #256	; 0x100
    33e8:	000000e3 	andeq	r0, r0, r3, ror #1
    33ec:	000000e8 	andeq	r0, r0, r8, ror #1
    33f0:	01f30004 	mvnseq	r0, r4
    33f4:	00009f50 	andeq	r9, r0, r0, asr pc
	...
    3404:	000b0000 	andeq	r0, fp, r0
    3408:	00010000 	andeq	r0, r1, r0
    340c:	00000b50 	andeq	r0, r0, r0, asr fp
    3410:	00001400 	andeq	r1, r0, r0, lsl #8
    3414:	54000100 	strpl	r0, [r0], #-256	; 0xffffff00
	...
    3428:	00000018 	andeq	r0, r0, r8, lsl r0
    342c:	18510001 	ldmdane	r1, {r0}^
    3430:	2c000000 	stccs	0, cr0, [r0], {-0}
    3434:	04000000 	streq	r0, [r0], #-0
    3438:	5101f300 	mrspl	pc, SP_irq	; <UNPREDICTABLE>
    343c:	0000009f 	muleq	r0, pc, r0	; <UNPREDICTABLE>
    3440:	00000000 	andeq	r0, r0, r0
    3444:	00000200 	andeq	r0, r0, r0, lsl #4
    3448:	00000000 	andeq	r0, r0, r0
    344c:	01010000 	mrseq	r0, (UNDEF: 1)
    3450:	00000000 	andeq	r0, r0, r0
    3454:	04000000 	streq	r0, [r0], #-0
    3458:	01000000 	mrseq	r0, (UNDEF: 0)
    345c:	00045000 	andeq	r5, r4, r0
    3460:	00080000 	andeq	r0, r8, r0
    3464:	00010000 	andeq	r0, r1, r0
    3468:	00000852 	andeq	r0, r0, r2, asr r8
    346c:	00000c00 	andeq	r0, r0, r0, lsl #24
    3470:	72000300 	andvc	r0, r0, #0, 6
    3474:	000c9f01 	andeq	r9, ip, r1, lsl #30
    3478:	00180000 	andseq	r0, r8, r0
    347c:	00010000 	andeq	r0, r1, r0
    3480:	00001852 	andeq	r1, r0, r2, asr r8
    3484:	00001c00 	andeq	r1, r0, r0, lsl #24
    3488:	53000100 	movwpl	r0, #256	; 0x100
    348c:	0000001c 	andeq	r0, r0, ip, lsl r0
    3490:	00000024 	andeq	r0, r0, r4, lsr #32
    3494:	01730003 	cmneq	r3, r3
    3498:	0000249f 	muleq	r0, pc, r4	; <UNPREDICTABLE>
    349c:	00002c00 	andeq	r2, r0, r0, lsl #24
    34a0:	53000100 	movwpl	r0, #256	; 0x100
	...
    34ac:	00020203 	andeq	r0, r2, r3, lsl #4
    34b0:	00000000 	andeq	r0, r0, r0
    34b4:	00180000 	andseq	r0, r8, r0
    34b8:	00010000 	andeq	r0, r1, r0
    34bc:	00001851 	andeq	r1, r0, r1, asr r8
    34c0:	00001c00 	andeq	r1, r0, r0, lsl #24
    34c4:	71000300 	mrsvc	r0, LR_irq
    34c8:	001c9f01 	andseq	r9, ip, r1, lsl #30
    34cc:	002c0000 	eoreq	r0, ip, r0
    34d0:	00010000 	andeq	r0, r1, r0
    34d4:	00000051 	andeq	r0, r0, r1, asr r0
	...
    34e0:	08000000 	stmdaeq	r0, {}	; <UNPREDICTABLE>
    34e4:	0c000000 	stceq	0, cr0, [r0], {-0}
    34e8:	02000000 	andeq	r0, r0, #0, 0
    34ec:	0c007200 	sfmeq	f7, 4, [r0], {-0}
    34f0:	18000000 	stmdane	r0, {}	; <UNPREDICTABLE>
    34f4:	02000000 	andeq	r0, r0, #0, 0
    34f8:	1c007300 	stcne	3, cr7, [r0], {-0}
    34fc:	2c000000 	stccs	0, cr0, [r0], {-0}
    3500:	01000000 	mrseq	r0, (UNDEF: 0)
    3504:	00005200 	andeq	r5, r0, r0, lsl #4
	...
    351c:	00140000 	andseq	r0, r4, r0
    3520:	00010000 	andeq	r0, r1, r0
    3524:	00001450 	andeq	r1, r0, r0, asr r4
    3528:	00001800 	andeq	r1, r0, r0, lsl #16
    352c:	70000300 	andvc	r0, r0, r0, lsl #6
    3530:	00189f01 	andseq	r9, r8, r1, lsl #30
    3534:	00200000 	eoreq	r0, r0, r0
    3538:	00010000 	andeq	r0, r1, r0
    353c:	00002450 	andeq	r2, r0, r0, asr r4
    3540:	00002800 	andeq	r2, r0, r0, lsl #16
    3544:	50000100 	andpl	r0, r0, r0, lsl #2
    3548:	00000028 	andeq	r0, r0, r8, lsr #32
    354c:	00000030 	andeq	r0, r0, r0, lsr r0
    3550:	01700003 	cmneq	r0, r3
    3554:	0000389f 	muleq	r0, pc, r8	; <UNPREDICTABLE>
    3558:	00004000 	andeq	r4, r0, r0
    355c:	50000100 	andpl	r0, r0, r0, lsl #2
	...
    3570:	00240000 	eoreq	r0, r4, r0
    3574:	00010000 	andeq	r0, r1, r0
    3578:	00002451 	andeq	r2, r0, r1, asr r4
    357c:	00002800 	andeq	r2, r0, r0, lsl #16
    3580:	5c000100 	stfpls	f0, [r0], {-0}
    3584:	00000028 	andeq	r0, r0, r8, lsr #32
    3588:	00000044 	andeq	r0, r0, r4, asr #32
    358c:	00510001 	subseq	r0, r1, r1
	...
    3598:	00000202 	andeq	r0, r0, r2, lsl #4
    359c:	00000000 	andeq	r0, r0, r0
    35a0:	00000400 	andeq	r0, r0, r0, lsl #8
    35a4:	51000100 	mrspl	r0, (UNDEF: 16)
    35a8:	00000004 	andeq	r0, r0, r4
    35ac:	00000008 	andeq	r0, r0, r8
    35b0:	01710003 	cmneq	r1, r3
    35b4:	0000089f 	muleq	r0, pc, r8	; <UNPREDICTABLE>
    35b8:	00001800 	andeq	r1, r0, r0, lsl #16
    35bc:	51000100 	mrspl	r0, (UNDEF: 16)
	...
    35c8:	00000002 	andeq	r0, r0, r2
    35cc:	00040000 	andeq	r0, r4, r0
    35d0:	00010000 	andeq	r0, r1, r0
    35d4:	00000050 	andeq	r0, r0, r0, asr r0
	...
    35e4:	00000800 	andeq	r0, r0, r0, lsl #16
    35e8:	50000100 	andpl	r0, r0, r0, lsl #2
    35ec:	00000008 	andeq	r0, r0, r8
    35f0:	00000030 	andeq	r0, r0, r0, lsr r0
    35f4:	01f30004 	mvnseq	r0, r4
    35f8:	00009f50 	andeq	r9, r0, r0, asr pc
	...
    3608:	00080000 	andeq	r0, r8, r0
    360c:	00010000 	andeq	r0, r1, r0
    3610:	00000851 	andeq	r0, r0, r1, asr r8
    3614:	00003000 	andeq	r3, r0, r0
    3618:	f3000400 	vshl.u8	d0, d0, d0
    361c:	009f5101 	addseq	r5, pc, r1, lsl #2
	...
    362c:	02020100 	andeq	r0, r2, #0
    3630:	00000000 	andeq	r0, r0, r0
    3634:	00000400 	andeq	r0, r0, r0, lsl #8
    3638:	52000100 	andpl	r0, r0, #0
    363c:	00000004 	andeq	r0, r0, r4
    3640:	00000008 	andeq	r0, r0, r8
    3644:	01f30004 	mvnseq	r0, r4
    3648:	00089f52 	andeq	r9, r8, r2, asr pc
    364c:	00180000 	andseq	r0, r8, r0
    3650:	00060000 	andeq	r0, r6, r0
    3654:	315201f3 	ldrshcc	r0, [r2, #-19]	; 0xffffffed
    3658:	00189f1c 	andseq	r9, r8, ip, lsl pc
    365c:	00180000 	andseq	r0, r8, r0
    3660:	00040000 	andeq	r0, r4, r0
    3664:	9f5201f3 	svcls	0x005201f3
    3668:	00000018 	andeq	r0, r0, r8, lsl r0
    366c:	00000030 	andeq	r0, r0, r0, lsr r0
    3670:	01f30006 	mvnseq	r0, r6
    3674:	9f1c3152 	svcls	0x001c3152
	...
    3680:	00000002 	andeq	r0, r0, r2
    3684:	00000001 	andeq	r0, r0, r1
    3688:	00000000 	andeq	r0, r0, r0
    368c:	0000000c 	andeq	r0, r0, ip
    3690:	0c500001 	mrrceq	0, 0, r0, r0, cr1	; <UNPREDICTABLE>
    3694:	18000000 	stmdane	r0, {}	; <UNPREDICTABLE>
    3698:	03000000 	movweq	r0, #0
    369c:	9f7f7000 	svcls	0x007f7000
    36a0:	00000018 	andeq	r0, r0, r8, lsl r0
    36a4:	00000024 	andeq	r0, r0, r4, lsr #32
    36a8:	28500001 	ldmdacs	r0, {r0}^
    36ac:	2c000000 	stccs	0, cr0, [r0], {-0}
    36b0:	03000000 	movweq	r0, #0
    36b4:	9f7f7000 	svcls	0x007f7000
	...
    36c0:	00000002 	andeq	r0, r0, r2
    36c4:	00000000 	andeq	r0, r0, r0
    36c8:	000c0000 	andeq	r0, ip, r0
    36cc:	00010000 	andeq	r0, r1, r0
    36d0:	00000c51 	andeq	r0, r0, r1, asr ip
    36d4:	00001000 	andeq	r1, r0, r0
    36d8:	71000300 	mrsvc	r0, LR_irq
    36dc:	00109f01 	andseq	r9, r0, r1, lsl #30
    36e0:	00300000 	eorseq	r0, r0, r0
    36e4:	00010000 	andeq	r0, r1, r0
    36e8:	00000051 	andeq	r0, r0, r1, asr r0
    36ec:	00000000 	andeq	r0, r0, r0
	...

Disassembly of section .debug_aranges:

00000000 <.debug_aranges>:
   0:	0000001c 	andeq	r0, r0, ip, lsl r0
   4:	00000002 	andeq	r0, r0, r2
   8:	00040000 	andeq	r0, r4, r0
   c:	00000000 	andeq	r0, r0, r0
  10:	00008038 	andeq	r8, r0, r8, lsr r0
  14:	00000150 	andeq	r0, r0, r0, asr r1
	...
  20:	0000001c 	andeq	r0, r0, ip, lsl r0
  24:	05d40002 	ldrbeq	r0, [r4, #2]
  28:	00040000 	andeq	r0, r4, r0
  2c:	00000000 	andeq	r0, r0, r0
  30:	00008188 	andeq	r8, r0, r8, lsl #3
  34:	000003bc 			; <UNDEFINED> instruction: 0x000003bc
	...
  40:	0000001c 	andeq	r0, r0, ip, lsl r0
  44:	0e950002 	cdpeq	0, 9, cr0, cr5, cr2, {0}
  48:	00040000 	andeq	r0, r4, r0
  4c:	00000000 	andeq	r0, r0, r0
  50:	00008544 	andeq	r8, r0, r4, asr #10
  54:	00000188 	andeq	r0, r0, r8, lsl #3
	...
  60:	0000001c 	andeq	r0, r0, ip, lsl r0
  64:	11940002 	orrsne	r0, r4, r2
  68:	00040000 	andeq	r0, r4, r0
  6c:	00000000 	andeq	r0, r0, r0
  70:	000086cc 	andeq	r8, r0, ip, asr #13
  74:	00000584 	andeq	r0, r0, r4, lsl #11
	...
  80:	0000001c 	andeq	r0, r0, ip, lsl r0
  84:	1f080002 	svcne	0x00080002
  88:	00040000 	andeq	r0, r4, r0
  8c:	00000000 	andeq	r0, r0, r0
  90:	00008c58 	andeq	r8, r0, r8, asr ip
  94:	00000078 	andeq	r0, r0, r8, ror r0
	...
  a0:	0000001c 	andeq	r0, r0, ip, lsl r0
  a4:	204c0002 	subcs	r0, ip, r2
  a8:	00040000 	andeq	r0, r4, r0
  ac:	00000000 	andeq	r0, r0, r0
  b0:	00008cd0 	ldrdeq	r8, [r0], -r0
  b4:	00000058 	andeq	r0, r0, r8, asr r0
	...
  c0:	0000001c 	andeq	r0, r0, ip, lsl r0
  c4:	21ed0002 	mvncs	r0, r2
  c8:	00040000 	andeq	r0, r4, r0
  cc:	00000000 	andeq	r0, r0, r0
  d0:	00008d28 	andeq	r8, r0, r8, lsr #26
  d4:	00000038 	andeq	r0, r0, r8, lsr r0
	...
  e0:	0000001c 	andeq	r0, r0, ip, lsl r0
  e4:	22e40002 	rsccs	r0, r4, #2, 0
  e8:	00040000 	andeq	r0, r4, r0
  ec:	00000000 	andeq	r0, r0, r0
  f0:	00008d60 	andeq	r8, r0, r0, ror #26
  f4:	000009b4 			; <UNDEFINED> instruction: 0x000009b4
	...
 100:	0000001c 	andeq	r0, r0, ip, lsl r0
 104:	2f670002 	svccs	0x00670002
 108:	00040000 	andeq	r0, r4, r0
 10c:	00000000 	andeq	r0, r0, r0
 110:	00009714 	andeq	r9, r0, r4, lsl r7
 114:	0000002c 	andeq	r0, r0, ip, lsr #32
	...
 120:	0000001c 	andeq	r0, r0, ip, lsl r0
 124:	309a0002 	addscc	r0, sl, r2
 128:	00040000 	andeq	r0, r4, r0
 12c:	00000000 	andeq	r0, r0, r0
 130:	00009740 	andeq	r9, r0, r0, asr #14
 134:	000000f8 	strdeq	r0, [r0], -r8
	...
 140:	0000001c 	andeq	r0, r0, ip, lsl r0
 144:	322e0002 	eorcc	r0, lr, #2, 0
 148:	00040000 	andeq	r0, r4, r0
 14c:	00000000 	andeq	r0, r0, r0
 150:	00009838 	andeq	r9, r0, r8, lsr r8
 154:	00000004 	andeq	r0, r0, r4
	...
 160:	0000001c 	andeq	r0, r0, ip, lsl r0
 164:	33000002 	movwcc	r0, #2
 168:	00040000 	andeq	r0, r4, r0
 16c:	00000000 	andeq	r0, r0, r0
 170:	0000983c 	andeq	r9, r0, ip, lsr r8
 174:	0000008c 	andeq	r0, r0, ip, lsl #1
	...
 180:	0000001c 	andeq	r0, r0, ip, lsl r0
 184:	35810002 	strcc	r0, [r1, #2]
 188:	00040000 	andeq	r0, r4, r0
 18c:	00000000 	andeq	r0, r0, r0
 190:	000098c8 	andeq	r9, r0, r8, asr #17
 194:	0000011c 	andeq	r0, r0, ip, lsl r1
	...
 1a0:	0000001c 	andeq	r0, r0, ip, lsl r0
 1a4:	3ac40002 	bcc	ff1001b4 <__bss_end__+0xff0f5254>
 1a8:	00040000 	andeq	r0, r4, r0
 1ac:	00000000 	andeq	r0, r0, r0
 1b0:	000099e4 	andeq	r9, r0, r4, ror #19
 1b4:	000001f0 	strdeq	r0, [r0], -r0	; <UNPREDICTABLE>
	...
 1c0:	0000001c 	andeq	r0, r0, ip, lsl r0
 1c4:	40950002 	addsmi	r0, r5, r2
 1c8:	00040000 	andeq	r0, r4, r0
 1cc:	00000000 	andeq	r0, r0, r0
 1d0:	00009bd4 	ldrdeq	r9, [r0], -r4
 1d4:	000003b0 			; <UNDEFINED> instruction: 0x000003b0
	...
 1e0:	0000001c 	andeq	r0, r0, ip, lsl r0
 1e4:	49820002 	stmibmi	r2, {r1}
 1e8:	00040000 	andeq	r0, r4, r0
 1ec:	00000000 	andeq	r0, r0, r0
 1f0:	00009f84 	andeq	r9, r0, r4, lsl #31
 1f4:	00000198 	muleq	r0, r8, r1
	...
 200:	0000001c 	andeq	r0, r0, ip, lsl r0
 204:	4ff90002 	svcmi	0x00f90002
 208:	00040000 	andeq	r0, r4, r0
 20c:	00000000 	andeq	r0, r0, r0
 210:	0000a11c 	andeq	sl, r0, ip, lsl r1
 214:	0000003c 	andeq	r0, r0, ip, lsr r0
	...
 220:	0000001c 	andeq	r0, r0, ip, lsl r0
 224:	51460002 	cmppl	r6, r2
 228:	00040000 	andeq	r0, r4, r0
 22c:	00000000 	andeq	r0, r0, r0
 230:	0000a158 	andeq	sl, r0, r8, asr r1
 234:	0000002c 	andeq	r0, r0, ip, lsr #32
	...
 240:	0000001c 	andeq	r0, r0, ip, lsl r0
 244:	52810002 	addpl	r0, r1, #2, 0
 248:	00040000 	andeq	r0, r4, r0
 24c:	00000000 	andeq	r0, r0, r0
 250:	0000a184 	andeq	sl, r0, r4, lsl #3
 254:	00000044 	andeq	r0, r0, r4, asr #32
	...
 260:	0000001c 	andeq	r0, r0, ip, lsl r0
 264:	537c0002 	cmnpl	ip, #2, 0
 268:	00040000 	andeq	r0, r4, r0
 26c:	00000000 	andeq	r0, r0, r0
 270:	0000a1c8 	andeq	sl, r0, r8, asr #3
 274:	00000018 	andeq	r0, r0, r8, lsl r0
	...
 280:	0000001c 	andeq	r0, r0, ip, lsl r0
 284:	548f0002 	strpl	r0, [pc], #2	; 28c <__code_start__-0x7d74>
 288:	00040000 	andeq	r0, r4, r0
 28c:	00000000 	andeq	r0, r0, r0
 290:	0000a1e0 	andeq	sl, r0, r0, ror #3
 294:	00000030 	andeq	r0, r0, r0, lsr r0
	...
 2a0:	0000001c 	andeq	r0, r0, ip, lsl r0
 2a4:	55e10002 	strbpl	r0, [r1, #2]!
 2a8:	00040000 	andeq	r0, r4, r0
 2ac:	00000000 	andeq	r0, r0, r0
 2b0:	0000a210 	andeq	sl, r0, r0, lsl r2
 2b4:	00000004 	andeq	r0, r0, r4
	...

Disassembly of section .debug_ranges:

00000000 <.debug_ranges>:
   0:	00000000 	andeq	r0, r0, r0
   4:	00000004 	andeq	r0, r0, r4
   8:	0000000c 	andeq	r0, r0, ip
   c:	00000010 	andeq	r0, r0, r0, lsl r0
  10:	00000014 	andeq	r0, r0, r4, lsl r0
  14:	00000024 	andeq	r0, r0, r4, lsr #32
	...
  20:	00000054 	andeq	r0, r0, r4, asr r0
  24:	00000058 	andeq	r0, r0, r8, asr r0
  28:	0000005c 	andeq	r0, r0, ip, asr r0
  2c:	00000068 	andeq	r0, r0, r8, rrx
	...
  38:	00000098 	muleq	r0, r8, r0
  3c:	000000a0 	andeq	r0, r0, r0, lsr #1
  40:	000000a4 	andeq	r0, r0, r4, lsr #1
  44:	000000ac 	andeq	r0, r0, ip, lsr #1
  48:	000000b0 	strheq	r0, [r0], -r0	; <UNPREDICTABLE>
  4c:	000000b4 	strheq	r0, [r0], -r4
	...
  58:	000001bc 			; <UNDEFINED> instruction: 0x000001bc
  5c:	000001f4 	strdeq	r0, [r0], -r4
  60:	00000218 	andeq	r0, r0, r8, lsl r2
  64:	00000264 	andeq	r0, r0, r4, ror #4
	...
  70:	000000b8 	strheq	r0, [r0], -r8
  74:	000000c4 	andeq	r0, r0, r4, asr #1
  78:	000000e0 	andeq	r0, r0, r0, ror #1
  7c:	00000110 	andeq	r0, r0, r0, lsl r1
	...
  88:	00000044 	andeq	r0, r0, r4, asr #32
  8c:	000000d8 	ldrdeq	r0, [r0], -r8
  90:	000000e0 	andeq	r0, r0, r0, ror #1
  94:	00000114 	andeq	r0, r0, r4, lsl r1
	...
  a0:	00000044 	andeq	r0, r0, r4, asr #32
  a4:	000000d0 	ldrdeq	r0, [r0], -r0	; <UNPREDICTABLE>
  a8:	000000e0 	andeq	r0, r0, r0, ror #1
  ac:	000000e8 	andeq	r0, r0, r8, ror #1
  b0:	000000f4 	strdeq	r0, [r0], -r4
  b4:	00000108 	andeq	r0, r0, r8, lsl #2
	...
  c0:	00000044 	andeq	r0, r0, r4, asr #32
  c4:	0000004c 	andeq	r0, r0, ip, asr #32
  c8:	0000007c 	andeq	r0, r0, ip, ror r0
  cc:	000000d0 	ldrdeq	r0, [r0], -r0	; <UNPREDICTABLE>
  d0:	000000e0 	andeq	r0, r0, r0, ror #1
  d4:	000000e8 	andeq	r0, r0, r8, ror #1
  d8:	000000f4 	strdeq	r0, [r0], -r4
  dc:	00000108 	andeq	r0, r0, r8, lsl #2
	...
  e8:	0000004c 	andeq	r0, r0, ip, asr #32
  ec:	00000058 	andeq	r0, r0, r8, asr r0
  f0:	00000058 	andeq	r0, r0, r8, asr r0
  f4:	00000074 	andeq	r0, r0, r4, ror r0
	...
 100:	0000004c 	andeq	r0, r0, ip, asr #32
 104:	00000058 	andeq	r0, r0, r8, asr r0
 108:	00000058 	andeq	r0, r0, r8, asr r0
 10c:	00000060 	andeq	r0, r0, r0, rrx
 110:	00000060 	andeq	r0, r0, r0, rrx
 114:	00000074 	andeq	r0, r0, r4, ror r0
	...
 120:	00000050 	andeq	r0, r0, r0, asr r0
 124:	00000058 	andeq	r0, r0, r8, asr r0
 128:	00000058 	andeq	r0, r0, r8, asr r0
 12c:	00000060 	andeq	r0, r0, r0, rrx
 130:	00000060 	andeq	r0, r0, r0, rrx
 134:	00000070 	andeq	r0, r0, r0, ror r0
	...
 140:	0000015c 	andeq	r0, r0, ip, asr r1
 144:	0000015c 	andeq	r0, r0, ip, asr r1
 148:	00000164 	andeq	r0, r0, r4, ror #2
 14c:	0000018c 	andeq	r0, r0, ip, lsl #3
	...
 158:	0000021c 	andeq	r0, r0, ip, lsl r2
 15c:	00000228 	andeq	r0, r0, r8, lsr #4
 160:	0000022c 	andeq	r0, r0, ip, lsr #4
 164:	00000230 	andeq	r0, r0, r0, lsr r2
 168:	00000238 	andeq	r0, r0, r8, lsr r2
 16c:	0000028c 	andeq	r0, r0, ip, lsl #5
 170:	000002c8 	andeq	r0, r0, r8, asr #5
 174:	000002e0 	andeq	r0, r0, r0, ror #5
	...
 180:	00000340 	andeq	r0, r0, r0, asr #6
 184:	00000358 	andeq	r0, r0, r8, asr r3
 188:	0000035c 	andeq	r0, r0, ip, asr r3
 18c:	00000360 	andeq	r0, r0, r0, ror #6
	...
 198:	00000464 	andeq	r0, r0, r4, ror #8
 19c:	000004d0 	ldrdeq	r0, [r0], -r0	; <UNPREDICTABLE>
 1a0:	000004dc 	ldrdeq	r0, [r0], -ip
 1a4:	00000558 	andeq	r0, r0, r8, asr r5
	...
 1b0:	00000478 	andeq	r0, r0, r8, ror r4
 1b4:	00000484 	andeq	r0, r0, r4, lsl #9
 1b8:	00000490 	muleq	r0, r0, r4
 1bc:	000004bc 			; <UNDEFINED> instruction: 0x000004bc
 1c0:	000004dc 	ldrdeq	r0, [r0], -ip
 1c4:	0000052c 	andeq	r0, r0, ip, lsr #10
	...
 1d0:	00000490 	muleq	r0, r0, r4
 1d4:	00000498 	muleq	r0, r8, r4
 1d8:	000004dc 	ldrdeq	r0, [r0], -ip
 1dc:	000004e0 	andeq	r0, r0, r0, ror #9
 1e0:	000004e4 	andeq	r0, r0, r4, ror #9
 1e4:	000004e8 	andeq	r0, r0, r8, ror #9
 1e8:	000004ec 	andeq	r0, r0, ip, ror #9
 1ec:	000004f4 	strdeq	r0, [r0], -r4
 1f0:	00000524 	andeq	r0, r0, r4, lsr #10
 1f4:	00000524 	andeq	r0, r0, r4, lsr #10
	...
 200:	000000a4 	andeq	r0, r0, r4, lsr #1
 204:	00000148 	andeq	r0, r0, r8, asr #2
 208:	00000158 	andeq	r0, r0, r8, asr r1
 20c:	0000015c 	andeq	r0, r0, ip, asr r1
 210:	00000274 	andeq	r0, r0, r4, ror r2
 214:	00000278 	andeq	r0, r0, r8, ror r2
 218:	0000027c 	andeq	r0, r0, ip, ror r2
 21c:	00000280 	andeq	r0, r0, r0, lsl #5
 220:	00000288 	andeq	r0, r0, r8, lsl #5
 224:	0000029c 	muleq	r0, ip, r2
 228:	000002c0 	andeq	r0, r0, r0, asr #5
 22c:	000002cc 	andeq	r0, r0, ip, asr #5
 230:	000002f0 	strdeq	r0, [r0], -r0	; <UNPREDICTABLE>
 234:	000002f0 	strdeq	r0, [r0], -r0	; <UNPREDICTABLE>
 238:	000002f4 	strdeq	r0, [r0], -r4
 23c:	000002f8 	strdeq	r0, [r0], -r8
	...
 248:	00000148 	andeq	r0, r0, r8, asr #2
 24c:	00000158 	andeq	r0, r0, r8, asr r1
 250:	0000015c 	andeq	r0, r0, ip, asr r1
 254:	0000018c 	andeq	r0, r0, ip, lsl #3
 258:	0000029c 	muleq	r0, ip, r2
 25c:	000002ac 	andeq	r0, r0, ip, lsr #5
	...
 268:	000003c8 	andeq	r0, r0, r8, asr #7
 26c:	000003d0 	ldrdeq	r0, [r0], -r0	; <UNPREDICTABLE>
 270:	00000404 	andeq	r0, r0, r4, lsl #8
 274:	000004ac 	andeq	r0, r0, ip, lsr #9
 278:	000004c0 	andeq	r0, r0, r0, asr #9
 27c:	00000920 	andeq	r0, r0, r0, lsr #18
 280:	00000928 	andeq	r0, r0, r8, lsr #18
 284:	000009b4 			; <UNDEFINED> instruction: 0x000009b4
	...
 290:	000003c8 	andeq	r0, r0, r8, asr #7
 294:	000003d0 	ldrdeq	r0, [r0], -r0	; <UNPREDICTABLE>
 298:	00000504 	andeq	r0, r0, r4, lsl #10
 29c:	000005d0 	ldrdeq	r0, [r0], -r0	; <UNPREDICTABLE>
 2a0:	00000800 	andeq	r0, r0, r0, lsl #16
 2a4:	00000888 	andeq	r0, r0, r8, lsl #17
 2a8:	00000930 	andeq	r0, r0, r0, lsr r9
 2ac:	000009b4 			; <UNDEFINED> instruction: 0x000009b4
	...
 2b8:	00000404 	andeq	r0, r0, r4, lsl #8
 2bc:	00000408 	andeq	r0, r0, r8, lsl #8
 2c0:	00000414 	andeq	r0, r0, r4, lsl r4
 2c4:	00000414 	andeq	r0, r0, r4, lsl r4
 2c8:	00000428 	andeq	r0, r0, r8, lsr #8
 2cc:	0000042c 	andeq	r0, r0, ip, lsr #8
	...
 2d8:	000005fc 	strdeq	r0, [r0], -ip
 2dc:	00000700 	andeq	r0, r0, r0, lsl #14
 2e0:	000007ec 	andeq	r0, r0, ip, ror #15
 2e4:	000007f4 	strdeq	r0, [r0], -r4
 2e8:	00000888 	andeq	r0, r0, r8, lsl #17
 2ec:	00000894 	muleq	r0, r4, r8
 2f0:	000008a8 	andeq	r0, r0, r8, lsr #17
 2f4:	000008bc 			; <UNDEFINED> instruction: 0x000008bc
 2f8:	00000910 	andeq	r0, r0, r0, lsl r9
 2fc:	00000920 	andeq	r0, r0, r0, lsr #18
	...
 308:	00000600 	andeq	r0, r0, r0, lsl #12
 30c:	00000604 	andeq	r0, r0, r4, lsl #12
 310:	00000608 	andeq	r0, r0, r8, lsl #12
 314:	000006b4 			; <UNDEFINED> instruction: 0x000006b4
 318:	000006cc 	andeq	r0, r0, ip, asr #13
 31c:	000006d0 	ldrdeq	r0, [r0], -r0	; <UNPREDICTABLE>
 320:	000008a8 	andeq	r0, r0, r8, lsr #17
 324:	000008b8 			; <UNDEFINED> instruction: 0x000008b8
 328:	00000910 	andeq	r0, r0, r0, lsl r9
 32c:	00000920 	andeq	r0, r0, r0, lsr #18
	...
 338:	000006b4 			; <UNDEFINED> instruction: 0x000006b4
 33c:	000006cc 	andeq	r0, r0, ip, asr #13
 340:	000006d0 	ldrdeq	r0, [r0], -r0	; <UNPREDICTABLE>
 344:	00000700 	andeq	r0, r0, r0, lsl #14
 348:	000007ec 	andeq	r0, r0, ip, ror #15
 34c:	000007f4 	strdeq	r0, [r0], -r4
 350:	00000888 	andeq	r0, r0, r8, lsl #17
 354:	00000894 	muleq	r0, r4, r8
 358:	000008b8 			; <UNDEFINED> instruction: 0x000008b8
 35c:	000008bc 			; <UNDEFINED> instruction: 0x000008bc
	...
 368:	00000700 	andeq	r0, r0, r0, lsl #14
 36c:	00000708 	andeq	r0, r0, r8, lsl #14
 370:	0000070c 	andeq	r0, r0, ip, lsl #14
 374:	000007ec 	andeq	r0, r0, ip, ror #15
 378:	00000894 	muleq	r0, r4, r8
 37c:	000008a8 	andeq	r0, r0, r8, lsr #17
	...
 388:	00000728 	andeq	r0, r0, r8, lsr #14
 38c:	000007a4 	andeq	r0, r0, r4, lsr #15
 390:	000007ac 	andeq	r0, r0, ip, lsr #15
 394:	000007b0 			; <UNDEFINED> instruction: 0x000007b0
 398:	00000894 	muleq	r0, r4, r8
 39c:	00000898 	muleq	r0, r8, r8
 3a0:	0000089c 	muleq	r0, ip, r8
 3a4:	000008a0 	andeq	r0, r0, r0, lsr #17
	...
 3b0:	000007a4 	andeq	r0, r0, r4, lsr #15
 3b4:	000007ac 	andeq	r0, r0, ip, lsr #15
 3b8:	000007b0 			; <UNDEFINED> instruction: 0x000007b0
 3bc:	000007ec 	andeq	r0, r0, ip, ror #15
 3c0:	00000898 	muleq	r0, r8, r8
 3c4:	0000089c 	muleq	r0, ip, r8
 3c8:	000008a0 	andeq	r0, r0, r0, lsr #17
 3cc:	000008a8 	andeq	r0, r0, r8, lsr #17
	...
 3d8:	00009868 	andeq	r9, r0, r8, ror #16
 3dc:	00009868 	andeq	r9, r0, r8, ror #16
 3e0:	0000986c 	andeq	r9, r0, ip, ror #16
 3e4:	00009874 	andeq	r9, r0, r4, ror r8
	...
 3f0:	0000983c 	andeq	r9, r0, ip, lsr r8
 3f4:	000098c8 	andeq	r9, r0, r8, asr #17
	...
 400:	00000030 	andeq	r0, r0, r0, lsr r0
 404:	00000030 	andeq	r0, r0, r0, lsr r0
 408:	00000038 	andeq	r0, r0, r8, lsr r0
 40c:	0000004c 	andeq	r0, r0, ip, asr #32
	...
 418:	0000004c 	andeq	r0, r0, ip, asr #32
 41c:	00000050 	andeq	r0, r0, r0, asr r0
 420:	00000050 	andeq	r0, r0, r0, asr r0
 424:	00000078 	andeq	r0, r0, r8, ror r0
	...
 430:	0000004c 	andeq	r0, r0, ip, asr #32
 434:	00000050 	andeq	r0, r0, r0, asr r0
 438:	00000050 	andeq	r0, r0, r0, asr r0
 43c:	00000060 	andeq	r0, r0, r0, rrx
 440:	00000064 	andeq	r0, r0, r4, rrx
 444:	00000068 	andeq	r0, r0, r8, rrx
	...
 450:	0000004c 	andeq	r0, r0, ip, asr #32
 454:	00000050 	andeq	r0, r0, r0, asr r0
 458:	00000054 	andeq	r0, r0, r4, asr r0
 45c:	00000060 	andeq	r0, r0, r0, rrx
	...
 468:	0000009c 	muleq	r0, ip, r0
 46c:	000000a0 	andeq	r0, r0, r0, lsr #1
 470:	000000a0 	andeq	r0, r0, r0, lsr #1
 474:	000000c8 	andeq	r0, r0, r8, asr #1
	...
 480:	0000009c 	muleq	r0, ip, r0
 484:	000000a0 	andeq	r0, r0, r0, lsr #1
 488:	000000a0 	andeq	r0, r0, r0, lsr #1
 48c:	000000b0 	strheq	r0, [r0], -r0	; <UNPREDICTABLE>
 490:	000000b4 	strheq	r0, [r0], -r4
 494:	000000b8 	strheq	r0, [r0], -r8
	...
 4a0:	0000009c 	muleq	r0, ip, r0
 4a4:	000000a0 	andeq	r0, r0, r0, lsr #1
 4a8:	000000a4 	andeq	r0, r0, r4, lsr #1
 4ac:	000000b0 	strheq	r0, [r0], -r0	; <UNPREDICTABLE>
	...
 4b8:	000000c8 	andeq	r0, r0, r8, asr #1
 4bc:	000000c8 	andeq	r0, r0, r8, asr #1
 4c0:	000000cc 	andeq	r0, r0, ip, asr #1
 4c4:	0000011c 	andeq	r0, r0, ip, lsl r1
	...
 4d0:	000000f0 	strdeq	r0, [r0], -r0	; <UNPREDICTABLE>
 4d4:	000000f4 	strdeq	r0, [r0], -r4
 4d8:	000000f4 	strdeq	r0, [r0], -r4
 4dc:	0000011c 	andeq	r0, r0, ip, lsl r1
	...
 4e8:	000000f0 	strdeq	r0, [r0], -r0	; <UNPREDICTABLE>
 4ec:	000000f4 	strdeq	r0, [r0], -r4
 4f0:	000000f4 	strdeq	r0, [r0], -r4
 4f4:	00000104 	andeq	r0, r0, r4, lsl #2
 4f8:	00000108 	andeq	r0, r0, r8, lsl #2
 4fc:	0000010c 	andeq	r0, r0, ip, lsl #2
	...
 508:	000000f0 	strdeq	r0, [r0], -r0	; <UNPREDICTABLE>
 50c:	000000f4 	strdeq	r0, [r0], -r4
 510:	000000f8 	strdeq	r0, [r0], -r8
 514:	00000104 	andeq	r0, r0, r4, lsl #2
	...
 520:	00000134 	andeq	r0, r0, r4, lsr r1
 524:	00000134 	andeq	r0, r0, r4, lsr r1
 528:	00000134 	andeq	r0, r0, r4, lsr r1
 52c:	0000013c 	andeq	r0, r0, ip, lsr r1
	...
 538:	0000024c 	andeq	r0, r0, ip, asr #4
 53c:	00000264 	andeq	r0, r0, r4, ror #4
 540:	000002c8 	andeq	r0, r0, r8, asr #5
 544:	000002e8 	andeq	r0, r0, r8, ror #5
	...
 550:	00000008 	andeq	r0, r0, r8
 554:	0000000c 	andeq	r0, r0, ip
 558:	00000014 	andeq	r0, r0, r4, lsl r0
 55c:	00000054 	andeq	r0, r0, r4, asr r0
 560:	00000058 	andeq	r0, r0, r8, asr r0
 564:	00000060 	andeq	r0, r0, r0, rrx
	...
 570:	00000060 	andeq	r0, r0, r0, rrx
 574:	00000068 	andeq	r0, r0, r8, rrx
 578:	0000006c 	andeq	r0, r0, ip, rrx
 57c:	000000ac 	andeq	r0, r0, ip, lsr #1
 580:	000000b0 	strheq	r0, [r0], -r0	; <UNPREDICTABLE>
 584:	000000b8 	strheq	r0, [r0], -r8
	...
 590:	00000068 	andeq	r0, r0, r8, rrx
 594:	00000068 	andeq	r0, r0, r8, rrx
 598:	0000006c 	andeq	r0, r0, ip, rrx
 59c:	000000ac 	andeq	r0, r0, ip, lsr #1
 5a0:	000000b0 	strheq	r0, [r0], -r0	; <UNPREDICTABLE>
 5a4:	000000b8 	strheq	r0, [r0], -r8
	...
 5b0:	000000e8 	andeq	r0, r0, r8, ror #1
 5b4:	000000f0 	strdeq	r0, [r0], -r0	; <UNPREDICTABLE>
 5b8:	000000f4 	strdeq	r0, [r0], -r4
 5bc:	00000134 	andeq	r0, r0, r4, lsr r1
 5c0:	00000138 	andeq	r0, r0, r8, lsr r1
 5c4:	00000140 	andeq	r0, r0, r0, asr #2
	...
 5d0:	000000f0 	strdeq	r0, [r0], -r0	; <UNPREDICTABLE>
 5d4:	000000f0 	strdeq	r0, [r0], -r0	; <UNPREDICTABLE>
 5d8:	000000f4 	strdeq	r0, [r0], -r4
 5dc:	00000134 	andeq	r0, r0, r4, lsr r1
 5e0:	00000138 	andeq	r0, r0, r8, lsr r1
 5e4:	00000140 	andeq	r0, r0, r0, asr #2
	...
 5f0:	00000144 	andeq	r0, r0, r4, asr #2
 5f4:	00000148 	andeq	r0, r0, r8, asr #2
 5f8:	00000150 	andeq	r0, r0, r0, asr r1
 5fc:	0000015c 	andeq	r0, r0, ip, asr r1
	...

Disassembly of section .debug_line:

00000000 <.debug_line>:
       0:	00000201 	andeq	r0, r0, r1, lsl #4
       4:	00ee0003 	rsceq	r0, lr, r3
       8:	01020000 	mrseq	r0, (UNDEF: 2)
       c:	000d0efb 	strdeq	r0, [sp], -fp
      10:	01010101 	tsteq	r1, r1, lsl #2
      14:	01000000 	mrseq	r0, (UNDEF: 0)
      18:	74010000 	strvc	r0, [r1], #-0
      1c:	73747365 	cmnvc	r4, #-1811939327	; 0x94000001
      20:	302e322d 	eorcc	r3, lr, sp, lsr #4
      24:	2f002e00 	svccs	0x00002e00
      28:	2f74706f 	svccs	0x0074706f
      2c:	656d6f68 	strbvs	r6, [sp, #-3944]!	; 0xfffff098
      30:	77657262 	strbvc	r7, [r5, -r2, ror #4]!
      34:	6c65432f 	stclvs	3, cr4, [r5], #-188	; 0xffffff44
      38:	2f72616c 	svccs	0x0072616c
      3c:	2d6d7261 	sfmcs	f7, 2, [sp, #-388]!	; 0xfffffe7c
      40:	656e6f6e 	strbvs	r6, [lr, #-3950]!	; 0xfffff092
      44:	6261652d 	rsbvs	r6, r1, #188743680	; 0xb400000
      48:	2f392d69 	svccs	0x00392d69
      4c:	30322d39 	eorscc	r2, r2, r9, lsr sp
      50:	34713931 	ldrbtcc	r3, [r1], #-2353	; 0xfffff6cf
      54:	3173632d 	cmncc	r3, sp, lsr #6
      58:	2f653730 	svccs	0x00653730
      5c:	2f62696c 	svccs	0x0062696c
      60:	2f636367 	svccs	0x00636367
      64:	2d6d7261 	sfmcs	f7, 2, [sp, #-388]!	; 0xfffffe7c
      68:	656e6f6e 	strbvs	r6, [lr, #-3950]!	; 0xfffff092
      6c:	6261652d 	rsbvs	r6, r1, #188743680	; 0xb400000
      70:	2e392f69 	cdpcs	15, 3, cr2, cr9, cr9, {3}
      74:	2f312e32 	svccs	0x00312e32
      78:	6c636e69 	stclvs	14, cr6, [r3], #-420	; 0xfffffe5c
      7c:	00656475 	rsbeq	r6, r5, r5, ror r4
      80:	6573552f 	ldrbvs	r5, [r3, #-1327]!	; 0xfffffad1
      84:	6d2f7372 	stcvs	3, cr7, [pc, #-456]!	; fffffec4 <__bss_end__+0xffff4f64>
      88:	73656c69 	cmnvc	r5, #26880	; 0x6900
      8c:	756f532f 	strbvc	r5, [pc, #-815]!	; fffffd65 <__bss_end__+0xffff4e05>
      90:	2f656372 	svccs	0x00656372
      94:	34327363 	ldrtcc	r7, [r2], #-867	; 0xfffffc9d
      98:	2f786c30 	svccs	0x00786c30
      9c:	7062696c 	rsbvc	r6, r2, ip, ror #18
      a0:	6e692f69 	cdpvs	15, 6, cr2, cr9, cr9, {3}
      a4:	64756c63 	ldrbtvs	r6, [r5], #-3171	; 0xfffff39d
      a8:	70000065 	andvc	r0, r0, r5, rrx
      ac:	32747261 	rsbscc	r7, r4, #268435462	; 0x10000006
      b0:	7365742d 	cmnvc	r5, #754974720	; 0x2d000000
      b4:	6e2d3174 	mcrvs	1, 1, r3, cr13, cr4, {3}
      b8:	656c2d6f 	strbvs	r2, [ip, #-3439]!	; 0xfffff291
      bc:	632e6b61 			; <UNDEFINED> instruction: 0x632e6b61
      c0:	00000100 	andeq	r0, r0, r0, lsl #2
      c4:	2d637273 	sfmcs	f7, 2, [r3, #-460]!	; 0xfffffe34
      c8:	2e636f6c 	cdpcs	15, 6, cr6, cr3, cr12, {3}
      cc:	00020068 	andeq	r0, r2, r8, rrx
      d0:	616b6300 	cmnvs	fp, r0, lsl #6
      d4:	636f6c6c 	cmnvs	pc, #108, 24	; 0x6c00
      d8:	0200682e 	andeq	r6, r0, #3014656	; 0x2e0000
      dc:	74730000 	ldrbtvc	r0, [r3], #-0
      e0:	746e6964 	strbtvc	r6, [lr], #-2404	; 0xfffff69c
      e4:	6363672d 	cmnvs	r3, #11796480	; 0xb40000
      e8:	0300682e 	movweq	r6, #2094	; 0x82e
      ec:	70720000 	rsbsvc	r0, r2, r0
      f0:	00682e69 	rsbeq	r2, r8, r9, ror #28
      f4:	00000004 	andeq	r0, r0, r4
      f8:	05001205 	streq	r1, [r0, #-517]	; 0xfffffdfb
      fc:	00803802 	addeq	r3, r0, r2, lsl #16
     100:	05051900 	streq	r1, [r5, #-2304]	; 0xfffff700
     104:	05020413 	streq	r0, [r2, #-1043]	; 0xfffffbed
     108:	0505150b 	streq	r1, [r5, #-1291]	; 0xfffffaf5
     10c:	060c0513 			; <UNDEFINED> instruction: 0x060c0513
     110:	05010401 	streq	r0, [r1, #-1025]	; 0xfffffbff
     114:	02042912 	andeq	r2, r4, #294912	; 0x48000
     118:	2e4f0c05 	cdpcs	12, 4, cr0, cr15, cr5, {0}
     11c:	0f050104 	svceq	0x00050104
     120:	0502040e 	streq	r0, [r2, #-1038]	; 0xfffffbf2
     124:	0104320c 	tsteq	r4, ip, lsl #4
     128:	057e0f05 	ldrbeq	r0, [lr, #-3845]!	; 0xfffff0fb
     12c:	01830605 	orreq	r0, r3, r5, lsl #12
     130:	11050304 	tstne	r5, r4, lsl #6
     134:	05011803 	streq	r1, [r1, #-2051]	; 0xfffff7fd
     138:	06131305 	ldreq	r1, [r3], -r5, lsl #6
     13c:	03010401 	movweq	r0, #5121	; 0x1401
     140:	062e0166 	strteq	r0, [lr], -r6, ror #2
     144:	04831366 	streq	r1, [r3], #870	; 0x366
     148:	010b0502 	tsteq	fp, r2, lsl #10
     14c:	05130505 	ldreq	r0, [r3, #-1285]	; 0xfffffafb
     150:	0401060c 	streq	r0, [r1], #-1548	; 0xfffff9f4
     154:	2d050501 	cfstr32cs	mvfx0, [r5, #-4]
     158:	0c050204 	sfmeq	f0, 4, [r5], {4}
     15c:	01042e2f 	tsteq	r4, pc, lsr #28
     160:	05490505 	strbeq	r0, [r9, #-1285]	; 0xfffffafb
     164:	05054b01 	streq	r4, [r5, #-2817]	; 0xfffff4ff
     168:	14052e49 	strne	r2, [r5], #-3657	; 0xfffff1b7
     16c:	02050006 	andeq	r0, r5, #6, 0
     170:	000080c0 	andeq	r8, r0, r0, asr #1
     174:	13050515 	movwne	r0, #21781	; 0x5515
     178:	11061405 	tstne	r6, r5, lsl #8
     17c:	052f0505 	streq	r0, [pc, #-1285]!	; fffffc7f <__bss_end__+0xffff4d1f>
     180:	05052d14 	streq	r2, [r5, #-3348]	; 0xfffff2ec
     184:	0533062f 	ldreq	r0, [r3, #-1583]!	; 0xfffff9d1
     188:	01730306 	cmneq	r3, r6, lsl #6
     18c:	04130505 	ldreq	r0, [r3], #-1285	; 0xfffffafb
     190:	150b0502 	strne	r0, [fp, #-1282]	; 0xfffffafe
     194:	05130505 	ldreq	r0, [r3, #-1285]	; 0xfffffafb
     198:	4a01060c 	bmi	419d0 <__bss_end__+0x36a70>
     19c:	0f050104 	svceq	0x00050104
     1a0:	0502040e 	streq	r0, [r2, #-1038]	; 0xfffffbf2
     1a4:	0104320c 	tsteq	r4, ip, lsl #4
     1a8:	04460f05 	strbeq	r0, [r6], #-3845	; 0xfffff0fb
     1ac:	320c0502 	andcc	r0, ip, #8388608	; 0x800000
     1b0:	0f050104 	svceq	0x00050104
     1b4:	0605052a 	streq	r0, [r5], -sl, lsr #10
     1b8:	03040167 	movweq	r0, #16743	; 0x4167
     1bc:	18031105 	stmdane	r3, {r0, r2, r8, ip}
     1c0:	13050501 	movwne	r0, #21761	; 0x5501
     1c4:	04010613 	streq	r0, [r1], #-1555	; 0xfffff9ed
     1c8:	01660301 	cmneq	r6, r1, lsl #6
     1cc:	1366062e 	cmnne	r6, #48234496	; 0x2e00000
     1d0:	05020483 	streq	r0, [r2, #-1155]	; 0xfffffb7d
     1d4:	0505010b 	streq	r0, [r5, #-267]	; 0xfffffef5
     1d8:	060c0513 			; <UNDEFINED> instruction: 0x060c0513
     1dc:	01046601 	tsteq	r4, r1, lsl #12
     1e0:	822d0505 	eorhi	r0, sp, #20971520	; 0x1400000
     1e4:	01120306 	tsteq	r2, r6, lsl #6
     1e8:	01060805 	tsteq	r6, r5, lsl #16
     1ec:	054a0705 	strbeq	r0, [sl, #-1797]	; 0xfffff8fb
     1f0:	144b0609 	strbne	r0, [fp], #-1545	; 0xfffff9f7
     1f4:	06010501 	streq	r0, [r1], -r1, lsl #10
     1f8:	4909052f 	stmdbmi	r9, {r0, r1, r2, r3, r5, r8, sl}
     1fc:	9e012c06 	cdpls	12, 0, cr2, cr1, cr6, {0}
     200:	01000e02 	tsteq	r0, r2, lsl #28
     204:	0003e101 	andeq	lr, r3, r1, lsl #2
     208:	e5000300 	str	r0, [r0, #-768]	; 0xfffffd00
     20c:	02000000 	andeq	r0, r0, #0, 0
     210:	0d0efb01 	vstreq	d15, [lr, #-4]
     214:	01010100 	mrseq	r0, (UNDEF: 17)
     218:	00000001 	andeq	r0, r0, r1
     21c:	01000001 	tsteq	r0, r1
     220:	74706f2f 	ldrbtvc	r6, [r0], #-3887	; 0xfffff0d1
     224:	6d6f682f 	stclvs	8, cr6, [pc, #-188]!	; 170 <__code_start__-0x7e90>
     228:	65726265 	ldrbvs	r6, [r2, #-613]!	; 0xfffffd9b
     22c:	65432f77 	strbvs	r2, [r3, #-3959]	; 0xfffff089
     230:	72616c6c 	rsbvc	r6, r1, #108, 24	; 0x6c00
     234:	6d72612f 	ldfvse	f6, [r2, #-188]!	; 0xffffff44
     238:	6e6f6e2d 	cdpvs	14, 6, cr6, cr15, cr13, {1}
     23c:	61652d65 	cmnvs	r5, r5, ror #26
     240:	392d6962 	pushcc	{r1, r5, r6, r8, fp, sp, lr}
     244:	322d392f 	eorcc	r3, sp, #770048	; 0xbc000
     248:	71393130 	teqvc	r9, r0, lsr r1
     24c:	73632d34 	cmnvc	r3, #52, 26	; 0xd00
     250:	65373031 	ldrvs	r3, [r7, #-49]!	; 0xffffffcf
     254:	62696c2f 	rsbvs	r6, r9, #12032	; 0x2f00
     258:	6363672f 	cmnvs	r3, #12320768	; 0xbc0000
     25c:	6d72612f 	ldfvse	f6, [r2, #-188]!	; 0xffffff44
     260:	6e6f6e2d 	cdpvs	14, 6, cr6, cr15, cr13, {1}
     264:	61652d65 	cmnvs	r5, r5, ror #26
     268:	392f6962 	stmdbcc	pc!, {r1, r5, r6, r8, fp, sp, lr}	; <UNPREDICTABLE>
     26c:	312e322e 			; <UNDEFINED> instruction: 0x312e322e
     270:	636e692f 	cmnvs	lr, #770048	; 0xbc000
     274:	6564756c 	strbvs	r7, [r4, #-1388]!	; 0xfffffa94
     278:	73552f00 	cmpvc	r5, #0, 30
     27c:	2f737265 	svccs	0x00737265
     280:	656c696d 	strbvs	r6, [ip, #-2413]!	; 0xfffff693
     284:	6f532f73 	svcvs	0x00532f73
     288:	65637275 	strbvs	r7, [r3, #-629]!	; 0xfffffd8b
     28c:	3273632f 	rsbscc	r6, r3, #-1140850688	; 0xbc000000
     290:	786c3034 	stmdavc	ip!, {r2, r4, r5, ip, sp}^
     294:	62696c2f 	rsbvs	r6, r9, #12032	; 0x2f00
     298:	692f6970 	stmdbvs	pc!, {r4, r5, r6, r8, fp, sp, lr}	; <UNPREDICTABLE>
     29c:	756c636e 	strbvc	r6, [ip, #-878]!	; 0xfffffc92
     2a0:	00006564 	andeq	r6, r0, r4, ror #10
     2a4:	6c616b63 			; <UNDEFINED> instruction: 0x6c616b63
     2a8:	2e636f6c 	cdpcs	15, 6, cr6, cr3, cr12, {3}
     2ac:	00000063 	andeq	r0, r0, r3, rrx
     2b0:	616b6300 	cmnvs	fp, r0, lsl #6
     2b4:	636f6c6c 	cmnvs	pc, #108, 24	; 0x6c00
     2b8:	0000682e 	andeq	r6, r0, lr, lsr #16
     2bc:	74730000 	ldrbtvc	r0, [r3], #-0
     2c0:	746e6964 	strbtvc	r6, [lr], #-2404	; 0xfffff69c
     2c4:	6363672d 	cmnvs	r3, #11796480	; 0xb40000
     2c8:	0100682e 	tsteq	r0, lr, lsr #16
     2cc:	70720000 	rsbsvc	r0, r2, r0
     2d0:	00682e69 	rsbeq	r2, r8, r9, ror #28
     2d4:	73000002 	movwvc	r0, #2
     2d8:	6c2d6372 	stcvs	3, cr6, [sp], #-456	; 0xfffffe38
     2dc:	682e636f 	stmdavs	lr!, {r0, r1, r2, r3, r5, r6, r8, r9, sp, lr}
     2e0:	00000000 	andeq	r0, r0, r0
     2e4:	6d2d726b 	sfmvs	f7, 4, [sp, #-428]!	; 0xfffffe54
     2e8:	6f6c6c61 	svcvs	0x006c6c61
     2ec:	00682e63 	rsbeq	r2, r8, r3, ror #28
     2f0:	00000000 	andeq	r0, r0, r0
     2f4:	05000105 	streq	r0, [r0, #-261]	; 0xfffffefb
     2f8:	00818802 	addeq	r8, r1, r2, lsl #16
     2fc:	010b0300 	mrseq	r0, (UNDEF: 59)
     300:	05130505 	ldreq	r0, [r3, #-1285]	; 0xfffffafb
     304:	06130601 	ldreq	r0, [r3], -r1, lsl #12
     308:	13050586 	movwne	r0, #21894	; 0x5586
     30c:	01060805 	tsteq	r6, r5, lsl #16
     310:	0609052e 	streq	r0, [r9], -lr, lsr #10
     314:	0611052f 	ldreq	r0, [r1], -pc, lsr #10
     318:	30010501 	andcc	r0, r1, r1, lsl #10
     31c:	2e250306 	cdpcs	3, 2, cr0, cr5, cr6, {0}
     320:	05050106 	streq	r0, [r5, #-262]	; 0xfffffefa
     324:	00014b06 	andeq	r4, r1, r6, lsl #22
     328:	66020402 	strvs	r0, [r2], -r2, lsl #8
     32c:	02040200 	andeq	r0, r4, #0, 4
     330:	04020001 	streq	r0, [r2], #-1
     334:	0c051302 	stceq	3, cr1, [r5], {2}
     338:	02040200 	andeq	r0, r4, #0, 4
     33c:	05050106 	streq	r0, [r5, #-262]	; 0xfffffefa
     340:	02040200 	andeq	r0, r4, #0, 4
     344:	08053006 	stmdaeq	r5, {r1, r2, ip, sp}
     348:	02040200 	andeq	r0, r4, #0, 4
     34c:	0b050106 	bleq	14076c <__bss_end__+0x13580c>
     350:	11055106 	tstne	r5, r6, lsl #2
     354:	0b052e06 	bleq	14bb74 <__bss_end__+0x140c14>
     358:	09052e2e 	stmdbeq	r5, {r1, r2, r3, r5, r9, sl, fp, sp}
     35c:	0c053006 	stceq	0, cr3, [r5], {6}
     360:	0d050106 	stfeqs	f0, [r5, #-24]	; 0xffffffe8
     364:	1b054c06 	blne	153384 <__bss_end__+0x148424>
     368:	18050106 	stmdane	r5, {r1, r2, r8}
     36c:	060d052e 	streq	r0, [sp], -lr, lsr #10
     370:	0601052f 	streq	r0, [r1], -pc, lsr #10
     374:	00050517 	andeq	r0, r5, r7, lsl r5
     378:	06010402 	streq	r0, [r1], -r2, lsl #8
     37c:	004a6c03 	subeq	r6, sl, r3, lsl #24
     380:	01010402 	tsteq	r1, r2, lsl #8
     384:	01040200 	mrseq	r0, R12_usr
     388:	02009e06 	andeq	r9, r0, #96	; 0x60
     38c:	002e0104 	eoreq	r0, lr, r4, lsl #2
     390:	06010402 	streq	r0, [r1], -r2, lsl #8
     394:	3309052e 	movwcc	r0, #38190	; 0x952e
     398:	01060f05 	tsteq	r6, r5, lsl #30
     39c:	052e0c05 	streq	r0, [lr, #-3077]!	; 0xfffff3fb
     3a0:	052f0609 	streq	r0, [pc, #-1545]!	; fffffd9f <__bss_end__+0xffff4e3f>
     3a4:	2e0d0305 	cdpcs	3, 0, cr0, cr13, cr5, {0}
     3a8:	069e0601 	ldreq	r0, [lr], r1, lsl #12
     3ac:	0301052e 	movweq	r0, #5422	; 0x152e
     3b0:	0505ba4a 	streq	fp, [r5, #-2634]	; 0xfffff5b6
     3b4:	06010513 			; <UNDEFINED> instruction: 0x06010513
     3b8:	32062e13 	andcc	r2, r6, #304	; 0x130
     3bc:	05050106 	streq	r0, [r5, #-262]	; 0xfffffefa
     3c0:	14054b06 	strne	r4, [r5], #-2822	; 0xfffff4fa
     3c4:	02040106 	andeq	r0, r4, #-2147483647	; 0x80000001
     3c8:	03061805 	movweq	r1, #26629	; 0x6805
     3cc:	05052e0e 	streq	r2, [r5, #-3598]	; 0xfffff1f2
     3d0:	060d0513 			; <UNDEFINED> instruction: 0x060d0513
     3d4:	01042e01 	tsteq	r4, r1, lsl #28
     3d8:	72030105 	andvc	r0, r3, #1073741825	; 0x40000001
     3dc:	064e0601 	strbeq	r0, [lr], -r1, lsl #12
     3e0:	06050501 	streq	r0, [r5], -r1, lsl #10
     3e4:	06110567 	ldreq	r0, [r1], -r7, ror #10
     3e8:	05052e01 	streq	r2, [r5, #-3585]	; 0xfffff1ff
     3ec:	11052f06 	tstne	r5, r6, lsl #30
     3f0:	052e0106 	streq	r0, [lr, #-262]!	; 0xfffffefa
     3f4:	052f0605 	streq	r0, [pc, #-1541]!	; fffffdf7 <__bss_end__+0xffff4e97>
     3f8:	66130601 	ldrvs	r0, [r3], -r1, lsl #12
     3fc:	01064d06 	tsteq	r6, r6, lsl #26
     400:	4c060505 	cfstr32mi	mvfx0, [r6], {5}
     404:	05010a05 	streq	r0, [r1, #-2565]	; 0xfffff5fb
     408:	2e010615 	mcrcs	6, 0, r0, cr1, cr5, {0}
     40c:	02002505 	andeq	r2, r0, #20971520	; 0x1400000
     410:	2e060104 	adfcss	f0, f6, f4
     414:	02000505 	andeq	r0, r0, #20971520	; 0x1400000
     418:	01060104 	tsteq	r6, r4, lsl #2
     41c:	4d060905 	vstrmi.16	s0, [r6, #-10]	; <UNPREDICTABLE>
     420:	01060d05 	tsteq	r6, r5, lsl #26
     424:	2e0c054a 	cfsh32cs	mvfx0, mvfx12, #42
     428:	02002805 	andeq	r2, r0, #327680	; 0x50000
     42c:	47060204 	strmi	r0, [r6, -r4, lsl #4]
     430:	02002c05 	andeq	r2, r0, #1280	; 0x500
     434:	01060204 	tsteq	r6, r4, lsl #4
     438:	02040200 	andeq	r0, r4, #0, 4
     43c:	060d0566 	streq	r0, [sp], -r6, ror #10
     440:	01068333 	tsteq	r6, r3, lsr r3
     444:	06160105 	ldreq	r0, [r6], -r5, lsl #2
     448:	06661c03 	strbteq	r1, [r6], -r3, lsl #24
     44c:	05058201 	streq	r8, [r5, #-513]	; 0xfffffdff
     450:	14132f06 	ldrne	r2, [r3], #-3846	; 0xfffff0fa
     454:	1366f201 	msrne	SPSR_sx, #268435456	; 0x10000000
     458:	01060a05 	tsteq	r6, r5, lsl #20
     45c:	052e0805 	streq	r0, [lr, #-2053]!	; 0xfffff7fb
     460:	1405690d 	strne	r6, [r5], #-2317	; 0xfffff6f3
     464:	01040200 	mrseq	r0, R12_usr
     468:	05052e06 	streq	r2, [r5, #-3590]	; 0xfffff1fa
     46c:	01040200 	mrseq	r0, R12_usr
     470:	09050106 	stmdbeq	r5, {r1, r2, r8}
     474:	13054b06 	movwne	r4, #23302	; 0x5b06
     478:	0c050106 	stfeqs	f0, [r5], {6}
     47c:	060d054a 	streq	r0, [sp], -sl, asr #10
     480:	1409054b 	strne	r0, [r9], #-1355	; 0xfffffab5
     484:	01062205 	tsteq	r6, r5, lsl #4
     488:	052e3105 	streq	r3, [lr, #-261]!	; 0xfffffefb
     48c:	0c052e0d 	stceq	14, cr2, [r5], {13}
     490:	000d052e 	andeq	r0, sp, lr, lsr #10
     494:	06020402 	streq	r0, [r2], -r2, lsl #8
     498:	0028054b 	eoreq	r0, r8, fp, asr #10
     49c:	0d020402 	cfstrseq	mvf0, [r2, #-8]
     4a0:	02002905 	andeq	r2, r0, #81920	; 0x14000
     4a4:	01060204 	tsteq	r6, r4, lsl #4
     4a8:	02040200 	andeq	r0, r4, #0, 4
     4ac:	0402002e 	streq	r0, [r2], #-46	; 0xffffffd2
     4b0:	09052e02 	stmdbeq	r5, {r1, r9, sl, fp, sp}
     4b4:	9e011006 	cdpls	0, 0, cr1, cr1, cr6, {0}
     4b8:	320d0566 	andcc	r0, sp, #427819008	; 0x19800000
     4bc:	2e069e01 	cdpcs	14, 0, cr9, cr6, cr1, {0}
     4c0:	01318206 	teqeq	r1, r6, lsl #4
     4c4:	2e064a9e 			; <UNDEFINED> instruction: 0x2e064a9e
     4c8:	00140515 	andseq	r0, r4, r5, lsl r5
     4cc:	06010402 	streq	r0, [r1], -r2, lsl #8
     4d0:	0019052e 	andseq	r0, r9, lr, lsr #10
     4d4:	06010402 	streq	r0, [r1], -r2, lsl #8
     4d8:	00050501 	andeq	r0, r5, r1, lsl #10
     4dc:	2e010402 	cdpcs	4, 0, cr0, cr1, cr2, {0}
     4e0:	02000905 	andeq	r0, r0, #81920	; 0x14000
     4e4:	2f060304 	svccs	0x00060304
     4e8:	02001c05 	andeq	r1, r0, #1280	; 0x500
     4ec:	01060304 	tsteq	r6, r4, lsl #6
     4f0:	02002905 	andeq	r2, r0, #81920	; 0x14000
     4f4:	49060304 	stmdbmi	r6, {r2, r8, r9}
     4f8:	02002a05 	andeq	r2, r0, #20480	; 0x5000
     4fc:	01060304 	tsteq	r6, r4, lsl #6
     500:	03040200 	movweq	r0, #16896	; 0x4200
     504:	0402002e 	streq	r0, [r2], #-46	; 0xffffffd2
     508:	05052e03 	streq	r2, [r5, #-3587]	; 0xfffff1fd
     50c:	0e051606 	cfmadd32eq	mvax0, mvfx1, mvfx5, mvfx6
     510:	052e0106 	streq	r0, [lr, #-262]!	; 0xfffffefa
     514:	012f0605 			; <UNDEFINED> instruction: 0x012f0605
     518:	02040200 	andeq	r0, r4, #0, 4
     51c:	04020082 	streq	r0, [r2], #-130	; 0xffffff7e
     520:	02000102 	andeq	r0, r0, #-2147483648	; 0x80000000
     524:	05140204 	ldreq	r0, [r4, #-516]	; 0xfffffdfc
     528:	04020001 	streq	r0, [r2], #-1
     52c:	05680602 	strbeq	r0, [r8, #-1538]!	; 0xfffff9fe
     530:	04020005 	streq	r0, [r2], #-5
     534:	00460601 	subeq	r0, r6, r1, lsl #12
     538:	01010402 	tsteq	r1, r2, lsl #8
     53c:	01040200 	mrseq	r0, R12_usr
     540:	030105d6 	movweq	r0, #5590	; 0x15d6
     544:	0674080a 	ldrbteq	r0, [r4], -sl, lsl #16
     548:	05058201 	streq	r8, [r5, #-513]	; 0xfffffdff
     54c:	10052f06 	andne	r2, r5, r6, lsl #30
     550:	05050106 	streq	r0, [r5, #-262]	; 0xfffffefa
     554:	05696906 	strbeq	r6, [r9, #-2310]!	; 0xfffff6fa
     558:	0d050109 	stfeqs	f0, [r5, #-36]	; 0xffffffdc
     55c:	14050106 	strne	r0, [r5], #-262	; 0xfffffefa
     560:	01040200 	mrseq	r0, R12_usr
     564:	05052e06 	streq	r2, [r5, #-3590]	; 0xfffff1fa
     568:	01040200 	mrseq	r0, R12_usr
     56c:	09050106 	stmdbeq	r5, {r1, r2, r8}
     570:	03040200 	movweq	r0, #16896	; 0x4200
     574:	13054b06 	movwne	r4, #23302	; 0x5b06
     578:	03040200 	movweq	r0, #16896	; 0x4200
     57c:	09050106 	stmdbeq	r5, {r1, r2, r8}
     580:	03040200 	movweq	r0, #16896	; 0x4200
     584:	26056706 	strcs	r6, [r5], -r6, lsl #14
     588:	03040200 	movweq	r0, #16896	; 0x4200
     58c:	2b050106 	blcs	1409ac <__bss_end__+0x135a4c>
     590:	03040200 	movweq	r0, #16896	; 0x4200
     594:	0028054a 	eoreq	r0, r8, sl, asr #10
     598:	06030402 	streq	r0, [r3], -r2, lsl #8
     59c:	0029052c 	eoreq	r0, r9, ip, lsr #10
     5a0:	06030402 	streq	r0, [r3], -r2, lsl #8
     5a4:	04020001 	streq	r0, [r2], #-1
     5a8:	02002e03 	andeq	r2, r0, #3, 28	; 0x30
     5ac:	052e0304 	streq	r0, [lr, #-772]!	; 0xfffffcfc
     5b0:	05170605 	ldreq	r0, [r7, #-1541]	; 0xfffff9fb
     5b4:	05010615 	streq	r0, [r1, #-1557]	; 0xfffff9eb
     5b8:	052f0605 	streq	r0, [pc, #-1541]!	; ffffffbb <__bss_end__+0xffff505b>
     5bc:	2e01060e 	cfmadd32cs	mvax0, mvfx0, mvfx1, mvfx14
     5c0:	2f060505 	svccs	0x00060505
     5c4:	01061205 	tsteq	r6, r5, lsl #4
     5c8:	84060505 	strhi	r0, [r6], #-1285	; 0xfffffafb
     5cc:	149e9e01 	ldrne	r9, [lr], #3585	; 0xe01
     5d0:	01060d05 	tsteq	r6, r5, lsl #26
     5d4:	67060505 	strvs	r0, [r6, -r5, lsl #10]
     5d8:	01061005 	tsteq	r6, r5
     5dc:	30060505 	andcc	r0, r6, r5, lsl #10
     5e0:	14060105 	strne	r0, [r6], #-261	; 0xfffffefb
     5e4:	00060266 	andeq	r0, r6, r6, ror #4
     5e8:	023c0101 	eorseq	r0, ip, #1073741824	; 0x40000000
     5ec:	00030000 	andeq	r0, r3, r0
     5f0:	00000064 	andeq	r0, r0, r4, rrx
     5f4:	0efb0102 	cdpeq	1, 15, cr0, cr11, cr2, {0}
     5f8:	0101000d 	tsteq	r1, sp
     5fc:	00000101 	andeq	r0, r0, r1, lsl #2
     600:	00000100 	andeq	r0, r0, r0, lsl #2
     604:	73552f01 	cmpvc	r5, #1, 30
     608:	2f737265 	svccs	0x00737265
     60c:	656c696d 	strbvs	r6, [ip, #-2413]!	; 0xfffff693
     610:	6f532f73 	svcvs	0x00532f73
     614:	65637275 	strbvs	r7, [r3, #-629]!	; 0xfffffd8b
     618:	3273632f 	rsbscc	r6, r3, #-1140850688	; 0xbc000000
     61c:	786c3034 	stmdavc	ip!, {r2, r4, r5, ip, sp}^
     620:	62696c2f 	rsbvs	r6, r9, #12032	; 0x2f00
     624:	692f6970 	stmdbvs	pc!, {r4, r5, r6, r8, fp, sp, lr}	; <UNPREDICTABLE>
     628:	756c636e 	strbvc	r6, [ip, #-878]!	; 0xfffffc92
     62c:	00006564 	andeq	r6, r0, r4, ror #10
     630:	6d2d726b 	sfmvs	f7, 4, [sp, #-428]!	; 0xfffffe54
     634:	6f6c6c61 	svcvs	0x006c6c61
     638:	00632e63 	rsbeq	r2, r3, r3, ror #28
     63c:	72000000 	andvc	r0, r0, #0, 0
     640:	682e6970 	stmdavs	lr!, {r4, r5, r6, r8, fp, sp, lr}
     644:	00000100 	andeq	r0, r0, r0, lsl #2
     648:	6d2d726b 	sfmvs	f7, 4, [sp, #-428]!	; 0xfffffe54
     64c:	6f6c6c61 	svcvs	0x006c6c61
     650:	00682e63 	rsbeq	r2, r8, r3, ror #28
     654:	00000000 	andeq	r0, r0, r0
     658:	05000105 	streq	r0, [r0, #-261]	; 0xfffffefb
     65c:	00854402 	addeq	r4, r5, r2, lsl #8
     660:	00d30300 	sbcseq	r0, r3, r0, lsl #6
     664:	13020501 	movwne	r0, #9473	; 0x2501
     668:	06010513 			; <UNDEFINED> instruction: 0x06010513
     66c:	31090510 	tstcc	r9, r0, lsl r5
     670:	052d0505 	streq	r0, [sp, #-1285]!	; 0xfffffafb
     674:	052f0602 	streq	r0, [pc, #-1538]!	; 7a <__code_start__-0x7f86>
     678:	05010609 	streq	r0, [r1, #-1545]	; 0xfffff9f7
     67c:	12052e02 	andne	r2, r5, #2, 28
     680:	03040200 	movweq	r0, #16896	; 0x4200
     684:	4b06052e 	blmi	181b44 <__bss_end__+0x176be4>
     688:	02000105 	andeq	r0, r0, #1073741825	; 0x40000001
     68c:	05460104 	strbeq	r0, [r6, #-260]	; 0xfffffefc
     690:	04020012 	streq	r0, [r2], #-18	; 0xffffffee
     694:	05310601 	ldreq	r0, [r1, #-1537]!	; 0xfffff9ff
     698:	04020003 	streq	r0, [r2], #-3
     69c:	02001301 	andeq	r1, r0, #67108864	; 0x4000000
     6a0:	05010104 	streq	r0, [r1, #-260]	; 0xfffffefc
     6a4:	04020002 	streq	r0, [r2], #-2
     6a8:	05110601 	ldreq	r0, [r1, #-1537]	; 0xfffff9ff
     6ac:	04020010 	streq	r0, [r2], #-16
     6b0:	02052f01 	andeq	r2, r5, #1, 30
     6b4:	01040200 	mrseq	r0, R12_usr
     6b8:	2f06052d 	svccs	0x0006052d
     6bc:	02002005 	andeq	r2, r0, #5, 0
     6c0:	054a0204 	strbeq	r0, [sl, #-516]	; 0xfffffdfc
     6c4:	054c0602 	strbeq	r0, [ip, #-1538]	; 0xfffff9fe
     6c8:	05010610 	streq	r0, [r1, #-1552]	; 0xfffff9f0
     6cc:	2e0e0308 	cdpcs	3, 0, cr0, cr14, cr8, {0}
     6d0:	72030905 	andvc	r0, r3, #81920	; 0x14000
     6d4:	2e05052e 	cfsh32cs	mvfx0, mvfx5, #30
     6d8:	30060305 	andcc	r0, r6, r5, lsl #6
     6dc:	13061a05 	movwne	r1, #27141	; 0x6a05
     6e0:	052d0e05 	streq	r0, [sp, #-3589]!	; 0xfffff1fb
     6e4:	054b0603 	strbeq	r0, [fp, #-1539]	; 0xfffff9fd
     6e8:	0516060e 	ldreq	r0, [r6, #-1550]	; 0xfffff9f2
     6ec:	054a0602 	strbeq	r0, [sl, #-1538]	; 0xfffff9fe
     6f0:	05010608 	streq	r0, [r1, #-1544]	; 0xfffff9f8
     6f4:	03052e05 	movweq	r2, #24069	; 0x5e05
     6f8:	0c053006 	stceq	0, cr3, [r5], {6}
     6fc:	0d051306 	stceq	3, cr1, [r5, #-24]	; 0xffffffe8
     700:	0603052d 	streq	r0, [r3], -sp, lsr #10
     704:	3202054b 	andcc	r0, r2, #314572800	; 0x12c00000
     708:	13060105 	movwne	r0, #24837	; 0x6105
     70c:	4a430306 	bmi	10c132c <__bss_end__+0x10b63cc>
     710:	13130205 	tstne	r3, #1342177280	; 0x50000000
     714:	06010514 			; <UNDEFINED> instruction: 0x06010514
     718:	330d050e 	movwcc	r0, #54542	; 0xd50e
     71c:	052d2405 	streq	r2, [sp, #-1029]!	; 0xfffffbfb
     720:	29052f0d 	stmdbcs	r5, {r0, r2, r3, r8, r9, sl, fp, sp}
     724:	2f05052d 	svccs	0x0005052d
     728:	052d0905 	streq	r0, [sp, #-2309]!	; 0xfffff6fb
     72c:	052f0602 	streq	r0, [pc, #-1538]!	; 132 <__code_start__-0x7ece>
     730:	05010605 	streq	r0, [r1, #-1541]	; 0xfffff9fb
     734:	05340602 	ldreq	r0, [r4, #-1538]!	; 0xfffff9fe
     738:	05010609 	streq	r0, [r1, #-1545]	; 0xfffff9f7
     73c:	05300603 	ldreq	r0, [r0, #-1539]!	; 0xfffff9fd
     740:	0501060b 	streq	r0, [r1, #-1547]	; 0xfffff9f5
     744:	02052e06 	andeq	r2, r5, #96	; 0x60
     748:	664a6703 	strbvs	r6, [sl], -r3, lsl #14
     74c:	03061a05 	movweq	r1, #27141	; 0x6a05
     750:	27050117 	smladcs	r5, r7, r1, r0
     754:	18050106 	stmdane	r5, {r1, r2, r8}
     758:	03052e06 	movweq	r2, #24070	; 0x5e06
     75c:	060b0514 			; <UNDEFINED> instruction: 0x060b0514
     760:	2e060501 	cfsh32cs	mvfx0, mvfx6, #1
     764:	03060305 	movweq	r0, #25349	; 0x6305
     768:	06054a0f 	streq	r4, [r5], -pc, lsl #20
     76c:	04050106 	streq	r0, [r5], #-262	; 0xfffffefa
     770:	10056806 	andne	r6, r5, r6, lsl #16
     774:	05015203 	streq	r5, [r1, #-515]	; 0xfffffdfd
     778:	67141402 	ldrvs	r1, [r4, -r2, lsl #8]
     77c:	01060d05 	tsteq	r6, r5, lsl #26
     780:	4d060205 	sfmmi	f0, 4, [r6, #-20]	; 0xffffffec
     784:	0f060d05 	svceq	0x00060d05
     788:	2f060205 	svccs	0x00060205
     78c:	06050515 			; <UNDEFINED> instruction: 0x06050515
     790:	3202050f 	andcc	r0, r2, #62914560	; 0x3c00000
     794:	052a0505 	streq	r0, [sl, #-1285]!	; 0xfffffafb
     798:	0205310d 	andeq	r3, r5, #1073741827	; 0x40000003
     79c:	052f2f06 	streq	r2, [pc, #-3846]!	; fffff89e <__bss_end__+0xffff493e>
     7a0:	2e010609 	cfmadd32cs	mvax0, mvfx0, mvfx1, mvfx9
     7a4:	23030705 	movwcs	r0, #14085	; 0x3705
     7a8:	03270501 			; <UNDEFINED> instruction: 0x03270501
     7ac:	1a054a6d 	bne	153168 <__bss_end__+0x148208>
     7b0:	18054a06 	stmdane	r5, {r1, r2, r9, fp, lr}
     7b4:	14030501 	strne	r0, [r3], #-1281	; 0xfffffaff
     7b8:	01060b05 	tsteq	r6, r5, lsl #22
     7bc:	052e0605 	streq	r0, [lr, #-1541]!	; 0xfffff9fb
     7c0:	054c0604 	strbeq	r0, [ip, #-1540]	; 0xfffff9fc
     7c4:	05010607 	streq	r0, [r1, #-1543]	; 0xfffff9f9
     7c8:	16300605 	ldrtne	r0, [r0], -r5, lsl #12
     7cc:	0e061805 	cdpeq	8, 0, cr1, cr6, cr5, {0}
     7d0:	05320f05 	ldreq	r0, [r2, #-3845]!	; 0xfffff0fb
     7d4:	054b0605 	strbeq	r0, [fp, #-1541]	; 0xfffff9fb
     7d8:	05010607 	streq	r0, [r1, #-1543]	; 0xfffff9f9
     7dc:	052f0605 	streq	r0, [pc, #-1541]!	; 1df <__code_start__-0x7e21>
     7e0:	0501060f 	streq	r0, [r1, #-1551]	; 0xfffff9f1
     7e4:	05300604 	ldreq	r0, [r0, #-1540]!	; 0xfffff9fc
     7e8:	78030612 	stmdavc	r3, {r1, r4, r9, sl}
     7ec:	360a0501 	strcc	r0, [sl], -r1, lsl #10
     7f0:	2f060405 	svccs	0x00060405
     7f4:	01060b05 	tsteq	r6, r5, lsl #22
     7f8:	05500c05 	ldrbeq	r0, [r0, #-3077]	; 0xfffff3fb
     7fc:	03053201 	movweq	r3, #20993	; 0x5201
     800:	2e630306 	cdpcs	3, 6, cr0, cr3, cr6, {0}
     804:	01061605 	tsteq	r6, r5, lsl #12
     808:	052f0f05 	streq	r0, [pc, #-3845]!	; fffff90b <__bss_end__+0xffff49ab>
     80c:	0f053109 	svceq	0x00053109
     810:	2d16052b 	cfldr32cs	mvfx0, [r6, #-172]	; 0xffffff54
     814:	052e0e05 	streq	r0, [lr, #-3589]!	; 0xfffff1fb
     818:	052f0603 	streq	r0, [pc, #-1539]!	; 21d <__code_start__-0x7de3>
     81c:	03051502 	movweq	r1, #21762	; 0x5502
     820:	06060514 			; <UNDEFINED> instruction: 0x06060514
     824:	0008022e 	andeq	r0, r8, lr, lsr #4
     828:	059c0101 	ldreq	r0, [ip, #257]	; 0x101
     82c:	00030000 	andeq	r0, r3, r0
     830:	000000d4 	ldrdeq	r0, [r0], -r4
     834:	0efb0102 	cdpeq	1, 15, cr0, cr11, cr2, {0}
     838:	0101000d 	tsteq	r1, sp
     83c:	00000101 	andeq	r0, r0, r1, lsl #2
     840:	00000100 	andeq	r0, r0, r0, lsl #2
     844:	706f2f01 	rsbvc	r2, pc, r1, lsl #30
     848:	6f682f74 	svcvs	0x00682f74
     84c:	7262656d 	rsbvc	r6, r2, #457179136	; 0x1b400000
     850:	432f7765 			; <UNDEFINED> instruction: 0x432f7765
     854:	616c6c65 	cmnvs	ip, r5, ror #24
     858:	72612f72 	rsbvc	r2, r1, #456	; 0x1c8
     85c:	6f6e2d6d 	svcvs	0x006e2d6d
     860:	652d656e 	strvs	r6, [sp, #-1390]!	; 0xfffffa92
     864:	2d696261 	sfmcs	f6, 2, [r9, #-388]!	; 0xfffffe7c
     868:	2d392f39 	ldccs	15, cr2, [r9, #-228]!	; 0xffffff1c
     86c:	39313032 	ldmdbcc	r1!, {r1, r4, r5, ip, sp}
     870:	632d3471 			; <UNDEFINED> instruction: 0x632d3471
     874:	37303173 			; <UNDEFINED> instruction: 0x37303173
     878:	696c2f65 	stmdbvs	ip!, {r0, r2, r5, r6, r8, r9, sl, fp, sp}^
     87c:	63672f62 	cmnvs	r7, #392	; 0x188
     880:	72612f63 	rsbvc	r2, r1, #396	; 0x18c
     884:	6f6e2d6d 	svcvs	0x006e2d6d
     888:	652d656e 	strvs	r6, [sp, #-1390]!	; 0xfffffa92
     88c:	2f696261 	svccs	0x00696261
     890:	2e322e39 	mrccs	14, 1, r2, cr2, cr9, {1}
     894:	6e692f31 	mcrvs	15, 3, r2, cr9, cr1, {1}
     898:	64756c63 	ldrbtvs	r6, [r5], #-3171	; 0xfffff39d
     89c:	552f0065 	strpl	r0, [pc, #-101]!	; 83f <__code_start__-0x77c1>
     8a0:	73726573 	cmnvc	r2, #482344960	; 0x1cc00000
     8a4:	6c696d2f 	stclvs	13, cr6, [r9], #-188	; 0xffffff44
     8a8:	532f7365 			; <UNDEFINED> instruction: 0x532f7365
     8ac:	6372756f 	cmnvs	r2, #465567744	; 0x1bc00000
     8b0:	73632f65 	cmnvc	r3, #404	; 0x194
     8b4:	6c303432 	cfldrsvs	mvf3, [r0], #-200	; 0xffffff38
     8b8:	696c2f78 	stmdbvs	ip!, {r3, r4, r5, r6, r8, r9, sl, fp, sp}^
     8bc:	2f697062 	svccs	0x00697062
     8c0:	6c636e69 	stclvs	14, cr6, [r3], #-420	; 0xfffffe5c
     8c4:	00656475 	rsbeq	r6, r5, r5, ror r4
     8c8:	2d6b6300 	stclcs	3, cr6, [fp, #-0]
     8cc:	632e6367 			; <UNDEFINED> instruction: 0x632e6367
     8d0:	00000000 	andeq	r0, r0, r0
     8d4:	2d637273 	sfmcs	f7, 2, [r3, #-460]!	; 0xfffffe34
     8d8:	2e636f6c 	cdpcs	15, 6, cr6, cr3, cr12, {3}
     8dc:	00000068 	andeq	r0, r0, r8, rrx
     8e0:	64747300 	ldrbtvs	r7, [r4], #-768	; 0xfffffd00
     8e4:	2d746e69 	ldclcs	14, cr6, [r4, #-420]!	; 0xfffffe5c
     8e8:	2e636367 	cdpcs	3, 6, cr6, cr3, cr7, {3}
     8ec:	00010068 	andeq	r0, r1, r8, rrx
     8f0:	69707200 	ldmdbvs	r0!, {r9, ip, sp, lr}^
     8f4:	0200682e 	andeq	r6, r0, #3014656	; 0x2e0000
     8f8:	6b630000 	blvs	18c0900 <__bss_end__+0x18b59a0>
     8fc:	6f6c6c61 	svcvs	0x006c6c61
     900:	00682e63 	rsbeq	r2, r8, r3, ror #28
     904:	00000000 	andeq	r0, r0, r0
     908:	05000105 	streq	r0, [r0, #-261]	; 0xfffffefb
     90c:	0086cc02 	addeq	ip, r6, r2, lsl #24
     910:	00d00300 	sbcseq	r0, r0, r0, lsl #6
     914:	13050501 	movwne	r0, #21761	; 0x5501
     918:	06010501 	streq	r0, [r1], -r1, lsl #10
     91c:	2f050511 	svccs	0x00050511
     920:	05650105 	strbeq	r0, [r5, #-261]!	; 0xfffffefb
     924:	02002f05 	andeq	r2, r0, #5, 30
     928:	2e060204 	cdpcs	2, 0, cr0, cr6, cr4, {0}
     92c:	02040200 	andeq	r0, r4, #0, 4
     930:	04020001 	streq	r0, [r2], #-1
     934:	02001502 	andeq	r1, r0, #8388608	; 0x800000
     938:	00010204 	andeq	r0, r1, r4, lsl #4
     93c:	66020402 	strvs	r0, [r2], -r2, lsl #8
     940:	02040200 	andeq	r0, r4, #0, 4
     944:	04020001 	streq	r0, [r2], #-1
     948:	02001302 	andeq	r1, r0, #134217728	; 0x8000000
     94c:	00010204 	andeq	r0, r1, r4, lsl #4
     950:	06020402 	streq	r0, [r2], -r2, lsl #8
     954:	030d059e 	movweq	r0, #54686	; 0xd59e
     958:	054a6609 	strbeq	r6, [sl, #-1545]	; 0xfffff9f7
     95c:	015f030b 	cmpeq	pc, fp, lsl #6
     960:	70030805 	andvc	r0, r3, r5, lsl #16
     964:	09054a2e 	stmdbeq	r5, {r1, r2, r3, r5, r9, fp, lr}
     968:	012c0306 			; <UNDEFINED> instruction: 0x012c0306
     96c:	03060805 	movweq	r0, #26629	; 0x6805
     970:	054a0154 	strbeq	r0, [sl, #-340]	; 0xfffffeac
     974:	0e03060f 	cfmadd32eq	mvax0, mvfx0, mvfx3, mvfx15
     978:	14050501 	strne	r0, [r5], #-1281	; 0xfffffaff
     97c:	030c0514 	movweq	r0, #50452	; 0xc514
     980:	0505016b 	streq	r0, [r5, #-363]	; 0xfffffe95
     984:	06080515 			; <UNDEFINED> instruction: 0x06080515
     988:	2e180501 	cfmul32cs	mvfx0, mvfx8, mvfx1
     98c:	06050566 	streq	r0, [r5], -r6, ror #10
     990:	05011403 	streq	r1, [r1, #-1027]	; 0xfffffbfd
     994:	2e01060c 	cfmadd32cs	mvax0, mvfx0, mvfx1, mvfx12
     998:	03060905 	movweq	r0, #26885	; 0x6905
     99c:	0c050119 	stfeqs	f0, [r5], {25}
     9a0:	0d050106 	stfeqs	f0, [r5, #-24]	; 0xffffffe8
     9a4:	16054c06 	strne	r4, [r5], -r6, lsl #24
     9a8:	0d051306 	stceq	3, cr1, [r5, #-24]	; 0xffffffe8
     9ac:	2c29052f 	cfstr32cs	mvfx0, [r9], #-188	; 0xffffff44
     9b0:	2f060d05 	svccs	0x00060d05
     9b4:	1005bb13 	andne	fp, r5, r3, lsl fp
     9b8:	11050106 	tstne	r5, r6, lsl #2
     9bc:	19054c06 	stmdbne	r5, {r1, r2, sl, fp, lr}
     9c0:	11050106 	tstne	r5, r6, lsl #2
     9c4:	2d19052f 	cfldr32cs	mvfx0, [r9, #-188]	; 0xffffff44
     9c8:	06671105 	strbteq	r1, [r7], -r5, lsl #2
     9cc:	06140569 	ldreq	r0, [r4], -r9, ror #10
     9d0:	23054a01 	movwcs	r4, #23041	; 0x5a01
     9d4:	01720306 	cmneq	r2, r6, lsl #6
     9d8:	05011b05 	streq	r1, [r1, #-2821]	; 0xfffff4fb
     9dc:	4a010605 	bmi	421f8 <__bss_end__+0x37298>
     9e0:	19030105 	stmdbne	r3, {r0, r2, r8}
     9e4:	06110501 	ldreq	r0, [r1], -r1, lsl #10
     9e8:	054a0646 	strbeq	r0, [sl, #-1606]	; 0xfffff9ba
     9ec:	6b030623 	blvs	c2280 <__bss_end__+0xb7320>
     9f0:	011b0501 	tsteq	fp, r1, lsl #10
     9f4:	01060505 	tsteq	r6, r5, lsl #10
     9f8:	03061505 	movweq	r1, #25861	; 0x6505
     9fc:	9e066610 	mcrls	6, 0, r6, cr6, cr0, {0}
     a00:	03062305 	movweq	r2, #25349	; 0x6305
     a04:	1b050170 	blne	140fcc <__bss_end__+0x13606c>
     a08:	06050501 	streq	r0, [r5], -r1, lsl #10
     a0c:	02006601 	andeq	r6, r0, #1048576	; 0x100000
     a10:	0f060104 	svceq	0x00060104
     a14:	01040200 	mrseq	r0, R12_usr
     a18:	04020001 	streq	r0, [r2], #-1
     a1c:	004a0601 	subeq	r0, sl, r1, lsl #12
     a20:	2e010402 	cdpcs	4, 0, cr0, cr1, cr2, {0}
     a24:	01040200 	mrseq	r0, R12_usr
     a28:	0402004a 	streq	r0, [r2], #-74	; 0xffffffb6
     a2c:	054a0601 	strbeq	r0, [sl, #-1537]	; 0xfffff9ff
     a30:	08250301 	stmdaeq	r5!, {r0, r8, r9}
     a34:	16050558 			; <UNDEFINED> instruction: 0x16050558
     a38:	05010a05 	streq	r0, [r1, #-2565]	; 0xfffff5fb
     a3c:	050e0601 	streq	r0, [lr, #-1537]	; 0xfffff9ff
     a40:	25054e15 	strcs	r4, [r5, #-3605]	; 0xfffff1eb
     a44:	05052e06 	streq	r2, [r5, #-3590]	; 0xfffff1fa
     a48:	052e0106 	streq	r0, [lr, #-262]!	; 0xfffffefa
     a4c:	09053032 	stmdbeq	r5, {r1, r4, r5, ip, sp}
     a50:	03040200 	movweq	r0, #16896	; 0x4200
     a54:	32052e06 	andcc	r2, r5, #96	; 0x60
     a58:	03040200 	movweq	r0, #16896	; 0x4200
     a5c:	21050106 	tstcs	r5, r6, lsl #2
     a60:	03040200 	movweq	r0, #16896	; 0x4200
     a64:	0011052e 	andseq	r0, r1, lr, lsr #10
     a68:	2e030402 	cdpcs	4, 0, cr0, cr3, cr2, {0}
     a6c:	02002805 	andeq	r2, r0, #327680	; 0x50000
     a70:	2c060304 	stccs	3, cr0, [r6], {4}
     a74:	02002c05 	andeq	r2, r0, #1280	; 0x500
     a78:	01060304 	tsteq	r6, r4, lsl #6
     a7c:	02002505 	andeq	r2, r0, #20971520	; 0x1400000
     a80:	2e060304 	cdpcs	3, 0, cr0, cr6, cr4, {0}
     a84:	02000505 	andeq	r0, r0, #20971520	; 0x1400000
     a88:	01060304 	tsteq	r6, r4, lsl #6
     a8c:	03040200 	movweq	r0, #16896	; 0x4200
     a90:	0402002e 	streq	r0, [r2], #-46	; 0xffffffd2
     a94:	19062e03 	stmdbne	r6, {r0, r1, r9, sl, fp, sp}
     a98:	062e0613 			; <UNDEFINED> instruction: 0x062e0613
     a9c:	13131330 	tstne	r3, #48, 6	; 0xc0000000
     aa0:	0f060d05 	svceq	0x00060d05
     aa4:	0a030505 	beq	c1ec0 <__bss_end__+0xb6f60>
     aa8:	030d054a 	movweq	r0, #54602	; 0xd54a
     aac:	05054a76 	streq	r4, [r5, #-2678]	; 0xfffff58a
     ab0:	4a0a0306 	bmi	2816d0 <__bss_end__+0x276770>
     ab4:	69831332 	stmibvs	r3, {r1, r4, r5, r8, r9, ip}
     ab8:	05136813 	ldreq	r6, [r3, #-2067]	; 0xfffff7ed
     abc:	06670601 	strbteq	r0, [r7], -r1, lsl #12
     ac0:	130505dc 	movwne	r0, #21980	; 0x55dc
     ac4:	06010513 			; <UNDEFINED> instruction: 0x06010513
     ac8:	05052e10 	streq	r2, [r5, #-3600]	; 0xfffff1f0
     acc:	2f062e30 	svccs	0x00062e30
     ad0:	0a052f4c 	beq	14c808 <__bss_end__+0x1418a8>
     ad4:	06150501 	ldreq	r0, [r5], -r1, lsl #10
     ad8:	06250501 	strteq	r0, [r5], -r1, lsl #10
     adc:	0605052e 	streq	r0, [r5], -lr, lsr #10
     ae0:	45270501 	strmi	r0, [r7, #-1281]!	; 0xfffffaff
     ae4:	10030d05 	andne	r0, r3, r5, lsl #26
     ae8:	031b052e 	tsteq	fp, #192937984	; 0xb800000
     aec:	0e052e70 	mcreq	14, 0, r2, cr5, cr0, {3}
     af0:	030d052e 	movweq	r0, #54574	; 0xd52e
     af4:	11052e0b 	tstne	r5, fp, lsl #28
     af8:	0028054c 	eoreq	r0, r8, ip, asr #10
     afc:	06020402 	streq	r0, [r2], -r2, lsl #8
     b00:	054a7803 	strbeq	r7, [sl, #-2051]	; 0xfffff7fd
     b04:	0402002c 	streq	r0, [r2], #-44	; 0xffffffd4
     b08:	05010602 	streq	r0, [r1, #-1538]	; 0xfffff9fe
     b0c:	04020025 	streq	r0, [r2], #-37	; 0xffffffdb
     b10:	054a0602 	strbeq	r0, [sl, #-1538]	; 0xfffff9fe
     b14:	04020005 	streq	r0, [r2], #-5
     b18:	05010602 	streq	r0, [r1, #-1538]	; 0xfffff9fe
     b1c:	054c0609 	strbeq	r0, [ip, #-1545]	; 0xfffff9f7
     b20:	0d06180e 	stceq	8, cr1, [r6, #-56]	; 0xffffffc8
     b24:	052d1005 	streq	r1, [sp, #-5]!
     b28:	052f0609 	streq	r0, [pc, #-1545]!	; 527 <__code_start__-0x7ad9>
     b2c:	0501060c 	streq	r0, [r1, #-1548]	; 0xfffff9f4
     b30:	064c060d 	strbeq	r0, [ip], -sp, lsl #12
     b34:	2c056613 	stccs	6, cr6, [r5], {19}
     b38:	052e7a03 	streq	r7, [lr, #-2563]!	; 0xfffff5fd
     b3c:	13054a05 	movwne	r4, #23045	; 0x5a05
     b40:	060d0533 			; <UNDEFINED> instruction: 0x060d0533
     b44:	0328052f 			; <UNDEFINED> instruction: 0x0328052f
     b48:	2505017a 	strcs	r0, [r5, #-378]	; 0xfffffe86
     b4c:	06050501 	streq	r0, [r5], -r1, lsl #10
     b50:	03062e01 	movweq	r2, #28161	; 0x6e01
     b54:	0601010f 	streq	r0, [r1], -pc, lsl #2
     b58:	132e064a 			; <UNDEFINED> instruction: 0x132e064a
     b5c:	01060805 	tsteq	r6, r5, lsl #16
     b60:	4d060905 	vstrmi.16	s0, [r6, #-10]	; <UNPREDICTABLE>
     b64:	04020001 	streq	r0, [r2], #-1
     b68:	05058201 	streq	r8, [r5, #-513]	; 0xfffffdff
     b6c:	01040200 	mrseq	r0, R12_usr
     b70:	04020014 	streq	r0, [r2], #-20	; 0xffffffec
     b74:	08054b01 	stmdaeq	r5, {r0, r8, r9, fp, lr}
     b78:	01040200 	mrseq	r0, R12_usr
     b7c:	17050106 	strne	r0, [r5, -r6, lsl #2]
     b80:	01040200 	mrseq	r0, R12_usr
     b84:	00010530 	andeq	r0, r1, r0, lsr r5
     b88:	34010402 	strcc	r0, [r1], #-1026	; 0xfffffbfe
     b8c:	03060d05 	movweq	r0, #27909	; 0x6d05
     b90:	13064a6c 	movwne	r4, #27244	; 0x6a6c
     b94:	05651905 	strbeq	r1, [r5, #-2309]!	; 0xfffff6fb
     b98:	062f060d 	strteq	r0, [pc], -sp, lsl #12
     b9c:	0605054a 	streq	r0, [r5], -sl, asr #10
     ba0:	4a060116 	bmi	181000 <__bss_end__+0x1760a0>
     ba4:	05132e06 	ldreq	r2, [r3, #-3590]	; 0xfffff1fa
     ba8:	82011309 	andhi	r1, r1, #603979776	; 0x24000000
     bac:	d7030105 	strle	r0, [r3, -r5, lsl #2]
     bb0:	0520087e 	streq	r0, [r0, #-2174]!	; 0xfffff782
     bb4:	01141305 	tsteq	r4, r5, lsl #6
     bb8:	0f060105 	svceq	0x00060105
     bbc:	05310505 	ldreq	r0, [r1, #-1285]!	; 0xfffffafb
     bc0:	05052b01 	streq	r2, [r5, #-2817]	; 0xfffff4ff
     bc4:	04020031 	streq	r0, [r2], #-49	; 0xffffffcf
     bc8:	002e0602 	eoreq	r0, lr, r2, lsl #12
     bcc:	01020402 	tsteq	r2, r2, lsl #8
     bd0:	02040200 	andeq	r0, r4, #0, 4
     bd4:	00090513 	andeq	r0, r9, r3, lsl r5
     bd8:	06020402 	streq	r0, [r2], -r2, lsl #8
     bdc:	00080501 	andeq	r0, r8, r1, lsl #10
     be0:	2e020402 	cdpcs	4, 0, cr0, cr2, cr2, {0}
     be4:	67060905 	strvs	r0, [r6, -r5, lsl #18]
     be8:	14051315 	strne	r1, [r5], #-789	; 0xfffffceb
     bec:	12050106 	andne	r0, r5, #-2147483647	; 0x80000001
     bf0:	2f09052f 	svccs	0x0009052f
     bf4:	052d1205 	streq	r1, [sp, #-517]!	; 0xfffffdfb
     bf8:	2f2f0609 	svccs	0x002f0609
     bfc:	01061005 	tsteq	r6, r5
     c00:	05300c05 	ldreq	r0, [r0, #-3077]!	; 0xfffff3fb
     c04:	05052c10 	streq	r2, [r5, #-3088]	; 0xfffff3f0
     c08:	01053006 	tsteq	r5, r6
     c0c:	0c051306 	stceq	3, cr1, [r5], {6}
     c10:	00050549 	andeq	r0, r5, r9, asr #10
     c14:	06010402 	streq	r0, [r1], -r2, lsl #8
     c18:	002e7503 	eoreq	r7, lr, r3, lsl #10
     c1c:	01010402 	tsteq	r1, r2, lsl #8
     c20:	01040200 	mrseq	r0, R12_usr
     c24:	02009e06 	andeq	r9, r0, #96	; 0x60
     c28:	4a060104 	bmi	181040 <__bss_end__+0x1760e0>
     c2c:	01300905 	teqeq	r0, r5, lsl #18
     c30:	2e068206 	cdpcs	2, 0, cr8, cr6, cr6, {0}
     c34:	b6030105 	strlt	r0, [r3], -r5, lsl #2
     c38:	0505d601 	streq	sp, [r5, #-1537]	; 0xfffff9ff
     c3c:	060c0514 			; <UNDEFINED> instruction: 0x060c0514
     c40:	01052e01 	tsteq	r5, r1, lsl #28
     c44:	02050006 	andeq	r0, r5, #6, 0
     c48:	00008a8c 	andeq	r8, r0, ip, lsl #21
     c4c:	16050517 			; <UNDEFINED> instruction: 0x16050517
     c50:	0e060105 	adfeqs	f0, f6, f5
     c54:	06320505 	ldrteq	r0, [r2], -r5, lsl #10
     c58:	030a0513 	movweq	r0, #42259	; 0xa513
     c5c:	05050173 	streq	r0, [r5, #-371]	; 0xfffffe8d
     c60:	060c0515 			; <UNDEFINED> instruction: 0x060c0515
     c64:	08054a01 	stmdaeq	r5, {r0, r9, fp, lr}
     c68:	05010a03 	streq	r0, [r1, #-2563]	; 0xfffff5fd
     c6c:	144b0609 	strbne	r0, [fp], #-1545	; 0xfffff9f7
     c70:	05054a01 	streq	r4, [r5, #-2561]	; 0xfffff5ff
     c74:	06010513 			; <UNDEFINED> instruction: 0x06010513
     c78:	06090513 			; <UNDEFINED> instruction: 0x06090513
     c7c:	059e012a 	ldreq	r0, [lr, #298]	; 0x12a
     c80:	0505a601 	streq	sl, [r5, #-1537]	; 0xfffff9ff
     c84:	06010516 			; <UNDEFINED> instruction: 0x06010516
     c88:	3205050e 	andcc	r0, r5, #58720256	; 0x3800000
     c8c:	0a051306 	beq	1458ac <__bss_end__+0x13a94c>
     c90:	05016503 	streq	r6, [r1, #-1283]	; 0xfffffafd
     c94:	0c051505 	cfstr32eq	mvfx1, [r5], {5}
     c98:	054a0106 	strbeq	r0, [sl, #-262]	; 0xfffffefa
     c9c:	19030605 	stmdbne	r3, {r0, r2, r9, sl}
     ca0:	06080501 	streq	r0, [r8], -r1, lsl #10
     ca4:	06090501 	streq	r0, [r9], -r1, lsl #10
     ca8:	0601144b 	streq	r1, [r1], -fp, asr #8
     cac:	052e064a 	streq	r0, [lr, #-1610]!	; 0xfffff9b6
     cb0:	05131305 	ldreq	r1, [r3, #-773]	; 0xfffffcfb
     cb4:	05130601 	ldreq	r0, [r3, #-1537]	; 0xfffff9ff
     cb8:	01450609 	cmpeq	r5, r9, lsl #12
     cbc:	0301059e 	movweq	r0, #5534	; 0x159e
     cc0:	05059e21 	streq	r9, [r5, #-3617]	; 0xfffff1df
     cc4:	06010513 			; <UNDEFINED> instruction: 0x06010513
     cc8:	4b050511 	blmi	142114 <__bss_end__+0x1371b4>
     ccc:	11052f06 	tstne	r5, r6, lsl #30
     cd0:	05016503 	streq	r6, [r1, #-1283]	; 0xfffffafd
     cd4:	4b131405 	blmi	4c5cf0 <__bss_end__+0x4bad90>
     cd8:	0a052f4c 	beq	14ca10 <__bss_end__+0x141ab0>
     cdc:	06150501 	ldreq	r0, [r5], -r1, lsl #10
     ce0:	06250501 	strteq	r0, [r5], -r1, lsl #10
     ce4:	0605052e 	streq	r0, [r5], -lr, lsr #10
     ce8:	45270501 	strmi	r0, [r7, #-1281]!	; 0xfffffaff
     cec:	052e1b05 	streq	r1, [lr, #-2821]!	; 0xfffff4fb
     cf0:	02042e0e 	andeq	r2, r4, #224	; 0xe0
     cf4:	98030c05 	stmdals	r3, {r0, r2, sl, fp}
     cf8:	01042e7e 	tsteq	r4, lr, ror lr
     cfc:	f5030d05 			; <UNDEFINED> instruction: 0xf5030d05
     d00:	09054a01 	stmdbeq	r5, {r0, r9, fp, lr}
     d04:	2e7a0306 	cdpcs	3, 7, cr0, cr10, cr6, {0}
     d08:	05102805 	ldreq	r2, [r0, #-2053]	; 0xfffff7fb
     d0c:	0515060c 	ldreq	r0, [r5, #-1548]	; 0xfffff9f4
     d10:	09052d10 	stmdbeq	r5, {r4, r8, sl, fp, sp}
     d14:	0c052f06 	stceq	15, cr2, [r5], {6}
     d18:	2c050106 	stfcss	f0, [r5], {6}
     d1c:	06250547 	strteq	r0, [r5], -r7, asr #10
     d20:	0605054a 	streq	r0, [r5], -sl, asr #10
     d24:	03064a01 	movweq	r4, #27137	; 0x6a01
     d28:	9e01010c 	adflss	f0, f1, #4.0
     d2c:	06010614 			; <UNDEFINED> instruction: 0x06010614
     d30:	05010a03 	streq	r0, [r1, #-2563]	; 0xfffff5fd
     d34:	05130601 	ldreq	r0, [r3, #-1537]	; 0xfffff9ff
     d38:	6c03060d 	stcvs	6, cr0, [r3], {13}
     d3c:	05020466 	streq	r0, [r2, #-1126]	; 0xfffffb9a
     d40:	8e03060c 	cfmadd32hi	mvax0, mvfx0, mvfx3, mvfx12
     d44:	0104017e 	tsteq	r4, lr, ror r1
     d48:	f3031a05 	vpmax.u8	d1, d3, d5
     d4c:	02042e01 	andeq	r2, r4, #1, 28
     d50:	8d030c05 	stchi	12, cr0, [r3, #-20]	; 0xffffffec
     d54:	01042e7e 	tsteq	r4, lr, ror lr
     d58:	f4030d05 			; <UNDEFINED> instruction: 0xf4030d05
     d5c:	02042e01 	andeq	r2, r4, #1, 28
     d60:	8c030c05 	stchi	12, cr0, [r3], {5}
     d64:	01042e7e 	tsteq	r4, lr, ror lr
     d68:	f4030d05 			; <UNDEFINED> instruction: 0xf4030d05
     d6c:	1a054a01 	bne	153578 <__bss_end__+0x148618>
     d70:	2f0d0565 	svccs	0x000d0565
     d74:	032c052f 			; <UNDEFINED> instruction: 0x032c052f
     d78:	05056678 	streq	r6, [r5, #-1656]	; 0xfffff988
     d7c:	3313054a 	tstcc	r3, #310378496	; 0x12800000
     d80:	2f060d05 	svccs	0x00060d05
     d84:	05020413 	streq	r0, [r2, #-1043]	; 0xfffffbed
     d88:	7e8b030b 	cdpvc	3, 8, cr0, cr11, cr11, {0}
     d8c:	13050501 	movwne	r0, #21761	; 0x5501
     d90:	01040106 	tsteq	r4, r6, lsl #2
     d94:	03060d05 	movweq	r0, #27909	; 0x6d05
     d98:	050101f5 	streq	r0, [r1, #-501]	; 0xfffffe0b
     d9c:	01780328 	cmneq	r8, r8, lsr #6
     da0:	05012505 	streq	r2, [r1, #-1285]	; 0xfffffafb
     da4:	4a010605 	bmi	425c0 <__bss_end__+0x37660>
     da8:	050d2705 	streq	r2, [sp, #-1797]	; 0xfffff8fb
     dac:	0e052e1b 	mcreq	14, 0, r2, cr5, cr11, {0}
     db0:	0601052e 	streq	r0, [r1], -lr, lsr #10
     db4:	20082103 	andcs	r2, r8, r3, lsl #2
     db8:	01130505 	tsteq	r3, r5, lsl #10
     dbc:	11060105 	tstne	r6, r5, lsl #2
     dc0:	062f0505 	strteq	r0, [pc], -r5, lsl #10
     dc4:	000a029e 	muleq	sl, lr, r2
     dc8:	01210101 			; <UNDEFINED> instruction: 0x01210101
     dcc:	00030000 	andeq	r0, r3, r0
     dd0:	000000be 	strheq	r0, [r0], -lr
     dd4:	0efb0102 	cdpeq	1, 15, cr0, cr11, cr2, {0}
     dd8:	0101000d 	tsteq	r1, sp
     ddc:	00000101 	andeq	r0, r0, r1, lsl #2
     de0:	00000100 	andeq	r0, r0, r0, lsl #2
     de4:	6c2f2e01 	stcvs	14, cr2, [pc], #-4	; de8 <__code_start__-0x7218>
     de8:	00636269 	rsbeq	r6, r3, r9, ror #4
     dec:	6573552f 	ldrbvs	r5, [r3, #-1327]!	; 0xfffffad1
     df0:	6d2f7372 	stcvs	3, cr7, [pc, #-456]!	; c30 <__code_start__-0x73d0>
     df4:	73656c69 	cmnvc	r5, #26880	; 0x6900
     df8:	756f532f 	strbvc	r5, [pc, #-815]!	; ad1 <__code_start__-0x752f>
     dfc:	2f656372 	svccs	0x00656372
     e00:	34327363 	ldrtcc	r7, [r2], #-867	; 0xfffffc9d
     e04:	2f786c30 	svccs	0x00786c30
     e08:	7062696c 	rsbvc	r6, r2, ip, ror #18
     e0c:	6e692f69 	cdpvs	15, 6, cr2, cr9, cr9, {3}
     e10:	64756c63 	ldrbtvs	r6, [r5], #-3171	; 0xfffff39d
     e14:	6f2f0065 	svcvs	0x002f0065
     e18:	682f7470 	stmdavs	pc!, {r4, r5, r6, sl, ip, sp, lr}	; <UNPREDICTABLE>
     e1c:	62656d6f 	rsbvs	r6, r5, #7104	; 0x1bc0
     e20:	2f776572 	svccs	0x00776572
     e24:	6c6c6543 	cfstr64vs	mvdx6, [ip], #-268	; 0xfffffef4
     e28:	612f7261 			; <UNDEFINED> instruction: 0x612f7261
     e2c:	6e2d6d72 	mcrvs	13, 1, r6, cr13, cr2, {3}
     e30:	2d656e6f 	stclcs	14, cr6, [r5, #-444]!	; 0xfffffe44
     e34:	69626165 	stmdbvs	r2!, {r0, r2, r5, r6, r8, sp, lr}^
     e38:	392f392d 	stmdbcc	pc!, {r0, r2, r3, r5, r8, fp, ip, sp}	; <UNPREDICTABLE>
     e3c:	3130322d 	teqcc	r0, sp, lsr #4
     e40:	2d347139 	ldfcss	f7, [r4, #-228]!	; 0xffffff1c
     e44:	30317363 	eorscc	r7, r1, r3, ror #6
     e48:	6c2f6537 	cfstr32vs	mvfx6, [pc], #-220	; d74 <__code_start__-0x728c>
     e4c:	672f6269 	strvs	r6, [pc, -r9, ror #4]!
     e50:	612f6363 			; <UNDEFINED> instruction: 0x612f6363
     e54:	6e2d6d72 	mcrvs	13, 1, r6, cr13, cr2, {3}
     e58:	2d656e6f 	stclcs	14, cr6, [r5, #-444]!	; 0xfffffe44
     e5c:	69626165 	stmdbvs	r2!, {r0, r2, r5, r6, r8, sp, lr}^
     e60:	322e392f 	eorcc	r3, lr, #770048	; 0xbc000
     e64:	692f312e 	stmdbvs	pc!, {r1, r2, r3, r5, r8, ip, sp}	; <UNPREDICTABLE>
     e68:	756c636e 	strbvc	r6, [ip, #-878]!	; 0xfffffc92
     e6c:	00006564 	andeq	r6, r0, r4, ror #10
     e70:	736d656d 	cmnvc	sp, #457179136	; 0x1b400000
     e74:	632e7465 			; <UNDEFINED> instruction: 0x632e7465
     e78:	00000100 	andeq	r0, r0, r0, lsl #2
     e7c:	2e697072 	mcrcs	0, 3, r7, cr9, cr2, {3}
     e80:	00020068 	andeq	r0, r2, r8, rrx
     e84:	64747300 	ldrbtvs	r7, [r4], #-768	; 0xfffffd00
     e88:	2e666564 	cdpcs	5, 6, cr6, cr6, cr4, {3}
     e8c:	00030068 	andeq	r0, r3, r8, rrx
     e90:	29050000 	stmdbcs	r5, {}	; <UNPREDICTABLE>
     e94:	58020500 	stmdapl	r2, {r8, sl}
     e98:	1500008c 	strne	r0, [r0, #-140]	; 0xffffff74
     e9c:	05130505 	ldreq	r0, [r3, #-1285]	; 0xfffffafb
     ea0:	05110629 	ldreq	r0, [r1, #-1577]	; 0xfffff9d7
     ea4:	05052f14 	streq	r2, [r5, #-3860]	; 0xfffff0ec
     ea8:	0a053006 	beq	14cec8 <__bss_end__+0x141f68>
     eac:	059e0601 	ldreq	r0, [lr, #1537]	; 0x601
     eb0:	05d70609 	ldrbeq	r0, [r7, #1545]	; 0x609
     eb4:	0501060e 	streq	r0, [r1, #-1550]	; 0xfffff9f2
     eb8:	052d060a 	streq	r0, [sp, #-1546]!	; 0xfffff9f6
     ebc:	0e05bb09 	vmlaeq.f64	d11, d5, d9
     ec0:	052e0106 	streq	r0, [lr, #-262]!	; 0xfffffefa
     ec4:	052d060a 	streq	r0, [sp, #-1546]!	; 0xfffff9f6
     ec8:	0b054b09 	bleq	153af4 <__bss_end__+0x148b94>
     ecc:	0a050106 	beq	1412ec <__bss_end__+0x13638c>
     ed0:	2f0e052d 	svccs	0x000e052d
     ed4:	2d060a05 	vstrcs	s0, [r6, #-20]	; 0xffffffec
     ed8:	13060e05 	movwne	r0, #28165	; 0x6e05
     edc:	2e060905 	vmlacs.f16	s0, s12, s10	; <UNPREDICTABLE>
     ee0:	05110a05 	ldreq	r0, [r1, #-2565]	; 0xfffff5fb
     ee4:	01051405 	tsteq	r5, r5, lsl #8
     ee8:	02021306 	andeq	r1, r2, #402653184	; 0x18000000
     eec:	20010100 	andcs	r0, r1, r0, lsl #2
     ef0:	03000001 	movweq	r0, #1
     ef4:	0000db00 	andeq	sp, r0, r0, lsl #22
     ef8:	fb010200 	blx	41702 <__bss_end__+0x367a2>
     efc:	01000d0e 	tsteq	r0, lr, lsl #26
     f00:	00010101 	andeq	r0, r1, r1, lsl #2
     f04:	00010000 	andeq	r0, r1, r0
     f08:	2f2e0100 	svccs	0x002e0100
     f0c:	6362696c 	cmnvs	r2, #108, 18	; 0x1b0000
     f10:	706f2f00 	rsbvc	r2, pc, r0, lsl #30
     f14:	6f682f74 	svcvs	0x00682f74
     f18:	7262656d 	rsbvc	r6, r2, #457179136	; 0x1b400000
     f1c:	432f7765 			; <UNDEFINED> instruction: 0x432f7765
     f20:	616c6c65 	cmnvs	ip, r5, ror #24
     f24:	72612f72 	rsbvc	r2, r1, #456	; 0x1c8
     f28:	6f6e2d6d 	svcvs	0x006e2d6d
     f2c:	652d656e 	strvs	r6, [sp, #-1390]!	; 0xfffffa92
     f30:	2d696261 	sfmcs	f6, 2, [r9, #-388]!	; 0xfffffe7c
     f34:	2d392f39 	ldccs	15, cr2, [r9, #-228]!	; 0xffffff1c
     f38:	39313032 	ldmdbcc	r1!, {r1, r4, r5, ip, sp}
     f3c:	632d3471 			; <UNDEFINED> instruction: 0x632d3471
     f40:	37303173 			; <UNDEFINED> instruction: 0x37303173
     f44:	696c2f65 	stmdbvs	ip!, {r0, r2, r5, r6, r8, r9, sl, fp, sp}^
     f48:	63672f62 	cmnvs	r7, #392	; 0x188
     f4c:	72612f63 	rsbvc	r2, r1, #396	; 0x18c
     f50:	6f6e2d6d 	svcvs	0x006e2d6d
     f54:	652d656e 	strvs	r6, [sp, #-1390]!	; 0xfffffa92
     f58:	2f696261 	svccs	0x00696261
     f5c:	2e322e39 	mrccs	14, 1, r2, cr2, cr9, {1}
     f60:	6e692f31 	mcrvs	15, 3, r2, cr9, cr1, {1}
     f64:	64756c63 	ldrbtvs	r6, [r5], #-3171	; 0xfffff39d
     f68:	552f0065 	strpl	r0, [pc, #-101]!	; f0b <__code_start__-0x70f5>
     f6c:	73726573 	cmnvc	r2, #482344960	; 0x1cc00000
     f70:	6c696d2f 	stclvs	13, cr6, [r9], #-188	; 0xffffff44
     f74:	532f7365 			; <UNDEFINED> instruction: 0x532f7365
     f78:	6372756f 	cmnvs	r2, #465567744	; 0x1bc00000
     f7c:	73632f65 	cmnvc	r3, #404	; 0x194
     f80:	6c303432 	cfldrsvs	mvf3, [r0], #-200	; 0xffffff38
     f84:	696c2f78 	stmdbvs	ip!, {r3, r4, r5, r6, r8, r9, sl, fp, sp}^
     f88:	2f697062 	svccs	0x00697062
     f8c:	6c636e69 	stclvs	14, cr6, [r3], #-420	; 0xfffffe5c
     f90:	00656475 	rsbeq	r6, r5, r5, ror r4
     f94:	69727000 	ldmdbvs	r2!, {ip, sp, lr}^
     f98:	2e6b746e 	cdpcs	4, 6, cr7, cr11, cr14, {3}
     f9c:	00010063 	andeq	r0, r1, r3, rrx
     fa0:	64747300 	ldrbtvs	r7, [r4], #-768	; 0xfffffd00
     fa4:	2e677261 	cdpcs	2, 6, cr7, cr7, cr1, {3}
     fa8:	00020068 	andeq	r0, r2, r8, rrx
     fac:	69707200 	ldmdbvs	r0!, {r9, ip, sp, lr}^
     fb0:	0300682e 	movweq	r6, #2094	; 0x82e
     fb4:	623c0000 	eorsvs	r0, ip, #0, 0
     fb8:	746c6975 	strbtvc	r6, [ip], #-2421	; 0xfffff68b
     fbc:	3e6e692d 	vmulcc.f16	s13, s28, s27	; <UNPREDICTABLE>
     fc0:	00000000 	andeq	r0, r0, r0
     fc4:	702d6176 	eorvc	r6, sp, r6, ror r1
     fc8:	746e6972 	strbtvc	r6, [lr], #-2418	; 0xfffff68e
     fcc:	00682e6b 	rsbeq	r2, r8, fp, ror #28
     fd0:	00000001 	andeq	r0, r0, r1
     fd4:	05002205 	streq	r2, [r0, #-517]	; 0xfffffdfb
     fd8:	008cd002 	addeq	sp, ip, r2
     fdc:	05051700 	streq	r1, [r5, #-1792]	; 0xfffff900
     fe0:	05141314 	ldreq	r1, [r4, #-788]	; 0xfffffcec
     fe4:	050d0622 	streq	r0, [sp, #-1570]	; 0xfffff9de
     fe8:	22055012 	andcs	r5, r5, #18, 0
     fec:	052e7a03 	streq	r7, [lr, #-2563]!	; 0xfffff5fd
     ff0:	12053305 	andne	r3, r5, #335544320	; 0x14000000
     ff4:	6505052f 	strvs	r0, [r5, #-1327]	; 0xfffffad1
     ff8:	2f060905 	svccs	0x00060905
     ffc:	01061205 	tsteq	r6, r5, lsl #4
    1000:	4b060505 	blmi	18241c <__bss_end__+0x1774bc>
    1004:	064a0616 			; <UNDEFINED> instruction: 0x064a0616
    1008:	06010550 			; <UNDEFINED> instruction: 0x06010550
    100c:	08026613 	stmdaeq	r2, {r0, r1, r4, r9, sl, sp, lr}
    1010:	a0010100 	andge	r0, r1, r0, lsl #2
    1014:	03000000 	movweq	r0, #0
    1018:	00005700 	andeq	r5, r0, r0, lsl #14
    101c:	fb010200 	blx	41826 <__bss_end__+0x368c6>
    1020:	01000d0e 	tsteq	r0, lr, lsl #26
    1024:	00010101 	andeq	r0, r1, r1, lsl #2
    1028:	00010000 	andeq	r0, r1, r0
    102c:	2f2e0100 	svccs	0x002e0100
    1030:	6362696c 	cmnvs	r2, #108, 18	; 0x1b0000
    1034:	73552f00 	cmpvc	r5, #0, 30
    1038:	2f737265 	svccs	0x00737265
    103c:	656c696d 	strbvs	r6, [ip, #-2413]!	; 0xfffff693
    1040:	6f532f73 	svcvs	0x00532f73
    1044:	65637275 	strbvs	r7, [r3, #-629]!	; 0xfffffd8b
    1048:	3273632f 	rsbscc	r6, r3, #-1140850688	; 0xbc000000
    104c:	786c3034 	stmdavc	ip!, {r2, r4, r5, ip, sp}^
    1050:	62696c2f 	rsbvs	r6, r9, #12032	; 0x2f00
    1054:	692f6970 	stmdbvs	pc!, {r4, r5, r6, r8, fp, sp, lr}	; <UNPREDICTABLE>
    1058:	756c636e 	strbvc	r6, [ip, #-878]!	; 0xfffffc92
    105c:	00006564 	andeq	r6, r0, r4, ror #10
    1060:	6b747570 	blvs	1d1e628 <__bss_end__+0x1d136c8>
    1064:	0100632e 	tsteq	r0, lr, lsr #6
    1068:	70720000 	rsbsvc	r0, r2, r0
    106c:	00682e69 	rsbeq	r2, r8, r9, ror #28
    1070:	00000002 	andeq	r0, r0, r2
    1074:	05002205 	streq	r2, [r0, #-517]	; 0xfffffdfb
    1078:	008d2802 	addeq	r2, sp, r2, lsl #16
    107c:	05051500 	streq	r1, [r5, #-1280]	; 0xfffffb00
    1080:	06220513 			; <UNDEFINED> instruction: 0x06220513
    1084:	0b052e11 	bleq	14c8d0 <__bss_end__+0x141970>
    1088:	05052f06 	streq	r2, [r5, #-3846]	; 0xfffff0fa
    108c:	09052e06 	stmdbeq	r5, {r1, r2, r9, sl, fp, sp}
    1090:	02040200 	andeq	r0, r4, #0, 4
    1094:	0f056706 	svceq	0x00056706
    1098:	02040200 	andeq	r0, r4, #0, 4
    109c:	000b0549 	andeq	r0, fp, r9, asr #10
    10a0:	01020402 	tsteq	r2, r2, lsl #8
    10a4:	02000505 	andeq	r0, r0, #20971520	; 0x1400000
    10a8:	2e060204 	cdpcs	2, 0, cr0, cr6, cr4, {0}
    10ac:	01054e06 	tsteq	r5, r6, lsl #28
    10b0:	06021306 	streq	r1, [r2], -r6, lsl #6
    10b4:	fa010100 	blx	414bc <__bss_end__+0x3655c>
    10b8:	03000008 	movweq	r0, #8
    10bc:	0000f100 	andeq	pc, r0, r0, lsl #2
    10c0:	fb010200 	blx	418ca <__bss_end__+0x3696a>
    10c4:	01000d0e 	tsteq	r0, lr, lsl #26
    10c8:	00010101 	andeq	r0, r1, r1, lsl #2
    10cc:	00010000 	andeq	r0, r1, r0
    10d0:	2f2e0100 	svccs	0x002e0100
    10d4:	6362696c 	cmnvs	r2, #108, 18	; 0x1b0000
    10d8:	706f2f00 	rsbvc	r2, pc, r0, lsl #30
    10dc:	6f682f74 	svcvs	0x00682f74
    10e0:	7262656d 	rsbvc	r6, r2, #457179136	; 0x1b400000
    10e4:	432f7765 			; <UNDEFINED> instruction: 0x432f7765
    10e8:	616c6c65 	cmnvs	ip, r5, ror #24
    10ec:	72612f72 	rsbvc	r2, r1, #456	; 0x1c8
    10f0:	6f6e2d6d 	svcvs	0x006e2d6d
    10f4:	652d656e 	strvs	r6, [sp, #-1390]!	; 0xfffffa92
    10f8:	2d696261 	sfmcs	f6, 2, [r9, #-388]!	; 0xfffffe7c
    10fc:	2d392f39 	ldccs	15, cr2, [r9, #-228]!	; 0xffffff1c
    1100:	39313032 	ldmdbcc	r1!, {r1, r4, r5, ip, sp}
    1104:	632d3471 			; <UNDEFINED> instruction: 0x632d3471
    1108:	37303173 			; <UNDEFINED> instruction: 0x37303173
    110c:	696c2f65 	stmdbvs	ip!, {r0, r2, r5, r6, r8, r9, sl, fp, sp}^
    1110:	63672f62 	cmnvs	r7, #392	; 0x188
    1114:	72612f63 	rsbvc	r2, r1, #396	; 0x18c
    1118:	6f6e2d6d 	svcvs	0x006e2d6d
    111c:	652d656e 	strvs	r6, [sp, #-1390]!	; 0xfffffa92
    1120:	2f696261 	svccs	0x00696261
    1124:	2e322e39 	mrccs	14, 1, r2, cr2, cr9, {1}
    1128:	6e692f31 	mcrvs	15, 3, r2, cr9, cr1, {1}
    112c:	64756c63 	ldrbtvs	r6, [r5], #-3171	; 0xfffff39d
    1130:	552f0065 	strpl	r0, [pc, #-101]!	; 10d3 <__code_start__-0x6f2d>
    1134:	73726573 	cmnvc	r2, #482344960	; 0x1cc00000
    1138:	6c696d2f 	stclvs	13, cr6, [r9], #-188	; 0xffffff44
    113c:	532f7365 			; <UNDEFINED> instruction: 0x532f7365
    1140:	6372756f 	cmnvs	r2, #465567744	; 0x1bc00000
    1144:	73632f65 	cmnvc	r3, #404	; 0x194
    1148:	6c303432 	cfldrsvs	mvf3, [r0], #-200	; 0xffffff38
    114c:	696c2f78 	stmdbvs	ip!, {r3, r4, r5, r6, r8, r9, sl, fp, sp}^
    1150:	2f697062 	svccs	0x00697062
    1154:	6c636e69 	stclvs	14, cr6, [r3], #-420	; 0xfffffe5c
    1158:	00656475 	rsbeq	r6, r5, r5, ror r4
    115c:	2d617600 	stclcs	6, cr7, [r1, #-0]
    1160:	6e697270 	mcrvs	2, 3, r7, cr9, cr0, {3}
    1164:	632e6b74 			; <UNDEFINED> instruction: 0x632e6b74
    1168:	00000100 	andeq	r0, r0, r0, lsl #2
    116c:	69647473 	stmdbvs	r4!, {r0, r1, r4, r5, r6, sl, ip, sp, lr}^
    1170:	672d746e 	strvs	r7, [sp, -lr, ror #8]!
    1174:	682e6363 	stmdavs	lr!, {r0, r1, r5, r6, r8, r9, sp, lr}
    1178:	00000200 	andeq	r0, r0, r0, lsl #4
    117c:	2e697072 	mcrcs	0, 3, r7, cr9, cr2, {3}
    1180:	00030068 	andeq	r0, r3, r8, rrx
    1184:	69707200 	ldmdbvs	r0!, {r9, ip, sp, lr}^
    1188:	746e692d 	strbtvc	r6, [lr], #-2349	; 0xfffff6d3
    118c:	616e7265 	cmnvs	lr, r5, ror #4
    1190:	00682e6c 	rsbeq	r2, r8, ip, ror #28
    1194:	73000003 	movwvc	r0, #3
    1198:	72616474 	rsbvc	r6, r1, #116, 8	; 0x74000000
    119c:	00682e67 	rsbeq	r2, r8, r7, ror #28
    11a0:	3c000002 	stccc	0, cr0, [r0], {2}
    11a4:	6c697562 	cfstr64vs	mvdx7, [r9], #-392	; 0xfffffe78
    11a8:	6e692d74 	mcrvs	13, 3, r2, cr9, cr4, {3}
    11ac:	0000003e 	andeq	r0, r0, lr, lsr r0
    11b0:	01050000 	mrseq	r0, (UNDEF: 5)
    11b4:	60020500 	andvs	r0, r2, r0, lsl #10
    11b8:	0300008d 	movweq	r0, #141	; 0x8d
    11bc:	050100c8 	streq	r0, [r1, #-200]	; 0xffffff38
    11c0:	01051402 	tsteq	r5, r2, lsl #8
    11c4:	04051006 	streq	r1, [r5], #-6
    11c8:	2c010530 	cfstr32cs	mvfx0, [r1], {48}	; 0x30
    11cc:	3004054a 	andcc	r0, r4, sl, asr #10
    11d0:	31060205 	tstcc	r6, r5, lsl #4
    11d4:	060b0513 			; <UNDEFINED> instruction: 0x060b0513
    11d8:	0602052e 	streq	r0, [r2], -lr, lsr #10
    11dc:	06090530 			; <UNDEFINED> instruction: 0x06090530
    11e0:	2e0d2402 	cdpcs	4, 0, cr2, cr13, cr2, {0}
    11e4:	060d052e 	streq	r0, [sp], -lr, lsr #10
    11e8:	054a1703 	strbeq	r1, [sl, #-1795]	; 0xfffff8fd
    11ec:	2d051311 	stccs	3, cr1, [r5, #-68]	; 0xffffffbc
    11f0:	16050106 	strne	r0, [r5], -r6, lsl #2
    11f4:	2f0d052e 	svccs	0x000d052e
    11f8:	052d1605 	streq	r1, [sp, #-1541]!	; 0xfffff9fb
    11fc:	052f0614 	streq	r0, [pc, #-1556]!	; bf0 <__code_start__-0x7410>
    1200:	05010617 	streq	r0, [r1, #-1559]	; 0xfffff9e9
    1204:	2f062e0d 	svccs	0x00062e0d
    1208:	01061205 	tsteq	r6, r5, lsl #4
    120c:	052d2f2e 	streq	r2, [sp, #-3886]!	; 0xfffff0d2
    1210:	052f060d 	streq	r0, [pc, #-1549]!	; c0b <__code_start__-0x73f5>
    1214:	05010612 	streq	r0, [r1, #-1554]	; 0xfffff9ee
    1218:	052f0619 	streq	r0, [pc, #-1561]!	; c07 <__code_start__-0x73f9>
    121c:	01110304 	tsteq	r1, r4, lsl #6
    1220:	15020501 	strne	r0, [r2, #-1281]	; 0xfffffaff
    1224:	b2030e05 	andlt	r0, r3, #80	; 0x50
    1228:	0205017f 	andeq	r0, r5, #-1073741793	; 0xc000001f
    122c:	06060513 			; <UNDEFINED> instruction: 0x06060513
    1230:	06020501 	streq	r0, [r2], -r1, lsl #10
    1234:	01080530 	tsteq	r8, r0, lsr r5
    1238:	01060205 	tsteq	r6, r5, lsl #4
    123c:	0808054a 	stmdaeq	r8, {r1, r3, r6, r8, sl}
    1240:	06030591 			; <UNDEFINED> instruction: 0x06030591
    1244:	0608054a 	streq	r0, [r8], -sl, asr #10
    1248:	06150501 	ldreq	r0, [r5], -r1, lsl #10
    124c:	0108052d 	tsteq	r8, sp, lsr #10
    1250:	05d70305 	ldrbeq	r0, [r7, #773]	; 0x305
    1254:	05010608 	streq	r0, [r1, #-1544]	; 0xfffff9f8
    1258:	02052d18 	andeq	r2, r5, #24, 26	; 0x600
    125c:	2f08052e 	svccs	0x0008052e
    1260:	2d061505 	cfstr32cs	mvfx1, [r6, #-20]	; 0xffffffec
    1264:	05010805 	streq	r0, [r1, #-2053]	; 0xfffff7fb
    1268:	05010602 	streq	r0, [r1, #-1538]	; 0xfffff9fe
    126c:	052f0603 	streq	r0, [pc, #-1539]!	; c71 <__code_start__-0x738f>
    1270:	05110618 	ldreq	r0, [r1, #-1560]	; 0xfffff9e8
    1274:	08052e02 	stmdaeq	r5, {r1, r9, sl, fp, sp}
    1278:	0615052f 	ldreq	r0, [r5], -pc, lsr #10
    127c:	0108052d 	tsteq	r8, sp, lsr #10
    1280:	05130305 	ldreq	r0, [r3, #-773]	; 0xfffffcfb
    1284:	05010608 	streq	r0, [r1, #-1544]	; 0xfffff9f8
    1288:	052d0615 	streq	r0, [sp, #-1557]!	; 0xfffff9eb
    128c:	01060108 	tsteq	r6, r8, lsl #2
    1290:	a0060205 	andge	r0, r6, r5, lsl #4
    1294:	01060505 	tsteq	r6, r5, lsl #10
    1298:	05360405 	ldreq	r0, [r6, #-1029]!	; 0xfffffbfb
    129c:	09052f11 	stmdbeq	r5, {r0, r4, r8, r9, sl, fp, sp}
    12a0:	3302052e 	movwcc	r0, #9518	; 0x252e
    12a4:	72030505 	andvc	r0, r3, #20971520	; 0x1400000
    12a8:	0602052e 	streq	r0, [r2], -lr, lsr #10
    12ac:	0501062f 	streq	r0, [r1, #-1583]	; 0xfffff9d1
    12b0:	0516060e 	ldreq	r0, [r6, #-1550]	; 0xfffff9f2
    12b4:	05131402 	ldreq	r1, [r3, #-1026]	; 0xfffffbfe
    12b8:	02051303 	andeq	r1, r5, #201326592	; 0xc000000
    12bc:	0b051514 	bleq	146714 <__bss_end__+0x13b7b4>
    12c0:	06020501 	streq	r0, [r2], -r1, lsl #10
    12c4:	03052e01 	movweq	r2, #24065	; 0x5e01
    12c8:	0a056706 	beq	15aee8 <__bss_end__+0x14ff88>
    12cc:	02050106 	andeq	r0, r5, #-2147483647	; 0x80000001
    12d0:	2f0a052d 	svccs	0x000a052d
    12d4:	2d061705 	stccs	7, cr1, [r6, #-20]	; 0xffffffec
    12d8:	05010b05 	streq	r0, [r1, #-2821]	; 0xfffff4fb
    12dc:	05010602 	streq	r0, [r1, #-1538]	; 0xfffff9fe
    12e0:	052e4c09 	streq	r4, [lr, #-3081]!	; 0xfffff3f7
    12e4:	052e0602 	streq	r0, [lr, #-1538]!	; 0xfffff9fe
    12e8:	05010609 	streq	r0, [r1, #-1545]	; 0xfffff9f7
    12ec:	06300602 	ldrteq	r0, [r0], -r2, lsl #12
    12f0:	03010501 	movweq	r0, #5377	; 0x1501
    12f4:	09050138 	stmdbeq	r5, {r3, r4, r5, r8}
    12f8:	2e4a4f03 	cdpcs	15, 4, cr4, cr10, cr3, {0}
    12fc:	0619052e 	ldreq	r0, [r9], -lr, lsr #10
    1300:	054a2703 	strbeq	r2, [sl, #-1795]	; 0xfffff8fd
    1304:	2805131a 	stmdacs	r5, {r1, r3, r4, r8, r9, ip}
    1308:	1f050106 	svcne	0x00050106
    130c:	2f04052e 	svccs	0x0004052e
    1310:	052d1f05 	streq	r1, [sp, #-3845]!	; 0xfffff0fb
    1314:	052f060b 	streq	r0, [pc, #-1547]!	; d11 <__code_start__-0x72ef>
    1318:	0501060e 	streq	r0, [r1, #-1550]	; 0xfffff9f2
    131c:	02052e04 	andeq	r2, r5, #4, 28	; 0x40
    1320:	4a590306 	bmi	1641f40 <__bss_end__+0x1636fe0>
    1324:	060b0513 			; <UNDEFINED> instruction: 0x060b0513
    1328:	0602052e 	streq	r0, [r2], -lr, lsr #10
    132c:	06090530 			; <UNDEFINED> instruction: 0x06090530
    1330:	050d2402 	streq	r2, [sp, #-1026]	; 0xfffffbfe
    1334:	13360604 	teqne	r6, #4, 12	; 0x400000
    1338:	01060605 	tsteq	r6, r5, lsl #12
    133c:	67060505 	strvs	r0, [r6, -r5, lsl #10]
    1340:	09051313 	stmdbeq	r5, {r0, r1, r4, r8, r9, ip}
    1344:	0d051106 	stfeqs	f1, [r5, #-24]	; 0xffffffe8
    1348:	300b052b 	andcc	r0, fp, fp, lsr #10
    134c:	052c0d05 	streq	r0, [ip, #-3333]!	; 0xfffff2fb
    1350:	0405351b 	streq	r3, [r5], #-1307	; 0xfffffae5
    1354:	05052d06 	streq	r2, [r5, #-3334]	; 0xfffff2fa
    1358:	061b0513 			; <UNDEFINED> instruction: 0x061b0513
    135c:	820a052e 	andhi	r0, sl, #192937984	; 0xb800000
    1360:	052f0405 	streq	r0, [pc, #-1029]!	; f63 <__code_start__-0x709d>
    1364:	0a052e0e 	beq	14cba4 <__bss_end__+0x141c44>
    1368:	060b0549 	streq	r0, [fp], -r9, asr #10
    136c:	0604052f 	streq	r0, [r4], -pc, lsr #10
    1370:	052f0601 	streq	r0, [pc, #-1537]!	; d77 <__code_start__-0x7289>
    1374:	05010606 	streq	r0, [r1, #-1542]	; 0xfffff9fa
    1378:	052f0605 	streq	r0, [pc, #-1541]!	; d7b <__code_start__-0x7285>
    137c:	2e01060a 	cfmadd32cs	mvax0, mvfx0, mvfx1, mvfx10
    1380:	2e2e0705 	cdpcs	7, 2, cr0, cr14, cr5, {0}
    1384:	0604052e 	streq	r0, [r4], -lr, lsr #10
    1388:	05010d03 	streq	r0, [r1, #-3331]	; 0xfffff2fd
    138c:	46030602 	strmi	r0, [r3], -r2, lsl #12
    1390:	03090501 	movweq	r0, #38145	; 0x9501
    1394:	04052e3a 	streq	r2, [r5], #-3642	; 0xfffff1c6
    1398:	0d032f06 	stceq	15, cr2, [r3, #-24]	; 0xffffffe8
    139c:	02050101 	andeq	r0, r5, #1073741824	; 0x40000000
    13a0:	030e0515 	movweq	r0, #58645	; 0xe515
    13a4:	05017fb2 	streq	r7, [r1, #-4018]	; 0xfffff04e
    13a8:	05141302 	ldreq	r1, [r4, #-770]	; 0xfffffcfe
    13ac:	06050108 	streq	r0, [r5], -r8, lsl #2
    13b0:	3c031006 	stccc	0, cr1, [r3], {6}
    13b4:	0302052e 	movweq	r0, #9518	; 0x252e
    13b8:	30064a46 	andcc	r4, r6, r6, asr #20
    13bc:	01060505 	tsteq	r6, r5, lsl #10
    13c0:	02052e2e 	andeq	r2, r5, #736	; 0x2e0
    13c4:	01064b06 	tsteq	r6, r6, lsl #22
    13c8:	16060e05 	strne	r0, [r6], -r5, lsl #28
    13cc:	13140205 	tstne	r4, #1342177280	; 0x50000000
    13d0:	0b051515 	bleq	14682c <__bss_end__+0x13b8cc>
    13d4:	06020501 	streq	r0, [r2], -r1, lsl #10
    13d8:	0530062e 	ldreq	r0, [r0, #-1582]!	; 0xfffff9d2
    13dc:	05010609 	streq	r0, [r1, #-1545]	; 0xfffff9f7
    13e0:	064c0602 	strbeq	r0, [ip], -r2, lsl #12
    13e4:	03010501 	movweq	r0, #5377	; 0x1501
    13e8:	06050138 			; <UNDEFINED> instruction: 0x06050138
    13ec:	054a6e03 	strbeq	r6, [sl, #-3587]	; 0xfffff1fd
    13f0:	66460302 	strbvs	r0, [r6], -r2, lsl #6
    13f4:	04052e4a 	streq	r2, [r5], #-3658	; 0xfffff1b6
    13f8:	00c80306 	sbceq	r0, r8, r6, lsl #6
    13fc:	01010101 	tsteq	r1, r1, lsl #2
    1400:	06822e06 	streq	r2, [r2], r6, lsl #28
    1404:	2e72034a 	cdpcs	3, 7, cr0, cr2, cr10, {2}
    1408:	01060905 	tsteq	r6, r5, lsl #18
    140c:	2f060405 	svccs	0x00060405
    1410:	01010d03 	tsteq	r1, r3, lsl #26
    1414:	05150205 	ldreq	r0, [r5, #-517]	; 0xfffffdfb
    1418:	7fb2030e 	svcvc	0x00b2030e
    141c:	13020501 	movwne	r0, #9473	; 0x2501
    1420:	01080514 	tsteq	r8, r4, lsl r5
    1424:	03060905 	movweq	r0, #26885	; 0x6905
    1428:	0605011b 			; <UNDEFINED> instruction: 0x0605011b
    142c:	032e6303 			; <UNDEFINED> instruction: 0x032e6303
    1430:	2e2e2e3c 	mcrcs	14, 1, r2, cr14, cr12, {1}
    1434:	03064805 	movweq	r4, #26629	; 0x6805
    1438:	3c087fb4 	stccc	15, cr7, [r8], {180}	; 0xb4
    143c:	01130505 	tsteq	r3, r5, lsl #10
    1440:	02002e06 	andeq	r2, r0, #96	; 0x60
    1444:	2e060204 	cdpcs	2, 0, cr0, cr6, cr4, {0}
    1448:	02040200 	andeq	r0, r4, #0, 4
    144c:	04020001 	streq	r0, [r2], #-1
    1450:	11051302 	tstne	r5, r2, lsl #6
    1454:	02040200 	andeq	r0, r4, #0, 4
    1458:	07050106 	streq	r0, [r5, -r6, lsl #2]
    145c:	02040200 	andeq	r0, r4, #0, 4
    1460:	0011052f 	andseq	r0, r1, pc, lsr #10
    1464:	2d020402 	cfstrscs	mvf0, [r2, #-8]
    1468:	02000505 	andeq	r0, r0, #20971520	; 0x1400000
    146c:	2f060204 	svccs	0x00060204
    1470:	02000905 	andeq	r0, r0, #81920	; 0x14000
    1474:	05130204 	ldreq	r0, [r3, #-516]	; 0xfffffdfc
    1478:	0402000e 	streq	r0, [r2], #-14
    147c:	05010602 	streq	r0, [r1, #-1538]	; 0xfffff9fe
    1480:	04020005 	streq	r0, [r2], #-5
    1484:	00630601 	rsbeq	r0, r3, r1, lsl #12
    1488:	01010402 	tsteq	r1, r2, lsl #8
    148c:	02004805 	andeq	r4, r0, #327680	; 0x50000
    1490:	11060104 	tstne	r6, r4, lsl #2
    1494:	02000505 	andeq	r0, r0, #20971520	; 0x1400000
    1498:	052f0104 	streq	r0, [pc, #-260]!	; 139c <__code_start__-0x6c64>
    149c:	04020048 	streq	r0, [r2], #-72	; 0xffffffb8
    14a0:	05052d01 	streq	r2, [r5, #-3329]	; 0xfffff2ff
    14a4:	01040200 	mrseq	r0, R12_usr
    14a8:	0402002f 	streq	r0, [r2], #-47	; 0xffffffd1
    14ac:	02004a01 	andeq	r4, r0, #4096	; 0x1000
    14b0:	004a0104 	subeq	r0, sl, r4, lsl #2
    14b4:	06010402 	streq	r0, [r1], -r2, lsl #8
    14b8:	0340054a 	movteq	r0, #1354	; 0x54a
    14bc:	06d600e1 	ldrbeq	r0, [r6], r1, ror #1
    14c0:	4e090501 	cfsh32mi	mvfx0, mvfx9, #1
    14c4:	3008052e 	andcc	r0, r8, lr, lsr #10
    14c8:	05291e05 	streq	r1, [r9, #-3589]!	; 0xfffff1fb
    14cc:	0d052e12 	stceq	14, cr2, [r5, #-72]	; 0xffffffb8
    14d0:	06020533 			; <UNDEFINED> instruction: 0x06020533
    14d4:	13050545 	movwne	r0, #21829	; 0x5545
    14d8:	05140205 	ldreq	r0, [r4, #-517]	; 0xfffffdfb
    14dc:	02051305 	andeq	r1, r5, #335544320	; 0x14000000
    14e0:	01080513 	tsteq	r8, r3, lsl r5
    14e4:	03064005 	movweq	r4, #24581	; 0x6005
    14e8:	052e017a 	streq	r0, [lr, #-378]!	; 0xfffffe86
    14ec:	0566340d 	strbeq	r3, [r6, #-1037]!	; 0xfffffbf3
    14f0:	4a200311 	bmi	80213c <__bss_end__+0x7f71dc>
    14f4:	0604054a 	streq	r0, [r4], -sl, asr #10
    14f8:	05016203 	streq	r6, [r1, #-515]	; 0xfffffdfd
    14fc:	05010609 	streq	r0, [r1, #-1545]	; 0xfffff9f7
    1500:	08052e0f 	stmdaeq	r5, {r0, r1, r2, r3, r9, sl, fp, sp}
    1504:	0d052c06 	stceq	12, cr2, [r5, #-24]	; 0xffffffe8
    1508:	03052e06 	movweq	r2, #24070	; 0x5e06
    150c:	05056706 	streq	r6, [r5, #-1798]	; 0xfffff8fa
    1510:	08050106 	stmdaeq	r5, {r1, r2, r8}
    1514:	0e054d06 	cdpeq	13, 0, cr4, cr5, cr6, {0}
    1518:	0a050106 	beq	141938 <__bss_end__+0x1369d8>
    151c:	2f09052e 	svccs	0x0009052e
    1520:	2f060405 	svccs	0x00060405
    1524:	01060705 	tsteq	r6, r5, lsl #14
    1528:	052c0a05 	streq	r0, [ip, #-2565]!	; 0xfffff5fb
    152c:	05320604 	ldreq	r0, [r2, #-1540]!	; 0xfffff9fc
    1530:	9803062d 	stmdals	r3, {r0, r2, r3, r5, r9, sl}
    1534:	0905017f 	stmdbeq	r5, {r0, r1, r2, r3, r4, r5, r6, r8}
    1538:	2e00ed03 	cdpcs	13, 0, cr14, cr0, cr3, {0}
    153c:	052c0d05 	streq	r0, [ip, #-3333]!	; 0xfffff2fb
    1540:	04052b07 	streq	r2, [r5], #-2823	; 0xfffff4f9
    1544:	14133006 	ldrne	r3, [r3], #-6
    1548:	05010905 	streq	r0, [r1, #-2309]	; 0xfffff6fb
    154c:	7f93030c 	svcvc	0x0093030c
    1550:	011d0501 	tsteq	sp, r1, lsl #10
    1554:	09050106 	stmdbeq	r5, {r1, r2, r8}
    1558:	0100ed03 	tsteq	r0, r3, lsl #26
    155c:	2f060505 	svccs	0x00060505
    1560:	01061205 	tsteq	r6, r5, lsl #4
    1564:	0b052d2e 	bleq	14ca24 <__bss_end__+0x141ac4>
    1568:	0605052f 	streq	r0, [r5], -pc, lsr #10
    156c:	1009052f 	andne	r0, r9, pc, lsr #10
    1570:	93030c05 	movwls	r0, #15365	; 0x3c05
    1574:	1d05017f 	stfnes	f0, [r5, #-508]	; 0xfffffe04
    1578:	062d0501 	strteq	r0, [sp], -r1, lsl #10
    157c:	03090501 	movweq	r0, #38145	; 0x9501
    1580:	052e00ed 	streq	r0, [lr, #-237]!	; 0xffffff13
    1584:	014e0604 	cmpeq	lr, r4, lsl #12
    1588:	02040200 	andeq	r0, r4, #0, 4
    158c:	0402004a 	streq	r0, [r2], #-74	; 0xffffffb6
    1590:	02000102 	andeq	r0, r0, #-2147483648	; 0x80000000
    1594:	00150204 	andseq	r0, r5, r4, lsl #4
    1598:	06020402 	streq	r0, [r2], -r2, lsl #8
    159c:	00123602 	andseq	r3, r2, r2, lsl #12
    15a0:	2e020402 	cdpcs	4, 0, cr0, cr2, cr2, {0}
    15a4:	03060205 	movweq	r0, #25093	; 0x6205
    15a8:	050100d1 	streq	r0, [r1, #-209]	; 0xffffff2f
    15ac:	2e010607 	cfmadd32cs	mvax0, mvfx0, mvfx1, mvfx7
    15b0:	2f060205 	svccs	0x00060205
    15b4:	01060b05 	tsteq	r6, r5, lsl #22
    15b8:	052f0105 	streq	r0, [pc, #-261]!	; 14bb <__code_start__-0x6b45>
    15bc:	65030605 	strvs	r0, [r3, #-1541]	; 0xfffff9fb
    15c0:	0609054a 	streq	r0, [r9], -sl, asr #10
    15c4:	05056601 	streq	r6, [r5, #-1537]	; 0xfffff9ff
    15c8:	04059f06 	streq	r9, [r5], #-3846	; 0xfffff0fa
    15cc:	05011103 	streq	r1, [r1, #-259]	; 0xfffffefd
    15d0:	05010607 	streq	r0, [r1, #-1543]	; 0xfffff9f9
    15d4:	05310604 	ldreq	r0, [r1, #-1540]!	; 0xfffff9fc
    15d8:	1305010a 	movwne	r0, #20746	; 0x510a
    15dc:	01040200 	mrseq	r0, R12_usr
    15e0:	10052e06 	andne	r2, r5, r6, lsl #28
    15e4:	01040200 	mrseq	r0, R12_usr
    15e8:	0605052e 	streq	r0, [r5], -lr, lsr #10
    15ec:	060a054b 	streq	r0, [sl], -fp, asr #10
    15f0:	052d0601 	streq	r0, [sp, #-1537]!	; 0xfffff9ff
    15f4:	05010604 	streq	r0, [r1, #-1540]	; 0xfffff9fc
    15f8:	b6030611 			; <UNDEFINED> instruction: 0xb6030611
    15fc:	0113667f 	tsteq	r3, pc, ror r6
    1600:	02040200 	andeq	r0, r4, #0, 4
    1604:	ba06ba06 	blt	1afe24 <__bss_end__+0x1a4ec4>
    1608:	1a051401 	bne	146614 <__bss_end__+0x13b6b4>
    160c:	2e2e1306 	cdpcs	3, 2, cr1, cr14, cr6, {0}
    1610:	674e1105 	strbvs	r1, [lr, -r5, lsl #2]
    1614:	05681405 	strbeq	r1, [r8, #-1029]!	; 0xfffffbfb
    1618:	15058213 	strne	r8, [r5, #-531]	; 0xfffffded
    161c:	054a7803 	strbeq	r7, [sl, #-2051]	; 0xfffff7fd
    1620:	134b0611 	movtne	r0, #46609	; 0xb611
    1624:	14131413 	ldrne	r1, [r3], #-1043	; 0xfffffbed
    1628:	01061305 	tsteq	r6, r5, lsl #6
    162c:	2f060905 	svccs	0x00060905
    1630:	01060d05 	tsteq	r6, r5, lsl #26
    1634:	09052e2e 	stmdbeq	r5, {r1, r2, r3, r5, r9, sl, fp, sp}
    1638:	9d0d05bb 	cfstr32ls	mvfx0, [sp, #-748]	; 0xfffffd14
    163c:	2f060905 	svccs	0x00060905
    1640:	062f1505 	strteq	r1, [pc], -r5, lsl #10
    1644:	034a7503 	movteq	r7, #42243	; 0xa503
    1648:	054a2e0b 	strbeq	r2, [sl, #-3595]	; 0xfffff1f5
    164c:	23030605 	movwcs	r0, #13829	; 0x3605
    1650:	06090501 	streq	r0, [r9], -r1, lsl #10
    1654:	05052e01 	streq	r2, [r5, #-3585]	; 0xfffff1ff
    1658:	6e03d706 	cdpvs	7, 0, cr13, cr3, cr6, {0}
    165c:	010e032e 	tsteq	lr, lr, lsr #6
    1660:	01060905 	tsteq	r6, r5, lsl #18
    1664:	03060505 	movweq	r0, #25861	; 0x6505
    1668:	01054a10 	tsteq	r5, r0, lsl sl
    166c:	017eed03 	cmneq	lr, r3, lsl #26
    1670:	15140205 	ldrne	r0, [r4, #-517]	; 0xfffffdfb
    1674:	04051413 	streq	r1, [r5], #-1043	; 0xfffffbed
    1678:	05011a03 	streq	r1, [r1, #-2563]	; 0xfffff5fd
    167c:	05010609 	streq	r0, [r1, #-1545]	; 0xfffff9f7
    1680:	2e460302 	cdpcs	3, 4, cr0, cr6, cr2, {0}
    1684:	3a030905 	bcc	c3aa0 <__bss_end__+0xb8b40>
    1688:	0604052e 	streq	r0, [r4], -lr, lsr #10
    168c:	010d032f 	tsteq	sp, pc, lsr #6
    1690:	15020501 	strne	r0, [r2, #-1281]	; 0xfffffaff
    1694:	b2030e05 	andlt	r0, r3, #80	; 0x50
    1698:	0205017f 	andeq	r0, r5, #-1073741793	; 0xc000001f
    169c:	08051413 	stmdaeq	r5, {r0, r1, r4, sl, ip}
    16a0:	06020501 	streq	r0, [r2], -r1, lsl #10
    16a4:	9f080501 	svcls	0x00080501
    16a8:	4a060305 	bmi	1822c4 <__bss_end__+0x177364>
    16ac:	08050106 	stmdaeq	r5, {r1, r2, r8}
    16b0:	0615052e 	ldreq	r0, [r5], -lr, lsr #10
    16b4:	0108052d 	tsteq	r8, sp, lsr #10
    16b8:	062f0305 	strteq	r0, [pc], -r5, lsl #6
    16bc:	2e080501 	cfsh32cs	mvfx0, mvfx8, #1
    16c0:	2d061505 	cfstr32cs	mvfx1, [r6, #-20]	; 0xffffffec
    16c4:	05010805 	streq	r0, [r1, #-2053]	; 0xfffff7fb
    16c8:	01062f03 	tsteq	r6, r3, lsl #30
    16cc:	052e0805 	streq	r0, [lr, #-2053]!	; 0xfffff7fb
    16d0:	052d0615 	streq	r0, [sp, #-1557]!	; 0xfffff9eb
    16d4:	03050108 	movweq	r0, #20744	; 0x5108
    16d8:	0501062f 	streq	r0, [r1, #-1583]	; 0xfffff9d1
    16dc:	15052e08 	strne	r2, [r5, #-3592]	; 0xfffff1f8
    16e0:	08052d06 	stmdaeq	r5, {r1, r2, r8, sl, fp, sp}
    16e4:	2f030501 	svccs	0x00030501
    16e8:	08050106 	stmdaeq	r5, {r1, r2, r8}
    16ec:	0615052e 	ldreq	r0, [r5], -lr, lsr #10
    16f0:	0108052d 	tsteq	r8, sp, lsr #10
    16f4:	062f0305 	strteq	r0, [pc], -r5, lsl #6
    16f8:	2e080501 	cfsh32cs	mvfx0, mvfx8, #1
    16fc:	2d061505 	cfstr32cs	mvfx1, [r6, #-20]	; 0xffffffec
    1700:	05010805 	streq	r0, [r1, #-2053]	; 0xfffff7fb
    1704:	08051303 	stmdaeq	r5, {r0, r1, r8, r9, ip}
    1708:	15050106 	strne	r0, [r5, #-262]	; 0xfffffefa
    170c:	08052d06 	stmdaeq	r5, {r1, r2, r8, sl, fp, sp}
    1710:	05660601 	strbeq	r0, [r6, #-1537]!	; 0xfffff9ff
    1714:	05670603 	strbeq	r0, [r7, #-1539]!	; 0xfffff9fd
    1718:	05010608 	streq	r0, [r1, #-1544]	; 0xfffff9f8
    171c:	02052d18 	andeq	r2, r5, #24, 26	; 0x600
    1720:	2f08052e 	svccs	0x0008052e
    1724:	2d061505 	cfstr32cs	mvfx1, [r6, #-20]	; 0xffffffec
    1728:	05010805 	streq	r0, [r1, #-2053]	; 0xfffff7fb
    172c:	05010602 	streq	r0, [r1, #-1538]	; 0xfffff9fe
    1730:	052f0603 	streq	r0, [pc, #-1539]!	; 1135 <__code_start__-0x6ecb>
    1734:	05110618 	ldreq	r0, [r1, #-1560]	; 0xfffff9e8
    1738:	08052e02 	stmdaeq	r5, {r1, r9, sl, fp, sp}
    173c:	0615052f 	ldreq	r0, [r5], -pc, lsr #10
    1740:	0108052d 	tsteq	r8, sp, lsr #10
    1744:	05130305 	ldreq	r0, [r3, #-773]	; 0xfffffcfb
    1748:	05010608 	streq	r0, [r1, #-1544]	; 0xfffff9f8
    174c:	052d0615 	streq	r0, [sp, #-1557]!	; 0xfffff9eb
    1750:	05050108 	streq	r0, [r5, #-264]	; 0xfffffef8
    1754:	054a1406 	strbeq	r1, [sl, #-1030]	; 0xfffffbfa
    1758:	052e0602 	streq	r0, [lr, #-1538]!	; 0xfffff9fe
    175c:	0519060e 	ldreq	r0, [r9, #-1550]	; 0xfffff9f2
    1760:	11052f04 	tstne	r5, r4, lsl #30
    1764:	4a09052f 	bmi	242c28 <__bss_end__+0x237cc8>
    1768:	05330205 	ldreq	r0, [r3, #-517]!	; 0xfffffdfb
    176c:	2e720305 	cdpcs	3, 7, cr0, cr2, cr5, {0}
    1770:	2f060205 	svccs	0x00060205
    1774:	0e050106 	adfeqs	f0, f5, f6
    1778:	02051606 	andeq	r1, r5, #6291456	; 0x600000
    177c:	03051314 	movweq	r1, #21268	; 0x5314
    1780:	14020513 	strne	r0, [r2], #-1299	; 0xfffffaed
    1784:	010b0515 	tsteq	fp, r5, lsl r5
    1788:	01060205 	tsteq	r6, r5, lsl #4
    178c:	0305662e 	movweq	r6, #22062	; 0x562e
    1790:	0a052f06 	beq	14d3b0 <__bss_end__+0x142450>
    1794:	02050106 	andeq	r0, r5, #-2147483647	; 0x80000001
    1798:	2f0a052d 	svccs	0x000a052d
    179c:	2d061705 	stccs	7, cr1, [r6, #-20]	; 0xffffffec
    17a0:	05010b05 	streq	r0, [r1, #-2821]	; 0xfffff4fb
    17a4:	4a010602 	bmi	42fb4 <__bss_end__+0x38054>
    17a8:	0605054a 	streq	r0, [r5], -sl, asr #10
    17ac:	01019503 	tsteq	r1, r3, lsl #10
    17b0:	03061105 	movweq	r1, #24837	; 0x6105
    17b4:	05017ef8 	streq	r7, [r1, #-3832]	; 0xfffff108
    17b8:	0188031b 	orreq	r0, r8, fp, lsl r3
    17bc:	0601054a 	streq	r0, [r1], -sl, asr #10
    17c0:	2e7ef303 	cdpcs	3, 7, cr15, cr14, cr3, {0}
    17c4:	15140205 	ldrne	r0, [r4, #-517]	; 0xfffffdfb
    17c8:	19051413 	stmdbne	r5, {r0, r1, r4, sl, ip}
    17cc:	05012203 	streq	r2, [r1, #-515]	; 0xfffffdfd
    17d0:	2805131a 	stmdacs	r5, {r1, r3, r4, r8, r9, ip}
    17d4:	1f050106 	svcne	0x00050106
    17d8:	2f04052e 	svccs	0x0004052e
    17dc:	054a0e05 	strbeq	r0, [sl, #-3589]	; 0xfffff1fb
    17e0:	0b052d1f 	bleq	14cc64 <__bss_end__+0x141d04>
    17e4:	04052f06 	streq	r2, [r5], #-3846	; 0xfffff0fa
    17e8:	32060106 	andcc	r0, r6, #-2147483647	; 0x80000001
    17ec:	15020501 	strne	r0, [r2, #-1281]	; 0xfffffaff
    17f0:	b2030e05 	andlt	r0, r3, #80	; 0x50
    17f4:	0205017f 	andeq	r0, r5, #-1073741793	; 0xc000001f
    17f8:	06060513 			; <UNDEFINED> instruction: 0x06060513
    17fc:	06020501 	streq	r0, [r2], -r1, lsl #10
    1800:	01080530 	tsteq	r8, r0, lsr r5
    1804:	01060205 	tsteq	r6, r5, lsl #4
    1808:	08060305 	stmdaeq	r6, {r0, r2, r8, r9}
    180c:	06080521 	streq	r0, [r8], -r1, lsr #10
    1810:	06150501 	ldreq	r0, [r5], -r1, lsl #10
    1814:	01080549 	tsteq	r8, r9, asr #10
    1818:	05d70305 	ldrbeq	r0, [r7, #773]	; 0x305
    181c:	05010608 	streq	r0, [r1, #-1544]	; 0xfffff9f8
    1820:	02052d18 	andeq	r2, r5, #24, 26	; 0x600
    1824:	2f08052e 	svccs	0x0008052e
    1828:	2d061505 	cfstr32cs	mvfx1, [r6, #-20]	; 0xffffffec
    182c:	05010805 	streq	r0, [r1, #-2053]	; 0xfffff7fb
    1830:	05010602 	streq	r0, [r1, #-1538]	; 0xfffff9fe
    1834:	052f0603 	streq	r0, [pc, #-1539]!	; 1239 <__code_start__-0x6dc7>
    1838:	05110618 	ldreq	r0, [r1, #-1560]	; 0xfffff9e8
    183c:	08052e02 	stmdaeq	r5, {r1, r9, sl, fp, sp}
    1840:	0615052f 	ldreq	r0, [r5], -pc, lsr #10
    1844:	0108052d 	tsteq	r8, sp, lsr #10
    1848:	05130305 	ldreq	r0, [r3, #-773]	; 0xfffffcfb
    184c:	05010608 	streq	r0, [r1, #-1544]	; 0xfffff9f8
    1850:	052d0615 	streq	r0, [sp, #-1557]!	; 0xfffff9eb
    1854:	05050108 	streq	r0, [r5, #-264]	; 0xfffffef8
    1858:	02051406 	andeq	r1, r5, #100663296	; 0x6000000
    185c:	04056606 	streq	r6, [r5], #-1542	; 0xfffff9fa
    1860:	05051a06 	streq	r1, [r5, #-2566]	; 0xfffff5fa
    1864:	054a7803 	strbeq	r7, [sl, #-2051]	; 0xfffff7fd
    1868:	062f0602 	strteq	r0, [pc], -r2, lsl #12
    186c:	060e0501 	streq	r0, [lr], -r1, lsl #10
    1870:	14020516 	strne	r0, [r2], #-1302	; 0xfffffaea
    1874:	06040513 			; <UNDEFINED> instruction: 0x06040513
    1878:	06030501 	streq	r0, [r3], -r1, lsl #10
    187c:	0611052f 	ldreq	r0, [r1], -pc, lsr #10
    1880:	2e090501 	cfsh32cs	mvfx0, mvfx9, #1
    1884:	30060205 	andcc	r0, r6, r5, lsl #4
    1888:	010b0515 	tsteq	fp, r5, lsl r5
    188c:	01060205 	tsteq	r6, r5, lsl #4
    1890:	052e4a4a 	streq	r4, [lr, #-2634]!	; 0xfffff5b6
    1894:	052f0603 	streq	r0, [pc, #-1539]!	; 1299 <__code_start__-0x6d67>
    1898:	0501060a 	streq	r0, [r1, #-1546]	; 0xfffff9f6
    189c:	0a052d02 	beq	14ccac <__bss_end__+0x141d4c>
    18a0:	0617052f 	ldreq	r0, [r7], -pc, lsr #10
    18a4:	010b052d 	tsteq	fp, sp, lsr #10
    18a8:	01060205 	tsteq	r6, r5, lsl #4
    18ac:	14062e4a 	strne	r2, [r6], #-3658	; 0xfffff1b6
    18b0:	01060905 	tsteq	r6, r5, lsl #18
    18b4:	4c060205 	sfmmi	f0, 4, [r6], {5}
    18b8:	05050106 	streq	r0, [r5, #-262]	; 0xfffffefa
    18bc:	01980306 	orrseq	r0, r8, r6, lsl #6
    18c0:	07052a01 	streq	r2, [r5, -r1, lsl #20]
    18c4:	05050106 	streq	r0, [r5, #-262]	; 0xfffffefa
    18c8:	18052f06 	stmdane	r5, {r1, r2, r8, r9, sl, fp, sp}
    18cc:	052e5303 	streq	r5, [lr, #-771]!	; 0xfffffcfd
    18d0:	0501061b 	streq	r0, [r1, #-1563]	; 0xfffff9e5
    18d4:	0905821a 	stmdbeq	r5, {r1, r3, r4, r9, pc}
    18d8:	0d054b06 	vstreq	d4, [r5, #-24]	; 0xffffffe8
    18dc:	052e0106 	streq	r0, [lr, #-262]!	; 0xfffffefa
    18e0:	0d05d709 	stceq	7, cr13, [r5, #-36]	; 0xffffffdc
    18e4:	0609059d 			; <UNDEFINED> instruction: 0x0609059d
    18e8:	3015052f 	andscc	r0, r5, pc, lsr #10
    18ec:	01061805 	tsteq	r6, r5, lsl #16
    18f0:	05661705 	strbeq	r1, [r6, #-1797]!	; 0xfffff8fb
    18f4:	17052f19 	smladne	r5, r9, pc, r2	; <UNPREDICTABLE>
    18f8:	06190549 	ldreq	r0, [r9], -r9, asr #10
    18fc:	0615052f 	ldreq	r0, [r5], -pc, lsr #10
    1900:	052e6f03 	streq	r6, [lr, #-3843]!	; 0xfffff0fd
    1904:	13030619 	movwne	r0, #13849	; 0x3619
    1908:	0615054a 	ldreq	r0, [r5], -sl, asr #10
    190c:	4a2e6d03 	bmi	b9cd20 <__bss_end__+0xb91dc0>
    1910:	a0030205 	andge	r0, r3, r5, lsl #4
    1914:	0666017f 			; <UNDEFINED> instruction: 0x0666017f
    1918:	05017203 	streq	r7, [r1, #-515]	; 0xfffffdfd
    191c:	05010605 	streq	r0, [r1, #-1541]	; 0xfffff9fb
    1920:	05053604 	streq	r3, [r5, #-1540]	; 0xfffff9fc
    1924:	052e7803 	streq	r7, [lr, #-2051]!	; 0xfffff7fd
    1928:	062f0602 	strteq	r0, [pc], -r2, lsl #12
    192c:	060e0501 	streq	r0, [lr], -r1, lsl #10
    1930:	14020516 	strne	r0, [r2], #-1302	; 0xfffffaea
    1934:	06040513 			; <UNDEFINED> instruction: 0x06040513
    1938:	02054a01 	andeq	r4, r5, #4096	; 0x1000
    193c:	01780306 	cmneq	r8, r6, lsl #6
    1940:	01060505 	tsteq	r6, r5, lsl #10
    1944:	0602054a 	streq	r0, [r2], -sl, asr #10
    1948:	0501064b 	streq	r0, [r1, #-1611]	; 0xfffff9b5
    194c:	0516060e 	ldreq	r0, [r6, #-1550]	; 0xfffff9f2
    1950:	15131402 	ldrne	r1, [r3, #-1026]	; 0xfffffbfe
    1954:	010b0515 	tsteq	fp, r5, lsl r5
    1958:	11052e06 	tstne	r5, r6, lsl #28
    195c:	019e0306 	orrseq	r0, lr, r6, lsl #6
    1960:	06220501 	strteq	r0, [r2], -r1, lsl #10
    1964:	2f050501 	svccs	0x00050501
    1968:	052d2205 	streq	r2, [sp, #-517]!	; 0xfffffdfb
    196c:	052f0605 	streq	r0, [pc, #-1541]!	; 136f <__code_start__-0x6c91>
    1970:	05054b11 	streq	r4, [r5, #-2833]	; 0xfffff4ef
    1974:	039e0183 	orrseq	r0, lr, #-1073741792	; 0xc0000020
    1978:	9e012e5c 	mcrls	14, 0, r2, cr1, cr12, {2}
    197c:	03060205 	movweq	r0, #25093	; 0x6205
    1980:	2e2e7ef3 	mcrcs	14, 1, r7, cr14, cr3, {7}
    1984:	4a2c0605 	bmi	b031a0 <__bss_end__+0xaf8240>
    1988:	d8030d05 	stmdale	r3, {r0, r2, r8, sl, fp}
    198c:	04050100 	streq	r0, [r5], #-256	; 0xffffff00
    1990:	01040200 	mrseq	r0, R12_usr
    1994:	4a110306 	bmi	4425b4 <__bss_end__+0x437654>
    1998:	01040200 	mrseq	r0, R12_usr
    199c:	06110501 	ldreq	r0, [r1], -r1, lsl #10
    19a0:	059e0651 	ldreq	r0, [lr, #1617]	; 0x651
    19a4:	2e170315 	mrccs	3, 0, r0, cr7, cr5, {0}
    19a8:	1105ba01 	tstne	r5, r1, lsl #20
    19ac:	012e6903 			; <UNDEFINED> instruction: 0x012e6903
    19b0:	01002802 	tsteq	r0, r2, lsl #16
    19b4:	00008701 	andeq	r8, r0, r1, lsl #14
    19b8:	64000300 	strvs	r0, [r0], #-768	; 0xfffffd00
    19bc:	02000000 	andeq	r0, r0, #0, 0
    19c0:	0d0efb01 	vstreq	d15, [lr, #-4]
    19c4:	01010100 	mrseq	r0, (UNDEF: 17)
    19c8:	00000001 	andeq	r0, r0, r1
    19cc:	01000001 	tsteq	r0, r1
    19d0:	74732f2e 	ldrbtvc	r2, [r3], #-3886	; 0xfffff0d2
    19d4:	2d666661 	stclcs	6, cr6, [r6, #-388]!	; 0xfffffe7c
    19d8:	00637273 	rsbeq	r7, r3, r3, ror r2
    19dc:	6573552f 	ldrbvs	r5, [r3, #-1327]!	; 0xfffffad1
    19e0:	6d2f7372 	stcvs	3, cr7, [pc, #-456]!	; 1820 <__code_start__-0x67e0>
    19e4:	73656c69 	cmnvc	r5, #26880	; 0x6900
    19e8:	756f532f 	strbvc	r5, [pc, #-815]!	; 16c1 <__code_start__-0x693f>
    19ec:	2f656372 	svccs	0x00656372
    19f0:	34327363 	ldrtcc	r7, [r2], #-867	; 0xfffffc9d
    19f4:	2f786c30 	svccs	0x00786c30
    19f8:	7062696c 	rsbvc	r6, r2, ip, ror #18
    19fc:	6e692f69 	cdpvs	15, 6, cr2, cr9, cr9, {3}
    1a00:	64756c63 	ldrbtvs	r6, [r5], #-3171	; 0xfffff39d
    1a04:	63000065 	movwvs	r0, #101	; 0x65
    1a08:	6e61656c 	cdpvs	5, 6, cr6, cr1, cr12, {3}
    1a0c:	6265722d 	rsbvs	r7, r5, #-805306366	; 0xd0000002
    1a10:	2e746f6f 	cdpcs	15, 7, cr6, cr4, cr15, {3}
    1a14:	00010063 	andeq	r0, r1, r3, rrx
    1a18:	69707200 	ldmdbvs	r0!, {r9, ip, sp, lr}^
    1a1c:	0200682e 	andeq	r6, r0, #3014656	; 0x2e0000
    1a20:	05000000 	streq	r0, [r0, #-0]
    1a24:	02050019 	andeq	r0, r5, #25, 0
    1a28:	00009714 	andeq	r9, r0, r4, lsl r7
    1a2c:	13050515 	movwne	r0, #21781	; 0x5515
    1a30:	2d061905 	vstrcs.16	s2, [r6, #-10]	; <UNPREDICTABLE>
    1a34:	062f0505 	strteq	r0, [pc], -r5, lsl #10
    1a38:	024b2f67 	subeq	r2, fp, #412	; 0x19c
    1a3c:	01010006 	tsteq	r1, r6
    1a40:	00000112 	andeq	r0, r0, r2, lsl r1
    1a44:	005e0003 	subseq	r0, lr, r3
    1a48:	01020000 	mrseq	r0, (UNDEF: 2)
    1a4c:	000d0efb 	strdeq	r0, [sp], -fp
    1a50:	01010101 	tsteq	r1, r1, lsl #2
    1a54:	01000000 	mrseq	r0, (UNDEF: 0)
    1a58:	2e010000 	cdpcs	0, 0, cr0, cr1, cr0, {0}
    1a5c:	6174732f 	cmnvs	r4, pc, lsr #6
    1a60:	732d6666 			; <UNDEFINED> instruction: 0x732d6666
    1a64:	2f006372 	svccs	0x00006372
    1a68:	72657355 	rsbvc	r7, r5, #1409286145	; 0x54000001
    1a6c:	696d2f73 	stmdbvs	sp!, {r0, r1, r4, r5, r6, r8, r9, sl, fp, sp}^
    1a70:	2f73656c 	svccs	0x0073656c
    1a74:	72756f53 	rsbsvc	r6, r5, #332	; 0x14c
    1a78:	632f6563 			; <UNDEFINED> instruction: 0x632f6563
    1a7c:	30343273 	eorscc	r3, r4, r3, ror r2
    1a80:	6c2f786c 	stcvs	8, cr7, [pc], #-432	; 18d8 <__code_start__-0x6728>
    1a84:	69706269 	ldmdbvs	r0!, {r0, r3, r5, r6, r9, sp, lr}^
    1a88:	636e692f 	cmnvs	lr, #770048	; 0xbc000
    1a8c:	6564756c 	strbvs	r7, [r4, #-1388]!	; 0xfffffa94
    1a90:	73630000 	cmnvc	r3, #0, 0
    1a94:	74726174 	ldrbtvc	r6, [r2], #-372	; 0xfffffe8c
    1a98:	0100632e 	tsteq	r0, lr, lsr #6
    1a9c:	70720000 	rsbsvc	r0, r2, r0
    1aa0:	00682e69 	rsbeq	r2, r8, r9, ror #28
    1aa4:	00000002 	andeq	r0, r0, r2
    1aa8:	05001005 	streq	r1, [r0, #-5]
    1aac:	00974002 	addseq	r4, r7, r2
    1ab0:	05051500 	streq	r1, [r5, #-1280]	; 0xfffffb00
    1ab4:	13020513 	movwne	r0, #9491	; 0x2513
    1ab8:	05140505 	ldreq	r0, [r4, #-1285]	; 0xfffffafb
    1abc:	050e0610 	streq	r0, [lr, #-1552]	; 0xfffff9f0
    1ac0:	30063205 	andcc	r3, r6, r5, lsl #4
    1ac4:	0a051413 	beq	146b18 <__bss_end__+0x13bbb8>
    1ac8:	08090501 	stmdaeq	r9, {r0, r8, sl}
    1acc:	06100591 			; <UNDEFINED> instruction: 0x06100591
    1ad0:	9a0a0501 	bls	282edc <__bss_end__+0x277f7c>
    1ad4:	056a1005 	strbeq	r1, [sl, #-5]!
    1ad8:	052d060a 	streq	r0, [sp, #-1546]!	; 0xfffff9f6
    1adc:	10052f09 	andne	r2, r5, r9, lsl #30
    1ae0:	0a050106 	beq	141f00 <__bss_end__+0x136fa0>
    1ae4:	09052d06 	stmdbeq	r5, {r1, r2, r8, sl, fp, sp}
    1ae8:	061005bb 			; <UNDEFINED> instruction: 0x061005bb
    1aec:	060a0501 	streq	r0, [sl], -r1, lsl #10
    1af0:	4b090565 	blmi	24308c <__bss_end__+0x23812c>
    1af4:	01060d05 	tsteq	r6, r5, lsl #26
    1af8:	052d0a05 	streq	r0, [sp, #-2565]!	; 0xfffff5fb
    1afc:	0a052f10 	beq	14d744 <__bss_end__+0x1427e4>
    1b00:	09052d06 	stmdbeq	r5, {r1, r2, r8, sl, fp, sp}
    1b04:	060d052f 	streq	r0, [sp], -pc, lsr #10
    1b08:	2d0a0501 	cfstr32cs	mvfx0, [sl, #-4]
    1b0c:	052f1005 	streq	r1, [pc, #-5]!	; 1b0f <__code_start__-0x64f1>
    1b10:	052d060a 	streq	r0, [sp, #-1546]!	; 0xfffff9f6
    1b14:	0d052f09 	stceq	15, cr2, [r5, #-36]	; 0xffffffdc
    1b18:	0a050106 	beq	141f38 <__bss_end__+0x136fd8>
    1b1c:	2f10052d 	svccs	0x0010052d
    1b20:	2d060a05 	vstrcs	s0, [r6, #-20]	; 0xffffffec
    1b24:	052f0905 	streq	r0, [pc, #-2309]!	; 1227 <__code_start__-0x6dd9>
    1b28:	0501060d 	streq	r0, [r1, #-1549]	; 0xfffff9f3
    1b2c:	10052d0a 	andne	r2, r5, sl, lsl #26
    1b30:	060a052f 	streq	r0, [sl], -pc, lsr #10
    1b34:	1309052d 	movwne	r0, #38189	; 0x952d
    1b38:	01061005 	tsteq	r6, r5
    1b3c:	2d060a05 	vstrcs	s0, [r6, #-20]	; 0xffffffec
    1b40:	32150505 	andscc	r0, r5, #20971520	; 0x1400000
    1b44:	144a0101 	strbne	r0, [sl], #-257	; 0xfffffeff
    1b48:	052f0205 	streq	r0, [pc, #-517]!	; 194b <__code_start__-0x66b5>
    1b4c:	7303060a 	movwvc	r0, #13834	; 0x360a
    1b50:	0008022e 	andeq	r0, r8, lr, lsr #4
    1b54:	007d0101 	rsbseq	r0, sp, r1, lsl #2
    1b58:	00030000 	andeq	r0, r3, r0
    1b5c:	00000065 	andeq	r0, r0, r5, rrx
    1b60:	0efb0102 	cdpeq	1, 15, cr0, cr11, cr2, {0}
    1b64:	0101000d 	tsteq	r1, sp
    1b68:	00000101 	andeq	r0, r0, r1, lsl #2
    1b6c:	00000100 	andeq	r0, r0, r0, lsl #2
    1b70:	732f2e01 			; <UNDEFINED> instruction: 0x732f2e01
    1b74:	66666174 			; <UNDEFINED> instruction: 0x66666174
    1b78:	6372732d 	cmnvs	r2, #-1275068416	; 0xb4000000
    1b7c:	73552f00 	cmpvc	r5, #0, 30
    1b80:	2f737265 	svccs	0x00737265
    1b84:	656c696d 	strbvs	r6, [ip, #-2413]!	; 0xfffff693
    1b88:	6f532f73 	svcvs	0x00532f73
    1b8c:	65637275 	strbvs	r7, [r3, #-629]!	; 0xfffffd8b
    1b90:	3273632f 	rsbscc	r6, r3, #-1140850688	; 0xbc000000
    1b94:	786c3034 	stmdavc	ip!, {r2, r4, r5, ip, sp}^
    1b98:	62696c2f 	rsbvs	r6, r9, #12032	; 0x2f00
    1b9c:	692f6970 	stmdbvs	pc!, {r4, r5, r6, r8, fp, sp, lr}	; <UNPREDICTABLE>
    1ba0:	756c636e 	strbvc	r6, [ip, #-878]!	; 0xfffffc92
    1ba4:	00006564 	andeq	r6, r0, r4, ror #10
    1ba8:	74737563 	ldrbtvc	r7, [r3], #-1379	; 0xfffffa9d
    1bac:	6c2d6d6f 	stcvs	13, cr6, [sp], #-444	; 0xfffffe44
    1bb0:	6564616f 	strbvs	r6, [r4, #-367]!	; 0xfffffe91
    1bb4:	00632e72 	rsbeq	r2, r3, r2, ror lr
    1bb8:	72000001 	andvc	r0, r0, #1, 0
    1bbc:	682e6970 	stmdavs	lr!, {r4, r5, r6, r8, fp, sp, lr}
    1bc0:	00000200 	andeq	r0, r0, r0, lsl #4
    1bc4:	001a0500 	andseq	r0, sl, r0, lsl #10
    1bc8:	98380205 	ldmdals	r8!, {r0, r2, r9}
    1bcc:	05150000 	ldreq	r0, [r5, #-0]
    1bd0:	02021401 	andeq	r1, r2, #16777216	; 0x1000000
    1bd4:	14010100 	strne	r0, [r1], #-256	; 0xffffff00
    1bd8:	03000001 	movweq	r0, #1
    1bdc:	00005e00 	andeq	r5, r0, r0, lsl #28
    1be0:	fb010200 	blx	423ea <__bss_end__+0x3748a>
    1be4:	01000d0e 	tsteq	r0, lr, lsl #26
    1be8:	00010101 	andeq	r0, r1, r1, lsl #2
    1bec:	00010000 	andeq	r0, r1, r0
    1bf0:	2f2e0100 	svccs	0x002e0100
    1bf4:	66617473 			; <UNDEFINED> instruction: 0x66617473
    1bf8:	72732d66 	rsbsvc	r2, r3, #6528	; 0x1980
    1bfc:	552f0063 	strpl	r0, [pc, #-99]!	; 1ba1 <__code_start__-0x645f>
    1c00:	73726573 	cmnvc	r2, #482344960	; 0x1cc00000
    1c04:	6c696d2f 	stclvs	13, cr6, [r9], #-188	; 0xffffff44
    1c08:	532f7365 			; <UNDEFINED> instruction: 0x532f7365
    1c0c:	6372756f 	cmnvs	r2, #465567744	; 0x1bc00000
    1c10:	73632f65 	cmnvc	r3, #404	; 0x194
    1c14:	6c303432 	cfldrsvs	mvf3, [r0], #-200	; 0xffffff38
    1c18:	696c2f78 	stmdbvs	ip!, {r3, r4, r5, r6, r8, r9, sl, fp, sp}^
    1c1c:	2f697062 	svccs	0x00697062
    1c20:	6c636e69 	stclvs	14, cr6, [r3], #-420	; 0xfffffe5c
    1c24:	00656475 	rsbeq	r6, r5, r5, ror r4
    1c28:	62657200 	rsbvs	r7, r5, #0, 4
    1c2c:	2e746f6f 	cdpcs	15, 7, cr6, cr4, cr15, {3}
    1c30:	00010063 	andeq	r0, r1, r3, rrx
    1c34:	69707200 	ldmdbvs	r0!, {r9, ip, sp, lr}^
    1c38:	0200682e 	andeq	r6, r0, #3014656	; 0x2e0000
    1c3c:	05000000 	streq	r0, [r0, #-0]
    1c40:	02050019 	andeq	r0, r5, #25, 0
    1c44:	0000983c 	andeq	r9, r0, ip, lsr r8
    1c48:	05010d03 	streq	r0, [r1, #-3331]	; 0xfffff2fd
    1c4c:	31131305 	tstcc	r3, r5, lsl #6
    1c50:	01061305 	tsteq	r6, r5, lsl #6
    1c54:	052f0105 	streq	r0, [pc, #-261]!	; 1b57 <__code_start__-0x64a9>
    1c58:	0585061b 	streq	r0, [r5, #1563]	; 0x61b
    1c5c:	05141305 	ldreq	r1, [r4, #-773]	; 0xfffffcfb
    1c60:	16052f09 	strne	r2, [r5], -r9, lsl #30
    1c64:	05050106 	streq	r0, [r5, #-262]	; 0xfffffefa
    1c68:	0e052f06 	cdpeq	15, 0, cr2, cr5, cr6, {0}
    1c6c:	05051106 	streq	r1, [r5, #-262]	; 0xfffffefa
    1c70:	2f01052f 	svccs	0x0001052f
    1c74:	30061705 	andcc	r1, r6, r5, lsl #14
    1c78:	03130505 	tsteq	r3, #20971520	; 0x1400000
    1c7c:	1313016e 	tstne	r3, #-2147483621	; 0x8000001b
    1c80:	03061705 	movweq	r1, #26373	; 0x6705
    1c84:	0505010f 	streq	r0, [r5, #-271]	; 0xfffffef1
    1c88:	062e7103 	strteq	r7, [lr], -r3, lsl #2
    1c8c:	06130531 			; <UNDEFINED> instruction: 0x06130531
    1c90:	03070501 	movweq	r0, #29953	; 0x7501
    1c94:	09052e0d 	stmdbeq	r5, {r0, r2, r3, r9, sl, fp, sp}
    1c98:	06054b06 	streq	r4, [r5], -r6, lsl #22
    1c9c:	05017603 	streq	r7, [r1, #-1539]	; 0xfffff9fd
    1ca0:	05141305 	ldreq	r1, [r4, #-773]	; 0xfffffcfb
    1ca4:	16052f09 	strne	r2, [r5], -r9, lsl #30
    1ca8:	05050106 	streq	r0, [r5, #-262]	; 0xfffffefa
    1cac:	0e052f06 	cdpeq	15, 0, cr2, cr5, cr6, {0}
    1cb0:	05051106 	streq	r1, [r5, #-262]	; 0xfffffefa
    1cb4:	03062e2f 	movweq	r2, #28207	; 0x6e2f
    1cb8:	2f30010a 	svccs	0x0030010a
    1cbc:	1313134d 	tstne	r3, #872415233	; 0x34000001
    1cc0:	02006715 	andeq	r6, r0, #5505024	; 0x540000
    1cc4:	05670104 	strbeq	r0, [r7, #-260]!	; 0xfffffefc
    1cc8:	0402000d 	streq	r0, [r2], #-13
    1ccc:	0a050101 	beq	1420d8 <__bss_end__+0x137178>
    1cd0:	01040200 	mrseq	r0, R12_usr
    1cd4:	00050501 	andeq	r0, r5, r1, lsl #10
    1cd8:	01010402 	tsteq	r1, r2, lsl #8
    1cdc:	02000d05 	andeq	r0, r0, #320	; 0x140
    1ce0:	05010104 	streq	r0, [r1, #-260]	; 0xfffffefc
    1ce4:	0402000a 	streq	r0, [r2], #-10
    1ce8:	0a020101 	beq	820f4 <__bss_end__+0x77194>
    1cec:	fa010100 	blx	420f4 <__bss_end__+0x37194>
    1cf0:	03000001 	movweq	r0, #1
    1cf4:	00005d00 	andeq	r5, r0, r0, lsl #26
    1cf8:	fb010200 	blx	42502 <__bss_end__+0x375a2>
    1cfc:	01000d0e 	tsteq	r0, lr, lsl #26
    1d00:	00010101 	andeq	r0, r1, r1, lsl #2
    1d04:	00010000 	andeq	r0, r1, r0
    1d08:	2f2e0100 	svccs	0x002e0100
    1d0c:	66617473 			; <UNDEFINED> instruction: 0x66617473
    1d10:	72732d66 	rsbsvc	r2, r3, #6528	; 0x1980
    1d14:	552f0063 	strpl	r0, [pc, #-99]!	; 1cb9 <__code_start__-0x6347>
    1d18:	73726573 	cmnvc	r2, #482344960	; 0x1cc00000
    1d1c:	6c696d2f 	stclvs	13, cr6, [r9], #-188	; 0xffffff44
    1d20:	532f7365 			; <UNDEFINED> instruction: 0x532f7365
    1d24:	6372756f 	cmnvs	r2, #465567744	; 0x1bc00000
    1d28:	73632f65 	cmnvc	r3, #404	; 0x194
    1d2c:	6c303432 	cfldrsvs	mvf3, [r0], #-200	; 0xffffff38
    1d30:	696c2f78 	stmdbvs	ip!, {r3, r4, r5, r6, r8, r9, sl, fp, sp}^
    1d34:	2f697062 	svccs	0x00697062
    1d38:	6c636e69 	stclvs	14, cr6, [r3], #-420	; 0xfffffe5c
    1d3c:	00656475 	rsbeq	r6, r5, r5, ror r4
    1d40:	6d697400 	cfstrdvs	mvd7, [r9, #-0]
    1d44:	632e7265 			; <UNDEFINED> instruction: 0x632e7265
    1d48:	00000100 	andeq	r0, r0, r0, lsl #2
    1d4c:	2e697072 	mcrcs	0, 3, r7, cr9, cr2, {3}
    1d50:	00020068 	andeq	r0, r2, r8, rrx
    1d54:	23050000 	movwcs	r0, #20480	; 0x5000
    1d58:	c8020500 	stmdagt	r2, {r8, sl}
    1d5c:	15000098 	strne	r0, [r0, #-152]	; 0xffffff68
    1d60:	05130505 	ldreq	r0, [r3, #-1285]	; 0xfffffafb
    1d64:	0501060c 	streq	r0, [r1, #-1548]	; 0xfffff9f4
    1d68:	056a061f 	strbeq	r0, [sl, #-1567]!	; 0xfffff9e1
    1d6c:	1f051505 	svcne	0x00051505
    1d70:	05050f06 	streq	r0, [r5, #-3846]	; 0xfffff0fa
    1d74:	052f0631 	streq	r0, [pc, #-1585]!	; 174b <__code_start__-0x68b5>
    1d78:	0177030a 	cmneq	r7, sl, lsl #6
    1d7c:	05130505 	ldreq	r0, [r3, #-1285]	; 0xfffffafb
    1d80:	6601060c 	strvs	r0, [r1], -ip, lsl #12
    1d84:	03060505 	movweq	r0, #25861	; 0x6505
    1d88:	052f0109 	streq	r0, [pc, #-265]!	; 1c87 <__code_start__-0x6379>
    1d8c:	05130601 	ldreq	r0, [r3, #-1537]	; 0xfffff9ff
    1d90:	0568061c 	strbeq	r0, [r8, #-1564]!	; 0xfffff9e4
    1d94:	0a051305 	beq	1469b0 <__bss_end__+0x13ba50>
    1d98:	05017603 	streq	r7, [r1, #-1539]	; 0xfffff9fd
    1d9c:	1c051505 	cfstr32ne	mvfx1, [r5], {5}
    1da0:	052e1806 	streq	r1, [lr, #-2054]!	; 0xfffff7fa
    1da4:	2e7a0305 	cdpcs	3, 7, cr0, cr10, cr5, {0}
    1da8:	0a052f06 	beq	14d9c8 <__bss_end__+0x142a68>
    1dac:	05017703 	streq	r7, [r1, #-1795]	; 0xfffff8fd
    1db0:	0c051305 	stceq	3, cr1, [r5], {5}
    1db4:	05660106 	strbeq	r0, [r6, #-262]!	; 0xfffffefa
    1db8:	09030605 	stmdbeq	r3, {r0, r2, r9, sl}
    1dbc:	01062f01 	tsteq	r6, r1, lsl #30
    1dc0:	76030c05 	strvc	r0, [r3], -r5, lsl #24
    1dc4:	06050501 	streq	r0, [r5], -r1, lsl #10
    1dc8:	052e0f03 	streq	r0, [lr, #-3843]!	; 0xfffff0fd
    1dcc:	0a051309 	beq	1469f8 <__bss_end__+0x13ba98>
    1dd0:	05017403 	streq	r7, [r1, #-1027]	; 0xfffffbfd
    1dd4:	052f1505 	streq	r1, [pc, #-1285]!	; 18d7 <__code_start__-0x6729>
    1dd8:	0177030a 	cmneq	r7, sl, lsl #6
    1ddc:	05130505 	ldreq	r0, [r3, #-1285]	; 0xfffffafb
    1de0:	6601060c 	strvs	r0, [r1], -ip, lsl #12
    1de4:	03060505 	movweq	r0, #25861	; 0x6505
    1de8:	11050109 	tstne	r5, r9, lsl #2
    1dec:	05051a06 	streq	r1, [r5, #-2566]	; 0xfffff5fa
    1df0:	062e7803 	strteq	r7, [lr], -r3, lsl #16
    1df4:	1909052f 	stmdbne	r9, {r0, r1, r2, r3, r5, r8, sl}
    1df8:	01060c05 	tsteq	r6, r5, lsl #24
    1dfc:	87061c05 	strhi	r1, [r6, -r5, lsl #24]
    1e00:	05130505 	ldreq	r0, [r3, #-1285]	; 0xfffffafb
    1e04:	0511061c 	ldreq	r0, [r1, #-1564]	; 0xfffff9e4
    1e08:	054a2f05 	strbeq	r2, [sl, #-3845]	; 0xfffff0fb
    1e0c:	76030606 	strvc	r0, [r3], -r6, lsl #12
    1e10:	1305052e 	movwne	r0, #21806	; 0x552e
    1e14:	76030a05 	strvc	r0, [r3], -r5, lsl #20
    1e18:	15050501 	strne	r0, [r5, #-1281]	; 0xfffffaff
    1e1c:	030a052f 	movweq	r0, #42287	; 0xa52f
    1e20:	05050177 	streq	r0, [r5, #-375]	; 0xfffffe89
    1e24:	060c0513 			; <UNDEFINED> instruction: 0x060c0513
    1e28:	05056601 	streq	r6, [r5, #-1537]	; 0xfffff9ff
    1e2c:	01090306 	tsteq	r9, r6, lsl #6
    1e30:	0501062f 	streq	r0, [r1, #-1583]	; 0xfffff9d1
    1e34:	0176030c 	cmneq	r6, ip, lsl #6
    1e38:	03060505 	movweq	r0, #25861	; 0x6505
    1e3c:	09052e0f 	stmdbeq	r5, {r0, r1, r2, r3, r9, sl, fp, sp}
    1e40:	030a0513 	movweq	r0, #42259	; 0xa513
    1e44:	05050174 	streq	r0, [r5, #-372]	; 0xfffffe8c
    1e48:	0a052f15 	beq	14daa4 <__bss_end__+0x142b44>
    1e4c:	05017703 	streq	r7, [r1, #-1795]	; 0xfffff8fd
    1e50:	0c051305 	stceq	3, cr1, [r5], {5}
    1e54:	05660106 	strbeq	r0, [r6, #-262]!	; 0xfffffefa
    1e58:	09030605 	stmdbeq	r3, {r0, r2, r9, sl}
    1e5c:	06110501 	ldreq	r0, [r1], -r1, lsl #10
    1e60:	0305051a 	movweq	r0, #21786	; 0x551a
    1e64:	2f062e78 	svccs	0x00062e78
    1e68:	05190905 	ldreq	r0, [r9, #-2309]	; 0xfffff6fb
    1e6c:	0501060c 	streq	r0, [r1, #-1548]	; 0xfffff9f4
    1e70:	058a061e 	streq	r0, [sl, #1566]	; 0x61e
    1e74:	06051305 	streq	r1, [r5], -r5, lsl #6
    1e78:	1305050e 	movwne	r0, #21774	; 0x550e
    1e7c:	14061e05 	strne	r1, [r6], #-3589	; 0xfffff1fb
    1e80:	662c0505 	strtvs	r0, [ip], -r5, lsl #10
    1e84:	03060605 	movweq	r0, #26117	; 0x6605
    1e88:	05052e76 	streq	r2, [r5, #-3702]	; 0xfffff18a
    1e8c:	030a0513 	movweq	r0, #42259	; 0xa513
    1e90:	05050176 	streq	r0, [r5, #-374]	; 0xfffffe8a
    1e94:	0a052f15 	beq	14daf0 <__bss_end__+0x142b90>
    1e98:	05017703 	streq	r7, [r1, #-1795]	; 0xfffff8fd
    1e9c:	0c051305 	stceq	3, cr1, [r5], {5}
    1ea0:	05660106 	strbeq	r0, [r6, #-262]!	; 0xfffffefa
    1ea4:	09030605 	stmdbeq	r3, {r0, r2, r9, sl}
    1ea8:	01062f01 	tsteq	r6, r1, lsl #30
    1eac:	76030c05 	strvc	r0, [r3], -r5, lsl #24
    1eb0:	06050501 	streq	r0, [r5], -r1, lsl #10
    1eb4:	052e0f03 	streq	r0, [lr, #-3843]!	; 0xfffff0fd
    1eb8:	0a051309 	beq	146ae4 <__bss_end__+0x13bb84>
    1ebc:	05017403 	streq	r7, [r1, #-1027]	; 0xfffffbfd
    1ec0:	052f1505 	streq	r1, [pc, #-1285]!	; 19c3 <__code_start__-0x663d>
    1ec4:	0177030a 	cmneq	r7, sl, lsl #6
    1ec8:	05130505 	ldreq	r0, [r3, #-1285]	; 0xfffffafb
    1ecc:	6601060c 	strvs	r0, [r1], -ip, lsl #12
    1ed0:	03060505 	movweq	r0, #25861	; 0x6505
    1ed4:	11050109 	tstne	r5, r9, lsl #2
    1ed8:	05051a06 	streq	r1, [r5, #-2566]	; 0xfffff5fa
    1edc:	062e7803 	strteq	r7, [lr], -r3, lsl #16
    1ee0:	1909052f 	stmdbne	r9, {r0, r1, r2, r3, r5, r8, sl}
    1ee4:	01060c05 	tsteq	r6, r5, lsl #24
    1ee8:	01000802 	tsteq	r0, r2, lsl #16
    1eec:	00020401 	andeq	r0, r2, r1, lsl #8
    1ef0:	c8000300 	stmdagt	r0, {r8, r9}
    1ef4:	02000000 	andeq	r0, r0, #0, 0
    1ef8:	0d0efb01 	vstreq	d15, [lr, #-4]
    1efc:	01010100 	mrseq	r0, (UNDEF: 17)
    1f00:	00000001 	andeq	r0, r0, r1
    1f04:	01000001 	tsteq	r0, r1
    1f08:	6d6f682f 	stclvs	8, cr6, [pc, #-188]!	; 1e54 <__code_start__-0x61ac>
    1f0c:	6e652f65 	cdpvs	15, 6, cr2, cr5, cr5, {3}
    1f10:	72656c67 	rsbvc	r6, r5, #26368	; 0x6700
    1f14:	616c632f 	cmnvs	ip, pc, lsr #6
    1f18:	632f7373 			; <UNDEFINED> instruction: 0x632f7373
    1f1c:	30343173 	eorscc	r3, r4, r3, ror r1
    1f20:	32322d65 	eorscc	r2, r2, #6464	; 0x1940
    1f24:	2f6e6977 	svccs	0x006e6977
    1f28:	62696c2f 	rsbvs	r6, r9, #12032	; 0x2f00
    1f2c:	692f6970 	stmdbvs	pc!, {r4, r5, r6, r8, fp, sp, lr}	; <UNPREDICTABLE>
    1f30:	756c636e 	strbvc	r6, [ip, #-878]!	; 0xfffffc92
    1f34:	2f006564 	svccs	0x00006564
    1f38:	2f727375 	svccs	0x00727375
    1f3c:	72616873 	rsbvc	r6, r1, #7536640	; 0x730000
    1f40:	63672f65 	cmnvs	r7, #404	; 0x194
    1f44:	72612d63 	rsbvc	r2, r1, #6336	; 0x18c0
    1f48:	6f6e2d6d 	svcvs	0x006e2d6d
    1f4c:	652d656e 	strvs	r6, [sp, #-1390]!	; 0xfffffa92
    1f50:	2d696261 	sfmcs	f6, 2, [r9, #-388]!	; 0xfffffe7c
    1f54:	332e3031 			; <UNDEFINED> instruction: 0x332e3031
    1f58:	3230322d 	eorscc	r3, r0, #-805306366	; 0xd0000002
    1f5c:	30312e31 	eorscc	r2, r1, r1, lsr lr
    1f60:	62696c2f 	rsbvs	r6, r9, #12032	; 0x2f00
    1f64:	6363672f 	cmnvs	r3, #12320768	; 0xbc0000
    1f68:	6d72612f 	ldfvse	f6, [r2, #-188]!	; 0xffffff44
    1f6c:	6e6f6e2d 	cdpvs	14, 6, cr6, cr15, cr13, {1}
    1f70:	61652d65 	cmnvs	r5, r5, ror #26
    1f74:	312f6962 			; <UNDEFINED> instruction: 0x312f6962
    1f78:	2e332e30 	mrccs	14, 1, r2, cr3, cr0, {1}
    1f7c:	6e692f31 	mcrvs	15, 3, r2, cr9, cr1, {1}
    1f80:	64756c63 	ldrbtvs	r6, [r5], #-3171	; 0xfffff39d
    1f84:	75000065 	strvc	r0, [r0, #-101]	; 0xffffff9b
    1f88:	2e747261 	cdpcs	2, 7, cr7, cr4, cr1, {3}
    1f8c:	00000063 	andeq	r0, r0, r3, rrx
    1f90:	72617500 	rsbvc	r7, r1, #0, 10
    1f94:	00682e74 	rsbeq	r2, r8, r4, ror lr
    1f98:	72000001 	andvc	r0, r0, #1, 0
    1f9c:	682e6970 	stmdavs	lr!, {r4, r5, r6, r8, fp, sp, lr}
    1fa0:	00000100 	andeq	r0, r0, r0, lsl #2
    1fa4:	6f697067 	svcvs	0x00697067
    1fa8:	0100682e 	tsteq	r0, lr, lsr #16
    1fac:	74730000 	ldrbtvc	r0, [r3], #-0
    1fb0:	746e6964 	strbtvc	r6, [lr], #-2404	; 0xfffff69c
    1fb4:	6363672d 	cmnvs	r3, #11796480	; 0xb40000
    1fb8:	0200682e 	andeq	r6, r0, #3014656	; 0x2e0000
    1fbc:	05000000 	streq	r0, [r0, #-0]
    1fc0:	02050039 	andeq	r0, r5, #57, 0	; 0x39
    1fc4:	000099e4 	andeq	r9, r0, r4, ror #19
    1fc8:	06013003 	streq	r3, [r1], -r3
    1fcc:	06050501 	streq	r0, [r5], -r1, lsl #10
    1fd0:	06110567 	ldreq	r0, [r1], -r7, ror #10
    1fd4:	2e050501 	cfsh32cs	mvfx0, mvfx5, #1
    1fd8:	05670105 	strbeq	r0, [r7, #-261]!	; 0xfffffefb
    1fdc:	06290638 			; <UNDEFINED> instruction: 0x06290638
    1fe0:	06050501 	streq	r0, [r5], -r1, lsl #10
    1fe4:	06110567 	ldreq	r0, [r1], -r7, ror #10
    1fe8:	2e050501 	cfsh32cs	mvfx0, mvfx5, #1
    1fec:	05670105 	strbeq	r0, [r7, #-261]!	; 0xfffffefb
    1ff0:	15030616 	strne	r0, [r3, #-1558]	; 0xfffff9ea
    1ff4:	3505052e 	strcc	r0, [r5, #-1326]	; 0xfffffad2
    1ff8:	68356867 	ldmdavs	r5!, {r0, r1, r2, r5, r6, fp, sp, lr}
    1ffc:	852e0c03 	strhi	r0, [lr, #-3075]!	; 0xfffff3fd
    2000:	0369696b 	cmneq	r9, #1753088	; 0x1ac000
    2004:	6b13660c 	blvs	4db83c <__bss_end__+0x4d08dc>
    2008:	06010567 	streq	r0, [r1], -r7, ror #10
    200c:	0619052f 	ldreq	r0, [r9], -pc, lsr #10
    2010:	05052508 	streq	r2, [r5, #-1288]	; 0xfffffaf8
    2014:	060d0534 			; <UNDEFINED> instruction: 0x060d0534
    2018:	4c010501 	cfstr32mi	mvfx0, [r1], {1}
    201c:	67061905 	strvs	r1, [r6, -r5, lsl #18]
    2020:	05360505 	ldreq	r0, [r6, #-1285]!	; 0xfffffafb
    2024:	0501060d 	streq	r0, [r1, #-1549]	; 0xfffff9f3
    2028:	01054a28 	tsteq	r5, r8, lsr #20
    202c:	06150530 			; <UNDEFINED> instruction: 0x06150530
    2030:	2f050587 	svccs	0x00050587
    2034:	0009052f 	andeq	r0, r9, pc, lsr #10
    2038:	13010402 	movwne	r0, #5122	; 0x1402
    203c:	02000a05 	andeq	r0, r0, #20480	; 0x5000
    2040:	05110104 	ldreq	r0, [r1, #-260]	; 0xfffffefc
    2044:	0402000c 	streq	r0, [r2], #-12
    2048:	05010601 	streq	r0, [r1, #-1537]	; 0xfffff9ff
    204c:	0402000a 	streq	r0, [r2], #-10
    2050:	05052e01 	streq	r2, [r5, #-3585]	; 0xfffff1ff
    2054:	0e054c06 	cdpeq	12, 0, cr4, cr5, cr6, {0}
    2058:	09050106 	stmdbeq	r5, {r1, r2, r8}
    205c:	0605054a 	streq	r0, [r5], -sl, asr #10
    2060:	01052f2f 	tsteq	r5, pc, lsr #30
    2064:	1c051306 	stcne	3, cr1, [r5], {6}
    2068:	01066706 	tsteq	r6, r6, lsl #14
    206c:	4b060505 	blmi	183488 <__bss_end__+0x178528>
    2070:	0009052f 	andeq	r0, r9, pc, lsr #10
    2074:	13010402 	movwne	r0, #5122	; 0x1402
    2078:	02000a05 	andeq	r0, r0, #20480	; 0x5000
    207c:	05110104 	ldreq	r0, [r1, #-260]	; 0xfffffefc
    2080:	0402000c 	streq	r0, [r2], #-12
    2084:	05010601 	streq	r0, [r1, #-1537]	; 0xfffff9ff
    2088:	0402000a 	streq	r0, [r2], #-10
    208c:	05052e01 	streq	r2, [r5, #-3585]	; 0xfffff1ff
    2090:	05674c06 	strbeq	r4, [r7, #-3078]!	; 0xfffff3fa
    2094:	052f0601 	streq	r0, [pc, #-1537]!	; 1a9b <__code_start__-0x6565>
    2098:	054c0619 	strbeq	r0, [ip, #-1561]	; 0xfffff9e7
    209c:	2a052e1b 	bcs	14d910 <__bss_end__+0x1429b0>
    20a0:	0631052e 	ldrteq	r0, [r1], -lr, lsr #10
    20a4:	2e420501 	cdpcs	5, 4, cr0, cr2, cr1, {0}
    20a8:	31061c05 	tstcc	r6, r5, lsl #24
    20ac:	032f0505 			; <UNDEFINED> instruction: 0x032f0505
    20b0:	0e052e09 	cdpeq	14, 0, cr2, cr5, cr9, {0}
    20b4:	21050106 	tstcs	r5, r6, lsl #2
    20b8:	0301054a 	movweq	r0, #5450	; 0x154a
    20bc:	1a052e0a 	bne	14d8ec <__bss_end__+0x14298c>
    20c0:	09056806 	stmdbeq	r5, {r1, r2, fp, sp, lr}
    20c4:	01040200 	mrseq	r0, R12_usr
    20c8:	000a0530 	andeq	r0, sl, r0, lsr r5
    20cc:	11010402 	tstne	r1, r2, lsl #8
    20d0:	02000c05 	andeq	r0, r0, #1280	; 0x500
    20d4:	01060104 	tsteq	r6, r4, lsl #2
    20d8:	02000a05 	andeq	r0, r0, #20480	; 0x5000
    20dc:	052e0104 	streq	r0, [lr, #-260]!	; 0xfffffefc
    20e0:	e8030619 	stmda	r3, {r0, r3, r4, r9, sl}
    20e4:	0505667e 	streq	r6, [r5, #-1662]	; 0xfffff982
    20e8:	672f2f2f 	strvs	r2, [pc, -pc, lsr #30]!
    20ec:	2f060105 	svccs	0x00060105
    20f0:	01000402 	tsteq	r0, r2, lsl #8
    20f4:	00039201 	andeq	r9, r3, r1, lsl #4
    20f8:	b7000300 	strlt	r0, [r0, -r0, lsl #6]
    20fc:	02000000 	andeq	r0, r0, #0, 0
    2100:	0d0efb01 	vstreq	d15, [lr, #-4]
    2104:	01010100 	mrseq	r0, (UNDEF: 17)
    2108:	00000001 	andeq	r0, r0, r1
    210c:	01000001 	tsteq	r0, r1
    2110:	6d6f682f 	stclvs	8, cr6, [pc, #-188]!	; 205c <__code_start__-0x5fa4>
    2114:	6e652f65 	cdpvs	15, 6, cr2, cr5, cr5, {3}
    2118:	72656c67 	rsbvc	r6, r5, #26368	; 0x6700
    211c:	616c632f 	cmnvs	ip, pc, lsr #6
    2120:	632f7373 			; <UNDEFINED> instruction: 0x632f7373
    2124:	30343173 	eorscc	r3, r4, r3, ror r1
    2128:	32322d65 	eorscc	r2, r2, #6464	; 0x1940
    212c:	2f6e6977 	svccs	0x006e6977
    2130:	62696c2f 	rsbvs	r6, r9, #12032	; 0x2f00
    2134:	692f6970 	stmdbvs	pc!, {r4, r5, r6, r8, fp, sp, lr}	; <UNPREDICTABLE>
    2138:	756c636e 	strbvc	r6, [ip, #-878]!	; 0xfffffc92
    213c:	2f006564 	svccs	0x00006564
    2140:	2f727375 	svccs	0x00727375
    2144:	72616873 	rsbvc	r6, r1, #7536640	; 0x730000
    2148:	63672f65 	cmnvs	r7, #404	; 0x194
    214c:	72612d63 	rsbvc	r2, r1, #6336	; 0x18c0
    2150:	6f6e2d6d 	svcvs	0x006e2d6d
    2154:	652d656e 	strvs	r6, [sp, #-1390]!	; 0xfffffa92
    2158:	2d696261 	sfmcs	f6, 2, [r9, #-388]!	; 0xfffffe7c
    215c:	332e3031 			; <UNDEFINED> instruction: 0x332e3031
    2160:	3230322d 	eorscc	r3, r0, #-805306366	; 0xd0000002
    2164:	30312e31 	eorscc	r2, r1, r1, lsr lr
    2168:	62696c2f 	rsbvs	r6, r9, #12032	; 0x2f00
    216c:	6363672f 	cmnvs	r3, #12320768	; 0xbc0000
    2170:	6d72612f 	ldfvse	f6, [r2, #-188]!	; 0xffffff44
    2174:	6e6f6e2d 	cdpvs	14, 6, cr6, cr15, cr13, {1}
    2178:	61652d65 	cmnvs	r5, r5, ror #26
    217c:	312f6962 			; <UNDEFINED> instruction: 0x312f6962
    2180:	2e332e30 	mrccs	14, 1, r2, cr3, cr0, {1}
    2184:	6e692f31 	mcrvs	15, 3, r2, cr9, cr1, {1}
    2188:	64756c63 	ldrbtvs	r6, [r5], #-3171	; 0xfffff39d
    218c:	6b000065 	blvs	2328 <__code_start__-0x5cd8>
    2190:	6c6c616d 	stfvse	f6, [ip], #-436	; 0xfffffe4c
    2194:	632e636f 			; <UNDEFINED> instruction: 0x632e636f
    2198:	00000000 	andeq	r0, r0, r0
    219c:	2e697072 	mcrcs	0, 3, r7, cr9, cr2, {3}
    21a0:	00010068 	andeq	r0, r1, r8, rrx
    21a4:	64747300 	ldrbtvs	r7, [r4], #-768	; 0xfffffd00
    21a8:	2d746e69 	ldclcs	14, cr6, [r4, #-420]!	; 0xfffffe5c
    21ac:	2e636367 	cdpcs	3, 6, cr6, cr3, cr7, {3}
    21b0:	00020068 	andeq	r0, r2, r8, rrx
    21b4:	1e050000 	cdpne	0, 0, cr0, cr5, cr0, {0}
    21b8:	d4020500 	strle	r0, [r2], #-1280	; 0xfffffb00
    21bc:	0300009b 	movweq	r0, #155	; 0x9b
    21c0:	20050127 	andcs	r0, r5, r7, lsr #2
    21c4:	062d0501 	strteq	r0, [sp], -r1, lsl #10
    21c8:	06200501 	strteq	r0, [r0], -r1, lsl #10
    21cc:	01220583 	smlawbeq	r2, r3, r5, r0
    21d0:	01063505 	tsteq	r6, r5, lsl #10
    21d4:	83061e05 	movwhi	r1, #28165	; 0x6e05
    21d8:	05012005 	streq	r2, [r1, #-5]
    21dc:	0501062d 	streq	r0, [r1, #-1581]	; 0xfffff9d3
    21e0:	06850642 	streq	r0, [r5], r2, asr #12
    21e4:	06050501 	streq	r0, [r5], -r1, lsl #10
    21e8:	0601144b 	streq	r1, [r1], -fp, asr #8
    21ec:	0402002e 	streq	r0, [r2], #-46	; 0xffffffd2
    21f0:	002e0602 	eoreq	r0, lr, r2, lsl #12
    21f4:	01020402 	tsteq	r2, r2, lsl #8
    21f8:	02040200 	andeq	r0, r4, #0, 4
    21fc:	000d0515 	andeq	r0, sp, r5, lsl r5
    2200:	06020402 	streq	r0, [r2], -r2, lsl #8
    2204:	00070501 	andeq	r0, r7, r1, lsl #10
    2208:	4a020402 	bmi	83218 <__bss_end__+0x782b8>
    220c:	4b060905 	blmi	184628 <__bss_end__+0x1796c8>
    2210:	05150505 	ldreq	r0, [r5, #-1285]	; 0xfffffafb
    2214:	05010617 	streq	r0, [r1, #-1559]	; 0xfffff9e9
    2218:	05054a10 	streq	r4, [r5, #-2576]	; 0xfffff5f0
    221c:	1b052f06 	blne	14de3c <__bss_end__+0x142edc>
    2220:	0e050106 	adfeqs	f0, f5, f6
    2224:	2f01052e 	svccs	0x0001052e
    2228:	02000505 	andeq	r0, r0, #20971520	; 0x1400000
    222c:	03060104 	movweq	r0, #24836	; 0x6104
    2230:	02004a77 	andeq	r4, r0, #487424	; 0x77000
    2234:	00010104 	andeq	r0, r1, r4, lsl #2
    2238:	06010402 	streq	r0, [r1], -r2, lsl #8
    223c:	0402009e 	streq	r0, [r2], #-158	; 0xffffff62
    2240:	02002e01 	andeq	r2, r0, #1, 28
    2244:	2e060104 	adfcss	f0, f6, f4
    2248:	01320905 	teqeq	r2, r5, lsl #18
    224c:	062ed606 	strteq	sp, [lr], -r6, lsl #12
    2250:	de19052e 	cfmul64le	mvdx0, mvdx9, mvdx14
    2254:	142f0505 	strtne	r0, [pc], #-1285	; 225c <__code_start__-0x5da4>
    2258:	01060805 	tsteq	r6, r5, lsl #16
    225c:	054a0705 	strbeq	r0, [sl, #-1797]	; 0xfffff8fb
    2260:	054b0609 	strbeq	r0, [fp, #-1545]	; 0xfffff9f7
    2264:	0c051305 	stceq	3, cr1, [r5], {5}
    2268:	05050106 	streq	r0, [r5, #-262]	; 0xfffffefa
    226c:	05136706 	ldreq	r6, [r3, #-1798]	; 0xfffff8fa
    2270:	05670601 	strbeq	r0, [r7, #-1537]!	; 0xfffff9ff
    2274:	012a0609 			; <UNDEFINED> instruction: 0x012a0609
    2278:	a528059e 	strge	r0, [r8, #-1438]!	; 0xfffffa62
    227c:	05050106 	streq	r0, [r5, #-262]	; 0xfffffefa
    2280:	06014b06 	streq	r4, [r1], -r6, lsl #22
    2284:	012e062e 			; <UNDEFINED> instruction: 0x012e062e
    2288:	03180513 	tsteq	r8, #79691776	; 0x4c00000
    228c:	05050147 	streq	r0, [r5, #-327]	; 0xfffffeb9
    2290:	01060113 	tsteq	r6, r3, lsl r1
    2294:	01150f06 	tsteq	r5, r6, lsl #30
    2298:	060e0513 			; <UNDEFINED> instruction: 0x060e0513
    229c:	2e160501 	cfmul32cs	mvfx0, mvfx6, mvfx1
    22a0:	0605052e 	streq	r0, [r5], -lr, lsr #10
    22a4:	05013903 	streq	r3, [r1, #-2307]	; 0xfffff6fd
    22a8:	0501060b 	streq	r0, [r1, #-1547]	; 0xfffff9f5
    22ac:	054b0605 	strbeq	r0, [fp, #-1541]	; 0xfffff9fb
    22b0:	0501060a 	streq	r0, [r1, #-1546]	; 0xfffff9f6
    22b4:	054b0605 	strbeq	r0, [fp, #-1541]	; 0xfffff9fb
    22b8:	0501060d 	streq	r0, [r1, #-1549]	; 0xfffff9f3
    22bc:	01052e07 	tsteq	r5, r7, lsl #28
    22c0:	0005054d 	andeq	r0, r5, sp, asr #10
    22c4:	06010402 	streq	r0, [r1], -r2, lsl #8
    22c8:	004a7803 	subeq	r7, sl, r3, lsl #16
    22cc:	01010402 	tsteq	r1, r2, lsl #8
    22d0:	01040200 	mrseq	r0, R12_usr
    22d4:	0200ba06 	andeq	fp, r0, #24576	; 0x6000
    22d8:	2e060104 	adfcss	f0, f6, f4
    22dc:	01340905 	teqeq	r4, r5, lsl #18
    22e0:	06668206 	strbteq	r8, [r6], -r6, lsl #4
    22e4:	db20052e 	blle	8037a4 <__bss_end__+0x7f8844>
    22e8:	05050106 	streq	r0, [r5, #-262]	; 0xfffffefa
    22ec:	00014b06 	andeq	r4, r1, r6, lsl #22
    22f0:	4a020402 	bmi	83300 <__bss_end__+0x783a0>
    22f4:	02040200 	andeq	r0, r4, #0, 4
    22f8:	04020001 	streq	r0, [r2], #-1
    22fc:	12051302 	andne	r1, r5, #134217728	; 0x8000000
    2300:	02040200 	andeq	r0, r4, #0, 4
    2304:	02000106 	andeq	r0, r0, #-2147483647	; 0x80000001
    2308:	002e0204 	eoreq	r0, lr, r4, lsl #4
    230c:	2e020402 	cdpcs	4, 0, cr0, cr2, cr2, {0}
    2310:	02000505 	andeq	r0, r0, #20971520	; 0x1400000
    2314:	2f060204 	svccs	0x00060204
    2318:	02040200 	andeq	r0, r4, #0, 4
    231c:	00010567 	andeq	r0, r1, r7, ror #10
    2320:	06020402 	streq	r0, [r2], -r2, lsl #8
    2324:	00050513 	andeq	r0, r5, r3, lsl r5
    2328:	06010402 	streq	r0, [r1], -r2, lsl #8
    232c:	04020062 	streq	r0, [r2], #-98	; 0xffffff9e
    2330:	02000101 	andeq	r0, r0, #1073741824	; 0x40000000
    2334:	ba060104 	blt	18274c <__bss_end__+0x1777ec>
    2338:	01040200 	mrseq	r0, R12_usr
    233c:	3c052e06 	stccc	14, cr2, [r5], {6}
    2340:	069e0a03 	ldreq	r0, [lr], r3, lsl #20
    2344:	06050501 	streq	r0, [r5], -r1, lsl #10
    2348:	2e06014b 	adfcssm	f0, f6, #3.0
    234c:	13012e06 	movwne	r2, #7686	; 0x1e06
    2350:	03180501 	tsteq	r8, #4194304	; 0x400000
    2354:	05017fad 	streq	r7, [r1, #-4013]	; 0xfffff053
    2358:	11051305 	tstne	r5, r5, lsl #6
    235c:	052e0106 	streq	r0, [lr, #-262]!	; 0xfffffefa
    2360:	00d20305 	sbcseq	r0, r2, r5, lsl #6
    2364:	134a0601 	movtne	r0, #42497	; 0xa601
    2368:	a3031805 	movwge	r1, #14341	; 0x3805
    236c:	0505017f 	streq	r0, [r5, #-383]	; 0xfffffe81
    2370:	06160513 			; <UNDEFINED> instruction: 0x06160513
    2374:	05054a01 	streq	r4, [r5, #-2561]	; 0xfffff5ff
    2378:	00e10306 	rsceq	r0, r1, r6, lsl #6
    237c:	06120501 	ldreq	r0, [r2], -r1, lsl #10
    2380:	06050501 	streq	r0, [r5], -r1, lsl #10
    2384:	0318054b 	tsteq	r8, #314572800	; 0x12c00000
    2388:	05017fa9 	streq	r7, [r1, #-4009]	; 0xfffff057
    238c:	05011305 	streq	r1, [r1, #-773]	; 0xfffffcfb
    2390:	05050e18 	streq	r0, [r5, #-3608]	; 0xfffff1e8
    2394:	06110513 			; <UNDEFINED> instruction: 0x06110513
    2398:	05052e01 	streq	r2, [r5, #-3585]	; 0xfffff1ff
    239c:	014a0615 	cmpeq	sl, r5, lsl r6
    23a0:	060e0513 			; <UNDEFINED> instruction: 0x060e0513
    23a4:	16052e01 	strne	r2, [r5], -r1, lsl #28
    23a8:	05052e2e 	streq	r2, [r5, #-3630]	; 0xfffff1d2
    23ac:	00d60306 	sbcseq	r0, r6, r6, lsl #6
    23b0:	18050101 	stmdane	r5, {r0, r8}
    23b4:	017f9f03 	cmneq	pc, r3, lsl #30
    23b8:	05130505 	ldreq	r0, [r3, #-1285]	; 0xfffffafb
    23bc:	2e010619 	mcrcs	6, 0, r0, cr1, cr9, {0}
    23c0:	e0030505 	and	r0, r3, r5, lsl #10
    23c4:	02000100 	andeq	r0, r0, #0
    23c8:	4a060204 	bmi	182be0 <__bss_end__+0x177c80>
    23cc:	02040200 	andeq	r0, r4, #0, 4
    23d0:	000a0514 	andeq	r0, sl, r4, lsl r5
    23d4:	06020402 	streq	r0, [r2], -r2, lsl #8
    23d8:	00050501 	andeq	r0, r5, r1, lsl #10
    23dc:	06020402 	streq	r0, [r2], -r2, lsl #8
    23e0:	000c054b 	andeq	r0, ip, fp, asr #10
    23e4:	06020402 	streq	r0, [r2], -r2, lsl #8
    23e8:	00010501 	andeq	r0, r1, r1, lsl #10
    23ec:	2f020402 	svccs	0x00020402
    23f0:	02000505 	andeq	r0, r0, #20971520	; 0x1400000
    23f4:	03060104 	movweq	r0, #24836	; 0x6104
    23f8:	02004a73 	andeq	r4, r0, #471040	; 0x73000
    23fc:	00010104 	andeq	r0, r1, r4, lsl #2
    2400:	06010402 	streq	r0, [r1], -r2, lsl #8
    2404:	0402009e 	streq	r0, [r2], #-158	; 0xffffff62
    2408:	02002e01 	andeq	r2, r0, #1, 28
    240c:	2e060104 	adfcss	f0, f6, f4
    2410:	01040200 	mrseq	r0, R12_usr
    2414:	0402002f 	streq	r0, [r2], #-47	; 0xffffffd1
    2418:	02002e01 	andeq	r2, r0, #1, 28
    241c:	03d60104 	bicseq	r0, r6, #1
    2420:	012e7fb1 			; <UNDEFINED> instruction: 0x012e7fb1
    2424:	2e2e8206 	cdpcs	2, 2, cr8, cr14, cr6, {0}
    2428:	2e062e06 	cdpcs	14, 0, cr2, cr6, cr6, {0}
    242c:	01040200 	mrseq	r0, R12_usr
    2430:	00d70306 	sbcseq	r0, r7, r6, lsl #6
    2434:	04020001 	streq	r0, [r2], #-1
    2438:	02002e01 	andeq	r2, r0, #1, 28
    243c:	05d60104 	ldrbeq	r0, [r6, #260]	; 0x104
    2440:	057b0815 	ldrbeq	r0, [fp, #-2069]!	; 0xfffff7eb
    2444:	16050117 			; <UNDEFINED> instruction: 0x16050117
    2448:	01180531 	tsteq	r8, r1, lsr r5
    244c:	01061d05 	tsteq	r6, r5, lsl #26
    2450:	05662b05 	strbeq	r2, [r6, #-2821]!	; 0xfffff4fb
    2454:	054d0619 	strbeq	r0, [sp, #-1561]	; 0xfffff9e7
    2458:	0c051305 	stceq	3, cr1, [r5], {5}
    245c:	07050106 	streq	r0, [r5, -r6, lsl #2]
    2460:	0025054a 	eoreq	r0, r5, sl, asr #10
    2464:	4a010402 	bmi	43474 <__bss_end__+0x38514>
    2468:	02001e05 	andeq	r1, r0, #80	; 0x50
    246c:	054a0104 	strbeq	r0, [sl, #-260]	; 0xfffffefc
    2470:	054b0609 	strbeq	r0, [fp, #-1545]	; 0xfffff9f7
    2474:	0a051305 	beq	147090 <__bss_end__+0x13c130>
    2478:	19050106 	stmdbne	r5, {r1, r2, r8}
    247c:	06090563 	streq	r0, [r9], -r3, ror #10
    2480:	9e06014c 	adflssm	f0, f6, #4.0
    2484:	0a022e06 	beq	8dca4 <__bss_end__+0x82d44>
    2488:	89010100 	stmdbhi	r1, {r8}
    248c:	03000002 	movweq	r0, #2
    2490:	0000c900 	andeq	ip, r0, r0, lsl #18
    2494:	fb010200 	blx	42c9e <__bss_end__+0x37d3e>
    2498:	01000d0e 	tsteq	r0, lr, lsl #26
    249c:	00010101 	andeq	r0, r1, r1, lsl #2
    24a0:	00010000 	andeq	r0, r1, r0
    24a4:	2f2e0100 	svccs	0x002e0100
    24a8:	00637273 	rsbeq	r7, r3, r3, ror r2
    24ac:	6573552f 	ldrbvs	r5, [r3, #-1327]!	; 0xfffffad1
    24b0:	6d2f7372 	stcvs	3, cr7, [pc, #-456]!	; 22f0 <__code_start__-0x5d10>
    24b4:	73656c69 	cmnvc	r5, #26880	; 0x6900
    24b8:	756f532f 	strbvc	r5, [pc, #-815]!	; 2191 <__code_start__-0x5e6f>
    24bc:	2f656372 	svccs	0x00656372
    24c0:	34327363 	ldrtcc	r7, [r2], #-867	; 0xfffffc9d
    24c4:	2f786c30 	svccs	0x00786c30
    24c8:	7062696c 	rsbvc	r6, r2, ip, ror #18
    24cc:	6e692f69 	cdpvs	15, 6, cr2, cr9, cr9, {3}
    24d0:	64756c63 	ldrbtvs	r6, [r5], #-3171	; 0xfffff39d
    24d4:	6f2f0065 	svcvs	0x002f0065
    24d8:	682f7470 	stmdavs	pc!, {r4, r5, r6, sl, ip, sp, lr}	; <UNPREDICTABLE>
    24dc:	62656d6f 	rsbvs	r6, r5, #7104	; 0x1bc0
    24e0:	2f776572 	svccs	0x00776572
    24e4:	6c6c6543 	cfstr64vs	mvdx6, [ip], #-268	; 0xfffffef4
    24e8:	612f7261 			; <UNDEFINED> instruction: 0x612f7261
    24ec:	6e2d6d72 	mcrvs	13, 1, r6, cr13, cr2, {3}
    24f0:	2d656e6f 	stclcs	14, cr6, [r5, #-444]!	; 0xfffffe44
    24f4:	69626165 	stmdbvs	r2!, {r0, r2, r5, r6, r8, sp, lr}^
    24f8:	392f392d 	stmdbcc	pc!, {r0, r2, r3, r5, r8, fp, ip, sp}	; <UNPREDICTABLE>
    24fc:	3130322d 	teqcc	r0, sp, lsr #4
    2500:	2d347139 	ldfcss	f7, [r4, #-228]!	; 0xffffff1c
    2504:	30317363 	eorscc	r7, r1, r3, ror #6
    2508:	6c2f6537 	cfstr32vs	mvfx6, [pc], #-220	; 2434 <__code_start__-0x5bcc>
    250c:	672f6269 	strvs	r6, [pc, -r9, ror #4]!
    2510:	612f6363 			; <UNDEFINED> instruction: 0x612f6363
    2514:	6e2d6d72 	mcrvs	13, 1, r6, cr13, cr2, {3}
    2518:	2d656e6f 	stclcs	14, cr6, [r5, #-444]!	; 0xfffffe44
    251c:	69626165 	stmdbvs	r2!, {r0, r2, r5, r6, r8, sp, lr}^
    2520:	322e392f 	eorcc	r3, lr, #770048	; 0xbc000
    2524:	692f312e 	stmdbvs	pc!, {r1, r2, r3, r5, r8, ip, sp}	; <UNPREDICTABLE>
    2528:	756c636e 	strbvc	r6, [ip, #-878]!	; 0xfffffc92
    252c:	00006564 	andeq	r6, r0, r4, ror #10
    2530:	6f697067 	svcvs	0x00697067
    2534:	0100632e 	tsteq	r0, lr, lsr #6
    2538:	70720000 	rsbsvc	r0, r2, r0
    253c:	00682e69 	rsbeq	r2, r8, r9, ror #28
    2540:	73000002 	movwvc	r0, #2
    2544:	6e696474 	mcrvs	4, 3, r6, cr9, cr4, {3}
    2548:	63672d74 	cmnvs	r7, #116, 26	; 0x1d00
    254c:	00682e63 	rsbeq	r2, r8, r3, ror #28
    2550:	67000003 	strvs	r0, [r0, -r3]
    2554:	2e6f6970 			; <UNDEFINED> instruction: 0x2e6f6970
    2558:	00020068 	andeq	r0, r2, r8, rrx
    255c:	38050000 	stmdacc	r5, {}	; <UNPREDICTABLE>
    2560:	84020500 	strhi	r0, [r2], #-1280	; 0xfffffb00
    2564:	0300009f 	movweq	r0, #159	; 0x9f
    2568:	05050127 	streq	r0, [r5, #-295]	; 0xfffffed9
    256c:	06070513 			; <UNDEFINED> instruction: 0x06070513
    2570:	06060501 	streq	r0, [r6], -r1, lsl #10
    2574:	15050549 	strne	r0, [r5, #-1353]	; 0xfffffab7
    2578:	01060705 	tsteq	r6, r5, lsl #14
    257c:	052b3805 	streq	r3, [fp, #-2053]!	; 0xfffff7fb
    2580:	05054d07 	streq	r4, [r5, #-3335]	; 0xfffff2f9
    2584:	18053006 	stmdane	r5, {r1, r2, ip, sp}
    2588:	1c050106 	stfnes	f0, [r5], {6}
    258c:	4a0e0567 	bmi	383b30 <__bss_end__+0x378bd0>
    2590:	052d1805 	streq	r1, [sp, #-2053]!	; 0xfffff7fb
    2594:	2f2e4d12 	svccs	0x002e4d12
    2598:	052a0e05 	streq	r0, [sl, #-3589]!	; 0xfffff1fb
    259c:	142f0605 	strtne	r0, [pc], #-1541	; 25a4 <__code_start__-0x5a5c>
    25a0:	06070513 			; <UNDEFINED> instruction: 0x06070513
    25a4:	06050501 	streq	r0, [r5], -r1, lsl #10
    25a8:	2e06132f 	cdpcs	3, 0, cr1, cr6, cr15, {1}
    25ac:	1301052e 	movwne	r0, #5422	; 0x152e
    25b0:	2e2d0505 	cfsh64cs	mvdx0, mvdx13, #5
    25b4:	00062405 	andeq	r2, r6, r5, lsl #8
    25b8:	9fe40205 	svcls	0x00e40205
    25bc:	05150000 	ldreq	r0, [r5, #-0]
    25c0:	06051305 	streq	r1, [r5], -r5, lsl #6
    25c4:	05017103 	streq	r7, [r1, #-259]	; 0xfffffefd
    25c8:	07051305 	streq	r1, [r5, -r5, lsl #6]
    25cc:	06050106 	streq	r0, [r5], -r6, lsl #2
    25d0:	05054906 	streq	r4, [r5, #-2310]	; 0xfffff6fa
    25d4:	24051415 	strcs	r1, [r5], #-1045	; 0xfffffbeb
    25d8:	01090306 	tsteq	r9, r6, lsl #6
    25dc:	77031805 	strvc	r1, [r3, -r5, lsl #16]
    25e0:	671c052e 	ldrvs	r0, [ip, -lr, lsr #10]
    25e4:	054a0e05 	strbeq	r0, [sl, #-3589]	; 0xfffff1fb
    25e8:	12052d18 	andne	r2, r5, #24, 26	; 0x600
    25ec:	052f2e4d 	streq	r2, [pc, #-3661]!	; 17a7 <__code_start__-0x6859>
    25f0:	0e052f0f 	cdpeq	15, 0, cr2, cr5, cr15, {0}
    25f4:	06050529 	streq	r0, [r5], -r9, lsr #10
    25f8:	0513142f 	ldreq	r1, [r3, #-1071]	; 0xfffffbd1
    25fc:	05010607 	streq	r0, [r1, #-1543]	; 0xfffff9f9
    2600:	132f0605 			; <UNDEFINED> instruction: 0x132f0605
    2604:	01052e06 	tsteq	r5, r6, lsl #28
    2608:	29050533 	stmdbcs	r5, {r0, r1, r4, r5, r8, sl}
    260c:	0627052e 	strteq	r0, [r7], -lr, lsr #10
    2610:	3c020500 	cfstr32cc	mvfx0, [r2], {-0}
    2614:	1a0000a0 	bne	289c <__code_start__-0x5764>
    2618:	05130505 	ldreq	r0, [r3, #-1285]	; 0xfffffafb
    261c:	05110627 	ldreq	r0, [r1, #-1575]	; 0xfffff9d9
    2620:	05052f18 	streq	r2, [r5, #-3864]	; 0xfffff0e8
    2624:	054a2e2e 	strbeq	r2, [sl, #-3630]	; 0xfffff1d2
    2628:	05000628 	streq	r0, [r0, #-1576]	; 0xfffff9d8
    262c:	00a05402 	adceq	r5, r0, r2, lsl #8
    2630:	05051600 	streq	r1, [r5, #-1536]	; 0xfffffa00
    2634:	06280513 			; <UNDEFINED> instruction: 0x06280513
    2638:	2f180511 	svccs	0x00180511
    263c:	2e2e0505 	cfsh64cs	mvdx0, mvdx14, #5
    2640:	0623054a 	strteq	r0, [r3], -sl, asr #10
    2644:	6c020500 	cfstr32vs	mvfx0, [r2], {-0}
    2648:	160000a0 	strne	r0, [r0], -r0, lsr #1
    264c:	05130505 	ldreq	r0, [r3, #-1285]	; 0xfffffafb
    2650:	01620306 	cmneq	r2, r6, lsl #6
    2654:	05130505 	ldreq	r0, [r3, #-1285]	; 0xfffffafb
    2658:	05010607 	streq	r0, [r1, #-1543]	; 0xfffff9f9
    265c:	05490606 	strbeq	r0, [r9, #-1542]	; 0xfffff9fa
    2660:	13141505 	tstne	r4, #20971520	; 0x1400000
    2664:	03062305 	movweq	r2, #25349	; 0x6305
    2668:	22050117 	andcs	r0, r5, #-1073741819	; 0xc0000005
    266c:	052e6903 	streq	r6, [lr, #-2307]!	; 0xfffff6fd
    2670:	052e821c 	streq	r8, [lr, #-540]!	; 0xfffffde4
    2674:	05052e0e 	streq	r2, [r5, #-3598]	; 0xfffff1f2
    2678:	12053006 	andne	r3, r5, #6, 0
    267c:	2d4b0106 	stfcse	f0, [fp, #-24]	; 0xffffffe8
    2680:	2f060505 	svccs	0x00060505
    2684:	18051313 	stmdane	r5, {r0, r1, r4, r8, r9, ip}
    2688:	017a0306 	cmneq	sl, r6, lsl #6
    268c:	054a0e05 	strbeq	r0, [sl, #-3589]	; 0xfffff1fb
    2690:	052e3405 	streq	r3, [lr, #-1029]!	; 0xfffffbfb
    2694:	2e140301 	cdpcs	3, 1, cr0, cr4, cr1, {0}
    2698:	6c030505 	cfstr32vs	mvfx0, [r3], {5}
    269c:	2b052e2e 	blcs	14df5c <__bss_end__+0x142ffc>
    26a0:	02050006 	andeq	r0, r5, #6, 0
    26a4:	0000a0c4 	andeq	sl, r0, r4, asr #1
    26a8:	05011703 	streq	r1, [r1, #-1795]	; 0xfffff8fd
    26ac:	07051305 	streq	r1, [r5, -r5, lsl #6]
    26b0:	18050106 	stmdane	r5, {r1, r2, r8}
    26b4:	052e7103 	streq	r7, [lr, #-259]!	; 0xfffffefd
    26b8:	2e0e032b 	cdpcs	3, 0, cr0, cr14, cr11, {1}
    26bc:	052f0705 	streq	r0, [pc, #-1797]!	; 1fbf <__code_start__-0x6041>
    26c0:	052f0609 	streq	r0, [pc, #-1545]!	; 20bf <__code_start__-0x5f41>
    26c4:	016f030d 	cmneq	pc, sp, lsl #6
    26c8:	06130505 	ldreq	r0, [r3], -r5, lsl #10
    26cc:	052e2e2e 	streq	r2, [lr, #-3630]!	; 0xfffff1d2
    26d0:	12030609 	andne	r0, r3, #9437184	; 0x900000
    26d4:	030d0501 	movweq	r0, #54529	; 0xd501
    26d8:	05050172 	streq	r0, [r5, #-370]	; 0xfffffe8e
    26dc:	2e2e0613 	mcrcs	6, 1, r0, cr14, cr3, {0}
    26e0:	03061d05 	movweq	r1, #27909	; 0x6d05
    26e4:	05056610 	streq	r6, [r5, #-1552]	; 0xfffff9f0
    26e8:	061d0513 			; <UNDEFINED> instruction: 0x061d0513
    26ec:	05052e11 	streq	r2, [r5, #-3601]	; 0xfffff1ef
    26f0:	05133006 	ldreq	r3, [r3, #-6]
    26f4:	0510060e 	ldreq	r0, [r0, #-1550]	; 0xfffff9f2
    26f8:	042e3017 	strteq	r3, [lr], #-23	; 0xffffffe9
    26fc:	06300502 	ldrteq	r0, [r0], -r2, lsl #10
    2700:	2e00dd03 	cdpcs	13, 0, cr13, cr0, cr3, {0}
    2704:	0e050104 	adfeqs	f0, f5, f4
    2708:	7fa20306 	svcvc	0x00a20306
    270c:	2f230501 	svccs	0x00230501
    2710:	022f0105 	eoreq	r0, pc, #1073741825	; 0x40000001
    2714:	01010006 	tsteq	r1, r6
    2718:	0000009e 	muleq	r0, lr, r0
    271c:	005a0003 	subseq	r0, sl, r3
    2720:	01020000 	mrseq	r0, (UNDEF: 2)
    2724:	000d0efb 	strdeq	r0, [sp], -fp
    2728:	01010101 	tsteq	r1, r1, lsl #2
    272c:	01000000 	mrseq	r0, (UNDEF: 0)
    2730:	2e010000 	cdpcs	0, 0, cr0, cr1, cr0, {0}
    2734:	62696c2f 	rsbvs	r6, r9, #12032	; 0x2f00
    2738:	552f0063 	strpl	r0, [pc, #-99]!	; 26dd <__code_start__-0x5923>
    273c:	73726573 	cmnvc	r2, #482344960	; 0x1cc00000
    2740:	6c696d2f 	stclvs	13, cr6, [r9], #-188	; 0xffffff44
    2744:	532f7365 			; <UNDEFINED> instruction: 0x532f7365
    2748:	6372756f 	cmnvs	r2, #465567744	; 0x1bc00000
    274c:	73632f65 	cmnvc	r3, #404	; 0x194
    2750:	6c303432 	cfldrsvs	mvf3, [r0], #-200	; 0xffffff38
    2754:	696c2f78 	stmdbvs	ip!, {r3, r4, r5, r6, r8, r9, sl, fp, sp}^
    2758:	2f697062 	svccs	0x00697062
    275c:	6c636e69 	stclvs	14, cr6, [r3], #-420	; 0xfffffe5c
    2760:	00656475 	rsbeq	r6, r5, r5, ror r4
    2764:	74757000 	ldrbtvc	r7, [r5], #-0
    2768:	72616863 	rsbvc	r6, r1, #6488064	; 0x630000
    276c:	0100632e 	tsteq	r0, lr, lsr #6
    2770:	70720000 	rsbsvc	r0, r2, r0
    2774:	00682e69 	rsbeq	r2, r8, r9, ror #28
    2778:	00000002 	andeq	r0, r0, r2
    277c:	05002405 	streq	r2, [r0, #-1029]	; 0xfffffbfb
    2780:	00a11c02 	adceq	r1, r1, r2, lsl #24
    2784:	26051400 	strcs	r1, [r5], -r0, lsl #8
    2788:	06240501 	strteq	r0, [r4], -r1, lsl #10
    278c:	26052e01 	strcs	r2, [r5], -r1, lsl #28
    2790:	0634052e 	ldrteq	r0, [r4], -lr, lsr #10
    2794:	0601052e 	streq	r0, [r1], -lr, lsr #10
    2798:	061b0501 	ldreq	r0, [fp], -r1, lsl #10
    279c:	1305054f 	movwne	r0, #21839	; 0x554f
    27a0:	01061105 	tsteq	r6, r5, lsl #2
    27a4:	05670105 	strbeq	r0, [r7, #-261]!	; 0xfffffefb
    27a8:	05670623 	strbeq	r0, [r7, #-1571]!	; 0xfffff9dd
    27ac:	11051305 	tstne	r5, r5, lsl #6
    27b0:	01050106 	tsteq	r5, r6, lsl #2
    27b4:	0004024b 	andeq	r0, r4, fp, asr #4
    27b8:	00e20101 	rsceq	r0, r2, r1, lsl #2
    27bc:	00030000 	andeq	r0, r3, r0
    27c0:	00000059 	andeq	r0, r0, r9, asr r0
    27c4:	0efb0102 	cdpeq	1, 15, cr0, cr11, cr2, {0}
    27c8:	0101000d 	tsteq	r1, sp
    27cc:	00000101 	andeq	r0, r0, r1, lsl #2
    27d0:	00000100 	andeq	r0, r0, r0, lsl #2
    27d4:	6c2f2e01 	stcvs	14, cr2, [pc], #-4	; 27d8 <__code_start__-0x5828>
    27d8:	00636269 	rsbeq	r6, r3, r9, ror #4
    27dc:	6573552f 	ldrbvs	r5, [r3, #-1327]!	; 0xfffffad1
    27e0:	6d2f7372 	stcvs	3, cr7, [pc, #-456]!	; 2620 <__code_start__-0x59e0>
    27e4:	73656c69 	cmnvc	r5, #26880	; 0x6900
    27e8:	756f532f 	strbvc	r5, [pc, #-815]!	; 24c1 <__code_start__-0x5b3f>
    27ec:	2f656372 	svccs	0x00656372
    27f0:	34327363 	ldrtcc	r7, [r2], #-867	; 0xfffffc9d
    27f4:	2f786c30 	svccs	0x00786c30
    27f8:	7062696c 	rsbvc	r6, r2, ip, ror #18
    27fc:	6e692f69 	cdpvs	15, 6, cr2, cr9, cr9, {3}
    2800:	64756c63 	ldrbtvs	r6, [r5], #-3171	; 0xfffff39d
    2804:	73000065 	movwvc	r0, #101	; 0x65
    2808:	61637274 	smcvs	14116	; 0x3724
    280c:	00632e74 	rsbeq	r2, r3, r4, ror lr
    2810:	72000001 	andvc	r0, r0, #1, 0
    2814:	682e6970 	stmdavs	lr!, {r4, r5, r6, r8, fp, sp, lr}
    2818:	00000200 	andeq	r0, r0, r0, lsl #4
    281c:	002c0500 	eoreq	r0, ip, r0, lsl #10
    2820:	a1580205 	cmpge	r8, r5, lsl #4
    2824:	05150000 	ldreq	r0, [r5, #-0]
    2828:	05131305 	ldreq	r1, [r3, #-773]	; 0xfffffcfb
    282c:	0511060b 	ldreq	r0, [r1, #-1547]	; 0xfffff9f5
    2830:	04020005 	streq	r0, [r2], #-5
    2834:	00300601 	eorseq	r0, r0, r1, lsl #12
    2838:	15010402 	strne	r0, [r1, #-1026]	; 0xfffffbfe
    283c:	02000905 	andeq	r0, r0, #81920	; 0x14000
    2840:	05130104 	ldreq	r0, [r3, #-260]	; 0xfffffefc
    2844:	0402000b 	streq	r0, [r2], #-11
    2848:	05052f01 	streq	r2, [r5, #-3841]	; 0xfffff0ff
    284c:	01040200 	mrseq	r0, R12_usr
    2850:	02000106 	andeq	r0, r0, #-2147483647	; 0x80000001
    2854:	062e0104 	strteq	r0, [lr], -r4, lsl #2
    2858:	0608054e 	streq	r0, [r8], -lr, asr #10
    285c:	00050501 	andeq	r0, r5, r1, lsl #10
    2860:	06010402 	streq	r0, [r1], -r2, lsl #8
    2864:	0009052f 	andeq	r0, r9, pc, lsr #10
    2868:	13010402 	movwne	r0, #5122	; 0x1402
    286c:	02000b05 	andeq	r0, r0, #5120	; 0x1400
    2870:	01060104 	tsteq	r6, r4, lsl #2
    2874:	02000905 	andeq	r0, r0, #81920	; 0x14000
    2878:	2f060104 	svccs	0x00060104
    287c:	02000505 	andeq	r0, r0, #20971520	; 0x1400000
    2880:	13060104 	movwne	r0, #24836	; 0x6104
    2884:	02000f05 	andeq	r0, r0, #5, 30
    2888:	052d0104 	streq	r0, [sp, #-260]!	; 0xfffffefc
    288c:	0402000d 	streq	r0, [r2], #-13
    2890:	052f0601 	streq	r0, [pc, #-1537]!	; 2297 <__code_start__-0x5d69>
    2894:	04020005 	streq	r0, [r2], #-5
    2898:	02010601 	andeq	r0, r1, #1048576	; 0x100000
    289c:	01010004 	tsteq	r1, r4
    28a0:	000000b2 	strheq	r0, [r0], -r2
    28a4:	00590003 	subseq	r0, r9, r3
    28a8:	01020000 	mrseq	r0, (UNDEF: 2)
    28ac:	000d0efb 	strdeq	r0, [sp], -fp
    28b0:	01010101 	tsteq	r1, r1, lsl #2
    28b4:	01000000 	mrseq	r0, (UNDEF: 0)
    28b8:	2e010000 	cdpcs	0, 0, cr0, cr1, cr0, {0}
    28bc:	62696c2f 	rsbvs	r6, r9, #12032	; 0x2f00
    28c0:	552f0063 	strpl	r0, [pc, #-99]!	; 2865 <__code_start__-0x579b>
    28c4:	73726573 	cmnvc	r2, #482344960	; 0x1cc00000
    28c8:	6c696d2f 	stclvs	13, cr6, [r9], #-188	; 0xffffff44
    28cc:	532f7365 			; <UNDEFINED> instruction: 0x532f7365
    28d0:	6372756f 	cmnvs	r2, #465567744	; 0x1bc00000
    28d4:	73632f65 	cmnvc	r3, #404	; 0x194
    28d8:	6c303432 	cfldrsvs	mvf3, [r0], #-200	; 0xffffff38
    28dc:	696c2f78 	stmdbvs	ip!, {r3, r4, r5, r6, r8, r9, sl, fp, sp}^
    28e0:	2f697062 	svccs	0x00697062
    28e4:	6c636e69 	stclvs	14, cr6, [r3], #-420	; 0xfffffe5c
    28e8:	00656475 	rsbeq	r6, r5, r5, ror r4
    28ec:	72747300 	rsbsvc	r7, r4, #0, 6
    28f0:	2e706d63 	cdpcs	13, 7, cr6, cr0, cr3, {3}
    28f4:	00010063 	andeq	r0, r1, r3, rrx
    28f8:	69707200 	ldmdbvs	r0!, {r9, ip, sp, lr}^
    28fc:	0200682e 	andeq	r6, r0, #3014656	; 0x2e0000
    2900:	05000000 	streq	r0, [r0, #-0]
    2904:	0205002a 	andeq	r0, r5, #42, 0	; 0x2a
    2908:	0000a184 	andeq	sl, r0, r4, lsl #3
    290c:	13090514 	movwne	r0, #38164	; 0x9514
    2910:	01061005 	tsteq	r6, r5
    2914:	2e060f05 	cdpcs	15, 0, cr0, cr6, cr5, {0}
    2918:	82061005 	andhi	r1, r6, #5, 0
    291c:	052e0f05 	streq	r0, [lr, #-3845]!	; 0xfffff0fb
    2920:	04020011 	streq	r0, [r2], #-17	; 0xffffffef
    2924:	054b0601 	strbeq	r0, [fp, #-1537]	; 0xfffff9ff
    2928:	0402001c 	streq	r0, [r2], #-28	; 0xffffffe4
    292c:	052d0601 	streq	r0, [sp, #-1537]!	; 0xfffff9ff
    2930:	0402000f 	streq	r0, [r2], #-15
    2934:	052e0601 	streq	r0, [lr, #-1537]!	; 0xfffff9ff
    2938:	04020013 	streq	r0, [r2], #-19	; 0xffffffed
    293c:	05010601 	streq	r0, [r1, #-1537]	; 0xfffff9ff
    2940:	054c0609 	strbeq	r0, [ip, #-1545]	; 0xfffff9f7
    2944:	4a130601 	bmi	4c4150 <__bss_end__+0x4b91f0>
    2948:	2d060905 	vstrcs.16	s0, [r6, #-10]	; <UNPREDICTABLE>
    294c:	13060105 	movwne	r0, #24837	; 0x6105
    2950:	0002022e 	andeq	r0, r2, lr, lsr #4
    2954:	009d0101 	addseq	r0, sp, r1, lsl #2
    2958:	00030000 	andeq	r0, r3, r0
    295c:	00000059 	andeq	r0, r0, r9, asr r0
    2960:	0efb0102 	cdpeq	1, 15, cr0, cr11, cr2, {0}
    2964:	0101000d 	tsteq	r1, sp
    2968:	00000101 	andeq	r0, r0, r1, lsl #2
    296c:	00000100 	andeq	r0, r0, r0, lsl #2
    2970:	6c2f2e01 	stcvs	14, cr2, [pc], #-4	; 2974 <__code_start__-0x568c>
    2974:	00636269 	rsbeq	r6, r3, r9, ror #4
    2978:	6573552f 	ldrbvs	r5, [r3, #-1327]!	; 0xfffffad1
    297c:	6d2f7372 	stcvs	3, cr7, [pc, #-456]!	; 27bc <__code_start__-0x5844>
    2980:	73656c69 	cmnvc	r5, #26880	; 0x6900
    2984:	756f532f 	strbvc	r5, [pc, #-815]!	; 265d <__code_start__-0x59a3>
    2988:	2f656372 	svccs	0x00656372
    298c:	34327363 	ldrtcc	r7, [r2], #-867	; 0xfffffc9d
    2990:	2f786c30 	svccs	0x00786c30
    2994:	7062696c 	rsbvc	r6, r2, ip, ror #18
    2998:	6e692f69 	cdpvs	15, 6, cr2, cr9, cr9, {3}
    299c:	64756c63 	ldrbtvs	r6, [r5], #-3171	; 0xfffff39d
    29a0:	73000065 	movwvc	r0, #101	; 0x65
    29a4:	70637274 	rsbvc	r7, r3, r4, ror r2
    29a8:	00632e79 	rsbeq	r2, r3, r9, ror lr
    29ac:	72000001 	andvc	r0, r0, #1, 0
    29b0:	682e6970 	stmdavs	lr!, {r4, r5, r6, r8, fp, sp, lr}
    29b4:	00000200 	andeq	r0, r0, r0, lsl #4
    29b8:	002a0500 	eoreq	r0, sl, r0, lsl #10
    29bc:	a1c80205 	bicge	r0, r8, r5, lsl #4
    29c0:	05140000 	ldreq	r0, [r4, #-0]
    29c4:	05131305 	ldreq	r1, [r3, #-773]	; 0xfffffcfb
    29c8:	04020022 	streq	r0, [r2], #-34	; 0xffffffde
    29cc:	0b052e01 	bleq	14e1d8 <__bss_end__+0x143278>
    29d0:	01040200 	mrseq	r0, R12_usr
    29d4:	00150501 	andseq	r0, r5, r1, lsl #10
    29d8:	06010402 	streq	r0, [r1], -r2, lsl #8
    29dc:	000b0501 	andeq	r0, fp, r1, lsl #10
    29e0:	2e010402 	cdpcs	4, 0, cr0, cr1, cr2, {0}
    29e4:	02001305 	andeq	r1, r0, #335544320	; 0x14000000
    29e8:	052e0104 	streq	r0, [lr, #-260]!	; 0xfffffefc
    29ec:	0402000b 	streq	r0, [r2], #-11
    29f0:	04022e01 	streq	r2, [r2], #-3585	; 0xfffff1ff
    29f4:	fd010100 	stc2	1, cr0, [r1, #-0]
    29f8:	03000000 	movweq	r0, #0
    29fc:	0000bf00 	andeq	fp, r0, r0, lsl #30
    2a00:	fb010200 	blx	4320a <__bss_end__+0x382aa>
    2a04:	01000d0e 	tsteq	r0, lr, lsl #26
    2a08:	00010101 	andeq	r0, r1, r1, lsl #2
    2a0c:	00010000 	andeq	r0, r1, r0
    2a10:	2f2e0100 	svccs	0x002e0100
    2a14:	6362696c 	cmnvs	r2, #108, 18	; 0x1b0000
    2a18:	73552f00 	cmpvc	r5, #0, 30
    2a1c:	2f737265 	svccs	0x00737265
    2a20:	656c696d 	strbvs	r6, [ip, #-2413]!	; 0xfffff693
    2a24:	6f532f73 	svcvs	0x00532f73
    2a28:	65637275 	strbvs	r7, [r3, #-629]!	; 0xfffffd8b
    2a2c:	3273632f 	rsbscc	r6, r3, #-1140850688	; 0xbc000000
    2a30:	786c3034 	stmdavc	ip!, {r2, r4, r5, ip, sp}^
    2a34:	62696c2f 	rsbvs	r6, r9, #12032	; 0x2f00
    2a38:	692f6970 	stmdbvs	pc!, {r4, r5, r6, r8, fp, sp, lr}	; <UNPREDICTABLE>
    2a3c:	756c636e 	strbvc	r6, [ip, #-878]!	; 0xfffffc92
    2a40:	2f006564 	svccs	0x00006564
    2a44:	2f74706f 	svccs	0x0074706f
    2a48:	656d6f68 	strbvs	r6, [sp, #-3944]!	; 0xfffff098
    2a4c:	77657262 	strbvc	r7, [r5, -r2, ror #4]!
    2a50:	6c65432f 	stclvs	3, cr4, [r5], #-188	; 0xffffff44
    2a54:	2f72616c 	svccs	0x0072616c
    2a58:	2d6d7261 	sfmcs	f7, 2, [sp, #-388]!	; 0xfffffe7c
    2a5c:	656e6f6e 	strbvs	r6, [lr, #-3950]!	; 0xfffff092
    2a60:	6261652d 	rsbvs	r6, r1, #188743680	; 0xb400000
    2a64:	2f392d69 	svccs	0x00392d69
    2a68:	30322d39 	eorscc	r2, r2, r9, lsr sp
    2a6c:	34713931 	ldrbtcc	r3, [r1], #-2353	; 0xfffff6cf
    2a70:	3173632d 	cmncc	r3, sp, lsr #6
    2a74:	2f653730 	svccs	0x00653730
    2a78:	2f62696c 	svccs	0x0062696c
    2a7c:	2f636367 	svccs	0x00636367
    2a80:	2d6d7261 	sfmcs	f7, 2, [sp, #-388]!	; 0xfffffe7c
    2a84:	656e6f6e 	strbvs	r6, [lr, #-3950]!	; 0xfffff092
    2a88:	6261652d 	rsbvs	r6, r1, #188743680	; 0xb400000
    2a8c:	2e392f69 	cdpcs	15, 3, cr2, cr9, cr9, {3}
    2a90:	2f312e32 	svccs	0x00312e32
    2a94:	6c636e69 	stclvs	14, cr6, [r3], #-420	; 0xfffffe5c
    2a98:	00656475 	rsbeq	r6, r5, r5, ror r4
    2a9c:	72747300 	rsbsvc	r7, r4, #0, 6
    2aa0:	706d636e 	rsbvc	r6, sp, lr, ror #6
    2aa4:	0100632e 	tsteq	r0, lr, lsr #6
    2aa8:	70720000 	rsbsvc	r0, r2, r0
    2aac:	00682e69 	rsbeq	r2, r8, r9, ror #28
    2ab0:	73000002 	movwvc	r0, #2
    2ab4:	65646474 	strbvs	r6, [r4, #-1140]!	; 0xfffffb8c
    2ab8:	00682e66 	rsbeq	r2, r8, r6, ror #28
    2abc:	00000003 	andeq	r0, r0, r3
    2ac0:	05003905 	streq	r3, [r0, #-2309]	; 0xfffff6fb
    2ac4:	00a1e002 	adceq	lr, r1, r2
    2ac8:	05051500 	streq	r1, [r5, #-1280]	; 0xfffffb00
    2acc:	0a051313 	beq	147720 <__bss_end__+0x13c7c0>
    2ad0:	0c052e06 	stceq	14, cr2, [r5], {6}
    2ad4:	2e13052f 	cfmul64cs	mvdx0, mvdx3, mvdx15
    2ad8:	052e0b05 	streq	r0, [lr, #-2821]!	; 0xfffff4fb
    2adc:	054a0609 	strbeq	r0, [sl, #-1545]	; 0xfffff9f7
    2ae0:	0106110a 	tsteq	r6, sl, lsl #2
    2ae4:	054e0c05 	strbeq	r0, [lr, #-3077]	; 0xfffff3fb
    2ae8:	0d052f01 	stceq	15, cr2, [r5, #-4]
    2aec:	1b052b06 	blne	14d70c <__bss_end__+0x1427ac>
    2af0:	022e0106 	eoreq	r0, lr, #-2147483647	; 0x80000001
    2af4:	01010002 	tsteq	r1, r2
    2af8:	0000008a 	andeq	r0, r0, sl, lsl #1
    2afc:	006e0003 	rsbeq	r0, lr, r3
    2b00:	01020000 	mrseq	r0, (UNDEF: 2)
    2b04:	000d0efb 	strdeq	r0, [sp], -fp
    2b08:	01010101 	tsteq	r1, r1, lsl #2
    2b0c:	01000000 	mrseq	r0, (UNDEF: 0)
    2b10:	2e010000 	cdpcs	0, 0, cr0, cr1, cr0, {0}
    2b14:	6174732f 	cmnvs	r4, pc, lsr #6
    2b18:	732d6666 			; <UNDEFINED> instruction: 0x732d6666
    2b1c:	2f006372 	svccs	0x00006372
    2b20:	72657355 	rsbvc	r7, r5, #1409286145	; 0x54000001
    2b24:	696d2f73 	stmdbvs	sp!, {r0, r1, r4, r5, r6, r8, r9, sl, fp, sp}^
    2b28:	2f73656c 	svccs	0x0073656c
    2b2c:	72756f53 	rsbsvc	r6, r5, #332	; 0x14c
    2b30:	632f6563 			; <UNDEFINED> instruction: 0x632f6563
    2b34:	30343273 	eorscc	r3, r4, r3, ror r2
    2b38:	6c2f786c 	stcvs	8, cr7, [pc], #-432	; 2990 <__code_start__-0x5670>
    2b3c:	69706269 	ldmdbvs	r0!, {r0, r3, r5, r6, r9, sp, lr}^
    2b40:	636e692f 	cmnvs	lr, #770048	; 0xbc000
    2b44:	6564756c 	strbvs	r7, [r4, #-1388]!	; 0xfffffa94
    2b48:	65640000 	strbvs	r0, [r4, #-0]!
    2b4c:	6c756166 	ldfvse	f6, [r5], #-408	; 0xfffffe68
    2b50:	65722d74 	ldrbvs	r2, [r2, #-3444]!	; 0xfffff28c
    2b54:	746f6f62 	strbtvc	r6, [pc], #-3938	; 2b5c <__code_start__-0x54a4>
    2b58:	6c61632d 	stclvs	3, cr6, [r1], #-180	; 0xffffff4c
    2b5c:	74756f6c 	ldrbtvc	r6, [r5], #-3948	; 0xfffff094
    2b60:	0100632e 	tsteq	r0, lr, lsr #6
    2b64:	70720000 	rsbsvc	r0, r2, r0
    2b68:	00682e69 	rsbeq	r2, r8, r9, ror #28
    2b6c:	00000002 	andeq	r0, r0, r2
    2b70:	05001b05 	streq	r1, [r0, #-2821]	; 0xfffff4fb
    2b74:	00a21002 	adceq	r1, r2, r2
    2b78:	1c051400 	cfstrsne	mvf1, [r5], {-0}
    2b7c:	06010501 	streq	r0, [r1], -r1, lsl #10
    2b80:	00020201 	andeq	r0, r2, r1, lsl #4
    2b84:	Address 0x0000000000002b84 is out of bounds.


Disassembly of section .debug_str:

00000000 <.debug_str>:
   0:	765f6b63 	ldrbvc	r6, [pc], -r3, ror #22
   4:	6f627265 	svcvs	0x00627265
   8:	705f6573 	subsvc	r6, pc, r3, ror r5	; <UNPREDICTABLE>
   c:	72646800 	rsbvc	r6, r4, #0, 16
  10:	6e00745f 	cfmvsrvs	mvf0, r7
  14:	00747865 	rsbseq	r7, r4, r5, ror #16
  18:	6c616b63 			; <UNDEFINED> instruction: 0x6c616b63
  1c:	00636f6c 	rsbeq	r6, r3, ip, ror #30
  20:	74617473 	strbtvc	r7, [r1], #-1139	; 0xfffffb8d
  24:	696c0065 	stmdbvs	ip!, {r0, r2, r5, r6}^
  28:	6f6e656e 	svcvs	0x006e656e
  2c:	5f6b6300 	svcpl	0x006b6300
  30:	646e6966 	strbtvs	r6, [lr], #-2406	; 0xfffff69a
  34:	61656c5f 	cmnvs	r5, pc, asr ip
  38:	6e00736b 	cdpvs	3, 0, cr7, cr0, cr11, {3}
  3c:	616d746f 	cmnvs	sp, pc, ror #8
  40:	6e006e69 	cdpvs	14, 0, cr6, cr0, cr9, {3}
  44:	65747962 	ldrbvs	r7, [r4, #-2402]!	; 0xfffff69e
  48:	6c615f73 	stclvs	15, cr5, [r1], #-460	; 0xfffffe34
  4c:	00636f6c 	rsbeq	r6, r3, ip, ror #30
  50:	676e6f6c 	strbvs	r6, [lr, -ip, ror #30]!
  54:	6e6f6c20 	cdpvs	12, 6, cr6, cr15, cr0, {1}
  58:	6e752067 	cdpvs	0, 7, cr2, cr5, cr7, {3}
  5c:	6e676973 			; <UNDEFINED> instruction: 0x6e676973
  60:	69206465 	stmdbvs	r0!, {r0, r2, r5, r6, sl, sp, lr}
  64:	7500746e 	strvc	r7, [r0, #-1134]	; 0xfffffb92
  68:	6769736e 	strbvs	r7, [r9, -lr, ror #6]!
  6c:	2064656e 	rsbcs	r6, r4, lr, ror #10
  70:	72616863 	rsbvc	r6, r1, #6488064	; 0x630000
  74:	656c6300 	strbvs	r6, [ip, #-768]!	; 0xfffffd00
  78:	725f6e61 	subsvc	r6, pc, #1552	; 0x610
  7c:	6f6f6265 	svcvs	0x006f6265
  80:	68730074 	ldmdavs	r3!, {r2, r4, r5, r6}^
  84:	2074726f 	rsbscs	r7, r4, pc, ror #4
  88:	69736e75 	ldmdbvs	r3!, {r0, r2, r4, r5, r6, r9, sl, fp, sp, lr}^
  8c:	64656e67 	strbtvs	r6, [r5], #-3687	; 0xfffff199
  90:	746e6920 	strbtvc	r6, [lr], #-2336	; 0xfffff6e0
  94:	5f6b6300 	svcpl	0x006b6300
  98:	00726468 	rsbseq	r6, r2, r8, ror #8
  9c:	5f637273 	svcpl	0x00637273
  a0:	5f636f6c 	svcpl	0x00636f6c
  a4:	66006b6d 	strvs	r6, [r0], -sp, ror #22
  a8:	00656c69 	rsbeq	r6, r5, r9, ror #24
  ac:	625f6b63 	subsvs	r6, pc, #101376	; 0x18c00
  b0:	695f6b6c 	ldmdbvs	pc, {r2, r3, r5, r6, r8, r9, fp, sp, lr}^	; <UNPREDICTABLE>
  b4:	75660064 	strbvc	r0, [r6, #-100]!	; 0xffffff9c
  b8:	5f00636e 	svcpl	0x0000636e
  bc:	4e55465f 	mrcmi	6, 2, r4, cr5, cr15, {2}
  c0:	4f495443 	svcmi	0x00495443
  c4:	005f5f4e 	subseq	r5, pc, lr, asr #30
  c8:	736d656d 	cmnvc	sp, #457179136	; 0x1b400000
  cc:	74007465 	strvc	r7, [r0], #-1125	; 0xfffffb9b
  d0:	31747365 	cmncc	r4, r5, ror #6
  d4:	6f6c6200 	svcvs	0x006c6200
  d8:	695f6b63 	ldmdbvs	pc, {r0, r1, r5, r6, r8, r9, fp, sp, lr}^	; <UNPREDICTABLE>
  dc:	65740064 	ldrbvs	r0, [r4, #-100]!	; 0xffffff9c
  e0:	2d737473 	cfldrdcs	mvd7, [r3, #-460]!	; 0xfffffe34
  e4:	2f302e32 	svccs	0x00302e32
  e8:	74726170 	ldrbtvc	r6, [r2], #-368	; 0xfffffe90
  ec:	65742d32 	ldrbvs	r2, [r4, #-3378]!	; 0xfffff2ce
  f0:	2d317473 	cfldrscs	mvf7, [r1, #-460]!	; 0xfffffe34
  f4:	6c2d6f6e 	stcvs	15, cr6, [sp], #-440	; 0xfffffe48
  f8:	2e6b6165 	powcsez	f6, f3, f5
  fc:	4e470063 	cdpmi	0, 4, cr0, cr7, cr3, {3}
 100:	39432055 	stmdbcc	r3, {r0, r2, r4, r6, sp}^
 104:	2e392039 	mrccs	0, 1, r2, cr9, cr9, {1}
 108:	20312e32 	eorscs	r2, r1, r2, lsr lr
 10c:	39313032 	ldmdbcc	r1!, {r1, r4, r5, ip, sp}
 110:	35323031 	ldrcc	r3, [r2, #-49]!	; 0xffffffcf
 114:	65722820 	ldrbvs	r2, [r2, #-2080]!	; 0xfffff7e0
 118:	7361656c 	cmnvc	r1, #108, 10	; 0x1b000000
 11c:	5b202965 	blpl	80a6b8 <__bss_end__+0x7ff758>
 120:	2f4d5241 	svccs	0x004d5241
 124:	2d6d7261 	sfmcs	f7, 2, [sp, #-388]!	; 0xfffffe7c
 128:	72622d39 	rsbvc	r2, r2, #3648	; 0xe40
 12c:	68636e61 	stmdavs	r3!, {r0, r5, r6, r9, sl, fp, sp, lr}^
 130:	76657220 	strbtvc	r7, [r5], -r0, lsr #4
 134:	6f697369 	svcvs	0x00697369
 138:	3732206e 	ldrcc	r2, [r2, -lr, rrx]!
 13c:	39393537 	ldmdbcc	r9!, {r0, r1, r2, r4, r5, r8, sl, ip, sp}
 140:	6d2d205d 	stcvs	0, cr2, [sp, #-372]!	; 0xfffffe8c
 144:	3d757063 	ldclcc	0, cr7, [r5, #-396]!	; 0xfffffe74
 148:	316d7261 	cmncc	sp, r1, ror #4
 14c:	6a363731 	bvs	d8de18 <__bss_end__+0xd82eb8>
 150:	732d667a 			; <UNDEFINED> instruction: 0x732d667a
 154:	746d2d20 	strbtvc	r2, [sp], #-3360	; 0xfffff2e0
 158:	3d656e75 	stclcc	14, cr6, [r5, #-468]!	; 0xfffffe2c
 15c:	316d7261 	cmncc	sp, r1, ror #4
 160:	6a363731 	bvs	d8de2c <__bss_end__+0xd82ecc>
 164:	732d667a 			; <UNDEFINED> instruction: 0x732d667a
 168:	666d2d20 	strbtvs	r2, [sp], -r0, lsr #26
 16c:	74616f6c 	strbtvc	r6, [r1], #-3948	; 0xfffff094
 170:	6962612d 	stmdbvs	r2!, {r0, r2, r3, r5, r8, sp, lr}^
 174:	666f733d 			; <UNDEFINED> instruction: 0x666f733d
 178:	6d2d2074 	stcvs	0, cr2, [sp, #-464]!	; 0xfffffe30
 17c:	206d7261 	rsbcs	r7, sp, r1, ror #4
 180:	72616d2d 	rsbvc	r6, r1, #2880	; 0xb40
 184:	613d6863 	teqvs	sp, r3, ror #16
 188:	36766d72 			; <UNDEFINED> instruction: 0x36766d72
 18c:	2d207a6b 	vstmdbcs	r0!, {s14-s120}
 190:	62646767 	rsbvs	r6, r4, #27000832	; 0x19c0000
 194:	664f2d20 	strbvs	r2, [pc], -r0, lsr #26
 198:	20747361 	rsbscs	r7, r4, r1, ror #6
 19c:	6474732d 	ldrbtvs	r7, [r4], #-813	; 0xfffffcd3
 1a0:	756e673d 	strbvc	r6, [lr, #-1853]!	; 0xfffff8c3
 1a4:	2d203939 			; <UNDEFINED> instruction: 0x2d203939
 1a8:	65726666 	ldrbvs	r6, [r2, #-1638]!	; 0xfffff99a
 1ac:	61747365 	cmnvs	r4, r5, ror #6
 1b0:	6e69646e 	cdpvs	4, 6, cr6, cr9, cr14, {3}
 1b4:	69750067 	ldmdbvs	r5!, {r0, r1, r2, r5, r6}^
 1b8:	5f38746e 	svcpl	0x0038746e
 1bc:	6c610074 	stclvs	0, cr0, [r1], #-464	; 0xfffffe30
 1c0:	5f636f6c 	svcpl	0x00636f6c
 1c4:	00636f6c 	rsbeq	r6, r3, ip, ror #30
 1c8:	676e6f6c 	strbvs	r6, [lr, -ip, ror #30]!
 1cc:	6e6f6c20 	cdpvs	12, 6, cr6, cr15, cr0, {1}
 1d0:	6e692067 	cdpvs	0, 6, cr2, cr9, cr7, {3}
 1d4:	552f0074 	strpl	r0, [pc, #-116]!	; 168 <__code_start__-0x7e98>
 1d8:	73726573 	cmnvc	r2, #482344960	; 0x1cc00000
 1dc:	6c696d2f 	stclvs	13, cr6, [r9], #-188	; 0xffffff44
 1e0:	532f7365 			; <UNDEFINED> instruction: 0x532f7365
 1e4:	6372756f 	cmnvs	r2, #465567744	; 0x1bc00000
 1e8:	73632f65 	cmnvc	r3, #404	; 0x194
 1ec:	6c303432 	cfldrsvs	mvf3, [r0], #-200	; 0xffffff38
 1f0:	616c2f78 	smcvs	49912	; 0xc2f8
 1f4:	352f7362 	strcc	r7, [pc, #-866]!	; fffffe9a <__bss_end__+0xffff4f3a>
 1f8:	6c616d2d 	stclvs	13, cr6, [r1], #-180	; 0xffffff4c
 1fc:	2b636f6c 	blcs	18dbfb4 <__bss_end__+0x18d1054>
 200:	632f6367 			; <UNDEFINED> instruction: 0x632f6367
 204:	0065646f 	rsbeq	r6, r5, pc, ror #8
 208:	72666b63 	rsbvc	r6, r6, #101376	; 0x18c00
 20c:	73006565 	movwvc	r6, #1381	; 0x565
 210:	74726f68 	ldrbtvc	r6, [r2], #-3944	; 0xfffff098
 214:	746e6920 	strbtvc	r6, [lr], #-2336	; 0xfffff6e0
 218:	63727300 	cmnvs	r2, #0, 6
 21c:	636f6c5f 	cmnvs	pc, #24320	; 0x5f00
 220:	7500745f 	strvc	r7, [r0, #-1119]	; 0xfffffba1
 224:	31746e69 	cmncc	r4, r9, ror #28
 228:	00745f36 	rsbseq	r5, r4, r6, lsr pc
 22c:	746e6975 	strbtvc	r6, [lr], #-2421	; 0xfffff68b
 230:	745f3233 	ldrbvc	r3, [pc], #-563	; 238 <__code_start__-0x7dc8>
 234:	69707200 	ldmdbvs	r0!, {r9, ip, sp, lr}^
 238:	7475705f 	ldrbtvc	r7, [r5], #-95	; 0xffffffa1
 23c:	72616863 	rsbvc	r6, r1, #6488064	; 0x630000
 240:	66657200 	strbtvs	r7, [r5], -r0, lsl #4
 244:	74735f73 	ldrbtvc	r5, [r3], #-3955	; 0xfffff08d
 248:	00747261 	rsbseq	r7, r4, r1, ror #4
 24c:	73666572 	cmnvc	r6, #478150656	; 0x1c800000
 250:	64696d5f 	strbtvs	r6, [r9], #-3423	; 0xfffff2a1
 254:	00656c64 	rsbeq	r6, r5, r4, ror #24
 258:	705f6b63 	subsvc	r6, pc, r3, ror #22
 25c:	695f7274 	ldmdbvs	pc, {r2, r4, r5, r6, r9, ip, sp, lr}^	; <UNPREDICTABLE>
 260:	6c625f6e 	stclvs	15, cr5, [r2], #-440	; 0xfffffe48
 264:	006b636f 	rsbeq	r6, fp, pc, ror #6
 268:	45455246 	strbmi	r5, [r5, #-582]	; 0xfffffdba
 26c:	45520044 	ldrbmi	r0, [r2, #-68]	; 0xffffffbc
 270:	4e4f5a44 	vmlsmi.f32	s11, s30, s8
 274:	41565f45 	cmpmi	r6, r5, asr #30
 278:	4552004c 	ldrbmi	r0, [r2, #-76]	; 0xffffffb4
 27c:	4e4f5a44 	vmlsmi.f32	s11, s30, s8
 280:	424e5f45 	submi	r5, lr, #276	; 0x114
 284:	53455459 	movtpl	r5, #21593	; 0x5459
 288:	5f6b6300 	svcpl	0x006b6300
 28c:	73726966 	cmnvc	r2, #1671168	; 0x198000
 290:	64685f74 	strbtvs	r5, [r8], #-3956	; 0xfffff08c
 294:	6c610072 	stclvs	0, cr0, [r1], #-456	; 0xfffffe38
 298:	5f636f6c 	svcpl	0x00636f6c
 29c:	7473696c 	ldrbtvc	r6, [r3], #-2412	; 0xfffff694
 2a0:	73696c00 	cmnvc	r9, #0, 24
 2a4:	65725f74 	ldrbvs	r5, [r2, #-3956]!	; 0xfffff08c
 2a8:	65766f6d 	ldrbvs	r6, [r6, #-3949]!	; 0xfffff093
 2ac:	5f6b6300 	svcpl	0x006b6300
 2b0:	5f727470 	svcpl	0x00727470
 2b4:	615f7369 	cmpvs	pc, r9, ror #6
 2b8:	636f6c6c 	cmnvs	pc, #108, 24	; 0x6c00
 2bc:	63006465 	movwvs	r6, #1125	; 0x465
 2c0:	656e5f6b 	strbvs	r5, [lr, #-3947]!	; 0xfffff095
 2c4:	685f7478 	ldmdavs	pc, {r3, r4, r5, r6, sl, ip, sp, lr}^	; <UNPREDICTABLE>
 2c8:	63007264 	movwvs	r7, #612	; 0x264
 2cc:	6c6c616b 	stfvse	f6, [ip], #-428	; 0xfffffe54
 2d0:	632e636f 			; <UNDEFINED> instruction: 0x632e636f
 2d4:	554e4700 	strbpl	r4, [lr, #-1792]	; 0xfffff900
 2d8:	39394320 	ldmdbcc	r9!, {r5, r8, r9, lr}
 2dc:	322e3920 	eorcc	r3, lr, #32, 18	; 0x80000
 2e0:	3220312e 	eorcc	r3, r0, #-2147483637	; 0x8000000b
 2e4:	31393130 	teqcc	r9, r0, lsr r1
 2e8:	20353230 	eorscs	r3, r5, r0, lsr r2
 2ec:	6c657228 	sfmvs	f7, 2, [r5], #-160	; 0xffffff60
 2f0:	65736165 	ldrbvs	r6, [r3, #-357]!	; 0xfffffe9b
 2f4:	415b2029 	cmpmi	fp, r9, lsr #32
 2f8:	612f4d52 			; <UNDEFINED> instruction: 0x612f4d52
 2fc:	392d6d72 	pushcc	{r1, r4, r5, r6, r8, sl, fp, sp, lr}
 300:	6172622d 	cmnvs	r2, sp, lsr #4
 304:	2068636e 	rsbcs	r6, r8, lr, ror #6
 308:	69766572 	ldmdbvs	r6!, {r1, r4, r5, r6, r8, sl, sp, lr}^
 30c:	6e6f6973 			; <UNDEFINED> instruction: 0x6e6f6973
 310:	37373220 	ldrcc	r3, [r7, -r0, lsr #4]!
 314:	5d393935 			; <UNDEFINED> instruction: 0x5d393935
 318:	636d2d20 	cmnvs	sp, #32, 26	; 0x800
 31c:	613d7570 	teqvs	sp, r0, ror r5
 320:	31316d72 	teqcc	r1, r2, ror sp
 324:	7a6a3637 	bvc	1a8dc08 <__bss_end__+0x1a82ca8>
 328:	20732d66 	rsbscs	r2, r3, r6, ror #26
 32c:	75746d2d 	ldrbvc	r6, [r4, #-3373]!	; 0xfffff2d3
 330:	613d656e 	teqvs	sp, lr, ror #10
 334:	31316d72 	teqcc	r1, r2, ror sp
 338:	7a6a3637 	bvc	1a8dc1c <__bss_end__+0x1a82cbc>
 33c:	20732d66 	rsbscs	r2, r3, r6, ror #26
 340:	6c666d2d 	stclvs	13, cr6, [r6], #-180	; 0xffffff4c
 344:	2d74616f 	ldfcse	f6, [r4, #-444]!	; 0xfffffe44
 348:	3d696261 	sfmcc	f6, 2, [r9, #-388]!	; 0xfffffe7c
 34c:	74666f73 	strbtvc	r6, [r6], #-3955	; 0xfffff08d
 350:	616d2d20 	cmnvs	sp, r0, lsr #26
 354:	2d206d72 	stccs	13, cr6, [r0, #-456]!	; 0xfffffe38
 358:	6372616d 	cmnvs	r2, #1073741851	; 0x4000001b
 35c:	72613d68 	rsbvc	r3, r1, #104, 26	; 0x1a00
 360:	6b36766d 	blvs	d9dd1c <__bss_end__+0xd92dbc>
 364:	672d207a 			; <UNDEFINED> instruction: 0x672d207a
 368:	20626467 	rsbcs	r6, r2, r7, ror #8
 36c:	20674f2d 	rsbcs	r4, r7, sp, lsr #30
 370:	6474732d 	ldrbtvs	r7, [r4], #-813	; 0xfffffcd3
 374:	756e673d 	strbvc	r6, [lr, #-1853]!	; 0xfffff8c3
 378:	2d203939 			; <UNDEFINED> instruction: 0x2d203939
 37c:	65726666 	ldrbvs	r6, [r2, #-1638]!	; 0xfffff99a
 380:	61747365 	cmnvs	r4, r5, ror #6
 384:	6e69646e 	cdpvs	4, 6, cr6, cr9, cr14, {3}
 388:	4c410067 	mcrrmi	0, 6, r0, r1, cr7
 38c:	45434f4c 	strbmi	r4, [r3, #-3916]	; 0xfffff0b4
 390:	552f0044 	strpl	r0, [pc, #-68]!	; 354 <__code_start__-0x7cac>
 394:	73726573 	cmnvc	r2, #482344960	; 0x1cc00000
 398:	6c696d2f 	stclvs	13, cr6, [r9], #-188	; 0xffffff44
 39c:	532f7365 			; <UNDEFINED> instruction: 0x532f7365
 3a0:	6372756f 	cmnvs	r2, #465567744	; 0x1bc00000
 3a4:	73632f65 	cmnvc	r3, #404	; 0x194
 3a8:	6c303432 	cfldrsvs	mvf3, [r0], #-200	; 0xffffff38
 3ac:	616c2f78 	smcvs	49912	; 0xc2f8
 3b0:	362f7362 	strtcc	r7, [pc], -r2, ror #6
 3b4:	6265642d 	rsbvs	r6, r5, #754974720	; 0x2d000000
 3b8:	612d6775 			; <UNDEFINED> instruction: 0x612d6775
 3bc:	636f6c6c 	cmnvs	pc, #108, 24	; 0x6c00
 3c0:	646f632f 	strbtvs	r6, [pc], #-815	; 3c8 <__code_start__-0x7c38>
 3c4:	6b630065 	blvs	18c0560 <__bss_end__+0x18b5600>
 3c8:	7264685f 	rsbvc	r6, r4, #6225920	; 0x5f0000
 3cc:	6174735f 	cmnvs	r4, pc, asr r3
 3d0:	63007472 	movwvs	r7, #1138	; 0x472
 3d4:	64685f6b 	strbtvs	r5, [r8], #-3947	; 0xfffff095
 3d8:	6e655f72 	mcrvs	15, 3, r5, cr5, cr2, {3}
 3dc:	72700064 	rsbsvc	r0, r0, #100, 0	; 0x64
 3e0:	63007665 	movwvs	r7, #1637	; 0x665
 3e4:	626e5f6b 	rsbvs	r5, lr, #428	; 0x1ac
 3e8:	73657479 	cmnvc	r5, #2030043136	; 0x79000000
 3ec:	5f726b00 	svcpl	0x00726b00
 3f0:	6c6c616d 	stfvse	f6, [ip], #-436	; 0xfffffe4c
 3f4:	6800636f 	stmdavs	r0, {r0, r1, r2, r3, r5, r6, r8, r9, sp, lr}
 3f8:	65646165 	strbvs	r6, [r4, #-357]!	; 0xfffffe9b
 3fc:	72700072 	rsbsvc	r0, r0, #114, 0	; 0x72
 400:	00707665 	rsbseq	r7, r0, r5, ror #12
 404:	67696c61 	strbvs	r6, [r9, -r1, ror #24]!
 408:	726b006e 	rsbvc	r0, fp, #110, 0	; 0x6e
 40c:	6572665f 	ldrbvs	r6, [r2, #-1631]!	; 0xfffff9a1
 410:	72660065 	rsbvc	r0, r6, #101, 0	; 0x65
 414:	00706565 	rsbseq	r6, r0, r5, ror #10
 418:	696e756e 	stmdbvs	lr!, {r1, r2, r3, r5, r6, r8, sl, ip, sp, lr}^
 41c:	6b007374 	blvs	1d1f4 <__bss_end__+0x12294>
 420:	616d2d72 	smcvs	53970	; 0xd2d2
 424:	636f6c6c 	cmnvs	pc, #108, 24	; 0x6c00
 428:	6400632e 	strvs	r6, [r0], #-814	; 0xfffffcd2
 42c:	6c62756f 	cfstr64vs	mvdx7, [r2], #-444	; 0xfffffe44
 430:	61620065 	cmnvs	r2, r5, rrx
 434:	73006573 	movwvc	r6, #1395	; 0x573
 438:	006b7262 	rsbeq	r7, fp, r2, ror #4
 43c:	65726f6d 	ldrbvs	r6, [r2, #-3949]!	; 0xfffff093
 440:	65726f63 	ldrbvs	r6, [r2, #-3939]!	; 0xfffff09d
 444:	7a697300 	bvc	1a5d04c <__bss_end__+0x1a520ec>
 448:	65480065 	strbvs	r0, [r8, #-101]	; 0xffffff9b
 44c:	72656461 	rsbvc	r6, r5, #1627389952	; 0x61000000
 450:	61747300 	cmnvs	r4, r0, lsl #6
 454:	745f6b63 	ldrbvc	r6, [pc], #-2915	; 45c <__code_start__-0x7ba4>
 458:	6d00706f 	stcvs	0, cr7, [r0, #-444]	; 0xfffffe44
 45c:	5f6b7261 	svcpl	0x006b7261
 460:	006c6c61 	rsbeq	r6, ip, r1, ror #24
 464:	6c706d69 	ldclvs	13, cr6, [r0], #-420	; 0xfffffe5c
 468:	6e656d65 	cdpvs	13, 6, cr6, cr5, cr5, {3}
 46c:	68745f74 	ldmdavs	r4!, {r2, r4, r5, r6, r8, r9, sl, fp, ip, lr}^
 470:	5f007369 	svcpl	0x00007369
 474:	7373625f 	cmnvc	r3, #-268435451	; 0xf0000005
 478:	6174735f 	cmnvs	r4, pc, asr r3
 47c:	5f5f7472 	svcpl	0x005f7472
 480:	6c626e00 	stclvs	14, cr6, [r2], #-0
 484:	736b636f 	cmnvc	fp, #-1140850687	; 0xbc000001
 488:	696e6900 	stmdbvs	lr!, {r8, fp, sp, lr}^
 48c:	00705f74 	rsbseq	r5, r0, r4, ror pc
 490:	7479626e 	ldrbtvc	r6, [r9], #-622	; 0xfffffd92
 494:	665f7365 	ldrbvs	r7, [pc], -r5, ror #6
 498:	64656572 	strbtvs	r6, [r5], #-1394	; 0xfffffa8e
 49c:	646c6f00 	strbtvs	r6, [ip], #-3840	; 0xfffff100
 4a0:	72616d5f 	rsbvc	r6, r1, #6080	; 0x17c0
 4a4:	616d006b 	cmnvs	sp, fp, rrx
 4a8:	5f656279 	svcpl	0x00656279
 4ac:	6f727265 	svcvs	0x00727265
 4b0:	63007372 	movwvs	r7, #882	; 0x372
 4b4:	63675f6b 	cmnvs	r7, #428	; 0x1ac
 4b8:	6d756400 	cfldrdvs	mvd6, [r5, #-0]
 4bc:	65725f70 	ldrbvs	r5, [r2, #-3952]!	; 0xfffff090
 4c0:	6e007367 	cdpvs	3, 0, cr7, cr0, cr7, {3}
 4c4:	6b61656c 	blvs	1859a7c <__bss_end__+0x184eb1c>
 4c8:	6e690073 	mcrvs	0, 3, r0, cr9, cr3, {3}
 4cc:	6d657263 	sfmvs	f7, 2, [r5, #-396]!	; 0xfffffe74
 4d0:	00746e65 	rsbseq	r6, r4, r5, ror #28
 4d4:	61645f5f 	cmnvs	r4, pc, asr pc
 4d8:	655f6174 	ldrbvs	r6, [pc, #-372]	; 36c <__code_start__-0x7c94>
 4dc:	5f5f646e 	svcpl	0x005f646e
 4e0:	5f736900 	svcpl	0x00736900
 4e4:	00727470 	rsbseq	r7, r2, r0, ror r4
 4e8:	63656863 	cmnvs	r5, #6488064	; 0x630000
 4ec:	6f6e5f6b 	svcvs	0x006e5f6b
 4f0:	61656c5f 	cmnvs	r5, pc, asr ip
 4f4:	666e006b 	strbtvs	r0, [lr], -fp, rrx
 4f8:	64656572 	strbtvs	r6, [r5], #-1394	; 0xfffffa8e
 4fc:	5f6e6900 	svcpl	0x006e6900
 500:	70616568 	rsbvc	r6, r1, r8, ror #10
 504:	656e6f00 	strbvs	r6, [lr, #-3840]!	; 0xfffff100
 508:	6300626d 	movwvs	r6, #621	; 0x26d
 50c:	63672d6b 	cmnvs	r7, #6848	; 0x1ac0
 510:	6300632e 	movwvs	r6, #814	; 0x32e
 514:	6b636568 	blvs	18d9abc <__bss_end__+0x18ceb5c>
 518:	6f68735f 	svcvs	0x0068735f
 51c:	5f646c75 	svcpl	0x00646c75
 520:	6b61656c 	blvs	1859ad8 <__bss_end__+0x184eb78>
 524:	625f5f00 	subsvs	r5, pc, #0, 30
 528:	655f7373 	ldrbvs	r7, [pc, #-883]	; 1bd <__code_start__-0x7e43>
 52c:	5f5f646e 	svcpl	0x005f646e
 530:	616d6b00 	cmnvs	sp, r0, lsl #22
 534:	636f6c6c 	cmnvs	pc, #108, 24	; 0x6c00
 538:	616d6b00 	cmnvs	sp, r0, lsl #22
 53c:	636f6c6c 	cmnvs	pc, #108, 24	; 0x6c00
 540:	696e695f 	stmdbvs	lr!, {r0, r1, r2, r3, r4, r6, r8, fp, sp, lr}^
 544:	65735f74 	ldrbvs	r5, [r3, #-3956]!	; 0xfffff08c
 548:	74735f74 	ldrbtvc	r5, [r3], #-3956	; 0xfffff08c
 54c:	00747261 	rsbseq	r7, r4, r1, ror #4
 550:	65657773 	strbvs	r7, [r5, #-1907]!	; 0xfffff88d
 554:	656c5f70 	strbvs	r5, [ip, #-3952]!	; 0xfffff090
 558:	5f006b61 	svcpl	0x00006b61
 55c:	7461645f 	strbtvc	r6, [r1], #-1119	; 0xfffffba1
 560:	74735f61 	ldrbtvc	r5, [r3], #-3937	; 0xfffff09f
 564:	5f747261 	svcpl	0x00747261
 568:	7773005f 			; <UNDEFINED> instruction: 0x7773005f
 56c:	5f706565 	svcpl	0x00706565
 570:	65657266 	strbvs	r7, [r5, #-614]!	; 0xfffffd9a
 574:	72617700 	rsbvc	r7, r1, #0, 14
 578:	6f6e5f6e 	svcvs	0x006e5f6e
 57c:	6174735f 	cmnvs	r4, pc, asr r3
 580:	725f7472 	subsvc	r7, pc, #1912602624	; 0x72000000
 584:	705f6665 	subsvc	r6, pc, r5, ror #12
 588:	7a697300 	bvc	1a5d190 <__bss_end__+0x1a52230>
 58c:	00745f65 	rsbseq	r5, r4, r5, ror #30
 590:	696c2f2e 	stmdbvs	ip!, {r1, r2, r3, r5, r8, r9, sl, fp, sp}^
 594:	6d2f6362 	stcvs	3, cr6, [pc, #-392]!	; 414 <__code_start__-0x7bec>
 598:	65736d65 	ldrbvs	r6, [r3, #-3429]!	; 0xfffff29b
 59c:	00632e74 	rsbeq	r2, r3, r4, ror lr
 5a0:	6573552f 	ldrbvs	r5, [r3, #-1327]!	; 0xfffffad1
 5a4:	6d2f7372 	stcvs	3, cr7, [pc, #-456]!	; 3e4 <__code_start__-0x7c1c>
 5a8:	73656c69 	cmnvc	r5, #26880	; 0x6900
 5ac:	756f532f 	strbvc	r5, [pc, #-815]!	; 285 <__code_start__-0x7d7b>
 5b0:	2f656372 	svccs	0x00656372
 5b4:	34327363 	ldrtcc	r7, [r2], #-867	; 0xfffffc9d
 5b8:	2f786c30 	svccs	0x00786c30
 5bc:	7062696c 	rsbvc	r6, r2, ip, ror #18
 5c0:	72610069 	rsbvc	r0, r1, #105, 0	; 0x69
 5c4:	76007367 	strvc	r7, [r0], -r7, ror #6
 5c8:	72705f61 	rsbsvc	r5, r0, #388	; 0x184
 5cc:	6b746e69 	blvs	1d1bf78 <__bss_end__+0x1d11018>
 5d0:	675f5f00 	ldrbvs	r5, [pc, -r0, lsl #30]
 5d4:	5f63756e 	svcpl	0x0063756e
 5d8:	6c5f6176 	ldfvse	f6, [pc], {118}	; 0x76
 5dc:	00747369 	rsbseq	r7, r4, r9, ror #6
 5e0:	70615f5f 	rsbvc	r5, r1, pc, asr pc
 5e4:	6c2f2e00 	stcvs	14, cr2, [pc], #-0	; 5ec <__code_start__-0x7a14>
 5e8:	2f636269 	svccs	0x00636269
 5ec:	6e697270 	mcrvs	2, 3, r7, cr9, cr0, {3}
 5f0:	632e6b74 			; <UNDEFINED> instruction: 0x632e6b74
 5f4:	765f5f00 	ldrbvc	r5, [pc], -r0, lsl #30
 5f8:	696c5f61 	stmdbvs	ip!, {r0, r5, r6, r8, r9, sl, fp, ip, lr}^
 5fc:	69007473 	stmdbvs	r0, {r0, r1, r4, r5, r6, sl, ip, sp, lr}
 600:	7265746e 	rsbvc	r7, r5, #1845493760	; 0x6e000000
 604:	5f6c616e 	svcpl	0x006c616e
 608:	6b747570 	blvs	1d1dbd0 <__bss_end__+0x1d12c70>
 60c:	6c2f2e00 	stcvs	14, cr2, [pc], #-0	; 614 <__code_start__-0x79ec>
 610:	2f636269 	svccs	0x00636269
 614:	6b747570 	blvs	1d1dbdc <__bss_end__+0x1d12c7c>
 618:	6900632e 	stmdbvs	r0, {r1, r2, r3, r5, r8, r9, sp, lr}
 61c:	67696473 			; <UNDEFINED> instruction: 0x67696473
 620:	75007469 	strvc	r7, [r0, #-1129]	; 0xfffffb97
 624:	36746e69 	ldrbtcc	r6, [r4], -r9, ror #28
 628:	00745f34 	rsbseq	r5, r4, r4, lsr pc
 62c:	696c2f2e 	stmdbvs	ip!, {r1, r2, r3, r5, r8, r9, sl, fp, sp}^
 630:	762f6362 	strtvc	r6, [pc], -r2, ror #6
 634:	72702d61 	rsbsvc	r2, r0, #6208	; 0x1840
 638:	6b746e69 	blvs	1d1bfe4 <__bss_end__+0x1d11084>
 63c:	5f00632e 	svcpl	0x0000632e
 640:	646f635f 	strbtvs	r6, [pc], #-863	; 648 <__code_start__-0x79b8>
 644:	74735f65 	ldrbtvc	r5, [r3], #-3941	; 0xfffff09b
 648:	5f747261 	svcpl	0x00747261
 64c:	6977005f 	ldmdbvs	r7!, {r0, r1, r2, r3, r4, r6}^
 650:	00687464 	rsbeq	r7, r8, r4, ror #8
 654:	63747570 	cmnvs	r4, #112, 10	; 0x1c000000
 658:	0070665f 	rsbseq	r6, r0, pc, asr r6
 65c:	65685f5f 	strbvs	r5, [r8, #-3935]!	; 0xfffff0a1
 660:	735f7061 	cmpvc	pc, #97, 0	; 0x61
 664:	74726174 	ldrbtvc	r6, [r2], #-372	; 0xfffffe8c
 668:	72005f5f 	andvc	r5, r0, #380	; 0x17c
 66c:	735f6970 	cmpvc	pc, #112, 18	; 0x1c0000
 670:	6f5f7465 	svcvs	0x005f7465
 674:	75707475 	ldrbvc	r7, [r0, #-1141]!	; 0xfffffb8b
 678:	6d660074 	stclvs	0, cr0, [r6, #-464]!	; 0xfffffe30
 67c:	74735f74 	ldrbtvc	r5, [r3], #-3956	; 0xfffff08c
 680:	00747261 	rsbseq	r7, r4, r1, ror #4
 684:	63727473 	cmnvs	r2, #1929379840	; 0x73000000
 688:	73007461 	movwvc	r7, #1121	; 0x461
 68c:	70637274 	rsbvc	r7, r3, r4, ror r2
 690:	656e0079 	strbvs	r0, [lr, #-121]!	; 0xffffff87
 694:	00705f67 	rsbseq	r5, r0, r7, ror #30
 698:	6f635f5f 	svcvs	0x00635f5f
 69c:	655f6564 	ldrbvs	r6, [pc, #-1380]	; 140 <__code_start__-0x7ec0>
 6a0:	5f5f646e 	svcpl	0x005f646e
 6a4:	696d6500 	stmdbvs	sp!, {r8, sl, sp, lr}^
 6a8:	65720074 	ldrbvs	r0, [r2, #-116]!	; 0xffffff8c
 6ac:	73726576 	cmnvc	r2, #494927872	; 0x1d800000
 6b0:	74730065 	ldrbtvc	r0, [r3], #-101	; 0xffffff9b
 6b4:	706d6372 	rsbvc	r6, sp, r2, ror r3
 6b8:	74757000 	ldrbtvc	r7, [r5], #-0
 6bc:	70665f73 	rsbvc	r5, r6, r3, ror pc
 6c0:	705f5f00 	subsvc	r5, pc, r0, lsl #30
 6c4:	5f676f72 	svcpl	0x00676f72
 6c8:	5f646e65 	svcpl	0x00646e65
 6cc:	756e005f 	strbvc	r0, [lr, #-95]!	; 0xffffffa1
 6d0:	7300316d 	movwvc	r3, #365	; 0x16d
 6d4:	636e7274 	cmnvs	lr, #116, 4	; 0x40000007
 6d8:	7300706d 	movwvc	r7, #109	; 0x6d
 6dc:	656e6769 	strbvs	r6, [lr, #-1897]!	; 0xfffff897
 6e0:	00705f64 	rsbseq	r5, r0, r4, ror #30
 6e4:	5f697072 	svcpl	0x00697072
 6e8:	6f626572 	svcvs	0x00626572
 6ec:	6400746f 	strvs	r7, [r0], #-1135	; 0xfffffb91
 6f0:	79616c65 	stmdbvc	r1!, {r0, r2, r5, r6, sl, fp, sp, lr}^
 6f4:	00736d5f 	rsbseq	r6, r3, pc, asr sp
 6f8:	74732f2e 	ldrbtvc	r2, [r3], #-3886	; 0xfffff0d2
 6fc:	2d666661 	stclcs	6, cr6, [r6, #-388]!	; 0xfffffe7c
 700:	2f637273 	svccs	0x00637273
 704:	61656c63 	cmnvs	r5, r3, ror #24
 708:	65722d6e 	ldrbvs	r2, [r2, #-3438]!	; 0xfffff292
 70c:	746f6f62 	strbtvc	r6, [pc], #-3938	; 714 <__code_start__-0x78ec>
 710:	7500632e 	strvc	r6, [r0, #-814]	; 0xfffffcd2
 714:	5f747261 	svcpl	0x00747261
 718:	73756c66 	cmnvc	r5, #26112	; 0x6600
 71c:	78745f68 	ldmdavc	r4!, {r3, r5, r6, r8, r9, sl, fp, ip, lr}^
 720:	73635f00 	cmnvc	r3, #0, 30
 724:	74726174 	ldrbtvc	r6, [r2], #-372	; 0xfffffe8c
 728:	73736200 	cmnvc	r3, #0, 4
 72c:	646e655f 	strbtvs	r6, [lr], #-1375	; 0xfffffaa1
 730:	72617500 	rsbvc	r7, r1, #0, 10
 734:	6e695f74 	mcrvs	15, 3, r5, cr9, cr4, {3}
 738:	63007469 	movwvs	r7, #1129	; 0x469
 73c:	6f747375 	svcvs	0x00747375
 740:	6f6c5f6d 	svcvs	0x006c5f6d
 744:	72656461 	rsbvc	r6, r5, #1627389952	; 0x61000000
 748:	732f2e00 			; <UNDEFINED> instruction: 0x732f2e00
 74c:	66666174 			; <UNDEFINED> instruction: 0x66666174
 750:	6372732d 	cmnvs	r2, #-1275068416	; 0xb4000000
 754:	7473632f 	ldrbtvc	r6, [r3], #-815	; 0xfffffcd1
 758:	2e747261 	cdpcs	2, 7, cr7, cr4, cr1, {3}
 75c:	2f2e0063 	svccs	0x002e0063
 760:	66617473 			; <UNDEFINED> instruction: 0x66617473
 764:	72732d66 	rsbsvc	r2, r3, #6528	; 0x1980
 768:	75632f63 	strbvc	r2, [r3, #-3939]!	; 0xfffff09d
 76c:	6d6f7473 	cfstrdvs	mvd7, [pc, #-460]!	; 5a8 <__code_start__-0x7a58>
 770:	616f6c2d 	cmnvs	pc, sp, lsr #24
 774:	2e726564 	cdpcs	5, 7, cr6, cr2, cr4, {3}
 778:	65720063 	ldrbvs	r0, [r2, #-99]!	; 0xffffff9d
 77c:	746f6f62 	strbtvc	r6, [pc], #-3938	; 784 <__code_start__-0x787c>
 780:	6c61635f 	stclvs	3, cr6, [r1], #-380	; 0xfffffe84
 784:	74756f6c 	ldrbtvc	r6, [r5], #-3948	; 0xfffff094
 788:	5f4d5000 	svcpl	0x004d5000
 78c:	474f4457 	smlsldmi	r4, pc, r7, r4	; <UNPREDICTABLE>
 790:	54555000 	ldrbpl	r5, [r5], #-0
 794:	73003233 	movwvc	r3, #563	; 0x233
 798:	755f7465 	ldrbvc	r7, [pc, #-1125]	; 33b <__code_start__-0x7cc5>
 79c:	5f726573 	svcpl	0x00726573
 7a0:	6576656c 	ldrbvs	r6, [r6, #-1388]!	; 0xfffffa94
 7a4:	2f2e006c 	svccs	0x002e006c
 7a8:	66617473 			; <UNDEFINED> instruction: 0x66617473
 7ac:	72732d66 	rsbsvc	r2, r3, #6528	; 0x1980
 7b0:	65722f63 	ldrbvs	r2, [r2, #-3939]!	; 0xfffff09d
 7b4:	746f6f62 	strbtvc	r6, [pc], #-3938	; 7bc <__code_start__-0x7844>
 7b8:	5000632e 	andpl	r6, r0, lr, lsr #6
 7bc:	41505f4d 	cmpmi	r0, sp, asr #30
 7c0:	4f575353 	svcmi	0x00575353
 7c4:	61004452 	tstvs	r0, r2, asr r4
 7c8:	73755f74 	cmnvc	r5, #116, 30	; 0x1d0
 7cc:	6c5f7265 	lfmvs	f7, 2, [pc], {101}	; 0x65
 7d0:	6c657665 	stclvs	6, cr7, [r5], #-404	; 0xfffffe6c
 7d4:	5f4d5000 	svcpl	0x004d5000
 7d8:	43545352 	cmpmi	r4, #1207959553	; 0x48000001
 7dc:	4352575f 	cmpmi	r2, #24903680	; 0x17c0000
 7e0:	465f4746 	ldrbmi	r4, [pc], -r6, asr #14
 7e4:	5f4c4c55 	svcpl	0x004c4c55
 7e8:	45534552 	ldrbmi	r4, [r3, #-1362]	; 0xfffffaae
 7ec:	4d500054 	ldclmi	0, cr0, [r0, #-336]	; 0xfffffeb0
 7f0:	5453525f 	ldrbpl	r5, [r3], #-607	; 0xfffffda1
 7f4:	70630043 	rsbvc	r0, r3, r3, asr #32
 7f8:	64007273 	strvs	r7, [r0], #-627	; 0xfffffd8d
 7fc:	625f7665 	subsvs	r7, pc, #105906176	; 0x6500000
 800:	69727261 	ldmdbvs	r2!, {r0, r5, r6, r9, ip, sp, lr}^
 804:	64007265 	strvs	r7, [r0], #-613	; 0xfffffd9b
 808:	79616c65 	stmdbvc	r1!, {r0, r2, r5, r6, sl, fp, sp, lr}^
 80c:	6365735f 	cmnvs	r5, #2080374785	; 0x7c000001
 810:	732f2e00 			; <UNDEFINED> instruction: 0x732f2e00
 814:	66666174 			; <UNDEFINED> instruction: 0x66666174
 818:	6372732d 	cmnvs	r2, #-1275068416	; 0xb4000000
 81c:	6d69742f 	cfstrdvs	mvd7, [r9, #-188]!	; 0xffffff44
 820:	632e7265 			; <UNDEFINED> instruction: 0x632e7265
 824:	54454700 	strbpl	r4, [r5], #-1792	; 0xfffff900
 828:	74003233 	strvc	r3, [r0], #-563	; 0xfffffdcd
 82c:	72656d69 	rsbvc	r6, r5, #6720	; 0x1a40
 830:	7465675f 	strbtvc	r6, [r5], #-1887	; 0xfffff8a1
 834:	6573755f 	ldrbvs	r7, [r3, #-1375]!	; 0xfffffaa1
 838:	65640063 	strbvs	r0, [r4, #-99]!	; 0xffffff9d
 83c:	5f79616c 	svcpl	0x0079616c
 840:	74007375 	strvc	r7, [r0], #-885	; 0xfffffc8b
 844:	72656d69 	rsbvc	r6, r5, #6720	; 0x1a40
 848:	7465675f 	strbtvc	r6, [r5], #-1887	; 0xfffff8a1
 84c:	6573755f 	ldrbvs	r7, [r3, #-1375]!	; 0xfffffaa1
 850:	61725f63 	cmnvs	r2, r3, ror #30
 854:	75700077 	ldrbvc	r0, [r0, #-119]!	; 0xffffff89
 858:	00323374 	eorseq	r3, r2, r4, ror r3
 85c:	64756162 	ldrbtvs	r6, [r5], #-354	; 0xfffffe9e
 860:	6c61765f 	stclvs	6, cr7, [r1], #-380	; 0xfffffe84
 864:	61747300 	cmnvs	r4, r0, lsl #6
 868:	61750074 	cmnvs	r5, r4, ror r0
 86c:	635f7472 	cmpvs	pc, #1912602624	; 0x72000000
 870:	675f6e61 	ldrbvs	r6, [pc, -r1, ror #28]
 874:	00637465 	rsbeq	r7, r3, r5, ror #8
 878:	4f495047 	svcmi	0x00495047
 87c:	4e55465f 	mrcmi	6, 2, r4, cr5, cr15, {2}
 880:	554f5f43 	strbpl	r5, [pc, #-3907]	; fffff945 <__bss_end__+0xffff49e5>
 884:	54555054 	ldrbpl	r5, [r5], #-84	; 0xffffffac
 888:	78756100 	ldmdavc	r5!, {r8, sp, lr}^
 88c:	7265705f 	rsbvc	r7, r5, #95, 0	; 0x5f
 890:	73687069 	cmnvc	r8, #105, 0	; 0x69
 894:	72617500 	rsbvc	r7, r1, #0, 10
 898:	00632e74 	rsbeq	r2, r3, r4, ror lr
 89c:	74726175 	ldrbtvc	r6, [r2], #-373	; 0xfffffe8b
 8a0:	6e61635f 	mcrvs	3, 3, r6, cr1, cr15, {2}
 8a4:	7475705f 	ldrbtvc	r7, [r5], #-95	; 0xffffffa1
 8a8:	61750063 	cmnvs	r5, r3, rrx
 8ac:	745f7472 	ldrbvc	r7, [pc], #-1138	; 8b4 <__code_start__-0x774c>
 8b0:	73695f78 	cmnvc	r9, #120, 30	; 0x1e0
 8b4:	706d655f 	rsbvc	r6, sp, pc, asr r5
 8b8:	47007974 	smlsdxmi	r0, r4, r9, r7
 8bc:	5f4f4950 	svcpl	0x004f4950
 8c0:	434e5546 	movtmi	r5, #58694	; 0xe546
 8c4:	544c415f 	strbpl	r4, [ip], #-351	; 0xfffffea1
 8c8:	50470030 	subpl	r0, r7, r0, lsr r0
 8cc:	465f4f49 	ldrbmi	r4, [pc], -r9, asr #30
 8d0:	5f434e55 	svcpl	0x00434e55
 8d4:	31544c41 	cmpcc	r4, r1, asr #24
 8d8:	49504700 	ldmdbmi	r0, {r8, r9, sl, lr}^
 8dc:	55465f4f 	strbpl	r5, [r6, #-3919]	; 0xfffff0b1
 8e0:	415f434e 	cmpmi	pc, lr, asr #6
 8e4:	0032544c 	eorseq	r5, r2, ip, asr #8
 8e8:	4f495047 	svcmi	0x00495047
 8ec:	4e55465f 	mrcmi	6, 2, r4, cr5, cr15, {2}
 8f0:	4c415f43 	mcrrmi	15, 4, r5, r1, cr3
 8f4:	47003354 	smlsdmi	r0, r4, r3, r3
 8f8:	5f4f4950 	svcpl	0x004f4950
 8fc:	434e5546 	movtmi	r5, #58694	; 0xe546
 900:	544c415f 	strbpl	r4, [ip], #-351	; 0xfffffea1
 904:	682f0035 	stmdavs	pc!, {r0, r2, r4, r5}	; <UNPREDICTABLE>
 908:	2f656d6f 	svccs	0x00656d6f
 90c:	6c676e65 	stclvs	14, cr6, [r7], #-404	; 0xfffffe6c
 910:	632f7265 			; <UNDEFINED> instruction: 0x632f7265
 914:	7373616c 	cmnvc	r3, #27
 918:	3273632f 	rsbscc	r6, r3, #-1140850688	; 0xbc000000
 91c:	786c3034 	stmdavc	ip!, {r2, r4, r5, ip, sp}^
 920:	7332322d 	teqvc	r2, #-805306366	; 0xd0000002
 924:	6c2f7270 	sfmvs	f7, 4, [pc], #-448	; 76c <__code_start__-0x7894>
 928:	69706269 	ldmdbvs	r0!, {r0, r3, r5, r6, r9, sp, lr}^
 92c:	6174732f 	cmnvs	r4, pc, lsr #6
 930:	702d6666 	eorvc	r6, sp, r6, ror #12
 934:	61766972 	cmnvs	r6, r2, ror r9
 938:	62006574 	andvs	r6, r0, #116, 10	; 0x1d000000
 93c:	00647561 	rsbeq	r7, r4, r1, ror #10
 940:	5f787561 	svcpl	0x00787561
 944:	62616e65 	rsbvs	r6, r1, #1616	; 0x650
 948:	0073656c 	rsbseq	r6, r3, ip, ror #10
 94c:	74726175 	ldrbtvc	r6, [r2], #-373	; 0xfffffe8b
 950:	7465675f 	strbtvc	r6, [r5], #-1887	; 0xfffff8a1
 954:	4e470063 	cdpmi	0, 4, cr0, cr7, cr3, {3}
 958:	39432055 	stmdbcc	r3, {r0, r2, r4, r6, sp}^
 95c:	30312039 	eorscc	r2, r1, r9, lsr r0
 960:	312e332e 			; <UNDEFINED> instruction: 0x312e332e
 964:	32303220 	eorscc	r3, r0, #32, 4
 968:	32383031 	eorscc	r3, r8, #49, 0	; 0x31
 96c:	72282034 	eorvc	r2, r8, #52, 0	; 0x34
 970:	61656c65 	cmnvs	r5, r5, ror #24
 974:	20296573 	eorcs	r6, r9, r3, ror r5
 978:	70636d2d 	rsbvc	r6, r3, sp, lsr #26
 97c:	72613d75 	rsbvc	r3, r1, #7488	; 0x1d40
 980:	3731316d 	ldrcc	r3, [r1, -sp, ror #2]!
 984:	667a6a36 			; <UNDEFINED> instruction: 0x667a6a36
 988:	2d20732d 	stccs	3, cr7, [r0, #-180]!	; 0xffffff4c
 98c:	6e75746d 	cdpvs	4, 7, cr7, cr5, cr13, {3}
 990:	72613d65 	rsbvc	r3, r1, #6464	; 0x1940
 994:	3731316d 	ldrcc	r3, [r1, -sp, ror #2]!
 998:	667a6a36 			; <UNDEFINED> instruction: 0x667a6a36
 99c:	2d20732d 	stccs	3, cr7, [r0, #-180]!	; 0xffffff4c
 9a0:	6f6c666d 	svcvs	0x006c666d
 9a4:	612d7461 			; <UNDEFINED> instruction: 0x612d7461
 9a8:	733d6962 	teqvc	sp, #1605632	; 0x188000
 9ac:	2074666f 	rsbscs	r6, r4, pc, ror #12
 9b0:	72616d2d 	rsbvc	r6, r1, #2880	; 0xb40
 9b4:	6d2d206d 	stcvs	0, cr2, [sp, #-436]!	; 0xfffffe4c
 9b8:	68637261 	stmdavs	r3!, {r0, r5, r6, r9, ip, sp, lr}^
 9bc:	6d72613d 	ldfvse	f6, [r2, #-244]!	; 0xffffff0c
 9c0:	7a6b3676 	bvc	1ace3a0 <__bss_end__+0x1ac3440>
 9c4:	67672d20 	strbvs	r2, [r7, -r0, lsr #26]!
 9c8:	2d206264 	sfmcs	f6, 4, [r0, #-400]!	; 0xfffffe70
 9cc:	2d20674f 	stccs	7, cr6, [r0, #-316]!	; 0xfffffec4
 9d0:	3d647473 	cfstrdcc	mvd7, [r4, #-460]!	; 0xfffffe34
 9d4:	39756e67 	ldmdbcc	r5!, {r0, r1, r2, r5, r6, r9, sl, fp, sp, lr}^
 9d8:	662d2039 			; <UNDEFINED> instruction: 0x662d2039
 9dc:	65657266 	strbvs	r7, [r5, #-614]!	; 0xfffffd9a
 9e0:	6e617473 	mcrvs	4, 3, r7, cr1, cr3, {3}
 9e4:	676e6964 	strbvs	r6, [lr, -r4, ror #18]!
 9e8:	746e6300 	strbtvc	r6, [lr], #-768	; 0xfffffd00
 9ec:	6175006c 	cmnvs	r5, ip, rrx
 9f0:	645f7472 	ldrbvs	r7, [pc], #-1138	; 9f8 <__code_start__-0x7608>
 9f4:	62617369 	rsbvs	r7, r1, #-1543503871	; 0xa4000001
 9f8:	7500656c 	strvc	r6, [r0, #-1388]	; 0xfffffa94
 9fc:	5f747261 	svcpl	0x00747261
 a00:	5f736168 	svcpl	0x00736168
 a04:	61746164 	cmnvs	r4, r4, ror #2
 a08:	49504700 	ldmdbmi	r0, {r8, r9, sl, lr}^
 a0c:	55465f4f 	strbpl	r5, [r6, #-3919]	; 0xfffff0b1
 a10:	415f434e 	cmpmi	pc, lr, asr #6
 a14:	0034544c 	eorseq	r5, r4, ip, asr #8
 a18:	695f726f 	ldmdbvs	pc, {r0, r1, r2, r3, r5, r6, r9, ip, sp, lr}^	; <UNPREDICTABLE>
 a1c:	0032336e 	eorseq	r3, r2, lr, ror #6
 a20:	61726373 	cmnvs	r2, r3, ror r3
 a24:	00686374 	rsbeq	r6, r8, r4, ror r3
 a28:	74726175 	ldrbtvc	r6, [r2], #-373	; 0xfffffe8b
 a2c:	646e6100 	strbtvs	r6, [lr], #-256	; 0xffffff00
 a30:	336e695f 	cmncc	lr, #1556480	; 0x17c000
 a34:	61750032 	cmnvs	r5, r2, lsr r0
 a38:	705f7472 	subsvc	r7, pc, r2, ror r4	; <UNPREDICTABLE>
 a3c:	00637475 	rsbeq	r7, r3, r5, ror r4
 a40:	4f495047 	svcmi	0x00495047
 a44:	4e55465f 	mrcmi	6, 2, r4, cr5, cr15, {2}
 a48:	4e495f43 	cdpmi	15, 4, cr5, cr9, cr3, {2}
 a4c:	00545550 	subseq	r5, r4, r0, asr r5
 a50:	6f697067 	svcvs	0x00697067
 a54:	7465735f 	strbtvc	r7, [r5], #-863	; 0xfffffca1
 a58:	6e75665f 	mrcvs	6, 3, r6, cr5, cr15, {2}
 a5c:	6f697463 	svcvs	0x00697463
 a60:	6567006e 	strbvs	r0, [r7, #-110]!	; 0xffffff92
 a64:	00323374 	eorseq	r3, r2, r4, ror r3
 a68:	6c616d6b 	stclvs	13, cr6, [r1], #-428	; 0xfffffe54
 a6c:	5f636f6c 	svcpl	0x00636f6c
 a70:	70616568 	rsbvc	r6, r1, r8, ror #10
 a74:	6174735f 	cmnvs	r4, pc, asr r3
 a78:	6d007472 	cfstrsvs	mvf7, [r0, #-456]	; 0xfffffe38
 a7c:	6e5f7861 	cdpvs	8, 5, cr7, cr15, cr1, {3}
 a80:	65747962 	ldrbvs	r7, [r4, #-2402]!	; 0xfffff69e
 a84:	615f0073 	cmpvs	pc, r3, ror r0	; <UNPREDICTABLE>
 a88:	00726464 	rsbseq	r6, r2, r4, ror #8
 a8c:	70616568 	rsbvc	r6, r1, r8, ror #10
 a90:	78616d5f 	stmdavc	r1!, {r0, r1, r2, r3, r4, r6, r8, sl, fp, sp, lr}^
 a94:	72666b00 	rsbvc	r6, r6, #0, 22
 a98:	615f6565 	cmpvs	pc, r5, ror #10
 a9c:	72006c6c 	andvc	r6, r0, #108, 24	; 0x6c00
 aa0:	646e756f 	strbtvs	r7, [lr], #-1391	; 0xfffffa91
 aa4:	6b007075 	blvs	1cc80 <__bss_end__+0x11d20>
 aa8:	65657266 	strbvs	r7, [r5, #-614]!	; 0xfffffd9a
 aac:	706f705f 	rsbvc	r7, pc, pc, asr r0	; <UNPREDICTABLE>
 ab0:	696c6100 	stmdbvs	ip!, {r8, sp, lr}^
 ab4:	656d6e67 	strbvs	r6, [sp, #-3687]!	; 0xfffff199
 ab8:	6d00746e 	cfstrsvs	mvf7, [r0, #-440]	; 0xfffffe48
 abc:	755f7861 	ldrbvc	r7, [pc, #-2145]	; 263 <__code_start__-0x7d9d>
 ac0:	4f003233 	svcmi	0x00003233
 ac4:	424d656e 	submi	r6, sp, #461373440	; 0x1b800000
 ac8:	616d6b00 	cmnvs	sp, r0, lsl #22
 acc:	636f6c6c 	cmnvs	pc, #108, 24	; 0x6c00
 ad0:	6165685f 	cmnvs	r5, pc, asr r8
 ad4:	6e655f70 	mcrvs	15, 3, r5, cr5, cr0, {3}
 ad8:	6d6b0064 	stclvs	0, cr0, [fp, #-400]!	; 0xfffffe70
 adc:	6f6c6c61 	svcvs	0x006c6c61
 ae0:	6f6e5f63 	svcvs	0x006e5f63
 ae4:	72657a74 	rsbvc	r7, r5, #116, 20	; 0x74000
 ae8:	7369006f 	cmnvc	r9, #111, 0	; 0x6f
 aec:	776f705f 			; <UNDEFINED> instruction: 0x776f705f
 af0:	6d6b0032 	stclvs	0, cr0, [fp, #-200]!	; 0xffffff38
 af4:	6f6c6c61 	svcvs	0x006c6c61
 af8:	00632e63 	rsbeq	r2, r3, r3, ror #28
 afc:	6c616d6b 	stclvs	13, cr6, [r1], #-428	; 0xfffffe54
 b00:	5f636f6c 	svcpl	0x00636f6c
 b04:	74696e69 	strbtvc	r6, [r9], #-3689	; 0xfffff197
 b08:	5f736900 	svcpl	0x00736900
 b0c:	67696c61 	strbvs	r6, [r9, -r1, ror #24]!
 b10:	0064656e 	rsbeq	r6, r4, lr, ror #10
 b14:	6c616d6b 	stclvs	13, cr6, [r1], #-428	; 0xfffffe54
 b18:	5f636f6c 	svcpl	0x00636f6c
 b1c:	70616568 	rsbvc	r6, r1, r8, ror #10
 b20:	7274705f 	rsbsvc	r7, r4, #95, 0	; 0x5f
 b24:	69707200 	ldmdbvs	r0!, {r9, ip, sp, lr}^
 b28:	7365725f 	cmnvc	r5, #-268435451	; 0xf0000005
 b2c:	705f7465 	subsvc	r7, pc, r5, ror #8
 b30:	00637475 	rsbeq	r7, r3, r5, ror r4
 b34:	6c616d6b 	stclvs	13, cr6, [r1], #-428	; 0xfffffe54
 b38:	5f636f6c 	svcpl	0x00636f6c
 b3c:	67696c61 	strbvs	r6, [r9, -r1, ror #24]!
 b40:	0064656e 	rsbeq	r6, r4, lr, ror #10
 b44:	6f697067 	svcvs	0x00697067
 b48:	726c635f 	rsbvc	r6, ip, #2080374785	; 0x7c000001
 b4c:	70670030 	rsbvc	r0, r7, r0, lsr r0
 b50:	735f6f69 	cmpvc	pc, #420	; 0x1a4
 b54:	00307465 	eorseq	r7, r0, r5, ror #8
 b58:	6f697067 	svcvs	0x00697067
 b5c:	6972775f 	ldmdbvs	r2!, {r0, r1, r2, r3, r4, r6, r8, r9, sl, ip, sp, lr}^
 b60:	44006574 	strmi	r6, [r0], #-1396	; 0xfffffa8c
 b64:	565f5645 	ldrbpl	r5, [pc], -r5, asr #12
 b68:	32334c41 	eorscc	r4, r3, #16640	; 0x4100
 b6c:	69706700 	ldmdbvs	r0!, {r8, r9, sl, sp, lr}^
 b70:	65725f6f 	ldrbvs	r5, [r2, #-3951]!	; 0xfffff091
 b74:	2e006461 	cdpcs	4, 0, cr6, cr0, cr1, {3}
 b78:	6372732f 	cmnvs	r2, #-1140850688	; 0xbc000000
 b7c:	6970672f 	ldmdbvs	r0!, {r0, r1, r2, r3, r5, r8, r9, sl, sp, lr}^
 b80:	00632e6f 	rsbeq	r2, r3, pc, ror #28
 b84:	6f697067 	svcvs	0x00697067
 b88:	7465735f 	strbtvc	r7, [r5], #-863	; 0xfffffca1
 b8c:	706e695f 	rsbvc	r6, lr, pc, asr r9
 b90:	67007475 	smlsdxvs	r0, r5, r4, r7
 b94:	5f6f6970 	svcpl	0x006f6970
 b98:	5f746573 	svcpl	0x00746573
 b9c:	0066666f 	rsbeq	r6, r6, pc, ror #12
 ba0:	6f697067 	svcvs	0x00697067
 ba4:	7465735f 	strbtvc	r7, [r5], #-863	; 0xfffffca1
 ba8:	74756f5f 	ldrbtvc	r6, [r5], #-3935	; 0xfffff0a1
 bac:	00747570 	rsbseq	r7, r4, r0, ror r5
 bb0:	6f697067 	svcvs	0x00697067
 bb4:	6e75665f 	mrcvs	6, 3, r6, cr5, cr15, {2}
 bb8:	00745f63 	rsbseq	r5, r4, r3, ror #30
 bbc:	6f697067 	svcvs	0x00697067
 bc0:	76656c5f 			; <UNDEFINED> instruction: 0x76656c5f
 bc4:	61620030 	cmnvs	r2, r0, lsr r0
 bc8:	67006b6e 	strvs	r6, [r0, -lr, ror #22]
 bcc:	5f6f6970 	svcpl	0x006f6970
 bd0:	5f746573 	svcpl	0x00746573
 bd4:	69006e6f 	stmdbvs	r0, {r0, r1, r2, r3, r5, r6, r9, sl, fp, sp, lr}
 bd8:	7265746e 	rsbvc	r7, r5, #1845493760	; 0x6e000000
 bdc:	5f6c616e 	svcpl	0x006c616e
 be0:	63747570 	cmnvs	r4, #112, 10	; 0x1c000000
 be4:	00726168 	rsbseq	r6, r2, r8, ror #2
 be8:	5f697072 	svcpl	0x00697072
 bec:	5f746573 	svcpl	0x00746573
 bf0:	63747570 	cmnvs	r4, #112, 10	; 0x1c000000
 bf4:	6c2f2e00 	stcvs	14, cr2, [pc], #-0	; bfc <__code_start__-0x7404>
 bf8:	2f636269 	svccs	0x00636269
 bfc:	63747570 	cmnvs	r4, #112, 10	; 0x1c000000
 c00:	2e726168 	rpwcssz	f6, f2, #0.0
 c04:	2f2e0063 	svccs	0x002e0063
 c08:	6362696c 	cmnvs	r2, #108, 18	; 0x1b0000
 c0c:	7274732f 	rsbsvc	r7, r4, #-1140850688	; 0xbc000000
 c10:	2e746163 	rpwcssz	f6, f4, f3
 c14:	65640063 	strbvs	r0, [r4, #-99]!	; 0xffffff9d
 c18:	2e007473 	mcrcs	4, 0, r7, cr0, cr3, {3}
 c1c:	62696c2f 	rsbvs	r6, r9, #12032	; 0x2f00
 c20:	74732f63 	ldrbtvc	r2, [r3], #-3939	; 0xfffff09d
 c24:	706d6372 	rsbvc	r6, sp, r2, ror r3
 c28:	2e00632e 	cdpcs	3, 0, cr6, cr0, cr14, {1}
 c2c:	62696c2f 	rsbvs	r6, r9, #12032	; 0x2f00
 c30:	74732f63 	ldrbtvc	r2, [r3], #-3939	; 0xfffff09d
 c34:	79706372 	ldmdbvc	r0!, {r1, r4, r5, r6, r8, r9, sp, lr}^
 c38:	2e00632e 	cdpcs	3, 0, cr6, cr0, cr14, {1}
 c3c:	62696c2f 	rsbvs	r6, r9, #12032	; 0x2f00
 c40:	74732f63 	ldrbtvc	r2, [r3], #-3939	; 0xfffff09d
 c44:	6d636e72 	stclvs	14, cr6, [r3, #-456]!	; 0xfffffe38
 c48:	00632e70 	rsbeq	r2, r3, r0, ror lr
 c4c:	74732f2e 	ldrbtvc	r2, [r3], #-3886	; 0xfffff0d2
 c50:	2d666661 	stclcs	6, cr6, [r6, #-388]!	; 0xfffffe7c
 c54:	2f637273 	svccs	0x00637273
 c58:	61666564 	cmnvs	r6, r4, ror #10
 c5c:	2d746c75 	ldclcs	12, cr6, [r4, #-468]!	; 0xfffffe2c
 c60:	6f626572 	svcvs	0x00626572
 c64:	632d746f 			; <UNDEFINED> instruction: 0x632d746f
 c68:	6f6c6c61 	svcvs	0x006c6c61
 c6c:	632e7475 			; <UNDEFINED> instruction: 0x632e7475
	...

Disassembly of section .debug_frame:

00000000 <.debug_frame>:
   0:	0000000c 	andeq	r0, r0, ip
   4:	ffffffff 			; <UNDEFINED> instruction: 0xffffffff
   8:	7c020001 	stcvc	0, cr0, [r2], {1}
   c:	000d0c0e 	andeq	r0, sp, lr, lsl #24
  10:	00000024 	andeq	r0, r0, r4, lsr #32
  14:	00000000 	andeq	r0, r0, r0
  18:	00008038 	andeq	r8, r0, r8, lsr r0
  1c:	00000088 	andeq	r0, r0, r8, lsl #1
  20:	84100e44 	ldrhi	r0, [r0], #-3652	; 0xfffff1bc
  24:	86038504 	strhi	r8, [r3], -r4, lsl #10
  28:	42018e02 	andmi	r8, r1, #2, 28
  2c:	0e74280e 	cdpeq	8, 7, cr2, cr4, cr14, {0}
  30:	c6ce4210 			; <UNDEFINED> instruction: 0xc6ce4210
  34:	000ec4c5 	andeq	ip, lr, r5, asr #9
  38:	00000028 	andeq	r0, r0, r8, lsr #32
  3c:	00000000 	andeq	r0, r0, r0
  40:	000080c0 	andeq	r8, r0, r0, asr #1
  44:	000000c8 	andeq	r0, r0, r8, asr #1
  48:	84100e42 	ldrhi	r0, [r0], #-3650	; 0xfffff1be
  4c:	86038504 	strhi	r8, [r3], -r4, lsl #10
  50:	44018e02 	strmi	r8, [r1], #-3586	; 0xfffff1fe
  54:	4202280e 	andmi	r2, r2, #917504	; 0xe0000
  58:	42100e0a 	andsmi	r0, r0, #160	; 0xa0
  5c:	c4c5c6ce 	strbgt	ip, [r5], #1742	; 0x6ce
  60:	0b42000e 	bleq	10800a0 <__bss_end__+0x1075140>
  64:	0000000c 	andeq	r0, r0, ip
  68:	ffffffff 			; <UNDEFINED> instruction: 0xffffffff
  6c:	7c020001 	stcvc	0, cr0, [r2], {1}
  70:	000d0c0e 	andeq	r0, sp, lr, lsl #24
  74:	0000000c 	andeq	r0, r0, ip
  78:	00000064 	andeq	r0, r0, r4, rrx
  7c:	00008188 	andeq	r8, r0, r8, lsl #3
  80:	00000010 	andeq	r0, r0, r0, lsl r0
  84:	0000000c 	andeq	r0, r0, ip
  88:	00000064 	andeq	r0, r0, r4, rrx
  8c:	00008198 	muleq	r0, r8, r1
  90:	00000010 	andeq	r0, r0, r0, lsl r0
  94:	00000020 	andeq	r0, r0, r0, lsr #32
  98:	00000064 	andeq	r0, r0, r4, rrx
  9c:	000081a8 	andeq	r8, r0, r8, lsr #3
  a0:	000000a4 	andeq	r0, r0, r4, lsr #1
  a4:	840c0e42 	strhi	r0, [ip], #-3650	; 0xfffff1be
  a8:	8e028503 	cfsh32hi	mvfx8, mvfx2, #3
  ac:	180e4201 	stmdane	lr, {r0, r9, lr}
  b0:	0c0e0a5e 			; <UNDEFINED> instruction: 0x0c0e0a5e
  b4:	00000b42 	andeq	r0, r0, r2, asr #22
  b8:	0000000c 	andeq	r0, r0, ip
  bc:	00000064 	andeq	r0, r0, r4, rrx
  c0:	0000824c 	andeq	r8, r0, ip, asr #4
  c4:	00000008 	andeq	r0, r0, r8
  c8:	00000014 	andeq	r0, r0, r4, lsl r0
  cc:	00000064 	andeq	r0, r0, r4, rrx
  d0:	00008254 	andeq	r8, r0, r4, asr r2
  d4:	00000018 	andeq	r0, r0, r8, lsl r0
  d8:	84080e42 	strhi	r0, [r8], #-3650	; 0xfffff1be
  dc:	00018e02 	andeq	r8, r1, r2, lsl #28
  e0:	00000018 	andeq	r0, r0, r8, lsl r0
  e4:	00000064 	andeq	r0, r0, r4, rrx
  e8:	0000826c 	andeq	r8, r0, ip, ror #4
  ec:	00000030 	andeq	r0, r0, r0, lsr r0
  f0:	84100e42 	ldrhi	r0, [r0], #-3650	; 0xfffff1be
  f4:	86038504 	strhi	r8, [r3], -r4, lsl #10
  f8:	00018e02 	andeq	r8, r1, r2, lsl #28
  fc:	00000018 	andeq	r0, r0, r8, lsl r0
 100:	00000064 	andeq	r0, r0, r4, rrx
 104:	0000829c 	muleq	r0, ip, r2
 108:	00000058 	andeq	r0, r0, r8, asr r0
 10c:	84100e42 	ldrhi	r0, [r0], #-3650	; 0xfffff1be
 110:	86038504 	strhi	r8, [r3], -r4, lsl #10
 114:	00018e02 	andeq	r8, r1, r2, lsl #28
 118:	00000028 	andeq	r0, r0, r8, lsr #32
 11c:	00000064 	andeq	r0, r0, r4, rrx
 120:	000082f4 	strdeq	r8, [r0], -r4
 124:	0000018c 	andeq	r0, r0, ip, lsl #3
 128:	841c0e42 	ldrhi	r0, [ip], #-3650	; 0xfffff1be
 12c:	86068507 	strhi	r8, [r6], -r7, lsl #10
 130:	88048705 	stmdahi	r4, {r0, r2, r8, r9, sl, pc}
 134:	8e028903 	vmlahi.f16	s16, s4, s6	; <UNPREDICTABLE>
 138:	380e4201 	stmdacc	lr, {r0, r9, lr}
 13c:	0e0a9a02 	vmlaeq.f32	s18, s20, s4
 140:	000b421c 	andeq	r4, fp, ip, lsl r2
 144:	00000020 	andeq	r0, r0, r0, lsr #32
 148:	00000064 	andeq	r0, r0, r4, rrx
 14c:	00008480 	andeq	r8, r0, r0, lsl #9
 150:	000000c4 	andeq	r0, r0, r4, asr #1
 154:	84100e42 	ldrhi	r0, [r0], #-3650	; 0xfffff1be
 158:	86038504 	strhi	r8, [r3], -r4, lsl #10
 15c:	42018e02 	andmi	r8, r1, #2, 28
 160:	5602200e 	strpl	r2, [r2], -lr
 164:	0000100e 	andeq	r1, r0, lr
 168:	0000000c 	andeq	r0, r0, ip
 16c:	ffffffff 			; <UNDEFINED> instruction: 0xffffffff
 170:	7c020001 	stcvc	0, cr0, [r2], {1}
 174:	000d0c0e 	andeq	r0, sp, lr, lsl #24
 178:	00000014 	andeq	r0, r0, r4, lsl r0
 17c:	00000168 	andeq	r0, r0, r8, ror #2
 180:	00008544 	andeq	r8, r0, r4, asr #10
 184:	00000088 	andeq	r0, r0, r8, lsl #1
 188:	84080e42 	strhi	r0, [r8], #-3650	; 0xfffff1be
 18c:	00018e02 	andeq	r8, r1, r2, lsl #28
 190:	0000001c 	andeq	r0, r0, ip, lsl r0
 194:	00000168 	andeq	r0, r0, r8, ror #2
 198:	000085cc 	andeq	r8, r0, ip, asr #11
 19c:	00000100 	andeq	r0, r0, r0, lsl #2
 1a0:	84180e42 	ldrhi	r0, [r8], #-3650	; 0xfffff1be
 1a4:	86058506 	strhi	r8, [r5], -r6, lsl #10
 1a8:	88038704 	stmdahi	r3, {r2, r8, r9, sl, pc}
 1ac:	00018e02 	andeq	r8, r1, r2, lsl #28
 1b0:	0000000c 	andeq	r0, r0, ip
 1b4:	ffffffff 			; <UNDEFINED> instruction: 0xffffffff
 1b8:	7c020001 	stcvc	0, cr0, [r2], {1}
 1bc:	000d0c0e 	andeq	r0, sp, lr, lsl #24
 1c0:	0000002c 	andeq	r0, r0, ip, lsr #32
 1c4:	000001b0 			; <UNDEFINED> instruction: 0x000001b0
 1c8:	000086cc 	andeq	r8, r0, ip, asr #13
 1cc:	0000015c 	andeq	r0, r0, ip, asr r1
 1d0:	84240e42 	strthi	r0, [r4], #-3650	; 0xfffff1be
 1d4:	86088509 	strhi	r8, [r8], -r9, lsl #10
 1d8:	88068707 	stmdahi	r6, {r0, r1, r2, r8, r9, sl, pc}
 1dc:	8a048905 	bhi	1225f8 <__bss_end__+0x117698>
 1e0:	8e028b03 	vmlahi.f64	d8, d2, d3
 1e4:	300e4801 	andcc	r4, lr, r1, lsl #16
 1e8:	0e0a6402 	cdpeq	4, 0, cr6, cr10, cr2, {0}
 1ec:	000b4224 	andeq	r4, fp, r4, lsr #4
 1f0:	0000001c 	andeq	r0, r0, ip, lsl r0
 1f4:	000001b0 			; <UNDEFINED> instruction: 0x000001b0
 1f8:	00008828 	andeq	r8, r0, r8, lsr #16
 1fc:	000000a4 	andeq	r0, r0, r4, lsr #1
 200:	84080e42 	strhi	r0, [r8], #-3650	; 0xfffff1be
 204:	42018e02 	andmi	r8, r1, #2, 28
 208:	4202480e 	andmi	r4, r2, #917504	; 0xe0000
 20c:	0000080e 	andeq	r0, r0, lr, lsl #16
 210:	00000020 	andeq	r0, r0, r0, lsr #32
 214:	000001b0 			; <UNDEFINED> instruction: 0x000001b0
 218:	000088cc 	andeq	r8, r0, ip, asr #17
 21c:	00000120 	andeq	r0, r0, r0, lsr #2
 220:	84200e42 	strthi	r0, [r0], #-3650	; 0xfffff1be
 224:	86078508 	strhi	r8, [r7], -r8, lsl #10
 228:	88058706 	stmdahi	r5, {r1, r2, r8, r9, sl, pc}
 22c:	8a038904 	bhi	e2644 <__bss_end__+0xd76e4>
 230:	00018e02 	andeq	r8, r1, r2, lsl #28
 234:	00000024 	andeq	r0, r0, r4, lsr #32
 238:	000001b0 			; <UNDEFINED> instruction: 0x000001b0
 23c:	000089ec 	andeq	r8, r0, ip, ror #19
 240:	0000009c 	muleq	r0, ip, r0
 244:	840c0e42 	strhi	r0, [ip], #-3650	; 0xfffff1be
 248:	8e028503 	cfsh32hi	mvfx8, mvfx2, #3
 24c:	180e4401 	stmdane	lr, {r0, sl, lr}
 250:	0c0e0a5c 			; <UNDEFINED> instruction: 0x0c0e0a5c
 254:	c4c5ce42 	strbgt	ip, [r5], #3650	; 0xe42
 258:	0b42000e 	bleq	1080298 <__bss_end__+0x1075338>
 25c:	0000000c 	andeq	r0, r0, ip
 260:	000001b0 			; <UNDEFINED> instruction: 0x000001b0
 264:	00008a88 	andeq	r8, r0, r8, lsl #21
 268:	00000004 	andeq	r0, r0, r4
 26c:	00000014 	andeq	r0, r0, r4, lsl r0
 270:	000001b0 			; <UNDEFINED> instruction: 0x000001b0
 274:	00008a8c 	andeq	r8, r0, ip, lsl #21
 278:	00000048 	andeq	r0, r0, r8, asr #32
 27c:	84080e42 	strhi	r0, [r8], #-3650	; 0xfffff1be
 280:	00018e02 	andeq	r8, r1, r2, lsl #28
 284:	00000014 	andeq	r0, r0, r4, lsl r0
 288:	000001b0 			; <UNDEFINED> instruction: 0x000001b0
 28c:	00008ad4 	ldrdeq	r8, [r0], -r4
 290:	00000050 	andeq	r0, r0, r0, asr r0
 294:	84080e42 	strhi	r0, [r8], #-3650	; 0xfffff1be
 298:	00018e02 	andeq	r8, r1, r2, lsl #28
 29c:	0000002c 	andeq	r0, r0, ip, lsr #32
 2a0:	000001b0 			; <UNDEFINED> instruction: 0x000001b0
 2a4:	00008b24 	andeq	r8, r0, r4, lsr #22
 2a8:	00000100 	andeq	r0, r0, r0, lsl #2
 2ac:	84240e42 	strthi	r0, [r4], #-3650	; 0xfffff1be
 2b0:	86088509 	strhi	r8, [r8], -r9, lsl #10
 2b4:	88068707 	stmdahi	r6, {r0, r1, r2, r8, r9, sl, pc}
 2b8:	8a048905 	bhi	1226d4 <__bss_end__+0x117774>
 2bc:	8e028b03 	vmlahi.f64	d8, d2, d3
 2c0:	380e4201 	stmdacc	lr, {r0, r9, lr}
 2c4:	240e0a7c 	strcs	r0, [lr], #-2684	; 0xfffff584
 2c8:	00000b42 	andeq	r0, r0, r2, asr #22
 2cc:	00000014 	andeq	r0, r0, r4, lsl r0
 2d0:	000001b0 			; <UNDEFINED> instruction: 0x000001b0
 2d4:	00008c24 	andeq	r8, r0, r4, lsr #24
 2d8:	0000002c 	andeq	r0, r0, ip, lsr #32
 2dc:	84080e42 	strhi	r0, [r8], #-3650	; 0xfffff1be
 2e0:	00018e02 	andeq	r8, r1, r2, lsl #28
 2e4:	0000000c 	andeq	r0, r0, ip
 2e8:	ffffffff 			; <UNDEFINED> instruction: 0xffffffff
 2ec:	7c020001 	stcvc	0, cr0, [r2], {1}
 2f0:	000d0c0e 	andeq	r0, sp, lr, lsl #24
 2f4:	00000014 	andeq	r0, r0, r4, lsl r0
 2f8:	000002e4 	andeq	r0, r0, r4, ror #5
 2fc:	00008c58 	andeq	r8, r0, r8, asr ip
 300:	00000078 	andeq	r0, r0, r8, ror r0
 304:	84080e42 	strhi	r0, [r8], #-3650	; 0xfffff1be
 308:	00018e02 	andeq	r8, r1, r2, lsl #28
 30c:	0000000c 	andeq	r0, r0, ip
 310:	ffffffff 			; <UNDEFINED> instruction: 0xffffffff
 314:	7c020001 	stcvc	0, cr0, [r2], {1}
 318:	000d0c0e 	andeq	r0, sp, lr, lsl #24
 31c:	00000034 	andeq	r0, r0, r4, lsr r0
 320:	0000030c 	andeq	r0, r0, ip, lsl #6
 324:	00008cd0 	ldrdeq	r8, [r0], -r0
 328:	00000058 	andeq	r0, r0, r8, asr r0
 32c:	80100e42 	andshi	r0, r0, r2, asr #28
 330:	82038104 	andhi	r8, r3, #1
 334:	42018302 	andmi	r8, r1, #134217728	; 0x8000000
 338:	07841c0e 	streq	r1, [r4, lr, lsl #24]
 33c:	058e0685 	streq	r0, [lr, #1669]	; 0x685
 340:	5a280e44 	bpl	a03c58 <__bss_end__+0x9f8cf8>
 344:	ce421c0e 	cdpgt	12, 4, cr1, cr2, cr14, {0}
 348:	100ec4c5 	andne	ip, lr, r5, asr #9
 34c:	c1c2c342 	bicgt	ip, r2, r2, asr #6
 350:	00000ec0 	andeq	r0, r0, r0, asr #29
 354:	0000000c 	andeq	r0, r0, ip
 358:	ffffffff 			; <UNDEFINED> instruction: 0xffffffff
 35c:	7c020001 	stcvc	0, cr0, [r2], {1}
 360:	000d0c0e 	andeq	r0, sp, lr, lsl #24
 364:	00000018 	andeq	r0, r0, r8, lsl r0
 368:	00000354 	andeq	r0, r0, r4, asr r3
 36c:	00008d28 	andeq	r8, r0, r8, lsr #26
 370:	00000038 	andeq	r0, r0, r8, lsr r0
 374:	84100e42 	ldrhi	r0, [r0], #-3650	; 0xfffff1be
 378:	86038504 	strhi	r8, [r3], -r4, lsl #10
 37c:	00018e02 	andeq	r8, r1, r2, lsl #28
 380:	0000000c 	andeq	r0, r0, ip
 384:	ffffffff 			; <UNDEFINED> instruction: 0xffffffff
 388:	7c020001 	stcvc	0, cr0, [r2], {1}
 38c:	000d0c0e 	andeq	r0, sp, lr, lsl #24
 390:	0000002c 	andeq	r0, r0, ip, lsr #32
 394:	00000380 	andeq	r0, r0, r0, lsl #7
 398:	00008d60 	andeq	r8, r0, r0, ror #26
 39c:	00000328 	andeq	r0, r0, r8, lsr #6
 3a0:	84180e42 	ldrhi	r0, [r8], #-3650	; 0xfffff1be
 3a4:	86058506 	strhi	r8, [r5], -r6, lsl #10
 3a8:	88038704 	stmdahi	r3, {r2, r8, r9, sl, pc}
 3ac:	46018e02 	strmi	r8, [r1], -r2, lsl #28
 3b0:	c002600e 	andgt	r6, r2, lr
 3b4:	42180e0a 	andsmi	r0, r8, #160	; 0xa0
 3b8:	0a8e020b 	beq	fe380bec <__bss_end__+0xfe375c8c>
 3bc:	0b42180e 	bleq	10863fc <__bss_end__+0x107b49c>
 3c0:	00000014 	andeq	r0, r0, r4, lsl r0
 3c4:	00000380 	andeq	r0, r0, r0, lsl #7
 3c8:	00009088 	andeq	r9, r0, r8, lsl #1
 3cc:	00000060 	andeq	r0, r0, r0, rrx
 3d0:	8e040e52 	mcrhi	14, 0, r0, cr4, cr2, {2}
 3d4:	100e4401 	andne	r4, lr, r1, lsl #8
 3d8:	0000002c 	andeq	r0, r0, ip, lsr #32
 3dc:	00000380 	andeq	r0, r0, r0, lsl #7
 3e0:	000090e8 	andeq	r9, r0, r8, ror #1
 3e4:	0000062c 	andeq	r0, r0, ip, lsr #12
 3e8:	84240e42 	strthi	r0, [r4], #-3650	; 0xfffff1be
 3ec:	86088509 	strhi	r8, [r8], -r9, lsl #10
 3f0:	88068707 	stmdahi	r6, {r0, r1, r2, r8, r9, sl, pc}
 3f4:	8a048905 	bhi	122810 <__bss_end__+0x1178b0>
 3f8:	8e028b03 	vmlahi.f64	d8, d2, d3
 3fc:	c00e5201 	andgt	r5, lr, r1, lsl #4
 400:	0a860202 	beq	fe180c10 <__bss_end__+0xfe175cb0>
 404:	0b42240e 	bleq	1089444 <__bss_end__+0x107e4e4>
 408:	0000000c 	andeq	r0, r0, ip
 40c:	ffffffff 			; <UNDEFINED> instruction: 0xffffffff
 410:	7c020001 	stcvc	0, cr0, [r2], {1}
 414:	000d0c0e 	andeq	r0, sp, lr, lsl #24
 418:	00000014 	andeq	r0, r0, r4, lsl r0
 41c:	00000408 	andeq	r0, r0, r8, lsl #8
 420:	00009714 	andeq	r9, r0, r4, lsl r7
 424:	0000002c 	andeq	r0, r0, ip, lsr #32
 428:	84080e44 	strhi	r0, [r8], #-3652	; 0xfffff1bc
 42c:	00018e02 	andeq	r8, r1, r2, lsl #28
 430:	0000000c 	andeq	r0, r0, ip
 434:	ffffffff 			; <UNDEFINED> instruction: 0xffffffff
 438:	7c020001 	stcvc	0, cr0, [r2], {1}
 43c:	000d0c0e 	andeq	r0, sp, lr, lsl #24
 440:	00000018 	andeq	r0, r0, r8, lsl r0
 444:	00000430 	andeq	r0, r0, r0, lsr r4
 448:	00009740 	andeq	r9, r0, r0, asr #14
 44c:	000000f8 	strdeq	r0, [r0], -r8
 450:	84100e42 	ldrhi	r0, [r0], #-3650	; 0xfffff1be
 454:	86038504 	strhi	r8, [r3], -r4, lsl #10
 458:	00018e02 	andeq	r8, r1, r2, lsl #28
 45c:	0000000c 	andeq	r0, r0, ip
 460:	ffffffff 			; <UNDEFINED> instruction: 0xffffffff
 464:	7c020001 	stcvc	0, cr0, [r2], {1}
 468:	000d0c0e 	andeq	r0, sp, lr, lsl #24
 46c:	0000000c 	andeq	r0, r0, ip
 470:	0000045c 	andeq	r0, r0, ip, asr r4
 474:	00009838 	andeq	r9, r0, r8, lsr r8
 478:	00000004 	andeq	r0, r0, r4
 47c:	0000000c 	andeq	r0, r0, ip
 480:	ffffffff 			; <UNDEFINED> instruction: 0xffffffff
 484:	7c020001 	stcvc	0, cr0, [r2], {1}
 488:	000d0c0e 	andeq	r0, sp, lr, lsl #24
 48c:	0000000c 	andeq	r0, r0, ip
 490:	0000047c 	andeq	r0, r0, ip, ror r4
 494:	0000983c 	andeq	r9, r0, ip, lsr r8
 498:	00000018 	andeq	r0, r0, r8, lsl r0
 49c:	0000000c 	andeq	r0, r0, ip
 4a0:	0000047c 	andeq	r0, r0, ip, ror r4
 4a4:	00009854 	andeq	r9, r0, r4, asr r8
 4a8:	00000014 	andeq	r0, r0, r4, lsl r0
 4ac:	00000014 	andeq	r0, r0, r4, lsl r0
 4b0:	0000047c 	andeq	r0, r0, ip, ror r4
 4b4:	00009868 	andeq	r9, r0, r8, ror #16
 4b8:	00000060 	andeq	r0, r0, r0, rrx
 4bc:	84080e42 	strhi	r0, [r8], #-3650	; 0xfffff1be
 4c0:	00018e02 	andeq	r8, r1, r2, lsl #28
 4c4:	0000000c 	andeq	r0, r0, ip
 4c8:	ffffffff 			; <UNDEFINED> instruction: 0xffffffff
 4cc:	7c020001 	stcvc	0, cr0, [r2], {1}
 4d0:	000d0c0e 	andeq	r0, sp, lr, lsl #24
 4d4:	0000000c 	andeq	r0, r0, ip
 4d8:	000004c4 	andeq	r0, r0, r4, asr #9
 4dc:	000098c8 	andeq	r9, r0, r8, asr #17
 4e0:	0000000c 	andeq	r0, r0, ip
 4e4:	00000014 	andeq	r0, r0, r4, lsl r0
 4e8:	000004c4 	andeq	r0, r0, r4, asr #9
 4ec:	000098d4 	ldrdeq	r9, [r0], -r4
 4f0:	00000024 	andeq	r0, r0, r4, lsr #32
 4f4:	84080e42 	strhi	r0, [r8], #-3650	; 0xfffff1be
 4f8:	00018e02 	andeq	r8, r1, r2, lsl #28
 4fc:	0000001c 	andeq	r0, r0, ip, lsl r0
 500:	000004c4 	andeq	r0, r0, r4, asr #9
 504:	000098f8 	strdeq	r9, [r0], -r8
 508:	00000048 	andeq	r0, r0, r8, asr #32
 50c:	84180e42 	ldrhi	r0, [r8], #-3650	; 0xfffff1be
 510:	86058506 	strhi	r8, [r5], -r6, lsl #10
 514:	88038704 	stmdahi	r3, {r2, r8, r9, sl, pc}
 518:	00018e02 	andeq	r8, r1, r2, lsl #28
 51c:	0000001c 	andeq	r0, r0, ip, lsl r0
 520:	000004c4 	andeq	r0, r0, r4, asr #9
 524:	00009940 	andeq	r9, r0, r0, asr #18
 528:	00000050 	andeq	r0, r0, r0, asr r0
 52c:	84180e42 	ldrhi	r0, [r8], #-3650	; 0xfffff1be
 530:	86058506 	strhi	r8, [r5], -r6, lsl #10
 534:	88038704 	stmdahi	r3, {r2, r8, r9, sl, pc}
 538:	00018e02 	andeq	r8, r1, r2, lsl #28
 53c:	0000001c 	andeq	r0, r0, ip, lsl r0
 540:	000004c4 	andeq	r0, r0, r4, asr #9
 544:	00009990 	muleq	r0, r0, r9
 548:	00000054 	andeq	r0, r0, r4, asr r0
 54c:	84180e42 	ldrhi	r0, [r8], #-3650	; 0xfffff1be
 550:	86058506 	strhi	r8, [r5], -r6, lsl #10
 554:	88038704 	stmdahi	r3, {r2, r8, r9, sl, pc}
 558:	00018e02 	andeq	r8, r1, r2, lsl #28
 55c:	0000000c 	andeq	r0, r0, ip
 560:	ffffffff 			; <UNDEFINED> instruction: 0xffffffff
 564:	7c020001 	stcvc	0, cr0, [r2], {1}
 568:	000d0c0e 	andeq	r0, sp, lr, lsl #24
 56c:	00000018 	andeq	r0, r0, r8, lsl r0
 570:	0000055c 	andeq	r0, r0, ip, asr r5
 574:	000099e4 	andeq	r9, r0, r4, ror #19
 578:	00000020 	andeq	r0, r0, r0, lsr #32
 57c:	84100e42 	ldrhi	r0, [r0], #-3650	; 0xfffff1be
 580:	86038504 	strhi	r8, [r3], -r4, lsl #10
 584:	00018e02 	andeq	r8, r1, r2, lsl #28
 588:	00000018 	andeq	r0, r0, r8, lsl r0
 58c:	0000055c 	andeq	r0, r0, ip, asr r5
 590:	00009a04 	andeq	r9, r0, r4, lsl #20
 594:	00000020 	andeq	r0, r0, r0, lsr #32
 598:	84100e42 	ldrhi	r0, [r0], #-3650	; 0xfffff1be
 59c:	86038504 	strhi	r8, [r3], -r4, lsl #10
 5a0:	00018e02 	andeq	r8, r1, r2, lsl #28
 5a4:	00000014 	andeq	r0, r0, r4, lsl r0
 5a8:	0000055c 	andeq	r0, r0, ip, asr r5
 5ac:	00009a24 	andeq	r9, r0, r4, lsr #20
 5b0:	000000b0 	strheq	r0, [r0], -r0	; <UNPREDICTABLE>
 5b4:	84080e42 	strhi	r0, [r8], #-3650	; 0xfffff1be
 5b8:	00018e02 	andeq	r8, r1, r2, lsl #28
 5bc:	00000014 	andeq	r0, r0, r4, lsl r0
 5c0:	0000055c 	andeq	r0, r0, ip, asr r5
 5c4:	00009ad4 	ldrdeq	r9, [r0], -r4
 5c8:	00000018 	andeq	r0, r0, r8, lsl r0
 5cc:	84080e42 	strhi	r0, [r8], #-3650	; 0xfffff1be
 5d0:	00018e02 	andeq	r8, r1, r2, lsl #28
 5d4:	00000014 	andeq	r0, r0, r4, lsl r0
 5d8:	0000055c 	andeq	r0, r0, ip, asr r5
 5dc:	00009aec 	andeq	r9, r0, ip, ror #21
 5e0:	00000020 	andeq	r0, r0, r0, lsr #32
 5e4:	84080e42 	strhi	r0, [r8], #-3650	; 0xfffff1be
 5e8:	00018e02 	andeq	r8, r1, r2, lsl #28
 5ec:	00000014 	andeq	r0, r0, r4, lsl r0
 5f0:	0000055c 	andeq	r0, r0, ip, asr r5
 5f4:	00009b0c 	andeq	r9, r0, ip, lsl #22
 5f8:	00000030 	andeq	r0, r0, r0, lsr r0
 5fc:	84080e42 	strhi	r0, [r8], #-3650	; 0xfffff1be
 600:	00018e02 	andeq	r8, r1, r2, lsl #28
 604:	00000014 	andeq	r0, r0, r4, lsl r0
 608:	0000055c 	andeq	r0, r0, ip, asr r5
 60c:	00009b3c 	andeq	r9, r0, ip, lsr fp
 610:	00000030 	andeq	r0, r0, r0, lsr r0
 614:	84080e42 	strhi	r0, [r8], #-3650	; 0xfffff1be
 618:	00018e02 	andeq	r8, r1, r2, lsl #28
 61c:	00000014 	andeq	r0, r0, r4, lsl r0
 620:	0000055c 	andeq	r0, r0, ip, asr r5
 624:	00009b6c 	andeq	r9, r0, ip, ror #22
 628:	00000010 	andeq	r0, r0, r0, lsl r0
 62c:	84080e42 	strhi	r0, [r8], #-3650	; 0xfffff1be
 630:	00018e02 	andeq	r8, r1, r2, lsl #28
 634:	00000014 	andeq	r0, r0, r4, lsl r0
 638:	0000055c 	andeq	r0, r0, ip, asr r5
 63c:	00009b7c 	andeq	r9, r0, ip, ror fp
 640:	00000020 	andeq	r0, r0, r0, lsr #32
 644:	84080e42 	strhi	r0, [r8], #-3650	; 0xfffff1be
 648:	00018e02 	andeq	r8, r1, r2, lsl #28
 64c:	00000014 	andeq	r0, r0, r4, lsl r0
 650:	0000055c 	andeq	r0, r0, ip, asr r5
 654:	00009b9c 	muleq	r0, ip, fp
 658:	00000014 	andeq	r0, r0, r4, lsl r0
 65c:	84080e42 	strhi	r0, [r8], #-3650	; 0xfffff1be
 660:	00018e02 	andeq	r8, r1, r2, lsl #28
 664:	00000014 	andeq	r0, r0, r4, lsl r0
 668:	0000055c 	andeq	r0, r0, ip, asr r5
 66c:	00009bb0 			; <UNDEFINED> instruction: 0x00009bb0
 670:	00000024 	andeq	r0, r0, r4, lsr #32
 674:	84080e42 	strhi	r0, [r8], #-3650	; 0xfffff1be
 678:	00018e02 	andeq	r8, r1, r2, lsl #28
 67c:	0000000c 	andeq	r0, r0, ip
 680:	ffffffff 			; <UNDEFINED> instruction: 0xffffffff
 684:	7c020001 	stcvc	0, cr0, [r2], {1}
 688:	000d0c0e 	andeq	r0, sp, lr, lsl #24
 68c:	0000000c 	andeq	r0, r0, ip
 690:	0000067c 	andeq	r0, r0, ip, ror r6
 694:	00009bd4 	ldrdeq	r9, [r0], -r4
 698:	00000010 	andeq	r0, r0, r0, lsl r0
 69c:	0000000c 	andeq	r0, r0, ip
 6a0:	0000067c 	andeq	r0, r0, ip, ror r6
 6a4:	00009be4 	andeq	r9, r0, r4, ror #23
 6a8:	00000010 	andeq	r0, r0, r0, lsl r0
 6ac:	0000000c 	andeq	r0, r0, ip
 6b0:	0000067c 	andeq	r0, r0, ip, ror r6
 6b4:	00009bf4 	strdeq	r9, [r0], -r4
 6b8:	00000010 	andeq	r0, r0, r0, lsl r0
 6bc:	0000001c 	andeq	r0, r0, ip, lsl r0
 6c0:	0000067c 	andeq	r0, r0, ip, ror r6
 6c4:	00009c04 	andeq	r9, r0, r4, lsl #24
 6c8:	0000009c 	muleq	r0, ip, r0
 6cc:	8e040e42 	cdphi	14, 0, cr0, cr4, cr2, {2}
 6d0:	100e4201 	andne	r4, lr, r1, lsl #4
 6d4:	040e0a58 	streq	r0, [lr], #-2648	; 0xfffff5a8
 6d8:	00000b42 	andeq	r0, r0, r2, asr #22
 6dc:	00000014 	andeq	r0, r0, r4, lsl r0
 6e0:	0000067c 	andeq	r0, r0, ip, ror r6
 6e4:	00009ca0 	andeq	r9, r0, r0, lsr #25
 6e8:	00000058 	andeq	r0, r0, r8, asr r0
 6ec:	84080e42 	strhi	r0, [r8], #-3650	; 0xfffff1be
 6f0:	00018e02 	andeq	r8, r1, r2, lsl #28
 6f4:	0000001c 	andeq	r0, r0, ip, lsl r0
 6f8:	0000067c 	andeq	r0, r0, ip, ror r6
 6fc:	00009cf8 	strdeq	r9, [r0], -r8
 700:	00000098 	muleq	r0, r8, r0
 704:	8e040e42 	cdphi	14, 0, cr0, cr4, cr2, {2}
 708:	100e4201 	andne	r4, lr, r1, lsl #4
 70c:	040e0a58 	streq	r0, [lr], #-2648	; 0xfffff5a8
 710:	00000b42 	andeq	r0, r0, r2, asr #22
 714:	00000020 	andeq	r0, r0, r0, lsr #32
 718:	0000067c 	andeq	r0, r0, ip, ror r6
 71c:	00009d90 	muleq	r0, r0, sp
 720:	00000064 	andeq	r0, r0, r4, rrx
 724:	840c0e42 	strhi	r0, [ip], #-3650	; 0xfffff1be
 728:	8e028503 	cfsh32hi	mvfx8, mvfx2, #3
 72c:	180e4201 	stmdane	lr, {r0, r9, lr}
 730:	0c0e0a54 			; <UNDEFINED> instruction: 0x0c0e0a54
 734:	00000b42 	andeq	r0, r0, r2, asr #22
 738:	0000001c 	andeq	r0, r0, ip, lsl r0
 73c:	0000067c 	andeq	r0, r0, ip, ror r6
 740:	00009df4 	strdeq	r9, [r0], -r4
 744:	00000118 	andeq	r0, r0, r8, lsl r1
 748:	8e040e42 	cdphi	14, 0, cr0, cr4, cr2, {2}
 74c:	100e4201 	andne	r4, lr, r1, lsl #4
 750:	040e0a6c 	streq	r0, [lr], #-2668	; 0xfffff594
 754:	00000b42 	andeq	r0, r0, r2, asr #22
 758:	0000000c 	andeq	r0, r0, ip
 75c:	0000067c 	andeq	r0, r0, ip, ror r6
 760:	00009f0c 	andeq	r9, r0, ip, lsl #30
 764:	00000004 	andeq	r0, r0, r4
 768:	0000000c 	andeq	r0, r0, ip
 76c:	0000067c 	andeq	r0, r0, ip, ror r6
 770:	00009f10 	andeq	r9, r0, r0, lsl pc
 774:	00000014 	andeq	r0, r0, r4, lsl r0
 778:	00000014 	andeq	r0, r0, r4, lsl r0
 77c:	0000067c 	andeq	r0, r0, ip, ror r6
 780:	00009f24 	andeq	r9, r0, r4, lsr #30
 784:	00000060 	andeq	r0, r0, r0, rrx
 788:	8e040e58 	mcrhi	14, 0, r0, cr4, cr8, {2}
 78c:	100e4201 	andne	r4, lr, r1, lsl #4
 790:	0000000c 	andeq	r0, r0, ip
 794:	ffffffff 			; <UNDEFINED> instruction: 0xffffffff
 798:	7c020001 	stcvc	0, cr0, [r2], {1}
 79c:	000d0c0e 	andeq	r0, sp, lr, lsl #24
 7a0:	00000020 	andeq	r0, r0, r0, lsr #32
 7a4:	00000790 	muleq	r0, r0, r7
 7a8:	00009f84 	andeq	r9, r0, r4, lsl #31
 7ac:	00000060 	andeq	r0, r0, r0, rrx
 7b0:	84100e48 	ldrhi	r0, [r0], #-3656	; 0xfffff1b8
 7b4:	86038504 	strhi	r8, [r3], -r4, lsl #10
 7b8:	64018e02 	strvs	r8, [r1], #-3586	; 0xfffff1fe
 7bc:	c4c5c6ce 	strbgt	ip, [r5], #1742	; 0x6ce
 7c0:	0000000e 	andeq	r0, r0, lr
 7c4:	00000020 	andeq	r0, r0, r0, lsr #32
 7c8:	00000790 	muleq	r0, r0, r7
 7cc:	00009fe4 	andeq	r9, r0, r4, ror #31
 7d0:	00000058 	andeq	r0, r0, r8, asr r0
 7d4:	84100e46 	ldrhi	r0, [r0], #-3654	; 0xfffff1ba
 7d8:	86038504 	strhi	r8, [r3], -r4, lsl #10
 7dc:	62018e02 	andvs	r8, r1, #2, 28
 7e0:	c4c5c6ce 	strbgt	ip, [r5], #1742	; 0x6ce
 7e4:	0000000e 	andeq	r0, r0, lr
 7e8:	0000000c 	andeq	r0, r0, ip
 7ec:	00000790 	muleq	r0, r0, r7
 7f0:	0000a03c 	andeq	sl, r0, ip, lsr r0
 7f4:	00000018 	andeq	r0, r0, r8, lsl r0
 7f8:	0000000c 	andeq	r0, r0, ip
 7fc:	00000790 	muleq	r0, r0, r7
 800:	0000a054 	andeq	sl, r0, r4, asr r0
 804:	00000018 	andeq	r0, r0, r8, lsl r0
 808:	00000020 	andeq	r0, r0, r0, lsr #32
 80c:	00000790 	muleq	r0, r0, r7
 810:	0000a06c 	andeq	sl, r0, ip, rrx
 814:	00000058 	andeq	r0, r0, r8, asr r0
 818:	84100e46 	ldrhi	r0, [r0], #-3654	; 0xfffff1ba
 81c:	86038504 	strhi	r8, [r3], -r4, lsl #10
 820:	62018e02 	andvs	r8, r1, #2, 28
 824:	c4c5c6ce 	strbgt	ip, [r5], #1742	; 0x6ce
 828:	0000000e 	andeq	r0, r0, lr
 82c:	0000000c 	andeq	r0, r0, ip
 830:	00000790 	muleq	r0, r0, r7
 834:	0000a0c4 	andeq	sl, r0, r4, asr #1
 838:	00000030 	andeq	r0, r0, r0, lsr r0
 83c:	00000014 	andeq	r0, r0, r4, lsl r0
 840:	00000790 	muleq	r0, r0, r7
 844:	0000a0f4 	strdeq	sl, [r0], -r4
 848:	00000028 	andeq	r0, r0, r8, lsr #32
 84c:	84080e42 	strhi	r0, [r8], #-3650	; 0xfffff1be
 850:	00018e02 	andeq	r8, r1, r2, lsl #28
 854:	0000000c 	andeq	r0, r0, ip
 858:	ffffffff 			; <UNDEFINED> instruction: 0xffffffff
 85c:	7c020001 	stcvc	0, cr0, [r2], {1}
 860:	000d0c0e 	andeq	r0, sp, lr, lsl #24
 864:	00000014 	andeq	r0, r0, r4, lsl r0
 868:	00000854 	andeq	r0, r0, r4, asr r8
 86c:	0000a11c 	andeq	sl, r0, ip, lsl r1
 870:	00000014 	andeq	r0, r0, r4, lsl r0
 874:	84080e42 	strhi	r0, [r8], #-3650	; 0xfffff1be
 878:	00018e02 	andeq	r8, r1, r2, lsl #28
 87c:	0000000c 	andeq	r0, r0, ip
 880:	00000854 	andeq	r0, r0, r4, asr r8
 884:	0000a130 	andeq	sl, r0, r0, lsr r1
 888:	00000018 	andeq	r0, r0, r8, lsl r0
 88c:	0000000c 	andeq	r0, r0, ip
 890:	00000854 	andeq	r0, r0, r4, asr r8
 894:	0000a148 	andeq	sl, r0, r8, asr #2
 898:	00000010 	andeq	r0, r0, r0, lsl r0
 89c:	0000000c 	andeq	r0, r0, ip
 8a0:	ffffffff 			; <UNDEFINED> instruction: 0xffffffff
 8a4:	7c020001 	stcvc	0, cr0, [r2], {1}
 8a8:	000d0c0e 	andeq	r0, sp, lr, lsl #24
 8ac:	0000000c 	andeq	r0, r0, ip
 8b0:	0000089c 	muleq	r0, ip, r8
 8b4:	0000a158 	andeq	sl, r0, r8, asr r1
 8b8:	0000002c 	andeq	r0, r0, ip, lsr #32
 8bc:	0000000c 	andeq	r0, r0, ip
 8c0:	ffffffff 			; <UNDEFINED> instruction: 0xffffffff
 8c4:	7c020001 	stcvc	0, cr0, [r2], {1}
 8c8:	000d0c0e 	andeq	r0, sp, lr, lsl #24
 8cc:	0000000c 	andeq	r0, r0, ip
 8d0:	000008bc 			; <UNDEFINED> instruction: 0x000008bc
 8d4:	0000a184 	andeq	sl, r0, r4, lsl #3
 8d8:	00000044 	andeq	r0, r0, r4, asr #32
 8dc:	0000000c 	andeq	r0, r0, ip
 8e0:	ffffffff 			; <UNDEFINED> instruction: 0xffffffff
 8e4:	7c020001 	stcvc	0, cr0, [r2], {1}
 8e8:	000d0c0e 	andeq	r0, sp, lr, lsl #24
 8ec:	0000000c 	andeq	r0, r0, ip
 8f0:	000008dc 	ldrdeq	r0, [r0], -ip
 8f4:	0000a1c8 	andeq	sl, r0, r8, asr #3
 8f8:	00000018 	andeq	r0, r0, r8, lsl r0
 8fc:	0000000c 	andeq	r0, r0, ip
 900:	ffffffff 			; <UNDEFINED> instruction: 0xffffffff
 904:	7c020001 	stcvc	0, cr0, [r2], {1}
 908:	000d0c0e 	andeq	r0, sp, lr, lsl #24
 90c:	0000000c 	andeq	r0, r0, ip
 910:	000008fc 	strdeq	r0, [r0], -ip
 914:	0000a1e0 	andeq	sl, r0, r0, ror #3
 918:	00000030 	andeq	r0, r0, r0, lsr r0
 91c:	0000000c 	andeq	r0, r0, ip
 920:	ffffffff 			; <UNDEFINED> instruction: 0xffffffff
 924:	7c020001 	stcvc	0, cr0, [r2], {1}
 928:	000d0c0e 	andeq	r0, sp, lr, lsl #24
 92c:	0000000c 	andeq	r0, r0, ip
 930:	0000091c 	andeq	r0, r0, ip, lsl r9
 934:	0000a210 	andeq	sl, r0, r0, lsl r2
 938:	00000004 	andeq	r0, r0, r4
