
tests-2.0/part2-test6-no-leak.elf:     file format elf32-littlearm


Disassembly of section .text:

00008000 <__code_start__>:
    8000:	e3a00013 	mov	r0, #19, 0
    8004:	e3800080 	orr	r0, r0, #128, 0	; 0x80
    8008:	e129f000 	msr	CPSR_fc, r0
    800c:	e3a01000 	mov	r1, #0, 0
    8010:	ee071f95 	mcr	15, 0, r1, cr7, cr5, {4}
    8014:	e3a0d302 	mov	sp, #134217728	; 0x8000000
    8018:	e3a0b000 	mov	fp, #0, 0
    801c:	eb000677 	bl	9a00 <_cstart>
    8020:	eb0006cc 	bl	9b58 <rpi_reboot>

00008024 <PUT32>:
    8024:	e5801000 	str	r1, [r0]
    8028:	e12fff1e 	bx	lr

0000802c <GET32>:
    802c:	e5900000 	ldr	r0, [r0]
    8030:	e12fff1e 	bx	lr

00008034 <BRANCHTO>:
    8034:	e12fff10 	bx	r0
    8038:	625f6b63 	subsvs	r6, pc, #101376	; 0x18c00
    803c:	695f6b6c 	ldmdbvs	pc, {r2, r3, r5, r6, r8, r9, fp, sp, lr}^	; <UNPREDICTABLE>
    8040:	00000064 	andeq	r0, r0, r4, rrx
    8044:	ff00000c 			; <UNDEFINED> instruction: 0xff00000c

00008048 <ck_blk_id>:
    8048:	e1a0c00d 	mov	ip, sp
    804c:	e92dd800 	push	{fp, ip, lr, pc}
    8050:	e24cb004 	sub	fp, ip, #4, 0
    8054:	e51000a8 	ldr	r0, [r0, #-168]	; 0xffffff58
    8058:	e89da800 	ldm	sp, {fp, sp, pc}
    805c:	74736574 	ldrbtvc	r6, [r3], #-1396	; 0xfffffa8c
    8060:	00000031 	andeq	r0, r0, r1, lsr r0
    8064:	ff000008 			; <UNDEFINED> instruction: 0xff000008

00008068 <test1>:
    8068:	e1a0c00d 	mov	ip, sp
    806c:	e92dd810 	push	{r4, fp, ip, lr, pc}
    8070:	e24cb004 	sub	fp, ip, #4, 0
    8074:	e24dd014 	sub	sp, sp, #20, 0
    8078:	e59f3044 	ldr	r3, [pc, #68]	; 80c4 <test1+0x5c>
    807c:	e50b3020 	str	r3, [fp, #-32]	; 0xffffffe0
    8080:	e59f3040 	ldr	r3, [pc, #64]	; 80c8 <test1+0x60>
    8084:	e50b301c 	str	r3, [fp, #-28]	; 0xffffffe4
    8088:	e3a0300c 	mov	r3, #12, 0
    808c:	e50b3018 	str	r3, [fp, #-24]	; 0xffffffe8
    8090:	e24b3014 	sub	r3, fp, #20, 0
    8094:	e913000e 	ldmdb	r3, {r1, r2, r3}
    8098:	e3a00004 	mov	r0, #4, 0
    809c:	eb00010a 	bl	84cc <ckalloc>
    80a0:	e1a04000 	mov	r4, r0
    80a4:	ebffffe7 	bl	8048 <ck_blk_id>
    80a8:	e1a01000 	mov	r1, r0
    80ac:	e1a02004 	mov	r2, r4
    80b0:	e59f0014 	ldr	r0, [pc, #20]	; 80cc <test1+0x64>
    80b4:	eb0003b5 	bl	8f90 <printk>
    80b8:	e2840001 	add	r0, r4, #1, 0
    80bc:	e24bd010 	sub	sp, fp, #16, 0
    80c0:	e89da810 	ldm	sp, {r4, fp, sp, pc}
    80c4:	0000a520 	andeq	sl, r0, r0, lsr #10
    80c8:	0000a620 	andeq	sl, r0, r0, lsr #12
    80cc:	0000a540 	andeq	sl, r0, r0, asr #10
    80d0:	6d746f6e 	ldclvs	15, cr6, [r4, #-440]!	; 0xfffffe48
    80d4:	006e6961 	rsbeq	r6, lr, r1, ror #18
    80d8:	ff000008 			; <UNDEFINED> instruction: 0xff000008

000080dc <notmain>:
    80dc:	e1a0c00d 	mov	ip, sp
    80e0:	e92dd810 	push	{r4, fp, ip, lr, pc}
    80e4:	e24cb004 	sub	fp, ip, #4, 0
    80e8:	e24dd00c 	sub	sp, sp, #12, 0
    80ec:	e59f0078 	ldr	r0, [pc, #120]	; 816c <notmain+0x90>
    80f0:	eb0003a6 	bl	8f90 <printk>
    80f4:	ebffffdb 	bl	8068 <test1>
    80f8:	e1a04000 	mov	r4, r0
    80fc:	e1a01000 	mov	r1, r0
    8100:	e59f0068 	ldr	r0, [pc, #104]	; 8170 <notmain+0x94>
    8104:	eb0003a1 	bl	8f90 <printk>
    8108:	e3a00000 	mov	r0, #0, 0
    810c:	eb000302 	bl	8d1c <ck_find_leaks>
    8110:	e3500000 	cmp	r0, #0, 0
    8114:	1a000007 	bne	8138 <notmain+0x5c>
    8118:	e3a00001 	mov	r0, #1, 0
    811c:	eb0002fe 	bl	8d1c <ck_find_leaks>
    8120:	e3500000 	cmp	r0, #0, 0
    8124:	0a000009 	beq	8150 <notmain+0x74>
    8128:	e59f0044 	ldr	r0, [pc, #68]	; 8174 <notmain+0x98>
    812c:	eb000397 	bl	8f90 <printk>
    8130:	e24bd010 	sub	sp, fp, #16, 0
    8134:	e89da810 	ldm	sp, {r4, fp, sp, pc}
    8138:	e3a0301b 	mov	r3, #27, 0
    813c:	e59f2034 	ldr	r2, [pc, #52]	; 8178 <notmain+0x9c>
    8140:	e59f1034 	ldr	r1, [pc, #52]	; 817c <notmain+0xa0>
    8144:	e59f0034 	ldr	r0, [pc, #52]	; 8180 <notmain+0xa4>
    8148:	eb000390 	bl	8f90 <printk>
    814c:	eb000620 	bl	99d4 <clean_reboot>
    8150:	e58d4000 	str	r4, [sp]
    8154:	e3a03020 	mov	r3, #32, 0
    8158:	e59f2018 	ldr	r2, [pc, #24]	; 8178 <notmain+0x9c>
    815c:	e59f1018 	ldr	r1, [pc, #24]	; 817c <notmain+0xa0>
    8160:	e59f001c 	ldr	r0, [pc, #28]	; 8184 <notmain+0xa8>
    8164:	eb000389 	bl	8f90 <printk>
    8168:	eb000619 	bl	99d4 <clean_reboot>
    816c:	0000a568 	andeq	sl, r0, r8, ror #10
    8170:	0000a574 	andeq	sl, r0, r4, ror r5
    8174:	0000a5c0 	andeq	sl, r0, r0, asr #11
    8178:	0000a628 	andeq	sl, r0, r8, lsr #12
    817c:	0000a520 	andeq	sl, r0, r0, lsr #10
    8180:	0000a590 	muleq	r0, r0, r5
    8184:	0000a5e8 	andeq	sl, r0, r8, ror #11
    8188:	665f6b63 	ldrbvs	r6, [pc], -r3, ror #22
    818c:	74737269 	ldrbtvc	r7, [r3], #-617	; 0xfffffd97
    8190:	7264685f 	rsbvc	r6, r4, #6225920	; 0x5f0000
    8194:	00000000 	andeq	r0, r0, r0
    8198:	ff000010 			; <UNDEFINED> instruction: 0xff000010

0000819c <ck_first_hdr>:
    819c:	e1a0c00d 	mov	ip, sp
    81a0:	e92dd800 	push	{fp, ip, lr, pc}
    81a4:	e24cb004 	sub	fp, ip, #4, 0
    81a8:	e59f3004 	ldr	r3, [pc, #4]	; 81b4 <ck_first_hdr+0x18>
    81ac:	e5930000 	ldr	r0, [r3]
    81b0:	e89da800 	ldm	sp, {fp, sp, pc}
    81b4:	0000adf8 	strdeq	sl, [r0], -r8
    81b8:	6e5f6b63 	vnmlavs.f64	d22, d15, d19
    81bc:	5f747865 	svcpl	0x00747865
    81c0:	00726468 	rsbseq	r6, r2, r8, ror #8
    81c4:	ff00000c 			; <UNDEFINED> instruction: 0xff00000c

000081c8 <ck_next_hdr>:
    81c8:	e1a0c00d 	mov	ip, sp
    81cc:	e92dd800 	push	{fp, ip, lr, pc}
    81d0:	e24cb004 	sub	fp, ip, #4, 0
    81d4:	e3500000 	cmp	r0, #0, 0
    81d8:	089da800 	ldmeq	sp, {fp, sp, pc}
    81dc:	e5900000 	ldr	r0, [r0]
    81e0:	e89da800 	ldm	sp, {fp, sp, pc}
    81e4:	685f6b63 	ldmdavs	pc, {r0, r1, r5, r6, r8, r9, fp, sp, lr}^	; <UNPREDICTABLE>
    81e8:	735f7264 	cmpvc	pc, #100, 4	; 0x40000006
    81ec:	74726174 	ldrbtvc	r6, [r2], #-372	; 0xfffffe8c
    81f0:	00000000 	andeq	r0, r0, r0
    81f4:	ff000010 			; <UNDEFINED> instruction: 0xff000010

000081f8 <ck_hdr_start>:
    81f8:	e1a0c00d 	mov	ip, sp
    81fc:	e92dd800 	push	{fp, ip, lr, pc}
    8200:	e24cb004 	sub	fp, ip, #4, 0
    8204:	e28000b8 	add	r0, r0, #184, 0	; 0xb8
    8208:	e89da800 	ldm	sp, {fp, sp, pc}
    820c:	685f6b63 	ldmdavs	pc, {r0, r1, r5, r6, r8, r9, fp, sp, lr}^	; <UNPREDICTABLE>
    8210:	655f7264 	ldrbvs	r7, [pc, #-612]	; 7fb4 <__code_start__-0x4c>
    8214:	0000646e 	andeq	r6, r0, lr, ror #8
    8218:	ff00000c 			; <UNDEFINED> instruction: 0xff00000c

0000821c <ck_hdr_end>:
    821c:	e1a0c00d 	mov	ip, sp
    8220:	e92dd830 	push	{r4, r5, fp, ip, lr, pc}
    8224:	e24cb004 	sub	fp, ip, #4, 0
    8228:	e1a04000 	mov	r4, r0
    822c:	ebfffff1 	bl	81f8 <ck_hdr_start>
    8230:	e5943008 	ldr	r3, [r4, #8]
    8234:	e0800003 	add	r0, r0, r3
    8238:	e89da830 	ldm	sp, {r4, r5, fp, sp, pc}
    823c:	705f6b63 	subsvc	r6, pc, r3, ror #22
    8240:	695f7274 	ldmdbvs	pc, {r2, r4, r5, r6, r9, ip, sp, lr}^	; <UNPREDICTABLE>
    8244:	6c625f6e 	stclvs	15, cr5, [r2], #-440	; 0xfffffe48
    8248:	006b636f 	rsbeq	r6, fp, pc, ror #6
    824c:	ff000010 			; <UNDEFINED> instruction: 0xff000010

00008250 <ck_ptr_in_block>:
    8250:	e1a0c00d 	mov	ip, sp
    8254:	e92dd8f0 	push	{r4, r5, r6, r7, fp, ip, lr, pc}
    8258:	e24cb004 	sub	fp, ip, #4, 0
    825c:	e1a06000 	mov	r6, r0
    8260:	e1a04001 	mov	r4, r1
    8264:	ebffffe3 	bl	81f8 <ck_hdr_start>
    8268:	e1a05000 	mov	r5, r0
    826c:	e1a00006 	mov	r0, r6
    8270:	ebffffe9 	bl	821c <ck_hdr_end>
    8274:	e1550004 	cmp	r5, r4
    8278:	91540000 	cmpls	r4, r0
    827c:	33a00001 	movcc	r0, #1, 0
    8280:	23a00000 	movcs	r0, #0, 0
    8284:	e89da8f0 	ldm	sp, {r4, r5, r6, r7, fp, sp, pc}
    8288:	705f6b63 	subsvc	r6, pc, r3, ror #22
    828c:	695f7274 	ldmdbvs	pc, {r2, r4, r5, r6, r9, ip, sp, lr}^	; <UNPREDICTABLE>
    8290:	6c615f73 	stclvs	15, cr5, [r1], #-460	; 0xfffffe34
    8294:	65636f6c 	strbvs	r6, [r3, #-3948]!	; 0xfffff094
    8298:	00000064 	andeq	r0, r0, r4, rrx
    829c:	ff000014 			; <UNDEFINED> instruction: 0xff000014

000082a0 <ck_ptr_is_alloced>:
    82a0:	e1a0c00d 	mov	ip, sp
    82a4:	e92dd830 	push	{r4, r5, fp, ip, lr, pc}
    82a8:	e24cb004 	sub	fp, ip, #4, 0
    82ac:	e1a05000 	mov	r5, r0
    82b0:	ebffffb9 	bl	819c <ck_first_hdr>
    82b4:	e1a04000 	mov	r4, r0
    82b8:	e3540000 	cmp	r4, #0, 0
    82bc:	0a00000c 	beq	82f4 <ck_ptr_is_alloced+0x54>
    82c0:	e1a01005 	mov	r1, r5
    82c4:	e1a00004 	mov	r0, r4
    82c8:	ebffffe0 	bl	8250 <ck_ptr_in_block>
    82cc:	e3500000 	cmp	r0, #0, 0
    82d0:	1a000003 	bne	82e4 <ck_ptr_is_alloced+0x44>
    82d4:	e1a00004 	mov	r0, r4
    82d8:	ebffffba 	bl	81c8 <ck_next_hdr>
    82dc:	e1a04000 	mov	r4, r0
    82e0:	eafffff4 	b	82b8 <ck_ptr_is_alloced+0x18>
    82e4:	e1a02004 	mov	r2, r4
    82e8:	e1a01005 	mov	r1, r5
    82ec:	e59f0008 	ldr	r0, [pc, #8]	; 82fc <ck_ptr_is_alloced+0x5c>
    82f0:	eb000326 	bl	8f90 <printk>
    82f4:	e1a00004 	mov	r0, r4
    82f8:	e89da830 	ldm	sp, {r4, r5, fp, sp, pc}
    82fc:	0000a630 	andeq	sl, r0, r0, lsr r6
    8300:	72666b63 	rsbvc	r6, r6, #101376	; 0x18c00
    8304:	00006565 	andeq	r6, r0, r5, ror #10
    8308:	ff000008 			; <UNDEFINED> instruction: 0xff000008

0000830c <ckfree>:
    830c:	e1a0c00d 	mov	ip, sp
    8310:	e92dd8f0 	push	{r4, r5, r6, r7, fp, ip, lr, pc}
    8314:	e24cb004 	sub	fp, ip, #4, 0
    8318:	e24dd010 	sub	sp, sp, #16, 0
    831c:	e1a04000 	mov	r4, r0
    8320:	e24b0028 	sub	r0, fp, #40, 0	; 0x28
    8324:	e880000e 	stm	r0, {r1, r2, r3}
    8328:	e244c098 	sub	ip, r4, #152, 0	; 0x98
    832c:	e8900007 	ldm	r0, {r0, r1, r2}
    8330:	e88c000b 	stm	ip, {r0, r1, r3}
    8334:	e1a05000 	mov	r5, r0
    8338:	e51b6024 	ldr	r6, [fp, #-36]	; 0xffffffdc
    833c:	e51b7020 	ldr	r7, [fp, #-32]	; 0xffffffe0
    8340:	e1a03007 	mov	r3, r7
    8344:	e1a02006 	mov	r2, r6
    8348:	e1a01000 	mov	r1, r0
    834c:	e59f00fc 	ldr	r0, [pc, #252]	; 8450 <ckfree+0x144>
    8350:	eb00030e 	bl	8f90 <printk>
    8354:	e1a01004 	mov	r1, r4
    8358:	e59f00f4 	ldr	r0, [pc, #244]	; 8454 <ckfree+0x148>
    835c:	eb00030b 	bl	8f90 <printk>
    8360:	e51430ac 	ldr	r3, [r4, #-172]	; 0xffffff54
    8364:	e353000b 	cmp	r3, #11, 0
    8368:	1a00000d 	bne	83a4 <ckfree+0x98>
    836c:	e3a03000 	mov	r3, #0, 0
    8370:	e353007f 	cmp	r3, #127, 0	; 0x7f
    8374:	ca000026 	bgt	8414 <ckfree+0x108>
    8378:	e0842003 	add	r2, r4, r3
    837c:	e5522082 	ldrb	r2, [r2, #-130]	; 0xffffff7e
    8380:	e35200fe 	cmp	r2, #254, 0	; 0xfe
    8384:	1a000010 	bne	83cc <ckfree+0xc0>
    8388:	e51420b0 	ldr	r2, [r4, #-176]	; 0xffffff50
    838c:	e0832002 	add	r2, r3, r2
    8390:	e7d42002 	ldrb	r2, [r4, r2]
    8394:	e35200fe 	cmp	r2, #254, 0	; 0xfe
    8398:	1a000014 	bne	83f0 <ckfree+0xe4>
    839c:	e2833001 	add	r3, r3, #1, 0
    83a0:	eafffff2 	b	8370 <ckfree+0x64>
    83a4:	eb0002b3 	bl	8e78 <backtrace>
    83a8:	e1a03007 	mov	r3, r7
    83ac:	e1a02006 	mov	r2, r6
    83b0:	e1a01005 	mov	r1, r5
    83b4:	e59f009c 	ldr	r0, [pc, #156]	; 8458 <ckfree+0x14c>
    83b8:	eb0002f4 	bl	8f90 <printk>
    83bc:	e51410ac 	ldr	r1, [r4, #-172]	; 0xffffff54
    83c0:	e59f0094 	ldr	r0, [pc, #148]	; 845c <ckfree+0x150>
    83c4:	eb0002f1 	bl	8f90 <printk>
    83c8:	eb000581 	bl	99d4 <clean_reboot>
    83cc:	eb0002a9 	bl	8e78 <backtrace>
    83d0:	e1a03007 	mov	r3, r7
    83d4:	e1a02006 	mov	r2, r6
    83d8:	e1a01005 	mov	r1, r5
    83dc:	e59f0074 	ldr	r0, [pc, #116]	; 8458 <ckfree+0x14c>
    83e0:	eb0002ea 	bl	8f90 <printk>
    83e4:	e59f0074 	ldr	r0, [pc, #116]	; 8460 <ckfree+0x154>
    83e8:	eb0002e8 	bl	8f90 <printk>
    83ec:	eb000578 	bl	99d4 <clean_reboot>
    83f0:	eb0002a0 	bl	8e78 <backtrace>
    83f4:	e1a03007 	mov	r3, r7
    83f8:	e1a02006 	mov	r2, r6
    83fc:	e1a01005 	mov	r1, r5
    8400:	e59f0050 	ldr	r0, [pc, #80]	; 8458 <ckfree+0x14c>
    8404:	eb0002e1 	bl	8f90 <printk>
    8408:	e59f0054 	ldr	r0, [pc, #84]	; 8464 <ckfree+0x158>
    840c:	eb0002df 	bl	8f90 <printk>
    8410:	eb00056f 	bl	99d4 <clean_reboot>
    8414:	e3a03000 	mov	r3, #0, 0
    8418:	e51420b0 	ldr	r2, [r4, #-176]	; 0xffffff50
    841c:	e1520003 	cmp	r2, r3
    8420:	83e02001 	mvnhi	r2, #1, 0
    8424:	87c42003 	strbhi	r2, [r4, r3]
    8428:	82833001 	addhi	r3, r3, #1, 0
    842c:	8afffff9 	bhi	8418 <ckfree+0x10c>
    8430:	e3a0300c 	mov	r3, #12, 0
    8434:	e50430ac 	str	r3, [r4, #-172]	; 0xffffff54
    8438:	e2444098 	sub	r4, r4, #152, 0	; 0x98
    843c:	e24b301c 	sub	r3, fp, #28, 0
    8440:	e9130007 	ldmdb	r3, {r0, r1, r2}
    8444:	e8840007 	stm	r4, {r0, r1, r2}
    8448:	e24bd01c 	sub	sp, fp, #28, 0
    844c:	e89da8f0 	ldm	sp, {r4, r5, r6, r7, fp, sp, pc}
    8450:	0000a640 	andeq	sl, r0, r0, asr #12
    8454:	0000a64c 	andeq	sl, r0, ip, asr #12
    8458:	0000a65c 	andeq	sl, r0, ip, asr r6
    845c:	0000a674 	andeq	sl, r0, r4, ror r6
    8460:	0000a69c 	muleq	r0, ip, r6
    8464:	0000a6b8 			; <UNDEFINED> instruction: 0x0000a6b8
    8468:	64616873 	strbtvs	r6, [r1], #-2163	; 0xfffff78d
    846c:	6c5f776f 	mrrcvs	7, 6, r7, pc, cr15	; <UNPREDICTABLE>
    8470:	7461636f 	strbtvc	r6, [r1], #-879	; 0xfffffc91
    8474:	006e6f69 	rsbeq	r6, lr, r9, ror #30
    8478:	ff000010 			; <UNDEFINED> instruction: 0xff000010

0000847c <shadow_location>:
    847c:	e1a0c00d 	mov	ip, sp
    8480:	e92dd800 	push	{fp, ip, lr, pc}
    8484:	e24cb004 	sub	fp, ip, #4, 0
    8488:	e59f302c 	ldr	r3, [pc, #44]	; 84bc <shadow_location+0x40>
    848c:	e1500003 	cmp	r0, r3
    8490:	3a000005 	bcc	84ac <shadow_location+0x30>
    8494:	e2833101 	add	r3, r3, #1073741824	; 0x40000000
    8498:	e1500003 	cmp	r0, r3
    849c:	2a000004 	bcs	84b4 <shadow_location+0x38>
    84a0:	e3c00003 	bic	r0, r0, #3, 0
    84a4:	e2800201 	add	r0, r0, #268435456	; 0x10000000
    84a8:	e89da800 	ldm	sp, {fp, sp, pc}
    84ac:	e3a00000 	mov	r0, #0, 0
    84b0:	e89da800 	ldm	sp, {fp, sp, pc}
    84b4:	e3a00000 	mov	r0, #0, 0
    84b8:	e89da800 	ldm	sp, {fp, sp, pc}
    84bc:	0000b228 	andeq	fp, r0, r8, lsr #4
    84c0:	6c616b63 			; <UNDEFINED> instruction: 0x6c616b63
    84c4:	00636f6c 	rsbeq	r6, r3, ip, ror #30
    84c8:	ff000008 			; <UNDEFINED> instruction: 0xff000008

000084cc <ckalloc>:
    84cc:	e1a0c00d 	mov	ip, sp
    84d0:	e92dd8f0 	push	{r4, r5, r6, r7, fp, ip, lr, pc}
    84d4:	e24cb004 	sub	fp, ip, #4, 0
    84d8:	e24dd010 	sub	sp, sp, #16, 0
    84dc:	e1a05000 	mov	r5, r0
    84e0:	e24b001c 	sub	r0, fp, #28, 0
    84e4:	e900000e 	stmdb	r0, {r1, r2, r3}
    84e8:	e2850f4e 	add	r0, r5, #312	; 0x138
    84ec:	eb000088 	bl	8714 <kr_malloc>
    84f0:	e1a04000 	mov	r4, r0
    84f4:	e3a020b8 	mov	r2, #184, 0	; 0xb8
    84f8:	e3a01000 	mov	r1, #0, 0
    84fc:	eb000285 	bl	8f18 <memset>
    8500:	e3a03000 	mov	r3, #0, 0
    8504:	e353007f 	cmp	r3, #127, 0	; 0x7f
    8508:	ca000007 	bgt	852c <ckalloc+0x60>
    850c:	e0842003 	add	r2, r4, r3
    8510:	e3e01001 	mvn	r1, #1, 0
    8514:	e5c21036 	strb	r1, [r2, #54]	; 0x36
    8518:	e0832005 	add	r2, r3, r5
    851c:	e28220b8 	add	r2, r2, #184, 0	; 0xb8
    8520:	e7c41002 	strb	r1, [r4, r2]
    8524:	e2833001 	add	r3, r3, #1, 0
    8528:	eafffff5 	b	8504 <ckalloc+0x38>
    852c:	e5845008 	str	r5, [r4, #8]
    8530:	e3a0300b 	mov	r3, #11, 0
    8534:	e584300c 	str	r3, [r4, #12]
    8538:	e2843014 	add	r3, r4, #20, 0
    853c:	e24b201c 	sub	r2, fp, #28, 0
    8540:	e9120007 	ldmdb	r2, {r0, r1, r2}
    8544:	e8830007 	stm	r3, {r0, r1, r2}
    8548:	e59f3068 	ldr	r3, [pc, #104]	; 85b8 <ckalloc+0xec>
    854c:	e5843004 	str	r3, [r4, #4]
    8550:	e51b3020 	ldr	r3, [fp, #-32]	; 0xffffffe0
    8554:	e51b2024 	ldr	r2, [fp, #-36]	; 0xffffffdc
    8558:	e51b1028 	ldr	r1, [fp, #-40]	; 0xffffffd8
    855c:	e59f0058 	ldr	r0, [pc, #88]	; 85bc <ckalloc+0xf0>
    8560:	eb00028a 	bl	8f90 <printk>
    8564:	e28470b8 	add	r7, r4, #184, 0	; 0xb8
    8568:	e1a02005 	mov	r2, r5
    856c:	e1a01007 	mov	r1, r7
    8570:	e59f0048 	ldr	r0, [pc, #72]	; 85c0 <ckalloc+0xf4>
    8574:	eb000285 	bl	8f90 <printk>
    8578:	e3a06000 	mov	r6, #0, 0
    857c:	e1560005 	cmp	r6, r5
    8580:	8a000005 	bhi	859c <ckalloc+0xd0>
    8584:	e28600b8 	add	r0, r6, #184, 0	; 0xb8
    8588:	e0840000 	add	r0, r4, r0
    858c:	ebffffba 	bl	847c <shadow_location>
    8590:	e5804000 	str	r4, [r0]
    8594:	e2866004 	add	r6, r6, #4, 0
    8598:	eafffff7 	b	857c <ckalloc+0xb0>
    859c:	e59f3020 	ldr	r3, [pc, #32]	; 85c4 <ckalloc+0xf8>
    85a0:	e5932000 	ldr	r2, [r3]
    85a4:	e5842000 	str	r2, [r4]
    85a8:	e5834000 	str	r4, [r3]
    85ac:	e1a00007 	mov	r0, r7
    85b0:	e24bd01c 	sub	sp, fp, #28, 0
    85b4:	e89da8f0 	ldm	sp, {r4, r5, r6, r7, fp, sp, pc}
    85b8:	deadbeef 	cdple	14, 10, cr11, cr13, cr15, {7}
    85bc:	0000a640 	andeq	sl, r0, r0, asr #12
    85c0:	0000a6d4 	ldrdeq	sl, [r0], -r4
    85c4:	0000adf8 	strdeq	sl, [r0], -r8
    85c8:	665f726b 	ldrbvs	r7, [pc], -fp, ror #4
    85cc:	00656572 	rsbeq	r6, r5, r2, ror r5
    85d0:	ff000008 			; <UNDEFINED> instruction: 0xff000008

000085d4 <kr_free>:
    85d4:	e1a0c00d 	mov	ip, sp
    85d8:	e92dd800 	push	{fp, ip, lr, pc}
    85dc:	e24cb004 	sub	fp, ip, #4, 0
    85e0:	e2401008 	sub	r1, r0, #8, 0
    85e4:	e59f30a8 	ldr	r3, [pc, #168]	; 8694 <kr_free+0xc0>
    85e8:	e5933000 	ldr	r3, [r3]
    85ec:	ea000000 	b	85f4 <kr_free+0x20>
    85f0:	e1a03002 	mov	r3, r2
    85f4:	e1530001 	cmp	r3, r1
    85f8:	2a000002 	bcs	8608 <kr_free+0x34>
    85fc:	e5932000 	ldr	r2, [r3]
    8600:	e1520001 	cmp	r2, r1
    8604:	8a000007 	bhi	8628 <kr_free+0x54>
    8608:	e5932000 	ldr	r2, [r3]
    860c:	e1520003 	cmp	r2, r3
    8610:	8afffff6 	bhi	85f0 <kr_free+0x1c>
    8614:	e1530001 	cmp	r3, r1
    8618:	3a000002 	bcc	8628 <kr_free+0x54>
    861c:	e1520001 	cmp	r2, r1
    8620:	91a03002 	movls	r3, r2
    8624:	9afffff2 	bls	85f4 <kr_free+0x20>
    8628:	e510c004 	ldr	ip, [r0, #-4]
    862c:	e081e18c 	add	lr, r1, ip, lsl #3
    8630:	e5932000 	ldr	r2, [r3]
    8634:	e15e0002 	cmp	lr, r2
    8638:	0a000008 	beq	8660 <kr_free+0x8c>
    863c:	e5002008 	str	r2, [r0, #-8]
    8640:	e5932004 	ldr	r2, [r3, #4]
    8644:	e083c182 	add	ip, r3, r2, lsl #3
    8648:	e15c0001 	cmp	ip, r1
    864c:	0a00000a 	beq	867c <kr_free+0xa8>
    8650:	e5831000 	str	r1, [r3]
    8654:	e59f2038 	ldr	r2, [pc, #56]	; 8694 <kr_free+0xc0>
    8658:	e5823000 	str	r3, [r2]
    865c:	e89da800 	ldm	sp, {fp, sp, pc}
    8660:	e5922004 	ldr	r2, [r2, #4]
    8664:	e08cc002 	add	ip, ip, r2
    8668:	e500c004 	str	ip, [r0, #-4]
    866c:	e5932000 	ldr	r2, [r3]
    8670:	e5922000 	ldr	r2, [r2]
    8674:	e5002008 	str	r2, [r0, #-8]
    8678:	eafffff0 	b	8640 <kr_free+0x6c>
    867c:	e5101004 	ldr	r1, [r0, #-4]
    8680:	e0822001 	add	r2, r2, r1
    8684:	e5832004 	str	r2, [r3, #4]
    8688:	e5102008 	ldr	r2, [r0, #-8]
    868c:	e5832000 	str	r2, [r3]
    8690:	eaffffef 	b	8654 <kr_free+0x80>
    8694:	0000ae00 	andeq	sl, r0, r0, lsl #28
    8698:	65726f6d 	ldrbvs	r6, [r2, #-3949]!	; 0xfffff093
    869c:	65726f63 	ldrbvs	r6, [r2, #-3939]!	; 0xfffff09d
    86a0:	00000000 	andeq	r0, r0, r0
    86a4:	ff00000c 			; <UNDEFINED> instruction: 0xff00000c

000086a8 <morecore>:
    86a8:	e1a0c00d 	mov	ip, sp
    86ac:	e92dd830 	push	{r4, r5, fp, ip, lr, pc}
    86b0:	e24cb004 	sub	fp, ip, #4, 0
    86b4:	e1a04000 	mov	r4, r0
    86b8:	e3500b01 	cmp	r0, #1024	; 0x400
    86bc:	33a04b01 	movcc	r4, #1024	; 0x400
    86c0:	e1a01004 	mov	r1, r4
    86c4:	e59f0030 	ldr	r0, [pc, #48]	; 86fc <morecore+0x54>
    86c8:	eb000230 	bl	8f90 <printk>
    86cc:	e1a00184 	lsl	r0, r4, #3
    86d0:	eb000161 	bl	8c5c <sbrk>
    86d4:	e3700001 	cmn	r0, #1, 0
    86d8:	0a000005 	beq	86f4 <morecore+0x4c>
    86dc:	e5804004 	str	r4, [r0, #4]
    86e0:	e2800008 	add	r0, r0, #8, 0
    86e4:	ebffffba 	bl	85d4 <kr_free>
    86e8:	e59f3010 	ldr	r3, [pc, #16]	; 8700 <morecore+0x58>
    86ec:	e5930000 	ldr	r0, [r3]
    86f0:	e89da830 	ldm	sp, {r4, r5, fp, sp, pc}
    86f4:	e3a00000 	mov	r0, #0, 0
    86f8:	e89da830 	ldm	sp, {r4, r5, fp, sp, pc}
    86fc:	0000a6f0 	strdeq	sl, [r0], -r0
    8700:	0000ae00 	andeq	sl, r0, r0, lsl #28
    8704:	6d5f726b 	lfmvs	f7, 2, [pc, #-428]	; 8560 <ckalloc+0x94>
    8708:	6f6c6c61 	svcvs	0x006c6c61
    870c:	00000063 	andeq	r0, r0, r3, rrx
    8710:	ff00000c 			; <UNDEFINED> instruction: 0xff00000c

00008714 <kr_malloc>:
    8714:	e1a0c00d 	mov	ip, sp
    8718:	e92dd830 	push	{r4, r5, fp, ip, lr, pc}
    871c:	e24cb004 	sub	fp, ip, #4, 0
    8720:	e2804007 	add	r4, r0, #7, 0
    8724:	e1a041a4 	lsr	r4, r4, #3
    8728:	e2844001 	add	r4, r4, #1, 0
    872c:	e59f3090 	ldr	r3, [pc, #144]	; 87c4 <kr_malloc+0xb0>
    8730:	e5932000 	ldr	r2, [r3]
    8734:	e3520000 	cmp	r2, #0, 0
    8738:	0a000001 	beq	8744 <kr_malloc+0x30>
    873c:	e5920000 	ldr	r0, [r2]
    8740:	ea000013 	b	8794 <kr_malloc+0x80>
    8744:	e2832008 	add	r2, r3, #8, 0
    8748:	e5832000 	str	r2, [r3]
    874c:	e5832008 	str	r2, [r3, #8]
    8750:	e3a01000 	mov	r1, #0, 0
    8754:	e583100c 	str	r1, [r3, #12]
    8758:	eafffff7 	b	873c <kr_malloc+0x28>
    875c:	0a000007 	beq	8780 <kr_malloc+0x6c>
    8760:	e0433004 	sub	r3, r3, r4
    8764:	e5803004 	str	r3, [r0, #4]
    8768:	e0800183 	add	r0, r0, r3, lsl #3
    876c:	e5804004 	str	r4, [r0, #4]
    8770:	e59f304c 	ldr	r3, [pc, #76]	; 87c4 <kr_malloc+0xb0>
    8774:	e5832000 	str	r2, [r3]
    8778:	e2800008 	add	r0, r0, #8, 0
    877c:	e89da830 	ldm	sp, {r4, r5, fp, sp, pc}
    8780:	e5903000 	ldr	r3, [r0]
    8784:	e5823000 	str	r3, [r2]
    8788:	eafffff8 	b	8770 <kr_malloc+0x5c>
    878c:	e1a02000 	mov	r2, r0
    8790:	e5900000 	ldr	r0, [r0]
    8794:	e5903004 	ldr	r3, [r0, #4]
    8798:	e1530004 	cmp	r3, r4
    879c:	2affffee 	bcs	875c <kr_malloc+0x48>
    87a0:	e59f301c 	ldr	r3, [pc, #28]	; 87c4 <kr_malloc+0xb0>
    87a4:	e5933000 	ldr	r3, [r3]
    87a8:	e1530000 	cmp	r3, r0
    87ac:	1afffff6 	bne	878c <kr_malloc+0x78>
    87b0:	e3a00902 	mov	r0, #32768	; 0x8000
    87b4:	ebffffbb 	bl	86a8 <morecore>
    87b8:	e3500000 	cmp	r0, #0, 0
    87bc:	1afffff2 	bne	878c <kr_malloc+0x78>
    87c0:	e89da830 	ldm	sp, {r4, r5, fp, sp, pc}
    87c4:	0000ae00 	andeq	sl, r0, r0, lsl #28
    87c8:	685f6e69 	ldmdavs	pc, {r0, r3, r5, r6, r9, sl, fp, sp, lr}^	; <UNPREDICTABLE>
    87cc:	00706165 	rsbseq	r6, r0, r5, ror #2
    87d0:	ff000008 			; <UNDEFINED> instruction: 0xff000008

000087d4 <in_heap>:
    87d4:	e1a0c00d 	mov	ip, sp
    87d8:	e92dd800 	push	{fp, ip, lr, pc}
    87dc:	e24cb004 	sub	fp, ip, #4, 0
    87e0:	e59f3030 	ldr	r3, [pc, #48]	; 8818 <in_heap+0x44>
    87e4:	e5933000 	ldr	r3, [r3]
    87e8:	e1530000 	cmp	r3, r0
    87ec:	8a000005 	bhi	8808 <in_heap+0x34>
    87f0:	e59f3020 	ldr	r3, [pc, #32]	; 8818 <in_heap+0x44>
    87f4:	e5933004 	ldr	r3, [r3, #4]
    87f8:	e1530000 	cmp	r3, r0
    87fc:	9a000003 	bls	8810 <in_heap+0x3c>
    8800:	e3a00001 	mov	r0, #1, 0
    8804:	e89da800 	ldm	sp, {fp, sp, pc}
    8808:	e3a00000 	mov	r0, #0, 0
    880c:	e89da800 	ldm	sp, {fp, sp, pc}
    8810:	e3a00000 	mov	r0, #0, 0
    8814:	e89da800 	ldm	sp, {fp, sp, pc}
    8818:	0000ae10 	andeq	sl, r0, r0, lsl lr
    881c:	705f7369 	subsvc	r7, pc, r9, ror #6
    8820:	00007274 	andeq	r7, r0, r4, ror r2
    8824:	ff000008 			; <UNDEFINED> instruction: 0xff000008

00008828 <is_ptr>:
    8828:	e1a0c00d 	mov	ip, sp
    882c:	e92dd830 	push	{r4, r5, fp, ip, lr, pc}
    8830:	e24cb004 	sub	fp, ip, #4, 0
    8834:	e1a04000 	mov	r4, r0
    8838:	ebffffe5 	bl	87d4 <in_heap>
    883c:	e3500000 	cmp	r0, #0, 0
    8840:	0a000002 	beq	8850 <is_ptr+0x28>
    8844:	e1a00004 	mov	r0, r4
    8848:	ebfffe94 	bl	82a0 <ck_ptr_is_alloced>
    884c:	e89da830 	ldm	sp, {r4, r5, fp, sp, pc}
    8850:	e3a00000 	mov	r0, #0, 0
    8854:	e89da830 	ldm	sp, {r4, r5, fp, sp, pc}
    8858:	6b72616d 	blvs	1ca0e14 <__bss_end__+0x1c95bec>
    885c:	00000000 	andeq	r0, r0, r0
    8860:	ff000008 			; <UNDEFINED> instruction: 0xff000008

00008864 <mark>:
    8864:	e1a0c00d 	mov	ip, sp
    8868:	e92dd830 	push	{r4, r5, fp, ip, lr, pc}
    886c:	e24cb004 	sub	fp, ip, #4, 0
    8870:	e24dd008 	sub	sp, sp, #8, 0
    8874:	e1500001 	cmp	r0, r1
    8878:	2a00000d 	bcs	88b4 <mark+0x50>
    887c:	e1a04000 	mov	r4, r0
    8880:	e1a05001 	mov	r5, r1
    8884:	e3100003 	tst	r0, #3, 0
    8888:	1a000011 	bne	88d4 <mark+0x70>
    888c:	e3110003 	tst	r1, #3, 0
    8890:	0a00001c 	beq	8908 <mark+0xa4>
    8894:	e59f30c8 	ldr	r3, [pc, #200]	; 8964 <mark+0x100>
    8898:	e58d3000 	str	r3, [sp]
    889c:	e3a03056 	mov	r3, #86, 0	; 0x56
    88a0:	e59f20c0 	ldr	r2, [pc, #192]	; 8968 <mark+0x104>
    88a4:	e59f10c0 	ldr	r1, [pc, #192]	; 896c <mark+0x108>
    88a8:	e59f00c0 	ldr	r0, [pc, #192]	; 8970 <mark+0x10c>
    88ac:	eb0001b7 	bl	8f90 <printk>
    88b0:	eb000447 	bl	99d4 <clean_reboot>
    88b4:	e59f30b8 	ldr	r3, [pc, #184]	; 8974 <mark+0x110>
    88b8:	e58d3000 	str	r3, [sp]
    88bc:	e3a03052 	mov	r3, #82, 0	; 0x52
    88c0:	e59f20a0 	ldr	r2, [pc, #160]	; 8968 <mark+0x104>
    88c4:	e59f10a0 	ldr	r1, [pc, #160]	; 896c <mark+0x108>
    88c8:	e59f00a0 	ldr	r0, [pc, #160]	; 8970 <mark+0x10c>
    88cc:	eb0001af 	bl	8f90 <printk>
    88d0:	eb00043f 	bl	99d4 <clean_reboot>
    88d4:	e59f309c 	ldr	r3, [pc, #156]	; 8978 <mark+0x114>
    88d8:	e58d3000 	str	r3, [sp]
    88dc:	e3a03055 	mov	r3, #85, 0	; 0x55
    88e0:	e59f2080 	ldr	r2, [pc, #128]	; 8968 <mark+0x104>
    88e4:	e59f1080 	ldr	r1, [pc, #128]	; 896c <mark+0x108>
    88e8:	e59f0080 	ldr	r0, [pc, #128]	; 8970 <mark+0x10c>
    88ec:	eb0001a7 	bl	8f90 <printk>
    88f0:	eb000437 	bl	99d4 <clean_reboot>
    88f4:	e3a01002 	mov	r1, #2, 0
    88f8:	e1c013b4 	strh	r1, [r0, #52]	; 0x34
    88fc:	e3520000 	cmp	r2, #0, 0
    8900:	0a00000f 	beq	8944 <mark+0xe0>
    8904:	e2844004 	add	r4, r4, #4, 0
    8908:	e1540005 	cmp	r4, r5
    890c:	8a000012 	bhi	895c <mark+0xf8>
    8910:	e5940000 	ldr	r0, [r4]
    8914:	ebffffc3 	bl	8828 <is_ptr>
    8918:	e3500000 	cmp	r0, #0, 0
    891c:	0afffff8 	beq	8904 <mark+0xa0>
    8920:	e28010b8 	add	r1, r0, #184, 0	; 0xb8
    8924:	e1d023b4 	ldrh	r2, [r0, #52]	; 0x34
    8928:	e3520001 	cmp	r2, #1, 0
    892c:	8afffff4 	bhi	8904 <mark+0xa0>
    8930:	e5943000 	ldr	r3, [r4]
    8934:	e1530001 	cmp	r3, r1
    8938:	0affffed 	beq	88f4 <mark+0x90>
    893c:	e3a01001 	mov	r1, #1, 0
    8940:	eaffffec 	b	88f8 <mark+0x94>
    8944:	e5901008 	ldr	r1, [r0, #8]
    8948:	e28110b8 	add	r1, r1, #184, 0	; 0xb8
    894c:	e0801001 	add	r1, r0, r1
    8950:	e2800004 	add	r0, r0, #4, 0
    8954:	ebffffc2 	bl	8864 <mark>
    8958:	eaffffe9 	b	8904 <mark+0xa0>
    895c:	e24bd014 	sub	sp, fp, #20, 0
    8960:	e89da830 	ldm	sp, {r4, r5, fp, sp, pc}
    8964:	0000a748 	andeq	sl, r0, r8, asr #14
    8968:	0000a9f4 	strdeq	sl, [r0], -r4
    896c:	0000a714 	andeq	sl, r0, r4, lsl r7
    8970:	0000a71c 	andeq	sl, r0, ip, lsl r7
    8974:	0000a730 	andeq	sl, r0, r0, lsr r7
    8978:	0000a738 	andeq	sl, r0, r8, lsr r7
    897c:	6b72616d 	blvs	1ca0f38 <__bss_end__+0x1c95d10>
    8980:	6c6c615f 	stfvse	f6, [ip], #-380	; 0xfffffe84
    8984:	00000000 	andeq	r0, r0, r0
    8988:	ff00000c 			; <UNDEFINED> instruction: 0xff00000c

0000898c <mark_all>:
    898c:	e1a0c00d 	mov	ip, sp
    8990:	e92dd800 	push	{fp, ip, lr, pc}
    8994:	e24cb004 	sub	fp, ip, #4, 0
    8998:	e24dd040 	sub	sp, sp, #64, 0	; 0x40
    899c:	ebfffdfe 	bl	819c <ck_first_hdr>
    89a0:	e3500000 	cmp	r0, #0, 0
    89a4:	0a000005 	beq	89c0 <mark_all+0x34>
    89a8:	e3a03000 	mov	r3, #0, 0
    89ac:	e5803030 	str	r3, [r0, #48]	; 0x30
    89b0:	e580302c 	str	r3, [r0, #44]	; 0x2c
    89b4:	e1c033b4 	strh	r3, [r0, #52]	; 0x34
    89b8:	ebfffe02 	bl	81c8 <ck_next_hdr>
    89bc:	eafffff7 	b	89a0 <mark_all+0x14>
    89c0:	e24b004c 	sub	r0, fp, #76, 0	; 0x4c
    89c4:	eb000129 	bl	8e70 <dump_regs>
    89c8:	e3a03000 	mov	r3, #0, 0
    89cc:	e50b304c 	str	r3, [fp, #-76]	; 0xffffffb4
    89d0:	e50b3048 	str	r3, [fp, #-72]	; 0xffffffb8
    89d4:	e50b3044 	str	r3, [fp, #-68]	; 0xffffffbc
    89d8:	e50b3040 	str	r3, [fp, #-64]	; 0xffffffc0
    89dc:	e24b1014 	sub	r1, fp, #20, 0
    89e0:	e24b004c 	sub	r0, fp, #76, 0	; 0x4c
    89e4:	ebffff9e 	bl	8864 <mark>
    89e8:	e3a02302 	mov	r2, #134217728	; 0x8000000
    89ec:	e51b1018 	ldr	r1, [fp, #-24]	; 0xffffffe8
    89f0:	e59f002c 	ldr	r0, [pc, #44]	; 8a24 <mark_all+0x98>
    89f4:	eb000165 	bl	8f90 <printk>
    89f8:	e3a01302 	mov	r1, #134217728	; 0x8000000
    89fc:	e51b0018 	ldr	r0, [fp, #-24]	; 0xffffffe8
    8a00:	ebffff97 	bl	8864 <mark>
    8a04:	e59f101c 	ldr	r1, [pc, #28]	; 8a28 <mark_all+0x9c>
    8a08:	e59f001c 	ldr	r0, [pc, #28]	; 8a2c <mark_all+0xa0>
    8a0c:	ebffff94 	bl	8864 <mark>
    8a10:	e59f1018 	ldr	r1, [pc, #24]	; 8a30 <mark_all+0xa4>
    8a14:	e59f0018 	ldr	r0, [pc, #24]	; 8a34 <mark_all+0xa8>
    8a18:	ebffff91 	bl	8864 <mark>
    8a1c:	e24bd00c 	sub	sp, fp, #12, 0
    8a20:	e89da800 	ldm	sp, {fp, sp, pc}
    8a24:	0000a758 	andeq	sl, r0, r8, asr r7
    8a28:	0000b228 	andeq	fp, r0, r8, lsr #4
    8a2c:	0000adf8 	strdeq	sl, [r0], -r8
    8a30:	0000adf4 	strdeq	sl, [r0], -r4
    8a34:	0000ade0 	andeq	sl, r0, r0, ror #27
    8a38:	65657773 	strbvs	r7, [r5, #-1907]!	; 0xfffff88d
    8a3c:	656c5f70 	strbvs	r5, [ip, #-3952]!	; 0xfffff090
    8a40:	00006b61 	andeq	r6, r0, r1, ror #22
    8a44:	ff00000c 			; <UNDEFINED> instruction: 0xff00000c

00008a48 <sweep_leak>:
    8a48:	e1a0c00d 	mov	ip, sp
    8a4c:	e92ddbf0 	push	{r4, r5, r6, r7, r8, r9, fp, ip, lr, pc}
    8a50:	e24cb004 	sub	fp, ip, #4, 0
    8a54:	e1a07000 	mov	r7, r0
    8a58:	e59f00d0 	ldr	r0, [pc, #208]	; 8b30 <sweep_leak+0xe8>
    8a5c:	eb00014b 	bl	8f90 <printk>
    8a60:	e59f00cc 	ldr	r0, [pc, #204]	; 8b34 <sweep_leak+0xec>
    8a64:	eb000149 	bl	8f90 <printk>
    8a68:	ebffffc7 	bl	898c <mark_all>
    8a6c:	ebfffdca 	bl	819c <ck_first_hdr>
    8a70:	e1a04000 	mov	r4, r0
    8a74:	e3a08000 	mov	r8, #0, 0
    8a78:	e1a06008 	mov	r6, r8
    8a7c:	e1a05008 	mov	r5, r8
    8a80:	ea000007 	b	8aa4 <sweep_leak+0x5c>
    8a84:	e2866001 	add	r6, r6, #1, 0
    8a88:	e1a02004 	mov	r2, r4
    8a8c:	e1a01005 	mov	r1, r5
    8a90:	e59f00a0 	ldr	r0, [pc, #160]	; 8b38 <sweep_leak+0xf0>
    8a94:	eb00013d 	bl	8f90 <printk>
    8a98:	e1a00004 	mov	r0, r4
    8a9c:	ebfffdc9 	bl	81c8 <ck_next_hdr>
    8aa0:	e1a04000 	mov	r4, r0
    8aa4:	e3540000 	cmp	r4, #0, 0
    8aa8:	0a00000e 	beq	8ae8 <sweep_leak+0xa0>
    8aac:	e594300c 	ldr	r3, [r4, #12]
    8ab0:	e353000b 	cmp	r3, #11, 0
    8ab4:	1afffff7 	bne	8a98 <sweep_leak+0x50>
    8ab8:	e2855001 	add	r5, r5, #1, 0
    8abc:	e1d433b4 	ldrh	r3, [r4, #52]	; 0x34
    8ac0:	e3530000 	cmp	r3, #0, 0
    8ac4:	0affffee 	beq	8a84 <sweep_leak+0x3c>
    8ac8:	e3530001 	cmp	r3, #1, 0
    8acc:	1afffff1 	bne	8a98 <sweep_leak+0x50>
    8ad0:	e2888001 	add	r8, r8, #1, 0
    8ad4:	e1a02004 	mov	r2, r4
    8ad8:	e1a01005 	mov	r1, r5
    8adc:	e59f0058 	ldr	r0, [pc, #88]	; 8b3c <sweep_leak+0xf4>
    8ae0:	eb00012a 	bl	8f90 <printk>
    8ae4:	eaffffeb 	b	8a98 <sweep_leak+0x50>
    8ae8:	e1a01005 	mov	r1, r5
    8aec:	e59f004c 	ldr	r0, [pc, #76]	; 8b40 <sweep_leak+0xf8>
    8af0:	eb000126 	bl	8f90 <printk>
    8af4:	e1963008 	orrs	r3, r6, r8
    8af8:	1a000007 	bne	8b1c <sweep_leak+0xd4>
    8afc:	e59f0040 	ldr	r0, [pc, #64]	; 8b44 <sweep_leak+0xfc>
    8b00:	eb000122 	bl	8f90 <printk>
    8b04:	e59f003c 	ldr	r0, [pc, #60]	; 8b48 <sweep_leak+0x100>
    8b08:	eb000120 	bl	8f90 <printk>
    8b0c:	e3570000 	cmp	r7, #0, 0
    8b10:	10866008 	addne	r6, r6, r8
    8b14:	e1a00006 	mov	r0, r6
    8b18:	e89dabf0 	ldm	sp, {r4, r5, r6, r7, r8, r9, fp, sp, pc}
    8b1c:	e1a02008 	mov	r2, r8
    8b20:	e1a01006 	mov	r1, r6
    8b24:	e59f0020 	ldr	r0, [pc, #32]	; 8b4c <sweep_leak+0x104>
    8b28:	eb000118 	bl	8f90 <printk>
    8b2c:	eafffff4 	b	8b04 <sweep_leak+0xbc>
    8b30:	0000a774 	andeq	sl, r0, r4, ror r7
    8b34:	0000a7b0 			; <UNDEFINED> instruction: 0x0000a7b0
    8b38:	0000a7c8 	andeq	sl, r0, r8, asr #15
    8b3c:	0000a7dc 	ldrdeq	sl, [r0], -ip
    8b40:	0000a7f4 	strdeq	sl, [r0], -r4
    8b44:	0000a814 	andeq	sl, r0, r4, lsl r8
    8b48:	0000a86c 	andeq	sl, r0, ip, ror #16
    8b4c:	0000a83c 	andeq	sl, r0, ip, lsr r8
    8b50:	65657773 	strbvs	r7, [r5, #-1907]!	; 0xfffff88d
    8b54:	72665f70 	rsbvc	r5, r6, #112, 30	; 0x1c0
    8b58:	00006565 	andeq	r6, r0, r5, ror #10
    8b5c:	ff00000c 			; <UNDEFINED> instruction: 0xff00000c

00008b60 <sweep_free>:
    8b60:	e1a0c00d 	mov	ip, sp
    8b64:	e92dd9f0 	push	{r4, r5, r6, r7, r8, fp, ip, lr, pc}
    8b68:	e24cb004 	sub	fp, ip, #4, 0
    8b6c:	e24dd014 	sub	sp, sp, #20, 0
    8b70:	e59f00bc 	ldr	r0, [pc, #188]	; 8c34 <sweep_free+0xd4>
    8b74:	eb000105 	bl	8f90 <printk>
    8b78:	e59f00b8 	ldr	r0, [pc, #184]	; 8c38 <sweep_free+0xd8>
    8b7c:	eb000103 	bl	8f90 <printk>
    8b80:	ebffff81 	bl	898c <mark_all>
    8b84:	ebfffd84 	bl	819c <ck_first_hdr>
    8b88:	e1a04000 	mov	r4, r0
    8b8c:	e3a06000 	mov	r6, #0, 0
    8b90:	e1a07006 	mov	r7, r6
    8b94:	e1a05006 	mov	r5, r6
    8b98:	ea000013 	b	8bec <sweep_free+0x8c>
    8b9c:	e2877001 	add	r7, r7, #1, 0
    8ba0:	e5943008 	ldr	r3, [r4, #8]
    8ba4:	e0866003 	add	r6, r6, r3
    8ba8:	e28480b8 	add	r8, r4, #184, 0	; 0xb8
    8bac:	e59f3088 	ldr	r3, [pc, #136]	; 8c3c <sweep_free+0xdc>
    8bb0:	e50b3030 	str	r3, [fp, #-48]	; 0xffffffd0
    8bb4:	e59f3084 	ldr	r3, [pc, #132]	; 8c40 <sweep_free+0xe0>
    8bb8:	e50b302c 	str	r3, [fp, #-44]	; 0xffffffd4
    8bbc:	e59f3080 	ldr	r3, [pc, #128]	; 8c44 <sweep_free+0xe4>
    8bc0:	e50b3028 	str	r3, [fp, #-40]	; 0xffffffd8
    8bc4:	e24b3024 	sub	r3, fp, #36, 0	; 0x24
    8bc8:	e913000e 	ldmdb	r3, {r1, r2, r3}
    8bcc:	e1a00008 	mov	r0, r8
    8bd0:	ebfffdcd 	bl	830c <ckfree>
    8bd4:	e1a01008 	mov	r1, r8
    8bd8:	e59f0068 	ldr	r0, [pc, #104]	; 8c48 <sweep_free+0xe8>
    8bdc:	eb0000eb 	bl	8f90 <printk>
    8be0:	e1a00004 	mov	r0, r4
    8be4:	ebfffd77 	bl	81c8 <ck_next_hdr>
    8be8:	e1a04000 	mov	r4, r0
    8bec:	e3540000 	cmp	r4, #0, 0
    8bf0:	0a000007 	beq	8c14 <sweep_free+0xb4>
    8bf4:	e2855001 	add	r5, r5, #1, 0
    8bf8:	e1d433b4 	ldrh	r3, [r4, #52]	; 0x34
    8bfc:	e3530000 	cmp	r3, #0, 0
    8c00:	1afffff6 	bne	8be0 <sweep_free+0x80>
    8c04:	e594300c 	ldr	r3, [r4, #12]
    8c08:	e353000b 	cmp	r3, #11, 0
    8c0c:	1afffff3 	bne	8be0 <sweep_free+0x80>
    8c10:	eaffffe1 	b	8b9c <sweep_free+0x3c>
    8c14:	e1a03006 	mov	r3, r6
    8c18:	e1a02007 	mov	r2, r7
    8c1c:	e1a01005 	mov	r1, r5
    8c20:	e59f0024 	ldr	r0, [pc, #36]	; 8c4c <sweep_free+0xec>
    8c24:	eb0000d9 	bl	8f90 <printk>
    8c28:	e1a00006 	mov	r0, r6
    8c2c:	e24bd020 	sub	sp, fp, #32, 0
    8c30:	e89da9f0 	ldm	sp, {r4, r5, r6, r7, r8, fp, sp, pc}
    8c34:	0000a774 	andeq	sl, r0, r4, ror r7
    8c38:	0000a8a8 	andeq	sl, r0, r8, lsr #17
    8c3c:	0000a714 	andeq	sl, r0, r4, lsl r7
    8c40:	0000a9fc 	strdeq	sl, [r0], -ip
    8c44:	00000105 	andeq	r0, r0, r5, lsl #2
    8c48:	0000a8b8 			; <UNDEFINED> instruction: 0x0000a8b8
    8c4c:	0000a8c8 	andeq	sl, r0, r8, asr #17
    8c50:	6b726273 	blvs	1ca1624 <__bss_end__+0x1c963fc>
    8c54:	00000000 	andeq	r0, r0, r0
    8c58:	ff000008 			; <UNDEFINED> instruction: 0xff000008

00008c5c <sbrk>:
    8c5c:	e1a0c00d 	mov	ip, sp
    8c60:	e92dd830 	push	{r4, r5, fp, ip, lr, pc}
    8c64:	e24cb004 	sub	fp, ip, #4, 0
    8c68:	e24dd008 	sub	sp, sp, #8, 0
    8c6c:	e2504000 	subs	r4, r0, #0, 0
    8c70:	da000010 	ble	8cb8 <sbrk+0x5c>
    8c74:	e59f3074 	ldr	r3, [pc, #116]	; 8cf0 <sbrk+0x94>
    8c78:	e5933008 	ldr	r3, [r3, #8]
    8c7c:	e3530000 	cmp	r3, #0, 0
    8c80:	1a000014 	bne	8cd8 <sbrk+0x7c>
    8c84:	e59f5064 	ldr	r5, [pc, #100]	; 8cf0 <sbrk+0x94>
    8c88:	e3a00601 	mov	r0, #1048576	; 0x100000
    8c8c:	e5850000 	str	r0, [r5]
    8c90:	e3a03602 	mov	r3, #2097152	; 0x200000
    8c94:	e5853004 	str	r3, [r5, #4]
    8c98:	e1a01000 	mov	r1, r0
    8c9c:	eb000494 	bl	9ef4 <kmalloc_init_set_start>
    8ca0:	e3a03001 	mov	r3, #1, 0
    8ca4:	e5853008 	str	r3, [r5, #8]
    8ca8:	e1a00004 	mov	r0, r4
    8cac:	eb0004f3 	bl	a080 <kmalloc>
    8cb0:	e24bd014 	sub	sp, fp, #20, 0
    8cb4:	e89da830 	ldm	sp, {r4, r5, fp, sp, pc}
    8cb8:	e59f3034 	ldr	r3, [pc, #52]	; 8cf4 <sbrk+0x98>
    8cbc:	e58d3000 	str	r3, [sp]
    8cc0:	e3a03017 	mov	r3, #23, 0
    8cc4:	e59f202c 	ldr	r2, [pc, #44]	; 8cf8 <sbrk+0x9c>
    8cc8:	e59f102c 	ldr	r1, [pc, #44]	; 8cfc <sbrk+0xa0>
    8ccc:	e59f002c 	ldr	r0, [pc, #44]	; 8d00 <sbrk+0xa4>
    8cd0:	eb0000ae 	bl	8f90 <printk>
    8cd4:	eb00033e 	bl	99d4 <clean_reboot>
    8cd8:	e3a03019 	mov	r3, #25, 0
    8cdc:	e59f2014 	ldr	r2, [pc, #20]	; 8cf8 <sbrk+0x9c>
    8ce0:	e59f1014 	ldr	r1, [pc, #20]	; 8cfc <sbrk+0xa0>
    8ce4:	e59f0018 	ldr	r0, [pc, #24]	; 8d04 <sbrk+0xa8>
    8ce8:	eb0000a8 	bl	8f90 <printk>
    8cec:	eb000338 	bl	99d4 <clean_reboot>
    8cf0:	0000ae10 	andeq	sl, r0, r0, lsl lr
    8cf4:	0000a8fc 	strdeq	sl, [r0], -ip
    8cf8:	0000aa08 	andeq	sl, r0, r8, lsl #20
    8cfc:	0000a714 	andeq	sl, r0, r4, lsl r7
    8d00:	0000a71c 	andeq	sl, r0, ip, lsl r7
    8d04:	0000a90c 	andeq	sl, r0, ip, lsl #18
    8d08:	665f6b63 	ldrbvs	r6, [pc], -r3, ror #22
    8d0c:	5f646e69 	svcpl	0x00646e69
    8d10:	6b61656c 	blvs	18622c8 <__bss_end__+0x18570a0>
    8d14:	00000073 	andeq	r0, r0, r3, ror r0
    8d18:	ff000010 			; <UNDEFINED> instruction: 0xff000010

00008d1c <ck_find_leaks>:
    8d1c:	e1a0c00d 	mov	ip, sp
    8d20:	e92dd800 	push	{fp, ip, lr, pc}
    8d24:	e24cb004 	sub	fp, ip, #4, 0
    8d28:	ebffff46 	bl	8a48 <sweep_leak>
    8d2c:	e89da800 	ldm	sp, {fp, sp, pc}
    8d30:	63656863 	cmnvs	r5, #6488064	; 0x630000
    8d34:	6f6e5f6b 	svcvs	0x006e5f6b
    8d38:	61656c5f 	cmnvs	r5, pc, asr ip
    8d3c:	0000006b 	andeq	r0, r0, fp, rrx
    8d40:	ff000010 			; <UNDEFINED> instruction: 0xff000010

00008d44 <check_no_leak>:
    8d44:	e1a0c00d 	mov	ip, sp
    8d48:	e92dd800 	push	{fp, ip, lr, pc}
    8d4c:	e24cb004 	sub	fp, ip, #4, 0
    8d50:	e3a00001 	mov	r0, #1, 0
    8d54:	ebfffff0 	bl	8d1c <ck_find_leaks>
    8d58:	e3500000 	cmp	r0, #0, 0
    8d5c:	1a000002 	bne	8d6c <check_no_leak+0x28>
    8d60:	e59f001c 	ldr	r0, [pc, #28]	; 8d84 <check_no_leak+0x40>
    8d64:	eb000089 	bl	8f90 <printk>
    8d68:	e89da800 	ldm	sp, {fp, sp, pc}
    8d6c:	e3a030e0 	mov	r3, #224, 0	; 0xe0
    8d70:	e59f2010 	ldr	r2, [pc, #16]	; 8d88 <check_no_leak+0x44>
    8d74:	e59f1010 	ldr	r1, [pc, #16]	; 8d8c <check_no_leak+0x48>
    8d78:	e59f0010 	ldr	r0, [pc, #16]	; 8d90 <check_no_leak+0x4c>
    8d7c:	eb000083 	bl	8f90 <printk>
    8d80:	eb000313 	bl	99d4 <clean_reboot>
    8d84:	0000a958 	andeq	sl, r0, r8, asr r9
    8d88:	0000aa10 	andeq	sl, r0, r0, lsl sl
    8d8c:	0000a714 	andeq	sl, r0, r4, lsl r7
    8d90:	0000a92c 	andeq	sl, r0, ip, lsr #18
    8d94:	63656863 	cmnvs	r5, #6488064	; 0x630000
    8d98:	68735f6b 	ldmdavs	r3!, {r0, r1, r3, r5, r6, r8, r9, sl, fp, ip, lr}^
    8d9c:	646c756f 	strbtvs	r7, [ip], #-1391	; 0xfffffa91
    8da0:	61656c5f 	cmnvs	r5, pc, asr ip
    8da4:	0000006b 	andeq	r0, r0, fp, rrx
    8da8:	ff000014 			; <UNDEFINED> instruction: 0xff000014

00008dac <check_should_leak>:
    8dac:	e1a0c00d 	mov	ip, sp
    8db0:	e92dd830 	push	{r4, r5, fp, ip, lr, pc}
    8db4:	e24cb004 	sub	fp, ip, #4, 0
    8db8:	e3a00001 	mov	r0, #1, 0
    8dbc:	ebffffd6 	bl	8d1c <ck_find_leaks>
    8dc0:	e2504000 	subs	r4, r0, #0, 0
    8dc4:	0a000004 	beq	8ddc <check_should_leak+0x30>
    8dc8:	e1a01004 	mov	r1, r4
    8dcc:	e59f0020 	ldr	r0, [pc, #32]	; 8df4 <check_should_leak+0x48>
    8dd0:	eb00006e 	bl	8f90 <printk>
    8dd4:	e1a00004 	mov	r0, r4
    8dd8:	e89da830 	ldm	sp, {r4, r5, fp, sp, pc}
    8ddc:	e3a030ef 	mov	r3, #239, 0	; 0xef
    8de0:	e59f2010 	ldr	r2, [pc, #16]	; 8df8 <check_should_leak+0x4c>
    8de4:	e59f1010 	ldr	r1, [pc, #16]	; 8dfc <check_should_leak+0x50>
    8de8:	e59f0010 	ldr	r0, [pc, #16]	; 8e00 <check_should_leak+0x54>
    8dec:	eb000067 	bl	8f90 <printk>
    8df0:	eb0002f7 	bl	99d4 <clean_reboot>
    8df4:	0000a9a0 	andeq	sl, r0, r0, lsr #19
    8df8:	0000aa20 	andeq	sl, r0, r0, lsr #20
    8dfc:	0000a714 	andeq	sl, r0, r4, lsl r7
    8e00:	0000a978 	andeq	sl, r0, r8, ror r9
    8e04:	675f6b63 	ldrbvs	r6, [pc, -r3, ror #22]
    8e08:	00000063 	andeq	r0, r0, r3, rrx
    8e0c:	ff000008 			; <UNDEFINED> instruction: 0xff000008

00008e10 <ck_gc>:
    8e10:	e1a0c00d 	mov	ip, sp
    8e14:	e92dd800 	push	{fp, ip, lr, pc}
    8e18:	e24cb004 	sub	fp, ip, #4, 0
    8e1c:	ebfffeda 	bl	898c <mark_all>
    8e20:	ebffff4e 	bl	8b60 <sweep_free>
    8e24:	e89da800 	ldm	sp, {fp, sp, pc}
    8e28:	6c706d69 	ldclvs	13, cr6, [r0], #-420	; 0xfffffe5c
    8e2c:	6e656d65 	cdpvs	13, 6, cr6, cr5, cr5, {3}
    8e30:	68745f74 	ldmdavs	r4!, {r2, r4, r5, r6, r8, r9, sl, fp, ip, lr}^
    8e34:	00007369 	andeq	r7, r0, r9, ror #6
    8e38:	ff000010 			; <UNDEFINED> instruction: 0xff000010

00008e3c <implement_this>:
    8e3c:	e1a0c00d 	mov	ip, sp
    8e40:	e92dd800 	push	{fp, ip, lr, pc}
    8e44:	e24cb004 	sub	fp, ip, #4, 0
    8e48:	e59f3010 	ldr	r3, [pc, #16]	; 8e60 <implement_this+0x24>
    8e4c:	e59f2010 	ldr	r2, [pc, #16]	; 8e64 <implement_this+0x28>
    8e50:	e59f1010 	ldr	r1, [pc, #16]	; 8e68 <implement_this+0x2c>
    8e54:	e59f0010 	ldr	r0, [pc, #16]	; 8e6c <implement_this+0x30>
    8e58:	eb00004c 	bl	8f90 <printk>
    8e5c:	eb0002dc 	bl	99d4 <clean_reboot>
    8e60:	0000011b 	andeq	r0, r0, fp, lsl r1
    8e64:	0000aa34 	andeq	sl, r0, r4, lsr sl
    8e68:	0000a714 	andeq	sl, r0, r4, lsl r7
    8e6c:	0000a9c4 	andeq	sl, r0, r4, asr #19

00008e70 <dump_regs>:
    8e70:	e8a0ffff 	stmia	r0!, {r0, r1, r2, r3, r4, r5, r6, r7, r8, r9, sl, fp, ip, sp, lr, pc}
    8e74:	e12fff1e 	bx	lr

00008e78 <backtrace>:
    8e78:	e92d41f0 	push	{r4, r5, r6, r7, r8, lr}
    8e7c:	e1a0400b 	mov	r4, fp
    8e80:	e3540000 	cmp	r4, #0, 0
    8e84:	0a000016 	beq	8ee4 <backtrace+0x6c>
    8e88:	e3a07000 	mov	r7, #0, 0
    8e8c:	e59f605c 	ldr	r6, [pc, #92]	; 8ef0 <backtrace+0x78>
    8e90:	e59f505c 	ldr	r5, [pc, #92]	; 8ef4 <backtrace+0x7c>
    8e94:	ea000002 	b	8ea4 <backtrace+0x2c>
    8e98:	e2877001 	add	r7, r7, #1, 0
    8e9c:	e3570020 	cmp	r7, #32, 0
    8ea0:	0a00000f 	beq	8ee4 <backtrace+0x6c>
    8ea4:	e5940000 	ldr	r0, [r4]
    8ea8:	e1a01007 	mov	r1, r7
    8eac:	e5103010 	ldr	r3, [r0, #-16]
    8eb0:	e240200c 	sub	r2, r0, #12, 0
    8eb4:	e31304ff 	tst	r3, #-16777216	; 0xff000000
    8eb8:	e2400010 	sub	r0, r0, #16, 0
    8ebc:	e3c334ff 	bic	r3, r3, #-16777216	; 0xff000000
    8ec0:	10403003 	subne	r3, r0, r3
    8ec4:	01a03006 	moveq	r3, r6
    8ec8:	e1a00005 	mov	r0, r5
    8ecc:	eb00002f 	bl	8f90 <printk>
    8ed0:	e514400c 	ldr	r4, [r4, #-12]
    8ed4:	e3540000 	cmp	r4, #0, 0
    8ed8:	1affffee 	bne	8e98 <backtrace+0x20>
    8edc:	e1a00007 	mov	r0, r7
    8ee0:	e8bd81f0 	pop	{r4, r5, r6, r7, r8, pc}
    8ee4:	e3e07000 	mvn	r7, #0, 0
    8ee8:	e1a00007 	mov	r0, r7
    8eec:	e8bd81f0 	pop	{r4, r5, r6, r7, r8, pc}
    8ef0:	0000aa44 	andeq	sl, r0, r4, asr #20
    8ef4:	0000aa48 	andeq	sl, r0, r8, asr #20

00008ef8 <name_of>:
    8ef8:	e5103004 	ldr	r3, [r0, #-4]
    8efc:	e2400004 	sub	r0, r0, #4, 0
    8f00:	e31304ff 	tst	r3, #-16777216	; 0xff000000
    8f04:	13c334ff 	bicne	r3, r3, #-16777216	; 0xff000000
    8f08:	10400003 	subne	r0, r0, r3
    8f0c:	059f0000 	ldreq	r0, [pc]	; 8f14 <name_of+0x1c>
    8f10:	e12fff1e 	bx	lr
    8f14:	0000aa44 	andeq	sl, r0, r4, asr #20

00008f18 <memset>:
    8f18:	e92d4010 	push	{r4, lr}
    8f1c:	e0804002 	add	r4, r0, r2
    8f20:	e1500004 	cmp	r0, r4
    8f24:	28bd8010 	popcs	{r4, pc}
    8f28:	e2423001 	sub	r3, r2, #1, 0
    8f2c:	e3530002 	cmp	r3, #2, 0
    8f30:	e6ef1071 	uxtb	r1, r1
    8f34:	e1a03000 	mov	r3, r0
    8f38:	9a00000b 	bls	8f6c <memset+0x54>
    8f3c:	e181e401 	orr	lr, r1, r1, lsl #8
    8f40:	e18ee801 	orr	lr, lr, r1, lsl #16
    8f44:	e3c2c003 	bic	ip, r2, #3, 0
    8f48:	e18eec01 	orr	lr, lr, r1, lsl #24
    8f4c:	e08cc000 	add	ip, ip, r0
    8f50:	e483e004 	str	lr, [r3], #4
    8f54:	e153000c 	cmp	r3, ip
    8f58:	1afffffc 	bne	8f50 <memset+0x38>
    8f5c:	e3c23003 	bic	r3, r2, #3, 0
    8f60:	e1520003 	cmp	r2, r3
    8f64:	e0803003 	add	r3, r0, r3
    8f68:	08bd8010 	popeq	{r4, pc}
    8f6c:	e1a02003 	mov	r2, r3
    8f70:	e4c21001 	strb	r1, [r2], #1
    8f74:	e1540002 	cmp	r4, r2
    8f78:	98bd8010 	popls	{r4, pc}
    8f7c:	e2832002 	add	r2, r3, #2, 0
    8f80:	e1540002 	cmp	r4, r2
    8f84:	e5c31001 	strb	r1, [r3, #1]
    8f88:	85c31002 	strbhi	r1, [r3, #2]
    8f8c:	e8bd8010 	pop	{r4, pc}

00008f90 <printk>:
    8f90:	e92d000f 	push	{r0, r1, r2, r3}
    8f94:	e92d4030 	push	{r4, r5, lr}
    8f98:	e59f5040 	ldr	r5, [pc, #64]	; 8fe0 <printk+0x50>
    8f9c:	e24dd00c 	sub	sp, sp, #12, 0
    8fa0:	e28d301c 	add	r3, sp, #28, 0
    8fa4:	e3a01b01 	mov	r1, #1024	; 0x400
    8fa8:	e59d2018 	ldr	r2, [sp, #24]
    8fac:	e1a00005 	mov	r0, r5
    8fb0:	e58d3004 	str	r3, [sp, #4]
    8fb4:	eb0000fb 	bl	93a8 <va_printk>
    8fb8:	e1a04000 	mov	r4, r0
    8fbc:	e59f3020 	ldr	r3, [pc, #32]	; 8fe4 <printk+0x54>
    8fc0:	e1a00005 	mov	r0, r5
    8fc4:	e5933000 	ldr	r3, [r3]
    8fc8:	e12fff33 	blx	r3
    8fcc:	e1a00004 	mov	r0, r4
    8fd0:	e28dd00c 	add	sp, sp, #12, 0
    8fd4:	e8bd4030 	pop	{r4, r5, lr}
    8fd8:	e28dd010 	add	sp, sp, #16, 0
    8fdc:	e12fff1e 	bx	lr
    8fe0:	0000ae1c 	andeq	sl, r0, ip, lsl lr
    8fe4:	0000ade0 	andeq	sl, r0, r0, ror #27

00008fe8 <internal_putk>:
    8fe8:	e92d4070 	push	{r4, r5, r6, lr}
    8fec:	e1a04000 	mov	r4, r0
    8ff0:	e5d00000 	ldrb	r0, [r0]
    8ff4:	e3500000 	cmp	r0, #0, 0
    8ff8:	0a000005 	beq	9014 <internal_putk+0x2c>
    8ffc:	e59f5018 	ldr	r5, [pc, #24]	; 901c <internal_putk+0x34>
    9000:	e5953000 	ldr	r3, [r5]
    9004:	e12fff33 	blx	r3
    9008:	e5f40001 	ldrb	r0, [r4, #1]!
    900c:	e3500000 	cmp	r0, #0, 0
    9010:	1afffffa 	bne	9000 <internal_putk+0x18>
    9014:	e3a00001 	mov	r0, #1, 0
    9018:	e8bd8070 	pop	{r4, r5, r6, pc}
    901c:	0000adf0 	strdeq	sl, [r0], -r0

00009020 <emit.constprop.0>:
    9020:	e92d41f0 	push	{r4, r5, r6, r7, r8, lr}
    9024:	e3530080 	cmp	r3, #128, 0	; 0x80
    9028:	e1a0c000 	mov	ip, r0
    902c:	e24dd048 	sub	sp, sp, #72, 0	; 0x48
    9030:	e1a00001 	mov	r0, r1
    9034:	ca000069 	bgt	91e0 <emit.constprop.0+0x1c0>
    9038:	e24c1002 	sub	r1, ip, #2, 0
    903c:	e1a0c002 	mov	ip, r2
    9040:	e351000e 	cmp	r1, #14, 0
    9044:	979ff101 	ldrls	pc, [pc, r1, lsl #2]
    9048:	ea0000a7 	b	92ec <emit.constprop.0+0x2cc>
    904c:	000091b8 			; <UNDEFINED> instruction: 0x000091b8
    9050:	000092ec 	andeq	r9, r0, ip, ror #5
    9054:	000092ec 	andeq	r9, r0, ip, ror #5
    9058:	000092ec 	andeq	r9, r0, ip, ror #5
    905c:	000092ec 	andeq	r9, r0, ip, ror #5
    9060:	000092ec 	andeq	r9, r0, ip, ror #5
    9064:	00009294 	muleq	r0, r4, r2
    9068:	000092ec 	andeq	r9, r0, ip, ror #5
    906c:	00009234 	andeq	r9, r0, r4, lsr r2
    9070:	000092ec 	andeq	r9, r0, ip, ror #5
    9074:	000092ec 	andeq	r9, r0, ip, ror #5
    9078:	000092ec 	andeq	r9, r0, ip, ror #5
    907c:	000092ec 	andeq	r9, r0, ip, ror #5
    9080:	000092ec 	andeq	r9, r0, ip, ror #5
    9084:	0000908c 	andeq	r9, r0, ip, lsl #1
    9088:	e3a0307f 	mov	r3, #127, 0	; 0x7f
    908c:	e28d2008 	add	r2, sp, #8, 0
    9090:	e1a04002 	mov	r4, r2
    9094:	e59f1288 	ldr	r1, [pc, #648]	; 9324 <emit.constprop.0+0x304>
    9098:	e20ce00f 	and	lr, ip, #15, 0
    909c:	e7d1e00e 	ldrb	lr, [r1, lr]
    90a0:	e35c000f 	cmp	ip, #15, 0
    90a4:	e4c4e001 	strb	lr, [r4], #1
    90a8:	e1a0c22c 	lsr	ip, ip, #4
    90ac:	8afffff9 	bhi	9098 <emit.constprop.0+0x78>
    90b0:	e3a0c078 	mov	ip, #120, 0	; 0x78
    90b4:	e1a0e004 	mov	lr, r4
    90b8:	e3a01030 	mov	r1, #48, 0	; 0x30
    90bc:	e4cec002 	strb	ip, [lr], #2
    90c0:	e5c41001 	strb	r1, [r4, #1]
    90c4:	e04e1002 	sub	r1, lr, r2
    90c8:	e1510003 	cmp	r1, r3
    90cc:	aa000083 	bge	92e0 <emit.constprop.0+0x2c0>
    90d0:	e1510003 	cmp	r1, r3
    90d4:	a3a0c001 	movge	ip, #1, 0
    90d8:	b3a0c000 	movlt	ip, #0, 0
    90dc:	e2434001 	sub	r4, r3, #1, 0
    90e0:	e0444001 	sub	r4, r4, r1
    90e4:	b0436001 	sublt	r6, r3, r1
    90e8:	a3a06001 	movge	r6, #1, 0
    90ec:	e3540002 	cmp	r4, #2, 0
    90f0:	938cc001 	orrls	ip, ip, #1, 0
    90f4:	e35c0000 	cmp	ip, #0, 0
    90f8:	1a000075 	bne	92d4 <emit.constprop.0+0x2b4>
    90fc:	e1a0c00e 	mov	ip, lr
    9100:	e3c65003 	bic	r5, r6, #3, 0
    9104:	e59f721c 	ldr	r7, [pc, #540]	; 9328 <emit.constprop.0+0x308>
    9108:	e085500e 	add	r5, r5, lr
    910c:	e48c7004 	str	r7, [ip], #4
    9110:	e15c0005 	cmp	ip, r5
    9114:	1afffffc 	bne	910c <emit.constprop.0+0xec>
    9118:	e3c6c003 	bic	ip, r6, #3, 0
    911c:	e156000c 	cmp	r6, ip
    9120:	e08e500c 	add	r5, lr, ip
    9124:	e08cc001 	add	ip, ip, r1
    9128:	0a000008 	beq	9150 <emit.constprop.0+0x130>
    912c:	e3a07020 	mov	r7, #32, 0
    9130:	e28c8001 	add	r8, ip, #1, 0
    9134:	e1580003 	cmp	r8, r3
    9138:	e5c57000 	strb	r7, [r5]
    913c:	aa000003 	bge	9150 <emit.constprop.0+0x130>
    9140:	e28cc002 	add	ip, ip, #2, 0
    9144:	e15c0003 	cmp	ip, r3
    9148:	e5c57001 	strb	r7, [r5, #1]
    914c:	b5c57002 	strblt	r7, [r5, #2]
    9150:	e1510003 	cmp	r1, r3
    9154:	a3a04000 	movge	r4, #0, 0
    9158:	e08e6006 	add	r6, lr, r6
    915c:	e0461002 	sub	r1, r6, r2
    9160:	e08ee004 	add	lr, lr, r4
    9164:	e3a03000 	mov	r3, #0, 0
    9168:	e351007f 	cmp	r1, #127, 0	; 0x7f
    916c:	c241407f 	subgt	r4, r1, #127, 0	; 0x7f
    9170:	c0822004 	addgt	r2, r2, r4
    9174:	e152000e 	cmp	r2, lr
    9178:	e5c63000 	strb	r3, [r6]
    917c:	8a00004f 	bhi	92c0 <emit.constprop.0+0x2a0>
    9180:	e28ee001 	add	lr, lr, #1, 0
    9184:	e1a0300e 	mov	r3, lr
    9188:	e240c001 	sub	ip, r0, #1, 0
    918c:	e5734001 	ldrb	r4, [r3, #-1]!
    9190:	e1530002 	cmp	r3, r2
    9194:	e5ec4001 	strb	r4, [ip, #1]!
    9198:	1afffffb 	bne	918c <emit.constprop.0+0x16c>
    919c:	e04ee003 	sub	lr, lr, r3
    91a0:	e3a03000 	mov	r3, #0, 0
    91a4:	e080e00e 	add	lr, r0, lr
    91a8:	e5ce3000 	strb	r3, [lr]
    91ac:	e28dd048 	add	sp, sp, #72, 0	; 0x48
    91b0:	e8bd81f0 	pop	{r4, r5, r6, r7, r8, pc}
    91b4:	e3a0307f 	mov	r3, #127, 0	; 0x7f
    91b8:	e28d2008 	add	r2, sp, #8, 0
    91bc:	e1a0e002 	mov	lr, r2
    91c0:	e59f1164 	ldr	r1, [pc, #356]	; 932c <emit.constprop.0+0x30c>
    91c4:	e20c4001 	and	r4, ip, #1, 0
    91c8:	e7d14004 	ldrb	r4, [r1, r4]
    91cc:	e35c0001 	cmp	ip, #1, 0
    91d0:	e4ce4001 	strb	r4, [lr], #1
    91d4:	e1a0c0ac 	lsr	ip, ip, #1
    91d8:	8afffff9 	bhi	91c4 <emit.constprop.0+0x1a4>
    91dc:	eaffffb8 	b	90c4 <emit.constprop.0+0xa4>
    91e0:	e24c3002 	sub	r3, ip, #2, 0
    91e4:	e1a0c002 	mov	ip, r2
    91e8:	e353000e 	cmp	r3, #14, 0
    91ec:	979ff103 	ldrls	pc, [pc, r3, lsl #2]
    91f0:	ea00003d 	b	92ec <emit.constprop.0+0x2cc>
    91f4:	000091b4 			; <UNDEFINED> instruction: 0x000091b4
    91f8:	000092ec 	andeq	r9, r0, ip, ror #5
    91fc:	000092ec 	andeq	r9, r0, ip, ror #5
    9200:	000092ec 	andeq	r9, r0, ip, ror #5
    9204:	000092ec 	andeq	r9, r0, ip, ror #5
    9208:	000092ec 	andeq	r9, r0, ip, ror #5
    920c:	0000930c 	andeq	r9, r0, ip, lsl #6
    9210:	000092ec 	andeq	r9, r0, ip, ror #5
    9214:	00009230 	andeq	r9, r0, r0, lsr r2
    9218:	000092ec 	andeq	r9, r0, ip, ror #5
    921c:	000092ec 	andeq	r9, r0, ip, ror #5
    9220:	000092ec 	andeq	r9, r0, ip, ror #5
    9224:	000092ec 	andeq	r9, r0, ip, ror #5
    9228:	000092ec 	andeq	r9, r0, ip, ror #5
    922c:	00009088 	andeq	r9, r0, r8, lsl #1
    9230:	e3a0307f 	mov	r3, #127, 0	; 0x7f
    9234:	e59d1060 	ldr	r1, [sp, #96]	; 0x60
    9238:	e59f70f0 	ldr	r7, [pc, #240]	; 9330 <emit.constprop.0+0x310>
    923c:	e0118fa2 	ands	r8, r1, r2, lsr #31
    9240:	1262c000 	rsbne	ip, r2, #0, 0
    9244:	e28d2008 	add	r2, sp, #8, 0
    9248:	13a08001 	movne	r8, #1, 0
    924c:	e1a0e002 	mov	lr, r2
    9250:	e59f60dc 	ldr	r6, [pc, #220]	; 9334 <emit.constprop.0+0x314>
    9254:	e1a0500c 	mov	r5, ip
    9258:	e0814c96 	umull	r4, r1, r6, ip
    925c:	e1a011a1 	lsr	r1, r1, #3
    9260:	e0814101 	add	r4, r1, r1, lsl #2
    9264:	e04cc084 	sub	ip, ip, r4, lsl #1
    9268:	e7d7400c 	ldrb	r4, [r7, ip]
    926c:	e3550009 	cmp	r5, #9, 0
    9270:	e1a0c001 	mov	ip, r1
    9274:	e1a0100e 	mov	r1, lr
    9278:	e4ce4001 	strb	r4, [lr], #1
    927c:	8afffff4 	bhi	9254 <emit.constprop.0+0x234>
    9280:	e3580000 	cmp	r8, #0, 0
    9284:	13a0c02d 	movne	ip, #45, 0	; 0x2d
    9288:	15cec000 	strbne	ip, [lr]
    928c:	1281e002 	addne	lr, r1, #2, 0
    9290:	eaffff8b 	b	90c4 <emit.constprop.0+0xa4>
    9294:	e3530001 	cmp	r3, #1, 0
    9298:	e5cd2008 	strb	r2, [sp, #8]
    929c:	c3a01001 	movgt	r1, #1, 0
    92a0:	c28de009 	addgt	lr, sp, #9, 0
    92a4:	c28d2008 	addgt	r2, sp, #8, 0
    92a8:	caffff88 	bgt	90d0 <emit.constprop.0+0xb0>
    92ac:	e3a03000 	mov	r3, #0, 0
    92b0:	e28de008 	add	lr, sp, #8, 0
    92b4:	e1a0200e 	mov	r2, lr
    92b8:	e5cd3009 	strb	r3, [sp, #9]
    92bc:	eaffffaf 	b	9180 <emit.constprop.0+0x160>
    92c0:	e1a0e000 	mov	lr, r0
    92c4:	e3a03000 	mov	r3, #0, 0
    92c8:	e5ce3000 	strb	r3, [lr]
    92cc:	e28dd048 	add	sp, sp, #72, 0	; 0x48
    92d0:	e8bd81f0 	pop	{r4, r5, r6, r7, r8, pc}
    92d4:	e1a0c001 	mov	ip, r1
    92d8:	e1a0500e 	mov	r5, lr
    92dc:	eaffff92 	b	912c <emit.constprop.0+0x10c>
    92e0:	e1a0600e 	mov	r6, lr
    92e4:	e24ee001 	sub	lr, lr, #1, 0
    92e8:	eaffff9d 	b	9164 <emit.constprop.0+0x144>
    92ec:	e59f2044 	ldr	r2, [pc, #68]	; 9338 <emit.constprop.0+0x318>
    92f0:	e3a03079 	mov	r3, #121, 0	; 0x79
    92f4:	e59f1040 	ldr	r1, [pc, #64]	; 933c <emit.constprop.0+0x31c>
    92f8:	e58d2000 	str	r2, [sp]
    92fc:	e59f003c 	ldr	r0, [pc, #60]	; 9340 <emit.constprop.0+0x320>
    9300:	e59f203c 	ldr	r2, [pc, #60]	; 9344 <emit.constprop.0+0x324>
    9304:	ebffff21 	bl	8f90 <printk>
    9308:	eb0001b1 	bl	99d4 <clean_reboot>
    930c:	e5cd2008 	strb	r2, [sp, #8]
    9310:	e3a0307f 	mov	r3, #127, 0	; 0x7f
    9314:	e3a01001 	mov	r1, #1, 0
    9318:	e28de009 	add	lr, sp, #9, 0
    931c:	e28d2008 	add	r2, sp, #8, 0
    9320:	eaffff6a 	b	90d0 <emit.constprop.0+0xb0>
    9324:	0000aa6c 	andeq	sl, r0, ip, ror #20
    9328:	20202020 	eorcs	r2, r0, r0, lsr #32
    932c:	0000aa80 	andeq	sl, r0, r0, lsl #21
    9330:	0000aa84 	andeq	sl, r0, r4, lsl #21
    9334:	cccccccd 	stclgt	12, cr12, [ip], {205}	; 0xcd
    9338:	0000a908 	andeq	sl, r0, r8, lsl #18
    933c:	0000aa58 	andeq	sl, r0, r8, asr sl
    9340:	0000a71c 	andeq	sl, r0, ip, lsl r7
    9344:	0000ab98 	muleq	r0, r8, fp

00009348 <rpi_set_output>:
    9348:	e3500000 	cmp	r0, #0, 0
    934c:	0a000005 	beq	9368 <rpi_set_output+0x20>
    9350:	e59f3038 	ldr	r3, [pc, #56]	; 9390 <rpi_set_output+0x48>
    9354:	e3510000 	cmp	r1, #0, 0
    9358:	e5830000 	str	r0, [r3]
    935c:	159f3030 	ldrne	r3, [pc, #48]	; 9394 <rpi_set_output+0x4c>
    9360:	15831000 	strne	r1, [r3]
    9364:	e12fff1e 	bx	lr
    9368:	e52de004 	push	{lr}		; (str lr, [sp, #-4]!)
    936c:	e59f2024 	ldr	r2, [pc, #36]	; 9398 <rpi_set_output+0x50>
    9370:	e24dd00c 	sub	sp, sp, #12, 0
    9374:	e3a03020 	mov	r3, #32, 0
    9378:	e59f101c 	ldr	r1, [pc, #28]	; 939c <rpi_set_output+0x54>
    937c:	e58d2000 	str	r2, [sp]
    9380:	e59f0018 	ldr	r0, [pc, #24]	; 93a0 <rpi_set_output+0x58>
    9384:	e59f2018 	ldr	r2, [pc, #24]	; 93a4 <rpi_set_output+0x5c>
    9388:	ebffff00 	bl	8f90 <printk>
    938c:	eb000190 	bl	99d4 <clean_reboot>
    9390:	0000adf0 	strdeq	sl, [r0], -r0
    9394:	0000ade0 	andeq	sl, r0, r0, ror #27
    9398:	0000aa90 	muleq	r0, r0, sl
    939c:	0000aa58 	andeq	sl, r0, r8, asr sl
    93a0:	0000a71c 	andeq	sl, r0, ip, lsl r7
    93a4:	0000aba0 	andeq	sl, r0, r0, lsr #23

000093a8 <va_printk>:
    93a8:	e92d4ff0 	push	{r4, r5, r6, r7, r8, r9, sl, fp, lr}
    93ac:	e1a0b000 	mov	fp, r0
    93b0:	e3a00000 	mov	r0, #0, 0
    93b4:	e5cb0000 	strb	r0, [fp]
    93b8:	e5d2c000 	ldrb	ip, [r2]
    93bc:	e2417001 	sub	r7, r1, #1, 0
    93c0:	e08b7007 	add	r7, fp, r7
    93c4:	e15c0000 	cmp	ip, r0
    93c8:	115b0007 	cmpne	fp, r7
    93cc:	e24ddf47 	sub	sp, sp, #284	; 0x11c
    93d0:	e58d2010 	str	r2, [sp, #16]
    93d4:	2a000159 	bcs	9940 <va_printk+0x598>
    93d8:	e1a06002 	mov	r6, r2
    93dc:	e1a08003 	mov	r8, r3
    93e0:	e1a0400b 	mov	r4, fp
    93e4:	e59fa5a4 	ldr	sl, [pc, #1444]	; 9990 <va_printk+0x5e8>
    93e8:	e58db00c 	str	fp, [sp, #12]
    93ec:	ea000005 	b	9408 <va_printk+0x60>
    93f0:	e4c4c001 	strb	ip, [r4], #1
    93f4:	e2866001 	add	r6, r6, #1, 0
    93f8:	e5d6c000 	ldrb	ip, [r6]
    93fc:	e35c0000 	cmp	ip, #0, 0
    9400:	11570004 	cmpne	r7, r4
    9404:	9a00002f 	bls	94c8 <va_printk+0x120>
    9408:	e35c0025 	cmp	ip, #37, 0	; 0x25
    940c:	1afffff7 	bne	93f0 <va_printk+0x48>
    9410:	e5d62001 	ldrb	r2, [r6, #1]
    9414:	e3520025 	cmp	r2, #37, 0	; 0x25
    9418:	04c4c001 	strbeq	ip, [r4], #1
    941c:	02866002 	addeq	r6, r6, #2, 0
    9420:	0afffff4 	beq	93f8 <va_printk+0x50>
    9424:	e2423030 	sub	r3, r2, #48, 0	; 0x30
    9428:	e3530009 	cmp	r3, #9, 0
    942c:	e3a05000 	mov	r5, #0, 0
    9430:	e2866001 	add	r6, r6, #1, 0
    9434:	8a000008 	bhi	945c <va_printk+0xb4>
    9438:	e0855105 	add	r5, r5, r5, lsl #2
    943c:	e0825085 	add	r5, r2, r5, lsl #1
    9440:	e5f62001 	ldrb	r2, [r6, #1]!
    9444:	e2455030 	sub	r5, r5, #48, 0	; 0x30
    9448:	e2423030 	sub	r3, r2, #48, 0	; 0x30
    944c:	e3530009 	cmp	r3, #9, 0
    9450:	9afffff8 	bls	9438 <va_printk+0x90>
    9454:	e355001f 	cmp	r5, #31, 0
    9458:	8a00013a 	bhi	9948 <va_printk+0x5a0>
    945c:	e2423062 	sub	r3, r2, #98, 0	; 0x62
    9460:	e3530016 	cmp	r3, #22, 0
    9464:	979ff103 	ldrls	pc, [pc, r3, lsl #2]
    9468:	ea00011b 	b	98dc <va_printk+0x534>
    946c:	00009720 	andeq	r9, r0, r0, lsr #14
    9470:	0000961c 	andeq	r9, r0, ip, lsl r6
    9474:	00009614 	andeq	r9, r0, r4, lsl r6
    9478:	000098dc 	ldrdeq	r9, [r0], -ip
    947c:	00009918 	andeq	r9, r0, r8, lsl r9
    9480:	000098dc 	ldrdeq	r9, [r0], -ip
    9484:	000098dc 	ldrdeq	r9, [r0], -ip
    9488:	000098dc 	ldrdeq	r9, [r0], -ip
    948c:	000098dc 	ldrdeq	r9, [r0], -ip
    9490:	000098dc 	ldrdeq	r9, [r0], -ip
    9494:	00009524 	andeq	r9, r0, r4, lsr #10
    9498:	000098dc 	ldrdeq	r9, [r0], -ip
    949c:	000098dc 	ldrdeq	r9, [r0], -ip
    94a0:	000098dc 	ldrdeq	r9, [r0], -ip
    94a4:	000094e0 	andeq	r9, r0, r0, ror #9
    94a8:	000098dc 	ldrdeq	r9, [r0], -ip
    94ac:	000098dc 	ldrdeq	r9, [r0], -ip
    94b0:	00009818 	andeq	r9, r0, r8, lsl r8
    94b4:	000098dc 	ldrdeq	r9, [r0], -ip
    94b8:	000095f0 	strdeq	r9, [r0], -r0
    94bc:	000098dc 	ldrdeq	r9, [r0], -ip
    94c0:	000098dc 	ldrdeq	r9, [r0], -ip
    94c4:	000094e0 	andeq	r9, r0, r0, ror #9
    94c8:	e59db00c 	ldr	fp, [sp, #12]
    94cc:	e3a03000 	mov	r3, #0, 0
    94d0:	e4c43001 	strb	r3, [r4], #1
    94d4:	e044000b 	sub	r0, r4, fp
    94d8:	e28ddf47 	add	sp, sp, #284	; 0x11c
    94dc:	e8bd8ff0 	pop	{r4, r5, r6, r7, r8, r9, sl, fp, pc}
    94e0:	e3a01000 	mov	r1, #0, 0
    94e4:	e1a03005 	mov	r3, r5
    94e8:	e4982004 	ldr	r2, [r8], #4
    94ec:	e3a00010 	mov	r0, #16, 0
    94f0:	e58d1000 	str	r1, [sp]
    94f4:	e28d1018 	add	r1, sp, #24, 0
    94f8:	ebfffec8 	bl	9020 <emit.constprop.0>
    94fc:	e1a05000 	mov	r5, r0
    9500:	e2866001 	add	r6, r6, #1, 0
    9504:	e2455001 	sub	r5, r5, #1, 0
    9508:	e5f53001 	ldrb	r3, [r5, #1]!
    950c:	e3530000 	cmp	r3, #0, 0
    9510:	0affffb8 	beq	93f8 <va_printk+0x50>
    9514:	e4c43001 	strb	r3, [r4], #1
    9518:	e1570004 	cmp	r7, r4
    951c:	8afffff9 	bhi	9508 <va_printk+0x160>
    9520:	eaffffb4 	b	93f8 <va_printk+0x50>
    9524:	e3a02003 	mov	r2, #3, 0
    9528:	e1a00006 	mov	r0, r6
    952c:	e59f1460 	ldr	r1, [pc, #1120]	; 9994 <va_printk+0x5ec>
    9530:	eb0003e6 	bl	a4d0 <strncmp>
    9534:	e3500000 	cmp	r0, #0, 0
    9538:	0a000005 	beq	9554 <va_printk+0x1ac>
    953c:	e3a02003 	mov	r2, #3, 0
    9540:	e1a00006 	mov	r0, r6
    9544:	e59f144c 	ldr	r1, [pc, #1100]	; 9998 <va_printk+0x5f0>
    9548:	eb0003e0 	bl	a4d0 <strncmp>
    954c:	e3500000 	cmp	r0, #0, 0
    9550:	1a00010b 	bne	9984 <va_printk+0x5dc>
    9554:	e2888007 	add	r8, r8, #7, 0
    9558:	e3c88007 	bic	r8, r8, #7, 0
    955c:	e598b004 	ldr	fp, [r8, #4]
    9560:	e4989008 	ldr	r9, [r8], #8
    9564:	e1a0100b 	mov	r1, fp
    9568:	e59f042c 	ldr	r0, [pc, #1068]	; 999c <va_printk+0x5f4>
    956c:	ebfffe87 	bl	8f90 <printk>
    9570:	e1a01009 	mov	r1, r9
    9574:	e59f0424 	ldr	r0, [pc, #1060]	; 99a0 <va_printk+0x5f8>
    9578:	ebfffe84 	bl	8f90 <printk>
    957c:	e3a02003 	mov	r2, #3, 0
    9580:	e1a00006 	mov	r0, r6
    9584:	e59f1408 	ldr	r1, [pc, #1032]	; 9994 <va_printk+0x5ec>
    9588:	eb0003d0 	bl	a4d0 <strncmp>
    958c:	e2503000 	subs	r3, r0, #0, 0
    9590:	e1a02003 	mov	r2, r3
    9594:	e2863002 	add	r3, r6, #2, 0
    9598:	e58d3014 	str	r3, [sp, #20]
    959c:	1a00009f 	bne	9820 <va_printk+0x478>
    95a0:	e1a06002 	mov	r6, r2
    95a4:	e1a03005 	mov	r3, r5
    95a8:	e58d2000 	str	r2, [sp]
    95ac:	e28d1018 	add	r1, sp, #24, 0
    95b0:	e1a0200b 	mov	r2, fp
    95b4:	e3a00010 	mov	r0, #16, 0
    95b8:	ebfffe98 	bl	9020 <emit.constprop.0>
    95bc:	e1a0c000 	mov	ip, r0
    95c0:	e1a03005 	mov	r3, r5
    95c4:	e58d6000 	str	r6, [sp]
    95c8:	e28d1098 	add	r1, sp, #152, 0	; 0x98
    95cc:	e1a02009 	mov	r2, r9
    95d0:	e3a00010 	mov	r0, #16, 0
    95d4:	e1a0500c 	mov	r5, ip
    95d8:	ebfffe90 	bl	9020 <emit.constprop.0>
    95dc:	e28d0018 	add	r0, sp, #24, 0
    95e0:	e28d109a 	add	r1, sp, #154, 0	; 0x9a
    95e4:	e59d6014 	ldr	r6, [sp, #20]
    95e8:	eb000396 	bl	a448 <strcat>
    95ec:	eaffffc3 	b	9500 <va_printk+0x158>
    95f0:	e3a01000 	mov	r1, #0, 0
    95f4:	e1a03005 	mov	r3, r5
    95f8:	e4982004 	ldr	r2, [r8], #4
    95fc:	e3a0000a 	mov	r0, #10, 0
    9600:	e58d1000 	str	r1, [sp]
    9604:	e28d1018 	add	r1, sp, #24, 0
    9608:	ebfffe84 	bl	9020 <emit.constprop.0>
    960c:	e1a05000 	mov	r5, r0
    9610:	eaffffba 	b	9500 <va_printk+0x158>
    9614:	e3a01001 	mov	r1, #1, 0
    9618:	eafffff5 	b	95f4 <va_printk+0x24c>
    961c:	e4983004 	ldr	r3, [r8], #4
    9620:	e3550001 	cmp	r5, #1, 0
    9624:	e5cd3098 	strb	r3, [sp, #152]	; 0x98
    9628:	9a0000a6 	bls	98c8 <va_printk+0x520>
    962c:	e2453002 	sub	r3, r5, #2, 0
    9630:	e3530002 	cmp	r3, #2, 0
    9634:	e2451001 	sub	r1, r5, #1, 0
    9638:	9a0000bc 	bls	9930 <va_printk+0x588>
    963c:	e59f0360 	ldr	r0, [pc, #864]	; 99a4 <va_printk+0x5fc>
    9640:	e1a02121 	lsr	r2, r1, #2
    9644:	e3520001 	cmp	r2, #1, 0
    9648:	e58d0099 	str	r0, [sp, #153]	; 0x99
    964c:	0a00000e 	beq	968c <va_printk+0x2e4>
    9650:	e3520002 	cmp	r2, #2, 0
    9654:	e58d009d 	str	r0, [sp, #157]	; 0x9d
    9658:	0a00000b 	beq	968c <va_printk+0x2e4>
    965c:	e3520003 	cmp	r2, #3, 0
    9660:	e58d00a1 	str	r0, [sp, #161]	; 0xa1
    9664:	0a000008 	beq	968c <va_printk+0x2e4>
    9668:	e3520004 	cmp	r2, #4, 0
    966c:	e58d00a5 	str	r0, [sp, #165]	; 0xa5
    9670:	0a000005 	beq	968c <va_printk+0x2e4>
    9674:	e3520005 	cmp	r2, #5, 0
    9678:	e58d00a9 	str	r0, [sp, #169]	; 0xa9
    967c:	0a000002 	beq	968c <va_printk+0x2e4>
    9680:	e3520007 	cmp	r2, #7, 0
    9684:	e58d00ad 	str	r0, [sp, #173]	; 0xad
    9688:	058d00b1 	streq	r0, [sp, #177]	; 0xb1
    968c:	e3c12003 	bic	r2, r1, #3, 0
    9690:	e1510002 	cmp	r1, r2
    9694:	e28dc099 	add	ip, sp, #153, 0	; 0x99
    9698:	e08c0002 	add	r0, ip, r2
    969c:	e2822001 	add	r2, r2, #1, 0
    96a0:	0a000008 	beq	96c8 <va_printk+0x320>
    96a4:	e3a0e020 	mov	lr, #32, 0
    96a8:	e2829001 	add	r9, r2, #1, 0
    96ac:	e1550009 	cmp	r5, r9
    96b0:	e5c0e000 	strb	lr, [r0]
    96b4:	da000003 	ble	96c8 <va_printk+0x320>
    96b8:	e2822002 	add	r2, r2, #2, 0
    96bc:	e1550002 	cmp	r5, r2
    96c0:	e5c0e001 	strb	lr, [r0, #1]
    96c4:	c5c0e002 	strbgt	lr, [r0, #2]
    96c8:	e3a0e000 	mov	lr, #0, 0
    96cc:	e28d0098 	add	r0, sp, #152, 0	; 0x98
    96d0:	e08c2001 	add	r2, ip, r1
    96d4:	e0422000 	sub	r2, r2, r0
    96d8:	e352007f 	cmp	r2, #127, 0	; 0x7f
    96dc:	c242207f 	subgt	r2, r2, #127, 0	; 0x7f
    96e0:	e08c3003 	add	r3, ip, r3
    96e4:	c0800002 	addgt	r0, r0, r2
    96e8:	e1530000 	cmp	r3, r0
    96ec:	e7cce001 	strb	lr, [ip, r1]
    96f0:	3a00006c 	bcc	98a8 <va_printk+0x500>
    96f4:	e283c001 	add	ip, r3, #1, 0
    96f8:	e1a0300c 	mov	r3, ip
    96fc:	e28d5018 	add	r5, sp, #24, 0
    9700:	e2452001 	sub	r2, r5, #1, 0
    9704:	e5731001 	ldrb	r1, [r3, #-1]!
    9708:	e1500003 	cmp	r0, r3
    970c:	e5e21001 	strb	r1, [r2, #1]!
    9710:	1afffffb 	bne	9704 <va_printk+0x35c>
    9714:	e04c3000 	sub	r3, ip, r0
    9718:	e0853003 	add	r3, r5, r3
    971c:	ea00003a 	b	980c <va_printk+0x464>
    9720:	e28d1098 	add	r1, sp, #152, 0	; 0x98
    9724:	e1a03001 	mov	r3, r1
    9728:	e4980004 	ldr	r0, [r8], #4
    972c:	e200c001 	and	ip, r0, #1, 0
    9730:	e7dac00c 	ldrb	ip, [sl, ip]
    9734:	e3500001 	cmp	r0, #1, 0
    9738:	e1a02003 	mov	r2, r3
    973c:	e1a000a0 	lsr	r0, r0, #1
    9740:	e4c3c001 	strb	ip, [r3], #1
    9744:	8afffff8 	bhi	972c <va_printk+0x384>
    9748:	e0430001 	sub	r0, r3, r1
    974c:	e1550000 	cmp	r5, r0
    9750:	da000057 	ble	98b4 <va_printk+0x50c>
    9754:	e045c000 	sub	ip, r5, r0
    9758:	e24ce001 	sub	lr, ip, #1, 0
    975c:	e35e0002 	cmp	lr, #2, 0
    9760:	e1a0e003 	mov	lr, r3
    9764:	9a00000a 	bls	9794 <va_printk+0x3ec>
    9768:	e3cc9003 	bic	r9, ip, #3, 0
    976c:	e0899003 	add	r9, r9, r3
    9770:	e59fb22c 	ldr	fp, [pc, #556]	; 99a4 <va_printk+0x5fc>
    9774:	e48eb004 	str	fp, [lr], #4
    9778:	e15e0009 	cmp	lr, r9
    977c:	1afffffb 	bne	9770 <va_printk+0x3c8>
    9780:	e3cce003 	bic	lr, ip, #3, 0
    9784:	e15e000c 	cmp	lr, ip
    9788:	e080000e 	add	r0, r0, lr
    978c:	e083e00e 	add	lr, r3, lr
    9790:	0a000008 	beq	97b8 <va_printk+0x410>
    9794:	e3a09020 	mov	r9, #32, 0
    9798:	e280b001 	add	fp, r0, #1, 0
    979c:	e155000b 	cmp	r5, fp
    97a0:	e5ce9000 	strb	r9, [lr]
    97a4:	da000003 	ble	97b8 <va_printk+0x410>
    97a8:	e2800002 	add	r0, r0, #2, 0
    97ac:	e1550000 	cmp	r5, r0
    97b0:	e5ce9001 	strb	r9, [lr, #1]
    97b4:	c5ce9002 	strbgt	r9, [lr, #2]
    97b8:	e3a0e000 	mov	lr, #0, 0
    97bc:	e083000c 	add	r0, r3, ip
    97c0:	e0400001 	sub	r0, r0, r1
    97c4:	e350007f 	cmp	r0, #127, 0	; 0x7f
    97c8:	e082200c 	add	r2, r2, ip
    97cc:	e7c3e00c 	strb	lr, [r3, ip]
    97d0:	da000001 	ble	97dc <va_printk+0x434>
    97d4:	e240007f 	sub	r0, r0, #127, 0	; 0x7f
    97d8:	e0811000 	add	r1, r1, r0
    97dc:	e1510002 	cmp	r1, r2
    97e0:	8a000030 	bhi	98a8 <va_printk+0x500>
    97e4:	e2822001 	add	r2, r2, #1, 0
    97e8:	e1a03002 	mov	r3, r2
    97ec:	e28d5018 	add	r5, sp, #24, 0
    97f0:	e245c001 	sub	ip, r5, #1, 0
    97f4:	e5730001 	ldrb	r0, [r3, #-1]!
    97f8:	e1530001 	cmp	r3, r1
    97fc:	e5ec0001 	strb	r0, [ip, #1]!
    9800:	1afffffb 	bne	97f4 <va_printk+0x44c>
    9804:	e0423003 	sub	r3, r2, r3
    9808:	e0853003 	add	r3, r5, r3
    980c:	e3a02000 	mov	r2, #0, 0
    9810:	e5c32000 	strb	r2, [r3]
    9814:	eaffff39 	b	9500 <va_printk+0x158>
    9818:	e4985004 	ldr	r5, [r8], #4
    981c:	eaffff37 	b	9500 <va_printk+0x158>
    9820:	e3a02003 	mov	r2, #3, 0
    9824:	e1a00006 	mov	r0, r6
    9828:	e59f1168 	ldr	r1, [pc, #360]	; 9998 <va_printk+0x5f0>
    982c:	eb000327 	bl	a4d0 <strncmp>
    9830:	e2503000 	subs	r3, r0, #0, 0
    9834:	1a00004b 	bne	9968 <va_printk+0x5c0>
    9838:	e1a06003 	mov	r6, r3
    983c:	e1a0200b 	mov	r2, fp
    9840:	e58d3000 	str	r3, [sp]
    9844:	e28d1018 	add	r1, sp, #24, 0
    9848:	e1a03005 	mov	r3, r5
    984c:	e3a0000a 	mov	r0, #10, 0
    9850:	ebfffdf2 	bl	9020 <emit.constprop.0>
    9854:	e1a0c000 	mov	ip, r0
    9858:	e1a03005 	mov	r3, r5
    985c:	e1a02009 	mov	r2, r9
    9860:	e28d1098 	add	r1, sp, #152, 0	; 0x98
    9864:	e3a0000a 	mov	r0, #10, 0
    9868:	e58d6000 	str	r6, [sp]
    986c:	e1a0500c 	mov	r5, ip
    9870:	ebfffdea 	bl	9020 <emit.constprop.0>
    9874:	e59f112c 	ldr	r1, [pc, #300]	; 99a8 <va_printk+0x600>
    9878:	e28d0018 	add	r0, sp, #24, 0
    987c:	eb0002fc 	bl	a474 <strcmp>
    9880:	e3500000 	cmp	r0, #0, 0
    9884:	e28d1098 	add	r1, sp, #152, 0	; 0x98
    9888:	e28d0018 	add	r0, sp, #24, 0
    988c:	1a000002 	bne	989c <va_printk+0x4f4>
    9890:	eb000308 	bl	a4b8 <strcpy>
    9894:	e59d6014 	ldr	r6, [sp, #20]
    9898:	eaffff18 	b	9500 <va_printk+0x158>
    989c:	eb0002e9 	bl	a448 <strcat>
    98a0:	e59d6014 	ldr	r6, [sp, #20]
    98a4:	eaffff15 	b	9500 <va_printk+0x158>
    98a8:	e28d5018 	add	r5, sp, #24, 0
    98ac:	e1a03005 	mov	r3, r5
    98b0:	eaffffd5 	b	980c <va_printk+0x464>
    98b4:	e3a0c000 	mov	ip, #0, 0
    98b8:	e350007f 	cmp	r0, #127, 0	; 0x7f
    98bc:	e5c3c000 	strb	ip, [r3]
    98c0:	caffffc3 	bgt	97d4 <va_printk+0x42c>
    98c4:	eaffffc6 	b	97e4 <va_printk+0x43c>
    98c8:	e3a02000 	mov	r2, #0, 0
    98cc:	e28d3098 	add	r3, sp, #152, 0	; 0x98
    98d0:	e1a00003 	mov	r0, r3
    98d4:	e5cd2099 	strb	r2, [sp, #153]	; 0x99
    98d8:	eaffff85 	b	96f4 <va_printk+0x34c>
    98dc:	e3a03000 	mov	r3, #0, 0
    98e0:	e1a01002 	mov	r1, r2
    98e4:	e5c63001 	strb	r3, [r6, #1]
    98e8:	e59f00bc 	ldr	r0, [pc, #188]	; 99ac <va_printk+0x604>
    98ec:	ebfffda7 	bl	8f90 <printk>
    98f0:	e59f30b8 	ldr	r3, [pc, #184]	; 99b0 <va_printk+0x608>
    98f4:	e59d0010 	ldr	r0, [sp, #16]
    98f8:	e5933000 	ldr	r3, [r3]
    98fc:	e12fff33 	blx	r3
    9900:	e3a030e2 	mov	r3, #226, 0	; 0xe2
    9904:	e59f20a8 	ldr	r2, [pc, #168]	; 99b4 <va_printk+0x60c>
    9908:	e59f10a8 	ldr	r1, [pc, #168]	; 99b8 <va_printk+0x610>
    990c:	e59f00a8 	ldr	r0, [pc, #168]	; 99bc <va_printk+0x614>
    9910:	ebfffd9e 	bl	8f90 <printk>
    9914:	eb00002e 	bl	99d4 <clean_reboot>
    9918:	e3a030be 	mov	r3, #190, 0	; 0xbe
    991c:	e59f2090 	ldr	r2, [pc, #144]	; 99b4 <va_printk+0x60c>
    9920:	e59f1090 	ldr	r1, [pc, #144]	; 99b8 <va_printk+0x610>
    9924:	e59f0094 	ldr	r0, [pc, #148]	; 99c0 <va_printk+0x618>
    9928:	ebfffd98 	bl	8f90 <printk>
    992c:	eb000028 	bl	99d4 <clean_reboot>
    9930:	e28dc099 	add	ip, sp, #153, 0	; 0x99
    9934:	e1a0000c 	mov	r0, ip
    9938:	e3a02001 	mov	r2, #1, 0
    993c:	eaffff58 	b	96a4 <va_printk+0x2fc>
    9940:	e1a0400b 	mov	r4, fp
    9944:	eafffee0 	b	94cc <va_printk+0x124>
    9948:	e3a03098 	mov	r3, #152, 0	; 0x98
    994c:	e59f2070 	ldr	r2, [pc, #112]	; 99c4 <va_printk+0x61c>
    9950:	e59f1060 	ldr	r1, [pc, #96]	; 99b8 <va_printk+0x610>
    9954:	e58d2000 	str	r2, [sp]
    9958:	e59f0068 	ldr	r0, [pc, #104]	; 99c8 <va_printk+0x620>
    995c:	e59f2050 	ldr	r2, [pc, #80]	; 99b4 <va_printk+0x60c>
    9960:	ebfffd8a 	bl	8f90 <printk>
    9964:	eb00001a 	bl	99d4 <clean_reboot>
    9968:	e3a030b6 	mov	r3, #182, 0	; 0xb6
    996c:	e59f2040 	ldr	r2, [pc, #64]	; 99b4 <va_printk+0x60c>
    9970:	e59f1040 	ldr	r1, [pc, #64]	; 99b8 <va_printk+0x610>
    9974:	e59f0050 	ldr	r0, [pc, #80]	; 99cc <va_printk+0x624>
    9978:	e58d6000 	str	r6, [sp]
    997c:	ebfffd83 	bl	8f90 <printk>
    9980:	eb000013 	bl	99d4 <clean_reboot>
    9984:	e3a0309f 	mov	r3, #159, 0	; 0x9f
    9988:	e59f2040 	ldr	r2, [pc, #64]	; 99d0 <va_printk+0x628>
    998c:	eaffffef 	b	9950 <va_printk+0x5a8>
    9990:	0000aa80 	andeq	sl, r0, r0, lsl #21
    9994:	0000aaa4 	andeq	sl, r0, r4, lsr #21
    9998:	0000aab8 			; <UNDEFINED> instruction: 0x0000aab8
    999c:	0000aaa8 	andeq	sl, r0, r8, lsr #21
    99a0:	0000aab0 			; <UNDEFINED> instruction: 0x0000aab0
    99a4:	20202020 	eorcs	r2, r0, r0, lsr #32
    99a8:	0000a908 	andeq	sl, r0, r8, lsl #18
    99ac:	0000ab48 	andeq	sl, r0, r8, asr #22
    99b0:	0000ade0 	andeq	sl, r0, r0, ror #27
    99b4:	0000abb0 			; <UNDEFINED> instruction: 0x0000abb0
    99b8:	0000aa58 	andeq	sl, r0, r8, asr sl
    99bc:	0000ab78 	andeq	sl, r0, r8, ror fp
    99c0:	0000ab20 	andeq	sl, r0, r0, lsr #22
    99c4:	0000aa98 	muleq	r0, r8, sl
    99c8:	0000a71c 	andeq	sl, r0, ip, lsl r7
    99cc:	0000aaf8 	strdeq	sl, [r0], -r8
    99d0:	0000aabc 			; <UNDEFINED> instruction: 0x0000aabc

000099d4 <clean_reboot>:
    99d4:	e59f301c 	ldr	r3, [pc, #28]	; 99f8 <clean_reboot+0x24>
    99d8:	e92d4010 	push	{r4, lr}
    99dc:	e5933000 	ldr	r3, [r3]
    99e0:	e59f0014 	ldr	r0, [pc, #20]	; 99fc <clean_reboot+0x28>
    99e4:	e12fff33 	blx	r3
    99e8:	eb000127 	bl	9e8c <uart_flush_tx>
    99ec:	e3a0000a 	mov	r0, #10, 0
    99f0:	eb00008e 	bl	9c30 <delay_ms>
    99f4:	eb000057 	bl	9b58 <rpi_reboot>
    99f8:	0000ade0 	andeq	sl, r0, r0, ror #27
    99fc:	0000abbc 			; <UNDEFINED> instruction: 0x0000abbc

00009a00 <_cstart>:
    9a00:	e92d4070 	push	{r4, r5, r6, lr}
    9a04:	eb000047 	bl	9b28 <custom_loader>
    9a08:	e59f2108 	ldr	r2, [pc, #264]	; 9b18 <_cstart+0x118>
    9a0c:	e59fc108 	ldr	ip, [pc, #264]	; 9b1c <_cstart+0x11c>
    9a10:	e152000c 	cmp	r2, ip
    9a14:	2a00002e 	bcs	9ad4 <_cstart+0xd4>
    9a18:	e24c1001 	sub	r1, ip, #1, 0
    9a1c:	e0411002 	sub	r1, r1, r2
    9a20:	e3510017 	cmp	r1, #23, 0
    9a24:	e1a03122 	lsr	r3, r2, #2
    9a28:	e1a01121 	lsr	r1, r1, #2
    9a2c:	e2811001 	add	r1, r1, #1, 0
    9a30:	e2033001 	and	r3, r3, #1, 0
    9a34:	9a000035 	bls	9b10 <_cstart+0x110>
    9a38:	e3530000 	cmp	r3, #0, 0
    9a3c:	11a00002 	movne	r0, r2
    9a40:	13a0e000 	movne	lr, #0, 0
    9a44:	e3a04000 	mov	r4, #0, 0
    9a48:	e3a05000 	mov	r5, #0, 0
    9a4c:	e0411003 	sub	r1, r1, r3
    9a50:	01a00002 	moveq	r0, r2
    9a54:	e0823103 	add	r3, r2, r3, lsl #2
    9a58:	e1a020a1 	lsr	r2, r1, #1
    9a5c:	1480e004 	strne	lr, [r0], #4
    9a60:	e0832182 	add	r2, r3, r2, lsl #3
    9a64:	e0c340f8 	strd	r4, [r3], #8
    9a68:	e1520003 	cmp	r2, r3
    9a6c:	1afffffc 	bne	9a64 <_cstart+0x64>
    9a70:	e3c13001 	bic	r3, r1, #1, 0
    9a74:	e1510003 	cmp	r1, r3
    9a78:	e0803103 	add	r3, r0, r3, lsl #2
    9a7c:	0a000014 	beq	9ad4 <_cstart+0xd4>
    9a80:	e1a01003 	mov	r1, r3
    9a84:	e3a02000 	mov	r2, #0, 0
    9a88:	e4812004 	str	r2, [r1], #4
    9a8c:	e151000c 	cmp	r1, ip
    9a90:	2a00000f 	bcs	9ad4 <_cstart+0xd4>
    9a94:	e2831008 	add	r1, r3, #8, 0
    9a98:	e151000c 	cmp	r1, ip
    9a9c:	e5832004 	str	r2, [r3, #4]
    9aa0:	2a00000b 	bcs	9ad4 <_cstart+0xd4>
    9aa4:	e283100c 	add	r1, r3, #12, 0
    9aa8:	e151000c 	cmp	r1, ip
    9aac:	e5832008 	str	r2, [r3, #8]
    9ab0:	2a000007 	bcs	9ad4 <_cstart+0xd4>
    9ab4:	e2831010 	add	r1, r3, #16, 0
    9ab8:	e151000c 	cmp	r1, ip
    9abc:	e583200c 	str	r2, [r3, #12]
    9ac0:	2a000003 	bcs	9ad4 <_cstart+0xd4>
    9ac4:	e2831014 	add	r1, r3, #20, 0
    9ac8:	e151000c 	cmp	r1, ip
    9acc:	e5832010 	str	r2, [r3, #16]
    9ad0:	35832014 	strcc	r2, [r3, #20]
    9ad4:	eb00008e 	bl	9d14 <uart_init>
    9ad8:	e3a03001 	mov	r3, #1, 0
    9adc:	ee0f3f1c 	mcr	15, 0, r3, cr15, cr12, {0}
    9ae0:	ee1f3f3c 	mrc	15, 0, r3, cr15, cr12, {1}
    9ae4:	e59f4034 	ldr	r4, [pc, #52]	; 9b20 <_cstart+0x120>
    9ae8:	e5843000 	str	r3, [r4]
    9aec:	ebfff97a 	bl	80dc <notmain>
    9af0:	ee1f3f3c 	mrc	15, 0, r3, cr15, cr12, {1}
    9af4:	e5941000 	ldr	r1, [r4]
    9af8:	e59f0024 	ldr	r0, [pc, #36]	; 9b24 <_cstart+0x124>
    9afc:	e3510000 	cmp	r1, #0, 0
    9b00:	10431001 	subne	r1, r3, r1
    9b04:	e5843000 	str	r3, [r4]
    9b08:	ebfffd20 	bl	8f90 <printk>
    9b0c:	ebffffb0 	bl	99d4 <clean_reboot>
    9b10:	e1a03002 	mov	r3, r2
    9b14:	eaffffd9 	b	9a80 <_cstart+0x80>
    9b18:	0000adf8 	strdeq	sl, [r0], -r8
    9b1c:	0000b228 	andeq	fp, r0, r8, lsr #4
    9b20:	0000b21c 	andeq	fp, r0, ip, lsl r2
    9b24:	0000abc8 	andeq	sl, r0, r8, asr #23

00009b28 <custom_loader>:
    9b28:	e12fff1e 	bx	lr

00009b2c <at_user_level>:
    9b2c:	e10f0000 	mrs	r0, CPSR
    9b30:	e200001f 	and	r0, r0, #31, 0
    9b34:	e2400010 	sub	r0, r0, #16, 0
    9b38:	e16f0f10 	clz	r0, r0
    9b3c:	e1a002a0 	lsr	r0, r0, #5
    9b40:	e12fff1e 	bx	lr

00009b44 <set_user_level>:
    9b44:	e10f3000 	mrs	r3, CPSR
    9b48:	e3c3301f 	bic	r3, r3, #31, 0
    9b4c:	e3833010 	orr	r3, r3, #16, 0
    9b50:	e129f003 	msr	CPSR_fc, r3
    9b54:	e12fff1e 	bx	lr

00009b58 <rpi_reboot>:
    9b58:	e92d4010 	push	{r4, lr}
    9b5c:	e10f3000 	mrs	r3, CPSR
    9b60:	e203301f 	and	r3, r3, #31, 0
    9b64:	e3530010 	cmp	r3, #16, 0
    9b68:	1a000003 	bne	9b7c <rpi_reboot+0x24>
    9b6c:	e10f3000 	mrs	r3, CPSR
    9b70:	e3c3301f 	bic	r3, r3, #31, 0
    9b74:	e3833010 	orr	r3, r3, #16, 0
    9b78:	e129f003 	msr	CPSR_fc, r3
    9b7c:	eb00025f 	bl	a500 <reboot_callout>
    9b80:	eb0000c1 	bl	9e8c <uart_flush_tx>
    9b84:	e3a0000a 	mov	r0, #10, 0
    9b88:	eb000028 	bl	9c30 <delay_ms>
    9b8c:	e59f1014 	ldr	r1, [pc, #20]	; 9ba8 <rpi_reboot+0x50>
    9b90:	e59f0014 	ldr	r0, [pc, #20]	; 9bac <rpi_reboot+0x54>
    9b94:	ebfff922 	bl	8024 <PUT32>
    9b98:	e59f1010 	ldr	r1, [pc, #16]	; 9bb0 <rpi_reboot+0x58>
    9b9c:	e59f0010 	ldr	r0, [pc, #16]	; 9bb4 <rpi_reboot+0x5c>
    9ba0:	ebfff91f 	bl	8024 <PUT32>
    9ba4:	eafffffe 	b	9ba4 <rpi_reboot+0x4c>
    9ba8:	5a000001 	bpl	9bb4 <rpi_reboot+0x5c>
    9bac:	20100024 	andscs	r0, r0, r4, lsr #32
    9bb0:	5a000020 	bpl	9c38 <delay_ms+0x8>
    9bb4:	2010001c 	andscs	r0, r0, ip, lsl r0

00009bb8 <timer_get_usec_raw>:
    9bb8:	e59f0000 	ldr	r0, [pc]	; 9bc0 <timer_get_usec_raw+0x8>
    9bbc:	eafff91a 	b	802c <GET32>
    9bc0:	20003004 	andcs	r3, r0, r4

00009bc4 <timer_get_usec>:
    9bc4:	e92d4010 	push	{r4, lr}
    9bc8:	eb00024d 	bl	a504 <dev_barrier>
    9bcc:	e59f0010 	ldr	r0, [pc, #16]	; 9be4 <timer_get_usec+0x20>
    9bd0:	ebfff915 	bl	802c <GET32>
    9bd4:	e1a04000 	mov	r4, r0
    9bd8:	eb000249 	bl	a504 <dev_barrier>
    9bdc:	e1a00004 	mov	r0, r4
    9be0:	e8bd8010 	pop	{r4, pc}
    9be4:	20003004 	andcs	r3, r0, r4

00009be8 <delay_us>:
    9be8:	e92d41f0 	push	{r4, r5, r6, r7, r8, lr}
    9bec:	e1a06000 	mov	r6, r0
    9bf0:	eb000243 	bl	a504 <dev_barrier>
    9bf4:	e59f0030 	ldr	r0, [pc, #48]	; 9c2c <delay_us+0x44>
    9bf8:	ebfff90b 	bl	802c <GET32>
    9bfc:	e1a05000 	mov	r5, r0
    9c00:	eb00023f 	bl	a504 <dev_barrier>
    9c04:	e59f7020 	ldr	r7, [pc, #32]	; 9c2c <delay_us+0x44>
    9c08:	eb00023d 	bl	a504 <dev_barrier>
    9c0c:	e1a00007 	mov	r0, r7
    9c10:	ebfff905 	bl	802c <GET32>
    9c14:	e1a04000 	mov	r4, r0
    9c18:	e0444005 	sub	r4, r4, r5
    9c1c:	eb000238 	bl	a504 <dev_barrier>
    9c20:	e1540006 	cmp	r4, r6
    9c24:	3afffff7 	bcc	9c08 <delay_us+0x20>
    9c28:	e8bd81f0 	pop	{r4, r5, r6, r7, r8, pc}
    9c2c:	20003004 	andcs	r3, r0, r4

00009c30 <delay_ms>:
    9c30:	e92d41f0 	push	{r4, r5, r6, r7, r8, lr}
    9c34:	e0604280 	rsb	r4, r0, r0, lsl #5
    9c38:	e0800104 	add	r0, r0, r4, lsl #2
    9c3c:	e1a04180 	lsl	r4, r0, #3
    9c40:	eb00022f 	bl	a504 <dev_barrier>
    9c44:	e59f0030 	ldr	r0, [pc, #48]	; 9c7c <delay_ms+0x4c>
    9c48:	ebfff8f7 	bl	802c <GET32>
    9c4c:	e1a06000 	mov	r6, r0
    9c50:	eb00022b 	bl	a504 <dev_barrier>
    9c54:	e59f7020 	ldr	r7, [pc, #32]	; 9c7c <delay_ms+0x4c>
    9c58:	eb000229 	bl	a504 <dev_barrier>
    9c5c:	e1a00007 	mov	r0, r7
    9c60:	ebfff8f1 	bl	802c <GET32>
    9c64:	e1a05000 	mov	r5, r0
    9c68:	e0455006 	sub	r5, r5, r6
    9c6c:	eb000224 	bl	a504 <dev_barrier>
    9c70:	e1540005 	cmp	r4, r5
    9c74:	8afffff7 	bhi	9c58 <delay_ms+0x28>
    9c78:	e8bd81f0 	pop	{r4, r5, r6, r7, r8, pc}
    9c7c:	20003004 	andcs	r3, r0, r4

00009c80 <delay_sec>:
    9c80:	e92d41f0 	push	{r4, r5, r6, r7, r8, lr}
    9c84:	e0604280 	rsb	r4, r0, r0, lsl #5
    9c88:	e0644304 	rsb	r4, r4, r4, lsl #6
    9c8c:	e0800184 	add	r0, r0, r4, lsl #3
    9c90:	e1a04300 	lsl	r4, r0, #6
    9c94:	eb00021a 	bl	a504 <dev_barrier>
    9c98:	e59f0030 	ldr	r0, [pc, #48]	; 9cd0 <delay_sec+0x50>
    9c9c:	ebfff8e2 	bl	802c <GET32>
    9ca0:	e1a06000 	mov	r6, r0
    9ca4:	eb000216 	bl	a504 <dev_barrier>
    9ca8:	e59f7020 	ldr	r7, [pc, #32]	; 9cd0 <delay_sec+0x50>
    9cac:	eb000214 	bl	a504 <dev_barrier>
    9cb0:	e1a00007 	mov	r0, r7
    9cb4:	ebfff8dc 	bl	802c <GET32>
    9cb8:	e1a05000 	mov	r5, r0
    9cbc:	e0455006 	sub	r5, r5, r6
    9cc0:	eb00020f 	bl	a504 <dev_barrier>
    9cc4:	e1540005 	cmp	r4, r5
    9cc8:	8afffff7 	bhi	9cac <delay_sec+0x2c>
    9ccc:	e8bd81f0 	pop	{r4, r5, r6, r7, r8, pc}
    9cd0:	20003004 	andcs	r3, r0, r4

00009cd4 <and_in32>:
    9cd4:	e92d4070 	push	{r4, r5, r6, lr}
    9cd8:	e1a04000 	mov	r4, r0
    9cdc:	e1a05001 	mov	r5, r1
    9ce0:	ebfff8d1 	bl	802c <GET32>
    9ce4:	e0001005 	and	r1, r0, r5
    9ce8:	e1a00004 	mov	r0, r4
    9cec:	ebfff8cc 	bl	8024 <PUT32>
    9cf0:	e8bd8070 	pop	{r4, r5, r6, pc}

00009cf4 <or_in32>:
    9cf4:	e92d4070 	push	{r4, r5, r6, lr}
    9cf8:	e1a04000 	mov	r4, r0
    9cfc:	e1a05001 	mov	r5, r1
    9d00:	ebfff8c9 	bl	802c <GET32>
    9d04:	e1801005 	orr	r1, r0, r5
    9d08:	e1a00004 	mov	r0, r4
    9d0c:	ebfff8c4 	bl	8024 <PUT32>
    9d10:	e8bd8070 	pop	{r4, r5, r6, pc}

00009d14 <uart_init>:
    9d14:	e92d4010 	push	{r4, lr}
    9d18:	e3a01002 	mov	r1, #2, 0
    9d1c:	e3a0000e 	mov	r0, #14, 0
    9d20:	eb000153 	bl	a274 <gpio_set_function>
    9d24:	e3a01002 	mov	r1, #2, 0
    9d28:	e3a0000f 	mov	r0, #15, 0
    9d2c:	eb000150 	bl	a274 <gpio_set_function>
    9d30:	eb0001f3 	bl	a504 <dev_barrier>
    9d34:	e3a01001 	mov	r1, #1, 0
    9d38:	e59f0064 	ldr	r0, [pc, #100]	; 9da4 <uart_init+0x90>
    9d3c:	ebffffec 	bl	9cf4 <or_in32>
    9d40:	eb0001ef 	bl	a504 <dev_barrier>
    9d44:	e59f405c 	ldr	r4, [pc, #92]	; 9da8 <uart_init+0x94>
    9d48:	e3a01000 	mov	r1, #0, 0
    9d4c:	e1a00004 	mov	r0, r4
    9d50:	ebfff8b3 	bl	8024 <PUT32>
    9d54:	e3a01000 	mov	r1, #0, 0
    9d58:	e59f004c 	ldr	r0, [pc, #76]	; 9dac <uart_init+0x98>
    9d5c:	ebfff8b0 	bl	8024 <PUT32>
    9d60:	e3a01003 	mov	r1, #3, 0
    9d64:	e59f0044 	ldr	r0, [pc, #68]	; 9db0 <uart_init+0x9c>
    9d68:	ebfff8ad 	bl	8024 <PUT32>
    9d6c:	e3a01000 	mov	r1, #0, 0
    9d70:	e59f003c 	ldr	r0, [pc, #60]	; 9db4 <uart_init+0xa0>
    9d74:	ebfff8aa 	bl	8024 <PUT32>
    9d78:	e3a010c7 	mov	r1, #199, 0	; 0xc7
    9d7c:	e59f0034 	ldr	r0, [pc, #52]	; 9db8 <uart_init+0xa4>
    9d80:	ebfff8a7 	bl	8024 <PUT32>
    9d84:	e59f1030 	ldr	r1, [pc, #48]	; 9dbc <uart_init+0xa8>
    9d88:	e59f0030 	ldr	r0, [pc, #48]	; 9dc0 <uart_init+0xac>
    9d8c:	ebfff8a4 	bl	8024 <PUT32>
    9d90:	e3a01003 	mov	r1, #3, 0
    9d94:	e1a00004 	mov	r0, r4
    9d98:	ebfff8a1 	bl	8024 <PUT32>
    9d9c:	eb0001d8 	bl	a504 <dev_barrier>
    9da0:	e8bd8010 	pop	{r4, pc}
    9da4:	20215004 	eorcs	r5, r1, r4
    9da8:	20215060 	eorcs	r5, r1, r0, rrx
    9dac:	20215044 	eorcs	r5, r1, r4, asr #32
    9db0:	2021504c 	eorcs	r5, r1, ip, asr #32
    9db4:	20215050 	eorcs	r5, r1, r0, asr r0
    9db8:	20215048 	eorcs	r5, r1, r8, asr #32
    9dbc:	0000010e 	andeq	r0, r0, lr, lsl #2
    9dc0:	20215068 	eorcs	r5, r1, r8, rrx

00009dc4 <uart_can_getc>:
    9dc4:	e92d4010 	push	{r4, lr}
    9dc8:	e59f0008 	ldr	r0, [pc, #8]	; 9dd8 <uart_can_getc+0x14>
    9dcc:	ebfff896 	bl	802c <GET32>
    9dd0:	e2000001 	and	r0, r0, #1, 0
    9dd4:	e8bd8010 	pop	{r4, pc}
    9dd8:	20215064 	eorcs	r5, r1, r4, rrx

00009ddc <uart_can_putc>:
    9ddc:	e92d4010 	push	{r4, lr}
    9de0:	e59f0010 	ldr	r0, [pc, #16]	; 9df8 <uart_can_putc+0x1c>
    9de4:	ebfff890 	bl	802c <GET32>
    9de8:	e3100002 	tst	r0, #2, 0
    9dec:	13a00001 	movne	r0, #1, 0
    9df0:	03a00000 	moveq	r0, #0, 0
    9df4:	e8bd8010 	pop	{r4, pc}
    9df8:	20215064 	eorcs	r5, r1, r4, rrx

00009dfc <uart_getc>:
    9dfc:	e92d4010 	push	{r4, lr}
    9e00:	eb0001bf 	bl	a504 <dev_barrier>
    9e04:	ebffffee 	bl	9dc4 <uart_can_getc>
    9e08:	e3500000 	cmp	r0, #0, 0
    9e0c:	0afffffc 	beq	9e04 <uart_getc+0x8>
    9e10:	e59f0010 	ldr	r0, [pc, #16]	; 9e28 <uart_getc+0x2c>
    9e14:	ebfff884 	bl	802c <GET32>
    9e18:	e6ef4070 	uxtb	r4, r0
    9e1c:	eb0001b8 	bl	a504 <dev_barrier>
    9e20:	e1a00004 	mov	r0, r4
    9e24:	e8bd8010 	pop	{r4, pc}
    9e28:	20215040 	eorcs	r5, r1, r0, asr #32

00009e2c <uart_putc>:
    9e2c:	e92d4010 	push	{r4, lr}
    9e30:	e1a04000 	mov	r4, r0
    9e34:	eb0001b2 	bl	a504 <dev_barrier>
    9e38:	ebffffe7 	bl	9ddc <uart_can_putc>
    9e3c:	e3500000 	cmp	r0, #0, 0
    9e40:	0afffffc 	beq	9e38 <uart_putc+0xc>
    9e44:	e6ef1074 	uxtb	r1, r4
    9e48:	e59f0008 	ldr	r0, [pc, #8]	; 9e58 <uart_putc+0x2c>
    9e4c:	ebfff874 	bl	8024 <PUT32>
    9e50:	eb0001ab 	bl	a504 <dev_barrier>
    9e54:	e8bd8010 	pop	{r4, pc}
    9e58:	20215040 	eorcs	r5, r1, r0, asr #32

00009e5c <uart_has_data>:
    9e5c:	e92d4010 	push	{r4, lr}
    9e60:	eb0001a7 	bl	a504 <dev_barrier>
    9e64:	ebffffd6 	bl	9dc4 <uart_can_getc>
    9e68:	e8bd8010 	pop	{r4, pc}

00009e6c <uart_tx_is_empty>:
    9e6c:	e92d4010 	push	{r4, lr}
    9e70:	eb0001a3 	bl	a504 <dev_barrier>
    9e74:	e59f000c 	ldr	r0, [pc, #12]	; 9e88 <uart_tx_is_empty+0x1c>
    9e78:	ebfff86b 	bl	802c <GET32>
    9e7c:	e1a004a0 	lsr	r0, r0, #9
    9e80:	e2000001 	and	r0, r0, #1, 0
    9e84:	e8bd8010 	pop	{r4, pc}
    9e88:	20215064 	eorcs	r5, r1, r4, rrx

00009e8c <uart_flush_tx>:
    9e8c:	e92d4010 	push	{r4, lr}
    9e90:	ebfffff5 	bl	9e6c <uart_tx_is_empty>
    9e94:	e3500000 	cmp	r0, #0, 0
    9e98:	0afffffc 	beq	9e90 <uart_flush_tx+0x4>
    9e9c:	e8bd8010 	pop	{r4, pc}

00009ea0 <uart_disable>:
    9ea0:	e92d4010 	push	{r4, lr}
    9ea4:	ebfffff8 	bl	9e8c <uart_flush_tx>
    9ea8:	eb000195 	bl	a504 <dev_barrier>
    9eac:	e3e01001 	mvn	r1, #1, 0
    9eb0:	e59f0008 	ldr	r0, [pc, #8]	; 9ec0 <uart_disable+0x20>
    9eb4:	ebffff86 	bl	9cd4 <and_in32>
    9eb8:	eb000191 	bl	a504 <dev_barrier>
    9ebc:	e8bd8010 	pop	{r4, pc}
    9ec0:	20215004 	eorcs	r5, r1, r4

00009ec4 <kmalloc_heap_end>:
    9ec4:	e59f3004 	ldr	r3, [pc, #4]	; 9ed0 <kmalloc_heap_end+0xc>
    9ec8:	e5930000 	ldr	r0, [r3]
    9ecc:	e12fff1e 	bx	lr
    9ed0:	0000ade4 	andeq	sl, r0, r4, ror #27

00009ed4 <kmalloc_heap_start>:
    9ed4:	e59f3004 	ldr	r3, [pc, #4]	; 9ee0 <kmalloc_heap_start+0xc>
    9ed8:	e5930004 	ldr	r0, [r3, #4]
    9edc:	e12fff1e 	bx	lr
    9ee0:	0000ade4 	andeq	sl, r0, r4, ror #27

00009ee4 <kmalloc_heap_ptr>:
    9ee4:	e59f3004 	ldr	r3, [pc, #4]	; 9ef0 <kmalloc_heap_ptr+0xc>
    9ee8:	e5930000 	ldr	r0, [r3]
    9eec:	e12fff1e 	bx	lr
    9ef0:	0000ade4 	andeq	sl, r0, r4, ror #27

00009ef4 <kmalloc_init_set_start>:
    9ef4:	e52de004 	push	{lr}		; (str lr, [sp, #-4]!)
    9ef8:	e24dd00c 	sub	sp, sp, #12, 0
    9efc:	e3510000 	cmp	r1, #0, 0
    9f00:	0a00000a 	beq	9f30 <kmalloc_init_set_start+0x3c>
    9f04:	e59f306c 	ldr	r3, [pc, #108]	; 9f78 <kmalloc_init_set_start+0x84>
    9f08:	e5933000 	ldr	r3, [r3]
    9f0c:	e1530000 	cmp	r3, r0
    9f10:	8a00000e 	bhi	9f50 <kmalloc_init_set_start+0x5c>
    9f14:	e59f305c 	ldr	r3, [pc, #92]	; 9f78 <kmalloc_init_set_start+0x84>
    9f18:	e5830000 	str	r0, [r3]
    9f1c:	e5830004 	str	r0, [r3, #4]
    9f20:	e0800001 	add	r0, r0, r1
    9f24:	e5830008 	str	r0, [r3, #8]
    9f28:	e28dd00c 	add	sp, sp, #12, 0
    9f2c:	e49df004 	pop	{pc}		; (ldr pc, [sp], #4)
    9f30:	e59f3044 	ldr	r3, [pc, #68]	; 9f7c <kmalloc_init_set_start+0x88>
    9f34:	e58d3000 	str	r3, [sp]
    9f38:	e3a03030 	mov	r3, #48, 0	; 0x30
    9f3c:	e59f203c 	ldr	r2, [pc, #60]	; 9f80 <kmalloc_init_set_start+0x8c>
    9f40:	e59f103c 	ldr	r1, [pc, #60]	; 9f84 <kmalloc_init_set_start+0x90>
    9f44:	e59f003c 	ldr	r0, [pc, #60]	; 9f88 <kmalloc_init_set_start+0x94>
    9f48:	ebfffc10 	bl	8f90 <printk>
    9f4c:	ebfffea0 	bl	99d4 <clean_reboot>
    9f50:	e59f3020 	ldr	r3, [pc, #32]	; 9f78 <kmalloc_init_set_start+0x84>
    9f54:	e5933008 	ldr	r3, [r3, #8]
    9f58:	e58d3004 	str	r3, [sp, #4]
    9f5c:	e58d0000 	str	r0, [sp]
    9f60:	e3a03034 	mov	r3, #52, 0	; 0x34
    9f64:	e59f2014 	ldr	r2, [pc, #20]	; 9f80 <kmalloc_init_set_start+0x8c>
    9f68:	e59f1014 	ldr	r1, [pc, #20]	; 9f84 <kmalloc_init_set_start+0x90>
    9f6c:	e59f0018 	ldr	r0, [pc, #24]	; 9f8c <kmalloc_init_set_start+0x98>
    9f70:	ebfffc06 	bl	8f90 <printk>
    9f74:	ebfffe96 	bl	99d4 <clean_reboot>
    9f78:	0000ade4 	andeq	sl, r0, r4, ror #27
    9f7c:	0000abf0 	strdeq	sl, [r0], -r0
    9f80:	0000ad7c 	andeq	sl, r0, ip, ror sp
    9f84:	0000abe4 	andeq	sl, r0, r4, ror #23
    9f88:	0000a71c 	andeq	sl, r0, ip, lsl r7
    9f8c:	0000abfc 	strdeq	sl, [r0], -ip

00009f90 <kmalloc_init>:
    9f90:	e92d4010 	push	{r4, lr}
    9f94:	e59f303c 	ldr	r3, [pc, #60]	; 9fd8 <kmalloc_init+0x48>
    9f98:	e5933000 	ldr	r3, [r3]
    9f9c:	e3530000 	cmp	r3, #0, 0
    9fa0:	1a000006 	bne	9fc0 <kmalloc_init+0x30>
    9fa4:	e59f302c 	ldr	r3, [pc, #44]	; 9fd8 <kmalloc_init+0x48>
    9fa8:	e3a02001 	mov	r2, #1, 0
    9fac:	e5832000 	str	r2, [r3]
    9fb0:	e3a01201 	mov	r1, #268435456	; 0x10000000
    9fb4:	e3a00601 	mov	r0, #1048576	; 0x100000
    9fb8:	ebffffcd 	bl	9ef4 <kmalloc_init_set_start>
    9fbc:	e8bd8010 	pop	{r4, pc}
    9fc0:	e3a03040 	mov	r3, #64, 0	; 0x40
    9fc4:	e59f2010 	ldr	r2, [pc, #16]	; 9fdc <kmalloc_init+0x4c>
    9fc8:	e59f1010 	ldr	r1, [pc, #16]	; 9fe0 <kmalloc_init+0x50>
    9fcc:	e59f0010 	ldr	r0, [pc, #16]	; 9fe4 <kmalloc_init+0x54>
    9fd0:	ebfffbee 	bl	8f90 <printk>
    9fd4:	ebfffe7e 	bl	99d4 <clean_reboot>
    9fd8:	0000b220 	andeq	fp, r0, r0, lsr #4
    9fdc:	0000ad94 	muleq	r0, r4, sp
    9fe0:	0000abe4 	andeq	sl, r0, r4, ror #23
    9fe4:	0000ac40 	andeq	sl, r0, r0, asr #24

00009fe8 <kmalloc_notzero>:
    9fe8:	e52de004 	push	{lr}		; (str lr, [sp, #-4]!)
    9fec:	e24dd00c 	sub	sp, sp, #12, 0
    9ff0:	e3500000 	cmp	r0, #0, 0
    9ff4:	0a00000a 	beq	a024 <kmalloc_notzero+0x3c>
    9ff8:	e2800007 	add	r0, r0, #7, 0
    9ffc:	e3c03007 	bic	r3, r0, #7, 0
    a000:	e59f2060 	ldr	r2, [pc, #96]	; a068 <kmalloc_notzero+0x80>
    a004:	e5920000 	ldr	r0, [r2]
    a008:	e0801003 	add	r1, r0, r3
    a00c:	e5821000 	str	r1, [r2]
    a010:	e5922008 	ldr	r2, [r2, #8]
    a014:	e1510002 	cmp	r1, r2
    a018:	8a000009 	bhi	a044 <kmalloc_notzero+0x5c>
    a01c:	e28dd00c 	add	sp, sp, #12, 0
    a020:	e49df004 	pop	{pc}		; (ldr pc, [sp], #4)
    a024:	e59f3040 	ldr	r3, [pc, #64]	; a06c <kmalloc_notzero+0x84>
    a028:	e58d3000 	str	r3, [sp]
    a02c:	e3a03048 	mov	r3, #72, 0	; 0x48
    a030:	e59f2038 	ldr	r2, [pc, #56]	; a070 <kmalloc_notzero+0x88>
    a034:	e59f1038 	ldr	r1, [pc, #56]	; a074 <kmalloc_notzero+0x8c>
    a038:	e59f0038 	ldr	r0, [pc, #56]	; a078 <kmalloc_notzero+0x90>
    a03c:	ebfffbd3 	bl	8f90 <printk>
    a040:	ebfffe63 	bl	99d4 <clean_reboot>
    a044:	e0422000 	sub	r2, r2, r0
    a048:	e58d2004 	str	r2, [sp, #4]
    a04c:	e58d3000 	str	r3, [sp]
    a050:	e3a0304e 	mov	r3, #78, 0	; 0x4e
    a054:	e59f2014 	ldr	r2, [pc, #20]	; a070 <kmalloc_notzero+0x88>
    a058:	e59f1014 	ldr	r1, [pc, #20]	; a074 <kmalloc_notzero+0x8c>
    a05c:	e59f0018 	ldr	r0, [pc, #24]	; a07c <kmalloc_notzero+0x94>
    a060:	ebfffbca 	bl	8f90 <printk>
    a064:	ebfffe5a 	bl	99d4 <clean_reboot>
    a068:	0000ade4 	andeq	sl, r0, r4, ror #27
    a06c:	0000abf4 	strdeq	sl, [r0], -r4
    a070:	0000ada4 	andeq	sl, r0, r4, lsr #27
    a074:	0000abe4 	andeq	sl, r0, r4, ror #23
    a078:	0000a71c 	andeq	sl, r0, ip, lsl r7
    a07c:	0000ac70 	andeq	sl, r0, r0, ror ip

0000a080 <kmalloc>:
    a080:	e92d4030 	push	{r4, r5, lr}
    a084:	e24dd00c 	sub	sp, sp, #12, 0
    a088:	e2504000 	subs	r4, r0, #0, 0
    a08c:	0a000008 	beq	a0b4 <kmalloc+0x34>
    a090:	e1a00004 	mov	r0, r4
    a094:	ebffffd3 	bl	9fe8 <kmalloc_notzero>
    a098:	e1a05000 	mov	r5, r0
    a09c:	e1a02004 	mov	r2, r4
    a0a0:	e3a01000 	mov	r1, #0, 0
    a0a4:	ebfffb9b 	bl	8f18 <memset>
    a0a8:	e1a00005 	mov	r0, r5
    a0ac:	e28dd00c 	add	sp, sp, #12, 0
    a0b0:	e8bd8030 	pop	{r4, r5, pc}
    a0b4:	e59f3018 	ldr	r3, [pc, #24]	; a0d4 <kmalloc+0x54>
    a0b8:	e58d3000 	str	r3, [sp]
    a0bc:	e3a03054 	mov	r3, #84, 0	; 0x54
    a0c0:	e59f2010 	ldr	r2, [pc, #16]	; a0d8 <kmalloc+0x58>
    a0c4:	e59f1010 	ldr	r1, [pc, #16]	; a0dc <kmalloc+0x5c>
    a0c8:	e59f0010 	ldr	r0, [pc, #16]	; a0e0 <kmalloc+0x60>
    a0cc:	ebfffbaf 	bl	8f90 <printk>
    a0d0:	ebfffe3f 	bl	99d4 <clean_reboot>
    a0d4:	0000abf4 	strdeq	sl, [r0], -r4
    a0d8:	0000adb4 			; <UNDEFINED> instruction: 0x0000adb4
    a0dc:	0000abe4 	andeq	sl, r0, r4, ror #23
    a0e0:	0000a71c 	andeq	sl, r0, ip, lsl r7

0000a0e4 <kmalloc_aligned>:
    a0e4:	e52de004 	push	{lr}		; (str lr, [sp, #-4]!)
    a0e8:	e24dd00c 	sub	sp, sp, #12, 0
    a0ec:	e3500000 	cmp	r0, #0, 0
    a0f0:	0a000014 	beq	a148 <kmalloc_aligned+0x64>
    a0f4:	e2613000 	rsb	r3, r1, #0, 0
    a0f8:	e1d13003 	bics	r3, r1, r3
    a0fc:	1a000019 	bne	a168 <kmalloc_aligned+0x84>
    a100:	e3510008 	cmp	r1, #8, 0
    a104:	33a01008 	movcc	r1, #8, 0
    a108:	e59f30c0 	ldr	r3, [pc, #192]	; a1d0 <kmalloc_aligned+0xec>
    a10c:	e5932000 	ldr	r2, [r3]
    a110:	e2613000 	rsb	r3, r1, #0, 0
    a114:	e1d1c003 	bics	ip, r1, r3
    a118:	1a00001b 	bne	a18c <kmalloc_aligned+0xa8>
    a11c:	e0822001 	add	r2, r2, r1
    a120:	e2422001 	sub	r2, r2, #1, 0
    a124:	e0033002 	and	r3, r3, r2
    a128:	e2411001 	sub	r1, r1, #1, 0
    a12c:	e1110003 	tst	r1, r3
    a130:	1a00001d 	bne	a1ac <kmalloc_aligned+0xc8>
    a134:	e59f2094 	ldr	r2, [pc, #148]	; a1d0 <kmalloc_aligned+0xec>
    a138:	e5823000 	str	r3, [r2]
    a13c:	ebffffcf 	bl	a080 <kmalloc>
    a140:	e28dd00c 	add	sp, sp, #12, 0
    a144:	e49df004 	pop	{pc}		; (ldr pc, [sp], #4)
    a148:	e59f3084 	ldr	r3, [pc, #132]	; a1d4 <kmalloc_aligned+0xf0>
    a14c:	e58d3000 	str	r3, [sp]
    a150:	e3a0305f 	mov	r3, #95, 0	; 0x5f
    a154:	e59f207c 	ldr	r2, [pc, #124]	; a1d8 <kmalloc_aligned+0xf4>
    a158:	e59f107c 	ldr	r1, [pc, #124]	; a1dc <kmalloc_aligned+0xf8>
    a15c:	e59f007c 	ldr	r0, [pc, #124]	; a1e0 <kmalloc_aligned+0xfc>
    a160:	ebfffb8a 	bl	8f90 <printk>
    a164:	ebfffe1a 	bl	99d4 <clean_reboot>
    a168:	eb0000ac 	bl	a420 <rpi_reset_putc>
    a16c:	e59f3070 	ldr	r3, [pc, #112]	; a1e4 <kmalloc_aligned+0x100>
    a170:	e58d3000 	str	r3, [sp]
    a174:	e3a03060 	mov	r3, #96, 0	; 0x60
    a178:	e59f2058 	ldr	r2, [pc, #88]	; a1d8 <kmalloc_aligned+0xf4>
    a17c:	e59f1058 	ldr	r1, [pc, #88]	; a1dc <kmalloc_aligned+0xf8>
    a180:	e59f0060 	ldr	r0, [pc, #96]	; a1e8 <kmalloc_aligned+0x104>
    a184:	ebfffb81 	bl	8f90 <printk>
    a188:	ebfffe11 	bl	99d4 <clean_reboot>
    a18c:	e59f3058 	ldr	r3, [pc, #88]	; a1ec <kmalloc_aligned+0x108>
    a190:	e58d3000 	str	r3, [sp]
    a194:	e3a03011 	mov	r3, #17, 0
    a198:	e59f2050 	ldr	r2, [pc, #80]	; a1f0 <kmalloc_aligned+0x10c>
    a19c:	e59f1038 	ldr	r1, [pc, #56]	; a1dc <kmalloc_aligned+0xf8>
    a1a0:	e59f0038 	ldr	r0, [pc, #56]	; a1e0 <kmalloc_aligned+0xfc>
    a1a4:	ebfffb79 	bl	8f90 <printk>
    a1a8:	ebfffe09 	bl	99d4 <clean_reboot>
    a1ac:	eb00009b 	bl	a420 <rpi_reset_putc>
    a1b0:	e59f303c 	ldr	r3, [pc, #60]	; a1f4 <kmalloc_aligned+0x110>
    a1b4:	e58d3000 	str	r3, [sp]
    a1b8:	e3a03068 	mov	r3, #104, 0	; 0x68
    a1bc:	e59f2014 	ldr	r2, [pc, #20]	; a1d8 <kmalloc_aligned+0xf4>
    a1c0:	e59f1014 	ldr	r1, [pc, #20]	; a1dc <kmalloc_aligned+0xf8>
    a1c4:	e59f002c 	ldr	r0, [pc, #44]	; a1f8 <kmalloc_aligned+0x114>
    a1c8:	ebfffb70 	bl	8f90 <printk>
    a1cc:	ebfffe00 	bl	99d4 <clean_reboot>
    a1d0:	0000ade4 	andeq	sl, r0, r4, ror #27
    a1d4:	0000abf4 	strdeq	sl, [r0], -r4
    a1d8:	0000adbc 			; <UNDEFINED> instruction: 0x0000adbc
    a1dc:	0000abe4 	andeq	sl, r0, r4, ror #23
    a1e0:	0000a71c 	andeq	sl, r0, ip, lsl r7
    a1e4:	0000ace4 	andeq	sl, r0, r4, ror #25
    a1e8:	0000acb0 			; <UNDEFINED> instruction: 0x0000acb0
    a1ec:	0000acf8 	strdeq	sl, [r0], -r8
    a1f0:	0000adcc 	andeq	sl, r0, ip, asr #27
    a1f4:	0000ad30 	andeq	sl, r0, r0, lsr sp
    a1f8:	0000ad04 	andeq	sl, r0, r4, lsl #26

0000a1fc <kfree>:
    a1fc:	e12fff1e 	bx	lr

0000a200 <kfree_all>:
    a200:	e59f3008 	ldr	r3, [pc, #8]	; a210 <kfree_all+0x10>
    a204:	e5932004 	ldr	r2, [r3, #4]
    a208:	e5832000 	str	r2, [r3]
    a20c:	e12fff1e 	bx	lr
    a210:	0000ade4 	andeq	sl, r0, r4, ror #27

0000a214 <kfree_pop>:
    a214:	e59f3048 	ldr	r3, [pc, #72]	; a264 <kfree_pop+0x50>
    a218:	e5933004 	ldr	r3, [r3, #4]
    a21c:	e1530000 	cmp	r3, r0
    a220:	8a000006 	bhi	a240 <kfree_pop+0x2c>
    a224:	e59f3038 	ldr	r3, [pc, #56]	; a264 <kfree_pop+0x50>
    a228:	e5933008 	ldr	r3, [r3, #8]
    a22c:	e1530000 	cmp	r3, r0
    a230:	3a000002 	bcc	a240 <kfree_pop+0x2c>
    a234:	e59f3028 	ldr	r3, [pc, #40]	; a264 <kfree_pop+0x50>
    a238:	e5830000 	str	r0, [r3]
    a23c:	e12fff1e 	bx	lr
    a240:	e52de004 	push	{lr}		; (str lr, [sp, #-4]!)
    a244:	e24dd00c 	sub	sp, sp, #12, 0
    a248:	e58d0000 	str	r0, [sp]
    a24c:	e3a03077 	mov	r3, #119, 0	; 0x77
    a250:	e59f2010 	ldr	r2, [pc, #16]	; a268 <kfree_pop+0x54>
    a254:	e59f1010 	ldr	r1, [pc, #16]	; a26c <kfree_pop+0x58>
    a258:	e59f0010 	ldr	r0, [pc, #16]	; a270 <kfree_pop+0x5c>
    a25c:	ebfffb4b 	bl	8f90 <printk>
    a260:	ebfffddb 	bl	99d4 <clean_reboot>
    a264:	0000ade4 	andeq	sl, r0, r4, ror #27
    a268:	0000add4 	ldrdeq	sl, [r0], -r4
    a26c:	0000abe4 	andeq	sl, r0, r4, ror #23
    a270:	0000ad4c 	andeq	sl, r0, ip, asr #26

0000a274 <gpio_set_function>:
    a274:	e350001f 	cmp	r0, #31, 0
    a278:	812fff1e 	bxhi	lr
    a27c:	e3d13007 	bics	r3, r1, #7, 0
    a280:	e92d4070 	push	{r4, r5, r6, lr}
    a284:	e1a05001 	mov	r5, r1
    a288:	18bd8070 	popne	{r4, r5, r6, pc}
    a28c:	e59f403c 	ldr	r4, [pc, #60]	; a2d0 <gpio_set_function+0x5c>
    a290:	e0843094 	umull	r3, r4, r4, r0
    a294:	e1a041a4 	lsr	r4, r4, #3
    a298:	e2843302 	add	r3, r4, #134217728	; 0x8000000
    a29c:	e2833702 	add	r3, r3, #524288	; 0x80000
    a2a0:	e1a06103 	lsl	r6, r3, #2
    a2a4:	e0844104 	add	r4, r4, r4, lsl #2
    a2a8:	e0404084 	sub	r4, r0, r4, lsl #1
    a2ac:	e1a00006 	mov	r0, r6
    a2b0:	ebfff75d 	bl	802c <GET32>
    a2b4:	e3a01007 	mov	r1, #7, 0
    a2b8:	e0844084 	add	r4, r4, r4, lsl #1
    a2bc:	e1c01411 	bic	r1, r0, r1, lsl r4
    a2c0:	e1811415 	orr	r1, r1, r5, lsl r4
    a2c4:	e1a00006 	mov	r0, r6
    a2c8:	e8bd4070 	pop	{r4, r5, r6, lr}
    a2cc:	eafff754 	b	8024 <PUT32>
    a2d0:	cccccccd 	stclgt	12, cr12, [ip], {205}	; 0xcd

0000a2d4 <gpio_set_output>:
    a2d4:	e350001f 	cmp	r0, #31, 0
    a2d8:	812fff1e 	bxhi	lr
    a2dc:	e92d4070 	push	{r4, r5, r6, lr}
    a2e0:	e59f4040 	ldr	r4, [pc, #64]	; a328 <gpio_set_output+0x54>
    a2e4:	e0843094 	umull	r3, r4, r4, r0
    a2e8:	e1a041a4 	lsr	r4, r4, #3
    a2ec:	e2843302 	add	r3, r4, #134217728	; 0x8000000
    a2f0:	e2833702 	add	r3, r3, #524288	; 0x80000
    a2f4:	e1a05103 	lsl	r5, r3, #2
    a2f8:	e0844104 	add	r4, r4, r4, lsl #2
    a2fc:	e0404084 	sub	r4, r0, r4, lsl #1
    a300:	e1a00005 	mov	r0, r5
    a304:	ebfff748 	bl	802c <GET32>
    a308:	e3a03007 	mov	r3, #7, 0
    a30c:	e3a01001 	mov	r1, #1, 0
    a310:	e0844084 	add	r4, r4, r4, lsl #1
    a314:	e1c03413 	bic	r3, r0, r3, lsl r4
    a318:	e1831411 	orr	r1, r3, r1, lsl r4
    a31c:	e1a00005 	mov	r0, r5
    a320:	e8bd4070 	pop	{r4, r5, r6, lr}
    a324:	eafff73e 	b	8024 <PUT32>
    a328:	cccccccd 	stclgt	12, cr12, [ip], {205}	; 0xcd

0000a32c <gpio_set_on>:
    a32c:	e1a03000 	mov	r3, r0
    a330:	e3a01001 	mov	r1, #1, 0
    a334:	e59f0004 	ldr	r0, [pc, #4]	; a340 <gpio_set_on+0x14>
    a338:	e1a01311 	lsl	r1, r1, r3
    a33c:	eafff738 	b	8024 <PUT32>
    a340:	2020001c 	eorcs	r0, r0, ip, lsl r0

0000a344 <gpio_set_off>:
    a344:	e1a03000 	mov	r3, r0
    a348:	e3a01001 	mov	r1, #1, 0
    a34c:	e59f0004 	ldr	r0, [pc, #4]	; a358 <gpio_set_off+0x14>
    a350:	e1a01311 	lsl	r1, r1, r3
    a354:	eafff732 	b	8024 <PUT32>
    a358:	20200028 	eorcs	r0, r0, r8, lsr #32

0000a35c <gpio_set_input>:
    a35c:	e350001f 	cmp	r0, #31, 0
    a360:	812fff1e 	bxhi	lr
    a364:	e92d4070 	push	{r4, r5, r6, lr}
    a368:	e59f5040 	ldr	r5, [pc, #64]	; a3b0 <gpio_set_input+0x54>
    a36c:	e1a04000 	mov	r4, r0
    a370:	e0853095 	umull	r3, r5, r5, r0
    a374:	e1a051a5 	lsr	r5, r5, #3
    a378:	e2850302 	add	r0, r5, #134217728	; 0x8000000
    a37c:	e2800702 	add	r0, r0, #524288	; 0x80000
    a380:	e1a06100 	lsl	r6, r0, #2
    a384:	e1a00006 	mov	r0, r6
    a388:	ebfff727 	bl	802c <GET32>
    a38c:	e3a01007 	mov	r1, #7, 0
    a390:	e1a03000 	mov	r3, r0
    a394:	e0855105 	add	r5, r5, r5, lsl #2
    a398:	e0444085 	sub	r4, r4, r5, lsl #1
    a39c:	e0844084 	add	r4, r4, r4, lsl #1
    a3a0:	e1a00006 	mov	r0, r6
    a3a4:	e1c31411 	bic	r1, r3, r1, lsl r4
    a3a8:	e8bd4070 	pop	{r4, r5, r6, lr}
    a3ac:	eafff71c 	b	8024 <PUT32>
    a3b0:	cccccccd 	stclgt	12, cr12, [ip], {205}	; 0xcd

0000a3b4 <gpio_write>:
    a3b4:	e3510000 	cmp	r1, #0, 0
    a3b8:	e3a03001 	mov	r3, #1, 0
    a3bc:	e1a01000 	mov	r1, r0
    a3c0:	0a000002 	beq	a3d0 <gpio_write+0x1c>
    a3c4:	e59f0010 	ldr	r0, [pc, #16]	; a3dc <gpio_write+0x28>
    a3c8:	e1a01113 	lsl	r1, r3, r1
    a3cc:	eafff714 	b	8024 <PUT32>
    a3d0:	e59f0008 	ldr	r0, [pc, #8]	; a3e0 <gpio_write+0x2c>
    a3d4:	e1a01113 	lsl	r1, r3, r1
    a3d8:	eafff711 	b	8024 <PUT32>
    a3dc:	2020001c 	eorcs	r0, r0, ip, lsl r0
    a3e0:	20200028 	eorcs	r0, r0, r8, lsr #32

0000a3e4 <gpio_read>:
    a3e4:	e92d4010 	push	{r4, lr}
    a3e8:	e1a04000 	mov	r4, r0
    a3ec:	e59f0014 	ldr	r0, [pc, #20]	; a408 <gpio_read+0x24>
    a3f0:	e08002a4 	add	r0, r0, r4, lsr #5
    a3f4:	ebfff70c 	bl	802c <GET32>
    a3f8:	e204401f 	and	r4, r4, #31, 0
    a3fc:	e1a00430 	lsr	r0, r0, r4
    a400:	e2000001 	and	r0, r0, #1, 0
    a404:	e8bd8010 	pop	{r4, pc}
    a408:	20200034 	eorcs	r0, r0, r4, lsr r0

0000a40c <internal_putchar>:
    a40c:	e92d4010 	push	{r4, lr}
    a410:	e1a04000 	mov	r4, r0
    a414:	ebfffe84 	bl	9e2c <uart_putc>
    a418:	e1a00004 	mov	r0, r4
    a41c:	e8bd8010 	pop	{r4, pc}

0000a420 <rpi_reset_putc>:
    a420:	e59f3008 	ldr	r3, [pc, #8]	; a430 <rpi_reset_putc+0x10>
    a424:	e59f2008 	ldr	r2, [pc, #8]	; a434 <rpi_reset_putc+0x14>
    a428:	e5832000 	str	r2, [r3]
    a42c:	e12fff1e 	bx	lr
    a430:	0000adf0 	strdeq	sl, [r0], -r0
    a434:	0000a40c 	andeq	sl, r0, ip, lsl #8

0000a438 <rpi_set_putc>:
    a438:	e59f3004 	ldr	r3, [pc, #4]	; a444 <rpi_set_putc+0xc>
    a43c:	e5830000 	str	r0, [r3]
    a440:	e12fff1e 	bx	lr
    a444:	0000adf0 	strdeq	sl, [r0], -r0

0000a448 <strcat>:
    a448:	e1a02000 	mov	r2, r0
    a44c:	e1a03002 	mov	r3, r2
    a450:	e4d2c001 	ldrb	ip, [r2], #1
    a454:	e35c0000 	cmp	ip, #0, 0
    a458:	1afffffb 	bne	a44c <strcat+0x4>
    a45c:	e2433001 	sub	r3, r3, #1, 0
    a460:	e4d12001 	ldrb	r2, [r1], #1
    a464:	e3520000 	cmp	r2, #0, 0
    a468:	e5e32001 	strb	r2, [r3, #1]!
    a46c:	1afffffb 	bne	a460 <strcat+0x18>
    a470:	e12fff1e 	bx	lr

0000a474 <strcmp>:
    a474:	e5d03000 	ldrb	r3, [r0]
    a478:	e3530000 	cmp	r3, #0, 0
    a47c:	05d12000 	ldrbeq	r2, [r1]
    a480:	1a000003 	bne	a494 <strcmp+0x20>
    a484:	ea000006 	b	a4a4 <strcmp+0x30>
    a488:	e5f03001 	ldrb	r3, [r0, #1]!
    a48c:	e3530000 	cmp	r3, #0, 0
    a490:	0a000005 	beq	a4ac <strcmp+0x38>
    a494:	e1a0c001 	mov	ip, r1
    a498:	e4d12001 	ldrb	r2, [r1], #1
    a49c:	e1520003 	cmp	r2, r3
    a4a0:	0afffff8 	beq	a488 <strcmp+0x14>
    a4a4:	e0430002 	sub	r0, r3, r2
    a4a8:	e12fff1e 	bx	lr
    a4ac:	e5dc2001 	ldrb	r2, [ip, #1]
    a4b0:	e0430002 	sub	r0, r3, r2
    a4b4:	e12fff1e 	bx	lr

0000a4b8 <strcpy>:
    a4b8:	e2402001 	sub	r2, r0, #1, 0
    a4bc:	e4d13001 	ldrb	r3, [r1], #1
    a4c0:	e3530000 	cmp	r3, #0, 0
    a4c4:	e5e23001 	strb	r3, [r2, #1]!
    a4c8:	1afffffb 	bne	a4bc <strcpy+0x4>
    a4cc:	e12fff1e 	bx	lr

0000a4d0 <strncmp>:
    a4d0:	e0802002 	add	r2, r0, r2
    a4d4:	ea000003 	b	a4e8 <strncmp+0x18>
    a4d8:	e4d03001 	ldrb	r3, [r0], #1
    a4dc:	e4d1c001 	ldrb	ip, [r1], #1
    a4e0:	e153000c 	cmp	r3, ip
    a4e4:	1a000003 	bne	a4f8 <strncmp+0x28>
    a4e8:	e1500002 	cmp	r0, r2
    a4ec:	1afffff9 	bne	a4d8 <strncmp+0x8>
    a4f0:	e3a00000 	mov	r0, #0, 0
    a4f4:	e12fff1e 	bx	lr
    a4f8:	e043000c 	sub	r0, r3, ip
    a4fc:	e12fff1e 	bx	lr

0000a500 <reboot_callout>:
    a500:	e12fff1e 	bx	lr

0000a504 <dev_barrier>:
    a504:	ea000002 	b	a514 <dsb>

0000a508 <dmb>:
    a508:	e3a00000 	mov	r0, #0, 0
    a50c:	ee070fba 	mcr	15, 0, r0, cr7, cr10, {5}
    a510:	e12fff1e 	bx	lr

0000a514 <dsb>:
    a514:	ee070f9a 	mcr	15, 0, r0, cr7, cr10, {4}
    a518:	e12fff1e 	bx	lr

0000a51c <__code_end__>:
    a51c:	00000000 	andeq	r0, r0, r0

Disassembly of section .rodata:

0000a520 <__FUNCTION__.4031-0x100>:
    a520:	74736574 	ldrbtvc	r6, [r3], #-1396	; 0xfffffa8c
    a524:	2e322d73 	mrccs	13, 1, r2, cr2, cr3, {3}
    a528:	61702f30 	cmnvs	r0, r0, lsr pc
    a52c:	2d327472 	cfldrscs	mvf7, [r2, #-456]!	; 0xfffffe38
    a530:	74736574 	ldrbtvc	r6, [r3], #-1396	; 0xfffffa8c
    a534:	6f6e2d36 	svcvs	0x006e2d36
    a538:	61656c2d 	cmnvs	r5, sp, lsr #24
    a53c:	00632e6b 	rsbeq	r2, r3, fp, ror #28
    a540:	43415254 	movtmi	r5, #4692	; 0x1254
    a544:	6c613a45 			; <UNDEFINED> instruction: 0x6c613a45
    a548:	20636f6c 	rsbcs	r6, r3, ip, ror #30
    a54c:	75746572 	ldrbvc	r6, [r4, #-1394]!	; 0xfffffa8e
    a550:	64656e72 	strbtvs	r6, [r5], #-3698	; 0xfffff18e
    a554:	6f6c6220 	svcvs	0x006c6220
    a558:	69206b63 	stmdbvs	r0!, {r0, r1, r5, r6, r8, r9, fp, sp, lr}
    a55c:	75253d64 	strvc	r3, [r5, #-3428]!	; 0xfffff29c
    a560:	70255b20 	eorvc	r5, r5, r0, lsr #22
    a564:	00000a5d 	andeq	r0, r0, sp, asr sl
    a568:	74204347 	strtvc	r4, [r0], #-839	; 0xfffffcb9
    a56c:	36747365 	ldrbtcc	r7, [r4], -r5, ror #6
    a570:	0000000a 	andeq	r0, r0, sl
    a574:	43415254 	movtmi	r5, #4692	; 0x1254
    a578:	65743a45 	ldrbvs	r3, [r4, #-2629]!	; 0xfffff5bb
    a57c:	20317473 	eorscs	r7, r1, r3, ror r4
    a580:	75746572 	ldrbvc	r6, [r4, #-1394]!	; 0xfffffa8e
    a584:	64656e72 	strbtvs	r6, [r5], #-3698	; 0xfffff18e
    a588:	70255b20 	eorvc	r5, r5, r0, lsr #22
    a58c:	00000a5d 	andeq	r0, r0, sp, asr sl
    a590:	494e4150 	stmdbmi	lr, {r4, r6, r8, lr}^
    a594:	73253a43 			; <UNDEFINED> instruction: 0x73253a43
    a598:	3a73253a 	bcc	1cd3a88 <__bss_end__+0x1cc8860>
    a59c:	733a6425 	teqvc	sl, #620756992	; 0x25000000
    a5a0:	6c756f68 	ldclvs	15, cr6, [r5], #-416	; 0xfffffe60
    a5a4:	61682064 	cmnvs	r8, r4, rrx
    a5a8:	6e206576 	mcrvs	5, 1, r6, cr0, cr6, {3}
    a5ac:	6564206f 	strbvs	r2, [r4, #-111]!	; 0xffffff91
    a5b0:	696e6966 	stmdbvs	lr!, {r1, r2, r5, r6, r8, fp, sp, lr}^
    a5b4:	6c206574 	cfstr32vs	mvfx6, [r0], #-464	; 0xfffffe30
    a5b8:	736b6165 	cmnvc	fp, #1073741849	; 0x40000019
    a5bc:	000a0a21 	andeq	r0, sl, r1, lsr #20
    a5c0:	43415254 	movtmi	r5, #4692	; 0x1254
    a5c4:	55533a45 	ldrbpl	r3, [r3, #-2629]	; 0xfffff5bb
    a5c8:	53454343 	movtpl	r4, #21315	; 0x5343
    a5cc:	64203a53 	strtvs	r3, [r0], #-2643	; 0xfffff5ad
    a5d0:	63657465 	cmnvs	r5, #1694498816	; 0x65000000
    a5d4:	20646574 	rsbcs	r6, r4, r4, ror r5
    a5d8:	616d2061 	cmnvs	sp, r1, rrx
    a5dc:	20656279 	rsbcs	r6, r5, r9, ror r2
    a5e0:	6b61656c 	blvs	1863b98 <__bss_end__+0x1858970>
    a5e4:	00000a21 	andeq	r0, r0, r1, lsr #20
    a5e8:	494e4150 	stmdbmi	lr, {r4, r6, r8, lr}^
    a5ec:	73253a43 			; <UNDEFINED> instruction: 0x73253a43
    a5f0:	3a73253a 	bcc	1cd3ae0 <__bss_end__+0x1cc88b8>
    a5f4:	733a6425 	teqvc	sl, #620756992	; 0x25000000
    a5f8:	6c756f68 	ldclvs	15, cr6, [r5], #-416	; 0xfffffe60
    a5fc:	61682064 	cmnvs	r8, r4, rrx
    a600:	66206576 			; <UNDEFINED> instruction: 0x66206576
    a604:	646e756f 	strbtvs	r7, [lr], #-1391	; 0xfffffa91
    a608:	6d206120 	stfvss	f6, [r0, #-128]!	; 0xffffff80
    a60c:	65627961 	strbvs	r7, [r2, #-2401]!	; 0xfffff69f
    a610:	61656c20 	cmnvs	r5, r0, lsr #24
    a614:	666f206b 	strbtvs	r2, [pc], -fp, rrx
    a618:	7025203a 	eorvc	r2, r5, sl, lsr r0
    a61c:	000a0a21 	andeq	r0, sl, r1, lsr #20

0000a620 <__FUNCTION__.4031>:
    a620:	74736574 	ldrbtvc	r6, [r3], #-1396	; 0xfffffa8c
    a624:	00000031 	andeq	r0, r0, r1, lsr r0

0000a628 <__FUNCTION__.4036>:
    a628:	6d746f6e 	ldclvs	15, cr6, [r4, #-440]!	; 0xfffffe48
    a62c:	006e6961 	rsbeq	r6, lr, r1, ror #18
    a630:	6e756f66 	cdpvs	15, 7, cr6, cr5, cr6, {3}
    a634:	70252064 	eorvc	r2, r5, r4, rrx
    a638:	206e6920 	rsbcs	r6, lr, r0, lsr #18
    a63c:	000a7025 	andeq	r7, sl, r5, lsr #32
    a640:	253a7325 	ldrcs	r7, [sl, #-805]!	; 0xfffffcdb
    a644:	64253a73 	strtvs	r3, [r5], #-2675	; 0xfffff58d
    a648:	0000003a 	andeq	r0, r0, sl, lsr r0
    a64c:	65657266 	strbvs	r7, [r5, #-614]!	; 0xfffffd9a
    a650:	20676e69 	rsbcs	r6, r7, r9, ror #28
    a654:	0a702509 	beq	1c13a80 <__bss_end__+0x1c08858>
    a658:	00000000 	andeq	r0, r0, r0
    a65c:	5f434f4c 	svcpl	0x00434f4c
    a660:	494e4150 	stmdbmi	lr, {r4, r6, r8, lr}^
    a664:	25203a43 	strcs	r3, [r0, #-2627]!	; 0xfffff5bd
    a668:	73253a73 			; <UNDEFINED> instruction: 0x73253a73
    a66c:	3a64253a 	bcc	1913b5c <__bss_end__+0x1908934>
    a670:	00000000 	andeq	r0, r0, r0
    a674:	65657266 	strbvs	r7, [r5, #-614]!	; 0xfffffd9a
    a678:	20676e69 	rsbcs	r6, r7, r9, ror #28
    a67c:	6c616e75 	stclvs	14, cr6, [r1], #-468	; 0xfffffe2c
    a680:	61636f6c 	cmnvs	r3, ip, ror #30
    a684:	20646574 	rsbcs	r6, r4, r4, ror r5
    a688:	6f6d656d 	svcvs	0x006d656d
    a68c:	203a7972 	eorscs	r7, sl, r2, ror r9
    a690:	74617473 	strbtvc	r7, [r1], #-1139	; 0xfffffb8d
    a694:	64253d65 	strtvs	r3, [r5], #-3429	; 0xfffff29b
    a698:	0000000a 	andeq	r0, r0, sl
    a69c:	7a646572 	bvc	1923c6c <__bss_end__+0x1918a44>
    a6a0:	20656e6f 	rsbcs	r6, r5, pc, ror #28
    a6a4:	77203123 	strvc	r3, [r0, -r3, lsr #2]!
    a6a8:	63207361 			; <UNDEFINED> instruction: 0x63207361
    a6ac:	7572726f 	ldrbvc	r7, [r2, #-623]!	; 0xfffffd91
    a6b0:	64657470 	strbtvs	r7, [r5], #-1136	; 0xfffffb90
    a6b4:	00000a21 	andeq	r0, r0, r1, lsr #20
    a6b8:	7a646572 	bvc	1923c88 <__bss_end__+0x1918a60>
    a6bc:	20656e6f 	rsbcs	r6, r5, pc, ror #28
    a6c0:	77203223 	strvc	r3, [r0, -r3, lsr #4]!
    a6c4:	63207361 			; <UNDEFINED> instruction: 0x63207361
    a6c8:	7572726f 	ldrbvc	r7, [r2, #-623]!	; 0xfffffd91
    a6cc:	64657470 	strbtvs	r7, [r5], #-1136	; 0xfffffb90
    a6d0:	00000a21 	andeq	r0, r0, r1, lsr #20
    a6d4:	6f6c6c61 	svcvs	0x006c6c61
    a6d8:	69746163 	ldmdbvs	r4!, {r0, r1, r5, r6, r8, sp, lr}^
    a6dc:	2520676e 	strcs	r6, [r0, #-1902]!	; 0xfffff892
    a6e0:	25282070 	strcs	r2, [r8, #-112]!	; 0xffffff90
    a6e4:	79622064 	stmdbvc	r2!, {r2, r5, r6, sp}^
    a6e8:	29736574 	ldmdbcs	r3!, {r2, r4, r5, r6, r8, sl, sp, lr}^
    a6ec:	0000000a 	andeq	r0, r0, sl
    a6f0:	75716552 	ldrbvc	r6, [r1, #-1362]!	; 0xfffffaae
    a6f4:	74737265 	ldrbtvc	r7, [r3], #-613	; 0xfffffd9b
    a6f8:	20676e69 	rsbcs	r6, r7, r9, ror #28
    a6fc:	65726f6d 	ldrbvs	r6, [r2, #-3949]!	; 0xfffff093
    a700:	6d656d20 	stclvs	13, cr6, [r5, #-128]!	; 0xffffff80
    a704:	2079726f 	rsbscs	r7, r9, pc, ror #4
    a708:	29642528 	stmdbcs	r4!, {r3, r5, r8, sl, sp}^
    a70c:	0a2e2e2e 	beq	b95fcc <__bss_end__+0xb8ada4>
    a710:	00000000 	andeq	r0, r0, r0
    a714:	672d6b63 	strvs	r6, [sp, -r3, ror #22]!
    a718:	00632e63 	rsbeq	r2, r3, r3, ror #28
    a71c:	494e4150 	stmdbmi	lr, {r4, r6, r8, lr}^
    a720:	73253a43 			; <UNDEFINED> instruction: 0x73253a43
    a724:	3a73253a 	bcc	1cd3c14 <__bss_end__+0x1cc89ec>
    a728:	253a6425 	ldrcs	r6, [sl, #-1061]!	; 0xfffffbdb
    a72c:	00000a73 	andeq	r0, r0, r3, ror sl
    a730:	203c2070 	eorscs	r2, ip, r0, ror r0
    a734:	00000065 	andeq	r0, r0, r5, rrx
    a738:	67696c61 	strbvs	r6, [r9, -r1, ror #24]!
    a73c:	2864656e 	stmdacs	r4!, {r1, r2, r3, r5, r6, r8, sl, sp, lr}^
    a740:	34202c70 	strtcc	r2, [r0], #-3184	; 0xfffff390
    a744:	00000029 	andeq	r0, r0, r9, lsr #32
    a748:	67696c61 	strbvs	r6, [r9, -r1, ror #24]!
    a74c:	2864656e 	stmdacs	r4!, {r1, r2, r3, r5, r6, r8, sl, sp, lr}^
    a750:	34202c65 	strtcc	r2, [r0], #-3173	; 0xfffff39b
    a754:	00000029 	andeq	r0, r0, r9, lsr #32
    a758:	63656863 	cmnvs	r5, #6488064	; 0x630000
    a75c:	676e696b 	strbvs	r6, [lr, -fp, ror #18]!
    a760:	61747320 	cmnvs	r4, r0, lsr #6
    a764:	203a6b63 	eorscs	r6, sl, r3, ror #22
    a768:	74207025 	strtvc	r7, [r0], #-37	; 0xffffffdb
    a76c:	7025206f 	eorvc	r2, r5, pc, rrx
    a770:	0000000a 	andeq	r0, r0, sl
    a774:	2d2d2d2d 	stccs	13, cr2, [sp, #-180]!	; 0xffffff4c
    a778:	2d2d2d2d 	stccs	13, cr2, [sp, #-180]!	; 0xffffff4c
    a77c:	2d2d2d2d 	stccs	13, cr2, [sp, #-180]!	; 0xffffff4c
    a780:	2d2d2d2d 	stccs	13, cr2, [sp, #-180]!	; 0xffffff4c
    a784:	2d2d2d2d 	stccs	13, cr2, [sp, #-180]!	; 0xffffff4c
    a788:	2d2d2d2d 	stccs	13, cr2, [sp, #-180]!	; 0xffffff4c
    a78c:	2d2d2d2d 	stccs	13, cr2, [sp, #-180]!	; 0xffffff4c
    a790:	2d2d2d2d 	stccs	13, cr2, [sp, #-180]!	; 0xffffff4c
    a794:	2d2d2d2d 	stccs	13, cr2, [sp, #-180]!	; 0xffffff4c
    a798:	2d2d2d2d 	stccs	13, cr2, [sp, #-180]!	; 0xffffff4c
    a79c:	2d2d2d2d 	stccs	13, cr2, [sp, #-180]!	; 0xffffff4c
    a7a0:	2d2d2d2d 	stccs	13, cr2, [sp, #-180]!	; 0xffffff4c
    a7a4:	2d2d2d2d 	stccs	13, cr2, [sp, #-180]!	; 0xffffff4c
    a7a8:	2d2d2d2d 	stccs	13, cr2, [sp, #-180]!	; 0xffffff4c
    a7ac:	00000a2d 	andeq	r0, r0, sp, lsr #20
    a7b0:	63656863 	cmnvs	r5, #6488064	; 0x630000
    a7b4:	676e696b 	strbvs	r6, [lr, -fp, ror #18]!
    a7b8:	726f6620 	rsbvc	r6, pc, #32, 12	; 0x2000000
    a7bc:	61656c20 	cmnvs	r5, r0, lsr #24
    a7c0:	0a3a736b 	beq	ea7574 <__bss_end__+0xe9c34c>
    a7c4:	00000000 	andeq	r0, r0, r0
    a7c8:	4c3a4347 	ldcmi	3, cr4, [sl], #-284	; 0xfffffee4
    a7cc:	2054534f 	subscs	r5, r4, pc, asr #6
    a7d0:	2d206425 	cfstrscs	mvf6, [r0, #-148]!	; 0xffffff6c
    a7d4:	7025203e 	eorvc	r2, r5, lr, lsr r0
    a7d8:	0000000a 	andeq	r0, r0, sl
    a7dc:	4d3a4347 	ldcmi	3, cr4, [sl, #-284]!	; 0xfffffee4
    a7e0:	45425941 	strbmi	r5, [r2, #-2369]	; 0xfffff6bf
    a7e4:	534f4c20 	movtpl	r4, #64544	; 0xfc20
    a7e8:	64252054 	strtvs	r2, [r5], #-84	; 0xffffffac
    a7ec:	203e2d20 	eorscs	r2, lr, r0, lsr #26
    a7f0:	000a7025 	andeq	r7, sl, r5, lsr #32
    a7f4:	43415254 	movtmi	r5, #4692	; 0x1254
    a7f8:	47093a45 	strmi	r3, [r9, -r5, asr #20]
    a7fc:	68433a43 	stmdavs	r3, {r0, r1, r6, r9, fp, ip, sp}^
    a800:	656b6365 	strbvs	r6, [fp, #-869]!	; 0xfffffc9b
    a804:	64252064 	strtvs	r2, [r5], #-100	; 0xffffff9c
    a808:	6f6c6220 	svcvs	0x006c6220
    a80c:	2e736b63 	vsubcs.f64	d22, d3, d19
    a810:	0000000a 	andeq	r0, r0, sl
    a814:	43415254 	movtmi	r5, #4692	; 0x1254
    a818:	09093a45 	stmdbeq	r9, {r0, r2, r6, r9, fp, ip, sp}
    a81c:	533a4347 	teqpl	sl, #469762049	; 0x1c000001
    a820:	45434355 	strbmi	r4, [r3, #-853]	; 0xfffffcab
    a824:	203a5353 	eorscs	r5, sl, r3, asr r3
    a828:	6c206f4e 	stcvs	15, cr6, [r0], #-312	; 0xfffffec8
    a82c:	736b6165 	cmnvc	fp, #1073741849	; 0x40000019
    a830:	756f6620 	strbvc	r6, [pc, #-1568]!	; a218 <kfree_pop+0x4>
    a834:	0a21646e 	beq	8639f4 <__bss_end__+0x8587cc>
    a838:	00000000 	andeq	r0, r0, r0
    a83c:	43415254 	movtmi	r5, #4692	; 0x1254
    a840:	09093a45 	stmdbeq	r9, {r0, r2, r6, r9, fp, ip, sp}
    a844:	453a4347 	ldrmi	r4, [sl, #-839]!	; 0xfffffcb9
    a848:	524f5252 	subpl	r5, pc, #536870917	; 0x20000005
    a84c:	25203a53 	strcs	r3, [r0, #-2643]!	; 0xfffff5ad
    a850:	72652064 	rsbvc	r2, r5, #100, 0	; 0x64
    a854:	73726f72 	cmnvc	r2, #456	; 0x1c8
    a858:	6425202c 	strtvs	r2, [r5], #-44	; 0xffffffd4
    a85c:	79616d20 	stmdbvc	r1!, {r5, r8, sl, fp, sp, lr}^
    a860:	655f6562 	ldrbvs	r6, [pc, #-1378]	; a306 <gpio_set_output+0x32>
    a864:	726f7272 	rsbvc	r7, pc, #536870919	; 0x20000007
    a868:	00000a73 	andeq	r0, r0, r3, ror sl
    a86c:	2d2d2d2d 	stccs	13, cr2, [sp, #-180]!	; 0xffffff4c
    a870:	2d2d2d2d 	stccs	13, cr2, [sp, #-180]!	; 0xffffff4c
    a874:	2d2d2d2d 	stccs	13, cr2, [sp, #-180]!	; 0xffffff4c
    a878:	2d2d2d2d 	stccs	13, cr2, [sp, #-180]!	; 0xffffff4c
    a87c:	2d2d2d2d 	stccs	13, cr2, [sp, #-180]!	; 0xffffff4c
    a880:	2d2d2d2d 	stccs	13, cr2, [sp, #-180]!	; 0xffffff4c
    a884:	2d2d2d2d 	stccs	13, cr2, [sp, #-180]!	; 0xffffff4c
    a888:	2d2d2d2d 	stccs	13, cr2, [sp, #-180]!	; 0xffffff4c
    a88c:	2d2d2d2d 	stccs	13, cr2, [sp, #-180]!	; 0xffffff4c
    a890:	2d2d2d2d 	stccs	13, cr2, [sp, #-180]!	; 0xffffff4c
    a894:	2d2d2d2d 	stccs	13, cr2, [sp, #-180]!	; 0xffffff4c
    a898:	2d2d2d2d 	stccs	13, cr2, [sp, #-180]!	; 0xffffff4c
    a89c:	2d2d2d2d 	stccs	13, cr2, [sp, #-180]!	; 0xffffff4c
    a8a0:	2d2d2d2d 	stccs	13, cr2, [sp, #-180]!	; 0xffffff4c
    a8a4:	000a2d2d 	andeq	r2, sl, sp, lsr #26
    a8a8:	706d6f63 	rsbvc	r6, sp, r3, ror #30
    a8ac:	69746361 	ldmdbvs	r4!, {r0, r5, r6, r8, r9, sp, lr}^
    a8b0:	0a3a676e 	beq	ea4670 <__bss_end__+0xe99448>
    a8b4:	00000000 	andeq	r0, r0, r0
    a8b8:	463a4347 	ldrtmi	r4, [sl], -r7, asr #6
    a8bc:	44454552 	strbmi	r4, [r5], #-1362	; 0xfffffaae
    a8c0:	0a702520 	beq	1c13d48 <__bss_end__+0x1c08b20>
    a8c4:	00000000 	andeq	r0, r0, r0
    a8c8:	43415254 	movtmi	r5, #4692	; 0x1254
    a8cc:	47093a45 	strmi	r3, [r9, -r5, asr #20]
    a8d0:	68433a43 	stmdavs	r3, {r0, r1, r6, r9, fp, ip, sp}^
    a8d4:	656b6365 	strbvs	r6, [fp, #-869]!	; 0xfffffc9b
    a8d8:	64252064 	strtvs	r2, [r5], #-100	; 0xffffff9c
    a8dc:	6f6c6220 	svcvs	0x006c6220
    a8e0:	2c736b63 			; <UNDEFINED> instruction: 0x2c736b63
    a8e4:	65726620 	ldrbvs	r6, [r2, #-1568]!	; 0xfffff9e0
    a8e8:	25206465 	strcs	r6, [r0, #-1125]!	; 0xfffffb9b
    a8ec:	25202c64 	strcs	r2, [r0, #-3172]!	; 0xfffff39c
    a8f0:	79622064 	stmdbvc	r2!, {r2, r5, r6, sp}^
    a8f4:	0a736574 	beq	1ce3ecc <__bss_end__+0x1cd8ca4>
    a8f8:	00000000 	andeq	r0, r0, r0
    a8fc:	72636e69 	rsbvc	r6, r3, #1680	; 0x690
    a900:	6e656d65 	cdpvs	13, 6, cr6, cr5, cr5, {3}
    a904:	203e2074 	eorscs	r2, lr, r4, ror r0
    a908:	00000030 	andeq	r0, r0, r0, lsr r0
    a90c:	494e4150 	stmdbmi	lr, {r4, r6, r8, lr}^
    a910:	73253a43 			; <UNDEFINED> instruction: 0x73253a43
    a914:	3a73253a 	bcc	1cd3e04 <__bss_end__+0x1cc8bdc>
    a918:	6e3a6425 	cdpvs	4, 3, cr6, cr10, cr5, {1}
    a91c:	6820746f 	stmdavs	r0!, {r0, r1, r2, r3, r5, r6, sl, ip, sp, lr}
    a920:	6c646e61 	stclvs	14, cr6, [r4], #-388	; 0xfffffe7c
    a924:	0a676e69 	beq	19e62d0 <__bss_end__+0x19db0a8>
    a928:	0000000a 	andeq	r0, r0, sl
    a92c:	494e4150 	stmdbmi	lr, {r4, r6, r8, lr}^
    a930:	73253a43 			; <UNDEFINED> instruction: 0x73253a43
    a934:	3a73253a 	bcc	1cd3e24 <__bss_end__+0x1cc8bfc>
    a938:	473a6425 	ldrmi	r6, [sl, -r5, lsr #8]!
    a93c:	73203a43 			; <UNDEFINED> instruction: 0x73203a43
    a940:	6c756f68 	ldclvs	15, cr6, [r5], #-416	; 0xfffffe60
    a944:	61682064 	cmnvs	r8, r4, rrx
    a948:	6e206576 	mcrvs	5, 1, r6, cr0, cr6, {3}
    a94c:	656c206f 	strbvs	r2, [ip, #-111]!	; 0xffffff91
    a950:	21736b61 	cmncs	r3, r1, ror #22
    a954:	00000a0a 	andeq	r0, r0, sl, lsl #20
    a958:	43415254 	movtmi	r5, #4692	; 0x1254
    a95c:	43473a45 	movtmi	r3, #31301	; 0x7a45
    a960:	5553203a 	ldrbpl	r2, [r3, #-58]	; 0xffffffc6
    a964:	53454343 	movtpl	r4, #21315	; 0x5343
    a968:	6e203a53 			; <UNDEFINED> instruction: 0x6e203a53
    a96c:	656c206f 	strbvs	r2, [ip, #-111]!	; 0xffffff91
    a970:	21736b61 	cmncs	r3, r1, ror #22
    a974:	0000000a 	andeq	r0, r0, sl
    a978:	494e4150 	stmdbmi	lr, {r4, r6, r8, lr}^
    a97c:	73253a43 			; <UNDEFINED> instruction: 0x73253a43
    a980:	3a73253a 	bcc	1cd3e70 <__bss_end__+0x1cc8c48>
    a984:	473a6425 	ldrmi	r6, [sl, -r5, lsr #8]!
    a988:	73203a43 			; <UNDEFINED> instruction: 0x73203a43
    a98c:	6c756f68 	ldclvs	15, cr6, [r5], #-416	; 0xfffffe60
    a990:	61682064 	cmnvs	r8, r4, rrx
    a994:	6c206576 	cfstr32vs	mvfx6, [r0], #-472	; 0xfffffe28
    a998:	736b6165 	cmnvc	fp, #1073741849	; 0x40000019
    a99c:	000a0a21 	andeq	r0, sl, r1, lsr #20
    a9a0:	43415254 	movtmi	r5, #4692	; 0x1254
    a9a4:	43473a45 	movtmi	r3, #31301	; 0x7a45
    a9a8:	5553203a 	ldrbpl	r2, [r3, #-58]	; 0xffffffc6
    a9ac:	53454343 	movtpl	r4, #21315	; 0x5343
    a9b0:	66203a53 			; <UNDEFINED> instruction: 0x66203a53
    a9b4:	646e756f 	strbtvs	r7, [lr], #-1391	; 0xfffffa91
    a9b8:	20642520 	rsbcs	r2, r4, r0, lsr #10
    a9bc:	6b61656c 	blvs	1863f74 <__bss_end__+0x1858d4c>
    a9c0:	000a2173 	andeq	r2, sl, r3, ror r1
    a9c4:	494e4150 	stmdbmi	lr, {r4, r6, r8, lr}^
    a9c8:	73253a43 			; <UNDEFINED> instruction: 0x73253a43
    a9cc:	3a73253a 	bcc	1cd3ebc <__bss_end__+0x1cc8c94>
    a9d0:	643a6425 	ldrtvs	r6, [sl], #-1061	; 0xfffffbdb
    a9d4:	6e206469 	cdpvs	4, 2, cr6, cr0, cr9, {3}
    a9d8:	6920746f 	stmdbvs	r0!, {r0, r1, r2, r3, r5, r6, sl, ip, sp, lr}
    a9dc:	656c706d 	strbvs	r7, [ip, #-109]!	; 0xffffff93
    a9e0:	746e656d 	strbtvc	r6, [lr], #-1389	; 0xfffffa93
    a9e4:	6d756420 	cfldrdvs	mvd6, [r5, #-128]!	; 0xffffff80
    a9e8:	65725f70 	ldrbvs	r5, [r2, #-3952]!	; 0xfffff090
    a9ec:	0a217367 	beq	867790 <__bss_end__+0x85c568>
    a9f0:	0000000a 	andeq	r0, r0, sl

0000a9f4 <__FUNCTION__.4052>:
    a9f4:	6b72616d 	blvs	1ca2fb0 <__bss_end__+0x1c97d88>
    a9f8:	00000000 	andeq	r0, r0, r0

0000a9fc <__FUNCTION__.4109>:
    a9fc:	65657773 	strbvs	r7, [r5, #-1907]!	; 0xfffff88d
    aa00:	72665f70 	rsbvc	r5, r6, #112, 30	; 0x1c0
    aa04:	00006565 	andeq	r6, r0, r5, ror #10

0000aa08 <__FUNCTION__.4039>:
    aa08:	6b726273 	blvs	1ca33dc <__bss_end__+0x1c981b4>
    aa0c:	00000000 	andeq	r0, r0, r0

0000aa10 <__FUNCTION__.4096>:
    aa10:	63656863 	cmnvs	r5, #6488064	; 0x630000
    aa14:	6f6e5f6b 	svcvs	0x006e5f6b
    aa18:	61656c5f 	cmnvs	r5, pc, asr ip
    aa1c:	0000006b 	andeq	r0, r0, fp, rrx

0000aa20 <__FUNCTION__.4101>:
    aa20:	63656863 	cmnvs	r5, #6488064	; 0x630000
    aa24:	68735f6b 	ldmdavs	r3!, {r0, r1, r3, r5, r6, r8, r9, sl, fp, ip, lr}^
    aa28:	646c756f 	strbtvs	r7, [ip], #-1391	; 0xfffffa91
    aa2c:	61656c5f 	cmnvs	r5, pc, asr ip
    aa30:	0000006b 	andeq	r0, r0, fp, rrx

0000aa34 <__FUNCTION__.4120>:
    aa34:	6c706d69 	ldclvs	13, cr6, [r0], #-420	; 0xfffffe5c
    aa38:	6e656d65 	cdpvs	13, 6, cr6, cr5, cr5, {3}
    aa3c:	68745f74 	ldmdavs	r4!, {r2, r4, r5, r6, r8, r9, sl, fp, ip, lr}^
    aa40:	00007369 	andeq	r7, r0, r9, ror #6
    aa44:	003f3f3f 	eorseq	r3, pc, pc, lsr pc	; <UNPREDICTABLE>
    aa48:	20642523 	rsbcs	r2, r4, r3, lsr #10
    aa4c:	28207825 	stmdacs	r0!, {r0, r2, r5, fp, ip, sp, lr}
    aa50:	0a297325 	beq	a676ec <__bss_end__+0xa5c4c4>
    aa54:	00000000 	andeq	r0, r0, r0
    aa58:	696c2f2e 	stmdbvs	ip!, {r1, r2, r3, r5, r8, r9, sl, fp, sp}^
    aa5c:	762f6362 	strtvc	r6, [pc], -r2, ror #6
    aa60:	72702d61 	rsbsvc	r2, r0, #6208	; 0x1840
    aa64:	6b746e69 	blvs	1d26410 <__bss_end__+0x1d1b1e8>
    aa68:	0000632e 	andeq	r6, r0, lr, lsr #6
    aa6c:	33323130 	teqcc	r2, #12
    aa70:	37363534 			; <UNDEFINED> instruction: 0x37363534
    aa74:	62613938 	rsbvs	r3, r1, #56, 18	; 0xe0000
    aa78:	66656463 	strbtvs	r6, [r5], -r3, ror #8
    aa7c:	00000000 	andeq	r0, r0, r0
    aa80:	00003130 	andeq	r3, r0, r0, lsr r1
    aa84:	33323130 	teqcc	r2, #12
    aa88:	37363534 			; <UNDEFINED> instruction: 0x37363534
    aa8c:	00003938 	andeq	r3, r0, r8, lsr r9
    aa90:	63747570 	cmnvs	r4, #112, 10	; 0x1c000000
    aa94:	0070665f 	rsbseq	r6, r0, pc, asr r6
    aa98:	74646977 	strbtvc	r6, [r4], #-2423	; 0xfffff689
    aa9c:	203c2068 	eorscs	r2, ip, r8, rrx
    aaa0:	00003233 	andeq	r3, r0, r3, lsr r2
    aaa4:	00786c6c 	rsbseq	r6, r8, ip, ror #24
    aaa8:	253d3078 	ldrcs	r3, [sp, #-120]!	; 0xffffff88
    aaac:	00000a78 	andeq	r0, r0, r8, ror sl
    aab0:	253d3178 	ldrcs	r3, [sp, #-376]!	; 0xfffffe88
    aab4:	00000a78 	andeq	r0, r0, r8, ror sl
    aab8:	00646c6c 	rsbeq	r6, r4, ip, ror #24
    aabc:	6e727473 	mrcvs	4, 3, r7, cr2, cr3, {3}
    aac0:	28706d63 	ldmdacs	r0!, {r0, r1, r5, r6, r8, sl, fp, sp, lr}^
    aac4:	202c7974 	eorcs	r7, ip, r4, ror r9
    aac8:	786c6c22 	stmdavc	ip!, {r1, r5, sl, fp, sp, lr}^
    aacc:	33202c22 			; <UNDEFINED> instruction: 0x33202c22
    aad0:	3d3d2029 	ldccc	0, cr2, [sp, #-164]!	; 0xffffff5c
    aad4:	7c203020 	stcvc	0, cr3, [r0], #-128	; 0xffffff80
    aad8:	7473207c 	ldrbtvc	r2, [r3], #-124	; 0xffffff84
    aadc:	6d636e72 	stclvs	14, cr6, [r3, #-456]!	; 0xfffffe38
    aae0:	79742870 	ldmdbvc	r4!, {r4, r5, r6, fp, sp}^
    aae4:	6c22202c 	stcvs	0, cr2, [r2], #-176	; 0xffffff50
    aae8:	2c22646c 	cfstrscs	mvf6, [r2], #-432	; 0xfffffe50
    aaec:	20293320 	eorcs	r3, r9, r0, lsr #6
    aaf0:	30203d3d 	eorcc	r3, r0, sp, lsr sp
    aaf4:	00000000 	andeq	r0, r0, r0
    aaf8:	494e4150 	stmdbmi	lr, {r4, r6, r8, lr}^
    aafc:	73253a43 			; <UNDEFINED> instruction: 0x73253a43
    ab00:	3a73253a 	bcc	1cd3ff0 <__bss_end__+0x1cc8dc8>
    ab04:	693a6425 	ldmdbvs	sl!, {r0, r2, r5, sl, sp, lr}
    ab08:	736f706d 	cmnvc	pc, #109, 0	; 0x6d
    ab0c:	6c626973 			; <UNDEFINED> instruction: 0x6c626973
    ab10:	66203a65 	strtvs	r3, [r0], -r5, ror #20
    ab14:	3c3d746d 	cfldrscc	mvf7, [sp], #-436	; 0xfffffe4c
    ab18:	0a3e7325 	beq	fa77b4 <__bss_end__+0xf9c58c>
    ab1c:	0000000a 	andeq	r0, r0, sl
    ab20:	494e4150 	stmdbmi	lr, {r4, r6, r8, lr}^
    ab24:	73253a43 			; <UNDEFINED> instruction: 0x73253a43
    ab28:	3a73253a 	bcc	1cd4018 <__bss_end__+0x1cc8df0>
    ab2c:	663a6425 	ldrtvs	r6, [sl], -r5, lsr #8
    ab30:	74616f6c 	strbtvc	r6, [r1], #-3948	; 0xfffff094
    ab34:	746f6e20 	strbtvc	r6, [pc], #-3616	; ab3c <__FUNCTION__.4120+0x108>
    ab38:	616e6520 	cmnvs	lr, r0, lsr #10
    ab3c:	64656c62 	strbtvs	r6, [r5], #-3170	; 0xfffff39e
    ab40:	0a212121 	beq	852fcc <__bss_end__+0x847da4>
    ab44:	00000000 	andeq	r0, r0, r0
    ab48:	6e697270 	mcrvs	2, 3, r7, cr9, cr0, {3}
    ab4c:	203a6b74 	eorscs	r6, sl, r4, ror fp
    ab50:	20746f6e 	rsbscs	r6, r4, lr, ror #30
    ab54:	646e6168 	strbtvs	r6, [lr], #-360	; 0xfffffe98
    ab58:	676e696c 	strbvs	r6, [lr, -ip, ror #18]!
    ab5c:	65707320 	ldrbvs	r7, [r0, #-800]!	; 0xfffffce0
    ab60:	69666963 	stmdbvs	r6!, {r0, r1, r5, r6, r8, fp, sp, lr}^
    ab64:	27207265 	strcs	r7, [r0, -r5, ror #4]!
    ab68:	20276325 	eorcs	r6, r7, r5, lsr #6
    ab6c:	63736128 	cmnvs	r3, #10
    ab70:	253d6969 	ldrcs	r6, [sp, #-2409]!	; 0xfffff697
    ab74:	000a2964 	andeq	r2, sl, r4, ror #18
    ab78:	494e4150 	stmdbmi	lr, {r4, r6, r8, lr}^
    ab7c:	73253a43 			; <UNDEFINED> instruction: 0x73253a43
    ab80:	3a73253a 	bcc	1cd4070 <__bss_end__+0x1cc8e48>
    ab84:	703a6425 	eorsvc	r6, sl, r5, lsr #8
    ab88:	746e6972 	strbtvc	r6, [lr], #-2418	; 0xfffff68e
    ab8c:	7265206b 	rsbvc	r2, r5, #107, 0	; 0x6b
    ab90:	0a726f72 	beq	1ca6960 <__bss_end__+0x1c9b738>
    ab94:	0000000a 	andeq	r0, r0, sl

0000ab98 <__FUNCTION__.4004>:
    ab98:	74696d65 	strbtvc	r6, [r9], #-3429	; 0xfffff29b
    ab9c:	00000000 	andeq	r0, r0, r0

0000aba0 <__FUNCTION__.3952>:
    aba0:	5f697072 	svcpl	0x00697072
    aba4:	5f746573 	svcpl	0x00746573
    aba8:	7074756f 	rsbsvc	r7, r4, pc, ror #10
    abac:	00007475 	andeq	r7, r0, r5, ror r4

0000abb0 <__FUNCTION__.4030>:
    abb0:	705f6176 	subsvc	r6, pc, r6, ror r1	; <UNPREDICTABLE>
    abb4:	746e6972 	strbtvc	r6, [lr], #-2418	; 0xfffff68e
    abb8:	0000006b 	andeq	r0, r0, fp, rrx
    abbc:	454e4f44 	strbmi	r4, [lr, #-3908]	; 0xfffff0bc
    abc0:	0a212121 	beq	85304c <__bss_end__+0x847e24>
    abc4:	00000000 	andeq	r0, r0, r0
    abc8:	6e75525b 	mrcvs	2, 3, r5, cr5, cr11, {2}
    abcc:	676e696e 	strbvs	r6, [lr, -lr, ror #18]!
    abd0:	6f6f7420 	svcvs	0x006f7420
    abd4:	6425206b 	strtvs	r2, [r5], #-107	; 0xffffff95
    abd8:	63796320 	cmnvs	r9, #32, 6	; 0x80000000
    abdc:	5d73656c 	cfldr64pl	mvdx6, [r3, #-432]!	; 0xfffffe50
    abe0:	0000000a 	andeq	r0, r0, sl
    abe4:	6c616d6b 	stclvs	13, cr6, [r1], #-428	; 0xfffffe54
    abe8:	2e636f6c 	cdpcs	15, 6, cr6, cr3, cr12, {3}
    abec:	00000063 	andeq	r0, r0, r3, rrx
    abf0:	5f78616d 	svcpl	0x0078616d
    abf4:	7479626e 	ldrbtvc	r6, [r9], #-622	; 0xfffffd92
    abf8:	00007365 	andeq	r7, r0, r5, ror #6
    abfc:	494e4150 	stmdbmi	lr, {r4, r6, r8, lr}^
    ac00:	73253a43 			; <UNDEFINED> instruction: 0x73253a43
    ac04:	3a73253a 	bcc	1cd40f4 <__bss_end__+0x1cc8ecc>
    ac08:	733a6425 	teqvc	sl, #620756992	; 0x25000000
    ac0c:	69747465 	ldmdbvs	r4!, {r0, r2, r5, r6, sl, ip, sp, lr}^
    ac10:	6820676e 	stmdavs	r0!, {r1, r2, r3, r5, r6, r8, r9, sl, sp, lr}
    ac14:	20706165 	rsbscs	r6, r0, r5, ror #2
    ac18:	25206f74 	strcs	r6, [r0, #-3956]!	; 0xfffff08c
    ac1c:	77203a70 			; <UNDEFINED> instruction: 0x77203a70
    ac20:	206c6c69 	rsbcs	r6, ip, r9, ror #24
    ac24:	20746968 	rsbscs	r6, r4, r8, ror #18
    ac28:	20656874 	rsbcs	r6, r5, r4, ror r8
    ac2c:	20646c6f 	rsbcs	r6, r4, pc, ror #24
    ac30:	70616568 	rsbvc	r6, r1, r8, ror #10
    ac34:	20746120 	rsbscs	r6, r4, r0, lsr #2
    ac38:	0a0a7025 	beq	2a6cd4 <__bss_end__+0x29baac>
    ac3c:	00000000 	andeq	r0, r0, r0
    ac40:	494e4150 	stmdbmi	lr, {r4, r6, r8, lr}^
    ac44:	73253a43 			; <UNDEFINED> instruction: 0x73253a43
    ac48:	3a73253a 	bcc	1cd4138 <__bss_end__+0x1cc8f10>
    ac4c:	613a6425 	teqvs	sl, r5, lsr #8
    ac50:	6165726c 	cmnvs	r5, ip, ror #4
    ac54:	63207964 			; <UNDEFINED> instruction: 0x63207964
    ac58:	656c6c61 	strbvs	r6, [ip, #-3169]!	; 0xfffff39f
    ac5c:	6d6b2064 	stclvs	0, cr2, [fp, #-400]!	; 0xfffffe70
    ac60:	6f6c6c61 	svcvs	0x006c6c61
    ac64:	6e695f63 	cdpvs	15, 6, cr5, cr9, cr3, {3}
    ac68:	0a0a7469 	beq	2a7e14 <__bss_end__+0x29cbec>
    ac6c:	00000000 	andeq	r0, r0, r0
    ac70:	494e4150 	stmdbmi	lr, {r4, r6, r8, lr}^
    ac74:	73253a43 			; <UNDEFINED> instruction: 0x73253a43
    ac78:	3a73253a 	bcc	1cd4168 <__bss_end__+0x1cc8f40>
    ac7c:	253a6425 	ldrcs	r6, [sl, #-1061]!	; 0xfffffbdb
    ac80:	626e2064 	rsbvs	r2, lr, #100, 0	; 0x64
    ac84:	73657479 	cmnvc	r5, #2030043136	; 0x79000000
    ac88:	63786520 	cmnvs	r8, #32, 10	; 0x8000000
    ac8c:	65646565 	strbvs	r6, [r4, #-1381]!	; 0xfffffa9b
    ac90:	69732064 	ldmdbvs	r3!, {r2, r5, r6, sp}^
    ac94:	6f20657a 	svcvs	0x0020657a
    ac98:	65682066 	strbvs	r2, [r8, #-102]!	; 0xffffff9a
    ac9c:	62207061 	eorvs	r7, r0, #97, 0	; 0x61
    aca0:	75252079 	strvc	r2, [r5, #-121]!	; 0xffffff87
    aca4:	79626e20 	stmdbvc	r2!, {r5, r9, sl, fp, sp, lr}^
    aca8:	0a736574 	beq	1ce4280 <__bss_end__+0x1cd9058>
    acac:	0000000a 	andeq	r0, r0, sl
    acb0:	4f525245 	svcmi	0x00525245
    acb4:	73253a52 			; <UNDEFINED> instruction: 0x73253a52
    acb8:	3a73253a 	bcc	1cd41a8 <__bss_end__+0x1cc8f80>
    acbc:	203a6425 	eorscs	r6, sl, r5, lsr #8
    acc0:	534c4146 	movtpl	r4, #49478	; 0xc146
    acc4:	253c2845 	ldrcs	r2, [ip, #-2117]!	; 0xfffff7bb
    acc8:	3a293e73 	bcc	a5a69c <__bss_end__+0xa4f474>
    accc:	73736120 	cmnvc	r3, #8
    acd0:	6e696d75 	mcrvs	13, 3, r6, cr9, cr5, {3}
    acd4:	6f702067 	svcvs	0x00702067
    acd8:	20726577 	rsbscs	r6, r2, r7, ror r5
    acdc:	7420666f 	strtvc	r6, [r0], #-1647	; 0xfffff991
    ace0:	000a6f77 	andeq	r6, sl, r7, ror pc
    ace4:	705f7369 	subsvc	r7, pc, r9, ror #6
    ace8:	2832776f 	ldmdacs	r2!, {r0, r1, r2, r3, r5, r6, r8, r9, sl, ip, sp, lr}
    acec:	67696c61 	strbvs	r6, [r9, -r1, ror #24]!
    acf0:	6e656d6e 	cdpvs	13, 6, cr6, cr5, cr14, {3}
    acf4:	00002974 	andeq	r2, r0, r4, ror r9
    acf8:	705f7369 	subsvc	r7, pc, r9, ror #6
    acfc:	2832776f 	ldmdacs	r2!, {r0, r1, r2, r3, r5, r6, r8, r9, sl, ip, sp, lr}
    ad00:	0000296e 	andeq	r2, r0, lr, ror #18
    ad04:	4f525245 	svcmi	0x00525245
    ad08:	73253a52 			; <UNDEFINED> instruction: 0x73253a52
    ad0c:	3a73253a 	bcc	1cd41fc <__bss_end__+0x1cc8fd4>
    ad10:	203a6425 	eorscs	r6, sl, r5, lsr #8
    ad14:	534c4146 	movtpl	r4, #49478	; 0xc146
    ad18:	253c2845 	ldrcs	r2, [ip, #-2117]!	; 0xfffff7bb
    ad1c:	3a293e73 	bcc	a5a6f0 <__bss_end__+0xa4f4c8>
    ad20:	706d6920 	rsbvc	r6, sp, r0, lsr #18
    ad24:	6973736f 	ldmdbvs	r3!, {r0, r1, r2, r3, r5, r6, r8, r9, ip, sp, lr}^
    ad28:	0a656c62 	beq	1965eb8 <__bss_end__+0x195ac90>
    ad2c:	00000000 	andeq	r0, r0, r0
    ad30:	615f7369 	cmpvs	pc, r9, ror #6
    ad34:	6e67696c 	vnmulvs.f16	s13, s14, s25	; <UNPREDICTABLE>
    ad38:	68286465 	stmdavs	r8!, {r0, r2, r5, r6, sl, sp, lr}
    ad3c:	6c61202c 	stclvs	0, cr2, [r1], #-176	; 0xffffff50
    ad40:	6d6e6769 	stclvs	7, cr6, [lr, #-420]!	; 0xfffffe5c
    ad44:	29746e65 	ldmdbcs	r4!, {r0, r2, r5, r6, r9, sl, fp, sp, lr}^
    ad48:	00000000 	andeq	r0, r0, r0
    ad4c:	494e4150 	stmdbmi	lr, {r4, r6, r8, lr}^
    ad50:	73253a43 			; <UNDEFINED> instruction: 0x73253a43
    ad54:	3a73253a 	bcc	1cd4244 <__bss_end__+0x1cc901c>
    ad58:	703a6425 	eorsvc	r6, sl, r5, lsr #8
    ad5c:	746e696f 	strbtvc	r6, [lr], #-2415	; 0xfffff691
    ad60:	25207265 	strcs	r7, [r0, #-613]!	; 0xfffffd9b
    ad64:	61772070 	cmnvs	r7, r0, ror r0
    ad68:	656e2073 	strbvs	r2, [lr, #-115]!	; 0xffffff8d
    ad6c:	20726576 	rsbscs	r6, r2, r6, ror r5
    ad70:	6f6c6c61 	svcvs	0x006c6c61
    ad74:	65746163 	ldrbvs	r6, [r4, #-355]!	; 0xfffffe9d
    ad78:	000a0a64 	andeq	r0, sl, r4, ror #20

0000ad7c <__FUNCTION__.7>:
    ad7c:	6c616d6b 	stclvs	13, cr6, [r1], #-428	; 0xfffffe54
    ad80:	5f636f6c 	svcpl	0x00636f6c
    ad84:	74696e69 	strbtvc	r6, [r9], #-3689	; 0xfffff197
    ad88:	7465735f 	strbtvc	r7, [r5], #-863	; 0xfffffca1
    ad8c:	6174735f 	cmnvs	r4, pc, asr r3
    ad90:	00007472 	andeq	r7, r0, r2, ror r4

0000ad94 <__FUNCTION__.5>:
    ad94:	6c616d6b 	stclvs	13, cr6, [r1], #-428	; 0xfffffe54
    ad98:	5f636f6c 	svcpl	0x00636f6c
    ad9c:	74696e69 	strbtvc	r6, [r9], #-3689	; 0xfffff197
    ada0:	00000000 	andeq	r0, r0, r0

0000ada4 <__FUNCTION__.4>:
    ada4:	6c616d6b 	stclvs	13, cr6, [r1], #-428	; 0xfffffe54
    ada8:	5f636f6c 	svcpl	0x00636f6c
    adac:	7a746f6e 	bvc	1d26b6c <__bss_end__+0x1d1b944>
    adb0:	006f7265 	rsbeq	r7, pc, r5, ror #4

0000adb4 <__FUNCTION__.2>:
    adb4:	6c616d6b 	stclvs	13, cr6, [r1], #-428	; 0xfffffe54
    adb8:	00636f6c 	rsbeq	r6, r3, ip, ror #30

0000adbc <__FUNCTION__.1>:
    adbc:	6c616d6b 	stclvs	13, cr6, [r1], #-428	; 0xfffffe54
    adc0:	5f636f6c 	svcpl	0x00636f6c
    adc4:	67696c61 	strbvs	r6, [r9, -r1, ror #24]!
    adc8:	0064656e 	rsbeq	r6, r4, lr, ror #10

0000adcc <__FUNCTION__.3>:
    adcc:	6e756f72 	mrcvs	15, 3, r6, cr5, cr2, {3}
    add0:	00707564 	rsbseq	r7, r0, r4, ror #10

0000add4 <__FUNCTION__.0>:
    add4:	6572666b 	ldrbvs	r6, [r2, #-1643]!	; 0xfffff995
    add8:	6f705f65 	svcvs	0x00705f65
    addc:	Address 0x000000000000addc is out of bounds.


Disassembly of section .data:

0000ade0 <putk>:
    ade0:	00008fe8 	andeq	r8, r0, r8, ror #31

0000ade4 <heap>:
    ade4:	0000b228 	andeq	fp, r0, r8, lsr #4

0000ade8 <heap_start>:
    ade8:	0000b228 	andeq	fp, r0, r8, lsr #4

0000adec <heap_end>:
    adec:	0020b228 	eoreq	fp, r0, r8, lsr #4

0000adf0 <rpi_putchar>:
    adf0:	0000a40c 	andeq	sl, r0, ip, lsl #8

Disassembly of section .bss:

0000adf8 <__bss_start__>:
	...

0000ae00 <freep>:
	...

0000ae08 <base>:
	...

0000ae10 <heap_start>:
    ae10:	00000000 	andeq	r0, r0, r0

0000ae14 <heap_end>:
    ae14:	00000000 	andeq	r0, r0, r0

0000ae18 <init_p.4038>:
    ae18:	00000000 	andeq	r0, r0, r0

0000ae1c <buf.3944>:
	...

0000b21c <last.3937>:
    b21c:	00000000 	andeq	r0, r0, r0

0000b220 <init_p.6>:
	...

Disassembly of section .ARM.attributes:

00000000 <.ARM.attributes>:
   0:	00002a41 	andeq	r2, r0, r1, asr #20
   4:	61656100 	cmnvs	r5, r0, lsl #2
   8:	01006962 	tsteq	r0, r2, ror #18
   c:	00000020 	andeq	r0, r0, r0, lsr #32
  10:	4b5a3605 	blmi	168d82c <__bss_end__+0x1682604>
  14:	08070600 	stmdaeq	r7, {r9, sl}
  18:	12010901 	andne	r0, r1, #16384	; 0x4000
  1c:	15011404 	strne	r1, [r1, #-1028]	; 0xfffffbfc
  20:	18031701 	stmdane	r3, {r0, r8, r9, sl, ip}
  24:	22011a01 	andcs	r1, r1, #4096	; 0x1000
  28:	Address 0x0000000000000028 is out of bounds.


Disassembly of section .comment:

00000000 <.comment>:
   0:	3a434347 	bcc	10d0d24 <__bss_end__+0x10c5afc>
   4:	4e472820 	cdpmi	8, 4, cr2, cr7, cr0, {1}
   8:	6f542055 	svcvs	0x00542055
   c:	20736c6f 	rsbscs	r6, r3, pc, ror #24
  10:	20726f66 	rsbscs	r6, r2, r6, ror #30
  14:	206d7241 	rsbcs	r7, sp, r1, asr #4
  18:	65626d45 	strbvs	r6, [r2, #-3397]!	; 0xfffff2bb
  1c:	64656464 	strbtvs	r6, [r5], #-1124	; 0xfffffb9c
  20:	6f725020 	svcvs	0x00725020
  24:	73736563 	cmnvc	r3, #415236096	; 0x18c00000
  28:	2073726f 	rsbscs	r7, r3, pc, ror #4
  2c:	30322d39 	eorscc	r2, r2, r9, lsr sp
  30:	712d3931 			; <UNDEFINED> instruction: 0x712d3931
  34:	616d2d34 	cmnvs	sp, r4, lsr sp
  38:	29726f6a 	ldmdbcs	r2!, {r1, r3, r5, r6, r8, r9, sl, fp, sp, lr}^
  3c:	322e3920 	eorcc	r3, lr, #32, 18	; 0x80000
  40:	3220312e 	eorcc	r3, r0, #-2147483637	; 0x8000000b
  44:	31393130 	teqcc	r9, r0, lsr r1
  48:	20353230 	eorscs	r3, r5, r0, lsr r2
  4c:	6c657228 	sfmvs	f7, 2, [r5], #-160	; 0xffffff60
  50:	65736165 	ldrbvs	r6, [r3, #-357]!	; 0xfffffe9b
  54:	415b2029 	cmpmi	fp, r9, lsr #32
  58:	612f4d52 			; <UNDEFINED> instruction: 0x612f4d52
  5c:	392d6d72 	pushcc	{r1, r4, r5, r6, r8, sl, fp, sp, lr}
  60:	6172622d 	cmnvs	r2, sp, lsr #4
  64:	2068636e 	rsbcs	r6, r8, lr, ror #6
  68:	69766572 	ldmdbvs	r6!, {r1, r4, r5, r6, r8, sl, sp, lr}^
  6c:	6e6f6973 			; <UNDEFINED> instruction: 0x6e6f6973
  70:	37373220 	ldrcc	r3, [r7, -r0, lsr #4]!
  74:	5d393935 			; <UNDEFINED> instruction: 0x5d393935
  78:	43434700 	movtmi	r4, #14080	; 0x3700
  7c:	4728203a 			; <UNDEFINED> instruction: 0x4728203a
  80:	4120554e 			; <UNDEFINED> instruction: 0x4120554e
  84:	45206d72 	strmi	r6, [r0, #-3442]!	; 0xfffff28e
  88:	6465626d 	strbtvs	r6, [r5], #-621	; 0xfffffd93
  8c:	20646564 	rsbcs	r6, r4, r4, ror #10
  90:	6c6f6f54 	stclvs	15, cr6, [pc], #-336	; ffffff48 <__bss_end__+0xffff4d20>
  94:	69616863 	stmdbvs	r1!, {r0, r1, r5, r6, fp, sp, lr}^
  98:	3031206e 	eorscc	r2, r1, lr, rrx
  9c:	322d332e 	eorcc	r3, sp, #-1207959552	; 0xb8000000
  a0:	2e313230 	mrccs	2, 1, r3, cr1, cr0, {1}
  a4:	20293031 	eorcs	r3, r9, r1, lsr r0
  a8:	332e3031 			; <UNDEFINED> instruction: 0x332e3031
  ac:	3220312e 	eorcc	r3, r0, #-2147483637	; 0x8000000b
  b0:	30313230 	eorscc	r3, r1, r0, lsr r2
  b4:	20343238 	eorscs	r3, r4, r8, lsr r2
  b8:	6c657228 	sfmvs	f7, 2, [r5], #-160	; 0xffffff60
  bc:	65736165 	ldrbvs	r6, [r3, #-357]!	; 0xfffffe9b
  c0:	Address 0x00000000000000c0 is out of bounds.


Disassembly of section .debug_info:

00000000 <.debug_info>:
       0:	000004b4 			; <UNDEFINED> instruction: 0x000004b4
       4:	00000004 	andeq	r0, r0, r4
       8:	01040000 	mrseq	r0, (UNDEF: 4)
       c:	000000aa 	andeq	r0, r0, sl, lsr #1
      10:	0000260c 	andeq	r2, r0, ip, lsl #12
      14:	00019e00 	andeq	r9, r1, r0, lsl #28
      18:	00803800 	addeq	r3, r0, r0, lsl #16
      1c:	00015000 	andeq	r5, r1, r0
      20:	00000000 	andeq	r0, r0, r0
      24:	05040200 	streq	r0, [r4, #-512]	; 0xfffffe00
      28:	00746e69 	rsbseq	r6, r4, r9, ror #28
      2c:	07070403 	streq	r0, [r7, -r3, lsl #8]
      30:	03000002 	movweq	r0, #2
      34:	007e0601 	rsbseq	r0, lr, r1, lsl #12
      38:	02030000 	andeq	r0, r3, #0, 0
      3c:	00024005 	andeq	r4, r2, r5
      40:	05040300 	streq	r0, [r4, #-768]	; 0xfffffd00
      44:	0000022b 	andeq	r0, r0, fp, lsr #4
      48:	26050803 	strcs	r0, [r5], -r3, lsl #16
      4c:	04000002 	streq	r0, [r0], #-2
      50:	00000214 	andeq	r0, r0, r4, lsl r2
      54:	5b182e04 	blpl	60b86c <__bss_end__+0x600644>
      58:	03000000 	movweq	r0, #0
      5c:	007c0801 	rsbseq	r0, ip, r1, lsl #16
      60:	54040000 	strpl	r0, [r4], #-0
      64:	04000002 	streq	r0, [r0], #-2
      68:	006e1931 	rsbeq	r1, lr, r1, lsr r9
      6c:	02030000 	andeq	r0, r3, #0, 0
      70:	00009707 	andeq	r9, r0, r7, lsl #14
      74:	02660400 	rsbeq	r0, r6, #0, 8
      78:	34040000 	strcc	r0, [r4], #-0
      7c:	00008119 	andeq	r8, r0, r9, lsl r1
      80:	07040300 	streq	r0, [r4, -r0, lsl #6]
      84:	00000202 	andeq	r0, r0, r2, lsl #4
      88:	fd070803 	stc2	8, cr0, [r7, #-12]
      8c:	05000001 	streq	r0, [r0, #-1]
      90:	00000025 	andeq	r0, r0, r5, lsr #32
      94:	0000009e 	muleq	r0, lr, r0
      98:	00002506 	andeq	r2, r0, r6, lsl #10
      9c:	34070000 	strcc	r0, [r7], #-0
      a0:	05000002 	streq	r0, [r0, #-2]
      a4:	00aa0e1c 	adceq	r0, sl, ip, lsl lr
      a8:	04080000 	streq	r0, [r8], #-0
      ac:	0000008f 	andeq	r0, r0, pc, lsl #1
      b0:	00002505 	andeq	r2, r0, r5, lsl #10
      b4:	0000bf00 	andeq	fp, r0, r0, lsl #30
      b8:	00bf0600 	adcseq	r0, pc, r0, lsl #12
      bc:	08000000 	stmdaeq	r0, {}	; <UNPREDICTABLE>
      c0:	0000cc04 	andeq	ip, r0, r4, lsl #24
      c4:	08010300 	stmdaeq	r1, {r8, r9}
      c8:	00000085 	andeq	r0, r0, r5, lsl #1
      cc:	0000c509 	andeq	ip, r0, r9, lsl #10
      d0:	067e0700 	ldrbteq	r0, [lr], -r0, lsl #14
      d4:	21050000 	mrscs	r0, (UNDEF: 5)
      d8:	0000dd0e 	andeq	sp, r0, lr, lsl #26
      dc:	b0040800 	andlt	r0, r4, r0, lsl #16
      e0:	0a000000 	beq	e8 <__code_start__-0x7f18>
      e4:	0905030c 	stmdbeq	r5, {r2, r3, r8, r9}
      e8:	00000114 	andeq	r0, r0, r4, lsl r1
      ec:	0000770b 	andeq	r7, r0, fp, lsl #14
      f0:	11070300 	mrsne	r0, SP_und
      f4:	000000bf 	strheq	r0, [r0], -pc	; <UNPREDICTABLE>
      f8:	01dc0b00 	bicseq	r0, ip, r0, lsl #22
      fc:	08030000 	stmdaeq	r3, {}	; <UNPREDICTABLE>
     100:	0000bf11 	andeq	fp, r0, r1, lsl pc
     104:	460b0400 	strmi	r0, [fp], -r0, lsl #8
     108:	03000000 	movweq	r0, #0
     10c:	002c0e09 	eoreq	r0, ip, r9, lsl #28
     110:	00080000 	andeq	r0, r8, r0
     114:	00024a04 	andeq	r4, r2, r4, lsl #20
     118:	030a0300 	movweq	r0, #41728	; 0xa300
     11c:	000000e3 	andeq	r0, r0, r3, ror #1
     120:	00018c0c 	andeq	r8, r1, ip, lsl #24
     124:	0d01b800 	stceq	8, cr11, [r1, #-0]
     128:	0001bd10 	andeq	fp, r1, r0, lsl sp
     12c:	00130b00 	andseq	r0, r3, r0, lsl #22
     130:	0e010000 	cdpeq	0, 0, cr0, cr1, cr0, {0}
     134:	0001bd14 	andeq	fp, r1, r4, lsl sp
     138:	4d0b0000 	stcmi	0, cr0, [fp, #-0]
     13c:	01000000 	mrseq	r0, (UNDEF: 0)
     140:	00750e0f 	rsbseq	r0, r5, pc, lsl #28
     144:	0b040000 	bleq	10014c <__bss_end__+0xf4f24>
     148:	0000006a 	andeq	r0, r0, sl, rrx
     14c:	750e1001 	strvc	r1, [lr, #-1]
     150:	08000000 	stmdaeq	r0, {}	; <UNPREDICTABLE>
     154:	0000200b 	andeq	r2, r0, fp
     158:	0e110100 	mufeqs	f0, f1, f0
     15c:	00000075 	andeq	r0, r0, r5, ror r0
     160:	01f40b0c 	mvnseq	r0, ip, lsl #22
     164:	15010000 	strne	r0, [r1, #-0]
     168:	0000750e 	andeq	r7, r0, lr, lsl #10
     16c:	1c0b1000 	stcne	0, cr1, [fp], {-0}
     170:	01000002 	tsteq	r0, r2
     174:	01140f17 	tsteq	r4, r7, lsl pc
     178:	0b140000 	bleq	500180 <__bss_end__+0x4f4f58>
     17c:	0000025d 	andeq	r0, r0, sp, asr r2
     180:	140f1801 	strne	r1, [pc], #-2049	; 188 <__code_start__-0x7e78>
     184:	20000001 	andcs	r0, r0, r1
     188:	00026f0b 	andeq	r6, r2, fp, lsl #30
     18c:	0e1b0100 	mufeqe	f0, f3, f0
     190:	00000075 	andeq	r0, r0, r5, ror r0
     194:	027a0b2c 	rsbseq	r0, sl, #44, 22	; 0xb000
     198:	1c010000 	stcne	0, cr0, [r1], {-0}
     19c:	0000750e 	andeq	r7, r0, lr, lsl #10
     1a0:	220b3000 	andcs	r3, fp, #0, 0
     1a4:	01000004 	tsteq	r0, r4
     1a8:	00620e1e 	rsbeq	r0, r2, lr, lsl lr
     1ac:	0d340000 	ldceq	0, cr0, [r4, #-0]
     1b0:	00317a72 	eorseq	r7, r1, r2, ror sl
     1b4:	c30d2001 	movwgt	r2, #53249	; 0xd001
     1b8:	36000001 	strcc	r0, [r0], -r1
     1bc:	20040800 	andcs	r0, r4, r0, lsl #16
     1c0:	0e000001 	cdpeq	0, 0, cr0, cr0, cr1, {0}
     1c4:	0000004f 	andeq	r0, r0, pc, asr #32
     1c8:	000001d3 	ldrdeq	r0, [r0], -r3
     1cc:	00002c0f 	andeq	r2, r0, pc, lsl #24
     1d0:	04007f00 	streq	r7, [r0], #-3840	; 0xfffff100
     1d4:	0000000d 	andeq	r0, r0, sp
     1d8:	20032101 	andcs	r2, r3, r1, lsl #2
     1dc:	10000001 	andne	r0, r0, r1
     1e0:	00000704 	andeq	r0, r0, r4, lsl #14
     1e4:	a9010000 	stmdbge	r1, {}	; <UNPREDICTABLE>
     1e8:	00002c11 	andeq	r2, r0, r1, lsl ip
     1ec:	00621100 	rsbeq	r1, r2, r0, lsl #2
     1f0:	11020000 	mrsne	r0, (UNDEF: 2)
     1f4:	0080dc06 	addeq	sp, r0, r6, lsl #24
     1f8:	0000ac00 	andeq	sl, r0, r0, lsl #24
     1fc:	159c0100 	ldrne	r0, [ip, #256]	; 0x100
     200:	12000003 	andne	r0, r0, #3, 0
     204:	15020070 	strne	r0, [r2, #-112]	; 0xffffff90
     208:	0003150b 	andeq	r1, r3, fp, lsl #10
     20c:	00000600 	andeq	r0, r0, r0, lsl #12
     210:	00000000 	andeq	r0, r0, r0
     214:	01e11300 	mvneq	r1, r0, lsl #6
     218:	032b0000 			; <UNDEFINED> instruction: 0x032b0000
     21c:	03050000 	movweq	r0, #20480	; 0x5000
     220:	0000a628 	andeq	sl, r0, r8, lsr #12
     224:	0080f414 	addeq	pc, r0, r4, lsl r4	; <UNPREDICTABLE>
     228:	00047d00 	andeq	r7, r4, r0, lsl #26
     22c:	00023b00 	andeq	r3, r2, r0, lsl #22
     230:	50011500 	andpl	r1, r1, r0, lsl #10
     234:	a5680305 	strbge	r0, [r8, #-773]!	; 0xfffffcfb
     238:	16000000 	strne	r0, [r0], -r0
     23c:	000080f8 	strdeq	r8, [r0], -r8	; <UNPREDICTABLE>
     240:	00000330 	andeq	r0, r0, r0, lsr r3
     244:	00810814 	addeq	r0, r1, r4, lsl r8
     248:	00047d00 	andeq	r7, r4, r0, lsl #26
     24c:	00026100 	andeq	r6, r2, r0, lsl #2
     250:	50011500 	andpl	r1, r1, r0, lsl #10
     254:	a5740305 	ldrbge	r0, [r4, #-773]!	; 0xfffffcfb
     258:	01150000 	tsteq	r5, r0
     25c:	00740251 	rsbseq	r0, r4, r1, asr r2
     260:	81101400 	tsthi	r0, r0, lsl #8
     264:	04890000 	streq	r0, [r9], #0
     268:	02740000 	rsbseq	r0, r4, #0, 0
     26c:	01150000 	tsteq	r5, r0
     270:	00300150 	eorseq	r0, r0, r0, asr r1
     274:	00812014 	addeq	r2, r1, r4, lsl r0
     278:	00048900 	andeq	r8, r4, r0, lsl #18
     27c:	00028700 	andeq	r8, r2, r0, lsl #14
     280:	50011500 	andpl	r1, r1, r0, lsl #10
     284:	14003101 	strne	r3, [r0], #-257	; 0xfffffeff
     288:	00008130 	andeq	r8, r0, r0, lsr r1
     28c:	0000047d 	andeq	r0, r0, sp, ror r4
     290:	0000029e 	muleq	r0, lr, r2
     294:	05500115 	ldrbeq	r0, [r0, #-277]	; 0xfffffeeb
     298:	00a5c003 	adceq	ip, r5, r3
     29c:	4c140000 	ldcmi	0, cr0, [r4], {-0}
     2a0:	7d000081 	stcvc	0, cr0, [r0, #-516]	; 0xfffffdfc
     2a4:	cc000004 	stcgt	0, cr0, [r0], {4}
     2a8:	15000002 	strne	r0, [r0, #-2]
     2ac:	03055001 	movweq	r5, #20481	; 0x5001
     2b0:	0000a590 	muleq	r0, r0, r5
     2b4:	05510115 	ldrbeq	r0, [r1, #-277]	; 0xfffffeeb
     2b8:	00a52003 	adceq	r2, r5, r3
     2bc:	52011500 	andpl	r1, r1, #0, 10
     2c0:	a6280305 	strtge	r0, [r8], -r5, lsl #6
     2c4:	01150000 	tsteq	r5, r0
     2c8:	004b0153 	subeq	r0, fp, r3, asr r1
     2cc:	00815016 	addeq	r5, r1, r6, lsl r0
     2d0:	00049500 	andeq	r9, r4, r0, lsl #10
     2d4:	81681400 	cmnhi	r8, r0, lsl #8
     2d8:	047d0000 	ldrbteq	r0, [sp], #-0
     2dc:	030b0000 	movweq	r0, #45056	; 0xb000
     2e0:	01150000 	tsteq	r5, r0
     2e4:	e8030550 	stmda	r3, {r4, r6, r8, sl}
     2e8:	150000a5 	strne	r0, [r0, #-165]	; 0xffffff5b
     2ec:	03055101 	movweq	r5, #20737	; 0x5101
     2f0:	0000a520 	andeq	sl, r0, r0, lsr #10
     2f4:	05520115 	ldrbeq	r0, [r2, #-277]	; 0xfffffeeb
     2f8:	00a62803 	adceq	r2, r6, r3, lsl #16
     2fc:	53011500 	movwpl	r1, #5376	; 0x1500
     300:	15200802 	strne	r0, [r0, #-2050]!	; 0xfffff7fe
     304:	02007d02 	andeq	r7, r0, #128	; 0x80
     308:	16000074 			; <UNDEFINED> instruction: 0x16000074
     30c:	0000816c 	andeq	r8, r0, ip, ror #2
     310:	00000495 	muleq	r0, r5, r4
     314:	c5040800 	strgt	r0, [r4, #-2048]	; 0xfffff800
     318:	0e000000 	cdpeq	0, 0, cr0, cr0, cr0, {0}
     31c:	000000cc 	andeq	r0, r0, ip, asr #1
     320:	0000032b 	andeq	r0, r0, fp, lsr #6
     324:	00002c0f 	andeq	r2, r0, pc, lsl #24
     328:	09000700 	stmdbeq	r0, {r8, r9, sl}
     32c:	0000031b 	andeq	r0, r0, fp, lsl r3
     330:	0001ee17 	andeq	lr, r1, r7, lsl lr
     334:	070a0200 	streq	r0, [sl, -r0, lsl #4]
     338:	00000315 	andeq	r0, r0, r5, lsl r3
     33c:	00008068 	andeq	r8, r0, r8, rrx
     340:	00000068 	andeq	r0, r0, r8, rrx
     344:	03ed9c01 	mvneq	r9, #256	; 0x100
     348:	70120000 	andsvc	r0, r2, r0
     34c:	0b0c0200 	bleq	300b54 <__bss_end__+0x2f592c>
     350:	00000315 	andeq	r0, r0, r5, lsl r3
     354:	00000035 	andeq	r0, r0, r5, lsr r0
     358:	0000002f 	andeq	r0, r0, pc, lsr #32
     35c:	0001e113 	andeq	lr, r1, r3, lsl r1
     360:	0003fd00 	andeq	pc, r3, r0, lsl #26
     364:	20030500 	andcs	r0, r3, r0, lsl #10
     368:	180000a6 	stmdane	r0, {r1, r2, r5, r7}
     36c:	00000447 	andeq	r0, r0, r7, asr #8
     370:	00008078 	andeq	r8, r0, r8, ror r0
     374:	00807801 	addeq	r7, r0, r1, lsl #16
     378:	00001800 	andeq	r1, r0, r0, lsl #16
     37c:	0f0c0200 	svceq	0x000c0200
     380:	000003ac 	andeq	r0, r0, ip, lsr #7
     384:	00047019 	andeq	r7, r4, r9, lsl r0
     388:	00006200 	andeq	r6, r0, r0, lsl #4
     38c:	00006000 	andeq	r6, r0, r0
     390:	04641900 	strbteq	r1, [r4], #-2304	; 0xfffff700
     394:	00780000 	rsbseq	r0, r8, r0
     398:	00760000 	rsbseq	r0, r6, r0
     39c:	58190000 	ldmdapl	r9, {}	; <UNPREDICTABLE>
     3a0:	92000004 	andls	r0, r0, #4, 0
     3a4:	90000000 	andls	r0, r0, r0
     3a8:	00000000 	andeq	r0, r0, r0
     3ac:	0080a014 	addeq	sl, r0, r4, lsl r0
     3b0:	0004ab00 	andeq	sl, r4, r0, lsl #22
     3b4:	0003bf00 	andeq	fp, r3, r0, lsl #30
     3b8:	50011500 	andpl	r1, r1, r0, lsl #10
     3bc:	14003401 	strne	r3, [r0], #-1025	; 0xfffffbff
     3c0:	000080a8 	andeq	r8, r0, r8, lsr #1
     3c4:	00000402 	andeq	r0, r0, r2, lsl #8
     3c8:	000003d3 	ldrdeq	r0, [r0], -r3
     3cc:	02500115 	subseq	r0, r0, #1073741829	; 0x40000005
     3d0:	1a000074 	bne	5a8 <__code_start__-0x7a58>
     3d4:	000080b8 	strheq	r8, [r0], -r8	; <UNPREDICTABLE>
     3d8:	0000047d 	andeq	r0, r0, sp, ror r4
     3dc:	05500115 	ldrbeq	r0, [r0, #-277]	; 0xfffffeeb
     3e0:	00a54003 	adceq	r4, r5, r3
     3e4:	52011500 	andpl	r1, r1, #0, 10
     3e8:	00007402 	andeq	r7, r0, r2, lsl #8
     3ec:	00cc0e00 	sbceq	r0, ip, r0, lsl #28
     3f0:	03fd0000 	mvnseq	r0, #0, 0
     3f4:	2c0f0000 	stccs	0, cr0, [pc], {-0}
     3f8:	05000000 	streq	r0, [r0, #-0]
     3fc:	03ed0900 	mvneq	r0, #0, 18
     400:	d21b0000 	andsle	r0, fp, #0, 0
     404:	01000001 	tsteq	r0, r1
     408:	002c1124 	eoreq	r1, ip, r4, lsr #2
     40c:	80480000 	subhi	r0, r8, r0
     410:	00140000 	andseq	r0, r4, r0
     414:	9c010000 	stcls	0, cr0, [r1], {-0}
     418:	00000441 	andeq	r0, r0, r1, asr #8
     41c:	0100701c 	tsteq	r0, ip, lsl r0
     420:	01df2124 	bicseq	r2, pc, r4, lsr #2
     424:	00ae0000 	adceq	r0, lr, r0
     428:	00aa0000 	adceq	r0, sl, r0
     42c:	68120000 	ldmdavs	r2, {}	; <UNPREDICTABLE>
     430:	0c250100 	stfeqs	f0, [r5], #-0
     434:	00000441 	andeq	r0, r0, r1, asr #8
     438:	000000d3 	ldrdeq	r0, [r0], -r3
     43c:	000000cf 	andeq	r0, r0, pc, asr #1
     440:	d3040800 	movwle	r0, #18432	; 0x4800
     444:	1d000001 	stcne	0, cr0, [r0, #-4]
     448:	00000193 	muleq	r0, r3, r1
     44c:	140b0d03 	strne	r0, [fp], #-3331	; 0xfffff2fd
     450:	03000001 	movweq	r0, #1
     454:	0000047d 	andeq	r0, r0, sp, ror r4
     458:	0000771e 	andeq	r7, r0, lr, lsl r7
     45c:	220d0300 	andcs	r0, sp, #0, 6
     460:	000000bf 	strheq	r0, [r0], -pc	; <UNPREDICTABLE>
     464:	0001dc1e 	andeq	sp, r1, lr, lsl ip
     468:	340d0300 	strcc	r0, [sp], #-768	; 0xfffffd00
     46c:	000000bf 	strheq	r0, [r0], -pc	; <UNPREDICTABLE>
     470:	0000461e 	andeq	r4, r0, lr, lsl r6
     474:	430d0300 	movwmi	r0, #54016	; 0xd300
     478:	0000002c 	andeq	r0, r0, ip, lsr #32
     47c:	06401f00 	strbeq	r1, [r0], -r0, lsl #30
     480:	06400000 	strbeq	r0, [r0], -r0
     484:	28050000 	stmdacs	r5, {}	; <UNPREDICTABLE>
     488:	00541f06 	subseq	r1, r4, r6, lsl #30
     48c:	00540000 	subseq	r0, r4, r0
     490:	62010000 	andvs	r0, r1, #0, 0
     494:	008a1f0a 	addeq	r1, sl, sl, lsl #30
     498:	008a0000 	addeq	r0, sl, r0
     49c:	6e050000 	cdpvs	0, 0, cr0, cr5, cr0, {0}
     4a0:	9e082006 	cdpls	0, 0, cr2, cr8, cr6, {0}
     4a4:	73657406 	cmnvc	r5, #100663296	; 0x6000000
     4a8:	1f003174 	svcne	0x00003174
     4ac:	00000018 	andeq	r0, r0, r8, lsl r0
     4b0:	00000018 	andeq	r0, r0, r8, lsl r0
     4b4:	00084d01 	andeq	r4, r8, r1, lsl #26
     4b8:	000007ee 	andeq	r0, r0, lr, ror #15
     4bc:	01e50004 	mvneq	r0, r4
     4c0:	01040000 	mrseq	r0, (UNDEF: 4)
     4c4:	000000aa 	andeq	r0, r0, sl, lsr #1
     4c8:	0003310c 	andeq	r3, r3, ip, lsl #2
     4cc:	00019e00 	andeq	r9, r1, r0, lsl #28
     4d0:	00818800 	addeq	r8, r1, r0, lsl #16
     4d4:	00044000 	andeq	r4, r4, r0
     4d8:	00018200 	andeq	r8, r1, r0, lsl #4
     4dc:	05040200 	streq	r0, [r4, #-512]	; 0xfffffe00
     4e0:	00746e69 	rsbseq	r6, r4, r9, ror #28
     4e4:	07070403 	streq	r0, [r7, -r3, lsl #8]
     4e8:	03000002 	movweq	r0, #2
     4ec:	007e0601 	rsbseq	r0, lr, r1, lsl #12
     4f0:	02030000 	andeq	r0, r3, #0, 0
     4f4:	00024005 	andeq	r4, r2, r5
     4f8:	05040300 	streq	r0, [r4, #-768]	; 0xfffffd00
     4fc:	0000022b 	andeq	r0, r0, fp, lsr #4
     500:	26050803 	strcs	r0, [r5], -r3, lsl #16
     504:	04000002 	streq	r0, [r0], #-2
     508:	00000214 	andeq	r0, r0, r4, lsl r2
     50c:	5b182e03 	blpl	60bd20 <__bss_end__+0x600af8>
     510:	03000000 	movweq	r0, #0
     514:	007c0801 	rsbseq	r0, ip, r1, lsl #16
     518:	54040000 	strpl	r0, [r4], #-0
     51c:	03000002 	movweq	r0, #2
     520:	006e1931 	rsbeq	r1, lr, r1, lsr r9
     524:	02030000 	andeq	r0, r3, #0, 0
     528:	00009707 	andeq	r9, r0, r7, lsl #14
     52c:	02660400 	rsbeq	r0, r6, #0, 8
     530:	34030000 	strcc	r0, [r3], #-0
     534:	00008119 	andeq	r8, r0, r9, lsl r1
     538:	07040300 	streq	r0, [r4, -r0, lsl #6]
     53c:	00000202 	andeq	r0, r0, r2, lsl #4
     540:	fd070803 	stc2	8, cr0, [r7, #-12]
     544:	05000001 	streq	r0, [r0, #-1]
     548:	00000025 	andeq	r0, r0, r5, lsr #32
     54c:	0000009e 	muleq	r0, lr, r0
     550:	00002506 	andeq	r2, r0, r6, lsl #10
     554:	34070000 	strcc	r0, [r7], #-0
     558:	04000002 	streq	r0, [r0], #-2
     55c:	00aa0e1c 	adceq	r0, sl, ip, lsl lr
     560:	04080000 	streq	r0, [r8], #-0
     564:	0000008f 	andeq	r0, r0, pc, lsl #1
     568:	00002505 	andeq	r2, r0, r5, lsl #10
     56c:	0000bf00 	andeq	fp, r0, r0, lsl #30
     570:	00bf0600 	adcseq	r0, pc, r0, lsl #12
     574:	08000000 	stmdaeq	r0, {}	; <UNPREDICTABLE>
     578:	0000cc04 	andeq	ip, r0, r4, lsl #24
     57c:	08010300 	stmdaeq	r1, {r8, r9}
     580:	00000085 	andeq	r0, r0, r5, lsl #1
     584:	0000c509 	andeq	ip, r0, r9, lsl #10
     588:	067e0700 	ldrbteq	r0, [lr], -r0, lsl #14
     58c:	21040000 	mrscs	r0, (UNDEF: 4)
     590:	0000dd0e 	andeq	sp, r0, lr, lsl #26
     594:	b0040800 	andlt	r0, r4, r0, lsl #16
     598:	0a000000 	beq	5a0 <__code_start__-0x7a60>
     59c:	0905050c 	stmdbeq	r5, {r2, r3, r8, sl}
     5a0:	00000114 	andeq	r0, r0, r4, lsl r1
     5a4:	0000770b 	andeq	r7, r0, fp, lsl #14
     5a8:	11070500 	tstne	r7, r0, lsl #10
     5ac:	000000bf 	strheq	r0, [r0], -pc	; <UNPREDICTABLE>
     5b0:	01dc0b00 	bicseq	r0, ip, r0, lsl #22
     5b4:	08050000 	stmdaeq	r5, {}	; <UNPREDICTABLE>
     5b8:	0000bf11 	andeq	fp, r0, r1, lsl pc
     5bc:	460b0400 	strmi	r0, [fp], -r0, lsl #8
     5c0:	05000000 	streq	r0, [r0, #-0]
     5c4:	002c0e09 	eoreq	r0, ip, r9, lsl #28
     5c8:	00080000 	andeq	r0, r8, r0
     5cc:	00024a04 	andeq	r4, r2, r4, lsl #20
     5d0:	030a0500 	movweq	r0, #42240	; 0xa500
     5d4:	000000e3 	andeq	r0, r0, r3, ror #1
     5d8:	5b01070c 	blpl	42210 <__bss_end__+0x36fe8>
     5dc:	02000000 	andeq	r0, r0, #0, 0
     5e0:	013b0e09 	teqeq	fp, r9, lsl #28
     5e4:	3b0d0000 	blcc	3405ec <__bss_end__+0x3353c4>
     5e8:	0b000003 	bleq	5fc <__code_start__-0x7a04>
     5ec:	0002960d 	andeq	r9, r2, sp, lsl #12
     5f0:	0c000c00 	stceq	12, cr0, [r0], {-0}
     5f4:	005b0107 	subseq	r0, fp, r7, lsl #2
     5f8:	0a020000 	beq	80600 <__bss_end__+0x753d8>
     5fc:	00015606 	andeq	r5, r1, r6, lsl #12
     600:	02a80d00 	adceq	r0, r8, #0, 26
     604:	0d800000 	stceq	0, cr0, [r0]
     608:	0000029c 	muleq	r0, ip, r2
     60c:	8c0e00fe 	stchi	0, cr0, [lr], {254}	; 0xfe
     610:	b8000001 	stmdalt	r0, {r0}
     614:	f3100d02 	vpadd.f16	d0, d0, d2
     618:	0b000001 	bleq	624 <__code_start__-0x79dc>
     61c:	00000013 	andeq	r0, r0, r3, lsl r0
     620:	f3140e02 	vcge.f16	d0, d4, d2
     624:	00000001 	andeq	r0, r0, r1
     628:	00004d0b 	andeq	r4, r0, fp, lsl #26
     62c:	0e0f0200 	cdpeq	2, 0, cr0, cr15, cr0, {0}
     630:	00000075 	andeq	r0, r0, r5, ror r0
     634:	006a0b04 	rsbeq	r0, sl, r4, lsl #22
     638:	10020000 	andne	r0, r2, r0
     63c:	0000750e 	andeq	r7, r0, lr, lsl #10
     640:	200b0800 	andcs	r0, fp, r0, lsl #16
     644:	02000000 	andeq	r0, r0, #0, 0
     648:	00750e11 	rsbseq	r0, r5, r1, lsl lr
     64c:	0b0c0000 	bleq	300654 <__bss_end__+0x2f542c>
     650:	000001f4 	strdeq	r0, [r0], -r4
     654:	750e1502 	strvc	r1, [lr, #-1282]	; 0xfffffafe
     658:	10000000 	andne	r0, r0, r0
     65c:	00021c0b 	andeq	r1, r2, fp, lsl #24
     660:	0f170200 	svceq	0x00170200
     664:	00000114 	andeq	r0, r0, r4, lsl r1
     668:	025d0b14 	subseq	r0, sp, #20, 22	; 0x5000
     66c:	18020000 	stmdane	r2, {}	; <UNPREDICTABLE>
     670:	0001140f 	andeq	r1, r1, pc, lsl #8
     674:	6f0b2000 	svcvs	0x000b2000
     678:	02000002 	andeq	r0, r0, #2, 0
     67c:	00750e1b 	rsbseq	r0, r5, fp, lsl lr
     680:	0b2c0000 	bleq	b00688 <__bss_end__+0xaf5460>
     684:	0000027a 	andeq	r0, r0, sl, ror r2
     688:	750e1c02 	strvc	r1, [lr, #-3074]	; 0xfffff3fe
     68c:	30000000 	andcc	r0, r0, r0
     690:	0004220b 	andeq	r2, r4, fp, lsl #4
     694:	0e1e0200 	cdpeq	2, 1, cr0, cr14, cr0, {0}
     698:	00000062 	andeq	r0, r0, r2, rrx
     69c:	7a720f34 	bvc	1c84374 <__bss_end__+0x1c7914c>
     6a0:	20020031 	andcs	r0, r2, r1, lsr r0
     6a4:	0001f90d 	andeq	pc, r1, sp, lsl #18
     6a8:	08003600 	stmdaeq	r0, {r9, sl, ip, sp}
     6ac:	00015604 	andeq	r5, r1, r4, lsl #12
     6b0:	004f1000 	subeq	r1, pc, r0
     6b4:	02090000 	andeq	r0, r9, #0, 0
     6b8:	2c110000 	ldccs	0, cr0, [r1], {-0}
     6bc:	7f000000 	svcvc	0x00000000
     6c0:	000d0400 	andeq	r0, sp, r0, lsl #8
     6c4:	21020000 	mrscs	r0, (UNDEF: 2)
     6c8:	00015603 	andeq	r5, r1, r3, lsl #12
     6cc:	07041200 	streq	r1, [r4, -r0, lsl #4]
     6d0:	00000000 	andeq	r0, r0, r0
     6d4:	2c11a902 			; <UNDEFINED> instruction: 0x2c11a902
     6d8:	13000000 	movwne	r0, #0
     6dc:	000002d5 	ldrdeq	r0, [r0], -r5
     6e0:	350f0801 	strcc	r0, [pc, #-2049]	; fffffee7 <__bss_end__+0xffff4cbf>
     6e4:	05000002 	streq	r0, [r0, #-2]
     6e8:	00adf803 	adceq	pc, sp, r3, lsl #16
     6ec:	09040800 	stmdbeq	r4, {fp}
     6f0:	07000002 	streq	r0, [r0, -r2]
     6f4:	000002f7 	strdeq	r0, [r0], -r7
     6f8:	c50d0c01 	strgt	r0, [sp, #-3073]	; 0xfffff3ff
     6fc:	14000000 	strne	r0, [r0], #-0
     700:	00000318 	andeq	r0, r0, r8, lsl r3
     704:	53120d01 	tstpl	r2, #64	; 0x40
     708:	08000002 	stmdaeq	r0, {r1}
     70c:	00002c04 	andeq	r2, r0, r4, lsl #24
     710:	00181500 	andseq	r1, r8, r0, lsl #10
     714:	8e010000 	cdphi	0, 0, cr0, cr1, cr0, {0}
     718:	00021508 	andeq	r1, r2, r8, lsl #10
     71c:	0084cc00 	addeq	ip, r4, r0, lsl #24
     720:	0000fc00 	andeq	pc, r0, r0, lsl #24
     724:	9a9c0100 	bls	fe700b2c <__bss_end__+0xfe6f5904>
     728:	16000003 	strne	r0, [r0], -r3
     72c:	00000367 	andeq	r0, r0, r7, ror #6
     730:	751a8e01 	ldrvc	r8, [sl, #-3585]	; 0xfffff1ff
     734:	fa000000 	blx	73c <__code_start__-0x78c4>
     738:	f4000000 	vst4.8	{d0-d3}, [r0], r0
     73c:	17000000 	strne	r0, [r0, -r0]
     740:	8e01006c 	cdphi	0, 0, cr0, cr1, cr12, {3}
     744:	0001142c 	andeq	r1, r1, ip, lsr #8
     748:	54910200 	ldrpl	r0, [r1], #512	; 0x200
     74c:	01006818 	tsteq	r0, r8, lsl r8
     750:	02350c90 	eorseq	r0, r5, #144, 24	; 0x9000
     754:	012c0000 			; <UNDEFINED> instruction: 0x012c0000
     758:	01260000 			; <UNDEFINED> instruction: 0x01260000
     75c:	00190000 	andseq	r0, r9, r0
     760:	2c000085 	stccs	0, cr0, [r0], {133}	; 0x85
     764:	c6000000 	strgt	r0, [r0], -r0
     768:	18000002 	stmdane	r0, {r1}
     76c:	96010069 	strls	r0, [r1], -r9, rrx
     770:	0000250e 	andeq	r2, r0, lr, lsl #10
     774:	00015c00 	andeq	r5, r1, r0, lsl #24
     778:	00015800 	andeq	r5, r1, r0, lsl #16
     77c:	78190000 	ldmdavc	r9, {}	; <UNPREDICTABLE>
     780:	24000085 	strcs	r0, [r0], #-133	; 0xffffff7b
     784:	1a000000 	bne	78c <__code_start__-0x7874>
     788:	18000003 	stmdane	r0, {r0, r1}
     78c:	a3010069 	movwge	r0, #4201	; 0x1069
     790:	0000250e 	andeq	r2, r0, lr, lsl #10
     794:	00017f00 	andeq	r7, r1, r0, lsl #30
     798:	00017b00 	andeq	r7, r1, r0, lsl #22
     79c:	85841a00 	strhi	r1, [r4, #2560]	; 0xa00
     7a0:	00100000 	andseq	r0, r0, r0
     7a4:	6c180000 	ldcvs	0, cr0, [r8], {-0}
     7a8:	0100636f 	tsteq	r0, pc, ror #6
     7ac:	039a11a5 	orrseq	r1, sl, #1073741865	; 0x40000029
     7b0:	01a00000 	moveq	r0, r0
     7b4:	019e0000 	orrseq	r0, lr, r0
     7b8:	901b0000 	andsls	r0, fp, r0
     7bc:	a0000085 	andge	r0, r0, r5, lsl #1
     7c0:	1c000003 	stcne	0, cr0, [r0], {3}
     7c4:	74085001 	strvc	r5, [r8], #-1
     7c8:	22007600 	andcs	r7, r0, #0, 12
     7cc:	0001b823 	andeq	fp, r1, r3, lsr #16
     7d0:	f01d0000 			; <UNDEFINED> instruction: 0xf01d0000
     7d4:	b5000084 	strlt	r0, [r0, #-132]	; 0xffffff7c
     7d8:	2f000007 	svccs	0x00000007
     7dc:	1c000003 	stcne	0, cr0, [r0], {3}
     7e0:	75035001 	strvc	r5, [r3, #-1]
     7e4:	1d0002b8 	sfmne	f0, 4, [r0, #-736]	; 0xfffffd20
     7e8:	00008500 	andeq	r8, r0, r0, lsl #10
     7ec:	000007c1 	andeq	r0, r0, r1, asr #15
     7f0:	0000034e 	andeq	r0, r0, lr, asr #6
     7f4:	0250011c 	subseq	r0, r0, #7
     7f8:	011c0074 	tsteq	ip, r4, ror r0
     7fc:	1c300151 	ldfnes	f0, [r0], #-324	; 0xfffffebc
     800:	08025201 	stmdaeq	r2, {r0, r9, ip, lr}
     804:	641d00b8 	ldrvs	r0, [sp], #-184	; 0xffffff48
     808:	cd000085 	stcgt	0, cr0, [r0, #-532]	; 0xfffffdec
     80c:	7a000007 	bvc	830 <__code_start__-0x77d0>
     810:	1c000003 	stcne	0, cr0, [r0], {3}
     814:	03055001 	movweq	r5, #20481	; 0x5001
     818:	0000a640 	andeq	sl, r0, r0, asr #12
     81c:	0351011c 	cmpeq	r1, #7
     820:	1c06587b 	stcne	8, cr5, [r6], {123}	; 0x7b
     824:	7b035201 	blvc	d5030 <__bss_end__+0xc9e08>
     828:	011c065c 	tsteq	ip, ip, asr r6
     82c:	607b0353 	rsbsvs	r0, fp, r3, asr r3
     830:	781b0006 	ldmdavc	fp, {r1, r2}
     834:	cd000085 	stcgt	0, cr0, [r0, #-532]	; 0xfffffdec
     838:	1c000007 	stcne	0, cr0, [r0], {7}
     83c:	03055001 	movweq	r5, #20481	; 0x5001
     840:	0000a6d4 	ldrdeq	sl, [r0], -r4
     844:	0251011c 	subseq	r0, r1, #7
     848:	011c0077 	tsteq	ip, r7, ror r0
     84c:	00750252 	rsbseq	r0, r5, r2, asr r2
     850:	04080000 	streq	r0, [r8], #-0
     854:	00000235 	andeq	r0, r0, r5, lsr r2
     858:	0002e715 	andeq	lr, r2, r5, lsl r7
     85c:	09820100 	stmibeq	r2, {r8}
     860:	0000039a 	muleq	r0, sl, r3
     864:	0000847c 	andeq	r8, r0, ip, ror r4
     868:	00000044 	andeq	r0, r0, r4, asr #32
     86c:	03cf9c01 	biceq	r9, pc, #256	; 0x100
     870:	50160000 	andspl	r0, r6, r0
     874:	01000003 	tsteq	r0, r3
     878:	03cf1f82 	biceq	r1, pc, #520	; 0x208
     87c:	01bf0000 			; <UNDEFINED> instruction: 0x01bf0000
     880:	01b30000 			; <UNDEFINED> instruction: 0x01b30000
     884:	08000000 	stmdaeq	r0, {}	; <UNPREDICTABLE>
     888:	0000c504 	andeq	ip, r0, r4, lsl #10
     88c:	02c41e00 	sbceq	r1, r4, #0, 28
     890:	62010000 	andvs	r0, r1, #0, 0
     894:	00830c06 	addeq	r0, r3, r6, lsl #24
     898:	00015c00 	andeq	r5, r1, r0, lsl #24
     89c:	979c0100 	ldrls	r0, [ip, r0, lsl #2]
     8a0:	16000005 	strne	r0, [r0], -r5
     8a4:	000005d9 	ldrdeq	r0, [r0], -r9
     8a8:	15146201 	ldrne	r6, [r4, #-513]	; 0xfffffdff
     8ac:	1a000002 	bne	8bc <__code_start__-0x7744>
     8b0:	12000002 	andne	r0, r0, #2, 0
     8b4:	17000002 	strne	r0, [r0, -r2]
     8b8:	6201006c 	andvs	r0, r1, #108, 0	; 0x6c
     8bc:	00011424 	andeq	r1, r1, r4, lsr #8
     8c0:	54910200 	ldrpl	r0, [r1], #512	; 0x200
     8c4:	01006818 	tsteq	r0, r8, lsl r8
     8c8:	02350c64 	eorseq	r0, r5, #100, 24	; 0x6400
     8cc:	025c0000 	subseq	r0, ip, #0, 0
     8d0:	02540000 	subseq	r0, r4, #0, 0
     8d4:	001f0000 	andseq	r0, pc, r0
     8d8:	de000000 	cdple	0, 0, cr0, cr0, cr0, {0}
     8dc:	18000004 	stmdane	r0, {r2}
     8e0:	6c010069 	stcvs	0, cr0, [r1], {105}	; 0x69
     8e4:	0000250e 	andeq	r2, r0, lr, lsl #10
     8e8:	0002a300 	andeq	sl, r2, r0, lsl #6
     8ec:	00029b00 	andeq	r9, r2, r0, lsl #22
     8f0:	83d02000 	bicshi	r2, r0, #0, 0
     8f4:	07d90000 	ldrbeq	r0, [r9, r0]
     8f8:	e41d0000 	ldr	r0, [sp], #-0
     8fc:	cd000083 	stcgt	0, cr0, [r0, #-524]	; 0xfffffdf4
     900:	6b000007 	blvs	924 <__code_start__-0x76dc>
     904:	1c000004 	stcne	0, cr0, [r0], {4}
     908:	03055001 	movweq	r5, #20481	; 0x5001
     90c:	0000a65c 	andeq	sl, r0, ip, asr r6
     910:	0251011c 	subseq	r0, r1, #7
     914:	011c0075 	tsteq	ip, r5, ror r0
     918:	00760252 	rsbseq	r0, r6, r2, asr r2
     91c:	0253011c 	subseq	r0, r3, #7
     920:	1d000077 	stcne	0, cr0, [r0, #-476]	; 0xfffffe24
     924:	000083ec 	andeq	r8, r0, ip, ror #7
     928:	000007cd 	andeq	r0, r0, sp, asr #15
     92c:	00000482 	andeq	r0, r0, r2, lsl #9
     930:	0550011c 	ldrbeq	r0, [r0, #-284]	; 0xfffffee4
     934:	00a69c03 	adceq	r9, r6, r3, lsl #24
     938:	f0200000 			; <UNDEFINED> instruction: 0xf0200000
     93c:	e5000083 	str	r0, [r0, #-131]	; 0xffffff7d
     940:	20000007 	andcs	r0, r0, r7
     944:	000083f4 	strdeq	r8, [r0], -r4
     948:	000007d9 	ldrdeq	r0, [r0], -r9
     94c:	0084081d 	addeq	r0, r4, sp, lsl r8
     950:	0007cd00 	andeq	ip, r7, r0, lsl #26
     954:	0004bd00 	andeq	fp, r4, r0, lsl #26
     958:	50011c00 	andpl	r1, r1, r0, lsl #24
     95c:	a65c0305 	ldrbge	r0, [ip], -r5, lsl #6
     960:	011c0000 	tsteq	ip, r0
     964:	00750251 	rsbseq	r0, r5, r1, asr r2
     968:	0252011c 	subseq	r0, r2, #7
     96c:	011c0076 	tsteq	ip, r6, ror r0
     970:	00770253 	rsbseq	r0, r7, r3, asr r2
     974:	84101d00 	ldrhi	r1, [r0], #-3328	; 0xfffff300
     978:	07cd0000 	strbeq	r0, [sp, r0]
     97c:	04d40000 	ldrbeq	r0, [r4], #0
     980:	011c0000 	tsteq	ip, r0
     984:	b8030550 	stmdalt	r3, {r4, r6, r8, sl}
     988:	000000a6 	andeq	r0, r0, r6, lsr #1
     98c:	00841420 	addeq	r1, r4, r0, lsr #8
     990:	0007e500 	andeq	lr, r7, r0, lsl #10
     994:	14190000 	ldrne	r0, [r9], #-0
     998:	1c000084 	stcne	0, cr0, [r0], {132}	; 0x84
     99c:	fe000000 	cdp2	0, 0, cr0, cr0, cr0, {0}
     9a0:	18000004 	stmdane	r0, {r2}
     9a4:	79010069 	stmdbvc	r1, {r0, r3, r5, r6}
     9a8:	0000250e 	andeq	r2, r0, lr, lsl #10
     9ac:	0002d900 	andeq	sp, r2, r0, lsl #18
     9b0:	0002d700 	andeq	sp, r2, r0, lsl #14
     9b4:	541d0000 	ldrpl	r0, [sp], #-0
     9b8:	cd000083 	stcgt	0, cr0, [r0, #-524]	; 0xfffffdf4
     9bc:	27000007 	strcs	r0, [r0, -r7]
     9c0:	1c000005 	stcne	0, cr0, [r0], {5}
     9c4:	03055001 	movweq	r5, #20481	; 0x5001
     9c8:	0000a640 	andeq	sl, r0, r0, asr #12
     9cc:	0251011c 	subseq	r0, r1, #7
     9d0:	011c0075 	tsteq	ip, r5, ror r0
     9d4:	00760252 	rsbseq	r0, r6, r2, asr r2
     9d8:	0253011c 	subseq	r0, r3, #7
     9dc:	1d000077 	stcne	0, cr0, [r0, #-476]	; 0xfffffe24
     9e0:	00008360 	andeq	r8, r0, r0, ror #6
     9e4:	000007cd 	andeq	r0, r0, sp, asr #15
     9e8:	00000544 	andeq	r0, r0, r4, asr #10
     9ec:	0550011c 	ldrbeq	r0, [r0, #-284]	; 0xfffffee4
     9f0:	00a64c03 	adceq	r4, r6, r3, lsl #24
     9f4:	51011c00 	tstpl	r1, r0, lsl #24
     9f8:	00007402 	andeq	r7, r0, r2, lsl #8
     9fc:	0083a820 	addeq	sl, r3, r0, lsr #16
     a00:	0007d900 	andeq	sp, r7, r0, lsl #18
     a04:	83bc1d00 			; <UNDEFINED> instruction: 0x83bc1d00
     a08:	07cd0000 	strbeq	r0, [sp, r0]
     a0c:	05760000 	ldrbeq	r0, [r6, #-0]!
     a10:	011c0000 	tsteq	ip, r0
     a14:	5c030550 	cfstr32pl	mvfx0, [r3], {80}	; 0x50
     a18:	1c0000a6 	stcne	0, cr0, [r0], {166}	; 0xa6
     a1c:	75025101 	strvc	r5, [r2, #-257]	; 0xfffffeff
     a20:	52011c00 	andpl	r1, r1, #0, 24
     a24:	1c007602 	stcne	6, cr7, [r0], {2}
     a28:	77025301 	strvc	r5, [r2, -r1, lsl #6]
     a2c:	c81d0000 	ldmdagt	sp, {}	; <UNPREDICTABLE>
     a30:	cd000083 	stcgt	0, cr0, [r0, #-524]	; 0xfffffdf4
     a34:	8d000007 	stchi	0, cr0, [r0, #-28]	; 0xffffffe4
     a38:	1c000005 	stcne	0, cr0, [r0], {5}
     a3c:	03055001 	movweq	r5, #20481	; 0x5001
     a40:	0000a674 	andeq	sl, r0, r4, ror r6
     a44:	83cc2000 	bichi	r2, ip, #0, 0
     a48:	07e50000 	strbeq	r0, [r5, r0]!
     a4c:	15000000 	strne	r0, [r0, #-0]
     a50:	00000306 	andeq	r0, r0, r6, lsl #6
     a54:	35083001 	strcc	r3, [r8, #-1]
     a58:	a0000002 	andge	r0, r0, r2
     a5c:	60000082 	andvs	r0, r0, r2, lsl #1
     a60:	01000000 	mrseq	r0, (UNDEF: 0)
     a64:	0006389c 	muleq	r6, ip, r8
     a68:	74702100 	ldrbtvc	r2, [r0], #-256	; 0xffffff00
     a6c:	30010072 	andcc	r0, r1, r2, ror r0
     a70:	00021520 	andeq	r1, r2, r0, lsr #10
     a74:	0002f000 	andeq	pc, r2, r0
     a78:	0002ec00 	andeq	lr, r2, r0, lsl #24
     a7c:	82b01a00 	adcshi	r1, r0, #0, 20
     a80:	00440000 	subeq	r0, r4, r0
     a84:	68180000 	ldmdavs	r8, {}	; <UNPREDICTABLE>
     a88:	113d0100 	teqne	sp, r0, lsl #2
     a8c:	00000235 	andeq	r0, r0, r5, lsr r2
     a90:	00000316 	andeq	r0, r0, r6, lsl r3
     a94:	0000030e 	andeq	r0, r0, lr, lsl #6
     a98:	0082b420 	addeq	fp, r2, r0, lsr #8
     a9c:	00078300 	andeq	r8, r7, r0, lsl #6
     aa0:	82cc1d00 	sbchi	r1, ip, #0, 26
     aa4:	06380000 	ldrteq	r0, [r8], -r0
     aa8:	06030000 	streq	r0, [r3], -r0
     aac:	011c0000 	tsteq	ip, r0
     ab0:	00740250 	rsbseq	r0, r4, r0, asr r2
     ab4:	0251011c 	subseq	r0, r1, #7
     ab8:	1d000075 	stcne	0, cr0, [r0, #-468]	; 0xfffffe2c
     abc:	000082dc 	ldrdeq	r8, [r0], -ip
     ac0:	00000756 	andeq	r0, r0, r6, asr r7
     ac4:	00000617 	andeq	r0, r0, r7, lsl r6
     ac8:	0250011c 	subseq	r0, r0, #7
     acc:	1b000074 	blne	ca4 <__code_start__-0x735c>
     ad0:	000082f4 	strdeq	r8, [r0], -r4
     ad4:	000007cd 	andeq	r0, r0, sp, asr #15
     ad8:	0550011c 	ldrbeq	r0, [r0, #-284]	; 0xfffffee4
     adc:	00a63003 	adceq	r3, r6, r3
     ae0:	51011c00 	tstpl	r1, r0, lsl #24
     ae4:	1c007502 	cfstr32ne	mvfx7, [r0], {2}
     ae8:	74025201 	strvc	r5, [r2], #-513	; 0xfffffdff
     aec:	00000000 	andeq	r0, r0, r0
     af0:	00028615 	andeq	r8, r2, r5, lsl r6
     af4:	0a290100 	beq	a40efc <__bss_end__+0xa35cd4>
     af8:	0000002c 	andeq	r0, r0, ip, lsr #32
     afc:	00008250 	andeq	r8, r0, r0, asr r2
     b00:	00000038 	andeq	r0, r0, r8, lsr r0
     b04:	06c59c01 	strbeq	r9, [r5], r1, lsl #24
     b08:	68210000 	stmdavs	r1!, {}	; <UNPREDICTABLE>
     b0c:	21290100 			; <UNDEFINED> instruction: 0x21290100
     b10:	00000235 	andeq	r0, r0, r5, lsr r2
     b14:	0000034e 	andeq	r0, r0, lr, asr #6
     b18:	0000034a 	andeq	r0, r0, sl, asr #6
     b1c:	72747021 	rsbsvc	r7, r4, #33, 0	; 0x21
     b20:	2a290100 	bcs	a40f28 <__bss_end__+0xa35d00>
     b24:	00000215 	andeq	r0, r0, r5, lsl r2
     b28:	00000370 	andeq	r0, r0, r0, ror r3
     b2c:	0000036c 	andeq	r0, r0, ip, ror #6
     b30:	6e696d18 	mcrvs	13, 3, r6, cr9, cr8, {0}
     b34:	0b2b0100 	bleq	ac0f3c <__bss_end__+0xab5d14>
     b38:	00000215 	andeq	r0, r0, r5, lsl r2
     b3c:	00000392 	muleq	r0, r2, r3
     b40:	0000038e 	andeq	r0, r0, lr, lsl #7
     b44:	78616d18 	stmdavc	r1!, {r3, r4, r8, sl, fp, sp, lr}^
     b48:	0b2c0100 	bleq	b00f50 <__bss_end__+0xaf5d28>
     b4c:	00000215 	andeq	r0, r0, r5, lsl r2
     b50:	000003b2 			; <UNDEFINED> instruction: 0x000003b2
     b54:	000003b0 			; <UNDEFINED> instruction: 0x000003b0
     b58:	0082681d 	addeq	r6, r2, sp, lsl r8
     b5c:	00072900 	andeq	r2, r7, r0, lsl #18
     b60:	0006b400 	andeq	fp, r6, r0, lsl #8
     b64:	50011c00 	andpl	r1, r1, r0, lsl #24
     b68:	00007602 	andeq	r7, r0, r2, lsl #12
     b6c:	0082741b 	addeq	r7, r2, fp, lsl r4
     b70:	0006c500 	andeq	ip, r6, r0, lsl #10
     b74:	50011c00 	andpl	r1, r1, r0, lsl #24
     b78:	00007602 	andeq	r7, r0, r2, lsl #12
     b7c:	03591500 	cmpeq	r9, #0, 10
     b80:	23010000 	movwcs	r0, #4096	; 0x1000
     b84:	00021507 	andeq	r1, r2, r7, lsl #10
     b88:	00821c00 	addeq	r1, r2, r0, lsl #24
     b8c:	00002000 	andeq	r2, r0, r0
     b90:	299c0100 	ldmibcs	ip, {r8}
     b94:	21000007 	tstcs	r0, r7
     b98:	23010068 	movwcs	r0, #4200	; 0x1068
     b9c:	00023519 	andeq	r3, r2, r9, lsl r5
     ba0:	0003c900 	andeq	ip, r3, r0, lsl #18
     ba4:	0003c500 	andeq	ip, r3, r0, lsl #10
     ba8:	07992200 	ldreq	r2, [r9, r0, lsl #4]
     bac:	82300000 	eorshi	r0, r0, #0, 0
     bb0:	30000000 	andcc	r0, r0, r0
     bb4:	04000082 	streq	r0, [r0], #-130	; 0xffffff7e
     bb8:	01000000 	mrseq	r0, (UNDEF: 0)
     bbc:	07182625 	ldreq	r2, [r8, -r5, lsr #12]
     bc0:	aa230000 	bge	8c0bc8 <__bss_end__+0x8b59a0>
     bc4:	e9000007 	stmdb	r0, {r0, r1, r2}
     bc8:	e7000003 	str	r0, [r0, -r3]
     bcc:	00000003 	andeq	r0, r0, r3
     bd0:	0082301b 	addeq	r3, r2, fp, lsl r0
     bd4:	00072900 	andeq	r2, r7, r0, lsl #18
     bd8:	50011c00 	andpl	r1, r1, r0, lsl #24
     bdc:	00007402 	andeq	r7, r0, r2, lsl #8
     be0:	03431500 	movteq	r1, #13568	; 0x3500
     be4:	1d010000 	stcne	0, cr0, [r1, #-0]
     be8:	00021507 	andeq	r1, r2, r7, lsl #10
     bec:	0081f800 	addeq	pc, r1, r0, lsl #16
     bf0:	00001400 	andeq	r1, r0, r0, lsl #8
     bf4:	569c0100 	ldrpl	r0, [ip], r0, lsl #2
     bf8:	21000007 	tstcs	r0, r7
     bfc:	1d010068 	stcne	0, cr0, [r1, #-416]	; 0xfffffe60
     c00:	0002351b 	andeq	r3, r2, fp, lsl r5
     c04:	00040000 	andeq	r0, r4, r0
     c08:	0003fc00 	andeq	pc, r3, r0, lsl #24
     c0c:	25150000 	ldrcs	r0, [r5, #-0]
     c10:	01000003 	tsteq	r0, r3
     c14:	02350816 	eorseq	r0, r5, #1441792	; 0x160000
     c18:	81c80000 	bichi	r0, r8, r0
     c1c:	001c0000 	andseq	r0, ip, r0
     c20:	9c010000 	stcls	0, cr0, [r1], {-0}
     c24:	00000783 	andeq	r0, r0, r3, lsl #15
     c28:	01007021 	tsteq	r0, r1, lsr #32
     c2c:	02351b16 	eorseq	r1, r5, #22528	; 0x5800
     c30:	04250000 	strteq	r0, [r5], #-0
     c34:	04210000 	strteq	r0, [r1], #-0
     c38:	24000000 	strcs	r0, [r0], #-0
     c3c:	000002b7 			; <UNDEFINED> instruction: 0x000002b7
     c40:	35081001 	strcc	r1, [r8, #-1]
     c44:	9c000002 	stcls	0, cr0, [r0], {2}
     c48:	1c000081 	stcne	0, cr0, [r0], {129}	; 0x81
     c4c:	01000000 	mrseq	r0, (UNDEF: 0)
     c50:	0364259c 	cmneq	r4, #156, 10	; 0x27000000
     c54:	32020000 	andcc	r0, r2, #0, 0
     c58:	00002c18 	andeq	r2, r0, r8, lsl ip
     c5c:	07b50300 	ldreq	r0, [r5, r0, lsl #6]!
     c60:	68260000 	stmdavs	r6!, {}	; <UNPREDICTABLE>
     c64:	29320200 	ldmdbcs	r2!, {r9}
     c68:	00000235 	andeq	r0, r0, r5, lsr r2
     c6c:	036e2700 	cmneq	lr, #0, 14
     c70:	036e0000 	cmneq	lr, #0, 0
     c74:	1e060000 	cdpne	0, 0, cr0, cr6, cr0, {0}
     c78:	02e02707 	rsceq	r2, r0, #1835008	; 0x1c0000
     c7c:	02e00000 	rsceq	r0, r0, #0, 0
     c80:	f2040000 	vhadd.s8	d0, d4, d0
     c84:	06402707 	strbeq	r2, [r0], -r7, lsl #14
     c88:	06400000 	strbeq	r0, [r0], -r0
     c8c:	28040000 	stmdacs	r4, {}	; <UNPREDICTABLE>
     c90:	02cb2706 	sbceq	r2, fp, #1572864	; 0x180000
     c94:	02cb0000 	sbceq	r0, fp, #0, 0
     c98:	04070000 	streq	r0, [r7], #-0
     c9c:	008a2705 	addeq	r2, sl, r5, lsl #14
     ca0:	008a0000 	addeq	r0, sl, r0
     ca4:	6e040000 	cdpvs	0, 0, cr0, cr4, cr0, {0}
     ca8:	02ec0006 	rsceq	r0, ip, #6, 0
     cac:	00040000 	andeq	r0, r4, r0
     cb0:	00000434 	andeq	r0, r0, r4, lsr r4
     cb4:	00aa0104 	adceq	r0, sl, r4, lsl #2
     cb8:	a00c0000 	andge	r0, ip, r0
     cbc:	9e000003 	cdpls	0, 0, cr0, cr0, cr3, {0}
     cc0:	c8000001 	stmdagt	r0, {r0}
     cc4:	00000085 	andeq	r0, r0, r5, lsl #1
     cc8:	58000002 	stmdapl	r0, {r1}
     ccc:	02000005 	andeq	r0, r0, #5, 0
     cd0:	6e690504 	cdpvs	5, 6, cr0, cr9, cr4, {0}
     cd4:	04030074 	streq	r0, [r3], #-116	; 0xffffff8c
     cd8:	00020707 	andeq	r0, r2, r7, lsl #14
     cdc:	06010300 	streq	r0, [r1], -r0, lsl #6
     ce0:	0000007e 	andeq	r0, r0, lr, ror r0
     ce4:	40050203 	andmi	r0, r5, r3, lsl #4
     ce8:	03000002 	movweq	r0, #2
     cec:	022b0504 	eoreq	r0, fp, #4, 10	; 0x1000000
     cf0:	08030000 	stmdaeq	r3, {}	; <UNPREDICTABLE>
     cf4:	00022605 	andeq	r2, r2, r5, lsl #12
     cf8:	08010300 	stmdaeq	r1, {r8, r9}
     cfc:	0000007c 	andeq	r0, r0, ip, ror r0
     d00:	97070203 	strls	r0, [r7, -r3, lsl #4]
     d04:	03000000 	movweq	r0, #0
     d08:	02020704 	andeq	r0, r2, #4, 14	; 0x100000
     d0c:	08030000 	stmdaeq	r3, {}	; <UNPREDICTABLE>
     d10:	0001fd07 	andeq	pc, r1, r7, lsl #26
     d14:	00250400 	eoreq	r0, r5, r0, lsl #8
     d18:	007a0000 	rsbseq	r0, sl, r0
     d1c:	25050000 	strcs	r0, [r5, #-0]
     d20:	00000000 	andeq	r0, r0, r0
     d24:	00023406 	andeq	r3, r2, r6, lsl #8
     d28:	0e1c0200 	cdpeq	2, 1, cr0, cr12, cr0, {0}
     d2c:	00000086 	andeq	r0, r0, r6, lsl #1
     d30:	006b0407 	rsbeq	r0, fp, r7, lsl #8
     d34:	25040000 	strcs	r0, [r4, #-0]
     d38:	9b000000 	blls	d40 <__code_start__-0x72c0>
     d3c:	05000000 	streq	r0, [r0, #-0]
     d40:	0000009b 	muleq	r0, fp, r0
     d44:	a8040700 	stmdage	r4, {r8, r9, sl}
     d48:	03000000 	movweq	r0, #0
     d4c:	00850801 	addeq	r0, r5, r1, lsl #16
     d50:	a1080000 	mrsge	r0, (UNDEF: 8)
     d54:	06000000 	streq	r0, [r0], -r0
     d58:	0000067e 	andeq	r0, r0, lr, ror r6
     d5c:	b90e2102 	stmdblt	lr, {r1, r8, sp}
     d60:	07000000 	streq	r0, [r0, -r0]
     d64:	00008c04 	andeq	r8, r0, r4, lsl #24
     d68:	03850900 	orreq	r0, r5, #0, 18
     d6c:	01080000 	mrseq	r0, (UNDEF: 8)
     d70:	00ec0705 	rsceq	r0, ip, r5, lsl #14
     d74:	640a0000 	strvs	r0, [sl], #-0
     d78:	09070100 	stmdbeq	r7, {r8}
     d7c:	000000ec 	andeq	r0, r0, ip, ror #1
     d80:	0100700a 	tsteq	r0, sl
     d84:	00f30808 	rscseq	r0, r3, r8, lsl #16
     d88:	660a0000 	strvs	r0, [sl], -r0
     d8c:	09010070 	stmdbeq	r1, {r4, r5, r6}
     d90:	0000f609 	andeq	pc, r0, r9, lsl #12
     d94:	08030000 	stmdaeq	r3, {}	; <UNPREDICTABLE>
     d98:	0003ac04 	andeq	sl, r3, r4, lsl #24
     d9c:	0c040b00 			; <UNDEFINED> instruction: 0x0c040b00
     da0:	00f50407 	rscseq	r0, r5, r7, lsl #8
     da4:	080d0000 	stmdaeq	sp, {}	; <UNPREDICTABLE>
     da8:	20020e01 	andcs	r0, r2, r1, lsl #28
     dac:	0e000001 	cdpeq	0, 0, cr0, cr0, cr1, {0}
     db0:	00727470 	rsbseq	r7, r2, r0, ror r4
     db4:	42111001 	andsmi	r1, r1, #1, 0
     db8:	00000001 	andeq	r0, r0, r1
     dbc:	0003c60f 	andeq	ip, r3, pc, lsl #12
     dc0:	0c110100 	ldfeqs	f0, [r1], {-0}
     dc4:	0000002c 	andeq	r0, r0, ip, lsr #32
     dc8:	78090004 	stmdavc	r9, {r2}
     dcc:	08000003 	stmdaeq	r0, {r0, r1}
     dd0:	420f0c01 	andmi	r0, pc, #256	; 0x100
     dd4:	0a000001 	beq	de0 <__code_start__-0x7220>
     dd8:	12010073 	andne	r0, r1, #115, 0	; 0x73
     ddc:	0000fc04 	andeq	pc, r0, r4, lsl #24
     de0:	00780a00 	rsbseq	r0, r8, r0, lsl #20
     de4:	bf0e1301 	svclt	0x000e1301
     de8:	00000000 	andeq	r0, r0, r0
     dec:	01200407 			; <UNDEFINED> instruction: 0x01200407
     df0:	cb100000 	blgt	400df8 <__bss_end__+0x3f5bd0>
     df4:	01000003 	tsteq	r0, r3
     df8:	01200314 			; <UNDEFINED> instruction: 0x01200314
     dfc:	b3110000 	tstlt	r1, #0, 0
     e00:	01000003 	tsteq	r0, r3
     e04:	01480f18 	cmpeq	r8, r8, lsl pc
     e08:	03050000 	movweq	r0, #20480	; 0x5000
     e0c:	0000ae08 	andeq	sl, r0, r8, lsl #28
     e10:	00039311 	andeq	r9, r3, r1, lsl r3
     e14:	10190100 	andsne	r0, r9, r0, lsl #2
     e18:	00000178 	andeq	r0, r0, r8, ror r1
     e1c:	ae000305 	cdpge	3, 0, cr0, cr0, cr5, {0}
     e20:	04070000 	streq	r0, [r7], #-0
     e24:	00000148 	andeq	r0, r0, r8, asr #2
     e28:	00038b12 	andeq	r8, r3, r2, lsl fp
     e2c:	06530100 	ldrbeq	r0, [r3], -r0, lsl #2
     e30:	000085d4 	ldrdeq	r8, [r0], -r4
     e34:	000000c4 	andeq	r0, r0, r4, asr #1
     e38:	01c79c01 	biceq	r9, r7, r1, lsl #24
     e3c:	61130000 	tstvs	r3, r0
     e40:	53010070 	movwpl	r0, #4208	; 0x1070
     e44:	0000f314 	andeq	pc, r0, r4, lsl r3	; <UNPREDICTABLE>
     e48:	14500100 	ldrbne	r0, [r0], #-256	; 0xffffff00
     e4c:	01007062 	tsteq	r0, r2, rrx
     e50:	01780a55 	cmneq	r8, r5, asr sl
     e54:	044e0000 	strbeq	r0, [lr], #-0
     e58:	04460000 	strbeq	r0, [r6], #-0
     e5c:	70140000 	andsvc	r0, r4, r0
     e60:	0f550100 	svceq	0x00550100
     e64:	00000178 	andeq	r0, r0, r8, ror r1
     e68:	0000048a 	andeq	r0, r0, sl, lsl #9
     e6c:	00000486 	andeq	r0, r0, r6, lsl #9
     e70:	036e1500 	cmneq	lr, #0, 10
     e74:	2b010000 	blcs	40e7c <__bss_end__+0x35c54>
     e78:	0000f307 	andeq	pc, r0, r7, lsl #6
     e7c:	00871400 	addeq	r1, r7, r0, lsl #8
     e80:	0000b400 	andeq	fp, r0, r0, lsl #8
     e84:	419c0100 	orrsmi	r0, ip, r0, lsl #2
     e88:	16000002 	strne	r0, [r0], -r2
     e8c:	00000367 	andeq	r0, r0, r7, ror #6
     e90:	2c1a2b01 			; <UNDEFINED> instruction: 0x2c1a2b01
     e94:	b0000000 	andlt	r0, r0, r0
     e98:	a8000004 	stmdage	r0, {r2}
     e9c:	14000004 	strne	r0, [r0], #-4
     ea0:	2d010070 	stccs	0, cr0, [r1, #-448]	; 0xfffffe40
     ea4:	0001780a 	andeq	r7, r1, sl, lsl #16
     ea8:	0004f800 	andeq	pc, r4, r0, lsl #16
     eac:	0004ea00 	andeq	lr, r4, r0, lsl #20
     eb0:	037f1700 	cmneq	pc, #0, 14
     eb4:	2d010000 	stccs	0, cr0, [r1, #-0]
     eb8:	0001780e 	andeq	r7, r1, lr, lsl #16
     ebc:	00055a00 	andeq	r5, r5, r0, lsl #20
     ec0:	00055000 	andeq	r5, r5, r0
     ec4:	03991700 	orrseq	r1, r9, #0, 14
     ec8:	2e010000 	cdpcs	0, 0, cr0, cr1, cr0, {0}
     ecc:	00002c0b 	andeq	r2, r0, fp, lsl #24
     ed0:	0005a000 	andeq	sl, r5, r0
     ed4:	00059e00 	andeq	r9, r5, r0, lsl #28
     ed8:	87b81800 	ldrhi	r1, [r8, r0, lsl #16]!
     edc:	02410000 	subeq	r0, r1, #0, 0
     ee0:	01190000 	tsteq	r9, r0
     ee4:	000a0350 	andeq	r0, sl, r0, asr r3
     ee8:	1a000080 	bne	10f0 <__code_start__-0x6f10>
     eec:	000003bd 			; <UNDEFINED> instruction: 0x000003bd
     ef0:	78101c01 	ldmdavc	r0, {r0, sl, fp, ip}
     ef4:	a8000001 	stmdage	r0, {r0}
     ef8:	5c000086 	stcpl	0, cr0, [r0], {134}	; 0x86
     efc:	01000000 	mrseq	r0, (UNDEF: 0)
     f00:	0002d19c 	muleq	r2, ip, r1
     f04:	756e1b00 	strbvc	r1, [lr, #-2816]!	; 0xfffff500
     f08:	221c0100 	andscs	r0, ip, #0
     f0c:	0000002c 	andeq	r0, r0, ip, lsr #32
     f10:	000005b7 			; <UNDEFINED> instruction: 0x000005b7
     f14:	000005b3 			; <UNDEFINED> instruction: 0x000005b3
     f18:	00706314 	rsbseq	r6, r0, r4, lsl r3
     f1c:	d1082101 	tstle	r8, r1, lsl #2
     f20:	db000002 	blle	f30 <__code_start__-0x70d0>
     f24:	d5000005 	strle	r0, [r0, #-5]
     f28:	14000005 	strne	r0, [r0], #-5
     f2c:	01007075 	tsteq	r0, r5, ror r0
     f30:	01780a24 	cmneq	r8, r4, lsr #20
     f34:	060a0000 	streq	r0, [sl], -r0
     f38:	06060000 	streq	r0, [r6], -r0
     f3c:	cc1c0000 	ldcgt	0, cr0, [ip], {-0}
     f40:	d7000086 	strle	r0, [r0, -r6, lsl #1]
     f44:	b1000002 	tstlt	r0, r2
     f48:	19000002 	stmdbne	r0, {r1}
     f4c:	03055001 	movweq	r5, #20481	; 0x5001
     f50:	0000a6f0 	strdeq	sl, [r0], -r0
     f54:	02510119 	subseq	r0, r1, #1073741830	; 0x40000006
     f58:	1c000074 	stcne	0, cr0, [r0], {116}	; 0x74
     f5c:	000086d4 	ldrdeq	r8, [r0], -r4
     f60:	000002e3 	andeq	r0, r0, r3, ror #5
     f64:	000002c7 	andeq	r0, r0, r7, asr #5
     f68:	04500119 	ldrbeq	r0, [r0], #-281	; 0xfffffee7
     f6c:	24330074 	ldrtcs	r0, [r3], #-116	; 0xffffff8c
     f70:	86e81d00 	strbthi	r1, [r8], r0, lsl #26
     f74:	017e0000 	cmneq	lr, r0
     f78:	07000000 	streq	r0, [r0, -r0]
     f7c:	0000a104 	andeq	sl, r0, r4, lsl #2
     f80:	06401e00 	strbeq	r1, [r0], -r0, lsl #28
     f84:	06400000 	strbeq	r0, [r0], -r0
     f88:	28020000 	stmdacs	r2, {}	; <UNPREDICTABLE>
     f8c:	03b81e06 			; <UNDEFINED> instruction: 0x03b81e06
     f90:	03b80000 			; <UNDEFINED> instruction: 0x03b80000
     f94:	1a030000 	bne	c0f9c <__bss_end__+0xb5d74>
     f98:	0cbe000b 	ldceq	0, cr0, [lr], #44	; 0x2c
     f9c:	00040000 	andeq	r0, r4, r0
     fa0:	0000060b 	andeq	r0, r0, fp, lsl #12
     fa4:	00aa0104 	adceq	r0, sl, r4, lsl #2
     fa8:	8c0c0000 	stchi	0, cr0, [ip], {-0}
     fac:	9e000004 	cdpls	0, 0, cr0, cr0, cr4, {0}
     fb0:	c8000001 	stmdagt	r0, {r0}
     fb4:	a8000087 	stmdage	r0, {r0, r1, r2, r7}
     fb8:	84000006 	strhi	r0, [r0], #-6
     fbc:	02000007 	andeq	r0, r0, #7, 0
     fc0:	6e690504 	cdpvs	5, 6, cr0, cr9, cr4, {0}
     fc4:	04030074 	streq	r0, [r3], #-116	; 0xffffff8c
     fc8:	00020707 	andeq	r0, r2, r7, lsl #14
     fcc:	06010300 	streq	r0, [r1], -r0, lsl #6
     fd0:	0000007e 	andeq	r0, r0, lr, ror r0
     fd4:	40050203 	andmi	r0, r5, r3, lsl #4
     fd8:	03000002 	movweq	r0, #2
     fdc:	022b0504 	eoreq	r0, fp, #4, 10	; 0x1000000
     fe0:	08030000 	stmdaeq	r3, {}	; <UNPREDICTABLE>
     fe4:	00022605 	andeq	r2, r2, r5, lsl #12
     fe8:	02140400 	andseq	r0, r4, #0, 8
     fec:	2e030000 	cdpcs	0, 0, cr0, cr3, cr0, {0}
     ff0:	00005b18 	andeq	r5, r0, r8, lsl fp
     ff4:	08010300 	stmdaeq	r1, {r8, r9}
     ff8:	0000007c 	andeq	r0, r0, ip, ror r0
     ffc:	00025404 	andeq	r5, r2, r4, lsl #8
    1000:	19310300 	ldmdbne	r1!, {r8, r9}
    1004:	0000006e 	andeq	r0, r0, lr, rrx
    1008:	97070203 	strls	r0, [r7, -r3, lsl #4]
    100c:	04000000 	streq	r0, [r0], #-0
    1010:	00000266 	andeq	r0, r0, r6, ror #4
    1014:	81193403 	tsthi	r9, r3, lsl #8
    1018:	03000000 	movweq	r0, #0
    101c:	02020704 	andeq	r0, r2, #4, 14	; 0x100000
    1020:	08030000 	stmdaeq	r3, {}	; <UNPREDICTABLE>
    1024:	0001fd07 	andeq	pc, r1, r7, lsl #26
    1028:	00250500 	eoreq	r0, r5, r0, lsl #10
    102c:	009e0000 	addseq	r0, lr, r0
    1030:	25060000 	strcs	r0, [r6, #-0]
    1034:	00000000 	andeq	r0, r0, r0
    1038:	00023407 	andeq	r3, r2, r7, lsl #8
    103c:	0e1c0400 	cfmulseq	mvf0, mvf12, mvf0
    1040:	000000aa 	andeq	r0, r0, sl, lsr #1
    1044:	008f0408 	addeq	r0, pc, r8, lsl #8
    1048:	25050000 	strcs	r0, [r5, #-0]
    104c:	bf000000 	svclt	0x00000000
    1050:	06000000 	streq	r0, [r0], -r0
    1054:	000000bf 	strheq	r0, [r0], -pc	; <UNPREDICTABLE>
    1058:	cc040800 	stcgt	8, cr0, [r4], {-0}
    105c:	03000000 	movweq	r0, #0
    1060:	00850801 	addeq	r0, r5, r1, lsl #16
    1064:	c5090000 	strgt	r0, [r9, #-0]
    1068:	07000000 	streq	r0, [r0, -r0]
    106c:	0000067e 	andeq	r0, r0, lr, ror r6
    1070:	dd0e2104 	stfles	f2, [lr, #-16]
    1074:	08000000 	stmdaeq	r0, {}	; <UNPREDICTABLE>
    1078:	0000b004 	andeq	fp, r0, r4
    107c:	020c0a00 	andeq	r0, ip, #0, 20
    1080:	01140905 	tsteq	r4, r5, lsl #18
    1084:	770b0000 	strvc	r0, [fp, -r0]
    1088:	02000000 	andeq	r0, r0, #0, 0
    108c:	00bf1107 	adcseq	r1, pc, r7, lsl #2
    1090:	0b000000 	bleq	1098 <__code_start__-0x6f68>
    1094:	000001dc 	ldrdeq	r0, [r0], -ip
    1098:	bf110802 	svclt	0x00110802
    109c:	04000000 	streq	r0, [r0], #-0
    10a0:	0000460b 	andeq	r4, r0, fp, lsl #12
    10a4:	0e090200 	cdpeq	2, 0, cr0, cr9, cr0, {0}
    10a8:	0000002c 	andeq	r0, r0, ip, lsr #32
    10ac:	4a040008 	bmi	1010d4 <__bss_end__+0xf5eac>
    10b0:	02000002 	andeq	r0, r0, #2, 0
    10b4:	00e3030a 	rsceq	r0, r3, sl, lsl #6
    10b8:	070c0000 	streq	r0, [ip, -r0]
    10bc:	00005b01 	andeq	r5, r0, r1, lsl #22
    10c0:	0e090500 	cfsh32eq	mvfx0, mvfx9, #0
    10c4:	0000013b 	andeq	r0, r0, fp, lsr r1
    10c8:	00033b0d 	andeq	r3, r3, sp, lsl #22
    10cc:	960d0b00 	strls	r0, [sp], -r0, lsl #22
    10d0:	0c000002 	stceq	0, cr0, [r0], {2}
    10d4:	01070c00 	tsteq	r7, r0, lsl #24
    10d8:	0000005b 	andeq	r0, r0, fp, asr r0
    10dc:	56060a05 	strpl	r0, [r6], -r5, lsl #20
    10e0:	0d000001 	stceq	0, cr0, [r0, #-4]
    10e4:	000002a8 	andeq	r0, r0, r8, lsr #5
    10e8:	029c0d80 	addseq	r0, ip, #128, 26	; 0x2000
    10ec:	00fe0000 	rscseq	r0, lr, r0
    10f0:	00018c0e 	andeq	r8, r1, lr, lsl #24
    10f4:	0d05b800 	stceq	8, cr11, [r5, #-0]
    10f8:	0001f310 	andeq	pc, r1, r0, lsl r3	; <UNPREDICTABLE>
    10fc:	00130b00 	andseq	r0, r3, r0, lsl #22
    1100:	0e050000 	cdpeq	0, 0, cr0, cr5, cr0, {0}
    1104:	0001f314 	andeq	pc, r1, r4, lsl r3	; <UNPREDICTABLE>
    1108:	4d0b0000 	stcmi	0, cr0, [fp, #-0]
    110c:	05000000 	streq	r0, [r0, #-0]
    1110:	00750e0f 	rsbseq	r0, r5, pc, lsl #28
    1114:	0b040000 	bleq	10111c <__bss_end__+0xf5ef4>
    1118:	0000006a 	andeq	r0, r0, sl, rrx
    111c:	750e1005 	strvc	r1, [lr, #-5]
    1120:	08000000 	stmdaeq	r0, {}	; <UNPREDICTABLE>
    1124:	0000200b 	andeq	r2, r0, fp
    1128:	0e110500 	cfmul32eq	mvfx0, mvfx1, mvfx0
    112c:	00000075 	andeq	r0, r0, r5, ror r0
    1130:	01f40b0c 	mvnseq	r0, ip, lsl #22
    1134:	15050000 	strne	r0, [r5, #-0]
    1138:	0000750e 	andeq	r7, r0, lr, lsl #10
    113c:	1c0b1000 	stcne	0, cr1, [fp], {-0}
    1140:	05000002 	streq	r0, [r0, #-2]
    1144:	01140f17 	tsteq	r4, r7, lsl pc
    1148:	0b140000 	bleq	501150 <__bss_end__+0x4f5f28>
    114c:	0000025d 	andeq	r0, r0, sp, asr r2
    1150:	140f1805 	strne	r1, [pc], #-2053	; 1158 <__code_start__-0x6ea8>
    1154:	20000001 	andcs	r0, r0, r1
    1158:	00026f0b 	andeq	r6, r2, fp, lsl #30
    115c:	0e1b0500 	cfmul32eq	mvfx0, mvfx11, mvfx0
    1160:	00000075 	andeq	r0, r0, r5, ror r0
    1164:	027a0b2c 	rsbseq	r0, sl, #44, 22	; 0xb000
    1168:	1c050000 	stcne	0, cr0, [r5], {-0}
    116c:	0000750e 	andeq	r7, r0, lr, lsl #10
    1170:	220b3000 	andcs	r3, fp, #0, 0
    1174:	05000004 	streq	r0, [r0, #-4]
    1178:	00620e1e 	rsbeq	r0, r2, lr, lsl lr
    117c:	0f340000 	svceq	0x00340000
    1180:	00317a72 	eorseq	r7, r1, r2, ror sl
    1184:	f90d2005 			; <UNDEFINED> instruction: 0xf90d2005
    1188:	36000001 	strcc	r0, [r0], -r1
    118c:	56040800 	strpl	r0, [r4], -r0, lsl #16
    1190:	10000001 	andne	r0, r0, r1
    1194:	0000004f 	andeq	r0, r0, pc, asr #32
    1198:	00000209 	andeq	r0, r0, r9, lsl #4
    119c:	00002c11 	andeq	r2, r0, r1, lsl ip
    11a0:	04007f00 	streq	r7, [r0], #-3840	; 0xfffff100
    11a4:	0000000d 	andeq	r0, r0, sp
    11a8:	56032105 	strpl	r2, [r3], -r5, lsl #2
    11ac:	12000001 	andne	r0, r0, #1, 0
    11b0:	00000704 	andeq	r0, r0, r4, lsl #14
    11b4:	a9050000 	stmdbge	r5, {}	; <UNPREDICTABLE>
    11b8:	00002c11 	andeq	r2, r0, r1, lsl ip
    11bc:	0aec1300 	beq	ffb05dc4 <__bss_end__+0xffafab9c>
    11c0:	10010000 	andne	r0, r1, r0
    11c4:	0002150e 	andeq	r1, r2, lr, lsl #10
    11c8:	10030500 	andne	r0, r3, r0, lsl #10
    11cc:	130000ae 	movwne	r0, #174	; 0xae
    11d0:	00000b47 	andeq	r0, r0, r7, asr #22
    11d4:	150e1101 	strne	r1, [lr, #-257]	; 0xfffffeff
    11d8:	05000002 	streq	r0, [r0, #-2]
    11dc:	00ae1403 	adceq	r1, lr, r3, lsl #8
    11e0:	03e51400 	mvneq	r1, #0, 8
    11e4:	19010000 	stmdbne	r1, {}	; <UNPREDICTABLE>
    11e8:	8e3c0601 	cfmsuba32hi	mvax0, mvax0, mvfx12, mvfx1
    11ec:	00340000 	eorseq	r0, r4, r0
    11f0:	9c010000 	stcls	0, cr0, [r1], {-0}
    11f4:	000002a7 	andeq	r0, r0, r7, lsr #5
    11f8:	0001e115 	andeq	lr, r1, r5, lsl r1
    11fc:	0002b700 	andeq	fp, r2, r0, lsl #14
    1200:	34030500 	strcc	r0, [r3], #-1280	; 0xfffffb00
    1204:	160000aa 	strne	r0, [r0], -sl, lsr #1
    1208:	00008e5c 	andeq	r8, r0, ip, asr lr
    120c:	00000c46 	andeq	r0, r0, r6, asr #24
    1210:	0000029d 	muleq	r0, sp, r2
    1214:	05500117 	ldrbeq	r0, [r0, #-279]	; 0xfffffee9
    1218:	00a9c403 	adceq	ip, r9, r3, lsl #8
    121c:	51011700 	tstpl	r1, r0, lsl #14
    1220:	a7140305 	ldrge	r0, [r4, -r5, lsl #6]
    1224:	01170000 	tsteq	r7, r0
    1228:	34030552 	strcc	r0, [r3], #-1362	; 0xfffffaae
    122c:	170000aa 	strne	r0, [r0, -sl, lsr #1]
    1230:	0a035301 	beq	d5e3c <__bss_end__+0xcac14>
    1234:	1800011b 	stmdane	r0, {r0, r1, r3, r4, r8}
    1238:	00008e60 	andeq	r8, r0, r0, ror #28
    123c:	00000c52 	andeq	r0, r0, r2, asr ip
    1240:	00cc1000 	sbceq	r1, ip, r0
    1244:	02b70000 	adcseq	r0, r7, #0, 0
    1248:	2c110000 	ldccs	0, cr0, [r1], {-0}
    124c:	0e000000 	cdpeq	0, 0, cr0, cr0, cr0, {0}
    1250:	02a70900 	adceq	r0, r7, #0, 18
    1254:	3e190000 	cdpcc	0, 1, cr0, cr9, cr0, {0}
    1258:	01000004 	tsteq	r0, r4
    125c:	2c0a010f 	stfcss	f0, [sl], {15}
    1260:	10000000 	andne	r0, r0, r0
    1264:	1800008e 	stmdane	r0, {r1, r2, r3, r7}
    1268:	01000000 	mrseq	r0, (UNDEF: 0)
    126c:	0002ff9c 	muleq	r2, ip, pc	; <UNPREDICTABLE>
    1270:	03671a00 	cmneq	r7, #0, 20
    1274:	12010000 	andne	r0, r1, #0, 0
    1278:	002c0e01 	eoreq	r0, ip, r1, lsl #28
    127c:	062c0000 	strteq	r0, [ip], -r0
    1280:	062a0000 	strteq	r0, [sl], -r0
    1284:	20180000 	andscs	r0, r8, r0
    1288:	a300008e 	movwge	r0, #142	; 0x8e
    128c:	18000007 	stmdane	r0, {r0, r1, r2}
    1290:	00008e24 	andeq	r8, r0, r4, lsr #28
    1294:	000002ff 	strdeq	r0, [r0], -pc	; <UNPREDICTABLE>
    1298:	04eb1b00 	strbteq	r1, [fp], #2816	; 0xb00
    129c:	f7010000 			; <UNDEFINED> instruction: 0xf7010000
    12a0:	00002c11 	andeq	r2, r0, r1, lsl ip
    12a4:	008b6000 	addeq	r6, fp, r0
    12a8:	0000f000 	andeq	pc, r0, r0
    12ac:	699c0100 	ldmibvs	ip, {r8}
    12b0:	1c000004 	stcne	0, cr0, [r0], {4}
    12b4:	00000402 	andeq	r0, r0, r2, lsl #8
    12b8:	2c0ef901 			; <UNDEFINED> instruction: 0x2c0ef901
    12bc:	43000000 	movwmi	r0, #0
    12c0:	3f000006 	svccc	0x00000006
    12c4:	1c000006 	stcne	0, cr0, [r0], {6}
    12c8:	00000469 	andeq	r0, r0, r9, ror #8
    12cc:	2c1bf901 			; <UNDEFINED> instruction: 0x2c1bf901
    12d0:	66000000 	strvs	r0, [r0], -r0
    12d4:	62000006 	andvs	r0, r0, #6, 0
    12d8:	1c000006 	stcne	0, cr0, [r0], {6}
    12dc:	00000411 	andeq	r0, r0, r1, lsl r4
    12e0:	2c27f901 			; <UNDEFINED> instruction: 0x2c27f901
    12e4:	8b000000 	blhi	12ec <__code_start__-0x6d14>
    12e8:	85000006 	strhi	r0, [r0, #-6]
    12ec:	15000006 	strne	r0, [r0, #-6]
    12f0:	000001e1 	andeq	r0, r0, r1, ror #3
    12f4:	00000479 	andeq	r0, r0, r9, ror r4
    12f8:	a9fc0305 	ldmibge	ip!, {r0, r2, r8, r9}^
    12fc:	601d0000 	andsvs	r0, sp, r0
    1300:	0c000000 	stceq	0, cr0, [r0], {-0}
    1304:	1e000004 	cdpne	0, 0, cr0, cr0, cr4, {0}
    1308:	fe010068 	cdp2	0, 0, cr0, cr1, cr8, {3}
    130c:	00047e11 	andeq	r7, r4, r1, lsl lr
    1310:	0006bd00 	andeq	fp, r6, r0, lsl #26
    1314:	0006b500 	andeq	fp, r6, r0, lsl #10
    1318:	0c101f00 	ldceq	15, cr1, [r0], {-0}
    131c:	8bac0000 	blhi	feb01324 <__bss_end__+0xfeaf60fc>
    1320:	ac000000 	stcge	0, cr0, [r0], {-0}
    1324:	1800008b 	stmdane	r0, {r0, r1, r3, r7}
    1328:	01000000 	mrseq	r0, (UNDEF: 0)
    132c:	c10d0105 	tstgt	sp, r5, lsl #2
    1330:	20000003 	andcs	r0, r0, r3
    1334:	00000c39 	andeq	r0, r0, r9, lsr ip
    1338:	000006f3 	strdeq	r0, [r0], -r3
    133c:	000006f1 	strdeq	r0, [r0], -r1
    1340:	000c2d20 	andeq	r2, ip, r0, lsr #26
    1344:	00070b00 	andeq	r0, r7, r0, lsl #22
    1348:	00070900 	andeq	r0, r7, r0, lsl #18
    134c:	0c212000 	stceq	0, cr2, [r1], #-0
    1350:	07250000 	streq	r0, [r5, -r0]!
    1354:	07230000 	streq	r0, [r3, -r0]!
    1358:	18000000 	stmdane	r0, {}	; <UNPREDICTABLE>
    135c:	00008b88 	andeq	r8, r0, r8, lsl #23
    1360:	00000c6d 	andeq	r0, r0, sp, ror #24
    1364:	008bd416 	addeq	sp, fp, r6, lsl r4
    1368:	000c7900 	andeq	r7, ip, r0, lsl #18
    136c:	0003de00 	andeq	sp, r3, r0, lsl #28
    1370:	50011700 	andpl	r1, r1, r0, lsl #14
    1374:	00007802 	andeq	r7, r0, r2, lsl #16
    1378:	008be016 	addeq	lr, fp, r6, lsl r0
    137c:	000c4600 	andeq	r4, ip, r0, lsl #12
    1380:	0003fb00 	andeq	pc, r3, r0, lsl #22
    1384:	50011700 	andpl	r1, r1, r0, lsl #14
    1388:	a8b80305 	ldmge	r8!, {r0, r2, r8, r9}
    138c:	01170000 	tsteq	r7, r0
    1390:	00780251 	rsbseq	r0, r8, r1, asr r2
    1394:	8be82100 	blhi	ffa0979c <__bss_end__+0xff9fe574>
    1398:	0c850000 	stceq	0, cr0, [r5], {0}
    139c:	01170000 	tsteq	r7, r0
    13a0:	00740250 	rsbseq	r0, r4, r0, asr r2
    13a4:	78160000 	ldmdavc	r6, {}	; <UNPREDICTABLE>
    13a8:	4600008b 	strmi	r0, [r0], -fp, lsl #1
    13ac:	2300000c 	movwcs	r0, #12
    13b0:	17000004 	strne	r0, [r0, -r4]
    13b4:	03055001 	movweq	r5, #20481	; 0x5001
    13b8:	0000a774 	andeq	sl, r0, r4, ror r7
    13bc:	8b801600 	blhi	fe006bc4 <__bss_end__+0xfdffb99c>
    13c0:	0c460000 	mareq	acc0, r0, r6
    13c4:	043a0000 	ldrteq	r0, [sl], #-0
    13c8:	01170000 	tsteq	r7, r0
    13cc:	a8030550 	stmdage	r3, {r4, r6, r8, sl}
    13d0:	000000a8 	andeq	r0, r0, r8, lsr #1
    13d4:	008b8418 	addeq	r8, fp, r8, lsl r4
    13d8:	0007a300 	andeq	sl, r7, r0, lsl #6
    13dc:	8c282100 	stfhis	f2, [r8], #-0
    13e0:	0c460000 	mareq	acc0, r0, r6
    13e4:	01170000 	tsteq	r7, r0
    13e8:	c8030550 	stmdagt	r3, {r4, r6, r8, sl}
    13ec:	170000a8 	strne	r0, [r0, -r8, lsr #1]
    13f0:	75025101 	strvc	r5, [r2, #-257]	; 0xfffffeff
    13f4:	52011700 	andpl	r1, r1, #0, 14
    13f8:	17007702 	strne	r7, [r0, -r2, lsl #14]
    13fc:	76025301 	strvc	r5, [r2], -r1, lsl #6
    1400:	10000000 	andne	r0, r0, r0
    1404:	000000cc 	andeq	r0, r0, ip, asr #1
    1408:	00000479 	andeq	r0, r0, r9, ror r4
    140c:	00002c11 	andeq	r2, r0, r1, lsl ip
    1410:	09000a00 	stmdbeq	r0, {r9, fp}
    1414:	00000469 	andeq	r0, r0, r9, ror #8
    1418:	02090408 	andeq	r0, r9, #8, 8	; 0x8000000
    141c:	94220000 	strtls	r0, [r2], #-0
    1420:	01000004 	tsteq	r0, r4
    1424:	002c0ae7 	eoreq	r0, ip, r7, ror #21
    1428:	8dac0000 	stchi	0, cr0, [ip]
    142c:	00580000 	subseq	r0, r8, r0
    1430:	9c010000 	stcls	0, cr0, [r1], {-0}
    1434:	0000052a 	andeq	r0, r0, sl, lsr #10
    1438:	00044e1c 	andeq	r4, r4, ip, lsl lr
    143c:	0eed0100 	cdpeq	1, 14, cr0, cr13, cr0, {0}
    1440:	0000002c 	andeq	r0, r0, ip, lsr #32
    1444:	00000743 	andeq	r0, r0, r3, asr #14
    1448:	0000073d 	andeq	r0, r0, sp, lsr r7
    144c:	0001e115 	andeq	lr, r1, r5, lsl r1
    1450:	00053a00 	andeq	r3, r5, r0, lsl #20
    1454:	20030500 	andcs	r0, r3, r0, lsl #10
    1458:	160000aa 	strne	r0, [r0], -sl, lsr #1
    145c:	00008dc0 	andeq	r8, r0, r0, asr #27
    1460:	000005dc 	ldrdeq	r0, [r0], -ip
    1464:	000004d4 	ldrdeq	r0, [r0], -r4
    1468:	01500117 	cmpeq	r0, r7, lsl r1
    146c:	d4160031 	ldrle	r0, [r6], #-49	; 0xffffffcf
    1470:	4600008d 	strmi	r0, [r0], -sp, lsl #1
    1474:	f100000c 	cps	#12
    1478:	17000004 	strne	r0, [r0, -r4]
    147c:	03055001 	movweq	r5, #20481	; 0x5001
    1480:	0000a9a0 	andeq	sl, r0, r0, lsr #19
    1484:	02510117 	subseq	r0, r1, #-1073741819	; 0xc0000005
    1488:	16000074 			; <UNDEFINED> instruction: 0x16000074
    148c:	00008df0 	strdeq	r8, [r0], -r0
    1490:	00000c46 	andeq	r0, r0, r6, asr #24
    1494:	00000520 	andeq	r0, r0, r0, lsr #10
    1498:	05500117 	ldrbeq	r0, [r0, #-279]	; 0xfffffee9
    149c:	00a97803 	adceq	r7, r9, r3, lsl #16
    14a0:	51011700 	tstpl	r1, r0, lsl #14
    14a4:	a7140305 	ldrge	r0, [r4, -r5, lsl #6]
    14a8:	01170000 	tsteq	r7, r0
    14ac:	20030552 	andcs	r0, r3, r2, asr r5
    14b0:	170000aa 	strne	r0, [r0, -sl, lsr #1]
    14b4:	08025301 	stmdaeq	r2, {r0, r8, r9, ip, lr}
    14b8:	f41800ef 			; <UNDEFINED> instruction: 0xf41800ef
    14bc:	5200008d 	andpl	r0, r0, #141, 0	; 0x8d
    14c0:	0000000c 	andeq	r0, r0, ip
    14c4:	0000cc10 	andeq	ip, r0, r0, lsl ip
    14c8:	00053a00 	andeq	r3, r5, r0, lsl #20
    14cc:	002c1100 	eoreq	r1, ip, r0, lsl #2
    14d0:	00110000 	andseq	r0, r1, r0
    14d4:	00052a09 	andeq	r2, r5, r9, lsl #20
    14d8:	04702300 	ldrbteq	r2, [r0], #-768	; 0xfffffd00
    14dc:	d9010000 	stmdble	r1, {}	; <UNPREDICTABLE>
    14e0:	008d4406 	addeq	r4, sp, r6, lsl #8
    14e4:	00005000 	andeq	r5, r0, r0
    14e8:	c79c0100 	ldrgt	r0, [ip, r0, lsl #2]
    14ec:	15000005 	strne	r0, [r0, #-5]
    14f0:	000001e1 	andeq	r0, r0, r1, ror #3
    14f4:	000005d7 	ldrdeq	r0, [r0], -r7
    14f8:	aa100305 	bge	402114 <__bss_end__+0x3f6eec>
    14fc:	58160000 	ldmdapl	r6, {}	; <UNPREDICTABLE>
    1500:	dc00008d 	stcle	0, cr0, [r0], {141}	; 0x8d
    1504:	77000005 	strvc	r0, [r0, -r5]
    1508:	17000005 	strne	r0, [r0, -r5]
    150c:	31015001 	tstcc	r1, r1
    1510:	8d681600 	stclhi	6, cr1, [r8, #-0]
    1514:	0c460000 	mareq	acc0, r0, r6
    1518:	058e0000 	streq	r0, [lr]
    151c:	01170000 	tsteq	r7, r0
    1520:	58030550 	stmdapl	r3, {r4, r6, r8, sl}
    1524:	000000a9 	andeq	r0, r0, r9, lsr #1
    1528:	008d8016 	addeq	r8, sp, r6, lsl r0
    152c:	000c4600 	andeq	r4, ip, r0, lsl #12
    1530:	0005bd00 	andeq	fp, r5, r0, lsl #26
    1534:	50011700 	andpl	r1, r1, r0, lsl #14
    1538:	a92c0305 	stmdbge	ip!, {r0, r2, r8, r9}
    153c:	01170000 	tsteq	r7, r0
    1540:	14030551 	strne	r0, [r3], #-1361	; 0xfffffaaf
    1544:	170000a7 	strne	r0, [r0, -r7, lsr #1]
    1548:	03055201 	movweq	r5, #20993	; 0x5201
    154c:	0000aa10 	andeq	sl, r0, r0, lsl sl
    1550:	02530117 	subseq	r0, r3, #-1073741819	; 0xc0000005
    1554:	1800e008 	stmdane	r0, {r3, sp, lr, pc}
    1558:	00008d84 	andeq	r8, r0, r4, lsl #27
    155c:	00000c52 	andeq	r0, r0, r2, asr ip
    1560:	00cc1000 	sbceq	r1, ip, r0
    1564:	05d70000 	ldrbeq	r0, [r7]
    1568:	2c110000 	ldccs	0, cr0, [r1], {-0}
    156c:	0d000000 	stceq	0, cr0, [r0, #-0]
    1570:	05c70900 	strbeq	r0, [r7, #2304]	; 0x900
    1574:	54220000 	strtpl	r0, [r2], #-0
    1578:	01000000 	mrseq	r0, (UNDEF: 0)
    157c:	002c0ad2 	ldrdeq	r0, [ip], -r2	; <UNPREDICTABLE>
    1580:	8d1c0000 	ldchi	0, cr0, [ip, #-0]
    1584:	00140000 	andseq	r0, r4, r0
    1588:	9c010000 	stcls	0, cr0, [r1], {-0}
    158c:	0000061c 	andeq	r0, r0, ip, lsl r6
    1590:	0004f624 	andeq	pc, r4, r4, lsr #12
    1594:	1cd20100 	ldfnee	f0, [r2], {0}
    1598:	00000025 	andeq	r0, r0, r5, lsr #32
    159c:	00000770 	andeq	r0, r0, r0, ror r7
    15a0:	0000076c 	andeq	r0, r0, ip, ror #14
    15a4:	008d2c21 	addeq	r2, sp, r1, lsr #24
    15a8:	00061c00 	andeq	r1, r6, r0, lsl #24
    15ac:	50011700 	andpl	r1, r1, r0, lsl #14
    15b0:	5001f303 	andpl	pc, r1, r3, lsl #6
    15b4:	d11b0000 	tstle	fp, r0
    15b8:	01000004 	tsteq	r0, r4
    15bc:	002c11a5 	eoreq	r1, ip, r5, lsr #3
    15c0:	8a480000 	bhi	12015c8 <__bss_end__+0x11f63a0>
    15c4:	01080000 	mrseq	r0, (UNDEF: 8)
    15c8:	9c010000 	stcls	0, cr0, [r1], {-0}
    15cc:	000007a3 	andeq	r0, r0, r3, lsr #15
    15d0:	0004f624 	andeq	pc, r4, r4, lsr #12
    15d4:	20a50100 	adccs	r0, r5, r0, lsl #2
    15d8:	00000025 	andeq	r0, r0, r5, lsr #32
    15dc:	00000795 	muleq	r0, r5, r7
    15e0:	00000791 	muleq	r0, r1, r7
    15e4:	0004021c 	andeq	r0, r4, ip, lsl r2
    15e8:	0ea70100 	fdveqs	f0, f7, f0
    15ec:	0000002c 	andeq	r0, r0, ip, lsr #32
    15f0:	000007b7 			; <UNDEFINED> instruction: 0x000007b7
    15f4:	000007b3 			; <UNDEFINED> instruction: 0x000007b3
    15f8:	0004371c 	andeq	r3, r4, ip, lsl r7
    15fc:	1ba70100 	blne	fe9c1a04 <__bss_end__+0xfe9b67dc>
    1600:	0000002c 	andeq	r0, r0, ip, lsr #32
    1604:	000007dc 	ldrdeq	r0, [r0], -ip
    1608:	000007d6 	ldrdeq	r0, [r0], -r6
    160c:	0004311c 	andeq	r3, r4, ip, lsl r1
    1610:	27a70100 	strcs	r0, [r7, r0, lsl #2]!
    1614:	0000002c 	andeq	r0, r0, ip, lsr #32
    1618:	0000080a 	andeq	r0, r0, sl, lsl #16
    161c:	00000806 	andeq	r0, r0, r6, lsl #16
    1620:	0000481d 	andeq	r4, r0, sp, lsl r8
    1624:	00070100 	andeq	r0, r7, r0, lsl #2
    1628:	00681e00 	rsbeq	r1, r8, r0, lsl #28
    162c:	7e11ac01 	cdpvc	12, 1, cr10, cr1, cr1, {0}
    1630:	37000004 	strcc	r0, [r0, -r4]
    1634:	29000008 	stmdbcs	r0, {r3}
    1638:	18000008 	stmdane	r0, {r3}
    163c:	00008a70 	andeq	r8, r0, r0, ror sl
    1640:	00000c6d 	andeq	r0, r0, sp, ror #24
    1644:	008a9816 	addeq	r9, sl, r6, lsl r8
    1648:	000c4600 	andeq	r4, ip, r0, lsl #12
    164c:	0006cd00 	andeq	ip, r6, r0, lsl #26
    1650:	50011700 	andpl	r1, r1, r0, lsl #14
    1654:	a7c80305 	strbge	r0, [r8, r5, lsl #6]
    1658:	01170000 	tsteq	r7, r0
    165c:	00750251 	rsbseq	r0, r5, r1, asr r2
    1660:	02520117 	subseq	r0, r2, #-1073741819	; 0xc0000005
    1664:	16000074 			; <UNDEFINED> instruction: 0x16000074
    1668:	00008aa0 	andeq	r8, r0, r0, lsr #21
    166c:	00000c85 	andeq	r0, r0, r5, lsl #25
    1670:	000006e1 	andeq	r0, r0, r1, ror #13
    1674:	02500117 	subseq	r0, r0, #-1073741819	; 0xc0000005
    1678:	21000074 	tstcs	r0, r4, ror r0
    167c:	00008ae4 	andeq	r8, r0, r4, ror #21
    1680:	00000c46 	andeq	r0, r0, r6, asr #24
    1684:	05500117 	ldrbeq	r0, [r0, #-279]	; 0xfffffee9
    1688:	00a7dc03 	adceq	sp, r7, r3, lsl #24
    168c:	51011700 	tstpl	r1, r0, lsl #14
    1690:	17007502 	strne	r7, [r0, -r2, lsl #10]
    1694:	74025201 	strvc	r5, [r2], #-513	; 0xfffffdff
    1698:	16000000 	strne	r0, [r0], -r0
    169c:	00008a60 	andeq	r8, r0, r0, ror #20
    16a0:	00000c46 	andeq	r0, r0, r6, asr #24
    16a4:	00000718 	andeq	r0, r0, r8, lsl r7
    16a8:	05500117 	ldrbeq	r0, [r0, #-279]	; 0xfffffee9
    16ac:	00a77403 	adceq	r7, r7, r3, lsl #8
    16b0:	68160000 	ldmdavs	r6, {}	; <UNPREDICTABLE>
    16b4:	4600008a 	strmi	r0, [r0], -sl, lsl #1
    16b8:	2f00000c 	svccs	0x0000000c
    16bc:	17000007 	strne	r0, [r0, -r7]
    16c0:	03055001 	movweq	r5, #20481	; 0x5001
    16c4:	0000a7b0 			; <UNDEFINED> instruction: 0x0000a7b0
    16c8:	8a6c1800 	bhi	1b076d0 <__bss_end__+0x1afc4a8>
    16cc:	07a30000 	streq	r0, [r3, r0]!
    16d0:	f4160000 			; <UNDEFINED> instruction: 0xf4160000
    16d4:	4600008a 	strmi	r0, [r0], -sl, lsl #1
    16d8:	5500000c 	strpl	r0, [r0, #-12]
    16dc:	17000007 	strne	r0, [r0, -r7]
    16e0:	03055001 	movweq	r5, #20481	; 0x5001
    16e4:	0000a7f4 	strdeq	sl, [r0], -r4
    16e8:	02510117 	subseq	r0, r1, #-1073741819	; 0xc0000005
    16ec:	16000075 			; <UNDEFINED> instruction: 0x16000075
    16f0:	00008b04 	andeq	r8, r0, r4, lsl #22
    16f4:	00000c46 	andeq	r0, r0, r6, asr #24
    16f8:	0000076c 	andeq	r0, r0, ip, ror #14
    16fc:	05500117 	ldrbeq	r0, [r0, #-279]	; 0xfffffee9
    1700:	00a81403 	adceq	r1, r8, r3, lsl #8
    1704:	0c160000 	ldceq	0, cr0, [r6], {-0}
    1708:	4600008b 	strmi	r0, [r0], -fp, lsl #1
    170c:	8300000c 	movwhi	r0, #12
    1710:	17000007 	strne	r0, [r0, -r7]
    1714:	03055001 	movweq	r5, #20481	; 0x5001
    1718:	0000a86c 	andeq	sl, r0, ip, ror #16
    171c:	8b2c2100 	blhi	b09b24 <__bss_end__+0xafe8fc>
    1720:	0c460000 	mareq	acc0, r0, r6
    1724:	01170000 	tsteq	r7, r0
    1728:	3c030550 	cfstr32cc	mvfx0, [r3], {80}	; 0x50
    172c:	170000a8 	strne	r0, [r0, -r8, lsr #1]
    1730:	76025101 	strvc	r5, [r2], -r1, lsl #2
    1734:	52011700 	andpl	r1, r1, #0, 14
    1738:	00007802 	andeq	r7, r0, r2, lsl #16
    173c:	03dc2500 	bicseq	r2, ip, #0, 10
    1740:	79010000 	stmdbvc	r1, {}	; <UNPREDICTABLE>
    1744:	00898c0d 	addeq	r8, r9, sp, lsl #24
    1748:	0000ac00 	andeq	sl, r0, r0, lsl #24
    174c:	b19c0100 	orrslt	r0, ip, r0, lsl #2
    1750:	13000008 	movwne	r0, #8
    1754:	00000449 	andeq	r0, r0, r9, asr #8
    1758:	b10e8501 	tstlt	lr, r1, lsl #10
    175c:	03000008 	movweq	r0, #8
    1760:	267fb091 			; <UNDEFINED> instruction: 0x267fb091
    1764:	000003d2 	ldrdeq	r0, [r0], -r2
    1768:	c10f9601 	tstgt	pc, r1, lsl #12
    176c:	00000008 	andeq	r0, r0, r8
    1770:	07080000 	streq	r0, [r8, -r0]
    1774:	000003f4 	strdeq	r0, [r0], -r4
    1778:	75159b01 	ldrvc	r9, [r5, #-2817]	; 0xfffff4ff
    177c:	07000000 	streq	r0, [r0, -r0]
    1780:	000004a6 	andeq	r0, r0, r6, lsr #9
    1784:	75249b01 	strvc	r9, [r4, #-2817]!	; 0xfffff4ff
    1788:	07000000 	streq	r0, [r0, -r0]
    178c:	000004dc 	ldrdeq	r0, [r0], -ip
    1790:	75159e01 	ldrvc	r9, [r5, #-3585]	; 0xfffff1ff
    1794:	07000000 	streq	r0, [r0, -r0]
    1798:	00000455 	andeq	r0, r0, r5, asr r4
    179c:	75259e01 	strvc	r9, [r5, #-3585]!	; 0xfffff1ff
    17a0:	27000000 	strcs	r0, [r0, -r0]
    17a4:	0000899c 	muleq	r0, ip, r9
    17a8:	00000024 	andeq	r0, r0, r4, lsr #32
    17ac:	0000083b 	andeq	r0, r0, fp, lsr r8
    17b0:	0100681e 	tsteq	r0, lr, lsl r8
    17b4:	047e117e 	ldrbteq	r1, [lr], #-382	; 0xfffffe82
    17b8:	08900000 	ldmeq	r0, {}	; <UNPREDICTABLE>
    17bc:	088c0000 	stmeq	ip, {}	; <UNPREDICTABLE>
    17c0:	a0180000 	andsge	r0, r8, r0
    17c4:	6d000089 	stcvs	0, cr0, [r0, #-548]	; 0xfffffddc
    17c8:	1800000c 	stmdane	r0, {r2, r3}
    17cc:	000089bc 			; <UNDEFINED> instruction: 0x000089bc
    17d0:	00000c85 	andeq	r0, r0, r5, lsl #25
    17d4:	89c81600 	stmibhi	r8, {r9, sl, ip}^
    17d8:	0c910000 	ldceq	0, cr0, [r1], {0}
    17dc:	08500000 	ldmdaeq	r0, {}^	; <UNPREDICTABLE>
    17e0:	01170000 	tsteq	r7, r0
    17e4:	b47b0350 	ldrbtlt	r0, [fp], #-848	; 0xfffffcb0
    17e8:	e816007f 	ldmda	r6, {r0, r1, r2, r3, r4, r5, r6}
    17ec:	c7000089 	strgt	r0, [r0, -r9, lsl #1]
    17f0:	6b000008 	blvs	1818 <__code_start__-0x67e8>
    17f4:	17000008 	strne	r0, [r0, -r8]
    17f8:	7b035001 	blvc	d5804 <__bss_end__+0xca5dc>
    17fc:	01177fb4 			; <UNDEFINED> instruction: 0x01177fb4
    1800:	6c7b0251 	lfmvs	f0, 2, [fp], #-324	; 0xfffffebc
    1804:	89f81600 	ldmibhi	r8!, {r9, sl, ip}^
    1808:	0c460000 	mareq	acc0, r0, r6
    180c:	08890000 	stmeq	r9, {}	; <UNPREDICTABLE>
    1810:	01170000 	tsteq	r7, r0
    1814:	58030550 	stmdapl	r3, {r4, r6, r8, sl}
    1818:	170000a7 	strne	r0, [r0, -r7, lsr #1]
    181c:	40035201 	andmi	r5, r3, r1, lsl #4
    1820:	16002447 	strne	r2, [r0], -r7, asr #8
    1824:	00008a04 	andeq	r8, r0, r4, lsl #20
    1828:	000008c7 	andeq	r0, r0, r7, asr #17
    182c:	0000089e 	muleq	r0, lr, r8
    1830:	03510117 	cmpeq	r1, #-1073741819	; 0xc0000005
    1834:	00244740 	eoreq	r4, r4, r0, asr #14
    1838:	008a1018 	addeq	r1, sl, r8, lsl r0
    183c:	0008c700 	andeq	ip, r8, r0, lsl #14
    1840:	8a1c1800 	bhi	707848 <__bss_end__+0x6fc620>
    1844:	08c70000 	stmiaeq	r7, {}^	; <UNPREDICTABLE>
    1848:	10000000 	andne	r0, r0, r0
    184c:	00000075 	andeq	r0, r0, r5, ror r0
    1850:	000008c1 	andeq	r0, r0, r1, asr #17
    1854:	00002c11 	andeq	r2, r0, r1, lsl ip
    1858:	08000f00 	stmdaeq	r0, {r8, r9, sl, fp}
    185c:	00007504 	andeq	r7, r0, r4, lsl #10
    1860:	04222500 	strteq	r2, [r2], #-1280	; 0xfffffb00
    1864:	50010000 	andpl	r0, r1, r0
    1868:	0088640d 	addeq	r6, r8, sp, lsl #8
    186c:	00011800 	andeq	r1, r1, r0, lsl #16
    1870:	539c0100 	orrspl	r0, ip, #0
    1874:	2800000a 	stmdacs	r0, {r1, r3}
    1878:	50010070 	andpl	r0, r1, r0, ror r0
    187c:	0008c11c 	andeq	ip, r8, ip, lsl r1
    1880:	0008bc00 	andeq	fp, r8, r0, lsl #24
    1884:	0008ae00 	andeq	sl, r8, r0, lsl #28
    1888:	00652800 	rsbeq	r2, r5, r0, lsl #16
    188c:	c1295001 			; <UNDEFINED> instruction: 0xc1295001
    1890:	25000008 	strcs	r0, [r0, #-8]
    1894:	17000009 	strne	r0, [r0, -r9]
    1898:	15000009 	strne	r0, [r0, #-9]
    189c:	000001e1 	andeq	r0, r0, r1, ror #3
    18a0:	00000a63 	andeq	r0, r0, r3, ror #20
    18a4:	a9f40305 	ldmibge	r4!, {r0, r2, r8, r9}^
    18a8:	f4270000 	vld4.8	{d0-d3}, [r7], r0
    18ac:	68000088 	stmdavs	r0, {r3, r7}
    18b0:	8c000000 	stchi	0, cr0, [r0], {-0}
    18b4:	1e000009 	cdpne	0, 0, cr0, cr0, cr9, {0}
    18b8:	58010069 	stmdapl	r1, {r0, r3, r5, r6}
    18bc:	0008c114 	andeq	ip, r8, r4, lsl r1
    18c0:	00098200 	andeq	r8, r9, r0, lsl #4
    18c4:	00098000 	andeq	r8, r9, r0
    18c8:	00182900 	andseq	r2, r8, r0, lsl #18
    18cc:	621e0000 	andsvs	r0, lr, #0, 0
    18d0:	105a0100 	subsne	r0, sl, r0, lsl #2
    18d4:	0000047e 	andeq	r0, r0, lr, ror r4
    18d8:	0000099b 	muleq	r0, fp, r9
    18dc:	00000995 	muleq	r0, r5, r9
    18e0:	0000301d 	andeq	r3, r0, sp, lsl r0
    18e4:	00098100 	andeq	r8, r9, r0, lsl #2
    18e8:	78651e00 	stmdavc	r5!, {r9, sl, fp, ip}^
    18ec:	5d010070 	stcpl	0, cr0, [r1, #-448]	; 0xfffffe40
    18f0:	00007516 	andeq	r7, r0, r6, lsl r5
    18f4:	0009d000 	andeq	sp, r9, r0
    18f8:	0009c600 	andeq	ip, r9, r0, lsl #12
    18fc:	041e1c00 	ldreq	r1, [lr], #-3072	; 0xfffff400
    1900:	5e010000 	cdppl	0, 0, cr0, cr1, cr0, {0}
    1904:	00006216 	andeq	r6, r0, r6, lsl r2
    1908:	000a1c00 	andeq	r1, sl, r0, lsl #24
    190c:	000a1800 	andeq	r1, sl, r0, lsl #16
    1910:	89581800 	ldmdbhi	r8, {fp, ip}^
    1914:	08c70000 	stmiaeq	r7, {}^	; <UNPREDICTABLE>
    1918:	18000000 	stmdane	r0, {}	; <UNPREDICTABLE>
    191c:	00008918 	andeq	r8, r0, r8, lsl r9
    1920:	00000a68 	andeq	r0, r0, r8, ror #20
    1924:	b0160000 	andslt	r0, r6, r0
    1928:	46000088 	strmi	r0, [r0], -r8, lsl #1
    192c:	c500000c 	strgt	r0, [r0, #-12]
    1930:	17000009 	strne	r0, [r0, -r9]
    1934:	03055001 	movweq	r5, #20481	; 0x5001
    1938:	0000a71c 	andeq	sl, r0, ip, lsl r7
    193c:	05510117 	ldrbeq	r0, [r1, #-279]	; 0xfffffee9
    1940:	00a71403 	adceq	r1, r7, r3, lsl #8
    1944:	52011700 	andpl	r1, r1, #0, 14
    1948:	a9f40305 	ldmibge	r4!, {r0, r2, r8, r9}^
    194c:	01170000 	tsteq	r7, r0
    1950:	56080253 			; <UNDEFINED> instruction: 0x56080253
    1954:	007d0217 	rsbseq	r0, sp, r7, lsl r2
    1958:	a7480305 	strbge	r0, [r8, -r5, lsl #6]
    195c:	18000000 	stmdane	r0, {}	; <UNPREDICTABLE>
    1960:	000088b4 			; <UNDEFINED> instruction: 0x000088b4
    1964:	00000c52 	andeq	r0, r0, r2, asr ip
    1968:	0088d016 	addeq	sp, r8, r6, lsl r0
    196c:	000c4600 	andeq	r4, ip, r0, lsl #12
    1970:	000a0700 	andeq	r0, sl, r0, lsl #14
    1974:	50011700 	andpl	r1, r1, r0, lsl #14
    1978:	a71c0305 	ldrge	r0, [ip, -r5, lsl #6]
    197c:	01170000 	tsteq	r7, r0
    1980:	14030551 	strne	r0, [r3], #-1361	; 0xfffffaaf
    1984:	170000a7 	strne	r0, [r0, -r7, lsr #1]
    1988:	03055201 	movweq	r5, #20993	; 0x5201
    198c:	0000a9f4 	strdeq	sl, [r0], -r4
    1990:	02530117 	subseq	r0, r3, #-1073741819	; 0xc0000005
    1994:	02175208 	andseq	r5, r7, #8, 4	; 0x80000000
    1998:	0305007d 	movweq	r0, #20605	; 0x507d
    199c:	0000a730 	andeq	sl, r0, r0, lsr r7
    19a0:	88d41800 	ldmhi	r4, {fp, ip}^
    19a4:	0c520000 	mraeq	r0, r2, acc0
    19a8:	f0160000 			; <UNDEFINED> instruction: 0xf0160000
    19ac:	46000088 	strmi	r0, [r0], -r8, lsl #1
    19b0:	4900000c 	stmdbmi	r0, {r2, r3}
    19b4:	1700000a 	strne	r0, [r0, -sl]
    19b8:	03055001 	movweq	r5, #20481	; 0x5001
    19bc:	0000a71c 	andeq	sl, r0, ip, lsl r7
    19c0:	05510117 	ldrbeq	r0, [r1, #-279]	; 0xfffffee9
    19c4:	00a71403 	adceq	r1, r7, r3, lsl #8
    19c8:	52011700 	andpl	r1, r1, #0, 14
    19cc:	a9f40305 	ldmibge	r4!, {r0, r2, r8, r9}^
    19d0:	01170000 	tsteq	r7, r0
    19d4:	55080253 	strpl	r0, [r8, #-595]	; 0xfffffdad
    19d8:	007d0217 	rsbseq	r0, sp, r7, lsl r2
    19dc:	a7380305 	ldrge	r0, [r8, -r5, lsl #6]!
    19e0:	18000000 	stmdane	r0, {}	; <UNPREDICTABLE>
    19e4:	000088f4 	strdeq	r8, [r0], -r4
    19e8:	00000c52 	andeq	r0, r0, r2, asr ip
    19ec:	00cc1000 	sbceq	r1, ip, r0
    19f0:	0a630000 	beq	18c19f8 <__bss_end__+0x18b67d0>
    19f4:	2c110000 	ldccs	0, cr0, [r1], {-0}
    19f8:	04000000 	streq	r0, [r0], #-0
    19fc:	0a530900 	beq	14c3e04 <__bss_end__+0x14b8bdc>
    1a00:	621b0000 	andsvs	r0, fp, #0, 0
    1a04:	01000004 	tsteq	r0, r4
    1a08:	047e0f3c 	ldrbteq	r0, [lr], #-3900	; 0xfffff0c4
    1a0c:	88280000 	stmdahi	r8!, {}	; <UNPREDICTABLE>
    1a10:	00300000 	eorseq	r0, r0, r0
    1a14:	9c010000 	stcls	0, cr0, [r1], {-0}
    1a18:	00000acd 	andeq	r0, r0, sp, asr #21
    1a1c:	0005d924 	andeq	sp, r5, r4, lsr #18
    1a20:	1f3c0100 	svcne	0x003c0100
    1a24:	00000075 	andeq	r0, r0, r5, ror r0
    1a28:	00000a3e 	andeq	r0, r0, lr, lsr sl
    1a2c:	00000a3a 	andeq	r0, r0, sl, lsr sl
    1a30:	0100701e 	tsteq	r0, lr, lsl r0
    1a34:	02150b3e 	andseq	r0, r5, #63488	; 0xf800
    1a38:	0a600000 	beq	1801a40 <__bss_end__+0x17f6818>
    1a3c:	0a5c0000 	beq	1701a44 <__bss_end__+0x16f681c>
    1a40:	3c160000 	ldccc	0, cr0, [r6], {-0}
    1a44:	cd000088 	stcgt	0, cr0, [r0, #-544]	; 0xfffffde0
    1a48:	bc00000a 	stclt	0, cr0, [r0], {10}
    1a4c:	1700000a 	strne	r0, [r0, -sl]
    1a50:	74025001 	strvc	r5, [r2], #-1
    1a54:	4c210000 	stcmi	0, cr0, [r1], #-0
    1a58:	9d000088 	stcls	0, cr0, [r0, #-544]	; 0xfffffde0
    1a5c:	1700000c 	strne	r0, [r0, -ip]
    1a60:	74025001 	strvc	r5, [r2], #-1
    1a64:	1b000000 	blne	1a6c <__code_start__-0x6594>
    1a68:	0000047e 	andeq	r0, r0, lr, ror r4
    1a6c:	250c2b01 	strcs	r2, [ip, #-2817]	; 0xfffff4ff
    1a70:	d4000000 	strle	r0, [r0], #-0
    1a74:	48000087 	stmdami	r0, {r0, r1, r2, r7}
    1a78:	01000000 	mrseq	r0, (UNDEF: 0)
    1a7c:	000afa9c 	muleq	sl, ip, sl
    1a80:	00702800 	rsbseq	r2, r0, r0, lsl #16
    1a84:	151a2b01 	ldrne	r2, [sl, #-2817]	; 0xfffff4ff
    1a88:	8a000002 	bhi	1a98 <__code_start__-0x6568>
    1a8c:	7e00000a 	cdpvc	0, 0, cr0, cr0, cr10, {0}
    1a90:	0000000a 	andeq	r0, r0, sl
    1a94:	0003b822 	andeq	fp, r3, r2, lsr #16
    1a98:	07130100 	ldreq	r0, [r3, -r0, lsl #2]
    1a9c:	00000215 	andeq	r0, r0, r5, lsl r2
    1aa0:	00008c5c 	andeq	r8, r0, ip, asr ip
    1aa4:	000000ac 	andeq	r0, r0, ip, lsr #1
    1aa8:	0c109c01 	ldceq	12, cr9, [r0], {1}
    1aac:	27240000 	strcs	r0, [r4, -r0]!
    1ab0:	01000004 	tsteq	r0, r4
    1ab4:	00411113 	subeq	r1, r1, r3, lsl r1
    1ab8:	0ae90000 	beq	ffa41ac0 <__bss_end__+0xffa36898>
    1abc:	0add0000 	beq	ff741ac4 <__bss_end__+0xff73689c>
    1ac0:	0a130000 	beq	4c1ac8 <__bss_end__+0x4b68a0>
    1ac4:	01000004 	tsteq	r0, r4
    1ac8:	00251015 	eoreq	r1, r5, r5, lsl r0
    1acc:	03050000 	movweq	r0, #20480	; 0x5000
    1ad0:	0000ae18 	andeq	sl, r0, r8, lsl lr
    1ad4:	0001e115 	andeq	lr, r1, r5, lsl r1
    1ad8:	000a6300 	andeq	r6, sl, r0, lsl #6
    1adc:	08030500 	stmdaeq	r3, {r8, sl}
    1ae0:	270000aa 	strcs	r0, [r0, -sl, lsr #1]
    1ae4:	00008c84 	andeq	r8, r0, r4, lsl #25
    1ae8:	00000024 	andeq	r0, r0, r4, lsr #32
    1aec:	00000b83 	andeq	r0, r0, r3, lsl #23
    1af0:	0004861c 	andeq	r8, r4, ip, lsl r6
    1af4:	121c0100 	andsne	r0, ip, #0
    1af8:	0000002c 	andeq	r0, r0, ip, lsr #32
    1afc:	00000b35 	andeq	r0, r0, r5, lsr fp
    1b00:	00000b33 	andeq	r0, r0, r3, lsr fp
    1b04:	008ca021 	addeq	sl, ip, r1, lsr #32
    1b08:	000ca900 	andeq	sl, ip, r0, lsl #18
    1b0c:	50011700 	andpl	r1, r1, r0, lsl #14
    1b10:	24404003 	strbcs	r4, [r0], #-3
    1b14:	03510117 	cmpeq	r1, #-1073741819	; 0xc0000005
    1b18:	00244040 	eoreq	r4, r4, r0, asr #32
    1b1c:	8cb01600 	ldchi	6, cr1, [r0]
    1b20:	0cb50000 	ldceq	0, cr0, [r5]
    1b24:	0b970000 	bleq	fe5c1b2c <__bss_end__+0xfe5b6904>
    1b28:	01170000 	tsteq	r7, r0
    1b2c:	00740250 	rsbseq	r0, r4, r0, asr r2
    1b30:	8cd41600 	ldclhi	6, cr1, [r4], {0}
    1b34:	0c460000 	mareq	acc0, r0, r6
    1b38:	0bcf0000 	bleq	ff3c1b40 <__bss_end__+0xff3b6918>
    1b3c:	01170000 	tsteq	r7, r0
    1b40:	1c030550 	cfstr32ne	mvfx0, [r3], {80}	; 0x50
    1b44:	170000a7 	strne	r0, [r0, -r7, lsr #1]
    1b48:	03055101 	movweq	r5, #20737	; 0x5101
    1b4c:	0000a714 	andeq	sl, r0, r4, lsl r7
    1b50:	05520117 	ldrbeq	r0, [r2, #-279]	; 0xfffffee9
    1b54:	00aa0803 	adceq	r0, sl, r3, lsl #16
    1b58:	53011700 	movwpl	r1, #5888	; 0x1700
    1b5c:	02174701 	andseq	r4, r7, #262144	; 0x40000
    1b60:	0305007d 	movweq	r0, #20605	; 0x507d
    1b64:	0000a8fc 	strdeq	sl, [r0], -ip
    1b68:	8cd81800 	ldclhi	8, cr1, [r8], {0}
    1b6c:	0c520000 	mraeq	r0, r2, acc0
    1b70:	ec160000 	ldc	0, cr0, [r6], {-0}
    1b74:	4600008c 	strmi	r0, [r0], -ip, lsl #1
    1b78:	0600000c 	streq	r0, [r0], -ip
    1b7c:	1700000c 	strne	r0, [r0, -ip]
    1b80:	03055001 	movweq	r5, #20481	; 0x5001
    1b84:	0000a90c 	andeq	sl, r0, ip, lsl #18
    1b88:	05510117 	ldrbeq	r0, [r1, #-279]	; 0xfffffee9
    1b8c:	00a71403 	adceq	r1, r7, r3, lsl #8
    1b90:	52011700 	andpl	r1, r1, #0, 14
    1b94:	aa080305 	bge	2027b0 <__bss_end__+0x1f7588>
    1b98:	01170000 	tsteq	r7, r0
    1b9c:	00490153 	subeq	r0, r9, r3, asr r1
    1ba0:	008cf018 	addeq	pc, ip, r8, lsl r0	; <UNPREDICTABLE>
    1ba4:	000c5200 	andeq	r5, ip, r0, lsl #4
    1ba8:	932a0000 			; <UNDEFINED> instruction: 0x932a0000
    1bac:	02000001 	andeq	r0, r0, #1, 0
    1bb0:	01140b0d 	tsteq	r4, sp, lsl #22
    1bb4:	46030000 	strmi	r0, [r3], -r0
    1bb8:	2b00000c 	blcs	1bf0 <__code_start__-0x6410>
    1bbc:	00000077 	andeq	r0, r0, r7, ror r0
    1bc0:	bf220d02 	svclt	0x00220d02
    1bc4:	2b000000 	blcs	1bcc <__code_start__-0x6434>
    1bc8:	000001dc 	ldrdeq	r0, [r0], -ip
    1bcc:	bf340d02 	svclt	0x00340d02
    1bd0:	2b000000 	blcs	1bd8 <__code_start__-0x6428>
    1bd4:	00000046 	andeq	r0, r0, r6, asr #32
    1bd8:	2c430d02 	mcrrcs	13, 0, r0, r3, cr2
    1bdc:	00000000 	andeq	r0, r0, r0
    1be0:	0006402c 	andeq	r4, r6, ip, lsr #32
    1be4:	00064000 	andeq	r4, r6, r0
    1be8:	06280400 	strteq	r0, [r8], -r0, lsl #8
    1bec:	00008a2c 	andeq	r8, r0, ip, lsr #20
    1bf0:	00008a00 	andeq	r8, r0, r0, lsl #20
    1bf4:	066e0400 	strbteq	r0, [lr], -r0, lsl #8
    1bf8:	0b9e0d2d 	bleq	fe7850b4 <__bss_end__+0xfe779e8c>
    1bfc:	65657773 	strbvs	r7, [r5, #-1907]!	; 0xfffff88d
    1c00:	72665f70 	rsbvc	r5, r6, #112, 30	; 0x1c0
    1c04:	2c006565 	cfstr32cs	mvfx6, [r0], {101}	; 0x65
    1c08:	000002b7 			; <UNDEFINED> instruction: 0x000002b7
    1c0c:	000002b7 			; <UNDEFINED> instruction: 0x000002b7
    1c10:	2c082a05 			; <UNDEFINED> instruction: 0x2c082a05
    1c14:	000002c4 	andeq	r0, r0, r4, asr #5
    1c18:	000002c4 	andeq	r0, r0, r4, asr #5
    1c1c:	2c074e05 	stccs	14, cr4, [r7], {5}
    1c20:	00000325 	andeq	r0, r0, r5, lsr #6
    1c24:	00000325 	andeq	r0, r0, r5, lsr #6
    1c28:	2c082d05 	stccs	13, cr2, [r8], {5}
    1c2c:	00000444 	andeq	r0, r0, r4, asr #8
    1c30:	00000444 	andeq	r0, r0, r4, asr #8
    1c34:	2c067601 	stccs	6, cr7, [r6], {1}
    1c38:	00000306 	andeq	r0, r0, r6, lsl #6
    1c3c:	00000306 	andeq	r0, r0, r6, lsl #6
    1c40:	2c084905 			; <UNDEFINED> instruction: 0x2c084905
    1c44:	000004ba 			; <UNDEFINED> instruction: 0x000004ba
    1c48:	000004ba 			; <UNDEFINED> instruction: 0x000004ba
    1c4c:	2c068204 	sfmcs	f0, 1, [r6], {4}
    1c50:	000004b2 			; <UNDEFINED> instruction: 0x000004b2
    1c54:	000004b2 			; <UNDEFINED> instruction: 0x000004b2
    1c58:	00077b04 	andeq	r7, r7, r4, lsl #22
    1c5c:	00000216 	andeq	r0, r0, r6, lsl r2
    1c60:	08d90004 	ldmeq	r9, {r2}^
    1c64:	01040000 	mrseq	r0, (UNDEF: 4)
    1c68:	00000518 	andeq	r0, r0, r8, lsl r5
    1c6c:	0006000c 	andeq	r0, r6, ip
    1c70:	0005de00 	andeq	sp, r5, r0, lsl #28
    1c74:	008e7800 	addeq	r7, lr, r0, lsl #16
    1c78:	0000a000 	andeq	sl, r0, r0
    1c7c:	000cc000 	andeq	ip, ip, r0
    1c80:	05040200 	streq	r0, [r4, #-512]	; 0xfffffe00
    1c84:	00746e69 	rsbseq	r6, r4, r9, ror #28
    1c88:	07070403 	streq	r0, [r7, -r3, lsl #8]
    1c8c:	03000002 	movweq	r0, #2
    1c90:	007e0601 	rsbseq	r0, lr, r1, lsl #12
    1c94:	02030000 	andeq	r0, r3, #0, 0
    1c98:	00024005 	andeq	r4, r2, r5
    1c9c:	05040300 	streq	r0, [r4, #-768]	; 0xfffffd00
    1ca0:	0000022b 	andeq	r0, r0, fp, lsr #4
    1ca4:	26050803 	strcs	r0, [r5], -r3, lsl #16
    1ca8:	03000002 	movweq	r0, #2
    1cac:	007c0801 	rsbseq	r0, ip, r1, lsl #16
    1cb0:	02030000 	andeq	r0, r3, #0, 0
    1cb4:	00009707 	andeq	r9, r0, r7, lsl #14
    1cb8:	07040300 	streq	r0, [r4, -r0, lsl #6]
    1cbc:	00000202 	andeq	r0, r0, r2, lsl #4
    1cc0:	fd070803 	stc2	8, cr0, [r7, #-12]
    1cc4:	04000001 	streq	r0, [r0], #-1
    1cc8:	00000025 	andeq	r0, r0, r5, lsr #32
    1ccc:	0000007a 	andeq	r0, r0, sl, ror r0
    1cd0:	00002505 	andeq	r2, r0, r5, lsl #10
    1cd4:	34060000 	strcc	r0, [r6], #-0
    1cd8:	02000002 	andeq	r0, r0, #2, 0
    1cdc:	00860e1c 	addeq	r0, r6, ip, lsl lr
    1ce0:	04070000 	streq	r0, [r7], #-0
    1ce4:	0000006b 	andeq	r0, r0, fp, rrx
    1ce8:	00002504 	andeq	r2, r0, r4, lsl #10
    1cec:	00009b00 	andeq	r9, r0, r0, lsl #22
    1cf0:	009b0500 	addseq	r0, fp, r0, lsl #10
    1cf4:	07000000 	streq	r0, [r0, -r0]
    1cf8:	0000a804 	andeq	sl, r0, r4, lsl #16
    1cfc:	08010300 	stmdaeq	r1, {r8, r9}
    1d00:	00000085 	andeq	r0, r0, r5, lsl #1
    1d04:	0000a108 	andeq	sl, r0, r8, lsl #2
    1d08:	067e0600 	ldrbteq	r0, [lr], -r0, lsl #12
    1d0c:	21020000 	mrscs	r0, (UNDEF: 2)
    1d10:	0000b90e 	andeq	fp, r0, lr, lsl #18
    1d14:	8c040700 	stchi	7, cr0, [r4], {-0}
    1d18:	09000000 	stmdbeq	r0, {}	; <UNPREDICTABLE>
    1d1c:	00000619 	andeq	r0, r0, r9, lsl r6
    1d20:	9b0d4201 	blls	35252c <__bss_end__+0x347304>
    1d24:	01000000 	mrseq	r0, (UNDEF: 0)
    1d28:	000000f7 	strdeq	r0, [r0], -r7
    1d2c:	0005d00a 	andeq	sp, r5, sl
    1d30:	1e420100 	dvfnes	f0, f2, f0
    1d34:	0000002c 	andeq	r0, r0, ip, lsr #32
    1d38:	00050a0b 	andeq	r0, r5, fp, lsl #20
    1d3c:	0e430100 	dvfeqs	f0, f3, f0
    1d40:	0000002c 	andeq	r0, r0, ip, lsr #32
    1d44:	050f0b0c 	streq	r0, [pc, #-2828]	; 1240 <__code_start__-0x6dc0>
    1d48:	45010000 	strmi	r0, [r1, #-0]
    1d4c:	00002c12 	andeq	r2, r0, r2, lsl ip
    1d50:	0d000000 	stceq	0, cr0, [r0, #-0]
    1d54:	000002cb 	andeq	r0, r0, fp, asr #5
    1d58:	25051d01 	strcs	r1, [r5, #-3329]	; 0xfffff2ff
    1d5c:	78000000 	stmdavc	r0, {}	; <UNPREDICTABLE>
    1d60:	8000008e 	andhi	r0, r0, lr, lsl #1
    1d64:	01000000 	mrseq	r0, (UNDEF: 0)
    1d68:	0001be9c 	muleq	r1, ip, lr
    1d6c:	06120e00 	ldreq	r0, [r2], -r0, lsl #28
    1d70:	1e010000 	cdpne	0, 0, cr0, cr1, cr0, {0}
    1d74:	0001be0f 	andeq	fp, r1, pc, lsl #28
    1d78:	000b4d00 	andeq	r4, fp, r0, lsl #26
    1d7c:	000b4b00 	andeq	r4, fp, r0, lsl #22
    1d80:	8e800f00 	cdphi	15, 8, cr0, cr0, cr0, {0}
    1d84:	005c0000 	subseq	r0, ip, r0
    1d88:	69100000 	ldmdbvs	r0, {}	; <UNPREDICTABLE>
    1d8c:	0e210100 	sufeqs	f0, f1, f0
    1d90:	00000025 	andeq	r0, r0, r5, lsr #32
    1d94:	00000b64 	andeq	r0, r0, r4, ror #22
    1d98:	00000b60 	andeq	r0, r0, r0, ror #22
    1d9c:	00007811 	andeq	r7, r0, r1, lsl r8
    1da0:	63701000 	cmnvs	r0, #0, 0
    1da4:	12220100 	eorne	r0, r2, #0
    1da8:	0000002c 	andeq	r0, r0, ip, lsr #32
    1dac:	00000b85 	andeq	r0, r0, r5, lsl #23
    1db0:	00000b83 	andeq	r0, r0, r3, lsl #23
    1db4:	0000bf12 	andeq	fp, r0, r2, lsl pc
    1db8:	008eb400 	addeq	fp, lr, r0, lsl #8
    1dbc:	00980100 	addseq	r0, r8, r0, lsl #2
    1dc0:	23010000 	movwcs	r0, #4096	; 0x1000
    1dc4:	0001a509 	andeq	sl, r1, r9, lsl #10
    1dc8:	00d01300 	sbcseq	r1, r0, r0, lsl #6
    1dcc:	0b9a0000 	bleq	fe681dd4 <__bss_end__+0xfe676bac>
    1dd0:	0b980000 	bleq	fe601dd8 <__bss_end__+0xfe5f6bb0>
    1dd4:	98110000 	ldmdals	r1, {}	; <UNPREDICTABLE>
    1dd8:	14000000 	strne	r0, [r0], #-0
    1ddc:	000000dc 	ldrdeq	r0, [r0], -ip
    1de0:	00000bb1 			; <UNDEFINED> instruction: 0x00000bb1
    1de4:	00000bad 	andeq	r0, r0, sp, lsr #23
    1de8:	0000e815 	andeq	lr, r0, r5, lsl r8
    1dec:	0000c000 	andeq	ip, r0, r0
    1df0:	00e91400 	rsceq	r1, r9, r0, lsl #8
    1df4:	0bd60000 	bleq	ff581dfc <__bss_end__+0xff576bd4>
    1df8:	0bd00000 	bleq	ff401e00 <__bss_end__+0xff3f6bd8>
    1dfc:	00000000 	andeq	r0, r0, r0
    1e00:	8ed01600 	cdphi	6, 13, cr1, cr0, cr0, {0}
    1e04:	020d0000 	andeq	r0, sp, #0, 0
    1e08:	01170000 	tsteq	r7, r0
    1e0c:	00750250 	rsbseq	r0, r5, r0, asr r2
    1e10:	02510117 	subseq	r0, r1, #-1073741819	; 0xc0000005
    1e14:	00000077 	andeq	r0, r0, r7, ror r0
    1e18:	04070000 	streq	r0, [r7], #-0
    1e1c:	0000002c 	andeq	r0, r0, ip, lsr #32
    1e20:	0000bf18 	andeq	fp, r0, r8, lsl pc
    1e24:	008ef800 	addeq	pc, lr, r0, lsl #16
    1e28:	00002000 	andeq	r2, r0, r0
    1e2c:	0d9c0100 	ldfeqs	f0, [ip]
    1e30:	13000002 	movwne	r0, #2
    1e34:	000000d0 	ldrdeq	r0, [r0], -r0	; <UNPREDICTABLE>
    1e38:	00000c16 	andeq	r0, r0, r6, lsl ip
    1e3c:	00000c10 	andeq	r0, r0, r0, lsl ip
    1e40:	0000dc14 	andeq	sp, r0, r4, lsl ip
    1e44:	000c4a00 	andeq	r4, ip, r0, lsl #20
    1e48:	000c4400 	andeq	r4, ip, r0, lsl #8
    1e4c:	00e81900 	rsceq	r1, r8, r0, lsl #18
    1e50:	8f040000 	svchi	0x00040000
    1e54:	00080000 	andeq	r0, r8, r0
    1e58:	e9140000 	ldmdb	r4, {}	; <UNPREDICTABLE>
    1e5c:	7e000000 	cdpvc	0, 0, cr0, cr0, cr0, {0}
    1e60:	7800000c 	stmdavc	r0, {r2, r3}
    1e64:	0000000c 	andeq	r0, r0, ip
    1e68:	06401a00 	strbeq	r1, [r0], -r0, lsl #20
    1e6c:	06400000 	strbeq	r0, [r0], -r0
    1e70:	28020000 	stmdacs	r2, {}	; <UNPREDICTABLE>
    1e74:	01400006 	cmpeq	r0, r6
    1e78:	00040000 	andeq	r0, r4, r0
    1e7c:	00000a44 	andeq	r0, r0, r4, asr #20
    1e80:	05180104 	ldreq	r0, [r8, #-260]	; 0xfffffefc
    1e84:	280c0000 	stmdacs	ip, {}	; <UNPREDICTABLE>
    1e88:	de000006 	cdple	0, 0, cr0, cr0, cr6, {0}
    1e8c:	18000005 	stmdane	r0, {r0, r2}
    1e90:	7800008f 	stmdavc	r0, {r0, r1, r2, r3, r7}
    1e94:	fa000000 	blx	1e9c <__code_start__-0x6164>
    1e98:	0200000d 	andeq	r0, r0, #13, 0
    1e9c:	6e690504 	cdpvs	5, 6, cr0, cr9, cr4, {0}
    1ea0:	21030074 	tstcs	r3, r4, ror r0
    1ea4:	03000006 	movweq	r0, #6
    1ea8:	003817d1 	ldrsbteq	r1, [r8], -r1
    1eac:	04040000 	streq	r0, [r4], #-0
    1eb0:	00020707 	andeq	r0, r2, r7, lsl #14
    1eb4:	06010400 	streq	r0, [r1], -r0, lsl #8
    1eb8:	0000007e 	andeq	r0, r0, lr, ror r0
    1ebc:	40050204 	andmi	r0, r5, r4, lsl #4
    1ec0:	04000002 	streq	r0, [r0], #-2
    1ec4:	022b0504 	eoreq	r0, fp, #4, 10	; 0x1000000
    1ec8:	08040000 	stmdaeq	r4, {}	; <UNPREDICTABLE>
    1ecc:	00022605 	andeq	r2, r2, r5, lsl #12
    1ed0:	08010400 	stmdaeq	r1, {sl}
    1ed4:	0000007c 	andeq	r0, r0, ip, ror r0
    1ed8:	97070204 	strls	r0, [r7, -r4, lsl #4]
    1edc:	04000000 	streq	r0, [r0], #-0
    1ee0:	02020704 	andeq	r0, r2, #4, 14	; 0x100000
    1ee4:	08040000 	stmdaeq	r4, {}	; <UNPREDICTABLE>
    1ee8:	0001fd07 	andeq	pc, r1, r7, lsl #26
    1eec:	00250500 	eoreq	r0, r5, r0, lsl #10
    1ef0:	00860000 	addeq	r0, r6, r0
    1ef4:	25060000 	strcs	r0, [r6, #-0]
    1ef8:	00000000 	andeq	r0, r0, r0
    1efc:	00023407 	andeq	r3, r2, r7, lsl #8
    1f00:	0e1c0200 	cdpeq	2, 1, cr0, cr12, cr0, {0}
    1f04:	00000092 	muleq	r0, r2, r0
    1f08:	00770408 	rsbseq	r0, r7, r8, lsl #8
    1f0c:	25050000 	strcs	r0, [r5, #-0]
    1f10:	a7000000 	strge	r0, [r0, -r0]
    1f14:	06000000 	streq	r0, [r0], -r0
    1f18:	000000a7 	andeq	r0, r0, r7, lsr #1
    1f1c:	b4040800 	strlt	r0, [r4], #-2048	; 0xfffff800
    1f20:	04000000 	streq	r0, [r0], #-0
    1f24:	00850801 	addeq	r0, r5, r1, lsl #16
    1f28:	ad090000 	stcge	0, cr0, [r9, #-0]
    1f2c:	07000000 	streq	r0, [r0, -r0]
    1f30:	0000067e 	andeq	r0, r0, lr, ror r6
    1f34:	c50e2102 	strgt	r2, [lr, #-258]	; 0xfffffefe
    1f38:	08000000 	stmdaeq	r0, {}	; <UNPREDICTABLE>
    1f3c:	00009804 	andeq	r9, r0, r4, lsl #16
    1f40:	02e00a00 	rsceq	r0, r0, #0, 20
    1f44:	04010000 	streq	r0, [r1], #-0
    1f48:	00013b07 	andeq	r3, r1, r7, lsl #22
    1f4c:	008f1800 	addeq	r1, pc, r0, lsl #16
    1f50:	00007800 	andeq	r7, r0, r0, lsl #16
    1f54:	3b9c0100 	blcc	fe70235c <__bss_end__+0xfe6f7134>
    1f58:	0b000001 	bleq	1f64 <__code_start__-0x609c>
    1f5c:	0100705f 	qaddeq	r7, pc, r0	; <UNPREDICTABLE>
    1f60:	013b1404 	teqeq	fp, r4, lsl #8
    1f64:	50010000 	andpl	r0, r1, r0
    1f68:	0100630c 	tsteq	r0, ip, lsl #6
    1f6c:	00251c04 	eoreq	r1, r5, r4, lsl #24
    1f70:	0cc80000 	stcleq	0, cr0, [r8], {0}
    1f74:	0cc40000 	stcleq	0, cr0, [r4], {0}
    1f78:	6e0c0000 	cdpvs	0, 0, cr0, cr12, cr0, {0}
    1f7c:	26040100 	strcs	r0, [r4], -r0, lsl #2
    1f80:	0000002c 	andeq	r0, r0, ip, lsr #32
    1f84:	00000ced 	andeq	r0, r0, sp, ror #25
    1f88:	00000ce9 	andeq	r0, r0, r9, ror #25
    1f8c:	0100700d 	tsteq	r0, sp
    1f90:	013d0b05 	teqeq	sp, r5, lsl #22
    1f94:	0d1c0000 	ldceq	0, cr0, [ip, #-0]
    1f98:	0d0e0000 	stceq	0, cr0, [lr, #-0]
    1f9c:	650d0000 	strvs	r0, [sp, #-0]
    1fa0:	14050100 	strne	r0, [r5], #-256	; 0xffffff00
    1fa4:	0000013d 	andeq	r0, r0, sp, lsr r1
    1fa8:	00000d79 	andeq	r0, r0, r9, ror sp
    1fac:	00000d77 	andeq	r0, r0, r7, ror sp
    1fb0:	08040e00 	stmdaeq	r4, {r9, sl, fp}
    1fb4:	0000ad04 	andeq	sl, r0, r4, lsl #26
    1fb8:	019d0000 	orrseq	r0, sp, r0
    1fbc:	00040000 	andeq	r0, r4, r0
    1fc0:	00000b10 	andeq	r0, r0, r0, lsl fp
    1fc4:	05180104 	ldreq	r0, [r8, #-260]	; 0xfffffefc
    1fc8:	5b0c0000 	blpl	301fd0 <__bss_end__+0x2f6da8>
    1fcc:	de000006 	cdple	0, 0, cr0, cr0, cr6, {0}
    1fd0:	90000005 	andls	r0, r0, r5
    1fd4:	5800008f 	stmdapl	r0, {r0, r1, r2, r3, r7}
    1fd8:	1f000000 	svcne	0x00000000
    1fdc:	0200000f 	andeq	r0, r0, #15, 0
    1fe0:	00000647 	andeq	r0, r0, r7, asr #12
    1fe4:	311b2802 	tstcc	fp, r2, lsl #16
    1fe8:	03000000 	movweq	r0, #0
    1fec:	0000066b 	andeq	r0, r0, fp, ror #12
    1ff0:	48000404 	stmdami	r0, {r2, sl}
    1ff4:	04000000 	streq	r0, [r0], #-0
    1ff8:	00000656 	andeq	r0, r0, r6, asr r6
    1ffc:	00000048 	andeq	r0, r0, r8, asr #32
    2000:	04050000 	streq	r0, [r5], #-0
    2004:	00066d02 	andeq	r6, r6, r2, lsl #26
    2008:	18630200 	stmdane	r3!, {r9}^
    200c:	00000025 	andeq	r0, r0, r5, lsr #32
    2010:	69050406 	stmdbvs	r5, {r1, r2, sl}
    2014:	0700746e 	streq	r7, [r0, -lr, ror #8]
    2018:	02070704 	andeq	r0, r7, #4, 14	; 0x100000
    201c:	01070000 	mrseq	r0, (UNDEF: 7)
    2020:	00007e06 	andeq	r7, r0, r6, lsl #28
    2024:	05020700 	streq	r0, [r2, #-1792]	; 0xfffff900
    2028:	00000240 	andeq	r0, r0, r0, asr #4
    202c:	2b050407 	blcs	143050 <__bss_end__+0x137e28>
    2030:	07000002 	streq	r0, [r0, -r2]
    2034:	02260508 	eoreq	r0, r6, #8, 10	; 0x2000000
    2038:	01070000 	mrseq	r0, (UNDEF: 7)
    203c:	00007c08 	andeq	r7, r0, r8, lsl #24
    2040:	07020700 	streq	r0, [r2, -r0, lsl #14]
    2044:	00000097 	muleq	r0, r7, r0
    2048:	02070407 	andeq	r0, r7, #117440512	; 0x7000000
    204c:	07000002 	streq	r0, [r0, -r2]
    2050:	01fd0708 	mvnseq	r0, r8, lsl #14
    2054:	56080000 	strpl	r0, [r8], -r0
    2058:	ab000000 	blge	2060 <__code_start__-0x5fa0>
    205c:	09000000 	stmdbeq	r0, {}	; <UNPREDICTABLE>
    2060:	00000056 	andeq	r0, r0, r6, asr r0
    2064:	02340a00 	eorseq	r0, r4, #0, 20
    2068:	1c030000 	stcne	0, cr0, [r3], {-0}
    206c:	0000b70e 	andeq	fp, r0, lr, lsl #14
    2070:	9c040b00 			; <UNDEFINED> instruction: 0x9c040b00
    2074:	08000000 	stmdaeq	r0, {}	; <UNPREDICTABLE>
    2078:	00000056 	andeq	r0, r0, r6, asr r0
    207c:	000000cc 	andeq	r0, r0, ip, asr #1
    2080:	0000cc09 	andeq	ip, r0, r9, lsl #24
    2084:	040b0000 	streq	r0, [fp], #-0
    2088:	000000d9 	ldrdeq	r0, [r0], -r9
    208c:	85080107 	strhi	r0, [r8, #-263]	; 0xfffffef9
    2090:	0c000000 	stceq	0, cr0, [r0], {-0}
    2094:	000000d2 	ldrdeq	r0, [r0], -r2
    2098:	00067e0a 	andeq	r7, r6, sl, lsl #28
    209c:	0e210300 	cdpeq	3, 2, cr0, cr1, cr0, {0}
    20a0:	000000ea 	andeq	r0, r0, sl, ror #1
    20a4:	00bd040b 	adcseq	r0, sp, fp, lsl #8
    20a8:	400d0000 	andmi	r0, sp, r0
    20ac:	01000006 	tsteq	r0, r6
    20b0:	00560506 	subseq	r0, r6, r6, lsl #10
    20b4:	8f900000 	svchi	0x00900000
    20b8:	00580000 	subseq	r0, r8, r0
    20bc:	9c010000 	stcls	0, cr0, [r1], {-0}
    20c0:	00000183 	andeq	r0, r0, r3, lsl #3
    20c4:	746d660e 	strbtvc	r6, [sp], #-1550	; 0xfffff9f2
    20c8:	18060100 	stmdane	r6, {r8}
    20cc:	000000cc 	andeq	r0, r0, ip, asr #1
    20d0:	0f709102 	svceq	0x00709102
    20d4:	66756210 			; <UNDEFINED> instruction: 0x66756210
    20d8:	11080100 	mrsne	r0, (UNDEF: 24)
    20dc:	00000183 	andeq	r0, r0, r3, lsl #3
    20e0:	ae1c0305 	cdpge	3, 1, cr0, cr12, cr5, {0}
    20e4:	38110000 	ldmdacc	r1, {}	; <UNPREDICTABLE>
    20e8:	01000006 	tsteq	r0, r6
    20ec:	004a0d09 	subeq	r0, sl, r9, lsl #26
    20f0:	91020000 	mrsls	r0, (UNDEF: 2)
    20f4:	7a73125c 	bvc	1cc6a6c <__bss_end__+0x1cbb844>
    20f8:	0d0c0100 	stfeqs	f0, [ip, #-0]
    20fc:	00000056 	andeq	r0, r0, r6, asr r0
    2100:	00000d92 	muleq	r0, r2, sp
    2104:	00000d8c 	andeq	r0, r0, ip, lsl #27
    2108:	008fb813 	addeq	fp, pc, r3, lsl r8	; <UNPREDICTABLE>
    210c:	00019400 	andeq	r9, r1, r0, lsl #8
    2110:	00017600 	andeq	r7, r1, r0, lsl #12
    2114:	50011400 	andpl	r1, r1, r0, lsl #8
    2118:	14007502 	strne	r7, [r0], #-1282	; 0xfffffafe
    211c:	0a035101 	beq	d6528 <__bss_end__+0xcb300>
    2120:	01140400 	tsteq	r4, r0, lsl #8
    2124:	48910352 	ldmmi	r1, {r1, r4, r6, r8, r9}
    2128:	53011406 	movwpl	r1, #5126	; 0x1406
    212c:	004c9102 	subeq	r9, ip, r2, lsl #2
    2130:	008fcc15 	addeq	ip, pc, r5, lsl ip	; <UNPREDICTABLE>
    2134:	50011400 	andpl	r1, r1, r0, lsl #8
    2138:	00007502 	andeq	r7, r0, r2, lsl #10
    213c:	00d21600 	sbcseq	r1, r2, r0, lsl #12
    2140:	01940000 	orrseq	r0, r4, r0
    2144:	5d170000 	ldcpl	0, cr0, [r7, #-0]
    2148:	ff000000 			; <UNDEFINED> instruction: 0xff000000
    214c:	3d180003 	ldccc	0, cr0, [r8, #-12]
    2150:	3d000006 	stccc	0, cr0, [r0, #-24]	; 0xffffffe8
    2154:	05000006 	streq	r0, [r0, #-6]
    2158:	f3000502 	vrshl.u8	d0, d2, d0
    215c:	04000000 	streq	r0, [r0], #-0
    2160:	000c5200 	andeq	r5, ip, r0, lsl #4
    2164:	18010400 	stmdane	r1, {sl}
    2168:	0c000005 	stceq	0, cr0, [r0], {5}
    216c:	00000683 	andeq	r0, r0, r3, lsl #13
    2170:	000005de 	ldrdeq	r0, [r0], -lr
    2174:	00008fe8 	andeq	r8, r0, r8, ror #31
    2178:	00000038 	andeq	r0, r0, r8, lsr r0
    217c:	00001043 	andeq	r1, r0, r3, asr #32
    2180:	69050402 	stmdbvs	r5, {r1, sl}
    2184:	0300746e 	movweq	r7, #1134	; 0x46e
    2188:	02070704 	andeq	r0, r7, #4, 14	; 0x100000
    218c:	01030000 	mrseq	r0, (UNDEF: 3)
    2190:	00007e06 	andeq	r7, r0, r6, lsl #28
    2194:	05020300 	streq	r0, [r2, #-768]	; 0xfffffd00
    2198:	00000240 	andeq	r0, r0, r0, asr #4
    219c:	2b050403 	blcs	1431b0 <__bss_end__+0x137f88>
    21a0:	03000002 	movweq	r0, #2
    21a4:	02260508 	eoreq	r0, r6, #8, 10	; 0x2000000
    21a8:	01030000 	mrseq	r0, (UNDEF: 3)
    21ac:	00007c08 	andeq	r7, r0, r8, lsl #24
    21b0:	07020300 	streq	r0, [r2, -r0, lsl #6]
    21b4:	00000097 	muleq	r0, r7, r0
    21b8:	02070403 	andeq	r0, r7, #50331648	; 0x3000000
    21bc:	03000002 	movweq	r0, #2
    21c0:	01fd0708 	mvnseq	r0, r8, lsl #14
    21c4:	25040000 	strcs	r0, [r4, #-0]
    21c8:	7a000000 	bvc	21d0 <__code_start__-0x5e30>
    21cc:	05000000 	streq	r0, [r0, #-0]
    21d0:	00000025 	andeq	r0, r0, r5, lsr #32
    21d4:	02340600 	eorseq	r0, r4, #0, 12
    21d8:	1c020000 	stcne	0, cr0, [r2], {-0}
    21dc:	0000860e 	andeq	r8, r0, lr, lsl #12
    21e0:	6b040700 	blvs	103de8 <__bss_end__+0xf8bc0>
    21e4:	04000000 	streq	r0, [r0], #-0
    21e8:	00000025 	andeq	r0, r0, r5, lsr #32
    21ec:	0000009b 	muleq	r0, fp, r0
    21f0:	00009b05 	andeq	r9, r0, r5, lsl #22
    21f4:	04070000 	streq	r0, [r7], #-0
    21f8:	000000a8 	andeq	r0, r0, r8, lsr #1
    21fc:	85080103 	strhi	r0, [r8, #-259]	; 0xfffffefd
    2200:	08000000 	stmdaeq	r0, {}	; <UNPREDICTABLE>
    2204:	000000a1 	andeq	r0, r0, r1, lsr #1
    2208:	00067e06 	andeq	r7, r6, r6, lsl #28
    220c:	0e210200 	cdpeq	2, 2, cr0, cr1, cr0, {0}
    2210:	000000b9 	strheq	r0, [r0], -r9
    2214:	008c0407 	addeq	r0, ip, r7, lsl #8
    2218:	ad090000 	stcge	0, cr0, [r9, #-0]
    221c:	01000000 	mrseq	r0, (UNDEF: 0)
    2220:	0305070c 	movweq	r0, #22284	; 0x570c
    2224:	0000ade0 	andeq	sl, r0, r0, ror #27
    2228:	0006750a 	andeq	r7, r6, sl, lsl #10
    222c:	05040100 	streq	r0, [r4, #-256]	; 0xffffff00
    2230:	00000025 	andeq	r0, r0, r5, lsr #32
    2234:	00008fe8 	andeq	r8, r0, r8, ror #31
    2238:	00000038 	andeq	r0, r0, r8, lsr r0
    223c:	700b9c01 	andvc	r9, fp, r1, lsl #24
    2240:	1f040100 	svcne	0x00040100
    2244:	0000009b 	muleq	r0, fp, r0
    2248:	00000dc3 	andeq	r0, r0, r3, asr #27
    224c:	00000dbb 			; <UNDEFINED> instruction: 0x00000dbb
    2250:	0c7f0000 	ldcleq	0, cr0, [pc], #-0	; 2258 <__code_start__-0x5da8>
    2254:	00040000 	andeq	r0, r4, r0
    2258:	00000cf0 	strdeq	r0, [r0], -r0	; <UNPREDICTABLE>
    225c:	05180104 	ldreq	r0, [r8, #-260]	; 0xfffffefc
    2260:	a20c0000 	andge	r0, ip, #0, 0
    2264:	de000006 	cdple	0, 0, cr0, cr0, cr6, {0}
    2268:	20000005 	andcs	r0, r0, r5
    226c:	b4000090 	strlt	r0, [r0], #-144	; 0xffffff70
    2270:	e7000009 	str	r0, [r0, -r9]
    2274:	02000010 	andeq	r0, r0, #16, 0
    2278:	01fd0708 	mvnseq	r0, r8, lsl #14
    227c:	04020000 	streq	r0, [r2], #-0
    2280:	00020707 	andeq	r0, r2, r7, lsl #14
    2284:	05040300 	streq	r0, [r4, #-768]	; 0xfffffd00
    2288:	00746e69 	rsbseq	r6, r4, r9, ror #28
    228c:	7e060102 	adfvcs	f0, f6, f2
    2290:	02000000 	andeq	r0, r0, #0, 0
    2294:	02400502 	subeq	r0, r0, #8388608	; 0x800000
    2298:	04020000 	streq	r0, [r2], #-0
    229c:	00022b05 	andeq	r2, r2, r5, lsl #22
    22a0:	05080200 	streq	r0, [r8, #-512]	; 0xfffffe00
    22a4:	00000226 	andeq	r0, r0, r6, lsr #4
    22a8:	7c080102 	stfvcs	f0, [r8], {2}
    22ac:	02000000 	andeq	r0, r0, #0, 0
    22b0:	00970702 	addseq	r0, r7, r2, lsl #14
    22b4:	66040000 	strvs	r0, [r4], -r0
    22b8:	02000002 	andeq	r0, r0, #2, 0
    22bc:	00701934 	rsbseq	r1, r0, r4, lsr r9
    22c0:	04020000 	streq	r0, [r2], #-0
    22c4:	00020207 	andeq	r0, r2, r7, lsl #4
    22c8:	06990400 	ldreq	r0, [r9], r0, lsl #8
    22cc:	37020000 	strcc	r0, [r2, -r0]
    22d0:	00002519 	andeq	r2, r0, r9, lsl r5
    22d4:	00330500 	eorseq	r0, r3, r0, lsl #10
    22d8:	00920000 	addseq	r0, r2, r0
    22dc:	33060000 	movwcc	r0, #24576	; 0x6000
    22e0:	00000000 	andeq	r0, r0, r0
    22e4:	00023407 	andeq	r3, r2, r7, lsl #8
    22e8:	0e1c0300 	cdpeq	3, 1, cr0, cr12, cr0, {0}
    22ec:	0000009e 	muleq	r0, lr, r0
    22f0:	00830408 	addeq	r0, r3, r8, lsl #8
    22f4:	33050000 	movwcc	r0, #20480	; 0x5000
    22f8:	b3000000 	movwlt	r0, #0
    22fc:	06000000 	streq	r0, [r0], -r0
    2300:	000000b3 	strheq	r0, [r0], -r3
    2304:	c0040800 	andgt	r0, r4, r0, lsl #16
    2308:	02000000 	andeq	r0, r0, #0, 0
    230c:	00850801 	addeq	r0, r5, r1, lsl #16
    2310:	b9090000 	stmdblt	r9, {}	; <UNPREDICTABLE>
    2314:	07000000 	streq	r0, [r0, -r0]
    2318:	0000067e 	andeq	r0, r0, lr, ror r6
    231c:	d10e2103 	tstle	lr, r3, lsl #2
    2320:	08000000 	stmdaeq	r0, {}	; <UNPREDICTABLE>
    2324:	0000a404 	andeq	sl, r0, r4, lsl #8
    2328:	06b50700 	ldrteq	r0, [r5], r0, lsl #14
    232c:	0b040000 	bleq	102334 <__bss_end__+0xf710c>
    2330:	0000b90d 	andeq	fp, r0, sp, lsl #18
    2334:	06ff0700 	ldrbteq	r0, [pc], r0, lsl #14
    2338:	0c040000 	stceq	0, cr0, [r4], {-0}
    233c:	0000b90d 	andeq	fp, r0, sp, lsl #18
    2340:	03f40700 	mvnseq	r0, #0, 14
    2344:	0d040000 	stceq	0, cr0, [r4, #-0]
    2348:	0000b90d 	andeq	fp, r0, sp, lsl #18
    234c:	04a60700 	strteq	r0, [r6], #1792	; 0x700
    2350:	0e040000 	cdpeq	0, 0, cr0, cr4, cr0, {0}
    2354:	0000b90d 	andeq	fp, r0, sp, lsl #18
    2358:	04dc0700 	ldrbeq	r0, [ip], #1792	; 0x700
    235c:	0f040000 	svceq	0x00040000
    2360:	0000b90d 	andeq	fp, r0, sp, lsl #18
    2364:	04550700 	ldrbeq	r0, [r5], #-1792	; 0xfffff900
    2368:	10040000 	andne	r0, r4, r0
    236c:	0000b90d 	andeq	fp, r0, sp, lsl #18
    2370:	07280700 	streq	r0, [r8, -r0, lsl #14]!
    2374:	11040000 	mrsne	r0, (UNDEF: 4)
    2378:	0000b90d 	andeq	fp, r0, sp, lsl #18
    237c:	02f70700 	rscseq	r0, r7, #0, 14
    2380:	12040000 	andne	r0, r4, #0, 0
    2384:	0000b90d 	andeq	fp, r0, sp, lsl #18
    2388:	06470400 	strbeq	r0, [r7], -r0, lsl #8
    238c:	28050000 	stmdacs	r5, {}	; <UNPREDICTABLE>
    2390:	0001431b 	andeq	r4, r1, fp, lsl r3
    2394:	066b0a00 	strbteq	r0, [fp], -r0, lsl #20
    2398:	06040000 	streq	r0, [r4], -r0
    239c:	00015a00 	andeq	r5, r1, r0, lsl #20
    23a0:	06560b00 	ldrbeq	r0, [r6], -r0, lsl #22
    23a4:	015a0000 	cmpeq	sl, r0
    23a8:	00000000 	andeq	r0, r0, r0
    23ac:	6d04040c 	cfstrsvs	mvf0, [r4, #-48]	; 0xffffffd0
    23b0:	05000006 	streq	r0, [r0, #-6]
    23b4:	01371863 	teqeq	r7, r3, ror #16
    23b8:	3d0d0000 	stccc	0, cr0, [sp, #-0]
    23bc:	01000006 	tsteq	r0, r6
    23c0:	00330581 	eorseq	r0, r3, r1, lsl #11
    23c4:	93a80000 			; <UNDEFINED> instruction: 0x93a80000
    23c8:	062c0000 	strteq	r0, [ip], -r0
    23cc:	9c010000 	stcls	0, cr0, [r1], {-0}
    23d0:	0000086a 	andeq	r0, r0, sl, ror #16
    23d4:	6675620e 	ldrbtvs	r6, [r5], -lr, lsl #4
    23d8:	15810100 	strne	r0, [r1, #256]	; 0x100
    23dc:	0000086a 	andeq	r0, r0, sl, ror #16
    23e0:	00000e03 	andeq	r0, r0, r3, lsl #28
    23e4:	00000df9 	strdeq	r0, [r0], -r9
    23e8:	01006e0e 	tsteq	r0, lr, lsl #28
    23ec:	00331e81 	eorseq	r1, r3, r1, lsl #29
    23f0:	0e500000 	cdpeq	0, 5, cr0, cr0, cr0, {0}
    23f4:	0e480000 	cdpeq	0, 4, cr0, cr8, cr0, {0}
    23f8:	660e0000 	strvs	r0, [lr], -r0
    23fc:	0100746d 	tsteq	r0, sp, ror #8
    2400:	00b32d81 	adcseq	r2, r3, r1, lsl #27
    2404:	0ea20000 	cdpeq	0, 10, cr0, cr2, cr0, {0}
    2408:	0e8a0000 	cdpeq	0, 8, cr0, cr10, cr0, {0}
    240c:	380f0000 	stmdacc	pc, {}	; <UNPREDICTABLE>
    2410:	01000006 	tsteq	r0, r6
    2414:	015c3a81 	cmpeq	ip, r1, lsl #21
    2418:	0f640000 	svceq	0x00640000
    241c:	0f360000 	svceq	0x00360000
    2420:	70100000 	andsvc	r0, r0, r0
    2424:	08820100 	stmeq	r2, {r8}
    2428:	0000086a 	andeq	r0, r0, sl, ror #16
    242c:	000010b7 	strheq	r1, [r0], -r7
    2430:	000010a1 	andeq	r1, r0, r1, lsr #1
    2434:	01006510 	tsteq	r0, r0, lsl r5
    2438:	086a1282 	stmdaeq	sl!, {r1, r7, r9, ip}^
    243c:	11400000 	mrsne	r0, (UNDEF: 64)
    2440:	113e0000 	teqne	lr, r0
    2444:	78100000 	ldmdavc	r0, {}	; <UNPREDICTABLE>
    2448:	83010030 	movwhi	r0, #4144	; 0x1030
    244c:	0000640e 	andeq	r6, r0, lr, lsl #8
    2450:	00115900 	andseq	r5, r1, r0, lsl #18
    2454:	00115300 	andseq	r5, r1, r0, lsl #6
    2458:	31781000 	cmncc	r8, r0
    245c:	11830100 	orrne	r0, r3, r0, lsl #2
    2460:	00000064 	andeq	r0, r0, r4, rrx
    2464:	00001188 	andeq	r1, r0, r8, lsl #3
    2468:	00001182 	andeq	r1, r0, r2, lsl #3
    246c:	0006e111 	andeq	lr, r6, r1, lsl r1
    2470:	11860100 	orrne	r0, r6, r0, lsl #2
    2474:	000000b3 	strheq	r0, [r0], -r3
    2478:	000011b9 			; <UNDEFINED> instruction: 0x000011b9
    247c:	000011b1 			; <UNDEFINED> instruction: 0x000011b1
    2480:	0001e112 	andeq	lr, r1, r2, lsl r1
    2484:	00088000 	andeq	r8, r8, r0
    2488:	b0030500 	andlt	r0, r3, r0, lsl #10
    248c:	130000ab 	movwne	r0, #171	; 0xab
    2490:	00000148 	andeq	r0, r0, r8, asr #2
    2494:	01007310 	tsteq	r0, r0, lsl r3
    2498:	086a0a91 	stmdaeq	sl!, {r0, r4, r7, r9, fp}^
    249c:	11ff0000 	mvnsne	r0, r0
    24a0:	11f30000 	mvnsne	r0, r0
    24a4:	6e140000 	cdpvs	0, 1, cr0, cr4, cr0, {0}
    24a8:	01006d75 	tsteq	r0, r5, ror sp
    24ac:	08850d91 	stmeq	r5, {r0, r4, r7, r8, sl, fp}
    24b0:	91030000 	mrsls	r0, (UNDEF: 3)
    24b4:	35157dd8 	ldrcc	r7, [r5, #-3544]	; 0xfffff228
    24b8:	01000007 	tsteq	r0, r7
    24bc:	08851791 	stmeq	r5, {r0, r4, r7, r8, r9, sl, ip}
    24c0:	91030000 	mrsls	r0, (UNDEF: 3)
    24c4:	c4117ed8 	ldrgt	r7, [r1], #-3800	; 0xfffff128
    24c8:	01000006 	tsteq	r0, r6
    24cc:	002c0d92 	mlaeq	ip, r2, sp, r0
    24d0:	12510000 	subsne	r0, r1, #0, 0
    24d4:	12490000 	subne	r0, r9, #0, 0
    24d8:	70160000 	andsvc	r0, r6, r0
    24dc:	f1000001 	cps	#1
    24e0:	10000004 	andne	r0, r0, r4
    24e4:	01007974 	tsteq	r0, r4, ror r9
    24e8:	00b31d9e 	umlalseq	r1, r3, lr, sp
    24ec:	12920000 	addsne	r0, r2, #0, 0
    24f0:	12860000 	addne	r0, r6, #0, 0
    24f4:	78140000 	ldmdavc	r4, {}	; <UNPREDICTABLE>
    24f8:	a2010078 	andge	r0, r1, #120, 0	; 0x78
    24fc:	0000771a 	andeq	r7, r0, sl, lsl r7
    2500:	93590600 	cmpls	r9, #0, 12
    2504:	04935b04 	ldreq	r5, [r3], #2820	; 0xb04
    2508:	00953417 	addseq	r3, r5, r7, lsl r4
    250c:	000c3a00 	andeq	r3, ip, r0, lsl #20
    2510:	0002d800 	andeq	sp, r2, r0, lsl #16
    2514:	50011800 	andpl	r1, r1, r0, lsl #16
    2518:	18007602 	stmdane	r0, {r1, r9, sl, ip, sp, lr}
    251c:	03055101 	movweq	r5, #20737	; 0x5101
    2520:	0000aaa4 	andeq	sl, r0, r4, lsr #21
    2524:	01520118 	cmpeq	r2, r8, lsl r1
    2528:	4c170033 	ldcmi	0, cr0, [r7], {51}	; 0x33
    252c:	3a000095 	bcc	2788 <__code_start__-0x5878>
    2530:	fa00000c 	blx	2568 <__code_start__-0x5a98>
    2534:	18000002 	stmdane	r0, {r1}
    2538:	76025001 	strvc	r5, [r2], -r1
    253c:	51011800 	tstpl	r1, r0, lsl #16
    2540:	aab80305 	bge	fee0315c <__bss_end__+0xfedf7f34>
    2544:	01180000 	tsteq	r8, r0
    2548:	00330152 	eorseq	r0, r3, r2, asr r1
    254c:	00957017 	addseq	r7, r5, r7, lsl r0
    2550:	000c4600 	andeq	r4, ip, r0, lsl #12
    2554:	00031700 	andeq	r1, r3, r0, lsl #14
    2558:	50011800 	andpl	r1, r1, r0, lsl #16
    255c:	aaa80305 	bge	fea03178 <__bss_end__+0xfe9f7f50>
    2560:	01180000 	tsteq	r8, r0
    2564:	007b0251 	rsbseq	r0, fp, r1, asr r2
    2568:	957c1700 	ldrbls	r1, [ip, #-1792]!	; 0xfffff900
    256c:	0c460000 	mareq	acc0, r0, r6
    2570:	03340000 	teqeq	r4, #0, 0
    2574:	01180000 	tsteq	r8, r0
    2578:	b0030550 	andlt	r0, r3, r0, asr r5
    257c:	180000aa 	stmdane	r0, {r1, r3, r5, r7}
    2580:	79025101 	stmdbvc	r2, {r0, r8, ip, lr}
    2584:	8c170000 	ldchi	0, cr0, [r7], {-0}
    2588:	3a000095 	bcc	27e4 <__code_start__-0x581c>
    258c:	5600000c 	strpl	r0, [r0], -ip
    2590:	18000003 	stmdane	r0, {r0, r1}
    2594:	76025001 	strvc	r5, [r2], -r1
    2598:	51011800 	tstpl	r1, r0, lsl #16
    259c:	aaa40305 	bge	fe9031b8 <__bss_end__+0xfe8f7f90>
    25a0:	01180000 	tsteq	r8, r0
    25a4:	00330152 	eorseq	r0, r3, r2, asr r1
    25a8:	0095bc17 	addseq	fp, r5, r7, lsl ip
    25ac:	000aa400 	andeq	sl, sl, r0, lsl #8
    25b0:	00038300 	andeq	r8, r3, r0, lsl #6
    25b4:	50011800 	andpl	r1, r1, r0, lsl #16
    25b8:	01184001 	tsteq	r8, r1
    25bc:	d0910351 	addsle	r0, r1, r1, asr r3
    25c0:	5201187d 	andpl	r1, r1, #8192000	; 0x7d0000
    25c4:	18007b02 	stmdane	r0, {r1, r8, r9, fp, ip, sp, lr}
    25c8:	75025301 	strvc	r5, [r2, #-769]	; 0xfffffcff
    25cc:	7d021800 	stcvc	8, cr1, [r2, #-0]
    25d0:	00760200 	rsbseq	r0, r6, r0, lsl #4
    25d4:	95dc1700 	ldrbls	r1, [ip, #1792]	; 0x700
    25d8:	0aa40000 	beq	fe9025e0 <__bss_end__+0xfe8f73b8>
    25dc:	03aa0000 			; <UNDEFINED> instruction: 0x03aa0000
    25e0:	01180000 	tsteq	r8, r0
    25e4:	18400150 	stmdane	r0, {r4, r6, r8}^
    25e8:	91035101 	tstls	r3, r1, lsl #2
    25ec:	01187ed0 			; <UNDEFINED> instruction: 0x01187ed0
    25f0:	00790252 	rsbseq	r0, r9, r2, asr r2
    25f4:	007d0218 	rsbseq	r0, sp, r8, lsl r2
    25f8:	00007602 	andeq	r7, r0, r2, lsl #12
    25fc:	0095ec17 	addseq	lr, r5, r7, lsl ip
    2600:	000c5200 	andeq	r5, ip, r0, lsl #4
    2604:	0003c600 	andeq	ip, r3, r0, lsl #12
    2608:	50011800 	andpl	r1, r1, r0, lsl #16
    260c:	7dd09103 	ldfvcp	f1, [r0, #12]
    2610:	03510118 	cmpeq	r1, #6
    2614:	007ed291 			; <UNDEFINED> instruction: 0x007ed291
    2618:	00983017 	addseq	r3, r8, r7, lsl r0
    261c:	000c3a00 	andeq	r3, ip, r0, lsl #20
    2620:	0003e800 	andeq	lr, r3, r0, lsl #16
    2624:	50011800 	andpl	r1, r1, r0, lsl #16
    2628:	18007602 	stmdane	r0, {r1, r9, sl, ip, sp, lr}
    262c:	03055101 	movweq	r5, #20737	; 0x5101
    2630:	0000aab8 			; <UNDEFINED> instruction: 0x0000aab8
    2634:	01520118 	cmpeq	r2, r8, lsl r1
    2638:	54170033 	ldrpl	r0, [r7], #-51	; 0xffffffcd
    263c:	a4000098 	strge	r0, [r0], #-152	; 0xffffff68
    2640:	1500000a 	strne	r0, [r0, #-10]
    2644:	18000004 	stmdane	r0, {r2}
    2648:	3a015001 	bcc	56654 <__bss_end__+0x4b42c>
    264c:	03510118 	cmpeq	r1, #6
    2650:	187dd091 	ldmdane	sp!, {r0, r4, r7, ip, lr, pc}^
    2654:	7b025201 	blvc	96e60 <__bss_end__+0x8bc38>
    2658:	53011800 	movwpl	r1, #6144	; 0x1800
    265c:	18007502 	stmdane	r0, {r1, r8, sl, ip, sp, lr}
    2660:	02007d02 	andeq	r7, r0, #128	; 0x80
    2664:	17000076 	smlsdxne	r0, r6, r0, r0
    2668:	00009874 	andeq	r9, r0, r4, ror r8
    266c:	00000aa4 	andeq	r0, r0, r4, lsr #21
    2670:	0000043c 	andeq	r0, r0, ip, lsr r4
    2674:	01500118 	cmpeq	r0, r8, lsl r1
    2678:	5101183a 	tstpl	r1, sl, lsr r8
    267c:	7ed09103 	atnvcs	f1, f3
    2680:	02520118 	subseq	r0, r2, #6
    2684:	02180079 	andseq	r0, r8, #121, 0	; 0x79
    2688:	7602007d 			; <UNDEFINED> instruction: 0x7602007d
    268c:	80170000 	andshi	r0, r7, r0
    2690:	5e000098 	mcrpl	0, 0, r0, cr0, cr8, {4}
    2694:	5a00000c 	bpl	26cc <__code_start__-0x5934>
    2698:	18000004 	stmdane	r0, {r2}
    269c:	91035001 	tstls	r3, r1
    26a0:	01187dd0 			; <UNDEFINED> instruction: 0x01187dd0
    26a4:	08030551 	stmdaeq	r3, {r0, r4, r6, r8, sl}
    26a8:	000000a9 	andeq	r0, r0, r9, lsr #1
    26ac:	00989417 	addseq	r9, r8, r7, lsl r4
    26b0:	000c6a00 	andeq	r6, ip, r0, lsl #20
    26b4:	00047600 	andeq	r7, r4, r0, lsl #12
    26b8:	50011800 	andpl	r1, r1, r0, lsl #16
    26bc:	7dd09103 	ldfvcp	f1, [r0, #12]
    26c0:	03510118 	cmpeq	r1, #6
    26c4:	007ed091 			; <UNDEFINED> instruction: 0x007ed091
    26c8:	0098a019 	addseq	sl, r8, r9, lsl r0
    26cc:	000c5200 	andeq	r5, ip, r0, lsl #4
    26d0:	99641700 	stmdbls	r4!, {r8, r9, sl, ip}^
    26d4:	0c460000 	mareq	acc0, r0, r6
    26d8:	04a80000 	strteq	r0, [r8], #0
    26dc:	01180000 	tsteq	r8, r0
    26e0:	1c030550 	cfstr32ne	mvfx0, [r3], {80}	; 0x50
    26e4:	180000a7 	stmdane	r0, {r0, r1, r2, r5, r7}
    26e8:	03055101 	movweq	r5, #20737	; 0x5101
    26ec:	0000aa58 	andeq	sl, r0, r8, asr sl
    26f0:	05520118 	ldrbeq	r0, [r2, #-280]	; 0xfffffee8
    26f4:	00abb003 	adceq	fp, fp, r3
    26f8:	68190000 	ldmdavs	r9, {}	; <UNPREDICTABLE>
    26fc:	76000099 			; <UNDEFINED> instruction: 0x76000099
    2700:	1700000c 	strne	r0, [r0, -ip]
    2704:	00009980 	andeq	r9, r0, r0, lsl #19
    2708:	00000c46 	andeq	r0, r0, r6, asr #24
    270c:	000004e7 	andeq	r0, r0, r7, ror #9
    2710:	05500118 	ldrbeq	r0, [r0, #-280]	; 0xfffffee8
    2714:	00aaf803 	adceq	pc, sl, r3, lsl #16
    2718:	51011800 	tstpl	r1, r0, lsl #16
    271c:	aa580305 	bge	1603338 <__bss_end__+0x15f8110>
    2720:	01180000 	tsteq	r8, r0
    2724:	b0030552 	andlt	r0, r3, r2, asr r5
    2728:	180000ab 	stmdane	r0, {r0, r1, r3, r5, r7}
    272c:	08025301 	stmdaeq	r2, {r0, r8, r9, ip, lr}
    2730:	7d0218b6 	stcvc	8, cr1, [r2, #-728]	; 0xfffffd28
    2734:	00760200 	rsbseq	r0, r6, r0, lsl #4
    2738:	99841900 	stmibls	r4, {r8, fp, ip}
    273c:	0c760000 	ldcleq	0, cr0, [r6], #-0
    2740:	1a000000 	bne	2748 <__code_start__-0x58b8>
    2744:	000009e3 	andeq	r0, r0, r3, ror #19
    2748:	00009434 	andeq	r9, r0, r4, lsr r4
    274c:	01980004 	orrseq	r0, r8, r4
    2750:	94010000 	strls	r0, [r1], #-0
    2754:	0005150a 	andeq	r1, r5, sl, lsl #10
    2758:	09f41b00 	ldmibeq	r4!, {r8, r9, fp, ip}^
    275c:	12ee0000 	rscne	r0, lr, #0, 0
    2760:	12ea0000 	rscne	r0, sl, #0, 0
    2764:	1a000000 	bne	276c <__code_start__-0x5894>
    2768:	00000895 	muleq	r0, r5, r8
    276c:	0000961c 	andeq	r9, r0, ip, lsl r6
    2770:	01b80001 			; <UNDEFINED> instruction: 0x01b80001
    2774:	dc010000 	stcle	0, cr0, [r1], {-0}
    2778:	00064b09 	andeq	r4, r6, r9, lsl #22
    277c:	08be1b00 	ldmeq	lr!, {r8, r9, fp, ip}
    2780:	131c0000 	tstne	ip, #0, 0
    2784:	13160000 	tstne	r6, #0, 0
    2788:	e01b0000 	ands	r0, fp, r0
    278c:	51000008 	tstpl	r0, r8
    2790:	4b000013 	blmi	27e4 <__code_start__-0x581c>
    2794:	1b000013 	blne	27e8 <__code_start__-0x5818>
    2798:	000008d4 	ldrdeq	r0, [r0], -r4
    279c:	00001383 	andeq	r1, r0, r3, lsl #7
    27a0:	0000137d 	andeq	r1, r0, sp, ror r3
    27a4:	0008c81c 	andeq	ip, r8, ip, lsl r8
    27a8:	08b21b00 	ldmeq	r2!, {r8, r9, fp, ip}
    27ac:	13b40000 			; <UNDEFINED> instruction: 0x13b40000
    27b0:	13ac0000 			; <UNDEFINED> instruction: 0x13ac0000
    27b4:	a61b0000 	ldrge	r0, [fp], -r0
    27b8:	f7000008 			; <UNDEFINED> instruction: 0xf7000008
    27bc:	f1000013 	cps	#19
    27c0:	13000013 	movwne	r0, #19
    27c4:	000001b8 			; <UNDEFINED> instruction: 0x000001b8
    27c8:	0008ec1d 	andeq	lr, r8, sp, lsl ip
    27cc:	d8910300 	ldmle	r1, {r8, r9}
    27d0:	08f81e7e 	ldmeq	r8!, {r1, r2, r3, r4, r5, r6, r9, sl, fp, ip}^
    27d4:	14310000 	ldrtne	r0, [r1], #-0
    27d8:	14230000 	strtne	r0, [r3], #-0
    27dc:	021f0000 	andseq	r0, pc, #0, 0
    27e0:	1a000009 	bne	280c <__code_start__-0x57f4>
    27e4:	000009a3 	andeq	r0, r0, r3, lsr #19
    27e8:	00009628 	andeq	r9, r0, r8, lsr #12
    27ec:	01e80004 	mvneq	r0, r4
    27f0:	7c010000 	stcvc	0, cr0, [r1], {-0}
    27f4:	0005e209 	andeq	lr, r5, r9, lsl #4
    27f8:	09ca1b00 	stmibeq	sl, {r8, r9, fp, ip}^
    27fc:	149b0000 	ldrne	r0, [fp], #0
    2800:	14950000 	ldrne	r0, [r5], #0
    2804:	be1b0000 	cdplt	0, 1, cr0, cr11, cr0, {0}
    2808:	d0000009 	andle	r0, r0, r9
    280c:	c4000014 	strgt	r0, [r0], #-20	; 0xffffffec
    2810:	1b000014 	blne	2868 <__code_start__-0x5798>
    2814:	000009b4 			; <UNDEFINED> instruction: 0x000009b4
    2818:	00001536 	andeq	r1, r0, r6, lsr r5
    281c:	00001526 	andeq	r1, r0, r6, lsr #10
    2820:	0001e813 	andeq	lr, r1, r3, lsl r8
    2824:	09d61e00 	ldmibeq	r6, {r9, sl, fp, ip}^
    2828:	15b30000 	ldrne	r0, [r3, #0]!
    282c:	15a50000 	strne	r0, [r5, #0]!
    2830:	00000000 	andeq	r0, r0, r0
    2834:	00094f20 	andeq	r4, r9, r0, lsr #30
    2838:	0096f000 	addseq	pc, r6, r0
    283c:	18000200 	stmdane	r0, {r9}
    2840:	01000002 	tsteq	r0, r2
    2844:	801b097c 	andshi	r0, fp, ip, ror r9
    2848:	13000009 	movwne	r0, #9
    284c:	0d000016 	stceq	0, cr0, [r0, #-88]	; 0xffffffa8
    2850:	1b000016 	blne	28b0 <__code_start__-0x5750>
    2854:	00000976 	andeq	r0, r0, r6, ror r9
    2858:	00001649 	andeq	r1, r0, r9, asr #12
    285c:	0000163f 	andeq	r1, r0, pc, lsr r6
    2860:	00096c1b 	andeq	r6, r9, fp, lsl ip
    2864:	00169800 	andseq	r9, r6, r0, lsl #16
    2868:	00169400 	andseq	r9, r6, r0, lsl #8
    286c:	09601b00 	stmdbeq	r0!, {r8, r9, fp, ip}^
    2870:	16c80000 	strbne	r0, [r8], r0
    2874:	16ba0000 	ldrtne	r0, [sl], r0
    2878:	18130000 	ldmdane	r3, {}	; <UNPREDICTABLE>
    287c:	1e000002 	cdpne	0, 0, cr0, cr0, cr2, {0}
    2880:	0000098c 	andeq	r0, r0, ip, lsl #19
    2884:	0000172d 	andeq	r1, r0, sp, lsr #14
    2888:	0000172b 	andeq	r1, r0, fp, lsr #14
    288c:	0009981e 	andeq	r9, r9, lr, lsl r8
    2890:	00174700 	andseq	r4, r7, r0, lsl #14
    2894:	00174100 	andseq	r4, r7, r0, lsl #2
    2898:	00000000 	andeq	r0, r0, r0
    289c:	08951a00 	ldmeq	r5, {r9, fp, ip}
    28a0:	972c0000 	strls	r0, [ip, -r0]!
    28a4:	00000000 	andeq	r0, r0, r0
    28a8:	00000248 	andeq	r0, r0, r8, asr #4
    28ac:	8909d601 	stmdbhi	r9, {r0, r9, sl, ip, lr, pc}
    28b0:	1b000007 	blne	28d4 <__code_start__-0x572c>
    28b4:	000008be 			; <UNDEFINED> instruction: 0x000008be
    28b8:	0000177a 	andeq	r1, r0, sl, ror r7
    28bc:	00001776 	andeq	r1, r0, r6, ror r7
    28c0:	0008e01b 	andeq	lr, r8, fp, lsl r0
    28c4:	0017a000 	andseq	sl, r7, r0
    28c8:	00179c00 	andseq	r9, r7, r0, lsl #24
    28cc:	08d41b00 	ldmeq	r4, {r8, r9, fp, ip}^
    28d0:	17c40000 	strbne	r0, [r4, r0]
    28d4:	17c00000 	strbne	r0, [r0, r0]
    28d8:	c81c0000 	ldmdagt	ip, {}	; <UNPREDICTABLE>
    28dc:	1b000008 	blne	2904 <__code_start__-0x56fc>
    28e0:	000008b2 			; <UNDEFINED> instruction: 0x000008b2
    28e4:	000017e8 	andeq	r1, r0, r8, ror #15
    28e8:	000017e2 	andeq	r1, r0, r2, ror #15
    28ec:	0008a61b 	andeq	sl, r8, fp, lsl r6
    28f0:	00181b00 	andseq	r1, r8, r0, lsl #22
    28f4:	00181700 	andseq	r1, r8, r0, lsl #14
    28f8:	02481300 	subeq	r1, r8, #0, 6
    28fc:	ec1d0000 	ldc	0, cr0, [sp], {-0}
    2900:	03000008 	movweq	r0, #8
    2904:	1e7ed891 	mrcne	8, 3, sp, cr14, cr1, {4}
    2908:	000008f8 	strdeq	r0, [r0], -r8
    290c:	00001845 	andeq	r1, r0, r5, asr #16
    2910:	0000183b 	andeq	r1, r0, fp, lsr r8
    2914:	0009021e 	andeq	r0, r9, lr, lsl r2
    2918:	00188a00 	andseq	r8, r8, r0, lsl #20
    291c:	00188600 	andseq	r8, r8, r0, lsl #12
    2920:	09a31a00 	stmibeq	r3!, {r9, fp, ip}
    2924:	97480000 	strbls	r0, [r8, -r0]
    2928:	00030000 	andeq	r0, r3, r0
    292c:	00000268 	andeq	r0, r0, r8, ror #4
    2930:	20097c01 	andcs	r7, r9, r1, lsl #24
    2934:	1b000007 	blne	2958 <__code_start__-0x56a8>
    2938:	000009ca 	andeq	r0, r0, sl, asr #19
    293c:	000018ac 	andeq	r1, r0, ip, lsr #17
    2940:	000018a8 	andeq	r1, r0, r8, lsr #17
    2944:	0009be1b 	andeq	fp, r9, fp, lsl lr
    2948:	0018ce00 	andseq	ip, r8, r0, lsl #28
    294c:	0018ca00 	andseq	ip, r8, r0, lsl #20
    2950:	09b41b00 	ldmibeq	r4!, {r8, r9, fp, ip}
    2954:	18f80000 	ldmne	r8!, {}^	; <UNPREDICTABLE>
    2958:	18ec0000 	stmiane	ip!, {}^	; <UNPREDICTABLE>
    295c:	68130000 	ldmdavs	r3, {}	; <UNPREDICTABLE>
    2960:	1e000002 	cdpne	0, 0, cr0, cr0, cr2, {0}
    2964:	000009d6 	ldrdeq	r0, [r0], -r6
    2968:	00001954 	andeq	r1, r0, r4, asr r9
    296c:	00001948 	andeq	r1, r0, r8, asr #18
    2970:	4f200000 	svcmi	0x00200000
    2974:	d0000009 	andle	r0, r0, r9
    2978:	02000097 	andeq	r0, r0, #151, 0	; 0x97
    297c:	00029000 	andeq	r9, r2, r0
    2980:	097c0100 	ldmdbeq	ip!, {r8}^
    2984:	0009801b 	andeq	r8, r9, fp, lsl r0
    2988:	0019a400 	andseq	sl, r9, r0, lsl #8
    298c:	0019a000 	andseq	sl, r9, r0
    2990:	09761b00 	ldmdbeq	r6!, {r8, r9, fp, ip}^
    2994:	19cc0000 	stmibne	ip, {}^	; <UNPREDICTABLE>
    2998:	19c20000 	stmibne	r2, {}^	; <UNPREDICTABLE>
    299c:	6c1b0000 	ldcvs	0, cr0, [fp], {-0}
    29a0:	18000009 	stmdane	r0, {r0, r3}
    29a4:	1400001a 	strne	r0, [r0], #-26	; 0xffffffe6
    29a8:	1b00001a 	blne	2a18 <__code_start__-0x55e8>
    29ac:	00000960 	andeq	r0, r0, r0, ror #18
    29b0:	00001a46 	andeq	r1, r0, r6, asr #20
    29b4:	00001a3a 	andeq	r1, r0, sl, lsr sl
    29b8:	00029013 	andeq	r9, r2, r3, lsl r0
    29bc:	098c1e00 	stmibeq	ip, {r9, sl, fp, ip}
    29c0:	1aa00000 	bne	fe8029c8 <__bss_end__+0xfe7f77a0>
    29c4:	1a9c0000 	bne	fe7029cc <__bss_end__+0xfe6f77a4>
    29c8:	981e0000 	ldmdals	lr, {}	; <UNPREDICTABLE>
    29cc:	c6000009 	strgt	r0, [r0], -r9
    29d0:	c200001a 	andgt	r0, r0, #26, 0
    29d4:	0000001a 	andeq	r0, r0, sl, lsl r0
    29d8:	17000000 	strne	r0, [r0, -r0]
    29dc:	000094fc 	strdeq	r9, [r0], -ip
    29e0:	00000aa4 	andeq	r0, r0, r4, lsr #21
    29e4:	000007af 	andeq	r0, r0, pc, lsr #15
    29e8:	01500118 	cmpeq	r0, r8, lsl r1
    29ec:	51011840 	tstpl	r1, r0, asr #16
    29f0:	7dd09103 	ldfvcp	f1, [r0, #12]
    29f4:	02530118 	subseq	r0, r3, #6
    29f8:	02180075 	andseq	r0, r8, #117, 0	; 0x75
    29fc:	3001007d 	andcc	r0, r1, sp, ror r0
    2a00:	960c1700 	strls	r1, [ip], -r0, lsl #14
    2a04:	0aa40000 	beq	fe902a0c <__bss_end__+0xfe8f77e4>
    2a08:	07cf0000 	strbeq	r0, [pc, r0]
    2a0c:	01180000 	tsteq	r8, r0
    2a10:	183a0150 	ldmdane	sl!, {r4, r6, r8}
    2a14:	91035101 	tstls	r3, r1, lsl #2
    2a18:	01187dd0 			; <UNDEFINED> instruction: 0x01187dd0
    2a1c:	00750253 	rsbseq	r0, r5, r3, asr r2
    2a20:	98f01700 	ldmls	r0!, {r8, r9, sl, ip}^
    2a24:	0c460000 	mareq	acc0, r0, r6
    2a28:	07e60000 	strbeq	r0, [r6, r0]!
    2a2c:	01180000 	tsteq	r8, r0
    2a30:	48030550 	stmdami	r3, {r4, r6, r8, sl}
    2a34:	000000ab 	andeq	r0, r0, fp, lsr #1
    2a38:	00990021 	addseq	r0, r9, r1, lsr #32
    2a3c:	0007f800 	andeq	pc, r7, r0, lsl #16
    2a40:	50011800 	andpl	r1, r1, r0, lsl #16
    2a44:	7dc89104 	stfvcp	f1, [r8, #16]
    2a48:	14170006 	ldrne	r0, [r7], #-6
    2a4c:	46000099 			; <UNDEFINED> instruction: 0x46000099
    2a50:	2700000c 	strcs	r0, [r0, -ip]
    2a54:	18000008 	stmdane	r0, {r3}
    2a58:	03055001 	movweq	r5, #20481	; 0x5001
    2a5c:	0000ab78 	andeq	sl, r0, r8, ror fp
    2a60:	05510118 	ldrbeq	r0, [r1, #-280]	; 0xfffffee8
    2a64:	00aa5803 	adceq	r5, sl, r3, lsl #16
    2a68:	52011800 	andpl	r1, r1, #0, 16
    2a6c:	abb00305 	blge	fec03688 <__bss_end__+0xfebf8460>
    2a70:	01180000 	tsteq	r8, r0
    2a74:	e2080253 	and	r0, r8, #805306373	; 0x30000005
    2a78:	99181900 	ldmdbls	r8, {r8, fp, ip}
    2a7c:	0c760000 	ldcleq	0, cr0, [r6], #-0
    2a80:	2c170000 	ldccs	0, cr0, [r7], {-0}
    2a84:	46000099 			; <UNDEFINED> instruction: 0x46000099
    2a88:	5f00000c 	svcpl	0x0000000c
    2a8c:	18000008 	stmdane	r0, {r3}
    2a90:	03055001 	movweq	r5, #20481	; 0x5001
    2a94:	0000ab20 	andeq	sl, r0, r0, lsr #22
    2a98:	05510118 	ldrbeq	r0, [r1, #-280]	; 0xfffffee8
    2a9c:	00aa5803 	adceq	r5, sl, r3, lsl #16
    2aa0:	52011800 	andpl	r1, r1, #0, 16
    2aa4:	abb00305 	blge	fec036c0 <__bss_end__+0xfebf8498>
    2aa8:	01180000 	tsteq	r8, r0
    2aac:	be080253 	mcrlt	2, 0, r0, cr8, cr3, {2}
    2ab0:	99301900 	ldmdbls	r0!, {r8, fp, ip}
    2ab4:	0c760000 	ldcleq	0, cr0, [r6], #-0
    2ab8:	00000000 	andeq	r0, r0, r0
    2abc:	00b90408 	adcseq	r0, r9, r8, lsl #8
    2ac0:	c0220000 	eorgt	r0, r2, r0
    2ac4:	80000000 	andhi	r0, r0, r0
    2ac8:	23000008 	movwcs	r0, #8
    2acc:	0000002c 	andeq	r0, r0, ip, lsr #32
    2ad0:	70090009 	andvc	r0, r9, r9
    2ad4:	22000008 	andcs	r0, r0, #8, 0
    2ad8:	000000b9 	strheq	r0, [r0], -r9
    2adc:	00000895 	muleq	r0, r5, r8
    2ae0:	00002c23 	andeq	r2, r0, r3, lsr #24
    2ae4:	24007f00 	strcs	r7, [r0], #-3840	; 0xfffff100
    2ae8:	0000070c 	andeq	r0, r0, ip, lsl #14
    2aec:	6a014901 	bvs	54ef8 <__bss_end__+0x49cd0>
    2af0:	01000008 	tsteq	r0, r8
    2af4:	0000092a 	andeq	r0, r0, sl, lsr #18
    2af8:	0003b325 	andeq	fp, r3, r5, lsr #6
    2afc:	0f490100 	svceq	0x00490100
    2b00:	0000002c 	andeq	r0, r0, ip, lsr #32
    2b04:	74736426 	ldrbtvc	r6, [r3], #-1062	; 0xfffffbda
    2b08:	1b490100 	blne	1242f10 <__bss_end__+0x1237ce8>
    2b0c:	0000086a 	andeq	r0, r0, sl, ror #16
    2b10:	01006e26 	tsteq	r0, r6, lsr #28
    2b14:	00332449 	eorseq	r2, r3, r9, asr #8
    2b18:	76260000 	strtvc	r0, [r6], -r0
    2b1c:	01006c61 	tsteq	r0, r1, ror #24
    2b20:	00332b49 	eorseq	r2, r3, r9, asr #22
    2b24:	c4250000 	strtgt	r0, [r5], #-0
    2b28:	01000006 	tsteq	r0, r6
    2b2c:	00333449 	eorseq	r3, r3, r9, asr #8
    2b30:	42250000 	eormi	r0, r5, #0, 0
    2b34:	01000007 	tsteq	r0, r7
    2b38:	00333f49 	eorseq	r3, r3, r9, asr #30
    2b3c:	62270000 	eorvs	r0, r7, #0, 0
    2b40:	01006675 	tsteq	r0, r5, ror r6
    2b44:	092a074e 	stmdbeq	sl!, {r1, r2, r3, r6, r8, r9, sl}
    2b48:	70270000 	eorvc	r0, r7, r0
    2b4c:	114e0100 	mrsne	r0, (UNDEF: 94)
    2b50:	0000086a 	andeq	r0, r0, sl, ror #16
    2b54:	01007527 	tsteq	r0, r7, lsr #10
    2b58:	002c0b4f 	eoreq	r0, ip, pc, asr #22
    2b5c:	e1120000 	tst	r2, r0
    2b60:	4a000001 	bmi	2b6c <__code_start__-0x5494>
    2b64:	05000009 	streq	r0, [r0, #-9]
    2b68:	00ab9803 	adceq	r9, fp, r3, lsl #16
    2b6c:	f9292800 			; <UNDEFINED> instruction: 0xf9292800
    2b70:	01000006 	tsteq	r0, r6
    2b74:	002c0d54 	eoreq	r0, ip, r4, asr sp
    2b78:	00000000 	andeq	r0, r0, r0
    2b7c:	0000b922 	andeq	fp, r0, r2, lsr #18
    2b80:	00093a00 	andeq	r3, r9, r0, lsl #20
    2b84:	002c2300 	eoreq	r2, ip, r0, lsl #6
    2b88:	003f0000 	eorseq	r0, pc, r0
    2b8c:	0000c022 	andeq	ip, r0, r2, lsr #32
    2b90:	00094a00 	andeq	r4, r9, r0, lsl #20
    2b94:	002c2300 	eoreq	r2, ip, r0, lsl #6
    2b98:	00040000 	andeq	r0, r4, r0
    2b9c:	00093a09 	andeq	r3, r9, r9, lsl #20
    2ba0:	07112400 	ldreq	r2, [r1, -r0, lsl #8]
    2ba4:	38010000 	stmdacc	r1, {}	; <UNPREDICTABLE>
    2ba8:	00086a0e 	andeq	r6, r8, lr, lsl #20
    2bac:	09a30100 	stmibeq	r3!, {r8}
    2bb0:	64260000 	strtvs	r0, [r6], #-0
    2bb4:	01007473 	tsteq	r0, r3, ror r4
    2bb8:	086a1c38 	stmdaeq	sl!, {r3, r4, r5, sl, fp, ip}^
    2bbc:	6e260000 	cdpvs	0, 2, cr0, cr6, cr0, {0}
    2bc0:	25380100 	ldrcs	r0, [r8, #-256]!	; 0xffffff00
    2bc4:	00000033 	andeq	r0, r0, r3, lsr r0
    2bc8:	01007026 	tsteq	r0, r6, lsr #32
    2bcc:	086a2e38 	stmdaeq	sl!, {r3, r4, r5, r9, sl, fp, sp}^
    2bd0:	f1250000 			; <UNDEFINED> instruction: 0xf1250000
    2bd4:	0100000a 	tsteq	r0, sl
    2bd8:	086a3738 	stmdaeq	sl!, {r3, r4, r5, r8, r9, sl, ip, sp}^
    2bdc:	6c270000 	stcvs	0, cr0, [r7], #-0
    2be0:	01006e65 	tsteq	r0, r5, ror #28
    2be4:	0033063a 	eorseq	r0, r3, sl, lsr r6
    2be8:	73270000 			; <UNDEFINED> instruction: 0x73270000
    2bec:	083e0100 	ldmdaeq	lr!, {r8}
    2bf0:	0000086a 	andeq	r0, r0, sl, ror #16
    2bf4:	61702a00 	cmnvs	r0, r0, lsl #20
    2bf8:	2e010064 	cdpcs	0, 0, cr0, cr1, cr4, {3}
    2bfc:	00086a0e 	andeq	r6, r8, lr, lsl #20
    2c00:	09e30100 	stmibeq	r3!, {r8}^
    2c04:	70260000 	eorvc	r0, r6, r0
    2c08:	182e0100 	stmdane	lr!, {r8}
    2c0c:	0000086a 	andeq	r0, r0, sl, ror #16
    2c10:	0003b325 	andeq	fp, r3, r5, lsr #6
    2c14:	222e0100 	eorcs	r0, lr, #0
    2c18:	0000086a 	andeq	r0, r0, sl, ror #16
    2c1c:	0006c425 	andeq	ip, r6, r5, lsr #8
    2c20:	2c2e0100 	stfcss	f0, [lr], #-0
    2c24:	00000033 	andeq	r0, r0, r3, lsr r0
    2c28:	6e656c27 	cdpvs	12, 6, cr6, cr5, cr7, {1}
    2c2c:	062f0100 	strteq	r0, [pc], -r0, lsl #2
    2c30:	00000033 	andeq	r0, r0, r3, lsr r0
    2c34:	06912400 	ldreq	r2, [r1], r0, lsl #8
    2c38:	27010000 	strcs	r0, [r1, -r0]
    2c3c:	0000330c 	andeq	r3, r0, ip, lsl #6
    2c40:	09ff0100 	ldmibeq	pc!, {r8}^	; <UNPREDICTABLE>
    2c44:	63260000 			; <UNDEFINED> instruction: 0x63260000
    2c48:	18270100 	stmdane	r7!, {r8}
    2c4c:	00000033 	andeq	r0, r0, r3, lsr r0
    2c50:	06d22b00 	ldrbeq	r2, [r2], r0, lsl #22
    2c54:	1f010000 	svcne	0x00010000
    2c58:	00934806 	addseq	r4, r3, r6, lsl #16
    2c5c:	00006000 	andeq	r6, r0, r0
    2c60:	8f9c0100 	svchi	0x009c0100
    2c64:	0f00000a 	svceq	0x0000000a
    2c68:	000006ca 	andeq	r0, r0, sl, asr #13
    2c6c:	9e1b1f01 	cdpls	15, 1, cr1, cr11, cr1, {0}
    2c70:	eb000000 	bl	2c78 <__code_start__-0x5388>
    2c74:	e700001a 	smlad	r0, sl, r0, r0
    2c78:	0f00001a 	svceq	0x0000001a
    2c7c:	00000720 	andeq	r0, r0, r0, lsr #14
    2c80:	d1301f01 	teqle	r0, r1, lsl #30
    2c84:	10000000 	andne	r0, r0, r0
    2c88:	0c00001b 	stceq	0, cr0, [r0], {27}
    2c8c:	1200001b 	andne	r0, r0, #27, 0
    2c90:	000001e1 	andeq	r0, r0, r1, ror #3
    2c94:	00000a9f 	muleq	r0, pc, sl	; <UNPREDICTABLE>
    2c98:	aba00305 	blge	fe8038b4 <__bss_end__+0xfe7f868c>
    2c9c:	8c170000 	ldchi	0, cr0, [r7], {-0}
    2ca0:	46000093 			; <UNDEFINED> instruction: 0x46000093
    2ca4:	8500000c 	strhi	r0, [r0, #-12]
    2ca8:	1800000a 	stmdane	r0, {r1, r3}
    2cac:	03055001 	movweq	r5, #20481	; 0x5001
    2cb0:	0000a71c 	andeq	sl, r0, ip, lsl r7
    2cb4:	05510118 	ldrbeq	r0, [r1, #-280]	; 0xfffffee8
    2cb8:	00aa5803 	adceq	r5, sl, r3, lsl #16
    2cbc:	52011800 	andpl	r1, r1, #0, 16
    2cc0:	aba00305 	blge	fe8038dc <__bss_end__+0xfe7f86b4>
    2cc4:	01180000 	tsteq	r8, r0
    2cc8:	20080253 	andcs	r0, r8, r3, asr r2
    2ccc:	007d0218 	rsbseq	r0, sp, r8, lsl r2
    2cd0:	aa900305 	bge	fe4038ec <__bss_end__+0xfe3f86c4>
    2cd4:	19000000 	stmdbne	r0, {}	; <UNPREDICTABLE>
    2cd8:	00009390 	muleq	r0, r0, r3
    2cdc:	00000c76 	andeq	r0, r0, r6, ror ip
    2ce0:	00c02200 	sbceq	r2, r0, r0, lsl #4
    2ce4:	0a9f0000 	beq	fe7c2cec <__bss_end__+0xfe7b7ac4>
    2ce8:	2c230000 	stccs	0, cr0, [r3], #-0
    2cec:	0e000000 	cdpeq	0, 0, cr0, cr0, cr0, {0}
    2cf0:	0a8f0900 	beq	fe3c50f8 <__bss_end__+0xfe3b9ed0>
    2cf4:	952c0000 	strls	r0, [ip, #-0]!
    2cf8:	20000008 	andcs	r0, r0, r8
    2cfc:	28000090 	stmdacs	r0, {r4, r7}
    2d00:	01000003 	tsteq	r0, r3
    2d04:	000c3a9c 	muleq	ip, ip, sl
    2d08:	08a61b00 	stmiaeq	r6!, {r8, r9, fp, ip}
    2d0c:	1b490000 	blne	1242d14 <__bss_end__+0x1237aec>
    2d10:	1b310000 	blne	c42d18 <__bss_end__+0xc37af0>
    2d14:	b21b0000 	andslt	r0, fp, #0, 0
    2d18:	f3000008 	vhadd.u8	d0, d0, d8
    2d1c:	eb00001b 	bl	2d90 <__code_start__-0x5270>
    2d20:	1b00001b 	blne	2d94 <__code_start__-0x526c>
    2d24:	000008c8 	andeq	r0, r0, r8, asr #17
    2d28:	00001c4a 	andeq	r1, r0, sl, asr #24
    2d2c:	00001c2a 	andeq	r1, r0, sl, lsr #24
    2d30:	0008d41b 	andeq	sp, r8, fp, lsl r4
    2d34:	001d2000 	andseq	r2, sp, r0
    2d38:	001d1200 	andseq	r1, sp, r0, lsl #4
    2d3c:	08e02d00 	stmiaeq	r0!, {r8, sl, fp, sp}^
    2d40:	91020000 	mrsls	r0, (UNDEF: 2)
    2d44:	08ec1d00 	stmiaeq	ip!, {r8, sl, fp, ip}^
    2d48:	91030000 	mrsls	r0, (UNDEF: 3)
    2d4c:	f81e7fa8 			; <UNDEFINED> instruction: 0xf81e7fa8
    2d50:	b4000008 	strlt	r0, [r0], #-8
    2d54:	8000001d 	andhi	r0, r0, sp, lsl r0
    2d58:	1e00001d 	mcrne	0, 0, r0, cr0, cr13, {0}
    2d5c:	00000902 	andeq	r0, r0, r2, lsl #18
    2d60:	00001f1b 	andeq	r1, r0, fp, lsl pc
    2d64:	00001ef9 	strdeq	r1, [r0], -r9
    2d68:	0008be2e 	andeq	fp, r8, lr, lsr #28
    2d6c:	a31a8000 	tstge	sl, #0, 0
    2d70:	c4000009 	strgt	r0, [r0], #-9
    2d74:	04000090 	streq	r0, [r0], #-144	; 0xffffff70
    2d78:	0000e000 	andeq	lr, r0, r0
    2d7c:	097c0100 	ldmdbeq	ip!, {r8}^
    2d80:	00000b6d 	andeq	r0, r0, sp, ror #22
    2d84:	0009ca1b 	andeq	ip, r9, fp, lsl sl
    2d88:	00200300 	eoreq	r0, r0, r0, lsl #6
    2d8c:	001ff900 	andseq	pc, pc, r0, lsl #18
    2d90:	09be1b00 	ldmibeq	lr!, {r8, r9, fp, ip}
    2d94:	20570000 	subscs	r0, r7, r0
    2d98:	20470000 	subcs	r0, r7, r0
    2d9c:	b41b0000 	ldrlt	r0, [fp], #-0
    2da0:	d7000009 	strle	r0, [r0, -r9]
    2da4:	c3000020 	movwgt	r0, #32
    2da8:	13000020 	movwne	r0, #32
    2dac:	000000e0 	andeq	r0, r0, r0, ror #1
    2db0:	0009d61e 	andeq	sp, r9, lr, lsl r6
    2db4:	00216900 	eoreq	r6, r1, r0, lsl #18
    2db8:	00215900 	eoreq	r5, r1, r0, lsl #18
    2dbc:	1a000000 	bne	2dc4 <__code_start__-0x523c>
    2dc0:	0000094f 	andeq	r0, r0, pc, asr #18
    2dc4:	0000917c 	andeq	r9, r0, ip, ror r1
    2dc8:	01280002 			; <UNDEFINED> instruction: 0x01280002
    2dcc:	7c010000 	stcvc	0, cr0, [r1], {-0}
    2dd0:	000bd809 	andeq	sp, fp, r9, lsl #16
    2dd4:	09801b00 	stmibeq	r0, {r8, r9, fp, ip}
    2dd8:	21d50000 	bicscs	r0, r5, r0
    2ddc:	21cd0000 	biccs	r0, sp, r0
    2de0:	761b0000 	ldrvc	r0, [fp], -r0
    2de4:	14000009 	strne	r0, [r0], #-9
    2de8:	0c000022 	stceq	0, cr0, [r0], {34}	; 0x22
    2dec:	1b000022 	blne	2e7c <__code_start__-0x5184>
    2df0:	0000096c 	andeq	r0, r0, ip, ror #18
    2df4:	00002253 	andeq	r2, r0, r3, asr r2
    2df8:	0000224f 	andeq	r2, r0, pc, asr #4
    2dfc:	0009601b 	andeq	r6, r9, fp, lsl r0
    2e00:	00228300 	eoreq	r8, r2, r0, lsl #6
    2e04:	00227500 	eoreq	r7, r2, r0, lsl #10
    2e08:	01281300 			; <UNDEFINED> instruction: 0x01281300
    2e0c:	8c1e0000 	ldchi	0, cr0, [lr], {-0}
    2e10:	e8000009 	stmda	r0, {r0, r3}
    2e14:	e2000022 	and	r0, r0, #34, 0	; 0x22
    2e18:	1e000022 	cdpne	0, 0, cr0, cr0, cr2, {1}
    2e1c:	00000998 	muleq	r0, r8, r9
    2e20:	0000231a 	andeq	r2, r0, sl, lsl r3
    2e24:	00002316 	andeq	r2, r0, r6, lsl r3
    2e28:	1b2f0000 	blne	bc2e30 <__bss_end__+0xbb7c08>
    2e2c:	34000009 	strcc	r0, [r0], #-9
    2e30:	60000092 	mulvs	r0, r2, r0
    2e34:	f7000000 			; <UNDEFINED> instruction: 0xf7000000
    2e38:	1e00000b 	cdpne	0, 0, cr0, cr0, cr11, {0}
    2e3c:	0000091c 	andeq	r0, r0, ip, lsl r9
    2e40:	0000233c 	andeq	r2, r0, ip, lsr r3
    2e44:	00002338 	andeq	r2, r0, r8, lsr r3
    2e48:	93081700 	movwls	r1, #34560	; 0x8700
    2e4c:	0c460000 	mareq	acc0, r0, r6
    2e50:	0c300000 	ldceq	0, cr0, [r0], #-0
    2e54:	01180000 	tsteq	r8, r0
    2e58:	1c030550 	cfstr32ne	mvfx0, [r3], {80}	; 0x50
    2e5c:	180000a7 	stmdane	r0, {r0, r1, r2, r5, r7}
    2e60:	03055101 	movweq	r5, #20737	; 0x5101
    2e64:	0000aa58 	andeq	sl, r0, r8, asr sl
    2e68:	05520118 	ldrbeq	r0, [r2, #-280]	; 0xfffffee8
    2e6c:	00ab9803 	adceq	r9, fp, r3, lsl #16
    2e70:	53011800 	movwpl	r1, #6144	; 0x1800
    2e74:	18790802 	ldmdane	r9!, {r1, fp}^
    2e78:	05007d02 	streq	r7, [r0, #-3330]	; 0xfffff2fe
    2e7c:	00a90803 	adceq	r0, r9, r3, lsl #16
    2e80:	0c190000 	ldceq	0, cr0, [r9], {-0}
    2e84:	76000093 			; <UNDEFINED> instruction: 0x76000093
    2e88:	0000000c 	andeq	r0, r0, ip
    2e8c:	00073a30 	andeq	r3, r7, r0, lsr sl
    2e90:	00073a00 	andeq	r3, r7, r0, lsl #20
    2e94:	05eb0300 	strbeq	r0, [fp, #768]!	; 0x300
    2e98:	00064030 	andeq	r4, r6, r0, lsr r0
    2e9c:	00064000 	andeq	r4, r6, r0
    2ea0:	06280300 	strteq	r0, [r8], -r0, lsl #6
    2ea4:	0006eb30 	andeq	lr, r6, r0, lsr fp
    2ea8:	0006eb00 	andeq	lr, r6, r0, lsl #22
    2eac:	07ee0300 	strbeq	r0, [lr, r0, lsl #6]!
    2eb0:	00071930 	andeq	r1, r7, r0, lsr r9
    2eb4:	00071900 	andeq	r1, r7, r0, lsl #18
    2eb8:	05ea0300 	strbeq	r0, [sl, #768]!	; 0x300
    2ebc:	0006f230 	andeq	pc, r6, r0, lsr r2	; <UNPREDICTABLE>
    2ec0:	0006f200 	andeq	pc, r6, r0, lsl #4
    2ec4:	07ed0300 	strbeq	r0, [sp, r0, lsl #6]!
    2ec8:	00008a30 	andeq	r8, r0, r0, lsr sl
    2ecc:	00008a00 	andeq	r8, r0, r0, lsl #20
    2ed0:	066e0300 	strbteq	r0, [lr], -r0, lsl #6
    2ed4:	00012f00 	andeq	r2, r1, r0, lsl #30
    2ed8:	93000400 	movwls	r0, #1024	; 0x400
    2edc:	0400000f 	streq	r0, [r0], #-15
    2ee0:	00051801 	andeq	r1, r5, r1, lsl #16
    2ee4:	075f0c00 	ldrbeq	r0, [pc, -r0, lsl #24]
    2ee8:	05de0000 	ldrbeq	r0, [lr]
    2eec:	99d40000 	ldmibls	r4, {}^	; <UNPREDICTABLE>
    2ef0:	002c0000 	eoreq	r0, ip, r0
    2ef4:	19e50000 	stmibne	r5!, {}^	; <UNPREDICTABLE>
    2ef8:	04020000 	streq	r0, [r2], #-0
    2efc:	746e6905 	strbtvc	r6, [lr], #-2309	; 0xfffff6fb
    2f00:	07040300 	streq	r0, [r4, -r0, lsl #6]
    2f04:	00000207 	andeq	r0, r0, r7, lsl #4
    2f08:	7e060103 	adfvcs	f0, f6, f3
    2f0c:	03000000 	movweq	r0, #0
    2f10:	02400502 	subeq	r0, r0, #8388608	; 0x800000
    2f14:	04030000 	streq	r0, [r3], #-0
    2f18:	00022b05 	andeq	r2, r2, r5, lsl #22
    2f1c:	05080300 	streq	r0, [r8, #-768]	; 0xfffffd00
    2f20:	00000226 	andeq	r0, r0, r6, lsr #4
    2f24:	7c080103 	stfvcs	f0, [r8], {3}
    2f28:	03000000 	movweq	r0, #0
    2f2c:	00970702 	addseq	r0, r7, r2, lsl #14
    2f30:	04030000 	streq	r0, [r3], #-0
    2f34:	00020207 	andeq	r0, r2, r7, lsl #4
    2f38:	07080300 	streq	r0, [r8, -r0, lsl #6]
    2f3c:	000001fd 	strdeq	r0, [r0], -sp
    2f40:	00002504 	andeq	r2, r0, r4, lsl #10
    2f44:	00007a00 	andeq	r7, r0, r0, lsl #20
    2f48:	00250500 	eoreq	r0, r5, r0, lsl #10
    2f4c:	06000000 	streq	r0, [r0], -r0
    2f50:	00000234 	andeq	r0, r0, r4, lsr r2
    2f54:	860e1c02 	strhi	r1, [lr], -r2, lsl #24
    2f58:	07000000 	streq	r0, [r0, -r0]
    2f5c:	00006b04 	andeq	r6, r0, r4, lsl #22
    2f60:	00250400 	eoreq	r0, r5, r0, lsl #8
    2f64:	009b0000 	addseq	r0, fp, r0
    2f68:	9b050000 	blls	142f70 <__bss_end__+0x137d48>
    2f6c:	00000000 	andeq	r0, r0, r0
    2f70:	00a80407 	adceq	r0, r8, r7, lsl #8
    2f74:	01030000 	mrseq	r0, (UNDEF: 3)
    2f78:	00008508 	andeq	r8, r0, r8, lsl #10
    2f7c:	00a10800 	adceq	r0, r1, r0, lsl #16
    2f80:	7e060000 	cdpvc	0, 0, cr0, cr6, cr0, {0}
    2f84:	02000006 	andeq	r0, r0, #6, 0
    2f88:	00b90e21 	adcseq	r0, r9, r1, lsr #28
    2f8c:	04070000 	streq	r0, [r7], #-0
    2f90:	0000008c 	andeq	r0, r0, ip, lsl #1
    2f94:	00008a09 	andeq	r8, r0, r9, lsl #20
    2f98:	06040100 	streq	r0, [r4], -r0, lsl #2
    2f9c:	000099d4 	ldrdeq	r9, [r0], -r4
    2fa0:	0000002c 	andeq	r0, r0, ip, lsr #32
    2fa4:	010e9c01 	tsteq	lr, r1, lsl #24
    2fa8:	e80a0000 	stmda	sl, {}	; <UNPREDICTABLE>
    2fac:	e8000099 	stmda	r0, {r0, r3, r4, r7}
    2fb0:	0b000000 	bleq	2fb8 <__code_start__-0x5048>
    2fb4:	03055001 	movweq	r5, #20481	; 0x5001
    2fb8:	0000abbc 			; <UNDEFINED> instruction: 0x0000abbc
    2fbc:	99ec0c00 	stmibls	ip!, {sl, fp}^
    2fc0:	010e0000 	mrseq	r0, (UNDEF: 14)
    2fc4:	f40d0000 	vst4.8	{d0-d3}, [sp], r0
    2fc8:	1a000099 	bne	3234 <__code_start__-0x4dcc>
    2fcc:	04000001 	streq	r0, [r0], #-1
    2fd0:	0b000001 	bleq	2fdc <__code_start__-0x5024>
    2fd4:	3a015001 	bcc	56fe0 <__bss_end__+0x4bdb8>
    2fd8:	99f80c00 	ldmibls	r8!, {sl, fp}^
    2fdc:	01260000 			; <UNDEFINED> instruction: 0x01260000
    2fe0:	0e000000 	cdpeq	0, 0, cr0, cr0, cr0, {0}
    2fe4:	0000077a 	andeq	r0, r0, sl, ror r7
    2fe8:	0000077a 	andeq	r0, r0, sl, ror r7
    2fec:	0e064d02 	cdpeq	13, 0, cr4, cr6, cr2, {0}
    2ff0:	00000756 	andeq	r0, r0, r6, asr r7
    2ff4:	00000756 	andeq	r0, r0, r6, asr r7
    2ff8:	0e065802 	cdpeq	8, 0, cr5, cr6, cr2, {0}
    2ffc:	0000074b 	andeq	r0, r0, fp, asr #14
    3000:	0000074b 	andeq	r0, r0, fp, asr #14
    3004:	00066b02 	andeq	r6, r6, r2, lsl #22
    3008:	000002b1 			; <UNDEFINED> instruction: 0x000002b1
    300c:	10530004 	subsne	r0, r3, r4
    3010:	01040000 	mrseq	r0, (UNDEF: 4)
    3014:	00000518 	andeq	r0, r0, r8, lsl r5
    3018:	0007b00c 	andeq	fp, r7, ip
    301c:	0005de00 	andeq	sp, r5, r0, lsl #28
    3020:	009a0000 	addseq	r0, sl, r0
    3024:	00012800 	andeq	r2, r1, r0, lsl #16
    3028:	001a7000 	andseq	r7, sl, r0
    302c:	05040200 	streq	r0, [r4, #-512]	; 0xfffffe00
    3030:	00746e69 	rsbseq	r6, r4, r9, ror #28
    3034:	07070403 	streq	r0, [r7, -r3, lsl #8]
    3038:	03000002 	movweq	r0, #2
    303c:	007e0601 	rsbseq	r0, lr, r1, lsl #12
    3040:	02030000 	andeq	r0, r3, #0, 0
    3044:	00024005 	andeq	r4, r2, r5
    3048:	05040300 	streq	r0, [r4, #-768]	; 0xfffffd00
    304c:	0000022b 	andeq	r0, r0, fp, lsr #4
    3050:	26050803 	strcs	r0, [r5], -r3, lsl #16
    3054:	03000002 	movweq	r0, #2
    3058:	007c0801 	rsbseq	r0, ip, r1, lsl #16
    305c:	02030000 	andeq	r0, r3, #0, 0
    3060:	00009707 	andeq	r9, r0, r7, lsl #14
    3064:	07040300 	streq	r0, [r4, -r0, lsl #6]
    3068:	00000202 	andeq	r0, r0, r2, lsl #4
    306c:	fd070803 	stc2	8, cr0, [r7, #-12]
    3070:	04000001 	streq	r0, [r0], #-1
    3074:	00000025 	andeq	r0, r0, r5, lsr #32
    3078:	0000007a 	andeq	r0, r0, sl, ror r0
    307c:	00002505 	andeq	r2, r0, r5, lsl #10
    3080:	34060000 	strcc	r0, [r6], #-0
    3084:	02000002 	andeq	r0, r0, #2, 0
    3088:	00860e1c 	addeq	r0, r6, ip, lsl lr
    308c:	04070000 	streq	r0, [r7], #-0
    3090:	0000006b 	andeq	r0, r0, fp, rrx
    3094:	00002504 	andeq	r2, r0, r4, lsl #10
    3098:	00009b00 	andeq	r9, r0, r0, lsl #22
    309c:	009b0500 	addseq	r0, fp, r0, lsl #10
    30a0:	07000000 	streq	r0, [r0, -r0]
    30a4:	0000a804 	andeq	sl, r0, r4, lsl #16
    30a8:	08010300 	stmdaeq	r1, {r8, r9}
    30ac:	00000085 	andeq	r0, r0, r5, lsl #1
    30b0:	0000a108 	andeq	sl, r0, r8, lsl #2
    30b4:	067e0600 	ldrbteq	r0, [lr], -r0, lsl #12
    30b8:	21020000 	mrscs	r0, (UNDEF: 2)
    30bc:	0000b90e 	andeq	fp, r0, lr, lsl #18
    30c0:	8c040700 	stchi	7, cr0, [r4], {-0}
    30c4:	09000000 	stmdbeq	r0, {}	; <UNPREDICTABLE>
    30c8:	00000788 	andeq	r0, r0, r8, lsl #15
    30cc:	00061101 	andeq	r1, r6, r1, lsl #2
    30d0:	2800009a 	stmdacs	r0, {r1, r3, r4, r7}
    30d4:	01000001 	tsteq	r0, r1
    30d8:	0002269c 	muleq	r2, ip, r6
    30dc:	03f40600 	mvnseq	r0, #0, 12
    30e0:	12010000 	andne	r0, r1, #0, 0
    30e4:	00002510 	andeq	r2, r0, r0, lsl r5
    30e8:	04a60600 	strteq	r0, [r6], #1536	; 0x600
    30ec:	12010000 	andne	r0, r1, #0, 0
    30f0:	0000251f 	andeq	r2, r0, pc, lsl r5
    30f4:	00620a00 	rsbeq	r0, r2, r0, lsl #20
    30f8:	13010000 	movwne	r0, #4096	; 0x1000
    30fc:	73620b07 	cmnvc	r2, #7168	; 0x1c00
    3100:	17010073 	smlsdxne	r1, r3, r0, r0
    3104:	0002260a 	andeq	r2, r2, sl, lsl #12
    3108:	00237400 	eoreq	r7, r3, r0, lsl #8
    310c:	00235c00 	eoreq	r5, r3, r0, lsl #24
    3110:	07900c00 	ldreq	r0, [r0, r0, lsl #24]
    3114:	18010000 	stmdane	r1, {}	; <UNPREDICTABLE>
    3118:	0002260a 	andeq	r2, r2, sl, lsl #12
    311c:	07d00d00 	ldrbeq	r0, [r0, r0, lsl #26]
    3120:	25010000 	strcs	r0, [r1, #-0]
    3124:	00002c0e 	andeq	r2, r0, lr, lsl #24
    3128:	00240e00 	eoreq	r0, r4, r0, lsl #28
    312c:	00240c00 	eoreq	r0, r4, r0, lsl #24
    3130:	9ad80e00 	bls	ff606938 <__bss_end__+0xff5fb710>
    3134:	00080000 	andeq	r0, r8, r0
    3138:	014a0000 	mrseq	r0, (UNDEF: 74)
    313c:	690b0000 	stmdbvs	fp, {}	; <UNPREDICTABLE>
    3140:	2101006e 	tstcs	r1, lr, rrx
    3144:	00002c05 	andeq	r2, r0, r5, lsl #24
    3148:	00242300 	eoreq	r2, r4, r0, lsl #6
    314c:	00242100 	eoreq	r2, r4, r0, lsl #2
    3150:	2c0f0000 	stccs	0, cr0, [pc], {-0}
    3154:	e0000002 	and	r0, r0, r2
    3158:	0200009a 	andeq	r0, r0, #154, 0	; 0x9a
    315c:	00009ae0 	andeq	r9, r0, r0, ror #21
    3160:	0000000c 	andeq	r0, r0, ip
    3164:	99052301 	stmdbls	r5, {r0, r8, r9, sp}
    3168:	10000001 	andne	r0, r0, r1
    316c:	0000024f 	andeq	r0, r0, pc, asr #4
    3170:	00002439 	andeq	r2, r0, r9, lsr r4
    3174:	00002437 	andeq	r2, r0, r7, lsr r4
    3178:	00025b10 	andeq	r5, r2, r0, lsl fp
    317c:	00244f00 	eoreq	r4, r4, r0, lsl #30
    3180:	00244d00 	eoreq	r4, r4, r0, lsl #26
    3184:	02671100 	rsbeq	r1, r7, #0
    3188:	9ae00000 	bls	ff803190 <__bss_end__+0xff7f7f68>
    318c:	00040000 	andeq	r0, r4, r0
    3190:	68100000 	ldmdavs	r0, {}	; <UNPREDICTABLE>
    3194:	64000002 	strvs	r0, [r0], #-2
    3198:	62000024 	andvs	r0, r0, #36, 0	; 0x24
    319c:	00000024 	andeq	r0, r0, r4, lsr #32
    31a0:	022c1200 	eoreq	r1, ip, #0, 4
    31a4:	9af00000 	bls	ffc031ac <__bss_end__+0xffbf7f84>
    31a8:	b8010000 	stmdalt	r1, {}	; <UNPREDICTABLE>
    31ac:	01000002 	tsteq	r0, r2
    31b0:	01ea1525 	mvneq	r1, r5, lsr #10
    31b4:	b8130000 	ldmdalt	r3, {}	; <UNPREDICTABLE>
    31b8:	10000002 	andne	r0, r0, r2
    31bc:	0000024f 	andeq	r0, r0, pc, asr #4
    31c0:	0000247b 	andeq	r2, r0, fp, ror r4
    31c4:	00002477 	andeq	r2, r0, r7, ror r4
    31c8:	00025b10 	andeq	r5, r2, r0, lsl fp
    31cc:	00249c00 	eoreq	r9, r4, r0, lsl #24
    31d0:	00249a00 	eoreq	r9, r4, r0, lsl #20
    31d4:	02671100 	rsbeq	r1, r7, #0
    31d8:	9af00000 	bls	ffc031e0 <__bss_end__+0xffbf7fb8>
    31dc:	00040000 	andeq	r0, r4, r0
    31e0:	68100000 	ldmdavs	r0, {}	; <UNPREDICTABLE>
    31e4:	b1000002 	tstlt	r0, r2
    31e8:	af000024 	svcge	0x00000024
    31ec:	00000024 	andeq	r0, r0, r4, lsr #32
    31f0:	08140000 	ldmdaeq	r4, {}	; <UNPREDICTABLE>
    31f4:	7600009a 			; <UNDEFINED> instruction: 0x7600009a
    31f8:	14000002 	strne	r0, [r0], #-2
    31fc:	00009ad8 	ldrdeq	r9, [r0], -r8
    3200:	00000283 	andeq	r0, r0, r3, lsl #5
    3204:	009af014 	addseq	pc, sl, r4, lsl r0	; <UNPREDICTABLE>
    3208:	00028f00 	andeq	r8, r2, r0, lsl #30
    320c:	9b0c1500 	blls	308614 <__bss_end__+0x2fd3ec>
    3210:	029c0000 	addseq	r0, ip, #0, 0
    3214:	021c0000 	andseq	r0, ip, #0, 0
    3218:	01160000 	tsteq	r6, r0
    321c:	c8030550 	stmdagt	r3, {r4, r6, r8, sl}
    3220:	000000ab 	andeq	r0, r0, fp, lsr #1
    3224:	009b1014 	addseq	r1, fp, r4, lsl r0
    3228:	0002a800 	andeq	sl, r2, r0, lsl #16
    322c:	04070000 	streq	r0, [r7], #-0
    3230:	00000025 	andeq	r0, r0, r5, lsr #32
    3234:	0007ca17 	andeq	ip, r7, r7, lsl sl
    3238:	11040100 	mrsne	r0, (UNDEF: 20)
    323c:	0000002c 	andeq	r0, r0, ip, lsr #32
    3240:	00027601 	andeq	r7, r2, r1, lsl #12
    3244:	07d51800 	ldrbeq	r1, [r5, r0, lsl #16]
    3248:	05010000 	streq	r0, [r1, #-0]
    324c:	00002c15 	andeq	r2, r0, r5, lsl ip
    3250:	1c030500 	cfstr32ne	mvfx0, [r3], {-0}
    3254:	0c0000b2 	stceq	0, cr0, [r0], {178}	; 0xb2
    3258:	000007d0 	ldrdeq	r0, [r0], -r0	; <UNPREDICTABLE>
    325c:	2c0e0701 	stccs	7, cr0, [lr], {1}
    3260:	19000000 	stmdbne	r0, {}	; <UNPREDICTABLE>
    3264:	00727563 	rsbseq	r7, r2, r3, ror #10
    3268:	2c0e0901 			; <UNDEFINED> instruction: 0x2c0e0901
    326c:	1a000000 	bne	3274 <__code_start__-0x4d8c>
    3270:	0007c50c 	andeq	ip, r7, ip, lsl #10
    3274:	14090100 	strne	r0, [r9], #-256	; 0xffffff00
    3278:	0000002c 	andeq	r0, r0, ip, lsr #32
    327c:	a21b0000 	andsge	r0, fp, #0, 0
    3280:	a2000007 	andge	r0, r0, #7, 0
    3284:	02000007 	andeq	r0, r0, #7, 0
    3288:	1c060131 	stfnes	f0, [r6], {49}	; 0x31
    328c:	00000798 	muleq	r0, r8, r7
    3290:	00000798 	muleq	r0, r8, r7
    3294:	1b063b02 	blne	191ea4 <__bss_end__+0x186c7c>
    3298:	00000062 	andeq	r0, r0, r2, rrx
    329c:	00000062 	andeq	r0, r0, r2, rrx
    32a0:	06010502 	streq	r0, [r1], -r2, lsl #10
    32a4:	0006401c 	andeq	r4, r6, ip, lsl r0
    32a8:	00064000 	andeq	r4, r6, r0
    32ac:	06280200 	strteq	r0, [r8], -r0, lsl #4
    32b0:	00008a1c 	andeq	r8, r0, ip, lsl sl
    32b4:	00008a00 	andeq	r8, r0, r0, lsl #20
    32b8:	066e0200 	strbteq	r0, [lr], -r0, lsl #4
    32bc:	0000ce00 	andeq	ip, r0, r0, lsl #28
    32c0:	f1000400 			; <UNDEFINED> instruction: 0xf1000400
    32c4:	04000011 	streq	r0, [r0], #-17	; 0xffffffef
    32c8:	00051801 	andeq	r1, r5, r1, lsl #16
    32cc:	07da0c00 	ldrbeq	r0, [sl, r0, lsl #24]
    32d0:	05de0000 	ldrbeq	r0, [lr]
    32d4:	9b280000 	blls	a032dc <__bss_end__+0x9f80b4>
    32d8:	00040000 	andeq	r0, r4, r0
    32dc:	1bea0000 	blne	ffa832e4 <__bss_end__+0xffa780bc>
    32e0:	04020000 	streq	r0, [r2], #-0
    32e4:	746e6905 	strbtvc	r6, [lr], #-2309	; 0xfffff6fb
    32e8:	07040300 	streq	r0, [r4, -r0, lsl #6]
    32ec:	00000207 	andeq	r0, r0, r7, lsl #4
    32f0:	7e060103 	adfvcs	f0, f6, f3
    32f4:	03000000 	movweq	r0, #0
    32f8:	02400502 	subeq	r0, r0, #8388608	; 0x800000
    32fc:	04030000 	streq	r0, [r3], #-0
    3300:	00022b05 	andeq	r2, r2, r5, lsl #22
    3304:	05080300 	streq	r0, [r8, #-768]	; 0xfffffd00
    3308:	00000226 	andeq	r0, r0, r6, lsr #4
    330c:	7c080103 	stfvcs	f0, [r8], {3}
    3310:	03000000 	movweq	r0, #0
    3314:	00970702 	addseq	r0, r7, r2, lsl #14
    3318:	04030000 	streq	r0, [r3], #-0
    331c:	00020207 	andeq	r0, r2, r7, lsl #4
    3320:	07080300 	streq	r0, [r8, -r0, lsl #6]
    3324:	000001fd 	strdeq	r0, [r0], -sp
    3328:	00002504 	andeq	r2, r0, r4, lsl #10
    332c:	00007a00 	andeq	r7, r0, r0, lsl #20
    3330:	00250500 	eoreq	r0, r5, r0, lsl #10
    3334:	06000000 	streq	r0, [r0], -r0
    3338:	00000234 	andeq	r0, r0, r4, lsr r2
    333c:	860e1c02 	strhi	r1, [lr], -r2, lsl #24
    3340:	07000000 	streq	r0, [r0, -r0]
    3344:	00006b04 	andeq	r6, r0, r4, lsl #22
    3348:	00250400 	eoreq	r0, r5, r0, lsl #8
    334c:	009b0000 	addseq	r0, fp, r0
    3350:	9b050000 	blls	143358 <__bss_end__+0x138130>
    3354:	00000000 	andeq	r0, r0, r0
    3358:	00a80407 	adceq	r0, r8, r7, lsl #8
    335c:	01030000 	mrseq	r0, (UNDEF: 3)
    3360:	00008508 	andeq	r8, r0, r8, lsl #10
    3364:	00a10800 	adceq	r0, r1, r0, lsl #16
    3368:	7e060000 	cdpvc	0, 0, cr0, cr6, cr0, {0}
    336c:	02000006 	andeq	r0, r0, #6, 0
    3370:	00b90e21 	adcseq	r0, r9, r1, lsr #28
    3374:	04070000 	streq	r0, [r7], #-0
    3378:	0000008c 	andeq	r0, r0, ip, lsl #1
    337c:	0007a209 	andeq	sl, r7, r9, lsl #4
    3380:	06040100 	streq	r0, [r4], -r0, lsl #2
    3384:	00009b28 	andeq	r9, r0, r8, lsr #22
    3388:	00000004 	andeq	r0, r0, r4
    338c:	7d009c01 	stcvc	12, cr9, [r0, #-4]
    3390:	04000002 	streq	r0, [r0], #-2
    3394:	00126a00 	andseq	r6, r2, r0, lsl #20
    3398:	18010400 	stmdane	r1, {sl}
    339c:	0c000005 	stceq	0, cr0, [r0], {5}
    33a0:	00000822 	andeq	r0, r0, r2, lsr #16
    33a4:	000005de 	ldrdeq	r0, [r0], -lr
    33a8:	000002e8 	andeq	r0, r0, r8, ror #5
    33ac:	00000000 	andeq	r0, r0, r0
    33b0:	00001c6b 	andeq	r1, r0, fp, ror #24
    33b4:	69050402 	stmdbvs	r5, {r1, sl}
    33b8:	0300746e 	movweq	r7, #1134	; 0x46e
    33bc:	00000025 	andeq	r0, r0, r5, lsr #32
    33c0:	07070404 	streq	r0, [r7, -r4, lsl #8]
    33c4:	04000002 	streq	r0, [r0], #-2
    33c8:	007e0601 	rsbseq	r0, lr, r1, lsl #12
    33cc:	02040000 	andeq	r0, r4, #0, 0
    33d0:	00024005 	andeq	r4, r2, r5
    33d4:	05040400 	streq	r0, [r4, #-1024]	; 0xfffffc00
    33d8:	0000022b 	andeq	r0, r0, fp, lsr #4
    33dc:	26050804 	strcs	r0, [r5], -r4, lsl #16
    33e0:	04000002 	streq	r0, [r0], #-2
    33e4:	007c0801 	rsbseq	r0, ip, r1, lsl #16
    33e8:	02040000 	andeq	r0, r4, #0, 0
    33ec:	00009707 	andeq	r9, r0, r7, lsl #14
    33f0:	07040400 	streq	r0, [r4, -r0, lsl #8]
    33f4:	00000202 	andeq	r0, r0, r2, lsl #4
    33f8:	fd070804 	stc2	8, cr0, [r7, #-16]
    33fc:	05000001 	streq	r0, [r0, #-1]
    3400:	00000025 	andeq	r0, r0, r5, lsr #32
    3404:	0000007f 	andeq	r0, r0, pc, ror r0
    3408:	00002506 	andeq	r2, r0, r6, lsl #10
    340c:	34070000 	strcc	r0, [r7], #-0
    3410:	02000002 	andeq	r0, r0, #2, 0
    3414:	008b0e1c 	addeq	r0, fp, ip, lsl lr
    3418:	04080000 	streq	r0, [r8], #-0
    341c:	00000070 	andeq	r0, r0, r0, ror r0
    3420:	00002505 	andeq	r2, r0, r5, lsl #10
    3424:	0000a000 	andeq	sl, r0, r0
    3428:	00a00600 	adceq	r0, r0, r0, lsl #12
    342c:	08000000 	stmdaeq	r0, {}	; <UNPREDICTABLE>
    3430:	0000ad04 	andeq	sl, r0, r4, lsl #26
    3434:	08010400 	stmdaeq	r1, {sl}
    3438:	00000085 	andeq	r0, r0, r5, lsl #1
    343c:	0000a603 	andeq	sl, r0, r3, lsl #12
    3440:	067e0700 	ldrbteq	r0, [lr], -r0, lsl #14
    3444:	21020000 	mrscs	r0, (UNDEF: 2)
    3448:	0000be0e 	andeq	fp, r0, lr, lsl #28
    344c:	91040800 	tstls	r4, r0, lsl #16
    3450:	09000000 	stmdbeq	r0, {}	; <UNPREDICTABLE>
    3454:	00000846 	andeq	r0, r0, r6, asr #16
    3458:	31110d01 	tstcc	r1, r1, lsl #26
    345c:	0a000000 	beq	3464 <__code_start__-0x4b9c>
    3460:	0000074b 	andeq	r0, r0, fp, asr #14
    3464:	58061f01 	stmdapl	r6, {r0, r8, r9, sl, fp, ip}
    3468:	6000009b 	mulvs	r0, fp, r0
    346c:	01000000 	mrseq	r0, (UNDEF: 0)
    3470:	0001d59c 	muleq	r1, ip, r5
    3474:	086a0b00 	stmdaeq	sl!, {r8, r9, fp}^
    3478:	2c010000 	stccs	0, cr0, [r1], {-0}
    347c:	00002c0f 	andeq	r2, r0, pc, lsl #24
    3480:	10001c00 	andne	r1, r0, r0, lsl #24
    3484:	08050b20 	stmdaeq	r5, {r5, r8, r9, fp}
    3488:	2d010000 	stccs	0, cr0, [r1, #-0]
    348c:	00002c0f 	andeq	r2, r0, pc, lsl #24
    3490:	10002400 	andne	r2, r0, r0, lsl #8
    3494:	08370b20 	ldmdaeq	r7!, {r5, r8, r9, fp}
    3498:	2e010000 	cdpcs	0, 0, cr0, cr1, cr0, {0}
    349c:	00002c0f 	andeq	r2, r0, pc, lsl #24
    34a0:	00000000 	andeq	r0, r0, r0
    34a4:	08510c5a 	ldmdaeq	r1, {r1, r3, r4, r6, sl, fp}^
    34a8:	2f010000 	svccs	0x00010000
    34ac:	00002c0f 	andeq	r2, r0, pc, lsl #24
    34b0:	ef0d2000 	svc	0x000d2000
    34b4:	58000001 	stmdapl	r0, {r0}
    34b8:	0200009b 	andeq	r0, r0, #155, 0	; 0x9b
    34bc:	000002d0 	ldrdeq	r0, [r0], -r0	; <UNPREDICTABLE>
    34c0:	4c082001 	stcmi	0, cr2, [r8], {1}
    34c4:	0e000001 	cdpeq	0, 0, cr0, cr0, cr1, {0}
    34c8:	000002d0 	ldrdeq	r0, [r0], -r0	; <UNPREDICTABLE>
    34cc:	0002000f 	andeq	r0, r2, pc
    34d0:	0024c800 	eoreq	ip, r4, r0, lsl #16
    34d4:	0024c400 	eoreq	ip, r4, r0, lsl #8
    34d8:	10000000 	andne	r0, r0, r0
    34dc:	000001d5 	ldrdeq	r0, [r0], -r5
    34e0:	00009b6c 	andeq	r9, r0, ip, ror #22
    34e4:	009b6c01 	addseq	r6, fp, r1, lsl #24
    34e8:	00001000 	andeq	r1, r0, r0
    34ec:	09210100 	stmdbeq	r1!, {r8}
    34f0:	00000173 	andeq	r0, r0, r3, ror r1
    34f4:	0001e20f 	andeq	lr, r1, pc, lsl #4
    34f8:	0024ef00 	eoreq	lr, r4, r0, lsl #30
    34fc:	0024e700 	eoreq	lr, r4, r0, lsl #14
    3500:	80110000 	andshi	r0, r1, r0
    3504:	4f00009b 	svcmi	0x0000009b
    3508:	11000002 	tstne	r0, r2
    350c:	00009b84 	andeq	r9, r0, r4, lsl #23
    3510:	0000025c 	andeq	r0, r0, ip, asr r2
    3514:	009b8c12 	addseq	r8, fp, r2, lsl ip
    3518:	00026800 	andeq	r6, r2, r0, lsl #16
    351c:	00019800 	andeq	r9, r1, r0, lsl #16
    3520:	50011300 	andpl	r1, r1, r0, lsl #6
    3524:	12003a01 	andne	r3, r0, #4096	; 0x1000
    3528:	00009b98 	muleq	r0, r8, fp
    352c:	00000274 	andeq	r0, r0, r4, ror r2
    3530:	000001b8 			; <UNDEFINED> instruction: 0x000001b8
    3534:	05500113 	ldrbeq	r0, [r0, #-275]	; 0xfffffeed
    3538:	1000240c 	andne	r2, r0, ip, lsl #8
    353c:	51011320 	tstpl	r1, r0, lsr #6
    3540:	00010c05 	andeq	r0, r1, r5, lsl #24
    3544:	14005a00 	strne	r5, [r0], #-2560	; 0xfffff600
    3548:	00009ba4 	andeq	r9, r0, r4, lsr #23
    354c:	00000274 	andeq	r0, r0, r4, ror r2
    3550:	05500113 	ldrbeq	r0, [r0, #-275]	; 0xfffffeed
    3554:	10001c0c 	andne	r1, r0, ip, lsl #24
    3558:	51011320 	tstpl	r1, r0, lsr #6
    355c:	00200c05 	eoreq	r0, r0, r5, lsl #24
    3560:	00005a00 	andeq	r5, r0, r0, lsl #20
    3564:	00081315 	andeq	r1, r8, r5, lsl r3
    3568:	06170100 	ldreq	r0, [r7], -r0, lsl #2
    356c:	0001ef01 	andeq	lr, r1, r1, lsl #30
    3570:	08720900 	ldmdaeq	r2!, {r8, fp}^
    3574:	18010000 	stmdane	r1, {}	; <UNPREDICTABLE>
    3578:	0000310e 	andeq	r3, r0, lr, lsl #2
    357c:	43160000 	tstmi	r6, #0, 0
    3580:	01000008 	tsteq	r0, r8
    3584:	0025050e 	eoreq	r0, r5, lr, lsl #10
    3588:	0d010000 	stceq	0, cr0, [r1, #-0]
    358c:	09000002 	stmdbeq	r0, {r1}
    3590:	00000872 	andeq	r0, r0, r2, ror r8
    3594:	310e0f01 	tstcc	lr, r1, lsl #30
    3598:	00000000 	andeq	r0, r0, r0
    359c:	0001ef17 	andeq	lr, r1, r7, lsl pc
    35a0:	009b2c00 	addseq	r2, fp, r0, lsl #24
    35a4:	00001800 	andeq	r1, r0, r0, lsl #16
    35a8:	2e9c0100 	fmlcse	f0, f4, f0
    35ac:	0f000002 	svceq	0x00000002
    35b0:	00000200 	andeq	r0, r0, r0, lsl #4
    35b4:	0000252c 	andeq	r2, r0, ip, lsr #10
    35b8:	00002528 	andeq	r2, r0, r8, lsr #10
    35bc:	01d51700 	bicseq	r1, r5, r0, lsl #14
    35c0:	9b440000 	blls	11035c8 <__bss_end__+0x10f83a0>
    35c4:	00140000 	andseq	r0, r4, r0
    35c8:	9c010000 	stcls	0, cr0, [r1], {-0}
    35cc:	0000024f 	andeq	r0, r0, pc, asr #4
    35d0:	0001e20f 	andeq	lr, r1, pc, lsl #4
    35d4:	00255300 	eoreq	r5, r5, r0, lsl #6
    35d8:	00254b00 	eoreq	r4, r5, r0, lsl #22
    35dc:	f6180000 			; <UNDEFINED> instruction: 0xf6180000
    35e0:	f6000007 			; <UNDEFINED> instruction: 0xf6000007
    35e4:	02000007 	andeq	r0, r0, #7, 0
    35e8:	19060136 	stmdbne	r6, {r1, r2, r4, r5, r8}
    35ec:	0000077a 	andeq	r0, r0, sl, ror r7
    35f0:	0000077a 	andeq	r0, r0, sl, ror r7
    35f4:	19064d02 	stmdbne	r6, {r1, r8, sl, fp, lr}
    35f8:	00000756 	andeq	r0, r0, r6, asr r7
    35fc:	00000756 	andeq	r0, r0, r6, asr r7
    3600:	19065802 	stmdbne	r6, {r1, fp, ip, lr}
    3604:	0000080d 	andeq	r0, r0, sp, lsl #16
    3608:	0000080d 	andeq	r0, r0, sp, lsl #16
    360c:	0006ad02 	andeq	sl, r6, r2, lsl #26
    3610:	0000053f 	andeq	r0, r0, pc, lsr r5
    3614:	13ed0004 	mvnne	r0, #4, 0
    3618:	01040000 	mrseq	r0, (UNDEF: 4)
    361c:	00000518 	andeq	r0, r0, r8, lsl r5
    3620:	00088d0c 	andeq	r8, r8, ip, lsl #26
    3624:	0005de00 	andeq	sp, r5, r0, lsl #28
    3628:	009bb800 	addseq	fp, fp, r0, lsl #16
    362c:	00011c00 	andeq	r1, r1, r0, lsl #24
    3630:	001d8300 	andseq	r8, sp, r0, lsl #6
    3634:	05040200 	streq	r0, [r4, #-512]	; 0xfffffe00
    3638:	00746e69 	rsbseq	r6, r4, r9, ror #28
    363c:	07070403 	streq	r0, [r7, -r3, lsl #8]
    3640:	03000002 	movweq	r0, #2
    3644:	007e0601 	rsbseq	r0, lr, r1, lsl #12
    3648:	02030000 	andeq	r0, r3, #0, 0
    364c:	00024005 	andeq	r4, r2, r5
    3650:	05040300 	streq	r0, [r4, #-768]	; 0xfffffd00
    3654:	0000022b 	andeq	r0, r0, fp, lsr #4
    3658:	26050803 	strcs	r0, [r5], -r3, lsl #16
    365c:	03000002 	movweq	r0, #2
    3660:	007c0801 	rsbseq	r0, ip, r1, lsl #16
    3664:	02030000 	andeq	r0, r3, #0, 0
    3668:	00009707 	andeq	r9, r0, r7, lsl #14
    366c:	07040300 	streq	r0, [r4, -r0, lsl #6]
    3670:	00000202 	andeq	r0, r0, r2, lsl #4
    3674:	fd070803 	stc2	8, cr0, [r7, #-12]
    3678:	04000001 	streq	r0, [r0], #-1
    367c:	00000025 	andeq	r0, r0, r5, lsr #32
    3680:	0000007a 	andeq	r0, r0, sl, ror r0
    3684:	00002505 	andeq	r2, r0, r5, lsl #10
    3688:	34060000 	strcc	r0, [r6], #-0
    368c:	02000002 	andeq	r0, r0, #2, 0
    3690:	00860e1c 	addeq	r0, r6, ip, lsl lr
    3694:	04070000 	streq	r0, [r7], #-0
    3698:	0000006b 	andeq	r0, r0, fp, rrx
    369c:	00002504 	andeq	r2, r0, r4, lsl #10
    36a0:	00009b00 	andeq	r9, r0, r0, lsl #22
    36a4:	009b0500 	addseq	r0, fp, r0, lsl #10
    36a8:	07000000 	streq	r0, [r0, -r0]
    36ac:	0000a804 	andeq	sl, r0, r4, lsl #16
    36b0:	08010300 	stmdaeq	r1, {r8, r9}
    36b4:	00000085 	andeq	r0, r0, r5, lsl #1
    36b8:	0000a108 	andeq	sl, r0, r8, lsl #2
    36bc:	067e0600 	ldrbteq	r0, [lr], -r0, lsl #12
    36c0:	21020000 	mrscs	r0, (UNDEF: 2)
    36c4:	0000b90e 	andeq	fp, r0, lr, lsl #18
    36c8:	8c040700 	stchi	7, cr0, [r4], {-0}
    36cc:	09000000 	stmdbeq	r0, {}	; <UNPREDICTABLE>
    36d0:	00000883 	andeq	r0, r0, r3, lsl #17
    36d4:	80061e01 	andhi	r1, r6, r1, lsl #28
    36d8:	5400009c 	strpl	r0, [r0], #-156	; 0xffffff64
    36dc:	01000000 	mrseq	r0, (UNDEF: 0)
    36e0:	00020b9c 	muleq	r2, ip, fp
    36e4:	65730a00 	ldrbvs	r0, [r3, #-2560]!	; 0xfffff600
    36e8:	1e010063 	cdpne	0, 0, cr0, cr1, cr3, {3}
    36ec:	00002c19 	andeq	r2, r0, r9, lsl ip
    36f0:	00259000 	eoreq	r9, r5, r0
    36f4:	00258c00 	eoreq	r8, r5, r0, lsl #24
    36f8:	020b0b00 	andeq	r0, fp, #0, 22
    36fc:	9c800000 	stcls	0, cr0, [r0], {0}
    3700:	b0020000 	andlt	r0, r2, r0
    3704:	01000003 	tsteq	r0, r3
    3708:	180c051f 	stmdane	ip, {r0, r1, r2, r3, r4, r8, sl}
    370c:	b5000002 	strlt	r0, [r0, #-2]
    3710:	b1000025 	tstlt	r0, r5, lsr #32
    3714:	0d000025 	stceq	0, cr0, [r0, #-148]	; 0xffffff6c
    3718:	00000224 	andeq	r0, r0, r4, lsr #4
    371c:	00009c94 	muleq	r0, r4, ip
    3720:	009c9400 	addseq	r9, ip, r0, lsl #8
    3724:	00004000 	andeq	r4, r0, r0
    3728:	051c0100 	ldreq	r0, [ip, #-256]	; 0xffffff00
    372c:	0002310c 	andeq	r3, r2, ip, lsl #2
    3730:	0025e200 	eoreq	lr, r5, r0, lsl #4
    3734:	0025e000 	eoreq	lr, r5, r0
    3738:	023c0e00 	eorseq	r0, ip, #0, 28
    373c:	25f70000 	ldrbcs	r0, [r7, #0]!
    3740:	25f50000 	ldrbcs	r0, [r5, #0]!
    3744:	550f0000 	strpl	r0, [pc, #-0]	; 374c <__code_start__-0x48b4>
    3748:	94000002 	strls	r0, [r0], #-2
    374c:	0200009c 	andeq	r0, r0, #156, 0	; 0x9c
    3750:	00009c94 	muleq	r0, r4, ip
    3754:	00000014 	andeq	r0, r0, r4, lsl r0
    3758:	9c131301 	ldcls	3, cr1, [r3], {1}
    375c:	0e000001 	cdpeq	0, 0, cr0, cr0, cr1, {0}
    3760:	00000266 	andeq	r0, r0, r6, ror #4
    3764:	0000260e 	andeq	r2, r0, lr, lsl #12
    3768:	0000260a 	andeq	r2, r0, sl, lsl #12
    376c:	0002710f 	andeq	r7, r2, pc, lsl #2
    3770:	009c9800 	addseq	r9, ip, r0, lsl #16
    3774:	9c980100 	ldflss	f0, [r8], {0}
    3778:	000c0000 	andeq	r0, ip, r0
    377c:	0d010000 	stceq	0, cr0, [r1, #-0]
    3780:	00018912 	andeq	r8, r1, r2, lsl r9
    3784:	9ca01000 	stcls	0, cr1, [r0]
    3788:	052a0000 	streq	r0, [sl, #-0]!
    378c:	01110000 	tsteq	r1, r0
    3790:	040c0550 	streq	r0, [ip], #-1360	; 0xfffffab0
    3794:	00200030 	eoreq	r0, r0, r0, lsr r0
    3798:	9c981200 	lfmls	f1, 4, [r8], {0}
    379c:	05360000 	ldreq	r0, [r6, #-0]!
    37a0:	a8120000 	ldmdage	r2, {}	; <UNPREDICTABLE>
    37a4:	3600009c 			; <UNDEFINED> instruction: 0x3600009c
    37a8:	00000005 	andeq	r0, r0, r5
    37ac:	00024713 	andeq	r4, r2, r3, lsl r7
    37b0:	0003c800 	andeq	ip, r3, r0, lsl #16
    37b4:	02481400 	subeq	r1, r8, #0, 8
    37b8:	550b0000 	strpl	r0, [fp, #-0]
    37bc:	ac000002 	stcge	0, cr0, [r0], {2}
    37c0:	0200009c 	andeq	r0, r0, #156, 0	; 0x9c
    37c4:	000003e0 	andeq	r0, r0, r0, ror #7
    37c8:	15171501 	ldrne	r1, [r7, #-1281]	; 0xfffffaff
    37cc:	000003e0 	andeq	r0, r0, r0, ror #7
    37d0:	0002660e 	andeq	r6, r2, lr, lsl #12
    37d4:	00262e00 	eoreq	r2, r6, r0, lsl #28
    37d8:	00262c00 	eoreq	r2, r6, r0, lsl #24
    37dc:	02711600 	rsbseq	r1, r1, #0, 12
    37e0:	9cb00000 	ldcls	0, cr0, [r0]
    37e4:	00010000 	andeq	r0, r1, r0
    37e8:	01000004 	tsteq	r0, r4
    37ec:	01f3120d 	mvnseq	r1, sp, lsl #4
    37f0:	b8100000 	ldmdalt	r0, {}	; <UNPREDICTABLE>
    37f4:	2a00009c 	bcs	3a6c <__code_start__-0x4594>
    37f8:	11000005 	tstne	r0, r5
    37fc:	77025001 	strvc	r5, [r2, -r1]
    3800:	12000000 	andne	r0, r0, #0, 0
    3804:	00009cb0 			; <UNDEFINED> instruction: 0x00009cb0
    3808:	00000536 	andeq	r0, r0, r6, lsr r5
    380c:	009cc412 	addseq	ip, ip, r2, lsl r4
    3810:	00053600 	andeq	r3, r5, r0, lsl #12
    3814:	00000000 	andeq	r0, r0, r0
    3818:	17000000 	strne	r0, [r0, -r0]
    381c:	00000756 	andeq	r0, r0, r6, asr r7
    3820:	01061b01 	tsteq	r6, r1, lsl #22
    3824:	00000224 	andeq	r0, r0, r4, lsr #4
    3828:	00736d18 	rsbseq	r6, r3, r8, lsl sp
    382c:	2c181b01 			; <UNDEFINED> instruction: 0x2c181b01
    3830:	00000000 	andeq	r0, r0, r0
    3834:	0008b617 	andeq	fp, r8, r7, lsl r6
    3838:	06120100 	ldreq	r0, [r2], -r0, lsl #2
    383c:	00025501 	andeq	r5, r2, r1, lsl #10
    3840:	73751800 	cmnvc	r5, #0, 16
    3844:	18120100 	ldmdane	r2, {r8}
    3848:	0000002c 	andeq	r0, r0, ip, lsr #32
    384c:	00627219 	rsbeq	r7, r2, r9, lsl r2
    3850:	2c0e1301 	stccs	3, cr1, [lr], {1}
    3854:	1a000000 	bne	385c <__code_start__-0x47a4>
    3858:	00617219 	rsbeq	r7, r1, r9, lsl r2
    385c:	2c121501 	cfldr32cs	mvfx1, [r2], {1}
    3860:	00000000 	andeq	r0, r0, r0
    3864:	08a71b00 	stmiaeq	r7!, {r8, r9, fp, ip}
    3868:	09010000 	stmdbeq	r1, {}	; <UNPREDICTABLE>
    386c:	00002c0a 	andeq	r2, r0, sl, lsl #24
    3870:	02710100 	rsbseq	r0, r1, #0
    3874:	75190000 	ldrvc	r0, [r9, #-0]
    3878:	0e0d0100 	adfeqe	f0, f5, f0
    387c:	0000002c 	andeq	r0, r0, ip, lsr #32
    3880:	08bf1c00 	ldmeq	pc!, {sl, fp, ip}	; <UNPREDICTABLE>
    3884:	04010000 	streq	r0, [r1], #-0
    3888:	00002c0a 	andeq	r2, r0, sl, lsl #24
    388c:	711d0100 	tstvc	sp, r0, lsl #2
    3890:	b8000002 	stmdalt	r0, {r1}
    3894:	0c00009b 	stceq	0, cr0, [r0], {155}	; 0x9b
    3898:	01000000 	mrseq	r0, (UNDEF: 0)
    389c:	0002a59c 	muleq	r2, ip, r5
    38a0:	9bc01e00 	blls	ff00b0a8 <__bss_end__+0xfefffe80>
    38a4:	052a0000 	streq	r0, [sl, #-0]!
    38a8:	01110000 	tsteq	r1, r0
    38ac:	040c0550 	streq	r0, [ip], #-1360	; 0xfffffab0
    38b0:	00200030 	eoreq	r0, r0, r0, lsr r0
    38b4:	02551d00 	subseq	r1, r5, #0, 26
    38b8:	9bc40000 	blls	ff1038c0 <__bss_end__+0xff0f8698>
    38bc:	00240000 	eoreq	r0, r4, r0
    38c0:	9c010000 	stcls	0, cr0, [r1], {-0}
    38c4:	00000305 	andeq	r0, r0, r5, lsl #6
    38c8:	0002660e 	andeq	r6, r2, lr, lsl #12
    38cc:	00264500 	eoreq	r4, r6, r0, lsl #10
    38d0:	00264100 	eoreq	r4, r6, r0, lsl #2
    38d4:	02710f00 	rsbseq	r0, r1, #0, 30
    38d8:	9bcc0000 	blls	ff3038e0 <__bss_end__+0xff2f86b8>
    38dc:	cc010000 	stcgt	0, cr0, [r1], {-0}
    38e0:	0c00009b 	stceq	0, cr0, [r0], {155}	; 0x9b
    38e4:	01000000 	mrseq	r0, (UNDEF: 0)
    38e8:	02f2120d 	rscseq	r1, r2, #-805306368	; 0xd0000000
    38ec:	d4100000 	ldrle	r0, [r0], #-0
    38f0:	2a00009b 	bcs	3b64 <__code_start__-0x449c>
    38f4:	11000005 	tstne	r0, r5
    38f8:	0c055001 	stceq	0, cr5, [r5], {1}
    38fc:	20003004 	andcs	r3, r0, r4
    3900:	cc120000 	ldcgt	0, cr0, [r2], {-0}
    3904:	3600009b 			; <UNDEFINED> instruction: 0x3600009b
    3908:	12000005 	andne	r0, r0, #5, 0
    390c:	00009bdc 	ldrdeq	r9, [r0], -ip
    3910:	00000536 	andeq	r0, r0, r6, lsr r5
    3914:	02241d00 	eoreq	r1, r4, #0, 26
    3918:	9be80000 	blls	ffa03920 <__bss_end__+0xff9f86f8>
    391c:	00480000 	subeq	r0, r8, r0
    3920:	9c010000 	stcls	0, cr0, [r1], {-0}
    3924:	00000407 	andeq	r0, r0, r7, lsl #8
    3928:	0002310c 	andeq	r3, r2, ip, lsl #2
    392c:	00266700 	eoreq	r6, r6, r0, lsl #14
    3930:	00266300 	eoreq	r6, r6, r0, lsl #6
    3934:	023c0e00 	eorseq	r0, ip, #0, 28
    3938:	26870000 	strcs	r0, [r7], r0
    393c:	26850000 	strcs	r0, [r5], r0
    3940:	55160000 	ldrpl	r0, [r6, #-0]
    3944:	e8000002 	stmda	r0, {r1}
    3948:	0200009b 	andeq	r0, r0, #155, 0	; 0x9b
    394c:	000002f8 	strdeq	r0, [r0], -r8
    3950:	9a131301 	bls	4c855c <__bss_end__+0x4bd334>
    3954:	15000003 	strne	r0, [r0, #-3]
    3958:	000002f8 	strdeq	r0, [r0], -r8
    395c:	0002660e 	andeq	r6, r2, lr, lsl #12
    3960:	00269e00 	eoreq	r9, r6, r0, lsl #28
    3964:	00269a00 	eoreq	r9, r6, r0, lsl #20
    3968:	02710f00 	rsbseq	r0, r1, #0, 30
    396c:	9bf40000 	blls	ffd03974 <__bss_end__+0xffcf874c>
    3970:	f4010000 	vst4.8	{d0-d3}, [r1], r0
    3974:	0c00009b 	stceq	0, cr0, [r0], {155}	; 0x9b
    3978:	01000000 	mrseq	r0, (UNDEF: 0)
    397c:	0386120d 	orreq	r1, r6, #-805306368	; 0xd0000000
    3980:	fc100000 	ldc2	0, cr0, [r0], {-0}
    3984:	2a00009b 	bcs	3bf8 <__code_start__-0x4408>
    3988:	11000005 	tstne	r0, r5
    398c:	0c055001 	stceq	0, cr5, [r5], {1}
    3990:	20003004 	andcs	r3, r0, r4
    3994:	f4120000 			; <UNDEFINED> instruction: 0xf4120000
    3998:	3600009b 			; <UNDEFINED> instruction: 0x3600009b
    399c:	12000005 	andne	r0, r0, #5, 0
    39a0:	00009c04 	andeq	r9, r0, r4, lsl #24
    39a4:	00000536 	andeq	r0, r0, r6, lsr r5
    39a8:	47130000 	ldrmi	r0, [r3, -r0]
    39ac:	10000002 	andne	r0, r0, r2
    39b0:	14000003 	strne	r0, [r0], #-3
    39b4:	00000248 	andeq	r0, r0, r8, asr #4
    39b8:	0002550b 	andeq	r5, r2, fp, lsl #10
    39bc:	009c0800 	addseq	r0, ip, r0, lsl #16
    39c0:	03280200 			; <UNDEFINED> instruction: 0x03280200
    39c4:	15010000 	strne	r0, [r1, #-0]
    39c8:	03281517 			; <UNDEFINED> instruction: 0x03281517
    39cc:	660e0000 	strvs	r0, [lr], -r0
    39d0:	be000002 	cdplt	0, 0, cr0, cr0, cr2, {0}
    39d4:	bc000026 	stclt	0, cr0, [r0], {38}	; 0x26
    39d8:	16000026 	strne	r0, [r0], -r6, lsr #32
    39dc:	00000271 	andeq	r0, r0, r1, ror r2
    39e0:	00009c0c 	andeq	r9, r0, ip, lsl #24
    39e4:	00034801 	andeq	r4, r3, r1, lsl #16
    39e8:	120d0100 	andne	r0, sp, #0
    39ec:	000003f1 	strdeq	r0, [r0], -r1
    39f0:	009c1410 	addseq	r1, ip, r0, lsl r4
    39f4:	00052a00 	andeq	r2, r5, r0, lsl #20
    39f8:	50011100 	andpl	r1, r1, r0, lsl #2
    39fc:	00007702 	andeq	r7, r0, r2, lsl #14
    3a00:	9c0c1200 	sfmls	f1, 4, [ip], {-0}
    3a04:	05360000 	ldreq	r0, [r6, #-0]!
    3a08:	20120000 	andscs	r0, r2, r0
    3a0c:	3600009c 			; <UNDEFINED> instruction: 0x3600009c
    3a10:	00000005 	andeq	r0, r0, r5
    3a14:	1d000000 	stcne	0, cr0, [r0, #-0]
    3a18:	0000020b 	andeq	r0, r0, fp, lsl #4
    3a1c:	00009c30 	andeq	r9, r0, r0, lsr ip
    3a20:	00000050 	andeq	r0, r0, r0, asr r0
    3a24:	052a9c01 	streq	r9, [sl, #-3073]!	; 0xfffff3ff
    3a28:	180c0000 	stmdane	ip, {}	; <UNPREDICTABLE>
    3a2c:	d5000002 	strle	r0, [r0, #-2]
    3a30:	d1000026 	tstle	r0, r6, lsr #32
    3a34:	0d000026 	stceq	0, cr0, [r0, #-152]	; 0xffffff68
    3a38:	00000224 	andeq	r0, r0, r4, lsr #4
    3a3c:	00009c40 	andeq	r9, r0, r0, asr #24
    3a40:	009c4000 	addseq	r4, ip, r0
    3a44:	00004000 	andeq	r4, r0, r0
    3a48:	051c0100 	ldreq	r0, [ip, #-256]	; 0xffffff00
    3a4c:	0002310c 	andeq	r3, r2, ip, lsl #2
    3a50:	0026f800 	eoreq	pc, r6, r0, lsl #16
    3a54:	0026f600 	eoreq	pc, r6, r0, lsl #12
    3a58:	023c0e00 	eorseq	r0, ip, #0, 28
    3a5c:	270d0000 	strcs	r0, [sp, -r0]
    3a60:	270b0000 	strcs	r0, [fp, -r0]
    3a64:	550f0000 	strpl	r0, [pc, #-0]	; 3a6c <__code_start__-0x4594>
    3a68:	40000002 	andmi	r0, r0, r2
    3a6c:	0200009c 	andeq	r0, r0, #156, 0	; 0x9c
    3a70:	00009c40 	andeq	r9, r0, r0, asr #24
    3a74:	00000014 	andeq	r0, r0, r4, lsl r0
    3a78:	bc131301 	ldclt	3, cr1, [r3], {1}
    3a7c:	0e000004 	cdpeq	0, 0, cr0, cr0, cr4, {0}
    3a80:	00000266 	andeq	r0, r0, r6, ror #4
    3a84:	00002724 	andeq	r2, r0, r4, lsr #14
    3a88:	00002720 	andeq	r2, r0, r0, lsr #14
    3a8c:	0002710f 	andeq	r7, r2, pc, lsl #2
    3a90:	009c4400 	addseq	r4, ip, r0, lsl #8
    3a94:	9c440100 	stflse	f0, [r4], {-0}
    3a98:	000c0000 	andeq	r0, ip, r0
    3a9c:	0d010000 	stceq	0, cr0, [r1, #-0]
    3aa0:	0004a912 	andeq	sl, r4, r2, lsl r9
    3aa4:	9c4c1000 	marls	acc0, r1, ip
    3aa8:	052a0000 	streq	r0, [sl, #-0]!
    3aac:	01110000 	tsteq	r1, r0
    3ab0:	040c0550 	streq	r0, [ip], #-1360	; 0xfffffab0
    3ab4:	00200030 	eoreq	r0, r0, r0, lsr r0
    3ab8:	9c441200 	sfmls	f1, 2, [r4], {-0}
    3abc:	05360000 	ldreq	r0, [r6, #-0]!
    3ac0:	54120000 	ldrpl	r0, [r2], #-0
    3ac4:	3600009c 			; <UNDEFINED> instruction: 0x3600009c
    3ac8:	00000005 	andeq	r0, r0, r5
    3acc:	00024713 	andeq	r4, r2, r3, lsl r7
    3ad0:	00036000 	andeq	r6, r3, r0
    3ad4:	02481400 	subeq	r1, r8, #0, 8
    3ad8:	550b0000 	strpl	r0, [fp, #-0]
    3adc:	58000002 	stmdapl	r0, {r1}
    3ae0:	0200009c 	andeq	r0, r0, #156, 0	; 0x9c
    3ae4:	00000378 	andeq	r0, r0, r8, ror r3
    3ae8:	15171501 	ldrne	r1, [r7, #-1281]	; 0xfffffaff
    3aec:	00000378 	andeq	r0, r0, r8, ror r3
    3af0:	0002660e 	andeq	r6, r2, lr, lsl #12
    3af4:	00274400 	eoreq	r4, r7, r0, lsl #8
    3af8:	00274200 	eoreq	r4, r7, r0, lsl #4
    3afc:	02711600 	rsbseq	r1, r1, #0, 12
    3b00:	9c5c0000 	mrals	r0, ip, acc0
    3b04:	98010000 	stmdals	r1, {}	; <UNPREDICTABLE>
    3b08:	01000003 	tsteq	r0, r3
    3b0c:	0513120d 	ldreq	r1, [r3, #-525]	; 0xfffffdf3
    3b10:	64100000 	ldrvs	r0, [r0], #-0
    3b14:	2a00009c 	bcs	3d8c <__code_start__-0x4274>
    3b18:	11000005 	tstne	r0, r5
    3b1c:	77025001 	strvc	r5, [r2, -r1]
    3b20:	12000000 	andne	r0, r0, #0, 0
    3b24:	00009c5c 	andeq	r9, r0, ip, asr ip
    3b28:	00000536 	andeq	r0, r0, r6, lsr r5
    3b2c:	009c7012 	addseq	r7, ip, r2, lsl r0
    3b30:	00053600 	andeq	r3, r5, r0, lsl #12
    3b34:	00000000 	andeq	r0, r0, r0
    3b38:	a11f0000 	tstge	pc, r0
    3b3c:	a1000008 	tstge	r0, r8
    3b40:	02000008 	andeq	r0, r0, #8, 0
    3b44:	771f0ac2 	ldrvc	r0, [pc, -r2, asr #21]
    3b48:	77000008 	strvc	r0, [r0, -r8]
    3b4c:	02000008 	andeq	r0, r0, #8, 0
    3b50:	cd00069c 	stcgt	6, cr0, [r0, #-624]	; 0xfffffd90
    3b54:	04000005 	streq	r0, [r0], #-5
    3b58:	0015bc00 	andseq	fp, r5, r0, lsl #24
    3b5c:	d2010400 	andle	r0, r1, #0, 8
    3b60:	0c000009 	stceq	0, cr0, [r0], {9}
    3b64:	00000911 	andeq	r0, r0, r1, lsl r9
    3b68:	00000982 	andeq	r0, r0, r2, lsl #19
    3b6c:	00009cd4 	ldrdeq	r9, [r0], -r4
    3b70:	000001f0 	strdeq	r0, [r0], -r0	; <UNPREDICTABLE>
    3b74:	00001f81 	andeq	r1, r0, r1, lsl #31
    3b78:	69050402 	stmdbvs	r5, {r1, sl}
    3b7c:	0300746e 	movweq	r7, #1134	; 0x46e
    3b80:	02070704 	andeq	r0, r7, #4, 14	; 0x100000
    3b84:	2c040000 	stccs	0, cr0, [r4], {-0}
    3b88:	03000000 	movweq	r0, #0
    3b8c:	007e0601 	rsbseq	r0, lr, r1, lsl #12
    3b90:	02030000 	andeq	r0, r3, #0, 0
    3b94:	00024005 	andeq	r4, r2, r5
    3b98:	05040300 	streq	r0, [r4, #-768]	; 0xfffffd00
    3b9c:	0000022b 	andeq	r0, r0, fp, lsr #4
    3ba0:	26050803 	strcs	r0, [r5], -r3, lsl #16
    3ba4:	03000002 	movweq	r0, #2
    3ba8:	007c0801 	rsbseq	r0, ip, r1, lsl #16
    3bac:	02030000 	andeq	r0, r3, #0, 0
    3bb0:	00009707 	andeq	r9, r0, r7, lsl #14
    3bb4:	02660500 	rsbeq	r0, r6, #0, 10
    3bb8:	34050000 	strcc	r0, [r5], #-0
    3bbc:	00006e19 	andeq	r6, r0, r9, lsl lr
    3bc0:	07040300 	streq	r0, [r4, -r0, lsl #6]
    3bc4:	00000202 	andeq	r0, r0, r2, lsl #4
    3bc8:	fd070803 	stc2	8, cr0, [r7, #-12]
    3bcc:	03000001 	movweq	r0, #1
    3bd0:	00850801 	addeq	r0, r5, r1, lsl #16
    3bd4:	07060000 	streq	r0, [r6, -r0]
    3bd8:	00005401 	andeq	r5, r0, r1, lsl #8
    3bdc:	0e0c0400 	cfcpyseq	mvf0, mvf12
    3be0:	000000c2 	andeq	r0, r0, r2, asr #1
    3be4:	000abc07 	andeq	fp, sl, r7, lsl #24
    3be8:	f4070000 	vst4.8	{d0-d3}, [r7], r0
    3bec:	01000008 	tsteq	r0, r8
    3bf0:	00093707 	andeq	r3, r9, r7, lsl #14
    3bf4:	46070400 	strmi	r0, [r7], -r0, lsl #8
    3bf8:	05000009 	streq	r0, [r0, #-9]
    3bfc:	00095507 	andeq	r5, r9, r7, lsl #10
    3c00:	64070600 	strvs	r0, [r7], #-1536	; 0xfffffa00
    3c04:	07000009 	streq	r0, [r0, -r9]
    3c08:	000a8507 	andeq	r8, sl, r7, lsl #10
    3c0c:	73070300 	movwvc	r0, #29440	; 0x7300
    3c10:	02000009 	andeq	r0, r0, #9, 0
    3c14:	09050800 	stmdbeq	r5, {fp}
    3c18:	022c0000 	eoreq	r0, ip, #0, 0
    3c1c:	015e0806 	cmpeq	lr, r6, lsl #16
    3c20:	69090000 	stmdbvs	r9, {}	; <UNPREDICTABLE>
    3c24:	0902006f 	stmdbeq	r2, {r0, r1, r2, r3, r5, r6}
    3c28:	00003309 	andeq	r3, r0, r9, lsl #6
    3c2c:	69090000 	stmdbvs	r9, {}	; <UNPREDICTABLE>
    3c30:	02007265 	andeq	r7, r0, #1342177286	; 0x50000006
    3c34:	0033090a 	eorseq	r0, r3, sl, lsl #18
    3c38:	09040000 	stmdbeq	r4, {}	; <UNPREDICTABLE>
    3c3c:	00726969 	rsbseq	r6, r2, r9, ror #18
    3c40:	33091102 	movwcc	r1, #37122	; 0x9102
    3c44:	08000000 	stmdaeq	r0, {}	; <UNPREDICTABLE>
    3c48:	72636c09 	rsbvc	r6, r3, #2304	; 0x900
    3c4c:	09130200 	ldmdbeq	r3, {r9}
    3c50:	00000033 	andeq	r0, r0, r3, lsr r0
    3c54:	636d090c 	cmnvs	sp, #12, 18	; 0x30000
    3c58:	14020072 	strne	r0, [r2], #-114	; 0xffffff8e
    3c5c:	00003309 	andeq	r3, r0, r9, lsl #6
    3c60:	6c091000 	stcvs	0, cr1, [r9], {-0}
    3c64:	02007273 	andeq	r7, r0, #805306375	; 0x30000007
    3c68:	00330915 	eorseq	r0, r3, r5, lsl r9
    3c6c:	09140000 	ldmdbeq	r4, {}	; <UNPREDICTABLE>
    3c70:	0072736d 	rsbseq	r7, r2, sp, ror #6
    3c74:	33091602 	movwcc	r1, #38402	; 0x9602
    3c78:	18000000 	stmdane	r0, {}	; <UNPREDICTABLE>
    3c7c:	000a9c0a 	andeq	r9, sl, sl, lsl #24
    3c80:	09170200 	ldmdbeq	r7, {r9}
    3c84:	00000033 	andeq	r0, r0, r3, lsr r0
    3c88:	0a650a1c 	beq	1946500 <__bss_end__+0x193b2d8>
    3c8c:	1b020000 	blne	83c94 <__bss_end__+0x78a6c>
    3c90:	00003309 	andeq	r3, r0, r9, lsl #6
    3c94:	e10a2000 	mrs	r2, (UNDEF: 10)
    3c98:	02000008 	andeq	r0, r0, #8, 0
    3c9c:	0033091d 	eorseq	r0, r3, sp, lsl r9
    3ca0:	0a240000 	beq	903ca8 <__bss_end__+0x8f8a80>
    3ca4:	000009b7 			; <UNDEFINED> instruction: 0x000009b7
    3ca8:	33091e02 	movwcc	r1, #40450	; 0x9e02
    3cac:	28000000 	stmdacs	r0, {}	; <UNPREDICTABLE>
    3cb0:	09bc0b00 	ldmibeq	ip!, {r8, r9, fp}
    3cb4:	08010000 	stmdaeq	r1, {}	; <UNPREDICTABLE>
    3cb8:	00017409 	andeq	r7, r1, r9, lsl #8
    3cbc:	21500400 	cmpcs	r0, r0, lsl #8
    3cc0:	33040c20 	movwcc	r0, #19488	; 0x4c20
    3cc4:	0d000000 	stceq	0, cr0, [r0, #-0]
    3cc8:	0000016e 	andeq	r0, r0, lr, ror #2
    3ccc:	000aa40b 	andeq	sl, sl, fp, lsl #8
    3cd0:	23290100 			; <UNDEFINED> instruction: 0x23290100
    3cd4:	0000018f 	andeq	r0, r0, pc, lsl #3
    3cd8:	20215040 	eorcs	r5, r1, r0, asr #32
    3cdc:	00c2040c 	sbceq	r0, r2, ip, lsl #8
    3ce0:	890d0000 	stmdbhi	sp, {}	; <UNPREDICTABLE>
    3ce4:	0e000001 	cdpeq	0, 0, cr0, cr0, cr1, {0}
    3ce8:	0000077a 	andeq	r0, r0, sl, ror r7
    3cec:	8c06cc01 	stchi	12, cr12, [r6], {1}
    3cf0:	1400009e 	strne	r0, [r0], #-158	; 0xffffff62
    3cf4:	01000000 	mrseq	r0, (UNDEF: 0)
    3cf8:	0001b49c 	muleq	r1, ip, r4
    3cfc:	9e940f00 	cdpls	15, 9, cr0, cr4, cr0, {0}
    3d00:	01b40000 			; <UNDEFINED> instruction: 0x01b40000
    3d04:	10000000 	andne	r0, r0, r0
    3d08:	00000926 	andeq	r0, r0, r6, lsr #18
    3d0c:	2505b601 	strcs	fp, [r5, #-1537]	; 0xfffff9ff
    3d10:	6c000000 	stcvs	0, cr0, [r0], {-0}
    3d14:	2000009e 	mulcs	r0, lr, r0
    3d18:	01000000 	mrseq	r0, (UNDEF: 0)
    3d1c:	0001eb9c 	muleq	r1, ip, fp
    3d20:	9e740f00 	cdpls	15, 7, cr0, cr4, cr0, {0}
    3d24:	05a00000 	streq	r0, [r0, #0]!
    3d28:	7c110000 	ldcvc	0, cr0, [r1], {-0}
    3d2c:	ac00009e 	stcge	0, cr0, [r0], {158}	; 0x9e
    3d30:	12000005 	andne	r0, r0, #5, 0
    3d34:	0c055001 	stceq	0, cr5, [r5], {1}
    3d38:	20215064 	eorcs	r5, r1, r4, rrx
    3d3c:	77100000 	ldrvc	r0, [r0, -r0]
    3d40:	0100000a 	tsteq	r0, sl
    3d44:	002505b3 	strhteq	r0, [r5], -r3
    3d48:	9e5c0000 	cdpls	0, 5, cr0, cr12, cr0, {0}
    3d4c:	00100000 	andseq	r0, r0, r0
    3d50:	9c010000 	stcls	0, cr0, [r1], {-0}
    3d54:	00000218 	andeq	r0, r0, r8, lsl r2
    3d58:	009e640f 	addseq	r6, lr, pc, lsl #8
    3d5c:	0005a000 	andeq	sl, r5, r0
    3d60:	9e680f00 	cdpls	15, 6, cr0, cr8, cr0, {0}
    3d64:	03090000 	movweq	r0, #36864	; 0x9000
    3d68:	0e000000 	cdpeq	0, 0, cr0, cr0, cr0, {0}
    3d6c:	00000ab2 			; <UNDEFINED> instruction: 0x00000ab2
    3d70:	2c06ab01 			; <UNDEFINED> instruction: 0x2c06ab01
    3d74:	3000009e 	mulcc	r0, lr, r0
    3d78:	01000000 	mrseq	r0, (UNDEF: 0)
    3d7c:	00027c9c 	muleq	r2, ip, ip
    3d80:	00631300 	rsbeq	r1, r3, r0, lsl #6
    3d84:	2c19ab01 			; <UNDEFINED> instruction: 0x2c19ab01
    3d88:	5b000000 	blpl	3d90 <__code_start__-0x4270>
    3d8c:	57000027 	strpl	r0, [r0, -r7, lsr #32]
    3d90:	0f000027 	svceq	0x00000027
    3d94:	00009e38 	andeq	r9, r0, r8, lsr lr
    3d98:	000005a0 	andeq	r0, r0, r0, lsr #11
    3d9c:	009e3c0f 	addseq	r3, lr, pc, lsl #24
    3da0:	0002db00 	andeq	sp, r2, r0, lsl #22
    3da4:	9e501400 	cdpls	4, 5, cr1, cr0, cr0, {0}
    3da8:	05b80000 	ldreq	r0, [r8, #0]!
    3dac:	02720000 	rsbseq	r0, r2, #0, 0
    3db0:	01120000 	tsteq	r2, r0
    3db4:	400c0550 	andmi	r0, ip, r0, asr r5
    3db8:	12202150 	eorne	r2, r0, #20
    3dbc:	74055101 	strvc	r5, [r5], #-257	; 0xfffffeff
    3dc0:	1aff0800 	bne	fffc5dc8 <__bss_end__+0xfffbaba0>
    3dc4:	9e540f00 	cdpls	15, 5, cr0, cr4, cr0, {0}
    3dc8:	05a00000 	streq	r0, [r0, #0]!
    3dcc:	10000000 	andne	r0, r0, r0
    3dd0:	000009c8 	andeq	r0, r0, r8, asr #19
    3dd4:	2505a301 	strcs	sl, [r5, #-769]	; 0xfffffcff
    3dd8:	fc000000 	stc2	0, cr0, [r0], {-0}
    3ddc:	3000009d 	mulcc	r0, sp, r0
    3de0:	01000000 	mrseq	r0, (UNDEF: 0)
    3de4:	0002db9c 	muleq	r2, ip, fp
    3de8:	00631500 	rsbeq	r1, r3, r0, lsl #10
    3dec:	2509a701 	strcs	sl, [r9, #-1793]	; 0xfffff8ff
    3df0:	7b000000 	blvc	3df8 <__code_start__-0x4208>
    3df4:	79000027 	stmdbvc	r0, {r0, r1, r2, r5}
    3df8:	0f000027 	svceq	0x00000027
    3dfc:	00009e04 	andeq	r9, r0, r4, lsl #28
    3e00:	000005a0 	andeq	r0, r0, r0, lsr #11
    3e04:	009e080f 	addseq	r0, lr, pc, lsl #16
    3e08:	00030900 	andeq	r0, r3, r0, lsl #18
    3e0c:	9e181400 	cfmulsls	mvf1, mvf8, mvf0
    3e10:	05ac0000 	streq	r0, [ip, #0]!
    3e14:	02d10000 	sbcseq	r0, r1, #0, 0
    3e18:	01120000 	tsteq	r2, r0
    3e1c:	400c0550 	andmi	r0, ip, r0, asr r5
    3e20:	00202150 	eoreq	r2, r0, r0, asr r1
    3e24:	009e200f 	addseq	r2, lr, pc
    3e28:	0005a000 	andeq	sl, r5, r0
    3e2c:	18100000 	ldmdane	r0, {}	; <UNPREDICTABLE>
    3e30:	01000009 	tsteq	r0, r9
    3e34:	00250594 	mlaeq	r5, r4, r5, r0
    3e38:	9ddc0000 	ldclls	0, cr0, [ip]
    3e3c:	00200000 	eoreq	r0, r0, r0
    3e40:	9c010000 	stcls	0, cr0, [r1], {-0}
    3e44:	00000309 	andeq	r0, r0, r9, lsl #6
    3e48:	009de811 	addseq	lr, sp, r1, lsl r8
    3e4c:	0005ac00 	andeq	sl, r5, r0, lsl #24
    3e50:	50011200 	andpl	r1, r1, r0, lsl #4
    3e54:	50640c05 	rsbpl	r0, r4, r5, lsl #24
    3e58:	00002021 	andeq	r2, r0, r1, lsr #32
    3e5c:	0008e610 	andeq	lr, r8, r0, lsl r6
    3e60:	058b0100 	streq	r0, [fp, #256]	; 0x100
    3e64:	00000025 	andeq	r0, r0, r5, lsr #32
    3e68:	00009dc4 	andeq	r9, r0, r4, asr #27
    3e6c:	00000018 	andeq	r0, r0, r8, lsl r0
    3e70:	03379c01 	teqeq	r7, #256	; 0x100
    3e74:	d0110000 	andsle	r0, r1, r0
    3e78:	ac00009d 	stcge	0, cr0, [r0], {157}	; 0x9d
    3e7c:	12000005 	andne	r0, r0, #5, 0
    3e80:	0c055001 	stceq	0, cr5, [r5], {1}
    3e84:	20215064 	eorcs	r5, r1, r4, rrx
    3e88:	980e0000 	stmdals	lr, {}	; <UNPREDICTABLE>
    3e8c:	01000007 	tsteq	r0, r7
    3e90:	9d140645 	ldcls	6, cr0, [r4, #-276]	; 0xfffffeec
    3e94:	00b00000 	adcseq	r0, r0, r0
    3e98:	9c010000 	stcls	0, cr0, [r1], {-0}
    3e9c:	00000484 	andeq	r0, r0, r4, lsl #9
    3ea0:	0008d816 	andeq	sp, r8, r6, lsl r8
    3ea4:	0e7e0100 	rpweqe	f0, f6, f0
    3ea8:	00000062 	andeq	r0, r0, r2, rrx
    3eac:	2414010e 	ldrcs	r0, [r4], #-270	; 0xfffffef2
    3eb0:	c400009d 	strgt	r0, [r0], #-157	; 0xffffff63
    3eb4:	73000005 	movwvc	r0, #5
    3eb8:	12000003 	andne	r0, r0, #3, 0
    3ebc:	3e015001 	cdpcc	0, 0, cr5, cr1, cr1, {0}
    3ec0:	01510112 	cmpeq	r1, r2, lsl r1
    3ec4:	30140032 	andscc	r0, r4, r2, lsr r0
    3ec8:	c400009d 	strgt	r0, [r0], #-157	; 0xffffff63
    3ecc:	8b000005 	blhi	3ee8 <__code_start__-0x4118>
    3ed0:	12000003 	andne	r0, r0, #3, 0
    3ed4:	3f015001 	svccc	0x00015001
    3ed8:	01510112 	cmpeq	r1, r2, lsl r1
    3edc:	340f0032 	strcc	r0, [pc], #-50	; 3ee4 <__code_start__-0x411c>
    3ee0:	a000009d 	mulge	r0, sp, r0
    3ee4:	14000005 	strne	r0, [r0], #-5
    3ee8:	00009d40 	andeq	r9, r0, r0, asr #26
    3eec:	0000053d 	andeq	r0, r0, sp, lsr r5
    3ef0:	000003b0 			; <UNDEFINED> instruction: 0x000003b0
    3ef4:	05500112 	ldrbeq	r0, [r0, #-274]	; 0xfffffeee
    3ef8:	2150040c 	cmpcs	r0, ip, lsl #8
    3efc:	51011220 	tstpl	r1, r0, lsr #4
    3f00:	0f003101 	svceq	0x00003101
    3f04:	00009d44 	andeq	r9, r0, r4, asr #26
    3f08:	000005a0 	andeq	r0, r0, r0, lsr #11
    3f0c:	009d5414 	addseq	r5, sp, r4, lsl r4
    3f10:	0005b800 	andeq	fp, r5, r0, lsl #16
    3f14:	0003d200 	andeq	sp, r3, r0, lsl #4
    3f18:	50011200 	andpl	r1, r1, r0, lsl #4
    3f1c:	12007402 	andne	r7, r0, #33554432	; 0x2000000
    3f20:	30015101 	andcc	r5, r1, r1, lsl #2
    3f24:	9d601400 	cfstrdls	mvd1, [r0, #-0]
    3f28:	05b80000 	ldreq	r0, [r8, #0]!
    3f2c:	03ee0000 	mvneq	r0, #0, 0
    3f30:	01120000 	tsteq	r2, r0
    3f34:	440c0550 	strmi	r0, [ip], #-1360	; 0xfffffab0
    3f38:	12202150 	eorne	r2, r0, #20
    3f3c:	30015101 	andcc	r5, r1, r1, lsl #2
    3f40:	9d6c1400 	cfstrdls	mvd1, [ip, #-0]
    3f44:	05b80000 	ldreq	r0, [r8, #0]!
    3f48:	040a0000 	streq	r0, [sl], #-0
    3f4c:	01120000 	tsteq	r2, r0
    3f50:	4c0c0550 	cfstr32mi	mvfx0, [ip], {80}	; 0x50
    3f54:	12202150 	eorne	r2, r0, #20
    3f58:	33015101 	movwcc	r5, #4353	; 0x1101
    3f5c:	9d781400 	cfldrdls	mvd1, [r8, #-0]
    3f60:	05b80000 	ldreq	r0, [r8, #0]!
    3f64:	04260000 	strteq	r0, [r6], #-0
    3f68:	01120000 	tsteq	r2, r0
    3f6c:	500c0550 	andpl	r0, ip, r0, asr r5
    3f70:	12202150 	eorne	r2, r0, #20
    3f74:	30015101 	andcc	r5, r1, r1, lsl #2
    3f78:	9d841400 	cfstrsls	mvf1, [r4]
    3f7c:	05b80000 	ldreq	r0, [r8, #0]!
    3f80:	04430000 	strbeq	r0, [r3], #-0
    3f84:	01120000 	tsteq	r2, r0
    3f88:	480c0550 	stmdami	ip, {r4, r6, r8, sl}
    3f8c:	12202150 	eorne	r2, r0, #20
    3f90:	08025101 	stmdaeq	r2, {r0, r8, ip, lr}
    3f94:	901400c7 	andsls	r0, r4, r7, asr #1
    3f98:	b800009d 	stmdalt	r0, {r0, r2, r3, r4, r7}
    3f9c:	61000005 	tstvs	r0, r5
    3fa0:	12000004 	andne	r0, r0, #4, 0
    3fa4:	0c055001 	stceq	0, cr5, [r5], {1}
    3fa8:	20215068 	eorcs	r5, r1, r8, rrx
    3fac:	03510112 	cmpeq	r1, #-2147483644	; 0x80000004
    3fb0:	00010e0a 	andeq	r0, r1, sl, lsl #28
    3fb4:	009d9c14 	addseq	r9, sp, r4, lsl ip
    3fb8:	0005b800 	andeq	fp, r5, r0, lsl #16
    3fbc:	00047a00 	andeq	r7, r4, r0, lsl #20
    3fc0:	50011200 	andpl	r1, r1, r0, lsl #4
    3fc4:	12007402 	andne	r7, r0, #33554432	; 0x2000000
    3fc8:	33015101 	movwcc	r5, #4353	; 0x1101
    3fcc:	9da00f00 	stcls	15, cr0, [r0]
    3fd0:	05a00000 	streq	r0, [r0, #0]!
    3fd4:	0e000000 	cdpeq	0, 0, cr0, cr0, cr0, {0}
    3fd8:	00000a6a 	andeq	r0, r0, sl, ror #20
    3fdc:	a0063501 	andge	r3, r6, r1, lsl #10
    3fe0:	2400009e 	strcs	r0, [r0], #-158	; 0xffffff62
    3fe4:	01000000 	mrseq	r0, (UNDEF: 0)
    3fe8:	0004d39c 	muleq	r4, ip, r3
    3fec:	9ea80f00 	cdpls	15, 10, cr0, cr8, cr0, {0}
    3ff0:	01940000 	orrseq	r0, r4, r0
    3ff4:	ac0f0000 	stcge	0, cr0, [pc], {-0}
    3ff8:	a000009e 	mulge	r0, lr, r0
    3ffc:	14000005 	strne	r0, [r0], #-5
    4000:	00009eb8 			; <UNDEFINED> instruction: 0x00009eb8
    4004:	000004d3 	ldrdeq	r0, [r0], -r3
    4008:	000004c9 	andeq	r0, r0, r9, asr #9
    400c:	05500112 	ldrbeq	r0, [r0, #-274]	; 0xfffffeee
    4010:	2150040c 	cmpcs	r0, ip, lsl #8
    4014:	51011220 	tstpl	r1, r0, lsr #4
    4018:	00fe0902 	rscseq	r0, lr, r2, lsl #18
    401c:	009ebc0f 	addseq	fp, lr, pc, lsl #24
    4020:	0005a000 	andeq	sl, r5, r0
    4024:	a9170000 	ldmdbge	r7, {}	; <UNPREDICTABLE>
    4028:	0100000a 	tsteq	r0, sl
    402c:	9cd40d31 	ldclls	13, cr0, [r4], {49}	; 0x31
    4030:	00200000 	eoreq	r0, r0, r0
    4034:	9c010000 	stcls	0, cr0, [r1], {-0}
    4038:	00000536 	andeq	r0, r0, r6, lsr r5
    403c:	0005d918 	andeq	sp, r5, r8, lsl r9
    4040:	25310100 	ldrcs	r0, [r1, #-256]!	; 0xffffff00
    4044:	00000536 	andeq	r0, r0, r6, lsr r5
    4048:	00002792 	muleq	r0, r2, r7
    404c:	0000278e 	andeq	r2, r0, lr, lsl #15
    4050:	6c617613 	stclvs	6, cr7, [r1], #-76	; 0xffffffb4
    4054:	34310100 	ldrtcc	r0, [r1], #-256	; 0xffffff00
    4058:	0000002c 	andeq	r0, r0, ip, lsr #32
    405c:	000027b4 			; <UNDEFINED> instruction: 0x000027b4
    4060:	000027b0 			; <UNDEFINED> instruction: 0x000027b0
    4064:	009ce414 	addseq	lr, ip, r4, lsl r4
    4068:	0005ac00 	andeq	sl, r5, r0, lsl #24
    406c:	00052500 	andeq	r2, r5, r0, lsl #10
    4070:	50011200 	andpl	r1, r1, r0, lsl #4
    4074:	00007402 	andeq	r7, r0, r2, lsl #8
    4078:	009cf011 	addseq	pc, ip, r1, lsl r0	; <UNPREDICTABLE>
    407c:	0005b800 	andeq	fp, r5, r0, lsl #16
    4080:	50011200 	andpl	r1, r1, r0, lsl #4
    4084:	00007402 	andeq	r7, r0, r2, lsl #8
    4088:	3c040c00 	stccc	12, cr0, [r4], {-0}
    408c:	19000005 	stmdbne	r0, {r0, r2}
    4090:	000a9417 	andeq	r9, sl, r7, lsl r4
    4094:	0d2e0100 	stfeqs	f0, [lr, #-0]
    4098:	00009cf4 	strdeq	r9, [r0], -r4
    409c:	00000020 	andeq	r0, r0, r0, lsr #32
    40a0:	05a09c01 	streq	r9, [r0, #3073]!	; 0xc01
    40a4:	d9180000 	ldmdble	r8, {}	; <UNPREDICTABLE>
    40a8:	01000005 	tsteq	r0, r5
    40ac:	0536242e 	ldreq	r2, [r6, #-1070]!	; 0xfffffbd2
    40b0:	27d60000 	ldrbcs	r0, [r6, r0]
    40b4:	27d20000 	ldrbcs	r0, [r2, r0]
    40b8:	76130000 	ldrvc	r0, [r3], -r0
    40bc:	01006c61 	tsteq	r0, r1, ror #24
    40c0:	002c332e 	eoreq	r3, ip, lr, lsr #6
    40c4:	27f80000 	ldrbcs	r0, [r8, r0]!
    40c8:	27f40000 	ldrbcs	r0, [r4, r0]!
    40cc:	04140000 	ldreq	r0, [r4], #-0
    40d0:	ac00009d 	stcge	0, cr0, [r0], {157}	; 0x9d
    40d4:	8f000005 	svchi	0x00000005
    40d8:	12000005 	andne	r0, r0, #5, 0
    40dc:	74025001 	strvc	r5, [r2], #-1
    40e0:	10110000 	andsne	r0, r1, r0
    40e4:	b800009d 	stmdalt	r0, {r0, r2, r3, r4, r7}
    40e8:	12000005 	andne	r0, r0, #5, 0
    40ec:	74025001 	strvc	r5, [r2], #-1
    40f0:	1a000000 	bne	40f8 <__code_start__-0x3f08>
    40f4:	00000877 	andeq	r0, r0, r7, ror r8
    40f8:	00000877 	andeq	r0, r0, r7, ror r8
    40fc:	1a069c03 	bne	1ab110 <__bss_end__+0x19fee8>
    4100:	00000ade 	ldrdeq	r0, [r0], -lr
    4104:	00000ade 	ldrdeq	r0, [r0], -lr
    4108:	1a0bc303 	bne	2f4d1c <__bss_end__+0x2e9af4>
    410c:	000008d2 	ldrdeq	r0, [r0], -r2
    4110:	000008d2 	ldrdeq	r0, [r0], -r2
    4114:	1a06ae03 	bne	1af928 <__bss_end__+0x1a4700>
    4118:	00000acc 	andeq	r0, r0, ip, asr #21
    411c:	00000acc 	andeq	r0, r0, ip, asr #21
    4120:	00061904 	andeq	r1, r6, r4, lsl #18
    4124:	000008e9 	andeq	r0, r0, r9, ror #17
    4128:	17540004 	ldrbne	r0, [r4, -r4]
    412c:	01040000 	mrseq	r0, (UNDEF: 4)
    4130:	000009d2 	ldrdeq	r0, [r0], -r2
    4134:	000b680c 	andeq	r6, fp, ip, lsl #16
    4138:	00098200 	andeq	r8, r9, r0, lsl #4
    413c:	009ec400 	addseq	ip, lr, r0, lsl #8
    4140:	0003b000 	andeq	fp, r3, r0
    4144:	00218900 	eoreq	r8, r1, r0, lsl #18
    4148:	05040200 	streq	r0, [r4, #-512]	; 0xfffffe00
    414c:	00746e69 	rsbseq	r6, r4, r9, ror #28
    4150:	07070403 	streq	r0, [r7, -r3, lsl #8]
    4154:	03000002 	movweq	r0, #2
    4158:	007e0601 	rsbseq	r0, lr, r1, lsl #12
    415c:	02030000 	andeq	r0, r3, #0, 0
    4160:	00024005 	andeq	r4, r2, r5
    4164:	05040300 	streq	r0, [r4, #-768]	; 0xfffffd00
    4168:	0000022b 	andeq	r0, r0, fp, lsr #4
    416c:	26050803 	strcs	r0, [r5], -r3, lsl #16
    4170:	03000002 	movweq	r0, #2
    4174:	007c0801 	rsbseq	r0, ip, r1, lsl #16
    4178:	02030000 	andeq	r0, r3, #0, 0
    417c:	00009707 	andeq	r9, r0, r7, lsl #14
    4180:	02660400 	rsbeq	r0, r6, #0, 8
    4184:	34030000 	strcc	r0, [r3], #-0
    4188:	00006919 	andeq	r6, r0, r9, lsl r9
    418c:	07040300 	streq	r0, [r4, -r0, lsl #6]
    4190:	00000202 	andeq	r0, r0, r2, lsl #4
    4194:	fd070803 	stc2	8, cr0, [r7, #-12]
    4198:	03000001 	movweq	r0, #1
    419c:	00850801 	addeq	r0, r5, r1, lsl #16
    41a0:	77050000 	strvc	r0, [r5, -r0]
    41a4:	03000000 	movweq	r0, #0
    41a8:	03ac0408 			; <UNDEFINED> instruction: 0x03ac0408
    41ac:	04060000 	streq	r0, [r6], #-0
    41b0:	2c040707 	stccs	7, cr0, [r4], {7}
    41b4:	01000000 	mrseq	r0, (UNDEF: 0)
    41b8:	00a4061f 	adceq	r0, r4, pc, lsl r6
    41bc:	02080000 	andeq	r0, r8, #0, 0
    41c0:	0000000b 	andeq	r0, r0, fp
    41c4:	00002000 	andeq	r2, r0, r0
    41c8:	0002f709 	andeq	pc, r2, r9, lsl #14
    41cc:	0d220100 	stfeqs	f0, [r2, #-0]
    41d0:	00000077 	andeq	r0, r0, r7, ror r0
    41d4:	0004810a 	andeq	r8, r4, sl, lsl #2
    41d8:	0e230100 	sufeqs	f0, f3, f0
    41dc:	000000c2 	andeq	r0, r0, r2, asr #1
    41e0:	ade40305 	stclge	3, cr0, [r4, #20]!
    41e4:	040b0000 	streq	r0, [fp], #-0
    41e8:	00000077 	andeq	r0, r0, r7, ror r0
    41ec:	000aec0a 	andeq	lr, sl, sl, lsl #24
    41f0:	0e240100 	sufeqs	f0, f4, f0
    41f4:	000000c2 	andeq	r0, r0, r2, asr #1
    41f8:	ade80305 	stclge	3, cr0, [r8, #20]!
    41fc:	470a0000 	strmi	r0, [sl, -r0]
    4200:	0100000b 	tsteq	r0, fp
    4204:	00c20e25 	sbceq	r0, r2, r5, lsr #28
    4208:	03050000 	movweq	r0, #20480	; 0x5000
    420c:	0000adec 	andeq	sl, r0, ip, ror #27
    4210:	000b1d0c 	andeq	r1, fp, ip, lsl #26
    4214:	06750100 	ldrbteq	r0, [r5], -r0, lsl #2
    4218:	0000a214 	andeq	sl, r0, r4, lsl r2
    421c:	00000060 	andeq	r0, r0, r0, rrx
    4220:	01649c01 	cmneq	r4, r1, lsl #24
    4224:	700d0000 	andvc	r0, sp, r0
    4228:	16750100 	ldrbtne	r0, [r5], -r0, lsl #2
    422c:	0000008a 	andeq	r0, r0, sl, lsl #1
    4230:	0000281c 	andeq	r2, r0, ip, lsl r8
    4234:	00002816 	andeq	r2, r0, r6, lsl r8
    4238:	0001e10e 	andeq	lr, r1, lr, lsl #2
    423c:	00017400 	andeq	r7, r1, r0, lsl #8
    4240:	d4030500 	strle	r0, [r3], #-1280	; 0xfffffb00
    4244:	0f0000ad 	svceq	0x000000ad
    4248:	0000a260 	andeq	sl, r0, r0, ror #4
    424c:	000008bc 			; <UNDEFINED> instruction: 0x000008bc
    4250:	0000015a 	andeq	r0, r0, sl, asr r1
    4254:	05500110 	ldrbeq	r0, [r0, #-272]	; 0xfffffef0
    4258:	00ad4c03 	adceq	r4, sp, r3, lsl #24
    425c:	51011000 	mrspl	r1, (UNDEF: 1)
    4260:	abe40305 	blge	ff904e7c <__bss_end__+0xff8f9c54>
    4264:	01100000 	tsteq	r0, r0
    4268:	d4030552 	strle	r0, [r3], #-1362	; 0xfffffaae
    426c:	100000ad 	andne	r0, r0, sp, lsr #1
    4270:	08025301 	stmdaeq	r2, {r0, r8, r9, ip, lr}
    4274:	7d021077 	stcvc	0, cr1, [r2, #-476]	; 0xfffffe24
    4278:	01f30300 	mvnseq	r0, r0, lsl #6
    427c:	64110050 	ldrvs	r0, [r1], #-80	; 0xffffffb0
    4280:	c80000a2 	stmdagt	r0, {r1, r5, r7}
    4284:	00000008 	andeq	r0, r0, r8
    4288:	00007e12 	andeq	r7, r0, r2, lsl lr
    428c:	00017400 	andeq	r7, r1, r0, lsl #8
    4290:	002c1300 	eoreq	r1, ip, r0, lsl #6
    4294:	00090000 	andeq	r0, r9, r0
    4298:	00016405 	andeq	r6, r1, r5, lsl #8
    429c:	0b0b1400 	bleq	2c92a4 <__bss_end__+0x2be07c>
    42a0:	72010000 	andvc	r0, r1, #0, 0
    42a4:	00a20006 	adceq	r0, r2, r6
    42a8:	00001400 	andeq	r1, r0, r0, lsl #8
    42ac:	0c9c0100 	ldfeqs	f0, [ip], {0}
    42b0:	000002c5 	andeq	r0, r0, r5, asr #5
    42b4:	fc066f01 	stc2	15, cr6, [r6], {1}
    42b8:	040000a1 	streq	r0, [r0], #-161	; 0xffffff5f
    42bc:	01000000 	mrseq	r0, (UNDEF: 0)
    42c0:	0001ae9c 	muleq	r1, ip, lr
    42c4:	00701500 	rsbseq	r1, r0, r0, lsl #10
    42c8:	8a126f01 	bhi	49fed4 <__bss_end__+0x494cac>
    42cc:	01000000 	mrseq	r0, (UNDEF: 0)
    42d0:	aa160050 	bge	584418 <__bss_end__+0x5791f0>
    42d4:	0100000b 	tsteq	r0, fp
    42d8:	008a075e 	addeq	r0, sl, lr, asr r7
    42dc:	a0e40000 	rscge	r0, r4, r0
    42e0:	01180000 	tsteq	r8, r0
    42e4:	9c010000 	stcls	0, cr0, [r1], {-0}
    42e8:	0000042c 	andeq	r0, r0, ip, lsr #8
    42ec:	00036717 	andeq	r6, r3, r7, lsl r7
    42f0:	205e0100 	subscs	r0, lr, r0, lsl #2
    42f4:	0000002c 	andeq	r0, r0, ip, lsr #32
    42f8:	0000285d 	andeq	r2, r0, sp, asr r8
    42fc:	00002849 	andeq	r2, r0, r9, asr #16
    4300:	000b2717 	andeq	r2, fp, r7, lsl r7
    4304:	315e0100 	cmpcc	lr, r0, lsl #2
    4308:	0000002c 	andeq	r0, r0, ip, lsr #32
    430c:	000028f6 	strdeq	r2, [r0], -r6
    4310:	000028e2 	andeq	r2, r0, r2, ror #17
    4314:	0001e10e 	andeq	lr, r1, lr, lsl #2
    4318:	00043c00 	andeq	r3, r4, r0, lsl #24
    431c:	bc030500 	cfstr32lt	mvfx0, [r3], {-0}
    4320:	180000ad 	stmdane	r0, {r0, r2, r3, r5, r7}
    4324:	66010068 	strvs	r0, [r1], -r8, rrx
    4328:	00002c0e 	andeq	r2, r0, lr, lsl #24
    432c:	0029ac00 	eoreq	sl, r9, r0, lsl #24
    4330:	0029a000 	eoreq	sl, r9, r0
    4334:	08541900 	ldmdaeq	r4, {r8, fp, ip}^
    4338:	a0f40000 	rscsge	r0, r4, r0
    433c:	f4040000 	vst4.8	{d0-d3}, [r4], r0
    4340:	040000a0 	streq	r0, [r0], #-160	; 0xffffff60
    4344:	01000000 	mrseq	r0, (UNDEF: 0)
    4348:	02380560 	eorseq	r0, r8, #96, 10	; 0x18000000
    434c:	651a0000 	ldrvs	r0, [sl, #-0]
    4350:	00000008 	andeq	r0, r0, r8
    4354:	fe00002a 	cdp2	0, 0, cr0, cr0, cr10, {1}
    4358:	00000029 	andeq	r0, r0, r9, lsr #32
    435c:	00089619 	andeq	r9, r8, r9, lsl r6
    4360:	00a10000 	adceq	r0, r1, r0
    4364:	a1000200 	mrsge	r0, R8_usr
    4368:	00080000 	andeq	r0, r8, r0
    436c:	61010000 	mrsvs	r0, (UNDEF: 1)
    4370:	00026c11 	andeq	r6, r2, r1, lsl ip
    4374:	08b11a00 	ldmeq	r1!, {r9, fp, ip}
    4378:	2a150000 	bcs	544380 <__bss_end__+0x539158>
    437c:	2a130000 	bcs	4c4384 <__bss_end__+0x4b915c>
    4380:	a71a0000 	ldrge	r0, [sl, -r0]
    4384:	2b000008 	blcs	43ac <__code_start__-0x3c54>
    4388:	2900002a 	stmdbcs	r0, {r1, r3, r5}
    438c:	0000002a 	andeq	r0, r0, sl, lsr #32
    4390:	00081f1b 	andeq	r1, r8, fp, lsl pc
    4394:	00a11000 	adceq	r1, r1, r0
    4398:	04300100 	ldrteq	r0, [r0], #-256	; 0xffffff00
    439c:	67010000 	strvs	r0, [r1, -r0]
    43a0:	00030a09 	andeq	r0, r3, r9, lsl #20
    43a4:	083a1a00 	ldmdaeq	sl!, {r9, fp, ip}
    43a8:	2a440000 	bcs	11043b0 <__bss_end__+0x10f9188>
    43ac:	2a3e0000 	bcs	f843b4 <__bss_end__+0xf7918c>
    43b0:	301a0000 	andscc	r0, sl, r0
    43b4:	8b000008 	blhi	43dc <__code_start__-0x3c24>
    43b8:	8300002a 	movwhi	r0, #42	; 0x2a
    43bc:	1c00002a 	stcne	0, cr0, [r0], {42}	; 0x2a
    43c0:	00000430 	andeq	r0, r0, r0, lsr r4
    43c4:	00085419 	andeq	r5, r8, r9, lsl r4
    43c8:	00a11000 	adceq	r1, r1, r0
    43cc:	a1100400 	tstge	r0, r0, lsl #8
    43d0:	00040000 	andeq	r0, r4, r0
    43d4:	11010000 	mrsne	r0, (UNDEF: 1)
    43d8:	0002c705 	andeq	ip, r2, r5, lsl #14
    43dc:	08651a00 	stmdaeq	r5!, {r9, fp, ip}^
    43e0:	2ac90000 	bcs	ff2443e8 <__bss_end__+0xff2391c0>
    43e4:	2ac70000 	bcs	ff1c43ec <__bss_end__+0xff1b91c4>
    43e8:	0f000000 	svceq	0x00000000
    43ec:	0000a1a8 	andeq	sl, r0, r8, lsr #3
    43f0:	000008bc 			; <UNDEFINED> instruction: 0x000008bc
    43f4:	000002ff 	strdeq	r0, [r0], -pc	; <UNPREDICTABLE>
    43f8:	05500110 	ldrbeq	r0, [r0, #-272]	; 0xfffffef0
    43fc:	00a71c03 	adceq	r1, r7, r3, lsl #24
    4400:	51011000 	mrspl	r1, (UNDEF: 1)
    4404:	abe40305 	blge	ff905020 <__bss_end__+0xff8f9df8>
    4408:	01100000 	tsteq	r0, r0
    440c:	cc030552 	cfstr32gt	mvfx0, [r3], {82}	; 0x52
    4410:	100000ad 	andne	r0, r0, sp, lsr #1
    4414:	41015301 	tstmi	r1, r1, lsl #6
    4418:	007d0210 	rsbseq	r0, sp, r0, lsl r2
    441c:	acf80305 	ldclge	3, cr0, [r8], #20
    4420:	11000000 	mrsne	r0, (UNDEF: 0)
    4424:	0000a1ac 	andeq	sl, r0, ip, lsr #3
    4428:	000008c8 	andeq	r0, r0, r8, asr #17
    442c:	70190000 	andsvc	r0, r9, r0
    4430:	28000008 	stmdacs	r0, {r3}
    4434:	030000a1 	movweq	r0, #161	; 0xa1
    4438:	0000a128 	andeq	sl, r0, r8, lsr #2
    443c:	00000004 	andeq	r0, r0, r4
    4440:	3e056801 	cdpcc	8, 0, cr6, cr5, cr1, {0}
    4444:	1a000003 	bne	4458 <__code_start__-0x3ba8>
    4448:	0000088b 	andeq	r0, r0, fp, lsl #17
    444c:	00002ade 	ldrdeq	r2, [r0], -lr
    4450:	00002adc 	ldrdeq	r2, [r0], -ip
    4454:	0008811a 	andeq	r8, r8, sl, lsl r1
    4458:	002af300 	eoreq	pc, sl, r0, lsl #6
    445c:	002af100 	eoreq	pc, sl, r0, lsl #2
    4460:	400f0000 	andmi	r0, pc, r0
    4464:	410000a1 	smlatbmi	r0, r1, r0, r0
    4468:	53000004 	movwpl	r0, #4
    446c:	10000003 	andne	r0, r0, r3
    4470:	f3035001 	vhadd.u8	d5, d3, d1
    4474:	0f005001 	svceq	0x00005001
    4478:	0000a164 	andeq	sl, r0, r4, ror #2
    447c:	000008bc 			; <UNDEFINED> instruction: 0x000008bc
    4480:	0000038c 	andeq	r0, r0, ip, lsl #7
    4484:	05500110 	ldrbeq	r0, [r0, #-272]	; 0xfffffef0
    4488:	00a71c03 	adceq	r1, r7, r3, lsl #24
    448c:	51011000 	mrspl	r1, (UNDEF: 1)
    4490:	abe40305 	blge	ff9050ac <__bss_end__+0xff8f9e84>
    4494:	01100000 	tsteq	r0, r0
    4498:	bc030552 	cfstr32lt	mvfx0, [r3], {82}	; 0x52
    449c:	100000ad 	andne	r0, r0, sp, lsr #1
    44a0:	08025301 	stmdaeq	r2, {r0, r8, r9, ip, lr}
    44a4:	7d02105f 	stcvc	0, cr1, [r2, #-380]	; 0xfffffe84
    44a8:	f4030500 	vst3.8	{d0,d2,d4}, [r3], r0
    44ac:	000000ab 	andeq	r0, r0, fp, lsr #1
    44b0:	00a16811 	adceq	r6, r1, r1, lsl r8
    44b4:	0008c800 	andeq	ip, r8, r0, lsl #16
    44b8:	a16c1100 	cmnge	ip, r0, lsl #2
    44bc:	08d40000 	ldmeq	r4, {}^	; <UNPREDICTABLE>
    44c0:	880f0000 	stmdahi	pc, {}	; <UNPREDICTABLE>
    44c4:	bc0000a1 	stclt	0, cr0, [r0], {161}	; 0xa1
    44c8:	d7000008 	strle	r0, [r0, -r8]
    44cc:	10000003 	andne	r0, r0, r3
    44d0:	03055001 	movweq	r5, #20481	; 0x5001
    44d4:	0000acb0 			; <UNDEFINED> instruction: 0x0000acb0
    44d8:	05510110 	ldrbeq	r0, [r1, #-272]	; 0xfffffef0
    44dc:	00abe403 	adceq	lr, fp, r3, lsl #8
    44e0:	52011000 	andpl	r1, r1, #0, 0
    44e4:	adbc0305 	ldcge	3, cr0, [ip, #20]!
    44e8:	01100000 	tsteq	r0, r0
    44ec:	60080253 	andvs	r0, r8, r3, asr r2
    44f0:	007d0210 	rsbseq	r0, sp, r0, lsl r2
    44f4:	ace40305 	stclge	3, cr0, [r4], #20
    44f8:	11000000 	mrsne	r0, (UNDEF: 0)
    44fc:	0000a18c 	andeq	sl, r0, ip, lsl #3
    4500:	000008c8 	andeq	r0, r0, r8, asr #17
    4504:	00a1b011 	adceq	fp, r1, r1, lsl r0
    4508:	0008d400 	andeq	sp, r8, r0, lsl #8
    450c:	a1cc0f00 	bicge	r0, ip, r0, lsl #30
    4510:	08bc0000 	ldmeq	ip!, {}	; <UNPREDICTABLE>
    4514:	04220000 	strteq	r0, [r2], #-0
    4518:	01100000 	tsteq	r0, r0
    451c:	04030550 	streq	r0, [r3], #-1360	; 0xfffffab0
    4520:	100000ad 	andne	r0, r0, sp, lsr #1
    4524:	03055101 	movweq	r5, #20737	; 0x5101
    4528:	0000abe4 	andeq	sl, r0, r4, ror #23
    452c:	05520110 	ldrbeq	r0, [r2, #-272]	; 0xfffffef0
    4530:	00adbc03 	adceq	fp, sp, r3, lsl #24
    4534:	53011000 	movwpl	r1, #4096	; 0x1000
    4538:	10680802 	rsbne	r0, r8, r2, lsl #16
    453c:	05007d02 	streq	r7, [r0, #-3330]	; 0xfffff2fe
    4540:	00ad3003 	adceq	r3, sp, r3
    4544:	d0110000 	andsle	r0, r1, r0
    4548:	c80000a1 	stmdagt	r0, {r0, r5, r7}
    454c:	00000008 	andeq	r0, r0, r8
    4550:	00007e12 	andeq	r7, r0, r2, lsl lr
    4554:	00043c00 	andeq	r3, r4, r0, lsl #24
    4558:	002c1300 	eoreq	r1, ip, r0, lsl #6
    455c:	000f0000 	andeq	r0, pc, r0
    4560:	00042c05 	andeq	r2, r4, r5, lsl #24
    4564:	04b21600 	ldrteq	r1, [r2], #1536	; 0x600
    4568:	53010000 	movwpl	r0, #4096	; 0x1000
    456c:	00008a07 	andeq	r8, r0, r7, lsl #20
    4570:	00a08000 	adceq	r8, r0, r0
    4574:	00006400 	andeq	r6, r0, r0, lsl #8
    4578:	089c0100 	ldmeq	ip, {r8}
    457c:	17000005 	strne	r0, [r0, -r5]
    4580:	00000367 	andeq	r0, r0, r7, ror #6
    4584:	2c185301 	ldccs	3, cr5, [r8], {1}
    4588:	0e000000 	cdpeq	0, 0, cr0, cr0, cr0, {0}
    458c:	0600002b 	streq	r0, [r0], -fp, lsr #32
    4590:	0e00002b 	cdpeq	0, 0, cr0, cr0, cr11, {1}
    4594:	000001e1 	andeq	r0, r0, r1, ror #3
    4598:	00000518 	andeq	r0, r0, r8, lsl r5
    459c:	adb40305 	ldcge	3, cr0, [r4, #20]!
    45a0:	d91d0000 	ldmdble	sp, {}	; <UNPREDICTABLE>
    45a4:	01000005 	tsteq	r0, r5
    45a8:	008a0b55 	addeq	r0, sl, r5, asr fp
    45ac:	2b460000 	blcs	11845b4 <__bss_end__+0x117938c>
    45b0:	2b420000 	blcs	10845b8 <__bss_end__+0x1079390>
    45b4:	980f0000 	stmdals	pc, {}	; <UNPREDICTABLE>
    45b8:	1d0000a0 	stcne	0, cr0, [r0, #-640]	; 0xfffffd80
    45bc:	a6000005 	strge	r0, [r0], -r5
    45c0:	10000004 	andne	r0, r0, r4
    45c4:	74025001 	strvc	r5, [r2], #-1
    45c8:	a80f0000 	stmdage	pc, {}	; <UNPREDICTABLE>
    45cc:	e00000a0 	and	r0, r0, r0, lsr #1
    45d0:	c5000008 	strgt	r0, [r0, #-8]
    45d4:	10000004 	andne	r0, r0, r4
    45d8:	75025001 	strvc	r5, [r2, #-1]
    45dc:	51011000 	mrspl	r1, (UNDEF: 1)
    45e0:	01103001 	tsteq	r0, r1
    45e4:	00740252 	rsbseq	r0, r4, r2, asr r2
    45e8:	a0d00f00 	sbcsge	r0, r0, r0, lsl #30
    45ec:	08bc0000 	ldmeq	ip!, {}	; <UNPREDICTABLE>
    45f0:	04fe0000 	ldrbteq	r0, [lr], #0
    45f4:	01100000 	tsteq	r0, r0
    45f8:	1c030550 	cfstr32ne	mvfx0, [r3], {80}	; 0x50
    45fc:	100000a7 	andne	r0, r0, r7, lsr #1
    4600:	03055101 	movweq	r5, #20737	; 0x5101
    4604:	0000abe4 	andeq	sl, r0, r4, ror #23
    4608:	05520110 	ldrbeq	r0, [r2, #-272]	; 0xfffffef0
    460c:	00adb403 	adceq	fp, sp, r3, lsl #8
    4610:	53011000 	movwpl	r1, #4096	; 0x1000
    4614:	10540802 	subsne	r0, r4, r2, lsl #16
    4618:	05007d02 	streq	r7, [r0, #-3330]	; 0xfffff2fe
    461c:	00abf403 	adceq	pc, fp, r3, lsl #8
    4620:	d4110000 	ldrle	r0, [r1], #-0
    4624:	c80000a0 	stmdagt	r0, {r5, r7}
    4628:	00000008 	andeq	r0, r0, r8
    462c:	00007e12 	andeq	r7, r0, r2, lsl lr
    4630:	00051800 	andeq	r1, r5, r0, lsl #16
    4634:	002c1300 	eoreq	r1, ip, r0, lsl #6
    4638:	00070000 	andeq	r0, r7, r0
    463c:	00050805 	andeq	r0, r5, r5, lsl #16
    4640:	0b501600 	bleq	1409e48 <__bss_end__+0x13fec20>
    4644:	47010000 	strmi	r0, [r1, -r0]
    4648:	00008a07 	andeq	r8, r0, r7, lsl #20
    464c:	009fe800 	addseq	lr, pc, r0, lsl #16
    4650:	00009800 	andeq	r9, r0, r0, lsl #16
    4654:	2b9c0100 	blcs	fe704a5c <__bss_end__+0xfe6f9834>
    4658:	17000006 	strne	r0, [r0, -r6]
    465c:	00000367 	andeq	r0, r0, r7, ror #6
    4660:	2c204701 	stccs	7, cr4, [r0], #-4
    4664:	74000000 	strvc	r0, [r0], #-0
    4668:	6400002b 	strvs	r0, [r0], #-43	; 0xffffffd5
    466c:	0e00002b 	cdpeq	0, 0, cr0, cr0, cr11, {1}
    4670:	000001e1 	andeq	r0, r0, r1, ror #3
    4674:	0000043c 	andeq	r0, r0, ip, lsr r4
    4678:	ada40305 	stcge	3, cr0, [r4, #20]!
    467c:	d91d0000 	ldmdble	sp, {}	; <UNPREDICTABLE>
    4680:	01000005 	tsteq	r0, r5
    4684:	008a0b4b 	addeq	r0, sl, fp, asr #22
    4688:	2be60000 	blcs	ff984690 <__bss_end__+0xff979468>
    468c:	2be20000 	blcs	ff884694 <__bss_end__+0xff87946c>
    4690:	1f1b0000 	svcne	0x001b0000
    4694:	f8000008 			; <UNDEFINED> instruction: 0xf8000008
    4698:	0300009f 	movweq	r0, #159	; 0x9f
    469c:	00000418 	andeq	r0, r0, r8, lsl r4
    46a0:	a30e4901 	movwge	r4, #59649	; 0xe901
    46a4:	1a000005 	bne	46c0 <__code_start__-0x3940>
    46a8:	0000083a 	andeq	r0, r0, sl, lsr r8
    46ac:	00002c06 	andeq	r2, r0, r6, lsl #24
    46b0:	00002c04 	andeq	r2, r0, r4, lsl #24
    46b4:	0008301a 	andeq	r3, r8, sl, lsl r0
    46b8:	002c1e00 	eoreq	r1, ip, r0, lsl #28
    46bc:	002c1a00 	eoreq	r1, ip, r0, lsl #20
    46c0:	04181e00 	ldreq	r1, [r8], #-3584	; 0xfffff200
    46c4:	0f000000 	svceq	0x00000000
    46c8:	0000a040 	andeq	sl, r0, r0, asr #32
    46cc:	000008bc 			; <UNDEFINED> instruction: 0x000008bc
    46d0:	000005dc 	ldrdeq	r0, [r0], -ip
    46d4:	05500110 	ldrbeq	r0, [r0, #-272]	; 0xfffffef0
    46d8:	00a71c03 	adceq	r1, r7, r3, lsl #24
    46dc:	51011000 	mrspl	r1, (UNDEF: 1)
    46e0:	abe40305 	blge	ff9052fc <__bss_end__+0xff8fa0d4>
    46e4:	01100000 	tsteq	r0, r0
    46e8:	a4030552 	strge	r0, [r3], #-1362	; 0xfffffaae
    46ec:	100000ad 	andne	r0, r0, sp, lsr #1
    46f0:	08025301 	stmdaeq	r2, {r0, r8, r9, ip, lr}
    46f4:	7d021048 	stcvc	0, cr1, [r2, #-288]	; 0xfffffee0
    46f8:	f4030500 	vst3.8	{d0,d2,d4}, [r3], r0
    46fc:	000000ab 	andeq	r0, r0, fp, lsr #1
    4700:	00a04411 	adceq	r4, r0, r1, lsl r4
    4704:	0008c800 	andeq	ip, r8, r0, lsl #16
    4708:	a0640f00 	rsbge	r0, r4, r0, lsl #30
    470c:	08bc0000 	ldmeq	ip!, {}	; <UNPREDICTABLE>
    4710:	06210000 	strteq	r0, [r1], -r0
    4714:	01100000 	tsteq	r0, r0
    4718:	70030550 	andvc	r0, r3, r0, asr r5
    471c:	100000ac 	andne	r0, r0, ip, lsr #1
    4720:	03055101 	movweq	r5, #20737	; 0x5101
    4724:	0000abe4 	andeq	sl, r0, r4, ror #23
    4728:	05520110 	ldrbeq	r0, [r2, #-272]	; 0xfffffef0
    472c:	00ada403 	adceq	sl, sp, r3, lsl #8
    4730:	53011000 	movwpl	r1, #4096	; 0x1000
    4734:	104e0802 	subne	r0, lr, r2, lsl #16
    4738:	08007d02 	stmdaeq	r0, {r1, r8, sl, fp, ip, sp, lr}
    473c:	235001f3 	cmpcs	r0, #-1073741764	; 0xc000003c
    4740:	1af80907 	bne	ffe06b64 <__bss_end__+0xffdfb93c>
    4744:	a0681100 	rsbge	r1, r8, r0, lsl #2
    4748:	08c80000 	stmiaeq	r8, {}^	; <UNPREDICTABLE>
    474c:	0c000000 	stceq	0, cr0, [r0], {-0}
    4750:	00000b72 	andeq	r0, r0, r2, ror fp
    4754:	90063c01 	andls	r3, r6, r1, lsl #24
    4758:	5800009f 	stmdapl	r0, {r0, r1, r2, r3, r4, r7}
    475c:	01000000 	mrseq	r0, (UNDEF: 0)
    4760:	0006cf9c 	muleq	r6, ip, pc	; <UNPREDICTABLE>
    4764:	040a0a00 	streq	r0, [sl], #-2560	; 0xfffff600
    4768:	3d010000 	stccc	0, cr0, [r1, #-0]
    476c:	00002510 	andeq	r2, r0, r0, lsl r5
    4770:	20030500 	andcs	r0, r3, r0, lsl #10
    4774:	0e0000b2 	mcreq	0, 0, r0, cr0, cr2, {5}
    4778:	000001e1 	andeq	r0, r0, r1, ror #3
    477c:	000006df 	ldrdeq	r0, [r0], -pc	; <UNPREDICTABLE>
    4780:	ad940305 	ldcge	3, cr0, [r4, #20]
    4784:	07070000 	streq	r0, [r7, -r0]
    4788:	00002c04 	andeq	r2, r0, r4, lsl #24
    478c:	0a420100 	beq	1084b94 <__bss_end__+0x107996c>
    4790:	0000067a 	andeq	r0, r0, sl, ror r6
    4794:	000b3908 	andeq	r3, fp, r8, lsl #18
    4798:	10000000 	andne	r0, r0, r0
    479c:	bc0f0000 	stclt	0, cr0, [pc], {-0}
    47a0:	e400009f 	str	r0, [r0], #-159	; 0xffffff61
    47a4:	96000006 	strls	r0, [r0], -r6
    47a8:	10000006 	andne	r0, r0, r6
    47ac:	40035001 	andmi	r5, r3, r1
    47b0:	01102440 	tsteq	r0, r0, asr #8
    47b4:	48400351 	stmdami	r0, {r0, r4, r6, r8, r9}^
    47b8:	d40f0024 	strle	r0, [pc], #-36	; 47c0 <__code_start__-0x3840>
    47bc:	bc00009f 	stclt	0, cr0, [r0], {159}	; 0x9f
    47c0:	c5000008 	strgt	r0, [r0, #-8]
    47c4:	10000006 	andne	r0, r0, r6
    47c8:	03055001 	movweq	r5, #20481	; 0x5001
    47cc:	0000ac40 	andeq	sl, r0, r0, asr #24
    47d0:	05510110 	ldrbeq	r0, [r1, #-272]	; 0xfffffef0
    47d4:	00abe403 	adceq	lr, fp, r3, lsl #8
    47d8:	52011000 	andpl	r1, r1, #0, 0
    47dc:	ad940305 	ldcge	3, cr0, [r4, #20]
    47e0:	01100000 	tsteq	r0, r0
    47e4:	40080253 	andmi	r0, r8, r3, asr r2
    47e8:	9fd81100 	svcls	0x00d81100
    47ec:	08c80000 	stmiaeq	r8, {}^	; <UNPREDICTABLE>
    47f0:	12000000 	andne	r0, r0, #0, 0
    47f4:	0000007e 	andeq	r0, r0, lr, ror r0
    47f8:	000006df 	ldrdeq	r0, [r0], -pc	; <UNPREDICTABLE>
    47fc:	00002c13 	andeq	r2, r0, r3, lsl ip
    4800:	05000c00 	streq	r0, [r0, #-3072]	; 0xfffff400
    4804:	000006cf 	andeq	r0, r0, pc, asr #13
    4808:	0004ba0c 	andeq	fp, r4, ip, lsl #20
    480c:	062d0100 	strteq	r0, [sp], -r0, lsl #2
    4810:	00009ef4 	strdeq	r9, [r0], -r4
    4814:	0000009c 	muleq	r0, ip, r0
    4818:	07c89c01 	strbeq	r9, [r8, r1, lsl #24]
    481c:	d8170000 	ldmdale	r7, {}	; <UNPREDICTABLE>
    4820:	01000005 	tsteq	r0, r5
    4824:	002c262d 	eoreq	r2, ip, sp, lsr #12
    4828:	2c4c0000 	marcs	acc0, r0, ip
    482c:	2c3e0000 	ldccs	0, cr0, [lr], #-0
    4830:	f7170000 			; <UNDEFINED> instruction: 0xf7170000
    4834:	0100000a 	tsteq	r0, sl
    4838:	002c362d 	eoreq	r3, ip, sp, lsr #12
    483c:	2cb40000 	ldccs	0, cr0, [r4]
    4840:	2cac0000 	stccs	0, cr0, [ip]
    4844:	d91d0000 	ldmdble	sp, {}	; <UNPREDICTABLE>
    4848:	01000005 	tsteq	r0, r5
    484c:	00c20b2e 	sbceq	r0, r2, lr, lsr #22
    4850:	2cfc0000 	ldclcs	0, cr0, [ip]
    4854:	2cee0000 	stclcs	0, cr0, [lr]
    4858:	e10e0000 	mrs	r0, (UNDEF: 14)
    485c:	d8000001 	stmdale	r0, {r0}
    4860:	05000007 	streq	r0, [r0, #-7]
    4864:	00ad7c03 	adceq	r7, sp, r3, lsl #24
    4868:	9f4c0f00 	svcls	0x004c0f00
    486c:	08bc0000 	ldmeq	ip!, {}	; <UNPREDICTABLE>
    4870:	077e0000 	ldrbeq	r0, [lr, -r0]!
    4874:	01100000 	tsteq	r0, r0
    4878:	1c030550 	cfstr32ne	mvfx0, [r3], {80}	; 0x50
    487c:	100000a7 	andne	r0, r0, r7, lsr #1
    4880:	03055101 	movweq	r5, #20737	; 0x5101
    4884:	0000abe4 	andeq	sl, r0, r4, ror #23
    4888:	05520110 	ldrbeq	r0, [r2, #-272]	; 0xfffffef0
    488c:	00ad7c03 	adceq	r7, sp, r3, lsl #24
    4890:	53011000 	movwpl	r1, #4096	; 0x1000
    4894:	10300802 	eorsne	r0, r0, r2, lsl #16
    4898:	05007d02 	streq	r7, [r0, #-3330]	; 0xfffff2fe
    489c:	00abf003 	adceq	pc, fp, r3
    48a0:	50110000 	andspl	r0, r1, r0
    48a4:	c800009f 	stmdagt	r0, {r0, r1, r2, r3, r4, r7}
    48a8:	0f000008 	svceq	0x00000008
    48ac:	00009f74 	andeq	r9, r0, r4, ror pc
    48b0:	000008bc 			; <UNDEFINED> instruction: 0x000008bc
    48b4:	000007be 			; <UNDEFINED> instruction: 0x000007be
    48b8:	05500110 	ldrbeq	r0, [r0, #-272]	; 0xfffffef0
    48bc:	00abfc03 	adceq	pc, fp, r3, lsl #24
    48c0:	51011000 	mrspl	r1, (UNDEF: 1)
    48c4:	abe40305 	blge	ff9054e0 <__bss_end__+0xff8fa2b8>
    48c8:	01100000 	tsteq	r0, r0
    48cc:	7c030552 	cfstr32vc	mvfx0, [r3], {82}	; 0x52
    48d0:	100000ad 	andne	r0, r0, sp, lsr #1
    48d4:	08025301 	stmdaeq	r2, {r0, r8, r9, ip, lr}
    48d8:	7d021034 	stcvc	0, cr1, [r2, #-208]	; 0xffffff30
    48dc:	01f30300 	mvnseq	r0, r0, lsl #6
    48e0:	78110050 	ldmdavc	r1, {r4, r6}
    48e4:	c800009f 	stmdagt	r0, {r0, r1, r2, r3, r4, r7}
    48e8:	00000008 	andeq	r0, r0, r8
    48ec:	00007e12 	andeq	r7, r0, r2, lsl lr
    48f0:	0007d800 	andeq	sp, r7, r0, lsl #16
    48f4:	002c1300 	eoreq	r1, ip, r0, lsl #6
    48f8:	00160000 	andseq	r0, r6, r0
    48fc:	0007c805 	andeq	ip, r7, r5, lsl #16
    4900:	0b8a1f00 	bleq	fe28c508 <__bss_end__+0xfe2812e0>
    4904:	2a010000 	bcs	4490c <__bss_end__+0x396e4>
    4908:	00008a07 	andeq	r8, r0, r7, lsl #20
    490c:	009ee400 	addseq	lr, lr, r0, lsl #8
    4910:	00001000 	andeq	r1, r0, r0
    4914:	1f9c0100 	svcne	0x009c0100
    4918:	00000ae4 	andeq	r0, r0, r4, ror #21
    491c:	8a072901 	bhi	1ced28 <__bss_end__+0x1c3b00>
    4920:	d4000000 	strle	r0, [r0], #-0
    4924:	1000009e 	mulne	r0, lr, r0
    4928:	01000000 	mrseq	r0, (UNDEF: 0)
    492c:	0b3f1f9c 	bleq	fcc7a4 <__bss_end__+0xfc157c>
    4930:	28010000 	stmdacs	r1, {}	; <UNPREDICTABLE>
    4934:	00008a07 	andeq	r8, r0, r7, lsl #20
    4938:	009ec400 	addseq	ip, lr, r0, lsl #8
    493c:	00001000 	andeq	r1, r0, r0
    4940:	209c0100 	addscs	r0, ip, r0, lsl #2
    4944:	00000b15 	andeq	r0, r0, r5, lsl fp
    4948:	2c181001 	ldccs	0, cr1, [r8], {1}
    494c:	03000000 	movweq	r0, #0
    4950:	00000854 	andeq	r0, r0, r4, asr r8
    4954:	01007821 	tsteq	r0, r1, lsr #16
    4958:	002c2910 	eoreq	r2, ip, r0, lsl r9
    495c:	6e210000 	cdpvs	0, 2, cr0, cr1, cr0, {0}
    4960:	35100100 	ldrcc	r0, [r0, #-256]	; 0xffffff00
    4964:	0000002c 	andeq	r0, r0, ip, lsr #32
    4968:	0001e10e 	andeq	lr, r1, lr, lsl #2
    496c:	00051800 	andeq	r1, r5, r0, lsl #16
    4970:	cc030500 	cfstr32gt	mvfx0, [r3], {-0}
    4974:	000000ad 	andeq	r0, r0, sp, lsr #1
    4978:	000b6020 	andeq	r6, fp, r0, lsr #32
    497c:	180d0100 	stmdane	sp, {r8}
    4980:	0000002c 	andeq	r0, r0, ip, lsr #32
    4984:	00087003 	andeq	r7, r8, r3
    4988:	00782100 	rsbseq	r2, r8, r0, lsl #2
    498c:	2c290d01 	stccs	13, cr0, [r9], #-4
    4990:	00000000 	andeq	r0, r0, r0
    4994:	000b7f20 	andeq	r7, fp, r0, lsr #30
    4998:	18070100 	stmdane	r7, {r8}
    499c:	0000002c 	andeq	r0, r0, ip, lsr #32
    49a0:	00089603 	andeq	r9, r8, r3, lsl #12
    49a4:	00782100 	rsbseq	r2, r8, r0, lsl #2
    49a8:	2c2c0701 	stccs	7, cr0, [ip], #-4
    49ac:	21000000 	mrscs	r0, (UNDEF: 0)
    49b0:	0701006e 	streq	r0, [r1, -lr, rrx]
    49b4:	00002c38 	andeq	r2, r0, r8, lsr ip
    49b8:	31200000 			; <UNDEFINED> instruction: 0x31200000
    49bc:	0100000b 	tsteq	r0, fp
    49c0:	005d1804 	subseq	r1, sp, r4, lsl #16
    49c4:	bc030000 	stclt	0, cr0, [r3], {-0}
    49c8:	21000008 	tstcs	r0, r8
    49cc:	04010078 	streq	r0, [r1], #-120	; 0xffffff88
    49d0:	00005d29 	andeq	r5, r0, r9, lsr #26
    49d4:	00792100 	rsbseq	r2, r9, r0, lsl #2
    49d8:	5d350401 	cfldrspl	mvf0, [r5, #-4]!
    49dc:	00000000 	andeq	r0, r0, r0
    49e0:	00064022 	andeq	r4, r6, r2, lsr #32
    49e4:	00064000 	andeq	r4, r6, r0
    49e8:	06280200 	strteq	r0, [r8], -r0, lsl #4
    49ec:	00008a22 	andeq	r8, r0, r2, lsr #20
    49f0:	00008a00 	andeq	r8, r0, r0, lsl #20
    49f4:	066e0200 	strbteq	r0, [lr], -r0, lsl #4
    49f8:	000b9b22 	andeq	r9, fp, r2, lsr #22
    49fc:	000b9b00 	andeq	r9, fp, r0, lsl #22
    4a00:	061d0200 	ldreq	r0, [sp], -r0, lsl #4
    4a04:	0002e022 	andeq	lr, r2, r2, lsr #32
    4a08:	0002e000 	andeq	lr, r2, r0
    4a0c:	07f20200 	ldrbeq	r0, [r2, r0, lsl #4]!
    4a10:	00067300 	andeq	r7, r6, r0, lsl #6
    4a14:	77000400 	strvc	r0, [r0, -r0, lsl #8]
    4a18:	04000019 	streq	r0, [r0], #-25	; 0xffffffe7
    4a1c:	00051801 	andeq	r1, r5, r1, lsl #16
    4a20:	0bed0c00 	bleq	ffb47a28 <__bss_end__+0xffb3c800>
    4a24:	05de0000 	ldrbeq	r0, [lr]
    4a28:	a2740000 	rsbsge	r0, r4, #0, 0
    4a2c:	01980000 	orrseq	r0, r8, r0
    4a30:	251f0000 	ldrcs	r0, [pc, #-0]	; 4a38 <__code_start__-0x35c8>
    4a34:	08020000 	stmdaeq	r2, {}	; <UNPREDICTABLE>
    4a38:	0001fd07 	andeq	pc, r1, r7, lsl #26
    4a3c:	07040200 	streq	r0, [r4, -r0, lsl #4]
    4a40:	00000207 	andeq	r0, r0, r7, lsl #4
    4a44:	69050403 	stmdbvs	r5, {r0, r1, sl}
    4a48:	0400746e 	streq	r7, [r0], #-1134	; 0xfffffb92
    4a4c:	0000002c 	andeq	r0, r0, ip, lsr #32
    4a50:	7e060102 	adfvcs	f0, f6, f2
    4a54:	02000000 	andeq	r0, r0, #0, 0
    4a58:	02400502 	subeq	r0, r0, #8388608	; 0x800000
    4a5c:	04020000 	streq	r0, [r2], #-0
    4a60:	00022b05 	andeq	r2, r2, r5, lsl #22
    4a64:	05080200 	streq	r0, [r8, #-512]	; 0xfffffe00
    4a68:	00000226 	andeq	r0, r0, r6, lsr #4
    4a6c:	7c080102 	stfvcs	f0, [r8], {2}
    4a70:	02000000 	andeq	r0, r0, #0, 0
    4a74:	00970702 	addseq	r0, r7, r2, lsl #14
    4a78:	66050000 	strvs	r0, [r5], -r0
    4a7c:	03000002 	movweq	r0, #2
    4a80:	00751934 	rsbseq	r1, r5, r4, lsr r9
    4a84:	04020000 	streq	r0, [r2], #-0
    4a88:	00020207 	andeq	r0, r2, r7, lsl #4
    4a8c:	00330600 	eorseq	r0, r3, r0, lsl #12
    4a90:	008b0000 	addeq	r0, fp, r0
    4a94:	33070000 	movwcc	r0, #28672	; 0x7000
    4a98:	00000000 	andeq	r0, r0, r0
    4a9c:	00023408 	andeq	r3, r2, r8, lsl #8
    4aa0:	0e1c0200 	cdpeq	2, 1, cr0, cr12, cr0, {0}
    4aa4:	00000097 	muleq	r0, r7, r0
    4aa8:	007c0409 	rsbseq	r0, ip, r9, lsl #8
    4aac:	33060000 	movwcc	r0, #24576	; 0x6000
    4ab0:	ac000000 	stcge	0, cr0, [r0], {-0}
    4ab4:	07000000 	streq	r0, [r0, -r0]
    4ab8:	000000ac 	andeq	r0, r0, ip, lsr #1
    4abc:	b9040900 	stmdblt	r4, {r8, fp}
    4ac0:	02000000 	andeq	r0, r0, #0, 0
    4ac4:	00850801 	addeq	r0, r5, r1, lsl #16
    4ac8:	b2040000 	andlt	r0, r4, #0, 0
    4acc:	08000000 	stmdaeq	r0, {}	; <UNPREDICTABLE>
    4ad0:	0000067e 	andeq	r0, r0, lr, ror r6
    4ad4:	ca0e2102 	bgt	38cee4 <__bss_end__+0x381cbc>
    4ad8:	09000000 	stmdbeq	r0, {}	; <UNPREDICTABLE>
    4adc:	00009d04 	andeq	r9, r0, r4, lsl #26
    4ae0:	01070a00 	tsteq	r7, r0, lsl #20
    4ae4:	0000005b 	andeq	r0, r0, fp, asr r0
    4ae8:	0f0e0c04 	svceq	0x000e0c04
    4aec:	0b000001 	bleq	4af8 <__code_start__-0x3508>
    4af0:	00000abc 			; <UNDEFINED> instruction: 0x00000abc
    4af4:	08f40b00 	ldmeq	r4!, {r8, r9, fp}^
    4af8:	0b010000 	bleq	44b00 <__bss_end__+0x398d8>
    4afc:	00000937 	andeq	r0, r0, r7, lsr r9
    4b00:	09460b04 	stmdbeq	r6, {r2, r8, r9, fp}^
    4b04:	0b050000 	bleq	144b0c <__bss_end__+0x1398e4>
    4b08:	00000955 	andeq	r0, r0, r5, asr r9
    4b0c:	09640b06 	stmdbeq	r4!, {r1, r2, r8, r9, fp}^
    4b10:	0b070000 	bleq	1c4b18 <__bss_end__+0x1b98f0>
    4b14:	00000a85 	andeq	r0, r0, r5, lsl #21
    4b18:	09730b03 	ldmdbeq	r3!, {r0, r1, r8, r9, fp}^
    4b1c:	00020000 	andeq	r0, r2, r0
    4b20:	000c2605 	andeq	r2, ip, r5, lsl #12
    4b24:	03150400 	tsteq	r5, #0, 8
    4b28:	000000d0 	ldrdeq	r0, [r0], -r0	; <UNPREDICTABLE>
    4b2c:	000bc40c 	andeq	ip, fp, ip, lsl #8
    4b30:	171d0100 	ldrne	r0, [sp, -r0, lsl #2]
    4b34:	0000003a 	andeq	r0, r0, sl, lsr r0
    4b38:	2020001c 	eorcs	r0, r0, ip, lsl r0
    4b3c:	000bba0c 	andeq	fp, fp, ip, lsl #20
    4b40:	171e0100 	ldrne	r0, [lr, -r0, lsl #2]
    4b44:	0000003a 	andeq	r0, r0, sl, lsr r0
    4b48:	20200028 	eorcs	r0, r0, r8, lsr #32
    4b4c:	000c320c 	andeq	r3, ip, ip, lsl #4
    4b50:	171f0100 	ldrne	r0, [pc, -r0, lsl #2]
    4b54:	0000003a 	andeq	r0, r0, sl, lsr r0
    4b58:	20200034 	eorcs	r0, r0, r4, lsr r0
    4b5c:	000be30d 	andeq	lr, fp, sp, lsl #6
    4b60:	05510100 	ldrbeq	r0, [r1, #-256]	; 0xffffff00
    4b64:	00000033 	andeq	r0, r0, r3, lsr r0
    4b68:	0000a3e4 	andeq	sl, r0, r4, ror #7
    4b6c:	00000028 	andeq	r0, r0, r8, lsr #32
    4b70:	01ba9c01 			; <UNDEFINED> instruction: 0x01ba9c01
    4b74:	700e0000 	andvc	r0, lr, r0
    4b78:	01006e69 	tsteq	r0, r9, ror #28
    4b7c:	002c1851 	eoreq	r1, ip, r1, asr r8
    4b80:	2d620000 	stclcs	0, cr0, [r2, #-0]
    4b84:	2d5c0000 	ldclcs	0, cr0, [ip, #-0]
    4b88:	3c0f0000 	stccc	0, cr0, [pc], {-0}
    4b8c:	0100000c 	tsteq	r0, ip
    4b90:	002c0e52 	eoreq	r0, ip, r2, asr lr
    4b94:	2d980000 	ldccs	0, cr0, [r8]
    4b98:	2d8e0000 	stccs	0, cr0, [lr]
    4b9c:	6f100000 	svcvs	0x00100000
    4ba0:	01006666 	tsteq	r0, r6, ror #12
    4ba4:	002c0e53 	eoreq	r0, ip, r3, asr lr
    4ba8:	2e060000 	cdpcs	0, 0, cr0, cr6, cr0, {0}
    4bac:	2e000000 	cdpcs	0, 0, cr0, cr0, cr0, {0}
    4bb0:	f8110000 			; <UNDEFINED> instruction: 0xf8110000
    4bb4:	5e0000a3 	cdppl	0, 0, cr0, cr0, cr3, {5}
    4bb8:	12000006 	andne	r0, r0, #6, 0
    4bbc:	740a5001 	strvc	r5, [sl], #-1
    4bc0:	23253500 			; <UNDEFINED> instruction: 0x23253500
    4bc4:	818080b4 	strhhi	r8, [r0, r4]
    4bc8:	13000002 	movwne	r0, #2
    4bcc:	00000bce 	andeq	r0, r0, lr, asr #23
    4bd0:	b4064a01 	strlt	r4, [r6], #-2561	; 0xfffff5ff
    4bd4:	300000a3 	andcc	r0, r0, r3, lsr #1
    4bd8:	01000000 	mrseq	r0, (UNDEF: 0)
    4bdc:	0002759c 	muleq	r2, ip, r5
    4be0:	69700e00 	ldmdbvs	r0!, {r9, sl, fp}^
    4be4:	4a01006e 	bmi	44da4 <__bss_end__+0x39b7c>
    4be8:	00002c1a 	andeq	r2, r0, sl, lsl ip
    4bec:	002e4300 	eoreq	r4, lr, r0, lsl #6
    4bf0:	002e3700 	eoreq	r3, lr, r0, lsl #14
    4bf4:	00760e00 	rsbseq	r0, r6, r0, lsl #28
    4bf8:	2c284a01 			; <UNDEFINED> instruction: 0x2c284a01
    4bfc:	97000000 	strls	r0, [r0, -r0]
    4c00:	9300002e 	movwls	r0, #46	; 0x2e
    4c04:	1400002e 	strne	r0, [r0], #-46	; 0xffffffd2
    4c08:	0000038d 	andeq	r0, r0, sp, lsl #7
    4c0c:	0000a3c4 	andeq	sl, r0, r4, asr #7
    4c10:	0004e801 	andeq	lr, r4, r1, lsl #16
    4c14:	094c0100 	stmdbeq	ip, {r8}^
    4c18:	00000235 	andeq	r0, r0, r5, lsr r2
    4c1c:	00039a15 	andeq	r9, r3, r5, lsl sl
    4c20:	002ebe00 	eoreq	fp, lr, r0, lsl #28
    4c24:	002eb800 	eoreq	fp, lr, r0, lsl #16
    4c28:	a3d01600 	bicsge	r1, r0, #0, 12
    4c2c:	066a0000 	strbteq	r0, [sl], -r0
    4c30:	01120000 	tsteq	r2, r0
    4c34:	1c0c0550 	cfstr32ne	mvfx0, [ip], {80}	; 0x50
    4c38:	12202000 	eorne	r2, r0, #0, 0
    4c3c:	31055101 	tstcc	r5, r1, lsl #2
    4c40:	245001f3 	ldrbcs	r0, [r0], #-499	; 0xfffffe0d
    4c44:	73170000 	tstvc	r7, #0, 0
    4c48:	d0000003 	andle	r0, r0, r3
    4c4c:	020000a3 	andeq	r0, r0, #163, 0	; 0xa3
    4c50:	0000a3d0 	ldrdeq	sl, [r0], -r0
    4c54:	00000014 	andeq	r0, r0, r4, lsl r0
    4c58:	15094e01 	strne	r4, [r9, #-3585]	; 0xfffff1ff
    4c5c:	00000380 	andeq	r0, r0, r0, lsl #7
    4c60:	00002ef0 	strdeq	r2, [r0], -r0
    4c64:	00002eea 	andeq	r2, r0, sl, ror #29
    4c68:	00a3dc16 	adceq	sp, r3, r6, lsl ip
    4c6c:	00066a00 	andeq	r6, r6, r0, lsl #20
    4c70:	50011200 	andpl	r1, r1, r0, lsl #4
    4c74:	00280c05 	eoreq	r0, r8, r5, lsl #24
    4c78:	01122020 	tsteq	r2, r0, lsr #32
    4c7c:	f3310551 	vqrshl.u64	q0, <illegal reg q0.5>, <illegal reg q0.5>
    4c80:	00245001 	eoreq	r5, r4, r1
    4c84:	fa130000 	blx	4c4c8c <__bss_end__+0x4b9a64>
    4c88:	0100000b 	tsteq	r0, fp
    4c8c:	a35c0645 	cmpge	ip, #72351744	; 0x4500000
    4c90:	00580000 	subseq	r0, r8, r0
    4c94:	9c010000 	stcls	0, cr0, [r1], {-0}
    4c98:	00000373 	andeq	r0, r0, r3, ror r3
    4c9c:	6e69700e 	cdpvs	0, 6, cr7, cr9, cr14, {0}
    4ca0:	1e450100 	dvfnes	f0, f5, f0
    4ca4:	0000002c 	andeq	r0, r0, ip, lsr #32
    4ca8:	00002f22 	andeq	r2, r0, r2, lsr #30
    4cac:	00002f1c 	andeq	r2, r0, ip, lsl pc
    4cb0:	0004a518 	andeq	sl, r4, r8, lsl r5
    4cb4:	00a35c00 	adceq	r5, r3, r0, lsl #24
    4cb8:	04a80200 	strteq	r0, [r8], #512	; 0x200
    4cbc:	46010000 	strmi	r0, [r1], -r0
    4cc0:	04be1905 	ldrteq	r1, [lr], #2309	; 0x905
    4cc4:	15000000 	strne	r0, [r0, #-0]
    4cc8:	000004b2 			; <UNDEFINED> instruction: 0x000004b2
    4ccc:	00002f54 	andeq	r2, r0, r4, asr pc
    4cd0:	00002f4e 	andeq	r2, r0, lr, asr #30
    4cd4:	0004a81a 	andeq	sl, r4, sl, lsl r8
    4cd8:	04ca1b00 	strbeq	r1, [sl], #2816	; 0xb00
    4cdc:	d61b0000 	ldrle	r0, [fp], -r0
    4ce0:	1b000004 	blne	4cf8 <__code_start__-0x3308>
    4ce4:	000004e0 	andeq	r0, r0, r0, ror #9
    4ce8:	0004a518 	andeq	sl, r4, r8, lsl r5
    4cec:	00a36400 	adceq	r6, r3, r0, lsl #8
    4cf0:	04c80000 	strbeq	r0, [r8], #0
    4cf4:	28010000 	stmdacs	r1, {}	; <UNPREDICTABLE>
    4cf8:	04be1906 	ldrteq	r1, [lr], #2310	; 0x906
    4cfc:	15000000 	strne	r0, [r0, #-0]
    4d00:	000004b2 			; <UNDEFINED> instruction: 0x000004b2
    4d04:	00002f86 	andeq	r2, r0, r6, lsl #31
    4d08:	00002f80 	andeq	r2, r0, r0, lsl #31
    4d0c:	0004c81a 	andeq	ip, r4, sl, lsl r8
    4d10:	04ca1c00 	strbeq	r1, [sl], #3072	; 0xc00
    4d14:	2fb80000 	svccs	0x00b80000
    4d18:	2fb20000 	svccs	0x00b20000
    4d1c:	d61c0000 	ldrle	r0, [ip], -r0
    4d20:	fa000004 	blx	4d38 <__code_start__-0x32c8>
    4d24:	f400002f 	vst4.8	{d0-d3}, [r0 :128]
    4d28:	1c00002f 	stcne	0, cr0, [r0], {47}	; 0x2f
    4d2c:	000004e0 	andeq	r0, r0, r0, ror #9
    4d30:	00003050 	andeq	r3, r0, r0, asr r0
    4d34:	00003048 	andeq	r3, r0, r8, asr #32
    4d38:	00a38c1d 	adceq	r8, r3, sp, lsl ip
    4d3c:	00065e00 	andeq	r5, r6, r0, lsl #28
    4d40:	00033b00 	andeq	r3, r3, r0, lsl #22
    4d44:	50011200 	andpl	r1, r1, r0, lsl #4
    4d48:	00007602 	andeq	r7, r0, r2, lsl #12
    4d4c:	00a3b016 	adceq	fp, r3, r6, lsl r0
    4d50:	00066a00 	andeq	r6, r6, r0, lsl #20
    4d54:	50011200 	andpl	r1, r1, r0, lsl #4
    4d58:	5001f325 	andpl	pc, r1, r5, lsr #6
    4d5c:	25f72cf7 	ldrbcs	r2, [r7, #3319]!	; 0xcf7
    4d60:	cd0825f4 	cfstr32gt	mvfx2, [r8, #-976]	; 0xfffffc30
    4d64:	00cccccc 	sbceq	ip, ip, ip, asr #25
    4d68:	1e000000 	cdpne	0, 0, cr0, cr0, cr0, {0}
    4d6c:	25f72008 	ldrbcs	r2, [r7, #8]!
    4d70:	f72cf725 			; <UNDEFINED> instruction: 0xf72cf725
    4d74:	23253300 			; <UNDEFINED> instruction: 0x23253300
    4d78:	40a08080 	adcmi	r8, r0, r0, lsl #1
    4d7c:	00002432 	andeq	r2, r0, r2, lsr r4
    4d80:	00000000 	andeq	r0, r0, r0
    4d84:	000c091e 	andeq	r0, ip, lr, lsl r9
    4d88:	0d400100 	stfeqe	f0, [r0, #-0]
    4d8c:	00038d03 	andeq	r8, r3, r3, lsl #26
    4d90:	69701f00 	ldmdbvs	r0!, {r8, r9, sl, fp, ip}^
    4d94:	4001006e 	andmi	r0, r1, lr, rrx
    4d98:	00002c23 	andeq	r2, r0, r3, lsr #24
    4d9c:	411e0000 	tstmi	lr, r0
    4da0:	0100000c 	tsteq	r0, ip
    4da4:	a7030d3b 	smladxge	r3, fp, sp, r0
    4da8:	1f000003 	svcne	0x00000003
    4dac:	006e6970 	rsbeq	r6, lr, r0, ror r9
    4db0:	2c223b01 			; <UNDEFINED> instruction: 0x2c223b01
    4db4:	00000000 	andeq	r0, r0, r0
    4db8:	000c1613 	andeq	r1, ip, r3, lsl r6
    4dbc:	06360100 	ldrteq	r0, [r6], -r0, lsl #2
    4dc0:	0000a2d4 	ldrdeq	sl, [r0], -r4
    4dc4:	00000058 	andeq	r0, r0, r8, asr r0
    4dc8:	04a59c01 	strteq	r9, [r5], #3073	; 0xc01
    4dcc:	700e0000 	andvc	r0, lr, r0
    4dd0:	01006e69 	tsteq	r0, r9, ror #28
    4dd4:	002c1f36 	eoreq	r1, ip, r6, lsr pc
    4dd8:	30ae0000 	adccc	r0, lr, r0
    4ddc:	30aa0000 	adccc	r0, sl, r0
    4de0:	a5180000 	ldrge	r0, [r8, #-0]
    4de4:	d4000004 	strle	r0, [r0], #-4
    4de8:	020000a2 	andeq	r0, r0, #162, 0	; 0xa2
    4dec:	00000468 	andeq	r0, r0, r8, ror #8
    4df0:	19053701 	stmdbne	r5, {r0, r8, r9, sl, ip, sp}
    4df4:	000004be 			; <UNDEFINED> instruction: 0x000004be
    4df8:	04b21501 	ldrteq	r1, [r2], #1281	; 0x501
    4dfc:	30d30000 	sbcscc	r0, r3, r0
    4e00:	30cf0000 	sbccc	r0, pc, r0
    4e04:	681a0000 	ldmdavs	sl, {}	; <UNPREDICTABLE>
    4e08:	1b000004 	blne	4e20 <__code_start__-0x31e0>
    4e0c:	000004ca 	andeq	r0, r0, sl, asr #9
    4e10:	0004d61b 	andeq	sp, r4, fp, lsl r6
    4e14:	04e01b00 	strbteq	r1, [r0], #2816	; 0xb00
    4e18:	a5180000 	ldrge	r0, [r8, #-0]
    4e1c:	dc000004 	stcle	0, cr0, [r0], {4}
    4e20:	000000a2 	andeq	r0, r0, r2, lsr #1
    4e24:	00000488 	andeq	r0, r0, r8, lsl #9
    4e28:	19062801 	stmdbne	r6, {r0, fp, sp}
    4e2c:	000004be 			; <UNDEFINED> instruction: 0x000004be
    4e30:	04b21501 	ldrteq	r1, [r2], #1281	; 0x501
    4e34:	30f80000 	rscscc	r0, r8, r0
    4e38:	30f40000 	rscscc	r0, r4, r0
    4e3c:	881a0000 	ldmdahi	sl, {}	; <UNPREDICTABLE>
    4e40:	1c000004 	stcne	0, cr0, [r0], {4}
    4e44:	000004ca 	andeq	r0, r0, sl, asr #9
    4e48:	0000311d 	andeq	r3, r0, sp, lsl r1
    4e4c:	00003119 	andeq	r3, r0, r9, lsl r1
    4e50:	0004d61c 	andeq	sp, r4, ip, lsl r6
    4e54:	00316900 	eorseq	r6, r1, r0, lsl #18
    4e58:	00316300 	eorseq	r6, r1, r0, lsl #6
    4e5c:	04e01c00 	strbteq	r1, [r0], #3072	; 0xc00
    4e60:	31bf0000 			; <UNDEFINED> instruction: 0x31bf0000
    4e64:	31b70000 			; <UNDEFINED> instruction: 0x31b70000
    4e68:	081d0000 	ldmdaeq	sp, {}	; <UNPREDICTABLE>
    4e6c:	5e0000a3 	cdppl	0, 0, cr0, cr0, cr3, {5}
    4e70:	6d000006 	stcvs	0, cr0, [r0, #-24]	; 0xffffffe8
    4e74:	12000004 	andne	r0, r0, #4, 0
    4e78:	75025001 	strvc	r5, [r2, #-1]
    4e7c:	28160000 	ldmdacs	r6, {}	; <UNPREDICTABLE>
    4e80:	6a0000a3 	bvs	5114 <__code_start__-0x2eec>
    4e84:	12000006 	andne	r0, r0, #6, 0
    4e88:	f3255001 	vhadd.u32	d5, d5, d1
    4e8c:	2cf75001 	ldclcs	0, cr5, [r7], #4
    4e90:	25f425f7 	ldrbcs	r2, [r4, #1527]!	; 0x5f7
    4e94:	cccccd08 	stclgt	13, cr12, [ip], {8}
    4e98:	000000cc 	andeq	r0, r0, ip, asr #1
    4e9c:	20081e00 	andcs	r1, r8, r0, lsl #28
    4ea0:	f72525f7 			; <UNDEFINED> instruction: 0xf72525f7
    4ea4:	3300f72c 	movwcc	pc, #1836	; 0x72c	; <UNPREDICTABLE>
    4ea8:	80802325 	addhi	r2, r0, r5, lsr #6
    4eac:	243240a0 	ldrtcs	r4, [r2], #-160	; 0xffffff60
    4eb0:	00000000 	andeq	r0, r0, r0
    4eb4:	cc1e0000 	ldcgt	0, cr0, [lr], {-0}
    4eb8:	0100000a 	tsteq	r0, sl
    4ebc:	eb010628 	bl	46764 <__bss_end__+0x3b53c>
    4ec0:	1f000004 	svcne	0x00000004
    4ec4:	006e6970 	rsbeq	r6, lr, r0, ror r9
    4ec8:	2c212801 	stccs	8, cr2, [r1], #-4
    4ecc:	20000000 	andcs	r0, r0, r0
    4ed0:	000001dc 	ldrdeq	r0, [r0], -ip
    4ed4:	0f322801 	svceq	0x00322801
    4ed8:	21000001 	tstcs	r0, r1
    4edc:	0066666f 	rsbeq	r6, r6, pc, ror #12
    4ee0:	2c0e2d01 	stccs	13, cr2, [lr], {1}
    4ee4:	21000000 	mrscs	r0, (UNDEF: 0)
    4ee8:	2e010067 	cdpcs	0, 0, cr0, cr1, cr7, {3}
    4eec:	00002c0e 	andeq	r2, r0, lr, lsl #24
    4ef0:	00762100 	rsbseq	r2, r6, r0, lsl #2
    4ef4:	2c0e3001 	stccs	0, cr3, [lr], {1}
    4ef8:	00000000 	andeq	r0, r0, r0
    4efc:	000bd922 	andeq	sp, fp, r2, lsr #18
    4f00:	18b10200 	ldmne	r1!, {r9}
    4f04:	00000069 	andeq	r0, r0, r9, rrx
    4f08:	00050703 	andeq	r0, r5, r3, lsl #14
    4f0c:	00781f00 	rsbseq	r1, r8, r0, lsl #30
    4f10:	692bb102 	stmdbvs	fp!, {r1, r8, ip, sp, pc}
    4f14:	00000000 	andeq	r0, r0, r0
    4f18:	0004a523 	andeq	sl, r4, r3, lsr #10
    4f1c:	00a27400 	adceq	r7, r2, r0, lsl #8
    4f20:	00006000 	andeq	r6, r0, r0
    4f24:	e49c0100 	ldr	r0, [ip], #256	; 0x100
    4f28:	15000005 	strne	r0, [r0, #-5]
    4f2c:	000004b2 			; <UNDEFINED> instruction: 0x000004b2
    4f30:	000031fe 	strdeq	r3, [r0], -lr
    4f34:	000031fa 	strdeq	r3, [r0], -sl
    4f38:	0004be15 	andeq	fp, r4, r5, lsl lr
    4f3c:	00322300 	eorseq	r2, r2, r0, lsl #6
    4f40:	00321f00 	eorseq	r1, r2, r0, lsl #30
    4f44:	04ca1b00 	strbeq	r1, [sl], #2816	; 0xb00
    4f48:	d61b0000 	ldrle	r0, [fp], -r0
    4f4c:	1b000004 	blne	4f64 <__code_start__-0x309c>
    4f50:	000004e0 	andeq	r0, r0, r0, ror #9
    4f54:	0004a518 	andeq	sl, r4, r8, lsl r5
    4f58:	00a27c00 	adceq	r7, r2, r0, lsl #24
    4f5c:	04480000 	strbeq	r0, [r8], #-0
    4f60:	28010000 	stmdacs	r1, {}	; <UNPREDICTABLE>
    4f64:	04be1506 	ldrteq	r1, [lr], #1286	; 0x506
    4f68:	32480000 	subcc	r0, r8, #0, 0
    4f6c:	32440000 	subcc	r0, r4, #0, 0
    4f70:	b2150000 	andslt	r0, r5, #0, 0
    4f74:	6d000004 	stcvs	0, cr0, [r0, #-16]
    4f78:	69000032 	stmdbvs	r0, {r1, r4, r5}
    4f7c:	1a000032 	bne	504c <__code_start__-0x2fb4>
    4f80:	00000448 	andeq	r0, r0, r8, asr #8
    4f84:	0004ca1c 	andeq	ip, r4, ip, lsl sl
    4f88:	00329200 	eorseq	r9, r2, r0, lsl #4
    4f8c:	00328e00 	eorseq	r8, r2, r0, lsl #28
    4f90:	04d61c00 	ldrbeq	r1, [r6], #3072	; 0xc00
    4f94:	32de0000 	sbcscc	r0, lr, #0, 0
    4f98:	32d80000 	sbcscc	r0, r8, #0, 0
    4f9c:	e01c0000 	ands	r0, ip, r0
    4fa0:	34000004 	strcc	r0, [r0], #-4
    4fa4:	2c000033 	stccs	0, cr0, [r0], {51}	; 0x33
    4fa8:	1d000033 	stcne	0, cr0, [r0, #-204]	; 0xffffff34
    4fac:	0000a2b4 			; <UNDEFINED> instruction: 0x0000a2b4
    4fb0:	0000065e 	andeq	r0, r0, lr, asr r6
    4fb4:	000005ae 	andeq	r0, r0, lr, lsr #11
    4fb8:	02500112 	subseq	r0, r0, #-2147483644	; 0x80000004
    4fbc:	16000076 			; <UNDEFINED> instruction: 0x16000076
    4fc0:	0000a2d0 	ldrdeq	sl, [r0], -r0
    4fc4:	0000066a 	andeq	r0, r0, sl, ror #12
    4fc8:	25500112 	ldrbcs	r0, [r0, #-274]	; 0xfffffeee
    4fcc:	f75001f3 			; <UNDEFINED> instruction: 0xf75001f3
    4fd0:	f425f72c 	vld1.8	{d15}, [r5 :128], ip
    4fd4:	cccd0825 	stclgt	8, cr0, [sp], {37}	; 0x25
    4fd8:	0000cccc 	andeq	ip, r0, ip, asr #25
    4fdc:	081e0000 	ldmdaeq	lr, {}	; <UNPREDICTABLE>
    4fe0:	2525f720 	strcs	pc, [r5, #-1824]!	; 0xfffff8e0
    4fe4:	00f72cf7 	ldrshteq	r2, [r7], #199	; 0xc7
    4fe8:	80232533 	eorhi	r2, r3, r3, lsr r5
    4fec:	3240a080 	subcc	sl, r0, #128, 0	; 0x80
    4ff0:	00000024 	andeq	r0, r0, r4, lsr #32
    4ff4:	038d2300 	orreq	r2, sp, #0, 6
    4ff8:	a32c0000 			; <UNDEFINED> instruction: 0xa32c0000
    4ffc:	00180000 	andseq	r0, r8, r0
    5000:	9c010000 	stcls	0, cr0, [r1], {-0}
    5004:	00000621 	andeq	r0, r0, r1, lsr #12
    5008:	00039a15 	andeq	r9, r3, r5, lsl sl
    500c:	00338a00 	eorseq	r8, r3, r0, lsl #20
    5010:	00338400 	eorseq	r8, r3, r0, lsl #8
    5014:	a3401600 	movtge	r1, #1536	; 0x600
    5018:	066a0000 	strbteq	r0, [sl], -r0
    501c:	01120000 	tsteq	r2, r0
    5020:	1c0c0550 	cfstr32ne	mvfx0, [ip], {80}	; 0x50
    5024:	12202000 	eorne	r2, r0, #0, 0
    5028:	31055101 	tstcc	r5, r1, lsl #2
    502c:	245001f3 	ldrbcs	r0, [r0], #-499	; 0xfffffe0d
    5030:	73230000 			; <UNDEFINED> instruction: 0x73230000
    5034:	44000003 	strmi	r0, [r0], #-3
    5038:	180000a3 	stmdane	r0, {r0, r1, r5, r7}
    503c:	01000000 	mrseq	r0, (UNDEF: 0)
    5040:	00065e9c 	muleq	r6, ip, lr
    5044:	03801500 	orreq	r1, r0, #0, 10
    5048:	33bc0000 			; <UNDEFINED> instruction: 0x33bc0000
    504c:	33b60000 			; <UNDEFINED> instruction: 0x33b60000
    5050:	58160000 	ldmdapl	r6, {}	; <UNPREDICTABLE>
    5054:	6a0000a3 	bvs	52e8 <__code_start__-0x2d18>
    5058:	12000006 	andne	r0, r0, #6, 0
    505c:	0c055001 	stceq	0, cr5, [r5], {1}
    5060:	20200028 	eorcs	r0, r0, r8, lsr #32
    5064:	05510112 	ldrbeq	r0, [r1, #-274]	; 0xfffffeee
    5068:	5001f331 	andpl	pc, r1, r1, lsr r3	; <UNPREDICTABLE>
    506c:	24000024 	strcs	r0, [r0], #-36	; 0xffffffdc
    5070:	000008a1 	andeq	r0, r0, r1, lsr #17
    5074:	000008a1 	andeq	r0, r0, r1, lsr #17
    5078:	240ac202 	strcs	ip, [sl], #-514	; 0xfffffdfe
    507c:	0000080d 	andeq	r0, r0, sp, lsl #16
    5080:	0000080d 	andeq	r0, r0, sp, lsl #16
    5084:	0006ad02 	andeq	sl, r6, r2, lsl #26
    5088:	00000149 	andeq	r0, r0, r9, asr #2
    508c:	1ba50004 	blne	fe9450a4 <__bss_end__+0xfe939e7c>
    5090:	01040000 	mrseq	r0, (UNDEF: 4)
    5094:	00000518 	andeq	r0, r0, r8, lsl r5
    5098:	000c6b0c 	andeq	r6, ip, ip, lsl #22
    509c:	0005de00 	andeq	sp, r5, r0, lsl #28
    50a0:	00a40c00 	adceq	r0, r4, r0, lsl #24
    50a4:	00003c00 	andeq	r3, r0, r0, lsl #24
    50a8:	0027ac00 	eoreq	sl, r7, r0, lsl #24
    50ac:	05040200 	streq	r0, [r4, #-512]	; 0xfffffe00
    50b0:	00746e69 	rsbseq	r6, r4, r9, ror #28
    50b4:	07070403 	streq	r0, [r7, -r3, lsl #8]
    50b8:	03000002 	movweq	r0, #2
    50bc:	007e0601 	rsbseq	r0, lr, r1, lsl #12
    50c0:	02030000 	andeq	r0, r3, #0, 0
    50c4:	00024005 	andeq	r4, r2, r5
    50c8:	05040300 	streq	r0, [r4, #-768]	; 0xfffffd00
    50cc:	0000022b 	andeq	r0, r0, fp, lsr #4
    50d0:	26050803 	strcs	r0, [r5], -r3, lsl #16
    50d4:	03000002 	movweq	r0, #2
    50d8:	007c0801 	rsbseq	r0, ip, r1, lsl #16
    50dc:	02030000 	andeq	r0, r3, #0, 0
    50e0:	00009707 	andeq	r9, r0, r7, lsl #14
    50e4:	07040300 	streq	r0, [r4, -r0, lsl #6]
    50e8:	00000202 	andeq	r0, r0, r2, lsl #4
    50ec:	fd070803 	stc2	8, cr0, [r7, #-12]
    50f0:	04000001 	streq	r0, [r0], #-1
    50f4:	00000025 	andeq	r0, r0, r5, lsr #32
    50f8:	0000007a 	andeq	r0, r0, sl, ror r0
    50fc:	00002505 	andeq	r2, r0, r5, lsl #10
    5100:	34060000 	strcc	r0, [r6], #-0
    5104:	02000002 	andeq	r0, r0, #2, 0
    5108:	00860e1c 	addeq	r0, r6, ip, lsl lr
    510c:	04070000 	streq	r0, [r7], #-0
    5110:	0000006b 	andeq	r0, r0, fp, rrx
    5114:	00002504 	andeq	r2, r0, r4, lsl #10
    5118:	00009b00 	andeq	r9, r0, r0, lsl #22
    511c:	009b0500 	addseq	r0, fp, r0, lsl #10
    5120:	07000000 	streq	r0, [r0, -r0]
    5124:	0000a804 	andeq	sl, r0, r4, lsl #16
    5128:	08010300 	stmdaeq	r1, {r8, r9}
    512c:	00000085 	andeq	r0, r0, r5, lsl #1
    5130:	0000a108 	andeq	sl, r0, r8, lsl #2
    5134:	067e0600 	ldrbteq	r0, [lr], -r0, lsl #12
    5138:	21020000 	mrscs	r0, (UNDEF: 2)
    513c:	0000b90e 	andeq	fp, r0, lr, lsl #18
    5140:	8c040700 	stchi	7, cr0, [r4], {-0}
    5144:	09000000 	stmdbeq	r0, {}	; <UNPREDICTABLE>
    5148:	0000007a 	andeq	r0, r0, sl, ror r0
    514c:	05070601 	streq	r0, [r7, #-1537]	; 0xfffff9ff
    5150:	00adf003 	adceq	pc, sp, r3
    5154:	0c5e0a00 	mrrceq	10, 0, r0, lr, cr0
    5158:	0b010000 	bleq	45160 <__bss_end__+0x39f38>
    515c:	00a43806 	adceq	r3, r4, r6, lsl #16
    5160:	00001000 	andeq	r1, r0, r0
    5164:	f19c0100 			; <UNDEFINED> instruction: 0xf19c0100
    5168:	0b000000 	bleq	5170 <__code_start__-0x2e90>
    516c:	01007066 	tsteq	r0, r6, rrx
    5170:	0086190b 	addeq	r1, r6, fp, lsl #18
    5174:	50010000 	andpl	r0, r1, r0
    5178:	0b9b0c00 	bleq	fe6c8180 <__bss_end__+0xfe6bcf58>
    517c:	08010000 	stmdaeq	r1, {}	; <UNPREDICTABLE>
    5180:	00a42006 	adceq	r2, r4, r6
    5184:	00001800 	andeq	r1, r0, r0, lsl #16
    5188:	0d9c0100 	ldfeqs	f0, [ip]
    518c:	00000c4d 	andeq	r0, r0, sp, asr #24
    5190:	250c0301 	strcs	r0, [ip, #-769]	; 0xfffffcff
    5194:	0c000000 	stceq	0, cr0, [r0], {-0}
    5198:	140000a4 	strne	r0, [r0], #-164	; 0xffffff5c
    519c:	01000000 	mrseq	r0, (UNDEF: 0)
    51a0:	0001409c 	muleq	r1, ip, r0
    51a4:	00630e00 	rsbeq	r0, r3, r0, lsl #28
    51a8:	25210301 	strcs	r0, [r1, #-769]!	; 0xfffffcff
    51ac:	ec000000 	stc	0, cr0, [r0], {-0}
    51b0:	e8000033 	stmda	r0, {r0, r1, r4, r5}
    51b4:	0f000033 	svceq	0x00000033
    51b8:	0000a418 	andeq	sl, r0, r8, lsl r4
    51bc:	00000140 	andeq	r0, r0, r0, asr #2
    51c0:	02500110 	subseq	r0, r0, #4
    51c4:	00000074 	andeq	r0, r0, r4, ror r0
    51c8:	000ab211 	andeq	fp, sl, r1, lsl r2
    51cc:	000ab200 	andeq	fp, sl, r0, lsl #4
    51d0:	06420200 	strbeq	r0, [r2], -r0, lsl #4
    51d4:	00013700 	andeq	r3, r1, r0, lsl #14
    51d8:	b4000400 	strlt	r0, [r0], #-1024	; 0xfffffc00
    51dc:	0400001c 	streq	r0, [r0], #-28	; 0xffffffe4
    51e0:	00051801 	andeq	r1, r5, r1, lsl #16
    51e4:	0c7c0c00 	ldcleq	12, cr0, [ip], #-0
    51e8:	05de0000 	ldrbeq	r0, [lr]
    51ec:	a4480000 	strbge	r0, [r8], #-0
    51f0:	002c0000 	eoreq	r0, ip, r0
    51f4:	284e0000 	stmdacs	lr, {}^	; <UNPREDICTABLE>
    51f8:	04020000 	streq	r0, [r2], #-0
    51fc:	746e6905 	strbtvc	r6, [lr], #-2309	; 0xfffff6fb
    5200:	07040300 	streq	r0, [r4, -r0, lsl #6]
    5204:	00000207 	andeq	r0, r0, r7, lsl #4
    5208:	7e060103 	adfvcs	f0, f6, f3
    520c:	03000000 	movweq	r0, #0
    5210:	02400502 	subeq	r0, r0, #8388608	; 0x800000
    5214:	04030000 	streq	r0, [r3], #-0
    5218:	00022b05 	andeq	r2, r2, r5, lsl #22
    521c:	05080300 	streq	r0, [r8, #-768]	; 0xfffffd00
    5220:	00000226 	andeq	r0, r0, r6, lsr #4
    5224:	7c080103 	stfvcs	f0, [r8], {3}
    5228:	03000000 	movweq	r0, #0
    522c:	00970702 	addseq	r0, r7, r2, lsl #14
    5230:	04030000 	streq	r0, [r3], #-0
    5234:	00020207 	andeq	r0, r2, r7, lsl #4
    5238:	07080300 	streq	r0, [r8, -r0, lsl #6]
    523c:	000001fd 	strdeq	r0, [r0], -sp
    5240:	00002504 	andeq	r2, r0, r4, lsl #10
    5244:	00007a00 	andeq	r7, r0, r0, lsl #20
    5248:	00250500 	eoreq	r0, r5, r0, lsl #10
    524c:	06000000 	streq	r0, [r0], -r0
    5250:	00000234 	andeq	r0, r0, r4, lsr r2
    5254:	860e1c02 	strhi	r1, [lr], -r2, lsl #24
    5258:	07000000 	streq	r0, [r0, -r0]
    525c:	00006b04 	andeq	r6, r0, r4, lsl #22
    5260:	00250400 	eoreq	r0, r5, r0, lsl #8
    5264:	009b0000 	addseq	r0, fp, r0
    5268:	9b050000 	blls	145270 <__bss_end__+0x13a048>
    526c:	00000000 	andeq	r0, r0, r0
    5270:	00a80407 	adceq	r0, r8, r7, lsl #8
    5274:	01030000 	mrseq	r0, (UNDEF: 3)
    5278:	00008508 	andeq	r8, r0, r8, lsl #10
    527c:	00a10800 	adceq	r0, r1, r0, lsl #16
    5280:	7e060000 	cdpvc	0, 0, cr0, cr6, cr0, {0}
    5284:	02000006 	andeq	r0, r0, #6, 0
    5288:	00b90e21 	adcseq	r0, r9, r1, lsr #28
    528c:	04070000 	streq	r0, [r7], #-0
    5290:	0000008c 	andeq	r0, r0, ip, lsl #1
    5294:	0006eb09 	andeq	lr, r6, r9, lsl #22
    5298:	07040100 	streq	r0, [r4, -r0, lsl #2]
    529c:	00000134 	andeq	r0, r0, r4, lsr r1
    52a0:	0000a448 	andeq	sl, r0, r8, asr #8
    52a4:	0000002c 	andeq	r0, r0, ip, lsr #32
    52a8:	01349c01 	teqeq	r4, r1, lsl #24
    52ac:	8c0a0000 	stchi	0, cr0, [sl], {-0}
    52b0:	0100000c 	tsteq	r0, ip
    52b4:	01341504 	teqeq	r4, r4, lsl #10
    52b8:	50010000 	andpl	r0, r1, r0
    52bc:	6372730b 	cmnvs	r2, #738197504	; 0x2c000000
    52c0:	27040100 	strcs	r0, [r4, -r0, lsl #2]
    52c4:	0000009b 	muleq	r0, fp, r0
    52c8:	0000340e 	andeq	r3, r0, lr, lsl #8
    52cc:	0000340a 	andeq	r3, r0, sl, lsl #8
    52d0:	0031730c 	eorseq	r7, r1, ip, lsl #6
    52d4:	340b0501 	strcc	r0, [fp], #-1281	; 0xfffffaff
    52d8:	3d000001 	stccc	0, cr0, [r0, #-4]
    52dc:	2f000034 	svccs	0x00000034
    52e0:	0c000034 	stceq	0, cr0, [r0], {52}	; 0x34
    52e4:	01003273 	tsteq	r0, r3, ror r2
    52e8:	009b1106 	addseq	r1, fp, r6, lsl #2
    52ec:	349c0000 	ldrcc	r0, [ip], #0
    52f0:	34960000 	ldrcc	r0, [r6], #0
    52f4:	630c0000 	movwvs	r0, #49152	; 0xc000
    52f8:	0a070100 	beq	1c5700 <__bss_end__+0x1ba4d8>
    52fc:	000000a1 	andeq	r0, r0, r1, lsr #1
    5300:	000034cd 	andeq	r3, r0, sp, asr #9
    5304:	000034c7 	andeq	r3, r0, r7, asr #9
    5308:	a1040700 	tstge	r4, r0, lsl #14
    530c:	00000000 	andeq	r0, r0, r0
    5310:	000000f7 	strdeq	r0, [r0], -r7
    5314:	1d6a0004 	stclne	0, cr0, [sl, #-16]!
    5318:	01040000 	mrseq	r0, (UNDEF: 4)
    531c:	00000518 	andeq	r0, r0, r8, lsl r5
    5320:	000c910c 	andeq	r9, ip, ip, lsl #2
    5324:	0005de00 	andeq	sp, r5, r0, lsl #28
    5328:	00a47400 	adceq	r7, r4, r0, lsl #8
    532c:	00004400 	andeq	r4, r0, r0, lsl #8
    5330:	00293400 	eoreq	r3, r9, r0, lsl #8
    5334:	05040200 	streq	r0, [r4, #-512]	; 0xfffffe00
    5338:	00746e69 	rsbseq	r6, r4, r9, ror #28
    533c:	07070403 	streq	r0, [r7, -r3, lsl #8]
    5340:	03000002 	movweq	r0, #2
    5344:	007e0601 	rsbseq	r0, lr, r1, lsl #12
    5348:	02030000 	andeq	r0, r3, #0, 0
    534c:	00024005 	andeq	r4, r2, r5
    5350:	05040300 	streq	r0, [r4, #-768]	; 0xfffffd00
    5354:	0000022b 	andeq	r0, r0, fp, lsr #4
    5358:	26050803 	strcs	r0, [r5], -r3, lsl #16
    535c:	03000002 	movweq	r0, #2
    5360:	007c0801 	rsbseq	r0, ip, r1, lsl #16
    5364:	02030000 	andeq	r0, r3, #0, 0
    5368:	00009707 	andeq	r9, r0, r7, lsl #14
    536c:	07040300 	streq	r0, [r4, -r0, lsl #6]
    5370:	00000202 	andeq	r0, r0, r2, lsl #4
    5374:	fd070803 	stc2	8, cr0, [r7, #-12]
    5378:	04000001 	streq	r0, [r0], #-1
    537c:	00000025 	andeq	r0, r0, r5, lsr #32
    5380:	0000007a 	andeq	r0, r0, sl, ror r0
    5384:	00002505 	andeq	r2, r0, r5, lsl #10
    5388:	34060000 	strcc	r0, [r6], #-0
    538c:	02000002 	andeq	r0, r0, #2, 0
    5390:	00860e1c 	addeq	r0, r6, ip, lsl lr
    5394:	04070000 	streq	r0, [r7], #-0
    5398:	0000006b 	andeq	r0, r0, fp, rrx
    539c:	00002504 	andeq	r2, r0, r4, lsl #10
    53a0:	00009b00 	andeq	r9, r0, r0, lsl #22
    53a4:	009b0500 	addseq	r0, fp, r0, lsl #10
    53a8:	07000000 	streq	r0, [r0, -r0]
    53ac:	0000a804 	andeq	sl, r0, r4, lsl #16
    53b0:	08010300 	stmdaeq	r1, {r8, r9}
    53b4:	00000085 	andeq	r0, r0, r5, lsl #1
    53b8:	0000a108 	andeq	sl, r0, r8, lsl #2
    53bc:	067e0600 	ldrbteq	r0, [lr], -r0, lsl #12
    53c0:	21020000 	mrscs	r0, (UNDEF: 2)
    53c4:	0000b90e 	andeq	fp, r0, lr, lsl #18
    53c8:	8c040700 	stchi	7, cr0, [r4], {-0}
    53cc:	09000000 	stmdbeq	r0, {}	; <UNPREDICTABLE>
    53d0:	00000719 	andeq	r0, r0, r9, lsl r7
    53d4:	25050301 	strcs	r0, [r5, #-769]	; 0xfffffcff
    53d8:	74000000 	strvc	r0, [r0], #-0
    53dc:	440000a4 	strmi	r0, [r0], #-164	; 0xffffff5c
    53e0:	01000000 	mrseq	r0, (UNDEF: 0)
    53e4:	00610a9c 	mlseq	r1, ip, sl, r0
    53e8:	9b180301 	blls	605ff4 <__bss_end__+0x5fadcc>
    53ec:	04000000 	streq	r0, [r0], #-0
    53f0:	f8000035 			; <UNDEFINED> instruction: 0xf8000035
    53f4:	0a000034 	beq	54cc <__code_start__-0x2b34>
    53f8:	03010062 	movweq	r0, #4194	; 0x1062
    53fc:	00009b27 	andeq	r9, r0, r7, lsr #22
    5400:	00355800 	eorseq	r5, r5, r0, lsl #16
    5404:	00355200 	eorseq	r5, r5, r0, lsl #4
    5408:	0f000000 	svceq	0x00000000
    540c:	04000001 	streq	r0, [r0], #-1
    5410:	001df900 	andseq	pc, sp, r0, lsl #18
    5414:	18010400 	stmdane	r1, {sl}
    5418:	0c000005 	stceq	0, cr0, [r0], {5}
    541c:	00000ca1 	andeq	r0, r0, r1, lsr #25
    5420:	000005de 	ldrdeq	r0, [r0], -lr
    5424:	0000a4b8 			; <UNDEFINED> instruction: 0x0000a4b8
    5428:	00000018 	andeq	r0, r0, r8, lsl r0
    542c:	000029ea 	andeq	r2, r0, sl, ror #19
    5430:	69050402 	stmdbvs	r5, {r1, sl}
    5434:	0300746e 	movweq	r7, #1134	; 0x46e
    5438:	02070704 	andeq	r0, r7, #4, 14	; 0x100000
    543c:	01030000 	mrseq	r0, (UNDEF: 3)
    5440:	00007e06 	andeq	r7, r0, r6, lsl #28
    5444:	05020300 	streq	r0, [r2, #-768]	; 0xfffffd00
    5448:	00000240 	andeq	r0, r0, r0, asr #4
    544c:	2b050403 	blcs	146460 <__bss_end__+0x13b238>
    5450:	03000002 	movweq	r0, #2
    5454:	02260508 	eoreq	r0, r6, #8, 10	; 0x2000000
    5458:	01030000 	mrseq	r0, (UNDEF: 3)
    545c:	00007c08 	andeq	r7, r0, r8, lsl #24
    5460:	07020300 	streq	r0, [r2, -r0, lsl #6]
    5464:	00000097 	muleq	r0, r7, r0
    5468:	02070403 	andeq	r0, r7, #50331648	; 0x3000000
    546c:	03000002 	movweq	r0, #2
    5470:	01fd0708 	mvnseq	r0, r8, lsl #14
    5474:	25040000 	strcs	r0, [r4, #-0]
    5478:	7a000000 	bvc	5480 <__code_start__-0x2b80>
    547c:	05000000 	streq	r0, [r0, #-0]
    5480:	00000025 	andeq	r0, r0, r5, lsr #32
    5484:	02340600 	eorseq	r0, r4, #0, 12
    5488:	1c020000 	stcne	0, cr0, [r2], {-0}
    548c:	0000860e 	andeq	r8, r0, lr, lsl #12
    5490:	6b040700 	blvs	107098 <__bss_end__+0xfbe70>
    5494:	04000000 	streq	r0, [r0], #-0
    5498:	00000025 	andeq	r0, r0, r5, lsr #32
    549c:	0000009b 	muleq	r0, fp, r0
    54a0:	00009b05 	andeq	r9, r0, r5, lsl #22
    54a4:	04070000 	streq	r0, [r7], #-0
    54a8:	000000a8 	andeq	r0, r0, r8, lsr #1
    54ac:	85080103 	strhi	r0, [r8, #-259]	; 0xfffffefd
    54b0:	08000000 	stmdaeq	r0, {}	; <UNPREDICTABLE>
    54b4:	000000a1 	andeq	r0, r0, r1, lsr #1
    54b8:	00067e06 	andeq	r7, r6, r6, lsl #28
    54bc:	0e210200 	cdpeq	2, 2, cr0, cr1, cr0, {0}
    54c0:	000000b9 	strheq	r0, [r0], -r9
    54c4:	008c0407 	addeq	r0, ip, r7, lsl #8
    54c8:	f2090000 	vhadd.s8	d0, d9, d0
    54cc:	01000006 	tsteq	r0, r6
    54d0:	010c0703 	tsteq	ip, r3, lsl #14
    54d4:	a4b80000 	ldrtge	r0, [r8], #0
    54d8:	00180000 	andseq	r0, r8, r0
    54dc:	9c010000 	stcls	0, cr0, [r1], {-0}
    54e0:	0000010c 	andeq	r0, r0, ip, lsl #2
    54e4:	0031730a 	eorseq	r7, r1, sl, lsl #6
    54e8:	0c150301 	ldceq	3, cr0, [r5], {1}
    54ec:	01000001 	tsteq	r0, r1
    54f0:	32730b50 	rsbscc	r0, r3, #80, 22	; 0x14000
    54f4:	26030100 	strcs	r0, [r3], -r0, lsl #2
    54f8:	0000009b 	muleq	r0, fp, r0
    54fc:	00003587 	andeq	r3, r0, r7, lsl #11
    5500:	00003581 	andeq	r3, r0, r1, lsl #11
    5504:	0100730c 	tsteq	r0, ip, lsl #6
    5508:	010c1404 	tsteq	ip, r4, lsl #8
    550c:	35b40000 	ldrcc	r0, [r4, #0]!
    5510:	35b20000 	ldrcc	r0, [r2, #0]!
    5514:	07000000 	streq	r0, [r0, -r0]
    5518:	0000a104 	andeq	sl, r0, r4, lsl #2
    551c:	014e0000 	mrseq	r0, (UNDEF: 78)
    5520:	00040000 	andeq	r0, r4, r0
    5524:	00001eaf 	andeq	r1, r0, pc, lsr #29
    5528:	05180104 	ldreq	r0, [r8, #-260]	; 0xfffffefc
    552c:	b10c0000 	mrslt	r0, (UNDEF: 12)
    5530:	de00000c 	cdple	0, 0, cr0, cr0, cr12, {0}
    5534:	d0000005 	andle	r0, r0, r5
    5538:	300000a4 	andcc	r0, r0, r4, lsr #1
    553c:	8b000000 	blhi	5544 <__code_start__-0x2abc>
    5540:	0200002a 	andeq	r0, r0, #42, 0	; 0x2a
    5544:	6e690504 	cdpvs	5, 6, cr0, cr9, cr4, {0}
    5548:	21030074 	tstcs	r3, r4, ror r0
    554c:	03000006 	movweq	r0, #6
    5550:	003817d1 	ldrsbteq	r1, [r8], -r1
    5554:	04040000 	streq	r0, [r4], #-0
    5558:	00020707 	andeq	r0, r2, r7, lsl #14
    555c:	06010400 	streq	r0, [r1], -r0, lsl #8
    5560:	0000007e 	andeq	r0, r0, lr, ror r0
    5564:	40050204 	andmi	r0, r5, r4, lsl #4
    5568:	04000002 	streq	r0, [r0], #-2
    556c:	022b0504 	eoreq	r0, fp, #4, 10	; 0x1000000
    5570:	08040000 	stmdaeq	r4, {}	; <UNPREDICTABLE>
    5574:	00022605 	andeq	r2, r2, r5, lsl #12
    5578:	08010400 	stmdaeq	r1, {sl}
    557c:	0000007c 	andeq	r0, r0, ip, ror r0
    5580:	00005b05 	andeq	r5, r0, r5, lsl #22
    5584:	07020400 	streq	r0, [r2, -r0, lsl #8]
    5588:	00000097 	muleq	r0, r7, r0
    558c:	02070404 	andeq	r0, r7, #4, 8	; 0x4000000
    5590:	04000002 	streq	r0, [r0], #-2
    5594:	01fd0708 	mvnseq	r0, r8, lsl #14
    5598:	25060000 	strcs	r0, [r6, #-0]
    559c:	8b000000 	blhi	55a4 <__code_start__-0x2a5c>
    55a0:	07000000 	streq	r0, [r0, -r0]
    55a4:	00000025 	andeq	r0, r0, r5, lsr #32
    55a8:	02340800 	eorseq	r0, r4, #0, 16
    55ac:	1c020000 	stcne	0, cr0, [r2], {-0}
    55b0:	0000970e 	andeq	r9, r0, lr, lsl #14
    55b4:	7c040900 			; <UNDEFINED> instruction: 0x7c040900
    55b8:	06000000 	streq	r0, [r0], -r0
    55bc:	00000025 	andeq	r0, r0, r5, lsr #32
    55c0:	000000ac 	andeq	r0, r0, ip, lsr #1
    55c4:	0000ac07 	andeq	sl, r0, r7, lsl #24
    55c8:	04090000 	streq	r0, [r9], #-0
    55cc:	000000b9 	strheq	r0, [r0], -r9
    55d0:	85080104 	strhi	r0, [r8, #-260]	; 0xfffffefc
    55d4:	05000000 	streq	r0, [r0, #-0]
    55d8:	000000b2 	strheq	r0, [r0], -r2
    55dc:	00067e08 	andeq	r7, r6, r8, lsl #28
    55e0:	0e210200 	cdpeq	2, 2, cr0, cr1, cr0, {0}
    55e4:	000000ca 	andeq	r0, r0, sl, asr #1
    55e8:	009d0409 	addseq	r0, sp, r9, lsl #8
    55ec:	3a0a0000 	bcc	2855f4 <__bss_end__+0x27a3cc>
    55f0:	01000007 	tsteq	r0, r7
    55f4:	00250504 	eoreq	r0, r5, r4, lsl #10
    55f8:	a4d00000 	ldrbge	r0, [r0], #0
    55fc:	00300000 	eorseq	r0, r0, r0
    5600:	9c010000 	stcls	0, cr0, [r1], {-0}
    5604:	0000014b 	andeq	r0, r0, fp, asr #2
    5608:	31735f0b 	cmncc	r3, fp, lsl #30
    560c:	19040100 	stmdbne	r4, {r8}
    5610:	000000ac 	andeq	r0, r0, ip, lsr #1
    5614:	000035cb 	andeq	r3, r0, fp, asr #11
    5618:	000035c7 	andeq	r3, r0, r7, asr #11
    561c:	32735f0b 	rsbscc	r5, r3, #11, 30	; 0x2c
    5620:	2a040100 	bcs	105a28 <__bss_end__+0xfa800>
    5624:	000000ac 	andeq	r0, r0, ip, lsr #1
    5628:	000035f0 	strdeq	r3, [r0], -r0
    562c:	000035ec 	andeq	r3, r0, ip, ror #11
    5630:	01006e0b 	tsteq	r0, fp, lsl #28
    5634:	002c3604 	eoreq	r3, ip, r4, lsl #12
    5638:	361b0000 	ldrcc	r0, [fp], -r0
    563c:	36110000 	ldrcc	r0, [r1], -r0
    5640:	730c0000 	movwvc	r0, #49152	; 0xc000
    5644:	05010031 	streq	r0, [r1, #-49]	; 0xffffffcf
    5648:	00014b1a 	andeq	r4, r1, sl, lsl fp
    564c:	00367200 	eorseq	r7, r6, r0, lsl #4
    5650:	00366a00 	eorseq	r6, r6, r0, lsl #20
    5654:	32730c00 	rsbscc	r0, r3, #0, 24
    5658:	2c050100 	stfcss	f0, [r5], {-0}
    565c:	0000014b 	andeq	r0, r0, fp, asr #2
    5660:	000036b0 			; <UNDEFINED> instruction: 0x000036b0
    5664:	000036aa 	andeq	r3, r0, sl, lsr #13
    5668:	62040900 	andvs	r0, r4, #0, 18
    566c:	00000000 	andeq	r0, r0, r0
    5670:	000000ce 	andeq	r0, r0, lr, asr #1
    5674:	1f630004 	svcne	0x00630004
    5678:	01040000 	mrseq	r0, (UNDEF: 4)
    567c:	00000518 	andeq	r0, r0, r8, lsl r5
    5680:	000cc20c 	andeq	ip, ip, ip, lsl #4
    5684:	0005de00 	andeq	sp, r5, r0, lsl #28
    5688:	00a50000 	adceq	r0, r5, r0
    568c:	00000400 	andeq	r0, r0, r0, lsl #8
    5690:	002b8c00 	eoreq	r8, fp, r0, lsl #24
    5694:	05040200 	streq	r0, [r4, #-512]	; 0xfffffe00
    5698:	00746e69 	rsbseq	r6, r4, r9, ror #28
    569c:	07070403 	streq	r0, [r7, -r3, lsl #8]
    56a0:	03000002 	movweq	r0, #2
    56a4:	007e0601 	rsbseq	r0, lr, r1, lsl #12
    56a8:	02030000 	andeq	r0, r3, #0, 0
    56ac:	00024005 	andeq	r4, r2, r5
    56b0:	05040300 	streq	r0, [r4, #-768]	; 0xfffffd00
    56b4:	0000022b 	andeq	r0, r0, fp, lsr #4
    56b8:	26050803 	strcs	r0, [r5], -r3, lsl #16
    56bc:	03000002 	movweq	r0, #2
    56c0:	007c0801 	rsbseq	r0, ip, r1, lsl #16
    56c4:	02030000 	andeq	r0, r3, #0, 0
    56c8:	00009707 	andeq	r9, r0, r7, lsl #14
    56cc:	07040300 	streq	r0, [r4, -r0, lsl #6]
    56d0:	00000202 	andeq	r0, r0, r2, lsl #4
    56d4:	fd070803 	stc2	8, cr0, [r7, #-12]
    56d8:	04000001 	streq	r0, [r0], #-1
    56dc:	00000025 	andeq	r0, r0, r5, lsr #32
    56e0:	0000007a 	andeq	r0, r0, sl, ror r0
    56e4:	00002505 	andeq	r2, r0, r5, lsl #10
    56e8:	34060000 	strcc	r0, [r6], #-0
    56ec:	02000002 	andeq	r0, r0, #2, 0
    56f0:	00860e1c 	addeq	r0, r6, ip, lsl lr
    56f4:	04070000 	streq	r0, [r7], #-0
    56f8:	0000006b 	andeq	r0, r0, fp, rrx
    56fc:	00002504 	andeq	r2, r0, r4, lsl #10
    5700:	00009b00 	andeq	r9, r0, r0, lsl #22
    5704:	009b0500 	addseq	r0, fp, r0, lsl #10
    5708:	07000000 	streq	r0, [r0, -r0]
    570c:	0000a804 	andeq	sl, r0, r4, lsl #16
    5710:	08010300 	stmdaeq	r1, {r8, r9}
    5714:	00000085 	andeq	r0, r0, r5, lsl #1
    5718:	0000a108 	andeq	sl, r0, r8, lsl #2
    571c:	067e0600 	ldrbteq	r0, [lr], -r0, lsl #12
    5720:	21020000 	mrscs	r0, (UNDEF: 2)
    5724:	0000b90e 	andeq	fp, r0, lr, lsl #18
    5728:	8c040700 	stchi	7, cr0, [r4], {-0}
    572c:	09000000 	stmdbeq	r0, {}	; <UNPREDICTABLE>
    5730:	000007f6 	strdeq	r0, [r0], -r6
    5734:	00060301 	andeq	r0, r6, r1, lsl #6
    5738:	040000a5 	streq	r0, [r0], #-165	; 0xffffff5b
    573c:	01000000 	mrseq	r0, (UNDEF: 0)
    5740:	Address 0x0000000000005740 is out of bounds.


Disassembly of section .debug_abbrev:

00000000 <.debug_abbrev>:
       0:	25011101 	strcs	r1, [r1, #-257]	; 0xfffffeff
       4:	030b130e 	movweq	r1, #45838	; 0xb30e
       8:	110e1b0e 	tstne	lr, lr, lsl #22
       c:	10061201 	andne	r1, r6, r1, lsl #4
      10:	02000017 	andeq	r0, r0, #23, 0
      14:	0b0b0024 	bleq	2c00ac <__bss_end__+0x2b4e84>
      18:	08030b3e 	stmdaeq	r3, {r1, r2, r3, r4, r5, r8, r9, fp}
      1c:	24030000 	strcs	r0, [r3], #-0
      20:	3e0b0b00 	vmlacc.f64	d0, d11, d0
      24:	000e030b 	andeq	r0, lr, fp, lsl #6
      28:	00160400 	andseq	r0, r6, r0, lsl #8
      2c:	0b3a0e03 	bleq	e83840 <__bss_end__+0xe78618>
      30:	0b390b3b 	bleq	e42d24 <__bss_end__+0xe37afc>
      34:	00001349 	andeq	r1, r0, r9, asr #6
      38:	27011505 	strcs	r1, [r1, -r5, lsl #10]
      3c:	01134919 	tsteq	r3, r9, lsl r9
      40:	06000013 			; <UNDEFINED> instruction: 0x06000013
      44:	13490005 	movtne	r0, #36869	; 0x9005
      48:	34070000 	strcc	r0, [r7], #-0
      4c:	3a0e0300 	bcc	380c54 <__bss_end__+0x375a2c>
      50:	390b3b0b 	stmdbcc	fp, {r0, r1, r3, r8, r9, fp, ip, sp}
      54:	3f13490b 	svccc	0x0013490b
      58:	00193c19 	andseq	r3, r9, r9, lsl ip
      5c:	000f0800 	andeq	r0, pc, r0, lsl #16
      60:	13490b0b 	movtne	r0, #39691	; 0x9b0b
      64:	26090000 	strcs	r0, [r9], -r0
      68:	00134900 	andseq	r4, r3, r0, lsl #18
      6c:	01130a00 	tsteq	r3, r0, lsl #20
      70:	0b3a0b0b 	bleq	e82ca4 <__bss_end__+0xe77a7c>
      74:	0b390b3b 	bleq	e42d68 <__bss_end__+0xe37b40>
      78:	00001301 	andeq	r1, r0, r1, lsl #6
      7c:	03000d0b 	movweq	r0, #3339	; 0xd0b
      80:	3b0b3a0e 	blcc	2ce8c0 <__bss_end__+0x2c3698>
      84:	490b390b 	stmdbmi	fp, {r0, r1, r3, r8, fp, ip, sp}
      88:	000b3813 	andeq	r3, fp, r3, lsl r8
      8c:	01130c00 	tsteq	r3, r0, lsl #24
      90:	0b0b0e03 	bleq	2c38a4 <__bss_end__+0x2b867c>
      94:	0b3b0b3a 	bleq	ec2d84 <__bss_end__+0xeb7b5c>
      98:	13010b39 	movwne	r0, #6969	; 0x1b39
      9c:	0d0d0000 	stceq	0, cr0, [sp, #-0]
      a0:	3a080300 	bcc	200ca8 <__bss_end__+0x1f5a80>
      a4:	390b3b0b 	stmdbcc	fp, {r0, r1, r3, r8, r9, fp, ip, sp}
      a8:	3813490b 	ldmdacc	r3, {r0, r1, r3, r8, fp, lr}
      ac:	0e00000b 	cdpeq	0, 0, cr0, cr0, cr11, {0}
      b0:	13490101 	movtne	r0, #37121	; 0x9101
      b4:	00001301 	andeq	r1, r0, r1, lsl #6
      b8:	4900210f 	stmdbmi	r0, {r0, r1, r2, r3, r8, sp}
      bc:	000b2f13 	andeq	r2, fp, r3, lsl pc
      c0:	000f1000 	andeq	r1, pc, r0
      c4:	00000b0b 	andeq	r0, r0, fp, lsl #22
      c8:	3f012e11 	svccc	0x00012e11
      cc:	3a0e0319 	bcc	380d38 <__bss_end__+0x375b10>
      d0:	390b3b0b 	stmdbcc	fp, {r0, r1, r3, r8, r9, fp, ip, sp}
      d4:	1119270b 	tstne	r9, fp, lsl #14
      d8:	40061201 	andmi	r1, r6, r1, lsl #4
      dc:	19429718 	stmdbne	r2, {r3, r4, r8, r9, sl, ip, pc}^
      e0:	00001301 	andeq	r1, r0, r1, lsl #6
      e4:	03003412 	movweq	r3, #1042	; 0x412
      e8:	3b0b3a08 	blcc	2ce910 <__bss_end__+0x2c36e8>
      ec:	490b390b 	stmdbmi	fp, {r0, r1, r3, r8, fp, ip, sp}
      f0:	b7170213 			; <UNDEFINED> instruction: 0xb7170213
      f4:	00001742 	andeq	r1, r0, r2, asr #14
      f8:	03003413 	movweq	r3, #1043	; 0x413
      fc:	3413490e 	ldrcc	r4, [r3], #-2318	; 0xfffff6f2
     100:	00180219 	andseq	r0, r8, r9, lsl r2
     104:	82891400 	addhi	r1, r9, #0, 8
     108:	01110101 	tsteq	r1, r1, lsl #2
     10c:	13011331 	movwne	r1, #4913	; 0x1331
     110:	8a150000 	bhi	540118 <__bss_end__+0x534ef0>
     114:	02000182 	andeq	r0, r0, #-2147483616	; 0x80000020
     118:	18429118 	stmdane	r2, {r3, r4, r8, ip, pc}^
     11c:	89160000 	ldmdbhi	r6, {}	; <UNPREDICTABLE>
     120:	11000182 	smlabbne	r0, r2, r1, r0
     124:	00133101 	andseq	r3, r3, r1, lsl #2
     128:	012e1700 			; <UNDEFINED> instruction: 0x012e1700
     12c:	0e03193f 			; <UNDEFINED> instruction: 0x0e03193f
     130:	0b3b0b3a 	bleq	ec2e20 <__bss_end__+0xeb7bf8>
     134:	19270b39 	stmdbne	r7!, {r0, r3, r4, r5, r8, r9, fp}
     138:	01111349 	tsteq	r1, r9, asr #6
     13c:	18400612 	stmdane	r0, {r1, r4, r9, sl}^
     140:	01194297 			; <UNDEFINED> instruction: 0x01194297
     144:	18000013 	stmdane	r0, {r0, r1, r4}
     148:	1331011d 	teqne	r1, #1073741831	; 0x40000007
     14c:	42b80152 	adcsmi	r0, r8, #-2147483628	; 0x80000014
     150:	1201110b 	andne	r1, r1, #-1073741822	; 0xc0000002
     154:	590b5806 	stmdbpl	fp, {r1, r2, fp, ip, lr}
     158:	010b570b 	tsteq	fp, fp, lsl #14
     15c:	19000013 	stmdbne	r0, {r0, r1, r4}
     160:	13310005 	teqne	r1, #5, 0
     164:	42b71702 	adcsmi	r1, r7, #524288	; 0x80000
     168:	1a000017 	bne	1cc <__code_start__-0x7e34>
     16c:	01018289 	smlabbeq	r1, r9, r2, r8
     170:	13310111 	teqne	r1, #1073741828	; 0x40000004
     174:	2e1b0000 	cdpcs	0, 1, cr0, cr11, cr0, {0}
     178:	3a0e0301 	bcc	380d84 <__bss_end__+0x375b5c>
     17c:	390b3b0b 	stmdbcc	fp, {r0, r1, r3, r8, r9, fp, ip, sp}
     180:	4919270b 	ldmdbmi	r9, {r0, r1, r3, r8, r9, sl, sp}
     184:	12011113 	andne	r1, r1, #-1073741820	; 0xc0000004
     188:	97184006 	ldrls	r4, [r8, -r6]
     18c:	13011942 	movwne	r1, #6466	; 0x1942
     190:	051c0000 	ldreq	r0, [ip, #-0]
     194:	3a080300 	bcc	200d9c <__bss_end__+0x1f5b74>
     198:	390b3b0b 	stmdbcc	fp, {r0, r1, r3, r8, r9, fp, ip, sp}
     19c:	0213490b 	andseq	r4, r3, #180224	; 0x2c000
     1a0:	1742b717 	smlaldne	fp, r2, r7, r7
     1a4:	2e1d0000 	cdpcs	0, 1, cr0, cr13, cr0, {0}
     1a8:	3a0e0301 	bcc	380db4 <__bss_end__+0x375b8c>
     1ac:	390b3b0b 	stmdbcc	fp, {r0, r1, r3, r8, r9, fp, ip, sp}
     1b0:	4919270b 	ldmdbmi	r9, {r0, r1, r3, r8, r9, sl, sp}
     1b4:	010b2013 	tsteq	fp, r3, lsl r0
     1b8:	1e000013 	mcrne	0, 0, r0, cr0, cr3, {0}
     1bc:	0e030005 	cdpeq	0, 0, cr0, cr3, cr5, {0}
     1c0:	0b3b0b3a 	bleq	ec2eb0 <__bss_end__+0xeb7c88>
     1c4:	13490b39 	movtne	r0, #39737	; 0x9b39
     1c8:	2e1f0000 	cdpcs	0, 1, cr0, cr15, cr0, {0}
     1cc:	3c193f00 	ldccc	15, cr3, [r9], {-0}
     1d0:	030e6e19 	movweq	r6, #60953	; 0xee19
     1d4:	3b0b3a0e 	blcc	2cea14 <__bss_end__+0x2c37ec>
     1d8:	000b390b 	andeq	r3, fp, fp, lsl #18
     1dc:	00362000 	eorseq	r2, r6, r0
     1e0:	00001802 	andeq	r1, r0, r2, lsl #16
     1e4:	01110100 	tsteq	r1, r0, lsl #2
     1e8:	0b130e25 	bleq	4c3a84 <__bss_end__+0x4b885c>
     1ec:	0e1b0e03 	cdpeq	14, 1, cr0, cr11, cr3, {0}
     1f0:	06120111 			; <UNDEFINED> instruction: 0x06120111
     1f4:	00001710 	andeq	r1, r0, r0, lsl r7
     1f8:	0b002402 	bleq	9208 <emit.constprop.0+0x1e8>
     1fc:	030b3e0b 	movweq	r3, #48651	; 0xbe0b
     200:	03000008 	movweq	r0, #8
     204:	0b0b0024 	bleq	2c029c <__bss_end__+0x2b5074>
     208:	0e030b3e 	vmoveq.16	d3[0], r0
     20c:	16040000 	strne	r0, [r4], -r0
     210:	3a0e0300 	bcc	380e18 <__bss_end__+0x375bf0>
     214:	390b3b0b 	stmdbcc	fp, {r0, r1, r3, r8, r9, fp, ip, sp}
     218:	0013490b 	andseq	r4, r3, fp, lsl #18
     21c:	01150500 	tsteq	r5, r0, lsl #10
     220:	13491927 	movtne	r1, #39207	; 0x9927
     224:	00001301 	andeq	r1, r0, r1, lsl #6
     228:	49000506 	stmdbmi	r0, {r1, r2, r8, sl}
     22c:	07000013 	smladeq	r0, r3, r0, r0
     230:	0e030034 	mcreq	0, 0, r0, cr3, cr4, {1}
     234:	0b3b0b3a 	bleq	ec2f24 <__bss_end__+0xeb7cfc>
     238:	13490b39 	movtne	r0, #39737	; 0x9b39
     23c:	193c193f 	ldmdbne	ip!, {r0, r1, r2, r3, r4, r5, r8, fp, ip}
     240:	0f080000 	svceq	0x00080000
     244:	490b0b00 	stmdbmi	fp, {r8, r9, fp}
     248:	09000013 	stmdbeq	r0, {r0, r1, r4}
     24c:	13490026 	movtne	r0, #36902	; 0x9026
     250:	130a0000 	movwne	r0, #40960	; 0xa000
     254:	3a0b0b01 	bcc	2c2e60 <__bss_end__+0x2b7c38>
     258:	390b3b0b 	stmdbcc	fp, {r0, r1, r3, r8, r9, fp, ip, sp}
     25c:	0013010b 	andseq	r0, r3, fp, lsl #2
     260:	000d0b00 	andeq	r0, sp, r0, lsl #22
     264:	0b3a0e03 	bleq	e83a78 <__bss_end__+0xe78850>
     268:	0b390b3b 	bleq	e42f5c <__bss_end__+0xe37d34>
     26c:	0b381349 	bleq	e04f98 <__bss_end__+0xdf9d70>
     270:	040c0000 	streq	r0, [ip], #-0
     274:	0b0b3e01 	bleq	2cfa80 <__bss_end__+0x2c4858>
     278:	3a13490b 	bcc	4d26ac <__bss_end__+0x4c7484>
     27c:	390b3b0b 	stmdbcc	fp, {r0, r1, r3, r8, r9, fp, ip, sp}
     280:	0013010b 	andseq	r0, r3, fp, lsl #2
     284:	00280d00 	eoreq	r0, r8, r0, lsl #26
     288:	0b1c0e03 	bleq	703a9c <__bss_end__+0x6f8874>
     28c:	130e0000 	movwne	r0, #57344	; 0xe000
     290:	0b0e0301 	bleq	380e9c <__bss_end__+0x375c74>
     294:	3b0b3a0b 	blcc	2ceac8 <__bss_end__+0x2c38a0>
     298:	010b390b 	tsteq	fp, fp, lsl #18
     29c:	0f000013 	svceq	0x00000013
     2a0:	0803000d 	stmdaeq	r3, {r0, r2, r3}
     2a4:	0b3b0b3a 	bleq	ec2f94 <__bss_end__+0xeb7d6c>
     2a8:	13490b39 	movtne	r0, #39737	; 0x9b39
     2ac:	00000b38 	andeq	r0, r0, r8, lsr fp
     2b0:	49010110 	stmdbmi	r1, {r4, r8}
     2b4:	00130113 	andseq	r0, r3, r3, lsl r1
     2b8:	00211100 	eoreq	r1, r1, r0, lsl #2
     2bc:	0b2f1349 	bleq	bc4fe8 <__bss_end__+0xbb9dc0>
     2c0:	0f120000 	svceq	0x00120000
     2c4:	000b0b00 	andeq	r0, fp, r0, lsl #22
     2c8:	00341300 	eorseq	r1, r4, r0, lsl #6
     2cc:	0b3a0e03 	bleq	e83ae0 <__bss_end__+0xe788b8>
     2d0:	0b390b3b 	bleq	e42fc4 <__bss_end__+0xe37d9c>
     2d4:	18021349 	stmdane	r2, {r0, r3, r6, r8, r9, ip}
     2d8:	34140000 	ldrcc	r0, [r4], #-0
     2dc:	3a0e0300 	bcc	380ee4 <__bss_end__+0x375cbc>
     2e0:	390b3b0b 	stmdbcc	fp, {r0, r1, r3, r8, r9, fp, ip, sp}
     2e4:	0013490b 	andseq	r4, r3, fp, lsl #18
     2e8:	012e1500 			; <UNDEFINED> instruction: 0x012e1500
     2ec:	0e03193f 			; <UNDEFINED> instruction: 0x0e03193f
     2f0:	0b3b0b3a 	bleq	ec2fe0 <__bss_end__+0xeb7db8>
     2f4:	19270b39 	stmdbne	r7!, {r0, r3, r4, r5, r8, r9, fp}
     2f8:	01111349 	tsteq	r1, r9, asr #6
     2fc:	18400612 	stmdane	r0, {r1, r4, r9, sl}^
     300:	01194297 			; <UNDEFINED> instruction: 0x01194297
     304:	16000013 			; <UNDEFINED> instruction: 0x16000013
     308:	0e030005 	cdpeq	0, 0, cr0, cr3, cr5, {0}
     30c:	0b3b0b3a 	bleq	ec2ffc <__bss_end__+0xeb7dd4>
     310:	13490b39 	movtne	r0, #39737	; 0x9b39
     314:	42b71702 	adcsmi	r1, r7, #524288	; 0x80000
     318:	17000017 	smladne	r0, r7, r0, r0
     31c:	08030005 	stmdaeq	r3, {r0, r2}
     320:	0b3b0b3a 	bleq	ec3010 <__bss_end__+0xeb7de8>
     324:	13490b39 	movtne	r0, #39737	; 0x9b39
     328:	00001802 	andeq	r1, r0, r2, lsl #16
     32c:	03003418 	movweq	r3, #1048	; 0x418
     330:	3b0b3a08 	blcc	2ceb58 <__bss_end__+0x2c3930>
     334:	490b390b 	stmdbmi	fp, {r0, r1, r3, r8, fp, ip, sp}
     338:	b7170213 			; <UNDEFINED> instruction: 0xb7170213
     33c:	00001742 	andeq	r1, r0, r2, asr #14
     340:	11010b19 	tstne	r1, r9, lsl fp
     344:	01061201 	tsteq	r6, r1, lsl #4
     348:	1a000013 	bne	39c <__code_start__-0x7c64>
     34c:	0111010b 	tsteq	r1, fp, lsl #2
     350:	00000612 	andeq	r0, r0, r2, lsl r6
     354:	0182891b 	orreq	r8, r2, fp, lsl r9
     358:	31011101 	tstcc	r1, r1, lsl #2
     35c:	1c000013 	stcne	0, cr0, [r0], {19}
     360:	0001828a 	andeq	r8, r1, sl, lsl #5
     364:	42911802 	addsmi	r1, r1, #131072	; 0x20000
     368:	1d000018 	stcne	0, cr0, [r0, #-96]	; 0xffffffa0
     36c:	01018289 	smlabbeq	r1, r9, r2, r8
     370:	13310111 	teqne	r1, #1073741828	; 0x40000004
     374:	00001301 	andeq	r1, r0, r1, lsl #6
     378:	3f012e1e 	svccc	0x00012e1e
     37c:	3a0e0319 	bcc	380fe8 <__bss_end__+0x375dc0>
     380:	390b3b0b 	stmdbcc	fp, {r0, r1, r3, r8, r9, fp, ip, sp}
     384:	1119270b 	tstne	r9, fp, lsl #14
     388:	40061201 	andmi	r1, r6, r1, lsl #4
     38c:	19429718 	stmdbne	r2, {r3, r4, r8, r9, sl, ip, pc}^
     390:	00001301 	andeq	r1, r0, r1, lsl #6
     394:	55010b1f 	strpl	r0, [r1, #-2847]	; 0xfffff4e1
     398:	00130117 	andseq	r0, r3, r7, lsl r1
     39c:	82892000 	addhi	r2, r9, #0, 0
     3a0:	01110001 	tsteq	r1, r1
     3a4:	00001331 	andeq	r1, r0, r1, lsr r3
     3a8:	03000521 	movweq	r0, #1313	; 0x521
     3ac:	3b0b3a08 	blcc	2cebd4 <__bss_end__+0x2c39ac>
     3b0:	490b390b 	stmdbmi	fp, {r0, r1, r3, r8, fp, ip, sp}
     3b4:	b7170213 			; <UNDEFINED> instruction: 0xb7170213
     3b8:	00001742 	andeq	r1, r0, r2, asr #14
     3bc:	31011d22 	tstcc	r1, r2, lsr #26
     3c0:	b8015213 	stmdalt	r1, {r0, r1, r4, r9, ip, lr}
     3c4:	01110b42 	tsteq	r1, r2, asr #22
     3c8:	0b580612 	bleq	1601c18 <__bss_end__+0x15f69f0>
     3cc:	0b570b59 	bleq	15c3138 <__bss_end__+0x15b7f10>
     3d0:	00001301 	andeq	r1, r0, r1, lsl #6
     3d4:	31000523 	tstcc	r0, r3, lsr #10
     3d8:	b7170213 			; <UNDEFINED> instruction: 0xb7170213
     3dc:	00001742 	andeq	r1, r0, r2, asr #14
     3e0:	3f002e24 	svccc	0x00002e24
     3e4:	3a0e0319 	bcc	381050 <__bss_end__+0x375e28>
     3e8:	390b3b0b 	stmdbcc	fp, {r0, r1, r3, r8, r9, fp, ip, sp}
     3ec:	4919270b 	ldmdbmi	r9, {r0, r1, r3, r8, r9, sl, sp}
     3f0:	12011113 	andne	r1, r1, #-1073741820	; 0xc0000004
     3f4:	97184006 	ldrls	r4, [r8, -r6]
     3f8:	00001942 	andeq	r1, r0, r2, asr #18
     3fc:	03012e25 	movweq	r2, #7717	; 0x1e25
     400:	3b0b3a0e 	blcc	2cec40 <__bss_end__+0x2c3a18>
     404:	270b390b 	strcs	r3, [fp, -fp, lsl #18]
     408:	20134919 	andscs	r4, r3, r9, lsl r9
     40c:	0013010b 	andseq	r0, r3, fp, lsl #2
     410:	00052600 	andeq	r2, r5, r0, lsl #12
     414:	0b3a0803 	bleq	e82428 <__bss_end__+0xe77200>
     418:	0b390b3b 	bleq	e4310c <__bss_end__+0xe37ee4>
     41c:	00001349 	andeq	r1, r0, r9, asr #6
     420:	3f002e27 	svccc	0x00002e27
     424:	6e193c19 	mrcvs	12, 0, r3, cr9, cr9, {0}
     428:	3a0e030e 	bcc	381068 <__bss_end__+0x375e40>
     42c:	390b3b0b 	stmdbcc	fp, {r0, r1, r3, r8, r9, fp, ip, sp}
     430:	0000000b 	andeq	r0, r0, fp
     434:	25011101 	strcs	r1, [r1, #-257]	; 0xfffffeff
     438:	030b130e 	movweq	r1, #45838	; 0xb30e
     43c:	110e1b0e 	tstne	lr, lr, lsl #22
     440:	10061201 	andne	r1, r6, r1, lsl #4
     444:	02000017 	andeq	r0, r0, #23, 0
     448:	0b0b0024 	bleq	2c04e0 <__bss_end__+0x2b52b8>
     44c:	08030b3e 	stmdaeq	r3, {r1, r2, r3, r4, r5, r8, r9, fp}
     450:	24030000 	strcs	r0, [r3], #-0
     454:	3e0b0b00 	vmlacc.f64	d0, d11, d0
     458:	000e030b 	andeq	r0, lr, fp, lsl #6
     45c:	01150400 	tsteq	r5, r0, lsl #8
     460:	13491927 	movtne	r1, #39207	; 0x9927
     464:	00001301 	andeq	r1, r0, r1, lsl #6
     468:	49000505 	stmdbmi	r0, {r0, r2, r8, sl}
     46c:	06000013 			; <UNDEFINED> instruction: 0x06000013
     470:	0e030034 	mcreq	0, 0, r0, cr3, cr4, {1}
     474:	0b3b0b3a 	bleq	ec3164 <__bss_end__+0xeb7f3c>
     478:	13490b39 	movtne	r0, #39737	; 0x9b39
     47c:	193c193f 	ldmdbne	ip!, {r0, r1, r2, r3, r4, r5, r8, fp, ip}
     480:	0f070000 	svceq	0x00070000
     484:	490b0b00 	stmdbmi	fp, {r8, r9, fp}
     488:	08000013 	stmdaeq	r0, {r0, r1, r4}
     48c:	13490026 	movtne	r0, #36902	; 0x9026
     490:	17090000 	strne	r0, [r9, -r0]
     494:	0b0e0301 	bleq	3810a0 <__bss_end__+0x375e78>
     498:	3b0b3a0b 	blcc	2ceccc <__bss_end__+0x2c3aa4>
     49c:	010b390b 	tsteq	fp, fp, lsl #18
     4a0:	0a000013 	beq	4f4 <__code_start__-0x7b0c>
     4a4:	0803000d 	stmdaeq	r3, {r0, r2, r3}
     4a8:	0b3b0b3a 	bleq	ec3198 <__bss_end__+0xeb7f70>
     4ac:	13490b39 	movtne	r0, #39737	; 0x9b39
     4b0:	0f0b0000 	svceq	0x000b0000
     4b4:	000b0b00 	andeq	r0, fp, r0, lsl #22
     4b8:	00150c00 	andseq	r0, r5, r0, lsl #24
     4bc:	00001927 	andeq	r1, r0, r7, lsr #18
     4c0:	0b01130d 	bleq	450fc <__bss_end__+0x39ed4>
     4c4:	3b0b3a0b 	blcc	2cecf8 <__bss_end__+0x2c3ad0>
     4c8:	010b390b 	tsteq	fp, fp, lsl #18
     4cc:	0e000013 	mcreq	0, 0, r0, cr0, cr3, {0}
     4d0:	0803000d 	stmdaeq	r3, {r0, r2, r3}
     4d4:	0b3b0b3a 	bleq	ec31c4 <__bss_end__+0xeb7f9c>
     4d8:	13490b39 	movtne	r0, #39737	; 0x9b39
     4dc:	00000b38 	andeq	r0, r0, r8, lsr fp
     4e0:	03000d0f 	movweq	r0, #3343	; 0xd0f
     4e4:	3b0b3a0e 	blcc	2ced24 <__bss_end__+0x2c3afc>
     4e8:	490b390b 	stmdbmi	fp, {r0, r1, r3, r8, fp, ip, sp}
     4ec:	000b3813 	andeq	r3, fp, r3, lsl r8
     4f0:	00161000 	andseq	r1, r6, r0
     4f4:	0b3a0e03 	bleq	e83d08 <__bss_end__+0xe78ae0>
     4f8:	0b390b3b 	bleq	e431ec <__bss_end__+0xe37fc4>
     4fc:	00001349 	andeq	r1, r0, r9, asr #6
     500:	03003411 	movweq	r3, #1041	; 0x411
     504:	3b0b3a0e 	blcc	2ced44 <__bss_end__+0x2c3b1c>
     508:	490b390b 	stmdbmi	fp, {r0, r1, r3, r8, fp, ip, sp}
     50c:	00180213 	andseq	r0, r8, r3, lsl r2
     510:	012e1200 			; <UNDEFINED> instruction: 0x012e1200
     514:	0e03193f 			; <UNDEFINED> instruction: 0x0e03193f
     518:	0b3b0b3a 	bleq	ec3208 <__bss_end__+0xeb7fe0>
     51c:	19270b39 	stmdbne	r7!, {r0, r3, r4, r5, r8, r9, fp}
     520:	06120111 			; <UNDEFINED> instruction: 0x06120111
     524:	42971840 	addsmi	r1, r7, #64, 16	; 0x400000
     528:	00130119 	andseq	r0, r3, r9, lsl r1
     52c:	00051300 	andeq	r1, r5, r0, lsl #6
     530:	0b3a0803 	bleq	e82544 <__bss_end__+0xe7731c>
     534:	0b390b3b 	bleq	e43228 <__bss_end__+0xe38000>
     538:	18021349 	stmdane	r2, {r0, r3, r6, r8, r9, ip}
     53c:	34140000 	ldrcc	r0, [r4], #-0
     540:	3a080300 	bcc	201148 <__bss_end__+0x1f5f20>
     544:	390b3b0b 	stmdbcc	fp, {r0, r1, r3, r8, r9, fp, ip, sp}
     548:	0213490b 	andseq	r4, r3, #180224	; 0x2c000
     54c:	1742b717 	smlaldne	fp, r2, r7, r7
     550:	2e150000 	cdpcs	0, 1, cr0, cr5, cr0, {0}
     554:	03193f01 	tsteq	r9, #1, 30
     558:	3b0b3a0e 	blcc	2ced98 <__bss_end__+0x2c3b70>
     55c:	270b390b 	strcs	r3, [fp, -fp, lsl #18]
     560:	11134919 	tstne	r3, r9, lsl r9
     564:	40061201 	andmi	r1, r6, r1, lsl #4
     568:	19429718 	stmdbne	r2, {r3, r4, r8, r9, sl, ip, pc}^
     56c:	00001301 	andeq	r1, r0, r1, lsl #6
     570:	03000516 	movweq	r0, #1302	; 0x516
     574:	3b0b3a0e 	blcc	2cedb4 <__bss_end__+0x2c3b8c>
     578:	490b390b 	stmdbmi	fp, {r0, r1, r3, r8, fp, ip, sp}
     57c:	b7170213 			; <UNDEFINED> instruction: 0xb7170213
     580:	00001742 	andeq	r1, r0, r2, asr #14
     584:	03003417 	movweq	r3, #1047	; 0x417
     588:	3b0b3a0e 	blcc	2cedc8 <__bss_end__+0x2c3ba0>
     58c:	490b390b 	stmdbmi	fp, {r0, r1, r3, r8, fp, ip, sp}
     590:	b7170213 			; <UNDEFINED> instruction: 0xb7170213
     594:	00001742 	andeq	r1, r0, r2, asr #14
     598:	01828918 	orreq	r8, r2, r8, lsl r9
     59c:	31011101 	tstcc	r1, r1, lsl #2
     5a0:	19000013 	stmdbne	r0, {r0, r1, r4}
     5a4:	0001828a 	andeq	r8, r1, sl, lsl #5
     5a8:	42911802 	addsmi	r1, r1, #131072	; 0x20000
     5ac:	1a000018 	bne	614 <__code_start__-0x79ec>
     5b0:	0e03012e 	adfeqsp	f0, f3, #0.5
     5b4:	0b3b0b3a 	bleq	ec32a4 <__bss_end__+0xeb807c>
     5b8:	19270b39 	stmdbne	r7!, {r0, r3, r4, r5, r8, r9, fp}
     5bc:	01111349 	tsteq	r1, r9, asr #6
     5c0:	18400612 	stmdane	r0, {r1, r4, r9, sl}^
     5c4:	01194297 			; <UNDEFINED> instruction: 0x01194297
     5c8:	1b000013 	blne	61c <__code_start__-0x79e4>
     5cc:	08030005 	stmdaeq	r3, {r0, r2}
     5d0:	0b3b0b3a 	bleq	ec32c0 <__bss_end__+0xeb8098>
     5d4:	13490b39 	movtne	r0, #39737	; 0x9b39
     5d8:	42b71702 	adcsmi	r1, r7, #524288	; 0x80000
     5dc:	1c000017 	stcne	0, cr0, [r0], {23}
     5e0:	01018289 	smlabbeq	r1, r9, r2, r8
     5e4:	13310111 	teqne	r1, #1073741828	; 0x40000004
     5e8:	00001301 	andeq	r1, r0, r1, lsl #6
     5ec:	0182891d 	orreq	r8, r2, sp, lsl r9
     5f0:	31011100 	mrscc	r1, (UNDEF: 17)
     5f4:	1e000013 	mcrne	0, 0, r0, cr0, cr3, {0}
     5f8:	193f002e 	ldmdbne	pc!, {r1, r2, r3, r5}	; <UNPREDICTABLE>
     5fc:	0e6e193c 			; <UNDEFINED> instruction: 0x0e6e193c
     600:	0b3a0e03 	bleq	e83e14 <__bss_end__+0xe78bec>
     604:	0b390b3b 	bleq	e432f8 <__bss_end__+0xe380d0>
     608:	01000000 	mrseq	r0, (UNDEF: 0)
     60c:	0e250111 	mcreq	1, 1, r0, cr5, cr1, {0}
     610:	0e030b13 	vmoveq.32	d3[0], r0
     614:	01110e1b 	tsteq	r1, fp, lsl lr
     618:	17100612 			; <UNDEFINED> instruction: 0x17100612
     61c:	24020000 	strcs	r0, [r2], #-0
     620:	3e0b0b00 	vmlacc.f64	d0, d11, d0
     624:	0008030b 	andeq	r0, r8, fp, lsl #6
     628:	00240300 	eoreq	r0, r4, r0, lsl #6
     62c:	0b3e0b0b 	bleq	f83260 <__bss_end__+0xf78038>
     630:	00000e03 	andeq	r0, r0, r3, lsl #28
     634:	03001604 	movweq	r1, #1540	; 0x604
     638:	3b0b3a0e 	blcc	2cee78 <__bss_end__+0x2c3c50>
     63c:	490b390b 	stmdbmi	fp, {r0, r1, r3, r8, fp, ip, sp}
     640:	05000013 	streq	r0, [r0, #-19]	; 0xffffffed
     644:	19270115 	stmdbne	r7!, {r0, r2, r4, r8}
     648:	13011349 	movwne	r1, #4937	; 0x1349
     64c:	05060000 	streq	r0, [r6, #-0]
     650:	00134900 	andseq	r4, r3, r0, lsl #18
     654:	00340700 	eorseq	r0, r4, r0, lsl #14
     658:	0b3a0e03 	bleq	e83e6c <__bss_end__+0xe78c44>
     65c:	0b390b3b 	bleq	e43350 <__bss_end__+0xe38128>
     660:	193f1349 	ldmdbne	pc!, {r0, r3, r6, r8, r9, ip}	; <UNPREDICTABLE>
     664:	0000193c 	andeq	r1, r0, ip, lsr r9
     668:	0b000f08 	bleq	4290 <__code_start__-0x3d70>
     66c:	0013490b 	andseq	r4, r3, fp, lsl #18
     670:	00260900 	eoreq	r0, r6, r0, lsl #18
     674:	00001349 	andeq	r1, r0, r9, asr #6
     678:	0b01130a 	bleq	452a8 <__bss_end__+0x3a080>
     67c:	3b0b3a0b 	blcc	2ceeb0 <__bss_end__+0x2c3c88>
     680:	010b390b 	tsteq	fp, fp, lsl #18
     684:	0b000013 	bleq	6d8 <__code_start__-0x7928>
     688:	0e03000d 	cdpeq	0, 0, cr0, cr3, cr13, {0}
     68c:	0b3b0b3a 	bleq	ec337c <__bss_end__+0xeb8154>
     690:	13490b39 	movtne	r0, #39737	; 0x9b39
     694:	00000b38 	andeq	r0, r0, r8, lsr fp
     698:	3e01040c 	cdpcc	4, 0, cr0, cr1, cr12, {0}
     69c:	490b0b0b 	stmdbmi	fp, {r0, r1, r3, r8, r9, fp}
     6a0:	3b0b3a13 	blcc	2ceef4 <__bss_end__+0x2c3ccc>
     6a4:	010b390b 	tsteq	fp, fp, lsl #18
     6a8:	0d000013 	stceq	0, cr0, [r0, #-76]	; 0xffffffb4
     6ac:	0e030028 	cdpeq	0, 0, cr0, cr3, cr8, {1}
     6b0:	00000b1c 	andeq	r0, r0, ip, lsl fp
     6b4:	0301130e 	movweq	r1, #4878	; 0x130e
     6b8:	3a0b0b0e 	bcc	2c32f8 <__bss_end__+0x2b80d0>
     6bc:	390b3b0b 	stmdbcc	fp, {r0, r1, r3, r8, r9, fp, ip, sp}
     6c0:	0013010b 	andseq	r0, r3, fp, lsl #2
     6c4:	000d0f00 	andeq	r0, sp, r0, lsl #30
     6c8:	0b3a0803 	bleq	e826dc <__bss_end__+0xe774b4>
     6cc:	0b390b3b 	bleq	e433c0 <__bss_end__+0xe38198>
     6d0:	0b381349 	bleq	e053fc <__bss_end__+0xdfa1d4>
     6d4:	01100000 	tsteq	r0, r0
     6d8:	01134901 	tsteq	r3, r1, lsl #18
     6dc:	11000013 	tstne	r0, r3, lsl r0
     6e0:	13490021 	movtne	r0, #36897	; 0x9021
     6e4:	00000b2f 	andeq	r0, r0, pc, lsr #22
     6e8:	0b000f12 	bleq	4338 <__code_start__-0x3cc8>
     6ec:	1300000b 	movwne	r0, #11
     6f0:	0e030034 	mcreq	0, 0, r0, cr3, cr4, {1}
     6f4:	0b3b0b3a 	bleq	ec33e4 <__bss_end__+0xeb81bc>
     6f8:	13490b39 	movtne	r0, #39737	; 0x9b39
     6fc:	00001802 	andeq	r1, r0, r2, lsl #16
     700:	3f012e14 	svccc	0x00012e14
     704:	3a0e0319 	bcc	381370 <__bss_end__+0x376148>
     708:	39053b0b 	stmdbcc	r5, {r0, r1, r3, r8, r9, fp, ip, sp}
     70c:	1119270b 	tstne	r9, fp, lsl #14
     710:	40061201 	andmi	r1, r6, r1, lsl #4
     714:	19429718 	stmdbne	r2, {r3, r4, r8, r9, sl, ip, pc}^
     718:	00001301 	andeq	r1, r0, r1, lsl #6
     71c:	03003415 	movweq	r3, #1045	; 0x415
     720:	3413490e 	ldrcc	r4, [r3], #-2318	; 0xfffff6f2
     724:	00180219 	andseq	r0, r8, r9, lsl r2
     728:	82891600 	addhi	r1, r9, #0, 12
     72c:	01110101 	tsteq	r1, r1, lsl #2
     730:	13011331 	movwne	r1, #4913	; 0x1331
     734:	8a170000 	bhi	5c073c <__bss_end__+0x5b5514>
     738:	02000182 	andeq	r0, r0, #-2147483616	; 0x80000020
     73c:	18429118 	stmdane	r2, {r3, r4, r8, ip, pc}^
     740:	89180000 	ldmdbhi	r8, {}	; <UNPREDICTABLE>
     744:	11000182 	smlabbne	r0, r2, r1, r0
     748:	00133101 	andseq	r3, r3, r1, lsl #2
     74c:	012e1900 			; <UNDEFINED> instruction: 0x012e1900
     750:	0e03193f 			; <UNDEFINED> instruction: 0x0e03193f
     754:	053b0b3a 	ldreq	r0, [fp, #-2874]!	; 0xfffff4c6
     758:	19270b39 	stmdbne	r7!, {r0, r3, r4, r5, r8, r9, fp}
     75c:	01111349 	tsteq	r1, r9, asr #6
     760:	18400612 	stmdane	r0, {r1, r4, r9, sl}^
     764:	01194297 			; <UNDEFINED> instruction: 0x01194297
     768:	1a000013 	bne	7bc <__code_start__-0x7844>
     76c:	0e030034 	mcreq	0, 0, r0, cr3, cr4, {1}
     770:	053b0b3a 	ldreq	r0, [fp, #-2874]!	; 0xfffff4c6
     774:	13490b39 	movtne	r0, #39737	; 0x9b39
     778:	42b71702 	adcsmi	r1, r7, #524288	; 0x80000
     77c:	1b000017 	blne	7e0 <__code_start__-0x7820>
     780:	0e03012e 	adfeqsp	f0, f3, #0.5
     784:	0b3b0b3a 	bleq	ec3474 <__bss_end__+0xeb824c>
     788:	19270b39 	stmdbne	r7!, {r0, r3, r4, r5, r8, r9, fp}
     78c:	01111349 	tsteq	r1, r9, asr #6
     790:	18400612 	stmdane	r0, {r1, r4, r9, sl}^
     794:	01194297 			; <UNDEFINED> instruction: 0x01194297
     798:	1c000013 	stcne	0, cr0, [r0], {19}
     79c:	0e030034 	mcreq	0, 0, r0, cr3, cr4, {1}
     7a0:	0b3b0b3a 	bleq	ec3490 <__bss_end__+0xeb8268>
     7a4:	13490b39 	movtne	r0, #39737	; 0x9b39
     7a8:	42b71702 	adcsmi	r1, r7, #524288	; 0x80000
     7ac:	1d000017 	stcne	0, cr0, [r0, #-92]	; 0xffffffa4
     7b0:	1755010b 	ldrbne	r0, [r5, -fp, lsl #2]
     7b4:	00001301 	andeq	r1, r0, r1, lsl #6
     7b8:	0300341e 	movweq	r3, #1054	; 0x41e
     7bc:	3b0b3a08 	blcc	2cefe4 <__bss_end__+0x2c3dbc>
     7c0:	490b390b 	stmdbmi	fp, {r0, r1, r3, r8, fp, ip, sp}
     7c4:	b7170213 			; <UNDEFINED> instruction: 0xb7170213
     7c8:	00001742 	andeq	r1, r0, r2, asr #14
     7cc:	31011d1f 	tstcc	r1, pc, lsl sp
     7d0:	b8015213 	stmdalt	r1, {r0, r1, r4, r9, ip, lr}
     7d4:	01110b42 	tsteq	r1, r2, asr #22
     7d8:	0b580612 	bleq	1602028 <__bss_end__+0x15f6e00>
     7dc:	0b570559 	bleq	15c1d48 <__bss_end__+0x15b6b20>
     7e0:	00001301 	andeq	r1, r0, r1, lsl #6
     7e4:	31000520 	tstcc	r0, r0, lsr #10
     7e8:	b7170213 			; <UNDEFINED> instruction: 0xb7170213
     7ec:	00001742 	andeq	r1, r0, r2, asr #14
     7f0:	01828921 	orreq	r8, r2, r1, lsr #18
     7f4:	31011101 	tstcc	r1, r1, lsl #2
     7f8:	22000013 	andcs	r0, r0, #19, 0
     7fc:	193f012e 	ldmdbne	pc!, {r1, r2, r3, r5, r8}	; <UNPREDICTABLE>
     800:	0b3a0e03 	bleq	e84014 <__bss_end__+0xe78dec>
     804:	0b390b3b 	bleq	e434f8 <__bss_end__+0xe382d0>
     808:	13491927 	movtne	r1, #39207	; 0x9927
     80c:	06120111 			; <UNDEFINED> instruction: 0x06120111
     810:	42971840 	addsmi	r1, r7, #64, 16	; 0x400000
     814:	00130119 	andseq	r0, r3, r9, lsl r1
     818:	012e2300 			; <UNDEFINED> instruction: 0x012e2300
     81c:	0e03193f 			; <UNDEFINED> instruction: 0x0e03193f
     820:	0b3b0b3a 	bleq	ec3510 <__bss_end__+0xeb82e8>
     824:	19270b39 	stmdbne	r7!, {r0, r3, r4, r5, r8, r9, fp}
     828:	06120111 			; <UNDEFINED> instruction: 0x06120111
     82c:	42971840 	addsmi	r1, r7, #64, 16	; 0x400000
     830:	00130119 	andseq	r0, r3, r9, lsl r1
     834:	00052400 	andeq	r2, r5, r0, lsl #8
     838:	0b3a0e03 	bleq	e8404c <__bss_end__+0xe78e24>
     83c:	0b390b3b 	bleq	e43530 <__bss_end__+0xe38308>
     840:	17021349 	strne	r1, [r2, -r9, asr #6]
     844:	001742b7 			; <UNDEFINED> instruction: 0x001742b7
     848:	012e2500 			; <UNDEFINED> instruction: 0x012e2500
     84c:	0b3a0e03 	bleq	e84060 <__bss_end__+0xe78e38>
     850:	0b390b3b 	bleq	e43544 <__bss_end__+0xe3831c>
     854:	01111927 	tsteq	r1, r7, lsr #18
     858:	18400612 	stmdane	r0, {r1, r4, r9, sl}^
     85c:	01194297 			; <UNDEFINED> instruction: 0x01194297
     860:	26000013 			; <UNDEFINED> instruction: 0x26000013
     864:	0e030034 	mcreq	0, 0, r0, cr3, cr4, {1}
     868:	0b3b0b3a 	bleq	ec3558 <__bss_end__+0xeb8330>
     86c:	13490b39 	movtne	r0, #39737	; 0x9b39
     870:	0000061c 	andeq	r0, r0, ip, lsl r6
     874:	11010b27 	tstne	r1, r7, lsr #22
     878:	01061201 	tsteq	r6, r1, lsl #4
     87c:	28000013 	stmdacs	r0, {r0, r1, r4}
     880:	08030005 	stmdaeq	r3, {r0, r2}
     884:	0b3b0b3a 	bleq	ec3574 <__bss_end__+0xeb834c>
     888:	13490b39 	movtne	r0, #39737	; 0x9b39
     88c:	42b71702 	adcsmi	r1, r7, #524288	; 0x80000
     890:	29000017 	stmdbcs	r0, {r0, r1, r2, r4}
     894:	1755010b 	ldrbne	r0, [r5, -fp, lsl #2]
     898:	2e2a0000 	cdpcs	0, 2, cr0, cr10, cr0, {0}
     89c:	3a0e0301 	bcc	3814a8 <__bss_end__+0x376280>
     8a0:	390b3b0b 	stmdbcc	fp, {r0, r1, r3, r8, r9, fp, ip, sp}
     8a4:	4919270b 	ldmdbmi	r9, {r0, r1, r3, r8, r9, sl, sp}
     8a8:	010b2013 	tsteq	fp, r3, lsl r0
     8ac:	2b000013 	blcs	900 <__code_start__-0x7700>
     8b0:	0e030005 	cdpeq	0, 0, cr0, cr3, cr5, {0}
     8b4:	0b3b0b3a 	bleq	ec35a4 <__bss_end__+0xeb837c>
     8b8:	13490b39 	movtne	r0, #39737	; 0x9b39
     8bc:	2e2c0000 	cdpcs	0, 2, cr0, cr12, cr0, {0}
     8c0:	3c193f00 	ldccc	15, cr3, [r9], {-0}
     8c4:	030e6e19 	movweq	r6, #60953	; 0xee19
     8c8:	3b0b3a0e 	blcc	2cf108 <__bss_end__+0x2c3ee0>
     8cc:	000b390b 	andeq	r3, fp, fp, lsl #18
     8d0:	00362d00 	eorseq	r2, r6, r0, lsl #26
     8d4:	00001802 	andeq	r1, r0, r2, lsl #16
     8d8:	01110100 	tsteq	r1, r0, lsl #2
     8dc:	0b130e25 	bleq	4c4178 <__bss_end__+0x4b8f50>
     8e0:	0e1b0e03 	cdpeq	14, 1, cr0, cr11, cr3, {0}
     8e4:	06120111 			; <UNDEFINED> instruction: 0x06120111
     8e8:	00001710 	andeq	r1, r0, r0, lsl r7
     8ec:	0b002402 	bleq	98fc <va_printk+0x554>
     8f0:	030b3e0b 	movweq	r3, #48651	; 0xbe0b
     8f4:	03000008 	movweq	r0, #8
     8f8:	0b0b0024 	bleq	2c0990 <__bss_end__+0x2b5768>
     8fc:	0e030b3e 	vmoveq.16	d3[0], r0
     900:	15040000 	strne	r0, [r4, #-0]
     904:	49192701 	ldmdbmi	r9, {r0, r8, r9, sl, sp}
     908:	00130113 	andseq	r0, r3, r3, lsl r1
     90c:	00050500 	andeq	r0, r5, r0, lsl #10
     910:	00001349 	andeq	r1, r0, r9, asr #6
     914:	03003406 	movweq	r3, #1030	; 0x406
     918:	3b0b3a0e 	blcc	2cf158 <__bss_end__+0x2c3f30>
     91c:	490b390b 	stmdbmi	fp, {r0, r1, r3, r8, fp, ip, sp}
     920:	3c193f13 	ldccc	15, cr3, [r9], {19}
     924:	07000019 	smladeq	r0, r9, r0, r0
     928:	0b0b000f 	bleq	2c096c <__bss_end__+0x2b5744>
     92c:	00001349 	andeq	r1, r0, r9, asr #6
     930:	49002608 	stmdbmi	r0, {r3, r9, sl, sp}
     934:	09000013 	stmdbeq	r0, {r0, r1, r4}
     938:	193f012e 	ldmdbne	pc!, {r1, r2, r3, r5, r8}	; <UNPREDICTABLE>
     93c:	0b3a0e03 	bleq	e84150 <__bss_end__+0xe78f28>
     940:	0b390b3b 	bleq	e43634 <__bss_end__+0xe3840c>
     944:	13491927 	movtne	r1, #39207	; 0x9927
     948:	13010b20 	movwne	r0, #6944	; 0x1b20
     94c:	050a0000 	streq	r0, [sl, #-0]
     950:	3a0e0300 	bcc	381558 <__bss_end__+0x376330>
     954:	390b3b0b 	stmdbcc	fp, {r0, r1, r3, r8, r9, fp, ip, sp}
     958:	0013490b 	andseq	r4, r3, fp, lsl #18
     95c:	00340b00 	eorseq	r0, r4, r0, lsl #22
     960:	0b3a0e03 	bleq	e84174 <__bss_end__+0xe78f4c>
     964:	0b390b3b 	bleq	e43658 <__bss_end__+0xe38430>
     968:	00001349 	andeq	r1, r0, r9, asr #6
     96c:	00010b0c 	andeq	r0, r1, ip, lsl #22
     970:	012e0d00 			; <UNDEFINED> instruction: 0x012e0d00
     974:	0e03193f 			; <UNDEFINED> instruction: 0x0e03193f
     978:	0b3b0b3a 	bleq	ec3668 <__bss_end__+0xeb8440>
     97c:	13490b39 	movtne	r0, #39737	; 0x9b39
     980:	06120111 			; <UNDEFINED> instruction: 0x06120111
     984:	42971840 	addsmi	r1, r7, #64, 16	; 0x400000
     988:	00130119 	andseq	r0, r3, r9, lsl r1
     98c:	00340e00 	eorseq	r0, r4, r0, lsl #28
     990:	0b3a0e03 	bleq	e841a4 <__bss_end__+0xe78f7c>
     994:	0b390b3b 	bleq	e43688 <__bss_end__+0xe38460>
     998:	17021349 	strne	r1, [r2, -r9, asr #6]
     99c:	001742b7 			; <UNDEFINED> instruction: 0x001742b7
     9a0:	010b0f00 	tsteq	fp, r0, lsl #30
     9a4:	06120111 			; <UNDEFINED> instruction: 0x06120111
     9a8:	34100000 	ldrcc	r0, [r0], #-0
     9ac:	3a080300 	bcc	2015b4 <__bss_end__+0x1f638c>
     9b0:	390b3b0b 	stmdbcc	fp, {r0, r1, r3, r8, r9, fp, ip, sp}
     9b4:	0213490b 	andseq	r4, r3, #180224	; 0x2c000
     9b8:	1742b717 	smlaldne	fp, r2, r7, r7
     9bc:	0b110000 	bleq	4409c4 <__bss_end__+0x43579c>
     9c0:	00175501 	andseq	r5, r7, r1, lsl #10
     9c4:	011d1200 	tsteq	sp, r0, lsl #4
     9c8:	01521331 	cmpeq	r2, r1, lsr r3
     9cc:	550b42b8 	strpl	r4, [fp, #-696]	; 0xfffffd48
     9d0:	590b5817 	stmdbpl	fp, {r0, r1, r2, r4, fp, ip, lr}
     9d4:	010b570b 	tsteq	fp, fp, lsl #14
     9d8:	13000013 	movwne	r0, #19
     9dc:	13310005 	teqne	r1, #5, 0
     9e0:	42b71702 	adcsmi	r1, r7, #524288	; 0x80000
     9e4:	14000017 	strne	r0, [r0], #-23	; 0xffffffe9
     9e8:	13310034 	teqne	r1, #52, 0	; 0x34
     9ec:	42b71702 	adcsmi	r1, r7, #524288	; 0x80000
     9f0:	15000017 	strne	r0, [r0, #-23]	; 0xffffffe9
     9f4:	1331010b 	teqne	r1, #-1073741822	; 0xc0000002
     9f8:	00001755 	andeq	r1, r0, r5, asr r7
     9fc:	01828916 	orreq	r8, r2, r6, lsl r9
     a00:	31011101 	tstcc	r1, r1, lsl #2
     a04:	17000013 	smladne	r0, r3, r0, r0
     a08:	0001828a 	andeq	r8, r1, sl, lsl #5
     a0c:	42911802 	addsmi	r1, r1, #131072	; 0x20000
     a10:	18000018 	stmdane	r0, {r3, r4}
     a14:	1331012e 	teqne	r1, #-2147483637	; 0x8000000b
     a18:	06120111 			; <UNDEFINED> instruction: 0x06120111
     a1c:	42971840 	addsmi	r1, r7, #64, 16	; 0x400000
     a20:	00130119 	andseq	r0, r3, r9, lsl r1
     a24:	010b1900 	tsteq	fp, r0, lsl #18
     a28:	01111331 	tsteq	r1, r1, lsr r3
     a2c:	00000612 	andeq	r0, r0, r2, lsl r6
     a30:	3f002e1a 	svccc	0x00002e1a
     a34:	6e193c19 	mrcvs	12, 0, r3, cr9, cr9, {0}
     a38:	3a0e030e 	bcc	381678 <__bss_end__+0x376450>
     a3c:	390b3b0b 	stmdbcc	fp, {r0, r1, r3, r8, r9, fp, ip, sp}
     a40:	0000000b 	andeq	r0, r0, fp
     a44:	25011101 	strcs	r1, [r1, #-257]	; 0xfffffeff
     a48:	030b130e 	movweq	r1, #45838	; 0xb30e
     a4c:	110e1b0e 	tstne	lr, lr, lsl #22
     a50:	10061201 	andne	r1, r6, r1, lsl #4
     a54:	02000017 	andeq	r0, r0, #23, 0
     a58:	0b0b0024 	bleq	2c0af0 <__bss_end__+0x2b58c8>
     a5c:	08030b3e 	stmdaeq	r3, {r1, r2, r3, r4, r5, r8, r9, fp}
     a60:	16030000 	strne	r0, [r3], -r0
     a64:	3a0e0300 	bcc	38166c <__bss_end__+0x376444>
     a68:	390b3b0b 	stmdbcc	fp, {r0, r1, r3, r8, r9, fp, ip, sp}
     a6c:	0013490b 	andseq	r4, r3, fp, lsl #18
     a70:	00240400 	eoreq	r0, r4, r0, lsl #8
     a74:	0b3e0b0b 	bleq	f836a8 <__bss_end__+0xf78480>
     a78:	00000e03 	andeq	r0, r0, r3, lsl #28
     a7c:	27011505 	strcs	r1, [r1, -r5, lsl #10]
     a80:	01134919 	tsteq	r3, r9, lsl r9
     a84:	06000013 			; <UNDEFINED> instruction: 0x06000013
     a88:	13490005 	movtne	r0, #36869	; 0x9005
     a8c:	34070000 	strcc	r0, [r7], #-0
     a90:	3a0e0300 	bcc	381698 <__bss_end__+0x376470>
     a94:	390b3b0b 	stmdbcc	fp, {r0, r1, r3, r8, r9, fp, ip, sp}
     a98:	3f13490b 	svccc	0x0013490b
     a9c:	00193c19 	andseq	r3, r9, r9, lsl ip
     aa0:	000f0800 	andeq	r0, pc, r0, lsl #16
     aa4:	13490b0b 	movtne	r0, #39691	; 0x9b0b
     aa8:	26090000 	strcs	r0, [r9], -r0
     aac:	00134900 	andseq	r4, r3, r0, lsl #18
     ab0:	012e0a00 			; <UNDEFINED> instruction: 0x012e0a00
     ab4:	0e03193f 			; <UNDEFINED> instruction: 0x0e03193f
     ab8:	0b3b0b3a 	bleq	ec37a8 <__bss_end__+0xeb8580>
     abc:	19270b39 	stmdbne	r7!, {r0, r3, r4, r5, r8, r9, fp}
     ac0:	01111349 	tsteq	r1, r9, asr #6
     ac4:	18400612 	stmdane	r0, {r1, r4, r9, sl}^
     ac8:	01194297 			; <UNDEFINED> instruction: 0x01194297
     acc:	0b000013 	bleq	b20 <__code_start__-0x74e0>
     ad0:	08030005 	stmdaeq	r3, {r0, r2}
     ad4:	0b3b0b3a 	bleq	ec37c4 <__bss_end__+0xeb859c>
     ad8:	13490b39 	movtne	r0, #39737	; 0x9b39
     adc:	00001802 	andeq	r1, r0, r2, lsl #16
     ae0:	0300050c 	movweq	r0, #1292	; 0x50c
     ae4:	3b0b3a08 	blcc	2cf30c <__bss_end__+0x2c40e4>
     ae8:	490b390b 	stmdbmi	fp, {r0, r1, r3, r8, fp, ip, sp}
     aec:	b7170213 			; <UNDEFINED> instruction: 0xb7170213
     af0:	00001742 	andeq	r1, r0, r2, asr #14
     af4:	0300340d 	movweq	r3, #1037	; 0x40d
     af8:	3b0b3a08 	blcc	2cf320 <__bss_end__+0x2c40f8>
     afc:	490b390b 	stmdbmi	fp, {r0, r1, r3, r8, fp, ip, sp}
     b00:	b7170213 			; <UNDEFINED> instruction: 0xb7170213
     b04:	00001742 	andeq	r1, r0, r2, asr #14
     b08:	0b000f0e 	bleq	4748 <__code_start__-0x38b8>
     b0c:	0000000b 	andeq	r0, r0, fp
     b10:	25011101 	strcs	r1, [r1, #-257]	; 0xfffffeff
     b14:	030b130e 	movweq	r1, #45838	; 0xb30e
     b18:	110e1b0e 	tstne	lr, lr, lsl #22
     b1c:	10061201 	andne	r1, r6, r1, lsl #4
     b20:	02000017 	andeq	r0, r0, #23, 0
     b24:	0e030016 	mcreq	0, 0, r0, cr3, cr6, {0}
     b28:	0b3b0b3a 	bleq	ec3818 <__bss_end__+0xeb85f0>
     b2c:	13490b39 	movtne	r0, #39737	; 0x9b39
     b30:	13030000 	movwne	r0, #12288	; 0x3000
     b34:	0b0e0301 	bleq	381740 <__bss_end__+0x376518>
     b38:	3b0b3a0b 	blcc	2cf36c <__bss_end__+0x2c4144>
     b3c:	0013010b 	andseq	r0, r3, fp, lsl #2
     b40:	000d0400 	andeq	r0, sp, r0, lsl #8
     b44:	13490e03 	movtne	r0, #40451	; 0x9e03
     b48:	19340b38 	ldmdbne	r4!, {r3, r4, r5, r8, r9, fp}
     b4c:	0f050000 	svceq	0x00050000
     b50:	000b0b00 	andeq	r0, fp, r0, lsl #22
     b54:	00240600 	eoreq	r0, r4, r0, lsl #12
     b58:	0b3e0b0b 	bleq	f8378c <__bss_end__+0xf78564>
     b5c:	00000803 	andeq	r0, r0, r3, lsl #16
     b60:	0b002407 	bleq	9b84 <rpi_reboot+0x2c>
     b64:	030b3e0b 	movweq	r3, #48651	; 0xbe0b
     b68:	0800000e 	stmdaeq	r0, {r1, r2, r3}
     b6c:	19270115 	stmdbne	r7!, {r0, r2, r4, r8}
     b70:	13011349 	movwne	r1, #4937	; 0x1349
     b74:	05090000 	streq	r0, [r9, #-0]
     b78:	00134900 	andseq	r4, r3, r0, lsl #18
     b7c:	00340a00 	eorseq	r0, r4, r0, lsl #20
     b80:	0b3a0e03 	bleq	e84394 <__bss_end__+0xe7916c>
     b84:	0b390b3b 	bleq	e43878 <__bss_end__+0xe38650>
     b88:	193f1349 	ldmdbne	pc!, {r0, r3, r6, r8, r9, ip}	; <UNPREDICTABLE>
     b8c:	0000193c 	andeq	r1, r0, ip, lsr r9
     b90:	0b000f0b 	bleq	47c4 <__code_start__-0x383c>
     b94:	0013490b 	andseq	r4, r3, fp, lsl #18
     b98:	00260c00 	eoreq	r0, r6, r0, lsl #24
     b9c:	00001349 	andeq	r1, r0, r9, asr #6
     ba0:	3f012e0d 	svccc	0x00012e0d
     ba4:	3a0e0319 	bcc	381810 <__bss_end__+0x3765e8>
     ba8:	390b3b0b 	stmdbcc	fp, {r0, r1, r3, r8, r9, fp, ip, sp}
     bac:	4919270b 	ldmdbmi	r9, {r0, r1, r3, r8, r9, sl, sp}
     bb0:	12011113 	andne	r1, r1, #-1073741820	; 0xc0000004
     bb4:	97184006 	ldrls	r4, [r8, -r6]
     bb8:	13011942 	movwne	r1, #6466	; 0x1942
     bbc:	050e0000 	streq	r0, [lr, #-0]
     bc0:	3a080300 	bcc	2017c8 <__bss_end__+0x1f65a0>
     bc4:	390b3b0b 	stmdbcc	fp, {r0, r1, r3, r8, r9, fp, ip, sp}
     bc8:	0213490b 	andseq	r4, r3, #180224	; 0x2c000
     bcc:	0f000018 	svceq	0x00000018
     bd0:	00000018 	andeq	r0, r0, r8, lsl r0
     bd4:	03003410 	movweq	r3, #1040	; 0x410
     bd8:	3b0b3a08 	blcc	2cf400 <__bss_end__+0x2c41d8>
     bdc:	490b390b 	stmdbmi	fp, {r0, r1, r3, r8, fp, ip, sp}
     be0:	00180213 	andseq	r0, r8, r3, lsl r2
     be4:	00341100 	eorseq	r1, r4, r0, lsl #2
     be8:	0b3a0e03 	bleq	e843fc <__bss_end__+0xe791d4>
     bec:	0b390b3b 	bleq	e438e0 <__bss_end__+0xe386b8>
     bf0:	18021349 	stmdane	r2, {r0, r3, r6, r8, r9, ip}
     bf4:	34120000 	ldrcc	r0, [r2], #-0
     bf8:	3a080300 	bcc	201800 <__bss_end__+0x1f65d8>
     bfc:	390b3b0b 	stmdbcc	fp, {r0, r1, r3, r8, r9, fp, ip, sp}
     c00:	0213490b 	andseq	r4, r3, #180224	; 0x2c000
     c04:	1742b717 	smlaldne	fp, r2, r7, r7
     c08:	89130000 	ldmdbhi	r3, {}	; <UNPREDICTABLE>
     c0c:	11010182 	smlabbne	r1, r2, r1, r0
     c10:	01133101 	tsteq	r3, r1, lsl #2
     c14:	14000013 	strne	r0, [r0], #-19	; 0xffffffed
     c18:	0001828a 	andeq	r8, r1, sl, lsl #5
     c1c:	42911802 	addsmi	r1, r1, #131072	; 0x20000
     c20:	15000018 	strne	r0, [r0, #-24]	; 0xffffffe8
     c24:	01018289 	smlabbeq	r1, r9, r2, r8
     c28:	00000111 	andeq	r0, r0, r1, lsl r1
     c2c:	49010116 	stmdbmi	r1, {r1, r2, r4, r8}
     c30:	00130113 	andseq	r0, r3, r3, lsl r1
     c34:	00211700 	eoreq	r1, r1, r0, lsl #14
     c38:	052f1349 	streq	r1, [pc, #-841]!	; 8f7 <__code_start__-0x7709>
     c3c:	2e180000 	cdpcs	0, 1, cr0, cr8, cr0, {0}
     c40:	3c193f00 	ldccc	15, cr3, [r9], {-0}
     c44:	030e6e19 	movweq	r6, #60953	; 0xee19
     c48:	3b0b3a0e 	blcc	2cf488 <__bss_end__+0x2c4260>
     c4c:	000b390b 	andeq	r3, fp, fp, lsl #18
     c50:	11010000 	mrsne	r0, (UNDEF: 1)
     c54:	130e2501 	movwne	r2, #58625	; 0xe501
     c58:	1b0e030b 	blne	38188c <__bss_end__+0x376664>
     c5c:	1201110e 	andne	r1, r1, #-2147483645	; 0x80000003
     c60:	00171006 	andseq	r1, r7, r6
     c64:	00240200 	eoreq	r0, r4, r0, lsl #4
     c68:	0b3e0b0b 	bleq	f8389c <__bss_end__+0xf78674>
     c6c:	00000803 	andeq	r0, r0, r3, lsl #16
     c70:	0b002403 	bleq	9c84 <delay_sec+0x4>
     c74:	030b3e0b 	movweq	r3, #48651	; 0xbe0b
     c78:	0400000e 	streq	r0, [r0], #-14
     c7c:	19270115 	stmdbne	r7!, {r0, r2, r4, r8}
     c80:	13011349 	movwne	r1, #4937	; 0x1349
     c84:	05050000 	streq	r0, [r5, #-0]
     c88:	00134900 	andseq	r4, r3, r0, lsl #18
     c8c:	00340600 	eorseq	r0, r4, r0, lsl #12
     c90:	0b3a0e03 	bleq	e844a4 <__bss_end__+0xe7927c>
     c94:	0b390b3b 	bleq	e43988 <__bss_end__+0xe38760>
     c98:	193f1349 	ldmdbne	pc!, {r0, r3, r6, r8, r9, ip}	; <UNPREDICTABLE>
     c9c:	0000193c 	andeq	r1, r0, ip, lsr r9
     ca0:	0b000f07 	bleq	48c4 <__code_start__-0x373c>
     ca4:	0013490b 	andseq	r4, r3, fp, lsl #18
     ca8:	00260800 	eoreq	r0, r6, r0, lsl #16
     cac:	00001349 	andeq	r1, r0, r9, asr #6
     cb0:	47003409 	strmi	r3, [r0, -r9, lsl #8]
     cb4:	3b0b3a13 	blcc	2cf508 <__bss_end__+0x2c42e0>
     cb8:	020b390b 	andeq	r3, fp, #180224	; 0x2c000
     cbc:	0a000018 	beq	d24 <__code_start__-0x72dc>
     cc0:	193f012e 	ldmdbne	pc!, {r1, r2, r3, r5, r8}	; <UNPREDICTABLE>
     cc4:	0b3a0e03 	bleq	e844d8 <__bss_end__+0xe792b0>
     cc8:	0b390b3b 	bleq	e439bc <__bss_end__+0xe38794>
     ccc:	13491927 	movtne	r1, #39207	; 0x9927
     cd0:	06120111 			; <UNDEFINED> instruction: 0x06120111
     cd4:	42961840 	addsmi	r1, r6, #64, 16	; 0x400000
     cd8:	0b000019 	bleq	d44 <__code_start__-0x72bc>
     cdc:	08030005 	stmdaeq	r3, {r0, r2}
     ce0:	0b3b0b3a 	bleq	ec39d0 <__bss_end__+0xeb87a8>
     ce4:	13490b39 	movtne	r0, #39737	; 0x9b39
     ce8:	42b71702 	adcsmi	r1, r7, #524288	; 0x80000
     cec:	00000017 	andeq	r0, r0, r7, lsl r0
     cf0:	25011101 	strcs	r1, [r1, #-257]	; 0xfffffeff
     cf4:	030b130e 	movweq	r1, #45838	; 0xb30e
     cf8:	110e1b0e 	tstne	lr, lr, lsl #22
     cfc:	10061201 	andne	r1, r6, r1, lsl #4
     d00:	02000017 	andeq	r0, r0, #23, 0
     d04:	0b0b0024 	bleq	2c0d9c <__bss_end__+0x2b5b74>
     d08:	0e030b3e 	vmoveq.16	d3[0], r0
     d0c:	24030000 	strcs	r0, [r3], #-0
     d10:	3e0b0b00 	vmlacc.f64	d0, d11, d0
     d14:	0008030b 	andeq	r0, r8, fp, lsl #6
     d18:	00160400 	andseq	r0, r6, r0, lsl #8
     d1c:	0b3a0e03 	bleq	e84530 <__bss_end__+0xe79308>
     d20:	0b390b3b 	bleq	e43a14 <__bss_end__+0xe387ec>
     d24:	00001349 	andeq	r1, r0, r9, asr #6
     d28:	27011505 	strcs	r1, [r1, -r5, lsl #10]
     d2c:	01134919 	tsteq	r3, r9, lsl r9
     d30:	06000013 			; <UNDEFINED> instruction: 0x06000013
     d34:	13490005 	movtne	r0, #36869	; 0x9005
     d38:	34070000 	strcc	r0, [r7], #-0
     d3c:	3a0e0300 	bcc	381944 <__bss_end__+0x37671c>
     d40:	390b3b0b 	stmdbcc	fp, {r0, r1, r3, r8, r9, fp, ip, sp}
     d44:	3f13490b 	svccc	0x0013490b
     d48:	00193c19 	andseq	r3, r9, r9, lsl ip
     d4c:	000f0800 	andeq	r0, pc, r0, lsl #16
     d50:	13490b0b 	movtne	r0, #39691	; 0x9b0b
     d54:	26090000 	strcs	r0, [r9], -r0
     d58:	00134900 	andseq	r4, r3, r0, lsl #18
     d5c:	01130a00 	tsteq	r3, r0, lsl #20
     d60:	0b0b0e03 	bleq	2c4574 <__bss_end__+0x2b934c>
     d64:	0b3b0b3a 	bleq	ec3a54 <__bss_end__+0xeb882c>
     d68:	00001301 	andeq	r1, r0, r1, lsl #6
     d6c:	03000d0b 	movweq	r0, #3339	; 0xd0b
     d70:	3813490e 	ldmdacc	r3, {r1, r2, r3, r8, fp, lr}
     d74:	0019340b 	andseq	r3, r9, fp, lsl #8
     d78:	000f0c00 	andeq	r0, pc, r0, lsl #24
     d7c:	00000b0b 	andeq	r0, r0, fp, lsl #22
     d80:	3f012e0d 	svccc	0x00012e0d
     d84:	3a0e0319 	bcc	3819f0 <__bss_end__+0x3767c8>
     d88:	390b3b0b 	stmdbcc	fp, {r0, r1, r3, r8, r9, fp, ip, sp}
     d8c:	4919270b 	ldmdbmi	r9, {r0, r1, r3, r8, r9, sl, sp}
     d90:	12011113 	andne	r1, r1, #-1073741820	; 0xc0000004
     d94:	97184006 	ldrls	r4, [r8, -r6]
     d98:	13011942 	movwne	r1, #6466	; 0x1942
     d9c:	050e0000 	streq	r0, [lr, #-0]
     da0:	3a080300 	bcc	2019a8 <__bss_end__+0x1f6780>
     da4:	390b3b0b 	stmdbcc	fp, {r0, r1, r3, r8, r9, fp, ip, sp}
     da8:	0213490b 	andseq	r4, r3, #180224	; 0x2c000
     dac:	1742b717 	smlaldne	fp, r2, r7, r7
     db0:	050f0000 	streq	r0, [pc, #-0]	; db8 <__code_start__-0x7248>
     db4:	3a0e0300 	bcc	3819bc <__bss_end__+0x376794>
     db8:	390b3b0b 	stmdbcc	fp, {r0, r1, r3, r8, r9, fp, ip, sp}
     dbc:	0213490b 	andseq	r4, r3, #180224	; 0x2c000
     dc0:	1742b717 	smlaldne	fp, r2, r7, r7
     dc4:	34100000 	ldrcc	r0, [r0], #-0
     dc8:	3a080300 	bcc	2019d0 <__bss_end__+0x1f67a8>
     dcc:	390b3b0b 	stmdbcc	fp, {r0, r1, r3, r8, r9, fp, ip, sp}
     dd0:	0213490b 	andseq	r4, r3, #180224	; 0x2c000
     dd4:	1742b717 	smlaldne	fp, r2, r7, r7
     dd8:	34110000 	ldrcc	r0, [r1], #-0
     ddc:	3a0e0300 	bcc	3819e4 <__bss_end__+0x3767bc>
     de0:	390b3b0b 	stmdbcc	fp, {r0, r1, r3, r8, r9, fp, ip, sp}
     de4:	0213490b 	andseq	r4, r3, #180224	; 0x2c000
     de8:	1742b717 	smlaldne	fp, r2, r7, r7
     dec:	34120000 	ldrcc	r0, [r2], #-0
     df0:	490e0300 	stmdbmi	lr, {r8, r9}
     df4:	02193413 	andseq	r3, r9, #318767104	; 0x13000000
     df8:	13000018 	movwne	r0, #24
     dfc:	1755010b 	ldrbne	r0, [r5, -fp, lsl #2]
     e00:	34140000 	ldrcc	r0, [r4], #-0
     e04:	3a080300 	bcc	201a0c <__bss_end__+0x1f67e4>
     e08:	390b3b0b 	stmdbcc	fp, {r0, r1, r3, r8, r9, fp, ip, sp}
     e0c:	0213490b 	andseq	r4, r3, #180224	; 0x2c000
     e10:	15000018 	strne	r0, [r0, #-24]	; 0xffffffe8
     e14:	0e030034 	mcreq	0, 0, r0, cr3, cr4, {1}
     e18:	0b3b0b3a 	bleq	ec3b08 <__bss_end__+0xeb88e0>
     e1c:	13490b39 	movtne	r0, #39737	; 0x9b39
     e20:	00001802 	andeq	r1, r0, r2, lsl #16
     e24:	55010b16 	strpl	r0, [r1, #-2838]	; 0xfffff4ea
     e28:	00130117 	andseq	r0, r3, r7, lsl r1
     e2c:	82891700 	addhi	r1, r9, #0, 14
     e30:	01110101 	tsteq	r1, r1, lsl #2
     e34:	13011331 	movwne	r1, #4913	; 0x1331
     e38:	8a180000 	bhi	600e40 <__bss_end__+0x5f5c18>
     e3c:	02000182 	andeq	r0, r0, #-2147483616	; 0x80000020
     e40:	18429118 	stmdane	r2, {r3, r4, r8, ip, pc}^
     e44:	89190000 	ldmdbhi	r9, {}	; <UNPREDICTABLE>
     e48:	11000182 	smlabbne	r0, r2, r1, r0
     e4c:	00133101 	andseq	r3, r3, r1, lsl #2
     e50:	011d1a00 	tsteq	sp, r0, lsl #20
     e54:	01521331 	cmpeq	r2, r1, lsr r3
     e58:	550542b8 	strpl	r4, [r5, #-696]	; 0xfffffd48
     e5c:	590b5817 	stmdbpl	fp, {r0, r1, r2, r4, fp, ip, lr}
     e60:	010b570b 	tsteq	fp, fp, lsl #14
     e64:	1b000013 	blne	eb8 <__code_start__-0x7148>
     e68:	13310005 	teqne	r1, #5, 0
     e6c:	42b71702 	adcsmi	r1, r7, #524288	; 0x80000
     e70:	1c000017 	stcne	0, cr0, [r0], {23}
     e74:	13310005 	teqne	r1, #5, 0
     e78:	341d0000 	ldrcc	r0, [sp], #-0
     e7c:	02133100 	andseq	r3, r3, #0
     e80:	1e000018 	mcrne	0, 0, r0, cr0, cr8, {0}
     e84:	13310034 	teqne	r1, #52, 0	; 0x34
     e88:	42b71702 	adcsmi	r1, r7, #524288	; 0x80000
     e8c:	1f000017 	svcne	0x00000017
     e90:	13310034 	teqne	r1, #52, 0	; 0x34
     e94:	1d200000 	stcne	0, cr0, [r0, #-0]
     e98:	52133101 	andspl	r3, r3, #1073741824	; 0x40000000
     e9c:	0542b801 	strbeq	fp, [r2, #-2049]	; 0xfffff7ff
     ea0:	0b581755 	bleq	1606bfc <__bss_end__+0x15fb9d4>
     ea4:	0b570b59 	bleq	15c3c10 <__bss_end__+0x15b89e8>
     ea8:	89210000 	stmdbhi	r1!, {}	; <UNPREDICTABLE>
     eac:	11010182 	smlabbne	r1, r2, r1, r0
     eb0:	00130101 	andseq	r0, r3, r1, lsl #2
     eb4:	01012200 	mrseq	r2, R9_usr
     eb8:	13011349 	movwne	r1, #4937	; 0x1349
     ebc:	21230000 			; <UNDEFINED> instruction: 0x21230000
     ec0:	2f134900 	svccs	0x00134900
     ec4:	2400000b 	strcs	r0, [r0], #-11
     ec8:	0e03012e 	adfeqsp	f0, f3, #0.5
     ecc:	0b3b0b3a 	bleq	ec3bbc <__bss_end__+0xeb8994>
     ed0:	19270b39 	stmdbne	r7!, {r0, r3, r4, r5, r8, r9, fp}
     ed4:	0b201349 	bleq	805c00 <__bss_end__+0x7fa9d8>
     ed8:	00001301 	andeq	r1, r0, r1, lsl #6
     edc:	03000525 	movweq	r0, #1317	; 0x525
     ee0:	3b0b3a0e 	blcc	2cf720 <__bss_end__+0x2c44f8>
     ee4:	490b390b 	stmdbmi	fp, {r0, r1, r3, r8, fp, ip, sp}
     ee8:	26000013 			; <UNDEFINED> instruction: 0x26000013
     eec:	08030005 	stmdaeq	r3, {r0, r2}
     ef0:	0b3b0b3a 	bleq	ec3be0 <__bss_end__+0xeb89b8>
     ef4:	13490b39 	movtne	r0, #39737	; 0x9b39
     ef8:	34270000 	strtcc	r0, [r7], #-0
     efc:	3a080300 	bcc	201b04 <__bss_end__+0x1f68dc>
     f00:	390b3b0b 	stmdbcc	fp, {r0, r1, r3, r8, r9, fp, ip, sp}
     f04:	0013490b 	andseq	r4, r3, fp, lsl #18
     f08:	010b2800 	tsteq	fp, r0, lsl #16
     f0c:	34290000 	strtcc	r0, [r9], #-0
     f10:	3a0e0300 	bcc	381b18 <__bss_end__+0x3768f0>
     f14:	390b3b0b 	stmdbcc	fp, {r0, r1, r3, r8, r9, fp, ip, sp}
     f18:	0013490b 	andseq	r4, r3, fp, lsl #18
     f1c:	012e2a00 			; <UNDEFINED> instruction: 0x012e2a00
     f20:	0b3a0803 	bleq	e82f34 <__bss_end__+0xe77d0c>
     f24:	0b390b3b 	bleq	e43c18 <__bss_end__+0xe389f0>
     f28:	13491927 	movtne	r1, #39207	; 0x9927
     f2c:	13010b20 	movwne	r0, #6944	; 0x1b20
     f30:	2e2b0000 	cdpcs	0, 2, cr0, cr11, cr0, {0}
     f34:	03193f01 	tsteq	r9, #1, 30
     f38:	3b0b3a0e 	blcc	2cf778 <__bss_end__+0x2c4550>
     f3c:	270b390b 	strcs	r3, [fp, -fp, lsl #18]
     f40:	12011119 	andne	r1, r1, #1073741830	; 0x40000006
     f44:	97184006 	ldrls	r4, [r8, -r6]
     f48:	13011942 	movwne	r1, #6466	; 0x1942
     f4c:	2e2c0000 	cdpcs	0, 2, cr0, cr12, cr0, {0}
     f50:	11133101 	tstne	r3, r1, lsl #2
     f54:	40061201 	andmi	r1, r6, r1, lsl #4
     f58:	19429718 	stmdbne	r2, {r3, r4, r8, r9, sl, ip, pc}^
     f5c:	00001301 	andeq	r1, r0, r1, lsl #6
     f60:	3100052d 	tstcc	r0, sp, lsr #10
     f64:	00180213 	andseq	r0, r8, r3, lsl r2
     f68:	00052e00 	andeq	r2, r5, r0, lsl #28
     f6c:	0b1c1331 	bleq	705c38 <__bss_end__+0x6faa10>
     f70:	0b2f0000 	bleq	bc0f78 <__bss_end__+0xbb5d50>
     f74:	11133101 	tstne	r3, r1, lsl #2
     f78:	01061201 	tsteq	r6, r1, lsl #4
     f7c:	30000013 	andcc	r0, r0, r3, lsl r0
     f80:	193f002e 	ldmdbne	pc!, {r1, r2, r3, r5}	; <UNPREDICTABLE>
     f84:	0e6e193c 			; <UNDEFINED> instruction: 0x0e6e193c
     f88:	0b3a0e03 	bleq	e8479c <__bss_end__+0xe79574>
     f8c:	0b390b3b 	bleq	e43c80 <__bss_end__+0xe38a58>
     f90:	01000000 	mrseq	r0, (UNDEF: 0)
     f94:	0e250111 	mcreq	1, 1, r0, cr5, cr1, {0}
     f98:	0e030b13 	vmoveq.32	d3[0], r0
     f9c:	01110e1b 	tsteq	r1, fp, lsl lr
     fa0:	17100612 			; <UNDEFINED> instruction: 0x17100612
     fa4:	24020000 	strcs	r0, [r2], #-0
     fa8:	3e0b0b00 	vmlacc.f64	d0, d11, d0
     fac:	0008030b 	andeq	r0, r8, fp, lsl #6
     fb0:	00240300 	eoreq	r0, r4, r0, lsl #6
     fb4:	0b3e0b0b 	bleq	f83be8 <__bss_end__+0xf789c0>
     fb8:	00000e03 	andeq	r0, r0, r3, lsl #28
     fbc:	27011504 	strcs	r1, [r1, -r4, lsl #10]
     fc0:	01134919 	tsteq	r3, r9, lsl r9
     fc4:	05000013 	streq	r0, [r0, #-19]	; 0xffffffed
     fc8:	13490005 	movtne	r0, #36869	; 0x9005
     fcc:	34060000 	strcc	r0, [r6], #-0
     fd0:	3a0e0300 	bcc	381bd8 <__bss_end__+0x3769b0>
     fd4:	390b3b0b 	stmdbcc	fp, {r0, r1, r3, r8, r9, fp, ip, sp}
     fd8:	3f13490b 	svccc	0x0013490b
     fdc:	00193c19 	andseq	r3, r9, r9, lsl ip
     fe0:	000f0700 	andeq	r0, pc, r0, lsl #14
     fe4:	13490b0b 	movtne	r0, #39691	; 0x9b0b
     fe8:	26080000 	strcs	r0, [r8], -r0
     fec:	00134900 	andseq	r4, r3, r0, lsl #18
     ff0:	012e0900 			; <UNDEFINED> instruction: 0x012e0900
     ff4:	0e03193f 			; <UNDEFINED> instruction: 0x0e03193f
     ff8:	0b3b0b3a 	bleq	ec3ce8 <__bss_end__+0xeb8ac0>
     ffc:	19270b39 	stmdbne	r7!, {r0, r3, r4, r5, r8, r9, fp}
    1000:	11190187 	tstne	r9, r7, lsl #3
    1004:	40061201 	andmi	r1, r6, r1, lsl #4
    1008:	19429718 	stmdbne	r2, {r3, r4, r8, r9, sl, ip, pc}^
    100c:	00001301 	andeq	r1, r0, r1, lsl #6
    1010:	0182890a 	orreq	r8, r2, sl, lsl #18
    1014:	01011101 	tsteq	r1, r1, lsl #2
    1018:	0b000013 	bleq	106c <__code_start__-0x6f94>
    101c:	0001828a 	andeq	r8, r1, sl, lsl #5
    1020:	42911802 	addsmi	r1, r1, #131072	; 0x20000
    1024:	0c000018 	stceq	0, cr0, [r0], {24}
    1028:	00018289 	andeq	r8, r1, r9, lsl #5
    102c:	13310111 	teqne	r1, #1073741828	; 0x40000004
    1030:	890d0000 	stmdbhi	sp, {}	; <UNPREDICTABLE>
    1034:	11010182 	smlabbne	r1, r2, r1, r0
    1038:	01133101 	tsteq	r3, r1, lsl #2
    103c:	0e000013 	mcreq	0, 0, r0, cr0, cr3, {0}
    1040:	193f002e 	ldmdbne	pc!, {r1, r2, r3, r5}	; <UNPREDICTABLE>
    1044:	0e6e193c 			; <UNDEFINED> instruction: 0x0e6e193c
    1048:	0b3a0e03 	bleq	e8485c <__bss_end__+0xe79634>
    104c:	0b390b3b 	bleq	e43d40 <__bss_end__+0xe38b18>
    1050:	01000000 	mrseq	r0, (UNDEF: 0)
    1054:	0e250111 	mcreq	1, 1, r0, cr5, cr1, {0}
    1058:	0e030b13 	vmoveq.32	d3[0], r0
    105c:	01110e1b 	tsteq	r1, fp, lsl lr
    1060:	17100612 			; <UNDEFINED> instruction: 0x17100612
    1064:	24020000 	strcs	r0, [r2], #-0
    1068:	3e0b0b00 	vmlacc.f64	d0, d11, d0
    106c:	0008030b 	andeq	r0, r8, fp, lsl #6
    1070:	00240300 	eoreq	r0, r4, r0, lsl #6
    1074:	0b3e0b0b 	bleq	f83ca8 <__bss_end__+0xf78a80>
    1078:	00000e03 	andeq	r0, r0, r3, lsl #28
    107c:	27011504 	strcs	r1, [r1, -r4, lsl #10]
    1080:	01134919 	tsteq	r3, r9, lsl r9
    1084:	05000013 	streq	r0, [r0, #-19]	; 0xffffffed
    1088:	13490005 	movtne	r0, #36869	; 0x9005
    108c:	34060000 	strcc	r0, [r6], #-0
    1090:	3a0e0300 	bcc	381c98 <__bss_end__+0x376a70>
    1094:	390b3b0b 	stmdbcc	fp, {r0, r1, r3, r8, r9, fp, ip, sp}
    1098:	3f13490b 	svccc	0x0013490b
    109c:	00193c19 	andseq	r3, r9, r9, lsl ip
    10a0:	000f0700 	andeq	r0, pc, r0, lsl #14
    10a4:	13490b0b 	movtne	r0, #39691	; 0x9b0b
    10a8:	26080000 	strcs	r0, [r8], -r0
    10ac:	00134900 	andseq	r4, r3, r0, lsl #18
    10b0:	012e0900 			; <UNDEFINED> instruction: 0x012e0900
    10b4:	0e03193f 			; <UNDEFINED> instruction: 0x0e03193f
    10b8:	0b3b0b3a 	bleq	ec3da8 <__bss_end__+0xeb8b80>
    10bc:	01110b39 	tsteq	r1, r9, lsr fp
    10c0:	18400612 	stmdane	r0, {r1, r4, r9, sl}^
    10c4:	01194297 			; <UNDEFINED> instruction: 0x01194297
    10c8:	0a000013 	beq	111c <__code_start__-0x6ee4>
    10cc:	193f002e 	ldmdbne	pc!, {r1, r2, r3, r5}	; <UNPREDICTABLE>
    10d0:	0b3a0e03 	bleq	e848e4 <__bss_end__+0xe796bc>
    10d4:	0b390b3b 	bleq	e43dc8 <__bss_end__+0xe38ba0>
    10d8:	193c1927 	ldmdbne	ip!, {r0, r1, r2, r5, r8, fp, ip}
    10dc:	340b0000 	strcc	r0, [fp], #-0
    10e0:	3a080300 	bcc	201ce8 <__bss_end__+0x1f6ac0>
    10e4:	390b3b0b 	stmdbcc	fp, {r0, r1, r3, r8, r9, fp, ip, sp}
    10e8:	0213490b 	andseq	r4, r3, #180224	; 0x2c000
    10ec:	1742b717 	smlaldne	fp, r2, r7, r7
    10f0:	340c0000 	strcc	r0, [ip], #-0
    10f4:	3a0e0300 	bcc	381cfc <__bss_end__+0x376ad4>
    10f8:	390b3b0b 	stmdbcc	fp, {r0, r1, r3, r8, r9, fp, ip, sp}
    10fc:	0013490b 	andseq	r4, r3, fp, lsl #18
    1100:	00340d00 	eorseq	r0, r4, r0, lsl #26
    1104:	0b3a0e03 	bleq	e84918 <__bss_end__+0xe796f0>
    1108:	0b390b3b 	bleq	e43dfc <__bss_end__+0xe38bd4>
    110c:	17021349 	strne	r1, [r2, -r9, asr #6]
    1110:	001742b7 			; <UNDEFINED> instruction: 0x001742b7
    1114:	010b0e00 	tsteq	fp, r0, lsl #28
    1118:	06120111 			; <UNDEFINED> instruction: 0x06120111
    111c:	00001301 	andeq	r1, r0, r1, lsl #6
    1120:	31011d0f 	tstcc	r1, pc, lsl #26
    1124:	b8015213 	stmdalt	r1, {r0, r1, r4, r9, ip, lr}
    1128:	01110b42 	tsteq	r1, r2, asr #22
    112c:	0b580612 	bleq	160297c <__bss_end__+0x15f7754>
    1130:	0b570b59 	bleq	15c3e9c <__bss_end__+0x15b8c74>
    1134:	00001301 	andeq	r1, r0, r1, lsl #6
    1138:	31003410 	tstcc	r0, r0, lsl r4
    113c:	b7170213 			; <UNDEFINED> instruction: 0xb7170213
    1140:	00001742 	andeq	r1, r0, r2, asr #14
    1144:	31010b11 	tstcc	r1, r1, lsl fp
    1148:	12011113 	andne	r1, r1, #-1073741820	; 0xc0000004
    114c:	12000006 	andne	r0, r0, #6, 0
    1150:	1331011d 	teqne	r1, #1073741831	; 0x40000007
    1154:	42b80152 	adcsmi	r0, r8, #-2147483628	; 0x80000014
    1158:	5817550b 	ldmdapl	r7, {r0, r1, r3, r8, sl, ip, lr}
    115c:	570b590b 	strpl	r5, [fp, -fp, lsl #18]
    1160:	0013010b 	andseq	r0, r3, fp, lsl #2
    1164:	010b1300 	mrseq	r1, (UNDEF: 59)
    1168:	00001755 	andeq	r1, r0, r5, asr r7
    116c:	01828914 	orreq	r8, r2, r4, lsl r9
    1170:	31011100 	mrscc	r1, (UNDEF: 17)
    1174:	15000013 	strne	r0, [r0, #-19]	; 0xffffffed
    1178:	01018289 	smlabbeq	r1, r9, r2, r8
    117c:	13310111 	teqne	r1, #1073741828	; 0x40000004
    1180:	00001301 	andeq	r1, r0, r1, lsl #6
    1184:	01828a16 	orreq	r8, r2, r6, lsl sl
    1188:	91180200 	tstls	r8, r0, lsl #4
    118c:	00001842 	andeq	r1, r0, r2, asr #16
    1190:	03012e17 	movweq	r2, #7703	; 0x1e17
    1194:	3b0b3a0e 	blcc	2cf9d4 <__bss_end__+0x2c47ac>
    1198:	270b390b 	strcs	r3, [fp, -fp, lsl #18]
    119c:	20134919 	andscs	r4, r3, r9, lsl r9
    11a0:	0013010b 	andseq	r0, r3, fp, lsl #2
    11a4:	00341800 	eorseq	r1, r4, r0, lsl #16
    11a8:	0b3a0e03 	bleq	e849bc <__bss_end__+0xe79794>
    11ac:	0b390b3b 	bleq	e43ea0 <__bss_end__+0xe38c78>
    11b0:	18021349 	stmdane	r2, {r0, r3, r6, r8, r9, ip}
    11b4:	34190000 	ldrcc	r0, [r9], #-0
    11b8:	3a080300 	bcc	201dc0 <__bss_end__+0x1f6b98>
    11bc:	390b3b0b 	stmdbcc	fp, {r0, r1, r3, r8, r9, fp, ip, sp}
    11c0:	0013490b 	andseq	r4, r3, fp, lsl #18
    11c4:	010b1a00 	tsteq	fp, r0, lsl #20
    11c8:	2e1b0000 	cdpcs	0, 1, cr0, cr11, cr0, {0}
    11cc:	3c193f00 	ldccc	15, cr3, [r9], {-0}
    11d0:	030e6e19 	movweq	r6, #60953	; 0xee19
    11d4:	3b0b3a0e 	blcc	2cfa14 <__bss_end__+0x2c47ec>
    11d8:	000b3905 	andeq	r3, fp, r5, lsl #18
    11dc:	002e1c00 	eoreq	r1, lr, r0, lsl #24
    11e0:	193c193f 	ldmdbne	ip!, {r0, r1, r2, r3, r4, r5, r8, fp, ip}
    11e4:	0e030e6e 	cdpeq	14, 0, cr0, cr3, cr14, {3}
    11e8:	0b3b0b3a 	bleq	ec3ed8 <__bss_end__+0xeb8cb0>
    11ec:	00000b39 	andeq	r0, r0, r9, lsr fp
    11f0:	01110100 	tsteq	r1, r0, lsl #2
    11f4:	0b130e25 	bleq	4c4a90 <__bss_end__+0x4b9868>
    11f8:	0e1b0e03 	cdpeq	14, 1, cr0, cr11, cr3, {0}
    11fc:	06120111 			; <UNDEFINED> instruction: 0x06120111
    1200:	00001710 	andeq	r1, r0, r0, lsl r7
    1204:	0b002402 	bleq	a214 <kfree_pop>
    1208:	030b3e0b 	movweq	r3, #48651	; 0xbe0b
    120c:	03000008 	movweq	r0, #8
    1210:	0b0b0024 	bleq	2c12a8 <__bss_end__+0x2b6080>
    1214:	0e030b3e 	vmoveq.16	d3[0], r0
    1218:	15040000 	strne	r0, [r4, #-0]
    121c:	49192701 	ldmdbmi	r9, {r0, r8, r9, sl, sp}
    1220:	00130113 	andseq	r0, r3, r3, lsl r1
    1224:	00050500 	andeq	r0, r5, r0, lsl #10
    1228:	00001349 	andeq	r1, r0, r9, asr #6
    122c:	03003406 	movweq	r3, #1030	; 0x406
    1230:	3b0b3a0e 	blcc	2cfa70 <__bss_end__+0x2c4848>
    1234:	490b390b 	stmdbmi	fp, {r0, r1, r3, r8, fp, ip, sp}
    1238:	3c193f13 	ldccc	15, cr3, [r9], {19}
    123c:	07000019 	smladeq	r0, r9, r0, r0
    1240:	0b0b000f 	bleq	2c1284 <__bss_end__+0x2b605c>
    1244:	00001349 	andeq	r1, r0, r9, asr #6
    1248:	49002608 	stmdbmi	r0, {r3, r9, sl, sp}
    124c:	09000013 	stmdbeq	r0, {r0, r1, r4}
    1250:	193f002e 	ldmdbne	pc!, {r1, r2, r3, r5}	; <UNPREDICTABLE>
    1254:	0b3a0e03 	bleq	e84a68 <__bss_end__+0xe79840>
    1258:	0b390b3b 	bleq	e43f4c <__bss_end__+0xe38d24>
    125c:	01111927 	tsteq	r1, r7, lsr #18
    1260:	18400612 	stmdane	r0, {r1, r4, r9, sl}^
    1264:	00194297 	mulseq	r9, r7, r2
    1268:	11010000 	mrsne	r0, (UNDEF: 1)
    126c:	130e2501 	movwne	r2, #58625	; 0xe501
    1270:	1b0e030b 	blne	381ea4 <__bss_end__+0x376c7c>
    1274:	1117550e 	tstne	r7, lr, lsl #10
    1278:	00171001 	andseq	r1, r7, r1
    127c:	00240200 	eoreq	r0, r4, r0, lsl #4
    1280:	0b3e0b0b 	bleq	f83eb4 <__bss_end__+0xf78c8c>
    1284:	00000803 	andeq	r0, r0, r3, lsl #16
    1288:	49002603 	stmdbmi	r0, {r0, r1, r9, sl, sp}
    128c:	04000013 	streq	r0, [r0], #-19	; 0xffffffed
    1290:	0b0b0024 	bleq	2c1328 <__bss_end__+0x2b6100>
    1294:	0e030b3e 	vmoveq.16	d3[0], r0
    1298:	15050000 	strne	r0, [r5, #-0]
    129c:	49192701 	ldmdbmi	r9, {r0, r8, r9, sl, sp}
    12a0:	00130113 	andseq	r0, r3, r3, lsl r1
    12a4:	00050600 	andeq	r0, r5, r0, lsl #12
    12a8:	00001349 	andeq	r1, r0, r9, asr #6
    12ac:	03003407 	movweq	r3, #1031	; 0x407
    12b0:	3b0b3a0e 	blcc	2cfaf0 <__bss_end__+0x2c48c8>
    12b4:	490b390b 	stmdbmi	fp, {r0, r1, r3, r8, fp, ip, sp}
    12b8:	3c193f13 	ldccc	15, cr3, [r9], {19}
    12bc:	08000019 	stmdaeq	r0, {r0, r3, r4}
    12c0:	0b0b000f 	bleq	2c1304 <__bss_end__+0x2b60dc>
    12c4:	00001349 	andeq	r1, r0, r9, asr #6
    12c8:	03003409 	movweq	r3, #1033	; 0x409
    12cc:	3b0b3a0e 	blcc	2cfb0c <__bss_end__+0x2c48e4>
    12d0:	490b390b 	stmdbmi	fp, {r0, r1, r3, r8, fp, ip, sp}
    12d4:	0a000013 	beq	1328 <__code_start__-0x6cd8>
    12d8:	193f012e 	ldmdbne	pc!, {r1, r2, r3, r5, r8}	; <UNPREDICTABLE>
    12dc:	0b3a0e03 	bleq	e84af0 <__bss_end__+0xe798c8>
    12e0:	0b390b3b 	bleq	e43fd4 <__bss_end__+0xe38dac>
    12e4:	01871927 	orreq	r1, r7, r7, lsr #18
    12e8:	12011119 	andne	r1, r1, #1073741830	; 0x40000006
    12ec:	97184006 	ldrls	r4, [r8, -r6]
    12f0:	13011942 	movwne	r1, #6466	; 0x1942
    12f4:	340b0000 	strcc	r0, [fp], #-0
    12f8:	3a0e0300 	bcc	381f00 <__bss_end__+0x376cd8>
    12fc:	390b3b0b 	stmdbcc	fp, {r0, r1, r3, r8, r9, fp, ip, sp}
    1300:	1c13490b 			; <UNDEFINED> instruction: 0x1c13490b
    1304:	0c000006 	stceq	0, cr0, [r0], {6}
    1308:	0e030034 	mcreq	0, 0, r0, cr3, cr4, {1}
    130c:	0b3b0b3a 	bleq	ec3ffc <__bss_end__+0xeb8dd4>
    1310:	13490b39 	movtne	r0, #39737	; 0x9b39
    1314:	00000b1c 	andeq	r0, r0, ip, lsl fp
    1318:	31011d0d 	tstcc	r1, sp, lsl #26
    131c:	b8015213 	stmdalt	r1, {r0, r1, r4, r9, ip, lr}
    1320:	17550b42 	ldrbne	r0, [r5, -r2, asr #22]
    1324:	0b590b58 	bleq	164408c <__bss_end__+0x1638e64>
    1328:	13010b57 	movwne	r0, #6999	; 0x1b57
    132c:	0b0e0000 	bleq	381334 <__bss_end__+0x37610c>
    1330:	00175501 	andseq	r5, r7, r1, lsl #10
    1334:	00340f00 	eorseq	r0, r4, r0, lsl #30
    1338:	17021331 	smladxne	r2, r1, r3, r1
    133c:	001742b7 			; <UNDEFINED> instruction: 0x001742b7
    1340:	011d1000 	tsteq	sp, r0
    1344:	01521331 	cmpeq	r2, r1, lsr r3
    1348:	110b42b8 			; <UNDEFINED> instruction: 0x110b42b8
    134c:	58061201 	stmdapl	r6, {r0, r9, ip}
    1350:	570b590b 	strpl	r5, [fp, -fp, lsl #18]
    1354:	0013010b 	andseq	r0, r3, fp, lsl #2
    1358:	82891100 	addhi	r1, r9, #0
    135c:	01110001 	tsteq	r1, r1
    1360:	00001331 	andeq	r1, r0, r1, lsr r3
    1364:	01828912 	orreq	r8, r2, r2, lsl r9
    1368:	31011101 	tstcc	r1, r1, lsl #2
    136c:	00130113 	andseq	r0, r3, r3, lsl r1
    1370:	828a1300 	addhi	r1, sl, #0, 6
    1374:	18020001 	stmdane	r2, {r0}
    1378:	00184291 	mulseq	r8, r1, r2
    137c:	82891400 	addhi	r1, r9, #0, 8
    1380:	01110101 	tsteq	r1, r1, lsl #2
    1384:	00001331 	andeq	r1, r0, r1, lsr r3
    1388:	3f012e15 	svccc	0x00012e15
    138c:	3a0e0319 	bcc	381ff8 <__bss_end__+0x376dd0>
    1390:	390b3b0b 	stmdbcc	fp, {r0, r1, r3, r8, r9, fp, ip, sp}
    1394:	2019270b 	andscs	r2, r9, fp, lsl #14
    1398:	0013010b 	andseq	r0, r3, fp, lsl #2
    139c:	012e1600 			; <UNDEFINED> instruction: 0x012e1600
    13a0:	0e03193f 			; <UNDEFINED> instruction: 0x0e03193f
    13a4:	0b3b0b3a 	bleq	ec4094 <__bss_end__+0xeb8e6c>
    13a8:	19270b39 	stmdbne	r7!, {r0, r3, r4, r5, r8, r9, fp}
    13ac:	0b201349 	bleq	8060d8 <__bss_end__+0x7faeb0>
    13b0:	00001301 	andeq	r1, r0, r1, lsl #6
    13b4:	31012e17 	tstcc	r1, r7, lsl lr
    13b8:	12011113 	andne	r1, r1, #-1073741820	; 0xc0000004
    13bc:	97184006 	ldrls	r4, [r8, -r6]
    13c0:	13011942 	movwne	r1, #6466	; 0x1942
    13c4:	2e180000 	cdpcs	0, 1, cr0, cr8, cr0, {0}
    13c8:	3c193f00 	ldccc	15, cr3, [r9], {-0}
    13cc:	030e6e19 	movweq	r6, #60953	; 0xee19
    13d0:	3b0b3a0e 	blcc	2cfc10 <__bss_end__+0x2c49e8>
    13d4:	000b3905 	andeq	r3, fp, r5, lsl #18
    13d8:	002e1900 	eoreq	r1, lr, r0, lsl #18
    13dc:	193c193f 	ldmdbne	ip!, {r0, r1, r2, r3, r4, r5, r8, fp, ip}
    13e0:	0e030e6e 	cdpeq	14, 0, cr0, cr3, cr14, {3}
    13e4:	0b3b0b3a 	bleq	ec40d4 <__bss_end__+0xeb8eac>
    13e8:	00000b39 	andeq	r0, r0, r9, lsr fp
    13ec:	01110100 	tsteq	r1, r0, lsl #2
    13f0:	0b130e25 	bleq	4c4c8c <__bss_end__+0x4b9a64>
    13f4:	0e1b0e03 	cdpeq	14, 1, cr0, cr11, cr3, {0}
    13f8:	06120111 			; <UNDEFINED> instruction: 0x06120111
    13fc:	00001710 	andeq	r1, r0, r0, lsl r7
    1400:	0b002402 	bleq	a410 <internal_putchar+0x4>
    1404:	030b3e0b 	movweq	r3, #48651	; 0xbe0b
    1408:	03000008 	movweq	r0, #8
    140c:	0b0b0024 	bleq	2c14a4 <__bss_end__+0x2b627c>
    1410:	0e030b3e 	vmoveq.16	d3[0], r0
    1414:	15040000 	strne	r0, [r4, #-0]
    1418:	49192701 	ldmdbmi	r9, {r0, r8, r9, sl, sp}
    141c:	00130113 	andseq	r0, r3, r3, lsl r1
    1420:	00050500 	andeq	r0, r5, r0, lsl #10
    1424:	00001349 	andeq	r1, r0, r9, asr #6
    1428:	03003406 	movweq	r3, #1030	; 0x406
    142c:	3b0b3a0e 	blcc	2cfc6c <__bss_end__+0x2c4a44>
    1430:	490b390b 	stmdbmi	fp, {r0, r1, r3, r8, fp, ip, sp}
    1434:	3c193f13 	ldccc	15, cr3, [r9], {19}
    1438:	07000019 	smladeq	r0, r9, r0, r0
    143c:	0b0b000f 	bleq	2c1480 <__bss_end__+0x2b6258>
    1440:	00001349 	andeq	r1, r0, r9, asr #6
    1444:	49002608 	stmdbmi	r0, {r3, r9, sl, sp}
    1448:	09000013 	stmdbeq	r0, {r0, r1, r4}
    144c:	193f012e 	ldmdbne	pc!, {r1, r2, r3, r5, r8}	; <UNPREDICTABLE>
    1450:	0b3a0e03 	bleq	e84c64 <__bss_end__+0xe79a3c>
    1454:	0b390b3b 	bleq	e44148 <__bss_end__+0xe38f20>
    1458:	01111927 	tsteq	r1, r7, lsr #18
    145c:	18400612 	stmdane	r0, {r1, r4, r9, sl}^
    1460:	01194297 			; <UNDEFINED> instruction: 0x01194297
    1464:	0a000013 	beq	14b8 <__code_start__-0x6b48>
    1468:	08030005 	stmdaeq	r3, {r0, r2}
    146c:	0b3b0b3a 	bleq	ec415c <__bss_end__+0xeb8f34>
    1470:	13490b39 	movtne	r0, #39737	; 0x9b39
    1474:	42b71702 	adcsmi	r1, r7, #524288	; 0x80000
    1478:	0b000017 	bleq	14dc <__code_start__-0x6b24>
    147c:	1331011d 	teqne	r1, #1073741831	; 0x40000007
    1480:	42b80152 	adcsmi	r0, r8, #-2147483628	; 0x80000014
    1484:	5817550b 	ldmdapl	r7, {r0, r1, r3, r8, sl, ip, lr}
    1488:	570b590b 	strpl	r5, [fp, -fp, lsl #18]
    148c:	0c00000b 	stceq	0, cr0, [r0], {11}
    1490:	13310005 	teqne	r1, #5, 0
    1494:	42b71702 	adcsmi	r1, r7, #524288	; 0x80000
    1498:	0d000017 	stceq	0, cr0, [r0, #-92]	; 0xffffffa4
    149c:	1331011d 	teqne	r1, #1073741831	; 0x40000007
    14a0:	42b80152 	adcsmi	r0, r8, #-2147483628	; 0x80000014
    14a4:	1201110b 	andne	r1, r1, #-1073741822	; 0xc0000002
    14a8:	590b5806 	stmdbpl	fp, {r1, r2, fp, ip, lr}
    14ac:	000b570b 	andeq	r5, fp, fp, lsl #14
    14b0:	00340e00 	eorseq	r0, r4, r0, lsl #28
    14b4:	17021331 	smladxne	r2, r1, r3, r1
    14b8:	001742b7 			; <UNDEFINED> instruction: 0x001742b7
    14bc:	011d0f00 	tsteq	sp, r0, lsl #30
    14c0:	01521331 	cmpeq	r2, r1, lsr r3
    14c4:	110b42b8 			; <UNDEFINED> instruction: 0x110b42b8
    14c8:	58061201 	stmdapl	r6, {r0, r9, ip}
    14cc:	570b590b 	strpl	r5, [fp, -fp, lsl #18]
    14d0:	0013010b 	andseq	r0, r3, fp, lsl #2
    14d4:	82891000 	addhi	r1, r9, #0, 0
    14d8:	01110101 	tsteq	r1, r1, lsl #2
    14dc:	00001331 	andeq	r1, r0, r1, lsr r3
    14e0:	01828a11 	orreq	r8, r2, r1, lsl sl
    14e4:	91180200 	tstls	r8, r0, lsl #4
    14e8:	00001842 	andeq	r1, r0, r2, asr #16
    14ec:	01828912 	orreq	r8, r2, r2, lsl r9
    14f0:	31011100 	mrscc	r1, (UNDEF: 17)
    14f4:	13000013 	movwne	r0, #19
    14f8:	1331010b 	teqne	r1, #-1073741822	; 0xc0000002
    14fc:	00001755 	andeq	r1, r0, r5, asr r7
    1500:	31003414 	tstcc	r0, r4, lsl r4
    1504:	15000013 	strne	r0, [r0, #-19]	; 0xffffffed
    1508:	1755010b 	ldrbne	r0, [r5, -fp, lsl #2]
    150c:	1d160000 	ldcne	0, cr0, [r6, #-0]
    1510:	52133101 	andspl	r3, r3, #1073741824	; 0x40000000
    1514:	0b42b801 	bleq	10af520 <__bss_end__+0x10a42f8>
    1518:	0b581755 	bleq	1607274 <__bss_end__+0x15fc04c>
    151c:	0b570b59 	bleq	15c4288 <__bss_end__+0x15b9060>
    1520:	00001301 	andeq	r1, r0, r1, lsl #6
    1524:	3f012e17 	svccc	0x00012e17
    1528:	3a0e0319 	bcc	382194 <__bss_end__+0x376f6c>
    152c:	390b3b0b 	stmdbcc	fp, {r0, r1, r3, r8, r9, fp, ip, sp}
    1530:	2019270b 	andscs	r2, r9, fp, lsl #14
    1534:	0013010b 	andseq	r0, r3, fp, lsl #2
    1538:	00051800 	andeq	r1, r5, r0, lsl #16
    153c:	0b3a0803 	bleq	e83550 <__bss_end__+0xe78328>
    1540:	0b390b3b 	bleq	e44234 <__bss_end__+0xe3900c>
    1544:	00001349 	andeq	r1, r0, r9, asr #6
    1548:	03003419 	movweq	r3, #1049	; 0x419
    154c:	3b0b3a08 	blcc	2cfd74 <__bss_end__+0x2c4b4c>
    1550:	490b390b 	stmdbmi	fp, {r0, r1, r3, r8, fp, ip, sp}
    1554:	1a000013 	bne	15a8 <__code_start__-0x6a58>
    1558:	0000010b 	andeq	r0, r0, fp, lsl #2
    155c:	3f012e1b 	svccc	0x00012e1b
    1560:	3a0e0319 	bcc	3821cc <__bss_end__+0x376fa4>
    1564:	390b3b0b 	stmdbcc	fp, {r0, r1, r3, r8, r9, fp, ip, sp}
    1568:	4919270b 	ldmdbmi	r9, {r0, r1, r3, r8, r9, sl, sp}
    156c:	010b2013 	tsteq	fp, r3, lsl r0
    1570:	1c000013 	stcne	0, cr0, [r0], {19}
    1574:	193f002e 	ldmdbne	pc!, {r1, r2, r3, r5}	; <UNPREDICTABLE>
    1578:	0b3a0e03 	bleq	e84d8c <__bss_end__+0xe79b64>
    157c:	0b390b3b 	bleq	e44270 <__bss_end__+0xe39048>
    1580:	13491927 	movtne	r1, #39207	; 0x9927
    1584:	00000b20 	andeq	r0, r0, r0, lsr #22
    1588:	31012e1d 	tstcc	r1, sp, lsl lr
    158c:	12011113 	andne	r1, r1, #-1073741820	; 0xc0000004
    1590:	97184006 	ldrls	r4, [r8, -r6]
    1594:	13011942 	movwne	r1, #6466	; 0x1942
    1598:	891e0000 	ldmdbhi	lr, {}	; <UNPREDICTABLE>
    159c:	11010182 	smlabbne	r1, r2, r1, r0
    15a0:	19429501 	stmdbne	r2, {r0, r8, sl, ip, pc}^
    15a4:	00001331 	andeq	r1, r0, r1, lsr r3
    15a8:	3f002e1f 	svccc	0x00002e1f
    15ac:	6e193c19 	mrcvs	12, 0, r3, cr9, cr9, {0}
    15b0:	3a0e030e 	bcc	3821f0 <__bss_end__+0x376fc8>
    15b4:	390b3b0b 	stmdbcc	fp, {r0, r1, r3, r8, r9, fp, ip, sp}
    15b8:	0000000b 	andeq	r0, r0, fp
    15bc:	25011101 	strcs	r1, [r1, #-257]	; 0xfffffeff
    15c0:	030b130e 	movweq	r1, #45838	; 0xb30e
    15c4:	110e1b0e 	tstne	lr, lr, lsl #22
    15c8:	10061201 	andne	r1, r6, r1, lsl #4
    15cc:	02000017 	andeq	r0, r0, #23, 0
    15d0:	0b0b0024 	bleq	2c1668 <__bss_end__+0x2b6440>
    15d4:	08030b3e 	stmdaeq	r3, {r1, r2, r3, r4, r5, r8, r9, fp}
    15d8:	24030000 	strcs	r0, [r3], #-0
    15dc:	3e0b0b00 	vmlacc.f64	d0, d11, d0
    15e0:	000e030b 	andeq	r0, lr, fp, lsl #6
    15e4:	00350400 	eorseq	r0, r5, r0, lsl #8
    15e8:	00001349 	andeq	r1, r0, r9, asr #6
    15ec:	03001605 	movweq	r1, #1541	; 0x605
    15f0:	3b0b3a0e 	blcc	2cfe30 <__bss_end__+0x2c4c08>
    15f4:	490b390b 	stmdbmi	fp, {r0, r1, r3, r8, fp, ip, sp}
    15f8:	06000013 			; <UNDEFINED> instruction: 0x06000013
    15fc:	0b3e0104 	bleq	f81a14 <__bss_end__+0xf767ec>
    1600:	13490b0b 	movtne	r0, #39691	; 0x9b0b
    1604:	0b3b0b3a 	bleq	ec42f4 <__bss_end__+0xeb90cc>
    1608:	13010b39 	movwne	r0, #6969	; 0x1b39
    160c:	28070000 	stmdacs	r7, {}	; <UNPREDICTABLE>
    1610:	1c0e0300 	stcne	3, cr0, [lr], {-0}
    1614:	0800000b 	stmdaeq	r0, {r0, r1, r3}
    1618:	0e030113 	mcreq	1, 0, r0, cr3, cr3, {0}
    161c:	0b3a0b0b 	bleq	e84250 <__bss_end__+0xe79028>
    1620:	0b390b3b 	bleq	e44314 <__bss_end__+0xe390ec>
    1624:	00001301 	andeq	r1, r0, r1, lsl #6
    1628:	03000d09 	movweq	r0, #3337	; 0xd09
    162c:	3b0b3a08 	blcc	2cfe54 <__bss_end__+0x2c4c2c>
    1630:	490b390b 	stmdbmi	fp, {r0, r1, r3, r8, fp, ip, sp}
    1634:	000b3813 	andeq	r3, fp, r3, lsl r8
    1638:	000d0a00 	andeq	r0, sp, r0, lsl #20
    163c:	0b3a0e03 	bleq	e84e50 <__bss_end__+0xe79c28>
    1640:	0b390b3b 	bleq	e44334 <__bss_end__+0xe3910c>
    1644:	0b381349 	bleq	e06370 <__bss_end__+0xdfb148>
    1648:	340b0000 	strcc	r0, [fp], #-0
    164c:	3a0e0300 	bcc	382254 <__bss_end__+0x37702c>
    1650:	390b3b0b 	stmdbcc	fp, {r0, r1, r3, r8, r9, fp, ip, sp}
    1654:	1c13490b 			; <UNDEFINED> instruction: 0x1c13490b
    1658:	0c000006 	stceq	0, cr0, [r0], {6}
    165c:	0b0b000f 	bleq	2c16a0 <__bss_end__+0x2b6478>
    1660:	00001349 	andeq	r1, r0, r9, asr #6
    1664:	4900260d 	stmdbmi	r0, {r0, r2, r3, r9, sl, sp}
    1668:	0e000013 	mcreq	0, 0, r0, cr0, cr3, {0}
    166c:	193f012e 	ldmdbne	pc!, {r1, r2, r3, r5, r8}	; <UNPREDICTABLE>
    1670:	0b3a0e03 	bleq	e84e84 <__bss_end__+0xe79c5c>
    1674:	0b390b3b 	bleq	e44368 <__bss_end__+0xe39140>
    1678:	01111927 	tsteq	r1, r7, lsr #18
    167c:	18400612 	stmdane	r0, {r1, r4, r9, sl}^
    1680:	01194297 			; <UNDEFINED> instruction: 0x01194297
    1684:	0f000013 	svceq	0x00000013
    1688:	00018289 	andeq	r8, r1, r9, lsl #5
    168c:	13310111 	teqne	r1, #1073741828	; 0x40000004
    1690:	2e100000 	cdpcs	0, 1, cr0, cr0, cr0, {0}
    1694:	03193f01 	tsteq	r9, #1, 30
    1698:	3b0b3a0e 	blcc	2cfed8 <__bss_end__+0x2c4cb0>
    169c:	270b390b 	strcs	r3, [fp, -fp, lsl #18]
    16a0:	11134919 	tstne	r3, r9, lsl r9
    16a4:	40061201 	andmi	r1, r6, r1, lsl #4
    16a8:	19429718 	stmdbne	r2, {r3, r4, r8, r9, sl, ip, pc}^
    16ac:	00001301 	andeq	r1, r0, r1, lsl #6
    16b0:	01828911 	orreq	r8, r2, r1, lsl r9
    16b4:	31011101 	tstcc	r1, r1, lsl #2
    16b8:	12000013 	andne	r0, r0, #19, 0
    16bc:	0001828a 	andeq	r8, r1, sl, lsl #5
    16c0:	42911802 	addsmi	r1, r1, #131072	; 0x20000
    16c4:	13000018 	movwne	r0, #24
    16c8:	08030005 	stmdaeq	r3, {r0, r2}
    16cc:	0b3b0b3a 	bleq	ec43bc <__bss_end__+0xeb9194>
    16d0:	13490b39 	movtne	r0, #39737	; 0x9b39
    16d4:	42b71702 	adcsmi	r1, r7, #524288	; 0x80000
    16d8:	14000017 	strne	r0, [r0], #-23	; 0xffffffe9
    16dc:	01018289 	smlabbeq	r1, r9, r2, r8
    16e0:	13310111 	teqne	r1, #1073741828	; 0x40000004
    16e4:	00001301 	andeq	r1, r0, r1, lsl #6
    16e8:	03003415 	movweq	r3, #1045	; 0x415
    16ec:	3b0b3a08 	blcc	2cff14 <__bss_end__+0x2c4cec>
    16f0:	490b390b 	stmdbmi	fp, {r0, r1, r3, r8, fp, ip, sp}
    16f4:	b7170213 			; <UNDEFINED> instruction: 0xb7170213
    16f8:	00001742 	andeq	r1, r0, r2, asr #14
    16fc:	03003416 	movweq	r3, #1046	; 0x416
    1700:	3b0b3a0e 	blcc	2cff40 <__bss_end__+0x2c4d18>
    1704:	490b390b 	stmdbmi	fp, {r0, r1, r3, r8, fp, ip, sp}
    1708:	00051c13 	andeq	r1, r5, r3, lsl ip
    170c:	012e1700 			; <UNDEFINED> instruction: 0x012e1700
    1710:	0b3a0e03 	bleq	e84f24 <__bss_end__+0xe79cfc>
    1714:	0b390b3b 	bleq	e44408 <__bss_end__+0xe391e0>
    1718:	01111927 	tsteq	r1, r7, lsr #18
    171c:	18400612 	stmdane	r0, {r1, r4, r9, sl}^
    1720:	01194297 			; <UNDEFINED> instruction: 0x01194297
    1724:	18000013 	stmdane	r0, {r0, r1, r4}
    1728:	0e030005 	cdpeq	0, 0, cr0, cr3, cr5, {0}
    172c:	0b3b0b3a 	bleq	ec441c <__bss_end__+0xeb91f4>
    1730:	13490b39 	movtne	r0, #39737	; 0x9b39
    1734:	42b71702 	adcsmi	r1, r7, #524288	; 0x80000
    1738:	19000017 	stmdbne	r0, {r0, r1, r2, r4}
    173c:	00000035 	andeq	r0, r0, r5, lsr r0
    1740:	3f002e1a 	svccc	0x00002e1a
    1744:	6e193c19 	mrcvs	12, 0, r3, cr9, cr9, {0}
    1748:	3a0e030e 	bcc	382388 <__bss_end__+0x377160>
    174c:	390b3b0b 	stmdbcc	fp, {r0, r1, r3, r8, r9, fp, ip, sp}
    1750:	0000000b 	andeq	r0, r0, fp
    1754:	25011101 	strcs	r1, [r1, #-257]	; 0xfffffeff
    1758:	030b130e 	movweq	r1, #45838	; 0xb30e
    175c:	110e1b0e 	tstne	lr, lr, lsl #22
    1760:	10061201 	andne	r1, r6, r1, lsl #4
    1764:	02000017 	andeq	r0, r0, #23, 0
    1768:	0b0b0024 	bleq	2c1800 <__bss_end__+0x2b65d8>
    176c:	08030b3e 	stmdaeq	r3, {r1, r2, r3, r4, r5, r8, r9, fp}
    1770:	24030000 	strcs	r0, [r3], #-0
    1774:	3e0b0b00 	vmlacc.f64	d0, d11, d0
    1778:	000e030b 	andeq	r0, lr, fp, lsl #6
    177c:	00160400 	andseq	r0, r6, r0, lsl #8
    1780:	0b3a0e03 	bleq	e84f94 <__bss_end__+0xe79d6c>
    1784:	0b390b3b 	bleq	e44478 <__bss_end__+0xe39250>
    1788:	00001349 	andeq	r1, r0, r9, asr #6
    178c:	49002605 	stmdbmi	r0, {r0, r2, r9, sl, sp}
    1790:	06000013 			; <UNDEFINED> instruction: 0x06000013
    1794:	0b0b000f 	bleq	2c17d8 <__bss_end__+0x2b65b0>
    1798:	04070000 	streq	r0, [r7], #-0
    179c:	0b0b3e01 	bleq	2d0fa8 <__bss_end__+0x2c5d80>
    17a0:	3a13490b 	bcc	4d3bd4 <__bss_end__+0x4c89ac>
    17a4:	390b3b0b 	stmdbcc	fp, {r0, r1, r3, r8, r9, fp, ip, sp}
    17a8:	0013010b 	andseq	r0, r3, fp, lsl #2
    17ac:	00280800 	eoreq	r0, r8, r0, lsl #16
    17b0:	061c0e03 	ldreq	r0, [ip], -r3, lsl #28
    17b4:	34090000 	strcc	r0, [r9], #-0
    17b8:	3a0e0300 	bcc	3823c0 <__bss_end__+0x377198>
    17bc:	390b3b0b 	stmdbcc	fp, {r0, r1, r3, r8, r9, fp, ip, sp}
    17c0:	3f13490b 	svccc	0x0013490b
    17c4:	00193c19 	andseq	r3, r9, r9, lsl ip
    17c8:	00340a00 	eorseq	r0, r4, r0, lsl #20
    17cc:	0b3a0e03 	bleq	e84fe0 <__bss_end__+0xe79db8>
    17d0:	0b390b3b 	bleq	e444c4 <__bss_end__+0xe3929c>
    17d4:	18021349 	stmdane	r2, {r0, r3, r6, r8, r9, ip}
    17d8:	0f0b0000 	svceq	0x000b0000
    17dc:	490b0b00 	stmdbmi	fp, {r8, r9, fp}
    17e0:	0c000013 	stceq	0, cr0, [r0], {19}
    17e4:	193f012e 	ldmdbne	pc!, {r1, r2, r3, r5, r8}	; <UNPREDICTABLE>
    17e8:	0b3a0e03 	bleq	e84ffc <__bss_end__+0xe79dd4>
    17ec:	0b390b3b 	bleq	e444e0 <__bss_end__+0xe392b8>
    17f0:	01111927 	tsteq	r1, r7, lsr #18
    17f4:	18400612 	stmdane	r0, {r1, r4, r9, sl}^
    17f8:	01194297 			; <UNDEFINED> instruction: 0x01194297
    17fc:	0d000013 	stceq	0, cr0, [r0, #-76]	; 0xffffffb4
    1800:	08030005 	stmdaeq	r3, {r0, r2}
    1804:	0b3b0b3a 	bleq	ec44f4 <__bss_end__+0xeb92cc>
    1808:	13490b39 	movtne	r0, #39737	; 0x9b39
    180c:	42b71702 	adcsmi	r1, r7, #524288	; 0x80000
    1810:	0e000017 	mcreq	0, 0, r0, cr0, cr7, {0}
    1814:	0e030034 	mcreq	0, 0, r0, cr3, cr4, {1}
    1818:	19341349 	ldmdbne	r4!, {r0, r3, r6, r8, r9, ip}
    181c:	00001802 	andeq	r1, r0, r2, lsl #16
    1820:	0182890f 	orreq	r8, r2, pc, lsl #18
    1824:	31011101 	tstcc	r1, r1, lsl #2
    1828:	00130113 	andseq	r0, r3, r3, lsl r1
    182c:	828a1000 	addhi	r1, sl, #0, 0
    1830:	18020001 	stmdane	r2, {r0}
    1834:	00184291 	mulseq	r8, r1, r2
    1838:	82891100 	addhi	r1, r9, #0
    183c:	01110001 	tsteq	r1, r1
    1840:	00001331 	andeq	r1, r0, r1, lsr r3
    1844:	49010112 	stmdbmi	r1, {r1, r4, r8}
    1848:	00130113 	andseq	r0, r3, r3, lsl r1
    184c:	00211300 	eoreq	r1, r1, r0, lsl #6
    1850:	0b2f1349 	bleq	bc657c <__bss_end__+0xbbb354>
    1854:	2e140000 	cdpcs	0, 1, cr0, cr4, cr0, {0}
    1858:	03193f00 	tsteq	r9, #0, 30
    185c:	3b0b3a0e 	blcc	2d009c <__bss_end__+0x2c4e74>
    1860:	270b390b 	strcs	r3, [fp, -fp, lsl #18]
    1864:	12011119 	andne	r1, r1, #1073741830	; 0x40000006
    1868:	97184006 	ldrls	r4, [r8, -r6]
    186c:	00001942 	andeq	r1, r0, r2, asr #18
    1870:	03000515 	movweq	r0, #1301	; 0x515
    1874:	3b0b3a08 	blcc	2d009c <__bss_end__+0x2c4e74>
    1878:	490b390b 	stmdbmi	fp, {r0, r1, r3, r8, fp, ip, sp}
    187c:	00180213 	andseq	r0, r8, r3, lsl r2
    1880:	012e1600 			; <UNDEFINED> instruction: 0x012e1600
    1884:	0e03193f 			; <UNDEFINED> instruction: 0x0e03193f
    1888:	0b3b0b3a 	bleq	ec4578 <__bss_end__+0xeb9350>
    188c:	19270b39 	stmdbne	r7!, {r0, r3, r4, r5, r8, r9, fp}
    1890:	01111349 	tsteq	r1, r9, asr #6
    1894:	18400612 	stmdane	r0, {r1, r4, r9, sl}^
    1898:	01194297 			; <UNDEFINED> instruction: 0x01194297
    189c:	17000013 	smladne	r0, r3, r0, r0
    18a0:	0e030005 	cdpeq	0, 0, cr0, cr3, cr5, {0}
    18a4:	0b3b0b3a 	bleq	ec4594 <__bss_end__+0xeb936c>
    18a8:	13490b39 	movtne	r0, #39737	; 0x9b39
    18ac:	42b71702 	adcsmi	r1, r7, #524288	; 0x80000
    18b0:	18000017 	stmdane	r0, {r0, r1, r2, r4}
    18b4:	08030034 	stmdaeq	r3, {r2, r4, r5}
    18b8:	0b3b0b3a 	bleq	ec45a8 <__bss_end__+0xeb9380>
    18bc:	13490b39 	movtne	r0, #39737	; 0x9b39
    18c0:	42b71702 	adcsmi	r1, r7, #524288	; 0x80000
    18c4:	19000017 	stmdbne	r0, {r0, r1, r2, r4}
    18c8:	1331011d 	teqne	r1, #1073741831	; 0x40000007
    18cc:	42b80152 	adcsmi	r0, r8, #-2147483628	; 0x80000014
    18d0:	1201110b 	andne	r1, r1, #-1073741822	; 0xc0000002
    18d4:	590b5806 	stmdbpl	fp, {r1, r2, fp, ip, lr}
    18d8:	010b570b 	tsteq	fp, fp, lsl #14
    18dc:	1a000013 	bne	1930 <__code_start__-0x66d0>
    18e0:	13310005 	teqne	r1, #5, 0
    18e4:	42b71702 	adcsmi	r1, r7, #524288	; 0x80000
    18e8:	1b000017 	blne	194c <__code_start__-0x66b4>
    18ec:	1331011d 	teqne	r1, #1073741831	; 0x40000007
    18f0:	42b80152 	adcsmi	r0, r8, #-2147483628	; 0x80000014
    18f4:	5817550b 	ldmdapl	r7, {r0, r1, r3, r8, sl, ip, lr}
    18f8:	570b590b 	strpl	r5, [fp, -fp, lsl #18]
    18fc:	0013010b 	andseq	r0, r3, fp, lsl #2
    1900:	010b1c00 	tsteq	fp, r0, lsl #24
    1904:	00001755 	andeq	r1, r0, r5, asr r7
    1908:	0300341d 	movweq	r3, #1053	; 0x41d
    190c:	3b0b3a0e 	blcc	2d014c <__bss_end__+0x2c4f24>
    1910:	490b390b 	stmdbmi	fp, {r0, r1, r3, r8, fp, ip, sp}
    1914:	b7170213 			; <UNDEFINED> instruction: 0xb7170213
    1918:	00001742 	andeq	r1, r0, r2, asr #14
    191c:	55000b1e 	strpl	r0, [r0, #-2846]	; 0xfffff4e2
    1920:	1f000017 	svcne	0x00000017
    1924:	193f002e 	ldmdbne	pc!, {r1, r2, r3, r5}	; <UNPREDICTABLE>
    1928:	0b3a0e03 	bleq	e8513c <__bss_end__+0xe79f14>
    192c:	0b390b3b 	bleq	e44620 <__bss_end__+0xe393f8>
    1930:	13491927 	movtne	r1, #39207	; 0x9927
    1934:	06120111 			; <UNDEFINED> instruction: 0x06120111
    1938:	42971840 	addsmi	r1, r7, #64, 16	; 0x400000
    193c:	20000019 	andcs	r0, r0, r9, lsl r0
    1940:	0e03012e 	adfeqsp	f0, f3, #0.5
    1944:	0b3b0b3a 	bleq	ec4634 <__bss_end__+0xeb940c>
    1948:	19270b39 	stmdbne	r7!, {r0, r3, r4, r5, r8, r9, fp}
    194c:	0b201349 	bleq	806678 <__bss_end__+0x7fb450>
    1950:	00001301 	andeq	r1, r0, r1, lsl #6
    1954:	03000521 	movweq	r0, #1313	; 0x521
    1958:	3b0b3a08 	blcc	2d0180 <__bss_end__+0x2c4f58>
    195c:	490b390b 	stmdbmi	fp, {r0, r1, r3, r8, fp, ip, sp}
    1960:	22000013 	andcs	r0, r0, #19, 0
    1964:	193f002e 	ldmdbne	pc!, {r1, r2, r3, r5}	; <UNPREDICTABLE>
    1968:	0e6e193c 			; <UNDEFINED> instruction: 0x0e6e193c
    196c:	0b3a0e03 	bleq	e85180 <__bss_end__+0xe79f58>
    1970:	0b390b3b 	bleq	e44664 <__bss_end__+0xe3943c>
    1974:	01000000 	mrseq	r0, (UNDEF: 0)
    1978:	0e250111 	mcreq	1, 1, r0, cr5, cr1, {0}
    197c:	0e030b13 	vmoveq.32	d3[0], r0
    1980:	01110e1b 	tsteq	r1, fp, lsl lr
    1984:	17100612 			; <UNDEFINED> instruction: 0x17100612
    1988:	24020000 	strcs	r0, [r2], #-0
    198c:	3e0b0b00 	vmlacc.f64	d0, d11, d0
    1990:	000e030b 	andeq	r0, lr, fp, lsl #6
    1994:	00240300 	eoreq	r0, r4, r0, lsl #6
    1998:	0b3e0b0b 	bleq	f845cc <__bss_end__+0xf793a4>
    199c:	00000803 	andeq	r0, r0, r3, lsl #16
    19a0:	49002604 	stmdbmi	r0, {r2, r9, sl, sp}
    19a4:	05000013 	streq	r0, [r0, #-19]	; 0xffffffed
    19a8:	0e030016 	mcreq	0, 0, r0, cr3, cr6, {0}
    19ac:	0b3b0b3a 	bleq	ec469c <__bss_end__+0xeb9474>
    19b0:	13490b39 	movtne	r0, #39737	; 0x9b39
    19b4:	15060000 	strne	r0, [r6, #-0]
    19b8:	49192701 	ldmdbmi	r9, {r0, r8, r9, sl, sp}
    19bc:	00130113 	andseq	r0, r3, r3, lsl r1
    19c0:	00050700 	andeq	r0, r5, r0, lsl #14
    19c4:	00001349 	andeq	r1, r0, r9, asr #6
    19c8:	03003408 	movweq	r3, #1032	; 0x408
    19cc:	3b0b3a0e 	blcc	2d020c <__bss_end__+0x2c4fe4>
    19d0:	490b390b 	stmdbmi	fp, {r0, r1, r3, r8, fp, ip, sp}
    19d4:	3c193f13 	ldccc	15, cr3, [r9], {19}
    19d8:	09000019 	stmdbeq	r0, {r0, r3, r4}
    19dc:	0b0b000f 	bleq	2c1a20 <__bss_end__+0x2b67f8>
    19e0:	00001349 	andeq	r1, r0, r9, asr #6
    19e4:	3e01040a 	cdpcc	4, 0, cr0, cr1, cr10, {0}
    19e8:	490b0b0b 	stmdbmi	fp, {r0, r1, r3, r8, r9, fp}
    19ec:	3b0b3a13 	blcc	2d0240 <__bss_end__+0x2c5018>
    19f0:	010b390b 	tsteq	fp, fp, lsl #18
    19f4:	0b000013 	bleq	1a48 <__code_start__-0x65b8>
    19f8:	0e030028 	cdpeq	0, 0, cr0, cr3, cr8, {1}
    19fc:	00000b1c 	andeq	r0, r0, ip, lsl fp
    1a00:	0300340c 	movweq	r3, #1036	; 0x40c
    1a04:	3b0b3a0e 	blcc	2d0244 <__bss_end__+0x2c501c>
    1a08:	490b390b 	stmdbmi	fp, {r0, r1, r3, r8, fp, ip, sp}
    1a0c:	00061c13 	andeq	r1, r6, r3, lsl ip
    1a10:	012e0d00 			; <UNDEFINED> instruction: 0x012e0d00
    1a14:	0e03193f 			; <UNDEFINED> instruction: 0x0e03193f
    1a18:	0b3b0b3a 	bleq	ec4708 <__bss_end__+0xeb94e0>
    1a1c:	19270b39 	stmdbne	r7!, {r0, r3, r4, r5, r8, r9, fp}
    1a20:	01111349 	tsteq	r1, r9, asr #6
    1a24:	18400612 	stmdane	r0, {r1, r4, r9, sl}^
    1a28:	01194297 			; <UNDEFINED> instruction: 0x01194297
    1a2c:	0e000013 	mcreq	0, 0, r0, cr0, cr3, {0}
    1a30:	08030005 	stmdaeq	r3, {r0, r2}
    1a34:	0b3b0b3a 	bleq	ec4724 <__bss_end__+0xeb94fc>
    1a38:	13490b39 	movtne	r0, #39737	; 0x9b39
    1a3c:	42b71702 	adcsmi	r1, r7, #524288	; 0x80000
    1a40:	0f000017 	svceq	0x00000017
    1a44:	0e030034 	mcreq	0, 0, r0, cr3, cr4, {1}
    1a48:	0b3b0b3a 	bleq	ec4738 <__bss_end__+0xeb9510>
    1a4c:	13490b39 	movtne	r0, #39737	; 0x9b39
    1a50:	42b71702 	adcsmi	r1, r7, #524288	; 0x80000
    1a54:	10000017 	andne	r0, r0, r7, lsl r0
    1a58:	08030034 	stmdaeq	r3, {r2, r4, r5}
    1a5c:	0b3b0b3a 	bleq	ec474c <__bss_end__+0xeb9524>
    1a60:	13490b39 	movtne	r0, #39737	; 0x9b39
    1a64:	42b71702 	adcsmi	r1, r7, #524288	; 0x80000
    1a68:	11000017 	tstne	r0, r7, lsl r0
    1a6c:	01018289 	smlabbeq	r1, r9, r2, r8
    1a70:	13310111 	teqne	r1, #1073741828	; 0x40000004
    1a74:	8a120000 	bhi	481a7c <__bss_end__+0x476854>
    1a78:	02000182 	andeq	r0, r0, #-2147483616	; 0x80000020
    1a7c:	18429118 	stmdane	r2, {r3, r4, r8, ip, pc}^
    1a80:	2e130000 	cdpcs	0, 1, cr0, cr3, cr0, {0}
    1a84:	03193f01 	tsteq	r9, #1, 30
    1a88:	3b0b3a0e 	blcc	2d02c8 <__bss_end__+0x2c50a0>
    1a8c:	270b390b 	strcs	r3, [fp, -fp, lsl #18]
    1a90:	12011119 	andne	r1, r1, #1073741830	; 0x40000006
    1a94:	97184006 	ldrls	r4, [r8, -r6]
    1a98:	13011942 	movwne	r1, #6466	; 0x1942
    1a9c:	1d140000 	ldcne	0, cr0, [r4, #-0]
    1aa0:	52133101 	andspl	r3, r3, #1073741824	; 0x40000000
    1aa4:	0b42b801 	bleq	10afab0 <__bss_end__+0x10a4888>
    1aa8:	0b581755 	bleq	1607804 <__bss_end__+0x15fc5dc>
    1aac:	0b570b59 	bleq	15c4818 <__bss_end__+0x15b95f0>
    1ab0:	00001301 	andeq	r1, r0, r1, lsl #6
    1ab4:	31000515 	tstcc	r0, r5, lsl r5
    1ab8:	b7170213 			; <UNDEFINED> instruction: 0xb7170213
    1abc:	00001742 	andeq	r1, r0, r2, asr #14
    1ac0:	01828916 	orreq	r8, r2, r6, lsl r9
    1ac4:	95011101 	strls	r1, [r1, #-257]	; 0xfffffeff
    1ac8:	13311942 	teqne	r1, #1081344	; 0x108000
    1acc:	1d170000 	ldcne	0, cr0, [r7, #-0]
    1ad0:	52133101 	andspl	r3, r3, #1073741824	; 0x40000000
    1ad4:	0b42b801 	bleq	10afae0 <__bss_end__+0x10a48b8>
    1ad8:	06120111 			; <UNDEFINED> instruction: 0x06120111
    1adc:	0b590b58 	bleq	1644844 <__bss_end__+0x163961c>
    1ae0:	00000b57 	andeq	r0, r0, r7, asr fp
    1ae4:	31011d18 	tstcc	r1, r8, lsl sp
    1ae8:	b8015213 	stmdalt	r1, {r0, r1, r4, r9, ip, lr}
    1aec:	17550b42 	ldrbne	r0, [r5, -r2, asr #22]
    1af0:	0b590b58 	bleq	1644858 <__bss_end__+0x1639630>
    1af4:	00000b57 	andeq	r0, r0, r7, asr fp
    1af8:	31000519 	tstcc	r0, r9, lsl r5
    1afc:	000b1c13 	andeq	r1, fp, r3, lsl ip
    1b00:	010b1a00 	tsteq	fp, r0, lsl #20
    1b04:	00001755 	andeq	r1, r0, r5, asr r7
    1b08:	3100341b 	tstcc	r0, fp, lsl r4
    1b0c:	1c000013 	stcne	0, cr0, [r0], {19}
    1b10:	13310034 	teqne	r1, #52, 0	; 0x34
    1b14:	42b71702 	adcsmi	r1, r7, #524288	; 0x80000
    1b18:	1d000017 	stcne	0, cr0, [r0, #-92]	; 0xffffffa4
    1b1c:	01018289 	smlabbeq	r1, r9, r2, r8
    1b20:	13310111 	teqne	r1, #1073741828	; 0x40000004
    1b24:	00001301 	andeq	r1, r0, r1, lsl #6
    1b28:	3f012e1e 	svccc	0x00012e1e
    1b2c:	3a0e0319 	bcc	382798 <__bss_end__+0x377570>
    1b30:	390b3b0b 	stmdbcc	fp, {r0, r1, r3, r8, r9, fp, ip, sp}
    1b34:	2019270b 	andscs	r2, r9, fp, lsl #14
    1b38:	0013010b 	andseq	r0, r3, fp, lsl #2
    1b3c:	00051f00 	andeq	r1, r5, r0, lsl #30
    1b40:	0b3a0803 	bleq	e83b54 <__bss_end__+0xe7892c>
    1b44:	0b390b3b 	bleq	e44838 <__bss_end__+0xe39610>
    1b48:	00001349 	andeq	r1, r0, r9, asr #6
    1b4c:	03000520 	movweq	r0, #1312	; 0x520
    1b50:	3b0b3a0e 	blcc	2d0390 <__bss_end__+0x2c5168>
    1b54:	490b390b 	stmdbmi	fp, {r0, r1, r3, r8, fp, ip, sp}
    1b58:	21000013 	tstcs	r0, r3, lsl r0
    1b5c:	08030034 	stmdaeq	r3, {r2, r4, r5}
    1b60:	0b3b0b3a 	bleq	ec4850 <__bss_end__+0xeb9628>
    1b64:	13490b39 	movtne	r0, #39737	; 0x9b39
    1b68:	2e220000 	cdpcs	0, 2, cr0, cr2, cr0, {0}
    1b6c:	3a0e0301 	bcc	382778 <__bss_end__+0x377550>
    1b70:	390b3b0b 	stmdbcc	fp, {r0, r1, r3, r8, r9, fp, ip, sp}
    1b74:	4919270b 	ldmdbmi	r9, {r0, r1, r3, r8, r9, sl, sp}
    1b78:	010b2013 	tsteq	fp, r3, lsl r0
    1b7c:	23000013 	movwcs	r0, #19
    1b80:	1331012e 	teqne	r1, #-2147483637	; 0x8000000b
    1b84:	06120111 			; <UNDEFINED> instruction: 0x06120111
    1b88:	42971840 	addsmi	r1, r7, #64, 16	; 0x400000
    1b8c:	00130119 	andseq	r0, r3, r9, lsl r1
    1b90:	002e2400 	eoreq	r2, lr, r0, lsl #8
    1b94:	193c193f 	ldmdbne	ip!, {r0, r1, r2, r3, r4, r5, r8, fp, ip}
    1b98:	0e030e6e 	cdpeq	14, 0, cr0, cr3, cr14, {3}
    1b9c:	0b3b0b3a 	bleq	ec488c <__bss_end__+0xeb9664>
    1ba0:	00000b39 	andeq	r0, r0, r9, lsr fp
    1ba4:	01110100 	tsteq	r1, r0, lsl #2
    1ba8:	0b130e25 	bleq	4c5444 <__bss_end__+0x4ba21c>
    1bac:	0e1b0e03 	cdpeq	14, 1, cr0, cr11, cr3, {0}
    1bb0:	06120111 			; <UNDEFINED> instruction: 0x06120111
    1bb4:	00001710 	andeq	r1, r0, r0, lsl r7
    1bb8:	0b002402 	bleq	abc8 <__FUNCTION__.4030+0x18>
    1bbc:	030b3e0b 	movweq	r3, #48651	; 0xbe0b
    1bc0:	03000008 	movweq	r0, #8
    1bc4:	0b0b0024 	bleq	2c1c5c <__bss_end__+0x2b6a34>
    1bc8:	0e030b3e 	vmoveq.16	d3[0], r0
    1bcc:	15040000 	strne	r0, [r4, #-0]
    1bd0:	49192701 	ldmdbmi	r9, {r0, r8, r9, sl, sp}
    1bd4:	00130113 	andseq	r0, r3, r3, lsl r1
    1bd8:	00050500 	andeq	r0, r5, r0, lsl #10
    1bdc:	00001349 	andeq	r1, r0, r9, asr #6
    1be0:	03003406 	movweq	r3, #1030	; 0x406
    1be4:	3b0b3a0e 	blcc	2d0424 <__bss_end__+0x2c51fc>
    1be8:	490b390b 	stmdbmi	fp, {r0, r1, r3, r8, fp, ip, sp}
    1bec:	3c193f13 	ldccc	15, cr3, [r9], {19}
    1bf0:	07000019 	smladeq	r0, r9, r0, r0
    1bf4:	0b0b000f 	bleq	2c1c38 <__bss_end__+0x2b6a10>
    1bf8:	00001349 	andeq	r1, r0, r9, asr #6
    1bfc:	49002608 	stmdbmi	r0, {r3, r9, sl, sp}
    1c00:	09000013 	stmdbeq	r0, {r0, r1, r4}
    1c04:	13470034 	movtne	r0, #28724	; 0x7034
    1c08:	0b3b0b3a 	bleq	ec48f8 <__bss_end__+0xeb96d0>
    1c0c:	18020b39 	stmdane	r2, {r0, r3, r4, r5, r8, r9, fp}
    1c10:	2e0a0000 	cdpcs	0, 0, cr0, cr10, cr0, {0}
    1c14:	03193f01 	tsteq	r9, #1, 30
    1c18:	3b0b3a0e 	blcc	2d0458 <__bss_end__+0x2c5230>
    1c1c:	270b390b 	strcs	r3, [fp, -fp, lsl #18]
    1c20:	12011119 	andne	r1, r1, #1073741830	; 0x40000006
    1c24:	97184006 	ldrls	r4, [r8, -r6]
    1c28:	13011942 	movwne	r1, #6466	; 0x1942
    1c2c:	050b0000 	streq	r0, [fp, #-0]
    1c30:	3a080300 	bcc	202838 <__bss_end__+0x1f7610>
    1c34:	390b3b0b 	stmdbcc	fp, {r0, r1, r3, r8, r9, fp, ip, sp}
    1c38:	0213490b 	andseq	r4, r3, #180224	; 0x2c000
    1c3c:	0c000018 	stceq	0, cr0, [r0], {24}
    1c40:	193f002e 	ldmdbne	pc!, {r1, r2, r3, r5}	; <UNPREDICTABLE>
    1c44:	0b3a0e03 	bleq	e85458 <__bss_end__+0xe7a230>
    1c48:	0b390b3b 	bleq	e4493c <__bss_end__+0xe39714>
    1c4c:	01111927 	tsteq	r1, r7, lsr #18
    1c50:	18400612 	stmdane	r0, {r1, r4, r9, sl}^
    1c54:	00194297 	mulseq	r9, r7, r2
    1c58:	012e0d00 			; <UNDEFINED> instruction: 0x012e0d00
    1c5c:	0b3a0e03 	bleq	e85470 <__bss_end__+0xe7a248>
    1c60:	0b390b3b 	bleq	e44954 <__bss_end__+0xe3972c>
    1c64:	13491927 	movtne	r1, #39207	; 0x9927
    1c68:	06120111 			; <UNDEFINED> instruction: 0x06120111
    1c6c:	42971840 	addsmi	r1, r7, #64, 16	; 0x400000
    1c70:	00130119 	andseq	r0, r3, r9, lsl r1
    1c74:	00050e00 	andeq	r0, r5, r0, lsl #28
    1c78:	0b3a0803 	bleq	e83c8c <__bss_end__+0xe78a64>
    1c7c:	0b390b3b 	bleq	e44970 <__bss_end__+0xe39748>
    1c80:	17021349 	strne	r1, [r2, -r9, asr #6]
    1c84:	001742b7 			; <UNDEFINED> instruction: 0x001742b7
    1c88:	82890f00 	addhi	r0, r9, #0, 30
    1c8c:	01110101 	tsteq	r1, r1, lsl #2
    1c90:	00001331 	andeq	r1, r0, r1, lsr r3
    1c94:	01828a10 	orreq	r8, r2, r0, lsl sl
    1c98:	91180200 	tstls	r8, r0, lsl #4
    1c9c:	00001842 	andeq	r1, r0, r2, asr #16
    1ca0:	3f002e11 	svccc	0x00002e11
    1ca4:	6e193c19 	mrcvs	12, 0, r3, cr9, cr9, {0}
    1ca8:	3a0e030e 	bcc	3828e8 <__bss_end__+0x3776c0>
    1cac:	390b3b0b 	stmdbcc	fp, {r0, r1, r3, r8, r9, fp, ip, sp}
    1cb0:	0000000b 	andeq	r0, r0, fp
    1cb4:	25011101 	strcs	r1, [r1, #-257]	; 0xfffffeff
    1cb8:	030b130e 	movweq	r1, #45838	; 0xb30e
    1cbc:	110e1b0e 	tstne	lr, lr, lsl #22
    1cc0:	10061201 	andne	r1, r6, r1, lsl #4
    1cc4:	02000017 	andeq	r0, r0, #23, 0
    1cc8:	0b0b0024 	bleq	2c1d60 <__bss_end__+0x2b6b38>
    1ccc:	08030b3e 	stmdaeq	r3, {r1, r2, r3, r4, r5, r8, r9, fp}
    1cd0:	24030000 	strcs	r0, [r3], #-0
    1cd4:	3e0b0b00 	vmlacc.f64	d0, d11, d0
    1cd8:	000e030b 	andeq	r0, lr, fp, lsl #6
    1cdc:	01150400 	tsteq	r5, r0, lsl #8
    1ce0:	13491927 	movtne	r1, #39207	; 0x9927
    1ce4:	00001301 	andeq	r1, r0, r1, lsl #6
    1ce8:	49000505 	stmdbmi	r0, {r0, r2, r8, sl}
    1cec:	06000013 			; <UNDEFINED> instruction: 0x06000013
    1cf0:	0e030034 	mcreq	0, 0, r0, cr3, cr4, {1}
    1cf4:	0b3b0b3a 	bleq	ec49e4 <__bss_end__+0xeb97bc>
    1cf8:	13490b39 	movtne	r0, #39737	; 0x9b39
    1cfc:	193c193f 	ldmdbne	ip!, {r0, r1, r2, r3, r4, r5, r8, fp, ip}
    1d00:	0f070000 	svceq	0x00070000
    1d04:	490b0b00 	stmdbmi	fp, {r8, r9, fp}
    1d08:	08000013 	stmdaeq	r0, {r0, r1, r4}
    1d0c:	13490026 	movtne	r0, #36902	; 0x9026
    1d10:	2e090000 	cdpcs	0, 0, cr0, cr9, cr0, {0}
    1d14:	03193f01 	tsteq	r9, #1, 30
    1d18:	3b0b3a0e 	blcc	2d0558 <__bss_end__+0x2c5330>
    1d1c:	270b390b 	strcs	r3, [fp, -fp, lsl #18]
    1d20:	11134919 	tstne	r3, r9, lsl r9
    1d24:	40061201 	andmi	r1, r6, r1, lsl #4
    1d28:	19429718 	stmdbne	r2, {r3, r4, r8, r9, sl, ip, pc}^
    1d2c:	00001301 	andeq	r1, r0, r1, lsl #6
    1d30:	0300050a 	movweq	r0, #1290	; 0x50a
    1d34:	3b0b3a0e 	blcc	2d0574 <__bss_end__+0x2c534c>
    1d38:	490b390b 	stmdbmi	fp, {r0, r1, r3, r8, fp, ip, sp}
    1d3c:	00180213 	andseq	r0, r8, r3, lsl r2
    1d40:	00050b00 	andeq	r0, r5, r0, lsl #22
    1d44:	0b3a0803 	bleq	e83d58 <__bss_end__+0xe78b30>
    1d48:	0b390b3b 	bleq	e44a3c <__bss_end__+0xe39814>
    1d4c:	17021349 	strne	r1, [r2, -r9, asr #6]
    1d50:	001742b7 			; <UNDEFINED> instruction: 0x001742b7
    1d54:	00340c00 	eorseq	r0, r4, r0, lsl #24
    1d58:	0b3a0803 	bleq	e83d6c <__bss_end__+0xe78b44>
    1d5c:	0b390b3b 	bleq	e44a50 <__bss_end__+0xe39828>
    1d60:	17021349 	strne	r1, [r2, -r9, asr #6]
    1d64:	001742b7 			; <UNDEFINED> instruction: 0x001742b7
    1d68:	11010000 	mrsne	r0, (UNDEF: 1)
    1d6c:	130e2501 	movwne	r2, #58625	; 0xe501
    1d70:	1b0e030b 	blne	3829a4 <__bss_end__+0x37777c>
    1d74:	1201110e 	andne	r1, r1, #-2147483645	; 0x80000003
    1d78:	00171006 	andseq	r1, r7, r6
    1d7c:	00240200 	eoreq	r0, r4, r0, lsl #4
    1d80:	0b3e0b0b 	bleq	f849b4 <__bss_end__+0xf7978c>
    1d84:	00000803 	andeq	r0, r0, r3, lsl #16
    1d88:	0b002403 	bleq	ad9c <__FUNCTION__.5+0x8>
    1d8c:	030b3e0b 	movweq	r3, #48651	; 0xbe0b
    1d90:	0400000e 	streq	r0, [r0], #-14
    1d94:	19270115 	stmdbne	r7!, {r0, r2, r4, r8}
    1d98:	13011349 	movwne	r1, #4937	; 0x1349
    1d9c:	05050000 	streq	r0, [r5, #-0]
    1da0:	00134900 	andseq	r4, r3, r0, lsl #18
    1da4:	00340600 	eorseq	r0, r4, r0, lsl #12
    1da8:	0b3a0e03 	bleq	e855bc <__bss_end__+0xe7a394>
    1dac:	0b390b3b 	bleq	e44aa0 <__bss_end__+0xe39878>
    1db0:	193f1349 	ldmdbne	pc!, {r0, r3, r6, r8, r9, ip}	; <UNPREDICTABLE>
    1db4:	0000193c 	andeq	r1, r0, ip, lsr r9
    1db8:	0b000f07 	bleq	59dc <__code_start__-0x2624>
    1dbc:	0013490b 	andseq	r4, r3, fp, lsl #18
    1dc0:	00260800 	eoreq	r0, r6, r0, lsl #16
    1dc4:	00001349 	andeq	r1, r0, r9, asr #6
    1dc8:	3f012e09 	svccc	0x00012e09
    1dcc:	3a0e0319 	bcc	382a38 <__bss_end__+0x377810>
    1dd0:	390b3b0b 	stmdbcc	fp, {r0, r1, r3, r8, r9, fp, ip, sp}
    1dd4:	4919270b 	ldmdbmi	r9, {r0, r1, r3, r8, r9, sl, sp}
    1dd8:	12011113 	andne	r1, r1, #-1073741820	; 0xc0000004
    1ddc:	97184006 	ldrls	r4, [r8, -r6]
    1de0:	00001942 	andeq	r1, r0, r2, asr #18
    1de4:	0300050a 	movweq	r0, #1290	; 0x50a
    1de8:	3b0b3a08 	blcc	2d0610 <__bss_end__+0x2c53e8>
    1dec:	490b390b 	stmdbmi	fp, {r0, r1, r3, r8, fp, ip, sp}
    1df0:	b7170213 			; <UNDEFINED> instruction: 0xb7170213
    1df4:	00001742 	andeq	r1, r0, r2, asr #14
    1df8:	01110100 	tsteq	r1, r0, lsl #2
    1dfc:	0b130e25 	bleq	4c5698 <__bss_end__+0x4ba470>
    1e00:	0e1b0e03 	cdpeq	14, 1, cr0, cr11, cr3, {0}
    1e04:	06120111 			; <UNDEFINED> instruction: 0x06120111
    1e08:	00001710 	andeq	r1, r0, r0, lsl r7
    1e0c:	0b002402 	bleq	ae1c <buf.3944>
    1e10:	030b3e0b 	movweq	r3, #48651	; 0xbe0b
    1e14:	03000008 	movweq	r0, #8
    1e18:	0b0b0024 	bleq	2c1eb0 <__bss_end__+0x2b6c88>
    1e1c:	0e030b3e 	vmoveq.16	d3[0], r0
    1e20:	15040000 	strne	r0, [r4, #-0]
    1e24:	49192701 	ldmdbmi	r9, {r0, r8, r9, sl, sp}
    1e28:	00130113 	andseq	r0, r3, r3, lsl r1
    1e2c:	00050500 	andeq	r0, r5, r0, lsl #10
    1e30:	00001349 	andeq	r1, r0, r9, asr #6
    1e34:	03003406 	movweq	r3, #1030	; 0x406
    1e38:	3b0b3a0e 	blcc	2d0678 <__bss_end__+0x2c5450>
    1e3c:	490b390b 	stmdbmi	fp, {r0, r1, r3, r8, fp, ip, sp}
    1e40:	3c193f13 	ldccc	15, cr3, [r9], {19}
    1e44:	07000019 	smladeq	r0, r9, r0, r0
    1e48:	0b0b000f 	bleq	2c1e8c <__bss_end__+0x2b6c64>
    1e4c:	00001349 	andeq	r1, r0, r9, asr #6
    1e50:	49002608 	stmdbmi	r0, {r3, r9, sl, sp}
    1e54:	09000013 	stmdbeq	r0, {r0, r1, r4}
    1e58:	193f012e 	ldmdbne	pc!, {r1, r2, r3, r5, r8}	; <UNPREDICTABLE>
    1e5c:	0b3a0e03 	bleq	e85670 <__bss_end__+0xe7a448>
    1e60:	0b390b3b 	bleq	e44b54 <__bss_end__+0xe3992c>
    1e64:	13491927 	movtne	r1, #39207	; 0x9927
    1e68:	06120111 			; <UNDEFINED> instruction: 0x06120111
    1e6c:	42971840 	addsmi	r1, r7, #64, 16	; 0x400000
    1e70:	00130119 	andseq	r0, r3, r9, lsl r1
    1e74:	00050a00 	andeq	r0, r5, r0, lsl #20
    1e78:	0b3a0803 	bleq	e83e8c <__bss_end__+0xe78c64>
    1e7c:	0b390b3b 	bleq	e44b70 <__bss_end__+0xe39948>
    1e80:	18021349 	stmdane	r2, {r0, r3, r6, r8, r9, ip}
    1e84:	050b0000 	streq	r0, [fp, #-0]
    1e88:	3a080300 	bcc	202a90 <__bss_end__+0x1f7868>
    1e8c:	390b3b0b 	stmdbcc	fp, {r0, r1, r3, r8, r9, fp, ip, sp}
    1e90:	0213490b 	andseq	r4, r3, #180224	; 0x2c000
    1e94:	1742b717 	smlaldne	fp, r2, r7, r7
    1e98:	340c0000 	strcc	r0, [ip], #-0
    1e9c:	3a080300 	bcc	202aa4 <__bss_end__+0x1f787c>
    1ea0:	390b3b0b 	stmdbcc	fp, {r0, r1, r3, r8, r9, fp, ip, sp}
    1ea4:	0213490b 	andseq	r4, r3, #180224	; 0x2c000
    1ea8:	1742b717 	smlaldne	fp, r2, r7, r7
    1eac:	01000000 	mrseq	r0, (UNDEF: 0)
    1eb0:	0e250111 	mcreq	1, 1, r0, cr5, cr1, {0}
    1eb4:	0e030b13 	vmoveq.32	d3[0], r0
    1eb8:	01110e1b 	tsteq	r1, fp, lsl lr
    1ebc:	17100612 			; <UNDEFINED> instruction: 0x17100612
    1ec0:	24020000 	strcs	r0, [r2], #-0
    1ec4:	3e0b0b00 	vmlacc.f64	d0, d11, d0
    1ec8:	0008030b 	andeq	r0, r8, fp, lsl #6
    1ecc:	00160300 	andseq	r0, r6, r0, lsl #6
    1ed0:	0b3a0e03 	bleq	e856e4 <__bss_end__+0xe7a4bc>
    1ed4:	0b390b3b 	bleq	e44bc8 <__bss_end__+0xe399a0>
    1ed8:	00001349 	andeq	r1, r0, r9, asr #6
    1edc:	0b002404 	bleq	aef4 <buf.3944+0xd8>
    1ee0:	030b3e0b 	movweq	r3, #48651	; 0xbe0b
    1ee4:	0500000e 	streq	r0, [r0, #-14]
    1ee8:	13490026 	movtne	r0, #36902	; 0x9026
    1eec:	15060000 	strne	r0, [r6, #-0]
    1ef0:	49192701 	ldmdbmi	r9, {r0, r8, r9, sl, sp}
    1ef4:	00130113 	andseq	r0, r3, r3, lsl r1
    1ef8:	00050700 	andeq	r0, r5, r0, lsl #14
    1efc:	00001349 	andeq	r1, r0, r9, asr #6
    1f00:	03003408 	movweq	r3, #1032	; 0x408
    1f04:	3b0b3a0e 	blcc	2d0744 <__bss_end__+0x2c551c>
    1f08:	490b390b 	stmdbmi	fp, {r0, r1, r3, r8, fp, ip, sp}
    1f0c:	3c193f13 	ldccc	15, cr3, [r9], {19}
    1f10:	09000019 	stmdbeq	r0, {r0, r3, r4}
    1f14:	0b0b000f 	bleq	2c1f58 <__bss_end__+0x2b6d30>
    1f18:	00001349 	andeq	r1, r0, r9, asr #6
    1f1c:	3f012e0a 	svccc	0x00012e0a
    1f20:	3a0e0319 	bcc	382b8c <__bss_end__+0x377964>
    1f24:	390b3b0b 	stmdbcc	fp, {r0, r1, r3, r8, r9, fp, ip, sp}
    1f28:	4919270b 	ldmdbmi	r9, {r0, r1, r3, r8, r9, sl, sp}
    1f2c:	12011113 	andne	r1, r1, #-1073741820	; 0xc0000004
    1f30:	97184006 	ldrls	r4, [r8, -r6]
    1f34:	13011942 	movwne	r1, #6466	; 0x1942
    1f38:	050b0000 	streq	r0, [fp, #-0]
    1f3c:	3a080300 	bcc	202b44 <__bss_end__+0x1f791c>
    1f40:	390b3b0b 	stmdbcc	fp, {r0, r1, r3, r8, r9, fp, ip, sp}
    1f44:	0213490b 	andseq	r4, r3, #180224	; 0x2c000
    1f48:	1742b717 	smlaldne	fp, r2, r7, r7
    1f4c:	340c0000 	strcc	r0, [ip], #-0
    1f50:	3a080300 	bcc	202b58 <__bss_end__+0x1f7930>
    1f54:	390b3b0b 	stmdbcc	fp, {r0, r1, r3, r8, r9, fp, ip, sp}
    1f58:	0213490b 	andseq	r4, r3, #180224	; 0x2c000
    1f5c:	1742b717 	smlaldne	fp, r2, r7, r7
    1f60:	01000000 	mrseq	r0, (UNDEF: 0)
    1f64:	0e250111 	mcreq	1, 1, r0, cr5, cr1, {0}
    1f68:	0e030b13 	vmoveq.32	d3[0], r0
    1f6c:	01110e1b 	tsteq	r1, fp, lsl lr
    1f70:	17100612 			; <UNDEFINED> instruction: 0x17100612
    1f74:	24020000 	strcs	r0, [r2], #-0
    1f78:	3e0b0b00 	vmlacc.f64	d0, d11, d0
    1f7c:	0008030b 	andeq	r0, r8, fp, lsl #6
    1f80:	00240300 	eoreq	r0, r4, r0, lsl #6
    1f84:	0b3e0b0b 	bleq	f84bb8 <__bss_end__+0xf79990>
    1f88:	00000e03 	andeq	r0, r0, r3, lsl #28
    1f8c:	27011504 	strcs	r1, [r1, -r4, lsl #10]
    1f90:	01134919 	tsteq	r3, r9, lsl r9
    1f94:	05000013 	streq	r0, [r0, #-19]	; 0xffffffed
    1f98:	13490005 	movtne	r0, #36869	; 0x9005
    1f9c:	34060000 	strcc	r0, [r6], #-0
    1fa0:	3a0e0300 	bcc	382ba8 <__bss_end__+0x377980>
    1fa4:	390b3b0b 	stmdbcc	fp, {r0, r1, r3, r8, r9, fp, ip, sp}
    1fa8:	3f13490b 	svccc	0x0013490b
    1fac:	00193c19 	andseq	r3, r9, r9, lsl ip
    1fb0:	000f0700 	andeq	r0, pc, r0, lsl #14
    1fb4:	13490b0b 	movtne	r0, #39691	; 0x9b0b
    1fb8:	26080000 	strcs	r0, [r8], -r0
    1fbc:	00134900 	andseq	r4, r3, r0, lsl #18
    1fc0:	002e0900 	eoreq	r0, lr, r0, lsl #18
    1fc4:	0e03193f 			; <UNDEFINED> instruction: 0x0e03193f
    1fc8:	0b3b0b3a 	bleq	ec4cb8 <__bss_end__+0xeb9a90>
    1fcc:	19270b39 	stmdbne	r7!, {r0, r3, r4, r5, r8, r9, fp}
    1fd0:	06120111 			; <UNDEFINED> instruction: 0x06120111
    1fd4:	42971840 	addsmi	r1, r7, #64, 16	; 0x400000
    1fd8:	00000019 	andeq	r0, r0, r9, lsl r0

Disassembly of section .debug_loc:

00000000 <.debug_loc>:
       0:	00000000 	andeq	r0, r0, r0
       4:	00c40000 	sbceq	r0, r4, r0
       8:	00cc0000 	sbceq	r0, ip, r0
       c:	00010000 	andeq	r0, r1, r0
      10:	0000cc50 	andeq	ip, r0, r0, asr ip
      14:	0000cf00 	andeq	ip, r0, r0, lsl #30
      18:	51000100 	mrspl	r0, (UNDEF: 16)
      1c:	000000cf 	andeq	r0, r0, pc, asr #1
      20:	00000150 	andeq	r0, r0, r0, asr r1
      24:	00540001 	subseq	r0, r4, r1
	...
      34:	00006c00 	andeq	r6, r0, r0, lsl #24
      38:	00006f00 	andeq	r6, r0, r0, lsl #30
      3c:	50000100 	andpl	r0, r0, r0, lsl #2
      40:	0000006f 	andeq	r0, r0, pc, rrx
      44:	0000008c 	andeq	r0, r0, ip, lsl #1
      48:	8c540001 	mrrchi	0, 0, r0, r4, cr1
      4c:	98000000 	stmdals	r0, {}	; <UNPREDICTABLE>
      50:	03000000 	movweq	r0, #0
      54:	9f7f7000 	svcls	0x007f7000
	...
      60:	00400001 	subeq	r0, r0, r1
      64:	00580000 	subseq	r0, r8, r0
      68:	00020000 	andeq	r0, r2, r0
      6c:	00009f3c 	andeq	r9, r0, ip, lsr pc
      70:	00000000 	andeq	r0, r0, r0
      74:	00010000 	andeq	r0, r1, r0
      78:	00000040 	andeq	r0, r0, r0, asr #32
      7c:	00000058 	andeq	r0, r0, r8, asr r0
      80:	a1f20006 	mvnsge	r0, r6
      84:	00000004 	andeq	r0, r0, r4
	...
      90:	00400001 	subeq	r0, r0, r1
      94:	00580000 	subseq	r0, r8, r0
      98:	00060000 	andeq	r0, r6, r0
      9c:	00a52003 	adceq	r2, r5, r3
      a0:	00009f00 	andeq	r9, r0, r0, lsl #30
	...
      ac:	00100000 	andseq	r0, r0, r0
      b0:	00200000 	eoreq	r0, r0, r0
      b4:	00010000 	andeq	r0, r1, r0
      b8:	00002050 	andeq	r2, r0, r0, asr r0
      bc:	00002400 	andeq	r2, r0, r0, lsl #8
      c0:	f3000400 	vshl.u8	d0, d0, d0
      c4:	009f5001 	addseq	r5, pc, r1
      c8:	00000000 	andeq	r0, r0, r0
      cc:	01000000 	mrseq	r0, (UNDEF: 0)
      d0:	1c000000 	stcne	0, cr0, [r0], {-0}
      d4:	20000000 	andcs	r0, r0, r0
      d8:	01000000 	mrseq	r0, (UNDEF: 0)
      dc:	00205000 	eoreq	r5, r0, r0
      e0:	00240000 	eoreq	r0, r4, r0
      e4:	00040000 	andeq	r0, r4, r0
      e8:	9f5001f3 	svcls	0x005001f3
	...
      f8:	03440000 	movteq	r0, #16384	; 0x4000
      fc:	035c0000 	cmpeq	ip, #0, 0
     100:	00010000 	andeq	r0, r1, r0
     104:	00035c50 	andeq	r5, r3, r0, asr ip
     108:	00043000 	andeq	r3, r4, r0
     10c:	55000100 	strpl	r0, [r0, #-256]	; 0xffffff00
     110:	00000430 	andeq	r0, r0, r0, lsr r4
     114:	00000440 	andeq	r0, r0, r0, asr #8
     118:	01f30004 	mvnseq	r0, r4
     11c:	00009f50 	andeq	r9, r0, r0, asr pc
	...
     12c:	0000036c 	andeq	r0, r0, ip, ror #6
     130:	00000377 	andeq	r0, r0, r7, ror r3
     134:	77500001 	ldrbvc	r0, [r0, -r1]
     138:	30000003 	andcc	r0, r0, r3
     13c:	01000004 	tsteq	r0, r4
     140:	04305400 	ldrteq	r5, [r0], #-1024	; 0xfffffc00
     144:	04400000 	strbeq	r0, [r0], #-0
     148:	00040000 	andeq	r0, r4, r0
     14c:	9f7ec870 	svcls	0x007ec870
	...
     158:	00000002 	andeq	r0, r0, r2
     15c:	00000378 	andeq	r0, r0, r8, ror r3
     160:	0000037c 	andeq	r0, r0, ip, ror r3
     164:	9f300002 	svcls	0x00300002
     168:	0000037c 	andeq	r0, r0, ip, ror r3
     16c:	000003ac 	andeq	r0, r0, ip, lsr #7
     170:	00530001 	subseq	r0, r3, r1
     174:	00000000 	andeq	r0, r0, r0
     178:	03000000 	movweq	r0, #0
     17c:	f0000000 			; <UNDEFINED> instruction: 0xf0000000
     180:	f4000003 	vst4.8	{d0-d3}, [r0], r3
     184:	02000003 	andeq	r0, r0, #3, 0
     188:	f49f3000 			; <UNDEFINED> instruction: 0xf49f3000
     18c:	30000003 	andcc	r0, r0, r3
     190:	01000004 	tsteq	r0, r4
     194:	00005600 	andeq	r5, r0, r0, lsl #12
	...
     1a0:	00000408 	andeq	r0, r0, r8, lsl #8
     1a4:	00000414 	andeq	r0, r0, r4, lsl r4
     1a8:	00500001 	subseq	r0, r0, r1
	...
     1bc:	f4000000 	vst4.8	{d0-d3}, [r0], r0
     1c0:	1c000002 	stcne	0, cr0, [r0], {2}
     1c4:	01000003 	tsteq	r0, r3
     1c8:	031c5000 	tsteq	ip, #0, 0
     1cc:	03240000 			; <UNDEFINED> instruction: 0x03240000
     1d0:	00040000 	andeq	r0, r4, r0
     1d4:	9f5001f3 	svcls	0x005001f3
     1d8:	00000324 	andeq	r0, r0, r4, lsr #6
     1dc:	00000328 	andeq	r0, r0, r8, lsr #6
     1e0:	28500001 	ldmdacs	r0, {r0}^
     1e4:	2c000003 	stccs	0, cr0, [r0], {3}
     1e8:	04000003 	streq	r0, [r0], #-3
     1ec:	5001f300 	andpl	pc, r1, r0, lsl #6
     1f0:	00032c9f 	muleq	r3, pc, ip	; <UNPREDICTABLE>
     1f4:	00033000 	andeq	r3, r3, r0
     1f8:	50000100 	andpl	r0, r0, r0, lsl #2
     1fc:	00000330 	andeq	r0, r0, r0, lsr r3
     200:	00000338 	andeq	r0, r0, r8, lsr r3
     204:	01f30004 	mvnseq	r0, r4
     208:	00009f50 	andeq	r9, r0, r0, asr pc
	...
     218:	01840000 	orreq	r0, r4, r0
     21c:	019c0000 	orrseq	r0, ip, r0
     220:	00010000 	andeq	r0, r1, r0
     224:	00019c50 	andeq	r9, r1, r0, asr ip
     228:	0002b400 	andeq	fp, r2, r0, lsl #8
     22c:	54000100 	strpl	r0, [r0], #-256	; 0xffffff00
     230:	000002b4 			; <UNDEFINED> instruction: 0x000002b4
     234:	000002c8 	andeq	r0, r0, r8, asr #5
     238:	98740004 	ldmdals	r4!, {r2}^
     23c:	02c89f01 	sbceq	r9, r8, #1, 30
     240:	02e00000 	rsceq	r0, r0, #0, 0
     244:	00040000 	andeq	r0, r4, r0
     248:	9f5001f3 	svcls	0x005001f3
	...
     254:	00020201 	andeq	r0, r2, r1, lsl #4
     258:	00000000 	andeq	r0, r0, r0
     25c:	000001a0 	andeq	r0, r0, r0, lsr #3
     260:	000001a0 	andeq	r0, r0, r0, lsr #3
     264:	a0540001 	subsge	r0, r4, r1
     268:	b4000001 	strlt	r0, [r0], #-1
     26c:	04000002 	streq	r0, [r0], #-2
     270:	7ec87400 	cdpvc	4, 12, cr7, cr8, cr0, {0}
     274:	0002b49f 	muleq	r2, pc, r4	; <UNPREDICTABLE>
     278:	0002c800 	andeq	ip, r2, r0, lsl #16
     27c:	74000300 	strvc	r0, [r0], #-768	; 0xfffffd00
     280:	02c89f60 	sbceq	r9, r8, #96, 30	; 0x180
     284:	02e00000 	rsceq	r0, r0, #0, 0
     288:	00070000 	andeq	r0, r7, r0
     28c:	085001f3 	ldmdaeq	r0, {r0, r1, r4, r5, r6, r7, r8}^
     290:	009f1cb8 			; <UNDEFINED> instruction: 0x009f1cb8
	...
     2a0:	e8000000 	stmda	r0, {}	; <UNPREDICTABLE>
     2a4:	1c000001 	stcne	0, cr0, [r0], {1}
     2a8:	01000002 	tsteq	r0, r2
     2ac:	02445300 	subeq	r5, r4, #0, 6
     2b0:	02470000 	subeq	r0, r7, #0, 0
     2b4:	00010000 	andeq	r0, r1, r0
     2b8:	00026853 	andeq	r6, r2, r3, asr r8
     2bc:	00026b00 	andeq	r6, r2, r0, lsl #22
     2c0:	53000100 	movwpl	r0, #256	; 0x100
     2c4:	0000028c 	andeq	r0, r0, ip, lsl #5
     2c8:	00000290 	muleq	r0, r0, r2
     2cc:	00530001 	subseq	r0, r3, r1
	...
     2d8:	00029000 	andeq	r9, r2, r0
     2dc:	0002ac00 	andeq	sl, r2, r0, lsl #24
     2e0:	53000100 	movwpl	r0, #256	; 0x100
	...
     2f0:	00000118 	andeq	r0, r0, r8, lsl r1
     2f4:	0000012b 	andeq	r0, r0, fp, lsr #2
     2f8:	2b500001 	blcs	1400304 <__bss_end__+0x13f50dc>
     2fc:	78000001 	stmdavc	r0, {r0}
     300:	01000001 	tsteq	r0, r1
     304:	00005500 	andeq	r5, r0, r0, lsl #10
	...
     314:	01300000 	teqeq	r0, r0
     318:	01430000 	mrseq	r0, (UNDEF: 67)
     31c:	00010000 	andeq	r0, r1, r0
     320:	00014350 	andeq	r4, r1, r0, asr r3
     324:	00015800 	andeq	r5, r1, r0, lsl #16
     328:	54000100 	strpl	r0, [r0], #-256	; 0xffffff00
     32c:	00000158 	andeq	r0, r0, r8, asr r1
     330:	0000015c 	andeq	r0, r0, ip, asr r1
     334:	5c500001 	mrrcpl	0, 0, r0, r0, cr1	; <UNPREDICTABLE>
     338:	78000001 	stmdavc	r0, {r0}
     33c:	01000001 	tsteq	r0, r1
     340:	00005400 	andeq	r5, r0, r0, lsl #8
	...
     34c:	00c80000 	sbceq	r0, r8, r0
     350:	00df0000 	sbcseq	r0, pc, r0
     354:	00010000 	andeq	r0, r1, r0
     358:	0000df50 	andeq	sp, r0, r0, asr pc
     35c:	00010000 	andeq	r0, r1, r0
     360:	56000100 	strpl	r0, [r0], -r0, lsl #2
	...
     370:	000000c8 	andeq	r0, r0, r8, asr #1
     374:	000000df 	ldrdeq	r0, [r0], -pc	; <UNPREDICTABLE>
     378:	df510001 	svcle	0x00510001
     37c:	00000000 	andeq	r0, r0, r0
     380:	01000001 	tsteq	r0, r1
     384:	00005400 	andeq	r5, r0, r0, lsl #8
	...
     390:	00e40000 	rsceq	r0, r4, r0
     394:	00e80000 	rsceq	r0, r8, r0
     398:	00010000 	andeq	r0, r1, r0
     39c:	0000e850 	andeq	lr, r0, r0, asr r8
     3a0:	00010000 	andeq	r0, r1, r0
     3a4:	55000100 	strpl	r0, [r0, #-256]	; 0xffffff00
	...
     3b0:	00ec0000 	rsceq	r0, ip, r0
     3b4:	00f80000 	rscseq	r0, r8, r0
     3b8:	00010000 	andeq	r0, r1, r0
     3bc:	00000050 	andeq	r0, r0, r0, asr r0
	...
     3c8:	00009400 	andeq	r9, r0, r0, lsl #8
     3cc:	0000a700 	andeq	sl, r0, r0, lsl #14
     3d0:	50000100 	andpl	r0, r0, r0, lsl #2
     3d4:	000000a7 	andeq	r0, r0, r7, lsr #1
     3d8:	000000b4 	strheq	r0, [r0], -r4
     3dc:	00540001 	subseq	r0, r4, r1
	...
     3e8:	0000a800 	andeq	sl, r0, r0, lsl #16
     3ec:	0000ac00 	andeq	sl, r0, r0, lsl #24
     3f0:	54000100 	strpl	r0, [r0], #-256	; 0xffffff00
	...
     400:	00000070 	andeq	r0, r0, r0, ror r0
     404:	00000080 	andeq	r0, r0, r0, lsl #1
     408:	80500001 	subshi	r0, r0, r1
     40c:	84000000 	strhi	r0, [r0], #-0
     410:	04000000 	streq	r0, [r0], #-0
     414:	7ec87000 	cdpvc	0, 12, cr7, cr8, cr0, {0}
     418:	0000009f 	muleq	r0, pc, r0	; <UNPREDICTABLE>
	...
     424:	00004000 	andeq	r4, r0, r0
     428:	00005800 	andeq	r5, r0, r0, lsl #16
     42c:	50000100 	andpl	r0, r0, r0, lsl #2
     430:	00000058 	andeq	r0, r0, r8, asr r0
     434:	0000005c 	andeq	r0, r0, ip, asr r0
     438:	01f30004 	mvnseq	r0, r4
     43c:	00009f50 	andeq	r9, r0, r0, asr pc
	...
     44c:	001c0000 	andseq	r0, ip, r0
     450:	008c0000 	addeq	r0, ip, r0
     454:	00010000 	andeq	r0, r1, r0
     458:	00008c51 	andeq	r8, r0, r1, asr ip
     45c:	00009800 	andeq	r9, r0, r0, lsl #16
     460:	70000300 	andvc	r0, r0, r0, lsl #6
     464:	00989f78 	addseq	r9, r8, r8, ror pc
     468:	00b80000 	adcseq	r0, r8, r0
     46c:	00010000 	andeq	r0, r1, r0
     470:	0000b851 	andeq	fp, r0, r1, asr r8
     474:	0000d000 	andeq	sp, r0, r0
     478:	70000300 	andvc	r0, r0, r0, lsl #6
     47c:	00009f78 	andeq	r9, r0, r8, ror pc
	...
     488:	00240000 	eoreq	r0, r4, r0
     48c:	005c0000 	subseq	r0, ip, r0
     490:	00010000 	andeq	r0, r1, r0
     494:	00006053 	andeq	r6, r0, r3, asr r0
     498:	0000d000 	andeq	sp, r0, r0
     49c:	53000100 	movwpl	r0, #256	; 0x100
	...
     4b0:	0000014c 	andeq	r0, r0, ip, asr #2
     4b4:	00000178 	andeq	r0, r0, r8, ror r1
     4b8:	78500001 	ldmdavc	r0, {r0}^
     4bc:	7c000001 	stcvc	0, cr0, [r0], {1}
     4c0:	04000001 	streq	r0, [r0], #-1
     4c4:	5001f300 	andpl	pc, r1, r0, lsl #6
     4c8:	00017c9f 	muleq	r1, pc, ip	; <UNPREDICTABLE>
     4cc:	00019400 	andeq	r9, r1, r0, lsl #8
     4d0:	50000100 	andpl	r0, r0, r0, lsl #2
     4d4:	00000194 	muleq	r0, r4, r1
     4d8:	00000200 	andeq	r0, r0, r0, lsl #4
     4dc:	01f30004 	mvnseq	r0, r4
     4e0:	00009f50 	andeq	r9, r0, r0, asr pc
	...
     4f0:	00010100 	andeq	r0, r1, r0, lsl #2
     4f4:	00000000 	andeq	r0, r0, r0
     4f8:	00000178 	andeq	r0, r0, r8, ror r1
     4fc:	0000017c 	andeq	r0, r0, ip, ror r1
     500:	94500001 	ldrbls	r0, [r0], #-1
     504:	b4000001 	strlt	r0, [r0], #-1
     508:	01000001 	tsteq	r0, r1
     50c:	01b45000 			; <UNDEFINED> instruction: 0x01b45000
     510:	01b80000 			; <UNDEFINED> instruction: 0x01b80000
     514:	00030000 	andeq	r0, r3, r0
     518:	b89f7870 	ldmlt	pc, {r4, r5, r6, fp, ip, sp, lr}	; <UNPREDICTABLE>
     51c:	c4000001 	strgt	r0, [r0], #-1
     520:	01000001 	tsteq	r0, r1
     524:	01c45000 	biceq	r5, r4, r0
     528:	01cc0000 	biceq	r0, ip, r0
     52c:	00020000 	andeq	r0, r2, r0
     530:	01cc0070 	biceq	r0, ip, r0, ror r0
     534:	01ec0000 	mvneq	r0, r0
     538:	00010000 	andeq	r0, r1, r0
     53c:	0001f050 	andeq	pc, r1, r0, asr r0	; <UNPREDICTABLE>
     540:	00020000 	andeq	r0, r2, r0
     544:	50000100 	andpl	r0, r0, r0, lsl #2
	...
     550:	00010100 	andeq	r0, r1, r0, lsl #2
     554:	00010000 	andeq	r0, r1, r0
     558:	016c0000 	cmneq	ip, r0
     55c:	017c0000 	cmneq	ip, r0
     560:	00010000 	andeq	r0, r1, r0
     564:	00017c52 	andeq	r7, r1, r2, asr ip
     568:	00019400 	andeq	r9, r1, r0, lsl #8
     56c:	03000600 	movweq	r0, #1536	; 0x600
     570:	0000ae08 	andeq	sl, r0, r8, lsl #28
     574:	0001949f 	muleq	r1, pc, r4	; <UNPREDICTABLE>
     578:	0001c400 	andeq	ip, r1, r0, lsl #8
     57c:	52000100 	andpl	r0, r0, #0
     580:	000001c4 	andeq	r0, r0, r4, asr #3
     584:	000001cc 	andeq	r0, r0, ip, asr #3
     588:	cc500001 	mrrcgt	0, 0, r0, r0, cr1	; <UNPREDICTABLE>
     58c:	ef000001 	svc	0x00000001
     590:	01000001 	tsteq	r0, r1
     594:	00005200 	andeq	r5, r0, r0, lsl #4
	...
     5a0:	00000164 	andeq	r0, r0, r4, ror #2
     5a4:	00000200 	andeq	r0, r0, r0, lsl #4
     5a8:	00540001 	subseq	r0, r4, r1
	...
     5b4:	e0000000 	and	r0, r0, r0
     5b8:	f8000000 			; <UNDEFINED> instruction: 0xf8000000
     5bc:	01000000 	mrseq	r0, (UNDEF: 0)
     5c0:	00f85000 	rscseq	r5, r8, r0
     5c4:	013c0000 	teqeq	ip, r0
     5c8:	00010000 	andeq	r0, r1, r0
     5cc:	00000054 	andeq	r0, r0, r4, asr r0
	...
     5d8:	0c000000 	stceq	0, cr0, [r0], {-0}
     5dc:	1c000001 	stcne	0, cr0, [r0], {1}
     5e0:	01000001 	tsteq	r0, r1
     5e4:	011c5000 	tsteq	ip, r0
     5e8:	011f0000 	tsteq	pc, r0
     5ec:	00030000 	andeq	r0, r3, r0
     5f0:	2c9f7870 	ldccs	8, cr7, [pc], {112}	; 0x70
     5f4:	30000001 	andcc	r0, r0, r1
     5f8:	01000001 	tsteq	r0, r1
     5fc:	00005000 	andeq	r5, r0, r0
     600:	00000000 	andeq	r0, r0, r0
     604:	00010000 	andeq	r0, r1, r0
     608:	01140000 	tsteq	r4, r0
     60c:	011c0000 	tsteq	ip, r0
     610:	00010000 	andeq	r0, r1, r0
     614:	00011c50 	andeq	r1, r1, r0, asr ip
     618:	00011f00 	andeq	r1, r1, r0, lsl #30
     61c:	70000300 	andvc	r0, r0, r0, lsl #6
     620:	00009f78 	andeq	r9, r0, r8, ror pc
	...
     62c:	0000065c 	andeq	r0, r0, ip, asr r6
     630:	00000660 	andeq	r0, r0, r0, ror #12
     634:	00500001 	subseq	r0, r0, r1
     638:	00000000 	andeq	r0, r0, r0
     63c:	01000000 	mrseq	r0, (UNDEF: 0)
     640:	a8000000 	stmdage	r0, {}	; <UNPREDICTABLE>
     644:	d4000003 	strle	r0, [r0], #-3
     648:	02000003 	andeq	r0, r0, #3, 0
     64c:	d49f3000 	ldrle	r3, [pc], #0	; 654 <__code_start__-0x79ac>
     650:	6c000003 	stcvs	0, cr0, [r0], {3}
     654:	01000004 	tsteq	r0, r4
     658:	00005500 	andeq	r5, r0, r0, lsl #10
     65c:	00000000 	andeq	r0, r0, r0
     660:	00010000 	andeq	r0, r1, r0
     664:	03a80000 			; <UNDEFINED> instruction: 0x03a80000
     668:	03d40000 	bicseq	r0, r4, #0, 0
     66c:	00020000 	andeq	r0, r2, r0
     670:	03d49f30 	bicseq	r9, r4, #48, 30	; 0xc0
     674:	046c0000 	strbteq	r0, [ip], #-0
     678:	00010000 	andeq	r0, r1, r0
     67c:	00000057 	andeq	r0, r0, r7, asr r0
     680:	00000000 	andeq	r0, r0, r0
     684:	00000100 	andeq	r0, r0, r0, lsl #2
     688:	a8000000 	stmdage	r0, {}	; <UNPREDICTABLE>
     68c:	d4000003 	strle	r0, [r0], #-3
     690:	02000003 	andeq	r0, r0, #3, 0
     694:	d49f3000 	ldrle	r3, [pc], #0	; 69c <__code_start__-0x7964>
     698:	6c000003 	stcvs	0, cr0, [r0], {3}
     69c:	01000004 	tsteq	r0, r4
     6a0:	046c5600 	strbteq	r5, [ip], #-1536	; 0xfffffa00
     6a4:	04880000 	streq	r0, [r8], #0
     6a8:	00010000 	andeq	r0, r1, r0
     6ac:	00000050 	andeq	r0, r0, r0, asr r0
	...
     6bc:	0003c400 	andeq	ip, r3, r0, lsl #8
     6c0:	00040800 	andeq	r0, r4, r0, lsl #16
     6c4:	50000100 	andpl	r0, r0, r0, lsl #2
     6c8:	00000408 	andeq	r0, r0, r8, lsl #8
     6cc:	00000424 	andeq	r0, r0, r4, lsr #8
     6d0:	24540001 	ldrbcs	r0, [r4], #-1
     6d4:	5c000004 	stcpl	0, cr0, [r0], {4}
     6d8:	01000004 	tsteq	r0, r4
     6dc:	045c5000 	ldrbeq	r5, [ip], #-0
     6e0:	046c0000 	strbteq	r0, [ip], #-0
     6e4:	00010000 	andeq	r0, r1, r0
     6e8:	00000054 	andeq	r0, r0, r4, asr r0
     6ec:	00000000 	andeq	r0, r0, r0
     6f0:	e4000000 	str	r0, [r0], #-0
     6f4:	fc000003 	stc2	0, cr0, [r0], {3}
     6f8:	04000003 	streq	r0, [r0], #-3
     6fc:	01050a00 	tsteq	r5, r0, lsl #20
     700:	0000009f 	muleq	r0, pc, r0	; <UNPREDICTABLE>
     704:	00000000 	andeq	r0, r0, r0
     708:	e4000000 	str	r0, [r0], #-0
     70c:	fc000003 	stc2	0, cr0, [r0], {3}
     710:	06000003 	streq	r0, [r0], -r3
     714:	1bf8f200 	blne	ffe3cf1c <__bss_end__+0xffe31cf4>
	...
     724:	0003e400 	andeq	lr, r3, r0, lsl #8
     728:	0003fc00 	andeq	pc, r3, r0, lsl #24
     72c:	03000600 	movweq	r0, #1536	; 0x600
     730:	0000a714 	andeq	sl, r0, r4, lsl r7
     734:	0000009f 	muleq	r0, pc, r0	; <UNPREDICTABLE>
	...
     740:	f8000000 			; <UNDEFINED> instruction: 0xf8000000
     744:	08000005 	stmdaeq	r0, {r0, r2}
     748:	01000006 	tsteq	r0, r6
     74c:	06085000 	streq	r5, [r8], -r0
     750:	060b0000 	streq	r0, [fp], -r0
     754:	00010000 	andeq	r0, r1, r0
     758:	00060b51 	andeq	r0, r6, r1, asr fp
     75c:	00063c00 	andeq	r3, r6, r0, lsl #24
     760:	54000100 	strpl	r0, [r0], #-256	; 0xffffff00
	...
     770:	00000554 	andeq	r0, r0, r4, asr r5
     774:	00000563 	andeq	r0, r0, r3, ror #10
     778:	63500001 	cmpvs	r0, #1, 0
     77c:	68000005 	stmdavs	r0, {r0, r2}
     780:	04000005 	streq	r0, [r0], #-5
     784:	5001f300 	andpl	pc, r1, r0, lsl #6
     788:	0000009f 	muleq	r0, pc, r0	; <UNPREDICTABLE>
	...
     794:	00028000 	andeq	r8, r2, r0
     798:	00029400 	andeq	r9, r2, r0, lsl #8
     79c:	50000100 	andpl	r0, r0, r0, lsl #2
     7a0:	00000294 	muleq	r0, r4, r2
     7a4:	00000388 	andeq	r0, r0, r8, lsl #7
     7a8:	00570001 	subseq	r0, r7, r1
     7ac:	00000000 	andeq	r0, r0, r0
     7b0:	01000000 	mrseq	r0, (UNDEF: 0)
     7b4:	90000000 	andls	r0, r0, r0
     7b8:	bc000002 	stclt	0, cr0, [r0], {2}
     7bc:	02000002 	andeq	r0, r0, #2, 0
     7c0:	bc9f3000 	ldclt	0, cr3, [pc], {0}
     7c4:	88000002 	stmdahi	r0, {r1}
     7c8:	01000003 	tsteq	r0, r3
     7cc:	00005500 	andeq	r5, r0, r0, lsl #10
     7d0:	00000000 	andeq	r0, r0, r0
     7d4:	00010000 	andeq	r0, r1, r0
     7d8:	00000000 	andeq	r0, r0, r0
     7dc:	00000290 	muleq	r0, r0, r2
     7e0:	000002bc 			; <UNDEFINED> instruction: 0x000002bc
     7e4:	9f300002 	svcls	0x00300002
     7e8:	000002bc 			; <UNDEFINED> instruction: 0x000002bc
     7ec:	0000034c 	andeq	r0, r0, ip, asr #6
     7f0:	54560001 	ldrbpl	r0, [r6], #-1
     7f4:	88000003 	stmdahi	r0, {r0, r1}
     7f8:	01000003 	tsteq	r0, r3
     7fc:	00005600 	andeq	r5, r0, r0, lsl #12
     800:	00000000 	andeq	r0, r0, r0
     804:	00010000 	andeq	r0, r1, r0
     808:	02900000 	addseq	r0, r0, #0, 0
     80c:	02bc0000 	adcseq	r0, ip, #0, 0
     810:	00020000 	andeq	r0, r2, r0
     814:	02bc9f30 	adcseq	r9, ip, #48, 30	; 0xc0
     818:	03880000 	orreq	r0, r8, #0, 0
     81c:	00010000 	andeq	r0, r1, r0
     820:	00000058 	andeq	r0, r0, r8, asr r0
	...
     834:	ac000000 	stcge	0, cr0, [r0], {-0}
     838:	cc000002 	stcgt	0, cr0, [r0], {2}
     83c:	01000002 	tsteq	r0, r2
     840:	02cc5000 	sbceq	r5, ip, #0, 0
     844:	02dc0000 	sbcseq	r0, ip, #0, 0
     848:	00010000 	andeq	r0, r1, r0
     84c:	0002dc54 	andeq	sp, r2, r4, asr ip
     850:	00031800 	andeq	r1, r3, r0, lsl #16
     854:	50000100 	andpl	r0, r0, r0, lsl #2
     858:	00000318 	andeq	r0, r0, r8, lsl r3
     85c:	0000031b 	andeq	r0, r0, fp, lsl r3
     860:	1b520001 	blne	148086c <__bss_end__+0x1475644>
     864:	20000003 	andcs	r0, r0, r3
     868:	01000003 	tsteq	r0, r3
     86c:	03205400 	nopeq	{0}	; <UNPREDICTABLE>
     870:	03280000 			; <UNDEFINED> instruction: 0x03280000
     874:	00010000 	andeq	r0, r1, r0
     878:	00032850 	andeq	r2, r3, r0, asr r8
     87c:	00038800 	andeq	r8, r3, r0, lsl #16
     880:	54000100 	strpl	r0, [r0], #-256	; 0xffffff00
	...
     890:	000001d8 	ldrdeq	r0, [r0], -r8
     894:	000001f3 	strdeq	r0, [r0], -r3
     898:	f4500001 			; <UNDEFINED> instruction: 0xf4500001
     89c:	fc000001 	stc2	0, cr0, [r0], {1}
     8a0:	01000001 	tsteq	r0, r1
     8a4:	00005000 	andeq	r5, r0, r0
	...
     8bc:	0000009c 	muleq	r0, ip, r0
     8c0:	000000e4 	andeq	r0, r0, r4, ror #1
     8c4:	e4500001 	ldrb	r0, [r0], #-1
     8c8:	ec000000 	stc	0, cr0, [r0], {-0}
     8cc:	01000000 	mrseq	r0, (UNDEF: 0)
     8d0:	00ec5400 	rsceq	r5, ip, r0, lsl #8
     8d4:	01040000 	mrseq	r0, (UNDEF: 4)
     8d8:	00010000 	andeq	r0, r1, r0
     8dc:	00010450 	andeq	r0, r1, r0, asr r4
     8e0:	00010c00 	andeq	r0, r1, r0, lsl #24
     8e4:	f3000400 	vshl.u8	d0, d0, d0
     8e8:	0c9f5001 	ldceq	0, cr5, [pc], {1}
     8ec:	24000001 	strcs	r0, [r0], #-1
     8f0:	01000001 	tsteq	r0, r1
     8f4:	01245000 			; <UNDEFINED> instruction: 0x01245000
     8f8:	012c0000 			; <UNDEFINED> instruction: 0x012c0000
     8fc:	00010000 	andeq	r0, r1, r0
     900:	00012c54 	andeq	r2, r1, r4, asr ip
     904:	0001b400 	andeq	fp, r1, r0, lsl #8
     908:	f3000400 	vshl.u8	d0, d0, d0
     90c:	009f5001 	addseq	r5, pc, r1
	...
     924:	00009c00 	andeq	r9, r0, r0, lsl #24
     928:	0000e000 	andeq	lr, r0, r0
     92c:	51000100 	mrspl	r0, (UNDEF: 16)
     930:	000000e0 	andeq	r0, r0, r0, ror #1
     934:	000000ec 	andeq	r0, r0, ip, ror #1
     938:	ec550001 	mrrc	0, 0, r0, r5, cr1
     93c:	00000000 	andeq	r0, r0, r0
     940:	01000001 	tsteq	r0, r1
     944:	01005100 	mrseq	r5, (UNDEF: 16)
     948:	010c0000 	mrseq	r0, (UNDEF: 12)
     94c:	00040000 	andeq	r0, r4, r0
     950:	9f5101f3 	svcls	0x005101f3
     954:	0000010c 	andeq	r0, r0, ip, lsl #2
     958:	00000120 	andeq	r0, r0, r0, lsr #2
     95c:	20510001 	subscs	r0, r1, r1
     960:	9c000001 	stcls	0, cr0, [r0], {1}
     964:	01000001 	tsteq	r0, r1
     968:	019c5500 	orrseq	r5, ip, r0, lsl #10
     96c:	01b40000 			; <UNDEFINED> instruction: 0x01b40000
     970:	00040000 	andeq	r0, r4, r0
     974:	9f5101f3 	svcls	0x005101f3
	...
     980:	012c0000 			; <UNDEFINED> instruction: 0x012c0000
     984:	019c0000 	orrseq	r0, ip, r0
     988:	00010000 	andeq	r0, r1, r0
     98c:	00000054 	andeq	r0, r0, r4, asr r0
	...
     998:	2c000000 	stccs	0, cr0, [r0], {-0}
     99c:	3c000001 	stccc	0, cr0, [r0], {1}
     9a0:	01000001 	tsteq	r0, r1
     9a4:	01505000 	cmpeq	r0, r0
     9a8:	018c0000 	orreq	r0, ip, r0
     9ac:	00010000 	andeq	r0, r1, r0
     9b0:	00018c50 	andeq	r8, r1, r0, asr ip
     9b4:	00018f00 	andeq	r8, r1, r0, lsl #30
     9b8:	70000300 	andvc	r0, r0, r0, lsl #6
     9bc:	00009f7c 	andeq	r9, r0, ip, ror pc
	...
     9d0:	0000012c 	andeq	r0, r0, ip, lsr #2
     9d4:	00000130 	andeq	r0, r0, r0, lsr r1
     9d8:	30510001 	subscc	r0, r1, r1
     9dc:	3c000001 	stccc	0, cr0, [r0], {1}
     9e0:	04000001 	streq	r0, [r0], #-1
     9e4:	01b87000 			; <UNDEFINED> instruction: 0x01b87000
     9e8:	00015c9f 	muleq	r1, pc, ip	; <UNPREDICTABLE>
     9ec:	00017800 	andeq	r7, r1, r0, lsl #16
     9f0:	51000100 	mrspl	r0, (UNDEF: 16)
     9f4:	00000178 	andeq	r0, r0, r8, ror r1
     9f8:	0000018c 	andeq	r0, r0, ip, lsl #3
     9fc:	b8700004 	ldmdalt	r0!, {r2}^
     a00:	018c9f01 	orreq	r9, ip, r1, lsl #30
     a04:	018f0000 	orreq	r0, pc, r0
     a08:	00040000 	andeq	r0, r4, r0
     a0c:	9f01b470 	svcls	0x0001b470
	...
     a1c:	0000012c 	andeq	r0, r0, ip, lsr #2
     a20:	0000013c 	andeq	r0, r0, ip, lsr r1
     a24:	60520001 	subsvs	r0, r2, r1
     a28:	8f000001 	svchi	0x00000001
     a2c:	01000001 	tsteq	r0, r1
     a30:	00005200 	andeq	r5, r0, r0, lsl #4
	...
     a3c:	00600000 	rsbeq	r0, r0, r0
     a40:	00730000 	rsbseq	r0, r3, r0
     a44:	00010000 	andeq	r0, r1, r0
     a48:	00007350 	andeq	r7, r0, r0, asr r3
     a4c:	00009000 	andeq	r9, r0, r0
     a50:	54000100 	strpl	r0, [r0], #-256	; 0xffffff00
	...
     a5c:	00000001 	andeq	r0, r0, r1
     a60:	00000070 	andeq	r0, r0, r0, ror r0
     a64:	00000073 	andeq	r0, r0, r3, ror r0
     a68:	73500001 	cmpvc	r0, #1, 0
     a6c:	90000000 	andls	r0, r0, r0
     a70:	01000000 	mrseq	r0, (UNDEF: 0)
     a74:	00005400 	andeq	r5, r0, r0, lsl #8
	...
     a88:	000c0000 	andeq	r0, ip, r0
     a8c:	003c0000 	eorseq	r0, ip, r0
     a90:	00010000 	andeq	r0, r1, r0
     a94:	00003c50 	andeq	r3, r0, r0, asr ip
     a98:	00004000 	andeq	r4, r0, r0
     a9c:	f3000400 	vshl.u8	d0, d0, d0
     aa0:	409f5001 	addsmi	r5, pc, r1
     aa4:	44000000 	strmi	r0, [r0], #-0
     aa8:	01000000 	mrseq	r0, (UNDEF: 0)
     aac:	00445000 	subeq	r5, r4, r0
     ab0:	00480000 	subeq	r0, r8, r0
     ab4:	00040000 	andeq	r0, r4, r0
     ab8:	9f5001f3 	svcls	0x005001f3
     abc:	00000048 	andeq	r0, r0, r8, asr #32
     ac0:	0000004c 	andeq	r0, r0, ip, asr #32
     ac4:	4c500001 	mrrcmi	0, 0, r0, r0, cr1	; <UNPREDICTABLE>
     ac8:	54000000 	strpl	r0, [r0], #-0
     acc:	04000000 	streq	r0, [r0], #-0
     ad0:	5001f300 	andpl	pc, r1, r0, lsl #6
     ad4:	0000009f 	muleq	r0, pc, r0	; <UNPREDICTABLE>
	...
     ae8:	00049400 	andeq	r9, r4, r0, lsl #8
     aec:	0004c400 	andeq	ip, r4, r0, lsl #8
     af0:	50000100 	andpl	r0, r0, r0, lsl #2
     af4:	000004c4 	andeq	r0, r0, r4, asr #9
     af8:	000004f0 	strdeq	r0, [r0], -r0	; <UNPREDICTABLE>
     afc:	f0540001 			; <UNDEFINED> instruction: 0xf0540001
     b00:	08000004 	stmdaeq	r0, {r2}
     b04:	01000005 	tsteq	r0, r5
     b08:	05085000 	streq	r5, [r8, #-0]
     b0c:	05100000 	ldreq	r0, [r0, #-0]
     b10:	00010000 	andeq	r0, r1, r0
     b14:	00051054 	andeq	r1, r5, r4, asr r0
     b18:	00052000 	andeq	r2, r5, r0
     b1c:	50000100 	andpl	r0, r0, r0, lsl #2
     b20:	00000520 	andeq	r0, r0, r0, lsr #10
     b24:	00000540 	andeq	r0, r0, r0, asr #10
     b28:	00540001 	subseq	r0, r4, r1
     b2c:	00000000 	andeq	r0, r0, r0
     b30:	02000000 	andeq	r0, r0, #0, 0
     b34:	0004bc00 	andeq	fp, r4, r0, lsl #24
     b38:	0004f000 	andeq	pc, r4, r0
     b3c:	40000400 	andmi	r0, r0, r0, lsl #8
     b40:	009f2440 	addseq	r2, pc, r0, asr #8
	...
     b4c:	00000800 	andeq	r0, r0, r0, lsl #16
     b50:	00008000 	andeq	r8, r0, r0
     b54:	54000100 	strpl	r0, [r0], #-256	; 0xffffff00
	...
     b60:	00000002 	andeq	r0, r0, r2
     b64:	00000008 	andeq	r0, r0, r8
     b68:	00000020 	andeq	r0, r0, r0, lsr #32
     b6c:	9f300002 	svcls	0x00300002
     b70:	00000020 	andeq	r0, r0, r0, lsr #32
     b74:	0000006c 	andeq	r0, r0, ip, rrx
     b78:	00570001 	subseq	r0, r7, r1
	...
     b84:	00003c00 	andeq	r3, r0, r0, lsl #24
     b88:	00005700 	andeq	r5, r0, r0, lsl #14
     b8c:	52000100 	andpl	r0, r0, #0
	...
     b98:	003c0001 	eorseq	r0, ip, r1
     b9c:	00500000 	subseq	r0, r0, r0
     ba0:	00010000 	andeq	r0, r1, r0
     ba4:	00000052 	andeq	r0, r0, r2, asr r0
     ba8:	00000000 	andeq	r0, r0, r0
     bac:	00000300 	andeq	r0, r0, r0, lsl #6
     bb0:	00003c00 	andeq	r3, r0, r0, lsl #24
     bb4:	00004800 	andeq	r4, r0, r0, lsl #16
     bb8:	53000100 	movwpl	r0, #256	; 0x100
     bbc:	00000048 	andeq	r0, r0, r8, asr #32
     bc0:	00000050 	andeq	r0, r0, r0, asr r0
     bc4:	00700002 	rsbseq	r0, r0, r2
	...
     bd4:	00380000 	eorseq	r0, r8, r0
     bd8:	00480000 	subeq	r0, r8, r0
     bdc:	00090000 	andeq	r0, r9, r0
     be0:	ff0c0073 			; <UNDEFINED> instruction: 0xff0c0073
     be4:	1a00ffff 	bne	40be8 <__bss_end__+0x359c0>
     be8:	0000489f 	muleq	r0, pc, r8	; <UNPREDICTABLE>
     bec:	00004c00 	andeq	r4, r0, r0, lsl #24
     bf0:	53000100 	movwpl	r0, #256	; 0x100
     bf4:	0000004c 	andeq	r0, r0, ip, asr #32
     bf8:	00000050 	andeq	r0, r0, r0, asr r0
     bfc:	0070000a 	rsbseq	r0, r0, sl
     c00:	ffff0c06 			; <UNDEFINED> instruction: 0xffff0c06
     c04:	9f1a00ff 	svcls	0x001a00ff
	...
     c14:	00800000 	addeq	r0, r0, r0
     c18:	00880000 	addeq	r0, r8, r0
     c1c:	00010000 	andeq	r0, r1, r0
     c20:	00008850 	andeq	r8, r0, r0, asr r8
     c24:	00009400 	andeq	r9, r0, r0, lsl #8
     c28:	70000300 	andvc	r0, r0, r0, lsl #6
     c2c:	00949f04 	addseq	r9, r4, r4, lsl #30
     c30:	00a00000 	adceq	r0, r0, r0
     c34:	00040000 	andeq	r0, r4, r0
     c38:	9f5001f3 	svcls	0x005001f3
	...
     c48:	00840000 	addeq	r0, r4, r0
     c4c:	00900000 	addseq	r0, r0, r0
     c50:	00010000 	andeq	r0, r1, r0
     c54:	00009053 	andeq	r9, r0, r3, asr r0
     c58:	00009400 	andeq	r9, r0, r0, lsl #8
     c5c:	70000200 	andvc	r0, r0, r0, lsl #4
     c60:	00009400 	andeq	r9, r0, r0, lsl #8
     c64:	0000a000 	andeq	sl, r0, r0
     c68:	f3000500 	vrshl.u8	d0, d0, d0
     c6c:	1c345001 	ldcne	0, cr5, [r4], #-4
	...
     c78:	00000001 	andeq	r0, r0, r1
     c7c:	008c0000 	addeq	r0, ip, r0
     c80:	00900000 	addseq	r0, r0, r0
     c84:	00090000 	andeq	r0, r9, r0
     c88:	ff0c0073 			; <UNDEFINED> instruction: 0xff0c0073
     c8c:	1a00ffff 	bne	40c90 <__bss_end__+0x35a68>
     c90:	0000909f 	muleq	r0, pc, r0	; <UNPREDICTABLE>
     c94:	00009400 	andeq	r9, r0, r0, lsl #8
     c98:	70000a00 	andvc	r0, r0, r0, lsl #20
     c9c:	ff0c0600 			; <UNDEFINED> instruction: 0xff0c0600
     ca0:	1a00ffff 	bne	40ca4 <__bss_end__+0x35a7c>
     ca4:	0000949f 	muleq	r0, pc, r4	; <UNPREDICTABLE>
     ca8:	0000a000 	andeq	sl, r0, r0
     cac:	f3000d00 	vpadd.f32	d0, d0, d0
     cb0:	1c345001 	ldcne	0, cr5, [r4], #-4
     cb4:	ffff0c06 			; <UNDEFINED> instruction: 0xffff0c06
     cb8:	9f1a00ff 	svcls	0x001a00ff
	...
     ccc:	0000001c 	andeq	r0, r0, ip, lsl r0
     cd0:	1c510001 	mrrcne	0, 0, r0, r1, cr1
     cd4:	78000000 	stmdavc	r0, {}	; <UNPREDICTABLE>
     cd8:	04000000 	streq	r0, [r0], #-0
     cdc:	5101f300 	mrspl	pc, SP_irq	; <UNPREDICTABLE>
     ce0:	0000009f 	muleq	r0, pc, r0	; <UNPREDICTABLE>
	...
     cf0:	00005800 	andeq	r5, r0, r0, lsl #16
     cf4:	52000100 	andpl	r0, r0, #0
     cf8:	00000058 	andeq	r0, r0, r8, asr r0
     cfc:	00000078 	andeq	r0, r0, r8, ror r0
     d00:	01f30004 	mvnseq	r0, r4
     d04:	00009f52 	andeq	r9, r0, r2, asr pc
     d08:	00000000 	andeq	r0, r0, r0
     d0c:	00020000 	andeq	r0, r2, r0
     d10:	00010100 	andeq	r0, r1, r0, lsl #2
     d14:	00010100 	andeq	r0, r1, r0, lsl #2
     d18:	00010100 	andeq	r0, r1, r0, lsl #2
     d1c:	00000000 	andeq	r0, r0, r0
     d20:	00000038 	andeq	r0, r0, r8, lsr r0
     d24:	54500001 	ldrbpl	r0, [r0], #-1
     d28:	54000000 	strpl	r0, [r0], #-0
     d2c:	01000000 	mrseq	r0, (UNDEF: 0)
     d30:	00545300 	subseq	r5, r4, r0, lsl #6
     d34:	005c0000 	subseq	r0, ip, r0
     d38:	00030000 	andeq	r0, r3, r0
     d3c:	5c9f0173 	ldfpls	f0, [pc], {115}	; 0x73
     d40:	64000000 	strvs	r0, [r0], #-0
     d44:	01000000 	mrseq	r0, (UNDEF: 0)
     d48:	00645200 	rsbeq	r5, r4, r0, lsl #4
     d4c:	00680000 	rsbeq	r0, r8, r0
     d50:	00030000 	andeq	r0, r3, r0
     d54:	689f0273 	ldmvs	pc, {r0, r1, r4, r5, r6, r9}	; <UNPREDICTABLE>
     d58:	74000000 	strvc	r0, [r0], #-0
     d5c:	01000000 	mrseq	r0, (UNDEF: 0)
     d60:	00745200 	rsbseq	r5, r4, r0, lsl #4
     d64:	00780000 	rsbseq	r0, r8, r0
     d68:	00030000 	andeq	r0, r3, r0
     d6c:	009f0172 	addseq	r0, pc, r2, ror r1	; <UNPREDICTABLE>
	...
     d78:	00000800 	andeq	r0, r0, r0, lsl #16
     d7c:	00007800 	andeq	r7, r0, r0, lsl #16
     d80:	54000100 	strpl	r0, [r0], #-256	; 0xffffff00
	...
     d90:	002c0000 	eoreq	r0, ip, r0
     d94:	00340000 	eorseq	r0, r4, r0
     d98:	00010000 	andeq	r0, r1, r0
     d9c:	00003450 	andeq	r3, r0, r0, asr r4
     da0:	00004800 	andeq	r4, r0, r0, lsl #16
     da4:	54000100 	strpl	r0, [r0], #-256	; 0xffffff00
     da8:	00000048 	andeq	r0, r0, r8, asr #32
     dac:	00000058 	andeq	r0, r0, r8, asr r0
     db0:	00500001 	subseq	r0, r0, r1
	...
     dbc:	01010000 	mrseq	r0, (UNDEF: 1)
     dc0:	00000000 	andeq	r0, r0, r0
     dc4:	0c000000 	stceq	0, cr0, [r0], {-0}
     dc8:	01000000 	mrseq	r0, (UNDEF: 0)
     dcc:	000c5000 	andeq	r5, ip, r0
     dd0:	00200000 	eoreq	r0, r0, r0
     dd4:	00010000 	andeq	r0, r1, r0
     dd8:	00002054 	andeq	r2, r0, r4, asr r0
     ddc:	00002400 	andeq	r2, r0, r0, lsl #8
     de0:	74000300 	strvc	r0, [r0], #-768	; 0xfffffd00
     de4:	00249f01 	eoreq	r9, r4, r1, lsl #30
     de8:	00380000 	eorseq	r0, r8, r0
     dec:	00010000 	andeq	r0, r1, r0
     df0:	00000054 	andeq	r0, r0, r4, asr r0
	...
     e00:	88000000 	stmdahi	r0, {}	; <UNPREDICTABLE>
     e04:	94000003 	strls	r0, [r0], #-3
     e08:	01000003 	tsteq	r0, r3
     e0c:	03945000 	orrseq	r5, r4, #0, 0
     e10:	03d00000 	bicseq	r0, r0, #0, 0
     e14:	00010000 	andeq	r0, r1, r0
     e18:	0003d05b 	andeq	sp, r3, fp, asr r0
     e1c:	00092000 	andeq	r2, r9, r0
     e20:	f3000400 	vshl.u8	d0, d0, d0
     e24:	209f5001 	addscs	r5, pc, r1
     e28:	28000009 	stmdacs	r0, {r0, r3}
     e2c:	01000009 	tsteq	r0, r9
     e30:	09285b00 	stmdbeq	r8!, {r8, r9, fp, ip, lr}
     e34:	09b40000 	ldmibeq	r4!, {}	; <UNPREDICTABLE>
     e38:	00040000 	andeq	r0, r4, r0
     e3c:	9f5001f3 	svcls	0x005001f3
	...
     e50:	00000388 	andeq	r0, r0, r8, lsl #7
     e54:	000003d0 	ldrdeq	r0, [r0], -r0	; <UNPREDICTABLE>
     e58:	d0510001 	subsle	r0, r1, r1
     e5c:	20000003 	andcs	r0, r0, r3
     e60:	04000009 	streq	r0, [r0], #-9
     e64:	5101f300 	mrspl	pc, SP_irq	; <UNPREDICTABLE>
     e68:	0009209f 	muleq	r9, pc, r0	; <UNPREDICTABLE>
     e6c:	00092800 	andeq	r2, r9, r0, lsl #16
     e70:	51000100 	mrspl	r0, (UNDEF: 16)
     e74:	00000928 	andeq	r0, r0, r8, lsr #18
     e78:	000009b4 			; <UNDEFINED> instruction: 0x000009b4
     e7c:	01f30004 	mvnseq	r0, r4
     e80:	00009f51 	andeq	r9, r0, r1, asr pc
	...
     e90:	00000100 	andeq	r0, r0, r0, lsl #2
     e94:	00000001 	andeq	r0, r0, r1
	...
     ea0:	03880000 	orreq	r0, r8, #0, 0
     ea4:	03d00000 	bicseq	r0, r0, #0, 0
     ea8:	00010000 	andeq	r0, r1, r0
     eac:	0003d052 	andeq	sp, r3, r2, asr r0
     eb0:	00040000 	andeq	r0, r4, r0
     eb4:	56000100 	strpl	r0, [r0], -r0, lsl #2
     eb8:	00000414 	andeq	r0, r0, r4, lsl r4
     ebc:	00000424 	andeq	r0, r0, r4, lsr #8
     ec0:	24560001 	ldrbcs	r0, [r6], #-1
     ec4:	28000004 	stmdacs	r0, {r2}
     ec8:	03000004 	movweq	r0, #4
     ecc:	9f7f7600 	svcls	0x007f7600
     ed0:	000004a8 	andeq	r0, r0, r8, lsr #9
     ed4:	000004ac 	andeq	r0, r0, ip, lsr #9
     ed8:	e0560001 	subs	r0, r6, r1
     edc:	04000004 	streq	r0, [r0], #-4
     ee0:	01000005 	tsteq	r0, r5
     ee4:	057c5600 	ldrbeq	r5, [ip, #-1536]!	; 0xfffffa00
     ee8:	05880000 	streq	r0, [r8]
     eec:	00010000 	andeq	r0, r1, r0
     ef0:	00058853 	andeq	r8, r5, r3, asr r8
     ef4:	0005d000 	andeq	sp, r5, r0
     ef8:	91000300 	mrsls	r0, LR_irq
     efc:	08007dcc 	stmdaeq	r0, {r2, r3, r6, r7, r8, sl, fp, ip, sp, lr}
     f00:	080f0000 	stmdaeq	pc, {}	; <UNPREDICTABLE>
     f04:	00010000 	andeq	r0, r1, r0
     f08:	00080f53 	andeq	r0, r8, r3, asr pc
     f0c:	00088800 	andeq	r8, r8, r0, lsl #16
     f10:	91000300 	mrsls	r0, LR_irq
     f14:	09207dcc 	stmdbeq	r0!, {r2, r3, r6, r7, r8, sl, fp, ip, sp, lr}
     f18:	09280000 	stmdbeq	r8!, {}	; <UNPREDICTABLE>
     f1c:	00010000 	andeq	r0, r1, r0
     f20:	00094852 	andeq	r4, r9, r2, asr r8
     f24:	00096400 	andeq	r6, r9, r0, lsl #8
     f28:	91000300 	mrsls	r0, LR_irq
     f2c:	00007dcc 	andeq	r7, r0, ip, asr #27
	...
     f3c:	01000000 	mrseq	r0, (UNDEF: 0)
     f40:	01000001 	tsteq	r0, r1
     f44:	00000001 	andeq	r0, r0, r1
     f48:	00020200 	andeq	r0, r2, r0, lsl #4
     f4c:	00020200 	andeq	r0, r2, r0, lsl #4
     f50:	00010100 	andeq	r0, r1, r0, lsl #2
     f54:	00020200 	andeq	r0, r2, r0, lsl #4
     f58:	00010100 	andeq	r0, r1, r0, lsl #2
	...
     f64:	00000388 	andeq	r0, r0, r8, lsl #7
     f68:	000003ac 	andeq	r0, r0, ip, lsr #7
     f6c:	ac530001 	mrrcge	0, 0, r0, r3, cr1
     f70:	c0000003 	andgt	r0, r0, r3
     f74:	03000003 	movweq	r0, #3
     f78:	04935300 	ldreq	r5, [r3], #768	; 0x300
     f7c:	000003d0 	ldrdeq	r0, [r0], -r0	; <UNPREDICTABLE>
     f80:	000003e8 	andeq	r0, r0, r8, ror #7
     f84:	93580003 	cmpls	r8, #3, 0
     f88:	0003e804 	andeq	lr, r3, r4, lsl #16
     f8c:	0004ac00 	andeq	sl, r4, r0, lsl #24
     f90:	58000300 	stmdapl	r0, {r8, r9}
     f94:	04c00493 	strbeq	r0, [r0], #1171	; 0x493
     f98:	04c00000 	strbeq	r0, [r0], #0
     f9c:	00030000 	andeq	r0, r3, r0
     fa0:	c0049358 	andgt	r9, r4, r8, asr r3
     fa4:	cc000004 	stcgt	0, cr0, [r0], {4}
     fa8:	05000004 	streq	r0, [r0, #-4]
     fac:	9f047800 	svcls	0x00047800
     fb0:	04cc0493 	strbeq	r0, [ip], #1171	; 0x493
     fb4:	04e00000 	strbteq	r0, [r0], #0
     fb8:	00030000 	andeq	r0, r3, r0
     fbc:	e0049358 	and	r9, r4, r8, asr r3
     fc0:	38000004 	stmdacc	r0, {r2}
     fc4:	03000005 	movweq	r0, #5
     fc8:	04935800 	ldreq	r5, [r3], #2048	; 0x800
     fcc:	00000538 	andeq	r0, r0, r8, lsr r5
     fd0:	0000053c 	andeq	r0, r0, ip, lsr r5
     fd4:	79780005 	ldmdbvc	r8!, {r0, r2}^
     fd8:	d004939f 	mulle	r4, pc, r3	; <UNPREDICTABLE>
     fdc:	d0000005 	andle	r0, r0, r5
     fe0:	03000005 	movweq	r0, #5
     fe4:	04935800 	ldreq	r5, [r3], #2048	; 0x800
     fe8:	000005d0 	ldrdeq	r0, [r0], -r0	; <UNPREDICTABLE>
     fec:	000005d4 	ldrdeq	r0, [r0], -r4
     ff0:	04780005 	ldrbteq	r0, [r8], #-5
     ff4:	f404939f 	vst2.32	{d9-d12}, [r4 :64]
     ff8:	f4000005 	vst4.8	{d0-d3}, [r0], r5
     ffc:	03000005 	movweq	r0, #5
    1000:	04935800 	ldreq	r5, [r3], #2048	; 0x800
    1004:	000005f4 	strdeq	r0, [r0], -r4
    1008:	000005fc 	strdeq	r0, [r0], -ip
    100c:	04780005 	ldrbteq	r0, [r8], #-5
    1010:	fc04939f 	stc2	3, cr9, [r4], {159}	; 0x9f
    1014:	fc000005 	stc2	0, cr0, [r0], {5}
    1018:	03000005 	movweq	r0, #5
    101c:	04935800 	ldreq	r5, [r3], #2048	; 0x800
    1020:	000005fc 	strdeq	r0, [r0], -ip
    1024:	00000600 	andeq	r0, r0, r0, lsl #12
    1028:	04780005 	ldrbteq	r0, [r8], #-5
    102c:	0004939f 	muleq	r4, pc, r3	; <UNPREDICTABLE>
    1030:	00000006 	andeq	r0, r0, r6
    1034:	03000007 	movweq	r0, #7
    1038:	04935800 	ldreq	r5, [r3], #2048	; 0x800
    103c:	00000700 	andeq	r0, r0, r0, lsl #14
    1040:	0000070c 	andeq	r0, r0, ip, lsl #14
    1044:	04780005 	ldrbteq	r0, [r8], #-5
    1048:	0c04939f 	stceq	3, cr9, [r4], {159}	; 0x9f
    104c:	f8000007 			; <UNDEFINED> instruction: 0xf8000007
    1050:	03000007 	movweq	r0, #7
    1054:	04935800 	ldreq	r5, [r3], #2048	; 0x800
    1058:	000007f8 	strdeq	r0, [r0], -r8
    105c:	000007fc 	strdeq	r0, [r0], -ip
    1060:	04780005 	ldrbteq	r0, [r8], #-5
    1064:	fc04939f 	stc2	3, cr9, [r4], {159}	; 0x9f
    1068:	00000007 	andeq	r0, r0, r7
    106c:	03000008 	movweq	r0, #8
    1070:	04935800 	ldreq	r5, [r3], #2048	; 0x800
    1074:	00000888 	andeq	r0, r0, r8, lsl #17
    1078:	00000920 	andeq	r0, r0, r0, lsr #18
    107c:	93580003 	cmpls	r8, #3, 0
    1080:	00092004 	andeq	r2, r9, r4
    1084:	00092800 	andeq	r2, r9, r0, lsl #16
    1088:	53000100 	movwpl	r0, #256	; 0x100
    108c:	00000964 	andeq	r0, r0, r4, ror #18
    1090:	000009b4 			; <UNDEFINED> instruction: 0x000009b4
    1094:	93580003 	cmpls	r8, #3, 0
    1098:	00000004 	andeq	r0, r0, r4
    109c:	00000000 	andeq	r0, r0, r0
    10a0:	00000100 	andeq	r0, r0, r0, lsl #2
    10a4:	00000000 	andeq	r0, r0, r0
    10a8:	02020000 	andeq	r0, r2, #0, 0
    10ac:	01000000 	mrseq	r0, (UNDEF: 0)
    10b0:	00000101 	andeq	r0, r0, r1, lsl #2
    10b4:	ac000000 	stcge	0, cr0, [r0], {-0}
    10b8:	d0000003 	andle	r0, r0, r3
    10bc:	01000003 	tsteq	r0, r3
    10c0:	03d05b00 	bicseq	r5, r0, #0, 22
    10c4:	03d40000 	bicseq	r0, r4, #0, 0
    10c8:	00010000 	andeq	r0, r1, r0
    10cc:	0003d454 	andeq	sp, r3, r4, asr r4
    10d0:	0003d800 	andeq	sp, r3, r0, lsl #16
    10d4:	74000300 	strvc	r0, [r0], #-768	; 0xfffffd00
    10d8:	03d89f7f 	bicseq	r9, r8, #508	; 0x1fc
    10dc:	03fc0000 	mvnseq	r0, #0, 0
    10e0:	00010000 	andeq	r0, r1, r0
    10e4:	0004a854 	andeq	sl, r4, r4, asr r8
    10e8:	0004ac00 	andeq	sl, r4, r0, lsl #24
    10ec:	54000100 	strpl	r0, [r0], #-256	; 0xffffff00
    10f0:	000004ac 	andeq	r0, r0, ip, lsr #9
    10f4:	000004b4 			; <UNDEFINED> instruction: 0x000004b4
    10f8:	01740003 	cmneq	r4, r3
    10fc:	0004b49f 	muleq	r4, pc, r4	; <UNPREDICTABLE>
    1100:	0004c000 	andeq	ip, r4, r0
    1104:	54000100 	strpl	r0, [r0], #-256	; 0xffffff00
    1108:	000004e4 	andeq	r0, r0, r4, ror #9
    110c:	000004f4 	strdeq	r0, [r0], -r4
    1110:	f4540001 			; <UNDEFINED> instruction: 0xf4540001
    1114:	f8000004 			; <UNDEFINED> instruction: 0xf8000004
    1118:	03000004 	movweq	r0, #4
    111c:	9f017400 	svcls	0x00017400
    1120:	000004f8 	strdeq	r0, [r0], -r8
    1124:	00000504 	andeq	r0, r0, r4, lsl #10
    1128:	20540001 	subscs	r0, r4, r1
    112c:	28000009 	stmdacs	r0, {r0, r3}
    1130:	01000009 	tsteq	r0, r9
    1134:	00005b00 	andeq	r5, r0, r0, lsl #22
    1138:	00000000 	andeq	r0, r0, r0
    113c:	00010000 	andeq	r0, r1, r0
    1140:	000003ac 	andeq	r0, r0, ip, lsr #7
    1144:	000009b4 			; <UNDEFINED> instruction: 0x000009b4
    1148:	00570001 	subseq	r0, r7, r1
    114c:	00000000 	andeq	r0, r0, r0
    1150:	02000000 	andeq	r0, r0, #0, 0
    1154:	00000000 	andeq	r0, r0, r0
    1158:	00057c00 	andeq	r7, r5, r0, lsl #24
    115c:	0005d000 	andeq	sp, r5, r0
    1160:	5b000100 	blpl	1568 <__code_start__-0x6a98>
    1164:	00000800 	andeq	r0, r0, r0, lsl #16
    1168:	00000888 	andeq	r0, r0, r8, lsl #17
    116c:	485b0001 	ldmdami	fp, {r0}^
    1170:	64000009 	strvs	r0, [r0], #-9
    1174:	01000009 	tsteq	r0, r9
    1178:	00005b00 	andeq	r5, r0, r0, lsl #22
    117c:	00000000 	andeq	r0, r0, r0
    1180:	00030000 	andeq	r0, r3, r0
    1184:	00000000 	andeq	r0, r0, r0
    1188:	0000057c 	andeq	r0, r0, ip, ror r5
    118c:	000005d0 	ldrdeq	r0, [r0], -r0	; <UNPREDICTABLE>
    1190:	00590001 	subseq	r0, r9, r1
    1194:	88000008 	stmdahi	r0, {r3}
    1198:	01000008 	tsteq	r0, r8
    119c:	09485900 	stmdbeq	r8, {r8, fp, ip, lr}^
    11a0:	09640000 	stmdbeq	r4!, {}^	; <UNPREDICTABLE>
    11a4:	00010000 	andeq	r0, r1, r0
    11a8:	00000059 	andeq	r0, r0, r9, asr r0
    11ac:	00000000 	andeq	r0, r0, r0
    11b0:	00000400 	andeq	r0, r0, r0, lsl #8
    11b4:	00000000 	andeq	r0, r0, r0
    11b8:	0003ac00 	andeq	sl, r3, r0, lsl #24
    11bc:	0003d000 	andeq	sp, r3, r0
    11c0:	52000100 	andpl	r0, r0, #0
    11c4:	000003d0 	ldrdeq	r0, [r0], -r0	; <UNPREDICTABLE>
    11c8:	00000920 	andeq	r0, r0, r0, lsr #18
    11cc:	01f30004 	mvnseq	r0, r4
    11d0:	09209f52 	stmdbeq	r0!, {r1, r4, r6, r8, r9, sl, fp, ip, pc}
    11d4:	09280000 	stmdbeq	r8!, {}	; <UNPREDICTABLE>
    11d8:	00010000 	andeq	r0, r1, r0
    11dc:	00092852 	andeq	r2, r9, r2, asr r8
    11e0:	0009b400 	andeq	fp, r9, r0, lsl #8
    11e4:	f3000400 	vshl.u8	d0, d0, d0
    11e8:	009f5201 	addseq	r5, pc, r1, lsl #4
	...
    11f4:	00000101 	andeq	r0, r0, r1, lsl #2
    11f8:	01000000 	mrseq	r0, (UNDEF: 0)
    11fc:	e0000000 	and	r0, r0, r0
    1200:	e0000004 	and	r0, r0, r4
    1204:	01000004 	tsteq	r0, r4
    1208:	04e05000 	strbteq	r5, [r0], #0
    120c:	04e80000 	strbteq	r0, [r8], #0
    1210:	00010000 	andeq	r0, r1, r0
    1214:	0005b855 	andeq	fp, r5, r5, asr r8
    1218:	0005d000 	andeq	sp, r5, r0
    121c:	55000100 	strpl	r0, [r0, #-256]	; 0xffffff00
    1220:	000005f0 	strdeq	r0, [r0], -r0	; <UNPREDICTABLE>
    1224:	000005f4 	strdeq	r0, [r0], -r4
    1228:	f4500001 			; <UNDEFINED> instruction: 0xf4500001
    122c:	f8000007 			; <UNDEFINED> instruction: 0xf8000007
    1230:	01000007 	tsteq	r0, r7
    1234:	08505500 	ldmdaeq	r0, {r8, sl, ip, lr}^
    1238:	08880000 	stmeq	r8, {}	; <UNPREDICTABLE>
    123c:	00010000 	andeq	r0, r1, r0
    1240:	00000055 	andeq	r0, r0, r5, asr r0
    1244:	00000000 	andeq	r0, r0, r0
    1248:	00000200 	andeq	r0, r0, r0, lsl #4
    124c:	00000000 	andeq	r0, r0, r0
    1250:	00041400 	andeq	r1, r4, r0, lsl #8
    1254:	00041800 	andeq	r1, r4, r0, lsl #16
    1258:	30000200 	andcc	r0, r0, r0, lsl #4
    125c:	0004189f 	muleq	r4, pc, r8	; <UNPREDICTABLE>
    1260:	00041c00 	andeq	r1, r4, r0, lsl #24
    1264:	55000100 	strpl	r0, [r0, #-256]	; 0xffffff00
    1268:	00000428 	andeq	r0, r0, r8, lsr #8
    126c:	0000043c 	andeq	r0, r0, ip, lsr r4
    1270:	28550001 	ldmdacs	r5, {r0}^
    1274:	30000009 	andcc	r0, r0, r9
    1278:	01000009 	tsteq	r0, r9
    127c:	00005500 	andeq	r5, r0, r0, lsl #10
    1280:	00000000 	andeq	r0, r0, r0
    1284:	00010000 	andeq	r0, r1, r0
	...
    1290:	05040000 	streq	r0, [r4, #-0]
    1294:	05840000 	streq	r0, [r4]
    1298:	00010000 	andeq	r0, r1, r0
    129c:	00058456 	andeq	r8, r5, r6, asr r4
    12a0:	00058800 	andeq	r8, r5, r0, lsl #16
    12a4:	73000300 	movwvc	r0, #768	; 0x300
    12a8:	05889f7e 	streq	r9, [r8, #3966]	; 0xf7e
    12ac:	05d00000 	ldrbeq	r0, [r0]
    12b0:	00070000 	andeq	r0, r7, r0
    12b4:	067dcc91 			; <UNDEFINED> instruction: 0x067dcc91
    12b8:	009f1c32 	addseq	r1, pc, r2, lsr ip	; <UNPREDICTABLE>
    12bc:	1c000008 	stcne	0, cr0, [r0], {8}
    12c0:	01000008 	tsteq	r0, r8
    12c4:	081c5600 	ldmdaeq	ip, {r9, sl, ip, lr}
    12c8:	08880000 	stmeq	r8, {}	; <UNPREDICTABLE>
    12cc:	00070000 	andeq	r0, r7, r0
    12d0:	067dcc91 			; <UNDEFINED> instruction: 0x067dcc91
    12d4:	489f1c32 	ldmmi	pc, {r1, r4, r5, sl, fp, ip}	; <UNPREDICTABLE>
    12d8:	b4000009 	strlt	r0, [r0], #-9
    12dc:	01000009 	tsteq	r0, r9
    12e0:	00005600 	andeq	r5, r0, r0, lsl #12
    12e4:	00000000 	andeq	r0, r0, r0
    12e8:	06040000 	streq	r0, [r4], -r0
    12ec:	04140402 	ldreq	r0, [r4], #-1026	; 0xfffffbfe
    12f0:	04140000 	ldreq	r0, [r4], #-0
    12f4:	00060000 	andeq	r0, r6, r0
    12f8:	ff080072 			; <UNDEFINED> instruction: 0xff080072
    12fc:	04289f1a 	strteq	r9, [r8], #-3866	; 0xfffff0e6
    1300:	04280000 	strteq	r0, [r8], #-0
    1304:	00060000 	andeq	r0, r6, r0
    1308:	ff080072 			; <UNDEFINED> instruction: 0xff080072
    130c:	00009f1a 	andeq	r9, r0, sl, lsl pc
    1310:	00000000 	andeq	r0, r0, r0
    1314:	00020000 	andeq	r0, r2, r0
    1318:	00000000 	andeq	r0, r0, r0
    131c:	000005fc 	strdeq	r0, [r0], -ip
    1320:	00000700 	andeq	r0, r0, r0, lsl #14
    1324:	80080003 	andhi	r0, r8, r3
    1328:	0008a89f 	muleq	r8, pc, r8	; <UNPREDICTABLE>
    132c:	0008bc00 	andeq	fp, r8, r0, lsl #24
    1330:	08000300 	stmdaeq	r0, {r8, r9}
    1334:	09109f80 	ldmdbeq	r0, {r7, r8, r9, sl, fp, ip, pc}
    1338:	09200000 	stmdbeq	r0!, {}	; <UNPREDICTABLE>
    133c:	00030000 	andeq	r0, r3, r0
    1340:	009f8008 	addseq	r8, pc, r8
    1344:	00000000 	andeq	r0, r0, r0
    1348:	01000000 	mrseq	r0, (UNDEF: 0)
    134c:	00000000 	andeq	r0, r0, r0
    1350:	0005fc00 	andeq	pc, r5, r0, lsl #24
    1354:	00070000 	andeq	r0, r7, r0
    1358:	30000200 	andcc	r0, r0, r0, lsl #4
    135c:	0008a89f 	muleq	r8, pc, r8	; <UNPREDICTABLE>
    1360:	0008bc00 	andeq	fp, r8, r0, lsl #24
    1364:	30000200 	andcc	r0, r0, r0, lsl #4
    1368:	0009109f 	muleq	r9, pc, r0	; <UNPREDICTABLE>
    136c:	00092000 	andeq	r2, r9, r0
    1370:	30000200 	andcc	r0, r0, r0, lsl #4
    1374:	0000009f 	muleq	r0, pc, r0	; <UNPREDICTABLE>
    1378:	00000000 	andeq	r0, r0, r0
    137c:	00000100 	andeq	r0, r0, r0, lsl #2
    1380:	fc000000 	stc2	0, cr0, [r0], {-0}
    1384:	e0000005 	and	r0, r0, r5
    1388:	01000006 	tsteq	r0, r6
    138c:	08a85500 	stmiaeq	r8!, {r8, sl, ip, lr}
    1390:	08bc0000 	ldmeq	ip!, {}	; <UNPREDICTABLE>
    1394:	00010000 	andeq	r0, r1, r0
    1398:	00091055 	andeq	r1, r9, r5, asr r0
    139c:	00092000 	andeq	r2, r9, r0
    13a0:	55000100 	strpl	r0, [r0, #-256]	; 0xffffff00
	...
    13ac:	00000001 	andeq	r0, r0, r1
    13b0:	00000000 	andeq	r0, r0, r0
    13b4:	000005fc 	strdeq	r0, [r0], -ip
    13b8:	000006e0 	andeq	r0, r0, r0, ror #13
    13bc:	d0910004 	addsle	r0, r1, r4
    13c0:	06e09f7d 			; <UNDEFINED> instruction: 0x06e09f7d
    13c4:	07000000 	streq	r0, [r0, -r0]
    13c8:	00010000 	andeq	r0, r1, r0
    13cc:	0008a855 	andeq	sl, r8, r5, asr r8
    13d0:	0008bc00 	andeq	fp, r8, r0, lsl #24
    13d4:	91000400 	tstls	r0, r0, lsl #8
    13d8:	109f7dd0 			; <UNDEFINED> instruction: 0x109f7dd0
    13dc:	20000009 	andcs	r0, r0, r9
    13e0:	04000009 	streq	r0, [r0], #-9
    13e4:	7dd09100 	ldfvcp	f1, [r0]
    13e8:	0000009f 	muleq	r0, pc, r0	; <UNPREDICTABLE>
    13ec:	00000000 	andeq	r0, r0, r0
    13f0:	00000100 	andeq	r0, r0, r0, lsl #2
    13f4:	fc000000 	stc2	0, cr0, [r0], {-0}
    13f8:	00000005 	andeq	r0, r0, r5
    13fc:	02000007 	andeq	r0, r0, #7, 0
    1400:	a89f3800 	ldmge	pc, {fp, ip, sp}	; <UNPREDICTABLE>
    1404:	bc000008 	stclt	0, cr0, [r0], {8}
    1408:	02000008 	andeq	r0, r0, #8, 0
    140c:	109f3800 	addsne	r3, pc, r0, lsl #16
    1410:	20000009 	andcs	r0, r0, r9
    1414:	02000009 	andeq	r0, r0, #9, 0
    1418:	009f3800 	addseq	r3, pc, r0, lsl #16
    141c:	00000000 	andeq	r0, r0, r0
    1420:	04000000 	streq	r0, [r0], #-0
    1424:	00000707 	andeq	r0, r0, r7, lsl #14
	...
    1430:	0005fc00 	andeq	pc, r5, r0, lsl #24
    1434:	0005fc00 	andeq	pc, r5, r0, lsl #24
    1438:	91000400 	tstls	r0, r0, lsl #8
    143c:	fc9f7ed0 	ldc2	14, cr7, [pc], {208}	; 0xd0
    1440:	78000005 	stmdavc	r0, {r0, r2}
    1444:	04000006 	streq	r0, [r0], #-6
    1448:	7ed19100 	atnvcs	f1, f0
    144c:	0006789f 	muleq	r6, pc, r8	; <UNPREDICTABLE>
    1450:	0006d400 	andeq	sp, r6, r0, lsl #8
    1454:	5c000100 	stfpls	f0, [r0], {-0}
    1458:	000006d4 	ldrdeq	r0, [r0], -r4
    145c:	00000700 	andeq	r0, r0, r0, lsl #14
    1460:	d1910004 	orrsle	r0, r1, r4
    1464:	08a89f7e 	stmiaeq	r8!, {r1, r2, r3, r4, r5, r6, r8, r9, sl, fp, ip, pc}
    1468:	08bc0000 	ldmeq	ip!, {}	; <UNPREDICTABLE>
    146c:	00040000 	andeq	r0, r4, r0
    1470:	9f7ed191 	svcls	0x007ed191
    1474:	00000910 	andeq	r0, r0, r0, lsl r9
    1478:	00000914 	andeq	r0, r0, r4, lsl r9
    147c:	d1910004 	orrsle	r0, r1, r4
    1480:	09149f7e 	ldmdbeq	r4, {r1, r2, r3, r4, r5, r6, r8, r9, sl, fp, ip, pc}
    1484:	09200000 	stmdbeq	r0!, {}	; <UNPREDICTABLE>
    1488:	00010000 	andeq	r0, r1, r0
    148c:	0000005c 	andeq	r0, r0, ip, asr r0
    1490:	00000000 	andeq	r0, r0, r0
    1494:	00010400 	andeq	r0, r1, r0, lsl #8
    1498:	08000001 	stmdaeq	r0, {r0}
    149c:	d0000006 	andle	r0, r0, r6
    14a0:	01000006 	tsteq	r0, r6
    14a4:	08a85500 	stmiaeq	r8!, {r8, sl, ip, lr}
    14a8:	08b80000 	ldmeq	r8!, {}	; <UNPREDICTABLE>
    14ac:	00010000 	andeq	r0, r1, r0
    14b0:	00091055 	andeq	r1, r9, r5, asr r0
    14b4:	00092000 	andeq	r2, r9, r0
    14b8:	55000100 	strpl	r0, [r0, #-256]	; 0xffffff00
	...
    14c4:	00000004 	andeq	r0, r0, r4
    14c8:	00000100 	andeq	r0, r0, r0, lsl #2
    14cc:	00000100 	andeq	r0, r0, r0, lsl #2
    14d0:	00000608 	andeq	r0, r0, r8, lsl #12
    14d4:	000006b0 			; <UNDEFINED> instruction: 0x000006b0
    14d8:	d0910004 	addsle	r0, r1, r4
    14dc:	06b09f7e 			; <UNDEFINED> instruction: 0x06b09f7e
    14e0:	06c80000 	strbeq	r0, [r8], r0
    14e4:	00010000 	andeq	r0, r1, r0
    14e8:	0006c850 	andeq	ip, r6, r0, asr r8
    14ec:	0006d000 	andeq	sp, r6, r0
    14f0:	91000400 	tstls	r0, r0, lsl #8
    14f4:	a89f7ed0 	ldmge	pc, {r4, r6, r7, r9, sl, fp, ip, sp, lr}	; <UNPREDICTABLE>
    14f8:	b0000008 	andlt	r0, r0, r8
    14fc:	04000008 	streq	r0, [r0], #-8
    1500:	7ed09100 	atnvcs	f1, f0
    1504:	0008b09f 	muleq	r8, pc, r0	; <UNPREDICTABLE>
    1508:	0008b800 	andeq	fp, r8, r0, lsl #16
    150c:	53000100 	movwpl	r0, #256	; 0x100
    1510:	00000910 	andeq	r0, r0, r0, lsl r9
    1514:	00000920 	andeq	r0, r0, r0, lsr #18
    1518:	d0910004 	addsle	r0, r1, r4
    151c:	00009f7e 	andeq	r9, r0, lr, ror pc
    1520:	00000000 	andeq	r0, r0, r0
    1524:	00040000 	andeq	r0, r4, r0
    1528:	01010100 	mrseq	r0, (UNDEF: 17)
    152c:	02030301 	andeq	r0, r3, #67108864	; 0x4000000
    1530:	00000100 	andeq	r0, r0, r0, lsl #2
    1534:	06080000 	streq	r0, [r8], -r0
    1538:	06240000 	strteq	r0, [r4], -r0
    153c:	00040000 	andeq	r0, r4, r0
    1540:	9f7ed191 	svcls	0x007ed191
    1544:	00000684 	andeq	r0, r0, r4, lsl #13
    1548:	00000684 	andeq	r0, r0, r4, lsl #13
    154c:	84500001 	ldrbhi	r0, [r0], #-1
    1550:	98000006 	stmdals	r0, {r1, r2}
    1554:	03000006 	movweq	r0, #6
    1558:	9f017000 	svcls	0x00017000
    155c:	00000698 	muleq	r0, r8, r6
    1560:	000006a4 	andeq	r0, r0, r4, lsr #13
    1564:	02700003 	rsbseq	r0, r0, #3, 0
    1568:	0006a49f 	muleq	r6, pc, r4	; <UNPREDICTABLE>
    156c:	0006a800 	andeq	sl, r6, r0, lsl #16
    1570:	70000300 	andvc	r0, r0, r0, lsl #6
    1574:	08a89f03 	stmiaeq	r8!, {r0, r1, r8, r9, sl, fp, ip, pc}
    1578:	08b80000 	ldmeq	r8!, {}	; <UNPREDICTABLE>
    157c:	00040000 	andeq	r0, r4, r0
    1580:	9f7ed191 	svcls	0x007ed191
    1584:	00000910 	andeq	r0, r0, r0, lsl r9
    1588:	00000914 	andeq	r0, r0, r4, lsl r9
    158c:	d1910004 	orrsle	r0, r1, r4
    1590:	09149f7e 	ldmdbeq	r4, {r1, r2, r3, r4, r5, r6, r8, r9, sl, fp, ip, pc}
    1594:	09200000 	stmdbeq	r0!, {}	; <UNPREDICTABLE>
    1598:	00010000 	andeq	r0, r1, r0
    159c:	0000005c 	andeq	r0, r0, ip, asr r0
    15a0:	00000000 	andeq	r0, r0, r0
    15a4:	00000600 	andeq	r0, r0, r0, lsl #12
    15a8:	01010101 	tsteq	r1, r1, lsl #2
    15ac:	00020101 	andeq	r0, r2, r1, lsl #2
    15b0:	08000001 	stmdaeq	r0, {r0}
    15b4:	24000006 	strcs	r0, [r0], #-6
    15b8:	02000006 	andeq	r0, r0, #6, 0
    15bc:	849f3100 	ldrhi	r3, [pc], #256	; 15c4 <__code_start__-0x6a3c>
    15c0:	94000006 	strls	r0, [r0], #-6
    15c4:	01000006 	tsteq	r0, r6
    15c8:	06945200 	ldreq	r5, [r4], r0, lsl #4
    15cc:	06a40000 	strteq	r0, [r4], r0
    15d0:	00010000 	andeq	r0, r1, r0
    15d4:	0006a459 	andeq	sl, r6, r9, asr r4
    15d8:	0006a800 	andeq	sl, r6, r0, lsl #16
    15dc:	52000100 	andpl	r0, r0, #0
    15e0:	000006a8 	andeq	r0, r0, r8, lsr #13
    15e4:	000006a8 	andeq	r0, r0, r8, lsr #13
    15e8:	01720003 	cmneq	r2, r3
    15ec:	0008a89f 	muleq	r8, pc, r8	; <UNPREDICTABLE>
    15f0:	0008b800 	andeq	fp, r8, r0, lsl #16
    15f4:	31000200 	mrscc	r0, R8_usr
    15f8:	0009109f 	muleq	r9, pc, r0	; <UNPREDICTABLE>
    15fc:	00092000 	andeq	r2, r9, r0
    1600:	31000200 	mrscc	r0, R8_usr
    1604:	0000009f 	muleq	r0, pc, r0	; <UNPREDICTABLE>
    1608:	00000000 	andeq	r0, r0, r0
    160c:	06060100 	streq	r0, [r6], -r0, lsl #2
    1610:	d0000100 	andle	r0, r0, r0, lsl #2
    1614:	d0000006 	andle	r0, r0, r6
    1618:	04000006 	streq	r0, [r0], #-6
    161c:	7ed09100 	atnvcs	f1, f0
    1620:	0006d09f 	muleq	r6, pc, r0	; <UNPREDICTABLE>
    1624:	00070000 	andeq	r0, r7, r0
    1628:	50000100 	andpl	r0, r0, r0, lsl #2
    162c:	000008b8 			; <UNDEFINED> instruction: 0x000008b8
    1630:	000008bc 			; <UNDEFINED> instruction: 0x000008bc
    1634:	00530001 	subseq	r0, r3, r1
    1638:	00000000 	andeq	r0, r0, r0
    163c:	01000000 	mrseq	r0, (UNDEF: 0)
    1640:	00000008 	andeq	r0, r0, r8
    1644:	01000101 	tsteq	r0, r1, lsl #2
    1648:	0006d007 	andeq	sp, r6, r7
    164c:	0006d000 	andeq	sp, r6, r0
    1650:	7c000600 	stcvc	6, cr0, [r0], {-0}
    1654:	22007100 	andcs	r7, r0, #0
    1658:	0006e49f 	muleq	r6, pc, r4	; <UNPREDICTABLE>
    165c:	0006e800 	andeq	lr, r6, r0, lsl #16
    1660:	73000300 	movwvc	r0, #768	; 0x300
    1664:	06e89f7f 			; <UNDEFINED> instruction: 0x06e89f7f
    1668:	06f00000 	ldrbteq	r0, [r0], r0
    166c:	00010000 	andeq	r0, r1, r0
    1670:	0006f053 	andeq	pc, r6, r3, asr r0	; <UNPREDICTABLE>
    1674:	0006f800 	andeq	pc, r6, r0, lsl #16
    1678:	73000300 	movwvc	r0, #768	; 0x300
    167c:	08b89f7f 	ldmeq	r8!, {r0, r1, r2, r3, r4, r5, r6, r8, r9, sl, fp, ip, pc}
    1680:	08b80000 	ldmeq	r8!, {}	; <UNPREDICTABLE>
    1684:	00040000 	andeq	r0, r4, r0
    1688:	9f7ed191 	svcls	0x007ed191
	...
    1694:	00010001 	andeq	r0, r1, r1
    1698:	000006d0 	ldrdeq	r0, [r0], -r0	; <UNPREDICTABLE>
    169c:	00000700 	andeq	r0, r0, r0, lsl #14
    16a0:	80080003 	andhi	r0, r8, r3
    16a4:	0008b89f 	muleq	r8, pc, r8	; <UNPREDICTABLE>
    16a8:	0008bc00 	andeq	fp, r8, r0, lsl #24
    16ac:	08000300 	stmdaeq	r0, {r8, r9}
    16b0:	00009f80 	andeq	r9, r0, r0, lsl #31
    16b4:	00000000 	andeq	r0, r0, r0
    16b8:	00010000 	andeq	r0, r1, r0
    16bc:	01000000 	mrseq	r0, (UNDEF: 0)
    16c0:	00000001 	andeq	r0, r0, r1
    16c4:	00010102 	andeq	r0, r1, r2, lsl #2
    16c8:	000006d0 	ldrdeq	r0, [r0], -r0	; <UNPREDICTABLE>
    16cc:	000006e0 	andeq	r0, r0, r0, ror #13
    16d0:	d0910004 	addsle	r0, r1, r4
    16d4:	06e09f7d 			; <UNDEFINED> instruction: 0x06e09f7d
    16d8:	06e40000 	strbteq	r0, [r4], r0
    16dc:	00010000 	andeq	r0, r1, r0
    16e0:	0006e455 	andeq	lr, r6, r5, asr r4
    16e4:	0006e400 	andeq	lr, r6, r0, lsl #8
    16e8:	72000300 	andvc	r0, r0, #0, 6
    16ec:	06e49f01 	strbteq	r9, [r4], r1, lsl #30
    16f0:	06f00000 	ldrbteq	r0, [r0], r0
    16f4:	00030000 	andeq	r0, r3, r0
    16f8:	f09f0272 			; <UNDEFINED> instruction: 0xf09f0272
    16fc:	00000006 	andeq	r0, r0, r6
    1700:	03000007 	movweq	r0, #7
    1704:	9f017200 	svcls	0x00017200
    1708:	000007ec 	andeq	r0, r0, ip, ror #15
    170c:	000007f4 	strdeq	r0, [r0], -r4
    1710:	01730003 	cmneq	r3, r3
    1714:	0008b89f 	muleq	r8, pc, r8	; <UNPREDICTABLE>
    1718:	0008bc00 	andeq	fp, r8, r0, lsl #24
    171c:	91000400 	tstls	r0, r0, lsl #8
    1720:	009f7dd0 			; <UNDEFINED> instruction: 0x009f7dd0
    1724:	00000000 	andeq	r0, r0, r0
    1728:	04000000 	streq	r0, [r0], #-0
    172c:	0008b800 	andeq	fp, r8, r0, lsl #16
    1730:	0008bc00 	andeq	fp, r8, r0, lsl #24
    1734:	32000200 	andcc	r0, r0, #0, 4
    1738:	0000009f 	muleq	r0, pc, r0	; <UNPREDICTABLE>
    173c:	00000000 	andeq	r0, r0, r0
    1740:	00000700 	andeq	r0, r0, r0, lsl #14
    1744:	d0000600 	andle	r0, r0, r0, lsl #12
    1748:	e0000006 	and	r0, r0, r6
    174c:	04000006 	streq	r0, [r0], #-6
    1750:	7dd09100 	ldfvcp	f1, [r0]
    1754:	0006e09f 	muleq	r6, pc, r0	; <UNPREDICTABLE>
    1758:	00070000 	andeq	r0, r7, r0
    175c:	55000100 	strpl	r0, [r0, #-256]	; 0xffffff00
    1760:	000008b8 			; <UNDEFINED> instruction: 0x000008b8
    1764:	000008bc 			; <UNDEFINED> instruction: 0x000008bc
    1768:	d0910004 	addsle	r0, r1, r4
    176c:	00009f7d 	andeq	r9, r0, sp, ror pc
    1770:	00000000 	andeq	r0, r0, r0
    1774:	00010000 	andeq	r0, r1, r0
    1778:	070c0000 	streq	r0, [ip, -r0]
    177c:	07ec0000 	strbeq	r0, [ip, r0]!
    1780:	00030000 	andeq	r0, r3, r0
    1784:	949f8008 	ldrls	r8, [pc], #8	; 178c <__code_start__-0x6874>
    1788:	a8000008 	stmdage	r0, {r3}
    178c:	03000008 	movweq	r0, #8
    1790:	9f800800 	svcls	0x00800800
	...
    17a0:	0000070c 	andeq	r0, r0, ip, lsl #14
    17a4:	000007ec 	andeq	r0, r0, ip, ror #15
    17a8:	9f300002 	svcls	0x00300002
    17ac:	00000894 	muleq	r0, r4, r8
    17b0:	000008a8 	andeq	r0, r0, r8, lsr #17
    17b4:	9f300002 	svcls	0x00300002
	...
    17c4:	0000070c 	andeq	r0, r0, ip, lsl #14
    17c8:	000007d0 	ldrdeq	r0, [r0], -r0	; <UNPREDICTABLE>
    17cc:	94550001 	ldrbls	r0, [r5], #-1
    17d0:	a8000008 	stmdage	r0, {r3}
    17d4:	01000008 	tsteq	r0, r8
    17d8:	00005500 	andeq	r5, r0, r0, lsl #10
	...
    17e8:	0000070c 	andeq	r0, r0, ip, lsl #14
    17ec:	000007d0 	ldrdeq	r0, [r0], -r0	; <UNPREDICTABLE>
    17f0:	d0910004 	addsle	r0, r1, r4
    17f4:	07d09f7d 			; <UNDEFINED> instruction: 0x07d09f7d
    17f8:	07ec0000 	strbeq	r0, [ip, r0]!
    17fc:	00010000 	andeq	r0, r1, r0
    1800:	00089455 	andeq	r9, r8, r5, asr r4
    1804:	0008a800 	andeq	sl, r8, r0, lsl #16
    1808:	91000400 	tstls	r0, r0, lsl #8
    180c:	009f7dd0 			; <UNDEFINED> instruction: 0x009f7dd0
	...
    1818:	0c000000 	stceq	0, cr0, [r0], {-0}
    181c:	ec000007 	stc	0, cr0, [r0], {7}
    1820:	02000007 	andeq	r0, r0, #7, 0
    1824:	949f3200 	ldrls	r3, [pc], #512	; 182c <__code_start__-0x67d4>
    1828:	a8000008 	stmdage	r0, {r3}
    182c:	02000008 	andeq	r0, r0, #8, 0
    1830:	009f3200 	addseq	r3, pc, r0, lsl #4
    1834:	00000000 	andeq	r0, r0, r0
    1838:	03000000 	movweq	r0, #0
    183c:	00000505 	andeq	r0, r0, r5, lsl #10
    1840:	00000000 	andeq	r0, r0, r0
    1844:	00070c00 	andeq	r0, r7, r0, lsl #24
    1848:	00070c00 	andeq	r0, r7, r0, lsl #24
    184c:	51000100 	mrspl	r0, (UNDEF: 16)
    1850:	0000070c 	andeq	r0, r0, ip, lsl #14
    1854:	0000071c 	andeq	r0, r0, ip, lsl r7
    1858:	1c530001 	mrrcne	0, 0, r0, r3, cr1
    185c:	24000007 	strcs	r0, [r0], #-7
    1860:	03000007 	movweq	r0, #7
    1864:	9f017200 	svcls	0x00017200
    1868:	00000724 	andeq	r0, r0, r4, lsr #14
    186c:	000007cc 	andeq	r0, r0, ip, asr #15
    1870:	94530001 	ldrbls	r0, [r3], #-1
    1874:	a8000008 	stmdage	r0, {r3}
    1878:	01000008 	tsteq	r0, r8
    187c:	00005300 	andeq	r5, r0, r0, lsl #6
    1880:	00000000 	andeq	r0, r0, r0
    1884:	00050000 	andeq	r0, r5, r0
    1888:	070c0001 	streq	r0, [ip, -r1]
    188c:	07200000 	streq	r0, [r0, -r0]!
    1890:	00010000 	andeq	r0, r1, r0
    1894:	00072450 	andeq	r2, r7, r0, asr r4
    1898:	00072c00 	andeq	r2, r7, r0, lsl #24
    189c:	50000100 	andpl	r0, r0, r0, lsl #2
	...
    18a8:	01000103 	tsteq	r0, r3, lsl #2
    18ac:	00000728 	andeq	r0, r0, r8, lsr #14
    18b0:	000007b0 			; <UNDEFINED> instruction: 0x000007b0
    18b4:	94550001 	ldrbls	r0, [r5], #-1
    18b8:	a0000008 	andge	r0, r0, r8
    18bc:	01000008 	tsteq	r0, r8
    18c0:	00005500 	andeq	r5, r0, r0, lsl #10
    18c4:	00000000 	andeq	r0, r0, r0
    18c8:	01030000 	mrseq	r0, (UNDEF: 3)
    18cc:	07280100 	streq	r0, [r8, -r0, lsl #2]!
    18d0:	07b00000 	ldreq	r0, [r0, r0]!
    18d4:	00010000 	andeq	r0, r1, r0
    18d8:	00089451 	andeq	r9, r8, r1, asr r4
    18dc:	0008a000 	andeq	sl, r8, r0
    18e0:	51000100 	mrspl	r0, (UNDEF: 16)
	...
    18ec:	01000003 	tsteq	r0, r3
    18f0:	03010101 	movweq	r0, #4353	; 0x1101
    18f4:	01000203 	tsteq	r0, r3, lsl #4
    18f8:	00000728 	andeq	r0, r0, r8, lsr #14
    18fc:	00000750 	andeq	r0, r0, r0, asr r7
    1900:	74530001 	ldrbvc	r0, [r3], #-1
    1904:	74000007 	strvc	r0, [r0], #-7
    1908:	01000007 	tsteq	r0, r7
    190c:	07745e00 	ldrbeq	r5, [r4, -r0, lsl #28]!
    1910:	07880000 	streq	r0, [r8, r0]
    1914:	00030000 	andeq	r0, r3, r0
    1918:	889f017e 	ldmhi	pc, {r1, r2, r3, r4, r5, r6, r8}	; <UNPREDICTABLE>
    191c:	94000007 	strls	r0, [r0], #-7
    1920:	03000007 	movweq	r0, #7
    1924:	9f027e00 	svcls	0x00027e00
    1928:	00000794 	muleq	r0, r4, r7
    192c:	00000798 	muleq	r0, r8, r7
    1930:	037e0003 	cmneq	lr, #3, 0
    1934:	0008949f 	muleq	r8, pc, r4	; <UNPREDICTABLE>
    1938:	0008a000 	andeq	sl, r8, r0
    193c:	53000100 	movwpl	r0, #256	; 0x100
	...
    1948:	01000000 	mrseq	r0, (UNDEF: 0)
    194c:	01010101 	tsteq	r1, r1, lsl #2
    1950:	01000201 	tsteq	r0, r1, lsl #4
    1954:	0000072c 	andeq	r0, r0, ip, lsr #14
    1958:	00000750 	andeq	r0, r0, r0, asr r7
    195c:	74500001 	ldrbvc	r0, [r0], #-1
    1960:	84000007 	strhi	r0, [r0], #-7
    1964:	01000007 	tsteq	r0, r7
    1968:	07845000 	streq	r5, [r4, r0]
    196c:	07940000 	ldreq	r0, [r4, r0]
    1970:	00010000 	andeq	r0, r1, r0
    1974:	0007945b 	andeq	r9, r7, fp, asr r4
    1978:	00079800 	andeq	r9, r7, r0, lsl #16
    197c:	50000100 	andpl	r0, r0, r0, lsl #2
    1980:	00000798 	muleq	r0, r8, r7
    1984:	00000798 	muleq	r0, r8, r7
    1988:	01700003 	cmneq	r0, r3
    198c:	0008949f 	muleq	r8, pc, r4	; <UNPREDICTABLE>
    1990:	0008a000 	andeq	sl, r8, r0
    1994:	50000100 	andpl	r0, r0, r0, lsl #2
	...
    19a0:	00010001 	andeq	r0, r1, r1
    19a4:	000007b0 			; <UNDEFINED> instruction: 0x000007b0
    19a8:	000007ec 	andeq	r0, r0, ip, ror #15
    19ac:	a0510001 	subsge	r0, r1, r1
    19b0:	a8000008 	stmdage	r0, {r3}
    19b4:	01000008 	tsteq	r0, r8
    19b8:	00005100 	andeq	r5, r0, r0, lsl #2
    19bc:	00000000 	andeq	r0, r0, r0
    19c0:	00010000 	andeq	r0, r1, r0
    19c4:	01000000 	mrseq	r0, (UNDEF: 0)
    19c8:	00010001 	andeq	r0, r1, r1
    19cc:	000007b0 			; <UNDEFINED> instruction: 0x000007b0
    19d0:	000007b4 			; <UNDEFINED> instruction: 0x000007b4
    19d4:	00730006 	rsbseq	r0, r3, r6
    19d8:	9f22007c 	svcls	0x0022007c
    19dc:	000007d4 	ldrdeq	r0, [r0], -r4
    19e0:	000007d8 	ldrdeq	r0, [r0], -r8
    19e4:	7f730003 	svcvc	0x00730003
    19e8:	0007d89f 	muleq	r7, pc, r8	; <UNPREDICTABLE>
    19ec:	0007e000 	andeq	lr, r7, r0
    19f0:	53000100 	movwpl	r0, #256	; 0x100
    19f4:	000007e0 	andeq	r0, r0, r0, ror #15
    19f8:	000007e8 	andeq	r0, r0, r8, ror #15
    19fc:	7f730003 	svcvc	0x00730003
    1a00:	0008a09f 	muleq	r8, pc, r0	; <UNPREDICTABLE>
    1a04:	0008a800 	andeq	sl, r8, r0, lsl #16
    1a08:	53000100 	movwpl	r0, #256	; 0x100
	...
    1a14:	00010001 	andeq	r0, r1, r1
    1a18:	000007b0 			; <UNDEFINED> instruction: 0x000007b0
    1a1c:	000007ec 	andeq	r0, r0, ip, ror #15
    1a20:	80080003 	andhi	r0, r8, r3
    1a24:	0008a09f 	muleq	r8, pc, r0	; <UNPREDICTABLE>
    1a28:	0008a800 	andeq	sl, r8, r0, lsl #16
    1a2c:	08000300 	stmdaeq	r0, {r8, r9}
    1a30:	00009f80 	andeq	r9, r0, r0, lsl #31
    1a34:	00000000 	andeq	r0, r0, r0
    1a38:	00010000 	andeq	r0, r1, r0
    1a3c:	01000000 	mrseq	r0, (UNDEF: 0)
    1a40:	00000001 	andeq	r0, r0, r1
    1a44:	07b00001 	ldreq	r0, [r0, r1]!
    1a48:	07d00000 	ldrbeq	r0, [r0, r0]
    1a4c:	00040000 	andeq	r0, r4, r0
    1a50:	9f7dd091 	svcls	0x007dd091
    1a54:	000007d0 	ldrdeq	r0, [r0], -r0	; <UNPREDICTABLE>
    1a58:	000007d4 	ldrdeq	r0, [r0], -r4
    1a5c:	d4550001 	ldrble	r0, [r5], #-1
    1a60:	d4000007 	strle	r0, [r0], #-7
    1a64:	03000007 	movweq	r0, #7
    1a68:	9f017c00 	svcls	0x00017c00
    1a6c:	000007d4 	ldrdeq	r0, [r0], -r4
    1a70:	000007e0 	andeq	r0, r0, r0, ror #15
    1a74:	027c0003 	rsbseq	r0, ip, #3, 0
    1a78:	0007e09f 	muleq	r7, pc, r0	; <UNPREDICTABLE>
    1a7c:	0007ec00 	andeq	lr, r7, r0, lsl #24
    1a80:	7c000300 	stcvc	3, cr0, [r0], {-0}
    1a84:	08a09f01 	stmiaeq	r0!, {r0, r8, r9, sl, fp, ip, pc}
    1a88:	08a80000 	stmiaeq	r8!, {}	; <UNPREDICTABLE>
    1a8c:	00040000 	andeq	r0, r4, r0
    1a90:	9f7dd091 	svcls	0x007dd091
	...
    1a9c:	00040004 	andeq	r0, r4, r4
    1aa0:	000007b0 			; <UNDEFINED> instruction: 0x000007b0
    1aa4:	000007b4 			; <UNDEFINED> instruction: 0x000007b4
    1aa8:	01700003 	cmneq	r0, r3
    1aac:	0008a09f 	muleq	r8, pc, r0	; <UNPREDICTABLE>
    1ab0:	0008a800 	andeq	sl, r8, r0, lsl #16
    1ab4:	70000300 	andvc	r0, r0, r0, lsl #6
    1ab8:	00009f01 	andeq	r9, r0, r1, lsl #30
    1abc:	00000000 	andeq	r0, r0, r0
    1ac0:	00010000 	andeq	r0, r1, r0
    1ac4:	07bc0000 	ldreq	r0, [ip, r0]!
    1ac8:	07d00000 	ldrbeq	r0, [r0, r0]
    1acc:	00040000 	andeq	r0, r4, r0
    1ad0:	9f7dd091 	svcls	0x007dd091
    1ad4:	000007d0 	ldrdeq	r0, [r0], -r0	; <UNPREDICTABLE>
    1ad8:	000007ec 	andeq	r0, r0, ip, ror #15
    1adc:	00550001 	subseq	r0, r5, r1
	...
    1ae8:	28000000 	stmdacs	r0, {}	; <UNPREDICTABLE>
    1aec:	64000003 	strvs	r0, [r0], #-3
    1af0:	01000003 	tsteq	r0, r3
    1af4:	03645000 	cmneq	r4, #0, 0
    1af8:	03880000 	orreq	r0, r8, #0, 0
    1afc:	00040000 	andeq	r0, r4, r0
    1b00:	9f5001f3 	svcls	0x005001f3
	...
    1b10:	00000328 	andeq	r0, r0, r8, lsr #6
    1b14:	0000035c 	andeq	r0, r0, ip, asr r3
    1b18:	5c510001 	mrrcpl	0, 0, r0, r1, cr1
    1b1c:	88000003 	stmdahi	r0, {r0, r1}
    1b20:	04000003 	streq	r0, [r0], #-3
    1b24:	5101f300 	mrspl	pc, SP_irq	; <UNPREDICTABLE>
    1b28:	0000009f 	muleq	r0, pc, r0	; <UNPREDICTABLE>
	...
    1b4c:	00001400 	andeq	r1, r0, r0, lsl #8
    1b50:	50000100 	andpl	r0, r0, r0, lsl #2
    1b54:	00000014 	andeq	r0, r0, r4, lsl r0
    1b58:	00000020 	andeq	r0, r0, r0, lsr #32
    1b5c:	205c0001 	subscs	r0, ip, r1
    1b60:	68000000 	stmdavs	r0, {}	; <UNPREDICTABLE>
    1b64:	03000000 	movweq	r0, #0
    1b68:	9f027100 	svcls	0x00027100
    1b6c:	00000068 	andeq	r0, r0, r8, rrx
    1b70:	0000006c 	andeq	r0, r0, ip, rrx
    1b74:	02730003 	rsbseq	r0, r3, #3, 0
    1b78:	00006c9f 	muleq	r0, pc, ip	; <UNPREDICTABLE>
    1b7c:	00019400 	andeq	r9, r1, r0, lsl #8
    1b80:	f3000400 	vshl.u8	d0, d0, d0
    1b84:	949f5001 	ldrls	r5, [pc], #1	; 1b8c <__code_start__-0x6474>
    1b88:	98000001 	stmdals	r0, {r0}
    1b8c:	03000001 	movweq	r0, #1
    1b90:	9f027300 	svcls	0x00027300
    1b94:	00000198 	muleq	r0, r8, r1
    1b98:	000001c0 	andeq	r0, r0, r0, asr #3
    1b9c:	01f30004 	mvnseq	r0, r4
    1ba0:	01c09f50 	biceq	r9, r0, r0, asr pc
    1ba4:	01c80000 	biceq	r0, r8, r0
    1ba8:	00010000 	andeq	r0, r1, r0
    1bac:	0001c85c 	andeq	ip, r1, ip, asr r8
    1bb0:	00021400 	andeq	r1, r2, r0, lsl #8
    1bb4:	73000300 	movwvc	r0, #768	; 0x300
    1bb8:	02149f02 	andseq	r9, r4, #2, 30
    1bbc:	02ec0000 	rsceq	r0, ip, #0, 0
    1bc0:	00040000 	andeq	r0, r4, r0
    1bc4:	9f5001f3 	svcls	0x005001f3
    1bc8:	000002ec 	andeq	r0, r0, ip, ror #5
    1bcc:	000002f4 	strdeq	r0, [r0], -r4
    1bd0:	02730003 	rsbseq	r0, r3, #3, 0
    1bd4:	0002f49f 	muleq	r2, pc, r4	; <UNPREDICTABLE>
    1bd8:	00032800 	andeq	r2, r3, r0, lsl #16
    1bdc:	f3000400 	vshl.u8	d0, d0, d0
    1be0:	009f5001 	addseq	r5, pc, r1
	...
    1bf4:	1c000000 	stcne	0, cr0, [r0], {-0}
    1bf8:	01000000 	mrseq	r0, (UNDEF: 0)
    1bfc:	001c5100 	andseq	r5, ip, r0, lsl #2
    1c00:	02e00000 	rsceq	r0, r0, #0, 0
    1c04:	00010000 	andeq	r0, r1, r0
    1c08:	0002e050 	andeq	lr, r2, r0, asr r0
    1c0c:	0002ec00 	andeq	lr, r2, r0, lsl #24
    1c10:	f3000400 	vshl.u8	d0, d0, d0
    1c14:	ec9f5101 	ldfs	f5, [pc], {1}
    1c18:	28000002 	stmdacs	r0, {r1}
    1c1c:	01000003 	tsteq	r0, r3
    1c20:	00005000 	andeq	r5, r0, r0
	...
    1c2c:	01000000 	mrseq	r0, (UNDEF: 0)
    1c30:	00000000 	andeq	r0, r0, r0
    1c34:	02000000 	andeq	r0, r0, #0, 0
    1c38:	00000002 	andeq	r0, r0, r2
	...
    1c4c:	00700000 	rsbseq	r0, r0, r0
    1c50:	00010000 	andeq	r0, r1, r0
    1c54:	00007052 	andeq	r7, r0, r2, asr r0
    1c58:	00007800 	andeq	r7, r0, r0, lsl #16
    1c5c:	5c000100 	stfpls	f0, [r0], {-0}
    1c60:	00000078 	andeq	r0, r0, r8, ror r0
    1c64:	000000a4 	andeq	r0, r0, r4, lsr #1
    1c68:	01f30004 	mvnseq	r0, r4
    1c6c:	01949f52 	orrseq	r9, r4, r2, asr pc
    1c70:	019c0000 	orrseq	r0, ip, r0
    1c74:	00010000 	andeq	r0, r1, r0
    1c78:	00019c52 	andeq	r9, r1, r2, asr ip
    1c7c:	0001a400 	andeq	sl, r1, r0, lsl #8
    1c80:	5c000100 	stfpls	f0, [r0], {-0}
    1c84:	000001a4 	andeq	r0, r0, r4, lsr #3
    1c88:	000001c0 	andeq	r0, r0, r0, asr #3
    1c8c:	01f30004 	mvnseq	r0, r4
    1c90:	01c09f52 	biceq	r9, r0, r2, asr pc
    1c94:	02200000 	eoreq	r0, r0, #0, 0
    1c98:	00010000 	andeq	r0, r1, r0
    1c9c:	00022052 	andeq	r2, r2, r2, asr r0
    1ca0:	00022800 	andeq	r2, r2, r0, lsl #16
    1ca4:	72000400 	andvc	r0, r0, #0, 8
    1ca8:	289f1f00 	ldmcs	pc, {r8, r9, sl, fp, ip}	; <UNPREDICTABLE>
    1cac:	74000002 	strvc	r0, [r0], #-2
    1cb0:	05000002 	streq	r0, [r0, #-2]
    1cb4:	5201f300 	andpl	pc, r1, #0, 6
    1cb8:	02749f1f 	rsbseq	r9, r4, #124	; 0x7c
    1cbc:	02880000 	addeq	r0, r8, #0, 0
    1cc0:	00010000 	andeq	r0, r1, r0
    1cc4:	00028852 	andeq	r8, r2, r2, asr r8
    1cc8:	0002a000 	andeq	sl, r2, r0
    1ccc:	5c000100 	stfpls	f0, [r0], {-0}
    1cd0:	000002cc 	andeq	r0, r0, ip, asr #5
    1cd4:	000002d0 	ldrdeq	r0, [r0], -r0	; <UNPREDICTABLE>
    1cd8:	d0520001 	subsle	r0, r2, r1
    1cdc:	e7000002 	str	r0, [r0, -r2]
    1ce0:	01000002 	tsteq	r0, r2
    1ce4:	02e75c00 	rsceq	r5, r7, #0, 24
    1ce8:	02ec0000 	rsceq	r0, ip, #0, 0
    1cec:	00040000 	andeq	r0, r4, r0
    1cf0:	9f5201f3 	svcls	0x005201f3
    1cf4:	000002ec 	andeq	r0, r0, ip, ror #5
    1cf8:	00000300 	andeq	r0, r0, r0, lsl #6
    1cfc:	00520001 	subseq	r0, r2, r1
    1d00:	28000003 	stmdacs	r0, {r0, r1}
    1d04:	01000003 	tsteq	r0, r3
    1d08:	00005c00 	andeq	r5, r0, r0, lsl #24
	...
    1d24:	00000068 	andeq	r0, r0, r8, rrx
    1d28:	68530001 	ldmdavs	r3, {r0}^
    1d2c:	6c000000 	stcvs	0, cr0, [r0], {-0}
    1d30:	03000000 	movweq	r0, #0
    1d34:	9f7f0800 	svcls	0x007f0800
    1d38:	00000194 	muleq	r0, r4, r1
    1d3c:	00000198 	muleq	r0, r8, r1
    1d40:	7f080003 	svcvc	0x00080003
    1d44:	0001c09f 	muleq	r1, pc, r0	; <UNPREDICTABLE>
    1d48:	00021400 	andeq	r1, r2, r0, lsl #8
    1d4c:	08000300 	stmdaeq	r0, {r8, r9}
    1d50:	02749f7f 	rsbseq	r9, r4, #508	; 0x1fc
    1d54:	02900000 	addseq	r0, r0, #0, 0
    1d58:	00010000 	andeq	r0, r1, r0
    1d5c:	00029053 	andeq	r9, r2, r3, asr r0
    1d60:	0002a000 	andeq	sl, r2, r0
    1d64:	f3000400 	vshl.u8	d0, d0, d0
    1d68:	ec9f5301 	ldc	3, cr5, [pc], {1}
    1d6c:	28000002 	stmdacs	r0, {r1}
    1d70:	03000003 	movweq	r0, #3
    1d74:	9f7f0800 	svcls	0x007f0800
	...
    1d80:	00000001 	andeq	r0, r0, r1
    1d84:	00020200 	andeq	r0, r2, r0, lsl #4
    1d88:	00010100 	andeq	r0, r1, r0, lsl #2
    1d8c:	00000000 	andeq	r0, r0, r0
    1d90:	02000000 	andeq	r0, r0, #0, 0
    1d94:	00000002 	andeq	r0, r0, r2
    1d98:	00000001 	andeq	r0, r0, r1
    1d9c:	00000000 	andeq	r0, r0, r0
    1da0:	00010100 	andeq	r0, r1, r0, lsl #2
    1da4:	02000000 	andeq	r0, r0, #0, 0
    1da8:	00000002 	andeq	r0, r0, r2
    1dac:	01000000 	mrseq	r0, (UNDEF: 0)
    1db0:	00000001 	andeq	r0, r0, r1
    1db4:	00000018 	andeq	r0, r0, r8, lsl r0
    1db8:	00000070 	andeq	r0, r0, r0, ror r0
    1dbc:	a0910004 	addsge	r0, r1, r4
    1dc0:	00709f7f 	rsbseq	r9, r0, pc, ror pc
    1dc4:	00780000 	rsbseq	r0, r8, r0
    1dc8:	00010000 	andeq	r0, r1, r0
    1dcc:	00007852 	andeq	r7, r0, r2, asr r8
    1dd0:	00007800 	andeq	r7, r0, r0, lsl #16
    1dd4:	54000100 	strpl	r0, [r0], #-256	; 0xffffff00
    1dd8:	00000078 	andeq	r0, r0, r8, ror r0
    1ddc:	00000088 	andeq	r0, r0, r8, lsl #1
    1de0:	01740003 	cmneq	r4, r3
    1de4:	0000889f 	muleq	r0, pc, r8	; <UNPREDICTABLE>
    1de8:	00009000 	andeq	r9, r0, r0
    1dec:	54000100 	strpl	r0, [r0], #-256	; 0xffffff00
    1df0:	00000090 	muleq	r0, r0, r0
    1df4:	000000a0 	andeq	r0, r0, r0, lsr #1
    1df8:	02740003 	rsbseq	r0, r4, #3, 0
    1dfc:	0000a09f 	muleq	r0, pc, r0	; <UNPREDICTABLE>
    1e00:	0000b000 	andeq	fp, r0, r0
    1e04:	5e000100 	adfpls	f0, f0, f0
    1e08:	00000194 	muleq	r0, r4, r1
    1e0c:	0000019c 	muleq	r0, ip, r1
    1e10:	a0910004 	addsge	r0, r1, r4
    1e14:	019c9f7f 	orrseq	r9, ip, pc, ror pc
    1e18:	01a40000 			; <UNDEFINED> instruction: 0x01a40000
    1e1c:	00010000 	andeq	r0, r1, r0
    1e20:	0001a452 	andeq	sl, r1, r2, asr r4
    1e24:	0001a400 	andeq	sl, r1, r0, lsl #8
    1e28:	5e000100 	adfpls	f0, f0, f0
    1e2c:	000001a4 	andeq	r0, r0, r4, lsr #3
    1e30:	000001b4 			; <UNDEFINED> instruction: 0x000001b4
    1e34:	017e0003 	cmneq	lr, r3
    1e38:	0001b49f 	muleq	r1, pc, r4	; <UNPREDICTABLE>
    1e3c:	0001c000 	andeq	ip, r1, r0
    1e40:	5e000100 	adfpls	f0, f0, f0
    1e44:	000001c0 	andeq	r0, r0, r0, asr #3
    1e48:	00000228 	andeq	r0, r0, r8, lsr #4
    1e4c:	a0910004 	addsge	r0, r1, r4
    1e50:	02289f7f 	eoreq	r9, r8, #508	; 0x1fc
    1e54:	02340000 	eorseq	r0, r4, #0, 0
    1e58:	00010000 	andeq	r0, r1, r0
    1e5c:	00023452 	andeq	r3, r2, r2, asr r4
    1e60:	00025800 	andeq	r5, r2, r0, lsl #16
    1e64:	5e000100 	adfpls	f0, f0, f0
    1e68:	00000258 	andeq	r0, r0, r8, asr r2
    1e6c:	0000025c 	andeq	r0, r0, ip, asr r2
    1e70:	017e0003 	cmneq	lr, r3
    1e74:	00025c9f 	muleq	r2, pc, ip	; <UNPREDICTABLE>
    1e78:	00026400 	andeq	r6, r2, r0, lsl #8
    1e7c:	5e000100 	adfpls	f0, f0, f0
    1e80:	00000264 	andeq	r0, r0, r4, ror #4
    1e84:	00000270 	andeq	r0, r0, r0, ror r2
    1e88:	02710003 	rsbseq	r0, r1, #3, 0
    1e8c:	0002709f 	muleq	r2, pc, r0	; <UNPREDICTABLE>
    1e90:	00027400 	andeq	r7, r2, r0, lsl #8
    1e94:	5e000100 	adfpls	f0, f0, f0
    1e98:	00000274 	andeq	r0, r0, r4, ror r2
    1e9c:	00000274 	andeq	r0, r0, r4, ror r2
    1ea0:	a0910004 	addsge	r0, r1, r4
    1ea4:	02749f7f 	rsbseq	r9, r4, #508	; 0x1fc
    1ea8:	02a00000 	adceq	r0, r0, #0, 0
    1eac:	00040000 	andeq	r0, r4, r0
    1eb0:	9f7fa191 	svcls	0x007fa191
    1eb4:	000002c0 	andeq	r0, r0, r0, asr #5
    1eb8:	000002c8 	andeq	r0, r0, r8, asr #5
    1ebc:	c85e0001 	ldmdagt	lr, {r0}^
    1ec0:	cc000002 	stcgt	0, cr0, [r0], {2}
    1ec4:	01000002 	tsteq	r0, r2
    1ec8:	02cc5600 	sbceq	r5, ip, #0, 12
    1ecc:	02ec0000 	rsceq	r0, ip, #0, 0
    1ed0:	00040000 	andeq	r0, r4, r0
    1ed4:	9f7fa091 	svcls	0x007fa091
    1ed8:	000002ec 	andeq	r0, r0, ip, ror #5
    1edc:	000002fc 	strdeq	r0, [r0], -ip
    1ee0:	a1910004 	orrsge	r0, r1, r4
    1ee4:	02fc9f7f 	rscseq	r9, ip, #508	; 0x1fc
    1ee8:	03280000 			; <UNDEFINED> instruction: 0x03280000
    1eec:	00010000 	andeq	r0, r1, r0
    1ef0:	0000005e 	andeq	r0, r0, lr, asr r0
	...
    1f08:	00000101 	andeq	r0, r0, r1, lsl #2
	...
    1f18:	20000000 	andcs	r0, r0, r0
    1f1c:	70000000 	andvc	r0, r0, r0
    1f20:	01000000 	mrseq	r0, (UNDEF: 0)
    1f24:	00705200 	rsbseq	r5, r0, r0, lsl #4
    1f28:	00940000 	addseq	r0, r4, r0
    1f2c:	00010000 	andeq	r0, r1, r0
    1f30:	0001945c 	andeq	r9, r1, ip, asr r4
    1f34:	00019c00 	andeq	r9, r1, r0, lsl #24
    1f38:	52000100 	andpl	r0, r0, #0
    1f3c:	0000019c 	muleq	r0, ip, r1
    1f40:	000001c0 	andeq	r0, r0, r0, asr #3
    1f44:	c85c0001 	ldmdagt	ip, {r0}^
    1f48:	10000001 	andne	r0, r0, r1
    1f4c:	01000002 	tsteq	r0, r2
    1f50:	02105c00 	andseq	r5, r0, #0, 24
    1f54:	02240000 	eoreq	r0, r4, #0, 0
    1f58:	00010000 	andeq	r0, r1, r0
    1f5c:	00022452 	andeq	r2, r2, r2, asr r4
    1f60:	00024800 	andeq	r4, r2, r0, lsl #16
    1f64:	5c000100 	stfpls	f0, [r0], {-0}
    1f68:	00000248 	andeq	r0, r0, r8, asr #4
    1f6c:	0000025c 	andeq	r0, r0, ip, asr r2
    1f70:	5c550001 	mrrcpl	0, 0, r0, r5, cr1
    1f74:	68000002 	stmdavs	r0, {r1}
    1f78:	01000002 	tsteq	r0, r2
    1f7c:	02685c00 	rsbeq	r5, r8, #0, 24
    1f80:	02740000 	rsbseq	r0, r4, #0, 0
    1f84:	00190000 	andseq	r0, r9, r0
    1f88:	2cf70075 	ldclcs	0, cr0, [r7], #468	; 0x1d4
    1f8c:	007625f7 	ldrshteq	r2, [r6], #-87	; 0xffffffa9
    1f90:	25f72cf7 	ldrbcs	r2, [r7, #3319]!	; 0xcf7
    1f94:	f720081e 			; <UNDEFINED> instruction: 0xf720081e
    1f98:	2cf72525 	cfldr64cs	mvdx2, [r7], #148	; 0x94
    1f9c:	253300f7 	ldrcs	r0, [r3, #-247]!	; 0xffffff09
    1fa0:	0002749f 	muleq	r2, pc, r4	; <UNPREDICTABLE>
    1fa4:	00028800 	andeq	r8, r2, r0, lsl #16
    1fa8:	52000100 	andpl	r0, r0, #0
    1fac:	00000288 	andeq	r0, r0, r8, lsl #5
    1fb0:	000002a0 	andeq	r0, r0, r0, lsr #5
    1fb4:	cc5c0001 	mrrcgt	0, 0, r0, ip, cr1
    1fb8:	d0000002 	andle	r0, r0, r2
    1fbc:	01000002 	tsteq	r0, r2
    1fc0:	02d05200 	sbcseq	r5, r0, #0, 4
    1fc4:	02e70000 	rsceq	r0, r7, #0, 0
    1fc8:	00010000 	andeq	r0, r1, r0
    1fcc:	0002e75c 	andeq	lr, r2, ip, asr r7
    1fd0:	0002ec00 	andeq	lr, r2, r0, lsl #24
    1fd4:	f3000400 	vshl.u8	d0, d0, d0
    1fd8:	ec9f5201 	lfm	f5, 4, [pc], {1}
    1fdc:	00000002 	andeq	r0, r0, r2
    1fe0:	01000003 	tsteq	r0, r3
    1fe4:	03005200 	movweq	r5, #512	; 0x200
    1fe8:	03280000 			; <UNDEFINED> instruction: 0x03280000
    1fec:	00010000 	andeq	r0, r1, r0
    1ff0:	0000005c 	andeq	r0, r0, ip, asr r0
    1ff4:	00000000 	andeq	r0, r0, r0
    1ff8:	04000400 	streq	r0, [r0], #-1024	; 0xfffffc00
    1ffc:	00010000 	andeq	r0, r1, r0
    2000:	a4000400 	strge	r0, [r0], #-1024	; 0xfffffc00
    2004:	b0000000 	andlt	r0, r0, r0
    2008:	01000000 	mrseq	r0, (UNDEF: 0)
    200c:	027c5300 	rsbseq	r5, ip, #0, 6
    2010:	02900000 	addseq	r0, r0, #0, 0
    2014:	00010000 	andeq	r0, r1, r0
    2018:	00029053 	andeq	r9, r2, r3, asr r0
    201c:	00029c00 	andeq	r9, r2, r0, lsl #24
    2020:	f3000400 	vshl.u8	d0, d0, d0
    2024:	c09f5301 	addsgt	r5, pc, r1, lsl #6
    2028:	cc000002 	stcgt	0, cr0, [r0], {2}
    202c:	01000002 	tsteq	r0, r2
    2030:	02f05300 	rscseq	r5, r0, #0, 6
    2034:	03280000 			; <UNDEFINED> instruction: 0x03280000
    2038:	00030000 	andeq	r0, r3, r0
    203c:	009f7f08 	addseq	r7, pc, r8, lsl #30
    2040:	00000000 	andeq	r0, r0, r0
    2044:	04000000 	streq	r0, [r0], #-0
    2048:	04010000 	streq	r0, [r1], #-0
    204c:	00010000 	andeq	r0, r1, r0
    2050:	04000000 	streq	r0, [r0], #-0
    2054:	a4000000 	strge	r0, [r0], #-0
    2058:	b0000000 	andlt	r0, r0, r0
    205c:	01000000 	mrseq	r0, (UNDEF: 0)
    2060:	00b05200 	adcseq	r5, r0, r0, lsl #4
    2064:	015c0000 	cmpeq	ip, r0
    2068:	00040000 	andeq	r0, r4, r0
    206c:	9f7fa091 	svcls	0x007fa091
    2070:	0000027c 	andeq	r0, r0, ip, ror r2
    2074:	00000294 	muleq	r0, r4, r2
    2078:	a0910004 	addsge	r0, r1, r4
    207c:	02949f7f 	addseq	r9, r4, #508	; 0x1fc
    2080:	029c0000 	addseq	r0, ip, #0, 0
    2084:	00010000 	andeq	r0, r1, r0
    2088:	0002b45e 	andeq	fp, r2, lr, asr r4
    208c:	0002c000 	andeq	ip, r2, r0
    2090:	91000400 	tstls	r0, r0, lsl #8
    2094:	c09f7fa0 	addsgt	r7, pc, r0, lsr #31
    2098:	cc000002 	stcgt	0, cr0, [r0], {2}
    209c:	01000002 	tsteq	r0, r2
    20a0:	02f05200 	rscseq	r5, r0, #0, 4
    20a4:	03000000 	movweq	r0, #0
    20a8:	00040000 	andeq	r0, r4, r0
    20ac:	9f7fa091 	svcls	0x007fa091
    20b0:	00000300 	andeq	r0, r0, r0, lsl #6
    20b4:	00000328 	andeq	r0, r0, r8, lsr #6
    20b8:	00520001 	subseq	r0, r2, r1
    20bc:	00000000 	andeq	r0, r0, r0
    20c0:	04000000 	streq	r0, [r0], #-0
    20c4:	01010000 	mrseq	r0, (UNDEF: 1)
    20c8:	03030101 	movweq	r0, #12545	; 0x3101
    20cc:	00010402 	andeq	r0, r1, r2, lsl #8
    20d0:	04000000 	streq	r0, [r0], #-0
    20d4:	a4000000 	strge	r0, [r0], #-0
    20d8:	b0000000 	andlt	r0, r0, r0
    20dc:	01000000 	mrseq	r0, (UNDEF: 0)
    20e0:	010c5e00 	tsteq	ip, r0, lsl #28
    20e4:	010c0000 	mrseq	r0, (UNDEF: 12)
    20e8:	00010000 	andeq	r0, r1, r0
    20ec:	00010c55 	andeq	r0, r1, r5, asr ip
    20f0:	00012000 	andeq	r2, r1, r0
    20f4:	75000300 	strvc	r0, [r0, #-768]	; 0xfffffd00
    20f8:	01209f01 			; <UNDEFINED> instruction: 0x01209f01
    20fc:	012c0000 			; <UNDEFINED> instruction: 0x012c0000
    2100:	00030000 	andeq	r0, r3, r0
    2104:	2c9f0275 	lfmcs	f0, 4, [pc], {117}	; 0x75
    2108:	30000001 	andcc	r0, r0, r1
    210c:	03000001 	movweq	r0, #1
    2110:	9f037500 	svcls	0x00037500
    2114:	0000027c 	andeq	r0, r0, ip, ror r2
    2118:	0000029c 	muleq	r0, ip, r2
    211c:	a1910004 	orrsge	r0, r1, r4
    2120:	02c09f7f 	sbceq	r9, r0, #508	; 0x1fc
    2124:	02c80000 	sbceq	r0, r8, #0, 0
    2128:	00010000 	andeq	r0, r1, r0
    212c:	0002c85e 	andeq	ip, r2, lr, asr r8
    2130:	0002cc00 	andeq	ip, r2, r0, lsl #24
    2134:	56000100 	strpl	r0, [r0], -r0, lsl #2
    2138:	000002f0 	strdeq	r0, [r0], -r0	; <UNPREDICTABLE>
    213c:	000002fc 	strdeq	r0, [r0], -ip
    2140:	a1910004 	orrsge	r0, r1, r4
    2144:	02fc9f7f 	rscseq	r9, ip, #508	; 0x1fc
    2148:	03280000 			; <UNDEFINED> instruction: 0x03280000
    214c:	00010000 	andeq	r0, r1, r0
    2150:	0000005e 	andeq	r0, r0, lr, asr r0
	...
    215c:	01010101 	tsteq	r1, r1, lsl #2
    2160:	06020101 	streq	r0, [r2], -r1, lsl #2
    2164:	06000001 	streq	r0, [r0], -r1
    2168:	0000a800 	andeq	sl, r0, r0, lsl #16
    216c:	0000b000 	andeq	fp, r0, r0
    2170:	51000100 	mrspl	r0, (UNDEF: 16)
    2174:	0000010c 	andeq	r0, r0, ip, lsl #2
    2178:	0000011c 	andeq	r0, r0, ip, lsl r1
    217c:	1c5c0001 	mrrcne	0, 0, r0, ip, cr1
    2180:	2c000001 	stccs	0, cr0, [r0], {1}
    2184:	01000001 	tsteq	r0, r1
    2188:	012c5800 			; <UNDEFINED> instruction: 0x012c5800
    218c:	01300000 	teqeq	r0, r0
    2190:	00010000 	andeq	r0, r1, r0
    2194:	0001305c 	andeq	r3, r1, ip, asr r0
    2198:	00013000 	andeq	r3, r1, r0
    219c:	7c000300 	stcvc	3, cr0, [r0], {-0}
    21a0:	027c9f01 	rsbseq	r9, ip, #1, 30
    21a4:	029c0000 	addseq	r0, ip, #0, 0
    21a8:	00020000 	andeq	r0, r2, r0
    21ac:	02c09f31 	sbceq	r9, r0, #196	; 0xc4
    21b0:	02cc0000 	sbceq	r0, ip, #0, 0
    21b4:	00010000 	andeq	r0, r1, r0
    21b8:	0002f051 	andeq	pc, r2, r1, asr r0	; <UNPREDICTABLE>
    21bc:	00032800 	andeq	r2, r3, r0, lsl #16
    21c0:	31000200 	mrscc	r0, R8_usr
    21c4:	0000009f 	muleq	r0, pc, r0	; <UNPREDICTABLE>
    21c8:	00000000 	andeq	r0, r0, r0
    21cc:	06060100 	streq	r0, [r6], -r0, lsl #2
    21d0:	00000101 	andeq	r0, r0, r1, lsl #2
    21d4:	00015c01 	andeq	r5, r1, r1, lsl #24
    21d8:	00015c00 	andeq	r5, r1, r0, lsl #24
    21dc:	91000400 	tstls	r0, r0, lsl #8
    21e0:	5c9f7fa0 	ldcpl	15, cr7, [pc], {160}	; 0xa0
    21e4:	8c000001 	stchi	0, cr0, [r0], {1}
    21e8:	01000001 	tsteq	r0, r1
    21ec:	029c5200 	addseq	r5, ip, #0, 4
    21f0:	02a00000 	adceq	r0, r0, #0, 0
    21f4:	00010000 	andeq	r0, r1, r0
    21f8:	0002a05e 	andeq	sl, r2, lr, asr r0
    21fc:	0002ac00 	andeq	sl, r2, r0, lsl #24
    2200:	52000100 	andpl	r0, r0, #0
	...
    220c:	01000000 	mrseq	r0, (UNDEF: 0)
    2210:	07010001 	streq	r0, [r1, -r1]
    2214:	0000016c 	andeq	r0, r0, ip, ror #2
    2218:	00000170 	andeq	r0, r0, r0, ror r1
    221c:	7f730003 	svcvc	0x00730003
    2220:	0001709f 	muleq	r1, pc, r0	; <UNPREDICTABLE>
    2224:	00017800 	andeq	r7, r1, r0, lsl #16
    2228:	53000100 	movwpl	r0, #256	; 0x100
    222c:	00000178 	andeq	r0, r0, r8, ror r1
    2230:	00000184 	andeq	r0, r0, r4, lsl #3
    2234:	7f730003 	svcvc	0x00730003
    2238:	00029c9f 	muleq	r2, pc, ip	; <UNPREDICTABLE>
    223c:	00029c00 	andeq	r9, r2, r0, lsl #24
    2240:	91000400 	tstls	r0, r0, lsl #8
    2244:	009f7fa1 	addseq	r7, pc, r1, lsr #31
    2248:	00000000 	andeq	r0, r0, r0
    224c:	01000000 	mrseq	r0, (UNDEF: 0)
    2250:	5c010101 	stfpls	f0, [r1], {1}
    2254:	8c000001 	stchi	0, cr0, [r0], {1}
    2258:	03000001 	movweq	r0, #1
    225c:	9f800800 	svcls	0x00800800
    2260:	0000029c 	muleq	r0, ip, r2
    2264:	000002ac 	andeq	r0, r0, ip, lsr #5
    2268:	80080003 	andhi	r0, r8, r3
    226c:	0000009f 	muleq	r0, pc, r0	; <UNPREDICTABLE>
    2270:	00000000 	andeq	r0, r0, r0
    2274:	00000100 	andeq	r0, r0, r0, lsl #2
    2278:	00000101 	andeq	r0, r0, r1, lsl #2
    227c:	01010101 	tsteq	r1, r1, lsl #2
    2280:	5c010101 	stfpls	f0, [r1], {1}
    2284:	6c000001 	stcvs	0, cr0, [r0], {1}
    2288:	01000001 	tsteq	r0, r1
    228c:	016c5000 	cmneq	ip, r0
    2290:	016c0000 	cmneq	ip, r0
    2294:	00030000 	andeq	r0, r3, r0
    2298:	6c9f017c 	ldfvss	f0, [pc], {124}	; 0x7c
    229c:	78000001 	stmdavc	r0, {r0}
    22a0:	03000001 	movweq	r0, #1
    22a4:	9f027c00 	svcls	0x00027c00
    22a8:	00000178 	andeq	r0, r0, r8, ror r1
    22ac:	00000188 	andeq	r0, r0, r8, lsl #3
    22b0:	017c0003 	cmneq	ip, r3
    22b4:	0001889f 	muleq	r1, pc, r8	; <UNPREDICTABLE>
    22b8:	00018c00 	andeq	r8, r1, r0, lsl #24
    22bc:	7e000300 	cdpvc	3, 0, cr0, cr0, cr0, {0}
    22c0:	029c9f01 	addseq	r9, ip, #1, 30
    22c4:	02a40000 	adceq	r0, r4, #0, 0
    22c8:	00010000 	andeq	r0, r1, r0
    22cc:	0002a450 	andeq	sl, r2, r0, asr r4
    22d0:	0002ac00 	andeq	sl, r2, r0, lsl #24
    22d4:	7e000300 	cdpvc	3, 0, cr0, cr0, cr0, {0}
    22d8:	00009f01 	andeq	r9, r0, r1, lsl #30
    22dc:	00000000 	andeq	r0, r0, r0
    22e0:	00040000 	andeq	r0, r4, r0
    22e4:	01000004 	tsteq	r0, r4
    22e8:	0000015c 	andeq	r0, r0, ip, asr r1
    22ec:	00000160 	andeq	r0, r0, r0, ror #2
    22f0:	01710003 	cmneq	r1, r3
    22f4:	00029c9f 	muleq	r2, pc, ip	; <UNPREDICTABLE>
    22f8:	0002a000 	andeq	sl, r2, r0
    22fc:	32000200 	andcc	r0, r0, #0, 4
    2300:	0002a09f 	muleq	r2, pc, r0	; <UNPREDICTABLE>
    2304:	0002ac00 	andeq	sl, r2, r0, lsl #24
    2308:	71000300 	mrsvc	r0, LR_irq
    230c:	00009f01 	andeq	r9, r0, r1, lsl #30
    2310:	00000000 	andeq	r0, r0, r0
    2314:	00070000 	andeq	r0, r7, r0
    2318:	015c0006 	cmpeq	ip, r6
    231c:	01940000 	orrseq	r0, r4, r0
    2320:	00010000 	andeq	r0, r1, r0
    2324:	00029c50 	andeq	r9, r2, r0, asr ip
    2328:	0002b400 	andeq	fp, r2, r0, lsl #8
    232c:	50000100 	andpl	r0, r0, r0, lsl #2
	...
    2338:	00010101 	andeq	r0, r1, r1, lsl #2
    233c:	00000214 	andeq	r0, r0, r4, lsl r2
    2340:	00000220 	andeq	r0, r0, r0, lsr #4
    2344:	9f300002 	svcls	0x00300002
    2348:	00000220 	andeq	r0, r0, r0, lsr #4
    234c:	00000234 	andeq	r0, r0, r4, lsr r2
    2350:	9f310002 	svcls	0x00310002
	...
    235c:	00010100 	andeq	r0, r1, r0, lsl #2
    2360:	00010100 	andeq	r0, r1, r0, lsl #2
    2364:	00010100 	andeq	r0, r1, r0, lsl #2
    2368:	00010100 	andeq	r0, r1, r0, lsl #2
    236c:	00010100 	andeq	r0, r1, r0, lsl #2
    2370:	01020200 	mrseq	r0, R10_usr
    2374:	00000080 	andeq	r0, r0, r0, lsl #1
    2378:	00000080 	andeq	r0, r0, r0, lsl #1
    237c:	80530001 	subshi	r0, r3, r1
    2380:	8c000000 	stchi	0, cr0, [r0], {-0}
    2384:	03000000 	movweq	r0, #0
    2388:	9f047300 	svcls	0x00047300
    238c:	0000008c 	andeq	r0, r0, ip, lsl #1
    2390:	00000094 	muleq	r0, r4, r0
    2394:	94510001 	ldrbls	r0, [r1], #-1
    2398:	98000000 	stmdals	r0, {}	; <UNPREDICTABLE>
    239c:	03000000 	movweq	r0, #0
    23a0:	9f087300 	svcls	0x00087300
    23a4:	00000098 	muleq	r0, r8, r0
    23a8:	000000a4 	andeq	r0, r0, r4, lsr #1
    23ac:	a4510001 	ldrbge	r0, [r1], #-1
    23b0:	a8000000 	stmdage	r0, {}	; <UNPREDICTABLE>
    23b4:	03000000 	movweq	r0, #0
    23b8:	9f0c7300 	svcls	0x000c7300
    23bc:	000000a8 	andeq	r0, r0, r8, lsr #1
    23c0:	000000b4 	strheq	r0, [r0], -r4
    23c4:	b4510001 	ldrblt	r0, [r1], #-1
    23c8:	b8000000 	stmdalt	r0, {}	; <UNPREDICTABLE>
    23cc:	03000000 	movweq	r0, #0
    23d0:	9f107300 	svcls	0x00107300
    23d4:	000000b8 	strheq	r0, [r0], -r8
    23d8:	000000c4 	andeq	r0, r0, r4, asr #1
    23dc:	c4510001 	ldrbgt	r0, [r1], #-1
    23e0:	c8000000 	stmdagt	r0, {}	; <UNPREDICTABLE>
    23e4:	03000000 	movweq	r0, #0
    23e8:	9f147300 	svcls	0x00147300
    23ec:	000000c8 	andeq	r0, r0, r8, asr #1
    23f0:	000000d0 	ldrdeq	r0, [r0], -r0	; <UNPREDICTABLE>
    23f4:	d0510001 	subsle	r0, r1, r1
    23f8:	d4000000 	strle	r0, [r0], #-0
    23fc:	03000000 	movweq	r0, #0
    2400:	9f047100 	svcls	0x00047100
	...
    240c:	01080001 	tsteq	r8, r1
    2410:	010b0000 	mrseq	r0, (UNDEF: 11)
    2414:	00010000 	andeq	r0, r1, r0
    2418:	00000051 	andeq	r0, r0, r1, asr r0
    241c:	00000000 	andeq	r0, r0, r0
    2420:	d8000200 	stmdale	r0, {r9}
    2424:	10000000 	andne	r0, r0, r0
    2428:	02000001 	andeq	r0, r0, #1, 0
    242c:	009f3100 	addseq	r3, pc, r0, lsl #2
    2430:	00000000 	andeq	r0, r0, r0
    2434:	05000000 	streq	r0, [r0, #-0]
    2438:	0000e003 	andeq	lr, r0, r3
    243c:	0000e400 	andeq	lr, r0, r0, lsl #8
    2440:	30000200 	andcc	r0, r0, r0, lsl #4
    2444:	0000009f 	muleq	r0, pc, r0	; <UNPREDICTABLE>
    2448:	00000000 	andeq	r0, r0, r0
    244c:	e4000100 	str	r0, [r0], #-256	; 0xffffff00
    2450:	ef000000 	svc	0x00000000
    2454:	01000000 	mrseq	r0, (UNDEF: 0)
    2458:	00005300 	andeq	r5, r0, r0, lsl #6
    245c:	00000000 	andeq	r0, r0, r0
    2460:	01000000 	mrseq	r0, (UNDEF: 0)
    2464:	000000e4 	andeq	r0, r0, r4, ror #1
    2468:	000000ec 	andeq	r0, r0, ip, ror #1
    246c:	00530001 	subseq	r0, r3, r1
    2470:	00000000 	andeq	r0, r0, r0
    2474:	04000000 	streq	r0, [r0], #-0
    2478:	f0010000 			; <UNDEFINED> instruction: 0xf0010000
    247c:	04000000 	streq	r0, [r0], #-0
    2480:	02000001 	andeq	r0, r0, #1, 0
    2484:	049f3000 	ldreq	r3, [pc], #0	; 248c <__code_start__-0x5b74>
    2488:	08000001 	stmdaeq	r0, {r0}
    248c:	01000001 	tsteq	r0, r1
    2490:	00005100 	andeq	r5, r0, r0, lsl #2
    2494:	00000000 	andeq	r0, r0, r0
    2498:	00010000 	andeq	r0, r1, r0
    249c:	000000f4 	strdeq	r0, [r0], -r4
    24a0:	0000010b 	andeq	r0, r0, fp, lsl #2
    24a4:	00530001 	subseq	r0, r3, r1
	...
    24b0:	0000f401 	andeq	pc, r0, r1, lsl #8
    24b4:	00010800 	andeq	r0, r1, r0, lsl #16
    24b8:	53000100 	movwpl	r0, #256	; 0x100
	...
    24c4:	01000004 	tsteq	r0, r4
    24c8:	00009b58 	andeq	r9, r0, r8, asr fp
    24cc:	00009b60 	andeq	r9, r0, r0, ror #22
    24d0:	9f300002 	svcls	0x00300002
    24d4:	00009b60 	andeq	r9, r0, r0, ror #22
    24d8:	00009b60 	andeq	r9, r0, r0, ror #22
    24dc:	00530001 	subseq	r0, r3, r1
    24e0:	00000000 	andeq	r0, r0, r0
    24e4:	03000000 	movweq	r0, #0
    24e8:	00000000 	andeq	r0, r0, r0
    24ec:	6c000000 	stcvs	0, cr0, [r0], {-0}
    24f0:	7000009b 	mulvc	r0, fp, r0
    24f4:	0200009b 	andeq	r0, r0, #155, 0	; 0x9b
    24f8:	709f3000 	addsvc	r3, pc, r0
    24fc:	7400009b 	strvc	r0, [r0], #-155	; 0xffffff65
    2500:	0100009b 	swpeq	r0, fp, [r0]	; <UNPREDICTABLE>
    2504:	9b745300 	blls	1d1710c <__bss_end__+0x1d0bee4>
    2508:	9b780000 	blls	1e02510 <__bss_end__+0x1df72e8>
    250c:	00050000 	andeq	r0, r5, r0
    2510:	21400073 	hvccs	3
    2514:	009b789f 	umullseq	r7, fp, pc, r8	; <UNPREDICTABLE>
    2518:	009b7c00 	addseq	r7, fp, r0, lsl #24
    251c:	53000100 	movwpl	r0, #256	; 0x100
	...
    2528:	00000002 	andeq	r0, r0, r2
    252c:	00009b2c 	andeq	r9, r0, ip, lsr #22
    2530:	00009b30 	andeq	r9, r0, r0, lsr fp
    2534:	9f300002 	svcls	0x00300002
    2538:	00009b30 	andeq	r9, r0, r0, lsr fp
    253c:	00009b34 	andeq	r9, r0, r4, lsr fp
    2540:	00500001 	subseq	r0, r0, r1
    2544:	00000000 	andeq	r0, r0, r0
    2548:	02000000 	andeq	r0, r0, #0, 0
    254c:	00000000 	andeq	r0, r0, r0
    2550:	44000000 	strmi	r0, [r0], #-0
    2554:	4800009b 	stmdami	r0, {r0, r1, r3, r4, r7}
    2558:	0200009b 	andeq	r0, r0, #155, 0	; 0x9b
    255c:	489f3000 	ldmmi	pc, {ip, sp}	; <UNPREDICTABLE>
    2560:	4c00009b 	stcmi	0, cr0, [r0], {155}	; 0x9b
    2564:	0100009b 	swpeq	r0, fp, [r0]	; <UNPREDICTABLE>
    2568:	9b4c5300 	blls	1317170 <__bss_end__+0x130bf48>
    256c:	9b500000 	blls	1402574 <__bss_end__+0x13f734c>
    2570:	00050000 	andeq	r0, r5, r0
    2574:	21400073 	hvccs	3
    2578:	009b509f 	umullseq	r5, fp, pc, r0	; <UNPREDICTABLE>
    257c:	009b5800 	addseq	r5, fp, r0, lsl #16
    2580:	53000100 	movwpl	r0, #256	; 0x100
	...
    2590:	000000c8 	andeq	r0, r0, r8, asr #1
    2594:	000000d8 	ldrdeq	r0, [r0], -r8
    2598:	d8500001 	ldmdale	r0, {r0}^
    259c:	1c000000 	stcne	0, cr0, [r0], {-0}
    25a0:	04000001 	streq	r0, [r0], #-1
    25a4:	5001f300 	andpl	pc, r1, r0, lsl #6
    25a8:	0000009f 	muleq	r0, pc, r0	; <UNPREDICTABLE>
    25ac:	00000000 	andeq	r0, r0, r0
    25b0:	00000200 	andeq	r0, r0, r0, lsl #4
    25b4:	0000c800 	andeq	ip, r0, r0, lsl #16
    25b8:	0000d800 	andeq	sp, r0, r0, lsl #16
    25bc:	70000700 	andvc	r0, r0, r0, lsl #14
    25c0:	03e80a00 	mvneq	r0, #0, 20
    25c4:	00d89f1e 	sbcseq	r9, r8, lr, lsl pc
    25c8:	011c0000 	tsteq	ip, r0
    25cc:	00080000 	andeq	r0, r8, r0
    25d0:	0a5001f3 	beq	1402da4 <__bss_end__+0x13f7b7c>
    25d4:	9f1e03e8 	svcls	0x001e03e8
	...
    25e0:	00dc0000 	sbcseq	r0, ip, r0
    25e4:	011c0000 	tsteq	ip, r0
    25e8:	00010000 	andeq	r0, r1, r0
    25ec:	00000054 	andeq	r0, r0, r4, asr r0
    25f0:	00000000 	andeq	r0, r0, r0
    25f4:	f0000100 			; <UNDEFINED> instruction: 0xf0000100
    25f8:	1c000000 	stcne	0, cr0, [r0], {-0}
    25fc:	01000001 	tsteq	r0, r1
    2600:	00005600 	andeq	r5, r0, r0, lsl #12
	...
    260c:	00ec0000 	rsceq	r0, ip, r0
    2610:	00ef0000 	rsceq	r0, pc, r0
    2614:	00010000 	andeq	r0, r1, r0
    2618:	0000ef50 	andeq	lr, r0, r0, asr pc
    261c:	00011c00 	andeq	r1, r1, r0, lsl #24
    2620:	56000100 	strpl	r0, [r0], -r0, lsl #2
	...
    262c:	01040000 	mrseq	r0, (UNDEF: 4)
    2630:	010b0000 	mrseq	r0, (UNDEF: 11)
    2634:	00010000 	andeq	r0, r1, r0
    2638:	00000050 	andeq	r0, r0, r0, asr r0
	...
    2644:	00002000 	andeq	r2, r0, r0
    2648:	00002300 	andeq	r2, r0, r0, lsl #6
    264c:	50000100 	andpl	r0, r0, r0, lsl #2
    2650:	00000023 	andeq	r0, r0, r3, lsr #32
    2654:	00000030 	andeq	r0, r0, r0, lsr r0
    2658:	00540001 	subseq	r0, r4, r1
	...
    2664:	30000000 	andcc	r0, r0, r0
    2668:	3b000000 	blcc	2670 <__code_start__-0x5990>
    266c:	01000000 	mrseq	r0, (UNDEF: 0)
    2670:	003b5000 	eorseq	r5, fp, r0
    2674:	00780000 	rsbseq	r0, r8, r0
    2678:	00010000 	andeq	r0, r1, r0
    267c:	00000056 	andeq	r0, r0, r6, asr r0
    2680:	00000000 	andeq	r0, r0, r0
    2684:	4c000100 	stfmis	f0, [r0], {-0}
    2688:	78000000 	stmdavc	r0, {}	; <UNPREDICTABLE>
    268c:	01000000 	mrseq	r0, (UNDEF: 0)
    2690:	00005500 	andeq	r5, r0, r0, lsl #10
	...
    269c:	00480000 	subeq	r0, r8, r0
    26a0:	004b0000 	subeq	r0, fp, r0
    26a4:	00010000 	andeq	r0, r1, r0
    26a8:	00004b50 	andeq	r4, r0, r0, asr fp
    26ac:	00007800 	andeq	r7, r0, r0, lsl #16
    26b0:	55000100 	strpl	r0, [r0, #-256]	; 0xffffff00
	...
    26bc:	00600000 	rsbeq	r0, r0, r0
    26c0:	00670000 	rsbeq	r0, r7, r0
    26c4:	00010000 	andeq	r0, r1, r0
    26c8:	00000050 	andeq	r0, r0, r0, asr r0
	...
    26d4:	00007800 	andeq	r7, r0, r0, lsl #16
    26d8:	00008400 	andeq	r8, r0, r0, lsl #8
    26dc:	50000100 	andpl	r0, r0, r0, lsl #2
    26e0:	00000084 	andeq	r0, r0, r4, lsl #1
    26e4:	000000c8 	andeq	r0, r0, r8, asr #1
    26e8:	01f30004 	mvnseq	r0, r4
    26ec:	00009f50 	andeq	r9, r0, r0, asr pc
	...
    26f8:	00000088 	andeq	r0, r0, r8, lsl #1
    26fc:	000000c8 	andeq	r0, r0, r8, asr #1
    2700:	00540001 	subseq	r0, r4, r1
    2704:	00000000 	andeq	r0, r0, r0
    2708:	01000000 	mrseq	r0, (UNDEF: 0)
    270c:	00009c00 	andeq	r9, r0, r0, lsl #24
    2710:	0000c800 	andeq	ip, r0, r0, lsl #16
    2714:	56000100 	strpl	r0, [r0], -r0, lsl #2
	...
    2724:	00000098 	muleq	r0, r8, r0
    2728:	0000009b 	muleq	r0, fp, r0
    272c:	9b500001 	blls	1402738 <__bss_end__+0x13f7510>
    2730:	c8000000 	stmdagt	r0, {}	; <UNPREDICTABLE>
    2734:	01000000 	mrseq	r0, (UNDEF: 0)
    2738:	00005600 	andeq	r5, r0, r0, lsl #12
	...
    2744:	000000b0 	strheq	r0, [r0], -r0	; <UNPREDICTABLE>
    2748:	000000b7 	strheq	r0, [r0], -r7
    274c:	00500001 	subseq	r0, r0, r1
	...
    2758:	58000000 	stmdapl	r0, {}	; <UNPREDICTABLE>
    275c:	63000001 	movwvs	r0, #1
    2760:	01000001 	tsteq	r0, r1
    2764:	01635000 	cmneq	r3, r0
    2768:	01880000 	orreq	r0, r8, r0
    276c:	00010000 	andeq	r0, r1, r0
    2770:	00000054 	andeq	r0, r0, r4, asr r0
    2774:	00000000 	andeq	r0, r0, r0
    2778:	48000000 	stmdami	r0, {}	; <UNPREDICTABLE>
    277c:	58000001 	stmdapl	r0, {r0}
    2780:	01000001 	tsteq	r0, r1
    2784:	00005400 	andeq	r5, r0, r0, lsl #8
	...
    2794:	000f0000 	andeq	r0, pc, r0
    2798:	00010000 	andeq	r0, r1, r0
    279c:	00000f50 	andeq	r0, r0, r0, asr pc
    27a0:	00002000 	andeq	r2, r0, r0
    27a4:	54000100 	strpl	r0, [r0], #-256	; 0xffffff00
	...
    27b8:	0000000f 	andeq	r0, r0, pc
    27bc:	0f510001 	svceq	0x00510001
    27c0:	20000000 	andcs	r0, r0, r0
    27c4:	01000000 	mrseq	r0, (UNDEF: 0)
    27c8:	00005500 	andeq	r5, r0, r0, lsl #10
	...
    27d4:	00200000 	eoreq	r0, r0, r0
    27d8:	002f0000 	eoreq	r0, pc, r0
    27dc:	00010000 	andeq	r0, r1, r0
    27e0:	00002f50 	andeq	r2, r0, r0, asr pc
    27e4:	00004000 	andeq	r4, r0, r0
    27e8:	54000100 	strpl	r0, [r0], #-256	; 0xffffff00
	...
    27f8:	00000020 	andeq	r0, r0, r0, lsr #32
    27fc:	0000002f 	andeq	r0, r0, pc, lsr #32
    2800:	2f510001 	svccs	0x00510001
    2804:	40000000 	andmi	r0, r0, r0
    2808:	01000000 	mrseq	r0, (UNDEF: 0)
    280c:	00005500 	andeq	r5, r0, r0, lsl #10
	...
    281c:	00000350 	andeq	r0, r0, r0, asr r3
    2820:	00000398 	muleq	r0, r8, r3
    2824:	98500001 	ldmdals	r0, {r0}^
    2828:	9b000003 	blls	283c <__code_start__-0x57c4>
    282c:	02000003 	andeq	r0, r0, #3, 0
    2830:	9b689100 	blls	1a26c38 <__bss_end__+0x1a1ba10>
    2834:	b0000003 	andlt	r0, r0, r3
    2838:	04000003 	streq	r0, [r0], #-3
    283c:	5001f300 	andpl	pc, r1, r0, lsl #6
    2840:	0000009f 	muleq	r0, pc, r0	; <UNPREDICTABLE>
	...
    285c:	00022000 	andeq	r2, r2, r0
    2860:	00027b00 	andeq	r7, r2, r0, lsl #22
    2864:	50000100 	andpl	r0, r0, r0, lsl #2
    2868:	0000027b 	andeq	r0, r0, fp, ror r2
    286c:	00000284 	andeq	r0, r0, r4, lsl #5
    2870:	01f30004 	mvnseq	r0, r4
    2874:	02849f50 	addeq	r9, r4, #80, 30	; 0x140
    2878:	029c0000 	addseq	r0, ip, #0, 0
    287c:	00010000 	andeq	r0, r1, r0
    2880:	00029c50 	andeq	r9, r2, r0, asr ip
    2884:	0002a400 	andeq	sl, r2, r0, lsl #8
    2888:	f3000400 	vshl.u8	d0, d0, d0
    288c:	a49f5001 	ldrge	r5, [pc], #1	; 2894 <__code_start__-0x576c>
    2890:	a7000002 	strge	r0, [r0, -r2]
    2894:	01000002 	tsteq	r0, r2
    2898:	02a75000 	adceq	r5, r7, #0, 0
    289c:	02c80000 	sbceq	r0, r8, #0, 0
    28a0:	00040000 	andeq	r0, r4, r0
    28a4:	9f5001f3 	svcls	0x005001f3
    28a8:	000002c8 	andeq	r0, r0, r8, asr #5
    28ac:	000002e0 	andeq	r0, r0, r0, ror #5
    28b0:	e0500001 	subs	r0, r0, r1
    28b4:	e8000002 	stmda	r0, {r1}
    28b8:	04000002 	streq	r0, [r0], #-2
    28bc:	5001f300 	andpl	pc, r1, r0, lsl #6
    28c0:	0002e89f 	muleq	r2, pc, r8	; <UNPREDICTABLE>
    28c4:	0002eb00 	andeq	lr, r2, r0, lsl #22
    28c8:	50000100 	andpl	r0, r0, r0, lsl #2
    28cc:	000002eb 	andeq	r0, r0, fp, ror #5
    28d0:	00000338 	andeq	r0, r0, r8, lsr r3
    28d4:	01f30004 	mvnseq	r0, r4
    28d8:	00009f50 	andeq	r9, r0, r0, asr pc
	...
    28f4:	02200000 	eoreq	r0, r0, #0, 0
    28f8:	02440000 	subeq	r0, r4, #0, 0
    28fc:	00010000 	andeq	r0, r1, r0
    2900:	00024451 	andeq	r4, r2, r1, asr r4
    2904:	00026800 	andeq	r6, r2, r0, lsl #16
    2908:	51000100 	mrspl	r0, (UNDEF: 16)
    290c:	00000268 	andeq	r0, r0, r8, ror #4
    2910:	0000027b 	andeq	r0, r0, fp, ror r2
    2914:	01710003 	cmneq	r1, r3
    2918:	00027b9f 	muleq	r2, pc, fp	; <UNPREDICTABLE>
    291c:	00028400 	andeq	r8, r2, r0, lsl #8
    2920:	38001700 	stmdacc	r0, {r8, r9, sl, ip}
    2924:	f35101f3 	vbsl	q8, <illegal reg q8.5>, <illegal reg q9.5>
    2928:	4b405101 	blmi	1016d34 <__bss_end__+0x100bb0c>
    292c:	080c2224 	stmdaeq	ip, {r2, r5, r9, sp}
    2930:	2d800000 	stccs	0, cr0, [r0]
    2934:	16000128 	strne	r0, [r0], -r8, lsr #2
    2938:	02849f13 	addeq	r9, r4, #76	; 0x4c
    293c:	02980000 	addseq	r0, r8, #0, 0
    2940:	00010000 	andeq	r0, r1, r0
    2944:	00029851 	andeq	r9, r2, r1, asr r8
    2948:	0002a400 	andeq	sl, r2, r0, lsl #8
    294c:	f3000400 	vshl.u8	d0, d0, d0
    2950:	a49f5101 	ldrge	r5, [pc], #257	; 2958 <__code_start__-0x56a8>
    2954:	a7000002 	strge	r0, [r0, -r2]
    2958:	01000002 	tsteq	r0, r2
    295c:	02a75100 	adceq	r5, r7, #0
    2960:	02c80000 	sbceq	r0, r8, #0, 0
    2964:	00040000 	andeq	r0, r4, r0
    2968:	9f5101f3 	svcls	0x005101f3
    296c:	000002c8 	andeq	r0, r0, r8, asr #5
    2970:	000002dc 	ldrdeq	r0, [r0], -ip
    2974:	dc510001 	mrrcle	0, 0, r0, r1, cr1
    2978:	38000002 	stmdacc	r0, {r1}
    297c:	17000003 	strne	r0, [r0, -r3]
    2980:	01f33800 	mvnseq	r3, r0, lsl #16
    2984:	5101f351 	tstpl	r1, r1, asr r3	; <UNPREDICTABLE>
    2988:	22244b40 	eorcs	r4, r4, #64, 22	; 0x10000
    298c:	0000080c 	andeq	r0, r0, ip, lsl #16
    2990:	01282d80 	smlawbeq	r8, r0, sp, r2
    2994:	9f131600 	svcls	0x00131600
	...
    29ac:	0000024c 	andeq	r0, r0, ip, asr #4
    29b0:	0000025c 	andeq	r0, r0, ip, asr r2
    29b4:	5c520001 	mrrcpl	0, 0, r0, r2, cr1
    29b8:	64000002 	strvs	r0, [r0], #-2
    29bc:	05000002 	streq	r0, [r0, #-2]
    29c0:	ade40300 	stclge	3, cr0, [r4]
    29c4:	02640000 	rsbeq	r0, r4, #0, 0
    29c8:	027b0000 	rsbseq	r0, fp, #0, 0
    29cc:	00010000 	andeq	r0, r1, r0
    29d0:	0002c853 	andeq	ip, r2, r3, asr r8
    29d4:	0002d800 	andeq	sp, r2, r0, lsl #16
    29d8:	52000100 	andpl	r0, r0, #0
    29dc:	000002d8 	ldrdeq	r0, [r0], -r8
    29e0:	000002e3 	andeq	r0, r0, r3, ror #5
    29e4:	e4030005 	str	r0, [r3], #-5
    29e8:	e80000ad 	stmda	r0, {r0, r2, r3, r5, r7}
    29ec:	eb000002 	bl	29fc <__code_start__-0x5604>
    29f0:	01000002 	tsteq	r0, r2
    29f4:	00005300 	andeq	r5, r0, r0, lsl #6
    29f8:	00000000 	andeq	r0, r0, r0
    29fc:	00040000 	andeq	r0, r4, r0
    2a00:	00000230 	andeq	r0, r0, r0, lsr r2
    2a04:	00000234 	andeq	r0, r0, r4, lsr r2
    2a08:	00510001 	subseq	r0, r1, r1
    2a0c:	00000000 	andeq	r0, r0, r0
    2a10:	02000000 	andeq	r0, r0, #0, 0
    2a14:	00023c00 	andeq	r3, r2, r0, lsl #24
    2a18:	00024400 	andeq	r4, r2, r0, lsl #8
    2a1c:	38000200 	stmdacc	r0, {r9}
    2a20:	0000009f 	muleq	r0, pc, r0	; <UNPREDICTABLE>
    2a24:	00000000 	andeq	r0, r0, r0
    2a28:	3c000200 	sfmcc	f0, 4, [r0], {-0}
    2a2c:	44000002 	strmi	r0, [r0], #-2
    2a30:	01000002 	tsteq	r0, r2
    2a34:	00005100 	andeq	r5, r0, r0, lsl #2
    2a38:	00000000 	andeq	r0, r0, r0
    2a3c:	00010000 	andeq	r0, r1, r0
    2a40:	00000000 	andeq	r0, r0, r0
    2a44:	0000024c 	andeq	r0, r0, ip, asr #4
    2a48:	00000264 	andeq	r0, r0, r4, ror #4
    2a4c:	c8510001 	ldmdagt	r1, {r0}^
    2a50:	dc000002 	stcle	0, cr0, [r0], {2}
    2a54:	01000002 	tsteq	r0, r2
    2a58:	02dc5100 	sbcseq	r5, ip, #0
    2a5c:	02e80000 	rsceq	r0, r8, #0, 0
    2a60:	00170000 	andseq	r0, r7, r0
    2a64:	5101f338 	tstpl	r1, r8, lsr r3	; <UNPREDICTABLE>
    2a68:	405101f3 	ldrshmi	r0, [r1], #-19	; 0xffffffed
    2a6c:	0c22244b 	cfstrseq	mvf2, [r2], #-300	; 0xfffffed4
    2a70:	80000008 	andhi	r0, r0, r8
    2a74:	0001282d 	andeq	r2, r1, sp, lsr #16
    2a78:	009f1316 	addseq	r1, pc, r6, lsl r3	; <UNPREDICTABLE>
    2a7c:	00000000 	andeq	r0, r0, r0
    2a80:	01000000 	mrseq	r0, (UNDEF: 0)
    2a84:	00000000 	andeq	r0, r0, r0
    2a88:	4c000000 	stcmi	0, cr0, [r0], {-0}
    2a8c:	5c000002 	stcpl	0, cr0, [r0], {2}
    2a90:	01000002 	tsteq	r0, r2
    2a94:	025c5200 	subseq	r5, ip, #0, 4
    2a98:	02640000 	rsbeq	r0, r4, #0, 0
    2a9c:	00050000 	andeq	r0, r5, r0
    2aa0:	00ade403 	adceq	lr, sp, r3, lsl #8
    2aa4:	0002c800 	andeq	ip, r2, r0, lsl #16
    2aa8:	0002d800 	andeq	sp, r2, r0, lsl #16
    2aac:	52000100 	andpl	r0, r0, #0
    2ab0:	000002d8 	ldrdeq	r0, [r0], -r8
    2ab4:	000002e3 	andeq	r0, r0, r3, ror #5
    2ab8:	e4030005 	str	r0, [r3], #-5
    2abc:	000000ad 	andeq	r0, r0, sp, lsr #1
    2ac0:	00000000 	andeq	r0, r0, r0
    2ac4:	04000000 	streq	r0, [r0], #-0
    2ac8:	00024c00 	andeq	r4, r2, r0, lsl #24
    2acc:	00025000 	andeq	r5, r2, r0
    2ad0:	51000100 	mrspl	r0, (UNDEF: 16)
	...
    2adc:	02640003 	rsbeq	r0, r4, #3, 0
    2ae0:	02680000 	rsbeq	r0, r8, #0, 0
    2ae4:	00010000 	andeq	r0, r1, r0
    2ae8:	00000051 	andeq	r0, r0, r1, asr r0
    2aec:	00000000 	andeq	r0, r0, r0
    2af0:	64000300 	strvs	r0, [r0], #-768	; 0xfffffd00
    2af4:	68000002 	stmdavs	r0, {r1}
    2af8:	01000002 	tsteq	r0, r2
    2afc:	00005300 	andeq	r5, r0, r0, lsl #6
	...
    2b0c:	01bc0000 			; <UNDEFINED> instruction: 0x01bc0000
    2b10:	01d30000 	bicseq	r0, r3, r0
    2b14:	00010000 	andeq	r0, r1, r0
    2b18:	0001d350 	andeq	sp, r1, r0, asr r3
    2b1c:	0001f000 	andeq	pc, r1, r0
    2b20:	54000100 	strpl	r0, [r0], #-256	; 0xffffff00
    2b24:	000001f0 	strdeq	r0, [r0], -r0	; <UNPREDICTABLE>
    2b28:	00000208 	andeq	r0, r0, r8, lsl #4
    2b2c:	08500001 	ldmdaeq	r0, {r0}^
    2b30:	20000002 	andcs	r0, r0, r2
    2b34:	01000002 	tsteq	r0, r2
    2b38:	00005400 	andeq	r5, r0, r0, lsl #8
	...
    2b44:	01d80000 	bicseq	r0, r8, r0
    2b48:	01e30000 	mvneq	r0, r0
    2b4c:	00010000 	andeq	r0, r1, r0
    2b50:	0001e350 	andeq	lr, r1, r0, asr r3
    2b54:	0001f000 	andeq	pc, r1, r0
    2b58:	55000100 	strpl	r0, [r0, #-256]	; 0xffffff00
	...
    2b74:	00000124 	andeq	r0, r0, r4, lsr #2
    2b78:	00000138 	andeq	r0, r0, r8, lsr r1
    2b7c:	38500001 	ldmdacc	r0, {r0}^
    2b80:	3c000001 	stccc	0, cr0, [r0], {1}
    2b84:	03000001 	movweq	r0, #1
    2b88:	9f797000 	svcls	0x00797000
    2b8c:	0000013c 	andeq	r0, r0, ip, lsr r1
    2b90:	00000160 	andeq	r0, r0, r0, ror #2
    2b94:	60530001 	subsvs	r0, r3, r1
    2b98:	78000001 	stmdavc	r0, {r0}
    2b9c:	01000001 	tsteq	r0, r1
    2ba0:	01785000 	cmneq	r8, r0
    2ba4:	01800000 	orreq	r0, r0, r0
    2ba8:	00040000 	andeq	r0, r4, r0
    2bac:	9f5001f3 	svcls	0x005001f3
    2bb0:	00000180 	andeq	r0, r0, r0, lsl #3
    2bb4:	00000190 	muleq	r0, r0, r1
    2bb8:	90530001 	subsls	r0, r3, r1
    2bbc:	9f000001 	svcls	0x00000001
    2bc0:	02000001 	andeq	r0, r0, #1, 0
    2bc4:	9f689100 	svcls	0x00689100
    2bc8:	bc000001 	stclt	0, cr0, [r0], {1}
    2bcc:	09000001 	stmdbeq	r0, {r0}
    2bd0:	5001f300 	andpl	pc, r1, r0, lsl #6
    2bd4:	f8090723 			; <UNDEFINED> instruction: 0xf8090723
    2bd8:	00009f1a 	andeq	r9, r0, sl, lsl pc
	...
    2be4:	01440000 	mrseq	r0, (UNDEF: 68)
    2be8:	01600000 	cmneq	r0, r0
    2bec:	00010000 	andeq	r0, r1, r0
    2bf0:	00018050 	andeq	r8, r1, r0, asr r0
    2bf4:	00019c00 	andeq	r9, r1, r0, lsl #24
    2bf8:	50000100 	andpl	r0, r0, r0, lsl #2
	...
    2c04:	01340003 	teqeq	r4, r3
    2c08:	013c0000 	teqeq	ip, r0
    2c0c:	00020000 	andeq	r0, r2, r0
    2c10:	00009f38 	andeq	r9, r0, r8, lsr pc
    2c14:	00000000 	andeq	r0, r0, r0
    2c18:	00030000 	andeq	r0, r3, r0
    2c1c:	01340000 	teqeq	r4, r0
    2c20:	01380000 	teqeq	r8, r0
    2c24:	00010000 	andeq	r0, r1, r0
    2c28:	00013850 	andeq	r3, r1, r0, asr r8
    2c2c:	00013c00 	andeq	r3, r1, r0, lsl #24
    2c30:	70000300 	andvc	r0, r0, r0, lsl #6
    2c34:	00009f79 	andeq	r9, r0, r9, ror pc
	...
    2c4c:	00000030 	andeq	r0, r0, r0, lsr r0
    2c50:	00000060 	andeq	r0, r0, r0, rrx
    2c54:	60500001 	subsvs	r0, r0, r1
    2c58:	6c000000 	stcvs	0, cr0, [r0], {-0}
    2c5c:	05000000 	streq	r0, [r0, #-0]
    2c60:	ade40300 	stclge	3, cr0, [r4]
    2c64:	006c0000 	rsbeq	r0, ip, r0
    2c68:	00840000 	addeq	r0, r4, r0
    2c6c:	00010000 	andeq	r0, r1, r0
    2c70:	00008450 	andeq	r8, r0, r0, asr r4
    2c74:	00008c00 	andeq	r8, r0, r0, lsl #24
    2c78:	f3000400 	vshl.u8	d0, d0, d0
    2c7c:	8c9f5001 	ldchi	0, cr5, [pc], {1}
    2c80:	ac000000 	stcge	0, cr0, [r0], {-0}
    2c84:	01000000 	mrseq	r0, (UNDEF: 0)
    2c88:	00ac5000 	adceq	r5, ip, r0
    2c8c:	00af0000 	adceq	r0, pc, r0
    2c90:	00020000 	andeq	r0, r2, r0
    2c94:	00af6891 	umlaleq	r6, pc, r1, r8	; <UNPREDICTABLE>
    2c98:	00cc0000 	sbceq	r0, ip, r0
    2c9c:	00040000 	andeq	r0, r4, r0
    2ca0:	9f5001f3 	svcls	0x005001f3
	...
    2cb4:	00000030 	andeq	r0, r0, r0, lsr r0
    2cb8:	00000080 	andeq	r0, r0, r0, lsl #1
    2cbc:	80510001 	subshi	r0, r1, r1
    2cc0:	8c000000 	stchi	0, cr0, [r0], {-0}
    2cc4:	04000000 	streq	r0, [r0], #-0
    2cc8:	5101f300 	mrspl	pc, SP_irq	; <UNPREDICTABLE>
    2ccc:	00008c9f 	muleq	r0, pc, ip	; <UNPREDICTABLE>
    2cd0:	0000a800 	andeq	sl, r0, r0, lsl #16
    2cd4:	51000100 	mrspl	r0, (UNDEF: 16)
    2cd8:	000000a8 	andeq	r0, r0, r8, lsr #1
    2cdc:	000000cc 	andeq	r0, r0, ip, asr #1
    2ce0:	01f30004 	mvnseq	r0, r4
    2ce4:	00009f51 	andeq	r9, r0, r1, asr pc
    2ce8:	00000000 	andeq	r0, r0, r0
    2cec:	00010000 	andeq	r0, r1, r0
	...
    2cfc:	00000038 	andeq	r0, r0, r8, lsr r0
    2d00:	00000060 	andeq	r0, r0, r0, rrx
    2d04:	60500001 	subsvs	r0, r0, r1
    2d08:	6c000000 	stcvs	0, cr0, [r0], {-0}
    2d0c:	05000000 	streq	r0, [r0, #-0]
    2d10:	ade40300 	stclge	3, cr0, [r4]
    2d14:	006c0000 	rsbeq	r0, ip, r0
    2d18:	00840000 	addeq	r0, r4, r0
    2d1c:	00010000 	andeq	r0, r1, r0
    2d20:	00008450 	andeq	r8, r0, r0, asr r4
    2d24:	00008c00 	andeq	r8, r0, r0, lsl #24
    2d28:	f3000400 	vshl.u8	d0, d0, d0
    2d2c:	8c9f5001 	ldchi	0, cr5, [pc], {1}
    2d30:	ac000000 	stcge	0, cr0, [r0], {-0}
    2d34:	01000000 	mrseq	r0, (UNDEF: 0)
    2d38:	00ac5000 	adceq	r5, ip, r0
    2d3c:	00af0000 	adceq	r0, pc, r0
    2d40:	00020000 	andeq	r0, r2, r0
    2d44:	00af6891 	umlaleq	r6, pc, r1, r8	; <UNPREDICTABLE>
    2d48:	00cc0000 	sbceq	r0, ip, r0
    2d4c:	00040000 	andeq	r0, r4, r0
    2d50:	9f5001f3 	svcls	0x005001f3
	...
    2d60:	01700000 	cmneq	r0, r0
    2d64:	017c0000 	cmneq	ip, r0
    2d68:	00010000 	andeq	r0, r1, r0
    2d6c:	00017c50 	andeq	r7, r1, r0, asr ip
    2d70:	00018800 	andeq	r8, r1, r0, lsl #16
    2d74:	54000100 	strpl	r0, [r0], #-256	; 0xffffff00
    2d78:	00000188 	andeq	r0, r0, r8, lsl #3
    2d7c:	00000198 	muleq	r0, r8, r1
    2d80:	01f30004 	mvnseq	r0, r4
    2d84:	00009f50 	andeq	r9, r0, r0, asr pc
	...
    2d98:	00000178 	andeq	r0, r0, r8, ror r1
    2d9c:	0000017c 	andeq	r0, r0, ip, ror r1
    2da0:	0070000b 	rsbseq	r0, r0, fp
    2da4:	b4232535 	strtlt	r2, [r3], #-1333	; 0xfffffacb
    2da8:	02818080 	addeq	r8, r1, #128, 0	; 0x80
    2dac:	00017c9f 	muleq	r1, pc, ip	; <UNPREDICTABLE>
    2db0:	00018000 	andeq	r8, r1, r0
    2db4:	74000b00 	strvc	r0, [r0], #-2816	; 0xfffff500
    2db8:	23253500 			; <UNDEFINED> instruction: 0x23253500
    2dbc:	818080b4 	strhhi	r8, [r0, r4]
    2dc0:	01809f02 	orreq	r9, r0, r2, lsl #30
    2dc4:	01830000 	orreq	r0, r3, r0
    2dc8:	00010000 	andeq	r0, r1, r0
    2dcc:	00018350 	andeq	r8, r1, r0, asr r3
    2dd0:	00018800 	andeq	r8, r1, r0, lsl #16
    2dd4:	74000b00 	strvc	r0, [r0], #-2816	; 0xfffff500
    2dd8:	23253500 			; <UNDEFINED> instruction: 0x23253500
    2ddc:	818080b4 	strhhi	r8, [r0, r4]
    2de0:	01889f02 	orreq	r9, r8, r2, lsl #30
    2de4:	01980000 	orrseq	r0, r8, r0
    2de8:	000c0000 	andeq	r0, ip, r0
    2dec:	355001f3 	ldrbcc	r0, [r0, #-499]	; 0xfffffe0d
    2df0:	80b42325 	adcshi	r2, r4, r5, lsr #6
    2df4:	9f028180 	svcls	0x00028180
	...
    2e00:	00000001 	andeq	r0, r0, r1
    2e04:	01780000 	cmneq	r8, r0
    2e08:	017c0000 	cmneq	ip, r0
    2e0c:	00050000 	andeq	r0, r5, r0
    2e10:	1a4f0070 	bne	13c2fd8 <__bss_end__+0x13b7db0>
    2e14:	00017c9f 	muleq	r1, pc, ip	; <UNPREDICTABLE>
    2e18:	00018800 	andeq	r8, r1, r0, lsl #16
    2e1c:	74000500 	strvc	r0, [r0], #-1280	; 0xfffffb00
    2e20:	9f1a4f00 	svcls	0x001a4f00
    2e24:	00000188 	andeq	r0, r0, r8, lsl #3
    2e28:	00000198 	muleq	r0, r8, r1
    2e2c:	00540001 	subseq	r0, r4, r1
	...
    2e40:	40000000 	andmi	r0, r0, r0
    2e44:	54000001 	strpl	r0, [r0], #-1
    2e48:	01000001 	tsteq	r0, r1
    2e4c:	01545000 	cmpeq	r4, r0
    2e50:	01580000 	cmpeq	r8, r0
    2e54:	00010000 	andeq	r0, r1, r0
    2e58:	00015851 	andeq	r5, r1, r1, asr r8
    2e5c:	00015c00 	andeq	r5, r1, r0, lsl #24
    2e60:	f3000400 	vshl.u8	d0, d0, d0
    2e64:	5c9f5001 	ldcpl	0, cr5, [pc], {1}
    2e68:	60000001 	andvs	r0, r0, r1
    2e6c:	01000001 	tsteq	r0, r1
    2e70:	01605000 	cmneq	r0, r0
    2e74:	01640000 	cmneq	r4, r0
    2e78:	00010000 	andeq	r0, r1, r0
    2e7c:	00016451 	andeq	r6, r1, r1, asr r4
    2e80:	00017000 	andeq	r7, r1, r0
    2e84:	f3000400 	vshl.u8	d0, d0, d0
    2e88:	009f5001 	addseq	r5, pc, r1
	...
    2e94:	40000000 	andmi	r0, r0, r0
    2e98:	4c000001 	stcmi	0, cr0, [r0], {1}
    2e9c:	01000001 	tsteq	r0, r1
    2ea0:	014c5100 	mrseq	r5, (UNDEF: 92)
    2ea4:	01700000 	cmneq	r0, r0
    2ea8:	00040000 	andeq	r0, r4, r0
    2eac:	9f5101f3 	svcls	0x005101f3
	...
    2eb8:	00000001 	andeq	r0, r0, r1
    2ebc:	01500000 	cmpeq	r0, r0
    2ec0:	01540000 	cmpeq	r4, r0
    2ec4:	00010000 	andeq	r0, r1, r0
    2ec8:	00015450 	andeq	r5, r1, r0, asr r4
    2ecc:	00015800 	andeq	r5, r1, r0, lsl #16
    2ed0:	51000100 	mrspl	r0, (UNDEF: 16)
    2ed4:	00000158 	andeq	r0, r0, r8, asr r1
    2ed8:	0000015c 	andeq	r0, r0, ip, asr r1
    2edc:	01f30004 	mvnseq	r0, r4
    2ee0:	00009f50 	andeq	r9, r0, r0, asr pc
    2ee4:	00000000 	andeq	r0, r0, r0
    2ee8:	00020000 	andeq	r0, r2, r0
    2eec:	00000000 	andeq	r0, r0, r0
    2ef0:	0000015c 	andeq	r0, r0, ip, asr r1
    2ef4:	00000160 	andeq	r0, r0, r0, ror #2
    2ef8:	60500001 	subsvs	r0, r0, r1
    2efc:	64000001 	strvs	r0, [r0], #-1
    2f00:	01000001 	tsteq	r0, r1
    2f04:	01645100 	cmneq	r4, r0, lsl #2
    2f08:	01700000 	cmneq	r0, r0
    2f0c:	00040000 	andeq	r0, r4, r0
    2f10:	9f5001f3 	svcls	0x005001f3
	...
    2f20:	00e80000 	rsceq	r0, r8, r0
    2f24:	01080000 	mrseq	r0, (UNDEF: 8)
    2f28:	00010000 	andeq	r0, r1, r0
    2f2c:	00010850 	andeq	r0, r1, r0, asr r8
    2f30:	00012800 	andeq	r2, r1, r0, lsl #16
    2f34:	54000100 	strpl	r0, [r0], #-256	; 0xffffff00
    2f38:	00000128 	andeq	r0, r0, r8, lsr #2
    2f3c:	00000140 	andeq	r0, r0, r0, asr #2
    2f40:	01f30004 	mvnseq	r0, r4
    2f44:	00009f50 	andeq	r9, r0, r0, asr pc
    2f48:	00000000 	andeq	r0, r0, r0
    2f4c:	00020000 	andeq	r0, r2, r0
    2f50:	00000000 	andeq	r0, r0, r0
    2f54:	000000e8 	andeq	r0, r0, r8, ror #1
    2f58:	00000108 	andeq	r0, r0, r8, lsl #2
    2f5c:	08500001 	ldmdaeq	r0, {r0}^
    2f60:	28000001 	stmdacs	r0, {r0}
    2f64:	01000001 	tsteq	r0, r1
    2f68:	01285400 			; <UNDEFINED> instruction: 0x01285400
    2f6c:	01400000 	mrseq	r0, (UNDEF: 64)
    2f70:	00040000 	andeq	r0, r4, r0
    2f74:	9f5001f3 	svcls	0x005001f3
	...
    2f84:	00f00000 	rscseq	r0, r0, r0
    2f88:	01080000 	mrseq	r0, (UNDEF: 8)
    2f8c:	00010000 	andeq	r0, r1, r0
    2f90:	00010850 	andeq	r0, r1, r0, asr r8
    2f94:	00012800 	andeq	r2, r1, r0, lsl #16
    2f98:	54000100 	strpl	r0, [r0], #-256	; 0xffffff00
    2f9c:	00000128 	andeq	r0, r0, r8, lsr #2
    2fa0:	00000140 	andeq	r0, r0, r0, asr #2
    2fa4:	01f30004 	mvnseq	r0, r4
    2fa8:	00009f50 	andeq	r9, r0, r0, asr pc
    2fac:	00000000 	andeq	r0, r0, r0
    2fb0:	00030000 	andeq	r0, r3, r0
    2fb4:	00000000 	andeq	r0, r0, r0
    2fb8:	000000f0 	strdeq	r0, [r0], -r0	; <UNPREDICTABLE>
    2fbc:	00000108 	andeq	r0, r0, r8, lsl #2
    2fc0:	00700007 	rsbseq	r0, r0, r7
    2fc4:	1e331d3a 	mrcne	13, 1, r1, cr3, cr10, {1}
    2fc8:	0001089f 	muleq	r1, pc, r8	; <UNPREDICTABLE>
    2fcc:	00012800 	andeq	r2, r1, r0, lsl #16
    2fd0:	74000700 	strvc	r0, [r0], #-1792	; 0xfffff900
    2fd4:	331d3a00 	tstcc	sp, #0, 20
    2fd8:	01289f1e 			; <UNDEFINED> instruction: 0x01289f1e
    2fdc:	01400000 	mrseq	r0, (UNDEF: 64)
    2fe0:	00080000 	andeq	r0, r8, r0
    2fe4:	3a5001f3 	bcc	14037b8 <__bss_end__+0x13f8590>
    2fe8:	9f1e331d 	svcls	0x001e331d
	...
    2ff8:	01100000 	tsteq	r0, r0
    2ffc:	01380000 	teqeq	r8, r0
    3000:	00010000 	andeq	r0, r1, r0
    3004:	00013856 	andeq	r3, r1, r6, asr r8
    3008:	00013b00 	andeq	r3, r1, r0, lsl #22
    300c:	50000100 	andpl	r0, r0, r0, lsl #2
    3010:	0000013b 	andeq	r0, r0, fp, lsr r1
    3014:	00000140 	andeq	r0, r0, r0, asr #2
    3018:	01f30026 	mvnseq	r0, r6, lsr #32
    301c:	f72cf750 			; <UNDEFINED> instruction: 0xf72cf750
    3020:	0825f425 	stmdaeq	r5!, {r0, r2, r5, sl, ip, sp, lr, pc}
    3024:	cccccccd 	stclgt	12, cr12, [ip], {205}	; 0xcd
    3028:	00000000 	andeq	r0, r0, r0
    302c:	f720081e 			; <UNDEFINED> instruction: 0xf720081e
    3030:	2cf72525 	cfldr64cs	mvdx2, [r7], #148	; 0x94
    3034:	253300f7 	ldrcs	r0, [r3, #-247]!	; 0xffffff09
    3038:	a0808023 	addge	r8, r0, r3, lsr #32
    303c:	9f243240 	svcls	0x00243240
	...
    3048:	00010100 	andeq	r0, r1, r0, lsl #2
    304c:	00000000 	andeq	r0, r0, r0
    3050:	00000120 	andeq	r0, r0, r0, lsr #2
    3054:	00000120 	andeq	r0, r0, r0, lsr #2
    3058:	20500001 	subscs	r0, r0, r1
    305c:	28000001 	stmdacs	r0, {r0}
    3060:	0d000001 	stceq	0, cr0, [r0, #-4]
    3064:	00743700 	rsbseq	r3, r4, r0, lsl #14
    3068:	1e331d3a 	mrcne	13, 1, r1, cr3, cr10, {1}
    306c:	00702024 	rsbseq	r2, r0, r4, lsr #32
    3070:	01289f1a 			; <UNDEFINED> instruction: 0x01289f1a
    3074:	01300000 	teqeq	r0, r0
    3078:	000e0000 	andeq	r0, lr, r0
    307c:	5001f337 	andpl	pc, r1, r7, lsr r3	; <UNPREDICTABLE>
    3080:	1e331d3a 	mrcne	13, 1, r1, cr3, cr10, {1}
    3084:	00702024 	rsbseq	r2, r0, r4, lsr #32
    3088:	01309f1a 	teqeq	r0, sl, lsl pc
    308c:	013b0000 	teqeq	fp, r0
    3090:	000e0000 	andeq	r0, lr, r0
    3094:	5001f337 	andpl	pc, r1, r7, lsr r3	; <UNPREDICTABLE>
    3098:	1e331d3a 	mrcne	13, 1, r1, cr3, cr10, {1}
    309c:	00732024 	rsbseq	r2, r3, r4, lsr #32
    30a0:	00009f1a 	andeq	r9, r0, sl, lsl pc
	...
    30ac:	00600000 	rsbeq	r0, r0, r0
    30b0:	00900000 	addseq	r0, r0, r0
    30b4:	00010000 	andeq	r0, r1, r0
    30b8:	00009050 	andeq	r9, r0, r0, asr r0
    30bc:	0000b800 	andeq	fp, r0, r0, lsl #16
    30c0:	f3000400 	vshl.u8	d0, d0, d0
    30c4:	009f5001 	addseq	r5, pc, r1
    30c8:	00000000 	andeq	r0, r0, r0
    30cc:	02000000 	andeq	r0, r0, #0, 0
    30d0:	60000000 	andvs	r0, r0, r0
    30d4:	90000000 	andls	r0, r0, r0
    30d8:	01000000 	mrseq	r0, (UNDEF: 0)
    30dc:	00905000 	addseq	r5, r0, r0
    30e0:	00b80000 	adcseq	r0, r8, r0
    30e4:	00040000 	andeq	r0, r4, r0
    30e8:	9f5001f3 	svcls	0x005001f3
	...
    30f8:	00000068 	andeq	r0, r0, r8, rrx
    30fc:	00000090 	muleq	r0, r0, r0
    3100:	90500001 	subsls	r0, r0, r1
    3104:	b8000000 	stmdalt	r0, {}	; <UNPREDICTABLE>
    3108:	04000000 	streq	r0, [r0], #-0
    310c:	5001f300 	andpl	pc, r1, r0, lsl #6
    3110:	0000009f 	muleq	r0, pc, r0	; <UNPREDICTABLE>
	...
    311c:	0000a000 	andeq	sl, r0, r0
    3120:	0000b000 	andeq	fp, r0, r0
    3124:	54000100 	strpl	r0, [r0], #-256	; 0xffffff00
    3128:	000000b0 	strheq	r0, [r0], -r0	; <UNPREDICTABLE>
    312c:	000000b8 	strheq	r0, [r0], -r8
    3130:	01f30029 	mvnseq	r0, r9, lsr #32
    3134:	5001f350 	andpl	pc, r1, r0, asr r3	; <UNPREDICTABLE>
    3138:	25f72cf7 	ldrbcs	r2, [r7, #3319]!	; 0xcf7
    313c:	cd0825f4 	cfstr32gt	mvfx2, [r8, #-976]	; 0xfffffc30
    3140:	00cccccc 	sbceq	ip, ip, ip, asr #25
    3144:	1e000000 	cdpne	0, 0, cr0, cr0, cr0, {0}
    3148:	25f72008 	ldrbcs	r2, [r7, #8]!
    314c:	f72cf725 			; <UNDEFINED> instruction: 0xf72cf725
    3150:	35253300 	strcc	r3, [r5, #-768]!	; 0xfffffd00
    3154:	1c24311e 	stfnes	f3, [r4], #-120	; 0xffffff88
    3158:	009f1e33 	addseq	r1, pc, r3, lsr lr	; <UNPREDICTABLE>
    315c:	00000000 	andeq	r0, r0, r0
    3160:	01000000 	mrseq	r0, (UNDEF: 0)
    3164:	00000000 	andeq	r0, r0, r0
    3168:	0000a000 	andeq	sl, r0, r0
    316c:	0000b000 	andeq	fp, r0, r0
    3170:	55000100 	strpl	r0, [r0, #-256]	; 0xffffff00
    3174:	000000b0 	strheq	r0, [r0], -r0	; <UNPREDICTABLE>
    3178:	000000b3 	strheq	r0, [r0], -r3
    317c:	b3500001 	cmplt	r0, #1, 0
    3180:	b8000000 	stmdalt	r0, {}	; <UNPREDICTABLE>
    3184:	26000000 	strcs	r0, [r0], -r0
    3188:	5001f300 	andpl	pc, r1, r0, lsl #6
    318c:	25f72cf7 	ldrbcs	r2, [r7, #3319]!	; 0xcf7
    3190:	cd0825f4 	cfstr32gt	mvfx2, [r8, #-976]	; 0xfffffc30
    3194:	00cccccc 	sbceq	ip, ip, ip, asr #25
    3198:	1e000000 	cdpne	0, 0, cr0, cr0, cr0, {0}
    319c:	25f72008 	ldrbcs	r2, [r7, #8]!
    31a0:	f72cf725 			; <UNDEFINED> instruction: 0xf72cf725
    31a4:	23253300 			; <UNDEFINED> instruction: 0x23253300
    31a8:	40a08080 	adcmi	r8, r0, r0, lsl #1
    31ac:	009f2432 	addseq	r2, pc, r2, lsr r4	; <UNPREDICTABLE>
    31b0:	00000000 	andeq	r0, r0, r0
    31b4:	02000000 	andeq	r0, r0, #0, 0
    31b8:	01010000 	mrseq	r0, (UNDEF: 1)
    31bc:	a0000000 	andge	r0, r0, r0
    31c0:	a4000000 	strge	r0, [r0], #-0
    31c4:	01000000 	mrseq	r0, (UNDEF: 0)
    31c8:	00a45000 	adceq	r5, r4, r0
    31cc:	00a40000 	adceq	r0, r4, r0
    31d0:	00010000 	andeq	r0, r1, r0
    31d4:	0000a453 	andeq	sl, r0, r3, asr r4
    31d8:	0000a800 	andeq	sl, r0, r0, lsl #16
    31dc:	31000800 	tstcc	r0, r0, lsl #16
    31e0:	73240074 			; <UNDEFINED> instruction: 0x73240074
    31e4:	a89f2100 	ldmge	pc, {r8, sp}	; <UNPREDICTABLE>
    31e8:	b3000000 	movwlt	r0, #0
    31ec:	01000000 	mrseq	r0, (UNDEF: 0)
    31f0:	00005100 	andeq	r5, r0, r0, lsl #2
	...
    3200:	003c0000 	eorseq	r0, ip, r0
    3204:	00010000 	andeq	r0, r1, r0
    3208:	00003c50 	andeq	r3, r0, r0, asr ip
    320c:	00006000 	andeq	r6, r0, r0
    3210:	f3000400 	vshl.u8	d0, d0, d0
    3214:	009f5001 	addseq	r5, pc, r1
	...
    3224:	3f000000 	svccc	0x00000000
    3228:	01000000 	mrseq	r0, (UNDEF: 0)
    322c:	003f5100 	eorseq	r5, pc, r0, lsl #2
    3230:	00600000 	rsbeq	r0, r0, r0
    3234:	00040000 	andeq	r0, r4, r0
    3238:	9f5101f3 	svcls	0x005101f3
	...
    3248:	00000008 	andeq	r0, r0, r8
    324c:	0000003f 	andeq	r0, r0, pc, lsr r0
    3250:	3f510001 	svccc	0x00510001
    3254:	60000000 	andvs	r0, r0, r0
    3258:	04000000 	streq	r0, [r0], #-0
    325c:	5101f300 	mrspl	pc, SP_irq	; <UNPREDICTABLE>
    3260:	0000009f 	muleq	r0, pc, r0	; <UNPREDICTABLE>
	...
    326c:	00000800 	andeq	r0, r0, r0, lsl #16
    3270:	00003c00 	andeq	r3, r0, r0, lsl #24
    3274:	50000100 	andpl	r0, r0, r0, lsl #2
    3278:	0000003c 	andeq	r0, r0, ip, lsr r0
    327c:	00000060 	andeq	r0, r0, r0, rrx
    3280:	01f30004 	mvnseq	r0, r4
    3284:	00009f50 	andeq	r9, r0, r0, asr pc
	...
    3290:	00480000 	subeq	r0, r8, r0
    3294:	00580000 	subseq	r0, r8, r0
    3298:	00010000 	andeq	r0, r1, r0
    329c:	00005854 	andeq	r5, r0, r4, asr r8
    32a0:	00006000 	andeq	r6, r0, r0
    32a4:	f3002900 	vmls.i8	d2, d0, d0
    32a8:	01f35001 	mvnseq	r5, r1
    32ac:	f72cf750 			; <UNDEFINED> instruction: 0xf72cf750
    32b0:	0825f425 	stmdaeq	r5!, {r0, r2, r5, sl, ip, sp, lr, pc}
    32b4:	cccccccd 	stclgt	12, cr12, [ip], {205}	; 0xcd
    32b8:	00000000 	andeq	r0, r0, r0
    32bc:	f720081e 			; <UNDEFINED> instruction: 0xf720081e
    32c0:	2cf72525 	cfldr64cs	mvdx2, [r7], #148	; 0x94
    32c4:	253300f7 	ldrcs	r0, [r3, #-247]!	; 0xffffff09
    32c8:	24311e35 	ldrtcs	r1, [r1], #-3637	; 0xfffff1cb
    32cc:	9f1e331c 	svcls	0x001e331c
	...
    32d8:	00000001 	andeq	r0, r0, r1
    32dc:	00480000 	subeq	r0, r8, r0
    32e0:	00580000 	subseq	r0, r8, r0
    32e4:	00010000 	andeq	r0, r1, r0
    32e8:	00005856 	andeq	r5, r0, r6, asr r8
    32ec:	00005b00 	andeq	r5, r0, r0, lsl #22
    32f0:	50000100 	andpl	r0, r0, r0, lsl #2
    32f4:	0000005b 	andeq	r0, r0, fp, asr r0
    32f8:	00000060 	andeq	r0, r0, r0, rrx
    32fc:	01f30026 	mvnseq	r0, r6, lsr #32
    3300:	f72cf750 			; <UNDEFINED> instruction: 0xf72cf750
    3304:	0825f425 	stmdaeq	r5!, {r0, r2, r5, sl, ip, sp, lr, pc}
    3308:	cccccccd 	stclgt	12, cr12, [ip], {205}	; 0xcd
    330c:	00000000 	andeq	r0, r0, r0
    3310:	f720081e 			; <UNDEFINED> instruction: 0xf720081e
    3314:	2cf72525 	cfldr64cs	mvdx2, [r7], #148	; 0x94
    3318:	253300f7 	ldrcs	r0, [r3, #-247]!	; 0xffffff09
    331c:	a0808023 	addge	r8, r0, r3, lsr #32
    3320:	9f243240 	svcls	0x00243240
	...
    332c:	01000002 	tsteq	r0, r2
    3330:	00000001 	andeq	r0, r0, r1
    3334:	00000048 	andeq	r0, r0, r8, asr #32
    3338:	0000004c 	andeq	r0, r0, ip, asr #32
    333c:	4c500001 	mrrcmi	0, 0, r0, r0, cr1	; <UNPREDICTABLE>
    3340:	4c000000 	stcmi	0, cr0, [r0], {-0}
    3344:	01000000 	mrseq	r0, (UNDEF: 0)
    3348:	004c5100 	subeq	r5, ip, r0, lsl #2
    334c:	00500000 	subseq	r0, r0, r0
    3350:	000c0000 	andeq	r0, ip, r0
    3354:	ff080075 			; <UNDEFINED> instruction: 0xff080075
    3358:	2400741a 	strcs	r7, [r0], #-1050	; 0xfffffbe6
    335c:	9f210071 	svcls	0x00210071
    3360:	00000050 	andeq	r0, r0, r0, asr r0
    3364:	00000054 	andeq	r0, r0, r4, asr r0
    3368:	74370012 	ldrtvc	r0, [r7], #-18	; 0xffffffee
    336c:	70202400 	eorvc	r2, r0, r0, lsl #8
    3370:	00751a00 	rsbseq	r1, r5, r0, lsl #20
    3374:	741aff08 	ldrvc	pc, [sl], #-3848	; 0xfffff0f8
    3378:	9f212400 	svcls	0x00212400
	...
    3388:	00b80000 	adcseq	r0, r8, r0
    338c:	00c40000 	sbceq	r0, r4, r0
    3390:	00010000 	andeq	r0, r1, r0
    3394:	0000c450 	andeq	ip, r0, r0, asr r4
    3398:	0000cb00 	andeq	ip, r0, r0, lsl #22
    339c:	53000100 	movwpl	r0, #256	; 0x100
    33a0:	000000cb 	andeq	r0, r0, fp, asr #1
    33a4:	000000d0 	ldrdeq	r0, [r0], -r0	; <UNPREDICTABLE>
    33a8:	01f30004 	mvnseq	r0, r4
    33ac:	00009f50 	andeq	r9, r0, r0, asr pc
	...
    33bc:	000000d0 	ldrdeq	r0, [r0], -r0	; <UNPREDICTABLE>
    33c0:	000000dc 	ldrdeq	r0, [r0], -ip
    33c4:	dc500001 	mrrcle	0, 0, r0, r0, cr1	; <UNPREDICTABLE>
    33c8:	e3000000 	movw	r0, #0
    33cc:	01000000 	mrseq	r0, (UNDEF: 0)
    33d0:	00e35300 	rsceq	r5, r3, r0, lsl #6
    33d4:	00e80000 	rsceq	r0, r8, r0
    33d8:	00040000 	andeq	r0, r4, r0
    33dc:	9f5001f3 	svcls	0x005001f3
	...
    33f0:	0000000b 	andeq	r0, r0, fp
    33f4:	0b500001 	bleq	1403400 <__bss_end__+0x13f81d8>
    33f8:	14000000 	strne	r0, [r0], #-0
    33fc:	01000000 	mrseq	r0, (UNDEF: 0)
    3400:	00005400 	andeq	r5, r0, r0, lsl #8
	...
    3410:	00180000 	andseq	r0, r8, r0
    3414:	00010000 	andeq	r0, r1, r0
    3418:	00001851 	andeq	r1, r0, r1, asr r8
    341c:	00002c00 	andeq	r2, r0, r0, lsl #24
    3420:	f3000400 	vshl.u8	d0, d0, d0
    3424:	009f5101 	addseq	r5, pc, r1, lsl #2
    3428:	00000000 	andeq	r0, r0, r0
    342c:	02000000 	andeq	r0, r0, #0, 0
	...
    3438:	00000101 	andeq	r0, r0, r1, lsl #2
    343c:	00000000 	andeq	r0, r0, r0
    3440:	00000400 	andeq	r0, r0, r0, lsl #8
    3444:	50000100 	andpl	r0, r0, r0, lsl #2
    3448:	00000004 	andeq	r0, r0, r4
    344c:	00000008 	andeq	r0, r0, r8
    3450:	08520001 	ldmdaeq	r2, {r0}^
    3454:	0c000000 	stceq	0, cr0, [r0], {-0}
    3458:	03000000 	movweq	r0, #0
    345c:	9f017200 	svcls	0x00017200
    3460:	0000000c 	andeq	r0, r0, ip
    3464:	00000018 	andeq	r0, r0, r8, lsl r0
    3468:	18520001 	ldmdane	r2, {r0}^
    346c:	1c000000 	stcne	0, cr0, [r0], {-0}
    3470:	01000000 	mrseq	r0, (UNDEF: 0)
    3474:	001c5300 	andseq	r5, ip, r0, lsl #6
    3478:	00240000 	eoreq	r0, r4, r0
    347c:	00030000 	andeq	r0, r3, r0
    3480:	249f0173 	ldrcs	r0, [pc], #371	; 3488 <__code_start__-0x4b78>
    3484:	2c000000 	stccs	0, cr0, [r0], {-0}
    3488:	01000000 	mrseq	r0, (UNDEF: 0)
    348c:	00005300 	andeq	r5, r0, r0, lsl #6
    3490:	00000000 	andeq	r0, r0, r0
    3494:	02030000 	andeq	r0, r3, #0, 0
    3498:	00000002 	andeq	r0, r0, r2
    349c:	00000000 	andeq	r0, r0, r0
    34a0:	00000018 	andeq	r0, r0, r8, lsl r0
    34a4:	18510001 	ldmdane	r1, {r0}^
    34a8:	1c000000 	stcne	0, cr0, [r0], {-0}
    34ac:	03000000 	movweq	r0, #0
    34b0:	9f017100 	svcls	0x00017100
    34b4:	0000001c 	andeq	r0, r0, ip, lsl r0
    34b8:	0000002c 	andeq	r0, r0, ip, lsr #32
    34bc:	00510001 	subseq	r0, r1, r1
	...
    34cc:	00000800 	andeq	r0, r0, r0, lsl #16
    34d0:	00000c00 	andeq	r0, r0, r0, lsl #24
    34d4:	72000200 	andvc	r0, r0, #0, 4
    34d8:	00000c00 	andeq	r0, r0, r0, lsl #24
    34dc:	00001800 	andeq	r1, r0, r0, lsl #16
    34e0:	73000200 	movwvc	r0, #512	; 0x200
    34e4:	00001c00 	andeq	r1, r0, r0, lsl #24
    34e8:	00002c00 	andeq	r2, r0, r0, lsl #24
    34ec:	52000100 	andpl	r0, r0, #0
	...
    3508:	00000014 	andeq	r0, r0, r4, lsl r0
    350c:	14500001 	ldrbne	r0, [r0], #-1
    3510:	18000000 	stmdane	r0, {}	; <UNPREDICTABLE>
    3514:	03000000 	movweq	r0, #0
    3518:	9f017000 	svcls	0x00017000
    351c:	00000018 	andeq	r0, r0, r8, lsl r0
    3520:	00000020 	andeq	r0, r0, r0, lsr #32
    3524:	24500001 	ldrbcs	r0, [r0], #-1
    3528:	28000000 	stmdacs	r0, {}	; <UNPREDICTABLE>
    352c:	01000000 	mrseq	r0, (UNDEF: 0)
    3530:	00285000 	eoreq	r5, r8, r0
    3534:	00300000 	eorseq	r0, r0, r0
    3538:	00030000 	andeq	r0, r3, r0
    353c:	389f0170 	ldmcc	pc, {r4, r5, r6, r8}	; <UNPREDICTABLE>
    3540:	40000000 	andmi	r0, r0, r0
    3544:	01000000 	mrseq	r0, (UNDEF: 0)
    3548:	00005000 	andeq	r5, r0, r0
	...
    355c:	00000024 	andeq	r0, r0, r4, lsr #32
    3560:	24510001 	ldrbcs	r0, [r1], #-1
    3564:	28000000 	stmdacs	r0, {}	; <UNPREDICTABLE>
    3568:	01000000 	mrseq	r0, (UNDEF: 0)
    356c:	00285c00 	eoreq	r5, r8, r0, lsl #24
    3570:	00440000 	subeq	r0, r4, r0
    3574:	00010000 	andeq	r0, r1, r0
    3578:	00000051 	andeq	r0, r0, r1, asr r0
    357c:	00000000 	andeq	r0, r0, r0
    3580:	02020000 	andeq	r0, r2, #0, 0
    3584:	00000000 	andeq	r0, r0, r0
    3588:	04000000 	streq	r0, [r0], #-0
    358c:	01000000 	mrseq	r0, (UNDEF: 0)
    3590:	00045100 	andeq	r5, r4, r0, lsl #2
    3594:	00080000 	andeq	r0, r8, r0
    3598:	00030000 	andeq	r0, r3, r0
    359c:	089f0171 	ldmeq	pc, {r0, r4, r5, r6, r8}	; <UNPREDICTABLE>
    35a0:	18000000 	stmdane	r0, {}	; <UNPREDICTABLE>
    35a4:	01000000 	mrseq	r0, (UNDEF: 0)
    35a8:	00005100 	andeq	r5, r0, r0, lsl #2
    35ac:	00000000 	andeq	r0, r0, r0
    35b0:	00020000 	andeq	r0, r2, r0
    35b4:	00000000 	andeq	r0, r0, r0
    35b8:	00000004 	andeq	r0, r0, r4
    35bc:	00500001 	subseq	r0, r0, r1
	...
    35cc:	08000000 	stmdaeq	r0, {}	; <UNPREDICTABLE>
    35d0:	01000000 	mrseq	r0, (UNDEF: 0)
    35d4:	00085000 	andeq	r5, r8, r0
    35d8:	00300000 	eorseq	r0, r0, r0
    35dc:	00040000 	andeq	r0, r4, r0
    35e0:	9f5001f3 	svcls	0x005001f3
	...
    35f4:	00000008 	andeq	r0, r0, r8
    35f8:	08510001 	ldmdaeq	r1, {r0}^
    35fc:	30000000 	andcc	r0, r0, r0
    3600:	04000000 	streq	r0, [r0], #-0
    3604:	5101f300 	mrspl	pc, SP_irq	; <UNPREDICTABLE>
    3608:	0000009f 	muleq	r0, pc, r0	; <UNPREDICTABLE>
	...
    3614:	01000000 	mrseq	r0, (UNDEF: 0)
    3618:	00000202 	andeq	r0, r0, r2, lsl #4
    361c:	04000000 	streq	r0, [r0], #-0
    3620:	01000000 	mrseq	r0, (UNDEF: 0)
    3624:	00045200 	andeq	r5, r4, r0, lsl #4
    3628:	00080000 	andeq	r0, r8, r0
    362c:	00040000 	andeq	r0, r4, r0
    3630:	9f5201f3 	svcls	0x005201f3
    3634:	00000008 	andeq	r0, r0, r8
    3638:	00000018 	andeq	r0, r0, r8, lsl r0
    363c:	01f30006 	mvnseq	r0, r6
    3640:	9f1c3152 	svcls	0x001c3152
    3644:	00000018 	andeq	r0, r0, r8, lsl r0
    3648:	00000018 	andeq	r0, r0, r8, lsl r0
    364c:	01f30004 	mvnseq	r0, r4
    3650:	00189f52 	andseq	r9, r8, r2, asr pc
    3654:	00300000 	eorseq	r0, r0, r0
    3658:	00060000 	andeq	r0, r6, r0
    365c:	315201f3 	ldrshcc	r0, [r2, #-19]	; 0xffffffed
    3660:	00009f1c 	andeq	r9, r0, ip, lsl pc
    3664:	00000000 	andeq	r0, r0, r0
    3668:	00020000 	andeq	r0, r2, r0
    366c:	00010000 	andeq	r0, r1, r0
    3670:	00000000 	andeq	r0, r0, r0
    3674:	000c0000 	andeq	r0, ip, r0
    3678:	00010000 	andeq	r0, r1, r0
    367c:	00000c50 	andeq	r0, r0, r0, asr ip
    3680:	00001800 	andeq	r1, r0, r0, lsl #16
    3684:	70000300 	andvc	r0, r0, r0, lsl #6
    3688:	00189f7f 	andseq	r9, r8, pc, ror pc
    368c:	00240000 	eoreq	r0, r4, r0
    3690:	00010000 	andeq	r0, r1, r0
    3694:	00002850 	andeq	r2, r0, r0, asr r8
    3698:	00002c00 	andeq	r2, r0, r0, lsl #24
    369c:	70000300 	andvc	r0, r0, r0, lsl #6
    36a0:	00009f7f 	andeq	r9, r0, pc, ror pc
    36a4:	00000000 	andeq	r0, r0, r0
    36a8:	00020000 	andeq	r0, r2, r0
	...
    36b4:	0000000c 	andeq	r0, r0, ip
    36b8:	0c510001 	mrrceq	0, 0, r0, r1, cr1
    36bc:	10000000 	andne	r0, r0, r0
    36c0:	03000000 	movweq	r0, #0
    36c4:	9f017100 	svcls	0x00017100
    36c8:	00000010 	andeq	r0, r0, r0, lsl r0
    36cc:	00000030 	andeq	r0, r0, r0, lsr r0
    36d0:	00510001 	subseq	r0, r1, r1
    36d4:	00000000 	andeq	r0, r0, r0
    36d8:	Address 0x00000000000036d8 is out of bounds.


Disassembly of section .debug_aranges:

00000000 <.debug_aranges>:
   0:	0000001c 	andeq	r0, r0, ip, lsl r0
   4:	00000002 	andeq	r0, r0, r2
   8:	00040000 	andeq	r0, r4, r0
   c:	00000000 	andeq	r0, r0, r0
  10:	00008038 	andeq	r8, r0, r8, lsr r0
  14:	00000150 	andeq	r0, r0, r0, asr r1
	...
  20:	0000001c 	andeq	r0, r0, ip, lsl r0
  24:	04b80002 	ldrteq	r0, [r8], #2
  28:	00040000 	andeq	r0, r4, r0
  2c:	00000000 	andeq	r0, r0, r0
  30:	00008188 	andeq	r8, r0, r8, lsl #3
  34:	00000440 	andeq	r0, r0, r0, asr #8
	...
  40:	0000001c 	andeq	r0, r0, ip, lsl r0
  44:	0caa0002 	stceq	0, cr0, [sl], #8
  48:	00040000 	andeq	r0, r4, r0
  4c:	00000000 	andeq	r0, r0, r0
  50:	000085c8 	andeq	r8, r0, r8, asr #11
  54:	00000200 	andeq	r0, r0, r0, lsl #4
	...
  60:	0000001c 	andeq	r0, r0, ip, lsl r0
  64:	0f9a0002 	svceq	0x009a0002
  68:	00040000 	andeq	r0, r4, r0
  6c:	00000000 	andeq	r0, r0, r0
  70:	000087c8 	andeq	r8, r0, r8, asr #15
  74:	000006a8 	andeq	r0, r0, r8, lsr #13
	...
  80:	0000001c 	andeq	r0, r0, ip, lsl r0
  84:	1c5c0002 	mrrcne	0, 0, r0, ip, cr2
  88:	00040000 	andeq	r0, r4, r0
  8c:	00000000 	andeq	r0, r0, r0
  90:	00008e78 	andeq	r8, r0, r8, ror lr
  94:	000000a0 	andeq	r0, r0, r0, lsr #1
	...
  a0:	0000001c 	andeq	r0, r0, ip, lsl r0
  a4:	1e760002 	cdpne	0, 7, cr0, cr6, cr2, {0}
  a8:	00040000 	andeq	r0, r4, r0
  ac:	00000000 	andeq	r0, r0, r0
  b0:	00008f18 	andeq	r8, r0, r8, lsl pc
  b4:	00000078 	andeq	r0, r0, r8, ror r0
	...
  c0:	0000001c 	andeq	r0, r0, ip, lsl r0
  c4:	1fba0002 	svcne	0x00ba0002
  c8:	00040000 	andeq	r0, r4, r0
  cc:	00000000 	andeq	r0, r0, r0
  d0:	00008f90 	muleq	r0, r0, pc	; <UNPREDICTABLE>
  d4:	00000058 	andeq	r0, r0, r8, asr r0
	...
  e0:	0000001c 	andeq	r0, r0, ip, lsl r0
  e4:	215b0002 	cmpcs	fp, r2
  e8:	00040000 	andeq	r0, r4, r0
  ec:	00000000 	andeq	r0, r0, r0
  f0:	00008fe8 	andeq	r8, r0, r8, ror #31
  f4:	00000038 	andeq	r0, r0, r8, lsr r0
	...
 100:	0000001c 	andeq	r0, r0, ip, lsl r0
 104:	22520002 	subscs	r0, r2, #2, 0
 108:	00040000 	andeq	r0, r4, r0
 10c:	00000000 	andeq	r0, r0, r0
 110:	00009020 	andeq	r9, r0, r0, lsr #32
 114:	000009b4 			; <UNDEFINED> instruction: 0x000009b4
	...
 120:	0000001c 	andeq	r0, r0, ip, lsl r0
 124:	2ed50002 	cdpcs	0, 13, cr0, cr5, cr2, {0}
 128:	00040000 	andeq	r0, r4, r0
 12c:	00000000 	andeq	r0, r0, r0
 130:	000099d4 	ldrdeq	r9, [r0], -r4
 134:	0000002c 	andeq	r0, r0, ip, lsr #32
	...
 140:	0000001c 	andeq	r0, r0, ip, lsl r0
 144:	30080002 	andcc	r0, r8, r2
 148:	00040000 	andeq	r0, r4, r0
 14c:	00000000 	andeq	r0, r0, r0
 150:	00009a00 	andeq	r9, r0, r0, lsl #20
 154:	00000128 	andeq	r0, r0, r8, lsr #2
	...
 160:	0000001c 	andeq	r0, r0, ip, lsl r0
 164:	32bd0002 	adcscc	r0, sp, #2, 0
 168:	00040000 	andeq	r0, r4, r0
 16c:	00000000 	andeq	r0, r0, r0
 170:	00009b28 	andeq	r9, r0, r8, lsr #22
 174:	00000004 	andeq	r0, r0, r4
	...
 180:	0000001c 	andeq	r0, r0, ip, lsl r0
 184:	338f0002 	orrcc	r0, pc, #2, 0
 188:	00040000 	andeq	r0, r4, r0
 18c:	00000000 	andeq	r0, r0, r0
 190:	00009b2c 	andeq	r9, r0, ip, lsr #22
 194:	0000008c 	andeq	r0, r0, ip, lsl #1
	...
 1a0:	0000001c 	andeq	r0, r0, ip, lsl r0
 1a4:	36100002 	ldrcc	r0, [r0], -r2
 1a8:	00040000 	andeq	r0, r4, r0
 1ac:	00000000 	andeq	r0, r0, r0
 1b0:	00009bb8 			; <UNDEFINED> instruction: 0x00009bb8
 1b4:	0000011c 	andeq	r0, r0, ip, lsl r1
	...
 1c0:	0000001c 	andeq	r0, r0, ip, lsl r0
 1c4:	3b530002 	blcc	14c01d4 <__bss_end__+0x14b4fac>
 1c8:	00040000 	andeq	r0, r4, r0
 1cc:	00000000 	andeq	r0, r0, r0
 1d0:	00009cd4 	ldrdeq	r9, [r0], -r4
 1d4:	000001f0 	strdeq	r0, [r0], -r0	; <UNPREDICTABLE>
	...
 1e0:	0000001c 	andeq	r0, r0, ip, lsl r0
 1e4:	41240002 			; <UNDEFINED> instruction: 0x41240002
 1e8:	00040000 	andeq	r0, r4, r0
 1ec:	00000000 	andeq	r0, r0, r0
 1f0:	00009ec4 	andeq	r9, r0, r4, asr #29
 1f4:	000003b0 			; <UNDEFINED> instruction: 0x000003b0
	...
 200:	0000001c 	andeq	r0, r0, ip, lsl r0
 204:	4a110002 	bmi	440214 <__bss_end__+0x434fec>
 208:	00040000 	andeq	r0, r4, r0
 20c:	00000000 	andeq	r0, r0, r0
 210:	0000a274 	andeq	sl, r0, r4, ror r2
 214:	00000198 	muleq	r0, r8, r1
	...
 220:	0000001c 	andeq	r0, r0, ip, lsl r0
 224:	50880002 	addpl	r0, r8, r2
 228:	00040000 	andeq	r0, r4, r0
 22c:	00000000 	andeq	r0, r0, r0
 230:	0000a40c 	andeq	sl, r0, ip, lsl #8
 234:	0000003c 	andeq	r0, r0, ip, lsr r0
	...
 240:	0000001c 	andeq	r0, r0, ip, lsl r0
 244:	51d50002 	bicspl	r0, r5, r2
 248:	00040000 	andeq	r0, r4, r0
 24c:	00000000 	andeq	r0, r0, r0
 250:	0000a448 	andeq	sl, r0, r8, asr #8
 254:	0000002c 	andeq	r0, r0, ip, lsr #32
	...
 260:	0000001c 	andeq	r0, r0, ip, lsl r0
 264:	53100002 	tstpl	r0, #2, 0
 268:	00040000 	andeq	r0, r4, r0
 26c:	00000000 	andeq	r0, r0, r0
 270:	0000a474 	andeq	sl, r0, r4, ror r4
 274:	00000044 	andeq	r0, r0, r4, asr #32
	...
 280:	0000001c 	andeq	r0, r0, ip, lsl r0
 284:	540b0002 	strpl	r0, [fp], #-2
 288:	00040000 	andeq	r0, r4, r0
 28c:	00000000 	andeq	r0, r0, r0
 290:	0000a4b8 			; <UNDEFINED> instruction: 0x0000a4b8
 294:	00000018 	andeq	r0, r0, r8, lsl r0
	...
 2a0:	0000001c 	andeq	r0, r0, ip, lsl r0
 2a4:	551e0002 	ldrpl	r0, [lr, #-2]
 2a8:	00040000 	andeq	r0, r4, r0
 2ac:	00000000 	andeq	r0, r0, r0
 2b0:	0000a4d0 	ldrdeq	sl, [r0], -r0
 2b4:	00000030 	andeq	r0, r0, r0, lsr r0
	...
 2c0:	0000001c 	andeq	r0, r0, ip, lsl r0
 2c4:	56700002 	ldrbtpl	r0, [r0], -r2
 2c8:	00040000 	andeq	r0, r4, r0
 2cc:	00000000 	andeq	r0, r0, r0
 2d0:	0000a500 	andeq	sl, r0, r0, lsl #10
 2d4:	00000004 	andeq	r0, r0, r4
	...

Disassembly of section .debug_line:

00000000 <.debug_line>:
       0:	0000017e 	andeq	r0, r0, lr, ror r1
       4:	00ee0003 	rsceq	r0, lr, r3
       8:	01020000 	mrseq	r0, (UNDEF: 2)
       c:	000d0efb 	strdeq	r0, [sp], -fp
      10:	01010101 	tsteq	r1, r1, lsl #2
      14:	01000000 	mrseq	r0, (UNDEF: 0)
      18:	2e010000 	cdpcs	0, 0, cr0, cr1, cr0, {0}
      1c:	73657400 	cmnvc	r5, #0, 8
      20:	322d7374 	eorcc	r7, sp, #116, 6	; 0xd0000001
      24:	2f00302e 	svccs	0x0000302e
      28:	2f74706f 	svccs	0x0074706f
      2c:	656d6f68 	strbvs	r6, [sp, #-3944]!	; 0xfffff098
      30:	77657262 	strbvc	r7, [r5, -r2, ror #4]!
      34:	6c65432f 	stclvs	3, cr4, [r5], #-188	; 0xffffff44
      38:	2f72616c 	svccs	0x0072616c
      3c:	2d6d7261 	sfmcs	f7, 2, [sp, #-388]!	; 0xfffffe7c
      40:	656e6f6e 	strbvs	r6, [lr, #-3950]!	; 0xfffff092
      44:	6261652d 	rsbvs	r6, r1, #188743680	; 0xb400000
      48:	2f392d69 	svccs	0x00392d69
      4c:	30322d39 	eorscc	r2, r2, r9, lsr sp
      50:	34713931 	ldrbtcc	r3, [r1], #-2353	; 0xfffff6cf
      54:	3173632d 	cmncc	r3, sp, lsr #6
      58:	2f653730 	svccs	0x00653730
      5c:	2f62696c 	svccs	0x0062696c
      60:	2f636367 	svccs	0x00636367
      64:	2d6d7261 	sfmcs	f7, 2, [sp, #-388]!	; 0xfffffe7c
      68:	656e6f6e 	strbvs	r6, [lr, #-3950]!	; 0xfffff092
      6c:	6261652d 	rsbvs	r6, r1, #188743680	; 0xb400000
      70:	2e392f69 	cdpcs	15, 3, cr2, cr9, cr9, {3}
      74:	2f312e32 	svccs	0x00312e32
      78:	6c636e69 	stclvs	14, cr6, [r3], #-420	; 0xfffffe5c
      7c:	00656475 	rsbeq	r6, r5, r5, ror r4
      80:	6573552f 	ldrbvs	r5, [r3, #-1327]!	; 0xfffffad1
      84:	6d2f7372 	stcvs	3, cr7, [pc, #-456]!	; fffffec4 <__bss_end__+0xffff4c9c>
      88:	73656c69 	cmnvc	r5, #26880	; 0x6900
      8c:	756f532f 	strbvc	r5, [pc, #-815]!	; fffffd65 <__bss_end__+0xffff4b3d>
      90:	2f656372 	svccs	0x00656372
      94:	34327363 	ldrtcc	r7, [r2], #-867	; 0xfffffc9d
      98:	2f786c30 	svccs	0x00786c30
      9c:	7062696c 	rsbvc	r6, r2, ip, ror #18
      a0:	6e692f69 	cdpvs	15, 6, cr2, cr9, cr9, {3}
      a4:	64756c63 	ldrbtvs	r6, [r5], #-3171	; 0xfffff39d
      a8:	63000065 	movwvs	r0, #101	; 0x65
      ac:	6c6c616b 	stfvse	f6, [ip], #-428	; 0xfffffe54
      b0:	682e636f 	stmdavs	lr!, {r0, r1, r2, r3, r5, r6, r8, r9, sp, lr}
      b4:	00000100 	andeq	r0, r0, r0, lsl #2
      b8:	74726170 	ldrbtvc	r6, [r2], #-368	; 0xfffffe90
      bc:	65742d32 	ldrbvs	r2, [r4, #-3378]!	; 0xfffff2ce
      c0:	2d367473 	cfldrscs	mvf7, [r6, #-460]!	; 0xfffffe34
      c4:	6c2d6f6e 	stcvs	15, cr6, [sp], #-440	; 0xfffffe48
      c8:	2e6b6165 	powcsez	f6, f3, f5
      cc:	00020063 	andeq	r0, r2, r3, rrx
      d0:	63727300 	cmnvs	r2, #0, 6
      d4:	636f6c2d 	cmnvs	pc, #11520	; 0x2d00
      d8:	0100682e 	tsteq	r0, lr, lsr #16
      dc:	74730000 	ldrbtvc	r0, [r3], #-0
      e0:	746e6964 	strbtvc	r6, [lr], #-2404	; 0xfffff69c
      e4:	6363672d 	cmnvs	r3, #11796480	; 0xb40000
      e8:	0300682e 	movweq	r6, #2094	; 0x82e
      ec:	70720000 	rsbsvc	r0, r2, r0
      f0:	00682e69 	rsbeq	r2, r8, r9, ror #28
      f4:	00000004 	andeq	r0, r0, r4
      f8:	05002405 	streq	r2, [r0, #-1029]	; 0xfffffbfb
      fc:	00804802 	addeq	r4, r0, r2, lsl #16
     100:	01230300 			; <UNDEFINED> instruction: 0x01230300
     104:	05050106 	streq	r0, [r5, #-262]	; 0xfffffefa
     108:	05136706 	ldreq	r6, [r3, #-1798]	; 0xfffff8fa
     10c:	2e130601 	cfmsub32cs	mvax0, mvfx0, mvfx3, mvfx1
     110:	13050204 	movwne	r0, #20996	; 0x5204
     114:	82630306 	rsbhi	r0, r3, #402653184	; 0x18000000
     118:	04840505 	streq	r0, [r4], #1285	; 0x505
     11c:	130b0503 	movwne	r0, #46339	; 0xb503
     120:	05130505 	ldreq	r0, [r3, #-1285]	; 0xfffffafb
     124:	ba01060c 	blt	4195c <__bss_end__+0x36734>
     128:	0f050204 	svceq	0x00050204
     12c:	06050510 			; <UNDEFINED> instruction: 0x06050510
     130:	2e06019f 	mcrcs	1, 0, r0, cr6, cr15, {4}
     134:	05138206 	ldreq	r8, [r3, #-518]	; 0xfffffdfa
     138:	66130601 	ldrvs	r0, [r3], -r1, lsl #12
     13c:	bc061405 	cfstrslt	mvf1, [r6], {5}
     140:	4d830505 	cfstr32mi	mvfx0, [r3, #20]
     144:	01060f05 	tsteq	r6, r5, lsl #30
     148:	4c060505 	cfstr32mi	mvfx0, [r6], {5}
     14c:	064a0601 	strbeq	r0, [sl], -r1, lsl #12
     150:	0805152e 	stmdaeq	r5, {r1, r2, r3, r5, r8, sl, ip}
     154:	07050106 	streq	r0, [r5, -r6, lsl #2]
     158:	0609054a 	streq	r0, [r9], -sl, asr #10
     15c:	1405054b 	strne	r0, [r5], #-1355	; 0xfffffab5
     160:	01060805 	tsteq	r6, r5, lsl #16
     164:	054a0705 	strbeq	r0, [sl, #-1797]	; 0xfffff8fb
     168:	014b0609 	cmpeq	fp, r9, lsl #12
     16c:	0105144a 	tsteq	r5, sl, asr #8
     170:	09051306 	stmdbeq	r5, {r1, r2, r8, r9, ip}
     174:	4a7a0306 	bmi	1e80d94 <__bss_end__+0x1e75b6c>
     178:	01339e01 	teqeq	r3, r1, lsl #28
     17c:	001002ba 			; <UNDEFINED> instruction: 0x001002ba
     180:	03d20101 	bicseq	r0, r2, #1073741824	; 0x40000000
     184:	00030000 	andeq	r0, r3, r0
     188:	000000f4 	strdeq	r0, [r0], -r4
     18c:	0efb0102 	cdpeq	1, 15, cr0, cr11, cr2, {0}
     190:	0101000d 	tsteq	r1, sp
     194:	00000101 	andeq	r0, r0, r1, lsl #2
     198:	00000100 	andeq	r0, r0, r0, lsl #2
     19c:	706f2f01 	rsbvc	r2, pc, r1, lsl #30
     1a0:	6f682f74 	svcvs	0x00682f74
     1a4:	7262656d 	rsbvc	r6, r2, #457179136	; 0x1b400000
     1a8:	432f7765 			; <UNDEFINED> instruction: 0x432f7765
     1ac:	616c6c65 	cmnvs	ip, r5, ror #24
     1b0:	72612f72 	rsbvc	r2, r1, #456	; 0x1c8
     1b4:	6f6e2d6d 	svcvs	0x006e2d6d
     1b8:	652d656e 	strvs	r6, [sp, #-1390]!	; 0xfffffa92
     1bc:	2d696261 	sfmcs	f6, 2, [r9, #-388]!	; 0xfffffe7c
     1c0:	2d392f39 	ldccs	15, cr2, [r9, #-228]!	; 0xffffff1c
     1c4:	39313032 	ldmdbcc	r1!, {r1, r4, r5, ip, sp}
     1c8:	632d3471 			; <UNDEFINED> instruction: 0x632d3471
     1cc:	37303173 			; <UNDEFINED> instruction: 0x37303173
     1d0:	696c2f65 	stmdbvs	ip!, {r0, r2, r5, r6, r8, r9, sl, fp, sp}^
     1d4:	63672f62 	cmnvs	r7, #392	; 0x188
     1d8:	72612f63 	rsbvc	r2, r1, #396	; 0x18c
     1dc:	6f6e2d6d 	svcvs	0x006e2d6d
     1e0:	652d656e 	strvs	r6, [sp, #-1390]!	; 0xfffffa92
     1e4:	2f696261 	svccs	0x00696261
     1e8:	2e322e39 	mrccs	14, 1, r2, cr2, cr9, {1}
     1ec:	6e692f31 	mcrvs	15, 3, r2, cr9, cr1, {1}
     1f0:	64756c63 	ldrbtvs	r6, [r5], #-3171	; 0xfffff39d
     1f4:	552f0065 	strpl	r0, [pc, #-101]!	; 197 <__code_start__-0x7e69>
     1f8:	73726573 	cmnvc	r2, #482344960	; 0x1cc00000
     1fc:	6c696d2f 	stclvs	13, cr6, [r9], #-188	; 0xffffff44
     200:	532f7365 			; <UNDEFINED> instruction: 0x532f7365
     204:	6372756f 	cmnvs	r2, #465567744	; 0x1bc00000
     208:	73632f65 	cmnvc	r3, #404	; 0x194
     20c:	6c303432 	cfldrsvs	mvf3, [r0], #-200	; 0xffffff38
     210:	696c2f78 	stmdbvs	ip!, {r3, r4, r5, r6, r8, r9, sl, fp, sp}^
     214:	2f697062 	svccs	0x00697062
     218:	6c636e69 	stclvs	14, cr6, [r3], #-420	; 0xfffffe5c
     21c:	00656475 	rsbeq	r6, r5, r5, ror r4
     220:	616b6300 	cmnvs	fp, r0, lsl #6
     224:	636f6c6c 	cmnvs	pc, #108, 24	; 0x6c00
     228:	0000632e 	andeq	r6, r0, lr, lsr #6
     22c:	6b630000 	blvs	18c0234 <__bss_end__+0x18b500c>
     230:	6f6c6c61 	svcvs	0x006c6c61
     234:	00682e63 	rsbeq	r2, r8, r3, ror #28
     238:	73000000 	movwvc	r0, #0
     23c:	6e696474 	mcrvs	4, 3, r6, cr9, cr4, {3}
     240:	63672d74 	cmnvs	r7, #116, 26	; 0x1d00
     244:	00682e63 	rsbeq	r2, r8, r3, ror #28
     248:	72000001 	andvc	r0, r0, #1, 0
     24c:	682e6970 	stmdavs	lr!, {r4, r5, r6, r8, fp, sp, lr}
     250:	00000200 	andeq	r0, r0, r0, lsl #4
     254:	2d637273 	sfmcs	f7, 2, [r3, #-460]!	; 0xfffffe34
     258:	2e636f6c 	cdpcs	15, 6, cr6, cr3, cr12, {3}
     25c:	00000068 	andeq	r0, r0, r8, rrx
     260:	2d726b00 	vldmdbcs	r2!, {d22-d21}
     264:	6c6c616d 	stfvse	f6, [ip], #-436	; 0xfffffe4c
     268:	682e636f 	stmdavs	lr!, {r0, r1, r2, r3, r5, r6, r8, r9, sp, lr}
     26c:	00000000 	andeq	r0, r0, r0
     270:	6b636162 	blvs	18d8800 <__bss_end__+0x18cd5d8>
     274:	63617274 	cmnvs	r1, #116, 4	; 0x40000007
     278:	00682e65 	rsbeq	r2, r8, r5, ror #28
     27c:	00000002 	andeq	r0, r0, r2
     280:	05000105 	streq	r0, [r0, #-261]	; 0xfffffefb
     284:	00819c02 	addeq	r9, r1, r2, lsl #24
     288:	01100300 	tsteq	r0, r0, lsl #6
     28c:	05670505 	strbeq	r0, [r7, #-1285]!	; 0xfffffafb
     290:	06130601 	ldreq	r0, [r3], -r1, lsl #12
     294:	050106f6 	streq	r0, [r1, #-1782]	; 0xfffff90a
     298:	05670605 	strbeq	r0, [r7, #-1541]!	; 0xfffff9fb
     29c:	2e010608 	cfmadd32cs	mvax0, mvfx0, mvfx1, mvfx8
     2a0:	2f060905 	svccs	0x00060905
     2a4:	01061105 	tsteq	r6, r5, lsl #2
     2a8:	06300105 	ldrteq	r0, [r0], -r5, lsl #2
     2ac:	050106bd 	streq	r0, [r1, #-1725]	; 0xfffff943
     2b0:	05670605 	strbeq	r0, [r7, #-1541]!	; 0xfffff9fb
     2b4:	2e130601 	cfmsub32cs	mvax0, mvfx0, mvfx3, mvfx1
     2b8:	0106a206 	tsteq	r6, r6, lsl #4
     2bc:	83060505 	movwhi	r0, #25861	; 0x6505
     2c0:	01061405 	tsteq	r6, r5, lsl #8
     2c4:	18050204 	stmdane	r5, {r2, r9}
     2c8:	2e0d0306 	cdpcs	3, 0, cr0, cr13, cr6, {0}
     2cc:	05130505 	ldreq	r0, [r3, #-1285]	; 0xfffffafb
     2d0:	2e01060d 	cfmadd32cs	mvax0, mvfx0, mvfx1, mvfx13
     2d4:	01050104 	tsteq	r5, r4, lsl #2
     2d8:	06017303 	streq	r7, [r1], -r3, lsl #6
     2dc:	050106da 	streq	r0, [r1, #-1754]	; 0xfffff926
     2e0:	059f0605 	ldreq	r0, [pc, #1541]	; 8ed <__code_start__-0x7713>
     2e4:	2e010611 	mcrcs	6, 0, r0, cr1, cr1, {0}
     2e8:	2f060505 	svccs	0x00060505
     2ec:	01061105 	tsteq	r6, r5, lsl #2
     2f0:	0605052e 	streq	r0, [r5], -lr, lsr #10
     2f4:	0601052f 	streq	r0, [r1], -pc, lsr #10
     2f8:	f5066613 			; <UNDEFINED> instruction: 0xf5066613
     2fc:	05050106 	streq	r0, [r5, #-262]	; 0xfffffefa
     300:	820c0306 	andhi	r0, ip, #402653184	; 0x18000000
     304:	05010a05 	streq	r0, [r1, #-2565]	; 0xfffff5fb
     308:	2e010615 	mcrcs	6, 0, r0, cr1, cr5, {0}
     30c:	02002505 	andeq	r2, r0, #20971520	; 0x1400000
     310:	2e060104 	adfcss	f0, f6, f4
     314:	02000505 	andeq	r0, r0, #20971520	; 0x1400000
     318:	01060104 	tsteq	r6, r4, lsl #2
     31c:	4d060905 	vstrmi.16	s0, [r6, #-10]	; <UNPREDICTABLE>
     320:	01060d05 	tsteq	r6, r5, lsl #26
     324:	2e0c054a 	cfsh32cs	mvfx0, mvfx12, #42
     328:	02002805 	andeq	r2, r0, #327680	; 0x50000
     32c:	47060204 	strmi	r0, [r6, -r4, lsl #4]
     330:	02002c05 	andeq	r2, r0, #1280	; 0x500
     334:	01060204 	tsteq	r6, r4, lsl #4
     338:	02040200 	andeq	r0, r4, #0, 4
     33c:	060d0566 	streq	r0, [sp], -r6, ror #10
     340:	01068333 	tsteq	r6, r3, lsr r3
     344:	06160105 	ldreq	r0, [r6], -r5, lsl #2
     348:	06ba1c03 	ldrteq	r1, [sl], r3, lsl #24
     34c:	0505ba01 	streq	fp, [r5, #-2561]	; 0xfffff5ff
     350:	13132f06 	tstne	r3, #6, 30
     354:	01061105 	tsteq	r6, r5, lsl #2
     358:	68060505 	stmdavs	r6, {r0, r2, r8, sl}
     35c:	1366f201 	msrne	SPSR_sx, #268435456	; 0x10000000
     360:	01060a05 	tsteq	r6, r5, lsl #20
     364:	052e0805 	streq	r0, [lr, #-2053]!	; 0xfffff7fb
     368:	15054d0e 	strne	r4, [r5, #-3342]	; 0xfffff2f2
     36c:	01040200 	mrseq	r0, R12_usr
     370:	05052e06 	streq	r2, [r5, #-3590]	; 0xfffff1fa
     374:	01040200 	mrseq	r0, R12_usr
     378:	09050106 	stmdbeq	r5, {r1, r2, r8}
     37c:	13054c06 	movwne	r4, #23558	; 0x5c06
     380:	0c050106 	stfeqs	f0, [r5], {6}
     384:	060d054a 	streq	r0, [sp], -sl, asr #10
     388:	1409054c 	strne	r0, [r9], #-1356	; 0xfffffab4
     38c:	01062205 	tsteq	r6, r5, lsl #4
     390:	052e3105 	streq	r3, [lr, #-261]!	; 0xfffffefb
     394:	0c052e0d 	stceq	14, cr2, [r5], {13}
     398:	000d052e 	andeq	r0, sp, lr, lsr #10
     39c:	06020402 	streq	r0, [r2], -r2, lsl #8
     3a0:	0029054c 	eoreq	r0, r9, ip, asr #10
     3a4:	03020402 	movweq	r0, #9218	; 0x2402
     3a8:	2a050178 	bcs	140990 <__bss_end__+0x135768>
     3ac:	02040200 	andeq	r0, r4, #0, 4
     3b0:	02000106 	andeq	r0, r0, #-2147483647	; 0x80000001
     3b4:	002e0204 	eoreq	r0, lr, r4, lsl #4
     3b8:	2e020402 	cdpcs	4, 0, cr0, cr2, cr2, {0}
     3bc:	10060905 	andne	r0, r6, r5, lsl #18
     3c0:	669e2e01 	ldrvs	r2, [lr], r1, lsl #28
     3c4:	01340d05 	teqeq	r4, r5, lsl #26
     3c8:	324a9e2e 	subcc	r9, sl, #736	; 0x2e0
     3cc:	4a9e2e01 	bmi	fe78bbd8 <__bss_end__+0xfe7809b0>
     3d0:	0e052e06 	cdpeq	14, 0, cr2, cr5, cr6, {0}
     3d4:	00150517 	andseq	r0, r5, r7, lsl r5
     3d8:	06010402 	streq	r0, [r1], -r2, lsl #8
     3dc:	001a052e 	andseq	r0, sl, lr, lsr #10
     3e0:	06010402 	streq	r0, [r1], -r2, lsl #8
     3e4:	00050501 	andeq	r0, r5, r1, lsl #10
     3e8:	2e010402 	cdpcs	4, 0, cr0, cr1, cr2, {0}
     3ec:	02000905 	andeq	r0, r0, #81920	; 0x14000
     3f0:	30060304 	andcc	r0, r6, r4, lsl #6
     3f4:	02001d05 	andeq	r1, r0, #320	; 0x140
     3f8:	01060304 	tsteq	r6, r4, lsl #6
     3fc:	02002a05 	andeq	r2, r0, #20480	; 0x5000
     400:	48060304 	stmdami	r6, {r2, r8, r9}
     404:	02002b05 	andeq	r2, r0, #5120	; 0x1400
     408:	01060304 	tsteq	r6, r4, lsl #6
     40c:	03040200 	movweq	r0, #16896	; 0x4200
     410:	0402002e 	streq	r0, [r2], #-46	; 0xffffffd2
     414:	05052e03 	streq	r2, [r5, #-3587]	; 0xfffff1fd
     418:	0e051706 	cdpeq	7, 0, cr1, cr5, cr6, {0}
     41c:	052e0106 	streq	r0, [lr, #-262]!	; 0xfffffefa
     420:	052f0605 	streq	r0, [pc, #-1541]!	; fffffe23 <__bss_end__+0xffff4bfb>
     424:	2e010611 	mcrcs	6, 0, r0, cr1, cr1, {0}
     428:	4a670105 	bmi	19c0844 <__bss_end__+0x19b561c>
     42c:	065b0806 	ldrbeq	r0, [fp], -r6, lsl #16
     430:	06050501 	streq	r0, [r5], -r1, lsl #10
     434:	06080567 	streq	r0, [r8], -r7, ror #10
     438:	00240501 	eoreq	r0, r4, r1, lsl #10
     43c:	66010402 	strvs	r0, [r1], -r2, lsl #8
     440:	6a060505 	bvs	18185c <__bss_end__+0x176634>
     444:	01062b05 	tsteq	r6, r5, lsl #22
     448:	052e3305 	streq	r3, [lr, #-773]!	; 0xfffffcfb
     44c:	10052e0c 	andne	r2, r5, ip, lsl #28
     450:	052e2e2c 	streq	r2, [lr, #-3628]!	; 0xfffff1d4
     454:	a4063101 	strge	r3, [r6], #-257	; 0xfffffeff
     458:	05ba0106 	ldreq	r0, [sl, #262]!	; 0x106
     45c:	052f0605 	streq	r0, [pc, #-1541]!	; fffffe5f <__bss_end__+0xffff4c37>
     460:	05010610 	streq	r0, [r1, #-1552]	; 0xfffff9f0
     464:	69690605 	stmdbvs	r9!, {r0, r2, r9, sl}^
     468:	05010a05 	streq	r0, [r1, #-2565]	; 0xfffff5fb
     46c:	0501060e 	streq	r0, [r1, #-1550]	; 0xfffff9f2
     470:	04020015 	streq	r0, [r2], #-21	; 0xffffffeb
     474:	052e0601 	streq	r0, [lr, #-1537]!	; 0xfffff9ff
     478:	04020005 	streq	r0, [r2], #-5
     47c:	05010601 	streq	r0, [r1, #-1537]	; 0xfffff9ff
     480:	04020009 	streq	r0, [r2], #-9
     484:	054c0603 	strbeq	r0, [ip, #-1539]	; 0xfffff9fd
     488:	04020013 	streq	r0, [r2], #-19	; 0xffffffed
     48c:	05010603 	streq	r0, [r1, #-1539]	; 0xfffff9fd
     490:	04020009 	streq	r0, [r2], #-9
     494:	05670603 	strbeq	r0, [r7, #-1539]!	; 0xfffff9fd
     498:	04020026 	streq	r0, [r2], #-38	; 0xffffffda
     49c:	05010603 	streq	r0, [r1, #-1539]	; 0xfffff9fd
     4a0:	0402002b 	streq	r0, [r2], #-43	; 0xffffffd5
     4a4:	29054a03 	stmdbcs	r5, {r0, r1, r9, fp, lr}
     4a8:	03040200 	movweq	r0, #16896	; 0x4200
     4ac:	2a052b06 	bcs	14b0cc <__bss_end__+0x13fea4>
     4b0:	03040200 	movweq	r0, #16896	; 0x4200
     4b4:	02000106 	andeq	r0, r0, #-2147483647	; 0x80000001
     4b8:	002e0304 	eoreq	r0, lr, r4, lsl #6
     4bc:	2e030402 	cdpcs	4, 0, cr0, cr3, cr2, {0}
     4c0:	18060505 	stmdane	r6, {r0, r2, r8, sl}
     4c4:	01061505 	tsteq	r6, r5, lsl #10
     4c8:	2f060505 	svccs	0x00060505
     4cc:	01060e05 	tsteq	r6, r5, lsl #28
     4d0:	0605052e 	streq	r0, [r5], -lr, lsr #10
     4d4:	0612052f 	ldreq	r0, [r2], -pc, lsr #10
     4d8:	06050501 	streq	r0, [r5], -r1, lsl #10
     4dc:	060f0583 	streq	r0, [pc], -r3, lsl #11
     4e0:	06050501 	streq	r0, [r5], -r1, lsl #10
     4e4:	9e9e014c 	fmllsem	f0, f6, #4.0
     4e8:	010a0514 	tsteq	sl, r4, lsl r5
     4ec:	01060e05 	tsteq	r6, r5, lsl #28
     4f0:	02001505 	andeq	r1, r0, #20971520	; 0x1400000
     4f4:	2e060104 	adfcss	f0, f6, f4
     4f8:	02000505 	andeq	r0, r0, #20971520	; 0x1400000
     4fc:	01060104 	tsteq	r6, r4, lsl #2
     500:	02000905 	andeq	r0, r0, #81920	; 0x14000
     504:	4c060304 	stcmi	3, cr0, [r6], {4}
     508:	02001705 	andeq	r1, r0, #1310720	; 0x140000
     50c:	01060304 	tsteq	r6, r4, lsl #6
     510:	02000905 	andeq	r0, r0, #81920	; 0x14000
     514:	67060304 	strvs	r0, [r6, -r4, lsl #6]
     518:	02000e05 	andeq	r0, r0, #80	; 0x50
     51c:	01060304 	tsteq	r6, r4, lsl #6
     520:	02002205 	andeq	r2, r0, #1342177280	; 0x50000000
     524:	2b060304 	blcs	18113c <__bss_end__+0x175f14>
     528:	02002405 	andeq	r2, r0, #83886080	; 0x5000000
     52c:	01060304 	tsteq	r6, r4, lsl #6
     530:	03040200 	movweq	r0, #16896	; 0x4200
     534:	0402002e 	streq	r0, [r2], #-46	; 0xffffffd2
     538:	05052e03 	streq	r2, [r5, #-3587]	; 0xfffff1fd
     53c:	0d051806 	stceq	8, cr1, [r5, #-24]	; 0xffffffe8
     540:	05050106 	streq	r0, [r5, #-262]	; 0xfffffefa
     544:	10056706 	andne	r6, r5, r6, lsl #14
     548:	05050106 	streq	r0, [r5, #-262]	; 0xfffffefa
     54c:	01053006 	tsteq	r5, r6
     550:	02661406 	rsbeq	r1, r6, #100663296	; 0x6000000
     554:	01010008 	tsteq	r1, r8
     558:	00000228 	andeq	r0, r0, r8, lsr #4
     55c:	00640003 	rsbeq	r0, r4, r3
     560:	01020000 	mrseq	r0, (UNDEF: 2)
     564:	000d0efb 	strdeq	r0, [sp], -fp
     568:	01010101 	tsteq	r1, r1, lsl #2
     56c:	01000000 	mrseq	r0, (UNDEF: 0)
     570:	2f010000 	svccs	0x00010000
     574:	72657355 	rsbvc	r7, r5, #1409286145	; 0x54000001
     578:	696d2f73 	stmdbvs	sp!, {r0, r1, r4, r5, r6, r8, r9, sl, fp, sp}^
     57c:	2f73656c 	svccs	0x0073656c
     580:	72756f53 	rsbsvc	r6, r5, #332	; 0x14c
     584:	632f6563 			; <UNDEFINED> instruction: 0x632f6563
     588:	30343273 	eorscc	r3, r4, r3, ror r2
     58c:	6c2f786c 	stcvs	8, cr7, [pc], #-432	; 3e4 <__code_start__-0x7c1c>
     590:	69706269 	ldmdbvs	r0!, {r0, r3, r5, r6, r9, sp, lr}^
     594:	636e692f 	cmnvs	lr, #770048	; 0xbc000
     598:	6564756c 	strbvs	r7, [r4, #-1388]!	; 0xfffffa94
     59c:	726b0000 	rsbvc	r0, fp, #0, 0
     5a0:	6c616d2d 	stclvs	13, cr6, [r1], #-180	; 0xffffff4c
     5a4:	2e636f6c 	cdpcs	15, 6, cr6, cr3, cr12, {3}
     5a8:	00000063 	andeq	r0, r0, r3, rrx
     5ac:	69707200 	ldmdbvs	r0!, {r9, ip, sp, lr}^
     5b0:	0100682e 	tsteq	r0, lr, lsr #16
     5b4:	726b0000 	rsbvc	r0, fp, #0, 0
     5b8:	6c616d2d 	stclvs	13, cr6, [r1], #-180	; 0xffffff4c
     5bc:	2e636f6c 	cdpcs	15, 6, cr6, cr3, cr12, {3}
     5c0:	00000068 	andeq	r0, r0, r8, rrx
     5c4:	01050000 	mrseq	r0, (UNDEF: 5)
     5c8:	d4020500 	strle	r0, [r2], #-1280	; 0xfffffb00
     5cc:	03000085 	movweq	r0, #133	; 0x85
     5d0:	060100d3 			; <UNDEFINED> instruction: 0x060100d3
     5d4:	06020501 	streq	r0, [r2], -r1, lsl #10
     5d8:	05051367 	streq	r1, [r5, #-871]	; 0xfffffc99
     5dc:	02050106 	andeq	r0, r5, #-2147483647	; 0x80000001
     5e0:	09052f06 	stmdbeq	r5, {r1, r2, r8, r9, sl, fp, sp}
     5e4:	02050106 	andeq	r0, r5, #-2147483647	; 0x80000001
     5e8:	12052e4a 	andne	r2, r5, #1184	; 0x4a0
     5ec:	01040200 	mrseq	r0, R12_usr
     5f0:	02052e06 	andeq	r2, r5, #96	; 0x60
     5f4:	01040200 	mrseq	r0, R12_usr
     5f8:	27050106 	strcs	r0, [r5, -r6, lsl #2]
     5fc:	03040200 	movweq	r0, #16896	; 0x4200
     600:	0012054a 	andseq	r0, r2, sl, asr #10
     604:	2e030402 	cdpcs	4, 0, cr0, cr3, cr2, {0}
     608:	4b060305 	blmi	181224 <__bss_end__+0x175ffc>
     60c:	01061005 	tsteq	r6, r5
     610:	052e0605 	streq	r0, [lr, #-1541]!	; 0xfffff9fb
     614:	04020015 	streq	r0, [r2], #-21	; 0xffffffeb
     618:	20054a01 	andcs	r4, r5, r1, lsl #20
     61c:	02040200 	andeq	r0, r4, #0, 4
     620:	0402004a 	streq	r0, [r2], #-74	; 0xffffffb6
     624:	02054a02 	andeq	r4, r5, #8192	; 0x2000
     628:	10053006 	andne	r3, r5, r6
     62c:	09050106 	stmdbeq	r5, {r1, r2, r8}
     630:	2e1d052e 	cfmul64cs	mvdx0, mvdx13, mvdx14
     634:	052e0505 	streq	r0, [lr, #-1285]!	; 0xfffffafb
     638:	05500603 	ldrbeq	r0, [r0, #-1539]	; 0xfffff9fd
     63c:	0501060d 	streq	r0, [r1, #-1549]	; 0xfffff9f3
     640:	052f0602 	streq	r0, [pc, #-1538]!	; 46 <__code_start__-0x7fba>
     644:	0501060e 	streq	r0, [r1, #-1550]	; 0xfffff9f2
     648:	05052e08 	streq	r2, [r5, #-3592]	; 0xfffff1f8
     64c:	0603052e 	streq	r0, [r3], -lr, lsr #10
     650:	060c0550 			; <UNDEFINED> instruction: 0x060c0550
     654:	06020501 	streq	r0, [r2], -r1, lsl #10
     658:	0608052f 	streq	r0, [r8], -pc, lsr #10
     65c:	4b010501 	blmi	41a68 <__bss_end__+0x36840>
     660:	03060305 	movweq	r0, #25349	; 0x6305
     664:	1c052e73 	stcne	14, cr2, [r5], {115}	; 0x73
     668:	0e050106 	adfeqs	f0, f5, f6
     66c:	0603052e 	streq	r0, [r3], -lr, lsr #10
     670:	0613054b 	ldreq	r0, [r3], -fp, asr #10
     674:	2e1a0501 	cfmul32cs	mvfx0, mvfx10, mvfx1
     678:	052e0d05 	streq	r0, [lr, #-3333]!	; 0xfffff2fb
     67c:	05500603 	ldrbeq	r0, [r0, #-1539]	; 0xfffff9fd
     680:	05010615 	streq	r0, [r1, #-1557]	; 0xfffff9eb
     684:	03052e0d 	movweq	r2, #24077	; 0x5e0d
     688:	13054b06 	movwne	r4, #23302	; 0x5b06
     68c:	0c050106 	stfeqs	f0, [r5], {6}
     690:	0601052e 	streq	r0, [r1], -lr, lsr #10
     694:	d67fb903 	ldrbtle	fp, [pc], -r3, lsl #18
     698:	02050106 	andeq	r0, r5, #-2147483647	; 0x80000001
     69c:	05058306 	streq	r8, [r5, #-774]	; 0xfffffcfa
     6a0:	06050106 	streq	r0, [r5], -r6, lsl #2
     6a4:	0602052f 	streq	r0, [r2], -pc, lsr #10
     6a8:	0d05672f 	stceq	7, cr6, [r5, #-188]	; 0xffffff44
     6ac:	02050106 	andeq	r0, r5, #-2147483647	; 0x80000001
     6b0:	05054b06 	streq	r4, [r5, #-2822]	; 0xfffff4fa
     6b4:	02050106 	andeq	r0, r5, #-2147483647	; 0x80000001
     6b8:	05134c06 	ldreq	r4, [r3, #-3078]	; 0xfffff3fa
     6bc:	0501060d 	streq	r0, [r1, #-1549]	; 0xfffff9f3
     6c0:	062f0602 	strteq	r0, [pc], -r2, lsl #12
     6c4:	052f062e 	streq	r0, [pc, #-1582]!	; 9e <__code_start__-0x7f62>
     6c8:	05010609 	streq	r0, [r1, #-1545]	; 0xfffff9f7
     6cc:	0105620a 	tsteq	r5, sl, lsl #4
     6d0:	06da0633 			; <UNDEFINED> instruction: 0x06da0633
     6d4:	06020501 	streq	r0, [r2], -r1, lsl #10
     6d8:	05141367 	ldreq	r1, [r4, #-871]	; 0xfffffc99
     6dc:	05010624 	streq	r0, [r1, #-1572]	; 0xfffff9dc
     6e0:	09052e29 	stmdbeq	r5, {r0, r3, r5, r9, sl, fp, sp}
     6e4:	0602052e 	streq	r0, [r2], -lr, lsr #10
     6e8:	060d052f 	streq	r0, [sp], -pc, lsr #10
     6ec:	4a050501 	bmi	141af8 <__bss_end__+0x1368d0>
     6f0:	50060205 	andpl	r0, r6, r5, lsl #4
     6f4:	01060905 	tsteq	r6, r5, lsl #18
     6f8:	0603052e 	streq	r0, [r3], -lr, lsr #10
     6fc:	0616052a 	ldreq	r0, [r6], -sl, lsr #10
     700:	4a0e0501 	bmi	381b0c <__bss_end__+0x3768e4>
     704:	2f060305 	svccs	0x00060305
     708:	01060f05 	tsteq	r6, r5, lsl #30
     70c:	6d060405 	cfstrsvs	mvf0, [r6, #-20]	; 0xffffffec
     710:	01060705 	tsteq	r6, r5, lsl #14
     714:	34060505 	strcc	r0, [r6], #-1285	; 0xfffffafb
     718:	01060f05 	tsteq	r6, r5, lsl #30
     71c:	4b060505 	blmi	181b38 <__bss_end__+0x176910>
     720:	01060705 	tsteq	r6, r5, lsl #14
     724:	2f060505 	svccs	0x00060505
     728:	01060f05 	tsteq	r6, r5, lsl #30
     72c:	30060405 	andcc	r0, r6, r5, lsl #8
     730:	01060a05 	tsteq	r6, r5, lsl #20
     734:	4b060405 	blmi	181750 <__bss_end__+0x176528>
     738:	01060b05 	tsteq	r6, r5, lsl #22
     73c:	0605052e 	streq	r0, [r5], -lr, lsr #10
     740:	052e7703 	streq	r7, [lr, #-1795]!	; 0xfffff8fd
     744:	05010618 	streq	r0, [r1, #-1560]	; 0xfffff9e8
     748:	1a052e12 	bne	14bf98 <__bss_end__+0x140d70>
     74c:	4a7a0306 	bmi	1e8136c <__bss_end__+0x1e76144>
     750:	05011805 	streq	r1, [r1, #-2053]	; 0xfffff7fb
     754:	05010620 	streq	r0, [r1, #-1568]	; 0xfffff9e0
     758:	03052e27 	movweq	r2, #24103	; 0x5e27
     75c:	0b053006 	bleq	14c77c <__bss_end__+0x141554>
     760:	06050106 	streq	r0, [r5], -r6, lsl #2
     764:	0603052e 	streq	r0, [r3], -lr, lsr #10
     768:	054a0f03 	strbeq	r0, [sl, #-3843]	; 0xfffff0fd
     76c:	05010609 	streq	r0, [r1, #-1545]	; 0xfffff9f7
     770:	04054a06 	streq	r4, [r5], #-2566	; 0xfffff5fa
     774:	0d054c06 	stceq	12, cr4, [r5, #-24]	; 0xffffffe8
     778:	052e0106 	streq	r0, [lr, #-262]!	; 0xfffffefa
     77c:	022e2e07 	eoreq	r2, lr, #112	; 0x70
     780:	01010006 	tsteq	r1, r6
     784:	00000538 	andeq	r0, r0, r8, lsr r5
     788:	00d40003 	sbcseq	r0, r4, r3
     78c:	01020000 	mrseq	r0, (UNDEF: 2)
     790:	000d0efb 	strdeq	r0, [sp], -fp
     794:	01010101 	tsteq	r1, r1, lsl #2
     798:	01000000 	mrseq	r0, (UNDEF: 0)
     79c:	2f010000 	svccs	0x00010000
     7a0:	2f74706f 	svccs	0x0074706f
     7a4:	656d6f68 	strbvs	r6, [sp, #-3944]!	; 0xfffff098
     7a8:	77657262 	strbvc	r7, [r5, -r2, ror #4]!
     7ac:	6c65432f 	stclvs	3, cr4, [r5], #-188	; 0xffffff44
     7b0:	2f72616c 	svccs	0x0072616c
     7b4:	2d6d7261 	sfmcs	f7, 2, [sp, #-388]!	; 0xfffffe7c
     7b8:	656e6f6e 	strbvs	r6, [lr, #-3950]!	; 0xfffff092
     7bc:	6261652d 	rsbvs	r6, r1, #188743680	; 0xb400000
     7c0:	2f392d69 	svccs	0x00392d69
     7c4:	30322d39 	eorscc	r2, r2, r9, lsr sp
     7c8:	34713931 	ldrbtcc	r3, [r1], #-2353	; 0xfffff6cf
     7cc:	3173632d 	cmncc	r3, sp, lsr #6
     7d0:	2f653730 	svccs	0x00653730
     7d4:	2f62696c 	svccs	0x0062696c
     7d8:	2f636367 	svccs	0x00636367
     7dc:	2d6d7261 	sfmcs	f7, 2, [sp, #-388]!	; 0xfffffe7c
     7e0:	656e6f6e 	strbvs	r6, [lr, #-3950]!	; 0xfffff092
     7e4:	6261652d 	rsbvs	r6, r1, #188743680	; 0xb400000
     7e8:	2e392f69 	cdpcs	15, 3, cr2, cr9, cr9, {3}
     7ec:	2f312e32 	svccs	0x00312e32
     7f0:	6c636e69 	stclvs	14, cr6, [r3], #-420	; 0xfffffe5c
     7f4:	00656475 	rsbeq	r6, r5, r5, ror r4
     7f8:	6573552f 	ldrbvs	r5, [r3, #-1327]!	; 0xfffffad1
     7fc:	6d2f7372 	stcvs	3, cr7, [pc, #-456]!	; 63c <__code_start__-0x79c4>
     800:	73656c69 	cmnvc	r5, #26880	; 0x6900
     804:	756f532f 	strbvc	r5, [pc, #-815]!	; 4dd <__code_start__-0x7b23>
     808:	2f656372 	svccs	0x00656372
     80c:	34327363 	ldrtcc	r7, [r2], #-867	; 0xfffffc9d
     810:	2f786c30 	svccs	0x00786c30
     814:	7062696c 	rsbvc	r6, r2, ip, ror #18
     818:	6e692f69 	cdpvs	15, 6, cr2, cr9, cr9, {3}
     81c:	64756c63 	ldrbtvs	r6, [r5], #-3171	; 0xfffff39d
     820:	63000065 	movwvs	r0, #101	; 0x65
     824:	63672d6b 	cmnvs	r7, #6848	; 0x1ac0
     828:	0000632e 	andeq	r6, r0, lr, lsr #6
     82c:	72730000 	rsbsvc	r0, r3, #0, 0
     830:	6f6c2d63 	svcvs	0x006c2d63
     834:	00682e63 	rsbeq	r2, r8, r3, ror #28
     838:	73000000 	movwvc	r0, #0
     83c:	6e696474 	mcrvs	4, 3, r6, cr9, cr4, {3}
     840:	63672d74 	cmnvs	r7, #116, 26	; 0x1d00
     844:	00682e63 	rsbeq	r2, r8, r3, ror #28
     848:	72000001 	andvc	r0, r0, #1, 0
     84c:	682e6970 	stmdavs	lr!, {r4, r5, r6, r8, fp, sp, lr}
     850:	00000200 	andeq	r0, r0, r0, lsl #4
     854:	6c616b63 			; <UNDEFINED> instruction: 0x6c616b63
     858:	2e636f6c 	cdpcs	15, 6, cr6, cr3, cr12, {3}
     85c:	00000068 	andeq	r0, r0, r8, rrx
     860:	01050000 	mrseq	r0, (UNDEF: 5)
     864:	d4020500 	strle	r0, [r2], #-1280	; 0xfffffb00
     868:	03000087 	movweq	r0, #135	; 0x87
     86c:	0106012b 	tsteq	r6, fp, lsr #2
     870:	68060505 	stmdavs	r6, {r0, r2, r8, sl}
     874:	01060b05 	tsteq	r6, r5, lsl #22
     878:	054a0805 	strbeq	r0, [sl, #-2053]	; 0xfffff7fb
     87c:	0402001d 	streq	r0, [r2], #-29	; 0xffffffe3
     880:	18054a01 	stmdane	r5, {r0, r9, fp, lr}
     884:	01040200 	mrseq	r0, R12_usr
     888:	4d0c054a 	cfstr32mi	mvfx0, [ip, #-296]	; 0xfffffed8
     88c:	2c10052e 	cfldr32cs	mvfx0, [r0], {46}	; 0x2e
     890:	01052e2e 	tsteq	r5, lr, lsr #28
     894:	0b030631 	bleq	c2160 <__bss_end__+0xb6f38>
     898:	0501069e 	streq	r0, [r1, #-1694]	; 0xfffff962
     89c:	14830605 	strne	r0, [r3], #1541	; 0x605
     8a0:	01060a05 	tsteq	r6, r5, lsl #20
     8a4:	052e0805 	streq	r0, [lr, #-2053]!	; 0xfffff7fb
     8a8:	054c0605 	strbeq	r0, [ip, #-1541]	; 0xfffff9fb
     8ac:	0501060c 	streq	r0, [r1, #-1548]	; 0xfffff9f4
     8b0:	01056510 	tsteq	r5, r0, lsl r5
     8b4:	0e030630 	mcreq	6, 0, r0, cr3, cr0, {1}
     8b8:	05010682 	streq	r0, [r1, #-1666]	; 0xfffff97e
     8bc:	01830605 	orreq	r0, r3, r5, lsl #12
     8c0:	02040200 	andeq	r0, r4, #0, 4
     8c4:	04020082 	streq	r0, [r2], #-130	; 0xffffff7e
     8c8:	02000102 	andeq	r0, r0, #-2147483648	; 0x80000000
     8cc:	00150204 	andseq	r0, r5, r4, lsl #4
     8d0:	01020402 	tsteq	r2, r2, lsl #8
     8d4:	02040200 	andeq	r0, r4, #0, 4
     8d8:	0402004a 	streq	r0, [r2], #-74	; 0xffffffb6
     8dc:	02000102 	andeq	r0, r0, #-2147483648	; 0x80000000
     8e0:	00130204 	andseq	r0, r3, r4, lsl #4
     8e4:	01020402 	tsteq	r2, r2, lsl #8
     8e8:	01040200 	mrseq	r0, R12_usr
     8ec:	0402004a 	streq	r0, [r2], #-74	; 0xffffffb6
     8f0:	02000101 	andeq	r0, r0, #1073741824	; 0x40000000
     8f4:	9e060104 	adflss	f0, f6, f4
     8f8:	01040200 	mrseq	r0, R12_usr
     8fc:	0402002e 	streq	r0, [r2], #-46	; 0xffffffd2
     900:	002e0601 	eoreq	r0, lr, r1, lsl #12
     904:	2a010402 	bcs	41914 <__bss_end__+0x366ec>
     908:	01040200 	mrseq	r0, R12_usr
     90c:	04020001 	streq	r0, [r2], #-1
     910:	009e0601 	addseq	r0, lr, r1, lsl #12
     914:	2e010402 	cdpcs	4, 0, cr0, cr1, cr2, {0}
     918:	01040200 	mrseq	r0, R12_usr
     91c:	02002e06 	andeq	r2, r0, #96	; 0x60
     920:	00310104 	eorseq	r0, r1, r4, lsl #2
     924:	01010402 	tsteq	r1, r2, lsl #8
     928:	01040200 	mrseq	r0, R12_usr
     92c:	02009e06 	andeq	r9, r0, #96	; 0x60
     930:	002e0104 	eoreq	r0, lr, r4, lsl #2
     934:	06010402 	streq	r0, [r1], -r2, lsl #8
     938:	0619052e 	ldreq	r0, [r9], -lr, lsr #10
     93c:	002e0d03 	eoreq	r0, lr, r3, lsl #26
     940:	2e040402 	cdpcs	4, 0, cr0, cr4, cr2, {0}
     944:	02001105 	andeq	r1, r0, #1073741825	; 0x40000001
     948:	32060404 	andcc	r0, r6, #4, 8	; 0x4000000
     94c:	02001405 	andeq	r1, r0, #83886080	; 0x5000000
     950:	01060404 	tsteq	r6, r4, lsl #8
     954:	02000d05 	andeq	r0, r0, #320	; 0x140
     958:	52060204 	andpl	r0, r6, #4, 4	; 0x40000000
     95c:	02002305 	andeq	r2, r0, #335544320	; 0x14000000
     960:	6a030204 	bvs	c1178 <__bss_end__+0xb5f50>
     964:	00240501 	eoreq	r0, r4, r1, lsl #10
     968:	06020402 	streq	r0, [r2], -r2, lsl #8
     96c:	001b0501 	andseq	r0, fp, r1, lsl #10
     970:	06010402 	streq	r0, [r1], -r2, lsl #8
     974:	0005052e 	andeq	r0, r5, lr, lsr #10
     978:	06010402 	streq	r0, [r1], -r2, lsl #8
     97c:	06090501 	streq	r0, [r9], -r1, lsl #10
     980:	0614054c 	ldreq	r0, [r4], -ip, asr #10
     984:	06090501 	streq	r0, [r9], -r1, lsl #10
     988:	060c054b 	streq	r0, [ip], -fp, asr #10
     98c:	0d052e01 	stceq	14, cr2, [r5, #-4]
     990:	29053006 	stmdbcs	r5, {r1, r2, ip, sp}
     994:	0d050106 	stfeqs	f0, [r5, #-24]	; 0xffffffe8
     998:	16052f06 	strne	r2, [r5], -r6, lsl #30
     99c:	0d050106 	stfeqs	f0, [r5, #-24]	; 0xffffffe8
     9a0:	10053006 	andne	r3, r5, r6
     9a4:	11050106 	tstne	r5, r6, lsl #2
     9a8:	1c054c06 	stcne	12, cr4, [r5], {6}
     9ac:	19050106 	stmdbne	r5, {r1, r2, r8}
     9b0:	1505662e 	strne	r6, [r5, #-1582]	; 0xfffff9d2
     9b4:	4d053406 	cfstrsmi	mvf3, [r5, #-24]	; 0xffffffe8
     9b8:	15050106 	strne	r0, [r5, #-262]	; 0xfffffefa
     9bc:	2e2e662e 	cfmadda32cs	mvax1, mvax6, mvfx14, mvfx14
     9c0:	09030105 	stmdbeq	r3, {r0, r2, r8}
     9c4:	03064a01 	movweq	r4, #27137	; 0x6a01
     9c8:	053c0809 	ldreq	r0, [ip, #-2057]!	; 0xfffff7f7
     9cc:	0a058605 	beq	1621e8 <__bss_end__+0x156fc0>
     9d0:	06150501 	ldreq	r0, [r5], -r1, lsl #10
     9d4:	00250501 	eoreq	r0, r5, r1, lsl #10
     9d8:	06010402 	streq	r0, [r1], -r2, lsl #8
     9dc:	0005052e 	andeq	r0, r5, lr, lsr #10
     9e0:	06010402 	streq	r0, [r1], -r2, lsl #8
     9e4:	00090501 	andeq	r0, r9, r1, lsl #10
     9e8:	06030402 	streq	r0, [r3], -r2, lsl #8
     9ec:	0032054c 	eorseq	r0, r2, ip, asr #10
     9f0:	06030402 	streq	r0, [r3], -r2, lsl #8
     9f4:	00210501 	eoreq	r0, r1, r1, lsl #10
     9f8:	4a030402 	bmi	c1a08 <__bss_end__+0xb67e0>
     9fc:	02001105 	andeq	r1, r0, #1073741825	; 0x40000001
     a00:	052e0304 	streq	r0, [lr, #-772]!	; 0xfffffcfc
     a04:	04020028 	streq	r0, [r2], #-40	; 0xffffffd8
     a08:	052c0603 	streq	r0, [ip, #-1539]!	; 0xfffff9fd
     a0c:	0402002c 	streq	r0, [r2], #-44	; 0xffffffd4
     a10:	00010603 	andeq	r0, r1, r3, lsl #12
     a14:	2e030402 	cdpcs	4, 0, cr0, cr3, cr2, {0}
     a18:	03040200 	movweq	r0, #16896	; 0x4200
     a1c:	0605052e 	streq	r0, [r5], -lr, lsr #10
     a20:	2e061319 	mcrcs	3, 0, r1, cr6, cr9, {0}
     a24:	0d053006 	stceq	0, cr3, [r5, #-24]	; 0xffffffe8
     a28:	05050106 	streq	r0, [r5, #-262]	; 0xfffffefa
     a2c:	0d054b06 	vstreq	d4, [r5, #-24]	; 0xffffffe8
     a30:	05050106 	streq	r0, [r5, #-262]	; 0xfffffefa
     a34:	0d052f06 	stceq	15, cr2, [r5, #-24]	; 0xffffffe8
     a38:	05050106 	streq	r0, [r5, #-262]	; 0xfffffefa
     a3c:	0d052f06 	stceq	15, cr2, [r5, #-24]	; 0xffffffe8
     a40:	05050106 	streq	r0, [r5, #-262]	; 0xfffffefa
     a44:	136a3506 	cmnne	sl, #25165824	; 0x1800000
     a48:	68136983 	ldmdavs	r3, {r0, r1, r7, r8, fp, sp, lr}
     a4c:	06010513 			; <UNDEFINED> instruction: 0x06010513
     a50:	5e080667 	cfmadd32pl	mvax3, mvfx0, mvfx8, mvfx7
     a54:	05050106 	streq	r0, [r5, #-262]	; 0xfffffefa
     a58:	06138306 	ldreq	r8, [r3], -r6, lsl #6
     a5c:	4c2f062e 	stcmi	6, cr0, [pc], #-184	; 9ac <__code_start__-0x7654>
     a60:	010a052f 	tsteq	sl, pc, lsr #10
     a64:	01061505 	tsteq	r6, r5, lsl #10
     a68:	0d27054a 	cfstr32eq	mvfx0, [r7, #-296]!	; 0xfffffed8
     a6c:	052e1b05 	streq	r1, [lr, #-2821]!	; 0xfffff4fb
     a70:	05052e0e 	streq	r2, [r5, #-3598]	; 0xfffff1f2
     a74:	060d0533 			; <UNDEFINED> instruction: 0x060d0533
     a78:	052e0903 	streq	r0, [lr, #-2307]!	; 0xfffff6fd
     a7c:	05010613 	streq	r0, [r1, #-1555]	; 0xfffff9ed
     a80:	062f060d 	strteq	r0, [pc], -sp, lsl #12
     a84:	00280566 	eoreq	r0, r8, r6, ror #10
     a88:	06020402 	streq	r0, [r2], -r2, lsl #8
     a8c:	052e7603 	streq	r7, [lr, #-1539]!	; 0xfffff9fd
     a90:	0402002c 	streq	r0, [r2], #-44	; 0xffffffd4
     a94:	05010602 	streq	r0, [r1, #-1538]	; 0xfffff9fe
     a98:	04020025 	streq	r0, [r2], #-37	; 0xffffffdb
     a9c:	05660601 	strbeq	r0, [r6, #-1537]!	; 0xfffff9ff
     aa0:	04020005 	streq	r0, [r2], #-5
     aa4:	05010601 	streq	r0, [r1, #-1537]	; 0xfffff9ff
     aa8:	054c0609 	strbeq	r0, [ip, #-1545]	; 0xfffff9f7
     aac:	0501060e 	streq	r0, [r1, #-1550]	; 0xfffff9f2
     ab0:	09052e0c 	stmdbeq	r5, {r2, r3, r9, sl, fp, sp}
     ab4:	10054e06 	andne	r4, r5, r6, lsl #28
     ab8:	09050106 	stmdbeq	r5, {r1, r2, r8}
     abc:	0e052f06 	cdpeq	15, 0, cr2, cr5, cr6, {0}
     ac0:	0c050106 	stfeqs	f0, [r5], {6}
     ac4:	060e052e 	streq	r0, [lr], -lr, lsr #10
     ac8:	0611054f 	ldreq	r0, [r1], -pc, asr #10
     acc:	060d0501 	streq	r0, [sp], -r1, lsl #10
     ad0:	0619054c 	ldreq	r0, [r9], -ip, asr #10
     ad4:	060d0501 	streq	r0, [sp], -r1, lsl #10
     ad8:	2e66062f 	cdpcs	6, 6, cr0, cr6, cr15, {1}
     adc:	0605052e 	streq	r0, [r5], -lr, lsr #10
     ae0:	4a060116 	bmi	180f40 <__bss_end__+0x175d18>
     ae4:	05132e06 	ldreq	r2, [r3, #-3590]	; 0xfffff1fa
     ae8:	05010608 	streq	r0, [r1, #-1544]	; 0xfffff9f8
     aec:	014b0609 	cmpeq	fp, r9, lsl #12
     af0:	0402004a 	streq	r0, [r2], #-74	; 0xffffffb6
     af4:	05051401 	streq	r1, [r5, #-1025]	; 0xfffffbff
     af8:	01040200 	mrseq	r0, R12_usr
     afc:	04020014 	streq	r0, [r2], #-20	; 0xffffffec
     b00:	08054b01 	stmdaeq	r5, {r0, r8, r9, fp, lr}
     b04:	01040200 	mrseq	r0, R12_usr
     b08:	09050106 	stmdbeq	r5, {r1, r2, r8}
     b0c:	17053006 	strne	r3, [r5, -r6]
     b10:	01050106 	tsteq	r5, r6, lsl #2
     b14:	06090534 			; <UNDEFINED> instruction: 0x06090534
     b18:	014a7503 	cmpeq	sl, r3, lsl #10
     b1c:	35030105 	strcc	r0, [r3, #-261]	; 0xfffffefb
     b20:	05012202 	streq	r2, [r1, #-514]	; 0xfffffdfe
     b24:	4b138305 	blmi	4e1740 <__bss_end__+0x4d6518>
     b28:	0a052f4c 	beq	14c860 <__bss_end__+0x141638>
     b2c:	06150501 	ldreq	r0, [r5], -r1, lsl #10
     b30:	27054a01 	strcs	r4, [r5, -r1, lsl #20]
     b34:	2e1b050d 	cfmul32cs	mvfx0, mvfx11, mvfx13
     b38:	052e0e05 	streq	r0, [lr, #-3589]!	; 0xfffff1fb
     b3c:	0d053305 	stceq	3, cr3, [r5, #-20]	; 0xffffffec
     b40:	13053306 	movwne	r3, #21254	; 0x5306
     b44:	0d050106 	stfeqs	f0, [r5, #-24]	; 0xffffffe8
     b48:	1e052f06 	cdpne	15, 0, cr2, cr5, cr6, {0}
     b4c:	1a050106 	bne	140f6c <__bss_end__+0x135d44>
     b50:	060d052e 	streq	r0, [sp], -lr, lsr #10
     b54:	0502042f 	streq	r0, [r2, #-1071]	; 0xfffffbd1
     b58:	7e88030b 	cdpvc	3, 8, cr0, cr8, cr11, {0}
     b5c:	1305052e 	movwne	r0, #21806	; 0x552e
     b60:	01060c05 	tsteq	r6, r5, lsl #24
     b64:	050104ba 	streq	r0, [r1, #-1210]	; 0xfffffb46
     b68:	01f7030d 	mvnseq	r0, sp, lsl #6
     b6c:	2f066601 	svccs	0x00066601
     b70:	02002805 	andeq	r2, r0, #327680	; 0x50000
     b74:	78030204 	stmdavc	r3, {r2, r9}
     b78:	002c0566 	eoreq	r0, ip, r6, ror #10
     b7c:	06020402 	streq	r0, [r2], -r2, lsl #8
     b80:	00250501 	eoreq	r0, r5, r1, lsl #10
     b84:	06010402 	streq	r0, [r1], -r2, lsl #8
     b88:	00050566 	andeq	r0, r5, r6, ror #10
     b8c:	06010402 	streq	r0, [r1], -r2, lsl #8
     b90:	06090501 	streq	r0, [r9], -r1, lsl #10
     b94:	0610054c 	ldreq	r0, [r0], -ip, asr #10
     b98:	06090501 	streq	r0, [r9], -r1, lsl #10
     b9c:	060e052f 	streq	r0, [lr], -pc, lsr #10
     ba0:	2e0c0501 	cfsh32cs	mvfx0, mvfx12, #1
     ba4:	02001e05 	andeq	r1, r0, #80	; 0x50
     ba8:	054a0104 	strbeq	r0, [sl, #-260]	; 0xfffffefc
     bac:	0402001a 	streq	r0, [r2], #-26	; 0xffffffe6
     bb0:	02002e01 	andeq	r2, r0, #1, 28
     bb4:	05660104 	strbeq	r0, [r6, #-260]!	; 0xfffffefc
     bb8:	09030605 	stmdbeq	r3, {r0, r2, r9, sl}
     bbc:	82060101 	andhi	r0, r6, #1073741824	; 0x40000000
     bc0:	05142e06 	ldreq	r2, [r4, #-3590]	; 0xfffff1fa
     bc4:	66130601 	ldrvs	r0, [r3], -r1, lsl #12
     bc8:	7e870306 	cdpvc	3, 8, cr0, cr7, cr6, {0}
     bcc:	01063c08 	tsteq	r6, r8, lsl #24
     bd0:	83060505 	movwhi	r0, #25861	; 0x6505
     bd4:	02000114 	andeq	r0, r0, #5
     bd8:	004a0204 	subeq	r0, sl, r4, lsl #4
     bdc:	01020402 	tsteq	r2, r2, lsl #8
     be0:	02040200 	andeq	r0, r4, #0, 4
     be4:	00090513 	andeq	r0, r9, r3, lsl r5
     be8:	06020402 	streq	r0, [r2], -r2, lsl #8
     bec:	00080501 	andeq	r0, r8, r1, lsl #10
     bf0:	4a020402 	bmi	81c00 <__bss_end__+0x769d8>
     bf4:	4b060905 	blmi	183010 <__bss_end__+0x177de8>
     bf8:	14051315 	strne	r1, [r5], #-789	; 0xfffffceb
     bfc:	054a0106 	strbeq	r0, [sl, #-262]	; 0xfffffefa
     c00:	052f0609 	streq	r0, [pc, #-1545]!	; 5ff <__code_start__-0x7a01>
     c04:	05010612 	streq	r0, [r1, #-1554]	; 0xfffff9ee
     c08:	4b4b0609 	blmi	12c2434 <__bss_end__+0x12b720c>
     c0c:	01061005 	tsteq	r6, r5
     c10:	4c060505 	cfstr32mi	mvfx0, [r6], {5}
     c14:	01060c05 	tsteq	r6, r5, lsl #24
     c18:	054b0105 	strbeq	r0, [fp, #-261]	; 0xfffffefb
     c1c:	04020005 	streq	r0, [r2], #-5
     c20:	74030601 	strvc	r0, [r3], #-1537	; 0xfffff9ff
     c24:	0402004a 	streq	r0, [r2], #-74	; 0xffffffb6
     c28:	02000101 	andeq	r0, r0, #1073741824	; 0x40000000
     c2c:	ba060104 	blt	181044 <__bss_end__+0x175e1c>
     c30:	01040200 	mrseq	r0, R12_usr
     c34:	09052e06 	stmdbeq	r5, {r1, r2, r9, sl, fp, sp}
     c38:	82060130 	andhi	r0, r6, #12
     c3c:	01052e06 	tsteq	r5, r6, lsl #28
     c40:	0801ba03 	stmdaeq	r1, {r0, r1, r9, fp, ip, sp, pc}
     c44:	05010674 	streq	r0, [r1, #-1652]	; 0xfffff98c
     c48:	05680605 	strbeq	r0, [r8, #-1541]!	; 0xfffff9fb
     c4c:	0501060c 	streq	r0, [r1, #-1548]	; 0xfffff9f4
     c50:	be062f01 	cdplt	15, 0, cr2, cr6, cr1, {0}
     c54:	136a0505 	cmnne	sl, #20971520	; 0x1400000
     c58:	01060905 	tsteq	r6, r5, lsl #18
     c5c:	054a0805 	strbeq	r0, [sl, #-2053]	; 0xfffff7fb
     c60:	144b0609 	strbne	r0, [fp], #-1545	; 0xfffff9f7
     c64:	05054a01 	streq	r4, [r5, #-2561]	; 0xfffff5ff
     c68:	06010513 			; <UNDEFINED> instruction: 0x06010513
     c6c:	06090513 			; <UNDEFINED> instruction: 0x06090513
     c70:	059e012a 	ldreq	r0, [lr, #298]	; 0x12a
     c74:	05600801 	strbeq	r0, [r0, #-2049]!	; 0xfffff7ff
     c78:	05136a05 	ldreq	r6, [r3, #-2565]	; 0xfffff5fb
     c7c:	05010617 	streq	r0, [r1, #-1559]	; 0xfffff9e9
     c80:	054b0605 	strbeq	r0, [fp, #-1541]	; 0xfffff9fb
     c84:	05010608 	streq	r0, [r1, #-1544]	; 0xfffff9f8
     c88:	144b0609 	strbne	r0, [fp], #-1545	; 0xfffff9f7
     c8c:	064a0601 	strbeq	r0, [sl], -r1, lsl #12
     c90:	1305052e 	movwne	r0, #21806	; 0x552e
     c94:	06010513 			; <UNDEFINED> instruction: 0x06010513
     c98:	06090513 			; <UNDEFINED> instruction: 0x06090513
     c9c:	059e0145 	ldreq	r0, [lr, #325]	; 0x145
     ca0:	f2210301 	vcgt.s32	d0, d1, d1
     ca4:	2f670505 	svccs	0x00670505
     ca8:	01061705 	tsteq	r6, r5, lsl #14
     cac:	32060505 	andcc	r0, r6, #20971520	; 0x1400000
     cb0:	13060105 	movwne	r0, #24837	; 0x6105
     cb4:	0505bd06 	streq	fp, [r5, #-3334]	; 0xfffff2fa
     cb8:	029e0167 	addseq	r0, lr, #-1073741799	; 0xc0000019
     cbc:	0101000a 	tsteq	r1, sl
     cc0:	00000136 	andeq	r0, r0, r6, lsr r1
     cc4:	005b0003 	subseq	r0, fp, r3
     cc8:	01020000 	mrseq	r0, (UNDEF: 2)
     ccc:	000d0efb 	strdeq	r0, [sp], -fp
     cd0:	01010101 	tsteq	r1, r1, lsl #2
     cd4:	01000000 	mrseq	r0, (UNDEF: 0)
     cd8:	2e010000 	cdpcs	0, 0, cr0, cr1, cr0, {0}
     cdc:	6372732f 	cmnvs	r2, #-1140850688	; 0xbc000000
     ce0:	73552f00 	cmpvc	r5, #0, 30
     ce4:	2f737265 	svccs	0x00737265
     ce8:	656c696d 	strbvs	r6, [ip, #-2413]!	; 0xfffff693
     cec:	6f532f73 	svcvs	0x00532f73
     cf0:	65637275 	strbvs	r7, [r3, #-629]!	; 0xfffffd8b
     cf4:	3273632f 	rsbscc	r6, r3, #-1140850688	; 0xbc000000
     cf8:	786c3034 	stmdavc	ip!, {r2, r4, r5, ip, sp}^
     cfc:	62696c2f 	rsbvs	r6, r9, #12032	; 0x2f00
     d00:	692f6970 	stmdbvs	pc!, {r4, r5, r6, r8, fp, sp, lr}	; <UNPREDICTABLE>
     d04:	756c636e 	strbvc	r6, [ip, #-878]!	; 0xfffffc92
     d08:	00006564 	andeq	r6, r0, r4, ror #10
     d0c:	6b636162 	blvs	18d929c <__bss_end__+0x18ce074>
     d10:	63617274 	cmnvs	r1, #116, 4	; 0x40000007
     d14:	00632e65 	rsbeq	r2, r3, r5, ror #28
     d18:	72000001 	andvc	r0, r0, #1, 0
     d1c:	682e6970 	stmdavs	lr!, {r4, r5, r6, r8, fp, sp, lr}
     d20:	00000200 	andeq	r0, r0, r0, lsl #4
     d24:	00110500 	andseq	r0, r1, r0, lsl #10
     d28:	8e780205 	cdphi	2, 7, cr0, cr8, cr5, {0}
     d2c:	1c030000 	stcne	0, cr0, [r3], {-0}
     d30:	13050501 	movwne	r0, #21761	; 0x5501
     d34:	06110513 			; <UNDEFINED> instruction: 0x06110513
     d38:	30050510 	andcc	r0, r5, r0, lsl r5
     d3c:	0a053006 	beq	14cd5c <__bss_end__+0x141b34>
     d40:	01150501 	tsteq	r5, r1, lsl #10
     d44:	01060505 	tsteq	r6, r5, lsl #10
     d48:	054a0e05 	strbeq	r0, [sl, #-3589]	; 0xfffff1fb
     d4c:	2e270310 	mcrcs	3, 1, r0, cr7, cr0, {0}
     d50:	5b030905 	blpl	c316c <__bss_end__+0xb7f44>
     d54:	2f054a2e 	svccs	0x00054a2e
     d58:	02040200 	andeq	r0, r4, #0, 4
     d5c:	00150510 	andseq	r0, r5, r0, lsl r5
     d60:	06020402 	streq	r0, [r2], -r2, lsl #8
     d64:	0005052e 	andeq	r0, r5, lr, lsr #10
     d68:	06020402 	streq	r0, [r2], -r2, lsl #8
     d6c:	06090501 	streq	r0, [r9], -r1, lsl #10
     d70:	0123034b 			; <UNDEFINED> instruction: 0x0123034b
     d74:	03061705 	movweq	r1, #26373	; 0x6705
     d78:	0905015d 	stmdbeq	r5, {r0, r2, r3, r4, r6, r8}
     d7c:	030e052f 	movweq	r0, #58671	; 0xe52f
     d80:	09052e20 	stmdbeq	r5, {r5, r9, sl, fp, sp}
     d84:	12053106 	andne	r3, r5, #-2147483647	; 0x80000001
     d88:	015c0306 	cmpeq	ip, r6, lsl #6
     d8c:	2f060905 	svccs	0x00060905
     d90:	1f030d05 	svcne	0x00030d05
     d94:	13050501 	movwne	r0, #21761	; 0x5501
     d98:	06080513 			; <UNDEFINED> instruction: 0x06080513
     d9c:	2d310501 	cfldr32cs	mvfx0, [r1, #-4]!
     da0:	05301205 	ldreq	r1, [r0, #-517]!	; 0xfffffdfb
     da4:	052e2f31 	streq	r2, [lr, #-3889]!	; 0xfffff0cf
     da8:	052e1410 	streq	r1, [lr, #-1040]!	; 0xfffffbf0
     dac:	015b0309 	cmpeq	fp, r9, lsl #6
     db0:	2e054b06 	vmlacs.f64	d4, d5, d6
     db4:	061f050f 	ldreq	r0, [pc], -pc, lsl #10
     db8:	06090515 			; <UNDEFINED> instruction: 0x06090515
     dbc:	060c052f 	streq	r0, [ip], -pc, lsr #10
     dc0:	50010501 	andpl	r0, r1, r1, lsl #10
     dc4:	05490c05 	strbeq	r0, [r9, #-3077]	; 0xfffff3fb
     dc8:	2d052f01 	stccs	15, cr2, [r5, #-4]
     dcc:	82170306 	andshi	r0, r7, #402653184	; 0x18000000
     dd0:	05130505 	ldreq	r0, [r3, #-1285]	; 0xfffffafb
     dd4:	0501060e 	streq	r0, [r1, #-1550]	; 0xfffff9f2
     dd8:	052f0605 	streq	r0, [pc, #-1541]!	; 7db <__code_start__-0x7825>
     ddc:	05110631 	ldreq	r0, [r1, #-1585]	; 0xfffff9cf
     de0:	09052f08 	stmdbeq	r5, {r3, r8, r9, sl, fp, sp}
     de4:	05132f06 	ldreq	r2, [r3, #-3846]	; 0xfffff0fa
     de8:	05110612 	ldreq	r0, [r1, #-1554]	; 0xfffff9ee
     dec:	052e2f31 	streq	r2, [lr, #-3889]!	; 0xfffff0cf
     df0:	01051410 	tsteq	r5, r0, lsl r4
     df4:	00040230 	andeq	r0, r4, r0, lsr r2
     df8:	01210101 			; <UNDEFINED> instruction: 0x01210101
     dfc:	00030000 	andeq	r0, r3, r0
     e00:	000000be 	strheq	r0, [r0], -lr
     e04:	0efb0102 	cdpeq	1, 15, cr0, cr11, cr2, {0}
     e08:	0101000d 	tsteq	r1, sp
     e0c:	00000101 	andeq	r0, r0, r1, lsl #2
     e10:	00000100 	andeq	r0, r0, r0, lsl #2
     e14:	6c2f2e01 	stcvs	14, cr2, [pc], #-4	; e18 <__code_start__-0x71e8>
     e18:	00636269 	rsbeq	r6, r3, r9, ror #4
     e1c:	6573552f 	ldrbvs	r5, [r3, #-1327]!	; 0xfffffad1
     e20:	6d2f7372 	stcvs	3, cr7, [pc, #-456]!	; c60 <__code_start__-0x73a0>
     e24:	73656c69 	cmnvc	r5, #26880	; 0x6900
     e28:	756f532f 	strbvc	r5, [pc, #-815]!	; b01 <__code_start__-0x74ff>
     e2c:	2f656372 	svccs	0x00656372
     e30:	34327363 	ldrtcc	r7, [r2], #-867	; 0xfffffc9d
     e34:	2f786c30 	svccs	0x00786c30
     e38:	7062696c 	rsbvc	r6, r2, ip, ror #18
     e3c:	6e692f69 	cdpvs	15, 6, cr2, cr9, cr9, {3}
     e40:	64756c63 	ldrbtvs	r6, [r5], #-3171	; 0xfffff39d
     e44:	6f2f0065 	svcvs	0x002f0065
     e48:	682f7470 	stmdavs	pc!, {r4, r5, r6, sl, ip, sp, lr}	; <UNPREDICTABLE>
     e4c:	62656d6f 	rsbvs	r6, r5, #7104	; 0x1bc0
     e50:	2f776572 	svccs	0x00776572
     e54:	6c6c6543 	cfstr64vs	mvdx6, [ip], #-268	; 0xfffffef4
     e58:	612f7261 			; <UNDEFINED> instruction: 0x612f7261
     e5c:	6e2d6d72 	mcrvs	13, 1, r6, cr13, cr2, {3}
     e60:	2d656e6f 	stclcs	14, cr6, [r5, #-444]!	; 0xfffffe44
     e64:	69626165 	stmdbvs	r2!, {r0, r2, r5, r6, r8, sp, lr}^
     e68:	392f392d 	stmdbcc	pc!, {r0, r2, r3, r5, r8, fp, ip, sp}	; <UNPREDICTABLE>
     e6c:	3130322d 	teqcc	r0, sp, lsr #4
     e70:	2d347139 	ldfcss	f7, [r4, #-228]!	; 0xffffff1c
     e74:	30317363 	eorscc	r7, r1, r3, ror #6
     e78:	6c2f6537 	cfstr32vs	mvfx6, [pc], #-220	; da4 <__code_start__-0x725c>
     e7c:	672f6269 	strvs	r6, [pc, -r9, ror #4]!
     e80:	612f6363 			; <UNDEFINED> instruction: 0x612f6363
     e84:	6e2d6d72 	mcrvs	13, 1, r6, cr13, cr2, {3}
     e88:	2d656e6f 	stclcs	14, cr6, [r5, #-444]!	; 0xfffffe44
     e8c:	69626165 	stmdbvs	r2!, {r0, r2, r5, r6, r8, sp, lr}^
     e90:	322e392f 	eorcc	r3, lr, #770048	; 0xbc000
     e94:	692f312e 	stmdbvs	pc!, {r1, r2, r3, r5, r8, ip, sp}	; <UNPREDICTABLE>
     e98:	756c636e 	strbvc	r6, [ip, #-878]!	; 0xfffffc92
     e9c:	00006564 	andeq	r6, r0, r4, ror #10
     ea0:	736d656d 	cmnvc	sp, #457179136	; 0x1b400000
     ea4:	632e7465 			; <UNDEFINED> instruction: 0x632e7465
     ea8:	00000100 	andeq	r0, r0, r0, lsl #2
     eac:	2e697072 	mcrcs	0, 3, r7, cr9, cr2, {3}
     eb0:	00020068 	andeq	r0, r2, r8, rrx
     eb4:	64747300 	ldrbtvs	r7, [r4], #-768	; 0xfffffd00
     eb8:	2e666564 	cdpcs	5, 6, cr6, cr6, cr4, {3}
     ebc:	00030068 	andeq	r0, r3, r8, rrx
     ec0:	29050000 	stmdbcs	r5, {}	; <UNPREDICTABLE>
     ec4:	18020500 	stmdane	r2, {r8, sl}
     ec8:	1500008f 	strne	r0, [r0, #-143]	; 0xffffff71
     ecc:	05130505 	ldreq	r0, [r3, #-1285]	; 0xfffffafb
     ed0:	05110629 	ldreq	r0, [r1, #-1577]	; 0xfffff9d7
     ed4:	05052f14 	streq	r2, [r5, #-3860]	; 0xfffff0ec
     ed8:	0a053006 	beq	14cef8 <__bss_end__+0x141cd0>
     edc:	059e0601 	ldreq	r0, [lr, #1537]	; 0x601
     ee0:	05d70609 	ldrbeq	r0, [r7, #1545]	; 0x609
     ee4:	0501060e 	streq	r0, [r1, #-1550]	; 0xfffff9f2
     ee8:	052d060a 	streq	r0, [sp, #-1546]!	; 0xfffff9f6
     eec:	0e05bb09 	vmlaeq.f64	d11, d5, d9
     ef0:	052e0106 	streq	r0, [lr, #-262]!	; 0xfffffefa
     ef4:	052d060a 	streq	r0, [sp, #-1546]!	; 0xfffff9f6
     ef8:	0b054b09 	bleq	153b24 <__bss_end__+0x1488fc>
     efc:	0a050106 	beq	14131c <__bss_end__+0x1360f4>
     f00:	2f0e052d 	svccs	0x000e052d
     f04:	2d060a05 	vstrcs	s0, [r6, #-20]	; 0xffffffec
     f08:	13060e05 	movwne	r0, #28165	; 0x6e05
     f0c:	2e060905 	vmlacs.f16	s0, s12, s10	; <UNPREDICTABLE>
     f10:	05110a05 	ldreq	r0, [r1, #-2565]	; 0xfffff5fb
     f14:	01051405 	tsteq	r5, r5, lsl #8
     f18:	02021306 	andeq	r1, r2, #402653184	; 0x18000000
     f1c:	20010100 	andcs	r0, r1, r0, lsl #2
     f20:	03000001 	movweq	r0, #1
     f24:	0000db00 	andeq	sp, r0, r0, lsl #22
     f28:	fb010200 	blx	41732 <__bss_end__+0x3650a>
     f2c:	01000d0e 	tsteq	r0, lr, lsl #26
     f30:	00010101 	andeq	r0, r1, r1, lsl #2
     f34:	00010000 	andeq	r0, r1, r0
     f38:	2f2e0100 	svccs	0x002e0100
     f3c:	6362696c 	cmnvs	r2, #108, 18	; 0x1b0000
     f40:	706f2f00 	rsbvc	r2, pc, r0, lsl #30
     f44:	6f682f74 	svcvs	0x00682f74
     f48:	7262656d 	rsbvc	r6, r2, #457179136	; 0x1b400000
     f4c:	432f7765 			; <UNDEFINED> instruction: 0x432f7765
     f50:	616c6c65 	cmnvs	ip, r5, ror #24
     f54:	72612f72 	rsbvc	r2, r1, #456	; 0x1c8
     f58:	6f6e2d6d 	svcvs	0x006e2d6d
     f5c:	652d656e 	strvs	r6, [sp, #-1390]!	; 0xfffffa92
     f60:	2d696261 	sfmcs	f6, 2, [r9, #-388]!	; 0xfffffe7c
     f64:	2d392f39 	ldccs	15, cr2, [r9, #-228]!	; 0xffffff1c
     f68:	39313032 	ldmdbcc	r1!, {r1, r4, r5, ip, sp}
     f6c:	632d3471 			; <UNDEFINED> instruction: 0x632d3471
     f70:	37303173 			; <UNDEFINED> instruction: 0x37303173
     f74:	696c2f65 	stmdbvs	ip!, {r0, r2, r5, r6, r8, r9, sl, fp, sp}^
     f78:	63672f62 	cmnvs	r7, #392	; 0x188
     f7c:	72612f63 	rsbvc	r2, r1, #396	; 0x18c
     f80:	6f6e2d6d 	svcvs	0x006e2d6d
     f84:	652d656e 	strvs	r6, [sp, #-1390]!	; 0xfffffa92
     f88:	2f696261 	svccs	0x00696261
     f8c:	2e322e39 	mrccs	14, 1, r2, cr2, cr9, {1}
     f90:	6e692f31 	mcrvs	15, 3, r2, cr9, cr1, {1}
     f94:	64756c63 	ldrbtvs	r6, [r5], #-3171	; 0xfffff39d
     f98:	552f0065 	strpl	r0, [pc, #-101]!	; f3b <__code_start__-0x70c5>
     f9c:	73726573 	cmnvc	r2, #482344960	; 0x1cc00000
     fa0:	6c696d2f 	stclvs	13, cr6, [r9], #-188	; 0xffffff44
     fa4:	532f7365 			; <UNDEFINED> instruction: 0x532f7365
     fa8:	6372756f 	cmnvs	r2, #465567744	; 0x1bc00000
     fac:	73632f65 	cmnvc	r3, #404	; 0x194
     fb0:	6c303432 	cfldrsvs	mvf3, [r0], #-200	; 0xffffff38
     fb4:	696c2f78 	stmdbvs	ip!, {r3, r4, r5, r6, r8, r9, sl, fp, sp}^
     fb8:	2f697062 	svccs	0x00697062
     fbc:	6c636e69 	stclvs	14, cr6, [r3], #-420	; 0xfffffe5c
     fc0:	00656475 	rsbeq	r6, r5, r5, ror r4
     fc4:	69727000 	ldmdbvs	r2!, {ip, sp, lr}^
     fc8:	2e6b746e 	cdpcs	4, 6, cr7, cr11, cr14, {3}
     fcc:	00010063 	andeq	r0, r1, r3, rrx
     fd0:	64747300 	ldrbtvs	r7, [r4], #-768	; 0xfffffd00
     fd4:	2e677261 	cdpcs	2, 6, cr7, cr7, cr1, {3}
     fd8:	00020068 	andeq	r0, r2, r8, rrx
     fdc:	69707200 	ldmdbvs	r0!, {r9, ip, sp, lr}^
     fe0:	0300682e 	movweq	r6, #2094	; 0x82e
     fe4:	623c0000 	eorsvs	r0, ip, #0, 0
     fe8:	746c6975 	strbtvc	r6, [ip], #-2421	; 0xfffff68b
     fec:	3e6e692d 	vmulcc.f16	s13, s28, s27	; <UNPREDICTABLE>
     ff0:	00000000 	andeq	r0, r0, r0
     ff4:	702d6176 	eorvc	r6, sp, r6, ror r1
     ff8:	746e6972 	strbtvc	r6, [lr], #-2418	; 0xfffff68e
     ffc:	00682e6b 	rsbeq	r2, r8, fp, ror #28
    1000:	00000001 	andeq	r0, r0, r1
    1004:	05002205 	streq	r2, [r0, #-517]	; 0xfffffdfb
    1008:	008f9002 	addeq	r9, pc, r2
    100c:	05051700 	streq	r1, [r5, #-1792]	; 0xfffff900
    1010:	05141314 	ldreq	r1, [r4, #-788]	; 0xfffffcec
    1014:	050d0622 	streq	r0, [sp, #-1570]	; 0xfffff9de
    1018:	22055012 	andcs	r5, r5, #18, 0
    101c:	052e7a03 	streq	r7, [lr, #-2563]!	; 0xfffff5fd
    1020:	12053305 	andne	r3, r5, #335544320	; 0x14000000
    1024:	6505052f 	strvs	r0, [r5, #-1327]	; 0xfffffad1
    1028:	2f060905 	svccs	0x00060905
    102c:	01061205 	tsteq	r6, r5, lsl #4
    1030:	4b060505 	blmi	18244c <__bss_end__+0x177224>
    1034:	064a0616 			; <UNDEFINED> instruction: 0x064a0616
    1038:	06010550 			; <UNDEFINED> instruction: 0x06010550
    103c:	08026613 	stmdaeq	r2, {r0, r1, r4, r9, sl, sp, lr}
    1040:	a0010100 	andge	r0, r1, r0, lsl #2
    1044:	03000000 	movweq	r0, #0
    1048:	00005700 	andeq	r5, r0, r0, lsl #14
    104c:	fb010200 	blx	41856 <__bss_end__+0x3662e>
    1050:	01000d0e 	tsteq	r0, lr, lsl #26
    1054:	00010101 	andeq	r0, r1, r1, lsl #2
    1058:	00010000 	andeq	r0, r1, r0
    105c:	2f2e0100 	svccs	0x002e0100
    1060:	6362696c 	cmnvs	r2, #108, 18	; 0x1b0000
    1064:	73552f00 	cmpvc	r5, #0, 30
    1068:	2f737265 	svccs	0x00737265
    106c:	656c696d 	strbvs	r6, [ip, #-2413]!	; 0xfffff693
    1070:	6f532f73 	svcvs	0x00532f73
    1074:	65637275 	strbvs	r7, [r3, #-629]!	; 0xfffffd8b
    1078:	3273632f 	rsbscc	r6, r3, #-1140850688	; 0xbc000000
    107c:	786c3034 	stmdavc	ip!, {r2, r4, r5, ip, sp}^
    1080:	62696c2f 	rsbvs	r6, r9, #12032	; 0x2f00
    1084:	692f6970 	stmdbvs	pc!, {r4, r5, r6, r8, fp, sp, lr}	; <UNPREDICTABLE>
    1088:	756c636e 	strbvc	r6, [ip, #-878]!	; 0xfffffc92
    108c:	00006564 	andeq	r6, r0, r4, ror #10
    1090:	6b747570 	blvs	1d1e658 <__bss_end__+0x1d13430>
    1094:	0100632e 	tsteq	r0, lr, lsr #6
    1098:	70720000 	rsbsvc	r0, r2, r0
    109c:	00682e69 	rsbeq	r2, r8, r9, ror #28
    10a0:	00000002 	andeq	r0, r0, r2
    10a4:	05002205 	streq	r2, [r0, #-517]	; 0xfffffdfb
    10a8:	008fe802 	addeq	lr, pc, r2, lsl #16
    10ac:	05051500 	streq	r1, [r5, #-1280]	; 0xfffffb00
    10b0:	06220513 			; <UNDEFINED> instruction: 0x06220513
    10b4:	0b052e11 	bleq	14c900 <__bss_end__+0x1416d8>
    10b8:	05052f06 	streq	r2, [r5, #-3846]	; 0xfffff0fa
    10bc:	09052e06 	stmdbeq	r5, {r1, r2, r9, sl, fp, sp}
    10c0:	02040200 	andeq	r0, r4, #0, 4
    10c4:	0f056706 	svceq	0x00056706
    10c8:	02040200 	andeq	r0, r4, #0, 4
    10cc:	000b0549 	andeq	r0, fp, r9, asr #10
    10d0:	01020402 	tsteq	r2, r2, lsl #8
    10d4:	02000505 	andeq	r0, r0, #20971520	; 0x1400000
    10d8:	2e060204 	cdpcs	2, 0, cr0, cr6, cr4, {0}
    10dc:	01054e06 	tsteq	r5, r6, lsl #28
    10e0:	06021306 	streq	r1, [r2], -r6, lsl #6
    10e4:	fa010100 	blx	414ec <__bss_end__+0x362c4>
    10e8:	03000008 	movweq	r0, #8
    10ec:	0000f100 	andeq	pc, r0, r0, lsl #2
    10f0:	fb010200 	blx	418fa <__bss_end__+0x366d2>
    10f4:	01000d0e 	tsteq	r0, lr, lsl #26
    10f8:	00010101 	andeq	r0, r1, r1, lsl #2
    10fc:	00010000 	andeq	r0, r1, r0
    1100:	2f2e0100 	svccs	0x002e0100
    1104:	6362696c 	cmnvs	r2, #108, 18	; 0x1b0000
    1108:	706f2f00 	rsbvc	r2, pc, r0, lsl #30
    110c:	6f682f74 	svcvs	0x00682f74
    1110:	7262656d 	rsbvc	r6, r2, #457179136	; 0x1b400000
    1114:	432f7765 			; <UNDEFINED> instruction: 0x432f7765
    1118:	616c6c65 	cmnvs	ip, r5, ror #24
    111c:	72612f72 	rsbvc	r2, r1, #456	; 0x1c8
    1120:	6f6e2d6d 	svcvs	0x006e2d6d
    1124:	652d656e 	strvs	r6, [sp, #-1390]!	; 0xfffffa92
    1128:	2d696261 	sfmcs	f6, 2, [r9, #-388]!	; 0xfffffe7c
    112c:	2d392f39 	ldccs	15, cr2, [r9, #-228]!	; 0xffffff1c
    1130:	39313032 	ldmdbcc	r1!, {r1, r4, r5, ip, sp}
    1134:	632d3471 			; <UNDEFINED> instruction: 0x632d3471
    1138:	37303173 			; <UNDEFINED> instruction: 0x37303173
    113c:	696c2f65 	stmdbvs	ip!, {r0, r2, r5, r6, r8, r9, sl, fp, sp}^
    1140:	63672f62 	cmnvs	r7, #392	; 0x188
    1144:	72612f63 	rsbvc	r2, r1, #396	; 0x18c
    1148:	6f6e2d6d 	svcvs	0x006e2d6d
    114c:	652d656e 	strvs	r6, [sp, #-1390]!	; 0xfffffa92
    1150:	2f696261 	svccs	0x00696261
    1154:	2e322e39 	mrccs	14, 1, r2, cr2, cr9, {1}
    1158:	6e692f31 	mcrvs	15, 3, r2, cr9, cr1, {1}
    115c:	64756c63 	ldrbtvs	r6, [r5], #-3171	; 0xfffff39d
    1160:	552f0065 	strpl	r0, [pc, #-101]!	; 1103 <__code_start__-0x6efd>
    1164:	73726573 	cmnvc	r2, #482344960	; 0x1cc00000
    1168:	6c696d2f 	stclvs	13, cr6, [r9], #-188	; 0xffffff44
    116c:	532f7365 			; <UNDEFINED> instruction: 0x532f7365
    1170:	6372756f 	cmnvs	r2, #465567744	; 0x1bc00000
    1174:	73632f65 	cmnvc	r3, #404	; 0x194
    1178:	6c303432 	cfldrsvs	mvf3, [r0], #-200	; 0xffffff38
    117c:	696c2f78 	stmdbvs	ip!, {r3, r4, r5, r6, r8, r9, sl, fp, sp}^
    1180:	2f697062 	svccs	0x00697062
    1184:	6c636e69 	stclvs	14, cr6, [r3], #-420	; 0xfffffe5c
    1188:	00656475 	rsbeq	r6, r5, r5, ror r4
    118c:	2d617600 	stclcs	6, cr7, [r1, #-0]
    1190:	6e697270 	mcrvs	2, 3, r7, cr9, cr0, {3}
    1194:	632e6b74 			; <UNDEFINED> instruction: 0x632e6b74
    1198:	00000100 	andeq	r0, r0, r0, lsl #2
    119c:	69647473 	stmdbvs	r4!, {r0, r1, r4, r5, r6, sl, ip, sp, lr}^
    11a0:	672d746e 	strvs	r7, [sp, -lr, ror #8]!
    11a4:	682e6363 	stmdavs	lr!, {r0, r1, r5, r6, r8, r9, sp, lr}
    11a8:	00000200 	andeq	r0, r0, r0, lsl #4
    11ac:	2e697072 	mcrcs	0, 3, r7, cr9, cr2, {3}
    11b0:	00030068 	andeq	r0, r3, r8, rrx
    11b4:	69707200 	ldmdbvs	r0!, {r9, ip, sp, lr}^
    11b8:	746e692d 	strbtvc	r6, [lr], #-2349	; 0xfffff6d3
    11bc:	616e7265 	cmnvs	lr, r5, ror #4
    11c0:	00682e6c 	rsbeq	r2, r8, ip, ror #28
    11c4:	73000003 	movwvc	r0, #3
    11c8:	72616474 	rsbvc	r6, r1, #116, 8	; 0x74000000
    11cc:	00682e67 	rsbeq	r2, r8, r7, ror #28
    11d0:	3c000002 	stccc	0, cr0, [r0], {2}
    11d4:	6c697562 	cfstr64vs	mvdx7, [r9], #-392	; 0xfffffe78
    11d8:	6e692d74 	mcrvs	13, 3, r2, cr9, cr4, {3}
    11dc:	0000003e 	andeq	r0, r0, lr, lsr r0
    11e0:	01050000 	mrseq	r0, (UNDEF: 5)
    11e4:	20020500 	andcs	r0, r2, r0, lsl #10
    11e8:	03000090 	movweq	r0, #144	; 0x90
    11ec:	050100c8 	streq	r0, [r1, #-200]	; 0xffffff38
    11f0:	01051402 	tsteq	r5, r2, lsl #8
    11f4:	04051006 	streq	r1, [r5], #-6
    11f8:	2c010530 	cfstr32cs	mvfx0, [r1], {48}	; 0x30
    11fc:	3004054a 	andcc	r0, r4, sl, asr #10
    1200:	31060205 	tstcc	r6, r5, lsl #4
    1204:	060b0513 			; <UNDEFINED> instruction: 0x060b0513
    1208:	0602052e 	streq	r0, [r2], -lr, lsr #10
    120c:	06090530 			; <UNDEFINED> instruction: 0x06090530
    1210:	2e0d2402 	cdpcs	4, 0, cr2, cr13, cr2, {0}
    1214:	060d052e 	streq	r0, [sp], -lr, lsr #10
    1218:	054a1703 	strbeq	r1, [sl, #-1795]	; 0xfffff8fd
    121c:	2d051311 	stccs	3, cr1, [r5, #-68]	; 0xffffffbc
    1220:	16050106 	strne	r0, [r5], -r6, lsl #2
    1224:	2f0d052e 	svccs	0x000d052e
    1228:	052d1605 	streq	r1, [sp, #-1541]!	; 0xfffff9fb
    122c:	052f0614 	streq	r0, [pc, #-1556]!	; c20 <__code_start__-0x73e0>
    1230:	05010617 	streq	r0, [r1, #-1559]	; 0xfffff9e9
    1234:	2f062e0d 	svccs	0x00062e0d
    1238:	01061205 	tsteq	r6, r5, lsl #4
    123c:	052d2f2e 	streq	r2, [sp, #-3886]!	; 0xfffff0d2
    1240:	052f060d 	streq	r0, [pc, #-1549]!	; c3b <__code_start__-0x73c5>
    1244:	05010612 	streq	r0, [r1, #-1554]	; 0xfffff9ee
    1248:	052f0619 	streq	r0, [pc, #-1561]!	; c37 <__code_start__-0x73c9>
    124c:	01110304 	tsteq	r1, r4, lsl #6
    1250:	15020501 	strne	r0, [r2, #-1281]	; 0xfffffaff
    1254:	b2030e05 	andlt	r0, r3, #80	; 0x50
    1258:	0205017f 	andeq	r0, r5, #-1073741793	; 0xc000001f
    125c:	06060513 			; <UNDEFINED> instruction: 0x06060513
    1260:	06020501 	streq	r0, [r2], -r1, lsl #10
    1264:	01080530 	tsteq	r8, r0, lsr r5
    1268:	01060205 	tsteq	r6, r5, lsl #4
    126c:	0808054a 	stmdaeq	r8, {r1, r3, r6, r8, sl}
    1270:	06030591 			; <UNDEFINED> instruction: 0x06030591
    1274:	0608054a 	streq	r0, [r8], -sl, asr #10
    1278:	06150501 	ldreq	r0, [r5], -r1, lsl #10
    127c:	0108052d 	tsteq	r8, sp, lsr #10
    1280:	05d70305 	ldrbeq	r0, [r7, #773]	; 0x305
    1284:	05010608 	streq	r0, [r1, #-1544]	; 0xfffff9f8
    1288:	02052d18 	andeq	r2, r5, #24, 26	; 0x600
    128c:	2f08052e 	svccs	0x0008052e
    1290:	2d061505 	cfstr32cs	mvfx1, [r6, #-20]	; 0xffffffec
    1294:	05010805 	streq	r0, [r1, #-2053]	; 0xfffff7fb
    1298:	05010602 	streq	r0, [r1, #-1538]	; 0xfffff9fe
    129c:	052f0603 	streq	r0, [pc, #-1539]!	; ca1 <__code_start__-0x735f>
    12a0:	05110618 	ldreq	r0, [r1, #-1560]	; 0xfffff9e8
    12a4:	08052e02 	stmdaeq	r5, {r1, r9, sl, fp, sp}
    12a8:	0615052f 	ldreq	r0, [r5], -pc, lsr #10
    12ac:	0108052d 	tsteq	r8, sp, lsr #10
    12b0:	05130305 	ldreq	r0, [r3, #-773]	; 0xfffffcfb
    12b4:	05010608 	streq	r0, [r1, #-1544]	; 0xfffff9f8
    12b8:	052d0615 	streq	r0, [sp, #-1557]!	; 0xfffff9eb
    12bc:	01060108 	tsteq	r6, r8, lsl #2
    12c0:	a0060205 	andge	r0, r6, r5, lsl #4
    12c4:	01060505 	tsteq	r6, r5, lsl #10
    12c8:	05360405 	ldreq	r0, [r6, #-1029]!	; 0xfffffbfb
    12cc:	09052f11 	stmdbeq	r5, {r0, r4, r8, r9, sl, fp, sp}
    12d0:	3302052e 	movwcc	r0, #9518	; 0x252e
    12d4:	72030505 	andvc	r0, r3, #20971520	; 0x1400000
    12d8:	0602052e 	streq	r0, [r2], -lr, lsr #10
    12dc:	0501062f 	streq	r0, [r1, #-1583]	; 0xfffff9d1
    12e0:	0516060e 	ldreq	r0, [r6, #-1550]	; 0xfffff9f2
    12e4:	05131402 	ldreq	r1, [r3, #-1026]	; 0xfffffbfe
    12e8:	02051303 	andeq	r1, r5, #201326592	; 0xc000000
    12ec:	0b051514 	bleq	146744 <__bss_end__+0x13b51c>
    12f0:	06020501 	streq	r0, [r2], -r1, lsl #10
    12f4:	03052e01 	movweq	r2, #24065	; 0x5e01
    12f8:	0a056706 	beq	15af18 <__bss_end__+0x14fcf0>
    12fc:	02050106 	andeq	r0, r5, #-2147483647	; 0x80000001
    1300:	2f0a052d 	svccs	0x000a052d
    1304:	2d061705 	stccs	7, cr1, [r6, #-20]	; 0xffffffec
    1308:	05010b05 	streq	r0, [r1, #-2821]	; 0xfffff4fb
    130c:	05010602 	streq	r0, [r1, #-1538]	; 0xfffff9fe
    1310:	052e4c09 	streq	r4, [lr, #-3081]!	; 0xfffff3f7
    1314:	052e0602 	streq	r0, [lr, #-1538]!	; 0xfffff9fe
    1318:	05010609 	streq	r0, [r1, #-1545]	; 0xfffff9f7
    131c:	06300602 	ldrteq	r0, [r0], -r2, lsl #12
    1320:	03010501 	movweq	r0, #5377	; 0x1501
    1324:	09050138 	stmdbeq	r5, {r3, r4, r5, r8}
    1328:	2e4a4f03 	cdpcs	15, 4, cr4, cr10, cr3, {0}
    132c:	0619052e 	ldreq	r0, [r9], -lr, lsr #10
    1330:	054a2703 	strbeq	r2, [sl, #-1795]	; 0xfffff8fd
    1334:	2805131a 	stmdacs	r5, {r1, r3, r4, r8, r9, ip}
    1338:	1f050106 	svcne	0x00050106
    133c:	2f04052e 	svccs	0x0004052e
    1340:	052d1f05 	streq	r1, [sp, #-3845]!	; 0xfffff0fb
    1344:	052f060b 	streq	r0, [pc, #-1547]!	; d41 <__code_start__-0x72bf>
    1348:	0501060e 	streq	r0, [r1, #-1550]	; 0xfffff9f2
    134c:	02052e04 	andeq	r2, r5, #4, 28	; 0x40
    1350:	4a590306 	bmi	1641f70 <__bss_end__+0x1636d48>
    1354:	060b0513 			; <UNDEFINED> instruction: 0x060b0513
    1358:	0602052e 	streq	r0, [r2], -lr, lsr #10
    135c:	06090530 			; <UNDEFINED> instruction: 0x06090530
    1360:	050d2402 	streq	r2, [sp, #-1026]	; 0xfffffbfe
    1364:	13360604 	teqne	r6, #4, 12	; 0x400000
    1368:	01060605 	tsteq	r6, r5, lsl #12
    136c:	67060505 	strvs	r0, [r6, -r5, lsl #10]
    1370:	09051313 	stmdbeq	r5, {r0, r1, r4, r8, r9, ip}
    1374:	0d051106 	stfeqs	f1, [r5, #-24]	; 0xffffffe8
    1378:	300b052b 	andcc	r0, fp, fp, lsr #10
    137c:	052c0d05 	streq	r0, [ip, #-3333]!	; 0xfffff2fb
    1380:	0405351b 	streq	r3, [r5], #-1307	; 0xfffffae5
    1384:	05052d06 	streq	r2, [r5, #-3334]	; 0xfffff2fa
    1388:	061b0513 			; <UNDEFINED> instruction: 0x061b0513
    138c:	820a052e 	andhi	r0, sl, #192937984	; 0xb800000
    1390:	052f0405 	streq	r0, [pc, #-1029]!	; f93 <__code_start__-0x706d>
    1394:	0a052e0e 	beq	14cbd4 <__bss_end__+0x1419ac>
    1398:	060b0549 	streq	r0, [fp], -r9, asr #10
    139c:	0604052f 	streq	r0, [r4], -pc, lsr #10
    13a0:	052f0601 	streq	r0, [pc, #-1537]!	; da7 <__code_start__-0x7259>
    13a4:	05010606 	streq	r0, [r1, #-1542]	; 0xfffff9fa
    13a8:	052f0605 	streq	r0, [pc, #-1541]!	; dab <__code_start__-0x7255>
    13ac:	2e01060a 	cfmadd32cs	mvax0, mvfx0, mvfx1, mvfx10
    13b0:	2e2e0705 	cdpcs	7, 2, cr0, cr14, cr5, {0}
    13b4:	0604052e 	streq	r0, [r4], -lr, lsr #10
    13b8:	05010d03 	streq	r0, [r1, #-3331]	; 0xfffff2fd
    13bc:	46030602 	strmi	r0, [r3], -r2, lsl #12
    13c0:	03090501 	movweq	r0, #38145	; 0x9501
    13c4:	04052e3a 	streq	r2, [r5], #-3642	; 0xfffff1c6
    13c8:	0d032f06 	stceq	15, cr2, [r3, #-24]	; 0xffffffe8
    13cc:	02050101 	andeq	r0, r5, #1073741824	; 0x40000000
    13d0:	030e0515 	movweq	r0, #58645	; 0xe515
    13d4:	05017fb2 	streq	r7, [r1, #-4018]	; 0xfffff04e
    13d8:	05141302 	ldreq	r1, [r4, #-770]	; 0xfffffcfe
    13dc:	06050108 	streq	r0, [r5], -r8, lsl #2
    13e0:	3c031006 	stccc	0, cr1, [r3], {6}
    13e4:	0302052e 	movweq	r0, #9518	; 0x252e
    13e8:	30064a46 	andcc	r4, r6, r6, asr #20
    13ec:	01060505 	tsteq	r6, r5, lsl #10
    13f0:	02052e2e 	andeq	r2, r5, #736	; 0x2e0
    13f4:	01064b06 	tsteq	r6, r6, lsl #22
    13f8:	16060e05 	strne	r0, [r6], -r5, lsl #28
    13fc:	13140205 	tstne	r4, #1342177280	; 0x50000000
    1400:	0b051515 	bleq	14685c <__bss_end__+0x13b634>
    1404:	06020501 	streq	r0, [r2], -r1, lsl #10
    1408:	0530062e 	ldreq	r0, [r0, #-1582]!	; 0xfffff9d2
    140c:	05010609 	streq	r0, [r1, #-1545]	; 0xfffff9f7
    1410:	064c0602 	strbeq	r0, [ip], -r2, lsl #12
    1414:	03010501 	movweq	r0, #5377	; 0x1501
    1418:	06050138 			; <UNDEFINED> instruction: 0x06050138
    141c:	054a6e03 	strbeq	r6, [sl, #-3587]	; 0xfffff1fd
    1420:	66460302 	strbvs	r0, [r6], -r2, lsl #6
    1424:	04052e4a 	streq	r2, [r5], #-3658	; 0xfffff1b6
    1428:	00c80306 	sbceq	r0, r8, r6, lsl #6
    142c:	01010101 	tsteq	r1, r1, lsl #2
    1430:	06822e06 	streq	r2, [r2], r6, lsl #28
    1434:	2e72034a 	cdpcs	3, 7, cr0, cr2, cr10, {2}
    1438:	01060905 	tsteq	r6, r5, lsl #18
    143c:	2f060405 	svccs	0x00060405
    1440:	01010d03 	tsteq	r1, r3, lsl #26
    1444:	05150205 	ldreq	r0, [r5, #-517]	; 0xfffffdfb
    1448:	7fb2030e 	svcvc	0x00b2030e
    144c:	13020501 	movwne	r0, #9473	; 0x2501
    1450:	01080514 	tsteq	r8, r4, lsl r5
    1454:	03060905 	movweq	r0, #26885	; 0x6905
    1458:	0605011b 			; <UNDEFINED> instruction: 0x0605011b
    145c:	032e6303 			; <UNDEFINED> instruction: 0x032e6303
    1460:	2e2e2e3c 	mcrcs	14, 1, r2, cr14, cr12, {1}
    1464:	03064805 	movweq	r4, #26629	; 0x6805
    1468:	3c087fb4 	stccc	15, cr7, [r8], {180}	; 0xb4
    146c:	01130505 	tsteq	r3, r5, lsl #10
    1470:	02002e06 	andeq	r2, r0, #96	; 0x60
    1474:	2e060204 	cdpcs	2, 0, cr0, cr6, cr4, {0}
    1478:	02040200 	andeq	r0, r4, #0, 4
    147c:	04020001 	streq	r0, [r2], #-1
    1480:	11051302 	tstne	r5, r2, lsl #6
    1484:	02040200 	andeq	r0, r4, #0, 4
    1488:	07050106 	streq	r0, [r5, -r6, lsl #2]
    148c:	02040200 	andeq	r0, r4, #0, 4
    1490:	0011052f 	andseq	r0, r1, pc, lsr #10
    1494:	2d020402 	cfstrscs	mvf0, [r2, #-8]
    1498:	02000505 	andeq	r0, r0, #20971520	; 0x1400000
    149c:	2f060204 	svccs	0x00060204
    14a0:	02000905 	andeq	r0, r0, #81920	; 0x14000
    14a4:	05130204 	ldreq	r0, [r3, #-516]	; 0xfffffdfc
    14a8:	0402000e 	streq	r0, [r2], #-14
    14ac:	05010602 	streq	r0, [r1, #-1538]	; 0xfffff9fe
    14b0:	04020005 	streq	r0, [r2], #-5
    14b4:	00630601 	rsbeq	r0, r3, r1, lsl #12
    14b8:	01010402 	tsteq	r1, r2, lsl #8
    14bc:	02004805 	andeq	r4, r0, #327680	; 0x50000
    14c0:	11060104 	tstne	r6, r4, lsl #2
    14c4:	02000505 	andeq	r0, r0, #20971520	; 0x1400000
    14c8:	052f0104 	streq	r0, [pc, #-260]!	; 13cc <__code_start__-0x6c34>
    14cc:	04020048 	streq	r0, [r2], #-72	; 0xffffffb8
    14d0:	05052d01 	streq	r2, [r5, #-3329]	; 0xfffff2ff
    14d4:	01040200 	mrseq	r0, R12_usr
    14d8:	0402002f 	streq	r0, [r2], #-47	; 0xffffffd1
    14dc:	02004a01 	andeq	r4, r0, #4096	; 0x1000
    14e0:	004a0104 	subeq	r0, sl, r4, lsl #2
    14e4:	06010402 	streq	r0, [r1], -r2, lsl #8
    14e8:	0340054a 	movteq	r0, #1354	; 0x54a
    14ec:	06d600e1 	ldrbeq	r0, [r6], r1, ror #1
    14f0:	4e090501 	cfsh32mi	mvfx0, mvfx9, #1
    14f4:	3008052e 	andcc	r0, r8, lr, lsr #10
    14f8:	05291e05 	streq	r1, [r9, #-3589]!	; 0xfffff1fb
    14fc:	0d052e12 	stceq	14, cr2, [r5, #-72]	; 0xffffffb8
    1500:	06020533 			; <UNDEFINED> instruction: 0x06020533
    1504:	13050545 	movwne	r0, #21829	; 0x5545
    1508:	05140205 	ldreq	r0, [r4, #-517]	; 0xfffffdfb
    150c:	02051305 	andeq	r1, r5, #335544320	; 0x14000000
    1510:	01080513 	tsteq	r8, r3, lsl r5
    1514:	03064005 	movweq	r4, #24581	; 0x6005
    1518:	052e017a 	streq	r0, [lr, #-378]!	; 0xfffffe86
    151c:	0566340d 	strbeq	r3, [r6, #-1037]!	; 0xfffffbf3
    1520:	4a200311 	bmi	80216c <__bss_end__+0x7f6f44>
    1524:	0604054a 	streq	r0, [r4], -sl, asr #10
    1528:	05016203 	streq	r6, [r1, #-515]	; 0xfffffdfd
    152c:	05010609 	streq	r0, [r1, #-1545]	; 0xfffff9f7
    1530:	08052e0f 	stmdaeq	r5, {r0, r1, r2, r3, r9, sl, fp, sp}
    1534:	0d052c06 	stceq	12, cr2, [r5, #-24]	; 0xffffffe8
    1538:	03052e06 	movweq	r2, #24070	; 0x5e06
    153c:	05056706 	streq	r6, [r5, #-1798]	; 0xfffff8fa
    1540:	08050106 	stmdaeq	r5, {r1, r2, r8}
    1544:	0e054d06 	cdpeq	13, 0, cr4, cr5, cr6, {0}
    1548:	0a050106 	beq	141968 <__bss_end__+0x136740>
    154c:	2f09052e 	svccs	0x0009052e
    1550:	2f060405 	svccs	0x00060405
    1554:	01060705 	tsteq	r6, r5, lsl #14
    1558:	052c0a05 	streq	r0, [ip, #-2565]!	; 0xfffff5fb
    155c:	05320604 	ldreq	r0, [r2, #-1540]!	; 0xfffff9fc
    1560:	9803062d 	stmdals	r3, {r0, r2, r3, r5, r9, sl}
    1564:	0905017f 	stmdbeq	r5, {r0, r1, r2, r3, r4, r5, r6, r8}
    1568:	2e00ed03 	cdpcs	13, 0, cr14, cr0, cr3, {0}
    156c:	052c0d05 	streq	r0, [ip, #-3333]!	; 0xfffff2fb
    1570:	04052b07 	streq	r2, [r5], #-2823	; 0xfffff4f9
    1574:	14133006 	ldrne	r3, [r3], #-6
    1578:	05010905 	streq	r0, [r1, #-2309]	; 0xfffff6fb
    157c:	7f93030c 	svcvc	0x0093030c
    1580:	011d0501 	tsteq	sp, r1, lsl #10
    1584:	09050106 	stmdbeq	r5, {r1, r2, r8}
    1588:	0100ed03 	tsteq	r0, r3, lsl #26
    158c:	2f060505 	svccs	0x00060505
    1590:	01061205 	tsteq	r6, r5, lsl #4
    1594:	0b052d2e 	bleq	14ca54 <__bss_end__+0x14182c>
    1598:	0605052f 	streq	r0, [r5], -pc, lsr #10
    159c:	1009052f 	andne	r0, r9, pc, lsr #10
    15a0:	93030c05 	movwls	r0, #15365	; 0x3c05
    15a4:	1d05017f 	stfnes	f0, [r5, #-508]	; 0xfffffe04
    15a8:	062d0501 	strteq	r0, [sp], -r1, lsl #10
    15ac:	03090501 	movweq	r0, #38145	; 0x9501
    15b0:	052e00ed 	streq	r0, [lr, #-237]!	; 0xffffff13
    15b4:	014e0604 	cmpeq	lr, r4, lsl #12
    15b8:	02040200 	andeq	r0, r4, #0, 4
    15bc:	0402004a 	streq	r0, [r2], #-74	; 0xffffffb6
    15c0:	02000102 	andeq	r0, r0, #-2147483648	; 0x80000000
    15c4:	00150204 	andseq	r0, r5, r4, lsl #4
    15c8:	06020402 	streq	r0, [r2], -r2, lsl #8
    15cc:	00123602 	andseq	r3, r2, r2, lsl #12
    15d0:	2e020402 	cdpcs	4, 0, cr0, cr2, cr2, {0}
    15d4:	03060205 	movweq	r0, #25093	; 0x6205
    15d8:	050100d1 	streq	r0, [r1, #-209]	; 0xffffff2f
    15dc:	2e010607 	cfmadd32cs	mvax0, mvfx0, mvfx1, mvfx7
    15e0:	2f060205 	svccs	0x00060205
    15e4:	01060b05 	tsteq	r6, r5, lsl #22
    15e8:	052f0105 	streq	r0, [pc, #-261]!	; 14eb <__code_start__-0x6b15>
    15ec:	65030605 	strvs	r0, [r3, #-1541]	; 0xfffff9fb
    15f0:	0609054a 	streq	r0, [r9], -sl, asr #10
    15f4:	05056601 	streq	r6, [r5, #-1537]	; 0xfffff9ff
    15f8:	04059f06 	streq	r9, [r5], #-3846	; 0xfffff0fa
    15fc:	05011103 	streq	r1, [r1, #-259]	; 0xfffffefd
    1600:	05010607 	streq	r0, [r1, #-1543]	; 0xfffff9f9
    1604:	05310604 	ldreq	r0, [r1, #-1540]!	; 0xfffff9fc
    1608:	1305010a 	movwne	r0, #20746	; 0x510a
    160c:	01040200 	mrseq	r0, R12_usr
    1610:	10052e06 	andne	r2, r5, r6, lsl #28
    1614:	01040200 	mrseq	r0, R12_usr
    1618:	0605052e 	streq	r0, [r5], -lr, lsr #10
    161c:	060a054b 	streq	r0, [sl], -fp, asr #10
    1620:	052d0601 	streq	r0, [sp, #-1537]!	; 0xfffff9ff
    1624:	05010604 	streq	r0, [r1, #-1540]	; 0xfffff9fc
    1628:	b6030611 			; <UNDEFINED> instruction: 0xb6030611
    162c:	0113667f 	tsteq	r3, pc, ror r6
    1630:	02040200 	andeq	r0, r4, #0, 4
    1634:	ba06ba06 	blt	1afe54 <__bss_end__+0x1a4c2c>
    1638:	1a051401 	bne	146644 <__bss_end__+0x13b41c>
    163c:	2e2e1306 	cdpcs	3, 2, cr1, cr14, cr6, {0}
    1640:	674e1105 	strbvs	r1, [lr, -r5, lsl #2]
    1644:	05681405 	strbeq	r1, [r8, #-1029]!	; 0xfffffbfb
    1648:	15058213 	strne	r8, [r5, #-531]	; 0xfffffded
    164c:	054a7803 	strbeq	r7, [sl, #-2051]	; 0xfffff7fd
    1650:	134b0611 	movtne	r0, #46609	; 0xb611
    1654:	14131413 	ldrne	r1, [r3], #-1043	; 0xfffffbed
    1658:	01061305 	tsteq	r6, r5, lsl #6
    165c:	2f060905 	svccs	0x00060905
    1660:	01060d05 	tsteq	r6, r5, lsl #26
    1664:	09052e2e 	stmdbeq	r5, {r1, r2, r3, r5, r9, sl, fp, sp}
    1668:	9d0d05bb 	cfstr32ls	mvfx0, [sp, #-748]	; 0xfffffd14
    166c:	2f060905 	svccs	0x00060905
    1670:	062f1505 	strteq	r1, [pc], -r5, lsl #10
    1674:	034a7503 	movteq	r7, #42243	; 0xa503
    1678:	054a2e0b 	strbeq	r2, [sl, #-3595]	; 0xfffff1f5
    167c:	23030605 	movwcs	r0, #13829	; 0x3605
    1680:	06090501 	streq	r0, [r9], -r1, lsl #10
    1684:	05052e01 	streq	r2, [r5, #-3585]	; 0xfffff1ff
    1688:	6e03d706 	cdpvs	7, 0, cr13, cr3, cr6, {0}
    168c:	010e032e 	tsteq	lr, lr, lsr #6
    1690:	01060905 	tsteq	r6, r5, lsl #18
    1694:	03060505 	movweq	r0, #25861	; 0x6505
    1698:	01054a10 	tsteq	r5, r0, lsl sl
    169c:	017eed03 	cmneq	lr, r3, lsl #26
    16a0:	15140205 	ldrne	r0, [r4, #-517]	; 0xfffffdfb
    16a4:	04051413 	streq	r1, [r5], #-1043	; 0xfffffbed
    16a8:	05011a03 	streq	r1, [r1, #-2563]	; 0xfffff5fd
    16ac:	05010609 	streq	r0, [r1, #-1545]	; 0xfffff9f7
    16b0:	2e460302 	cdpcs	3, 4, cr0, cr6, cr2, {0}
    16b4:	3a030905 	bcc	c3ad0 <__bss_end__+0xb88a8>
    16b8:	0604052e 	streq	r0, [r4], -lr, lsr #10
    16bc:	010d032f 	tsteq	sp, pc, lsr #6
    16c0:	15020501 	strne	r0, [r2, #-1281]	; 0xfffffaff
    16c4:	b2030e05 	andlt	r0, r3, #80	; 0x50
    16c8:	0205017f 	andeq	r0, r5, #-1073741793	; 0xc000001f
    16cc:	08051413 	stmdaeq	r5, {r0, r1, r4, sl, ip}
    16d0:	06020501 	streq	r0, [r2], -r1, lsl #10
    16d4:	9f080501 	svcls	0x00080501
    16d8:	4a060305 	bmi	1822f4 <__bss_end__+0x1770cc>
    16dc:	08050106 	stmdaeq	r5, {r1, r2, r8}
    16e0:	0615052e 	ldreq	r0, [r5], -lr, lsr #10
    16e4:	0108052d 	tsteq	r8, sp, lsr #10
    16e8:	062f0305 	strteq	r0, [pc], -r5, lsl #6
    16ec:	2e080501 	cfsh32cs	mvfx0, mvfx8, #1
    16f0:	2d061505 	cfstr32cs	mvfx1, [r6, #-20]	; 0xffffffec
    16f4:	05010805 	streq	r0, [r1, #-2053]	; 0xfffff7fb
    16f8:	01062f03 	tsteq	r6, r3, lsl #30
    16fc:	052e0805 	streq	r0, [lr, #-2053]!	; 0xfffff7fb
    1700:	052d0615 	streq	r0, [sp, #-1557]!	; 0xfffff9eb
    1704:	03050108 	movweq	r0, #20744	; 0x5108
    1708:	0501062f 	streq	r0, [r1, #-1583]	; 0xfffff9d1
    170c:	15052e08 	strne	r2, [r5, #-3592]	; 0xfffff1f8
    1710:	08052d06 	stmdaeq	r5, {r1, r2, r8, sl, fp, sp}
    1714:	2f030501 	svccs	0x00030501
    1718:	08050106 	stmdaeq	r5, {r1, r2, r8}
    171c:	0615052e 	ldreq	r0, [r5], -lr, lsr #10
    1720:	0108052d 	tsteq	r8, sp, lsr #10
    1724:	062f0305 	strteq	r0, [pc], -r5, lsl #6
    1728:	2e080501 	cfsh32cs	mvfx0, mvfx8, #1
    172c:	2d061505 	cfstr32cs	mvfx1, [r6, #-20]	; 0xffffffec
    1730:	05010805 	streq	r0, [r1, #-2053]	; 0xfffff7fb
    1734:	08051303 	stmdaeq	r5, {r0, r1, r8, r9, ip}
    1738:	15050106 	strne	r0, [r5, #-262]	; 0xfffffefa
    173c:	08052d06 	stmdaeq	r5, {r1, r2, r8, sl, fp, sp}
    1740:	05660601 	strbeq	r0, [r6, #-1537]!	; 0xfffff9ff
    1744:	05670603 	strbeq	r0, [r7, #-1539]!	; 0xfffff9fd
    1748:	05010608 	streq	r0, [r1, #-1544]	; 0xfffff9f8
    174c:	02052d18 	andeq	r2, r5, #24, 26	; 0x600
    1750:	2f08052e 	svccs	0x0008052e
    1754:	2d061505 	cfstr32cs	mvfx1, [r6, #-20]	; 0xffffffec
    1758:	05010805 	streq	r0, [r1, #-2053]	; 0xfffff7fb
    175c:	05010602 	streq	r0, [r1, #-1538]	; 0xfffff9fe
    1760:	052f0603 	streq	r0, [pc, #-1539]!	; 1165 <__code_start__-0x6e9b>
    1764:	05110618 	ldreq	r0, [r1, #-1560]	; 0xfffff9e8
    1768:	08052e02 	stmdaeq	r5, {r1, r9, sl, fp, sp}
    176c:	0615052f 	ldreq	r0, [r5], -pc, lsr #10
    1770:	0108052d 	tsteq	r8, sp, lsr #10
    1774:	05130305 	ldreq	r0, [r3, #-773]	; 0xfffffcfb
    1778:	05010608 	streq	r0, [r1, #-1544]	; 0xfffff9f8
    177c:	052d0615 	streq	r0, [sp, #-1557]!	; 0xfffff9eb
    1780:	05050108 	streq	r0, [r5, #-264]	; 0xfffffef8
    1784:	054a1406 	strbeq	r1, [sl, #-1030]	; 0xfffffbfa
    1788:	052e0602 	streq	r0, [lr, #-1538]!	; 0xfffff9fe
    178c:	0519060e 	ldreq	r0, [r9, #-1550]	; 0xfffff9f2
    1790:	11052f04 	tstne	r5, r4, lsl #30
    1794:	4a09052f 	bmi	242c58 <__bss_end__+0x237a30>
    1798:	05330205 	ldreq	r0, [r3, #-517]!	; 0xfffffdfb
    179c:	2e720305 	cdpcs	3, 7, cr0, cr2, cr5, {0}
    17a0:	2f060205 	svccs	0x00060205
    17a4:	0e050106 	adfeqs	f0, f5, f6
    17a8:	02051606 	andeq	r1, r5, #6291456	; 0x600000
    17ac:	03051314 	movweq	r1, #21268	; 0x5314
    17b0:	14020513 	strne	r0, [r2], #-1299	; 0xfffffaed
    17b4:	010b0515 	tsteq	fp, r5, lsl r5
    17b8:	01060205 	tsteq	r6, r5, lsl #4
    17bc:	0305662e 	movweq	r6, #22062	; 0x562e
    17c0:	0a052f06 	beq	14d3e0 <__bss_end__+0x1421b8>
    17c4:	02050106 	andeq	r0, r5, #-2147483647	; 0x80000001
    17c8:	2f0a052d 	svccs	0x000a052d
    17cc:	2d061705 	stccs	7, cr1, [r6, #-20]	; 0xffffffec
    17d0:	05010b05 	streq	r0, [r1, #-2821]	; 0xfffff4fb
    17d4:	4a010602 	bmi	42fe4 <__bss_end__+0x37dbc>
    17d8:	0605054a 	streq	r0, [r5], -sl, asr #10
    17dc:	01019503 	tsteq	r1, r3, lsl #10
    17e0:	03061105 	movweq	r1, #24837	; 0x6105
    17e4:	05017ef8 	streq	r7, [r1, #-3832]	; 0xfffff108
    17e8:	0188031b 	orreq	r0, r8, fp, lsl r3
    17ec:	0601054a 	streq	r0, [r1], -sl, asr #10
    17f0:	2e7ef303 	cdpcs	3, 7, cr15, cr14, cr3, {0}
    17f4:	15140205 	ldrne	r0, [r4, #-517]	; 0xfffffdfb
    17f8:	19051413 	stmdbne	r5, {r0, r1, r4, sl, ip}
    17fc:	05012203 	streq	r2, [r1, #-515]	; 0xfffffdfd
    1800:	2805131a 	stmdacs	r5, {r1, r3, r4, r8, r9, ip}
    1804:	1f050106 	svcne	0x00050106
    1808:	2f04052e 	svccs	0x0004052e
    180c:	054a0e05 	strbeq	r0, [sl, #-3589]	; 0xfffff1fb
    1810:	0b052d1f 	bleq	14cc94 <__bss_end__+0x141a6c>
    1814:	04052f06 	streq	r2, [r5], #-3846	; 0xfffff0fa
    1818:	32060106 	andcc	r0, r6, #-2147483647	; 0x80000001
    181c:	15020501 	strne	r0, [r2, #-1281]	; 0xfffffaff
    1820:	b2030e05 	andlt	r0, r3, #80	; 0x50
    1824:	0205017f 	andeq	r0, r5, #-1073741793	; 0xc000001f
    1828:	06060513 			; <UNDEFINED> instruction: 0x06060513
    182c:	06020501 	streq	r0, [r2], -r1, lsl #10
    1830:	01080530 	tsteq	r8, r0, lsr r5
    1834:	01060205 	tsteq	r6, r5, lsl #4
    1838:	08060305 	stmdaeq	r6, {r0, r2, r8, r9}
    183c:	06080521 	streq	r0, [r8], -r1, lsr #10
    1840:	06150501 	ldreq	r0, [r5], -r1, lsl #10
    1844:	01080549 	tsteq	r8, r9, asr #10
    1848:	05d70305 	ldrbeq	r0, [r7, #773]	; 0x305
    184c:	05010608 	streq	r0, [r1, #-1544]	; 0xfffff9f8
    1850:	02052d18 	andeq	r2, r5, #24, 26	; 0x600
    1854:	2f08052e 	svccs	0x0008052e
    1858:	2d061505 	cfstr32cs	mvfx1, [r6, #-20]	; 0xffffffec
    185c:	05010805 	streq	r0, [r1, #-2053]	; 0xfffff7fb
    1860:	05010602 	streq	r0, [r1, #-1538]	; 0xfffff9fe
    1864:	052f0603 	streq	r0, [pc, #-1539]!	; 1269 <__code_start__-0x6d97>
    1868:	05110618 	ldreq	r0, [r1, #-1560]	; 0xfffff9e8
    186c:	08052e02 	stmdaeq	r5, {r1, r9, sl, fp, sp}
    1870:	0615052f 	ldreq	r0, [r5], -pc, lsr #10
    1874:	0108052d 	tsteq	r8, sp, lsr #10
    1878:	05130305 	ldreq	r0, [r3, #-773]	; 0xfffffcfb
    187c:	05010608 	streq	r0, [r1, #-1544]	; 0xfffff9f8
    1880:	052d0615 	streq	r0, [sp, #-1557]!	; 0xfffff9eb
    1884:	05050108 	streq	r0, [r5, #-264]	; 0xfffffef8
    1888:	02051406 	andeq	r1, r5, #100663296	; 0x6000000
    188c:	04056606 	streq	r6, [r5], #-1542	; 0xfffff9fa
    1890:	05051a06 	streq	r1, [r5, #-2566]	; 0xfffff5fa
    1894:	054a7803 	strbeq	r7, [sl, #-2051]	; 0xfffff7fd
    1898:	062f0602 	strteq	r0, [pc], -r2, lsl #12
    189c:	060e0501 	streq	r0, [lr], -r1, lsl #10
    18a0:	14020516 	strne	r0, [r2], #-1302	; 0xfffffaea
    18a4:	06040513 			; <UNDEFINED> instruction: 0x06040513
    18a8:	06030501 	streq	r0, [r3], -r1, lsl #10
    18ac:	0611052f 	ldreq	r0, [r1], -pc, lsr #10
    18b0:	2e090501 	cfsh32cs	mvfx0, mvfx9, #1
    18b4:	30060205 	andcc	r0, r6, r5, lsl #4
    18b8:	010b0515 	tsteq	fp, r5, lsl r5
    18bc:	01060205 	tsteq	r6, r5, lsl #4
    18c0:	052e4a4a 	streq	r4, [lr, #-2634]!	; 0xfffff5b6
    18c4:	052f0603 	streq	r0, [pc, #-1539]!	; 12c9 <__code_start__-0x6d37>
    18c8:	0501060a 	streq	r0, [r1, #-1546]	; 0xfffff9f6
    18cc:	0a052d02 	beq	14ccdc <__bss_end__+0x141ab4>
    18d0:	0617052f 	ldreq	r0, [r7], -pc, lsr #10
    18d4:	010b052d 	tsteq	fp, sp, lsr #10
    18d8:	01060205 	tsteq	r6, r5, lsl #4
    18dc:	14062e4a 	strne	r2, [r6], #-3658	; 0xfffff1b6
    18e0:	01060905 	tsteq	r6, r5, lsl #18
    18e4:	4c060205 	sfmmi	f0, 4, [r6], {5}
    18e8:	05050106 	streq	r0, [r5, #-262]	; 0xfffffefa
    18ec:	01980306 	orrseq	r0, r8, r6, lsl #6
    18f0:	07052a01 	streq	r2, [r5, -r1, lsl #20]
    18f4:	05050106 	streq	r0, [r5, #-262]	; 0xfffffefa
    18f8:	18052f06 	stmdane	r5, {r1, r2, r8, r9, sl, fp, sp}
    18fc:	052e5303 	streq	r5, [lr, #-771]!	; 0xfffffcfd
    1900:	0501061b 	streq	r0, [r1, #-1563]	; 0xfffff9e5
    1904:	0905821a 	stmdbeq	r5, {r1, r3, r4, r9, pc}
    1908:	0d054b06 	vstreq	d4, [r5, #-24]	; 0xffffffe8
    190c:	052e0106 	streq	r0, [lr, #-262]!	; 0xfffffefa
    1910:	0d05d709 	stceq	7, cr13, [r5, #-36]	; 0xffffffdc
    1914:	0609059d 			; <UNDEFINED> instruction: 0x0609059d
    1918:	3015052f 	andscc	r0, r5, pc, lsr #10
    191c:	01061805 	tsteq	r6, r5, lsl #16
    1920:	05661705 	strbeq	r1, [r6, #-1797]!	; 0xfffff8fb
    1924:	17052f19 	smladne	r5, r9, pc, r2	; <UNPREDICTABLE>
    1928:	06190549 	ldreq	r0, [r9], -r9, asr #10
    192c:	0615052f 	ldreq	r0, [r5], -pc, lsr #10
    1930:	052e6f03 	streq	r6, [lr, #-3843]!	; 0xfffff0fd
    1934:	13030619 	movwne	r0, #13849	; 0x3619
    1938:	0615054a 	ldreq	r0, [r5], -sl, asr #10
    193c:	4a2e6d03 	bmi	b9cd50 <__bss_end__+0xb91b28>
    1940:	a0030205 	andge	r0, r3, r5, lsl #4
    1944:	0666017f 			; <UNDEFINED> instruction: 0x0666017f
    1948:	05017203 	streq	r7, [r1, #-515]	; 0xfffffdfd
    194c:	05010605 	streq	r0, [r1, #-1541]	; 0xfffff9fb
    1950:	05053604 	streq	r3, [r5, #-1540]	; 0xfffff9fc
    1954:	052e7803 	streq	r7, [lr, #-2051]!	; 0xfffff7fd
    1958:	062f0602 	strteq	r0, [pc], -r2, lsl #12
    195c:	060e0501 	streq	r0, [lr], -r1, lsl #10
    1960:	14020516 	strne	r0, [r2], #-1302	; 0xfffffaea
    1964:	06040513 			; <UNDEFINED> instruction: 0x06040513
    1968:	02054a01 	andeq	r4, r5, #4096	; 0x1000
    196c:	01780306 	cmneq	r8, r6, lsl #6
    1970:	01060505 	tsteq	r6, r5, lsl #10
    1974:	0602054a 	streq	r0, [r2], -sl, asr #10
    1978:	0501064b 	streq	r0, [r1, #-1611]	; 0xfffff9b5
    197c:	0516060e 	ldreq	r0, [r6, #-1550]	; 0xfffff9f2
    1980:	15131402 	ldrne	r1, [r3, #-1026]	; 0xfffffbfe
    1984:	010b0515 	tsteq	fp, r5, lsl r5
    1988:	11052e06 	tstne	r5, r6, lsl #28
    198c:	019e0306 	orrseq	r0, lr, r6, lsl #6
    1990:	06220501 	strteq	r0, [r2], -r1, lsl #10
    1994:	2f050501 	svccs	0x00050501
    1998:	052d2205 	streq	r2, [sp, #-517]!	; 0xfffffdfb
    199c:	052f0605 	streq	r0, [pc, #-1541]!	; 139f <__code_start__-0x6c61>
    19a0:	05054b11 	streq	r4, [r5, #-2833]	; 0xfffff4ef
    19a4:	039e0183 	orrseq	r0, lr, #-1073741792	; 0xc0000020
    19a8:	9e012e5c 	mcrls	14, 0, r2, cr1, cr12, {2}
    19ac:	03060205 	movweq	r0, #25093	; 0x6205
    19b0:	2e2e7ef3 	mcrcs	14, 1, r7, cr14, cr3, {7}
    19b4:	4a2c0605 	bmi	b031d0 <__bss_end__+0xaf7fa8>
    19b8:	d8030d05 	stmdale	r3, {r0, r2, r8, sl, fp}
    19bc:	04050100 	streq	r0, [r5], #-256	; 0xffffff00
    19c0:	01040200 	mrseq	r0, R12_usr
    19c4:	4a110306 	bmi	4425e4 <__bss_end__+0x4373bc>
    19c8:	01040200 	mrseq	r0, R12_usr
    19cc:	06110501 	ldreq	r0, [r1], -r1, lsl #10
    19d0:	059e0651 	ldreq	r0, [lr, #1617]	; 0x651
    19d4:	2e170315 	mrccs	3, 0, r0, cr7, cr5, {0}
    19d8:	1105ba01 	tstne	r5, r1, lsl #20
    19dc:	012e6903 			; <UNDEFINED> instruction: 0x012e6903
    19e0:	01002802 	tsteq	r0, r2, lsl #16
    19e4:	00008701 	andeq	r8, r0, r1, lsl #14
    19e8:	64000300 	strvs	r0, [r0], #-768	; 0xfffffd00
    19ec:	02000000 	andeq	r0, r0, #0, 0
    19f0:	0d0efb01 	vstreq	d15, [lr, #-4]
    19f4:	01010100 	mrseq	r0, (UNDEF: 17)
    19f8:	00000001 	andeq	r0, r0, r1
    19fc:	01000001 	tsteq	r0, r1
    1a00:	74732f2e 	ldrbtvc	r2, [r3], #-3886	; 0xfffff0d2
    1a04:	2d666661 	stclcs	6, cr6, [r6, #-388]!	; 0xfffffe7c
    1a08:	00637273 	rsbeq	r7, r3, r3, ror r2
    1a0c:	6573552f 	ldrbvs	r5, [r3, #-1327]!	; 0xfffffad1
    1a10:	6d2f7372 	stcvs	3, cr7, [pc, #-456]!	; 1850 <__code_start__-0x67b0>
    1a14:	73656c69 	cmnvc	r5, #26880	; 0x6900
    1a18:	756f532f 	strbvc	r5, [pc, #-815]!	; 16f1 <__code_start__-0x690f>
    1a1c:	2f656372 	svccs	0x00656372
    1a20:	34327363 	ldrtcc	r7, [r2], #-867	; 0xfffffc9d
    1a24:	2f786c30 	svccs	0x00786c30
    1a28:	7062696c 	rsbvc	r6, r2, ip, ror #18
    1a2c:	6e692f69 	cdpvs	15, 6, cr2, cr9, cr9, {3}
    1a30:	64756c63 	ldrbtvs	r6, [r5], #-3171	; 0xfffff39d
    1a34:	63000065 	movwvs	r0, #101	; 0x65
    1a38:	6e61656c 	cdpvs	5, 6, cr6, cr1, cr12, {3}
    1a3c:	6265722d 	rsbvs	r7, r5, #-805306366	; 0xd0000002
    1a40:	2e746f6f 	cdpcs	15, 7, cr6, cr4, cr15, {3}
    1a44:	00010063 	andeq	r0, r1, r3, rrx
    1a48:	69707200 	ldmdbvs	r0!, {r9, ip, sp, lr}^
    1a4c:	0200682e 	andeq	r6, r0, #3014656	; 0x2e0000
    1a50:	05000000 	streq	r0, [r0, #-0]
    1a54:	02050019 	andeq	r0, r5, #25, 0
    1a58:	000099d4 	ldrdeq	r9, [r0], -r4
    1a5c:	13050515 	movwne	r0, #21781	; 0x5515
    1a60:	2d061905 	vstrcs.16	s2, [r6, #-10]	; <UNPREDICTABLE>
    1a64:	062f0505 	strteq	r0, [pc], -r5, lsl #10
    1a68:	024b2f67 	subeq	r2, fp, #412	; 0x19c
    1a6c:	01010006 	tsteq	r1, r6
    1a70:	00000176 	andeq	r0, r0, r6, ror r1
    1a74:	005e0003 	subseq	r0, lr, r3
    1a78:	01020000 	mrseq	r0, (UNDEF: 2)
    1a7c:	000d0efb 	strdeq	r0, [sp], -fp
    1a80:	01010101 	tsteq	r1, r1, lsl #2
    1a84:	01000000 	mrseq	r0, (UNDEF: 0)
    1a88:	2e010000 	cdpcs	0, 0, cr0, cr1, cr0, {0}
    1a8c:	6174732f 	cmnvs	r4, pc, lsr #6
    1a90:	732d6666 			; <UNDEFINED> instruction: 0x732d6666
    1a94:	2f006372 	svccs	0x00006372
    1a98:	72657355 	rsbvc	r7, r5, #1409286145	; 0x54000001
    1a9c:	696d2f73 	stmdbvs	sp!, {r0, r1, r4, r5, r6, r8, r9, sl, fp, sp}^
    1aa0:	2f73656c 	svccs	0x0073656c
    1aa4:	72756f53 	rsbsvc	r6, r5, #332	; 0x14c
    1aa8:	632f6563 			; <UNDEFINED> instruction: 0x632f6563
    1aac:	30343273 	eorscc	r3, r4, r3, ror r2
    1ab0:	6c2f786c 	stcvs	8, cr7, [pc], #-432	; 1908 <__code_start__-0x66f8>
    1ab4:	69706269 	ldmdbvs	r0!, {r0, r3, r5, r6, r9, sp, lr}^
    1ab8:	636e692f 	cmnvs	lr, #770048	; 0xbc000
    1abc:	6564756c 	strbvs	r7, [r4, #-1388]!	; 0xfffffa94
    1ac0:	73630000 	cmnvc	r3, #0, 0
    1ac4:	74726174 	ldrbtvc	r6, [r2], #-372	; 0xfffffe8c
    1ac8:	0100632e 	tsteq	r0, lr, lsr #6
    1acc:	70720000 	rsbsvc	r0, r2, r0
    1ad0:	00682e69 	rsbeq	r2, r8, r9, ror #28
    1ad4:	00000002 	andeq	r0, r0, r2
    1ad8:	05001005 	streq	r1, [r0, #-5]
    1adc:	009a0002 	addseq	r0, sl, r2
    1ae0:	01100300 	tsteq	r0, r0, lsl #6
    1ae4:	05130505 	ldreq	r0, [r3, #-1285]	; 0xfffffafb
    1ae8:	05051302 	streq	r1, [r5, #-770]	; 0xfffffcfe
    1aec:	06100514 			; <UNDEFINED> instruction: 0x06100514
    1af0:	3205050e 	andcc	r0, r5, #58720256	; 0x3800000
    1af4:	14133006 	ldrne	r3, [r3], #-6
    1af8:	05010a05 	streq	r0, [r1, #-2565]	; 0xfffff5fb
    1afc:	05910809 	ldreq	r0, [r1, #2057]	; 0x809
    1b00:	05010610 	streq	r0, [r1, #-1552]	; 0xfffff9f0
    1b04:	10059a0a 	andne	r9, r5, sl, lsl #20
    1b08:	060a056a 	streq	r0, [sl], -sl, ror #10
    1b0c:	2f09052d 	svccs	0x0009052d
    1b10:	01061005 	tsteq	r6, r5
    1b14:	2d060a05 	vstrcs	s0, [r6, #-20]	; 0xffffffec
    1b18:	05bb0905 	ldreq	r0, [fp, #2309]!	; 0x905
    1b1c:	05010610 	streq	r0, [r1, #-1552]	; 0xfffff9f0
    1b20:	0565060a 	strbeq	r0, [r5, #-1546]!	; 0xfffff9f6
    1b24:	0d054b09 	vstreq	d4, [r5, #-36]	; 0xffffffdc
    1b28:	0a050106 	beq	141f48 <__bss_end__+0x136d20>
    1b2c:	2f10052d 	svccs	0x0010052d
    1b30:	2d060a05 	vstrcs	s0, [r6, #-20]	; 0xffffffec
    1b34:	052f0905 	streq	r0, [pc, #-2309]!	; 1237 <__code_start__-0x6dc9>
    1b38:	0501060d 	streq	r0, [r1, #-1549]	; 0xfffff9f3
    1b3c:	10052d0a 	andne	r2, r5, sl, lsl #26
    1b40:	060a052f 	streq	r0, [sl], -pc, lsr #10
    1b44:	2f09052d 	svccs	0x0009052d
    1b48:	01060d05 	tsteq	r6, r5, lsl #26
    1b4c:	052d0a05 	streq	r0, [sp, #-2565]!	; 0xfffff5fb
    1b50:	0a052f10 	beq	14d798 <__bss_end__+0x142570>
    1b54:	09052d06 	stmdbeq	r5, {r1, r2, r8, sl, fp, sp}
    1b58:	060d052f 	streq	r0, [sp], -pc, lsr #10
    1b5c:	2d0a0501 	cfstr32cs	mvfx0, [sl, #-4]
    1b60:	052f1005 	streq	r1, [pc, #-5]!	; 1b63 <__code_start__-0x649d>
    1b64:	052d060a 	streq	r0, [sp, #-1546]!	; 0xfffff9f6
    1b68:	10051309 	andne	r1, r5, r9, lsl #6
    1b6c:	0a050106 	beq	141f8c <__bss_end__+0x136d64>
    1b70:	05052d06 	streq	r2, [r5, #-3334]	; 0xfffff2fa
    1b74:	01013215 	tsteq	r1, r5, lsl r2
    1b78:	1105144a 	tstne	r5, sl, asr #8
    1b7c:	05016103 	streq	r6, [r1, #-259]	; 0xfffffefd
    1b80:	14141305 	ldrne	r1, [r4], #-773	; 0xfffffcfb
    1b84:	01011405 	tsteq	r1, r5, lsl #8
    1b88:	0501062e 	streq	r0, [r1, #-1582]	; 0xfffff9d2
    1b8c:	15130605 	ldrne	r0, [r3, #-1541]	; 0xfffff9fb
    1b90:	01060a05 	tsteq	r6, r5, lsl #20
    1b94:	4b060505 	blmi	182fb0 <__bss_end__+0x177d88>
    1b98:	03060106 	movweq	r0, #24838	; 0x6106
    1b9c:	052f0116 	streq	r0, [pc, #-278]!	; 1a8e <__code_start__-0x6572>
    1ba0:	015f0311 	cmpeq	pc, r1, lsl r3	; <UNPREDICTABLE>
    1ba4:	14130505 	ldrne	r0, [r3], #-1285	; 0xfffffafb
    1ba8:	01140514 	tsteq	r4, r4, lsl r5
    1bac:	01062e01 	tsteq	r6, r1, lsl #28
    1bb0:	13060505 	movwne	r0, #25861	; 0x6505
    1bb4:	01060805 	tsteq	r6, r5, lsl #16
    1bb8:	1c030505 	cfstr32ne	mvfx0, [r3], {5}
    1bbc:	0307052e 	movweq	r0, #29998	; 0x752e
    1bc0:	09052e64 	stmdbeq	r5, {r2, r5, r6, r9, sl, fp, sp}
    1bc4:	0e052f06 	cdpeq	15, 0, cr2, cr5, cr6, {0}
    1bc8:	05050106 	streq	r0, [r5, #-262]	; 0xfffffefa
    1bcc:	0a053006 	beq	14dbec <__bss_end__+0x1429c4>
    1bd0:	05050106 	streq	r0, [r5, #-262]	; 0xfffffefa
    1bd4:	01062f06 	tsteq	r6, r6, lsl #30
    1bd8:	01180306 	tsteq	r8, r6, lsl #6
    1bdc:	05300205 	ldreq	r0, [r0, #-517]!	; 0xfffffdfb
    1be0:	6f03060a 	svcvs	0x0003060a
    1be4:	000c022e 	andeq	r0, ip, lr, lsr #4
    1be8:	007d0101 	rsbseq	r0, sp, r1, lsl #2
    1bec:	00030000 	andeq	r0, r3, r0
    1bf0:	00000065 	andeq	r0, r0, r5, rrx
    1bf4:	0efb0102 	cdpeq	1, 15, cr0, cr11, cr2, {0}
    1bf8:	0101000d 	tsteq	r1, sp
    1bfc:	00000101 	andeq	r0, r0, r1, lsl #2
    1c00:	00000100 	andeq	r0, r0, r0, lsl #2
    1c04:	732f2e01 			; <UNDEFINED> instruction: 0x732f2e01
    1c08:	66666174 			; <UNDEFINED> instruction: 0x66666174
    1c0c:	6372732d 	cmnvs	r2, #-1275068416	; 0xb4000000
    1c10:	73552f00 	cmpvc	r5, #0, 30
    1c14:	2f737265 	svccs	0x00737265
    1c18:	656c696d 	strbvs	r6, [ip, #-2413]!	; 0xfffff693
    1c1c:	6f532f73 	svcvs	0x00532f73
    1c20:	65637275 	strbvs	r7, [r3, #-629]!	; 0xfffffd8b
    1c24:	3273632f 	rsbscc	r6, r3, #-1140850688	; 0xbc000000
    1c28:	786c3034 	stmdavc	ip!, {r2, r4, r5, ip, sp}^
    1c2c:	62696c2f 	rsbvs	r6, r9, #12032	; 0x2f00
    1c30:	692f6970 	stmdbvs	pc!, {r4, r5, r6, r8, fp, sp, lr}	; <UNPREDICTABLE>
    1c34:	756c636e 	strbvc	r6, [ip, #-878]!	; 0xfffffc92
    1c38:	00006564 	andeq	r6, r0, r4, ror #10
    1c3c:	74737563 	ldrbtvc	r7, [r3], #-1379	; 0xfffffa9d
    1c40:	6c2d6d6f 	stcvs	13, cr6, [sp], #-444	; 0xfffffe44
    1c44:	6564616f 	strbvs	r6, [r4, #-367]!	; 0xfffffe91
    1c48:	00632e72 	rsbeq	r2, r3, r2, ror lr
    1c4c:	72000001 	andvc	r0, r0, #1, 0
    1c50:	682e6970 	stmdavs	lr!, {r4, r5, r6, r8, fp, sp, lr}
    1c54:	00000200 	andeq	r0, r0, r0, lsl #4
    1c58:	001a0500 	andseq	r0, sl, r0, lsl #10
    1c5c:	9b280205 	blls	a02478 <__bss_end__+0x9f7250>
    1c60:	05150000 	ldreq	r0, [r5, #-0]
    1c64:	02021401 	andeq	r1, r2, #16777216	; 0x1000000
    1c68:	14010100 	strne	r0, [r1], #-256	; 0xffffff00
    1c6c:	03000001 	movweq	r0, #1
    1c70:	00005e00 	andeq	r5, r0, r0, lsl #28
    1c74:	fb010200 	blx	4247e <__bss_end__+0x37256>
    1c78:	01000d0e 	tsteq	r0, lr, lsl #26
    1c7c:	00010101 	andeq	r0, r1, r1, lsl #2
    1c80:	00010000 	andeq	r0, r1, r0
    1c84:	2f2e0100 	svccs	0x002e0100
    1c88:	66617473 			; <UNDEFINED> instruction: 0x66617473
    1c8c:	72732d66 	rsbsvc	r2, r3, #6528	; 0x1980
    1c90:	552f0063 	strpl	r0, [pc, #-99]!	; 1c35 <__code_start__-0x63cb>
    1c94:	73726573 	cmnvc	r2, #482344960	; 0x1cc00000
    1c98:	6c696d2f 	stclvs	13, cr6, [r9], #-188	; 0xffffff44
    1c9c:	532f7365 			; <UNDEFINED> instruction: 0x532f7365
    1ca0:	6372756f 	cmnvs	r2, #465567744	; 0x1bc00000
    1ca4:	73632f65 	cmnvc	r3, #404	; 0x194
    1ca8:	6c303432 	cfldrsvs	mvf3, [r0], #-200	; 0xffffff38
    1cac:	696c2f78 	stmdbvs	ip!, {r3, r4, r5, r6, r8, r9, sl, fp, sp}^
    1cb0:	2f697062 	svccs	0x00697062
    1cb4:	6c636e69 	stclvs	14, cr6, [r3], #-420	; 0xfffffe5c
    1cb8:	00656475 	rsbeq	r6, r5, r5, ror r4
    1cbc:	62657200 	rsbvs	r7, r5, #0, 4
    1cc0:	2e746f6f 	cdpcs	15, 7, cr6, cr4, cr15, {3}
    1cc4:	00010063 	andeq	r0, r1, r3, rrx
    1cc8:	69707200 	ldmdbvs	r0!, {r9, ip, sp, lr}^
    1ccc:	0200682e 	andeq	r6, r0, #3014656	; 0x2e0000
    1cd0:	05000000 	streq	r0, [r0, #-0]
    1cd4:	02050019 	andeq	r0, r5, #25, 0
    1cd8:	00009b2c 	andeq	r9, r0, ip, lsr #22
    1cdc:	05010d03 	streq	r0, [r1, #-3331]	; 0xfffff2fd
    1ce0:	31131305 	tstcc	r3, r5, lsl #6
    1ce4:	01061305 	tsteq	r6, r5, lsl #6
    1ce8:	052f0105 	streq	r0, [pc, #-261]!	; 1beb <__code_start__-0x6415>
    1cec:	0585061b 	streq	r0, [r5, #1563]	; 0x61b
    1cf0:	05141305 	ldreq	r1, [r4, #-773]	; 0xfffffcfb
    1cf4:	16052f09 	strne	r2, [r5], -r9, lsl #30
    1cf8:	05050106 	streq	r0, [r5, #-262]	; 0xfffffefa
    1cfc:	0e052f06 	cdpeq	15, 0, cr2, cr5, cr6, {0}
    1d00:	05051106 	streq	r1, [r5, #-262]	; 0xfffffefa
    1d04:	2f01052f 	svccs	0x0001052f
    1d08:	30061705 	andcc	r1, r6, r5, lsl #14
    1d0c:	03130505 	tsteq	r3, #20971520	; 0x1400000
    1d10:	1313016e 	tstne	r3, #-2147483621	; 0x8000001b
    1d14:	03061705 	movweq	r1, #26373	; 0x6705
    1d18:	0505010f 	streq	r0, [r5, #-271]	; 0xfffffef1
    1d1c:	062e7103 	strteq	r7, [lr], -r3, lsl #2
    1d20:	06130531 			; <UNDEFINED> instruction: 0x06130531
    1d24:	03070501 	movweq	r0, #29953	; 0x7501
    1d28:	09052e0d 	stmdbeq	r5, {r0, r2, r3, r9, sl, fp, sp}
    1d2c:	06054b06 	streq	r4, [r5], -r6, lsl #22
    1d30:	05017603 	streq	r7, [r1, #-1539]	; 0xfffff9fd
    1d34:	05141305 	ldreq	r1, [r4, #-773]	; 0xfffffcfb
    1d38:	16052f09 	strne	r2, [r5], -r9, lsl #30
    1d3c:	05050106 	streq	r0, [r5, #-262]	; 0xfffffefa
    1d40:	0e052f06 	cdpeq	15, 0, cr2, cr5, cr6, {0}
    1d44:	05051106 	streq	r1, [r5, #-262]	; 0xfffffefa
    1d48:	03062e2f 	movweq	r2, #28207	; 0x6e2f
    1d4c:	2f30010a 	svccs	0x0030010a
    1d50:	1313134d 	tstne	r3, #872415233	; 0x34000001
    1d54:	02006715 	andeq	r6, r0, #5505024	; 0x540000
    1d58:	05670104 	strbeq	r0, [r7, #-260]!	; 0xfffffefc
    1d5c:	0402000d 	streq	r0, [r2], #-13
    1d60:	0a050101 	beq	14216c <__bss_end__+0x136f44>
    1d64:	01040200 	mrseq	r0, R12_usr
    1d68:	00050501 	andeq	r0, r5, r1, lsl #10
    1d6c:	01010402 	tsteq	r1, r2, lsl #8
    1d70:	02000d05 	andeq	r0, r0, #320	; 0x140
    1d74:	05010104 	streq	r0, [r1, #-260]	; 0xfffffefc
    1d78:	0402000a 	streq	r0, [r2], #-10
    1d7c:	0a020101 	beq	82188 <__bss_end__+0x76f60>
    1d80:	fa010100 	blx	42188 <__bss_end__+0x36f60>
    1d84:	03000001 	movweq	r0, #1
    1d88:	00005d00 	andeq	r5, r0, r0, lsl #26
    1d8c:	fb010200 	blx	42596 <__bss_end__+0x3736e>
    1d90:	01000d0e 	tsteq	r0, lr, lsl #26
    1d94:	00010101 	andeq	r0, r1, r1, lsl #2
    1d98:	00010000 	andeq	r0, r1, r0
    1d9c:	2f2e0100 	svccs	0x002e0100
    1da0:	66617473 			; <UNDEFINED> instruction: 0x66617473
    1da4:	72732d66 	rsbsvc	r2, r3, #6528	; 0x1980
    1da8:	552f0063 	strpl	r0, [pc, #-99]!	; 1d4d <__code_start__-0x62b3>
    1dac:	73726573 	cmnvc	r2, #482344960	; 0x1cc00000
    1db0:	6c696d2f 	stclvs	13, cr6, [r9], #-188	; 0xffffff44
    1db4:	532f7365 			; <UNDEFINED> instruction: 0x532f7365
    1db8:	6372756f 	cmnvs	r2, #465567744	; 0x1bc00000
    1dbc:	73632f65 	cmnvc	r3, #404	; 0x194
    1dc0:	6c303432 	cfldrsvs	mvf3, [r0], #-200	; 0xffffff38
    1dc4:	696c2f78 	stmdbvs	ip!, {r3, r4, r5, r6, r8, r9, sl, fp, sp}^
    1dc8:	2f697062 	svccs	0x00697062
    1dcc:	6c636e69 	stclvs	14, cr6, [r3], #-420	; 0xfffffe5c
    1dd0:	00656475 	rsbeq	r6, r5, r5, ror r4
    1dd4:	6d697400 	cfstrdvs	mvd7, [r9, #-0]
    1dd8:	632e7265 			; <UNDEFINED> instruction: 0x632e7265
    1ddc:	00000100 	andeq	r0, r0, r0, lsl #2
    1de0:	2e697072 	mcrcs	0, 3, r7, cr9, cr2, {3}
    1de4:	00020068 	andeq	r0, r2, r8, rrx
    1de8:	23050000 	movwcs	r0, #20480	; 0x5000
    1dec:	b8020500 	stmdalt	r2, {r8, sl}
    1df0:	1500009b 	strne	r0, [r0, #-155]	; 0xffffff65
    1df4:	05130505 	ldreq	r0, [r3, #-1285]	; 0xfffffafb
    1df8:	0501060c 	streq	r0, [r1, #-1548]	; 0xfffff9f4
    1dfc:	056a061f 	strbeq	r0, [sl, #-1567]!	; 0xfffff9e1
    1e00:	1f051505 	svcne	0x00051505
    1e04:	05050f06 	streq	r0, [r5, #-3846]	; 0xfffff0fa
    1e08:	052f0631 	streq	r0, [pc, #-1585]!	; 17df <__code_start__-0x6821>
    1e0c:	0177030a 	cmneq	r7, sl, lsl #6
    1e10:	05130505 	ldreq	r0, [r3, #-1285]	; 0xfffffafb
    1e14:	6601060c 	strvs	r0, [r1], -ip, lsl #12
    1e18:	03060505 	movweq	r0, #25861	; 0x6505
    1e1c:	052f0109 	streq	r0, [pc, #-265]!	; 1d1b <__code_start__-0x62e5>
    1e20:	05130601 	ldreq	r0, [r3, #-1537]	; 0xfffff9ff
    1e24:	0568061c 	strbeq	r0, [r8, #-1564]!	; 0xfffff9e4
    1e28:	0a051305 	beq	146a44 <__bss_end__+0x13b81c>
    1e2c:	05017603 	streq	r7, [r1, #-1539]	; 0xfffff9fd
    1e30:	1c051505 	cfstr32ne	mvfx1, [r5], {5}
    1e34:	052e1806 	streq	r1, [lr, #-2054]!	; 0xfffff7fa
    1e38:	2e7a0305 	cdpcs	3, 7, cr0, cr10, cr5, {0}
    1e3c:	0a052f06 	beq	14da5c <__bss_end__+0x142834>
    1e40:	05017703 	streq	r7, [r1, #-1795]	; 0xfffff8fd
    1e44:	0c051305 	stceq	3, cr1, [r5], {5}
    1e48:	05660106 	strbeq	r0, [r6, #-262]!	; 0xfffffefa
    1e4c:	09030605 	stmdbeq	r3, {r0, r2, r9, sl}
    1e50:	01062f01 	tsteq	r6, r1, lsl #30
    1e54:	76030c05 	strvc	r0, [r3], -r5, lsl #24
    1e58:	06050501 	streq	r0, [r5], -r1, lsl #10
    1e5c:	052e0f03 	streq	r0, [lr, #-3843]!	; 0xfffff0fd
    1e60:	0a051309 	beq	146a8c <__bss_end__+0x13b864>
    1e64:	05017403 	streq	r7, [r1, #-1027]	; 0xfffffbfd
    1e68:	052f1505 	streq	r1, [pc, #-1285]!	; 196b <__code_start__-0x6695>
    1e6c:	0177030a 	cmneq	r7, sl, lsl #6
    1e70:	05130505 	ldreq	r0, [r3, #-1285]	; 0xfffffafb
    1e74:	6601060c 	strvs	r0, [r1], -ip, lsl #12
    1e78:	03060505 	movweq	r0, #25861	; 0x6505
    1e7c:	11050109 	tstne	r5, r9, lsl #2
    1e80:	05051a06 	streq	r1, [r5, #-2566]	; 0xfffff5fa
    1e84:	062e7803 	strteq	r7, [lr], -r3, lsl #16
    1e88:	1909052f 	stmdbne	r9, {r0, r1, r2, r3, r5, r8, sl}
    1e8c:	01060c05 	tsteq	r6, r5, lsl #24
    1e90:	87061c05 	strhi	r1, [r6, -r5, lsl #24]
    1e94:	05130505 	ldreq	r0, [r3, #-1285]	; 0xfffffafb
    1e98:	0511061c 	ldreq	r0, [r1, #-1564]	; 0xfffff9e4
    1e9c:	054a2f05 	strbeq	r2, [sl, #-3845]	; 0xfffff0fb
    1ea0:	76030606 	strvc	r0, [r3], -r6, lsl #12
    1ea4:	1305052e 	movwne	r0, #21806	; 0x552e
    1ea8:	76030a05 	strvc	r0, [r3], -r5, lsl #20
    1eac:	15050501 	strne	r0, [r5, #-1281]	; 0xfffffaff
    1eb0:	030a052f 	movweq	r0, #42287	; 0xa52f
    1eb4:	05050177 	streq	r0, [r5, #-375]	; 0xfffffe89
    1eb8:	060c0513 			; <UNDEFINED> instruction: 0x060c0513
    1ebc:	05056601 	streq	r6, [r5, #-1537]	; 0xfffff9ff
    1ec0:	01090306 	tsteq	r9, r6, lsl #6
    1ec4:	0501062f 	streq	r0, [r1, #-1583]	; 0xfffff9d1
    1ec8:	0176030c 	cmneq	r6, ip, lsl #6
    1ecc:	03060505 	movweq	r0, #25861	; 0x6505
    1ed0:	09052e0f 	stmdbeq	r5, {r0, r1, r2, r3, r9, sl, fp, sp}
    1ed4:	030a0513 	movweq	r0, #42259	; 0xa513
    1ed8:	05050174 	streq	r0, [r5, #-372]	; 0xfffffe8c
    1edc:	0a052f15 	beq	14db38 <__bss_end__+0x142910>
    1ee0:	05017703 	streq	r7, [r1, #-1795]	; 0xfffff8fd
    1ee4:	0c051305 	stceq	3, cr1, [r5], {5}
    1ee8:	05660106 	strbeq	r0, [r6, #-262]!	; 0xfffffefa
    1eec:	09030605 	stmdbeq	r3, {r0, r2, r9, sl}
    1ef0:	06110501 	ldreq	r0, [r1], -r1, lsl #10
    1ef4:	0305051a 	movweq	r0, #21786	; 0x551a
    1ef8:	2f062e78 	svccs	0x00062e78
    1efc:	05190905 	ldreq	r0, [r9, #-2309]	; 0xfffff6fb
    1f00:	0501060c 	streq	r0, [r1, #-1548]	; 0xfffff9f4
    1f04:	058a061e 	streq	r0, [sl, #1566]	; 0x61e
    1f08:	06051305 	streq	r1, [r5], -r5, lsl #6
    1f0c:	1305050e 	movwne	r0, #21774	; 0x550e
    1f10:	14061e05 	strne	r1, [r6], #-3589	; 0xfffff1fb
    1f14:	662c0505 	strtvs	r0, [ip], -r5, lsl #10
    1f18:	03060605 	movweq	r0, #26117	; 0x6605
    1f1c:	05052e76 	streq	r2, [r5, #-3702]	; 0xfffff18a
    1f20:	030a0513 	movweq	r0, #42259	; 0xa513
    1f24:	05050176 	streq	r0, [r5, #-374]	; 0xfffffe8a
    1f28:	0a052f15 	beq	14db84 <__bss_end__+0x14295c>
    1f2c:	05017703 	streq	r7, [r1, #-1795]	; 0xfffff8fd
    1f30:	0c051305 	stceq	3, cr1, [r5], {5}
    1f34:	05660106 	strbeq	r0, [r6, #-262]!	; 0xfffffefa
    1f38:	09030605 	stmdbeq	r3, {r0, r2, r9, sl}
    1f3c:	01062f01 	tsteq	r6, r1, lsl #30
    1f40:	76030c05 	strvc	r0, [r3], -r5, lsl #24
    1f44:	06050501 	streq	r0, [r5], -r1, lsl #10
    1f48:	052e0f03 	streq	r0, [lr, #-3843]!	; 0xfffff0fd
    1f4c:	0a051309 	beq	146b78 <__bss_end__+0x13b950>
    1f50:	05017403 	streq	r7, [r1, #-1027]	; 0xfffffbfd
    1f54:	052f1505 	streq	r1, [pc, #-1285]!	; 1a57 <__code_start__-0x65a9>
    1f58:	0177030a 	cmneq	r7, sl, lsl #6
    1f5c:	05130505 	ldreq	r0, [r3, #-1285]	; 0xfffffafb
    1f60:	6601060c 	strvs	r0, [r1], -ip, lsl #12
    1f64:	03060505 	movweq	r0, #25861	; 0x6505
    1f68:	11050109 	tstne	r5, r9, lsl #2
    1f6c:	05051a06 	streq	r1, [r5, #-2566]	; 0xfffff5fa
    1f70:	062e7803 	strteq	r7, [lr], -r3, lsl #16
    1f74:	1909052f 	stmdbne	r9, {r0, r1, r2, r3, r5, r8, sl}
    1f78:	01060c05 	tsteq	r6, r5, lsl #24
    1f7c:	01000802 	tsteq	r0, r2, lsl #16
    1f80:	00020401 	andeq	r0, r2, r1, lsl #8
    1f84:	c8000300 	stmdagt	r0, {r8, r9}
    1f88:	02000000 	andeq	r0, r0, #0, 0
    1f8c:	0d0efb01 	vstreq	d15, [lr, #-4]
    1f90:	01010100 	mrseq	r0, (UNDEF: 17)
    1f94:	00000001 	andeq	r0, r0, r1
    1f98:	01000001 	tsteq	r0, r1
    1f9c:	6d6f682f 	stclvs	8, cr6, [pc, #-188]!	; 1ee8 <__code_start__-0x6118>
    1fa0:	6e652f65 	cdpvs	15, 6, cr2, cr5, cr5, {3}
    1fa4:	72656c67 	rsbvc	r6, r5, #26368	; 0x6700
    1fa8:	616c632f 	cmnvs	ip, pc, lsr #6
    1fac:	632f7373 			; <UNDEFINED> instruction: 0x632f7373
    1fb0:	30343173 	eorscc	r3, r4, r3, ror r1
    1fb4:	32322d65 	eorscc	r2, r2, #6464	; 0x1940
    1fb8:	2f6e6977 	svccs	0x006e6977
    1fbc:	62696c2f 	rsbvs	r6, r9, #12032	; 0x2f00
    1fc0:	692f6970 	stmdbvs	pc!, {r4, r5, r6, r8, fp, sp, lr}	; <UNPREDICTABLE>
    1fc4:	756c636e 	strbvc	r6, [ip, #-878]!	; 0xfffffc92
    1fc8:	2f006564 	svccs	0x00006564
    1fcc:	2f727375 	svccs	0x00727375
    1fd0:	72616873 	rsbvc	r6, r1, #7536640	; 0x730000
    1fd4:	63672f65 	cmnvs	r7, #404	; 0x194
    1fd8:	72612d63 	rsbvc	r2, r1, #6336	; 0x18c0
    1fdc:	6f6e2d6d 	svcvs	0x006e2d6d
    1fe0:	652d656e 	strvs	r6, [sp, #-1390]!	; 0xfffffa92
    1fe4:	2d696261 	sfmcs	f6, 2, [r9, #-388]!	; 0xfffffe7c
    1fe8:	332e3031 			; <UNDEFINED> instruction: 0x332e3031
    1fec:	3230322d 	eorscc	r3, r0, #-805306366	; 0xd0000002
    1ff0:	30312e31 	eorscc	r2, r1, r1, lsr lr
    1ff4:	62696c2f 	rsbvs	r6, r9, #12032	; 0x2f00
    1ff8:	6363672f 	cmnvs	r3, #12320768	; 0xbc0000
    1ffc:	6d72612f 	ldfvse	f6, [r2, #-188]!	; 0xffffff44
    2000:	6e6f6e2d 	cdpvs	14, 6, cr6, cr15, cr13, {1}
    2004:	61652d65 	cmnvs	r5, r5, ror #26
    2008:	312f6962 			; <UNDEFINED> instruction: 0x312f6962
    200c:	2e332e30 	mrccs	14, 1, r2, cr3, cr0, {1}
    2010:	6e692f31 	mcrvs	15, 3, r2, cr9, cr1, {1}
    2014:	64756c63 	ldrbtvs	r6, [r5], #-3171	; 0xfffff39d
    2018:	75000065 	strvc	r0, [r0, #-101]	; 0xffffff9b
    201c:	2e747261 	cdpcs	2, 7, cr7, cr4, cr1, {3}
    2020:	00000063 	andeq	r0, r0, r3, rrx
    2024:	72617500 	rsbvc	r7, r1, #0, 10
    2028:	00682e74 	rsbeq	r2, r8, r4, ror lr
    202c:	72000001 	andvc	r0, r0, #1, 0
    2030:	682e6970 	stmdavs	lr!, {r4, r5, r6, r8, fp, sp, lr}
    2034:	00000100 	andeq	r0, r0, r0, lsl #2
    2038:	6f697067 	svcvs	0x00697067
    203c:	0100682e 	tsteq	r0, lr, lsr #16
    2040:	74730000 	ldrbtvc	r0, [r3], #-0
    2044:	746e6964 	strbtvc	r6, [lr], #-2404	; 0xfffff69c
    2048:	6363672d 	cmnvs	r3, #11796480	; 0xb40000
    204c:	0200682e 	andeq	r6, r0, #3014656	; 0x2e0000
    2050:	05000000 	streq	r0, [r0, #-0]
    2054:	02050039 	andeq	r0, r5, #57, 0	; 0x39
    2058:	00009cd4 	ldrdeq	r9, [r0], -r4
    205c:	06013003 	streq	r3, [r1], -r3
    2060:	06050501 	streq	r0, [r5], -r1, lsl #10
    2064:	06110567 	ldreq	r0, [r1], -r7, ror #10
    2068:	2e050501 	cfsh32cs	mvfx0, mvfx5, #1
    206c:	05670105 	strbeq	r0, [r7, #-261]!	; 0xfffffefb
    2070:	06290638 			; <UNDEFINED> instruction: 0x06290638
    2074:	06050501 	streq	r0, [r5], -r1, lsl #10
    2078:	06110567 	ldreq	r0, [r1], -r7, ror #10
    207c:	2e050501 	cfsh32cs	mvfx0, mvfx5, #1
    2080:	05670105 	strbeq	r0, [r7, #-261]!	; 0xfffffefb
    2084:	15030616 	strne	r0, [r3, #-1558]	; 0xfffff9ea
    2088:	3505052e 	strcc	r0, [r5, #-1326]	; 0xfffffad2
    208c:	68356867 	ldmdavs	r5!, {r0, r1, r2, r5, r6, fp, sp, lr}
    2090:	852e0c03 	strhi	r0, [lr, #-3075]!	; 0xfffff3fd
    2094:	0369696b 	cmneq	r9, #1753088	; 0x1ac000
    2098:	6b13660c 	blvs	4db8d0 <__bss_end__+0x4d06a8>
    209c:	06010567 	streq	r0, [r1], -r7, ror #10
    20a0:	0619052f 	ldreq	r0, [r9], -pc, lsr #10
    20a4:	05052508 	streq	r2, [r5, #-1288]	; 0xfffffaf8
    20a8:	060d0534 			; <UNDEFINED> instruction: 0x060d0534
    20ac:	4c010501 	cfstr32mi	mvfx0, [r1], {1}
    20b0:	67061905 	strvs	r1, [r6, -r5, lsl #18]
    20b4:	05360505 	ldreq	r0, [r6, #-1285]!	; 0xfffffafb
    20b8:	0501060d 	streq	r0, [r1, #-1549]	; 0xfffff9f3
    20bc:	01054a28 	tsteq	r5, r8, lsr #20
    20c0:	06150530 			; <UNDEFINED> instruction: 0x06150530
    20c4:	2f050587 	svccs	0x00050587
    20c8:	0009052f 	andeq	r0, r9, pc, lsr #10
    20cc:	13010402 	movwne	r0, #5122	; 0x1402
    20d0:	02000a05 	andeq	r0, r0, #20480	; 0x5000
    20d4:	05110104 	ldreq	r0, [r1, #-260]	; 0xfffffefc
    20d8:	0402000c 	streq	r0, [r2], #-12
    20dc:	05010601 	streq	r0, [r1, #-1537]	; 0xfffff9ff
    20e0:	0402000a 	streq	r0, [r2], #-10
    20e4:	05052e01 	streq	r2, [r5, #-3585]	; 0xfffff1ff
    20e8:	0e054c06 	cdpeq	12, 0, cr4, cr5, cr6, {0}
    20ec:	09050106 	stmdbeq	r5, {r1, r2, r8}
    20f0:	0605054a 	streq	r0, [r5], -sl, asr #10
    20f4:	01052f2f 	tsteq	r5, pc, lsr #30
    20f8:	1c051306 	stcne	3, cr1, [r5], {6}
    20fc:	01066706 	tsteq	r6, r6, lsl #14
    2100:	4b060505 	blmi	18351c <__bss_end__+0x1782f4>
    2104:	0009052f 	andeq	r0, r9, pc, lsr #10
    2108:	13010402 	movwne	r0, #5122	; 0x1402
    210c:	02000a05 	andeq	r0, r0, #20480	; 0x5000
    2110:	05110104 	ldreq	r0, [r1, #-260]	; 0xfffffefc
    2114:	0402000c 	streq	r0, [r2], #-12
    2118:	05010601 	streq	r0, [r1, #-1537]	; 0xfffff9ff
    211c:	0402000a 	streq	r0, [r2], #-10
    2120:	05052e01 	streq	r2, [r5, #-3585]	; 0xfffff1ff
    2124:	05674c06 	strbeq	r4, [r7, #-3078]!	; 0xfffff3fa
    2128:	052f0601 	streq	r0, [pc, #-1537]!	; 1b2f <__code_start__-0x64d1>
    212c:	054c0619 	strbeq	r0, [ip, #-1561]	; 0xfffff9e7
    2130:	2a052e1b 	bcs	14d9a4 <__bss_end__+0x14277c>
    2134:	0631052e 	ldrteq	r0, [r1], -lr, lsr #10
    2138:	2e420501 	cdpcs	5, 4, cr0, cr2, cr1, {0}
    213c:	31061c05 	tstcc	r6, r5, lsl #24
    2140:	032f0505 			; <UNDEFINED> instruction: 0x032f0505
    2144:	0e052e09 	cdpeq	14, 0, cr2, cr5, cr9, {0}
    2148:	21050106 	tstcs	r5, r6, lsl #2
    214c:	0301054a 	movweq	r0, #5450	; 0x154a
    2150:	1a052e0a 	bne	14d980 <__bss_end__+0x142758>
    2154:	09056806 	stmdbeq	r5, {r1, r2, fp, sp, lr}
    2158:	01040200 	mrseq	r0, R12_usr
    215c:	000a0530 	andeq	r0, sl, r0, lsr r5
    2160:	11010402 	tstne	r1, r2, lsl #8
    2164:	02000c05 	andeq	r0, r0, #1280	; 0x500
    2168:	01060104 	tsteq	r6, r4, lsl #2
    216c:	02000a05 	andeq	r0, r0, #20480	; 0x5000
    2170:	052e0104 	streq	r0, [lr, #-260]!	; 0xfffffefc
    2174:	e8030619 	stmda	r3, {r0, r3, r4, r9, sl}
    2178:	0505667e 	streq	r6, [r5, #-1662]	; 0xfffff982
    217c:	672f2f2f 	strvs	r2, [pc, -pc, lsr #30]!
    2180:	2f060105 	svccs	0x00060105
    2184:	01000402 	tsteq	r0, r2, lsl #8
    2188:	00039201 	andeq	r9, r3, r1, lsl #4
    218c:	b7000300 	strlt	r0, [r0, -r0, lsl #6]
    2190:	02000000 	andeq	r0, r0, #0, 0
    2194:	0d0efb01 	vstreq	d15, [lr, #-4]
    2198:	01010100 	mrseq	r0, (UNDEF: 17)
    219c:	00000001 	andeq	r0, r0, r1
    21a0:	01000001 	tsteq	r0, r1
    21a4:	6d6f682f 	stclvs	8, cr6, [pc, #-188]!	; 20f0 <__code_start__-0x5f10>
    21a8:	6e652f65 	cdpvs	15, 6, cr2, cr5, cr5, {3}
    21ac:	72656c67 	rsbvc	r6, r5, #26368	; 0x6700
    21b0:	616c632f 	cmnvs	ip, pc, lsr #6
    21b4:	632f7373 			; <UNDEFINED> instruction: 0x632f7373
    21b8:	30343173 	eorscc	r3, r4, r3, ror r1
    21bc:	32322d65 	eorscc	r2, r2, #6464	; 0x1940
    21c0:	2f6e6977 	svccs	0x006e6977
    21c4:	62696c2f 	rsbvs	r6, r9, #12032	; 0x2f00
    21c8:	692f6970 	stmdbvs	pc!, {r4, r5, r6, r8, fp, sp, lr}	; <UNPREDICTABLE>
    21cc:	756c636e 	strbvc	r6, [ip, #-878]!	; 0xfffffc92
    21d0:	2f006564 	svccs	0x00006564
    21d4:	2f727375 	svccs	0x00727375
    21d8:	72616873 	rsbvc	r6, r1, #7536640	; 0x730000
    21dc:	63672f65 	cmnvs	r7, #404	; 0x194
    21e0:	72612d63 	rsbvc	r2, r1, #6336	; 0x18c0
    21e4:	6f6e2d6d 	svcvs	0x006e2d6d
    21e8:	652d656e 	strvs	r6, [sp, #-1390]!	; 0xfffffa92
    21ec:	2d696261 	sfmcs	f6, 2, [r9, #-388]!	; 0xfffffe7c
    21f0:	332e3031 			; <UNDEFINED> instruction: 0x332e3031
    21f4:	3230322d 	eorscc	r3, r0, #-805306366	; 0xd0000002
    21f8:	30312e31 	eorscc	r2, r1, r1, lsr lr
    21fc:	62696c2f 	rsbvs	r6, r9, #12032	; 0x2f00
    2200:	6363672f 	cmnvs	r3, #12320768	; 0xbc0000
    2204:	6d72612f 	ldfvse	f6, [r2, #-188]!	; 0xffffff44
    2208:	6e6f6e2d 	cdpvs	14, 6, cr6, cr15, cr13, {1}
    220c:	61652d65 	cmnvs	r5, r5, ror #26
    2210:	312f6962 			; <UNDEFINED> instruction: 0x312f6962
    2214:	2e332e30 	mrccs	14, 1, r2, cr3, cr0, {1}
    2218:	6e692f31 	mcrvs	15, 3, r2, cr9, cr1, {1}
    221c:	64756c63 	ldrbtvs	r6, [r5], #-3171	; 0xfffff39d
    2220:	6b000065 	blvs	23bc <__code_start__-0x5c44>
    2224:	6c6c616d 	stfvse	f6, [ip], #-436	; 0xfffffe4c
    2228:	632e636f 			; <UNDEFINED> instruction: 0x632e636f
    222c:	00000000 	andeq	r0, r0, r0
    2230:	2e697072 	mcrcs	0, 3, r7, cr9, cr2, {3}
    2234:	00010068 	andeq	r0, r1, r8, rrx
    2238:	64747300 	ldrbtvs	r7, [r4], #-768	; 0xfffffd00
    223c:	2d746e69 	ldclcs	14, cr6, [r4, #-420]!	; 0xfffffe5c
    2240:	2e636367 	cdpcs	3, 6, cr6, cr3, cr7, {3}
    2244:	00020068 	andeq	r0, r2, r8, rrx
    2248:	1e050000 	cdpne	0, 0, cr0, cr5, cr0, {0}
    224c:	c4020500 	strgt	r0, [r2], #-1280	; 0xfffffb00
    2250:	0300009e 	movweq	r0, #158	; 0x9e
    2254:	20050127 	andcs	r0, r5, r7, lsr #2
    2258:	062d0501 	strteq	r0, [sp], -r1, lsl #10
    225c:	06200501 	strteq	r0, [r0], -r1, lsl #10
    2260:	01220583 	smlawbeq	r2, r3, r5, r0
    2264:	01063505 	tsteq	r6, r5, lsl #10
    2268:	83061e05 	movwhi	r1, #28165	; 0x6e05
    226c:	05012005 	streq	r2, [r1, #-5]
    2270:	0501062d 	streq	r0, [r1, #-1581]	; 0xfffff9d3
    2274:	06850642 	streq	r0, [r5], r2, asr #12
    2278:	06050501 	streq	r0, [r5], -r1, lsl #10
    227c:	0601144b 	streq	r1, [r1], -fp, asr #8
    2280:	0402002e 	streq	r0, [r2], #-46	; 0xffffffd2
    2284:	002e0602 	eoreq	r0, lr, r2, lsl #12
    2288:	01020402 	tsteq	r2, r2, lsl #8
    228c:	02040200 	andeq	r0, r4, #0, 4
    2290:	000d0515 	andeq	r0, sp, r5, lsl r5
    2294:	06020402 	streq	r0, [r2], -r2, lsl #8
    2298:	00070501 	andeq	r0, r7, r1, lsl #10
    229c:	4a020402 	bmi	832ac <__bss_end__+0x78084>
    22a0:	4b060905 	blmi	1846bc <__bss_end__+0x179494>
    22a4:	05150505 	ldreq	r0, [r5, #-1285]	; 0xfffffafb
    22a8:	05010617 	streq	r0, [r1, #-1559]	; 0xfffff9e9
    22ac:	05054a10 	streq	r4, [r5, #-2576]	; 0xfffff5f0
    22b0:	1b052f06 	blne	14ded0 <__bss_end__+0x142ca8>
    22b4:	0e050106 	adfeqs	f0, f5, f6
    22b8:	2f01052e 	svccs	0x0001052e
    22bc:	02000505 	andeq	r0, r0, #20971520	; 0x1400000
    22c0:	03060104 	movweq	r0, #24836	; 0x6104
    22c4:	02004a77 	andeq	r4, r0, #487424	; 0x77000
    22c8:	00010104 	andeq	r0, r1, r4, lsl #2
    22cc:	06010402 	streq	r0, [r1], -r2, lsl #8
    22d0:	0402009e 	streq	r0, [r2], #-158	; 0xffffff62
    22d4:	02002e01 	andeq	r2, r0, #1, 28
    22d8:	2e060104 	adfcss	f0, f6, f4
    22dc:	01320905 	teqeq	r2, r5, lsl #18
    22e0:	062ed606 	strteq	sp, [lr], -r6, lsl #12
    22e4:	de19052e 	cfmul64le	mvdx0, mvdx9, mvdx14
    22e8:	142f0505 	strtne	r0, [pc], #-1285	; 22f0 <__code_start__-0x5d10>
    22ec:	01060805 	tsteq	r6, r5, lsl #16
    22f0:	054a0705 	strbeq	r0, [sl, #-1797]	; 0xfffff8fb
    22f4:	054b0609 	strbeq	r0, [fp, #-1545]	; 0xfffff9f7
    22f8:	0c051305 	stceq	3, cr1, [r5], {5}
    22fc:	05050106 	streq	r0, [r5, #-262]	; 0xfffffefa
    2300:	05136706 	ldreq	r6, [r3, #-1798]	; 0xfffff8fa
    2304:	05670601 	strbeq	r0, [r7, #-1537]!	; 0xfffff9ff
    2308:	012a0609 			; <UNDEFINED> instruction: 0x012a0609
    230c:	a528059e 	strge	r0, [r8, #-1438]!	; 0xfffffa62
    2310:	05050106 	streq	r0, [r5, #-262]	; 0xfffffefa
    2314:	06014b06 	streq	r4, [r1], -r6, lsl #22
    2318:	012e062e 			; <UNDEFINED> instruction: 0x012e062e
    231c:	03180513 	tsteq	r8, #79691776	; 0x4c00000
    2320:	05050147 	streq	r0, [r5, #-327]	; 0xfffffeb9
    2324:	01060113 	tsteq	r6, r3, lsl r1
    2328:	01150f06 	tsteq	r5, r6, lsl #30
    232c:	060e0513 			; <UNDEFINED> instruction: 0x060e0513
    2330:	2e160501 	cfmul32cs	mvfx0, mvfx6, mvfx1
    2334:	0605052e 	streq	r0, [r5], -lr, lsr #10
    2338:	05013903 	streq	r3, [r1, #-2307]	; 0xfffff6fd
    233c:	0501060b 	streq	r0, [r1, #-1547]	; 0xfffff9f5
    2340:	054b0605 	strbeq	r0, [fp, #-1541]	; 0xfffff9fb
    2344:	0501060a 	streq	r0, [r1, #-1546]	; 0xfffff9f6
    2348:	054b0605 	strbeq	r0, [fp, #-1541]	; 0xfffff9fb
    234c:	0501060d 	streq	r0, [r1, #-1549]	; 0xfffff9f3
    2350:	01052e07 	tsteq	r5, r7, lsl #28
    2354:	0005054d 	andeq	r0, r5, sp, asr #10
    2358:	06010402 	streq	r0, [r1], -r2, lsl #8
    235c:	004a7803 	subeq	r7, sl, r3, lsl #16
    2360:	01010402 	tsteq	r1, r2, lsl #8
    2364:	01040200 	mrseq	r0, R12_usr
    2368:	0200ba06 	andeq	fp, r0, #24576	; 0x6000
    236c:	2e060104 	adfcss	f0, f6, f4
    2370:	01340905 	teqeq	r4, r5, lsl #18
    2374:	06668206 	strbteq	r8, [r6], -r6, lsl #4
    2378:	db20052e 	blle	803838 <__bss_end__+0x7f8610>
    237c:	05050106 	streq	r0, [r5, #-262]	; 0xfffffefa
    2380:	00014b06 	andeq	r4, r1, r6, lsl #22
    2384:	4a020402 	bmi	83394 <__bss_end__+0x7816c>
    2388:	02040200 	andeq	r0, r4, #0, 4
    238c:	04020001 	streq	r0, [r2], #-1
    2390:	12051302 	andne	r1, r5, #134217728	; 0x8000000
    2394:	02040200 	andeq	r0, r4, #0, 4
    2398:	02000106 	andeq	r0, r0, #-2147483647	; 0x80000001
    239c:	002e0204 	eoreq	r0, lr, r4, lsl #4
    23a0:	2e020402 	cdpcs	4, 0, cr0, cr2, cr2, {0}
    23a4:	02000505 	andeq	r0, r0, #20971520	; 0x1400000
    23a8:	2f060204 	svccs	0x00060204
    23ac:	02040200 	andeq	r0, r4, #0, 4
    23b0:	00010567 	andeq	r0, r1, r7, ror #10
    23b4:	06020402 	streq	r0, [r2], -r2, lsl #8
    23b8:	00050513 	andeq	r0, r5, r3, lsl r5
    23bc:	06010402 	streq	r0, [r1], -r2, lsl #8
    23c0:	04020062 	streq	r0, [r2], #-98	; 0xffffff9e
    23c4:	02000101 	andeq	r0, r0, #1073741824	; 0x40000000
    23c8:	ba060104 	blt	1827e0 <__bss_end__+0x1775b8>
    23cc:	01040200 	mrseq	r0, R12_usr
    23d0:	3c052e06 	stccc	14, cr2, [r5], {6}
    23d4:	069e0a03 	ldreq	r0, [lr], r3, lsl #20
    23d8:	06050501 	streq	r0, [r5], -r1, lsl #10
    23dc:	2e06014b 	adfcssm	f0, f6, #3.0
    23e0:	13012e06 	movwne	r2, #7686	; 0x1e06
    23e4:	03180501 	tsteq	r8, #4194304	; 0x400000
    23e8:	05017fad 	streq	r7, [r1, #-4013]	; 0xfffff053
    23ec:	11051305 	tstne	r5, r5, lsl #6
    23f0:	052e0106 	streq	r0, [lr, #-262]!	; 0xfffffefa
    23f4:	00d20305 	sbcseq	r0, r2, r5, lsl #6
    23f8:	134a0601 	movtne	r0, #42497	; 0xa601
    23fc:	a3031805 	movwge	r1, #14341	; 0x3805
    2400:	0505017f 	streq	r0, [r5, #-383]	; 0xfffffe81
    2404:	06160513 			; <UNDEFINED> instruction: 0x06160513
    2408:	05054a01 	streq	r4, [r5, #-2561]	; 0xfffff5ff
    240c:	00e10306 	rsceq	r0, r1, r6, lsl #6
    2410:	06120501 	ldreq	r0, [r2], -r1, lsl #10
    2414:	06050501 	streq	r0, [r5], -r1, lsl #10
    2418:	0318054b 	tsteq	r8, #314572800	; 0x12c00000
    241c:	05017fa9 	streq	r7, [r1, #-4009]	; 0xfffff057
    2420:	05011305 	streq	r1, [r1, #-773]	; 0xfffffcfb
    2424:	05050e18 	streq	r0, [r5, #-3608]	; 0xfffff1e8
    2428:	06110513 			; <UNDEFINED> instruction: 0x06110513
    242c:	05052e01 	streq	r2, [r5, #-3585]	; 0xfffff1ff
    2430:	014a0615 	cmpeq	sl, r5, lsl r6
    2434:	060e0513 			; <UNDEFINED> instruction: 0x060e0513
    2438:	16052e01 	strne	r2, [r5], -r1, lsl #28
    243c:	05052e2e 	streq	r2, [r5, #-3630]	; 0xfffff1d2
    2440:	00d60306 	sbcseq	r0, r6, r6, lsl #6
    2444:	18050101 	stmdane	r5, {r0, r8}
    2448:	017f9f03 	cmneq	pc, r3, lsl #30
    244c:	05130505 	ldreq	r0, [r3, #-1285]	; 0xfffffafb
    2450:	2e010619 	mcrcs	6, 0, r0, cr1, cr9, {0}
    2454:	e0030505 	and	r0, r3, r5, lsl #10
    2458:	02000100 	andeq	r0, r0, #0
    245c:	4a060204 	bmi	182c74 <__bss_end__+0x177a4c>
    2460:	02040200 	andeq	r0, r4, #0, 4
    2464:	000a0514 	andeq	r0, sl, r4, lsl r5
    2468:	06020402 	streq	r0, [r2], -r2, lsl #8
    246c:	00050501 	andeq	r0, r5, r1, lsl #10
    2470:	06020402 	streq	r0, [r2], -r2, lsl #8
    2474:	000c054b 	andeq	r0, ip, fp, asr #10
    2478:	06020402 	streq	r0, [r2], -r2, lsl #8
    247c:	00010501 	andeq	r0, r1, r1, lsl #10
    2480:	2f020402 	svccs	0x00020402
    2484:	02000505 	andeq	r0, r0, #20971520	; 0x1400000
    2488:	03060104 	movweq	r0, #24836	; 0x6104
    248c:	02004a73 	andeq	r4, r0, #471040	; 0x73000
    2490:	00010104 	andeq	r0, r1, r4, lsl #2
    2494:	06010402 	streq	r0, [r1], -r2, lsl #8
    2498:	0402009e 	streq	r0, [r2], #-158	; 0xffffff62
    249c:	02002e01 	andeq	r2, r0, #1, 28
    24a0:	2e060104 	adfcss	f0, f6, f4
    24a4:	01040200 	mrseq	r0, R12_usr
    24a8:	0402002f 	streq	r0, [r2], #-47	; 0xffffffd1
    24ac:	02002e01 	andeq	r2, r0, #1, 28
    24b0:	03d60104 	bicseq	r0, r6, #1
    24b4:	012e7fb1 			; <UNDEFINED> instruction: 0x012e7fb1
    24b8:	2e2e8206 	cdpcs	2, 2, cr8, cr14, cr6, {0}
    24bc:	2e062e06 	cdpcs	14, 0, cr2, cr6, cr6, {0}
    24c0:	01040200 	mrseq	r0, R12_usr
    24c4:	00d70306 	sbcseq	r0, r7, r6, lsl #6
    24c8:	04020001 	streq	r0, [r2], #-1
    24cc:	02002e01 	andeq	r2, r0, #1, 28
    24d0:	05d60104 	ldrbeq	r0, [r6, #260]	; 0x104
    24d4:	057b0815 	ldrbeq	r0, [fp, #-2069]!	; 0xfffff7eb
    24d8:	16050117 			; <UNDEFINED> instruction: 0x16050117
    24dc:	01180531 	tsteq	r8, r1, lsr r5
    24e0:	01061d05 	tsteq	r6, r5, lsl #26
    24e4:	05662b05 	strbeq	r2, [r6, #-2821]!	; 0xfffff4fb
    24e8:	054d0619 	strbeq	r0, [sp, #-1561]	; 0xfffff9e7
    24ec:	0c051305 	stceq	3, cr1, [r5], {5}
    24f0:	07050106 	streq	r0, [r5, -r6, lsl #2]
    24f4:	0025054a 	eoreq	r0, r5, sl, asr #10
    24f8:	4a010402 	bmi	43508 <__bss_end__+0x382e0>
    24fc:	02001e05 	andeq	r1, r0, #80	; 0x50
    2500:	054a0104 	strbeq	r0, [sl, #-260]	; 0xfffffefc
    2504:	054b0609 	strbeq	r0, [fp, #-1545]	; 0xfffff9f7
    2508:	0a051305 	beq	147124 <__bss_end__+0x13befc>
    250c:	19050106 	stmdbne	r5, {r1, r2, r8}
    2510:	06090563 	streq	r0, [r9], -r3, ror #10
    2514:	9e06014c 	adflssm	f0, f6, #4.0
    2518:	0a022e06 	beq	8dd38 <__bss_end__+0x82b10>
    251c:	89010100 	stmdbhi	r1, {r8}
    2520:	03000002 	movweq	r0, #2
    2524:	0000c900 	andeq	ip, r0, r0, lsl #18
    2528:	fb010200 	blx	42d32 <__bss_end__+0x37b0a>
    252c:	01000d0e 	tsteq	r0, lr, lsl #26
    2530:	00010101 	andeq	r0, r1, r1, lsl #2
    2534:	00010000 	andeq	r0, r1, r0
    2538:	2f2e0100 	svccs	0x002e0100
    253c:	00637273 	rsbeq	r7, r3, r3, ror r2
    2540:	6573552f 	ldrbvs	r5, [r3, #-1327]!	; 0xfffffad1
    2544:	6d2f7372 	stcvs	3, cr7, [pc, #-456]!	; 2384 <__code_start__-0x5c7c>
    2548:	73656c69 	cmnvc	r5, #26880	; 0x6900
    254c:	756f532f 	strbvc	r5, [pc, #-815]!	; 2225 <__code_start__-0x5ddb>
    2550:	2f656372 	svccs	0x00656372
    2554:	34327363 	ldrtcc	r7, [r2], #-867	; 0xfffffc9d
    2558:	2f786c30 	svccs	0x00786c30
    255c:	7062696c 	rsbvc	r6, r2, ip, ror #18
    2560:	6e692f69 	cdpvs	15, 6, cr2, cr9, cr9, {3}
    2564:	64756c63 	ldrbtvs	r6, [r5], #-3171	; 0xfffff39d
    2568:	6f2f0065 	svcvs	0x002f0065
    256c:	682f7470 	stmdavs	pc!, {r4, r5, r6, sl, ip, sp, lr}	; <UNPREDICTABLE>
    2570:	62656d6f 	rsbvs	r6, r5, #7104	; 0x1bc0
    2574:	2f776572 	svccs	0x00776572
    2578:	6c6c6543 	cfstr64vs	mvdx6, [ip], #-268	; 0xfffffef4
    257c:	612f7261 			; <UNDEFINED> instruction: 0x612f7261
    2580:	6e2d6d72 	mcrvs	13, 1, r6, cr13, cr2, {3}
    2584:	2d656e6f 	stclcs	14, cr6, [r5, #-444]!	; 0xfffffe44
    2588:	69626165 	stmdbvs	r2!, {r0, r2, r5, r6, r8, sp, lr}^
    258c:	392f392d 	stmdbcc	pc!, {r0, r2, r3, r5, r8, fp, ip, sp}	; <UNPREDICTABLE>
    2590:	3130322d 	teqcc	r0, sp, lsr #4
    2594:	2d347139 	ldfcss	f7, [r4, #-228]!	; 0xffffff1c
    2598:	30317363 	eorscc	r7, r1, r3, ror #6
    259c:	6c2f6537 	cfstr32vs	mvfx6, [pc], #-220	; 24c8 <__code_start__-0x5b38>
    25a0:	672f6269 	strvs	r6, [pc, -r9, ror #4]!
    25a4:	612f6363 			; <UNDEFINED> instruction: 0x612f6363
    25a8:	6e2d6d72 	mcrvs	13, 1, r6, cr13, cr2, {3}
    25ac:	2d656e6f 	stclcs	14, cr6, [r5, #-444]!	; 0xfffffe44
    25b0:	69626165 	stmdbvs	r2!, {r0, r2, r5, r6, r8, sp, lr}^
    25b4:	322e392f 	eorcc	r3, lr, #770048	; 0xbc000
    25b8:	692f312e 	stmdbvs	pc!, {r1, r2, r3, r5, r8, ip, sp}	; <UNPREDICTABLE>
    25bc:	756c636e 	strbvc	r6, [ip, #-878]!	; 0xfffffc92
    25c0:	00006564 	andeq	r6, r0, r4, ror #10
    25c4:	6f697067 	svcvs	0x00697067
    25c8:	0100632e 	tsteq	r0, lr, lsr #6
    25cc:	70720000 	rsbsvc	r0, r2, r0
    25d0:	00682e69 	rsbeq	r2, r8, r9, ror #28
    25d4:	73000002 	movwvc	r0, #2
    25d8:	6e696474 	mcrvs	4, 3, r6, cr9, cr4, {3}
    25dc:	63672d74 	cmnvs	r7, #116, 26	; 0x1d00
    25e0:	00682e63 	rsbeq	r2, r8, r3, ror #28
    25e4:	67000003 	strvs	r0, [r0, -r3]
    25e8:	2e6f6970 			; <UNDEFINED> instruction: 0x2e6f6970
    25ec:	00020068 	andeq	r0, r2, r8, rrx
    25f0:	38050000 	stmdacc	r5, {}	; <UNPREDICTABLE>
    25f4:	74020500 	strvc	r0, [r2], #-1280	; 0xfffffb00
    25f8:	030000a2 	movweq	r0, #162	; 0xa2
    25fc:	05050127 	streq	r0, [r5, #-295]	; 0xfffffed9
    2600:	06070513 			; <UNDEFINED> instruction: 0x06070513
    2604:	06060501 	streq	r0, [r6], -r1, lsl #10
    2608:	15050549 	strne	r0, [r5, #-1353]	; 0xfffffab7
    260c:	01060705 	tsteq	r6, r5, lsl #14
    2610:	052b3805 	streq	r3, [fp, #-2053]!	; 0xfffff7fb
    2614:	05054d07 	streq	r4, [r5, #-3335]	; 0xfffff2f9
    2618:	18053006 	stmdane	r5, {r1, r2, ip, sp}
    261c:	1c050106 	stfnes	f0, [r5], {6}
    2620:	4a0e0567 	bmi	383bc4 <__bss_end__+0x37899c>
    2624:	052d1805 	streq	r1, [sp, #-2053]!	; 0xfffff7fb
    2628:	2f2e4d12 	svccs	0x002e4d12
    262c:	052a0e05 	streq	r0, [sl, #-3589]!	; 0xfffff1fb
    2630:	142f0605 	strtne	r0, [pc], #-1541	; 2638 <__code_start__-0x59c8>
    2634:	06070513 			; <UNDEFINED> instruction: 0x06070513
    2638:	06050501 	streq	r0, [r5], -r1, lsl #10
    263c:	2e06132f 	cdpcs	3, 0, cr1, cr6, cr15, {1}
    2640:	1301052e 	movwne	r0, #5422	; 0x152e
    2644:	2e2d0505 	cfsh64cs	mvdx0, mvdx13, #5
    2648:	00062405 	andeq	r2, r6, r5, lsl #8
    264c:	a2d40205 	sbcsge	r0, r4, #1342177280	; 0x50000000
    2650:	05150000 	ldreq	r0, [r5, #-0]
    2654:	06051305 	streq	r1, [r5], -r5, lsl #6
    2658:	05017103 	streq	r7, [r1, #-259]	; 0xfffffefd
    265c:	07051305 	streq	r1, [r5, -r5, lsl #6]
    2660:	06050106 	streq	r0, [r5], -r6, lsl #2
    2664:	05054906 	streq	r4, [r5, #-2310]	; 0xfffff6fa
    2668:	24051415 	strcs	r1, [r5], #-1045	; 0xfffffbeb
    266c:	01090306 	tsteq	r9, r6, lsl #6
    2670:	77031805 	strvc	r1, [r3, -r5, lsl #16]
    2674:	671c052e 	ldrvs	r0, [ip, -lr, lsr #10]
    2678:	054a0e05 	strbeq	r0, [sl, #-3589]	; 0xfffff1fb
    267c:	12052d18 	andne	r2, r5, #24, 26	; 0x600
    2680:	052f2e4d 	streq	r2, [pc, #-3661]!	; 183b <__code_start__-0x67c5>
    2684:	0e052f0f 	cdpeq	15, 0, cr2, cr5, cr15, {0}
    2688:	06050529 	streq	r0, [r5], -r9, lsr #10
    268c:	0513142f 	ldreq	r1, [r3, #-1071]	; 0xfffffbd1
    2690:	05010607 	streq	r0, [r1, #-1543]	; 0xfffff9f9
    2694:	132f0605 			; <UNDEFINED> instruction: 0x132f0605
    2698:	01052e06 	tsteq	r5, r6, lsl #28
    269c:	29050533 	stmdbcs	r5, {r0, r1, r4, r5, r8, sl}
    26a0:	0627052e 	strteq	r0, [r7], -lr, lsr #10
    26a4:	2c020500 	cfstr32cs	mvfx0, [r2], {-0}
    26a8:	1a0000a3 	bne	293c <__code_start__-0x56c4>
    26ac:	05130505 	ldreq	r0, [r3, #-1285]	; 0xfffffafb
    26b0:	05110627 	ldreq	r0, [r1, #-1575]	; 0xfffff9d9
    26b4:	05052f18 	streq	r2, [r5, #-3864]	; 0xfffff0e8
    26b8:	054a2e2e 	strbeq	r2, [sl, #-3630]	; 0xfffff1d2
    26bc:	05000628 	streq	r0, [r0, #-1576]	; 0xfffff9d8
    26c0:	00a34402 	adceq	r4, r3, r2, lsl #8
    26c4:	05051600 	streq	r1, [r5, #-1536]	; 0xfffffa00
    26c8:	06280513 			; <UNDEFINED> instruction: 0x06280513
    26cc:	2f180511 	svccs	0x00180511
    26d0:	2e2e0505 	cfsh64cs	mvdx0, mvdx14, #5
    26d4:	0623054a 	strteq	r0, [r3], -sl, asr #10
    26d8:	5c020500 	cfstr32pl	mvfx0, [r2], {-0}
    26dc:	160000a3 	strne	r0, [r0], -r3, lsr #1
    26e0:	05130505 	ldreq	r0, [r3, #-1285]	; 0xfffffafb
    26e4:	01620306 	cmneq	r2, r6, lsl #6
    26e8:	05130505 	ldreq	r0, [r3, #-1285]	; 0xfffffafb
    26ec:	05010607 	streq	r0, [r1, #-1543]	; 0xfffff9f9
    26f0:	05490606 	strbeq	r0, [r9, #-1542]	; 0xfffff9fa
    26f4:	13141505 	tstne	r4, #20971520	; 0x1400000
    26f8:	03062305 	movweq	r2, #25349	; 0x6305
    26fc:	22050117 	andcs	r0, r5, #-1073741819	; 0xc0000005
    2700:	052e6903 	streq	r6, [lr, #-2307]!	; 0xfffff6fd
    2704:	052e821c 	streq	r8, [lr, #-540]!	; 0xfffffde4
    2708:	05052e0e 	streq	r2, [r5, #-3598]	; 0xfffff1f2
    270c:	12053006 	andne	r3, r5, #6, 0
    2710:	2d4b0106 	stfcse	f0, [fp, #-24]	; 0xffffffe8
    2714:	2f060505 	svccs	0x00060505
    2718:	18051313 	stmdane	r5, {r0, r1, r4, r8, r9, ip}
    271c:	017a0306 	cmneq	sl, r6, lsl #6
    2720:	054a0e05 	strbeq	r0, [sl, #-3589]	; 0xfffff1fb
    2724:	052e3405 	streq	r3, [lr, #-1029]!	; 0xfffffbfb
    2728:	2e140301 	cdpcs	3, 1, cr0, cr4, cr1, {0}
    272c:	6c030505 	cfstr32vs	mvfx0, [r3], {5}
    2730:	2b052e2e 	blcs	14dff0 <__bss_end__+0x142dc8>
    2734:	02050006 	andeq	r0, r5, #6, 0
    2738:	0000a3b4 			; <UNDEFINED> instruction: 0x0000a3b4
    273c:	05011703 	streq	r1, [r1, #-1795]	; 0xfffff8fd
    2740:	07051305 	streq	r1, [r5, -r5, lsl #6]
    2744:	18050106 	stmdane	r5, {r1, r2, r8}
    2748:	052e7103 	streq	r7, [lr, #-259]!	; 0xfffffefd
    274c:	2e0e032b 	cdpcs	3, 0, cr0, cr14, cr11, {1}
    2750:	052f0705 	streq	r0, [pc, #-1797]!	; 2053 <__code_start__-0x5fad>
    2754:	052f0609 	streq	r0, [pc, #-1545]!	; 2153 <__code_start__-0x5ead>
    2758:	016f030d 	cmneq	pc, sp, lsl #6
    275c:	06130505 	ldreq	r0, [r3], -r5, lsl #10
    2760:	052e2e2e 	streq	r2, [lr, #-3630]!	; 0xfffff1d2
    2764:	12030609 	andne	r0, r3, #9437184	; 0x900000
    2768:	030d0501 	movweq	r0, #54529	; 0xd501
    276c:	05050172 	streq	r0, [r5, #-370]	; 0xfffffe8e
    2770:	2e2e0613 	mcrcs	6, 1, r0, cr14, cr3, {0}
    2774:	03061d05 	movweq	r1, #27909	; 0x6d05
    2778:	05056610 	streq	r6, [r5, #-1552]	; 0xfffff9f0
    277c:	061d0513 			; <UNDEFINED> instruction: 0x061d0513
    2780:	05052e11 	streq	r2, [r5, #-3601]	; 0xfffff1ef
    2784:	05133006 	ldreq	r3, [r3, #-6]
    2788:	0510060e 	ldreq	r0, [r0, #-1550]	; 0xfffff9f2
    278c:	042e3017 	strteq	r3, [lr], #-23	; 0xffffffe9
    2790:	06300502 	ldrteq	r0, [r0], -r2, lsl #10
    2794:	2e00dd03 	cdpcs	13, 0, cr13, cr0, cr3, {0}
    2798:	0e050104 	adfeqs	f0, f5, f4
    279c:	7fa20306 	svcvc	0x00a20306
    27a0:	2f230501 	svccs	0x00230501
    27a4:	022f0105 	eoreq	r0, pc, #1073741825	; 0x40000001
    27a8:	01010006 	tsteq	r1, r6
    27ac:	0000009e 	muleq	r0, lr, r0
    27b0:	005a0003 	subseq	r0, sl, r3
    27b4:	01020000 	mrseq	r0, (UNDEF: 2)
    27b8:	000d0efb 	strdeq	r0, [sp], -fp
    27bc:	01010101 	tsteq	r1, r1, lsl #2
    27c0:	01000000 	mrseq	r0, (UNDEF: 0)
    27c4:	2e010000 	cdpcs	0, 0, cr0, cr1, cr0, {0}
    27c8:	62696c2f 	rsbvs	r6, r9, #12032	; 0x2f00
    27cc:	552f0063 	strpl	r0, [pc, #-99]!	; 2771 <__code_start__-0x588f>
    27d0:	73726573 	cmnvc	r2, #482344960	; 0x1cc00000
    27d4:	6c696d2f 	stclvs	13, cr6, [r9], #-188	; 0xffffff44
    27d8:	532f7365 			; <UNDEFINED> instruction: 0x532f7365
    27dc:	6372756f 	cmnvs	r2, #465567744	; 0x1bc00000
    27e0:	73632f65 	cmnvc	r3, #404	; 0x194
    27e4:	6c303432 	cfldrsvs	mvf3, [r0], #-200	; 0xffffff38
    27e8:	696c2f78 	stmdbvs	ip!, {r3, r4, r5, r6, r8, r9, sl, fp, sp}^
    27ec:	2f697062 	svccs	0x00697062
    27f0:	6c636e69 	stclvs	14, cr6, [r3], #-420	; 0xfffffe5c
    27f4:	00656475 	rsbeq	r6, r5, r5, ror r4
    27f8:	74757000 	ldrbtvc	r7, [r5], #-0
    27fc:	72616863 	rsbvc	r6, r1, #6488064	; 0x630000
    2800:	0100632e 	tsteq	r0, lr, lsr #6
    2804:	70720000 	rsbsvc	r0, r2, r0
    2808:	00682e69 	rsbeq	r2, r8, r9, ror #28
    280c:	00000002 	andeq	r0, r0, r2
    2810:	05002405 	streq	r2, [r0, #-1029]	; 0xfffffbfb
    2814:	00a40c02 	adceq	r0, r4, r2, lsl #24
    2818:	26051400 	strcs	r1, [r5], -r0, lsl #8
    281c:	06240501 	strteq	r0, [r4], -r1, lsl #10
    2820:	26052e01 	strcs	r2, [r5], -r1, lsl #28
    2824:	0634052e 	ldrteq	r0, [r4], -lr, lsr #10
    2828:	0601052e 	streq	r0, [r1], -lr, lsr #10
    282c:	061b0501 	ldreq	r0, [fp], -r1, lsl #10
    2830:	1305054f 	movwne	r0, #21839	; 0x554f
    2834:	01061105 	tsteq	r6, r5, lsl #2
    2838:	05670105 	strbeq	r0, [r7, #-261]!	; 0xfffffefb
    283c:	05670623 	strbeq	r0, [r7, #-1571]!	; 0xfffff9dd
    2840:	11051305 	tstne	r5, r5, lsl #6
    2844:	01050106 	tsteq	r5, r6, lsl #2
    2848:	0004024b 	andeq	r0, r4, fp, asr #4
    284c:	00e20101 	rsceq	r0, r2, r1, lsl #2
    2850:	00030000 	andeq	r0, r3, r0
    2854:	00000059 	andeq	r0, r0, r9, asr r0
    2858:	0efb0102 	cdpeq	1, 15, cr0, cr11, cr2, {0}
    285c:	0101000d 	tsteq	r1, sp
    2860:	00000101 	andeq	r0, r0, r1, lsl #2
    2864:	00000100 	andeq	r0, r0, r0, lsl #2
    2868:	6c2f2e01 	stcvs	14, cr2, [pc], #-4	; 286c <__code_start__-0x5794>
    286c:	00636269 	rsbeq	r6, r3, r9, ror #4
    2870:	6573552f 	ldrbvs	r5, [r3, #-1327]!	; 0xfffffad1
    2874:	6d2f7372 	stcvs	3, cr7, [pc, #-456]!	; 26b4 <__code_start__-0x594c>
    2878:	73656c69 	cmnvc	r5, #26880	; 0x6900
    287c:	756f532f 	strbvc	r5, [pc, #-815]!	; 2555 <__code_start__-0x5aab>
    2880:	2f656372 	svccs	0x00656372
    2884:	34327363 	ldrtcc	r7, [r2], #-867	; 0xfffffc9d
    2888:	2f786c30 	svccs	0x00786c30
    288c:	7062696c 	rsbvc	r6, r2, ip, ror #18
    2890:	6e692f69 	cdpvs	15, 6, cr2, cr9, cr9, {3}
    2894:	64756c63 	ldrbtvs	r6, [r5], #-3171	; 0xfffff39d
    2898:	73000065 	movwvc	r0, #101	; 0x65
    289c:	61637274 	smcvs	14116	; 0x3724
    28a0:	00632e74 	rsbeq	r2, r3, r4, ror lr
    28a4:	72000001 	andvc	r0, r0, #1, 0
    28a8:	682e6970 	stmdavs	lr!, {r4, r5, r6, r8, fp, sp, lr}
    28ac:	00000200 	andeq	r0, r0, r0, lsl #4
    28b0:	002c0500 	eoreq	r0, ip, r0, lsl #10
    28b4:	a4480205 	strbge	r0, [r8], #-517	; 0xfffffdfb
    28b8:	05150000 	ldreq	r0, [r5, #-0]
    28bc:	05131305 	ldreq	r1, [r3, #-773]	; 0xfffffcfb
    28c0:	0511060b 	ldreq	r0, [r1, #-1547]	; 0xfffff9f5
    28c4:	04020005 	streq	r0, [r2], #-5
    28c8:	00300601 	eorseq	r0, r0, r1, lsl #12
    28cc:	15010402 	strne	r0, [r1, #-1026]	; 0xfffffbfe
    28d0:	02000905 	andeq	r0, r0, #81920	; 0x14000
    28d4:	05130104 	ldreq	r0, [r3, #-260]	; 0xfffffefc
    28d8:	0402000b 	streq	r0, [r2], #-11
    28dc:	05052f01 	streq	r2, [r5, #-3841]	; 0xfffff0ff
    28e0:	01040200 	mrseq	r0, R12_usr
    28e4:	02000106 	andeq	r0, r0, #-2147483647	; 0x80000001
    28e8:	062e0104 	strteq	r0, [lr], -r4, lsl #2
    28ec:	0608054e 	streq	r0, [r8], -lr, asr #10
    28f0:	00050501 	andeq	r0, r5, r1, lsl #10
    28f4:	06010402 	streq	r0, [r1], -r2, lsl #8
    28f8:	0009052f 	andeq	r0, r9, pc, lsr #10
    28fc:	13010402 	movwne	r0, #5122	; 0x1402
    2900:	02000b05 	andeq	r0, r0, #5120	; 0x1400
    2904:	01060104 	tsteq	r6, r4, lsl #2
    2908:	02000905 	andeq	r0, r0, #81920	; 0x14000
    290c:	2f060104 	svccs	0x00060104
    2910:	02000505 	andeq	r0, r0, #20971520	; 0x1400000
    2914:	13060104 	movwne	r0, #24836	; 0x6104
    2918:	02000f05 	andeq	r0, r0, #5, 30
    291c:	052d0104 	streq	r0, [sp, #-260]!	; 0xfffffefc
    2920:	0402000d 	streq	r0, [r2], #-13
    2924:	052f0601 	streq	r0, [pc, #-1537]!	; 232b <__code_start__-0x5cd5>
    2928:	04020005 	streq	r0, [r2], #-5
    292c:	02010601 	andeq	r0, r1, #1048576	; 0x100000
    2930:	01010004 	tsteq	r1, r4
    2934:	000000b2 	strheq	r0, [r0], -r2
    2938:	00590003 	subseq	r0, r9, r3
    293c:	01020000 	mrseq	r0, (UNDEF: 2)
    2940:	000d0efb 	strdeq	r0, [sp], -fp
    2944:	01010101 	tsteq	r1, r1, lsl #2
    2948:	01000000 	mrseq	r0, (UNDEF: 0)
    294c:	2e010000 	cdpcs	0, 0, cr0, cr1, cr0, {0}
    2950:	62696c2f 	rsbvs	r6, r9, #12032	; 0x2f00
    2954:	552f0063 	strpl	r0, [pc, #-99]!	; 28f9 <__code_start__-0x5707>
    2958:	73726573 	cmnvc	r2, #482344960	; 0x1cc00000
    295c:	6c696d2f 	stclvs	13, cr6, [r9], #-188	; 0xffffff44
    2960:	532f7365 			; <UNDEFINED> instruction: 0x532f7365
    2964:	6372756f 	cmnvs	r2, #465567744	; 0x1bc00000
    2968:	73632f65 	cmnvc	r3, #404	; 0x194
    296c:	6c303432 	cfldrsvs	mvf3, [r0], #-200	; 0xffffff38
    2970:	696c2f78 	stmdbvs	ip!, {r3, r4, r5, r6, r8, r9, sl, fp, sp}^
    2974:	2f697062 	svccs	0x00697062
    2978:	6c636e69 	stclvs	14, cr6, [r3], #-420	; 0xfffffe5c
    297c:	00656475 	rsbeq	r6, r5, r5, ror r4
    2980:	72747300 	rsbsvc	r7, r4, #0, 6
    2984:	2e706d63 	cdpcs	13, 7, cr6, cr0, cr3, {3}
    2988:	00010063 	andeq	r0, r1, r3, rrx
    298c:	69707200 	ldmdbvs	r0!, {r9, ip, sp, lr}^
    2990:	0200682e 	andeq	r6, r0, #3014656	; 0x2e0000
    2994:	05000000 	streq	r0, [r0, #-0]
    2998:	0205002a 	andeq	r0, r5, #42, 0	; 0x2a
    299c:	0000a474 	andeq	sl, r0, r4, ror r4
    29a0:	13090514 	movwne	r0, #38164	; 0x9514
    29a4:	01061005 	tsteq	r6, r5
    29a8:	2e060f05 	cdpcs	15, 0, cr0, cr6, cr5, {0}
    29ac:	82061005 	andhi	r1, r6, #5, 0
    29b0:	052e0f05 	streq	r0, [lr, #-3845]!	; 0xfffff0fb
    29b4:	04020011 	streq	r0, [r2], #-17	; 0xffffffef
    29b8:	054b0601 	strbeq	r0, [fp, #-1537]	; 0xfffff9ff
    29bc:	0402001c 	streq	r0, [r2], #-28	; 0xffffffe4
    29c0:	052d0601 	streq	r0, [sp, #-1537]!	; 0xfffff9ff
    29c4:	0402000f 	streq	r0, [r2], #-15
    29c8:	052e0601 	streq	r0, [lr, #-1537]!	; 0xfffff9ff
    29cc:	04020013 	streq	r0, [r2], #-19	; 0xffffffed
    29d0:	05010601 	streq	r0, [r1, #-1537]	; 0xfffff9ff
    29d4:	054c0609 	strbeq	r0, [ip, #-1545]	; 0xfffff9f7
    29d8:	4a130601 	bmi	4c41e4 <__bss_end__+0x4b8fbc>
    29dc:	2d060905 	vstrcs.16	s0, [r6, #-10]	; <UNPREDICTABLE>
    29e0:	13060105 	movwne	r0, #24837	; 0x6105
    29e4:	0002022e 	andeq	r0, r2, lr, lsr #4
    29e8:	009d0101 	addseq	r0, sp, r1, lsl #2
    29ec:	00030000 	andeq	r0, r3, r0
    29f0:	00000059 	andeq	r0, r0, r9, asr r0
    29f4:	0efb0102 	cdpeq	1, 15, cr0, cr11, cr2, {0}
    29f8:	0101000d 	tsteq	r1, sp
    29fc:	00000101 	andeq	r0, r0, r1, lsl #2
    2a00:	00000100 	andeq	r0, r0, r0, lsl #2
    2a04:	6c2f2e01 	stcvs	14, cr2, [pc], #-4	; 2a08 <__code_start__-0x55f8>
    2a08:	00636269 	rsbeq	r6, r3, r9, ror #4
    2a0c:	6573552f 	ldrbvs	r5, [r3, #-1327]!	; 0xfffffad1
    2a10:	6d2f7372 	stcvs	3, cr7, [pc, #-456]!	; 2850 <__code_start__-0x57b0>
    2a14:	73656c69 	cmnvc	r5, #26880	; 0x6900
    2a18:	756f532f 	strbvc	r5, [pc, #-815]!	; 26f1 <__code_start__-0x590f>
    2a1c:	2f656372 	svccs	0x00656372
    2a20:	34327363 	ldrtcc	r7, [r2], #-867	; 0xfffffc9d
    2a24:	2f786c30 	svccs	0x00786c30
    2a28:	7062696c 	rsbvc	r6, r2, ip, ror #18
    2a2c:	6e692f69 	cdpvs	15, 6, cr2, cr9, cr9, {3}
    2a30:	64756c63 	ldrbtvs	r6, [r5], #-3171	; 0xfffff39d
    2a34:	73000065 	movwvc	r0, #101	; 0x65
    2a38:	70637274 	rsbvc	r7, r3, r4, ror r2
    2a3c:	00632e79 	rsbeq	r2, r3, r9, ror lr
    2a40:	72000001 	andvc	r0, r0, #1, 0
    2a44:	682e6970 	stmdavs	lr!, {r4, r5, r6, r8, fp, sp, lr}
    2a48:	00000200 	andeq	r0, r0, r0, lsl #4
    2a4c:	002a0500 	eoreq	r0, sl, r0, lsl #10
    2a50:	a4b80205 	ldrtge	r0, [r8], #517	; 0x205
    2a54:	05140000 	ldreq	r0, [r4, #-0]
    2a58:	05131305 	ldreq	r1, [r3, #-773]	; 0xfffffcfb
    2a5c:	04020022 	streq	r0, [r2], #-34	; 0xffffffde
    2a60:	0b052e01 	bleq	14e26c <__bss_end__+0x143044>
    2a64:	01040200 	mrseq	r0, R12_usr
    2a68:	00150501 	andseq	r0, r5, r1, lsl #10
    2a6c:	06010402 	streq	r0, [r1], -r2, lsl #8
    2a70:	000b0501 	andeq	r0, fp, r1, lsl #10
    2a74:	2e010402 	cdpcs	4, 0, cr0, cr1, cr2, {0}
    2a78:	02001305 	andeq	r1, r0, #335544320	; 0x14000000
    2a7c:	052e0104 	streq	r0, [lr, #-260]!	; 0xfffffefc
    2a80:	0402000b 	streq	r0, [r2], #-11
    2a84:	04022e01 	streq	r2, [r2], #-3585	; 0xfffff1ff
    2a88:	fd010100 	stc2	1, cr0, [r1, #-0]
    2a8c:	03000000 	movweq	r0, #0
    2a90:	0000bf00 	andeq	fp, r0, r0, lsl #30
    2a94:	fb010200 	blx	4329e <__bss_end__+0x38076>
    2a98:	01000d0e 	tsteq	r0, lr, lsl #26
    2a9c:	00010101 	andeq	r0, r1, r1, lsl #2
    2aa0:	00010000 	andeq	r0, r1, r0
    2aa4:	2f2e0100 	svccs	0x002e0100
    2aa8:	6362696c 	cmnvs	r2, #108, 18	; 0x1b0000
    2aac:	73552f00 	cmpvc	r5, #0, 30
    2ab0:	2f737265 	svccs	0x00737265
    2ab4:	656c696d 	strbvs	r6, [ip, #-2413]!	; 0xfffff693
    2ab8:	6f532f73 	svcvs	0x00532f73
    2abc:	65637275 	strbvs	r7, [r3, #-629]!	; 0xfffffd8b
    2ac0:	3273632f 	rsbscc	r6, r3, #-1140850688	; 0xbc000000
    2ac4:	786c3034 	stmdavc	ip!, {r2, r4, r5, ip, sp}^
    2ac8:	62696c2f 	rsbvs	r6, r9, #12032	; 0x2f00
    2acc:	692f6970 	stmdbvs	pc!, {r4, r5, r6, r8, fp, sp, lr}	; <UNPREDICTABLE>
    2ad0:	756c636e 	strbvc	r6, [ip, #-878]!	; 0xfffffc92
    2ad4:	2f006564 	svccs	0x00006564
    2ad8:	2f74706f 	svccs	0x0074706f
    2adc:	656d6f68 	strbvs	r6, [sp, #-3944]!	; 0xfffff098
    2ae0:	77657262 	strbvc	r7, [r5, -r2, ror #4]!
    2ae4:	6c65432f 	stclvs	3, cr4, [r5], #-188	; 0xffffff44
    2ae8:	2f72616c 	svccs	0x0072616c
    2aec:	2d6d7261 	sfmcs	f7, 2, [sp, #-388]!	; 0xfffffe7c
    2af0:	656e6f6e 	strbvs	r6, [lr, #-3950]!	; 0xfffff092
    2af4:	6261652d 	rsbvs	r6, r1, #188743680	; 0xb400000
    2af8:	2f392d69 	svccs	0x00392d69
    2afc:	30322d39 	eorscc	r2, r2, r9, lsr sp
    2b00:	34713931 	ldrbtcc	r3, [r1], #-2353	; 0xfffff6cf
    2b04:	3173632d 	cmncc	r3, sp, lsr #6
    2b08:	2f653730 	svccs	0x00653730
    2b0c:	2f62696c 	svccs	0x0062696c
    2b10:	2f636367 	svccs	0x00636367
    2b14:	2d6d7261 	sfmcs	f7, 2, [sp, #-388]!	; 0xfffffe7c
    2b18:	656e6f6e 	strbvs	r6, [lr, #-3950]!	; 0xfffff092
    2b1c:	6261652d 	rsbvs	r6, r1, #188743680	; 0xb400000
    2b20:	2e392f69 	cdpcs	15, 3, cr2, cr9, cr9, {3}
    2b24:	2f312e32 	svccs	0x00312e32
    2b28:	6c636e69 	stclvs	14, cr6, [r3], #-420	; 0xfffffe5c
    2b2c:	00656475 	rsbeq	r6, r5, r5, ror r4
    2b30:	72747300 	rsbsvc	r7, r4, #0, 6
    2b34:	706d636e 	rsbvc	r6, sp, lr, ror #6
    2b38:	0100632e 	tsteq	r0, lr, lsr #6
    2b3c:	70720000 	rsbsvc	r0, r2, r0
    2b40:	00682e69 	rsbeq	r2, r8, r9, ror #28
    2b44:	73000002 	movwvc	r0, #2
    2b48:	65646474 	strbvs	r6, [r4, #-1140]!	; 0xfffffb8c
    2b4c:	00682e66 	rsbeq	r2, r8, r6, ror #28
    2b50:	00000003 	andeq	r0, r0, r3
    2b54:	05003905 	streq	r3, [r0, #-2309]	; 0xfffff6fb
    2b58:	00a4d002 	adceq	sp, r4, r2
    2b5c:	05051500 	streq	r1, [r5, #-1280]	; 0xfffffb00
    2b60:	0a051313 	beq	1477b4 <__bss_end__+0x13c58c>
    2b64:	0c052e06 	stceq	14, cr2, [r5], {6}
    2b68:	2e13052f 	cfmul64cs	mvdx0, mvdx3, mvdx15
    2b6c:	052e0b05 	streq	r0, [lr, #-2821]!	; 0xfffff4fb
    2b70:	054a0609 	strbeq	r0, [sl, #-1545]	; 0xfffff9f7
    2b74:	0106110a 	tsteq	r6, sl, lsl #2
    2b78:	054e0c05 	strbeq	r0, [lr, #-3077]	; 0xfffff3fb
    2b7c:	0d052f01 	stceq	15, cr2, [r5, #-4]
    2b80:	1b052b06 	blne	14d7a0 <__bss_end__+0x142578>
    2b84:	022e0106 	eoreq	r0, lr, #-2147483647	; 0x80000001
    2b88:	01010002 	tsteq	r1, r2
    2b8c:	0000008a 	andeq	r0, r0, sl, lsl #1
    2b90:	006e0003 	rsbeq	r0, lr, r3
    2b94:	01020000 	mrseq	r0, (UNDEF: 2)
    2b98:	000d0efb 	strdeq	r0, [sp], -fp
    2b9c:	01010101 	tsteq	r1, r1, lsl #2
    2ba0:	01000000 	mrseq	r0, (UNDEF: 0)
    2ba4:	2e010000 	cdpcs	0, 0, cr0, cr1, cr0, {0}
    2ba8:	6174732f 	cmnvs	r4, pc, lsr #6
    2bac:	732d6666 			; <UNDEFINED> instruction: 0x732d6666
    2bb0:	2f006372 	svccs	0x00006372
    2bb4:	72657355 	rsbvc	r7, r5, #1409286145	; 0x54000001
    2bb8:	696d2f73 	stmdbvs	sp!, {r0, r1, r4, r5, r6, r8, r9, sl, fp, sp}^
    2bbc:	2f73656c 	svccs	0x0073656c
    2bc0:	72756f53 	rsbsvc	r6, r5, #332	; 0x14c
    2bc4:	632f6563 			; <UNDEFINED> instruction: 0x632f6563
    2bc8:	30343273 	eorscc	r3, r4, r3, ror r2
    2bcc:	6c2f786c 	stcvs	8, cr7, [pc], #-432	; 2a24 <__code_start__-0x55dc>
    2bd0:	69706269 	ldmdbvs	r0!, {r0, r3, r5, r6, r9, sp, lr}^
    2bd4:	636e692f 	cmnvs	lr, #770048	; 0xbc000
    2bd8:	6564756c 	strbvs	r7, [r4, #-1388]!	; 0xfffffa94
    2bdc:	65640000 	strbvs	r0, [r4, #-0]!
    2be0:	6c756166 	ldfvse	f6, [r5], #-408	; 0xfffffe68
    2be4:	65722d74 	ldrbvs	r2, [r2, #-3444]!	; 0xfffff28c
    2be8:	746f6f62 	strbtvc	r6, [pc], #-3938	; 2bf0 <__code_start__-0x5410>
    2bec:	6c61632d 	stclvs	3, cr6, [r1], #-180	; 0xffffff4c
    2bf0:	74756f6c 	ldrbtvc	r6, [r5], #-3948	; 0xfffff094
    2bf4:	0100632e 	tsteq	r0, lr, lsr #6
    2bf8:	70720000 	rsbsvc	r0, r2, r0
    2bfc:	00682e69 	rsbeq	r2, r8, r9, ror #28
    2c00:	00000002 	andeq	r0, r0, r2
    2c04:	05001b05 	streq	r1, [r0, #-2821]	; 0xfffff4fb
    2c08:	00a50002 	adceq	r0, r5, r2
    2c0c:	1c051400 	cfstrsne	mvf1, [r5], {-0}
    2c10:	06010501 	streq	r0, [r1], -r1, lsl #10
    2c14:	00020201 	andeq	r0, r2, r1, lsl #4
    2c18:	Address 0x0000000000002c18 is out of bounds.


Disassembly of section .debug_str:

00000000 <.debug_str>:
   0:	765f6b63 	ldrbvc	r6, [pc], -r3, ror #22
   4:	6f627265 	svcvs	0x00627265
   8:	705f6573 	subsvc	r6, pc, r3, ror r5	; <UNPREDICTABLE>
   c:	72646800 	rsbvc	r6, r4, #0, 16
  10:	6e00745f 	cfmvsrvs	mvf0, r7
  14:	00747865 	rsbseq	r7, r4, r5, ror #16
  18:	6c616b63 			; <UNDEFINED> instruction: 0x6c616b63
  1c:	00636f6c 	rsbeq	r6, r3, ip, ror #30
  20:	74617473 	strbtvc	r7, [r1], #-1139	; 0xfffffb8d
  24:	65740065 	ldrbvs	r0, [r4, #-101]!	; 0xffffff9b
  28:	2d737473 	cfldrdcs	mvd7, [r3, #-460]!	; 0xfffffe34
  2c:	2f302e32 	svccs	0x00302e32
  30:	74726170 	ldrbtvc	r6, [r2], #-368	; 0xfffffe90
  34:	65742d32 	ldrbvs	r2, [r4, #-3378]!	; 0xfffff2ce
  38:	2d367473 	cfldrscs	mvf7, [r6, #-460]!	; 0xfffffe34
  3c:	6c2d6f6e 	stcvs	15, cr6, [sp], #-440	; 0xfffffe48
  40:	2e6b6165 	powcsez	f6, f3, f5
  44:	696c0063 	stmdbvs	ip!, {r0, r1, r5, r6}^
  48:	6f6e656e 	svcvs	0x006e656e
  4c:	6e616300 	cdpvs	3, 6, cr6, cr1, cr0, {0}
  50:	00797261 	rsbseq	r7, r9, r1, ror #4
  54:	665f6b63 	ldrbvs	r6, [pc], -r3, ror #22
  58:	5f646e69 	svcpl	0x00646e69
  5c:	6b61656c 	blvs	1859614 <__bss_end__+0x184e3ec>
  60:	6f6e0073 	svcvs	0x006e0073
  64:	69616d74 	stmdbvs	r1!, {r2, r4, r5, r6, r8, sl, fp, sp, lr}^
  68:	626e006e 	rsbvs	r0, lr, #110, 0	; 0x6e
  6c:	73657479 	cmnvc	r5, #2030043136	; 0x79000000
  70:	6c6c615f 	stfvse	f6, [ip], #-380	; 0xfffffe84
  74:	6600636f 	strvs	r6, [r0], -pc, ror #6
  78:	00656c69 	rsbeq	r6, r5, r9, ror #24
  7c:	69736e75 	ldmdbvs	r3!, {r0, r2, r4, r5, r6, r9, sl, fp, sp, lr}^
  80:	64656e67 	strbtvs	r6, [r5], #-3687	; 0xfffff199
  84:	61686320 	cmnvs	r8, r0, lsr #6
  88:	6c630072 	stclvs	0, cr0, [r3], #-456	; 0xfffffe38
  8c:	5f6e6165 	svcpl	0x006e6165
  90:	6f626572 	svcvs	0x00626572
  94:	7300746f 	movwvc	r7, #1135	; 0x46f
  98:	74726f68 	ldrbtvc	r6, [r2], #-3944	; 0xfffff098
  9c:	736e7520 	cmnvc	lr, #32, 10	; 0x8000000
  a0:	656e6769 	strbvs	r6, [lr, #-1897]!	; 0xfffff897
  a4:	6e692064 	cdpvs	0, 6, cr2, cr9, cr4, {3}
  a8:	4e470074 	mcrmi	0, 2, r0, cr7, cr4, {3}
  ac:	39432055 	stmdbcc	r3, {r0, r2, r4, r6, sp}^
  b0:	2e392039 	mrccs	0, 1, r2, cr9, cr9, {1}
  b4:	20312e32 	eorscs	r2, r1, r2, lsr lr
  b8:	39313032 	ldmdbcc	r1!, {r1, r4, r5, ip, sp}
  bc:	35323031 	ldrcc	r3, [r2, #-49]!	; 0xffffffcf
  c0:	65722820 	ldrbvs	r2, [r2, #-2080]!	; 0xfffff7e0
  c4:	7361656c 	cmnvc	r1, #108, 10	; 0x1b000000
  c8:	5b202965 	blpl	80a664 <__bss_end__+0x7ff43c>
  cc:	2f4d5241 	svccs	0x004d5241
  d0:	2d6d7261 	sfmcs	f7, 2, [sp, #-388]!	; 0xfffffe7c
  d4:	72622d39 	rsbvc	r2, r2, #3648	; 0xe40
  d8:	68636e61 	stmdavs	r3!, {r0, r5, r6, r9, sl, fp, sp, lr}^
  dc:	76657220 	strbtvc	r7, [r5], -r0, lsr #4
  e0:	6f697369 	svcvs	0x00697369
  e4:	3732206e 	ldrcc	r2, [r2, -lr, rrx]!
  e8:	39393537 	ldmdbcc	r9!, {r0, r1, r2, r4, r5, r8, sl, ip, sp}
  ec:	6d2d205d 	stcvs	0, cr2, [sp, #-372]!	; 0xfffffe8c
  f0:	3d757063 	ldclcc	0, cr7, [r5, #-396]!	; 0xfffffe74
  f4:	316d7261 	cmncc	sp, r1, ror #4
  f8:	6a363731 	bvs	d8ddc4 <__bss_end__+0xd82b9c>
  fc:	732d667a 			; <UNDEFINED> instruction: 0x732d667a
 100:	746d2d20 	strbtvc	r2, [sp], #-3360	; 0xfffff2e0
 104:	3d656e75 	stclcc	14, cr6, [r5, #-468]!	; 0xfffffe2c
 108:	316d7261 	cmncc	sp, r1, ror #4
 10c:	6a363731 	bvs	d8ddd8 <__bss_end__+0xd82bb0>
 110:	732d667a 			; <UNDEFINED> instruction: 0x732d667a
 114:	706d2d20 	rsbvc	r2, sp, r0, lsr #26
 118:	2d656b6f 	fstmdbxcs	r5!, {d22-d76}	;@ Deprecated
 11c:	636e7566 	cmnvs	lr, #427819008	; 0x19800000
 120:	6e6f6974 			; <UNDEFINED> instruction: 0x6e6f6974
 124:	6d616e2d 	stclvs	14, cr6, [r1, #-180]!	; 0xffffff4c
 128:	6d2d2065 	stcvs	0, cr2, [sp, #-404]!	; 0xfffffe6c
 12c:	616f6c66 	cmnvs	pc, r6, ror #24
 130:	62612d74 	rsbvs	r2, r1, #116, 26	; 0x1d00
 134:	6f733d69 	svcvs	0x00733d69
 138:	2d207466 	cfstrscs	mvf7, [r0, #-408]!	; 0xfffffe68
 13c:	6d72616d 	ldfvse	f6, [r2, #-436]!	; 0xfffffe4c
 140:	616d2d20 	cmnvs	sp, r0, lsr #26
 144:	3d686372 	stclcc	3, cr6, [r8, #-456]!	; 0xfffffe38
 148:	766d7261 	strbtvc	r7, [sp], -r1, ror #4
 14c:	207a6b36 	rsbscs	r6, sl, r6, lsr fp
 150:	6467672d 	strbtvs	r6, [r7], #-1837	; 0xfffff8d3
 154:	4f2d2062 	svcmi	0x002d2062
 158:	732d2067 			; <UNDEFINED> instruction: 0x732d2067
 15c:	673d6474 			; <UNDEFINED> instruction: 0x673d6474
 160:	3939756e 	ldmdbcc	r9!, {r1, r2, r3, r5, r6, r8, sl, ip, sp, lr}
 164:	66662d20 	strbtvs	r2, [r6], -r0, lsr #26
 168:	73656572 	cmnvc	r5, #478150656	; 0x1c800000
 16c:	646e6174 	strbtvs	r6, [lr], #-372	; 0xfffffe8c
 170:	20676e69 	rsbcs	r6, r7, r9, ror #28
 174:	6f6e662d 	svcvs	0x006e662d
 178:	696d6f2d 	stmdbvs	sp!, {r0, r2, r3, r5, r8, r9, sl, fp, sp, lr}^
 17c:	72662d74 	rsbvc	r2, r6, #116, 26	; 0x1d00
 180:	2d656d61 	stclcs	13, cr6, [r5, #-388]!	; 0xfffffe7c
 184:	6e696f70 	mcrvs	15, 3, r6, cr9, cr0, {3}
 188:	00726574 	rsbseq	r6, r2, r4, ror r5
 18c:	685f6b63 	ldmdavs	pc, {r0, r1, r5, r6, r8, r9, fp, sp, lr}^	; <UNPREDICTABLE>
 190:	73007264 	movwvc	r7, #612	; 0x264
 194:	6c5f6372 	mrrcvs	3, 7, r6, pc, cr2	; <UNPREDICTABLE>
 198:	6d5f636f 	ldclvs	3, cr6, [pc, #-444]	; ffffffe4 <__bss_end__+0xffff4dbc>
 19c:	552f006b 	strpl	r0, [pc, #-107]!	; 139 <__code_start__-0x7ec7>
 1a0:	73726573 	cmnvc	r2, #482344960	; 0x1cc00000
 1a4:	6c696d2f 	stclvs	13, cr6, [r9], #-188	; 0xffffff44
 1a8:	532f7365 			; <UNDEFINED> instruction: 0x532f7365
 1ac:	6372756f 	cmnvs	r2, #465567744	; 0x1bc00000
 1b0:	73632f65 	cmnvc	r3, #404	; 0x194
 1b4:	6c303432 	cfldrsvs	mvf3, [r0], #-200	; 0xffffff38
 1b8:	616c2f78 	smcvs	49912	; 0xc2f8
 1bc:	362f7362 	strtcc	r7, [pc], -r2, ror #6
 1c0:	6265642d 	rsbvs	r6, r5, #754974720	; 0x2d000000
 1c4:	612d6775 			; <UNDEFINED> instruction: 0x612d6775
 1c8:	636f6c6c 	cmnvs	pc, #108, 24	; 0x6c00
 1cc:	646f632f 	strbtvs	r6, [pc], #-815	; 1d4 <__code_start__-0x7e2c>
 1d0:	6b630065 	blvs	18c036c <__bss_end__+0x18b5144>
 1d4:	6b6c625f 	blvs	1b18b58 <__bss_end__+0x1b0d930>
 1d8:	0064695f 	rsbeq	r6, r4, pc, asr r9
 1dc:	636e7566 	cmnvs	lr, #427819008	; 0x19800000
 1e0:	465f5f00 	ldrbmi	r5, [pc], -r0, lsl #30
 1e4:	54434e55 	strbpl	r4, [r3], #-3669	; 0xfffff1ab
 1e8:	5f4e4f49 	svcpl	0x004e4f49
 1ec:	6574005f 	ldrbvs	r0, [r4, #-95]!	; 0xffffffa1
 1f0:	00317473 	eorseq	r7, r1, r3, ror r4
 1f4:	636f6c62 	cmnvs	pc, #25088	; 0x6200
 1f8:	64695f6b 	strbtvs	r5, [r9], #-3947	; 0xfffff095
 1fc:	6e6f6c00 	cdpvs	12, 6, cr6, cr15, cr0, {0}
 200:	6f6c2067 	svcvs	0x006c2067
 204:	7520676e 	strvc	r6, [r0, #-1902]!	; 0xfffff892
 208:	6769736e 	strbvs	r7, [r9, -lr, ror #6]!
 20c:	2064656e 	rsbcs	r6, r4, lr, ror #10
 210:	00746e69 	rsbseq	r6, r4, r9, ror #28
 214:	746e6975 	strbtvc	r6, [lr], #-2421	; 0xfffff68b
 218:	00745f38 	rsbseq	r5, r4, r8, lsr pc
 21c:	6f6c6c61 	svcvs	0x006c6c61
 220:	6f6c5f63 	svcvs	0x006c5f63
 224:	6f6c0063 	svcvs	0x006c0063
 228:	6c20676e 	stcvs	7, cr6, [r0], #-440	; 0xfffffe48
 22c:	20676e6f 	rsbcs	r6, r7, pc, ror #28
 230:	00746e69 	rsbseq	r6, r4, r9, ror #28
 234:	5f697072 	svcpl	0x00697072
 238:	63747570 	cmnvs	r4, #112, 10	; 0x1c000000
 23c:	00726168 	rsbseq	r6, r2, r8, ror #2
 240:	726f6873 	rsbvc	r6, pc, #7536640	; 0x730000
 244:	6e692074 	mcrvs	0, 3, r2, cr9, cr4, {3}
 248:	72730074 	rsbsvc	r0, r3, #116, 0	; 0x74
 24c:	6f6c5f63 	svcvs	0x006c5f63
 250:	00745f63 	rsbseq	r5, r4, r3, ror #30
 254:	746e6975 	strbtvc	r6, [lr], #-2421	; 0xfffff68b
 258:	745f3631 	ldrbvc	r3, [pc], #-1585	; 260 <__code_start__-0x7da0>
 25c:	65726600 	ldrbvs	r6, [r2, #-1536]!	; 0xfffffa00
 260:	6f6c5f65 	svcvs	0x006c5f65
 264:	69750063 	ldmdbvs	r5!, {r0, r1, r5, r6}^
 268:	3233746e 	eorscc	r7, r3, #1845493760	; 0x6e000000
 26c:	7200745f 	andvc	r7, r0, #1593835520	; 0x5f000000
 270:	5f736665 	svcpl	0x00736665
 274:	72617473 	rsbvc	r7, r1, #1929379840	; 0x73000000
 278:	65720074 	ldrbvs	r0, [r2, #-116]!	; 0xffffff8c
 27c:	6d5f7366 	ldclvs	3, cr7, [pc, #-408]	; ec <__code_start__-0x7f14>
 280:	6c646469 	cfstrdvs	mvd6, [r4], #-420	; 0xfffffe5c
 284:	6b630065 	blvs	18c0420 <__bss_end__+0x18b51f8>
 288:	7274705f 	rsbsvc	r7, r4, #95, 0	; 0x5f
 28c:	5f6e695f 	svcpl	0x006e695f
 290:	636f6c62 	cmnvs	pc, #25088	; 0x6200
 294:	5246006b 	subpl	r0, r6, #107, 0	; 0x6b
 298:	00444545 	subeq	r4, r4, r5, asr #10
 29c:	5a444552 	bpl	11117ec <__bss_end__+0x11065c4>
 2a0:	5f454e4f 	svcpl	0x00454e4f
 2a4:	004c4156 	subeq	r4, ip, r6, asr r1
 2a8:	5a444552 	bpl	11117f8 <__bss_end__+0x11065d0>
 2ac:	5f454e4f 	svcpl	0x00454e4f
 2b0:	5459424e 	ldrbpl	r4, [r9], #-590	; 0xfffffdb2
 2b4:	63005345 	movwvs	r5, #837	; 0x345
 2b8:	69665f6b 	stmdbvs	r6!, {r0, r1, r3, r5, r6, r8, r9, sl, fp, ip, lr}^
 2bc:	5f747372 	svcpl	0x00747372
 2c0:	00726468 	rsbseq	r6, r2, r8, ror #8
 2c4:	72666b63 	rsbvc	r6, r6, #101376	; 0x18c00
 2c8:	62006565 	andvs	r6, r0, #423624704	; 0x19400000
 2cc:	746b6361 	strbtvc	r6, [fp], #-865	; 0xfffffc9f
 2d0:	65636172 	strbvs	r6, [r3, #-370]!	; 0xfffffe8e
 2d4:	6c6c6100 	stfvse	f6, [ip], #-0
 2d8:	6c5f636f 	mrrcvs	3, 6, r6, pc, cr15	; <UNPREDICTABLE>
 2dc:	00747369 	rsbseq	r7, r4, r9, ror #6
 2e0:	736d656d 	cmnvc	sp, #457179136	; 0x1b400000
 2e4:	73007465 	movwvc	r7, #1125	; 0x465
 2e8:	6f646168 	svcvs	0x00646168
 2ec:	6f6c5f77 	svcvs	0x006c5f77
 2f0:	69746163 	ldmdbvs	r4!, {r0, r1, r5, r6, r8, sp, lr}^
 2f4:	5f006e6f 	svcpl	0x00006e6f
 2f8:	6165685f 	cmnvs	r5, pc, asr r8
 2fc:	74735f70 	ldrbtvc	r5, [r3], #-3952	; 0xfffff090
 300:	5f747261 	svcpl	0x00747261
 304:	6b63005f 	blvs	18c0488 <__bss_end__+0x18b5260>
 308:	7274705f 	rsbsvc	r7, r4, #95, 0	; 0x5f
 30c:	5f73695f 	svcpl	0x0073695f
 310:	6f6c6c61 	svcvs	0x006c6c61
 314:	00646563 	rsbeq	r6, r4, r3, ror #10
 318:	64616873 	strbtvs	r6, [r1], #-2163	; 0xfffff78d
 31c:	735f776f 	cmpvc	pc, #29097984	; 0x1bc0000
 320:	74726174 	ldrbtvc	r6, [r2], #-372	; 0xfffffe8c
 324:	5f6b6300 	svcpl	0x006b6300
 328:	7478656e 	ldrbtvc	r6, [r8], #-1390	; 0xfffffa92
 32c:	7264685f 	rsbvc	r6, r4, #6225920	; 0x5f0000
 330:	616b6300 	cmnvs	fp, r0, lsl #6
 334:	636f6c6c 	cmnvs	pc, #108, 24	; 0x6c00
 338:	4100632e 	tstmi	r0, lr, lsr #6
 33c:	434f4c4c 	movtmi	r4, #64588	; 0xfc4c
 340:	63004445 	movwvs	r4, #1093	; 0x445
 344:	64685f6b 	strbtvs	r5, [r8], #-3947	; 0xfffff095
 348:	74735f72 	ldrbtvc	r5, [r3], #-3954	; 0xfffff08e
 34c:	00747261 	rsbseq	r7, r4, r1, ror #4
 350:	6769726f 	strbvs	r7, [r9, -pc, ror #4]!
 354:	6c616e69 	stclvs	14, cr6, [r1], #-420	; 0xfffffe5c
 358:	5f6b6300 	svcpl	0x006b6300
 35c:	5f726468 	svcpl	0x00726468
 360:	00646e65 	rsbeq	r6, r4, r5, ror #28
 364:	6e5f6b63 	vnmlavs.f64	d22, d15, d19
 368:	65747962 	ldrbvs	r7, [r4, #-2402]!	; 0xfffff69e
 36c:	726b0073 	rsbvc	r0, fp, #115, 0	; 0x73
 370:	6c616d5f 	stclvs	13, cr6, [r1], #-380	; 0xfffffe84
 374:	00636f6c 	rsbeq	r6, r3, ip, ror #30
 378:	64616568 	strbtvs	r6, [r1], #-1384	; 0xfffffa98
 37c:	70007265 	andvc	r7, r0, r5, ror #4
 380:	70766572 	rsbsvc	r6, r6, r2, ror r5
 384:	696c6100 	stmdbvs	ip!, {r8, sp, lr}^
 388:	6b006e67 	blvs	1bd2c <__bss_end__+0x10b04>
 38c:	72665f72 	rsbvc	r5, r6, #456	; 0x1c8
 390:	66006565 	strvs	r6, [r0], -r5, ror #10
 394:	70656572 	rsbvc	r6, r5, r2, ror r5
 398:	6e756e00 	cdpvs	14, 7, cr6, cr5, cr0, {0}
 39c:	00737469 	rsbseq	r7, r3, r9, ror #8
 3a0:	6d2d726b 	sfmvs	f7, 4, [sp, #-428]!	; 0xfffffe54
 3a4:	6f6c6c61 	svcvs	0x006c6c61
 3a8:	00632e63 	rsbeq	r2, r3, r3, ror #28
 3ac:	62756f64 	rsbsvs	r6, r5, #100, 30	; 0x190
 3b0:	6200656c 	andvs	r6, r0, #108, 10	; 0x1b000000
 3b4:	00657361 	rsbeq	r7, r5, r1, ror #6
 3b8:	6b726273 	blvs	1c98d8c <__bss_end__+0x1c8db64>
 3bc:	726f6d00 	rsbvc	r6, pc, #0, 26
 3c0:	726f6365 	rsbvc	r6, pc, #-1811939327	; 0x94000001
 3c4:	69730065 	ldmdbvs	r3!, {r0, r2, r5, r6}^
 3c8:	4800657a 	stmdami	r0, {r1, r3, r4, r5, r6, r8, sl, sp, lr}
 3cc:	65646165 	strbvs	r6, [r4, #-357]!	; 0xfffffe9b
 3d0:	74730072 	ldrbtvc	r0, [r3], #-114	; 0xffffff8e
 3d4:	5f6b6361 	svcpl	0x006b6361
 3d8:	00706f74 	rsbseq	r6, r0, r4, ror pc
 3dc:	6b72616d 	blvs	1c98998 <__bss_end__+0x1c8d770>
 3e0:	6c6c615f 	stfvse	f6, [ip], #-380	; 0xfffffe84
 3e4:	706d6900 	rsbvc	r6, sp, r0, lsl #18
 3e8:	656d656c 	strbvs	r6, [sp, #-1388]!	; 0xfffffa94
 3ec:	745f746e 	ldrbvc	r7, [pc], #-1134	; 3f4 <__code_start__-0x7c0c>
 3f0:	00736968 	rsbseq	r6, r3, r8, ror #18
 3f4:	73625f5f 	cmnvc	r2, #380	; 0x17c
 3f8:	74735f73 	ldrbtvc	r5, [r3], #-3955	; 0xfffff08d
 3fc:	5f747261 	svcpl	0x00747261
 400:	626e005f 	rsbvs	r0, lr, #95, 0	; 0x5f
 404:	6b636f6c 	blvs	18dc1bc <__bss_end__+0x18d0f94>
 408:	6e690073 	mcrvs	0, 3, r0, cr9, cr3, {3}
 40c:	705f7469 	subsvc	r7, pc, r9, ror #8
 410:	79626e00 	stmdbvc	r2!, {r9, sl, fp, sp, lr}^
 414:	5f736574 	svcpl	0x00736574
 418:	65657266 	strbvs	r7, [r5, #-614]!	; 0xfffffd9a
 41c:	6c6f0064 	stclvs	0, cr0, [pc], #-400	; 294 <__code_start__-0x7d6c>
 420:	616d5f64 	cmnvs	sp, r4, ror #30
 424:	69006b72 	stmdbvs	r0, {r1, r4, r5, r6, r8, r9, fp, sp, lr}
 428:	6572636e 	ldrbvs	r6, [r2, #-878]!	; 0xfffffc92
 42c:	746e656d 	strbtvc	r6, [lr], #-1389	; 0xfffffa93
 430:	79616d00 	stmdbvc	r1!, {r8, sl, fp, sp, lr}^
 434:	655f6562 	ldrbvs	r6, [pc, #-1378]	; fffffeda <__bss_end__+0xffff4cb2>
 438:	726f7272 	rsbvc	r7, pc, #536870919	; 0x20000007
 43c:	6b630073 	blvs	18c0610 <__bss_end__+0x18b53e8>
 440:	0063675f 	rsbeq	r6, r3, pc, asr r7
 444:	706d7564 	rsbvc	r7, sp, r4, ror #10
 448:	6765725f 			; <UNDEFINED> instruction: 0x6765725f
 44c:	6c6e0073 	stclvs	0, cr0, [lr], #-460	; 0xfffffe34
 450:	736b6165 	cmnvc	fp, #1073741849	; 0x40000019
 454:	645f5f00 	ldrbvs	r5, [pc], #-3840	; 45c <__code_start__-0x7ba4>
 458:	5f617461 	svcpl	0x00617461
 45c:	5f646e65 	svcpl	0x00646e65
 460:	7369005f 	cmnvc	r9, #95, 0	; 0x5f
 464:	7274705f 	rsbsvc	r7, r4, #95, 0	; 0x5f
 468:	72666e00 	rsbvc	r6, r6, #0, 28
 46c:	00646565 	rsbeq	r6, r4, r5, ror #10
 470:	63656863 	cmnvs	r5, #6488064	; 0x630000
 474:	6f6e5f6b 	svcvs	0x006e5f6b
 478:	61656c5f 	cmnvs	r5, pc, asr ip
 47c:	6e69006b 	cdpvs	0, 6, cr0, cr9, cr11, {3}
 480:	6165685f 	cmnvs	r5, pc, asr r8
 484:	6e6f0070 	mcrvs	0, 3, r0, cr15, cr0, {3}
 488:	00626d65 	rsbeq	r6, r2, r5, ror #26
 48c:	672d6b63 	strvs	r6, [sp, -r3, ror #22]!
 490:	00632e63 	rsbeq	r2, r3, r3, ror #28
 494:	63656863 	cmnvs	r5, #6488064	; 0x630000
 498:	68735f6b 	ldmdavs	r3!, {r0, r1, r3, r5, r6, r8, r9, sl, fp, ip, lr}^
 49c:	646c756f 	strbtvs	r7, [ip], #-1391	; 0xfffffa91
 4a0:	61656c5f 	cmnvs	r5, pc, asr ip
 4a4:	5f5f006b 	svcpl	0x005f006b
 4a8:	5f737362 	svcpl	0x00737362
 4ac:	5f646e65 	svcpl	0x00646e65
 4b0:	6d6b005f 	stclvs	0, cr0, [fp, #-380]!	; 0xfffffe84
 4b4:	6f6c6c61 	svcvs	0x006c6c61
 4b8:	6d6b0063 	stclvs	0, cr0, [fp, #-396]!	; 0xfffffe74
 4bc:	6f6c6c61 	svcvs	0x006c6c61
 4c0:	6e695f63 	cdpvs	15, 6, cr5, cr9, cr3, {3}
 4c4:	735f7469 	cmpvc	pc, #1761607680	; 0x69000000
 4c8:	735f7465 	cmpvc	pc, #1694498816	; 0x65000000
 4cc:	74726174 	ldrbtvc	r6, [r2], #-372	; 0xfffffe8c
 4d0:	65777300 	ldrbvs	r7, [r7, #-768]!	; 0xfffffd00
 4d4:	6c5f7065 	mrrcvs	0, 6, r7, pc, cr5	; <UNPREDICTABLE>
 4d8:	006b6165 	rsbeq	r6, fp, r5, ror #2
 4dc:	61645f5f 	cmnvs	r4, pc, asr pc
 4e0:	735f6174 	cmpvc	pc, #29
 4e4:	74726174 	ldrbtvc	r6, [r2], #-372	; 0xfffffe8c
 4e8:	73005f5f 	movwvc	r5, #3935	; 0xf5f
 4ec:	70656577 	rsbvc	r6, r5, r7, ror r5
 4f0:	6572665f 	ldrbvs	r6, [r2, #-1631]!	; 0xfffff9a1
 4f4:	61770065 	cmnvs	r7, r5, rrx
 4f8:	6e5f6e72 	mrcvs	14, 2, r6, cr15, cr2, {3}
 4fc:	74735f6f 	ldrbtvc	r5, [r3], #-3951	; 0xfffff091
 500:	5f747261 	svcpl	0x00747261
 504:	5f666572 	svcpl	0x00666572
 508:	6f770070 	svcvs	0x00770070
 50c:	6e006472 	mcrvs	4, 0, r6, cr0, cr2, {3}
 510:	5f656d61 	svcpl	0x00656d61
 514:	006e656c 	rsbeq	r6, lr, ip, ror #10
 518:	20554e47 	subscs	r4, r5, r7, asr #28
 51c:	20393943 	eorscs	r3, r9, r3, asr #18
 520:	2e322e39 	mrccs	14, 1, r2, cr2, cr9, {1}
 524:	30322031 	eorscc	r2, r2, r1, lsr r0
 528:	30313931 	eorscc	r3, r1, r1, lsr r9
 52c:	28203532 	stmdacs	r0!, {r1, r4, r5, r8, sl, ip, sp}
 530:	656c6572 	strbvs	r6, [ip, #-1394]!	; 0xfffffa8e
 534:	29657361 	stmdbcs	r5!, {r0, r5, r6, r8, r9, ip, sp, lr}^
 538:	52415b20 	subpl	r5, r1, #32, 22	; 0x8000
 53c:	72612f4d 	rsbvc	r2, r1, #308	; 0x134
 540:	2d392d6d 	ldccs	13, cr2, [r9, #-436]!	; 0xfffffe4c
 544:	6e617262 	cdpvs	2, 6, cr7, cr1, cr2, {3}
 548:	72206863 	eorvc	r6, r0, #6488064	; 0x630000
 54c:	73697665 	cmnvc	r9, #105906176	; 0x6500000
 550:	206e6f69 	rsbcs	r6, lr, r9, ror #30
 554:	35373732 	ldrcc	r3, [r7, #-1842]!	; 0xfffff8ce
 558:	205d3939 	subscs	r3, sp, r9, lsr r9
 55c:	70636d2d 	rsbvc	r6, r3, sp, lsr #26
 560:	72613d75 	rsbvc	r3, r1, #7488	; 0x1d40
 564:	3731316d 	ldrcc	r3, [r1, -sp, ror #2]!
 568:	667a6a36 			; <UNDEFINED> instruction: 0x667a6a36
 56c:	2d20732d 	stccs	3, cr7, [r0, #-180]!	; 0xffffff4c
 570:	6e75746d 	cdpvs	4, 7, cr7, cr5, cr13, {3}
 574:	72613d65 	rsbvc	r3, r1, #6464	; 0x1940
 578:	3731316d 	ldrcc	r3, [r1, -sp, ror #2]!
 57c:	667a6a36 			; <UNDEFINED> instruction: 0x667a6a36
 580:	2d20732d 	stccs	3, cr7, [r0, #-180]!	; 0xffffff4c
 584:	6f6c666d 	svcvs	0x006c666d
 588:	612d7461 			; <UNDEFINED> instruction: 0x612d7461
 58c:	733d6962 	teqvc	sp, #1605632	; 0x188000
 590:	2074666f 	rsbscs	r6, r4, pc, ror #12
 594:	72616d2d 	rsbvc	r6, r1, #2880	; 0xb40
 598:	6d2d206d 	stcvs	0, cr2, [sp, #-436]!	; 0xfffffe4c
 59c:	68637261 	stmdavs	r3!, {r0, r5, r6, r9, ip, sp, lr}^
 5a0:	6d72613d 	ldfvse	f6, [r2, #-244]!	; 0xffffff0c
 5a4:	7a6b3676 	bvc	1acdf84 <__bss_end__+0x1ac2d5c>
 5a8:	67672d20 	strbvs	r2, [r7, -r0, lsr #26]!
 5ac:	2d206264 	sfmcs	f6, 4, [r0, #-400]!	; 0xfffffe70
 5b0:	7361664f 	cmnvc	r1, #82837504	; 0x4f00000
 5b4:	732d2074 			; <UNDEFINED> instruction: 0x732d2074
 5b8:	673d6474 			; <UNDEFINED> instruction: 0x673d6474
 5bc:	3939756e 	ldmdbcc	r9!, {r1, r2, r3, r5, r6, r8, sl, ip, sp, lr}
 5c0:	66662d20 	strbtvs	r2, [r6], -r0, lsr #26
 5c4:	73656572 	cmnvc	r5, #478150656	; 0x1c800000
 5c8:	646e6174 	strbtvs	r6, [lr], #-372	; 0xfffffe8c
 5cc:	00676e69 	rsbeq	r6, r7, r9, ror #28
 5d0:	735f6e66 	cmpvc	pc, #1632	; 0x660
 5d4:	74726174 	ldrbtvc	r6, [r2], #-372	; 0xfffffe8c
 5d8:	6464615f 	strbtvs	r6, [r4], #-351	; 0xfffffea1
 5dc:	552f0072 	strpl	r0, [pc, #-114]!	; 572 <__code_start__-0x7a8e>
 5e0:	73726573 	cmnvc	r2, #482344960	; 0x1cc00000
 5e4:	6c696d2f 	stclvs	13, cr6, [r9], #-188	; 0xffffff44
 5e8:	532f7365 			; <UNDEFINED> instruction: 0x532f7365
 5ec:	6372756f 	cmnvs	r2, #465567744	; 0x1bc00000
 5f0:	73632f65 	cmnvc	r3, #404	; 0x194
 5f4:	6c303432 	cfldrsvs	mvf3, [r0], #-200	; 0xffffff38
 5f8:	696c2f78 	stmdbvs	ip!, {r3, r4, r5, r6, r8, r9, sl, fp, sp}^
 5fc:	00697062 	rsbeq	r7, r9, r2, rrx
 600:	72732f2e 	rsbsvc	r2, r3, #184	; 0xb8
 604:	61622f63 	cmnvs	r2, r3, ror #30
 608:	72746b63 	rsbsvc	r6, r4, #101376	; 0x18c00
 60c:	2e656361 	cdpcs	3, 6, cr6, cr5, cr1, {3}
 610:	75630063 	strbvc	r0, [r3, #-99]!	; 0xffffff9d
 614:	70665f72 	rsbvc	r5, r6, r2, ror pc
 618:	6d616e00 	stclvs	14, cr6, [r1, #-0]
 61c:	666f5f65 	strbtvs	r5, [pc], -r5, ror #30
 620:	7a697300 	bvc	1a5d228 <__bss_end__+0x1a52000>
 624:	00745f65 	rsbseq	r5, r4, r5, ror #30
 628:	696c2f2e 	stmdbvs	ip!, {r1, r2, r3, r5, r8, r9, sl, fp, sp}^
 62c:	6d2f6362 	stcvs	3, cr6, [pc, #-392]!	; 4ac <__code_start__-0x7b54>
 630:	65736d65 	ldrbvs	r6, [r3, #-3429]!	; 0xfffff29b
 634:	00632e74 	rsbeq	r2, r3, r4, ror lr
 638:	73677261 	cmnvc	r7, #268435462	; 0x10000006
 63c:	5f617600 	svcpl	0x00617600
 640:	6e697270 	mcrvs	2, 3, r7, cr9, cr0, {3}
 644:	5f006b74 	svcpl	0x00006b74
 648:	756e675f 	strbvc	r6, [lr, #-1887]!	; 0xfffff8a1
 64c:	61765f63 	cmnvs	r6, r3, ror #30
 650:	73696c5f 	cmnvc	r9, #24320	; 0x5f00
 654:	5f5f0074 	svcpl	0x005f0074
 658:	2e007061 	cdpcs	0, 0, cr7, cr0, cr1, {3}
 65c:	62696c2f 	rsbvs	r6, r9, #12032	; 0x2f00
 660:	72702f63 	rsbsvc	r2, r0, #396	; 0x18c
 664:	6b746e69 	blvs	1d1c010 <__bss_end__+0x1d10de8>
 668:	5f00632e 	svcpl	0x0000632e
 66c:	5f61765f 	svcpl	0x0061765f
 670:	7473696c 	ldrbtvc	r6, [r3], #-2412	; 0xfffff694
 674:	746e6900 	strbtvc	r6, [lr], #-2304	; 0xfffff700
 678:	616e7265 	cmnvs	lr, r5, ror #4
 67c:	75705f6c 	ldrbvc	r5, [r0, #-3948]!	; 0xfffff094
 680:	2e006b74 	vmovcs.16	d0[1], r6
 684:	62696c2f 	rsbvs	r6, r9, #12032	; 0x2f00
 688:	75702f63 	ldrbvc	r2, [r0, #-3939]!	; 0xfffff09d
 68c:	632e6b74 			; <UNDEFINED> instruction: 0x632e6b74
 690:	64736900 	ldrbtvs	r6, [r3], #-2304	; 0xfffff700
 694:	74696769 	strbtvc	r6, [r9], #-1897	; 0xfffff897
 698:	6e697500 	cdpvs	5, 6, cr7, cr9, cr0, {0}
 69c:	5f343674 	svcpl	0x00343674
 6a0:	2f2e0074 	svccs	0x002e0074
 6a4:	6362696c 	cmnvs	r2, #108, 18	; 0x1b0000
 6a8:	2d61762f 	stclcs	6, cr7, [r1, #-188]!	; 0xffffff44
 6ac:	6e697270 	mcrvs	2, 3, r7, cr9, cr0, {3}
 6b0:	632e6b74 			; <UNDEFINED> instruction: 0x632e6b74
 6b4:	635f5f00 	cmpvs	pc, #0, 30
 6b8:	5f65646f 	svcpl	0x0065646f
 6bc:	72617473 	rsbvc	r7, r1, #1929379840	; 0x73000000
 6c0:	005f5f74 	subseq	r5, pc, r4, ror pc	; <UNPREDICTABLE>
 6c4:	74646977 	strbtvc	r6, [r4], #-2423	; 0xfffff689
 6c8:	75700068 	ldrbvc	r0, [r0, #-104]!	; 0xffffff98
 6cc:	665f6374 			; <UNDEFINED> instruction: 0x665f6374
 6d0:	70720070 	rsbsvc	r0, r2, r0, ror r0
 6d4:	65735f69 	ldrbvs	r5, [r3, #-3945]!	; 0xfffff097
 6d8:	756f5f74 	strbvc	r5, [pc, #-3956]!	; fffff76c <__bss_end__+0xffff4544>
 6dc:	74757074 	ldrbtvc	r7, [r5], #-116	; 0xffffff8c
 6e0:	746d6600 	strbtvc	r6, [sp], #-1536	; 0xfffffa00
 6e4:	6174735f 	cmnvs	r4, pc, asr r3
 6e8:	73007472 	movwvc	r7, #1138	; 0x472
 6ec:	61637274 	smcvs	14116	; 0x3724
 6f0:	74730074 	ldrbtvc	r0, [r3], #-116	; 0xffffff8c
 6f4:	79706372 	ldmdbvc	r0!, {r1, r4, r5, r6, r8, r9, sp, lr}^
 6f8:	67656e00 	strbvs	r6, [r5, -r0, lsl #28]!
 6fc:	5f00705f 	svcpl	0x0000705f
 700:	646f635f 	strbtvs	r6, [pc], #-863	; 708 <__code_start__-0x78f8>
 704:	6e655f65 	cdpvs	15, 6, cr5, cr5, cr5, {3}
 708:	005f5f64 	subseq	r5, pc, r4, ror #30
 70c:	74696d65 	strbtvc	r6, [r9], #-3429	; 0xfffff29b
 710:	76657200 	strbtvc	r7, [r5], -r0, lsl #4
 714:	65737265 	ldrbvs	r7, [r3, #-613]!	; 0xfffffd9b
 718:	72747300 	rsbsvc	r7, r4, #0, 6
 71c:	00706d63 	rsbseq	r6, r0, r3, ror #26
 720:	73747570 	cmnvc	r4, #112, 10	; 0x1c000000
 724:	0070665f 	rsbseq	r6, r0, pc, asr r6
 728:	72705f5f 	rsbsvc	r5, r0, #380	; 0x17c
 72c:	655f676f 	ldrbvs	r6, [pc, #-1903]	; ffffffc5 <__bss_end__+0xffff4d9d>
 730:	5f5f646e 	svcpl	0x005f646e
 734:	6d756e00 	ldclvs	14, cr6, [r5, #-0]
 738:	74730031 	ldrbtvc	r0, [r3], #-49	; 0xffffffcf
 73c:	6d636e72 	stclvs	14, cr6, [r3, #-456]!	; 0xfffffe38
 740:	69730070 	ldmdbvs	r3!, {r4, r5, r6}^
 744:	64656e67 	strbtvs	r6, [r5], #-3687	; 0xfffff199
 748:	7200705f 	andvc	r7, r0, #95, 0	; 0x5f
 74c:	725f6970 	subsvc	r6, pc, #112, 18	; 0x1c0000
 750:	6f6f6265 	svcvs	0x006f6265
 754:	65640074 	strbvs	r0, [r4, #-116]!	; 0xffffff8c
 758:	5f79616c 	svcpl	0x0079616c
 75c:	2e00736d 	cdpcs	3, 0, cr7, cr0, cr13, {3}
 760:	6174732f 	cmnvs	r4, pc, lsr #6
 764:	732d6666 			; <UNDEFINED> instruction: 0x732d6666
 768:	632f6372 			; <UNDEFINED> instruction: 0x632f6372
 76c:	6e61656c 	cdpvs	5, 6, cr6, cr1, cr12, {3}
 770:	6265722d 	rsbvs	r7, r5, #-805306366	; 0xd0000002
 774:	2e746f6f 	cdpcs	15, 7, cr6, cr4, cr15, {3}
 778:	61750063 	cmnvs	r5, r3, rrx
 77c:	665f7472 			; <UNDEFINED> instruction: 0x665f7472
 780:	6873756c 	ldmdavs	r3!, {r2, r3, r5, r6, r8, sl, ip, sp, lr}^
 784:	0078745f 	rsbseq	r7, r8, pc, asr r4
 788:	7473635f 	ldrbtvc	r6, [r3], #-863	; 0xfffffca1
 78c:	00747261 	rsbseq	r7, r4, r1, ror #4
 790:	5f737362 	svcpl	0x00737362
 794:	00646e65 	rsbeq	r6, r4, r5, ror #28
 798:	74726175 	ldrbtvc	r6, [r2], #-373	; 0xfffffe8b
 79c:	696e695f 	stmdbvs	lr!, {r0, r1, r2, r3, r4, r6, r8, fp, sp, lr}^
 7a0:	75630074 	strbvc	r0, [r3, #-116]!	; 0xffffff8c
 7a4:	6d6f7473 	cfstrdvs	mvd7, [pc, #-460]!	; 5e0 <__code_start__-0x7a20>
 7a8:	616f6c5f 	cmnvs	pc, pc, asr ip	; <UNPREDICTABLE>
 7ac:	00726564 	rsbseq	r6, r2, r4, ror #10
 7b0:	74732f2e 	ldrbtvc	r2, [r3], #-3886	; 0xfffff0d2
 7b4:	2d666661 	stclcs	6, cr6, [r6, #-388]!	; 0xfffffe7c
 7b8:	2f637273 	svccs	0x00637273
 7bc:	61747363 	cmnvs	r4, r3, ror #6
 7c0:	632e7472 			; <UNDEFINED> instruction: 0x632e7472
 7c4:	756f5f00 	strbvc	r5, [pc, #-3840]!	; fffff8cc <__bss_end__+0xffff46a4>
 7c8:	79630074 	stmdbvc	r3!, {r2, r4, r5, r6}^
 7cc:	5f656c63 	svcpl	0x00656c63
 7d0:	66666964 	strbtvs	r6, [r6], -r4, ror #18
 7d4:	73616c00 	cmnvc	r1, #0, 24
 7d8:	2f2e0074 	svccs	0x002e0074
 7dc:	66617473 			; <UNDEFINED> instruction: 0x66617473
 7e0:	72732d66 	rsbsvc	r2, r3, #6528	; 0x1980
 7e4:	75632f63 	strbvc	r2, [r3, #-3939]!	; 0xfffff09d
 7e8:	6d6f7473 	cfstrdvs	mvd7, [pc, #-460]!	; 624 <__code_start__-0x79dc>
 7ec:	616f6c2d 	cmnvs	pc, sp, lsr #24
 7f0:	2e726564 	cdpcs	5, 7, cr6, cr2, cr4, {3}
 7f4:	65720063 	ldrbvs	r0, [r2, #-99]!	; 0xffffff9d
 7f8:	746f6f62 	strbtvc	r6, [pc], #-3938	; 800 <__code_start__-0x7800>
 7fc:	6c61635f 	stclvs	3, cr6, [r1], #-380	; 0xfffffe84
 800:	74756f6c 	ldrbtvc	r6, [r5], #-3948	; 0xfffff094
 804:	5f4d5000 	svcpl	0x004d5000
 808:	474f4457 	smlsldmi	r4, pc, r7, r4	; <UNPREDICTABLE>
 80c:	54555000 	ldrbpl	r5, [r5], #-0
 810:	73003233 	movwvc	r3, #563	; 0x233
 814:	755f7465 	ldrbvc	r7, [pc, #-1125]	; 3b7 <__code_start__-0x7c49>
 818:	5f726573 	svcpl	0x00726573
 81c:	6576656c 	ldrbvs	r6, [r6, #-1388]!	; 0xfffffa94
 820:	2f2e006c 	svccs	0x002e006c
 824:	66617473 			; <UNDEFINED> instruction: 0x66617473
 828:	72732d66 	rsbsvc	r2, r3, #6528	; 0x1980
 82c:	65722f63 	ldrbvs	r2, [r2, #-3939]!	; 0xfffff09d
 830:	746f6f62 	strbtvc	r6, [pc], #-3938	; 838 <__code_start__-0x77c8>
 834:	5000632e 	andpl	r6, r0, lr, lsr #6
 838:	41505f4d 	cmpmi	r0, sp, asr #30
 83c:	4f575353 	svcmi	0x00575353
 840:	61004452 	tstvs	r0, r2, asr r4
 844:	73755f74 	cmnvc	r5, #116, 30	; 0x1d0
 848:	6c5f7265 	lfmvs	f7, 2, [pc], {101}	; 0x65
 84c:	6c657665 	stclvs	6, cr7, [r5], #-404	; 0xfffffe6c
 850:	5f4d5000 	svcpl	0x004d5000
 854:	43545352 	cmpmi	r4, #1207959553	; 0x48000001
 858:	4352575f 	cmpmi	r2, #24903680	; 0x17c0000
 85c:	465f4746 	ldrbmi	r4, [pc], -r6, asr #14
 860:	5f4c4c55 	svcpl	0x004c4c55
 864:	45534552 	ldrbmi	r4, [r3, #-1362]	; 0xfffffaae
 868:	4d500054 	ldclmi	0, cr0, [r0, #-336]	; 0xfffffeb0
 86c:	5453525f 	ldrbpl	r5, [r3], #-607	; 0xfffffda1
 870:	70630043 	rsbvc	r0, r3, r3, asr #32
 874:	64007273 	strvs	r7, [r0], #-627	; 0xfffffd8d
 878:	625f7665 	subsvs	r7, pc, #105906176	; 0x6500000
 87c:	69727261 	ldmdbvs	r2!, {r0, r5, r6, r9, ip, sp, lr}^
 880:	64007265 	strvs	r7, [r0], #-613	; 0xfffffd9b
 884:	79616c65 	stmdbvc	r1!, {r0, r2, r5, r6, sl, fp, sp, lr}^
 888:	6365735f 	cmnvs	r5, #2080374785	; 0x7c000001
 88c:	732f2e00 			; <UNDEFINED> instruction: 0x732f2e00
 890:	66666174 			; <UNDEFINED> instruction: 0x66666174
 894:	6372732d 	cmnvs	r2, #-1275068416	; 0xb4000000
 898:	6d69742f 	cfstrdvs	mvd7, [r9, #-188]!	; 0xffffff44
 89c:	632e7265 			; <UNDEFINED> instruction: 0x632e7265
 8a0:	54454700 	strbpl	r4, [r5], #-1792	; 0xfffff900
 8a4:	74003233 	strvc	r3, [r0], #-563	; 0xfffffdcd
 8a8:	72656d69 	rsbvc	r6, r5, #6720	; 0x1a40
 8ac:	7465675f 	strbtvc	r6, [r5], #-1887	; 0xfffff8a1
 8b0:	6573755f 	ldrbvs	r7, [r3, #-1375]!	; 0xfffffaa1
 8b4:	65640063 	strbvs	r0, [r4, #-99]!	; 0xffffff9d
 8b8:	5f79616c 	svcpl	0x0079616c
 8bc:	74007375 	strvc	r7, [r0], #-885	; 0xfffffc8b
 8c0:	72656d69 	rsbvc	r6, r5, #6720	; 0x1a40
 8c4:	7465675f 	strbtvc	r6, [r5], #-1887	; 0xfffff8a1
 8c8:	6573755f 	ldrbvs	r7, [r3, #-1375]!	; 0xfffffaa1
 8cc:	61725f63 	cmnvs	r2, r3, ror #30
 8d0:	75700077 	ldrbvc	r0, [r0, #-119]!	; 0xffffff89
 8d4:	00323374 	eorseq	r3, r2, r4, ror r3
 8d8:	64756162 	ldrbtvs	r6, [r5], #-354	; 0xfffffe9e
 8dc:	6c61765f 	stclvs	6, cr7, [r1], #-380	; 0xfffffe84
 8e0:	61747300 	cmnvs	r4, r0, lsl #6
 8e4:	61750074 	cmnvs	r5, r4, ror r0
 8e8:	635f7472 	cmpvs	pc, #1912602624	; 0x72000000
 8ec:	675f6e61 	ldrbvs	r6, [pc, -r1, ror #28]
 8f0:	00637465 	rsbeq	r7, r3, r5, ror #8
 8f4:	4f495047 	svcmi	0x00495047
 8f8:	4e55465f 	mrcmi	6, 2, r4, cr5, cr15, {2}
 8fc:	554f5f43 	strbpl	r5, [pc, #-3907]	; fffff9c1 <__bss_end__+0xffff4799>
 900:	54555054 	ldrbpl	r5, [r5], #-84	; 0xffffffac
 904:	78756100 	ldmdavc	r5!, {r8, sp, lr}^
 908:	7265705f 	rsbvc	r7, r5, #95, 0	; 0x5f
 90c:	73687069 	cmnvc	r8, #105, 0	; 0x69
 910:	72617500 	rsbvc	r7, r1, #0, 10
 914:	00632e74 	rsbeq	r2, r3, r4, ror lr
 918:	74726175 	ldrbtvc	r6, [r2], #-373	; 0xfffffe8b
 91c:	6e61635f 	mcrvs	3, 3, r6, cr1, cr15, {2}
 920:	7475705f 	ldrbtvc	r7, [r5], #-95	; 0xffffffa1
 924:	61750063 	cmnvs	r5, r3, rrx
 928:	745f7472 	ldrbvc	r7, [pc], #-1138	; 930 <__code_start__-0x76d0>
 92c:	73695f78 	cmnvc	r9, #120, 30	; 0x1e0
 930:	706d655f 	rsbvc	r6, sp, pc, asr r5
 934:	47007974 	smlsdxmi	r0, r4, r9, r7
 938:	5f4f4950 	svcpl	0x004f4950
 93c:	434e5546 	movtmi	r5, #58694	; 0xe546
 940:	544c415f 	strbpl	r4, [ip], #-351	; 0xfffffea1
 944:	50470030 	subpl	r0, r7, r0, lsr r0
 948:	465f4f49 	ldrbmi	r4, [pc], -r9, asr #30
 94c:	5f434e55 	svcpl	0x00434e55
 950:	31544c41 	cmpcc	r4, r1, asr #24
 954:	49504700 	ldmdbmi	r0, {r8, r9, sl, lr}^
 958:	55465f4f 	strbpl	r5, [r6, #-3919]	; 0xfffff0b1
 95c:	415f434e 	cmpmi	pc, lr, asr #6
 960:	0032544c 	eorseq	r5, r2, ip, asr #8
 964:	4f495047 	svcmi	0x00495047
 968:	4e55465f 	mrcmi	6, 2, r4, cr5, cr15, {2}
 96c:	4c415f43 	mcrrmi	15, 4, r5, r1, cr3
 970:	47003354 	smlsdmi	r0, r4, r3, r3
 974:	5f4f4950 	svcpl	0x004f4950
 978:	434e5546 	movtmi	r5, #58694	; 0xe546
 97c:	544c415f 	strbpl	r4, [ip], #-351	; 0xfffffea1
 980:	682f0035 	stmdavs	pc!, {r0, r2, r4, r5}	; <UNPREDICTABLE>
 984:	2f656d6f 	svccs	0x00656d6f
 988:	6c676e65 	stclvs	14, cr6, [r7], #-404	; 0xfffffe6c
 98c:	632f7265 			; <UNDEFINED> instruction: 0x632f7265
 990:	7373616c 	cmnvc	r3, #27
 994:	3273632f 	rsbscc	r6, r3, #-1140850688	; 0xbc000000
 998:	786c3034 	stmdavc	ip!, {r2, r4, r5, ip, sp}^
 99c:	7332322d 	teqvc	r2, #-805306366	; 0xd0000002
 9a0:	6c2f7270 	sfmvs	f7, 4, [pc], #-448	; 7e8 <__code_start__-0x7818>
 9a4:	69706269 	ldmdbvs	r0!, {r0, r3, r5, r6, r9, sp, lr}^
 9a8:	6174732f 	cmnvs	r4, pc, lsr #6
 9ac:	702d6666 	eorvc	r6, sp, r6, ror #12
 9b0:	61766972 	cmnvs	r6, r2, ror r9
 9b4:	62006574 	andvs	r6, r0, #116, 10	; 0x1d000000
 9b8:	00647561 	rsbeq	r7, r4, r1, ror #10
 9bc:	5f787561 	svcpl	0x00787561
 9c0:	62616e65 	rsbvs	r6, r1, #1616	; 0x650
 9c4:	0073656c 	rsbseq	r6, r3, ip, ror #10
 9c8:	74726175 	ldrbtvc	r6, [r2], #-373	; 0xfffffe8b
 9cc:	7465675f 	strbtvc	r6, [r5], #-1887	; 0xfffff8a1
 9d0:	4e470063 	cdpmi	0, 4, cr0, cr7, cr3, {3}
 9d4:	39432055 	stmdbcc	r3, {r0, r2, r4, r6, sp}^
 9d8:	30312039 	eorscc	r2, r1, r9, lsr r0
 9dc:	312e332e 			; <UNDEFINED> instruction: 0x312e332e
 9e0:	32303220 	eorscc	r3, r0, #32, 4
 9e4:	32383031 	eorscc	r3, r8, #49, 0	; 0x31
 9e8:	72282034 	eorvc	r2, r8, #52, 0	; 0x34
 9ec:	61656c65 	cmnvs	r5, r5, ror #24
 9f0:	20296573 	eorcs	r6, r9, r3, ror r5
 9f4:	70636d2d 	rsbvc	r6, r3, sp, lsr #26
 9f8:	72613d75 	rsbvc	r3, r1, #7488	; 0x1d40
 9fc:	3731316d 	ldrcc	r3, [r1, -sp, ror #2]!
 a00:	667a6a36 			; <UNDEFINED> instruction: 0x667a6a36
 a04:	2d20732d 	stccs	3, cr7, [r0, #-180]!	; 0xffffff4c
 a08:	6e75746d 	cdpvs	4, 7, cr7, cr5, cr13, {3}
 a0c:	72613d65 	rsbvc	r3, r1, #6464	; 0x1940
 a10:	3731316d 	ldrcc	r3, [r1, -sp, ror #2]!
 a14:	667a6a36 			; <UNDEFINED> instruction: 0x667a6a36
 a18:	2d20732d 	stccs	3, cr7, [r0, #-180]!	; 0xffffff4c
 a1c:	6f6c666d 	svcvs	0x006c666d
 a20:	612d7461 			; <UNDEFINED> instruction: 0x612d7461
 a24:	733d6962 	teqvc	sp, #1605632	; 0x188000
 a28:	2074666f 	rsbscs	r6, r4, pc, ror #12
 a2c:	72616d2d 	rsbvc	r6, r1, #2880	; 0xb40
 a30:	6d2d206d 	stcvs	0, cr2, [sp, #-436]!	; 0xfffffe4c
 a34:	68637261 	stmdavs	r3!, {r0, r5, r6, r9, ip, sp, lr}^
 a38:	6d72613d 	ldfvse	f6, [r2, #-244]!	; 0xffffff0c
 a3c:	7a6b3676 	bvc	1ace41c <__bss_end__+0x1ac31f4>
 a40:	67672d20 	strbvs	r2, [r7, -r0, lsr #26]!
 a44:	2d206264 	sfmcs	f6, 4, [r0, #-400]!	; 0xfffffe70
 a48:	2d20674f 	stccs	7, cr6, [r0, #-316]!	; 0xfffffec4
 a4c:	3d647473 	cfstrdcc	mvd7, [r4, #-460]!	; 0xfffffe34
 a50:	39756e67 	ldmdbcc	r5!, {r0, r1, r2, r5, r6, r9, sl, fp, sp, lr}^
 a54:	662d2039 			; <UNDEFINED> instruction: 0x662d2039
 a58:	65657266 	strbvs	r7, [r5, #-614]!	; 0xfffffd9a
 a5c:	6e617473 	mcrvs	4, 3, r7, cr1, cr3, {3}
 a60:	676e6964 	strbvs	r6, [lr, -r4, ror #18]!
 a64:	746e6300 	strbtvc	r6, [lr], #-768	; 0xfffffd00
 a68:	6175006c 	cmnvs	r5, ip, rrx
 a6c:	645f7472 	ldrbvs	r7, [pc], #-1138	; a74 <__code_start__-0x758c>
 a70:	62617369 	rsbvs	r7, r1, #-1543503871	; 0xa4000001
 a74:	7500656c 	strvc	r6, [r0, #-1388]	; 0xfffffa94
 a78:	5f747261 	svcpl	0x00747261
 a7c:	5f736168 	svcpl	0x00736168
 a80:	61746164 	cmnvs	r4, r4, ror #2
 a84:	49504700 	ldmdbmi	r0, {r8, r9, sl, lr}^
 a88:	55465f4f 	strbpl	r5, [r6, #-3919]	; 0xfffff0b1
 a8c:	415f434e 	cmpmi	pc, lr, asr #6
 a90:	0034544c 	eorseq	r5, r4, ip, asr #8
 a94:	695f726f 	ldmdbvs	pc, {r0, r1, r2, r3, r5, r6, r9, ip, sp, lr}^	; <UNPREDICTABLE>
 a98:	0032336e 	eorseq	r3, r2, lr, ror #6
 a9c:	61726373 	cmnvs	r2, r3, ror r3
 aa0:	00686374 	rsbeq	r6, r8, r4, ror r3
 aa4:	74726175 	ldrbtvc	r6, [r2], #-373	; 0xfffffe8b
 aa8:	646e6100 	strbtvs	r6, [lr], #-256	; 0xffffff00
 aac:	336e695f 	cmncc	lr, #1556480	; 0x17c000
 ab0:	61750032 	cmnvs	r5, r2, lsr r0
 ab4:	705f7472 	subsvc	r7, pc, r2, ror r4	; <UNPREDICTABLE>
 ab8:	00637475 	rsbeq	r7, r3, r5, ror r4
 abc:	4f495047 	svcmi	0x00495047
 ac0:	4e55465f 	mrcmi	6, 2, r4, cr5, cr15, {2}
 ac4:	4e495f43 	cdpmi	15, 4, cr5, cr9, cr3, {2}
 ac8:	00545550 	subseq	r5, r4, r0, asr r5
 acc:	6f697067 	svcvs	0x00697067
 ad0:	7465735f 	strbtvc	r7, [r5], #-863	; 0xfffffca1
 ad4:	6e75665f 	mrcvs	6, 3, r6, cr5, cr15, {2}
 ad8:	6f697463 	svcvs	0x00697463
 adc:	6567006e 	strbvs	r0, [r7, #-110]!	; 0xffffff92
 ae0:	00323374 	eorseq	r3, r2, r4, ror r3
 ae4:	6c616d6b 	stclvs	13, cr6, [r1], #-428	; 0xfffffe54
 ae8:	5f636f6c 	svcpl	0x00636f6c
 aec:	70616568 	rsbvc	r6, r1, r8, ror #10
 af0:	6174735f 	cmnvs	r4, pc, asr r3
 af4:	6d007472 	cfstrsvs	mvf7, [r0, #-456]	; 0xfffffe38
 af8:	6e5f7861 	cdpvs	8, 5, cr7, cr15, cr1, {3}
 afc:	65747962 	ldrbvs	r7, [r4, #-2402]!	; 0xfffff69e
 b00:	65680073 	strbvs	r0, [r8, #-115]!	; 0xffffff8d
 b04:	6d5f7061 	ldclvs	0, cr7, [pc, #-388]	; 988 <__code_start__-0x7678>
 b08:	6b007861 	blvs	1ec94 <__bss_end__+0x13a6c>
 b0c:	65657266 	strbvs	r7, [r5, #-614]!	; 0xfffffd9a
 b10:	6c6c615f 	stfvse	f6, [ip], #-380	; 0xfffffe84
 b14:	756f7200 	strbvc	r7, [pc, #-512]!	; 91c <__code_start__-0x76e4>
 b18:	7075646e 	rsbsvc	r6, r5, lr, ror #8
 b1c:	72666b00 	rsbvc	r6, r6, #0, 22
 b20:	705f6565 	subsvc	r6, pc, r5, ror #10
 b24:	6100706f 	tstvs	r0, pc, rrx
 b28:	6e67696c 	vnmulvs.f16	s13, s14, s25	; <UNPREDICTABLE>
 b2c:	746e656d 	strbtvc	r6, [lr], #-1389	; 0xfffffa93
 b30:	78616d00 	stmdavc	r1!, {r8, sl, fp, sp, lr}^
 b34:	3233755f 	eorscc	r7, r3, #398458880	; 0x17c00000
 b38:	656e4f00 	strbvs	r4, [lr, #-3840]!	; 0xfffff100
 b3c:	6b00424d 	blvs	11478 <__bss_end__+0x6250>
 b40:	6c6c616d 	stfvse	f6, [ip], #-436	; 0xfffffe4c
 b44:	685f636f 	ldmdavs	pc, {r0, r1, r2, r3, r5, r6, r8, r9, sp, lr}^	; <UNPREDICTABLE>
 b48:	5f706165 	svcpl	0x00706165
 b4c:	00646e65 	rsbeq	r6, r4, r5, ror #28
 b50:	6c616d6b 	stclvs	13, cr6, [r1], #-428	; 0xfffffe54
 b54:	5f636f6c 	svcpl	0x00636f6c
 b58:	7a746f6e 	bvc	1d1c918 <__bss_end__+0x1d116f0>
 b5c:	006f7265 	rsbeq	r7, pc, r5, ror #4
 b60:	705f7369 	subsvc	r7, pc, r9, ror #6
 b64:	0032776f 	eorseq	r7, r2, pc, ror #14
 b68:	6c616d6b 	stclvs	13, cr6, [r1], #-428	; 0xfffffe54
 b6c:	2e636f6c 	cdpcs	15, 6, cr6, cr3, cr12, {3}
 b70:	6d6b0063 	stclvs	0, cr0, [fp, #-396]!	; 0xfffffe74
 b74:	6f6c6c61 	svcvs	0x006c6c61
 b78:	6e695f63 	cdpvs	15, 6, cr5, cr9, cr3, {3}
 b7c:	69007469 	stmdbvs	r0, {r0, r3, r5, r6, sl, ip, sp, lr}
 b80:	6c615f73 	stclvs	15, cr5, [r1], #-460	; 0xfffffe34
 b84:	656e6769 	strbvs	r6, [lr, #-1897]!	; 0xfffff897
 b88:	6d6b0064 	stclvs	0, cr0, [fp, #-400]!	; 0xfffffe70
 b8c:	6f6c6c61 	svcvs	0x006c6c61
 b90:	65685f63 	strbvs	r5, [r8, #-3939]!	; 0xfffff09d
 b94:	705f7061 	subsvc	r7, pc, r1, rrx
 b98:	72007274 	andvc	r7, r0, #116, 4	; 0x40000007
 b9c:	725f6970 	subsvc	r6, pc, #112, 18	; 0x1c0000
 ba0:	74657365 	strbtvc	r7, [r5], #-869	; 0xfffffc9b
 ba4:	7475705f 	ldrbtvc	r7, [r5], #-95	; 0xffffffa1
 ba8:	6d6b0063 	stclvs	0, cr0, [fp, #-396]!	; 0xfffffe74
 bac:	6f6c6c61 	svcvs	0x006c6c61
 bb0:	6c615f63 	stclvs	15, cr5, [r1], #-396	; 0xfffffe74
 bb4:	656e6769 	strbvs	r6, [lr, #-1897]!	; 0xfffff897
 bb8:	70670064 	rsbvc	r0, r7, r4, rrx
 bbc:	635f6f69 	cmpvs	pc, #420	; 0x1a4
 bc0:	0030726c 	eorseq	r7, r0, ip, ror #4
 bc4:	6f697067 	svcvs	0x00697067
 bc8:	7465735f 	strbtvc	r7, [r5], #-863	; 0xfffffca1
 bcc:	70670030 	rsbvc	r0, r7, r0, lsr r0
 bd0:	775f6f69 	ldrbvc	r6, [pc, -r9, ror #30]
 bd4:	65746972 	ldrbvs	r6, [r4, #-2418]!	; 0xfffff68e
 bd8:	56454400 	strbpl	r4, [r5], -r0, lsl #8
 bdc:	4c41565f 	mcrrmi	6, 5, r5, r1, cr15
 be0:	67003233 	smladxvs	r0, r3, r2, r3
 be4:	5f6f6970 	svcpl	0x006f6970
 be8:	64616572 	strbtvs	r6, [r1], #-1394	; 0xfffffa8e
 bec:	732f2e00 			; <UNDEFINED> instruction: 0x732f2e00
 bf0:	672f6372 			; <UNDEFINED> instruction: 0x672f6372
 bf4:	2e6f6970 			; <UNDEFINED> instruction: 0x2e6f6970
 bf8:	70670063 	rsbvc	r0, r7, r3, rrx
 bfc:	735f6f69 	cmpvc	pc, #420	; 0x1a4
 c00:	695f7465 	ldmdbvs	pc, {r0, r2, r5, r6, sl, ip, sp, lr}^	; <UNPREDICTABLE>
 c04:	7475706e 	ldrbtvc	r7, [r5], #-110	; 0xffffff92
 c08:	69706700 	ldmdbvs	r0!, {r8, r9, sl, sp, lr}^
 c0c:	65735f6f 	ldrbvs	r5, [r3, #-3951]!	; 0xfffff091
 c10:	666f5f74 	uqsub16vs	r5, pc, r4	; <UNPREDICTABLE>
 c14:	70670066 	rsbvc	r0, r7, r6, rrx
 c18:	735f6f69 	cmpvc	pc, #420	; 0x1a4
 c1c:	6f5f7465 	svcvs	0x005f7465
 c20:	75707475 	ldrbvc	r7, [r0, #-1141]!	; 0xfffffb8b
 c24:	70670074 	rsbvc	r0, r7, r4, ror r0
 c28:	665f6f69 	ldrbvs	r6, [pc], -r9, ror #30
 c2c:	5f636e75 	svcpl	0x00636e75
 c30:	70670074 	rsbvc	r0, r7, r4, ror r0
 c34:	6c5f6f69 	mrrcvs	15, 6, r6, pc, cr9	; <UNPREDICTABLE>
 c38:	00307665 	eorseq	r7, r0, r5, ror #12
 c3c:	6b6e6162 	blvs	1b991cc <__bss_end__+0x1b8dfa4>
 c40:	69706700 	ldmdbvs	r0!, {r8, r9, sl, sp, lr}^
 c44:	65735f6f 	ldrbvs	r5, [r3, #-3951]!	; 0xfffff091
 c48:	6e6f5f74 	mcrvs	15, 3, r5, cr15, cr4, {3}
 c4c:	746e6900 	strbtvc	r6, [lr], #-2304	; 0xfffff700
 c50:	616e7265 	cmnvs	lr, r5, ror #4
 c54:	75705f6c 	ldrbvc	r5, [r0, #-3948]!	; 0xfffff094
 c58:	61686374 	smcvs	34356	; 0x8634
 c5c:	70720072 	rsbsvc	r0, r2, r2, ror r0
 c60:	65735f69 	ldrbvs	r5, [r3, #-3945]!	; 0xfffff097
 c64:	75705f74 	ldrbvc	r5, [r0, #-3956]!	; 0xfffff08c
 c68:	2e006374 	mcrcs	3, 0, r6, cr0, cr4, {3}
 c6c:	62696c2f 	rsbvs	r6, r9, #12032	; 0x2f00
 c70:	75702f63 	ldrbvc	r2, [r0, #-3939]!	; 0xfffff09d
 c74:	61686374 	smcvs	34356	; 0x8634
 c78:	00632e72 	rsbeq	r2, r3, r2, ror lr
 c7c:	696c2f2e 	stmdbvs	ip!, {r1, r2, r3, r5, r8, r9, sl, fp, sp}^
 c80:	732f6362 			; <UNDEFINED> instruction: 0x732f6362
 c84:	61637274 	smcvs	14116	; 0x3724
 c88:	00632e74 	rsbeq	r2, r3, r4, ror lr
 c8c:	74736564 	ldrbtvc	r6, [r3], #-1380	; 0xfffffa9c
 c90:	6c2f2e00 	stcvs	14, cr2, [pc], #-0	; c98 <__code_start__-0x7368>
 c94:	2f636269 	svccs	0x00636269
 c98:	63727473 	cmnvs	r2, #1929379840	; 0x73000000
 c9c:	632e706d 			; <UNDEFINED> instruction: 0x632e706d
 ca0:	6c2f2e00 	stcvs	14, cr2, [pc], #-0	; ca8 <__code_start__-0x7358>
 ca4:	2f636269 	svccs	0x00636269
 ca8:	63727473 	cmnvs	r2, #1929379840	; 0x73000000
 cac:	632e7970 			; <UNDEFINED> instruction: 0x632e7970
 cb0:	6c2f2e00 	stcvs	14, cr2, [pc], #-0	; cb8 <__code_start__-0x7348>
 cb4:	2f636269 	svccs	0x00636269
 cb8:	6e727473 	mrcvs	4, 3, r7, cr2, cr3, {3}
 cbc:	2e706d63 	cdpcs	13, 7, cr6, cr0, cr3, {3}
 cc0:	2f2e0063 	svccs	0x002e0063
 cc4:	66617473 			; <UNDEFINED> instruction: 0x66617473
 cc8:	72732d66 	rsbsvc	r2, r3, #6528	; 0x1980
 ccc:	65642f63 	strbvs	r2, [r4, #-3939]!	; 0xfffff09d
 cd0:	6c756166 	ldfvse	f6, [r5], #-408	; 0xfffffe68
 cd4:	65722d74 	ldrbvs	r2, [r2, #-3444]!	; 0xfffff28c
 cd8:	746f6f62 	strbtvc	r6, [pc], #-3938	; ce0 <__code_start__-0x7320>
 cdc:	6c61632d 	stclvs	3, cr6, [r1], #-180	; 0xffffff4c
 ce0:	74756f6c 	ldrbtvc	r6, [r5], #-3948	; 0xfffff094
 ce4:	Address 0x0000000000000ce4 is out of bounds.


Disassembly of section .debug_frame:

00000000 <.debug_frame>:
   0:	0000000c 	andeq	r0, r0, ip
   4:	ffffffff 			; <UNDEFINED> instruction: 0xffffffff
   8:	7c020001 	stcvc	0, cr0, [r2], {1}
   c:	000d0c0e 	andeq	r0, sp, lr, lsl #24
  10:	0000001c 	andeq	r0, r0, ip, lsl r0
  14:	00000000 	andeq	r0, r0, r0
  18:	00008048 	andeq	r8, r0, r8, asr #32
  1c:	00000014 	andeq	r0, r0, r4, lsl r0
  20:	420c0d42 	andmi	r0, ip, #4224	; 0x1080
  24:	038d048b 	orreq	r0, sp, #-1962934272	; 0x8b000000
  28:	0c42028e 	sfmeq	f0, 2, [r2], {142}	; 0x8e
  2c:	0000040b 	andeq	r0, r0, fp, lsl #8
  30:	00000020 	andeq	r0, r0, r0, lsr #32
  34:	00000000 	andeq	r0, r0, r0
  38:	00008068 	andeq	r8, r0, r8, rrx
  3c:	00000068 	andeq	r0, r0, r8, rrx
  40:	420c0d42 	andmi	r0, ip, #4224	; 0x1080
  44:	048b0584 	streq	r0, [fp], #1412	; 0x584
  48:	028e038d 	addeq	r0, lr, #872415234	; 0x34000002
  4c:	040b0c42 	streq	r0, [fp], #-3138	; 0xfffff3be
  50:	140d0c66 	strne	r0, [sp], #-3174	; 0xfffff39a
  54:	00000024 	andeq	r0, r0, r4, lsr #32
  58:	00000000 	andeq	r0, r0, r0
  5c:	000080dc 	ldrdeq	r8, [r0], -ip
  60:	000000ac 	andeq	r0, r0, ip, lsr #1
  64:	420c0d42 	andmi	r0, ip, #4224	; 0x1080
  68:	048b0584 	streq	r0, [fp], #1412	; 0x584
  6c:	028e038d 	addeq	r0, lr, #872415234	; 0x34000002
  70:	040b0c42 	streq	r0, [fp], #-3138	; 0xfffff3be
  74:	0d0c0a66 	vstreq	s0, [ip, #-408]	; 0xfffffe68
  78:	000b4214 	andeq	r4, fp, r4, lsl r2
  7c:	0000000c 	andeq	r0, r0, ip
  80:	ffffffff 			; <UNDEFINED> instruction: 0xffffffff
  84:	7c020001 	stcvc	0, cr0, [r2], {1}
  88:	000d0c0e 	andeq	r0, sp, lr, lsl #24
  8c:	0000001c 	andeq	r0, r0, ip, lsl r0
  90:	0000007c 	andeq	r0, r0, ip, ror r0
  94:	0000819c 	muleq	r0, ip, r1
  98:	0000001c 	andeq	r0, r0, ip, lsl r0
  9c:	420c0d42 	andmi	r0, ip, #4224	; 0x1080
  a0:	038d048b 	orreq	r0, sp, #-1962934272	; 0x8b000000
  a4:	0c42028e 	sfmeq	f0, 2, [r2], {142}	; 0x8e
  a8:	0000040b 	andeq	r0, r0, fp, lsl #8
  ac:	0000001c 	andeq	r0, r0, ip, lsl r0
  b0:	0000007c 	andeq	r0, r0, ip, ror r0
  b4:	000081c8 	andeq	r8, r0, r8, asr #3
  b8:	0000001c 	andeq	r0, r0, ip, lsl r0
  bc:	420c0d42 	andmi	r0, ip, #4224	; 0x1080
  c0:	038d048b 	orreq	r0, sp, #-1962934272	; 0x8b000000
  c4:	0c42028e 	sfmeq	f0, 2, [r2], {142}	; 0x8e
  c8:	0000040b 	andeq	r0, r0, fp, lsl #8
  cc:	0000001c 	andeq	r0, r0, ip, lsl r0
  d0:	0000007c 	andeq	r0, r0, ip, ror r0
  d4:	000081f8 	strdeq	r8, [r0], -r8	; <UNPREDICTABLE>
  d8:	00000014 	andeq	r0, r0, r4, lsl r0
  dc:	420c0d42 	andmi	r0, ip, #4224	; 0x1080
  e0:	038d048b 	orreq	r0, sp, #-1962934272	; 0x8b000000
  e4:	0c42028e 	sfmeq	f0, 2, [r2], {142}	; 0x8e
  e8:	0000040b 	andeq	r0, r0, fp, lsl #8
  ec:	00000020 	andeq	r0, r0, r0, lsr #32
  f0:	0000007c 	andeq	r0, r0, ip, ror r0
  f4:	0000821c 	andeq	r8, r0, ip, lsl r2
  f8:	00000020 	andeq	r0, r0, r0, lsr #32
  fc:	420c0d42 	andmi	r0, ip, #4224	; 0x1080
 100:	05850684 	streq	r0, [r5, #1668]	; 0x684
 104:	038d048b 	orreq	r0, sp, #-1962934272	; 0x8b000000
 108:	0c42028e 	sfmeq	f0, 2, [r2], {142}	; 0x8e
 10c:	0000040b 	andeq	r0, r0, fp, lsl #8
 110:	00000024 	andeq	r0, r0, r4, lsr #32
 114:	0000007c 	andeq	r0, r0, ip, ror r0
 118:	00008250 	andeq	r8, r0, r0, asr r2
 11c:	00000038 	andeq	r0, r0, r8, lsr r0
 120:	420c0d42 	andmi	r0, ip, #4224	; 0x1080
 124:	07850884 	streq	r0, [r5, r4, lsl #17]
 128:	05870686 	streq	r0, [r7, #1670]	; 0x686
 12c:	038d048b 	orreq	r0, sp, #-1962934272	; 0x8b000000
 130:	0c42028e 	sfmeq	f0, 2, [r2], {142}	; 0x8e
 134:	0000040b 	andeq	r0, r0, fp, lsl #8
 138:	00000020 	andeq	r0, r0, r0, lsr #32
 13c:	0000007c 	andeq	r0, r0, ip, ror r0
 140:	000082a0 	andeq	r8, r0, r0, lsr #5
 144:	00000060 	andeq	r0, r0, r0, rrx
 148:	420c0d42 	andmi	r0, ip, #4224	; 0x1080
 14c:	05850684 	streq	r0, [r5, #1668]	; 0x684
 150:	038d048b 	orreq	r0, sp, #-1962934272	; 0x8b000000
 154:	0c42028e 	sfmeq	f0, 2, [r2], {142}	; 0x8e
 158:	0000040b 	andeq	r0, r0, fp, lsl #8
 15c:	00000028 	andeq	r0, r0, r8, lsr #32
 160:	0000007c 	andeq	r0, r0, ip, ror r0
 164:	0000830c 	andeq	r8, r0, ip, lsl #6
 168:	0000015c 	andeq	r0, r0, ip, asr r1
 16c:	420c0d42 	andmi	r0, ip, #4224	; 0x1080
 170:	07850884 	streq	r0, [r5, r4, lsl #17]
 174:	05870686 	streq	r0, [r7, #1670]	; 0x686
 178:	038d048b 	orreq	r0, sp, #-1962934272	; 0x8b000000
 17c:	0c42028e 	sfmeq	f0, 2, [r2], {142}	; 0x8e
 180:	9a02040b 	bls	811b4 <__bss_end__+0x75f8c>
 184:	00200d0c 	eoreq	r0, r0, ip, lsl #26
 188:	0000001c 	andeq	r0, r0, ip, lsl r0
 18c:	0000007c 	andeq	r0, r0, ip, ror r0
 190:	0000847c 	andeq	r8, r0, ip, ror r4
 194:	00000044 	andeq	r0, r0, r4, asr #32
 198:	420c0d42 	andmi	r0, ip, #4224	; 0x1080
 19c:	038d048b 	orreq	r0, sp, #-1962934272	; 0x8b000000
 1a0:	0c42028e 	sfmeq	f0, 2, [r2], {142}	; 0x8e
 1a4:	0000040b 	andeq	r0, r0, fp, lsl #8
 1a8:	00000028 	andeq	r0, r0, r8, lsr #32
 1ac:	0000007c 	andeq	r0, r0, ip, ror r0
 1b0:	000084cc 	andeq	r8, r0, ip, asr #9
 1b4:	000000fc 	strdeq	r0, [r0], -ip
 1b8:	420c0d42 	andmi	r0, ip, #4224	; 0x1080
 1bc:	07850884 	streq	r0, [r5, r4, lsl #17]
 1c0:	05870686 	streq	r0, [r7, #1670]	; 0x686
 1c4:	038d048b 	orreq	r0, sp, #-1962934272	; 0x8b000000
 1c8:	0c42028e 	sfmeq	f0, 2, [r2], {142}	; 0x8e
 1cc:	6e02040b 	cdpvs	4, 0, cr0, cr2, cr11, {0}
 1d0:	00200d0c 	eoreq	r0, r0, ip, lsl #26
 1d4:	0000000c 	andeq	r0, r0, ip
 1d8:	ffffffff 			; <UNDEFINED> instruction: 0xffffffff
 1dc:	7c020001 	stcvc	0, cr0, [r2], {1}
 1e0:	000d0c0e 	andeq	r0, sp, lr, lsl #24
 1e4:	0000001c 	andeq	r0, r0, ip, lsl r0
 1e8:	000001d4 	ldrdeq	r0, [r0], -r4
 1ec:	000085d4 	ldrdeq	r8, [r0], -r4
 1f0:	000000c4 	andeq	r0, r0, r4, asr #1
 1f4:	420c0d42 	andmi	r0, ip, #4224	; 0x1080
 1f8:	038d048b 	orreq	r0, sp, #-1962934272	; 0x8b000000
 1fc:	0c42028e 	sfmeq	f0, 2, [r2], {142}	; 0x8e
 200:	0000040b 	andeq	r0, r0, fp, lsl #8
 204:	00000020 	andeq	r0, r0, r0, lsr #32
 208:	000001d4 	ldrdeq	r0, [r0], -r4
 20c:	000086a8 	andeq	r8, r0, r8, lsr #13
 210:	0000005c 	andeq	r0, r0, ip, asr r0
 214:	420c0d42 	andmi	r0, ip, #4224	; 0x1080
 218:	05850684 	streq	r0, [r5, #1668]	; 0x684
 21c:	038d048b 	orreq	r0, sp, #-1962934272	; 0x8b000000
 220:	0c42028e 	sfmeq	f0, 2, [r2], {142}	; 0x8e
 224:	0000040b 	andeq	r0, r0, fp, lsl #8
 228:	00000020 	andeq	r0, r0, r0, lsr #32
 22c:	000001d4 	ldrdeq	r0, [r0], -r4
 230:	00008714 	andeq	r8, r0, r4, lsl r7
 234:	000000b4 	strheq	r0, [r0], -r4
 238:	420c0d42 	andmi	r0, ip, #4224	; 0x1080
 23c:	05850684 	streq	r0, [r5, #1668]	; 0x684
 240:	038d048b 	orreq	r0, sp, #-1962934272	; 0x8b000000
 244:	0c42028e 	sfmeq	f0, 2, [r2], {142}	; 0x8e
 248:	0000040b 	andeq	r0, r0, fp, lsl #8
 24c:	0000000c 	andeq	r0, r0, ip
 250:	ffffffff 			; <UNDEFINED> instruction: 0xffffffff
 254:	7c020001 	stcvc	0, cr0, [r2], {1}
 258:	000d0c0e 	andeq	r0, sp, lr, lsl #24
 25c:	0000001c 	andeq	r0, r0, ip, lsl r0
 260:	0000024c 	andeq	r0, r0, ip, asr #4
 264:	000087d4 	ldrdeq	r8, [r0], -r4
 268:	00000048 	andeq	r0, r0, r8, asr #32
 26c:	420c0d42 	andmi	r0, ip, #4224	; 0x1080
 270:	038d048b 	orreq	r0, sp, #-1962934272	; 0x8b000000
 274:	0c42028e 	sfmeq	f0, 2, [r2], {142}	; 0x8e
 278:	0000040b 	andeq	r0, r0, fp, lsl #8
 27c:	00000020 	andeq	r0, r0, r0, lsr #32
 280:	0000024c 	andeq	r0, r0, ip, asr #4
 284:	00008828 	andeq	r8, r0, r8, lsr #16
 288:	00000030 	andeq	r0, r0, r0, lsr r0
 28c:	420c0d42 	andmi	r0, ip, #4224	; 0x1080
 290:	05850684 	streq	r0, [r5, #1668]	; 0x684
 294:	038d048b 	orreq	r0, sp, #-1962934272	; 0x8b000000
 298:	0c42028e 	sfmeq	f0, 2, [r2], {142}	; 0x8e
 29c:	0000040b 	andeq	r0, r0, fp, lsl #8
 2a0:	00000024 	andeq	r0, r0, r4, lsr #32
 2a4:	0000024c 	andeq	r0, r0, ip, asr #4
 2a8:	00008864 	andeq	r8, r0, r4, ror #16
 2ac:	00000118 	andeq	r0, r0, r8, lsl r1
 2b0:	420c0d42 	andmi	r0, ip, #4224	; 0x1080
 2b4:	05850684 	streq	r0, [r5, #1668]	; 0x684
 2b8:	038d048b 	orreq	r0, sp, #-1962934272	; 0x8b000000
 2bc:	0c42028e 	sfmeq	f0, 2, [r2], {142}	; 0x8e
 2c0:	7802040b 	stmdavc	r2, {r0, r1, r3, sl}
 2c4:	00180d0c 	andseq	r0, r8, ip, lsl #26
 2c8:	00000020 	andeq	r0, r0, r0, lsr #32
 2cc:	0000024c 	andeq	r0, r0, ip, asr #4
 2d0:	0000898c 	andeq	r8, r0, ip, lsl #19
 2d4:	000000ac 	andeq	r0, r0, ip, lsr #1
 2d8:	420c0d42 	andmi	r0, ip, #4224	; 0x1080
 2dc:	038d048b 	orreq	r0, sp, #-1962934272	; 0x8b000000
 2e0:	0c42028e 	sfmeq	f0, 2, [r2], {142}	; 0x8e
 2e4:	4402040b 	strmi	r0, [r2], #-1035	; 0xfffffbf5
 2e8:	00100d0c 	andseq	r0, r0, ip, lsl #26
 2ec:	00000028 	andeq	r0, r0, r8, lsr #32
 2f0:	0000024c 	andeq	r0, r0, ip, asr #4
 2f4:	00008a48 	andeq	r8, r0, r8, asr #20
 2f8:	00000108 	andeq	r0, r0, r8, lsl #2
 2fc:	420c0d42 	andmi	r0, ip, #4224	; 0x1080
 300:	09850a84 	stmibeq	r5, {r2, r7, r9, fp}
 304:	07870886 	streq	r0, [r7, r6, lsl #17]
 308:	05890688 	streq	r0, [r9, #1672]	; 0x688
 30c:	038d048b 	orreq	r0, sp, #-1962934272	; 0x8b000000
 310:	0c42028e 	sfmeq	f0, 2, [r2], {142}	; 0x8e
 314:	0000040b 	andeq	r0, r0, fp, lsl #8
 318:	0000002c 	andeq	r0, r0, ip, lsr #32
 31c:	0000024c 	andeq	r0, r0, ip, asr #4
 320:	00008b60 	andeq	r8, r0, r0, ror #22
 324:	000000f0 	strdeq	r0, [r0], -r0	; <UNPREDICTABLE>
 328:	420c0d42 	andmi	r0, ip, #4224	; 0x1080
 32c:	08850984 	stmeq	r5, {r2, r7, r8, fp}
 330:	06870786 	streq	r0, [r7], r6, lsl #15
 334:	048b0588 	streq	r0, [fp], #1416	; 0x588
 338:	028e038d 	addeq	r0, lr, #872415234	; 0x34000002
 33c:	040b0c42 	streq	r0, [fp], #-3138	; 0xfffff3be
 340:	0d0c6202 	sfmeq	f6, 4, [ip, #-8]
 344:	00000024 	andeq	r0, r0, r4, lsr #32
 348:	00000028 	andeq	r0, r0, r8, lsr #32
 34c:	0000024c 	andeq	r0, r0, ip, asr #4
 350:	00008c5c 	andeq	r8, r0, ip, asr ip
 354:	000000ac 	andeq	r0, r0, ip, lsr #1
 358:	420c0d42 	andmi	r0, ip, #4224	; 0x1080
 35c:	05850684 	streq	r0, [r5, #1668]	; 0x684
 360:	038d048b 	orreq	r0, sp, #-1962934272	; 0x8b000000
 364:	0c42028e 	sfmeq	f0, 2, [r2], {142}	; 0x8e
 368:	0a66040b 	beq	198139c <__bss_end__+0x1976174>
 36c:	42180d0c 	andsmi	r0, r8, #12, 26	; 0x300
 370:	0000000b 	andeq	r0, r0, fp
 374:	0000001c 	andeq	r0, r0, ip, lsl r0
 378:	0000024c 	andeq	r0, r0, ip, asr #4
 37c:	00008d1c 	andeq	r8, r0, ip, lsl sp
 380:	00000014 	andeq	r0, r0, r4, lsl r0
 384:	420c0d42 	andmi	r0, ip, #4224	; 0x1080
 388:	038d048b 	orreq	r0, sp, #-1962934272	; 0x8b000000
 38c:	0c42028e 	sfmeq	f0, 2, [r2], {142}	; 0x8e
 390:	0000040b 	andeq	r0, r0, fp, lsl #8
 394:	0000001c 	andeq	r0, r0, ip, lsl r0
 398:	0000024c 	andeq	r0, r0, ip, asr #4
 39c:	00008d44 	andeq	r8, r0, r4, asr #26
 3a0:	00000050 	andeq	r0, r0, r0, asr r0
 3a4:	420c0d42 	andmi	r0, ip, #4224	; 0x1080
 3a8:	038d048b 	orreq	r0, sp, #-1962934272	; 0x8b000000
 3ac:	0c42028e 	sfmeq	f0, 2, [r2], {142}	; 0x8e
 3b0:	0000040b 	andeq	r0, r0, fp, lsl #8
 3b4:	00000020 	andeq	r0, r0, r0, lsr #32
 3b8:	0000024c 	andeq	r0, r0, ip, asr #4
 3bc:	00008dac 	andeq	r8, r0, ip, lsr #27
 3c0:	00000058 	andeq	r0, r0, r8, asr r0
 3c4:	420c0d42 	andmi	r0, ip, #4224	; 0x1080
 3c8:	05850684 	streq	r0, [r5, #1668]	; 0x684
 3cc:	038d048b 	orreq	r0, sp, #-1962934272	; 0x8b000000
 3d0:	0c42028e 	sfmeq	f0, 2, [r2], {142}	; 0x8e
 3d4:	0000040b 	andeq	r0, r0, fp, lsl #8
 3d8:	0000001c 	andeq	r0, r0, ip, lsl r0
 3dc:	0000024c 	andeq	r0, r0, ip, asr #4
 3e0:	00008e10 	andeq	r8, r0, r0, lsl lr
 3e4:	00000018 	andeq	r0, r0, r8, lsl r0
 3e8:	420c0d42 	andmi	r0, ip, #4224	; 0x1080
 3ec:	038d048b 	orreq	r0, sp, #-1962934272	; 0x8b000000
 3f0:	0c42028e 	sfmeq	f0, 2, [r2], {142}	; 0x8e
 3f4:	0000040b 	andeq	r0, r0, fp, lsl #8
 3f8:	0000001c 	andeq	r0, r0, ip, lsl r0
 3fc:	0000024c 	andeq	r0, r0, ip, asr #4
 400:	00008e3c 	andeq	r8, r0, ip, lsr lr
 404:	00000034 	andeq	r0, r0, r4, lsr r0
 408:	420c0d42 	andmi	r0, ip, #4224	; 0x1080
 40c:	038d048b 	orreq	r0, sp, #-1962934272	; 0x8b000000
 410:	0c42028e 	sfmeq	f0, 2, [r2], {142}	; 0x8e
 414:	0000040b 	andeq	r0, r0, fp, lsl #8
 418:	0000000c 	andeq	r0, r0, ip
 41c:	ffffffff 			; <UNDEFINED> instruction: 0xffffffff
 420:	7c020001 	stcvc	0, cr0, [r2], {1}
 424:	000d0c0e 	andeq	r0, sp, lr, lsl #24
 428:	0000001c 	andeq	r0, r0, ip, lsl r0
 42c:	00000418 	andeq	r0, r0, r8, lsl r4
 430:	00008e78 	andeq	r8, r0, r8, ror lr
 434:	00000080 	andeq	r0, r0, r0, lsl #1
 438:	84180e42 	ldrhi	r0, [r8], #-3650	; 0xfffff1be
 43c:	86058506 	strhi	r8, [r5], -r6, lsl #10
 440:	88038704 	stmdahi	r3, {r2, r8, r9, sl, pc}
 444:	00018e02 	andeq	r8, r1, r2, lsl #28
 448:	0000000c 	andeq	r0, r0, ip
 44c:	00000418 	andeq	r0, r0, r8, lsl r4
 450:	00008ef8 	strdeq	r8, [r0], -r8	; <UNPREDICTABLE>
 454:	00000020 	andeq	r0, r0, r0, lsr #32
 458:	0000000c 	andeq	r0, r0, ip
 45c:	ffffffff 			; <UNDEFINED> instruction: 0xffffffff
 460:	7c020001 	stcvc	0, cr0, [r2], {1}
 464:	000d0c0e 	andeq	r0, sp, lr, lsl #24
 468:	00000014 	andeq	r0, r0, r4, lsl r0
 46c:	00000458 	andeq	r0, r0, r8, asr r4
 470:	00008f18 	andeq	r8, r0, r8, lsl pc
 474:	00000078 	andeq	r0, r0, r8, ror r0
 478:	84080e42 	strhi	r0, [r8], #-3650	; 0xfffff1be
 47c:	00018e02 	andeq	r8, r1, r2, lsl #28
 480:	0000000c 	andeq	r0, r0, ip
 484:	ffffffff 			; <UNDEFINED> instruction: 0xffffffff
 488:	7c020001 	stcvc	0, cr0, [r2], {1}
 48c:	000d0c0e 	andeq	r0, sp, lr, lsl #24
 490:	00000034 	andeq	r0, r0, r4, lsr r0
 494:	00000480 	andeq	r0, r0, r0, lsl #9
 498:	00008f90 	muleq	r0, r0, pc	; <UNPREDICTABLE>
 49c:	00000058 	andeq	r0, r0, r8, asr r0
 4a0:	80100e42 	andshi	r0, r0, r2, asr #28
 4a4:	82038104 	andhi	r8, r3, #1
 4a8:	42018302 	andmi	r8, r1, #134217728	; 0x8000000
 4ac:	07841c0e 	streq	r1, [r4, lr, lsl #24]
 4b0:	058e0685 	streq	r0, [lr, #1669]	; 0x685
 4b4:	5a280e44 	bpl	a03dcc <__bss_end__+0x9f8ba4>
 4b8:	ce421c0e 	cdpgt	12, 4, cr1, cr2, cr14, {0}
 4bc:	100ec4c5 	andne	ip, lr, r5, asr #9
 4c0:	c1c2c342 	bicgt	ip, r2, r2, asr #6
 4c4:	00000ec0 	andeq	r0, r0, r0, asr #29
 4c8:	0000000c 	andeq	r0, r0, ip
 4cc:	ffffffff 			; <UNDEFINED> instruction: 0xffffffff
 4d0:	7c020001 	stcvc	0, cr0, [r2], {1}
 4d4:	000d0c0e 	andeq	r0, sp, lr, lsl #24
 4d8:	00000018 	andeq	r0, r0, r8, lsl r0
 4dc:	000004c8 	andeq	r0, r0, r8, asr #9
 4e0:	00008fe8 	andeq	r8, r0, r8, ror #31
 4e4:	00000038 	andeq	r0, r0, r8, lsr r0
 4e8:	84100e42 	ldrhi	r0, [r0], #-3650	; 0xfffff1be
 4ec:	86038504 	strhi	r8, [r3], -r4, lsl #10
 4f0:	00018e02 	andeq	r8, r1, r2, lsl #28
 4f4:	0000000c 	andeq	r0, r0, ip
 4f8:	ffffffff 			; <UNDEFINED> instruction: 0xffffffff
 4fc:	7c020001 	stcvc	0, cr0, [r2], {1}
 500:	000d0c0e 	andeq	r0, sp, lr, lsl #24
 504:	0000002c 	andeq	r0, r0, ip, lsr #32
 508:	000004f4 	strdeq	r0, [r0], -r4
 50c:	00009020 	andeq	r9, r0, r0, lsr #32
 510:	00000328 	andeq	r0, r0, r8, lsr #6
 514:	84180e42 	ldrhi	r0, [r8], #-3650	; 0xfffff1be
 518:	86058506 	strhi	r8, [r5], -r6, lsl #10
 51c:	88038704 	stmdahi	r3, {r2, r8, r9, sl, pc}
 520:	46018e02 	strmi	r8, [r1], -r2, lsl #28
 524:	c002600e 	andgt	r6, r2, lr
 528:	42180e0a 	andsmi	r0, r8, #160	; 0xa0
 52c:	0a8e020b 	beq	fe380d60 <__bss_end__+0xfe375b38>
 530:	0b42180e 	bleq	1086570 <__bss_end__+0x107b348>
 534:	00000014 	andeq	r0, r0, r4, lsl r0
 538:	000004f4 	strdeq	r0, [r0], -r4
 53c:	00009348 	andeq	r9, r0, r8, asr #6
 540:	00000060 	andeq	r0, r0, r0, rrx
 544:	8e040e52 	mcrhi	14, 0, r0, cr4, cr2, {2}
 548:	100e4401 	andne	r4, lr, r1, lsl #8
 54c:	0000002c 	andeq	r0, r0, ip, lsr #32
 550:	000004f4 	strdeq	r0, [r0], -r4
 554:	000093a8 	andeq	r9, r0, r8, lsr #7
 558:	0000062c 	andeq	r0, r0, ip, lsr #12
 55c:	84240e42 	strthi	r0, [r4], #-3650	; 0xfffff1be
 560:	86088509 	strhi	r8, [r8], -r9, lsl #10
 564:	88068707 	stmdahi	r6, {r0, r1, r2, r8, r9, sl, pc}
 568:	8a048905 	bhi	122984 <__bss_end__+0x11775c>
 56c:	8e028b03 	vmlahi.f64	d8, d2, d3
 570:	c00e5201 	andgt	r5, lr, r1, lsl #4
 574:	0a860202 	beq	fe180d84 <__bss_end__+0xfe175b5c>
 578:	0b42240e 	bleq	10895b8 <__bss_end__+0x107e390>
 57c:	0000000c 	andeq	r0, r0, ip
 580:	ffffffff 			; <UNDEFINED> instruction: 0xffffffff
 584:	7c020001 	stcvc	0, cr0, [r2], {1}
 588:	000d0c0e 	andeq	r0, sp, lr, lsl #24
 58c:	00000014 	andeq	r0, r0, r4, lsl r0
 590:	0000057c 	andeq	r0, r0, ip, ror r5
 594:	000099d4 	ldrdeq	r9, [r0], -r4
 598:	0000002c 	andeq	r0, r0, ip, lsr #32
 59c:	84080e44 	strhi	r0, [r8], #-3652	; 0xfffff1bc
 5a0:	00018e02 	andeq	r8, r1, r2, lsl #28
 5a4:	0000000c 	andeq	r0, r0, ip
 5a8:	ffffffff 			; <UNDEFINED> instruction: 0xffffffff
 5ac:	7c020001 	stcvc	0, cr0, [r2], {1}
 5b0:	000d0c0e 	andeq	r0, sp, lr, lsl #24
 5b4:	00000018 	andeq	r0, r0, r8, lsl r0
 5b8:	000005a4 	andeq	r0, r0, r4, lsr #11
 5bc:	00009a00 	andeq	r9, r0, r0, lsl #20
 5c0:	00000128 	andeq	r0, r0, r8, lsr #2
 5c4:	84100e42 	ldrhi	r0, [r0], #-3650	; 0xfffff1be
 5c8:	86038504 	strhi	r8, [r3], -r4, lsl #10
 5cc:	00018e02 	andeq	r8, r1, r2, lsl #28
 5d0:	0000000c 	andeq	r0, r0, ip
 5d4:	ffffffff 			; <UNDEFINED> instruction: 0xffffffff
 5d8:	7c020001 	stcvc	0, cr0, [r2], {1}
 5dc:	000d0c0e 	andeq	r0, sp, lr, lsl #24
 5e0:	0000000c 	andeq	r0, r0, ip
 5e4:	000005d0 	ldrdeq	r0, [r0], -r0	; <UNPREDICTABLE>
 5e8:	00009b28 	andeq	r9, r0, r8, lsr #22
 5ec:	00000004 	andeq	r0, r0, r4
 5f0:	0000000c 	andeq	r0, r0, ip
 5f4:	ffffffff 			; <UNDEFINED> instruction: 0xffffffff
 5f8:	7c020001 	stcvc	0, cr0, [r2], {1}
 5fc:	000d0c0e 	andeq	r0, sp, lr, lsl #24
 600:	0000000c 	andeq	r0, r0, ip
 604:	000005f0 	strdeq	r0, [r0], -r0	; <UNPREDICTABLE>
 608:	00009b2c 	andeq	r9, r0, ip, lsr #22
 60c:	00000018 	andeq	r0, r0, r8, lsl r0
 610:	0000000c 	andeq	r0, r0, ip
 614:	000005f0 	strdeq	r0, [r0], -r0	; <UNPREDICTABLE>
 618:	00009b44 	andeq	r9, r0, r4, asr #22
 61c:	00000014 	andeq	r0, r0, r4, lsl r0
 620:	00000014 	andeq	r0, r0, r4, lsl r0
 624:	000005f0 	strdeq	r0, [r0], -r0	; <UNPREDICTABLE>
 628:	00009b58 	andeq	r9, r0, r8, asr fp
 62c:	00000060 	andeq	r0, r0, r0, rrx
 630:	84080e42 	strhi	r0, [r8], #-3650	; 0xfffff1be
 634:	00018e02 	andeq	r8, r1, r2, lsl #28
 638:	0000000c 	andeq	r0, r0, ip
 63c:	ffffffff 			; <UNDEFINED> instruction: 0xffffffff
 640:	7c020001 	stcvc	0, cr0, [r2], {1}
 644:	000d0c0e 	andeq	r0, sp, lr, lsl #24
 648:	0000000c 	andeq	r0, r0, ip
 64c:	00000638 	andeq	r0, r0, r8, lsr r6
 650:	00009bb8 			; <UNDEFINED> instruction: 0x00009bb8
 654:	0000000c 	andeq	r0, r0, ip
 658:	00000014 	andeq	r0, r0, r4, lsl r0
 65c:	00000638 	andeq	r0, r0, r8, lsr r6
 660:	00009bc4 	andeq	r9, r0, r4, asr #23
 664:	00000024 	andeq	r0, r0, r4, lsr #32
 668:	84080e42 	strhi	r0, [r8], #-3650	; 0xfffff1be
 66c:	00018e02 	andeq	r8, r1, r2, lsl #28
 670:	0000001c 	andeq	r0, r0, ip, lsl r0
 674:	00000638 	andeq	r0, r0, r8, lsr r6
 678:	00009be8 	andeq	r9, r0, r8, ror #23
 67c:	00000048 	andeq	r0, r0, r8, asr #32
 680:	84180e42 	ldrhi	r0, [r8], #-3650	; 0xfffff1be
 684:	86058506 	strhi	r8, [r5], -r6, lsl #10
 688:	88038704 	stmdahi	r3, {r2, r8, r9, sl, pc}
 68c:	00018e02 	andeq	r8, r1, r2, lsl #28
 690:	0000001c 	andeq	r0, r0, ip, lsl r0
 694:	00000638 	andeq	r0, r0, r8, lsr r6
 698:	00009c30 	andeq	r9, r0, r0, lsr ip
 69c:	00000050 	andeq	r0, r0, r0, asr r0
 6a0:	84180e42 	ldrhi	r0, [r8], #-3650	; 0xfffff1be
 6a4:	86058506 	strhi	r8, [r5], -r6, lsl #10
 6a8:	88038704 	stmdahi	r3, {r2, r8, r9, sl, pc}
 6ac:	00018e02 	andeq	r8, r1, r2, lsl #28
 6b0:	0000001c 	andeq	r0, r0, ip, lsl r0
 6b4:	00000638 	andeq	r0, r0, r8, lsr r6
 6b8:	00009c80 	andeq	r9, r0, r0, lsl #25
 6bc:	00000054 	andeq	r0, r0, r4, asr r0
 6c0:	84180e42 	ldrhi	r0, [r8], #-3650	; 0xfffff1be
 6c4:	86058506 	strhi	r8, [r5], -r6, lsl #10
 6c8:	88038704 	stmdahi	r3, {r2, r8, r9, sl, pc}
 6cc:	00018e02 	andeq	r8, r1, r2, lsl #28
 6d0:	0000000c 	andeq	r0, r0, ip
 6d4:	ffffffff 			; <UNDEFINED> instruction: 0xffffffff
 6d8:	7c020001 	stcvc	0, cr0, [r2], {1}
 6dc:	000d0c0e 	andeq	r0, sp, lr, lsl #24
 6e0:	00000018 	andeq	r0, r0, r8, lsl r0
 6e4:	000006d0 	ldrdeq	r0, [r0], -r0	; <UNPREDICTABLE>
 6e8:	00009cd4 	ldrdeq	r9, [r0], -r4
 6ec:	00000020 	andeq	r0, r0, r0, lsr #32
 6f0:	84100e42 	ldrhi	r0, [r0], #-3650	; 0xfffff1be
 6f4:	86038504 	strhi	r8, [r3], -r4, lsl #10
 6f8:	00018e02 	andeq	r8, r1, r2, lsl #28
 6fc:	00000018 	andeq	r0, r0, r8, lsl r0
 700:	000006d0 	ldrdeq	r0, [r0], -r0	; <UNPREDICTABLE>
 704:	00009cf4 	strdeq	r9, [r0], -r4
 708:	00000020 	andeq	r0, r0, r0, lsr #32
 70c:	84100e42 	ldrhi	r0, [r0], #-3650	; 0xfffff1be
 710:	86038504 	strhi	r8, [r3], -r4, lsl #10
 714:	00018e02 	andeq	r8, r1, r2, lsl #28
 718:	00000014 	andeq	r0, r0, r4, lsl r0
 71c:	000006d0 	ldrdeq	r0, [r0], -r0	; <UNPREDICTABLE>
 720:	00009d14 	andeq	r9, r0, r4, lsl sp
 724:	000000b0 	strheq	r0, [r0], -r0	; <UNPREDICTABLE>
 728:	84080e42 	strhi	r0, [r8], #-3650	; 0xfffff1be
 72c:	00018e02 	andeq	r8, r1, r2, lsl #28
 730:	00000014 	andeq	r0, r0, r4, lsl r0
 734:	000006d0 	ldrdeq	r0, [r0], -r0	; <UNPREDICTABLE>
 738:	00009dc4 	andeq	r9, r0, r4, asr #27
 73c:	00000018 	andeq	r0, r0, r8, lsl r0
 740:	84080e42 	strhi	r0, [r8], #-3650	; 0xfffff1be
 744:	00018e02 	andeq	r8, r1, r2, lsl #28
 748:	00000014 	andeq	r0, r0, r4, lsl r0
 74c:	000006d0 	ldrdeq	r0, [r0], -r0	; <UNPREDICTABLE>
 750:	00009ddc 	ldrdeq	r9, [r0], -ip
 754:	00000020 	andeq	r0, r0, r0, lsr #32
 758:	84080e42 	strhi	r0, [r8], #-3650	; 0xfffff1be
 75c:	00018e02 	andeq	r8, r1, r2, lsl #28
 760:	00000014 	andeq	r0, r0, r4, lsl r0
 764:	000006d0 	ldrdeq	r0, [r0], -r0	; <UNPREDICTABLE>
 768:	00009dfc 	strdeq	r9, [r0], -ip
 76c:	00000030 	andeq	r0, r0, r0, lsr r0
 770:	84080e42 	strhi	r0, [r8], #-3650	; 0xfffff1be
 774:	00018e02 	andeq	r8, r1, r2, lsl #28
 778:	00000014 	andeq	r0, r0, r4, lsl r0
 77c:	000006d0 	ldrdeq	r0, [r0], -r0	; <UNPREDICTABLE>
 780:	00009e2c 	andeq	r9, r0, ip, lsr #28
 784:	00000030 	andeq	r0, r0, r0, lsr r0
 788:	84080e42 	strhi	r0, [r8], #-3650	; 0xfffff1be
 78c:	00018e02 	andeq	r8, r1, r2, lsl #28
 790:	00000014 	andeq	r0, r0, r4, lsl r0
 794:	000006d0 	ldrdeq	r0, [r0], -r0	; <UNPREDICTABLE>
 798:	00009e5c 	andeq	r9, r0, ip, asr lr
 79c:	00000010 	andeq	r0, r0, r0, lsl r0
 7a0:	84080e42 	strhi	r0, [r8], #-3650	; 0xfffff1be
 7a4:	00018e02 	andeq	r8, r1, r2, lsl #28
 7a8:	00000014 	andeq	r0, r0, r4, lsl r0
 7ac:	000006d0 	ldrdeq	r0, [r0], -r0	; <UNPREDICTABLE>
 7b0:	00009e6c 	andeq	r9, r0, ip, ror #28
 7b4:	00000020 	andeq	r0, r0, r0, lsr #32
 7b8:	84080e42 	strhi	r0, [r8], #-3650	; 0xfffff1be
 7bc:	00018e02 	andeq	r8, r1, r2, lsl #28
 7c0:	00000014 	andeq	r0, r0, r4, lsl r0
 7c4:	000006d0 	ldrdeq	r0, [r0], -r0	; <UNPREDICTABLE>
 7c8:	00009e8c 	andeq	r9, r0, ip, lsl #29
 7cc:	00000014 	andeq	r0, r0, r4, lsl r0
 7d0:	84080e42 	strhi	r0, [r8], #-3650	; 0xfffff1be
 7d4:	00018e02 	andeq	r8, r1, r2, lsl #28
 7d8:	00000014 	andeq	r0, r0, r4, lsl r0
 7dc:	000006d0 	ldrdeq	r0, [r0], -r0	; <UNPREDICTABLE>
 7e0:	00009ea0 	andeq	r9, r0, r0, lsr #29
 7e4:	00000024 	andeq	r0, r0, r4, lsr #32
 7e8:	84080e42 	strhi	r0, [r8], #-3650	; 0xfffff1be
 7ec:	00018e02 	andeq	r8, r1, r2, lsl #28
 7f0:	0000000c 	andeq	r0, r0, ip
 7f4:	ffffffff 			; <UNDEFINED> instruction: 0xffffffff
 7f8:	7c020001 	stcvc	0, cr0, [r2], {1}
 7fc:	000d0c0e 	andeq	r0, sp, lr, lsl #24
 800:	0000000c 	andeq	r0, r0, ip
 804:	000007f0 	strdeq	r0, [r0], -r0	; <UNPREDICTABLE>
 808:	00009ec4 	andeq	r9, r0, r4, asr #29
 80c:	00000010 	andeq	r0, r0, r0, lsl r0
 810:	0000000c 	andeq	r0, r0, ip
 814:	000007f0 	strdeq	r0, [r0], -r0	; <UNPREDICTABLE>
 818:	00009ed4 	ldrdeq	r9, [r0], -r4
 81c:	00000010 	andeq	r0, r0, r0, lsl r0
 820:	0000000c 	andeq	r0, r0, ip
 824:	000007f0 	strdeq	r0, [r0], -r0	; <UNPREDICTABLE>
 828:	00009ee4 	andeq	r9, r0, r4, ror #29
 82c:	00000010 	andeq	r0, r0, r0, lsl r0
 830:	0000001c 	andeq	r0, r0, ip, lsl r0
 834:	000007f0 	strdeq	r0, [r0], -r0	; <UNPREDICTABLE>
 838:	00009ef4 	strdeq	r9, [r0], -r4
 83c:	0000009c 	muleq	r0, ip, r0
 840:	8e040e42 	cdphi	14, 0, cr0, cr4, cr2, {2}
 844:	100e4201 	andne	r4, lr, r1, lsl #4
 848:	040e0a58 	streq	r0, [lr], #-2648	; 0xfffff5a8
 84c:	00000b42 	andeq	r0, r0, r2, asr #22
 850:	00000014 	andeq	r0, r0, r4, lsl r0
 854:	000007f0 	strdeq	r0, [r0], -r0	; <UNPREDICTABLE>
 858:	00009f90 	muleq	r0, r0, pc	; <UNPREDICTABLE>
 85c:	00000058 	andeq	r0, r0, r8, asr r0
 860:	84080e42 	strhi	r0, [r8], #-3650	; 0xfffff1be
 864:	00018e02 	andeq	r8, r1, r2, lsl #28
 868:	0000001c 	andeq	r0, r0, ip, lsl r0
 86c:	000007f0 	strdeq	r0, [r0], -r0	; <UNPREDICTABLE>
 870:	00009fe8 	andeq	r9, r0, r8, ror #31
 874:	00000098 	muleq	r0, r8, r0
 878:	8e040e42 	cdphi	14, 0, cr0, cr4, cr2, {2}
 87c:	100e4201 	andne	r4, lr, r1, lsl #4
 880:	040e0a58 	streq	r0, [lr], #-2648	; 0xfffff5a8
 884:	00000b42 	andeq	r0, r0, r2, asr #22
 888:	00000020 	andeq	r0, r0, r0, lsr #32
 88c:	000007f0 	strdeq	r0, [r0], -r0	; <UNPREDICTABLE>
 890:	0000a080 	andeq	sl, r0, r0, lsl #1
 894:	00000064 	andeq	r0, r0, r4, rrx
 898:	840c0e42 	strhi	r0, [ip], #-3650	; 0xfffff1be
 89c:	8e028503 	cfsh32hi	mvfx8, mvfx2, #3
 8a0:	180e4201 	stmdane	lr, {r0, r9, lr}
 8a4:	0c0e0a54 			; <UNDEFINED> instruction: 0x0c0e0a54
 8a8:	00000b42 	andeq	r0, r0, r2, asr #22
 8ac:	0000001c 	andeq	r0, r0, ip, lsl r0
 8b0:	000007f0 	strdeq	r0, [r0], -r0	; <UNPREDICTABLE>
 8b4:	0000a0e4 	andeq	sl, r0, r4, ror #1
 8b8:	00000118 	andeq	r0, r0, r8, lsl r1
 8bc:	8e040e42 	cdphi	14, 0, cr0, cr4, cr2, {2}
 8c0:	100e4201 	andne	r4, lr, r1, lsl #4
 8c4:	040e0a6c 	streq	r0, [lr], #-2668	; 0xfffff594
 8c8:	00000b42 	andeq	r0, r0, r2, asr #22
 8cc:	0000000c 	andeq	r0, r0, ip
 8d0:	000007f0 	strdeq	r0, [r0], -r0	; <UNPREDICTABLE>
 8d4:	0000a1fc 	strdeq	sl, [r0], -ip
 8d8:	00000004 	andeq	r0, r0, r4
 8dc:	0000000c 	andeq	r0, r0, ip
 8e0:	000007f0 	strdeq	r0, [r0], -r0	; <UNPREDICTABLE>
 8e4:	0000a200 	andeq	sl, r0, r0, lsl #4
 8e8:	00000014 	andeq	r0, r0, r4, lsl r0
 8ec:	00000014 	andeq	r0, r0, r4, lsl r0
 8f0:	000007f0 	strdeq	r0, [r0], -r0	; <UNPREDICTABLE>
 8f4:	0000a214 	andeq	sl, r0, r4, lsl r2
 8f8:	00000060 	andeq	r0, r0, r0, rrx
 8fc:	8e040e58 	mcrhi	14, 0, r0, cr4, cr8, {2}
 900:	100e4201 	andne	r4, lr, r1, lsl #4
 904:	0000000c 	andeq	r0, r0, ip
 908:	ffffffff 			; <UNDEFINED> instruction: 0xffffffff
 90c:	7c020001 	stcvc	0, cr0, [r2], {1}
 910:	000d0c0e 	andeq	r0, sp, lr, lsl #24
 914:	00000020 	andeq	r0, r0, r0, lsr #32
 918:	00000904 	andeq	r0, r0, r4, lsl #18
 91c:	0000a274 	andeq	sl, r0, r4, ror r2
 920:	00000060 	andeq	r0, r0, r0, rrx
 924:	84100e48 	ldrhi	r0, [r0], #-3656	; 0xfffff1b8
 928:	86038504 	strhi	r8, [r3], -r4, lsl #10
 92c:	64018e02 	strvs	r8, [r1], #-3586	; 0xfffff1fe
 930:	c4c5c6ce 	strbgt	ip, [r5], #1742	; 0x6ce
 934:	0000000e 	andeq	r0, r0, lr
 938:	00000020 	andeq	r0, r0, r0, lsr #32
 93c:	00000904 	andeq	r0, r0, r4, lsl #18
 940:	0000a2d4 	ldrdeq	sl, [r0], -r4
 944:	00000058 	andeq	r0, r0, r8, asr r0
 948:	84100e46 	ldrhi	r0, [r0], #-3654	; 0xfffff1ba
 94c:	86038504 	strhi	r8, [r3], -r4, lsl #10
 950:	62018e02 	andvs	r8, r1, #2, 28
 954:	c4c5c6ce 	strbgt	ip, [r5], #1742	; 0x6ce
 958:	0000000e 	andeq	r0, r0, lr
 95c:	0000000c 	andeq	r0, r0, ip
 960:	00000904 	andeq	r0, r0, r4, lsl #18
 964:	0000a32c 	andeq	sl, r0, ip, lsr #6
 968:	00000018 	andeq	r0, r0, r8, lsl r0
 96c:	0000000c 	andeq	r0, r0, ip
 970:	00000904 	andeq	r0, r0, r4, lsl #18
 974:	0000a344 	andeq	sl, r0, r4, asr #6
 978:	00000018 	andeq	r0, r0, r8, lsl r0
 97c:	00000020 	andeq	r0, r0, r0, lsr #32
 980:	00000904 	andeq	r0, r0, r4, lsl #18
 984:	0000a35c 	andeq	sl, r0, ip, asr r3
 988:	00000058 	andeq	r0, r0, r8, asr r0
 98c:	84100e46 	ldrhi	r0, [r0], #-3654	; 0xfffff1ba
 990:	86038504 	strhi	r8, [r3], -r4, lsl #10
 994:	62018e02 	andvs	r8, r1, #2, 28
 998:	c4c5c6ce 	strbgt	ip, [r5], #1742	; 0x6ce
 99c:	0000000e 	andeq	r0, r0, lr
 9a0:	0000000c 	andeq	r0, r0, ip
 9a4:	00000904 	andeq	r0, r0, r4, lsl #18
 9a8:	0000a3b4 			; <UNDEFINED> instruction: 0x0000a3b4
 9ac:	00000030 	andeq	r0, r0, r0, lsr r0
 9b0:	00000014 	andeq	r0, r0, r4, lsl r0
 9b4:	00000904 	andeq	r0, r0, r4, lsl #18
 9b8:	0000a3e4 	andeq	sl, r0, r4, ror #7
 9bc:	00000028 	andeq	r0, r0, r8, lsr #32
 9c0:	84080e42 	strhi	r0, [r8], #-3650	; 0xfffff1be
 9c4:	00018e02 	andeq	r8, r1, r2, lsl #28
 9c8:	0000000c 	andeq	r0, r0, ip
 9cc:	ffffffff 			; <UNDEFINED> instruction: 0xffffffff
 9d0:	7c020001 	stcvc	0, cr0, [r2], {1}
 9d4:	000d0c0e 	andeq	r0, sp, lr, lsl #24
 9d8:	00000014 	andeq	r0, r0, r4, lsl r0
 9dc:	000009c8 	andeq	r0, r0, r8, asr #19
 9e0:	0000a40c 	andeq	sl, r0, ip, lsl #8
 9e4:	00000014 	andeq	r0, r0, r4, lsl r0
 9e8:	84080e42 	strhi	r0, [r8], #-3650	; 0xfffff1be
 9ec:	00018e02 	andeq	r8, r1, r2, lsl #28
 9f0:	0000000c 	andeq	r0, r0, ip
 9f4:	000009c8 	andeq	r0, r0, r8, asr #19
 9f8:	0000a420 	andeq	sl, r0, r0, lsr #8
 9fc:	00000018 	andeq	r0, r0, r8, lsl r0
 a00:	0000000c 	andeq	r0, r0, ip
 a04:	000009c8 	andeq	r0, r0, r8, asr #19
 a08:	0000a438 	andeq	sl, r0, r8, lsr r4
 a0c:	00000010 	andeq	r0, r0, r0, lsl r0
 a10:	0000000c 	andeq	r0, r0, ip
 a14:	ffffffff 			; <UNDEFINED> instruction: 0xffffffff
 a18:	7c020001 	stcvc	0, cr0, [r2], {1}
 a1c:	000d0c0e 	andeq	r0, sp, lr, lsl #24
 a20:	0000000c 	andeq	r0, r0, ip
 a24:	00000a10 	andeq	r0, r0, r0, lsl sl
 a28:	0000a448 	andeq	sl, r0, r8, asr #8
 a2c:	0000002c 	andeq	r0, r0, ip, lsr #32
 a30:	0000000c 	andeq	r0, r0, ip
 a34:	ffffffff 			; <UNDEFINED> instruction: 0xffffffff
 a38:	7c020001 	stcvc	0, cr0, [r2], {1}
 a3c:	000d0c0e 	andeq	r0, sp, lr, lsl #24
 a40:	0000000c 	andeq	r0, r0, ip
 a44:	00000a30 	andeq	r0, r0, r0, lsr sl
 a48:	0000a474 	andeq	sl, r0, r4, ror r4
 a4c:	00000044 	andeq	r0, r0, r4, asr #32
 a50:	0000000c 	andeq	r0, r0, ip
 a54:	ffffffff 			; <UNDEFINED> instruction: 0xffffffff
 a58:	7c020001 	stcvc	0, cr0, [r2], {1}
 a5c:	000d0c0e 	andeq	r0, sp, lr, lsl #24
 a60:	0000000c 	andeq	r0, r0, ip
 a64:	00000a50 	andeq	r0, r0, r0, asr sl
 a68:	0000a4b8 			; <UNDEFINED> instruction: 0x0000a4b8
 a6c:	00000018 	andeq	r0, r0, r8, lsl r0
 a70:	0000000c 	andeq	r0, r0, ip
 a74:	ffffffff 			; <UNDEFINED> instruction: 0xffffffff
 a78:	7c020001 	stcvc	0, cr0, [r2], {1}
 a7c:	000d0c0e 	andeq	r0, sp, lr, lsl #24
 a80:	0000000c 	andeq	r0, r0, ip
 a84:	00000a70 	andeq	r0, r0, r0, ror sl
 a88:	0000a4d0 	ldrdeq	sl, [r0], -r0
 a8c:	00000030 	andeq	r0, r0, r0, lsr r0
 a90:	0000000c 	andeq	r0, r0, ip
 a94:	ffffffff 			; <UNDEFINED> instruction: 0xffffffff
 a98:	7c020001 	stcvc	0, cr0, [r2], {1}
 a9c:	000d0c0e 	andeq	r0, sp, lr, lsl #24
 aa0:	0000000c 	andeq	r0, r0, ip
 aa4:	00000a90 	muleq	r0, r0, sl
 aa8:	0000a500 	andeq	sl, r0, r0, lsl #10
 aac:	00000004 	andeq	r0, r0, r4

Disassembly of section .debug_ranges:

00000000 <.debug_ranges>:
   0:	000001e4 	andeq	r0, r0, r4, ror #3
   4:	0000021c 	andeq	r0, r0, ip, lsl r2
   8:	00000244 	andeq	r0, r0, r4, asr #4
   c:	0000028c 	andeq	r0, r0, ip, lsl #5
	...
  18:	0000012c 	andeq	r0, r0, ip, lsr #2
  1c:	0000013c 	andeq	r0, r0, ip, lsr r1
  20:	00000148 	andeq	r0, r0, r8, asr #2
  24:	00000194 	muleq	r0, r4, r1
	...
  30:	0000012c 	andeq	r0, r0, ip, lsr #2
  34:	0000013c 	andeq	r0, r0, ip, lsr r1
  38:	00000158 	andeq	r0, r0, r8, asr r1
  3c:	00000194 	muleq	r0, r4, r1
	...
  48:	000002a4 	andeq	r0, r0, r4, lsr #5
  4c:	000002ac 	andeq	r0, r0, ip, lsr #5
  50:	000002b8 			; <UNDEFINED> instruction: 0x000002b8
  54:	00000320 	andeq	r0, r0, r0, lsr #6
	...
  60:	000003bc 			; <UNDEFINED> instruction: 0x000003bc
  64:	000003c4 	andeq	r0, r0, r4, asr #7
  68:	000003d0 	ldrdeq	r0, [r0], -r0	; <UNPREDICTABLE>
  6c:	0000044c 	andeq	r0, r0, ip, asr #8
	...
  78:	00000014 	andeq	r0, r0, r4, lsl r0
  7c:	00000020 	andeq	r0, r0, r0, lsr #32
  80:	0000002c 	andeq	r0, r0, ip, lsr #32
  84:	00000058 	andeq	r0, r0, r8, asr r0
  88:	00000058 	andeq	r0, r0, r8, asr r0
  8c:	00000064 	andeq	r0, r0, r4, rrx
	...
  98:	00000014 	andeq	r0, r0, r4, lsl r0
  9c:	00000018 	andeq	r0, r0, r8, lsl r0
  a0:	0000002c 	andeq	r0, r0, ip, lsr #32
  a4:	0000002c 	andeq	r0, r0, ip, lsr #32
  a8:	00000034 	andeq	r0, r0, r4, lsr r0
  ac:	00000038 	andeq	r0, r0, r8, lsr r0
  b0:	0000003c 	andeq	r0, r0, ip, lsr r0
  b4:	00000050 	andeq	r0, r0, r0, asr r0
	...
  c0:	0000002c 	andeq	r0, r0, ip, lsr #32
  c4:	0000002c 	andeq	r0, r0, ip, lsr #32
  c8:	00000038 	andeq	r0, r0, r8, lsr r0
  cc:	00000038 	andeq	r0, r0, r8, lsr r0
  d0:	00000044 	andeq	r0, r0, r4, asr #32
  d4:	0000004c 	andeq	r0, r0, ip, asr #32
	...
  e0:	000000a4 	andeq	r0, r0, r4, lsr #1
  e4:	00000148 	andeq	r0, r0, r8, asr #2
  e8:	00000158 	andeq	r0, r0, r8, asr r1
  ec:	0000015c 	andeq	r0, r0, ip, asr r1
  f0:	00000274 	andeq	r0, r0, r4, ror r2
  f4:	00000278 	andeq	r0, r0, r8, ror r2
  f8:	0000027c 	andeq	r0, r0, ip, ror r2
  fc:	00000280 	andeq	r0, r0, r0, lsl #5
 100:	00000288 	andeq	r0, r0, r8, lsl #5
 104:	0000029c 	muleq	r0, ip, r2
 108:	000002c0 	andeq	r0, r0, r0, asr #5
 10c:	000002cc 	andeq	r0, r0, ip, asr #5
 110:	000002f0 	strdeq	r0, [r0], -r0	; <UNPREDICTABLE>
 114:	000002f0 	strdeq	r0, [r0], -r0	; <UNPREDICTABLE>
 118:	000002f4 	strdeq	r0, [r0], -r4
 11c:	000002f8 	strdeq	r0, [r0], -r8
	...
 128:	00000148 	andeq	r0, r0, r8, asr #2
 12c:	00000158 	andeq	r0, r0, r8, asr r1
 130:	0000015c 	andeq	r0, r0, ip, asr r1
 134:	0000018c 	andeq	r0, r0, ip, lsl #3
 138:	0000029c 	muleq	r0, ip, r2
 13c:	000002ac 	andeq	r0, r0, ip, lsr #5
	...
 148:	000003c8 	andeq	r0, r0, r8, asr #7
 14c:	000003d0 	ldrdeq	r0, [r0], -r0	; <UNPREDICTABLE>
 150:	00000404 	andeq	r0, r0, r4, lsl #8
 154:	000004ac 	andeq	r0, r0, ip, lsr #9
 158:	000004c0 	andeq	r0, r0, r0, asr #9
 15c:	00000920 	andeq	r0, r0, r0, lsr #18
 160:	00000928 	andeq	r0, r0, r8, lsr #18
 164:	000009b4 			; <UNDEFINED> instruction: 0x000009b4
	...
 170:	000003c8 	andeq	r0, r0, r8, asr #7
 174:	000003d0 	ldrdeq	r0, [r0], -r0	; <UNPREDICTABLE>
 178:	00000504 	andeq	r0, r0, r4, lsl #10
 17c:	000005d0 	ldrdeq	r0, [r0], -r0	; <UNPREDICTABLE>
 180:	00000800 	andeq	r0, r0, r0, lsl #16
 184:	00000888 	andeq	r0, r0, r8, lsl #17
 188:	00000930 	andeq	r0, r0, r0, lsr r9
 18c:	000009b4 			; <UNDEFINED> instruction: 0x000009b4
	...
 198:	00000404 	andeq	r0, r0, r4, lsl #8
 19c:	00000408 	andeq	r0, r0, r8, lsl #8
 1a0:	00000414 	andeq	r0, r0, r4, lsl r4
 1a4:	00000414 	andeq	r0, r0, r4, lsl r4
 1a8:	00000428 	andeq	r0, r0, r8, lsr #8
 1ac:	0000042c 	andeq	r0, r0, ip, lsr #8
	...
 1b8:	000005fc 	strdeq	r0, [r0], -ip
 1bc:	00000700 	andeq	r0, r0, r0, lsl #14
 1c0:	000007ec 	andeq	r0, r0, ip, ror #15
 1c4:	000007f4 	strdeq	r0, [r0], -r4
 1c8:	00000888 	andeq	r0, r0, r8, lsl #17
 1cc:	00000894 	muleq	r0, r4, r8
 1d0:	000008a8 	andeq	r0, r0, r8, lsr #17
 1d4:	000008bc 			; <UNDEFINED> instruction: 0x000008bc
 1d8:	00000910 	andeq	r0, r0, r0, lsl r9
 1dc:	00000920 	andeq	r0, r0, r0, lsr #18
	...
 1e8:	00000600 	andeq	r0, r0, r0, lsl #12
 1ec:	00000604 	andeq	r0, r0, r4, lsl #12
 1f0:	00000608 	andeq	r0, r0, r8, lsl #12
 1f4:	000006b4 			; <UNDEFINED> instruction: 0x000006b4
 1f8:	000006cc 	andeq	r0, r0, ip, asr #13
 1fc:	000006d0 	ldrdeq	r0, [r0], -r0	; <UNPREDICTABLE>
 200:	000008a8 	andeq	r0, r0, r8, lsr #17
 204:	000008b8 			; <UNDEFINED> instruction: 0x000008b8
 208:	00000910 	andeq	r0, r0, r0, lsl r9
 20c:	00000920 	andeq	r0, r0, r0, lsr #18
	...
 218:	000006b4 			; <UNDEFINED> instruction: 0x000006b4
 21c:	000006cc 	andeq	r0, r0, ip, asr #13
 220:	000006d0 	ldrdeq	r0, [r0], -r0	; <UNPREDICTABLE>
 224:	00000700 	andeq	r0, r0, r0, lsl #14
 228:	000007ec 	andeq	r0, r0, ip, ror #15
 22c:	000007f4 	strdeq	r0, [r0], -r4
 230:	00000888 	andeq	r0, r0, r8, lsl #17
 234:	00000894 	muleq	r0, r4, r8
 238:	000008b8 			; <UNDEFINED> instruction: 0x000008b8
 23c:	000008bc 			; <UNDEFINED> instruction: 0x000008bc
	...
 248:	00000700 	andeq	r0, r0, r0, lsl #14
 24c:	00000708 	andeq	r0, r0, r8, lsl #14
 250:	0000070c 	andeq	r0, r0, ip, lsl #14
 254:	000007ec 	andeq	r0, r0, ip, ror #15
 258:	00000894 	muleq	r0, r4, r8
 25c:	000008a8 	andeq	r0, r0, r8, lsr #17
	...
 268:	00000728 	andeq	r0, r0, r8, lsr #14
 26c:	000007a4 	andeq	r0, r0, r4, lsr #15
 270:	000007ac 	andeq	r0, r0, ip, lsr #15
 274:	000007b0 			; <UNDEFINED> instruction: 0x000007b0
 278:	00000894 	muleq	r0, r4, r8
 27c:	00000898 	muleq	r0, r8, r8
 280:	0000089c 	muleq	r0, ip, r8
 284:	000008a0 	andeq	r0, r0, r0, lsr #17
	...
 290:	000007a4 	andeq	r0, r0, r4, lsr #15
 294:	000007ac 	andeq	r0, r0, ip, lsr #15
 298:	000007b0 			; <UNDEFINED> instruction: 0x000007b0
 29c:	000007ec 	andeq	r0, r0, ip, ror #15
 2a0:	00000898 	muleq	r0, r8, r8
 2a4:	0000089c 	muleq	r0, ip, r8
 2a8:	000008a0 	andeq	r0, r0, r0, lsr #17
 2ac:	000008a8 	andeq	r0, r0, r8, lsr #17
	...
 2b8:	000000f0 	strdeq	r0, [r0], -r0	; <UNPREDICTABLE>
 2bc:	000000f8 	strdeq	r0, [r0], -r8
 2c0:	000000fc 	strdeq	r0, [r0], -ip
 2c4:	00000108 	andeq	r0, r0, r8, lsl #2
	...
 2d0:	00009b58 	andeq	r9, r0, r8, asr fp
 2d4:	00009b58 	andeq	r9, r0, r8, asr fp
 2d8:	00009b5c 	andeq	r9, r0, ip, asr fp
 2dc:	00009b64 	andeq	r9, r0, r4, ror #22
	...
 2e8:	00009b2c 	andeq	r9, r0, ip, lsr #22
 2ec:	00009bb8 			; <UNDEFINED> instruction: 0x00009bb8
	...
 2f8:	00000030 	andeq	r0, r0, r0, lsr r0
 2fc:	00000030 	andeq	r0, r0, r0, lsr r0
 300:	00000038 	andeq	r0, r0, r8, lsr r0
 304:	0000004c 	andeq	r0, r0, ip, asr #32
	...
 310:	0000004c 	andeq	r0, r0, ip, asr #32
 314:	00000050 	andeq	r0, r0, r0, asr r0
 318:	00000050 	andeq	r0, r0, r0, asr r0
 31c:	00000078 	andeq	r0, r0, r8, ror r0
	...
 328:	0000004c 	andeq	r0, r0, ip, asr #32
 32c:	00000050 	andeq	r0, r0, r0, asr r0
 330:	00000050 	andeq	r0, r0, r0, asr r0
 334:	00000060 	andeq	r0, r0, r0, rrx
 338:	00000064 	andeq	r0, r0, r4, rrx
 33c:	00000068 	andeq	r0, r0, r8, rrx
	...
 348:	0000004c 	andeq	r0, r0, ip, asr #32
 34c:	00000050 	andeq	r0, r0, r0, asr r0
 350:	00000054 	andeq	r0, r0, r4, asr r0
 354:	00000060 	andeq	r0, r0, r0, rrx
	...
 360:	0000009c 	muleq	r0, ip, r0
 364:	000000a0 	andeq	r0, r0, r0, lsr #1
 368:	000000a0 	andeq	r0, r0, r0, lsr #1
 36c:	000000c8 	andeq	r0, r0, r8, asr #1
	...
 378:	0000009c 	muleq	r0, ip, r0
 37c:	000000a0 	andeq	r0, r0, r0, lsr #1
 380:	000000a0 	andeq	r0, r0, r0, lsr #1
 384:	000000b0 	strheq	r0, [r0], -r0	; <UNPREDICTABLE>
 388:	000000b4 	strheq	r0, [r0], -r4
 38c:	000000b8 	strheq	r0, [r0], -r8
	...
 398:	0000009c 	muleq	r0, ip, r0
 39c:	000000a0 	andeq	r0, r0, r0, lsr #1
 3a0:	000000a4 	andeq	r0, r0, r4, lsr #1
 3a4:	000000b0 	strheq	r0, [r0], -r0	; <UNPREDICTABLE>
	...
 3b0:	000000c8 	andeq	r0, r0, r8, asr #1
 3b4:	000000c8 	andeq	r0, r0, r8, asr #1
 3b8:	000000cc 	andeq	r0, r0, ip, asr #1
 3bc:	0000011c 	andeq	r0, r0, ip, lsl r1
	...
 3c8:	000000f0 	strdeq	r0, [r0], -r0	; <UNPREDICTABLE>
 3cc:	000000f4 	strdeq	r0, [r0], -r4
 3d0:	000000f4 	strdeq	r0, [r0], -r4
 3d4:	0000011c 	andeq	r0, r0, ip, lsl r1
	...
 3e0:	000000f0 	strdeq	r0, [r0], -r0	; <UNPREDICTABLE>
 3e4:	000000f4 	strdeq	r0, [r0], -r4
 3e8:	000000f4 	strdeq	r0, [r0], -r4
 3ec:	00000104 	andeq	r0, r0, r4, lsl #2
 3f0:	00000108 	andeq	r0, r0, r8, lsl #2
 3f4:	0000010c 	andeq	r0, r0, ip, lsl #2
	...
 400:	000000f0 	strdeq	r0, [r0], -r0	; <UNPREDICTABLE>
 404:	000000f4 	strdeq	r0, [r0], -r4
 408:	000000f8 	strdeq	r0, [r0], -r8
 40c:	00000104 	andeq	r0, r0, r4, lsl #2
	...
 418:	00000134 	andeq	r0, r0, r4, lsr r1
 41c:	00000134 	andeq	r0, r0, r4, lsr r1
 420:	00000134 	andeq	r0, r0, r4, lsr r1
 424:	0000013c 	andeq	r0, r0, ip, lsr r1
	...
 430:	0000024c 	andeq	r0, r0, ip, asr #4
 434:	00000264 	andeq	r0, r0, r4, ror #4
 438:	000002c8 	andeq	r0, r0, r8, asr #5
 43c:	000002e8 	andeq	r0, r0, r8, ror #5
	...
 448:	00000008 	andeq	r0, r0, r8
 44c:	0000000c 	andeq	r0, r0, ip
 450:	00000014 	andeq	r0, r0, r4, lsl r0
 454:	00000054 	andeq	r0, r0, r4, asr r0
 458:	00000058 	andeq	r0, r0, r8, asr r0
 45c:	00000060 	andeq	r0, r0, r0, rrx
	...
 468:	00000060 	andeq	r0, r0, r0, rrx
 46c:	00000068 	andeq	r0, r0, r8, rrx
 470:	0000006c 	andeq	r0, r0, ip, rrx
 474:	000000ac 	andeq	r0, r0, ip, lsr #1
 478:	000000b0 	strheq	r0, [r0], -r0	; <UNPREDICTABLE>
 47c:	000000b8 	strheq	r0, [r0], -r8
	...
 488:	00000068 	andeq	r0, r0, r8, rrx
 48c:	00000068 	andeq	r0, r0, r8, rrx
 490:	0000006c 	andeq	r0, r0, ip, rrx
 494:	000000ac 	andeq	r0, r0, ip, lsr #1
 498:	000000b0 	strheq	r0, [r0], -r0	; <UNPREDICTABLE>
 49c:	000000b8 	strheq	r0, [r0], -r8
	...
 4a8:	000000e8 	andeq	r0, r0, r8, ror #1
 4ac:	000000f0 	strdeq	r0, [r0], -r0	; <UNPREDICTABLE>
 4b0:	000000f4 	strdeq	r0, [r0], -r4
 4b4:	00000134 	andeq	r0, r0, r4, lsr r1
 4b8:	00000138 	andeq	r0, r0, r8, lsr r1
 4bc:	00000140 	andeq	r0, r0, r0, asr #2
	...
 4c8:	000000f0 	strdeq	r0, [r0], -r0	; <UNPREDICTABLE>
 4cc:	000000f0 	strdeq	r0, [r0], -r0	; <UNPREDICTABLE>
 4d0:	000000f4 	strdeq	r0, [r0], -r4
 4d4:	00000134 	andeq	r0, r0, r4, lsr r1
 4d8:	00000138 	andeq	r0, r0, r8, lsr r1
 4dc:	00000140 	andeq	r0, r0, r0, asr #2
	...
 4e8:	00000144 	andeq	r0, r0, r4, asr #2
 4ec:	00000148 	andeq	r0, r0, r8, asr #2
 4f0:	00000150 	andeq	r0, r0, r0, asr r1
 4f4:	0000015c 	andeq	r0, r0, ip, asr r1
	...
