
tests-2.0/part1-test5-no-bug.elf:     file format elf32-littlearm


Disassembly of section .text:

00008000 <__code_start__>:
    8000:	e3a00013 	mov	r0, #19, 0
    8004:	e3800080 	orr	r0, r0, #128, 0	; 0x80
    8008:	e129f000 	msr	CPSR_fc, r0
    800c:	e3a01000 	mov	r1, #0, 0
    8010:	ee071f95 	mcr	15, 0, r1, cr7, cr5, {4}
    8014:	e3a0d302 	mov	sp, #134217728	; 0x8000000
    8018:	e3a0b000 	mov	fp, #0, 0
    801c:	eb000621 	bl	98a8 <_cstart>
    8020:	eb00066a 	bl	99d0 <rpi_reboot>

00008024 <PUT32>:
    8024:	e5801000 	str	r1, [r0]
    8028:	e12fff1e 	bx	lr

0000802c <GET32>:
    802c:	e5900000 	ldr	r0, [r0]
    8030:	e12fff1e 	bx	lr

00008034 <BRANCHTO>:
    8034:	e12fff10 	bx	r0

00008038 <notmain>:
    8038:	e92d40f0 	push	{r4, r5, r6, r7, lr}
    803c:	e59f00c4 	ldr	r0, [pc, #196]	; 8108 <notmain+0xd0>
    8040:	e24dd034 	sub	sp, sp, #52, 0	; 0x34
    8044:	eb000355 	bl	8da0 <printk>
    8048:	eb000384 	bl	8e60 <rpi_rand32>
    804c:	e3a03008 	mov	r3, #8, 0
    8050:	e58d3008 	str	r3, [sp, #8]
    8054:	e1a0300d 	mov	r3, sp
    8058:	e59f40ac 	ldr	r4, [pc, #172]	; 810c <notmain+0xd4>
    805c:	e59f50ac 	ldr	r5, [pc, #172]	; 8110 <notmain+0xd8>
    8060:	e59f60ac 	ldr	r6, [pc, #172]	; 8114 <notmain+0xdc>
    8064:	e1cd40f0 	strd	r4, [sp]
    8068:	e0000006 	and	r0, r0, r6
    806c:	e893000e 	ldm	r3, {r1, r2, r3}
    8070:	eb0000d4 	bl	83c8 <ckalloc>
    8074:	e1a07000 	mov	r7, r0
    8078:	eb000378 	bl	8e60 <rpi_rand32>
    807c:	e3a03009 	mov	r3, #9, 0
    8080:	e1cd40fc 	strd	r4, [sp, #12]
    8084:	e58d3014 	str	r3, [sp, #20]
    8088:	e28d300c 	add	r3, sp, #12, 0
    808c:	e893000e 	ldm	r3, {r1, r2, r3}
    8090:	e0000006 	and	r0, r0, r6
    8094:	eb0000cb 	bl	83c8 <ckalloc>
    8098:	e3a0300a 	mov	r3, #10, 0
    809c:	e1cd41f8 	strd	r4, [sp, #24]
    80a0:	e58d3020 	str	r3, [sp, #32]
    80a4:	e28d3018 	add	r3, sp, #24, 0
    80a8:	e893000e 	ldm	r3, {r1, r2, r3}
    80ac:	e1a06000 	mov	r6, r0
    80b0:	e1a00007 	mov	r0, r7
    80b4:	eb00004d 	bl	81f0 <ckfree>
    80b8:	e3a0300b 	mov	r3, #11, 0
    80bc:	e1cd42f4 	strd	r4, [sp, #36]	; 0x24
    80c0:	e58d302c 	str	r3, [sp, #44]	; 0x2c
    80c4:	e28d3030 	add	r3, sp, #48, 0	; 0x30
    80c8:	e1a00006 	mov	r0, r6
    80cc:	e913000e 	ldmdb	r3, {r1, r2, r3}
    80d0:	eb000046 	bl	81f0 <ckfree>
    80d4:	eb000257 	bl	8a38 <ck_heap_errors>
    80d8:	e3500000 	cmp	r0, #0, 0
    80dc:	1a000003 	bne	80f0 <notmain+0xb8>
    80e0:	e59f0030 	ldr	r0, [pc, #48]	; 8118 <notmain+0xe0>
    80e4:	e28dd034 	add	sp, sp, #52, 0	; 0x34
    80e8:	e8bd40f0 	pop	{r4, r5, r6, r7, lr}
    80ec:	ea00032b 	b	8da0 <printk>
    80f0:	e1a02005 	mov	r2, r5
    80f4:	e1a01004 	mov	r1, r4
    80f8:	e3a0300e 	mov	r3, #14, 0
    80fc:	e59f0018 	ldr	r0, [pc, #24]	; 811c <notmain+0xe4>
    8100:	eb000326 	bl	8da0 <printk>
    8104:	eb0005dc 	bl	987c <clean_reboot>
    8108:	0000a398 	muleq	r0, r8, r3
    810c:	0000a3b8 			; <UNDEFINED> instruction: 0x0000a3b8
    8110:	0000a41c 	andeq	sl, r0, ip, lsl r4
    8114:	000003ff 	strdeq	r0, [r0], -pc	; <UNPREDICTABLE>
    8118:	0000a3fc 	strdeq	sl, [r0], -ip
    811c:	0000a3d8 	ldrdeq	sl, [r0], -r8

00008120 <ck_first_hdr>:
    8120:	e59f3004 	ldr	r3, [pc, #4]	; 812c <ck_first_hdr+0xc>
    8124:	e5930000 	ldr	r0, [r3]
    8128:	e12fff1e 	bx	lr
    812c:	0000ac80 	andeq	sl, r0, r0, lsl #25

00008130 <ck_next_hdr>:
    8130:	e3500000 	cmp	r0, #0, 0
    8134:	15900000 	ldrne	r0, [r0]
    8138:	e12fff1e 	bx	lr

0000813c <ck_hdr_start>:
    813c:	e28000b4 	add	r0, r0, #180, 0	; 0xb4
    8140:	e12fff1e 	bx	lr

00008144 <ck_hdr_end>:
    8144:	e5903004 	ldr	r3, [r0, #4]
    8148:	e28330b4 	add	r3, r3, #180, 0	; 0xb4
    814c:	e0800003 	add	r0, r0, r3
    8150:	e12fff1e 	bx	lr

00008154 <ck_ptr_in_block>:
    8154:	e5903004 	ldr	r3, [r0, #4]
    8158:	e28020b4 	add	r2, r0, #180, 0	; 0xb4
    815c:	e28330b4 	add	r3, r3, #180, 0	; 0xb4
    8160:	e0800003 	add	r0, r0, r3
    8164:	e1520001 	cmp	r2, r1
    8168:	91510000 	cmpls	r1, r0
    816c:	33a00001 	movcc	r0, #1, 0
    8170:	23a00000 	movcs	r0, #0, 0
    8174:	e12fff1e 	bx	lr

00008178 <ck_ptr_is_alloced>:
    8178:	e59f3068 	ldr	r3, [pc, #104]	; 81e8 <ck_ptr_is_alloced+0x70>
    817c:	e92d4010 	push	{r4, lr}
    8180:	e5934000 	ldr	r4, [r3]
    8184:	e3540000 	cmp	r4, #0, 0
    8188:	0a000014 	beq	81e0 <ck_ptr_is_alloced+0x68>
    818c:	e5943004 	ldr	r3, [r4, #4]
    8190:	e28420b4 	add	r2, r4, #180, 0	; 0xb4
    8194:	ea000004 	b	81ac <ck_ptr_is_alloced+0x34>
    8198:	e5944000 	ldr	r4, [r4]
    819c:	e3540000 	cmp	r4, #0, 0
    81a0:	e28420b4 	add	r2, r4, #180, 0	; 0xb4
    81a4:	0a00000d 	beq	81e0 <ck_ptr_is_alloced+0x68>
    81a8:	e5943004 	ldr	r3, [r4, #4]
    81ac:	e28330b4 	add	r3, r3, #180, 0	; 0xb4
    81b0:	e0843003 	add	r3, r4, r3
    81b4:	e1500003 	cmp	r0, r3
    81b8:	33a03001 	movcc	r3, #1, 0
    81bc:	23a03000 	movcs	r3, #0, 0
    81c0:	e1500002 	cmp	r0, r2
    81c4:	33a03000 	movcc	r3, #0, 0
    81c8:	e3530000 	cmp	r3, #0, 0
    81cc:	0afffff1 	beq	8198 <ck_ptr_is_alloced+0x20>
    81d0:	e1a01000 	mov	r1, r0
    81d4:	e1a02004 	mov	r2, r4
    81d8:	e59f000c 	ldr	r0, [pc, #12]	; 81ec <ck_ptr_is_alloced+0x74>
    81dc:	eb0002ef 	bl	8da0 <printk>
    81e0:	e1a00004 	mov	r0, r4
    81e4:	e8bd8010 	pop	{r4, pc}
    81e8:	0000ac80 	andeq	sl, r0, r0, lsl #25
    81ec:	0000a424 	andeq	sl, r0, r4, lsr #8

000081f0 <ckfree>:
    81f0:	e92d40f0 	push	{r4, r5, r6, r7, lr}
    81f4:	e1a04000 	mov	r4, r0
    81f8:	e24dd01c 	sub	sp, sp, #28, 0
    81fc:	e28d0018 	add	r0, sp, #24, 0
    8200:	e900000e 	stmdb	r0, {r1, r2, r3}
    8204:	e59d5014 	ldr	r5, [sp, #20]
    8208:	e1cd60dc 	ldrd	r6, [sp, #12]
    820c:	e1a03005 	mov	r3, r5
    8210:	e1a02007 	mov	r2, r7
    8214:	e1a01006 	mov	r1, r6
    8218:	e14469f8 	strd	r6, [r4, #-152]	; 0xffffff68
    821c:	e59f0174 	ldr	r0, [pc, #372]	; 8398 <ckfree+0x1a8>
    8220:	e5045090 	str	r5, [r4, #-144]	; 0xffffff70
    8224:	eb0002dd 	bl	8da0 <printk>
    8228:	e1a01004 	mov	r1, r4
    822c:	e59f0168 	ldr	r0, [pc, #360]	; 839c <ckfree+0x1ac>
    8230:	eb0002da 	bl	8da0 <printk>
    8234:	e51430ac 	ldr	r3, [r4, #-172]	; 0xffffff54
    8238:	e353000b 	cmp	r3, #11, 0
    823c:	02441083 	subeq	r1, r4, #131, 0	; 0x83
    8240:	02442003 	subeq	r2, r4, #3, 0
    8244:	1a000042 	bne	8354 <ckfree+0x164>
    8248:	e1a0c001 	mov	ip, r1
    824c:	e5f1e001 	ldrb	lr, [r1, #1]!
    8250:	e35e00fe 	cmp	lr, #254, 0	; 0xfe
    8254:	1a00002e 	bne	8314 <ckfree+0x124>
    8258:	e514e0b0 	ldr	lr, [r4, #-176]	; 0xffffff50
    825c:	e28cc083 	add	ip, ip, #131, 0	; 0x83
    8260:	e7de300c 	ldrb	r3, [lr, ip]
    8264:	e35300fe 	cmp	r3, #254, 0	; 0xfe
    8268:	1a000031 	bne	8334 <ckfree+0x144>
    826c:	e1510002 	cmp	r1, r2
    8270:	1afffff4 	bne	8248 <ckfree+0x58>
    8274:	e35e0000 	cmp	lr, #0, 0
    8278:	0a000008 	beq	82a0 <ckfree+0xb0>
    827c:	e3e00001 	mvn	r0, #1, 0
    8280:	e2442001 	sub	r2, r4, #1, 0
    8284:	e1a03002 	mov	r3, r2
    8288:	e5e20001 	strb	r0, [r2, #1]!
    828c:	e51410b0 	ldr	r1, [r4, #-176]	; 0xffffff50
    8290:	e2833002 	add	r3, r3, #2, 0
    8294:	e0433004 	sub	r3, r3, r4
    8298:	e1510003 	cmp	r1, r3
    829c:	8afffff8 	bhi	8284 <ckfree+0x94>
    82a0:	e3a0300c 	mov	r3, #12, 0
    82a4:	e59f20f4 	ldr	r2, [pc, #244]	; 83a0 <ckfree+0x1b0>
    82a8:	e5046098 	str	r6, [r4, #-152]	; 0xffffff68
    82ac:	e5922000 	ldr	r2, [r2]
    82b0:	e5047094 	str	r7, [r4, #-148]	; 0xffffff6c
    82b4:	e3520000 	cmp	r2, #0, 0
    82b8:	e5045090 	str	r5, [r4, #-144]	; 0xffffff70
    82bc:	e50430ac 	str	r3, [r4, #-172]	; 0xffffff54
    82c0:	1a000003 	bne	82d4 <ckfree+0xe4>
    82c4:	ea00002b 	b	8378 <ckfree+0x188>
    82c8:	e5922000 	ldr	r2, [r2]
    82cc:	e3520000 	cmp	r2, #0, 0
    82d0:	0a000028 	beq	8378 <ckfree+0x188>
    82d4:	e5923004 	ldr	r3, [r2, #4]
    82d8:	e28210b4 	add	r1, r2, #180, 0	; 0xb4
    82dc:	e28330b4 	add	r3, r3, #180, 0	; 0xb4
    82e0:	e0823003 	add	r3, r2, r3
    82e4:	e1540003 	cmp	r4, r3
    82e8:	33a03001 	movcc	r3, #1, 0
    82ec:	23a03000 	movcs	r3, #0, 0
    82f0:	e1540001 	cmp	r4, r1
    82f4:	33a03000 	movcc	r3, #0, 0
    82f8:	e3530000 	cmp	r3, #0, 0
    82fc:	0afffff1 	beq	82c8 <ckfree+0xd8>
    8300:	e1a01004 	mov	r1, r4
    8304:	e59f0098 	ldr	r0, [pc, #152]	; 83a4 <ckfree+0x1b4>
    8308:	e28dd01c 	add	sp, sp, #28, 0
    830c:	e8bd40f0 	pop	{r4, r5, r6, r7, lr}
    8310:	ea0002a2 	b	8da0 <printk>
    8314:	e1a03005 	mov	r3, r5
    8318:	e1a02007 	mov	r2, r7
    831c:	e1a01006 	mov	r1, r6
    8320:	e59f0080 	ldr	r0, [pc, #128]	; 83a8 <ckfree+0x1b8>
    8324:	eb00029d 	bl	8da0 <printk>
    8328:	e59f007c 	ldr	r0, [pc, #124]	; 83ac <ckfree+0x1bc>
    832c:	eb00029b 	bl	8da0 <printk>
    8330:	eb000551 	bl	987c <clean_reboot>
    8334:	e1a03005 	mov	r3, r5
    8338:	e1a02007 	mov	r2, r7
    833c:	e1a01006 	mov	r1, r6
    8340:	e59f0060 	ldr	r0, [pc, #96]	; 83a8 <ckfree+0x1b8>
    8344:	eb000295 	bl	8da0 <printk>
    8348:	e59f0060 	ldr	r0, [pc, #96]	; 83b0 <ckfree+0x1c0>
    834c:	eb000293 	bl	8da0 <printk>
    8350:	eb000549 	bl	987c <clean_reboot>
    8354:	e1a03005 	mov	r3, r5
    8358:	e1a02007 	mov	r2, r7
    835c:	e1a01006 	mov	r1, r6
    8360:	e59f0040 	ldr	r0, [pc, #64]	; 83a8 <ckfree+0x1b8>
    8364:	eb00028d 	bl	8da0 <printk>
    8368:	e51410ac 	ldr	r1, [r4, #-172]	; 0xffffff54
    836c:	e59f0040 	ldr	r0, [pc, #64]	; 83b4 <ckfree+0x1c4>
    8370:	eb00028a 	bl	8da0 <printk>
    8374:	eb000540 	bl	987c <clean_reboot>
    8378:	e59f2038 	ldr	r2, [pc, #56]	; 83b8 <ckfree+0x1c8>
    837c:	e3a0306d 	mov	r3, #109, 0	; 0x6d
    8380:	e59f1034 	ldr	r1, [pc, #52]	; 83bc <ckfree+0x1cc>
    8384:	e58d2000 	str	r2, [sp]
    8388:	e59f0030 	ldr	r0, [pc, #48]	; 83c0 <ckfree+0x1d0>
    838c:	e59f2030 	ldr	r2, [pc, #48]	; 83c4 <ckfree+0x1d4>
    8390:	eb000282 	bl	8da0 <printk>
    8394:	eb000538 	bl	987c <clean_reboot>
    8398:	0000a434 	andeq	sl, r0, r4, lsr r4
    839c:	0000a440 	andeq	sl, r0, r0, asr #8
    83a0:	0000ac80 	andeq	sl, r0, r0, lsl #25
    83a4:	0000a424 	andeq	sl, r0, r4, lsr #8
    83a8:	0000a450 	andeq	sl, r0, r0, asr r4
    83ac:	0000a490 	muleq	r0, r0, r4
    83b0:	0000a4ac 	andeq	sl, r0, ip, lsr #9
    83b4:	0000a468 	andeq	sl, r0, r8, ror #8
    83b8:	0000a4e8 	andeq	sl, r0, r8, ror #9
    83bc:	0000a4c8 	andeq	sl, r0, r8, asr #9
    83c0:	0000a4d4 	ldrdeq	sl, [r0], -r4
    83c4:	0000a51c 	andeq	sl, r0, ip, lsl r5

000083c8 <ckalloc>:
    83c8:	e92d4070 	push	{r4, r5, r6, lr}
    83cc:	e24dd010 	sub	sp, sp, #16, 0
    83d0:	e1a05000 	mov	r5, r0
    83d4:	e28d6004 	add	r6, sp, #4, 0
    83d8:	e2800f4d 	add	r0, r0, #308	; 0x134
    83dc:	e886000e 	stm	r6, {r1, r2, r3}
    83e0:	eb000057 	bl	8544 <kr_malloc>
    83e4:	e1a04000 	mov	r4, r0
    83e8:	e3a020b4 	mov	r2, #180, 0	; 0xb4
    83ec:	e3a01000 	mov	r1, #0, 0
    83f0:	eb00024c 	bl	8d28 <memset>
    83f4:	e28520b4 	add	r2, r5, #180, 0	; 0xb4
    83f8:	e28510b8 	add	r1, r5, #184, 0	; 0xb8
    83fc:	e0842002 	add	r2, r4, r2
    8400:	e2843032 	add	r3, r4, #50, 0	; 0x32
    8404:	e0841001 	add	r1, r4, r1
    8408:	e2840036 	add	r0, r4, #54, 0	; 0x36
    840c:	e1520000 	cmp	r2, r0
    8410:	31530001 	cmpcc	r3, r1
    8414:	3a00001a 	bcc	8484 <ckalloc+0xbc>
    8418:	e59f108c 	ldr	r1, [pc, #140]	; 84ac <ckalloc+0xe4>
    841c:	e28400b2 	add	r0, r4, #178, 0	; 0xb2
    8420:	e4831004 	str	r1, [r3], #4
    8424:	e1530000 	cmp	r3, r0
    8428:	e4821004 	str	r1, [r2], #4
    842c:	1afffffb 	bne	8420 <ckalloc+0x58>
    8430:	e3a0c00b 	mov	ip, #11, 0
    8434:	e8960007 	ldm	r6, {r0, r1, r2}
    8438:	e2843010 	add	r3, r4, #16, 0
    843c:	e9841020 	stmib	r4, {r5, ip}
    8440:	e28460b4 	add	r6, r4, #180, 0	; 0xb4
    8444:	e8830007 	stm	r3, {r0, r1, r2}
    8448:	e1cd20d8 	ldrd	r2, [sp, #8]
    844c:	e59d1004 	ldr	r1, [sp, #4]
    8450:	e59f0058 	ldr	r0, [pc, #88]	; 84b0 <ckalloc+0xe8>
    8454:	eb000251 	bl	8da0 <printk>
    8458:	e1a02005 	mov	r2, r5
    845c:	e1a01006 	mov	r1, r6
    8460:	e59f004c 	ldr	r0, [pc, #76]	; 84b4 <ckalloc+0xec>
    8464:	eb00024d 	bl	8da0 <printk>
    8468:	e1a00006 	mov	r0, r6
    846c:	e59f3044 	ldr	r3, [pc, #68]	; 84b8 <ckalloc+0xf0>
    8470:	e5932000 	ldr	r2, [r3]
    8474:	e5834000 	str	r4, [r3]
    8478:	e5842000 	str	r2, [r4]
    847c:	e28dd010 	add	sp, sp, #16, 0
    8480:	e8bd8070 	pop	{r4, r5, r6, pc}
    8484:	e3e01001 	mvn	r1, #1, 0
    8488:	e28520b3 	add	r2, r5, #179, 0	; 0xb3
    848c:	e0842002 	add	r2, r4, r2
    8490:	e2843031 	add	r3, r4, #49, 0	; 0x31
    8494:	e28400b1 	add	r0, r4, #177, 0	; 0xb1
    8498:	e5e31001 	strb	r1, [r3, #1]!
    849c:	e1530000 	cmp	r3, r0
    84a0:	e5e21001 	strb	r1, [r2, #1]!
    84a4:	1afffffb 	bne	8498 <ckalloc+0xd0>
    84a8:	eaffffe0 	b	8430 <ckalloc+0x68>
    84ac:	fefefefe 	mrc2	14, 7, pc, cr14, cr14, {7}
    84b0:	0000a434 	andeq	sl, r0, r4, lsr r4
    84b4:	0000a500 	andeq	sl, r0, r0, lsl #10
    84b8:	0000ac80 	andeq	sl, r0, r0, lsl #25

000084bc <kr_free>:
    84bc:	e92d4010 	push	{r4, lr}
    84c0:	e59fe078 	ldr	lr, [pc, #120]	; 8540 <kr_free+0x84>
    84c4:	e2401008 	sub	r1, r0, #8, 0
    84c8:	e59e3000 	ldr	r3, [lr]
    84cc:	ea000004 	b	84e4 <kr_free+0x28>
    84d0:	e1520001 	cmp	r2, r1
    84d4:	8a000009 	bhi	8500 <kr_free+0x44>
    84d8:	e1520003 	cmp	r2, r3
    84dc:	9a000007 	bls	8500 <kr_free+0x44>
    84e0:	e1a03002 	mov	r3, r2
    84e4:	e1530001 	cmp	r3, r1
    84e8:	e5932000 	ldr	r2, [r3]
    84ec:	3afffff7 	bcc	84d0 <kr_free+0x14>
    84f0:	e1530002 	cmp	r3, r2
    84f4:	3afffff9 	bcc	84e0 <kr_free+0x24>
    84f8:	e1510002 	cmp	r1, r2
    84fc:	2afffff7 	bcs	84e0 <kr_free+0x24>
    8500:	e510c004 	ldr	ip, [r0, #-4]
    8504:	e58e3000 	str	r3, [lr]
    8508:	e081418c 	add	r4, r1, ip, lsl #3
    850c:	e1520004 	cmp	r2, r4
    8510:	08920014 	ldmeq	r2, {r2, r4}
    8514:	008cc004 	addeq	ip, ip, r4
    8518:	0500c004 	streq	ip, [r0, #-4]
    851c:	e5934004 	ldr	r4, [r3, #4]
    8520:	e5002008 	str	r2, [r0, #-8]
    8524:	e0830184 	add	r0, r3, r4, lsl #3
    8528:	e1510000 	cmp	r1, r0
    852c:	01a01002 	moveq	r1, r2
    8530:	0084c00c 	addeq	ip, r4, ip
    8534:	0583c004 	streq	ip, [r3, #4]
    8538:	e5831000 	str	r1, [r3]
    853c:	e8bd8010 	pop	{r4, pc}
    8540:	0000ac88 	andeq	sl, r0, r8, lsl #25

00008544 <kr_malloc>:
    8544:	e92d41f0 	push	{r4, r5, r6, r7, r8, lr}
    8548:	e59f50ec 	ldr	r5, [pc, #236]	; 863c <kr_malloc+0xf8>
    854c:	e2804007 	add	r4, r0, #7, 0
    8550:	e5951000 	ldr	r1, [r5]
    8554:	e1a041a4 	lsr	r4, r4, #3
    8558:	e3510000 	cmp	r1, #0, 0
    855c:	e2844001 	add	r4, r4, #1, 0
    8560:	0a00002c 	beq	8618 <kr_malloc+0xd4>
    8564:	e5910000 	ldr	r0, [r1]
    8568:	e5902004 	ldr	r2, [r0, #4]
    856c:	e1520004 	cmp	r2, r4
    8570:	2a00002f 	bcs	8634 <kr_malloc+0xf0>
    8574:	e3a07902 	mov	r7, #32768	; 0x8000
    8578:	e59f60c0 	ldr	r6, [pc, #192]	; 8640 <kr_malloc+0xfc>
    857c:	ea000003 	b	8590 <kr_malloc+0x4c>
    8580:	e5930000 	ldr	r0, [r3]
    8584:	e5902004 	ldr	r2, [r0, #4]
    8588:	e1520004 	cmp	r2, r4
    858c:	2a000015 	bcs	85e8 <kr_malloc+0xa4>
    8590:	e1510000 	cmp	r1, r0
    8594:	11a03000 	movne	r3, r0
    8598:	1afffff8 	bne	8580 <kr_malloc+0x3c>
    859c:	e3a01902 	mov	r1, #32768	; 0x8000
    85a0:	e1a00006 	mov	r0, r6
    85a4:	eb0001fd 	bl	8da0 <printk>
    85a8:	e3a00701 	mov	r0, #262144	; 0x40000
    85ac:	eb0000ec 	bl	8964 <sbrk>
    85b0:	e1a03000 	mov	r3, r0
    85b4:	e3730001 	cmn	r3, #1, 0
    85b8:	e2800008 	add	r0, r0, #8, 0
    85bc:	0a000013 	beq	8610 <kr_malloc+0xcc>
    85c0:	e5837004 	str	r7, [r3, #4]
    85c4:	ebffffbc 	bl	84bc <kr_free>
    85c8:	e5953000 	ldr	r3, [r5]
    85cc:	e3530000 	cmp	r3, #0, 0
    85d0:	0a00000e 	beq	8610 <kr_malloc+0xcc>
    85d4:	e5930000 	ldr	r0, [r3]
    85d8:	e1a01003 	mov	r1, r3
    85dc:	e5902004 	ldr	r2, [r0, #4]
    85e0:	e1520004 	cmp	r2, r4
    85e4:	3affffe9 	bcc	8590 <kr_malloc+0x4c>
    85e8:	e1520004 	cmp	r2, r4
    85ec:	05902000 	ldreq	r2, [r0]
    85f0:	10422004 	subne	r2, r2, r4
    85f4:	15802004 	strne	r2, [r0, #4]
    85f8:	10800182 	addne	r0, r0, r2, lsl #3
    85fc:	15804004 	strne	r4, [r0, #4]
    8600:	05832000 	streq	r2, [r3]
    8604:	e5853000 	str	r3, [r5]
    8608:	e2800008 	add	r0, r0, #8, 0
    860c:	e8bd81f0 	pop	{r4, r5, r6, r7, r8, pc}
    8610:	e3a00000 	mov	r0, #0, 0
    8614:	e8bd81f0 	pop	{r4, r5, r6, r7, r8, pc}
    8618:	e2853008 	add	r3, r5, #8, 0
    861c:	e585100c 	str	r1, [r5, #12]
    8620:	e1a00003 	mov	r0, r3
    8624:	e1a01003 	mov	r1, r3
    8628:	e5853000 	str	r3, [r5]
    862c:	e5853008 	str	r3, [r5, #8]
    8630:	eaffffcf 	b	8574 <kr_malloc+0x30>
    8634:	e1a03001 	mov	r3, r1
    8638:	eaffffea 	b	85e8 <kr_malloc+0xa4>
    863c:	0000ac88 	andeq	sl, r0, r8, lsl #25
    8640:	0000a524 	andeq	sl, r0, r4, lsr #10

00008644 <mark>:
    8644:	e92d4ff0 	push	{r4, r5, r6, r7, r8, r9, sl, fp, lr}
    8648:	e1500001 	cmp	r0, r1
    864c:	23a03052 	movcs	r3, #82, 0	; 0x52
    8650:	259f2120 	ldrcs	r2, [pc, #288]	; 8778 <mark+0x134>
    8654:	e24dd00c 	sub	sp, sp, #12, 0
    8658:	2a000040 	bcs	8760 <mark+0x11c>
    865c:	e3100003 	tst	r0, #3, 0
    8660:	e1a04000 	mov	r4, r0
    8664:	1a00003b 	bne	8758 <mark+0x114>
    8668:	e3110003 	tst	r1, #3, 0
    866c:	13a03056 	movne	r3, #86, 0	; 0x56
    8670:	159f2104 	ldrne	r2, [pc, #260]	; 877c <mark+0x138>
    8674:	1a000039 	bne	8760 <mark+0x11c>
    8678:	e0411000 	sub	r1, r1, r0
    867c:	e3c11003 	bic	r1, r1, #3, 0
    8680:	e2805004 	add	r5, r0, #4, 0
    8684:	e59f70f4 	ldr	r7, [pc, #244]	; 8780 <mark+0x13c>
    8688:	e59fa0f4 	ldr	sl, [pc, #244]	; 8784 <mark+0x140>
    868c:	e0815005 	add	r5, r1, r5
    8690:	e5940000 	ldr	r0, [r4]
    8694:	e5973000 	ldr	r3, [r7]
    8698:	e1a08004 	mov	r8, r4
    869c:	e1500003 	cmp	r0, r3
    86a0:	e2844004 	add	r4, r4, #4, 0
    86a4:	3a00001a 	bcc	8714 <mark+0xd0>
    86a8:	e5973004 	ldr	r3, [r7, #4]
    86ac:	e1500003 	cmp	r0, r3
    86b0:	2a000017 	bcs	8714 <mark+0xd0>
    86b4:	ebfffeaf 	bl	8178 <ck_ptr_is_alloced>
    86b8:	e2506000 	subs	r6, r0, #0, 0
    86bc:	0a000014 	beq	8714 <mark+0xd0>
    86c0:	e1d693b0 	ldrh	r9, [r6, #48]	; 0x30
    86c4:	ebfffe9c 	bl	813c <ck_hdr_start>
    86c8:	e286b0b4 	add	fp, r6, #180, 0	; 0xb4
    86cc:	e1a01000 	mov	r1, r0
    86d0:	e5143004 	ldr	r3, [r4, #-4]
    86d4:	e1a02008 	mov	r2, r8
    86d8:	e1a0000a 	mov	r0, sl
    86dc:	e58db000 	str	fp, [sp]
    86e0:	eb0001ae 	bl	8da0 <printk>
    86e4:	e3590001 	cmp	r9, #1, 0
    86e8:	8a00000d 	bhi	8724 <mark+0xe0>
    86ec:	e5143004 	ldr	r3, [r4, #-4]
    86f0:	e59f0090 	ldr	r0, [pc, #144]	; 8788 <mark+0x144>
    86f4:	e15b0003 	cmp	fp, r3
    86f8:	03a03002 	moveq	r3, #2, 0
    86fc:	13a03001 	movne	r3, #1, 0
    8700:	e1a01003 	mov	r1, r3
    8704:	e1c633b0 	strh	r3, [r6, #48]	; 0x30
    8708:	eb0001a4 	bl	8da0 <printk>
    870c:	e3590000 	cmp	r9, #0, 0
    8710:	0a000008 	beq	8738 <mark+0xf4>
    8714:	e1550004 	cmp	r5, r4
    8718:	1affffdc 	bne	8690 <mark+0x4c>
    871c:	e28dd00c 	add	sp, sp, #12, 0
    8720:	e8bd8ff0 	pop	{r4, r5, r6, r7, r8, r9, sl, fp, pc}
    8724:	e59f0060 	ldr	r0, [pc, #96]	; 878c <mark+0x148>
    8728:	eb00019c 	bl	8da0 <printk>
    872c:	e1550004 	cmp	r5, r4
    8730:	1affffd6 	bne	8690 <mark+0x4c>
    8734:	eafffff8 	b	871c <mark+0xd8>
    8738:	e5961004 	ldr	r1, [r6, #4]
    873c:	e2860004 	add	r0, r6, #4, 0
    8740:	e28110b4 	add	r1, r1, #180, 0	; 0xb4
    8744:	e0861001 	add	r1, r6, r1
    8748:	ebffffbd 	bl	8644 <mark>
    874c:	e1550004 	cmp	r5, r4
    8750:	1affffce 	bne	8690 <mark+0x4c>
    8754:	eafffff0 	b	871c <mark+0xd8>
    8758:	e3a03055 	mov	r3, #85, 0	; 0x55
    875c:	e59f202c 	ldr	r2, [pc, #44]	; 8790 <mark+0x14c>
    8760:	e59f102c 	ldr	r1, [pc, #44]	; 8794 <mark+0x150>
    8764:	e58d2000 	str	r2, [sp]
    8768:	e59f0028 	ldr	r0, [pc, #40]	; 8798 <mark+0x154>
    876c:	e59f2028 	ldr	r2, [pc, #40]	; 879c <mark+0x158>
    8770:	eb00018a 	bl	8da0 <printk>
    8774:	eb000440 	bl	987c <clean_reboot>
    8778:	0000a550 	andeq	sl, r0, r0, asr r5
    877c:	0000a568 	andeq	sl, r0, r8, ror #10
    8780:	0000ac98 	muleq	r0, r8, ip
    8784:	0000a578 	andeq	sl, r0, r8, ror r5
    8788:	0000a5a4 	andeq	sl, r0, r4, lsr #11
    878c:	0000a5b4 			; <UNDEFINED> instruction: 0x0000a5b4
    8790:	0000a558 	andeq	sl, r0, r8, asr r5
    8794:	0000a548 	andeq	sl, r0, r8, asr #10
    8798:	0000a4d4 	ldrdeq	sl, [r0], -r4
    879c:	0000a8a8 	andeq	sl, r0, r8, lsr #17

000087a0 <mark_all>:
    87a0:	e92d4010 	push	{r4, lr}
    87a4:	e24dd040 	sub	sp, sp, #64, 0	; 0x40
    87a8:	ebfffe5c 	bl	8120 <ck_first_hdr>
    87ac:	e3500000 	cmp	r0, #0, 0
    87b0:	0a000006 	beq	87d0 <mark_all+0x30>
    87b4:	e3a04000 	mov	r4, #0, 0
    87b8:	e580402c 	str	r4, [r0, #44]	; 0x2c
    87bc:	e5804028 	str	r4, [r0, #40]	; 0x28
    87c0:	e1c043b0 	strh	r4, [r0, #48]	; 0x30
    87c4:	ebfffe59 	bl	8130 <ck_next_hdr>
    87c8:	e3500000 	cmp	r0, #0, 0
    87cc:	1afffff9 	bne	87b8 <mark_all+0x18>
    87d0:	e1a0000d 	mov	r0, sp
    87d4:	eb000151 	bl	8d20 <dump_regs>
    87d8:	e3a03000 	mov	r3, #0, 0
    87dc:	e3a02000 	mov	r2, #0, 0
    87e0:	e1a0000d 	mov	r0, sp
    87e4:	e28d1038 	add	r1, sp, #56, 0	; 0x38
    87e8:	e1cd20f0 	strd	r2, [sp]
    87ec:	e1cd20f8 	strd	r2, [sp, #8]
    87f0:	ebffff93 	bl	8644 <mark>
    87f4:	e3a02302 	mov	r2, #134217728	; 0x8000000
    87f8:	e59d1034 	ldr	r1, [sp, #52]	; 0x34
    87fc:	e59f002c 	ldr	r0, [pc, #44]	; 8830 <mark_all+0x90>
    8800:	eb000166 	bl	8da0 <printk>
    8804:	e59d0034 	ldr	r0, [sp, #52]	; 0x34
    8808:	e3a01302 	mov	r1, #134217728	; 0x8000000
    880c:	ebffff8c 	bl	8644 <mark>
    8810:	e59f101c 	ldr	r1, [pc, #28]	; 8834 <mark_all+0x94>
    8814:	e59f001c 	ldr	r0, [pc, #28]	; 8838 <mark_all+0x98>
    8818:	ebffff89 	bl	8644 <mark>
    881c:	e59f1018 	ldr	r1, [pc, #24]	; 883c <mark_all+0x9c>
    8820:	e59f0018 	ldr	r0, [pc, #24]	; 8840 <mark_all+0xa0>
    8824:	ebffff86 	bl	8644 <mark>
    8828:	e28dd040 	add	sp, sp, #64, 0	; 0x40
    882c:	e8bd8010 	pop	{r4, pc}
    8830:	0000a5c4 	andeq	sl, r0, r4, asr #11
    8834:	0000b0a8 	andeq	fp, r0, r8, lsr #1
    8838:	0000ac80 	andeq	sl, r0, r0, lsl #25
    883c:	0000ac7c 	andeq	sl, r0, ip, ror ip
    8840:	0000ac64 	andeq	sl, r0, r4, ror #24

00008844 <sweep_leak>:
    8844:	e92d47f0 	push	{r4, r5, r6, r7, r8, r9, sl, lr}
    8848:	e1a08000 	mov	r8, r0
    884c:	e59f00f0 	ldr	r0, [pc, #240]	; 8944 <sweep_leak+0x100>
    8850:	eb000152 	bl	8da0 <printk>
    8854:	e59f00ec 	ldr	r0, [pc, #236]	; 8948 <sweep_leak+0x104>
    8858:	eb000150 	bl	8da0 <printk>
    885c:	ebffffcf 	bl	87a0 <mark_all>
    8860:	ebfffe2e 	bl	8120 <ck_first_hdr>
    8864:	e2504000 	subs	r4, r0, #0, 0
    8868:	0a00002d 	beq	8924 <sweep_leak+0xe0>
    886c:	e3a07000 	mov	r7, #0, 0
    8870:	e59fa0d4 	ldr	sl, [pc, #212]	; 894c <sweep_leak+0x108>
    8874:	e1a06007 	mov	r6, r7
    8878:	e1a05007 	mov	r5, r7
    887c:	e59f90cc 	ldr	r9, [pc, #204]	; 8950 <sweep_leak+0x10c>
    8880:	ea000005 	b	889c <sweep_leak+0x58>
    8884:	e3530001 	cmp	r3, #1, 0
    8888:	0a00001f 	beq	890c <sweep_leak+0xc8>
    888c:	e1a00004 	mov	r0, r4
    8890:	ebfffe26 	bl	8130 <ck_next_hdr>
    8894:	e2504000 	subs	r4, r0, #0, 0
    8898:	0a00000c 	beq	88d0 <sweep_leak+0x8c>
    889c:	e1d433b0 	ldrh	r3, [r4, #48]	; 0x30
    88a0:	e2855001 	add	r5, r5, #1, 0
    88a4:	e3530000 	cmp	r3, #0, 0
    88a8:	1afffff5 	bne	8884 <sweep_leak+0x40>
    88ac:	e1a02004 	mov	r2, r4
    88b0:	e1a01005 	mov	r1, r5
    88b4:	e1a00009 	mov	r0, r9
    88b8:	eb000138 	bl	8da0 <printk>
    88bc:	e1a00004 	mov	r0, r4
    88c0:	ebfffe1a 	bl	8130 <ck_next_hdr>
    88c4:	e2504000 	subs	r4, r0, #0, 0
    88c8:	e2866001 	add	r6, r6, #1, 0
    88cc:	1afffff2 	bne	889c <sweep_leak+0x58>
    88d0:	e1a01005 	mov	r1, r5
    88d4:	e59f0078 	ldr	r0, [pc, #120]	; 8954 <sweep_leak+0x110>
    88d8:	eb000130 	bl	8da0 <printk>
    88dc:	e1963007 	orrs	r3, r6, r7
    88e0:	0a000012 	beq	8930 <sweep_leak+0xec>
    88e4:	e1a02007 	mov	r2, r7
    88e8:	e1a01006 	mov	r1, r6
    88ec:	e59f0064 	ldr	r0, [pc, #100]	; 8958 <sweep_leak+0x114>
    88f0:	eb00012a 	bl	8da0 <printk>
    88f4:	e59f0060 	ldr	r0, [pc, #96]	; 895c <sweep_leak+0x118>
    88f8:	eb000128 	bl	8da0 <printk>
    88fc:	e3580000 	cmp	r8, #0, 0
    8900:	10866007 	addne	r6, r6, r7
    8904:	e1a00006 	mov	r0, r6
    8908:	e8bd87f0 	pop	{r4, r5, r6, r7, r8, r9, sl, pc}
    890c:	e1a02004 	mov	r2, r4
    8910:	e1a01005 	mov	r1, r5
    8914:	e1a0000a 	mov	r0, sl
    8918:	e2877001 	add	r7, r7, #1, 0
    891c:	eb00011f 	bl	8da0 <printk>
    8920:	eaffffd9 	b	888c <sweep_leak+0x48>
    8924:	e1a01004 	mov	r1, r4
    8928:	e59f0024 	ldr	r0, [pc, #36]	; 8954 <sweep_leak+0x110>
    892c:	eb00011b 	bl	8da0 <printk>
    8930:	e3a07000 	mov	r7, #0, 0
    8934:	e59f0024 	ldr	r0, [pc, #36]	; 8960 <sweep_leak+0x11c>
    8938:	e1a06007 	mov	r6, r7
    893c:	eb000117 	bl	8da0 <printk>
    8940:	eaffffeb 	b	88f4 <sweep_leak+0xb0>
    8944:	0000a5e0 	andeq	sl, r0, r0, ror #11
    8948:	0000a61c 	andeq	sl, r0, ip, lsl r6
    894c:	0000a648 	andeq	sl, r0, r8, asr #12
    8950:	0000a634 	andeq	sl, r0, r4, lsr r6
    8954:	0000a660 	andeq	sl, r0, r0, ror #12
    8958:	0000a6a8 	andeq	sl, r0, r8, lsr #13
    895c:	0000a6d8 	ldrdeq	sl, [r0], -r8
    8960:	0000a680 	andeq	sl, r0, r0, lsl #13

00008964 <sbrk>:
    8964:	e92d4030 	push	{r4, r5, lr}
    8968:	e2504000 	subs	r4, r0, #0, 0
    896c:	e24dd00c 	sub	sp, sp, #12, 0
    8970:	da00000e 	ble	89b0 <sbrk+0x4c>
    8974:	e59f506c 	ldr	r5, [pc, #108]	; 89e8 <sbrk+0x84>
    8978:	e5953008 	ldr	r3, [r5, #8]
    897c:	e3530000 	cmp	r3, #0, 0
    8980:	1a000012 	bne	89d0 <sbrk+0x6c>
    8984:	e3a01601 	mov	r1, #1048576	; 0x100000
    8988:	e3a03602 	mov	r3, #2097152	; 0x200000
    898c:	e1a00001 	mov	r0, r1
    8990:	e885000a 	stm	r5, {r1, r3}
    8994:	eb0004f4 	bl	9d6c <kmalloc_init_set_start>
    8998:	e3a03001 	mov	r3, #1, 0
    899c:	e1a00004 	mov	r0, r4
    89a0:	e5853008 	str	r3, [r5, #8]
    89a4:	e28dd00c 	add	sp, sp, #12, 0
    89a8:	e8bd4030 	pop	{r4, r5, lr}
    89ac:	ea000551 	b	9ef8 <kmalloc>
    89b0:	e59f2034 	ldr	r2, [pc, #52]	; 89ec <sbrk+0x88>
    89b4:	e3a03017 	mov	r3, #23, 0
    89b8:	e59f1030 	ldr	r1, [pc, #48]	; 89f0 <sbrk+0x8c>
    89bc:	e58d2000 	str	r2, [sp]
    89c0:	e59f002c 	ldr	r0, [pc, #44]	; 89f4 <sbrk+0x90>
    89c4:	e59f202c 	ldr	r2, [pc, #44]	; 89f8 <sbrk+0x94>
    89c8:	eb0000f4 	bl	8da0 <printk>
    89cc:	eb0003aa 	bl	987c <clean_reboot>
    89d0:	e3a03019 	mov	r3, #25, 0
    89d4:	e59f201c 	ldr	r2, [pc, #28]	; 89f8 <sbrk+0x94>
    89d8:	e59f1010 	ldr	r1, [pc, #16]	; 89f0 <sbrk+0x8c>
    89dc:	e59f0018 	ldr	r0, [pc, #24]	; 89fc <sbrk+0x98>
    89e0:	eb0000ee 	bl	8da0 <printk>
    89e4:	eb0003a4 	bl	987c <clean_reboot>
    89e8:	0000ac98 	muleq	r0, r8, ip
    89ec:	0000a714 	andeq	sl, r0, r4, lsl r7
    89f0:	0000a548 	andeq	sl, r0, r8, asr #10
    89f4:	0000a4d4 	ldrdeq	sl, [r0], -r4
    89f8:	0000a8b0 			; <UNDEFINED> instruction: 0x0000a8b0
    89fc:	0000a724 	andeq	sl, r0, r4, lsr #14

00008a00 <redzone_errors>:
    8a00:	e3510000 	cmp	r1, #0, 0
    8a04:	da000009 	ble	8a30 <redzone_errors+0x30>
    8a08:	e3a0c000 	mov	ip, #0, 0
    8a0c:	e2403001 	sub	r3, r0, #1, 0
    8a10:	e0831001 	add	r1, r3, r1
    8a14:	e5f32001 	ldrb	r2, [r3, #1]!
    8a18:	e35200fe 	cmp	r2, #254, 0	; 0xfe
    8a1c:	128cc001 	addne	ip, ip, #1, 0
    8a20:	e1510003 	cmp	r1, r3
    8a24:	1afffffa 	bne	8a14 <redzone_errors+0x14>
    8a28:	e1a0000c 	mov	r0, ip
    8a2c:	e12fff1e 	bx	lr
    8a30:	e3a00000 	mov	r0, #0, 0
    8a34:	e12fff1e 	bx	lr

00008a38 <ck_heap_errors>:
    8a38:	e92d47f0 	push	{r4, r5, r6, r7, r8, r9, sl, lr}
    8a3c:	ebfffdb7 	bl	8120 <ck_first_hdr>
    8a40:	e2504000 	subs	r4, r0, #0, 0
    8a44:	0a00003e 	beq	8b44 <ck_heap_errors+0x10c>
    8a48:	e3a05000 	mov	r5, #0, 0
    8a4c:	e59f60fc 	ldr	r6, [pc, #252]	; 8b50 <ck_heap_errors+0x118>
    8a50:	e59f70fc 	ldr	r7, [pc, #252]	; 8b54 <ck_heap_errors+0x11c>
    8a54:	e59f80fc 	ldr	r8, [pc, #252]	; 8b58 <ck_heap_errors+0x120>
    8a58:	e3a0c000 	mov	ip, #0, 0
    8a5c:	e2843031 	add	r3, r4, #49, 0	; 0x31
    8a60:	e28410b1 	add	r1, r4, #177, 0	; 0xb1
    8a64:	e5f32001 	ldrb	r2, [r3, #1]!
    8a68:	e35200fe 	cmp	r2, #254, 0	; 0xfe
    8a6c:	128cc001 	addne	ip, ip, #1, 0
    8a70:	e1530001 	cmp	r3, r1
    8a74:	1afffffa 	bne	8a64 <ck_heap_errors+0x2c>
    8a78:	e3a0e000 	mov	lr, #0, 0
    8a7c:	e5943004 	ldr	r3, [r4, #4]
    8a80:	e0841003 	add	r1, r4, r3
    8a84:	e2811e13 	add	r1, r1, #304	; 0x130
    8a88:	e28330b3 	add	r3, r3, #179, 0	; 0xb3
    8a8c:	e2811003 	add	r1, r1, #3, 0
    8a90:	e0843003 	add	r3, r4, r3
    8a94:	e5f32001 	ldrb	r2, [r3, #1]!
    8a98:	e35200fe 	cmp	r2, #254, 0	; 0xfe
    8a9c:	128ee001 	addne	lr, lr, #1, 0
    8aa0:	e1510003 	cmp	r1, r3
    8aa4:	1afffffa 	bne	8a94 <ck_heap_errors+0x5c>
    8aa8:	e1c421d4 	ldrd	r2, [r4, #20]
    8aac:	e5941010 	ldr	r1, [r4, #16]
    8ab0:	e1a00006 	mov	r0, r6
    8ab4:	e08e900c 	add	r9, lr, ip
    8ab8:	eb0000b8 	bl	8da0 <printk>
    8abc:	e1a00007 	mov	r0, r7
    8ac0:	eb0000b6 	bl	8da0 <printk>
    8ac4:	e5943008 	ldr	r3, [r4, #8]
    8ac8:	e353000c 	cmp	r3, #12, 0
    8acc:	0a000006 	beq	8aec <ck_heap_errors+0xb4>
    8ad0:	e1a00004 	mov	r0, r4
    8ad4:	ebfffd95 	bl	8130 <ck_next_hdr>
    8ad8:	e2504000 	subs	r4, r0, #0, 0
    8adc:	e0855009 	add	r5, r5, r9
    8ae0:	1affffdc 	bne	8a58 <ck_heap_errors+0x20>
    8ae4:	e1a00005 	mov	r0, r5
    8ae8:	e8bd87f0 	pop	{r4, r5, r6, r7, r8, r9, sl, pc}
    8aec:	e5943004 	ldr	r3, [r4, #4]
    8af0:	e3530000 	cmp	r3, #0, 0
    8af4:	dafffff5 	ble	8ad0 <ck_heap_errors+0x98>
    8af8:	e3a00000 	mov	r0, #0, 0
    8afc:	e0843003 	add	r3, r4, r3
    8b00:	e28310b3 	add	r1, r3, #179, 0	; 0xb3
    8b04:	e28430b3 	add	r3, r4, #179, 0	; 0xb3
    8b08:	e5f32001 	ldrb	r2, [r3, #1]!
    8b0c:	e35200fe 	cmp	r2, #254, 0	; 0xfe
    8b10:	12800001 	addne	r0, r0, #1, 0
    8b14:	e1510003 	cmp	r1, r3
    8b18:	1afffffa 	bne	8b08 <ck_heap_errors+0xd0>
    8b1c:	e3500000 	cmp	r0, #0, 0
    8b20:	e0899000 	add	r9, r9, r0
    8b24:	0affffe9 	beq	8ad0 <ck_heap_errors+0x98>
    8b28:	e1c422d0 	ldrd	r2, [r4, #32]
    8b2c:	e1a00006 	mov	r0, r6
    8b30:	e594101c 	ldr	r1, [r4, #28]
    8b34:	eb000099 	bl	8da0 <printk>
    8b38:	e1a00008 	mov	r0, r8
    8b3c:	eb000097 	bl	8da0 <printk>
    8b40:	eaffffe2 	b	8ad0 <ck_heap_errors+0x98>
    8b44:	e1a05004 	mov	r5, r4
    8b48:	e1a00005 	mov	r0, r5
    8b4c:	e8bd87f0 	pop	{r4, r5, r6, r7, r8, r9, sl, pc}
    8b50:	0000a434 	andeq	sl, r0, r4, lsr r4
    8b54:	0000a744 	andeq	sl, r0, r4, asr #14
    8b58:	0000a774 	andeq	sl, r0, r4, ror r7

00008b5c <ck_find_leaks>:
    8b5c:	eaffff38 	b	8844 <sweep_leak>

00008b60 <check_no_leak>:
    8b60:	e92d4010 	push	{r4, lr}
    8b64:	e3a00001 	mov	r0, #1, 0
    8b68:	ebffff35 	bl	8844 <sweep_leak>
    8b6c:	e3500000 	cmp	r0, #0, 0
    8b70:	1a000002 	bne	8b80 <check_no_leak+0x20>
    8b74:	e59f001c 	ldr	r0, [pc, #28]	; 8b98 <check_no_leak+0x38>
    8b78:	eb000088 	bl	8da0 <printk>
    8b7c:	e8bd8010 	pop	{r4, pc}
    8b80:	e3a030f9 	mov	r3, #249, 0	; 0xf9
    8b84:	e59f2010 	ldr	r2, [pc, #16]	; 8b9c <check_no_leak+0x3c>
    8b88:	e59f1010 	ldr	r1, [pc, #16]	; 8ba0 <check_no_leak+0x40>
    8b8c:	e59f0010 	ldr	r0, [pc, #16]	; 8ba4 <check_no_leak+0x44>
    8b90:	eb000082 	bl	8da0 <printk>
    8b94:	eb000338 	bl	987c <clean_reboot>
    8b98:	0000a7b8 			; <UNDEFINED> instruction: 0x0000a7b8
    8b9c:	0000a8b8 			; <UNDEFINED> instruction: 0x0000a8b8
    8ba0:	0000a548 	andeq	sl, r0, r8, asr #10
    8ba4:	0000a78c 	andeq	sl, r0, ip, lsl #15

00008ba8 <check_should_leak>:
    8ba8:	e92d4010 	push	{r4, lr}
    8bac:	e3a00001 	mov	r0, #1, 0
    8bb0:	ebffff23 	bl	8844 <sweep_leak>
    8bb4:	e2504000 	subs	r4, r0, #0, 0
    8bb8:	0a000004 	beq	8bd0 <check_should_leak+0x28>
    8bbc:	e1a01004 	mov	r1, r4
    8bc0:	e59f0020 	ldr	r0, [pc, #32]	; 8be8 <check_should_leak+0x40>
    8bc4:	eb000075 	bl	8da0 <printk>
    8bc8:	e1a00004 	mov	r0, r4
    8bcc:	e8bd8010 	pop	{r4, pc}
    8bd0:	e3a03f42 	mov	r3, #264	; 0x108
    8bd4:	e59f2010 	ldr	r2, [pc, #16]	; 8bec <check_should_leak+0x44>
    8bd8:	e59f1010 	ldr	r1, [pc, #16]	; 8bf0 <check_should_leak+0x48>
    8bdc:	e59f0010 	ldr	r0, [pc, #16]	; 8bf4 <check_should_leak+0x4c>
    8be0:	eb00006e 	bl	8da0 <printk>
    8be4:	eb000324 	bl	987c <clean_reboot>
    8be8:	0000a800 	andeq	sl, r0, r0, lsl #16
    8bec:	0000a8c8 	andeq	sl, r0, r8, asr #17
    8bf0:	0000a548 	andeq	sl, r0, r8, asr #10
    8bf4:	0000a7d8 	ldrdeq	sl, [r0], -r8

00008bf8 <ck_gc>:
    8bf8:	e92d4ff0 	push	{r4, r5, r6, r7, r8, r9, sl, fp, lr}
    8bfc:	e24dd014 	sub	sp, sp, #20, 0
    8c00:	ebfffee6 	bl	87a0 <mark_all>
    8c04:	e59f00d0 	ldr	r0, [pc, #208]	; 8cdc <ck_gc+0xe4>
    8c08:	eb000064 	bl	8da0 <printk>
    8c0c:	e59f00cc 	ldr	r0, [pc, #204]	; 8ce0 <ck_gc+0xe8>
    8c10:	eb000062 	bl	8da0 <printk>
    8c14:	ebfffee1 	bl	87a0 <mark_all>
    8c18:	ebfffd40 	bl	8120 <ck_first_hdr>
    8c1c:	e2504000 	subs	r4, r0, #0, 0
    8c20:	0a000029 	beq	8ccc <ck_gc+0xd4>
    8c24:	e3a05000 	mov	r5, #0, 0
    8c28:	e1a07005 	mov	r7, r5
    8c2c:	e1a06005 	mov	r6, r5
    8c30:	e59fa0ac 	ldr	sl, [pc, #172]	; 8ce4 <ck_gc+0xec>
    8c34:	e59f90ac 	ldr	r9, [pc, #172]	; 8ce8 <ck_gc+0xf0>
    8c38:	e59f80ac 	ldr	r8, [pc, #172]	; 8cec <ck_gc+0xf4>
    8c3c:	e1d433b0 	ldrh	r3, [r4, #48]	; 0x30
    8c40:	e2866001 	add	r6, r6, #1, 0
    8c44:	e3530000 	cmp	r3, #0, 0
    8c48:	0a00000b 	beq	8c7c <ck_gc+0x84>
    8c4c:	e1a00004 	mov	r0, r4
    8c50:	ebfffd36 	bl	8130 <ck_next_hdr>
    8c54:	e2504000 	subs	r4, r0, #0, 0
    8c58:	1afffff7 	bne	8c3c <ck_gc+0x44>
    8c5c:	e1a02007 	mov	r2, r7
    8c60:	e1a01006 	mov	r1, r6
    8c64:	e1a03005 	mov	r3, r5
    8c68:	e59f0080 	ldr	r0, [pc, #128]	; 8cf0 <ck_gc+0xf8>
    8c6c:	eb00004b 	bl	8da0 <printk>
    8c70:	e1a00005 	mov	r0, r5
    8c74:	e28dd014 	add	sp, sp, #20, 0
    8c78:	e8bd8ff0 	pop	{r4, r5, r6, r7, r8, r9, sl, fp, pc}
    8c7c:	e59f3070 	ldr	r3, [pc, #112]	; 8cf4 <ck_gc+0xfc>
    8c80:	e594c004 	ldr	ip, [r4, #4]
    8c84:	e58d300c 	str	r3, [sp, #12]
    8c88:	e284b0b4 	add	fp, r4, #180, 0	; 0xb4
    8c8c:	e58da004 	str	sl, [sp, #4]
    8c90:	e58d9008 	str	r9, [sp, #8]
    8c94:	e28d3010 	add	r3, sp, #16, 0
    8c98:	e913000e 	ldmdb	r3, {r1, r2, r3}
    8c9c:	e1a0000b 	mov	r0, fp
    8ca0:	e085500c 	add	r5, r5, ip
    8ca4:	ebfffd51 	bl	81f0 <ckfree>
    8ca8:	e1a0100b 	mov	r1, fp
    8cac:	e1a00008 	mov	r0, r8
    8cb0:	eb00003a 	bl	8da0 <printk>
    8cb4:	e1a00004 	mov	r0, r4
    8cb8:	ebfffd1c 	bl	8130 <ck_next_hdr>
    8cbc:	e2504000 	subs	r4, r0, #0, 0
    8cc0:	e2877001 	add	r7, r7, #1, 0
    8cc4:	1affffdc 	bne	8c3c <ck_gc+0x44>
    8cc8:	eaffffe3 	b	8c5c <ck_gc+0x64>
    8ccc:	e1a05004 	mov	r5, r4
    8cd0:	e1a07004 	mov	r7, r4
    8cd4:	e1a06004 	mov	r6, r4
    8cd8:	eaffffdf 	b	8c5c <ck_gc+0x64>
    8cdc:	0000a5e0 	andeq	sl, r0, r0, ror #11
    8ce0:	0000a824 	andeq	sl, r0, r4, lsr #16
    8ce4:	0000a548 	andeq	sl, r0, r8, asr #10
    8ce8:	0000a8dc 	ldrdeq	sl, [r0], -ip
    8cec:	0000a834 	andeq	sl, r0, r4, lsr r8
    8cf0:	0000a844 	andeq	sl, r0, r4, asr #16
    8cf4:	0000011e 	andeq	r0, r0, lr, lsl r1

00008cf8 <implement_this>:
    8cf8:	e3a03f4d 	mov	r3, #308	; 0x134
    8cfc:	e92d4010 	push	{r4, lr}
    8d00:	e59f200c 	ldr	r2, [pc, #12]	; 8d14 <implement_this+0x1c>
    8d04:	e59f100c 	ldr	r1, [pc, #12]	; 8d18 <implement_this+0x20>
    8d08:	e59f000c 	ldr	r0, [pc, #12]	; 8d1c <implement_this+0x24>
    8d0c:	eb000023 	bl	8da0 <printk>
    8d10:	eb0002d9 	bl	987c <clean_reboot>
    8d14:	0000a8e8 	andeq	sl, r0, r8, ror #17
    8d18:	0000a548 	andeq	sl, r0, r8, asr #10
    8d1c:	0000a878 	andeq	sl, r0, r8, ror r8

00008d20 <dump_regs>:
    8d20:	e8a0ffff 	stmia	r0!, {r0, r1, r2, r3, r4, r5, r6, r7, r8, r9, sl, fp, ip, sp, lr, pc}
    8d24:	e12fff1e 	bx	lr

00008d28 <memset>:
    8d28:	e92d4010 	push	{r4, lr}
    8d2c:	e0804002 	add	r4, r0, r2
    8d30:	e1500004 	cmp	r0, r4
    8d34:	28bd8010 	popcs	{r4, pc}
    8d38:	e2423001 	sub	r3, r2, #1, 0
    8d3c:	e3530002 	cmp	r3, #2, 0
    8d40:	e6ef1071 	uxtb	r1, r1
    8d44:	e1a03000 	mov	r3, r0
    8d48:	9a00000b 	bls	8d7c <memset+0x54>
    8d4c:	e181e401 	orr	lr, r1, r1, lsl #8
    8d50:	e18ee801 	orr	lr, lr, r1, lsl #16
    8d54:	e3c2c003 	bic	ip, r2, #3, 0
    8d58:	e18eec01 	orr	lr, lr, r1, lsl #24
    8d5c:	e08cc000 	add	ip, ip, r0
    8d60:	e483e004 	str	lr, [r3], #4
    8d64:	e153000c 	cmp	r3, ip
    8d68:	1afffffc 	bne	8d60 <memset+0x38>
    8d6c:	e3c23003 	bic	r3, r2, #3, 0
    8d70:	e1520003 	cmp	r2, r3
    8d74:	e0803003 	add	r3, r0, r3
    8d78:	08bd8010 	popeq	{r4, pc}
    8d7c:	e1a02003 	mov	r2, r3
    8d80:	e4c21001 	strb	r1, [r2], #1
    8d84:	e1540002 	cmp	r4, r2
    8d88:	98bd8010 	popls	{r4, pc}
    8d8c:	e2832002 	add	r2, r3, #2, 0
    8d90:	e1540002 	cmp	r4, r2
    8d94:	e5c31001 	strb	r1, [r3, #1]
    8d98:	85c31002 	strbhi	r1, [r3, #2]
    8d9c:	e8bd8010 	pop	{r4, pc}

00008da0 <printk>:
    8da0:	e92d000f 	push	{r0, r1, r2, r3}
    8da4:	e92d4030 	push	{r4, r5, lr}
    8da8:	e59f5040 	ldr	r5, [pc, #64]	; 8df0 <printk+0x50>
    8dac:	e24dd00c 	sub	sp, sp, #12, 0
    8db0:	e28d301c 	add	r3, sp, #28, 0
    8db4:	e3a01b01 	mov	r1, #1024	; 0x400
    8db8:	e59d2018 	ldr	r2, [sp, #24]
    8dbc:	e1a00005 	mov	r0, r5
    8dc0:	e58d3004 	str	r3, [sp, #4]
    8dc4:	eb000121 	bl	9250 <va_printk>
    8dc8:	e1a04000 	mov	r4, r0
    8dcc:	e59f3020 	ldr	r3, [pc, #32]	; 8df4 <printk+0x54>
    8dd0:	e1a00005 	mov	r0, r5
    8dd4:	e5933000 	ldr	r3, [r3]
    8dd8:	e12fff33 	blx	r3
    8ddc:	e1a00004 	mov	r0, r4
    8de0:	e28dd00c 	add	sp, sp, #12, 0
    8de4:	e8bd4030 	pop	{r4, r5, lr}
    8de8:	e28dd010 	add	sp, sp, #16, 0
    8dec:	e12fff1e 	bx	lr
    8df0:	0000aca4 	andeq	sl, r0, r4, lsr #25
    8df4:	0000ac64 	andeq	sl, r0, r4, ror #24

00008df8 <internal_putk>:
    8df8:	e92d4070 	push	{r4, r5, r6, lr}
    8dfc:	e1a04000 	mov	r4, r0
    8e00:	e5d00000 	ldrb	r0, [r0]
    8e04:	e3500000 	cmp	r0, #0, 0
    8e08:	0a000005 	beq	8e24 <internal_putk+0x2c>
    8e0c:	e59f5018 	ldr	r5, [pc, #24]	; 8e2c <internal_putk+0x34>
    8e10:	e5953000 	ldr	r3, [r5]
    8e14:	e12fff33 	blx	r3
    8e18:	e5f40001 	ldrb	r0, [r4, #1]!
    8e1c:	e3500000 	cmp	r0, #0, 0
    8e20:	1afffffa 	bne	8e10 <internal_putk+0x18>
    8e24:	e3a00001 	mov	r0, #1, 0
    8e28:	e8bd8070 	pop	{r4, r5, r6, pc}
    8e2c:	0000ac78 	andeq	sl, r0, r8, ror ip

00008e30 <rpi_rand16>:
    8e30:	e59f1024 	ldr	r1, [pc, #36]	; 8e5c <rpi_rand16+0x2c>
    8e34:	e1d130b0 	ldrh	r3, [r1]
    8e38:	e1a001a3 	lsr	r0, r3, #3
    8e3c:	e0200123 	eor	r0, r0, r3, lsr #2
    8e40:	e0200003 	eor	r0, r0, r3
    8e44:	e02022a3 	eor	r2, r0, r3, lsr #5
    8e48:	e1a000a3 	lsr	r0, r3, #1
    8e4c:	e1800782 	orr	r0, r0, r2, lsl #15
    8e50:	e6ff0070 	uxth	r0, r0
    8e54:	e1c100b0 	strh	r0, [r1]
    8e58:	e12fff1e 	bx	lr
    8e5c:	0000ac68 	andeq	sl, r0, r8, ror #24

00008e60 <rpi_rand32>:
    8e60:	e59f1044 	ldr	r1, [pc, #68]	; 8eac <rpi_rand32+0x4c>
    8e64:	e1d120b0 	ldrh	r2, [r1]
    8e68:	e1a031a2 	lsr	r3, r2, #3
    8e6c:	e0233122 	eor	r3, r3, r2, lsr #2
    8e70:	e0233002 	eor	r3, r3, r2
    8e74:	e02302a2 	eor	r0, r3, r2, lsr #5
    8e78:	e1a030a2 	lsr	r3, r2, #1
    8e7c:	e1833780 	orr	r3, r3, r0, lsl #15
    8e80:	e6ff3073 	uxth	r3, r3
    8e84:	e1a001a3 	lsr	r0, r3, #3
    8e88:	e0200123 	eor	r0, r0, r3, lsr #2
    8e8c:	e0200003 	eor	r0, r0, r3
    8e90:	e02002a3 	eor	r0, r0, r3, lsr #5
    8e94:	e1a020a3 	lsr	r2, r3, #1
    8e98:	e1820780 	orr	r0, r2, r0, lsl #15
    8e9c:	e6ff0070 	uxth	r0, r0
    8ea0:	e1c100b0 	strh	r0, [r1]
    8ea4:	e1800803 	orr	r0, r0, r3, lsl #16
    8ea8:	e12fff1e 	bx	lr
    8eac:	0000ac68 	andeq	sl, r0, r8, ror #24

00008eb0 <rpi_reset>:
    8eb0:	e59f3008 	ldr	r3, [pc, #8]	; 8ec0 <rpi_reset+0x10>
    8eb4:	e59f2008 	ldr	r2, [pc, #8]	; 8ec4 <rpi_reset+0x14>
    8eb8:	e1c320b0 	strh	r2, [r3]
    8ebc:	e12fff1e 	bx	lr
    8ec0:	0000ac68 	andeq	sl, r0, r8, ror #24
    8ec4:	fffface1 			; <UNDEFINED> instruction: 0xfffface1

00008ec8 <emit.constprop.0>:
    8ec8:	e92d41f0 	push	{r4, r5, r6, r7, r8, lr}
    8ecc:	e3530080 	cmp	r3, #128, 0	; 0x80
    8ed0:	e1a0c000 	mov	ip, r0
    8ed4:	e24dd048 	sub	sp, sp, #72, 0	; 0x48
    8ed8:	e1a00001 	mov	r0, r1
    8edc:	ca000069 	bgt	9088 <emit.constprop.0+0x1c0>
    8ee0:	e24c1002 	sub	r1, ip, #2, 0
    8ee4:	e1a0c002 	mov	ip, r2
    8ee8:	e351000e 	cmp	r1, #14, 0
    8eec:	979ff101 	ldrls	pc, [pc, r1, lsl #2]
    8ef0:	ea0000a7 	b	9194 <emit.constprop.0+0x2cc>
    8ef4:	00009060 	andeq	r9, r0, r0, rrx
    8ef8:	00009194 	muleq	r0, r4, r1
    8efc:	00009194 	muleq	r0, r4, r1
    8f00:	00009194 	muleq	r0, r4, r1
    8f04:	00009194 	muleq	r0, r4, r1
    8f08:	00009194 	muleq	r0, r4, r1
    8f0c:	0000913c 	andeq	r9, r0, ip, lsr r1
    8f10:	00009194 	muleq	r0, r4, r1
    8f14:	000090dc 	ldrdeq	r9, [r0], -ip
    8f18:	00009194 	muleq	r0, r4, r1
    8f1c:	00009194 	muleq	r0, r4, r1
    8f20:	00009194 	muleq	r0, r4, r1
    8f24:	00009194 	muleq	r0, r4, r1
    8f28:	00009194 	muleq	r0, r4, r1
    8f2c:	00008f34 	andeq	r8, r0, r4, lsr pc
    8f30:	e3a0307f 	mov	r3, #127, 0	; 0x7f
    8f34:	e28d2008 	add	r2, sp, #8, 0
    8f38:	e1a04002 	mov	r4, r2
    8f3c:	e59f1288 	ldr	r1, [pc, #648]	; 91cc <emit.constprop.0+0x304>
    8f40:	e20ce00f 	and	lr, ip, #15, 0
    8f44:	e7d1e00e 	ldrb	lr, [r1, lr]
    8f48:	e35c000f 	cmp	ip, #15, 0
    8f4c:	e4c4e001 	strb	lr, [r4], #1
    8f50:	e1a0c22c 	lsr	ip, ip, #4
    8f54:	8afffff9 	bhi	8f40 <emit.constprop.0+0x78>
    8f58:	e3a0c078 	mov	ip, #120, 0	; 0x78
    8f5c:	e1a0e004 	mov	lr, r4
    8f60:	e3a01030 	mov	r1, #48, 0	; 0x30
    8f64:	e4cec002 	strb	ip, [lr], #2
    8f68:	e5c41001 	strb	r1, [r4, #1]
    8f6c:	e04e1002 	sub	r1, lr, r2
    8f70:	e1510003 	cmp	r1, r3
    8f74:	aa000083 	bge	9188 <emit.constprop.0+0x2c0>
    8f78:	e1510003 	cmp	r1, r3
    8f7c:	a3a0c001 	movge	ip, #1, 0
    8f80:	b3a0c000 	movlt	ip, #0, 0
    8f84:	e2434001 	sub	r4, r3, #1, 0
    8f88:	e0444001 	sub	r4, r4, r1
    8f8c:	b0436001 	sublt	r6, r3, r1
    8f90:	a3a06001 	movge	r6, #1, 0
    8f94:	e3540002 	cmp	r4, #2, 0
    8f98:	938cc001 	orrls	ip, ip, #1, 0
    8f9c:	e35c0000 	cmp	ip, #0, 0
    8fa0:	1a000075 	bne	917c <emit.constprop.0+0x2b4>
    8fa4:	e1a0c00e 	mov	ip, lr
    8fa8:	e3c65003 	bic	r5, r6, #3, 0
    8fac:	e59f721c 	ldr	r7, [pc, #540]	; 91d0 <emit.constprop.0+0x308>
    8fb0:	e085500e 	add	r5, r5, lr
    8fb4:	e48c7004 	str	r7, [ip], #4
    8fb8:	e15c0005 	cmp	ip, r5
    8fbc:	1afffffc 	bne	8fb4 <emit.constprop.0+0xec>
    8fc0:	e3c6c003 	bic	ip, r6, #3, 0
    8fc4:	e156000c 	cmp	r6, ip
    8fc8:	e08e500c 	add	r5, lr, ip
    8fcc:	e08cc001 	add	ip, ip, r1
    8fd0:	0a000008 	beq	8ff8 <emit.constprop.0+0x130>
    8fd4:	e3a07020 	mov	r7, #32, 0
    8fd8:	e28c8001 	add	r8, ip, #1, 0
    8fdc:	e1580003 	cmp	r8, r3
    8fe0:	e5c57000 	strb	r7, [r5]
    8fe4:	aa000003 	bge	8ff8 <emit.constprop.0+0x130>
    8fe8:	e28cc002 	add	ip, ip, #2, 0
    8fec:	e15c0003 	cmp	ip, r3
    8ff0:	e5c57001 	strb	r7, [r5, #1]
    8ff4:	b5c57002 	strblt	r7, [r5, #2]
    8ff8:	e1510003 	cmp	r1, r3
    8ffc:	a3a04000 	movge	r4, #0, 0
    9000:	e08e6006 	add	r6, lr, r6
    9004:	e0461002 	sub	r1, r6, r2
    9008:	e08ee004 	add	lr, lr, r4
    900c:	e3a03000 	mov	r3, #0, 0
    9010:	e351007f 	cmp	r1, #127, 0	; 0x7f
    9014:	c241407f 	subgt	r4, r1, #127, 0	; 0x7f
    9018:	c0822004 	addgt	r2, r2, r4
    901c:	e152000e 	cmp	r2, lr
    9020:	e5c63000 	strb	r3, [r6]
    9024:	8a00004f 	bhi	9168 <emit.constprop.0+0x2a0>
    9028:	e28ee001 	add	lr, lr, #1, 0
    902c:	e1a0300e 	mov	r3, lr
    9030:	e240c001 	sub	ip, r0, #1, 0
    9034:	e5734001 	ldrb	r4, [r3, #-1]!
    9038:	e1530002 	cmp	r3, r2
    903c:	e5ec4001 	strb	r4, [ip, #1]!
    9040:	1afffffb 	bne	9034 <emit.constprop.0+0x16c>
    9044:	e04ee003 	sub	lr, lr, r3
    9048:	e3a03000 	mov	r3, #0, 0
    904c:	e080e00e 	add	lr, r0, lr
    9050:	e5ce3000 	strb	r3, [lr]
    9054:	e28dd048 	add	sp, sp, #72, 0	; 0x48
    9058:	e8bd81f0 	pop	{r4, r5, r6, r7, r8, pc}
    905c:	e3a0307f 	mov	r3, #127, 0	; 0x7f
    9060:	e28d2008 	add	r2, sp, #8, 0
    9064:	e1a0e002 	mov	lr, r2
    9068:	e59f1164 	ldr	r1, [pc, #356]	; 91d4 <emit.constprop.0+0x30c>
    906c:	e20c4001 	and	r4, ip, #1, 0
    9070:	e7d14004 	ldrb	r4, [r1, r4]
    9074:	e35c0001 	cmp	ip, #1, 0
    9078:	e4ce4001 	strb	r4, [lr], #1
    907c:	e1a0c0ac 	lsr	ip, ip, #1
    9080:	8afffff9 	bhi	906c <emit.constprop.0+0x1a4>
    9084:	eaffffb8 	b	8f6c <emit.constprop.0+0xa4>
    9088:	e24c3002 	sub	r3, ip, #2, 0
    908c:	e1a0c002 	mov	ip, r2
    9090:	e353000e 	cmp	r3, #14, 0
    9094:	979ff103 	ldrls	pc, [pc, r3, lsl #2]
    9098:	ea00003d 	b	9194 <emit.constprop.0+0x2cc>
    909c:	0000905c 	andeq	r9, r0, ip, asr r0
    90a0:	00009194 	muleq	r0, r4, r1
    90a4:	00009194 	muleq	r0, r4, r1
    90a8:	00009194 	muleq	r0, r4, r1
    90ac:	00009194 	muleq	r0, r4, r1
    90b0:	00009194 	muleq	r0, r4, r1
    90b4:	000091b4 			; <UNDEFINED> instruction: 0x000091b4
    90b8:	00009194 	muleq	r0, r4, r1
    90bc:	000090d8 	ldrdeq	r9, [r0], -r8
    90c0:	00009194 	muleq	r0, r4, r1
    90c4:	00009194 	muleq	r0, r4, r1
    90c8:	00009194 	muleq	r0, r4, r1
    90cc:	00009194 	muleq	r0, r4, r1
    90d0:	00009194 	muleq	r0, r4, r1
    90d4:	00008f30 	andeq	r8, r0, r0, lsr pc
    90d8:	e3a0307f 	mov	r3, #127, 0	; 0x7f
    90dc:	e59d1060 	ldr	r1, [sp, #96]	; 0x60
    90e0:	e59f70f0 	ldr	r7, [pc, #240]	; 91d8 <emit.constprop.0+0x310>
    90e4:	e0118fa2 	ands	r8, r1, r2, lsr #31
    90e8:	1262c000 	rsbne	ip, r2, #0, 0
    90ec:	e28d2008 	add	r2, sp, #8, 0
    90f0:	13a08001 	movne	r8, #1, 0
    90f4:	e1a0e002 	mov	lr, r2
    90f8:	e59f60dc 	ldr	r6, [pc, #220]	; 91dc <emit.constprop.0+0x314>
    90fc:	e1a0500c 	mov	r5, ip
    9100:	e0814c96 	umull	r4, r1, r6, ip
    9104:	e1a011a1 	lsr	r1, r1, #3
    9108:	e0814101 	add	r4, r1, r1, lsl #2
    910c:	e04cc084 	sub	ip, ip, r4, lsl #1
    9110:	e7d7400c 	ldrb	r4, [r7, ip]
    9114:	e3550009 	cmp	r5, #9, 0
    9118:	e1a0c001 	mov	ip, r1
    911c:	e1a0100e 	mov	r1, lr
    9120:	e4ce4001 	strb	r4, [lr], #1
    9124:	8afffff4 	bhi	90fc <emit.constprop.0+0x234>
    9128:	e3580000 	cmp	r8, #0, 0
    912c:	13a0c02d 	movne	ip, #45, 0	; 0x2d
    9130:	15cec000 	strbne	ip, [lr]
    9134:	1281e002 	addne	lr, r1, #2, 0
    9138:	eaffff8b 	b	8f6c <emit.constprop.0+0xa4>
    913c:	e3530001 	cmp	r3, #1, 0
    9140:	e5cd2008 	strb	r2, [sp, #8]
    9144:	c3a01001 	movgt	r1, #1, 0
    9148:	c28de009 	addgt	lr, sp, #9, 0
    914c:	c28d2008 	addgt	r2, sp, #8, 0
    9150:	caffff88 	bgt	8f78 <emit.constprop.0+0xb0>
    9154:	e3a03000 	mov	r3, #0, 0
    9158:	e28de008 	add	lr, sp, #8, 0
    915c:	e1a0200e 	mov	r2, lr
    9160:	e5cd3009 	strb	r3, [sp, #9]
    9164:	eaffffaf 	b	9028 <emit.constprop.0+0x160>
    9168:	e1a0e000 	mov	lr, r0
    916c:	e3a03000 	mov	r3, #0, 0
    9170:	e5ce3000 	strb	r3, [lr]
    9174:	e28dd048 	add	sp, sp, #72, 0	; 0x48
    9178:	e8bd81f0 	pop	{r4, r5, r6, r7, r8, pc}
    917c:	e1a0c001 	mov	ip, r1
    9180:	e1a0500e 	mov	r5, lr
    9184:	eaffff92 	b	8fd4 <emit.constprop.0+0x10c>
    9188:	e1a0600e 	mov	r6, lr
    918c:	e24ee001 	sub	lr, lr, #1, 0
    9190:	eaffff9d 	b	900c <emit.constprop.0+0x144>
    9194:	e59f2044 	ldr	r2, [pc, #68]	; 91e0 <emit.constprop.0+0x318>
    9198:	e3a03079 	mov	r3, #121, 0	; 0x79
    919c:	e59f1040 	ldr	r1, [pc, #64]	; 91e4 <emit.constprop.0+0x31c>
    91a0:	e58d2000 	str	r2, [sp]
    91a4:	e59f003c 	ldr	r0, [pc, #60]	; 91e8 <emit.constprop.0+0x320>
    91a8:	e59f203c 	ldr	r2, [pc, #60]	; 91ec <emit.constprop.0+0x324>
    91ac:	ebfffefb 	bl	8da0 <printk>
    91b0:	eb0001b1 	bl	987c <clean_reboot>
    91b4:	e5cd2008 	strb	r2, [sp, #8]
    91b8:	e3a0307f 	mov	r3, #127, 0	; 0x7f
    91bc:	e3a01001 	mov	r1, #1, 0
    91c0:	e28de009 	add	lr, sp, #9, 0
    91c4:	e28d2008 	add	r2, sp, #8, 0
    91c8:	eaffff6a 	b	8f78 <emit.constprop.0+0xb0>
    91cc:	0000a90c 	andeq	sl, r0, ip, lsl #18
    91d0:	20202020 	eorcs	r2, r0, r0, lsr #32
    91d4:	0000a920 	andeq	sl, r0, r0, lsr #18
    91d8:	0000a924 	andeq	sl, r0, r4, lsr #18
    91dc:	cccccccd 	stclgt	12, cr12, [ip], {205}	; 0xcd
    91e0:	0000a720 	andeq	sl, r0, r0, lsr #14
    91e4:	0000a8f8 	strdeq	sl, [r0], -r8
    91e8:	0000a4d4 	ldrdeq	sl, [r0], -r4
    91ec:	0000aa38 	andeq	sl, r0, r8, lsr sl

000091f0 <rpi_set_output>:
    91f0:	e3500000 	cmp	r0, #0, 0
    91f4:	0a000005 	beq	9210 <rpi_set_output+0x20>
    91f8:	e59f3038 	ldr	r3, [pc, #56]	; 9238 <rpi_set_output+0x48>
    91fc:	e3510000 	cmp	r1, #0, 0
    9200:	e5830000 	str	r0, [r3]
    9204:	159f3030 	ldrne	r3, [pc, #48]	; 923c <rpi_set_output+0x4c>
    9208:	15831000 	strne	r1, [r3]
    920c:	e12fff1e 	bx	lr
    9210:	e52de004 	push	{lr}		; (str lr, [sp, #-4]!)
    9214:	e59f2024 	ldr	r2, [pc, #36]	; 9240 <rpi_set_output+0x50>
    9218:	e24dd00c 	sub	sp, sp, #12, 0
    921c:	e3a03020 	mov	r3, #32, 0
    9220:	e59f101c 	ldr	r1, [pc, #28]	; 9244 <rpi_set_output+0x54>
    9224:	e58d2000 	str	r2, [sp]
    9228:	e59f0018 	ldr	r0, [pc, #24]	; 9248 <rpi_set_output+0x58>
    922c:	e59f2018 	ldr	r2, [pc, #24]	; 924c <rpi_set_output+0x5c>
    9230:	ebfffeda 	bl	8da0 <printk>
    9234:	eb000190 	bl	987c <clean_reboot>
    9238:	0000ac78 	andeq	sl, r0, r8, ror ip
    923c:	0000ac64 	andeq	sl, r0, r4, ror #24
    9240:	0000a930 	andeq	sl, r0, r0, lsr r9
    9244:	0000a8f8 	strdeq	sl, [r0], -r8
    9248:	0000a4d4 	ldrdeq	sl, [r0], -r4
    924c:	0000aa40 	andeq	sl, r0, r0, asr #20

00009250 <va_printk>:
    9250:	e92d4ff0 	push	{r4, r5, r6, r7, r8, r9, sl, fp, lr}
    9254:	e1a0b000 	mov	fp, r0
    9258:	e3a00000 	mov	r0, #0, 0
    925c:	e5cb0000 	strb	r0, [fp]
    9260:	e5d2c000 	ldrb	ip, [r2]
    9264:	e2417001 	sub	r7, r1, #1, 0
    9268:	e08b7007 	add	r7, fp, r7
    926c:	e15c0000 	cmp	ip, r0
    9270:	115b0007 	cmpne	fp, r7
    9274:	e24ddf47 	sub	sp, sp, #284	; 0x11c
    9278:	e58d2010 	str	r2, [sp, #16]
    927c:	2a000159 	bcs	97e8 <va_printk+0x598>
    9280:	e1a06002 	mov	r6, r2
    9284:	e1a08003 	mov	r8, r3
    9288:	e1a0400b 	mov	r4, fp
    928c:	e59fa5a4 	ldr	sl, [pc, #1444]	; 9838 <va_printk+0x5e8>
    9290:	e58db00c 	str	fp, [sp, #12]
    9294:	ea000005 	b	92b0 <va_printk+0x60>
    9298:	e4c4c001 	strb	ip, [r4], #1
    929c:	e2866001 	add	r6, r6, #1, 0
    92a0:	e5d6c000 	ldrb	ip, [r6]
    92a4:	e35c0000 	cmp	ip, #0, 0
    92a8:	11570004 	cmpne	r7, r4
    92ac:	9a00002f 	bls	9370 <va_printk+0x120>
    92b0:	e35c0025 	cmp	ip, #37, 0	; 0x25
    92b4:	1afffff7 	bne	9298 <va_printk+0x48>
    92b8:	e5d62001 	ldrb	r2, [r6, #1]
    92bc:	e3520025 	cmp	r2, #37, 0	; 0x25
    92c0:	04c4c001 	strbeq	ip, [r4], #1
    92c4:	02866002 	addeq	r6, r6, #2, 0
    92c8:	0afffff4 	beq	92a0 <va_printk+0x50>
    92cc:	e2423030 	sub	r3, r2, #48, 0	; 0x30
    92d0:	e3530009 	cmp	r3, #9, 0
    92d4:	e3a05000 	mov	r5, #0, 0
    92d8:	e2866001 	add	r6, r6, #1, 0
    92dc:	8a000008 	bhi	9304 <va_printk+0xb4>
    92e0:	e0855105 	add	r5, r5, r5, lsl #2
    92e4:	e0825085 	add	r5, r2, r5, lsl #1
    92e8:	e5f62001 	ldrb	r2, [r6, #1]!
    92ec:	e2455030 	sub	r5, r5, #48, 0	; 0x30
    92f0:	e2423030 	sub	r3, r2, #48, 0	; 0x30
    92f4:	e3530009 	cmp	r3, #9, 0
    92f8:	9afffff8 	bls	92e0 <va_printk+0x90>
    92fc:	e355001f 	cmp	r5, #31, 0
    9300:	8a00013a 	bhi	97f0 <va_printk+0x5a0>
    9304:	e2423062 	sub	r3, r2, #98, 0	; 0x62
    9308:	e3530016 	cmp	r3, #22, 0
    930c:	979ff103 	ldrls	pc, [pc, r3, lsl #2]
    9310:	ea00011b 	b	9784 <va_printk+0x534>
    9314:	000095c8 	andeq	r9, r0, r8, asr #11
    9318:	000094c4 	andeq	r9, r0, r4, asr #9
    931c:	000094bc 			; <UNDEFINED> instruction: 0x000094bc
    9320:	00009784 	andeq	r9, r0, r4, lsl #15
    9324:	000097c0 	andeq	r9, r0, r0, asr #15
    9328:	00009784 	andeq	r9, r0, r4, lsl #15
    932c:	00009784 	andeq	r9, r0, r4, lsl #15
    9330:	00009784 	andeq	r9, r0, r4, lsl #15
    9334:	00009784 	andeq	r9, r0, r4, lsl #15
    9338:	00009784 	andeq	r9, r0, r4, lsl #15
    933c:	000093cc 	andeq	r9, r0, ip, asr #7
    9340:	00009784 	andeq	r9, r0, r4, lsl #15
    9344:	00009784 	andeq	r9, r0, r4, lsl #15
    9348:	00009784 	andeq	r9, r0, r4, lsl #15
    934c:	00009388 	andeq	r9, r0, r8, lsl #7
    9350:	00009784 	andeq	r9, r0, r4, lsl #15
    9354:	00009784 	andeq	r9, r0, r4, lsl #15
    9358:	000096c0 	andeq	r9, r0, r0, asr #13
    935c:	00009784 	andeq	r9, r0, r4, lsl #15
    9360:	00009498 	muleq	r0, r8, r4
    9364:	00009784 	andeq	r9, r0, r4, lsl #15
    9368:	00009784 	andeq	r9, r0, r4, lsl #15
    936c:	00009388 	andeq	r9, r0, r8, lsl #7
    9370:	e59db00c 	ldr	fp, [sp, #12]
    9374:	e3a03000 	mov	r3, #0, 0
    9378:	e4c43001 	strb	r3, [r4], #1
    937c:	e044000b 	sub	r0, r4, fp
    9380:	e28ddf47 	add	sp, sp, #284	; 0x11c
    9384:	e8bd8ff0 	pop	{r4, r5, r6, r7, r8, r9, sl, fp, pc}
    9388:	e3a01000 	mov	r1, #0, 0
    938c:	e1a03005 	mov	r3, r5
    9390:	e4982004 	ldr	r2, [r8], #4
    9394:	e3a00010 	mov	r0, #16, 0
    9398:	e58d1000 	str	r1, [sp]
    939c:	e28d1018 	add	r1, sp, #24, 0
    93a0:	ebfffec8 	bl	8ec8 <emit.constprop.0>
    93a4:	e1a05000 	mov	r5, r0
    93a8:	e2866001 	add	r6, r6, #1, 0
    93ac:	e2455001 	sub	r5, r5, #1, 0
    93b0:	e5f53001 	ldrb	r3, [r5, #1]!
    93b4:	e3530000 	cmp	r3, #0, 0
    93b8:	0affffb8 	beq	92a0 <va_printk+0x50>
    93bc:	e4c43001 	strb	r3, [r4], #1
    93c0:	e1570004 	cmp	r7, r4
    93c4:	8afffff9 	bhi	93b0 <va_printk+0x160>
    93c8:	eaffffb4 	b	92a0 <va_printk+0x50>
    93cc:	e3a02003 	mov	r2, #3, 0
    93d0:	e1a00006 	mov	r0, r6
    93d4:	e59f1460 	ldr	r1, [pc, #1120]	; 983c <va_printk+0x5ec>
    93d8:	eb0003da 	bl	a348 <strncmp>
    93dc:	e3500000 	cmp	r0, #0, 0
    93e0:	0a000005 	beq	93fc <va_printk+0x1ac>
    93e4:	e3a02003 	mov	r2, #3, 0
    93e8:	e1a00006 	mov	r0, r6
    93ec:	e59f144c 	ldr	r1, [pc, #1100]	; 9840 <va_printk+0x5f0>
    93f0:	eb0003d4 	bl	a348 <strncmp>
    93f4:	e3500000 	cmp	r0, #0, 0
    93f8:	1a00010b 	bne	982c <va_printk+0x5dc>
    93fc:	e2888007 	add	r8, r8, #7, 0
    9400:	e3c88007 	bic	r8, r8, #7, 0
    9404:	e598b004 	ldr	fp, [r8, #4]
    9408:	e4989008 	ldr	r9, [r8], #8
    940c:	e1a0100b 	mov	r1, fp
    9410:	e59f042c 	ldr	r0, [pc, #1068]	; 9844 <va_printk+0x5f4>
    9414:	ebfffe61 	bl	8da0 <printk>
    9418:	e1a01009 	mov	r1, r9
    941c:	e59f0424 	ldr	r0, [pc, #1060]	; 9848 <va_printk+0x5f8>
    9420:	ebfffe5e 	bl	8da0 <printk>
    9424:	e3a02003 	mov	r2, #3, 0
    9428:	e1a00006 	mov	r0, r6
    942c:	e59f1408 	ldr	r1, [pc, #1032]	; 983c <va_printk+0x5ec>
    9430:	eb0003c4 	bl	a348 <strncmp>
    9434:	e2503000 	subs	r3, r0, #0, 0
    9438:	e1a02003 	mov	r2, r3
    943c:	e2863002 	add	r3, r6, #2, 0
    9440:	e58d3014 	str	r3, [sp, #20]
    9444:	1a00009f 	bne	96c8 <va_printk+0x478>
    9448:	e1a06002 	mov	r6, r2
    944c:	e1a03005 	mov	r3, r5
    9450:	e58d2000 	str	r2, [sp]
    9454:	e28d1018 	add	r1, sp, #24, 0
    9458:	e1a0200b 	mov	r2, fp
    945c:	e3a00010 	mov	r0, #16, 0
    9460:	ebfffe98 	bl	8ec8 <emit.constprop.0>
    9464:	e1a0c000 	mov	ip, r0
    9468:	e1a03005 	mov	r3, r5
    946c:	e58d6000 	str	r6, [sp]
    9470:	e28d1098 	add	r1, sp, #152, 0	; 0x98
    9474:	e1a02009 	mov	r2, r9
    9478:	e3a00010 	mov	r0, #16, 0
    947c:	e1a0500c 	mov	r5, ip
    9480:	ebfffe90 	bl	8ec8 <emit.constprop.0>
    9484:	e28d0018 	add	r0, sp, #24, 0
    9488:	e28d109a 	add	r1, sp, #154, 0	; 0x9a
    948c:	e59d6014 	ldr	r6, [sp, #20]
    9490:	eb00038a 	bl	a2c0 <strcat>
    9494:	eaffffc3 	b	93a8 <va_printk+0x158>
    9498:	e3a01000 	mov	r1, #0, 0
    949c:	e1a03005 	mov	r3, r5
    94a0:	e4982004 	ldr	r2, [r8], #4
    94a4:	e3a0000a 	mov	r0, #10, 0
    94a8:	e58d1000 	str	r1, [sp]
    94ac:	e28d1018 	add	r1, sp, #24, 0
    94b0:	ebfffe84 	bl	8ec8 <emit.constprop.0>
    94b4:	e1a05000 	mov	r5, r0
    94b8:	eaffffba 	b	93a8 <va_printk+0x158>
    94bc:	e3a01001 	mov	r1, #1, 0
    94c0:	eafffff5 	b	949c <va_printk+0x24c>
    94c4:	e4983004 	ldr	r3, [r8], #4
    94c8:	e3550001 	cmp	r5, #1, 0
    94cc:	e5cd3098 	strb	r3, [sp, #152]	; 0x98
    94d0:	9a0000a6 	bls	9770 <va_printk+0x520>
    94d4:	e2453002 	sub	r3, r5, #2, 0
    94d8:	e3530002 	cmp	r3, #2, 0
    94dc:	e2451001 	sub	r1, r5, #1, 0
    94e0:	9a0000bc 	bls	97d8 <va_printk+0x588>
    94e4:	e59f0360 	ldr	r0, [pc, #864]	; 984c <va_printk+0x5fc>
    94e8:	e1a02121 	lsr	r2, r1, #2
    94ec:	e3520001 	cmp	r2, #1, 0
    94f0:	e58d0099 	str	r0, [sp, #153]	; 0x99
    94f4:	0a00000e 	beq	9534 <va_printk+0x2e4>
    94f8:	e3520002 	cmp	r2, #2, 0
    94fc:	e58d009d 	str	r0, [sp, #157]	; 0x9d
    9500:	0a00000b 	beq	9534 <va_printk+0x2e4>
    9504:	e3520003 	cmp	r2, #3, 0
    9508:	e58d00a1 	str	r0, [sp, #161]	; 0xa1
    950c:	0a000008 	beq	9534 <va_printk+0x2e4>
    9510:	e3520004 	cmp	r2, #4, 0
    9514:	e58d00a5 	str	r0, [sp, #165]	; 0xa5
    9518:	0a000005 	beq	9534 <va_printk+0x2e4>
    951c:	e3520005 	cmp	r2, #5, 0
    9520:	e58d00a9 	str	r0, [sp, #169]	; 0xa9
    9524:	0a000002 	beq	9534 <va_printk+0x2e4>
    9528:	e3520007 	cmp	r2, #7, 0
    952c:	e58d00ad 	str	r0, [sp, #173]	; 0xad
    9530:	058d00b1 	streq	r0, [sp, #177]	; 0xb1
    9534:	e3c12003 	bic	r2, r1, #3, 0
    9538:	e1510002 	cmp	r1, r2
    953c:	e28dc099 	add	ip, sp, #153, 0	; 0x99
    9540:	e08c0002 	add	r0, ip, r2
    9544:	e2822001 	add	r2, r2, #1, 0
    9548:	0a000008 	beq	9570 <va_printk+0x320>
    954c:	e3a0e020 	mov	lr, #32, 0
    9550:	e2829001 	add	r9, r2, #1, 0
    9554:	e1550009 	cmp	r5, r9
    9558:	e5c0e000 	strb	lr, [r0]
    955c:	da000003 	ble	9570 <va_printk+0x320>
    9560:	e2822002 	add	r2, r2, #2, 0
    9564:	e1550002 	cmp	r5, r2
    9568:	e5c0e001 	strb	lr, [r0, #1]
    956c:	c5c0e002 	strbgt	lr, [r0, #2]
    9570:	e3a0e000 	mov	lr, #0, 0
    9574:	e28d0098 	add	r0, sp, #152, 0	; 0x98
    9578:	e08c2001 	add	r2, ip, r1
    957c:	e0422000 	sub	r2, r2, r0
    9580:	e352007f 	cmp	r2, #127, 0	; 0x7f
    9584:	c242207f 	subgt	r2, r2, #127, 0	; 0x7f
    9588:	e08c3003 	add	r3, ip, r3
    958c:	c0800002 	addgt	r0, r0, r2
    9590:	e1530000 	cmp	r3, r0
    9594:	e7cce001 	strb	lr, [ip, r1]
    9598:	3a00006c 	bcc	9750 <va_printk+0x500>
    959c:	e283c001 	add	ip, r3, #1, 0
    95a0:	e1a0300c 	mov	r3, ip
    95a4:	e28d5018 	add	r5, sp, #24, 0
    95a8:	e2452001 	sub	r2, r5, #1, 0
    95ac:	e5731001 	ldrb	r1, [r3, #-1]!
    95b0:	e1500003 	cmp	r0, r3
    95b4:	e5e21001 	strb	r1, [r2, #1]!
    95b8:	1afffffb 	bne	95ac <va_printk+0x35c>
    95bc:	e04c3000 	sub	r3, ip, r0
    95c0:	e0853003 	add	r3, r5, r3
    95c4:	ea00003a 	b	96b4 <va_printk+0x464>
    95c8:	e28d1098 	add	r1, sp, #152, 0	; 0x98
    95cc:	e1a03001 	mov	r3, r1
    95d0:	e4980004 	ldr	r0, [r8], #4
    95d4:	e200c001 	and	ip, r0, #1, 0
    95d8:	e7dac00c 	ldrb	ip, [sl, ip]
    95dc:	e3500001 	cmp	r0, #1, 0
    95e0:	e1a02003 	mov	r2, r3
    95e4:	e1a000a0 	lsr	r0, r0, #1
    95e8:	e4c3c001 	strb	ip, [r3], #1
    95ec:	8afffff8 	bhi	95d4 <va_printk+0x384>
    95f0:	e0430001 	sub	r0, r3, r1
    95f4:	e1550000 	cmp	r5, r0
    95f8:	da000057 	ble	975c <va_printk+0x50c>
    95fc:	e045c000 	sub	ip, r5, r0
    9600:	e24ce001 	sub	lr, ip, #1, 0
    9604:	e35e0002 	cmp	lr, #2, 0
    9608:	e1a0e003 	mov	lr, r3
    960c:	9a00000a 	bls	963c <va_printk+0x3ec>
    9610:	e3cc9003 	bic	r9, ip, #3, 0
    9614:	e0899003 	add	r9, r9, r3
    9618:	e59fb22c 	ldr	fp, [pc, #556]	; 984c <va_printk+0x5fc>
    961c:	e48eb004 	str	fp, [lr], #4
    9620:	e15e0009 	cmp	lr, r9
    9624:	1afffffb 	bne	9618 <va_printk+0x3c8>
    9628:	e3cce003 	bic	lr, ip, #3, 0
    962c:	e15e000c 	cmp	lr, ip
    9630:	e080000e 	add	r0, r0, lr
    9634:	e083e00e 	add	lr, r3, lr
    9638:	0a000008 	beq	9660 <va_printk+0x410>
    963c:	e3a09020 	mov	r9, #32, 0
    9640:	e280b001 	add	fp, r0, #1, 0
    9644:	e155000b 	cmp	r5, fp
    9648:	e5ce9000 	strb	r9, [lr]
    964c:	da000003 	ble	9660 <va_printk+0x410>
    9650:	e2800002 	add	r0, r0, #2, 0
    9654:	e1550000 	cmp	r5, r0
    9658:	e5ce9001 	strb	r9, [lr, #1]
    965c:	c5ce9002 	strbgt	r9, [lr, #2]
    9660:	e3a0e000 	mov	lr, #0, 0
    9664:	e083000c 	add	r0, r3, ip
    9668:	e0400001 	sub	r0, r0, r1
    966c:	e350007f 	cmp	r0, #127, 0	; 0x7f
    9670:	e082200c 	add	r2, r2, ip
    9674:	e7c3e00c 	strb	lr, [r3, ip]
    9678:	da000001 	ble	9684 <va_printk+0x434>
    967c:	e240007f 	sub	r0, r0, #127, 0	; 0x7f
    9680:	e0811000 	add	r1, r1, r0
    9684:	e1510002 	cmp	r1, r2
    9688:	8a000030 	bhi	9750 <va_printk+0x500>
    968c:	e2822001 	add	r2, r2, #1, 0
    9690:	e1a03002 	mov	r3, r2
    9694:	e28d5018 	add	r5, sp, #24, 0
    9698:	e245c001 	sub	ip, r5, #1, 0
    969c:	e5730001 	ldrb	r0, [r3, #-1]!
    96a0:	e1530001 	cmp	r3, r1
    96a4:	e5ec0001 	strb	r0, [ip, #1]!
    96a8:	1afffffb 	bne	969c <va_printk+0x44c>
    96ac:	e0423003 	sub	r3, r2, r3
    96b0:	e0853003 	add	r3, r5, r3
    96b4:	e3a02000 	mov	r2, #0, 0
    96b8:	e5c32000 	strb	r2, [r3]
    96bc:	eaffff39 	b	93a8 <va_printk+0x158>
    96c0:	e4985004 	ldr	r5, [r8], #4
    96c4:	eaffff37 	b	93a8 <va_printk+0x158>
    96c8:	e3a02003 	mov	r2, #3, 0
    96cc:	e1a00006 	mov	r0, r6
    96d0:	e59f1168 	ldr	r1, [pc, #360]	; 9840 <va_printk+0x5f0>
    96d4:	eb00031b 	bl	a348 <strncmp>
    96d8:	e2503000 	subs	r3, r0, #0, 0
    96dc:	1a00004b 	bne	9810 <va_printk+0x5c0>
    96e0:	e1a06003 	mov	r6, r3
    96e4:	e1a0200b 	mov	r2, fp
    96e8:	e58d3000 	str	r3, [sp]
    96ec:	e28d1018 	add	r1, sp, #24, 0
    96f0:	e1a03005 	mov	r3, r5
    96f4:	e3a0000a 	mov	r0, #10, 0
    96f8:	ebfffdf2 	bl	8ec8 <emit.constprop.0>
    96fc:	e1a0c000 	mov	ip, r0
    9700:	e1a03005 	mov	r3, r5
    9704:	e1a02009 	mov	r2, r9
    9708:	e28d1098 	add	r1, sp, #152, 0	; 0x98
    970c:	e3a0000a 	mov	r0, #10, 0
    9710:	e58d6000 	str	r6, [sp]
    9714:	e1a0500c 	mov	r5, ip
    9718:	ebfffdea 	bl	8ec8 <emit.constprop.0>
    971c:	e59f112c 	ldr	r1, [pc, #300]	; 9850 <va_printk+0x600>
    9720:	e28d0018 	add	r0, sp, #24, 0
    9724:	eb0002f0 	bl	a2ec <strcmp>
    9728:	e3500000 	cmp	r0, #0, 0
    972c:	e28d1098 	add	r1, sp, #152, 0	; 0x98
    9730:	e28d0018 	add	r0, sp, #24, 0
    9734:	1a000002 	bne	9744 <va_printk+0x4f4>
    9738:	eb0002fc 	bl	a330 <strcpy>
    973c:	e59d6014 	ldr	r6, [sp, #20]
    9740:	eaffff18 	b	93a8 <va_printk+0x158>
    9744:	eb0002dd 	bl	a2c0 <strcat>
    9748:	e59d6014 	ldr	r6, [sp, #20]
    974c:	eaffff15 	b	93a8 <va_printk+0x158>
    9750:	e28d5018 	add	r5, sp, #24, 0
    9754:	e1a03005 	mov	r3, r5
    9758:	eaffffd5 	b	96b4 <va_printk+0x464>
    975c:	e3a0c000 	mov	ip, #0, 0
    9760:	e350007f 	cmp	r0, #127, 0	; 0x7f
    9764:	e5c3c000 	strb	ip, [r3]
    9768:	caffffc3 	bgt	967c <va_printk+0x42c>
    976c:	eaffffc6 	b	968c <va_printk+0x43c>
    9770:	e3a02000 	mov	r2, #0, 0
    9774:	e28d3098 	add	r3, sp, #152, 0	; 0x98
    9778:	e1a00003 	mov	r0, r3
    977c:	e5cd2099 	strb	r2, [sp, #153]	; 0x99
    9780:	eaffff85 	b	959c <va_printk+0x34c>
    9784:	e3a03000 	mov	r3, #0, 0
    9788:	e1a01002 	mov	r1, r2
    978c:	e5c63001 	strb	r3, [r6, #1]
    9790:	e59f00bc 	ldr	r0, [pc, #188]	; 9854 <va_printk+0x604>
    9794:	ebfffd81 	bl	8da0 <printk>
    9798:	e59f30b8 	ldr	r3, [pc, #184]	; 9858 <va_printk+0x608>
    979c:	e59d0010 	ldr	r0, [sp, #16]
    97a0:	e5933000 	ldr	r3, [r3]
    97a4:	e12fff33 	blx	r3
    97a8:	e3a030e2 	mov	r3, #226, 0	; 0xe2
    97ac:	e59f20a8 	ldr	r2, [pc, #168]	; 985c <va_printk+0x60c>
    97b0:	e59f10a8 	ldr	r1, [pc, #168]	; 9860 <va_printk+0x610>
    97b4:	e59f00a8 	ldr	r0, [pc, #168]	; 9864 <va_printk+0x614>
    97b8:	ebfffd78 	bl	8da0 <printk>
    97bc:	eb00002e 	bl	987c <clean_reboot>
    97c0:	e3a030be 	mov	r3, #190, 0	; 0xbe
    97c4:	e59f2090 	ldr	r2, [pc, #144]	; 985c <va_printk+0x60c>
    97c8:	e59f1090 	ldr	r1, [pc, #144]	; 9860 <va_printk+0x610>
    97cc:	e59f0094 	ldr	r0, [pc, #148]	; 9868 <va_printk+0x618>
    97d0:	ebfffd72 	bl	8da0 <printk>
    97d4:	eb000028 	bl	987c <clean_reboot>
    97d8:	e28dc099 	add	ip, sp, #153, 0	; 0x99
    97dc:	e1a0000c 	mov	r0, ip
    97e0:	e3a02001 	mov	r2, #1, 0
    97e4:	eaffff58 	b	954c <va_printk+0x2fc>
    97e8:	e1a0400b 	mov	r4, fp
    97ec:	eafffee0 	b	9374 <va_printk+0x124>
    97f0:	e3a03098 	mov	r3, #152, 0	; 0x98
    97f4:	e59f2070 	ldr	r2, [pc, #112]	; 986c <va_printk+0x61c>
    97f8:	e59f1060 	ldr	r1, [pc, #96]	; 9860 <va_printk+0x610>
    97fc:	e58d2000 	str	r2, [sp]
    9800:	e59f0068 	ldr	r0, [pc, #104]	; 9870 <va_printk+0x620>
    9804:	e59f2050 	ldr	r2, [pc, #80]	; 985c <va_printk+0x60c>
    9808:	ebfffd64 	bl	8da0 <printk>
    980c:	eb00001a 	bl	987c <clean_reboot>
    9810:	e3a030b6 	mov	r3, #182, 0	; 0xb6
    9814:	e59f2040 	ldr	r2, [pc, #64]	; 985c <va_printk+0x60c>
    9818:	e59f1040 	ldr	r1, [pc, #64]	; 9860 <va_printk+0x610>
    981c:	e59f0050 	ldr	r0, [pc, #80]	; 9874 <va_printk+0x624>
    9820:	e58d6000 	str	r6, [sp]
    9824:	ebfffd5d 	bl	8da0 <printk>
    9828:	eb000013 	bl	987c <clean_reboot>
    982c:	e3a0309f 	mov	r3, #159, 0	; 0x9f
    9830:	e59f2040 	ldr	r2, [pc, #64]	; 9878 <va_printk+0x628>
    9834:	eaffffef 	b	97f8 <va_printk+0x5a8>
    9838:	0000a920 	andeq	sl, r0, r0, lsr #18
    983c:	0000a944 	andeq	sl, r0, r4, asr #18
    9840:	0000a958 	andeq	sl, r0, r8, asr r9
    9844:	0000a948 	andeq	sl, r0, r8, asr #18
    9848:	0000a950 	andeq	sl, r0, r0, asr r9
    984c:	20202020 	eorcs	r2, r0, r0, lsr #32
    9850:	0000a720 	andeq	sl, r0, r0, lsr #14
    9854:	0000a9e8 	andeq	sl, r0, r8, ror #19
    9858:	0000ac64 	andeq	sl, r0, r4, ror #24
    985c:	0000aa50 	andeq	sl, r0, r0, asr sl
    9860:	0000a8f8 	strdeq	sl, [r0], -r8
    9864:	0000aa18 	andeq	sl, r0, r8, lsl sl
    9868:	0000a9c0 	andeq	sl, r0, r0, asr #19
    986c:	0000a938 	andeq	sl, r0, r8, lsr r9
    9870:	0000a4d4 	ldrdeq	sl, [r0], -r4
    9874:	0000a998 	muleq	r0, r8, r9
    9878:	0000a95c 	andeq	sl, r0, ip, asr r9

0000987c <clean_reboot>:
    987c:	e59f301c 	ldr	r3, [pc, #28]	; 98a0 <clean_reboot+0x24>
    9880:	e92d4010 	push	{r4, lr}
    9884:	e5933000 	ldr	r3, [r3]
    9888:	e59f0014 	ldr	r0, [pc, #20]	; 98a4 <clean_reboot+0x28>
    988c:	e12fff33 	blx	r3
    9890:	eb00011b 	bl	9d04 <uart_flush_tx>
    9894:	e3a0000a 	mov	r0, #10, 0
    9898:	eb000082 	bl	9aa8 <delay_ms>
    989c:	eb00004b 	bl	99d0 <rpi_reboot>
    98a0:	0000ac64 	andeq	sl, r0, r4, ror #24
    98a4:	0000aa5c 	andeq	sl, r0, ip, asr sl

000098a8 <_cstart>:
    98a8:	e92d4070 	push	{r4, r5, r6, lr}
    98ac:	eb00003b 	bl	99a0 <custom_loader>
    98b0:	e59f20e0 	ldr	r2, [pc, #224]	; 9998 <_cstart+0xf0>
    98b4:	e59fc0e0 	ldr	ip, [pc, #224]	; 999c <_cstart+0xf4>
    98b8:	e152000c 	cmp	r2, ip
    98bc:	2a00002e 	bcs	997c <_cstart+0xd4>
    98c0:	e24c1001 	sub	r1, ip, #1, 0
    98c4:	e0411002 	sub	r1, r1, r2
    98c8:	e3510017 	cmp	r1, #23, 0
    98cc:	e1a03122 	lsr	r3, r2, #2
    98d0:	e1a01121 	lsr	r1, r1, #2
    98d4:	e2811001 	add	r1, r1, #1, 0
    98d8:	e2033001 	and	r3, r3, #1, 0
    98dc:	9a00002b 	bls	9990 <_cstart+0xe8>
    98e0:	e3530000 	cmp	r3, #0, 0
    98e4:	11a00002 	movne	r0, r2
    98e8:	13a0e000 	movne	lr, #0, 0
    98ec:	e3a04000 	mov	r4, #0, 0
    98f0:	e3a05000 	mov	r5, #0, 0
    98f4:	e0411003 	sub	r1, r1, r3
    98f8:	01a00002 	moveq	r0, r2
    98fc:	e0823103 	add	r3, r2, r3, lsl #2
    9900:	e1a020a1 	lsr	r2, r1, #1
    9904:	1480e004 	strne	lr, [r0], #4
    9908:	e0832182 	add	r2, r3, r2, lsl #3
    990c:	e0c340f8 	strd	r4, [r3], #8
    9910:	e1520003 	cmp	r2, r3
    9914:	1afffffc 	bne	990c <_cstart+0x64>
    9918:	e3c13001 	bic	r3, r1, #1, 0
    991c:	e1510003 	cmp	r1, r3
    9920:	e0803103 	add	r3, r0, r3, lsl #2
    9924:	0a000014 	beq	997c <_cstart+0xd4>
    9928:	e1a01003 	mov	r1, r3
    992c:	e3a02000 	mov	r2, #0, 0
    9930:	e4812004 	str	r2, [r1], #4
    9934:	e151000c 	cmp	r1, ip
    9938:	2a00000f 	bcs	997c <_cstart+0xd4>
    993c:	e2831008 	add	r1, r3, #8, 0
    9940:	e151000c 	cmp	r1, ip
    9944:	e5832004 	str	r2, [r3, #4]
    9948:	2a00000b 	bcs	997c <_cstart+0xd4>
    994c:	e283100c 	add	r1, r3, #12, 0
    9950:	e151000c 	cmp	r1, ip
    9954:	e5832008 	str	r2, [r3, #8]
    9958:	2a000007 	bcs	997c <_cstart+0xd4>
    995c:	e2831010 	add	r1, r3, #16, 0
    9960:	e151000c 	cmp	r1, ip
    9964:	e583200c 	str	r2, [r3, #12]
    9968:	2a000003 	bcs	997c <_cstart+0xd4>
    996c:	e2831014 	add	r1, r3, #20, 0
    9970:	e151000c 	cmp	r1, ip
    9974:	e5832010 	str	r2, [r3, #16]
    9978:	35832014 	strcc	r2, [r3, #20]
    997c:	eb000082 	bl	9b8c <uart_init>
    9980:	e3a03001 	mov	r3, #1, 0
    9984:	ee0f3f1c 	mcr	15, 0, r3, cr15, cr12, {0}
    9988:	ebfff9aa 	bl	8038 <notmain>
    998c:	ebffffba 	bl	987c <clean_reboot>
    9990:	e1a03002 	mov	r3, r2
    9994:	eaffffe3 	b	9928 <_cstart+0x80>
    9998:	0000ac80 	andeq	sl, r0, r0, lsl #25
    999c:	0000b0a8 	andeq	fp, r0, r8, lsr #1

000099a0 <custom_loader>:
    99a0:	e12fff1e 	bx	lr

000099a4 <at_user_level>:
    99a4:	e10f0000 	mrs	r0, CPSR
    99a8:	e200001f 	and	r0, r0, #31, 0
    99ac:	e2400010 	sub	r0, r0, #16, 0
    99b0:	e16f0f10 	clz	r0, r0
    99b4:	e1a002a0 	lsr	r0, r0, #5
    99b8:	e12fff1e 	bx	lr

000099bc <set_user_level>:
    99bc:	e10f3000 	mrs	r3, CPSR
    99c0:	e3c3301f 	bic	r3, r3, #31, 0
    99c4:	e3833010 	orr	r3, r3, #16, 0
    99c8:	e129f003 	msr	CPSR_fc, r3
    99cc:	e12fff1e 	bx	lr

000099d0 <rpi_reboot>:
    99d0:	e92d4010 	push	{r4, lr}
    99d4:	e10f3000 	mrs	r3, CPSR
    99d8:	e203301f 	and	r3, r3, #31, 0
    99dc:	e3530010 	cmp	r3, #16, 0
    99e0:	1a000003 	bne	99f4 <rpi_reboot+0x24>
    99e4:	e10f3000 	mrs	r3, CPSR
    99e8:	e3c3301f 	bic	r3, r3, #31, 0
    99ec:	e3833010 	orr	r3, r3, #16, 0
    99f0:	e129f003 	msr	CPSR_fc, r3
    99f4:	eb00025f 	bl	a378 <reboot_callout>
    99f8:	eb0000c1 	bl	9d04 <uart_flush_tx>
    99fc:	e3a0000a 	mov	r0, #10, 0
    9a00:	eb000028 	bl	9aa8 <delay_ms>
    9a04:	e59f1014 	ldr	r1, [pc, #20]	; 9a20 <rpi_reboot+0x50>
    9a08:	e59f0014 	ldr	r0, [pc, #20]	; 9a24 <rpi_reboot+0x54>
    9a0c:	ebfff984 	bl	8024 <PUT32>
    9a10:	e59f1010 	ldr	r1, [pc, #16]	; 9a28 <rpi_reboot+0x58>
    9a14:	e59f0010 	ldr	r0, [pc, #16]	; 9a2c <rpi_reboot+0x5c>
    9a18:	ebfff981 	bl	8024 <PUT32>
    9a1c:	eafffffe 	b	9a1c <rpi_reboot+0x4c>
    9a20:	5a000001 	bpl	9a2c <rpi_reboot+0x5c>
    9a24:	20100024 	andscs	r0, r0, r4, lsr #32
    9a28:	5a000020 	bpl	9ab0 <delay_ms+0x8>
    9a2c:	2010001c 	andscs	r0, r0, ip, lsl r0

00009a30 <timer_get_usec_raw>:
    9a30:	e59f0000 	ldr	r0, [pc]	; 9a38 <timer_get_usec_raw+0x8>
    9a34:	eafff97c 	b	802c <GET32>
    9a38:	20003004 	andcs	r3, r0, r4

00009a3c <timer_get_usec>:
    9a3c:	e92d4010 	push	{r4, lr}
    9a40:	eb00024d 	bl	a37c <dev_barrier>
    9a44:	e59f0010 	ldr	r0, [pc, #16]	; 9a5c <timer_get_usec+0x20>
    9a48:	ebfff977 	bl	802c <GET32>
    9a4c:	e1a04000 	mov	r4, r0
    9a50:	eb000249 	bl	a37c <dev_barrier>
    9a54:	e1a00004 	mov	r0, r4
    9a58:	e8bd8010 	pop	{r4, pc}
    9a5c:	20003004 	andcs	r3, r0, r4

00009a60 <delay_us>:
    9a60:	e92d41f0 	push	{r4, r5, r6, r7, r8, lr}
    9a64:	e1a06000 	mov	r6, r0
    9a68:	eb000243 	bl	a37c <dev_barrier>
    9a6c:	e59f0030 	ldr	r0, [pc, #48]	; 9aa4 <delay_us+0x44>
    9a70:	ebfff96d 	bl	802c <GET32>
    9a74:	e1a05000 	mov	r5, r0
    9a78:	eb00023f 	bl	a37c <dev_barrier>
    9a7c:	e59f7020 	ldr	r7, [pc, #32]	; 9aa4 <delay_us+0x44>
    9a80:	eb00023d 	bl	a37c <dev_barrier>
    9a84:	e1a00007 	mov	r0, r7
    9a88:	ebfff967 	bl	802c <GET32>
    9a8c:	e1a04000 	mov	r4, r0
    9a90:	e0444005 	sub	r4, r4, r5
    9a94:	eb000238 	bl	a37c <dev_barrier>
    9a98:	e1540006 	cmp	r4, r6
    9a9c:	3afffff7 	bcc	9a80 <delay_us+0x20>
    9aa0:	e8bd81f0 	pop	{r4, r5, r6, r7, r8, pc}
    9aa4:	20003004 	andcs	r3, r0, r4

00009aa8 <delay_ms>:
    9aa8:	e92d41f0 	push	{r4, r5, r6, r7, r8, lr}
    9aac:	e0604280 	rsb	r4, r0, r0, lsl #5
    9ab0:	e0800104 	add	r0, r0, r4, lsl #2
    9ab4:	e1a04180 	lsl	r4, r0, #3
    9ab8:	eb00022f 	bl	a37c <dev_barrier>
    9abc:	e59f0030 	ldr	r0, [pc, #48]	; 9af4 <delay_ms+0x4c>
    9ac0:	ebfff959 	bl	802c <GET32>
    9ac4:	e1a06000 	mov	r6, r0
    9ac8:	eb00022b 	bl	a37c <dev_barrier>
    9acc:	e59f7020 	ldr	r7, [pc, #32]	; 9af4 <delay_ms+0x4c>
    9ad0:	eb000229 	bl	a37c <dev_barrier>
    9ad4:	e1a00007 	mov	r0, r7
    9ad8:	ebfff953 	bl	802c <GET32>
    9adc:	e1a05000 	mov	r5, r0
    9ae0:	e0455006 	sub	r5, r5, r6
    9ae4:	eb000224 	bl	a37c <dev_barrier>
    9ae8:	e1540005 	cmp	r4, r5
    9aec:	8afffff7 	bhi	9ad0 <delay_ms+0x28>
    9af0:	e8bd81f0 	pop	{r4, r5, r6, r7, r8, pc}
    9af4:	20003004 	andcs	r3, r0, r4

00009af8 <delay_sec>:
    9af8:	e92d41f0 	push	{r4, r5, r6, r7, r8, lr}
    9afc:	e0604280 	rsb	r4, r0, r0, lsl #5
    9b00:	e0644304 	rsb	r4, r4, r4, lsl #6
    9b04:	e0800184 	add	r0, r0, r4, lsl #3
    9b08:	e1a04300 	lsl	r4, r0, #6
    9b0c:	eb00021a 	bl	a37c <dev_barrier>
    9b10:	e59f0030 	ldr	r0, [pc, #48]	; 9b48 <delay_sec+0x50>
    9b14:	ebfff944 	bl	802c <GET32>
    9b18:	e1a06000 	mov	r6, r0
    9b1c:	eb000216 	bl	a37c <dev_barrier>
    9b20:	e59f7020 	ldr	r7, [pc, #32]	; 9b48 <delay_sec+0x50>
    9b24:	eb000214 	bl	a37c <dev_barrier>
    9b28:	e1a00007 	mov	r0, r7
    9b2c:	ebfff93e 	bl	802c <GET32>
    9b30:	e1a05000 	mov	r5, r0
    9b34:	e0455006 	sub	r5, r5, r6
    9b38:	eb00020f 	bl	a37c <dev_barrier>
    9b3c:	e1540005 	cmp	r4, r5
    9b40:	8afffff7 	bhi	9b24 <delay_sec+0x2c>
    9b44:	e8bd81f0 	pop	{r4, r5, r6, r7, r8, pc}
    9b48:	20003004 	andcs	r3, r0, r4

00009b4c <and_in32>:
    9b4c:	e92d4070 	push	{r4, r5, r6, lr}
    9b50:	e1a04000 	mov	r4, r0
    9b54:	e1a05001 	mov	r5, r1
    9b58:	ebfff933 	bl	802c <GET32>
    9b5c:	e0001005 	and	r1, r0, r5
    9b60:	e1a00004 	mov	r0, r4
    9b64:	ebfff92e 	bl	8024 <PUT32>
    9b68:	e8bd8070 	pop	{r4, r5, r6, pc}

00009b6c <or_in32>:
    9b6c:	e92d4070 	push	{r4, r5, r6, lr}
    9b70:	e1a04000 	mov	r4, r0
    9b74:	e1a05001 	mov	r5, r1
    9b78:	ebfff92b 	bl	802c <GET32>
    9b7c:	e1801005 	orr	r1, r0, r5
    9b80:	e1a00004 	mov	r0, r4
    9b84:	ebfff926 	bl	8024 <PUT32>
    9b88:	e8bd8070 	pop	{r4, r5, r6, pc}

00009b8c <uart_init>:
    9b8c:	e92d4010 	push	{r4, lr}
    9b90:	e3a01002 	mov	r1, #2, 0
    9b94:	e3a0000e 	mov	r0, #14, 0
    9b98:	eb000153 	bl	a0ec <gpio_set_function>
    9b9c:	e3a01002 	mov	r1, #2, 0
    9ba0:	e3a0000f 	mov	r0, #15, 0
    9ba4:	eb000150 	bl	a0ec <gpio_set_function>
    9ba8:	eb0001f3 	bl	a37c <dev_barrier>
    9bac:	e3a01001 	mov	r1, #1, 0
    9bb0:	e59f0064 	ldr	r0, [pc, #100]	; 9c1c <uart_init+0x90>
    9bb4:	ebffffec 	bl	9b6c <or_in32>
    9bb8:	eb0001ef 	bl	a37c <dev_barrier>
    9bbc:	e59f405c 	ldr	r4, [pc, #92]	; 9c20 <uart_init+0x94>
    9bc0:	e3a01000 	mov	r1, #0, 0
    9bc4:	e1a00004 	mov	r0, r4
    9bc8:	ebfff915 	bl	8024 <PUT32>
    9bcc:	e3a01000 	mov	r1, #0, 0
    9bd0:	e59f004c 	ldr	r0, [pc, #76]	; 9c24 <uart_init+0x98>
    9bd4:	ebfff912 	bl	8024 <PUT32>
    9bd8:	e3a01003 	mov	r1, #3, 0
    9bdc:	e59f0044 	ldr	r0, [pc, #68]	; 9c28 <uart_init+0x9c>
    9be0:	ebfff90f 	bl	8024 <PUT32>
    9be4:	e3a01000 	mov	r1, #0, 0
    9be8:	e59f003c 	ldr	r0, [pc, #60]	; 9c2c <uart_init+0xa0>
    9bec:	ebfff90c 	bl	8024 <PUT32>
    9bf0:	e3a010c7 	mov	r1, #199, 0	; 0xc7
    9bf4:	e59f0034 	ldr	r0, [pc, #52]	; 9c30 <uart_init+0xa4>
    9bf8:	ebfff909 	bl	8024 <PUT32>
    9bfc:	e59f1030 	ldr	r1, [pc, #48]	; 9c34 <uart_init+0xa8>
    9c00:	e59f0030 	ldr	r0, [pc, #48]	; 9c38 <uart_init+0xac>
    9c04:	ebfff906 	bl	8024 <PUT32>
    9c08:	e3a01003 	mov	r1, #3, 0
    9c0c:	e1a00004 	mov	r0, r4
    9c10:	ebfff903 	bl	8024 <PUT32>
    9c14:	eb0001d8 	bl	a37c <dev_barrier>
    9c18:	e8bd8010 	pop	{r4, pc}
    9c1c:	20215004 	eorcs	r5, r1, r4
    9c20:	20215060 	eorcs	r5, r1, r0, rrx
    9c24:	20215044 	eorcs	r5, r1, r4, asr #32
    9c28:	2021504c 	eorcs	r5, r1, ip, asr #32
    9c2c:	20215050 	eorcs	r5, r1, r0, asr r0
    9c30:	20215048 	eorcs	r5, r1, r8, asr #32
    9c34:	0000010e 	andeq	r0, r0, lr, lsl #2
    9c38:	20215068 	eorcs	r5, r1, r8, rrx

00009c3c <uart_can_getc>:
    9c3c:	e92d4010 	push	{r4, lr}
    9c40:	e59f0008 	ldr	r0, [pc, #8]	; 9c50 <uart_can_getc+0x14>
    9c44:	ebfff8f8 	bl	802c <GET32>
    9c48:	e2000001 	and	r0, r0, #1, 0
    9c4c:	e8bd8010 	pop	{r4, pc}
    9c50:	20215064 	eorcs	r5, r1, r4, rrx

00009c54 <uart_can_putc>:
    9c54:	e92d4010 	push	{r4, lr}
    9c58:	e59f0010 	ldr	r0, [pc, #16]	; 9c70 <uart_can_putc+0x1c>
    9c5c:	ebfff8f2 	bl	802c <GET32>
    9c60:	e3100002 	tst	r0, #2, 0
    9c64:	13a00001 	movne	r0, #1, 0
    9c68:	03a00000 	moveq	r0, #0, 0
    9c6c:	e8bd8010 	pop	{r4, pc}
    9c70:	20215064 	eorcs	r5, r1, r4, rrx

00009c74 <uart_getc>:
    9c74:	e92d4010 	push	{r4, lr}
    9c78:	eb0001bf 	bl	a37c <dev_barrier>
    9c7c:	ebffffee 	bl	9c3c <uart_can_getc>
    9c80:	e3500000 	cmp	r0, #0, 0
    9c84:	0afffffc 	beq	9c7c <uart_getc+0x8>
    9c88:	e59f0010 	ldr	r0, [pc, #16]	; 9ca0 <uart_getc+0x2c>
    9c8c:	ebfff8e6 	bl	802c <GET32>
    9c90:	e6ef4070 	uxtb	r4, r0
    9c94:	eb0001b8 	bl	a37c <dev_barrier>
    9c98:	e1a00004 	mov	r0, r4
    9c9c:	e8bd8010 	pop	{r4, pc}
    9ca0:	20215040 	eorcs	r5, r1, r0, asr #32

00009ca4 <uart_putc>:
    9ca4:	e92d4010 	push	{r4, lr}
    9ca8:	e1a04000 	mov	r4, r0
    9cac:	eb0001b2 	bl	a37c <dev_barrier>
    9cb0:	ebffffe7 	bl	9c54 <uart_can_putc>
    9cb4:	e3500000 	cmp	r0, #0, 0
    9cb8:	0afffffc 	beq	9cb0 <uart_putc+0xc>
    9cbc:	e6ef1074 	uxtb	r1, r4
    9cc0:	e59f0008 	ldr	r0, [pc, #8]	; 9cd0 <uart_putc+0x2c>
    9cc4:	ebfff8d6 	bl	8024 <PUT32>
    9cc8:	eb0001ab 	bl	a37c <dev_barrier>
    9ccc:	e8bd8010 	pop	{r4, pc}
    9cd0:	20215040 	eorcs	r5, r1, r0, asr #32

00009cd4 <uart_has_data>:
    9cd4:	e92d4010 	push	{r4, lr}
    9cd8:	eb0001a7 	bl	a37c <dev_barrier>
    9cdc:	ebffffd6 	bl	9c3c <uart_can_getc>
    9ce0:	e8bd8010 	pop	{r4, pc}

00009ce4 <uart_tx_is_empty>:
    9ce4:	e92d4010 	push	{r4, lr}
    9ce8:	eb0001a3 	bl	a37c <dev_barrier>
    9cec:	e59f000c 	ldr	r0, [pc, #12]	; 9d00 <uart_tx_is_empty+0x1c>
    9cf0:	ebfff8cd 	bl	802c <GET32>
    9cf4:	e1a004a0 	lsr	r0, r0, #9
    9cf8:	e2000001 	and	r0, r0, #1, 0
    9cfc:	e8bd8010 	pop	{r4, pc}
    9d00:	20215064 	eorcs	r5, r1, r4, rrx

00009d04 <uart_flush_tx>:
    9d04:	e92d4010 	push	{r4, lr}
    9d08:	ebfffff5 	bl	9ce4 <uart_tx_is_empty>
    9d0c:	e3500000 	cmp	r0, #0, 0
    9d10:	0afffffc 	beq	9d08 <uart_flush_tx+0x4>
    9d14:	e8bd8010 	pop	{r4, pc}

00009d18 <uart_disable>:
    9d18:	e92d4010 	push	{r4, lr}
    9d1c:	ebfffff8 	bl	9d04 <uart_flush_tx>
    9d20:	eb000195 	bl	a37c <dev_barrier>
    9d24:	e3e01001 	mvn	r1, #1, 0
    9d28:	e59f0008 	ldr	r0, [pc, #8]	; 9d38 <uart_disable+0x20>
    9d2c:	ebffff86 	bl	9b4c <and_in32>
    9d30:	eb000191 	bl	a37c <dev_barrier>
    9d34:	e8bd8010 	pop	{r4, pc}
    9d38:	20215004 	eorcs	r5, r1, r4

00009d3c <kmalloc_heap_end>:
    9d3c:	e59f3004 	ldr	r3, [pc, #4]	; 9d48 <kmalloc_heap_end+0xc>
    9d40:	e5930000 	ldr	r0, [r3]
    9d44:	e12fff1e 	bx	lr
    9d48:	0000ac6c 	andeq	sl, r0, ip, ror #24

00009d4c <kmalloc_heap_start>:
    9d4c:	e59f3004 	ldr	r3, [pc, #4]	; 9d58 <kmalloc_heap_start+0xc>
    9d50:	e5930004 	ldr	r0, [r3, #4]
    9d54:	e12fff1e 	bx	lr
    9d58:	0000ac6c 	andeq	sl, r0, ip, ror #24

00009d5c <kmalloc_heap_ptr>:
    9d5c:	e59f3004 	ldr	r3, [pc, #4]	; 9d68 <kmalloc_heap_ptr+0xc>
    9d60:	e5930000 	ldr	r0, [r3]
    9d64:	e12fff1e 	bx	lr
    9d68:	0000ac6c 	andeq	sl, r0, ip, ror #24

00009d6c <kmalloc_init_set_start>:
    9d6c:	e52de004 	push	{lr}		; (str lr, [sp, #-4]!)
    9d70:	e24dd00c 	sub	sp, sp, #12, 0
    9d74:	e3510000 	cmp	r1, #0, 0
    9d78:	0a00000a 	beq	9da8 <kmalloc_init_set_start+0x3c>
    9d7c:	e59f306c 	ldr	r3, [pc, #108]	; 9df0 <kmalloc_init_set_start+0x84>
    9d80:	e5933000 	ldr	r3, [r3]
    9d84:	e1530000 	cmp	r3, r0
    9d88:	8a00000e 	bhi	9dc8 <kmalloc_init_set_start+0x5c>
    9d8c:	e59f305c 	ldr	r3, [pc, #92]	; 9df0 <kmalloc_init_set_start+0x84>
    9d90:	e5830000 	str	r0, [r3]
    9d94:	e5830004 	str	r0, [r3, #4]
    9d98:	e0800001 	add	r0, r0, r1
    9d9c:	e5830008 	str	r0, [r3, #8]
    9da0:	e28dd00c 	add	sp, sp, #12, 0
    9da4:	e49df004 	pop	{pc}		; (ldr pc, [sp], #4)
    9da8:	e59f3044 	ldr	r3, [pc, #68]	; 9df4 <kmalloc_init_set_start+0x88>
    9dac:	e58d3000 	str	r3, [sp]
    9db0:	e3a03030 	mov	r3, #48, 0	; 0x30
    9db4:	e59f203c 	ldr	r2, [pc, #60]	; 9df8 <kmalloc_init_set_start+0x8c>
    9db8:	e59f103c 	ldr	r1, [pc, #60]	; 9dfc <kmalloc_init_set_start+0x90>
    9dbc:	e59f003c 	ldr	r0, [pc, #60]	; 9e00 <kmalloc_init_set_start+0x94>
    9dc0:	ebfffbf6 	bl	8da0 <printk>
    9dc4:	ebfffeac 	bl	987c <clean_reboot>
    9dc8:	e59f3020 	ldr	r3, [pc, #32]	; 9df0 <kmalloc_init_set_start+0x84>
    9dcc:	e5933008 	ldr	r3, [r3, #8]
    9dd0:	e58d3004 	str	r3, [sp, #4]
    9dd4:	e58d0000 	str	r0, [sp]
    9dd8:	e3a03034 	mov	r3, #52, 0	; 0x34
    9ddc:	e59f2014 	ldr	r2, [pc, #20]	; 9df8 <kmalloc_init_set_start+0x8c>
    9de0:	e59f1014 	ldr	r1, [pc, #20]	; 9dfc <kmalloc_init_set_start+0x90>
    9de4:	e59f0018 	ldr	r0, [pc, #24]	; 9e04 <kmalloc_init_set_start+0x98>
    9de8:	ebfffbec 	bl	8da0 <printk>
    9dec:	ebfffea2 	bl	987c <clean_reboot>
    9df0:	0000ac6c 	andeq	sl, r0, ip, ror #24
    9df4:	0000aa74 	andeq	sl, r0, r4, ror sl
    9df8:	0000ac00 	andeq	sl, r0, r0, lsl #24
    9dfc:	0000aa68 	andeq	sl, r0, r8, ror #20
    9e00:	0000a4d4 	ldrdeq	sl, [r0], -r4
    9e04:	0000aa80 	andeq	sl, r0, r0, lsl #21

00009e08 <kmalloc_init>:
    9e08:	e92d4010 	push	{r4, lr}
    9e0c:	e59f303c 	ldr	r3, [pc, #60]	; 9e50 <kmalloc_init+0x48>
    9e10:	e5933000 	ldr	r3, [r3]
    9e14:	e3530000 	cmp	r3, #0, 0
    9e18:	1a000006 	bne	9e38 <kmalloc_init+0x30>
    9e1c:	e59f302c 	ldr	r3, [pc, #44]	; 9e50 <kmalloc_init+0x48>
    9e20:	e3a02001 	mov	r2, #1, 0
    9e24:	e5832000 	str	r2, [r3]
    9e28:	e3a01201 	mov	r1, #268435456	; 0x10000000
    9e2c:	e3a00601 	mov	r0, #1048576	; 0x100000
    9e30:	ebffffcd 	bl	9d6c <kmalloc_init_set_start>
    9e34:	e8bd8010 	pop	{r4, pc}
    9e38:	e3a03040 	mov	r3, #64, 0	; 0x40
    9e3c:	e59f2010 	ldr	r2, [pc, #16]	; 9e54 <kmalloc_init+0x4c>
    9e40:	e59f1010 	ldr	r1, [pc, #16]	; 9e58 <kmalloc_init+0x50>
    9e44:	e59f0010 	ldr	r0, [pc, #16]	; 9e5c <kmalloc_init+0x54>
    9e48:	ebfffbd4 	bl	8da0 <printk>
    9e4c:	ebfffe8a 	bl	987c <clean_reboot>
    9e50:	0000b0a4 	andeq	fp, r0, r4, lsr #1
    9e54:	0000ac18 	andeq	sl, r0, r8, lsl ip
    9e58:	0000aa68 	andeq	sl, r0, r8, ror #20
    9e5c:	0000aac4 	andeq	sl, r0, r4, asr #21

00009e60 <kmalloc_notzero>:
    9e60:	e52de004 	push	{lr}		; (str lr, [sp, #-4]!)
    9e64:	e24dd00c 	sub	sp, sp, #12, 0
    9e68:	e3500000 	cmp	r0, #0, 0
    9e6c:	0a00000a 	beq	9e9c <kmalloc_notzero+0x3c>
    9e70:	e2800007 	add	r0, r0, #7, 0
    9e74:	e3c03007 	bic	r3, r0, #7, 0
    9e78:	e59f2060 	ldr	r2, [pc, #96]	; 9ee0 <kmalloc_notzero+0x80>
    9e7c:	e5920000 	ldr	r0, [r2]
    9e80:	e0801003 	add	r1, r0, r3
    9e84:	e5821000 	str	r1, [r2]
    9e88:	e5922008 	ldr	r2, [r2, #8]
    9e8c:	e1510002 	cmp	r1, r2
    9e90:	8a000009 	bhi	9ebc <kmalloc_notzero+0x5c>
    9e94:	e28dd00c 	add	sp, sp, #12, 0
    9e98:	e49df004 	pop	{pc}		; (ldr pc, [sp], #4)
    9e9c:	e59f3040 	ldr	r3, [pc, #64]	; 9ee4 <kmalloc_notzero+0x84>
    9ea0:	e58d3000 	str	r3, [sp]
    9ea4:	e3a03048 	mov	r3, #72, 0	; 0x48
    9ea8:	e59f2038 	ldr	r2, [pc, #56]	; 9ee8 <kmalloc_notzero+0x88>
    9eac:	e59f1038 	ldr	r1, [pc, #56]	; 9eec <kmalloc_notzero+0x8c>
    9eb0:	e59f0038 	ldr	r0, [pc, #56]	; 9ef0 <kmalloc_notzero+0x90>
    9eb4:	ebfffbb9 	bl	8da0 <printk>
    9eb8:	ebfffe6f 	bl	987c <clean_reboot>
    9ebc:	e0422000 	sub	r2, r2, r0
    9ec0:	e58d2004 	str	r2, [sp, #4]
    9ec4:	e58d3000 	str	r3, [sp]
    9ec8:	e3a0304e 	mov	r3, #78, 0	; 0x4e
    9ecc:	e59f2014 	ldr	r2, [pc, #20]	; 9ee8 <kmalloc_notzero+0x88>
    9ed0:	e59f1014 	ldr	r1, [pc, #20]	; 9eec <kmalloc_notzero+0x8c>
    9ed4:	e59f0018 	ldr	r0, [pc, #24]	; 9ef4 <kmalloc_notzero+0x94>
    9ed8:	ebfffbb0 	bl	8da0 <printk>
    9edc:	ebfffe66 	bl	987c <clean_reboot>
    9ee0:	0000ac6c 	andeq	sl, r0, ip, ror #24
    9ee4:	0000aa78 	andeq	sl, r0, r8, ror sl
    9ee8:	0000ac28 	andeq	sl, r0, r8, lsr #24
    9eec:	0000aa68 	andeq	sl, r0, r8, ror #20
    9ef0:	0000a4d4 	ldrdeq	sl, [r0], -r4
    9ef4:	0000aaf4 	strdeq	sl, [r0], -r4

00009ef8 <kmalloc>:
    9ef8:	e92d4030 	push	{r4, r5, lr}
    9efc:	e24dd00c 	sub	sp, sp, #12, 0
    9f00:	e2504000 	subs	r4, r0, #0, 0
    9f04:	0a000008 	beq	9f2c <kmalloc+0x34>
    9f08:	e1a00004 	mov	r0, r4
    9f0c:	ebffffd3 	bl	9e60 <kmalloc_notzero>
    9f10:	e1a05000 	mov	r5, r0
    9f14:	e1a02004 	mov	r2, r4
    9f18:	e3a01000 	mov	r1, #0, 0
    9f1c:	ebfffb81 	bl	8d28 <memset>
    9f20:	e1a00005 	mov	r0, r5
    9f24:	e28dd00c 	add	sp, sp, #12, 0
    9f28:	e8bd8030 	pop	{r4, r5, pc}
    9f2c:	e59f3018 	ldr	r3, [pc, #24]	; 9f4c <kmalloc+0x54>
    9f30:	e58d3000 	str	r3, [sp]
    9f34:	e3a03054 	mov	r3, #84, 0	; 0x54
    9f38:	e59f2010 	ldr	r2, [pc, #16]	; 9f50 <kmalloc+0x58>
    9f3c:	e59f1010 	ldr	r1, [pc, #16]	; 9f54 <kmalloc+0x5c>
    9f40:	e59f0010 	ldr	r0, [pc, #16]	; 9f58 <kmalloc+0x60>
    9f44:	ebfffb95 	bl	8da0 <printk>
    9f48:	ebfffe4b 	bl	987c <clean_reboot>
    9f4c:	0000aa78 	andeq	sl, r0, r8, ror sl
    9f50:	0000ac38 	andeq	sl, r0, r8, lsr ip
    9f54:	0000aa68 	andeq	sl, r0, r8, ror #20
    9f58:	0000a4d4 	ldrdeq	sl, [r0], -r4

00009f5c <kmalloc_aligned>:
    9f5c:	e52de004 	push	{lr}		; (str lr, [sp, #-4]!)
    9f60:	e24dd00c 	sub	sp, sp, #12, 0
    9f64:	e3500000 	cmp	r0, #0, 0
    9f68:	0a000014 	beq	9fc0 <kmalloc_aligned+0x64>
    9f6c:	e2613000 	rsb	r3, r1, #0, 0
    9f70:	e1d13003 	bics	r3, r1, r3
    9f74:	1a000019 	bne	9fe0 <kmalloc_aligned+0x84>
    9f78:	e3510008 	cmp	r1, #8, 0
    9f7c:	33a01008 	movcc	r1, #8, 0
    9f80:	e59f30c0 	ldr	r3, [pc, #192]	; a048 <kmalloc_aligned+0xec>
    9f84:	e5932000 	ldr	r2, [r3]
    9f88:	e2613000 	rsb	r3, r1, #0, 0
    9f8c:	e1d1c003 	bics	ip, r1, r3
    9f90:	1a00001b 	bne	a004 <kmalloc_aligned+0xa8>
    9f94:	e0822001 	add	r2, r2, r1
    9f98:	e2422001 	sub	r2, r2, #1, 0
    9f9c:	e0033002 	and	r3, r3, r2
    9fa0:	e2411001 	sub	r1, r1, #1, 0
    9fa4:	e1110003 	tst	r1, r3
    9fa8:	1a00001d 	bne	a024 <kmalloc_aligned+0xc8>
    9fac:	e59f2094 	ldr	r2, [pc, #148]	; a048 <kmalloc_aligned+0xec>
    9fb0:	e5823000 	str	r3, [r2]
    9fb4:	ebffffcf 	bl	9ef8 <kmalloc>
    9fb8:	e28dd00c 	add	sp, sp, #12, 0
    9fbc:	e49df004 	pop	{pc}		; (ldr pc, [sp], #4)
    9fc0:	e59f3084 	ldr	r3, [pc, #132]	; a04c <kmalloc_aligned+0xf0>
    9fc4:	e58d3000 	str	r3, [sp]
    9fc8:	e3a0305f 	mov	r3, #95, 0	; 0x5f
    9fcc:	e59f207c 	ldr	r2, [pc, #124]	; a050 <kmalloc_aligned+0xf4>
    9fd0:	e59f107c 	ldr	r1, [pc, #124]	; a054 <kmalloc_aligned+0xf8>
    9fd4:	e59f007c 	ldr	r0, [pc, #124]	; a058 <kmalloc_aligned+0xfc>
    9fd8:	ebfffb70 	bl	8da0 <printk>
    9fdc:	ebfffe26 	bl	987c <clean_reboot>
    9fe0:	eb0000ac 	bl	a298 <rpi_reset_putc>
    9fe4:	e59f3070 	ldr	r3, [pc, #112]	; a05c <kmalloc_aligned+0x100>
    9fe8:	e58d3000 	str	r3, [sp]
    9fec:	e3a03060 	mov	r3, #96, 0	; 0x60
    9ff0:	e59f2058 	ldr	r2, [pc, #88]	; a050 <kmalloc_aligned+0xf4>
    9ff4:	e59f1058 	ldr	r1, [pc, #88]	; a054 <kmalloc_aligned+0xf8>
    9ff8:	e59f0060 	ldr	r0, [pc, #96]	; a060 <kmalloc_aligned+0x104>
    9ffc:	ebfffb67 	bl	8da0 <printk>
    a000:	ebfffe1d 	bl	987c <clean_reboot>
    a004:	e59f3058 	ldr	r3, [pc, #88]	; a064 <kmalloc_aligned+0x108>
    a008:	e58d3000 	str	r3, [sp]
    a00c:	e3a03011 	mov	r3, #17, 0
    a010:	e59f2050 	ldr	r2, [pc, #80]	; a068 <kmalloc_aligned+0x10c>
    a014:	e59f1038 	ldr	r1, [pc, #56]	; a054 <kmalloc_aligned+0xf8>
    a018:	e59f0038 	ldr	r0, [pc, #56]	; a058 <kmalloc_aligned+0xfc>
    a01c:	ebfffb5f 	bl	8da0 <printk>
    a020:	ebfffe15 	bl	987c <clean_reboot>
    a024:	eb00009b 	bl	a298 <rpi_reset_putc>
    a028:	e59f303c 	ldr	r3, [pc, #60]	; a06c <kmalloc_aligned+0x110>
    a02c:	e58d3000 	str	r3, [sp]
    a030:	e3a03068 	mov	r3, #104, 0	; 0x68
    a034:	e59f2014 	ldr	r2, [pc, #20]	; a050 <kmalloc_aligned+0xf4>
    a038:	e59f1014 	ldr	r1, [pc, #20]	; a054 <kmalloc_aligned+0xf8>
    a03c:	e59f002c 	ldr	r0, [pc, #44]	; a070 <kmalloc_aligned+0x114>
    a040:	ebfffb56 	bl	8da0 <printk>
    a044:	ebfffe0c 	bl	987c <clean_reboot>
    a048:	0000ac6c 	andeq	sl, r0, ip, ror #24
    a04c:	0000aa78 	andeq	sl, r0, r8, ror sl
    a050:	0000ac40 	andeq	sl, r0, r0, asr #24
    a054:	0000aa68 	andeq	sl, r0, r8, ror #20
    a058:	0000a4d4 	ldrdeq	sl, [r0], -r4
    a05c:	0000ab68 	andeq	sl, r0, r8, ror #22
    a060:	0000ab34 	andeq	sl, r0, r4, lsr fp
    a064:	0000ab7c 	andeq	sl, r0, ip, ror fp
    a068:	0000ac50 	andeq	sl, r0, r0, asr ip
    a06c:	0000abb4 			; <UNDEFINED> instruction: 0x0000abb4
    a070:	0000ab88 	andeq	sl, r0, r8, lsl #23

0000a074 <kfree>:
    a074:	e12fff1e 	bx	lr

0000a078 <kfree_all>:
    a078:	e59f3008 	ldr	r3, [pc, #8]	; a088 <kfree_all+0x10>
    a07c:	e5932004 	ldr	r2, [r3, #4]
    a080:	e5832000 	str	r2, [r3]
    a084:	e12fff1e 	bx	lr
    a088:	0000ac6c 	andeq	sl, r0, ip, ror #24

0000a08c <kfree_pop>:
    a08c:	e59f3048 	ldr	r3, [pc, #72]	; a0dc <kfree_pop+0x50>
    a090:	e5933004 	ldr	r3, [r3, #4]
    a094:	e1530000 	cmp	r3, r0
    a098:	8a000006 	bhi	a0b8 <kfree_pop+0x2c>
    a09c:	e59f3038 	ldr	r3, [pc, #56]	; a0dc <kfree_pop+0x50>
    a0a0:	e5933008 	ldr	r3, [r3, #8]
    a0a4:	e1530000 	cmp	r3, r0
    a0a8:	3a000002 	bcc	a0b8 <kfree_pop+0x2c>
    a0ac:	e59f3028 	ldr	r3, [pc, #40]	; a0dc <kfree_pop+0x50>
    a0b0:	e5830000 	str	r0, [r3]
    a0b4:	e12fff1e 	bx	lr
    a0b8:	e52de004 	push	{lr}		; (str lr, [sp, #-4]!)
    a0bc:	e24dd00c 	sub	sp, sp, #12, 0
    a0c0:	e58d0000 	str	r0, [sp]
    a0c4:	e3a03077 	mov	r3, #119, 0	; 0x77
    a0c8:	e59f2010 	ldr	r2, [pc, #16]	; a0e0 <kfree_pop+0x54>
    a0cc:	e59f1010 	ldr	r1, [pc, #16]	; a0e4 <kfree_pop+0x58>
    a0d0:	e59f0010 	ldr	r0, [pc, #16]	; a0e8 <kfree_pop+0x5c>
    a0d4:	ebfffb31 	bl	8da0 <printk>
    a0d8:	ebfffde7 	bl	987c <clean_reboot>
    a0dc:	0000ac6c 	andeq	sl, r0, ip, ror #24
    a0e0:	0000ac58 	andeq	sl, r0, r8, asr ip
    a0e4:	0000aa68 	andeq	sl, r0, r8, ror #20
    a0e8:	0000abd0 	ldrdeq	sl, [r0], -r0

0000a0ec <gpio_set_function>:
    a0ec:	e350001f 	cmp	r0, #31, 0
    a0f0:	812fff1e 	bxhi	lr
    a0f4:	e3d13007 	bics	r3, r1, #7, 0
    a0f8:	e92d4070 	push	{r4, r5, r6, lr}
    a0fc:	e1a05001 	mov	r5, r1
    a100:	18bd8070 	popne	{r4, r5, r6, pc}
    a104:	e59f403c 	ldr	r4, [pc, #60]	; a148 <gpio_set_function+0x5c>
    a108:	e0843094 	umull	r3, r4, r4, r0
    a10c:	e1a041a4 	lsr	r4, r4, #3
    a110:	e2843302 	add	r3, r4, #134217728	; 0x8000000
    a114:	e2833702 	add	r3, r3, #524288	; 0x80000
    a118:	e1a06103 	lsl	r6, r3, #2
    a11c:	e0844104 	add	r4, r4, r4, lsl #2
    a120:	e0404084 	sub	r4, r0, r4, lsl #1
    a124:	e1a00006 	mov	r0, r6
    a128:	ebfff7bf 	bl	802c <GET32>
    a12c:	e3a01007 	mov	r1, #7, 0
    a130:	e0844084 	add	r4, r4, r4, lsl #1
    a134:	e1c01411 	bic	r1, r0, r1, lsl r4
    a138:	e1811415 	orr	r1, r1, r5, lsl r4
    a13c:	e1a00006 	mov	r0, r6
    a140:	e8bd4070 	pop	{r4, r5, r6, lr}
    a144:	eafff7b6 	b	8024 <PUT32>
    a148:	cccccccd 	stclgt	12, cr12, [ip], {205}	; 0xcd

0000a14c <gpio_set_output>:
    a14c:	e350001f 	cmp	r0, #31, 0
    a150:	812fff1e 	bxhi	lr
    a154:	e92d4070 	push	{r4, r5, r6, lr}
    a158:	e59f4040 	ldr	r4, [pc, #64]	; a1a0 <gpio_set_output+0x54>
    a15c:	e0843094 	umull	r3, r4, r4, r0
    a160:	e1a041a4 	lsr	r4, r4, #3
    a164:	e2843302 	add	r3, r4, #134217728	; 0x8000000
    a168:	e2833702 	add	r3, r3, #524288	; 0x80000
    a16c:	e1a05103 	lsl	r5, r3, #2
    a170:	e0844104 	add	r4, r4, r4, lsl #2
    a174:	e0404084 	sub	r4, r0, r4, lsl #1
    a178:	e1a00005 	mov	r0, r5
    a17c:	ebfff7aa 	bl	802c <GET32>
    a180:	e3a03007 	mov	r3, #7, 0
    a184:	e3a01001 	mov	r1, #1, 0
    a188:	e0844084 	add	r4, r4, r4, lsl #1
    a18c:	e1c03413 	bic	r3, r0, r3, lsl r4
    a190:	e1831411 	orr	r1, r3, r1, lsl r4
    a194:	e1a00005 	mov	r0, r5
    a198:	e8bd4070 	pop	{r4, r5, r6, lr}
    a19c:	eafff7a0 	b	8024 <PUT32>
    a1a0:	cccccccd 	stclgt	12, cr12, [ip], {205}	; 0xcd

0000a1a4 <gpio_set_on>:
    a1a4:	e1a03000 	mov	r3, r0
    a1a8:	e3a01001 	mov	r1, #1, 0
    a1ac:	e59f0004 	ldr	r0, [pc, #4]	; a1b8 <gpio_set_on+0x14>
    a1b0:	e1a01311 	lsl	r1, r1, r3
    a1b4:	eafff79a 	b	8024 <PUT32>
    a1b8:	2020001c 	eorcs	r0, r0, ip, lsl r0

0000a1bc <gpio_set_off>:
    a1bc:	e1a03000 	mov	r3, r0
    a1c0:	e3a01001 	mov	r1, #1, 0
    a1c4:	e59f0004 	ldr	r0, [pc, #4]	; a1d0 <gpio_set_off+0x14>
    a1c8:	e1a01311 	lsl	r1, r1, r3
    a1cc:	eafff794 	b	8024 <PUT32>
    a1d0:	20200028 	eorcs	r0, r0, r8, lsr #32

0000a1d4 <gpio_set_input>:
    a1d4:	e350001f 	cmp	r0, #31, 0
    a1d8:	812fff1e 	bxhi	lr
    a1dc:	e92d4070 	push	{r4, r5, r6, lr}
    a1e0:	e59f5040 	ldr	r5, [pc, #64]	; a228 <gpio_set_input+0x54>
    a1e4:	e1a04000 	mov	r4, r0
    a1e8:	e0853095 	umull	r3, r5, r5, r0
    a1ec:	e1a051a5 	lsr	r5, r5, #3
    a1f0:	e2850302 	add	r0, r5, #134217728	; 0x8000000
    a1f4:	e2800702 	add	r0, r0, #524288	; 0x80000
    a1f8:	e1a06100 	lsl	r6, r0, #2
    a1fc:	e1a00006 	mov	r0, r6
    a200:	ebfff789 	bl	802c <GET32>
    a204:	e3a01007 	mov	r1, #7, 0
    a208:	e1a03000 	mov	r3, r0
    a20c:	e0855105 	add	r5, r5, r5, lsl #2
    a210:	e0444085 	sub	r4, r4, r5, lsl #1
    a214:	e0844084 	add	r4, r4, r4, lsl #1
    a218:	e1a00006 	mov	r0, r6
    a21c:	e1c31411 	bic	r1, r3, r1, lsl r4
    a220:	e8bd4070 	pop	{r4, r5, r6, lr}
    a224:	eafff77e 	b	8024 <PUT32>
    a228:	cccccccd 	stclgt	12, cr12, [ip], {205}	; 0xcd

0000a22c <gpio_write>:
    a22c:	e3510000 	cmp	r1, #0, 0
    a230:	e3a03001 	mov	r3, #1, 0
    a234:	e1a01000 	mov	r1, r0
    a238:	0a000002 	beq	a248 <gpio_write+0x1c>
    a23c:	e59f0010 	ldr	r0, [pc, #16]	; a254 <gpio_write+0x28>
    a240:	e1a01113 	lsl	r1, r3, r1
    a244:	eafff776 	b	8024 <PUT32>
    a248:	e59f0008 	ldr	r0, [pc, #8]	; a258 <gpio_write+0x2c>
    a24c:	e1a01113 	lsl	r1, r3, r1
    a250:	eafff773 	b	8024 <PUT32>
    a254:	2020001c 	eorcs	r0, r0, ip, lsl r0
    a258:	20200028 	eorcs	r0, r0, r8, lsr #32

0000a25c <gpio_read>:
    a25c:	e92d4010 	push	{r4, lr}
    a260:	e1a04000 	mov	r4, r0
    a264:	e59f0014 	ldr	r0, [pc, #20]	; a280 <gpio_read+0x24>
    a268:	e08002a4 	add	r0, r0, r4, lsr #5
    a26c:	ebfff76e 	bl	802c <GET32>
    a270:	e204401f 	and	r4, r4, #31, 0
    a274:	e1a00430 	lsr	r0, r0, r4
    a278:	e2000001 	and	r0, r0, #1, 0
    a27c:	e8bd8010 	pop	{r4, pc}
    a280:	20200034 	eorcs	r0, r0, r4, lsr r0

0000a284 <internal_putchar>:
    a284:	e92d4010 	push	{r4, lr}
    a288:	e1a04000 	mov	r4, r0
    a28c:	ebfffe84 	bl	9ca4 <uart_putc>
    a290:	e1a00004 	mov	r0, r4
    a294:	e8bd8010 	pop	{r4, pc}

0000a298 <rpi_reset_putc>:
    a298:	e59f3008 	ldr	r3, [pc, #8]	; a2a8 <rpi_reset_putc+0x10>
    a29c:	e59f2008 	ldr	r2, [pc, #8]	; a2ac <rpi_reset_putc+0x14>
    a2a0:	e5832000 	str	r2, [r3]
    a2a4:	e12fff1e 	bx	lr
    a2a8:	0000ac78 	andeq	sl, r0, r8, ror ip
    a2ac:	0000a284 	andeq	sl, r0, r4, lsl #5

0000a2b0 <rpi_set_putc>:
    a2b0:	e59f3004 	ldr	r3, [pc, #4]	; a2bc <rpi_set_putc+0xc>
    a2b4:	e5830000 	str	r0, [r3]
    a2b8:	e12fff1e 	bx	lr
    a2bc:	0000ac78 	andeq	sl, r0, r8, ror ip

0000a2c0 <strcat>:
    a2c0:	e1a02000 	mov	r2, r0
    a2c4:	e1a03002 	mov	r3, r2
    a2c8:	e4d2c001 	ldrb	ip, [r2], #1
    a2cc:	e35c0000 	cmp	ip, #0, 0
    a2d0:	1afffffb 	bne	a2c4 <strcat+0x4>
    a2d4:	e2433001 	sub	r3, r3, #1, 0
    a2d8:	e4d12001 	ldrb	r2, [r1], #1
    a2dc:	e3520000 	cmp	r2, #0, 0
    a2e0:	e5e32001 	strb	r2, [r3, #1]!
    a2e4:	1afffffb 	bne	a2d8 <strcat+0x18>
    a2e8:	e12fff1e 	bx	lr

0000a2ec <strcmp>:
    a2ec:	e5d03000 	ldrb	r3, [r0]
    a2f0:	e3530000 	cmp	r3, #0, 0
    a2f4:	05d12000 	ldrbeq	r2, [r1]
    a2f8:	1a000003 	bne	a30c <strcmp+0x20>
    a2fc:	ea000006 	b	a31c <strcmp+0x30>
    a300:	e5f03001 	ldrb	r3, [r0, #1]!
    a304:	e3530000 	cmp	r3, #0, 0
    a308:	0a000005 	beq	a324 <strcmp+0x38>
    a30c:	e1a0c001 	mov	ip, r1
    a310:	e4d12001 	ldrb	r2, [r1], #1
    a314:	e1520003 	cmp	r2, r3
    a318:	0afffff8 	beq	a300 <strcmp+0x14>
    a31c:	e0430002 	sub	r0, r3, r2
    a320:	e12fff1e 	bx	lr
    a324:	e5dc2001 	ldrb	r2, [ip, #1]
    a328:	e0430002 	sub	r0, r3, r2
    a32c:	e12fff1e 	bx	lr

0000a330 <strcpy>:
    a330:	e2402001 	sub	r2, r0, #1, 0
    a334:	e4d13001 	ldrb	r3, [r1], #1
    a338:	e3530000 	cmp	r3, #0, 0
    a33c:	e5e23001 	strb	r3, [r2, #1]!
    a340:	1afffffb 	bne	a334 <strcpy+0x4>
    a344:	e12fff1e 	bx	lr

0000a348 <strncmp>:
    a348:	e0802002 	add	r2, r0, r2
    a34c:	ea000003 	b	a360 <strncmp+0x18>
    a350:	e4d03001 	ldrb	r3, [r0], #1
    a354:	e4d1c001 	ldrb	ip, [r1], #1
    a358:	e153000c 	cmp	r3, ip
    a35c:	1a000003 	bne	a370 <strncmp+0x28>
    a360:	e1500002 	cmp	r0, r2
    a364:	1afffff9 	bne	a350 <strncmp+0x8>
    a368:	e3a00000 	mov	r0, #0, 0
    a36c:	e12fff1e 	bx	lr
    a370:	e043000c 	sub	r0, r3, ip
    a374:	e12fff1e 	bx	lr

0000a378 <reboot_callout>:
    a378:	e12fff1e 	bx	lr

0000a37c <dev_barrier>:
    a37c:	ea000002 	b	a38c <dsb>

0000a380 <dmb>:
    a380:	e3a00000 	mov	r0, #0, 0
    a384:	ee070fba 	mcr	15, 0, r0, cr7, cr10, {5}
    a388:	e12fff1e 	bx	lr

0000a38c <dsb>:
    a38c:	ee070f9a 	mcr	15, 0, r0, cr7, cr10, {4}
    a390:	e12fff1e 	bx	lr

0000a394 <__code_end__>:
    a394:	00000000 	andeq	r0, r0, r0

Disassembly of section .rodata:

0000a398 <__FUNCTION__.4025-0x84>:
    a398:	74736574 	ldrbtvc	r6, [r3], #-1396	; 0xfffffa8c
    a39c:	6c203a34 			; <UNDEFINED> instruction: 0x6c203a34
    a3a0:	65677261 	strbvs	r7, [r7, #-609]!	; 0xfffffd9f
    a3a4:	6c612072 	stclvs	0, cr2, [r1], #-456	; 0xfffffe38
    a3a8:	2c636f6c 	stclcs	15, cr6, [r3], #-432	; 0xfffffe50
    a3ac:	206f6e20 	rsbcs	r6, pc, r0, lsr #28
    a3b0:	6f727265 	svcvs	0x00727265
    a3b4:	00000a72 	andeq	r0, r0, r2, ror sl
    a3b8:	74736574 	ldrbtvc	r6, [r3], #-1396	; 0xfffffa8c
    a3bc:	2e322d73 	mrccs	13, 1, r2, cr2, cr3, {3}
    a3c0:	61702f30 	cmnvs	r0, r0, lsr pc
    a3c4:	2d317472 	cfldrscs	mvf7, [r1, #-456]!	; 0xfffffe38
    a3c8:	74736574 	ldrbtvc	r6, [r3], #-1396	; 0xfffffa8c
    a3cc:	6f6e2d35 	svcvs	0x006e2d35
    a3d0:	6775622d 	ldrbvs	r6, [r5, -sp, lsr #4]!
    a3d4:	0000632e 	andeq	r6, r0, lr, lsr #6
    a3d8:	494e4150 	stmdbmi	lr, {r4, r6, r8, lr}^
    a3dc:	73253a43 			; <UNDEFINED> instruction: 0x73253a43
    a3e0:	3a73253a 	bcc	1cd38d0 <__bss_end__+0x1cc8828>
    a3e4:	693a6425 	ldmdbvs	sl!, {r0, r2, r5, sl, sp, lr}
    a3e8:	6c61766e 	stclvs	6, cr7, [r1], #-440	; 0xfffffe48
    a3ec:	65206469 	strvs	r6, [r0, #-1129]!	; 0xfffffb97
    a3f0:	726f7272 	rsbvc	r7, pc, #536870919	; 0x20000007
    a3f4:	0a0a2121 	beq	292880 <__bss_end__+0x2877d8>
    a3f8:	00000000 	andeq	r0, r0, r0
    a3fc:	43415254 	movtmi	r5, #4692	; 0x1254
    a400:	55533a45 	ldrbpl	r3, [r3, #-2629]	; 0xfffff5bb
    a404:	53454343 	movtpl	r4, #21315	; 0x5343
    a408:	65682053 	strbvs	r2, [r8, #-83]!	; 0xffffffad
    a40c:	63207061 			; <UNDEFINED> instruction: 0x63207061
    a410:	6b636568 	blvs	18e39b8 <__bss_end__+0x18d8910>
    a414:	6f206465 	svcvs	0x00206465
    a418:	000a7475 	andeq	r7, sl, r5, ror r4

0000a41c <__FUNCTION__.4025>:
    a41c:	6d746f6e 	ldclvs	15, cr6, [r4, #-440]!	; 0xfffffe48
    a420:	006e6961 	rsbeq	r6, lr, r1, ror #18
    a424:	6e756f66 	cdpvs	15, 7, cr6, cr5, cr6, {3}
    a428:	70252064 	eorvc	r2, r5, r4, rrx
    a42c:	206e6920 	rsbcs	r6, lr, r0, lsr #18
    a430:	000a7025 	andeq	r7, sl, r5, lsr #32
    a434:	253a7325 	ldrcs	r7, [sl, #-805]!	; 0xfffffcdb
    a438:	64253a73 	strtvs	r3, [r5], #-2675	; 0xfffff58d
    a43c:	0000003a 	andeq	r0, r0, sl, lsr r0
    a440:	65657266 	strbvs	r7, [r5, #-614]!	; 0xfffffd9a
    a444:	20676e69 	rsbcs	r6, r7, r9, ror #28
    a448:	0a702509 	beq	1c13874 <__bss_end__+0x1c087cc>
    a44c:	00000000 	andeq	r0, r0, r0
    a450:	5f434f4c 	svcpl	0x00434f4c
    a454:	494e4150 	stmdbmi	lr, {r4, r6, r8, lr}^
    a458:	25203a43 	strcs	r3, [r0, #-2627]!	; 0xfffff5bd
    a45c:	73253a73 			; <UNDEFINED> instruction: 0x73253a73
    a460:	3a64253a 	bcc	1913950 <__bss_end__+0x19088a8>
    a464:	00000000 	andeq	r0, r0, r0
    a468:	65657266 	strbvs	r7, [r5, #-614]!	; 0xfffffd9a
    a46c:	20676e69 	rsbcs	r6, r7, r9, ror #28
    a470:	6c616e75 	stclvs	14, cr6, [r1], #-468	; 0xfffffe2c
    a474:	61636f6c 	cmnvs	r3, ip, ror #30
    a478:	20646574 	rsbcs	r6, r4, r4, ror r5
    a47c:	6f6d656d 	svcvs	0x006d656d
    a480:	203a7972 	eorscs	r7, sl, r2, ror r9
    a484:	74617473 	strbtvc	r7, [r1], #-1139	; 0xfffffb8d
    a488:	64253d65 	strtvs	r3, [r5], #-3429	; 0xfffff29b
    a48c:	0000000a 	andeq	r0, r0, sl
    a490:	7a646572 	bvc	1923a60 <__bss_end__+0x19189b8>
    a494:	20656e6f 	rsbcs	r6, r5, pc, ror #28
    a498:	77203123 	strvc	r3, [r0, -r3, lsr #2]!
    a49c:	63207361 			; <UNDEFINED> instruction: 0x63207361
    a4a0:	7572726f 	ldrbvc	r7, [r2, #-623]!	; 0xfffffd91
    a4a4:	64657470 	strbtvs	r7, [r5], #-1136	; 0xfffffb90
    a4a8:	00000a21 	andeq	r0, r0, r1, lsr #20
    a4ac:	7a646572 	bvc	1923a7c <__bss_end__+0x19189d4>
    a4b0:	20656e6f 	rsbcs	r6, r5, pc, ror #28
    a4b4:	77203223 	strvc	r3, [r0, -r3, lsr #4]!
    a4b8:	63207361 			; <UNDEFINED> instruction: 0x63207361
    a4bc:	7572726f 	ldrbvc	r7, [r2, #-623]!	; 0xfffffd91
    a4c0:	64657470 	strbtvs	r7, [r5], #-1136	; 0xfffffb90
    a4c4:	00000a21 	andeq	r0, r0, r1, lsr #20
    a4c8:	6c616b63 			; <UNDEFINED> instruction: 0x6c616b63
    a4cc:	2e636f6c 	cdpcs	15, 6, cr6, cr3, cr12, {3}
    a4d0:	00000063 	andeq	r0, r0, r3, rrx
    a4d4:	494e4150 	stmdbmi	lr, {r4, r6, r8, lr}^
    a4d8:	73253a43 			; <UNDEFINED> instruction: 0x73253a43
    a4dc:	3a73253a 	bcc	1cd39cc <__bss_end__+0x1cc8924>
    a4e0:	253a6425 	ldrcs	r6, [sl, #-1061]!	; 0xfffffbdb
    a4e4:	00000a73 	andeq	r0, r0, r3, ror sl
    a4e8:	705f6b63 	subsvc	r6, pc, r3, ror #22
    a4ec:	695f7274 	ldmdbvs	pc, {r2, r4, r5, r6, r9, ip, sp, lr}^	; <UNPREDICTABLE>
    a4f0:	6c615f73 	stclvs	15, cr5, [r1], #-460	; 0xfffffe34
    a4f4:	65636f6c 	strbvs	r6, [r3, #-3948]!	; 0xfffff094
    a4f8:	64612864 	strbtvs	r2, [r1], #-2148	; 0xfffff79c
    a4fc:	00297264 	eoreq	r7, r9, r4, ror #4
    a500:	6f6c6c61 	svcvs	0x006c6c61
    a504:	69746163 	ldmdbvs	r4!, {r0, r1, r5, r6, r8, sp, lr}^
    a508:	2520676e 	strcs	r6, [r0, #-1902]!	; 0xfffff892
    a50c:	25282070 	strcs	r2, [r8, #-112]!	; 0xffffff90
    a510:	79622064 	stmdbvc	r2!, {r2, r5, r6, sp}^
    a514:	29736574 	ldmdbcs	r3!, {r2, r4, r5, r6, r8, sl, sp, lr}^
    a518:	0000000a 	andeq	r0, r0, sl

0000a51c <__FUNCTION__.4078>:
    a51c:	72666b63 	rsbvc	r6, r6, #101376	; 0x18c00
    a520:	00006565 	andeq	r6, r0, r5, ror #10
    a524:	75716552 	ldrbvc	r6, [r1, #-1362]!	; 0xfffffaae
    a528:	74737265 	ldrbtvc	r7, [r3], #-613	; 0xfffffd9b
    a52c:	20676e69 	rsbcs	r6, r7, r9, ror #28
    a530:	65726f6d 	ldrbvs	r6, [r2, #-3949]!	; 0xfffff093
    a534:	6d656d20 	stclvs	13, cr6, [r5, #-128]!	; 0xffffff80
    a538:	2079726f 	rsbscs	r7, r9, pc, ror #4
    a53c:	29642528 	stmdbcs	r4!, {r3, r5, r8, sl, sp}^
    a540:	0a2e2e2e 	beq	b95e00 <__bss_end__+0xb8ad58>
    a544:	00000000 	andeq	r0, r0, r0
    a548:	672d6b63 	strvs	r6, [sp, -r3, ror #22]!
    a54c:	00632e63 	rsbeq	r2, r3, r3, ror #28
    a550:	203c2070 	eorscs	r2, ip, r0, ror r0
    a554:	00000065 	andeq	r0, r0, r5, rrx
    a558:	67696c61 	strbvs	r6, [r9, -r1, ror #24]!
    a55c:	2864656e 	stmdacs	r4!, {r1, r2, r3, r5, r6, r8, sl, sp, lr}^
    a560:	34202c70 	strtcc	r2, [r0], #-3184	; 0xfffff390
    a564:	00000029 	andeq	r0, r0, r9, lsr #32
    a568:	67696c61 	strbvs	r6, [r9, -r1, ror #24]!
    a56c:	2864656e 	stmdacs	r4!, {r1, r2, r3, r5, r6, r8, sl, sp, lr}^
    a570:	34202c65 	strtcc	r2, [r0], #-3173	; 0xfffff39b
    a574:	00000029 	andeq	r0, r0, r9, lsr #32
    a578:	6e696f67 	cdpvs	15, 6, cr6, cr9, cr7, {3}
    a57c:	6f742067 	svcvs	0x00742067
    a580:	72616d20 	rsbvc	r6, r1, #32, 26	; 0x800
    a584:	7025206b 	eorvc	r2, r5, fp, rrx
    a588:	20692820 	rsbcs	r2, r9, r0, lsr #16
    a58c:	70252040 	eorvc	r2, r5, r0, asr #32
    a590:	25203d20 	strcs	r3, [r0, #-3360]!	; 0xfffff2e0
    a594:	202c2970 	eorcs	r2, ip, r0, ror r9
    a598:	20707865 	rsbscs	r7, r0, r5, ror #16
    a59c:	7025203d 	eorvc	r2, r5, sp, lsr r0
    a5a0:	0000000a 	andeq	r0, r0, sl
    a5a4:	6b72616d 	blvs	1ca2b60 <__bss_end__+0x1c97ab8>
    a5a8:	20676e69 	rsbcs	r6, r7, r9, ror #28
    a5ac:	25207361 	strcs	r7, [r0, #-865]!	; 0xfffffc9f
    a5b0:	00000a64 	andeq	r0, r0, r4, ror #20
    a5b4:	20746f6e 	rsbscs	r6, r4, lr, ror #30
    a5b8:	6b72616d 	blvs	1ca2b74 <__bss_end__+0x1c97acc>
    a5bc:	21676e69 	cmncs	r7, r9, ror #28
    a5c0:	0000000a 	andeq	r0, r0, sl
    a5c4:	63656863 	cmnvs	r5, #6488064	; 0x630000
    a5c8:	676e696b 	strbvs	r6, [lr, -fp, ror #18]!
    a5cc:	61747320 	cmnvs	r4, r0, lsr #6
    a5d0:	203a6b63 	eorscs	r6, sl, r3, ror #22
    a5d4:	74207025 	strtvc	r7, [r0], #-37	; 0xffffffdb
    a5d8:	7025206f 	eorvc	r2, r5, pc, rrx
    a5dc:	0000000a 	andeq	r0, r0, sl
    a5e0:	2d2d2d2d 	stccs	13, cr2, [sp, #-180]!	; 0xffffff4c
    a5e4:	2d2d2d2d 	stccs	13, cr2, [sp, #-180]!	; 0xffffff4c
    a5e8:	2d2d2d2d 	stccs	13, cr2, [sp, #-180]!	; 0xffffff4c
    a5ec:	2d2d2d2d 	stccs	13, cr2, [sp, #-180]!	; 0xffffff4c
    a5f0:	2d2d2d2d 	stccs	13, cr2, [sp, #-180]!	; 0xffffff4c
    a5f4:	2d2d2d2d 	stccs	13, cr2, [sp, #-180]!	; 0xffffff4c
    a5f8:	2d2d2d2d 	stccs	13, cr2, [sp, #-180]!	; 0xffffff4c
    a5fc:	2d2d2d2d 	stccs	13, cr2, [sp, #-180]!	; 0xffffff4c
    a600:	2d2d2d2d 	stccs	13, cr2, [sp, #-180]!	; 0xffffff4c
    a604:	2d2d2d2d 	stccs	13, cr2, [sp, #-180]!	; 0xffffff4c
    a608:	2d2d2d2d 	stccs	13, cr2, [sp, #-180]!	; 0xffffff4c
    a60c:	2d2d2d2d 	stccs	13, cr2, [sp, #-180]!	; 0xffffff4c
    a610:	2d2d2d2d 	stccs	13, cr2, [sp, #-180]!	; 0xffffff4c
    a614:	2d2d2d2d 	stccs	13, cr2, [sp, #-180]!	; 0xffffff4c
    a618:	00000a2d 	andeq	r0, r0, sp, lsr #20
    a61c:	63656863 	cmnvs	r5, #6488064	; 0x630000
    a620:	676e696b 	strbvs	r6, [lr, -fp, ror #18]!
    a624:	726f6620 	rsbvc	r6, pc, #32, 12	; 0x2000000
    a628:	61656c20 	cmnvs	r5, r0, lsr #24
    a62c:	0a3a736b 	beq	ea73e0 <__bss_end__+0xe9c338>
    a630:	00000000 	andeq	r0, r0, r0
    a634:	4c3a4347 	ldcmi	3, cr4, [sl], #-284	; 0xfffffee4
    a638:	2054534f 	subscs	r5, r4, pc, asr #6
    a63c:	2d206425 	cfstrscs	mvf6, [r0, #-148]!	; 0xffffff6c
    a640:	7025203e 	eorvc	r2, r5, lr, lsr r0
    a644:	0000000a 	andeq	r0, r0, sl
    a648:	4d3a4347 	ldcmi	3, cr4, [sl, #-284]!	; 0xfffffee4
    a64c:	45425941 	strbmi	r5, [r2, #-2369]	; 0xfffff6bf
    a650:	534f4c20 	movtpl	r4, #64544	; 0xfc20
    a654:	64252054 	strtvs	r2, [r5], #-84	; 0xffffffac
    a658:	203e2d20 	eorscs	r2, lr, r0, lsr #26
    a65c:	000a7025 	andeq	r7, sl, r5, lsr #32
    a660:	43415254 	movtmi	r5, #4692	; 0x1254
    a664:	47093a45 	strmi	r3, [r9, -r5, asr #20]
    a668:	68433a43 	stmdavs	r3, {r0, r1, r6, r9, fp, ip, sp}^
    a66c:	656b6365 	strbvs	r6, [fp, #-869]!	; 0xfffffc9b
    a670:	64252064 	strtvs	r2, [r5], #-100	; 0xffffff9c
    a674:	6f6c6220 	svcvs	0x006c6220
    a678:	2e736b63 	vsubcs.f64	d22, d3, d19
    a67c:	0000000a 	andeq	r0, r0, sl
    a680:	43415254 	movtmi	r5, #4692	; 0x1254
    a684:	09093a45 	stmdbeq	r9, {r0, r2, r6, r9, fp, ip, sp}
    a688:	533a4347 	teqpl	sl, #469762049	; 0x1c000001
    a68c:	45434355 	strbmi	r4, [r3, #-853]	; 0xfffffcab
    a690:	203a5353 	eorscs	r5, sl, r3, asr r3
    a694:	6c206f4e 	stcvs	15, cr6, [r0], #-312	; 0xfffffec8
    a698:	736b6165 	cmnvc	fp, #1073741849	; 0x40000019
    a69c:	756f6620 	strbvc	r6, [pc, #-1568]!	; a084 <kfree_all+0xc>
    a6a0:	0a21646e 	beq	863860 <__bss_end__+0x8587b8>
    a6a4:	00000000 	andeq	r0, r0, r0
    a6a8:	43415254 	movtmi	r5, #4692	; 0x1254
    a6ac:	09093a45 	stmdbeq	r9, {r0, r2, r6, r9, fp, ip, sp}
    a6b0:	453a4347 	ldrmi	r4, [sl, #-839]!	; 0xfffffcb9
    a6b4:	524f5252 	subpl	r5, pc, #536870917	; 0x20000005
    a6b8:	25203a53 	strcs	r3, [r0, #-2643]!	; 0xfffff5ad
    a6bc:	72652064 	rsbvc	r2, r5, #100, 0	; 0x64
    a6c0:	73726f72 	cmnvc	r2, #456	; 0x1c8
    a6c4:	6425202c 	strtvs	r2, [r5], #-44	; 0xffffffd4
    a6c8:	79616d20 	stmdbvc	r1!, {r5, r8, sl, fp, sp, lr}^
    a6cc:	655f6562 	ldrbvs	r6, [pc, #-1378]	; a172 <gpio_set_output+0x26>
    a6d0:	726f7272 	rsbvc	r7, pc, #536870919	; 0x20000007
    a6d4:	00000a73 	andeq	r0, r0, r3, ror sl
    a6d8:	2d2d2d2d 	stccs	13, cr2, [sp, #-180]!	; 0xffffff4c
    a6dc:	2d2d2d2d 	stccs	13, cr2, [sp, #-180]!	; 0xffffff4c
    a6e0:	2d2d2d2d 	stccs	13, cr2, [sp, #-180]!	; 0xffffff4c
    a6e4:	2d2d2d2d 	stccs	13, cr2, [sp, #-180]!	; 0xffffff4c
    a6e8:	2d2d2d2d 	stccs	13, cr2, [sp, #-180]!	; 0xffffff4c
    a6ec:	2d2d2d2d 	stccs	13, cr2, [sp, #-180]!	; 0xffffff4c
    a6f0:	2d2d2d2d 	stccs	13, cr2, [sp, #-180]!	; 0xffffff4c
    a6f4:	2d2d2d2d 	stccs	13, cr2, [sp, #-180]!	; 0xffffff4c
    a6f8:	2d2d2d2d 	stccs	13, cr2, [sp, #-180]!	; 0xffffff4c
    a6fc:	2d2d2d2d 	stccs	13, cr2, [sp, #-180]!	; 0xffffff4c
    a700:	2d2d2d2d 	stccs	13, cr2, [sp, #-180]!	; 0xffffff4c
    a704:	2d2d2d2d 	stccs	13, cr2, [sp, #-180]!	; 0xffffff4c
    a708:	2d2d2d2d 	stccs	13, cr2, [sp, #-180]!	; 0xffffff4c
    a70c:	2d2d2d2d 	stccs	13, cr2, [sp, #-180]!	; 0xffffff4c
    a710:	000a2d2d 	andeq	r2, sl, sp, lsr #26
    a714:	72636e69 	rsbvc	r6, r3, #1680	; 0x690
    a718:	6e656d65 	cdpvs	13, 6, cr6, cr5, cr5, {3}
    a71c:	203e2074 	eorscs	r2, lr, r4, ror r0
    a720:	00000030 	andeq	r0, r0, r0, lsr r0
    a724:	494e4150 	stmdbmi	lr, {r4, r6, r8, lr}^
    a728:	73253a43 			; <UNDEFINED> instruction: 0x73253a43
    a72c:	3a73253a 	bcc	1cd3c1c <__bss_end__+0x1cc8b74>
    a730:	6e3a6425 	cdpvs	4, 3, cr6, cr10, cr5, {1}
    a734:	6820746f 	stmdavs	r0!, {r0, r1, r2, r3, r5, r6, sl, ip, sp, lr}
    a738:	6c646e61 	stclvs	14, cr6, [r4], #-388	; 0xfffffe7c
    a73c:	0a676e69 	beq	19e60e8 <__bss_end__+0x19db040>
    a740:	0000000a 	andeq	r0, r0, sl
    a744:	73696874 	cmnvc	r9, #116, 16	; 0x740000
    a748:	6c6c6120 	stfvse	f6, [ip], #-128	; 0xffffff80
    a74c:	7461636f 	strbtvc	r6, [r1], #-879	; 0xfffffc91
    a750:	276e6f69 	strbcs	r6, [lr, -r9, ror #30]!
    a754:	65722073 	ldrbvs	r2, [r2, #-115]!	; 0xffffff8d
    a758:	6e6f7a64 	vnmulvs.f32	s15, s30, s9
    a75c:	77207365 	strvc	r7, [r0, -r5, ror #6]!
    a760:	20657265 	rsbcs	r7, r5, r5, ror #4
    a764:	74697277 	strbtvc	r7, [r9], #-631	; 0xfffffd89
    a768:	206e6574 	rsbcs	r6, lr, r4, ror r5
    a76c:	0a216f74 	beq	866544 <__bss_end__+0x85b49c>
    a770:	00000000 	andeq	r0, r0, r0
    a774:	20736177 	rsbscs	r6, r3, r7, ror r1
    a778:	64657375 	strbtvs	r7, [r5], #-885	; 0xfffffc8b
    a77c:	74666120 	strbtvc	r6, [r6], #-288	; 0xfffffee0
    a780:	66207265 	strtvs	r7, [r0], -r5, ror #4
    a784:	21656572 	smccs	22098	; 0x5652
    a788:	0000000a 	andeq	r0, r0, sl
    a78c:	494e4150 	stmdbmi	lr, {r4, r6, r8, lr}^
    a790:	73253a43 			; <UNDEFINED> instruction: 0x73253a43
    a794:	3a73253a 	bcc	1cd3c84 <__bss_end__+0x1cc8bdc>
    a798:	473a6425 	ldrmi	r6, [sl, -r5, lsr #8]!
    a79c:	73203a43 			; <UNDEFINED> instruction: 0x73203a43
    a7a0:	6c756f68 	ldclvs	15, cr6, [r5], #-416	; 0xfffffe60
    a7a4:	61682064 	cmnvs	r8, r4, rrx
    a7a8:	6e206576 	mcrvs	5, 1, r6, cr0, cr6, {3}
    a7ac:	656c206f 	strbvs	r2, [ip, #-111]!	; 0xffffff91
    a7b0:	21736b61 	cmncs	r3, r1, ror #22
    a7b4:	00000a0a 	andeq	r0, r0, sl, lsl #20
    a7b8:	43415254 	movtmi	r5, #4692	; 0x1254
    a7bc:	43473a45 	movtmi	r3, #31301	; 0x7a45
    a7c0:	5553203a 	ldrbpl	r2, [r3, #-58]	; 0xffffffc6
    a7c4:	53454343 	movtpl	r4, #21315	; 0x5343
    a7c8:	6e203a53 			; <UNDEFINED> instruction: 0x6e203a53
    a7cc:	656c206f 	strbvs	r2, [ip, #-111]!	; 0xffffff91
    a7d0:	21736b61 	cmncs	r3, r1, ror #22
    a7d4:	0000000a 	andeq	r0, r0, sl
    a7d8:	494e4150 	stmdbmi	lr, {r4, r6, r8, lr}^
    a7dc:	73253a43 			; <UNDEFINED> instruction: 0x73253a43
    a7e0:	3a73253a 	bcc	1cd3cd0 <__bss_end__+0x1cc8c28>
    a7e4:	473a6425 	ldrmi	r6, [sl, -r5, lsr #8]!
    a7e8:	73203a43 			; <UNDEFINED> instruction: 0x73203a43
    a7ec:	6c756f68 	ldclvs	15, cr6, [r5], #-416	; 0xfffffe60
    a7f0:	61682064 	cmnvs	r8, r4, rrx
    a7f4:	6c206576 	cfstr32vs	mvfx6, [r0], #-472	; 0xfffffe28
    a7f8:	736b6165 	cmnvc	fp, #1073741849	; 0x40000019
    a7fc:	000a0a21 	andeq	r0, sl, r1, lsr #20
    a800:	43415254 	movtmi	r5, #4692	; 0x1254
    a804:	43473a45 	movtmi	r3, #31301	; 0x7a45
    a808:	5553203a 	ldrbpl	r2, [r3, #-58]	; 0xffffffc6
    a80c:	53454343 	movtpl	r4, #21315	; 0x5343
    a810:	66203a53 			; <UNDEFINED> instruction: 0x66203a53
    a814:	646e756f 	strbtvs	r7, [lr], #-1391	; 0xfffffa91
    a818:	20642520 	rsbcs	r2, r4, r0, lsr #10
    a81c:	6b61656c 	blvs	1863dd4 <__bss_end__+0x1858d2c>
    a820:	000a2173 	andeq	r2, sl, r3, ror r1
    a824:	706d6f63 	rsbvc	r6, sp, r3, ror #30
    a828:	69746361 	ldmdbvs	r4!, {r0, r5, r6, r8, r9, sp, lr}^
    a82c:	0a3a676e 	beq	ea45ec <__bss_end__+0xe99544>
    a830:	00000000 	andeq	r0, r0, r0
    a834:	463a4347 	ldrtmi	r4, [sl], -r7, asr #6
    a838:	44454552 	strbmi	r4, [r5], #-1362	; 0xfffffaae
    a83c:	0a702520 	beq	1c13cc4 <__bss_end__+0x1c08c1c>
    a840:	00000000 	andeq	r0, r0, r0
    a844:	43415254 	movtmi	r5, #4692	; 0x1254
    a848:	47093a45 	strmi	r3, [r9, -r5, asr #20]
    a84c:	68433a43 	stmdavs	r3, {r0, r1, r6, r9, fp, ip, sp}^
    a850:	656b6365 	strbvs	r6, [fp, #-869]!	; 0xfffffc9b
    a854:	64252064 	strtvs	r2, [r5], #-100	; 0xffffff9c
    a858:	6f6c6220 	svcvs	0x006c6220
    a85c:	2c736b63 			; <UNDEFINED> instruction: 0x2c736b63
    a860:	65726620 	ldrbvs	r6, [r2, #-1568]!	; 0xfffff9e0
    a864:	25206465 	strcs	r6, [r0, #-1125]!	; 0xfffffb9b
    a868:	25202c64 	strcs	r2, [r0, #-3172]!	; 0xfffff39c
    a86c:	79622064 	stmdbvc	r2!, {r2, r5, r6, sp}^
    a870:	0a736574 	beq	1ce3e48 <__bss_end__+0x1cd8da0>
    a874:	00000000 	andeq	r0, r0, r0
    a878:	494e4150 	stmdbmi	lr, {r4, r6, r8, lr}^
    a87c:	73253a43 			; <UNDEFINED> instruction: 0x73253a43
    a880:	3a73253a 	bcc	1cd3d70 <__bss_end__+0x1cc8cc8>
    a884:	643a6425 	ldrtvs	r6, [sl], #-1061	; 0xfffffbdb
    a888:	6e206469 	cdpvs	4, 2, cr6, cr0, cr9, {3}
    a88c:	6920746f 	stmdbvs	r0!, {r0, r1, r2, r3, r5, r6, sl, ip, sp, lr}
    a890:	656c706d 	strbvs	r7, [ip, #-109]!	; 0xffffff93
    a894:	746e656d 	strbtvc	r6, [lr], #-1389	; 0xfffffa93
    a898:	6d756420 	cfldrdvs	mvd6, [r5, #-128]!	; 0xffffff80
    a89c:	65725f70 	ldrbvs	r5, [r2, #-3952]!	; 0xfffff090
    a8a0:	0a217367 	beq	867644 <__bss_end__+0x85c59c>
    a8a4:	0000000a 	andeq	r0, r0, sl

0000a8a8 <__FUNCTION__.4046>:
    a8a8:	6b72616d 	blvs	1ca2e64 <__bss_end__+0x1c97dbc>
    a8ac:	00000000 	andeq	r0, r0, r0

0000a8b0 <__FUNCTION__.4033>:
    a8b0:	6b726273 	blvs	1ca3284 <__bss_end__+0x1c981dc>
    a8b4:	00000000 	andeq	r0, r0, r0

0000a8b8 <__FUNCTION__.4107>:
    a8b8:	63656863 	cmnvs	r5, #6488064	; 0x630000
    a8bc:	6f6e5f6b 	svcvs	0x006e5f6b
    a8c0:	61656c5f 	cmnvs	r5, pc, asr ip
    a8c4:	0000006b 	andeq	r0, r0, fp, rrx

0000a8c8 <__FUNCTION__.4112>:
    a8c8:	63656863 	cmnvs	r5, #6488064	; 0x630000
    a8cc:	68735f6b 	ldmdavs	r3!, {r0, r1, r3, r5, r6, r8, r9, sl, fp, ip, lr}^
    a8d0:	646c756f 	strbtvs	r7, [ip], #-1391	; 0xfffffa91
    a8d4:	61656c5f 	cmnvs	r5, pc, asr ip
    a8d8:	0000006b 	andeq	r0, r0, fp, rrx

0000a8dc <__FUNCTION__.4120>:
    a8dc:	65657773 	strbvs	r7, [r5, #-1907]!	; 0xfffff88d
    a8e0:	72665f70 	rsbvc	r5, r6, #112, 30	; 0x1c0
    a8e4:	00006565 	andeq	r6, r0, r5, ror #10

0000a8e8 <__FUNCTION__.4131>:
    a8e8:	6c706d69 	ldclvs	13, cr6, [r0], #-420	; 0xfffffe5c
    a8ec:	6e656d65 	cdpvs	13, 6, cr6, cr5, cr5, {3}
    a8f0:	68745f74 	ldmdavs	r4!, {r2, r4, r5, r6, r8, r9, sl, fp, ip, lr}^
    a8f4:	00007369 	andeq	r7, r0, r9, ror #6
    a8f8:	696c2f2e 	stmdbvs	ip!, {r1, r2, r3, r5, r8, r9, sl, fp, sp}^
    a8fc:	762f6362 	strtvc	r6, [pc], -r2, ror #6
    a900:	72702d61 	rsbsvc	r2, r0, #6208	; 0x1840
    a904:	6b746e69 	blvs	1d262b0 <__bss_end__+0x1d1b208>
    a908:	0000632e 	andeq	r6, r0, lr, lsr #6
    a90c:	33323130 	teqcc	r2, #12
    a910:	37363534 			; <UNDEFINED> instruction: 0x37363534
    a914:	62613938 	rsbvs	r3, r1, #56, 18	; 0xe0000
    a918:	66656463 	strbtvs	r6, [r5], -r3, ror #8
    a91c:	00000000 	andeq	r0, r0, r0
    a920:	00003130 	andeq	r3, r0, r0, lsr r1
    a924:	33323130 	teqcc	r2, #12
    a928:	37363534 			; <UNDEFINED> instruction: 0x37363534
    a92c:	00003938 	andeq	r3, r0, r8, lsr r9
    a930:	63747570 	cmnvs	r4, #112, 10	; 0x1c000000
    a934:	0070665f 	rsbseq	r6, r0, pc, asr r6
    a938:	74646977 	strbtvc	r6, [r4], #-2423	; 0xfffff689
    a93c:	203c2068 	eorscs	r2, ip, r8, rrx
    a940:	00003233 	andeq	r3, r0, r3, lsr r2
    a944:	00786c6c 	rsbseq	r6, r8, ip, ror #24
    a948:	253d3078 	ldrcs	r3, [sp, #-120]!	; 0xffffff88
    a94c:	00000a78 	andeq	r0, r0, r8, ror sl
    a950:	253d3178 	ldrcs	r3, [sp, #-376]!	; 0xfffffe88
    a954:	00000a78 	andeq	r0, r0, r8, ror sl
    a958:	00646c6c 	rsbeq	r6, r4, ip, ror #24
    a95c:	6e727473 	mrcvs	4, 3, r7, cr2, cr3, {3}
    a960:	28706d63 	ldmdacs	r0!, {r0, r1, r5, r6, r8, sl, fp, sp, lr}^
    a964:	202c7974 	eorcs	r7, ip, r4, ror r9
    a968:	786c6c22 	stmdavc	ip!, {r1, r5, sl, fp, sp, lr}^
    a96c:	33202c22 			; <UNDEFINED> instruction: 0x33202c22
    a970:	3d3d2029 	ldccc	0, cr2, [sp, #-164]!	; 0xffffff5c
    a974:	7c203020 	stcvc	0, cr3, [r0], #-128	; 0xffffff80
    a978:	7473207c 	ldrbtvc	r2, [r3], #-124	; 0xffffff84
    a97c:	6d636e72 	stclvs	14, cr6, [r3, #-456]!	; 0xfffffe38
    a980:	79742870 	ldmdbvc	r4!, {r4, r5, r6, fp, sp}^
    a984:	6c22202c 	stcvs	0, cr2, [r2], #-176	; 0xffffff50
    a988:	2c22646c 	cfstrscs	mvf6, [r2], #-432	; 0xfffffe50
    a98c:	20293320 	eorcs	r3, r9, r0, lsr #6
    a990:	30203d3d 	eorcc	r3, r0, sp, lsr sp
    a994:	00000000 	andeq	r0, r0, r0
    a998:	494e4150 	stmdbmi	lr, {r4, r6, r8, lr}^
    a99c:	73253a43 			; <UNDEFINED> instruction: 0x73253a43
    a9a0:	3a73253a 	bcc	1cd3e90 <__bss_end__+0x1cc8de8>
    a9a4:	693a6425 	ldmdbvs	sl!, {r0, r2, r5, sl, sp, lr}
    a9a8:	736f706d 	cmnvc	pc, #109, 0	; 0x6d
    a9ac:	6c626973 			; <UNDEFINED> instruction: 0x6c626973
    a9b0:	66203a65 	strtvs	r3, [r0], -r5, ror #20
    a9b4:	3c3d746d 	cfldrscc	mvf7, [sp], #-436	; 0xfffffe4c
    a9b8:	0a3e7325 	beq	fa7654 <__bss_end__+0xf9c5ac>
    a9bc:	0000000a 	andeq	r0, r0, sl
    a9c0:	494e4150 	stmdbmi	lr, {r4, r6, r8, lr}^
    a9c4:	73253a43 			; <UNDEFINED> instruction: 0x73253a43
    a9c8:	3a73253a 	bcc	1cd3eb8 <__bss_end__+0x1cc8e10>
    a9cc:	663a6425 	ldrtvs	r6, [sl], -r5, lsr #8
    a9d0:	74616f6c 	strbtvc	r6, [r1], #-3948	; 0xfffff094
    a9d4:	746f6e20 	strbtvc	r6, [pc], #-3616	; a9dc <__FUNCTION__.4131+0xf4>
    a9d8:	616e6520 	cmnvs	lr, r0, lsr #10
    a9dc:	64656c62 	strbtvs	r6, [r5], #-3170	; 0xfffff39e
    a9e0:	0a212121 	beq	852e6c <__bss_end__+0x847dc4>
    a9e4:	00000000 	andeq	r0, r0, r0
    a9e8:	6e697270 	mcrvs	2, 3, r7, cr9, cr0, {3}
    a9ec:	203a6b74 	eorscs	r6, sl, r4, ror fp
    a9f0:	20746f6e 	rsbscs	r6, r4, lr, ror #30
    a9f4:	646e6168 	strbtvs	r6, [lr], #-360	; 0xfffffe98
    a9f8:	676e696c 	strbvs	r6, [lr, -ip, ror #18]!
    a9fc:	65707320 	ldrbvs	r7, [r0, #-800]!	; 0xfffffce0
    aa00:	69666963 	stmdbvs	r6!, {r0, r1, r5, r6, r8, fp, sp, lr}^
    aa04:	27207265 	strcs	r7, [r0, -r5, ror #4]!
    aa08:	20276325 	eorcs	r6, r7, r5, lsr #6
    aa0c:	63736128 	cmnvs	r3, #10
    aa10:	253d6969 	ldrcs	r6, [sp, #-2409]!	; 0xfffff697
    aa14:	000a2964 	andeq	r2, sl, r4, ror #18
    aa18:	494e4150 	stmdbmi	lr, {r4, r6, r8, lr}^
    aa1c:	73253a43 			; <UNDEFINED> instruction: 0x73253a43
    aa20:	3a73253a 	bcc	1cd3f10 <__bss_end__+0x1cc8e68>
    aa24:	703a6425 	eorsvc	r6, sl, r5, lsr #8
    aa28:	746e6972 	strbtvc	r6, [lr], #-2418	; 0xfffff68e
    aa2c:	7265206b 	rsbvc	r2, r5, #107, 0	; 0x6b
    aa30:	0a726f72 	beq	1ca6800 <__bss_end__+0x1c9b758>
    aa34:	0000000a 	andeq	r0, r0, sl

0000aa38 <__FUNCTION__.4004>:
    aa38:	74696d65 	strbtvc	r6, [r9], #-3429	; 0xfffff29b
    aa3c:	00000000 	andeq	r0, r0, r0

0000aa40 <__FUNCTION__.3952>:
    aa40:	5f697072 	svcpl	0x00697072
    aa44:	5f746573 	svcpl	0x00746573
    aa48:	7074756f 	rsbsvc	r7, r4, pc, ror #10
    aa4c:	00007475 	andeq	r7, r0, r5, ror r4

0000aa50 <__FUNCTION__.4030>:
    aa50:	705f6176 	subsvc	r6, pc, r6, ror r1	; <UNPREDICTABLE>
    aa54:	746e6972 	strbtvc	r6, [lr], #-2418	; 0xfffff68e
    aa58:	0000006b 	andeq	r0, r0, fp, rrx
    aa5c:	454e4f44 	strbmi	r4, [lr, #-3908]	; 0xfffff0bc
    aa60:	0a212121 	beq	852eec <__bss_end__+0x847e44>
    aa64:	00000000 	andeq	r0, r0, r0
    aa68:	6c616d6b 	stclvs	13, cr6, [r1], #-428	; 0xfffffe54
    aa6c:	2e636f6c 	cdpcs	15, 6, cr6, cr3, cr12, {3}
    aa70:	00000063 	andeq	r0, r0, r3, rrx
    aa74:	5f78616d 	svcpl	0x0078616d
    aa78:	7479626e 	ldrbtvc	r6, [r9], #-622	; 0xfffffd92
    aa7c:	00007365 	andeq	r7, r0, r5, ror #6
    aa80:	494e4150 	stmdbmi	lr, {r4, r6, r8, lr}^
    aa84:	73253a43 			; <UNDEFINED> instruction: 0x73253a43
    aa88:	3a73253a 	bcc	1cd3f78 <__bss_end__+0x1cc8ed0>
    aa8c:	733a6425 	teqvc	sl, #620756992	; 0x25000000
    aa90:	69747465 	ldmdbvs	r4!, {r0, r2, r5, r6, sl, ip, sp, lr}^
    aa94:	6820676e 	stmdavs	r0!, {r1, r2, r3, r5, r6, r8, r9, sl, sp, lr}
    aa98:	20706165 	rsbscs	r6, r0, r5, ror #2
    aa9c:	25206f74 	strcs	r6, [r0, #-3956]!	; 0xfffff08c
    aaa0:	77203a70 			; <UNDEFINED> instruction: 0x77203a70
    aaa4:	206c6c69 	rsbcs	r6, ip, r9, ror #24
    aaa8:	20746968 	rsbscs	r6, r4, r8, ror #18
    aaac:	20656874 	rsbcs	r6, r5, r4, ror r8
    aab0:	20646c6f 	rsbcs	r6, r4, pc, ror #24
    aab4:	70616568 	rsbvc	r6, r1, r8, ror #10
    aab8:	20746120 	rsbscs	r6, r4, r0, lsr #2
    aabc:	0a0a7025 	beq	2a6b58 <__bss_end__+0x29bab0>
    aac0:	00000000 	andeq	r0, r0, r0
    aac4:	494e4150 	stmdbmi	lr, {r4, r6, r8, lr}^
    aac8:	73253a43 			; <UNDEFINED> instruction: 0x73253a43
    aacc:	3a73253a 	bcc	1cd3fbc <__bss_end__+0x1cc8f14>
    aad0:	613a6425 	teqvs	sl, r5, lsr #8
    aad4:	6165726c 	cmnvs	r5, ip, ror #4
    aad8:	63207964 			; <UNDEFINED> instruction: 0x63207964
    aadc:	656c6c61 	strbvs	r6, [ip, #-3169]!	; 0xfffff39f
    aae0:	6d6b2064 	stclvs	0, cr2, [fp, #-400]!	; 0xfffffe70
    aae4:	6f6c6c61 	svcvs	0x006c6c61
    aae8:	6e695f63 	cdpvs	15, 6, cr5, cr9, cr3, {3}
    aaec:	0a0a7469 	beq	2a7c98 <__bss_end__+0x29cbf0>
    aaf0:	00000000 	andeq	r0, r0, r0
    aaf4:	494e4150 	stmdbmi	lr, {r4, r6, r8, lr}^
    aaf8:	73253a43 			; <UNDEFINED> instruction: 0x73253a43
    aafc:	3a73253a 	bcc	1cd3fec <__bss_end__+0x1cc8f44>
    ab00:	253a6425 	ldrcs	r6, [sl, #-1061]!	; 0xfffffbdb
    ab04:	626e2064 	rsbvs	r2, lr, #100, 0	; 0x64
    ab08:	73657479 	cmnvc	r5, #2030043136	; 0x79000000
    ab0c:	63786520 	cmnvs	r8, #32, 10	; 0x8000000
    ab10:	65646565 	strbvs	r6, [r4, #-1381]!	; 0xfffffa9b
    ab14:	69732064 	ldmdbvs	r3!, {r2, r5, r6, sp}^
    ab18:	6f20657a 	svcvs	0x0020657a
    ab1c:	65682066 	strbvs	r2, [r8, #-102]!	; 0xffffff9a
    ab20:	62207061 	eorvs	r7, r0, #97, 0	; 0x61
    ab24:	75252079 	strvc	r2, [r5, #-121]!	; 0xffffff87
    ab28:	79626e20 	stmdbvc	r2!, {r5, r9, sl, fp, sp, lr}^
    ab2c:	0a736574 	beq	1ce4104 <__bss_end__+0x1cd905c>
    ab30:	0000000a 	andeq	r0, r0, sl
    ab34:	4f525245 	svcmi	0x00525245
    ab38:	73253a52 			; <UNDEFINED> instruction: 0x73253a52
    ab3c:	3a73253a 	bcc	1cd402c <__bss_end__+0x1cc8f84>
    ab40:	203a6425 	eorscs	r6, sl, r5, lsr #8
    ab44:	534c4146 	movtpl	r4, #49478	; 0xc146
    ab48:	253c2845 	ldrcs	r2, [ip, #-2117]!	; 0xfffff7bb
    ab4c:	3a293e73 	bcc	a5a520 <__bss_end__+0xa4f478>
    ab50:	73736120 	cmnvc	r3, #8
    ab54:	6e696d75 	mcrvs	13, 3, r6, cr9, cr5, {3}
    ab58:	6f702067 	svcvs	0x00702067
    ab5c:	20726577 	rsbscs	r6, r2, r7, ror r5
    ab60:	7420666f 	strtvc	r6, [r0], #-1647	; 0xfffff991
    ab64:	000a6f77 	andeq	r6, sl, r7, ror pc
    ab68:	705f7369 	subsvc	r7, pc, r9, ror #6
    ab6c:	2832776f 	ldmdacs	r2!, {r0, r1, r2, r3, r5, r6, r8, r9, sl, ip, sp, lr}
    ab70:	67696c61 	strbvs	r6, [r9, -r1, ror #24]!
    ab74:	6e656d6e 	cdpvs	13, 6, cr6, cr5, cr14, {3}
    ab78:	00002974 	andeq	r2, r0, r4, ror r9
    ab7c:	705f7369 	subsvc	r7, pc, r9, ror #6
    ab80:	2832776f 	ldmdacs	r2!, {r0, r1, r2, r3, r5, r6, r8, r9, sl, ip, sp, lr}
    ab84:	0000296e 	andeq	r2, r0, lr, ror #18
    ab88:	4f525245 	svcmi	0x00525245
    ab8c:	73253a52 			; <UNDEFINED> instruction: 0x73253a52
    ab90:	3a73253a 	bcc	1cd4080 <__bss_end__+0x1cc8fd8>
    ab94:	203a6425 	eorscs	r6, sl, r5, lsr #8
    ab98:	534c4146 	movtpl	r4, #49478	; 0xc146
    ab9c:	253c2845 	ldrcs	r2, [ip, #-2117]!	; 0xfffff7bb
    aba0:	3a293e73 	bcc	a5a574 <__bss_end__+0xa4f4cc>
    aba4:	706d6920 	rsbvc	r6, sp, r0, lsr #18
    aba8:	6973736f 	ldmdbvs	r3!, {r0, r1, r2, r3, r5, r6, r8, r9, ip, sp, lr}^
    abac:	0a656c62 	beq	1965d3c <__bss_end__+0x195ac94>
    abb0:	00000000 	andeq	r0, r0, r0
    abb4:	615f7369 	cmpvs	pc, r9, ror #6
    abb8:	6e67696c 	vnmulvs.f16	s13, s14, s25	; <UNPREDICTABLE>
    abbc:	68286465 	stmdavs	r8!, {r0, r2, r5, r6, sl, sp, lr}
    abc0:	6c61202c 	stclvs	0, cr2, [r1], #-176	; 0xffffff50
    abc4:	6d6e6769 	stclvs	7, cr6, [lr, #-420]!	; 0xfffffe5c
    abc8:	29746e65 	ldmdbcs	r4!, {r0, r2, r5, r6, r9, sl, fp, sp, lr}^
    abcc:	00000000 	andeq	r0, r0, r0
    abd0:	494e4150 	stmdbmi	lr, {r4, r6, r8, lr}^
    abd4:	73253a43 			; <UNDEFINED> instruction: 0x73253a43
    abd8:	3a73253a 	bcc	1cd40c8 <__bss_end__+0x1cc9020>
    abdc:	703a6425 	eorsvc	r6, sl, r5, lsr #8
    abe0:	746e696f 	strbtvc	r6, [lr], #-2415	; 0xfffff691
    abe4:	25207265 	strcs	r7, [r0, #-613]!	; 0xfffffd9b
    abe8:	61772070 	cmnvs	r7, r0, ror r0
    abec:	656e2073 	strbvs	r2, [lr, #-115]!	; 0xffffff8d
    abf0:	20726576 	rsbscs	r6, r2, r6, ror r5
    abf4:	6f6c6c61 	svcvs	0x006c6c61
    abf8:	65746163 	ldrbvs	r6, [r4, #-355]!	; 0xfffffe9d
    abfc:	000a0a64 	andeq	r0, sl, r4, ror #20

0000ac00 <__FUNCTION__.7>:
    ac00:	6c616d6b 	stclvs	13, cr6, [r1], #-428	; 0xfffffe54
    ac04:	5f636f6c 	svcpl	0x00636f6c
    ac08:	74696e69 	strbtvc	r6, [r9], #-3689	; 0xfffff197
    ac0c:	7465735f 	strbtvc	r7, [r5], #-863	; 0xfffffca1
    ac10:	6174735f 	cmnvs	r4, pc, asr r3
    ac14:	00007472 	andeq	r7, r0, r2, ror r4

0000ac18 <__FUNCTION__.5>:
    ac18:	6c616d6b 	stclvs	13, cr6, [r1], #-428	; 0xfffffe54
    ac1c:	5f636f6c 	svcpl	0x00636f6c
    ac20:	74696e69 	strbtvc	r6, [r9], #-3689	; 0xfffff197
    ac24:	00000000 	andeq	r0, r0, r0

0000ac28 <__FUNCTION__.4>:
    ac28:	6c616d6b 	stclvs	13, cr6, [r1], #-428	; 0xfffffe54
    ac2c:	5f636f6c 	svcpl	0x00636f6c
    ac30:	7a746f6e 	bvc	1d269f0 <__bss_end__+0x1d1b948>
    ac34:	006f7265 	rsbeq	r7, pc, r5, ror #4

0000ac38 <__FUNCTION__.2>:
    ac38:	6c616d6b 	stclvs	13, cr6, [r1], #-428	; 0xfffffe54
    ac3c:	00636f6c 	rsbeq	r6, r3, ip, ror #30

0000ac40 <__FUNCTION__.1>:
    ac40:	6c616d6b 	stclvs	13, cr6, [r1], #-428	; 0xfffffe54
    ac44:	5f636f6c 	svcpl	0x00636f6c
    ac48:	67696c61 	strbvs	r6, [r9, -r1, ror #24]!
    ac4c:	0064656e 	rsbeq	r6, r4, lr, ror #10

0000ac50 <__FUNCTION__.3>:
    ac50:	6e756f72 	mrcvs	15, 3, r6, cr5, cr2, {3}
    ac54:	00707564 	rsbseq	r7, r0, r4, ror #10

0000ac58 <__FUNCTION__.0>:
    ac58:	6572666b 	ldrbvs	r6, [r2, #-1643]!	; 0xfffff995
    ac5c:	6f705f65 	svcvs	0x00705f65
    ac60:	Address 0x000000000000ac60 is out of bounds.


Disassembly of section .data:

0000ac64 <putk>:
    ac64:	00008df8 	strdeq	r8, [r0], -r8	; <UNPREDICTABLE>

0000ac68 <lfsr>:
    ac68:	0000ace1 	andeq	sl, r0, r1, ror #25

0000ac6c <heap>:
    ac6c:	0000b0a8 	andeq	fp, r0, r8, lsr #1

0000ac70 <heap_start>:
    ac70:	0000b0a8 	andeq	fp, r0, r8, lsr #1

0000ac74 <heap_end>:
    ac74:	0020b0a8 	eoreq	fp, r0, r8, lsr #1

0000ac78 <rpi_putchar>:
    ac78:	0000a284 	andeq	sl, r0, r4, lsl #5

Disassembly of section .bss:

0000ac80 <__bss_start__>:
	...

0000ac88 <freep>:
	...

0000ac90 <base>:
	...

0000ac98 <heap_start>:
    ac98:	00000000 	andeq	r0, r0, r0

0000ac9c <heap_end>:
    ac9c:	00000000 	andeq	r0, r0, r0

0000aca0 <init_p.4032>:
    aca0:	00000000 	andeq	r0, r0, r0

0000aca4 <buf.3944>:
	...

0000b0a4 <init_p.6>:
    b0a4:	00000000 	andeq	r0, r0, r0

Disassembly of section .ARM.attributes:

00000000 <.ARM.attributes>:
   0:	00002a41 	andeq	r2, r0, r1, asr #20
   4:	61656100 	cmnvs	r5, r0, lsl #2
   8:	01006962 	tsteq	r0, r2, ror #18
   c:	00000020 	andeq	r0, r0, r0, lsr #32
  10:	4b5a3605 	blmi	168d82c <__bss_end__+0x1682784>
  14:	08070600 	stmdaeq	r7, {r9, sl}
  18:	12010901 	andne	r0, r1, #16384	; 0x4000
  1c:	15011404 	strne	r1, [r1, #-1028]	; 0xfffffbfc
  20:	18031701 	stmdane	r3, {r0, r8, r9, sl, ip}
  24:	22011a01 	andcs	r1, r1, #4096	; 0x1000
  28:	Address 0x0000000000000028 is out of bounds.


Disassembly of section .comment:

00000000 <.comment>:
   0:	3a434347 	bcc	10d0d24 <__bss_end__+0x10c5c7c>
   4:	4e472820 	cdpmi	8, 4, cr2, cr7, cr0, {1}
   8:	6f542055 	svcvs	0x00542055
   c:	20736c6f 	rsbscs	r6, r3, pc, ror #24
  10:	20726f66 	rsbscs	r6, r2, r6, ror #30
  14:	206d7241 	rsbcs	r7, sp, r1, asr #4
  18:	65626d45 	strbvs	r6, [r2, #-3397]!	; 0xfffff2bb
  1c:	64656464 	strbtvs	r6, [r5], #-1124	; 0xfffffb9c
  20:	6f725020 	svcvs	0x00725020
  24:	73736563 	cmnvc	r3, #415236096	; 0x18c00000
  28:	2073726f 	rsbscs	r7, r3, pc, ror #4
  2c:	30322d39 	eorscc	r2, r2, r9, lsr sp
  30:	712d3931 			; <UNDEFINED> instruction: 0x712d3931
  34:	616d2d34 	cmnvs	sp, r4, lsr sp
  38:	29726f6a 	ldmdbcs	r2!, {r1, r3, r5, r6, r8, r9, sl, fp, sp, lr}^
  3c:	322e3920 	eorcc	r3, lr, #32, 18	; 0x80000
  40:	3220312e 	eorcc	r3, r0, #-2147483637	; 0x8000000b
  44:	31393130 	teqcc	r9, r0, lsr r1
  48:	20353230 	eorscs	r3, r5, r0, lsr r2
  4c:	6c657228 	sfmvs	f7, 2, [r5], #-160	; 0xffffff60
  50:	65736165 	ldrbvs	r6, [r3, #-357]!	; 0xfffffe9b
  54:	415b2029 	cmpmi	fp, r9, lsr #32
  58:	612f4d52 			; <UNDEFINED> instruction: 0x612f4d52
  5c:	392d6d72 	pushcc	{r1, r4, r5, r6, r8, sl, fp, sp, lr}
  60:	6172622d 	cmnvs	r2, sp, lsr #4
  64:	2068636e 	rsbcs	r6, r8, lr, ror #6
  68:	69766572 	ldmdbvs	r6!, {r1, r4, r5, r6, r8, sl, sp, lr}^
  6c:	6e6f6973 			; <UNDEFINED> instruction: 0x6e6f6973
  70:	37373220 	ldrcc	r3, [r7, -r0, lsr #4]!
  74:	5d393935 			; <UNDEFINED> instruction: 0x5d393935
  78:	43434700 	movtmi	r4, #14080	; 0x3700
  7c:	4728203a 			; <UNDEFINED> instruction: 0x4728203a
  80:	4120554e 			; <UNDEFINED> instruction: 0x4120554e
  84:	45206d72 	strmi	r6, [r0, #-3442]!	; 0xfffff28e
  88:	6465626d 	strbtvs	r6, [r5], #-621	; 0xfffffd93
  8c:	20646564 	rsbcs	r6, r4, r4, ror #10
  90:	6c6f6f54 	stclvs	15, cr6, [pc], #-336	; ffffff48 <__bss_end__+0xffff4ea0>
  94:	69616863 	stmdbvs	r1!, {r0, r1, r5, r6, fp, sp, lr}^
  98:	3031206e 	eorscc	r2, r1, lr, rrx
  9c:	322d332e 	eorcc	r3, sp, #-1207959552	; 0xb8000000
  a0:	2e313230 	mrccs	2, 1, r3, cr1, cr0, {1}
  a4:	20293031 	eorcs	r3, r9, r1, lsr r0
  a8:	332e3031 			; <UNDEFINED> instruction: 0x332e3031
  ac:	3220312e 	eorcc	r3, r0, #-2147483637	; 0x8000000b
  b0:	30313230 	eorscc	r3, r1, r0, lsr r2
  b4:	20343238 	eorscs	r3, r4, r8, lsr r2
  b8:	6c657228 	sfmvs	f7, 2, [r5], #-160	; 0xffffff60
  bc:	65736165 	ldrbvs	r6, [r3, #-357]!	; 0xfffffe9b
  c0:	Address 0x00000000000000c0 is out of bounds.


Disassembly of section .debug_info:

00000000 <.debug_info>:
       0:	000003a2 	andeq	r0, r0, r2, lsr #7
       4:	00000004 	andeq	r0, r0, r4
       8:	01040000 	mrseq	r0, (UNDEF: 4)
       c:	000000c5 	andeq	r0, r0, r5, asr #1
      10:	00005a0c 	andeq	r5, r0, ip, lsl #20
      14:	00008c00 	andeq	r8, r0, r0, lsl #24
      18:	00803800 	addeq	r3, r0, r0, lsl #16
      1c:	0000e800 	andeq	lr, r0, r0, lsl #16
      20:	00000000 	andeq	r0, r0, r0
      24:	05040200 	streq	r0, [r4, #-512]	; 0xfffffe00
      28:	00746e69 	rsbseq	r6, r4, r9, ror #28
      2c:	91070403 	tstls	r7, r3, lsl #8
      30:	03000001 	movweq	r0, #1
      34:	00410601 	subeq	r0, r1, r1, lsl #12
      38:	02030000 	andeq	r0, r3, #0, 0
      3c:	0001ce05 	andeq	ip, r1, r5, lsl #28
      40:	05040300 	streq	r0, [r4, #-768]	; 0xfffffd00
      44:	000001b2 			; <UNDEFINED> instruction: 0x000001b2
      48:	ad050803 	stcge	8, cr0, [r5, #-12]
      4c:	03000001 	movweq	r0, #1
      50:	003f0801 	eorseq	r0, pc, r1, lsl #16
      54:	02030000 	andeq	r0, r3, #0, 0
      58:	00007907 	andeq	r7, r0, r7, lsl #18
      5c:	07040300 	streq	r0, [r4, -r0, lsl #6]
      60:	0000018c 	andeq	r0, r0, ip, lsl #3
      64:	87070803 	strhi	r0, [r7, -r3, lsl #16]
      68:	04000001 	streq	r0, [r0], #-1
      6c:	00000025 	andeq	r0, r0, r5, lsr #32
      70:	0000007a 	andeq	r0, r0, sl, ror r0
      74:	00002505 	andeq	r2, r0, r5, lsl #10
      78:	bb060000 	bllt	180080 <__bss_end__+0x174fd8>
      7c:	03000001 	movweq	r0, #1
      80:	00860e1c 	addeq	r0, r6, ip, lsl lr
      84:	04070000 	streq	r0, [r7], #-0
      88:	0000006b 	andeq	r0, r0, fp, rrx
      8c:	00002504 	andeq	r2, r0, r4, lsl #10
      90:	00009b00 	andeq	r9, r0, r0, lsl #22
      94:	009b0500 	addseq	r0, fp, r0, lsl #10
      98:	07000000 	streq	r0, [r0, -r0]
      9c:	0000a804 	andeq	sl, r0, r4, lsl #16
      a0:	08010300 	stmdaeq	r1, {r8, r9}
      a4:	00000048 	andeq	r0, r0, r8, asr #32
      a8:	0000a108 	andeq	sl, r0, r8, lsl #2
      ac:	06060600 	streq	r0, [r6], -r0, lsl #12
      b0:	21030000 	mrscs	r0, (UNDEF: 3)
      b4:	0000b90e 	andeq	fp, r0, lr, lsl #18
      b8:	8c040700 	stchi	7, cr0, [r4], {-0}
      bc:	09000000 	stmdbeq	r0, {}	; <UNPREDICTABLE>
      c0:	0904020c 	stmdbeq	r4, {r2, r3, r9}
      c4:	000000f0 	strdeq	r0, [r0], -r0	; <UNPREDICTABLE>
      c8:	00003a0a 	andeq	r3, r0, sl, lsl #20
      cc:	11060200 	mrsne	r0, LR_usr
      d0:	0000009b 	muleq	r0, fp, r0
      d4:	00c00a00 	sbceq	r0, r0, r0, lsl #20
      d8:	07020000 	streq	r0, [r2, -r0]
      dc:	00009b11 	andeq	r9, r0, r1, lsl fp
      e0:	200a0400 	andcs	r0, sl, r0, lsl #8
      e4:	02000000 	andeq	r0, r0, #0, 0
      e8:	002c0e08 	eoreq	r0, ip, r8, lsl #28
      ec:	00080000 	andeq	r0, r8, r0
      f0:	0001d80b 	andeq	sp, r1, fp, lsl #16
      f4:	03090200 	movweq	r0, #37376	; 0x9200
      f8:	000000bf 	strheq	r0, [r0], -pc	; <UNPREDICTABLE>
      fc:	0006040c 	andeq	r0, r6, ip, lsl #8
     100:	04000000 	streq	r0, [r0], #-0
     104:	002c11a6 	eoreq	r1, ip, r6, lsr #3
     108:	270d0000 	strcs	r0, [sp, -r0]
     10c:	01000000 	mrseq	r0, (UNDEF: 0)
     110:	80380605 	eorshi	r0, r8, r5, lsl #12
     114:	00e80000 	rsceq	r0, r8, r0
     118:	9c010000 	stcls	0, cr0, [r1], {-0}
     11c:	00000306 	andeq	r0, r0, r6, lsl #6
     120:	0030700e 	eorseq	r7, r0, lr
     124:	fc0b0801 	stc2	8, cr0, [fp], {1}
     128:	06000000 	streq	r0, [r0], -r0
     12c:	00000000 	andeq	r0, r0, r0
     130:	0f000000 	svceq	0x00000000
     134:	0000017a 	andeq	r0, r0, sl, ror r1
     138:	00000316 	andeq	r0, r0, r6, lsl r3
     13c:	a41c0305 	ldrge	r0, [ip], #-773	; 0xfffffcfb
     140:	700e0000 	andvc	r0, lr, r0
     144:	09010031 	stmdbeq	r1, {r0, r4, r5}
     148:	0000fc0b 	andeq	pc, r0, fp, lsl #24
     14c:	00003500 	andeq	r3, r0, r0, lsl #10
     150:	00002f00 	andeq	r2, r0, r0, lsl #30
     154:	031b1000 	tsteq	fp, #0, 0
     158:	804c0000 	subhi	r0, ip, r0
     15c:	00000000 	andeq	r0, r0, r0
     160:	01000000 	mrseq	r0, (UNDEF: 0)
     164:	01921008 	orrseq	r1, r2, r8
     168:	44110000 	ldrmi	r0, [r1], #-0
     16c:	60000003 	andvs	r0, r0, r3
     170:	5e000000 	cdppl	0, 0, cr0, cr0, cr0, {0}
     174:	11000000 	mrsne	r0, (UNDEF: 0)
     178:	00000338 	andeq	r0, r0, r8, lsr r3
     17c:	00000076 	andeq	r0, r0, r6, ror r0
     180:	00000074 	andeq	r0, r0, r4, ror r0
     184:	00032c11 	andeq	r2, r3, r1, lsl ip
     188:	00009000 	andeq	r9, r0, r0
     18c:	00008e00 	andeq	r8, r0, r0, lsl #28
     190:	1b120000 	blne	480198 <__bss_end__+0x4750f0>
     194:	7c000003 	stcvc	0, cr0, [r0], {3}
     198:	00000080 	andeq	r0, r0, r0, lsl #1
     19c:	0000807c 	andeq	r8, r0, ip, ror r0
     1a0:	0000000c 	andeq	r0, r0, ip
     1a4:	d3100901 	tstle	r0, #16384	; 0x4000
     1a8:	11000001 	tstne	r0, r1
     1ac:	00000344 	andeq	r0, r0, r4, asr #6
     1b0:	000000aa 	andeq	r0, r0, sl, lsr #1
     1b4:	000000a8 	andeq	r0, r0, r8, lsr #1
     1b8:	00033811 	andeq	r3, r3, r1, lsl r8
     1bc:	0000c000 	andeq	ip, r0, r0
     1c0:	0000be00 	andeq	fp, r0, r0, lsl #28
     1c4:	032c1100 			; <UNDEFINED> instruction: 0x032c1100
     1c8:	00da0000 	sbcseq	r0, sl, r0
     1cc:	00d80000 	sbcseq	r0, r8, r0
     1d0:	10000000 	andne	r0, r0, r0
     1d4:	0000031b 	andeq	r0, r0, fp, lsl r3
     1d8:	000080b0 	strheq	r8, [r0], -r0
     1dc:	00002001 	andeq	r2, r0, r1
     1e0:	050a0100 	streq	r0, [sl, #-256]	; 0xffffff00
     1e4:	00000210 	andeq	r0, r0, r0, lsl r2
     1e8:	00034411 	andeq	r4, r3, r1, lsl r4
     1ec:	0000f400 	andeq	pc, r0, r0, lsl #8
     1f0:	0000f200 	andeq	pc, r0, r0, lsl #4
     1f4:	03381100 	teqeq	r8, #0
     1f8:	010a0000 	mrseq	r0, (UNDEF: 10)
     1fc:	01080000 	mrseq	r0, (UNDEF: 8)
     200:	2c110000 	ldccs	0, cr0, [r1], {-0}
     204:	24000003 	strcs	r0, [r0], #-3
     208:	22000001 	andcs	r0, r0, #1, 0
     20c:	00000001 	andeq	r0, r0, r1
     210:	00031b12 	andeq	r1, r3, r2, lsl fp
     214:	0080b800 	addeq	fp, r0, r0, lsl #16
     218:	80b80100 	adcshi	r0, r8, r0, lsl #2
     21c:	000c0000 	andeq	r0, ip, r0
     220:	0b010000 	bleq	40228 <__bss_end__+0x35180>
     224:	00025105 	andeq	r5, r2, r5, lsl #2
     228:	03441100 	movteq	r1, #16640	; 0x4100
     22c:	013e0000 	teqeq	lr, r0
     230:	013c0000 	teqeq	ip, r0
     234:	38110000 	ldmdacc	r1, {}	; <UNPREDICTABLE>
     238:	54000003 	strpl	r0, [r0], #-3
     23c:	52000001 	andpl	r0, r0, #1, 0
     240:	11000001 	tstne	r0, r1
     244:	0000032c 	andeq	r0, r0, ip, lsr #6
     248:	0000016e 	andeq	r0, r0, lr, ror #2
     24c:	0000016c 	andeq	r0, r0, ip, ror #2
     250:	80481300 	subhi	r1, r8, r0, lsl #6
     254:	035d0000 	cmpeq	sp, #0, 0
     258:	02680000 	rsbeq	r0, r8, #0, 0
     25c:	01140000 	tsteq	r4, r0
     260:	98030550 	stmdals	r3, {r4, r6, r8, sl}
     264:	000000a3 	andeq	r0, r0, r3, lsr #1
     268:	00804c15 	addeq	r4, r0, r5, lsl ip
     26c:	00036900 	andeq	r6, r3, r0, lsl #18
     270:	80741500 	rsbshi	r1, r4, r0, lsl #10
     274:	03750000 	cmneq	r5, #0, 0
     278:	7c150000 	ldcvc	0, cr0, [r5], {-0}
     27c:	69000080 	stmdbvs	r0, {r7}
     280:	15000003 	strne	r0, [r0, #-3]
     284:	00008098 	muleq	r0, r8, r0
     288:	00000375 	andeq	r0, r0, r5, ror r3
     28c:	0080b813 	addeq	fp, r0, r3, lsl r8
     290:	00038100 	andeq	r8, r3, r0, lsl #2
     294:	0002a000 	andeq	sl, r2, r0
     298:	50011400 	andpl	r1, r1, r0, lsl #8
     29c:	00007702 	andeq	r7, r0, r2, lsl #14
     2a0:	0080d413 	addeq	sp, r0, r3, lsl r4
     2a4:	00038100 	andeq	r8, r3, r0, lsl #2
     2a8:	0002b400 	andeq	fp, r2, r0, lsl #8
     2ac:	50011400 	andpl	r1, r1, r0, lsl #8
     2b0:	00007602 	andeq	r7, r0, r2, lsl #12
     2b4:	0080d815 	addeq	sp, r0, r5, lsl r8
     2b8:	00038d00 	andeq	r8, r3, r0, lsl #26
     2bc:	80f01600 	rscshi	r1, r0, r0, lsl #12
     2c0:	035d0000 	cmpeq	sp, #0, 0
     2c4:	02d40000 	sbcseq	r0, r4, #0, 0
     2c8:	01140000 	tsteq	r4, r0
     2cc:	fc030550 	stc2	5, cr0, [r3], {80}	; 0x50
     2d0:	000000a3 	andeq	r0, r0, r3, lsr #1
     2d4:	00810413 	addeq	r0, r1, r3, lsl r4
     2d8:	00035d00 	andeq	r5, r3, r0, lsl #26
     2dc:	0002fc00 	andeq	pc, r2, r0, lsl #24
     2e0:	50011400 	andpl	r1, r1, r0, lsl #8
     2e4:	a3d80305 	bicsge	r0, r8, #335544320	; 0x14000000
     2e8:	01140000 	tsteq	r4, r0
     2ec:	00740251 	rsbseq	r0, r4, r1, asr r2
     2f0:	02520114 	subseq	r0, r2, #5
     2f4:	01140075 	tsteq	r4, r5, ror r0
     2f8:	003e0153 	eorseq	r0, lr, r3, asr r1
     2fc:	00810815 	addeq	r0, r1, r5, lsl r8
     300:	00039900 	andeq	r9, r3, r0, lsl #18
     304:	a8170000 	ldmdage	r7, {}	; <UNPREDICTABLE>
     308:	16000000 	strne	r0, [r0], -r0
     30c:	18000003 	stmdane	r0, {r0, r1}
     310:	0000002c 	andeq	r0, r0, ip, lsr #32
     314:	06080007 	streq	r0, [r8], -r7
     318:	19000003 	stmdbne	r0, {r0, r1}
     31c:	00000015 	andeq	r0, r0, r5, lsl r0
     320:	f00b0c02 			; <UNDEFINED> instruction: 0xf00b0c02
     324:	03000000 	movweq	r0, #0
     328:	00000351 	andeq	r0, r0, r1, asr r3
     32c:	00003a1a 	andeq	r3, r0, sl, lsl sl
     330:	220c0200 	andcs	r0, ip, #0, 4
     334:	0000009b 	muleq	r0, fp, r0
     338:	0000c01a 	andeq	ip, r0, sl, lsl r0
     33c:	340c0200 	strcc	r0, [ip], #-512	; 0xfffffe00
     340:	0000009b 	muleq	r0, fp, r0
     344:	0000201a 	andeq	r2, r0, sl, lsl r0
     348:	430c0200 	movwmi	r0, #49664	; 0xc200
     34c:	0000002c 	andeq	r0, r0, ip, lsr #32
     350:	9e0a1b00 	vmlals.f64	d1, d10, d0
     354:	746f6e08 	strbtvc	r6, [pc], #-3592	; 35c <__code_start__-0x7ca4>
     358:	6e69616d 	powvsez	f6, f1, #5.0
     35c:	05c81c00 	strbeq	r1, [r8, #3072]	; 0xc00
     360:	05c80000 	strbeq	r0, [r8]
     364:	28030000 	stmdacs	r3, {}	; <UNPREDICTABLE>
     368:	002f1c06 	eoreq	r1, pc, r6, lsl #24
     36c:	002f0000 	eoreq	r0, pc, r0
     370:	31030000 	mrscc	r0, (UNDEF: 3)
     374:	000d1c0f 	andeq	r1, sp, pc, lsl #24
     378:	000d0000 	andeq	r0, sp, r0
     37c:	4a040000 	bmi	100384 <__bss_end__+0xf52dc>
     380:	01c71c08 	biceq	r1, r7, r8, lsl #24
     384:	01c70000 	biceq	r0, r7, r0
     388:	4b040000 	blmi	100390 <__bss_end__+0xf52e8>
     38c:	019e1c07 	orrseq	r1, lr, r7, lsl #24
     390:	019e0000 	orrseq	r0, lr, r0
     394:	56040000 	strpl	r0, [r4], -r0
     398:	004d1c05 	subeq	r1, sp, r5, lsl #24
     39c:	004d0000 	subeq	r0, sp, r0
     3a0:	6e030000 	cdpvs	0, 0, cr0, cr3, cr0, {0}
     3a4:	09670006 	stmdbeq	r7!, {r1, r2}^
     3a8:	00040000 	andeq	r0, r4, r0
     3ac:	00000190 	muleq	r0, r0, r1
     3b0:	00c50104 	sbceq	r0, r5, r4, lsl #2
     3b4:	a80c0000 	stmdage	ip, {}	; <UNPREDICTABLE>
     3b8:	8c000002 	stchi	0, cr0, [r0], {2}
     3bc:	20000000 	andcs	r0, r0, r0
     3c0:	9c000081 	stcls	0, cr0, [r0], {129}	; 0x81
     3c4:	42000003 	andmi	r0, r0, #3, 0
     3c8:	02000001 	andeq	r0, r0, #1, 0
     3cc:	6e690504 	cdpvs	5, 6, cr0, cr9, cr4, {0}
     3d0:	04030074 	streq	r0, [r3], #-116	; 0xffffff8c
     3d4:	00019107 	andeq	r9, r1, r7, lsl #2
     3d8:	06010300 	streq	r0, [r1], -r0, lsl #6
     3dc:	00000041 	andeq	r0, r0, r1, asr #32
     3e0:	ce050203 	cdpgt	2, 0, cr0, cr5, cr3, {0}
     3e4:	03000001 	movweq	r0, #1
     3e8:	01b20504 			; <UNDEFINED> instruction: 0x01b20504
     3ec:	08030000 	stmdaeq	r3, {}	; <UNPREDICTABLE>
     3f0:	0001ad05 	andeq	sl, r1, r5, lsl #26
     3f4:	023c0400 	eorseq	r0, ip, #0, 8
     3f8:	2e030000 	cdpcs	0, 0, cr0, cr3, cr0, {0}
     3fc:	00005b18 	andeq	r5, r0, r8, lsl fp
     400:	08010300 	stmdaeq	r1, {r8, r9}
     404:	0000003f 	andeq	r0, r0, pc, lsr r0
     408:	00028104 	andeq	r8, r2, r4, lsl #2
     40c:	19310300 	ldmdbne	r1!, {r8, r9}
     410:	0000006e 	andeq	r0, r0, lr, rrx
     414:	79070203 	stmdbvc	r7, {r0, r1, r9}
     418:	04000000 	streq	r0, [r0], #-0
     41c:	00000278 	andeq	r0, r0, r8, ror r2
     420:	81193403 	tsthi	r9, r3, lsl #8
     424:	03000000 	movweq	r0, #0
     428:	018c0704 	orreq	r0, ip, r4, lsl #14
     42c:	08030000 	stmdaeq	r3, {}	; <UNPREDICTABLE>
     430:	00018707 	andeq	r8, r1, r7, lsl #14
     434:	00250500 	eoreq	r0, r5, r0, lsl #10
     438:	009e0000 	addseq	r0, lr, r0
     43c:	25060000 	strcs	r0, [r6, #-0]
     440:	00000000 	andeq	r0, r0, r0
     444:	0001bb07 	andeq	fp, r1, r7, lsl #22
     448:	0e1c0400 	cfmulseq	mvf0, mvf12, mvf0
     44c:	000000aa 	andeq	r0, r0, sl, lsr #1
     450:	008f0408 	addeq	r0, pc, r8, lsl #8
     454:	25050000 	strcs	r0, [r5, #-0]
     458:	bf000000 	svclt	0x00000000
     45c:	06000000 	streq	r0, [r0], -r0
     460:	000000bf 	strheq	r0, [r0], -pc	; <UNPREDICTABLE>
     464:	cc040800 	stcgt	8, cr0, [r4], {-0}
     468:	03000000 	movweq	r0, #0
     46c:	00480801 	subeq	r0, r8, r1, lsl #16
     470:	c5090000 	strgt	r0, [r9, #-0]
     474:	07000000 	streq	r0, [r0, -r0]
     478:	00000606 	andeq	r0, r0, r6, lsl #12
     47c:	dd0e2104 	stfles	f2, [lr, #-16]
     480:	08000000 	stmdaeq	r0, {}	; <UNPREDICTABLE>
     484:	0000b004 	andeq	fp, r0, r4
     488:	050c0a00 	streq	r0, [ip, #-2560]	; 0xfffff600
     48c:	01140904 	tsteq	r4, r4, lsl #18
     490:	3a0b0000 	bcc	2c0498 <__bss_end__+0x2b53f0>
     494:	05000000 	streq	r0, [r0, #-0]
     498:	00bf1106 	adcseq	r1, pc, r6, lsl #2
     49c:	0b000000 	bleq	4a4 <__code_start__-0x7b5c>
     4a0:	000000c0 	andeq	r0, r0, r0, asr #1
     4a4:	bf110705 	svclt	0x00110705
     4a8:	04000000 	streq	r0, [r0], #-0
     4ac:	0000200b 	andeq	r2, r0, fp
     4b0:	0e080500 	cfsh32eq	mvfx0, mvfx8, #0
     4b4:	0000002c 	andeq	r0, r0, ip, lsr #32
     4b8:	d8040008 	stmdale	r4, {r3}
     4bc:	05000001 	streq	r0, [r0, #-1]
     4c0:	00e30309 	rsceq	r0, r3, r9, lsl #6
     4c4:	070c0000 	streq	r0, [ip, -r0]
     4c8:	00005b01 	andeq	r5, r0, r1, lsl #22
     4cc:	0e090200 	cdpeq	2, 0, cr0, cr9, cr0, {0}
     4d0:	0000013b 	andeq	r0, r0, fp, lsr r1
     4d4:	0002be0d 	andeq	fp, r2, sp, lsl #28
     4d8:	010d0b00 	tsteq	sp, r0, lsl #22
     4dc:	0c000002 	stceq	0, cr0, [r0], {2}
     4e0:	01070c00 	tsteq	r7, r0, lsl #24
     4e4:	0000005b 	andeq	r0, r0, fp, asr r0
     4e8:	56060a02 	strpl	r0, [r6], -r2, lsl #20
     4ec:	0d000001 	stceq	0, cr0, [r0, #-4]
     4f0:	00000220 	andeq	r0, r0, r0, lsr #4
     4f4:	02140d80 	andseq	r0, r4, #128, 26	; 0x2000
     4f8:	00fe0000 	rscseq	r0, lr, r0
     4fc:	0002560e 	andeq	r5, r2, lr, lsl #12
     500:	0d02b400 	cfstrseq	mvf11, [r2, #-0]
     504:	0001e610 	andeq	lr, r1, r0, lsl r6
     508:	02fb0b00 	rscseq	r0, fp, #0, 22
     50c:	0e020000 	cdpeq	0, 0, cr0, cr2, cr0, {0}
     510:	0001e614 	andeq	lr, r1, r4, lsl r6
     514:	070b0000 	streq	r0, [fp, -r0]
     518:	02000002 	andeq	r0, r0, #2, 0
     51c:	00750e0f 	rsbseq	r0, r5, pc, lsl #28
     520:	0b040000 	bleq	100528 <__bss_end__+0xf5480>
     524:	00000267 	andeq	r0, r0, r7, ror #4
     528:	750e1002 	strvc	r1, [lr, #-2]
     52c:	08000000 	stmdaeq	r0, {}	; <UNPREDICTABLE>
     530:	0001f80b 	andeq	pc, r1, fp, lsl #16
     534:	0e140200 	cdpeq	2, 1, cr0, cr4, cr0, {0}
     538:	00000075 	andeq	r0, r0, r5, ror r0
     53c:	025d0b0c 	subseq	r0, sp, #12, 22	; 0x3000
     540:	16020000 	strne	r0, [r2], -r0
     544:	0001140f 	andeq	r1, r1, pc, lsl #8
     548:	de0b1000 	cdple	0, 0, cr1, cr11, cr0, {0}
     54c:	02000002 	andeq	r0, r0, #2, 0
     550:	01140f17 	tsteq	r4, r7, lsl pc
     554:	0b1c0000 	bleq	70055c <__bss_end__+0x6f54b4>
     558:	0000026d 	andeq	r0, r0, sp, ror #4
     55c:	750e1a02 	strvc	r1, [lr, #-2562]	; 0xfffff5fe
     560:	28000000 	stmdacs	r0, {}	; <UNPREDICTABLE>
     564:	0002b20b 	andeq	fp, r2, fp, lsl #4
     568:	0e1b0200 	cdpeq	2, 1, cr0, cr11, cr0, {0}
     56c:	00000075 	andeq	r0, r0, r5, ror r0
     570:	03aa0b2c 			; <UNDEFINED> instruction: 0x03aa0b2c
     574:	1d020000 	stcne	0, cr0, [r2, #-0]
     578:	0000620e 	andeq	r6, r0, lr, lsl #4
     57c:	720f3000 	andvc	r3, pc, #0, 0
     580:	0200317a 	andeq	r3, r0, #-2147483618	; 0x8000001e
     584:	01ec0d1f 	mvneq	r0, pc, lsl sp
     588:	00320000 	eorseq	r0, r2, r0
     58c:	01560408 	cmpeq	r6, r8, lsl #8
     590:	4f100000 	svcmi	0x00100000
     594:	fc000000 	stc2	0, cr0, [r0], {-0}
     598:	11000001 	tstne	r0, r1
     59c:	0000002c 	andeq	r0, r0, ip, lsr #32
     5a0:	f204007f 	vqadd.s8	q0, q2, <illegal reg q15.5>
     5a4:	02000001 	andeq	r0, r0, #1, 0
     5a8:	01560320 	cmpeq	r6, r0, lsr #6
     5ac:	04120000 	ldreq	r0, [r2], #-0
     5b0:	00000007 	andeq	r0, r0, r7
     5b4:	11a60200 			; <UNDEFINED> instruction: 0x11a60200
     5b8:	0000002c 	andeq	r0, r0, ip, lsr #32
     5bc:	00024413 	andeq	r4, r2, r3, lsl r4
     5c0:	0f080100 	svceq	0x00080100
     5c4:	00000228 	andeq	r0, r0, r8, lsr #4
     5c8:	ac800305 	stcge	3, cr0, [r0], {5}
     5cc:	04080000 	streq	r0, [r8], #-0
     5d0:	000001fc 	strdeq	r0, [r0], -ip
     5d4:	00000d14 	andeq	r0, r0, r4, lsl sp
     5d8:	08760100 	ldmdaeq	r6!, {r8}^
     5dc:	00000208 	andeq	r0, r0, r8, lsl #4
     5e0:	000083c8 	andeq	r8, r0, r8, asr #7
     5e4:	000000f4 	strdeq	r0, [r0], -r4
     5e8:	03179c01 	tsteq	r7, #256	; 0x100
     5ec:	ea150000 	b	5405f4 <__bss_end__+0x53554c>
     5f0:	01000002 	tsteq	r0, r2
     5f4:	00751a76 	rsbseq	r1, r5, r6, ror sl
     5f8:	018a0000 	orreq	r0, sl, r0
     5fc:	01860000 	orreq	r0, r6, r0
     600:	6c160000 	ldcvs	0, cr0, [r6], {-0}
     604:	2c760100 	ldfcse	f0, [r6], #-0
     608:	00000114 	andeq	r0, r0, r4, lsl r1
     60c:	17649102 	strbne	r9, [r4, -r2, lsl #2]!
     610:	78010068 	stmdavc	r1, {r3, r5, r6}
     614:	0002280c 	andeq	r2, r2, ip, lsl #16
     618:	0001ac00 	andeq	sl, r1, r0, lsl #24
     61c:	0001a800 	andeq	sl, r1, r0, lsl #16
     620:	02381800 	eorseq	r1, r8, #0, 16
     624:	02970000 	addseq	r0, r7, #0, 0
     628:	69170000 	ldmdbvs	r7, {}	; <UNPREDICTABLE>
     62c:	0d7e0100 	ldfeqe	f0, [lr, #-0]
     630:	00000025 	andeq	r0, r0, r5, lsr #32
     634:	000001ce 	andeq	r0, r0, lr, asr #3
     638:	000001ca 	andeq	r0, r0, sl, asr #3
     63c:	83e41900 	mvnhi	r1, #0, 18
     640:	093a0000 	ldmdbeq	sl!, {}	; <UNPREDICTABLE>
     644:	02ac0000 	adceq	r0, ip, #0, 0
     648:	011a0000 	tsteq	sl, r0
     64c:	b4750350 	ldrbtlt	r0, [r5], #-848	; 0xfffffcb0
     650:	f4190002 			; <UNDEFINED> instruction: 0xf4190002
     654:	46000083 	strmi	r0, [r0], -r3, lsl #1
     658:	cb000009 	blgt	684 <__code_start__-0x797c>
     65c:	1a000002 	bne	66c <__code_start__-0x7994>
     660:	74025001 	strvc	r5, [r2], #-1
     664:	51011a00 	tstpl	r1, r0, lsl #20
     668:	011a3001 	tsteq	sl, r1
     66c:	b4080252 	strlt	r0, [r8], #-594	; 0xfffffdae
     670:	84581900 	ldrbhi	r1, [r8], #-2304	; 0xfffff700
     674:	09520000 	ldmdbeq	r2, {}^	; <UNPREDICTABLE>
     678:	02f70000 	rscseq	r0, r7, #0, 0
     67c:	011a0000 	tsteq	sl, r0
     680:	34030550 	strcc	r0, [r3], #-1360	; 0xfffffab0
     684:	1a0000a4 	bne	91c <__code_start__-0x76e4>
     688:	91035101 	tstls	r3, r1, lsl #2
     68c:	011a065c 	tsteq	sl, ip, asr r6
     690:	60910352 	addsvs	r0, r1, r2, asr r3
     694:	53011a06 	movwpl	r1, #6662	; 0x1a06
     698:	06649103 	strbteq	r9, [r4], -r3, lsl #2
     69c:	84681b00 	strbthi	r1, [r8], #-2816	; 0xfffff500
     6a0:	09520000 	ldmdbeq	r2, {}^	; <UNPREDICTABLE>
     6a4:	011a0000 	tsteq	sl, r0
     6a8:	00030550 	andeq	r0, r3, r0, asr r5
     6ac:	1a0000a5 	bne	948 <__code_start__-0x76b8>
     6b0:	76025101 	strvc	r5, [r2], -r1, lsl #2
     6b4:	52011a00 	andpl	r1, r1, #0, 20
     6b8:	00007502 	andeq	r7, r0, r2, lsl #10
     6bc:	01c71c00 	biceq	r1, r7, r0, lsl #24
     6c0:	53010000 	movwpl	r0, #4096	; 0x1000
     6c4:	0081f006 	addeq	pc, r1, r6
     6c8:	0001d800 	andeq	sp, r1, r0, lsl #16
     6cc:	2a9c0100 	bcs	fe700ad4 <__bss_end__+0xfe6f5a2c>
     6d0:	15000006 	strne	r0, [r0, #-6]
     6d4:	00000ab6 			; <UNDEFINED> instruction: 0x00000ab6
     6d8:	08145301 	ldmdaeq	r4, {r0, r8, r9, ip, lr}
     6dc:	f8000002 			; <UNDEFINED> instruction: 0xf8000002
     6e0:	ee000001 	cdp	0, 0, cr0, cr0, cr1, {0}
     6e4:	1d000001 	stcne	0, cr0, [r0, #-4]
     6e8:	5301006c 	movwpl	r0, #4204	; 0x106c
     6ec:	00011424 	andeq	r1, r1, r4, lsr #8
     6f0:	00024000 	andeq	r4, r2, r0
     6f4:	00023a00 	andeq	r3, r2, r0, lsl #20
     6f8:	00681700 	rsbeq	r1, r8, r0, lsl #14
     6fc:	280c5501 	stmdacs	ip, {r0, r8, sl, ip, lr}
     700:	8a000002 	bhi	710 <__code_start__-0x78f0>
     704:	80000002 	andhi	r0, r0, r2
     708:	1e000002 	cdpne	0, 0, cr0, cr0, cr2, {0}
     70c:	0000017a 	andeq	r0, r0, sl, ror r1
     710:	0000063a 	andeq	r0, r0, sl, lsr r6
     714:	a51c0305 	ldrge	r0, [ip, #-773]	; 0xfffffcfb
     718:	38180000 	ldmdacc	r8, {}	; <UNPREDICTABLE>
     71c:	1a000001 	bne	728 <__code_start__-0x78d8>
     720:	1f000004 	svcne	0x00000004
     724:	5d010069 	stcpl	0, cr0, [r1, #-420]	; 0xfffffe5c
     728:	0000250d 	andeq	r2, r0, sp, lsl #10
     72c:	83281900 			; <UNDEFINED> instruction: 0x83281900
     730:	09520000 	ldmdbeq	r2, {}^	; <UNPREDICTABLE>
     734:	03b00000 	movseq	r0, #0, 0
     738:	011a0000 	tsteq	sl, r0
     73c:	50030550 	andpl	r0, r3, r0, asr r5
     740:	1a0000a4 	bne	9d8 <__code_start__-0x7628>
     744:	76025101 	strvc	r5, [r2], -r1, lsl #2
     748:	52011a00 	andpl	r1, r1, #0, 20
     74c:	1a007702 	bne	1e35c <__bss_end__+0x132b4>
     750:	75025301 	strvc	r5, [r2, #-769]	; 0xfffffcff
     754:	30190000 	andscc	r0, r9, r0
     758:	52000083 	andpl	r0, r0, #131, 0	; 0x83
     75c:	c7000009 	strgt	r0, [r0, -r9]
     760:	1a000003 	bne	774 <__code_start__-0x788c>
     764:	03055001 	movweq	r5, #20481	; 0x5001
     768:	0000a490 	muleq	r0, r0, r4
     76c:	83342000 	teqhi	r4, #0, 0
     770:	095e0000 	ldmdbeq	lr, {}^	; <UNPREDICTABLE>
     774:	48190000 	ldmdami	r9, {}	; <UNPREDICTABLE>
     778:	52000083 	andpl	r0, r0, #131, 0	; 0x83
     77c:	f9000009 			; <UNDEFINED> instruction: 0xf9000009
     780:	1a000003 	bne	794 <__code_start__-0x786c>
     784:	03055001 	movweq	r5, #20481	; 0x5001
     788:	0000a450 	andeq	sl, r0, r0, asr r4
     78c:	0251011a 	subseq	r0, r1, #-2147483642	; 0x80000006
     790:	011a0076 	tsteq	sl, r6, ror r0
     794:	00770252 	rsbseq	r0, r7, r2, asr r2
     798:	0253011a 	subseq	r0, r3, #-2147483642	; 0x80000006
     79c:	19000075 	stmdbne	r0, {r0, r2, r4, r5, r6}
     7a0:	00008350 	andeq	r8, r0, r0, asr r3
     7a4:	00000952 	andeq	r0, r0, r2, asr r9
     7a8:	00000410 	andeq	r0, r0, r0, lsl r4
     7ac:	0550011a 	ldrbeq	r0, [r0, #-282]	; 0xfffffee6
     7b0:	00a4ac03 	adceq	sl, r4, r3, lsl #24
     7b4:	54200000 	strtpl	r0, [r0], #-0
     7b8:	5e000083 	cdppl	0, 0, cr0, cr0, cr3, {4}
     7bc:	00000009 	andeq	r0, r0, r9
     7c0:	00827421 	addeq	r7, r2, r1, lsr #8
     7c4:	00002c00 	andeq	r2, r0, r0, lsl #24
     7c8:	00043a00 	andeq	r3, r4, r0, lsl #20
     7cc:	00691700 	rsbeq	r1, r9, r0, lsl #14
     7d0:	250d6701 	strcs	r6, [sp, #-1793]	; 0xfffff8ff
     7d4:	e0000000 	and	r0, r0, r0
     7d8:	d8000002 	stmdale	r0, {r1}
     7dc:	00000002 	andeq	r0, r0, r2
     7e0:	00063f22 	andeq	r3, r6, r2, lsr #30
     7e4:	0082c000 	addeq	ip, r2, r0
     7e8:	01500300 	cmpeq	r0, r0, lsl #6
     7ec:	6d010000 	stcvs	0, cr0, [r1, #-0]
     7f0:	00055805 	andeq	r5, r5, r5, lsl #16
     7f4:	06502300 	ldrbeq	r2, [r0], -r0, lsl #6
     7f8:	03300000 	teqeq	r0, #0, 0
     7fc:	032a0000 			; <UNDEFINED> instruction: 0x032a0000
     800:	5c240000 	stcpl	0, cr0, [r4], #-0
     804:	90000006 	andls	r0, r0, r6
     808:	25000001 	strcs	r0, [r0, #-1]
     80c:	0000065d 	andeq	r0, r0, sp, asr r6
     810:	0000035e 	andeq	r0, r0, lr, asr r3
     814:	0000035c 	andeq	r0, r0, ip, asr r3
     818:	00071d26 	andeq	r1, r7, r6, lsr #26
     81c:	0082c000 	addeq	ip, r2, r0
     820:	01c80600 	biceq	r0, r8, r0, lsl #12
     824:	2e010000 	cdpcs	0, 0, cr0, cr1, cr0, {0}
     828:	07012715 	smladeq	r1, r5, r7, r2
     82c:	82c80000 	sbchi	r0, r8, #0, 0
     830:	c8010000 	stmdagt	r1, {}	; <UNPREDICTABLE>
     834:	04000082 	streq	r0, [r0], #-130	; 0xffffff7e
     838:	01000000 	mrseq	r0, (UNDEF: 0)
     83c:	04aa2c2e 	strteq	r2, [sl], #3118	; 0xc2e
     840:	12230000 	eorne	r0, r3, #0, 0
     844:	73000007 	movwvc	r0, #7
     848:	71000003 	tstvc	r0, r3
     84c:	00000003 	andeq	r0, r0, r3
     850:	00068922 	andeq	r8, r6, r2, lsr #18
     854:	0082d400 	addeq	sp, r2, r0, lsl #8
     858:	01e80100 	mvneq	r0, r0, lsl #2
     85c:	31010000 	mrscc	r0, (UNDEF: 1)
     860:	00053c0d 	andeq	r3, r5, sp, lsl #24
     864:	06a42300 	strteq	r2, [r4], r0, lsl #6
     868:	03880000 	orreq	r0, r8, #0, 0
     86c:	03860000 	orreq	r0, r6, #0, 0
     870:	9a230000 	bls	8c0878 <__bss_end__+0x8b57d0>
     874:	9d000006 	stcls	0, cr0, [r0, #-24]	; 0xffffffe8
     878:	9b000003 	blls	88c <__code_start__-0x7774>
     87c:	28000003 	stmdacs	r0, {r0, r1}
     880:	000001e8 	andeq	r0, r0, r8, ror #3
     884:	0006b025 	andeq	fp, r6, r5, lsr #32
     888:	0003b600 	andeq	fp, r3, r0, lsl #12
     88c:	0003b000 	andeq	fp, r3, r0
     890:	06bc2500 	ldrteq	r2, [ip], r0, lsl #10
     894:	03e70000 	mvneq	r0, #0, 0
     898:	03e50000 	mvneq	r0, #0, 0
     89c:	e5220000 	str	r0, [r2, #-0]!
     8a0:	d4000006 	strle	r0, [r0], #-6
     8a4:	03000082 	movweq	r0, #130	; 0x82
     8a8:	00000200 	andeq	r0, r0, r0, lsl #4
     8ac:	1b112601 	blne	44a0b8 <__bss_end__+0x43f010>
     8b0:	23000005 	movwcs	r0, #5
     8b4:	000006f6 	strdeq	r0, [r0], -r6
     8b8:	00000405 	andeq	r0, r0, r5, lsl #8
     8bc:	00000403 	andeq	r0, r0, r3, lsl #8
     8c0:	06c92900 	strbeq	r2, [r9], r0, lsl #18
     8c4:	82d40000 	sbcshi	r0, r4, #0, 0
     8c8:	18070000 	stmdane	r7, {}	; <UNPREDICTABLE>
     8cc:	01000002 	tsteq	r0, r2
     8d0:	da231127 	ble	8c4d74 <__bss_end__+0x8b9ccc>
     8d4:	1a000006 	bne	8f4 <__code_start__-0x770c>
     8d8:	18000004 	stmdane	r0, {r2}
     8dc:	00000004 	andeq	r0, r0, r4
     8e0:	142a0000 	strtne	r0, [sl], #-0
     8e4:	52000083 	andpl	r0, r0, #131, 0	; 0x83
     8e8:	1a000009 	bne	914 <__code_start__-0x76ec>
     8ec:	03055001 	movweq	r5, #20481	; 0x5001
     8f0:	0000a424 	andeq	sl, r0, r4, lsr #8
     8f4:	0351011a 	cmpeq	r1, #-2147483642	; 0x80000006
     8f8:	005001f3 	ldrsheq	r0, [r0], #-19	; 0xffffffed
     8fc:	28190000 	ldmdacs	r9, {}	; <UNPREDICTABLE>
     900:	52000082 	andpl	r0, r0, #130, 0	; 0x82
     904:	81000009 	tsthi	r0, r9
     908:	1a000005 	bne	924 <__code_start__-0x76dc>
     90c:	03055001 	movweq	r5, #20481	; 0x5001
     910:	0000a434 	andeq	sl, r0, r4, lsr r4
     914:	0251011a 	subseq	r0, r1, #-2147483642	; 0x80000006
     918:	011a0076 	tsteq	sl, r6, ror r0
     91c:	00770252 	rsbseq	r0, r7, r2, asr r2
     920:	0253011a 	subseq	r0, r3, #-2147483642	; 0x80000006
     924:	19000075 	stmdbne	r0, {r0, r2, r4, r5, r6}
     928:	00008234 	andeq	r8, r0, r4, lsr r2
     92c:	00000952 	andeq	r0, r0, r2, asr r9
     930:	0000059e 	muleq	r0, lr, r5
     934:	0550011a 	ldrbeq	r0, [r0, #-282]	; 0xfffffee6
     938:	00a44003 	adceq	r4, r4, r3
     93c:	51011a00 	tstpl	r1, r0, lsl #20
     940:	00007402 	andeq	r7, r0, r2, lsl #8
     944:	00836819 	addeq	r6, r3, r9, lsl r8
     948:	00095200 	andeq	r5, r9, r0, lsl #4
     94c:	0005c700 	andeq	ip, r5, r0, lsl #14
     950:	50011a00 	andpl	r1, r1, r0, lsl #20
     954:	a4500305 	ldrbge	r0, [r0], #-773	; 0xfffffcfb
     958:	011a0000 	tsteq	sl, r0
     95c:	00760251 	rsbseq	r0, r6, r1, asr r2
     960:	0252011a 	subseq	r0, r2, #-2147483642	; 0x80000006
     964:	011a0077 	tsteq	sl, r7, ror r0
     968:	00750253 	rsbseq	r0, r5, r3, asr r2
     96c:	83741900 	cmnhi	r4, #0, 18
     970:	09520000 	ldmdbeq	r2, {}^	; <UNPREDICTABLE>
     974:	05de0000 	ldrbeq	r0, [lr]
     978:	011a0000 	tsteq	sl, r0
     97c:	68030550 	stmdavs	r3, {r4, r6, r8, sl}
     980:	000000a4 	andeq	r0, r0, r4, lsr #1
     984:	00837820 	addeq	r7, r3, r0, lsr #16
     988:	00095e00 	andeq	r5, r9, r0, lsl #28
     98c:	83941900 	orrshi	r1, r4, #0, 18
     990:	09520000 	ldmdbeq	r2, {}^	; <UNPREDICTABLE>
     994:	06200000 	strteq	r0, [r0], -r0
     998:	011a0000 	tsteq	sl, r0
     99c:	d4030550 	strle	r0, [r3], #-1360	; 0xfffffab0
     9a0:	1a0000a4 	bne	c38 <__code_start__-0x73c8>
     9a4:	03055101 	movweq	r5, #20737	; 0x5101
     9a8:	0000a4c8 	andeq	sl, r0, r8, asr #9
     9ac:	0552011a 	ldrbeq	r0, [r2, #-282]	; 0xfffffee6
     9b0:	00a51c03 	adceq	r1, r5, r3, lsl #24
     9b4:	53011a00 	movwpl	r1, #6656	; 0x1a00
     9b8:	1a6d0802 	bne	1b429c8 <__bss_end__+0x1b37920>
     9bc:	05007d02 	streq	r7, [r0, #-3330]	; 0xfffff2fe
     9c0:	00a4e803 	adceq	lr, r4, r3, lsl #16
     9c4:	98200000 	stmdals	r0!, {}	; <UNPREDICTABLE>
     9c8:	5e000083 	cdppl	0, 0, cr0, cr0, cr3, {4}
     9cc:	00000009 	andeq	r0, r0, r9
     9d0:	0000cc10 	andeq	ip, r0, r0, lsl ip
     9d4:	00063a00 	andeq	r3, r6, r0, lsl #20
     9d8:	002c1100 	eoreq	r1, ip, r0, lsl #2
     9dc:	00060000 	andeq	r0, r6, r0
     9e0:	00062a09 	andeq	r2, r6, r9, lsl #20
     9e4:	028a2b00 	addeq	r2, sl, #0, 22
     9e8:	2b010000 	blcs	409f0 <__bss_end__+0x35948>
     9ec:	00022808 	andeq	r2, r2, r8, lsl #16
     9f0:	06890100 	streq	r0, [r9], r0, lsl #2
     9f4:	702c0000 	eorvc	r0, ip, r0
     9f8:	01007274 	tsteq	r0, r4, ror r2
     9fc:	0208202b 	andeq	r2, r8, #43, 0	; 0x2b
     a00:	1f2d0000 	svcne	0x002d0000
     a04:	2e010068 	cdpcs	0, 0, cr0, cr1, cr8, {3}
     a08:	00022811 	andeq	r2, r2, r1, lsl r8
     a0c:	81e01b00 	mvnhi	r1, r0, lsl #22
     a10:	09520000 	ldmdbeq	r2, {}^	; <UNPREDICTABLE>
     a14:	011a0000 	tsteq	sl, r0
     a18:	24030550 	strcs	r0, [r3], #-1360	; 0xfffffab0
     a1c:	1a0000a4 	bne	cb4 <__code_start__-0x734c>
     a20:	f3035101 	vrhadd.u8	d5, d3, d1
     a24:	011a5001 	tsteq	sl, r1
     a28:	00740252 	rsbseq	r0, r4, r2, asr r2
     a2c:	2b000000 	blcs	a34 <__code_start__-0x75cc>
     a30:	000001e2 	andeq	r0, r0, r2, ror #3
     a34:	2c0a2401 	cfstrscs	mvf2, [sl], {1}
     a38:	01000000 	mrseq	r0, (UNDEF: 0)
     a3c:	000006c9 	andeq	r0, r0, r9, asr #13
     a40:	0100682c 	tsteq	r0, ip, lsr #16
     a44:	02282124 	eoreq	r2, r8, #9
     a48:	702c0000 	eorvc	r0, ip, r0
     a4c:	01007274 	tsteq	r0, r4, ror r2
     a50:	02082a24 	andeq	r2, r8, #36, 20	; 0x24000
     a54:	6d1f0000 	ldcvs	0, cr0, [pc, #-0]	; a5c <__code_start__-0x75a4>
     a58:	01006e69 	tsteq	r0, r9, ror #28
     a5c:	02080b26 	andeq	r0, r8, #38912	; 0x9800
     a60:	6d1f0000 	ldcvs	0, cr0, [pc, #-0]	; a68 <__code_start__-0x7598>
     a64:	01007861 	tsteq	r0, r1, ror #16
     a68:	02080b27 	andeq	r0, r8, #39936	; 0x9c00
     a6c:	2b000000 	blcs	a74 <__code_start__-0x758c>
     a70:	000002d3 	ldrdeq	r0, [r0], -r3
     a74:	08071e01 	stmdaeq	r7, {r0, r9, sl, fp, ip}
     a78:	01000002 	tsteq	r0, r2
     a7c:	000006e5 	andeq	r0, r0, r5, ror #13
     a80:	0100682c 	tsteq	r0, ip, lsr #16
     a84:	0228191e 	eoreq	r1, r8, #491520	; 0x78000
     a88:	2b000000 	blcs	a90 <__code_start__-0x7570>
     a8c:	000002c6 	andeq	r0, r0, r6, asr #5
     a90:	08071801 	stmdaeq	r7, {r0, fp, ip}
     a94:	01000002 	tsteq	r0, r2
     a98:	00000701 	andeq	r0, r0, r1, lsl #14
     a9c:	0100682c 	tsteq	r0, ip, lsr #16
     aa0:	02281b18 	eoreq	r1, r8, #24, 22	; 0x6000
     aa4:	2b000000 	blcs	aac <__code_start__-0x7554>
     aa8:	0000029c 	muleq	r0, ip, r2
     aac:	28081101 	stmdacs	r8, {r0, r8, ip}
     ab0:	01000002 	tsteq	r0, r2
     ab4:	0000071d 	andeq	r0, r0, sp, lsl r7
     ab8:	0100702c 	tsteq	r0, ip, lsr #32
     abc:	02281b11 	eoreq	r1, r8, #17408	; 0x4400
     ac0:	2e000000 	cdpcs	0, 0, cr0, cr0, cr0, {0}
     ac4:	0000022f 	andeq	r0, r0, pc, lsr #4
     ac8:	28080b01 	stmdacs	r8, {r0, r8, r9, fp}
     acc:	01000002 	tsteq	r0, r2
     ad0:	0002e72f 	andeq	lr, r2, pc, lsr #14
     ad4:	182f0200 	stmdane	pc!, {r9}	; <UNPREDICTABLE>
     ad8:	0000002c 	andeq	r0, r0, ip, lsr #32
     adc:	00074603 	andeq	r4, r7, r3, lsl #12
     ae0:	00682c00 	rsbeq	r2, r8, r0, lsl #24
     ae4:	28292f02 	stmdacs	r9!, {r1, r8, r9, sl, fp, sp}
     ae8:	00000002 	andeq	r0, r0, r2
     aec:	00071d30 	andeq	r1, r7, r0, lsr sp
     af0:	00812000 	addeq	r2, r1, r0
     af4:	00001000 	andeq	r1, r0, r0
     af8:	319c0100 	orrscc	r0, ip, r0, lsl #2
     afc:	00000701 	andeq	r0, r0, r1, lsl #14
     b00:	00008130 	andeq	r8, r0, r0, lsr r1
     b04:	0000000c 	andeq	r0, r0, ip
     b08:	07769c01 	ldrbeq	r9, [r6, -r1, lsl #24]!
     b0c:	12230000 	eorne	r0, r3, #0, 0
     b10:	31000007 	tstcc	r0, r7
     b14:	2d000004 	stccs	0, cr0, [r0, #-16]
     b18:	00000004 	andeq	r0, r0, r4
     b1c:	0006e531 	andeq	lr, r6, r1, lsr r5
     b20:	00813c00 	addeq	r3, r1, r0, lsl #24
     b24:	00000800 	andeq	r0, r0, r0, lsl #16
     b28:	979c0100 	ldrls	r0, [ip, r0, lsl #2]
     b2c:	23000007 	movwcs	r0, #7
     b30:	000006f6 	strdeq	r0, [r0], -r6
     b34:	00000456 	andeq	r0, r0, r6, asr r4
     b38:	00000452 	andeq	r0, r0, r2, asr r4
     b3c:	06c93100 	strbeq	r3, [r9], r0, lsl #2
     b40:	81440000 	mrshi	r0, (UNDEF: 68)
     b44:	00100000 	andseq	r0, r0, r0
     b48:	9c010000 	stcls	0, cr0, [r1], {-0}
     b4c:	000007b8 			; <UNDEFINED> instruction: 0x000007b8
     b50:	0006da23 	andeq	sp, r6, r3, lsr #20
     b54:	00047b00 	andeq	r7, r4, r0, lsl #22
     b58:	00047700 	andeq	r7, r4, r0, lsl #14
     b5c:	89310000 	ldmdbhi	r1!, {}	; <UNPREDICTABLE>
     b60:	54000006 	strpl	r0, [r0], #-6
     b64:	24000081 	strcs	r0, [r0], #-129	; 0xffffff7f
     b68:	01000000 	mrseq	r0, (UNDEF: 0)
     b6c:	00083c9c 	muleq	r8, ip, ip
     b70:	069a2300 	ldreq	r2, [sl], r0, lsl #6
     b74:	04a00000 	strteq	r0, [r0], #0
     b78:	049c0000 	ldreq	r0, [ip], #0
     b7c:	a4320000 	ldrtge	r0, [r2], #-0
     b80:	01000006 	tsteq	r0, r6
     b84:	06b02551 	ssateq	r2, #17, r1, asr #10
     b88:	04c50000 	strbeq	r0, [r5], #0
     b8c:	04c10000 	strbeq	r0, [r1], #0
     b90:	bc250000 	stclt	0, cr0, [r5], #-0
     b94:	ea000006 	b	bb4 <__code_start__-0x744c>
     b98:	e6000004 	str	r0, [r0], -r4
     b9c:	22000004 	andcs	r0, r0, #4, 0
     ba0:	000006e5 	andeq	r0, r0, r5, ror #13
     ba4:	00008154 	andeq	r8, r0, r4, asr r1
     ba8:	00003802 	andeq	r3, r0, r2, lsl #16
     bac:	11260100 			; <UNDEFINED> instruction: 0x11260100
     bb0:	0000081c 	andeq	r0, r0, ip, lsl r8
     bb4:	0006f623 	andeq	pc, r6, r3, lsr #12
     bb8:	00051a00 	andeq	r1, r5, r0, lsl #20
     bbc:	00051800 	andeq	r1, r5, r0, lsl #16
     bc0:	c9290000 	stmdbgt	r9!, {}	; <UNPREDICTABLE>
     bc4:	54000006 	strpl	r0, [r0], #-6
     bc8:	06000081 	streq	r0, [r0], -r1, lsl #1
     bcc:	00000050 	andeq	r0, r0, r0, asr r0
     bd0:	23112701 	tstcs	r1, #262144	; 0x40000
     bd4:	000006da 	ldrdeq	r0, [r0], -sl
     bd8:	0000052f 	andeq	r0, r0, pc, lsr #10
     bdc:	0000052d 	andeq	r0, r0, sp, lsr #10
     be0:	3f310000 	svccc	0x00310000
     be4:	78000006 	stmdavc	r0, {r1, r2}
     be8:	78000081 	stmdavc	r0, {r0, r7}
     bec:	01000000 	mrseq	r0, (UNDEF: 0)
     bf0:	00093a9c 	muleq	r9, ip, sl
     bf4:	06502300 	ldrbeq	r2, [r0], -r0, lsl #6
     bf8:	05480000 	strbeq	r0, [r8, #-0]
     bfc:	05420000 	strbeq	r0, [r2, #-0]
     c00:	5c240000 	stcpl	0, cr0, [r4], #-0
     c04:	70000006 	andvc	r0, r0, r6
     c08:	25000000 	strcs	r0, [r0, #-0]
     c0c:	0000065d 	andeq	r0, r0, sp, asr r6
     c10:	00000578 	andeq	r0, r0, r8, ror r5
     c14:	00000574 	andeq	r0, r0, r4, ror r5
     c18:	00071d26 	andeq	r1, r7, r6, lsr #26
     c1c:	00817800 	addeq	r7, r1, r0, lsl #16
     c20:	00980300 	addseq	r0, r8, r0, lsl #6
     c24:	2e010000 	cdpcs	0, 0, cr0, cr1, cr0, {0}
     c28:	06892215 	pkhbteq	r2, r9, r5, lsl #4
     c2c:	818c0000 	orrhi	r0, ip, r0
     c30:	b0010000 	andlt	r0, r1, r0
     c34:	01000000 	mrseq	r0, (UNDEF: 0)
     c38:	09150d31 	ldmdbeq	r5, {r0, r4, r5, r8, sl, fp}
     c3c:	a4230000 	strtge	r0, [r3], #-0
     c40:	9a000006 	bls	c60 <__code_start__-0x73a0>
     c44:	96000005 	strls	r0, [r0], -r5
     c48:	23000005 	movwcs	r0, #5
     c4c:	0000069a 	muleq	r0, sl, r6
     c50:	000005bc 			; <UNDEFINED> instruction: 0x000005bc
     c54:	000005b8 			; <UNDEFINED> instruction: 0x000005b8
     c58:	0000b028 	andeq	fp, r0, r8, lsr #32
     c5c:	06b02500 	ldrteq	r2, [r0], r0, lsl #10
     c60:	05e40000 	strbeq	r0, [r4, #0]!
     c64:	05da0000 	ldrbeq	r0, [sl]
     c68:	bc250000 	stclt	0, cr0, [r5], #-0
     c6c:	38000006 	stmdacc	r0, {r1, r2}
     c70:	32000006 	andcc	r0, r0, #6, 0
     c74:	22000006 	andcs	r0, r0, #6, 0
     c78:	000006e5 	andeq	r0, r0, r5, ror #13
     c7c:	0000818c 	andeq	r8, r0, ip, lsl #3
     c80:	0000e803 	andeq	lr, r0, r3, lsl #16
     c84:	11260100 			; <UNDEFINED> instruction: 0x11260100
     c88:	000008f4 	strdeq	r0, [r0], -r4
     c8c:	0006f623 	andeq	pc, r6, r3, lsr #12
     c90:	00068a00 	andeq	r8, r6, r0, lsl #20
     c94:	00068600 	andeq	r8, r6, r0, lsl #12
     c98:	c9290000 	stmdbgt	r9!, {}	; <UNPREDICTABLE>
     c9c:	8c000006 	stchi	0, cr0, [r0], {6}
     ca0:	07000081 	streq	r0, [r0, -r1, lsl #1]
     ca4:	00000110 	andeq	r0, r0, r0, lsl r1
     ca8:	23112701 	tstcs	r1, #262144	; 0x40000
     cac:	000006da 	ldrdeq	r0, [r0], -sl
     cb0:	000006ac 	andeq	r0, r0, ip, lsr #13
     cb4:	000006a8 	andeq	r0, r0, r8, lsr #13
     cb8:	33000000 	movwcc	r0, #0
     cbc:	00000701 	andeq	r0, r0, r1, lsl #14
     cc0:	00008198 	muleq	r0, r8, r1
     cc4:	00819803 	addeq	r9, r1, r3, lsl #16
     cc8:	00000400 	andeq	r0, r0, r0, lsl #8
     ccc:	2c2e0100 	stfcss	f0, [lr], #-0
     cd0:	00071223 	andeq	r1, r7, r3, lsr #4
     cd4:	0006cc00 	andeq	ip, r6, r0, lsl #24
     cd8:	0006ca00 	andeq	ip, r6, r0, lsl #20
     cdc:	00000000 	andeq	r0, r0, r0
     ce0:	0002f134 	andeq	pc, r2, r4, lsr r1	; <UNPREDICTABLE>
     ce4:	0002f100 	andeq	pc, r2, r0, lsl #2
     ce8:	071e0600 	ldreq	r0, [lr, -r0, lsl #12]
     cec:	00024f34 	andeq	r4, r2, r4, lsr pc
     cf0:	00024f00 	andeq	r4, r2, r0, lsl #30
     cf4:	07f20400 	ldrbeq	r0, [r2, r0, lsl #8]!
     cf8:	0005c834 	andeq	ip, r5, r4, lsr r8
     cfc:	0005c800 	andeq	ip, r5, r0, lsl #16
     d00:	06280400 	strteq	r0, [r8], -r0, lsl #8
     d04:	00004d34 	andeq	r4, r0, r4, lsr sp
     d08:	00004d00 	andeq	r4, r0, r0, lsl #26
     d0c:	066e0400 	strbteq	r0, [lr], -r0, lsl #8
     d10:	0002fb00 	andeq	pc, r2, r0, lsl #22
     d14:	a1000400 	tstge	r0, r0, lsl #8
     d18:	04000004 	streq	r0, [r0], #-4
     d1c:	0000c501 	andeq	ip, r0, r1, lsl #10
     d20:	03280c00 			; <UNDEFINED> instruction: 0x03280c00
     d24:	008c0000 	addeq	r0, ip, r0
     d28:	84bc0000 	ldrthi	r0, [ip], #0
     d2c:	01880000 	orreq	r0, r8, r0
     d30:	05cc0000 	strbeq	r0, [ip]
     d34:	04020000 	streq	r0, [r2], #-0
     d38:	746e6905 	strbtvc	r6, [lr], #-2309	; 0xfffff6fb
     d3c:	07040300 	streq	r0, [r4, -r0, lsl #6]
     d40:	00000191 	muleq	r0, r1, r1
     d44:	41060103 	tstmi	r6, r3, lsl #2
     d48:	03000000 	movweq	r0, #0
     d4c:	01ce0502 	biceq	r0, lr, r2, lsl #10
     d50:	04030000 	streq	r0, [r3], #-0
     d54:	0001b205 	andeq	fp, r1, r5, lsl #4
     d58:	05080300 	streq	r0, [r8, #-768]	; 0xfffffd00
     d5c:	000001ad 	andeq	r0, r0, sp, lsr #3
     d60:	3f080103 	svccc	0x00080103
     d64:	03000000 	movweq	r0, #0
     d68:	00790702 	rsbseq	r0, r9, r2, lsl #14
     d6c:	04030000 	streq	r0, [r3], #-0
     d70:	00018c07 	andeq	r8, r1, r7, lsl #24
     d74:	07080300 	streq	r0, [r8, -r0, lsl #6]
     d78:	00000187 	andeq	r0, r0, r7, lsl #3
     d7c:	00002504 	andeq	r2, r0, r4, lsl #10
     d80:	00007a00 	andeq	r7, r0, r0, lsl #20
     d84:	00250500 	eoreq	r0, r5, r0, lsl #10
     d88:	06000000 	streq	r0, [r0], -r0
     d8c:	000001bb 			; <UNDEFINED> instruction: 0x000001bb
     d90:	860e1c02 	strhi	r1, [lr], -r2, lsl #24
     d94:	07000000 	streq	r0, [r0, -r0]
     d98:	00006b04 	andeq	r6, r0, r4, lsl #22
     d9c:	00250400 	eoreq	r0, r5, r0, lsl #8
     da0:	009b0000 	addseq	r0, fp, r0
     da4:	9b050000 	blls	140dac <__bss_end__+0x135d04>
     da8:	00000000 	andeq	r0, r0, r0
     dac:	00a80407 	adceq	r0, r8, r7, lsl #8
     db0:	01030000 	mrseq	r0, (UNDEF: 3)
     db4:	00004808 	andeq	r4, r0, r8, lsl #16
     db8:	00a10800 	adceq	r0, r1, r0, lsl #16
     dbc:	06060000 	streq	r0, [r6], -r0
     dc0:	02000006 	andeq	r0, r0, #6, 0
     dc4:	00b90e21 	adcseq	r0, r9, r1, lsr #28
     dc8:	04070000 	streq	r0, [r7], #-0
     dcc:	0000008c 	andeq	r0, r0, ip, lsl #1
     dd0:	00030d09 	andeq	r0, r3, r9, lsl #26
     dd4:	05010800 	streq	r0, [r1, #-2048]	; 0xfffff800
     dd8:	0000ec07 	andeq	lr, r0, r7, lsl #24
     ddc:	00640a00 	rsbeq	r0, r4, r0, lsl #20
     de0:	ec090701 	stc	7, cr0, [r9], {1}
     de4:	0a000000 	beq	dec <__code_start__-0x7214>
     de8:	08010070 	stmdaeq	r1, {r4, r5, r6}
     dec:	0000f308 	andeq	pc, r0, r8, lsl #6
     df0:	70660a00 	rsbvc	r0, r6, r0, lsl #20
     df4:	09090100 	stmdbeq	r9, {r8}
     df8:	000000f6 	strdeq	r0, [r0], -r6
     dfc:	04080300 	streq	r0, [r8], #-768	; 0xfffffd00
     e00:	00000334 	andeq	r0, r0, r4, lsr r3
     e04:	070c040b 	streq	r0, [ip, -fp, lsl #8]
     e08:	0000f504 	andeq	pc, r0, r4, lsl #10
     e0c:	01080d00 	tsteq	r8, r0, lsl #26
     e10:	0120020e 			; <UNDEFINED> instruction: 0x0120020e
     e14:	700e0000 	andvc	r0, lr, r0
     e18:	01007274 	tsteq	r0, r4, ror r2
     e1c:	01421110 	cmpeq	r2, r0, lsl r1
     e20:	0f000000 	svceq	0x00000000
     e24:	0000034e 	andeq	r0, r0, lr, asr #6
     e28:	2c0c1101 	stfcss	f1, [ip], {1}
     e2c:	04000000 	streq	r0, [r0], #-0
     e30:	03000900 	movweq	r0, #2304	; 0x900
     e34:	01080000 	mrseq	r0, (UNDEF: 8)
     e38:	01420f0c 	cmpeq	r2, ip, lsl #30
     e3c:	730a0000 	movwvc	r0, #40960	; 0xa000
     e40:	04120100 	ldreq	r0, [r2], #-256	; 0xffffff00
     e44:	000000fc 	strdeq	r0, [r0], -ip
     e48:	0100780a 	tsteq	r0, sl, lsl #16
     e4c:	00bf0e13 	adcseq	r0, pc, r3, lsl lr	; <UNPREDICTABLE>
     e50:	07000000 	streq	r0, [r0, -r0]
     e54:	00012004 	andeq	r2, r1, r4
     e58:	03531000 	cmpeq	r3, #0, 0
     e5c:	14010000 	strne	r0, [r1], #-0
     e60:	00012003 	andeq	r2, r1, r3
     e64:	033b1100 	teqeq	fp, #0
     e68:	18010000 	stmdane	r1, {}	; <UNPREDICTABLE>
     e6c:	0001480f 	andeq	r4, r1, pc, lsl #16
     e70:	90030500 	andls	r0, r3, r0, lsl #10
     e74:	110000ac 	smlatbne	r0, ip, r0, r0
     e78:	0000031b 	andeq	r0, r0, fp, lsl r3
     e7c:	78101901 	ldmdavc	r0, {r0, r8, fp, ip}
     e80:	05000001 	streq	r0, [r0, #-1]
     e84:	00ac8803 	adceq	r8, ip, r3, lsl #16
     e88:	48040700 	stmdami	r4, {r8, r9, sl}
     e8c:	12000001 	andne	r0, r0, #1, 0
     e90:	00000313 	andeq	r0, r0, r3, lsl r3
     e94:	bc065301 	stclt	3, cr5, [r6], {1}
     e98:	88000084 	stmdahi	r0, {r2, r7}
     e9c:	01000000 	mrseq	r0, (UNDEF: 0)
     ea0:	0001cd9c 	muleq	r1, ip, sp
     ea4:	70611300 	rsbvc	r1, r1, r0, lsl #6
     ea8:	14530100 	ldrbne	r0, [r3], #-256	; 0xffffff00
     eac:	000000f3 	strdeq	r0, [r0], -r3
     eb0:	000006e5 	andeq	r0, r0, r5, ror #13
     eb4:	000006df 	ldrdeq	r0, [r0], -pc	; <UNPREDICTABLE>
     eb8:	00706214 	rsbseq	r6, r0, r4, lsl r2
     ebc:	780a5501 	stmdavc	sl, {r0, r8, sl, ip, lr}
     ec0:	17000001 	strne	r0, [r0, -r1]
     ec4:	13000007 	movwne	r0, #7
     ec8:	14000007 	strne	r0, [r0], #-7
     ecc:	55010070 	strpl	r0, [r1, #-112]	; 0xffffff90
     ed0:	0001780f 	andeq	r7, r1, pc, lsl #16
     ed4:	00073c00 	andeq	r3, r7, r0, lsl #24
     ed8:	00073a00 	andeq	r3, r7, r0, lsl #20
     edc:	f1150000 			; <UNDEFINED> instruction: 0xf1150000
     ee0:	01000002 	tsteq	r0, r2
     ee4:	00f3072b 	rscseq	r0, r3, fp, lsr #14
     ee8:	85440000 	strbhi	r0, [r4, #-0]
     eec:	01000000 	mrseq	r0, (UNDEF: 0)
     ef0:	9c010000 	stcls	0, cr0, [r1], {-0}
     ef4:	000002ad 	andeq	r0, r0, sp, lsr #5
     ef8:	0002ea16 	andeq	lr, r2, r6, lsl sl
     efc:	1a2b0100 	bne	ac1304 <__bss_end__+0xab625c>
     f00:	0000002c 	andeq	r0, r0, ip, lsr #32
     f04:	00000757 	andeq	r0, r0, r7, asr r7
     f08:	0000074f 	andeq	r0, r0, pc, asr #14
     f0c:	01007014 	tsteq	r0, r4, lsl r0
     f10:	01780a2d 	cmneq	r8, sp, lsr #20
     f14:	07a10000 	streq	r0, [r1, r0]!
     f18:	07910000 	ldreq	r0, [r1, r0]
     f1c:	07170000 	ldreq	r0, [r7, -r0]
     f20:	01000003 	tsteq	r0, r3
     f24:	01780e2d 	cmneq	r8, sp, lsr #28
     f28:	08190000 	ldmdaeq	r9, {}	; <UNPREDICTABLE>
     f2c:	080d0000 	stmdaeq	sp, {}	; <UNPREDICTABLE>
     f30:	21170000 	tstcs	r7, r0
     f34:	01000003 	tsteq	r0, r3
     f38:	002c0b2e 	eoreq	r0, ip, lr, lsr #22
     f3c:	086a0000 	stmdaeq	sl!, {}^	; <UNPREDICTABLE>
     f40:	08680000 	stmdaeq	r8!, {}^	; <UNPREDICTABLE>
     f44:	ad180000 	ldcge	0, cr0, [r8, #-0]
     f48:	9c000002 	stcls	0, cr0, [r0], {2}
     f4c:	01000085 	smlabbeq	r0, r5, r0, r0
     f50:	00000250 	andeq	r0, r0, r0, asr r2
     f54:	190d4a01 	stmdbne	sp, {r0, r9, fp, lr}
     f58:	000002be 			; <UNDEFINED> instruction: 0x000002be
     f5c:	0000087f 	andeq	r0, r0, pc, ror r8
     f60:	0000087d 	andeq	r0, r0, sp, ror r8
     f64:	0002501a 	andeq	r5, r2, sl, lsl r0
     f68:	02c91b00 	sbceq	r1, r9, #0, 22
     f6c:	08990000 	ldmeq	r9, {}	; <UNPREDICTABLE>
     f70:	08950000 	ldmeq	r5, {}	; <UNPREDICTABLE>
     f74:	d41b0000 	ldrle	r0, [fp], #-0
     f78:	bb000002 	bllt	f88 <__code_start__-0x7078>
     f7c:	b7000008 	strlt	r0, [r0, -r8]
     f80:	1c000008 	stcne	0, cr0, [r0], {8}
     f84:	000085a8 	andeq	r8, r0, r8, lsr #11
     f88:	000002e6 	andeq	r0, r0, r6, ror #5
     f8c:	0000028c 	andeq	r0, r0, ip, lsl #5
     f90:	0250011d 	subseq	r0, r0, #1073741831	; 0x40000007
     f94:	011d0076 	tsteq	sp, r6, ror r0
     f98:	00770251 	rsbseq	r0, r7, r1, asr r2
     f9c:	85b01c00 	ldrhi	r1, [r0, #3072]!	; 0xc00
     fa0:	02f20000 	rscseq	r0, r2, #0, 0
     fa4:	02a10000 	adceq	r0, r1, #0, 0
     fa8:	011d0000 	tsteq	sp, r0
     fac:	3e400350 	mcrcc	3, 2, r0, cr0, cr0, {2}
     fb0:	c81e0024 	ldmdagt	lr, {r2, r5}
     fb4:	7e000085 	cdpvc	0, 0, cr0, cr0, cr5, {4}
     fb8:	00000001 	andeq	r0, r0, r1
     fbc:	451f0000 	ldrmi	r0, [pc, #-0]	; fc4 <__code_start__-0x703c>
     fc0:	01000003 	tsteq	r0, r3
     fc4:	0178101c 	cmneq	r8, ip, lsl r0
     fc8:	e0010000 	and	r0, r1, r0
     fcc:	20000002 	andcs	r0, r0, r2
     fd0:	0100756e 	tsteq	r0, lr, ror #10
     fd4:	002c221c 	eoreq	r2, ip, ip, lsl r2
     fd8:	63210000 			; <UNDEFINED> instruction: 0x63210000
     fdc:	21010070 	tstcs	r1, r0, ror r0
     fe0:	0002e008 	andeq	lr, r2, r8
     fe4:	70752100 	rsbsvc	r2, r5, r0, lsl #2
     fe8:	0a240100 	beq	9013f0 <__bss_end__+0x8f6348>
     fec:	00000178 	andeq	r0, r0, r8, ror r1
     ff0:	a1040700 	tstge	r4, r0, lsl #14
     ff4:	22000000 	andcs	r0, r0, #0, 0
     ff8:	000005c8 	andeq	r0, r0, r8, asr #11
     ffc:	000005c8 	andeq	r0, r0, r8, asr #11
    1000:	22062802 	andcs	r2, r6, #131072	; 0x20000
    1004:	00000340 	andeq	r0, r0, r0, asr #6
    1008:	00000340 	andeq	r0, r0, r0, asr #6
    100c:	000b1a03 	andeq	r1, fp, r3, lsl #20
    1010:	00001023 	andeq	r1, r0, r3, lsr #32
    1014:	06a60004 	strteq	r0, [r6], r4
    1018:	01040000 	mrseq	r0, (UNDEF: 4)
    101c:	000000c5 	andeq	r0, r0, r5, asr #1
    1020:	0004340c 	andeq	r3, r4, ip, lsl #8
    1024:	00008c00 	andeq	r8, r0, r0, lsl #24
    1028:	00864400 	addeq	r4, r6, r0, lsl #8
    102c:	0006dc00 	andeq	sp, r6, r0, lsl #24
    1030:	00080c00 	andeq	r0, r8, r0, lsl #24
    1034:	05040200 	streq	r0, [r4, #-512]	; 0xfffffe00
    1038:	00746e69 	rsbseq	r6, r4, r9, ror #28
    103c:	91070403 	tstls	r7, r3, lsl #8
    1040:	03000001 	movweq	r0, #1
    1044:	00410601 	subeq	r0, r1, r1, lsl #12
    1048:	02030000 	andeq	r0, r3, #0, 0
    104c:	0001ce05 	andeq	ip, r1, r5, lsl #28
    1050:	05040300 	streq	r0, [r4, #-768]	; 0xfffffd00
    1054:	000001b2 			; <UNDEFINED> instruction: 0x000001b2
    1058:	ad050803 	stcge	8, cr0, [r5, #-12]
    105c:	04000001 	streq	r0, [r0], #-1
    1060:	0000023c 	andeq	r0, r0, ip, lsr r2
    1064:	5b182e03 	blpl	60c878 <__bss_end__+0x6017d0>
    1068:	03000000 	movweq	r0, #0
    106c:	003f0801 	eorseq	r0, pc, r1, lsl #16
    1070:	81040000 	mrshi	r0, (UNDEF: 4)
    1074:	03000002 	movweq	r0, #2
    1078:	006e1931 	rsbeq	r1, lr, r1, lsr r9
    107c:	02030000 	andeq	r0, r3, #0, 0
    1080:	00007907 	andeq	r7, r0, r7, lsl #18
    1084:	02780400 	rsbseq	r0, r8, #0, 8
    1088:	34030000 	strcc	r0, [r3], #-0
    108c:	00008119 	andeq	r8, r0, r9, lsl r1
    1090:	07040300 	streq	r0, [r4, -r0, lsl #6]
    1094:	0000018c 	andeq	r0, r0, ip, lsl #3
    1098:	87070803 	strhi	r0, [r7, -r3, lsl #16]
    109c:	05000001 	streq	r0, [r0, #-1]
    10a0:	00000025 	andeq	r0, r0, r5, lsr #32
    10a4:	0000009e 	muleq	r0, lr, r0
    10a8:	00002506 	andeq	r2, r0, r6, lsl #10
    10ac:	bb070000 	bllt	1c10b4 <__bss_end__+0x1b600c>
    10b0:	04000001 	streq	r0, [r0], #-1
    10b4:	00aa0e1c 	adceq	r0, sl, ip, lsl lr
    10b8:	04080000 	streq	r0, [r8], #-0
    10bc:	0000008f 	andeq	r0, r0, pc, lsl #1
    10c0:	00002505 	andeq	r2, r0, r5, lsl #10
    10c4:	0000bf00 	andeq	fp, r0, r0, lsl #30
    10c8:	00bf0600 	adcseq	r0, pc, r0, lsl #12
    10cc:	08000000 	stmdaeq	r0, {}	; <UNPREDICTABLE>
    10d0:	0000cc04 	andeq	ip, r0, r4, lsl #24
    10d4:	08010300 	stmdaeq	r1, {r8, r9}
    10d8:	00000048 	andeq	r0, r0, r8, asr #32
    10dc:	0000c509 	andeq	ip, r0, r9, lsl #10
    10e0:	06060700 	streq	r0, [r6], -r0, lsl #14
    10e4:	21040000 	mrscs	r0, (UNDEF: 4)
    10e8:	0000dd0e 	andeq	sp, r0, lr, lsl #26
    10ec:	b0040800 	andlt	r0, r4, r0, lsl #16
    10f0:	0a000000 	beq	10f8 <__code_start__-0x6f08>
    10f4:	0904020c 	stmdbeq	r4, {r2, r3, r9}
    10f8:	00000114 	andeq	r0, r0, r4, lsl r1
    10fc:	00003a0b 	andeq	r3, r0, fp, lsl #20
    1100:	11060200 	mrsne	r0, LR_usr
    1104:	000000bf 	strheq	r0, [r0], -pc	; <UNPREDICTABLE>
    1108:	00c00b00 	sbceq	r0, r0, r0, lsl #22
    110c:	07020000 	streq	r0, [r2, -r0]
    1110:	0000bf11 	andeq	fp, r0, r1, lsl pc
    1114:	200b0400 	andcs	r0, fp, r0, lsl #8
    1118:	02000000 	andeq	r0, r0, #0, 0
    111c:	002c0e08 	eoreq	r0, ip, r8, lsl #28
    1120:	00080000 	andeq	r0, r8, r0
    1124:	0001d804 	andeq	sp, r1, r4, lsl #16
    1128:	03090200 	movweq	r0, #37376	; 0x9200
    112c:	000000e3 	andeq	r0, r0, r3, ror #1
    1130:	5b01070c 	blpl	42d68 <__bss_end__+0x37cc0>
    1134:	05000000 	streq	r0, [r0, #-0]
    1138:	013b0e09 	teqeq	fp, r9, lsl #28
    113c:	be0d0000 	cdplt	0, 0, cr0, cr13, cr0, {0}
    1140:	0b000002 	bleq	1150 <__code_start__-0x6eb0>
    1144:	0002010d 	andeq	r0, r2, sp, lsl #2
    1148:	0c000c00 	stceq	12, cr0, [r0], {-0}
    114c:	005b0107 	subseq	r0, fp, r7, lsl #2
    1150:	0a050000 	beq	141158 <__bss_end__+0x1360b0>
    1154:	00015606 	andeq	r5, r1, r6, lsl #12
    1158:	02200d00 	eoreq	r0, r0, #0, 26
    115c:	0d800000 	stceq	0, cr0, [r0]
    1160:	00000214 	andeq	r0, r0, r4, lsl r2
    1164:	560e00fe 			; <UNDEFINED> instruction: 0x560e00fe
    1168:	b4000002 	strlt	r0, [r0], #-2
    116c:	e6100d05 	ldr	r0, [r0], -r5, lsl #26
    1170:	0b000001 	bleq	117c <__code_start__-0x6e84>
    1174:	000002fb 	strdeq	r0, [r0], -fp
    1178:	e6140e05 	ldr	r0, [r4], -r5, lsl #28
    117c:	00000001 	andeq	r0, r0, r1
    1180:	0002070b 	andeq	r0, r2, fp, lsl #14
    1184:	0e0f0500 	cfsh32eq	mvfx0, mvfx15, #0
    1188:	00000075 	andeq	r0, r0, r5, ror r0
    118c:	02670b04 	rsbeq	r0, r7, #4, 22	; 0x1000
    1190:	10050000 	andne	r0, r5, r0
    1194:	0000750e 	andeq	r7, r0, lr, lsl #10
    1198:	f80b0800 			; <UNDEFINED> instruction: 0xf80b0800
    119c:	05000001 	streq	r0, [r0, #-1]
    11a0:	00750e14 	rsbseq	r0, r5, r4, lsl lr
    11a4:	0b0c0000 	bleq	3011ac <__bss_end__+0x2f6104>
    11a8:	0000025d 	andeq	r0, r0, sp, asr r2
    11ac:	140f1605 	strne	r1, [pc], #-1541	; 11b4 <__code_start__-0x6e4c>
    11b0:	10000001 	andne	r0, r0, r1
    11b4:	0002de0b 	andeq	sp, r2, fp, lsl #28
    11b8:	0f170500 	svceq	0x00170500
    11bc:	00000114 	andeq	r0, r0, r4, lsl r1
    11c0:	026d0b1c 	rsbeq	r0, sp, #28, 22	; 0x7000
    11c4:	1a050000 	bne	1411cc <__bss_end__+0x136124>
    11c8:	0000750e 	andeq	r7, r0, lr, lsl #10
    11cc:	b20b2800 	andlt	r2, fp, #0, 16
    11d0:	05000002 	streq	r0, [r0, #-2]
    11d4:	00750e1b 	rsbseq	r0, r5, fp, lsl lr
    11d8:	0b2c0000 	bleq	b011e0 <__bss_end__+0xaf6138>
    11dc:	000003aa 	andeq	r0, r0, sl, lsr #7
    11e0:	620e1d05 	andvs	r1, lr, #320	; 0x140
    11e4:	30000000 	andcc	r0, r0, r0
    11e8:	317a720f 	cmncc	sl, pc, lsl #4
    11ec:	0d1f0500 	cfldr32eq	mvfx0, [pc, #-0]	; 11f4 <__code_start__-0x6e0c>
    11f0:	000001ec 	andeq	r0, r0, ip, ror #3
    11f4:	04080032 	streq	r0, [r8], #-50	; 0xffffffce
    11f8:	00000156 	andeq	r0, r0, r6, asr r1
    11fc:	00004f10 	andeq	r4, r0, r0, lsl pc
    1200:	0001fc00 	andeq	pc, r1, r0, lsl #24
    1204:	002c1100 	eoreq	r1, ip, r0, lsl #2
    1208:	007f0000 	rsbseq	r0, pc, r0
    120c:	0001f204 	andeq	pc, r1, r4, lsl #4
    1210:	03200500 	nopeq	{0}	; <UNPREDICTABLE>
    1214:	00000156 	andeq	r0, r0, r6, asr r1
    1218:	00070412 	andeq	r0, r7, r2, lsl r4
    121c:	05000000 	streq	r0, [r0, #-0]
    1220:	002c11a6 	eoreq	r1, ip, r6, lsr #3
    1224:	9f130000 	svcls	0x00130000
    1228:	0100000a 	tsteq	r0, sl
    122c:	02080e10 	andeq	r0, r8, #16, 28	; 0x100
    1230:	03050000 	movweq	r0, #20480	; 0x5000
    1234:	0000ac98 	muleq	r0, r8, ip
    1238:	000b0013 	andeq	r0, fp, r3, lsl r0
    123c:	0e110100 	mufeqs	f0, f1, f0
    1240:	00000208 	andeq	r0, r0, r8, lsl #4
    1244:	ac9c0305 	ldcge	3, cr0, [ip], {5}
    1248:	6d140000 	ldcvs	0, cr0, [r4, #-0]
    124c:	01000003 	tsteq	r0, r3
    1250:	f8060132 			; <UNDEFINED> instruction: 0xf8060132
    1254:	2800008c 	stmdacs	r0, {r2, r3, r7}
    1258:	01000000 	mrseq	r0, (UNDEF: 0)
    125c:	00029a9c 	muleq	r2, ip, sl
    1260:	017a1500 	cmneq	sl, r0, lsl #10
    1264:	02aa0000 	adceq	r0, sl, #0, 0
    1268:	03050000 	movweq	r0, #20480	; 0x5000
    126c:	0000a8e8 	andeq	sl, r0, r8, ror #17
    1270:	008d1016 	addeq	r1, sp, r6, lsl r0
    1274:	000f9f00 	andeq	r9, pc, r0, lsl #30
    1278:	00029000 	andeq	r9, r2, r0
    127c:	50011700 	andpl	r1, r1, r0, lsl #14
    1280:	a8780305 	ldmdage	r8!, {r0, r2, r8, r9}^
    1284:	01170000 	tsteq	r7, r0
    1288:	48030551 	stmdami	r3, {r0, r4, r6, r8, sl}
    128c:	170000a5 	strne	r0, [r0, -r5, lsr #1]
    1290:	03055201 	movweq	r5, #20993	; 0x5201
    1294:	0000a8e8 	andeq	sl, r0, r8, ror #17
    1298:	03530117 	cmpeq	r3, #-1073741819	; 0xc0000005
    129c:	0001340a 	andeq	r3, r1, sl, lsl #8
    12a0:	008d1418 	addeq	r1, sp, r8, lsl r4
    12a4:	000fab00 	andeq	sl, pc, r0, lsl #22
    12a8:	cc100000 	ldcgt	0, cr0, [r0], {-0}
    12ac:	aa000000 	bge	12b4 <__code_start__-0x6d4c>
    12b0:	11000002 	tstne	r0, r2
    12b4:	0000002c 	andeq	r0, r0, ip, lsr #32
    12b8:	9a09000e 	bls	2412f8 <__bss_end__+0x236250>
    12bc:	19000002 	stmdbne	r0, {r1}
    12c0:	000003d4 	ldrdeq	r0, [r0], -r4
    12c4:	0a012801 	beq	4b2d0 <__bss_end__+0x40228>
    12c8:	0000002c 	andeq	r0, r0, ip, lsr #32
    12cc:	00008bf8 	strdeq	r8, [r0], -r8	; <UNPREDICTABLE>
    12d0:	00000100 	andeq	r0, r0, r0, lsl #2
    12d4:	043d9c01 	ldrteq	r9, [sp], #-3073	; 0xfffff3ff
    12d8:	ea1a0000 	b	6812e0 <__bss_end__+0x676238>
    12dc:	01000002 	tsteq	r0, r2
    12e0:	2c0e012b 	stfcss	f0, [lr], {43}	; 0x2b
    12e4:	db000000 	blle	12ec <__code_start__-0x6d14>
    12e8:	d9000008 	stmdble	r0, {r3}
    12ec:	1b000008 	blne	1314 <__code_start__-0x6cec>
    12f0:	0000043d 	andeq	r0, r0, sp, lsr r4
    12f4:	00008c04 	andeq	r8, r0, r4, lsl #24
    12f8:	00044001 	andeq	r4, r4, r1
    12fc:	012b0100 			; <UNDEFINED> instruction: 0x012b0100
    1300:	00043317 	andeq	r3, r4, r7, lsl r3
    1304:	04401c00 	strbeq	r1, [r0], #-3072	; 0xfffff400
    1308:	4f1d0000 	svcmi	0x001d0000
    130c:	f6000004 			; <UNDEFINED> instruction: 0xf6000004
    1310:	ee000008 	cdp	0, 0, cr0, cr0, cr8, {0}
    1314:	1d000008 	stcne	0, cr0, [r0, #-32]	; 0xffffffe0
    1318:	0000045c 	andeq	r0, r0, ip, asr r4
    131c:	00000934 	andeq	r0, r0, r4, lsr r9
    1320:	0000092c 	andeq	r0, r0, ip, lsr #18
    1324:	0004691d 	andeq	r6, r4, sp, lsl r9
    1328:	00097400 	andeq	r7, r9, r0, lsl #8
    132c:	00096a00 	andeq	r6, r9, r0, lsl #20
    1330:	04851e00 	streq	r1, [r5], #3584	; 0xe00
    1334:	04580000 	ldrbeq	r0, [r8], #-0
    1338:	03d50000 	bicseq	r0, r5, #0, 0
    133c:	861d0000 	ldrhi	r0, [sp], -r0
    1340:	c1000004 	tstgt	r0, r4
    1344:	b5000009 	strlt	r0, [r0, #-9]
    1348:	1b000009 	blne	1374 <__code_start__-0x6c8c>
    134c:	00000d3d 	andeq	r0, r0, sp, lsr sp
    1350:	00008cc4 	andeq	r8, r0, r4, asr #25
    1354:	00047802 	andeq	r7, r4, r2, lsl #16
    1358:	011e0100 	tsteq	lr, r0, lsl #2
    135c:	0003790d 	andeq	r7, r3, sp, lsl #18
    1360:	0d661f00 	stcleq	15, cr1, [r6, #-0]
    1364:	0a100000 	beq	40136c <__bss_end__+0x3f62c4>
    1368:	0a0e0000 	beq	381370 <__bss_end__+0x3762c8>
    136c:	5a1f0000 	bpl	7c1374 <__bss_end__+0x7b62cc>
    1370:	2800000d 	stmdacs	r0, {r0, r2, r3}
    1374:	2600000a 	strcs	r0, [r0], -sl
    1378:	1f00000a 	svcne	0x0000000a
    137c:	00000d4e 	andeq	r0, r0, lr, asr #26
    1380:	00000a42 	andeq	r0, r0, r2, asr #20
    1384:	00000a40 	andeq	r0, r0, r0, asr #20
    1388:	8c1c1800 	ldchi	8, cr1, [ip], {-0}
    138c:	0fc60000 	svceq	0x00c60000
    1390:	54160000 	ldrpl	r0, [r6], #-0
    1394:	d200008c 	andle	r0, r0, #140, 0	; 0x8c
    1398:	9600000f 	strls	r0, [r0], -pc
    139c:	17000003 	strne	r0, [r0, -r3]
    13a0:	74025001 	strvc	r5, [r2], #-1
    13a4:	a8160000 	ldmdage	r6, {}	; <UNPREDICTABLE>
    13a8:	de00008c 	cdple	0, 0, cr0, cr0, cr12, {4}
    13ac:	aa00000f 	bge	13f0 <__code_start__-0x6c10>
    13b0:	17000003 	strne	r0, [r0, -r3]
    13b4:	7b025001 	blvc	953c0 <__bss_end__+0x8a318>
    13b8:	b4160000 	ldrlt	r0, [r6], #-0
    13bc:	9f00008c 	svcls	0x0000008c
    13c0:	c400000f 	strgt	r0, [r0], #-15
    13c4:	17000003 	strne	r0, [r0, -r3]
    13c8:	78025001 	stmdavc	r2, {r0, ip, lr}
    13cc:	51011700 	tstpl	r1, r0, lsl #14
    13d0:	00007b02 	andeq	r7, r0, r2, lsl #22
    13d4:	008cbc20 	addeq	fp, ip, r0, lsr #24
    13d8:	000fd200 	andeq	sp, pc, r0, lsl #4
    13dc:	50011700 	andpl	r1, r1, r0, lsl #14
    13e0:	00007402 	andeq	r7, r0, r2, lsl #8
    13e4:	8c0c1600 	stchi	6, cr1, [ip], {-0}
    13e8:	0f9f0000 	svceq	0x009f0000
    13ec:	03ec0000 	mvneq	r0, #0, 0
    13f0:	01170000 	tsteq	r7, r0
    13f4:	e0030550 	and	r0, r3, r0, asr r5
    13f8:	000000a5 	andeq	r0, r0, r5, lsr #1
    13fc:	008c1416 	addeq	r1, ip, r6, lsl r4
    1400:	000f9f00 	andeq	r9, pc, r0, lsl #30
    1404:	00040300 	andeq	r0, r4, r0, lsl #6
    1408:	50011700 	andpl	r1, r1, r0, lsl #14
    140c:	a8240305 	stmdage	r4!, {r0, r2, r8, r9}
    1410:	18000000 	stmdane	r0, {}	; <UNPREDICTABLE>
    1414:	00008c18 	andeq	r8, r0, r8, lsl ip
    1418:	00000a50 	andeq	r0, r0, r0, asr sl
    141c:	008c7020 	addeq	r7, ip, r0, lsr #32
    1420:	000f9f00 	andeq	r9, pc, r0, lsl #30
    1424:	50011700 	andpl	r1, r1, r0, lsl #14
    1428:	a8440305 	stmdage	r4, {r0, r2, r8, r9}^
    142c:	01170000 	tsteq	r7, r0
    1430:	00760251 	rsbseq	r0, r6, r1, asr r2
    1434:	02520117 	subseq	r0, r2, #-1073741819	; 0xc0000005
    1438:	01170077 	tsteq	r7, r7, ror r0
    143c:	00750253 	rsbseq	r0, r5, r3, asr r2
    1440:	18000000 	stmdane	r0, {}	; <UNPREDICTABLE>
    1444:	00008c04 	andeq	r8, r0, r4, lsl #24
    1448:	00000a50 	andeq	r0, r0, r0, asr sl
    144c:	04aa2100 	strteq	r2, [sl], #256	; 0x100
    1450:	10010000 	andne	r0, r1, r0
    1454:	002c1101 	eoreq	r1, ip, r1, lsl #2
    1458:	93010000 	movwls	r0, #4096	; 0x1000
    145c:	22000004 	andcs	r0, r0, #4, 0
    1460:	0000038a 	andeq	r0, r0, sl, lsl #7
    1464:	0e011201 	cdpeq	2, 0, cr1, cr1, cr1, {0}
    1468:	0000002c 	andeq	r0, r0, ip, lsr #32
    146c:	00041f22 	andeq	r1, r4, r2, lsr #30
    1470:	01120100 	tsteq	r2, r0, lsl #2
    1474:	00002c1b 	andeq	r2, r0, fp, lsl ip
    1478:	03992200 	orrseq	r2, r9, #0, 4
    147c:	12010000 	andne	r0, r1, #0, 0
    1480:	002c2701 	eoreq	r2, ip, r1, lsl #14
    1484:	7a150000 	bvc	54148c <__bss_end__+0x5363e4>
    1488:	a3000001 	movwge	r0, #1
    148c:	05000004 	streq	r0, [r0, #-4]
    1490:	00a8dc03 	adceq	sp, r8, r3, lsl #24
    1494:	68242300 	stmdavs	r4!, {r8, r9, sp}
    1498:	01170100 	tsteq	r7, r0, lsl #2
    149c:	0004a811 	andeq	sl, r4, r1, lsl r8
    14a0:	10000000 	andne	r0, r0, r0
    14a4:	000000cc 	andeq	r0, r0, ip, asr #1
    14a8:	000004a3 	andeq	r0, r0, r3, lsr #9
    14ac:	00002c11 	andeq	r2, r0, r1, lsl ip
    14b0:	09000a00 	stmdbeq	r0, {r9, fp}
    14b4:	00000493 	muleq	r0, r3, r4
    14b8:	01fc0408 	mvnseq	r0, r8, lsl #8
    14bc:	3c190000 	ldccc	0, cr0, [r9], {-0}
    14c0:	01000004 	tsteq	r0, r4
    14c4:	2c0a0100 	stfcss	f0, [sl], {-0}
    14c8:	a8000000 	stmdage	r0, {}	; <UNPREDICTABLE>
    14cc:	5000008b 	andpl	r0, r0, fp, lsl #1
    14d0:	01000000 	mrseq	r0, (UNDEF: 0)
    14d4:	00057b9c 	muleq	r5, ip, fp
    14d8:	03f11a00 	mvnseq	r1, #0, 20
    14dc:	06010000 	streq	r0, [r1], -r0
    14e0:	002c0e01 	eoreq	r0, ip, r1, lsl #28
    14e4:	0a600000 	beq	18014ec <__bss_end__+0x17f6444>
    14e8:	0a5a0000 	beq	16814f0 <__bss_end__+0x1676448>
    14ec:	7a150000 	bvc	5414f4 <__bss_end__+0x53644c>
    14f0:	8b000001 	blhi	14fc <__code_start__-0x6b04>
    14f4:	05000005 	streq	r0, [r0, #-5]
    14f8:	00a8c803 	adceq	ip, r8, r3, lsl #16
    14fc:	06502500 	ldrbeq	r2, [r0], -r0, lsl #10
    1500:	8bac0000 	blhi	feb01508 <__bss_end__+0xfeaf6460>
    1504:	ac020000 	stcge	0, cr0, [r2], {-0}
    1508:	0800008b 	stmdaeq	r0, {r0, r1, r3, r7}
    150c:	01000000 	mrseq	r0, (UNDEF: 0)
    1510:	24170106 	ldrcs	r0, [r7], #-262	; 0xfffffefa
    1514:	1f000005 	svcne	0x00000005
    1518:	00000661 	andeq	r0, r0, r1, ror #12
    151c:	00000a8b 	andeq	r0, r0, fp, lsl #21
    1520:	00000a89 	andeq	r0, r0, r9, lsl #21
    1524:	008bb420 	addeq	fp, fp, r0, lsr #8
    1528:	00066e00 	andeq	r6, r6, r0, lsl #28
    152c:	50011700 	andpl	r1, r1, r0, lsl #14
    1530:	00003101 	andeq	r3, r0, r1, lsl #2
    1534:	008bc816 	addeq	ip, fp, r6, lsl r8
    1538:	000f9f00 	andeq	r9, pc, r0, lsl #30
    153c:	00054100 	andeq	r4, r5, r0, lsl #2
    1540:	50011700 	andpl	r1, r1, r0, lsl #14
    1544:	a8000305 	stmdage	r0, {r0, r2, r8, r9}
    1548:	01170000 	tsteq	r7, r0
    154c:	00740251 	rsbseq	r0, r4, r1, asr r2
    1550:	8be41600 	blhi	ff906d58 <__bss_end__+0xff8fbcb0>
    1554:	0f9f0000 	svceq	0x009f0000
    1558:	05710000 	ldrbeq	r0, [r1, #-0]!
    155c:	01170000 	tsteq	r7, r0
    1560:	d8030550 	stmdale	r3, {r4, r6, r8, sl}
    1564:	170000a7 	strne	r0, [r0, -r7, lsr #1]
    1568:	03055101 	movweq	r5, #20737	; 0x5101
    156c:	0000a548 	andeq	sl, r0, r8, asr #10
    1570:	05520117 	ldrbeq	r0, [r2, #-279]	; 0xfffffee9
    1574:	00a8c803 	adceq	ip, r8, r3, lsl #16
    1578:	53011700 	movwpl	r1, #5888	; 0x1700
    157c:	01080a03 	tsteq	r8, r3, lsl #20
    1580:	8be81800 	blhi	ffa07588 <__bss_end__+0xff9fc4e0>
    1584:	0fab0000 	svceq	0x00ab0000
    1588:	10000000 	andne	r0, r0, r0
    158c:	000000cc 	andeq	r0, r0, ip, asr #1
    1590:	0000058b 	andeq	r0, r0, fp, lsl #11
    1594:	00002c11 	andeq	r2, r0, r1, lsl ip
    1598:	09001100 	stmdbeq	r0, {r8, ip}
    159c:	0000057b 	andeq	r0, r0, fp, ror r5
    15a0:	00041126 	andeq	r1, r4, r6, lsr #2
    15a4:	06f20100 	ldrbteq	r0, [r2], r0, lsl #2
    15a8:	00008b60 	andeq	r8, r0, r0, ror #22
    15ac:	00000048 	andeq	r0, r0, r8, asr #32
    15b0:	063b9c01 	ldrteq	r9, [fp], -r1, lsl #24
    15b4:	7a150000 	bvc	5415bc <__bss_end__+0x536514>
    15b8:	4b000001 	blmi	15c4 <__code_start__-0x6a3c>
    15bc:	05000006 	streq	r0, [r0, #-6]
    15c0:	00a8b803 	adceq	fp, r8, r3, lsl #16
    15c4:	06502700 	ldrbeq	r2, [r0], -r0, lsl #14
    15c8:	8b640000 	blhi	19015d0 <__bss_end__+0x18f6528>
    15cc:	64020000 	strvs	r0, [r2], #-0
    15d0:	0800008b 	stmdaeq	r0, {r0, r1, r3, r7}
    15d4:	01000000 	mrseq	r0, (UNDEF: 0)
    15d8:	05eb09f8 	strbeq	r0, [fp, #2552]!	; 0x9f8
    15dc:	611f0000 	tstvs	pc, r0
    15e0:	a1000006 	tstge	r0, r6
    15e4:	9f00000a 	svcls	0x0000000a
    15e8:	2000000a 	andcs	r0, r0, sl
    15ec:	00008b6c 	andeq	r8, r0, ip, ror #22
    15f0:	0000066e 	andeq	r0, r0, lr, ror #12
    15f4:	01500117 	cmpeq	r0, r7, lsl r1
    15f8:	16000031 			; <UNDEFINED> instruction: 0x16000031
    15fc:	00008b7c 	andeq	r8, r0, ip, ror fp
    1600:	00000f9f 	muleq	r0, pc, pc	; <UNPREDICTABLE>
    1604:	00000602 	andeq	r0, r0, r2, lsl #12
    1608:	05500117 	ldrbeq	r0, [r0, #-279]	; 0xfffffee9
    160c:	00a7b803 	adceq	fp, r7, r3, lsl #16
    1610:	94160000 	ldrls	r0, [r6], #-0
    1614:	9f00008b 	svcls	0x0000008b
    1618:	3100000f 	tstcc	r0, pc
    161c:	17000006 	strne	r0, [r0, -r6]
    1620:	03055001 	movweq	r5, #20481	; 0x5001
    1624:	0000a78c 	andeq	sl, r0, ip, lsl #15
    1628:	05510117 	ldrbeq	r0, [r1, #-279]	; 0xfffffee9
    162c:	00a54803 	adceq	r4, r5, r3, lsl #16
    1630:	52011700 	andpl	r1, r1, #0, 14
    1634:	a8b80305 	ldmge	r8!, {r0, r2, r8, r9}
    1638:	01170000 	tsteq	r7, r0
    163c:	f9080253 			; <UNDEFINED> instruction: 0xf9080253
    1640:	8b981800 	blhi	fe607648 <__bss_end__+0xfe5fc5a0>
    1644:	0fab0000 	svceq	0x00ab0000
    1648:	10000000 	andne	r0, r0, r0
    164c:	000000cc 	andeq	r0, r0, ip, asr #1
    1650:	0000064b 	andeq	r0, r0, fp, asr #12
    1654:	00002c11 	andeq	r2, r0, r1, lsl ip
    1658:	09000d00 	stmdbeq	r0, {r8, sl, fp}
    165c:	0000063b 	andeq	r0, r0, fp, lsr r6
    1660:	0003b928 	andeq	fp, r3, r8, lsr #18
    1664:	0aeb0100 	beq	ffac1a6c <__bss_end__+0xffab69c4>
    1668:	0000002c 	andeq	r0, r0, ip, lsr #32
    166c:	00066e01 	andeq	r6, r6, r1, lsl #28
    1670:	04b52900 	ldrteq	r2, [r5], #2304	; 0x900
    1674:	eb010000 	bl	4167c <__bss_end__+0x365d4>
    1678:	0000251c 	andeq	r2, r0, ip, lsl r5
    167c:	902a0000 	eorls	r0, sl, r0
    1680:	01000004 	tsteq	r0, r4
    1684:	002c11c2 	eoreq	r1, ip, r2, asr #3
    1688:	88440000 	stmdahi	r4, {}^	; <UNPREDICTABLE>
    168c:	01200000 			; <UNDEFINED> instruction: 0x01200000
    1690:	9c010000 	stcls	0, cr0, [r1], {-0}
    1694:	00000820 	andeq	r0, r0, r0, lsr #16
    1698:	0004b52b 	andeq	fp, r4, fp, lsr #10
    169c:	20c20100 	sbccs	r0, r2, r0, lsl #2
    16a0:	00000025 	andeq	r0, r0, r5, lsr #32
    16a4:	00000ab9 			; <UNDEFINED> instruction: 0x00000ab9
    16a8:	00000ab5 			; <UNDEFINED> instruction: 0x00000ab5
    16ac:	00038a2c 	andeq	r8, r3, ip, lsr #20
    16b0:	0ec40100 	poleqs	f0, f4, f0
    16b4:	0000002c 	andeq	r0, r0, ip, lsr #32
    16b8:	00000adf 	ldrdeq	r0, [r0], -pc	; <UNPREDICTABLE>
    16bc:	00000ad7 	ldrdeq	r0, [r0], -r7
    16c0:	0003cd2c 	andeq	ip, r3, ip, lsr #26
    16c4:	1bc40100 	blne	ff101acc <__bss_end__+0xff0f6a24>
    16c8:	0000002c 	andeq	r0, r0, ip, lsr #32
    16cc:	00000b1d 	andeq	r0, r0, sp, lsl fp
    16d0:	00000b15 	andeq	r0, r0, r5, lsl fp
    16d4:	0003c72c 	andeq	ip, r3, ip, lsr #14
    16d8:	27c40100 	strbcs	r0, [r4, r0, lsl #2]
    16dc:	0000002c 	andeq	r0, r0, ip, lsr #32
    16e0:	00000b5b 	andeq	r0, r0, fp, asr fp
    16e4:	00000b53 	andeq	r0, r0, r3, asr fp
    16e8:	0003382d 	andeq	r3, r3, sp, lsr #16
    16ec:	00076100 	andeq	r6, r7, r0, lsl #2
    16f0:	00682e00 	rsbeq	r2, r8, r0, lsl #28
    16f4:	a811c901 	ldmdage	r1, {r0, r8, fp, lr, pc}
    16f8:	a7000004 	strge	r0, [r0, -r4]
    16fc:	9100000b 	tstls	r0, fp
    1700:	1800000b 	stmdane	r0, {r0, r1, r3}
    1704:	00008864 	andeq	r8, r0, r4, ror #16
    1708:	00000fc6 	andeq	r0, r0, r6, asr #31
    170c:	00889416 	addeq	r9, r8, r6, lsl r4
    1710:	000fd200 	andeq	sp, pc, r0, lsl #4
    1714:	00071000 	andeq	r1, r7, r0
    1718:	50011700 	andpl	r1, r1, r0, lsl #14
    171c:	00007402 	andeq	r7, r0, r2, lsl #8
    1720:	0088bc16 	addeq	fp, r8, r6, lsl ip
    1724:	000f9f00 	andeq	r9, pc, r0, lsl #30
    1728:	00073000 	andeq	r3, r7, r0
    172c:	50011700 	andpl	r1, r1, r0, lsl #14
    1730:	17007902 	strne	r7, [r0, -r2, lsl #18]
    1734:	75025101 	strvc	r5, [r2, #-257]	; 0xfffffeff
    1738:	52011700 	andpl	r1, r1, #0, 14
    173c:	00007402 	andeq	r7, r0, r2, lsl #8
    1740:	0088c416 	addeq	ip, r8, r6, lsl r4
    1744:	000fd200 	andeq	sp, pc, r0, lsl #4
    1748:	00074400 	andeq	r4, r7, r0, lsl #8
    174c:	50011700 	andpl	r1, r1, r0, lsl #14
    1750:	00007402 	andeq	r7, r0, r2, lsl #8
    1754:	00892020 	addeq	r2, r9, r0, lsr #32
    1758:	000f9f00 	andeq	r9, pc, r0, lsl #30
    175c:	50011700 	andpl	r1, r1, r0, lsl #14
    1760:	17007a02 	strne	r7, [r0, -r2, lsl #20]
    1764:	75025101 	strvc	r5, [r2, #-257]	; 0xfffffeff
    1768:	52011700 	andpl	r1, r1, #0, 14
    176c:	00007402 	andeq	r7, r0, r2, lsl #8
    1770:	88541600 	ldmdahi	r4, {r9, sl, ip}^
    1774:	0f9f0000 	svceq	0x009f0000
    1778:	07780000 	ldrbeq	r0, [r8, -r0]!
    177c:	01170000 	tsteq	r7, r0
    1780:	e0030550 	and	r0, r3, r0, asr r5
    1784:	000000a5 	andeq	r0, r0, r5, lsr #1
    1788:	00885c16 	addeq	r5, r8, r6, lsl ip
    178c:	000f9f00 	andeq	r9, pc, r0, lsl #30
    1790:	00078f00 	andeq	r8, r7, r0, lsl #30
    1794:	50011700 	andpl	r1, r1, r0, lsl #14
    1798:	a61c0305 	ldrge	r0, [ip], -r5, lsl #6
    179c:	18000000 	stmdane	r0, {}	; <UNPREDICTABLE>
    17a0:	00008860 	andeq	r8, r0, r0, ror #16
    17a4:	00000a50 	andeq	r0, r0, r0, asr sl
    17a8:	0088dc16 	addeq	sp, r8, r6, lsl ip
    17ac:	000f9f00 	andeq	r9, pc, r0, lsl #30
    17b0:	0007b500 	andeq	fp, r7, r0, lsl #10
    17b4:	50011700 	andpl	r1, r1, r0, lsl #14
    17b8:	a6600305 	strbtge	r0, [r0], -r5, lsl #6
    17bc:	01170000 	tsteq	r7, r0
    17c0:	00750251 	rsbseq	r0, r5, r1, asr r2
    17c4:	88f41600 	ldmhi	r4!, {r9, sl, ip}^
    17c8:	0f9f0000 	svceq	0x009f0000
    17cc:	07d80000 	ldrbeq	r0, [r8, r0]
    17d0:	01170000 	tsteq	r7, r0
    17d4:	a8030550 	stmdage	r3, {r4, r6, r8, sl}
    17d8:	170000a6 	strne	r0, [r0, -r6, lsr #1]
    17dc:	76025101 	strvc	r5, [r2], -r1, lsl #2
    17e0:	52011700 	andpl	r1, r1, #0, 14
    17e4:	00007702 	andeq	r7, r0, r2, lsl #14
    17e8:	0088fc16 	addeq	pc, r8, r6, lsl ip	; <UNPREDICTABLE>
    17ec:	000f9f00 	andeq	r9, pc, r0, lsl #30
    17f0:	0007ef00 	andeq	lr, r7, r0, lsl #30
    17f4:	50011700 	andpl	r1, r1, r0, lsl #14
    17f8:	a6d80305 	ldrbge	r0, [r8], r5, lsl #6
    17fc:	16000000 	strne	r0, [r0], -r0
    1800:	00008930 	andeq	r8, r0, r0, lsr r9
    1804:	00000f9f 	muleq	r0, pc, pc	; <UNPREDICTABLE>
    1808:	0000080c 	andeq	r0, r0, ip, lsl #16
    180c:	05500117 	ldrbeq	r0, [r0, #-279]	; 0xfffffee9
    1810:	00a66003 	adceq	r6, r6, r3
    1814:	51011700 	tstpl	r1, r0, lsl #14
    1818:	00007402 	andeq	r7, r0, r2, lsl #8
    181c:	00894020 	addeq	r4, r9, r0, lsr #32
    1820:	000f9f00 	andeq	r9, pc, r0, lsl #30
    1824:	50011700 	andpl	r1, r1, r0, lsl #14
    1828:	a6800305 	strge	r0, [r0], r5, lsl #6
    182c:	00000000 	andeq	r0, r0, r0
    1830:	00019e2f 	andeq	r9, r1, pc, lsr #28
    1834:	05ac0100 	streq	r0, [ip, #256]!	; 0x100
    1838:	00000025 	andeq	r0, r0, r5, lsr #32
    183c:	00008a38 	andeq	r8, r0, r8, lsr sl
    1840:	00000124 	andeq	r0, r0, r4, lsr #2
    1844:	0a089c01 	beq	228850 <__bss_end__+0x21d7a8>
    1848:	cd2c0000 	stcgt	0, cr0, [ip, #-0]
    184c:	01000003 	tsteq	r0, r3
    1850:	002509ad 	eoreq	r0, r5, sp, lsr #19
    1854:	0c2e0000 	stceq	0, cr0, [lr], #-0
    1858:	0c280000 	stceq	0, cr0, [r8], #-0
    185c:	901c0000 	andsls	r0, ip, r0
    1860:	2e000003 	cdpcs	0, 0, cr0, cr0, cr3, {0}
    1864:	ae010068 	cdpge	0, 0, cr0, cr1, cr8, {3}
    1868:	0004a811 	andeq	sl, r4, r1, lsl r8
    186c:	000c6500 	andeq	r6, ip, r0, lsl #10
    1870:	000c5900 	andeq	r5, ip, r0, lsl #18
    1874:	03b82d00 			; <UNDEFINED> instruction: 0x03b82d00
    1878:	09ed0000 	stmibeq	sp!, {}^	; <UNPREDICTABLE>
    187c:	f82c0000 			; <UNDEFINED> instruction: 0xf82c0000
    1880:	01000003 	tsteq	r0, r3
    1884:	00250daf 	eoreq	r0, r5, pc, lsr #27
    1888:	0cb30000 	ldceq	0, cr0, [r3]
    188c:	0caf0000 	stceq	0, cr0, [pc]	; 1894 <__code_start__-0x676c>
    1890:	d82d0000 	stmdale	sp!, {}	; <UNPREDICTABLE>
    1894:	12000003 	andne	r0, r0, #3, 0
    1898:	30000009 	andcc	r0, r0, r9
    189c:	b4010065 	strlt	r0, [r1], #-101	; 0xffffff9b
    18a0:	00002511 	andeq	r2, r0, r1, lsl r5
    18a4:	0a082700 	beq	20b4ac <__bss_end__+0x200404>
    18a8:	8af00000 	bhi	ffc018b0 <__bss_end__+0xffbf6808>
    18ac:	f0000000 			; <UNDEFINED> instruction: 0xf0000000
    18b0:	2c00008a 	stccs	0, cr0, [r0], {138}	; 0x8a
    18b4:	01000000 	mrseq	r0, (UNDEF: 0)
    18b8:	08ed15b4 	stmiaeq	sp!, {r2, r4, r5, r7, r8, sl, ip}^
    18bc:	251f0000 	ldrcs	r0, [pc, #-0]	; 18c4 <__code_start__-0x673c>
    18c0:	d600000a 	strle	r0, [r0], -sl
    18c4:	d200000c 	andle	r0, r0, #12, 0
    18c8:	1f00000c 	svcne	0x0000000c
    18cc:	00000a19 	andeq	r0, r0, r9, lsl sl
    18d0:	00000cf7 	strdeq	r0, [r0], -r7
    18d4:	00000cf5 	strdeq	r0, [r0], -r5
    18d8:	000a311d 	andeq	r3, sl, sp, lsl r1
    18dc:	000d1100 	andeq	r1, sp, r0, lsl #2
    18e0:	000d0d00 	andeq	r0, sp, r0, lsl #26
    18e4:	0a3d3100 	beq	f4dcec <__bss_end__+0xf42c44>
    18e8:	03f80000 	mvnseq	r0, #0, 0
    18ec:	3e1d0000 	cdpcc	0, 1, cr0, cr13, cr0, {0}
    18f0:	3400000a 	strcc	r0, [r0], #-10
    18f4:	3200000d 	andcc	r0, r0, #13, 0
    18f8:	0000000d 	andeq	r0, r0, sp
    18fc:	8b381600 	blhi	e07104 <__bss_end__+0xdfc05c>
    1900:	0f9f0000 	svceq	0x009f0000
    1904:	09010000 	stmdbeq	r1, {}	; <UNPREDICTABLE>
    1908:	01170000 	tsteq	r7, r0
    190c:	00760250 	rsbseq	r0, r6, r0, asr r2
    1910:	8b402000 	blhi	1009918 <__bss_end__+0xffe870>
    1914:	0f9f0000 	svceq	0x009f0000
    1918:	01170000 	tsteq	r7, r0
    191c:	00780250 	rsbseq	r0, r8, r0, asr r2
    1920:	08270000 	stmdaeq	r7!, {}	; <UNPREDICTABLE>
    1924:	5800000a 	stmdapl	r0, {r1, r3}
    1928:	0300008a 	movweq	r0, #138	; 0x8a
    192c:	00008a58 	andeq	r8, r0, r8, asr sl
    1930:	00000020 	andeq	r0, r0, r0, lsr #32
    1934:	6a1eb001 	bvs	7ad940 <__bss_end__+0x7a2898>
    1938:	1f000009 	svcne	0x00000009
    193c:	00000a25 	andeq	r0, r0, r5, lsr #20
    1940:	00000d4a 	andeq	r0, r0, sl, asr #26
    1944:	00000d48 	andeq	r0, r0, r8, asr #26
    1948:	000a191f 	andeq	r1, sl, pc, lsl r9
    194c:	000d6100 	andeq	r6, sp, r0, lsl #2
    1950:	000d5f00 	andeq	r5, sp, r0, lsl #30
    1954:	0a311d00 	beq	c48d5c <__bss_end__+0xc3dcb4>
    1958:	0d7a0000 	ldcleq	0, cr0, [sl, #-0]
    195c:	0d760000 	ldcleq	0, cr0, [r6, #-0]
    1960:	3d310000 	ldccc	0, cr0, [r1, #-0]
    1964:	1000000a 	andne	r0, r0, sl
    1968:	1d000004 	stcne	0, cr0, [r0, #-16]
    196c:	00000a3e 	andeq	r0, r0, lr, lsr sl
    1970:	00000d9d 	muleq	r0, sp, sp
    1974:	00000d9b 	muleq	r0, fp, sp
    1978:	08320000 	ldmdaeq	r2!, {}	; <UNPREDICTABLE>
    197c:	8000000a 	andhi	r0, r0, sl
    1980:	0000008a 	andeq	r0, r0, sl, lsl #1
    1984:	00000428 	andeq	r0, r0, r8, lsr #8
    1988:	c81eb101 	ldmdagt	lr, {r0, r8, ip, sp, pc}
    198c:	1f000009 	svcne	0x00000009
    1990:	00000a25 	andeq	r0, r0, r5, lsr #20
    1994:	00000db3 			; <UNDEFINED> instruction: 0x00000db3
    1998:	00000db1 			; <UNDEFINED> instruction: 0x00000db1
    199c:	000a191f 	andeq	r1, sl, pc, lsl r9
    19a0:	000dcc00 	andeq	ip, sp, r0, lsl #24
    19a4:	000dc800 	andeq	ip, sp, r0, lsl #16
    19a8:	04281c00 	strteq	r1, [r8], #-3072	; 0xfffff400
    19ac:	311d0000 	tstcc	sp, r0
    19b0:	ff00000a 			; <UNDEFINED> instruction: 0xff00000a
    19b4:	fb00000d 	blx	19f2 <__code_start__-0x660e>
    19b8:	3300000d 	movwcc	r0, #13
    19bc:	00000a3d 	andeq	r0, r0, sp, lsr sl
    19c0:	00008a80 	andeq	r8, r0, r0, lsl #21
    19c4:	00000028 	andeq	r0, r0, r8, lsr #32
    19c8:	000a3e1d 	andeq	r3, sl, sp, lsl lr
    19cc:	000e2000 	andeq	r2, lr, r0
    19d0:	000e1e00 	andeq	r1, lr, r0, lsl #28
    19d4:	00000000 	andeq	r0, r0, r0
    19d8:	008abc16 	addeq	fp, sl, r6, lsl ip
    19dc:	000f9f00 	andeq	r9, pc, r0, lsl #30
    19e0:	0009dc00 	andeq	sp, r9, r0, lsl #24
    19e4:	50011700 	andpl	r1, r1, r0, lsl #14
    19e8:	00007602 	andeq	r7, r0, r2, lsl #12
    19ec:	008ac420 	addeq	ip, sl, r0, lsr #8
    19f0:	000f9f00 	andeq	r9, pc, r0, lsl #30
    19f4:	50011700 	andpl	r1, r1, r0, lsl #14
    19f8:	00007702 	andeq	r7, r0, r2, lsl #14
    19fc:	8a401800 	bhi	1007a04 <__bss_end__+0xffc95c>
    1a00:	0fc60000 	svceq	0x00c60000
    1a04:	d8200000 	stmdale	r0!, {}	; <UNPREDICTABLE>
    1a08:	d200008a 	andle	r0, r0, #138, 0	; 0x8a
    1a0c:	1700000f 	strne	r0, [r0, -pc]
    1a10:	74025001 	strvc	r5, [r2], #-1
    1a14:	00000000 	andeq	r0, r0, r0
    1a18:	00045a28 	andeq	r5, r4, r8, lsr #20
    1a1c:	0ea20100 	fdveqs	f0, f2, f0
    1a20:	0000002c 	andeq	r0, r0, ip, lsr #32
    1a24:	000a4a01 	andeq	r4, sl, r1, lsl #20
    1a28:	04692900 	strbteq	r2, [r9], #-2304	; 0xfffff700
    1a2c:	a2010000 	andge	r0, r1, #0, 0
    1a30:	000a4a23 	andeq	r4, sl, r3, lsr #20
    1a34:	02ea2900 	rsceq	r2, sl, #0, 18
    1a38:	a2010000 	andge	r0, r1, #0, 0
    1a3c:	00002530 	andeq	r2, r0, r0, lsr r5
    1a40:	04c93400 	strbeq	r3, [r9], #1024	; 0x400
    1a44:	a3010000 	movwge	r0, #4096	; 0x1000
    1a48:	00002509 	andeq	r2, r0, r9, lsl #10
    1a4c:	69302300 	ldmdbvs	r0!, {r8, r9, sp}
    1a50:	0ea40100 	fdveqs	f0, f4, f0
    1a54:	00000025 	andeq	r0, r0, r5, lsr #32
    1a58:	04080000 	streq	r0, [r8], #-0
    1a5c:	000000c5 	andeq	r0, r0, r5, asr #1
    1a60:	00036435 	andeq	r6, r3, r5, lsr r4
    1a64:	0d790100 	ldfeqe	f0, [r9, #-0]
    1a68:	000087a0 	andeq	r8, r0, r0, lsr #15
    1a6c:	000000a4 	andeq	r0, r0, r4, lsr #1
    1a70:	0b589c01 	bleq	1628a7c <__bss_end__+0x161d9d4>
    1a74:	ec130000 	ldc	0, cr0, [r3], {-0}
    1a78:	01000003 	tsteq	r0, r3
    1a7c:	0b580e85 	bleq	1605498 <__bss_end__+0x15fa3f0>
    1a80:	91030000 	mrsls	r0, (UNDEF: 3)
    1a84:	5a367fb8 	bpl	da196c <__bss_end__+0xd968c4>
    1a88:	01000003 	tsteq	r0, r3
    1a8c:	0b680f96 	bleq	1a058ec <__bss_end__+0x19fa844>
    1a90:	00000000 	andeq	r0, r0, r0
    1a94:	7c070800 	stcvc	8, cr0, [r7], {-0}
    1a98:	01000003 	tsteq	r0, r3
    1a9c:	0075159b 			; <UNDEFINED> instruction: 0x0075159b
    1aa0:	4e070000 	cdpmi	0, 0, cr0, cr7, cr0, {0}
    1aa4:	01000004 	tsteq	r0, r4
    1aa8:	0075249b 			; <UNDEFINED> instruction: 0x0075249b
    1aac:	9b070000 	blls	1c1ab4 <__bss_end__+0x1b6a0c>
    1ab0:	01000004 	tsteq	r0, r4
    1ab4:	0075159e 			; <UNDEFINED> instruction: 0x0075159e
    1ab8:	da070000 	ble	1c1ac0 <__bss_end__+0x1b6a18>
    1abc:	01000003 	tsteq	r0, r3
    1ac0:	0075259e 			; <UNDEFINED> instruction: 0x0075259e
    1ac4:	202d0000 	eorcs	r0, sp, r0
    1ac8:	e4000003 	str	r0, [r0], #-3
    1acc:	2e00000a 	cdpcs	0, 0, cr0, cr0, cr10, {0}
    1ad0:	7e010068 	cdpvc	0, 0, cr0, cr1, cr8, {3}
    1ad4:	0004a811 	andeq	sl, r4, r1, lsl r8
    1ad8:	000e3800 	andeq	r3, lr, r0, lsl #16
    1adc:	000e3400 	andeq	r3, lr, r0, lsl #8
    1ae0:	87ac1800 	strhi	r1, [ip, r0, lsl #16]!
    1ae4:	0fc60000 	svceq	0x00c60000
    1ae8:	c8180000 	ldmdagt	r8, {}	; <UNPREDICTABLE>
    1aec:	d2000087 	andle	r0, r0, #135, 0	; 0x87
    1af0:	0000000f 	andeq	r0, r0, pc
    1af4:	0087d816 	addeq	sp, r7, r6, lsl r8
    1af8:	000fea00 	andeq	lr, pc, r0, lsl #20
    1afc:	000af800 	andeq	pc, sl, r0, lsl #16
    1b00:	50011700 	andpl	r1, r1, r0, lsl #14
    1b04:	00007d02 	andeq	r7, r0, r2, lsl #26
    1b08:	0087f416 	addeq	pc, r7, r6, lsl r4	; <UNPREDICTABLE>
    1b0c:	000b6e00 	andeq	r6, fp, r0, lsl #28
    1b10:	000b1200 	andeq	r1, fp, r0, lsl #4
    1b14:	50011700 	andpl	r1, r1, r0, lsl #14
    1b18:	17007d02 	strne	r7, [r0, -r2, lsl #26]
    1b1c:	91025101 	tstls	r2, r1, lsl #2
    1b20:	04160068 	ldreq	r0, [r6], #-104	; 0xffffff98
    1b24:	9f000088 	svcls	0x00000088
    1b28:	3000000f 	andcc	r0, r0, pc
    1b2c:	1700000b 	strne	r0, [r0, -fp]
    1b30:	03055001 	movweq	r5, #20481	; 0x5001
    1b34:	0000a5c4 	andeq	sl, r0, r4, asr #11
    1b38:	03520117 	cmpeq	r2, #-1073741819	; 0xc0000005
    1b3c:	00244740 	eoreq	r4, r4, r0, asr #14
    1b40:	00881016 	addeq	r1, r8, r6, lsl r0
    1b44:	000b6e00 	andeq	r6, fp, r0, lsl #28
    1b48:	000b4500 	andeq	r4, fp, r0, lsl #10
    1b4c:	51011700 	tstpl	r1, r0, lsl #14
    1b50:	24474003 	strbcs	r4, [r7], #-3
    1b54:	881c1800 	ldmdahi	ip, {fp, ip}
    1b58:	0b6e0000 	bleq	1b81b60 <__bss_end__+0x1b76ab8>
    1b5c:	28180000 	ldmdacs	r8, {}	; <UNPREDICTABLE>
    1b60:	6e000088 	cdpvs	0, 0, cr0, cr0, cr8, {4}
    1b64:	0000000b 	andeq	r0, r0, fp
    1b68:	00007510 	andeq	r7, r0, r0, lsl r5
    1b6c:	000b6800 	andeq	r6, fp, r0, lsl #16
    1b70:	002c1100 	eoreq	r1, ip, r0, lsl #2
    1b74:	000f0000 	andeq	r0, pc, r0
    1b78:	00750408 	rsbseq	r0, r5, r8, lsl #8
    1b7c:	aa370000 	bge	dc1b84 <__bss_end__+0xdb6adc>
    1b80:	01000003 	tsteq	r0, r3
    1b84:	d1010d50 	tstle	r1, r0, asr sp
    1b88:	3800000b 	stmdacc	r0, {r0, r1, r3}
    1b8c:	50010070 	andpl	r0, r1, r0, ror r0
    1b90:	000b681c 	andeq	r6, fp, ip, lsl r8
    1b94:	00653800 	rsbeq	r3, r5, r0, lsl #16
    1b98:	68295001 	stmdavs	r9!, {r0, ip, lr}
    1b9c:	1500000b 	strne	r0, [r0, #-11]
    1ba0:	0000017a 	andeq	r0, r0, sl, ror r1
    1ba4:	00000be1 	andeq	r0, r0, r1, ror #23
    1ba8:	a8a80305 	stmiage	r8!, {r0, r2, r8, r9}
    1bac:	30230000 	eorcc	r0, r3, r0
    1bb0:	58010069 	stmdapl	r1, {r0, r3, r5, r6}
    1bb4:	000b6814 	andeq	r6, fp, r4, lsl r8
    1bb8:	62302300 	eorsvs	r2, r0, #0, 6
    1bbc:	105a0100 	subsne	r0, sl, r0, lsl #2
    1bc0:	000004a8 	andeq	r0, r0, r8, lsr #9
    1bc4:	78653023 	stmdavc	r5!, {r0, r1, r5, ip, sp}^
    1bc8:	5d010070 	stcpl	0, cr0, [r1, #-448]	; 0xfffffe40
    1bcc:	00007516 	andeq	r7, r0, r6, lsl r5
    1bd0:	03a63400 			; <UNDEFINED> instruction: 0x03a63400
    1bd4:	5e010000 	cdppl	0, 0, cr0, cr1, cr0, {0}
    1bd8:	00006216 	andeq	r6, r0, r6, lsl r2
    1bdc:	00000000 	andeq	r0, r0, r0
    1be0:	00cc1000 	sbceq	r1, ip, r0
    1be4:	0be10000 	bleq	ff841bec <__bss_end__+0xff836b44>
    1be8:	2c110000 	ldccs	0, cr0, [r1], {-0}
    1bec:	04000000 	streq	r0, [r0], #-0
    1bf0:	0bd10900 	bleq	ff443ff8 <__bss_end__+0xff438f50>
    1bf4:	0a390000 	beq	e41bfc <__bss_end__+0xe36b54>
    1bf8:	01000004 	tsteq	r0, r4
    1bfc:	04a80f3c 	strteq	r0, [r8], #3900	; 0xf3c
    1c00:	0e010000 	cdpeq	0, 0, cr0, cr1, cr0, {0}
    1c04:	2900000c 	stmdbcs	r0, {r2, r3}
    1c08:	00000ab6 			; <UNDEFINED> instruction: 0x00000ab6
    1c0c:	751f3c01 	ldrvc	r3, [pc, #-3073]	; 1013 <__code_start__-0x6fed>
    1c10:	30000000 	andcc	r0, r0, r0
    1c14:	3e010070 	mcrcc	0, 0, r0, cr1, cr0, {3}
    1c18:	0002080b 	andeq	r0, r2, fp, lsl #16
    1c1c:	26390000 	ldrtcs	r0, [r9], -r0
    1c20:	01000004 	tsteq	r0, r4
    1c24:	00250c2b 	eoreq	r0, r5, fp, lsr #24
    1c28:	2a010000 	bcs	41c30 <__bss_end__+0x36b88>
    1c2c:	3800000c 	stmdacc	r0, {r2, r3}
    1c30:	2b010070 	blcs	41df8 <__bss_end__+0x36d50>
    1c34:	0002081a 	andeq	r0, r2, sl, lsl r8
    1c38:	402f0000 	eormi	r0, pc, r0
    1c3c:	01000003 	tsteq	r0, r3
    1c40:	02080713 	andeq	r0, r8, #4980736	; 0x4c0000
    1c44:	89640000 	stmdbhi	r4!, {}^	; <UNPREDICTABLE>
    1c48:	009c0000 	addseq	r0, ip, r0
    1c4c:	9c010000 	stcls	0, cr0, [r1], {-0}
    1c50:	00000d3d 	andeq	r0, r0, sp, lsr sp
    1c54:	0003af2b 	andeq	sl, r3, fp, lsr #30
    1c58:	11130100 	tstne	r3, r0, lsl #2
    1c5c:	00000041 	andeq	r0, r0, r1, asr #32
    1c60:	00000e66 	andeq	r0, r0, r6, ror #28
    1c64:	00000e56 	andeq	r0, r0, r6, asr lr
    1c68:	00039213 	andeq	r9, r3, r3, lsl r2
    1c6c:	10150100 	andsne	r0, r5, r0, lsl #2
    1c70:	00000025 	andeq	r0, r0, r5, lsr #32
    1c74:	aca00305 	stcge	3, cr0, [r0], #20
    1c78:	7a150000 	bvc	541c80 <__bss_end__+0x536bd8>
    1c7c:	e1000001 	tst	r0, r1
    1c80:	0500000b 	streq	r0, [r0, #-11]
    1c84:	00a8b003 	adceq	fp, r8, r3
    1c88:	03602d00 	cmneq	r0, #0, 26
    1c8c:	0caf0000 	stceq	0, cr0, [pc]	; 1c94 <__code_start__-0x636c>
    1c90:	2e2c0000 	cdpcs	0, 2, cr0, cr12, cr0, {0}
    1c94:	01000004 	tsteq	r0, r4
    1c98:	002c121c 	eoreq	r1, ip, ip, lsl r2
    1c9c:	0ecb0000 	cdpeq	0, 12, cr0, cr11, cr0, {0}
    1ca0:	0ec90000 	cdpeq	0, 12, cr0, cr9, cr0, {0}
    1ca4:	98200000 	stmdals	r0!, {}	; <UNPREDICTABLE>
    1ca8:	f6000089 			; <UNDEFINED> instruction: 0xf6000089
    1cac:	1700000f 	strne	r0, [r0, -pc]
    1cb0:	40035001 	andmi	r5, r3, r1
    1cb4:	01172440 	tsteq	r7, r0, asr #8
    1cb8:	40400351 	submi	r0, r0, r1, asr r3
    1cbc:	3a000024 	bcc	1d54 <__code_start__-0x62ac>
    1cc0:	000089b0 			; <UNDEFINED> instruction: 0x000089b0
    1cc4:	00001002 	andeq	r1, r0, r2
    1cc8:	00000cc4 	andeq	r0, r0, r4, asr #25
    1ccc:	03500117 	cmpeq	r0, #-1073741819	; 0xc0000005
    1cd0:	005001f3 	ldrsheq	r0, [r0], #-19	; 0xffffffed
    1cd4:	0089cc16 	addeq	ip, r9, r6, lsl ip
    1cd8:	000f9f00 	andeq	r9, pc, r0, lsl #30
    1cdc:	000cfc00 	andeq	pc, ip, r0, lsl #24
    1ce0:	50011700 	andpl	r1, r1, r0, lsl #14
    1ce4:	a4d40305 	ldrbge	r0, [r4], #773	; 0x305
    1ce8:	01170000 	tsteq	r7, r0
    1cec:	48030551 	stmdami	r3, {r0, r4, r6, r8, sl}
    1cf0:	170000a5 	strne	r0, [r0, -r5, lsr #1]
    1cf4:	03055201 	movweq	r5, #20993	; 0x5201
    1cf8:	0000a8b0 			; <UNDEFINED> instruction: 0x0000a8b0
    1cfc:	01530117 	cmpeq	r3, r7, lsl r1
    1d00:	7d021747 	stcvc	7, cr1, [r2, #-284]	; 0xfffffee4
    1d04:	14030500 	strne	r0, [r3], #-1280	; 0xfffffb00
    1d08:	000000a7 	andeq	r0, r0, r7, lsr #1
    1d0c:	0089d018 	addeq	sp, r9, r8, lsl r0
    1d10:	000fab00 	andeq	sl, pc, r0, lsl #22
    1d14:	89e41600 	stmibhi	r4!, {r9, sl, ip}^
    1d18:	0f9f0000 	svceq	0x009f0000
    1d1c:	0d330000 	ldceq	0, cr0, [r3, #-0]
    1d20:	01170000 	tsteq	r7, r0
    1d24:	24030550 	strcs	r0, [r3], #-1360	; 0xfffffab0
    1d28:	170000a7 	strne	r0, [r0, -r7, lsr #1]
    1d2c:	03055101 	movweq	r5, #20737	; 0x5101
    1d30:	0000a548 	andeq	sl, r0, r8, asr #10
    1d34:	05520117 	ldrbeq	r0, [r2, #-279]	; 0xfffffee9
    1d38:	00a8b003 	adceq	fp, r8, r3
    1d3c:	53011700 	movwpl	r1, #5888	; 0x1700
    1d40:	18004901 	stmdane	r0, {r0, r8, fp, lr}
    1d44:	000089e8 	andeq	r8, r0, r8, ror #19
    1d48:	00000fab 	andeq	r0, r0, fp, lsr #31
    1d4c:	00153900 	andseq	r3, r5, r0, lsl #18
    1d50:	0c020000 	stceq	0, cr0, [r2], {-0}
    1d54:	0001140b 	andeq	r1, r1, fp, lsl #8
    1d58:	0d730300 	ldcleq	3, cr0, [r3, #-0]
    1d5c:	3a290000 	bcc	a41d64 <__bss_end__+0xa36cbc>
    1d60:	02000000 	andeq	r0, r0, #0, 0
    1d64:	00bf220c 	adcseq	r2, pc, ip, lsl #4
    1d68:	c0290000 	eorgt	r0, r9, r0
    1d6c:	02000000 	andeq	r0, r0, #0, 0
    1d70:	00bf340c 	adcseq	r3, pc, ip, lsl #8
    1d74:	20290000 	eorcs	r0, r9, r0
    1d78:	02000000 	andeq	r0, r0, #0, 0
    1d7c:	002c430c 	eoreq	r4, ip, ip, lsl #6
    1d80:	3b000000 	blcc	1d88 <__code_start__-0x6278>
    1d84:	00000b6e 	andeq	r0, r0, lr, ror #22
    1d88:	00008644 	andeq	r8, r0, r4, asr #12
    1d8c:	0000015c 	andeq	r0, r0, ip, asr r1
    1d90:	0f1b9c01 	svceq	0x001b9c01
    1d94:	7b1f0000 	blvc	7c1d9c <__bss_end__+0x7b6cf4>
    1d98:	e900000b 	stmdb	r0, {r0, r1, r3}
    1d9c:	e100000e 	tst	r0, lr
    1da0:	1f00000e 	svcne	0x0000000e
    1da4:	00000b85 	andeq	r0, r0, r5, lsl #23
    1da8:	00000f2b 	andeq	r0, r0, fp, lsr #30
    1dac:	00000f23 	andeq	r0, r0, r3, lsr #30
    1db0:	000b6e3c 	andeq	r6, fp, ip, lsr lr
    1db4:	00026800 	andeq	r6, r2, r0, lsl #16
    1db8:	0d500100 	ldfeqe	f0, [r0, #-0]
    1dbc:	00000ee8 	andeq	r0, r0, r8, ror #29
    1dc0:	000b853d 	andeq	r8, fp, sp, lsr r5
    1dc4:	0b7b3d00 	bleq	1ed11cc <__bss_end__+0x1ec6124>
    1dc8:	681c0000 	ldmdavs	ip, {}	; <UNPREDICTABLE>
    1dcc:	31000002 	tstcc	r0, r2
    1dd0:	00000b9e 	muleq	r0, lr, fp
    1dd4:	00000268 	andeq	r0, r0, r8, ror #4
    1dd8:	000b9f1d 	andeq	r9, fp, sp, lsl pc
    1ddc:	000f7300 	andeq	r7, pc, r0, lsl #6
    1de0:	000f6500 	andeq	r6, pc, r0, lsl #10
    1de4:	0ba93100 	bleq	fea4e1ec <__bss_end__+0xfea43144>
    1de8:	02800000 	addeq	r0, r0, #0, 0
    1dec:	aa1d0000 	bge	741df4 <__bss_end__+0x736d4c>
    1df0:	d000000b 	andle	r0, r0, fp
    1df4:	c800000f 	stmdagt	r0, {r0, r1, r2, r3}
    1df8:	1e00000f 	cdpne	0, 0, cr0, cr0, cr15, {0}
    1dfc:	00000bb4 			; <UNDEFINED> instruction: 0x00000bb4
    1e00:	000002a0 	andeq	r0, r0, r0, lsr #5
    1e04:	00000e86 	andeq	r0, r0, r6, lsl #29
    1e08:	000bb51d 	andeq	fp, fp, sp, lsl r5
    1e0c:	00100800 	andseq	r0, r0, r0, lsl #16
    1e10:	00100400 	andseq	r0, r0, r0, lsl #8
    1e14:	0bc11d00 	bleq	ff04921c <__bss_end__+0xff03e174>
    1e18:	102a0000 	eorne	r0, sl, r0
    1e1c:	10260000 	eorne	r0, r6, r0
    1e20:	c8160000 	ldmdagt	r6, {}	; <UNPREDICTABLE>
    1e24:	0e000086 	cdpeq	0, 0, cr0, cr0, cr6, {4}
    1e28:	26000010 			; <UNDEFINED> instruction: 0x26000010
    1e2c:	1700000e 	strne	r0, [r0, -lr]
    1e30:	76025001 	strvc	r5, [r2], -r1
    1e34:	e4160000 	ldr	r0, [r6], #-0
    1e38:	9f000086 	svcls	0x00000086
    1e3c:	4700000f 	strmi	r0, [r0, -pc]
    1e40:	1700000e 	strne	r0, [r0, -lr]
    1e44:	7a025001 	bvc	95e50 <__bss_end__+0x8ada8>
    1e48:	52011700 	andpl	r1, r1, #0, 14
    1e4c:	17007802 	strne	r7, [r0, -r2, lsl #16]
    1e50:	02007d02 	andeq	r7, r0, #128	; 0x80
    1e54:	1600007b 			; <UNDEFINED> instruction: 0x1600007b
    1e58:	0000870c 	andeq	r8, r0, ip, lsl #14
    1e5c:	00000f9f 	muleq	r0, pc, pc	; <UNPREDICTABLE>
    1e60:	00000e5e 	andeq	r0, r0, lr, asr lr
    1e64:	05500117 	ldrbeq	r0, [r0, #-279]	; 0xfffffee9
    1e68:	00a5a403 	adceq	sl, r5, r3, lsl #8
    1e6c:	2c160000 	ldccs	0, cr0, [r6], {-0}
    1e70:	9f000087 	svcls	0x00000087
    1e74:	7500000f 	strvc	r0, [r0, #-15]
    1e78:	1700000e 	strne	r0, [r0, -lr]
    1e7c:	03055001 	movweq	r5, #20481	; 0x5001
    1e80:	0000a5b4 			; <UNDEFINED> instruction: 0x0000a5b4
    1e84:	874c2000 	strbhi	r2, [ip, -r0]
    1e88:	0b6e0000 	bleq	1b81e90 <__bss_end__+0x1b76de8>
    1e8c:	01170000 	tsteq	r7, r0
    1e90:	04760250 	ldrbteq	r0, [r6], #-592	; 0xfffffdb0
    1e94:	e63e0000 	ldrt	r0, [lr], -r0
    1e98:	a400000b 	strge	r0, [r0], #-11
    1e9c:	01000086 	smlabbeq	r0, r6, r0, r0
    1ea0:	000002c8 	andeq	r0, r0, r8, asr #5
    1ea4:	1f145a01 	svcne	0x00145a01
    1ea8:	00000bf7 	strdeq	r0, [r0], -r7
    1eac:	0000104a 	andeq	r1, r0, sl, asr #32
    1eb0:	00001048 	andeq	r1, r0, r8, asr #32
    1eb4:	0002e01c 	andeq	lr, r2, ip, lsl r0
    1eb8:	0c031d00 	stceq	13, cr1, [r3], {-0}
    1ebc:	105f0000 	subsne	r0, pc, r0
    1ec0:	105d0000 	subsne	r0, sp, r0
    1ec4:	0e320000 	cdpeq	0, 3, cr0, cr2, cr0, {0}
    1ec8:	a400000c 	strge	r0, [r0], #-12
    1ecc:	04000086 	streq	r0, [r0], #-134	; 0xffffff7a
    1ed0:	00000300 	andeq	r0, r0, r0, lsl #6
    1ed4:	d90a4001 	stmdble	sl, {r0, lr}
    1ed8:	1f00000e 	svcne	0x0000000e
    1edc:	00000c1f 	andeq	r0, r0, pc, lsl ip
    1ee0:	00001074 	andeq	r1, r0, r4, ror r0
    1ee4:	00001072 	andeq	r1, r0, r2, ror r0
    1ee8:	86b81800 	ldrthi	r1, [r8], r0, lsl #16
    1eec:	101a0000 	andsne	r0, sl, r0
	...
    1ef8:	00877416 	addeq	r7, r7, r6, lsl r4
    1efc:	000f9f00 	andeq	r9, pc, r0, lsl #30
    1f00:	000f1100 	andeq	r1, pc, r0, lsl #2
    1f04:	50011700 	andpl	r1, r1, r0, lsl #14
    1f08:	a4d40305 	ldrbge	r0, [r4], #773	; 0x305
    1f0c:	01170000 	tsteq	r7, r0
    1f10:	48030551 	stmdami	r3, {r0, r4, r6, r8, sl}
    1f14:	170000a5 	strne	r0, [r0, -r5, lsr #1]
    1f18:	03055201 	movweq	r5, #20993	; 0x5201
    1f1c:	0000a8a8 	andeq	sl, r0, r8, lsr #17
    1f20:	87781800 	ldrbhi	r1, [r8, -r0, lsl #16]!
    1f24:	0fab0000 	svceq	0x00ab0000
    1f28:	3b000000 	blcc	1f30 <__code_start__-0x60d0>
    1f2c:	00000a08 	andeq	r0, r0, r8, lsl #20
    1f30:	00008a00 	andeq	r8, r0, r0, lsl #20
    1f34:	00000038 	andeq	r0, r0, r8, lsr r0
    1f38:	0f6d9c01 	svceq	0x006d9c01
    1f3c:	191f0000 	ldmdbne	pc, {}	; <UNPREDICTABLE>
    1f40:	8f00000a 	svchi	0x0000000a
    1f44:	87000010 	smladhi	r0, r0, r0, r0
    1f48:	1f000010 	svcne	0x00000010
    1f4c:	00000a25 	andeq	r0, r0, r5, lsr #20
    1f50:	000010cf 	andeq	r1, r0, pc, asr #1
    1f54:	000010c9 	andeq	r1, r0, r9, asr #1
    1f58:	000a311d 	andeq	r3, sl, sp, lsl r1
    1f5c:	00110100 	andseq	r0, r1, r0, lsl #2
    1f60:	0010fb00 	andseq	pc, r0, r0, lsl #22
    1f64:	0a3d3100 	beq	f4e36c <__bss_end__+0xf432c4>
    1f68:	03780000 	cmneq	r8, #0, 0
    1f6c:	3e1d0000 	cdpcc	0, 1, cr0, cr13, cr0, {0}
    1f70:	3800000a 	stmdacc	r0, {r1, r3}
    1f74:	2c000011 	stccs	0, cr0, [r0], {17}
    1f78:	00000011 	andeq	r0, r0, r1, lsl r0
    1f7c:	06503b00 	ldrbeq	r3, [r0], -r0, lsl #22
    1f80:	8b5c0000 	blhi	1701f88 <__bss_end__+0x16f6ee0>
    1f84:	00040000 	andeq	r0, r4, r0
    1f88:	9c010000 	stcls	0, cr0, [r1], {-0}
    1f8c:	00000f9f 	muleq	r0, pc, pc	; <UNPREDICTABLE>
    1f90:	0006611f 	andeq	r6, r6, pc, lsl r1
    1f94:	0011a300 	andseq	sl, r1, r0, lsl #6
    1f98:	00119f00 	andseq	r9, r1, r0, lsl #30
    1f9c:	8b603f00 	blhi	1811ba4 <__bss_end__+0x1806afc>
    1fa0:	066e0000 	strbteq	r0, [lr], -r0
    1fa4:	01170000 	tsteq	r7, r0
    1fa8:	01f30350 	mvnseq	r0, r0, asr r3
    1fac:	40000050 	andmi	r0, r0, r0, asr r0
    1fb0:	000005c8 	andeq	r0, r0, r8, asr #11
    1fb4:	000005c8 	andeq	r0, r0, r8, asr #11
    1fb8:	40062804 	andmi	r2, r6, r4, lsl #16
    1fbc:	0000004d 	andeq	r0, r0, sp, asr #32
    1fc0:	0000004d 	andeq	r0, r0, sp, asr #32
    1fc4:	41066e04 	tstmi	r6, r4, lsl #28
    1fc8:	730b9e0d 	movwvc	r9, #48653	; 0xbe0d
    1fcc:	70656577 	rsbvc	r6, r5, r7, ror r5
    1fd0:	6572665f 	ldrbvs	r6, [r2, #-1631]!	; 0xfffff9a1
    1fd4:	2f400065 	svccs	0x00400065
    1fd8:	2f000002 	svccs	0x00000002
    1fdc:	05000002 	streq	r0, [r0, #-2]
    1fe0:	9c400829 	mcrrls	8, 2, r0, r0, cr9
    1fe4:	9c000002 	stcls	0, cr0, [r0], {2}
    1fe8:	05000002 	streq	r0, [r0, #-2]
    1fec:	c740082c 	strbgt	r0, [r0, -ip, lsr #16]
    1ff0:	c7000001 	strgt	r0, [r0, -r1]
    1ff4:	05000001 	streq	r0, [r0, #-1]
    1ff8:	e740074b 	strb	r0, [r0, -fp, asr #14]
    1ffc:	e7000003 	str	r0, [r0, -r3]
    2000:	01000003 	tsteq	r0, r3
    2004:	79400676 	stmdbvc	r0, {r1, r2, r4, r5, r6, r9, sl}^
    2008:	79000004 	stmdbvc	r0, {r2}
    200c:	04000004 	streq	r0, [r0], #-4
    2010:	71400682 	smlalbbvc	r0, r0, r2, r6	; <UNPREDICTABLE>
    2014:	71000004 	tstvc	r0, r4
    2018:	04000004 	streq	r0, [r0], #-4
    201c:	c640077b 			; <UNDEFINED> instruction: 0xc640077b
    2020:	c6000002 	strgt	r0, [r0], -r2
    2024:	05000002 	streq	r0, [r0, #-2]
    2028:	8a400733 	bhi	1003cfc <__bss_end__+0xff8c54>
    202c:	8a000002 	bhi	203c <__code_start__-0x5fc4>
    2030:	05000002 	streq	r0, [r0, #-2]
    2034:	40000846 	andmi	r0, r0, r6, asr #16
    2038:	04000001 	streq	r0, [r0], #-1
    203c:	000aaf00 	andeq	sl, sl, r0, lsl #30
    2040:	e6010400 	str	r0, [r1], -r0, lsl #8
    2044:	0c000004 	stceq	0, cr0, [r0], {4}
    2048:	000004d6 	ldrdeq	r0, [r0], -r6
    204c:	0000059e 	muleq	r0, lr, r5
    2050:	00008d28 	andeq	r8, r0, r8, lsr #26
    2054:	00000078 	andeq	r0, r0, r8, ror r0
    2058:	00000f3d 	andeq	r0, r0, sp, lsr pc
    205c:	69050402 	stmdbvs	r5, {r1, sl}
    2060:	0300746e 	movweq	r7, #1134	; 0x46e
    2064:	000004cf 	andeq	r0, r0, pc, asr #9
    2068:	3817d103 	ldmdacc	r7, {r0, r1, r8, ip, lr, pc}
    206c:	04000000 	streq	r0, [r0], #-0
    2070:	01910704 	orrseq	r0, r1, r4, lsl #14
    2074:	01040000 	mrseq	r0, (UNDEF: 4)
    2078:	00004106 	andeq	r4, r0, r6, lsl #2
    207c:	05020400 	streq	r0, [r2, #-1024]	; 0xfffffc00
    2080:	000001ce 	andeq	r0, r0, lr, asr #3
    2084:	b2050404 	andlt	r0, r5, #4, 8	; 0x4000000
    2088:	04000001 	streq	r0, [r0], #-1
    208c:	01ad0508 			; <UNDEFINED> instruction: 0x01ad0508
    2090:	01040000 	mrseq	r0, (UNDEF: 4)
    2094:	00003f08 	andeq	r3, r0, r8, lsl #30
    2098:	07020400 	streq	r0, [r2, -r0, lsl #8]
    209c:	00000079 	andeq	r0, r0, r9, ror r0
    20a0:	8c070404 	cfstrshi	mvf0, [r7], {4}
    20a4:	04000001 	streq	r0, [r0], #-1
    20a8:	01870708 	orreq	r0, r7, r8, lsl #14
    20ac:	25050000 	strcs	r0, [r5, #-0]
    20b0:	86000000 	strhi	r0, [r0], -r0
    20b4:	06000000 	streq	r0, [r0], -r0
    20b8:	00000025 	andeq	r0, r0, r5, lsr #32
    20bc:	01bb0700 			; <UNDEFINED> instruction: 0x01bb0700
    20c0:	1c020000 	stcne	0, cr0, [r2], {-0}
    20c4:	0000920e 	andeq	r9, r0, lr, lsl #4
    20c8:	77040800 	strvc	r0, [r4, -r0, lsl #16]
    20cc:	05000000 	streq	r0, [r0, #-0]
    20d0:	00000025 	andeq	r0, r0, r5, lsr #32
    20d4:	000000a7 	andeq	r0, r0, r7, lsr #1
    20d8:	0000a706 	andeq	sl, r0, r6, lsl #14
    20dc:	04080000 	streq	r0, [r8], #-0
    20e0:	000000b4 	strheq	r0, [r0], -r4
    20e4:	48080104 	stmdami	r8, {r2, r8}
    20e8:	09000000 	stmdbeq	r0, {}	; <UNPREDICTABLE>
    20ec:	000000ad 	andeq	r0, r0, sp, lsr #1
    20f0:	00060607 	andeq	r0, r6, r7, lsl #12
    20f4:	0e210200 	cdpeq	2, 2, cr0, cr1, cr0, {0}
    20f8:	000000c5 	andeq	r0, r0, r5, asr #1
    20fc:	00980408 	addseq	r0, r8, r8, lsl #8
    2100:	4f0a0000 	svcmi	0x000a0000
    2104:	01000002 	tsteq	r0, r2
    2108:	013b0704 	teqeq	fp, r4, lsl #14
    210c:	8d280000 	stchi	0, cr0, [r8, #-0]
    2110:	00780000 	rsbseq	r0, r8, r0
    2114:	9c010000 	stcls	0, cr0, [r1], {-0}
    2118:	0000013b 	andeq	r0, r0, fp, lsr r1
    211c:	00705f0b 	rsbseq	r5, r0, fp, lsl #30
    2120:	3b140401 	blcc	50312c <__bss_end__+0x4f8084>
    2124:	01000001 	tsteq	r0, r1
    2128:	00630c50 	rsbeq	r0, r3, r0, asr ip
    212c:	251c0401 	ldrcs	r0, [ip, #-1025]	; 0xfffffbff
    2130:	c8000000 	stmdagt	r0, {}	; <UNPREDICTABLE>
    2134:	c4000011 	strgt	r0, [r0], #-17	; 0xffffffef
    2138:	0c000011 	stceq	0, cr0, [r0], {17}
    213c:	0401006e 	streq	r0, [r1], #-110	; 0xffffff92
    2140:	00002c26 	andeq	r2, r0, r6, lsr #24
    2144:	0011ed00 	andseq	lr, r1, r0, lsl #26
    2148:	0011e900 	andseq	lr, r1, r0, lsl #18
    214c:	00700d00 	rsbseq	r0, r0, r0, lsl #26
    2150:	3d0b0501 	cfstr32cc	mvfx0, [fp, #-4]
    2154:	1c000001 	stcne	0, cr0, [r0], {1}
    2158:	0e000012 	mcreq	0, 0, r0, cr0, cr2, {0}
    215c:	0d000012 	stceq	0, cr0, [r0, #-72]	; 0xffffffb8
    2160:	05010065 	streq	r0, [r1, #-101]	; 0xffffff9b
    2164:	00013d14 	andeq	r3, r1, r4, lsl sp
    2168:	00127900 	andseq	r7, r2, r0, lsl #18
    216c:	00127700 	andseq	r7, r2, r0, lsl #14
    2170:	040e0000 	streq	r0, [lr], #-0
    2174:	00ad0408 	adceq	r0, sp, r8, lsl #8
    2178:	9d000000 	stcls	0, cr0, [r0, #-0]
    217c:	04000001 	streq	r0, [r0], #-1
    2180:	000b7b00 	andeq	r7, fp, r0, lsl #22
    2184:	e6010400 	str	r0, [r1], -r0, lsl #8
    2188:	0c000004 	stceq	0, cr0, [r0], {4}
    218c:	000005e3 	andeq	r0, r0, r3, ror #11
    2190:	0000059e 	muleq	r0, lr, r5
    2194:	00008da0 	andeq	r8, r0, r0, lsr #27
    2198:	00000058 	andeq	r0, r0, r8, asr r0
    219c:	00001062 	andeq	r1, r0, r2, rrx
    21a0:	0005cf02 	andeq	ip, r5, r2, lsl #30
    21a4:	1b280200 	blne	a029ac <__bss_end__+0x9f7904>
    21a8:	00000031 	andeq	r0, r0, r1, lsr r0
    21ac:	0005f303 	andeq	pc, r5, r3, lsl #6
    21b0:	00040400 	andeq	r0, r4, r0, lsl #8
    21b4:	00000048 	andeq	r0, r0, r8, asr #32
    21b8:	0005de04 	andeq	sp, r5, r4, lsl #28
    21bc:	00004800 	andeq	r4, r0, r0, lsl #16
    21c0:	05000000 	streq	r0, [r0, #-0]
    21c4:	05f50204 	ldrbeq	r0, [r5, #516]!	; 0x204
    21c8:	63020000 	movwvs	r0, #8192	; 0x2000
    21cc:	00002518 	andeq	r2, r0, r8, lsl r5
    21d0:	05040600 	streq	r0, [r4, #-1536]	; 0xfffffa00
    21d4:	00746e69 	rsbseq	r6, r4, r9, ror #28
    21d8:	91070407 	tstls	r7, r7, lsl #8
    21dc:	07000001 	streq	r0, [r0, -r1]
    21e0:	00410601 	subeq	r0, r1, r1, lsl #12
    21e4:	02070000 	andeq	r0, r7, #0, 0
    21e8:	0001ce05 	andeq	ip, r1, r5, lsl #28
    21ec:	05040700 	streq	r0, [r4, #-1792]	; 0xfffff900
    21f0:	000001b2 			; <UNDEFINED> instruction: 0x000001b2
    21f4:	ad050807 	stcge	8, cr0, [r5, #-28]	; 0xffffffe4
    21f8:	07000001 	streq	r0, [r0, -r1]
    21fc:	003f0801 	eorseq	r0, pc, r1, lsl #16
    2200:	02070000 	andeq	r0, r7, #0, 0
    2204:	00007907 	andeq	r7, r0, r7, lsl #18
    2208:	07040700 	streq	r0, [r4, -r0, lsl #14]
    220c:	0000018c 	andeq	r0, r0, ip, lsl #3
    2210:	87070807 	strhi	r0, [r7, -r7, lsl #16]
    2214:	08000001 	stmdaeq	r0, {r0}
    2218:	00000056 	andeq	r0, r0, r6, asr r0
    221c:	000000ab 	andeq	r0, r0, fp, lsr #1
    2220:	00005609 	andeq	r5, r0, r9, lsl #12
    2224:	bb0a0000 	bllt	28222c <__bss_end__+0x277184>
    2228:	03000001 	movweq	r0, #1
    222c:	00b70e1c 	adcseq	r0, r7, ip, lsl lr
    2230:	040b0000 	streq	r0, [fp], #-0
    2234:	0000009c 	muleq	r0, ip, r0
    2238:	00005608 	andeq	r5, r0, r8, lsl #12
    223c:	0000cc00 	andeq	ip, r0, r0, lsl #24
    2240:	00cc0900 	sbceq	r0, ip, r0, lsl #18
    2244:	0b000000 	bleq	224c <__code_start__-0x5db4>
    2248:	0000d904 	andeq	sp, r0, r4, lsl #18
    224c:	08010700 	stmdaeq	r1, {r8, r9, sl}
    2250:	00000048 	andeq	r0, r0, r8, asr #32
    2254:	0000d20c 	andeq	sp, r0, ip, lsl #4
    2258:	06060a00 	streq	r0, [r6], -r0, lsl #20
    225c:	21030000 	mrscs	r0, (UNDEF: 3)
    2260:	0000ea0e 	andeq	lr, r0, lr, lsl #20
    2264:	bd040b00 	vstrlt	d0, [r4, #-0]
    2268:	0d000000 	stceq	0, cr0, [r0, #-0]
    226c:	000005c8 	andeq	r0, r0, r8, asr #11
    2270:	56050601 	strpl	r0, [r5], -r1, lsl #12
    2274:	a0000000 	andge	r0, r0, r0
    2278:	5800008d 	stmdapl	r0, {r0, r2, r3, r7}
    227c:	01000000 	mrseq	r0, (UNDEF: 0)
    2280:	0001839c 	muleq	r1, ip, r3
    2284:	6d660e00 	stclvs	14, cr0, [r6, #-0]
    2288:	06010074 			; <UNDEFINED> instruction: 0x06010074
    228c:	0000cc18 	andeq	ip, r0, r8, lsl ip
    2290:	70910200 	addsvc	r0, r1, r0, lsl #4
    2294:	7562100f 	strbvc	r1, [r2, #-15]!
    2298:	08010066 	stmdaeq	r1, {r1, r2, r5, r6}
    229c:	00018311 	andeq	r8, r1, r1, lsl r3
    22a0:	a4030500 	strge	r0, [r3], #-1280	; 0xfffffb00
    22a4:	110000ac 	smlatbne	r0, ip, r0, r0
    22a8:	000005c0 	andeq	r0, r0, r0, asr #11
    22ac:	4a0d0901 	bmi	3446b8 <__bss_end__+0x339610>
    22b0:	02000000 	andeq	r0, r0, #0, 0
    22b4:	73125c91 	tstvc	r2, #37120	; 0x9100
    22b8:	0c01007a 	stceq	0, cr0, [r1], {122}	; 0x7a
    22bc:	0000560d 	andeq	r5, r0, sp, lsl #12
    22c0:	00129200 	andseq	r9, r2, r0, lsl #4
    22c4:	00128c00 	andseq	r8, r2, r0, lsl #24
    22c8:	8dc81300 	stclhi	3, cr1, [r8]
    22cc:	01940000 	orrseq	r0, r4, r0
    22d0:	01760000 	cmneq	r6, r0
    22d4:	01140000 	tsteq	r4, r0
    22d8:	00750250 	rsbseq	r0, r5, r0, asr r2
    22dc:	03510114 	cmpeq	r1, #5
    22e0:	1404000a 	strne	r0, [r4], #-10
    22e4:	91035201 	tstls	r3, r1, lsl #4
    22e8:	01140648 	tsteq	r4, r8, asr #12
    22ec:	4c910253 	lfmmi	f0, 4, [r1], {83}	; 0x53
    22f0:	8ddc1500 	cfldr64hi	mvdx1, [ip]
    22f4:	01140000 	tsteq	r4, r0
    22f8:	00750250 	rsbseq	r0, r5, r0, asr r2
    22fc:	d2160000 	andsle	r0, r6, #0, 0
    2300:	94000000 	strls	r0, [r0], #-0
    2304:	17000001 	strne	r0, [r0, -r1]
    2308:	0000005d 	andeq	r0, r0, sp, asr r0
    230c:	180003ff 	stmdane	r0, {r0, r1, r2, r3, r4, r5, r6, r7, r8, r9}
    2310:	000005c5 	andeq	r0, r0, r5, asr #11
    2314:	000005c5 	andeq	r0, r0, r5, asr #11
    2318:	00050205 	andeq	r0, r5, r5, lsl #4
    231c:	000000f3 	strdeq	r0, [r0], -r3
    2320:	0cbd0004 	ldceq	0, cr0, [sp], #16
    2324:	01040000 	mrseq	r0, (UNDEF: 4)
    2328:	000004e6 	andeq	r0, r0, r6, ror #9
    232c:	00060b0c 	andeq	r0, r6, ip, lsl #22
    2330:	00059e00 	andeq	r9, r5, r0, lsl #28
    2334:	008df800 	addeq	pc, sp, r0, lsl #16
    2338:	00003800 	andeq	r3, r0, r0, lsl #16
    233c:	00118600 	andseq	r8, r1, r0, lsl #12
    2340:	05040200 	streq	r0, [r4, #-512]	; 0xfffffe00
    2344:	00746e69 	rsbseq	r6, r4, r9, ror #28
    2348:	91070403 	tstls	r7, r3, lsl #8
    234c:	03000001 	movweq	r0, #1
    2350:	00410601 	subeq	r0, r1, r1, lsl #12
    2354:	02030000 	andeq	r0, r3, #0, 0
    2358:	0001ce05 	andeq	ip, r1, r5, lsl #28
    235c:	05040300 	streq	r0, [r4, #-768]	; 0xfffffd00
    2360:	000001b2 			; <UNDEFINED> instruction: 0x000001b2
    2364:	ad050803 	stcge	8, cr0, [r5, #-12]
    2368:	03000001 	movweq	r0, #1
    236c:	003f0801 	eorseq	r0, pc, r1, lsl #16
    2370:	02030000 	andeq	r0, r3, #0, 0
    2374:	00007907 	andeq	r7, r0, r7, lsl #18
    2378:	07040300 	streq	r0, [r4, -r0, lsl #6]
    237c:	0000018c 	andeq	r0, r0, ip, lsl #3
    2380:	87070803 	strhi	r0, [r7, -r3, lsl #16]
    2384:	04000001 	streq	r0, [r0], #-1
    2388:	00000025 	andeq	r0, r0, r5, lsr #32
    238c:	0000007a 	andeq	r0, r0, sl, ror r0
    2390:	00002505 	andeq	r2, r0, r5, lsl #10
    2394:	bb060000 	bllt	18239c <__bss_end__+0x1772f4>
    2398:	02000001 	andeq	r0, r0, #1, 0
    239c:	00860e1c 	addeq	r0, r6, ip, lsl lr
    23a0:	04070000 	streq	r0, [r7], #-0
    23a4:	0000006b 	andeq	r0, r0, fp, rrx
    23a8:	00002504 	andeq	r2, r0, r4, lsl #10
    23ac:	00009b00 	andeq	r9, r0, r0, lsl #22
    23b0:	009b0500 	addseq	r0, fp, r0, lsl #10
    23b4:	07000000 	streq	r0, [r0, -r0]
    23b8:	0000a804 	andeq	sl, r0, r4, lsl #16
    23bc:	08010300 	stmdaeq	r1, {r8, r9}
    23c0:	00000048 	andeq	r0, r0, r8, asr #32
    23c4:	0000a108 	andeq	sl, r0, r8, lsl #2
    23c8:	06060600 	streq	r0, [r6], -r0, lsl #12
    23cc:	21020000 	mrscs	r0, (UNDEF: 2)
    23d0:	0000b90e 	andeq	fp, r0, lr, lsl #18
    23d4:	8c040700 	stchi	7, cr0, [r4], {-0}
    23d8:	09000000 	stmdbeq	r0, {}	; <UNPREDICTABLE>
    23dc:	000000ad 	andeq	r0, r0, sp, lsr #1
    23e0:	05070c01 	streq	r0, [r7, #-3073]	; 0xfffff3ff
    23e4:	00ac6403 	adceq	r6, ip, r3, lsl #8
    23e8:	05fd0a00 	ldrbeq	r0, [sp, #2560]!	; 0xa00
    23ec:	04010000 	streq	r0, [r1], #-0
    23f0:	00002505 	andeq	r2, r0, r5, lsl #10
    23f4:	008df800 	addeq	pc, sp, r0, lsl #16
    23f8:	00003800 	andeq	r3, r0, r0, lsl #16
    23fc:	0b9c0100 	bleq	fe702804 <__bss_end__+0xfe6f775c>
    2400:	04010070 	streq	r0, [r1], #-112	; 0xffffff90
    2404:	00009b1f 	andeq	r9, r0, pc, lsl fp
    2408:	0012c300 	andseq	ip, r2, r0, lsl #6
    240c:	0012bb00 	andseq	fp, r2, r0, lsl #22
    2410:	60000000 	andvs	r0, r0, r0
    2414:	04000001 	streq	r0, [r0], #-1
    2418:	000d5b00 	andeq	r5, sp, r0, lsl #22
    241c:	e6010400 	str	r0, [r1], -r0, lsl #8
    2420:	0c000004 	stceq	0, cr0, [r0], {4}
    2424:	00000638 	andeq	r0, r0, r8, lsr r6
    2428:	0000059e 	muleq	r0, lr, r5
    242c:	00008e30 	andeq	r8, r0, r0, lsr lr
    2430:	00000098 	muleq	r0, r8, r0
    2434:	0000122a 	andeq	r1, r0, sl, lsr #4
    2438:	69050402 	stmdbvs	r5, {r1, sl}
    243c:	0300746e 	movweq	r7, #1134	; 0x46e
    2440:	01910704 	orrseq	r0, r1, r4, lsl #14
    2444:	01030000 	mrseq	r0, (UNDEF: 3)
    2448:	00004106 	andeq	r4, r0, r6, lsl #2
    244c:	05020300 	streq	r0, [r2, #-768]	; 0xfffffd00
    2450:	000001ce 	andeq	r0, r0, lr, asr #3
    2454:	b2050403 	andlt	r0, r5, #50331648	; 0x3000000
    2458:	03000001 	movweq	r0, #1
    245c:	01ad0508 			; <UNDEFINED> instruction: 0x01ad0508
    2460:	01030000 	mrseq	r0, (UNDEF: 3)
    2464:	00003f08 	andeq	r3, r0, r8, lsl #30
    2468:	07020300 	streq	r0, [r2, -r0, lsl #6]
    246c:	00000079 	andeq	r0, r0, r9, ror r0
    2470:	8c070403 	cfstrshi	mvf0, [r7], {3}
    2474:	03000001 	movweq	r0, #1
    2478:	01870708 	orreq	r0, r7, r8, lsl #14
    247c:	25040000 	strcs	r0, [r4, #-0]
    2480:	7a000000 	bvc	2488 <__code_start__-0x5b78>
    2484:	05000000 	streq	r0, [r0, #-0]
    2488:	00000025 	andeq	r0, r0, r5, lsr #32
    248c:	01bb0600 			; <UNDEFINED> instruction: 0x01bb0600
    2490:	1c020000 	stcne	0, cr0, [r2], {-0}
    2494:	0000860e 	andeq	r8, r0, lr, lsl #12
    2498:	6b040700 	blvs	1040a0 <__bss_end__+0xf8ff8>
    249c:	04000000 	streq	r0, [r0], #-0
    24a0:	00000025 	andeq	r0, r0, r5, lsr #32
    24a4:	0000009b 	muleq	r0, fp, r0
    24a8:	00009b05 	andeq	r9, r0, r5, lsl #22
    24ac:	04070000 	streq	r0, [r7], #-0
    24b0:	000000a8 	andeq	r0, r0, r8, lsr #1
    24b4:	48080103 	stmdami	r8, {r0, r1, r8}
    24b8:	08000000 	stmdaeq	r0, {}	; <UNPREDICTABLE>
    24bc:	000000a1 	andeq	r0, r0, r1, lsr #1
    24c0:	00060606 	andeq	r0, r6, r6, lsl #12
    24c4:	0e210200 	cdpeq	2, 2, cr0, cr1, cr0, {0}
    24c8:	000000b9 	strheq	r0, [r0], -r9
    24cc:	008c0407 	addeq	r0, ip, r7, lsl #8
    24d0:	19090000 	stmdbne	r9, {}	; <UNPREDICTABLE>
    24d4:	01000006 	tsteq	r0, r6
    24d8:	00561708 	subseq	r1, r6, r8, lsl #14
    24dc:	03050000 	movweq	r0, #20480	; 0x5000
    24e0:	0000ac68 	andeq	sl, r0, r8, ror #24
    24e4:	7469620a 	strbtvc	r6, [r9], #-522	; 0xfffffdf6
    24e8:	11090100 	mrsne	r0, (UNDEF: 25)
    24ec:	0000002c 	andeq	r0, r0, ip, lsr #32
    24f0:	00061e0b 	andeq	r1, r6, fp, lsl #28
    24f4:	06160100 	ldreq	r0, [r6], -r0, lsl #2
    24f8:	00008eb0 			; <UNDEFINED> instruction: 0x00008eb0
    24fc:	00000018 	andeq	r0, r0, r8, lsl r0
    2500:	01029c01 	tsteq	r2, r1, lsl #24
    2504:	330c0000 	movwcc	r0, #49152	; 0xc000
    2508:	01000006 	tsteq	r0, r6
    250c:	002c1916 	eoreq	r1, ip, r6, lsl r9
    2510:	50010000 	andpl	r0, r1, r0
    2514:	002f0d00 	eoreq	r0, pc, r0, lsl #26
    2518:	11010000 	mrsne	r0, (UNDEF: 1)
    251c:	00005d0f 	andeq	r5, r0, pc, lsl #26
    2520:	008e6000 	addeq	r6, lr, r0
    2524:	00005000 	andeq	r5, r0, r0
    2528:	479c0100 	ldrmi	r0, [ip, r0, lsl #2]
    252c:	0e000001 	cdpeq	0, 0, cr0, cr0, cr1, {0}
    2530:	00000147 	andeq	r0, r0, r7, asr #2
    2534:	00008e60 	andeq	r8, r0, r0, ror #28
    2538:	008e6002 	addeq	r6, lr, r2
    253c:	00002400 	andeq	r2, r0, r0, lsl #8
    2540:	0d120100 	ldfeqs	f0, [r2, #-0]
    2544:	0001470e 	andeq	r4, r1, lr, lsl #14
    2548:	008e8400 	addeq	r8, lr, r0, lsl #8
    254c:	8e840100 	rmfhis	f0, f4, f0
    2550:	00200000 	eoreq	r0, r0, r0
    2554:	12010000 	andne	r0, r1, #0, 0
    2558:	280f0023 	stmdacs	pc, {r0, r1, r5}	; <UNPREDICTABLE>
    255c:	01000006 	tsteq	r0, r6
    2560:	0056100b 	subseq	r1, r6, fp
    2564:	10010000 	andne	r0, r1, r0
    2568:	00000147 	andeq	r0, r0, r7, asr #2
    256c:	00008e30 	andeq	r8, r0, r0, lsr lr
    2570:	00000030 	andeq	r0, r0, r0, lsr r0
    2574:	7f009c01 	svcvc	0x00009c01
    2578:	0400000c 	streq	r0, [r0], #-12
    257c:	000e6000 	andeq	r6, lr, r0
    2580:	e6010400 	str	r0, [r1], -r0, lsl #8
    2584:	0c000004 	stceq	0, cr0, [r0], {4}
    2588:	0000065b 	andeq	r0, r0, fp, asr r6
    258c:	0000059e 	muleq	r0, lr, r5
    2590:	00008ec8 	andeq	r8, r0, r8, asr #29
    2594:	000009b4 			; <UNDEFINED> instruction: 0x000009b4
    2598:	0000130f 	andeq	r1, r0, pc, lsl #6
    259c:	87070802 	strhi	r0, [r7, -r2, lsl #16]
    25a0:	02000001 	andeq	r0, r0, #1, 0
    25a4:	01910704 	orrseq	r0, r1, r4, lsl #14
    25a8:	04030000 	streq	r0, [r3], #-0
    25ac:	746e6905 	strbtvc	r6, [lr], #-2309	; 0xfffff6fb
    25b0:	06010200 	streq	r0, [r1], -r0, lsl #4
    25b4:	00000041 	andeq	r0, r0, r1, asr #32
    25b8:	ce050202 	cdpgt	2, 0, cr0, cr5, cr2, {0}
    25bc:	02000001 	andeq	r0, r0, #1, 0
    25c0:	01b20504 			; <UNDEFINED> instruction: 0x01b20504
    25c4:	08020000 	stmdaeq	r2, {}	; <UNPREDICTABLE>
    25c8:	0001ad05 	andeq	sl, r1, r5, lsl #26
    25cc:	08010200 	stmdaeq	r1, {r9}
    25d0:	0000003f 	andeq	r0, r0, pc, lsr r0
    25d4:	79070202 	stmdbvc	r7, {r1, r9}
    25d8:	04000000 	streq	r0, [r0], #-0
    25dc:	00000278 	andeq	r0, r0, r8, ror r2
    25e0:	70193402 	andsvc	r3, r9, r2, lsl #8
    25e4:	02000000 	andeq	r0, r0, #0, 0
    25e8:	018c0704 	orreq	r0, ip, r4, lsl #14
    25ec:	52040000 	andpl	r0, r4, #0, 0
    25f0:	02000006 	andeq	r0, r0, #6, 0
    25f4:	00251937 	eoreq	r1, r5, r7, lsr r9
    25f8:	33050000 	movwcc	r0, #20480	; 0x5000
    25fc:	92000000 	andls	r0, r0, #0, 0
    2600:	06000000 	streq	r0, [r0], -r0
    2604:	00000033 	andeq	r0, r0, r3, lsr r0
    2608:	01bb0700 			; <UNDEFINED> instruction: 0x01bb0700
    260c:	1c030000 	stcne	0, cr0, [r3], {-0}
    2610:	00009e0e 	andeq	r9, r0, lr, lsl #28
    2614:	83040800 	movwhi	r0, #18432	; 0x4800
    2618:	05000000 	streq	r0, [r0, #-0]
    261c:	00000033 	andeq	r0, r0, r3, lsr r0
    2620:	000000b3 	strheq	r0, [r0], -r3
    2624:	0000b306 	andeq	fp, r0, r6, lsl #6
    2628:	04080000 	streq	r0, [r8], #-0
    262c:	000000c0 	andeq	r0, r0, r0, asr #1
    2630:	48080102 	stmdami	r8, {r1, r8}
    2634:	09000000 	stmdbeq	r0, {}	; <UNPREDICTABLE>
    2638:	000000b9 	strheq	r0, [r0], -r9
    263c:	00060607 	andeq	r0, r6, r7, lsl #12
    2640:	0e210300 	cdpeq	3, 2, cr0, cr1, cr0, {0}
    2644:	000000d1 	ldrdeq	r0, [r0], -r1
    2648:	00a40408 	adceq	r0, r4, r8, lsl #8
    264c:	6e070000 	cdpvs	0, 0, cr0, cr7, cr0, {0}
    2650:	04000006 	streq	r0, [r0], #-6
    2654:	00b90d0b 	adcseq	r0, r9, fp, lsl #26
    2658:	c7070000 	strgt	r0, [r7, -r0]
    265c:	04000006 	streq	r0, [r0], #-6
    2660:	00b90d0c 	adcseq	r0, r9, ip, lsl #26
    2664:	7c070000 	stcvc	0, cr0, [r7], {-0}
    2668:	04000003 	streq	r0, [r0], #-3
    266c:	00b90d0d 	adcseq	r0, r9, sp, lsl #26
    2670:	4e070000 	cdpmi	0, 0, cr0, cr7, cr0, {0}
    2674:	04000004 	streq	r0, [r0], #-4
    2678:	00b90d0e 	adcseq	r0, r9, lr, lsl #26
    267c:	9b070000 	blls	1c2684 <__bss_end__+0x1b75dc>
    2680:	04000004 	streq	r0, [r0], #-4
    2684:	00b90d0f 	adcseq	r0, r9, pc, lsl #26
    2688:	da070000 	ble	1c2690 <__bss_end__+0x1b75e8>
    268c:	04000003 	streq	r0, [r0], #-3
    2690:	00b90d10 	adcseq	r0, r9, r0, lsl sp
    2694:	f0070000 			; <UNDEFINED> instruction: 0xf0070000
    2698:	04000006 	streq	r0, [r0], #-6
    269c:	00b90d11 	adcseq	r0, r9, r1, lsl sp
    26a0:	8b070000 	blhi	1c26a8 <__bss_end__+0x1b7600>
    26a4:	04000006 	streq	r0, [r0], #-6
    26a8:	00b90d12 	adcseq	r0, r9, r2, lsl sp
    26ac:	cf040000 	svcgt	0x00040000
    26b0:	05000005 	streq	r0, [r0, #-5]
    26b4:	01431b28 	cmpeq	r3, r8, lsr #22
    26b8:	f30a0000 	vhadd.u8	d0, d10, d0
    26bc:	04000005 	streq	r0, [r0], #-5
    26c0:	015a0006 	cmpeq	sl, r6
    26c4:	de0b0000 	cdple	0, 0, cr0, cr11, cr0, {0}
    26c8:	5a000005 	bpl	26e4 <__code_start__-0x591c>
    26cc:	00000001 	andeq	r0, r0, r1
    26d0:	04040c00 	streq	r0, [r4], #-3072	; 0xfffff400
    26d4:	000005f5 	strdeq	r0, [r0], -r5
    26d8:	37186305 	ldrcc	r6, [r8, -r5, lsl #6]
    26dc:	0d000001 	stceq	0, cr0, [r0, #-4]
    26e0:	000005c5 	andeq	r0, r0, r5, asr #11
    26e4:	33058101 	movwcc	r8, #20737	; 0x5101
    26e8:	50000000 	andpl	r0, r0, r0
    26ec:	2c000092 	stccs	0, cr0, [r0], {146}	; 0x92
    26f0:	01000006 	tsteq	r0, r6
    26f4:	00086a9c 	muleq	r8, ip, sl
    26f8:	75620e00 	strbvc	r0, [r2, #-3584]!	; 0xfffff200
    26fc:	81010066 	tsthi	r1, r6, rrx
    2700:	00086a15 	andeq	r6, r8, r5, lsl sl
    2704:	00130300 	andseq	r0, r3, r0, lsl #6
    2708:	0012f900 	andseq	pc, r2, r0, lsl #18
    270c:	006e0e00 	rsbeq	r0, lr, r0, lsl #28
    2710:	331e8101 	tstcc	lr, #1073741824	; 0x40000000
    2714:	50000000 	andpl	r0, r0, r0
    2718:	48000013 	stmdami	r0, {r0, r1, r4}
    271c:	0e000013 	mcreq	0, 0, r0, cr0, cr3, {0}
    2720:	00746d66 	rsbseq	r6, r4, r6, ror #26
    2724:	b32d8101 			; <UNDEFINED> instruction: 0xb32d8101
    2728:	a2000000 	andge	r0, r0, #0, 0
    272c:	8a000013 	bhi	2780 <__code_start__-0x5880>
    2730:	0f000013 	svceq	0x00000013
    2734:	000005c0 	andeq	r0, r0, r0, asr #11
    2738:	5c3a8101 	ldfpld	f0, [sl], #-4
    273c:	64000001 	strvs	r0, [r0], #-1
    2740:	36000014 			; <UNDEFINED> instruction: 0x36000014
    2744:	10000014 	andne	r0, r0, r4, lsl r0
    2748:	82010070 	andhi	r0, r1, #112, 0	; 0x70
    274c:	00086a08 	andeq	r6, r8, r8, lsl #20
    2750:	0015b700 	andseq	fp, r5, r0, lsl #14
    2754:	0015a100 	andseq	sl, r5, r0, lsl #2
    2758:	00651000 	rsbeq	r1, r5, r0
    275c:	6a128201 	bvs	4a2f68 <__bss_end__+0x497ec0>
    2760:	40000008 	andmi	r0, r0, r8
    2764:	3e000016 	mcrcc	0, 0, r0, cr0, cr6, {0}
    2768:	10000016 	andne	r0, r0, r6, lsl r0
    276c:	01003078 	tsteq	r0, r8, ror r0
    2770:	00640e83 	rsbeq	r0, r4, r3, lsl #29
    2774:	16590000 	ldrbne	r0, [r9], -r0
    2778:	16530000 	ldrbne	r0, [r3], -r0
    277c:	78100000 	ldmdavc	r0, {}	; <UNPREDICTABLE>
    2780:	83010031 	movwhi	r0, #4145	; 0x1031
    2784:	00006411 	andeq	r6, r0, r1, lsl r4
    2788:	00168800 	andseq	r8, r6, r0, lsl #16
    278c:	00168200 	andseq	r8, r6, r0, lsl #4
    2790:	06a91100 	strteq	r1, [r9], r0, lsl #2
    2794:	86010000 	strhi	r0, [r1], -r0
    2798:	0000b311 	andeq	fp, r0, r1, lsl r3
    279c:	0016b900 	andseq	fp, r6, r0, lsl #18
    27a0:	0016b100 	andseq	fp, r6, r0, lsl #2
    27a4:	017a1200 	cmneq	sl, r0, lsl #4
    27a8:	08800000 	stmeq	r0, {}	; <UNPREDICTABLE>
    27ac:	03050000 	movweq	r0, #20480	; 0x5000
    27b0:	0000aa50 	andeq	sl, r0, r0, asr sl
    27b4:	00051013 	andeq	r1, r5, r3, lsl r0
    27b8:	00731000 	rsbseq	r1, r3, r0
    27bc:	6a0a9101 	bvs	2a6bc8 <__bss_end__+0x29bb20>
    27c0:	ff000008 			; <UNDEFINED> instruction: 0xff000008
    27c4:	f3000016 	vqadd.u8	d0, d0, d6
    27c8:	14000016 	strne	r0, [r0], #-22	; 0xffffffea
    27cc:	006d756e 	rsbeq	r7, sp, lr, ror #10
    27d0:	850d9101 	strhi	r9, [sp, #-257]	; 0xfffffeff
    27d4:	03000008 	movweq	r0, #8
    27d8:	157dd891 	ldrbne	sp, [sp, #-2193]!	; 0xfffff76f
    27dc:	000006fd 	strdeq	r0, [r0], -sp
    27e0:	85179101 	ldrhi	r9, [r7, #-257]	; 0xfffffeff
    27e4:	03000008 	movweq	r0, #8
    27e8:	117ed891 			; <UNDEFINED> instruction: 0x117ed891
    27ec:	0000067d 	andeq	r0, r0, sp, ror r6
    27f0:	2c0d9201 	sfmcs	f1, 1, [sp], {1}
    27f4:	51000000 	mrspl	r0, (UNDEF: 0)
    27f8:	49000017 	stmdbmi	r0, {r0, r1, r2, r4}
    27fc:	16000017 			; <UNDEFINED> instruction: 0x16000017
    2800:	00000538 	andeq	r0, r0, r8, lsr r5
    2804:	000004f1 	strdeq	r0, [r0], -r1
    2808:	00797410 	rsbseq	r7, r9, r0, lsl r4
    280c:	b31d9e01 	tstlt	sp, #1, 28
    2810:	92000000 	andls	r0, r0, #0, 0
    2814:	86000017 			; <UNDEFINED> instruction: 0x86000017
    2818:	14000017 	strne	r0, [r0], #-23	; 0xffffffe9
    281c:	01007878 	tsteq	r0, r8, ror r8
    2820:	00771aa2 	rsbseq	r1, r7, r2, lsr #21
    2824:	59060000 	stmdbpl	r6, {}	; <UNPREDICTABLE>
    2828:	935b0493 	cmpls	fp, #-1828716544	; 0x93000000
    282c:	93dc1704 	bicsls	r1, ip, #4, 14	; 0x100000
    2830:	0c3a0000 	ldceq	0, cr0, [sl], #-0
    2834:	02d80000 	sbcseq	r0, r8, #0, 0
    2838:	01180000 	tsteq	r8, r0
    283c:	00760250 	rsbseq	r0, r6, r0, asr r2
    2840:	05510118 	ldrbeq	r0, [r1, #-280]	; 0xfffffee8
    2844:	00a94403 	adceq	r4, r9, r3, lsl #8
    2848:	52011800 	andpl	r1, r1, #0, 16
    284c:	17003301 	strne	r3, [r0, -r1, lsl #6]
    2850:	000093f4 	strdeq	r9, [r0], -r4
    2854:	00000c3a 	andeq	r0, r0, sl, lsr ip
    2858:	000002fa 	strdeq	r0, [r0], -sl
    285c:	02500118 	subseq	r0, r0, #6
    2860:	01180076 	tsteq	r8, r6, ror r0
    2864:	58030551 	stmdapl	r3, {r0, r4, r6, r8, sl}
    2868:	180000a9 	stmdane	r0, {r0, r3, r5, r7}
    286c:	33015201 	movwcc	r5, #4609	; 0x1201
    2870:	94181700 	ldrls	r1, [r8], #-1792	; 0xfffff900
    2874:	0c460000 	mareq	acc0, r0, r6
    2878:	03170000 	tsteq	r7, #0, 0
    287c:	01180000 	tsteq	r8, r0
    2880:	48030550 	stmdami	r3, {r4, r6, r8, sl}
    2884:	180000a9 	stmdane	r0, {r0, r3, r5, r7}
    2888:	7b025101 	blvc	96c94 <__bss_end__+0x8bbec>
    288c:	24170000 	ldrcs	r0, [r7], #-0
    2890:	46000094 			; <UNDEFINED> instruction: 0x46000094
    2894:	3400000c 	strcc	r0, [r0], #-12
    2898:	18000003 	stmdane	r0, {r0, r1}
    289c:	03055001 	movweq	r5, #20481	; 0x5001
    28a0:	0000a950 	andeq	sl, r0, r0, asr r9
    28a4:	02510118 	subseq	r0, r1, #6
    28a8:	17000079 	smlsdxne	r0, r9, r0, r0
    28ac:	00009434 	andeq	r9, r0, r4, lsr r4
    28b0:	00000c3a 	andeq	r0, r0, sl, lsr ip
    28b4:	00000356 	andeq	r0, r0, r6, asr r3
    28b8:	02500118 	subseq	r0, r0, #6
    28bc:	01180076 	tsteq	r8, r6, ror r0
    28c0:	44030551 	strmi	r0, [r3], #-1361	; 0xfffffaaf
    28c4:	180000a9 	stmdane	r0, {r0, r3, r5, r7}
    28c8:	33015201 	movwcc	r5, #4609	; 0x1201
    28cc:	94641700 	strbtls	r1, [r4], #-1792	; 0xfffff900
    28d0:	0aa40000 	beq	fe9028d8 <__bss_end__+0xfe8f7830>
    28d4:	03830000 	orreq	r0, r3, #0, 0
    28d8:	01180000 	tsteq	r8, r0
    28dc:	18400150 	stmdane	r0, {r4, r6, r8}^
    28e0:	91035101 	tstls	r3, r1, lsl #2
    28e4:	01187dd0 			; <UNDEFINED> instruction: 0x01187dd0
    28e8:	007b0252 	rsbseq	r0, fp, r2, asr r2
    28ec:	02530118 	subseq	r0, r3, #6
    28f0:	02180075 	andseq	r0, r8, #117, 0	; 0x75
    28f4:	7602007d 			; <UNDEFINED> instruction: 0x7602007d
    28f8:	84170000 	ldrhi	r0, [r7], #-0
    28fc:	a4000094 	strge	r0, [r0], #-148	; 0xffffff6c
    2900:	aa00000a 	bge	2930 <__code_start__-0x56d0>
    2904:	18000003 	stmdane	r0, {r0, r1}
    2908:	40015001 	andmi	r5, r1, r1
    290c:	03510118 	cmpeq	r1, #6
    2910:	187ed091 	ldmdane	lr!, {r0, r4, r7, ip, lr, pc}^
    2914:	79025201 	stmdbvc	r2, {r0, r9, ip, lr}
    2918:	7d021800 	stcvc	8, cr1, [r2, #-0]
    291c:	00760200 	rsbseq	r0, r6, r0, lsl #4
    2920:	94941700 	ldrls	r1, [r4], #1792	; 0x700
    2924:	0c520000 	mraeq	r0, r2, acc0
    2928:	03c60000 	biceq	r0, r6, #0, 0
    292c:	01180000 	tsteq	r8, r0
    2930:	d0910350 	addsle	r0, r1, r0, asr r3
    2934:	5101187d 	tstpl	r1, sp, ror r8
    2938:	7ed29103 	atnvcs	f1, f3
    293c:	96d81700 	ldrbls	r1, [r8], r0, lsl #14
    2940:	0c3a0000 	ldceq	0, cr0, [sl], #-0
    2944:	03e80000 	mvneq	r0, #0, 0
    2948:	01180000 	tsteq	r8, r0
    294c:	00760250 	rsbseq	r0, r6, r0, asr r2
    2950:	05510118 	ldrbeq	r0, [r1, #-280]	; 0xfffffee8
    2954:	00a95803 	adceq	r5, r9, r3, lsl #16
    2958:	52011800 	andpl	r1, r1, #0, 16
    295c:	17003301 	strne	r3, [r0, -r1, lsl #6]
    2960:	000096fc 	strdeq	r9, [r0], -ip
    2964:	00000aa4 	andeq	r0, r0, r4, lsr #21
    2968:	00000415 	andeq	r0, r0, r5, lsl r4
    296c:	01500118 	cmpeq	r0, r8, lsl r1
    2970:	5101183a 	tstpl	r1, sl, lsr r8
    2974:	7dd09103 	ldfvcp	f1, [r0, #12]
    2978:	02520118 	subseq	r0, r2, #6
    297c:	0118007b 	tsteq	r8, fp, ror r0
    2980:	00750253 	rsbseq	r0, r5, r3, asr r2
    2984:	007d0218 	rsbseq	r0, sp, r8, lsl r2
    2988:	00007602 	andeq	r7, r0, r2, lsl #12
    298c:	00971c17 	addseq	r1, r7, r7, lsl ip
    2990:	000aa400 	andeq	sl, sl, r0, lsl #8
    2994:	00043c00 	andeq	r3, r4, r0, lsl #24
    2998:	50011800 	andpl	r1, r1, r0, lsl #16
    299c:	01183a01 	tsteq	r8, r1, lsl #20
    29a0:	d0910351 	addsle	r0, r1, r1, asr r3
    29a4:	5201187e 	andpl	r1, r1, #8257536	; 0x7e0000
    29a8:	18007902 	stmdane	r0, {r1, r8, fp, ip, sp, lr}
    29ac:	02007d02 	andeq	r7, r0, #128	; 0x80
    29b0:	17000076 	smlsdxne	r0, r6, r0, r0
    29b4:	00009728 	andeq	r9, r0, r8, lsr #14
    29b8:	00000c5e 	andeq	r0, r0, lr, asr ip
    29bc:	0000045a 	andeq	r0, r0, sl, asr r4
    29c0:	03500118 	cmpeq	r0, #6
    29c4:	187dd091 	ldmdane	sp!, {r0, r4, r7, ip, lr, pc}^
    29c8:	03055101 	movweq	r5, #20737	; 0x5101
    29cc:	0000a720 	andeq	sl, r0, r0, lsr #14
    29d0:	973c1700 	ldrls	r1, [ip, -r0, lsl #14]!
    29d4:	0c6a0000 	stcleq	0, cr0, [sl], #-0
    29d8:	04760000 	ldrbteq	r0, [r6], #-0
    29dc:	01180000 	tsteq	r8, r0
    29e0:	d0910350 	addsle	r0, r1, r0, asr r3
    29e4:	5101187d 	tstpl	r1, sp, ror r8
    29e8:	7ed09103 	atnvcs	f1, f3
    29ec:	97481900 	strbls	r1, [r8, -r0, lsl #18]
    29f0:	0c520000 	mraeq	r0, r2, acc0
    29f4:	0c170000 	ldceq	0, cr0, [r7], {-0}
    29f8:	46000098 			; <UNDEFINED> instruction: 0x46000098
    29fc:	a800000c 	stmdage	r0, {r2, r3}
    2a00:	18000004 	stmdane	r0, {r2}
    2a04:	03055001 	movweq	r5, #20481	; 0x5001
    2a08:	0000a4d4 	ldrdeq	sl, [r0], -r4
    2a0c:	05510118 	ldrbeq	r0, [r1, #-280]	; 0xfffffee8
    2a10:	00a8f803 	adceq	pc, r8, r3, lsl #16
    2a14:	52011800 	andpl	r1, r1, #0, 16
    2a18:	aa500305 	bge	1403634 <__bss_end__+0x13f858c>
    2a1c:	19000000 	stmdbne	r0, {}	; <UNPREDICTABLE>
    2a20:	00009810 	andeq	r9, r0, r0, lsl r8
    2a24:	00000c76 	andeq	r0, r0, r6, ror ip
    2a28:	00982817 	addseq	r2, r8, r7, lsl r8
    2a2c:	000c4600 	andeq	r4, ip, r0, lsl #12
    2a30:	0004e700 	andeq	lr, r4, r0, lsl #14
    2a34:	50011800 	andpl	r1, r1, r0, lsl #16
    2a38:	a9980305 	ldmibge	r8, {r0, r2, r8, r9}
    2a3c:	01180000 	tsteq	r8, r0
    2a40:	f8030551 			; <UNDEFINED> instruction: 0xf8030551
    2a44:	180000a8 	stmdane	r0, {r3, r5, r7}
    2a48:	03055201 	movweq	r5, #20993	; 0x5201
    2a4c:	0000aa50 	andeq	sl, r0, r0, asr sl
    2a50:	02530118 	subseq	r0, r3, #6
    2a54:	0218b608 	andseq	fp, r8, #8, 12	; 0x800000
    2a58:	7602007d 			; <UNDEFINED> instruction: 0x7602007d
    2a5c:	2c190000 	ldccs	0, cr0, [r9], {-0}
    2a60:	76000098 			; <UNDEFINED> instruction: 0x76000098
    2a64:	0000000c 	andeq	r0, r0, ip
    2a68:	0009e31a 	andeq	lr, r9, sl, lsl r3
    2a6c:	0092dc00 	addseq	sp, r2, r0, lsl #24
    2a70:	60000400 	andvs	r0, r0, r0, lsl #8
    2a74:	01000005 	tsteq	r0, r5
    2a78:	05150a94 	ldreq	r0, [r5, #-2708]	; 0xfffff56c
    2a7c:	f41b0000 			; <UNDEFINED> instruction: 0xf41b0000
    2a80:	ee000009 	cdp	0, 0, cr0, cr0, cr9, {0}
    2a84:	ea000017 	b	2ae8 <__code_start__-0x5518>
    2a88:	00000017 	andeq	r0, r0, r7, lsl r0
    2a8c:	0008951a 	andeq	r9, r8, sl, lsl r5
    2a90:	0094c400 	addseq	ip, r4, r0, lsl #8
    2a94:	80000100 	andhi	r0, r0, r0, lsl #2
    2a98:	01000005 	tsteq	r0, r5
    2a9c:	064b09dc 			; <UNDEFINED> instruction: 0x064b09dc
    2aa0:	be1b0000 	cdplt	0, 1, cr0, cr11, cr0, {0}
    2aa4:	1c000008 	stcne	0, cr0, [r0], {8}
    2aa8:	16000018 			; <UNDEFINED> instruction: 0x16000018
    2aac:	1b000018 	blne	2b14 <__code_start__-0x54ec>
    2ab0:	000008e0 	andeq	r0, r0, r0, ror #17
    2ab4:	00001851 	andeq	r1, r0, r1, asr r8
    2ab8:	0000184b 	andeq	r1, r0, fp, asr #16
    2abc:	0008d41b 	andeq	sp, r8, fp, lsl r4
    2ac0:	00188300 	andseq	r8, r8, r0, lsl #6
    2ac4:	00187d00 	andseq	r7, r8, r0, lsl #26
    2ac8:	08c81c00 	stmiaeq	r8, {sl, fp, ip}^
    2acc:	b21b0000 	andslt	r0, fp, #0, 0
    2ad0:	b4000008 	strlt	r0, [r0], #-8
    2ad4:	ac000018 	stcge	0, cr0, [r0], {24}
    2ad8:	1b000018 	blne	2b40 <__code_start__-0x54c0>
    2adc:	000008a6 	andeq	r0, r0, r6, lsr #17
    2ae0:	000018f7 	strdeq	r1, [r0], -r7
    2ae4:	000018f1 	strdeq	r1, [r0], -r1	; <UNPREDICTABLE>
    2ae8:	00058013 	andeq	r8, r5, r3, lsl r0
    2aec:	08ec1d00 	stmiaeq	ip!, {r8, sl, fp, ip}^
    2af0:	91030000 	mrsls	r0, (UNDEF: 3)
    2af4:	f81e7ed8 			; <UNDEFINED> instruction: 0xf81e7ed8
    2af8:	31000008 	tstcc	r0, r8
    2afc:	23000019 	movwcs	r0, #25
    2b00:	1f000019 	svcne	0x00000019
    2b04:	00000902 	andeq	r0, r0, r2, lsl #18
    2b08:	0009a31a 	andeq	sl, r9, sl, lsl r3
    2b0c:	0094d000 	addseq	sp, r4, r0
    2b10:	b0000400 	andlt	r0, r0, r0, lsl #8
    2b14:	01000005 	tsteq	r0, r5
    2b18:	05e2097c 	strbeq	r0, [r2, #2428]!	; 0x97c
    2b1c:	ca1b0000 	bgt	6c2b24 <__bss_end__+0x6b7a7c>
    2b20:	9b000009 	blls	2b4c <__code_start__-0x54b4>
    2b24:	95000019 	strls	r0, [r0, #-25]	; 0xffffffe7
    2b28:	1b000019 	blne	2b94 <__code_start__-0x546c>
    2b2c:	000009be 			; <UNDEFINED> instruction: 0x000009be
    2b30:	000019d0 	ldrdeq	r1, [r0], -r0
    2b34:	000019c4 	andeq	r1, r0, r4, asr #19
    2b38:	0009b41b 	andeq	fp, r9, fp, lsl r4
    2b3c:	001a3600 	andseq	r3, sl, r0, lsl #12
    2b40:	001a2600 	andseq	r2, sl, r0, lsl #12
    2b44:	05b01300 	ldreq	r1, [r0, #768]!	; 0x300
    2b48:	d61e0000 	ldrle	r0, [lr], -r0
    2b4c:	b3000009 	movwlt	r0, #9
    2b50:	a500001a 	strge	r0, [r0, #-26]	; 0xffffffe6
    2b54:	0000001a 	andeq	r0, r0, sl, lsl r0
    2b58:	094f2000 	stmdbeq	pc, {sp}^	; <UNPREDICTABLE>
    2b5c:	95980000 	ldrls	r0, [r8]
    2b60:	00020000 	andeq	r0, r2, r0
    2b64:	000005e0 	andeq	r0, r0, r0, ror #11
    2b68:	1b097c01 	blne	261b74 <__bss_end__+0x256acc>
    2b6c:	00000980 	andeq	r0, r0, r0, lsl #19
    2b70:	00001b13 	andeq	r1, r0, r3, lsl fp
    2b74:	00001b0d 	andeq	r1, r0, sp, lsl #22
    2b78:	0009761b 	andeq	r7, r9, fp, lsl r6
    2b7c:	001b4900 	andseq	r4, fp, r0, lsl #18
    2b80:	001b3f00 	andseq	r3, fp, r0, lsl #30
    2b84:	096c1b00 	stmdbeq	ip!, {r8, r9, fp, ip}^
    2b88:	1b980000 	blne	fe602b90 <__bss_end__+0xfe5f7ae8>
    2b8c:	1b940000 	blne	fe502b94 <__bss_end__+0xfe4f7aec>
    2b90:	601b0000 	andsvs	r0, fp, r0
    2b94:	c8000009 	stmdagt	r0, {r0, r3}
    2b98:	ba00001b 	blt	2c0c <__code_start__-0x53f4>
    2b9c:	1300001b 	movwne	r0, #27
    2ba0:	000005e0 	andeq	r0, r0, r0, ror #11
    2ba4:	00098c1e 	andeq	r8, r9, lr, lsl ip
    2ba8:	001c2d00 	andseq	r2, ip, r0, lsl #26
    2bac:	001c2b00 	andseq	r2, ip, r0, lsl #22
    2bb0:	09981e00 	ldmibeq	r8, {r9, sl, fp, ip}
    2bb4:	1c470000 	marne	acc0, r0, r7
    2bb8:	1c410000 	marne	acc0, r0, r1
    2bbc:	00000000 	andeq	r0, r0, r0
    2bc0:	951a0000 	ldrls	r0, [sl, #-0]
    2bc4:	d4000008 	strle	r0, [r0], #-8
    2bc8:	00000095 	muleq	r0, r5, r0
    2bcc:	00061000 	andeq	r1, r6, r0
    2bd0:	09d60100 	ldmibeq	r6, {r8}^
    2bd4:	00000789 	andeq	r0, r0, r9, lsl #15
    2bd8:	0008be1b 	andeq	fp, r8, fp, lsl lr
    2bdc:	001c7a00 	andseq	r7, ip, r0, lsl #20
    2be0:	001c7600 	andseq	r7, ip, r0, lsl #12
    2be4:	08e01b00 	stmiaeq	r0!, {r8, r9, fp, ip}^
    2be8:	1ca00000 	stcne	0, cr0, [r0]
    2bec:	1c9c0000 	ldcne	0, cr0, [ip], {0}
    2bf0:	d41b0000 	ldrle	r0, [fp], #-0
    2bf4:	c4000008 	strgt	r0, [r0], #-8
    2bf8:	c000001c 	andgt	r0, r0, ip, lsl r0
    2bfc:	1c00001c 	stcne	0, cr0, [r0], {28}
    2c00:	000008c8 	andeq	r0, r0, r8, asr #17
    2c04:	0008b21b 	andeq	fp, r8, fp, lsl r2
    2c08:	001ce800 	andseq	lr, ip, r0, lsl #16
    2c0c:	001ce200 	andseq	lr, ip, r0, lsl #4
    2c10:	08a61b00 	stmiaeq	r6!, {r8, r9, fp, ip}
    2c14:	1d1b0000 	ldcne	0, cr0, [fp, #-0]
    2c18:	1d170000 	ldcne	0, cr0, [r7, #-0]
    2c1c:	10130000 	andsne	r0, r3, r0
    2c20:	1d000006 	stcne	0, cr0, [r0, #-24]	; 0xffffffe8
    2c24:	000008ec 	andeq	r0, r0, ip, ror #17
    2c28:	7ed89103 	atnvce	f1, f3
    2c2c:	0008f81e 	andeq	pc, r8, lr, lsl r8	; <UNPREDICTABLE>
    2c30:	001d4500 	andseq	r4, sp, r0, lsl #10
    2c34:	001d3b00 	andseq	r3, sp, r0, lsl #22
    2c38:	09021e00 	stmdbeq	r2, {r9, sl, fp, ip}
    2c3c:	1d8a0000 	stcne	0, cr0, [sl]
    2c40:	1d860000 	stcne	0, cr0, [r6]
    2c44:	a31a0000 	tstge	sl, #0, 0
    2c48:	f0000009 			; <UNDEFINED> instruction: 0xf0000009
    2c4c:	03000095 	movweq	r0, #149	; 0x95
    2c50:	00063000 	andeq	r3, r6, r0
    2c54:	097c0100 	ldmdbeq	ip!, {r8}^
    2c58:	00000720 	andeq	r0, r0, r0, lsr #14
    2c5c:	0009ca1b 	andeq	ip, r9, fp, lsl sl
    2c60:	001dac00 	andseq	sl, sp, r0, lsl #24
    2c64:	001da800 	andseq	sl, sp, r0, lsl #16
    2c68:	09be1b00 	ldmibeq	lr!, {r8, r9, fp, ip}
    2c6c:	1dce0000 	stclne	0, cr0, [lr]
    2c70:	1dca0000 	stclne	0, cr0, [sl]
    2c74:	b41b0000 	ldrlt	r0, [fp], #-0
    2c78:	f8000009 			; <UNDEFINED> instruction: 0xf8000009
    2c7c:	ec00001d 	stc	0, cr0, [r0], {29}
    2c80:	1300001d 	movwne	r0, #29
    2c84:	00000630 	andeq	r0, r0, r0, lsr r6
    2c88:	0009d61e 	andeq	sp, r9, lr, lsl r6
    2c8c:	001e5400 	andseq	r5, lr, r0, lsl #8
    2c90:	001e4800 	andseq	r4, lr, r0, lsl #16
    2c94:	20000000 	andcs	r0, r0, r0
    2c98:	0000094f 	andeq	r0, r0, pc, asr #18
    2c9c:	00009678 	andeq	r9, r0, r8, ror r6
    2ca0:	06580002 	ldrbeq	r0, [r8], -r2
    2ca4:	7c010000 	stcvc	0, cr0, [r1], {-0}
    2ca8:	09801b09 	stmibeq	r0, {r0, r3, r8, r9, fp, ip}
    2cac:	1ea40000 	cdpne	0, 10, cr0, cr4, cr0, {0}
    2cb0:	1ea00000 	cdpne	0, 10, cr0, cr0, cr0, {0}
    2cb4:	761b0000 	ldrvc	r0, [fp], -r0
    2cb8:	cc000009 	stcgt	0, cr0, [r0], {9}
    2cbc:	c200001e 	andgt	r0, r0, #30, 0
    2cc0:	1b00001e 	blne	2d40 <__code_start__-0x52c0>
    2cc4:	0000096c 	andeq	r0, r0, ip, ror #18
    2cc8:	00001f18 	andeq	r1, r0, r8, lsl pc
    2ccc:	00001f14 	andeq	r1, r0, r4, lsl pc
    2cd0:	0009601b 	andeq	r6, r9, fp, lsl r0
    2cd4:	001f4600 	andseq	r4, pc, r0, lsl #12
    2cd8:	001f3a00 	andseq	r3, pc, r0, lsl #20
    2cdc:	06581300 	ldrbeq	r1, [r8], -r0, lsl #6
    2ce0:	8c1e0000 	ldchi	0, cr0, [lr], {-0}
    2ce4:	a0000009 	andge	r0, r0, r9
    2ce8:	9c00001f 	stcls	0, cr0, [r0], {31}
    2cec:	1e00001f 	mcrne	0, 0, r0, cr0, cr15, {0}
    2cf0:	00000998 	muleq	r0, r8, r9
    2cf4:	00001fc6 	andeq	r1, r0, r6, asr #31
    2cf8:	00001fc2 	andeq	r1, r0, r2, asr #31
    2cfc:	00000000 	andeq	r0, r0, r0
    2d00:	0093a417 	addseq	sl, r3, r7, lsl r4
    2d04:	000aa400 	andeq	sl, sl, r0, lsl #8
    2d08:	0007af00 	andeq	sl, r7, r0, lsl #30
    2d0c:	50011800 	andpl	r1, r1, r0, lsl #16
    2d10:	01184001 	tsteq	r8, r1
    2d14:	d0910351 	addsle	r0, r1, r1, asr r3
    2d18:	5301187d 	movwpl	r1, #6269	; 0x187d
    2d1c:	18007502 	stmdane	r0, {r1, r8, sl, ip, sp, lr}
    2d20:	01007d02 	tsteq	r0, r2, lsl #26
    2d24:	b4170030 	ldrlt	r0, [r7], #-48	; 0xffffffd0
    2d28:	a4000094 	strge	r0, [r0], #-148	; 0xffffff6c
    2d2c:	cf00000a 	svcgt	0x0000000a
    2d30:	18000007 	stmdane	r0, {r0, r1, r2}
    2d34:	3a015001 	bcc	56d40 <__bss_end__+0x4bc98>
    2d38:	03510118 	cmpeq	r1, #6
    2d3c:	187dd091 	ldmdane	sp!, {r0, r4, r7, ip, lr, pc}^
    2d40:	75025301 	strvc	r5, [r2, #-769]	; 0xfffffcff
    2d44:	98170000 	ldmdals	r7, {}	; <UNPREDICTABLE>
    2d48:	46000097 			; <UNDEFINED> instruction: 0x46000097
    2d4c:	e600000c 	str	r0, [r0], -ip
    2d50:	18000007 	stmdane	r0, {r0, r1, r2}
    2d54:	03055001 	movweq	r5, #20481	; 0x5001
    2d58:	0000a9e8 	andeq	sl, r0, r8, ror #19
    2d5c:	97a82100 	strls	r2, [r8, r0, lsl #2]!
    2d60:	07f80000 	ldrbeq	r0, [r8, r0]!
    2d64:	01180000 	tsteq	r8, r0
    2d68:	c8910450 	ldmgt	r1, {r4, r6, sl}
    2d6c:	1700067d 	smlsdxne	r0, sp, r6, r0
    2d70:	000097bc 			; <UNDEFINED> instruction: 0x000097bc
    2d74:	00000c46 	andeq	r0, r0, r6, asr #24
    2d78:	00000827 	andeq	r0, r0, r7, lsr #16
    2d7c:	05500118 	ldrbeq	r0, [r0, #-280]	; 0xfffffee8
    2d80:	00aa1803 	adceq	r1, sl, r3, lsl #16
    2d84:	51011800 	tstpl	r1, r0, lsl #16
    2d88:	a8f80305 	ldmge	r8!, {r0, r2, r8, r9}^
    2d8c:	01180000 	tsteq	r8, r0
    2d90:	50030552 	andpl	r0, r3, r2, asr r5
    2d94:	180000aa 	stmdane	r0, {r1, r3, r5, r7}
    2d98:	08025301 	stmdaeq	r2, {r0, r8, r9, ip, lr}
    2d9c:	c01900e2 	andsgt	r0, r9, r2, ror #1
    2da0:	76000097 			; <UNDEFINED> instruction: 0x76000097
    2da4:	1700000c 	strne	r0, [r0, -ip]
    2da8:	000097d4 	ldrdeq	r9, [r0], -r4
    2dac:	00000c46 	andeq	r0, r0, r6, asr #24
    2db0:	0000085f 	andeq	r0, r0, pc, asr r8
    2db4:	05500118 	ldrbeq	r0, [r0, #-280]	; 0xfffffee8
    2db8:	00a9c003 	adceq	ip, r9, r3
    2dbc:	51011800 	tstpl	r1, r0, lsl #16
    2dc0:	a8f80305 	ldmge	r8!, {r0, r2, r8, r9}^
    2dc4:	01180000 	tsteq	r8, r0
    2dc8:	50030552 	andpl	r0, r3, r2, asr r5
    2dcc:	180000aa 	stmdane	r0, {r1, r3, r5, r7}
    2dd0:	08025301 	stmdaeq	r2, {r0, r8, r9, ip, lr}
    2dd4:	d81900be 	ldmdale	r9, {r1, r2, r3, r4, r5, r7}
    2dd8:	76000097 			; <UNDEFINED> instruction: 0x76000097
    2ddc:	0000000c 	andeq	r0, r0, ip
    2de0:	b9040800 	stmdblt	r4, {fp}
    2de4:	22000000 	andcs	r0, r0, #0, 0
    2de8:	000000c0 	andeq	r0, r0, r0, asr #1
    2dec:	00000880 	andeq	r0, r0, r0, lsl #17
    2df0:	00002c23 	andeq	r2, r0, r3, lsr #24
    2df4:	09000900 	stmdbeq	r0, {r8, fp}
    2df8:	00000870 	andeq	r0, r0, r0, ror r8
    2dfc:	0000b922 	andeq	fp, r0, r2, lsr #18
    2e00:	00089500 	andeq	r9, r8, r0, lsl #10
    2e04:	002c2300 	eoreq	r2, ip, r0, lsl #6
    2e08:	007f0000 	rsbseq	r0, pc, r0
    2e0c:	0006d424 	andeq	sp, r6, r4, lsr #8
    2e10:	01490100 	mrseq	r0, (UNDEF: 89)
    2e14:	0000086a 	andeq	r0, r0, sl, ror #16
    2e18:	00092a01 	andeq	r2, r9, r1, lsl #20
    2e1c:	033b2500 	teqeq	fp, #0, 10
    2e20:	49010000 	stmdbmi	r1, {}	; <UNPREDICTABLE>
    2e24:	00002c0f 	andeq	r2, r0, pc, lsl #24
    2e28:	73642600 	cmnvc	r4, #0, 12
    2e2c:	49010074 	stmdbmi	r1, {r2, r4, r5, r6}
    2e30:	00086a1b 	andeq	r6, r8, fp, lsl sl
    2e34:	006e2600 	rsbeq	r2, lr, r0, lsl #12
    2e38:	33244901 			; <UNDEFINED> instruction: 0x33244901
    2e3c:	26000000 	strcs	r0, [r0], -r0
    2e40:	006c6176 	rsbeq	r6, ip, r6, ror r1
    2e44:	332b4901 			; <UNDEFINED> instruction: 0x332b4901
    2e48:	25000000 	strcs	r0, [r0, #-0]
    2e4c:	0000067d 	andeq	r0, r0, sp, ror r6
    2e50:	33344901 	teqcc	r4, #16384	; 0x4000
    2e54:	25000000 	strcs	r0, [r0, #-0]
    2e58:	0000070a 	andeq	r0, r0, sl, lsl #14
    2e5c:	333f4901 	teqcc	pc, #16384	; 0x4000
    2e60:	27000000 	strcs	r0, [r0, -r0]
    2e64:	00667562 	rsbeq	r7, r6, r2, ror #10
    2e68:	2a074e01 	bcs	1d6674 <__bss_end__+0x1cb5cc>
    2e6c:	27000009 	strcs	r0, [r0, -r9]
    2e70:	4e010070 	mcrmi	0, 0, r0, cr1, cr0, {3}
    2e74:	00086a11 	andeq	r6, r8, r1, lsl sl
    2e78:	00752700 	rsbseq	r2, r5, r0, lsl #14
    2e7c:	2c0b4f01 	stccs	15, cr4, [fp], {1}
    2e80:	12000000 	andne	r0, r0, #0, 0
    2e84:	0000017a 	andeq	r0, r0, sl, ror r1
    2e88:	0000094a 	andeq	r0, r0, sl, asr #18
    2e8c:	aa380305 	bge	e03aa8 <__bss_end__+0xdf8a00>
    2e90:	29280000 	stmdbcs	r8!, {}	; <UNPREDICTABLE>
    2e94:	000006c1 	andeq	r0, r0, r1, asr #13
    2e98:	2c0d5401 	cfstrscs	mvf5, [sp], {1}
    2e9c:	00000000 	andeq	r0, r0, r0
    2ea0:	00b92200 	adcseq	r2, r9, r0, lsl #4
    2ea4:	093a0000 	ldmdbeq	sl!, {}	; <UNPREDICTABLE>
    2ea8:	2c230000 	stccs	0, cr0, [r3], #-0
    2eac:	3f000000 	svccc	0x00000000
    2eb0:	00c02200 	sbceq	r2, r0, r0, lsl #4
    2eb4:	094a0000 	stmdbeq	sl, {}^	; <UNPREDICTABLE>
    2eb8:	2c230000 	stccs	0, cr0, [r3], #-0
    2ebc:	04000000 	streq	r0, [r0], #-0
    2ec0:	093a0900 	ldmdbeq	sl!, {r8, fp}
    2ec4:	d9240000 	stmdble	r4!, {}	; <UNPREDICTABLE>
    2ec8:	01000006 	tsteq	r0, r6
    2ecc:	086a0e38 	stmdaeq	sl!, {r3, r4, r5, r9, sl, fp}^
    2ed0:	a3010000 	movwge	r0, #4096	; 0x1000
    2ed4:	26000009 	strcs	r0, [r0], -r9
    2ed8:	00747364 	rsbseq	r7, r4, r4, ror #6
    2edc:	6a1c3801 	bvs	710ee8 <__bss_end__+0x705e40>
    2ee0:	26000008 	strcs	r0, [r0], -r8
    2ee4:	3801006e 	stmdacc	r1, {r1, r2, r3, r5, r6}
    2ee8:	00003325 	andeq	r3, r0, r5, lsr #6
    2eec:	00702600 	rsbseq	r2, r0, r0, lsl #12
    2ef0:	6a2e3801 	bvs	b90efc <__bss_end__+0xb85e54>
    2ef4:	25000008 	strcs	r0, [r0, #-8]
    2ef8:	00000aa4 	andeq	r0, r0, r4, lsr #21
    2efc:	6a373801 	bvs	dd0f08 <__bss_end__+0xdc5e60>
    2f00:	27000008 	strcs	r0, [r0, -r8]
    2f04:	006e656c 	rsbeq	r6, lr, ip, ror #10
    2f08:	33063a01 	movwcc	r3, #27137	; 0x6a01
    2f0c:	27000000 	strcs	r0, [r0, -r0]
    2f10:	3e010073 	mcrcc	0, 0, r0, cr1, cr3, {3}
    2f14:	00086a08 	andeq	r6, r8, r8, lsl #20
    2f18:	702a0000 	eorvc	r0, sl, r0
    2f1c:	01006461 	tsteq	r0, r1, ror #8
    2f20:	086a0e2e 	stmdaeq	sl!, {r1, r2, r3, r5, r9, sl, fp}^
    2f24:	e3010000 	movw	r0, #4096	; 0x1000
    2f28:	26000009 	strcs	r0, [r0], -r9
    2f2c:	2e010070 	mcrcs	0, 0, r0, cr1, cr0, {3}
    2f30:	00086a18 	andeq	r6, r8, r8, lsl sl
    2f34:	033b2500 	teqeq	fp, #0, 10
    2f38:	2e010000 	cdpcs	0, 0, cr0, cr1, cr0, {0}
    2f3c:	00086a22 	andeq	r6, r8, r2, lsr #20
    2f40:	067d2500 	ldrbteq	r2, [sp], -r0, lsl #10
    2f44:	2e010000 	cdpcs	0, 0, cr0, cr1, cr0, {0}
    2f48:	0000332c 	andeq	r3, r0, ip, lsr #6
    2f4c:	656c2700 	strbvs	r2, [ip, #-1792]!	; 0xfffff900
    2f50:	2f01006e 	svccs	0x0001006e
    2f54:	00003306 	andeq	r3, r0, r6, lsl #6
    2f58:	4a240000 	bmi	902f60 <__bss_end__+0x8f7eb8>
    2f5c:	01000006 	tsteq	r0, r6
    2f60:	00330c27 	eorseq	r0, r3, r7, lsr #24
    2f64:	ff010000 			; <UNDEFINED> instruction: 0xff010000
    2f68:	26000009 	strcs	r0, [r0], -r9
    2f6c:	27010063 	strcs	r0, [r1, -r3, rrx]
    2f70:	00003318 	andeq	r3, r0, r8, lsl r3
    2f74:	9a2b0000 	bls	ac2f7c <__bss_end__+0xab7ed4>
    2f78:	01000006 	tsteq	r0, r6
    2f7c:	91f0061f 	mvnsls	r0, pc, lsl r6
    2f80:	00600000 	rsbeq	r0, r0, r0
    2f84:	9c010000 	stcls	0, cr0, [r1], {-0}
    2f88:	00000a8f 	andeq	r0, r0, pc, lsl #21
    2f8c:	0006830f 	andeq	r8, r6, pc, lsl #6
    2f90:	1b1f0100 	blne	7c3398 <__bss_end__+0x7b82f0>
    2f94:	0000009e 	muleq	r0, lr, r0
    2f98:	00001feb 	andeq	r1, r0, fp, ror #31
    2f9c:	00001fe7 	andeq	r1, r0, r7, ror #31
    2fa0:	0006e80f 	andeq	lr, r6, pc, lsl #16
    2fa4:	301f0100 	andscc	r0, pc, r0, lsl #2
    2fa8:	000000d1 	ldrdeq	r0, [r0], -r1
    2fac:	00002010 	andeq	r2, r0, r0, lsl r0
    2fb0:	0000200c 	andeq	r2, r0, ip
    2fb4:	00017a12 	andeq	r7, r1, r2, lsl sl
    2fb8:	000a9f00 	andeq	r9, sl, r0, lsl #30
    2fbc:	40030500 	andmi	r0, r3, r0, lsl #10
    2fc0:	170000aa 	strne	r0, [r0, -sl, lsr #1]
    2fc4:	00009234 	andeq	r9, r0, r4, lsr r2
    2fc8:	00000c46 	andeq	r0, r0, r6, asr #24
    2fcc:	00000a85 	andeq	r0, r0, r5, lsl #21
    2fd0:	05500118 	ldrbeq	r0, [r0, #-280]	; 0xfffffee8
    2fd4:	00a4d403 	adceq	sp, r4, r3, lsl #8
    2fd8:	51011800 	tstpl	r1, r0, lsl #16
    2fdc:	a8f80305 	ldmge	r8!, {r0, r2, r8, r9}^
    2fe0:	01180000 	tsteq	r8, r0
    2fe4:	40030552 	andmi	r0, r3, r2, asr r5
    2fe8:	180000aa 	stmdane	r0, {r1, r3, r5, r7}
    2fec:	08025301 	stmdaeq	r2, {r0, r8, r9, ip, lr}
    2ff0:	7d021820 	stcvc	8, cr1, [r2, #-128]	; 0xffffff80
    2ff4:	30030500 	andcc	r0, r3, r0, lsl #10
    2ff8:	000000a9 	andeq	r0, r0, r9, lsr #1
    2ffc:	00923819 	addseq	r3, r2, r9, lsl r8
    3000:	000c7600 	andeq	r7, ip, r0, lsl #12
    3004:	c0220000 	eorgt	r0, r2, r0
    3008:	9f000000 	svcls	0x00000000
    300c:	2300000a 	movwcs	r0, #10
    3010:	0000002c 	andeq	r0, r0, ip, lsr #32
    3014:	8f09000e 	svchi	0x0009000e
    3018:	2c00000a 	stccs	0, cr0, [r0], {10}
    301c:	00000895 	muleq	r0, r5, r8
    3020:	00008ec8 	andeq	r8, r0, r8, asr #29
    3024:	00000328 	andeq	r0, r0, r8, lsr #6
    3028:	0c3a9c01 	ldceq	12, cr9, [sl], #-4
    302c:	a61b0000 	ldrge	r0, [fp], -r0
    3030:	49000008 	stmdbmi	r0, {r3}
    3034:	31000020 	tstcc	r0, r0, lsr #32
    3038:	1b000020 	blne	30c0 <__code_start__-0x4f40>
    303c:	000008b2 			; <UNDEFINED> instruction: 0x000008b2
    3040:	000020f3 	strdeq	r2, [r0], -r3
    3044:	000020eb 	andeq	r2, r0, fp, ror #1
    3048:	0008c81b 	andeq	ip, r8, fp, lsl r8
    304c:	00214a00 	eoreq	r4, r1, r0, lsl #20
    3050:	00212a00 	eoreq	r2, r1, r0, lsl #20
    3054:	08d41b00 	ldmeq	r4, {r8, r9, fp, ip}^
    3058:	22200000 	eorcs	r0, r0, #0, 0
    305c:	22120000 	andscs	r0, r2, #0, 0
    3060:	e02d0000 	eor	r0, sp, r0
    3064:	02000008 	andeq	r0, r0, #8, 0
    3068:	ec1d0091 	ldc	0, cr0, [sp], {145}	; 0x91
    306c:	03000008 	movweq	r0, #8
    3070:	1e7fa891 	mrcne	8, 3, sl, cr15, cr1, {4}
    3074:	000008f8 	strdeq	r0, [r0], -r8
    3078:	000022b4 			; <UNDEFINED> instruction: 0x000022b4
    307c:	00002280 	andeq	r2, r0, r0, lsl #5
    3080:	0009021e 	andeq	r0, r9, lr, lsl r2
    3084:	00241b00 	eoreq	r1, r4, r0, lsl #22
    3088:	0023f900 	eoreq	pc, r3, r0, lsl #18
    308c:	08be2e00 	ldmeq	lr!, {r9, sl, fp, sp}
    3090:	1a800000 	bne	fe003098 <__bss_end__+0xfdff7ff0>
    3094:	000009a3 	andeq	r0, r0, r3, lsr #19
    3098:	00008f6c 	andeq	r8, r0, ip, ror #30
    309c:	04a80004 	strteq	r0, [r8], #4
    30a0:	7c010000 	stcvc	0, cr0, [r1], {-0}
    30a4:	000b6d09 	andeq	r6, fp, r9, lsl #26
    30a8:	09ca1b00 	stmibeq	sl, {r8, r9, fp, ip}^
    30ac:	25030000 	strcs	r0, [r3, #-0]
    30b0:	24f90000 	ldrbtcs	r0, [r9], #0
    30b4:	be1b0000 	cdplt	0, 1, cr0, cr11, cr0, {0}
    30b8:	57000009 	strpl	r0, [r0, -r9]
    30bc:	47000025 	strmi	r0, [r0, -r5, lsr #32]
    30c0:	1b000025 	blne	315c <__code_start__-0x4ea4>
    30c4:	000009b4 			; <UNDEFINED> instruction: 0x000009b4
    30c8:	000025d7 	ldrdeq	r2, [r0], -r7
    30cc:	000025c3 	andeq	r2, r0, r3, asr #11
    30d0:	0004a813 	andeq	sl, r4, r3, lsl r8
    30d4:	09d61e00 	ldmibeq	r6, {r9, sl, fp, ip}^
    30d8:	26690000 	strbtcs	r0, [r9], -r0
    30dc:	26590000 	ldrbcs	r0, [r9], -r0
    30e0:	00000000 	andeq	r0, r0, r0
    30e4:	00094f1a 	andeq	r4, r9, sl, lsl pc
    30e8:	00902400 	addseq	r2, r0, r0, lsl #8
    30ec:	f0000200 			; <UNDEFINED> instruction: 0xf0000200
    30f0:	01000004 	tsteq	r0, r4
    30f4:	0bd8097c 	bleq	ff6056ec <__bss_end__+0xff5fa644>
    30f8:	801b0000 	andshi	r0, fp, r0
    30fc:	d5000009 	strle	r0, [r0, #-9]
    3100:	cd000026 	stcgt	0, cr0, [r0, #-152]	; 0xffffff68
    3104:	1b000026 	blne	31a4 <__code_start__-0x4e5c>
    3108:	00000976 	andeq	r0, r0, r6, ror r9
    310c:	00002714 	andeq	r2, r0, r4, lsl r7
    3110:	0000270c 	andeq	r2, r0, ip, lsl #14
    3114:	00096c1b 	andeq	r6, r9, fp, lsl ip
    3118:	00275300 	eoreq	r5, r7, r0, lsl #6
    311c:	00274f00 	eoreq	r4, r7, r0, lsl #30
    3120:	09601b00 	stmdbeq	r0!, {r8, r9, fp, ip}^
    3124:	27830000 	strcs	r0, [r3, r0]
    3128:	27750000 	ldrbcs	r0, [r5, -r0]!
    312c:	f0130000 			; <UNDEFINED> instruction: 0xf0130000
    3130:	1e000004 	cdpne	0, 0, cr0, cr0, cr4, {0}
    3134:	0000098c 	andeq	r0, r0, ip, lsl #19
    3138:	000027e8 	andeq	r2, r0, r8, ror #15
    313c:	000027e2 	andeq	r2, r0, r2, ror #15
    3140:	0009981e 	andeq	r9, r9, lr, lsl r8
    3144:	00281a00 	eoreq	r1, r8, r0, lsl #20
    3148:	00281600 	eoreq	r1, r8, r0, lsl #12
    314c:	2f000000 	svccs	0x00000000
    3150:	0000091b 	andeq	r0, r0, fp, lsl r9
    3154:	000090dc 	ldrdeq	r9, [r0], -ip
    3158:	00000060 	andeq	r0, r0, r0, rrx
    315c:	00000bf7 	strdeq	r0, [r0], -r7
    3160:	00091c1e 	andeq	r1, r9, lr, lsl ip
    3164:	00283c00 	eoreq	r3, r8, r0, lsl #24
    3168:	00283800 	eoreq	r3, r8, r0, lsl #16
    316c:	b0170000 	andslt	r0, r7, r0
    3170:	46000091 			; <UNDEFINED> instruction: 0x46000091
    3174:	3000000c 	andcc	r0, r0, ip
    3178:	1800000c 	stmdane	r0, {r2, r3}
    317c:	03055001 	movweq	r5, #20481	; 0x5001
    3180:	0000a4d4 	ldrdeq	sl, [r0], -r4
    3184:	05510118 	ldrbeq	r0, [r1, #-280]	; 0xfffffee8
    3188:	00a8f803 	adceq	pc, r8, r3, lsl #16
    318c:	52011800 	andpl	r1, r1, #0, 16
    3190:	aa380305 	bge	e03dac <__bss_end__+0xdf8d04>
    3194:	01180000 	tsteq	r8, r0
    3198:	79080253 	stmdbvc	r8, {r0, r1, r4, r6, r9}
    319c:	007d0218 	rsbseq	r0, sp, r8, lsl r2
    31a0:	a7200305 	strge	r0, [r0, -r5, lsl #6]!
    31a4:	19000000 	stmdbne	r0, {}	; <UNPREDICTABLE>
    31a8:	000091b4 			; <UNDEFINED> instruction: 0x000091b4
    31ac:	00000c76 	andeq	r0, r0, r6, ror ip
    31b0:	07023000 	streq	r3, [r2, -r0]
    31b4:	07020000 	streq	r0, [r2, -r0]
    31b8:	eb030000 	bl	c31c0 <__bss_end__+0xb8118>
    31bc:	05c83005 	strbeq	r3, [r8, #5]
    31c0:	05c80000 	strbeq	r0, [r8]
    31c4:	28030000 	stmdacs	r3, {}	; <UNPREDICTABLE>
    31c8:	06b33006 	ldrteq	r3, [r3], r6
    31cc:	06b30000 	ldrteq	r0, [r3], r0
    31d0:	ee030000 	cdp	0, 0, cr0, cr3, cr0, {0}
    31d4:	06e13007 	strbteq	r3, [r1], r7
    31d8:	06e10000 	strbteq	r0, [r1], r0
    31dc:	ea030000 	b	c31e4 <__bss_end__+0xb813c>
    31e0:	06ba3005 	ldrteq	r3, [sl], r5
    31e4:	06ba0000 	ldrteq	r0, [sl], r0
    31e8:	ed030000 	stc	0, cr0, [r3, #-0]
    31ec:	004d3007 	subeq	r3, sp, r7
    31f0:	004d0000 	subeq	r0, sp, r0
    31f4:	6e030000 	cdpvs	0, 0, cr0, cr3, cr0, {0}
    31f8:	012f0006 			; <UNDEFINED> instruction: 0x012f0006
    31fc:	00040000 	andeq	r0, r4, r0
    3200:	00001103 	andeq	r1, r0, r3, lsl #2
    3204:	04e60104 	strbteq	r0, [r6], #260	; 0x104
    3208:	270c0000 	strcs	r0, [ip, -r0]
    320c:	9e000007 	cdpls	0, 0, cr0, cr0, cr7, {0}
    3210:	7c000005 	stcvc	0, cr0, [r0], {5}
    3214:	2c000098 	stccs	0, cr0, [r0], {152}	; 0x98
    3218:	0d000000 	stceq	0, cr0, [r0, #-0]
    321c:	0200001c 	andeq	r0, r0, #28, 0
    3220:	6e690504 	cdpvs	5, 6, cr0, cr9, cr4, {0}
    3224:	04030074 	streq	r0, [r3], #-116	; 0xffffff8c
    3228:	00019107 	andeq	r9, r1, r7, lsl #2
    322c:	06010300 	streq	r0, [r1], -r0, lsl #6
    3230:	00000041 	andeq	r0, r0, r1, asr #32
    3234:	ce050203 	cdpgt	2, 0, cr0, cr5, cr3, {0}
    3238:	03000001 	movweq	r0, #1
    323c:	01b20504 			; <UNDEFINED> instruction: 0x01b20504
    3240:	08030000 	stmdaeq	r3, {}	; <UNPREDICTABLE>
    3244:	0001ad05 	andeq	sl, r1, r5, lsl #26
    3248:	08010300 	stmdaeq	r1, {r8, r9}
    324c:	0000003f 	andeq	r0, r0, pc, lsr r0
    3250:	79070203 	stmdbvc	r7, {r0, r1, r9}
    3254:	03000000 	movweq	r0, #0
    3258:	018c0704 	orreq	r0, ip, r4, lsl #14
    325c:	08030000 	stmdaeq	r3, {}	; <UNPREDICTABLE>
    3260:	00018707 	andeq	r8, r1, r7, lsl #14
    3264:	00250400 	eoreq	r0, r5, r0, lsl #8
    3268:	007a0000 	rsbseq	r0, sl, r0
    326c:	25050000 	strcs	r0, [r5, #-0]
    3270:	00000000 	andeq	r0, r0, r0
    3274:	0001bb06 	andeq	fp, r1, r6, lsl #22
    3278:	0e1c0200 	cdpeq	2, 1, cr0, cr12, cr0, {0}
    327c:	00000086 	andeq	r0, r0, r6, lsl #1
    3280:	006b0407 	rsbeq	r0, fp, r7, lsl #8
    3284:	25040000 	strcs	r0, [r4, #-0]
    3288:	9b000000 	blls	3290 <__code_start__-0x4d70>
    328c:	05000000 	streq	r0, [r0, #-0]
    3290:	0000009b 	muleq	r0, fp, r0
    3294:	a8040700 	stmdage	r4, {r8, r9, sl}
    3298:	03000000 	movweq	r0, #0
    329c:	00480801 	subeq	r0, r8, r1, lsl #16
    32a0:	a1080000 	mrsge	r0, (UNDEF: 8)
    32a4:	06000000 	streq	r0, [r0], -r0
    32a8:	00000606 	andeq	r0, r0, r6, lsl #12
    32ac:	b90e2102 	stmdblt	lr, {r1, r8, sp}
    32b0:	07000000 	streq	r0, [r0, -r0]
    32b4:	00008c04 	andeq	r8, r0, r4, lsl #24
    32b8:	004d0900 	subeq	r0, sp, r0, lsl #18
    32bc:	04010000 	streq	r0, [r1], #-0
    32c0:	00987c06 	addseq	r7, r8, r6, lsl #24
    32c4:	00002c00 	andeq	r2, r0, r0, lsl #24
    32c8:	0e9c0100 	fmleqe	f0, f4, f0
    32cc:	0a000001 	beq	32d8 <__code_start__-0x4d28>
    32d0:	00009890 	muleq	r0, r0, r8
    32d4:	000000e8 	andeq	r0, r0, r8, ror #1
    32d8:	0550010b 	ldrbeq	r0, [r0, #-267]	; 0xfffffef5
    32dc:	00aa5c03 	adceq	r5, sl, r3, lsl #24
    32e0:	940c0000 	strls	r0, [ip], #-0
    32e4:	0e000098 	mcreq	0, 0, r0, cr0, cr8, {4}
    32e8:	0d000001 	stceq	0, cr0, [r0, #-4]
    32ec:	0000989c 	muleq	r0, ip, r8
    32f0:	0000011a 	andeq	r0, r0, sl, lsl r1
    32f4:	00000104 	andeq	r0, r0, r4, lsl #2
    32f8:	0150010b 	cmpeq	r0, fp, lsl #2
    32fc:	a00c003a 	andge	r0, ip, sl, lsr r0
    3300:	26000098 			; <UNDEFINED> instruction: 0x26000098
    3304:	00000001 	andeq	r0, r0, r1
    3308:	0007420e 	andeq	r4, r7, lr, lsl #4
    330c:	00074200 	andeq	r4, r7, r0, lsl #4
    3310:	064d0200 	strbeq	r0, [sp], -r0, lsl #4
    3314:	00071e0e 	andeq	r1, r7, lr, lsl #28
    3318:	00071e00 	andeq	r1, r7, r0, lsl #28
    331c:	06580200 	ldrbeq	r0, [r8], -r0, lsl #4
    3320:	0007130e 	andeq	r1, r7, lr, lsl #6
    3324:	00071300 	andeq	r1, r7, r0, lsl #6
    3328:	066b0200 	strbteq	r0, [fp], -r0, lsl #4
    332c:	00019000 	andeq	r9, r1, r0
    3330:	c3000400 	movwgt	r0, #1024	; 0x400
    3334:	04000011 	streq	r0, [r0], #-17	; 0xffffffef
    3338:	0004e601 	andeq	lr, r4, r1, lsl #12
    333c:	07780c00 	ldrbeq	r0, [r8, -r0, lsl #24]!
    3340:	059e0000 	ldreq	r0, [lr]
    3344:	98a80000 	stmials	r8!, {}	; <UNPREDICTABLE>
    3348:	00f80000 	rscseq	r0, r8, r0
    334c:	1c980000 	ldcne	0, cr0, [r8], {0}
    3350:	04020000 	streq	r0, [r2], #-0
    3354:	746e6905 	strbtvc	r6, [lr], #-2309	; 0xfffff6fb
    3358:	07040300 	streq	r0, [r4, -r0, lsl #6]
    335c:	00000191 	muleq	r0, r1, r1
    3360:	41060103 	tstmi	r6, r3, lsl #2
    3364:	03000000 	movweq	r0, #0
    3368:	01ce0502 	biceq	r0, lr, r2, lsl #10
    336c:	04030000 	streq	r0, [r3], #-0
    3370:	0001b205 	andeq	fp, r1, r5, lsl #4
    3374:	05080300 	streq	r0, [r8, #-768]	; 0xfffffd00
    3378:	000001ad 	andeq	r0, r0, sp, lsr #3
    337c:	3f080103 	svccc	0x00080103
    3380:	03000000 	movweq	r0, #0
    3384:	00790702 	rsbseq	r0, r9, r2, lsl #14
    3388:	04030000 	streq	r0, [r3], #-0
    338c:	00018c07 	andeq	r8, r1, r7, lsl #24
    3390:	07080300 	streq	r0, [r8, -r0, lsl #6]
    3394:	00000187 	andeq	r0, r0, r7, lsl #3
    3398:	00002504 	andeq	r2, r0, r4, lsl #10
    339c:	00007a00 	andeq	r7, r0, r0, lsl #20
    33a0:	00250500 	eoreq	r0, r5, r0, lsl #10
    33a4:	06000000 	streq	r0, [r0], -r0
    33a8:	000001bb 			; <UNDEFINED> instruction: 0x000001bb
    33ac:	860e1c02 	strhi	r1, [lr], -r2, lsl #24
    33b0:	07000000 	streq	r0, [r0, -r0]
    33b4:	00006b04 	andeq	r6, r0, r4, lsl #22
    33b8:	00250400 	eoreq	r0, r5, r0, lsl #8
    33bc:	009b0000 	addseq	r0, fp, r0
    33c0:	9b050000 	blls	1433c8 <__bss_end__+0x138320>
    33c4:	00000000 	andeq	r0, r0, r0
    33c8:	00a80407 	adceq	r0, r8, r7, lsl #8
    33cc:	01030000 	mrseq	r0, (UNDEF: 3)
    33d0:	00004808 	andeq	r4, r0, r8, lsl #16
    33d4:	00a10800 	adceq	r0, r1, r0, lsl #16
    33d8:	06060000 	streq	r0, [r6], -r0
    33dc:	02000006 	andeq	r0, r0, #6, 0
    33e0:	00b90e21 	adcseq	r0, r9, r1, lsr #28
    33e4:	04070000 	streq	r0, [r7], #-0
    33e8:	0000008c 	andeq	r0, r0, ip, lsl #1
    33ec:	00075009 	andeq	r5, r7, r9
    33f0:	06040100 	streq	r0, [r4], -r0, lsl #2
    33f4:	000098a8 	andeq	r9, r0, r8, lsr #17
    33f8:	000000f8 	strdeq	r0, [r0], -r8
    33fc:	015b9c01 	cmpeq	fp, r1, lsl #24
    3400:	7c060000 	stcvc	0, cr0, [r6], {-0}
    3404:	01000003 	tsteq	r0, r3
    3408:	00251005 	eoreq	r1, r5, r5
    340c:	4e060000 	cdpmi	0, 0, cr0, cr6, cr0, {0}
    3410:	01000004 	tsteq	r0, r4
    3414:	00251f05 	eoreq	r1, r5, r5, lsl #30
    3418:	270a0000 	strcs	r0, [sl, -r0]
    341c:	01000000 	mrseq	r0, (UNDEF: 0)
    3420:	620b0706 	andvs	r0, fp, #1572864	; 0x180000
    3424:	01007373 	tsteq	r0, r3, ror r3
    3428:	015b0a0a 	cmpeq	fp, sl, lsl #20
    342c:	28740000 	ldmdacs	r4!, {}^	; <UNPREDICTABLE>
    3430:	285c0000 	ldmdacs	ip, {}^	; <UNPREDICTABLE>
    3434:	580c0000 	stmdapl	ip, {}	; <UNPREDICTABLE>
    3438:	01000007 	tsteq	r0, r7
    343c:	015b0a0b 	cmpeq	fp, fp, lsl #20
    3440:	800d0000 	andhi	r0, sp, r0
    3444:	08000099 	stmdaeq	r0, {r0, r3, r4, r7}
    3448:	36000000 	strcc	r0, [r0], -r0
    344c:	0b000001 	bleq	3458 <__code_start__-0x4ba8>
    3450:	01006e69 	tsteq	r0, r9, ror #28
    3454:	002c0514 	eoreq	r0, ip, r4, lsl r5
    3458:	290e0000 	stmdbcs	lr, {}	; <UNPREDICTABLE>
    345c:	290c0000 	stmdbcs	ip, {}	; <UNPREDICTABLE>
    3460:	0e000000 	cdpeq	0, 0, cr0, cr0, cr0, {0}
    3464:	000098b0 			; <UNDEFINED> instruction: 0x000098b0
    3468:	00000161 	andeq	r0, r0, r1, ror #2
    346c:	0099800e 	addseq	r8, r9, lr
    3470:	00016e00 	andeq	r6, r1, r0, lsl #28
    3474:	998c0e00 	stmibls	ip, {r9, sl, fp}
    3478:	017a0000 	cmneq	sl, r0
    347c:	900e0000 	andls	r0, lr, r0
    3480:	87000099 			; <UNDEFINED> instruction: 0x87000099
    3484:	00000001 	andeq	r0, r0, r1
    3488:	00250407 	eoreq	r0, r5, r7, lsl #8
    348c:	6a0f0000 	bvs	3c3494 <__bss_end__+0x3b83ec>
    3490:	6a000007 	bvs	34b4 <__code_start__-0x4b4c>
    3494:	02000007 	andeq	r0, r0, #7, 0
    3498:	10060131 	andne	r0, r6, r1, lsr r1
    349c:	00000760 	andeq	r0, r0, r0, ror #14
    34a0:	00000760 	andeq	r0, r0, r0, ror #14
    34a4:	0f063b02 	svceq	0x00063b02
    34a8:	00000027 	andeq	r0, r0, r7, lsr #32
    34ac:	00000027 	andeq	r0, r0, r7, lsr #32
    34b0:	06010502 	streq	r0, [r1], -r2, lsl #10
    34b4:	00004d10 	andeq	r4, r0, r0, lsl sp
    34b8:	00004d00 	andeq	r4, r0, r0, lsl #26
    34bc:	066e0200 	strbteq	r0, [lr], -r0, lsl #4
    34c0:	0000ce00 	andeq	ip, r0, r0, lsl #28
    34c4:	ae000400 	cfcpysge	mvf0, mvf0
    34c8:	04000012 	streq	r0, [r0], #-18	; 0xffffffee
    34cc:	0004e601 	andeq	lr, r4, r1, lsl #12
    34d0:	078d0c00 	streq	r0, [sp, r0, lsl #24]
    34d4:	059e0000 	ldreq	r0, [lr]
    34d8:	99a00000 	stmibls	r0!, {}	; <UNPREDICTABLE>
    34dc:	00040000 	andeq	r0, r4, r0
    34e0:	1dae0000 	stcne	0, cr0, [lr]
    34e4:	04020000 	streq	r0, [r2], #-0
    34e8:	746e6905 	strbtvc	r6, [lr], #-2309	; 0xfffff6fb
    34ec:	07040300 	streq	r0, [r4, -r0, lsl #6]
    34f0:	00000191 	muleq	r0, r1, r1
    34f4:	41060103 	tstmi	r6, r3, lsl #2
    34f8:	03000000 	movweq	r0, #0
    34fc:	01ce0502 	biceq	r0, lr, r2, lsl #10
    3500:	04030000 	streq	r0, [r3], #-0
    3504:	0001b205 	andeq	fp, r1, r5, lsl #4
    3508:	05080300 	streq	r0, [r8, #-768]	; 0xfffffd00
    350c:	000001ad 	andeq	r0, r0, sp, lsr #3
    3510:	3f080103 	svccc	0x00080103
    3514:	03000000 	movweq	r0, #0
    3518:	00790702 	rsbseq	r0, r9, r2, lsl #14
    351c:	04030000 	streq	r0, [r3], #-0
    3520:	00018c07 	andeq	r8, r1, r7, lsl #24
    3524:	07080300 	streq	r0, [r8, -r0, lsl #6]
    3528:	00000187 	andeq	r0, r0, r7, lsl #3
    352c:	00002504 	andeq	r2, r0, r4, lsl #10
    3530:	00007a00 	andeq	r7, r0, r0, lsl #20
    3534:	00250500 	eoreq	r0, r5, r0, lsl #10
    3538:	06000000 	streq	r0, [r0], -r0
    353c:	000001bb 			; <UNDEFINED> instruction: 0x000001bb
    3540:	860e1c02 	strhi	r1, [lr], -r2, lsl #24
    3544:	07000000 	streq	r0, [r0, -r0]
    3548:	00006b04 	andeq	r6, r0, r4, lsl #22
    354c:	00250400 	eoreq	r0, r5, r0, lsl #8
    3550:	009b0000 	addseq	r0, fp, r0
    3554:	9b050000 	blls	14355c <__bss_end__+0x1384b4>
    3558:	00000000 	andeq	r0, r0, r0
    355c:	00a80407 	adceq	r0, r8, r7, lsl #8
    3560:	01030000 	mrseq	r0, (UNDEF: 3)
    3564:	00004808 	andeq	r4, r0, r8, lsl #16
    3568:	00a10800 	adceq	r0, r1, r0, lsl #16
    356c:	06060000 	streq	r0, [r6], -r0
    3570:	02000006 	andeq	r0, r0, #6, 0
    3574:	00b90e21 	adcseq	r0, r9, r1, lsr #28
    3578:	04070000 	streq	r0, [r7], #-0
    357c:	0000008c 	andeq	r0, r0, ip, lsl #1
    3580:	00076a09 	andeq	r6, r7, r9, lsl #20
    3584:	06040100 	streq	r0, [r4], -r0, lsl #2
    3588:	000099a0 	andeq	r9, r0, r0, lsr #19
    358c:	00000004 	andeq	r0, r0, r4
    3590:	7d009c01 	stcvc	12, cr9, [r0, #-4]
    3594:	04000002 	streq	r0, [r0], #-2
    3598:	00132700 	andseq	r2, r3, r0, lsl #14
    359c:	e6010400 	str	r0, [r1], -r0, lsl #8
    35a0:	0c000004 	stceq	0, cr0, [r0], {4}
    35a4:	000007d5 	ldrdeq	r0, [r0], -r5
    35a8:	0000059e 	muleq	r0, lr, r5
    35ac:	00000698 	muleq	r0, r8, r6
    35b0:	00000000 	andeq	r0, r0, r0
    35b4:	00001e2f 	andeq	r1, r0, pc, lsr #28
    35b8:	69050402 	stmdbvs	r5, {r1, sl}
    35bc:	0300746e 	movweq	r7, #1134	; 0x46e
    35c0:	00000025 	andeq	r0, r0, r5, lsr #32
    35c4:	91070404 	tstls	r7, r4, lsl #8
    35c8:	04000001 	streq	r0, [r0], #-1
    35cc:	00410601 	subeq	r0, r1, r1, lsl #12
    35d0:	02040000 	andeq	r0, r4, #0, 0
    35d4:	0001ce05 	andeq	ip, r1, r5, lsl #28
    35d8:	05040400 	streq	r0, [r4, #-1024]	; 0xfffffc00
    35dc:	000001b2 			; <UNDEFINED> instruction: 0x000001b2
    35e0:	ad050804 	stcge	8, cr0, [r5, #-16]
    35e4:	04000001 	streq	r0, [r0], #-1
    35e8:	003f0801 	eorseq	r0, pc, r1, lsl #16
    35ec:	02040000 	andeq	r0, r4, #0, 0
    35f0:	00007907 	andeq	r7, r0, r7, lsl #18
    35f4:	07040400 	streq	r0, [r4, -r0, lsl #8]
    35f8:	0000018c 	andeq	r0, r0, ip, lsl #3
    35fc:	87070804 	strhi	r0, [r7, -r4, lsl #16]
    3600:	05000001 	streq	r0, [r0, #-1]
    3604:	00000025 	andeq	r0, r0, r5, lsr #32
    3608:	0000007f 	andeq	r0, r0, pc, ror r0
    360c:	00002506 	andeq	r2, r0, r6, lsl #10
    3610:	bb070000 	bllt	1c3618 <__bss_end__+0x1b8570>
    3614:	02000001 	andeq	r0, r0, #1, 0
    3618:	008b0e1c 	addeq	r0, fp, ip, lsl lr
    361c:	04080000 	streq	r0, [r8], #-0
    3620:	00000070 	andeq	r0, r0, r0, ror r0
    3624:	00002505 	andeq	r2, r0, r5, lsl #10
    3628:	0000a000 	andeq	sl, r0, r0
    362c:	00a00600 	adceq	r0, r0, r0, lsl #12
    3630:	08000000 	stmdaeq	r0, {}	; <UNPREDICTABLE>
    3634:	0000ad04 	andeq	sl, r0, r4, lsl #26
    3638:	08010400 	stmdaeq	r1, {sl}
    363c:	00000048 	andeq	r0, r0, r8, asr #32
    3640:	0000a603 	andeq	sl, r0, r3, lsl #12
    3644:	06060700 	streq	r0, [r6], -r0, lsl #14
    3648:	21020000 	mrscs	r0, (UNDEF: 2)
    364c:	0000be0e 	andeq	fp, r0, lr, lsl #28
    3650:	91040800 	tstls	r4, r0, lsl #16
    3654:	09000000 	stmdbeq	r0, {}	; <UNPREDICTABLE>
    3658:	000007f9 	strdeq	r0, [r0], -r9
    365c:	31110d01 	tstcc	r1, r1, lsl #26
    3660:	0a000000 	beq	3668 <__code_start__-0x4998>
    3664:	00000713 	andeq	r0, r0, r3, lsl r7
    3668:	d0061f01 	andle	r1, r6, r1, lsl #30
    366c:	60000099 	mulvs	r0, r9, r0
    3670:	01000000 	mrseq	r0, (UNDEF: 0)
    3674:	0001d59c 	muleq	r1, ip, r5
    3678:	081d0b00 	ldmdaeq	sp, {r8, r9, fp}
    367c:	2c010000 	stccs	0, cr0, [r1], {-0}
    3680:	00002c0f 	andeq	r2, r0, pc, lsl #24
    3684:	10001c00 	andne	r1, r0, r0, lsl #24
    3688:	07b80b20 	ldreq	r0, [r8, r0, lsr #22]!
    368c:	2d010000 	stccs	0, cr0, [r1, #-0]
    3690:	00002c0f 	andeq	r2, r0, pc, lsl #24
    3694:	10002400 	andne	r2, r0, r0, lsl #8
    3698:	07ea0b20 	strbeq	r0, [sl, r0, lsr #22]!
    369c:	2e010000 	cdpcs	0, 0, cr0, cr1, cr0, {0}
    36a0:	00002c0f 	andeq	r2, r0, pc, lsl #24
    36a4:	00000000 	andeq	r0, r0, r0
    36a8:	08040c5a 	stmdaeq	r4, {r1, r3, r4, r6, sl, fp}
    36ac:	2f010000 	svccs	0x00010000
    36b0:	00002c0f 	andeq	r2, r0, pc, lsl #24
    36b4:	ef0d2000 	svc	0x000d2000
    36b8:	d0000001 	andle	r0, r0, r1
    36bc:	02000099 	andeq	r0, r0, #153, 0	; 0x99
    36c0:	00000680 	andeq	r0, r0, r0, lsl #13
    36c4:	4c082001 	stcmi	0, cr2, [r8], {1}
    36c8:	0e000001 	cdpeq	0, 0, cr0, cr0, cr1, {0}
    36cc:	00000680 	andeq	r0, r0, r0, lsl #13
    36d0:	0002000f 	andeq	r0, r2, pc
    36d4:	00292600 	eoreq	r2, r9, r0, lsl #12
    36d8:	00292200 	eoreq	r2, r9, r0, lsl #4
    36dc:	10000000 	andne	r0, r0, r0
    36e0:	000001d5 	ldrdeq	r0, [r0], -r5
    36e4:	000099e4 	andeq	r9, r0, r4, ror #19
    36e8:	0099e401 	addseq	lr, r9, r1, lsl #8
    36ec:	00001000 	andeq	r1, r0, r0
    36f0:	09210100 	stmdbeq	r1!, {r8}
    36f4:	00000173 	andeq	r0, r0, r3, ror r1
    36f8:	0001e20f 	andeq	lr, r1, pc, lsl #4
    36fc:	00294d00 	eoreq	r4, r9, r0, lsl #26
    3700:	00294500 	eoreq	r4, r9, r0, lsl #10
    3704:	f8110000 			; <UNDEFINED> instruction: 0xf8110000
    3708:	4f000099 	svcmi	0x00000099
    370c:	11000002 	tstne	r0, r2
    3710:	000099fc 	strdeq	r9, [r0], -ip
    3714:	0000025c 	andeq	r0, r0, ip, asr r2
    3718:	009a0412 	addseq	r0, sl, r2, lsl r4
    371c:	00026800 	andeq	r6, r2, r0, lsl #16
    3720:	00019800 	andeq	r9, r1, r0, lsl #16
    3724:	50011300 	andpl	r1, r1, r0, lsl #6
    3728:	12003a01 	andne	r3, r0, #4096	; 0x1000
    372c:	00009a10 	andeq	r9, r0, r0, lsl sl
    3730:	00000274 	andeq	r0, r0, r4, ror r2
    3734:	000001b8 			; <UNDEFINED> instruction: 0x000001b8
    3738:	05500113 	ldrbeq	r0, [r0, #-275]	; 0xfffffeed
    373c:	1000240c 	andne	r2, r0, ip, lsl #8
    3740:	51011320 	tstpl	r1, r0, lsr #6
    3744:	00010c05 	andeq	r0, r1, r5, lsl #24
    3748:	14005a00 	strne	r5, [r0], #-2560	; 0xfffff600
    374c:	00009a1c 	andeq	r9, r0, ip, lsl sl
    3750:	00000274 	andeq	r0, r0, r4, ror r2
    3754:	05500113 	ldrbeq	r0, [r0, #-275]	; 0xfffffeed
    3758:	10001c0c 	andne	r1, r0, ip, lsl #24
    375c:	51011320 	tstpl	r1, r0, lsr #6
    3760:	00200c05 	eoreq	r0, r0, r5, lsl #24
    3764:	00005a00 	andeq	r5, r0, r0, lsl #20
    3768:	0007c615 	andeq	ip, r7, r5, lsl r6
    376c:	06170100 	ldreq	r0, [r7], -r0, lsl #2
    3770:	0001ef01 	andeq	lr, r1, r1, lsl #30
    3774:	08250900 	stmdaeq	r5!, {r8, fp}
    3778:	18010000 	stmdane	r1, {}	; <UNPREDICTABLE>
    377c:	0000310e 	andeq	r3, r0, lr, lsl #2
    3780:	f6160000 			; <UNDEFINED> instruction: 0xf6160000
    3784:	01000007 	tsteq	r0, r7
    3788:	0025050e 	eoreq	r0, r5, lr, lsl #10
    378c:	0d010000 	stceq	0, cr0, [r1, #-0]
    3790:	09000002 	stmdbeq	r0, {r1}
    3794:	00000825 	andeq	r0, r0, r5, lsr #16
    3798:	310e0f01 	tstcc	lr, r1, lsl #30
    379c:	00000000 	andeq	r0, r0, r0
    37a0:	0001ef17 	andeq	lr, r1, r7, lsl pc
    37a4:	0099a400 	addseq	sl, r9, r0, lsl #8
    37a8:	00001800 	andeq	r1, r0, r0, lsl #16
    37ac:	2e9c0100 	fmlcse	f0, f4, f0
    37b0:	0f000002 	svceq	0x00000002
    37b4:	00000200 	andeq	r0, r0, r0, lsl #4
    37b8:	0000298a 	andeq	r2, r0, sl, lsl #19
    37bc:	00002986 	andeq	r2, r0, r6, lsl #19
    37c0:	01d51700 	bicseq	r1, r5, r0, lsl #14
    37c4:	99bc0000 	ldmibls	ip!, {}	; <UNPREDICTABLE>
    37c8:	00140000 	andseq	r0, r4, r0
    37cc:	9c010000 	stcls	0, cr0, [r1], {-0}
    37d0:	0000024f 	andeq	r0, r0, pc, asr #4
    37d4:	0001e20f 	andeq	lr, r1, pc, lsl #4
    37d8:	0029b100 	eoreq	fp, r9, r0, lsl #2
    37dc:	0029a900 	eoreq	sl, r9, r0, lsl #18
    37e0:	a9180000 	ldmdbge	r8, {}	; <UNPREDICTABLE>
    37e4:	a9000007 	stmdbge	r0, {r0, r1, r2}
    37e8:	02000007 	andeq	r0, r0, #7, 0
    37ec:	19060136 	stmdbne	r6, {r1, r2, r4, r5, r8}
    37f0:	00000742 	andeq	r0, r0, r2, asr #14
    37f4:	00000742 	andeq	r0, r0, r2, asr #14
    37f8:	19064d02 	stmdbne	r6, {r1, r8, sl, fp, lr}
    37fc:	0000071e 	andeq	r0, r0, lr, lsl r7
    3800:	0000071e 	andeq	r0, r0, lr, lsl r7
    3804:	19065802 	stmdbne	r6, {r1, fp, ip, lr}
    3808:	000007c0 	andeq	r0, r0, r0, asr #15
    380c:	000007c0 	andeq	r0, r0, r0, asr #15
    3810:	0006ad02 	andeq	sl, r6, r2, lsl #26
    3814:	0000053f 	andeq	r0, r0, pc, lsr r5
    3818:	14aa0004 	strtne	r0, [sl], #4
    381c:	01040000 	mrseq	r0, (UNDEF: 4)
    3820:	000004e6 	andeq	r0, r0, r6, ror #9
    3824:	0008400c 	andeq	r4, r8, ip
    3828:	00059e00 	andeq	r9, r5, r0, lsl #28
    382c:	009a3000 	addseq	r3, sl, r0
    3830:	00011c00 	andeq	r1, r1, r0, lsl #24
    3834:	001f4700 	andseq	r4, pc, r0, lsl #14
    3838:	05040200 	streq	r0, [r4, #-512]	; 0xfffffe00
    383c:	00746e69 	rsbseq	r6, r4, r9, ror #28
    3840:	91070403 	tstls	r7, r3, lsl #8
    3844:	03000001 	movweq	r0, #1
    3848:	00410601 	subeq	r0, r1, r1, lsl #12
    384c:	02030000 	andeq	r0, r3, #0, 0
    3850:	0001ce05 	andeq	ip, r1, r5, lsl #28
    3854:	05040300 	streq	r0, [r4, #-768]	; 0xfffffd00
    3858:	000001b2 			; <UNDEFINED> instruction: 0x000001b2
    385c:	ad050803 	stcge	8, cr0, [r5, #-12]
    3860:	03000001 	movweq	r0, #1
    3864:	003f0801 	eorseq	r0, pc, r1, lsl #16
    3868:	02030000 	andeq	r0, r3, #0, 0
    386c:	00007907 	andeq	r7, r0, r7, lsl #18
    3870:	07040300 	streq	r0, [r4, -r0, lsl #6]
    3874:	0000018c 	andeq	r0, r0, ip, lsl #3
    3878:	87070803 	strhi	r0, [r7, -r3, lsl #16]
    387c:	04000001 	streq	r0, [r0], #-1
    3880:	00000025 	andeq	r0, r0, r5, lsr #32
    3884:	0000007a 	andeq	r0, r0, sl, ror r0
    3888:	00002505 	andeq	r2, r0, r5, lsl #10
    388c:	bb060000 	bllt	183894 <__bss_end__+0x1787ec>
    3890:	02000001 	andeq	r0, r0, #1, 0
    3894:	00860e1c 	addeq	r0, r6, ip, lsl lr
    3898:	04070000 	streq	r0, [r7], #-0
    389c:	0000006b 	andeq	r0, r0, fp, rrx
    38a0:	00002504 	andeq	r2, r0, r4, lsl #10
    38a4:	00009b00 	andeq	r9, r0, r0, lsl #22
    38a8:	009b0500 	addseq	r0, fp, r0, lsl #10
    38ac:	07000000 	streq	r0, [r0, -r0]
    38b0:	0000a804 	andeq	sl, r0, r4, lsl #16
    38b4:	08010300 	stmdaeq	r1, {r8, r9}
    38b8:	00000048 	andeq	r0, r0, r8, asr #32
    38bc:	0000a108 	andeq	sl, r0, r8, lsl #2
    38c0:	06060600 	streq	r0, [r6], -r0, lsl #12
    38c4:	21020000 	mrscs	r0, (UNDEF: 2)
    38c8:	0000b90e 	andeq	fp, r0, lr, lsl #18
    38cc:	8c040700 	stchi	7, cr0, [r4], {-0}
    38d0:	09000000 	stmdbeq	r0, {}	; <UNPREDICTABLE>
    38d4:	00000836 	andeq	r0, r0, r6, lsr r8
    38d8:	f8061e01 			; <UNDEFINED> instruction: 0xf8061e01
    38dc:	5400009a 	strpl	r0, [r0], #-154	; 0xffffff66
    38e0:	01000000 	mrseq	r0, (UNDEF: 0)
    38e4:	00020b9c 	muleq	r2, ip, fp
    38e8:	65730a00 	ldrbvs	r0, [r3, #-2560]!	; 0xfffff600
    38ec:	1e010063 	cdpne	0, 0, cr0, cr1, cr3, {3}
    38f0:	00002c19 	andeq	r2, r0, r9, lsl ip
    38f4:	0029ee00 	eoreq	lr, r9, r0, lsl #28
    38f8:	0029ea00 	eoreq	lr, r9, r0, lsl #20
    38fc:	020b0b00 	andeq	r0, fp, #0, 22
    3900:	9af80000 	bls	ffe03908 <__bss_end__+0xffdf8860>
    3904:	60020000 	andvs	r0, r2, r0
    3908:	01000007 	tsteq	r0, r7
    390c:	180c051f 	stmdane	ip, {r0, r1, r2, r3, r4, r8, sl}
    3910:	13000002 	movwne	r0, #2
    3914:	0f00002a 	svceq	0x0000002a
    3918:	0d00002a 	stceq	0, cr0, [r0, #-168]	; 0xffffff58
    391c:	00000224 	andeq	r0, r0, r4, lsr #4
    3920:	00009b0c 	andeq	r9, r0, ip, lsl #22
    3924:	009b0c00 	addseq	r0, fp, r0, lsl #24
    3928:	00004000 	andeq	r4, r0, r0
    392c:	051c0100 	ldreq	r0, [ip, #-256]	; 0xffffff00
    3930:	0002310c 	andeq	r3, r2, ip, lsl #2
    3934:	002a4000 	eoreq	r4, sl, r0
    3938:	002a3e00 	eoreq	r3, sl, r0, lsl #28
    393c:	023c0e00 	eorseq	r0, ip, #0, 28
    3940:	2a550000 	bcs	1543948 <__bss_end__+0x15388a0>
    3944:	2a530000 	bcs	14c394c <__bss_end__+0x14b88a4>
    3948:	550f0000 	strpl	r0, [pc, #-0]	; 3950 <__code_start__-0x46b0>
    394c:	0c000002 	stceq	0, cr0, [r0], {2}
    3950:	0200009b 	andeq	r0, r0, #155, 0	; 0x9b
    3954:	00009b0c 	andeq	r9, r0, ip, lsl #22
    3958:	00000014 	andeq	r0, r0, r4, lsl r0
    395c:	9c131301 	ldcls	3, cr1, [r3], {1}
    3960:	0e000001 	cdpeq	0, 0, cr0, cr0, cr1, {0}
    3964:	00000266 	andeq	r0, r0, r6, ror #4
    3968:	00002a6c 	andeq	r2, r0, ip, ror #20
    396c:	00002a68 	andeq	r2, r0, r8, ror #20
    3970:	0002710f 	andeq	r7, r2, pc, lsl #2
    3974:	009b1000 	addseq	r1, fp, r0
    3978:	9b100100 	blls	403d80 <__bss_end__+0x3f8cd8>
    397c:	000c0000 	andeq	r0, ip, r0
    3980:	0d010000 	stceq	0, cr0, [r1, #-0]
    3984:	00018912 	andeq	r8, r1, r2, lsl r9
    3988:	9b181000 	blls	607990 <__bss_end__+0x5fc8e8>
    398c:	052a0000 	streq	r0, [sl, #-0]!
    3990:	01110000 	tsteq	r1, r0
    3994:	040c0550 	streq	r0, [ip], #-1360	; 0xfffffab0
    3998:	00200030 	eoreq	r0, r0, r0, lsr r0
    399c:	9b101200 	blls	4081a4 <__bss_end__+0x3fd0fc>
    39a0:	05360000 	ldreq	r0, [r6, #-0]!
    39a4:	20120000 	andscs	r0, r2, r0
    39a8:	3600009b 			; <UNDEFINED> instruction: 0x3600009b
    39ac:	00000005 	andeq	r0, r0, r5
    39b0:	00024713 	andeq	r4, r2, r3, lsl r7
    39b4:	00077800 	andeq	r7, r7, r0, lsl #16
    39b8:	02481400 	subeq	r1, r8, #0, 8
    39bc:	550b0000 	strpl	r0, [fp, #-0]
    39c0:	24000002 	strcs	r0, [r0], #-2
    39c4:	0200009b 	andeq	r0, r0, #155, 0	; 0x9b
    39c8:	00000790 	muleq	r0, r0, r7
    39cc:	15171501 	ldrne	r1, [r7, #-1281]	; 0xfffffaff
    39d0:	00000790 	muleq	r0, r0, r7
    39d4:	0002660e 	andeq	r6, r2, lr, lsl #12
    39d8:	002a8c00 	eoreq	r8, sl, r0, lsl #24
    39dc:	002a8a00 	eoreq	r8, sl, r0, lsl #20
    39e0:	02711600 	rsbseq	r1, r1, #0, 12
    39e4:	9b280000 	blls	a039ec <__bss_end__+0x9f8944>
    39e8:	b0010000 	andlt	r0, r1, r0
    39ec:	01000007 	tsteq	r0, r7
    39f0:	01f3120d 	mvnseq	r1, sp, lsl #4
    39f4:	30100000 	andscc	r0, r0, r0
    39f8:	2a00009b 	bcs	3c6c <__code_start__-0x4394>
    39fc:	11000005 	tstne	r0, r5
    3a00:	77025001 	strvc	r5, [r2, -r1]
    3a04:	12000000 	andne	r0, r0, #0, 0
    3a08:	00009b28 	andeq	r9, r0, r8, lsr #22
    3a0c:	00000536 	andeq	r0, r0, r6, lsr r5
    3a10:	009b3c12 	addseq	r3, fp, r2, lsl ip
    3a14:	00053600 	andeq	r3, r5, r0, lsl #12
    3a18:	00000000 	andeq	r0, r0, r0
    3a1c:	17000000 	strne	r0, [r0, -r0]
    3a20:	0000071e 	andeq	r0, r0, lr, lsl r7
    3a24:	01061b01 	tsteq	r6, r1, lsl #22
    3a28:	00000224 	andeq	r0, r0, r4, lsr #4
    3a2c:	00736d18 	rsbseq	r6, r3, r8, lsl sp
    3a30:	2c181b01 			; <UNDEFINED> instruction: 0x2c181b01
    3a34:	00000000 	andeq	r0, r0, r0
    3a38:	00086917 	andeq	r6, r8, r7, lsl r9
    3a3c:	06120100 	ldreq	r0, [r2], -r0, lsl #2
    3a40:	00025501 	andeq	r5, r2, r1, lsl #10
    3a44:	73751800 	cmnvc	r5, #0, 16
    3a48:	18120100 	ldmdane	r2, {r8}
    3a4c:	0000002c 	andeq	r0, r0, ip, lsr #32
    3a50:	00627219 	rsbeq	r7, r2, r9, lsl r2
    3a54:	2c0e1301 	stccs	3, cr1, [lr], {1}
    3a58:	1a000000 	bne	3a60 <__code_start__-0x45a0>
    3a5c:	00617219 	rsbeq	r7, r1, r9, lsl r2
    3a60:	2c121501 	cfldr32cs	mvfx1, [r2], {1}
    3a64:	00000000 	andeq	r0, r0, r0
    3a68:	085a1b00 	ldmdaeq	sl, {r8, r9, fp, ip}^
    3a6c:	09010000 	stmdbeq	r1, {}	; <UNPREDICTABLE>
    3a70:	00002c0a 	andeq	r2, r0, sl, lsl #24
    3a74:	02710100 	rsbseq	r0, r1, #0
    3a78:	75190000 	ldrvc	r0, [r9, #-0]
    3a7c:	0e0d0100 	adfeqe	f0, f5, f0
    3a80:	0000002c 	andeq	r0, r0, ip, lsr #32
    3a84:	08721c00 	ldmdaeq	r2!, {sl, fp, ip}^
    3a88:	04010000 	streq	r0, [r1], #-0
    3a8c:	00002c0a 	andeq	r2, r0, sl, lsl #24
    3a90:	711d0100 	tstvc	sp, r0, lsl #2
    3a94:	30000002 	andcc	r0, r0, r2
    3a98:	0c00009a 	stceq	0, cr0, [r0], {154}	; 0x9a
    3a9c:	01000000 	mrseq	r0, (UNDEF: 0)
    3aa0:	0002a59c 	muleq	r2, ip, r5
    3aa4:	9a381e00 	bls	e0b2ac <__bss_end__+0xe00204>
    3aa8:	052a0000 	streq	r0, [sl, #-0]!
    3aac:	01110000 	tsteq	r1, r0
    3ab0:	040c0550 	streq	r0, [ip], #-1360	; 0xfffffab0
    3ab4:	00200030 	eoreq	r0, r0, r0, lsr r0
    3ab8:	02551d00 	subseq	r1, r5, #0, 26
    3abc:	9a3c0000 	bls	f03ac4 <__bss_end__+0xef8a1c>
    3ac0:	00240000 	eoreq	r0, r4, r0
    3ac4:	9c010000 	stcls	0, cr0, [r1], {-0}
    3ac8:	00000305 	andeq	r0, r0, r5, lsl #6
    3acc:	0002660e 	andeq	r6, r2, lr, lsl #12
    3ad0:	002aa300 	eoreq	sl, sl, r0, lsl #6
    3ad4:	002a9f00 	eoreq	r9, sl, r0, lsl #30
    3ad8:	02710f00 	rsbseq	r0, r1, #0, 30
    3adc:	9a440000 	bls	1103ae4 <__bss_end__+0x10f8a3c>
    3ae0:	44010000 	strmi	r0, [r1], #-0
    3ae4:	0c00009a 	stceq	0, cr0, [r0], {154}	; 0x9a
    3ae8:	01000000 	mrseq	r0, (UNDEF: 0)
    3aec:	02f2120d 	rscseq	r1, r2, #-805306368	; 0xd0000000
    3af0:	4c100000 	ldcmi	0, cr0, [r0], {-0}
    3af4:	2a00009a 	bcs	3d64 <__code_start__-0x429c>
    3af8:	11000005 	tstne	r0, r5
    3afc:	0c055001 	stceq	0, cr5, [r5], {1}
    3b00:	20003004 	andcs	r3, r0, r4
    3b04:	44120000 	ldrmi	r0, [r2], #-0
    3b08:	3600009a 			; <UNDEFINED> instruction: 0x3600009a
    3b0c:	12000005 	andne	r0, r0, #5, 0
    3b10:	00009a54 	andeq	r9, r0, r4, asr sl
    3b14:	00000536 	andeq	r0, r0, r6, lsr r5
    3b18:	02241d00 	eoreq	r1, r4, #0, 26
    3b1c:	9a600000 	bls	1803b24 <__bss_end__+0x17f8a7c>
    3b20:	00480000 	subeq	r0, r8, r0
    3b24:	9c010000 	stcls	0, cr0, [r1], {-0}
    3b28:	00000407 	andeq	r0, r0, r7, lsl #8
    3b2c:	0002310c 	andeq	r3, r2, ip, lsl #2
    3b30:	002ac500 	eoreq	ip, sl, r0, lsl #10
    3b34:	002ac100 	eoreq	ip, sl, r0, lsl #2
    3b38:	023c0e00 	eorseq	r0, ip, #0, 28
    3b3c:	2ae50000 	bcs	ff943b44 <__bss_end__+0xff938a9c>
    3b40:	2ae30000 	bcs	ff8c3b48 <__bss_end__+0xff8b8aa0>
    3b44:	55160000 	ldrpl	r0, [r6, #-0]
    3b48:	60000002 	andvs	r0, r0, r2
    3b4c:	0200009a 	andeq	r0, r0, #154, 0	; 0x9a
    3b50:	000006a8 	andeq	r0, r0, r8, lsr #13
    3b54:	9a131301 	bls	4c8760 <__bss_end__+0x4bd6b8>
    3b58:	15000003 	strne	r0, [r0, #-3]
    3b5c:	000006a8 	andeq	r0, r0, r8, lsr #13
    3b60:	0002660e 	andeq	r6, r2, lr, lsl #12
    3b64:	002afc00 	eoreq	pc, sl, r0, lsl #24
    3b68:	002af800 	eoreq	pc, sl, r0, lsl #16
    3b6c:	02710f00 	rsbseq	r0, r1, #0, 30
    3b70:	9a6c0000 	bls	1b03b78 <__bss_end__+0x1af8ad0>
    3b74:	6c010000 	stcvs	0, cr0, [r1], {-0}
    3b78:	0c00009a 	stceq	0, cr0, [r0], {154}	; 0x9a
    3b7c:	01000000 	mrseq	r0, (UNDEF: 0)
    3b80:	0386120d 	orreq	r1, r6, #-805306368	; 0xd0000000
    3b84:	74100000 	ldrvc	r0, [r0], #-0
    3b88:	2a00009a 	bcs	3df8 <__code_start__-0x4208>
    3b8c:	11000005 	tstne	r0, r5
    3b90:	0c055001 	stceq	0, cr5, [r5], {1}
    3b94:	20003004 	andcs	r3, r0, r4
    3b98:	6c120000 	ldcvs	0, cr0, [r2], {-0}
    3b9c:	3600009a 			; <UNDEFINED> instruction: 0x3600009a
    3ba0:	12000005 	andne	r0, r0, #5, 0
    3ba4:	00009a7c 	andeq	r9, r0, ip, ror sl
    3ba8:	00000536 	andeq	r0, r0, r6, lsr r5
    3bac:	47130000 	ldrmi	r0, [r3, -r0]
    3bb0:	c0000002 	andgt	r0, r0, r2
    3bb4:	14000006 	strne	r0, [r0], #-6
    3bb8:	00000248 	andeq	r0, r0, r8, asr #4
    3bbc:	0002550b 	andeq	r5, r2, fp, lsl #10
    3bc0:	009a8000 	addseq	r8, sl, r0
    3bc4:	06d80200 	ldrbeq	r0, [r8], r0, lsl #4
    3bc8:	15010000 	strne	r0, [r1, #-0]
    3bcc:	06d81517 			; <UNDEFINED> instruction: 0x06d81517
    3bd0:	660e0000 	strvs	r0, [lr], -r0
    3bd4:	1c000002 	stcne	0, cr0, [r0], {2}
    3bd8:	1a00002b 	bne	3c8c <__code_start__-0x4374>
    3bdc:	1600002b 	strne	r0, [r0], -fp, lsr #32
    3be0:	00000271 	andeq	r0, r0, r1, ror r2
    3be4:	00009a84 	andeq	r9, r0, r4, lsl #21
    3be8:	0006f801 	andeq	pc, r6, r1, lsl #16
    3bec:	120d0100 	andne	r0, sp, #0
    3bf0:	000003f1 	strdeq	r0, [r0], -r1
    3bf4:	009a8c10 	addseq	r8, sl, r0, lsl ip
    3bf8:	00052a00 	andeq	r2, r5, r0, lsl #20
    3bfc:	50011100 	andpl	r1, r1, r0, lsl #2
    3c00:	00007702 	andeq	r7, r0, r2, lsl #14
    3c04:	9a841200 	bls	fe10840c <__bss_end__+0xfe0fd364>
    3c08:	05360000 	ldreq	r0, [r6, #-0]!
    3c0c:	98120000 	ldmdals	r2, {}	; <UNPREDICTABLE>
    3c10:	3600009a 			; <UNDEFINED> instruction: 0x3600009a
    3c14:	00000005 	andeq	r0, r0, r5
    3c18:	1d000000 	stcne	0, cr0, [r0, #-0]
    3c1c:	0000020b 	andeq	r0, r0, fp, lsl #4
    3c20:	00009aa8 	andeq	r9, r0, r8, lsr #21
    3c24:	00000050 	andeq	r0, r0, r0, asr r0
    3c28:	052a9c01 	streq	r9, [sl, #-3073]!	; 0xfffff3ff
    3c2c:	180c0000 	stmdane	ip, {}	; <UNPREDICTABLE>
    3c30:	33000002 	movwcc	r0, #2
    3c34:	2f00002b 	svccs	0x0000002b
    3c38:	0d00002b 	stceq	0, cr0, [r0, #-172]	; 0xffffff54
    3c3c:	00000224 	andeq	r0, r0, r4, lsr #4
    3c40:	00009ab8 			; <UNDEFINED> instruction: 0x00009ab8
    3c44:	009ab800 	addseq	fp, sl, r0, lsl #16
    3c48:	00004000 	andeq	r4, r0, r0
    3c4c:	051c0100 	ldreq	r0, [ip, #-256]	; 0xffffff00
    3c50:	0002310c 	andeq	r3, r2, ip, lsl #2
    3c54:	002b5600 	eoreq	r5, fp, r0, lsl #12
    3c58:	002b5400 	eoreq	r5, fp, r0, lsl #8
    3c5c:	023c0e00 	eorseq	r0, ip, #0, 28
    3c60:	2b6b0000 	blcs	1ac3c68 <__bss_end__+0x1ab8bc0>
    3c64:	2b690000 	blcs	1a43c6c <__bss_end__+0x1a38bc4>
    3c68:	550f0000 	strpl	r0, [pc, #-0]	; 3c70 <__code_start__-0x4390>
    3c6c:	b8000002 	stmdalt	r0, {r1}
    3c70:	0200009a 	andeq	r0, r0, #154, 0	; 0x9a
    3c74:	00009ab8 			; <UNDEFINED> instruction: 0x00009ab8
    3c78:	00000014 	andeq	r0, r0, r4, lsl r0
    3c7c:	bc131301 	ldclt	3, cr1, [r3], {1}
    3c80:	0e000004 	cdpeq	0, 0, cr0, cr0, cr4, {0}
    3c84:	00000266 	andeq	r0, r0, r6, ror #4
    3c88:	00002b82 	andeq	r2, r0, r2, lsl #23
    3c8c:	00002b7e 	andeq	r2, r0, lr, ror fp
    3c90:	0002710f 	andeq	r7, r2, pc, lsl #2
    3c94:	009abc00 	addseq	fp, sl, r0, lsl #24
    3c98:	9abc0100 	bls	fef040a0 <__bss_end__+0xfeef8ff8>
    3c9c:	000c0000 	andeq	r0, ip, r0
    3ca0:	0d010000 	stceq	0, cr0, [r1, #-0]
    3ca4:	0004a912 	andeq	sl, r4, r2, lsl r9
    3ca8:	9ac41000 	bls	ff107cb0 <__bss_end__+0xff0fcc08>
    3cac:	052a0000 	streq	r0, [sl, #-0]!
    3cb0:	01110000 	tsteq	r1, r0
    3cb4:	040c0550 	streq	r0, [ip], #-1360	; 0xfffffab0
    3cb8:	00200030 	eoreq	r0, r0, r0, lsr r0
    3cbc:	9abc1200 	bls	fef084c4 <__bss_end__+0xfeefd41c>
    3cc0:	05360000 	ldreq	r0, [r6, #-0]!
    3cc4:	cc120000 	ldcgt	0, cr0, [r2], {-0}
    3cc8:	3600009a 			; <UNDEFINED> instruction: 0x3600009a
    3ccc:	00000005 	andeq	r0, r0, r5
    3cd0:	00024713 	andeq	r4, r2, r3, lsl r7
    3cd4:	00071000 	andeq	r1, r7, r0
    3cd8:	02481400 	subeq	r1, r8, #0, 8
    3cdc:	550b0000 	strpl	r0, [fp, #-0]
    3ce0:	d0000002 	andle	r0, r0, r2
    3ce4:	0200009a 	andeq	r0, r0, #154, 0	; 0x9a
    3ce8:	00000728 	andeq	r0, r0, r8, lsr #14
    3cec:	15171501 	ldrne	r1, [r7, #-1281]	; 0xfffffaff
    3cf0:	00000728 	andeq	r0, r0, r8, lsr #14
    3cf4:	0002660e 	andeq	r6, r2, lr, lsl #12
    3cf8:	002ba200 	eoreq	sl, fp, r0, lsl #4
    3cfc:	002ba000 	eoreq	sl, fp, r0
    3d00:	02711600 	rsbseq	r1, r1, #0, 12
    3d04:	9ad40000 	bls	ff503d0c <__bss_end__+0xff4f8c64>
    3d08:	48010000 	stmdami	r1, {}	; <UNPREDICTABLE>
    3d0c:	01000007 	tsteq	r0, r7
    3d10:	0513120d 	ldreq	r1, [r3, #-525]	; 0xfffffdf3
    3d14:	dc100000 	ldcle	0, cr0, [r0], {-0}
    3d18:	2a00009a 	bcs	3f88 <__code_start__-0x4078>
    3d1c:	11000005 	tstne	r0, r5
    3d20:	77025001 	strvc	r5, [r2, -r1]
    3d24:	12000000 	andne	r0, r0, #0, 0
    3d28:	00009ad4 	ldrdeq	r9, [r0], -r4
    3d2c:	00000536 	andeq	r0, r0, r6, lsr r5
    3d30:	009ae812 	addseq	lr, sl, r2, lsl r8
    3d34:	00053600 	andeq	r3, r5, r0, lsl #12
    3d38:	00000000 	andeq	r0, r0, r0
    3d3c:	541f0000 	ldrpl	r0, [pc], #-0	; 3d44 <__code_start__-0x42bc>
    3d40:	54000008 	strpl	r0, [r0], #-8
    3d44:	02000008 	andeq	r0, r0, #8, 0
    3d48:	2a1f0ac2 	bcs	7c6858 <__bss_end__+0x7bb7b0>
    3d4c:	2a000008 	bcs	3d74 <__code_start__-0x428c>
    3d50:	02000008 	andeq	r0, r0, #8, 0
    3d54:	cd00069c 	stcgt	6, cr0, [r0, #-624]	; 0xfffffd90
    3d58:	04000005 	streq	r0, [r0], #-5
    3d5c:	00167900 	andseq	r7, r6, r0, lsl #18
    3d60:	85010400 	strhi	r0, [r1, #-1024]	; 0xfffffc00
    3d64:	0c000009 	stceq	0, cr0, [r0], {9}
    3d68:	000008c4 	andeq	r0, r0, r4, asr #17
    3d6c:	00000935 	andeq	r0, r0, r5, lsr r9
    3d70:	00009b4c 	andeq	r9, r0, ip, asr #22
    3d74:	000001f0 	strdeq	r0, [r0], -r0	; <UNPREDICTABLE>
    3d78:	00002145 	andeq	r2, r0, r5, asr #2
    3d7c:	69050402 	stmdbvs	r5, {r1, sl}
    3d80:	0300746e 	movweq	r7, #1134	; 0x46e
    3d84:	01910704 	orrseq	r0, r1, r4, lsl #14
    3d88:	2c040000 	stccs	0, cr0, [r4], {-0}
    3d8c:	03000000 	movweq	r0, #0
    3d90:	00410601 	subeq	r0, r1, r1, lsl #12
    3d94:	02030000 	andeq	r0, r3, #0, 0
    3d98:	0001ce05 	andeq	ip, r1, r5, lsl #28
    3d9c:	05040300 	streq	r0, [r4, #-768]	; 0xfffffd00
    3da0:	000001b2 			; <UNDEFINED> instruction: 0x000001b2
    3da4:	ad050803 	stcge	8, cr0, [r5, #-12]
    3da8:	03000001 	movweq	r0, #1
    3dac:	003f0801 	eorseq	r0, pc, r1, lsl #16
    3db0:	02030000 	andeq	r0, r3, #0, 0
    3db4:	00007907 	andeq	r7, r0, r7, lsl #18
    3db8:	02780500 	rsbseq	r0, r8, #0, 10
    3dbc:	34050000 	strcc	r0, [r5], #-0
    3dc0:	00006e19 	andeq	r6, r0, r9, lsl lr
    3dc4:	07040300 	streq	r0, [r4, -r0, lsl #6]
    3dc8:	0000018c 	andeq	r0, r0, ip, lsl #3
    3dcc:	87070803 	strhi	r0, [r7, -r3, lsl #16]
    3dd0:	03000001 	movweq	r0, #1
    3dd4:	00480801 	subeq	r0, r8, r1, lsl #16
    3dd8:	07060000 	streq	r0, [r6, -r0]
    3ddc:	00005401 	andeq	r5, r0, r1, lsl #8
    3de0:	0e0c0400 	cfcpyseq	mvf0, mvf12
    3de4:	000000c2 	andeq	r0, r0, r2, asr #1
    3de8:	000a6f07 	andeq	r6, sl, r7, lsl #30
    3dec:	a7070000 	strge	r0, [r7, -r0]
    3df0:	01000008 	tsteq	r0, r8
    3df4:	0008ea07 	andeq	lr, r8, r7, lsl #20
    3df8:	f9070400 			; <UNDEFINED> instruction: 0xf9070400
    3dfc:	05000008 	streq	r0, [r0, #-8]
    3e00:	00090807 	andeq	r0, r9, r7, lsl #16
    3e04:	17070600 	strne	r0, [r7, -r0, lsl #12]
    3e08:	07000009 	streq	r0, [r0, -r9]
    3e0c:	000a3807 	andeq	r3, sl, r7, lsl #16
    3e10:	26070300 	strcs	r0, [r7], -r0, lsl #6
    3e14:	02000009 	andeq	r0, r0, #9, 0
    3e18:	08b80800 	ldmeq	r8!, {fp}
    3e1c:	022c0000 	eoreq	r0, ip, #0, 0
    3e20:	015e0806 	cmpeq	lr, r6, lsl #16
    3e24:	69090000 	stmdbvs	r9, {}	; <UNPREDICTABLE>
    3e28:	0902006f 	stmdbeq	r2, {r0, r1, r2, r3, r5, r6}
    3e2c:	00003309 	andeq	r3, r0, r9, lsl #6
    3e30:	69090000 	stmdbvs	r9, {}	; <UNPREDICTABLE>
    3e34:	02007265 	andeq	r7, r0, #1342177286	; 0x50000006
    3e38:	0033090a 	eorseq	r0, r3, sl, lsl #18
    3e3c:	09040000 	stmdbeq	r4, {}	; <UNPREDICTABLE>
    3e40:	00726969 	rsbseq	r6, r2, r9, ror #18
    3e44:	33091102 	movwcc	r1, #37122	; 0x9102
    3e48:	08000000 	stmdaeq	r0, {}	; <UNPREDICTABLE>
    3e4c:	72636c09 	rsbvc	r6, r3, #2304	; 0x900
    3e50:	09130200 	ldmdbeq	r3, {r9}
    3e54:	00000033 	andeq	r0, r0, r3, lsr r0
    3e58:	636d090c 	cmnvs	sp, #12, 18	; 0x30000
    3e5c:	14020072 	strne	r0, [r2], #-114	; 0xffffff8e
    3e60:	00003309 	andeq	r3, r0, r9, lsl #6
    3e64:	6c091000 	stcvs	0, cr1, [r9], {-0}
    3e68:	02007273 	andeq	r7, r0, #805306375	; 0x30000007
    3e6c:	00330915 	eorseq	r0, r3, r5, lsl r9
    3e70:	09140000 	ldmdbeq	r4, {}	; <UNPREDICTABLE>
    3e74:	0072736d 	rsbseq	r7, r2, sp, ror #6
    3e78:	33091602 	movwcc	r1, #38402	; 0x9602
    3e7c:	18000000 	stmdane	r0, {}	; <UNPREDICTABLE>
    3e80:	000a4f0a 	andeq	r4, sl, sl, lsl #30
    3e84:	09170200 	ldmdbeq	r7, {r9}
    3e88:	00000033 	andeq	r0, r0, r3, lsr r0
    3e8c:	0a180a1c 	beq	606704 <__bss_end__+0x5fb65c>
    3e90:	1b020000 	blne	83e98 <__bss_end__+0x78df0>
    3e94:	00003309 	andeq	r3, r0, r9, lsl #6
    3e98:	940a2000 	strls	r2, [sl], #-0
    3e9c:	02000008 	andeq	r0, r0, #8, 0
    3ea0:	0033091d 	eorseq	r0, r3, sp, lsl r9
    3ea4:	0a240000 	beq	903eac <__bss_end__+0x8f8e04>
    3ea8:	0000096a 	andeq	r0, r0, sl, ror #18
    3eac:	33091e02 	movwcc	r1, #40450	; 0x9e02
    3eb0:	28000000 	stmdacs	r0, {}	; <UNPREDICTABLE>
    3eb4:	096f0b00 	stmdbeq	pc!, {r8, r9, fp}^	; <UNPREDICTABLE>
    3eb8:	08010000 	stmdaeq	r1, {}	; <UNPREDICTABLE>
    3ebc:	00017409 	andeq	r7, r1, r9, lsl #8
    3ec0:	21500400 	cmpcs	r0, r0, lsl #8
    3ec4:	33040c20 	movwcc	r0, #19488	; 0x4c20
    3ec8:	0d000000 	stceq	0, cr0, [r0, #-0]
    3ecc:	0000016e 	andeq	r0, r0, lr, ror #2
    3ed0:	000a570b 	andeq	r5, sl, fp, lsl #14
    3ed4:	23290100 			; <UNDEFINED> instruction: 0x23290100
    3ed8:	0000018f 	andeq	r0, r0, pc, lsl #3
    3edc:	20215040 	eorcs	r5, r1, r0, asr #32
    3ee0:	00c2040c 	sbceq	r0, r2, ip, lsl #8
    3ee4:	890d0000 	stmdbhi	sp, {}	; <UNPREDICTABLE>
    3ee8:	0e000001 	cdpeq	0, 0, cr0, cr0, cr1, {0}
    3eec:	00000742 	andeq	r0, r0, r2, asr #14
    3ef0:	0406cc01 	streq	ip, [r6], #-3073	; 0xfffff3ff
    3ef4:	1400009d 	strne	r0, [r0], #-157	; 0xffffff63
    3ef8:	01000000 	mrseq	r0, (UNDEF: 0)
    3efc:	0001b49c 	muleq	r1, ip, r4
    3f00:	9d0c0f00 	stcls	15, cr0, [ip, #-0]
    3f04:	01b40000 			; <UNDEFINED> instruction: 0x01b40000
    3f08:	10000000 	andne	r0, r0, r0
    3f0c:	000008d9 	ldrdeq	r0, [r0], -r9
    3f10:	2505b601 	strcs	fp, [r5, #-1537]	; 0xfffff9ff
    3f14:	e4000000 	str	r0, [r0], #-0
    3f18:	2000009c 	mulcs	r0, ip, r0
    3f1c:	01000000 	mrseq	r0, (UNDEF: 0)
    3f20:	0001eb9c 	muleq	r1, ip, fp
    3f24:	9cec0f00 	stclls	15, cr0, [ip]
    3f28:	05a00000 	streq	r0, [r0, #0]!
    3f2c:	f4110000 			; <UNDEFINED> instruction: 0xf4110000
    3f30:	ac00009c 	stcge	0, cr0, [r0], {156}	; 0x9c
    3f34:	12000005 	andne	r0, r0, #5, 0
    3f38:	0c055001 	stceq	0, cr5, [r5], {1}
    3f3c:	20215064 	eorcs	r5, r1, r4, rrx
    3f40:	2a100000 	bcs	403f48 <__bss_end__+0x3f8ea0>
    3f44:	0100000a 	tsteq	r0, sl
    3f48:	002505b3 	strhteq	r0, [r5], -r3
    3f4c:	9cd40000 	ldclls	0, cr0, [r4], {0}
    3f50:	00100000 	andseq	r0, r0, r0
    3f54:	9c010000 	stcls	0, cr0, [r1], {-0}
    3f58:	00000218 	andeq	r0, r0, r8, lsl r2
    3f5c:	009cdc0f 	addseq	sp, ip, pc, lsl #24
    3f60:	0005a000 	andeq	sl, r5, r0
    3f64:	9ce00f00 	stclls	15, cr0, [r0]
    3f68:	03090000 	movweq	r0, #36864	; 0x9000
    3f6c:	0e000000 	cdpeq	0, 0, cr0, cr0, cr0, {0}
    3f70:	00000a65 	andeq	r0, r0, r5, ror #20
    3f74:	a406ab01 	strge	sl, [r6], #-2817	; 0xfffff4ff
    3f78:	3000009c 	mulcc	r0, ip, r0
    3f7c:	01000000 	mrseq	r0, (UNDEF: 0)
    3f80:	00027c9c 	muleq	r2, ip, ip
    3f84:	00631300 	rsbeq	r1, r3, r0, lsl #6
    3f88:	2c19ab01 			; <UNDEFINED> instruction: 0x2c19ab01
    3f8c:	b9000000 	stmdblt	r0, {}	; <UNPREDICTABLE>
    3f90:	b500002b 	strlt	r0, [r0, #-43]	; 0xffffffd5
    3f94:	0f00002b 	svceq	0x0000002b
    3f98:	00009cb0 			; <UNDEFINED> instruction: 0x00009cb0
    3f9c:	000005a0 	andeq	r0, r0, r0, lsr #11
    3fa0:	009cb40f 	addseq	fp, ip, pc, lsl #8
    3fa4:	0002db00 	andeq	sp, r2, r0, lsl #22
    3fa8:	9cc81400 	cfstrdls	mvd1, [r8], {0}
    3fac:	05b80000 	ldreq	r0, [r8, #0]!
    3fb0:	02720000 	rsbseq	r0, r2, #0, 0
    3fb4:	01120000 	tsteq	r2, r0
    3fb8:	400c0550 	andmi	r0, ip, r0, asr r5
    3fbc:	12202150 	eorne	r2, r0, #20
    3fc0:	74055101 	strvc	r5, [r5], #-257	; 0xfffffeff
    3fc4:	1aff0800 	bne	fffc5fcc <__bss_end__+0xfffbaf24>
    3fc8:	9ccc0f00 	stclls	15, cr0, [ip], {0}
    3fcc:	05a00000 	streq	r0, [r0, #0]!
    3fd0:	10000000 	andne	r0, r0, r0
    3fd4:	0000097b 	andeq	r0, r0, fp, ror r9
    3fd8:	2505a301 	strcs	sl, [r5, #-769]	; 0xfffffcff
    3fdc:	74000000 	strvc	r0, [r0], #-0
    3fe0:	3000009c 	mulcc	r0, ip, r0
    3fe4:	01000000 	mrseq	r0, (UNDEF: 0)
    3fe8:	0002db9c 	muleq	r2, ip, fp
    3fec:	00631500 	rsbeq	r1, r3, r0, lsl #10
    3ff0:	2509a701 	strcs	sl, [r9, #-1793]	; 0xfffff8ff
    3ff4:	d9000000 	stmdble	r0, {}	; <UNPREDICTABLE>
    3ff8:	d700002b 	strle	r0, [r0, -fp, lsr #32]
    3ffc:	0f00002b 	svceq	0x0000002b
    4000:	00009c7c 	andeq	r9, r0, ip, ror ip
    4004:	000005a0 	andeq	r0, r0, r0, lsr #11
    4008:	009c800f 	addseq	r8, ip, pc
    400c:	00030900 	andeq	r0, r3, r0, lsl #18
    4010:	9c901400 	cfldrsls	mvf1, [r0], {0}
    4014:	05ac0000 	streq	r0, [ip, #0]!
    4018:	02d10000 	sbcseq	r0, r1, #0, 0
    401c:	01120000 	tsteq	r2, r0
    4020:	400c0550 	andmi	r0, ip, r0, asr r5
    4024:	00202150 	eoreq	r2, r0, r0, asr r1
    4028:	009c980f 	addseq	r9, ip, pc, lsl #16
    402c:	0005a000 	andeq	sl, r5, r0
    4030:	cb100000 	blgt	404038 <__bss_end__+0x3f8f90>
    4034:	01000008 	tsteq	r0, r8
    4038:	00250594 	mlaeq	r5, r4, r5, r0
    403c:	9c540000 	mrals	r0, r4, acc0
    4040:	00200000 	eoreq	r0, r0, r0
    4044:	9c010000 	stcls	0, cr0, [r1], {-0}
    4048:	00000309 	andeq	r0, r0, r9, lsl #6
    404c:	009c6011 	addseq	r6, ip, r1, lsl r0
    4050:	0005ac00 	andeq	sl, r5, r0, lsl #24
    4054:	50011200 	andpl	r1, r1, r0, lsl #4
    4058:	50640c05 	rsbpl	r0, r4, r5, lsl #24
    405c:	00002021 	andeq	r2, r0, r1, lsr #32
    4060:	00089910 	andeq	r9, r8, r0, lsl r9
    4064:	058b0100 	streq	r0, [fp, #256]	; 0x100
    4068:	00000025 	andeq	r0, r0, r5, lsr #32
    406c:	00009c3c 	andeq	r9, r0, ip, lsr ip
    4070:	00000018 	andeq	r0, r0, r8, lsl r0
    4074:	03379c01 	teqeq	r7, #256	; 0x100
    4078:	48110000 	ldmdami	r1, {}	; <UNPREDICTABLE>
    407c:	ac00009c 	stcge	0, cr0, [r0], {156}	; 0x9c
    4080:	12000005 	andne	r0, r0, #5, 0
    4084:	0c055001 	stceq	0, cr5, [r5], {1}
    4088:	20215064 	eorcs	r5, r1, r4, rrx
    408c:	600e0000 	andvs	r0, lr, r0
    4090:	01000007 	tsteq	r0, r7
    4094:	9b8c0645 	blls	fe3059b0 <__bss_end__+0xfe2fa908>
    4098:	00b00000 	adcseq	r0, r0, r0
    409c:	9c010000 	stcls	0, cr0, [r1], {-0}
    40a0:	00000484 	andeq	r0, r0, r4, lsl #9
    40a4:	00088b16 	andeq	r8, r8, r6, lsl fp
    40a8:	0e7e0100 	rpweqe	f0, f6, f0
    40ac:	00000062 	andeq	r0, r0, r2, rrx
    40b0:	9c14010e 	ldflss	f0, [r4], {14}
    40b4:	c400009b 	strgt	r0, [r0], #-155	; 0xffffff65
    40b8:	73000005 	movwvc	r0, #5
    40bc:	12000003 	andne	r0, r0, #3, 0
    40c0:	3e015001 	cdpcc	0, 0, cr5, cr1, cr1, {0}
    40c4:	01510112 	cmpeq	r1, r2, lsl r1
    40c8:	a8140032 	ldmdage	r4, {r1, r4, r5}
    40cc:	c400009b 	strgt	r0, [r0], #-155	; 0xffffff65
    40d0:	8b000005 	blhi	40ec <__code_start__-0x3f14>
    40d4:	12000003 	andne	r0, r0, #3, 0
    40d8:	3f015001 	svccc	0x00015001
    40dc:	01510112 	cmpeq	r1, r2, lsl r1
    40e0:	ac0f0032 	stcge	0, cr0, [pc], {50}	; 0x32
    40e4:	a000009b 	mulge	r0, fp, r0
    40e8:	14000005 	strne	r0, [r0], #-5
    40ec:	00009bb8 			; <UNDEFINED> instruction: 0x00009bb8
    40f0:	0000053d 	andeq	r0, r0, sp, lsr r5
    40f4:	000003b0 			; <UNDEFINED> instruction: 0x000003b0
    40f8:	05500112 	ldrbeq	r0, [r0, #-274]	; 0xfffffeee
    40fc:	2150040c 	cmpcs	r0, ip, lsl #8
    4100:	51011220 	tstpl	r1, r0, lsr #4
    4104:	0f003101 	svceq	0x00003101
    4108:	00009bbc 			; <UNDEFINED> instruction: 0x00009bbc
    410c:	000005a0 	andeq	r0, r0, r0, lsr #11
    4110:	009bcc14 	addseq	ip, fp, r4, lsl ip
    4114:	0005b800 	andeq	fp, r5, r0, lsl #16
    4118:	0003d200 	andeq	sp, r3, r0, lsl #4
    411c:	50011200 	andpl	r1, r1, r0, lsl #4
    4120:	12007402 	andne	r7, r0, #33554432	; 0x2000000
    4124:	30015101 	andcc	r5, r1, r1, lsl #2
    4128:	9bd81400 	blls	ff609130 <__bss_end__+0xff5fe088>
    412c:	05b80000 	ldreq	r0, [r8, #0]!
    4130:	03ee0000 	mvneq	r0, #0, 0
    4134:	01120000 	tsteq	r2, r0
    4138:	440c0550 	strmi	r0, [ip], #-1360	; 0xfffffab0
    413c:	12202150 	eorne	r2, r0, #20
    4140:	30015101 	andcc	r5, r1, r1, lsl #2
    4144:	9be41400 	blls	ff90914c <__bss_end__+0xff8fe0a4>
    4148:	05b80000 	ldreq	r0, [r8, #0]!
    414c:	040a0000 	streq	r0, [sl], #-0
    4150:	01120000 	tsteq	r2, r0
    4154:	4c0c0550 	cfstr32mi	mvfx0, [ip], {80}	; 0x50
    4158:	12202150 	eorne	r2, r0, #20
    415c:	33015101 	movwcc	r5, #4353	; 0x1101
    4160:	9bf01400 	blls	ffc09168 <__bss_end__+0xffbfe0c0>
    4164:	05b80000 	ldreq	r0, [r8, #0]!
    4168:	04260000 	strteq	r0, [r6], #-0
    416c:	01120000 	tsteq	r2, r0
    4170:	500c0550 	andpl	r0, ip, r0, asr r5
    4174:	12202150 	eorne	r2, r0, #20
    4178:	30015101 	andcc	r5, r1, r1, lsl #2
    417c:	9bfc1400 	blls	fff09184 <__bss_end__+0xffefe0dc>
    4180:	05b80000 	ldreq	r0, [r8, #0]!
    4184:	04430000 	strbeq	r0, [r3], #-0
    4188:	01120000 	tsteq	r2, r0
    418c:	480c0550 	stmdami	ip, {r4, r6, r8, sl}
    4190:	12202150 	eorne	r2, r0, #20
    4194:	08025101 	stmdaeq	r2, {r0, r8, ip, lr}
    4198:	081400c7 	ldmdaeq	r4, {r0, r1, r2, r6, r7}
    419c:	b800009c 	stmdalt	r0, {r2, r3, r4, r7}
    41a0:	61000005 	tstvs	r0, r5
    41a4:	12000004 	andne	r0, r0, #4, 0
    41a8:	0c055001 	stceq	0, cr5, [r5], {1}
    41ac:	20215068 	eorcs	r5, r1, r8, rrx
    41b0:	03510112 	cmpeq	r1, #-2147483644	; 0x80000004
    41b4:	00010e0a 	andeq	r0, r1, sl, lsl #28
    41b8:	009c1414 	addseq	r1, ip, r4, lsl r4
    41bc:	0005b800 	andeq	fp, r5, r0, lsl #16
    41c0:	00047a00 	andeq	r7, r4, r0, lsl #20
    41c4:	50011200 	andpl	r1, r1, r0, lsl #4
    41c8:	12007402 	andne	r7, r0, #33554432	; 0x2000000
    41cc:	33015101 	movwcc	r5, #4353	; 0x1101
    41d0:	9c180f00 	ldcls	15, cr0, [r8], {-0}
    41d4:	05a00000 	streq	r0, [r0, #0]!
    41d8:	0e000000 	cdpeq	0, 0, cr0, cr0, cr0, {0}
    41dc:	00000a1d 	andeq	r0, r0, sp, lsl sl
    41e0:	18063501 	stmdane	r6, {r0, r8, sl, ip, sp}
    41e4:	2400009d 	strcs	r0, [r0], #-157	; 0xffffff63
    41e8:	01000000 	mrseq	r0, (UNDEF: 0)
    41ec:	0004d39c 	muleq	r4, ip, r3
    41f0:	9d200f00 	stcls	15, cr0, [r0, #-0]
    41f4:	01940000 	orrseq	r0, r4, r0
    41f8:	240f0000 	strcs	r0, [pc], #-0	; 4200 <__code_start__-0x3e00>
    41fc:	a000009d 	mulge	r0, sp, r0
    4200:	14000005 	strne	r0, [r0], #-5
    4204:	00009d30 	andeq	r9, r0, r0, lsr sp
    4208:	000004d3 	ldrdeq	r0, [r0], -r3
    420c:	000004c9 	andeq	r0, r0, r9, asr #9
    4210:	05500112 	ldrbeq	r0, [r0, #-274]	; 0xfffffeee
    4214:	2150040c 	cmpcs	r0, ip, lsl #8
    4218:	51011220 	tstpl	r1, r0, lsr #4
    421c:	00fe0902 	rscseq	r0, lr, r2, lsl #18
    4220:	009d340f 	addseq	r3, sp, pc, lsl #8
    4224:	0005a000 	andeq	sl, r5, r0
    4228:	5c170000 	ldcpl	0, cr0, [r7], {-0}
    422c:	0100000a 	tsteq	r0, sl
    4230:	9b4c0d31 	blls	13076fc <__bss_end__+0x12fc654>
    4234:	00200000 	eoreq	r0, r0, r0
    4238:	9c010000 	stcls	0, cr0, [r1], {-0}
    423c:	00000536 	andeq	r0, r0, r6, lsr r5
    4240:	000ab618 	andeq	fp, sl, r8, lsl r6
    4244:	25310100 	ldrcs	r0, [r1, #-256]!	; 0xffffff00
    4248:	00000536 	andeq	r0, r0, r6, lsr r5
    424c:	00002bf0 	strdeq	r2, [r0], -r0
    4250:	00002bec 	andeq	r2, r0, ip, ror #23
    4254:	6c617613 	stclvs	6, cr7, [r1], #-76	; 0xffffffb4
    4258:	34310100 	ldrtcc	r0, [r1], #-256	; 0xffffff00
    425c:	0000002c 	andeq	r0, r0, ip, lsr #32
    4260:	00002c12 	andeq	r2, r0, r2, lsl ip
    4264:	00002c0e 	andeq	r2, r0, lr, lsl #24
    4268:	009b5c14 	addseq	r5, fp, r4, lsl ip
    426c:	0005ac00 	andeq	sl, r5, r0, lsl #24
    4270:	00052500 	andeq	r2, r5, r0, lsl #10
    4274:	50011200 	andpl	r1, r1, r0, lsl #4
    4278:	00007402 	andeq	r7, r0, r2, lsl #8
    427c:	009b6811 	addseq	r6, fp, r1, lsl r8
    4280:	0005b800 	andeq	fp, r5, r0, lsl #16
    4284:	50011200 	andpl	r1, r1, r0, lsl #4
    4288:	00007402 	andeq	r7, r0, r2, lsl #8
    428c:	3c040c00 	stccc	12, cr0, [r4], {-0}
    4290:	19000005 	stmdbne	r0, {r0, r2}
    4294:	000a4717 	andeq	r4, sl, r7, lsl r7
    4298:	0d2e0100 	stfeqs	f0, [lr, #-0]
    429c:	00009b6c 	andeq	r9, r0, ip, ror #22
    42a0:	00000020 	andeq	r0, r0, r0, lsr #32
    42a4:	05a09c01 	streq	r9, [r0, #3073]!	; 0xc01
    42a8:	b6180000 	ldrlt	r0, [r8], -r0
    42ac:	0100000a 	tsteq	r0, sl
    42b0:	0536242e 	ldreq	r2, [r6, #-1070]!	; 0xfffffbd2
    42b4:	2c340000 	ldccs	0, cr0, [r4], #-0
    42b8:	2c300000 	ldccs	0, cr0, [r0], #-0
    42bc:	76130000 	ldrvc	r0, [r3], -r0
    42c0:	01006c61 	tsteq	r0, r1, ror #24
    42c4:	002c332e 	eoreq	r3, ip, lr, lsr #6
    42c8:	2c560000 	mracs	r0, r6, acc0
    42cc:	2c520000 	mracs	r0, r2, acc0
    42d0:	7c140000 	ldcvc	0, cr0, [r4], {-0}
    42d4:	ac00009b 	stcge	0, cr0, [r0], {155}	; 0x9b
    42d8:	8f000005 	svchi	0x00000005
    42dc:	12000005 	andne	r0, r0, #5, 0
    42e0:	74025001 	strvc	r5, [r2], #-1
    42e4:	88110000 	ldmdahi	r1, {}	; <UNPREDICTABLE>
    42e8:	b800009b 	stmdalt	r0, {r0, r1, r3, r4, r7}
    42ec:	12000005 	andne	r0, r0, #5, 0
    42f0:	74025001 	strvc	r5, [r2], #-1
    42f4:	1a000000 	bne	42fc <__code_start__-0x3d04>
    42f8:	0000082a 	andeq	r0, r0, sl, lsr #16
    42fc:	0000082a 	andeq	r0, r0, sl, lsr #16
    4300:	1a069c03 	bne	1ab314 <__bss_end__+0x1a026c>
    4304:	00000a91 	muleq	r0, r1, sl
    4308:	00000a91 	muleq	r0, r1, sl
    430c:	1a0bc303 	bne	2f4f20 <__bss_end__+0x2e9e78>
    4310:	00000885 	andeq	r0, r0, r5, lsl #17
    4314:	00000885 	andeq	r0, r0, r5, lsl #17
    4318:	1a06ae03 	bne	1afb2c <__bss_end__+0x1a4a84>
    431c:	00000a7f 	andeq	r0, r0, pc, ror sl
    4320:	00000a7f 	andeq	r0, r0, pc, ror sl
    4324:	00061904 	andeq	r1, r6, r4, lsl #18
    4328:	000008e9 	andeq	r0, r0, r9, ror #17
    432c:	18110004 	ldmdane	r1, {r2}
    4330:	01040000 	mrseq	r0, (UNDEF: 4)
    4334:	00000985 	andeq	r0, r0, r5, lsl #19
    4338:	000b210c 	andeq	r2, fp, ip, lsl #2
    433c:	00093500 	andeq	r3, r9, r0, lsl #10
    4340:	009d3c00 	addseq	r3, sp, r0, lsl #24
    4344:	0003b000 	andeq	fp, r3, r0
    4348:	00234d00 	eoreq	r4, r3, r0, lsl #26
    434c:	05040200 	streq	r0, [r4, #-512]	; 0xfffffe00
    4350:	00746e69 	rsbseq	r6, r4, r9, ror #28
    4354:	91070403 	tstls	r7, r3, lsl #8
    4358:	03000001 	movweq	r0, #1
    435c:	00410601 	subeq	r0, r1, r1, lsl #12
    4360:	02030000 	andeq	r0, r3, #0, 0
    4364:	0001ce05 	andeq	ip, r1, r5, lsl #28
    4368:	05040300 	streq	r0, [r4, #-768]	; 0xfffffd00
    436c:	000001b2 			; <UNDEFINED> instruction: 0x000001b2
    4370:	ad050803 	stcge	8, cr0, [r5, #-12]
    4374:	03000001 	movweq	r0, #1
    4378:	003f0801 	eorseq	r0, pc, r1, lsl #16
    437c:	02030000 	andeq	r0, r3, #0, 0
    4380:	00007907 	andeq	r7, r0, r7, lsl #18
    4384:	02780400 	rsbseq	r0, r8, #0, 8
    4388:	34030000 	strcc	r0, [r3], #-0
    438c:	00006919 	andeq	r6, r0, r9, lsl r9
    4390:	07040300 	streq	r0, [r4, -r0, lsl #6]
    4394:	0000018c 	andeq	r0, r0, ip, lsl #3
    4398:	87070803 	strhi	r0, [r7, -r3, lsl #16]
    439c:	03000001 	movweq	r0, #1
    43a0:	00480801 	subeq	r0, r8, r1, lsl #16
    43a4:	77050000 	strvc	r0, [r5, -r0]
    43a8:	03000000 	movweq	r0, #0
    43ac:	03340408 	teqeq	r4, #8, 8	; 0x8000000
    43b0:	04060000 	streq	r0, [r6], #-0
    43b4:	2c040707 	stccs	7, cr0, [r4], {7}
    43b8:	01000000 	mrseq	r0, (UNDEF: 0)
    43bc:	00a4061f 	adceq	r0, r4, pc, lsl r6
    43c0:	bb080000 	bllt	2043c8 <__bss_end__+0x1f9320>
    43c4:	0000000a 	andeq	r0, r0, sl
    43c8:	00002000 	andeq	r2, r0, r0
    43cc:	00068b09 	andeq	r8, r6, r9, lsl #22
    43d0:	0d220100 	stfeqs	f0, [r2, #-0]
    43d4:	00000077 	andeq	r0, r0, r7, ror r0
    43d8:	0004290a 	andeq	r2, r4, sl, lsl #18
    43dc:	0e230100 	sufeqs	f0, f3, f0
    43e0:	000000c2 	andeq	r0, r0, r2, asr #1
    43e4:	ac6c0305 	stclge	3, cr0, [ip], #-20	; 0xffffffec
    43e8:	040b0000 	streq	r0, [fp], #-0
    43ec:	00000077 	andeq	r0, r0, r7, ror r0
    43f0:	000a9f0a 	andeq	r9, sl, sl, lsl #30
    43f4:	0e240100 	sufeqs	f0, f4, f0
    43f8:	000000c2 	andeq	r0, r0, r2, asr #1
    43fc:	ac700305 	ldclge	3, cr0, [r0], #-20	; 0xffffffec
    4400:	000a0000 	andeq	r0, sl, r0
    4404:	0100000b 	tsteq	r0, fp
    4408:	00c20e25 	sbceq	r0, r2, r5, lsr #28
    440c:	03050000 	movweq	r0, #20480	; 0x5000
    4410:	0000ac74 	andeq	sl, r0, r4, ror ip
    4414:	000ad60c 	andeq	sp, sl, ip, lsl #12
    4418:	06750100 	ldrbteq	r0, [r5], -r0, lsl #2
    441c:	0000a08c 	andeq	sl, r0, ip, lsl #1
    4420:	00000060 	andeq	r0, r0, r0, rrx
    4424:	01649c01 	cmneq	r4, r1, lsl #24
    4428:	700d0000 	andvc	r0, sp, r0
    442c:	16750100 	ldrbtne	r0, [r5], -r0, lsl #2
    4430:	0000008a 	andeq	r0, r0, sl, lsl #1
    4434:	00002c7a 	andeq	r2, r0, sl, ror ip
    4438:	00002c74 	andeq	r2, r0, r4, ror ip
    443c:	00017a0e 	andeq	r7, r1, lr, lsl #20
    4440:	00017400 	andeq	r7, r1, r0, lsl #8
    4444:	58030500 	stmdapl	r3, {r8, sl}
    4448:	0f0000ac 	svceq	0x000000ac
    444c:	0000a0d8 	ldrdeq	sl, [r0], -r8
    4450:	000008bc 			; <UNDEFINED> instruction: 0x000008bc
    4454:	0000015a 	andeq	r0, r0, sl, asr r1
    4458:	05500110 	ldrbeq	r0, [r0, #-272]	; 0xfffffef0
    445c:	00abd003 	adceq	sp, fp, r3
    4460:	51011000 	mrspl	r1, (UNDEF: 1)
    4464:	aa680305 	bge	1a05080 <__bss_end__+0x19f9fd8>
    4468:	01100000 	tsteq	r0, r0
    446c:	58030552 	stmdapl	r3, {r1, r4, r6, r8, sl}
    4470:	100000ac 	andne	r0, r0, ip, lsr #1
    4474:	08025301 	stmdaeq	r2, {r0, r8, r9, ip, lr}
    4478:	7d021077 	stcvc	0, cr1, [r2, #-476]	; 0xfffffe24
    447c:	01f30300 	mvnseq	r0, r0, lsl #6
    4480:	dc110050 	ldcle	0, cr0, [r1], {80}	; 0x50
    4484:	c80000a0 	stmdagt	r0, {r5, r7}
    4488:	00000008 	andeq	r0, r0, r8
    448c:	00007e12 	andeq	r7, r0, r2, lsl lr
    4490:	00017400 	andeq	r7, r1, r0, lsl #8
    4494:	002c1300 	eoreq	r1, ip, r0, lsl #6
    4498:	00090000 	andeq	r0, r9, r0
    449c:	00016405 	andeq	r6, r1, r5, lsl #8
    44a0:	0ac41400 	beq	ff1094a8 <__bss_end__+0xff0fe400>
    44a4:	72010000 	andvc	r0, r1, #0, 0
    44a8:	00a07806 	adceq	r7, r0, r6, lsl #16
    44ac:	00001400 	andeq	r1, r0, r0, lsl #8
    44b0:	0c9c0100 	ldfeqs	f0, [ip], {0}
    44b4:	000001c8 	andeq	r0, r0, r8, asr #3
    44b8:	74066f01 	strvc	r6, [r6], #-3841	; 0xfffff0ff
    44bc:	040000a0 	streq	r0, [r0], #-160	; 0xffffff60
    44c0:	01000000 	mrseq	r0, (UNDEF: 0)
    44c4:	0001ae9c 	muleq	r1, ip, lr
    44c8:	00701500 	rsbseq	r1, r0, r0, lsl #10
    44cc:	8a126f01 	bhi	4a00d8 <__bss_end__+0x495030>
    44d0:	01000000 	mrseq	r0, (UNDEF: 0)
    44d4:	63160050 	tstvs	r6, #80, 0	; 0x50
    44d8:	0100000b 	tsteq	r0, fp
    44dc:	008a075e 	addeq	r0, sl, lr, asr r7
    44e0:	9f5c0000 	svcls	0x005c0000
    44e4:	01180000 	tsteq	r8, r0
    44e8:	9c010000 	stcls	0, cr0, [r1], {-0}
    44ec:	0000042c 	andeq	r0, r0, ip, lsr #8
    44f0:	0002ea17 	andeq	lr, r2, r7, lsl sl
    44f4:	205e0100 	subscs	r0, lr, r0, lsl #2
    44f8:	0000002c 	andeq	r0, r0, ip, lsr #32
    44fc:	00002cbb 			; <UNDEFINED> instruction: 0x00002cbb
    4500:	00002ca7 	andeq	r2, r0, r7, lsr #25
    4504:	000ae017 	andeq	lr, sl, r7, lsl r0
    4508:	315e0100 	cmpcc	lr, r0, lsl #2
    450c:	0000002c 	andeq	r0, r0, ip, lsr #32
    4510:	00002d54 	andeq	r2, r0, r4, asr sp
    4514:	00002d40 	andeq	r2, r0, r0, asr #26
    4518:	00017a0e 	andeq	r7, r1, lr, lsl #20
    451c:	00043c00 	andeq	r3, r4, r0, lsl #24
    4520:	40030500 	andmi	r0, r3, r0, lsl #10
    4524:	180000ac 	stmdane	r0, {r2, r3, r5, r7}
    4528:	66010068 	strvs	r0, [r1], -r8, rrx
    452c:	00002c0e 	andeq	r2, r0, lr, lsl #24
    4530:	002e0a00 	eoreq	r0, lr, r0, lsl #20
    4534:	002dfe00 	eoreq	pc, sp, r0, lsl #28
    4538:	08541900 	ldmdaeq	r4, {r8, fp, ip}^
    453c:	9f6c0000 	svcls	0x006c0000
    4540:	6c040000 	stcvs	0, cr0, [r4], {-0}
    4544:	0400009f 	streq	r0, [r0], #-159	; 0xffffff61
    4548:	01000000 	mrseq	r0, (UNDEF: 0)
    454c:	02380560 	eorseq	r0, r8, #96, 10	; 0x18000000
    4550:	651a0000 	ldrvs	r0, [sl, #-0]
    4554:	5e000008 	cdppl	0, 0, cr0, cr0, cr8, {0}
    4558:	5c00002e 	stcpl	0, cr0, [r0], {46}	; 0x2e
    455c:	0000002e 	andeq	r0, r0, lr, lsr #32
    4560:	00089619 	andeq	r9, r8, r9, lsl r6
    4564:	009f7800 	addseq	r7, pc, r0, lsl #16
    4568:	9f780200 	svcls	0x00780200
    456c:	00080000 	andeq	r0, r8, r0
    4570:	61010000 	mrsvs	r0, (UNDEF: 1)
    4574:	00026c11 	andeq	r6, r2, r1, lsl ip
    4578:	08b11a00 	ldmeq	r1!, {r9, fp, ip}
    457c:	2e730000 	cdpcs	0, 7, cr0, cr3, cr0, {0}
    4580:	2e710000 	cdpcs	0, 7, cr0, cr1, cr0, {0}
    4584:	a71a0000 	ldrge	r0, [sl, -r0]
    4588:	89000008 	stmdbhi	r0, {r3}
    458c:	8700002e 	strhi	r0, [r0, -lr, lsr #32]
    4590:	0000002e 	andeq	r0, r0, lr, lsr #32
    4594:	00081f1b 	andeq	r1, r8, fp, lsl pc
    4598:	009f8800 	addseq	r8, pc, r0, lsl #16
    459c:	07e00100 	strbeq	r0, [r0, r0, lsl #2]!
    45a0:	67010000 	strvs	r0, [r1, -r0]
    45a4:	00030a09 	andeq	r0, r3, r9, lsl #20
    45a8:	083a1a00 	ldmdaeq	sl!, {r9, fp, ip}
    45ac:	2ea20000 	cdpcs	0, 10, cr0, cr2, cr0, {0}
    45b0:	2e9c0000 	cdpcs	0, 9, cr0, cr12, cr0, {0}
    45b4:	301a0000 	andscc	r0, sl, r0
    45b8:	e9000008 	stmdb	r0, {r3}
    45bc:	e100002e 	tst	r0, lr, lsr #32
    45c0:	1c00002e 	stcne	0, cr0, [r0], {46}	; 0x2e
    45c4:	000007e0 	andeq	r0, r0, r0, ror #15
    45c8:	00085419 	andeq	r5, r8, r9, lsl r4
    45cc:	009f8800 	addseq	r8, pc, r0, lsl #16
    45d0:	9f880400 	svcls	0x00880400
    45d4:	00040000 	andeq	r0, r4, r0
    45d8:	11010000 	mrsne	r0, (UNDEF: 1)
    45dc:	0002c705 	andeq	ip, r2, r5, lsl #14
    45e0:	08651a00 	stmdaeq	r5!, {r9, fp, ip}^
    45e4:	2f270000 	svccs	0x00270000
    45e8:	2f250000 	svccs	0x00250000
    45ec:	0f000000 	svceq	0x00000000
    45f0:	0000a020 	andeq	sl, r0, r0, lsr #32
    45f4:	000008bc 			; <UNDEFINED> instruction: 0x000008bc
    45f8:	000002ff 	strdeq	r0, [r0], -pc	; <UNPREDICTABLE>
    45fc:	05500110 	ldrbeq	r0, [r0, #-272]	; 0xfffffef0
    4600:	00a4d403 	adceq	sp, r4, r3, lsl #8
    4604:	51011000 	mrspl	r1, (UNDEF: 1)
    4608:	aa680305 	bge	1a05224 <__bss_end__+0x19fa17c>
    460c:	01100000 	tsteq	r0, r0
    4610:	50030552 	andpl	r0, r3, r2, asr r5
    4614:	100000ac 	andne	r0, r0, ip, lsr #1
    4618:	41015301 	tstmi	r1, r1, lsl #6
    461c:	007d0210 	rsbseq	r0, sp, r0, lsl r2
    4620:	ab7c0305 	blge	1f0523c <__bss_end__+0x1efa194>
    4624:	11000000 	mrsne	r0, (UNDEF: 0)
    4628:	0000a024 	andeq	sl, r0, r4, lsr #32
    462c:	000008c8 	andeq	r0, r0, r8, asr #17
    4630:	70190000 	andsvc	r0, r9, r0
    4634:	a0000008 	andge	r0, r0, r8
    4638:	0300009f 	movweq	r0, #159	; 0x9f
    463c:	00009fa0 	andeq	r9, r0, r0, lsr #31
    4640:	00000004 	andeq	r0, r0, r4
    4644:	3e056801 	cdpcc	8, 0, cr6, cr5, cr1, {0}
    4648:	1a000003 	bne	465c <__code_start__-0x39a4>
    464c:	0000088b 	andeq	r0, r0, fp, lsl #17
    4650:	00002f3c 	andeq	r2, r0, ip, lsr pc
    4654:	00002f3a 	andeq	r2, r0, sl, lsr pc
    4658:	0008811a 	andeq	r8, r8, sl, lsl r1
    465c:	002f5100 	eoreq	r5, pc, r0, lsl #2
    4660:	002f4f00 	eoreq	r4, pc, r0, lsl #30
    4664:	b80f0000 	stmdalt	pc, {}	; <UNPREDICTABLE>
    4668:	4100009f 	swpmi	r0, pc, [r0]	; <UNPREDICTABLE>
    466c:	53000004 	movwpl	r0, #4
    4670:	10000003 	andne	r0, r0, r3
    4674:	f3035001 	vhadd.u8	d5, d3, d1
    4678:	0f005001 	svceq	0x00005001
    467c:	00009fdc 	ldrdeq	r9, [r0], -ip
    4680:	000008bc 			; <UNDEFINED> instruction: 0x000008bc
    4684:	0000038c 	andeq	r0, r0, ip, lsl #7
    4688:	05500110 	ldrbeq	r0, [r0, #-272]	; 0xfffffef0
    468c:	00a4d403 	adceq	sp, r4, r3, lsl #8
    4690:	51011000 	mrspl	r1, (UNDEF: 1)
    4694:	aa680305 	bge	1a052b0 <__bss_end__+0x19fa208>
    4698:	01100000 	tsteq	r0, r0
    469c:	40030552 	andmi	r0, r3, r2, asr r5
    46a0:	100000ac 	andne	r0, r0, ip, lsr #1
    46a4:	08025301 	stmdaeq	r2, {r0, r8, r9, ip, lr}
    46a8:	7d02105f 	stcvc	0, cr1, [r2, #-380]	; 0xfffffe84
    46ac:	78030500 	stmdavc	r3, {r8, sl}
    46b0:	000000aa 	andeq	r0, r0, sl, lsr #1
    46b4:	009fe011 	addseq	lr, pc, r1, lsl r0	; <UNPREDICTABLE>
    46b8:	0008c800 	andeq	ip, r8, r0, lsl #16
    46bc:	9fe41100 	svcls	0x00e41100
    46c0:	08d40000 	ldmeq	r4, {}^	; <UNPREDICTABLE>
    46c4:	000f0000 	andeq	r0, pc, r0
    46c8:	bc0000a0 	stclt	0, cr0, [r0], {160}	; 0xa0
    46cc:	d7000008 	strle	r0, [r0, -r8]
    46d0:	10000003 	andne	r0, r0, r3
    46d4:	03055001 	movweq	r5, #20481	; 0x5001
    46d8:	0000ab34 	andeq	sl, r0, r4, lsr fp
    46dc:	05510110 	ldrbeq	r0, [r1, #-272]	; 0xfffffef0
    46e0:	00aa6803 	adceq	r6, sl, r3, lsl #16
    46e4:	52011000 	andpl	r1, r1, #0, 0
    46e8:	ac400305 	mcrrge	3, 0, r0, r0, cr5
    46ec:	01100000 	tsteq	r0, r0
    46f0:	60080253 	andvs	r0, r8, r3, asr r2
    46f4:	007d0210 	rsbseq	r0, sp, r0, lsl r2
    46f8:	ab680305 	blge	1a05314 <__bss_end__+0x19fa26c>
    46fc:	11000000 	mrsne	r0, (UNDEF: 0)
    4700:	0000a004 	andeq	sl, r0, r4
    4704:	000008c8 	andeq	r0, r0, r8, asr #17
    4708:	00a02811 	adceq	r2, r0, r1, lsl r8
    470c:	0008d400 	andeq	sp, r8, r0, lsl #8
    4710:	a0440f00 	subge	r0, r4, r0, lsl #30
    4714:	08bc0000 	ldmeq	ip!, {}	; <UNPREDICTABLE>
    4718:	04220000 	strteq	r0, [r2], #-0
    471c:	01100000 	tsteq	r0, r0
    4720:	88030550 	stmdahi	r3, {r4, r6, r8, sl}
    4724:	100000ab 	andne	r0, r0, fp, lsr #1
    4728:	03055101 	movweq	r5, #20737	; 0x5101
    472c:	0000aa68 	andeq	sl, r0, r8, ror #20
    4730:	05520110 	ldrbeq	r0, [r2, #-272]	; 0xfffffef0
    4734:	00ac4003 	adceq	r4, ip, r3
    4738:	53011000 	movwpl	r1, #4096	; 0x1000
    473c:	10680802 	rsbne	r0, r8, r2, lsl #16
    4740:	05007d02 	streq	r7, [r0, #-3330]	; 0xfffff2fe
    4744:	00abb403 	adceq	fp, fp, r3, lsl #8
    4748:	48110000 	ldmdami	r1, {}	; <UNPREDICTABLE>
    474c:	c80000a0 	stmdagt	r0, {r5, r7}
    4750:	00000008 	andeq	r0, r0, r8
    4754:	00007e12 	andeq	r7, r0, r2, lsl lr
    4758:	00043c00 	andeq	r3, r4, r0, lsl #24
    475c:	002c1300 	eoreq	r1, ip, r0, lsl #6
    4760:	000f0000 	andeq	r0, pc, r0
    4764:	00042c05 	andeq	r2, r4, r5, lsl #24
    4768:	04711600 	ldrbteq	r1, [r1], #-1536	; 0xfffffa00
    476c:	53010000 	movwpl	r0, #4096	; 0x1000
    4770:	00008a07 	andeq	r8, r0, r7, lsl #20
    4774:	009ef800 	addseq	pc, lr, r0, lsl #16
    4778:	00006400 	andeq	r6, r0, r0, lsl #8
    477c:	089c0100 	ldmeq	ip, {r8}
    4780:	17000005 	strne	r0, [r0, -r5]
    4784:	000002ea 	andeq	r0, r0, sl, ror #5
    4788:	2c185301 	ldccs	3, cr5, [r8], {1}
    478c:	6c000000 	stcvs	0, cr0, [r0], {-0}
    4790:	6400002f 	strvs	r0, [r0], #-47	; 0xffffffd1
    4794:	0e00002f 	cdpeq	0, 0, cr0, cr0, cr15, {1}
    4798:	0000017a 	andeq	r0, r0, sl, ror r1
    479c:	00000518 	andeq	r0, r0, r8, lsl r5
    47a0:	ac380305 	ldcge	3, cr0, [r8], #-20	; 0xffffffec
    47a4:	b61d0000 	ldrlt	r0, [sp], -r0
    47a8:	0100000a 	tsteq	r0, sl
    47ac:	008a0b55 	addeq	r0, sl, r5, asr fp
    47b0:	2fa40000 	svccs	0x00a40000
    47b4:	2fa00000 	svccs	0x00a00000
    47b8:	100f0000 	andne	r0, pc, r0
    47bc:	1d00009f 	stcne	0, cr0, [r0, #-636]	; 0xfffffd84
    47c0:	a6000005 	strge	r0, [r0], -r5
    47c4:	10000004 	andne	r0, r0, r4
    47c8:	74025001 	strvc	r5, [r2], #-1
    47cc:	200f0000 	andcs	r0, pc, r0
    47d0:	e000009f 	mul	r0, pc, r0	; <UNPREDICTABLE>
    47d4:	c5000008 	strgt	r0, [r0, #-8]
    47d8:	10000004 	andne	r0, r0, r4
    47dc:	75025001 	strvc	r5, [r2, #-1]
    47e0:	51011000 	mrspl	r1, (UNDEF: 1)
    47e4:	01103001 	tsteq	r0, r1
    47e8:	00740252 	rsbseq	r0, r4, r2, asr r2
    47ec:	9f480f00 	svcls	0x00480f00
    47f0:	08bc0000 	ldmeq	ip!, {}	; <UNPREDICTABLE>
    47f4:	04fe0000 	ldrbteq	r0, [lr], #0
    47f8:	01100000 	tsteq	r0, r0
    47fc:	d4030550 	strle	r0, [r3], #-1360	; 0xfffffab0
    4800:	100000a4 	andne	r0, r0, r4, lsr #1
    4804:	03055101 	movweq	r5, #20737	; 0x5101
    4808:	0000aa68 	andeq	sl, r0, r8, ror #20
    480c:	05520110 	ldrbeq	r0, [r2, #-272]	; 0xfffffef0
    4810:	00ac3803 	adceq	r3, ip, r3, lsl #16
    4814:	53011000 	movwpl	r1, #4096	; 0x1000
    4818:	10540802 	subsne	r0, r4, r2, lsl #16
    481c:	05007d02 	streq	r7, [r0, #-3330]	; 0xfffff2fe
    4820:	00aa7803 	adceq	r7, sl, r3, lsl #16
    4824:	4c110000 	ldcmi	0, cr0, [r1], {-0}
    4828:	c800009f 	stmdagt	r0, {r0, r1, r2, r3, r4, r7}
    482c:	00000008 	andeq	r0, r0, r8
    4830:	00007e12 	andeq	r7, r0, r2, lsl lr
    4834:	00051800 	andeq	r1, r5, r0, lsl #16
    4838:	002c1300 	eoreq	r1, ip, r0, lsl #6
    483c:	00070000 	andeq	r0, r7, r0
    4840:	00050805 	andeq	r0, r5, r5, lsl #16
    4844:	0b091600 	bleq	24a04c <__bss_end__+0x23efa4>
    4848:	47010000 	strmi	r0, [r1, -r0]
    484c:	00008a07 	andeq	r8, r0, r7, lsl #20
    4850:	009e6000 	addseq	r6, lr, r0
    4854:	00009800 	andeq	r9, r0, r0, lsl #16
    4858:	2b9c0100 	blcs	fe704c60 <__bss_end__+0xfe6f9bb8>
    485c:	17000006 	strne	r0, [r0, -r6]
    4860:	000002ea 	andeq	r0, r0, sl, ror #5
    4864:	2c204701 	stccs	7, cr4, [r0], #-4
    4868:	d2000000 	andle	r0, r0, #0, 0
    486c:	c200002f 	andgt	r0, r0, #47, 0	; 0x2f
    4870:	0e00002f 	cdpeq	0, 0, cr0, cr0, cr15, {1}
    4874:	0000017a 	andeq	r0, r0, sl, ror r1
    4878:	0000043c 	andeq	r0, r0, ip, lsr r4
    487c:	ac280305 	stcge	3, cr0, [r8], #-20	; 0xffffffec
    4880:	b61d0000 	ldrlt	r0, [sp], -r0
    4884:	0100000a 	tsteq	r0, sl
    4888:	008a0b4b 	addeq	r0, sl, fp, asr #22
    488c:	30440000 	subcc	r0, r4, r0
    4890:	30400000 	subcc	r0, r0, r0
    4894:	1f1b0000 	svcne	0x001b0000
    4898:	70000008 	andvc	r0, r0, r8
    489c:	0300009e 	movweq	r0, #158	; 0x9e
    48a0:	000007c8 	andeq	r0, r0, r8, asr #15
    48a4:	a30e4901 	movwge	r4, #59649	; 0xe901
    48a8:	1a000005 	bne	48c4 <__code_start__-0x373c>
    48ac:	0000083a 	andeq	r0, r0, sl, lsr r8
    48b0:	00003064 	andeq	r3, r0, r4, rrx
    48b4:	00003062 	andeq	r3, r0, r2, rrx
    48b8:	0008301a 	andeq	r3, r8, sl, lsl r0
    48bc:	00307c00 	eorseq	r7, r0, r0, lsl #24
    48c0:	00307800 	eorseq	r7, r0, r0, lsl #16
    48c4:	07c81e00 	strbeq	r1, [r8, r0, lsl #28]
    48c8:	0f000000 	svceq	0x00000000
    48cc:	00009eb8 			; <UNDEFINED> instruction: 0x00009eb8
    48d0:	000008bc 			; <UNDEFINED> instruction: 0x000008bc
    48d4:	000005dc 	ldrdeq	r0, [r0], -ip
    48d8:	05500110 	ldrbeq	r0, [r0, #-272]	; 0xfffffef0
    48dc:	00a4d403 	adceq	sp, r4, r3, lsl #8
    48e0:	51011000 	mrspl	r1, (UNDEF: 1)
    48e4:	aa680305 	bge	1a05500 <__bss_end__+0x19fa458>
    48e8:	01100000 	tsteq	r0, r0
    48ec:	28030552 	stmdacs	r3, {r1, r4, r6, r8, sl}
    48f0:	100000ac 	andne	r0, r0, ip, lsr #1
    48f4:	08025301 	stmdaeq	r2, {r0, r8, r9, ip, lr}
    48f8:	7d021048 	stcvc	0, cr1, [r2, #-288]	; 0xfffffee0
    48fc:	78030500 	stmdavc	r3, {r8, sl}
    4900:	000000aa 	andeq	r0, r0, sl, lsr #1
    4904:	009ebc11 	addseq	fp, lr, r1, lsl ip
    4908:	0008c800 	andeq	ip, r8, r0, lsl #16
    490c:	9edc0f00 	cdpls	15, 13, cr0, cr12, cr0, {0}
    4910:	08bc0000 	ldmeq	ip!, {}	; <UNPREDICTABLE>
    4914:	06210000 	strteq	r0, [r1], -r0
    4918:	01100000 	tsteq	r0, r0
    491c:	f4030550 	vst3.16	{d0,d2,d4}, [r3 :64], r0
    4920:	100000aa 	andne	r0, r0, sl, lsr #1
    4924:	03055101 	movweq	r5, #20737	; 0x5101
    4928:	0000aa68 	andeq	sl, r0, r8, ror #20
    492c:	05520110 	ldrbeq	r0, [r2, #-272]	; 0xfffffef0
    4930:	00ac2803 	adceq	r2, ip, r3, lsl #16
    4934:	53011000 	movwpl	r1, #4096	; 0x1000
    4938:	104e0802 	subne	r0, lr, r2, lsl #16
    493c:	08007d02 	stmdaeq	r0, {r1, r8, sl, fp, ip, sp, lr}
    4940:	235001f3 	cmpcs	r0, #-1073741764	; 0xc000003c
    4944:	1af80907 	bne	ffe06d68 <__bss_end__+0xffdfbcc0>
    4948:	9ee01100 	cdpls	1, 14, cr1, cr0, cr0, {0}
    494c:	08c80000 	stmiaeq	r8, {}^	; <UNPREDICTABLE>
    4950:	0c000000 	stceq	0, cr0, [r0], {-0}
    4954:	00000b2b 	andeq	r0, r0, fp, lsr #22
    4958:	08063c01 	stmdaeq	r6, {r0, sl, fp, ip, sp}
    495c:	5800009e 	stmdapl	r0, {r1, r2, r3, r4, r7}
    4960:	01000000 	mrseq	r0, (UNDEF: 0)
    4964:	0006cf9c 	muleq	r6, ip, pc	; <UNPREDICTABLE>
    4968:	03920a00 	orrseq	r0, r2, #0, 20
    496c:	3d010000 	stccc	0, cr0, [r1, #-0]
    4970:	00002510 	andeq	r2, r0, r0, lsl r5
    4974:	a4030500 	strge	r0, [r3], #-1280	; 0xfffffb00
    4978:	0e0000b0 	mcreq	0, 0, r0, cr0, cr0, {5}
    497c:	0000017a 	andeq	r0, r0, sl, ror r1
    4980:	000006df 	ldrdeq	r0, [r0], -pc	; <UNPREDICTABLE>
    4984:	ac180305 	ldcge	3, cr0, [r8], {5}
    4988:	07070000 	streq	r0, [r7, -r0]
    498c:	00002c04 	andeq	r2, r0, r4, lsl #24
    4990:	0a420100 	beq	1084d98 <__bss_end__+0x1079cf0>
    4994:	0000067a 	andeq	r0, r0, sl, ror r6
    4998:	000af208 	andeq	pc, sl, r8, lsl #4
    499c:	10000000 	andne	r0, r0, r0
    49a0:	340f0000 	strcc	r0, [pc], #-0	; 49a8 <__code_start__-0x3658>
    49a4:	e400009e 	str	r0, [r0], #-158	; 0xffffff62
    49a8:	96000006 	strls	r0, [r0], -r6
    49ac:	10000006 	andne	r0, r0, r6
    49b0:	40035001 	andmi	r5, r3, r1
    49b4:	01102440 	tsteq	r0, r0, asr #8
    49b8:	48400351 	stmdami	r0, {r0, r4, r6, r8, r9}^
    49bc:	4c0f0024 	stcmi	0, cr0, [pc], {36}	; 0x24
    49c0:	bc00009e 	stclt	0, cr0, [r0], {158}	; 0x9e
    49c4:	c5000008 	strgt	r0, [r0, #-8]
    49c8:	10000006 	andne	r0, r0, r6
    49cc:	03055001 	movweq	r5, #20481	; 0x5001
    49d0:	0000aac4 	andeq	sl, r0, r4, asr #21
    49d4:	05510110 	ldrbeq	r0, [r1, #-272]	; 0xfffffef0
    49d8:	00aa6803 	adceq	r6, sl, r3, lsl #16
    49dc:	52011000 	andpl	r1, r1, #0, 0
    49e0:	ac180305 	ldcge	3, cr0, [r8], {5}
    49e4:	01100000 	tsteq	r0, r0
    49e8:	40080253 	andmi	r0, r8, r3, asr r2
    49ec:	9e501100 	rdflss	f1, f0, f0
    49f0:	08c80000 	stmiaeq	r8, {}^	; <UNPREDICTABLE>
    49f4:	12000000 	andne	r0, r0, #0, 0
    49f8:	0000007e 	andeq	r0, r0, lr, ror r0
    49fc:	000006df 	ldrdeq	r0, [r0], -pc	; <UNPREDICTABLE>
    4a00:	00002c13 	andeq	r2, r0, r3, lsl ip
    4a04:	05000c00 	streq	r0, [r0, #-3072]	; 0xfffff400
    4a08:	000006cf 	andeq	r0, r0, pc, asr #13
    4a0c:	0004790c 	andeq	r7, r4, ip, lsl #18
    4a10:	062d0100 	strteq	r0, [sp], -r0, lsl #2
    4a14:	00009d6c 	andeq	r9, r0, ip, ror #26
    4a18:	0000009c 	muleq	r0, ip, r0
    4a1c:	07c89c01 	strbeq	r9, [r8, r1, lsl #24]
    4a20:	b5170000 	ldrlt	r0, [r7, #-0]
    4a24:	0100000a 	tsteq	r0, sl
    4a28:	002c262d 	eoreq	r2, ip, sp, lsr #12
    4a2c:	30aa0000 	adccc	r0, sl, r0
    4a30:	309c0000 	addscc	r0, ip, r0
    4a34:	aa170000 	bge	5c4a3c <__bss_end__+0x5b9994>
    4a38:	0100000a 	tsteq	r0, sl
    4a3c:	002c362d 	eoreq	r3, ip, sp, lsr #12
    4a40:	31120000 	tstcc	r2, r0
    4a44:	310a0000 	mrscc	r0, (UNDEF: 10)
    4a48:	b61d0000 	ldrlt	r0, [sp], -r0
    4a4c:	0100000a 	tsteq	r0, sl
    4a50:	00c20b2e 	sbceq	r0, r2, lr, lsr #22
    4a54:	315a0000 	cmpcc	sl, r0
    4a58:	314c0000 	mrscc	r0, (UNDEF: 76)
    4a5c:	7a0e0000 	bvc	384a64 <__bss_end__+0x3799bc>
    4a60:	d8000001 	stmdale	r0, {r0}
    4a64:	05000007 	streq	r0, [r0, #-7]
    4a68:	00ac0003 	adceq	r0, ip, r3
    4a6c:	9dc40f00 	stclls	15, cr0, [r4]
    4a70:	08bc0000 	ldmeq	ip!, {}	; <UNPREDICTABLE>
    4a74:	077e0000 	ldrbeq	r0, [lr, -r0]!
    4a78:	01100000 	tsteq	r0, r0
    4a7c:	d4030550 	strle	r0, [r3], #-1360	; 0xfffffab0
    4a80:	100000a4 	andne	r0, r0, r4, lsr #1
    4a84:	03055101 	movweq	r5, #20737	; 0x5101
    4a88:	0000aa68 	andeq	sl, r0, r8, ror #20
    4a8c:	05520110 	ldrbeq	r0, [r2, #-272]	; 0xfffffef0
    4a90:	00ac0003 	adceq	r0, ip, r3
    4a94:	53011000 	movwpl	r1, #4096	; 0x1000
    4a98:	10300802 	eorsne	r0, r0, r2, lsl #16
    4a9c:	05007d02 	streq	r7, [r0, #-3330]	; 0xfffff2fe
    4aa0:	00aa7403 	adceq	r7, sl, r3, lsl #8
    4aa4:	c8110000 	ldmdagt	r1, {}	; <UNPREDICTABLE>
    4aa8:	c800009d 	stmdagt	r0, {r0, r2, r3, r4, r7}
    4aac:	0f000008 	svceq	0x00000008
    4ab0:	00009dec 	andeq	r9, r0, ip, ror #27
    4ab4:	000008bc 			; <UNDEFINED> instruction: 0x000008bc
    4ab8:	000007be 			; <UNDEFINED> instruction: 0x000007be
    4abc:	05500110 	ldrbeq	r0, [r0, #-272]	; 0xfffffef0
    4ac0:	00aa8003 	adceq	r8, sl, r3
    4ac4:	51011000 	mrspl	r1, (UNDEF: 1)
    4ac8:	aa680305 	bge	1a056e4 <__bss_end__+0x19fa63c>
    4acc:	01100000 	tsteq	r0, r0
    4ad0:	00030552 	andeq	r0, r3, r2, asr r5
    4ad4:	100000ac 	andne	r0, r0, ip, lsr #1
    4ad8:	08025301 	stmdaeq	r2, {r0, r8, r9, ip, lr}
    4adc:	7d021034 	stcvc	0, cr1, [r2, #-208]	; 0xffffff30
    4ae0:	01f30300 	mvnseq	r0, r0, lsl #6
    4ae4:	f0110050 			; <UNDEFINED> instruction: 0xf0110050
    4ae8:	c800009d 	stmdagt	r0, {r0, r2, r3, r4, r7}
    4aec:	00000008 	andeq	r0, r0, r8
    4af0:	00007e12 	andeq	r7, r0, r2, lsl lr
    4af4:	0007d800 	andeq	sp, r7, r0, lsl #16
    4af8:	002c1300 	eoreq	r1, ip, r0, lsl #6
    4afc:	00160000 	andseq	r0, r6, r0
    4b00:	0007c805 	andeq	ip, r7, r5, lsl #16
    4b04:	0b431f00 	bleq	10cc70c <__bss_end__+0x10c1664>
    4b08:	2a010000 	bcs	44b10 <__bss_end__+0x39a68>
    4b0c:	00008a07 	andeq	r8, r0, r7, lsl #20
    4b10:	009d5c00 	addseq	r5, sp, r0, lsl #24
    4b14:	00001000 	andeq	r1, r0, r0
    4b18:	1f9c0100 	svcne	0x009c0100
    4b1c:	00000a97 	muleq	r0, r7, sl
    4b20:	8a072901 	bhi	1cef2c <__bss_end__+0x1c3e84>
    4b24:	4c000000 	stcmi	0, cr0, [r0], {-0}
    4b28:	1000009d 	mulne	r0, sp, r0
    4b2c:	01000000 	mrseq	r0, (UNDEF: 0)
    4b30:	0af81f9c 	beq	ffe0c9a8 <__bss_end__+0xffe01900>
    4b34:	28010000 	stmdacs	r1, {}	; <UNPREDICTABLE>
    4b38:	00008a07 	andeq	r8, r0, r7, lsl #20
    4b3c:	009d3c00 	addseq	r3, sp, r0, lsl #24
    4b40:	00001000 	andeq	r1, r0, r0
    4b44:	209c0100 	addscs	r0, ip, r0, lsl #2
    4b48:	00000ace 	andeq	r0, r0, lr, asr #21
    4b4c:	2c181001 	ldccs	0, cr1, [r8], {1}
    4b50:	03000000 	movweq	r0, #0
    4b54:	00000854 	andeq	r0, r0, r4, asr r8
    4b58:	01007821 	tsteq	r0, r1, lsr #16
    4b5c:	002c2910 	eoreq	r2, ip, r0, lsl r9
    4b60:	6e210000 	cdpvs	0, 2, cr0, cr1, cr0, {0}
    4b64:	35100100 	ldrcc	r0, [r0, #-256]	; 0xffffff00
    4b68:	0000002c 	andeq	r0, r0, ip, lsr #32
    4b6c:	00017a0e 	andeq	r7, r1, lr, lsl #20
    4b70:	00051800 	andeq	r1, r5, r0, lsl #16
    4b74:	50030500 	andpl	r0, r3, r0, lsl #10
    4b78:	000000ac 	andeq	r0, r0, ip, lsr #1
    4b7c:	000b1920 	andeq	r1, fp, r0, lsr #18
    4b80:	180d0100 	stmdane	sp, {r8}
    4b84:	0000002c 	andeq	r0, r0, ip, lsr #32
    4b88:	00087003 	andeq	r7, r8, r3
    4b8c:	00782100 	rsbseq	r2, r8, r0, lsl #2
    4b90:	2c290d01 	stccs	13, cr0, [r9], #-4
    4b94:	00000000 	andeq	r0, r0, r0
    4b98:	000b3820 	andeq	r3, fp, r0, lsr #16
    4b9c:	18070100 	stmdane	r7, {r8}
    4ba0:	0000002c 	andeq	r0, r0, ip, lsr #32
    4ba4:	00089603 	andeq	r9, r8, r3, lsl #12
    4ba8:	00782100 	rsbseq	r2, r8, r0, lsl #2
    4bac:	2c2c0701 	stccs	7, cr0, [ip], #-4
    4bb0:	21000000 	mrscs	r0, (UNDEF: 0)
    4bb4:	0701006e 	streq	r0, [r1, -lr, rrx]
    4bb8:	00002c38 	andeq	r2, r0, r8, lsr ip
    4bbc:	ea200000 	b	804bc4 <__bss_end__+0x7f9b1c>
    4bc0:	0100000a 	tsteq	r0, sl
    4bc4:	005d1804 	subseq	r1, sp, r4, lsl #16
    4bc8:	bc030000 	stclt	0, cr0, [r3], {-0}
    4bcc:	21000008 	tstcs	r0, r8
    4bd0:	04010078 	streq	r0, [r1], #-120	; 0xffffff88
    4bd4:	00005d29 	andeq	r5, r0, r9, lsr #26
    4bd8:	00792100 	rsbseq	r2, r9, r0, lsl #2
    4bdc:	5d350401 	cfldrspl	mvf0, [r5, #-4]!
    4be0:	00000000 	andeq	r0, r0, r0
    4be4:	0005c822 	andeq	ip, r5, r2, lsr #16
    4be8:	0005c800 	andeq	ip, r5, r0, lsl #16
    4bec:	06280200 	strteq	r0, [r8], -r0, lsl #4
    4bf0:	00004d22 	andeq	r4, r0, r2, lsr #26
    4bf4:	00004d00 	andeq	r4, r0, r0, lsl #26
    4bf8:	066e0200 	strbteq	r0, [lr], -r0, lsl #4
    4bfc:	000b5422 	andeq	r5, fp, r2, lsr #8
    4c00:	000b5400 	andeq	r5, fp, r0, lsl #8
    4c04:	061d0200 	ldreq	r0, [sp], -r0, lsl #4
    4c08:	00024f22 	andeq	r4, r2, r2, lsr #30
    4c0c:	00024f00 	andeq	r4, r2, r0, lsl #30
    4c10:	07f20200 	ldrbeq	r0, [r2, r0, lsl #4]!
    4c14:	00067300 	andeq	r7, r6, r0, lsl #6
    4c18:	34000400 	strcc	r0, [r0], #-1024	; 0xfffffc00
    4c1c:	0400001a 	streq	r0, [r0], #-26	; 0xffffffe6
    4c20:	0004e601 	andeq	lr, r4, r1, lsl #12
    4c24:	0ba60c00 	bleq	fe987c2c <__bss_end__+0xfe97cb84>
    4c28:	059e0000 	ldreq	r0, [lr]
    4c2c:	a0ec0000 	rscge	r0, ip, r0
    4c30:	01980000 	orrseq	r0, r8, r0
    4c34:	26e30000 	strbtcs	r0, [r3], r0
    4c38:	08020000 	stmdaeq	r2, {}	; <UNPREDICTABLE>
    4c3c:	00018707 	andeq	r8, r1, r7, lsl #14
    4c40:	07040200 	streq	r0, [r4, -r0, lsl #4]
    4c44:	00000191 	muleq	r0, r1, r1
    4c48:	69050403 	stmdbvs	r5, {r0, r1, sl}
    4c4c:	0400746e 	streq	r7, [r0], #-1134	; 0xfffffb92
    4c50:	0000002c 	andeq	r0, r0, ip, lsr #32
    4c54:	41060102 	tstmi	r6, r2, lsl #2
    4c58:	02000000 	andeq	r0, r0, #0, 0
    4c5c:	01ce0502 	biceq	r0, lr, r2, lsl #10
    4c60:	04020000 	streq	r0, [r2], #-0
    4c64:	0001b205 	andeq	fp, r1, r5, lsl #4
    4c68:	05080200 	streq	r0, [r8, #-512]	; 0xfffffe00
    4c6c:	000001ad 	andeq	r0, r0, sp, lsr #3
    4c70:	3f080102 	svccc	0x00080102
    4c74:	02000000 	andeq	r0, r0, #0, 0
    4c78:	00790702 	rsbseq	r0, r9, r2, lsl #14
    4c7c:	78050000 	stmdavc	r5, {}	; <UNPREDICTABLE>
    4c80:	03000002 	movweq	r0, #2
    4c84:	00751934 	rsbseq	r1, r5, r4, lsr r9
    4c88:	04020000 	streq	r0, [r2], #-0
    4c8c:	00018c07 	andeq	r8, r1, r7, lsl #24
    4c90:	00330600 	eorseq	r0, r3, r0, lsl #12
    4c94:	008b0000 	addeq	r0, fp, r0
    4c98:	33070000 	movwcc	r0, #28672	; 0x7000
    4c9c:	00000000 	andeq	r0, r0, r0
    4ca0:	0001bb08 	andeq	fp, r1, r8, lsl #22
    4ca4:	0e1c0200 	cdpeq	2, 1, cr0, cr12, cr0, {0}
    4ca8:	00000097 	muleq	r0, r7, r0
    4cac:	007c0409 	rsbseq	r0, ip, r9, lsl #8
    4cb0:	33060000 	movwcc	r0, #24576	; 0x6000
    4cb4:	ac000000 	stcge	0, cr0, [r0], {-0}
    4cb8:	07000000 	streq	r0, [r0, -r0]
    4cbc:	000000ac 	andeq	r0, r0, ip, lsr #1
    4cc0:	b9040900 	stmdblt	r4, {r8, fp}
    4cc4:	02000000 	andeq	r0, r0, #0, 0
    4cc8:	00480801 	subeq	r0, r8, r1, lsl #16
    4ccc:	b2040000 	andlt	r0, r4, #0, 0
    4cd0:	08000000 	stmdaeq	r0, {}	; <UNPREDICTABLE>
    4cd4:	00000606 	andeq	r0, r0, r6, lsl #12
    4cd8:	ca0e2102 	bgt	38d0e8 <__bss_end__+0x382040>
    4cdc:	09000000 	stmdbeq	r0, {}	; <UNPREDICTABLE>
    4ce0:	00009d04 	andeq	r9, r0, r4, lsl #26
    4ce4:	01070a00 	tsteq	r7, r0, lsl #20
    4ce8:	0000005b 	andeq	r0, r0, fp, asr r0
    4cec:	0f0e0c04 	svceq	0x000e0c04
    4cf0:	0b000001 	bleq	4cfc <__code_start__-0x3304>
    4cf4:	00000a6f 	andeq	r0, r0, pc, ror #20
    4cf8:	08a70b00 	stmiaeq	r7!, {r8, r9, fp}
    4cfc:	0b010000 	bleq	44d04 <__bss_end__+0x39c5c>
    4d00:	000008ea 	andeq	r0, r0, sl, ror #17
    4d04:	08f90b04 	ldmeq	r9!, {r2, r8, r9, fp}^
    4d08:	0b050000 	bleq	144d10 <__bss_end__+0x139c68>
    4d0c:	00000908 	andeq	r0, r0, r8, lsl #18
    4d10:	09170b06 	ldmdbeq	r7, {r1, r2, r8, r9, fp}
    4d14:	0b070000 	bleq	1c4d1c <__bss_end__+0x1b9c74>
    4d18:	00000a38 	andeq	r0, r0, r8, lsr sl
    4d1c:	09260b03 	stmdbeq	r6!, {r0, r1, r8, r9, fp}
    4d20:	00020000 	andeq	r0, r2, r0
    4d24:	000bdf05 	andeq	sp, fp, r5, lsl #30
    4d28:	03150400 	tsteq	r5, #0, 8
    4d2c:	000000d0 	ldrdeq	r0, [r0], -r0	; <UNPREDICTABLE>
    4d30:	000b7d0c 	andeq	r7, fp, ip, lsl #26
    4d34:	171d0100 	ldrne	r0, [sp, -r0, lsl #2]
    4d38:	0000003a 	andeq	r0, r0, sl, lsr r0
    4d3c:	2020001c 	eorcs	r0, r0, ip, lsl r0
    4d40:	000b730c 	andeq	r7, fp, ip, lsl #6
    4d44:	171e0100 	ldrne	r0, [lr, -r0, lsl #2]
    4d48:	0000003a 	andeq	r0, r0, sl, lsr r0
    4d4c:	20200028 	eorcs	r0, r0, r8, lsr #32
    4d50:	000beb0c 	andeq	lr, fp, ip, lsl #22
    4d54:	171f0100 	ldrne	r0, [pc, -r0, lsl #2]
    4d58:	0000003a 	andeq	r0, r0, sl, lsr r0
    4d5c:	20200034 	eorcs	r0, r0, r4, lsr r0
    4d60:	000b9c0d 	andeq	r9, fp, sp, lsl #24
    4d64:	05510100 	ldrbeq	r0, [r1, #-256]	; 0xffffff00
    4d68:	00000033 	andeq	r0, r0, r3, lsr r0
    4d6c:	0000a25c 	andeq	sl, r0, ip, asr r2
    4d70:	00000028 	andeq	r0, r0, r8, lsr #32
    4d74:	01ba9c01 			; <UNDEFINED> instruction: 0x01ba9c01
    4d78:	700e0000 	andvc	r0, lr, r0
    4d7c:	01006e69 	tsteq	r0, r9, ror #28
    4d80:	002c1851 	eoreq	r1, ip, r1, asr r8
    4d84:	31c00000 	biccc	r0, r0, r0
    4d88:	31ba0000 			; <UNDEFINED> instruction: 0x31ba0000
    4d8c:	f50f0000 			; <UNDEFINED> instruction: 0xf50f0000
    4d90:	0100000b 	tsteq	r0, fp
    4d94:	002c0e52 	eoreq	r0, ip, r2, asr lr
    4d98:	31f60000 	mvnscc	r0, r0
    4d9c:	31ec0000 	mvncc	r0, r0
    4da0:	6f100000 	svcvs	0x00100000
    4da4:	01006666 	tsteq	r0, r6, ror #12
    4da8:	002c0e53 	eoreq	r0, ip, r3, asr lr
    4dac:	32640000 	rsbcc	r0, r4, #0, 0
    4db0:	325e0000 	subscc	r0, lr, #0, 0
    4db4:	70110000 	andsvc	r0, r1, r0
    4db8:	5e0000a2 	cdppl	0, 0, cr0, cr0, cr2, {5}
    4dbc:	12000006 	andne	r0, r0, #6, 0
    4dc0:	740a5001 	strvc	r5, [sl], #-1
    4dc4:	23253500 			; <UNDEFINED> instruction: 0x23253500
    4dc8:	818080b4 	strhhi	r8, [r0, r4]
    4dcc:	13000002 	movwne	r0, #2
    4dd0:	00000b87 	andeq	r0, r0, r7, lsl #23
    4dd4:	2c064a01 			; <UNDEFINED> instruction: 0x2c064a01
    4dd8:	300000a2 	andcc	r0, r0, r2, lsr #1
    4ddc:	01000000 	mrseq	r0, (UNDEF: 0)
    4de0:	0002759c 	muleq	r2, ip, r5
    4de4:	69700e00 	ldmdbvs	r0!, {r9, sl, fp}^
    4de8:	4a01006e 	bmi	44fa8 <__bss_end__+0x39f00>
    4dec:	00002c1a 	andeq	r2, r0, sl, lsl ip
    4df0:	0032a100 	eorseq	sl, r2, r0, lsl #2
    4df4:	00329500 	eorseq	r9, r2, r0, lsl #10
    4df8:	00760e00 	rsbseq	r0, r6, r0, lsl #28
    4dfc:	2c284a01 			; <UNDEFINED> instruction: 0x2c284a01
    4e00:	f5000000 			; <UNDEFINED> instruction: 0xf5000000
    4e04:	f1000032 			; <UNDEFINED> instruction: 0xf1000032
    4e08:	14000032 	strne	r0, [r0], #-50	; 0xffffffce
    4e0c:	0000038d 	andeq	r0, r0, sp, lsl #7
    4e10:	0000a23c 	andeq	sl, r0, ip, lsr r2
    4e14:	00089801 	andeq	r9, r8, r1, lsl #16
    4e18:	094c0100 	stmdbeq	ip, {r8}^
    4e1c:	00000235 	andeq	r0, r0, r5, lsr r2
    4e20:	00039a15 	andeq	r9, r3, r5, lsl sl
    4e24:	00331c00 	eorseq	r1, r3, r0, lsl #24
    4e28:	00331600 	eorseq	r1, r3, r0, lsl #12
    4e2c:	a2481600 	subge	r1, r8, #0, 12
    4e30:	066a0000 	strbteq	r0, [sl], -r0
    4e34:	01120000 	tsteq	r2, r0
    4e38:	1c0c0550 	cfstr32ne	mvfx0, [ip], {80}	; 0x50
    4e3c:	12202000 	eorne	r2, r0, #0, 0
    4e40:	31055101 	tstcc	r5, r1, lsl #2
    4e44:	245001f3 	ldrbcs	r0, [r0], #-499	; 0xfffffe0d
    4e48:	73170000 	tstvc	r7, #0, 0
    4e4c:	48000003 	stmdami	r0, {r0, r1}
    4e50:	020000a2 	andeq	r0, r0, #162, 0	; 0xa2
    4e54:	0000a248 	andeq	sl, r0, r8, asr #4
    4e58:	00000014 	andeq	r0, r0, r4, lsl r0
    4e5c:	15094e01 	strne	r4, [r9, #-3585]	; 0xfffff1ff
    4e60:	00000380 	andeq	r0, r0, r0, lsl #7
    4e64:	0000334e 	andeq	r3, r0, lr, asr #6
    4e68:	00003348 	andeq	r3, r0, r8, asr #6
    4e6c:	00a25416 	adceq	r5, r2, r6, lsl r4
    4e70:	00066a00 	andeq	r6, r6, r0, lsl #20
    4e74:	50011200 	andpl	r1, r1, r0, lsl #4
    4e78:	00280c05 	eoreq	r0, r8, r5, lsl #24
    4e7c:	01122020 	tsteq	r2, r0, lsr #32
    4e80:	f3310551 	vqrshl.u64	q0, <illegal reg q0.5>, <illegal reg q0.5>
    4e84:	00245001 	eoreq	r5, r4, r1
    4e88:	b3130000 	tstlt	r3, #0, 0
    4e8c:	0100000b 	tsteq	r0, fp
    4e90:	a1d40645 	bicsge	r0, r4, r5, asr #12
    4e94:	00580000 	subseq	r0, r8, r0
    4e98:	9c010000 	stcls	0, cr0, [r1], {-0}
    4e9c:	00000373 	andeq	r0, r0, r3, ror r3
    4ea0:	6e69700e 	cdpvs	0, 6, cr7, cr9, cr14, {0}
    4ea4:	1e450100 	dvfnes	f0, f5, f0
    4ea8:	0000002c 	andeq	r0, r0, ip, lsr #32
    4eac:	00003380 	andeq	r3, r0, r0, lsl #7
    4eb0:	0000337a 	andeq	r3, r0, sl, ror r3
    4eb4:	0004a518 	andeq	sl, r4, r8, lsl r5
    4eb8:	00a1d400 	adceq	sp, r1, r0, lsl #8
    4ebc:	08580200 	ldmdaeq	r8, {r9}^
    4ec0:	46010000 	strmi	r0, [r1], -r0
    4ec4:	04be1905 	ldrteq	r1, [lr], #2309	; 0x905
    4ec8:	15000000 	strne	r0, [r0, #-0]
    4ecc:	000004b2 			; <UNDEFINED> instruction: 0x000004b2
    4ed0:	000033b2 			; <UNDEFINED> instruction: 0x000033b2
    4ed4:	000033ac 	andeq	r3, r0, ip, lsr #7
    4ed8:	0008581a 	andeq	r5, r8, sl, lsl r8
    4edc:	04ca1b00 	strbeq	r1, [sl], #2816	; 0xb00
    4ee0:	d61b0000 	ldrle	r0, [fp], -r0
    4ee4:	1b000004 	blne	4efc <__code_start__-0x3104>
    4ee8:	000004e0 	andeq	r0, r0, r0, ror #9
    4eec:	0004a518 	andeq	sl, r4, r8, lsl r5
    4ef0:	00a1dc00 	adceq	sp, r1, r0, lsl #24
    4ef4:	08780000 	ldmdaeq	r8!, {}^	; <UNPREDICTABLE>
    4ef8:	28010000 	stmdacs	r1, {}	; <UNPREDICTABLE>
    4efc:	04be1906 	ldrteq	r1, [lr], #2310	; 0x906
    4f00:	15000000 	strne	r0, [r0, #-0]
    4f04:	000004b2 			; <UNDEFINED> instruction: 0x000004b2
    4f08:	000033e4 	andeq	r3, r0, r4, ror #7
    4f0c:	000033de 	ldrdeq	r3, [r0], -lr
    4f10:	0008781a 	andeq	r7, r8, sl, lsl r8
    4f14:	04ca1c00 	strbeq	r1, [sl], #3072	; 0xc00
    4f18:	34160000 	ldrcc	r0, [r6], #-0
    4f1c:	34100000 	ldrcc	r0, [r0], #-0
    4f20:	d61c0000 	ldrle	r0, [ip], -r0
    4f24:	58000004 	stmdapl	r0, {r2}
    4f28:	52000034 	andpl	r0, r0, #52, 0	; 0x34
    4f2c:	1c000034 	stcne	0, cr0, [r0], {52}	; 0x34
    4f30:	000004e0 	andeq	r0, r0, r0, ror #9
    4f34:	000034ae 	andeq	r3, r0, lr, lsr #9
    4f38:	000034a6 	andeq	r3, r0, r6, lsr #9
    4f3c:	00a2041d 	adceq	r0, r2, sp, lsl r4
    4f40:	00065e00 	andeq	r5, r6, r0, lsl #28
    4f44:	00033b00 	andeq	r3, r3, r0, lsl #22
    4f48:	50011200 	andpl	r1, r1, r0, lsl #4
    4f4c:	00007602 	andeq	r7, r0, r2, lsl #12
    4f50:	00a22816 	adceq	r2, r2, r6, lsl r8
    4f54:	00066a00 	andeq	r6, r6, r0, lsl #20
    4f58:	50011200 	andpl	r1, r1, r0, lsl #4
    4f5c:	5001f325 	andpl	pc, r1, r5, lsr #6
    4f60:	25f72cf7 	ldrbcs	r2, [r7, #3319]!	; 0xcf7
    4f64:	cd0825f4 	cfstr32gt	mvfx2, [r8, #-976]	; 0xfffffc30
    4f68:	00cccccc 	sbceq	ip, ip, ip, asr #25
    4f6c:	1e000000 	cdpne	0, 0, cr0, cr0, cr0, {0}
    4f70:	25f72008 	ldrbcs	r2, [r7, #8]!
    4f74:	f72cf725 			; <UNDEFINED> instruction: 0xf72cf725
    4f78:	23253300 			; <UNDEFINED> instruction: 0x23253300
    4f7c:	40a08080 	adcmi	r8, r0, r0, lsl #1
    4f80:	00002432 	andeq	r2, r0, r2, lsr r4
    4f84:	00000000 	andeq	r0, r0, r0
    4f88:	000bc21e 	andeq	ip, fp, lr, lsl r2
    4f8c:	0d400100 	stfeqe	f0, [r0, #-0]
    4f90:	00038d03 	andeq	r8, r3, r3, lsl #26
    4f94:	69701f00 	ldmdbvs	r0!, {r8, r9, sl, fp, ip}^
    4f98:	4001006e 	andmi	r0, r1, lr, rrx
    4f9c:	00002c23 	andeq	r2, r0, r3, lsr #24
    4fa0:	fa1e0000 	blx	784fa8 <__bss_end__+0x779f00>
    4fa4:	0100000b 	tsteq	r0, fp
    4fa8:	a7030d3b 	smladxge	r3, fp, sp, r0
    4fac:	1f000003 	svcne	0x00000003
    4fb0:	006e6970 	rsbeq	r6, lr, r0, ror r9
    4fb4:	2c223b01 			; <UNDEFINED> instruction: 0x2c223b01
    4fb8:	00000000 	andeq	r0, r0, r0
    4fbc:	000bcf13 	andeq	ip, fp, r3, lsl pc
    4fc0:	06360100 	ldrteq	r0, [r6], -r0, lsl #2
    4fc4:	0000a14c 	andeq	sl, r0, ip, asr #2
    4fc8:	00000058 	andeq	r0, r0, r8, asr r0
    4fcc:	04a59c01 	strteq	r9, [r5], #3073	; 0xc01
    4fd0:	700e0000 	andvc	r0, lr, r0
    4fd4:	01006e69 	tsteq	r0, r9, ror #28
    4fd8:	002c1f36 	eoreq	r1, ip, r6, lsr pc
    4fdc:	350c0000 	strcc	r0, [ip, #-0]
    4fe0:	35080000 	strcc	r0, [r8, #-0]
    4fe4:	a5180000 	ldrge	r0, [r8, #-0]
    4fe8:	4c000004 	stcmi	0, cr0, [r0], {4}
    4fec:	020000a1 	andeq	r0, r0, #161, 0	; 0xa1
    4ff0:	00000818 	andeq	r0, r0, r8, lsl r8
    4ff4:	19053701 	stmdbne	r5, {r0, r8, r9, sl, ip, sp}
    4ff8:	000004be 			; <UNDEFINED> instruction: 0x000004be
    4ffc:	04b21501 	ldrteq	r1, [r2], #1281	; 0x501
    5000:	35310000 	ldrcc	r0, [r1, #-0]!
    5004:	352d0000 	strcc	r0, [sp, #-0]!
    5008:	181a0000 	ldmdane	sl, {}	; <UNPREDICTABLE>
    500c:	1b000008 	blne	5034 <__code_start__-0x2fcc>
    5010:	000004ca 	andeq	r0, r0, sl, asr #9
    5014:	0004d61b 	andeq	sp, r4, fp, lsl r6
    5018:	04e01b00 	strbteq	r1, [r0], #2816	; 0xb00
    501c:	a5180000 	ldrge	r0, [r8, #-0]
    5020:	54000004 	strpl	r0, [r0], #-4
    5024:	000000a1 	andeq	r0, r0, r1, lsr #1
    5028:	00000838 	andeq	r0, r0, r8, lsr r8
    502c:	19062801 	stmdbne	r6, {r0, fp, sp}
    5030:	000004be 			; <UNDEFINED> instruction: 0x000004be
    5034:	04b21501 	ldrteq	r1, [r2], #1281	; 0x501
    5038:	35560000 	ldrbcc	r0, [r6, #-0]
    503c:	35520000 	ldrbcc	r0, [r2, #-0]
    5040:	381a0000 	ldmdacc	sl, {}	; <UNPREDICTABLE>
    5044:	1c000008 	stcne	0, cr0, [r0], {8}
    5048:	000004ca 	andeq	r0, r0, sl, asr #9
    504c:	0000357b 	andeq	r3, r0, fp, ror r5
    5050:	00003577 	andeq	r3, r0, r7, ror r5
    5054:	0004d61c 	andeq	sp, r4, ip, lsl r6
    5058:	0035c700 	eorseq	ip, r5, r0, lsl #14
    505c:	0035c100 	eorseq	ip, r5, r0, lsl #2
    5060:	04e01c00 	strbteq	r1, [r0], #3072	; 0xc00
    5064:	361d0000 	ldrcc	r0, [sp], -r0
    5068:	36150000 	ldrcc	r0, [r5], -r0
    506c:	801d0000 	andshi	r0, sp, r0
    5070:	5e0000a1 	cdppl	0, 0, cr0, cr0, cr1, {5}
    5074:	6d000006 	stcvs	0, cr0, [r0, #-24]	; 0xffffffe8
    5078:	12000004 	andne	r0, r0, #4, 0
    507c:	75025001 	strvc	r5, [r2, #-1]
    5080:	a0160000 	andsge	r0, r6, r0
    5084:	6a0000a1 	bvs	5310 <__code_start__-0x2cf0>
    5088:	12000006 	andne	r0, r0, #6, 0
    508c:	f3255001 	vhadd.u32	d5, d5, d1
    5090:	2cf75001 	ldclcs	0, cr5, [r7], #4
    5094:	25f425f7 	ldrbcs	r2, [r4, #1527]!	; 0x5f7
    5098:	cccccd08 	stclgt	13, cr12, [ip], {8}
    509c:	000000cc 	andeq	r0, r0, ip, asr #1
    50a0:	20081e00 	andcs	r1, r8, r0, lsl #28
    50a4:	f72525f7 			; <UNDEFINED> instruction: 0xf72525f7
    50a8:	3300f72c 	movwcc	pc, #1836	; 0x72c	; <UNPREDICTABLE>
    50ac:	80802325 	addhi	r2, r0, r5, lsr #6
    50b0:	243240a0 	ldrtcs	r4, [r2], #-160	; 0xffffff60
    50b4:	00000000 	andeq	r0, r0, r0
    50b8:	7f1e0000 	svcvc	0x001e0000
    50bc:	0100000a 	tsteq	r0, sl
    50c0:	eb010628 	bl	46968 <__bss_end__+0x3b8c0>
    50c4:	1f000004 	svcne	0x00000004
    50c8:	006e6970 	rsbeq	r6, lr, r0, ror r9
    50cc:	2c212801 	stccs	8, cr2, [r1], #-4
    50d0:	20000000 	andcs	r0, r0, r0
    50d4:	000000c0 	andeq	r0, r0, r0, asr #1
    50d8:	0f322801 	svceq	0x00322801
    50dc:	21000001 	tstcs	r0, r1
    50e0:	0066666f 	rsbeq	r6, r6, pc, ror #12
    50e4:	2c0e2d01 	stccs	13, cr2, [lr], {1}
    50e8:	21000000 	mrscs	r0, (UNDEF: 0)
    50ec:	2e010067 	cdpcs	0, 0, cr0, cr1, cr7, {3}
    50f0:	00002c0e 	andeq	r2, r0, lr, lsl #24
    50f4:	00762100 	rsbseq	r2, r6, r0, lsl #2
    50f8:	2c0e3001 	stccs	0, cr3, [lr], {1}
    50fc:	00000000 	andeq	r0, r0, r0
    5100:	000b9222 	andeq	r9, fp, r2, lsr #4
    5104:	18b10200 	ldmne	r1!, {r9}
    5108:	00000069 	andeq	r0, r0, r9, rrx
    510c:	00050703 	andeq	r0, r5, r3, lsl #14
    5110:	00781f00 	rsbseq	r1, r8, r0, lsl #30
    5114:	692bb102 	stmdbvs	fp!, {r1, r8, ip, sp, pc}
    5118:	00000000 	andeq	r0, r0, r0
    511c:	0004a523 	andeq	sl, r4, r3, lsr #10
    5120:	00a0ec00 	adceq	lr, r0, r0, lsl #24
    5124:	00006000 	andeq	r6, r0, r0
    5128:	e49c0100 	ldr	r0, [ip], #256	; 0x100
    512c:	15000005 	strne	r0, [r0, #-5]
    5130:	000004b2 			; <UNDEFINED> instruction: 0x000004b2
    5134:	0000365c 	andeq	r3, r0, ip, asr r6
    5138:	00003658 	andeq	r3, r0, r8, asr r6
    513c:	0004be15 	andeq	fp, r4, r5, lsl lr
    5140:	00368100 	eorseq	r8, r6, r0, lsl #2
    5144:	00367d00 	eorseq	r7, r6, r0, lsl #26
    5148:	04ca1b00 	strbeq	r1, [sl], #2816	; 0xb00
    514c:	d61b0000 	ldrle	r0, [fp], -r0
    5150:	1b000004 	blne	5168 <__code_start__-0x2e98>
    5154:	000004e0 	andeq	r0, r0, r0, ror #9
    5158:	0004a518 	andeq	sl, r4, r8, lsl r5
    515c:	00a0f400 	adceq	pc, r0, r0, lsl #8
    5160:	07f80000 	ldrbeq	r0, [r8, r0]!
    5164:	28010000 	stmdacs	r1, {}	; <UNPREDICTABLE>
    5168:	04be1506 	ldrteq	r1, [lr], #1286	; 0x506
    516c:	36a60000 	strtcc	r0, [r6], r0
    5170:	36a20000 	strtcc	r0, [r2], r0
    5174:	b2150000 	andslt	r0, r5, #0, 0
    5178:	cb000004 	blgt	5190 <__code_start__-0x2e70>
    517c:	c7000036 	smladxgt	r0, r6, r0, r0
    5180:	1a000036 	bne	5260 <__code_start__-0x2da0>
    5184:	000007f8 	strdeq	r0, [r0], -r8
    5188:	0004ca1c 	andeq	ip, r4, ip, lsl sl
    518c:	0036f000 	eorseq	pc, r6, r0
    5190:	0036ec00 	eorseq	lr, r6, r0, lsl #24
    5194:	04d61c00 	ldrbeq	r1, [r6], #3072	; 0xc00
    5198:	373c0000 	ldrcc	r0, [ip, -r0]!
    519c:	37360000 	ldrcc	r0, [r6, -r0]!
    51a0:	e01c0000 	ands	r0, ip, r0
    51a4:	92000004 	andls	r0, r0, #4, 0
    51a8:	8a000037 	bhi	528c <__code_start__-0x2d74>
    51ac:	1d000037 	stcne	0, cr0, [r0, #-220]	; 0xffffff24
    51b0:	0000a12c 	andeq	sl, r0, ip, lsr #2
    51b4:	0000065e 	andeq	r0, r0, lr, asr r6
    51b8:	000005ae 	andeq	r0, r0, lr, lsr #11
    51bc:	02500112 	subseq	r0, r0, #-2147483644	; 0x80000004
    51c0:	16000076 			; <UNDEFINED> instruction: 0x16000076
    51c4:	0000a148 	andeq	sl, r0, r8, asr #2
    51c8:	0000066a 	andeq	r0, r0, sl, ror #12
    51cc:	25500112 	ldrbcs	r0, [r0, #-274]	; 0xfffffeee
    51d0:	f75001f3 			; <UNDEFINED> instruction: 0xf75001f3
    51d4:	f425f72c 	vld1.8	{d15}, [r5 :128], ip
    51d8:	cccd0825 	stclgt	8, cr0, [sp], {37}	; 0x25
    51dc:	0000cccc 	andeq	ip, r0, ip, asr #25
    51e0:	081e0000 	ldmdaeq	lr, {}	; <UNPREDICTABLE>
    51e4:	2525f720 	strcs	pc, [r5, #-1824]!	; 0xfffff8e0
    51e8:	00f72cf7 	ldrshteq	r2, [r7], #199	; 0xc7
    51ec:	80232533 	eorhi	r2, r3, r3, lsr r5
    51f0:	3240a080 	subcc	sl, r0, #128, 0	; 0x80
    51f4:	00000024 	andeq	r0, r0, r4, lsr #32
    51f8:	038d2300 	orreq	r2, sp, #0, 6
    51fc:	a1a40000 			; <UNDEFINED> instruction: 0xa1a40000
    5200:	00180000 	andseq	r0, r8, r0
    5204:	9c010000 	stcls	0, cr0, [r1], {-0}
    5208:	00000621 	andeq	r0, r0, r1, lsr #12
    520c:	00039a15 	andeq	r9, r3, r5, lsl sl
    5210:	0037e800 	eorseq	lr, r7, r0, lsl #16
    5214:	0037e200 	eorseq	lr, r7, r0, lsl #4
    5218:	a1b81600 			; <UNDEFINED> instruction: 0xa1b81600
    521c:	066a0000 	strbteq	r0, [sl], -r0
    5220:	01120000 	tsteq	r2, r0
    5224:	1c0c0550 	cfstr32ne	mvfx0, [ip], {80}	; 0x50
    5228:	12202000 	eorne	r2, r0, #0, 0
    522c:	31055101 	tstcc	r5, r1, lsl #2
    5230:	245001f3 	ldrbcs	r0, [r0], #-499	; 0xfffffe0d
    5234:	73230000 			; <UNDEFINED> instruction: 0x73230000
    5238:	bc000003 	stclt	0, cr0, [r0], {3}
    523c:	180000a1 	stmdane	r0, {r0, r5, r7}
    5240:	01000000 	mrseq	r0, (UNDEF: 0)
    5244:	00065e9c 	muleq	r6, ip, lr
    5248:	03801500 	orreq	r1, r0, #0, 10
    524c:	381a0000 	ldmdacc	sl, {}	; <UNPREDICTABLE>
    5250:	38140000 	ldmdacc	r4, {}	; <UNPREDICTABLE>
    5254:	d0160000 	andsle	r0, r6, r0
    5258:	6a0000a1 	bvs	54e4 <__code_start__-0x2b1c>
    525c:	12000006 	andne	r0, r0, #6, 0
    5260:	0c055001 	stceq	0, cr5, [r5], {1}
    5264:	20200028 	eorcs	r0, r0, r8, lsr #32
    5268:	05510112 	ldrbeq	r0, [r1, #-274]	; 0xfffffeee
    526c:	5001f331 	andpl	pc, r1, r1, lsr r3	; <UNPREDICTABLE>
    5270:	24000024 	strcs	r0, [r0], #-36	; 0xffffffdc
    5274:	00000854 	andeq	r0, r0, r4, asr r8
    5278:	00000854 	andeq	r0, r0, r4, asr r8
    527c:	240ac202 	strcs	ip, [sl], #-514	; 0xfffffdfe
    5280:	000007c0 	andeq	r0, r0, r0, asr #15
    5284:	000007c0 	andeq	r0, r0, r0, asr #15
    5288:	0006ad02 	andeq	sl, r6, r2, lsl #26
    528c:	00000149 	andeq	r0, r0, r9, asr #2
    5290:	1c620004 	stclne	0, cr0, [r2], #-16
    5294:	01040000 	mrseq	r0, (UNDEF: 4)
    5298:	000004e6 	andeq	r0, r0, r6, ror #9
    529c:	000c240c 	andeq	r2, ip, ip, lsl #8
    52a0:	00059e00 	andeq	r9, r5, r0, lsl #28
    52a4:	00a28400 	adceq	r8, r2, r0, lsl #8
    52a8:	00003c00 	andeq	r3, r0, r0, lsl #24
    52ac:	00297000 	eoreq	r7, r9, r0
    52b0:	05040200 	streq	r0, [r4, #-512]	; 0xfffffe00
    52b4:	00746e69 	rsbseq	r6, r4, r9, ror #28
    52b8:	91070403 	tstls	r7, r3, lsl #8
    52bc:	03000001 	movweq	r0, #1
    52c0:	00410601 	subeq	r0, r1, r1, lsl #12
    52c4:	02030000 	andeq	r0, r3, #0, 0
    52c8:	0001ce05 	andeq	ip, r1, r5, lsl #28
    52cc:	05040300 	streq	r0, [r4, #-768]	; 0xfffffd00
    52d0:	000001b2 			; <UNDEFINED> instruction: 0x000001b2
    52d4:	ad050803 	stcge	8, cr0, [r5, #-12]
    52d8:	03000001 	movweq	r0, #1
    52dc:	003f0801 	eorseq	r0, pc, r1, lsl #16
    52e0:	02030000 	andeq	r0, r3, #0, 0
    52e4:	00007907 	andeq	r7, r0, r7, lsl #18
    52e8:	07040300 	streq	r0, [r4, -r0, lsl #6]
    52ec:	0000018c 	andeq	r0, r0, ip, lsl #3
    52f0:	87070803 	strhi	r0, [r7, -r3, lsl #16]
    52f4:	04000001 	streq	r0, [r0], #-1
    52f8:	00000025 	andeq	r0, r0, r5, lsr #32
    52fc:	0000007a 	andeq	r0, r0, sl, ror r0
    5300:	00002505 	andeq	r2, r0, r5, lsl #10
    5304:	bb060000 	bllt	18530c <__bss_end__+0x17a264>
    5308:	02000001 	andeq	r0, r0, #1, 0
    530c:	00860e1c 	addeq	r0, r6, ip, lsl lr
    5310:	04070000 	streq	r0, [r7], #-0
    5314:	0000006b 	andeq	r0, r0, fp, rrx
    5318:	00002504 	andeq	r2, r0, r4, lsl #10
    531c:	00009b00 	andeq	r9, r0, r0, lsl #22
    5320:	009b0500 	addseq	r0, fp, r0, lsl #10
    5324:	07000000 	streq	r0, [r0, -r0]
    5328:	0000a804 	andeq	sl, r0, r4, lsl #16
    532c:	08010300 	stmdaeq	r1, {r8, r9}
    5330:	00000048 	andeq	r0, r0, r8, asr #32
    5334:	0000a108 	andeq	sl, r0, r8, lsl #2
    5338:	06060600 	streq	r0, [r6], -r0, lsl #12
    533c:	21020000 	mrscs	r0, (UNDEF: 2)
    5340:	0000b90e 	andeq	fp, r0, lr, lsl #18
    5344:	8c040700 	stchi	7, cr0, [r4], {-0}
    5348:	09000000 	stmdbeq	r0, {}	; <UNPREDICTABLE>
    534c:	0000007a 	andeq	r0, r0, sl, ror r0
    5350:	05070601 	streq	r0, [r7, #-1537]	; 0xfffff9ff
    5354:	00ac7803 	adceq	r7, ip, r3, lsl #16
    5358:	0c170a00 			; <UNDEFINED> instruction: 0x0c170a00
    535c:	0b010000 	bleq	45364 <__bss_end__+0x3a2bc>
    5360:	00a2b006 	adceq	fp, r2, r6
    5364:	00001000 	andeq	r1, r0, r0
    5368:	f19c0100 			; <UNDEFINED> instruction: 0xf19c0100
    536c:	0b000000 	bleq	5374 <__code_start__-0x2c8c>
    5370:	01007066 	tsteq	r0, r6, rrx
    5374:	0086190b 	addeq	r1, r6, fp, lsl #18
    5378:	50010000 	andpl	r0, r1, r0
    537c:	0b540c00 	bleq	1508384 <__bss_end__+0x14fd2dc>
    5380:	08010000 	stmdaeq	r1, {}	; <UNPREDICTABLE>
    5384:	00a29806 	adceq	r9, r2, r6, lsl #16
    5388:	00001800 	andeq	r1, r0, r0, lsl #16
    538c:	0d9c0100 	ldfeqs	f0, [ip]
    5390:	00000c06 	andeq	r0, r0, r6, lsl #24
    5394:	250c0301 	strcs	r0, [ip, #-769]	; 0xfffffcff
    5398:	84000000 	strhi	r0, [r0], #-0
    539c:	140000a2 	strne	r0, [r0], #-162	; 0xffffff5e
    53a0:	01000000 	mrseq	r0, (UNDEF: 0)
    53a4:	0001409c 	muleq	r1, ip, r0
    53a8:	00630e00 	rsbeq	r0, r3, r0, lsl #28
    53ac:	25210301 	strcs	r0, [r1, #-769]!	; 0xfffffcff
    53b0:	4a000000 	bmi	53b8 <__code_start__-0x2c48>
    53b4:	46000038 			; <UNDEFINED> instruction: 0x46000038
    53b8:	0f000038 	svceq	0x00000038
    53bc:	0000a290 	muleq	r0, r0, r2
    53c0:	00000140 	andeq	r0, r0, r0, asr #2
    53c4:	02500110 	subseq	r0, r0, #4
    53c8:	00000074 	andeq	r0, r0, r4, ror r0
    53cc:	000a6511 	andeq	r6, sl, r1, lsl r5
    53d0:	000a6500 	andeq	r6, sl, r0, lsl #10
    53d4:	06420200 	strbeq	r0, [r2], -r0, lsl #4
    53d8:	00013700 	andeq	r3, r1, r0, lsl #14
    53dc:	71000400 	tstvc	r0, r0, lsl #8
    53e0:	0400001d 	streq	r0, [r0], #-29	; 0xffffffe3
    53e4:	0004e601 	andeq	lr, r4, r1, lsl #12
    53e8:	0c350c00 	ldceq	12, cr0, [r5], #-0
    53ec:	059e0000 	ldreq	r0, [lr]
    53f0:	a2c00000 	sbcge	r0, r0, #0, 0
    53f4:	002c0000 	eoreq	r0, ip, r0
    53f8:	2a120000 	bcs	485400 <__bss_end__+0x47a358>
    53fc:	04020000 	streq	r0, [r2], #-0
    5400:	746e6905 	strbtvc	r6, [lr], #-2309	; 0xfffff6fb
    5404:	07040300 	streq	r0, [r4, -r0, lsl #6]
    5408:	00000191 	muleq	r0, r1, r1
    540c:	41060103 	tstmi	r6, r3, lsl #2
    5410:	03000000 	movweq	r0, #0
    5414:	01ce0502 	biceq	r0, lr, r2, lsl #10
    5418:	04030000 	streq	r0, [r3], #-0
    541c:	0001b205 	andeq	fp, r1, r5, lsl #4
    5420:	05080300 	streq	r0, [r8, #-768]	; 0xfffffd00
    5424:	000001ad 	andeq	r0, r0, sp, lsr #3
    5428:	3f080103 	svccc	0x00080103
    542c:	03000000 	movweq	r0, #0
    5430:	00790702 	rsbseq	r0, r9, r2, lsl #14
    5434:	04030000 	streq	r0, [r3], #-0
    5438:	00018c07 	andeq	r8, r1, r7, lsl #24
    543c:	07080300 	streq	r0, [r8, -r0, lsl #6]
    5440:	00000187 	andeq	r0, r0, r7, lsl #3
    5444:	00002504 	andeq	r2, r0, r4, lsl #10
    5448:	00007a00 	andeq	r7, r0, r0, lsl #20
    544c:	00250500 	eoreq	r0, r5, r0, lsl #10
    5450:	06000000 	streq	r0, [r0], -r0
    5454:	000001bb 			; <UNDEFINED> instruction: 0x000001bb
    5458:	860e1c02 	strhi	r1, [lr], -r2, lsl #24
    545c:	07000000 	streq	r0, [r0, -r0]
    5460:	00006b04 	andeq	r6, r0, r4, lsl #22
    5464:	00250400 	eoreq	r0, r5, r0, lsl #8
    5468:	009b0000 	addseq	r0, fp, r0
    546c:	9b050000 	blls	145474 <__bss_end__+0x13a3cc>
    5470:	00000000 	andeq	r0, r0, r0
    5474:	00a80407 	adceq	r0, r8, r7, lsl #8
    5478:	01030000 	mrseq	r0, (UNDEF: 3)
    547c:	00004808 	andeq	r4, r0, r8, lsl #16
    5480:	00a10800 	adceq	r0, r1, r0, lsl #16
    5484:	06060000 	streq	r0, [r6], -r0
    5488:	02000006 	andeq	r0, r0, #6, 0
    548c:	00b90e21 	adcseq	r0, r9, r1, lsr #28
    5490:	04070000 	streq	r0, [r7], #-0
    5494:	0000008c 	andeq	r0, r0, ip, lsl #1
    5498:	0006b309 	andeq	fp, r6, r9, lsl #6
    549c:	07040100 	streq	r0, [r4, -r0, lsl #2]
    54a0:	00000134 	andeq	r0, r0, r4, lsr r1
    54a4:	0000a2c0 	andeq	sl, r0, r0, asr #5
    54a8:	0000002c 	andeq	r0, r0, ip, lsr #32
    54ac:	01349c01 	teqeq	r4, r1, lsl #24
    54b0:	450a0000 	strmi	r0, [sl, #-0]
    54b4:	0100000c 	tsteq	r0, ip
    54b8:	01341504 	teqeq	r4, r4, lsl #10
    54bc:	50010000 	andpl	r0, r1, r0
    54c0:	6372730b 	cmnvs	r2, #738197504	; 0x2c000000
    54c4:	27040100 	strcs	r0, [r4, -r0, lsl #2]
    54c8:	0000009b 	muleq	r0, fp, r0
    54cc:	0000386c 	andeq	r3, r0, ip, ror #16
    54d0:	00003868 	andeq	r3, r0, r8, ror #16
    54d4:	0031730c 	eorseq	r7, r1, ip, lsl #6
    54d8:	340b0501 	strcc	r0, [fp], #-1281	; 0xfffffaff
    54dc:	9b000001 	blls	54e8 <__code_start__-0x2b18>
    54e0:	8d000038 	stchi	0, cr0, [r0, #-224]	; 0xffffff20
    54e4:	0c000038 	stceq	0, cr0, [r0], {56}	; 0x38
    54e8:	01003273 	tsteq	r0, r3, ror r2
    54ec:	009b1106 	addseq	r1, fp, r6, lsl #2
    54f0:	38fa0000 	ldmcc	sl!, {}^	; <UNPREDICTABLE>
    54f4:	38f40000 	ldmcc	r4!, {}^	; <UNPREDICTABLE>
    54f8:	630c0000 	movwvs	r0, #49152	; 0xc000
    54fc:	0a070100 	beq	1c5904 <__bss_end__+0x1ba85c>
    5500:	000000a1 	andeq	r0, r0, r1, lsr #1
    5504:	0000392b 	andeq	r3, r0, fp, lsr #18
    5508:	00003925 	andeq	r3, r0, r5, lsr #18
    550c:	a1040700 	tstge	r4, r0, lsl #14
    5510:	00000000 	andeq	r0, r0, r0
    5514:	000000f7 	strdeq	r0, [r0], -r7
    5518:	1e270004 	cdpne	0, 2, cr0, cr7, cr4, {0}
    551c:	01040000 	mrseq	r0, (UNDEF: 4)
    5520:	000004e6 	andeq	r0, r0, r6, ror #9
    5524:	000c4a0c 	andeq	r4, ip, ip, lsl #20
    5528:	00059e00 	andeq	r9, r5, r0, lsl #28
    552c:	00a2ec00 	adceq	lr, r2, r0, lsl #24
    5530:	00004400 	andeq	r4, r0, r0, lsl #8
    5534:	002af800 	eoreq	pc, sl, r0, lsl #16
    5538:	05040200 	streq	r0, [r4, #-512]	; 0xfffffe00
    553c:	00746e69 	rsbseq	r6, r4, r9, ror #28
    5540:	91070403 	tstls	r7, r3, lsl #8
    5544:	03000001 	movweq	r0, #1
    5548:	00410601 	subeq	r0, r1, r1, lsl #12
    554c:	02030000 	andeq	r0, r3, #0, 0
    5550:	0001ce05 	andeq	ip, r1, r5, lsl #28
    5554:	05040300 	streq	r0, [r4, #-768]	; 0xfffffd00
    5558:	000001b2 			; <UNDEFINED> instruction: 0x000001b2
    555c:	ad050803 	stcge	8, cr0, [r5, #-12]
    5560:	03000001 	movweq	r0, #1
    5564:	003f0801 	eorseq	r0, pc, r1, lsl #16
    5568:	02030000 	andeq	r0, r3, #0, 0
    556c:	00007907 	andeq	r7, r0, r7, lsl #18
    5570:	07040300 	streq	r0, [r4, -r0, lsl #6]
    5574:	0000018c 	andeq	r0, r0, ip, lsl #3
    5578:	87070803 	strhi	r0, [r7, -r3, lsl #16]
    557c:	04000001 	streq	r0, [r0], #-1
    5580:	00000025 	andeq	r0, r0, r5, lsr #32
    5584:	0000007a 	andeq	r0, r0, sl, ror r0
    5588:	00002505 	andeq	r2, r0, r5, lsl #10
    558c:	bb060000 	bllt	185594 <__bss_end__+0x17a4ec>
    5590:	02000001 	andeq	r0, r0, #1, 0
    5594:	00860e1c 	addeq	r0, r6, ip, lsl lr
    5598:	04070000 	streq	r0, [r7], #-0
    559c:	0000006b 	andeq	r0, r0, fp, rrx
    55a0:	00002504 	andeq	r2, r0, r4, lsl #10
    55a4:	00009b00 	andeq	r9, r0, r0, lsl #22
    55a8:	009b0500 	addseq	r0, fp, r0, lsl #10
    55ac:	07000000 	streq	r0, [r0, -r0]
    55b0:	0000a804 	andeq	sl, r0, r4, lsl #16
    55b4:	08010300 	stmdaeq	r1, {r8, r9}
    55b8:	00000048 	andeq	r0, r0, r8, asr #32
    55bc:	0000a108 	andeq	sl, r0, r8, lsl #2
    55c0:	06060600 	streq	r0, [r6], -r0, lsl #12
    55c4:	21020000 	mrscs	r0, (UNDEF: 2)
    55c8:	0000b90e 	andeq	fp, r0, lr, lsl #18
    55cc:	8c040700 	stchi	7, cr0, [r4], {-0}
    55d0:	09000000 	stmdbeq	r0, {}	; <UNPREDICTABLE>
    55d4:	000006e1 	andeq	r0, r0, r1, ror #13
    55d8:	25050301 	strcs	r0, [r5, #-769]	; 0xfffffcff
    55dc:	ec000000 	stc	0, cr0, [r0], {-0}
    55e0:	440000a2 	strmi	r0, [r0], #-162	; 0xffffff5e
    55e4:	01000000 	mrseq	r0, (UNDEF: 0)
    55e8:	00610a9c 	mlseq	r1, ip, sl, r0
    55ec:	9b180301 	blls	6061f8 <__bss_end__+0x5fb150>
    55f0:	62000000 	andvs	r0, r0, #0, 0
    55f4:	56000039 			; <UNDEFINED> instruction: 0x56000039
    55f8:	0a000039 	beq	56e4 <__code_start__-0x291c>
    55fc:	03010062 	movweq	r0, #4194	; 0x1062
    5600:	00009b27 	andeq	r9, r0, r7, lsr #22
    5604:	0039b600 	eorseq	fp, r9, r0, lsl #12
    5608:	0039b000 	eorseq	fp, r9, r0
    560c:	0f000000 	svceq	0x00000000
    5610:	04000001 	streq	r0, [r0], #-1
    5614:	001eb600 	andseq	fp, lr, r0, lsl #12
    5618:	e6010400 	str	r0, [r1], -r0, lsl #8
    561c:	0c000004 	stceq	0, cr0, [r0], {4}
    5620:	00000c5a 	andeq	r0, r0, sl, asr ip
    5624:	0000059e 	muleq	r0, lr, r5
    5628:	0000a330 	andeq	sl, r0, r0, lsr r3
    562c:	00000018 	andeq	r0, r0, r8, lsl r0
    5630:	00002bae 	andeq	r2, r0, lr, lsr #23
    5634:	69050402 	stmdbvs	r5, {r1, sl}
    5638:	0300746e 	movweq	r7, #1134	; 0x46e
    563c:	01910704 	orrseq	r0, r1, r4, lsl #14
    5640:	01030000 	mrseq	r0, (UNDEF: 3)
    5644:	00004106 	andeq	r4, r0, r6, lsl #2
    5648:	05020300 	streq	r0, [r2, #-768]	; 0xfffffd00
    564c:	000001ce 	andeq	r0, r0, lr, asr #3
    5650:	b2050403 	andlt	r0, r5, #50331648	; 0x3000000
    5654:	03000001 	movweq	r0, #1
    5658:	01ad0508 			; <UNDEFINED> instruction: 0x01ad0508
    565c:	01030000 	mrseq	r0, (UNDEF: 3)
    5660:	00003f08 	andeq	r3, r0, r8, lsl #30
    5664:	07020300 	streq	r0, [r2, -r0, lsl #6]
    5668:	00000079 	andeq	r0, r0, r9, ror r0
    566c:	8c070403 	cfstrshi	mvf0, [r7], {3}
    5670:	03000001 	movweq	r0, #1
    5674:	01870708 	orreq	r0, r7, r8, lsl #14
    5678:	25040000 	strcs	r0, [r4, #-0]
    567c:	7a000000 	bvc	5684 <__code_start__-0x297c>
    5680:	05000000 	streq	r0, [r0, #-0]
    5684:	00000025 	andeq	r0, r0, r5, lsr #32
    5688:	01bb0600 			; <UNDEFINED> instruction: 0x01bb0600
    568c:	1c020000 	stcne	0, cr0, [r2], {-0}
    5690:	0000860e 	andeq	r8, r0, lr, lsl #12
    5694:	6b040700 	blvs	10729c <__bss_end__+0xfc1f4>
    5698:	04000000 	streq	r0, [r0], #-0
    569c:	00000025 	andeq	r0, r0, r5, lsr #32
    56a0:	0000009b 	muleq	r0, fp, r0
    56a4:	00009b05 	andeq	r9, r0, r5, lsl #22
    56a8:	04070000 	streq	r0, [r7], #-0
    56ac:	000000a8 	andeq	r0, r0, r8, lsr #1
    56b0:	48080103 	stmdami	r8, {r0, r1, r8}
    56b4:	08000000 	stmdaeq	r0, {}	; <UNPREDICTABLE>
    56b8:	000000a1 	andeq	r0, r0, r1, lsr #1
    56bc:	00060606 	andeq	r0, r6, r6, lsl #12
    56c0:	0e210200 	cdpeq	2, 2, cr0, cr1, cr0, {0}
    56c4:	000000b9 	strheq	r0, [r0], -r9
    56c8:	008c0407 	addeq	r0, ip, r7, lsl #8
    56cc:	ba090000 	blt	2456d4 <__bss_end__+0x23a62c>
    56d0:	01000006 	tsteq	r0, r6
    56d4:	010c0703 	tsteq	ip, r3, lsl #14
    56d8:	a3300000 	teqge	r0, #0, 0
    56dc:	00180000 	andseq	r0, r8, r0
    56e0:	9c010000 	stcls	0, cr0, [r1], {-0}
    56e4:	0000010c 	andeq	r0, r0, ip, lsl #2
    56e8:	0031730a 	eorseq	r7, r1, sl, lsl #6
    56ec:	0c150301 	ldceq	3, cr0, [r5], {1}
    56f0:	01000001 	tsteq	r0, r1
    56f4:	32730b50 	rsbscc	r0, r3, #80, 22	; 0x14000
    56f8:	26030100 	strcs	r0, [r3], -r0, lsl #2
    56fc:	0000009b 	muleq	r0, fp, r0
    5700:	000039e5 	andeq	r3, r0, r5, ror #19
    5704:	000039df 	ldrdeq	r3, [r0], -pc	; <UNPREDICTABLE>
    5708:	0100730c 	tsteq	r0, ip, lsl #6
    570c:	010c1404 	tsteq	ip, r4, lsl #8
    5710:	3a120000 	bcc	485718 <__bss_end__+0x47a670>
    5714:	3a100000 	bcc	40571c <__bss_end__+0x3fa674>
    5718:	07000000 	streq	r0, [r0, -r0]
    571c:	0000a104 	andeq	sl, r0, r4, lsl #2
    5720:	014e0000 	mrseq	r0, (UNDEF: 78)
    5724:	00040000 	andeq	r0, r4, r0
    5728:	00001f6c 	andeq	r1, r0, ip, ror #30
    572c:	04e60104 	strbteq	r0, [r6], #260	; 0x104
    5730:	6a0c0000 	bvs	305738 <__bss_end__+0x2fa690>
    5734:	9e00000c 	cdpls	0, 0, cr0, cr0, cr12, {0}
    5738:	48000005 	stmdami	r0, {r0, r2}
    573c:	300000a3 	andcc	r0, r0, r3, lsr #1
    5740:	4f000000 	svcmi	0x00000000
    5744:	0200002c 	andeq	r0, r0, #44, 0	; 0x2c
    5748:	6e690504 	cdpvs	5, 6, cr0, cr9, cr4, {0}
    574c:	cf030074 	svcgt	0x00030074
    5750:	03000004 	movweq	r0, #4
    5754:	003817d1 	ldrsbteq	r1, [r8], -r1
    5758:	04040000 	streq	r0, [r4], #-0
    575c:	00019107 	andeq	r9, r1, r7, lsl #2
    5760:	06010400 	streq	r0, [r1], -r0, lsl #8
    5764:	00000041 	andeq	r0, r0, r1, asr #32
    5768:	ce050204 	cdpgt	2, 0, cr0, cr5, cr4, {0}
    576c:	04000001 	streq	r0, [r0], #-1
    5770:	01b20504 			; <UNDEFINED> instruction: 0x01b20504
    5774:	08040000 	stmdaeq	r4, {}	; <UNPREDICTABLE>
    5778:	0001ad05 	andeq	sl, r1, r5, lsl #26
    577c:	08010400 	stmdaeq	r1, {sl}
    5780:	0000003f 	andeq	r0, r0, pc, lsr r0
    5784:	00005b05 	andeq	r5, r0, r5, lsl #22
    5788:	07020400 	streq	r0, [r2, -r0, lsl #8]
    578c:	00000079 	andeq	r0, r0, r9, ror r0
    5790:	8c070404 	cfstrshi	mvf0, [r7], {4}
    5794:	04000001 	streq	r0, [r0], #-1
    5798:	01870708 	orreq	r0, r7, r8, lsl #14
    579c:	25060000 	strcs	r0, [r6, #-0]
    57a0:	8b000000 	blhi	57a8 <__code_start__-0x2858>
    57a4:	07000000 	streq	r0, [r0, -r0]
    57a8:	00000025 	andeq	r0, r0, r5, lsr #32
    57ac:	01bb0800 			; <UNDEFINED> instruction: 0x01bb0800
    57b0:	1c020000 	stcne	0, cr0, [r2], {-0}
    57b4:	0000970e 	andeq	r9, r0, lr, lsl #14
    57b8:	7c040900 			; <UNDEFINED> instruction: 0x7c040900
    57bc:	06000000 	streq	r0, [r0], -r0
    57c0:	00000025 	andeq	r0, r0, r5, lsr #32
    57c4:	000000ac 	andeq	r0, r0, ip, lsr #1
    57c8:	0000ac07 	andeq	sl, r0, r7, lsl #24
    57cc:	04090000 	streq	r0, [r9], #-0
    57d0:	000000b9 	strheq	r0, [r0], -r9
    57d4:	48080104 	stmdami	r8, {r2, r8}
    57d8:	05000000 	streq	r0, [r0, #-0]
    57dc:	000000b2 	strheq	r0, [r0], -r2
    57e0:	00060608 	andeq	r0, r6, r8, lsl #12
    57e4:	0e210200 	cdpeq	2, 2, cr0, cr1, cr0, {0}
    57e8:	000000ca 	andeq	r0, r0, sl, asr #1
    57ec:	009d0409 	addseq	r0, sp, r9, lsl #8
    57f0:	020a0000 	andeq	r0, sl, #0, 0
    57f4:	01000007 	tsteq	r0, r7
    57f8:	00250504 	eoreq	r0, r5, r4, lsl #10
    57fc:	a3480000 	movtge	r0, #32768	; 0x8000
    5800:	00300000 	eorseq	r0, r0, r0
    5804:	9c010000 	stcls	0, cr0, [r1], {-0}
    5808:	0000014b 	andeq	r0, r0, fp, asr #2
    580c:	31735f0b 	cmncc	r3, fp, lsl #30
    5810:	19040100 	stmdbne	r4, {r8}
    5814:	000000ac 	andeq	r0, r0, ip, lsr #1
    5818:	00003a29 	andeq	r3, r0, r9, lsr #20
    581c:	00003a25 	andeq	r3, r0, r5, lsr #20
    5820:	32735f0b 	rsbscc	r5, r3, #11, 30	; 0x2c
    5824:	2a040100 	bcs	105c2c <__bss_end__+0xfab84>
    5828:	000000ac 	andeq	r0, r0, ip, lsr #1
    582c:	00003a4e 	andeq	r3, r0, lr, asr #20
    5830:	00003a4a 	andeq	r3, r0, sl, asr #20
    5834:	01006e0b 	tsteq	r0, fp, lsl #28
    5838:	002c3604 	eoreq	r3, ip, r4, lsl #12
    583c:	3a790000 	bcc	1e45844 <__bss_end__+0x1e3a79c>
    5840:	3a6f0000 	bcc	1bc5848 <__bss_end__+0x1bba7a0>
    5844:	730c0000 	movwvc	r0, #49152	; 0xc000
    5848:	05010031 	streq	r0, [r1, #-49]	; 0xffffffcf
    584c:	00014b1a 	andeq	r4, r1, sl, lsl fp
    5850:	003ad000 	eorseq	sp, sl, r0
    5854:	003ac800 	eorseq	ip, sl, r0, lsl #16
    5858:	32730c00 	rsbscc	r0, r3, #0, 24
    585c:	2c050100 	stfcss	f0, [r5], {-0}
    5860:	0000014b 	andeq	r0, r0, fp, asr #2
    5864:	00003b0e 	andeq	r3, r0, lr, lsl #22
    5868:	00003b08 	andeq	r3, r0, r8, lsl #22
    586c:	62040900 	andvs	r0, r4, #0, 18
    5870:	00000000 	andeq	r0, r0, r0
    5874:	000000ce 	andeq	r0, r0, lr, asr #1
    5878:	20200004 	eorcs	r0, r0, r4
    587c:	01040000 	mrseq	r0, (UNDEF: 4)
    5880:	000004e6 	andeq	r0, r0, r6, ror #9
    5884:	000c7b0c 	andeq	r7, ip, ip, lsl #22
    5888:	00059e00 	andeq	r9, r5, r0, lsl #28
    588c:	00a37800 	adceq	r7, r3, r0, lsl #16
    5890:	00000400 	andeq	r0, r0, r0, lsl #8
    5894:	002d5000 	eoreq	r5, sp, r0
    5898:	05040200 	streq	r0, [r4, #-512]	; 0xfffffe00
    589c:	00746e69 	rsbseq	r6, r4, r9, ror #28
    58a0:	91070403 	tstls	r7, r3, lsl #8
    58a4:	03000001 	movweq	r0, #1
    58a8:	00410601 	subeq	r0, r1, r1, lsl #12
    58ac:	02030000 	andeq	r0, r3, #0, 0
    58b0:	0001ce05 	andeq	ip, r1, r5, lsl #28
    58b4:	05040300 	streq	r0, [r4, #-768]	; 0xfffffd00
    58b8:	000001b2 			; <UNDEFINED> instruction: 0x000001b2
    58bc:	ad050803 	stcge	8, cr0, [r5, #-12]
    58c0:	03000001 	movweq	r0, #1
    58c4:	003f0801 	eorseq	r0, pc, r1, lsl #16
    58c8:	02030000 	andeq	r0, r3, #0, 0
    58cc:	00007907 	andeq	r7, r0, r7, lsl #18
    58d0:	07040300 	streq	r0, [r4, -r0, lsl #6]
    58d4:	0000018c 	andeq	r0, r0, ip, lsl #3
    58d8:	87070803 	strhi	r0, [r7, -r3, lsl #16]
    58dc:	04000001 	streq	r0, [r0], #-1
    58e0:	00000025 	andeq	r0, r0, r5, lsr #32
    58e4:	0000007a 	andeq	r0, r0, sl, ror r0
    58e8:	00002505 	andeq	r2, r0, r5, lsl #10
    58ec:	bb060000 	bllt	1858f4 <__bss_end__+0x17a84c>
    58f0:	02000001 	andeq	r0, r0, #1, 0
    58f4:	00860e1c 	addeq	r0, r6, ip, lsl lr
    58f8:	04070000 	streq	r0, [r7], #-0
    58fc:	0000006b 	andeq	r0, r0, fp, rrx
    5900:	00002504 	andeq	r2, r0, r4, lsl #10
    5904:	00009b00 	andeq	r9, r0, r0, lsl #22
    5908:	009b0500 	addseq	r0, fp, r0, lsl #10
    590c:	07000000 	streq	r0, [r0, -r0]
    5910:	0000a804 	andeq	sl, r0, r4, lsl #16
    5914:	08010300 	stmdaeq	r1, {r8, r9}
    5918:	00000048 	andeq	r0, r0, r8, asr #32
    591c:	0000a108 	andeq	sl, r0, r8, lsl #2
    5920:	06060600 	streq	r0, [r6], -r0, lsl #12
    5924:	21020000 	mrscs	r0, (UNDEF: 2)
    5928:	0000b90e 	andeq	fp, r0, lr, lsl #18
    592c:	8c040700 	stchi	7, cr0, [r4], {-0}
    5930:	09000000 	stmdbeq	r0, {}	; <UNPREDICTABLE>
    5934:	000007a9 	andeq	r0, r0, r9, lsr #15
    5938:	78060301 	stmdavc	r6, {r0, r8, r9}
    593c:	040000a3 	streq	r0, [r0], #-163	; 0xffffff5d
    5940:	01000000 	mrseq	r0, (UNDEF: 0)
    5944:	Address 0x0000000000005944 is out of bounds.


Disassembly of section .debug_abbrev:

00000000 <.debug_abbrev>:
       0:	25011101 	strcs	r1, [r1, #-257]	; 0xfffffeff
       4:	030b130e 	movweq	r1, #45838	; 0xb30e
       8:	110e1b0e 	tstne	lr, lr, lsl #22
       c:	10061201 	andne	r1, r6, r1, lsl #4
      10:	02000017 	andeq	r0, r0, #23, 0
      14:	0b0b0024 	bleq	2c00ac <__bss_end__+0x2b5004>
      18:	08030b3e 	stmdaeq	r3, {r1, r2, r3, r4, r5, r8, r9, fp}
      1c:	24030000 	strcs	r0, [r3], #-0
      20:	3e0b0b00 	vmlacc.f64	d0, d11, d0
      24:	000e030b 	andeq	r0, lr, fp, lsl #6
      28:	01150400 	tsteq	r5, r0, lsl #8
      2c:	13491927 	movtne	r1, #39207	; 0x9927
      30:	00001301 	andeq	r1, r0, r1, lsl #6
      34:	49000505 	stmdbmi	r0, {r0, r2, r8, sl}
      38:	06000013 			; <UNDEFINED> instruction: 0x06000013
      3c:	0e030034 	mcreq	0, 0, r0, cr3, cr4, {1}
      40:	0b3b0b3a 	bleq	ec2d30 <__bss_end__+0xeb7c88>
      44:	13490b39 	movtne	r0, #39737	; 0x9b39
      48:	193c193f 	ldmdbne	ip!, {r0, r1, r2, r3, r4, r5, r8, fp, ip}
      4c:	0f070000 	svceq	0x00070000
      50:	490b0b00 	stmdbmi	fp, {r8, r9, fp}
      54:	08000013 	stmdaeq	r0, {r0, r1, r4}
      58:	13490026 	movtne	r0, #36902	; 0x9026
      5c:	13090000 	movwne	r0, #36864	; 0x9000
      60:	3a0b0b01 	bcc	2c2c6c <__bss_end__+0x2b7bc4>
      64:	390b3b0b 	stmdbcc	fp, {r0, r1, r3, r8, r9, fp, ip, sp}
      68:	0013010b 	andseq	r0, r3, fp, lsl #2
      6c:	000d0a00 	andeq	r0, sp, r0, lsl #20
      70:	0b3a0e03 	bleq	e83884 <__bss_end__+0xe787dc>
      74:	0b390b3b 	bleq	e42d68 <__bss_end__+0xe37cc0>
      78:	0b381349 	bleq	e04da4 <__bss_end__+0xdf9cfc>
      7c:	160b0000 	strne	r0, [fp], -r0
      80:	3a0e0300 	bcc	380c88 <__bss_end__+0x375be0>
      84:	390b3b0b 	stmdbcc	fp, {r0, r1, r3, r8, r9, fp, ip, sp}
      88:	0013490b 	andseq	r4, r3, fp, lsl #18
      8c:	000f0c00 	andeq	r0, pc, r0, lsl #24
      90:	00000b0b 	andeq	r0, r0, fp, lsl #22
      94:	3f012e0d 	svccc	0x00012e0d
      98:	3a0e0319 	bcc	380d04 <__bss_end__+0x375c5c>
      9c:	390b3b0b 	stmdbcc	fp, {r0, r1, r3, r8, r9, fp, ip, sp}
      a0:	1119270b 	tstne	r9, fp, lsl #14
      a4:	40061201 	andmi	r1, r6, r1, lsl #4
      a8:	19429718 	stmdbne	r2, {r3, r4, r8, r9, sl, ip, pc}^
      ac:	00001301 	andeq	r1, r0, r1, lsl #6
      b0:	0300340e 	movweq	r3, #1038	; 0x40e
      b4:	3b0b3a08 	blcc	2ce8dc <__bss_end__+0x2c3834>
      b8:	490b390b 	stmdbmi	fp, {r0, r1, r3, r8, fp, ip, sp}
      bc:	b7170213 			; <UNDEFINED> instruction: 0xb7170213
      c0:	00001742 	andeq	r1, r0, r2, asr #14
      c4:	0300340f 	movweq	r3, #1039	; 0x40f
      c8:	3413490e 	ldrcc	r4, [r3], #-2318	; 0xfffff6f2
      cc:	00180219 	andseq	r0, r8, r9, lsl r2
      d0:	011d1000 	tsteq	sp, r0
      d4:	01521331 	cmpeq	r2, r1, lsr r3
      d8:	550b42b8 	strpl	r4, [fp, #-696]	; 0xfffffd48
      dc:	590b5817 	stmdbpl	fp, {r0, r1, r2, r4, fp, ip, lr}
      e0:	010b570b 	tsteq	fp, fp, lsl #14
      e4:	11000013 	tstne	r0, r3, lsl r0
      e8:	13310005 	teqne	r1, #5, 0
      ec:	42b71702 	adcsmi	r1, r7, #524288	; 0x80000
      f0:	12000017 	andne	r0, r0, #23, 0
      f4:	1331011d 	teqne	r1, #1073741831	; 0x40000007
      f8:	42b80152 	adcsmi	r0, r8, #-2147483628	; 0x80000014
      fc:	1201110b 	andne	r1, r1, #-1073741822	; 0xc0000002
     100:	590b5806 	stmdbpl	fp, {r1, r2, fp, ip, lr}
     104:	010b570b 	tsteq	fp, fp, lsl #14
     108:	13000013 	movwne	r0, #19
     10c:	01018289 	smlabbeq	r1, r9, r2, r8
     110:	13310111 	teqne	r1, #1073741828	; 0x40000004
     114:	00001301 	andeq	r1, r0, r1, lsl #6
     118:	01828a14 	orreq	r8, r2, r4, lsl sl
     11c:	91180200 	tstls	r8, r0, lsl #4
     120:	00001842 	andeq	r1, r0, r2, asr #16
     124:	01828915 	orreq	r8, r2, r5, lsl r9
     128:	31011100 	mrscc	r1, (UNDEF: 17)
     12c:	16000013 			; <UNDEFINED> instruction: 0x16000013
     130:	01018289 	smlabbeq	r1, r9, r2, r8
     134:	42950111 	addsmi	r0, r5, #1073741828	; 0x40000004
     138:	01133119 	tsteq	r3, r9, lsl r1
     13c:	17000013 	smladne	r0, r3, r0, r0
     140:	13490101 	movtne	r0, #37121	; 0x9101
     144:	00001301 	andeq	r1, r0, r1, lsl #6
     148:	49002118 	stmdbmi	r0, {r3, r4, r8, sp}
     14c:	000b2f13 	andeq	r2, fp, r3, lsl pc
     150:	012e1900 			; <UNDEFINED> instruction: 0x012e1900
     154:	0b3a0e03 	bleq	e83968 <__bss_end__+0xe788c0>
     158:	0b390b3b 	bleq	e42e4c <__bss_end__+0xe37da4>
     15c:	13491927 	movtne	r1, #39207	; 0x9927
     160:	13010b20 	movwne	r0, #6944	; 0x1b20
     164:	051a0000 	ldreq	r0, [sl, #-0]
     168:	3a0e0300 	bcc	380d70 <__bss_end__+0x375cc8>
     16c:	390b3b0b 	stmdbcc	fp, {r0, r1, r3, r8, r9, fp, ip, sp}
     170:	0013490b 	andseq	r4, r3, fp, lsl #18
     174:	00361b00 	eorseq	r1, r6, r0, lsl #22
     178:	00001802 	andeq	r1, r0, r2, lsl #16
     17c:	3f002e1c 	svccc	0x00002e1c
     180:	6e193c19 	mrcvs	12, 0, r3, cr9, cr9, {0}
     184:	3a0e030e 	bcc	380dc4 <__bss_end__+0x375d1c>
     188:	390b3b0b 	stmdbcc	fp, {r0, r1, r3, r8, r9, fp, ip, sp}
     18c:	0000000b 	andeq	r0, r0, fp
     190:	25011101 	strcs	r1, [r1, #-257]	; 0xfffffeff
     194:	030b130e 	movweq	r1, #45838	; 0xb30e
     198:	110e1b0e 	tstne	lr, lr, lsl #22
     19c:	10061201 	andne	r1, r6, r1, lsl #4
     1a0:	02000017 	andeq	r0, r0, #23, 0
     1a4:	0b0b0024 	bleq	2c023c <__bss_end__+0x2b5194>
     1a8:	08030b3e 	stmdaeq	r3, {r1, r2, r3, r4, r5, r8, r9, fp}
     1ac:	24030000 	strcs	r0, [r3], #-0
     1b0:	3e0b0b00 	vmlacc.f64	d0, d11, d0
     1b4:	000e030b 	andeq	r0, lr, fp, lsl #6
     1b8:	00160400 	andseq	r0, r6, r0, lsl #8
     1bc:	0b3a0e03 	bleq	e839d0 <__bss_end__+0xe78928>
     1c0:	0b390b3b 	bleq	e42eb4 <__bss_end__+0xe37e0c>
     1c4:	00001349 	andeq	r1, r0, r9, asr #6
     1c8:	27011505 	strcs	r1, [r1, -r5, lsl #10]
     1cc:	01134919 	tsteq	r3, r9, lsl r9
     1d0:	06000013 			; <UNDEFINED> instruction: 0x06000013
     1d4:	13490005 	movtne	r0, #36869	; 0x9005
     1d8:	34070000 	strcc	r0, [r7], #-0
     1dc:	3a0e0300 	bcc	380de4 <__bss_end__+0x375d3c>
     1e0:	390b3b0b 	stmdbcc	fp, {r0, r1, r3, r8, r9, fp, ip, sp}
     1e4:	3f13490b 	svccc	0x0013490b
     1e8:	00193c19 	andseq	r3, r9, r9, lsl ip
     1ec:	000f0800 	andeq	r0, pc, r0, lsl #16
     1f0:	13490b0b 	movtne	r0, #39691	; 0x9b0b
     1f4:	26090000 	strcs	r0, [r9], -r0
     1f8:	00134900 	andseq	r4, r3, r0, lsl #18
     1fc:	01130a00 	tsteq	r3, r0, lsl #20
     200:	0b3a0b0b 	bleq	e82e34 <__bss_end__+0xe77d8c>
     204:	0b390b3b 	bleq	e42ef8 <__bss_end__+0xe37e50>
     208:	00001301 	andeq	r1, r0, r1, lsl #6
     20c:	03000d0b 	movweq	r0, #3339	; 0xd0b
     210:	3b0b3a0e 	blcc	2cea50 <__bss_end__+0x2c39a8>
     214:	490b390b 	stmdbmi	fp, {r0, r1, r3, r8, fp, ip, sp}
     218:	000b3813 	andeq	r3, fp, r3, lsl r8
     21c:	01040c00 	tsteq	r4, r0, lsl #24
     220:	0b0b0b3e 	bleq	2c2f20 <__bss_end__+0x2b7e78>
     224:	0b3a1349 	bleq	e84f50 <__bss_end__+0xe79ea8>
     228:	0b390b3b 	bleq	e42f1c <__bss_end__+0xe37e74>
     22c:	00001301 	andeq	r1, r0, r1, lsl #6
     230:	0300280d 	movweq	r2, #2061	; 0x80d
     234:	000b1c0e 	andeq	r1, fp, lr, lsl #24
     238:	01130e00 	tsteq	r3, r0, lsl #28
     23c:	0b0b0e03 	bleq	2c3a50 <__bss_end__+0x2b89a8>
     240:	0b3b0b3a 	bleq	ec2f30 <__bss_end__+0xeb7e88>
     244:	13010b39 	movwne	r0, #6969	; 0x1b39
     248:	0d0f0000 	stceq	0, cr0, [pc, #-0]	; 250 <__code_start__-0x7db0>
     24c:	3a080300 	bcc	200e54 <__bss_end__+0x1f5dac>
     250:	390b3b0b 	stmdbcc	fp, {r0, r1, r3, r8, r9, fp, ip, sp}
     254:	3813490b 	ldmdacc	r3, {r0, r1, r3, r8, fp, lr}
     258:	1000000b 	andne	r0, r0, fp
     25c:	13490101 	movtne	r0, #37121	; 0x9101
     260:	00001301 	andeq	r1, r0, r1, lsl #6
     264:	49002111 	stmdbmi	r0, {r0, r4, r8, sp}
     268:	000b2f13 	andeq	r2, fp, r3, lsl pc
     26c:	000f1200 	andeq	r1, pc, r0, lsl #4
     270:	00000b0b 	andeq	r0, r0, fp, lsl #22
     274:	03003413 	movweq	r3, #1043	; 0x413
     278:	3b0b3a0e 	blcc	2ceab8 <__bss_end__+0x2c3a10>
     27c:	490b390b 	stmdbmi	fp, {r0, r1, r3, r8, fp, ip, sp}
     280:	00180213 	andseq	r0, r8, r3, lsl r2
     284:	012e1400 			; <UNDEFINED> instruction: 0x012e1400
     288:	0e03193f 			; <UNDEFINED> instruction: 0x0e03193f
     28c:	0b3b0b3a 	bleq	ec2f7c <__bss_end__+0xeb7ed4>
     290:	19270b39 	stmdbne	r7!, {r0, r3, r4, r5, r8, r9, fp}
     294:	01111349 	tsteq	r1, r9, asr #6
     298:	18400612 	stmdane	r0, {r1, r4, r9, sl}^
     29c:	01194297 			; <UNDEFINED> instruction: 0x01194297
     2a0:	15000013 	strne	r0, [r0, #-19]	; 0xffffffed
     2a4:	0e030005 	cdpeq	0, 0, cr0, cr3, cr5, {0}
     2a8:	0b3b0b3a 	bleq	ec2f98 <__bss_end__+0xeb7ef0>
     2ac:	13490b39 	movtne	r0, #39737	; 0x9b39
     2b0:	42b71702 	adcsmi	r1, r7, #524288	; 0x80000
     2b4:	16000017 			; <UNDEFINED> instruction: 0x16000017
     2b8:	08030005 	stmdaeq	r3, {r0, r2}
     2bc:	0b3b0b3a 	bleq	ec2fac <__bss_end__+0xeb7f04>
     2c0:	13490b39 	movtne	r0, #39737	; 0x9b39
     2c4:	00001802 	andeq	r1, r0, r2, lsl #16
     2c8:	03003417 	movweq	r3, #1047	; 0x417
     2cc:	3b0b3a08 	blcc	2ceaf4 <__bss_end__+0x2c3a4c>
     2d0:	490b390b 	stmdbmi	fp, {r0, r1, r3, r8, fp, ip, sp}
     2d4:	b7170213 			; <UNDEFINED> instruction: 0xb7170213
     2d8:	00001742 	andeq	r1, r0, r2, asr #14
     2dc:	55010b18 	strpl	r0, [r1, #-2840]	; 0xfffff4e8
     2e0:	00130117 	andseq	r0, r3, r7, lsl r1
     2e4:	82891900 	addhi	r1, r9, #0, 18
     2e8:	01110101 	tsteq	r1, r1, lsl #2
     2ec:	13011331 	movwne	r1, #4913	; 0x1331
     2f0:	8a1a0000 	bhi	6802f8 <__bss_end__+0x675250>
     2f4:	02000182 	andeq	r0, r0, #-2147483616	; 0x80000020
     2f8:	18429118 	stmdane	r2, {r3, r4, r8, ip, pc}^
     2fc:	891b0000 	ldmdbhi	fp, {}	; <UNPREDICTABLE>
     300:	11010182 	smlabbne	r1, r2, r1, r0
     304:	00133101 	andseq	r3, r3, r1, lsl #2
     308:	012e1c00 			; <UNDEFINED> instruction: 0x012e1c00
     30c:	0e03193f 			; <UNDEFINED> instruction: 0x0e03193f
     310:	0b3b0b3a 	bleq	ec3000 <__bss_end__+0xeb7f58>
     314:	19270b39 	stmdbne	r7!, {r0, r3, r4, r5, r8, r9, fp}
     318:	06120111 			; <UNDEFINED> instruction: 0x06120111
     31c:	42971840 	addsmi	r1, r7, #64, 16	; 0x400000
     320:	00130119 	andseq	r0, r3, r9, lsl r1
     324:	00051d00 	andeq	r1, r5, r0, lsl #26
     328:	0b3a0803 	bleq	e8233c <__bss_end__+0xe77294>
     32c:	0b390b3b 	bleq	e43020 <__bss_end__+0xe37f78>
     330:	17021349 	strne	r1, [r2, -r9, asr #6]
     334:	001742b7 			; <UNDEFINED> instruction: 0x001742b7
     338:	00341e00 	eorseq	r1, r4, r0, lsl #28
     33c:	13490e03 	movtne	r0, #40451	; 0x9e03
     340:	18021934 	stmdane	r2, {r2, r4, r5, r8, fp, ip}
     344:	341f0000 	ldrcc	r0, [pc], #-0	; 34c <__code_start__-0x7cb4>
     348:	3a080300 	bcc	200f50 <__bss_end__+0x1f5ea8>
     34c:	390b3b0b 	stmdbcc	fp, {r0, r1, r3, r8, r9, fp, ip, sp}
     350:	0013490b 	andseq	r4, r3, fp, lsl #18
     354:	82892000 	addhi	r2, r9, #0, 0
     358:	01110001 	tsteq	r1, r1
     35c:	00001331 	andeq	r1, r0, r1, lsr r3
     360:	11010b21 	tstne	r1, r1, lsr #22
     364:	01061201 	tsteq	r6, r1, lsl #4
     368:	22000013 	andcs	r0, r0, #19, 0
     36c:	1331011d 	teqne	r1, #1073741831	; 0x40000007
     370:	42b80152 	adcsmi	r0, r8, #-2147483628	; 0x80000014
     374:	5817550b 	ldmdapl	r7, {r0, r1, r3, r8, sl, ip, lr}
     378:	570b590b 	strpl	r5, [fp, -fp, lsl #18]
     37c:	0013010b 	andseq	r0, r3, fp, lsl #2
     380:	00052300 	andeq	r2, r5, r0, lsl #6
     384:	17021331 	smladxne	r2, r1, r3, r1
     388:	001742b7 			; <UNDEFINED> instruction: 0x001742b7
     38c:	010b2400 	tsteq	fp, r0, lsl #8
     390:	17551331 	smmlarne	r5, r1, r3, r1
     394:	34250000 	strtcc	r0, [r5], #-0
     398:	02133100 	andseq	r3, r3, #0
     39c:	1742b717 	smlaldne	fp, r2, r7, r7
     3a0:	1d260000 	stcne	0, cr0, [r6, #-0]
     3a4:	52133100 	andspl	r3, r3, #0
     3a8:	0b42b801 	bleq	10ae3b4 <__bss_end__+0x10a330c>
     3ac:	0b581755 	bleq	1606108 <__bss_end__+0x15fb060>
     3b0:	0b570b59 	bleq	15c311c <__bss_end__+0x15b8074>
     3b4:	1d270000 	stcne	0, cr0, [r7, #-0]
     3b8:	52133101 	andspl	r3, r3, #1073741824	; 0x40000000
     3bc:	0b42b801 	bleq	10ae3c8 <__bss_end__+0x10a3320>
     3c0:	06120111 			; <UNDEFINED> instruction: 0x06120111
     3c4:	0b590b58 	bleq	164312c <__bss_end__+0x1638084>
     3c8:	13010b57 	movwne	r0, #6999	; 0x1b57
     3cc:	0b280000 	bleq	a003d4 <__bss_end__+0x9f532c>
     3d0:	00175501 	andseq	r5, r7, r1, lsl #10
     3d4:	011d2900 	tsteq	sp, r0, lsl #18
     3d8:	01521331 	cmpeq	r2, r1, lsr r3
     3dc:	550b42b8 	strpl	r4, [fp, #-696]	; 0xfffffd48
     3e0:	590b5817 	stmdbpl	fp, {r0, r1, r2, r4, fp, ip, lr}
     3e4:	000b570b 	andeq	r5, fp, fp, lsl #14
     3e8:	82892a00 	addhi	r2, r9, #0, 20
     3ec:	01110101 	tsteq	r1, r1, lsl #2
     3f0:	31194295 			; <UNDEFINED> instruction: 0x31194295
     3f4:	2b000013 	blcs	448 <__code_start__-0x7bb8>
     3f8:	193f012e 	ldmdbne	pc!, {r1, r2, r3, r5, r8}	; <UNPREDICTABLE>
     3fc:	0b3a0e03 	bleq	e83c10 <__bss_end__+0xe78b68>
     400:	0b390b3b 	bleq	e430f4 <__bss_end__+0xe3804c>
     404:	13491927 	movtne	r1, #39207	; 0x9927
     408:	13010b20 	movwne	r0, #6944	; 0x1b20
     40c:	052c0000 	streq	r0, [ip, #-0]!
     410:	3a080300 	bcc	201018 <__bss_end__+0x1f5f70>
     414:	390b3b0b 	stmdbcc	fp, {r0, r1, r3, r8, r9, fp, ip, sp}
     418:	0013490b 	andseq	r4, r3, fp, lsl #18
     41c:	010b2d00 	tsteq	fp, r0, lsl #26
     420:	2e2e0000 	cdpcs	0, 2, cr0, cr14, cr0, {0}
     424:	03193f00 	tsteq	r9, #0, 30
     428:	3b0b3a0e 	blcc	2cec68 <__bss_end__+0x2c3bc0>
     42c:	270b390b 	strcs	r3, [fp, -fp, lsl #18]
     430:	20134919 	andscs	r4, r3, r9, lsl r9
     434:	2f00000b 	svccs	0x0000000b
     438:	0e03012e 	adfeqsp	f0, f3, #0.5
     43c:	0b3b0b3a 	bleq	ec312c <__bss_end__+0xeb8084>
     440:	19270b39 	stmdbne	r7!, {r0, r3, r4, r5, r8, r9, fp}
     444:	0b201349 	bleq	805170 <__bss_end__+0x7fa0c8>
     448:	00001301 	andeq	r1, r0, r1, lsl #6
     44c:	31002e30 	tstcc	r0, r0, lsr lr
     450:	12011113 	andne	r1, r1, #-1073741820	; 0xc0000004
     454:	97184006 	ldrls	r4, [r8, -r6]
     458:	00001942 	andeq	r1, r0, r2, asr #18
     45c:	31012e31 	tstcc	r1, r1, lsr lr
     460:	12011113 	andne	r1, r1, #-1073741820	; 0xc0000004
     464:	97184006 	ldrls	r4, [r8, -r6]
     468:	13011942 	movwne	r1, #6466	; 0x1942
     46c:	05320000 	ldreq	r0, [r2, #-0]!
     470:	02133100 	andseq	r3, r3, #0
     474:	33000018 	movwcc	r0, #24
     478:	1331011d 	teqne	r1, #1073741831	; 0x40000007
     47c:	42b80152 	adcsmi	r0, r8, #-2147483628	; 0x80000014
     480:	1201110b 	andne	r1, r1, #-1073741822	; 0xc0000002
     484:	590b5806 	stmdbpl	fp, {r1, r2, fp, ip, lr}
     488:	000b570b 	andeq	r5, fp, fp, lsl #14
     48c:	002e3400 	eoreq	r3, lr, r0, lsl #8
     490:	193c193f 	ldmdbne	ip!, {r0, r1, r2, r3, r4, r5, r8, fp, ip}
     494:	0e030e6e 	cdpeq	14, 0, cr0, cr3, cr14, {3}
     498:	0b3b0b3a 	bleq	ec3188 <__bss_end__+0xeb80e0>
     49c:	00000b39 	andeq	r0, r0, r9, lsr fp
     4a0:	01110100 	tsteq	r1, r0, lsl #2
     4a4:	0b130e25 	bleq	4c3d40 <__bss_end__+0x4b8c98>
     4a8:	0e1b0e03 	cdpeq	14, 1, cr0, cr11, cr3, {0}
     4ac:	06120111 			; <UNDEFINED> instruction: 0x06120111
     4b0:	00001710 	andeq	r1, r0, r0, lsl r7
     4b4:	0b002402 	bleq	94c4 <va_printk+0x274>
     4b8:	030b3e0b 	movweq	r3, #48651	; 0xbe0b
     4bc:	03000008 	movweq	r0, #8
     4c0:	0b0b0024 	bleq	2c0558 <__bss_end__+0x2b54b0>
     4c4:	0e030b3e 	vmoveq.16	d3[0], r0
     4c8:	15040000 	strne	r0, [r4, #-0]
     4cc:	49192701 	ldmdbmi	r9, {r0, r8, r9, sl, sp}
     4d0:	00130113 	andseq	r0, r3, r3, lsl r1
     4d4:	00050500 	andeq	r0, r5, r0, lsl #10
     4d8:	00001349 	andeq	r1, r0, r9, asr #6
     4dc:	03003406 	movweq	r3, #1030	; 0x406
     4e0:	3b0b3a0e 	blcc	2ced20 <__bss_end__+0x2c3c78>
     4e4:	490b390b 	stmdbmi	fp, {r0, r1, r3, r8, fp, ip, sp}
     4e8:	3c193f13 	ldccc	15, cr3, [r9], {19}
     4ec:	07000019 	smladeq	r0, r9, r0, r0
     4f0:	0b0b000f 	bleq	2c0534 <__bss_end__+0x2b548c>
     4f4:	00001349 	andeq	r1, r0, r9, asr #6
     4f8:	49002608 	stmdbmi	r0, {r3, r9, sl, sp}
     4fc:	09000013 	stmdbeq	r0, {r0, r1, r4}
     500:	0e030117 	mcreq	1, 0, r0, cr3, cr7, {0}
     504:	0b3a0b0b 	bleq	e83138 <__bss_end__+0xe78090>
     508:	0b390b3b 	bleq	e431fc <__bss_end__+0xe38154>
     50c:	00001301 	andeq	r1, r0, r1, lsl #6
     510:	03000d0a 	movweq	r0, #3338	; 0xd0a
     514:	3b0b3a08 	blcc	2ced3c <__bss_end__+0x2c3c94>
     518:	490b390b 	stmdbmi	fp, {r0, r1, r3, r8, fp, ip, sp}
     51c:	0b000013 	bleq	570 <__code_start__-0x7a90>
     520:	0b0b000f 	bleq	2c0564 <__bss_end__+0x2b54bc>
     524:	150c0000 	strne	r0, [ip, #-0]
     528:	00192700 	andseq	r2, r9, r0, lsl #14
     52c:	01130d00 	tsteq	r3, r0, lsl #26
     530:	0b3a0b0b 	bleq	e83164 <__bss_end__+0xe780bc>
     534:	0b390b3b 	bleq	e43228 <__bss_end__+0xe38180>
     538:	00001301 	andeq	r1, r0, r1, lsl #6
     53c:	03000d0e 	movweq	r0, #3342	; 0xd0e
     540:	3b0b3a08 	blcc	2ced68 <__bss_end__+0x2c3cc0>
     544:	490b390b 	stmdbmi	fp, {r0, r1, r3, r8, fp, ip, sp}
     548:	000b3813 	andeq	r3, fp, r3, lsl r8
     54c:	000d0f00 	andeq	r0, sp, r0, lsl #30
     550:	0b3a0e03 	bleq	e83d64 <__bss_end__+0xe78cbc>
     554:	0b390b3b 	bleq	e43248 <__bss_end__+0xe381a0>
     558:	0b381349 	bleq	e05284 <__bss_end__+0xdfa1dc>
     55c:	16100000 	ldrne	r0, [r0], -r0
     560:	3a0e0300 	bcc	381168 <__bss_end__+0x3760c0>
     564:	390b3b0b 	stmdbcc	fp, {r0, r1, r3, r8, r9, fp, ip, sp}
     568:	0013490b 	andseq	r4, r3, fp, lsl #18
     56c:	00341100 	eorseq	r1, r4, r0, lsl #2
     570:	0b3a0e03 	bleq	e83d84 <__bss_end__+0xe78cdc>
     574:	0b390b3b 	bleq	e43268 <__bss_end__+0xe381c0>
     578:	18021349 	stmdane	r2, {r0, r3, r6, r8, r9, ip}
     57c:	2e120000 	cdpcs	0, 1, cr0, cr2, cr0, {0}
     580:	03193f01 	tsteq	r9, #1, 30
     584:	3b0b3a0e 	blcc	2cedc4 <__bss_end__+0x2c3d1c>
     588:	270b390b 	strcs	r3, [fp, -fp, lsl #18]
     58c:	12011119 	andne	r1, r1, #1073741830	; 0x40000006
     590:	97184006 	ldrls	r4, [r8, -r6]
     594:	13011942 	movwne	r1, #6466	; 0x1942
     598:	05130000 	ldreq	r0, [r3, #-0]
     59c:	3a080300 	bcc	2011a4 <__bss_end__+0x1f60fc>
     5a0:	390b3b0b 	stmdbcc	fp, {r0, r1, r3, r8, r9, fp, ip, sp}
     5a4:	0213490b 	andseq	r4, r3, #180224	; 0x2c000
     5a8:	1742b717 	smlaldne	fp, r2, r7, r7
     5ac:	34140000 	ldrcc	r0, [r4], #-0
     5b0:	3a080300 	bcc	2011b8 <__bss_end__+0x1f6110>
     5b4:	390b3b0b 	stmdbcc	fp, {r0, r1, r3, r8, r9, fp, ip, sp}
     5b8:	0213490b 	andseq	r4, r3, #180224	; 0x2c000
     5bc:	1742b717 	smlaldne	fp, r2, r7, r7
     5c0:	2e150000 	cdpcs	0, 1, cr0, cr5, cr0, {0}
     5c4:	03193f01 	tsteq	r9, #1, 30
     5c8:	3b0b3a0e 	blcc	2cee08 <__bss_end__+0x2c3d60>
     5cc:	270b390b 	strcs	r3, [fp, -fp, lsl #18]
     5d0:	11134919 	tstne	r3, r9, lsl r9
     5d4:	40061201 	andmi	r1, r6, r1, lsl #4
     5d8:	19429718 	stmdbne	r2, {r3, r4, r8, r9, sl, ip, pc}^
     5dc:	00001301 	andeq	r1, r0, r1, lsl #6
     5e0:	03000516 	movweq	r0, #1302	; 0x516
     5e4:	3b0b3a0e 	blcc	2cee24 <__bss_end__+0x2c3d7c>
     5e8:	490b390b 	stmdbmi	fp, {r0, r1, r3, r8, fp, ip, sp}
     5ec:	b7170213 			; <UNDEFINED> instruction: 0xb7170213
     5f0:	00001742 	andeq	r1, r0, r2, asr #14
     5f4:	03003417 	movweq	r3, #1047	; 0x417
     5f8:	3b0b3a0e 	blcc	2cee38 <__bss_end__+0x2c3d90>
     5fc:	490b390b 	stmdbmi	fp, {r0, r1, r3, r8, fp, ip, sp}
     600:	b7170213 			; <UNDEFINED> instruction: 0xb7170213
     604:	00001742 	andeq	r1, r0, r2, asr #14
     608:	31011d18 	tstcc	r1, r8, lsl sp
     60c:	b8015213 	stmdalt	r1, {r0, r1, r4, r9, ip, lr}
     610:	17550b42 	ldrbne	r0, [r5, -r2, asr #22]
     614:	0b590b58 	bleq	164337c <__bss_end__+0x16382d4>
     618:	00000b57 	andeq	r0, r0, r7, asr fp
     61c:	31000519 	tstcc	r0, r9, lsl r5
     620:	b7170213 			; <UNDEFINED> instruction: 0xb7170213
     624:	00001742 	andeq	r1, r0, r2, asr #14
     628:	55010b1a 	strpl	r0, [r1, #-2842]	; 0xfffff4e6
     62c:	1b000017 	blne	690 <__code_start__-0x7970>
     630:	13310034 	teqne	r1, #52, 0	; 0x34
     634:	42b71702 	adcsmi	r1, r7, #524288	; 0x80000
     638:	1c000017 	stcne	0, cr0, [r0], {23}
     63c:	01018289 	smlabbeq	r1, r9, r2, r8
     640:	13310111 	teqne	r1, #1073741828	; 0x40000004
     644:	00001301 	andeq	r1, r0, r1, lsl #6
     648:	01828a1d 	orreq	r8, r2, sp, lsl sl
     64c:	91180200 	tstls	r8, r0, lsl #4
     650:	00001842 	andeq	r1, r0, r2, asr #16
     654:	0182891e 	orreq	r8, r2, lr, lsl r9
     658:	31011100 	mrscc	r1, (UNDEF: 17)
     65c:	1f000013 	svcne	0x00000013
     660:	0e03012e 	adfeqsp	f0, f3, #0.5
     664:	0b3b0b3a 	bleq	ec3354 <__bss_end__+0xeb82ac>
     668:	19270b39 	stmdbne	r7!, {r0, r3, r4, r5, r8, r9, fp}
     66c:	0b201349 	bleq	805398 <__bss_end__+0x7fa2f0>
     670:	00001301 	andeq	r1, r0, r1, lsl #6
     674:	03000520 	movweq	r0, #1312	; 0x520
     678:	3b0b3a08 	blcc	2ceea0 <__bss_end__+0x2c3df8>
     67c:	490b390b 	stmdbmi	fp, {r0, r1, r3, r8, fp, ip, sp}
     680:	21000013 	tstcs	r0, r3, lsl r0
     684:	08030034 	stmdaeq	r3, {r2, r4, r5}
     688:	0b3b0b3a 	bleq	ec3378 <__bss_end__+0xeb82d0>
     68c:	13490b39 	movtne	r0, #39737	; 0x9b39
     690:	2e220000 	cdpcs	0, 2, cr0, cr2, cr0, {0}
     694:	3c193f00 	ldccc	15, cr3, [r9], {-0}
     698:	030e6e19 	movweq	r6, #60953	; 0xee19
     69c:	3b0b3a0e 	blcc	2ceedc <__bss_end__+0x2c3e34>
     6a0:	000b390b 	andeq	r3, fp, fp, lsl #18
     6a4:	11010000 	mrsne	r0, (UNDEF: 1)
     6a8:	130e2501 	movwne	r2, #58625	; 0xe501
     6ac:	1b0e030b 	blne	3812e0 <__bss_end__+0x376238>
     6b0:	1201110e 	andne	r1, r1, #-2147483645	; 0x80000003
     6b4:	00171006 	andseq	r1, r7, r6
     6b8:	00240200 	eoreq	r0, r4, r0, lsl #4
     6bc:	0b3e0b0b 	bleq	f832f0 <__bss_end__+0xf78248>
     6c0:	00000803 	andeq	r0, r0, r3, lsl #16
     6c4:	0b002403 	bleq	96d8 <va_printk+0x488>
     6c8:	030b3e0b 	movweq	r3, #48651	; 0xbe0b
     6cc:	0400000e 	streq	r0, [r0], #-14
     6d0:	0e030016 	mcreq	0, 0, r0, cr3, cr6, {0}
     6d4:	0b3b0b3a 	bleq	ec33c4 <__bss_end__+0xeb831c>
     6d8:	13490b39 	movtne	r0, #39737	; 0x9b39
     6dc:	15050000 	strne	r0, [r5, #-0]
     6e0:	49192701 	ldmdbmi	r9, {r0, r8, r9, sl, sp}
     6e4:	00130113 	andseq	r0, r3, r3, lsl r1
     6e8:	00050600 	andeq	r0, r5, r0, lsl #12
     6ec:	00001349 	andeq	r1, r0, r9, asr #6
     6f0:	03003407 	movweq	r3, #1031	; 0x407
     6f4:	3b0b3a0e 	blcc	2cef34 <__bss_end__+0x2c3e8c>
     6f8:	490b390b 	stmdbmi	fp, {r0, r1, r3, r8, fp, ip, sp}
     6fc:	3c193f13 	ldccc	15, cr3, [r9], {19}
     700:	08000019 	stmdaeq	r0, {r0, r3, r4}
     704:	0b0b000f 	bleq	2c0748 <__bss_end__+0x2b56a0>
     708:	00001349 	andeq	r1, r0, r9, asr #6
     70c:	49002609 	stmdbmi	r0, {r0, r3, r9, sl, sp}
     710:	0a000013 	beq	764 <__code_start__-0x789c>
     714:	0b0b0113 	bleq	2c0b68 <__bss_end__+0x2b5ac0>
     718:	0b3b0b3a 	bleq	ec3408 <__bss_end__+0xeb8360>
     71c:	13010b39 	movwne	r0, #6969	; 0x1b39
     720:	0d0b0000 	stceq	0, cr0, [fp, #-0]
     724:	3a0e0300 	bcc	38132c <__bss_end__+0x376284>
     728:	390b3b0b 	stmdbcc	fp, {r0, r1, r3, r8, r9, fp, ip, sp}
     72c:	3813490b 	ldmdacc	r3, {r0, r1, r3, r8, fp, lr}
     730:	0c00000b 	stceq	0, cr0, [r0], {11}
     734:	0b3e0104 	bleq	f80b4c <__bss_end__+0xf75aa4>
     738:	13490b0b 	movtne	r0, #39691	; 0x9b0b
     73c:	0b3b0b3a 	bleq	ec342c <__bss_end__+0xeb8384>
     740:	13010b39 	movwne	r0, #6969	; 0x1b39
     744:	280d0000 	stmdacs	sp, {}	; <UNPREDICTABLE>
     748:	1c0e0300 	stcne	3, cr0, [lr], {-0}
     74c:	0e00000b 	cdpeq	0, 0, cr0, cr0, cr11, {0}
     750:	0e030113 	mcreq	1, 0, r0, cr3, cr3, {0}
     754:	0b3a0b0b 	bleq	e83388 <__bss_end__+0xe782e0>
     758:	0b390b3b 	bleq	e4344c <__bss_end__+0xe383a4>
     75c:	00001301 	andeq	r1, r0, r1, lsl #6
     760:	03000d0f 	movweq	r0, #3343	; 0xd0f
     764:	3b0b3a08 	blcc	2cef8c <__bss_end__+0x2c3ee4>
     768:	490b390b 	stmdbmi	fp, {r0, r1, r3, r8, fp, ip, sp}
     76c:	000b3813 	andeq	r3, fp, r3, lsl r8
     770:	01011000 	mrseq	r1, (UNDEF: 1)
     774:	13011349 	movwne	r1, #4937	; 0x1349
     778:	21110000 	tstcs	r1, r0
     77c:	2f134900 	svccs	0x00134900
     780:	1200000b 	andne	r0, r0, #11, 0
     784:	0b0b000f 	bleq	2c07c8 <__bss_end__+0x2b5720>
     788:	34130000 	ldrcc	r0, [r3], #-0
     78c:	3a0e0300 	bcc	381394 <__bss_end__+0x3762ec>
     790:	390b3b0b 	stmdbcc	fp, {r0, r1, r3, r8, r9, fp, ip, sp}
     794:	0213490b 	andseq	r4, r3, #180224	; 0x2c000
     798:	14000018 	strne	r0, [r0], #-24	; 0xffffffe8
     79c:	193f012e 	ldmdbne	pc!, {r1, r2, r3, r5, r8}	; <UNPREDICTABLE>
     7a0:	0b3a0e03 	bleq	e83fb4 <__bss_end__+0xe78f0c>
     7a4:	0b39053b 	bleq	e41c98 <__bss_end__+0xe36bf0>
     7a8:	01111927 	tsteq	r1, r7, lsr #18
     7ac:	18400612 	stmdane	r0, {r1, r4, r9, sl}^
     7b0:	01194297 			; <UNDEFINED> instruction: 0x01194297
     7b4:	15000013 	strne	r0, [r0, #-19]	; 0xffffffed
     7b8:	0e030034 	mcreq	0, 0, r0, cr3, cr4, {1}
     7bc:	19341349 	ldmdbne	r4!, {r0, r3, r6, r8, r9, ip}
     7c0:	00001802 	andeq	r1, r0, r2, lsl #16
     7c4:	01828916 	orreq	r8, r2, r6, lsl r9
     7c8:	31011101 	tstcc	r1, r1, lsl #2
     7cc:	00130113 	andseq	r0, r3, r3, lsl r1
     7d0:	828a1700 	addhi	r1, sl, #0, 14
     7d4:	18020001 	stmdane	r2, {r0}
     7d8:	00184291 	mulseq	r8, r1, r2
     7dc:	82891800 	addhi	r1, r9, #0, 16
     7e0:	01110001 	tsteq	r1, r1
     7e4:	00001331 	andeq	r1, r0, r1, lsr r3
     7e8:	3f012e19 	svccc	0x00012e19
     7ec:	3a0e0319 	bcc	381458 <__bss_end__+0x3763b0>
     7f0:	39053b0b 	stmdbcc	r5, {r0, r1, r3, r8, r9, fp, ip, sp}
     7f4:	4919270b 	ldmdbmi	r9, {r0, r1, r3, r8, r9, sl, sp}
     7f8:	12011113 	andne	r1, r1, #-1073741820	; 0xc0000004
     7fc:	97184006 	ldrls	r4, [r8, -r6]
     800:	13011942 	movwne	r1, #6466	; 0x1942
     804:	341a0000 	ldrcc	r0, [sl], #-0
     808:	3a0e0300 	bcc	381410 <__bss_end__+0x376368>
     80c:	39053b0b 	stmdbcc	r5, {r0, r1, r3, r8, r9, fp, ip, sp}
     810:	0213490b 	andseq	r4, r3, #180224	; 0x2c000
     814:	1742b717 	smlaldne	fp, r2, r7, r7
     818:	1d1b0000 	ldcne	0, cr0, [fp, #-0]
     81c:	52133101 	andspl	r3, r3, #1073741824	; 0x40000000
     820:	0b42b801 	bleq	10ae82c <__bss_end__+0x10a3784>
     824:	0b581755 	bleq	1606580 <__bss_end__+0x15fb4d8>
     828:	0b570559 	bleq	15c1d94 <__bss_end__+0x15b6cec>
     82c:	00001301 	andeq	r1, r0, r1, lsl #6
     830:	55010b1c 	strpl	r0, [r1, #-2844]	; 0xfffff4e4
     834:	1d000017 	stcne	0, cr0, [r0, #-92]	; 0xffffffa4
     838:	13310034 	teqne	r1, #52, 0	; 0x34
     83c:	42b71702 	adcsmi	r1, r7, #524288	; 0x80000
     840:	1e000017 	mcrne	0, 0, r0, cr0, cr7, {0}
     844:	1331010b 	teqne	r1, #-1073741822	; 0xc0000002
     848:	13011755 	movwne	r1, #5973	; 0x1755
     84c:	051f0000 	ldreq	r0, [pc, #-0]	; 854 <__code_start__-0x77ac>
     850:	02133100 	andseq	r3, r3, #0
     854:	1742b717 	smlaldne	fp, r2, r7, r7
     858:	89200000 	stmdbhi	r0!, {}	; <UNPREDICTABLE>
     85c:	11010182 	smlabbne	r1, r2, r1, r0
     860:	00133101 	andseq	r3, r3, r1, lsl #2
     864:	012e2100 			; <UNDEFINED> instruction: 0x012e2100
     868:	0b3a0e03 	bleq	e8407c <__bss_end__+0xe78fd4>
     86c:	0b39053b 	bleq	e41d60 <__bss_end__+0xe36cb8>
     870:	13491927 	movtne	r1, #39207	; 0x9927
     874:	13010b20 	movwne	r0, #6944	; 0x1b20
     878:	34220000 	strtcc	r0, [r2], #-0
     87c:	3a0e0300 	bcc	381484 <__bss_end__+0x3763dc>
     880:	39053b0b 	stmdbcc	r5, {r0, r1, r3, r8, r9, fp, ip, sp}
     884:	0013490b 	andseq	r4, r3, fp, lsl #18
     888:	010b2300 	mrseq	r2, (UNDEF: 59)
     88c:	34240000 	strtcc	r0, [r4], #-0
     890:	3a080300 	bcc	201498 <__bss_end__+0x1f63f0>
     894:	39053b0b 	stmdbcc	r5, {r0, r1, r3, r8, r9, fp, ip, sp}
     898:	0013490b 	andseq	r4, r3, fp, lsl #18
     89c:	011d2500 	tsteq	sp, r0, lsl #10
     8a0:	01521331 	cmpeq	r2, r1, lsr r3
     8a4:	110b42b8 			; <UNDEFINED> instruction: 0x110b42b8
     8a8:	58061201 	stmdapl	r6, {r0, r9, ip}
     8ac:	5705590b 	strpl	r5, [r5, -fp, lsl #18]
     8b0:	0013010b 	andseq	r0, r3, fp, lsl #2
     8b4:	012e2600 			; <UNDEFINED> instruction: 0x012e2600
     8b8:	0e03193f 			; <UNDEFINED> instruction: 0x0e03193f
     8bc:	0b3b0b3a 	bleq	ec35ac <__bss_end__+0xeb8504>
     8c0:	19270b39 	stmdbne	r7!, {r0, r3, r4, r5, r8, r9, fp}
     8c4:	06120111 			; <UNDEFINED> instruction: 0x06120111
     8c8:	42971840 	addsmi	r1, r7, #64, 16	; 0x400000
     8cc:	00130119 	andseq	r0, r3, r9, lsl r1
     8d0:	011d2700 	tsteq	sp, r0, lsl #14
     8d4:	01521331 	cmpeq	r2, r1, lsr r3
     8d8:	110b42b8 			; <UNDEFINED> instruction: 0x110b42b8
     8dc:	58061201 	stmdapl	r6, {r0, r9, ip}
     8e0:	570b590b 	strpl	r5, [fp, -fp, lsl #18]
     8e4:	0013010b 	andseq	r0, r3, fp, lsl #2
     8e8:	012e2800 			; <UNDEFINED> instruction: 0x012e2800
     8ec:	0e03193f 			; <UNDEFINED> instruction: 0x0e03193f
     8f0:	0b3b0b3a 	bleq	ec35e0 <__bss_end__+0xeb8538>
     8f4:	19270b39 	stmdbne	r7!, {r0, r3, r4, r5, r8, r9, fp}
     8f8:	0b201349 	bleq	805624 <__bss_end__+0x7fa57c>
     8fc:	00001301 	andeq	r1, r0, r1, lsl #6
     900:	03000529 	movweq	r0, #1321	; 0x529
     904:	3b0b3a0e 	blcc	2cf144 <__bss_end__+0x2c409c>
     908:	490b390b 	stmdbmi	fp, {r0, r1, r3, r8, fp, ip, sp}
     90c:	2a000013 	bcs	960 <__code_start__-0x76a0>
     910:	0e03012e 	adfeqsp	f0, f3, #0.5
     914:	0b3b0b3a 	bleq	ec3604 <__bss_end__+0xeb855c>
     918:	19270b39 	stmdbne	r7!, {r0, r3, r4, r5, r8, r9, fp}
     91c:	01111349 	tsteq	r1, r9, asr #6
     920:	18400612 	stmdane	r0, {r1, r4, r9, sl}^
     924:	01194297 			; <UNDEFINED> instruction: 0x01194297
     928:	2b000013 	blcs	97c <__code_start__-0x7684>
     92c:	0e030005 	cdpeq	0, 0, cr0, cr3, cr5, {0}
     930:	0b3b0b3a 	bleq	ec3620 <__bss_end__+0xeb8578>
     934:	13490b39 	movtne	r0, #39737	; 0x9b39
     938:	42b71702 	adcsmi	r1, r7, #524288	; 0x80000
     93c:	2c000017 	stccs	0, cr0, [r0], {23}
     940:	0e030034 	mcreq	0, 0, r0, cr3, cr4, {1}
     944:	0b3b0b3a 	bleq	ec3634 <__bss_end__+0xeb858c>
     948:	13490b39 	movtne	r0, #39737	; 0x9b39
     94c:	42b71702 	adcsmi	r1, r7, #524288	; 0x80000
     950:	2d000017 	stccs	0, cr0, [r0, #-92]	; 0xffffffa4
     954:	1755010b 	ldrbne	r0, [r5, -fp, lsl #2]
     958:	00001301 	andeq	r1, r0, r1, lsl #6
     95c:	0300342e 	movweq	r3, #1070	; 0x42e
     960:	3b0b3a08 	blcc	2cf188 <__bss_end__+0x2c40e0>
     964:	490b390b 	stmdbmi	fp, {r0, r1, r3, r8, fp, ip, sp}
     968:	b7170213 			; <UNDEFINED> instruction: 0xb7170213
     96c:	00001742 	andeq	r1, r0, r2, asr #14
     970:	3f012e2f 	svccc	0x00012e2f
     974:	3a0e0319 	bcc	3815e0 <__bss_end__+0x376538>
     978:	390b3b0b 	stmdbcc	fp, {r0, r1, r3, r8, r9, fp, ip, sp}
     97c:	4919270b 	ldmdbmi	r9, {r0, r1, r3, r8, r9, sl, sp}
     980:	12011113 	andne	r1, r1, #-1073741820	; 0xc0000004
     984:	97184006 	ldrls	r4, [r8, -r6]
     988:	13011942 	movwne	r1, #6466	; 0x1942
     98c:	34300000 	ldrtcc	r0, [r0], #-0
     990:	3a080300 	bcc	201598 <__bss_end__+0x1f64f0>
     994:	390b3b0b 	stmdbcc	fp, {r0, r1, r3, r8, r9, fp, ip, sp}
     998:	0013490b 	andseq	r4, r3, fp, lsl #18
     99c:	010b3100 	mrseq	r3, (UNDEF: 27)
     9a0:	17551331 	smmlarne	r5, r1, r3, r1
     9a4:	1d320000 	ldcne	0, cr0, [r2, #-0]
     9a8:	52133101 	andspl	r3, r3, #1073741824	; 0x40000000
     9ac:	0b42b801 	bleq	10ae9b8 <__bss_end__+0x10a3910>
     9b0:	0b581755 	bleq	160670c <__bss_end__+0x15fb664>
     9b4:	0b570b59 	bleq	15c3720 <__bss_end__+0x15b8678>
     9b8:	00001301 	andeq	r1, r0, r1, lsl #6
     9bc:	31010b33 	tstcc	r1, r3, lsr fp
     9c0:	12011113 	andne	r1, r1, #-1073741820	; 0xc0000004
     9c4:	34000006 	strcc	r0, [r0], #-6
     9c8:	0e030034 	mcreq	0, 0, r0, cr3, cr4, {1}
     9cc:	0b3b0b3a 	bleq	ec36bc <__bss_end__+0xeb8614>
     9d0:	13490b39 	movtne	r0, #39737	; 0x9b39
     9d4:	2e350000 	cdpcs	0, 3, cr0, cr5, cr0, {0}
     9d8:	3a0e0301 	bcc	3815e4 <__bss_end__+0x37653c>
     9dc:	390b3b0b 	stmdbcc	fp, {r0, r1, r3, r8, r9, fp, ip, sp}
     9e0:	1119270b 	tstne	r9, fp, lsl #14
     9e4:	40061201 	andmi	r1, r6, r1, lsl #4
     9e8:	19429718 	stmdbne	r2, {r3, r4, r8, r9, sl, ip, pc}^
     9ec:	00001301 	andeq	r1, r0, r1, lsl #6
     9f0:	03003436 	movweq	r3, #1078	; 0x436
     9f4:	3b0b3a0e 	blcc	2cf234 <__bss_end__+0x2c418c>
     9f8:	490b390b 	stmdbmi	fp, {r0, r1, r3, r8, fp, ip, sp}
     9fc:	00061c13 	andeq	r1, r6, r3, lsl ip
     a00:	012e3700 			; <UNDEFINED> instruction: 0x012e3700
     a04:	0b3a0e03 	bleq	e84218 <__bss_end__+0xe79170>
     a08:	0b390b3b 	bleq	e436fc <__bss_end__+0xe38654>
     a0c:	0b201927 	bleq	806eb0 <__bss_end__+0x7fbe08>
     a10:	00001301 	andeq	r1, r0, r1, lsl #6
     a14:	03000538 	movweq	r0, #1336	; 0x538
     a18:	3b0b3a08 	blcc	2cf240 <__bss_end__+0x2c4198>
     a1c:	490b390b 	stmdbmi	fp, {r0, r1, r3, r8, fp, ip, sp}
     a20:	39000013 	stmdbcc	r0, {r0, r1, r4}
     a24:	0e03012e 	adfeqsp	f0, f3, #0.5
     a28:	0b3b0b3a 	bleq	ec3718 <__bss_end__+0xeb8670>
     a2c:	19270b39 	stmdbne	r7!, {r0, r3, r4, r5, r8, r9, fp}
     a30:	0b201349 	bleq	80575c <__bss_end__+0x7fa6b4>
     a34:	00001301 	andeq	r1, r0, r1, lsl #6
     a38:	0182893a 	orreq	r8, r2, sl, lsr r9
     a3c:	95011101 	strls	r1, [r1, #-257]	; 0xfffffeff
     a40:	13311942 	teqne	r1, #1081344	; 0x108000
     a44:	00001301 	andeq	r1, r0, r1, lsl #6
     a48:	31012e3b 	tstcc	r1, fp, lsr lr
     a4c:	12011113 	andne	r1, r1, #-1073741820	; 0xc0000004
     a50:	97184006 	ldrls	r4, [r8, -r6]
     a54:	13011942 	movwne	r1, #6466	; 0x1942
     a58:	1d3c0000 	ldcne	0, cr0, [ip, #-0]
     a5c:	55133101 	ldrpl	r3, [r3, #-257]	; 0xfffffeff
     a60:	590b5817 	stmdbpl	fp, {r0, r1, r2, r4, fp, ip, lr}
     a64:	010b570b 	tsteq	fp, fp, lsl #14
     a68:	3d000013 	stccc	0, cr0, [r0, #-76]	; 0xffffffb4
     a6c:	13310005 	teqne	r1, #5, 0
     a70:	1d3e0000 	ldcne	0, cr0, [lr, #-0]
     a74:	52133101 	andspl	r3, r3, #1073741824	; 0x40000000
     a78:	0b42b801 	bleq	10aea84 <__bss_end__+0x10a39dc>
     a7c:	0b581755 	bleq	16067d8 <__bss_end__+0x15fb730>
     a80:	0b570b59 	bleq	15c37ec <__bss_end__+0x15b8744>
     a84:	893f0000 	ldmdbhi	pc!, {}	; <UNPREDICTABLE>
     a88:	11010182 	smlabbne	r1, r2, r1, r0
     a8c:	19429501 	stmdbne	r2, {r0, r8, sl, ip, pc}^
     a90:	00001331 	andeq	r1, r0, r1, lsr r3
     a94:	3f002e40 	svccc	0x00002e40
     a98:	6e193c19 	mrcvs	12, 0, r3, cr9, cr9, {0}
     a9c:	3a0e030e 	bcc	3816dc <__bss_end__+0x376634>
     aa0:	390b3b0b 	stmdbcc	fp, {r0, r1, r3, r8, r9, fp, ip, sp}
     aa4:	4100000b 	tstmi	r0, fp
     aa8:	18020036 	stmdane	r2, {r1, r2, r4, r5}
     aac:	01000000 	mrseq	r0, (UNDEF: 0)
     ab0:	0e250111 	mcreq	1, 1, r0, cr5, cr1, {0}
     ab4:	0e030b13 	vmoveq.32	d3[0], r0
     ab8:	01110e1b 	tsteq	r1, fp, lsl lr
     abc:	17100612 			; <UNDEFINED> instruction: 0x17100612
     ac0:	24020000 	strcs	r0, [r2], #-0
     ac4:	3e0b0b00 	vmlacc.f64	d0, d11, d0
     ac8:	0008030b 	andeq	r0, r8, fp, lsl #6
     acc:	00160300 	andseq	r0, r6, r0, lsl #6
     ad0:	0b3a0e03 	bleq	e842e4 <__bss_end__+0xe7923c>
     ad4:	0b390b3b 	bleq	e437c8 <__bss_end__+0xe38720>
     ad8:	00001349 	andeq	r1, r0, r9, asr #6
     adc:	0b002404 	bleq	9af4 <delay_ms+0x4c>
     ae0:	030b3e0b 	movweq	r3, #48651	; 0xbe0b
     ae4:	0500000e 	streq	r0, [r0, #-14]
     ae8:	19270115 	stmdbne	r7!, {r0, r2, r4, r8}
     aec:	13011349 	movwne	r1, #4937	; 0x1349
     af0:	05060000 	streq	r0, [r6, #-0]
     af4:	00134900 	andseq	r4, r3, r0, lsl #18
     af8:	00340700 	eorseq	r0, r4, r0, lsl #14
     afc:	0b3a0e03 	bleq	e84310 <__bss_end__+0xe79268>
     b00:	0b390b3b 	bleq	e437f4 <__bss_end__+0xe3874c>
     b04:	193f1349 	ldmdbne	pc!, {r0, r3, r6, r8, r9, ip}	; <UNPREDICTABLE>
     b08:	0000193c 	andeq	r1, r0, ip, lsr r9
     b0c:	0b000f08 	bleq	4734 <__code_start__-0x38cc>
     b10:	0013490b 	andseq	r4, r3, fp, lsl #18
     b14:	00260900 	eoreq	r0, r6, r0, lsl #18
     b18:	00001349 	andeq	r1, r0, r9, asr #6
     b1c:	3f012e0a 	svccc	0x00012e0a
     b20:	3a0e0319 	bcc	38178c <__bss_end__+0x3766e4>
     b24:	390b3b0b 	stmdbcc	fp, {r0, r1, r3, r8, r9, fp, ip, sp}
     b28:	4919270b 	ldmdbmi	r9, {r0, r1, r3, r8, r9, sl, sp}
     b2c:	12011113 	andne	r1, r1, #-1073741820	; 0xc0000004
     b30:	97184006 	ldrls	r4, [r8, -r6]
     b34:	13011942 	movwne	r1, #6466	; 0x1942
     b38:	050b0000 	streq	r0, [fp, #-0]
     b3c:	3a080300 	bcc	201744 <__bss_end__+0x1f669c>
     b40:	390b3b0b 	stmdbcc	fp, {r0, r1, r3, r8, r9, fp, ip, sp}
     b44:	0213490b 	andseq	r4, r3, #180224	; 0x2c000
     b48:	0c000018 	stceq	0, cr0, [r0], {24}
     b4c:	08030005 	stmdaeq	r3, {r0, r2}
     b50:	0b3b0b3a 	bleq	ec3840 <__bss_end__+0xeb8798>
     b54:	13490b39 	movtne	r0, #39737	; 0x9b39
     b58:	42b71702 	adcsmi	r1, r7, #524288	; 0x80000
     b5c:	0d000017 	stceq	0, cr0, [r0, #-92]	; 0xffffffa4
     b60:	08030034 	stmdaeq	r3, {r2, r4, r5}
     b64:	0b3b0b3a 	bleq	ec3854 <__bss_end__+0xeb87ac>
     b68:	13490b39 	movtne	r0, #39737	; 0x9b39
     b6c:	42b71702 	adcsmi	r1, r7, #524288	; 0x80000
     b70:	0e000017 	mcreq	0, 0, r0, cr0, cr7, {0}
     b74:	0b0b000f 	bleq	2c0bb8 <__bss_end__+0x2b5b10>
     b78:	01000000 	mrseq	r0, (UNDEF: 0)
     b7c:	0e250111 	mcreq	1, 1, r0, cr5, cr1, {0}
     b80:	0e030b13 	vmoveq.32	d3[0], r0
     b84:	01110e1b 	tsteq	r1, fp, lsl lr
     b88:	17100612 			; <UNDEFINED> instruction: 0x17100612
     b8c:	16020000 	strne	r0, [r2], -r0
     b90:	3a0e0300 	bcc	381798 <__bss_end__+0x3766f0>
     b94:	390b3b0b 	stmdbcc	fp, {r0, r1, r3, r8, r9, fp, ip, sp}
     b98:	0013490b 	andseq	r4, r3, fp, lsl #18
     b9c:	01130300 	tsteq	r3, r0, lsl #6
     ba0:	0b0b0e03 	bleq	2c43b4 <__bss_end__+0x2b930c>
     ba4:	0b3b0b3a 	bleq	ec3894 <__bss_end__+0xeb87ec>
     ba8:	00001301 	andeq	r1, r0, r1, lsl #6
     bac:	03000d04 	movweq	r0, #3332	; 0xd04
     bb0:	3813490e 	ldmdacc	r3, {r1, r2, r3, r8, fp, lr}
     bb4:	0019340b 	andseq	r3, r9, fp, lsl #8
     bb8:	000f0500 	andeq	r0, pc, r0, lsl #10
     bbc:	00000b0b 	andeq	r0, r0, fp, lsl #22
     bc0:	0b002406 	bleq	9be0 <uart_init+0x54>
     bc4:	030b3e0b 	movweq	r3, #48651	; 0xbe0b
     bc8:	07000008 	streq	r0, [r0, -r8]
     bcc:	0b0b0024 	bleq	2c0c64 <__bss_end__+0x2b5bbc>
     bd0:	0e030b3e 	vmoveq.16	d3[0], r0
     bd4:	15080000 	strne	r0, [r8, #-0]
     bd8:	49192701 	ldmdbmi	r9, {r0, r8, r9, sl, sp}
     bdc:	00130113 	andseq	r0, r3, r3, lsl r1
     be0:	00050900 	andeq	r0, r5, r0, lsl #18
     be4:	00001349 	andeq	r1, r0, r9, asr #6
     be8:	0300340a 	movweq	r3, #1034	; 0x40a
     bec:	3b0b3a0e 	blcc	2cf42c <__bss_end__+0x2c4384>
     bf0:	490b390b 	stmdbmi	fp, {r0, r1, r3, r8, fp, ip, sp}
     bf4:	3c193f13 	ldccc	15, cr3, [r9], {19}
     bf8:	0b000019 	bleq	c64 <__code_start__-0x739c>
     bfc:	0b0b000f 	bleq	2c0c40 <__bss_end__+0x2b5b98>
     c00:	00001349 	andeq	r1, r0, r9, asr #6
     c04:	4900260c 	stmdbmi	r0, {r2, r3, r9, sl, sp}
     c08:	0d000013 	stceq	0, cr0, [r0, #-76]	; 0xffffffb4
     c0c:	193f012e 	ldmdbne	pc!, {r1, r2, r3, r5, r8}	; <UNPREDICTABLE>
     c10:	0b3a0e03 	bleq	e84424 <__bss_end__+0xe7937c>
     c14:	0b390b3b 	bleq	e43908 <__bss_end__+0xe38860>
     c18:	13491927 	movtne	r1, #39207	; 0x9927
     c1c:	06120111 			; <UNDEFINED> instruction: 0x06120111
     c20:	42971840 	addsmi	r1, r7, #64, 16	; 0x400000
     c24:	00130119 	andseq	r0, r3, r9, lsl r1
     c28:	00050e00 	andeq	r0, r5, r0, lsl #28
     c2c:	0b3a0803 	bleq	e82c40 <__bss_end__+0xe77b98>
     c30:	0b390b3b 	bleq	e43924 <__bss_end__+0xe3887c>
     c34:	18021349 	stmdane	r2, {r0, r3, r6, r8, r9, ip}
     c38:	180f0000 	stmdane	pc, {}	; <UNPREDICTABLE>
     c3c:	10000000 	andne	r0, r0, r0
     c40:	08030034 	stmdaeq	r3, {r2, r4, r5}
     c44:	0b3b0b3a 	bleq	ec3934 <__bss_end__+0xeb888c>
     c48:	13490b39 	movtne	r0, #39737	; 0x9b39
     c4c:	00001802 	andeq	r1, r0, r2, lsl #16
     c50:	03003411 	movweq	r3, #1041	; 0x411
     c54:	3b0b3a0e 	blcc	2cf494 <__bss_end__+0x2c43ec>
     c58:	490b390b 	stmdbmi	fp, {r0, r1, r3, r8, fp, ip, sp}
     c5c:	00180213 	andseq	r0, r8, r3, lsl r2
     c60:	00341200 	eorseq	r1, r4, r0, lsl #4
     c64:	0b3a0803 	bleq	e82c78 <__bss_end__+0xe77bd0>
     c68:	0b390b3b 	bleq	e4395c <__bss_end__+0xe388b4>
     c6c:	17021349 	strne	r1, [r2, -r9, asr #6]
     c70:	001742b7 			; <UNDEFINED> instruction: 0x001742b7
     c74:	82891300 	addhi	r1, r9, #0, 6
     c78:	01110101 	tsteq	r1, r1, lsl #2
     c7c:	13011331 	movwne	r1, #4913	; 0x1331
     c80:	8a140000 	bhi	500c88 <__bss_end__+0x4f5be0>
     c84:	02000182 	andeq	r0, r0, #-2147483616	; 0x80000020
     c88:	18429118 	stmdane	r2, {r3, r4, r8, ip, pc}^
     c8c:	89150000 	ldmdbhi	r5, {}	; <UNPREDICTABLE>
     c90:	11010182 	smlabbne	r1, r2, r1, r0
     c94:	16000001 	strne	r0, [r0], -r1
     c98:	13490101 	movtne	r0, #37121	; 0x9101
     c9c:	00001301 	andeq	r1, r0, r1, lsl #6
     ca0:	49002117 	stmdbmi	r0, {r0, r1, r2, r4, r8, sp}
     ca4:	00052f13 	andeq	r2, r5, r3, lsl pc
     ca8:	002e1800 	eoreq	r1, lr, r0, lsl #16
     cac:	193c193f 	ldmdbne	ip!, {r0, r1, r2, r3, r4, r5, r8, fp, ip}
     cb0:	0e030e6e 	cdpeq	14, 0, cr0, cr3, cr14, {3}
     cb4:	0b3b0b3a 	bleq	ec39a4 <__bss_end__+0xeb88fc>
     cb8:	00000b39 	andeq	r0, r0, r9, lsr fp
     cbc:	01110100 	tsteq	r1, r0, lsl #2
     cc0:	0b130e25 	bleq	4c455c <__bss_end__+0x4b94b4>
     cc4:	0e1b0e03 	cdpeq	14, 1, cr0, cr11, cr3, {0}
     cc8:	06120111 			; <UNDEFINED> instruction: 0x06120111
     ccc:	00001710 	andeq	r1, r0, r0, lsl r7
     cd0:	0b002402 	bleq	9ce0 <uart_has_data+0xc>
     cd4:	030b3e0b 	movweq	r3, #48651	; 0xbe0b
     cd8:	03000008 	movweq	r0, #8
     cdc:	0b0b0024 	bleq	2c0d74 <__bss_end__+0x2b5ccc>
     ce0:	0e030b3e 	vmoveq.16	d3[0], r0
     ce4:	15040000 	strne	r0, [r4, #-0]
     ce8:	49192701 	ldmdbmi	r9, {r0, r8, r9, sl, sp}
     cec:	00130113 	andseq	r0, r3, r3, lsl r1
     cf0:	00050500 	andeq	r0, r5, r0, lsl #10
     cf4:	00001349 	andeq	r1, r0, r9, asr #6
     cf8:	03003406 	movweq	r3, #1030	; 0x406
     cfc:	3b0b3a0e 	blcc	2cf53c <__bss_end__+0x2c4494>
     d00:	490b390b 	stmdbmi	fp, {r0, r1, r3, r8, fp, ip, sp}
     d04:	3c193f13 	ldccc	15, cr3, [r9], {19}
     d08:	07000019 	smladeq	r0, r9, r0, r0
     d0c:	0b0b000f 	bleq	2c0d50 <__bss_end__+0x2b5ca8>
     d10:	00001349 	andeq	r1, r0, r9, asr #6
     d14:	49002608 	stmdbmi	r0, {r3, r9, sl, sp}
     d18:	09000013 	stmdbeq	r0, {r0, r1, r4}
     d1c:	13470034 	movtne	r0, #28724	; 0x7034
     d20:	0b3b0b3a 	bleq	ec3a10 <__bss_end__+0xeb8968>
     d24:	18020b39 	stmdane	r2, {r0, r3, r4, r5, r8, r9, fp}
     d28:	2e0a0000 	cdpcs	0, 0, cr0, cr10, cr0, {0}
     d2c:	03193f01 	tsteq	r9, #1, 30
     d30:	3b0b3a0e 	blcc	2cf570 <__bss_end__+0x2c44c8>
     d34:	270b390b 	strcs	r3, [fp, -fp, lsl #18]
     d38:	11134919 	tstne	r3, r9, lsl r9
     d3c:	40061201 	andmi	r1, r6, r1, lsl #4
     d40:	19429618 	stmdbne	r2, {r3, r4, r9, sl, ip, pc}^
     d44:	050b0000 	streq	r0, [fp, #-0]
     d48:	3a080300 	bcc	201950 <__bss_end__+0x1f68a8>
     d4c:	390b3b0b 	stmdbcc	fp, {r0, r1, r3, r8, r9, fp, ip, sp}
     d50:	0213490b 	andseq	r4, r3, #180224	; 0x2c000
     d54:	1742b717 	smlaldne	fp, r2, r7, r7
     d58:	01000000 	mrseq	r0, (UNDEF: 0)
     d5c:	0e250111 	mcreq	1, 1, r0, cr5, cr1, {0}
     d60:	0e030b13 	vmoveq.32	d3[0], r0
     d64:	01110e1b 	tsteq	r1, fp, lsl lr
     d68:	17100612 			; <UNDEFINED> instruction: 0x17100612
     d6c:	24020000 	strcs	r0, [r2], #-0
     d70:	3e0b0b00 	vmlacc.f64	d0, d11, d0
     d74:	0008030b 	andeq	r0, r8, fp, lsl #6
     d78:	00240300 	eoreq	r0, r4, r0, lsl #6
     d7c:	0b3e0b0b 	bleq	f839b0 <__bss_end__+0xf78908>
     d80:	00000e03 	andeq	r0, r0, r3, lsl #28
     d84:	27011504 	strcs	r1, [r1, -r4, lsl #10]
     d88:	01134919 	tsteq	r3, r9, lsl r9
     d8c:	05000013 	streq	r0, [r0, #-19]	; 0xffffffed
     d90:	13490005 	movtne	r0, #36869	; 0x9005
     d94:	34060000 	strcc	r0, [r6], #-0
     d98:	3a0e0300 	bcc	3819a0 <__bss_end__+0x3768f8>
     d9c:	390b3b0b 	stmdbcc	fp, {r0, r1, r3, r8, r9, fp, ip, sp}
     da0:	3f13490b 	svccc	0x0013490b
     da4:	00193c19 	andseq	r3, r9, r9, lsl ip
     da8:	000f0700 	andeq	r0, pc, r0, lsl #14
     dac:	13490b0b 	movtne	r0, #39691	; 0x9b0b
     db0:	26080000 	strcs	r0, [r8], -r0
     db4:	00134900 	andseq	r4, r3, r0, lsl #18
     db8:	00340900 	eorseq	r0, r4, r0, lsl #18
     dbc:	0b3a0e03 	bleq	e845d0 <__bss_end__+0xe79528>
     dc0:	0b390b3b 	bleq	e43ab4 <__bss_end__+0xe38a0c>
     dc4:	18021349 	stmdane	r2, {r0, r3, r6, r8, r9, ip}
     dc8:	340a0000 	strcc	r0, [sl], #-0
     dcc:	3a080300 	bcc	2019d4 <__bss_end__+0x1f692c>
     dd0:	390b3b0b 	stmdbcc	fp, {r0, r1, r3, r8, r9, fp, ip, sp}
     dd4:	0013490b 	andseq	r4, r3, fp, lsl #18
     dd8:	012e0b00 			; <UNDEFINED> instruction: 0x012e0b00
     ddc:	0e03193f 			; <UNDEFINED> instruction: 0x0e03193f
     de0:	0b3b0b3a 	bleq	ec3ad0 <__bss_end__+0xeb8a28>
     de4:	19270b39 	stmdbne	r7!, {r0, r3, r4, r5, r8, r9, fp}
     de8:	06120111 			; <UNDEFINED> instruction: 0x06120111
     dec:	42971840 	addsmi	r1, r7, #64, 16	; 0x400000
     df0:	00130119 	andseq	r0, r3, r9, lsl r1
     df4:	00050c00 	andeq	r0, r5, r0, lsl #24
     df8:	0b3a0e03 	bleq	e8460c <__bss_end__+0xe79564>
     dfc:	0b390b3b 	bleq	e43af0 <__bss_end__+0xe38a48>
     e00:	18021349 	stmdane	r2, {r0, r3, r6, r8, r9, ip}
     e04:	2e0d0000 	cdpcs	0, 0, cr0, cr13, cr0, {0}
     e08:	03193f01 	tsteq	r9, #1, 30
     e0c:	3b0b3a0e 	blcc	2cf64c <__bss_end__+0x2c45a4>
     e10:	270b390b 	strcs	r3, [fp, -fp, lsl #18]
     e14:	11134919 	tstne	r3, r9, lsl r9
     e18:	40061201 	andmi	r1, r6, r1, lsl #4
     e1c:	19429718 	stmdbne	r2, {r3, r4, r8, r9, sl, ip, pc}^
     e20:	00001301 	andeq	r1, r0, r1, lsl #6
     e24:	31001d0e 	tstcc	r0, lr, lsl #26
     e28:	b8015213 	stmdalt	r1, {r0, r1, r4, r9, ip, lr}
     e2c:	01110b42 	tsteq	r1, r2, asr #22
     e30:	0b580612 	bleq	1602680 <__bss_end__+0x15f75d8>
     e34:	0b570b59 	bleq	15c3ba0 <__bss_end__+0x15b8af8>
     e38:	2e0f0000 	cdpcs	0, 0, cr0, cr15, cr0, {0}
     e3c:	03193f00 	tsteq	r9, #0, 30
     e40:	3b0b3a0e 	blcc	2cf680 <__bss_end__+0x2c45d8>
     e44:	270b390b 	strcs	r3, [fp, -fp, lsl #18]
     e48:	20134919 	andscs	r4, r3, r9, lsl r9
     e4c:	1000000b 	andne	r0, r0, fp
     e50:	1331002e 	teqne	r1, #46, 0	; 0x2e
     e54:	06120111 			; <UNDEFINED> instruction: 0x06120111
     e58:	42971840 	addsmi	r1, r7, #64, 16	; 0x400000
     e5c:	00000019 	andeq	r0, r0, r9, lsl r0
     e60:	25011101 	strcs	r1, [r1, #-257]	; 0xfffffeff
     e64:	030b130e 	movweq	r1, #45838	; 0xb30e
     e68:	110e1b0e 	tstne	lr, lr, lsl #22
     e6c:	10061201 	andne	r1, r6, r1, lsl #4
     e70:	02000017 	andeq	r0, r0, #23, 0
     e74:	0b0b0024 	bleq	2c0f0c <__bss_end__+0x2b5e64>
     e78:	0e030b3e 	vmoveq.16	d3[0], r0
     e7c:	24030000 	strcs	r0, [r3], #-0
     e80:	3e0b0b00 	vmlacc.f64	d0, d11, d0
     e84:	0008030b 	andeq	r0, r8, fp, lsl #6
     e88:	00160400 	andseq	r0, r6, r0, lsl #8
     e8c:	0b3a0e03 	bleq	e846a0 <__bss_end__+0xe795f8>
     e90:	0b390b3b 	bleq	e43b84 <__bss_end__+0xe38adc>
     e94:	00001349 	andeq	r1, r0, r9, asr #6
     e98:	27011505 	strcs	r1, [r1, -r5, lsl #10]
     e9c:	01134919 	tsteq	r3, r9, lsl r9
     ea0:	06000013 			; <UNDEFINED> instruction: 0x06000013
     ea4:	13490005 	movtne	r0, #36869	; 0x9005
     ea8:	34070000 	strcc	r0, [r7], #-0
     eac:	3a0e0300 	bcc	381ab4 <__bss_end__+0x376a0c>
     eb0:	390b3b0b 	stmdbcc	fp, {r0, r1, r3, r8, r9, fp, ip, sp}
     eb4:	3f13490b 	svccc	0x0013490b
     eb8:	00193c19 	andseq	r3, r9, r9, lsl ip
     ebc:	000f0800 	andeq	r0, pc, r0, lsl #16
     ec0:	13490b0b 	movtne	r0, #39691	; 0x9b0b
     ec4:	26090000 	strcs	r0, [r9], -r0
     ec8:	00134900 	andseq	r4, r3, r0, lsl #18
     ecc:	01130a00 	tsteq	r3, r0, lsl #20
     ed0:	0b0b0e03 	bleq	2c46e4 <__bss_end__+0x2b963c>
     ed4:	0b3b0b3a 	bleq	ec3bc4 <__bss_end__+0xeb8b1c>
     ed8:	00001301 	andeq	r1, r0, r1, lsl #6
     edc:	03000d0b 	movweq	r0, #3339	; 0xd0b
     ee0:	3813490e 	ldmdacc	r3, {r1, r2, r3, r8, fp, lr}
     ee4:	0019340b 	andseq	r3, r9, fp, lsl #8
     ee8:	000f0c00 	andeq	r0, pc, r0, lsl #24
     eec:	00000b0b 	andeq	r0, r0, fp, lsl #22
     ef0:	3f012e0d 	svccc	0x00012e0d
     ef4:	3a0e0319 	bcc	381b60 <__bss_end__+0x376ab8>
     ef8:	390b3b0b 	stmdbcc	fp, {r0, r1, r3, r8, r9, fp, ip, sp}
     efc:	4919270b 	ldmdbmi	r9, {r0, r1, r3, r8, r9, sl, sp}
     f00:	12011113 	andne	r1, r1, #-1073741820	; 0xc0000004
     f04:	97184006 	ldrls	r4, [r8, -r6]
     f08:	13011942 	movwne	r1, #6466	; 0x1942
     f0c:	050e0000 	streq	r0, [lr, #-0]
     f10:	3a080300 	bcc	201b18 <__bss_end__+0x1f6a70>
     f14:	390b3b0b 	stmdbcc	fp, {r0, r1, r3, r8, r9, fp, ip, sp}
     f18:	0213490b 	andseq	r4, r3, #180224	; 0x2c000
     f1c:	1742b717 	smlaldne	fp, r2, r7, r7
     f20:	050f0000 	streq	r0, [pc, #-0]	; f28 <__code_start__-0x70d8>
     f24:	3a0e0300 	bcc	381b2c <__bss_end__+0x376a84>
     f28:	390b3b0b 	stmdbcc	fp, {r0, r1, r3, r8, r9, fp, ip, sp}
     f2c:	0213490b 	andseq	r4, r3, #180224	; 0x2c000
     f30:	1742b717 	smlaldne	fp, r2, r7, r7
     f34:	34100000 	ldrcc	r0, [r0], #-0
     f38:	3a080300 	bcc	201b40 <__bss_end__+0x1f6a98>
     f3c:	390b3b0b 	stmdbcc	fp, {r0, r1, r3, r8, r9, fp, ip, sp}
     f40:	0213490b 	andseq	r4, r3, #180224	; 0x2c000
     f44:	1742b717 	smlaldne	fp, r2, r7, r7
     f48:	34110000 	ldrcc	r0, [r1], #-0
     f4c:	3a0e0300 	bcc	381b54 <__bss_end__+0x376aac>
     f50:	390b3b0b 	stmdbcc	fp, {r0, r1, r3, r8, r9, fp, ip, sp}
     f54:	0213490b 	andseq	r4, r3, #180224	; 0x2c000
     f58:	1742b717 	smlaldne	fp, r2, r7, r7
     f5c:	34120000 	ldrcc	r0, [r2], #-0
     f60:	490e0300 	stmdbmi	lr, {r8, r9}
     f64:	02193413 	andseq	r3, r9, #318767104	; 0x13000000
     f68:	13000018 	movwne	r0, #24
     f6c:	1755010b 	ldrbne	r0, [r5, -fp, lsl #2]
     f70:	34140000 	ldrcc	r0, [r4], #-0
     f74:	3a080300 	bcc	201b7c <__bss_end__+0x1f6ad4>
     f78:	390b3b0b 	stmdbcc	fp, {r0, r1, r3, r8, r9, fp, ip, sp}
     f7c:	0213490b 	andseq	r4, r3, #180224	; 0x2c000
     f80:	15000018 	strne	r0, [r0, #-24]	; 0xffffffe8
     f84:	0e030034 	mcreq	0, 0, r0, cr3, cr4, {1}
     f88:	0b3b0b3a 	bleq	ec3c78 <__bss_end__+0xeb8bd0>
     f8c:	13490b39 	movtne	r0, #39737	; 0x9b39
     f90:	00001802 	andeq	r1, r0, r2, lsl #16
     f94:	55010b16 	strpl	r0, [r1, #-2838]	; 0xfffff4ea
     f98:	00130117 	andseq	r0, r3, r7, lsl r1
     f9c:	82891700 	addhi	r1, r9, #0, 14
     fa0:	01110101 	tsteq	r1, r1, lsl #2
     fa4:	13011331 	movwne	r1, #4913	; 0x1331
     fa8:	8a180000 	bhi	600fb0 <__bss_end__+0x5f5f08>
     fac:	02000182 	andeq	r0, r0, #-2147483616	; 0x80000020
     fb0:	18429118 	stmdane	r2, {r3, r4, r8, ip, pc}^
     fb4:	89190000 	ldmdbhi	r9, {}	; <UNPREDICTABLE>
     fb8:	11000182 	smlabbne	r0, r2, r1, r0
     fbc:	00133101 	andseq	r3, r3, r1, lsl #2
     fc0:	011d1a00 	tsteq	sp, r0, lsl #20
     fc4:	01521331 	cmpeq	r2, r1, lsr r3
     fc8:	550542b8 	strpl	r4, [r5, #-696]	; 0xfffffd48
     fcc:	590b5817 	stmdbpl	fp, {r0, r1, r2, r4, fp, ip, lr}
     fd0:	010b570b 	tsteq	fp, fp, lsl #14
     fd4:	1b000013 	blne	1028 <__code_start__-0x6fd8>
     fd8:	13310005 	teqne	r1, #5, 0
     fdc:	42b71702 	adcsmi	r1, r7, #524288	; 0x80000
     fe0:	1c000017 	stcne	0, cr0, [r0], {23}
     fe4:	13310005 	teqne	r1, #5, 0
     fe8:	341d0000 	ldrcc	r0, [sp], #-0
     fec:	02133100 	andseq	r3, r3, #0
     ff0:	1e000018 	mcrne	0, 0, r0, cr0, cr8, {0}
     ff4:	13310034 	teqne	r1, #52, 0	; 0x34
     ff8:	42b71702 	adcsmi	r1, r7, #524288	; 0x80000
     ffc:	1f000017 	svcne	0x00000017
    1000:	13310034 	teqne	r1, #52, 0	; 0x34
    1004:	1d200000 	stcne	0, cr0, [r0, #-0]
    1008:	52133101 	andspl	r3, r3, #1073741824	; 0x40000000
    100c:	0542b801 	strbeq	fp, [r2, #-2049]	; 0xfffff7ff
    1010:	0b581755 	bleq	1606d6c <__bss_end__+0x15fbcc4>
    1014:	0b570b59 	bleq	15c3d80 <__bss_end__+0x15b8cd8>
    1018:	89210000 	stmdbhi	r1!, {}	; <UNPREDICTABLE>
    101c:	11010182 	smlabbne	r1, r2, r1, r0
    1020:	00130101 	andseq	r0, r3, r1, lsl #2
    1024:	01012200 	mrseq	r2, R9_usr
    1028:	13011349 	movwne	r1, #4937	; 0x1349
    102c:	21230000 			; <UNDEFINED> instruction: 0x21230000
    1030:	2f134900 	svccs	0x00134900
    1034:	2400000b 	strcs	r0, [r0], #-11
    1038:	0e03012e 	adfeqsp	f0, f3, #0.5
    103c:	0b3b0b3a 	bleq	ec3d2c <__bss_end__+0xeb8c84>
    1040:	19270b39 	stmdbne	r7!, {r0, r3, r4, r5, r8, r9, fp}
    1044:	0b201349 	bleq	805d70 <__bss_end__+0x7facc8>
    1048:	00001301 	andeq	r1, r0, r1, lsl #6
    104c:	03000525 	movweq	r0, #1317	; 0x525
    1050:	3b0b3a0e 	blcc	2cf890 <__bss_end__+0x2c47e8>
    1054:	490b390b 	stmdbmi	fp, {r0, r1, r3, r8, fp, ip, sp}
    1058:	26000013 			; <UNDEFINED> instruction: 0x26000013
    105c:	08030005 	stmdaeq	r3, {r0, r2}
    1060:	0b3b0b3a 	bleq	ec3d50 <__bss_end__+0xeb8ca8>
    1064:	13490b39 	movtne	r0, #39737	; 0x9b39
    1068:	34270000 	strtcc	r0, [r7], #-0
    106c:	3a080300 	bcc	201c74 <__bss_end__+0x1f6bcc>
    1070:	390b3b0b 	stmdbcc	fp, {r0, r1, r3, r8, r9, fp, ip, sp}
    1074:	0013490b 	andseq	r4, r3, fp, lsl #18
    1078:	010b2800 	tsteq	fp, r0, lsl #16
    107c:	34290000 	strtcc	r0, [r9], #-0
    1080:	3a0e0300 	bcc	381c88 <__bss_end__+0x376be0>
    1084:	390b3b0b 	stmdbcc	fp, {r0, r1, r3, r8, r9, fp, ip, sp}
    1088:	0013490b 	andseq	r4, r3, fp, lsl #18
    108c:	012e2a00 			; <UNDEFINED> instruction: 0x012e2a00
    1090:	0b3a0803 	bleq	e830a4 <__bss_end__+0xe77ffc>
    1094:	0b390b3b 	bleq	e43d88 <__bss_end__+0xe38ce0>
    1098:	13491927 	movtne	r1, #39207	; 0x9927
    109c:	13010b20 	movwne	r0, #6944	; 0x1b20
    10a0:	2e2b0000 	cdpcs	0, 2, cr0, cr11, cr0, {0}
    10a4:	03193f01 	tsteq	r9, #1, 30
    10a8:	3b0b3a0e 	blcc	2cf8e8 <__bss_end__+0x2c4840>
    10ac:	270b390b 	strcs	r3, [fp, -fp, lsl #18]
    10b0:	12011119 	andne	r1, r1, #1073741830	; 0x40000006
    10b4:	97184006 	ldrls	r4, [r8, -r6]
    10b8:	13011942 	movwne	r1, #6466	; 0x1942
    10bc:	2e2c0000 	cdpcs	0, 2, cr0, cr12, cr0, {0}
    10c0:	11133101 	tstne	r3, r1, lsl #2
    10c4:	40061201 	andmi	r1, r6, r1, lsl #4
    10c8:	19429718 	stmdbne	r2, {r3, r4, r8, r9, sl, ip, pc}^
    10cc:	00001301 	andeq	r1, r0, r1, lsl #6
    10d0:	3100052d 	tstcc	r0, sp, lsr #10
    10d4:	00180213 	andseq	r0, r8, r3, lsl r2
    10d8:	00052e00 	andeq	r2, r5, r0, lsl #28
    10dc:	0b1c1331 	bleq	705da8 <__bss_end__+0x6fad00>
    10e0:	0b2f0000 	bleq	bc10e8 <__bss_end__+0xbb6040>
    10e4:	11133101 	tstne	r3, r1, lsl #2
    10e8:	01061201 	tsteq	r6, r1, lsl #4
    10ec:	30000013 	andcc	r0, r0, r3, lsl r0
    10f0:	193f002e 	ldmdbne	pc!, {r1, r2, r3, r5}	; <UNPREDICTABLE>
    10f4:	0e6e193c 			; <UNDEFINED> instruction: 0x0e6e193c
    10f8:	0b3a0e03 	bleq	e8490c <__bss_end__+0xe79864>
    10fc:	0b390b3b 	bleq	e43df0 <__bss_end__+0xe38d48>
    1100:	01000000 	mrseq	r0, (UNDEF: 0)
    1104:	0e250111 	mcreq	1, 1, r0, cr5, cr1, {0}
    1108:	0e030b13 	vmoveq.32	d3[0], r0
    110c:	01110e1b 	tsteq	r1, fp, lsl lr
    1110:	17100612 			; <UNDEFINED> instruction: 0x17100612
    1114:	24020000 	strcs	r0, [r2], #-0
    1118:	3e0b0b00 	vmlacc.f64	d0, d11, d0
    111c:	0008030b 	andeq	r0, r8, fp, lsl #6
    1120:	00240300 	eoreq	r0, r4, r0, lsl #6
    1124:	0b3e0b0b 	bleq	f83d58 <__bss_end__+0xf78cb0>
    1128:	00000e03 	andeq	r0, r0, r3, lsl #28
    112c:	27011504 	strcs	r1, [r1, -r4, lsl #10]
    1130:	01134919 	tsteq	r3, r9, lsl r9
    1134:	05000013 	streq	r0, [r0, #-19]	; 0xffffffed
    1138:	13490005 	movtne	r0, #36869	; 0x9005
    113c:	34060000 	strcc	r0, [r6], #-0
    1140:	3a0e0300 	bcc	381d48 <__bss_end__+0x376ca0>
    1144:	390b3b0b 	stmdbcc	fp, {r0, r1, r3, r8, r9, fp, ip, sp}
    1148:	3f13490b 	svccc	0x0013490b
    114c:	00193c19 	andseq	r3, r9, r9, lsl ip
    1150:	000f0700 	andeq	r0, pc, r0, lsl #14
    1154:	13490b0b 	movtne	r0, #39691	; 0x9b0b
    1158:	26080000 	strcs	r0, [r8], -r0
    115c:	00134900 	andseq	r4, r3, r0, lsl #18
    1160:	012e0900 			; <UNDEFINED> instruction: 0x012e0900
    1164:	0e03193f 			; <UNDEFINED> instruction: 0x0e03193f
    1168:	0b3b0b3a 	bleq	ec3e58 <__bss_end__+0xeb8db0>
    116c:	19270b39 	stmdbne	r7!, {r0, r3, r4, r5, r8, r9, fp}
    1170:	11190187 	tstne	r9, r7, lsl #3
    1174:	40061201 	andmi	r1, r6, r1, lsl #4
    1178:	19429718 	stmdbne	r2, {r3, r4, r8, r9, sl, ip, pc}^
    117c:	00001301 	andeq	r1, r0, r1, lsl #6
    1180:	0182890a 	orreq	r8, r2, sl, lsl #18
    1184:	01011101 	tsteq	r1, r1, lsl #2
    1188:	0b000013 	bleq	11dc <__code_start__-0x6e24>
    118c:	0001828a 	andeq	r8, r1, sl, lsl #5
    1190:	42911802 	addsmi	r1, r1, #131072	; 0x20000
    1194:	0c000018 	stceq	0, cr0, [r0], {24}
    1198:	00018289 	andeq	r8, r1, r9, lsl #5
    119c:	13310111 	teqne	r1, #1073741828	; 0x40000004
    11a0:	890d0000 	stmdbhi	sp, {}	; <UNPREDICTABLE>
    11a4:	11010182 	smlabbne	r1, r2, r1, r0
    11a8:	01133101 	tsteq	r3, r1, lsl #2
    11ac:	0e000013 	mcreq	0, 0, r0, cr0, cr3, {0}
    11b0:	193f002e 	ldmdbne	pc!, {r1, r2, r3, r5}	; <UNPREDICTABLE>
    11b4:	0e6e193c 			; <UNDEFINED> instruction: 0x0e6e193c
    11b8:	0b3a0e03 	bleq	e849cc <__bss_end__+0xe79924>
    11bc:	0b390b3b 	bleq	e43eb0 <__bss_end__+0xe38e08>
    11c0:	01000000 	mrseq	r0, (UNDEF: 0)
    11c4:	0e250111 	mcreq	1, 1, r0, cr5, cr1, {0}
    11c8:	0e030b13 	vmoveq.32	d3[0], r0
    11cc:	01110e1b 	tsteq	r1, fp, lsl lr
    11d0:	17100612 			; <UNDEFINED> instruction: 0x17100612
    11d4:	24020000 	strcs	r0, [r2], #-0
    11d8:	3e0b0b00 	vmlacc.f64	d0, d11, d0
    11dc:	0008030b 	andeq	r0, r8, fp, lsl #6
    11e0:	00240300 	eoreq	r0, r4, r0, lsl #6
    11e4:	0b3e0b0b 	bleq	f83e18 <__bss_end__+0xf78d70>
    11e8:	00000e03 	andeq	r0, r0, r3, lsl #28
    11ec:	27011504 	strcs	r1, [r1, -r4, lsl #10]
    11f0:	01134919 	tsteq	r3, r9, lsl r9
    11f4:	05000013 	streq	r0, [r0, #-19]	; 0xffffffed
    11f8:	13490005 	movtne	r0, #36869	; 0x9005
    11fc:	34060000 	strcc	r0, [r6], #-0
    1200:	3a0e0300 	bcc	381e08 <__bss_end__+0x376d60>
    1204:	390b3b0b 	stmdbcc	fp, {r0, r1, r3, r8, r9, fp, ip, sp}
    1208:	3f13490b 	svccc	0x0013490b
    120c:	00193c19 	andseq	r3, r9, r9, lsl ip
    1210:	000f0700 	andeq	r0, pc, r0, lsl #14
    1214:	13490b0b 	movtne	r0, #39691	; 0x9b0b
    1218:	26080000 	strcs	r0, [r8], -r0
    121c:	00134900 	andseq	r4, r3, r0, lsl #18
    1220:	012e0900 			; <UNDEFINED> instruction: 0x012e0900
    1224:	0e03193f 			; <UNDEFINED> instruction: 0x0e03193f
    1228:	0b3b0b3a 	bleq	ec3f18 <__bss_end__+0xeb8e70>
    122c:	01110b39 	tsteq	r1, r9, lsr fp
    1230:	18400612 	stmdane	r0, {r1, r4, r9, sl}^
    1234:	01194297 			; <UNDEFINED> instruction: 0x01194297
    1238:	0a000013 	beq	128c <__code_start__-0x6d74>
    123c:	193f002e 	ldmdbne	pc!, {r1, r2, r3, r5}	; <UNPREDICTABLE>
    1240:	0b3a0e03 	bleq	e84a54 <__bss_end__+0xe799ac>
    1244:	0b390b3b 	bleq	e43f38 <__bss_end__+0xe38e90>
    1248:	193c1927 	ldmdbne	ip!, {r0, r1, r2, r5, r8, fp, ip}
    124c:	340b0000 	strcc	r0, [fp], #-0
    1250:	3a080300 	bcc	201e58 <__bss_end__+0x1f6db0>
    1254:	390b3b0b 	stmdbcc	fp, {r0, r1, r3, r8, r9, fp, ip, sp}
    1258:	0213490b 	andseq	r4, r3, #180224	; 0x2c000
    125c:	1742b717 	smlaldne	fp, r2, r7, r7
    1260:	340c0000 	strcc	r0, [ip], #-0
    1264:	3a0e0300 	bcc	381e6c <__bss_end__+0x376dc4>
    1268:	390b3b0b 	stmdbcc	fp, {r0, r1, r3, r8, r9, fp, ip, sp}
    126c:	0013490b 	andseq	r4, r3, fp, lsl #18
    1270:	010b0d00 	tsteq	fp, r0, lsl #26
    1274:	06120111 			; <UNDEFINED> instruction: 0x06120111
    1278:	00001301 	andeq	r1, r0, r1, lsl #6
    127c:	0182890e 	orreq	r8, r2, lr, lsl #18
    1280:	31011100 	mrscc	r1, (UNDEF: 17)
    1284:	0f000013 	svceq	0x00000013
    1288:	193f002e 	ldmdbne	pc!, {r1, r2, r3, r5}	; <UNPREDICTABLE>
    128c:	0e6e193c 			; <UNDEFINED> instruction: 0x0e6e193c
    1290:	0b3a0e03 	bleq	e84aa4 <__bss_end__+0xe799fc>
    1294:	0b39053b 	bleq	e42788 <__bss_end__+0xe376e0>
    1298:	2e100000 	cdpcs	0, 1, cr0, cr0, cr0, {0}
    129c:	3c193f00 	ldccc	15, cr3, [r9], {-0}
    12a0:	030e6e19 	movweq	r6, #60953	; 0xee19
    12a4:	3b0b3a0e 	blcc	2cfae4 <__bss_end__+0x2c4a3c>
    12a8:	000b390b 	andeq	r3, fp, fp, lsl #18
    12ac:	11010000 	mrsne	r0, (UNDEF: 1)
    12b0:	130e2501 	movwne	r2, #58625	; 0xe501
    12b4:	1b0e030b 	blne	381ee8 <__bss_end__+0x376e40>
    12b8:	1201110e 	andne	r1, r1, #-2147483645	; 0x80000003
    12bc:	00171006 	andseq	r1, r7, r6
    12c0:	00240200 	eoreq	r0, r4, r0, lsl #4
    12c4:	0b3e0b0b 	bleq	f83ef8 <__bss_end__+0xf78e50>
    12c8:	00000803 	andeq	r0, r0, r3, lsl #16
    12cc:	0b002403 	bleq	a2e0 <strcat+0x20>
    12d0:	030b3e0b 	movweq	r3, #48651	; 0xbe0b
    12d4:	0400000e 	streq	r0, [r0], #-14
    12d8:	19270115 	stmdbne	r7!, {r0, r2, r4, r8}
    12dc:	13011349 	movwne	r1, #4937	; 0x1349
    12e0:	05050000 	streq	r0, [r5, #-0]
    12e4:	00134900 	andseq	r4, r3, r0, lsl #18
    12e8:	00340600 	eorseq	r0, r4, r0, lsl #12
    12ec:	0b3a0e03 	bleq	e84b00 <__bss_end__+0xe79a58>
    12f0:	0b390b3b 	bleq	e43fe4 <__bss_end__+0xe38f3c>
    12f4:	193f1349 	ldmdbne	pc!, {r0, r3, r6, r8, r9, ip}	; <UNPREDICTABLE>
    12f8:	0000193c 	andeq	r1, r0, ip, lsr r9
    12fc:	0b000f07 	bleq	4f20 <__code_start__-0x30e0>
    1300:	0013490b 	andseq	r4, r3, fp, lsl #18
    1304:	00260800 	eoreq	r0, r6, r0, lsl #16
    1308:	00001349 	andeq	r1, r0, r9, asr #6
    130c:	3f002e09 	svccc	0x00002e09
    1310:	3a0e0319 	bcc	381f7c <__bss_end__+0x376ed4>
    1314:	390b3b0b 	stmdbcc	fp, {r0, r1, r3, r8, r9, fp, ip, sp}
    1318:	1119270b 	tstne	r9, fp, lsl #14
    131c:	40061201 	andmi	r1, r6, r1, lsl #4
    1320:	19429718 	stmdbne	r2, {r3, r4, r8, r9, sl, ip, pc}^
    1324:	01000000 	mrseq	r0, (UNDEF: 0)
    1328:	0e250111 	mcreq	1, 1, r0, cr5, cr1, {0}
    132c:	0e030b13 	vmoveq.32	d3[0], r0
    1330:	17550e1b 	smmlane	r5, fp, lr, r0
    1334:	17100111 			; <UNDEFINED> instruction: 0x17100111
    1338:	24020000 	strcs	r0, [r2], #-0
    133c:	3e0b0b00 	vmlacc.f64	d0, d11, d0
    1340:	0008030b 	andeq	r0, r8, fp, lsl #6
    1344:	00260300 	eoreq	r0, r6, r0, lsl #6
    1348:	00001349 	andeq	r1, r0, r9, asr #6
    134c:	0b002404 	bleq	a364 <strncmp+0x1c>
    1350:	030b3e0b 	movweq	r3, #48651	; 0xbe0b
    1354:	0500000e 	streq	r0, [r0, #-14]
    1358:	19270115 	stmdbne	r7!, {r0, r2, r4, r8}
    135c:	13011349 	movwne	r1, #4937	; 0x1349
    1360:	05060000 	streq	r0, [r6, #-0]
    1364:	00134900 	andseq	r4, r3, r0, lsl #18
    1368:	00340700 	eorseq	r0, r4, r0, lsl #14
    136c:	0b3a0e03 	bleq	e84b80 <__bss_end__+0xe79ad8>
    1370:	0b390b3b 	bleq	e44064 <__bss_end__+0xe38fbc>
    1374:	193f1349 	ldmdbne	pc!, {r0, r3, r6, r8, r9, ip}	; <UNPREDICTABLE>
    1378:	0000193c 	andeq	r1, r0, ip, lsr r9
    137c:	0b000f08 	bleq	4fa4 <__code_start__-0x305c>
    1380:	0013490b 	andseq	r4, r3, fp, lsl #18
    1384:	00340900 	eorseq	r0, r4, r0, lsl #18
    1388:	0b3a0e03 	bleq	e84b9c <__bss_end__+0xe79af4>
    138c:	0b390b3b 	bleq	e44080 <__bss_end__+0xe38fd8>
    1390:	00001349 	andeq	r1, r0, r9, asr #6
    1394:	3f012e0a 	svccc	0x00012e0a
    1398:	3a0e0319 	bcc	382004 <__bss_end__+0x376f5c>
    139c:	390b3b0b 	stmdbcc	fp, {r0, r1, r3, r8, r9, fp, ip, sp}
    13a0:	8719270b 	ldrhi	r2, [r9, -fp, lsl #14]
    13a4:	01111901 	tsteq	r1, r1, lsl #18
    13a8:	18400612 	stmdane	r0, {r1, r4, r9, sl}^
    13ac:	01194297 			; <UNDEFINED> instruction: 0x01194297
    13b0:	0b000013 	bleq	1404 <__code_start__-0x6bfc>
    13b4:	0e030034 	mcreq	0, 0, r0, cr3, cr4, {1}
    13b8:	0b3b0b3a 	bleq	ec40a8 <__bss_end__+0xeb9000>
    13bc:	13490b39 	movtne	r0, #39737	; 0x9b39
    13c0:	0000061c 	andeq	r0, r0, ip, lsl r6
    13c4:	0300340c 	movweq	r3, #1036	; 0x40c
    13c8:	3b0b3a0e 	blcc	2cfc08 <__bss_end__+0x2c4b60>
    13cc:	490b390b 	stmdbmi	fp, {r0, r1, r3, r8, fp, ip, sp}
    13d0:	000b1c13 	andeq	r1, fp, r3, lsl ip
    13d4:	011d0d00 	tsteq	sp, r0, lsl #26
    13d8:	01521331 	cmpeq	r2, r1, lsr r3
    13dc:	550b42b8 	strpl	r4, [fp, #-696]	; 0xfffffd48
    13e0:	590b5817 	stmdbpl	fp, {r0, r1, r2, r4, fp, ip, lr}
    13e4:	010b570b 	tsteq	fp, fp, lsl #14
    13e8:	0e000013 	mcreq	0, 0, r0, cr0, cr3, {0}
    13ec:	1755010b 	ldrbne	r0, [r5, -fp, lsl #2]
    13f0:	340f0000 	strcc	r0, [pc], #-0	; 13f8 <__code_start__-0x6c08>
    13f4:	02133100 	andseq	r3, r3, #0
    13f8:	1742b717 	smlaldne	fp, r2, r7, r7
    13fc:	1d100000 	ldcne	0, cr0, [r0, #-0]
    1400:	52133101 	andspl	r3, r3, #1073741824	; 0x40000000
    1404:	0b42b801 	bleq	10af410 <__bss_end__+0x10a4368>
    1408:	06120111 			; <UNDEFINED> instruction: 0x06120111
    140c:	0b590b58 	bleq	1644174 <__bss_end__+0x16390cc>
    1410:	13010b57 	movwne	r0, #6999	; 0x1b57
    1414:	89110000 	ldmdbhi	r1, {}	; <UNPREDICTABLE>
    1418:	11000182 	smlabbne	r0, r2, r1, r0
    141c:	00133101 	andseq	r3, r3, r1, lsl #2
    1420:	82891200 	addhi	r1, r9, #0, 4
    1424:	01110101 	tsteq	r1, r1, lsl #2
    1428:	13011331 	movwne	r1, #4913	; 0x1331
    142c:	8a130000 	bhi	4c1434 <__bss_end__+0x4b638c>
    1430:	02000182 	andeq	r0, r0, #-2147483616	; 0x80000020
    1434:	18429118 	stmdane	r2, {r3, r4, r8, ip, pc}^
    1438:	89140000 	ldmdbhi	r4, {}	; <UNPREDICTABLE>
    143c:	11010182 	smlabbne	r1, r2, r1, r0
    1440:	00133101 	andseq	r3, r3, r1, lsl #2
    1444:	012e1500 			; <UNDEFINED> instruction: 0x012e1500
    1448:	0e03193f 			; <UNDEFINED> instruction: 0x0e03193f
    144c:	0b3b0b3a 	bleq	ec413c <__bss_end__+0xeb9094>
    1450:	19270b39 	stmdbne	r7!, {r0, r3, r4, r5, r8, r9, fp}
    1454:	13010b20 	movwne	r0, #6944	; 0x1b20
    1458:	2e160000 	cdpcs	0, 1, cr0, cr6, cr0, {0}
    145c:	03193f01 	tsteq	r9, #1, 30
    1460:	3b0b3a0e 	blcc	2cfca0 <__bss_end__+0x2c4bf8>
    1464:	270b390b 	strcs	r3, [fp, -fp, lsl #18]
    1468:	20134919 	andscs	r4, r3, r9, lsl r9
    146c:	0013010b 	andseq	r0, r3, fp, lsl #2
    1470:	012e1700 			; <UNDEFINED> instruction: 0x012e1700
    1474:	01111331 	tsteq	r1, r1, lsr r3
    1478:	18400612 	stmdane	r0, {r1, r4, r9, sl}^
    147c:	01194297 			; <UNDEFINED> instruction: 0x01194297
    1480:	18000013 	stmdane	r0, {r0, r1, r4}
    1484:	193f002e 	ldmdbne	pc!, {r1, r2, r3, r5}	; <UNPREDICTABLE>
    1488:	0e6e193c 			; <UNDEFINED> instruction: 0x0e6e193c
    148c:	0b3a0e03 	bleq	e84ca0 <__bss_end__+0xe79bf8>
    1490:	0b39053b 	bleq	e42984 <__bss_end__+0xe378dc>
    1494:	2e190000 	cdpcs	0, 1, cr0, cr9, cr0, {0}
    1498:	3c193f00 	ldccc	15, cr3, [r9], {-0}
    149c:	030e6e19 	movweq	r6, #60953	; 0xee19
    14a0:	3b0b3a0e 	blcc	2cfce0 <__bss_end__+0x2c4c38>
    14a4:	000b390b 	andeq	r3, fp, fp, lsl #18
    14a8:	11010000 	mrsne	r0, (UNDEF: 1)
    14ac:	130e2501 	movwne	r2, #58625	; 0xe501
    14b0:	1b0e030b 	blne	3820e4 <__bss_end__+0x37703c>
    14b4:	1201110e 	andne	r1, r1, #-2147483645	; 0x80000003
    14b8:	00171006 	andseq	r1, r7, r6
    14bc:	00240200 	eoreq	r0, r4, r0, lsl #4
    14c0:	0b3e0b0b 	bleq	f840f4 <__bss_end__+0xf7904c>
    14c4:	00000803 	andeq	r0, r0, r3, lsl #16
    14c8:	0b002403 	bleq	a4dc <__FUNCTION__.4025+0xc0>
    14cc:	030b3e0b 	movweq	r3, #48651	; 0xbe0b
    14d0:	0400000e 	streq	r0, [r0], #-14
    14d4:	19270115 	stmdbne	r7!, {r0, r2, r4, r8}
    14d8:	13011349 	movwne	r1, #4937	; 0x1349
    14dc:	05050000 	streq	r0, [r5, #-0]
    14e0:	00134900 	andseq	r4, r3, r0, lsl #18
    14e4:	00340600 	eorseq	r0, r4, r0, lsl #12
    14e8:	0b3a0e03 	bleq	e84cfc <__bss_end__+0xe79c54>
    14ec:	0b390b3b 	bleq	e441e0 <__bss_end__+0xe39138>
    14f0:	193f1349 	ldmdbne	pc!, {r0, r3, r6, r8, r9, ip}	; <UNPREDICTABLE>
    14f4:	0000193c 	andeq	r1, r0, ip, lsr r9
    14f8:	0b000f07 	bleq	511c <__code_start__-0x2ee4>
    14fc:	0013490b 	andseq	r4, r3, fp, lsl #18
    1500:	00260800 	eoreq	r0, r6, r0, lsl #16
    1504:	00001349 	andeq	r1, r0, r9, asr #6
    1508:	3f012e09 	svccc	0x00012e09
    150c:	3a0e0319 	bcc	382178 <__bss_end__+0x3770d0>
    1510:	390b3b0b 	stmdbcc	fp, {r0, r1, r3, r8, r9, fp, ip, sp}
    1514:	1119270b 	tstne	r9, fp, lsl #14
    1518:	40061201 	andmi	r1, r6, r1, lsl #4
    151c:	19429718 	stmdbne	r2, {r3, r4, r8, r9, sl, ip, pc}^
    1520:	00001301 	andeq	r1, r0, r1, lsl #6
    1524:	0300050a 	movweq	r0, #1290	; 0x50a
    1528:	3b0b3a08 	blcc	2cfd50 <__bss_end__+0x2c4ca8>
    152c:	490b390b 	stmdbmi	fp, {r0, r1, r3, r8, fp, ip, sp}
    1530:	b7170213 			; <UNDEFINED> instruction: 0xb7170213
    1534:	00001742 	andeq	r1, r0, r2, asr #14
    1538:	31011d0b 	tstcc	r1, fp, lsl #26
    153c:	b8015213 	stmdalt	r1, {r0, r1, r4, r9, ip, lr}
    1540:	17550b42 	ldrbne	r0, [r5, -r2, asr #22]
    1544:	0b590b58 	bleq	16442ac <__bss_end__+0x1639204>
    1548:	00000b57 	andeq	r0, r0, r7, asr fp
    154c:	3100050c 	tstcc	r0, ip, lsl #10
    1550:	b7170213 			; <UNDEFINED> instruction: 0xb7170213
    1554:	00001742 	andeq	r1, r0, r2, asr #14
    1558:	31011d0d 	tstcc	r1, sp, lsl #26
    155c:	b8015213 	stmdalt	r1, {r0, r1, r4, r9, ip, lr}
    1560:	01110b42 	tsteq	r1, r2, asr #22
    1564:	0b580612 	bleq	1602db4 <__bss_end__+0x15f7d0c>
    1568:	0b570b59 	bleq	15c42d4 <__bss_end__+0x15b922c>
    156c:	340e0000 	strcc	r0, [lr], #-0
    1570:	02133100 	andseq	r3, r3, #0
    1574:	1742b717 	smlaldne	fp, r2, r7, r7
    1578:	1d0f0000 	stcne	0, cr0, [pc, #-0]	; 1580 <__code_start__-0x6a80>
    157c:	52133101 	andspl	r3, r3, #1073741824	; 0x40000000
    1580:	0b42b801 	bleq	10af58c <__bss_end__+0x10a44e4>
    1584:	06120111 			; <UNDEFINED> instruction: 0x06120111
    1588:	0b590b58 	bleq	16442f0 <__bss_end__+0x1639248>
    158c:	13010b57 	movwne	r0, #6999	; 0x1b57
    1590:	89100000 	ldmdbhi	r0, {}	; <UNPREDICTABLE>
    1594:	11010182 	smlabbne	r1, r2, r1, r0
    1598:	00133101 	andseq	r3, r3, r1, lsl #2
    159c:	828a1100 	addhi	r1, sl, #0
    15a0:	18020001 	stmdane	r2, {r0}
    15a4:	00184291 	mulseq	r8, r1, r2
    15a8:	82891200 	addhi	r1, r9, #0, 4
    15ac:	01110001 	tsteq	r1, r1
    15b0:	00001331 	andeq	r1, r0, r1, lsr r3
    15b4:	31010b13 	tstcc	r1, r3, lsl fp
    15b8:	00175513 	andseq	r5, r7, r3, lsl r5
    15bc:	00341400 	eorseq	r1, r4, r0, lsl #8
    15c0:	00001331 	andeq	r1, r0, r1, lsr r3
    15c4:	55010b15 	strpl	r0, [r1, #-2837]	; 0xfffff4eb
    15c8:	16000017 			; <UNDEFINED> instruction: 0x16000017
    15cc:	1331011d 	teqne	r1, #1073741831	; 0x40000007
    15d0:	42b80152 	adcsmi	r0, r8, #-2147483628	; 0x80000014
    15d4:	5817550b 	ldmdapl	r7, {r0, r1, r3, r8, sl, ip, lr}
    15d8:	570b590b 	strpl	r5, [fp, -fp, lsl #18]
    15dc:	0013010b 	andseq	r0, r3, fp, lsl #2
    15e0:	012e1700 			; <UNDEFINED> instruction: 0x012e1700
    15e4:	0e03193f 			; <UNDEFINED> instruction: 0x0e03193f
    15e8:	0b3b0b3a 	bleq	ec42d8 <__bss_end__+0xeb9230>
    15ec:	19270b39 	stmdbne	r7!, {r0, r3, r4, r5, r8, r9, fp}
    15f0:	13010b20 	movwne	r0, #6944	; 0x1b20
    15f4:	05180000 	ldreq	r0, [r8, #-0]
    15f8:	3a080300 	bcc	202200 <__bss_end__+0x1f7158>
    15fc:	390b3b0b 	stmdbcc	fp, {r0, r1, r3, r8, r9, fp, ip, sp}
    1600:	0013490b 	andseq	r4, r3, fp, lsl #18
    1604:	00341900 	eorseq	r1, r4, r0, lsl #18
    1608:	0b3a0803 	bleq	e8361c <__bss_end__+0xe78574>
    160c:	0b390b3b 	bleq	e44300 <__bss_end__+0xe39258>
    1610:	00001349 	andeq	r1, r0, r9, asr #6
    1614:	00010b1a 	andeq	r0, r1, sl, lsl fp
    1618:	012e1b00 			; <UNDEFINED> instruction: 0x012e1b00
    161c:	0e03193f 			; <UNDEFINED> instruction: 0x0e03193f
    1620:	0b3b0b3a 	bleq	ec4310 <__bss_end__+0xeb9268>
    1624:	19270b39 	stmdbne	r7!, {r0, r3, r4, r5, r8, r9, fp}
    1628:	0b201349 	bleq	806354 <__bss_end__+0x7fb2ac>
    162c:	00001301 	andeq	r1, r0, r1, lsl #6
    1630:	3f002e1c 	svccc	0x00002e1c
    1634:	3a0e0319 	bcc	3822a0 <__bss_end__+0x3771f8>
    1638:	390b3b0b 	stmdbcc	fp, {r0, r1, r3, r8, r9, fp, ip, sp}
    163c:	4919270b 	ldmdbmi	r9, {r0, r1, r3, r8, r9, sl, sp}
    1640:	000b2013 	andeq	r2, fp, r3, lsl r0
    1644:	012e1d00 			; <UNDEFINED> instruction: 0x012e1d00
    1648:	01111331 	tsteq	r1, r1, lsr r3
    164c:	18400612 	stmdane	r0, {r1, r4, r9, sl}^
    1650:	01194297 			; <UNDEFINED> instruction: 0x01194297
    1654:	1e000013 	mcrne	0, 0, r0, cr0, cr3, {0}
    1658:	01018289 	smlabbeq	r1, r9, r2, r8
    165c:	42950111 	addsmi	r0, r5, #1073741828	; 0x40000004
    1660:	00133119 	andseq	r3, r3, r9, lsl r1
    1664:	002e1f00 	eoreq	r1, lr, r0, lsl #30
    1668:	193c193f 	ldmdbne	ip!, {r0, r1, r2, r3, r4, r5, r8, fp, ip}
    166c:	0e030e6e 	cdpeq	14, 0, cr0, cr3, cr14, {3}
    1670:	0b3b0b3a 	bleq	ec4360 <__bss_end__+0xeb92b8>
    1674:	00000b39 	andeq	r0, r0, r9, lsr fp
    1678:	01110100 	tsteq	r1, r0, lsl #2
    167c:	0b130e25 	bleq	4c4f18 <__bss_end__+0x4b9e70>
    1680:	0e1b0e03 	cdpeq	14, 1, cr0, cr11, cr3, {0}
    1684:	06120111 			; <UNDEFINED> instruction: 0x06120111
    1688:	00001710 	andeq	r1, r0, r0, lsl r7
    168c:	0b002402 	bleq	a69c <__FUNCTION__.4078+0x180>
    1690:	030b3e0b 	movweq	r3, #48651	; 0xbe0b
    1694:	03000008 	movweq	r0, #8
    1698:	0b0b0024 	bleq	2c1730 <__bss_end__+0x2b6688>
    169c:	0e030b3e 	vmoveq.16	d3[0], r0
    16a0:	35040000 	strcc	r0, [r4, #-0]
    16a4:	00134900 	andseq	r4, r3, r0, lsl #18
    16a8:	00160500 	andseq	r0, r6, r0, lsl #10
    16ac:	0b3a0e03 	bleq	e84ec0 <__bss_end__+0xe79e18>
    16b0:	0b390b3b 	bleq	e443a4 <__bss_end__+0xe392fc>
    16b4:	00001349 	andeq	r1, r0, r9, asr #6
    16b8:	3e010406 	cdpcc	4, 0, cr0, cr1, cr6, {0}
    16bc:	490b0b0b 	stmdbmi	fp, {r0, r1, r3, r8, r9, fp}
    16c0:	3b0b3a13 	blcc	2cff14 <__bss_end__+0x2c4e6c>
    16c4:	010b390b 	tsteq	fp, fp, lsl #18
    16c8:	07000013 	smladeq	r0, r3, r0, r0
    16cc:	0e030028 	cdpeq	0, 0, cr0, cr3, cr8, {1}
    16d0:	00000b1c 	andeq	r0, r0, ip, lsl fp
    16d4:	03011308 	movweq	r1, #4872	; 0x1308
    16d8:	3a0b0b0e 	bcc	2c4318 <__bss_end__+0x2b9270>
    16dc:	390b3b0b 	stmdbcc	fp, {r0, r1, r3, r8, r9, fp, ip, sp}
    16e0:	0013010b 	andseq	r0, r3, fp, lsl #2
    16e4:	000d0900 	andeq	r0, sp, r0, lsl #18
    16e8:	0b3a0803 	bleq	e836fc <__bss_end__+0xe78654>
    16ec:	0b390b3b 	bleq	e443e0 <__bss_end__+0xe39338>
    16f0:	0b381349 	bleq	e0641c <__bss_end__+0xdfb374>
    16f4:	0d0a0000 	stceq	0, cr0, [sl, #-0]
    16f8:	3a0e0300 	bcc	382300 <__bss_end__+0x377258>
    16fc:	390b3b0b 	stmdbcc	fp, {r0, r1, r3, r8, r9, fp, ip, sp}
    1700:	3813490b 	ldmdacc	r3, {r0, r1, r3, r8, fp, lr}
    1704:	0b00000b 	bleq	1738 <__code_start__-0x68c8>
    1708:	0e030034 	mcreq	0, 0, r0, cr3, cr4, {1}
    170c:	0b3b0b3a 	bleq	ec43fc <__bss_end__+0xeb9354>
    1710:	13490b39 	movtne	r0, #39737	; 0x9b39
    1714:	0000061c 	andeq	r0, r0, ip, lsl r6
    1718:	0b000f0c 	bleq	5350 <__code_start__-0x2cb0>
    171c:	0013490b 	andseq	r4, r3, fp, lsl #18
    1720:	00260d00 	eoreq	r0, r6, r0, lsl #26
    1724:	00001349 	andeq	r1, r0, r9, asr #6
    1728:	3f012e0e 	svccc	0x00012e0e
    172c:	3a0e0319 	bcc	382398 <__bss_end__+0x3772f0>
    1730:	390b3b0b 	stmdbcc	fp, {r0, r1, r3, r8, r9, fp, ip, sp}
    1734:	1119270b 	tstne	r9, fp, lsl #14
    1738:	40061201 	andmi	r1, r6, r1, lsl #4
    173c:	19429718 	stmdbne	r2, {r3, r4, r8, r9, sl, ip, pc}^
    1740:	00001301 	andeq	r1, r0, r1, lsl #6
    1744:	0182890f 	orreq	r8, r2, pc, lsl #18
    1748:	31011100 	mrscc	r1, (UNDEF: 17)
    174c:	10000013 	andne	r0, r0, r3, lsl r0
    1750:	193f012e 	ldmdbne	pc!, {r1, r2, r3, r5, r8}	; <UNPREDICTABLE>
    1754:	0b3a0e03 	bleq	e84f68 <__bss_end__+0xe79ec0>
    1758:	0b390b3b 	bleq	e4444c <__bss_end__+0xe393a4>
    175c:	13491927 	movtne	r1, #39207	; 0x9927
    1760:	06120111 			; <UNDEFINED> instruction: 0x06120111
    1764:	42971840 	addsmi	r1, r7, #64, 16	; 0x400000
    1768:	00130119 	andseq	r0, r3, r9, lsl r1
    176c:	82891100 	addhi	r1, r9, #0
    1770:	01110101 	tsteq	r1, r1, lsl #2
    1774:	00001331 	andeq	r1, r0, r1, lsr r3
    1778:	01828a12 	orreq	r8, r2, r2, lsl sl
    177c:	91180200 	tstls	r8, r0, lsl #4
    1780:	00001842 	andeq	r1, r0, r2, asr #16
    1784:	03000513 	movweq	r0, #1299	; 0x513
    1788:	3b0b3a08 	blcc	2cffb0 <__bss_end__+0x2c4f08>
    178c:	490b390b 	stmdbmi	fp, {r0, r1, r3, r8, fp, ip, sp}
    1790:	b7170213 			; <UNDEFINED> instruction: 0xb7170213
    1794:	00001742 	andeq	r1, r0, r2, asr #14
    1798:	01828914 	orreq	r8, r2, r4, lsl r9
    179c:	31011101 	tstcc	r1, r1, lsl #2
    17a0:	00130113 	andseq	r0, r3, r3, lsl r1
    17a4:	00341500 	eorseq	r1, r4, r0, lsl #10
    17a8:	0b3a0803 	bleq	e837bc <__bss_end__+0xe78714>
    17ac:	0b390b3b 	bleq	e444a0 <__bss_end__+0xe393f8>
    17b0:	17021349 	strne	r1, [r2, -r9, asr #6]
    17b4:	001742b7 			; <UNDEFINED> instruction: 0x001742b7
    17b8:	00341600 	eorseq	r1, r4, r0, lsl #12
    17bc:	0b3a0e03 	bleq	e84fd0 <__bss_end__+0xe79f28>
    17c0:	0b390b3b 	bleq	e444b4 <__bss_end__+0xe3940c>
    17c4:	051c1349 	ldreq	r1, [ip, #-841]	; 0xfffffcb7
    17c8:	2e170000 	cdpcs	0, 1, cr0, cr7, cr0, {0}
    17cc:	3a0e0301 	bcc	3823d8 <__bss_end__+0x377330>
    17d0:	390b3b0b 	stmdbcc	fp, {r0, r1, r3, r8, r9, fp, ip, sp}
    17d4:	1119270b 	tstne	r9, fp, lsl #14
    17d8:	40061201 	andmi	r1, r6, r1, lsl #4
    17dc:	19429718 	stmdbne	r2, {r3, r4, r8, r9, sl, ip, pc}^
    17e0:	00001301 	andeq	r1, r0, r1, lsl #6
    17e4:	03000518 	movweq	r0, #1304	; 0x518
    17e8:	3b0b3a0e 	blcc	2d0028 <__bss_end__+0x2c4f80>
    17ec:	490b390b 	stmdbmi	fp, {r0, r1, r3, r8, fp, ip, sp}
    17f0:	b7170213 			; <UNDEFINED> instruction: 0xb7170213
    17f4:	00001742 	andeq	r1, r0, r2, asr #14
    17f8:	00003519 	andeq	r3, r0, r9, lsl r5
    17fc:	002e1a00 	eoreq	r1, lr, r0, lsl #20
    1800:	193c193f 	ldmdbne	ip!, {r0, r1, r2, r3, r4, r5, r8, fp, ip}
    1804:	0e030e6e 	cdpeq	14, 0, cr0, cr3, cr14, {3}
    1808:	0b3b0b3a 	bleq	ec44f8 <__bss_end__+0xeb9450>
    180c:	00000b39 	andeq	r0, r0, r9, lsr fp
    1810:	01110100 	tsteq	r1, r0, lsl #2
    1814:	0b130e25 	bleq	4c50b0 <__bss_end__+0x4ba008>
    1818:	0e1b0e03 	cdpeq	14, 1, cr0, cr11, cr3, {0}
    181c:	06120111 			; <UNDEFINED> instruction: 0x06120111
    1820:	00001710 	andeq	r1, r0, r0, lsl r7
    1824:	0b002402 	bleq	a834 <__FUNCTION__.4078+0x318>
    1828:	030b3e0b 	movweq	r3, #48651	; 0xbe0b
    182c:	03000008 	movweq	r0, #8
    1830:	0b0b0024 	bleq	2c18c8 <__bss_end__+0x2b6820>
    1834:	0e030b3e 	vmoveq.16	d3[0], r0
    1838:	16040000 	strne	r0, [r4], -r0
    183c:	3a0e0300 	bcc	382444 <__bss_end__+0x37739c>
    1840:	390b3b0b 	stmdbcc	fp, {r0, r1, r3, r8, r9, fp, ip, sp}
    1844:	0013490b 	andseq	r4, r3, fp, lsl #18
    1848:	00260500 	eoreq	r0, r6, r0, lsl #10
    184c:	00001349 	andeq	r1, r0, r9, asr #6
    1850:	0b000f06 	bleq	5470 <__code_start__-0x2b90>
    1854:	0700000b 	streq	r0, [r0, -fp]
    1858:	0b3e0104 	bleq	f81c70 <__bss_end__+0xf76bc8>
    185c:	13490b0b 	movtne	r0, #39691	; 0x9b0b
    1860:	0b3b0b3a 	bleq	ec4550 <__bss_end__+0xeb94a8>
    1864:	13010b39 	movwne	r0, #6969	; 0x1b39
    1868:	28080000 	stmdacs	r8, {}	; <UNPREDICTABLE>
    186c:	1c0e0300 	stcne	3, cr0, [lr], {-0}
    1870:	09000006 	stmdbeq	r0, {r1, r2}
    1874:	0e030034 	mcreq	0, 0, r0, cr3, cr4, {1}
    1878:	0b3b0b3a 	bleq	ec4568 <__bss_end__+0xeb94c0>
    187c:	13490b39 	movtne	r0, #39737	; 0x9b39
    1880:	193c193f 	ldmdbne	ip!, {r0, r1, r2, r3, r4, r5, r8, fp, ip}
    1884:	340a0000 	strcc	r0, [sl], #-0
    1888:	3a0e0300 	bcc	382490 <__bss_end__+0x3773e8>
    188c:	390b3b0b 	stmdbcc	fp, {r0, r1, r3, r8, r9, fp, ip, sp}
    1890:	0213490b 	andseq	r4, r3, #180224	; 0x2c000
    1894:	0b000018 	bleq	18fc <__code_start__-0x6704>
    1898:	0b0b000f 	bleq	2c18dc <__bss_end__+0x2b6834>
    189c:	00001349 	andeq	r1, r0, r9, asr #6
    18a0:	3f012e0c 	svccc	0x00012e0c
    18a4:	3a0e0319 	bcc	382510 <__bss_end__+0x377468>
    18a8:	390b3b0b 	stmdbcc	fp, {r0, r1, r3, r8, r9, fp, ip, sp}
    18ac:	1119270b 	tstne	r9, fp, lsl #14
    18b0:	40061201 	andmi	r1, r6, r1, lsl #4
    18b4:	19429718 	stmdbne	r2, {r3, r4, r8, r9, sl, ip, pc}^
    18b8:	00001301 	andeq	r1, r0, r1, lsl #6
    18bc:	0300050d 	movweq	r0, #1293	; 0x50d
    18c0:	3b0b3a08 	blcc	2d00e8 <__bss_end__+0x2c5040>
    18c4:	490b390b 	stmdbmi	fp, {r0, r1, r3, r8, fp, ip, sp}
    18c8:	b7170213 			; <UNDEFINED> instruction: 0xb7170213
    18cc:	00001742 	andeq	r1, r0, r2, asr #14
    18d0:	0300340e 	movweq	r3, #1038	; 0x40e
    18d4:	3413490e 	ldrcc	r4, [r3], #-2318	; 0xfffff6f2
    18d8:	00180219 	andseq	r0, r8, r9, lsl r2
    18dc:	82890f00 	addhi	r0, r9, #0, 30
    18e0:	01110101 	tsteq	r1, r1, lsl #2
    18e4:	13011331 	movwne	r1, #4913	; 0x1331
    18e8:	8a100000 	bhi	4018f0 <__bss_end__+0x3f6848>
    18ec:	02000182 	andeq	r0, r0, #-2147483616	; 0x80000020
    18f0:	18429118 	stmdane	r2, {r3, r4, r8, ip, pc}^
    18f4:	89110000 	ldmdbhi	r1, {}	; <UNPREDICTABLE>
    18f8:	11000182 	smlabbne	r0, r2, r1, r0
    18fc:	00133101 	andseq	r3, r3, r1, lsl #2
    1900:	01011200 	mrseq	r1, R9_usr
    1904:	13011349 	movwne	r1, #4937	; 0x1349
    1908:	21130000 	tstcs	r3, r0
    190c:	2f134900 	svccs	0x00134900
    1910:	1400000b 	strne	r0, [r0], #-11
    1914:	193f002e 	ldmdbne	pc!, {r1, r2, r3, r5}	; <UNPREDICTABLE>
    1918:	0b3a0e03 	bleq	e8512c <__bss_end__+0xe7a084>
    191c:	0b390b3b 	bleq	e44610 <__bss_end__+0xe39568>
    1920:	01111927 	tsteq	r1, r7, lsr #18
    1924:	18400612 	stmdane	r0, {r1, r4, r9, sl}^
    1928:	00194297 	mulseq	r9, r7, r2
    192c:	00051500 	andeq	r1, r5, r0, lsl #10
    1930:	0b3a0803 	bleq	e83944 <__bss_end__+0xe7889c>
    1934:	0b390b3b 	bleq	e44628 <__bss_end__+0xe39580>
    1938:	18021349 	stmdane	r2, {r0, r3, r6, r8, r9, ip}
    193c:	2e160000 	cdpcs	0, 1, cr0, cr6, cr0, {0}
    1940:	03193f01 	tsteq	r9, #1, 30
    1944:	3b0b3a0e 	blcc	2d0184 <__bss_end__+0x2c50dc>
    1948:	270b390b 	strcs	r3, [fp, -fp, lsl #18]
    194c:	11134919 	tstne	r3, r9, lsl r9
    1950:	40061201 	andmi	r1, r6, r1, lsl #4
    1954:	19429718 	stmdbne	r2, {r3, r4, r8, r9, sl, ip, pc}^
    1958:	00001301 	andeq	r1, r0, r1, lsl #6
    195c:	03000517 	movweq	r0, #1303	; 0x517
    1960:	3b0b3a0e 	blcc	2d01a0 <__bss_end__+0x2c50f8>
    1964:	490b390b 	stmdbmi	fp, {r0, r1, r3, r8, fp, ip, sp}
    1968:	b7170213 			; <UNDEFINED> instruction: 0xb7170213
    196c:	00001742 	andeq	r1, r0, r2, asr #14
    1970:	03003418 	movweq	r3, #1048	; 0x418
    1974:	3b0b3a08 	blcc	2d019c <__bss_end__+0x2c50f4>
    1978:	490b390b 	stmdbmi	fp, {r0, r1, r3, r8, fp, ip, sp}
    197c:	b7170213 			; <UNDEFINED> instruction: 0xb7170213
    1980:	00001742 	andeq	r1, r0, r2, asr #14
    1984:	31011d19 	tstcc	r1, r9, lsl sp
    1988:	b8015213 	stmdalt	r1, {r0, r1, r4, r9, ip, lr}
    198c:	01110b42 	tsteq	r1, r2, asr #22
    1990:	0b580612 	bleq	16031e0 <__bss_end__+0x15f8138>
    1994:	0b570b59 	bleq	15c4700 <__bss_end__+0x15b9658>
    1998:	00001301 	andeq	r1, r0, r1, lsl #6
    199c:	3100051a 	tstcc	r0, sl, lsl r5
    19a0:	b7170213 			; <UNDEFINED> instruction: 0xb7170213
    19a4:	00001742 	andeq	r1, r0, r2, asr #14
    19a8:	31011d1b 	tstcc	r1, fp, lsl sp
    19ac:	b8015213 	stmdalt	r1, {r0, r1, r4, r9, ip, lr}
    19b0:	17550b42 	ldrbne	r0, [r5, -r2, asr #22]
    19b4:	0b590b58 	bleq	164471c <__bss_end__+0x1639674>
    19b8:	13010b57 	movwne	r0, #6999	; 0x1b57
    19bc:	0b1c0000 	bleq	7019c4 <__bss_end__+0x6f691c>
    19c0:	00175501 	andseq	r5, r7, r1, lsl #10
    19c4:	00341d00 	eorseq	r1, r4, r0, lsl #26
    19c8:	0b3a0e03 	bleq	e851dc <__bss_end__+0xe7a134>
    19cc:	0b390b3b 	bleq	e446c0 <__bss_end__+0xe39618>
    19d0:	17021349 	strne	r1, [r2, -r9, asr #6]
    19d4:	001742b7 			; <UNDEFINED> instruction: 0x001742b7
    19d8:	000b1e00 	andeq	r1, fp, r0, lsl #28
    19dc:	00001755 	andeq	r1, r0, r5, asr r7
    19e0:	3f002e1f 	svccc	0x00002e1f
    19e4:	3a0e0319 	bcc	382650 <__bss_end__+0x3775a8>
    19e8:	390b3b0b 	stmdbcc	fp, {r0, r1, r3, r8, r9, fp, ip, sp}
    19ec:	4919270b 	ldmdbmi	r9, {r0, r1, r3, r8, r9, sl, sp}
    19f0:	12011113 	andne	r1, r1, #-1073741820	; 0xc0000004
    19f4:	97184006 	ldrls	r4, [r8, -r6]
    19f8:	00001942 	andeq	r1, r0, r2, asr #18
    19fc:	03012e20 	movweq	r2, #7712	; 0x1e20
    1a00:	3b0b3a0e 	blcc	2d0240 <__bss_end__+0x2c5198>
    1a04:	270b390b 	strcs	r3, [fp, -fp, lsl #18]
    1a08:	20134919 	andscs	r4, r3, r9, lsl r9
    1a0c:	0013010b 	andseq	r0, r3, fp, lsl #2
    1a10:	00052100 	andeq	r2, r5, r0, lsl #2
    1a14:	0b3a0803 	bleq	e83a28 <__bss_end__+0xe78980>
    1a18:	0b390b3b 	bleq	e4470c <__bss_end__+0xe39664>
    1a1c:	00001349 	andeq	r1, r0, r9, asr #6
    1a20:	3f002e22 	svccc	0x00002e22
    1a24:	6e193c19 	mrcvs	12, 0, r3, cr9, cr9, {0}
    1a28:	3a0e030e 	bcc	382668 <__bss_end__+0x3775c0>
    1a2c:	390b3b0b 	stmdbcc	fp, {r0, r1, r3, r8, r9, fp, ip, sp}
    1a30:	0000000b 	andeq	r0, r0, fp
    1a34:	25011101 	strcs	r1, [r1, #-257]	; 0xfffffeff
    1a38:	030b130e 	movweq	r1, #45838	; 0xb30e
    1a3c:	110e1b0e 	tstne	lr, lr, lsl #22
    1a40:	10061201 	andne	r1, r6, r1, lsl #4
    1a44:	02000017 	andeq	r0, r0, #23, 0
    1a48:	0b0b0024 	bleq	2c1ae0 <__bss_end__+0x2b6a38>
    1a4c:	0e030b3e 	vmoveq.16	d3[0], r0
    1a50:	24030000 	strcs	r0, [r3], #-0
    1a54:	3e0b0b00 	vmlacc.f64	d0, d11, d0
    1a58:	0008030b 	andeq	r0, r8, fp, lsl #6
    1a5c:	00260400 	eoreq	r0, r6, r0, lsl #8
    1a60:	00001349 	andeq	r1, r0, r9, asr #6
    1a64:	03001605 	movweq	r1, #1541	; 0x605
    1a68:	3b0b3a0e 	blcc	2d02a8 <__bss_end__+0x2c5200>
    1a6c:	490b390b 	stmdbmi	fp, {r0, r1, r3, r8, fp, ip, sp}
    1a70:	06000013 			; <UNDEFINED> instruction: 0x06000013
    1a74:	19270115 	stmdbne	r7!, {r0, r2, r4, r8}
    1a78:	13011349 	movwne	r1, #4937	; 0x1349
    1a7c:	05070000 	streq	r0, [r7, #-0]
    1a80:	00134900 	andseq	r4, r3, r0, lsl #18
    1a84:	00340800 	eorseq	r0, r4, r0, lsl #16
    1a88:	0b3a0e03 	bleq	e8529c <__bss_end__+0xe7a1f4>
    1a8c:	0b390b3b 	bleq	e44780 <__bss_end__+0xe396d8>
    1a90:	193f1349 	ldmdbne	pc!, {r0, r3, r6, r8, r9, ip}	; <UNPREDICTABLE>
    1a94:	0000193c 	andeq	r1, r0, ip, lsr r9
    1a98:	0b000f09 	bleq	56c4 <__code_start__-0x293c>
    1a9c:	0013490b 	andseq	r4, r3, fp, lsl #18
    1aa0:	01040a00 	tsteq	r4, r0, lsl #20
    1aa4:	0b0b0b3e 	bleq	2c47a4 <__bss_end__+0x2b96fc>
    1aa8:	0b3a1349 	bleq	e867d4 <__bss_end__+0xe7b72c>
    1aac:	0b390b3b 	bleq	e447a0 <__bss_end__+0xe396f8>
    1ab0:	00001301 	andeq	r1, r0, r1, lsl #6
    1ab4:	0300280b 	movweq	r2, #2059	; 0x80b
    1ab8:	000b1c0e 	andeq	r1, fp, lr, lsl #24
    1abc:	00340c00 	eorseq	r0, r4, r0, lsl #24
    1ac0:	0b3a0e03 	bleq	e852d4 <__bss_end__+0xe7a22c>
    1ac4:	0b390b3b 	bleq	e447b8 <__bss_end__+0xe39710>
    1ac8:	061c1349 	ldreq	r1, [ip], -r9, asr #6
    1acc:	2e0d0000 	cdpcs	0, 0, cr0, cr13, cr0, {0}
    1ad0:	03193f01 	tsteq	r9, #1, 30
    1ad4:	3b0b3a0e 	blcc	2d0314 <__bss_end__+0x2c526c>
    1ad8:	270b390b 	strcs	r3, [fp, -fp, lsl #18]
    1adc:	11134919 	tstne	r3, r9, lsl r9
    1ae0:	40061201 	andmi	r1, r6, r1, lsl #4
    1ae4:	19429718 	stmdbne	r2, {r3, r4, r8, r9, sl, ip, pc}^
    1ae8:	00001301 	andeq	r1, r0, r1, lsl #6
    1aec:	0300050e 	movweq	r0, #1294	; 0x50e
    1af0:	3b0b3a08 	blcc	2d0318 <__bss_end__+0x2c5270>
    1af4:	490b390b 	stmdbmi	fp, {r0, r1, r3, r8, fp, ip, sp}
    1af8:	b7170213 			; <UNDEFINED> instruction: 0xb7170213
    1afc:	00001742 	andeq	r1, r0, r2, asr #14
    1b00:	0300340f 	movweq	r3, #1039	; 0x40f
    1b04:	3b0b3a0e 	blcc	2d0344 <__bss_end__+0x2c529c>
    1b08:	490b390b 	stmdbmi	fp, {r0, r1, r3, r8, fp, ip, sp}
    1b0c:	b7170213 			; <UNDEFINED> instruction: 0xb7170213
    1b10:	00001742 	andeq	r1, r0, r2, asr #14
    1b14:	03003410 	movweq	r3, #1040	; 0x410
    1b18:	3b0b3a08 	blcc	2d0340 <__bss_end__+0x2c5298>
    1b1c:	490b390b 	stmdbmi	fp, {r0, r1, r3, r8, fp, ip, sp}
    1b20:	b7170213 			; <UNDEFINED> instruction: 0xb7170213
    1b24:	00001742 	andeq	r1, r0, r2, asr #14
    1b28:	01828911 	orreq	r8, r2, r1, lsl r9
    1b2c:	31011101 	tstcc	r1, r1, lsl #2
    1b30:	12000013 	andne	r0, r0, #19, 0
    1b34:	0001828a 	andeq	r8, r1, sl, lsl #5
    1b38:	42911802 	addsmi	r1, r1, #131072	; 0x20000
    1b3c:	13000018 	movwne	r0, #24
    1b40:	193f012e 	ldmdbne	pc!, {r1, r2, r3, r5, r8}	; <UNPREDICTABLE>
    1b44:	0b3a0e03 	bleq	e85358 <__bss_end__+0xe7a2b0>
    1b48:	0b390b3b 	bleq	e4483c <__bss_end__+0xe39794>
    1b4c:	01111927 	tsteq	r1, r7, lsr #18
    1b50:	18400612 	stmdane	r0, {r1, r4, r9, sl}^
    1b54:	01194297 			; <UNDEFINED> instruction: 0x01194297
    1b58:	14000013 	strne	r0, [r0], #-19	; 0xffffffed
    1b5c:	1331011d 	teqne	r1, #1073741831	; 0x40000007
    1b60:	42b80152 	adcsmi	r0, r8, #-2147483628	; 0x80000014
    1b64:	5817550b 	ldmdapl	r7, {r0, r1, r3, r8, sl, ip, lr}
    1b68:	570b590b 	strpl	r5, [fp, -fp, lsl #18]
    1b6c:	0013010b 	andseq	r0, r3, fp, lsl #2
    1b70:	00051500 	andeq	r1, r5, r0, lsl #10
    1b74:	17021331 	smladxne	r2, r1, r3, r1
    1b78:	001742b7 			; <UNDEFINED> instruction: 0x001742b7
    1b7c:	82891600 	addhi	r1, r9, #0, 12
    1b80:	01110101 	tsteq	r1, r1, lsl #2
    1b84:	31194295 			; <UNDEFINED> instruction: 0x31194295
    1b88:	17000013 	smladne	r0, r3, r0, r0
    1b8c:	1331011d 	teqne	r1, #1073741831	; 0x40000007
    1b90:	42b80152 	adcsmi	r0, r8, #-2147483628	; 0x80000014
    1b94:	1201110b 	andne	r1, r1, #-1073741822	; 0xc0000002
    1b98:	590b5806 	stmdbpl	fp, {r1, r2, fp, ip, lr}
    1b9c:	000b570b 	andeq	r5, fp, fp, lsl #14
    1ba0:	011d1800 	tsteq	sp, r0, lsl #16
    1ba4:	01521331 	cmpeq	r2, r1, lsr r3
    1ba8:	550b42b8 	strpl	r4, [fp, #-696]	; 0xfffffd48
    1bac:	590b5817 	stmdbpl	fp, {r0, r1, r2, r4, fp, ip, lr}
    1bb0:	000b570b 	andeq	r5, fp, fp, lsl #14
    1bb4:	00051900 	andeq	r1, r5, r0, lsl #18
    1bb8:	0b1c1331 	bleq	706884 <__bss_end__+0x6fb7dc>
    1bbc:	0b1a0000 	bleq	681bc4 <__bss_end__+0x676b1c>
    1bc0:	00175501 	andseq	r5, r7, r1, lsl #10
    1bc4:	00341b00 	eorseq	r1, r4, r0, lsl #22
    1bc8:	00001331 	andeq	r1, r0, r1, lsr r3
    1bcc:	3100341c 	tstcc	r0, ip, lsl r4
    1bd0:	b7170213 			; <UNDEFINED> instruction: 0xb7170213
    1bd4:	00001742 	andeq	r1, r0, r2, asr #14
    1bd8:	0182891d 	orreq	r8, r2, sp, lsl r9
    1bdc:	31011101 	tstcc	r1, r1, lsl #2
    1be0:	00130113 	andseq	r0, r3, r3, lsl r1
    1be4:	012e1e00 			; <UNDEFINED> instruction: 0x012e1e00
    1be8:	0e03193f 			; <UNDEFINED> instruction: 0x0e03193f
    1bec:	0b3b0b3a 	bleq	ec48dc <__bss_end__+0xeb9834>
    1bf0:	19270b39 	stmdbne	r7!, {r0, r3, r4, r5, r8, r9, fp}
    1bf4:	13010b20 	movwne	r0, #6944	; 0x1b20
    1bf8:	051f0000 	ldreq	r0, [pc, #-0]	; 1c00 <__code_start__-0x6400>
    1bfc:	3a080300 	bcc	202804 <__bss_end__+0x1f775c>
    1c00:	390b3b0b 	stmdbcc	fp, {r0, r1, r3, r8, r9, fp, ip, sp}
    1c04:	0013490b 	andseq	r4, r3, fp, lsl #18
    1c08:	00052000 	andeq	r2, r5, r0
    1c0c:	0b3a0e03 	bleq	e85420 <__bss_end__+0xe7a378>
    1c10:	0b390b3b 	bleq	e44904 <__bss_end__+0xe3985c>
    1c14:	00001349 	andeq	r1, r0, r9, asr #6
    1c18:	03003421 	movweq	r3, #1057	; 0x421
    1c1c:	3b0b3a08 	blcc	2d0444 <__bss_end__+0x2c539c>
    1c20:	490b390b 	stmdbmi	fp, {r0, r1, r3, r8, fp, ip, sp}
    1c24:	22000013 	andcs	r0, r0, #19, 0
    1c28:	0e03012e 	adfeqsp	f0, f3, #0.5
    1c2c:	0b3b0b3a 	bleq	ec491c <__bss_end__+0xeb9874>
    1c30:	19270b39 	stmdbne	r7!, {r0, r3, r4, r5, r8, r9, fp}
    1c34:	0b201349 	bleq	806960 <__bss_end__+0x7fb8b8>
    1c38:	00001301 	andeq	r1, r0, r1, lsl #6
    1c3c:	31012e23 	tstcc	r1, r3, lsr #28
    1c40:	12011113 	andne	r1, r1, #-1073741820	; 0xc0000004
    1c44:	97184006 	ldrls	r4, [r8, -r6]
    1c48:	13011942 	movwne	r1, #6466	; 0x1942
    1c4c:	2e240000 	cdpcs	0, 2, cr0, cr4, cr0, {0}
    1c50:	3c193f00 	ldccc	15, cr3, [r9], {-0}
    1c54:	030e6e19 	movweq	r6, #60953	; 0xee19
    1c58:	3b0b3a0e 	blcc	2d0498 <__bss_end__+0x2c53f0>
    1c5c:	000b390b 	andeq	r3, fp, fp, lsl #18
    1c60:	11010000 	mrsne	r0, (UNDEF: 1)
    1c64:	130e2501 	movwne	r2, #58625	; 0xe501
    1c68:	1b0e030b 	blne	38289c <__bss_end__+0x3777f4>
    1c6c:	1201110e 	andne	r1, r1, #-2147483645	; 0x80000003
    1c70:	00171006 	andseq	r1, r7, r6
    1c74:	00240200 	eoreq	r0, r4, r0, lsl #4
    1c78:	0b3e0b0b 	bleq	f848ac <__bss_end__+0xf79804>
    1c7c:	00000803 	andeq	r0, r0, r3, lsl #16
    1c80:	0b002403 	bleq	ac94 <base+0x4>
    1c84:	030b3e0b 	movweq	r3, #48651	; 0xbe0b
    1c88:	0400000e 	streq	r0, [r0], #-14
    1c8c:	19270115 	stmdbne	r7!, {r0, r2, r4, r8}
    1c90:	13011349 	movwne	r1, #4937	; 0x1349
    1c94:	05050000 	streq	r0, [r5, #-0]
    1c98:	00134900 	andseq	r4, r3, r0, lsl #18
    1c9c:	00340600 	eorseq	r0, r4, r0, lsl #12
    1ca0:	0b3a0e03 	bleq	e854b4 <__bss_end__+0xe7a40c>
    1ca4:	0b390b3b 	bleq	e44998 <__bss_end__+0xe398f0>
    1ca8:	193f1349 	ldmdbne	pc!, {r0, r3, r6, r8, r9, ip}	; <UNPREDICTABLE>
    1cac:	0000193c 	andeq	r1, r0, ip, lsr r9
    1cb0:	0b000f07 	bleq	58d4 <__code_start__-0x272c>
    1cb4:	0013490b 	andseq	r4, r3, fp, lsl #18
    1cb8:	00260800 	eoreq	r0, r6, r0, lsl #16
    1cbc:	00001349 	andeq	r1, r0, r9, asr #6
    1cc0:	47003409 	strmi	r3, [r0, -r9, lsl #8]
    1cc4:	3b0b3a13 	blcc	2d0518 <__bss_end__+0x2c5470>
    1cc8:	020b390b 	andeq	r3, fp, #180224	; 0x2c000
    1ccc:	0a000018 	beq	1d34 <__code_start__-0x62cc>
    1cd0:	193f012e 	ldmdbne	pc!, {r1, r2, r3, r5, r8}	; <UNPREDICTABLE>
    1cd4:	0b3a0e03 	bleq	e854e8 <__bss_end__+0xe7a440>
    1cd8:	0b390b3b 	bleq	e449cc <__bss_end__+0xe39924>
    1cdc:	01111927 	tsteq	r1, r7, lsr #18
    1ce0:	18400612 	stmdane	r0, {r1, r4, r9, sl}^
    1ce4:	01194297 			; <UNDEFINED> instruction: 0x01194297
    1ce8:	0b000013 	bleq	1d3c <__code_start__-0x62c4>
    1cec:	08030005 	stmdaeq	r3, {r0, r2}
    1cf0:	0b3b0b3a 	bleq	ec49e0 <__bss_end__+0xeb9938>
    1cf4:	13490b39 	movtne	r0, #39737	; 0x9b39
    1cf8:	00001802 	andeq	r1, r0, r2, lsl #16
    1cfc:	3f002e0c 	svccc	0x00002e0c
    1d00:	3a0e0319 	bcc	38296c <__bss_end__+0x3778c4>
    1d04:	390b3b0b 	stmdbcc	fp, {r0, r1, r3, r8, r9, fp, ip, sp}
    1d08:	1119270b 	tstne	r9, fp, lsl #14
    1d0c:	40061201 	andmi	r1, r6, r1, lsl #4
    1d10:	19429718 	stmdbne	r2, {r3, r4, r8, r9, sl, ip, pc}^
    1d14:	2e0d0000 	cdpcs	0, 0, cr0, cr13, cr0, {0}
    1d18:	3a0e0301 	bcc	382924 <__bss_end__+0x37787c>
    1d1c:	390b3b0b 	stmdbcc	fp, {r0, r1, r3, r8, r9, fp, ip, sp}
    1d20:	4919270b 	ldmdbmi	r9, {r0, r1, r3, r8, r9, sl, sp}
    1d24:	12011113 	andne	r1, r1, #-1073741820	; 0xc0000004
    1d28:	97184006 	ldrls	r4, [r8, -r6]
    1d2c:	13011942 	movwne	r1, #6466	; 0x1942
    1d30:	050e0000 	streq	r0, [lr, #-0]
    1d34:	3a080300 	bcc	20293c <__bss_end__+0x1f7894>
    1d38:	390b3b0b 	stmdbcc	fp, {r0, r1, r3, r8, r9, fp, ip, sp}
    1d3c:	0213490b 	andseq	r4, r3, #180224	; 0x2c000
    1d40:	1742b717 	smlaldne	fp, r2, r7, r7
    1d44:	890f0000 	stmdbhi	pc, {}	; <UNPREDICTABLE>
    1d48:	11010182 	smlabbne	r1, r2, r1, r0
    1d4c:	00133101 	andseq	r3, r3, r1, lsl #2
    1d50:	828a1000 	addhi	r1, sl, #0, 0
    1d54:	18020001 	stmdane	r2, {r0}
    1d58:	00184291 	mulseq	r8, r1, r2
    1d5c:	002e1100 	eoreq	r1, lr, r0, lsl #2
    1d60:	193c193f 	ldmdbne	ip!, {r0, r1, r2, r3, r4, r5, r8, fp, ip}
    1d64:	0e030e6e 	cdpeq	14, 0, cr0, cr3, cr14, {3}
    1d68:	0b3b0b3a 	bleq	ec4a58 <__bss_end__+0xeb99b0>
    1d6c:	00000b39 	andeq	r0, r0, r9, lsr fp
    1d70:	01110100 	tsteq	r1, r0, lsl #2
    1d74:	0b130e25 	bleq	4c5610 <__bss_end__+0x4ba568>
    1d78:	0e1b0e03 	cdpeq	14, 1, cr0, cr11, cr3, {0}
    1d7c:	06120111 			; <UNDEFINED> instruction: 0x06120111
    1d80:	00001710 	andeq	r1, r0, r0, lsl r7
    1d84:	0b002402 	bleq	ad94 <buf.3944+0xf0>
    1d88:	030b3e0b 	movweq	r3, #48651	; 0xbe0b
    1d8c:	03000008 	movweq	r0, #8
    1d90:	0b0b0024 	bleq	2c1e28 <__bss_end__+0x2b6d80>
    1d94:	0e030b3e 	vmoveq.16	d3[0], r0
    1d98:	15040000 	strne	r0, [r4, #-0]
    1d9c:	49192701 	ldmdbmi	r9, {r0, r8, r9, sl, sp}
    1da0:	00130113 	andseq	r0, r3, r3, lsl r1
    1da4:	00050500 	andeq	r0, r5, r0, lsl #10
    1da8:	00001349 	andeq	r1, r0, r9, asr #6
    1dac:	03003406 	movweq	r3, #1030	; 0x406
    1db0:	3b0b3a0e 	blcc	2d05f0 <__bss_end__+0x2c5548>
    1db4:	490b390b 	stmdbmi	fp, {r0, r1, r3, r8, fp, ip, sp}
    1db8:	3c193f13 	ldccc	15, cr3, [r9], {19}
    1dbc:	07000019 	smladeq	r0, r9, r0, r0
    1dc0:	0b0b000f 	bleq	2c1e04 <__bss_end__+0x2b6d5c>
    1dc4:	00001349 	andeq	r1, r0, r9, asr #6
    1dc8:	49002608 	stmdbmi	r0, {r3, r9, sl, sp}
    1dcc:	09000013 	stmdbeq	r0, {r0, r1, r4}
    1dd0:	193f012e 	ldmdbne	pc!, {r1, r2, r3, r5, r8}	; <UNPREDICTABLE>
    1dd4:	0b3a0e03 	bleq	e855e8 <__bss_end__+0xe7a540>
    1dd8:	0b390b3b 	bleq	e44acc <__bss_end__+0xe39a24>
    1ddc:	13491927 	movtne	r1, #39207	; 0x9927
    1de0:	06120111 			; <UNDEFINED> instruction: 0x06120111
    1de4:	42971840 	addsmi	r1, r7, #64, 16	; 0x400000
    1de8:	00130119 	andseq	r0, r3, r9, lsl r1
    1dec:	00050a00 	andeq	r0, r5, r0, lsl #20
    1df0:	0b3a0e03 	bleq	e85604 <__bss_end__+0xe7a55c>
    1df4:	0b390b3b 	bleq	e44ae8 <__bss_end__+0xe39a40>
    1df8:	18021349 	stmdane	r2, {r0, r3, r6, r8, r9, ip}
    1dfc:	050b0000 	streq	r0, [fp, #-0]
    1e00:	3a080300 	bcc	202a08 <__bss_end__+0x1f7960>
    1e04:	390b3b0b 	stmdbcc	fp, {r0, r1, r3, r8, r9, fp, ip, sp}
    1e08:	0213490b 	andseq	r4, r3, #180224	; 0x2c000
    1e0c:	1742b717 	smlaldne	fp, r2, r7, r7
    1e10:	340c0000 	strcc	r0, [ip], #-0
    1e14:	3a080300 	bcc	202a1c <__bss_end__+0x1f7974>
    1e18:	390b3b0b 	stmdbcc	fp, {r0, r1, r3, r8, r9, fp, ip, sp}
    1e1c:	0213490b 	andseq	r4, r3, #180224	; 0x2c000
    1e20:	1742b717 	smlaldne	fp, r2, r7, r7
    1e24:	01000000 	mrseq	r0, (UNDEF: 0)
    1e28:	0e250111 	mcreq	1, 1, r0, cr5, cr1, {0}
    1e2c:	0e030b13 	vmoveq.32	d3[0], r0
    1e30:	01110e1b 	tsteq	r1, fp, lsl lr
    1e34:	17100612 			; <UNDEFINED> instruction: 0x17100612
    1e38:	24020000 	strcs	r0, [r2], #-0
    1e3c:	3e0b0b00 	vmlacc.f64	d0, d11, d0
    1e40:	0008030b 	andeq	r0, r8, fp, lsl #6
    1e44:	00240300 	eoreq	r0, r4, r0, lsl #6
    1e48:	0b3e0b0b 	bleq	f84a7c <__bss_end__+0xf799d4>
    1e4c:	00000e03 	andeq	r0, r0, r3, lsl #28
    1e50:	27011504 	strcs	r1, [r1, -r4, lsl #10]
    1e54:	01134919 	tsteq	r3, r9, lsl r9
    1e58:	05000013 	streq	r0, [r0, #-19]	; 0xffffffed
    1e5c:	13490005 	movtne	r0, #36869	; 0x9005
    1e60:	34060000 	strcc	r0, [r6], #-0
    1e64:	3a0e0300 	bcc	382a6c <__bss_end__+0x3779c4>
    1e68:	390b3b0b 	stmdbcc	fp, {r0, r1, r3, r8, r9, fp, ip, sp}
    1e6c:	3f13490b 	svccc	0x0013490b
    1e70:	00193c19 	andseq	r3, r9, r9, lsl ip
    1e74:	000f0700 	andeq	r0, pc, r0, lsl #14
    1e78:	13490b0b 	movtne	r0, #39691	; 0x9b0b
    1e7c:	26080000 	strcs	r0, [r8], -r0
    1e80:	00134900 	andseq	r4, r3, r0, lsl #18
    1e84:	012e0900 			; <UNDEFINED> instruction: 0x012e0900
    1e88:	0e03193f 			; <UNDEFINED> instruction: 0x0e03193f
    1e8c:	0b3b0b3a 	bleq	ec4b7c <__bss_end__+0xeb9ad4>
    1e90:	19270b39 	stmdbne	r7!, {r0, r3, r4, r5, r8, r9, fp}
    1e94:	01111349 	tsteq	r1, r9, asr #6
    1e98:	18400612 	stmdane	r0, {r1, r4, r9, sl}^
    1e9c:	00194297 	mulseq	r9, r7, r2
    1ea0:	00050a00 	andeq	r0, r5, r0, lsl #20
    1ea4:	0b3a0803 	bleq	e83eb8 <__bss_end__+0xe78e10>
    1ea8:	0b390b3b 	bleq	e44b9c <__bss_end__+0xe39af4>
    1eac:	17021349 	strne	r1, [r2, -r9, asr #6]
    1eb0:	001742b7 			; <UNDEFINED> instruction: 0x001742b7
    1eb4:	11010000 	mrsne	r0, (UNDEF: 1)
    1eb8:	130e2501 	movwne	r2, #58625	; 0xe501
    1ebc:	1b0e030b 	blne	382af0 <__bss_end__+0x377a48>
    1ec0:	1201110e 	andne	r1, r1, #-2147483645	; 0x80000003
    1ec4:	00171006 	andseq	r1, r7, r6
    1ec8:	00240200 	eoreq	r0, r4, r0, lsl #4
    1ecc:	0b3e0b0b 	bleq	f84b00 <__bss_end__+0xf79a58>
    1ed0:	00000803 	andeq	r0, r0, r3, lsl #16
    1ed4:	0b002403 	bleq	aee8 <buf.3944+0x244>
    1ed8:	030b3e0b 	movweq	r3, #48651	; 0xbe0b
    1edc:	0400000e 	streq	r0, [r0], #-14
    1ee0:	19270115 	stmdbne	r7!, {r0, r2, r4, r8}
    1ee4:	13011349 	movwne	r1, #4937	; 0x1349
    1ee8:	05050000 	streq	r0, [r5, #-0]
    1eec:	00134900 	andseq	r4, r3, r0, lsl #18
    1ef0:	00340600 	eorseq	r0, r4, r0, lsl #12
    1ef4:	0b3a0e03 	bleq	e85708 <__bss_end__+0xe7a660>
    1ef8:	0b390b3b 	bleq	e44bec <__bss_end__+0xe39b44>
    1efc:	193f1349 	ldmdbne	pc!, {r0, r3, r6, r8, r9, ip}	; <UNPREDICTABLE>
    1f00:	0000193c 	andeq	r1, r0, ip, lsr r9
    1f04:	0b000f07 	bleq	5b28 <__code_start__-0x24d8>
    1f08:	0013490b 	andseq	r4, r3, fp, lsl #18
    1f0c:	00260800 	eoreq	r0, r6, r0, lsl #16
    1f10:	00001349 	andeq	r1, r0, r9, asr #6
    1f14:	3f012e09 	svccc	0x00012e09
    1f18:	3a0e0319 	bcc	382b84 <__bss_end__+0x377adc>
    1f1c:	390b3b0b 	stmdbcc	fp, {r0, r1, r3, r8, r9, fp, ip, sp}
    1f20:	4919270b 	ldmdbmi	r9, {r0, r1, r3, r8, r9, sl, sp}
    1f24:	12011113 	andne	r1, r1, #-1073741820	; 0xc0000004
    1f28:	97184006 	ldrls	r4, [r8, -r6]
    1f2c:	13011942 	movwne	r1, #6466	; 0x1942
    1f30:	050a0000 	streq	r0, [sl, #-0]
    1f34:	3a080300 	bcc	202b3c <__bss_end__+0x1f7a94>
    1f38:	390b3b0b 	stmdbcc	fp, {r0, r1, r3, r8, r9, fp, ip, sp}
    1f3c:	0213490b 	andseq	r4, r3, #180224	; 0x2c000
    1f40:	0b000018 	bleq	1fa8 <__code_start__-0x6058>
    1f44:	08030005 	stmdaeq	r3, {r0, r2}
    1f48:	0b3b0b3a 	bleq	ec4c38 <__bss_end__+0xeb9b90>
    1f4c:	13490b39 	movtne	r0, #39737	; 0x9b39
    1f50:	42b71702 	adcsmi	r1, r7, #524288	; 0x80000
    1f54:	0c000017 	stceq	0, cr0, [r0], {23}
    1f58:	08030034 	stmdaeq	r3, {r2, r4, r5}
    1f5c:	0b3b0b3a 	bleq	ec4c4c <__bss_end__+0xeb9ba4>
    1f60:	13490b39 	movtne	r0, #39737	; 0x9b39
    1f64:	42b71702 	adcsmi	r1, r7, #524288	; 0x80000
    1f68:	00000017 	andeq	r0, r0, r7, lsl r0
    1f6c:	25011101 	strcs	r1, [r1, #-257]	; 0xfffffeff
    1f70:	030b130e 	movweq	r1, #45838	; 0xb30e
    1f74:	110e1b0e 	tstne	lr, lr, lsl #22
    1f78:	10061201 	andne	r1, r6, r1, lsl #4
    1f7c:	02000017 	andeq	r0, r0, #23, 0
    1f80:	0b0b0024 	bleq	2c2018 <__bss_end__+0x2b6f70>
    1f84:	08030b3e 	stmdaeq	r3, {r1, r2, r3, r4, r5, r8, r9, fp}
    1f88:	16030000 	strne	r0, [r3], -r0
    1f8c:	3a0e0300 	bcc	382b94 <__bss_end__+0x377aec>
    1f90:	390b3b0b 	stmdbcc	fp, {r0, r1, r3, r8, r9, fp, ip, sp}
    1f94:	0013490b 	andseq	r4, r3, fp, lsl #18
    1f98:	00240400 	eoreq	r0, r4, r0, lsl #8
    1f9c:	0b3e0b0b 	bleq	f84bd0 <__bss_end__+0xf79b28>
    1fa0:	00000e03 	andeq	r0, r0, r3, lsl #28
    1fa4:	49002605 	stmdbmi	r0, {r0, r2, r9, sl, sp}
    1fa8:	06000013 			; <UNDEFINED> instruction: 0x06000013
    1fac:	19270115 	stmdbne	r7!, {r0, r2, r4, r8}
    1fb0:	13011349 	movwne	r1, #4937	; 0x1349
    1fb4:	05070000 	streq	r0, [r7, #-0]
    1fb8:	00134900 	andseq	r4, r3, r0, lsl #18
    1fbc:	00340800 	eorseq	r0, r4, r0, lsl #16
    1fc0:	0b3a0e03 	bleq	e857d4 <__bss_end__+0xe7a72c>
    1fc4:	0b390b3b 	bleq	e44cb8 <__bss_end__+0xe39c10>
    1fc8:	193f1349 	ldmdbne	pc!, {r0, r3, r6, r8, r9, ip}	; <UNPREDICTABLE>
    1fcc:	0000193c 	andeq	r1, r0, ip, lsr r9
    1fd0:	0b000f09 	bleq	5bfc <__code_start__-0x2404>
    1fd4:	0013490b 	andseq	r4, r3, fp, lsl #18
    1fd8:	012e0a00 			; <UNDEFINED> instruction: 0x012e0a00
    1fdc:	0e03193f 			; <UNDEFINED> instruction: 0x0e03193f
    1fe0:	0b3b0b3a 	bleq	ec4cd0 <__bss_end__+0xeb9c28>
    1fe4:	19270b39 	stmdbne	r7!, {r0, r3, r4, r5, r8, r9, fp}
    1fe8:	01111349 	tsteq	r1, r9, asr #6
    1fec:	18400612 	stmdane	r0, {r1, r4, r9, sl}^
    1ff0:	01194297 			; <UNDEFINED> instruction: 0x01194297
    1ff4:	0b000013 	bleq	2048 <__code_start__-0x5fb8>
    1ff8:	08030005 	stmdaeq	r3, {r0, r2}
    1ffc:	0b3b0b3a 	bleq	ec4cec <__bss_end__+0xeb9c44>
    2000:	13490b39 	movtne	r0, #39737	; 0x9b39
    2004:	42b71702 	adcsmi	r1, r7, #524288	; 0x80000
    2008:	0c000017 	stceq	0, cr0, [r0], {23}
    200c:	08030034 	stmdaeq	r3, {r2, r4, r5}
    2010:	0b3b0b3a 	bleq	ec4d00 <__bss_end__+0xeb9c58>
    2014:	13490b39 	movtne	r0, #39737	; 0x9b39
    2018:	42b71702 	adcsmi	r1, r7, #524288	; 0x80000
    201c:	00000017 	andeq	r0, r0, r7, lsl r0
    2020:	25011101 	strcs	r1, [r1, #-257]	; 0xfffffeff
    2024:	030b130e 	movweq	r1, #45838	; 0xb30e
    2028:	110e1b0e 	tstne	lr, lr, lsl #22
    202c:	10061201 	andne	r1, r6, r1, lsl #4
    2030:	02000017 	andeq	r0, r0, #23, 0
    2034:	0b0b0024 	bleq	2c20cc <__bss_end__+0x2b7024>
    2038:	08030b3e 	stmdaeq	r3, {r1, r2, r3, r4, r5, r8, r9, fp}
    203c:	24030000 	strcs	r0, [r3], #-0
    2040:	3e0b0b00 	vmlacc.f64	d0, d11, d0
    2044:	000e030b 	andeq	r0, lr, fp, lsl #6
    2048:	01150400 	tsteq	r5, r0, lsl #8
    204c:	13491927 	movtne	r1, #39207	; 0x9927
    2050:	00001301 	andeq	r1, r0, r1, lsl #6
    2054:	49000505 	stmdbmi	r0, {r0, r2, r8, sl}
    2058:	06000013 			; <UNDEFINED> instruction: 0x06000013
    205c:	0e030034 	mcreq	0, 0, r0, cr3, cr4, {1}
    2060:	0b3b0b3a 	bleq	ec4d50 <__bss_end__+0xeb9ca8>
    2064:	13490b39 	movtne	r0, #39737	; 0x9b39
    2068:	193c193f 	ldmdbne	ip!, {r0, r1, r2, r3, r4, r5, r8, fp, ip}
    206c:	0f070000 	svceq	0x00070000
    2070:	490b0b00 	stmdbmi	fp, {r8, r9, fp}
    2074:	08000013 	stmdaeq	r0, {r0, r1, r4}
    2078:	13490026 	movtne	r0, #36902	; 0x9026
    207c:	2e090000 	cdpcs	0, 0, cr0, cr9, cr0, {0}
    2080:	03193f00 	tsteq	r9, #0, 30
    2084:	3b0b3a0e 	blcc	2d08c4 <__bss_end__+0x2c581c>
    2088:	270b390b 	strcs	r3, [fp, -fp, lsl #18]
    208c:	12011119 	andne	r1, r1, #1073741830	; 0x40000006
    2090:	97184006 	ldrls	r4, [r8, -r6]
    2094:	00001942 	andeq	r1, r0, r2, asr #18
	...

Disassembly of section .debug_loc:

00000000 <.debug_loc>:
       0:	00000000 	andeq	r0, r0, r0
       4:	00400000 	subeq	r0, r0, r0
       8:	00430000 	subeq	r0, r3, r0
       c:	00010000 	andeq	r0, r1, r0
      10:	00004350 	andeq	r4, r0, r0, asr r3
      14:	0000b400 	andeq	fp, r0, r0, lsl #8
      18:	57000100 	strpl	r0, [r0, -r0, lsl #2]
      1c:	000000b8 	strheq	r0, [r0], -r8
      20:	000000e8 	andeq	r0, r0, r8, ror #1
      24:	00570001 	subseq	r0, r7, r1
	...
      34:	00007800 	andeq	r7, r0, r0, lsl #16
      38:	00007c00 	andeq	r7, r0, r0, lsl #24
      3c:	50000100 	andpl	r0, r0, r0, lsl #2
      40:	0000007c 	andeq	r0, r0, ip, ror r0
      44:	000000b4 	strheq	r0, [r0], -r4
      48:	b8560001 	ldmdalt	r6, {r0}^
      4c:	e8000000 	stmda	r0, {}	; <UNPREDICTABLE>
      50:	01000000 	mrseq	r0, (UNDEF: 0)
      54:	00005600 	andeq	r5, r0, r0, lsl #12
	...
      60:	00000014 	andeq	r0, r0, r4, lsl r0
      64:	0000001c 	andeq	r0, r0, ip, lsl r0
      68:	9f380002 	svcls	0x00380002
	...
      74:	00140000 	andseq	r0, r4, r0
      78:	001c0000 	andseq	r0, ip, r0
      7c:	00060000 	andeq	r0, r6, r0
      80:	000351f2 	strdeq	r5, [r3], -r2
	...
      90:	00000014 	andeq	r0, r0, r4, lsl r0
      94:	0000001c 	andeq	r0, r0, ip, lsl r0
      98:	b8030006 	stmdalt	r3, {r1, r2}
      9c:	9f0000a3 	svcls	0x000000a3
	...
      a8:	00440000 	subeq	r0, r4, r0
      ac:	00500000 	subseq	r0, r0, r0
      b0:	00020000 	andeq	r0, r2, r0
      b4:	00009f39 	andeq	r9, r0, r9, lsr pc
	...
      c0:	00000044 	andeq	r0, r0, r4, asr #32
      c4:	00000050 	andeq	r0, r0, r0, asr r0
      c8:	51f20006 	mvnspl	r0, r6
      cc:	00000003 	andeq	r0, r0, r3
	...
      d8:	00440000 	subeq	r0, r4, r0
      dc:	00500000 	subseq	r0, r0, r0
      e0:	00060000 	andeq	r0, r6, r0
      e4:	00a3b803 	adceq	fp, r3, r3, lsl #16
      e8:	00009f00 	andeq	r9, r0, r0, lsl #30
      ec:	00000000 	andeq	r0, r0, r0
      f0:	03010000 	movweq	r0, #4096	; 0x1000
      f4:	00000078 	andeq	r0, r0, r8, ror r0
      f8:	00000078 	andeq	r0, r0, r8, ror r0
      fc:	9f3a0002 	svcls	0x003a0002
	...
     108:	00780301 	rsbseq	r0, r8, r1, lsl #6
     10c:	00780000 	rsbseq	r0, r8, r0
     110:	00060000 	andeq	r0, r6, r0
     114:	000351f2 	strdeq	r5, [r3], -r2
	...
     120:	03010000 	movweq	r0, #4096	; 0x1000
     124:	00000078 	andeq	r0, r0, r8, ror r0
     128:	00000078 	andeq	r0, r0, r8, ror r0
     12c:	b8030006 	stmdalt	r3, {r1, r2}
     130:	9f0000a3 	svcls	0x000000a3
	...
     13c:	00800001 	addeq	r0, r0, r1
     140:	008c0000 	addeq	r0, ip, r0
     144:	00020000 	andeq	r0, r2, r0
     148:	00009f3b 	andeq	r9, r0, fp, lsr pc
     14c:	00000000 	andeq	r0, r0, r0
     150:	00010000 	andeq	r0, r1, r0
     154:	00000080 	andeq	r0, r0, r0, lsl #1
     158:	0000008c 	andeq	r0, r0, ip, lsl #1
     15c:	51f20006 	mvnspl	r0, r6
     160:	00000003 	andeq	r0, r0, r3
	...
     16c:	00800001 	addeq	r0, r0, r1
     170:	008c0000 	addeq	r0, ip, r0
     174:	00060000 	andeq	r0, r6, r0
     178:	00a3b803 	adceq	fp, r3, r3, lsl #16
     17c:	00009f00 	andeq	r9, r0, r0, lsl #30
	...
     188:	02a80000 	adceq	r0, r8, #0, 0
     18c:	02bc0000 	adcseq	r0, ip, #0, 0
     190:	00010000 	andeq	r0, r1, r0
     194:	0002bc50 	andeq	fp, r2, r0, asr ip
     198:	00039c00 	andeq	r9, r3, r0, lsl #24
     19c:	55000100 	strpl	r0, [r0, #-256]	; 0xffffff00
	...
     1ac:	000002c8 	andeq	r0, r0, r8, asr #5
     1b0:	000002d3 	ldrdeq	r0, [r0], -r3
     1b4:	d3500001 	cmple	r0, #1, 0
     1b8:	9c000002 	stcls	0, cr0, [r0], {2}
     1bc:	01000003 	tsteq	r0, r3
     1c0:	00005400 	andeq	r5, r0, r0, lsl #8
     1c4:	00000000 	andeq	r0, r0, r0
     1c8:	00020000 	andeq	r0, r2, r0
     1cc:	02d40000 	sbcseq	r0, r4, #0, 0
     1d0:	03000000 	movweq	r0, #0
     1d4:	00020000 	andeq	r0, r2, r0
     1d8:	03649f30 	cmneq	r4, #48, 30	; 0xc0
     1dc:	03780000 	cmneq	r8, #0, 0
     1e0:	00020000 	andeq	r0, r2, r0
     1e4:	00009f30 	andeq	r9, r0, r0, lsr pc
	...
     1f8:	000000d0 	ldrdeq	r0, [r0], -r0	; <UNPREDICTABLE>
     1fc:	000000e0 	andeq	r0, r0, r0, ror #1
     200:	e0500001 	subs	r0, r0, r1
     204:	f0000000 			; <UNDEFINED> instruction: 0xf0000000
     208:	01000001 	tsteq	r0, r1
     20c:	01f05400 	mvnseq	r5, r0, lsl #8
     210:	01f30000 	mvnseq	r0, r0
     214:	00010000 	andeq	r0, r1, r0
     218:	0001f351 	andeq	pc, r1, r1, asr r3	; <UNPREDICTABLE>
     21c:	0001f400 	andeq	pc, r1, r0, lsl #8
     220:	f3000400 	vshl.u8	d0, d0, d0
     224:	f49f5001 			; <UNDEFINED> instruction: 0xf49f5001
     228:	a8000001 	stmdage	r0, {r0}
     22c:	01000002 	tsteq	r0, r2
     230:	00005400 	andeq	r5, r0, r0, lsl #8
	...
     240:	000000ec 	andeq	r0, r0, ip, ror #1
     244:	000001f0 	strdeq	r0, [r0], -r0	; <UNPREDICTABLE>
     248:	04930008 	ldreq	r0, [r3], #8
     24c:	55049357 	strpl	r9, [r4, #-855]	; 0xfffffca9
     250:	01f00493 			; <UNDEFINED> instruction: 0x01f00493
     254:	01f40000 	mvnseq	r0, r0
     258:	000a0000 	andeq	r0, sl, r0
     25c:	58910493 	ldmpl	r1, {r0, r1, r4, r7, sl}
     260:	5c910493 	cfldrspl	mvf0, [r1], {147}	; 0x93
     264:	01f40493 			; <UNDEFINED> instruction: 0x01f40493
     268:	02a80000 	adceq	r0, r8, #0, 0
     26c:	00080000 	andeq	r0, r8, r0
     270:	93570493 	cmpls	r7, #-1828716544	; 0x93000000
     274:	04935504 	ldreq	r5, [r3], #1284	; 0x504
	...
     280:	00020201 	andeq	r0, r2, r1, lsl #4
     284:	00000000 	andeq	r0, r0, r0
     288:	00ec0000 	rsceq	r0, ip, r0
     28c:	00ec0000 	rsceq	r0, ip, r0
     290:	00010000 	andeq	r0, r1, r0
     294:	0000ec54 	andeq	lr, r0, r4, asr ip
     298:	0001f000 	andeq	pc, r1, r0
     29c:	74000400 	strvc	r0, [r0], #-1024	; 0xfffffc00
     2a0:	f09f7ecc 			; <UNDEFINED> instruction: 0xf09f7ecc
     2a4:	f3000001 	vhadd.u8	d0, d0, d1
     2a8:	04000001 	streq	r0, [r0], #-1
     2ac:	7ecc7100 	polvce	f7, f4, f0
     2b0:	0001f39f 	muleq	r1, pc, r3	; <UNPREDICTABLE>
     2b4:	0001f400 	andeq	pc, r1, r0, lsl #8
     2b8:	f3000700 	vabd.u8	d0, d0, d0
     2bc:	b4085001 	strlt	r5, [r8], #-1
     2c0:	01f49f1c 	mvnseq	r9, ip, lsl pc
     2c4:	02a80000 	adceq	r0, r8, #0, 0
     2c8:	00040000 	andeq	r0, r4, r0
     2cc:	9f7ecc74 	svcls	0x007ecc74
	...
     2dc:	00010100 	andeq	r0, r1, r0, lsl #2
     2e0:	00000154 	andeq	r0, r0, r4, asr r1
     2e4:	00000164 	andeq	r0, r0, r4, ror #2
     2e8:	9f300002 	svcls	0x00300002
     2ec:	00000164 	andeq	r0, r0, r4, ror #2
     2f0:	0000016c 	andeq	r0, r0, ip, ror #2
     2f4:	00720008 	rsbseq	r0, r2, r8
     2f8:	231c0074 	tstcs	ip, #116, 0	; 0x74
     2fc:	016c9f01 	cmneq	ip, r1, lsl #30
     300:	016c0000 	cmneq	ip, r0
     304:	00080000 	andeq	r0, r8, r0
     308:	00740073 	rsbseq	r0, r4, r3, ror r0
     30c:	9f01231c 	svcls	0x0001231c
     310:	0000016c 	andeq	r0, r0, ip, ror #2
     314:	00000180 	andeq	r0, r0, r0, lsl #3
     318:	00720008 	rsbseq	r0, r2, r8
     31c:	231c0074 	tstcs	ip, #116, 0	; 0x74
     320:	00009f01 	andeq	r9, r0, r1, lsl #30
     324:	00000000 	andeq	r0, r0, r0
     328:	00030000 	andeq	r0, r3, r0
     32c:	00000000 	andeq	r0, r0, r0
     330:	000001a0 	andeq	r0, r0, r0, lsr #3
     334:	000001f0 	strdeq	r0, [r0], -r0	; <UNPREDICTABLE>
     338:	f0540001 			; <UNDEFINED> instruction: 0xf0540001
     33c:	f3000001 	vhadd.u8	d0, d0, d1
     340:	01000001 	tsteq	r0, r1
     344:	01f35100 	mvnseq	r5, r0, lsl #2
     348:	01f40000 	mvnseq	r0, r0
     34c:	00040000 	andeq	r0, r4, r0
     350:	9f5001f3 	svcls	0x005001f3
	...
     35c:	01a00008 	moveq	r0, r8
     360:	01f30000 	mvnseq	r0, r0
     364:	00010000 	andeq	r0, r1, r0
     368:	00000052 	andeq	r0, r0, r2, asr r0
     36c:	00000000 	andeq	r0, r0, r0
     370:	a8000100 	stmdage	r0, {r8}
     374:	ac000001 	stcge	0, cr0, [r0], {1}
     378:	01000001 	tsteq	r0, r1
     37c:	00005200 	andeq	r5, r0, r0, lsl #4
     380:	00000000 	andeq	r0, r0, r0
     384:	0d010000 	stceq	0, cr0, [r1, #-0]
     388:	000001b4 			; <UNDEFINED> instruction: 0x000001b4
     38c:	000001b4 			; <UNDEFINED> instruction: 0x000001b4
     390:	00540001 	subseq	r0, r4, r1
     394:	00000000 	andeq	r0, r0, r0
     398:	01000000 	mrseq	r0, (UNDEF: 0)
     39c:	0001b40d 	andeq	fp, r1, sp, lsl #8
     3a0:	0001b400 	andeq	fp, r1, r0, lsl #8
     3a4:	52000100 	andpl	r0, r0, #0
	...
     3b0:	00000005 	andeq	r0, r0, r5
     3b4:	01b40000 			; <UNDEFINED> instruction: 0x01b40000
     3b8:	01bc0000 			; <UNDEFINED> instruction: 0x01bc0000
     3bc:	00040000 	andeq	r0, r4, r0
     3c0:	9f01b472 	svcls	0x0001b472
     3c4:	000001bc 			; <UNDEFINED> instruction: 0x000001bc
     3c8:	000001e4 	andeq	r0, r0, r4, ror #3
     3cc:	e4510001 	ldrb	r0, [r1], #-1
     3d0:	f3000001 	vhadd.u8	d0, d0, d1
     3d4:	04000001 	streq	r0, [r0], #-1
     3d8:	01b47200 			; <UNDEFINED> instruction: 0x01b47200
     3dc:	0000009f 	muleq	r0, pc, r0	; <UNPREDICTABLE>
     3e0:	00000000 	andeq	r0, r0, r0
     3e4:	b4000c00 	strlt	r0, [r0], #-3072	; 0xfffff400
     3e8:	f3000001 	vhadd.u8	d0, d0, d1
     3ec:	0a000001 	beq	3f8 <__code_start__-0x7c08>
     3f0:	72007200 	andvc	r7, r0, #0, 4
     3f4:	23220604 			; <UNDEFINED> instruction: 0x23220604
     3f8:	009f01b4 			; <UNDEFINED> instruction: 0x009f01b4
     3fc:	00000000 	andeq	r0, r0, r0
     400:	03000000 	movweq	r0, #0
     404:	0001b405 	andeq	fp, r1, r5, lsl #8
     408:	0001b400 	andeq	fp, r1, r0, lsl #8
     40c:	52000100 	andpl	r0, r0, #0
	...
     418:	01b40c07 			; <UNDEFINED> instruction: 0x01b40c07
     41c:	01b40000 			; <UNDEFINED> instruction: 0x01b40000
     420:	00010000 	andeq	r0, r1, r0
     424:	00000052 	andeq	r0, r0, r2, asr r0
	...
     430:	00001000 	andeq	r1, r0, r0
     434:	00001800 	andeq	r1, r0, r0, lsl #16
     438:	50000100 	andpl	r0, r0, r0, lsl #2
     43c:	00000018 	andeq	r0, r0, r8, lsl r0
     440:	0000001c 	andeq	r0, r0, ip, lsl r0
     444:	01f30004 	mvnseq	r0, r4
     448:	00009f50 	andeq	r9, r0, r0, asr pc
	...
     454:	001c0000 	andseq	r0, ip, r0
     458:	00200000 	eoreq	r0, r0, r0
     45c:	00010000 	andeq	r0, r1, r0
     460:	00002050 	andeq	r2, r0, r0, asr r0
     464:	00002400 	andeq	r2, r0, r0, lsl #8
     468:	70000400 	andvc	r0, r0, r0, lsl #8
     46c:	009f7ecc 	addseq	r7, pc, ip, asr #29
	...
     478:	24000000 	strcs	r0, [r0], #-0
     47c:	30000000 	andcc	r0, r0, r0
     480:	01000000 	mrseq	r0, (UNDEF: 0)
     484:	00305000 	eorseq	r5, r0, r0
     488:	00340000 	eorseq	r0, r4, r0
     48c:	00040000 	andeq	r0, r4, r0
     490:	9f5001f3 	svcls	0x005001f3
	...
     4a0:	00000034 	andeq	r0, r0, r4, lsr r0
     4a4:	00000044 	andeq	r0, r0, r4, asr #32
     4a8:	44500001 	ldrbmi	r0, [r0], #-1
     4ac:	58000000 	stmdapl	r0, {}	; <UNPREDICTABLE>
     4b0:	04000000 	streq	r0, [r0], #-0
     4b4:	7ecc7200 	cdpvc	2, 12, cr7, cr12, cr0, {0}
     4b8:	0000009f 	muleq	r0, pc, r0	; <UNPREDICTABLE>
     4bc:	00000000 	andeq	r0, r0, r0
     4c0:	00000400 	andeq	r0, r0, r0, lsl #8
     4c4:	00003400 	andeq	r3, r0, r0, lsl #8
     4c8:	00003c00 	andeq	r3, r0, r0, lsl #24
     4cc:	70000400 	andvc	r0, r0, r0, lsl #8
     4d0:	3c9f01b4 	ldfccs	f0, [pc], {180}	; 0xb4
     4d4:	58000000 	stmdapl	r0, {}	; <UNPREDICTABLE>
     4d8:	01000000 	mrseq	r0, (UNDEF: 0)
     4dc:	00005200 	andeq	r5, r0, r0, lsl #4
     4e0:	00000000 	andeq	r0, r0, r0
     4e4:	000b0000 	andeq	r0, fp, r0
     4e8:	00340000 	eorseq	r0, r4, r0
     4ec:	00440000 	subeq	r0, r4, r0
     4f0:	000a0000 	andeq	r0, sl, r0
     4f4:	04700070 	ldrbteq	r0, [r0], #-112	; 0xffffff90
     4f8:	b4232206 	strtlt	r2, [r3], #-518	; 0xfffffdfa
     4fc:	00449f01 	subeq	r9, r4, r1, lsl #30
     500:	00580000 	subseq	r0, r8, r0
     504:	00080000 	andeq	r0, r8, r0
     508:	d0720072 	rsbsle	r0, r2, r2, ror r0
     50c:	9f22067e 	svcls	0x0022067e
	...
     518:	00340402 	eorseq	r0, r4, r2, lsl #8
     51c:	00340000 	eorseq	r0, r4, r0
     520:	00010000 	andeq	r0, r1, r0
     524:	00000050 	andeq	r0, r0, r0, asr r0
     528:	00000000 	andeq	r0, r0, r0
     52c:	340b0600 	strcc	r0, [fp], #-1536	; 0xfffffa00
     530:	34000000 	strcc	r0, [r0], #-0
     534:	01000000 	mrseq	r0, (UNDEF: 0)
     538:	00005000 	andeq	r5, r0, r0
	...
     548:	00000058 	andeq	r0, r0, r8, asr r0
     54c:	000000bc 	strheq	r0, [r0], -ip
     550:	bc500001 	mrrclt	0, 0, r0, r0, cr1	; <UNPREDICTABLE>
     554:	bf000000 	svclt	0x00000000
     558:	01000000 	mrseq	r0, (UNDEF: 0)
     55c:	00bf5100 	adcseq	r5, pc, r0, lsl #2
     560:	00d00000 	sbcseq	r0, r0, r0
     564:	00040000 	andeq	r0, r4, r0
     568:	9f5001f3 	svcls	0x005001f3
	...
     574:	000d0000 	andeq	r0, sp, r0
     578:	00000064 	andeq	r0, r0, r4, rrx
     57c:	0000007c 	andeq	r0, r0, ip, ror r0
     580:	7c540001 	mrrcvc	0, 0, r0, r4, cr1
     584:	d0000000 	andle	r0, r0, r0
     588:	01000000 	mrseq	r0, (UNDEF: 0)
     58c:	00005400 	andeq	r5, r0, r0, lsl #8
     590:	00000000 	andeq	r0, r0, r0
     594:	0d010000 	stceq	0, cr0, [r1, #-0]
     598:	006c0d00 	rsbeq	r0, ip, r0, lsl #26
     59c:	006c0000 	rsbeq	r0, ip, r0
     5a0:	00010000 	andeq	r0, r1, r0
     5a4:	00007c50 	andeq	r7, r0, r0, asr ip
     5a8:	00007c00 	andeq	r7, r0, r0, lsl #24
     5ac:	50000100 	andpl	r0, r0, r0, lsl #2
	...
     5b8:	0d000d01 	stceq	13, cr0, [r0, #-4]
     5bc:	0000006c 	andeq	r0, r0, ip, rrx
     5c0:	0000006c 	andeq	r0, r0, ip, rrx
     5c4:	7c540001 	mrrcvc	0, 0, r0, r4, cr1
     5c8:	7c000000 	stcvc	0, cr0, [r0], {-0}
     5cc:	01000000 	mrseq	r0, (UNDEF: 0)
     5d0:	00005400 	andeq	r5, r0, r0, lsl #8
     5d4:	00000000 	andeq	r0, r0, r0
     5d8:	00050000 	andeq	r0, r5, r0
     5dc:	05020200 	streq	r0, [r2, #-512]	; 0xfffffe00
     5e0:	00000005 	andeq	r0, r0, r5
     5e4:	0000006c 	andeq	r0, r0, ip, rrx
     5e8:	00000074 	andeq	r0, r0, r4, ror r0
     5ec:	b4740004 	ldrbtlt	r0, [r4], #-4
     5f0:	00749f01 	rsbseq	r9, r4, r1, lsl #30
     5f4:	00780000 	rsbseq	r0, r8, r0
     5f8:	00010000 	andeq	r0, r1, r0
     5fc:	00007852 	andeq	r7, r0, r2, asr r8
     600:	00007c00 	andeq	r7, r0, r0, lsl #24
     604:	03000a00 	movweq	r0, #2560	; 0xa00
     608:	0000ac80 	andeq	sl, r0, r0, lsl #25
     60c:	01b42306 			; <UNDEFINED> instruction: 0x01b42306
     610:	00007c9f 	muleq	r0, pc, ip	; <UNPREDICTABLE>
     614:	00008400 	andeq	r8, r0, r0, lsl #8
     618:	74000400 	strvc	r0, [r0], #-1024	; 0xfffffc00
     61c:	849f01b4 	ldrhi	r0, [pc], #436	; 624 <__code_start__-0x79dc>
     620:	b8000000 	stmdalt	r0, {}	; <UNPREDICTABLE>
     624:	01000000 	mrseq	r0, (UNDEF: 0)
     628:	00005200 	andeq	r5, r0, r0, lsl #4
     62c:	00000000 	andeq	r0, r0, r0
     630:	000c0000 	andeq	r0, ip, r0
     634:	000c0c02 	andeq	r0, ip, r2, lsl #24
     638:	0000006c 	andeq	r0, r0, ip, rrx
     63c:	00000078 	andeq	r0, r0, r8, ror r0
     640:	0074000a 	rsbseq	r0, r4, sl
     644:	22060474 	andcs	r0, r6, #116, 8	; 0x74000000
     648:	9f01b423 	svcls	0x0001b423
     64c:	00000078 	andeq	r0, r0, r8, ror r0
     650:	0000007c 	andeq	r0, r0, ip, ror r0
     654:	80030014 	andhi	r0, r3, r4, lsl r0
     658:	060000ac 	streq	r0, [r0], -ip, lsr #1
     65c:	00ac8003 	adceq	r8, ip, r3
     660:	04230600 	strteq	r0, [r3], #-1536	; 0xfffffa00
     664:	b4232206 	strtlt	r2, [r3], #-518	; 0xfffffdfa
     668:	007c9f01 	rsbseq	r9, ip, r1, lsl #30
     66c:	008c0000 	addeq	r0, ip, r0
     670:	000a0000 	andeq	r0, sl, r0
     674:	04740074 	ldrbteq	r0, [r4], #-116	; 0xffffff8c
     678:	b4232206 	strtlt	r2, [r3], #-518	; 0xfffffdfa
     67c:	00009f01 	andeq	r9, r0, r1, lsl #30
     680:	00000000 	andeq	r0, r0, r0
     684:	05030000 	streq	r0, [r3, #-0]
     688:	006c0503 	rsbeq	r0, ip, r3, lsl #10
     68c:	006c0000 	rsbeq	r0, ip, r0
     690:	00010000 	andeq	r0, r1, r0
     694:	00007c54 	andeq	r7, r0, r4, asr ip
     698:	00007c00 	andeq	r7, r0, r0, lsl #24
     69c:	54000100 	strpl	r0, [r0], #-256	; 0xffffff00
	...
     6a8:	0c070c07 	stceq	12, cr0, [r7], {7}
     6ac:	0000006c 	andeq	r0, r0, ip, rrx
     6b0:	0000006c 	andeq	r0, r0, ip, rrx
     6b4:	7c540001 	mrrcvc	0, 0, r0, r4, cr1
     6b8:	7c000000 	stcvc	0, cr0, [r0], {-0}
     6bc:	01000000 	mrseq	r0, (UNDEF: 0)
     6c0:	00005400 	andeq	r5, r0, r0, lsl #8
     6c4:	00000000 	andeq	r0, r0, r0
     6c8:	00030000 	andeq	r0, r3, r0
     6cc:	00000078 	andeq	r0, r0, r8, ror r0
     6d0:	0000007c 	andeq	r0, r0, ip, ror r0
     6d4:	00540001 	subseq	r0, r4, r1
	...
     6e8:	00006c00 	andeq	r6, r0, r0, lsl #24
     6ec:	50000100 	andpl	r0, r0, r0, lsl #2
     6f0:	0000006c 	andeq	r0, r0, ip, rrx
     6f4:	00000074 	andeq	r0, r0, r4, ror r0
     6f8:	08710003 	ldmdaeq	r1!, {r0, r1}^
     6fc:	0000749f 	muleq	r0, pc, r4	; <UNPREDICTABLE>
     700:	00008800 	andeq	r8, r0, r0, lsl #16
     704:	f3000400 	vshl.u8	d0, d0, d0
     708:	009f5001 	addseq	r5, pc, r1
	...
     714:	0c000000 	stceq	0, cr0, [r0], {-0}
     718:	74000000 	strvc	r0, [r0], #-0
     71c:	01000000 	mrseq	r0, (UNDEF: 0)
     720:	00745100 	rsbseq	r5, r4, r0, lsl #2
     724:	00880000 	addeq	r0, r8, r0
     728:	00060000 	andeq	r0, r6, r0
     72c:	385001f3 	ldmdacc	r0, {r0, r1, r4, r5, r6, r7, r8}^
     730:	00009f1c 	andeq	r9, r0, ip, lsl pc
	...
     73c:	00000010 	andeq	r0, r0, r0, lsl r0
     740:	00000088 	andeq	r0, r0, r8, lsl #1
     744:	00530001 	subseq	r0, r3, r1
	...
     754:	88000000 	stmdahi	r0, {}	; <UNPREDICTABLE>
     758:	ac000000 	stcge	0, cr0, [r0], {-0}
     75c:	01000000 	mrseq	r0, (UNDEF: 0)
     760:	00ac5000 	adceq	r5, ip, r0
     764:	015c0000 	cmpeq	ip, r0
     768:	00040000 	andeq	r0, r4, r0
     76c:	9f5001f3 	svcls	0x005001f3
     770:	0000015c 	andeq	r0, r0, ip, asr r1
     774:	00000168 	andeq	r0, r0, r8, ror #2
     778:	68500001 	ldmdavs	r0, {r0}^
     77c:	88000001 	stmdahi	r0, {r0}
     780:	04000001 	streq	r0, [r0], #-1
     784:	5001f300 	andpl	pc, r1, r0, lsl #6
     788:	0000009f 	muleq	r0, pc, r0	; <UNPREDICTABLE>
	...
     798:	01010101 	tsteq	r1, r1, lsl #2
     79c:	00000200 	andeq	r0, r0, r0, lsl #4
     7a0:	0000ac00 	andeq	sl, r0, r0, lsl #24
     7a4:	0000b800 	andeq	fp, r0, r0, lsl #16
     7a8:	50000100 	andpl	r0, r0, r0, lsl #2
     7ac:	000000c4 	andeq	r0, r0, r4, asr #1
     7b0:	000000c8 	andeq	r0, r0, r8, asr #1
     7b4:	c8530001 	ldmdagt	r3, {r0}^
     7b8:	d4000000 	strle	r0, [r0], #-0
     7bc:	01000000 	mrseq	r0, (UNDEF: 0)
     7c0:	01105000 	tsteq	r0, r0
     7c4:	01200000 			; <UNDEFINED> instruction: 0x01200000
     7c8:	00010000 	andeq	r0, r1, r0
     7cc:	00012053 	andeq	r2, r1, r3, asr r0
     7d0:	00013c00 	andeq	r3, r1, r0, lsl #24
     7d4:	50000100 	andpl	r0, r0, r0, lsl #2
     7d8:	0000013c 	andeq	r0, r0, ip, lsr r1
     7dc:	00000140 	andeq	r0, r0, r0, asr #2
     7e0:	00720008 	rsbseq	r0, r2, r8
     7e4:	00702433 	rsbseq	r2, r0, r3, lsr r4
     7e8:	01749f22 	cmneq	r4, r2, lsr #30
     7ec:	01780000 	cmneq	r8, r0
     7f0:	00060000 	andeq	r0, r6, r0
     7f4:	00ac9003 	adceq	r9, ip, r3
     7f8:	01789f00 	cmneq	r8, r0, lsl #30
     7fc:	01880000 	orreq	r0, r8, r0
     800:	00010000 	andeq	r0, r1, r0
     804:	00000050 	andeq	r0, r0, r0, asr r0
     808:	00000000 	andeq	r0, r0, r0
     80c:	02000100 	andeq	r0, r0, #0
     810:	00000100 	andeq	r0, r0, r0, lsl #2
     814:	00000101 	andeq	r0, r0, r1, lsl #2
     818:	0000a400 	andeq	sl, r0, r0, lsl #8
     81c:	0000b800 	andeq	fp, r0, r0, lsl #16
     820:	51000100 	mrspl	r0, (UNDEF: 16)
     824:	000000c4 	andeq	r0, r0, r4, asr #1
     828:	000000d4 	ldrdeq	r0, [r0], -r4
     82c:	20530001 	subscs	r0, r3, r1
     830:	2c000001 	stccs	0, cr0, [r0], {1}
     834:	01000001 	tsteq	r0, r1
     838:	015c5300 	cmpeq	ip, r0, lsl #6
     83c:	015c0000 	cmpeq	ip, r0
     840:	00010000 	andeq	r0, r1, r0
     844:	00015c51 	andeq	r5, r1, r1, asr ip
     848:	00017800 	andeq	r7, r1, r0, lsl #16
     84c:	03000600 	movweq	r0, #1536	; 0x600
     850:	0000ac90 	muleq	r0, r0, ip
     854:	0001789f 	muleq	r1, pc, r8	; <UNPREDICTABLE>
     858:	00018800 	andeq	r8, r1, r0, lsl #16
     85c:	51000100 	mrspl	r0, (UNDEF: 16)
	...
     868:	00a40000 	adceq	r0, r4, r0
     86c:	01880000 	orreq	r0, r8, r0
     870:	00010000 	andeq	r0, r1, r0
     874:	00000054 	andeq	r0, r0, r4, asr r0
     878:	00000000 	andeq	r0, r0, r0
     87c:	e0000200 	and	r0, r0, r0, lsl #4
     880:	10000000 	andne	r0, r0, r0
     884:	04000001 	streq	r0, [r0], #-1
     888:	80000a00 	andhi	r0, r0, r0, lsl #20
     88c:	0000009f 	muleq	r0, pc, r0	; <UNPREDICTABLE>
	...
     898:	0000f800 	andeq	pc, r0, r0, lsl #16
     89c:	00010000 	andeq	r0, r1, r0
     8a0:	50000100 	andpl	r0, r0, r0, lsl #2
     8a4:	00000100 	andeq	r0, r0, r0, lsl #2
     8a8:	0000010b 	andeq	r0, r0, fp, lsl #2
     8ac:	00530001 	subseq	r0, r3, r1
     8b0:	00000000 	andeq	r0, r0, r0
     8b4:	01000000 	mrseq	r0, (UNDEF: 0)
     8b8:	f8000000 			; <UNDEFINED> instruction: 0xf8000000
     8bc:	00000000 	andeq	r0, r0, r0
     8c0:	01000001 	tsteq	r0, r1
     8c4:	01005000 	mrseq	r5, (UNDEF: 0)
     8c8:	010b0000 	mrseq	r0, (UNDEF: 11)
     8cc:	00010000 	andeq	r0, r1, r0
     8d0:	00000053 	andeq	r0, r0, r3, asr r0
     8d4:	00000000 	andeq	r0, r0, r0
     8d8:	2c000200 	sfmcs	f0, 4, [r0], {-0}
     8dc:	38000006 	stmdacc	r0, {r1, r2}
     8e0:	01000006 	tsteq	r0, r6
     8e4:	00005500 	andeq	r5, r0, r0, lsl #10
     8e8:	00000000 	andeq	r0, r0, r0
     8ec:	00030000 	andeq	r0, r3, r0
     8f0:	00000000 	andeq	r0, r0, r0
     8f4:	05c00000 	strbeq	r0, [r0]
     8f8:	05f80000 	ldrbeq	r0, [r8, #0]!
     8fc:	00020000 	andeq	r0, r2, r0
     900:	05f89f30 	ldrbeq	r9, [r8, #3888]!	; 0xf30
     904:	06180000 	ldreq	r0, [r8], -r0
     908:	00010000 	andeq	r0, r1, r0
     90c:	00063856 	andeq	r3, r6, r6, asr r8
     910:	00068800 	andeq	r8, r6, r0, lsl #16
     914:	56000100 	strpl	r0, [r0], -r0, lsl #2
     918:	00000688 	andeq	r0, r0, r8, lsl #13
     91c:	000006b4 			; <UNDEFINED> instruction: 0x000006b4
     920:	9f300002 	svcls	0x00300002
	...
     92c:	00000003 	andeq	r0, r0, r3
     930:	00000000 	andeq	r0, r0, r0
     934:	000005c0 	andeq	r0, r0, r0, asr #11
     938:	000005f8 	strdeq	r0, [r0], -r8
     93c:	9f300002 	svcls	0x00300002
     940:	000005f8 	strdeq	r0, [r0], -r8
     944:	00000618 	andeq	r0, r0, r8, lsl r6
     948:	38570001 	ldmdacc	r7, {r0}^
     94c:	88000006 	stmdahi	r0, {r1, r2}
     950:	01000006 	tsteq	r0, r6
     954:	06885700 	streq	r5, [r8], r0, lsl #14
     958:	06b40000 	ldrteq	r0, [r4], r0
     95c:	00020000 	andeq	r0, r2, r0
     960:	00009f30 	andeq	r9, r0, r0, lsr pc
     964:	00000000 	andeq	r0, r0, r0
     968:	00030000 	andeq	r0, r3, r0
     96c:	00000000 	andeq	r0, r0, r0
     970:	00000001 	andeq	r0, r0, r1
     974:	000005c0 	andeq	r0, r0, r0, asr #11
     978:	000005f8 	strdeq	r0, [r0], -r8
     97c:	9f300002 	svcls	0x00300002
     980:	000005f8 	strdeq	r0, [r0], -r8
     984:	00000618 	andeq	r0, r0, r8, lsl r6
     988:	38550001 	ldmdacc	r5, {r0}^
     98c:	60000006 	andvs	r0, r0, r6
     990:	01000006 	tsteq	r0, r6
     994:	06805500 	streq	r5, [r0], r0, lsl #10
     998:	06880000 	streq	r0, [r8], r0
     99c:	00010000 	andeq	r0, r1, r0
     9a0:	00068855 	andeq	r8, r6, r5, asr r8
     9a4:	0006b400 	andeq	fp, r6, r0, lsl #8
     9a8:	30000200 	andcc	r0, r0, r0, lsl #4
     9ac:	0000009f 	muleq	r0, pc, r0	; <UNPREDICTABLE>
	...
     9bc:	07070000 	streq	r0, [r7, -r0]
     9c0:	0005d800 	andeq	sp, r5, r0, lsl #16
     9c4:	0005f800 	andeq	pc, r5, r0, lsl #16
     9c8:	50000100 	andpl	r0, r0, r0, lsl #2
     9cc:	000005f8 	strdeq	r0, [r0], -r8
     9d0:	00000610 	andeq	r0, r0, r0, lsl r6
     9d4:	10540001 	subsne	r0, r4, r1
     9d8:	18000006 	stmdane	r0, {r1, r2}
     9dc:	01000006 	tsteq	r0, r6
     9e0:	06385000 	ldrteq	r5, [r8], -r0
     9e4:	067c0000 	ldrbteq	r0, [ip], -r0
     9e8:	00010000 	andeq	r0, r1, r0
     9ec:	00067c54 	andeq	r7, r6, r4, asr ip
     9f0:	00068000 	andeq	r8, r6, r0
     9f4:	7b000400 	blvc	19fc <__code_start__-0x6604>
     9f8:	809f7ecc 	addshi	r7, pc, ip, asr #29
     9fc:	b4000006 	strlt	r0, [r0], #-6
     a00:	01000006 	tsteq	r0, r6
     a04:	00005000 	andeq	r5, r0, r0
     a08:	00000000 	andeq	r0, r0, r0
     a0c:	04020000 	streq	r0, [r2], #-0
     a10:	00000680 	andeq	r0, r0, r0, lsl #13
     a14:	00000680 	andeq	r0, r0, r0, lsl #13
     a18:	1e0a0004 	cdpne	0, 0, cr0, cr10, cr4, {0}
     a1c:	00009f01 	andeq	r9, r0, r1, lsl #30
     a20:	00000000 	andeq	r0, r0, r0
     a24:	04020000 	streq	r0, [r2], #-0
     a28:	00000680 	andeq	r0, r0, r0, lsl #13
     a2c:	00000680 	andeq	r0, r0, r0, lsl #13
     a30:	c7f20006 	ldrbgt	r0, [r2, r6]!
     a34:	0000001f 	andeq	r0, r0, pc, lsl r0
	...
     a40:	06800402 	streq	r0, [r0], r2, lsl #8
     a44:	06800000 	streq	r0, [r0], r0
     a48:	00060000 	andeq	r0, r6, r0
     a4c:	00a54803 	adceq	r4, r5, r3, lsl #16
     a50:	00009f00 	andeq	r9, r0, r0, lsl #30
	...
     a60:	00000570 	andeq	r0, r0, r0, ror r5
     a64:	00000580 	andeq	r0, r0, r0, lsl #11
     a68:	80500001 	subshi	r0, r0, r1
     a6c:	83000005 	movwhi	r0, #5
     a70:	01000005 	tsteq	r0, r5
     a74:	05835100 	streq	r5, [r3, #256]	; 0x100
     a78:	05b40000 	ldreq	r0, [r4, #0]!
     a7c:	00010000 	andeq	r0, r1, r0
     a80:	00000054 	andeq	r0, r0, r4, asr r0
     a84:	00000000 	andeq	r0, r0, r0
     a88:	68000200 	stmdavs	r0, {r9}
     a8c:	70000005 	andvc	r0, r0, r5
     a90:	02000005 	andeq	r0, r0, #5, 0
     a94:	009f3100 	addseq	r3, pc, r0, lsl #2
     a98:	00000000 	andeq	r0, r0, r0
     a9c:	02000000 	andeq	r0, r0, #0, 0
     aa0:	00052000 	andeq	r2, r5, r0
     aa4:	00052800 	andeq	r2, r5, r0, lsl #16
     aa8:	31000200 	mrscc	r0, R8_usr
     aac:	0000009f 	muleq	r0, pc, r0	; <UNPREDICTABLE>
	...
     ab8:	00020000 	andeq	r0, r2, r0
     abc:	00020c00 	andeq	r0, r2, r0, lsl #24
     ac0:	50000100 	andpl	r0, r0, r0, lsl #2
     ac4:	0000020c 	andeq	r0, r0, ip, lsl #4
     ac8:	00000320 	andeq	r0, r0, r0, lsr #6
     acc:	00580001 	subseq	r0, r8, r1
     ad0:	00000000 	andeq	r0, r0, r0
     ad4:	02000000 	andeq	r0, r0, #0, 0
     ad8:	00000000 	andeq	r0, r0, r0
     adc:	00020000 	andeq	r0, r2, r0
     ae0:	40000002 	andmi	r0, r0, r2
     ae4:	02000002 	andeq	r0, r0, #2, 0
     ae8:	409f3000 	addsmi	r3, pc, r0
     aec:	b0000002 	andlt	r0, r0, r2
     af0:	01000002 	tsteq	r0, r2
     af4:	02c85500 	sbceq	r5, r8, #0, 10
     af8:	02e00000 	rsceq	r0, r0, #0, 0
     afc:	00010000 	andeq	r0, r1, r0
     b00:	0002e055 	andeq	lr, r2, r5, asr r0
     b04:	0002ec00 	andeq	lr, r2, r0, lsl #24
     b08:	30000200 	andcc	r0, r0, r0, lsl #4
     b0c:	0000009f 	muleq	r0, pc, r0	; <UNPREDICTABLE>
     b10:	00000000 	andeq	r0, r0, r0
     b14:	00000200 	andeq	r0, r0, r0, lsl #4
     b18:	00000000 	andeq	r0, r0, r0
     b1c:	00020002 	andeq	r0, r2, r2
     b20:	00024000 	andeq	r4, r2, r0
     b24:	30000200 	andcc	r0, r0, r0, lsl #4
     b28:	0002409f 	muleq	r2, pc, r0	; <UNPREDICTABLE>
     b2c:	0002b000 	andeq	fp, r2, r0
     b30:	56000100 	strpl	r0, [r0], -r0, lsl #2
     b34:	000002c8 	andeq	r0, r0, r8, asr #5
     b38:	000002e0 	andeq	r0, r0, r0, ror #5
     b3c:	e0560001 	subs	r0, r6, r1
     b40:	ec000002 	stc	0, cr0, [r0], {2}
     b44:	02000002 	andeq	r0, r0, #2, 0
     b48:	009f3000 	addseq	r3, pc, r0
     b4c:	00000000 	andeq	r0, r0, r0
     b50:	02000000 	andeq	r0, r0, #0, 0
     b54:	00000000 	andeq	r0, r0, r0
     b58:	00020000 	andeq	r0, r2, r0
     b5c:	40000002 	andmi	r0, r0, r2
     b60:	02000002 	andeq	r0, r0, #2, 0
     b64:	409f3000 	addsmi	r3, pc, r0
     b68:	b0000002 	andlt	r0, r0, r2
     b6c:	01000002 	tsteq	r0, r2
     b70:	02c85700 	sbceq	r5, r8, #0, 14
     b74:	02e00000 	rsceq	r0, r0, #0, 0
     b78:	00010000 	andeq	r0, r1, r0
     b7c:	0002e057 	andeq	lr, r2, r7, asr r0
     b80:	0002ec00 	andeq	lr, r2, r0, lsl #24
     b84:	30000200 	andcc	r0, r0, r0, lsl #4
     b88:	0000009f 	muleq	r0, pc, r0	; <UNPREDICTABLE>
	...
     b98:	02000000 	andeq	r0, r0, #0, 0
	...
     ba4:	20000000 	andcs	r0, r0, r0
     ba8:	48000002 	stmdami	r0, {r1}
     bac:	01000002 	tsteq	r0, r2
     bb0:	02485000 	subeq	r5, r8, #0, 0
     bb4:	02500000 	subseq	r0, r0, #0, 0
     bb8:	00010000 	andeq	r0, r1, r0
     bbc:	00025054 	andeq	r5, r2, r4, asr r0
     bc0:	00027400 	andeq	r7, r2, r0, lsl #8
     bc4:	50000100 	andpl	r0, r0, r0, lsl #2
     bc8:	00000274 	andeq	r0, r0, r4, ror r2
     bcc:	00000277 	andeq	r0, r0, r7, ror r2
     bd0:	77520001 	ldrbvc	r0, [r2, -r1]
     bd4:	84000002 	strhi	r0, [r0], #-2
     bd8:	01000002 	tsteq	r0, r2
     bdc:	02885400 	addeq	r5, r8, #0, 8
     be0:	02940000 	addseq	r0, r4, #0, 0
     be4:	00010000 	andeq	r0, r1, r0
     be8:	00029450 	andeq	r9, r2, r0, asr r4
     bec:	0002c800 	andeq	ip, r2, r0, lsl #16
     bf0:	54000100 	strpl	r0, [r0], #-256	; 0xffffff00
     bf4:	000002c8 	andeq	r0, r0, r8, asr #5
     bf8:	000002d4 	ldrdeq	r0, [r0], -r4
     bfc:	d4500001 	ldrble	r0, [r0], #-1
     c00:	e0000002 	and	r0, r0, r2
     c04:	01000002 	tsteq	r0, r2
     c08:	02e05400 	rsceq	r5, r0, #0, 8
     c0c:	02e80000 	rsceq	r0, r8, #0, 0
     c10:	00010000 	andeq	r0, r1, r0
     c14:	0002e850 	andeq	lr, r2, r0, asr r8
     c18:	00032000 	andeq	r2, r3, r0
     c1c:	54000100 	strpl	r0, [r0], #-256	; 0xffffff00
	...
     c28:	00000002 	andeq	r0, r0, r2
     c2c:	03f40000 	mvnseq	r0, #0, 0
     c30:	04140000 	ldreq	r0, [r4], #-0
     c34:	00020000 	andeq	r0, r2, r0
     c38:	04149f30 	ldreq	r9, [r4], #-3888	; 0xfffff0d0
     c3c:	05000000 	streq	r0, [r0, #-0]
     c40:	00010000 	andeq	r0, r1, r0
     c44:	00050055 	andeq	r0, r5, r5, asr r0
     c48:	00051800 	andeq	r1, r5, r0, lsl #16
     c4c:	30000200 	andcc	r0, r0, r0, lsl #4
     c50:	0000009f 	muleq	r0, pc, r0	; <UNPREDICTABLE>
	...
     c5c:	00000200 	andeq	r0, r0, r0, lsl #4
     c60:	00000000 	andeq	r0, r0, r0
     c64:	0003fc00 	andeq	pc, r3, r0, lsl #24
     c68:	00041400 	andeq	r1, r4, r0, lsl #8
     c6c:	50000100 	andpl	r0, r0, r0, lsl #2
     c70:	00000414 	andeq	r0, r0, r4, lsl r4
     c74:	00000498 	muleq	r0, r8, r4
     c78:	9c540001 	mrrcls	0, 0, r0, r4, cr1
     c7c:	a4000004 	strge	r0, [r0], #-4
     c80:	01000004 	tsteq	r0, r4
     c84:	04a45000 	strteq	r5, [r4], #0
     c88:	05000000 	streq	r0, [r0, #-0]
     c8c:	00010000 	andeq	r0, r1, r0
     c90:	00050054 	andeq	r0, r5, r4, asr r0
     c94:	00050800 	andeq	r0, r5, r0, lsl #16
     c98:	50000100 	andpl	r0, r0, r0, lsl #2
     c9c:	00000508 	andeq	r0, r0, r8, lsl #10
     ca0:	00000518 	andeq	r0, r0, r8, lsl r5
     ca4:	00540001 	subseq	r0, r4, r1
     ca8:	00000000 	andeq	r0, r0, r0
     cac:	02000000 	andeq	r0, r0, #0, 0
     cb0:	14000001 	strne	r0, [r0], #-1
     cb4:	34000004 	strcc	r0, [r0], #-4
     cb8:	02000004 	andeq	r0, r0, #4, 0
     cbc:	749f3000 	ldrvc	r3, [pc], #0	; cc4 <__code_start__-0x733c>
     cc0:	00000004 	andeq	r0, r0, r4
     cc4:	01000005 	tsteq	r0, r5
     cc8:	00005900 	andeq	r5, r0, r0, lsl #18
	...
     cd4:	04ac0100 	strteq	r0, [ip], #256	; 0x100
     cd8:	04bc0000 	ldrteq	r0, [ip], #0
     cdc:	00010000 	andeq	r0, r1, r0
     ce0:	0004bc53 	andeq	fp, r4, r3, asr ip
     ce4:	0004d800 	andeq	sp, r4, r0, lsl #16
     ce8:	74000200 	strvc	r0, [r0], #-512	; 0xfffffe00
     cec:	00000004 	andeq	r0, r0, r4
     cf0:	00000000 	andeq	r0, r0, r0
     cf4:	ac010000 	stcge	0, cr0, [r1], {-0}
     cf8:	d8000004 	stmdale	r0, {r2}
     cfc:	04000004 	streq	r0, [r0], #-4
     d00:	01b47400 			; <UNDEFINED> instruction: 0x01b47400
     d04:	0000009f 	muleq	r0, pc, r0	; <UNPREDICTABLE>
     d08:	00000000 	andeq	r0, r0, r0
     d0c:	02000200 	andeq	r0, r0, #0, 4
     d10:	0004ac00 	andeq	sl, r4, r0, lsl #24
     d14:	0004c400 	andeq	ip, r4, r0, lsl #8
     d18:	30000200 	andcc	r0, r0, r0, lsl #4
     d1c:	0004c49f 	muleq	r4, pc, r4	; <UNPREDICTABLE>
     d20:	0004d000 	andeq	sp, r4, r0
     d24:	70000300 	andvc	r0, r0, r0, lsl #6
     d28:	00009f01 	andeq	r9, r0, r1, lsl #30
     d2c:	00000000 	andeq	r0, r0, r0
     d30:	00040000 	andeq	r0, r4, r0
     d34:	000004ac 	andeq	r0, r0, ip, lsr #9
     d38:	000004c4 	andeq	r0, r0, r4, asr #9
     d3c:	9f300002 	svcls	0x00300002
	...
     d48:	04140103 	ldreq	r0, [r4], #-259	; 0xfffffefd
     d4c:	04340000 	ldrteq	r0, [r4], #-0
     d50:	00030000 	andeq	r0, r3, r0
     d54:	009f8008 	addseq	r8, pc, r8
     d58:	00000000 	andeq	r0, r0, r0
     d5c:	03000000 	movweq	r0, #0
     d60:	00041401 	andeq	r1, r4, r1, lsl #8
     d64:	00043400 	andeq	r3, r4, r0, lsl #8
     d68:	74000300 	strvc	r0, [r0], #-768	; 0xfffffd00
     d6c:	00009f32 	andeq	r9, r0, r2, lsr pc
     d70:	00000000 	andeq	r0, r0, r0
     d74:	00050000 	andeq	r0, r5, r0
     d78:	04140002 	ldreq	r0, [r4], #-2
     d7c:	04200000 	strteq	r0, [r0], #-0
     d80:	00020000 	andeq	r0, r2, r0
     d84:	04209f30 	strteq	r9, [r0], #-3888	; 0xfffff0d0
     d88:	042c0000 	strteq	r0, [ip], #-0
     d8c:	00030000 	andeq	r0, r3, r0
     d90:	009f017c 	addseq	r0, pc, ip, ror r1	; <UNPREDICTABLE>
     d94:	00000000 	andeq	r0, r0, r0
     d98:	07000000 	streq	r0, [r0, -r0]
     d9c:	00041400 	andeq	r1, r4, r0, lsl #8
     da0:	00042000 	andeq	r2, r4, r0
     da4:	30000200 	andcc	r0, r0, r0, lsl #4
     da8:	0000009f 	muleq	r0, pc, r0	; <UNPREDICTABLE>
     dac:	00000000 	andeq	r0, r0, r0
     db0:	3c010000 	stccc	0, cr0, [r1], {-0}
     db4:	64000004 	strvs	r0, [r0], #-4
     db8:	03000004 	movweq	r0, #4
     dbc:	9f800800 	svcls	0x00800800
	...
     dc8:	01000000 	mrseq	r0, (UNDEF: 0)
     dcc:	0000043c 	andeq	r0, r0, ip, lsr r4
     dd0:	00000448 	andeq	r0, r0, r8, asr #8
     dd4:	00740009 	rsbseq	r0, r4, r9
     dd8:	23220073 			; <UNDEFINED> instruction: 0x23220073
     ddc:	489f01b4 	ldmmi	pc, {r2, r4, r5, r7, r8}	; <UNPREDICTABLE>
     de0:	64000004 	strvs	r0, [r0], #-4
     de4:	0a000004 	beq	dfc <__code_start__-0x7204>
     de8:	74007400 	strvc	r7, [r0], #-1024	; 0xfffffc00
     dec:	23220604 			; <UNDEFINED> instruction: 0x23220604
     df0:	009f01b4 			; <UNDEFINED> instruction: 0x009f01b4
     df4:	00000000 	andeq	r0, r0, r0
     df8:	01000000 	mrseq	r0, (UNDEF: 0)
     dfc:	3c010000 	stccc	0, cr0, [r1], {-0}
     e00:	50000004 	andpl	r0, r0, r4
     e04:	02000004 	andeq	r0, r0, #4, 0
     e08:	509f3000 	addspl	r3, pc, r0
     e0c:	64000004 	strvs	r0, [r0], #-4
     e10:	01000004 	tsteq	r0, r4
     e14:	00005e00 	andeq	r5, r0, r0, lsl #28
     e18:	00000000 	andeq	r0, r0, r0
     e1c:	00010000 	andeq	r0, r1, r0
     e20:	0000043c 	andeq	r0, r0, ip, lsr r4
     e24:	00000450 	andeq	r0, r0, r0, asr r4
     e28:	9f300002 	svcls	0x00300002
	...
     e38:	00000168 	andeq	r0, r0, r8, ror #2
     e3c:	00000183 	andeq	r0, r0, r3, lsl #3
     e40:	84500001 	ldrbhi	r0, [r0], #-1
     e44:	90000001 	andls	r0, r0, r1
     e48:	01000001 	tsteq	r0, r1
     e4c:	00005000 	andeq	r5, r0, r0
	...
     e64:	03200000 	nopeq	{0}	; <UNPREDICTABLE>
     e68:	034c0000 	movteq	r0, #49152	; 0xc000
     e6c:	00010000 	andeq	r0, r1, r0
     e70:	00034c50 	andeq	r4, r3, r0, asr ip
     e74:	00036800 	andeq	r6, r3, r0, lsl #16
     e78:	54000100 	strpl	r0, [r0], #-256	; 0xffffff00
     e7c:	00000368 	andeq	r0, r0, r8, ror #6
     e80:	0000036b 	andeq	r0, r0, fp, ror #6
     e84:	6b500001 	blvs	1400e90 <__bss_end__+0x13f5de8>
     e88:	6c000003 	stcvs	0, cr0, [r0], {3}
     e8c:	04000003 	streq	r0, [r0], #-3
     e90:	5001f300 	andpl	pc, r1, r0, lsl #6
     e94:	00036c9f 	muleq	r3, pc, ip	; <UNPREDICTABLE>
     e98:	00038000 	andeq	r8, r3, r0
     e9c:	50000100 	andpl	r0, r0, r0, lsl #2
     ea0:	00000380 	andeq	r0, r0, r0, lsl #7
     ea4:	0000038c 	andeq	r0, r0, ip, lsl #7
     ea8:	8c540001 	mrrchi	0, 0, r0, r4, cr1
     eac:	9c000003 	stcls	0, cr0, [r0], {3}
     eb0:	01000003 	tsteq	r0, r3
     eb4:	039c5000 	orrseq	r5, ip, #0, 0
     eb8:	03bc0000 			; <UNDEFINED> instruction: 0x03bc0000
     ebc:	00010000 	andeq	r0, r1, r0
     ec0:	00000054 	andeq	r0, r0, r4, asr r0
     ec4:	00000000 	andeq	r0, r0, r0
     ec8:	40000200 	andmi	r0, r0, r0, lsl #4
     ecc:	6c000003 	stcvs	0, cr0, [r0], {3}
     ed0:	04000003 	streq	r0, [r0], #-3
     ed4:	24404000 	strbcs	r4, [r0], #-0
     ed8:	0000009f 	muleq	r0, pc, r0	; <UNPREDICTABLE>
	...
     eec:	00004c00 	andeq	r4, r0, r0, lsl #24
     ef0:	50000100 	andpl	r0, r0, r0, lsl #2
     ef4:	0000004c 	andeq	r0, r0, ip, asr #32
     ef8:	00000114 	andeq	r0, r0, r4, lsl r1
     efc:	01f30004 	mvnseq	r0, r4
     f00:	01149f50 	tsteq	r4, r0, asr pc
     f04:	01280000 			; <UNDEFINED> instruction: 0x01280000
     f08:	00010000 	andeq	r0, r1, r0
     f0c:	00012850 	andeq	r2, r1, r0, asr r8
     f10:	00015c00 	andeq	r5, r1, r0, lsl #24
     f14:	f3000400 	vshl.u8	d0, d0, d0
     f18:	009f5001 	addseq	r5, pc, r1
	...
     f2c:	38000000 	stmdacc	r0, {}	; <UNPREDICTABLE>
     f30:	01000000 	mrseq	r0, (UNDEF: 0)
     f34:	00385100 	eorseq	r5, r8, r0, lsl #2
     f38:	01140000 	tsteq	r4, r0
     f3c:	00040000 	andeq	r0, r4, r0
     f40:	9f5101f3 	svcls	0x005101f3
     f44:	00000114 	andeq	r0, r0, r4, lsl r1
     f48:	00000120 	andeq	r0, r0, r0, lsr #2
     f4c:	20510001 	subscs	r0, r1, r1
     f50:	5c000001 	stcpl	0, cr0, [r0], {1}
     f54:	04000001 	streq	r0, [r0], #-1
     f58:	5101f300 	mrspl	pc, SP_irq	; <UNPREDICTABLE>
     f5c:	0000009f 	muleq	r0, pc, r0	; <UNPREDICTABLE>
	...
     f68:	00000202 	andeq	r0, r0, r2, lsl #4
     f6c:	00000202 	andeq	r0, r0, r2, lsl #4
     f70:	58000202 	stmdapl	r0, {r1, r9}
     f74:	60000000 	andvs	r0, r0, r0
     f78:	01000000 	mrseq	r0, (UNDEF: 0)
     f7c:	00605400 	rsbeq	r5, r0, r0, lsl #8
     f80:	00d00000 	sbcseq	r0, r0, r0
     f84:	00010000 	andeq	r0, r1, r0
     f88:	0000d058 	andeq	sp, r0, r8, asr r0
     f8c:	0000e000 	andeq	lr, r0, r0
     f90:	54000100 	strpl	r0, [r0], #-256	; 0xffffff00
     f94:	000000e0 	andeq	r0, r0, r0, ror #1
     f98:	000000e8 	andeq	r0, r0, r8, ror #1
     f9c:	e8580001 	ldmda	r8, {r0}^
     fa0:	f4000000 	vst4.8	{d0-d3}, [r0], r0
     fa4:	01000000 	mrseq	r0, (UNDEF: 0)
     fa8:	00f45400 	rscseq	r5, r4, r0, lsl #8
     fac:	01080000 	mrseq	r0, (UNDEF: 8)
     fb0:	00010000 	andeq	r0, r1, r0
     fb4:	00010858 	andeq	r0, r1, r8, asr r8
     fb8:	00011400 	andeq	r1, r1, r0, lsl #8
     fbc:	54000100 	strpl	r0, [r0], #-256	; 0xffffff00
	...
     fd0:	00000074 	andeq	r0, r0, r4, ror r0
     fd4:	00000083 	andeq	r0, r0, r3, lsl #1
     fd8:	83500001 	cmphi	r0, #1, 0
     fdc:	d0000000 	andle	r0, r0, r0
     fe0:	01000000 	mrseq	r0, (UNDEF: 0)
     fe4:	00e05600 	rsceq	r5, r0, r0, lsl #12
     fe8:	00e80000 	rsceq	r0, r8, r0
     fec:	00010000 	andeq	r0, r1, r0
     ff0:	0000f456 	andeq	pc, r0, r6, asr r4	; <UNPREDICTABLE>
     ff4:	00010800 	andeq	r0, r1, r0, lsl #16
     ff8:	56000100 	strpl	r0, [r0], -r0, lsl #2
	...
    1008:	00000088 	andeq	r0, r0, r8, lsl #1
    100c:	000000d0 	ldrdeq	r0, [r0], -r0	; <UNPREDICTABLE>
    1010:	e05b0001 	subs	r0, fp, r1
    1014:	14000000 	strne	r0, [r0], #-0
    1018:	01000001 	tsteq	r0, r1
    101c:	00005b00 	andeq	r5, r0, r0, lsl #22
    1020:	00000000 	andeq	r0, r0, r0
    1024:	00010000 	andeq	r0, r1, r0
    1028:	00880000 	addeq	r0, r8, r0
    102c:	00d00000 	sbcseq	r0, r0, r0
    1030:	00010000 	andeq	r0, r1, r0
    1034:	0000e059 	andeq	lr, r0, r9, asr r0
    1038:	00011400 	andeq	r1, r1, r0, lsl #8
    103c:	59000100 	stmdbpl	r0, {r8}
	...
    1048:	00600000 	rsbeq	r0, r0, r0
    104c:	00730000 	rsbseq	r0, r3, r0
    1050:	00010000 	andeq	r0, r1, r0
    1054:	00000050 	andeq	r0, r0, r0, asr r0
    1058:	00000000 	andeq	r0, r0, r0
    105c:	60000300 	andvs	r0, r0, r0, lsl #6
    1060:	73000000 	movwvc	r0, #0
    1064:	01000000 	mrseq	r0, (UNDEF: 0)
    1068:	00005000 	andeq	r5, r0, r0
    106c:	00000000 	andeq	r0, r0, r0
    1070:	00040000 	andeq	r0, r4, r0
    1074:	00000060 	andeq	r0, r0, r0, rrx
    1078:	00000070 	andeq	r0, r0, r0, ror r0
    107c:	00500001 	subseq	r0, r0, r1
	...
    108c:	bc000000 	stclt	0, cr0, [r0], {-0}
    1090:	e8000003 	stmda	r0, {r0, r1}
    1094:	01000003 	tsteq	r0, r3
    1098:	03e85000 	mvneq	r5, #0, 0
    109c:	03ec0000 	mvneq	r0, #0, 0
    10a0:	00040000 	andeq	r0, r4, r0
    10a4:	9f5001f3 	svcls	0x005001f3
    10a8:	000003ec 	andeq	r0, r0, ip, ror #7
    10ac:	000003f0 	strdeq	r0, [r0], -r0	; <UNPREDICTABLE>
    10b0:	f0500001 			; <UNDEFINED> instruction: 0xf0500001
    10b4:	f4000003 	vst4.8	{d0-d3}, [r0], r3
    10b8:	04000003 	streq	r0, [r0], #-3
    10bc:	5001f300 	andpl	pc, r1, r0, lsl #6
    10c0:	0000009f 	muleq	r0, pc, r0	; <UNPREDICTABLE>
	...
    10cc:	bc000000 	stclt	0, cr0, [r0], {-0}
    10d0:	d0000003 	andle	r0, r0, r3
    10d4:	01000003 	tsteq	r0, r3
    10d8:	03d05100 	bicseq	r5, r0, #0
    10dc:	03ec0000 	mvneq	r0, #0, 0
    10e0:	00040000 	andeq	r0, r4, r0
    10e4:	9f5101f3 	svcls	0x005101f3
    10e8:	000003ec 	andeq	r0, r0, ip, ror #7
    10ec:	000003f4 	strdeq	r0, [r0], -r4
    10f0:	00510001 	subseq	r0, r1, r1
    10f4:	00000000 	andeq	r0, r0, r0
    10f8:	02000000 	andeq	r0, r0, #0, 0
    10fc:	00000000 	andeq	r0, r0, r0
    1100:	0003bc00 	andeq	fp, r3, r0, lsl #24
    1104:	0003d000 	andeq	sp, r3, r0
    1108:	30000200 	andcc	r0, r0, r0, lsl #4
    110c:	0003d09f 	muleq	r3, pc, r0	; <UNPREDICTABLE>
    1110:	0003ec00 	andeq	lr, r3, r0, lsl #24
    1114:	5c000100 	stfpls	f0, [r0], {-0}
    1118:	000003ec 	andeq	r0, r0, ip, ror #7
    111c:	000003f4 	strdeq	r0, [r0], -r4
    1120:	9f300002 	svcls	0x00300002
	...
    112c:	00000004 	andeq	r0, r0, r4
    1130:	00010100 	andeq	r0, r1, r0, lsl #2
    1134:	00000000 	andeq	r0, r0, r0
    1138:	000003bc 			; <UNDEFINED> instruction: 0x000003bc
    113c:	000003d0 	ldrdeq	r0, [r0], -r0	; <UNPREDICTABLE>
    1140:	9f300002 	svcls	0x00300002
    1144:	000003d0 	ldrdeq	r0, [r0], -r0	; <UNPREDICTABLE>
    1148:	000003d4 	ldrdeq	r0, [r0], -r4
    114c:	00730008 	rsbseq	r0, r3, r8
    1150:	231c0070 	tstcs	ip, #112, 0	; 0x70
    1154:	03d49f01 	bicseq	r9, r4, #1, 30
    1158:	03dc0000 	bicseq	r0, ip, #0, 0
    115c:	00060000 	andeq	r0, r6, r0
    1160:	00700073 	rsbseq	r0, r0, r3, ror r0
    1164:	03dc9f1c 	bicseq	r9, ip, #28, 30	; 0x70
    1168:	03e80000 	mvneq	r0, #0, 0
    116c:	00080000 	andeq	r0, r8, r0
    1170:	00700073 	rsbseq	r0, r0, r3, ror r0
    1174:	9f01231c 	svcls	0x0001231c
    1178:	000003e8 	andeq	r0, r0, r8, ror #7
    117c:	000003ec 	andeq	r0, r0, ip, ror #7
    1180:	00730009 	rsbseq	r0, r3, r9
    1184:	1c5001f3 	ldfnee	f0, [r0], {243}	; 0xf3
    1188:	ec9f0123 	ldfs	f0, [pc], {35}	; 0x23
    118c:	f4000003 	vst4.8	{d0-d3}, [r0], r3
    1190:	02000003 	andeq	r0, r0, #3, 0
    1194:	009f3000 	addseq	r3, pc, r0
	...
    11a0:	18000000 	stmdane	r0, {}	; <UNPREDICTABLE>
    11a4:	1b000005 	blne	11c0 <__code_start__-0x6e40>
    11a8:	01000005 	tsteq	r0, r5
    11ac:	051b5000 	ldreq	r5, [fp, #-0]
    11b0:	051c0000 	ldreq	r0, [ip, #-0]
    11b4:	00040000 	andeq	r0, r4, r0
    11b8:	9f5001f3 	svcls	0x005001f3
	...
    11cc:	0000001c 	andeq	r0, r0, ip, lsl r0
    11d0:	1c510001 	mrrcne	0, 0, r0, r1, cr1
    11d4:	78000000 	stmdavc	r0, {}	; <UNPREDICTABLE>
    11d8:	04000000 	streq	r0, [r0], #-0
    11dc:	5101f300 	mrspl	pc, SP_irq	; <UNPREDICTABLE>
    11e0:	0000009f 	muleq	r0, pc, r0	; <UNPREDICTABLE>
	...
    11f0:	00005800 	andeq	r5, r0, r0, lsl #16
    11f4:	52000100 	andpl	r0, r0, #0
    11f8:	00000058 	andeq	r0, r0, r8, asr r0
    11fc:	00000078 	andeq	r0, r0, r8, ror r0
    1200:	01f30004 	mvnseq	r0, r4
    1204:	00009f52 	andeq	r9, r0, r2, asr pc
    1208:	00000000 	andeq	r0, r0, r0
    120c:	00020000 	andeq	r0, r2, r0
    1210:	00010100 	andeq	r0, r1, r0, lsl #2
    1214:	00010100 	andeq	r0, r1, r0, lsl #2
    1218:	00010100 	andeq	r0, r1, r0, lsl #2
    121c:	00000000 	andeq	r0, r0, r0
    1220:	00000038 	andeq	r0, r0, r8, lsr r0
    1224:	54500001 	ldrbpl	r0, [r0], #-1
    1228:	54000000 	strpl	r0, [r0], #-0
    122c:	01000000 	mrseq	r0, (UNDEF: 0)
    1230:	00545300 	subseq	r5, r4, r0, lsl #6
    1234:	005c0000 	subseq	r0, ip, r0
    1238:	00030000 	andeq	r0, r3, r0
    123c:	5c9f0173 	ldfpls	f0, [pc], {115}	; 0x73
    1240:	64000000 	strvs	r0, [r0], #-0
    1244:	01000000 	mrseq	r0, (UNDEF: 0)
    1248:	00645200 	rsbeq	r5, r4, r0, lsl #4
    124c:	00680000 	rsbeq	r0, r8, r0
    1250:	00030000 	andeq	r0, r3, r0
    1254:	689f0273 	ldmvs	pc, {r0, r1, r4, r5, r6, r9}	; <UNPREDICTABLE>
    1258:	74000000 	strvc	r0, [r0], #-0
    125c:	01000000 	mrseq	r0, (UNDEF: 0)
    1260:	00745200 	rsbseq	r5, r4, r0, lsl #4
    1264:	00780000 	rsbseq	r0, r8, r0
    1268:	00030000 	andeq	r0, r3, r0
    126c:	009f0172 	addseq	r0, pc, r2, ror r1	; <UNPREDICTABLE>
	...
    1278:	00000800 	andeq	r0, r0, r0, lsl #16
    127c:	00007800 	andeq	r7, r0, r0, lsl #16
    1280:	54000100 	strpl	r0, [r0], #-256	; 0xffffff00
	...
    1290:	002c0000 	eoreq	r0, ip, r0
    1294:	00340000 	eorseq	r0, r4, r0
    1298:	00010000 	andeq	r0, r1, r0
    129c:	00003450 	andeq	r3, r0, r0, asr r4
    12a0:	00004800 	andeq	r4, r0, r0, lsl #16
    12a4:	54000100 	strpl	r0, [r0], #-256	; 0xffffff00
    12a8:	00000048 	andeq	r0, r0, r8, asr #32
    12ac:	00000058 	andeq	r0, r0, r8, asr r0
    12b0:	00500001 	subseq	r0, r0, r1
	...
    12bc:	01010000 	mrseq	r0, (UNDEF: 1)
    12c0:	00000000 	andeq	r0, r0, r0
    12c4:	0c000000 	stceq	0, cr0, [r0], {-0}
    12c8:	01000000 	mrseq	r0, (UNDEF: 0)
    12cc:	000c5000 	andeq	r5, ip, r0
    12d0:	00200000 	eoreq	r0, r0, r0
    12d4:	00010000 	andeq	r0, r1, r0
    12d8:	00002054 	andeq	r2, r0, r4, asr r0
    12dc:	00002400 	andeq	r2, r0, r0, lsl #8
    12e0:	74000300 	strvc	r0, [r0], #-768	; 0xfffffd00
    12e4:	00249f01 	eoreq	r9, r4, r1, lsl #30
    12e8:	00380000 	eorseq	r0, r8, r0
    12ec:	00010000 	andeq	r0, r1, r0
    12f0:	00000054 	andeq	r0, r0, r4, asr r0
	...
    1300:	88000000 	stmdahi	r0, {}	; <UNPREDICTABLE>
    1304:	94000003 	strls	r0, [r0], #-3
    1308:	01000003 	tsteq	r0, r3
    130c:	03945000 	orrseq	r5, r4, #0, 0
    1310:	03d00000 	bicseq	r0, r0, #0, 0
    1314:	00010000 	andeq	r0, r1, r0
    1318:	0003d05b 	andeq	sp, r3, fp, asr r0
    131c:	00092000 	andeq	r2, r9, r0
    1320:	f3000400 	vshl.u8	d0, d0, d0
    1324:	209f5001 	addscs	r5, pc, r1
    1328:	28000009 	stmdacs	r0, {r0, r3}
    132c:	01000009 	tsteq	r0, r9
    1330:	09285b00 	stmdbeq	r8!, {r8, r9, fp, ip, lr}
    1334:	09b40000 	ldmibeq	r4!, {}	; <UNPREDICTABLE>
    1338:	00040000 	andeq	r0, r4, r0
    133c:	9f5001f3 	svcls	0x005001f3
	...
    1350:	00000388 	andeq	r0, r0, r8, lsl #7
    1354:	000003d0 	ldrdeq	r0, [r0], -r0	; <UNPREDICTABLE>
    1358:	d0510001 	subsle	r0, r1, r1
    135c:	20000003 	andcs	r0, r0, r3
    1360:	04000009 	streq	r0, [r0], #-9
    1364:	5101f300 	mrspl	pc, SP_irq	; <UNPREDICTABLE>
    1368:	0009209f 	muleq	r9, pc, r0	; <UNPREDICTABLE>
    136c:	00092800 	andeq	r2, r9, r0, lsl #16
    1370:	51000100 	mrspl	r0, (UNDEF: 16)
    1374:	00000928 	andeq	r0, r0, r8, lsr #18
    1378:	000009b4 			; <UNDEFINED> instruction: 0x000009b4
    137c:	01f30004 	mvnseq	r0, r4
    1380:	00009f51 	andeq	r9, r0, r1, asr pc
	...
    1390:	00000100 	andeq	r0, r0, r0, lsl #2
    1394:	00000001 	andeq	r0, r0, r1
	...
    13a0:	03880000 	orreq	r0, r8, #0, 0
    13a4:	03d00000 	bicseq	r0, r0, #0, 0
    13a8:	00010000 	andeq	r0, r1, r0
    13ac:	0003d052 	andeq	sp, r3, r2, asr r0
    13b0:	00040000 	andeq	r0, r4, r0
    13b4:	56000100 	strpl	r0, [r0], -r0, lsl #2
    13b8:	00000414 	andeq	r0, r0, r4, lsl r4
    13bc:	00000424 	andeq	r0, r0, r4, lsr #8
    13c0:	24560001 	ldrbcs	r0, [r6], #-1
    13c4:	28000004 	stmdacs	r0, {r2}
    13c8:	03000004 	movweq	r0, #4
    13cc:	9f7f7600 	svcls	0x007f7600
    13d0:	000004a8 	andeq	r0, r0, r8, lsr #9
    13d4:	000004ac 	andeq	r0, r0, ip, lsr #9
    13d8:	e0560001 	subs	r0, r6, r1
    13dc:	04000004 	streq	r0, [r0], #-4
    13e0:	01000005 	tsteq	r0, r5
    13e4:	057c5600 	ldrbeq	r5, [ip, #-1536]!	; 0xfffffa00
    13e8:	05880000 	streq	r0, [r8]
    13ec:	00010000 	andeq	r0, r1, r0
    13f0:	00058853 	andeq	r8, r5, r3, asr r8
    13f4:	0005d000 	andeq	sp, r5, r0
    13f8:	91000300 	mrsls	r0, LR_irq
    13fc:	08007dcc 	stmdaeq	r0, {r2, r3, r6, r7, r8, sl, fp, ip, sp, lr}
    1400:	080f0000 	stmdaeq	pc, {}	; <UNPREDICTABLE>
    1404:	00010000 	andeq	r0, r1, r0
    1408:	00080f53 	andeq	r0, r8, r3, asr pc
    140c:	00088800 	andeq	r8, r8, r0, lsl #16
    1410:	91000300 	mrsls	r0, LR_irq
    1414:	09207dcc 	stmdbeq	r0!, {r2, r3, r6, r7, r8, sl, fp, ip, sp, lr}
    1418:	09280000 	stmdbeq	r8!, {}	; <UNPREDICTABLE>
    141c:	00010000 	andeq	r0, r1, r0
    1420:	00094852 	andeq	r4, r9, r2, asr r8
    1424:	00096400 	andeq	r6, r9, r0, lsl #8
    1428:	91000300 	mrsls	r0, LR_irq
    142c:	00007dcc 	andeq	r7, r0, ip, asr #27
	...
    143c:	01000000 	mrseq	r0, (UNDEF: 0)
    1440:	01000001 	tsteq	r0, r1
    1444:	00000001 	andeq	r0, r0, r1
    1448:	00020200 	andeq	r0, r2, r0, lsl #4
    144c:	00020200 	andeq	r0, r2, r0, lsl #4
    1450:	00010100 	andeq	r0, r1, r0, lsl #2
    1454:	00020200 	andeq	r0, r2, r0, lsl #4
    1458:	00010100 	andeq	r0, r1, r0, lsl #2
	...
    1464:	00000388 	andeq	r0, r0, r8, lsl #7
    1468:	000003ac 	andeq	r0, r0, ip, lsr #7
    146c:	ac530001 	mrrcge	0, 0, r0, r3, cr1
    1470:	c0000003 	andgt	r0, r0, r3
    1474:	03000003 	movweq	r0, #3
    1478:	04935300 	ldreq	r5, [r3], #768	; 0x300
    147c:	000003d0 	ldrdeq	r0, [r0], -r0	; <UNPREDICTABLE>
    1480:	000003e8 	andeq	r0, r0, r8, ror #7
    1484:	93580003 	cmpls	r8, #3, 0
    1488:	0003e804 	andeq	lr, r3, r4, lsl #16
    148c:	0004ac00 	andeq	sl, r4, r0, lsl #24
    1490:	58000300 	stmdapl	r0, {r8, r9}
    1494:	04c00493 	strbeq	r0, [r0], #1171	; 0x493
    1498:	04c00000 	strbeq	r0, [r0], #0
    149c:	00030000 	andeq	r0, r3, r0
    14a0:	c0049358 	andgt	r9, r4, r8, asr r3
    14a4:	cc000004 	stcgt	0, cr0, [r0], {4}
    14a8:	05000004 	streq	r0, [r0, #-4]
    14ac:	9f047800 	svcls	0x00047800
    14b0:	04cc0493 	strbeq	r0, [ip], #1171	; 0x493
    14b4:	04e00000 	strbteq	r0, [r0], #0
    14b8:	00030000 	andeq	r0, r3, r0
    14bc:	e0049358 	and	r9, r4, r8, asr r3
    14c0:	38000004 	stmdacc	r0, {r2}
    14c4:	03000005 	movweq	r0, #5
    14c8:	04935800 	ldreq	r5, [r3], #2048	; 0x800
    14cc:	00000538 	andeq	r0, r0, r8, lsr r5
    14d0:	0000053c 	andeq	r0, r0, ip, lsr r5
    14d4:	79780005 	ldmdbvc	r8!, {r0, r2}^
    14d8:	d004939f 	mulle	r4, pc, r3	; <UNPREDICTABLE>
    14dc:	d0000005 	andle	r0, r0, r5
    14e0:	03000005 	movweq	r0, #5
    14e4:	04935800 	ldreq	r5, [r3], #2048	; 0x800
    14e8:	000005d0 	ldrdeq	r0, [r0], -r0	; <UNPREDICTABLE>
    14ec:	000005d4 	ldrdeq	r0, [r0], -r4
    14f0:	04780005 	ldrbteq	r0, [r8], #-5
    14f4:	f404939f 	vst2.32	{d9-d12}, [r4 :64]
    14f8:	f4000005 	vst4.8	{d0-d3}, [r0], r5
    14fc:	03000005 	movweq	r0, #5
    1500:	04935800 	ldreq	r5, [r3], #2048	; 0x800
    1504:	000005f4 	strdeq	r0, [r0], -r4
    1508:	000005fc 	strdeq	r0, [r0], -ip
    150c:	04780005 	ldrbteq	r0, [r8], #-5
    1510:	fc04939f 	stc2	3, cr9, [r4], {159}	; 0x9f
    1514:	fc000005 	stc2	0, cr0, [r0], {5}
    1518:	03000005 	movweq	r0, #5
    151c:	04935800 	ldreq	r5, [r3], #2048	; 0x800
    1520:	000005fc 	strdeq	r0, [r0], -ip
    1524:	00000600 	andeq	r0, r0, r0, lsl #12
    1528:	04780005 	ldrbteq	r0, [r8], #-5
    152c:	0004939f 	muleq	r4, pc, r3	; <UNPREDICTABLE>
    1530:	00000006 	andeq	r0, r0, r6
    1534:	03000007 	movweq	r0, #7
    1538:	04935800 	ldreq	r5, [r3], #2048	; 0x800
    153c:	00000700 	andeq	r0, r0, r0, lsl #14
    1540:	0000070c 	andeq	r0, r0, ip, lsl #14
    1544:	04780005 	ldrbteq	r0, [r8], #-5
    1548:	0c04939f 	stceq	3, cr9, [r4], {159}	; 0x9f
    154c:	f8000007 			; <UNDEFINED> instruction: 0xf8000007
    1550:	03000007 	movweq	r0, #7
    1554:	04935800 	ldreq	r5, [r3], #2048	; 0x800
    1558:	000007f8 	strdeq	r0, [r0], -r8
    155c:	000007fc 	strdeq	r0, [r0], -ip
    1560:	04780005 	ldrbteq	r0, [r8], #-5
    1564:	fc04939f 	stc2	3, cr9, [r4], {159}	; 0x9f
    1568:	00000007 	andeq	r0, r0, r7
    156c:	03000008 	movweq	r0, #8
    1570:	04935800 	ldreq	r5, [r3], #2048	; 0x800
    1574:	00000888 	andeq	r0, r0, r8, lsl #17
    1578:	00000920 	andeq	r0, r0, r0, lsr #18
    157c:	93580003 	cmpls	r8, #3, 0
    1580:	00092004 	andeq	r2, r9, r4
    1584:	00092800 	andeq	r2, r9, r0, lsl #16
    1588:	53000100 	movwpl	r0, #256	; 0x100
    158c:	00000964 	andeq	r0, r0, r4, ror #18
    1590:	000009b4 			; <UNDEFINED> instruction: 0x000009b4
    1594:	93580003 	cmpls	r8, #3, 0
    1598:	00000004 	andeq	r0, r0, r4
    159c:	00000000 	andeq	r0, r0, r0
    15a0:	00000100 	andeq	r0, r0, r0, lsl #2
    15a4:	00000000 	andeq	r0, r0, r0
    15a8:	02020000 	andeq	r0, r2, #0, 0
    15ac:	01000000 	mrseq	r0, (UNDEF: 0)
    15b0:	00000101 	andeq	r0, r0, r1, lsl #2
    15b4:	ac000000 	stcge	0, cr0, [r0], {-0}
    15b8:	d0000003 	andle	r0, r0, r3
    15bc:	01000003 	tsteq	r0, r3
    15c0:	03d05b00 	bicseq	r5, r0, #0, 22
    15c4:	03d40000 	bicseq	r0, r4, #0, 0
    15c8:	00010000 	andeq	r0, r1, r0
    15cc:	0003d454 	andeq	sp, r3, r4, asr r4
    15d0:	0003d800 	andeq	sp, r3, r0, lsl #16
    15d4:	74000300 	strvc	r0, [r0], #-768	; 0xfffffd00
    15d8:	03d89f7f 	bicseq	r9, r8, #508	; 0x1fc
    15dc:	03fc0000 	mvnseq	r0, #0, 0
    15e0:	00010000 	andeq	r0, r1, r0
    15e4:	0004a854 	andeq	sl, r4, r4, asr r8
    15e8:	0004ac00 	andeq	sl, r4, r0, lsl #24
    15ec:	54000100 	strpl	r0, [r0], #-256	; 0xffffff00
    15f0:	000004ac 	andeq	r0, r0, ip, lsr #9
    15f4:	000004b4 			; <UNDEFINED> instruction: 0x000004b4
    15f8:	01740003 	cmneq	r4, r3
    15fc:	0004b49f 	muleq	r4, pc, r4	; <UNPREDICTABLE>
    1600:	0004c000 	andeq	ip, r4, r0
    1604:	54000100 	strpl	r0, [r0], #-256	; 0xffffff00
    1608:	000004e4 	andeq	r0, r0, r4, ror #9
    160c:	000004f4 	strdeq	r0, [r0], -r4
    1610:	f4540001 			; <UNDEFINED> instruction: 0xf4540001
    1614:	f8000004 			; <UNDEFINED> instruction: 0xf8000004
    1618:	03000004 	movweq	r0, #4
    161c:	9f017400 	svcls	0x00017400
    1620:	000004f8 	strdeq	r0, [r0], -r8
    1624:	00000504 	andeq	r0, r0, r4, lsl #10
    1628:	20540001 	subscs	r0, r4, r1
    162c:	28000009 	stmdacs	r0, {r0, r3}
    1630:	01000009 	tsteq	r0, r9
    1634:	00005b00 	andeq	r5, r0, r0, lsl #22
    1638:	00000000 	andeq	r0, r0, r0
    163c:	00010000 	andeq	r0, r1, r0
    1640:	000003ac 	andeq	r0, r0, ip, lsr #7
    1644:	000009b4 			; <UNDEFINED> instruction: 0x000009b4
    1648:	00570001 	subseq	r0, r7, r1
    164c:	00000000 	andeq	r0, r0, r0
    1650:	02000000 	andeq	r0, r0, #0, 0
    1654:	00000000 	andeq	r0, r0, r0
    1658:	00057c00 	andeq	r7, r5, r0, lsl #24
    165c:	0005d000 	andeq	sp, r5, r0
    1660:	5b000100 	blpl	1a68 <__code_start__-0x6598>
    1664:	00000800 	andeq	r0, r0, r0, lsl #16
    1668:	00000888 	andeq	r0, r0, r8, lsl #17
    166c:	485b0001 	ldmdami	fp, {r0}^
    1670:	64000009 	strvs	r0, [r0], #-9
    1674:	01000009 	tsteq	r0, r9
    1678:	00005b00 	andeq	r5, r0, r0, lsl #22
    167c:	00000000 	andeq	r0, r0, r0
    1680:	00030000 	andeq	r0, r3, r0
    1684:	00000000 	andeq	r0, r0, r0
    1688:	0000057c 	andeq	r0, r0, ip, ror r5
    168c:	000005d0 	ldrdeq	r0, [r0], -r0	; <UNPREDICTABLE>
    1690:	00590001 	subseq	r0, r9, r1
    1694:	88000008 	stmdahi	r0, {r3}
    1698:	01000008 	tsteq	r0, r8
    169c:	09485900 	stmdbeq	r8, {r8, fp, ip, lr}^
    16a0:	09640000 	stmdbeq	r4!, {}^	; <UNPREDICTABLE>
    16a4:	00010000 	andeq	r0, r1, r0
    16a8:	00000059 	andeq	r0, r0, r9, asr r0
    16ac:	00000000 	andeq	r0, r0, r0
    16b0:	00000400 	andeq	r0, r0, r0, lsl #8
    16b4:	00000000 	andeq	r0, r0, r0
    16b8:	0003ac00 	andeq	sl, r3, r0, lsl #24
    16bc:	0003d000 	andeq	sp, r3, r0
    16c0:	52000100 	andpl	r0, r0, #0
    16c4:	000003d0 	ldrdeq	r0, [r0], -r0	; <UNPREDICTABLE>
    16c8:	00000920 	andeq	r0, r0, r0, lsr #18
    16cc:	01f30004 	mvnseq	r0, r4
    16d0:	09209f52 	stmdbeq	r0!, {r1, r4, r6, r8, r9, sl, fp, ip, pc}
    16d4:	09280000 	stmdbeq	r8!, {}	; <UNPREDICTABLE>
    16d8:	00010000 	andeq	r0, r1, r0
    16dc:	00092852 	andeq	r2, r9, r2, asr r8
    16e0:	0009b400 	andeq	fp, r9, r0, lsl #8
    16e4:	f3000400 	vshl.u8	d0, d0, d0
    16e8:	009f5201 	addseq	r5, pc, r1, lsl #4
	...
    16f4:	00000101 	andeq	r0, r0, r1, lsl #2
    16f8:	01000000 	mrseq	r0, (UNDEF: 0)
    16fc:	e0000000 	and	r0, r0, r0
    1700:	e0000004 	and	r0, r0, r4
    1704:	01000004 	tsteq	r0, r4
    1708:	04e05000 	strbteq	r5, [r0], #0
    170c:	04e80000 	strbteq	r0, [r8], #0
    1710:	00010000 	andeq	r0, r1, r0
    1714:	0005b855 	andeq	fp, r5, r5, asr r8
    1718:	0005d000 	andeq	sp, r5, r0
    171c:	55000100 	strpl	r0, [r0, #-256]	; 0xffffff00
    1720:	000005f0 	strdeq	r0, [r0], -r0	; <UNPREDICTABLE>
    1724:	000005f4 	strdeq	r0, [r0], -r4
    1728:	f4500001 			; <UNDEFINED> instruction: 0xf4500001
    172c:	f8000007 			; <UNDEFINED> instruction: 0xf8000007
    1730:	01000007 	tsteq	r0, r7
    1734:	08505500 	ldmdaeq	r0, {r8, sl, ip, lr}^
    1738:	08880000 	stmeq	r8, {}	; <UNPREDICTABLE>
    173c:	00010000 	andeq	r0, r1, r0
    1740:	00000055 	andeq	r0, r0, r5, asr r0
    1744:	00000000 	andeq	r0, r0, r0
    1748:	00000200 	andeq	r0, r0, r0, lsl #4
    174c:	00000000 	andeq	r0, r0, r0
    1750:	00041400 	andeq	r1, r4, r0, lsl #8
    1754:	00041800 	andeq	r1, r4, r0, lsl #16
    1758:	30000200 	andcc	r0, r0, r0, lsl #4
    175c:	0004189f 	muleq	r4, pc, r8	; <UNPREDICTABLE>
    1760:	00041c00 	andeq	r1, r4, r0, lsl #24
    1764:	55000100 	strpl	r0, [r0, #-256]	; 0xffffff00
    1768:	00000428 	andeq	r0, r0, r8, lsr #8
    176c:	0000043c 	andeq	r0, r0, ip, lsr r4
    1770:	28550001 	ldmdacs	r5, {r0}^
    1774:	30000009 	andcc	r0, r0, r9
    1778:	01000009 	tsteq	r0, r9
    177c:	00005500 	andeq	r5, r0, r0, lsl #10
    1780:	00000000 	andeq	r0, r0, r0
    1784:	00010000 	andeq	r0, r1, r0
	...
    1790:	05040000 	streq	r0, [r4, #-0]
    1794:	05840000 	streq	r0, [r4]
    1798:	00010000 	andeq	r0, r1, r0
    179c:	00058456 	andeq	r8, r5, r6, asr r4
    17a0:	00058800 	andeq	r8, r5, r0, lsl #16
    17a4:	73000300 	movwvc	r0, #768	; 0x300
    17a8:	05889f7e 	streq	r9, [r8, #3966]	; 0xf7e
    17ac:	05d00000 	ldrbeq	r0, [r0]
    17b0:	00070000 	andeq	r0, r7, r0
    17b4:	067dcc91 			; <UNDEFINED> instruction: 0x067dcc91
    17b8:	009f1c32 	addseq	r1, pc, r2, lsr ip	; <UNPREDICTABLE>
    17bc:	1c000008 	stcne	0, cr0, [r0], {8}
    17c0:	01000008 	tsteq	r0, r8
    17c4:	081c5600 	ldmdaeq	ip, {r9, sl, ip, lr}
    17c8:	08880000 	stmeq	r8, {}	; <UNPREDICTABLE>
    17cc:	00070000 	andeq	r0, r7, r0
    17d0:	067dcc91 			; <UNDEFINED> instruction: 0x067dcc91
    17d4:	489f1c32 	ldmmi	pc, {r1, r4, r5, sl, fp, ip}	; <UNPREDICTABLE>
    17d8:	b4000009 	strlt	r0, [r0], #-9
    17dc:	01000009 	tsteq	r0, r9
    17e0:	00005600 	andeq	r5, r0, r0, lsl #12
    17e4:	00000000 	andeq	r0, r0, r0
    17e8:	06040000 	streq	r0, [r4], -r0
    17ec:	04140402 	ldreq	r0, [r4], #-1026	; 0xfffffbfe
    17f0:	04140000 	ldreq	r0, [r4], #-0
    17f4:	00060000 	andeq	r0, r6, r0
    17f8:	ff080072 			; <UNDEFINED> instruction: 0xff080072
    17fc:	04289f1a 	strteq	r9, [r8], #-3866	; 0xfffff0e6
    1800:	04280000 	strteq	r0, [r8], #-0
    1804:	00060000 	andeq	r0, r6, r0
    1808:	ff080072 			; <UNDEFINED> instruction: 0xff080072
    180c:	00009f1a 	andeq	r9, r0, sl, lsl pc
    1810:	00000000 	andeq	r0, r0, r0
    1814:	00020000 	andeq	r0, r2, r0
    1818:	00000000 	andeq	r0, r0, r0
    181c:	000005fc 	strdeq	r0, [r0], -ip
    1820:	00000700 	andeq	r0, r0, r0, lsl #14
    1824:	80080003 	andhi	r0, r8, r3
    1828:	0008a89f 	muleq	r8, pc, r8	; <UNPREDICTABLE>
    182c:	0008bc00 	andeq	fp, r8, r0, lsl #24
    1830:	08000300 	stmdaeq	r0, {r8, r9}
    1834:	09109f80 	ldmdbeq	r0, {r7, r8, r9, sl, fp, ip, pc}
    1838:	09200000 	stmdbeq	r0!, {}	; <UNPREDICTABLE>
    183c:	00030000 	andeq	r0, r3, r0
    1840:	009f8008 	addseq	r8, pc, r8
    1844:	00000000 	andeq	r0, r0, r0
    1848:	01000000 	mrseq	r0, (UNDEF: 0)
    184c:	00000000 	andeq	r0, r0, r0
    1850:	0005fc00 	andeq	pc, r5, r0, lsl #24
    1854:	00070000 	andeq	r0, r7, r0
    1858:	30000200 	andcc	r0, r0, r0, lsl #4
    185c:	0008a89f 	muleq	r8, pc, r8	; <UNPREDICTABLE>
    1860:	0008bc00 	andeq	fp, r8, r0, lsl #24
    1864:	30000200 	andcc	r0, r0, r0, lsl #4
    1868:	0009109f 	muleq	r9, pc, r0	; <UNPREDICTABLE>
    186c:	00092000 	andeq	r2, r9, r0
    1870:	30000200 	andcc	r0, r0, r0, lsl #4
    1874:	0000009f 	muleq	r0, pc, r0	; <UNPREDICTABLE>
    1878:	00000000 	andeq	r0, r0, r0
    187c:	00000100 	andeq	r0, r0, r0, lsl #2
    1880:	fc000000 	stc2	0, cr0, [r0], {-0}
    1884:	e0000005 	and	r0, r0, r5
    1888:	01000006 	tsteq	r0, r6
    188c:	08a85500 	stmiaeq	r8!, {r8, sl, ip, lr}
    1890:	08bc0000 	ldmeq	ip!, {}	; <UNPREDICTABLE>
    1894:	00010000 	andeq	r0, r1, r0
    1898:	00091055 	andeq	r1, r9, r5, asr r0
    189c:	00092000 	andeq	r2, r9, r0
    18a0:	55000100 	strpl	r0, [r0, #-256]	; 0xffffff00
	...
    18ac:	00000001 	andeq	r0, r0, r1
    18b0:	00000000 	andeq	r0, r0, r0
    18b4:	000005fc 	strdeq	r0, [r0], -ip
    18b8:	000006e0 	andeq	r0, r0, r0, ror #13
    18bc:	d0910004 	addsle	r0, r1, r4
    18c0:	06e09f7d 			; <UNDEFINED> instruction: 0x06e09f7d
    18c4:	07000000 	streq	r0, [r0, -r0]
    18c8:	00010000 	andeq	r0, r1, r0
    18cc:	0008a855 	andeq	sl, r8, r5, asr r8
    18d0:	0008bc00 	andeq	fp, r8, r0, lsl #24
    18d4:	91000400 	tstls	r0, r0, lsl #8
    18d8:	109f7dd0 			; <UNDEFINED> instruction: 0x109f7dd0
    18dc:	20000009 	andcs	r0, r0, r9
    18e0:	04000009 	streq	r0, [r0], #-9
    18e4:	7dd09100 	ldfvcp	f1, [r0]
    18e8:	0000009f 	muleq	r0, pc, r0	; <UNPREDICTABLE>
    18ec:	00000000 	andeq	r0, r0, r0
    18f0:	00000100 	andeq	r0, r0, r0, lsl #2
    18f4:	fc000000 	stc2	0, cr0, [r0], {-0}
    18f8:	00000005 	andeq	r0, r0, r5
    18fc:	02000007 	andeq	r0, r0, #7, 0
    1900:	a89f3800 	ldmge	pc, {fp, ip, sp}	; <UNPREDICTABLE>
    1904:	bc000008 	stclt	0, cr0, [r0], {8}
    1908:	02000008 	andeq	r0, r0, #8, 0
    190c:	109f3800 	addsne	r3, pc, r0, lsl #16
    1910:	20000009 	andcs	r0, r0, r9
    1914:	02000009 	andeq	r0, r0, #9, 0
    1918:	009f3800 	addseq	r3, pc, r0, lsl #16
    191c:	00000000 	andeq	r0, r0, r0
    1920:	04000000 	streq	r0, [r0], #-0
    1924:	00000707 	andeq	r0, r0, r7, lsl #14
	...
    1930:	0005fc00 	andeq	pc, r5, r0, lsl #24
    1934:	0005fc00 	andeq	pc, r5, r0, lsl #24
    1938:	91000400 	tstls	r0, r0, lsl #8
    193c:	fc9f7ed0 	ldc2	14, cr7, [pc], {208}	; 0xd0
    1940:	78000005 	stmdavc	r0, {r0, r2}
    1944:	04000006 	streq	r0, [r0], #-6
    1948:	7ed19100 	atnvcs	f1, f0
    194c:	0006789f 	muleq	r6, pc, r8	; <UNPREDICTABLE>
    1950:	0006d400 	andeq	sp, r6, r0, lsl #8
    1954:	5c000100 	stfpls	f0, [r0], {-0}
    1958:	000006d4 	ldrdeq	r0, [r0], -r4
    195c:	00000700 	andeq	r0, r0, r0, lsl #14
    1960:	d1910004 	orrsle	r0, r1, r4
    1964:	08a89f7e 	stmiaeq	r8!, {r1, r2, r3, r4, r5, r6, r8, r9, sl, fp, ip, pc}
    1968:	08bc0000 	ldmeq	ip!, {}	; <UNPREDICTABLE>
    196c:	00040000 	andeq	r0, r4, r0
    1970:	9f7ed191 	svcls	0x007ed191
    1974:	00000910 	andeq	r0, r0, r0, lsl r9
    1978:	00000914 	andeq	r0, r0, r4, lsl r9
    197c:	d1910004 	orrsle	r0, r1, r4
    1980:	09149f7e 	ldmdbeq	r4, {r1, r2, r3, r4, r5, r6, r8, r9, sl, fp, ip, pc}
    1984:	09200000 	stmdbeq	r0!, {}	; <UNPREDICTABLE>
    1988:	00010000 	andeq	r0, r1, r0
    198c:	0000005c 	andeq	r0, r0, ip, asr r0
    1990:	00000000 	andeq	r0, r0, r0
    1994:	00010400 	andeq	r0, r1, r0, lsl #8
    1998:	08000001 	stmdaeq	r0, {r0}
    199c:	d0000006 	andle	r0, r0, r6
    19a0:	01000006 	tsteq	r0, r6
    19a4:	08a85500 	stmiaeq	r8!, {r8, sl, ip, lr}
    19a8:	08b80000 	ldmeq	r8!, {}	; <UNPREDICTABLE>
    19ac:	00010000 	andeq	r0, r1, r0
    19b0:	00091055 	andeq	r1, r9, r5, asr r0
    19b4:	00092000 	andeq	r2, r9, r0
    19b8:	55000100 	strpl	r0, [r0, #-256]	; 0xffffff00
	...
    19c4:	00000004 	andeq	r0, r0, r4
    19c8:	00000100 	andeq	r0, r0, r0, lsl #2
    19cc:	00000100 	andeq	r0, r0, r0, lsl #2
    19d0:	00000608 	andeq	r0, r0, r8, lsl #12
    19d4:	000006b0 			; <UNDEFINED> instruction: 0x000006b0
    19d8:	d0910004 	addsle	r0, r1, r4
    19dc:	06b09f7e 			; <UNDEFINED> instruction: 0x06b09f7e
    19e0:	06c80000 	strbeq	r0, [r8], r0
    19e4:	00010000 	andeq	r0, r1, r0
    19e8:	0006c850 	andeq	ip, r6, r0, asr r8
    19ec:	0006d000 	andeq	sp, r6, r0
    19f0:	91000400 	tstls	r0, r0, lsl #8
    19f4:	a89f7ed0 	ldmge	pc, {r4, r6, r7, r9, sl, fp, ip, sp, lr}	; <UNPREDICTABLE>
    19f8:	b0000008 	andlt	r0, r0, r8
    19fc:	04000008 	streq	r0, [r0], #-8
    1a00:	7ed09100 	atnvcs	f1, f0
    1a04:	0008b09f 	muleq	r8, pc, r0	; <UNPREDICTABLE>
    1a08:	0008b800 	andeq	fp, r8, r0, lsl #16
    1a0c:	53000100 	movwpl	r0, #256	; 0x100
    1a10:	00000910 	andeq	r0, r0, r0, lsl r9
    1a14:	00000920 	andeq	r0, r0, r0, lsr #18
    1a18:	d0910004 	addsle	r0, r1, r4
    1a1c:	00009f7e 	andeq	r9, r0, lr, ror pc
    1a20:	00000000 	andeq	r0, r0, r0
    1a24:	00040000 	andeq	r0, r4, r0
    1a28:	01010100 	mrseq	r0, (UNDEF: 17)
    1a2c:	02030301 	andeq	r0, r3, #67108864	; 0x4000000
    1a30:	00000100 	andeq	r0, r0, r0, lsl #2
    1a34:	06080000 	streq	r0, [r8], -r0
    1a38:	06240000 	strteq	r0, [r4], -r0
    1a3c:	00040000 	andeq	r0, r4, r0
    1a40:	9f7ed191 	svcls	0x007ed191
    1a44:	00000684 	andeq	r0, r0, r4, lsl #13
    1a48:	00000684 	andeq	r0, r0, r4, lsl #13
    1a4c:	84500001 	ldrbhi	r0, [r0], #-1
    1a50:	98000006 	stmdals	r0, {r1, r2}
    1a54:	03000006 	movweq	r0, #6
    1a58:	9f017000 	svcls	0x00017000
    1a5c:	00000698 	muleq	r0, r8, r6
    1a60:	000006a4 	andeq	r0, r0, r4, lsr #13
    1a64:	02700003 	rsbseq	r0, r0, #3, 0
    1a68:	0006a49f 	muleq	r6, pc, r4	; <UNPREDICTABLE>
    1a6c:	0006a800 	andeq	sl, r6, r0, lsl #16
    1a70:	70000300 	andvc	r0, r0, r0, lsl #6
    1a74:	08a89f03 	stmiaeq	r8!, {r0, r1, r8, r9, sl, fp, ip, pc}
    1a78:	08b80000 	ldmeq	r8!, {}	; <UNPREDICTABLE>
    1a7c:	00040000 	andeq	r0, r4, r0
    1a80:	9f7ed191 	svcls	0x007ed191
    1a84:	00000910 	andeq	r0, r0, r0, lsl r9
    1a88:	00000914 	andeq	r0, r0, r4, lsl r9
    1a8c:	d1910004 	orrsle	r0, r1, r4
    1a90:	09149f7e 	ldmdbeq	r4, {r1, r2, r3, r4, r5, r6, r8, r9, sl, fp, ip, pc}
    1a94:	09200000 	stmdbeq	r0!, {}	; <UNPREDICTABLE>
    1a98:	00010000 	andeq	r0, r1, r0
    1a9c:	0000005c 	andeq	r0, r0, ip, asr r0
    1aa0:	00000000 	andeq	r0, r0, r0
    1aa4:	00000600 	andeq	r0, r0, r0, lsl #12
    1aa8:	01010101 	tsteq	r1, r1, lsl #2
    1aac:	00020101 	andeq	r0, r2, r1, lsl #2
    1ab0:	08000001 	stmdaeq	r0, {r0}
    1ab4:	24000006 	strcs	r0, [r0], #-6
    1ab8:	02000006 	andeq	r0, r0, #6, 0
    1abc:	849f3100 	ldrhi	r3, [pc], #256	; 1ac4 <__code_start__-0x653c>
    1ac0:	94000006 	strls	r0, [r0], #-6
    1ac4:	01000006 	tsteq	r0, r6
    1ac8:	06945200 	ldreq	r5, [r4], r0, lsl #4
    1acc:	06a40000 	strteq	r0, [r4], r0
    1ad0:	00010000 	andeq	r0, r1, r0
    1ad4:	0006a459 	andeq	sl, r6, r9, asr r4
    1ad8:	0006a800 	andeq	sl, r6, r0, lsl #16
    1adc:	52000100 	andpl	r0, r0, #0
    1ae0:	000006a8 	andeq	r0, r0, r8, lsr #13
    1ae4:	000006a8 	andeq	r0, r0, r8, lsr #13
    1ae8:	01720003 	cmneq	r2, r3
    1aec:	0008a89f 	muleq	r8, pc, r8	; <UNPREDICTABLE>
    1af0:	0008b800 	andeq	fp, r8, r0, lsl #16
    1af4:	31000200 	mrscc	r0, R8_usr
    1af8:	0009109f 	muleq	r9, pc, r0	; <UNPREDICTABLE>
    1afc:	00092000 	andeq	r2, r9, r0
    1b00:	31000200 	mrscc	r0, R8_usr
    1b04:	0000009f 	muleq	r0, pc, r0	; <UNPREDICTABLE>
    1b08:	00000000 	andeq	r0, r0, r0
    1b0c:	06060100 	streq	r0, [r6], -r0, lsl #2
    1b10:	d0000100 	andle	r0, r0, r0, lsl #2
    1b14:	d0000006 	andle	r0, r0, r6
    1b18:	04000006 	streq	r0, [r0], #-6
    1b1c:	7ed09100 	atnvcs	f1, f0
    1b20:	0006d09f 	muleq	r6, pc, r0	; <UNPREDICTABLE>
    1b24:	00070000 	andeq	r0, r7, r0
    1b28:	50000100 	andpl	r0, r0, r0, lsl #2
    1b2c:	000008b8 			; <UNDEFINED> instruction: 0x000008b8
    1b30:	000008bc 			; <UNDEFINED> instruction: 0x000008bc
    1b34:	00530001 	subseq	r0, r3, r1
    1b38:	00000000 	andeq	r0, r0, r0
    1b3c:	01000000 	mrseq	r0, (UNDEF: 0)
    1b40:	00000008 	andeq	r0, r0, r8
    1b44:	01000101 	tsteq	r0, r1, lsl #2
    1b48:	0006d007 	andeq	sp, r6, r7
    1b4c:	0006d000 	andeq	sp, r6, r0
    1b50:	7c000600 	stcvc	6, cr0, [r0], {-0}
    1b54:	22007100 	andcs	r7, r0, #0
    1b58:	0006e49f 	muleq	r6, pc, r4	; <UNPREDICTABLE>
    1b5c:	0006e800 	andeq	lr, r6, r0, lsl #16
    1b60:	73000300 	movwvc	r0, #768	; 0x300
    1b64:	06e89f7f 			; <UNDEFINED> instruction: 0x06e89f7f
    1b68:	06f00000 	ldrbteq	r0, [r0], r0
    1b6c:	00010000 	andeq	r0, r1, r0
    1b70:	0006f053 	andeq	pc, r6, r3, asr r0	; <UNPREDICTABLE>
    1b74:	0006f800 	andeq	pc, r6, r0, lsl #16
    1b78:	73000300 	movwvc	r0, #768	; 0x300
    1b7c:	08b89f7f 	ldmeq	r8!, {r0, r1, r2, r3, r4, r5, r6, r8, r9, sl, fp, ip, pc}
    1b80:	08b80000 	ldmeq	r8!, {}	; <UNPREDICTABLE>
    1b84:	00040000 	andeq	r0, r4, r0
    1b88:	9f7ed191 	svcls	0x007ed191
	...
    1b94:	00010001 	andeq	r0, r1, r1
    1b98:	000006d0 	ldrdeq	r0, [r0], -r0	; <UNPREDICTABLE>
    1b9c:	00000700 	andeq	r0, r0, r0, lsl #14
    1ba0:	80080003 	andhi	r0, r8, r3
    1ba4:	0008b89f 	muleq	r8, pc, r8	; <UNPREDICTABLE>
    1ba8:	0008bc00 	andeq	fp, r8, r0, lsl #24
    1bac:	08000300 	stmdaeq	r0, {r8, r9}
    1bb0:	00009f80 	andeq	r9, r0, r0, lsl #31
    1bb4:	00000000 	andeq	r0, r0, r0
    1bb8:	00010000 	andeq	r0, r1, r0
    1bbc:	01000000 	mrseq	r0, (UNDEF: 0)
    1bc0:	00000001 	andeq	r0, r0, r1
    1bc4:	00010102 	andeq	r0, r1, r2, lsl #2
    1bc8:	000006d0 	ldrdeq	r0, [r0], -r0	; <UNPREDICTABLE>
    1bcc:	000006e0 	andeq	r0, r0, r0, ror #13
    1bd0:	d0910004 	addsle	r0, r1, r4
    1bd4:	06e09f7d 			; <UNDEFINED> instruction: 0x06e09f7d
    1bd8:	06e40000 	strbteq	r0, [r4], r0
    1bdc:	00010000 	andeq	r0, r1, r0
    1be0:	0006e455 	andeq	lr, r6, r5, asr r4
    1be4:	0006e400 	andeq	lr, r6, r0, lsl #8
    1be8:	72000300 	andvc	r0, r0, #0, 6
    1bec:	06e49f01 	strbteq	r9, [r4], r1, lsl #30
    1bf0:	06f00000 	ldrbteq	r0, [r0], r0
    1bf4:	00030000 	andeq	r0, r3, r0
    1bf8:	f09f0272 			; <UNDEFINED> instruction: 0xf09f0272
    1bfc:	00000006 	andeq	r0, r0, r6
    1c00:	03000007 	movweq	r0, #7
    1c04:	9f017200 	svcls	0x00017200
    1c08:	000007ec 	andeq	r0, r0, ip, ror #15
    1c0c:	000007f4 	strdeq	r0, [r0], -r4
    1c10:	01730003 	cmneq	r3, r3
    1c14:	0008b89f 	muleq	r8, pc, r8	; <UNPREDICTABLE>
    1c18:	0008bc00 	andeq	fp, r8, r0, lsl #24
    1c1c:	91000400 	tstls	r0, r0, lsl #8
    1c20:	009f7dd0 			; <UNDEFINED> instruction: 0x009f7dd0
    1c24:	00000000 	andeq	r0, r0, r0
    1c28:	04000000 	streq	r0, [r0], #-0
    1c2c:	0008b800 	andeq	fp, r8, r0, lsl #16
    1c30:	0008bc00 	andeq	fp, r8, r0, lsl #24
    1c34:	32000200 	andcc	r0, r0, #0, 4
    1c38:	0000009f 	muleq	r0, pc, r0	; <UNPREDICTABLE>
    1c3c:	00000000 	andeq	r0, r0, r0
    1c40:	00000700 	andeq	r0, r0, r0, lsl #14
    1c44:	d0000600 	andle	r0, r0, r0, lsl #12
    1c48:	e0000006 	and	r0, r0, r6
    1c4c:	04000006 	streq	r0, [r0], #-6
    1c50:	7dd09100 	ldfvcp	f1, [r0]
    1c54:	0006e09f 	muleq	r6, pc, r0	; <UNPREDICTABLE>
    1c58:	00070000 	andeq	r0, r7, r0
    1c5c:	55000100 	strpl	r0, [r0, #-256]	; 0xffffff00
    1c60:	000008b8 			; <UNDEFINED> instruction: 0x000008b8
    1c64:	000008bc 			; <UNDEFINED> instruction: 0x000008bc
    1c68:	d0910004 	addsle	r0, r1, r4
    1c6c:	00009f7d 	andeq	r9, r0, sp, ror pc
    1c70:	00000000 	andeq	r0, r0, r0
    1c74:	00010000 	andeq	r0, r1, r0
    1c78:	070c0000 	streq	r0, [ip, -r0]
    1c7c:	07ec0000 	strbeq	r0, [ip, r0]!
    1c80:	00030000 	andeq	r0, r3, r0
    1c84:	949f8008 	ldrls	r8, [pc], #8	; 1c8c <__code_start__-0x6374>
    1c88:	a8000008 	stmdage	r0, {r3}
    1c8c:	03000008 	movweq	r0, #8
    1c90:	9f800800 	svcls	0x00800800
	...
    1ca0:	0000070c 	andeq	r0, r0, ip, lsl #14
    1ca4:	000007ec 	andeq	r0, r0, ip, ror #15
    1ca8:	9f300002 	svcls	0x00300002
    1cac:	00000894 	muleq	r0, r4, r8
    1cb0:	000008a8 	andeq	r0, r0, r8, lsr #17
    1cb4:	9f300002 	svcls	0x00300002
	...
    1cc4:	0000070c 	andeq	r0, r0, ip, lsl #14
    1cc8:	000007d0 	ldrdeq	r0, [r0], -r0	; <UNPREDICTABLE>
    1ccc:	94550001 	ldrbls	r0, [r5], #-1
    1cd0:	a8000008 	stmdage	r0, {r3}
    1cd4:	01000008 	tsteq	r0, r8
    1cd8:	00005500 	andeq	r5, r0, r0, lsl #10
	...
    1ce8:	0000070c 	andeq	r0, r0, ip, lsl #14
    1cec:	000007d0 	ldrdeq	r0, [r0], -r0	; <UNPREDICTABLE>
    1cf0:	d0910004 	addsle	r0, r1, r4
    1cf4:	07d09f7d 			; <UNDEFINED> instruction: 0x07d09f7d
    1cf8:	07ec0000 	strbeq	r0, [ip, r0]!
    1cfc:	00010000 	andeq	r0, r1, r0
    1d00:	00089455 	andeq	r9, r8, r5, asr r4
    1d04:	0008a800 	andeq	sl, r8, r0, lsl #16
    1d08:	91000400 	tstls	r0, r0, lsl #8
    1d0c:	009f7dd0 			; <UNDEFINED> instruction: 0x009f7dd0
	...
    1d18:	0c000000 	stceq	0, cr0, [r0], {-0}
    1d1c:	ec000007 	stc	0, cr0, [r0], {7}
    1d20:	02000007 	andeq	r0, r0, #7, 0
    1d24:	949f3200 	ldrls	r3, [pc], #512	; 1d2c <__code_start__-0x62d4>
    1d28:	a8000008 	stmdage	r0, {r3}
    1d2c:	02000008 	andeq	r0, r0, #8, 0
    1d30:	009f3200 	addseq	r3, pc, r0, lsl #4
    1d34:	00000000 	andeq	r0, r0, r0
    1d38:	03000000 	movweq	r0, #0
    1d3c:	00000505 	andeq	r0, r0, r5, lsl #10
    1d40:	00000000 	andeq	r0, r0, r0
    1d44:	00070c00 	andeq	r0, r7, r0, lsl #24
    1d48:	00070c00 	andeq	r0, r7, r0, lsl #24
    1d4c:	51000100 	mrspl	r0, (UNDEF: 16)
    1d50:	0000070c 	andeq	r0, r0, ip, lsl #14
    1d54:	0000071c 	andeq	r0, r0, ip, lsl r7
    1d58:	1c530001 	mrrcne	0, 0, r0, r3, cr1
    1d5c:	24000007 	strcs	r0, [r0], #-7
    1d60:	03000007 	movweq	r0, #7
    1d64:	9f017200 	svcls	0x00017200
    1d68:	00000724 	andeq	r0, r0, r4, lsr #14
    1d6c:	000007cc 	andeq	r0, r0, ip, asr #15
    1d70:	94530001 	ldrbls	r0, [r3], #-1
    1d74:	a8000008 	stmdage	r0, {r3}
    1d78:	01000008 	tsteq	r0, r8
    1d7c:	00005300 	andeq	r5, r0, r0, lsl #6
    1d80:	00000000 	andeq	r0, r0, r0
    1d84:	00050000 	andeq	r0, r5, r0
    1d88:	070c0001 	streq	r0, [ip, -r1]
    1d8c:	07200000 	streq	r0, [r0, -r0]!
    1d90:	00010000 	andeq	r0, r1, r0
    1d94:	00072450 	andeq	r2, r7, r0, asr r4
    1d98:	00072c00 	andeq	r2, r7, r0, lsl #24
    1d9c:	50000100 	andpl	r0, r0, r0, lsl #2
	...
    1da8:	01000103 	tsteq	r0, r3, lsl #2
    1dac:	00000728 	andeq	r0, r0, r8, lsr #14
    1db0:	000007b0 			; <UNDEFINED> instruction: 0x000007b0
    1db4:	94550001 	ldrbls	r0, [r5], #-1
    1db8:	a0000008 	andge	r0, r0, r8
    1dbc:	01000008 	tsteq	r0, r8
    1dc0:	00005500 	andeq	r5, r0, r0, lsl #10
    1dc4:	00000000 	andeq	r0, r0, r0
    1dc8:	01030000 	mrseq	r0, (UNDEF: 3)
    1dcc:	07280100 	streq	r0, [r8, -r0, lsl #2]!
    1dd0:	07b00000 	ldreq	r0, [r0, r0]!
    1dd4:	00010000 	andeq	r0, r1, r0
    1dd8:	00089451 	andeq	r9, r8, r1, asr r4
    1ddc:	0008a000 	andeq	sl, r8, r0
    1de0:	51000100 	mrspl	r0, (UNDEF: 16)
	...
    1dec:	01000003 	tsteq	r0, r3
    1df0:	03010101 	movweq	r0, #4353	; 0x1101
    1df4:	01000203 	tsteq	r0, r3, lsl #4
    1df8:	00000728 	andeq	r0, r0, r8, lsr #14
    1dfc:	00000750 	andeq	r0, r0, r0, asr r7
    1e00:	74530001 	ldrbvc	r0, [r3], #-1
    1e04:	74000007 	strvc	r0, [r0], #-7
    1e08:	01000007 	tsteq	r0, r7
    1e0c:	07745e00 	ldrbeq	r5, [r4, -r0, lsl #28]!
    1e10:	07880000 	streq	r0, [r8, r0]
    1e14:	00030000 	andeq	r0, r3, r0
    1e18:	889f017e 	ldmhi	pc, {r1, r2, r3, r4, r5, r6, r8}	; <UNPREDICTABLE>
    1e1c:	94000007 	strls	r0, [r0], #-7
    1e20:	03000007 	movweq	r0, #7
    1e24:	9f027e00 	svcls	0x00027e00
    1e28:	00000794 	muleq	r0, r4, r7
    1e2c:	00000798 	muleq	r0, r8, r7
    1e30:	037e0003 	cmneq	lr, #3, 0
    1e34:	0008949f 	muleq	r8, pc, r4	; <UNPREDICTABLE>
    1e38:	0008a000 	andeq	sl, r8, r0
    1e3c:	53000100 	movwpl	r0, #256	; 0x100
	...
    1e48:	01000000 	mrseq	r0, (UNDEF: 0)
    1e4c:	01010101 	tsteq	r1, r1, lsl #2
    1e50:	01000201 	tsteq	r0, r1, lsl #4
    1e54:	0000072c 	andeq	r0, r0, ip, lsr #14
    1e58:	00000750 	andeq	r0, r0, r0, asr r7
    1e5c:	74500001 	ldrbvc	r0, [r0], #-1
    1e60:	84000007 	strhi	r0, [r0], #-7
    1e64:	01000007 	tsteq	r0, r7
    1e68:	07845000 	streq	r5, [r4, r0]
    1e6c:	07940000 	ldreq	r0, [r4, r0]
    1e70:	00010000 	andeq	r0, r1, r0
    1e74:	0007945b 	andeq	r9, r7, fp, asr r4
    1e78:	00079800 	andeq	r9, r7, r0, lsl #16
    1e7c:	50000100 	andpl	r0, r0, r0, lsl #2
    1e80:	00000798 	muleq	r0, r8, r7
    1e84:	00000798 	muleq	r0, r8, r7
    1e88:	01700003 	cmneq	r0, r3
    1e8c:	0008949f 	muleq	r8, pc, r4	; <UNPREDICTABLE>
    1e90:	0008a000 	andeq	sl, r8, r0
    1e94:	50000100 	andpl	r0, r0, r0, lsl #2
	...
    1ea0:	00010001 	andeq	r0, r1, r1
    1ea4:	000007b0 			; <UNDEFINED> instruction: 0x000007b0
    1ea8:	000007ec 	andeq	r0, r0, ip, ror #15
    1eac:	a0510001 	subsge	r0, r1, r1
    1eb0:	a8000008 	stmdage	r0, {r3}
    1eb4:	01000008 	tsteq	r0, r8
    1eb8:	00005100 	andeq	r5, r0, r0, lsl #2
    1ebc:	00000000 	andeq	r0, r0, r0
    1ec0:	00010000 	andeq	r0, r1, r0
    1ec4:	01000000 	mrseq	r0, (UNDEF: 0)
    1ec8:	00010001 	andeq	r0, r1, r1
    1ecc:	000007b0 			; <UNDEFINED> instruction: 0x000007b0
    1ed0:	000007b4 			; <UNDEFINED> instruction: 0x000007b4
    1ed4:	00730006 	rsbseq	r0, r3, r6
    1ed8:	9f22007c 	svcls	0x0022007c
    1edc:	000007d4 	ldrdeq	r0, [r0], -r4
    1ee0:	000007d8 	ldrdeq	r0, [r0], -r8
    1ee4:	7f730003 	svcvc	0x00730003
    1ee8:	0007d89f 	muleq	r7, pc, r8	; <UNPREDICTABLE>
    1eec:	0007e000 	andeq	lr, r7, r0
    1ef0:	53000100 	movwpl	r0, #256	; 0x100
    1ef4:	000007e0 	andeq	r0, r0, r0, ror #15
    1ef8:	000007e8 	andeq	r0, r0, r8, ror #15
    1efc:	7f730003 	svcvc	0x00730003
    1f00:	0008a09f 	muleq	r8, pc, r0	; <UNPREDICTABLE>
    1f04:	0008a800 	andeq	sl, r8, r0, lsl #16
    1f08:	53000100 	movwpl	r0, #256	; 0x100
	...
    1f14:	00010001 	andeq	r0, r1, r1
    1f18:	000007b0 			; <UNDEFINED> instruction: 0x000007b0
    1f1c:	000007ec 	andeq	r0, r0, ip, ror #15
    1f20:	80080003 	andhi	r0, r8, r3
    1f24:	0008a09f 	muleq	r8, pc, r0	; <UNPREDICTABLE>
    1f28:	0008a800 	andeq	sl, r8, r0, lsl #16
    1f2c:	08000300 	stmdaeq	r0, {r8, r9}
    1f30:	00009f80 	andeq	r9, r0, r0, lsl #31
    1f34:	00000000 	andeq	r0, r0, r0
    1f38:	00010000 	andeq	r0, r1, r0
    1f3c:	01000000 	mrseq	r0, (UNDEF: 0)
    1f40:	00000001 	andeq	r0, r0, r1
    1f44:	07b00001 	ldreq	r0, [r0, r1]!
    1f48:	07d00000 	ldrbeq	r0, [r0, r0]
    1f4c:	00040000 	andeq	r0, r4, r0
    1f50:	9f7dd091 	svcls	0x007dd091
    1f54:	000007d0 	ldrdeq	r0, [r0], -r0	; <UNPREDICTABLE>
    1f58:	000007d4 	ldrdeq	r0, [r0], -r4
    1f5c:	d4550001 	ldrble	r0, [r5], #-1
    1f60:	d4000007 	strle	r0, [r0], #-7
    1f64:	03000007 	movweq	r0, #7
    1f68:	9f017c00 	svcls	0x00017c00
    1f6c:	000007d4 	ldrdeq	r0, [r0], -r4
    1f70:	000007e0 	andeq	r0, r0, r0, ror #15
    1f74:	027c0003 	rsbseq	r0, ip, #3, 0
    1f78:	0007e09f 	muleq	r7, pc, r0	; <UNPREDICTABLE>
    1f7c:	0007ec00 	andeq	lr, r7, r0, lsl #24
    1f80:	7c000300 	stcvc	3, cr0, [r0], {-0}
    1f84:	08a09f01 	stmiaeq	r0!, {r0, r8, r9, sl, fp, ip, pc}
    1f88:	08a80000 	stmiaeq	r8!, {}	; <UNPREDICTABLE>
    1f8c:	00040000 	andeq	r0, r4, r0
    1f90:	9f7dd091 	svcls	0x007dd091
	...
    1f9c:	00040004 	andeq	r0, r4, r4
    1fa0:	000007b0 			; <UNDEFINED> instruction: 0x000007b0
    1fa4:	000007b4 			; <UNDEFINED> instruction: 0x000007b4
    1fa8:	01700003 	cmneq	r0, r3
    1fac:	0008a09f 	muleq	r8, pc, r0	; <UNPREDICTABLE>
    1fb0:	0008a800 	andeq	sl, r8, r0, lsl #16
    1fb4:	70000300 	andvc	r0, r0, r0, lsl #6
    1fb8:	00009f01 	andeq	r9, r0, r1, lsl #30
    1fbc:	00000000 	andeq	r0, r0, r0
    1fc0:	00010000 	andeq	r0, r1, r0
    1fc4:	07bc0000 	ldreq	r0, [ip, r0]!
    1fc8:	07d00000 	ldrbeq	r0, [r0, r0]
    1fcc:	00040000 	andeq	r0, r4, r0
    1fd0:	9f7dd091 	svcls	0x007dd091
    1fd4:	000007d0 	ldrdeq	r0, [r0], -r0	; <UNPREDICTABLE>
    1fd8:	000007ec 	andeq	r0, r0, ip, ror #15
    1fdc:	00550001 	subseq	r0, r5, r1
	...
    1fe8:	28000000 	stmdacs	r0, {}	; <UNPREDICTABLE>
    1fec:	64000003 	strvs	r0, [r0], #-3
    1ff0:	01000003 	tsteq	r0, r3
    1ff4:	03645000 	cmneq	r4, #0, 0
    1ff8:	03880000 	orreq	r0, r8, #0, 0
    1ffc:	00040000 	andeq	r0, r4, r0
    2000:	9f5001f3 	svcls	0x005001f3
	...
    2010:	00000328 	andeq	r0, r0, r8, lsr #6
    2014:	0000035c 	andeq	r0, r0, ip, asr r3
    2018:	5c510001 	mrrcpl	0, 0, r0, r1, cr1
    201c:	88000003 	stmdahi	r0, {r0, r1}
    2020:	04000003 	streq	r0, [r0], #-3
    2024:	5101f300 	mrspl	pc, SP_irq	; <UNPREDICTABLE>
    2028:	0000009f 	muleq	r0, pc, r0	; <UNPREDICTABLE>
	...
    204c:	00001400 	andeq	r1, r0, r0, lsl #8
    2050:	50000100 	andpl	r0, r0, r0, lsl #2
    2054:	00000014 	andeq	r0, r0, r4, lsl r0
    2058:	00000020 	andeq	r0, r0, r0, lsr #32
    205c:	205c0001 	subscs	r0, ip, r1
    2060:	68000000 	stmdavs	r0, {}	; <UNPREDICTABLE>
    2064:	03000000 	movweq	r0, #0
    2068:	9f027100 	svcls	0x00027100
    206c:	00000068 	andeq	r0, r0, r8, rrx
    2070:	0000006c 	andeq	r0, r0, ip, rrx
    2074:	02730003 	rsbseq	r0, r3, #3, 0
    2078:	00006c9f 	muleq	r0, pc, ip	; <UNPREDICTABLE>
    207c:	00019400 	andeq	r9, r1, r0, lsl #8
    2080:	f3000400 	vshl.u8	d0, d0, d0
    2084:	949f5001 	ldrls	r5, [pc], #1	; 208c <__code_start__-0x5f74>
    2088:	98000001 	stmdals	r0, {r0}
    208c:	03000001 	movweq	r0, #1
    2090:	9f027300 	svcls	0x00027300
    2094:	00000198 	muleq	r0, r8, r1
    2098:	000001c0 	andeq	r0, r0, r0, asr #3
    209c:	01f30004 	mvnseq	r0, r4
    20a0:	01c09f50 	biceq	r9, r0, r0, asr pc
    20a4:	01c80000 	biceq	r0, r8, r0
    20a8:	00010000 	andeq	r0, r1, r0
    20ac:	0001c85c 	andeq	ip, r1, ip, asr r8
    20b0:	00021400 	andeq	r1, r2, r0, lsl #8
    20b4:	73000300 	movwvc	r0, #768	; 0x300
    20b8:	02149f02 	andseq	r9, r4, #2, 30
    20bc:	02ec0000 	rsceq	r0, ip, #0, 0
    20c0:	00040000 	andeq	r0, r4, r0
    20c4:	9f5001f3 	svcls	0x005001f3
    20c8:	000002ec 	andeq	r0, r0, ip, ror #5
    20cc:	000002f4 	strdeq	r0, [r0], -r4
    20d0:	02730003 	rsbseq	r0, r3, #3, 0
    20d4:	0002f49f 	muleq	r2, pc, r4	; <UNPREDICTABLE>
    20d8:	00032800 	andeq	r2, r3, r0, lsl #16
    20dc:	f3000400 	vshl.u8	d0, d0, d0
    20e0:	009f5001 	addseq	r5, pc, r1
	...
    20f4:	1c000000 	stcne	0, cr0, [r0], {-0}
    20f8:	01000000 	mrseq	r0, (UNDEF: 0)
    20fc:	001c5100 	andseq	r5, ip, r0, lsl #2
    2100:	02e00000 	rsceq	r0, r0, #0, 0
    2104:	00010000 	andeq	r0, r1, r0
    2108:	0002e050 	andeq	lr, r2, r0, asr r0
    210c:	0002ec00 	andeq	lr, r2, r0, lsl #24
    2110:	f3000400 	vshl.u8	d0, d0, d0
    2114:	ec9f5101 	ldfs	f5, [pc], {1}
    2118:	28000002 	stmdacs	r0, {r1}
    211c:	01000003 	tsteq	r0, r3
    2120:	00005000 	andeq	r5, r0, r0
	...
    212c:	01000000 	mrseq	r0, (UNDEF: 0)
    2130:	00000000 	andeq	r0, r0, r0
    2134:	02000000 	andeq	r0, r0, #0, 0
    2138:	00000002 	andeq	r0, r0, r2
	...
    214c:	00700000 	rsbseq	r0, r0, r0
    2150:	00010000 	andeq	r0, r1, r0
    2154:	00007052 	andeq	r7, r0, r2, asr r0
    2158:	00007800 	andeq	r7, r0, r0, lsl #16
    215c:	5c000100 	stfpls	f0, [r0], {-0}
    2160:	00000078 	andeq	r0, r0, r8, ror r0
    2164:	000000a4 	andeq	r0, r0, r4, lsr #1
    2168:	01f30004 	mvnseq	r0, r4
    216c:	01949f52 	orrseq	r9, r4, r2, asr pc
    2170:	019c0000 	orrseq	r0, ip, r0
    2174:	00010000 	andeq	r0, r1, r0
    2178:	00019c52 	andeq	r9, r1, r2, asr ip
    217c:	0001a400 	andeq	sl, r1, r0, lsl #8
    2180:	5c000100 	stfpls	f0, [r0], {-0}
    2184:	000001a4 	andeq	r0, r0, r4, lsr #3
    2188:	000001c0 	andeq	r0, r0, r0, asr #3
    218c:	01f30004 	mvnseq	r0, r4
    2190:	01c09f52 	biceq	r9, r0, r2, asr pc
    2194:	02200000 	eoreq	r0, r0, #0, 0
    2198:	00010000 	andeq	r0, r1, r0
    219c:	00022052 	andeq	r2, r2, r2, asr r0
    21a0:	00022800 	andeq	r2, r2, r0, lsl #16
    21a4:	72000400 	andvc	r0, r0, #0, 8
    21a8:	289f1f00 	ldmcs	pc, {r8, r9, sl, fp, ip}	; <UNPREDICTABLE>
    21ac:	74000002 	strvc	r0, [r0], #-2
    21b0:	05000002 	streq	r0, [r0, #-2]
    21b4:	5201f300 	andpl	pc, r1, #0, 6
    21b8:	02749f1f 	rsbseq	r9, r4, #124	; 0x7c
    21bc:	02880000 	addeq	r0, r8, #0, 0
    21c0:	00010000 	andeq	r0, r1, r0
    21c4:	00028852 	andeq	r8, r2, r2, asr r8
    21c8:	0002a000 	andeq	sl, r2, r0
    21cc:	5c000100 	stfpls	f0, [r0], {-0}
    21d0:	000002cc 	andeq	r0, r0, ip, asr #5
    21d4:	000002d0 	ldrdeq	r0, [r0], -r0	; <UNPREDICTABLE>
    21d8:	d0520001 	subsle	r0, r2, r1
    21dc:	e7000002 	str	r0, [r0, -r2]
    21e0:	01000002 	tsteq	r0, r2
    21e4:	02e75c00 	rsceq	r5, r7, #0, 24
    21e8:	02ec0000 	rsceq	r0, ip, #0, 0
    21ec:	00040000 	andeq	r0, r4, r0
    21f0:	9f5201f3 	svcls	0x005201f3
    21f4:	000002ec 	andeq	r0, r0, ip, ror #5
    21f8:	00000300 	andeq	r0, r0, r0, lsl #6
    21fc:	00520001 	subseq	r0, r2, r1
    2200:	28000003 	stmdacs	r0, {r0, r1}
    2204:	01000003 	tsteq	r0, r3
    2208:	00005c00 	andeq	r5, r0, r0, lsl #24
	...
    2224:	00000068 	andeq	r0, r0, r8, rrx
    2228:	68530001 	ldmdavs	r3, {r0}^
    222c:	6c000000 	stcvs	0, cr0, [r0], {-0}
    2230:	03000000 	movweq	r0, #0
    2234:	9f7f0800 	svcls	0x007f0800
    2238:	00000194 	muleq	r0, r4, r1
    223c:	00000198 	muleq	r0, r8, r1
    2240:	7f080003 	svcvc	0x00080003
    2244:	0001c09f 	muleq	r1, pc, r0	; <UNPREDICTABLE>
    2248:	00021400 	andeq	r1, r2, r0, lsl #8
    224c:	08000300 	stmdaeq	r0, {r8, r9}
    2250:	02749f7f 	rsbseq	r9, r4, #508	; 0x1fc
    2254:	02900000 	addseq	r0, r0, #0, 0
    2258:	00010000 	andeq	r0, r1, r0
    225c:	00029053 	andeq	r9, r2, r3, asr r0
    2260:	0002a000 	andeq	sl, r2, r0
    2264:	f3000400 	vshl.u8	d0, d0, d0
    2268:	ec9f5301 	ldc	3, cr5, [pc], {1}
    226c:	28000002 	stmdacs	r0, {r1}
    2270:	03000003 	movweq	r0, #3
    2274:	9f7f0800 	svcls	0x007f0800
	...
    2280:	00000001 	andeq	r0, r0, r1
    2284:	00020200 	andeq	r0, r2, r0, lsl #4
    2288:	00010100 	andeq	r0, r1, r0, lsl #2
    228c:	00000000 	andeq	r0, r0, r0
    2290:	02000000 	andeq	r0, r0, #0, 0
    2294:	00000002 	andeq	r0, r0, r2
    2298:	00000001 	andeq	r0, r0, r1
    229c:	00000000 	andeq	r0, r0, r0
    22a0:	00010100 	andeq	r0, r1, r0, lsl #2
    22a4:	02000000 	andeq	r0, r0, #0, 0
    22a8:	00000002 	andeq	r0, r0, r2
    22ac:	01000000 	mrseq	r0, (UNDEF: 0)
    22b0:	00000001 	andeq	r0, r0, r1
    22b4:	00000018 	andeq	r0, r0, r8, lsl r0
    22b8:	00000070 	andeq	r0, r0, r0, ror r0
    22bc:	a0910004 	addsge	r0, r1, r4
    22c0:	00709f7f 	rsbseq	r9, r0, pc, ror pc
    22c4:	00780000 	rsbseq	r0, r8, r0
    22c8:	00010000 	andeq	r0, r1, r0
    22cc:	00007852 	andeq	r7, r0, r2, asr r8
    22d0:	00007800 	andeq	r7, r0, r0, lsl #16
    22d4:	54000100 	strpl	r0, [r0], #-256	; 0xffffff00
    22d8:	00000078 	andeq	r0, r0, r8, ror r0
    22dc:	00000088 	andeq	r0, r0, r8, lsl #1
    22e0:	01740003 	cmneq	r4, r3
    22e4:	0000889f 	muleq	r0, pc, r8	; <UNPREDICTABLE>
    22e8:	00009000 	andeq	r9, r0, r0
    22ec:	54000100 	strpl	r0, [r0], #-256	; 0xffffff00
    22f0:	00000090 	muleq	r0, r0, r0
    22f4:	000000a0 	andeq	r0, r0, r0, lsr #1
    22f8:	02740003 	rsbseq	r0, r4, #3, 0
    22fc:	0000a09f 	muleq	r0, pc, r0	; <UNPREDICTABLE>
    2300:	0000b000 	andeq	fp, r0, r0
    2304:	5e000100 	adfpls	f0, f0, f0
    2308:	00000194 	muleq	r0, r4, r1
    230c:	0000019c 	muleq	r0, ip, r1
    2310:	a0910004 	addsge	r0, r1, r4
    2314:	019c9f7f 	orrseq	r9, ip, pc, ror pc
    2318:	01a40000 			; <UNDEFINED> instruction: 0x01a40000
    231c:	00010000 	andeq	r0, r1, r0
    2320:	0001a452 	andeq	sl, r1, r2, asr r4
    2324:	0001a400 	andeq	sl, r1, r0, lsl #8
    2328:	5e000100 	adfpls	f0, f0, f0
    232c:	000001a4 	andeq	r0, r0, r4, lsr #3
    2330:	000001b4 			; <UNDEFINED> instruction: 0x000001b4
    2334:	017e0003 	cmneq	lr, r3
    2338:	0001b49f 	muleq	r1, pc, r4	; <UNPREDICTABLE>
    233c:	0001c000 	andeq	ip, r1, r0
    2340:	5e000100 	adfpls	f0, f0, f0
    2344:	000001c0 	andeq	r0, r0, r0, asr #3
    2348:	00000228 	andeq	r0, r0, r8, lsr #4
    234c:	a0910004 	addsge	r0, r1, r4
    2350:	02289f7f 	eoreq	r9, r8, #508	; 0x1fc
    2354:	02340000 	eorseq	r0, r4, #0, 0
    2358:	00010000 	andeq	r0, r1, r0
    235c:	00023452 	andeq	r3, r2, r2, asr r4
    2360:	00025800 	andeq	r5, r2, r0, lsl #16
    2364:	5e000100 	adfpls	f0, f0, f0
    2368:	00000258 	andeq	r0, r0, r8, asr r2
    236c:	0000025c 	andeq	r0, r0, ip, asr r2
    2370:	017e0003 	cmneq	lr, r3
    2374:	00025c9f 	muleq	r2, pc, ip	; <UNPREDICTABLE>
    2378:	00026400 	andeq	r6, r2, r0, lsl #8
    237c:	5e000100 	adfpls	f0, f0, f0
    2380:	00000264 	andeq	r0, r0, r4, ror #4
    2384:	00000270 	andeq	r0, r0, r0, ror r2
    2388:	02710003 	rsbseq	r0, r1, #3, 0
    238c:	0002709f 	muleq	r2, pc, r0	; <UNPREDICTABLE>
    2390:	00027400 	andeq	r7, r2, r0, lsl #8
    2394:	5e000100 	adfpls	f0, f0, f0
    2398:	00000274 	andeq	r0, r0, r4, ror r2
    239c:	00000274 	andeq	r0, r0, r4, ror r2
    23a0:	a0910004 	addsge	r0, r1, r4
    23a4:	02749f7f 	rsbseq	r9, r4, #508	; 0x1fc
    23a8:	02a00000 	adceq	r0, r0, #0, 0
    23ac:	00040000 	andeq	r0, r4, r0
    23b0:	9f7fa191 	svcls	0x007fa191
    23b4:	000002c0 	andeq	r0, r0, r0, asr #5
    23b8:	000002c8 	andeq	r0, r0, r8, asr #5
    23bc:	c85e0001 	ldmdagt	lr, {r0}^
    23c0:	cc000002 	stcgt	0, cr0, [r0], {2}
    23c4:	01000002 	tsteq	r0, r2
    23c8:	02cc5600 	sbceq	r5, ip, #0, 12
    23cc:	02ec0000 	rsceq	r0, ip, #0, 0
    23d0:	00040000 	andeq	r0, r4, r0
    23d4:	9f7fa091 	svcls	0x007fa091
    23d8:	000002ec 	andeq	r0, r0, ip, ror #5
    23dc:	000002fc 	strdeq	r0, [r0], -ip
    23e0:	a1910004 	orrsge	r0, r1, r4
    23e4:	02fc9f7f 	rscseq	r9, ip, #508	; 0x1fc
    23e8:	03280000 			; <UNDEFINED> instruction: 0x03280000
    23ec:	00010000 	andeq	r0, r1, r0
    23f0:	0000005e 	andeq	r0, r0, lr, asr r0
	...
    2408:	00000101 	andeq	r0, r0, r1, lsl #2
	...
    2418:	20000000 	andcs	r0, r0, r0
    241c:	70000000 	andvc	r0, r0, r0
    2420:	01000000 	mrseq	r0, (UNDEF: 0)
    2424:	00705200 	rsbseq	r5, r0, r0, lsl #4
    2428:	00940000 	addseq	r0, r4, r0
    242c:	00010000 	andeq	r0, r1, r0
    2430:	0001945c 	andeq	r9, r1, ip, asr r4
    2434:	00019c00 	andeq	r9, r1, r0, lsl #24
    2438:	52000100 	andpl	r0, r0, #0
    243c:	0000019c 	muleq	r0, ip, r1
    2440:	000001c0 	andeq	r0, r0, r0, asr #3
    2444:	c85c0001 	ldmdagt	ip, {r0}^
    2448:	10000001 	andne	r0, r0, r1
    244c:	01000002 	tsteq	r0, r2
    2450:	02105c00 	andseq	r5, r0, #0, 24
    2454:	02240000 	eoreq	r0, r4, #0, 0
    2458:	00010000 	andeq	r0, r1, r0
    245c:	00022452 	andeq	r2, r2, r2, asr r4
    2460:	00024800 	andeq	r4, r2, r0, lsl #16
    2464:	5c000100 	stfpls	f0, [r0], {-0}
    2468:	00000248 	andeq	r0, r0, r8, asr #4
    246c:	0000025c 	andeq	r0, r0, ip, asr r2
    2470:	5c550001 	mrrcpl	0, 0, r0, r5, cr1
    2474:	68000002 	stmdavs	r0, {r1}
    2478:	01000002 	tsteq	r0, r2
    247c:	02685c00 	rsbeq	r5, r8, #0, 24
    2480:	02740000 	rsbseq	r0, r4, #0, 0
    2484:	00190000 	andseq	r0, r9, r0
    2488:	2cf70075 	ldclcs	0, cr0, [r7], #468	; 0x1d4
    248c:	007625f7 	ldrshteq	r2, [r6], #-87	; 0xffffffa9
    2490:	25f72cf7 	ldrbcs	r2, [r7, #3319]!	; 0xcf7
    2494:	f720081e 			; <UNDEFINED> instruction: 0xf720081e
    2498:	2cf72525 	cfldr64cs	mvdx2, [r7], #148	; 0x94
    249c:	253300f7 	ldrcs	r0, [r3, #-247]!	; 0xffffff09
    24a0:	0002749f 	muleq	r2, pc, r4	; <UNPREDICTABLE>
    24a4:	00028800 	andeq	r8, r2, r0, lsl #16
    24a8:	52000100 	andpl	r0, r0, #0
    24ac:	00000288 	andeq	r0, r0, r8, lsl #5
    24b0:	000002a0 	andeq	r0, r0, r0, lsr #5
    24b4:	cc5c0001 	mrrcgt	0, 0, r0, ip, cr1
    24b8:	d0000002 	andle	r0, r0, r2
    24bc:	01000002 	tsteq	r0, r2
    24c0:	02d05200 	sbcseq	r5, r0, #0, 4
    24c4:	02e70000 	rsceq	r0, r7, #0, 0
    24c8:	00010000 	andeq	r0, r1, r0
    24cc:	0002e75c 	andeq	lr, r2, ip, asr r7
    24d0:	0002ec00 	andeq	lr, r2, r0, lsl #24
    24d4:	f3000400 	vshl.u8	d0, d0, d0
    24d8:	ec9f5201 	lfm	f5, 4, [pc], {1}
    24dc:	00000002 	andeq	r0, r0, r2
    24e0:	01000003 	tsteq	r0, r3
    24e4:	03005200 	movweq	r5, #512	; 0x200
    24e8:	03280000 			; <UNDEFINED> instruction: 0x03280000
    24ec:	00010000 	andeq	r0, r1, r0
    24f0:	0000005c 	andeq	r0, r0, ip, asr r0
    24f4:	00000000 	andeq	r0, r0, r0
    24f8:	04000400 	streq	r0, [r0], #-1024	; 0xfffffc00
    24fc:	00010000 	andeq	r0, r1, r0
    2500:	a4000400 	strge	r0, [r0], #-1024	; 0xfffffc00
    2504:	b0000000 	andlt	r0, r0, r0
    2508:	01000000 	mrseq	r0, (UNDEF: 0)
    250c:	027c5300 	rsbseq	r5, ip, #0, 6
    2510:	02900000 	addseq	r0, r0, #0, 0
    2514:	00010000 	andeq	r0, r1, r0
    2518:	00029053 	andeq	r9, r2, r3, asr r0
    251c:	00029c00 	andeq	r9, r2, r0, lsl #24
    2520:	f3000400 	vshl.u8	d0, d0, d0
    2524:	c09f5301 	addsgt	r5, pc, r1, lsl #6
    2528:	cc000002 	stcgt	0, cr0, [r0], {2}
    252c:	01000002 	tsteq	r0, r2
    2530:	02f05300 	rscseq	r5, r0, #0, 6
    2534:	03280000 			; <UNDEFINED> instruction: 0x03280000
    2538:	00030000 	andeq	r0, r3, r0
    253c:	009f7f08 	addseq	r7, pc, r8, lsl #30
    2540:	00000000 	andeq	r0, r0, r0
    2544:	04000000 	streq	r0, [r0], #-0
    2548:	04010000 	streq	r0, [r1], #-0
    254c:	00010000 	andeq	r0, r1, r0
    2550:	04000000 	streq	r0, [r0], #-0
    2554:	a4000000 	strge	r0, [r0], #-0
    2558:	b0000000 	andlt	r0, r0, r0
    255c:	01000000 	mrseq	r0, (UNDEF: 0)
    2560:	00b05200 	adcseq	r5, r0, r0, lsl #4
    2564:	015c0000 	cmpeq	ip, r0
    2568:	00040000 	andeq	r0, r4, r0
    256c:	9f7fa091 	svcls	0x007fa091
    2570:	0000027c 	andeq	r0, r0, ip, ror r2
    2574:	00000294 	muleq	r0, r4, r2
    2578:	a0910004 	addsge	r0, r1, r4
    257c:	02949f7f 	addseq	r9, r4, #508	; 0x1fc
    2580:	029c0000 	addseq	r0, ip, #0, 0
    2584:	00010000 	andeq	r0, r1, r0
    2588:	0002b45e 	andeq	fp, r2, lr, asr r4
    258c:	0002c000 	andeq	ip, r2, r0
    2590:	91000400 	tstls	r0, r0, lsl #8
    2594:	c09f7fa0 	addsgt	r7, pc, r0, lsr #31
    2598:	cc000002 	stcgt	0, cr0, [r0], {2}
    259c:	01000002 	tsteq	r0, r2
    25a0:	02f05200 	rscseq	r5, r0, #0, 4
    25a4:	03000000 	movweq	r0, #0
    25a8:	00040000 	andeq	r0, r4, r0
    25ac:	9f7fa091 	svcls	0x007fa091
    25b0:	00000300 	andeq	r0, r0, r0, lsl #6
    25b4:	00000328 	andeq	r0, r0, r8, lsr #6
    25b8:	00520001 	subseq	r0, r2, r1
    25bc:	00000000 	andeq	r0, r0, r0
    25c0:	04000000 	streq	r0, [r0], #-0
    25c4:	01010000 	mrseq	r0, (UNDEF: 1)
    25c8:	03030101 	movweq	r0, #12545	; 0x3101
    25cc:	00010402 	andeq	r0, r1, r2, lsl #8
    25d0:	04000000 	streq	r0, [r0], #-0
    25d4:	a4000000 	strge	r0, [r0], #-0
    25d8:	b0000000 	andlt	r0, r0, r0
    25dc:	01000000 	mrseq	r0, (UNDEF: 0)
    25e0:	010c5e00 	tsteq	ip, r0, lsl #28
    25e4:	010c0000 	mrseq	r0, (UNDEF: 12)
    25e8:	00010000 	andeq	r0, r1, r0
    25ec:	00010c55 	andeq	r0, r1, r5, asr ip
    25f0:	00012000 	andeq	r2, r1, r0
    25f4:	75000300 	strvc	r0, [r0, #-768]	; 0xfffffd00
    25f8:	01209f01 			; <UNDEFINED> instruction: 0x01209f01
    25fc:	012c0000 			; <UNDEFINED> instruction: 0x012c0000
    2600:	00030000 	andeq	r0, r3, r0
    2604:	2c9f0275 	lfmcs	f0, 4, [pc], {117}	; 0x75
    2608:	30000001 	andcc	r0, r0, r1
    260c:	03000001 	movweq	r0, #1
    2610:	9f037500 	svcls	0x00037500
    2614:	0000027c 	andeq	r0, r0, ip, ror r2
    2618:	0000029c 	muleq	r0, ip, r2
    261c:	a1910004 	orrsge	r0, r1, r4
    2620:	02c09f7f 	sbceq	r9, r0, #508	; 0x1fc
    2624:	02c80000 	sbceq	r0, r8, #0, 0
    2628:	00010000 	andeq	r0, r1, r0
    262c:	0002c85e 	andeq	ip, r2, lr, asr r8
    2630:	0002cc00 	andeq	ip, r2, r0, lsl #24
    2634:	56000100 	strpl	r0, [r0], -r0, lsl #2
    2638:	000002f0 	strdeq	r0, [r0], -r0	; <UNPREDICTABLE>
    263c:	000002fc 	strdeq	r0, [r0], -ip
    2640:	a1910004 	orrsge	r0, r1, r4
    2644:	02fc9f7f 	rscseq	r9, ip, #508	; 0x1fc
    2648:	03280000 			; <UNDEFINED> instruction: 0x03280000
    264c:	00010000 	andeq	r0, r1, r0
    2650:	0000005e 	andeq	r0, r0, lr, asr r0
	...
    265c:	01010101 	tsteq	r1, r1, lsl #2
    2660:	06020101 	streq	r0, [r2], -r1, lsl #2
    2664:	06000001 	streq	r0, [r0], -r1
    2668:	0000a800 	andeq	sl, r0, r0, lsl #16
    266c:	0000b000 	andeq	fp, r0, r0
    2670:	51000100 	mrspl	r0, (UNDEF: 16)
    2674:	0000010c 	andeq	r0, r0, ip, lsl #2
    2678:	0000011c 	andeq	r0, r0, ip, lsl r1
    267c:	1c5c0001 	mrrcne	0, 0, r0, ip, cr1
    2680:	2c000001 	stccs	0, cr0, [r0], {1}
    2684:	01000001 	tsteq	r0, r1
    2688:	012c5800 			; <UNDEFINED> instruction: 0x012c5800
    268c:	01300000 	teqeq	r0, r0
    2690:	00010000 	andeq	r0, r1, r0
    2694:	0001305c 	andeq	r3, r1, ip, asr r0
    2698:	00013000 	andeq	r3, r1, r0
    269c:	7c000300 	stcvc	3, cr0, [r0], {-0}
    26a0:	027c9f01 	rsbseq	r9, ip, #1, 30
    26a4:	029c0000 	addseq	r0, ip, #0, 0
    26a8:	00020000 	andeq	r0, r2, r0
    26ac:	02c09f31 	sbceq	r9, r0, #196	; 0xc4
    26b0:	02cc0000 	sbceq	r0, ip, #0, 0
    26b4:	00010000 	andeq	r0, r1, r0
    26b8:	0002f051 	andeq	pc, r2, r1, asr r0	; <UNPREDICTABLE>
    26bc:	00032800 	andeq	r2, r3, r0, lsl #16
    26c0:	31000200 	mrscc	r0, R8_usr
    26c4:	0000009f 	muleq	r0, pc, r0	; <UNPREDICTABLE>
    26c8:	00000000 	andeq	r0, r0, r0
    26cc:	06060100 	streq	r0, [r6], -r0, lsl #2
    26d0:	00000101 	andeq	r0, r0, r1, lsl #2
    26d4:	00015c01 	andeq	r5, r1, r1, lsl #24
    26d8:	00015c00 	andeq	r5, r1, r0, lsl #24
    26dc:	91000400 	tstls	r0, r0, lsl #8
    26e0:	5c9f7fa0 	ldcpl	15, cr7, [pc], {160}	; 0xa0
    26e4:	8c000001 	stchi	0, cr0, [r0], {1}
    26e8:	01000001 	tsteq	r0, r1
    26ec:	029c5200 	addseq	r5, ip, #0, 4
    26f0:	02a00000 	adceq	r0, r0, #0, 0
    26f4:	00010000 	andeq	r0, r1, r0
    26f8:	0002a05e 	andeq	sl, r2, lr, asr r0
    26fc:	0002ac00 	andeq	sl, r2, r0, lsl #24
    2700:	52000100 	andpl	r0, r0, #0
	...
    270c:	01000000 	mrseq	r0, (UNDEF: 0)
    2710:	07010001 	streq	r0, [r1, -r1]
    2714:	0000016c 	andeq	r0, r0, ip, ror #2
    2718:	00000170 	andeq	r0, r0, r0, ror r1
    271c:	7f730003 	svcvc	0x00730003
    2720:	0001709f 	muleq	r1, pc, r0	; <UNPREDICTABLE>
    2724:	00017800 	andeq	r7, r1, r0, lsl #16
    2728:	53000100 	movwpl	r0, #256	; 0x100
    272c:	00000178 	andeq	r0, r0, r8, ror r1
    2730:	00000184 	andeq	r0, r0, r4, lsl #3
    2734:	7f730003 	svcvc	0x00730003
    2738:	00029c9f 	muleq	r2, pc, ip	; <UNPREDICTABLE>
    273c:	00029c00 	andeq	r9, r2, r0, lsl #24
    2740:	91000400 	tstls	r0, r0, lsl #8
    2744:	009f7fa1 	addseq	r7, pc, r1, lsr #31
    2748:	00000000 	andeq	r0, r0, r0
    274c:	01000000 	mrseq	r0, (UNDEF: 0)
    2750:	5c010101 	stfpls	f0, [r1], {1}
    2754:	8c000001 	stchi	0, cr0, [r0], {1}
    2758:	03000001 	movweq	r0, #1
    275c:	9f800800 	svcls	0x00800800
    2760:	0000029c 	muleq	r0, ip, r2
    2764:	000002ac 	andeq	r0, r0, ip, lsr #5
    2768:	80080003 	andhi	r0, r8, r3
    276c:	0000009f 	muleq	r0, pc, r0	; <UNPREDICTABLE>
    2770:	00000000 	andeq	r0, r0, r0
    2774:	00000100 	andeq	r0, r0, r0, lsl #2
    2778:	00000101 	andeq	r0, r0, r1, lsl #2
    277c:	01010101 	tsteq	r1, r1, lsl #2
    2780:	5c010101 	stfpls	f0, [r1], {1}
    2784:	6c000001 	stcvs	0, cr0, [r0], {1}
    2788:	01000001 	tsteq	r0, r1
    278c:	016c5000 	cmneq	ip, r0
    2790:	016c0000 	cmneq	ip, r0
    2794:	00030000 	andeq	r0, r3, r0
    2798:	6c9f017c 	ldfvss	f0, [pc], {124}	; 0x7c
    279c:	78000001 	stmdavc	r0, {r0}
    27a0:	03000001 	movweq	r0, #1
    27a4:	9f027c00 	svcls	0x00027c00
    27a8:	00000178 	andeq	r0, r0, r8, ror r1
    27ac:	00000188 	andeq	r0, r0, r8, lsl #3
    27b0:	017c0003 	cmneq	ip, r3
    27b4:	0001889f 	muleq	r1, pc, r8	; <UNPREDICTABLE>
    27b8:	00018c00 	andeq	r8, r1, r0, lsl #24
    27bc:	7e000300 	cdpvc	3, 0, cr0, cr0, cr0, {0}
    27c0:	029c9f01 	addseq	r9, ip, #1, 30
    27c4:	02a40000 	adceq	r0, r4, #0, 0
    27c8:	00010000 	andeq	r0, r1, r0
    27cc:	0002a450 	andeq	sl, r2, r0, asr r4
    27d0:	0002ac00 	andeq	sl, r2, r0, lsl #24
    27d4:	7e000300 	cdpvc	3, 0, cr0, cr0, cr0, {0}
    27d8:	00009f01 	andeq	r9, r0, r1, lsl #30
    27dc:	00000000 	andeq	r0, r0, r0
    27e0:	00040000 	andeq	r0, r4, r0
    27e4:	01000004 	tsteq	r0, r4
    27e8:	0000015c 	andeq	r0, r0, ip, asr r1
    27ec:	00000160 	andeq	r0, r0, r0, ror #2
    27f0:	01710003 	cmneq	r1, r3
    27f4:	00029c9f 	muleq	r2, pc, ip	; <UNPREDICTABLE>
    27f8:	0002a000 	andeq	sl, r2, r0
    27fc:	32000200 	andcc	r0, r0, #0, 4
    2800:	0002a09f 	muleq	r2, pc, r0	; <UNPREDICTABLE>
    2804:	0002ac00 	andeq	sl, r2, r0, lsl #24
    2808:	71000300 	mrsvc	r0, LR_irq
    280c:	00009f01 	andeq	r9, r0, r1, lsl #30
    2810:	00000000 	andeq	r0, r0, r0
    2814:	00070000 	andeq	r0, r7, r0
    2818:	015c0006 	cmpeq	ip, r6
    281c:	01940000 	orrseq	r0, r4, r0
    2820:	00010000 	andeq	r0, r1, r0
    2824:	00029c50 	andeq	r9, r2, r0, asr ip
    2828:	0002b400 	andeq	fp, r2, r0, lsl #8
    282c:	50000100 	andpl	r0, r0, r0, lsl #2
	...
    2838:	00010101 	andeq	r0, r1, r1, lsl #2
    283c:	00000214 	andeq	r0, r0, r4, lsl r2
    2840:	00000220 	andeq	r0, r0, r0, lsr #4
    2844:	9f300002 	svcls	0x00300002
    2848:	00000220 	andeq	r0, r0, r0, lsr #4
    284c:	00000234 	andeq	r0, r0, r4, lsr r2
    2850:	9f310002 	svcls	0x00310002
	...
    285c:	00010100 	andeq	r0, r1, r0, lsl #2
    2860:	00010100 	andeq	r0, r1, r0, lsl #2
    2864:	00010100 	andeq	r0, r1, r0, lsl #2
    2868:	00010100 	andeq	r0, r1, r0, lsl #2
    286c:	00010100 	andeq	r0, r1, r0, lsl #2
    2870:	01020200 	mrseq	r0, R10_usr
    2874:	00000080 	andeq	r0, r0, r0, lsl #1
    2878:	00000080 	andeq	r0, r0, r0, lsl #1
    287c:	80530001 	subshi	r0, r3, r1
    2880:	8c000000 	stchi	0, cr0, [r0], {-0}
    2884:	03000000 	movweq	r0, #0
    2888:	9f047300 	svcls	0x00047300
    288c:	0000008c 	andeq	r0, r0, ip, lsl #1
    2890:	00000094 	muleq	r0, r4, r0
    2894:	94510001 	ldrbls	r0, [r1], #-1
    2898:	98000000 	stmdals	r0, {}	; <UNPREDICTABLE>
    289c:	03000000 	movweq	r0, #0
    28a0:	9f087300 	svcls	0x00087300
    28a4:	00000098 	muleq	r0, r8, r0
    28a8:	000000a4 	andeq	r0, r0, r4, lsr #1
    28ac:	a4510001 	ldrbge	r0, [r1], #-1
    28b0:	a8000000 	stmdage	r0, {}	; <UNPREDICTABLE>
    28b4:	03000000 	movweq	r0, #0
    28b8:	9f0c7300 	svcls	0x000c7300
    28bc:	000000a8 	andeq	r0, r0, r8, lsr #1
    28c0:	000000b4 	strheq	r0, [r0], -r4
    28c4:	b4510001 	ldrblt	r0, [r1], #-1
    28c8:	b8000000 	stmdalt	r0, {}	; <UNPREDICTABLE>
    28cc:	03000000 	movweq	r0, #0
    28d0:	9f107300 	svcls	0x00107300
    28d4:	000000b8 	strheq	r0, [r0], -r8
    28d8:	000000c4 	andeq	r0, r0, r4, asr #1
    28dc:	c4510001 	ldrbgt	r0, [r1], #-1
    28e0:	c8000000 	stmdagt	r0, {}	; <UNPREDICTABLE>
    28e4:	03000000 	movweq	r0, #0
    28e8:	9f147300 	svcls	0x00147300
    28ec:	000000c8 	andeq	r0, r0, r8, asr #1
    28f0:	000000d0 	ldrdeq	r0, [r0], -r0	; <UNPREDICTABLE>
    28f4:	d0510001 	subsle	r0, r1, r1
    28f8:	d4000000 	strle	r0, [r0], #-0
    28fc:	03000000 	movweq	r0, #0
    2900:	9f047100 	svcls	0x00047100
	...
    290c:	00d80002 	sbcseq	r0, r8, r2
    2910:	00e80000 	rsceq	r0, r8, r0
    2914:	00020000 	andeq	r0, r2, r0
    2918:	00009f31 	andeq	r9, r0, r1, lsr pc
    291c:	00000000 	andeq	r0, r0, r0
    2920:	00040000 	andeq	r0, r4, r0
    2924:	99d00100 	ldmibls	r0, {r8}^
    2928:	99d80000 	ldmibls	r8, {}^	; <UNPREDICTABLE>
    292c:	00020000 	andeq	r0, r2, r0
    2930:	99d89f30 	ldmibls	r8, {r4, r5, r8, r9, sl, fp, ip, pc}^
    2934:	99d80000 	ldmibls	r8, {}^	; <UNPREDICTABLE>
    2938:	00010000 	andeq	r0, r1, r0
    293c:	00000053 	andeq	r0, r0, r3, asr r0
    2940:	00000000 	andeq	r0, r0, r0
    2944:	00000300 	andeq	r0, r0, r0, lsl #6
    2948:	00000000 	andeq	r0, r0, r0
    294c:	0099e400 	addseq	lr, r9, r0, lsl #8
    2950:	0099e800 	addseq	lr, r9, r0, lsl #16
    2954:	30000200 	andcc	r0, r0, r0, lsl #4
    2958:	0099e89f 	umullseq	lr, r9, pc, r8	; <UNPREDICTABLE>
    295c:	0099ec00 	addseq	lr, r9, r0, lsl #24
    2960:	53000100 	movwpl	r0, #256	; 0x100
    2964:	000099ec 	andeq	r9, r0, ip, ror #19
    2968:	000099f0 	strdeq	r9, [r0], -r0
    296c:	00730005 	rsbseq	r0, r3, r5
    2970:	f09f2140 			; <UNDEFINED> instruction: 0xf09f2140
    2974:	f4000099 	vst4.32	{d0-d3}, [r0 :64], r9
    2978:	01000099 	swpeq	r0, r9, [r0]	; <UNPREDICTABLE>
    297c:	00005300 	andeq	r5, r0, r0, lsl #6
    2980:	00000000 	andeq	r0, r0, r0
    2984:	00020000 	andeq	r0, r2, r0
    2988:	99a40000 	stmibls	r4!, {}	; <UNPREDICTABLE>
    298c:	99a80000 	stmibls	r8!, {}	; <UNPREDICTABLE>
    2990:	00020000 	andeq	r0, r2, r0
    2994:	99a89f30 	stmibls	r8!, {r4, r5, r8, r9, sl, fp, ip, pc}
    2998:	99ac0000 	stmibls	ip!, {}	; <UNPREDICTABLE>
    299c:	00010000 	andeq	r0, r1, r0
    29a0:	00000050 	andeq	r0, r0, r0, asr r0
    29a4:	00000000 	andeq	r0, r0, r0
    29a8:	00000200 	andeq	r0, r0, r0, lsl #4
    29ac:	00000000 	andeq	r0, r0, r0
    29b0:	0099bc00 	addseq	fp, r9, r0, lsl #24
    29b4:	0099c000 	addseq	ip, r9, r0
    29b8:	30000200 	andcc	r0, r0, r0, lsl #4
    29bc:	0099c09f 	umullseq	ip, r9, pc, r0	; <UNPREDICTABLE>
    29c0:	0099c400 	addseq	ip, r9, r0, lsl #8
    29c4:	53000100 	movwpl	r0, #256	; 0x100
    29c8:	000099c4 	andeq	r9, r0, r4, asr #19
    29cc:	000099c8 	andeq	r9, r0, r8, asr #19
    29d0:	00730005 	rsbseq	r0, r3, r5
    29d4:	c89f2140 	ldmgt	pc, {r6, r8, sp}	; <UNPREDICTABLE>
    29d8:	d0000099 	mulle	r0, r9, r0
    29dc:	01000099 	swpeq	r0, r9, [r0]	; <UNPREDICTABLE>
    29e0:	00005300 	andeq	r5, r0, r0, lsl #6
	...
    29ec:	00c80000 	sbceq	r0, r8, r0
    29f0:	00d80000 	sbcseq	r0, r8, r0
    29f4:	00010000 	andeq	r0, r1, r0
    29f8:	0000d850 	andeq	sp, r0, r0, asr r8
    29fc:	00011c00 	andeq	r1, r1, r0, lsl #24
    2a00:	f3000400 	vshl.u8	d0, d0, d0
    2a04:	009f5001 	addseq	r5, pc, r1
    2a08:	00000000 	andeq	r0, r0, r0
    2a0c:	02000000 	andeq	r0, r0, #0, 0
    2a10:	c8000000 	stmdagt	r0, {}	; <UNPREDICTABLE>
    2a14:	d8000000 	stmdale	r0, {}	; <UNPREDICTABLE>
    2a18:	07000000 	streq	r0, [r0, -r0]
    2a1c:	0a007000 	beq	1ea24 <__bss_end__+0x1397c>
    2a20:	9f1e03e8 	svcls	0x001e03e8
    2a24:	000000d8 	ldrdeq	r0, [r0], -r8
    2a28:	0000011c 	andeq	r0, r0, ip, lsl r1
    2a2c:	01f30008 	mvnseq	r0, r8
    2a30:	03e80a50 	mvneq	r0, #80, 20	; 0x50000
    2a34:	00009f1e 	andeq	r9, r0, lr, lsl pc
	...
    2a40:	000000dc 	ldrdeq	r0, [r0], -ip
    2a44:	0000011c 	andeq	r0, r0, ip, lsl r1
    2a48:	00540001 	subseq	r0, r4, r1
    2a4c:	00000000 	andeq	r0, r0, r0
    2a50:	01000000 	mrseq	r0, (UNDEF: 0)
    2a54:	0000f000 	andeq	pc, r0, r0
    2a58:	00011c00 	andeq	r1, r1, r0, lsl #24
    2a5c:	56000100 	strpl	r0, [r0], -r0, lsl #2
	...
    2a6c:	000000ec 	andeq	r0, r0, ip, ror #1
    2a70:	000000ef 	andeq	r0, r0, pc, ror #1
    2a74:	ef500001 	svc	0x00500001
    2a78:	1c000000 	stcne	0, cr0, [r0], {-0}
    2a7c:	01000001 	tsteq	r0, r1
    2a80:	00005600 	andeq	r5, r0, r0, lsl #12
	...
    2a8c:	00000104 	andeq	r0, r0, r4, lsl #2
    2a90:	0000010b 	andeq	r0, r0, fp, lsl #2
    2a94:	00500001 	subseq	r0, r0, r1
	...
    2aa0:	20000000 	andcs	r0, r0, r0
    2aa4:	23000000 	movwcs	r0, #0
    2aa8:	01000000 	mrseq	r0, (UNDEF: 0)
    2aac:	00235000 	eoreq	r5, r3, r0
    2ab0:	00300000 	eorseq	r0, r0, r0
    2ab4:	00010000 	andeq	r0, r1, r0
    2ab8:	00000054 	andeq	r0, r0, r4, asr r0
	...
    2ac4:	00003000 	andeq	r3, r0, r0
    2ac8:	00003b00 	andeq	r3, r0, r0, lsl #22
    2acc:	50000100 	andpl	r0, r0, r0, lsl #2
    2ad0:	0000003b 	andeq	r0, r0, fp, lsr r0
    2ad4:	00000078 	andeq	r0, r0, r8, ror r0
    2ad8:	00560001 	subseq	r0, r6, r1
    2adc:	00000000 	andeq	r0, r0, r0
    2ae0:	01000000 	mrseq	r0, (UNDEF: 0)
    2ae4:	00004c00 	andeq	r4, r0, r0, lsl #24
    2ae8:	00007800 	andeq	r7, r0, r0, lsl #16
    2aec:	55000100 	strpl	r0, [r0, #-256]	; 0xffffff00
	...
    2afc:	00000048 	andeq	r0, r0, r8, asr #32
    2b00:	0000004b 	andeq	r0, r0, fp, asr #32
    2b04:	4b500001 	blmi	1402b10 <__bss_end__+0x13f7a68>
    2b08:	78000000 	stmdavc	r0, {}	; <UNPREDICTABLE>
    2b0c:	01000000 	mrseq	r0, (UNDEF: 0)
    2b10:	00005500 	andeq	r5, r0, r0, lsl #10
	...
    2b1c:	00000060 	andeq	r0, r0, r0, rrx
    2b20:	00000067 	andeq	r0, r0, r7, rrx
    2b24:	00500001 	subseq	r0, r0, r1
	...
    2b30:	78000000 	stmdavc	r0, {}	; <UNPREDICTABLE>
    2b34:	84000000 	strhi	r0, [r0], #-0
    2b38:	01000000 	mrseq	r0, (UNDEF: 0)
    2b3c:	00845000 	addeq	r5, r4, r0
    2b40:	00c80000 	sbceq	r0, r8, r0
    2b44:	00040000 	andeq	r0, r4, r0
    2b48:	9f5001f3 	svcls	0x005001f3
	...
    2b54:	00880000 	addeq	r0, r8, r0
    2b58:	00c80000 	sbceq	r0, r8, r0
    2b5c:	00010000 	andeq	r0, r1, r0
    2b60:	00000054 	andeq	r0, r0, r4, asr r0
    2b64:	00000000 	andeq	r0, r0, r0
    2b68:	9c000100 	stflss	f0, [r0], {-0}
    2b6c:	c8000000 	stmdagt	r0, {}	; <UNPREDICTABLE>
    2b70:	01000000 	mrseq	r0, (UNDEF: 0)
    2b74:	00005600 	andeq	r5, r0, r0, lsl #12
	...
    2b80:	00980000 	addseq	r0, r8, r0
    2b84:	009b0000 	addseq	r0, fp, r0
    2b88:	00010000 	andeq	r0, r1, r0
    2b8c:	00009b50 	andeq	r9, r0, r0, asr fp
    2b90:	0000c800 	andeq	ip, r0, r0, lsl #16
    2b94:	56000100 	strpl	r0, [r0], -r0, lsl #2
	...
    2ba0:	00b00000 	adcseq	r0, r0, r0
    2ba4:	00b70000 	adcseq	r0, r7, r0
    2ba8:	00010000 	andeq	r0, r1, r0
    2bac:	00000050 	andeq	r0, r0, r0, asr r0
	...
    2bb8:	00015800 	andeq	r5, r1, r0, lsl #16
    2bbc:	00016300 	andeq	r6, r1, r0, lsl #6
    2bc0:	50000100 	andpl	r0, r0, r0, lsl #2
    2bc4:	00000163 	andeq	r0, r0, r3, ror #2
    2bc8:	00000188 	andeq	r0, r0, r8, lsl #3
    2bcc:	00540001 	subseq	r0, r4, r1
	...
    2bd8:	00014800 	andeq	r4, r1, r0, lsl #16
    2bdc:	00015800 	andeq	r5, r1, r0, lsl #16
    2be0:	54000100 	strpl	r0, [r0], #-256	; 0xffffff00
	...
    2bf4:	0000000f 	andeq	r0, r0, pc
    2bf8:	0f500001 	svceq	0x00500001
    2bfc:	20000000 	andcs	r0, r0, r0
    2c00:	01000000 	mrseq	r0, (UNDEF: 0)
    2c04:	00005400 	andeq	r5, r0, r0, lsl #8
	...
    2c14:	000f0000 	andeq	r0, pc, r0
    2c18:	00010000 	andeq	r0, r1, r0
    2c1c:	00000f51 	andeq	r0, r0, r1, asr pc
    2c20:	00002000 	andeq	r2, r0, r0
    2c24:	55000100 	strpl	r0, [r0, #-256]	; 0xffffff00
	...
    2c34:	00000020 	andeq	r0, r0, r0, lsr #32
    2c38:	0000002f 	andeq	r0, r0, pc, lsr #32
    2c3c:	2f500001 	svccs	0x00500001
    2c40:	40000000 	andmi	r0, r0, r0
    2c44:	01000000 	mrseq	r0, (UNDEF: 0)
    2c48:	00005400 	andeq	r5, r0, r0, lsl #8
	...
    2c54:	00200000 	eoreq	r0, r0, r0
    2c58:	002f0000 	eoreq	r0, pc, r0
    2c5c:	00010000 	andeq	r0, r1, r0
    2c60:	00002f51 	andeq	r2, r0, r1, asr pc
    2c64:	00004000 	andeq	r4, r0, r0
    2c68:	55000100 	strpl	r0, [r0, #-256]	; 0xffffff00
	...
    2c78:	03500000 	cmpeq	r0, #0, 0
    2c7c:	03980000 	orrseq	r0, r8, #0, 0
    2c80:	00010000 	andeq	r0, r1, r0
    2c84:	00039850 	andeq	r9, r3, r0, asr r8
    2c88:	00039b00 	andeq	r9, r3, r0, lsl #22
    2c8c:	91000200 	mrsls	r0, R8_usr
    2c90:	00039b68 	andeq	r9, r3, r8, ror #22
    2c94:	0003b000 	andeq	fp, r3, r0
    2c98:	f3000400 	vshl.u8	d0, d0, d0
    2c9c:	009f5001 	addseq	r5, pc, r1
	...
    2cb8:	20000000 	andcs	r0, r0, r0
    2cbc:	7b000002 	blvc	2ccc <__code_start__-0x5334>
    2cc0:	01000002 	tsteq	r0, r2
    2cc4:	027b5000 	rsbseq	r5, fp, #0, 0
    2cc8:	02840000 	addeq	r0, r4, #0, 0
    2ccc:	00040000 	andeq	r0, r4, r0
    2cd0:	9f5001f3 	svcls	0x005001f3
    2cd4:	00000284 	andeq	r0, r0, r4, lsl #5
    2cd8:	0000029c 	muleq	r0, ip, r2
    2cdc:	9c500001 	mrrcls	0, 0, r0, r0, cr1	; <UNPREDICTABLE>
    2ce0:	a4000002 	strge	r0, [r0], #-2
    2ce4:	04000002 	streq	r0, [r0], #-2
    2ce8:	5001f300 	andpl	pc, r1, r0, lsl #6
    2cec:	0002a49f 	muleq	r2, pc, r4	; <UNPREDICTABLE>
    2cf0:	0002a700 	andeq	sl, r2, r0, lsl #14
    2cf4:	50000100 	andpl	r0, r0, r0, lsl #2
    2cf8:	000002a7 	andeq	r0, r0, r7, lsr #5
    2cfc:	000002c8 	andeq	r0, r0, r8, asr #5
    2d00:	01f30004 	mvnseq	r0, r4
    2d04:	02c89f50 	sbceq	r9, r8, #80, 30	; 0x140
    2d08:	02e00000 	rsceq	r0, r0, #0, 0
    2d0c:	00010000 	andeq	r0, r1, r0
    2d10:	0002e050 	andeq	lr, r2, r0, asr r0
    2d14:	0002e800 	andeq	lr, r2, r0, lsl #16
    2d18:	f3000400 	vshl.u8	d0, d0, d0
    2d1c:	e89f5001 	ldm	pc, {r0, ip, lr}	; <UNPREDICTABLE>
    2d20:	eb000002 	bl	2d30 <__code_start__-0x52d0>
    2d24:	01000002 	tsteq	r0, r2
    2d28:	02eb5000 	rsceq	r5, fp, #0, 0
    2d2c:	03380000 	teqeq	r8, #0, 0
    2d30:	00040000 	andeq	r0, r4, r0
    2d34:	9f5001f3 	svcls	0x005001f3
	...
    2d54:	00000220 	andeq	r0, r0, r0, lsr #4
    2d58:	00000244 	andeq	r0, r0, r4, asr #4
    2d5c:	44510001 	ldrbmi	r0, [r1], #-1
    2d60:	68000002 	stmdavs	r0, {r1}
    2d64:	01000002 	tsteq	r0, r2
    2d68:	02685100 	rsbeq	r5, r8, #0
    2d6c:	027b0000 	rsbseq	r0, fp, #0, 0
    2d70:	00030000 	andeq	r0, r3, r0
    2d74:	7b9f0171 	blvc	fe7c3340 <__bss_end__+0xfe7b8298>
    2d78:	84000002 	strhi	r0, [r0], #-2
    2d7c:	17000002 	strne	r0, [r0, -r2]
    2d80:	01f33800 	mvnseq	r3, r0, lsl #16
    2d84:	5101f351 	tstpl	r1, r1, asr r3	; <UNPREDICTABLE>
    2d88:	22244b40 	eorcs	r4, r4, #64, 22	; 0x10000
    2d8c:	0000080c 	andeq	r0, r0, ip, lsl #16
    2d90:	01282d80 	smlawbeq	r8, r0, sp, r2
    2d94:	9f131600 	svcls	0x00131600
    2d98:	00000284 	andeq	r0, r0, r4, lsl #5
    2d9c:	00000298 	muleq	r0, r8, r2
    2da0:	98510001 	ldmdals	r1, {r0}^
    2da4:	a4000002 	strge	r0, [r0], #-2
    2da8:	04000002 	streq	r0, [r0], #-2
    2dac:	5101f300 	mrspl	pc, SP_irq	; <UNPREDICTABLE>
    2db0:	0002a49f 	muleq	r2, pc, r4	; <UNPREDICTABLE>
    2db4:	0002a700 	andeq	sl, r2, r0, lsl #14
    2db8:	51000100 	mrspl	r0, (UNDEF: 16)
    2dbc:	000002a7 	andeq	r0, r0, r7, lsr #5
    2dc0:	000002c8 	andeq	r0, r0, r8, asr #5
    2dc4:	01f30004 	mvnseq	r0, r4
    2dc8:	02c89f51 	sbceq	r9, r8, #324	; 0x144
    2dcc:	02dc0000 	sbcseq	r0, ip, #0, 0
    2dd0:	00010000 	andeq	r0, r1, r0
    2dd4:	0002dc51 	andeq	sp, r2, r1, asr ip
    2dd8:	00033800 	andeq	r3, r3, r0, lsl #16
    2ddc:	38001700 	stmdacc	r0, {r8, r9, sl, ip}
    2de0:	f35101f3 	vbsl	q8, <illegal reg q8.5>, <illegal reg q9.5>
    2de4:	4b405101 	blmi	10171f0 <__bss_end__+0x100c148>
    2de8:	080c2224 	stmdaeq	ip, {r2, r5, r9, sp}
    2dec:	2d800000 	stccs	0, cr0, [r0]
    2df0:	16000128 	strne	r0, [r0], -r8, lsr #2
    2df4:	00009f13 	andeq	r9, r0, r3, lsl pc
	...
    2e08:	024c0000 	subeq	r0, ip, #0, 0
    2e0c:	025c0000 	subseq	r0, ip, #0, 0
    2e10:	00010000 	andeq	r0, r1, r0
    2e14:	00025c52 	andeq	r5, r2, r2, asr ip
    2e18:	00026400 	andeq	r6, r2, r0, lsl #8
    2e1c:	03000500 	movweq	r0, #1280	; 0x500
    2e20:	0000ac6c 	andeq	sl, r0, ip, ror #24
    2e24:	00000264 	andeq	r0, r0, r4, ror #4
    2e28:	0000027b 	andeq	r0, r0, fp, ror r2
    2e2c:	c8530001 	ldmdagt	r3, {r0}^
    2e30:	d8000002 	stmdale	r0, {r1}
    2e34:	01000002 	tsteq	r0, r2
    2e38:	02d85200 	sbcseq	r5, r8, #0, 4
    2e3c:	02e30000 	rsceq	r0, r3, #0, 0
    2e40:	00050000 	andeq	r0, r5, r0
    2e44:	00ac6c03 	adceq	r6, ip, r3, lsl #24
    2e48:	0002e800 	andeq	lr, r2, r0, lsl #16
    2e4c:	0002eb00 	andeq	lr, r2, r0, lsl #22
    2e50:	53000100 	movwpl	r0, #256	; 0x100
	...
    2e5c:	02300004 	eorseq	r0, r0, #4, 0
    2e60:	02340000 	eorseq	r0, r4, #0, 0
    2e64:	00010000 	andeq	r0, r1, r0
    2e68:	00000051 	andeq	r0, r0, r1, asr r0
    2e6c:	00000000 	andeq	r0, r0, r0
    2e70:	3c000200 	sfmcc	f0, 4, [r0], {-0}
    2e74:	44000002 	strmi	r0, [r0], #-2
    2e78:	02000002 	andeq	r0, r0, #2, 0
    2e7c:	009f3800 	addseq	r3, pc, r0, lsl #16
    2e80:	00000000 	andeq	r0, r0, r0
    2e84:	02000000 	andeq	r0, r0, #0, 0
    2e88:	00023c00 	andeq	r3, r2, r0, lsl #24
    2e8c:	00024400 	andeq	r4, r2, r0, lsl #8
    2e90:	51000100 	mrspl	r0, (UNDEF: 16)
	...
    2e9c:	00000001 	andeq	r0, r0, r1
    2ea0:	024c0000 	subeq	r0, ip, #0, 0
    2ea4:	02640000 	rsbeq	r0, r4, #0, 0
    2ea8:	00010000 	andeq	r0, r1, r0
    2eac:	0002c851 	andeq	ip, r2, r1, asr r8
    2eb0:	0002dc00 	andeq	sp, r2, r0, lsl #24
    2eb4:	51000100 	mrspl	r0, (UNDEF: 16)
    2eb8:	000002dc 	ldrdeq	r0, [r0], -ip
    2ebc:	000002e8 	andeq	r0, r0, r8, ror #5
    2ec0:	f3380017 	vqadd.u64	d0, d8, d7
    2ec4:	01f35101 	mvnseq	r5, r1, lsl #2
    2ec8:	244b4051 	strbcs	r4, [fp], #-81	; 0xffffffaf
    2ecc:	00080c22 	andeq	r0, r8, r2, lsr #24
    2ed0:	282d8000 	stmdacs	sp!, {pc}
    2ed4:	13160001 	tstne	r6, #1, 0
    2ed8:	0000009f 	muleq	r0, pc, r0	; <UNPREDICTABLE>
    2edc:	00000000 	andeq	r0, r0, r0
    2ee0:	00000100 	andeq	r0, r0, r0, lsl #2
    2ee4:	00000000 	andeq	r0, r0, r0
    2ee8:	00024c00 	andeq	r4, r2, r0, lsl #24
    2eec:	00025c00 	andeq	r5, r2, r0, lsl #24
    2ef0:	52000100 	andpl	r0, r0, #0
    2ef4:	0000025c 	andeq	r0, r0, ip, asr r2
    2ef8:	00000264 	andeq	r0, r0, r4, ror #4
    2efc:	6c030005 	stcvs	0, cr0, [r3], {5}
    2f00:	c80000ac 	stmdagt	r0, {r2, r3, r5, r7}
    2f04:	d8000002 	stmdale	r0, {r1}
    2f08:	01000002 	tsteq	r0, r2
    2f0c:	02d85200 	sbcseq	r5, r8, #0, 4
    2f10:	02e30000 	rsceq	r0, r3, #0, 0
    2f14:	00050000 	andeq	r0, r5, r0
    2f18:	00ac6c03 	adceq	r6, ip, r3, lsl #24
	...
    2f24:	4c000400 	cfstrsmi	mvf0, [r0], {-0}
    2f28:	50000002 	andpl	r0, r0, r2
    2f2c:	01000002 	tsteq	r0, r2
    2f30:	00005100 	andeq	r5, r0, r0, lsl #2
    2f34:	00000000 	andeq	r0, r0, r0
    2f38:	00030000 	andeq	r0, r3, r0
    2f3c:	00000264 	andeq	r0, r0, r4, ror #4
    2f40:	00000268 	andeq	r0, r0, r8, ror #4
    2f44:	00510001 	subseq	r0, r1, r1
    2f48:	00000000 	andeq	r0, r0, r0
    2f4c:	03000000 	movweq	r0, #0
    2f50:	00026400 	andeq	r6, r2, r0, lsl #8
    2f54:	00026800 	andeq	r6, r2, r0, lsl #16
    2f58:	53000100 	movwpl	r0, #256	; 0x100
	...
    2f6c:	000001bc 			; <UNDEFINED> instruction: 0x000001bc
    2f70:	000001d3 	ldrdeq	r0, [r0], -r3
    2f74:	d3500001 	cmple	r0, #1, 0
    2f78:	f0000001 			; <UNDEFINED> instruction: 0xf0000001
    2f7c:	01000001 	tsteq	r0, r1
    2f80:	01f05400 	mvnseq	r5, r0, lsl #8
    2f84:	02080000 	andeq	r0, r8, #0, 0
    2f88:	00010000 	andeq	r0, r1, r0
    2f8c:	00020850 	andeq	r0, r2, r0, asr r8
    2f90:	00022000 	andeq	r2, r2, r0
    2f94:	54000100 	strpl	r0, [r0], #-256	; 0xffffff00
	...
    2fa4:	000001d8 	ldrdeq	r0, [r0], -r8
    2fa8:	000001e3 	andeq	r0, r0, r3, ror #3
    2fac:	e3500001 	cmp	r0, #1, 0
    2fb0:	f0000001 			; <UNDEFINED> instruction: 0xf0000001
    2fb4:	01000001 	tsteq	r0, r1
    2fb8:	00005500 	andeq	r5, r0, r0, lsl #10
	...
    2fd0:	01240000 			; <UNDEFINED> instruction: 0x01240000
    2fd4:	01380000 	teqeq	r8, r0
    2fd8:	00010000 	andeq	r0, r1, r0
    2fdc:	00013850 	andeq	r3, r1, r0, asr r8
    2fe0:	00013c00 	andeq	r3, r1, r0, lsl #24
    2fe4:	70000300 	andvc	r0, r0, r0, lsl #6
    2fe8:	013c9f79 	teqeq	ip, r9, ror pc
    2fec:	01600000 	cmneq	r0, r0
    2ff0:	00010000 	andeq	r0, r1, r0
    2ff4:	00016053 	andeq	r6, r1, r3, asr r0
    2ff8:	00017800 	andeq	r7, r1, r0, lsl #16
    2ffc:	50000100 	andpl	r0, r0, r0, lsl #2
    3000:	00000178 	andeq	r0, r0, r8, ror r1
    3004:	00000180 	andeq	r0, r0, r0, lsl #3
    3008:	01f30004 	mvnseq	r0, r4
    300c:	01809f50 	orreq	r9, r0, r0, asr pc
    3010:	01900000 	orrseq	r0, r0, r0
    3014:	00010000 	andeq	r0, r1, r0
    3018:	00019053 	andeq	r9, r1, r3, asr r0
    301c:	00019f00 	andeq	r9, r1, r0, lsl #30
    3020:	91000200 	mrsls	r0, R8_usr
    3024:	00019f68 	andeq	r9, r1, r8, ror #30
    3028:	0001bc00 	andeq	fp, r1, r0, lsl #24
    302c:	f3000900 	vmls.i8	d0, d0, d0
    3030:	07235001 	streq	r5, [r3, -r1]!
    3034:	9f1af809 	svcls	0x001af809
	...
    3044:	00000144 	andeq	r0, r0, r4, asr #2
    3048:	00000160 	andeq	r0, r0, r0, ror #2
    304c:	80500001 	subshi	r0, r0, r1
    3050:	9c000001 	stcls	0, cr0, [r0], {1}
    3054:	01000001 	tsteq	r0, r1
    3058:	00005000 	andeq	r5, r0, r0
    305c:	00000000 	andeq	r0, r0, r0
    3060:	00030000 	andeq	r0, r3, r0
    3064:	00000134 	andeq	r0, r0, r4, lsr r1
    3068:	0000013c 	andeq	r0, r0, ip, lsr r1
    306c:	9f380002 	svcls	0x00380002
	...
    3078:	00000003 	andeq	r0, r0, r3
    307c:	00000134 	andeq	r0, r0, r4, lsr r1
    3080:	00000138 	andeq	r0, r0, r8, lsr r1
    3084:	38500001 	ldmdacc	r0, {r0}^
    3088:	3c000001 	stccc	0, cr0, [r0], {1}
    308c:	03000001 	movweq	r0, #1
    3090:	9f797000 	svcls	0x00797000
	...
    30a8:	00300000 	eorseq	r0, r0, r0
    30ac:	00600000 	rsbeq	r0, r0, r0
    30b0:	00010000 	andeq	r0, r1, r0
    30b4:	00006050 	andeq	r6, r0, r0, asr r0
    30b8:	00006c00 	andeq	r6, r0, r0, lsl #24
    30bc:	03000500 	movweq	r0, #1280	; 0x500
    30c0:	0000ac6c 	andeq	sl, r0, ip, ror #24
    30c4:	0000006c 	andeq	r0, r0, ip, rrx
    30c8:	00000084 	andeq	r0, r0, r4, lsl #1
    30cc:	84500001 	ldrbhi	r0, [r0], #-1
    30d0:	8c000000 	stchi	0, cr0, [r0], {-0}
    30d4:	04000000 	streq	r0, [r0], #-0
    30d8:	5001f300 	andpl	pc, r1, r0, lsl #6
    30dc:	00008c9f 	muleq	r0, pc, ip	; <UNPREDICTABLE>
    30e0:	0000ac00 	andeq	sl, r0, r0, lsl #24
    30e4:	50000100 	andpl	r0, r0, r0, lsl #2
    30e8:	000000ac 	andeq	r0, r0, ip, lsr #1
    30ec:	000000af 	andeq	r0, r0, pc, lsr #1
    30f0:	68910002 	ldmvs	r1, {r1}
    30f4:	000000af 	andeq	r0, r0, pc, lsr #1
    30f8:	000000cc 	andeq	r0, r0, ip, asr #1
    30fc:	01f30004 	mvnseq	r0, r4
    3100:	00009f50 	andeq	r9, r0, r0, asr pc
	...
    3110:	00300000 	eorseq	r0, r0, r0
    3114:	00800000 	addeq	r0, r0, r0
    3118:	00010000 	andeq	r0, r1, r0
    311c:	00008051 	andeq	r8, r0, r1, asr r0
    3120:	00008c00 	andeq	r8, r0, r0, lsl #24
    3124:	f3000400 	vshl.u8	d0, d0, d0
    3128:	8c9f5101 	ldfhis	f5, [pc], {1}
    312c:	a8000000 	stmdage	r0, {}	; <UNPREDICTABLE>
    3130:	01000000 	mrseq	r0, (UNDEF: 0)
    3134:	00a85100 	adceq	r5, r8, r0, lsl #2
    3138:	00cc0000 	sbceq	r0, ip, r0
    313c:	00040000 	andeq	r0, r4, r0
    3140:	9f5101f3 	svcls	0x005101f3
	...
    314c:	00000001 	andeq	r0, r0, r1
	...
    3158:	00380000 	eorseq	r0, r8, r0
    315c:	00600000 	rsbeq	r0, r0, r0
    3160:	00010000 	andeq	r0, r1, r0
    3164:	00006050 	andeq	r6, r0, r0, asr r0
    3168:	00006c00 	andeq	r6, r0, r0, lsl #24
    316c:	03000500 	movweq	r0, #1280	; 0x500
    3170:	0000ac6c 	andeq	sl, r0, ip, ror #24
    3174:	0000006c 	andeq	r0, r0, ip, rrx
    3178:	00000084 	andeq	r0, r0, r4, lsl #1
    317c:	84500001 	ldrbhi	r0, [r0], #-1
    3180:	8c000000 	stchi	0, cr0, [r0], {-0}
    3184:	04000000 	streq	r0, [r0], #-0
    3188:	5001f300 	andpl	pc, r1, r0, lsl #6
    318c:	00008c9f 	muleq	r0, pc, ip	; <UNPREDICTABLE>
    3190:	0000ac00 	andeq	sl, r0, r0, lsl #24
    3194:	50000100 	andpl	r0, r0, r0, lsl #2
    3198:	000000ac 	andeq	r0, r0, ip, lsr #1
    319c:	000000af 	andeq	r0, r0, pc, lsr #1
    31a0:	68910002 	ldmvs	r1, {r1}
    31a4:	000000af 	andeq	r0, r0, pc, lsr #1
    31a8:	000000cc 	andeq	r0, r0, ip, asr #1
    31ac:	01f30004 	mvnseq	r0, r4
    31b0:	00009f50 	andeq	r9, r0, r0, asr pc
	...
    31c0:	00000170 	andeq	r0, r0, r0, ror r1
    31c4:	0000017c 	andeq	r0, r0, ip, ror r1
    31c8:	7c500001 	mrrcvc	0, 0, r0, r0, cr1	; <UNPREDICTABLE>
    31cc:	88000001 	stmdahi	r0, {r0}
    31d0:	01000001 	tsteq	r0, r1
    31d4:	01885400 	orreq	r5, r8, r0, lsl #8
    31d8:	01980000 	orrseq	r0, r8, r0
    31dc:	00040000 	andeq	r0, r4, r0
    31e0:	9f5001f3 	svcls	0x005001f3
	...
    31f4:	01780000 	cmneq	r8, r0
    31f8:	017c0000 	cmneq	ip, r0
    31fc:	000b0000 	andeq	r0, fp, r0
    3200:	25350070 	ldrcs	r0, [r5, #-112]!	; 0xffffff90
    3204:	8080b423 	addhi	fp, r0, r3, lsr #8
    3208:	7c9f0281 	lfmvc	f0, 4, [pc], {129}	; 0x81
    320c:	80000001 	andhi	r0, r0, r1
    3210:	0b000001 	bleq	321c <__code_start__-0x4de4>
    3214:	35007400 	strcc	r7, [r0, #-1024]	; 0xfffffc00
    3218:	80b42325 	adcshi	r2, r4, r5, lsr #6
    321c:	9f028180 	svcls	0x00028180
    3220:	00000180 	andeq	r0, r0, r0, lsl #3
    3224:	00000183 	andeq	r0, r0, r3, lsl #3
    3228:	83500001 	cmphi	r0, #1, 0
    322c:	88000001 	stmdahi	r0, {r0}
    3230:	0b000001 	bleq	323c <__code_start__-0x4dc4>
    3234:	35007400 	strcc	r7, [r0, #-1024]	; 0xfffffc00
    3238:	80b42325 	adcshi	r2, r4, r5, lsr #6
    323c:	9f028180 	svcls	0x00028180
    3240:	00000188 	andeq	r0, r0, r8, lsl #3
    3244:	00000198 	muleq	r0, r8, r1
    3248:	01f3000c 	mvnseq	r0, ip
    324c:	23253550 			; <UNDEFINED> instruction: 0x23253550
    3250:	818080b4 	strhhi	r8, [r0, r4]
    3254:	00009f02 	andeq	r9, r0, r2, lsl #30
    3258:	00000000 	andeq	r0, r0, r0
    325c:	00010000 	andeq	r0, r1, r0
    3260:	00000000 	andeq	r0, r0, r0
    3264:	00000178 	andeq	r0, r0, r8, ror r1
    3268:	0000017c 	andeq	r0, r0, ip, ror r1
    326c:	00700005 	rsbseq	r0, r0, r5
    3270:	7c9f1a4f 	vldmiavc	pc, {s2-s80}
    3274:	88000001 	stmdahi	r0, {r0}
    3278:	05000001 	streq	r0, [r0, #-1]
    327c:	4f007400 	svcmi	0x00007400
    3280:	01889f1a 	orreq	r9, r8, sl, lsl pc
    3284:	01980000 	orrseq	r0, r8, r0
    3288:	00010000 	andeq	r0, r1, r0
    328c:	00000054 	andeq	r0, r0, r4, asr r0
	...
    32a0:	00014000 	andeq	r4, r1, r0
    32a4:	00015400 	andeq	r5, r1, r0, lsl #8
    32a8:	50000100 	andpl	r0, r0, r0, lsl #2
    32ac:	00000154 	andeq	r0, r0, r4, asr r1
    32b0:	00000158 	andeq	r0, r0, r8, asr r1
    32b4:	58510001 	ldmdapl	r1, {r0}^
    32b8:	5c000001 	stcpl	0, cr0, [r0], {1}
    32bc:	04000001 	streq	r0, [r0], #-1
    32c0:	5001f300 	andpl	pc, r1, r0, lsl #6
    32c4:	00015c9f 	muleq	r1, pc, ip	; <UNPREDICTABLE>
    32c8:	00016000 	andeq	r6, r1, r0
    32cc:	50000100 	andpl	r0, r0, r0, lsl #2
    32d0:	00000160 	andeq	r0, r0, r0, ror #2
    32d4:	00000164 	andeq	r0, r0, r4, ror #2
    32d8:	64510001 	ldrbvs	r0, [r1], #-1
    32dc:	70000001 	andvc	r0, r0, r1
    32e0:	04000001 	streq	r0, [r0], #-1
    32e4:	5001f300 	andpl	pc, r1, r0, lsl #6
    32e8:	0000009f 	muleq	r0, pc, r0	; <UNPREDICTABLE>
	...
    32f4:	00014000 	andeq	r4, r1, r0
    32f8:	00014c00 	andeq	r4, r1, r0, lsl #24
    32fc:	51000100 	mrspl	r0, (UNDEF: 16)
    3300:	0000014c 	andeq	r0, r0, ip, asr #2
    3304:	00000170 	andeq	r0, r0, r0, ror r1
    3308:	01f30004 	mvnseq	r0, r4
    330c:	00009f51 	andeq	r9, r0, r1, asr pc
    3310:	00000000 	andeq	r0, r0, r0
    3314:	00010000 	andeq	r0, r1, r0
    3318:	00000000 	andeq	r0, r0, r0
    331c:	00000150 	andeq	r0, r0, r0, asr r1
    3320:	00000154 	andeq	r0, r0, r4, asr r1
    3324:	54500001 	ldrbpl	r0, [r0], #-1
    3328:	58000001 	stmdapl	r0, {r0}
    332c:	01000001 	tsteq	r0, r1
    3330:	01585100 	cmpeq	r8, r0, lsl #2
    3334:	015c0000 	cmpeq	ip, r0
    3338:	00040000 	andeq	r0, r4, r0
    333c:	9f5001f3 	svcls	0x005001f3
	...
    3348:	00000002 	andeq	r0, r0, r2
    334c:	015c0000 	cmpeq	ip, r0
    3350:	01600000 	cmneq	r0, r0
    3354:	00010000 	andeq	r0, r1, r0
    3358:	00016050 	andeq	r6, r1, r0, asr r0
    335c:	00016400 	andeq	r6, r1, r0, lsl #8
    3360:	51000100 	mrspl	r0, (UNDEF: 16)
    3364:	00000164 	andeq	r0, r0, r4, ror #2
    3368:	00000170 	andeq	r0, r0, r0, ror r1
    336c:	01f30004 	mvnseq	r0, r4
    3370:	00009f50 	andeq	r9, r0, r0, asr pc
	...
    3380:	000000e8 	andeq	r0, r0, r8, ror #1
    3384:	00000108 	andeq	r0, r0, r8, lsl #2
    3388:	08500001 	ldmdaeq	r0, {r0}^
    338c:	28000001 	stmdacs	r0, {r0}
    3390:	01000001 	tsteq	r0, r1
    3394:	01285400 			; <UNDEFINED> instruction: 0x01285400
    3398:	01400000 	mrseq	r0, (UNDEF: 64)
    339c:	00040000 	andeq	r0, r4, r0
    33a0:	9f5001f3 	svcls	0x005001f3
	...
    33ac:	00000002 	andeq	r0, r0, r2
    33b0:	00e80000 	rsceq	r0, r8, r0
    33b4:	01080000 	mrseq	r0, (UNDEF: 8)
    33b8:	00010000 	andeq	r0, r1, r0
    33bc:	00010850 	andeq	r0, r1, r0, asr r8
    33c0:	00012800 	andeq	r2, r1, r0, lsl #16
    33c4:	54000100 	strpl	r0, [r0], #-256	; 0xffffff00
    33c8:	00000128 	andeq	r0, r0, r8, lsr #2
    33cc:	00000140 	andeq	r0, r0, r0, asr #2
    33d0:	01f30004 	mvnseq	r0, r4
    33d4:	00009f50 	andeq	r9, r0, r0, asr pc
	...
    33e4:	000000f0 	strdeq	r0, [r0], -r0	; <UNPREDICTABLE>
    33e8:	00000108 	andeq	r0, r0, r8, lsl #2
    33ec:	08500001 	ldmdaeq	r0, {r0}^
    33f0:	28000001 	stmdacs	r0, {r0}
    33f4:	01000001 	tsteq	r0, r1
    33f8:	01285400 			; <UNDEFINED> instruction: 0x01285400
    33fc:	01400000 	mrseq	r0, (UNDEF: 64)
    3400:	00040000 	andeq	r0, r4, r0
    3404:	9f5001f3 	svcls	0x005001f3
	...
    3410:	00000003 	andeq	r0, r0, r3
    3414:	00f00000 	rscseq	r0, r0, r0
    3418:	01080000 	mrseq	r0, (UNDEF: 8)
    341c:	00070000 	andeq	r0, r7, r0
    3420:	1d3a0070 	ldcne	0, cr0, [sl, #-448]!	; 0xfffffe40
    3424:	089f1e33 	ldmeq	pc, {r0, r1, r4, r5, r9, sl, fp, ip}	; <UNPREDICTABLE>
    3428:	28000001 	stmdacs	r0, {r0}
    342c:	07000001 	streq	r0, [r0, -r1]
    3430:	3a007400 	bcc	20438 <__bss_end__+0x15390>
    3434:	9f1e331d 	svcls	0x001e331d
    3438:	00000128 	andeq	r0, r0, r8, lsr #2
    343c:	00000140 	andeq	r0, r0, r0, asr #2
    3440:	01f30008 	mvnseq	r0, r8
    3444:	331d3a50 	tstcc	sp, #80, 20	; 0x50000
    3448:	00009f1e 	andeq	r9, r0, lr, lsl pc
	...
    3458:	00000110 	andeq	r0, r0, r0, lsl r1
    345c:	00000138 	andeq	r0, r0, r8, lsr r1
    3460:	38560001 	ldmdacc	r6, {r0}^
    3464:	3b000001 	blcc	3470 <__code_start__-0x4b90>
    3468:	01000001 	tsteq	r0, r1
    346c:	013b5000 	teqeq	fp, r0
    3470:	01400000 	mrseq	r0, (UNDEF: 64)
    3474:	00260000 	eoreq	r0, r6, r0
    3478:	f75001f3 			; <UNDEFINED> instruction: 0xf75001f3
    347c:	f425f72c 	vld1.8	{d15}, [r5 :128], ip
    3480:	cccd0825 	stclgt	8, cr0, [sp], {37}	; 0x25
    3484:	0000cccc 	andeq	ip, r0, ip, asr #25
    3488:	081e0000 	ldmdaeq	lr, {}	; <UNPREDICTABLE>
    348c:	2525f720 	strcs	pc, [r5, #-1824]!	; 0xfffff8e0
    3490:	00f72cf7 	ldrshteq	r2, [r7], #199	; 0xc7
    3494:	80232533 	eorhi	r2, r3, r3, lsr r5
    3498:	3240a080 	subcc	sl, r0, #128, 0	; 0x80
    349c:	00009f24 	andeq	r9, r0, r4, lsr #30
    34a0:	00000000 	andeq	r0, r0, r0
    34a4:	01000000 	mrseq	r0, (UNDEF: 0)
    34a8:	00000001 	andeq	r0, r0, r1
    34ac:	01200000 			; <UNDEFINED> instruction: 0x01200000
    34b0:	01200000 			; <UNDEFINED> instruction: 0x01200000
    34b4:	00010000 	andeq	r0, r1, r0
    34b8:	00012050 	andeq	r2, r1, r0, asr r0
    34bc:	00012800 	andeq	r2, r1, r0, lsl #16
    34c0:	37000d00 	strcc	r0, [r0, -r0, lsl #26]
    34c4:	1d3a0074 	ldcne	0, cr0, [sl, #-464]!	; 0xfffffe30
    34c8:	20241e33 	eorcs	r1, r4, r3, lsr lr
    34cc:	9f1a0070 	svcls	0x001a0070
    34d0:	00000128 	andeq	r0, r0, r8, lsr #2
    34d4:	00000130 	andeq	r0, r0, r0, lsr r1
    34d8:	f337000e 	vhadd.u<illegal width 64>	d0, d7, d14
    34dc:	1d3a5001 	ldcne	0, cr5, [sl, #-4]!
    34e0:	20241e33 	eorcs	r1, r4, r3, lsr lr
    34e4:	9f1a0070 	svcls	0x001a0070
    34e8:	00000130 	andeq	r0, r0, r0, lsr r1
    34ec:	0000013b 	andeq	r0, r0, fp, lsr r1
    34f0:	f337000e 	vhadd.u<illegal width 64>	d0, d7, d14
    34f4:	1d3a5001 	ldcne	0, cr5, [sl, #-4]!
    34f8:	20241e33 	eorcs	r1, r4, r3, lsr lr
    34fc:	9f1a0073 	svcls	0x001a0073
	...
    350c:	00000060 	andeq	r0, r0, r0, rrx
    3510:	00000090 	muleq	r0, r0, r0
    3514:	90500001 	subsls	r0, r0, r1
    3518:	b8000000 	stmdalt	r0, {}	; <UNPREDICTABLE>
    351c:	04000000 	streq	r0, [r0], #-0
    3520:	5001f300 	andpl	pc, r1, r0, lsl #6
    3524:	0000009f 	muleq	r0, pc, r0	; <UNPREDICTABLE>
    3528:	00000000 	andeq	r0, r0, r0
    352c:	00000200 	andeq	r0, r0, r0, lsl #4
    3530:	00006000 	andeq	r6, r0, r0
    3534:	00009000 	andeq	r9, r0, r0
    3538:	50000100 	andpl	r0, r0, r0, lsl #2
    353c:	00000090 	muleq	r0, r0, r0
    3540:	000000b8 	strheq	r0, [r0], -r8
    3544:	01f30004 	mvnseq	r0, r4
    3548:	00009f50 	andeq	r9, r0, r0, asr pc
	...
    3554:	00680000 	rsbeq	r0, r8, r0
    3558:	00900000 	addseq	r0, r0, r0
    355c:	00010000 	andeq	r0, r1, r0
    3560:	00009050 	andeq	r9, r0, r0, asr r0
    3564:	0000b800 	andeq	fp, r0, r0, lsl #16
    3568:	f3000400 	vshl.u8	d0, d0, d0
    356c:	009f5001 	addseq	r5, pc, r1
	...
    3578:	a0000000 	andge	r0, r0, r0
    357c:	b0000000 	andlt	r0, r0, r0
    3580:	01000000 	mrseq	r0, (UNDEF: 0)
    3584:	00b05400 	adcseq	r5, r0, r0, lsl #8
    3588:	00b80000 	adcseq	r0, r8, r0
    358c:	00290000 	eoreq	r0, r9, r0
    3590:	f35001f3 	vbsl	q8, q8, <illegal reg q9.5>
    3594:	2cf75001 	ldclcs	0, cr5, [r7], #4
    3598:	25f425f7 	ldrbcs	r2, [r4, #1527]!	; 0x5f7
    359c:	cccccd08 	stclgt	13, cr12, [ip], {8}
    35a0:	000000cc 	andeq	r0, r0, ip, asr #1
    35a4:	20081e00 	andcs	r1, r8, r0, lsl #28
    35a8:	f72525f7 			; <UNDEFINED> instruction: 0xf72525f7
    35ac:	3300f72c 	movwcc	pc, #1836	; 0x72c	; <UNPREDICTABLE>
    35b0:	311e3525 	tstcc	lr, r5, lsr #10
    35b4:	1e331c24 	cdpne	12, 3, cr1, cr3, cr4, {1}
    35b8:	0000009f 	muleq	r0, pc, r0	; <UNPREDICTABLE>
    35bc:	00000000 	andeq	r0, r0, r0
    35c0:	00000100 	andeq	r0, r0, r0, lsl #2
    35c4:	a0000000 	andge	r0, r0, r0
    35c8:	b0000000 	andlt	r0, r0, r0
    35cc:	01000000 	mrseq	r0, (UNDEF: 0)
    35d0:	00b05500 	adcseq	r5, r0, r0, lsl #10
    35d4:	00b30000 	adcseq	r0, r3, r0
    35d8:	00010000 	andeq	r0, r1, r0
    35dc:	0000b350 	andeq	fp, r0, r0, asr r3
    35e0:	0000b800 	andeq	fp, r0, r0, lsl #16
    35e4:	f3002600 	vmax.u8	d2, d0, d0
    35e8:	2cf75001 	ldclcs	0, cr5, [r7], #4
    35ec:	25f425f7 	ldrbcs	r2, [r4, #1527]!	; 0x5f7
    35f0:	cccccd08 	stclgt	13, cr12, [ip], {8}
    35f4:	000000cc 	andeq	r0, r0, ip, asr #1
    35f8:	20081e00 	andcs	r1, r8, r0, lsl #28
    35fc:	f72525f7 			; <UNDEFINED> instruction: 0xf72525f7
    3600:	3300f72c 	movwcc	pc, #1836	; 0x72c	; <UNPREDICTABLE>
    3604:	80802325 	addhi	r2, r0, r5, lsr #6
    3608:	243240a0 	ldrtcs	r4, [r2], #-160	; 0xffffff60
    360c:	0000009f 	muleq	r0, pc, r0	; <UNPREDICTABLE>
    3610:	00000000 	andeq	r0, r0, r0
    3614:	00000200 	andeq	r0, r0, r0, lsl #4
    3618:	00000101 	andeq	r0, r0, r1, lsl #2
    361c:	0000a000 	andeq	sl, r0, r0
    3620:	0000a400 	andeq	sl, r0, r0, lsl #8
    3624:	50000100 	andpl	r0, r0, r0, lsl #2
    3628:	000000a4 	andeq	r0, r0, r4, lsr #1
    362c:	000000a4 	andeq	r0, r0, r4, lsr #1
    3630:	a4530001 	ldrbge	r0, [r3], #-1
    3634:	a8000000 	stmdage	r0, {}	; <UNPREDICTABLE>
    3638:	08000000 	stmdaeq	r0, {}	; <UNPREDICTABLE>
    363c:	00743100 	rsbseq	r3, r4, r0, lsl #2
    3640:	21007324 	tstcs	r0, r4, lsr #6
    3644:	0000a89f 	muleq	r0, pc, r8	; <UNPREDICTABLE>
    3648:	0000b300 	andeq	fp, r0, r0, lsl #6
    364c:	51000100 	mrspl	r0, (UNDEF: 16)
	...
    3660:	0000003c 	andeq	r0, r0, ip, lsr r0
    3664:	3c500001 	mrrccc	0, 0, r0, r0, cr1	; <UNPREDICTABLE>
    3668:	60000000 	andvs	r0, r0, r0
    366c:	04000000 	streq	r0, [r0], #-0
    3670:	5001f300 	andpl	pc, r1, r0, lsl #6
    3674:	0000009f 	muleq	r0, pc, r0	; <UNPREDICTABLE>
	...
    3684:	00003f00 	andeq	r3, r0, r0, lsl #30
    3688:	51000100 	mrspl	r0, (UNDEF: 16)
    368c:	0000003f 	andeq	r0, r0, pc, lsr r0
    3690:	00000060 	andeq	r0, r0, r0, rrx
    3694:	01f30004 	mvnseq	r0, r4
    3698:	00009f51 	andeq	r9, r0, r1, asr pc
	...
    36a4:	00080000 	andeq	r0, r8, r0
    36a8:	003f0000 	eorseq	r0, pc, r0
    36ac:	00010000 	andeq	r0, r1, r0
    36b0:	00003f51 	andeq	r3, r0, r1, asr pc
    36b4:	00006000 	andeq	r6, r0, r0
    36b8:	f3000400 	vshl.u8	d0, d0, d0
    36bc:	009f5101 	addseq	r5, pc, r1, lsl #2
	...
    36c8:	08000000 	stmdaeq	r0, {}	; <UNPREDICTABLE>
    36cc:	3c000000 	stccc	0, cr0, [r0], {-0}
    36d0:	01000000 	mrseq	r0, (UNDEF: 0)
    36d4:	003c5000 	eorseq	r5, ip, r0
    36d8:	00600000 	rsbeq	r0, r0, r0
    36dc:	00040000 	andeq	r0, r4, r0
    36e0:	9f5001f3 	svcls	0x005001f3
	...
    36f0:	00000048 	andeq	r0, r0, r8, asr #32
    36f4:	00000058 	andeq	r0, r0, r8, asr r0
    36f8:	58540001 	ldmdapl	r4, {r0}^
    36fc:	60000000 	andvs	r0, r0, r0
    3700:	29000000 	stmdbcs	r0, {}	; <UNPREDICTABLE>
    3704:	5001f300 	andpl	pc, r1, r0, lsl #6
    3708:	f75001f3 			; <UNDEFINED> instruction: 0xf75001f3
    370c:	f425f72c 	vld1.8	{d15}, [r5 :128], ip
    3710:	cccd0825 	stclgt	8, cr0, [sp], {37}	; 0x25
    3714:	0000cccc 	andeq	ip, r0, ip, asr #25
    3718:	081e0000 	ldmdaeq	lr, {}	; <UNPREDICTABLE>
    371c:	2525f720 	strcs	pc, [r5, #-1824]!	; 0xfffff8e0
    3720:	00f72cf7 	ldrshteq	r2, [r7], #199	; 0xc7
    3724:	1e352533 	mrcne	5, 1, r2, cr5, cr3, {1}
    3728:	331c2431 	tstcc	ip, #822083584	; 0x31000000
    372c:	00009f1e 	andeq	r9, r0, lr, lsl pc
    3730:	00000000 	andeq	r0, r0, r0
    3734:	00010000 	andeq	r0, r1, r0
    3738:	00000000 	andeq	r0, r0, r0
    373c:	00000048 	andeq	r0, r0, r8, asr #32
    3740:	00000058 	andeq	r0, r0, r8, asr r0
    3744:	58560001 	ldmdapl	r6, {r0}^
    3748:	5b000000 	blpl	3750 <__code_start__-0x48b0>
    374c:	01000000 	mrseq	r0, (UNDEF: 0)
    3750:	005b5000 	subseq	r5, fp, r0
    3754:	00600000 	rsbeq	r0, r0, r0
    3758:	00260000 	eoreq	r0, r6, r0
    375c:	f75001f3 			; <UNDEFINED> instruction: 0xf75001f3
    3760:	f425f72c 	vld1.8	{d15}, [r5 :128], ip
    3764:	cccd0825 	stclgt	8, cr0, [sp], {37}	; 0x25
    3768:	0000cccc 	andeq	ip, r0, ip, asr #25
    376c:	081e0000 	ldmdaeq	lr, {}	; <UNPREDICTABLE>
    3770:	2525f720 	strcs	pc, [r5, #-1824]!	; 0xfffff8e0
    3774:	00f72cf7 	ldrshteq	r2, [r7], #199	; 0xc7
    3778:	80232533 	eorhi	r2, r3, r3, lsr r5
    377c:	3240a080 	subcc	sl, r0, #128, 0	; 0x80
    3780:	00009f24 	andeq	r9, r0, r4, lsr #30
    3784:	00000000 	andeq	r0, r0, r0
    3788:	00020000 	andeq	r0, r2, r0
    378c:	00010100 	andeq	r0, r1, r0, lsl #2
    3790:	00480000 	subeq	r0, r8, r0
    3794:	004c0000 	subeq	r0, ip, r0
    3798:	00010000 	andeq	r0, r1, r0
    379c:	00004c50 	andeq	r4, r0, r0, asr ip
    37a0:	00004c00 	andeq	r4, r0, r0, lsl #24
    37a4:	51000100 	mrspl	r0, (UNDEF: 16)
    37a8:	0000004c 	andeq	r0, r0, ip, asr #32
    37ac:	00000050 	andeq	r0, r0, r0, asr r0
    37b0:	0075000c 	rsbseq	r0, r5, ip
    37b4:	741aff08 	ldrvc	pc, [sl], #-3848	; 0xfffff0f8
    37b8:	00712400 	rsbseq	r2, r1, r0, lsl #8
    37bc:	00509f21 	subseq	r9, r0, r1, lsr #30
    37c0:	00540000 	subseq	r0, r4, r0
    37c4:	00120000 	andseq	r0, r2, r0
    37c8:	24007437 	strcs	r7, [r0], #-1079	; 0xfffffbc9
    37cc:	1a007020 	bne	1f854 <__bss_end__+0x147ac>
    37d0:	ff080075 			; <UNDEFINED> instruction: 0xff080075
    37d4:	2400741a 	strcs	r7, [r0], #-1050	; 0xfffffbe6
    37d8:	00009f21 	andeq	r9, r0, r1, lsr #30
	...
    37e8:	000000b8 	strheq	r0, [r0], -r8
    37ec:	000000c4 	andeq	r0, r0, r4, asr #1
    37f0:	c4500001 	ldrbgt	r0, [r0], #-1
    37f4:	cb000000 	blgt	37fc <__code_start__-0x4804>
    37f8:	01000000 	mrseq	r0, (UNDEF: 0)
    37fc:	00cb5300 	sbceq	r5, fp, r0, lsl #6
    3800:	00d00000 	sbcseq	r0, r0, r0
    3804:	00040000 	andeq	r0, r4, r0
    3808:	9f5001f3 	svcls	0x005001f3
	...
    3818:	00d00000 	sbcseq	r0, r0, r0
    381c:	00dc0000 	sbcseq	r0, ip, r0
    3820:	00010000 	andeq	r0, r1, r0
    3824:	0000dc50 	andeq	sp, r0, r0, asr ip
    3828:	0000e300 	andeq	lr, r0, r0, lsl #6
    382c:	53000100 	movwpl	r0, #256	; 0x100
    3830:	000000e3 	andeq	r0, r0, r3, ror #1
    3834:	000000e8 	andeq	r0, r0, r8, ror #1
    3838:	01f30004 	mvnseq	r0, r4
    383c:	00009f50 	andeq	r9, r0, r0, asr pc
	...
    384c:	000b0000 	andeq	r0, fp, r0
    3850:	00010000 	andeq	r0, r1, r0
    3854:	00000b50 	andeq	r0, r0, r0, asr fp
    3858:	00001400 	andeq	r1, r0, r0, lsl #8
    385c:	54000100 	strpl	r0, [r0], #-256	; 0xffffff00
	...
    3870:	00000018 	andeq	r0, r0, r8, lsl r0
    3874:	18510001 	ldmdane	r1, {r0}^
    3878:	2c000000 	stccs	0, cr0, [r0], {-0}
    387c:	04000000 	streq	r0, [r0], #-0
    3880:	5101f300 	mrspl	pc, SP_irq	; <UNPREDICTABLE>
    3884:	0000009f 	muleq	r0, pc, r0	; <UNPREDICTABLE>
    3888:	00000000 	andeq	r0, r0, r0
    388c:	00000200 	andeq	r0, r0, r0, lsl #4
    3890:	00000000 	andeq	r0, r0, r0
    3894:	01010000 	mrseq	r0, (UNDEF: 1)
    3898:	00000000 	andeq	r0, r0, r0
    389c:	04000000 	streq	r0, [r0], #-0
    38a0:	01000000 	mrseq	r0, (UNDEF: 0)
    38a4:	00045000 	andeq	r5, r4, r0
    38a8:	00080000 	andeq	r0, r8, r0
    38ac:	00010000 	andeq	r0, r1, r0
    38b0:	00000852 	andeq	r0, r0, r2, asr r8
    38b4:	00000c00 	andeq	r0, r0, r0, lsl #24
    38b8:	72000300 	andvc	r0, r0, #0, 6
    38bc:	000c9f01 	andeq	r9, ip, r1, lsl #30
    38c0:	00180000 	andseq	r0, r8, r0
    38c4:	00010000 	andeq	r0, r1, r0
    38c8:	00001852 	andeq	r1, r0, r2, asr r8
    38cc:	00001c00 	andeq	r1, r0, r0, lsl #24
    38d0:	53000100 	movwpl	r0, #256	; 0x100
    38d4:	0000001c 	andeq	r0, r0, ip, lsl r0
    38d8:	00000024 	andeq	r0, r0, r4, lsr #32
    38dc:	01730003 	cmneq	r3, r3
    38e0:	0000249f 	muleq	r0, pc, r4	; <UNPREDICTABLE>
    38e4:	00002c00 	andeq	r2, r0, r0, lsl #24
    38e8:	53000100 	movwpl	r0, #256	; 0x100
	...
    38f4:	00020203 	andeq	r0, r2, r3, lsl #4
    38f8:	00000000 	andeq	r0, r0, r0
    38fc:	00180000 	andseq	r0, r8, r0
    3900:	00010000 	andeq	r0, r1, r0
    3904:	00001851 	andeq	r1, r0, r1, asr r8
    3908:	00001c00 	andeq	r1, r0, r0, lsl #24
    390c:	71000300 	mrsvc	r0, LR_irq
    3910:	001c9f01 	andseq	r9, ip, r1, lsl #30
    3914:	002c0000 	eoreq	r0, ip, r0
    3918:	00010000 	andeq	r0, r1, r0
    391c:	00000051 	andeq	r0, r0, r1, asr r0
	...
    3928:	08000000 	stmdaeq	r0, {}	; <UNPREDICTABLE>
    392c:	0c000000 	stceq	0, cr0, [r0], {-0}
    3930:	02000000 	andeq	r0, r0, #0, 0
    3934:	0c007200 	sfmeq	f7, 4, [r0], {-0}
    3938:	18000000 	stmdane	r0, {}	; <UNPREDICTABLE>
    393c:	02000000 	andeq	r0, r0, #0, 0
    3940:	1c007300 	stcne	3, cr7, [r0], {-0}
    3944:	2c000000 	stccs	0, cr0, [r0], {-0}
    3948:	01000000 	mrseq	r0, (UNDEF: 0)
    394c:	00005200 	andeq	r5, r0, r0, lsl #4
	...
    3964:	00140000 	andseq	r0, r4, r0
    3968:	00010000 	andeq	r0, r1, r0
    396c:	00001450 	andeq	r1, r0, r0, asr r4
    3970:	00001800 	andeq	r1, r0, r0, lsl #16
    3974:	70000300 	andvc	r0, r0, r0, lsl #6
    3978:	00189f01 	andseq	r9, r8, r1, lsl #30
    397c:	00200000 	eoreq	r0, r0, r0
    3980:	00010000 	andeq	r0, r1, r0
    3984:	00002450 	andeq	r2, r0, r0, asr r4
    3988:	00002800 	andeq	r2, r0, r0, lsl #16
    398c:	50000100 	andpl	r0, r0, r0, lsl #2
    3990:	00000028 	andeq	r0, r0, r8, lsr #32
    3994:	00000030 	andeq	r0, r0, r0, lsr r0
    3998:	01700003 	cmneq	r0, r3
    399c:	0000389f 	muleq	r0, pc, r8	; <UNPREDICTABLE>
    39a0:	00004000 	andeq	r4, r0, r0
    39a4:	50000100 	andpl	r0, r0, r0, lsl #2
	...
    39b8:	00240000 	eoreq	r0, r4, r0
    39bc:	00010000 	andeq	r0, r1, r0
    39c0:	00002451 	andeq	r2, r0, r1, asr r4
    39c4:	00002800 	andeq	r2, r0, r0, lsl #16
    39c8:	5c000100 	stfpls	f0, [r0], {-0}
    39cc:	00000028 	andeq	r0, r0, r8, lsr #32
    39d0:	00000044 	andeq	r0, r0, r4, asr #32
    39d4:	00510001 	subseq	r0, r1, r1
	...
    39e0:	00000202 	andeq	r0, r0, r2, lsl #4
    39e4:	00000000 	andeq	r0, r0, r0
    39e8:	00000400 	andeq	r0, r0, r0, lsl #8
    39ec:	51000100 	mrspl	r0, (UNDEF: 16)
    39f0:	00000004 	andeq	r0, r0, r4
    39f4:	00000008 	andeq	r0, r0, r8
    39f8:	01710003 	cmneq	r1, r3
    39fc:	0000089f 	muleq	r0, pc, r8	; <UNPREDICTABLE>
    3a00:	00001800 	andeq	r1, r0, r0, lsl #16
    3a04:	51000100 	mrspl	r0, (UNDEF: 16)
	...
    3a10:	00000002 	andeq	r0, r0, r2
    3a14:	00040000 	andeq	r0, r4, r0
    3a18:	00010000 	andeq	r0, r1, r0
    3a1c:	00000050 	andeq	r0, r0, r0, asr r0
	...
    3a2c:	00000800 	andeq	r0, r0, r0, lsl #16
    3a30:	50000100 	andpl	r0, r0, r0, lsl #2
    3a34:	00000008 	andeq	r0, r0, r8
    3a38:	00000030 	andeq	r0, r0, r0, lsr r0
    3a3c:	01f30004 	mvnseq	r0, r4
    3a40:	00009f50 	andeq	r9, r0, r0, asr pc
	...
    3a50:	00080000 	andeq	r0, r8, r0
    3a54:	00010000 	andeq	r0, r1, r0
    3a58:	00000851 	andeq	r0, r0, r1, asr r8
    3a5c:	00003000 	andeq	r3, r0, r0
    3a60:	f3000400 	vshl.u8	d0, d0, d0
    3a64:	009f5101 	addseq	r5, pc, r1, lsl #2
	...
    3a74:	02020100 	andeq	r0, r2, #0
    3a78:	00000000 	andeq	r0, r0, r0
    3a7c:	00000400 	andeq	r0, r0, r0, lsl #8
    3a80:	52000100 	andpl	r0, r0, #0
    3a84:	00000004 	andeq	r0, r0, r4
    3a88:	00000008 	andeq	r0, r0, r8
    3a8c:	01f30004 	mvnseq	r0, r4
    3a90:	00089f52 	andeq	r9, r8, r2, asr pc
    3a94:	00180000 	andseq	r0, r8, r0
    3a98:	00060000 	andeq	r0, r6, r0
    3a9c:	315201f3 	ldrshcc	r0, [r2, #-19]	; 0xffffffed
    3aa0:	00189f1c 	andseq	r9, r8, ip, lsl pc
    3aa4:	00180000 	andseq	r0, r8, r0
    3aa8:	00040000 	andeq	r0, r4, r0
    3aac:	9f5201f3 	svcls	0x005201f3
    3ab0:	00000018 	andeq	r0, r0, r8, lsl r0
    3ab4:	00000030 	andeq	r0, r0, r0, lsr r0
    3ab8:	01f30006 	mvnseq	r0, r6
    3abc:	9f1c3152 	svcls	0x001c3152
	...
    3ac8:	00000002 	andeq	r0, r0, r2
    3acc:	00000001 	andeq	r0, r0, r1
    3ad0:	00000000 	andeq	r0, r0, r0
    3ad4:	0000000c 	andeq	r0, r0, ip
    3ad8:	0c500001 	mrrceq	0, 0, r0, r0, cr1	; <UNPREDICTABLE>
    3adc:	18000000 	stmdane	r0, {}	; <UNPREDICTABLE>
    3ae0:	03000000 	movweq	r0, #0
    3ae4:	9f7f7000 	svcls	0x007f7000
    3ae8:	00000018 	andeq	r0, r0, r8, lsl r0
    3aec:	00000024 	andeq	r0, r0, r4, lsr #32
    3af0:	28500001 	ldmdacs	r0, {r0}^
    3af4:	2c000000 	stccs	0, cr0, [r0], {-0}
    3af8:	03000000 	movweq	r0, #0
    3afc:	9f7f7000 	svcls	0x007f7000
	...
    3b08:	00000002 	andeq	r0, r0, r2
    3b0c:	00000000 	andeq	r0, r0, r0
    3b10:	000c0000 	andeq	r0, ip, r0
    3b14:	00010000 	andeq	r0, r1, r0
    3b18:	00000c51 	andeq	r0, r0, r1, asr ip
    3b1c:	00001000 	andeq	r1, r0, r0
    3b20:	71000300 	mrsvc	r0, LR_irq
    3b24:	00109f01 	andseq	r9, r0, r1, lsl #30
    3b28:	00300000 	eorseq	r0, r0, r0
    3b2c:	00010000 	andeq	r0, r1, r0
    3b30:	00000051 	andeq	r0, r0, r1, asr r0
    3b34:	00000000 	andeq	r0, r0, r0
	...

Disassembly of section .debug_aranges:

00000000 <.debug_aranges>:
   0:	0000001c 	andeq	r0, r0, ip, lsl r0
   4:	00000002 	andeq	r0, r0, r2
   8:	00040000 	andeq	r0, r4, r0
   c:	00000000 	andeq	r0, r0, r0
  10:	00008038 	andeq	r8, r0, r8, lsr r0
  14:	000000e8 	andeq	r0, r0, r8, ror #1
	...
  20:	0000001c 	andeq	r0, r0, ip, lsl r0
  24:	03a60002 			; <UNDEFINED> instruction: 0x03a60002
  28:	00040000 	andeq	r0, r4, r0
  2c:	00000000 	andeq	r0, r0, r0
  30:	00008120 	andeq	r8, r0, r0, lsr #2
  34:	0000039c 	muleq	r0, ip, r3
	...
  40:	0000001c 	andeq	r0, r0, ip, lsl r0
  44:	0d110002 	ldceq	0, cr0, [r1, #-8]
  48:	00040000 	andeq	r0, r4, r0
  4c:	00000000 	andeq	r0, r0, r0
  50:	000084bc 			; <UNDEFINED> instruction: 0x000084bc
  54:	00000188 	andeq	r0, r0, r8, lsl #3
	...
  60:	0000001c 	andeq	r0, r0, ip, lsl r0
  64:	10100002 	andsne	r0, r0, r2
  68:	00040000 	andeq	r0, r4, r0
  6c:	00000000 	andeq	r0, r0, r0
  70:	00008644 	andeq	r8, r0, r4, asr #12
  74:	000006dc 	ldrdeq	r0, [r0], -ip
	...
  80:	0000001c 	andeq	r0, r0, ip, lsl r0
  84:	20370002 	eorscs	r0, r7, r2
  88:	00040000 	andeq	r0, r4, r0
  8c:	00000000 	andeq	r0, r0, r0
  90:	00008d28 	andeq	r8, r0, r8, lsr #26
  94:	00000078 	andeq	r0, r0, r8, ror r0
	...
  a0:	0000001c 	andeq	r0, r0, ip, lsl r0
  a4:	217b0002 	cmncs	fp, r2
  a8:	00040000 	andeq	r0, r4, r0
  ac:	00000000 	andeq	r0, r0, r0
  b0:	00008da0 	andeq	r8, r0, r0, lsr #27
  b4:	00000058 	andeq	r0, r0, r8, asr r0
	...
  c0:	0000001c 	andeq	r0, r0, ip, lsl r0
  c4:	231c0002 	tstcs	ip, #2, 0
  c8:	00040000 	andeq	r0, r4, r0
  cc:	00000000 	andeq	r0, r0, r0
  d0:	00008df8 	strdeq	r8, [r0], -r8	; <UNPREDICTABLE>
  d4:	00000038 	andeq	r0, r0, r8, lsr r0
	...
  e0:	0000001c 	andeq	r0, r0, ip, lsl r0
  e4:	24130002 	ldrcs	r0, [r3], #-2
  e8:	00040000 	andeq	r0, r4, r0
  ec:	00000000 	andeq	r0, r0, r0
  f0:	00008e30 	andeq	r8, r0, r0, lsr lr
  f4:	00000098 	muleq	r0, r8, r0
	...
 100:	0000001c 	andeq	r0, r0, ip, lsl r0
 104:	25770002 	ldrbcs	r0, [r7, #-2]!
 108:	00040000 	andeq	r0, r4, r0
 10c:	00000000 	andeq	r0, r0, r0
 110:	00008ec8 	andeq	r8, r0, r8, asr #29
 114:	000009b4 			; <UNDEFINED> instruction: 0x000009b4
	...
 120:	0000001c 	andeq	r0, r0, ip, lsl r0
 124:	31fa0002 	mvnscc	r0, r2
 128:	00040000 	andeq	r0, r4, r0
 12c:	00000000 	andeq	r0, r0, r0
 130:	0000987c 	andeq	r9, r0, ip, ror r8
 134:	0000002c 	andeq	r0, r0, ip, lsr #32
	...
 140:	0000001c 	andeq	r0, r0, ip, lsl r0
 144:	332d0002 			; <UNDEFINED> instruction: 0x332d0002
 148:	00040000 	andeq	r0, r4, r0
 14c:	00000000 	andeq	r0, r0, r0
 150:	000098a8 	andeq	r9, r0, r8, lsr #17
 154:	000000f8 	strdeq	r0, [r0], -r8
	...
 160:	0000001c 	andeq	r0, r0, ip, lsl r0
 164:	34c10002 	strbcc	r0, [r1], #2
 168:	00040000 	andeq	r0, r4, r0
 16c:	00000000 	andeq	r0, r0, r0
 170:	000099a0 	andeq	r9, r0, r0, lsr #19
 174:	00000004 	andeq	r0, r0, r4
	...
 180:	0000001c 	andeq	r0, r0, ip, lsl r0
 184:	35930002 	ldrcc	r0, [r3, #2]
 188:	00040000 	andeq	r0, r4, r0
 18c:	00000000 	andeq	r0, r0, r0
 190:	000099a4 	andeq	r9, r0, r4, lsr #19
 194:	0000008c 	andeq	r0, r0, ip, lsl #1
	...
 1a0:	0000001c 	andeq	r0, r0, ip, lsl r0
 1a4:	38140002 	ldmdacc	r4, {r1}
 1a8:	00040000 	andeq	r0, r4, r0
 1ac:	00000000 	andeq	r0, r0, r0
 1b0:	00009a30 	andeq	r9, r0, r0, lsr sl
 1b4:	0000011c 	andeq	r0, r0, ip, lsl r1
	...
 1c0:	0000001c 	andeq	r0, r0, ip, lsl r0
 1c4:	3d570002 	ldclcc	0, cr0, [r7, #-8]
 1c8:	00040000 	andeq	r0, r4, r0
 1cc:	00000000 	andeq	r0, r0, r0
 1d0:	00009b4c 	andeq	r9, r0, ip, asr #22
 1d4:	000001f0 	strdeq	r0, [r0], -r0	; <UNPREDICTABLE>
	...
 1e0:	0000001c 	andeq	r0, r0, ip, lsl r0
 1e4:	43280002 			; <UNDEFINED> instruction: 0x43280002
 1e8:	00040000 	andeq	r0, r4, r0
 1ec:	00000000 	andeq	r0, r0, r0
 1f0:	00009d3c 	andeq	r9, r0, ip, lsr sp
 1f4:	000003b0 			; <UNDEFINED> instruction: 0x000003b0
	...
 200:	0000001c 	andeq	r0, r0, ip, lsl r0
 204:	4c150002 	ldcmi	0, cr0, [r5], {2}
 208:	00040000 	andeq	r0, r4, r0
 20c:	00000000 	andeq	r0, r0, r0
 210:	0000a0ec 	andeq	sl, r0, ip, ror #1
 214:	00000198 	muleq	r0, r8, r1
	...
 220:	0000001c 	andeq	r0, r0, ip, lsl r0
 224:	528c0002 	addpl	r0, ip, #2, 0
 228:	00040000 	andeq	r0, r4, r0
 22c:	00000000 	andeq	r0, r0, r0
 230:	0000a284 	andeq	sl, r0, r4, lsl #5
 234:	0000003c 	andeq	r0, r0, ip, lsr r0
	...
 240:	0000001c 	andeq	r0, r0, ip, lsl r0
 244:	53d90002 	bicspl	r0, r9, #2, 0
 248:	00040000 	andeq	r0, r4, r0
 24c:	00000000 	andeq	r0, r0, r0
 250:	0000a2c0 	andeq	sl, r0, r0, asr #5
 254:	0000002c 	andeq	r0, r0, ip, lsr #32
	...
 260:	0000001c 	andeq	r0, r0, ip, lsl r0
 264:	55140002 	ldrpl	r0, [r4, #-2]
 268:	00040000 	andeq	r0, r4, r0
 26c:	00000000 	andeq	r0, r0, r0
 270:	0000a2ec 	andeq	sl, r0, ip, ror #5
 274:	00000044 	andeq	r0, r0, r4, asr #32
	...
 280:	0000001c 	andeq	r0, r0, ip, lsl r0
 284:	560f0002 	strpl	r0, [pc], -r2
 288:	00040000 	andeq	r0, r4, r0
 28c:	00000000 	andeq	r0, r0, r0
 290:	0000a330 	andeq	sl, r0, r0, lsr r3
 294:	00000018 	andeq	r0, r0, r8, lsl r0
	...
 2a0:	0000001c 	andeq	r0, r0, ip, lsl r0
 2a4:	57220002 	strpl	r0, [r2, -r2]!
 2a8:	00040000 	andeq	r0, r4, r0
 2ac:	00000000 	andeq	r0, r0, r0
 2b0:	0000a348 	andeq	sl, r0, r8, asr #6
 2b4:	00000030 	andeq	r0, r0, r0, lsr r0
	...
 2c0:	0000001c 	andeq	r0, r0, ip, lsl r0
 2c4:	58740002 	ldmdapl	r4!, {r1}^
 2c8:	00040000 	andeq	r0, r4, r0
 2cc:	00000000 	andeq	r0, r0, r0
 2d0:	0000a378 	andeq	sl, r0, r8, ror r3
 2d4:	00000004 	andeq	r0, r0, r4
	...

Disassembly of section .debug_ranges:

00000000 <.debug_ranges>:
   0:	00000014 	andeq	r0, r0, r4, lsl r0
   4:	0000001c 	andeq	r0, r0, ip, lsl r0
   8:	00000020 	andeq	r0, r0, r0, lsr #32
   c:	00000028 	andeq	r0, r0, r8, lsr #32
  10:	0000002c 	andeq	r0, r0, ip, lsr #32
  14:	00000030 	andeq	r0, r0, r0, lsr r0
	...
  20:	00000060 	andeq	r0, r0, r0, rrx
  24:	0000006c 	andeq	r0, r0, ip, rrx
  28:	00000078 	andeq	r0, r0, r8, ror r0
  2c:	00000078 	andeq	r0, r0, r8, ror r0
	...
  38:	00000034 	andeq	r0, r0, r4, lsr r0
  3c:	00000034 	andeq	r0, r0, r4, lsr r0
  40:	00000038 	andeq	r0, r0, r8, lsr r0
  44:	0000003c 	andeq	r0, r0, ip, lsr r0
	...
  50:	00000034 	andeq	r0, r0, r4, lsr r0
  54:	00000034 	andeq	r0, r0, r4, lsr r0
  58:	00000034 	andeq	r0, r0, r4, lsr r0
  5c:	00000038 	andeq	r0, r0, r8, lsr r0
  60:	0000003c 	andeq	r0, r0, ip, lsr r0
  64:	00000044 	andeq	r0, r0, r4, asr #32
	...
  70:	00000058 	andeq	r0, r0, r8, asr r0
  74:	0000005c 	andeq	r0, r0, ip, asr r0
  78:	00000060 	andeq	r0, r0, r0, rrx
  7c:	0000006c 	andeq	r0, r0, ip, rrx
  80:	0000006c 	andeq	r0, r0, ip, rrx
  84:	0000007c 	andeq	r0, r0, ip, ror r0
  88:	0000007c 	andeq	r0, r0, ip, ror r0
  8c:	000000c0 	andeq	r0, r0, r0, asr #1
	...
  98:	00000058 	andeq	r0, r0, r8, asr r0
  9c:	0000005c 	andeq	r0, r0, ip, asr r0
  a0:	00000060 	andeq	r0, r0, r0, rrx
  a4:	00000064 	andeq	r0, r0, r4, rrx
	...
  b0:	0000006c 	andeq	r0, r0, ip, rrx
  b4:	0000006c 	andeq	r0, r0, ip, rrx
  b8:	0000006c 	andeq	r0, r0, ip, rrx
  bc:	00000078 	andeq	r0, r0, r8, ror r0
  c0:	0000007c 	andeq	r0, r0, ip, ror r0
  c4:	0000007c 	andeq	r0, r0, ip, ror r0
  c8:	0000007c 	andeq	r0, r0, ip, ror r0
  cc:	0000007c 	andeq	r0, r0, ip, ror r0
  d0:	00000080 	andeq	r0, r0, r0, lsl #1
  d4:	00000084 	andeq	r0, r0, r4, lsl #1
  d8:	00000088 	andeq	r0, r0, r8, lsl #1
  dc:	00000094 	muleq	r0, r4, r0
	...
  e8:	0000006c 	andeq	r0, r0, ip, rrx
  ec:	0000006c 	andeq	r0, r0, ip, rrx
  f0:	00000070 	andeq	r0, r0, r0, ror r0
  f4:	00000078 	andeq	r0, r0, r8, ror r0
  f8:	0000007c 	andeq	r0, r0, ip, ror r0
  fc:	0000007c 	andeq	r0, r0, ip, ror r0
 100:	00000080 	andeq	r0, r0, r0, lsl #1
 104:	00000084 	andeq	r0, r0, r4, lsl #1
	...
 110:	0000006c 	andeq	r0, r0, ip, rrx
 114:	0000006c 	andeq	r0, r0, ip, rrx
 118:	0000006c 	andeq	r0, r0, ip, rrx
 11c:	00000070 	andeq	r0, r0, r0, ror r0
 120:	0000007c 	andeq	r0, r0, ip, ror r0
 124:	0000007c 	andeq	r0, r0, ip, ror r0
 128:	00000088 	andeq	r0, r0, r8, lsl #1
 12c:	00000094 	muleq	r0, r4, r0
	...
 138:	00000128 	andeq	r0, r0, r8, lsr #2
 13c:	00000154 	andeq	r0, r0, r4, asr r1
 140:	000001f4 	strdeq	r0, [r0], -r4
 144:	00000234 	andeq	r0, r0, r4, lsr r2
	...
 150:	00000184 	andeq	r0, r0, r4, lsl #3
 154:	00000188 	andeq	r0, r0, r8, lsl #3
 158:	0000018c 	andeq	r0, r0, ip, lsl #3
 15c:	00000190 	muleq	r0, r0, r1
 160:	00000194 	muleq	r0, r4, r1
 164:	00000198 	muleq	r0, r8, r1
 168:	000001a0 	andeq	r0, r0, r0, lsr #3
 16c:	000001a0 	andeq	r0, r0, r0, lsr #3
 170:	000001a0 	andeq	r0, r0, r0, lsr #3
 174:	000001b4 			; <UNDEFINED> instruction: 0x000001b4
 178:	000001b4 			; <UNDEFINED> instruction: 0x000001b4
 17c:	000001e8 	andeq	r0, r0, r8, ror #3
 180:	000001f0 	strdeq	r0, [r0], -r0	; <UNPREDICTABLE>
 184:	000001f4 	strdeq	r0, [r0], -r4
	...
 190:	00000184 	andeq	r0, r0, r4, lsl #3
 194:	00000188 	andeq	r0, r0, r8, lsl #3
 198:	0000018c 	andeq	r0, r0, ip, lsl #3
 19c:	00000190 	muleq	r0, r0, r1
 1a0:	00000194 	muleq	r0, r4, r1
 1a4:	00000198 	muleq	r0, r8, r1
 1a8:	000001a0 	andeq	r0, r0, r0, lsr #3
 1ac:	000001b4 			; <UNDEFINED> instruction: 0x000001b4
 1b0:	000001b4 			; <UNDEFINED> instruction: 0x000001b4
 1b4:	000001e8 	andeq	r0, r0, r8, ror #3
 1b8:	000001f0 	strdeq	r0, [r0], -r0	; <UNPREDICTABLE>
 1bc:	000001f4 	strdeq	r0, [r0], -r4
	...
 1c8:	00000184 	andeq	r0, r0, r4, lsl #3
 1cc:	00000188 	andeq	r0, r0, r8, lsl #3
 1d0:	0000018c 	andeq	r0, r0, ip, lsl #3
 1d4:	00000190 	muleq	r0, r0, r1
 1d8:	000001a0 	andeq	r0, r0, r0, lsr #3
 1dc:	000001a0 	andeq	r0, r0, r0, lsr #3
	...
 1e8:	000001b4 			; <UNDEFINED> instruction: 0x000001b4
 1ec:	000001b4 			; <UNDEFINED> instruction: 0x000001b4
 1f0:	000001b4 			; <UNDEFINED> instruction: 0x000001b4
 1f4:	000001c4 	andeq	r0, r0, r4, asr #3
	...
 200:	000001b4 			; <UNDEFINED> instruction: 0x000001b4
 204:	000001b4 			; <UNDEFINED> instruction: 0x000001b4
 208:	000001b8 			; <UNDEFINED> instruction: 0x000001b8
 20c:	000001bc 			; <UNDEFINED> instruction: 0x000001bc
	...
 218:	000001b4 			; <UNDEFINED> instruction: 0x000001b4
 21c:	000001b4 			; <UNDEFINED> instruction: 0x000001b4
 220:	000001b4 			; <UNDEFINED> instruction: 0x000001b4
 224:	000001b8 			; <UNDEFINED> instruction: 0x000001b8
 228:	000001bc 			; <UNDEFINED> instruction: 0x000001bc
 22c:	000001c4 	andeq	r0, r0, r4, asr #3
	...
 238:	000002d4 	ldrdeq	r0, [r0], -r4
 23c:	00000310 	andeq	r0, r0, r0, lsl r3
 240:	00000364 	andeq	r0, r0, r4, ror #6
 244:	0000039c 	muleq	r0, ip, r3
	...
 250:	000000b8 	strheq	r0, [r0], -r8
 254:	000000c4 	andeq	r0, r0, r4, asr #1
 258:	000000e0 	andeq	r0, r0, r0, ror #1
 25c:	00000110 	andeq	r0, r0, r0, lsl r1
	...
 268:	00000044 	andeq	r0, r0, r4, asr #32
 26c:	000000d8 	ldrdeq	r0, [r0], -r8
 270:	000000e0 	andeq	r0, r0, r0, ror #1
 274:	00000114 	andeq	r0, r0, r4, lsl r1
	...
 280:	00000044 	andeq	r0, r0, r4, asr #32
 284:	000000d0 	ldrdeq	r0, [r0], -r0	; <UNPREDICTABLE>
 288:	000000e0 	andeq	r0, r0, r0, ror #1
 28c:	000000e8 	andeq	r0, r0, r8, ror #1
 290:	000000f4 	strdeq	r0, [r0], -r4
 294:	00000108 	andeq	r0, r0, r8, lsl #2
	...
 2a0:	00000044 	andeq	r0, r0, r4, asr #32
 2a4:	0000004c 	andeq	r0, r0, ip, asr #32
 2a8:	0000007c 	andeq	r0, r0, ip, ror r0
 2ac:	000000d0 	ldrdeq	r0, [r0], -r0	; <UNPREDICTABLE>
 2b0:	000000e0 	andeq	r0, r0, r0, ror #1
 2b4:	000000e8 	andeq	r0, r0, r8, ror #1
 2b8:	000000f4 	strdeq	r0, [r0], -r4
 2bc:	00000108 	andeq	r0, r0, r8, lsl #2
	...
 2c8:	0000004c 	andeq	r0, r0, ip, asr #32
 2cc:	00000058 	andeq	r0, r0, r8, asr r0
 2d0:	00000058 	andeq	r0, r0, r8, asr r0
 2d4:	00000074 	andeq	r0, r0, r4, ror r0
	...
 2e0:	0000004c 	andeq	r0, r0, ip, asr #32
 2e4:	00000058 	andeq	r0, r0, r8, asr r0
 2e8:	00000058 	andeq	r0, r0, r8, asr r0
 2ec:	00000060 	andeq	r0, r0, r0, rrx
 2f0:	00000060 	andeq	r0, r0, r0, rrx
 2f4:	00000074 	andeq	r0, r0, r4, ror r0
	...
 300:	00000050 	andeq	r0, r0, r0, asr r0
 304:	00000058 	andeq	r0, r0, r8, asr r0
 308:	00000058 	andeq	r0, r0, r8, asr r0
 30c:	00000060 	andeq	r0, r0, r0, rrx
 310:	00000060 	andeq	r0, r0, r0, rrx
 314:	00000070 	andeq	r0, r0, r0, ror r0
	...
 320:	0000015c 	andeq	r0, r0, ip, asr r1
 324:	0000015c 	andeq	r0, r0, ip, asr r1
 328:	00000164 	andeq	r0, r0, r4, ror #2
 32c:	0000018c 	andeq	r0, r0, ip, lsl #3
	...
 338:	0000021c 	andeq	r0, r0, ip, lsl r2
 33c:	00000228 	andeq	r0, r0, r8, lsr #4
 340:	0000022c 	andeq	r0, r0, ip, lsr #4
 344:	00000230 	andeq	r0, r0, r0, lsr r2
 348:	00000238 	andeq	r0, r0, r8, lsr r2
 34c:	0000028c 	andeq	r0, r0, ip, lsl #5
 350:	000002c8 	andeq	r0, r0, r8, asr #5
 354:	000002e0 	andeq	r0, r0, r0, ror #5
	...
 360:	00000340 	andeq	r0, r0, r0, asr #6
 364:	00000358 	andeq	r0, r0, r8, asr r3
 368:	0000035c 	andeq	r0, r0, ip, asr r3
 36c:	00000360 	andeq	r0, r0, r0, ror #6
	...
 378:	000003bc 			; <UNDEFINED> instruction: 0x000003bc
 37c:	000003c4 	andeq	r0, r0, r4, asr #7
 380:	000003d0 	ldrdeq	r0, [r0], -r0	; <UNPREDICTABLE>
 384:	000003f0 	strdeq	r0, [r0], -r0	; <UNPREDICTABLE>
	...
 390:	000003f4 	strdeq	r0, [r0], -r4
 394:	000003f4 	strdeq	r0, [r0], -r4
 398:	000003f8 	strdeq	r0, [r0], -r8
 39c:	00000404 	andeq	r0, r0, r4, lsl #8
 3a0:	00000408 	andeq	r0, r0, r8, lsl #8
 3a4:	000004a0 	andeq	r0, r0, r0, lsr #9
 3a8:	000004a8 	andeq	r0, r0, r8, lsr #9
 3ac:	00000500 	andeq	r0, r0, r0, lsl #10
	...
 3b8:	00000408 	andeq	r0, r0, r8, lsl #8
 3bc:	0000048c 	andeq	r0, r0, ip, lsl #9
 3c0:	00000498 	muleq	r0, r8, r4
 3c4:	0000049c 	muleq	r0, ip, r4
 3c8:	000004a8 	andeq	r0, r0, r8, lsr #9
 3cc:	00000500 	andeq	r0, r0, r0, lsl #10
	...
 3d8:	00000410 	andeq	r0, r0, r0, lsl r4
 3dc:	00000414 	andeq	r0, r0, r4, lsl r4
 3e0:	0000048c 	andeq	r0, r0, ip, lsl #9
 3e4:	0000048c 	andeq	r0, r0, ip, lsl #9
 3e8:	000004a8 	andeq	r0, r0, r8, lsr #9
 3ec:	00000500 	andeq	r0, r0, r0, lsl #10
	...
 3f8:	000004ac 	andeq	r0, r0, ip, lsr #9
 3fc:	000004b4 			; <UNDEFINED> instruction: 0x000004b4
 400:	000004c4 	andeq	r0, r0, r4, asr #9
 404:	000004d8 	ldrdeq	r0, [r0], -r8
	...
 410:	00000414 	andeq	r0, r0, r4, lsl r4
 414:	00000414 	andeq	r0, r0, r4, lsl r4
 418:	00000420 	andeq	r0, r0, r0, lsr #8
 41c:	00000434 	andeq	r0, r0, r4, lsr r4
	...
 428:	00000434 	andeq	r0, r0, r4, lsr r4
 42c:	00000438 	andeq	r0, r0, r8, lsr r4
 430:	0000043c 	andeq	r0, r0, ip, lsr r4
 434:	00000464 	andeq	r0, r0, r4, ror #8
	...
 440:	000005c0 	andeq	r0, r0, r0, asr #11
 444:	0000062c 	andeq	r0, r0, ip, lsr #12
 448:	00000638 	andeq	r0, r0, r8, lsr r6
 44c:	000006b4 			; <UNDEFINED> instruction: 0x000006b4
	...
 458:	000005d4 	ldrdeq	r0, [r0], -r4
 45c:	000005e0 	andeq	r0, r0, r0, ror #11
 460:	000005ec 	andeq	r0, r0, ip, ror #11
 464:	00000618 	andeq	r0, r0, r8, lsl r6
 468:	00000638 	andeq	r0, r0, r8, lsr r6
 46c:	00000688 	andeq	r0, r0, r8, lsl #13
	...
 478:	000005ec 	andeq	r0, r0, ip, ror #11
 47c:	000005f4 	strdeq	r0, [r0], -r4
 480:	00000638 	andeq	r0, r0, r8, lsr r6
 484:	0000063c 	andeq	r0, r0, ip, lsr r6
 488:	00000640 	andeq	r0, r0, r0, asr #12
 48c:	00000644 	andeq	r0, r0, r4, asr #12
 490:	00000648 	andeq	r0, r0, r8, asr #12
 494:	00000650 	andeq	r0, r0, r0, asr r6
 498:	00000680 	andeq	r0, r0, r0, lsl #13
 49c:	00000680 	andeq	r0, r0, r0, lsl #13
	...
 4a8:	000000a4 	andeq	r0, r0, r4, lsr #1
 4ac:	00000148 	andeq	r0, r0, r8, asr #2
 4b0:	00000158 	andeq	r0, r0, r8, asr r1
 4b4:	0000015c 	andeq	r0, r0, ip, asr r1
 4b8:	00000274 	andeq	r0, r0, r4, ror r2
 4bc:	00000278 	andeq	r0, r0, r8, ror r2
 4c0:	0000027c 	andeq	r0, r0, ip, ror r2
 4c4:	00000280 	andeq	r0, r0, r0, lsl #5
 4c8:	00000288 	andeq	r0, r0, r8, lsl #5
 4cc:	0000029c 	muleq	r0, ip, r2
 4d0:	000002c0 	andeq	r0, r0, r0, asr #5
 4d4:	000002cc 	andeq	r0, r0, ip, asr #5
 4d8:	000002f0 	strdeq	r0, [r0], -r0	; <UNPREDICTABLE>
 4dc:	000002f0 	strdeq	r0, [r0], -r0	; <UNPREDICTABLE>
 4e0:	000002f4 	strdeq	r0, [r0], -r4
 4e4:	000002f8 	strdeq	r0, [r0], -r8
	...
 4f0:	00000148 	andeq	r0, r0, r8, asr #2
 4f4:	00000158 	andeq	r0, r0, r8, asr r1
 4f8:	0000015c 	andeq	r0, r0, ip, asr r1
 4fc:	0000018c 	andeq	r0, r0, ip, lsl #3
 500:	0000029c 	muleq	r0, ip, r2
 504:	000002ac 	andeq	r0, r0, ip, lsr #5
	...
 510:	000003c8 	andeq	r0, r0, r8, asr #7
 514:	000003d0 	ldrdeq	r0, [r0], -r0	; <UNPREDICTABLE>
 518:	00000404 	andeq	r0, r0, r4, lsl #8
 51c:	000004ac 	andeq	r0, r0, ip, lsr #9
 520:	000004c0 	andeq	r0, r0, r0, asr #9
 524:	00000920 	andeq	r0, r0, r0, lsr #18
 528:	00000928 	andeq	r0, r0, r8, lsr #18
 52c:	000009b4 			; <UNDEFINED> instruction: 0x000009b4
	...
 538:	000003c8 	andeq	r0, r0, r8, asr #7
 53c:	000003d0 	ldrdeq	r0, [r0], -r0	; <UNPREDICTABLE>
 540:	00000504 	andeq	r0, r0, r4, lsl #10
 544:	000005d0 	ldrdeq	r0, [r0], -r0	; <UNPREDICTABLE>
 548:	00000800 	andeq	r0, r0, r0, lsl #16
 54c:	00000888 	andeq	r0, r0, r8, lsl #17
 550:	00000930 	andeq	r0, r0, r0, lsr r9
 554:	000009b4 			; <UNDEFINED> instruction: 0x000009b4
	...
 560:	00000404 	andeq	r0, r0, r4, lsl #8
 564:	00000408 	andeq	r0, r0, r8, lsl #8
 568:	00000414 	andeq	r0, r0, r4, lsl r4
 56c:	00000414 	andeq	r0, r0, r4, lsl r4
 570:	00000428 	andeq	r0, r0, r8, lsr #8
 574:	0000042c 	andeq	r0, r0, ip, lsr #8
	...
 580:	000005fc 	strdeq	r0, [r0], -ip
 584:	00000700 	andeq	r0, r0, r0, lsl #14
 588:	000007ec 	andeq	r0, r0, ip, ror #15
 58c:	000007f4 	strdeq	r0, [r0], -r4
 590:	00000888 	andeq	r0, r0, r8, lsl #17
 594:	00000894 	muleq	r0, r4, r8
 598:	000008a8 	andeq	r0, r0, r8, lsr #17
 59c:	000008bc 			; <UNDEFINED> instruction: 0x000008bc
 5a0:	00000910 	andeq	r0, r0, r0, lsl r9
 5a4:	00000920 	andeq	r0, r0, r0, lsr #18
	...
 5b0:	00000600 	andeq	r0, r0, r0, lsl #12
 5b4:	00000604 	andeq	r0, r0, r4, lsl #12
 5b8:	00000608 	andeq	r0, r0, r8, lsl #12
 5bc:	000006b4 			; <UNDEFINED> instruction: 0x000006b4
 5c0:	000006cc 	andeq	r0, r0, ip, asr #13
 5c4:	000006d0 	ldrdeq	r0, [r0], -r0	; <UNPREDICTABLE>
 5c8:	000008a8 	andeq	r0, r0, r8, lsr #17
 5cc:	000008b8 			; <UNDEFINED> instruction: 0x000008b8
 5d0:	00000910 	andeq	r0, r0, r0, lsl r9
 5d4:	00000920 	andeq	r0, r0, r0, lsr #18
	...
 5e0:	000006b4 			; <UNDEFINED> instruction: 0x000006b4
 5e4:	000006cc 	andeq	r0, r0, ip, asr #13
 5e8:	000006d0 	ldrdeq	r0, [r0], -r0	; <UNPREDICTABLE>
 5ec:	00000700 	andeq	r0, r0, r0, lsl #14
 5f0:	000007ec 	andeq	r0, r0, ip, ror #15
 5f4:	000007f4 	strdeq	r0, [r0], -r4
 5f8:	00000888 	andeq	r0, r0, r8, lsl #17
 5fc:	00000894 	muleq	r0, r4, r8
 600:	000008b8 			; <UNDEFINED> instruction: 0x000008b8
 604:	000008bc 			; <UNDEFINED> instruction: 0x000008bc
	...
 610:	00000700 	andeq	r0, r0, r0, lsl #14
 614:	00000708 	andeq	r0, r0, r8, lsl #14
 618:	0000070c 	andeq	r0, r0, ip, lsl #14
 61c:	000007ec 	andeq	r0, r0, ip, ror #15
 620:	00000894 	muleq	r0, r4, r8
 624:	000008a8 	andeq	r0, r0, r8, lsr #17
	...
 630:	00000728 	andeq	r0, r0, r8, lsr #14
 634:	000007a4 	andeq	r0, r0, r4, lsr #15
 638:	000007ac 	andeq	r0, r0, ip, lsr #15
 63c:	000007b0 			; <UNDEFINED> instruction: 0x000007b0
 640:	00000894 	muleq	r0, r4, r8
 644:	00000898 	muleq	r0, r8, r8
 648:	0000089c 	muleq	r0, ip, r8
 64c:	000008a0 	andeq	r0, r0, r0, lsr #17
	...
 658:	000007a4 	andeq	r0, r0, r4, lsr #15
 65c:	000007ac 	andeq	r0, r0, ip, lsr #15
 660:	000007b0 			; <UNDEFINED> instruction: 0x000007b0
 664:	000007ec 	andeq	r0, r0, ip, ror #15
 668:	00000898 	muleq	r0, r8, r8
 66c:	0000089c 	muleq	r0, ip, r8
 670:	000008a0 	andeq	r0, r0, r0, lsr #17
 674:	000008a8 	andeq	r0, r0, r8, lsr #17
	...
 680:	000099d0 	ldrdeq	r9, [r0], -r0
 684:	000099d0 	ldrdeq	r9, [r0], -r0
 688:	000099d4 	ldrdeq	r9, [r0], -r4
 68c:	000099dc 	ldrdeq	r9, [r0], -ip
	...
 698:	000099a4 	andeq	r9, r0, r4, lsr #19
 69c:	00009a30 	andeq	r9, r0, r0, lsr sl
	...
 6a8:	00000030 	andeq	r0, r0, r0, lsr r0
 6ac:	00000030 	andeq	r0, r0, r0, lsr r0
 6b0:	00000038 	andeq	r0, r0, r8, lsr r0
 6b4:	0000004c 	andeq	r0, r0, ip, asr #32
	...
 6c0:	0000004c 	andeq	r0, r0, ip, asr #32
 6c4:	00000050 	andeq	r0, r0, r0, asr r0
 6c8:	00000050 	andeq	r0, r0, r0, asr r0
 6cc:	00000078 	andeq	r0, r0, r8, ror r0
	...
 6d8:	0000004c 	andeq	r0, r0, ip, asr #32
 6dc:	00000050 	andeq	r0, r0, r0, asr r0
 6e0:	00000050 	andeq	r0, r0, r0, asr r0
 6e4:	00000060 	andeq	r0, r0, r0, rrx
 6e8:	00000064 	andeq	r0, r0, r4, rrx
 6ec:	00000068 	andeq	r0, r0, r8, rrx
	...
 6f8:	0000004c 	andeq	r0, r0, ip, asr #32
 6fc:	00000050 	andeq	r0, r0, r0, asr r0
 700:	00000054 	andeq	r0, r0, r4, asr r0
 704:	00000060 	andeq	r0, r0, r0, rrx
	...
 710:	0000009c 	muleq	r0, ip, r0
 714:	000000a0 	andeq	r0, r0, r0, lsr #1
 718:	000000a0 	andeq	r0, r0, r0, lsr #1
 71c:	000000c8 	andeq	r0, r0, r8, asr #1
	...
 728:	0000009c 	muleq	r0, ip, r0
 72c:	000000a0 	andeq	r0, r0, r0, lsr #1
 730:	000000a0 	andeq	r0, r0, r0, lsr #1
 734:	000000b0 	strheq	r0, [r0], -r0	; <UNPREDICTABLE>
 738:	000000b4 	strheq	r0, [r0], -r4
 73c:	000000b8 	strheq	r0, [r0], -r8
	...
 748:	0000009c 	muleq	r0, ip, r0
 74c:	000000a0 	andeq	r0, r0, r0, lsr #1
 750:	000000a4 	andeq	r0, r0, r4, lsr #1
 754:	000000b0 	strheq	r0, [r0], -r0	; <UNPREDICTABLE>
	...
 760:	000000c8 	andeq	r0, r0, r8, asr #1
 764:	000000c8 	andeq	r0, r0, r8, asr #1
 768:	000000cc 	andeq	r0, r0, ip, asr #1
 76c:	0000011c 	andeq	r0, r0, ip, lsl r1
	...
 778:	000000f0 	strdeq	r0, [r0], -r0	; <UNPREDICTABLE>
 77c:	000000f4 	strdeq	r0, [r0], -r4
 780:	000000f4 	strdeq	r0, [r0], -r4
 784:	0000011c 	andeq	r0, r0, ip, lsl r1
	...
 790:	000000f0 	strdeq	r0, [r0], -r0	; <UNPREDICTABLE>
 794:	000000f4 	strdeq	r0, [r0], -r4
 798:	000000f4 	strdeq	r0, [r0], -r4
 79c:	00000104 	andeq	r0, r0, r4, lsl #2
 7a0:	00000108 	andeq	r0, r0, r8, lsl #2
 7a4:	0000010c 	andeq	r0, r0, ip, lsl #2
	...
 7b0:	000000f0 	strdeq	r0, [r0], -r0	; <UNPREDICTABLE>
 7b4:	000000f4 	strdeq	r0, [r0], -r4
 7b8:	000000f8 	strdeq	r0, [r0], -r8
 7bc:	00000104 	andeq	r0, r0, r4, lsl #2
	...
 7c8:	00000134 	andeq	r0, r0, r4, lsr r1
 7cc:	00000134 	andeq	r0, r0, r4, lsr r1
 7d0:	00000134 	andeq	r0, r0, r4, lsr r1
 7d4:	0000013c 	andeq	r0, r0, ip, lsr r1
	...
 7e0:	0000024c 	andeq	r0, r0, ip, asr #4
 7e4:	00000264 	andeq	r0, r0, r4, ror #4
 7e8:	000002c8 	andeq	r0, r0, r8, asr #5
 7ec:	000002e8 	andeq	r0, r0, r8, ror #5
	...
 7f8:	00000008 	andeq	r0, r0, r8
 7fc:	0000000c 	andeq	r0, r0, ip
 800:	00000014 	andeq	r0, r0, r4, lsl r0
 804:	00000054 	andeq	r0, r0, r4, asr r0
 808:	00000058 	andeq	r0, r0, r8, asr r0
 80c:	00000060 	andeq	r0, r0, r0, rrx
	...
 818:	00000060 	andeq	r0, r0, r0, rrx
 81c:	00000068 	andeq	r0, r0, r8, rrx
 820:	0000006c 	andeq	r0, r0, ip, rrx
 824:	000000ac 	andeq	r0, r0, ip, lsr #1
 828:	000000b0 	strheq	r0, [r0], -r0	; <UNPREDICTABLE>
 82c:	000000b8 	strheq	r0, [r0], -r8
	...
 838:	00000068 	andeq	r0, r0, r8, rrx
 83c:	00000068 	andeq	r0, r0, r8, rrx
 840:	0000006c 	andeq	r0, r0, ip, rrx
 844:	000000ac 	andeq	r0, r0, ip, lsr #1
 848:	000000b0 	strheq	r0, [r0], -r0	; <UNPREDICTABLE>
 84c:	000000b8 	strheq	r0, [r0], -r8
	...
 858:	000000e8 	andeq	r0, r0, r8, ror #1
 85c:	000000f0 	strdeq	r0, [r0], -r0	; <UNPREDICTABLE>
 860:	000000f4 	strdeq	r0, [r0], -r4
 864:	00000134 	andeq	r0, r0, r4, lsr r1
 868:	00000138 	andeq	r0, r0, r8, lsr r1
 86c:	00000140 	andeq	r0, r0, r0, asr #2
	...
 878:	000000f0 	strdeq	r0, [r0], -r0	; <UNPREDICTABLE>
 87c:	000000f0 	strdeq	r0, [r0], -r0	; <UNPREDICTABLE>
 880:	000000f4 	strdeq	r0, [r0], -r4
 884:	00000134 	andeq	r0, r0, r4, lsr r1
 888:	00000138 	andeq	r0, r0, r8, lsr r1
 88c:	00000140 	andeq	r0, r0, r0, asr #2
	...
 898:	00000144 	andeq	r0, r0, r4, asr #2
 89c:	00000148 	andeq	r0, r0, r8, asr #2
 8a0:	00000150 	andeq	r0, r0, r0, asr r1
 8a4:	0000015c 	andeq	r0, r0, ip, asr r1
	...

Disassembly of section .debug_line:

00000000 <.debug_line>:
       0:	0000013e 	andeq	r0, r0, lr, lsr r1
       4:	00840003 	addeq	r0, r4, r3
       8:	01020000 	mrseq	r0, (UNDEF: 2)
       c:	000d0efb 	strdeq	r0, [sp], -fp
      10:	01010101 	tsteq	r1, r1, lsl #2
      14:	01000000 	mrseq	r0, (UNDEF: 0)
      18:	74010000 	strvc	r0, [r1], #-0
      1c:	73747365 	cmnvc	r4, #-1811939327	; 0x94000001
      20:	302e322d 	eorcc	r3, lr, sp, lsr #4
      24:	2f002e00 	svccs	0x00002e00
      28:	72657355 	rsbvc	r7, r5, #1409286145	; 0x54000001
      2c:	696d2f73 	stmdbvs	sp!, {r0, r1, r4, r5, r6, r8, r9, sl, fp, sp}^
      30:	2f73656c 	svccs	0x0073656c
      34:	72756f53 	rsbsvc	r6, r5, #332	; 0x14c
      38:	632f6563 			; <UNDEFINED> instruction: 0x632f6563
      3c:	30343273 	eorscc	r3, r4, r3, ror r2
      40:	6c2f786c 	stcvs	8, cr7, [pc], #-432	; fffffe98 <__bss_end__+0xffff4df0>
      44:	69706269 	ldmdbvs	r0!, {r0, r3, r5, r6, r9, sp, lr}^
      48:	636e692f 	cmnvs	lr, #770048	; 0xbc000
      4c:	6564756c 	strbvs	r7, [r4, #-1388]!	; 0xfffffa94
      50:	61700000 	cmnvs	r0, r0
      54:	2d317472 	cfldrscs	mvf7, [r1, #-456]!	; 0xfffffe38
      58:	74736574 	ldrbtvc	r6, [r3], #-1396	; 0xfffffa8c
      5c:	6f6e2d35 	svcvs	0x006e2d35
      60:	6775622d 	ldrbvs	r6, [r5, -sp, lsr #4]!
      64:	0100632e 	tsteq	r0, lr, lsr #6
      68:	72730000 	rsbsvc	r0, r3, #0, 0
      6c:	6f6c2d63 	svcvs	0x006c2d63
      70:	00682e63 	rsbeq	r2, r8, r3, ror #28
      74:	72000002 	andvc	r0, r0, #2, 0
      78:	682e6970 	stmdavs	lr!, {r4, r5, r6, r8, fp, sp, lr}
      7c:	00000300 	andeq	r0, r0, r0, lsl #6
      80:	6c616b63 			; <UNDEFINED> instruction: 0x6c616b63
      84:	2e636f6c 	cdpcs	15, 6, cr6, cr3, cr12, {3}
      88:	00020068 	andeq	r0, r2, r8, rrx
      8c:	14050000 	strne	r0, [r5], #-0
      90:	38020500 	stmdacc	r2, {r8, sl}
      94:	16000080 	strne	r0, [r0], -r0, lsl #1
      98:	05130505 	ldreq	r0, [r3, #-1285]	; 0xfffffafb
      9c:	05110614 	ldreq	r0, [r1, #-1556]	; 0xfffff9ec
      a0:	14052f05 	strne	r2, [r5], #-3845	; 0xfffff0fb
      a4:	2f05052d 	svccs	0x0005052d
      a8:	10053006 	andne	r3, r5, r6
      ac:	02040106 	andeq	r0, r4, #-2147483647	; 0x80000001
      b0:	32060b05 	andcc	r0, r6, #5120	; 0x1400
      b4:	05130505 	ldreq	r0, [r3, #-1285]	; 0xfffffafb
      b8:	4a01060c 	bmi	418f0 <__bss_end__+0x36848>
      bc:	10050104 	andne	r0, r5, r4, lsl #2
      c0:	0502040d 	streq	r0, [r2, #-1037]	; 0xfffffbf3
      c4:	0104330c 	tsteq	r4, ip, lsl #6
      c8:	04451005 	strbeq	r1, [r5], #-5
      cc:	330c0502 	movwcc	r0, #50434	; 0xc502
      d0:	10050104 	andne	r0, r5, r4, lsl #2
      d4:	06050529 	streq	r0, [r5], -r9, lsr #10
      d8:	06100583 	ldreq	r0, [r0], -r3, lsl #11
      dc:	05020401 	streq	r0, [r2, #-1025]	; 0xfffffbff
      e0:	0531060b 	ldreq	r0, [r1, #-1547]!	; 0xfffff9f5
      e4:	0c051305 	stceq	3, cr1, [r5], {5}
      e8:	04660106 	strbteq	r0, [r6], #-262	; 0xfffffefa
      ec:	0e100501 	cfmul32eq	mvfx0, mvfx0, mvfx1
      f0:	0c050204 	sfmeq	f0, 4, [r5], {4}
      f4:	05010486 	streq	r0, [r1, #-1158]	; 0xfffffb7a
      f8:	10056305 	andne	r6, r5, r5, lsl #6
      fc:	06050549 	streq	r0, [r5], -r9, asr #10
     100:	0502042f 	streq	r0, [r2, #-1071]	; 0xfffffbd1
     104:	0505140b 	streq	r1, [r5, #-1035]	; 0xfffffbf5
     108:	04010613 	streq	r0, [r1], #-1555	; 0xfffff9ed
     10c:	062e0f01 	strteq	r0, [lr], -r1, lsl #30
     110:	0502042f 	streq	r0, [r2, #-1071]	; 0xfffffbd1
     114:	0505130b 	streq	r1, [r5, #-779]	; 0xfffffcf5
     118:	060c0513 			; <UNDEFINED> instruction: 0x060c0513
     11c:	01046601 	tsteq	r4, r1, lsl #12
     120:	06100505 	ldreq	r0, [r0], -r5, lsl #10
     124:	06080584 	streq	r0, [r8], -r4, lsl #11
     128:	2e070501 	cfsh32cs	mvfx0, mvfx7, #1
     12c:	4b060905 	blmi	182548 <__bss_end__+0x1774a0>
     130:	01050114 	tsteq	r5, r4, lsl r1
     134:	09052f06 	stmdbeq	r5, {r1, r2, r8, r9, sl, fp, sp}
     138:	012c0649 			; <UNDEFINED> instruction: 0x012c0649
     13c:	000e029e 	muleq	lr, lr, r2
     140:	04860101 	streq	r0, [r6], #257	; 0x101
     144:	00030000 	andeq	r0, r3, r0
     148:	000000e5 	andeq	r0, r0, r5, ror #1
     14c:	0efb0102 	cdpeq	1, 15, cr0, cr11, cr2, {0}
     150:	0101000d 	tsteq	r1, sp
     154:	00000101 	andeq	r0, r0, r1, lsl #2
     158:	00000100 	andeq	r0, r0, r0, lsl #2
     15c:	706f2f01 	rsbvc	r2, pc, r1, lsl #30
     160:	6f682f74 	svcvs	0x00682f74
     164:	7262656d 	rsbvc	r6, r2, #457179136	; 0x1b400000
     168:	432f7765 			; <UNDEFINED> instruction: 0x432f7765
     16c:	616c6c65 	cmnvs	ip, r5, ror #24
     170:	72612f72 	rsbvc	r2, r1, #456	; 0x1c8
     174:	6f6e2d6d 	svcvs	0x006e2d6d
     178:	652d656e 	strvs	r6, [sp, #-1390]!	; 0xfffffa92
     17c:	2d696261 	sfmcs	f6, 2, [r9, #-388]!	; 0xfffffe7c
     180:	2d392f39 	ldccs	15, cr2, [r9, #-228]!	; 0xffffff1c
     184:	39313032 	ldmdbcc	r1!, {r1, r4, r5, ip, sp}
     188:	632d3471 			; <UNDEFINED> instruction: 0x632d3471
     18c:	37303173 			; <UNDEFINED> instruction: 0x37303173
     190:	696c2f65 	stmdbvs	ip!, {r0, r2, r5, r6, r8, r9, sl, fp, sp}^
     194:	63672f62 	cmnvs	r7, #392	; 0x188
     198:	72612f63 	rsbvc	r2, r1, #396	; 0x18c
     19c:	6f6e2d6d 	svcvs	0x006e2d6d
     1a0:	652d656e 	strvs	r6, [sp, #-1390]!	; 0xfffffa92
     1a4:	2f696261 	svccs	0x00696261
     1a8:	2e322e39 	mrccs	14, 1, r2, cr2, cr9, {1}
     1ac:	6e692f31 	mcrvs	15, 3, r2, cr9, cr1, {1}
     1b0:	64756c63 	ldrbtvs	r6, [r5], #-3171	; 0xfffff39d
     1b4:	552f0065 	strpl	r0, [pc, #-101]!	; 157 <__code_start__-0x7ea9>
     1b8:	73726573 	cmnvc	r2, #482344960	; 0x1cc00000
     1bc:	6c696d2f 	stclvs	13, cr6, [r9], #-188	; 0xffffff44
     1c0:	532f7365 			; <UNDEFINED> instruction: 0x532f7365
     1c4:	6372756f 	cmnvs	r2, #465567744	; 0x1bc00000
     1c8:	73632f65 	cmnvc	r3, #404	; 0x194
     1cc:	6c303432 	cfldrsvs	mvf3, [r0], #-200	; 0xffffff38
     1d0:	696c2f78 	stmdbvs	ip!, {r3, r4, r5, r6, r8, r9, sl, fp, sp}^
     1d4:	2f697062 	svccs	0x00697062
     1d8:	6c636e69 	stclvs	14, cr6, [r3], #-420	; 0xfffffe5c
     1dc:	00656475 	rsbeq	r6, r5, r5, ror r4
     1e0:	616b6300 	cmnvs	fp, r0, lsl #6
     1e4:	636f6c6c 	cmnvs	pc, #108, 24	; 0x6c00
     1e8:	0000632e 	andeq	r6, r0, lr, lsr #6
     1ec:	6b630000 	blvs	18c01f4 <__bss_end__+0x18b514c>
     1f0:	6f6c6c61 	svcvs	0x006c6c61
     1f4:	00682e63 	rsbeq	r2, r8, r3, ror #28
     1f8:	73000000 	movwvc	r0, #0
     1fc:	6e696474 	mcrvs	4, 3, r6, cr9, cr4, {3}
     200:	63672d74 	cmnvs	r7, #116, 26	; 0x1d00
     204:	00682e63 	rsbeq	r2, r8, r3, ror #28
     208:	72000001 	andvc	r0, r0, #1, 0
     20c:	682e6970 	stmdavs	lr!, {r4, r5, r6, r8, fp, sp, lr}
     210:	00000200 	andeq	r0, r0, r0, lsl #4
     214:	2d637273 	sfmcs	f7, 2, [r3, #-460]!	; 0xfffffe34
     218:	2e636f6c 	cdpcs	15, 6, cr6, cr3, cr12, {3}
     21c:	00000068 	andeq	r0, r0, r8, rrx
     220:	2d726b00 	vldmdbcs	r2!, {d22-d21}
     224:	6c6c616d 	stfvse	f6, [ip], #-436	; 0xfffffe4c
     228:	682e636f 	stmdavs	lr!, {r0, r1, r2, r3, r5, r6, r8, r9, sp, lr}
     22c:	00000000 	andeq	r0, r0, r0
     230:	00010500 	andeq	r0, r1, r0, lsl #10
     234:	81200205 			; <UNDEFINED> instruction: 0x81200205
     238:	0b030000 	bleq	c0240 <__bss_end__+0xb5198>
     23c:	13050501 	movwne	r0, #21761	; 0x5501
     240:	01060c05 	tsteq	r6, r5, lsl #24
     244:	062f0105 	strteq	r0, [pc], -r5, lsl #2
     248:	1305056a 	movwne	r0, #21866	; 0x556a
     24c:	01060805 	tsteq	r6, r5, lsl #16
     250:	2f060905 	svccs	0x00060905
     254:	01061105 	tsteq	r6, r5, lsl #2
     258:	06300105 	ldrteq	r0, [r0], -r5, lsl #2
     25c:	13050531 	movwne	r0, #21809	; 0x5531
     260:	13060105 	movwne	r0, #24837	; 0x6105
     264:	0532062e 	ldreq	r0, [r2, #-1582]!	; 0xfffff9d2
     268:	7a031305 	bvc	c4e84 <__bss_end__+0xb9ddc>
     26c:	03020401 	movweq	r0, #9217	; 0x2401
     270:	01040116 	tsteq	r4, r6, lsl r1
     274:	03062405 	movweq	r2, #25605	; 0x6405
     278:	01050170 	tsteq	r5, r0, ror r1
     27c:	32062e4b 	andcc	r2, r6, #1200	; 0x4b0
     280:	05130505 	ldreq	r0, [r3, #-1285]	; 0xfffffafb
     284:	01720307 	cmneq	r2, r7, lsl #6
     288:	06140505 	ldreq	r0, [r4], -r5, lsl #10
     28c:	0d030601 	stceq	6, cr0, [r3, #-4]
     290:	03070501 	movweq	r0, #29953	; 0x7501
     294:	05050177 	streq	r0, [r5, #-375]	; 0xfffffe89
     298:	06010614 			; <UNDEFINED> instruction: 0x06010614
     29c:	04017a03 	streq	r7, [r1], #-2563	; 0xfffff5fd
     2a0:	01160302 	tsteq	r6, r2, lsl #6
     2a4:	78030104 	stmdavc	r3, {r2, r8}
     2a8:	06240501 	strteq	r0, [r4], -r1, lsl #10
     2ac:	05017803 	streq	r7, [r1, #-2051]	; 0xfffff7fd
     2b0:	2e7a030d 	cdpcs	3, 7, cr0, cr10, cr13, {0}
     2b4:	1824052e 	stmdane	r4!, {r1, r2, r3, r5, r8, sl}
     2b8:	0301054a 	movweq	r0, #5450	; 0x154a
     2bc:	a1060109 	tstge	r6, r9, lsl #2
     2c0:	05140505 	ldreq	r0, [r4, #-1285]	; 0xfffffafb
     2c4:	0805010a 	stmdaeq	r5, {r1, r3, r8}
     2c8:	05015d03 	streq	r5, [r1, #-3331]	; 0xfffff2fd
     2cc:	0c051405 	cfstrseq	mvf1, [r5], {5}
     2d0:	01050106 	tsteq	r5, r6, lsl #2
     2d4:	052e1f03 	streq	r1, [lr, #-3843]!	; 0xfffff0fd
     2d8:	2e61030c 	cdpcs	3, 6, cr0, cr1, cr12, {0}
     2dc:	0625052e 	strteq	r0, [r5], -lr, lsr #10
     2e0:	05012103 	streq	r2, [r1, #-259]	; 0xfffffefd
     2e4:	05010605 	streq	r0, [r1, #-1541]	; 0xfffff9fb
     2e8:	054d0609 	strbeq	r0, [sp, #-1545]	; 0xfffff9f7
     2ec:	0173030a 	cmneq	r3, sl, lsl #6
     2f0:	05140505 	ldreq	r0, [r4, #-1285]	; 0xfffffafb
     2f4:	01720307 	cmneq	r2, r7, lsl #6
     2f8:	06140505 	ldreq	r0, [r4], -r5, lsl #10
     2fc:	0d030601 	stceq	6, cr0, [r3, #-4]
     300:	03070501 	movweq	r0, #29953	; 0x7501
     304:	05050177 	streq	r0, [r5, #-375]	; 0xfffffe89
     308:	06010614 			; <UNDEFINED> instruction: 0x06010614
     30c:	04017a03 	streq	r7, [r1], #-2563	; 0xfffff5fd
     310:	01160302 	tsteq	r6, r2, lsl #6
     314:	78030104 	stmdavc	r3, {r2, r8}
     318:	06240501 	strteq	r0, [r4], -r1, lsl #10
     31c:	05017803 	streq	r7, [r1, #-2051]	; 0xfffff7fd
     320:	2e7a030d 	cdpcs	3, 7, cr0, cr10, cr13, {0}
     324:	09052e2e 	stmdbeq	r5, {r1, r2, r3, r5, r9, sl, fp, sp}
     328:	01170306 	tsteq	r7, r6, lsl #6
     32c:	050f2805 	streq	r2, [pc, #-2053]	; fffffb2f <__bss_end__+0xffff4a87>
     330:	01630308 	cmneq	r3, r8, lsl #6
     334:	05140505 	ldreq	r0, [r4, #-1285]	; 0xfffffafb
     338:	11051309 	tstne	r5, r9, lsl #6
     33c:	052e0106 	streq	r0, [lr, #-262]!	; 0xfffffefa
     340:	1003060a 	andne	r0, r3, sl, lsl #12
     344:	14050501 	strne	r0, [r5], #-1281	; 0xfffffaff
     348:	72030705 	andvc	r0, r3, #1310720	; 0x140000
     34c:	14050501 	strne	r0, [r5], #-1281	; 0xfffffaff
     350:	03060106 	movweq	r0, #24838	; 0x6106
     354:	0705010d 	streq	r0, [r5, -sp, lsl #2]
     358:	05017703 	streq	r7, [r1, #-1795]	; 0xfffff8fd
     35c:	01061405 	tsteq	r6, r5, lsl #8
     360:	017a0306 	cmneq	sl, r6, lsl #6
     364:	16030204 	strne	r0, [r3], -r4, lsl #4
     368:	03010401 	movweq	r0, #5121	; 0x1401
     36c:	01060178 	tsteq	r6, r8, ror r1
     370:	18062505 	stmdane	r6, {r0, r2, r8, sl, sp}
     374:	01060505 	tsteq	r6, r5, lsl #10
     378:	6c030d05 	stcvs	13, cr0, [r3], {5}
     37c:	05052e2e 	streq	r2, [r5, #-3630]	; 0xfffff1d2
     380:	05011403 	streq	r1, [r1, #-1027]	; 0xfffffbfd
     384:	2e720324 	cdpcs	3, 7, cr0, cr2, cr4, {1}
     388:	030c052e 	movweq	r0, #50478	; 0xc52e
     38c:	0d054a11 	vstreq	s8, [r5, #-68]	; 0xffffffbc
     390:	4a06d806 	bmi	1b63b0 <__bss_end__+0x1ab308>
     394:	062f062e 	strteq	r0, [pc], -lr, lsr #12
     398:	16010501 	strne	r0, [r1], -r1, lsl #10
     39c:	821c0306 	andshi	r0, ip, #402653184	; 0x18000000
     3a0:	2e660106 	powcss	f0, f6, f6
     3a4:	67060505 	strvs	r0, [r6, -r5, lsl #10]
     3a8:	14061313 	strne	r1, [r6], #-787	; 0xfffffced
     3ac:	05641105 	strbeq	r1, [r4, #-261]!	; 0xfffffefb
     3b0:	11053005 	tstne	r5, r5
     3b4:	0605052c 	streq	r0, [r5], -ip, lsr #10
     3b8:	662e0130 			; <UNDEFINED> instruction: 0x662e0130
     3bc:	06080513 			; <UNDEFINED> instruction: 0x06080513
     3c0:	06090501 	streq	r0, [r9], -r1, lsl #10
     3c4:	060c05a2 	streq	r0, [ip], -r2, lsr #11
     3c8:	060d052e 	streq	r0, [sp], -lr, lsr #10
     3cc:	14090567 	strne	r0, [r9], #-1383	; 0xfffffa99
     3d0:	01062205 	tsteq	r6, r5, lsl #4
     3d4:	052e3105 	streq	r3, [lr, #-261]!	; 0xfffffefb
     3d8:	0d052e0c 	stceq	14, cr2, [r5, #-48]	; 0xffffffd0
     3dc:	02040200 	andeq	r0, r4, #0, 4
     3e0:	28056706 	stmdacs	r5, {r1, r2, r8, r9, sl, sp, lr}
     3e4:	02040200 	andeq	r0, r4, #0, 4
     3e8:	0014050d 	andseq	r0, r4, sp, lsl #10
     3ec:	01020402 	tsteq	r2, r2, lsl #8
     3f0:	02000505 	andeq	r0, r0, #20971520	; 0x1400000
     3f4:	01060204 	tsteq	r6, r4, lsl #4
     3f8:	02040200 	andeq	r0, r4, #0, 4
     3fc:	0614054a 	ldreq	r0, [r4], -sl, asr #10
     400:	05010a03 	streq	r0, [r1, #-2563]	; 0xfffff5fd
     404:	05010605 	streq	r0, [r1, #-1541]	; 0xfffff9fb
     408:	09054b1c 	stmdbeq	r5, {r2, r3, r4, r8, r9, fp, lr}
     40c:	03040200 	movweq	r0, #16896	; 0x4200
     410:	1c054a06 			; <UNDEFINED> instruction: 0x1c054a06
     414:	03040200 	movweq	r0, #16896	; 0x4200
     418:	29052e06 	stmdbcs	r5, {r1, r2, r9, sl, fp, sp}
     41c:	03040200 	movweq	r0, #16896	; 0x4200
     420:	14052d06 	strne	r2, [r5], #-3334	; 0xfffff2fa
     424:	03040200 	movweq	r0, #16896	; 0x4200
     428:	00050501 	andeq	r0, r5, r1, lsl #10
     42c:	06030402 	streq	r0, [r3], -r2, lsl #8
     430:	04020001 	streq	r0, [r2], #-1
     434:	16069e03 	strne	r9, [r6], -r3, lsl #28
     438:	01060e05 	tsteq	r6, r5, lsl #28
     43c:	a2030c05 	andge	r0, r3, #1280	; 0x500
     440:	11052e7f 	tstne	r5, pc, ror lr
     444:	2e00df03 	cdpcs	15, 0, cr13, cr0, cr3, {0}
     448:	a1030c05 	tstge	r3, r5, lsl #24
     44c:	11052e7f 	tstne	r5, pc, ror lr
     450:	2e00df03 	cdpcs	15, 0, cr13, cr0, cr3, {0}
     454:	42030505 	andmi	r0, r3, #20971520	; 0x1400000
     458:	0311052e 	tsteq	r1, #192937984	; 0xb800000
     45c:	0e052e3e 	mcreq	14, 0, r2, cr5, cr14, {1}
     460:	0605052d 	streq	r0, [r5], -sp, lsr #10
     464:	0501132f 	streq	r1, [r1, #-815]	; 0xfffffcd1
     468:	7fbe0308 	svcvc	0x00be0308
     46c:	15050501 	strne	r0, [r5, #-1281]	; 0xfffffaff
     470:	05010a05 	streq	r0, [r1, #-2565]	; 0xfffff5fb
     474:	015d0308 	cmpeq	sp, r8, lsl #6
     478:	06140505 	ldreq	r0, [r4], -r5, lsl #10
     47c:	06250501 	strteq	r0, [r5], -r1, lsl #10
     480:	05012103 	streq	r2, [r1, #-259]	; 0xfffffefd
     484:	2e010605 	cfmadd32cs	mvax0, mvfx0, mvfx1, mvfx5
     488:	2e062805 	cdpcs	8, 0, cr2, cr6, cr5, {0}
     48c:	63030805 	movwvs	r0, #14341	; 0x3805
     490:	14050501 	strne	r0, [r5], #-1281	; 0xfffffaff
     494:	05130905 	ldreq	r0, [r3, #-2309]	; 0xfffff6fb
     498:	2e010611 	mcrcs	6, 0, r0, cr1, cr1, {0}
     49c:	03062505 	movweq	r2, #25861	; 0x6505
     4a0:	0505011a 	streq	r0, [r5, #-282]	; 0xfffffee6
     4a4:	09050106 	stmdbeq	r5, {r1, r2, r8}
     4a8:	0a054d06 	beq	1538c8 <__bss_end__+0x148820>
     4ac:	05017303 	streq	r7, [r1, #-771]	; 0xfffffcfd
     4b0:	07051405 	streq	r1, [r5, -r5, lsl #8]
     4b4:	05017203 	streq	r7, [r1, #-515]	; 0xfffffdfd
     4b8:	01061405 	tsteq	r6, r5, lsl #8
     4bc:	010d0306 	tsteq	sp, r6, lsl #6
     4c0:	77030705 	strvc	r0, [r3, -r5, lsl #14]
     4c4:	14050501 	strne	r0, [r5], #-1281	; 0xfffffaff
     4c8:	03060106 	movweq	r0, #24838	; 0x6106
     4cc:	0204017a 	andeq	r0, r4, #-2147483618	; 0x8000001e
     4d0:	04011603 	streq	r1, [r1], #-1539	; 0xfffff9fd
     4d4:	01780301 	cmneq	r8, r1, lsl #6
     4d8:	03062405 	movweq	r2, #25605	; 0x6405
     4dc:	0d050178 	stfeqs	f0, [r5, #-480]	; 0xfffffe20
     4e0:	2e2e7a03 	vmulcs.f32	s14, s28, s6
     4e4:	05182405 	ldreq	r2, [r8, #-1029]	; 0xfffffbfb
     4e8:	4a11030c 	bmi	441120 <__bss_end__+0x436078>
     4ec:	d8060d05 	stmdale	r6, {r0, r2, r8, sl, fp}
     4f0:	01052e06 	tsteq	r5, r6, lsl #28
     4f4:	052e3e03 	streq	r3, [lr, #-3587]!	; 0xfffff1fd
     4f8:	4a42030d 	bmi	1081134 <__bss_end__+0x107608c>
     4fc:	2c03062e 	stccs	6, cr0, [r3], {46}	; 0x2e
     500:	4a9e0101 	bmi	fe78090c <__bss_end__+0xfe775864>
     504:	4a9e0131 	bmi	fe7809d0 <__bss_end__+0xfe775928>
     508:	09052e06 	stmdbeq	r5, {r1, r2, r9, sl, fp, sp}
     50c:	01790306 	cmneq	r9, r6, lsl #6
     510:	05669e01 	strbeq	r9, [r6, #-3585]!	; 0xfffff1ff
     514:	2e120305 	cdpcs	3, 1, cr0, cr2, cr5, {0}
     518:	0105d601 	tsteq	r5, r1, lsl #12
     51c:	90080a03 	andls	r0, r8, r3, lsl #20
     520:	05130505 	ldreq	r0, [r3, #-1285]	; 0xfffffafb
     524:	4a110601 	bmi	441d30 <__bss_end__+0x436c88>
     528:	054b1005 	strbeq	r1, [fp, #-5]
     52c:	10052d01 	andne	r2, r5, r1, lsl #26
     530:	0605052f 	streq	r0, [r5], -pc, lsr #10
     534:	0905694d 	stmdbeq	r5, {r0, r2, r3, r6, r8, fp, sp, lr}
     538:	01140501 	tsteq	r4, r1, lsl #10
     53c:	08061305 	stmdaeq	r6, {r0, r2, r8, r9, ip}
     540:	00090521 	andeq	r0, r9, r1, lsr #10
     544:	06030402 	streq	r0, [r3], -r2, lsl #8
     548:	0013054a 	andseq	r0, r3, sl, asr #10
     54c:	06030402 	streq	r0, [r3], -r2, lsl #8
     550:	00090501 	andeq	r0, r9, r1, lsl #10
     554:	06030402 	streq	r0, [r3], -r2, lsl #8
     558:	002b052f 	eoreq	r0, fp, pc, lsr #10
     55c:	06030402 	streq	r0, [r3], -r2, lsl #8
     560:	0028052e 	eoreq	r0, r8, lr, lsr #10
     564:	06030402 	streq	r0, [r3], -r2, lsl #8
     568:	0014052c 	andseq	r0, r4, ip, lsr #10
     56c:	01030402 	tsteq	r3, r2, lsl #8
     570:	05330505 	ldreq	r0, [r3, #-1285]!	; 0xfffffafb
     574:	0513060e 	ldreq	r0, [r3, #-1550]	; 0xfffff9f2
     578:	0e052f12 	mcreq	15, 0, r2, cr5, cr2, {0}
     57c:	06050549 	streq	r0, [r5], -r9, asr #10
     580:	0514062f 	ldreq	r0, [r4, #-1583]	; 0xfffff9d1
     584:	05052c12 	streq	r2, [r5, #-3090]	; 0xfffff3ee
     588:	82013006 	andhi	r3, r1, #6, 0
     58c:	01051482 	smlabbeq	r5, r2, r4, r1
     590:	0d051706 	stceq	7, cr1, [r5, #-24]	; 0xffffffe8
     594:	4b100529 	blmi	401a40 <__bss_end__+0x3f6998>
     598:	052d0d05 	streq	r0, [sp, #-3333]!	; 0xfffff2fb
     59c:	142f0605 	strtne	r0, [pc], #-1541	; 5a4 <__code_start__-0x7a5c>
     5a0:	14060105 	strne	r0, [r6], #-261	; 0xfffffefb
     5a4:	71031305 	tstvc	r3, r5, lsl #6
     5a8:	0609054a 	streq	r0, [r9], -sl, asr #10
     5ac:	0613059e 			; <UNDEFINED> instruction: 0x0613059e
     5b0:	06090501 	streq	r0, [r9], -r1, lsl #10
     5b4:	0605052f 	streq	r0, [r5], -pc, lsr #10
     5b8:	302b0510 	eorcc	r0, fp, r0, lsl r5
     5bc:	2c062805 	stccs	8, cr2, [r6], {5}
     5c0:	05011405 	streq	r1, [r1, #-1029]	; 0xfffffbfb
     5c4:	02010605 	andeq	r0, r1, #5242880	; 0x500000
     5c8:	0101000c 	tsteq	r1, ip
     5cc:	0000023c 	andeq	r0, r0, ip, lsr r2
     5d0:	00640003 	rsbeq	r0, r4, r3
     5d4:	01020000 	mrseq	r0, (UNDEF: 2)
     5d8:	000d0efb 	strdeq	r0, [sp], -fp
     5dc:	01010101 	tsteq	r1, r1, lsl #2
     5e0:	01000000 	mrseq	r0, (UNDEF: 0)
     5e4:	2f010000 	svccs	0x00010000
     5e8:	72657355 	rsbvc	r7, r5, #1409286145	; 0x54000001
     5ec:	696d2f73 	stmdbvs	sp!, {r0, r1, r4, r5, r6, r8, r9, sl, fp, sp}^
     5f0:	2f73656c 	svccs	0x0073656c
     5f4:	72756f53 	rsbsvc	r6, r5, #332	; 0x14c
     5f8:	632f6563 			; <UNDEFINED> instruction: 0x632f6563
     5fc:	30343273 	eorscc	r3, r4, r3, ror r2
     600:	6c2f786c 	stcvs	8, cr7, [pc], #-432	; 458 <__code_start__-0x7ba8>
     604:	69706269 	ldmdbvs	r0!, {r0, r3, r5, r6, r9, sp, lr}^
     608:	636e692f 	cmnvs	lr, #770048	; 0xbc000
     60c:	6564756c 	strbvs	r7, [r4, #-1388]!	; 0xfffffa94
     610:	726b0000 	rsbvc	r0, fp, #0, 0
     614:	6c616d2d 	stclvs	13, cr6, [r1], #-180	; 0xffffff4c
     618:	2e636f6c 	cdpcs	15, 6, cr6, cr3, cr12, {3}
     61c:	00000063 	andeq	r0, r0, r3, rrx
     620:	69707200 	ldmdbvs	r0!, {r9, ip, sp, lr}^
     624:	0100682e 	tsteq	r0, lr, lsr #16
     628:	726b0000 	rsbvc	r0, fp, #0, 0
     62c:	6c616d2d 	stclvs	13, cr6, [r1], #-180	; 0xffffff4c
     630:	2e636f6c 	cdpcs	15, 6, cr6, cr3, cr12, {3}
     634:	00000068 	andeq	r0, r0, r8, rrx
     638:	01050000 	mrseq	r0, (UNDEF: 5)
     63c:	bc020500 	cfstr32lt	mvfx0, [r2], {-0}
     640:	03000084 	movweq	r0, #132	; 0x84
     644:	050100d3 	streq	r0, [r1, #-211]	; 0xffffff2d
     648:	05131302 	ldreq	r1, [r3, #-770]	; 0xfffffcfe
     64c:	05100601 	ldreq	r0, [r0, #-1537]	; 0xfffff9ff
     650:	05053109 	streq	r3, [r5, #-265]	; 0xfffffef7
     654:	0602052d 	streq	r0, [r2], -sp, lsr #10
     658:	0609052f 	streq	r0, [r9], -pc, lsr #10
     65c:	2e020501 	cfsh32cs	mvfx0, mvfx2, #1
     660:	02001205 	andeq	r1, r0, #1342177280	; 0x50000000
     664:	052e0304 	streq	r0, [lr, #-772]!	; 0xfffffcfc
     668:	01054b06 	tsteq	r5, r6, lsl #22
     66c:	01040200 	mrseq	r0, R12_usr
     670:	00120546 	andseq	r0, r2, r6, asr #10
     674:	06010402 	streq	r0, [r1], -r2, lsl #8
     678:	00030531 	andeq	r0, r3, r1, lsr r5
     67c:	13010402 	movwne	r0, #5122	; 0x1402
     680:	01040200 	mrseq	r0, R12_usr
     684:	00020501 	andeq	r0, r2, r1, lsl #10
     688:	06010402 	streq	r0, [r1], -r2, lsl #8
     68c:	00100511 	andseq	r0, r0, r1, lsl r5
     690:	2f010402 	svccs	0x00010402
     694:	02000205 	andeq	r0, r0, #1342177280	; 0x50000000
     698:	052d0104 	streq	r0, [sp, #-260]!	; 0xfffffefc
     69c:	20052f06 	andcs	r2, r5, r6, lsl #30
     6a0:	02040200 	andeq	r0, r4, #0, 4
     6a4:	0602054a 	streq	r0, [r2], -sl, asr #10
     6a8:	0610054c 	ldreq	r0, [r0], -ip, asr #10
     6ac:	03080501 	movweq	r0, #34049	; 0x8501
     6b0:	09052e0e 	stmdbeq	r5, {r1, r2, r3, r9, sl, fp, sp}
     6b4:	052e7203 	streq	r7, [lr, #-515]!	; 0xfffffdfd
     6b8:	03052e05 	movweq	r2, #24069	; 0x5e05
     6bc:	1a053006 	bne	14c6dc <__bss_end__+0x141634>
     6c0:	0e051306 	cdpeq	3, 0, cr1, cr5, cr6, {0}
     6c4:	0603052d 	streq	r0, [r3], -sp, lsr #10
     6c8:	060e054b 	streq	r0, [lr], -fp, asr #10
     6cc:	06020516 			; <UNDEFINED> instruction: 0x06020516
     6d0:	0608054a 	streq	r0, [r8], -sl, asr #10
     6d4:	2e050501 	cfsh32cs	mvfx0, mvfx5, #1
     6d8:	30060305 	andcc	r0, r6, r5, lsl #6
     6dc:	13060c05 	movwne	r0, #27653	; 0x6c05
     6e0:	052d0d05 	streq	r0, [sp, #-3333]!	; 0xfffff2fb
     6e4:	054b0603 	strbeq	r0, [fp, #-1539]	; 0xfffff9fd
     6e8:	01053202 	tsteq	r5, r2, lsl #4
     6ec:	03061306 	movweq	r1, #25350	; 0x6306
     6f0:	02054a43 	andeq	r4, r5, #274432	; 0x43000
     6f4:	05141313 	ldreq	r1, [r4, #-787]	; 0xfffffced
     6f8:	050e0601 	streq	r0, [lr, #-1537]	; 0xfffff9ff
     6fc:	2405330d 	strcs	r3, [r5], #-781	; 0xfffffcf3
     700:	2f0d052d 	svccs	0x000d052d
     704:	052d2905 	streq	r2, [sp, #-2309]!	; 0xfffff6fb
     708:	09052f05 	stmdbeq	r5, {r0, r2, r8, r9, sl, fp, sp}
     70c:	0602052d 	streq	r0, [r2], -sp, lsr #10
     710:	0605052f 	streq	r0, [r5], -pc, lsr #10
     714:	06020501 	streq	r0, [r2], -r1, lsl #10
     718:	06090534 			; <UNDEFINED> instruction: 0x06090534
     71c:	06030501 	streq	r0, [r3], -r1, lsl #10
     720:	060b0530 			; <UNDEFINED> instruction: 0x060b0530
     724:	2e060501 	cfsh32cs	mvfx0, mvfx6, #1
     728:	67030205 	strvs	r0, [r3, -r5, lsl #4]
     72c:	1a05664a 	bne	15a05c <__bss_end__+0x14efb4>
     730:	01170306 	tsteq	r7, r6, lsl #6
     734:	01062705 	tsteq	r6, r5, lsl #14
     738:	2e061805 	cdpcs	8, 0, cr1, cr6, cr5, {0}
     73c:	05140305 	ldreq	r0, [r4, #-773]	; 0xfffffcfb
     740:	0501060b 	streq	r0, [r1, #-1547]	; 0xfffff9f5
     744:	03052e06 	movweq	r2, #24070	; 0x5e06
     748:	4a0f0306 	bmi	3c1368 <__bss_end__+0x3b62c0>
     74c:	01060605 	tsteq	r6, r5, lsl #12
     750:	68060405 	stmdavs	r6, {r0, r2, sl}
     754:	52031005 	andpl	r1, r3, #5, 0
     758:	14020501 	strne	r0, [r2], #-1281	; 0xfffffaff
     75c:	0d056714 	stceq	7, cr6, [r5, #-80]	; 0xffffffb0
     760:	02050106 	andeq	r0, r5, #-2147483647	; 0x80000001
     764:	0d054d06 	stceq	13, cr4, [r5, #-24]	; 0xffffffe8
     768:	02050f06 	andeq	r0, r5, #6, 30
     76c:	05152f06 	ldreq	r2, [r5, #-3846]	; 0xfffff0fa
     770:	050f0605 	streq	r0, [pc, #-1541]	; 173 <__code_start__-0x7e8d>
     774:	05053202 	streq	r3, [r5, #-514]	; 0xfffffdfe
     778:	310d052a 	tstcc	sp, sl, lsr #10
     77c:	2f060205 	svccs	0x00060205
     780:	0609052f 	streq	r0, [r9], -pc, lsr #10
     784:	07052e01 	streq	r2, [r5, -r1, lsl #28]
     788:	05012303 	streq	r2, [r1, #-771]	; 0xfffffcfd
     78c:	4a6d0327 	bmi	1b41430 <__bss_end__+0x1b36388>
     790:	4a061a05 	bmi	186fac <__bss_end__+0x17bf04>
     794:	05011805 	streq	r1, [r1, #-2053]	; 0xfffff7fb
     798:	0b051403 	bleq	1457ac <__bss_end__+0x13a704>
     79c:	06050106 	streq	r0, [r5], -r6, lsl #2
     7a0:	0604052e 	streq	r0, [r4], -lr, lsr #10
     7a4:	0607054c 	streq	r0, [r7], -ip, asr #10
     7a8:	06050501 	streq	r0, [r5], -r1, lsl #10
     7ac:	18051630 	stmdane	r5, {r4, r5, r9, sl, ip}
     7b0:	0f050e06 	svceq	0x00050e06
     7b4:	06050532 			; <UNDEFINED> instruction: 0x06050532
     7b8:	0607054b 	streq	r0, [r7], -fp, asr #10
     7bc:	06050501 	streq	r0, [r5], -r1, lsl #10
     7c0:	060f052f 	streq	r0, [pc], -pc, lsr #10
     7c4:	06040501 	streq	r0, [r4], -r1, lsl #10
     7c8:	06120530 			; <UNDEFINED> instruction: 0x06120530
     7cc:	05017803 	streq	r7, [r1, #-2051]	; 0xfffff7fd
     7d0:	0405360a 	streq	r3, [r5], #-1546	; 0xfffff9f6
     7d4:	0b052f06 	bleq	14c3f4 <__bss_end__+0x14134c>
     7d8:	0c050106 	stfeqs	f0, [r5], {6}
     7dc:	32010550 	andcc	r0, r1, #80, 10	; 0x14000000
     7e0:	03060305 	movweq	r0, #25349	; 0x6305
     7e4:	16052e63 	strne	r2, [r5], -r3, ror #28
     7e8:	0f050106 	svceq	0x00050106
     7ec:	3109052f 	tstcc	r9, pc, lsr #10
     7f0:	052b0f05 	streq	r0, [fp, #-3845]!	; 0xfffff0fb
     7f4:	0e052d16 	mcreq	13, 0, r2, cr5, cr6, {0}
     7f8:	0603052e 	streq	r0, [r3], -lr, lsr #10
     7fc:	1502052f 	strne	r0, [r2, #-1327]	; 0xfffffad1
     800:	05140305 	ldreq	r0, [r4, #-773]	; 0xfffffcfb
     804:	022e0606 	eoreq	r0, lr, #6291456	; 0x600000
     808:	01010008 	tsteq	r1, r8
     80c:	0000072d 	andeq	r0, r0, sp, lsr #14
     810:	00d40003 	sbcseq	r0, r4, r3
     814:	01020000 	mrseq	r0, (UNDEF: 2)
     818:	000d0efb 	strdeq	r0, [sp], -fp
     81c:	01010101 	tsteq	r1, r1, lsl #2
     820:	01000000 	mrseq	r0, (UNDEF: 0)
     824:	2f010000 	svccs	0x00010000
     828:	2f74706f 	svccs	0x0074706f
     82c:	656d6f68 	strbvs	r6, [sp, #-3944]!	; 0xfffff098
     830:	77657262 	strbvc	r7, [r5, -r2, ror #4]!
     834:	6c65432f 	stclvs	3, cr4, [r5], #-188	; 0xffffff44
     838:	2f72616c 	svccs	0x0072616c
     83c:	2d6d7261 	sfmcs	f7, 2, [sp, #-388]!	; 0xfffffe7c
     840:	656e6f6e 	strbvs	r6, [lr, #-3950]!	; 0xfffff092
     844:	6261652d 	rsbvs	r6, r1, #188743680	; 0xb400000
     848:	2f392d69 	svccs	0x00392d69
     84c:	30322d39 	eorscc	r2, r2, r9, lsr sp
     850:	34713931 	ldrbtcc	r3, [r1], #-2353	; 0xfffff6cf
     854:	3173632d 	cmncc	r3, sp, lsr #6
     858:	2f653730 	svccs	0x00653730
     85c:	2f62696c 	svccs	0x0062696c
     860:	2f636367 	svccs	0x00636367
     864:	2d6d7261 	sfmcs	f7, 2, [sp, #-388]!	; 0xfffffe7c
     868:	656e6f6e 	strbvs	r6, [lr, #-3950]!	; 0xfffff092
     86c:	6261652d 	rsbvs	r6, r1, #188743680	; 0xb400000
     870:	2e392f69 	cdpcs	15, 3, cr2, cr9, cr9, {3}
     874:	2f312e32 	svccs	0x00312e32
     878:	6c636e69 	stclvs	14, cr6, [r3], #-420	; 0xfffffe5c
     87c:	00656475 	rsbeq	r6, r5, r5, ror r4
     880:	6573552f 	ldrbvs	r5, [r3, #-1327]!	; 0xfffffad1
     884:	6d2f7372 	stcvs	3, cr7, [pc, #-456]!	; 6c4 <__code_start__-0x793c>
     888:	73656c69 	cmnvc	r5, #26880	; 0x6900
     88c:	756f532f 	strbvc	r5, [pc, #-815]!	; 565 <__code_start__-0x7a9b>
     890:	2f656372 	svccs	0x00656372
     894:	34327363 	ldrtcc	r7, [r2], #-867	; 0xfffffc9d
     898:	2f786c30 	svccs	0x00786c30
     89c:	7062696c 	rsbvc	r6, r2, ip, ror #18
     8a0:	6e692f69 	cdpvs	15, 6, cr2, cr9, cr9, {3}
     8a4:	64756c63 	ldrbtvs	r6, [r5], #-3171	; 0xfffff39d
     8a8:	63000065 	movwvs	r0, #101	; 0x65
     8ac:	63672d6b 	cmnvs	r7, #6848	; 0x1ac0
     8b0:	0000632e 	andeq	r6, r0, lr, lsr #6
     8b4:	72730000 	rsbsvc	r0, r3, #0, 0
     8b8:	6f6c2d63 	svcvs	0x006c2d63
     8bc:	00682e63 	rsbeq	r2, r8, r3, ror #28
     8c0:	73000000 	movwvc	r0, #0
     8c4:	6e696474 	mcrvs	4, 3, r6, cr9, cr4, {3}
     8c8:	63672d74 	cmnvs	r7, #116, 26	; 0x1d00
     8cc:	00682e63 	rsbeq	r2, r8, r3, ror #28
     8d0:	72000001 	andvc	r0, r0, #1, 0
     8d4:	682e6970 	stmdavs	lr!, {r4, r5, r6, r8, fp, sp, lr}
     8d8:	00000200 	andeq	r0, r0, r0, lsl #4
     8dc:	6c616b63 			; <UNDEFINED> instruction: 0x6c616b63
     8e0:	2e636f6c 	cdpcs	15, 6, cr6, cr3, cr12, {3}
     8e4:	00000068 	andeq	r0, r0, r8, rrx
     8e8:	01050000 	mrseq	r0, (UNDEF: 5)
     8ec:	44020500 	strmi	r0, [r2], #-1280	; 0xfffffb00
     8f0:	03000086 	movweq	r0, #134	; 0x86
     8f4:	050100d0 	streq	r0, [r1, #-208]	; 0xffffff30
     8f8:	05011305 	streq	r1, [r1, #-773]	; 0xfffffcfb
     8fc:	05110601 	ldreq	r0, [r1, #-1537]	; 0xfffff9ff
     900:	01052f05 	tsteq	r5, r5, lsl #30
     904:	2f050565 	svccs	0x00050565
     908:	02040200 	andeq	r0, r4, #0, 4
     90c:	02002e06 	andeq	r2, r0, #96	; 0x60
     910:	00010204 	andeq	r0, r1, r4, lsl #4
     914:	15020402 	strne	r0, [r2, #-1026]	; 0xfffffbfe
     918:	02040200 	andeq	r0, r4, #0, 4
     91c:	04020001 	streq	r0, [r2], #-1
     920:	02006602 	andeq	r6, r0, #2097152	; 0x200000
     924:	00010204 	andeq	r0, r1, r4, lsl #4
     928:	13020402 	movwne	r0, #9218	; 0x2402
     92c:	02040200 	andeq	r0, r4, #0, 4
     930:	04020001 	streq	r0, [r2], #-1
     934:	059e0602 	ldreq	r0, [lr, #1538]	; 0x602
     938:	6609030d 	strvs	r0, [r9], -sp, lsl #6
     93c:	030b054a 	movweq	r0, #46410	; 0xb54a
     940:	0805015f 	stmdaeq	r5, {r0, r1, r2, r3, r4, r6, r8}
     944:	4a2e7003 	bmi	b9c958 <__bss_end__+0xb918b0>
     948:	03060905 	movweq	r0, #26885	; 0x6905
     94c:	0805012c 	stmdaeq	r5, {r2, r3, r5, r8}
     950:	01540306 	cmpeq	r4, r6, lsl #6
     954:	060f054a 	streq	r0, [pc], -sl, asr #10
     958:	05010e03 	streq	r0, [r1, #-3587]	; 0xfffff1fd
     95c:	05141405 	ldreq	r1, [r4, #-1029]	; 0xfffffbfb
     960:	016b030c 	cmneq	fp, ip, lsl #6
     964:	05150505 	ldreq	r0, [r5, #-1285]	; 0xfffffafb
     968:	05010608 	streq	r0, [r1, #-1544]	; 0xfffff9f8
     96c:	05662e18 	strbeq	r2, [r6, #-3608]!	; 0xfffff1e8
     970:	14030605 	strne	r0, [r3], #-1541	; 0xfffff9fb
     974:	060c0501 	streq	r0, [ip], -r1, lsl #10
     978:	09052e01 	stmdbeq	r5, {r0, r9, sl, fp, sp}
     97c:	01190306 	tsteq	r9, r6, lsl #6
     980:	01060c05 	tsteq	r6, r5, lsl #24
     984:	4c060d05 	stcmi	13, cr0, [r6], {5}
     988:	13061605 	movwne	r1, #26117	; 0x6605
     98c:	052f0d05 	streq	r0, [pc, #-3333]!	; fffffc8f <__bss_end__+0xffff4be7>
     990:	0d052c29 	stceq	12, cr2, [r5, #-164]	; 0xffffff5c
     994:	bb132f06 	bllt	4cc5b4 <__bss_end__+0x4c150c>
     998:	01061005 	tsteq	r6, r5
     99c:	4c061105 	stfmis	f1, [r6], {5}
     9a0:	01061905 	tsteq	r6, r5, lsl #18
     9a4:	052f1105 	streq	r1, [pc, #-261]!	; 8a7 <__code_start__-0x7759>
     9a8:	11052d19 	tstne	r5, r9, lsl sp
     9ac:	05690667 	strbeq	r0, [r9, #-1639]!	; 0xfffff999
     9b0:	4a010614 	bmi	42208 <__bss_end__+0x37160>
     9b4:	03062305 	movweq	r2, #25349	; 0x6305
     9b8:	1b050172 	blne	140f88 <__bss_end__+0x135ee0>
     9bc:	06050501 	streq	r0, [r5], -r1, lsl #10
     9c0:	01054a01 	tsteq	r5, r1, lsl #20
     9c4:	05011903 	streq	r1, [r1, #-2307]	; 0xfffff6fd
     9c8:	06460611 			; <UNDEFINED> instruction: 0x06460611
     9cc:	0623054a 	strteq	r0, [r3], -sl, asr #10
     9d0:	05016b03 	streq	r6, [r1, #-2819]	; 0xfffff4fd
     9d4:	0505011b 	streq	r0, [r5, #-283]	; 0xfffffee5
     9d8:	15050106 	strne	r0, [r5, #-262]	; 0xfffffefa
     9dc:	66100306 	ldrvs	r0, [r0], -r6, lsl #6
     9e0:	23059e06 	movwcs	r9, #24070	; 0x5e06
     9e4:	01700306 	cmneq	r0, r6, lsl #6
     9e8:	05011b05 	streq	r1, [r1, #-2821]	; 0xfffff4fb
     9ec:	66010605 	strvs	r0, [r1], -r5, lsl #12
     9f0:	01040200 	mrseq	r0, R12_usr
     9f4:	02000f06 	andeq	r0, r0, #6, 30
     9f8:	00010104 	andeq	r0, r1, r4, lsl #2
     9fc:	06010402 	streq	r0, [r1], -r2, lsl #8
     a00:	0402004a 	streq	r0, [r2], #-74	; 0xffffffb6
     a04:	02002e01 	andeq	r2, r0, #1, 28
     a08:	004a0104 	subeq	r0, sl, r4, lsl #2
     a0c:	06010402 	streq	r0, [r1], -r2, lsl #8
     a10:	0301054a 	movweq	r0, #5450	; 0x154a
     a14:	05580825 	ldrbeq	r0, [r8, #-2085]	; 0xfffff7db
     a18:	0a051605 	beq	146234 <__bss_end__+0x13b18c>
     a1c:	06010501 	streq	r0, [r1], -r1, lsl #10
     a20:	4e15050e 	cfmul32mi	mvfx0, mvfx5, mvfx14
     a24:	2e062505 	cfsh32cs	mvfx2, mvfx6, #5
     a28:	01060505 	tsteq	r6, r5, lsl #10
     a2c:	3032052e 	eorscc	r0, r2, lr, lsr #10
     a30:	02000905 	andeq	r0, r0, #81920	; 0x14000
     a34:	2e060304 	cdpcs	3, 0, cr0, cr6, cr4, {0}
     a38:	02003205 	andeq	r3, r0, #1342177280	; 0x50000000
     a3c:	01060304 	tsteq	r6, r4, lsl #6
     a40:	02002105 	andeq	r2, r0, #1073741825	; 0x40000001
     a44:	052e0304 	streq	r0, [lr, #-772]!	; 0xfffffcfc
     a48:	04020011 	streq	r0, [r2], #-17	; 0xffffffef
     a4c:	28052e03 	stmdacs	r5, {r0, r1, r9, sl, fp, sp}
     a50:	03040200 	movweq	r0, #16896	; 0x4200
     a54:	2c052c06 	stccs	12, cr2, [r5], {6}
     a58:	03040200 	movweq	r0, #16896	; 0x4200
     a5c:	25050106 	strcs	r0, [r5, #-262]	; 0xfffffefa
     a60:	03040200 	movweq	r0, #16896	; 0x4200
     a64:	05052e06 	streq	r2, [r5, #-3590]	; 0xfffff1fa
     a68:	03040200 	movweq	r0, #16896	; 0x4200
     a6c:	02000106 	andeq	r0, r0, #-2147483647	; 0x80000001
     a70:	002e0304 	eoreq	r0, lr, r4, lsl #6
     a74:	2e030402 	cdpcs	4, 0, cr0, cr3, cr2, {0}
     a78:	06131906 	ldreq	r1, [r3], -r6, lsl #18
     a7c:	1330062e 	teqne	r0, #48234496	; 0x2e00000
     a80:	0d051313 	stceq	3, cr1, [r5, #-76]	; 0xffffffb4
     a84:	05050f06 	streq	r0, [r5, #-3846]	; 0xfffff0fa
     a88:	054a0a03 	strbeq	r0, [sl, #-2563]	; 0xfffff5fd
     a8c:	4a76030d 	bmi	1d816c8 <__bss_end__+0x1d76620>
     a90:	03060505 	movweq	r0, #25861	; 0x6505
     a94:	13324a0a 	teqne	r2, #40960	; 0xa000
     a98:	68136983 	ldmdavs	r3, {r0, r1, r7, r8, fp, sp, lr}
     a9c:	06010513 			; <UNDEFINED> instruction: 0x06010513
     aa0:	23030667 	movwcs	r0, #13927	; 0x3667
     aa4:	130505d6 	movwne	r0, #21974	; 0x55d6
     aa8:	06010513 			; <UNDEFINED> instruction: 0x06010513
     aac:	05052e10 	streq	r2, [r5, #-3600]	; 0xfffff1f0
     ab0:	2f062e30 	svccs	0x00062e30
     ab4:	0a052f4c 	beq	14c7ec <__bss_end__+0x141744>
     ab8:	06150501 	ldreq	r0, [r5], -r1, lsl #10
     abc:	06250501 	strteq	r0, [r5], -r1, lsl #10
     ac0:	0605052e 	streq	r0, [r5], -lr, lsr #10
     ac4:	45270501 	strmi	r0, [r7, #-1281]!	; 0xfffffaff
     ac8:	10030d05 	andne	r0, r3, r5, lsl #26
     acc:	031b052e 	tsteq	fp, #192937984	; 0xb800000
     ad0:	0e052e70 	mcreq	14, 0, r2, cr5, cr0, {3}
     ad4:	030d052e 	movweq	r0, #54574	; 0xd52e
     ad8:	11052e0b 	tstne	r5, fp, lsl #28
     adc:	0028054c 	eoreq	r0, r8, ip, asr #10
     ae0:	06020402 	streq	r0, [r2], -r2, lsl #8
     ae4:	054a7803 	strbeq	r7, [sl, #-2051]	; 0xfffff7fd
     ae8:	0402002c 	streq	r0, [r2], #-44	; 0xffffffd4
     aec:	05010602 	streq	r0, [r1, #-1538]	; 0xfffff9fe
     af0:	04020025 	streq	r0, [r2], #-37	; 0xffffffdb
     af4:	054a0602 	strbeq	r0, [sl, #-1538]	; 0xfffff9fe
     af8:	04020005 	streq	r0, [r2], #-5
     afc:	05010602 	streq	r0, [r1, #-1538]	; 0xfffff9fe
     b00:	054c0609 	strbeq	r0, [ip, #-1545]	; 0xfffff9f7
     b04:	0d06180e 	stceq	8, cr1, [r6, #-56]	; 0xffffffc8
     b08:	052d1005 	streq	r1, [sp, #-5]!
     b0c:	052f0609 	streq	r0, [pc, #-1545]!	; 50b <__code_start__-0x7af5>
     b10:	0501060c 	streq	r0, [r1, #-1548]	; 0xfffff9f4
     b14:	064c060d 	strbeq	r0, [ip], -sp, lsl #12
     b18:	2c056613 	stccs	6, cr6, [r5], {19}
     b1c:	052e7a03 	streq	r7, [lr, #-2563]!	; 0xfffff5fd
     b20:	13054a05 	movwne	r4, #23045	; 0x5a05
     b24:	060d0533 			; <UNDEFINED> instruction: 0x060d0533
     b28:	0328052f 			; <UNDEFINED> instruction: 0x0328052f
     b2c:	2505017a 	strcs	r0, [r5, #-378]	; 0xfffffe86
     b30:	06050501 	streq	r0, [r5], -r1, lsl #10
     b34:	03062e01 	movweq	r2, #28161	; 0x6e01
     b38:	0601010f 	streq	r0, [r1], -pc, lsl #2
     b3c:	132e064a 			; <UNDEFINED> instruction: 0x132e064a
     b40:	01060805 	tsteq	r6, r5, lsl #16
     b44:	4d060905 	vstrmi.16	s0, [r6, #-10]	; <UNPREDICTABLE>
     b48:	04020001 	streq	r0, [r2], #-1
     b4c:	05058201 	streq	r8, [r5, #-513]	; 0xfffffdff
     b50:	01040200 	mrseq	r0, R12_usr
     b54:	04020014 	streq	r0, [r2], #-20	; 0xffffffec
     b58:	08054b01 	stmdaeq	r5, {r0, r8, r9, fp, lr}
     b5c:	01040200 	mrseq	r0, R12_usr
     b60:	17050106 	strne	r0, [r5, -r6, lsl #2]
     b64:	01040200 	mrseq	r0, R12_usr
     b68:	00010530 	andeq	r0, r1, r0, lsr r5
     b6c:	34010402 	strcc	r0, [r1], #-1026	; 0xfffffbfe
     b70:	03060d05 	movweq	r0, #27909	; 0x6d05
     b74:	13064a6c 	movwne	r4, #27244	; 0x6a6c
     b78:	05651905 	strbeq	r1, [r5, #-2309]!	; 0xfffff6fb
     b7c:	062f060d 	strteq	r0, [pc], -sp, lsl #12
     b80:	0605054a 	streq	r0, [r5], -sl, asr #10
     b84:	4a060116 	bmi	180fe4 <__bss_end__+0x175f3c>
     b88:	05132e06 	ldreq	r2, [r3, #-3590]	; 0xfffff1fa
     b8c:	82011309 	andhi	r1, r1, #603979776	; 0x24000000
     b90:	ba030105 	blt	c0fac <__bss_end__+0xb5f04>
     b94:	0520087e 	streq	r0, [r0, #-2174]!	; 0xfffff782
     b98:	01141305 	tsteq	r4, r5, lsl #6
     b9c:	0f060105 	svceq	0x00060105
     ba0:	05310505 	ldreq	r0, [r1, #-1285]!	; 0xfffffafb
     ba4:	05052b01 	streq	r2, [r5, #-2817]	; 0xfffff4ff
     ba8:	04020031 	streq	r0, [r2], #-49	; 0xffffffcf
     bac:	002e0602 	eoreq	r0, lr, r2, lsl #12
     bb0:	01020402 	tsteq	r2, r2, lsl #8
     bb4:	02040200 	andeq	r0, r4, #0, 4
     bb8:	00090513 	andeq	r0, r9, r3, lsl r5
     bbc:	06020402 	streq	r0, [r2], -r2, lsl #8
     bc0:	00080501 	andeq	r0, r8, r1, lsl #10
     bc4:	2e020402 	cdpcs	4, 0, cr0, cr2, cr2, {0}
     bc8:	67060905 	strvs	r0, [r6, -r5, lsl #18]
     bcc:	14051315 	strne	r1, [r5], #-789	; 0xfffffceb
     bd0:	12050106 	andne	r0, r5, #-2147483647	; 0x80000001
     bd4:	2f09052f 	svccs	0x0009052f
     bd8:	052d1205 	streq	r1, [sp, #-517]!	; 0xfffffdfb
     bdc:	2f2f0609 	svccs	0x002f0609
     be0:	01061005 	tsteq	r6, r5
     be4:	05300c05 	ldreq	r0, [r0, #-3077]!	; 0xfffff3fb
     be8:	05052c10 	streq	r2, [r5, #-3088]	; 0xfffff3f0
     bec:	01053006 	tsteq	r5, r6
     bf0:	0c051306 	stceq	3, cr1, [r5], {6}
     bf4:	00050549 	andeq	r0, r5, r9, asr #10
     bf8:	06010402 	streq	r0, [r1], -r2, lsl #8
     bfc:	002e7503 	eoreq	r7, lr, r3, lsl #10
     c00:	01010402 	tsteq	r1, r2, lsl #8
     c04:	01040200 	mrseq	r0, R12_usr
     c08:	02009e06 	andeq	r9, r0, #96	; 0x60
     c0c:	4a060104 	bmi	181024 <__bss_end__+0x175f7c>
     c10:	01300905 	teqeq	r0, r5, lsl #18
     c14:	2e068206 	cdpcs	2, 0, cr8, cr6, cr6, {0}
     c18:	89033805 	stmdbhi	r3, {r0, r2, fp, ip, sp}
     c1c:	0505d601 	streq	sp, [r5, #-1537]	; 0xfffff9ff
     c20:	0a051313 	beq	145874 <__bss_end__+0x13a7cc>
     c24:	01150501 	tsteq	r5, r1, lsl #10
     c28:	01060505 	tsteq	r6, r5, lsl #10
     c2c:	2d09052e 	cfstr32cs	mvfx0, [r9, #-184]	; 0xffffff48
     c30:	0d056806 	stceq	8, cr6, [r5, #-24]	; 0xffffffe8
     c34:	060c0513 			; <UNDEFINED> instruction: 0x060c0513
     c38:	12052e11 	andne	r2, r5, #272	; 0x110
     c3c:	0621052f 	strteq	r0, [r1], -pc, lsr #10
     c40:	0115052c 	tsteq	r5, ip, lsr #10
     c44:	01060505 	tsteq	r6, r5, lsl #10
     c48:	062e2e66 	strteq	r2, [lr], -r6, ror #28
     c4c:	06010517 			; <UNDEFINED> instruction: 0x06010517
     c50:	06160513 			; <UNDEFINED> instruction: 0x06160513
     c54:	13050530 	movwne	r0, #21808	; 0x5530
     c58:	010a0513 	tsteq	sl, r3, lsl r5
     c5c:	10061605 	andne	r1, r6, r5, lsl #12
     c60:	05301505 	ldreq	r1, [r0, #-1285]!	; 0xfffffafb
     c64:	052e0625 	streq	r0, [lr, #-1573]!	; 0xfffff9db
     c68:	05010605 	streq	r0, [r1, #-1541]	; 0xfffff9fb
     c6c:	05334909 	ldreq	r4, [r3, #-2313]!	; 0xfffff6f7
     c70:	052e4f11 	streq	r4, [lr, #-3857]!	; 0xfffff0ef
     c74:	78030609 	stmdavc	r3, {r0, r3, r9, sl}
     c78:	0e051301 	cdpeq	3, 0, cr1, cr5, cr1, {0}
     c7c:	05017203 	streq	r7, [r1, #-515]	; 0xfffffdfd
     c80:	05131305 	ldreq	r1, [r3, #-773]	; 0xfffffcfb
     c84:	1505010a 	strne	r0, [r5, #-266]	; 0xfffffef6
     c88:	06090501 	streq	r0, [r9], -r1, lsl #10
     c8c:	05680611 	strbeq	r0, [r8, #-1553]!	; 0xfffff9ef
     c90:	2105130d 	tstcs	r5, sp, lsl #6
     c94:	01150510 	tsteq	r5, r0, lsl r5
     c98:	13060c05 	movwne	r0, #27653	; 0x6c05
     c9c:	054b1205 	strbeq	r1, [fp, #-517]	; 0xfffffdfb
     ca0:	4f062c05 	svcmi	0x00062c05
     ca4:	09050106 	stmdbeq	r5, {r1, r2, r8}
     ca8:	03061a06 	movweq	r1, #27142	; 0x6a06
     cac:	3f050172 	svccc	0x00050172
     cb0:	052e0e03 	streq	r0, [lr, #-3587]!	; 0xfffff1fd
     cb4:	7103060e 	tstvc	r3, lr, lsl #12
     cb8:	1415052e 	ldrne	r0, [r5], #-1326	; 0xfffffad2
     cbc:	09056606 	stmdbeq	r5, {r1, r2, r9, sl, sp, lr}
     cc0:	0d054b06 	vstreq	d4, [r5, #-24]	; 0xffffffe8
     cc4:	060c0513 			; <UNDEFINED> instruction: 0x060c0513
     cc8:	4b120511 	blmi	482114 <__bss_end__+0x47706c>
     ccc:	2c062105 	stfcss	f2, [r6], {5}
     cd0:	05011505 	streq	r1, [r1, #-1285]	; 0xfffffafb
     cd4:	06010605 	streq	r0, [r1], -r5, lsl #12
     cd8:	0501064f 	streq	r0, [r1, #-1615]	; 0xfffff9b1
     cdc:	01090309 	tsteq	r9, r9, lsl #6
     ce0:	05651b05 	strbeq	r1, [r5, #-2821]!	; 0xfffff4fb
     ce4:	012f0609 			; <UNDEFINED> instruction: 0x012f0609
     ce8:	05134a2e 	ldreq	r4, [r3, #-2606]	; 0xfffff5d2
     cec:	0501060c 	streq	r0, [r1, #-1548]	; 0xfffff9f4
     cf0:	04020011 	streq	r0, [r2], #-17	; 0xffffffef
     cf4:	056a0601 	strbeq	r0, [sl, #-1537]!	; 0xfffff9ff
     cf8:	04020009 	streq	r0, [r2], #-9
     cfc:	2c051501 	cfstr32cs	mvfx1, [r5], {1}
     d00:	01040200 	mrseq	r0, R12_usr
     d04:	01740306 	cmneq	r4, r6, lsl #6
     d08:	02000505 	andeq	r0, r0, #20971520	; 0x1400000
     d0c:	054a0104 	strbeq	r0, [sl, #-260]	; 0xfffffefc
     d10:	04020010 	streq	r0, [r2], #-16
     d14:	2e0c0301 	cdpcs	3, 0, cr0, cr12, cr1, {0}
     d18:	01040200 	mrseq	r0, R12_usr
     d1c:	0028052e 	eoreq	r0, r8, lr, lsr #10
     d20:	06010402 	streq	r0, [r1], -r2, lsl #8
     d24:	05017403 	streq	r7, [r1, #-1027]	; 0xfffffbfd
     d28:	04020025 	streq	r0, [r2], #-37	; 0xffffffdb
     d2c:	05050101 	streq	r0, [r5, #-257]	; 0xfffffeff
     d30:	01040200 	mrseq	r0, R12_usr
     d34:	02000106 	andeq	r0, r0, #-2147483647	; 0x80000001
     d38:	052e0104 	streq	r0, [lr, #-260]!	; 0xfffffefc
     d3c:	010f0301 	tsteq	pc, r1, lsl #6
     d40:	060d052e 	streq	r0, [sp], -lr, lsr #10
     d44:	052e7703 	streq	r7, [lr, #-1795]!	; 0xfffff8fd
     d48:	05010635 	streq	r0, [r1, #-1589]	; 0xfffff9cb
     d4c:	6e03060e 	cfmadd32vs	mvax0, mvfx0, mvfx3, mvfx14
     d50:	1305052e 	movwne	r0, #21806	; 0x552e
     d54:	010a0513 	tsteq	sl, r3, lsl r5
     d58:	05011505 	streq	r1, [r1, #-1285]	; 0xfffffafb
     d5c:	05010605 	streq	r0, [r1, #-1541]	; 0xfffff9fb
     d60:	064a4909 	strbeq	r4, [sl], -r9, lsl #18
     d64:	130d054c 	movwne	r0, #54604	; 0xd54c
     d68:	05102105 	ldreq	r2, [r0, #-261]	; 0xfffffefb
     d6c:	0c050115 	stfeqs	f0, [r5], {21}
     d70:	12051306 	andne	r1, r5, #402653184	; 0x18000000
     d74:	2c05054b 	cfstr32cs	mvfx0, [r5], {75}	; 0x4b
     d78:	01064f06 	tsteq	r6, r6, lsl #30
     d7c:	03060d05 	movweq	r0, #27909	; 0x6d05
     d80:	1005010c 	andne	r0, r5, ip, lsl #2
     d84:	1f051306 	svcne	0x00051306
     d88:	060d052d 	streq	r0, [sp], -sp, lsr #10
     d8c:	0610052f 	ldreq	r0, [r0], -pc, lsr #10
     d90:	06110501 	ldreq	r0, [r1], -r1, lsl #10
     d94:	0682012f 	streq	r0, [r2], pc, lsr #2
     d98:	03090566 	movweq	r0, #38246	; 0x9566
     d9c:	05050176 	streq	r0, [r5, #-374]	; 0xfffffe8a
     da0:	2e0f0306 	cdpcs	3, 0, cr0, cr15, cr6, {0}
     da4:	13060105 	movwne	r0, #24837	; 0x6105
     da8:	2f03062e 	svccs	0x0003062e
     dac:	14050582 	strne	r0, [r5], #-1410	; 0xfffffa7e
     db0:	01060c05 	tsteq	r6, r5, lsl #24
     db4:	0601052e 	streq	r0, [r1], -lr, lsr #10
     db8:	60020500 	andvs	r0, r2, r0, lsl #10
     dbc:	1700008b 	strne	r0, [r0, -fp, lsl #1]
     dc0:	05160505 	ldreq	r0, [r6, #-1285]	; 0xfffffafb
     dc4:	050e0601 	streq	r0, [lr, #-1537]	; 0xfffff9ff
     dc8:	13063205 	movwne	r3, #25093	; 0x6205
     dcc:	73030a05 	movwvc	r0, #14853	; 0x3a05
     dd0:	15050501 	strne	r0, [r5, #-1281]	; 0xfffffaff
     dd4:	01060c05 	tsteq	r6, r5, lsl #24
     dd8:	0308054a 	movweq	r0, #34122	; 0x854a
     ddc:	0905010a 	stmdbeq	r5, {r1, r3, r8}
     de0:	01144b06 	tsteq	r4, r6, lsl #22
     de4:	1305054a 	movwne	r0, #21834	; 0x554a
     de8:	13060105 	movwne	r0, #24837	; 0x6105
     dec:	2a060905 	bcs	183208 <__bss_end__+0x178160>
     df0:	01059e01 	tsteq	r5, r1, lsl #28
     df4:	160505a6 	strne	r0, [r5], -r6, lsr #11
     df8:	0e060105 	adfeqs	f0, f6, f5
     dfc:	06320505 	ldrteq	r0, [r2], -r5, lsl #10
     e00:	030a0513 	movweq	r0, #42259	; 0xa513
     e04:	05050165 	streq	r0, [r5, #-357]	; 0xfffffe9b
     e08:	060c0515 			; <UNDEFINED> instruction: 0x060c0515
     e0c:	05054a01 	streq	r4, [r5, #-2561]	; 0xfffff5ff
     e10:	01190306 	tsteq	r9, r6, lsl #6
     e14:	01060805 	tsteq	r6, r5, lsl #16
     e18:	4b060905 	blmi	183234 <__bss_end__+0x17818c>
     e1c:	4a060114 	bmi	181274 <__bss_end__+0x1761cc>
     e20:	05052e06 	streq	r2, [r5, #-3590]	; 0xfffff1fa
     e24:	01051313 	tsteq	r5, r3, lsl r3
     e28:	09051306 	stmdbeq	r5, {r1, r2, r8, r9, ip}
     e2c:	9e014506 	cfsh32ls	mvfx4, mvfx1, #6
     e30:	21030105 	tstcs	r3, r5, lsl #2
     e34:	1305059e 	movwne	r0, #21918	; 0x559e
     e38:	11060105 	tstne	r6, r5, lsl #2
     e3c:	064b0505 	strbeq	r0, [fp], -r5, lsl #10
     e40:	0311052f 	tsteq	r1, #197132288	; 0xbc00000
     e44:	05050165 	streq	r0, [r5, #-357]	; 0xfffffe9b
     e48:	4c4b1314 	mcrrmi	3, 1, r1, fp, cr4
     e4c:	010a052f 	tsteq	sl, pc, lsr #10
     e50:	01061505 	tsteq	r6, r5, lsl #10
     e54:	2e062505 	cfsh32cs	mvfx2, mvfx6, #5
     e58:	01060505 	tsteq	r6, r5, lsl #10
     e5c:	05452705 	strbeq	r2, [r5, #-1797]	; 0xfffff8fb
     e60:	0e052e1b 	mcreq	14, 0, r2, cr5, cr11, {0}
     e64:	0502042e 	streq	r0, [r2, #-1070]	; 0xfffffbd2
     e68:	7dfb030c 	ldclvc	3, cr0, [fp, #48]!	; 0x30
     e6c:	0501042e 	streq	r0, [r1, #-1070]	; 0xfffffbd2
     e70:	0292030d 	addseq	r0, r2, #872415232	; 0x34000000
     e74:	0609054a 	streq	r0, [r9], -sl, asr #10
     e78:	052e7a03 	streq	r7, [lr, #-2563]!	; 0xfffff5fd
     e7c:	0c051028 	stceq	0, cr1, [r5], {40}	; 0x28
     e80:	10051506 	andne	r1, r5, r6, lsl #10
     e84:	0609052d 	streq	r0, [r9], -sp, lsr #10
     e88:	060c052f 	streq	r0, [ip], -pc, lsr #10
     e8c:	472c0501 	strmi	r0, [ip, -r1, lsl #10]!
     e90:	4a062505 	bmi	18a2ac <__bss_end__+0x17f204>
     e94:	01060505 	tsteq	r6, r5, lsl #10
     e98:	0c03064a 	stceq	6, cr0, [r3], {74}	; 0x4a
     e9c:	149e0101 	ldrne	r0, [lr], #257	; 0x101
     ea0:	03060106 	movweq	r0, #24838	; 0x6106
     ea4:	0105010a 	tsteq	r5, sl, lsl #2
     ea8:	0d051306 	stceq	3, cr1, [r5, #-24]	; 0xffffffe8
     eac:	666c0306 	strbtvs	r0, [ip], -r6, lsl #6
     eb0:	0c050204 	sfmeq	f0, 4, [r5], {4}
     eb4:	7df10306 	ldclvc	3, cr0, [r1, #24]!
     eb8:	05010401 	streq	r0, [r1, #-1025]	; 0xfffffbff
     ebc:	0290031a 	addseq	r0, r0, #1744830464	; 0x68000000
     ec0:	0502042e 	streq	r0, [r2, #-1070]	; 0xfffffbd2
     ec4:	7df0030c 	ldclvc	3, cr0, [r0, #48]!	; 0x30
     ec8:	0501042e 	streq	r0, [r1, #-1070]	; 0xfffffbd2
     ecc:	0291030d 	addseq	r0, r1, #872415232	; 0x34000000
     ed0:	0502042e 	streq	r0, [r2, #-1070]	; 0xfffffbd2
     ed4:	7def030c 	stclvc	3, cr0, [pc, #48]!	; f0c <__code_start__-0x70f4>
     ed8:	0501042e 	streq	r0, [r1, #-1070]	; 0xfffffbd2
     edc:	0291030d 	addseq	r0, r1, #872415232	; 0x34000000
     ee0:	651a054a 	ldrvs	r0, [sl, #-1354]	; 0xfffffab6
     ee4:	2f2f0d05 	svccs	0x002f0d05
     ee8:	78032c05 	stmdavc	r3, {r0, r2, sl, fp, sp}
     eec:	4a050566 	bmi	14248c <__bss_end__+0x1373e4>
     ef0:	05331305 	ldreq	r1, [r3, #-773]!	; 0xfffffcfb
     ef4:	132f060d 			; <UNDEFINED> instruction: 0x132f060d
     ef8:	0b050204 	bleq	141710 <__bss_end__+0x136668>
     efc:	017dee03 	cmneq	sp, r3, lsl #28
     f00:	06130505 	ldreq	r0, [r3], -r5, lsl #10
     f04:	05010401 	streq	r0, [r1, #-1025]	; 0xfffffbff
     f08:	9203060d 	andls	r0, r3, #13631488	; 0xd00000
     f0c:	28050102 	stmdacs	r5, {r1, r8}
     f10:	05017803 	streq	r7, [r1, #-2051]	; 0xfffff7fd
     f14:	05050125 	streq	r0, [r5, #-293]	; 0xfffffedb
     f18:	054a0106 	strbeq	r0, [sl, #-262]	; 0xfffffefa
     f1c:	1b050d27 	blne	1443c0 <__bss_end__+0x139318>
     f20:	2e0e052e 	cfsh32cs	mvfx0, mvfx14, #30
     f24:	03060105 	movweq	r0, #24837	; 0x6105
     f28:	05200821 	streq	r0, [r0, #-2081]!	; 0xfffff7df
     f2c:	05011305 	streq	r1, [r1, #-773]	; 0xfffffcfb
     f30:	052d0601 	streq	r0, [sp, #-1537]!	; 0xfffff9ff
     f34:	82062f05 	andhi	r2, r6, #5, 30
     f38:	01000802 	tsteq	r0, r2, lsl #16
     f3c:	00012101 	andeq	r2, r1, r1, lsl #2
     f40:	be000300 	cdplt	3, 0, cr0, cr0, cr0, {0}
     f44:	02000000 	andeq	r0, r0, #0, 0
     f48:	0d0efb01 	vstreq	d15, [lr, #-4]
     f4c:	01010100 	mrseq	r0, (UNDEF: 17)
     f50:	00000001 	andeq	r0, r0, r1
     f54:	01000001 	tsteq	r0, r1
     f58:	696c2f2e 	stmdbvs	ip!, {r1, r2, r3, r5, r8, r9, sl, fp, sp}^
     f5c:	2f006362 	svccs	0x00006362
     f60:	72657355 	rsbvc	r7, r5, #1409286145	; 0x54000001
     f64:	696d2f73 	stmdbvs	sp!, {r0, r1, r4, r5, r6, r8, r9, sl, fp, sp}^
     f68:	2f73656c 	svccs	0x0073656c
     f6c:	72756f53 	rsbsvc	r6, r5, #332	; 0x14c
     f70:	632f6563 			; <UNDEFINED> instruction: 0x632f6563
     f74:	30343273 	eorscc	r3, r4, r3, ror r2
     f78:	6c2f786c 	stcvs	8, cr7, [pc], #-432	; dd0 <__code_start__-0x7230>
     f7c:	69706269 	ldmdbvs	r0!, {r0, r3, r5, r6, r9, sp, lr}^
     f80:	636e692f 	cmnvs	lr, #770048	; 0xbc000
     f84:	6564756c 	strbvs	r7, [r4, #-1388]!	; 0xfffffa94
     f88:	706f2f00 	rsbvc	r2, pc, r0, lsl #30
     f8c:	6f682f74 	svcvs	0x00682f74
     f90:	7262656d 	rsbvc	r6, r2, #457179136	; 0x1b400000
     f94:	432f7765 			; <UNDEFINED> instruction: 0x432f7765
     f98:	616c6c65 	cmnvs	ip, r5, ror #24
     f9c:	72612f72 	rsbvc	r2, r1, #456	; 0x1c8
     fa0:	6f6e2d6d 	svcvs	0x006e2d6d
     fa4:	652d656e 	strvs	r6, [sp, #-1390]!	; 0xfffffa92
     fa8:	2d696261 	sfmcs	f6, 2, [r9, #-388]!	; 0xfffffe7c
     fac:	2d392f39 	ldccs	15, cr2, [r9, #-228]!	; 0xffffff1c
     fb0:	39313032 	ldmdbcc	r1!, {r1, r4, r5, ip, sp}
     fb4:	632d3471 			; <UNDEFINED> instruction: 0x632d3471
     fb8:	37303173 			; <UNDEFINED> instruction: 0x37303173
     fbc:	696c2f65 	stmdbvs	ip!, {r0, r2, r5, r6, r8, r9, sl, fp, sp}^
     fc0:	63672f62 	cmnvs	r7, #392	; 0x188
     fc4:	72612f63 	rsbvc	r2, r1, #396	; 0x18c
     fc8:	6f6e2d6d 	svcvs	0x006e2d6d
     fcc:	652d656e 	strvs	r6, [sp, #-1390]!	; 0xfffffa92
     fd0:	2f696261 	svccs	0x00696261
     fd4:	2e322e39 	mrccs	14, 1, r2, cr2, cr9, {1}
     fd8:	6e692f31 	mcrvs	15, 3, r2, cr9, cr1, {1}
     fdc:	64756c63 	ldrbtvs	r6, [r5], #-3171	; 0xfffff39d
     fe0:	6d000065 	stcvs	0, cr0, [r0, #-404]	; 0xfffffe6c
     fe4:	65736d65 	ldrbvs	r6, [r3, #-3429]!	; 0xfffff29b
     fe8:	00632e74 	rsbeq	r2, r3, r4, ror lr
     fec:	72000001 	andvc	r0, r0, #1, 0
     ff0:	682e6970 	stmdavs	lr!, {r4, r5, r6, r8, fp, sp, lr}
     ff4:	00000200 	andeq	r0, r0, r0, lsl #4
     ff8:	64647473 	strbtvs	r7, [r4], #-1139	; 0xfffffb8d
     ffc:	682e6665 	stmdavs	lr!, {r0, r2, r5, r6, r9, sl, sp, lr}
    1000:	00000300 	andeq	r0, r0, r0, lsl #6
    1004:	00290500 	eoreq	r0, r9, r0, lsl #10
    1008:	8d280205 	sfmhi	f0, 4, [r8, #-20]!	; 0xffffffec
    100c:	05150000 	ldreq	r0, [r5, #-0]
    1010:	29051305 	stmdbcs	r5, {r0, r2, r8, r9, ip}
    1014:	14051106 	strne	r1, [r5], #-262	; 0xfffffefa
    1018:	0605052f 	streq	r0, [r5], -pc, lsr #10
    101c:	010a0530 	tsteq	sl, r0, lsr r5
    1020:	09059e06 	stmdbeq	r5, {r1, r2, r9, sl, fp, ip, pc}
    1024:	0e05d706 	cdpeq	7, 0, cr13, cr5, cr6, {0}
    1028:	0a050106 	beq	141448 <__bss_end__+0x1363a0>
    102c:	09052d06 	stmdbeq	r5, {r1, r2, r8, sl, fp, sp}
    1030:	060e05bb 			; <UNDEFINED> instruction: 0x060e05bb
    1034:	0a052e01 	beq	14c840 <__bss_end__+0x141798>
    1038:	09052d06 	stmdbeq	r5, {r1, r2, r8, sl, fp, sp}
    103c:	060b054b 	streq	r0, [fp], -fp, asr #10
    1040:	2d0a0501 	cfstr32cs	mvfx0, [sl, #-4]
    1044:	052f0e05 	streq	r0, [pc, #-3589]!	; 247 <__code_start__-0x7db9>
    1048:	052d060a 	streq	r0, [sp, #-1546]!	; 0xfffff9f6
    104c:	0513060e 	ldreq	r0, [r3, #-1550]	; 0xfffff9f2
    1050:	052e0609 	streq	r0, [lr, #-1545]!	; 0xfffff9f7
    1054:	0505110a 	streq	r1, [r5, #-266]	; 0xfffffef6
    1058:	06010514 			; <UNDEFINED> instruction: 0x06010514
    105c:	00020213 	andeq	r0, r2, r3, lsl r2
    1060:	01200101 			; <UNDEFINED> instruction: 0x01200101
    1064:	00030000 	andeq	r0, r3, r0
    1068:	000000db 	ldrdeq	r0, [r0], -fp
    106c:	0efb0102 	cdpeq	1, 15, cr0, cr11, cr2, {0}
    1070:	0101000d 	tsteq	r1, sp
    1074:	00000101 	andeq	r0, r0, r1, lsl #2
    1078:	00000100 	andeq	r0, r0, r0, lsl #2
    107c:	6c2f2e01 	stcvs	14, cr2, [pc], #-4	; 1080 <__code_start__-0x6f80>
    1080:	00636269 	rsbeq	r6, r3, r9, ror #4
    1084:	74706f2f 	ldrbtvc	r6, [r0], #-3887	; 0xfffff0d1
    1088:	6d6f682f 	stclvs	8, cr6, [pc, #-188]!	; fd4 <__code_start__-0x702c>
    108c:	65726265 	ldrbvs	r6, [r2, #-613]!	; 0xfffffd9b
    1090:	65432f77 	strbvs	r2, [r3, #-3959]	; 0xfffff089
    1094:	72616c6c 	rsbvc	r6, r1, #108, 24	; 0x6c00
    1098:	6d72612f 	ldfvse	f6, [r2, #-188]!	; 0xffffff44
    109c:	6e6f6e2d 	cdpvs	14, 6, cr6, cr15, cr13, {1}
    10a0:	61652d65 	cmnvs	r5, r5, ror #26
    10a4:	392d6962 	pushcc	{r1, r5, r6, r8, fp, sp, lr}
    10a8:	322d392f 	eorcc	r3, sp, #770048	; 0xbc000
    10ac:	71393130 	teqvc	r9, r0, lsr r1
    10b0:	73632d34 	cmnvc	r3, #52, 26	; 0xd00
    10b4:	65373031 	ldrvs	r3, [r7, #-49]!	; 0xffffffcf
    10b8:	62696c2f 	rsbvs	r6, r9, #12032	; 0x2f00
    10bc:	6363672f 	cmnvs	r3, #12320768	; 0xbc0000
    10c0:	6d72612f 	ldfvse	f6, [r2, #-188]!	; 0xffffff44
    10c4:	6e6f6e2d 	cdpvs	14, 6, cr6, cr15, cr13, {1}
    10c8:	61652d65 	cmnvs	r5, r5, ror #26
    10cc:	392f6962 	stmdbcc	pc!, {r1, r5, r6, r8, fp, sp, lr}	; <UNPREDICTABLE>
    10d0:	312e322e 			; <UNDEFINED> instruction: 0x312e322e
    10d4:	636e692f 	cmnvs	lr, #770048	; 0xbc000
    10d8:	6564756c 	strbvs	r7, [r4, #-1388]!	; 0xfffffa94
    10dc:	73552f00 	cmpvc	r5, #0, 30
    10e0:	2f737265 	svccs	0x00737265
    10e4:	656c696d 	strbvs	r6, [ip, #-2413]!	; 0xfffff693
    10e8:	6f532f73 	svcvs	0x00532f73
    10ec:	65637275 	strbvs	r7, [r3, #-629]!	; 0xfffffd8b
    10f0:	3273632f 	rsbscc	r6, r3, #-1140850688	; 0xbc000000
    10f4:	786c3034 	stmdavc	ip!, {r2, r4, r5, ip, sp}^
    10f8:	62696c2f 	rsbvs	r6, r9, #12032	; 0x2f00
    10fc:	692f6970 	stmdbvs	pc!, {r4, r5, r6, r8, fp, sp, lr}	; <UNPREDICTABLE>
    1100:	756c636e 	strbvc	r6, [ip, #-878]!	; 0xfffffc92
    1104:	00006564 	andeq	r6, r0, r4, ror #10
    1108:	6e697270 	mcrvs	2, 3, r7, cr9, cr0, {3}
    110c:	632e6b74 			; <UNDEFINED> instruction: 0x632e6b74
    1110:	00000100 	andeq	r0, r0, r0, lsl #2
    1114:	61647473 	smcvs	18243	; 0x4743
    1118:	682e6772 	stmdavs	lr!, {r1, r4, r5, r6, r8, r9, sl, sp, lr}
    111c:	00000200 	andeq	r0, r0, r0, lsl #4
    1120:	2e697072 	mcrcs	0, 3, r7, cr9, cr2, {3}
    1124:	00030068 	andeq	r0, r3, r8, rrx
    1128:	75623c00 	strbvc	r3, [r2, #-3072]!	; 0xfffff400
    112c:	2d746c69 	ldclcs	12, cr6, [r4, #-420]!	; 0xfffffe5c
    1130:	003e6e69 	eorseq	r6, lr, r9, ror #28
    1134:	76000000 	strvc	r0, [r0], -r0
    1138:	72702d61 	rsbsvc	r2, r0, #6208	; 0x1840
    113c:	6b746e69 	blvs	1d1cae8 <__bss_end__+0x1d11a40>
    1140:	0100682e 	tsteq	r0, lr, lsr #16
    1144:	05000000 	streq	r0, [r0, #-0]
    1148:	02050022 	andeq	r0, r5, #34, 0	; 0x22
    114c:	00008da0 	andeq	r8, r0, r0, lsr #27
    1150:	14050517 	strne	r0, [r5], #-1303	; 0xfffffae9
    1154:	22051413 	andcs	r1, r5, #318767104	; 0x13000000
    1158:	12050d06 	andne	r0, r5, #384	; 0x180
    115c:	03220550 			; <UNDEFINED> instruction: 0x03220550
    1160:	05052e7a 	streq	r2, [r5, #-3706]	; 0xfffff186
    1164:	2f120533 	svccs	0x00120533
    1168:	05650505 	strbeq	r0, [r5, #-1285]!	; 0xfffffafb
    116c:	052f0609 	streq	r0, [pc, #-1545]!	; b6b <__code_start__-0x7495>
    1170:	05010612 	streq	r0, [r1, #-1554]	; 0xfffff9ee
    1174:	164b0605 	strbne	r0, [fp], -r5, lsl #12
    1178:	50064a06 	andpl	r4, r6, r6, lsl #20
    117c:	13060105 	movwne	r0, #24837	; 0x6105
    1180:	00080266 	andeq	r0, r8, r6, ror #4
    1184:	00a00101 	adceq	r0, r0, r1, lsl #2
    1188:	00030000 	andeq	r0, r3, r0
    118c:	00000057 	andeq	r0, r0, r7, asr r0
    1190:	0efb0102 	cdpeq	1, 15, cr0, cr11, cr2, {0}
    1194:	0101000d 	tsteq	r1, sp
    1198:	00000101 	andeq	r0, r0, r1, lsl #2
    119c:	00000100 	andeq	r0, r0, r0, lsl #2
    11a0:	6c2f2e01 	stcvs	14, cr2, [pc], #-4	; 11a4 <__code_start__-0x6e5c>
    11a4:	00636269 	rsbeq	r6, r3, r9, ror #4
    11a8:	6573552f 	ldrbvs	r5, [r3, #-1327]!	; 0xfffffad1
    11ac:	6d2f7372 	stcvs	3, cr7, [pc, #-456]!	; fec <__code_start__-0x7014>
    11b0:	73656c69 	cmnvc	r5, #26880	; 0x6900
    11b4:	756f532f 	strbvc	r5, [pc, #-815]!	; e8d <__code_start__-0x7173>
    11b8:	2f656372 	svccs	0x00656372
    11bc:	34327363 	ldrtcc	r7, [r2], #-867	; 0xfffffc9d
    11c0:	2f786c30 	svccs	0x00786c30
    11c4:	7062696c 	rsbvc	r6, r2, ip, ror #18
    11c8:	6e692f69 	cdpvs	15, 6, cr2, cr9, cr9, {3}
    11cc:	64756c63 	ldrbtvs	r6, [r5], #-3171	; 0xfffff39d
    11d0:	70000065 	andvc	r0, r0, r5, rrx
    11d4:	2e6b7475 	mcrcs	4, 3, r7, cr11, cr5, {3}
    11d8:	00010063 	andeq	r0, r1, r3, rrx
    11dc:	69707200 	ldmdbvs	r0!, {r9, ip, sp, lr}^
    11e0:	0200682e 	andeq	r6, r0, #3014656	; 0x2e0000
    11e4:	05000000 	streq	r0, [r0, #-0]
    11e8:	02050022 	andeq	r0, r5, #34, 0	; 0x22
    11ec:	00008df8 	strdeq	r8, [r0], -r8	; <UNPREDICTABLE>
    11f0:	13050515 	movwne	r0, #21781	; 0x5515
    11f4:	11062205 	tstne	r6, r5, lsl #4
    11f8:	060b052e 	streq	r0, [fp], -lr, lsr #10
    11fc:	0605052f 	streq	r0, [r5], -pc, lsr #10
    1200:	0009052e 	andeq	r0, r9, lr, lsr #10
    1204:	06020402 	streq	r0, [r2], -r2, lsl #8
    1208:	000f0567 	andeq	r0, pc, r7, ror #10
    120c:	49020402 	stmdbmi	r2, {r1, sl}
    1210:	02000b05 	andeq	r0, r0, #5120	; 0x1400
    1214:	05010204 	streq	r0, [r1, #-516]	; 0xfffffdfc
    1218:	04020005 	streq	r0, [r2], #-5
    121c:	062e0602 	strteq	r0, [lr], -r2, lsl #12
    1220:	0601054e 	streq	r0, [r1], -lr, asr #10
    1224:	00060213 	andeq	r0, r6, r3, lsl r2
    1228:	00e10101 	rsceq	r0, r1, r1, lsl #2
    122c:	00030000 	andeq	r0, r3, r0
    1230:	0000005b 	andeq	r0, r0, fp, asr r0
    1234:	0efb0102 	cdpeq	1, 15, cr0, cr11, cr2, {0}
    1238:	0101000d 	tsteq	r1, sp
    123c:	00000101 	andeq	r0, r0, r1, lsl #2
    1240:	00000100 	andeq	r0, r0, r0, lsl #2
    1244:	6c2f2e01 	stcvs	14, cr2, [pc], #-4	; 1248 <__code_start__-0x6db8>
    1248:	00636269 	rsbeq	r6, r3, r9, ror #4
    124c:	6573552f 	ldrbvs	r5, [r3, #-1327]!	; 0xfffffad1
    1250:	6d2f7372 	stcvs	3, cr7, [pc, #-456]!	; 1090 <__code_start__-0x6f70>
    1254:	73656c69 	cmnvc	r5, #26880	; 0x6900
    1258:	756f532f 	strbvc	r5, [pc, #-815]!	; f31 <__code_start__-0x70cf>
    125c:	2f656372 	svccs	0x00656372
    1260:	34327363 	ldrtcc	r7, [r2], #-867	; 0xfffffc9d
    1264:	2f786c30 	svccs	0x00786c30
    1268:	7062696c 	rsbvc	r6, r2, ip, ror #18
    126c:	6e692f69 	cdpvs	15, 6, cr2, cr9, cr9, {3}
    1270:	64756c63 	ldrbtvs	r6, [r5], #-3171	; 0xfffff39d
    1274:	72000065 	andvc	r0, r0, #101, 0	; 0x65
    1278:	722d6970 	eorvc	r6, sp, #112, 18	; 0x1c0000
    127c:	2e646e61 	cdpcs	14, 6, cr6, cr4, cr1, {3}
    1280:	00010063 	andeq	r0, r1, r3, rrx
    1284:	69707200 	ldmdbvs	r0!, {r9, ip, sp, lr}^
    1288:	0200682e 	andeq	r6, r0, #3014656	; 0x2e0000
    128c:	05000000 	streq	r0, [r0, #-0]
    1290:	02050021 	andeq	r0, r5, #33, 0	; 0x21
    1294:	00008e30 	andeq	r8, r0, r0, lsr lr
    1298:	05010a03 	streq	r0, [r1, #-2563]	; 0xfffff5fd
    129c:	19051305 	stmdbne	r5, {r0, r2, r8, r9, ip}
    12a0:	05050106 	streq	r0, [r5, #-262]	; 0xfffffefa
    12a4:	27054b06 	strcs	r4, [r5, -r6, lsl #22]
    12a8:	35051106 	strcc	r1, [r5, #-262]	; 0xfffffefa
    12ac:	2f190566 	svccs	0x00190566
    12b0:	05660a05 	strbeq	r0, [r6, #-2565]!	; 0xfffff5fb
    12b4:	052f0605 	streq	r0, [pc, #-1541]!	; cb7 <__code_start__-0x7349>
    12b8:	05130601 	ldreq	r0, [r3, #-1537]	; 0xfffff9ff
    12bc:	054c0620 	strbeq	r0, [ip, #-1568]	; 0xfffff9e0
    12c0:	10051305 	andne	r1, r5, r5, lsl #6
    12c4:	05017903 	streq	r7, [r1, #-2307]	; 0xfffff6fd
    12c8:	19051305 	stmdbne	r5, {r0, r2, r8, r9, ip}
    12cc:	05050106 	streq	r0, [r5, #-262]	; 0xfffffefa
    12d0:	27054b06 	strcs	r4, [r5, -r6, lsl #22]
    12d4:	35051106 	strcc	r1, [r5, #-262]	; 0xfffffefa
    12d8:	2f190566 	svccs	0x00190566
    12dc:	67060505 	strvs	r0, [r6, -r5, lsl #10]
    12e0:	050f1005 	streq	r1, [pc, #-5]	; 12e3 <__code_start__-0x6d1d>
    12e4:	05131305 	ldreq	r1, [r3, #-773]	; 0xfffffcfb
    12e8:	05110627 	ldreq	r0, [r1, #-1575]	; 0xfffff9d9
    12ec:	19056635 	stmdbne	r5, {r0, r2, r4, r5, r9, sl, sp, lr}
    12f0:	660a052f 	strvs	r0, [sl], -pc, lsr #10
    12f4:	2f060505 	svccs	0x00060505
    12f8:	17060105 	strne	r0, [r6, -r5, lsl #2]
    12fc:	69061f05 	stmdbvs	r6, {r0, r2, r8, r9, sl, fp, ip}
    1300:	05130505 	ldreq	r0, [r3, #-1285]	; 0xfffffafb
    1304:	0501060a 	streq	r0, [r1, #-1546]	; 0xfffff9f6
    1308:	06026701 	streq	r6, [r2], -r1, lsl #14
    130c:	fa010100 	blx	41714 <__bss_end__+0x3666c>
    1310:	03000008 	movweq	r0, #8
    1314:	0000f100 	andeq	pc, r0, r0, lsl #2
    1318:	fb010200 	blx	41b22 <__bss_end__+0x36a7a>
    131c:	01000d0e 	tsteq	r0, lr, lsl #26
    1320:	00010101 	andeq	r0, r1, r1, lsl #2
    1324:	00010000 	andeq	r0, r1, r0
    1328:	2f2e0100 	svccs	0x002e0100
    132c:	6362696c 	cmnvs	r2, #108, 18	; 0x1b0000
    1330:	706f2f00 	rsbvc	r2, pc, r0, lsl #30
    1334:	6f682f74 	svcvs	0x00682f74
    1338:	7262656d 	rsbvc	r6, r2, #457179136	; 0x1b400000
    133c:	432f7765 			; <UNDEFINED> instruction: 0x432f7765
    1340:	616c6c65 	cmnvs	ip, r5, ror #24
    1344:	72612f72 	rsbvc	r2, r1, #456	; 0x1c8
    1348:	6f6e2d6d 	svcvs	0x006e2d6d
    134c:	652d656e 	strvs	r6, [sp, #-1390]!	; 0xfffffa92
    1350:	2d696261 	sfmcs	f6, 2, [r9, #-388]!	; 0xfffffe7c
    1354:	2d392f39 	ldccs	15, cr2, [r9, #-228]!	; 0xffffff1c
    1358:	39313032 	ldmdbcc	r1!, {r1, r4, r5, ip, sp}
    135c:	632d3471 			; <UNDEFINED> instruction: 0x632d3471
    1360:	37303173 			; <UNDEFINED> instruction: 0x37303173
    1364:	696c2f65 	stmdbvs	ip!, {r0, r2, r5, r6, r8, r9, sl, fp, sp}^
    1368:	63672f62 	cmnvs	r7, #392	; 0x188
    136c:	72612f63 	rsbvc	r2, r1, #396	; 0x18c
    1370:	6f6e2d6d 	svcvs	0x006e2d6d
    1374:	652d656e 	strvs	r6, [sp, #-1390]!	; 0xfffffa92
    1378:	2f696261 	svccs	0x00696261
    137c:	2e322e39 	mrccs	14, 1, r2, cr2, cr9, {1}
    1380:	6e692f31 	mcrvs	15, 3, r2, cr9, cr1, {1}
    1384:	64756c63 	ldrbtvs	r6, [r5], #-3171	; 0xfffff39d
    1388:	552f0065 	strpl	r0, [pc, #-101]!	; 132b <__code_start__-0x6cd5>
    138c:	73726573 	cmnvc	r2, #482344960	; 0x1cc00000
    1390:	6c696d2f 	stclvs	13, cr6, [r9], #-188	; 0xffffff44
    1394:	532f7365 			; <UNDEFINED> instruction: 0x532f7365
    1398:	6372756f 	cmnvs	r2, #465567744	; 0x1bc00000
    139c:	73632f65 	cmnvc	r3, #404	; 0x194
    13a0:	6c303432 	cfldrsvs	mvf3, [r0], #-200	; 0xffffff38
    13a4:	696c2f78 	stmdbvs	ip!, {r3, r4, r5, r6, r8, r9, sl, fp, sp}^
    13a8:	2f697062 	svccs	0x00697062
    13ac:	6c636e69 	stclvs	14, cr6, [r3], #-420	; 0xfffffe5c
    13b0:	00656475 	rsbeq	r6, r5, r5, ror r4
    13b4:	2d617600 	stclcs	6, cr7, [r1, #-0]
    13b8:	6e697270 	mcrvs	2, 3, r7, cr9, cr0, {3}
    13bc:	632e6b74 			; <UNDEFINED> instruction: 0x632e6b74
    13c0:	00000100 	andeq	r0, r0, r0, lsl #2
    13c4:	69647473 	stmdbvs	r4!, {r0, r1, r4, r5, r6, sl, ip, sp, lr}^
    13c8:	672d746e 	strvs	r7, [sp, -lr, ror #8]!
    13cc:	682e6363 	stmdavs	lr!, {r0, r1, r5, r6, r8, r9, sp, lr}
    13d0:	00000200 	andeq	r0, r0, r0, lsl #4
    13d4:	2e697072 	mcrcs	0, 3, r7, cr9, cr2, {3}
    13d8:	00030068 	andeq	r0, r3, r8, rrx
    13dc:	69707200 	ldmdbvs	r0!, {r9, ip, sp, lr}^
    13e0:	746e692d 	strbtvc	r6, [lr], #-2349	; 0xfffff6d3
    13e4:	616e7265 	cmnvs	lr, r5, ror #4
    13e8:	00682e6c 	rsbeq	r2, r8, ip, ror #28
    13ec:	73000003 	movwvc	r0, #3
    13f0:	72616474 	rsbvc	r6, r1, #116, 8	; 0x74000000
    13f4:	00682e67 	rsbeq	r2, r8, r7, ror #28
    13f8:	3c000002 	stccc	0, cr0, [r0], {2}
    13fc:	6c697562 	cfstr64vs	mvdx7, [r9], #-392	; 0xfffffe78
    1400:	6e692d74 	mcrvs	13, 3, r2, cr9, cr4, {3}
    1404:	0000003e 	andeq	r0, r0, lr, lsr r0
    1408:	01050000 	mrseq	r0, (UNDEF: 5)
    140c:	c8020500 	stmdagt	r2, {r8, sl}
    1410:	0300008e 	movweq	r0, #142	; 0x8e
    1414:	050100c8 	streq	r0, [r1, #-200]	; 0xffffff38
    1418:	01051402 	tsteq	r5, r2, lsl #8
    141c:	04051006 	streq	r1, [r5], #-6
    1420:	2c010530 	cfstr32cs	mvfx0, [r1], {48}	; 0x30
    1424:	3004054a 	andcc	r0, r4, sl, asr #10
    1428:	31060205 	tstcc	r6, r5, lsl #4
    142c:	060b0513 			; <UNDEFINED> instruction: 0x060b0513
    1430:	0602052e 	streq	r0, [r2], -lr, lsr #10
    1434:	06090530 			; <UNDEFINED> instruction: 0x06090530
    1438:	2e0d2402 	cdpcs	4, 0, cr2, cr13, cr2, {0}
    143c:	060d052e 	streq	r0, [sp], -lr, lsr #10
    1440:	054a1703 	strbeq	r1, [sl, #-1795]	; 0xfffff8fd
    1444:	2d051311 	stccs	3, cr1, [r5, #-68]	; 0xffffffbc
    1448:	16050106 	strne	r0, [r5], -r6, lsl #2
    144c:	2f0d052e 	svccs	0x000d052e
    1450:	052d1605 	streq	r1, [sp, #-1541]!	; 0xfffff9fb
    1454:	052f0614 	streq	r0, [pc, #-1556]!	; e48 <__code_start__-0x71b8>
    1458:	05010617 	streq	r0, [r1, #-1559]	; 0xfffff9e9
    145c:	2f062e0d 	svccs	0x00062e0d
    1460:	01061205 	tsteq	r6, r5, lsl #4
    1464:	052d2f2e 	streq	r2, [sp, #-3886]!	; 0xfffff0d2
    1468:	052f060d 	streq	r0, [pc, #-1549]!	; e63 <__code_start__-0x719d>
    146c:	05010612 	streq	r0, [r1, #-1554]	; 0xfffff9ee
    1470:	052f0619 	streq	r0, [pc, #-1561]!	; e5f <__code_start__-0x71a1>
    1474:	01110304 	tsteq	r1, r4, lsl #6
    1478:	15020501 	strne	r0, [r2, #-1281]	; 0xfffffaff
    147c:	b2030e05 	andlt	r0, r3, #80	; 0x50
    1480:	0205017f 	andeq	r0, r5, #-1073741793	; 0xc000001f
    1484:	06060513 			; <UNDEFINED> instruction: 0x06060513
    1488:	06020501 	streq	r0, [r2], -r1, lsl #10
    148c:	01080530 	tsteq	r8, r0, lsr r5
    1490:	01060205 	tsteq	r6, r5, lsl #4
    1494:	0808054a 	stmdaeq	r8, {r1, r3, r6, r8, sl}
    1498:	06030591 			; <UNDEFINED> instruction: 0x06030591
    149c:	0608054a 	streq	r0, [r8], -sl, asr #10
    14a0:	06150501 	ldreq	r0, [r5], -r1, lsl #10
    14a4:	0108052d 	tsteq	r8, sp, lsr #10
    14a8:	05d70305 	ldrbeq	r0, [r7, #773]	; 0x305
    14ac:	05010608 	streq	r0, [r1, #-1544]	; 0xfffff9f8
    14b0:	02052d18 	andeq	r2, r5, #24, 26	; 0x600
    14b4:	2f08052e 	svccs	0x0008052e
    14b8:	2d061505 	cfstr32cs	mvfx1, [r6, #-20]	; 0xffffffec
    14bc:	05010805 	streq	r0, [r1, #-2053]	; 0xfffff7fb
    14c0:	05010602 	streq	r0, [r1, #-1538]	; 0xfffff9fe
    14c4:	052f0603 	streq	r0, [pc, #-1539]!	; ec9 <__code_start__-0x7137>
    14c8:	05110618 	ldreq	r0, [r1, #-1560]	; 0xfffff9e8
    14cc:	08052e02 	stmdaeq	r5, {r1, r9, sl, fp, sp}
    14d0:	0615052f 	ldreq	r0, [r5], -pc, lsr #10
    14d4:	0108052d 	tsteq	r8, sp, lsr #10
    14d8:	05130305 	ldreq	r0, [r3, #-773]	; 0xfffffcfb
    14dc:	05010608 	streq	r0, [r1, #-1544]	; 0xfffff9f8
    14e0:	052d0615 	streq	r0, [sp, #-1557]!	; 0xfffff9eb
    14e4:	01060108 	tsteq	r6, r8, lsl #2
    14e8:	a0060205 	andge	r0, r6, r5, lsl #4
    14ec:	01060505 	tsteq	r6, r5, lsl #10
    14f0:	05360405 	ldreq	r0, [r6, #-1029]!	; 0xfffffbfb
    14f4:	09052f11 	stmdbeq	r5, {r0, r4, r8, r9, sl, fp, sp}
    14f8:	3302052e 	movwcc	r0, #9518	; 0x252e
    14fc:	72030505 	andvc	r0, r3, #20971520	; 0x1400000
    1500:	0602052e 	streq	r0, [r2], -lr, lsr #10
    1504:	0501062f 	streq	r0, [r1, #-1583]	; 0xfffff9d1
    1508:	0516060e 	ldreq	r0, [r6, #-1550]	; 0xfffff9f2
    150c:	05131402 	ldreq	r1, [r3, #-1026]	; 0xfffffbfe
    1510:	02051303 	andeq	r1, r5, #201326592	; 0xc000000
    1514:	0b051514 	bleq	14696c <__bss_end__+0x13b8c4>
    1518:	06020501 	streq	r0, [r2], -r1, lsl #10
    151c:	03052e01 	movweq	r2, #24065	; 0x5e01
    1520:	0a056706 	beq	15b140 <__bss_end__+0x150098>
    1524:	02050106 	andeq	r0, r5, #-2147483647	; 0x80000001
    1528:	2f0a052d 	svccs	0x000a052d
    152c:	2d061705 	stccs	7, cr1, [r6, #-20]	; 0xffffffec
    1530:	05010b05 	streq	r0, [r1, #-2821]	; 0xfffff4fb
    1534:	05010602 	streq	r0, [r1, #-1538]	; 0xfffff9fe
    1538:	052e4c09 	streq	r4, [lr, #-3081]!	; 0xfffff3f7
    153c:	052e0602 	streq	r0, [lr, #-1538]!	; 0xfffff9fe
    1540:	05010609 	streq	r0, [r1, #-1545]	; 0xfffff9f7
    1544:	06300602 	ldrteq	r0, [r0], -r2, lsl #12
    1548:	03010501 	movweq	r0, #5377	; 0x1501
    154c:	09050138 	stmdbeq	r5, {r3, r4, r5, r8}
    1550:	2e4a4f03 	cdpcs	15, 4, cr4, cr10, cr3, {0}
    1554:	0619052e 	ldreq	r0, [r9], -lr, lsr #10
    1558:	054a2703 	strbeq	r2, [sl, #-1795]	; 0xfffff8fd
    155c:	2805131a 	stmdacs	r5, {r1, r3, r4, r8, r9, ip}
    1560:	1f050106 	svcne	0x00050106
    1564:	2f04052e 	svccs	0x0004052e
    1568:	052d1f05 	streq	r1, [sp, #-3845]!	; 0xfffff0fb
    156c:	052f060b 	streq	r0, [pc, #-1547]!	; f69 <__code_start__-0x7097>
    1570:	0501060e 	streq	r0, [r1, #-1550]	; 0xfffff9f2
    1574:	02052e04 	andeq	r2, r5, #4, 28	; 0x40
    1578:	4a590306 	bmi	1642198 <__bss_end__+0x16370f0>
    157c:	060b0513 			; <UNDEFINED> instruction: 0x060b0513
    1580:	0602052e 	streq	r0, [r2], -lr, lsr #10
    1584:	06090530 			; <UNDEFINED> instruction: 0x06090530
    1588:	050d2402 	streq	r2, [sp, #-1026]	; 0xfffffbfe
    158c:	13360604 	teqne	r6, #4, 12	; 0x400000
    1590:	01060605 	tsteq	r6, r5, lsl #12
    1594:	67060505 	strvs	r0, [r6, -r5, lsl #10]
    1598:	09051313 	stmdbeq	r5, {r0, r1, r4, r8, r9, ip}
    159c:	0d051106 	stfeqs	f1, [r5, #-24]	; 0xffffffe8
    15a0:	300b052b 	andcc	r0, fp, fp, lsr #10
    15a4:	052c0d05 	streq	r0, [ip, #-3333]!	; 0xfffff2fb
    15a8:	0405351b 	streq	r3, [r5], #-1307	; 0xfffffae5
    15ac:	05052d06 	streq	r2, [r5, #-3334]	; 0xfffff2fa
    15b0:	061b0513 			; <UNDEFINED> instruction: 0x061b0513
    15b4:	820a052e 	andhi	r0, sl, #192937984	; 0xb800000
    15b8:	052f0405 	streq	r0, [pc, #-1029]!	; 11bb <__code_start__-0x6e45>
    15bc:	0a052e0e 	beq	14cdfc <__bss_end__+0x141d54>
    15c0:	060b0549 	streq	r0, [fp], -r9, asr #10
    15c4:	0604052f 	streq	r0, [r4], -pc, lsr #10
    15c8:	052f0601 	streq	r0, [pc, #-1537]!	; fcf <__code_start__-0x7031>
    15cc:	05010606 	streq	r0, [r1, #-1542]	; 0xfffff9fa
    15d0:	052f0605 	streq	r0, [pc, #-1541]!	; fd3 <__code_start__-0x702d>
    15d4:	2e01060a 	cfmadd32cs	mvax0, mvfx0, mvfx1, mvfx10
    15d8:	2e2e0705 	cdpcs	7, 2, cr0, cr14, cr5, {0}
    15dc:	0604052e 	streq	r0, [r4], -lr, lsr #10
    15e0:	05010d03 	streq	r0, [r1, #-3331]	; 0xfffff2fd
    15e4:	46030602 	strmi	r0, [r3], -r2, lsl #12
    15e8:	03090501 	movweq	r0, #38145	; 0x9501
    15ec:	04052e3a 	streq	r2, [r5], #-3642	; 0xfffff1c6
    15f0:	0d032f06 	stceq	15, cr2, [r3, #-24]	; 0xffffffe8
    15f4:	02050101 	andeq	r0, r5, #1073741824	; 0x40000000
    15f8:	030e0515 	movweq	r0, #58645	; 0xe515
    15fc:	05017fb2 	streq	r7, [r1, #-4018]	; 0xfffff04e
    1600:	05141302 	ldreq	r1, [r4, #-770]	; 0xfffffcfe
    1604:	06050108 	streq	r0, [r5], -r8, lsl #2
    1608:	3c031006 	stccc	0, cr1, [r3], {6}
    160c:	0302052e 	movweq	r0, #9518	; 0x252e
    1610:	30064a46 	andcc	r4, r6, r6, asr #20
    1614:	01060505 	tsteq	r6, r5, lsl #10
    1618:	02052e2e 	andeq	r2, r5, #736	; 0x2e0
    161c:	01064b06 	tsteq	r6, r6, lsl #22
    1620:	16060e05 	strne	r0, [r6], -r5, lsl #28
    1624:	13140205 	tstne	r4, #1342177280	; 0x50000000
    1628:	0b051515 	bleq	146a84 <__bss_end__+0x13b9dc>
    162c:	06020501 	streq	r0, [r2], -r1, lsl #10
    1630:	0530062e 	ldreq	r0, [r0, #-1582]!	; 0xfffff9d2
    1634:	05010609 	streq	r0, [r1, #-1545]	; 0xfffff9f7
    1638:	064c0602 	strbeq	r0, [ip], -r2, lsl #12
    163c:	03010501 	movweq	r0, #5377	; 0x1501
    1640:	06050138 			; <UNDEFINED> instruction: 0x06050138
    1644:	054a6e03 	strbeq	r6, [sl, #-3587]	; 0xfffff1fd
    1648:	66460302 	strbvs	r0, [r6], -r2, lsl #6
    164c:	04052e4a 	streq	r2, [r5], #-3658	; 0xfffff1b6
    1650:	00c80306 	sbceq	r0, r8, r6, lsl #6
    1654:	01010101 	tsteq	r1, r1, lsl #2
    1658:	06822e06 	streq	r2, [r2], r6, lsl #28
    165c:	2e72034a 	cdpcs	3, 7, cr0, cr2, cr10, {2}
    1660:	01060905 	tsteq	r6, r5, lsl #18
    1664:	2f060405 	svccs	0x00060405
    1668:	01010d03 	tsteq	r1, r3, lsl #26
    166c:	05150205 	ldreq	r0, [r5, #-517]	; 0xfffffdfb
    1670:	7fb2030e 	svcvc	0x00b2030e
    1674:	13020501 	movwne	r0, #9473	; 0x2501
    1678:	01080514 	tsteq	r8, r4, lsl r5
    167c:	03060905 	movweq	r0, #26885	; 0x6905
    1680:	0605011b 			; <UNDEFINED> instruction: 0x0605011b
    1684:	032e6303 			; <UNDEFINED> instruction: 0x032e6303
    1688:	2e2e2e3c 	mcrcs	14, 1, r2, cr14, cr12, {1}
    168c:	03064805 	movweq	r4, #26629	; 0x6805
    1690:	3c087fb4 	stccc	15, cr7, [r8], {180}	; 0xb4
    1694:	01130505 	tsteq	r3, r5, lsl #10
    1698:	02002e06 	andeq	r2, r0, #96	; 0x60
    169c:	2e060204 	cdpcs	2, 0, cr0, cr6, cr4, {0}
    16a0:	02040200 	andeq	r0, r4, #0, 4
    16a4:	04020001 	streq	r0, [r2], #-1
    16a8:	11051302 	tstne	r5, r2, lsl #6
    16ac:	02040200 	andeq	r0, r4, #0, 4
    16b0:	07050106 	streq	r0, [r5, -r6, lsl #2]
    16b4:	02040200 	andeq	r0, r4, #0, 4
    16b8:	0011052f 	andseq	r0, r1, pc, lsr #10
    16bc:	2d020402 	cfstrscs	mvf0, [r2, #-8]
    16c0:	02000505 	andeq	r0, r0, #20971520	; 0x1400000
    16c4:	2f060204 	svccs	0x00060204
    16c8:	02000905 	andeq	r0, r0, #81920	; 0x14000
    16cc:	05130204 	ldreq	r0, [r3, #-516]	; 0xfffffdfc
    16d0:	0402000e 	streq	r0, [r2], #-14
    16d4:	05010602 	streq	r0, [r1, #-1538]	; 0xfffff9fe
    16d8:	04020005 	streq	r0, [r2], #-5
    16dc:	00630601 	rsbeq	r0, r3, r1, lsl #12
    16e0:	01010402 	tsteq	r1, r2, lsl #8
    16e4:	02004805 	andeq	r4, r0, #327680	; 0x50000
    16e8:	11060104 	tstne	r6, r4, lsl #2
    16ec:	02000505 	andeq	r0, r0, #20971520	; 0x1400000
    16f0:	052f0104 	streq	r0, [pc, #-260]!	; 15f4 <__code_start__-0x6a0c>
    16f4:	04020048 	streq	r0, [r2], #-72	; 0xffffffb8
    16f8:	05052d01 	streq	r2, [r5, #-3329]	; 0xfffff2ff
    16fc:	01040200 	mrseq	r0, R12_usr
    1700:	0402002f 	streq	r0, [r2], #-47	; 0xffffffd1
    1704:	02004a01 	andeq	r4, r0, #4096	; 0x1000
    1708:	004a0104 	subeq	r0, sl, r4, lsl #2
    170c:	06010402 	streq	r0, [r1], -r2, lsl #8
    1710:	0340054a 	movteq	r0, #1354	; 0x54a
    1714:	06d600e1 	ldrbeq	r0, [r6], r1, ror #1
    1718:	4e090501 	cfsh32mi	mvfx0, mvfx9, #1
    171c:	3008052e 	andcc	r0, r8, lr, lsr #10
    1720:	05291e05 	streq	r1, [r9, #-3589]!	; 0xfffff1fb
    1724:	0d052e12 	stceq	14, cr2, [r5, #-72]	; 0xffffffb8
    1728:	06020533 			; <UNDEFINED> instruction: 0x06020533
    172c:	13050545 	movwne	r0, #21829	; 0x5545
    1730:	05140205 	ldreq	r0, [r4, #-517]	; 0xfffffdfb
    1734:	02051305 	andeq	r1, r5, #335544320	; 0x14000000
    1738:	01080513 	tsteq	r8, r3, lsl r5
    173c:	03064005 	movweq	r4, #24581	; 0x6005
    1740:	052e017a 	streq	r0, [lr, #-378]!	; 0xfffffe86
    1744:	0566340d 	strbeq	r3, [r6, #-1037]!	; 0xfffffbf3
    1748:	4a200311 	bmi	802394 <__bss_end__+0x7f72ec>
    174c:	0604054a 	streq	r0, [r4], -sl, asr #10
    1750:	05016203 	streq	r6, [r1, #-515]	; 0xfffffdfd
    1754:	05010609 	streq	r0, [r1, #-1545]	; 0xfffff9f7
    1758:	08052e0f 	stmdaeq	r5, {r0, r1, r2, r3, r9, sl, fp, sp}
    175c:	0d052c06 	stceq	12, cr2, [r5, #-24]	; 0xffffffe8
    1760:	03052e06 	movweq	r2, #24070	; 0x5e06
    1764:	05056706 	streq	r6, [r5, #-1798]	; 0xfffff8fa
    1768:	08050106 	stmdaeq	r5, {r1, r2, r8}
    176c:	0e054d06 	cdpeq	13, 0, cr4, cr5, cr6, {0}
    1770:	0a050106 	beq	141b90 <__bss_end__+0x136ae8>
    1774:	2f09052e 	svccs	0x0009052e
    1778:	2f060405 	svccs	0x00060405
    177c:	01060705 	tsteq	r6, r5, lsl #14
    1780:	052c0a05 	streq	r0, [ip, #-2565]!	; 0xfffff5fb
    1784:	05320604 	ldreq	r0, [r2, #-1540]!	; 0xfffff9fc
    1788:	9803062d 	stmdals	r3, {r0, r2, r3, r5, r9, sl}
    178c:	0905017f 	stmdbeq	r5, {r0, r1, r2, r3, r4, r5, r6, r8}
    1790:	2e00ed03 	cdpcs	13, 0, cr14, cr0, cr3, {0}
    1794:	052c0d05 	streq	r0, [ip, #-3333]!	; 0xfffff2fb
    1798:	04052b07 	streq	r2, [r5], #-2823	; 0xfffff4f9
    179c:	14133006 	ldrne	r3, [r3], #-6
    17a0:	05010905 	streq	r0, [r1, #-2309]	; 0xfffff6fb
    17a4:	7f93030c 	svcvc	0x0093030c
    17a8:	011d0501 	tsteq	sp, r1, lsl #10
    17ac:	09050106 	stmdbeq	r5, {r1, r2, r8}
    17b0:	0100ed03 	tsteq	r0, r3, lsl #26
    17b4:	2f060505 	svccs	0x00060505
    17b8:	01061205 	tsteq	r6, r5, lsl #4
    17bc:	0b052d2e 	bleq	14cc7c <__bss_end__+0x141bd4>
    17c0:	0605052f 	streq	r0, [r5], -pc, lsr #10
    17c4:	1009052f 	andne	r0, r9, pc, lsr #10
    17c8:	93030c05 	movwls	r0, #15365	; 0x3c05
    17cc:	1d05017f 	stfnes	f0, [r5, #-508]	; 0xfffffe04
    17d0:	062d0501 	strteq	r0, [sp], -r1, lsl #10
    17d4:	03090501 	movweq	r0, #38145	; 0x9501
    17d8:	052e00ed 	streq	r0, [lr, #-237]!	; 0xffffff13
    17dc:	014e0604 	cmpeq	lr, r4, lsl #12
    17e0:	02040200 	andeq	r0, r4, #0, 4
    17e4:	0402004a 	streq	r0, [r2], #-74	; 0xffffffb6
    17e8:	02000102 	andeq	r0, r0, #-2147483648	; 0x80000000
    17ec:	00150204 	andseq	r0, r5, r4, lsl #4
    17f0:	06020402 	streq	r0, [r2], -r2, lsl #8
    17f4:	00123602 	andseq	r3, r2, r2, lsl #12
    17f8:	2e020402 	cdpcs	4, 0, cr0, cr2, cr2, {0}
    17fc:	03060205 	movweq	r0, #25093	; 0x6205
    1800:	050100d1 	streq	r0, [r1, #-209]	; 0xffffff2f
    1804:	2e010607 	cfmadd32cs	mvax0, mvfx0, mvfx1, mvfx7
    1808:	2f060205 	svccs	0x00060205
    180c:	01060b05 	tsteq	r6, r5, lsl #22
    1810:	052f0105 	streq	r0, [pc, #-261]!	; 1713 <__code_start__-0x68ed>
    1814:	65030605 	strvs	r0, [r3, #-1541]	; 0xfffff9fb
    1818:	0609054a 	streq	r0, [r9], -sl, asr #10
    181c:	05056601 	streq	r6, [r5, #-1537]	; 0xfffff9ff
    1820:	04059f06 	streq	r9, [r5], #-3846	; 0xfffff0fa
    1824:	05011103 	streq	r1, [r1, #-259]	; 0xfffffefd
    1828:	05010607 	streq	r0, [r1, #-1543]	; 0xfffff9f9
    182c:	05310604 	ldreq	r0, [r1, #-1540]!	; 0xfffff9fc
    1830:	1305010a 	movwne	r0, #20746	; 0x510a
    1834:	01040200 	mrseq	r0, R12_usr
    1838:	10052e06 	andne	r2, r5, r6, lsl #28
    183c:	01040200 	mrseq	r0, R12_usr
    1840:	0605052e 	streq	r0, [r5], -lr, lsr #10
    1844:	060a054b 	streq	r0, [sl], -fp, asr #10
    1848:	052d0601 	streq	r0, [sp, #-1537]!	; 0xfffff9ff
    184c:	05010604 	streq	r0, [r1, #-1540]	; 0xfffff9fc
    1850:	b6030611 			; <UNDEFINED> instruction: 0xb6030611
    1854:	0113667f 	tsteq	r3, pc, ror r6
    1858:	02040200 	andeq	r0, r4, #0, 4
    185c:	ba06ba06 	blt	1b007c <__bss_end__+0x1a4fd4>
    1860:	1a051401 	bne	14686c <__bss_end__+0x13b7c4>
    1864:	2e2e1306 	cdpcs	3, 2, cr1, cr14, cr6, {0}
    1868:	674e1105 	strbvs	r1, [lr, -r5, lsl #2]
    186c:	05681405 	strbeq	r1, [r8, #-1029]!	; 0xfffffbfb
    1870:	15058213 	strne	r8, [r5, #-531]	; 0xfffffded
    1874:	054a7803 	strbeq	r7, [sl, #-2051]	; 0xfffff7fd
    1878:	134b0611 	movtne	r0, #46609	; 0xb611
    187c:	14131413 	ldrne	r1, [r3], #-1043	; 0xfffffbed
    1880:	01061305 	tsteq	r6, r5, lsl #6
    1884:	2f060905 	svccs	0x00060905
    1888:	01060d05 	tsteq	r6, r5, lsl #26
    188c:	09052e2e 	stmdbeq	r5, {r1, r2, r3, r5, r9, sl, fp, sp}
    1890:	9d0d05bb 	cfstr32ls	mvfx0, [sp, #-748]	; 0xfffffd14
    1894:	2f060905 	svccs	0x00060905
    1898:	062f1505 	strteq	r1, [pc], -r5, lsl #10
    189c:	034a7503 	movteq	r7, #42243	; 0xa503
    18a0:	054a2e0b 	strbeq	r2, [sl, #-3595]	; 0xfffff1f5
    18a4:	23030605 	movwcs	r0, #13829	; 0x3605
    18a8:	06090501 	streq	r0, [r9], -r1, lsl #10
    18ac:	05052e01 	streq	r2, [r5, #-3585]	; 0xfffff1ff
    18b0:	6e03d706 	cdpvs	7, 0, cr13, cr3, cr6, {0}
    18b4:	010e032e 	tsteq	lr, lr, lsr #6
    18b8:	01060905 	tsteq	r6, r5, lsl #18
    18bc:	03060505 	movweq	r0, #25861	; 0x6505
    18c0:	01054a10 	tsteq	r5, r0, lsl sl
    18c4:	017eed03 	cmneq	lr, r3, lsl #26
    18c8:	15140205 	ldrne	r0, [r4, #-517]	; 0xfffffdfb
    18cc:	04051413 	streq	r1, [r5], #-1043	; 0xfffffbed
    18d0:	05011a03 	streq	r1, [r1, #-2563]	; 0xfffff5fd
    18d4:	05010609 	streq	r0, [r1, #-1545]	; 0xfffff9f7
    18d8:	2e460302 	cdpcs	3, 4, cr0, cr6, cr2, {0}
    18dc:	3a030905 	bcc	c3cf8 <__bss_end__+0xb8c50>
    18e0:	0604052e 	streq	r0, [r4], -lr, lsr #10
    18e4:	010d032f 	tsteq	sp, pc, lsr #6
    18e8:	15020501 	strne	r0, [r2, #-1281]	; 0xfffffaff
    18ec:	b2030e05 	andlt	r0, r3, #80	; 0x50
    18f0:	0205017f 	andeq	r0, r5, #-1073741793	; 0xc000001f
    18f4:	08051413 	stmdaeq	r5, {r0, r1, r4, sl, ip}
    18f8:	06020501 	streq	r0, [r2], -r1, lsl #10
    18fc:	9f080501 	svcls	0x00080501
    1900:	4a060305 	bmi	18251c <__bss_end__+0x177474>
    1904:	08050106 	stmdaeq	r5, {r1, r2, r8}
    1908:	0615052e 	ldreq	r0, [r5], -lr, lsr #10
    190c:	0108052d 	tsteq	r8, sp, lsr #10
    1910:	062f0305 	strteq	r0, [pc], -r5, lsl #6
    1914:	2e080501 	cfsh32cs	mvfx0, mvfx8, #1
    1918:	2d061505 	cfstr32cs	mvfx1, [r6, #-20]	; 0xffffffec
    191c:	05010805 	streq	r0, [r1, #-2053]	; 0xfffff7fb
    1920:	01062f03 	tsteq	r6, r3, lsl #30
    1924:	052e0805 	streq	r0, [lr, #-2053]!	; 0xfffff7fb
    1928:	052d0615 	streq	r0, [sp, #-1557]!	; 0xfffff9eb
    192c:	03050108 	movweq	r0, #20744	; 0x5108
    1930:	0501062f 	streq	r0, [r1, #-1583]	; 0xfffff9d1
    1934:	15052e08 	strne	r2, [r5, #-3592]	; 0xfffff1f8
    1938:	08052d06 	stmdaeq	r5, {r1, r2, r8, sl, fp, sp}
    193c:	2f030501 	svccs	0x00030501
    1940:	08050106 	stmdaeq	r5, {r1, r2, r8}
    1944:	0615052e 	ldreq	r0, [r5], -lr, lsr #10
    1948:	0108052d 	tsteq	r8, sp, lsr #10
    194c:	062f0305 	strteq	r0, [pc], -r5, lsl #6
    1950:	2e080501 	cfsh32cs	mvfx0, mvfx8, #1
    1954:	2d061505 	cfstr32cs	mvfx1, [r6, #-20]	; 0xffffffec
    1958:	05010805 	streq	r0, [r1, #-2053]	; 0xfffff7fb
    195c:	08051303 	stmdaeq	r5, {r0, r1, r8, r9, ip}
    1960:	15050106 	strne	r0, [r5, #-262]	; 0xfffffefa
    1964:	08052d06 	stmdaeq	r5, {r1, r2, r8, sl, fp, sp}
    1968:	05660601 	strbeq	r0, [r6, #-1537]!	; 0xfffff9ff
    196c:	05670603 	strbeq	r0, [r7, #-1539]!	; 0xfffff9fd
    1970:	05010608 	streq	r0, [r1, #-1544]	; 0xfffff9f8
    1974:	02052d18 	andeq	r2, r5, #24, 26	; 0x600
    1978:	2f08052e 	svccs	0x0008052e
    197c:	2d061505 	cfstr32cs	mvfx1, [r6, #-20]	; 0xffffffec
    1980:	05010805 	streq	r0, [r1, #-2053]	; 0xfffff7fb
    1984:	05010602 	streq	r0, [r1, #-1538]	; 0xfffff9fe
    1988:	052f0603 	streq	r0, [pc, #-1539]!	; 138d <__code_start__-0x6c73>
    198c:	05110618 	ldreq	r0, [r1, #-1560]	; 0xfffff9e8
    1990:	08052e02 	stmdaeq	r5, {r1, r9, sl, fp, sp}
    1994:	0615052f 	ldreq	r0, [r5], -pc, lsr #10
    1998:	0108052d 	tsteq	r8, sp, lsr #10
    199c:	05130305 	ldreq	r0, [r3, #-773]	; 0xfffffcfb
    19a0:	05010608 	streq	r0, [r1, #-1544]	; 0xfffff9f8
    19a4:	052d0615 	streq	r0, [sp, #-1557]!	; 0xfffff9eb
    19a8:	05050108 	streq	r0, [r5, #-264]	; 0xfffffef8
    19ac:	054a1406 	strbeq	r1, [sl, #-1030]	; 0xfffffbfa
    19b0:	052e0602 	streq	r0, [lr, #-1538]!	; 0xfffff9fe
    19b4:	0519060e 	ldreq	r0, [r9, #-1550]	; 0xfffff9f2
    19b8:	11052f04 	tstne	r5, r4, lsl #30
    19bc:	4a09052f 	bmi	242e80 <__bss_end__+0x237dd8>
    19c0:	05330205 	ldreq	r0, [r3, #-517]!	; 0xfffffdfb
    19c4:	2e720305 	cdpcs	3, 7, cr0, cr2, cr5, {0}
    19c8:	2f060205 	svccs	0x00060205
    19cc:	0e050106 	adfeqs	f0, f5, f6
    19d0:	02051606 	andeq	r1, r5, #6291456	; 0x600000
    19d4:	03051314 	movweq	r1, #21268	; 0x5314
    19d8:	14020513 	strne	r0, [r2], #-1299	; 0xfffffaed
    19dc:	010b0515 	tsteq	fp, r5, lsl r5
    19e0:	01060205 	tsteq	r6, r5, lsl #4
    19e4:	0305662e 	movweq	r6, #22062	; 0x562e
    19e8:	0a052f06 	beq	14d608 <__bss_end__+0x142560>
    19ec:	02050106 	andeq	r0, r5, #-2147483647	; 0x80000001
    19f0:	2f0a052d 	svccs	0x000a052d
    19f4:	2d061705 	stccs	7, cr1, [r6, #-20]	; 0xffffffec
    19f8:	05010b05 	streq	r0, [r1, #-2821]	; 0xfffff4fb
    19fc:	4a010602 	bmi	4320c <__bss_end__+0x38164>
    1a00:	0605054a 	streq	r0, [r5], -sl, asr #10
    1a04:	01019503 	tsteq	r1, r3, lsl #10
    1a08:	03061105 	movweq	r1, #24837	; 0x6105
    1a0c:	05017ef8 	streq	r7, [r1, #-3832]	; 0xfffff108
    1a10:	0188031b 	orreq	r0, r8, fp, lsl r3
    1a14:	0601054a 	streq	r0, [r1], -sl, asr #10
    1a18:	2e7ef303 	cdpcs	3, 7, cr15, cr14, cr3, {0}
    1a1c:	15140205 	ldrne	r0, [r4, #-517]	; 0xfffffdfb
    1a20:	19051413 	stmdbne	r5, {r0, r1, r4, sl, ip}
    1a24:	05012203 	streq	r2, [r1, #-515]	; 0xfffffdfd
    1a28:	2805131a 	stmdacs	r5, {r1, r3, r4, r8, r9, ip}
    1a2c:	1f050106 	svcne	0x00050106
    1a30:	2f04052e 	svccs	0x0004052e
    1a34:	054a0e05 	strbeq	r0, [sl, #-3589]	; 0xfffff1fb
    1a38:	0b052d1f 	bleq	14cebc <__bss_end__+0x141e14>
    1a3c:	04052f06 	streq	r2, [r5], #-3846	; 0xfffff0fa
    1a40:	32060106 	andcc	r0, r6, #-2147483647	; 0x80000001
    1a44:	15020501 	strne	r0, [r2, #-1281]	; 0xfffffaff
    1a48:	b2030e05 	andlt	r0, r3, #80	; 0x50
    1a4c:	0205017f 	andeq	r0, r5, #-1073741793	; 0xc000001f
    1a50:	06060513 			; <UNDEFINED> instruction: 0x06060513
    1a54:	06020501 	streq	r0, [r2], -r1, lsl #10
    1a58:	01080530 	tsteq	r8, r0, lsr r5
    1a5c:	01060205 	tsteq	r6, r5, lsl #4
    1a60:	08060305 	stmdaeq	r6, {r0, r2, r8, r9}
    1a64:	06080521 	streq	r0, [r8], -r1, lsr #10
    1a68:	06150501 	ldreq	r0, [r5], -r1, lsl #10
    1a6c:	01080549 	tsteq	r8, r9, asr #10
    1a70:	05d70305 	ldrbeq	r0, [r7, #773]	; 0x305
    1a74:	05010608 	streq	r0, [r1, #-1544]	; 0xfffff9f8
    1a78:	02052d18 	andeq	r2, r5, #24, 26	; 0x600
    1a7c:	2f08052e 	svccs	0x0008052e
    1a80:	2d061505 	cfstr32cs	mvfx1, [r6, #-20]	; 0xffffffec
    1a84:	05010805 	streq	r0, [r1, #-2053]	; 0xfffff7fb
    1a88:	05010602 	streq	r0, [r1, #-1538]	; 0xfffff9fe
    1a8c:	052f0603 	streq	r0, [pc, #-1539]!	; 1491 <__code_start__-0x6b6f>
    1a90:	05110618 	ldreq	r0, [r1, #-1560]	; 0xfffff9e8
    1a94:	08052e02 	stmdaeq	r5, {r1, r9, sl, fp, sp}
    1a98:	0615052f 	ldreq	r0, [r5], -pc, lsr #10
    1a9c:	0108052d 	tsteq	r8, sp, lsr #10
    1aa0:	05130305 	ldreq	r0, [r3, #-773]	; 0xfffffcfb
    1aa4:	05010608 	streq	r0, [r1, #-1544]	; 0xfffff9f8
    1aa8:	052d0615 	streq	r0, [sp, #-1557]!	; 0xfffff9eb
    1aac:	05050108 	streq	r0, [r5, #-264]	; 0xfffffef8
    1ab0:	02051406 	andeq	r1, r5, #100663296	; 0x6000000
    1ab4:	04056606 	streq	r6, [r5], #-1542	; 0xfffff9fa
    1ab8:	05051a06 	streq	r1, [r5, #-2566]	; 0xfffff5fa
    1abc:	054a7803 	strbeq	r7, [sl, #-2051]	; 0xfffff7fd
    1ac0:	062f0602 	strteq	r0, [pc], -r2, lsl #12
    1ac4:	060e0501 	streq	r0, [lr], -r1, lsl #10
    1ac8:	14020516 	strne	r0, [r2], #-1302	; 0xfffffaea
    1acc:	06040513 			; <UNDEFINED> instruction: 0x06040513
    1ad0:	06030501 	streq	r0, [r3], -r1, lsl #10
    1ad4:	0611052f 	ldreq	r0, [r1], -pc, lsr #10
    1ad8:	2e090501 	cfsh32cs	mvfx0, mvfx9, #1
    1adc:	30060205 	andcc	r0, r6, r5, lsl #4
    1ae0:	010b0515 	tsteq	fp, r5, lsl r5
    1ae4:	01060205 	tsteq	r6, r5, lsl #4
    1ae8:	052e4a4a 	streq	r4, [lr, #-2634]!	; 0xfffff5b6
    1aec:	052f0603 	streq	r0, [pc, #-1539]!	; 14f1 <__code_start__-0x6b0f>
    1af0:	0501060a 	streq	r0, [r1, #-1546]	; 0xfffff9f6
    1af4:	0a052d02 	beq	14cf04 <__bss_end__+0x141e5c>
    1af8:	0617052f 	ldreq	r0, [r7], -pc, lsr #10
    1afc:	010b052d 	tsteq	fp, sp, lsr #10
    1b00:	01060205 	tsteq	r6, r5, lsl #4
    1b04:	14062e4a 	strne	r2, [r6], #-3658	; 0xfffff1b6
    1b08:	01060905 	tsteq	r6, r5, lsl #18
    1b0c:	4c060205 	sfmmi	f0, 4, [r6], {5}
    1b10:	05050106 	streq	r0, [r5, #-262]	; 0xfffffefa
    1b14:	01980306 	orrseq	r0, r8, r6, lsl #6
    1b18:	07052a01 	streq	r2, [r5, -r1, lsl #20]
    1b1c:	05050106 	streq	r0, [r5, #-262]	; 0xfffffefa
    1b20:	18052f06 	stmdane	r5, {r1, r2, r8, r9, sl, fp, sp}
    1b24:	052e5303 	streq	r5, [lr, #-771]!	; 0xfffffcfd
    1b28:	0501061b 	streq	r0, [r1, #-1563]	; 0xfffff9e5
    1b2c:	0905821a 	stmdbeq	r5, {r1, r3, r4, r9, pc}
    1b30:	0d054b06 	vstreq	d4, [r5, #-24]	; 0xffffffe8
    1b34:	052e0106 	streq	r0, [lr, #-262]!	; 0xfffffefa
    1b38:	0d05d709 	stceq	7, cr13, [r5, #-36]	; 0xffffffdc
    1b3c:	0609059d 			; <UNDEFINED> instruction: 0x0609059d
    1b40:	3015052f 	andscc	r0, r5, pc, lsr #10
    1b44:	01061805 	tsteq	r6, r5, lsl #16
    1b48:	05661705 	strbeq	r1, [r6, #-1797]!	; 0xfffff8fb
    1b4c:	17052f19 	smladne	r5, r9, pc, r2	; <UNPREDICTABLE>
    1b50:	06190549 	ldreq	r0, [r9], -r9, asr #10
    1b54:	0615052f 	ldreq	r0, [r5], -pc, lsr #10
    1b58:	052e6f03 	streq	r6, [lr, #-3843]!	; 0xfffff0fd
    1b5c:	13030619 	movwne	r0, #13849	; 0x3619
    1b60:	0615054a 	ldreq	r0, [r5], -sl, asr #10
    1b64:	4a2e6d03 	bmi	b9cf78 <__bss_end__+0xb91ed0>
    1b68:	a0030205 	andge	r0, r3, r5, lsl #4
    1b6c:	0666017f 			; <UNDEFINED> instruction: 0x0666017f
    1b70:	05017203 	streq	r7, [r1, #-515]	; 0xfffffdfd
    1b74:	05010605 	streq	r0, [r1, #-1541]	; 0xfffff9fb
    1b78:	05053604 	streq	r3, [r5, #-1540]	; 0xfffff9fc
    1b7c:	052e7803 	streq	r7, [lr, #-2051]!	; 0xfffff7fd
    1b80:	062f0602 	strteq	r0, [pc], -r2, lsl #12
    1b84:	060e0501 	streq	r0, [lr], -r1, lsl #10
    1b88:	14020516 	strne	r0, [r2], #-1302	; 0xfffffaea
    1b8c:	06040513 			; <UNDEFINED> instruction: 0x06040513
    1b90:	02054a01 	andeq	r4, r5, #4096	; 0x1000
    1b94:	01780306 	cmneq	r8, r6, lsl #6
    1b98:	01060505 	tsteq	r6, r5, lsl #10
    1b9c:	0602054a 	streq	r0, [r2], -sl, asr #10
    1ba0:	0501064b 	streq	r0, [r1, #-1611]	; 0xfffff9b5
    1ba4:	0516060e 	ldreq	r0, [r6, #-1550]	; 0xfffff9f2
    1ba8:	15131402 	ldrne	r1, [r3, #-1026]	; 0xfffffbfe
    1bac:	010b0515 	tsteq	fp, r5, lsl r5
    1bb0:	11052e06 	tstne	r5, r6, lsl #28
    1bb4:	019e0306 	orrseq	r0, lr, r6, lsl #6
    1bb8:	06220501 	strteq	r0, [r2], -r1, lsl #10
    1bbc:	2f050501 	svccs	0x00050501
    1bc0:	052d2205 	streq	r2, [sp, #-517]!	; 0xfffffdfb
    1bc4:	052f0605 	streq	r0, [pc, #-1541]!	; 15c7 <__code_start__-0x6a39>
    1bc8:	05054b11 	streq	r4, [r5, #-2833]	; 0xfffff4ef
    1bcc:	039e0183 	orrseq	r0, lr, #-1073741792	; 0xc0000020
    1bd0:	9e012e5c 	mcrls	14, 0, r2, cr1, cr12, {2}
    1bd4:	03060205 	movweq	r0, #25093	; 0x6205
    1bd8:	2e2e7ef3 	mcrcs	14, 1, r7, cr14, cr3, {7}
    1bdc:	4a2c0605 	bmi	b033f8 <__bss_end__+0xaf8350>
    1be0:	d8030d05 	stmdale	r3, {r0, r2, r8, sl, fp}
    1be4:	04050100 	streq	r0, [r5], #-256	; 0xffffff00
    1be8:	01040200 	mrseq	r0, R12_usr
    1bec:	4a110306 	bmi	44280c <__bss_end__+0x437764>
    1bf0:	01040200 	mrseq	r0, R12_usr
    1bf4:	06110501 	ldreq	r0, [r1], -r1, lsl #10
    1bf8:	059e0651 	ldreq	r0, [lr, #1617]	; 0x651
    1bfc:	2e170315 	mrccs	3, 0, r0, cr7, cr5, {0}
    1c00:	1105ba01 	tstne	r5, r1, lsl #20
    1c04:	012e6903 			; <UNDEFINED> instruction: 0x012e6903
    1c08:	01002802 	tsteq	r0, r2, lsl #16
    1c0c:	00008701 	andeq	r8, r0, r1, lsl #14
    1c10:	64000300 	strvs	r0, [r0], #-768	; 0xfffffd00
    1c14:	02000000 	andeq	r0, r0, #0, 0
    1c18:	0d0efb01 	vstreq	d15, [lr, #-4]
    1c1c:	01010100 	mrseq	r0, (UNDEF: 17)
    1c20:	00000001 	andeq	r0, r0, r1
    1c24:	01000001 	tsteq	r0, r1
    1c28:	74732f2e 	ldrbtvc	r2, [r3], #-3886	; 0xfffff0d2
    1c2c:	2d666661 	stclcs	6, cr6, [r6, #-388]!	; 0xfffffe7c
    1c30:	00637273 	rsbeq	r7, r3, r3, ror r2
    1c34:	6573552f 	ldrbvs	r5, [r3, #-1327]!	; 0xfffffad1
    1c38:	6d2f7372 	stcvs	3, cr7, [pc, #-456]!	; 1a78 <__code_start__-0x6588>
    1c3c:	73656c69 	cmnvc	r5, #26880	; 0x6900
    1c40:	756f532f 	strbvc	r5, [pc, #-815]!	; 1919 <__code_start__-0x66e7>
    1c44:	2f656372 	svccs	0x00656372
    1c48:	34327363 	ldrtcc	r7, [r2], #-867	; 0xfffffc9d
    1c4c:	2f786c30 	svccs	0x00786c30
    1c50:	7062696c 	rsbvc	r6, r2, ip, ror #18
    1c54:	6e692f69 	cdpvs	15, 6, cr2, cr9, cr9, {3}
    1c58:	64756c63 	ldrbtvs	r6, [r5], #-3171	; 0xfffff39d
    1c5c:	63000065 	movwvs	r0, #101	; 0x65
    1c60:	6e61656c 	cdpvs	5, 6, cr6, cr1, cr12, {3}
    1c64:	6265722d 	rsbvs	r7, r5, #-805306366	; 0xd0000002
    1c68:	2e746f6f 	cdpcs	15, 7, cr6, cr4, cr15, {3}
    1c6c:	00010063 	andeq	r0, r1, r3, rrx
    1c70:	69707200 	ldmdbvs	r0!, {r9, ip, sp, lr}^
    1c74:	0200682e 	andeq	r6, r0, #3014656	; 0x2e0000
    1c78:	05000000 	streq	r0, [r0, #-0]
    1c7c:	02050019 	andeq	r0, r5, #25, 0
    1c80:	0000987c 	andeq	r9, r0, ip, ror r8
    1c84:	13050515 	movwne	r0, #21781	; 0x5515
    1c88:	2d061905 	vstrcs.16	s2, [r6, #-10]	; <UNPREDICTABLE>
    1c8c:	062f0505 	strteq	r0, [pc], -r5, lsl #10
    1c90:	024b2f67 	subeq	r2, fp, #412	; 0x19c
    1c94:	01010006 	tsteq	r1, r6
    1c98:	00000112 	andeq	r0, r0, r2, lsl r1
    1c9c:	005e0003 	subseq	r0, lr, r3
    1ca0:	01020000 	mrseq	r0, (UNDEF: 2)
    1ca4:	000d0efb 	strdeq	r0, [sp], -fp
    1ca8:	01010101 	tsteq	r1, r1, lsl #2
    1cac:	01000000 	mrseq	r0, (UNDEF: 0)
    1cb0:	2e010000 	cdpcs	0, 0, cr0, cr1, cr0, {0}
    1cb4:	6174732f 	cmnvs	r4, pc, lsr #6
    1cb8:	732d6666 			; <UNDEFINED> instruction: 0x732d6666
    1cbc:	2f006372 	svccs	0x00006372
    1cc0:	72657355 	rsbvc	r7, r5, #1409286145	; 0x54000001
    1cc4:	696d2f73 	stmdbvs	sp!, {r0, r1, r4, r5, r6, r8, r9, sl, fp, sp}^
    1cc8:	2f73656c 	svccs	0x0073656c
    1ccc:	72756f53 	rsbsvc	r6, r5, #332	; 0x14c
    1cd0:	632f6563 			; <UNDEFINED> instruction: 0x632f6563
    1cd4:	30343273 	eorscc	r3, r4, r3, ror r2
    1cd8:	6c2f786c 	stcvs	8, cr7, [pc], #-432	; 1b30 <__code_start__-0x64d0>
    1cdc:	69706269 	ldmdbvs	r0!, {r0, r3, r5, r6, r9, sp, lr}^
    1ce0:	636e692f 	cmnvs	lr, #770048	; 0xbc000
    1ce4:	6564756c 	strbvs	r7, [r4, #-1388]!	; 0xfffffa94
    1ce8:	73630000 	cmnvc	r3, #0, 0
    1cec:	74726174 	ldrbtvc	r6, [r2], #-372	; 0xfffffe8c
    1cf0:	0100632e 	tsteq	r0, lr, lsr #6
    1cf4:	70720000 	rsbsvc	r0, r2, r0
    1cf8:	00682e69 	rsbeq	r2, r8, r9, ror #28
    1cfc:	00000002 	andeq	r0, r0, r2
    1d00:	05001005 	streq	r1, [r0, #-5]
    1d04:	0098a802 	addseq	sl, r8, r2, lsl #16
    1d08:	05051500 	streq	r1, [r5, #-1280]	; 0xfffffb00
    1d0c:	13020513 	movwne	r0, #9491	; 0x2513
    1d10:	05140505 	ldreq	r0, [r4, #-1285]	; 0xfffffafb
    1d14:	050e0610 	streq	r0, [lr, #-1552]	; 0xfffff9f0
    1d18:	30063205 	andcc	r3, r6, r5, lsl #4
    1d1c:	0a051413 	beq	146d70 <__bss_end__+0x13bcc8>
    1d20:	08090501 	stmdaeq	r9, {r0, r8, sl}
    1d24:	06100591 			; <UNDEFINED> instruction: 0x06100591
    1d28:	9a0a0501 	bls	283134 <__bss_end__+0x27808c>
    1d2c:	056a1005 	strbeq	r1, [sl, #-5]!
    1d30:	052d060a 	streq	r0, [sp, #-1546]!	; 0xfffff9f6
    1d34:	10052f09 	andne	r2, r5, r9, lsl #30
    1d38:	0a050106 	beq	142158 <__bss_end__+0x1370b0>
    1d3c:	09052d06 	stmdbeq	r5, {r1, r2, r8, sl, fp, sp}
    1d40:	061005bb 			; <UNDEFINED> instruction: 0x061005bb
    1d44:	060a0501 	streq	r0, [sl], -r1, lsl #10
    1d48:	4b090565 	blmi	2432e4 <__bss_end__+0x23823c>
    1d4c:	01060d05 	tsteq	r6, r5, lsl #26
    1d50:	052d0a05 	streq	r0, [sp, #-2565]!	; 0xfffff5fb
    1d54:	0a052f10 	beq	14d99c <__bss_end__+0x1428f4>
    1d58:	09052d06 	stmdbeq	r5, {r1, r2, r8, sl, fp, sp}
    1d5c:	060d052f 	streq	r0, [sp], -pc, lsr #10
    1d60:	2d0a0501 	cfstr32cs	mvfx0, [sl, #-4]
    1d64:	052f1005 	streq	r1, [pc, #-5]!	; 1d67 <__code_start__-0x6299>
    1d68:	052d060a 	streq	r0, [sp, #-1546]!	; 0xfffff9f6
    1d6c:	0d052f09 	stceq	15, cr2, [r5, #-36]	; 0xffffffdc
    1d70:	0a050106 	beq	142190 <__bss_end__+0x1370e8>
    1d74:	2f10052d 	svccs	0x0010052d
    1d78:	2d060a05 	vstrcs	s0, [r6, #-20]	; 0xffffffec
    1d7c:	052f0905 	streq	r0, [pc, #-2309]!	; 147f <__code_start__-0x6b81>
    1d80:	0501060d 	streq	r0, [r1, #-1549]	; 0xfffff9f3
    1d84:	10052d0a 	andne	r2, r5, sl, lsl #26
    1d88:	060a052f 	streq	r0, [sl], -pc, lsr #10
    1d8c:	1309052d 	movwne	r0, #38189	; 0x952d
    1d90:	01061005 	tsteq	r6, r5
    1d94:	2d060a05 	vstrcs	s0, [r6, #-20]	; 0xffffffec
    1d98:	32150505 	andscc	r0, r5, #20971520	; 0x1400000
    1d9c:	144a0101 	strbne	r0, [sl], #-257	; 0xfffffeff
    1da0:	052f0205 	streq	r0, [pc, #-517]!	; 1ba3 <__code_start__-0x645d>
    1da4:	7303060a 	movwvc	r0, #13834	; 0x360a
    1da8:	0008022e 	andeq	r0, r8, lr, lsr #4
    1dac:	007d0101 	rsbseq	r0, sp, r1, lsl #2
    1db0:	00030000 	andeq	r0, r3, r0
    1db4:	00000065 	andeq	r0, r0, r5, rrx
    1db8:	0efb0102 	cdpeq	1, 15, cr0, cr11, cr2, {0}
    1dbc:	0101000d 	tsteq	r1, sp
    1dc0:	00000101 	andeq	r0, r0, r1, lsl #2
    1dc4:	00000100 	andeq	r0, r0, r0, lsl #2
    1dc8:	732f2e01 			; <UNDEFINED> instruction: 0x732f2e01
    1dcc:	66666174 			; <UNDEFINED> instruction: 0x66666174
    1dd0:	6372732d 	cmnvs	r2, #-1275068416	; 0xb4000000
    1dd4:	73552f00 	cmpvc	r5, #0, 30
    1dd8:	2f737265 	svccs	0x00737265
    1ddc:	656c696d 	strbvs	r6, [ip, #-2413]!	; 0xfffff693
    1de0:	6f532f73 	svcvs	0x00532f73
    1de4:	65637275 	strbvs	r7, [r3, #-629]!	; 0xfffffd8b
    1de8:	3273632f 	rsbscc	r6, r3, #-1140850688	; 0xbc000000
    1dec:	786c3034 	stmdavc	ip!, {r2, r4, r5, ip, sp}^
    1df0:	62696c2f 	rsbvs	r6, r9, #12032	; 0x2f00
    1df4:	692f6970 	stmdbvs	pc!, {r4, r5, r6, r8, fp, sp, lr}	; <UNPREDICTABLE>
    1df8:	756c636e 	strbvc	r6, [ip, #-878]!	; 0xfffffc92
    1dfc:	00006564 	andeq	r6, r0, r4, ror #10
    1e00:	74737563 	ldrbtvc	r7, [r3], #-1379	; 0xfffffa9d
    1e04:	6c2d6d6f 	stcvs	13, cr6, [sp], #-444	; 0xfffffe44
    1e08:	6564616f 	strbvs	r6, [r4, #-367]!	; 0xfffffe91
    1e0c:	00632e72 	rsbeq	r2, r3, r2, ror lr
    1e10:	72000001 	andvc	r0, r0, #1, 0
    1e14:	682e6970 	stmdavs	lr!, {r4, r5, r6, r8, fp, sp, lr}
    1e18:	00000200 	andeq	r0, r0, r0, lsl #4
    1e1c:	001a0500 	andseq	r0, sl, r0, lsl #10
    1e20:	99a00205 	stmibls	r0!, {r0, r2, r9}
    1e24:	05150000 	ldreq	r0, [r5, #-0]
    1e28:	02021401 	andeq	r1, r2, #16777216	; 0x1000000
    1e2c:	14010100 	strne	r0, [r1], #-256	; 0xffffff00
    1e30:	03000001 	movweq	r0, #1
    1e34:	00005e00 	andeq	r5, r0, r0, lsl #28
    1e38:	fb010200 	blx	42642 <__bss_end__+0x3759a>
    1e3c:	01000d0e 	tsteq	r0, lr, lsl #26
    1e40:	00010101 	andeq	r0, r1, r1, lsl #2
    1e44:	00010000 	andeq	r0, r1, r0
    1e48:	2f2e0100 	svccs	0x002e0100
    1e4c:	66617473 			; <UNDEFINED> instruction: 0x66617473
    1e50:	72732d66 	rsbsvc	r2, r3, #6528	; 0x1980
    1e54:	552f0063 	strpl	r0, [pc, #-99]!	; 1df9 <__code_start__-0x6207>
    1e58:	73726573 	cmnvc	r2, #482344960	; 0x1cc00000
    1e5c:	6c696d2f 	stclvs	13, cr6, [r9], #-188	; 0xffffff44
    1e60:	532f7365 			; <UNDEFINED> instruction: 0x532f7365
    1e64:	6372756f 	cmnvs	r2, #465567744	; 0x1bc00000
    1e68:	73632f65 	cmnvc	r3, #404	; 0x194
    1e6c:	6c303432 	cfldrsvs	mvf3, [r0], #-200	; 0xffffff38
    1e70:	696c2f78 	stmdbvs	ip!, {r3, r4, r5, r6, r8, r9, sl, fp, sp}^
    1e74:	2f697062 	svccs	0x00697062
    1e78:	6c636e69 	stclvs	14, cr6, [r3], #-420	; 0xfffffe5c
    1e7c:	00656475 	rsbeq	r6, r5, r5, ror r4
    1e80:	62657200 	rsbvs	r7, r5, #0, 4
    1e84:	2e746f6f 	cdpcs	15, 7, cr6, cr4, cr15, {3}
    1e88:	00010063 	andeq	r0, r1, r3, rrx
    1e8c:	69707200 	ldmdbvs	r0!, {r9, ip, sp, lr}^
    1e90:	0200682e 	andeq	r6, r0, #3014656	; 0x2e0000
    1e94:	05000000 	streq	r0, [r0, #-0]
    1e98:	02050019 	andeq	r0, r5, #25, 0
    1e9c:	000099a4 	andeq	r9, r0, r4, lsr #19
    1ea0:	05010d03 	streq	r0, [r1, #-3331]	; 0xfffff2fd
    1ea4:	31131305 	tstcc	r3, r5, lsl #6
    1ea8:	01061305 	tsteq	r6, r5, lsl #6
    1eac:	052f0105 	streq	r0, [pc, #-261]!	; 1daf <__code_start__-0x6251>
    1eb0:	0585061b 	streq	r0, [r5, #1563]	; 0x61b
    1eb4:	05141305 	ldreq	r1, [r4, #-773]	; 0xfffffcfb
    1eb8:	16052f09 	strne	r2, [r5], -r9, lsl #30
    1ebc:	05050106 	streq	r0, [r5, #-262]	; 0xfffffefa
    1ec0:	0e052f06 	cdpeq	15, 0, cr2, cr5, cr6, {0}
    1ec4:	05051106 	streq	r1, [r5, #-262]	; 0xfffffefa
    1ec8:	2f01052f 	svccs	0x0001052f
    1ecc:	30061705 	andcc	r1, r6, r5, lsl #14
    1ed0:	03130505 	tsteq	r3, #20971520	; 0x1400000
    1ed4:	1313016e 	tstne	r3, #-2147483621	; 0x8000001b
    1ed8:	03061705 	movweq	r1, #26373	; 0x6705
    1edc:	0505010f 	streq	r0, [r5, #-271]	; 0xfffffef1
    1ee0:	062e7103 	strteq	r7, [lr], -r3, lsl #2
    1ee4:	06130531 			; <UNDEFINED> instruction: 0x06130531
    1ee8:	03070501 	movweq	r0, #29953	; 0x7501
    1eec:	09052e0d 	stmdbeq	r5, {r0, r2, r3, r9, sl, fp, sp}
    1ef0:	06054b06 	streq	r4, [r5], -r6, lsl #22
    1ef4:	05017603 	streq	r7, [r1, #-1539]	; 0xfffff9fd
    1ef8:	05141305 	ldreq	r1, [r4, #-773]	; 0xfffffcfb
    1efc:	16052f09 	strne	r2, [r5], -r9, lsl #30
    1f00:	05050106 	streq	r0, [r5, #-262]	; 0xfffffefa
    1f04:	0e052f06 	cdpeq	15, 0, cr2, cr5, cr6, {0}
    1f08:	05051106 	streq	r1, [r5, #-262]	; 0xfffffefa
    1f0c:	03062e2f 	movweq	r2, #28207	; 0x6e2f
    1f10:	2f30010a 	svccs	0x0030010a
    1f14:	1313134d 	tstne	r3, #872415233	; 0x34000001
    1f18:	02006715 	andeq	r6, r0, #5505024	; 0x540000
    1f1c:	05670104 	strbeq	r0, [r7, #-260]!	; 0xfffffefc
    1f20:	0402000d 	streq	r0, [r2], #-13
    1f24:	0a050101 	beq	142330 <__bss_end__+0x137288>
    1f28:	01040200 	mrseq	r0, R12_usr
    1f2c:	00050501 	andeq	r0, r5, r1, lsl #10
    1f30:	01010402 	tsteq	r1, r2, lsl #8
    1f34:	02000d05 	andeq	r0, r0, #320	; 0x140
    1f38:	05010104 	streq	r0, [r1, #-260]	; 0xfffffefc
    1f3c:	0402000a 	streq	r0, [r2], #-10
    1f40:	0a020101 	beq	8234c <__bss_end__+0x772a4>
    1f44:	fa010100 	blx	4234c <__bss_end__+0x372a4>
    1f48:	03000001 	movweq	r0, #1
    1f4c:	00005d00 	andeq	r5, r0, r0, lsl #26
    1f50:	fb010200 	blx	4275a <__bss_end__+0x376b2>
    1f54:	01000d0e 	tsteq	r0, lr, lsl #26
    1f58:	00010101 	andeq	r0, r1, r1, lsl #2
    1f5c:	00010000 	andeq	r0, r1, r0
    1f60:	2f2e0100 	svccs	0x002e0100
    1f64:	66617473 			; <UNDEFINED> instruction: 0x66617473
    1f68:	72732d66 	rsbsvc	r2, r3, #6528	; 0x1980
    1f6c:	552f0063 	strpl	r0, [pc, #-99]!	; 1f11 <__code_start__-0x60ef>
    1f70:	73726573 	cmnvc	r2, #482344960	; 0x1cc00000
    1f74:	6c696d2f 	stclvs	13, cr6, [r9], #-188	; 0xffffff44
    1f78:	532f7365 			; <UNDEFINED> instruction: 0x532f7365
    1f7c:	6372756f 	cmnvs	r2, #465567744	; 0x1bc00000
    1f80:	73632f65 	cmnvc	r3, #404	; 0x194
    1f84:	6c303432 	cfldrsvs	mvf3, [r0], #-200	; 0xffffff38
    1f88:	696c2f78 	stmdbvs	ip!, {r3, r4, r5, r6, r8, r9, sl, fp, sp}^
    1f8c:	2f697062 	svccs	0x00697062
    1f90:	6c636e69 	stclvs	14, cr6, [r3], #-420	; 0xfffffe5c
    1f94:	00656475 	rsbeq	r6, r5, r5, ror r4
    1f98:	6d697400 	cfstrdvs	mvd7, [r9, #-0]
    1f9c:	632e7265 			; <UNDEFINED> instruction: 0x632e7265
    1fa0:	00000100 	andeq	r0, r0, r0, lsl #2
    1fa4:	2e697072 	mcrcs	0, 3, r7, cr9, cr2, {3}
    1fa8:	00020068 	andeq	r0, r2, r8, rrx
    1fac:	23050000 	movwcs	r0, #20480	; 0x5000
    1fb0:	30020500 	andcc	r0, r2, r0, lsl #10
    1fb4:	1500009a 	strne	r0, [r0, #-154]	; 0xffffff66
    1fb8:	05130505 	ldreq	r0, [r3, #-1285]	; 0xfffffafb
    1fbc:	0501060c 	streq	r0, [r1, #-1548]	; 0xfffff9f4
    1fc0:	056a061f 	strbeq	r0, [sl, #-1567]!	; 0xfffff9e1
    1fc4:	1f051505 	svcne	0x00051505
    1fc8:	05050f06 	streq	r0, [r5, #-3846]	; 0xfffff0fa
    1fcc:	052f0631 	streq	r0, [pc, #-1585]!	; 19a3 <__code_start__-0x665d>
    1fd0:	0177030a 	cmneq	r7, sl, lsl #6
    1fd4:	05130505 	ldreq	r0, [r3, #-1285]	; 0xfffffafb
    1fd8:	6601060c 	strvs	r0, [r1], -ip, lsl #12
    1fdc:	03060505 	movweq	r0, #25861	; 0x6505
    1fe0:	052f0109 	streq	r0, [pc, #-265]!	; 1edf <__code_start__-0x6121>
    1fe4:	05130601 	ldreq	r0, [r3, #-1537]	; 0xfffff9ff
    1fe8:	0568061c 	strbeq	r0, [r8, #-1564]!	; 0xfffff9e4
    1fec:	0a051305 	beq	146c08 <__bss_end__+0x13bb60>
    1ff0:	05017603 	streq	r7, [r1, #-1539]	; 0xfffff9fd
    1ff4:	1c051505 	cfstr32ne	mvfx1, [r5], {5}
    1ff8:	052e1806 	streq	r1, [lr, #-2054]!	; 0xfffff7fa
    1ffc:	2e7a0305 	cdpcs	3, 7, cr0, cr10, cr5, {0}
    2000:	0a052f06 	beq	14dc20 <__bss_end__+0x142b78>
    2004:	05017703 	streq	r7, [r1, #-1795]	; 0xfffff8fd
    2008:	0c051305 	stceq	3, cr1, [r5], {5}
    200c:	05660106 	strbeq	r0, [r6, #-262]!	; 0xfffffefa
    2010:	09030605 	stmdbeq	r3, {r0, r2, r9, sl}
    2014:	01062f01 	tsteq	r6, r1, lsl #30
    2018:	76030c05 	strvc	r0, [r3], -r5, lsl #24
    201c:	06050501 	streq	r0, [r5], -r1, lsl #10
    2020:	052e0f03 	streq	r0, [lr, #-3843]!	; 0xfffff0fd
    2024:	0a051309 	beq	146c50 <__bss_end__+0x13bba8>
    2028:	05017403 	streq	r7, [r1, #-1027]	; 0xfffffbfd
    202c:	052f1505 	streq	r1, [pc, #-1285]!	; 1b2f <__code_start__-0x64d1>
    2030:	0177030a 	cmneq	r7, sl, lsl #6
    2034:	05130505 	ldreq	r0, [r3, #-1285]	; 0xfffffafb
    2038:	6601060c 	strvs	r0, [r1], -ip, lsl #12
    203c:	03060505 	movweq	r0, #25861	; 0x6505
    2040:	11050109 	tstne	r5, r9, lsl #2
    2044:	05051a06 	streq	r1, [r5, #-2566]	; 0xfffff5fa
    2048:	062e7803 	strteq	r7, [lr], -r3, lsl #16
    204c:	1909052f 	stmdbne	r9, {r0, r1, r2, r3, r5, r8, sl}
    2050:	01060c05 	tsteq	r6, r5, lsl #24
    2054:	87061c05 	strhi	r1, [r6, -r5, lsl #24]
    2058:	05130505 	ldreq	r0, [r3, #-1285]	; 0xfffffafb
    205c:	0511061c 	ldreq	r0, [r1, #-1564]	; 0xfffff9e4
    2060:	054a2f05 	strbeq	r2, [sl, #-3845]	; 0xfffff0fb
    2064:	76030606 	strvc	r0, [r3], -r6, lsl #12
    2068:	1305052e 	movwne	r0, #21806	; 0x552e
    206c:	76030a05 	strvc	r0, [r3], -r5, lsl #20
    2070:	15050501 	strne	r0, [r5, #-1281]	; 0xfffffaff
    2074:	030a052f 	movweq	r0, #42287	; 0xa52f
    2078:	05050177 	streq	r0, [r5, #-375]	; 0xfffffe89
    207c:	060c0513 			; <UNDEFINED> instruction: 0x060c0513
    2080:	05056601 	streq	r6, [r5, #-1537]	; 0xfffff9ff
    2084:	01090306 	tsteq	r9, r6, lsl #6
    2088:	0501062f 	streq	r0, [r1, #-1583]	; 0xfffff9d1
    208c:	0176030c 	cmneq	r6, ip, lsl #6
    2090:	03060505 	movweq	r0, #25861	; 0x6505
    2094:	09052e0f 	stmdbeq	r5, {r0, r1, r2, r3, r9, sl, fp, sp}
    2098:	030a0513 	movweq	r0, #42259	; 0xa513
    209c:	05050174 	streq	r0, [r5, #-372]	; 0xfffffe8c
    20a0:	0a052f15 	beq	14dcfc <__bss_end__+0x142c54>
    20a4:	05017703 	streq	r7, [r1, #-1795]	; 0xfffff8fd
    20a8:	0c051305 	stceq	3, cr1, [r5], {5}
    20ac:	05660106 	strbeq	r0, [r6, #-262]!	; 0xfffffefa
    20b0:	09030605 	stmdbeq	r3, {r0, r2, r9, sl}
    20b4:	06110501 	ldreq	r0, [r1], -r1, lsl #10
    20b8:	0305051a 	movweq	r0, #21786	; 0x551a
    20bc:	2f062e78 	svccs	0x00062e78
    20c0:	05190905 	ldreq	r0, [r9, #-2309]	; 0xfffff6fb
    20c4:	0501060c 	streq	r0, [r1, #-1548]	; 0xfffff9f4
    20c8:	058a061e 	streq	r0, [sl, #1566]	; 0x61e
    20cc:	06051305 	streq	r1, [r5], -r5, lsl #6
    20d0:	1305050e 	movwne	r0, #21774	; 0x550e
    20d4:	14061e05 	strne	r1, [r6], #-3589	; 0xfffff1fb
    20d8:	662c0505 	strtvs	r0, [ip], -r5, lsl #10
    20dc:	03060605 	movweq	r0, #26117	; 0x6605
    20e0:	05052e76 	streq	r2, [r5, #-3702]	; 0xfffff18a
    20e4:	030a0513 	movweq	r0, #42259	; 0xa513
    20e8:	05050176 	streq	r0, [r5, #-374]	; 0xfffffe8a
    20ec:	0a052f15 	beq	14dd48 <__bss_end__+0x142ca0>
    20f0:	05017703 	streq	r7, [r1, #-1795]	; 0xfffff8fd
    20f4:	0c051305 	stceq	3, cr1, [r5], {5}
    20f8:	05660106 	strbeq	r0, [r6, #-262]!	; 0xfffffefa
    20fc:	09030605 	stmdbeq	r3, {r0, r2, r9, sl}
    2100:	01062f01 	tsteq	r6, r1, lsl #30
    2104:	76030c05 	strvc	r0, [r3], -r5, lsl #24
    2108:	06050501 	streq	r0, [r5], -r1, lsl #10
    210c:	052e0f03 	streq	r0, [lr, #-3843]!	; 0xfffff0fd
    2110:	0a051309 	beq	146d3c <__bss_end__+0x13bc94>
    2114:	05017403 	streq	r7, [r1, #-1027]	; 0xfffffbfd
    2118:	052f1505 	streq	r1, [pc, #-1285]!	; 1c1b <__code_start__-0x63e5>
    211c:	0177030a 	cmneq	r7, sl, lsl #6
    2120:	05130505 	ldreq	r0, [r3, #-1285]	; 0xfffffafb
    2124:	6601060c 	strvs	r0, [r1], -ip, lsl #12
    2128:	03060505 	movweq	r0, #25861	; 0x6505
    212c:	11050109 	tstne	r5, r9, lsl #2
    2130:	05051a06 	streq	r1, [r5, #-2566]	; 0xfffff5fa
    2134:	062e7803 	strteq	r7, [lr], -r3, lsl #16
    2138:	1909052f 	stmdbne	r9, {r0, r1, r2, r3, r5, r8, sl}
    213c:	01060c05 	tsteq	r6, r5, lsl #24
    2140:	01000802 	tsteq	r0, r2, lsl #16
    2144:	00020401 	andeq	r0, r2, r1, lsl #8
    2148:	c8000300 	stmdagt	r0, {r8, r9}
    214c:	02000000 	andeq	r0, r0, #0, 0
    2150:	0d0efb01 	vstreq	d15, [lr, #-4]
    2154:	01010100 	mrseq	r0, (UNDEF: 17)
    2158:	00000001 	andeq	r0, r0, r1
    215c:	01000001 	tsteq	r0, r1
    2160:	6d6f682f 	stclvs	8, cr6, [pc, #-188]!	; 20ac <__code_start__-0x5f54>
    2164:	6e652f65 	cdpvs	15, 6, cr2, cr5, cr5, {3}
    2168:	72656c67 	rsbvc	r6, r5, #26368	; 0x6700
    216c:	616c632f 	cmnvs	ip, pc, lsr #6
    2170:	632f7373 			; <UNDEFINED> instruction: 0x632f7373
    2174:	30343173 	eorscc	r3, r4, r3, ror r1
    2178:	32322d65 	eorscc	r2, r2, #6464	; 0x1940
    217c:	2f6e6977 	svccs	0x006e6977
    2180:	62696c2f 	rsbvs	r6, r9, #12032	; 0x2f00
    2184:	692f6970 	stmdbvs	pc!, {r4, r5, r6, r8, fp, sp, lr}	; <UNPREDICTABLE>
    2188:	756c636e 	strbvc	r6, [ip, #-878]!	; 0xfffffc92
    218c:	2f006564 	svccs	0x00006564
    2190:	2f727375 	svccs	0x00727375
    2194:	72616873 	rsbvc	r6, r1, #7536640	; 0x730000
    2198:	63672f65 	cmnvs	r7, #404	; 0x194
    219c:	72612d63 	rsbvc	r2, r1, #6336	; 0x18c0
    21a0:	6f6e2d6d 	svcvs	0x006e2d6d
    21a4:	652d656e 	strvs	r6, [sp, #-1390]!	; 0xfffffa92
    21a8:	2d696261 	sfmcs	f6, 2, [r9, #-388]!	; 0xfffffe7c
    21ac:	332e3031 			; <UNDEFINED> instruction: 0x332e3031
    21b0:	3230322d 	eorscc	r3, r0, #-805306366	; 0xd0000002
    21b4:	30312e31 	eorscc	r2, r1, r1, lsr lr
    21b8:	62696c2f 	rsbvs	r6, r9, #12032	; 0x2f00
    21bc:	6363672f 	cmnvs	r3, #12320768	; 0xbc0000
    21c0:	6d72612f 	ldfvse	f6, [r2, #-188]!	; 0xffffff44
    21c4:	6e6f6e2d 	cdpvs	14, 6, cr6, cr15, cr13, {1}
    21c8:	61652d65 	cmnvs	r5, r5, ror #26
    21cc:	312f6962 			; <UNDEFINED> instruction: 0x312f6962
    21d0:	2e332e30 	mrccs	14, 1, r2, cr3, cr0, {1}
    21d4:	6e692f31 	mcrvs	15, 3, r2, cr9, cr1, {1}
    21d8:	64756c63 	ldrbtvs	r6, [r5], #-3171	; 0xfffff39d
    21dc:	75000065 	strvc	r0, [r0, #-101]	; 0xffffff9b
    21e0:	2e747261 	cdpcs	2, 7, cr7, cr4, cr1, {3}
    21e4:	00000063 	andeq	r0, r0, r3, rrx
    21e8:	72617500 	rsbvc	r7, r1, #0, 10
    21ec:	00682e74 	rsbeq	r2, r8, r4, ror lr
    21f0:	72000001 	andvc	r0, r0, #1, 0
    21f4:	682e6970 	stmdavs	lr!, {r4, r5, r6, r8, fp, sp, lr}
    21f8:	00000100 	andeq	r0, r0, r0, lsl #2
    21fc:	6f697067 	svcvs	0x00697067
    2200:	0100682e 	tsteq	r0, lr, lsr #16
    2204:	74730000 	ldrbtvc	r0, [r3], #-0
    2208:	746e6964 	strbtvc	r6, [lr], #-2404	; 0xfffff69c
    220c:	6363672d 	cmnvs	r3, #11796480	; 0xb40000
    2210:	0200682e 	andeq	r6, r0, #3014656	; 0x2e0000
    2214:	05000000 	streq	r0, [r0, #-0]
    2218:	02050039 	andeq	r0, r5, #57, 0	; 0x39
    221c:	00009b4c 	andeq	r9, r0, ip, asr #22
    2220:	06013003 	streq	r3, [r1], -r3
    2224:	06050501 	streq	r0, [r5], -r1, lsl #10
    2228:	06110567 	ldreq	r0, [r1], -r7, ror #10
    222c:	2e050501 	cfsh32cs	mvfx0, mvfx5, #1
    2230:	05670105 	strbeq	r0, [r7, #-261]!	; 0xfffffefb
    2234:	06290638 			; <UNDEFINED> instruction: 0x06290638
    2238:	06050501 	streq	r0, [r5], -r1, lsl #10
    223c:	06110567 	ldreq	r0, [r1], -r7, ror #10
    2240:	2e050501 	cfsh32cs	mvfx0, mvfx5, #1
    2244:	05670105 	strbeq	r0, [r7, #-261]!	; 0xfffffefb
    2248:	15030616 	strne	r0, [r3, #-1558]	; 0xfffff9ea
    224c:	3505052e 	strcc	r0, [r5, #-1326]	; 0xfffffad2
    2250:	68356867 	ldmdavs	r5!, {r0, r1, r2, r5, r6, fp, sp, lr}
    2254:	852e0c03 	strhi	r0, [lr, #-3075]!	; 0xfffff3fd
    2258:	0369696b 	cmneq	r9, #1753088	; 0x1ac000
    225c:	6b13660c 	blvs	4dba94 <__bss_end__+0x4d09ec>
    2260:	06010567 	streq	r0, [r1], -r7, ror #10
    2264:	0619052f 	ldreq	r0, [r9], -pc, lsr #10
    2268:	05052508 	streq	r2, [r5, #-1288]	; 0xfffffaf8
    226c:	060d0534 			; <UNDEFINED> instruction: 0x060d0534
    2270:	4c010501 	cfstr32mi	mvfx0, [r1], {1}
    2274:	67061905 	strvs	r1, [r6, -r5, lsl #18]
    2278:	05360505 	ldreq	r0, [r6, #-1285]!	; 0xfffffafb
    227c:	0501060d 	streq	r0, [r1, #-1549]	; 0xfffff9f3
    2280:	01054a28 	tsteq	r5, r8, lsr #20
    2284:	06150530 			; <UNDEFINED> instruction: 0x06150530
    2288:	2f050587 	svccs	0x00050587
    228c:	0009052f 	andeq	r0, r9, pc, lsr #10
    2290:	13010402 	movwne	r0, #5122	; 0x1402
    2294:	02000a05 	andeq	r0, r0, #20480	; 0x5000
    2298:	05110104 	ldreq	r0, [r1, #-260]	; 0xfffffefc
    229c:	0402000c 	streq	r0, [r2], #-12
    22a0:	05010601 	streq	r0, [r1, #-1537]	; 0xfffff9ff
    22a4:	0402000a 	streq	r0, [r2], #-10
    22a8:	05052e01 	streq	r2, [r5, #-3585]	; 0xfffff1ff
    22ac:	0e054c06 	cdpeq	12, 0, cr4, cr5, cr6, {0}
    22b0:	09050106 	stmdbeq	r5, {r1, r2, r8}
    22b4:	0605054a 	streq	r0, [r5], -sl, asr #10
    22b8:	01052f2f 	tsteq	r5, pc, lsr #30
    22bc:	1c051306 	stcne	3, cr1, [r5], {6}
    22c0:	01066706 	tsteq	r6, r6, lsl #14
    22c4:	4b060505 	blmi	1836e0 <__bss_end__+0x178638>
    22c8:	0009052f 	andeq	r0, r9, pc, lsr #10
    22cc:	13010402 	movwne	r0, #5122	; 0x1402
    22d0:	02000a05 	andeq	r0, r0, #20480	; 0x5000
    22d4:	05110104 	ldreq	r0, [r1, #-260]	; 0xfffffefc
    22d8:	0402000c 	streq	r0, [r2], #-12
    22dc:	05010601 	streq	r0, [r1, #-1537]	; 0xfffff9ff
    22e0:	0402000a 	streq	r0, [r2], #-10
    22e4:	05052e01 	streq	r2, [r5, #-3585]	; 0xfffff1ff
    22e8:	05674c06 	strbeq	r4, [r7, #-3078]!	; 0xfffff3fa
    22ec:	052f0601 	streq	r0, [pc, #-1537]!	; 1cf3 <__code_start__-0x630d>
    22f0:	054c0619 	strbeq	r0, [ip, #-1561]	; 0xfffff9e7
    22f4:	2a052e1b 	bcs	14db68 <__bss_end__+0x142ac0>
    22f8:	0631052e 	ldrteq	r0, [r1], -lr, lsr #10
    22fc:	2e420501 	cdpcs	5, 4, cr0, cr2, cr1, {0}
    2300:	31061c05 	tstcc	r6, r5, lsl #24
    2304:	032f0505 			; <UNDEFINED> instruction: 0x032f0505
    2308:	0e052e09 	cdpeq	14, 0, cr2, cr5, cr9, {0}
    230c:	21050106 	tstcs	r5, r6, lsl #2
    2310:	0301054a 	movweq	r0, #5450	; 0x154a
    2314:	1a052e0a 	bne	14db44 <__bss_end__+0x142a9c>
    2318:	09056806 	stmdbeq	r5, {r1, r2, fp, sp, lr}
    231c:	01040200 	mrseq	r0, R12_usr
    2320:	000a0530 	andeq	r0, sl, r0, lsr r5
    2324:	11010402 	tstne	r1, r2, lsl #8
    2328:	02000c05 	andeq	r0, r0, #1280	; 0x500
    232c:	01060104 	tsteq	r6, r4, lsl #2
    2330:	02000a05 	andeq	r0, r0, #20480	; 0x5000
    2334:	052e0104 	streq	r0, [lr, #-260]!	; 0xfffffefc
    2338:	e8030619 	stmda	r3, {r0, r3, r4, r9, sl}
    233c:	0505667e 	streq	r6, [r5, #-1662]	; 0xfffff982
    2340:	672f2f2f 	strvs	r2, [pc, -pc, lsr #30]!
    2344:	2f060105 	svccs	0x00060105
    2348:	01000402 	tsteq	r0, r2, lsl #8
    234c:	00039201 	andeq	r9, r3, r1, lsl #4
    2350:	b7000300 	strlt	r0, [r0, -r0, lsl #6]
    2354:	02000000 	andeq	r0, r0, #0, 0
    2358:	0d0efb01 	vstreq	d15, [lr, #-4]
    235c:	01010100 	mrseq	r0, (UNDEF: 17)
    2360:	00000001 	andeq	r0, r0, r1
    2364:	01000001 	tsteq	r0, r1
    2368:	6d6f682f 	stclvs	8, cr6, [pc, #-188]!	; 22b4 <__code_start__-0x5d4c>
    236c:	6e652f65 	cdpvs	15, 6, cr2, cr5, cr5, {3}
    2370:	72656c67 	rsbvc	r6, r5, #26368	; 0x6700
    2374:	616c632f 	cmnvs	ip, pc, lsr #6
    2378:	632f7373 			; <UNDEFINED> instruction: 0x632f7373
    237c:	30343173 	eorscc	r3, r4, r3, ror r1
    2380:	32322d65 	eorscc	r2, r2, #6464	; 0x1940
    2384:	2f6e6977 	svccs	0x006e6977
    2388:	62696c2f 	rsbvs	r6, r9, #12032	; 0x2f00
    238c:	692f6970 	stmdbvs	pc!, {r4, r5, r6, r8, fp, sp, lr}	; <UNPREDICTABLE>
    2390:	756c636e 	strbvc	r6, [ip, #-878]!	; 0xfffffc92
    2394:	2f006564 	svccs	0x00006564
    2398:	2f727375 	svccs	0x00727375
    239c:	72616873 	rsbvc	r6, r1, #7536640	; 0x730000
    23a0:	63672f65 	cmnvs	r7, #404	; 0x194
    23a4:	72612d63 	rsbvc	r2, r1, #6336	; 0x18c0
    23a8:	6f6e2d6d 	svcvs	0x006e2d6d
    23ac:	652d656e 	strvs	r6, [sp, #-1390]!	; 0xfffffa92
    23b0:	2d696261 	sfmcs	f6, 2, [r9, #-388]!	; 0xfffffe7c
    23b4:	332e3031 			; <UNDEFINED> instruction: 0x332e3031
    23b8:	3230322d 	eorscc	r3, r0, #-805306366	; 0xd0000002
    23bc:	30312e31 	eorscc	r2, r1, r1, lsr lr
    23c0:	62696c2f 	rsbvs	r6, r9, #12032	; 0x2f00
    23c4:	6363672f 	cmnvs	r3, #12320768	; 0xbc0000
    23c8:	6d72612f 	ldfvse	f6, [r2, #-188]!	; 0xffffff44
    23cc:	6e6f6e2d 	cdpvs	14, 6, cr6, cr15, cr13, {1}
    23d0:	61652d65 	cmnvs	r5, r5, ror #26
    23d4:	312f6962 			; <UNDEFINED> instruction: 0x312f6962
    23d8:	2e332e30 	mrccs	14, 1, r2, cr3, cr0, {1}
    23dc:	6e692f31 	mcrvs	15, 3, r2, cr9, cr1, {1}
    23e0:	64756c63 	ldrbtvs	r6, [r5], #-3171	; 0xfffff39d
    23e4:	6b000065 	blvs	2580 <__code_start__-0x5a80>
    23e8:	6c6c616d 	stfvse	f6, [ip], #-436	; 0xfffffe4c
    23ec:	632e636f 			; <UNDEFINED> instruction: 0x632e636f
    23f0:	00000000 	andeq	r0, r0, r0
    23f4:	2e697072 	mcrcs	0, 3, r7, cr9, cr2, {3}
    23f8:	00010068 	andeq	r0, r1, r8, rrx
    23fc:	64747300 	ldrbtvs	r7, [r4], #-768	; 0xfffffd00
    2400:	2d746e69 	ldclcs	14, cr6, [r4, #-420]!	; 0xfffffe5c
    2404:	2e636367 	cdpcs	3, 6, cr6, cr3, cr7, {3}
    2408:	00020068 	andeq	r0, r2, r8, rrx
    240c:	1e050000 	cdpne	0, 0, cr0, cr5, cr0, {0}
    2410:	3c020500 	cfstr32cc	mvfx0, [r2], {-0}
    2414:	0300009d 	movweq	r0, #157	; 0x9d
    2418:	20050127 	andcs	r0, r5, r7, lsr #2
    241c:	062d0501 	strteq	r0, [sp], -r1, lsl #10
    2420:	06200501 	strteq	r0, [r0], -r1, lsl #10
    2424:	01220583 	smlawbeq	r2, r3, r5, r0
    2428:	01063505 	tsteq	r6, r5, lsl #10
    242c:	83061e05 	movwhi	r1, #28165	; 0x6e05
    2430:	05012005 	streq	r2, [r1, #-5]
    2434:	0501062d 	streq	r0, [r1, #-1581]	; 0xfffff9d3
    2438:	06850642 	streq	r0, [r5], r2, asr #12
    243c:	06050501 	streq	r0, [r5], -r1, lsl #10
    2440:	0601144b 	streq	r1, [r1], -fp, asr #8
    2444:	0402002e 	streq	r0, [r2], #-46	; 0xffffffd2
    2448:	002e0602 	eoreq	r0, lr, r2, lsl #12
    244c:	01020402 	tsteq	r2, r2, lsl #8
    2450:	02040200 	andeq	r0, r4, #0, 4
    2454:	000d0515 	andeq	r0, sp, r5, lsl r5
    2458:	06020402 	streq	r0, [r2], -r2, lsl #8
    245c:	00070501 	andeq	r0, r7, r1, lsl #10
    2460:	4a020402 	bmi	83470 <__bss_end__+0x783c8>
    2464:	4b060905 	blmi	184880 <__bss_end__+0x1797d8>
    2468:	05150505 	ldreq	r0, [r5, #-1285]	; 0xfffffafb
    246c:	05010617 	streq	r0, [r1, #-1559]	; 0xfffff9e9
    2470:	05054a10 	streq	r4, [r5, #-2576]	; 0xfffff5f0
    2474:	1b052f06 	blne	14e094 <__bss_end__+0x142fec>
    2478:	0e050106 	adfeqs	f0, f5, f6
    247c:	2f01052e 	svccs	0x0001052e
    2480:	02000505 	andeq	r0, r0, #20971520	; 0x1400000
    2484:	03060104 	movweq	r0, #24836	; 0x6104
    2488:	02004a77 	andeq	r4, r0, #487424	; 0x77000
    248c:	00010104 	andeq	r0, r1, r4, lsl #2
    2490:	06010402 	streq	r0, [r1], -r2, lsl #8
    2494:	0402009e 	streq	r0, [r2], #-158	; 0xffffff62
    2498:	02002e01 	andeq	r2, r0, #1, 28
    249c:	2e060104 	adfcss	f0, f6, f4
    24a0:	01320905 	teqeq	r2, r5, lsl #18
    24a4:	062ed606 	strteq	sp, [lr], -r6, lsl #12
    24a8:	de19052e 	cfmul64le	mvdx0, mvdx9, mvdx14
    24ac:	142f0505 	strtne	r0, [pc], #-1285	; 24b4 <__code_start__-0x5b4c>
    24b0:	01060805 	tsteq	r6, r5, lsl #16
    24b4:	054a0705 	strbeq	r0, [sl, #-1797]	; 0xfffff8fb
    24b8:	054b0609 	strbeq	r0, [fp, #-1545]	; 0xfffff9f7
    24bc:	0c051305 	stceq	3, cr1, [r5], {5}
    24c0:	05050106 	streq	r0, [r5, #-262]	; 0xfffffefa
    24c4:	05136706 	ldreq	r6, [r3, #-1798]	; 0xfffff8fa
    24c8:	05670601 	strbeq	r0, [r7, #-1537]!	; 0xfffff9ff
    24cc:	012a0609 			; <UNDEFINED> instruction: 0x012a0609
    24d0:	a528059e 	strge	r0, [r8, #-1438]!	; 0xfffffa62
    24d4:	05050106 	streq	r0, [r5, #-262]	; 0xfffffefa
    24d8:	06014b06 	streq	r4, [r1], -r6, lsl #22
    24dc:	012e062e 			; <UNDEFINED> instruction: 0x012e062e
    24e0:	03180513 	tsteq	r8, #79691776	; 0x4c00000
    24e4:	05050147 	streq	r0, [r5, #-327]	; 0xfffffeb9
    24e8:	01060113 	tsteq	r6, r3, lsl r1
    24ec:	01150f06 	tsteq	r5, r6, lsl #30
    24f0:	060e0513 			; <UNDEFINED> instruction: 0x060e0513
    24f4:	2e160501 	cfmul32cs	mvfx0, mvfx6, mvfx1
    24f8:	0605052e 	streq	r0, [r5], -lr, lsr #10
    24fc:	05013903 	streq	r3, [r1, #-2307]	; 0xfffff6fd
    2500:	0501060b 	streq	r0, [r1, #-1547]	; 0xfffff9f5
    2504:	054b0605 	strbeq	r0, [fp, #-1541]	; 0xfffff9fb
    2508:	0501060a 	streq	r0, [r1, #-1546]	; 0xfffff9f6
    250c:	054b0605 	strbeq	r0, [fp, #-1541]	; 0xfffff9fb
    2510:	0501060d 	streq	r0, [r1, #-1549]	; 0xfffff9f3
    2514:	01052e07 	tsteq	r5, r7, lsl #28
    2518:	0005054d 	andeq	r0, r5, sp, asr #10
    251c:	06010402 	streq	r0, [r1], -r2, lsl #8
    2520:	004a7803 	subeq	r7, sl, r3, lsl #16
    2524:	01010402 	tsteq	r1, r2, lsl #8
    2528:	01040200 	mrseq	r0, R12_usr
    252c:	0200ba06 	andeq	fp, r0, #24576	; 0x6000
    2530:	2e060104 	adfcss	f0, f6, f4
    2534:	01340905 	teqeq	r4, r5, lsl #18
    2538:	06668206 	strbteq	r8, [r6], -r6, lsl #4
    253c:	db20052e 	blle	8039fc <__bss_end__+0x7f8954>
    2540:	05050106 	streq	r0, [r5, #-262]	; 0xfffffefa
    2544:	00014b06 	andeq	r4, r1, r6, lsl #22
    2548:	4a020402 	bmi	83558 <__bss_end__+0x784b0>
    254c:	02040200 	andeq	r0, r4, #0, 4
    2550:	04020001 	streq	r0, [r2], #-1
    2554:	12051302 	andne	r1, r5, #134217728	; 0x8000000
    2558:	02040200 	andeq	r0, r4, #0, 4
    255c:	02000106 	andeq	r0, r0, #-2147483647	; 0x80000001
    2560:	002e0204 	eoreq	r0, lr, r4, lsl #4
    2564:	2e020402 	cdpcs	4, 0, cr0, cr2, cr2, {0}
    2568:	02000505 	andeq	r0, r0, #20971520	; 0x1400000
    256c:	2f060204 	svccs	0x00060204
    2570:	02040200 	andeq	r0, r4, #0, 4
    2574:	00010567 	andeq	r0, r1, r7, ror #10
    2578:	06020402 	streq	r0, [r2], -r2, lsl #8
    257c:	00050513 	andeq	r0, r5, r3, lsl r5
    2580:	06010402 	streq	r0, [r1], -r2, lsl #8
    2584:	04020062 	streq	r0, [r2], #-98	; 0xffffff9e
    2588:	02000101 	andeq	r0, r0, #1073741824	; 0x40000000
    258c:	ba060104 	blt	1829a4 <__bss_end__+0x1778fc>
    2590:	01040200 	mrseq	r0, R12_usr
    2594:	3c052e06 	stccc	14, cr2, [r5], {6}
    2598:	069e0a03 	ldreq	r0, [lr], r3, lsl #20
    259c:	06050501 	streq	r0, [r5], -r1, lsl #10
    25a0:	2e06014b 	adfcssm	f0, f6, #3.0
    25a4:	13012e06 	movwne	r2, #7686	; 0x1e06
    25a8:	03180501 	tsteq	r8, #4194304	; 0x400000
    25ac:	05017fad 	streq	r7, [r1, #-4013]	; 0xfffff053
    25b0:	11051305 	tstne	r5, r5, lsl #6
    25b4:	052e0106 	streq	r0, [lr, #-262]!	; 0xfffffefa
    25b8:	00d20305 	sbcseq	r0, r2, r5, lsl #6
    25bc:	134a0601 	movtne	r0, #42497	; 0xa601
    25c0:	a3031805 	movwge	r1, #14341	; 0x3805
    25c4:	0505017f 	streq	r0, [r5, #-383]	; 0xfffffe81
    25c8:	06160513 			; <UNDEFINED> instruction: 0x06160513
    25cc:	05054a01 	streq	r4, [r5, #-2561]	; 0xfffff5ff
    25d0:	00e10306 	rsceq	r0, r1, r6, lsl #6
    25d4:	06120501 	ldreq	r0, [r2], -r1, lsl #10
    25d8:	06050501 	streq	r0, [r5], -r1, lsl #10
    25dc:	0318054b 	tsteq	r8, #314572800	; 0x12c00000
    25e0:	05017fa9 	streq	r7, [r1, #-4009]	; 0xfffff057
    25e4:	05011305 	streq	r1, [r1, #-773]	; 0xfffffcfb
    25e8:	05050e18 	streq	r0, [r5, #-3608]	; 0xfffff1e8
    25ec:	06110513 			; <UNDEFINED> instruction: 0x06110513
    25f0:	05052e01 	streq	r2, [r5, #-3585]	; 0xfffff1ff
    25f4:	014a0615 	cmpeq	sl, r5, lsl r6
    25f8:	060e0513 			; <UNDEFINED> instruction: 0x060e0513
    25fc:	16052e01 	strne	r2, [r5], -r1, lsl #28
    2600:	05052e2e 	streq	r2, [r5, #-3630]	; 0xfffff1d2
    2604:	00d60306 	sbcseq	r0, r6, r6, lsl #6
    2608:	18050101 	stmdane	r5, {r0, r8}
    260c:	017f9f03 	cmneq	pc, r3, lsl #30
    2610:	05130505 	ldreq	r0, [r3, #-1285]	; 0xfffffafb
    2614:	2e010619 	mcrcs	6, 0, r0, cr1, cr9, {0}
    2618:	e0030505 	and	r0, r3, r5, lsl #10
    261c:	02000100 	andeq	r0, r0, #0
    2620:	4a060204 	bmi	182e38 <__bss_end__+0x177d90>
    2624:	02040200 	andeq	r0, r4, #0, 4
    2628:	000a0514 	andeq	r0, sl, r4, lsl r5
    262c:	06020402 	streq	r0, [r2], -r2, lsl #8
    2630:	00050501 	andeq	r0, r5, r1, lsl #10
    2634:	06020402 	streq	r0, [r2], -r2, lsl #8
    2638:	000c054b 	andeq	r0, ip, fp, asr #10
    263c:	06020402 	streq	r0, [r2], -r2, lsl #8
    2640:	00010501 	andeq	r0, r1, r1, lsl #10
    2644:	2f020402 	svccs	0x00020402
    2648:	02000505 	andeq	r0, r0, #20971520	; 0x1400000
    264c:	03060104 	movweq	r0, #24836	; 0x6104
    2650:	02004a73 	andeq	r4, r0, #471040	; 0x73000
    2654:	00010104 	andeq	r0, r1, r4, lsl #2
    2658:	06010402 	streq	r0, [r1], -r2, lsl #8
    265c:	0402009e 	streq	r0, [r2], #-158	; 0xffffff62
    2660:	02002e01 	andeq	r2, r0, #1, 28
    2664:	2e060104 	adfcss	f0, f6, f4
    2668:	01040200 	mrseq	r0, R12_usr
    266c:	0402002f 	streq	r0, [r2], #-47	; 0xffffffd1
    2670:	02002e01 	andeq	r2, r0, #1, 28
    2674:	03d60104 	bicseq	r0, r6, #1
    2678:	012e7fb1 			; <UNDEFINED> instruction: 0x012e7fb1
    267c:	2e2e8206 	cdpcs	2, 2, cr8, cr14, cr6, {0}
    2680:	2e062e06 	cdpcs	14, 0, cr2, cr6, cr6, {0}
    2684:	01040200 	mrseq	r0, R12_usr
    2688:	00d70306 	sbcseq	r0, r7, r6, lsl #6
    268c:	04020001 	streq	r0, [r2], #-1
    2690:	02002e01 	andeq	r2, r0, #1, 28
    2694:	05d60104 	ldrbeq	r0, [r6, #260]	; 0x104
    2698:	057b0815 	ldrbeq	r0, [fp, #-2069]!	; 0xfffff7eb
    269c:	16050117 			; <UNDEFINED> instruction: 0x16050117
    26a0:	01180531 	tsteq	r8, r1, lsr r5
    26a4:	01061d05 	tsteq	r6, r5, lsl #26
    26a8:	05662b05 	strbeq	r2, [r6, #-2821]!	; 0xfffff4fb
    26ac:	054d0619 	strbeq	r0, [sp, #-1561]	; 0xfffff9e7
    26b0:	0c051305 	stceq	3, cr1, [r5], {5}
    26b4:	07050106 	streq	r0, [r5, -r6, lsl #2]
    26b8:	0025054a 	eoreq	r0, r5, sl, asr #10
    26bc:	4a010402 	bmi	436cc <__bss_end__+0x38624>
    26c0:	02001e05 	andeq	r1, r0, #80	; 0x50
    26c4:	054a0104 	strbeq	r0, [sl, #-260]	; 0xfffffefc
    26c8:	054b0609 	strbeq	r0, [fp, #-1545]	; 0xfffff9f7
    26cc:	0a051305 	beq	1472e8 <__bss_end__+0x13c240>
    26d0:	19050106 	stmdbne	r5, {r1, r2, r8}
    26d4:	06090563 	streq	r0, [r9], -r3, ror #10
    26d8:	9e06014c 	adflssm	f0, f6, #4.0
    26dc:	0a022e06 	beq	8defc <__bss_end__+0x82e54>
    26e0:	89010100 	stmdbhi	r1, {r8}
    26e4:	03000002 	movweq	r0, #2
    26e8:	0000c900 	andeq	ip, r0, r0, lsl #18
    26ec:	fb010200 	blx	42ef6 <__bss_end__+0x37e4e>
    26f0:	01000d0e 	tsteq	r0, lr, lsl #26
    26f4:	00010101 	andeq	r0, r1, r1, lsl #2
    26f8:	00010000 	andeq	r0, r1, r0
    26fc:	2f2e0100 	svccs	0x002e0100
    2700:	00637273 	rsbeq	r7, r3, r3, ror r2
    2704:	6573552f 	ldrbvs	r5, [r3, #-1327]!	; 0xfffffad1
    2708:	6d2f7372 	stcvs	3, cr7, [pc, #-456]!	; 2548 <__code_start__-0x5ab8>
    270c:	73656c69 	cmnvc	r5, #26880	; 0x6900
    2710:	756f532f 	strbvc	r5, [pc, #-815]!	; 23e9 <__code_start__-0x5c17>
    2714:	2f656372 	svccs	0x00656372
    2718:	34327363 	ldrtcc	r7, [r2], #-867	; 0xfffffc9d
    271c:	2f786c30 	svccs	0x00786c30
    2720:	7062696c 	rsbvc	r6, r2, ip, ror #18
    2724:	6e692f69 	cdpvs	15, 6, cr2, cr9, cr9, {3}
    2728:	64756c63 	ldrbtvs	r6, [r5], #-3171	; 0xfffff39d
    272c:	6f2f0065 	svcvs	0x002f0065
    2730:	682f7470 	stmdavs	pc!, {r4, r5, r6, sl, ip, sp, lr}	; <UNPREDICTABLE>
    2734:	62656d6f 	rsbvs	r6, r5, #7104	; 0x1bc0
    2738:	2f776572 	svccs	0x00776572
    273c:	6c6c6543 	cfstr64vs	mvdx6, [ip], #-268	; 0xfffffef4
    2740:	612f7261 			; <UNDEFINED> instruction: 0x612f7261
    2744:	6e2d6d72 	mcrvs	13, 1, r6, cr13, cr2, {3}
    2748:	2d656e6f 	stclcs	14, cr6, [r5, #-444]!	; 0xfffffe44
    274c:	69626165 	stmdbvs	r2!, {r0, r2, r5, r6, r8, sp, lr}^
    2750:	392f392d 	stmdbcc	pc!, {r0, r2, r3, r5, r8, fp, ip, sp}	; <UNPREDICTABLE>
    2754:	3130322d 	teqcc	r0, sp, lsr #4
    2758:	2d347139 	ldfcss	f7, [r4, #-228]!	; 0xffffff1c
    275c:	30317363 	eorscc	r7, r1, r3, ror #6
    2760:	6c2f6537 	cfstr32vs	mvfx6, [pc], #-220	; 268c <__code_start__-0x5974>
    2764:	672f6269 	strvs	r6, [pc, -r9, ror #4]!
    2768:	612f6363 			; <UNDEFINED> instruction: 0x612f6363
    276c:	6e2d6d72 	mcrvs	13, 1, r6, cr13, cr2, {3}
    2770:	2d656e6f 	stclcs	14, cr6, [r5, #-444]!	; 0xfffffe44
    2774:	69626165 	stmdbvs	r2!, {r0, r2, r5, r6, r8, sp, lr}^
    2778:	322e392f 	eorcc	r3, lr, #770048	; 0xbc000
    277c:	692f312e 	stmdbvs	pc!, {r1, r2, r3, r5, r8, ip, sp}	; <UNPREDICTABLE>
    2780:	756c636e 	strbvc	r6, [ip, #-878]!	; 0xfffffc92
    2784:	00006564 	andeq	r6, r0, r4, ror #10
    2788:	6f697067 	svcvs	0x00697067
    278c:	0100632e 	tsteq	r0, lr, lsr #6
    2790:	70720000 	rsbsvc	r0, r2, r0
    2794:	00682e69 	rsbeq	r2, r8, r9, ror #28
    2798:	73000002 	movwvc	r0, #2
    279c:	6e696474 	mcrvs	4, 3, r6, cr9, cr4, {3}
    27a0:	63672d74 	cmnvs	r7, #116, 26	; 0x1d00
    27a4:	00682e63 	rsbeq	r2, r8, r3, ror #28
    27a8:	67000003 	strvs	r0, [r0, -r3]
    27ac:	2e6f6970 			; <UNDEFINED> instruction: 0x2e6f6970
    27b0:	00020068 	andeq	r0, r2, r8, rrx
    27b4:	38050000 	stmdacc	r5, {}	; <UNPREDICTABLE>
    27b8:	ec020500 	cfstr32	mvfx0, [r2], {-0}
    27bc:	030000a0 	movweq	r0, #160	; 0xa0
    27c0:	05050127 	streq	r0, [r5, #-295]	; 0xfffffed9
    27c4:	06070513 			; <UNDEFINED> instruction: 0x06070513
    27c8:	06060501 	streq	r0, [r6], -r1, lsl #10
    27cc:	15050549 	strne	r0, [r5, #-1353]	; 0xfffffab7
    27d0:	01060705 	tsteq	r6, r5, lsl #14
    27d4:	052b3805 	streq	r3, [fp, #-2053]!	; 0xfffff7fb
    27d8:	05054d07 	streq	r4, [r5, #-3335]	; 0xfffff2f9
    27dc:	18053006 	stmdane	r5, {r1, r2, ip, sp}
    27e0:	1c050106 	stfnes	f0, [r5], {6}
    27e4:	4a0e0567 	bmi	383d88 <__bss_end__+0x378ce0>
    27e8:	052d1805 	streq	r1, [sp, #-2053]!	; 0xfffff7fb
    27ec:	2f2e4d12 	svccs	0x002e4d12
    27f0:	052a0e05 	streq	r0, [sl, #-3589]!	; 0xfffff1fb
    27f4:	142f0605 	strtne	r0, [pc], #-1541	; 27fc <__code_start__-0x5804>
    27f8:	06070513 			; <UNDEFINED> instruction: 0x06070513
    27fc:	06050501 	streq	r0, [r5], -r1, lsl #10
    2800:	2e06132f 	cdpcs	3, 0, cr1, cr6, cr15, {1}
    2804:	1301052e 	movwne	r0, #5422	; 0x152e
    2808:	2e2d0505 	cfsh64cs	mvdx0, mvdx13, #5
    280c:	00062405 	andeq	r2, r6, r5, lsl #8
    2810:	a14c0205 	cmpge	ip, r5, lsl #4
    2814:	05150000 	ldreq	r0, [r5, #-0]
    2818:	06051305 	streq	r1, [r5], -r5, lsl #6
    281c:	05017103 	streq	r7, [r1, #-259]	; 0xfffffefd
    2820:	07051305 	streq	r1, [r5, -r5, lsl #6]
    2824:	06050106 	streq	r0, [r5], -r6, lsl #2
    2828:	05054906 	streq	r4, [r5, #-2310]	; 0xfffff6fa
    282c:	24051415 	strcs	r1, [r5], #-1045	; 0xfffffbeb
    2830:	01090306 	tsteq	r9, r6, lsl #6
    2834:	77031805 	strvc	r1, [r3, -r5, lsl #16]
    2838:	671c052e 	ldrvs	r0, [ip, -lr, lsr #10]
    283c:	054a0e05 	strbeq	r0, [sl, #-3589]	; 0xfffff1fb
    2840:	12052d18 	andne	r2, r5, #24, 26	; 0x600
    2844:	052f2e4d 	streq	r2, [pc, #-3661]!	; 19ff <__code_start__-0x6601>
    2848:	0e052f0f 	cdpeq	15, 0, cr2, cr5, cr15, {0}
    284c:	06050529 	streq	r0, [r5], -r9, lsr #10
    2850:	0513142f 	ldreq	r1, [r3, #-1071]	; 0xfffffbd1
    2854:	05010607 	streq	r0, [r1, #-1543]	; 0xfffff9f9
    2858:	132f0605 			; <UNDEFINED> instruction: 0x132f0605
    285c:	01052e06 	tsteq	r5, r6, lsl #28
    2860:	29050533 	stmdbcs	r5, {r0, r1, r4, r5, r8, sl}
    2864:	0627052e 	strteq	r0, [r7], -lr, lsr #10
    2868:	a4020500 	strge	r0, [r2], #-1280	; 0xfffffb00
    286c:	1a0000a1 	bne	2af8 <__code_start__-0x5508>
    2870:	05130505 	ldreq	r0, [r3, #-1285]	; 0xfffffafb
    2874:	05110627 	ldreq	r0, [r1, #-1575]	; 0xfffff9d9
    2878:	05052f18 	streq	r2, [r5, #-3864]	; 0xfffff0e8
    287c:	054a2e2e 	strbeq	r2, [sl, #-3630]	; 0xfffff1d2
    2880:	05000628 	streq	r0, [r0, #-1576]	; 0xfffff9d8
    2884:	00a1bc02 	adceq	fp, r1, r2, lsl #24
    2888:	05051600 	streq	r1, [r5, #-1536]	; 0xfffffa00
    288c:	06280513 			; <UNDEFINED> instruction: 0x06280513
    2890:	2f180511 	svccs	0x00180511
    2894:	2e2e0505 	cfsh64cs	mvdx0, mvdx14, #5
    2898:	0623054a 	strteq	r0, [r3], -sl, asr #10
    289c:	d4020500 	strle	r0, [r2], #-1280	; 0xfffffb00
    28a0:	160000a1 	strne	r0, [r0], -r1, lsr #1
    28a4:	05130505 	ldreq	r0, [r3, #-1285]	; 0xfffffafb
    28a8:	01620306 	cmneq	r2, r6, lsl #6
    28ac:	05130505 	ldreq	r0, [r3, #-1285]	; 0xfffffafb
    28b0:	05010607 	streq	r0, [r1, #-1543]	; 0xfffff9f9
    28b4:	05490606 	strbeq	r0, [r9, #-1542]	; 0xfffff9fa
    28b8:	13141505 	tstne	r4, #20971520	; 0x1400000
    28bc:	03062305 	movweq	r2, #25349	; 0x6305
    28c0:	22050117 	andcs	r0, r5, #-1073741819	; 0xc0000005
    28c4:	052e6903 	streq	r6, [lr, #-2307]!	; 0xfffff6fd
    28c8:	052e821c 	streq	r8, [lr, #-540]!	; 0xfffffde4
    28cc:	05052e0e 	streq	r2, [r5, #-3598]	; 0xfffff1f2
    28d0:	12053006 	andne	r3, r5, #6, 0
    28d4:	2d4b0106 	stfcse	f0, [fp, #-24]	; 0xffffffe8
    28d8:	2f060505 	svccs	0x00060505
    28dc:	18051313 	stmdane	r5, {r0, r1, r4, r8, r9, ip}
    28e0:	017a0306 	cmneq	sl, r6, lsl #6
    28e4:	054a0e05 	strbeq	r0, [sl, #-3589]	; 0xfffff1fb
    28e8:	052e3405 	streq	r3, [lr, #-1029]!	; 0xfffffbfb
    28ec:	2e140301 	cdpcs	3, 1, cr0, cr4, cr1, {0}
    28f0:	6c030505 	cfstr32vs	mvfx0, [r3], {5}
    28f4:	2b052e2e 	blcs	14e1b4 <__bss_end__+0x14310c>
    28f8:	02050006 	andeq	r0, r5, #6, 0
    28fc:	0000a22c 	andeq	sl, r0, ip, lsr #4
    2900:	05011703 	streq	r1, [r1, #-1795]	; 0xfffff8fd
    2904:	07051305 	streq	r1, [r5, -r5, lsl #6]
    2908:	18050106 	stmdane	r5, {r1, r2, r8}
    290c:	052e7103 	streq	r7, [lr, #-259]!	; 0xfffffefd
    2910:	2e0e032b 	cdpcs	3, 0, cr0, cr14, cr11, {1}
    2914:	052f0705 	streq	r0, [pc, #-1797]!	; 2217 <__code_start__-0x5de9>
    2918:	052f0609 	streq	r0, [pc, #-1545]!	; 2317 <__code_start__-0x5ce9>
    291c:	016f030d 	cmneq	pc, sp, lsl #6
    2920:	06130505 	ldreq	r0, [r3], -r5, lsl #10
    2924:	052e2e2e 	streq	r2, [lr, #-3630]!	; 0xfffff1d2
    2928:	12030609 	andne	r0, r3, #9437184	; 0x900000
    292c:	030d0501 	movweq	r0, #54529	; 0xd501
    2930:	05050172 	streq	r0, [r5, #-370]	; 0xfffffe8e
    2934:	2e2e0613 	mcrcs	6, 1, r0, cr14, cr3, {0}
    2938:	03061d05 	movweq	r1, #27909	; 0x6d05
    293c:	05056610 	streq	r6, [r5, #-1552]	; 0xfffff9f0
    2940:	061d0513 			; <UNDEFINED> instruction: 0x061d0513
    2944:	05052e11 	streq	r2, [r5, #-3601]	; 0xfffff1ef
    2948:	05133006 	ldreq	r3, [r3, #-6]
    294c:	0510060e 	ldreq	r0, [r0, #-1550]	; 0xfffff9f2
    2950:	042e3017 	strteq	r3, [lr], #-23	; 0xffffffe9
    2954:	06300502 	ldrteq	r0, [r0], -r2, lsl #10
    2958:	2e00dd03 	cdpcs	13, 0, cr13, cr0, cr3, {0}
    295c:	0e050104 	adfeqs	f0, f5, f4
    2960:	7fa20306 	svcvc	0x00a20306
    2964:	2f230501 	svccs	0x00230501
    2968:	022f0105 	eoreq	r0, pc, #1073741825	; 0x40000001
    296c:	01010006 	tsteq	r1, r6
    2970:	0000009e 	muleq	r0, lr, r0
    2974:	005a0003 	subseq	r0, sl, r3
    2978:	01020000 	mrseq	r0, (UNDEF: 2)
    297c:	000d0efb 	strdeq	r0, [sp], -fp
    2980:	01010101 	tsteq	r1, r1, lsl #2
    2984:	01000000 	mrseq	r0, (UNDEF: 0)
    2988:	2e010000 	cdpcs	0, 0, cr0, cr1, cr0, {0}
    298c:	62696c2f 	rsbvs	r6, r9, #12032	; 0x2f00
    2990:	552f0063 	strpl	r0, [pc, #-99]!	; 2935 <__code_start__-0x56cb>
    2994:	73726573 	cmnvc	r2, #482344960	; 0x1cc00000
    2998:	6c696d2f 	stclvs	13, cr6, [r9], #-188	; 0xffffff44
    299c:	532f7365 			; <UNDEFINED> instruction: 0x532f7365
    29a0:	6372756f 	cmnvs	r2, #465567744	; 0x1bc00000
    29a4:	73632f65 	cmnvc	r3, #404	; 0x194
    29a8:	6c303432 	cfldrsvs	mvf3, [r0], #-200	; 0xffffff38
    29ac:	696c2f78 	stmdbvs	ip!, {r3, r4, r5, r6, r8, r9, sl, fp, sp}^
    29b0:	2f697062 	svccs	0x00697062
    29b4:	6c636e69 	stclvs	14, cr6, [r3], #-420	; 0xfffffe5c
    29b8:	00656475 	rsbeq	r6, r5, r5, ror r4
    29bc:	74757000 	ldrbtvc	r7, [r5], #-0
    29c0:	72616863 	rsbvc	r6, r1, #6488064	; 0x630000
    29c4:	0100632e 	tsteq	r0, lr, lsr #6
    29c8:	70720000 	rsbsvc	r0, r2, r0
    29cc:	00682e69 	rsbeq	r2, r8, r9, ror #28
    29d0:	00000002 	andeq	r0, r0, r2
    29d4:	05002405 	streq	r2, [r0, #-1029]	; 0xfffffbfb
    29d8:	00a28402 	adceq	r8, r2, r2, lsl #8
    29dc:	26051400 	strcs	r1, [r5], -r0, lsl #8
    29e0:	06240501 	strteq	r0, [r4], -r1, lsl #10
    29e4:	26052e01 	strcs	r2, [r5], -r1, lsl #28
    29e8:	0634052e 	ldrteq	r0, [r4], -lr, lsr #10
    29ec:	0601052e 	streq	r0, [r1], -lr, lsr #10
    29f0:	061b0501 	ldreq	r0, [fp], -r1, lsl #10
    29f4:	1305054f 	movwne	r0, #21839	; 0x554f
    29f8:	01061105 	tsteq	r6, r5, lsl #2
    29fc:	05670105 	strbeq	r0, [r7, #-261]!	; 0xfffffefb
    2a00:	05670623 	strbeq	r0, [r7, #-1571]!	; 0xfffff9dd
    2a04:	11051305 	tstne	r5, r5, lsl #6
    2a08:	01050106 	tsteq	r5, r6, lsl #2
    2a0c:	0004024b 	andeq	r0, r4, fp, asr #4
    2a10:	00e20101 	rsceq	r0, r2, r1, lsl #2
    2a14:	00030000 	andeq	r0, r3, r0
    2a18:	00000059 	andeq	r0, r0, r9, asr r0
    2a1c:	0efb0102 	cdpeq	1, 15, cr0, cr11, cr2, {0}
    2a20:	0101000d 	tsteq	r1, sp
    2a24:	00000101 	andeq	r0, r0, r1, lsl #2
    2a28:	00000100 	andeq	r0, r0, r0, lsl #2
    2a2c:	6c2f2e01 	stcvs	14, cr2, [pc], #-4	; 2a30 <__code_start__-0x55d0>
    2a30:	00636269 	rsbeq	r6, r3, r9, ror #4
    2a34:	6573552f 	ldrbvs	r5, [r3, #-1327]!	; 0xfffffad1
    2a38:	6d2f7372 	stcvs	3, cr7, [pc, #-456]!	; 2878 <__code_start__-0x5788>
    2a3c:	73656c69 	cmnvc	r5, #26880	; 0x6900
    2a40:	756f532f 	strbvc	r5, [pc, #-815]!	; 2719 <__code_start__-0x58e7>
    2a44:	2f656372 	svccs	0x00656372
    2a48:	34327363 	ldrtcc	r7, [r2], #-867	; 0xfffffc9d
    2a4c:	2f786c30 	svccs	0x00786c30
    2a50:	7062696c 	rsbvc	r6, r2, ip, ror #18
    2a54:	6e692f69 	cdpvs	15, 6, cr2, cr9, cr9, {3}
    2a58:	64756c63 	ldrbtvs	r6, [r5], #-3171	; 0xfffff39d
    2a5c:	73000065 	movwvc	r0, #101	; 0x65
    2a60:	61637274 	smcvs	14116	; 0x3724
    2a64:	00632e74 	rsbeq	r2, r3, r4, ror lr
    2a68:	72000001 	andvc	r0, r0, #1, 0
    2a6c:	682e6970 	stmdavs	lr!, {r4, r5, r6, r8, fp, sp, lr}
    2a70:	00000200 	andeq	r0, r0, r0, lsl #4
    2a74:	002c0500 	eoreq	r0, ip, r0, lsl #10
    2a78:	a2c00205 	sbcge	r0, r0, #1342177280	; 0x50000000
    2a7c:	05150000 	ldreq	r0, [r5, #-0]
    2a80:	05131305 	ldreq	r1, [r3, #-773]	; 0xfffffcfb
    2a84:	0511060b 	ldreq	r0, [r1, #-1547]	; 0xfffff9f5
    2a88:	04020005 	streq	r0, [r2], #-5
    2a8c:	00300601 	eorseq	r0, r0, r1, lsl #12
    2a90:	15010402 	strne	r0, [r1, #-1026]	; 0xfffffbfe
    2a94:	02000905 	andeq	r0, r0, #81920	; 0x14000
    2a98:	05130104 	ldreq	r0, [r3, #-260]	; 0xfffffefc
    2a9c:	0402000b 	streq	r0, [r2], #-11
    2aa0:	05052f01 	streq	r2, [r5, #-3841]	; 0xfffff0ff
    2aa4:	01040200 	mrseq	r0, R12_usr
    2aa8:	02000106 	andeq	r0, r0, #-2147483647	; 0x80000001
    2aac:	062e0104 	strteq	r0, [lr], -r4, lsl #2
    2ab0:	0608054e 	streq	r0, [r8], -lr, asr #10
    2ab4:	00050501 	andeq	r0, r5, r1, lsl #10
    2ab8:	06010402 	streq	r0, [r1], -r2, lsl #8
    2abc:	0009052f 	andeq	r0, r9, pc, lsr #10
    2ac0:	13010402 	movwne	r0, #5122	; 0x1402
    2ac4:	02000b05 	andeq	r0, r0, #5120	; 0x1400
    2ac8:	01060104 	tsteq	r6, r4, lsl #2
    2acc:	02000905 	andeq	r0, r0, #81920	; 0x14000
    2ad0:	2f060104 	svccs	0x00060104
    2ad4:	02000505 	andeq	r0, r0, #20971520	; 0x1400000
    2ad8:	13060104 	movwne	r0, #24836	; 0x6104
    2adc:	02000f05 	andeq	r0, r0, #5, 30
    2ae0:	052d0104 	streq	r0, [sp, #-260]!	; 0xfffffefc
    2ae4:	0402000d 	streq	r0, [r2], #-13
    2ae8:	052f0601 	streq	r0, [pc, #-1537]!	; 24ef <__code_start__-0x5b11>
    2aec:	04020005 	streq	r0, [r2], #-5
    2af0:	02010601 	andeq	r0, r1, #1048576	; 0x100000
    2af4:	01010004 	tsteq	r1, r4
    2af8:	000000b2 	strheq	r0, [r0], -r2
    2afc:	00590003 	subseq	r0, r9, r3
    2b00:	01020000 	mrseq	r0, (UNDEF: 2)
    2b04:	000d0efb 	strdeq	r0, [sp], -fp
    2b08:	01010101 	tsteq	r1, r1, lsl #2
    2b0c:	01000000 	mrseq	r0, (UNDEF: 0)
    2b10:	2e010000 	cdpcs	0, 0, cr0, cr1, cr0, {0}
    2b14:	62696c2f 	rsbvs	r6, r9, #12032	; 0x2f00
    2b18:	552f0063 	strpl	r0, [pc, #-99]!	; 2abd <__code_start__-0x5543>
    2b1c:	73726573 	cmnvc	r2, #482344960	; 0x1cc00000
    2b20:	6c696d2f 	stclvs	13, cr6, [r9], #-188	; 0xffffff44
    2b24:	532f7365 			; <UNDEFINED> instruction: 0x532f7365
    2b28:	6372756f 	cmnvs	r2, #465567744	; 0x1bc00000
    2b2c:	73632f65 	cmnvc	r3, #404	; 0x194
    2b30:	6c303432 	cfldrsvs	mvf3, [r0], #-200	; 0xffffff38
    2b34:	696c2f78 	stmdbvs	ip!, {r3, r4, r5, r6, r8, r9, sl, fp, sp}^
    2b38:	2f697062 	svccs	0x00697062
    2b3c:	6c636e69 	stclvs	14, cr6, [r3], #-420	; 0xfffffe5c
    2b40:	00656475 	rsbeq	r6, r5, r5, ror r4
    2b44:	72747300 	rsbsvc	r7, r4, #0, 6
    2b48:	2e706d63 	cdpcs	13, 7, cr6, cr0, cr3, {3}
    2b4c:	00010063 	andeq	r0, r1, r3, rrx
    2b50:	69707200 	ldmdbvs	r0!, {r9, ip, sp, lr}^
    2b54:	0200682e 	andeq	r6, r0, #3014656	; 0x2e0000
    2b58:	05000000 	streq	r0, [r0, #-0]
    2b5c:	0205002a 	andeq	r0, r5, #42, 0	; 0x2a
    2b60:	0000a2ec 	andeq	sl, r0, ip, ror #5
    2b64:	13090514 	movwne	r0, #38164	; 0x9514
    2b68:	01061005 	tsteq	r6, r5
    2b6c:	2e060f05 	cdpcs	15, 0, cr0, cr6, cr5, {0}
    2b70:	82061005 	andhi	r1, r6, #5, 0
    2b74:	052e0f05 	streq	r0, [lr, #-3845]!	; 0xfffff0fb
    2b78:	04020011 	streq	r0, [r2], #-17	; 0xffffffef
    2b7c:	054b0601 	strbeq	r0, [fp, #-1537]	; 0xfffff9ff
    2b80:	0402001c 	streq	r0, [r2], #-28	; 0xffffffe4
    2b84:	052d0601 	streq	r0, [sp, #-1537]!	; 0xfffff9ff
    2b88:	0402000f 	streq	r0, [r2], #-15
    2b8c:	052e0601 	streq	r0, [lr, #-1537]!	; 0xfffff9ff
    2b90:	04020013 	streq	r0, [r2], #-19	; 0xffffffed
    2b94:	05010601 	streq	r0, [r1, #-1537]	; 0xfffff9ff
    2b98:	054c0609 	strbeq	r0, [ip, #-1545]	; 0xfffff9f7
    2b9c:	4a130601 	bmi	4c43a8 <__bss_end__+0x4b9300>
    2ba0:	2d060905 	vstrcs.16	s0, [r6, #-10]	; <UNPREDICTABLE>
    2ba4:	13060105 	movwne	r0, #24837	; 0x6105
    2ba8:	0002022e 	andeq	r0, r2, lr, lsr #4
    2bac:	009d0101 	addseq	r0, sp, r1, lsl #2
    2bb0:	00030000 	andeq	r0, r3, r0
    2bb4:	00000059 	andeq	r0, r0, r9, asr r0
    2bb8:	0efb0102 	cdpeq	1, 15, cr0, cr11, cr2, {0}
    2bbc:	0101000d 	tsteq	r1, sp
    2bc0:	00000101 	andeq	r0, r0, r1, lsl #2
    2bc4:	00000100 	andeq	r0, r0, r0, lsl #2
    2bc8:	6c2f2e01 	stcvs	14, cr2, [pc], #-4	; 2bcc <__code_start__-0x5434>
    2bcc:	00636269 	rsbeq	r6, r3, r9, ror #4
    2bd0:	6573552f 	ldrbvs	r5, [r3, #-1327]!	; 0xfffffad1
    2bd4:	6d2f7372 	stcvs	3, cr7, [pc, #-456]!	; 2a14 <__code_start__-0x55ec>
    2bd8:	73656c69 	cmnvc	r5, #26880	; 0x6900
    2bdc:	756f532f 	strbvc	r5, [pc, #-815]!	; 28b5 <__code_start__-0x574b>
    2be0:	2f656372 	svccs	0x00656372
    2be4:	34327363 	ldrtcc	r7, [r2], #-867	; 0xfffffc9d
    2be8:	2f786c30 	svccs	0x00786c30
    2bec:	7062696c 	rsbvc	r6, r2, ip, ror #18
    2bf0:	6e692f69 	cdpvs	15, 6, cr2, cr9, cr9, {3}
    2bf4:	64756c63 	ldrbtvs	r6, [r5], #-3171	; 0xfffff39d
    2bf8:	73000065 	movwvc	r0, #101	; 0x65
    2bfc:	70637274 	rsbvc	r7, r3, r4, ror r2
    2c00:	00632e79 	rsbeq	r2, r3, r9, ror lr
    2c04:	72000001 	andvc	r0, r0, #1, 0
    2c08:	682e6970 	stmdavs	lr!, {r4, r5, r6, r8, fp, sp, lr}
    2c0c:	00000200 	andeq	r0, r0, r0, lsl #4
    2c10:	002a0500 	eoreq	r0, sl, r0, lsl #10
    2c14:	a3300205 	teqge	r0, #1342177280	; 0x50000000
    2c18:	05140000 	ldreq	r0, [r4, #-0]
    2c1c:	05131305 	ldreq	r1, [r3, #-773]	; 0xfffffcfb
    2c20:	04020022 	streq	r0, [r2], #-34	; 0xffffffde
    2c24:	0b052e01 	bleq	14e430 <__bss_end__+0x143388>
    2c28:	01040200 	mrseq	r0, R12_usr
    2c2c:	00150501 	andseq	r0, r5, r1, lsl #10
    2c30:	06010402 	streq	r0, [r1], -r2, lsl #8
    2c34:	000b0501 	andeq	r0, fp, r1, lsl #10
    2c38:	2e010402 	cdpcs	4, 0, cr0, cr1, cr2, {0}
    2c3c:	02001305 	andeq	r1, r0, #335544320	; 0x14000000
    2c40:	052e0104 	streq	r0, [lr, #-260]!	; 0xfffffefc
    2c44:	0402000b 	streq	r0, [r2], #-11
    2c48:	04022e01 	streq	r2, [r2], #-3585	; 0xfffff1ff
    2c4c:	fd010100 	stc2	1, cr0, [r1, #-0]
    2c50:	03000000 	movweq	r0, #0
    2c54:	0000bf00 	andeq	fp, r0, r0, lsl #30
    2c58:	fb010200 	blx	43462 <__bss_end__+0x383ba>
    2c5c:	01000d0e 	tsteq	r0, lr, lsl #26
    2c60:	00010101 	andeq	r0, r1, r1, lsl #2
    2c64:	00010000 	andeq	r0, r1, r0
    2c68:	2f2e0100 	svccs	0x002e0100
    2c6c:	6362696c 	cmnvs	r2, #108, 18	; 0x1b0000
    2c70:	73552f00 	cmpvc	r5, #0, 30
    2c74:	2f737265 	svccs	0x00737265
    2c78:	656c696d 	strbvs	r6, [ip, #-2413]!	; 0xfffff693
    2c7c:	6f532f73 	svcvs	0x00532f73
    2c80:	65637275 	strbvs	r7, [r3, #-629]!	; 0xfffffd8b
    2c84:	3273632f 	rsbscc	r6, r3, #-1140850688	; 0xbc000000
    2c88:	786c3034 	stmdavc	ip!, {r2, r4, r5, ip, sp}^
    2c8c:	62696c2f 	rsbvs	r6, r9, #12032	; 0x2f00
    2c90:	692f6970 	stmdbvs	pc!, {r4, r5, r6, r8, fp, sp, lr}	; <UNPREDICTABLE>
    2c94:	756c636e 	strbvc	r6, [ip, #-878]!	; 0xfffffc92
    2c98:	2f006564 	svccs	0x00006564
    2c9c:	2f74706f 	svccs	0x0074706f
    2ca0:	656d6f68 	strbvs	r6, [sp, #-3944]!	; 0xfffff098
    2ca4:	77657262 	strbvc	r7, [r5, -r2, ror #4]!
    2ca8:	6c65432f 	stclvs	3, cr4, [r5], #-188	; 0xffffff44
    2cac:	2f72616c 	svccs	0x0072616c
    2cb0:	2d6d7261 	sfmcs	f7, 2, [sp, #-388]!	; 0xfffffe7c
    2cb4:	656e6f6e 	strbvs	r6, [lr, #-3950]!	; 0xfffff092
    2cb8:	6261652d 	rsbvs	r6, r1, #188743680	; 0xb400000
    2cbc:	2f392d69 	svccs	0x00392d69
    2cc0:	30322d39 	eorscc	r2, r2, r9, lsr sp
    2cc4:	34713931 	ldrbtcc	r3, [r1], #-2353	; 0xfffff6cf
    2cc8:	3173632d 	cmncc	r3, sp, lsr #6
    2ccc:	2f653730 	svccs	0x00653730
    2cd0:	2f62696c 	svccs	0x0062696c
    2cd4:	2f636367 	svccs	0x00636367
    2cd8:	2d6d7261 	sfmcs	f7, 2, [sp, #-388]!	; 0xfffffe7c
    2cdc:	656e6f6e 	strbvs	r6, [lr, #-3950]!	; 0xfffff092
    2ce0:	6261652d 	rsbvs	r6, r1, #188743680	; 0xb400000
    2ce4:	2e392f69 	cdpcs	15, 3, cr2, cr9, cr9, {3}
    2ce8:	2f312e32 	svccs	0x00312e32
    2cec:	6c636e69 	stclvs	14, cr6, [r3], #-420	; 0xfffffe5c
    2cf0:	00656475 	rsbeq	r6, r5, r5, ror r4
    2cf4:	72747300 	rsbsvc	r7, r4, #0, 6
    2cf8:	706d636e 	rsbvc	r6, sp, lr, ror #6
    2cfc:	0100632e 	tsteq	r0, lr, lsr #6
    2d00:	70720000 	rsbsvc	r0, r2, r0
    2d04:	00682e69 	rsbeq	r2, r8, r9, ror #28
    2d08:	73000002 	movwvc	r0, #2
    2d0c:	65646474 	strbvs	r6, [r4, #-1140]!	; 0xfffffb8c
    2d10:	00682e66 	rsbeq	r2, r8, r6, ror #28
    2d14:	00000003 	andeq	r0, r0, r3
    2d18:	05003905 	streq	r3, [r0, #-2309]	; 0xfffff6fb
    2d1c:	00a34802 	adceq	r4, r3, r2, lsl #16
    2d20:	05051500 	streq	r1, [r5, #-1280]	; 0xfffffb00
    2d24:	0a051313 	beq	147978 <__bss_end__+0x13c8d0>
    2d28:	0c052e06 	stceq	14, cr2, [r5], {6}
    2d2c:	2e13052f 	cfmul64cs	mvdx0, mvdx3, mvdx15
    2d30:	052e0b05 	streq	r0, [lr, #-2821]!	; 0xfffff4fb
    2d34:	054a0609 	strbeq	r0, [sl, #-1545]	; 0xfffff9f7
    2d38:	0106110a 	tsteq	r6, sl, lsl #2
    2d3c:	054e0c05 	strbeq	r0, [lr, #-3077]	; 0xfffff3fb
    2d40:	0d052f01 	stceq	15, cr2, [r5, #-4]
    2d44:	1b052b06 	blne	14d964 <__bss_end__+0x1428bc>
    2d48:	022e0106 	eoreq	r0, lr, #-2147483647	; 0x80000001
    2d4c:	01010002 	tsteq	r1, r2
    2d50:	0000008a 	andeq	r0, r0, sl, lsl #1
    2d54:	006e0003 	rsbeq	r0, lr, r3
    2d58:	01020000 	mrseq	r0, (UNDEF: 2)
    2d5c:	000d0efb 	strdeq	r0, [sp], -fp
    2d60:	01010101 	tsteq	r1, r1, lsl #2
    2d64:	01000000 	mrseq	r0, (UNDEF: 0)
    2d68:	2e010000 	cdpcs	0, 0, cr0, cr1, cr0, {0}
    2d6c:	6174732f 	cmnvs	r4, pc, lsr #6
    2d70:	732d6666 			; <UNDEFINED> instruction: 0x732d6666
    2d74:	2f006372 	svccs	0x00006372
    2d78:	72657355 	rsbvc	r7, r5, #1409286145	; 0x54000001
    2d7c:	696d2f73 	stmdbvs	sp!, {r0, r1, r4, r5, r6, r8, r9, sl, fp, sp}^
    2d80:	2f73656c 	svccs	0x0073656c
    2d84:	72756f53 	rsbsvc	r6, r5, #332	; 0x14c
    2d88:	632f6563 			; <UNDEFINED> instruction: 0x632f6563
    2d8c:	30343273 	eorscc	r3, r4, r3, ror r2
    2d90:	6c2f786c 	stcvs	8, cr7, [pc], #-432	; 2be8 <__code_start__-0x5418>
    2d94:	69706269 	ldmdbvs	r0!, {r0, r3, r5, r6, r9, sp, lr}^
    2d98:	636e692f 	cmnvs	lr, #770048	; 0xbc000
    2d9c:	6564756c 	strbvs	r7, [r4, #-1388]!	; 0xfffffa94
    2da0:	65640000 	strbvs	r0, [r4, #-0]!
    2da4:	6c756166 	ldfvse	f6, [r5], #-408	; 0xfffffe68
    2da8:	65722d74 	ldrbvs	r2, [r2, #-3444]!	; 0xfffff28c
    2dac:	746f6f62 	strbtvc	r6, [pc], #-3938	; 2db4 <__code_start__-0x524c>
    2db0:	6c61632d 	stclvs	3, cr6, [r1], #-180	; 0xffffff4c
    2db4:	74756f6c 	ldrbtvc	r6, [r5], #-3948	; 0xfffff094
    2db8:	0100632e 	tsteq	r0, lr, lsr #6
    2dbc:	70720000 	rsbsvc	r0, r2, r0
    2dc0:	00682e69 	rsbeq	r2, r8, r9, ror #28
    2dc4:	00000002 	andeq	r0, r0, r2
    2dc8:	05001b05 	streq	r1, [r0, #-2821]	; 0xfffff4fb
    2dcc:	00a37802 	adceq	r7, r3, r2, lsl #16
    2dd0:	1c051400 	cfstrsne	mvf1, [r5], {-0}
    2dd4:	06010501 	streq	r0, [r1], -r1, lsl #10
    2dd8:	00020201 	andeq	r0, r2, r1, lsl #4
    2ddc:	Address 0x0000000000002ddc is out of bounds.


Disassembly of section .debug_str:

00000000 <.debug_str>:
   0:	765f6b63 	ldrbvc	r6, [pc], -r3, ror #22
   4:	6f627265 	svcvs	0x00627265
   8:	705f6573 	subsvc	r6, pc, r3, ror r5	; <UNPREDICTABLE>
   c:	616b6300 	cmnvs	fp, r0, lsl #6
  10:	636f6c6c 	cmnvs	pc, #108, 24	; 0x6c00
  14:	63727300 	cmnvs	r2, #0, 6
  18:	636f6c5f 	cmnvs	pc, #24320	; 0x5f00
  1c:	006b6d5f 	rsbeq	r6, fp, pc, asr sp
  20:	656e696c 	strbvs	r6, [lr, #-2412]!	; 0xfffff694
  24:	6e006f6e 	cdpvs	15, 0, cr6, cr0, cr14, {3}
  28:	616d746f 	cmnvs	sp, pc, ror #8
  2c:	72006e69 	andvc	r6, r0, #1680	; 0x690
  30:	725f6970 	subsvc	r6, pc, #112, 18	; 0x1c0000
  34:	33646e61 	cmncc	r4, #1552	; 0x610
  38:	69660032 	stmdbvs	r6!, {r1, r4, r5}^
  3c:	7500656c 	strvc	r6, [r0, #-1388]	; 0xfffffa94
  40:	6769736e 	strbvs	r7, [r9, -lr, ror #6]!
  44:	2064656e 	rsbcs	r6, r4, lr, ror #10
  48:	72616863 	rsbvc	r6, r1, #6488064	; 0x630000
  4c:	656c6300 	strbvs	r6, [ip, #-768]!	; 0xfffffd00
  50:	725f6e61 	subsvc	r6, pc, #1552	; 0x610
  54:	6f6f6265 	svcvs	0x006f6265
  58:	65740074 	ldrbvs	r0, [r4, #-116]!	; 0xffffff8c
  5c:	2d737473 	cfldrdcs	mvd7, [r3, #-460]!	; 0xfffffe34
  60:	2f302e32 	svccs	0x00302e32
  64:	74726170 	ldrbtvc	r6, [r2], #-368	; 0xfffffe90
  68:	65742d31 	ldrbvs	r2, [r4, #-3377]!	; 0xfffff2cf
  6c:	2d357473 	cfldrscs	mvf7, [r5, #-460]!	; 0xfffffe34
  70:	622d6f6e 	eorvs	r6, sp, #440	; 0x1b8
  74:	632e6775 			; <UNDEFINED> instruction: 0x632e6775
  78:	6f687300 	svcvs	0x00687300
  7c:	75207472 	strvc	r7, [r0, #-1138]!	; 0xfffffb8e
  80:	6769736e 	strbvs	r7, [r9, -lr, ror #6]!
  84:	2064656e 	rsbcs	r6, r4, lr, ror #10
  88:	00746e69 	rsbseq	r6, r4, r9, ror #28
  8c:	6573552f 	ldrbvs	r5, [r3, #-1327]!	; 0xfffffad1
  90:	6d2f7372 	stcvs	3, cr7, [pc, #-456]!	; fffffed0 <__bss_end__+0xffff4e28>
  94:	73656c69 	cmnvc	r5, #26880	; 0x6900
  98:	756f532f 	strbvc	r5, [pc, #-815]!	; fffffd71 <__bss_end__+0xffff4cc9>
  9c:	2f656372 	svccs	0x00656372
  a0:	34327363 	ldrtcc	r7, [r2], #-867	; 0xfffffc9d
  a4:	2f786c30 	svccs	0x00786c30
  a8:	7362616c 	cmnvc	r2, #27
  ac:	642d362f 	strtvs	r3, [sp], #-1583	; 0xfffff9d1
  b0:	67756265 	ldrbvs	r6, [r5, -r5, ror #4]!
  b4:	6c6c612d 	stfvse	f6, [ip], #-180	; 0xffffff4c
  b8:	632f636f 			; <UNDEFINED> instruction: 0x632f636f
  bc:	0065646f 	rsbeq	r6, r5, pc, ror #8
  c0:	636e7566 	cmnvs	lr, #427819008	; 0x19800000
  c4:	554e4700 	strbpl	r4, [lr, #-1792]	; 0xfffff900
  c8:	39394320 	ldmdbcc	r9!, {r5, r8, r9, lr}
  cc:	322e3920 	eorcc	r3, lr, #32, 18	; 0x80000
  d0:	3220312e 	eorcc	r3, r0, #-2147483637	; 0x8000000b
  d4:	31393130 	teqcc	r9, r0, lsr r1
  d8:	20353230 	eorscs	r3, r5, r0, lsr r2
  dc:	6c657228 	sfmvs	f7, 2, [r5], #-160	; 0xffffff60
  e0:	65736165 	ldrbvs	r6, [r3, #-357]!	; 0xfffffe9b
  e4:	415b2029 	cmpmi	fp, r9, lsr #32
  e8:	612f4d52 			; <UNDEFINED> instruction: 0x612f4d52
  ec:	392d6d72 	pushcc	{r1, r4, r5, r6, r8, sl, fp, sp, lr}
  f0:	6172622d 	cmnvs	r2, sp, lsr #4
  f4:	2068636e 	rsbcs	r6, r8, lr, ror #6
  f8:	69766572 	ldmdbvs	r6!, {r1, r4, r5, r6, r8, sl, sp, lr}^
  fc:	6e6f6973 			; <UNDEFINED> instruction: 0x6e6f6973
 100:	37373220 	ldrcc	r3, [r7, -r0, lsr #4]!
 104:	5d393935 			; <UNDEFINED> instruction: 0x5d393935
 108:	636d2d20 	cmnvs	sp, #32, 26	; 0x800
 10c:	613d7570 	teqvs	sp, r0, ror r5
 110:	31316d72 	teqcc	r1, r2, ror sp
 114:	7a6a3637 	bvc	1a8d9f8 <__bss_end__+0x1a82950>
 118:	20732d66 	rsbscs	r2, r3, r6, ror #26
 11c:	75746d2d 	ldrbvc	r6, [r4, #-3373]!	; 0xfffff2d3
 120:	613d656e 	teqvs	sp, lr, ror #10
 124:	31316d72 	teqcc	r1, r2, ror sp
 128:	7a6a3637 	bvc	1a8da0c <__bss_end__+0x1a82964>
 12c:	20732d66 	rsbscs	r2, r3, r6, ror #26
 130:	6c666d2d 	stclvs	13, cr6, [r6], #-180	; 0xffffff4c
 134:	2d74616f 	ldfcse	f6, [r4, #-444]!	; 0xfffffe44
 138:	3d696261 	sfmcc	f6, 2, [r9, #-388]!	; 0xfffffe7c
 13c:	74666f73 	strbtvc	r6, [r6], #-3955	; 0xfffff08d
 140:	616d2d20 	cmnvs	sp, r0, lsr #26
 144:	2d206d72 	stccs	13, cr6, [r0, #-456]!	; 0xfffffe38
 148:	6372616d 	cmnvs	r2, #1073741851	; 0x4000001b
 14c:	72613d68 	rsbvc	r3, r1, #104, 26	; 0x1a00
 150:	6b36766d 	blvs	d9db0c <__bss_end__+0xd92a64>
 154:	672d207a 			; <UNDEFINED> instruction: 0x672d207a
 158:	20626467 	rsbcs	r6, r2, r7, ror #8
 15c:	20334f2d 	eorscs	r4, r3, sp, lsr #30
 160:	6474732d 	ldrbtvs	r7, [r4], #-813	; 0xfffffcd3
 164:	756e673d 	strbvc	r6, [lr, #-1853]!	; 0xfffff8c3
 168:	2d203939 			; <UNDEFINED> instruction: 0x2d203939
 16c:	65726666 	ldrbvs	r6, [r2, #-1638]!	; 0xfffff99a
 170:	61747365 	cmnvs	r4, r5, ror #6
 174:	6e69646e 	cdpvs	4, 6, cr6, cr9, cr14, {3}
 178:	5f5f0067 	svcpl	0x005f0067
 17c:	434e5546 	movtmi	r5, #58694	; 0xe546
 180:	4e4f4954 			; <UNDEFINED> instruction: 0x4e4f4954
 184:	6c005f5f 	stcvs	15, cr5, [r0], {95}	; 0x5f
 188:	20676e6f 	rsbcs	r6, r7, pc, ror #28
 18c:	676e6f6c 	strbvs	r6, [lr, -ip, ror #30]!
 190:	736e7520 	cmnvc	lr, #32, 10	; 0x8000000
 194:	656e6769 	strbvs	r6, [lr, #-1897]!	; 0xfffff897
 198:	6e692064 	cdpvs	0, 6, cr2, cr9, cr4, {3}
 19c:	6b630074 	blvs	18c0374 <__bss_end__+0x18b52cc>
 1a0:	6165685f 	cmnvs	r5, pc, asr r8
 1a4:	72655f70 	rsbvc	r5, r5, #112, 30	; 0x1c0
 1a8:	73726f72 	cmnvc	r2, #456	; 0x1c8
 1ac:	6e6f6c00 	cdpvs	12, 6, cr6, cr15, cr0, {0}
 1b0:	6f6c2067 	svcvs	0x006c2067
 1b4:	6920676e 	stmdbvs	r0!, {r1, r2, r3, r5, r6, r8, r9, sl, sp, lr}
 1b8:	7200746e 	andvc	r7, r0, #1845493760	; 0x6e000000
 1bc:	705f6970 	subsvc	r6, pc, r0, ror r9	; <UNPREDICTABLE>
 1c0:	68637475 	stmdavs	r3!, {r0, r2, r4, r5, r6, sl, ip, sp, lr}^
 1c4:	63007261 	movwvs	r7, #609	; 0x261
 1c8:	6572666b 	ldrbvs	r6, [r2, #-1643]!	; 0xfffff995
 1cc:	68730065 	ldmdavs	r3!, {r0, r2, r5, r6}^
 1d0:	2074726f 	rsbscs	r7, r4, pc, ror #4
 1d4:	00746e69 	rsbseq	r6, r4, r9, ror #28
 1d8:	5f637273 	svcpl	0x00637273
 1dc:	5f636f6c 	svcpl	0x00636f6c
 1e0:	6b630074 	blvs	18c03b8 <__bss_end__+0x18b5310>
 1e4:	7274705f 	rsbsvc	r7, r4, #95, 0	; 0x5f
 1e8:	5f6e695f 	svcpl	0x006e695f
 1ec:	636f6c62 	cmnvs	pc, #25088	; 0x6200
 1f0:	6468006b 	strbtvs	r0, [r8], #-107	; 0xffffff95
 1f4:	00745f72 	rsbseq	r5, r4, r2, ror pc
 1f8:	636f6c62 	cmnvs	pc, #25088	; 0x6200
 1fc:	64695f6b 	strbtvs	r5, [r9], #-3947	; 0xfffff095
 200:	45524600 	ldrbmi	r4, [r2, #-1536]	; 0xfffffa00
 204:	6e004445 	cdpvs	4, 0, cr4, cr0, cr5, {2}
 208:	65747962 	ldrbvs	r7, [r4, #-2402]!	; 0xfffff69e
 20c:	6c615f73 	stclvs	15, cr5, [r1], #-460	; 0xfffffe34
 210:	00636f6c 	rsbeq	r6, r3, ip, ror #30
 214:	5a444552 	bpl	1111764 <__bss_end__+0x11066bc>
 218:	5f454e4f 	svcpl	0x00454e4f
 21c:	004c4156 	subeq	r4, ip, r6, asr r1
 220:	5a444552 	bpl	1111770 <__bss_end__+0x11066c8>
 224:	5f454e4f 	svcpl	0x00454e4f
 228:	5459424e 	ldrbpl	r4, [r9], #-590	; 0xfffffdb2
 22c:	63005345 	movwvs	r5, #837	; 0x345
 230:	69665f6b 	stmdbvs	r6!, {r0, r1, r3, r5, r6, r8, r9, sl, fp, ip, lr}^
 234:	5f747372 	svcpl	0x00747372
 238:	00726468 	rsbseq	r6, r2, r8, ror #8
 23c:	746e6975 	strbtvc	r6, [lr], #-2421	; 0xfffff68b
 240:	00745f38 	rsbseq	r5, r4, r8, lsr pc
 244:	6f6c6c61 	svcvs	0x006c6c61
 248:	696c5f63 	stmdbvs	ip!, {r0, r1, r5, r6, r8, r9, sl, fp, ip, lr}^
 24c:	6d007473 	cfstrsvs	mvf7, [r0, #-460]	; 0xfffffe34
 250:	65736d65 	ldrbvs	r6, [r3, #-3429]!	; 0xfffff29b
 254:	6b630074 	blvs	18c042c <__bss_end__+0x18b5384>
 258:	7264685f 	rsbvc	r6, r4, #6225920	; 0x5f0000
 25c:	6c6c6100 	stfvse	f6, [ip], #-0
 260:	6c5f636f 	mrrcvs	3, 6, r6, pc, cr15	; <UNPREDICTABLE>
 264:	7300636f 	movwvc	r6, #879	; 0x36f
 268:	65746174 	ldrbvs	r6, [r4, #-372]!	; 0xfffffe8c
 26c:	66657200 	strbtvs	r7, [r5], -r0, lsl #4
 270:	74735f73 	ldrbtvc	r5, [r3], #-3955	; 0xfffff08d
 274:	00747261 	rsbseq	r7, r4, r1, ror #4
 278:	746e6975 	strbtvc	r6, [lr], #-2421	; 0xfffff68b
 27c:	745f3233 	ldrbvc	r3, [pc], #-563	; 284 <__code_start__-0x7d7c>
 280:	6e697500 	cdpvs	5, 6, cr7, cr9, cr0, {0}
 284:	5f363174 	svcpl	0x00363174
 288:	6b630074 	blvs	18c0460 <__bss_end__+0x18b53b8>
 28c:	7274705f 	rsbsvc	r7, r4, #95, 0	; 0x5f
 290:	5f73695f 	svcpl	0x0073695f
 294:	6f6c6c61 	svcvs	0x006c6c61
 298:	00646563 	rsbeq	r6, r4, r3, ror #10
 29c:	6e5f6b63 	vnmlavs.f64	d22, d15, d19
 2a0:	5f747865 	svcpl	0x00747865
 2a4:	00726468 	rsbseq	r6, r2, r8, ror #8
 2a8:	6c616b63 			; <UNDEFINED> instruction: 0x6c616b63
 2ac:	2e636f6c 	cdpcs	15, 6, cr6, cr3, cr12, {3}
 2b0:	65720063 	ldrbvs	r0, [r2, #-99]!	; 0xffffff9d
 2b4:	6d5f7366 	ldclvs	3, cr7, [pc, #-408]	; 124 <__code_start__-0x7edc>
 2b8:	6c646469 	cfstrdvs	mvd6, [r4], #-420	; 0xfffffe5c
 2bc:	4c410065 	mcrrmi	0, 6, r0, r1, cr5
 2c0:	45434f4c 	strbmi	r4, [r3, #-3916]	; 0xfffff0b4
 2c4:	6b630044 	blvs	18c03dc <__bss_end__+0x18b5334>
 2c8:	7264685f 	rsbvc	r6, r4, #6225920	; 0x5f0000
 2cc:	6174735f 	cmnvs	r4, pc, asr r3
 2d0:	63007472 	movwvs	r7, #1138	; 0x472
 2d4:	64685f6b 	strbtvs	r5, [r8], #-3947	; 0xfffff095
 2d8:	6e655f72 	mcrvs	15, 3, r5, cr5, cr2, {3}
 2dc:	72660064 	rsbvc	r0, r6, #100, 0	; 0x64
 2e0:	6c5f6565 	cfldr64vs	mvdx6, [pc], {101}	; 0x65
 2e4:	6300636f 	movwvs	r6, #879	; 0x36f
 2e8:	626e5f6b 	rsbvs	r5, lr, #428	; 0x1ac
 2ec:	73657479 	cmnvc	r5, #2030043136	; 0x79000000
 2f0:	5f726b00 	svcpl	0x00726b00
 2f4:	6c6c616d 	stfvse	f6, [ip], #-436	; 0xfffffe4c
 2f8:	6e00636f 	cdpvs	3, 0, cr6, cr0, cr15, {3}
 2fc:	00747865 	rsbseq	r7, r4, r5, ror #16
 300:	64616568 	strbtvs	r6, [r1], #-1384	; 0xfffffa98
 304:	70007265 	andvc	r7, r0, r5, ror #4
 308:	70766572 	rsbsvc	r6, r6, r2, ror r5
 30c:	696c6100 	stmdbvs	ip!, {r8, sp, lr}^
 310:	6b006e67 	blvs	1bcb4 <__bss_end__+0x10c0c>
 314:	72665f72 	rsbvc	r5, r6, #456	; 0x1c8
 318:	66006565 	strvs	r6, [r0], -r5, ror #10
 31c:	70656572 	rsbvc	r6, r5, r2, ror r5
 320:	6e756e00 	cdpvs	14, 7, cr6, cr5, cr0, {0}
 324:	00737469 	rsbseq	r7, r3, r9, ror #8
 328:	6d2d726b 	sfmvs	f7, 4, [sp, #-428]!	; 0xfffffe54
 32c:	6f6c6c61 	svcvs	0x006c6c61
 330:	00632e63 	rsbeq	r2, r3, r3, ror #28
 334:	62756f64 	rsbsvs	r6, r5, #100, 30	; 0x190
 338:	6200656c 	andvs	r6, r0, #108, 10	; 0x1b000000
 33c:	00657361 	rsbeq	r7, r5, r1, ror #6
 340:	6b726273 	blvs	1c98d14 <__bss_end__+0x1c8dc6c>
 344:	726f6d00 	rsbvc	r6, pc, #0, 26
 348:	726f6365 	rsbvc	r6, pc, #-1811939327	; 0x94000001
 34c:	69730065 	ldmdbvs	r3!, {r0, r2, r5, r6}^
 350:	4800657a 	stmdami	r0, {r1, r3, r4, r5, r6, r8, sl, sp, lr}
 354:	65646165 	strbvs	r6, [r4, #-357]!	; 0xfffffe9b
 358:	74730072 	ldrbtvc	r0, [r3], #-114	; 0xffffff8e
 35c:	5f6b6361 	svcpl	0x006b6361
 360:	00706f74 	rsbseq	r6, r0, r4, ror pc
 364:	6b72616d 	blvs	1c98920 <__bss_end__+0x1c8d878>
 368:	6c6c615f 	stfvse	f6, [ip], #-380	; 0xfffffe84
 36c:	706d6900 	rsbvc	r6, sp, r0, lsl #18
 370:	656d656c 	strbvs	r6, [sp, #-1388]!	; 0xfffffa94
 374:	745f746e 	ldrbvc	r7, [pc], #-1134	; 37c <__code_start__-0x7c84>
 378:	00736968 	rsbseq	r6, r3, r8, ror #18
 37c:	73625f5f 	cmnvc	r2, #380	; 0x17c
 380:	74735f73 	ldrbtvc	r5, [r3], #-3955	; 0xfffff08d
 384:	5f747261 	svcpl	0x00747261
 388:	626e005f 	rsbvs	r0, lr, #95, 0	; 0x5f
 38c:	6b636f6c 	blvs	18dc144 <__bss_end__+0x18d109c>
 390:	6e690073 	mcrvs	0, 3, r0, cr9, cr3, {3}
 394:	705f7469 	subsvc	r7, pc, r9, ror #8
 398:	79626e00 	stmdbvc	r2!, {r9, sl, fp, sp, lr}^
 39c:	5f736574 	svcpl	0x00736574
 3a0:	65657266 	strbvs	r7, [r5, #-614]!	; 0xfffffd9a
 3a4:	6c6f0064 	stclvs	0, cr0, [pc], #-400	; 21c <__code_start__-0x7de4>
 3a8:	616d5f64 	cmnvs	sp, r4, ror #30
 3ac:	69006b72 	stmdbvs	r0, {r1, r4, r5, r6, r8, r9, fp, sp, lr}
 3b0:	6572636e 	ldrbvs	r6, [r2, #-878]!	; 0xfffffc92
 3b4:	746e656d 	strbtvc	r6, [lr], #-1389	; 0xfffffa93
 3b8:	5f6b6300 	svcpl	0x006b6300
 3bc:	646e6966 	strbtvs	r6, [lr], #-2406	; 0xfffff69a
 3c0:	61656c5f 	cmnvs	r5, pc, asr ip
 3c4:	6d00736b 	stcvs	3, cr7, [r0, #-428]	; 0xfffffe54
 3c8:	65627961 	strbvs	r7, [r2, #-2401]!	; 0xfffff69f
 3cc:	7272655f 	rsbsvc	r6, r2, #398458880	; 0x17c00000
 3d0:	0073726f 	rsbseq	r7, r3, pc, ror #4
 3d4:	675f6b63 	ldrbvs	r6, [pc, -r3, ror #22]
 3d8:	5f5f0063 	svcpl	0x005f0063
 3dc:	61746164 	cmnvs	r4, r4, ror #2
 3e0:	646e655f 	strbtvs	r6, [lr], #-1375	; 0xfffffaa1
 3e4:	64005f5f 	strvs	r5, [r0], #-3935	; 0xfffff0a1
 3e8:	5f706d75 	svcpl	0x00706d75
 3ec:	73676572 	cmnvc	r7, #478150656	; 0x1c800000
 3f0:	656c6e00 	strbvs	r6, [ip, #-3584]!	; 0xfffff200
 3f4:	00736b61 	rsbseq	r6, r3, r1, ror #22
 3f8:	6f727265 	svcvs	0x00727265
 3fc:	745f7372 	ldrbvc	r7, [pc], #-882	; 404 <__code_start__-0x7bfc>
 400:	5f736968 	svcpl	0x00736968
 404:	636f6c62 	cmnvs	pc, #25088	; 0x6200
 408:	7369006b 	cmnvc	r9, #107, 0	; 0x6b
 40c:	7274705f 	rsbsvc	r7, r4, #95, 0	; 0x5f
 410:	65686300 	strbvs	r6, [r8, #-768]!	; 0xfffffd00
 414:	6e5f6b63 	vnmlavs.f64	d22, d15, d19
 418:	656c5f6f 	strbvs	r5, [ip, #-3951]!	; 0xfffff091
 41c:	6e006b61 	vmlsvs.f64	d6, d0, d17
 420:	65657266 	strbvs	r7, [r5, #-614]!	; 0xfffffd9a
 424:	6e690064 	cdpvs	0, 6, cr0, cr9, cr4, {3}
 428:	6165685f 	cmnvs	r5, pc, asr r8
 42c:	6e6f0070 	mcrvs	0, 3, r0, cr15, cr0, {3}
 430:	00626d65 	rsbeq	r6, r2, r5, ror #26
 434:	672d6b63 	strvs	r6, [sp, -r3, ror #22]!
 438:	00632e63 	rsbeq	r2, r3, r3, ror #28
 43c:	63656863 	cmnvs	r5, #6488064	; 0x630000
 440:	68735f6b 	ldmdavs	r3!, {r0, r1, r3, r5, r6, r8, r9, sl, fp, ip, lr}^
 444:	646c756f 	strbtvs	r7, [ip], #-1391	; 0xfffffa91
 448:	61656c5f 	cmnvs	r5, pc, asr ip
 44c:	5f5f006b 	svcpl	0x005f006b
 450:	5f737362 	svcpl	0x00737362
 454:	5f646e65 	svcpl	0x00646e65
 458:	6572005f 	ldrbvs	r0, [r2, #-95]!	; 0xffffffa1
 45c:	6e6f7a64 	vnmulvs.f32	s15, s30, s9
 460:	72655f65 	rsbvc	r5, r5, #404	; 0x194
 464:	73726f72 	cmnvc	r2, #456	; 0x1c8
 468:	64657200 	strbtvs	r7, [r5], #-512	; 0xfffffe00
 46c:	656e6f7a 	strbvs	r6, [lr, #-3962]!	; 0xfffff086
 470:	616d6b00 	cmnvs	sp, r0, lsl #22
 474:	636f6c6c 	cmnvs	pc, #108, 24	; 0x6c00
 478:	616d6b00 	cmnvs	sp, r0, lsl #22
 47c:	636f6c6c 	cmnvs	pc, #108, 24	; 0x6c00
 480:	696e695f 	stmdbvs	lr!, {r0, r1, r2, r3, r4, r6, r8, fp, sp, lr}^
 484:	65735f74 	ldrbvs	r5, [r3, #-3956]!	; 0xfffff08c
 488:	74735f74 	ldrbtvc	r5, [r3], #-3956	; 0xfffff08c
 48c:	00747261 	rsbseq	r7, r4, r1, ror #4
 490:	65657773 	strbvs	r7, [r5, #-1907]!	; 0xfffff88d
 494:	656c5f70 	strbvs	r5, [ip, #-3952]!	; 0xfffff090
 498:	5f006b61 	svcpl	0x00006b61
 49c:	7461645f 	strbtvc	r6, [r1], #-1119	; 0xfffffba1
 4a0:	74735f61 	ldrbtvc	r5, [r3], #-3937	; 0xfffff09f
 4a4:	5f747261 	svcpl	0x00747261
 4a8:	7773005f 			; <UNDEFINED> instruction: 0x7773005f
 4ac:	5f706565 	svcpl	0x00706565
 4b0:	65657266 	strbvs	r7, [r5, #-614]!	; 0xfffffd9a
 4b4:	72617700 	rsbvc	r7, r1, #0, 14
 4b8:	6f6e5f6e 	svcvs	0x006e5f6e
 4bc:	6174735f 	cmnvs	r4, pc, asr r3
 4c0:	725f7472 	subsvc	r7, pc, #1912602624	; 0x72000000
 4c4:	705f6665 	subsvc	r6, pc, r5, ror #12
 4c8:	746f7400 	strbtvc	r7, [pc], #-1024	; 4d0 <__code_start__-0x7b30>
 4cc:	73006c61 	movwvc	r6, #3169	; 0xc61
 4d0:	5f657a69 	svcpl	0x00657a69
 4d4:	2f2e0074 	svccs	0x002e0074
 4d8:	6362696c 	cmnvs	r2, #108, 18	; 0x1b0000
 4dc:	6d656d2f 	stclvs	13, cr6, [r5, #-188]!	; 0xffffff44
 4e0:	2e746573 	mrccs	5, 3, r6, cr4, cr3, {3}
 4e4:	4e470063 	cdpmi	0, 4, cr0, cr7, cr3, {3}
 4e8:	39432055 	stmdbcc	r3, {r0, r2, r4, r6, sp}^
 4ec:	2e392039 	mrccs	0, 1, r2, cr9, cr9, {1}
 4f0:	20312e32 	eorscs	r2, r1, r2, lsr lr
 4f4:	39313032 	ldmdbcc	r1!, {r1, r4, r5, ip, sp}
 4f8:	35323031 	ldrcc	r3, [r2, #-49]!	; 0xffffffcf
 4fc:	65722820 	ldrbvs	r2, [r2, #-2080]!	; 0xfffff7e0
 500:	7361656c 	cmnvc	r1, #108, 10	; 0x1b000000
 504:	5b202965 	blpl	80aaa0 <__bss_end__+0x7ff9f8>
 508:	2f4d5241 	svccs	0x004d5241
 50c:	2d6d7261 	sfmcs	f7, 2, [sp, #-388]!	; 0xfffffe7c
 510:	72622d39 	rsbvc	r2, r2, #3648	; 0xe40
 514:	68636e61 	stmdavs	r3!, {r0, r5, r6, r9, sl, fp, sp, lr}^
 518:	76657220 	strbtvc	r7, [r5], -r0, lsr #4
 51c:	6f697369 	svcvs	0x00697369
 520:	3732206e 	ldrcc	r2, [r2, -lr, rrx]!
 524:	39393537 	ldmdbcc	r9!, {r0, r1, r2, r4, r5, r8, sl, ip, sp}
 528:	6d2d205d 	stcvs	0, cr2, [sp, #-372]!	; 0xfffffe8c
 52c:	3d757063 	ldclcc	0, cr7, [r5, #-396]!	; 0xfffffe74
 530:	316d7261 	cmncc	sp, r1, ror #4
 534:	6a363731 	bvs	d8e200 <__bss_end__+0xd83158>
 538:	732d667a 			; <UNDEFINED> instruction: 0x732d667a
 53c:	746d2d20 	strbtvc	r2, [sp], #-3360	; 0xfffff2e0
 540:	3d656e75 	stclcc	14, cr6, [r5, #-468]!	; 0xfffffe2c
 544:	316d7261 	cmncc	sp, r1, ror #4
 548:	6a363731 	bvs	d8e214 <__bss_end__+0xd8316c>
 54c:	732d667a 			; <UNDEFINED> instruction: 0x732d667a
 550:	666d2d20 	strbtvs	r2, [sp], -r0, lsr #26
 554:	74616f6c 	strbtvc	r6, [r1], #-3948	; 0xfffff094
 558:	6962612d 	stmdbvs	r2!, {r0, r2, r3, r5, r8, sp, lr}^
 55c:	666f733d 			; <UNDEFINED> instruction: 0x666f733d
 560:	6d2d2074 	stcvs	0, cr2, [sp, #-464]!	; 0xfffffe30
 564:	206d7261 	rsbcs	r7, sp, r1, ror #4
 568:	72616d2d 	rsbvc	r6, r1, #2880	; 0xb40
 56c:	613d6863 	teqvs	sp, r3, ror #16
 570:	36766d72 			; <UNDEFINED> instruction: 0x36766d72
 574:	2d207a6b 	vstmdbcs	r0!, {s14-s120}
 578:	62646767 	rsbvs	r6, r4, #27000832	; 0x19c0000
 57c:	664f2d20 	strbvs	r2, [pc], -r0, lsr #26
 580:	20747361 	rsbscs	r7, r4, r1, ror #6
 584:	6474732d 	ldrbtvs	r7, [r4], #-813	; 0xfffffcd3
 588:	756e673d 	strbvc	r6, [lr, #-1853]!	; 0xfffff8c3
 58c:	2d203939 			; <UNDEFINED> instruction: 0x2d203939
 590:	65726666 	ldrbvs	r6, [r2, #-1638]!	; 0xfffff99a
 594:	61747365 	cmnvs	r4, r5, ror #6
 598:	6e69646e 	cdpvs	4, 6, cr6, cr9, cr14, {3}
 59c:	552f0067 	strpl	r0, [pc, #-103]!	; 53d <__code_start__-0x7ac3>
 5a0:	73726573 	cmnvc	r2, #482344960	; 0x1cc00000
 5a4:	6c696d2f 	stclvs	13, cr6, [r9], #-188	; 0xffffff44
 5a8:	532f7365 			; <UNDEFINED> instruction: 0x532f7365
 5ac:	6372756f 	cmnvs	r2, #465567744	; 0x1bc00000
 5b0:	73632f65 	cmnvc	r3, #404	; 0x194
 5b4:	6c303432 	cfldrsvs	mvf3, [r0], #-200	; 0xffffff38
 5b8:	696c2f78 	stmdbvs	ip!, {r3, r4, r5, r6, r8, r9, sl, fp, sp}^
 5bc:	00697062 	rsbeq	r7, r9, r2, rrx
 5c0:	73677261 	cmnvc	r7, #268435462	; 0x10000006
 5c4:	5f617600 	svcpl	0x00617600
 5c8:	6e697270 	mcrvs	2, 3, r7, cr9, cr0, {3}
 5cc:	5f006b74 	svcpl	0x00006b74
 5d0:	756e675f 	strbvc	r6, [lr, #-1887]!	; 0xfffff8a1
 5d4:	61765f63 	cmnvs	r6, r3, ror #30
 5d8:	73696c5f 	cmnvc	r9, #24320	; 0x5f00
 5dc:	5f5f0074 	svcpl	0x005f0074
 5e0:	2e007061 	cdpcs	0, 0, cr7, cr0, cr1, {3}
 5e4:	62696c2f 	rsbvs	r6, r9, #12032	; 0x2f00
 5e8:	72702f63 	rsbsvc	r2, r0, #396	; 0x18c
 5ec:	6b746e69 	blvs	1d1bf98 <__bss_end__+0x1d10ef0>
 5f0:	5f00632e 	svcpl	0x0000632e
 5f4:	5f61765f 	svcpl	0x0061765f
 5f8:	7473696c 	ldrbtvc	r6, [r3], #-2412	; 0xfffff694
 5fc:	746e6900 	strbtvc	r6, [lr], #-2304	; 0xfffff700
 600:	616e7265 	cmnvs	lr, r5, ror #4
 604:	75705f6c 	ldrbvc	r5, [r0, #-3948]!	; 0xfffff094
 608:	2e006b74 	vmovcs.16	d0[1], r6
 60c:	62696c2f 	rsbvs	r6, r9, #12032	; 0x2f00
 610:	75702f63 	ldrbvc	r2, [r0, #-3939]!	; 0xfffff09d
 614:	632e6b74 			; <UNDEFINED> instruction: 0x632e6b74
 618:	73666c00 	cmnvc	r6, #0, 24
 61c:	70720072 	rsbsvc	r0, r2, r2, ror r0
 620:	65725f69 	ldrbvs	r5, [r2, #-3945]!	; 0xfffff097
 624:	00746573 	rsbseq	r6, r4, r3, ror r5
 628:	5f697072 	svcpl	0x00697072
 62c:	646e6172 	strbtvs	r6, [lr], #-370	; 0xfffffe8e
 630:	73003631 	movwvc	r3, #1585	; 0x631
 634:	00646565 	rsbeq	r6, r4, r5, ror #10
 638:	696c2f2e 	stmdbvs	ip!, {r1, r2, r3, r5, r8, r9, sl, fp, sp}^
 63c:	722f6362 	eorvc	r6, pc, #-2013265919	; 0x88000001
 640:	722d6970 	eorvc	r6, sp, #112, 18	; 0x1c0000
 644:	2e646e61 	cdpcs	14, 6, cr6, cr4, cr1, {3}
 648:	73690063 	cmnvc	r9, #99, 0	; 0x63
 64c:	69676964 	stmdbvs	r7!, {r2, r5, r6, r8, fp, sp, lr}^
 650:	69750074 	ldmdbvs	r5!, {r2, r4, r5, r6}^
 654:	3436746e 	ldrtcc	r7, [r6], #-1134	; 0xfffffb92
 658:	2e00745f 	cfmvsrcs	mvf0, r7
 65c:	62696c2f 	rsbvs	r6, r9, #12032	; 0x2f00
 660:	61762f63 	cmnvs	r6, r3, ror #30
 664:	6972702d 	ldmdbvs	r2!, {r0, r2, r3, r5, ip, sp, lr}^
 668:	2e6b746e 	cdpcs	4, 6, cr7, cr11, cr14, {3}
 66c:	5f5f0063 	svcpl	0x005f0063
 670:	65646f63 	strbvs	r6, [r4, #-3939]!	; 0xfffff09d
 674:	6174735f 	cmnvs	r4, pc, asr r3
 678:	5f5f7472 	svcpl	0x005f7472
 67c:	64697700 	strbtvs	r7, [r9], #-1792	; 0xfffff900
 680:	70006874 	andvc	r6, r0, r4, ror r8
 684:	5f637475 	svcpl	0x00637475
 688:	5f007066 	svcpl	0x00007066
 68c:	6165685f 	cmnvs	r5, pc, asr r8
 690:	74735f70 	ldrbtvc	r5, [r3], #-3952	; 0xfffff090
 694:	5f747261 	svcpl	0x00747261
 698:	7072005f 	rsbsvc	r0, r2, pc, asr r0
 69c:	65735f69 	ldrbvs	r5, [r3, #-3945]!	; 0xfffff097
 6a0:	756f5f74 	strbvc	r5, [pc, #-3956]!	; fffff734 <__bss_end__+0xffff468c>
 6a4:	74757074 	ldrbtvc	r7, [r5], #-116	; 0xffffff8c
 6a8:	746d6600 	strbtvc	r6, [sp], #-1536	; 0xfffffa00
 6ac:	6174735f 	cmnvs	r4, pc, asr r3
 6b0:	73007472 	movwvc	r7, #1138	; 0x472
 6b4:	61637274 	smcvs	14116	; 0x3724
 6b8:	74730074 	ldrbtvc	r0, [r3], #-116	; 0xffffff8c
 6bc:	79706372 	ldmdbvc	r0!, {r1, r4, r5, r6, r8, r9, sp, lr}^
 6c0:	67656e00 	strbvs	r6, [r5, -r0, lsl #28]!
 6c4:	5f00705f 	svcpl	0x0000705f
 6c8:	646f635f 	strbtvs	r6, [pc], #-863	; 6d0 <__code_start__-0x7930>
 6cc:	6e655f65 	cdpvs	15, 6, cr5, cr5, cr5, {3}
 6d0:	005f5f64 	subseq	r5, pc, r4, ror #30
 6d4:	74696d65 	strbtvc	r6, [r9], #-3429	; 0xfffff29b
 6d8:	76657200 	strbtvc	r7, [r5], -r0, lsl #4
 6dc:	65737265 	ldrbvs	r7, [r3, #-613]!	; 0xfffffd9b
 6e0:	72747300 	rsbsvc	r7, r4, #0, 6
 6e4:	00706d63 	rsbseq	r6, r0, r3, ror #26
 6e8:	73747570 	cmnvc	r4, #112, 10	; 0x1c000000
 6ec:	0070665f 	rsbseq	r6, r0, pc, asr r6
 6f0:	72705f5f 	rsbsvc	r5, r0, #380	; 0x17c
 6f4:	655f676f 	ldrbvs	r6, [pc, #-1903]	; ffffff8d <__bss_end__+0xffff4ee5>
 6f8:	5f5f646e 	svcpl	0x005f646e
 6fc:	6d756e00 	ldclvs	14, cr6, [r5, #-0]
 700:	74730031 	ldrbtvc	r0, [r3], #-49	; 0xffffffcf
 704:	6d636e72 	stclvs	14, cr6, [r3, #-456]!	; 0xfffffe38
 708:	69730070 	ldmdbvs	r3!, {r4, r5, r6}^
 70c:	64656e67 	strbtvs	r6, [r5], #-3687	; 0xfffff199
 710:	7200705f 	andvc	r7, r0, #95, 0	; 0x5f
 714:	725f6970 	subsvc	r6, pc, #112, 18	; 0x1c0000
 718:	6f6f6265 	svcvs	0x006f6265
 71c:	65640074 	strbvs	r0, [r4, #-116]!	; 0xffffff8c
 720:	5f79616c 	svcpl	0x0079616c
 724:	2e00736d 	cdpcs	3, 0, cr7, cr0, cr13, {3}
 728:	6174732f 	cmnvs	r4, pc, lsr #6
 72c:	732d6666 			; <UNDEFINED> instruction: 0x732d6666
 730:	632f6372 			; <UNDEFINED> instruction: 0x632f6372
 734:	6e61656c 	cdpvs	5, 6, cr6, cr1, cr12, {3}
 738:	6265722d 	rsbvs	r7, r5, #-805306366	; 0xd0000002
 73c:	2e746f6f 	cdpcs	15, 7, cr6, cr4, cr15, {3}
 740:	61750063 	cmnvs	r5, r3, rrx
 744:	665f7472 			; <UNDEFINED> instruction: 0x665f7472
 748:	6873756c 	ldmdavs	r3!, {r2, r3, r5, r6, r8, sl, ip, sp, lr}^
 74c:	0078745f 	rsbseq	r7, r8, pc, asr r4
 750:	7473635f 	ldrbtvc	r6, [r3], #-863	; 0xfffffca1
 754:	00747261 	rsbseq	r7, r4, r1, ror #4
 758:	5f737362 	svcpl	0x00737362
 75c:	00646e65 	rsbeq	r6, r4, r5, ror #28
 760:	74726175 	ldrbtvc	r6, [r2], #-373	; 0xfffffe8b
 764:	696e695f 	stmdbvs	lr!, {r0, r1, r2, r3, r4, r6, r8, fp, sp, lr}^
 768:	75630074 	strbvc	r0, [r3, #-116]!	; 0xffffff8c
 76c:	6d6f7473 	cfstrdvs	mvd7, [pc, #-460]!	; 5a8 <__code_start__-0x7a58>
 770:	616f6c5f 	cmnvs	pc, pc, asr ip	; <UNPREDICTABLE>
 774:	00726564 	rsbseq	r6, r2, r4, ror #10
 778:	74732f2e 	ldrbtvc	r2, [r3], #-3886	; 0xfffff0d2
 77c:	2d666661 	stclcs	6, cr6, [r6, #-388]!	; 0xfffffe7c
 780:	2f637273 	svccs	0x00637273
 784:	61747363 	cmnvs	r4, r3, ror #6
 788:	632e7472 			; <UNDEFINED> instruction: 0x632e7472
 78c:	732f2e00 			; <UNDEFINED> instruction: 0x732f2e00
 790:	66666174 			; <UNDEFINED> instruction: 0x66666174
 794:	6372732d 	cmnvs	r2, #-1275068416	; 0xb4000000
 798:	7375632f 	cmnvc	r5, #-1140850688	; 0xbc000000
 79c:	2d6d6f74 	stclcs	15, cr6, [sp, #-464]!	; 0xfffffe30
 7a0:	64616f6c 	strbtvs	r6, [r1], #-3948	; 0xfffff094
 7a4:	632e7265 			; <UNDEFINED> instruction: 0x632e7265
 7a8:	62657200 	rsbvs	r7, r5, #0, 4
 7ac:	5f746f6f 	svcpl	0x00746f6f
 7b0:	6c6c6163 	stfvse	f6, [ip], #-396	; 0xfffffe74
 7b4:	0074756f 	rsbseq	r7, r4, pc, ror #10
 7b8:	575f4d50 			; <UNDEFINED> instruction: 0x575f4d50
 7bc:	00474f44 	subeq	r4, r7, r4, asr #30
 7c0:	33545550 	cmpcc	r4, #80, 10	; 0x14000000
 7c4:	65730032 	ldrbvs	r0, [r3, #-50]!	; 0xffffffce
 7c8:	73755f74 	cmnvc	r5, #116, 30	; 0x1d0
 7cc:	6c5f7265 	lfmvs	f7, 2, [pc], {101}	; 0x65
 7d0:	6c657665 	stclvs	6, cr7, [r5], #-404	; 0xfffffe6c
 7d4:	732f2e00 			; <UNDEFINED> instruction: 0x732f2e00
 7d8:	66666174 			; <UNDEFINED> instruction: 0x66666174
 7dc:	6372732d 	cmnvs	r2, #-1275068416	; 0xb4000000
 7e0:	6265722f 	rsbvs	r7, r5, #-268435454	; 0xf0000002
 7e4:	2e746f6f 	cdpcs	15, 7, cr6, cr4, cr15, {3}
 7e8:	4d500063 	ldclmi	0, cr0, [r0, #-396]	; 0xfffffe74
 7ec:	5341505f 	movtpl	r5, #4191	; 0x105f
 7f0:	524f5753 	subpl	r5, pc, #21757952	; 0x14c0000
 7f4:	74610044 	strbtvc	r0, [r1], #-68	; 0xffffffbc
 7f8:	6573755f 	ldrbvs	r7, [r3, #-1375]!	; 0xfffffaa1
 7fc:	656c5f72 	strbvs	r5, [ip, #-3954]!	; 0xfffff08e
 800:	006c6576 	rsbeq	r6, ip, r6, ror r5
 804:	525f4d50 	subspl	r4, pc, #80, 26	; 0x1400
 808:	5f435453 	svcpl	0x00435453
 80c:	46435257 			; <UNDEFINED> instruction: 0x46435257
 810:	55465f47 	strbpl	r5, [r6, #-3911]	; 0xfffff0b9
 814:	525f4c4c 	subspl	r4, pc, #76, 24	; 0x4c00
 818:	54455345 	strbpl	r5, [r5], #-837	; 0xfffffcbb
 81c:	5f4d5000 	svcpl	0x004d5000
 820:	43545352 	cmpmi	r4, #1207959553	; 0x48000001
 824:	73706300 	cmnvc	r0, #0, 6
 828:	65640072 	strbvs	r0, [r4, #-114]!	; 0xffffff8e
 82c:	61625f76 	smcvs	9718	; 0x25f6
 830:	65697272 	strbvs	r7, [r9, #-626]!	; 0xfffffd8e
 834:	65640072 	strbvs	r0, [r4, #-114]!	; 0xffffff8e
 838:	5f79616c 	svcpl	0x0079616c
 83c:	00636573 	rsbeq	r6, r3, r3, ror r5
 840:	74732f2e 	ldrbtvc	r2, [r3], #-3886	; 0xfffff0d2
 844:	2d666661 	stclcs	6, cr6, [r6, #-388]!	; 0xfffffe7c
 848:	2f637273 	svccs	0x00637273
 84c:	656d6974 	strbvs	r6, [sp, #-2420]!	; 0xfffff68c
 850:	00632e72 	rsbeq	r2, r3, r2, ror lr
 854:	33544547 	cmpcc	r4, #297795584	; 0x11c00000
 858:	69740032 	ldmdbvs	r4!, {r1, r4, r5}^
 85c:	5f72656d 	svcpl	0x0072656d
 860:	5f746567 	svcpl	0x00746567
 864:	63657375 	cmnvs	r5, #-738197503	; 0xd4000001
 868:	6c656400 	cfstrdvs	mvd6, [r5], #-0
 86c:	755f7961 	ldrbvc	r7, [pc, #-2401]	; ffffff13 <__bss_end__+0xffff4e6b>
 870:	69740073 	ldmdbvs	r4!, {r0, r1, r4, r5, r6}^
 874:	5f72656d 	svcpl	0x0072656d
 878:	5f746567 	svcpl	0x00746567
 87c:	63657375 	cmnvs	r5, #-738197503	; 0xd4000001
 880:	7761725f 			; <UNDEFINED> instruction: 0x7761725f
 884:	74757000 	ldrbtvc	r7, [r5], #-0
 888:	62003233 	andvs	r3, r0, #805306371	; 0x30000003
 88c:	5f647561 	svcpl	0x00647561
 890:	006c6176 	rsbeq	r6, ip, r6, ror r1
 894:	74617473 	strbtvc	r7, [r1], #-1139	; 0xfffffb8d
 898:	72617500 	rsbvc	r7, r1, #0, 10
 89c:	61635f74 	smcvs	13812	; 0x35f4
 8a0:	65675f6e 	strbvs	r5, [r7, #-3950]!	; 0xfffff092
 8a4:	47006374 	smlsdxmi	r0, r4, r3, r6
 8a8:	5f4f4950 	svcpl	0x004f4950
 8ac:	434e5546 	movtmi	r5, #58694	; 0xe546
 8b0:	54554f5f 	ldrbpl	r4, [r5], #-3935	; 0xfffff0a1
 8b4:	00545550 	subseq	r5, r4, r0, asr r5
 8b8:	5f787561 	svcpl	0x00787561
 8bc:	69726570 	ldmdbvs	r2!, {r4, r5, r6, r8, sl, sp, lr}^
 8c0:	00736870 	rsbseq	r6, r3, r0, ror r8
 8c4:	74726175 	ldrbtvc	r6, [r2], #-373	; 0xfffffe8b
 8c8:	7500632e 	strvc	r6, [r0, #-814]	; 0xfffffcd2
 8cc:	5f747261 	svcpl	0x00747261
 8d0:	5f6e6163 	svcpl	0x006e6163
 8d4:	63747570 	cmnvs	r4, #112, 10	; 0x1c000000
 8d8:	72617500 	rsbvc	r7, r1, #0, 10
 8dc:	78745f74 	ldmdavc	r4!, {r2, r4, r5, r6, r8, r9, sl, fp, ip, lr}^
 8e0:	5f73695f 	svcpl	0x0073695f
 8e4:	74706d65 	ldrbtvc	r6, [r0], #-3429	; 0xfffff29b
 8e8:	50470079 	subpl	r0, r7, r9, ror r0
 8ec:	465f4f49 	ldrbmi	r4, [pc], -r9, asr #30
 8f0:	5f434e55 	svcpl	0x00434e55
 8f4:	30544c41 	subscc	r4, r4, r1, asr #24
 8f8:	49504700 	ldmdbmi	r0, {r8, r9, sl, lr}^
 8fc:	55465f4f 	strbpl	r5, [r6, #-3919]	; 0xfffff0b1
 900:	415f434e 	cmpmi	pc, lr, asr #6
 904:	0031544c 	eorseq	r5, r1, ip, asr #8
 908:	4f495047 	svcmi	0x00495047
 90c:	4e55465f 	mrcmi	6, 2, r4, cr5, cr15, {2}
 910:	4c415f43 	mcrrmi	15, 4, r5, r1, cr3
 914:	47003254 	smlsdmi	r0, r4, r2, r3
 918:	5f4f4950 	svcpl	0x004f4950
 91c:	434e5546 	movtmi	r5, #58694	; 0xe546
 920:	544c415f 	strbpl	r4, [ip], #-351	; 0xfffffea1
 924:	50470033 	subpl	r0, r7, r3, lsr r0
 928:	465f4f49 	ldrbmi	r4, [pc], -r9, asr #30
 92c:	5f434e55 	svcpl	0x00434e55
 930:	35544c41 	ldrbcc	r4, [r4, #-3137]	; 0xfffff3bf
 934:	6f682f00 	svcvs	0x00682f00
 938:	652f656d 	strvs	r6, [pc, #-1389]!	; 3d3 <__code_start__-0x7c2d>
 93c:	656c676e 	strbvs	r6, [ip, #-1902]!	; 0xfffff892
 940:	6c632f72 	stclvs	15, cr2, [r3], #-456	; 0xfffffe38
 944:	2f737361 	svccs	0x00737361
 948:	34327363 	ldrtcc	r7, [r2], #-867	; 0xfffffc9d
 94c:	2d786c30 	ldclcs	12, cr6, [r8, #-192]!	; 0xffffff40
 950:	70733232 	rsbsvc	r3, r3, r2, lsr r2
 954:	696c2f72 	stmdbvs	ip!, {r1, r4, r5, r6, r8, r9, sl, fp, sp}^
 958:	2f697062 	svccs	0x00697062
 95c:	66617473 			; <UNDEFINED> instruction: 0x66617473
 960:	72702d66 	rsbsvc	r2, r0, #6528	; 0x1980
 964:	74617669 	strbtvc	r7, [r1], #-1641	; 0xfffff997
 968:	61620065 	cmnvs	r2, r5, rrx
 96c:	61006475 	tstvs	r0, r5, ror r4
 970:	655f7875 	ldrbvs	r7, [pc, #-2165]	; 103 <__code_start__-0x7efd>
 974:	6c62616e 	stfvse	f6, [r2], #-440	; 0xfffffe48
 978:	75007365 	strvc	r7, [r0, #-869]	; 0xfffffc9b
 97c:	5f747261 	svcpl	0x00747261
 980:	63746567 	cmnvs	r4, #432013312	; 0x19c00000
 984:	554e4700 	strbpl	r4, [lr, #-1792]	; 0xfffff900
 988:	39394320 	ldmdbcc	r9!, {r5, r8, r9, lr}
 98c:	2e303120 	rsfcssp	f3, f0, f0
 990:	20312e33 	eorscs	r2, r1, r3, lsr lr
 994:	31323032 	teqcc	r2, r2, lsr r0
 998:	34323830 	ldrtcc	r3, [r2], #-2096	; 0xfffff7d0
 99c:	65722820 	ldrbvs	r2, [r2, #-2080]!	; 0xfffff7e0
 9a0:	7361656c 	cmnvc	r1, #108, 10	; 0x1b000000
 9a4:	2d202965 			; <UNDEFINED> instruction: 0x2d202965
 9a8:	7570636d 	ldrbvc	r6, [r0, #-877]!	; 0xfffffc93
 9ac:	6d72613d 	ldfvse	f6, [r2, #-244]!	; 0xffffff0c
 9b0:	36373131 			; <UNDEFINED> instruction: 0x36373131
 9b4:	2d667a6a 	vstmdbcs	r6!, {s15-s120}
 9b8:	6d2d2073 	stcvs	0, cr2, [sp, #-460]!	; 0xfffffe34
 9bc:	656e7574 	strbvs	r7, [lr, #-1396]!	; 0xfffffa8c
 9c0:	6d72613d 	ldfvse	f6, [r2, #-244]!	; 0xffffff0c
 9c4:	36373131 			; <UNDEFINED> instruction: 0x36373131
 9c8:	2d667a6a 	vstmdbcs	r6!, {s15-s120}
 9cc:	6d2d2073 	stcvs	0, cr2, [sp, #-460]!	; 0xfffffe34
 9d0:	616f6c66 	cmnvs	pc, r6, ror #24
 9d4:	62612d74 	rsbvs	r2, r1, #116, 26	; 0x1d00
 9d8:	6f733d69 	svcvs	0x00733d69
 9dc:	2d207466 	cfstrscs	mvf7, [r0, #-408]!	; 0xfffffe68
 9e0:	6d72616d 	ldfvse	f6, [r2, #-436]!	; 0xfffffe4c
 9e4:	616d2d20 	cmnvs	sp, r0, lsr #26
 9e8:	3d686372 	stclcc	3, cr6, [r8, #-456]!	; 0xfffffe38
 9ec:	766d7261 	strbtvc	r7, [sp], -r1, ror #4
 9f0:	207a6b36 	rsbscs	r6, sl, r6, lsr fp
 9f4:	6467672d 	strbtvs	r6, [r7], #-1837	; 0xfffff8d3
 9f8:	4f2d2062 	svcmi	0x002d2062
 9fc:	732d2067 			; <UNDEFINED> instruction: 0x732d2067
 a00:	673d6474 			; <UNDEFINED> instruction: 0x673d6474
 a04:	3939756e 	ldmdbcc	r9!, {r1, r2, r3, r5, r6, r8, sl, ip, sp, lr}
 a08:	66662d20 	strbtvs	r2, [r6], -r0, lsr #26
 a0c:	73656572 	cmnvc	r5, #478150656	; 0x1c800000
 a10:	646e6174 	strbtvs	r6, [lr], #-372	; 0xfffffe8c
 a14:	00676e69 	rsbeq	r6, r7, r9, ror #28
 a18:	6c746e63 	ldclvs	14, cr6, [r4], #-396	; 0xfffffe74
 a1c:	72617500 	rsbvc	r7, r1, #0, 10
 a20:	69645f74 	stmdbvs	r4!, {r2, r4, r5, r6, r8, r9, sl, fp, ip, lr}^
 a24:	6c626173 	stfvse	f6, [r2], #-460	; 0xfffffe34
 a28:	61750065 	cmnvs	r5, r5, rrx
 a2c:	685f7472 	ldmdavs	pc, {r1, r4, r5, r6, sl, ip, sp, lr}^	; <UNPREDICTABLE>
 a30:	645f7361 	ldrbvs	r7, [pc], #-865	; a38 <__code_start__-0x75c8>
 a34:	00617461 	rsbeq	r7, r1, r1, ror #8
 a38:	4f495047 	svcmi	0x00495047
 a3c:	4e55465f 	mrcmi	6, 2, r4, cr5, cr15, {2}
 a40:	4c415f43 	mcrrmi	15, 4, r5, r1, cr3
 a44:	6f003454 	svcvs	0x00003454
 a48:	6e695f72 	mcrvs	15, 3, r5, cr9, cr2, {3}
 a4c:	73003233 	movwvc	r3, #563	; 0x233
 a50:	74617263 	strbtvc	r7, [r1], #-611	; 0xfffffd9d
 a54:	75006863 	strvc	r6, [r0, #-2147]	; 0xfffff79d
 a58:	00747261 	rsbseq	r7, r4, r1, ror #4
 a5c:	5f646e61 	svcpl	0x00646e61
 a60:	32336e69 	eorscc	r6, r3, #1680	; 0x690
 a64:	72617500 	rsbvc	r7, r1, #0, 10
 a68:	75705f74 	ldrbvc	r5, [r0, #-3956]!	; 0xfffff08c
 a6c:	47006374 	smlsdxmi	r0, r4, r3, r6
 a70:	5f4f4950 	svcpl	0x004f4950
 a74:	434e5546 	movtmi	r5, #58694	; 0xe546
 a78:	504e495f 	subpl	r4, lr, pc, asr r9
 a7c:	67005455 	smlsdvs	r0, r5, r4, r5
 a80:	5f6f6970 	svcpl	0x006f6970
 a84:	5f746573 	svcpl	0x00746573
 a88:	636e7566 	cmnvs	lr, #427819008	; 0x19800000
 a8c:	6e6f6974 			; <UNDEFINED> instruction: 0x6e6f6974
 a90:	74656700 	strbtvc	r6, [r5], #-1792	; 0xfffff900
 a94:	6b003233 	blvs	d368 <__bss_end__+0x22c0>
 a98:	6c6c616d 	stfvse	f6, [ip], #-436	; 0xfffffe4c
 a9c:	685f636f 	ldmdavs	pc, {r0, r1, r2, r3, r5, r6, r8, r9, sp, lr}^	; <UNPREDICTABLE>
 aa0:	5f706165 	svcpl	0x00706165
 aa4:	72617473 	rsbvc	r7, r1, #1929379840	; 0x73000000
 aa8:	616d0074 	smcvs	53252	; 0xd004
 aac:	626e5f78 	rsbvs	r5, lr, #120, 30	; 0x1e0
 ab0:	73657479 	cmnvc	r5, #2030043136	; 0x79000000
 ab4:	64615f00 	strbtvs	r5, [r1], #-3840	; 0xfffff100
 ab8:	68007264 	stmdavs	r0, {r2, r5, r6, r9, ip, sp, lr}
 abc:	5f706165 	svcpl	0x00706165
 ac0:	0078616d 	rsbseq	r6, r8, sp, ror #2
 ac4:	6572666b 	ldrbvs	r6, [r2, #-1643]!	; 0xfffff995
 ac8:	6c615f65 	stclvs	15, cr5, [r1], #-404	; 0xfffffe6c
 acc:	6f72006c 	svcvs	0x0072006c
 ad0:	75646e75 	strbvc	r6, [r4, #-3701]!	; 0xfffff18b
 ad4:	666b0070 			; <UNDEFINED> instruction: 0x666b0070
 ad8:	5f656572 	svcpl	0x00656572
 adc:	00706f70 	rsbseq	r6, r0, r0, ror pc
 ae0:	67696c61 	strbvs	r6, [r9, -r1, ror #24]!
 ae4:	6e656d6e 	cdpvs	13, 6, cr6, cr5, cr14, {3}
 ae8:	616d0074 	smcvs	53252	; 0xd004
 aec:	33755f78 	cmncc	r5, #120, 30	; 0x1e0
 af0:	6e4f0032 	mcrvs	0, 2, r0, cr15, cr2, {1}
 af4:	00424d65 	subeq	r4, r2, r5, ror #26
 af8:	6c616d6b 	stclvs	13, cr6, [r1], #-428	; 0xfffffe54
 afc:	5f636f6c 	svcpl	0x00636f6c
 b00:	70616568 	rsbvc	r6, r1, r8, ror #10
 b04:	646e655f 	strbtvs	r6, [lr], #-1375	; 0xfffffaa1
 b08:	616d6b00 	cmnvs	sp, r0, lsl #22
 b0c:	636f6c6c 	cmnvs	pc, #108, 24	; 0x6c00
 b10:	746f6e5f 	strbtvc	r6, [pc], #-3679	; b18 <__code_start__-0x74e8>
 b14:	6f72657a 	svcvs	0x0072657a
 b18:	5f736900 	svcpl	0x00736900
 b1c:	32776f70 	rsbscc	r6, r7, #112, 30	; 0x1c0
 b20:	616d6b00 	cmnvs	sp, r0, lsl #22
 b24:	636f6c6c 	cmnvs	pc, #108, 24	; 0x6c00
 b28:	6b00632e 	blvs	197e8 <__bss_end__+0xe740>
 b2c:	6c6c616d 	stfvse	f6, [ip], #-436	; 0xfffffe4c
 b30:	695f636f 	ldmdbvs	pc, {r0, r1, r2, r3, r5, r6, r8, r9, sp, lr}^	; <UNPREDICTABLE>
 b34:	0074696e 	rsbseq	r6, r4, lr, ror #18
 b38:	615f7369 	cmpvs	pc, r9, ror #6
 b3c:	6e67696c 	vnmulvs.f16	s13, s14, s25	; <UNPREDICTABLE>
 b40:	6b006465 	blvs	19cdc <__bss_end__+0xec34>
 b44:	6c6c616d 	stfvse	f6, [ip], #-436	; 0xfffffe4c
 b48:	685f636f 	ldmdavs	pc, {r0, r1, r2, r3, r5, r6, r8, r9, sp, lr}^	; <UNPREDICTABLE>
 b4c:	5f706165 	svcpl	0x00706165
 b50:	00727470 	rsbseq	r7, r2, r0, ror r4
 b54:	5f697072 	svcpl	0x00697072
 b58:	65736572 	ldrbvs	r6, [r3, #-1394]!	; 0xfffffa8e
 b5c:	75705f74 	ldrbvc	r5, [r0, #-3956]!	; 0xfffff08c
 b60:	6b006374 	blvs	19938 <__bss_end__+0xe890>
 b64:	6c6c616d 	stfvse	f6, [ip], #-436	; 0xfffffe4c
 b68:	615f636f 	cmpvs	pc, pc, ror #6
 b6c:	6e67696c 	vnmulvs.f16	s13, s14, s25	; <UNPREDICTABLE>
 b70:	67006465 	strvs	r6, [r0, -r5, ror #8]
 b74:	5f6f6970 	svcpl	0x006f6970
 b78:	30726c63 	rsbscc	r6, r2, r3, ror #24
 b7c:	69706700 	ldmdbvs	r0!, {r8, r9, sl, sp, lr}^
 b80:	65735f6f 	ldrbvs	r5, [r3, #-3951]!	; 0xfffff091
 b84:	67003074 	smlsdxvs	r0, r4, r0, r3
 b88:	5f6f6970 	svcpl	0x006f6970
 b8c:	74697277 	strbtvc	r7, [r9], #-631	; 0xfffffd89
 b90:	45440065 	strbmi	r0, [r4, #-101]	; 0xffffff9b
 b94:	41565f56 	cmpmi	r6, r6, asr pc
 b98:	0032334c 	eorseq	r3, r2, ip, asr #6
 b9c:	6f697067 	svcvs	0x00697067
 ba0:	6165725f 	cmnvs	r5, pc, asr r2
 ba4:	2f2e0064 	svccs	0x002e0064
 ba8:	2f637273 	svccs	0x00637273
 bac:	6f697067 	svcvs	0x00697067
 bb0:	6700632e 	strvs	r6, [r0, -lr, lsr #6]
 bb4:	5f6f6970 	svcpl	0x006f6970
 bb8:	5f746573 	svcpl	0x00746573
 bbc:	75706e69 	ldrbvc	r6, [r0, #-3689]!	; 0xfffff197
 bc0:	70670074 	rsbvc	r0, r7, r4, ror r0
 bc4:	735f6f69 	cmpvc	pc, #420	; 0x1a4
 bc8:	6f5f7465 	svcvs	0x005f7465
 bcc:	67006666 	strvs	r6, [r0, -r6, ror #12]
 bd0:	5f6f6970 	svcpl	0x006f6970
 bd4:	5f746573 	svcpl	0x00746573
 bd8:	7074756f 	rsbsvc	r7, r4, pc, ror #10
 bdc:	67007475 	smlsdxvs	r0, r5, r4, r7
 be0:	5f6f6970 	svcpl	0x006f6970
 be4:	636e7566 	cmnvs	lr, #427819008	; 0x19800000
 be8:	6700745f 	smlsdvs	r0, pc, r4, r7	; <UNPREDICTABLE>
 bec:	5f6f6970 	svcpl	0x006f6970
 bf0:	3076656c 	rsbscc	r6, r6, ip, ror #10
 bf4:	6e616200 	cdpvs	2, 6, cr6, cr1, cr0, {0}
 bf8:	7067006b 	rsbvc	r0, r7, fp, rrx
 bfc:	735f6f69 	cmpvc	pc, #420	; 0x1a4
 c00:	6f5f7465 	svcvs	0x005f7465
 c04:	6e69006e 	cdpvs	0, 6, cr0, cr9, cr14, {3}
 c08:	6e726574 	mrcvs	5, 3, r6, cr2, cr4, {3}
 c0c:	705f6c61 	subsvc	r6, pc, r1, ror #24
 c10:	68637475 	stmdavs	r3!, {r0, r2, r4, r5, r6, sl, ip, sp, lr}^
 c14:	72007261 	andvc	r7, r0, #268435462	; 0x10000006
 c18:	735f6970 	cmpvc	pc, #112, 18	; 0x1c0000
 c1c:	705f7465 	subsvc	r7, pc, r5, ror #8
 c20:	00637475 	rsbeq	r7, r3, r5, ror r4
 c24:	696c2f2e 	stmdbvs	ip!, {r1, r2, r3, r5, r8, r9, sl, fp, sp}^
 c28:	702f6362 	eorvc	r6, pc, r2, ror #6
 c2c:	68637475 	stmdavs	r3!, {r0, r2, r4, r5, r6, sl, ip, sp, lr}^
 c30:	632e7261 			; <UNDEFINED> instruction: 0x632e7261
 c34:	6c2f2e00 	stcvs	14, cr2, [pc], #-0	; c3c <__code_start__-0x73c4>
 c38:	2f636269 	svccs	0x00636269
 c3c:	63727473 	cmnvs	r2, #1929379840	; 0x73000000
 c40:	632e7461 			; <UNDEFINED> instruction: 0x632e7461
 c44:	73656400 	cmnvc	r5, #0, 8
 c48:	2f2e0074 	svccs	0x002e0074
 c4c:	6362696c 	cmnvs	r2, #108, 18	; 0x1b0000
 c50:	7274732f 	rsbsvc	r7, r4, #-1140850688	; 0xbc000000
 c54:	2e706d63 	cdpcs	13, 7, cr6, cr0, cr3, {3}
 c58:	2f2e0063 	svccs	0x002e0063
 c5c:	6362696c 	cmnvs	r2, #108, 18	; 0x1b0000
 c60:	7274732f 	rsbsvc	r7, r4, #-1140850688	; 0xbc000000
 c64:	2e797063 	cdpcs	0, 7, cr7, cr9, cr3, {3}
 c68:	2f2e0063 	svccs	0x002e0063
 c6c:	6362696c 	cmnvs	r2, #108, 18	; 0x1b0000
 c70:	7274732f 	rsbsvc	r7, r4, #-1140850688	; 0xbc000000
 c74:	706d636e 	rsbvc	r6, sp, lr, ror #6
 c78:	2e00632e 	cdpcs	3, 0, cr6, cr0, cr14, {1}
 c7c:	6174732f 	cmnvs	r4, pc, lsr #6
 c80:	732d6666 			; <UNDEFINED> instruction: 0x732d6666
 c84:	642f6372 	strtvs	r6, [pc], #-882	; c8c <__code_start__-0x7374>
 c88:	75616665 	strbvc	r6, [r1, #-1637]!	; 0xfffff99b
 c8c:	722d746c 	eorvc	r7, sp, #108, 8	; 0x6c000000
 c90:	6f6f6265 	svcvs	0x006f6265
 c94:	61632d74 	smcvs	13012	; 0x32d4
 c98:	756f6c6c 	strbvc	r6, [pc, #-3180]!	; 34 <__code_start__-0x7fcc>
 c9c:	00632e74 	rsbeq	r2, r3, r4, ror lr

Disassembly of section .debug_frame:

00000000 <.debug_frame>:
   0:	0000000c 	andeq	r0, r0, ip
   4:	ffffffff 			; <UNDEFINED> instruction: 0xffffffff
   8:	7c020001 	stcvc	0, cr0, [r2], {1}
   c:	000d0c0e 	andeq	r0, sp, lr, lsl #24
  10:	0000002c 	andeq	r0, r0, ip, lsr #32
  14:	00000000 	andeq	r0, r0, r0
  18:	00008038 	andeq	r8, r0, r8, lsr r0
  1c:	000000e8 	andeq	r0, r0, r8, ror #1
  20:	84140e42 	ldrhi	r0, [r4], #-3650	; 0xfffff1be
  24:	86048505 	strhi	r8, [r4], -r5, lsl #10
  28:	8e028703 	cdphi	7, 0, cr8, cr2, cr3, {0}
  2c:	480e4401 	stmdami	lr, {r0, sl, lr}
  30:	0e0a5202 	cdpeq	2, 0, cr5, cr10, cr2, {0}
  34:	c7ce4214 	bfigt	r4, r4, #4, #11
  38:	0ec4c5c6 	cdpeq	5, 12, cr12, cr4, cr6, {6}
  3c:	000b4200 	andeq	r4, fp, r0, lsl #4
  40:	0000000c 	andeq	r0, r0, ip
  44:	ffffffff 			; <UNDEFINED> instruction: 0xffffffff
  48:	7c020001 	stcvc	0, cr0, [r2], {1}
  4c:	000d0c0e 	andeq	r0, sp, lr, lsl #24
  50:	0000000c 	andeq	r0, r0, ip
  54:	00000040 	andeq	r0, r0, r0, asr #32
  58:	00008120 	andeq	r8, r0, r0, lsr #2
  5c:	00000010 	andeq	r0, r0, r0, lsl r0
  60:	0000000c 	andeq	r0, r0, ip
  64:	00000040 	andeq	r0, r0, r0, asr #32
  68:	00008130 	andeq	r8, r0, r0, lsr r1
  6c:	0000000c 	andeq	r0, r0, ip
  70:	0000000c 	andeq	r0, r0, ip
  74:	00000040 	andeq	r0, r0, r0, asr #32
  78:	0000813c 	andeq	r8, r0, ip, lsr r1
  7c:	00000008 	andeq	r0, r0, r8
  80:	0000000c 	andeq	r0, r0, ip
  84:	00000040 	andeq	r0, r0, r0, asr #32
  88:	00008144 	andeq	r8, r0, r4, asr #2
  8c:	00000010 	andeq	r0, r0, r0, lsl r0
  90:	0000000c 	andeq	r0, r0, ip
  94:	00000040 	andeq	r0, r0, r0, asr #32
  98:	00008154 	andeq	r8, r0, r4, asr r1
  9c:	00000024 	andeq	r0, r0, r4, lsr #32
  a0:	00000014 	andeq	r0, r0, r4, lsl r0
  a4:	00000040 	andeq	r0, r0, r0, asr #32
  a8:	00008178 	andeq	r8, r0, r8, ror r1
  ac:	00000078 	andeq	r0, r0, r8, ror r0
  b0:	84080e44 	strhi	r0, [r8], #-3652	; 0xfffff1bc
  b4:	00018e02 	andeq	r8, r1, r2, lsl #28
  b8:	0000002c 	andeq	r0, r0, ip, lsr #32
  bc:	00000040 	andeq	r0, r0, r0, asr #32
  c0:	000081f0 	strdeq	r8, [r0], -r0
  c4:	000001d8 	ldrdeq	r0, [r0], -r8
  c8:	84140e42 	ldrhi	r0, [r4], #-3650	; 0xfffff1be
  cc:	86048505 	strhi	r8, [r4], -r5, lsl #10
  d0:	8e028703 	cdphi	7, 0, cr8, cr2, cr3, {0}
  d4:	300e4401 	andcc	r4, lr, r1, lsl #8
  d8:	0e0a8802 	cdpeq	8, 0, cr8, cr10, cr2, {0}
  dc:	c7ce4214 	bfigt	r4, r4, #4, #11
  e0:	0ec4c5c6 	cdpeq	5, 12, cr12, cr4, cr6, {6}
  e4:	000b4200 	andeq	r4, fp, r0, lsl #4
  e8:	00000024 	andeq	r0, r0, r4, lsr #32
  ec:	00000040 	andeq	r0, r0, r0, asr #32
  f0:	000083c8 	andeq	r8, r0, r8, asr #7
  f4:	000000f4 	strdeq	r0, [r0], -r4
  f8:	84100e42 	ldrhi	r0, [r0], #-3650	; 0xfffff1be
  fc:	86038504 	strhi	r8, [r3], -r4, lsl #10
 100:	42018e02 	andmi	r8, r1, #2, 28
 104:	5802200e 	stmdapl	r2, {r1, r2, r3, sp}
 108:	42100e0a 	andsmi	r0, r0, #160	; 0xa0
 10c:	0000000b 	andeq	r0, r0, fp
 110:	0000000c 	andeq	r0, r0, ip
 114:	ffffffff 			; <UNDEFINED> instruction: 0xffffffff
 118:	7c020001 	stcvc	0, cr0, [r2], {1}
 11c:	000d0c0e 	andeq	r0, sp, lr, lsl #24
 120:	00000014 	andeq	r0, r0, r4, lsl r0
 124:	00000110 	andeq	r0, r0, r0, lsl r1
 128:	000084bc 			; <UNDEFINED> instruction: 0x000084bc
 12c:	00000088 	andeq	r0, r0, r8, lsl #1
 130:	84080e42 	strhi	r0, [r8], #-3650	; 0xfffff1be
 134:	00018e02 	andeq	r8, r1, r2, lsl #28
 138:	0000001c 	andeq	r0, r0, ip, lsl r0
 13c:	00000110 	andeq	r0, r0, r0, lsl r1
 140:	00008544 	andeq	r8, r0, r4, asr #10
 144:	00000100 	andeq	r0, r0, r0, lsl #2
 148:	84180e42 	ldrhi	r0, [r8], #-3650	; 0xfffff1be
 14c:	86058506 	strhi	r8, [r5], -r6, lsl #10
 150:	88038704 	stmdahi	r3, {r2, r8, r9, sl, pc}
 154:	00018e02 	andeq	r8, r1, r2, lsl #28
 158:	0000000c 	andeq	r0, r0, ip
 15c:	ffffffff 			; <UNDEFINED> instruction: 0xffffffff
 160:	7c020001 	stcvc	0, cr0, [r2], {1}
 164:	000d0c0e 	andeq	r0, sp, lr, lsl #24
 168:	0000002c 	andeq	r0, r0, ip, lsr #32
 16c:	00000158 	andeq	r0, r0, r8, asr r1
 170:	00008644 	andeq	r8, r0, r4, asr #12
 174:	0000015c 	andeq	r0, r0, ip, asr r1
 178:	84240e42 	strthi	r0, [r4], #-3650	; 0xfffff1be
 17c:	86088509 	strhi	r8, [r8], -r9, lsl #10
 180:	88068707 	stmdahi	r6, {r0, r1, r2, r8, r9, sl, pc}
 184:	8a048905 	bhi	1225a0 <__bss_end__+0x1174f8>
 188:	8e028b03 	vmlahi.f64	d8, d2, d3
 18c:	300e4801 	andcc	r4, lr, r1, lsl #16
 190:	0e0a6402 	cdpeq	4, 0, cr6, cr10, cr2, {0}
 194:	000b4224 	andeq	r4, fp, r4, lsr #4
 198:	0000001c 	andeq	r0, r0, ip, lsl r0
 19c:	00000158 	andeq	r0, r0, r8, asr r1
 1a0:	000087a0 	andeq	r8, r0, r0, lsr #15
 1a4:	000000a4 	andeq	r0, r0, r4, lsr #1
 1a8:	84080e42 	strhi	r0, [r8], #-3650	; 0xfffff1be
 1ac:	42018e02 	andmi	r8, r1, #2, 28
 1b0:	4202480e 	andmi	r4, r2, #917504	; 0xe0000
 1b4:	0000080e 	andeq	r0, r0, lr, lsl #16
 1b8:	00000020 	andeq	r0, r0, r0, lsr #32
 1bc:	00000158 	andeq	r0, r0, r8, asr r1
 1c0:	00008844 	andeq	r8, r0, r4, asr #16
 1c4:	00000120 	andeq	r0, r0, r0, lsr #2
 1c8:	84200e42 	strthi	r0, [r0], #-3650	; 0xfffff1be
 1cc:	86078508 	strhi	r8, [r7], -r8, lsl #10
 1d0:	88058706 	stmdahi	r5, {r1, r2, r8, r9, sl, pc}
 1d4:	8a038904 	bhi	e25ec <__bss_end__+0xd7544>
 1d8:	00018e02 	andeq	r8, r1, r2, lsl #28
 1dc:	00000024 	andeq	r0, r0, r4, lsr #32
 1e0:	00000158 	andeq	r0, r0, r8, asr r1
 1e4:	00008964 	andeq	r8, r0, r4, ror #18
 1e8:	0000009c 	muleq	r0, ip, r0
 1ec:	840c0e42 	strhi	r0, [ip], #-3650	; 0xfffff1be
 1f0:	8e028503 	cfsh32hi	mvfx8, mvfx2, #3
 1f4:	180e4401 	stmdane	lr, {r0, sl, lr}
 1f8:	0c0e0a5c 			; <UNDEFINED> instruction: 0x0c0e0a5c
 1fc:	c4c5ce42 	strbgt	ip, [r5], #3650	; 0xe42
 200:	0b42000e 	bleq	1080240 <__bss_end__+0x1075198>
 204:	0000000c 	andeq	r0, r0, ip
 208:	00000158 	andeq	r0, r0, r8, asr r1
 20c:	00008a00 	andeq	r8, r0, r0, lsl #20
 210:	00000038 	andeq	r0, r0, r8, lsr r0
 214:	00000020 	andeq	r0, r0, r0, lsr #32
 218:	00000158 	andeq	r0, r0, r8, asr r1
 21c:	00008a38 	andeq	r8, r0, r8, lsr sl
 220:	00000124 	andeq	r0, r0, r4, lsr #2
 224:	84200e42 	strthi	r0, [r0], #-3650	; 0xfffff1be
 228:	86078508 	strhi	r8, [r7], -r8, lsl #10
 22c:	88058706 	stmdahi	r5, {r1, r2, r8, r9, sl, pc}
 230:	8a038904 	bhi	e2648 <__bss_end__+0xd75a0>
 234:	00018e02 	andeq	r8, r1, r2, lsl #28
 238:	0000000c 	andeq	r0, r0, ip
 23c:	00000158 	andeq	r0, r0, r8, asr r1
 240:	00008b5c 	andeq	r8, r0, ip, asr fp
 244:	00000004 	andeq	r0, r0, r4
 248:	00000014 	andeq	r0, r0, r4, lsl r0
 24c:	00000158 	andeq	r0, r0, r8, asr r1
 250:	00008b60 	andeq	r8, r0, r0, ror #22
 254:	00000048 	andeq	r0, r0, r8, asr #32
 258:	84080e42 	strhi	r0, [r8], #-3650	; 0xfffff1be
 25c:	00018e02 	andeq	r8, r1, r2, lsl #28
 260:	00000014 	andeq	r0, r0, r4, lsl r0
 264:	00000158 	andeq	r0, r0, r8, asr r1
 268:	00008ba8 	andeq	r8, r0, r8, lsr #23
 26c:	00000050 	andeq	r0, r0, r0, asr r0
 270:	84080e42 	strhi	r0, [r8], #-3650	; 0xfffff1be
 274:	00018e02 	andeq	r8, r1, r2, lsl #28
 278:	0000002c 	andeq	r0, r0, ip, lsr #32
 27c:	00000158 	andeq	r0, r0, r8, asr r1
 280:	00008bf8 	strdeq	r8, [r0], -r8	; <UNPREDICTABLE>
 284:	00000100 	andeq	r0, r0, r0, lsl #2
 288:	84240e42 	strthi	r0, [r4], #-3650	; 0xfffff1be
 28c:	86088509 	strhi	r8, [r8], -r9, lsl #10
 290:	88068707 	stmdahi	r6, {r0, r1, r2, r8, r9, sl, pc}
 294:	8a048905 	bhi	1226b0 <__bss_end__+0x117608>
 298:	8e028b03 	vmlahi.f64	d8, d2, d3
 29c:	380e4201 	stmdacc	lr, {r0, r9, lr}
 2a0:	240e0a7c 	strcs	r0, [lr], #-2684	; 0xfffff584
 2a4:	00000b42 	andeq	r0, r0, r2, asr #22
 2a8:	00000014 	andeq	r0, r0, r4, lsl r0
 2ac:	00000158 	andeq	r0, r0, r8, asr r1
 2b0:	00008cf8 	strdeq	r8, [r0], -r8	; <UNPREDICTABLE>
 2b4:	00000028 	andeq	r0, r0, r8, lsr #32
 2b8:	84080e44 	strhi	r0, [r8], #-3652	; 0xfffff1bc
 2bc:	00018e02 	andeq	r8, r1, r2, lsl #28
 2c0:	0000000c 	andeq	r0, r0, ip
 2c4:	ffffffff 			; <UNDEFINED> instruction: 0xffffffff
 2c8:	7c020001 	stcvc	0, cr0, [r2], {1}
 2cc:	000d0c0e 	andeq	r0, sp, lr, lsl #24
 2d0:	00000014 	andeq	r0, r0, r4, lsl r0
 2d4:	000002c0 	andeq	r0, r0, r0, asr #5
 2d8:	00008d28 	andeq	r8, r0, r8, lsr #26
 2dc:	00000078 	andeq	r0, r0, r8, ror r0
 2e0:	84080e42 	strhi	r0, [r8], #-3650	; 0xfffff1be
 2e4:	00018e02 	andeq	r8, r1, r2, lsl #28
 2e8:	0000000c 	andeq	r0, r0, ip
 2ec:	ffffffff 			; <UNDEFINED> instruction: 0xffffffff
 2f0:	7c020001 	stcvc	0, cr0, [r2], {1}
 2f4:	000d0c0e 	andeq	r0, sp, lr, lsl #24
 2f8:	00000034 	andeq	r0, r0, r4, lsr r0
 2fc:	000002e8 	andeq	r0, r0, r8, ror #5
 300:	00008da0 	andeq	r8, r0, r0, lsr #27
 304:	00000058 	andeq	r0, r0, r8, asr r0
 308:	80100e42 	andshi	r0, r0, r2, asr #28
 30c:	82038104 	andhi	r8, r3, #1
 310:	42018302 	andmi	r8, r1, #134217728	; 0x8000000
 314:	07841c0e 	streq	r1, [r4, lr, lsl #24]
 318:	058e0685 	streq	r0, [lr, #1669]	; 0x685
 31c:	5a280e44 	bpl	a03c34 <__bss_end__+0x9f8b8c>
 320:	ce421c0e 	cdpgt	12, 4, cr1, cr2, cr14, {0}
 324:	100ec4c5 	andne	ip, lr, r5, asr #9
 328:	c1c2c342 	bicgt	ip, r2, r2, asr #6
 32c:	00000ec0 	andeq	r0, r0, r0, asr #29
 330:	0000000c 	andeq	r0, r0, ip
 334:	ffffffff 			; <UNDEFINED> instruction: 0xffffffff
 338:	7c020001 	stcvc	0, cr0, [r2], {1}
 33c:	000d0c0e 	andeq	r0, sp, lr, lsl #24
 340:	00000018 	andeq	r0, r0, r8, lsl r0
 344:	00000330 	andeq	r0, r0, r0, lsr r3
 348:	00008df8 	strdeq	r8, [r0], -r8	; <UNPREDICTABLE>
 34c:	00000038 	andeq	r0, r0, r8, lsr r0
 350:	84100e42 	ldrhi	r0, [r0], #-3650	; 0xfffff1be
 354:	86038504 	strhi	r8, [r3], -r4, lsl #10
 358:	00018e02 	andeq	r8, r1, r2, lsl #28
 35c:	0000000c 	andeq	r0, r0, ip
 360:	ffffffff 			; <UNDEFINED> instruction: 0xffffffff
 364:	7c020001 	stcvc	0, cr0, [r2], {1}
 368:	000d0c0e 	andeq	r0, sp, lr, lsl #24
 36c:	0000000c 	andeq	r0, r0, ip
 370:	0000035c 	andeq	r0, r0, ip, asr r3
 374:	00008e30 	andeq	r8, r0, r0, lsr lr
 378:	00000030 	andeq	r0, r0, r0, lsr r0
 37c:	0000000c 	andeq	r0, r0, ip
 380:	0000035c 	andeq	r0, r0, ip, asr r3
 384:	00008e60 	andeq	r8, r0, r0, ror #28
 388:	00000050 	andeq	r0, r0, r0, asr r0
 38c:	0000000c 	andeq	r0, r0, ip
 390:	0000035c 	andeq	r0, r0, ip, asr r3
 394:	00008eb0 			; <UNDEFINED> instruction: 0x00008eb0
 398:	00000018 	andeq	r0, r0, r8, lsl r0
 39c:	0000000c 	andeq	r0, r0, ip
 3a0:	ffffffff 			; <UNDEFINED> instruction: 0xffffffff
 3a4:	7c020001 	stcvc	0, cr0, [r2], {1}
 3a8:	000d0c0e 	andeq	r0, sp, lr, lsl #24
 3ac:	0000002c 	andeq	r0, r0, ip, lsr #32
 3b0:	0000039c 	muleq	r0, ip, r3
 3b4:	00008ec8 	andeq	r8, r0, r8, asr #29
 3b8:	00000328 	andeq	r0, r0, r8, lsr #6
 3bc:	84180e42 	ldrhi	r0, [r8], #-3650	; 0xfffff1be
 3c0:	86058506 	strhi	r8, [r5], -r6, lsl #10
 3c4:	88038704 	stmdahi	r3, {r2, r8, r9, sl, pc}
 3c8:	46018e02 	strmi	r8, [r1], -r2, lsl #28
 3cc:	c002600e 	andgt	r6, r2, lr
 3d0:	42180e0a 	andsmi	r0, r8, #160	; 0xa0
 3d4:	0a8e020b 	beq	fe380c08 <__bss_end__+0xfe375b60>
 3d8:	0b42180e 	bleq	1086418 <__bss_end__+0x107b370>
 3dc:	00000014 	andeq	r0, r0, r4, lsl r0
 3e0:	0000039c 	muleq	r0, ip, r3
 3e4:	000091f0 	strdeq	r9, [r0], -r0
 3e8:	00000060 	andeq	r0, r0, r0, rrx
 3ec:	8e040e52 	mcrhi	14, 0, r0, cr4, cr2, {2}
 3f0:	100e4401 	andne	r4, lr, r1, lsl #8
 3f4:	0000002c 	andeq	r0, r0, ip, lsr #32
 3f8:	0000039c 	muleq	r0, ip, r3
 3fc:	00009250 	andeq	r9, r0, r0, asr r2
 400:	0000062c 	andeq	r0, r0, ip, lsr #12
 404:	84240e42 	strthi	r0, [r4], #-3650	; 0xfffff1be
 408:	86088509 	strhi	r8, [r8], -r9, lsl #10
 40c:	88068707 	stmdahi	r6, {r0, r1, r2, r8, r9, sl, pc}
 410:	8a048905 	bhi	12282c <__bss_end__+0x117784>
 414:	8e028b03 	vmlahi.f64	d8, d2, d3
 418:	c00e5201 	andgt	r5, lr, r1, lsl #4
 41c:	0a860202 	beq	fe180c2c <__bss_end__+0xfe175b84>
 420:	0b42240e 	bleq	1089460 <__bss_end__+0x107e3b8>
 424:	0000000c 	andeq	r0, r0, ip
 428:	ffffffff 			; <UNDEFINED> instruction: 0xffffffff
 42c:	7c020001 	stcvc	0, cr0, [r2], {1}
 430:	000d0c0e 	andeq	r0, sp, lr, lsl #24
 434:	00000014 	andeq	r0, r0, r4, lsl r0
 438:	00000424 	andeq	r0, r0, r4, lsr #8
 43c:	0000987c 	andeq	r9, r0, ip, ror r8
 440:	0000002c 	andeq	r0, r0, ip, lsr #32
 444:	84080e44 	strhi	r0, [r8], #-3652	; 0xfffff1bc
 448:	00018e02 	andeq	r8, r1, r2, lsl #28
 44c:	0000000c 	andeq	r0, r0, ip
 450:	ffffffff 			; <UNDEFINED> instruction: 0xffffffff
 454:	7c020001 	stcvc	0, cr0, [r2], {1}
 458:	000d0c0e 	andeq	r0, sp, lr, lsl #24
 45c:	00000018 	andeq	r0, r0, r8, lsl r0
 460:	0000044c 	andeq	r0, r0, ip, asr #8
 464:	000098a8 	andeq	r9, r0, r8, lsr #17
 468:	000000f8 	strdeq	r0, [r0], -r8
 46c:	84100e42 	ldrhi	r0, [r0], #-3650	; 0xfffff1be
 470:	86038504 	strhi	r8, [r3], -r4, lsl #10
 474:	00018e02 	andeq	r8, r1, r2, lsl #28
 478:	0000000c 	andeq	r0, r0, ip
 47c:	ffffffff 			; <UNDEFINED> instruction: 0xffffffff
 480:	7c020001 	stcvc	0, cr0, [r2], {1}
 484:	000d0c0e 	andeq	r0, sp, lr, lsl #24
 488:	0000000c 	andeq	r0, r0, ip
 48c:	00000478 	andeq	r0, r0, r8, ror r4
 490:	000099a0 	andeq	r9, r0, r0, lsr #19
 494:	00000004 	andeq	r0, r0, r4
 498:	0000000c 	andeq	r0, r0, ip
 49c:	ffffffff 			; <UNDEFINED> instruction: 0xffffffff
 4a0:	7c020001 	stcvc	0, cr0, [r2], {1}
 4a4:	000d0c0e 	andeq	r0, sp, lr, lsl #24
 4a8:	0000000c 	andeq	r0, r0, ip
 4ac:	00000498 	muleq	r0, r8, r4
 4b0:	000099a4 	andeq	r9, r0, r4, lsr #19
 4b4:	00000018 	andeq	r0, r0, r8, lsl r0
 4b8:	0000000c 	andeq	r0, r0, ip
 4bc:	00000498 	muleq	r0, r8, r4
 4c0:	000099bc 			; <UNDEFINED> instruction: 0x000099bc
 4c4:	00000014 	andeq	r0, r0, r4, lsl r0
 4c8:	00000014 	andeq	r0, r0, r4, lsl r0
 4cc:	00000498 	muleq	r0, r8, r4
 4d0:	000099d0 	ldrdeq	r9, [r0], -r0
 4d4:	00000060 	andeq	r0, r0, r0, rrx
 4d8:	84080e42 	strhi	r0, [r8], #-3650	; 0xfffff1be
 4dc:	00018e02 	andeq	r8, r1, r2, lsl #28
 4e0:	0000000c 	andeq	r0, r0, ip
 4e4:	ffffffff 			; <UNDEFINED> instruction: 0xffffffff
 4e8:	7c020001 	stcvc	0, cr0, [r2], {1}
 4ec:	000d0c0e 	andeq	r0, sp, lr, lsl #24
 4f0:	0000000c 	andeq	r0, r0, ip
 4f4:	000004e0 	andeq	r0, r0, r0, ror #9
 4f8:	00009a30 	andeq	r9, r0, r0, lsr sl
 4fc:	0000000c 	andeq	r0, r0, ip
 500:	00000014 	andeq	r0, r0, r4, lsl r0
 504:	000004e0 	andeq	r0, r0, r0, ror #9
 508:	00009a3c 	andeq	r9, r0, ip, lsr sl
 50c:	00000024 	andeq	r0, r0, r4, lsr #32
 510:	84080e42 	strhi	r0, [r8], #-3650	; 0xfffff1be
 514:	00018e02 	andeq	r8, r1, r2, lsl #28
 518:	0000001c 	andeq	r0, r0, ip, lsl r0
 51c:	000004e0 	andeq	r0, r0, r0, ror #9
 520:	00009a60 	andeq	r9, r0, r0, ror #20
 524:	00000048 	andeq	r0, r0, r8, asr #32
 528:	84180e42 	ldrhi	r0, [r8], #-3650	; 0xfffff1be
 52c:	86058506 	strhi	r8, [r5], -r6, lsl #10
 530:	88038704 	stmdahi	r3, {r2, r8, r9, sl, pc}
 534:	00018e02 	andeq	r8, r1, r2, lsl #28
 538:	0000001c 	andeq	r0, r0, ip, lsl r0
 53c:	000004e0 	andeq	r0, r0, r0, ror #9
 540:	00009aa8 	andeq	r9, r0, r8, lsr #21
 544:	00000050 	andeq	r0, r0, r0, asr r0
 548:	84180e42 	ldrhi	r0, [r8], #-3650	; 0xfffff1be
 54c:	86058506 	strhi	r8, [r5], -r6, lsl #10
 550:	88038704 	stmdahi	r3, {r2, r8, r9, sl, pc}
 554:	00018e02 	andeq	r8, r1, r2, lsl #28
 558:	0000001c 	andeq	r0, r0, ip, lsl r0
 55c:	000004e0 	andeq	r0, r0, r0, ror #9
 560:	00009af8 	strdeq	r9, [r0], -r8
 564:	00000054 	andeq	r0, r0, r4, asr r0
 568:	84180e42 	ldrhi	r0, [r8], #-3650	; 0xfffff1be
 56c:	86058506 	strhi	r8, [r5], -r6, lsl #10
 570:	88038704 	stmdahi	r3, {r2, r8, r9, sl, pc}
 574:	00018e02 	andeq	r8, r1, r2, lsl #28
 578:	0000000c 	andeq	r0, r0, ip
 57c:	ffffffff 			; <UNDEFINED> instruction: 0xffffffff
 580:	7c020001 	stcvc	0, cr0, [r2], {1}
 584:	000d0c0e 	andeq	r0, sp, lr, lsl #24
 588:	00000018 	andeq	r0, r0, r8, lsl r0
 58c:	00000578 	andeq	r0, r0, r8, ror r5
 590:	00009b4c 	andeq	r9, r0, ip, asr #22
 594:	00000020 	andeq	r0, r0, r0, lsr #32
 598:	84100e42 	ldrhi	r0, [r0], #-3650	; 0xfffff1be
 59c:	86038504 	strhi	r8, [r3], -r4, lsl #10
 5a0:	00018e02 	andeq	r8, r1, r2, lsl #28
 5a4:	00000018 	andeq	r0, r0, r8, lsl r0
 5a8:	00000578 	andeq	r0, r0, r8, ror r5
 5ac:	00009b6c 	andeq	r9, r0, ip, ror #22
 5b0:	00000020 	andeq	r0, r0, r0, lsr #32
 5b4:	84100e42 	ldrhi	r0, [r0], #-3650	; 0xfffff1be
 5b8:	86038504 	strhi	r8, [r3], -r4, lsl #10
 5bc:	00018e02 	andeq	r8, r1, r2, lsl #28
 5c0:	00000014 	andeq	r0, r0, r4, lsl r0
 5c4:	00000578 	andeq	r0, r0, r8, ror r5
 5c8:	00009b8c 	andeq	r9, r0, ip, lsl #23
 5cc:	000000b0 	strheq	r0, [r0], -r0	; <UNPREDICTABLE>
 5d0:	84080e42 	strhi	r0, [r8], #-3650	; 0xfffff1be
 5d4:	00018e02 	andeq	r8, r1, r2, lsl #28
 5d8:	00000014 	andeq	r0, r0, r4, lsl r0
 5dc:	00000578 	andeq	r0, r0, r8, ror r5
 5e0:	00009c3c 	andeq	r9, r0, ip, lsr ip
 5e4:	00000018 	andeq	r0, r0, r8, lsl r0
 5e8:	84080e42 	strhi	r0, [r8], #-3650	; 0xfffff1be
 5ec:	00018e02 	andeq	r8, r1, r2, lsl #28
 5f0:	00000014 	andeq	r0, r0, r4, lsl r0
 5f4:	00000578 	andeq	r0, r0, r8, ror r5
 5f8:	00009c54 	andeq	r9, r0, r4, asr ip
 5fc:	00000020 	andeq	r0, r0, r0, lsr #32
 600:	84080e42 	strhi	r0, [r8], #-3650	; 0xfffff1be
 604:	00018e02 	andeq	r8, r1, r2, lsl #28
 608:	00000014 	andeq	r0, r0, r4, lsl r0
 60c:	00000578 	andeq	r0, r0, r8, ror r5
 610:	00009c74 	andeq	r9, r0, r4, ror ip
 614:	00000030 	andeq	r0, r0, r0, lsr r0
 618:	84080e42 	strhi	r0, [r8], #-3650	; 0xfffff1be
 61c:	00018e02 	andeq	r8, r1, r2, lsl #28
 620:	00000014 	andeq	r0, r0, r4, lsl r0
 624:	00000578 	andeq	r0, r0, r8, ror r5
 628:	00009ca4 	andeq	r9, r0, r4, lsr #25
 62c:	00000030 	andeq	r0, r0, r0, lsr r0
 630:	84080e42 	strhi	r0, [r8], #-3650	; 0xfffff1be
 634:	00018e02 	andeq	r8, r1, r2, lsl #28
 638:	00000014 	andeq	r0, r0, r4, lsl r0
 63c:	00000578 	andeq	r0, r0, r8, ror r5
 640:	00009cd4 	ldrdeq	r9, [r0], -r4
 644:	00000010 	andeq	r0, r0, r0, lsl r0
 648:	84080e42 	strhi	r0, [r8], #-3650	; 0xfffff1be
 64c:	00018e02 	andeq	r8, r1, r2, lsl #28
 650:	00000014 	andeq	r0, r0, r4, lsl r0
 654:	00000578 	andeq	r0, r0, r8, ror r5
 658:	00009ce4 	andeq	r9, r0, r4, ror #25
 65c:	00000020 	andeq	r0, r0, r0, lsr #32
 660:	84080e42 	strhi	r0, [r8], #-3650	; 0xfffff1be
 664:	00018e02 	andeq	r8, r1, r2, lsl #28
 668:	00000014 	andeq	r0, r0, r4, lsl r0
 66c:	00000578 	andeq	r0, r0, r8, ror r5
 670:	00009d04 	andeq	r9, r0, r4, lsl #26
 674:	00000014 	andeq	r0, r0, r4, lsl r0
 678:	84080e42 	strhi	r0, [r8], #-3650	; 0xfffff1be
 67c:	00018e02 	andeq	r8, r1, r2, lsl #28
 680:	00000014 	andeq	r0, r0, r4, lsl r0
 684:	00000578 	andeq	r0, r0, r8, ror r5
 688:	00009d18 	andeq	r9, r0, r8, lsl sp
 68c:	00000024 	andeq	r0, r0, r4, lsr #32
 690:	84080e42 	strhi	r0, [r8], #-3650	; 0xfffff1be
 694:	00018e02 	andeq	r8, r1, r2, lsl #28
 698:	0000000c 	andeq	r0, r0, ip
 69c:	ffffffff 			; <UNDEFINED> instruction: 0xffffffff
 6a0:	7c020001 	stcvc	0, cr0, [r2], {1}
 6a4:	000d0c0e 	andeq	r0, sp, lr, lsl #24
 6a8:	0000000c 	andeq	r0, r0, ip
 6ac:	00000698 	muleq	r0, r8, r6
 6b0:	00009d3c 	andeq	r9, r0, ip, lsr sp
 6b4:	00000010 	andeq	r0, r0, r0, lsl r0
 6b8:	0000000c 	andeq	r0, r0, ip
 6bc:	00000698 	muleq	r0, r8, r6
 6c0:	00009d4c 	andeq	r9, r0, ip, asr #26
 6c4:	00000010 	andeq	r0, r0, r0, lsl r0
 6c8:	0000000c 	andeq	r0, r0, ip
 6cc:	00000698 	muleq	r0, r8, r6
 6d0:	00009d5c 	andeq	r9, r0, ip, asr sp
 6d4:	00000010 	andeq	r0, r0, r0, lsl r0
 6d8:	0000001c 	andeq	r0, r0, ip, lsl r0
 6dc:	00000698 	muleq	r0, r8, r6
 6e0:	00009d6c 	andeq	r9, r0, ip, ror #26
 6e4:	0000009c 	muleq	r0, ip, r0
 6e8:	8e040e42 	cdphi	14, 0, cr0, cr4, cr2, {2}
 6ec:	100e4201 	andne	r4, lr, r1, lsl #4
 6f0:	040e0a58 	streq	r0, [lr], #-2648	; 0xfffff5a8
 6f4:	00000b42 	andeq	r0, r0, r2, asr #22
 6f8:	00000014 	andeq	r0, r0, r4, lsl r0
 6fc:	00000698 	muleq	r0, r8, r6
 700:	00009e08 	andeq	r9, r0, r8, lsl #28
 704:	00000058 	andeq	r0, r0, r8, asr r0
 708:	84080e42 	strhi	r0, [r8], #-3650	; 0xfffff1be
 70c:	00018e02 	andeq	r8, r1, r2, lsl #28
 710:	0000001c 	andeq	r0, r0, ip, lsl r0
 714:	00000698 	muleq	r0, r8, r6
 718:	00009e60 	andeq	r9, r0, r0, ror #28
 71c:	00000098 	muleq	r0, r8, r0
 720:	8e040e42 	cdphi	14, 0, cr0, cr4, cr2, {2}
 724:	100e4201 	andne	r4, lr, r1, lsl #4
 728:	040e0a58 	streq	r0, [lr], #-2648	; 0xfffff5a8
 72c:	00000b42 	andeq	r0, r0, r2, asr #22
 730:	00000020 	andeq	r0, r0, r0, lsr #32
 734:	00000698 	muleq	r0, r8, r6
 738:	00009ef8 	strdeq	r9, [r0], -r8
 73c:	00000064 	andeq	r0, r0, r4, rrx
 740:	840c0e42 	strhi	r0, [ip], #-3650	; 0xfffff1be
 744:	8e028503 	cfsh32hi	mvfx8, mvfx2, #3
 748:	180e4201 	stmdane	lr, {r0, r9, lr}
 74c:	0c0e0a54 			; <UNDEFINED> instruction: 0x0c0e0a54
 750:	00000b42 	andeq	r0, r0, r2, asr #22
 754:	0000001c 	andeq	r0, r0, ip, lsl r0
 758:	00000698 	muleq	r0, r8, r6
 75c:	00009f5c 	andeq	r9, r0, ip, asr pc
 760:	00000118 	andeq	r0, r0, r8, lsl r1
 764:	8e040e42 	cdphi	14, 0, cr0, cr4, cr2, {2}
 768:	100e4201 	andne	r4, lr, r1, lsl #4
 76c:	040e0a6c 	streq	r0, [lr], #-2668	; 0xfffff594
 770:	00000b42 	andeq	r0, r0, r2, asr #22
 774:	0000000c 	andeq	r0, r0, ip
 778:	00000698 	muleq	r0, r8, r6
 77c:	0000a074 	andeq	sl, r0, r4, ror r0
 780:	00000004 	andeq	r0, r0, r4
 784:	0000000c 	andeq	r0, r0, ip
 788:	00000698 	muleq	r0, r8, r6
 78c:	0000a078 	andeq	sl, r0, r8, ror r0
 790:	00000014 	andeq	r0, r0, r4, lsl r0
 794:	00000014 	andeq	r0, r0, r4, lsl r0
 798:	00000698 	muleq	r0, r8, r6
 79c:	0000a08c 	andeq	sl, r0, ip, lsl #1
 7a0:	00000060 	andeq	r0, r0, r0, rrx
 7a4:	8e040e58 	mcrhi	14, 0, r0, cr4, cr8, {2}
 7a8:	100e4201 	andne	r4, lr, r1, lsl #4
 7ac:	0000000c 	andeq	r0, r0, ip
 7b0:	ffffffff 			; <UNDEFINED> instruction: 0xffffffff
 7b4:	7c020001 	stcvc	0, cr0, [r2], {1}
 7b8:	000d0c0e 	andeq	r0, sp, lr, lsl #24
 7bc:	00000020 	andeq	r0, r0, r0, lsr #32
 7c0:	000007ac 	andeq	r0, r0, ip, lsr #15
 7c4:	0000a0ec 	andeq	sl, r0, ip, ror #1
 7c8:	00000060 	andeq	r0, r0, r0, rrx
 7cc:	84100e48 	ldrhi	r0, [r0], #-3656	; 0xfffff1b8
 7d0:	86038504 	strhi	r8, [r3], -r4, lsl #10
 7d4:	64018e02 	strvs	r8, [r1], #-3586	; 0xfffff1fe
 7d8:	c4c5c6ce 	strbgt	ip, [r5], #1742	; 0x6ce
 7dc:	0000000e 	andeq	r0, r0, lr
 7e0:	00000020 	andeq	r0, r0, r0, lsr #32
 7e4:	000007ac 	andeq	r0, r0, ip, lsr #15
 7e8:	0000a14c 	andeq	sl, r0, ip, asr #2
 7ec:	00000058 	andeq	r0, r0, r8, asr r0
 7f0:	84100e46 	ldrhi	r0, [r0], #-3654	; 0xfffff1ba
 7f4:	86038504 	strhi	r8, [r3], -r4, lsl #10
 7f8:	62018e02 	andvs	r8, r1, #2, 28
 7fc:	c4c5c6ce 	strbgt	ip, [r5], #1742	; 0x6ce
 800:	0000000e 	andeq	r0, r0, lr
 804:	0000000c 	andeq	r0, r0, ip
 808:	000007ac 	andeq	r0, r0, ip, lsr #15
 80c:	0000a1a4 	andeq	sl, r0, r4, lsr #3
 810:	00000018 	andeq	r0, r0, r8, lsl r0
 814:	0000000c 	andeq	r0, r0, ip
 818:	000007ac 	andeq	r0, r0, ip, lsr #15
 81c:	0000a1bc 			; <UNDEFINED> instruction: 0x0000a1bc
 820:	00000018 	andeq	r0, r0, r8, lsl r0
 824:	00000020 	andeq	r0, r0, r0, lsr #32
 828:	000007ac 	andeq	r0, r0, ip, lsr #15
 82c:	0000a1d4 	ldrdeq	sl, [r0], -r4
 830:	00000058 	andeq	r0, r0, r8, asr r0
 834:	84100e46 	ldrhi	r0, [r0], #-3654	; 0xfffff1ba
 838:	86038504 	strhi	r8, [r3], -r4, lsl #10
 83c:	62018e02 	andvs	r8, r1, #2, 28
 840:	c4c5c6ce 	strbgt	ip, [r5], #1742	; 0x6ce
 844:	0000000e 	andeq	r0, r0, lr
 848:	0000000c 	andeq	r0, r0, ip
 84c:	000007ac 	andeq	r0, r0, ip, lsr #15
 850:	0000a22c 	andeq	sl, r0, ip, lsr #4
 854:	00000030 	andeq	r0, r0, r0, lsr r0
 858:	00000014 	andeq	r0, r0, r4, lsl r0
 85c:	000007ac 	andeq	r0, r0, ip, lsr #15
 860:	0000a25c 	andeq	sl, r0, ip, asr r2
 864:	00000028 	andeq	r0, r0, r8, lsr #32
 868:	84080e42 	strhi	r0, [r8], #-3650	; 0xfffff1be
 86c:	00018e02 	andeq	r8, r1, r2, lsl #28
 870:	0000000c 	andeq	r0, r0, ip
 874:	ffffffff 			; <UNDEFINED> instruction: 0xffffffff
 878:	7c020001 	stcvc	0, cr0, [r2], {1}
 87c:	000d0c0e 	andeq	r0, sp, lr, lsl #24
 880:	00000014 	andeq	r0, r0, r4, lsl r0
 884:	00000870 	andeq	r0, r0, r0, ror r8
 888:	0000a284 	andeq	sl, r0, r4, lsl #5
 88c:	00000014 	andeq	r0, r0, r4, lsl r0
 890:	84080e42 	strhi	r0, [r8], #-3650	; 0xfffff1be
 894:	00018e02 	andeq	r8, r1, r2, lsl #28
 898:	0000000c 	andeq	r0, r0, ip
 89c:	00000870 	andeq	r0, r0, r0, ror r8
 8a0:	0000a298 	muleq	r0, r8, r2
 8a4:	00000018 	andeq	r0, r0, r8, lsl r0
 8a8:	0000000c 	andeq	r0, r0, ip
 8ac:	00000870 	andeq	r0, r0, r0, ror r8
 8b0:	0000a2b0 			; <UNDEFINED> instruction: 0x0000a2b0
 8b4:	00000010 	andeq	r0, r0, r0, lsl r0
 8b8:	0000000c 	andeq	r0, r0, ip
 8bc:	ffffffff 			; <UNDEFINED> instruction: 0xffffffff
 8c0:	7c020001 	stcvc	0, cr0, [r2], {1}
 8c4:	000d0c0e 	andeq	r0, sp, lr, lsl #24
 8c8:	0000000c 	andeq	r0, r0, ip
 8cc:	000008b8 			; <UNDEFINED> instruction: 0x000008b8
 8d0:	0000a2c0 	andeq	sl, r0, r0, asr #5
 8d4:	0000002c 	andeq	r0, r0, ip, lsr #32
 8d8:	0000000c 	andeq	r0, r0, ip
 8dc:	ffffffff 			; <UNDEFINED> instruction: 0xffffffff
 8e0:	7c020001 	stcvc	0, cr0, [r2], {1}
 8e4:	000d0c0e 	andeq	r0, sp, lr, lsl #24
 8e8:	0000000c 	andeq	r0, r0, ip
 8ec:	000008d8 	ldrdeq	r0, [r0], -r8
 8f0:	0000a2ec 	andeq	sl, r0, ip, ror #5
 8f4:	00000044 	andeq	r0, r0, r4, asr #32
 8f8:	0000000c 	andeq	r0, r0, ip
 8fc:	ffffffff 			; <UNDEFINED> instruction: 0xffffffff
 900:	7c020001 	stcvc	0, cr0, [r2], {1}
 904:	000d0c0e 	andeq	r0, sp, lr, lsl #24
 908:	0000000c 	andeq	r0, r0, ip
 90c:	000008f8 	strdeq	r0, [r0], -r8
 910:	0000a330 	andeq	sl, r0, r0, lsr r3
 914:	00000018 	andeq	r0, r0, r8, lsl r0
 918:	0000000c 	andeq	r0, r0, ip
 91c:	ffffffff 			; <UNDEFINED> instruction: 0xffffffff
 920:	7c020001 	stcvc	0, cr0, [r2], {1}
 924:	000d0c0e 	andeq	r0, sp, lr, lsl #24
 928:	0000000c 	andeq	r0, r0, ip
 92c:	00000918 	andeq	r0, r0, r8, lsl r9
 930:	0000a348 	andeq	sl, r0, r8, asr #6
 934:	00000030 	andeq	r0, r0, r0, lsr r0
 938:	0000000c 	andeq	r0, r0, ip
 93c:	ffffffff 			; <UNDEFINED> instruction: 0xffffffff
 940:	7c020001 	stcvc	0, cr0, [r2], {1}
 944:	000d0c0e 	andeq	r0, sp, lr, lsl #24
 948:	0000000c 	andeq	r0, r0, ip
 94c:	00000938 	andeq	r0, r0, r8, lsr r9
 950:	0000a378 	andeq	sl, r0, r8, ror r3
 954:	00000004 	andeq	r0, r0, r4
