
tests-2.0/part2-test5-gc.elf:     file format elf32-littlearm


Disassembly of section .text:

00008000 <__code_start__>:
    8000:	e3a00013 	mov	r0, #19, 0
    8004:	e3800080 	orr	r0, r0, #128, 0	; 0x80
    8008:	e129f000 	msr	CPSR_fc, r0
    800c:	e3a01000 	mov	r1, #0, 0
    8010:	ee071f95 	mcr	15, 0, r1, cr7, cr5, {4}
    8014:	e3a0d302 	mov	sp, #134217728	; 0x8000000
    8018:	e3a0b000 	mov	fp, #0, 0
    801c:	eb0005bc 	bl	9714 <_cstart>
    8020:	eb000605 	bl	983c <rpi_reboot>

00008024 <PUT32>:
    8024:	e5801000 	str	r1, [r0]
    8028:	e12fff1e 	bx	lr

0000802c <GET32>:
    802c:	e5900000 	ldr	r0, [r0]
    8030:	e12fff1e 	bx	lr

00008034 <BRANCHTO>:
    8034:	e12fff10 	bx	r0

00008038 <test>:
    8038:	e3a01014 	mov	r1, #20, 0
    803c:	e92d4010 	push	{r4, lr}
    8040:	e59f204c 	ldr	r2, [pc, #76]	; 8094 <test+0x5c>
    8044:	e59f304c 	ldr	r3, [pc, #76]	; 8098 <test+0x60>
    8048:	e24dd010 	sub	sp, sp, #16, 0
    804c:	e1cd20f4 	strd	r2, [sp, #4]
    8050:	e58d100c 	str	r1, [sp, #12]
    8054:	e28d3010 	add	r3, sp, #16, 0
    8058:	e913000e 	ldmdb	r3, {r1, r2, r3}
    805c:	e3a0000c 	mov	r0, #12, 0
    8060:	eb0000fb 	bl	8454 <ckalloc>
    8064:	e3a0200c 	mov	r2, #12, 0
    8068:	e3a01000 	mov	r1, #0, 0
    806c:	e1a04000 	mov	r4, r0
    8070:	eb0002ed 	bl	8c2c <memset>
    8074:	e3a03000 	mov	r3, #0, 0
    8078:	e59f001c 	ldr	r0, [pc, #28]	; 809c <test+0x64>
    807c:	e5843000 	str	r3, [r4]
    8080:	eb000307 	bl	8ca4 <printk>
    8084:	eb000275 	bl	8a60 <check_no_leak>
    8088:	e1a00004 	mov	r0, r4
    808c:	e28dd010 	add	sp, sp, #16, 0
    8090:	e8bd8010 	pop	{r4, pc}
    8094:	0000a200 	andeq	sl, r0, r0, lsl #4
    8098:	0000a338 	andeq	sl, r0, r8, lsr r3
    809c:	0000a21c 	andeq	sl, r0, ip, lsl r2

000080a0 <notmain>:
    80a0:	e52de004 	push	{lr}		; (str lr, [sp, #-4]!)
    80a4:	e59f0074 	ldr	r0, [pc, #116]	; 8120 <notmain+0x80>
    80a8:	e24dd00c 	sub	sp, sp, #12, 0
    80ac:	eb0002fc 	bl	8ca4 <printk>
    80b0:	ebffffe0 	bl	8038 <test>
    80b4:	e1a01000 	mov	r1, r0
    80b8:	e3a00000 	mov	r0, #0, 0
    80bc:	ebffffd8 	bl	8024 <PUT32>
    80c0:	e59f005c 	ldr	r0, [pc, #92]	; 8124 <notmain+0x84>
    80c4:	eb0002f6 	bl	8ca4 <printk>
    80c8:	eb000276 	bl	8aa8 <check_should_leak>
    80cc:	eb000289 	bl	8af8 <ck_gc>
    80d0:	e1a01000 	mov	r1, r0
    80d4:	e59f004c 	ldr	r0, [pc, #76]	; 8128 <notmain+0x88>
    80d8:	eb0002f1 	bl	8ca4 <printk>
    80dc:	e59f0048 	ldr	r0, [pc, #72]	; 812c <notmain+0x8c>
    80e0:	eb0002ef 	bl	8ca4 <printk>
    80e4:	eb000283 	bl	8af8 <ck_gc>
    80e8:	e3500000 	cmp	r0, #0, 0
    80ec:	1a000004 	bne	8104 <notmain+0x64>
    80f0:	e59f0038 	ldr	r0, [pc, #56]	; 8130 <notmain+0x90>
    80f4:	eb0002ea 	bl	8ca4 <printk>
    80f8:	e28dd00c 	add	sp, sp, #12, 0
    80fc:	e49de004 	pop	{lr}		; (ldr lr, [sp], #4)
    8100:	ea000256 	b	8a60 <check_no_leak>
    8104:	e3a03044 	mov	r3, #68, 0	; 0x44
    8108:	e59f2024 	ldr	r2, [pc, #36]	; 8134 <notmain+0x94>
    810c:	e59f1024 	ldr	r1, [pc, #36]	; 8138 <notmain+0x98>
    8110:	e58d0000 	str	r0, [sp]
    8114:	e59f0020 	ldr	r0, [pc, #32]	; 813c <notmain+0x9c>
    8118:	eb0002e1 	bl	8ca4 <printk>
    811c:	eb000571 	bl	96e8 <clean_reboot>
    8120:	0000a24c 	andeq	sl, r0, ip, asr #4
    8124:	0000a288 	andeq	sl, r0, r8, lsl #5
    8128:	0000a29c 	muleq	r0, ip, r2
    812c:	0000a2bc 			; <UNDEFINED> instruction: 0x0000a2bc
    8130:	0000a31c 	andeq	sl, r0, ip, lsl r3
    8134:	0000a340 	andeq	sl, r0, r0, asr #6
    8138:	0000a200 	andeq	sl, r0, r0, lsl #4
    813c:	0000a2e0 	andeq	sl, r0, r0, ror #5

00008140 <bar>:
    8140:	e92d4010 	push	{r4, lr}
    8144:	ebffffbb 	bl	8038 <test>
    8148:	e1a01000 	mov	r1, r0
    814c:	e3a00000 	mov	r0, #0, 0
    8150:	ebffffb3 	bl	8024 <PUT32>
    8154:	e3a00000 	mov	r0, #0, 0
    8158:	e8bd8010 	pop	{r4, pc}

0000815c <ck_first_hdr>:
    815c:	e59f3004 	ldr	r3, [pc, #4]	; 8168 <ck_first_hdr+0xc>
    8160:	e5930000 	ldr	r0, [r3]
    8164:	e12fff1e 	bx	lr
    8168:	0000aba8 	andeq	sl, r0, r8, lsr #23

0000816c <ck_next_hdr>:
    816c:	e3500000 	cmp	r0, #0, 0
    8170:	012fff1e 	bxeq	lr
    8174:	e5900000 	ldr	r0, [r0]
    8178:	e12fff1e 	bx	lr

0000817c <list_remove>:
    817c:	e92d4030 	push	{r4, r5, lr}
    8180:	e24dd00c 	sub	sp, sp, #12, 0
    8184:	e2503000 	subs	r3, r0, #0, 0
    8188:	0a00000d 	beq	81c4 <list_remove+0x48>
    818c:	e1a04001 	mov	r4, r1
    8190:	e5930000 	ldr	r0, [r3]
    8194:	e1500001 	cmp	r0, r1
    8198:	0a000011 	beq	81e4 <list_remove+0x68>
    819c:	e1a05000 	mov	r5, r0
    81a0:	ebfffff1 	bl	816c <ck_next_hdr>
    81a4:	e3500000 	cmp	r0, #0, 0
    81a8:	0a000010 	beq	81f0 <list_remove+0x74>
    81ac:	e1540000 	cmp	r4, r0
    81b0:	1afffff9 	bne	819c <list_remove+0x20>
    81b4:	e5903000 	ldr	r3, [r0]
    81b8:	e5853000 	str	r3, [r5]
    81bc:	e28dd00c 	add	sp, sp, #12, 0
    81c0:	e8bd8030 	pop	{r4, r5, pc}
    81c4:	e59f3040 	ldr	r3, [pc, #64]	; 820c <list_remove+0x90>
    81c8:	e58d3000 	str	r3, [sp]
    81cc:	e3a0303c 	mov	r3, #60, 0	; 0x3c
    81d0:	e59f2038 	ldr	r2, [pc, #56]	; 8210 <list_remove+0x94>
    81d4:	e59f1038 	ldr	r1, [pc, #56]	; 8214 <list_remove+0x98>
    81d8:	e59f0038 	ldr	r0, [pc, #56]	; 8218 <list_remove+0x9c>
    81dc:	eb0002b0 	bl	8ca4 <printk>
    81e0:	eb000540 	bl	96e8 <clean_reboot>
    81e4:	e5912000 	ldr	r2, [r1]
    81e8:	e5832000 	str	r2, [r3]
    81ec:	eafffff2 	b	81bc <list_remove+0x40>
    81f0:	e58d4000 	str	r4, [sp]
    81f4:	e3a0304f 	mov	r3, #79, 0	; 0x4f
    81f8:	e59f2010 	ldr	r2, [pc, #16]	; 8210 <list_remove+0x94>
    81fc:	e59f1010 	ldr	r1, [pc, #16]	; 8214 <list_remove+0x98>
    8200:	e59f0014 	ldr	r0, [pc, #20]	; 821c <list_remove+0xa0>
    8204:	eb0002a6 	bl	8ca4 <printk>
    8208:	eb000536 	bl	96e8 <clean_reboot>
    820c:	0000a368 	andeq	sl, r0, r8, ror #6
    8210:	0000a484 	andeq	sl, r0, r4, lsl #9
    8214:	0000a348 	andeq	sl, r0, r8, asr #6
    8218:	0000a354 	andeq	sl, r0, r4, asr r3
    821c:	0000a36c 	andeq	sl, r0, ip, ror #6

00008220 <ck_hdr_start>:
    8220:	e28000a8 	add	r0, r0, #168, 0	; 0xa8
    8224:	e12fff1e 	bx	lr

00008228 <ck_hdr_end>:
    8228:	e92d4010 	push	{r4, lr}
    822c:	e1a04000 	mov	r4, r0
    8230:	ebfffffa 	bl	8220 <ck_hdr_start>
    8234:	e5943004 	ldr	r3, [r4, #4]
    8238:	e0800003 	add	r0, r0, r3
    823c:	e8bd8010 	pop	{r4, pc}

00008240 <ck_ptr_in_block>:
    8240:	e92d4070 	push	{r4, r5, r6, lr}
    8244:	e1a06000 	mov	r6, r0
    8248:	e1a04001 	mov	r4, r1
    824c:	ebfffff3 	bl	8220 <ck_hdr_start>
    8250:	e1a05000 	mov	r5, r0
    8254:	e1a00006 	mov	r0, r6
    8258:	ebfffff2 	bl	8228 <ck_hdr_end>
    825c:	e1550004 	cmp	r5, r4
    8260:	91540000 	cmpls	r4, r0
    8264:	33a00001 	movcc	r0, #1, 0
    8268:	23a00000 	movcs	r0, #0, 0
    826c:	e8bd8070 	pop	{r4, r5, r6, pc}

00008270 <ck_ptr_is_alloced>:
    8270:	e92d4070 	push	{r4, r5, r6, lr}
    8274:	e1a05000 	mov	r5, r0
    8278:	ebffffb7 	bl	815c <ck_first_hdr>
    827c:	e1a04000 	mov	r4, r0
    8280:	e3540000 	cmp	r4, #0, 0
    8284:	0a00000c 	beq	82bc <ck_ptr_is_alloced+0x4c>
    8288:	e1a01005 	mov	r1, r5
    828c:	e1a00004 	mov	r0, r4
    8290:	ebffffea 	bl	8240 <ck_ptr_in_block>
    8294:	e3500000 	cmp	r0, #0, 0
    8298:	1a000003 	bne	82ac <ck_ptr_is_alloced+0x3c>
    829c:	e1a00004 	mov	r0, r4
    82a0:	ebffffb1 	bl	816c <ck_next_hdr>
    82a4:	e1a04000 	mov	r4, r0
    82a8:	eafffff4 	b	8280 <ck_ptr_is_alloced+0x10>
    82ac:	e1a02004 	mov	r2, r4
    82b0:	e1a01005 	mov	r1, r5
    82b4:	e59f0008 	ldr	r0, [pc, #8]	; 82c4 <ck_ptr_is_alloced+0x54>
    82b8:	eb000279 	bl	8ca4 <printk>
    82bc:	e1a00004 	mov	r0, r4
    82c0:	e8bd8070 	pop	{r4, r5, r6, pc}
    82c4:	0000a398 	muleq	r0, r8, r3

000082c8 <ckfree>:
    82c8:	e92d43f0 	push	{r4, r5, r6, r7, r8, r9, lr}
    82cc:	e24dd01c 	sub	sp, sp, #28, 0
    82d0:	e1a05000 	mov	r5, r0
    82d4:	e28d0018 	add	r0, sp, #24, 0
    82d8:	e900000e 	stmdb	r0, {r1, r2, r3}
    82dc:	e59d600c 	ldr	r6, [sp, #12]
    82e0:	e59d7010 	ldr	r7, [sp, #16]
    82e4:	e59d8014 	ldr	r8, [sp, #20]
    82e8:	e1a03008 	mov	r3, r8
    82ec:	e1a02007 	mov	r2, r7
    82f0:	e1a01006 	mov	r1, r6
    82f4:	e59f012c 	ldr	r0, [pc, #300]	; 8428 <ckfree+0x160>
    82f8:	eb000269 	bl	8ca4 <printk>
    82fc:	e1a01005 	mov	r1, r5
    8300:	e59f0124 	ldr	r0, [pc, #292]	; 842c <ckfree+0x164>
    8304:	eb000266 	bl	8ca4 <printk>
    8308:	e51530a0 	ldr	r3, [r5, #-160]	; 0xffffff60
    830c:	e353000b 	cmp	r3, #11, 0
    8310:	1a00000e 	bne	8350 <ckfree+0x88>
    8314:	e24590a8 	sub	r9, r5, #168, 0	; 0xa8
    8318:	e3a04000 	mov	r4, #0, 0
    831c:	e354007f 	cmp	r4, #127, 0	; 0x7f
    8320:	ca000026 	bgt	83c0 <ckfree+0xf8>
    8324:	e0853004 	add	r3, r5, r4
    8328:	e5533082 	ldrb	r3, [r3, #-130]	; 0xffffff7e
    832c:	e35300fe 	cmp	r3, #254, 0	; 0xfe
    8330:	1a00000f 	bne	8374 <ckfree+0xac>
    8334:	e51530a4 	ldr	r3, [r5, #-164]	; 0xffffff5c
    8338:	e0843003 	add	r3, r4, r3
    833c:	e7d53003 	ldrb	r3, [r5, r3]
    8340:	e35300fe 	cmp	r3, #254, 0	; 0xfe
    8344:	1a000015 	bne	83a0 <ckfree+0xd8>
    8348:	e2844001 	add	r4, r4, #1, 0
    834c:	eafffff2 	b	831c <ckfree+0x54>
    8350:	e1a03008 	mov	r3, r8
    8354:	e1a02007 	mov	r2, r7
    8358:	e1a01006 	mov	r1, r6
    835c:	e59f00cc 	ldr	r0, [pc, #204]	; 8430 <ckfree+0x168>
    8360:	eb00024f 	bl	8ca4 <printk>
    8364:	e51510a0 	ldr	r1, [r5, #-160]	; 0xffffff60
    8368:	e59f00c4 	ldr	r0, [pc, #196]	; 8434 <ckfree+0x16c>
    836c:	eb00024c 	bl	8ca4 <printk>
    8370:	eb0004dc 	bl	96e8 <clean_reboot>
    8374:	e1a03008 	mov	r3, r8
    8378:	e1a02007 	mov	r2, r7
    837c:	e1a01006 	mov	r1, r6
    8380:	e59f00a8 	ldr	r0, [pc, #168]	; 8430 <ckfree+0x168>
    8384:	eb000246 	bl	8ca4 <printk>
    8388:	e0854004 	add	r4, r5, r4
    838c:	e3a020fe 	mov	r2, #254, 0	; 0xfe
    8390:	e5541082 	ldrb	r1, [r4, #-130]	; 0xffffff7e
    8394:	e59f009c 	ldr	r0, [pc, #156]	; 8438 <ckfree+0x170>
    8398:	eb000241 	bl	8ca4 <printk>
    839c:	eb0004d1 	bl	96e8 <clean_reboot>
    83a0:	e1a03008 	mov	r3, r8
    83a4:	e1a02007 	mov	r2, r7
    83a8:	e1a01006 	mov	r1, r6
    83ac:	e59f007c 	ldr	r0, [pc, #124]	; 8430 <ckfree+0x168>
    83b0:	eb00023b 	bl	8ca4 <printk>
    83b4:	e59f0080 	ldr	r0, [pc, #128]	; 843c <ckfree+0x174>
    83b8:	eb000239 	bl	8ca4 <printk>
    83bc:	eb0004c9 	bl	96e8 <clean_reboot>
    83c0:	e3a03000 	mov	r3, #0, 0
    83c4:	e51520a4 	ldr	r2, [r5, #-164]	; 0xffffff5c
    83c8:	e1520003 	cmp	r2, r3
    83cc:	83e02001 	mvnhi	r2, #1, 0
    83d0:	87c52003 	strbhi	r2, [r5, r3]
    83d4:	82833001 	addhi	r3, r3, #1, 0
    83d8:	8afffff9 	bhi	83c4 <ckfree+0xfc>
    83dc:	e3a0300c 	mov	r3, #12, 0
    83e0:	e50530a0 	str	r3, [r5, #-160]	; 0xffffff60
    83e4:	e1a00005 	mov	r0, r5
    83e8:	ebffffa0 	bl	8270 <ck_ptr_is_alloced>
    83ec:	e3500000 	cmp	r0, #0, 0
    83f0:	0a000004 	beq	8408 <ckfree+0x140>
    83f4:	e1a01009 	mov	r1, r9
    83f8:	e59f0040 	ldr	r0, [pc, #64]	; 8440 <ckfree+0x178>
    83fc:	ebffff5e 	bl	817c <list_remove>
    8400:	e28dd01c 	add	sp, sp, #28, 0
    8404:	e8bd83f0 	pop	{r4, r5, r6, r7, r8, r9, pc}
    8408:	e59f3034 	ldr	r3, [pc, #52]	; 8444 <ckfree+0x17c>
    840c:	e58d3000 	str	r3, [sp]
    8410:	e3a03069 	mov	r3, #105, 0	; 0x69
    8414:	e59f202c 	ldr	r2, [pc, #44]	; 8448 <ckfree+0x180>
    8418:	e59f102c 	ldr	r1, [pc, #44]	; 844c <ckfree+0x184>
    841c:	e59f002c 	ldr	r0, [pc, #44]	; 8450 <ckfree+0x188>
    8420:	eb00021f 	bl	8ca4 <printk>
    8424:	eb0004af 	bl	96e8 <clean_reboot>
    8428:	0000a3a8 	andeq	sl, r0, r8, lsr #7
    842c:	0000a3b4 			; <UNDEFINED> instruction: 0x0000a3b4
    8430:	0000a3c4 	andeq	sl, r0, r4, asr #7
    8434:	0000a3dc 	ldrdeq	sl, [r0], -ip
    8438:	0000a404 	andeq	sl, r0, r4, lsl #8
    843c:	0000a434 	andeq	sl, r0, r4, lsr r4
    8440:	0000aba8 	andeq	sl, r0, r8, lsr #23
    8444:	0000a450 	andeq	sl, r0, r0, asr r4
    8448:	0000a490 	muleq	r0, r0, r4
    844c:	0000a348 	andeq	sl, r0, r8, asr #6
    8450:	0000a354 	andeq	sl, r0, r4, asr r3

00008454 <ckalloc>:
    8454:	e92d4070 	push	{r4, r5, r6, lr}
    8458:	e24dd010 	sub	sp, sp, #16, 0
    845c:	e1a05000 	mov	r5, r0
    8460:	e28d0010 	add	r0, sp, #16, 0
    8464:	e900000e 	stmdb	r0, {r1, r2, r3}
    8468:	e2850f4a 	add	r0, r5, #296	; 0x128
    846c:	eb00004b 	bl	85a0 <kr_malloc>
    8470:	e1a04000 	mov	r4, r0
    8474:	e3a020a8 	mov	r2, #168, 0	; 0xa8
    8478:	e3a01000 	mov	r1, #0, 0
    847c:	eb0001ea 	bl	8c2c <memset>
    8480:	e3a03000 	mov	r3, #0, 0
    8484:	e353007f 	cmp	r3, #127, 0	; 0x7f
    8488:	ca000007 	bgt	84ac <ckalloc+0x58>
    848c:	e0842003 	add	r2, r4, r3
    8490:	e3e01001 	mvn	r1, #1, 0
    8494:	e5c21026 	strb	r1, [r2, #38]	; 0x26
    8498:	e0832005 	add	r2, r3, r5
    849c:	e28220a8 	add	r2, r2, #168, 0	; 0xa8
    84a0:	e7c41002 	strb	r1, [r4, r2]
    84a4:	e2833001 	add	r3, r3, #1, 0
    84a8:	eafffff5 	b	8484 <ckalloc+0x30>
    84ac:	e5845004 	str	r5, [r4, #4]
    84b0:	e3a0300b 	mov	r3, #11, 0
    84b4:	e5843008 	str	r3, [r4, #8]
    84b8:	e2843010 	add	r3, r4, #16, 0
    84bc:	e28d2010 	add	r2, sp, #16, 0
    84c0:	e9120007 	ldmdb	r2, {r0, r1, r2}
    84c4:	e8830007 	stm	r3, {r0, r1, r2}
    84c8:	e59d300c 	ldr	r3, [sp, #12]
    84cc:	e59d2008 	ldr	r2, [sp, #8]
    84d0:	e59d1004 	ldr	r1, [sp, #4]
    84d4:	e59f0030 	ldr	r0, [pc, #48]	; 850c <ckalloc+0xb8>
    84d8:	eb0001f1 	bl	8ca4 <printk>
    84dc:	e28460a8 	add	r6, r4, #168, 0	; 0xa8
    84e0:	e1a02005 	mov	r2, r5
    84e4:	e1a01006 	mov	r1, r6
    84e8:	e59f0020 	ldr	r0, [pc, #32]	; 8510 <ckalloc+0xbc>
    84ec:	eb0001ec 	bl	8ca4 <printk>
    84f0:	e59f301c 	ldr	r3, [pc, #28]	; 8514 <ckalloc+0xc0>
    84f4:	e5932000 	ldr	r2, [r3]
    84f8:	e5842000 	str	r2, [r4]
    84fc:	e5834000 	str	r4, [r3]
    8500:	e1a00006 	mov	r0, r6
    8504:	e28dd010 	add	sp, sp, #16, 0
    8508:	e8bd8070 	pop	{r4, r5, r6, pc}
    850c:	0000a3a8 	andeq	sl, r0, r8, lsr #7
    8510:	0000a468 	andeq	sl, r0, r8, ror #8
    8514:	0000aba8 	andeq	sl, r0, r8, lsr #23

00008518 <kr_free>:
    8518:	e92d4010 	push	{r4, lr}
    851c:	e59fe078 	ldr	lr, [pc, #120]	; 859c <kr_free+0x84>
    8520:	e2401008 	sub	r1, r0, #8, 0
    8524:	e59e3000 	ldr	r3, [lr]
    8528:	ea000004 	b	8540 <kr_free+0x28>
    852c:	e1520001 	cmp	r2, r1
    8530:	8a000009 	bhi	855c <kr_free+0x44>
    8534:	e1520003 	cmp	r2, r3
    8538:	9a000007 	bls	855c <kr_free+0x44>
    853c:	e1a03002 	mov	r3, r2
    8540:	e1530001 	cmp	r3, r1
    8544:	e5932000 	ldr	r2, [r3]
    8548:	3afffff7 	bcc	852c <kr_free+0x14>
    854c:	e1530002 	cmp	r3, r2
    8550:	3afffff9 	bcc	853c <kr_free+0x24>
    8554:	e1510002 	cmp	r1, r2
    8558:	2afffff7 	bcs	853c <kr_free+0x24>
    855c:	e510c004 	ldr	ip, [r0, #-4]
    8560:	e58e3000 	str	r3, [lr]
    8564:	e081418c 	add	r4, r1, ip, lsl #3
    8568:	e1520004 	cmp	r2, r4
    856c:	08920014 	ldmeq	r2, {r2, r4}
    8570:	008cc004 	addeq	ip, ip, r4
    8574:	0500c004 	streq	ip, [r0, #-4]
    8578:	e5934004 	ldr	r4, [r3, #4]
    857c:	e5002008 	str	r2, [r0, #-8]
    8580:	e0830184 	add	r0, r3, r4, lsl #3
    8584:	e1510000 	cmp	r1, r0
    8588:	01a01002 	moveq	r1, r2
    858c:	0084c00c 	addeq	ip, r4, ip
    8590:	0583c004 	streq	ip, [r3, #4]
    8594:	e5831000 	str	r1, [r3]
    8598:	e8bd8010 	pop	{r4, pc}
    859c:	0000abb0 			; <UNDEFINED> instruction: 0x0000abb0

000085a0 <kr_malloc>:
    85a0:	e92d41f0 	push	{r4, r5, r6, r7, r8, lr}
    85a4:	e59f50ec 	ldr	r5, [pc, #236]	; 8698 <kr_malloc+0xf8>
    85a8:	e2804007 	add	r4, r0, #7, 0
    85ac:	e5951000 	ldr	r1, [r5]
    85b0:	e1a041a4 	lsr	r4, r4, #3
    85b4:	e3510000 	cmp	r1, #0, 0
    85b8:	e2844001 	add	r4, r4, #1, 0
    85bc:	0a00002c 	beq	8674 <kr_malloc+0xd4>
    85c0:	e5910000 	ldr	r0, [r1]
    85c4:	e5902004 	ldr	r2, [r0, #4]
    85c8:	e1520004 	cmp	r2, r4
    85cc:	2a00002f 	bcs	8690 <kr_malloc+0xf0>
    85d0:	e3a07902 	mov	r7, #32768	; 0x8000
    85d4:	e59f60c0 	ldr	r6, [pc, #192]	; 869c <kr_malloc+0xfc>
    85d8:	ea000003 	b	85ec <kr_malloc+0x4c>
    85dc:	e5930000 	ldr	r0, [r3]
    85e0:	e5902004 	ldr	r2, [r0, #4]
    85e4:	e1520004 	cmp	r2, r4
    85e8:	2a000015 	bcs	8644 <kr_malloc+0xa4>
    85ec:	e1510000 	cmp	r1, r0
    85f0:	11a03000 	movne	r3, r0
    85f4:	1afffff8 	bne	85dc <kr_malloc+0x3c>
    85f8:	e3a01902 	mov	r1, #32768	; 0x8000
    85fc:	e1a00006 	mov	r0, r6
    8600:	eb0001a7 	bl	8ca4 <printk>
    8604:	e3a00701 	mov	r0, #262144	; 0x40000
    8608:	eb0000ec 	bl	89c0 <sbrk>
    860c:	e1a03000 	mov	r3, r0
    8610:	e3730001 	cmn	r3, #1, 0
    8614:	e2800008 	add	r0, r0, #8, 0
    8618:	0a000013 	beq	866c <kr_malloc+0xcc>
    861c:	e5837004 	str	r7, [r3, #4]
    8620:	ebffffbc 	bl	8518 <kr_free>
    8624:	e5953000 	ldr	r3, [r5]
    8628:	e3530000 	cmp	r3, #0, 0
    862c:	0a00000e 	beq	866c <kr_malloc+0xcc>
    8630:	e5930000 	ldr	r0, [r3]
    8634:	e1a01003 	mov	r1, r3
    8638:	e5902004 	ldr	r2, [r0, #4]
    863c:	e1520004 	cmp	r2, r4
    8640:	3affffe9 	bcc	85ec <kr_malloc+0x4c>
    8644:	e1520004 	cmp	r2, r4
    8648:	05902000 	ldreq	r2, [r0]
    864c:	10422004 	subne	r2, r2, r4
    8650:	15802004 	strne	r2, [r0, #4]
    8654:	10800182 	addne	r0, r0, r2, lsl #3
    8658:	15804004 	strne	r4, [r0, #4]
    865c:	05832000 	streq	r2, [r3]
    8660:	e5853000 	str	r3, [r5]
    8664:	e2800008 	add	r0, r0, #8, 0
    8668:	e8bd81f0 	pop	{r4, r5, r6, r7, r8, pc}
    866c:	e3a00000 	mov	r0, #0, 0
    8670:	e8bd81f0 	pop	{r4, r5, r6, r7, r8, pc}
    8674:	e2853008 	add	r3, r5, #8, 0
    8678:	e585100c 	str	r1, [r5, #12]
    867c:	e1a00003 	mov	r0, r3
    8680:	e1a01003 	mov	r1, r3
    8684:	e5853000 	str	r3, [r5]
    8688:	e5853008 	str	r3, [r5, #8]
    868c:	eaffffcf 	b	85d0 <kr_malloc+0x30>
    8690:	e1a03001 	mov	r3, r1
    8694:	eaffffea 	b	8644 <kr_malloc+0xa4>
    8698:	0000abb0 			; <UNDEFINED> instruction: 0x0000abb0
    869c:	0000a498 	muleq	r0, r8, r4

000086a0 <mark>:
    86a0:	e92d4ff0 	push	{r4, r5, r6, r7, r8, r9, sl, fp, lr}
    86a4:	e1500001 	cmp	r0, r1
    86a8:	23a03052 	movcs	r3, #82, 0	; 0x52
    86ac:	259f2120 	ldrcs	r2, [pc, #288]	; 87d4 <mark+0x134>
    86b0:	e24dd00c 	sub	sp, sp, #12, 0
    86b4:	2a000040 	bcs	87bc <mark+0x11c>
    86b8:	e3100003 	tst	r0, #3, 0
    86bc:	e1a04000 	mov	r4, r0
    86c0:	1a00003b 	bne	87b4 <mark+0x114>
    86c4:	e3110003 	tst	r1, #3, 0
    86c8:	13a03056 	movne	r3, #86, 0	; 0x56
    86cc:	159f2104 	ldrne	r2, [pc, #260]	; 87d8 <mark+0x138>
    86d0:	1a000039 	bne	87bc <mark+0x11c>
    86d4:	e0411000 	sub	r1, r1, r0
    86d8:	e3c11003 	bic	r1, r1, #3, 0
    86dc:	e2805004 	add	r5, r0, #4, 0
    86e0:	e59f70f4 	ldr	r7, [pc, #244]	; 87dc <mark+0x13c>
    86e4:	e59fa0f4 	ldr	sl, [pc, #244]	; 87e0 <mark+0x140>
    86e8:	e0815005 	add	r5, r1, r5
    86ec:	e5940000 	ldr	r0, [r4]
    86f0:	e5973000 	ldr	r3, [r7]
    86f4:	e1a08004 	mov	r8, r4
    86f8:	e1500003 	cmp	r0, r3
    86fc:	e2844004 	add	r4, r4, #4, 0
    8700:	3a00001a 	bcc	8770 <mark+0xd0>
    8704:	e5973004 	ldr	r3, [r7, #4]
    8708:	e1500003 	cmp	r0, r3
    870c:	2a000017 	bcs	8770 <mark+0xd0>
    8710:	ebfffed6 	bl	8270 <ck_ptr_is_alloced>
    8714:	e2506000 	subs	r6, r0, #0, 0
    8718:	0a000014 	beq	8770 <mark+0xd0>
    871c:	e1d692b4 	ldrh	r9, [r6, #36]	; 0x24
    8720:	ebfffebe 	bl	8220 <ck_hdr_start>
    8724:	e286b0a8 	add	fp, r6, #168, 0	; 0xa8
    8728:	e1a01000 	mov	r1, r0
    872c:	e5143004 	ldr	r3, [r4, #-4]
    8730:	e1a02008 	mov	r2, r8
    8734:	e1a0000a 	mov	r0, sl
    8738:	e58db000 	str	fp, [sp]
    873c:	eb000158 	bl	8ca4 <printk>
    8740:	e3590001 	cmp	r9, #1, 0
    8744:	8a00000d 	bhi	8780 <mark+0xe0>
    8748:	e5143004 	ldr	r3, [r4, #-4]
    874c:	e59f0090 	ldr	r0, [pc, #144]	; 87e4 <mark+0x144>
    8750:	e15b0003 	cmp	fp, r3
    8754:	03a03002 	moveq	r3, #2, 0
    8758:	13a03001 	movne	r3, #1, 0
    875c:	e1a01003 	mov	r1, r3
    8760:	e1c632b4 	strh	r3, [r6, #36]	; 0x24
    8764:	eb00014e 	bl	8ca4 <printk>
    8768:	e3590000 	cmp	r9, #0, 0
    876c:	0a000008 	beq	8794 <mark+0xf4>
    8770:	e1550004 	cmp	r5, r4
    8774:	1affffdc 	bne	86ec <mark+0x4c>
    8778:	e28dd00c 	add	sp, sp, #12, 0
    877c:	e8bd8ff0 	pop	{r4, r5, r6, r7, r8, r9, sl, fp, pc}
    8780:	e59f0060 	ldr	r0, [pc, #96]	; 87e8 <mark+0x148>
    8784:	eb000146 	bl	8ca4 <printk>
    8788:	e1550004 	cmp	r5, r4
    878c:	1affffd6 	bne	86ec <mark+0x4c>
    8790:	eafffff8 	b	8778 <mark+0xd8>
    8794:	e5961004 	ldr	r1, [r6, #4]
    8798:	e2860004 	add	r0, r6, #4, 0
    879c:	e28110a8 	add	r1, r1, #168, 0	; 0xa8
    87a0:	e0861001 	add	r1, r6, r1
    87a4:	ebffffbd 	bl	86a0 <mark>
    87a8:	e1550004 	cmp	r5, r4
    87ac:	1affffce 	bne	86ec <mark+0x4c>
    87b0:	eafffff0 	b	8778 <mark+0xd8>
    87b4:	e3a03055 	mov	r3, #85, 0	; 0x55
    87b8:	e59f202c 	ldr	r2, [pc, #44]	; 87ec <mark+0x14c>
    87bc:	e59f102c 	ldr	r1, [pc, #44]	; 87f0 <mark+0x150>
    87c0:	e58d2000 	str	r2, [sp]
    87c4:	e59f0028 	ldr	r0, [pc, #40]	; 87f4 <mark+0x154>
    87c8:	e59f2028 	ldr	r2, [pc, #40]	; 87f8 <mark+0x158>
    87cc:	eb000134 	bl	8ca4 <printk>
    87d0:	eb0003c4 	bl	96e8 <clean_reboot>
    87d4:	0000a4c4 	andeq	sl, r0, r4, asr #9
    87d8:	0000a4dc 	ldrdeq	sl, [r0], -ip
    87dc:	0000abc0 	andeq	sl, r0, r0, asr #23
    87e0:	0000a4ec 	andeq	sl, r0, ip, ror #9
    87e4:	0000a518 	andeq	sl, r0, r8, lsl r5
    87e8:	0000a528 	andeq	sl, r0, r8, lsr #10
    87ec:	0000a4cc 	andeq	sl, r0, ip, asr #9
    87f0:	0000a4bc 			; <UNDEFINED> instruction: 0x0000a4bc
    87f4:	0000a354 	andeq	sl, r0, r4, asr r3
    87f8:	0000a7d4 	ldrdeq	sl, [r0], -r4

000087fc <mark_all>:
    87fc:	e92d4010 	push	{r4, lr}
    8800:	e24dd040 	sub	sp, sp, #64, 0	; 0x40
    8804:	ebfffe54 	bl	815c <ck_first_hdr>
    8808:	e3500000 	cmp	r0, #0, 0
    880c:	0a000006 	beq	882c <mark_all+0x30>
    8810:	e3a04000 	mov	r4, #0, 0
    8814:	e5804020 	str	r4, [r0, #32]
    8818:	e580401c 	str	r4, [r0, #28]
    881c:	e1c042b4 	strh	r4, [r0, #36]	; 0x24
    8820:	ebfffe51 	bl	816c <ck_next_hdr>
    8824:	e3500000 	cmp	r0, #0, 0
    8828:	1afffff9 	bne	8814 <mark_all+0x18>
    882c:	e1a0000d 	mov	r0, sp
    8830:	eb0000fb 	bl	8c24 <dump_regs>
    8834:	e3a03000 	mov	r3, #0, 0
    8838:	e3a02000 	mov	r2, #0, 0
    883c:	e1a0000d 	mov	r0, sp
    8840:	e28d1038 	add	r1, sp, #56, 0	; 0x38
    8844:	e1cd20f0 	strd	r2, [sp]
    8848:	e1cd20f8 	strd	r2, [sp, #8]
    884c:	ebffff93 	bl	86a0 <mark>
    8850:	e3a02302 	mov	r2, #134217728	; 0x8000000
    8854:	e59d1034 	ldr	r1, [sp, #52]	; 0x34
    8858:	e59f002c 	ldr	r0, [pc, #44]	; 888c <mark_all+0x90>
    885c:	eb000110 	bl	8ca4 <printk>
    8860:	e59d0034 	ldr	r0, [sp, #52]	; 0x34
    8864:	e3a01302 	mov	r1, #134217728	; 0x8000000
    8868:	ebffff8c 	bl	86a0 <mark>
    886c:	e59f101c 	ldr	r1, [pc, #28]	; 8890 <mark_all+0x94>
    8870:	e59f001c 	ldr	r0, [pc, #28]	; 8894 <mark_all+0x98>
    8874:	ebffff89 	bl	86a0 <mark>
    8878:	e59f1018 	ldr	r1, [pc, #24]	; 8898 <mark_all+0x9c>
    887c:	e59f0018 	ldr	r0, [pc, #24]	; 889c <mark_all+0xa0>
    8880:	ebffff86 	bl	86a0 <mark>
    8884:	e28dd040 	add	sp, sp, #64, 0	; 0x40
    8888:	e8bd8010 	pop	{r4, pc}
    888c:	0000a538 	andeq	sl, r0, r8, lsr r5
    8890:	0000afd0 	ldrdeq	sl, [r0], -r0
    8894:	0000aba8 	andeq	sl, r0, r8, lsr #23
    8898:	0000aba4 	andeq	sl, r0, r4, lsr #23
    889c:	0000ab90 	muleq	r0, r0, fp

000088a0 <sweep_leak>:
    88a0:	e92d47f0 	push	{r4, r5, r6, r7, r8, r9, sl, lr}
    88a4:	e1a08000 	mov	r8, r0
    88a8:	e59f00f0 	ldr	r0, [pc, #240]	; 89a0 <sweep_leak+0x100>
    88ac:	eb0000fc 	bl	8ca4 <printk>
    88b0:	e59f00ec 	ldr	r0, [pc, #236]	; 89a4 <sweep_leak+0x104>
    88b4:	eb0000fa 	bl	8ca4 <printk>
    88b8:	ebffffcf 	bl	87fc <mark_all>
    88bc:	ebfffe26 	bl	815c <ck_first_hdr>
    88c0:	e2504000 	subs	r4, r0, #0, 0
    88c4:	0a00002d 	beq	8980 <sweep_leak+0xe0>
    88c8:	e3a07000 	mov	r7, #0, 0
    88cc:	e59fa0d4 	ldr	sl, [pc, #212]	; 89a8 <sweep_leak+0x108>
    88d0:	e1a06007 	mov	r6, r7
    88d4:	e1a05007 	mov	r5, r7
    88d8:	e59f90cc 	ldr	r9, [pc, #204]	; 89ac <sweep_leak+0x10c>
    88dc:	ea000005 	b	88f8 <sweep_leak+0x58>
    88e0:	e3530001 	cmp	r3, #1, 0
    88e4:	0a00001f 	beq	8968 <sweep_leak+0xc8>
    88e8:	e1a00004 	mov	r0, r4
    88ec:	ebfffe1e 	bl	816c <ck_next_hdr>
    88f0:	e2504000 	subs	r4, r0, #0, 0
    88f4:	0a00000c 	beq	892c <sweep_leak+0x8c>
    88f8:	e1d432b4 	ldrh	r3, [r4, #36]	; 0x24
    88fc:	e2855001 	add	r5, r5, #1, 0
    8900:	e3530000 	cmp	r3, #0, 0
    8904:	1afffff5 	bne	88e0 <sweep_leak+0x40>
    8908:	e1a02004 	mov	r2, r4
    890c:	e1a01005 	mov	r1, r5
    8910:	e1a00009 	mov	r0, r9
    8914:	eb0000e2 	bl	8ca4 <printk>
    8918:	e1a00004 	mov	r0, r4
    891c:	ebfffe12 	bl	816c <ck_next_hdr>
    8920:	e2504000 	subs	r4, r0, #0, 0
    8924:	e2866001 	add	r6, r6, #1, 0
    8928:	1afffff2 	bne	88f8 <sweep_leak+0x58>
    892c:	e1a01005 	mov	r1, r5
    8930:	e59f0078 	ldr	r0, [pc, #120]	; 89b0 <sweep_leak+0x110>
    8934:	eb0000da 	bl	8ca4 <printk>
    8938:	e1963007 	orrs	r3, r6, r7
    893c:	0a000012 	beq	898c <sweep_leak+0xec>
    8940:	e1a02007 	mov	r2, r7
    8944:	e1a01006 	mov	r1, r6
    8948:	e59f0064 	ldr	r0, [pc, #100]	; 89b4 <sweep_leak+0x114>
    894c:	eb0000d4 	bl	8ca4 <printk>
    8950:	e59f0060 	ldr	r0, [pc, #96]	; 89b8 <sweep_leak+0x118>
    8954:	eb0000d2 	bl	8ca4 <printk>
    8958:	e3580000 	cmp	r8, #0, 0
    895c:	10866007 	addne	r6, r6, r7
    8960:	e1a00006 	mov	r0, r6
    8964:	e8bd87f0 	pop	{r4, r5, r6, r7, r8, r9, sl, pc}
    8968:	e1a02004 	mov	r2, r4
    896c:	e1a01005 	mov	r1, r5
    8970:	e1a0000a 	mov	r0, sl
    8974:	e2877001 	add	r7, r7, #1, 0
    8978:	eb0000c9 	bl	8ca4 <printk>
    897c:	eaffffd9 	b	88e8 <sweep_leak+0x48>
    8980:	e1a01004 	mov	r1, r4
    8984:	e59f0024 	ldr	r0, [pc, #36]	; 89b0 <sweep_leak+0x110>
    8988:	eb0000c5 	bl	8ca4 <printk>
    898c:	e3a07000 	mov	r7, #0, 0
    8990:	e59f0024 	ldr	r0, [pc, #36]	; 89bc <sweep_leak+0x11c>
    8994:	e1a06007 	mov	r6, r7
    8998:	eb0000c1 	bl	8ca4 <printk>
    899c:	eaffffeb 	b	8950 <sweep_leak+0xb0>
    89a0:	0000a554 	andeq	sl, r0, r4, asr r5
    89a4:	0000a590 	muleq	r0, r0, r5
    89a8:	0000a5bc 			; <UNDEFINED> instruction: 0x0000a5bc
    89ac:	0000a5a8 	andeq	sl, r0, r8, lsr #11
    89b0:	0000a5d4 	ldrdeq	sl, [r0], -r4
    89b4:	0000a61c 	andeq	sl, r0, ip, lsl r6
    89b8:	0000a64c 	andeq	sl, r0, ip, asr #12
    89bc:	0000a5f4 	strdeq	sl, [r0], -r4

000089c0 <sbrk>:
    89c0:	e92d4030 	push	{r4, r5, lr}
    89c4:	e2504000 	subs	r4, r0, #0, 0
    89c8:	e24dd00c 	sub	sp, sp, #12, 0
    89cc:	da00000e 	ble	8a0c <sbrk+0x4c>
    89d0:	e59f506c 	ldr	r5, [pc, #108]	; 8a44 <sbrk+0x84>
    89d4:	e5953008 	ldr	r3, [r5, #8]
    89d8:	e3530000 	cmp	r3, #0, 0
    89dc:	1a000012 	bne	8a2c <sbrk+0x6c>
    89e0:	e3a01601 	mov	r1, #1048576	; 0x100000
    89e4:	e3a03602 	mov	r3, #2097152	; 0x200000
    89e8:	e1a00001 	mov	r0, r1
    89ec:	e885000a 	stm	r5, {r1, r3}
    89f0:	eb000478 	bl	9bd8 <kmalloc_init_set_start>
    89f4:	e3a03001 	mov	r3, #1, 0
    89f8:	e1a00004 	mov	r0, r4
    89fc:	e5853008 	str	r3, [r5, #8]
    8a00:	e28dd00c 	add	sp, sp, #12, 0
    8a04:	e8bd4030 	pop	{r4, r5, lr}
    8a08:	ea0004d5 	b	9d64 <kmalloc>
    8a0c:	e59f2034 	ldr	r2, [pc, #52]	; 8a48 <sbrk+0x88>
    8a10:	e3a03017 	mov	r3, #23, 0
    8a14:	e59f1030 	ldr	r1, [pc, #48]	; 8a4c <sbrk+0x8c>
    8a18:	e58d2000 	str	r2, [sp]
    8a1c:	e59f002c 	ldr	r0, [pc, #44]	; 8a50 <sbrk+0x90>
    8a20:	e59f202c 	ldr	r2, [pc, #44]	; 8a54 <sbrk+0x94>
    8a24:	eb00009e 	bl	8ca4 <printk>
    8a28:	eb00032e 	bl	96e8 <clean_reboot>
    8a2c:	e3a03019 	mov	r3, #25, 0
    8a30:	e59f201c 	ldr	r2, [pc, #28]	; 8a54 <sbrk+0x94>
    8a34:	e59f1010 	ldr	r1, [pc, #16]	; 8a4c <sbrk+0x8c>
    8a38:	e59f0018 	ldr	r0, [pc, #24]	; 8a58 <sbrk+0x98>
    8a3c:	eb000098 	bl	8ca4 <printk>
    8a40:	eb000328 	bl	96e8 <clean_reboot>
    8a44:	0000abc0 	andeq	sl, r0, r0, asr #23
    8a48:	0000a688 	andeq	sl, r0, r8, lsl #13
    8a4c:	0000a4bc 			; <UNDEFINED> instruction: 0x0000a4bc
    8a50:	0000a354 	andeq	sl, r0, r4, asr r3
    8a54:	0000a7dc 	ldrdeq	sl, [r0], -ip
    8a58:	0000a698 	muleq	r0, r8, r6

00008a5c <ck_find_leaks>:
    8a5c:	eaffff8f 	b	88a0 <sweep_leak>

00008a60 <check_no_leak>:
    8a60:	e92d4010 	push	{r4, lr}
    8a64:	e3a00001 	mov	r0, #1, 0
    8a68:	ebffff8c 	bl	88a0 <sweep_leak>
    8a6c:	e3500000 	cmp	r0, #0, 0
    8a70:	1a000002 	bne	8a80 <check_no_leak+0x20>
    8a74:	e59f001c 	ldr	r0, [pc, #28]	; 8a98 <check_no_leak+0x38>
    8a78:	eb000089 	bl	8ca4 <printk>
    8a7c:	e8bd8010 	pop	{r4, pc}
    8a80:	e3a030dc 	mov	r3, #220, 0	; 0xdc
    8a84:	e59f2010 	ldr	r2, [pc, #16]	; 8a9c <check_no_leak+0x3c>
    8a88:	e59f1010 	ldr	r1, [pc, #16]	; 8aa0 <check_no_leak+0x40>
    8a8c:	e59f0010 	ldr	r0, [pc, #16]	; 8aa4 <check_no_leak+0x44>
    8a90:	eb000083 	bl	8ca4 <printk>
    8a94:	eb000313 	bl	96e8 <clean_reboot>
    8a98:	0000a6e4 	andeq	sl, r0, r4, ror #13
    8a9c:	0000a7e4 	andeq	sl, r0, r4, ror #15
    8aa0:	0000a4bc 			; <UNDEFINED> instruction: 0x0000a4bc
    8aa4:	0000a6b8 			; <UNDEFINED> instruction: 0x0000a6b8

00008aa8 <check_should_leak>:
    8aa8:	e92d4010 	push	{r4, lr}
    8aac:	e3a00001 	mov	r0, #1, 0
    8ab0:	ebffff7a 	bl	88a0 <sweep_leak>
    8ab4:	e2504000 	subs	r4, r0, #0, 0
    8ab8:	0a000004 	beq	8ad0 <check_should_leak+0x28>
    8abc:	e1a01004 	mov	r1, r4
    8ac0:	e59f0020 	ldr	r0, [pc, #32]	; 8ae8 <check_should_leak+0x40>
    8ac4:	eb000076 	bl	8ca4 <printk>
    8ac8:	e1a00004 	mov	r0, r4
    8acc:	e8bd8010 	pop	{r4, pc}
    8ad0:	e3a030eb 	mov	r3, #235, 0	; 0xeb
    8ad4:	e59f2010 	ldr	r2, [pc, #16]	; 8aec <check_should_leak+0x44>
    8ad8:	e59f1010 	ldr	r1, [pc, #16]	; 8af0 <check_should_leak+0x48>
    8adc:	e59f0010 	ldr	r0, [pc, #16]	; 8af4 <check_should_leak+0x4c>
    8ae0:	eb00006f 	bl	8ca4 <printk>
    8ae4:	eb0002ff 	bl	96e8 <clean_reboot>
    8ae8:	0000a72c 	andeq	sl, r0, ip, lsr #14
    8aec:	0000a7f4 	strdeq	sl, [r0], -r4
    8af0:	0000a4bc 			; <UNDEFINED> instruction: 0x0000a4bc
    8af4:	0000a704 	andeq	sl, r0, r4, lsl #14

00008af8 <ck_gc>:
    8af8:	e92d4ff0 	push	{r4, r5, r6, r7, r8, r9, sl, fp, lr}
    8afc:	e24dd014 	sub	sp, sp, #20, 0
    8b00:	ebffff3d 	bl	87fc <mark_all>
    8b04:	e59f00d0 	ldr	r0, [pc, #208]	; 8bdc <ck_gc+0xe4>
    8b08:	eb000065 	bl	8ca4 <printk>
    8b0c:	e59f00cc 	ldr	r0, [pc, #204]	; 8be0 <ck_gc+0xe8>
    8b10:	eb000063 	bl	8ca4 <printk>
    8b14:	ebffff38 	bl	87fc <mark_all>
    8b18:	ebfffd8f 	bl	815c <ck_first_hdr>
    8b1c:	e2504000 	subs	r4, r0, #0, 0
    8b20:	0a000029 	beq	8bcc <ck_gc+0xd4>
    8b24:	e3a05000 	mov	r5, #0, 0
    8b28:	e1a07005 	mov	r7, r5
    8b2c:	e1a06005 	mov	r6, r5
    8b30:	e59fa0ac 	ldr	sl, [pc, #172]	; 8be4 <ck_gc+0xec>
    8b34:	e59f90ac 	ldr	r9, [pc, #172]	; 8be8 <ck_gc+0xf0>
    8b38:	e59f80ac 	ldr	r8, [pc, #172]	; 8bec <ck_gc+0xf4>
    8b3c:	e1d432b4 	ldrh	r3, [r4, #36]	; 0x24
    8b40:	e2866001 	add	r6, r6, #1, 0
    8b44:	e3530000 	cmp	r3, #0, 0
    8b48:	0a00000b 	beq	8b7c <ck_gc+0x84>
    8b4c:	e1a00004 	mov	r0, r4
    8b50:	ebfffd85 	bl	816c <ck_next_hdr>
    8b54:	e2504000 	subs	r4, r0, #0, 0
    8b58:	1afffff7 	bne	8b3c <ck_gc+0x44>
    8b5c:	e1a02007 	mov	r2, r7
    8b60:	e1a01006 	mov	r1, r6
    8b64:	e1a03005 	mov	r3, r5
    8b68:	e59f0080 	ldr	r0, [pc, #128]	; 8bf0 <ck_gc+0xf8>
    8b6c:	eb00004c 	bl	8ca4 <printk>
    8b70:	e1a00005 	mov	r0, r5
    8b74:	e28dd014 	add	sp, sp, #20, 0
    8b78:	e8bd8ff0 	pop	{r4, r5, r6, r7, r8, r9, sl, fp, pc}
    8b7c:	e59f3070 	ldr	r3, [pc, #112]	; 8bf4 <ck_gc+0xfc>
    8b80:	e594c004 	ldr	ip, [r4, #4]
    8b84:	e58d300c 	str	r3, [sp, #12]
    8b88:	e284b0a8 	add	fp, r4, #168, 0	; 0xa8
    8b8c:	e58da004 	str	sl, [sp, #4]
    8b90:	e58d9008 	str	r9, [sp, #8]
    8b94:	e28d3010 	add	r3, sp, #16, 0
    8b98:	e913000e 	ldmdb	r3, {r1, r2, r3}
    8b9c:	e1a0000b 	mov	r0, fp
    8ba0:	e085500c 	add	r5, r5, ip
    8ba4:	ebfffdc7 	bl	82c8 <ckfree>
    8ba8:	e1a0100b 	mov	r1, fp
    8bac:	e1a00008 	mov	r0, r8
    8bb0:	eb00003b 	bl	8ca4 <printk>
    8bb4:	e1a00004 	mov	r0, r4
    8bb8:	ebfffd6b 	bl	816c <ck_next_hdr>
    8bbc:	e2504000 	subs	r4, r0, #0, 0
    8bc0:	e2877001 	add	r7, r7, #1, 0
    8bc4:	1affffdc 	bne	8b3c <ck_gc+0x44>
    8bc8:	eaffffe3 	b	8b5c <ck_gc+0x64>
    8bcc:	e1a05004 	mov	r5, r4
    8bd0:	e1a07004 	mov	r7, r4
    8bd4:	e1a06004 	mov	r6, r4
    8bd8:	eaffffdf 	b	8b5c <ck_gc+0x64>
    8bdc:	0000a554 	andeq	sl, r0, r4, asr r5
    8be0:	0000a750 	andeq	sl, r0, r0, asr r7
    8be4:	0000a4bc 			; <UNDEFINED> instruction: 0x0000a4bc
    8be8:	0000a808 	andeq	sl, r0, r8, lsl #16
    8bec:	0000a760 	andeq	sl, r0, r0, ror #14
    8bf0:	0000a770 	andeq	sl, r0, r0, ror r7
    8bf4:	00000101 	andeq	r0, r0, r1, lsl #2

00008bf8 <implement_this>:
    8bf8:	e92d4010 	push	{r4, lr}
    8bfc:	e59f3010 	ldr	r3, [pc, #16]	; 8c14 <implement_this+0x1c>
    8c00:	e59f2010 	ldr	r2, [pc, #16]	; 8c18 <implement_this+0x20>
    8c04:	e59f1010 	ldr	r1, [pc, #16]	; 8c1c <implement_this+0x24>
    8c08:	e59f0010 	ldr	r0, [pc, #16]	; 8c20 <implement_this+0x28>
    8c0c:	eb000024 	bl	8ca4 <printk>
    8c10:	eb0002b4 	bl	96e8 <clean_reboot>
    8c14:	00000117 	andeq	r0, r0, r7, lsl r1
    8c18:	0000a814 	andeq	sl, r0, r4, lsl r8
    8c1c:	0000a4bc 			; <UNDEFINED> instruction: 0x0000a4bc
    8c20:	0000a7a4 	andeq	sl, r0, r4, lsr #15

00008c24 <dump_regs>:
    8c24:	e8a0ffff 	stmia	r0!, {r0, r1, r2, r3, r4, r5, r6, r7, r8, r9, sl, fp, ip, sp, lr, pc}
    8c28:	e12fff1e 	bx	lr

00008c2c <memset>:
    8c2c:	e92d4010 	push	{r4, lr}
    8c30:	e0804002 	add	r4, r0, r2
    8c34:	e1500004 	cmp	r0, r4
    8c38:	28bd8010 	popcs	{r4, pc}
    8c3c:	e2423001 	sub	r3, r2, #1, 0
    8c40:	e3530002 	cmp	r3, #2, 0
    8c44:	e6ef1071 	uxtb	r1, r1
    8c48:	e1a03000 	mov	r3, r0
    8c4c:	9a00000b 	bls	8c80 <memset+0x54>
    8c50:	e181e401 	orr	lr, r1, r1, lsl #8
    8c54:	e18ee801 	orr	lr, lr, r1, lsl #16
    8c58:	e3c2c003 	bic	ip, r2, #3, 0
    8c5c:	e18eec01 	orr	lr, lr, r1, lsl #24
    8c60:	e08cc000 	add	ip, ip, r0
    8c64:	e483e004 	str	lr, [r3], #4
    8c68:	e153000c 	cmp	r3, ip
    8c6c:	1afffffc 	bne	8c64 <memset+0x38>
    8c70:	e3c23003 	bic	r3, r2, #3, 0
    8c74:	e1520003 	cmp	r2, r3
    8c78:	e0803003 	add	r3, r0, r3
    8c7c:	08bd8010 	popeq	{r4, pc}
    8c80:	e1a02003 	mov	r2, r3
    8c84:	e4c21001 	strb	r1, [r2], #1
    8c88:	e1540002 	cmp	r4, r2
    8c8c:	98bd8010 	popls	{r4, pc}
    8c90:	e2832002 	add	r2, r3, #2, 0
    8c94:	e1540002 	cmp	r4, r2
    8c98:	e5c31001 	strb	r1, [r3, #1]
    8c9c:	85c31002 	strbhi	r1, [r3, #2]
    8ca0:	e8bd8010 	pop	{r4, pc}

00008ca4 <printk>:
    8ca4:	e92d000f 	push	{r0, r1, r2, r3}
    8ca8:	e92d4030 	push	{r4, r5, lr}
    8cac:	e59f5040 	ldr	r5, [pc, #64]	; 8cf4 <printk+0x50>
    8cb0:	e24dd00c 	sub	sp, sp, #12, 0
    8cb4:	e28d301c 	add	r3, sp, #28, 0
    8cb8:	e3a01b01 	mov	r1, #1024	; 0x400
    8cbc:	e59d2018 	ldr	r2, [sp, #24]
    8cc0:	e1a00005 	mov	r0, r5
    8cc4:	e58d3004 	str	r3, [sp, #4]
    8cc8:	eb0000fb 	bl	90bc <va_printk>
    8ccc:	e1a04000 	mov	r4, r0
    8cd0:	e59f3020 	ldr	r3, [pc, #32]	; 8cf8 <printk+0x54>
    8cd4:	e1a00005 	mov	r0, r5
    8cd8:	e5933000 	ldr	r3, [r3]
    8cdc:	e12fff33 	blx	r3
    8ce0:	e1a00004 	mov	r0, r4
    8ce4:	e28dd00c 	add	sp, sp, #12, 0
    8ce8:	e8bd4030 	pop	{r4, r5, lr}
    8cec:	e28dd010 	add	sp, sp, #16, 0
    8cf0:	e12fff1e 	bx	lr
    8cf4:	0000abcc 	andeq	sl, r0, ip, asr #23
    8cf8:	0000ab90 	muleq	r0, r0, fp

00008cfc <internal_putk>:
    8cfc:	e92d4070 	push	{r4, r5, r6, lr}
    8d00:	e1a04000 	mov	r4, r0
    8d04:	e5d00000 	ldrb	r0, [r0]
    8d08:	e3500000 	cmp	r0, #0, 0
    8d0c:	0a000005 	beq	8d28 <internal_putk+0x2c>
    8d10:	e59f5018 	ldr	r5, [pc, #24]	; 8d30 <internal_putk+0x34>
    8d14:	e5953000 	ldr	r3, [r5]
    8d18:	e12fff33 	blx	r3
    8d1c:	e5f40001 	ldrb	r0, [r4, #1]!
    8d20:	e3500000 	cmp	r0, #0, 0
    8d24:	1afffffa 	bne	8d14 <internal_putk+0x18>
    8d28:	e3a00001 	mov	r0, #1, 0
    8d2c:	e8bd8070 	pop	{r4, r5, r6, pc}
    8d30:	0000aba0 	andeq	sl, r0, r0, lsr #23

00008d34 <emit.constprop.0>:
    8d34:	e92d41f0 	push	{r4, r5, r6, r7, r8, lr}
    8d38:	e3530080 	cmp	r3, #128, 0	; 0x80
    8d3c:	e1a0c000 	mov	ip, r0
    8d40:	e24dd048 	sub	sp, sp, #72, 0	; 0x48
    8d44:	e1a00001 	mov	r0, r1
    8d48:	ca000069 	bgt	8ef4 <emit.constprop.0+0x1c0>
    8d4c:	e24c1002 	sub	r1, ip, #2, 0
    8d50:	e1a0c002 	mov	ip, r2
    8d54:	e351000e 	cmp	r1, #14, 0
    8d58:	979ff101 	ldrls	pc, [pc, r1, lsl #2]
    8d5c:	ea0000a7 	b	9000 <emit.constprop.0+0x2cc>
    8d60:	00008ecc 	andeq	r8, r0, ip, asr #29
    8d64:	00009000 	andeq	r9, r0, r0
    8d68:	00009000 	andeq	r9, r0, r0
    8d6c:	00009000 	andeq	r9, r0, r0
    8d70:	00009000 	andeq	r9, r0, r0
    8d74:	00009000 	andeq	r9, r0, r0
    8d78:	00008fa8 	andeq	r8, r0, r8, lsr #31
    8d7c:	00009000 	andeq	r9, r0, r0
    8d80:	00008f48 	andeq	r8, r0, r8, asr #30
    8d84:	00009000 	andeq	r9, r0, r0
    8d88:	00009000 	andeq	r9, r0, r0
    8d8c:	00009000 	andeq	r9, r0, r0
    8d90:	00009000 	andeq	r9, r0, r0
    8d94:	00009000 	andeq	r9, r0, r0
    8d98:	00008da0 	andeq	r8, r0, r0, lsr #27
    8d9c:	e3a0307f 	mov	r3, #127, 0	; 0x7f
    8da0:	e28d2008 	add	r2, sp, #8, 0
    8da4:	e1a04002 	mov	r4, r2
    8da8:	e59f1288 	ldr	r1, [pc, #648]	; 9038 <emit.constprop.0+0x304>
    8dac:	e20ce00f 	and	lr, ip, #15, 0
    8db0:	e7d1e00e 	ldrb	lr, [r1, lr]
    8db4:	e35c000f 	cmp	ip, #15, 0
    8db8:	e4c4e001 	strb	lr, [r4], #1
    8dbc:	e1a0c22c 	lsr	ip, ip, #4
    8dc0:	8afffff9 	bhi	8dac <emit.constprop.0+0x78>
    8dc4:	e3a0c078 	mov	ip, #120, 0	; 0x78
    8dc8:	e1a0e004 	mov	lr, r4
    8dcc:	e3a01030 	mov	r1, #48, 0	; 0x30
    8dd0:	e4cec002 	strb	ip, [lr], #2
    8dd4:	e5c41001 	strb	r1, [r4, #1]
    8dd8:	e04e1002 	sub	r1, lr, r2
    8ddc:	e1510003 	cmp	r1, r3
    8de0:	aa000083 	bge	8ff4 <emit.constprop.0+0x2c0>
    8de4:	e1510003 	cmp	r1, r3
    8de8:	a3a0c001 	movge	ip, #1, 0
    8dec:	b3a0c000 	movlt	ip, #0, 0
    8df0:	e2434001 	sub	r4, r3, #1, 0
    8df4:	e0444001 	sub	r4, r4, r1
    8df8:	b0436001 	sublt	r6, r3, r1
    8dfc:	a3a06001 	movge	r6, #1, 0
    8e00:	e3540002 	cmp	r4, #2, 0
    8e04:	938cc001 	orrls	ip, ip, #1, 0
    8e08:	e35c0000 	cmp	ip, #0, 0
    8e0c:	1a000075 	bne	8fe8 <emit.constprop.0+0x2b4>
    8e10:	e1a0c00e 	mov	ip, lr
    8e14:	e3c65003 	bic	r5, r6, #3, 0
    8e18:	e59f721c 	ldr	r7, [pc, #540]	; 903c <emit.constprop.0+0x308>
    8e1c:	e085500e 	add	r5, r5, lr
    8e20:	e48c7004 	str	r7, [ip], #4
    8e24:	e15c0005 	cmp	ip, r5
    8e28:	1afffffc 	bne	8e20 <emit.constprop.0+0xec>
    8e2c:	e3c6c003 	bic	ip, r6, #3, 0
    8e30:	e156000c 	cmp	r6, ip
    8e34:	e08e500c 	add	r5, lr, ip
    8e38:	e08cc001 	add	ip, ip, r1
    8e3c:	0a000008 	beq	8e64 <emit.constprop.0+0x130>
    8e40:	e3a07020 	mov	r7, #32, 0
    8e44:	e28c8001 	add	r8, ip, #1, 0
    8e48:	e1580003 	cmp	r8, r3
    8e4c:	e5c57000 	strb	r7, [r5]
    8e50:	aa000003 	bge	8e64 <emit.constprop.0+0x130>
    8e54:	e28cc002 	add	ip, ip, #2, 0
    8e58:	e15c0003 	cmp	ip, r3
    8e5c:	e5c57001 	strb	r7, [r5, #1]
    8e60:	b5c57002 	strblt	r7, [r5, #2]
    8e64:	e1510003 	cmp	r1, r3
    8e68:	a3a04000 	movge	r4, #0, 0
    8e6c:	e08e6006 	add	r6, lr, r6
    8e70:	e0461002 	sub	r1, r6, r2
    8e74:	e08ee004 	add	lr, lr, r4
    8e78:	e3a03000 	mov	r3, #0, 0
    8e7c:	e351007f 	cmp	r1, #127, 0	; 0x7f
    8e80:	c241407f 	subgt	r4, r1, #127, 0	; 0x7f
    8e84:	c0822004 	addgt	r2, r2, r4
    8e88:	e152000e 	cmp	r2, lr
    8e8c:	e5c63000 	strb	r3, [r6]
    8e90:	8a00004f 	bhi	8fd4 <emit.constprop.0+0x2a0>
    8e94:	e28ee001 	add	lr, lr, #1, 0
    8e98:	e1a0300e 	mov	r3, lr
    8e9c:	e240c001 	sub	ip, r0, #1, 0
    8ea0:	e5734001 	ldrb	r4, [r3, #-1]!
    8ea4:	e1530002 	cmp	r3, r2
    8ea8:	e5ec4001 	strb	r4, [ip, #1]!
    8eac:	1afffffb 	bne	8ea0 <emit.constprop.0+0x16c>
    8eb0:	e04ee003 	sub	lr, lr, r3
    8eb4:	e3a03000 	mov	r3, #0, 0
    8eb8:	e080e00e 	add	lr, r0, lr
    8ebc:	e5ce3000 	strb	r3, [lr]
    8ec0:	e28dd048 	add	sp, sp, #72, 0	; 0x48
    8ec4:	e8bd81f0 	pop	{r4, r5, r6, r7, r8, pc}
    8ec8:	e3a0307f 	mov	r3, #127, 0	; 0x7f
    8ecc:	e28d2008 	add	r2, sp, #8, 0
    8ed0:	e1a0e002 	mov	lr, r2
    8ed4:	e59f1164 	ldr	r1, [pc, #356]	; 9040 <emit.constprop.0+0x30c>
    8ed8:	e20c4001 	and	r4, ip, #1, 0
    8edc:	e7d14004 	ldrb	r4, [r1, r4]
    8ee0:	e35c0001 	cmp	ip, #1, 0
    8ee4:	e4ce4001 	strb	r4, [lr], #1
    8ee8:	e1a0c0ac 	lsr	ip, ip, #1
    8eec:	8afffff9 	bhi	8ed8 <emit.constprop.0+0x1a4>
    8ef0:	eaffffb8 	b	8dd8 <emit.constprop.0+0xa4>
    8ef4:	e24c3002 	sub	r3, ip, #2, 0
    8ef8:	e1a0c002 	mov	ip, r2
    8efc:	e353000e 	cmp	r3, #14, 0
    8f00:	979ff103 	ldrls	pc, [pc, r3, lsl #2]
    8f04:	ea00003d 	b	9000 <emit.constprop.0+0x2cc>
    8f08:	00008ec8 	andeq	r8, r0, r8, asr #29
    8f0c:	00009000 	andeq	r9, r0, r0
    8f10:	00009000 	andeq	r9, r0, r0
    8f14:	00009000 	andeq	r9, r0, r0
    8f18:	00009000 	andeq	r9, r0, r0
    8f1c:	00009000 	andeq	r9, r0, r0
    8f20:	00009020 	andeq	r9, r0, r0, lsr #32
    8f24:	00009000 	andeq	r9, r0, r0
    8f28:	00008f44 	andeq	r8, r0, r4, asr #30
    8f2c:	00009000 	andeq	r9, r0, r0
    8f30:	00009000 	andeq	r9, r0, r0
    8f34:	00009000 	andeq	r9, r0, r0
    8f38:	00009000 	andeq	r9, r0, r0
    8f3c:	00009000 	andeq	r9, r0, r0
    8f40:	00008d9c 	muleq	r0, ip, sp
    8f44:	e3a0307f 	mov	r3, #127, 0	; 0x7f
    8f48:	e59d1060 	ldr	r1, [sp, #96]	; 0x60
    8f4c:	e59f70f0 	ldr	r7, [pc, #240]	; 9044 <emit.constprop.0+0x310>
    8f50:	e0118fa2 	ands	r8, r1, r2, lsr #31
    8f54:	1262c000 	rsbne	ip, r2, #0, 0
    8f58:	e28d2008 	add	r2, sp, #8, 0
    8f5c:	13a08001 	movne	r8, #1, 0
    8f60:	e1a0e002 	mov	lr, r2
    8f64:	e59f60dc 	ldr	r6, [pc, #220]	; 9048 <emit.constprop.0+0x314>
    8f68:	e1a0500c 	mov	r5, ip
    8f6c:	e0814c96 	umull	r4, r1, r6, ip
    8f70:	e1a011a1 	lsr	r1, r1, #3
    8f74:	e0814101 	add	r4, r1, r1, lsl #2
    8f78:	e04cc084 	sub	ip, ip, r4, lsl #1
    8f7c:	e7d7400c 	ldrb	r4, [r7, ip]
    8f80:	e3550009 	cmp	r5, #9, 0
    8f84:	e1a0c001 	mov	ip, r1
    8f88:	e1a0100e 	mov	r1, lr
    8f8c:	e4ce4001 	strb	r4, [lr], #1
    8f90:	8afffff4 	bhi	8f68 <emit.constprop.0+0x234>
    8f94:	e3580000 	cmp	r8, #0, 0
    8f98:	13a0c02d 	movne	ip, #45, 0	; 0x2d
    8f9c:	15cec000 	strbne	ip, [lr]
    8fa0:	1281e002 	addne	lr, r1, #2, 0
    8fa4:	eaffff8b 	b	8dd8 <emit.constprop.0+0xa4>
    8fa8:	e3530001 	cmp	r3, #1, 0
    8fac:	e5cd2008 	strb	r2, [sp, #8]
    8fb0:	c3a01001 	movgt	r1, #1, 0
    8fb4:	c28de009 	addgt	lr, sp, #9, 0
    8fb8:	c28d2008 	addgt	r2, sp, #8, 0
    8fbc:	caffff88 	bgt	8de4 <emit.constprop.0+0xb0>
    8fc0:	e3a03000 	mov	r3, #0, 0
    8fc4:	e28de008 	add	lr, sp, #8, 0
    8fc8:	e1a0200e 	mov	r2, lr
    8fcc:	e5cd3009 	strb	r3, [sp, #9]
    8fd0:	eaffffaf 	b	8e94 <emit.constprop.0+0x160>
    8fd4:	e1a0e000 	mov	lr, r0
    8fd8:	e3a03000 	mov	r3, #0, 0
    8fdc:	e5ce3000 	strb	r3, [lr]
    8fe0:	e28dd048 	add	sp, sp, #72, 0	; 0x48
    8fe4:	e8bd81f0 	pop	{r4, r5, r6, r7, r8, pc}
    8fe8:	e1a0c001 	mov	ip, r1
    8fec:	e1a0500e 	mov	r5, lr
    8ff0:	eaffff92 	b	8e40 <emit.constprop.0+0x10c>
    8ff4:	e1a0600e 	mov	r6, lr
    8ff8:	e24ee001 	sub	lr, lr, #1, 0
    8ffc:	eaffff9d 	b	8e78 <emit.constprop.0+0x144>
    9000:	e59f2044 	ldr	r2, [pc, #68]	; 904c <emit.constprop.0+0x318>
    9004:	e3a03079 	mov	r3, #121, 0	; 0x79
    9008:	e59f1040 	ldr	r1, [pc, #64]	; 9050 <emit.constprop.0+0x31c>
    900c:	e58d2000 	str	r2, [sp]
    9010:	e59f003c 	ldr	r0, [pc, #60]	; 9054 <emit.constprop.0+0x320>
    9014:	e59f203c 	ldr	r2, [pc, #60]	; 9058 <emit.constprop.0+0x324>
    9018:	ebffff21 	bl	8ca4 <printk>
    901c:	eb0001b1 	bl	96e8 <clean_reboot>
    9020:	e5cd2008 	strb	r2, [sp, #8]
    9024:	e3a0307f 	mov	r3, #127, 0	; 0x7f
    9028:	e3a01001 	mov	r1, #1, 0
    902c:	e28de009 	add	lr, sp, #9, 0
    9030:	e28d2008 	add	r2, sp, #8, 0
    9034:	eaffff6a 	b	8de4 <emit.constprop.0+0xb0>
    9038:	0000a838 	andeq	sl, r0, r8, lsr r8
    903c:	20202020 	eorcs	r2, r0, r0, lsr #32
    9040:	0000a84c 	andeq	sl, r0, ip, asr #16
    9044:	0000a850 	andeq	sl, r0, r0, asr r8
    9048:	cccccccd 	stclgt	12, cr12, [ip], {205}	; 0xcd
    904c:	0000a694 	muleq	r0, r4, r6
    9050:	0000a824 	andeq	sl, r0, r4, lsr #16
    9054:	0000a354 	andeq	sl, r0, r4, asr r3
    9058:	0000a964 	andeq	sl, r0, r4, ror #18

0000905c <rpi_set_output>:
    905c:	e3500000 	cmp	r0, #0, 0
    9060:	0a000005 	beq	907c <rpi_set_output+0x20>
    9064:	e59f3038 	ldr	r3, [pc, #56]	; 90a4 <rpi_set_output+0x48>
    9068:	e3510000 	cmp	r1, #0, 0
    906c:	e5830000 	str	r0, [r3]
    9070:	159f3030 	ldrne	r3, [pc, #48]	; 90a8 <rpi_set_output+0x4c>
    9074:	15831000 	strne	r1, [r3]
    9078:	e12fff1e 	bx	lr
    907c:	e52de004 	push	{lr}		; (str lr, [sp, #-4]!)
    9080:	e59f2024 	ldr	r2, [pc, #36]	; 90ac <rpi_set_output+0x50>
    9084:	e24dd00c 	sub	sp, sp, #12, 0
    9088:	e3a03020 	mov	r3, #32, 0
    908c:	e59f101c 	ldr	r1, [pc, #28]	; 90b0 <rpi_set_output+0x54>
    9090:	e58d2000 	str	r2, [sp]
    9094:	e59f0018 	ldr	r0, [pc, #24]	; 90b4 <rpi_set_output+0x58>
    9098:	e59f2018 	ldr	r2, [pc, #24]	; 90b8 <rpi_set_output+0x5c>
    909c:	ebffff00 	bl	8ca4 <printk>
    90a0:	eb000190 	bl	96e8 <clean_reboot>
    90a4:	0000aba0 	andeq	sl, r0, r0, lsr #23
    90a8:	0000ab90 	muleq	r0, r0, fp
    90ac:	0000a85c 	andeq	sl, r0, ip, asr r8
    90b0:	0000a824 	andeq	sl, r0, r4, lsr #16
    90b4:	0000a354 	andeq	sl, r0, r4, asr r3
    90b8:	0000a96c 	andeq	sl, r0, ip, ror #18

000090bc <va_printk>:
    90bc:	e92d4ff0 	push	{r4, r5, r6, r7, r8, r9, sl, fp, lr}
    90c0:	e1a0b000 	mov	fp, r0
    90c4:	e3a00000 	mov	r0, #0, 0
    90c8:	e5cb0000 	strb	r0, [fp]
    90cc:	e5d2c000 	ldrb	ip, [r2]
    90d0:	e2417001 	sub	r7, r1, #1, 0
    90d4:	e08b7007 	add	r7, fp, r7
    90d8:	e15c0000 	cmp	ip, r0
    90dc:	115b0007 	cmpne	fp, r7
    90e0:	e24ddf47 	sub	sp, sp, #284	; 0x11c
    90e4:	e58d2010 	str	r2, [sp, #16]
    90e8:	2a000159 	bcs	9654 <va_printk+0x598>
    90ec:	e1a06002 	mov	r6, r2
    90f0:	e1a08003 	mov	r8, r3
    90f4:	e1a0400b 	mov	r4, fp
    90f8:	e59fa5a4 	ldr	sl, [pc, #1444]	; 96a4 <va_printk+0x5e8>
    90fc:	e58db00c 	str	fp, [sp, #12]
    9100:	ea000005 	b	911c <va_printk+0x60>
    9104:	e4c4c001 	strb	ip, [r4], #1
    9108:	e2866001 	add	r6, r6, #1, 0
    910c:	e5d6c000 	ldrb	ip, [r6]
    9110:	e35c0000 	cmp	ip, #0, 0
    9114:	11570004 	cmpne	r7, r4
    9118:	9a00002f 	bls	91dc <va_printk+0x120>
    911c:	e35c0025 	cmp	ip, #37, 0	; 0x25
    9120:	1afffff7 	bne	9104 <va_printk+0x48>
    9124:	e5d62001 	ldrb	r2, [r6, #1]
    9128:	e3520025 	cmp	r2, #37, 0	; 0x25
    912c:	04c4c001 	strbeq	ip, [r4], #1
    9130:	02866002 	addeq	r6, r6, #2, 0
    9134:	0afffff4 	beq	910c <va_printk+0x50>
    9138:	e2423030 	sub	r3, r2, #48, 0	; 0x30
    913c:	e3530009 	cmp	r3, #9, 0
    9140:	e3a05000 	mov	r5, #0, 0
    9144:	e2866001 	add	r6, r6, #1, 0
    9148:	8a000008 	bhi	9170 <va_printk+0xb4>
    914c:	e0855105 	add	r5, r5, r5, lsl #2
    9150:	e0825085 	add	r5, r2, r5, lsl #1
    9154:	e5f62001 	ldrb	r2, [r6, #1]!
    9158:	e2455030 	sub	r5, r5, #48, 0	; 0x30
    915c:	e2423030 	sub	r3, r2, #48, 0	; 0x30
    9160:	e3530009 	cmp	r3, #9, 0
    9164:	9afffff8 	bls	914c <va_printk+0x90>
    9168:	e355001f 	cmp	r5, #31, 0
    916c:	8a00013a 	bhi	965c <va_printk+0x5a0>
    9170:	e2423062 	sub	r3, r2, #98, 0	; 0x62
    9174:	e3530016 	cmp	r3, #22, 0
    9178:	979ff103 	ldrls	pc, [pc, r3, lsl #2]
    917c:	ea00011b 	b	95f0 <va_printk+0x534>
    9180:	00009434 	andeq	r9, r0, r4, lsr r4
    9184:	00009330 	andeq	r9, r0, r0, lsr r3
    9188:	00009328 	andeq	r9, r0, r8, lsr #6
    918c:	000095f0 	strdeq	r9, [r0], -r0
    9190:	0000962c 	andeq	r9, r0, ip, lsr #12
    9194:	000095f0 	strdeq	r9, [r0], -r0
    9198:	000095f0 	strdeq	r9, [r0], -r0
    919c:	000095f0 	strdeq	r9, [r0], -r0
    91a0:	000095f0 	strdeq	r9, [r0], -r0
    91a4:	000095f0 	strdeq	r9, [r0], -r0
    91a8:	00009238 	andeq	r9, r0, r8, lsr r2
    91ac:	000095f0 	strdeq	r9, [r0], -r0
    91b0:	000095f0 	strdeq	r9, [r0], -r0
    91b4:	000095f0 	strdeq	r9, [r0], -r0
    91b8:	000091f4 	strdeq	r9, [r0], -r4
    91bc:	000095f0 	strdeq	r9, [r0], -r0
    91c0:	000095f0 	strdeq	r9, [r0], -r0
    91c4:	0000952c 	andeq	r9, r0, ip, lsr #10
    91c8:	000095f0 	strdeq	r9, [r0], -r0
    91cc:	00009304 	andeq	r9, r0, r4, lsl #6
    91d0:	000095f0 	strdeq	r9, [r0], -r0
    91d4:	000095f0 	strdeq	r9, [r0], -r0
    91d8:	000091f4 	strdeq	r9, [r0], -r4
    91dc:	e59db00c 	ldr	fp, [sp, #12]
    91e0:	e3a03000 	mov	r3, #0, 0
    91e4:	e4c43001 	strb	r3, [r4], #1
    91e8:	e044000b 	sub	r0, r4, fp
    91ec:	e28ddf47 	add	sp, sp, #284	; 0x11c
    91f0:	e8bd8ff0 	pop	{r4, r5, r6, r7, r8, r9, sl, fp, pc}
    91f4:	e3a01000 	mov	r1, #0, 0
    91f8:	e1a03005 	mov	r3, r5
    91fc:	e4982004 	ldr	r2, [r8], #4
    9200:	e3a00010 	mov	r0, #16, 0
    9204:	e58d1000 	str	r1, [sp]
    9208:	e28d1018 	add	r1, sp, #24, 0
    920c:	ebfffec8 	bl	8d34 <emit.constprop.0>
    9210:	e1a05000 	mov	r5, r0
    9214:	e2866001 	add	r6, r6, #1, 0
    9218:	e2455001 	sub	r5, r5, #1, 0
    921c:	e5f53001 	ldrb	r3, [r5, #1]!
    9220:	e3530000 	cmp	r3, #0, 0
    9224:	0affffb8 	beq	910c <va_printk+0x50>
    9228:	e4c43001 	strb	r3, [r4], #1
    922c:	e1570004 	cmp	r7, r4
    9230:	8afffff9 	bhi	921c <va_printk+0x160>
    9234:	eaffffb4 	b	910c <va_printk+0x50>
    9238:	e3a02003 	mov	r2, #3, 0
    923c:	e1a00006 	mov	r0, r6
    9240:	e59f1460 	ldr	r1, [pc, #1120]	; 96a8 <va_printk+0x5ec>
    9244:	eb0003da 	bl	a1b4 <strncmp>
    9248:	e3500000 	cmp	r0, #0, 0
    924c:	0a000005 	beq	9268 <va_printk+0x1ac>
    9250:	e3a02003 	mov	r2, #3, 0
    9254:	e1a00006 	mov	r0, r6
    9258:	e59f144c 	ldr	r1, [pc, #1100]	; 96ac <va_printk+0x5f0>
    925c:	eb0003d4 	bl	a1b4 <strncmp>
    9260:	e3500000 	cmp	r0, #0, 0
    9264:	1a00010b 	bne	9698 <va_printk+0x5dc>
    9268:	e2888007 	add	r8, r8, #7, 0
    926c:	e3c88007 	bic	r8, r8, #7, 0
    9270:	e598b004 	ldr	fp, [r8, #4]
    9274:	e4989008 	ldr	r9, [r8], #8
    9278:	e1a0100b 	mov	r1, fp
    927c:	e59f042c 	ldr	r0, [pc, #1068]	; 96b0 <va_printk+0x5f4>
    9280:	ebfffe87 	bl	8ca4 <printk>
    9284:	e1a01009 	mov	r1, r9
    9288:	e59f0424 	ldr	r0, [pc, #1060]	; 96b4 <va_printk+0x5f8>
    928c:	ebfffe84 	bl	8ca4 <printk>
    9290:	e3a02003 	mov	r2, #3, 0
    9294:	e1a00006 	mov	r0, r6
    9298:	e59f1408 	ldr	r1, [pc, #1032]	; 96a8 <va_printk+0x5ec>
    929c:	eb0003c4 	bl	a1b4 <strncmp>
    92a0:	e2503000 	subs	r3, r0, #0, 0
    92a4:	e1a02003 	mov	r2, r3
    92a8:	e2863002 	add	r3, r6, #2, 0
    92ac:	e58d3014 	str	r3, [sp, #20]
    92b0:	1a00009f 	bne	9534 <va_printk+0x478>
    92b4:	e1a06002 	mov	r6, r2
    92b8:	e1a03005 	mov	r3, r5
    92bc:	e58d2000 	str	r2, [sp]
    92c0:	e28d1018 	add	r1, sp, #24, 0
    92c4:	e1a0200b 	mov	r2, fp
    92c8:	e3a00010 	mov	r0, #16, 0
    92cc:	ebfffe98 	bl	8d34 <emit.constprop.0>
    92d0:	e1a0c000 	mov	ip, r0
    92d4:	e1a03005 	mov	r3, r5
    92d8:	e58d6000 	str	r6, [sp]
    92dc:	e28d1098 	add	r1, sp, #152, 0	; 0x98
    92e0:	e1a02009 	mov	r2, r9
    92e4:	e3a00010 	mov	r0, #16, 0
    92e8:	e1a0500c 	mov	r5, ip
    92ec:	ebfffe90 	bl	8d34 <emit.constprop.0>
    92f0:	e28d0018 	add	r0, sp, #24, 0
    92f4:	e28d109a 	add	r1, sp, #154, 0	; 0x9a
    92f8:	e59d6014 	ldr	r6, [sp, #20]
    92fc:	eb00038a 	bl	a12c <strcat>
    9300:	eaffffc3 	b	9214 <va_printk+0x158>
    9304:	e3a01000 	mov	r1, #0, 0
    9308:	e1a03005 	mov	r3, r5
    930c:	e4982004 	ldr	r2, [r8], #4
    9310:	e3a0000a 	mov	r0, #10, 0
    9314:	e58d1000 	str	r1, [sp]
    9318:	e28d1018 	add	r1, sp, #24, 0
    931c:	ebfffe84 	bl	8d34 <emit.constprop.0>
    9320:	e1a05000 	mov	r5, r0
    9324:	eaffffba 	b	9214 <va_printk+0x158>
    9328:	e3a01001 	mov	r1, #1, 0
    932c:	eafffff5 	b	9308 <va_printk+0x24c>
    9330:	e4983004 	ldr	r3, [r8], #4
    9334:	e3550001 	cmp	r5, #1, 0
    9338:	e5cd3098 	strb	r3, [sp, #152]	; 0x98
    933c:	9a0000a6 	bls	95dc <va_printk+0x520>
    9340:	e2453002 	sub	r3, r5, #2, 0
    9344:	e3530002 	cmp	r3, #2, 0
    9348:	e2451001 	sub	r1, r5, #1, 0
    934c:	9a0000bc 	bls	9644 <va_printk+0x588>
    9350:	e59f0360 	ldr	r0, [pc, #864]	; 96b8 <va_printk+0x5fc>
    9354:	e1a02121 	lsr	r2, r1, #2
    9358:	e3520001 	cmp	r2, #1, 0
    935c:	e58d0099 	str	r0, [sp, #153]	; 0x99
    9360:	0a00000e 	beq	93a0 <va_printk+0x2e4>
    9364:	e3520002 	cmp	r2, #2, 0
    9368:	e58d009d 	str	r0, [sp, #157]	; 0x9d
    936c:	0a00000b 	beq	93a0 <va_printk+0x2e4>
    9370:	e3520003 	cmp	r2, #3, 0
    9374:	e58d00a1 	str	r0, [sp, #161]	; 0xa1
    9378:	0a000008 	beq	93a0 <va_printk+0x2e4>
    937c:	e3520004 	cmp	r2, #4, 0
    9380:	e58d00a5 	str	r0, [sp, #165]	; 0xa5
    9384:	0a000005 	beq	93a0 <va_printk+0x2e4>
    9388:	e3520005 	cmp	r2, #5, 0
    938c:	e58d00a9 	str	r0, [sp, #169]	; 0xa9
    9390:	0a000002 	beq	93a0 <va_printk+0x2e4>
    9394:	e3520007 	cmp	r2, #7, 0
    9398:	e58d00ad 	str	r0, [sp, #173]	; 0xad
    939c:	058d00b1 	streq	r0, [sp, #177]	; 0xb1
    93a0:	e3c12003 	bic	r2, r1, #3, 0
    93a4:	e1510002 	cmp	r1, r2
    93a8:	e28dc099 	add	ip, sp, #153, 0	; 0x99
    93ac:	e08c0002 	add	r0, ip, r2
    93b0:	e2822001 	add	r2, r2, #1, 0
    93b4:	0a000008 	beq	93dc <va_printk+0x320>
    93b8:	e3a0e020 	mov	lr, #32, 0
    93bc:	e2829001 	add	r9, r2, #1, 0
    93c0:	e1550009 	cmp	r5, r9
    93c4:	e5c0e000 	strb	lr, [r0]
    93c8:	da000003 	ble	93dc <va_printk+0x320>
    93cc:	e2822002 	add	r2, r2, #2, 0
    93d0:	e1550002 	cmp	r5, r2
    93d4:	e5c0e001 	strb	lr, [r0, #1]
    93d8:	c5c0e002 	strbgt	lr, [r0, #2]
    93dc:	e3a0e000 	mov	lr, #0, 0
    93e0:	e28d0098 	add	r0, sp, #152, 0	; 0x98
    93e4:	e08c2001 	add	r2, ip, r1
    93e8:	e0422000 	sub	r2, r2, r0
    93ec:	e352007f 	cmp	r2, #127, 0	; 0x7f
    93f0:	c242207f 	subgt	r2, r2, #127, 0	; 0x7f
    93f4:	e08c3003 	add	r3, ip, r3
    93f8:	c0800002 	addgt	r0, r0, r2
    93fc:	e1530000 	cmp	r3, r0
    9400:	e7cce001 	strb	lr, [ip, r1]
    9404:	3a00006c 	bcc	95bc <va_printk+0x500>
    9408:	e283c001 	add	ip, r3, #1, 0
    940c:	e1a0300c 	mov	r3, ip
    9410:	e28d5018 	add	r5, sp, #24, 0
    9414:	e2452001 	sub	r2, r5, #1, 0
    9418:	e5731001 	ldrb	r1, [r3, #-1]!
    941c:	e1500003 	cmp	r0, r3
    9420:	e5e21001 	strb	r1, [r2, #1]!
    9424:	1afffffb 	bne	9418 <va_printk+0x35c>
    9428:	e04c3000 	sub	r3, ip, r0
    942c:	e0853003 	add	r3, r5, r3
    9430:	ea00003a 	b	9520 <va_printk+0x464>
    9434:	e28d1098 	add	r1, sp, #152, 0	; 0x98
    9438:	e1a03001 	mov	r3, r1
    943c:	e4980004 	ldr	r0, [r8], #4
    9440:	e200c001 	and	ip, r0, #1, 0
    9444:	e7dac00c 	ldrb	ip, [sl, ip]
    9448:	e3500001 	cmp	r0, #1, 0
    944c:	e1a02003 	mov	r2, r3
    9450:	e1a000a0 	lsr	r0, r0, #1
    9454:	e4c3c001 	strb	ip, [r3], #1
    9458:	8afffff8 	bhi	9440 <va_printk+0x384>
    945c:	e0430001 	sub	r0, r3, r1
    9460:	e1550000 	cmp	r5, r0
    9464:	da000057 	ble	95c8 <va_printk+0x50c>
    9468:	e045c000 	sub	ip, r5, r0
    946c:	e24ce001 	sub	lr, ip, #1, 0
    9470:	e35e0002 	cmp	lr, #2, 0
    9474:	e1a0e003 	mov	lr, r3
    9478:	9a00000a 	bls	94a8 <va_printk+0x3ec>
    947c:	e3cc9003 	bic	r9, ip, #3, 0
    9480:	e0899003 	add	r9, r9, r3
    9484:	e59fb22c 	ldr	fp, [pc, #556]	; 96b8 <va_printk+0x5fc>
    9488:	e48eb004 	str	fp, [lr], #4
    948c:	e15e0009 	cmp	lr, r9
    9490:	1afffffb 	bne	9484 <va_printk+0x3c8>
    9494:	e3cce003 	bic	lr, ip, #3, 0
    9498:	e15e000c 	cmp	lr, ip
    949c:	e080000e 	add	r0, r0, lr
    94a0:	e083e00e 	add	lr, r3, lr
    94a4:	0a000008 	beq	94cc <va_printk+0x410>
    94a8:	e3a09020 	mov	r9, #32, 0
    94ac:	e280b001 	add	fp, r0, #1, 0
    94b0:	e155000b 	cmp	r5, fp
    94b4:	e5ce9000 	strb	r9, [lr]
    94b8:	da000003 	ble	94cc <va_printk+0x410>
    94bc:	e2800002 	add	r0, r0, #2, 0
    94c0:	e1550000 	cmp	r5, r0
    94c4:	e5ce9001 	strb	r9, [lr, #1]
    94c8:	c5ce9002 	strbgt	r9, [lr, #2]
    94cc:	e3a0e000 	mov	lr, #0, 0
    94d0:	e083000c 	add	r0, r3, ip
    94d4:	e0400001 	sub	r0, r0, r1
    94d8:	e350007f 	cmp	r0, #127, 0	; 0x7f
    94dc:	e082200c 	add	r2, r2, ip
    94e0:	e7c3e00c 	strb	lr, [r3, ip]
    94e4:	da000001 	ble	94f0 <va_printk+0x434>
    94e8:	e240007f 	sub	r0, r0, #127, 0	; 0x7f
    94ec:	e0811000 	add	r1, r1, r0
    94f0:	e1510002 	cmp	r1, r2
    94f4:	8a000030 	bhi	95bc <va_printk+0x500>
    94f8:	e2822001 	add	r2, r2, #1, 0
    94fc:	e1a03002 	mov	r3, r2
    9500:	e28d5018 	add	r5, sp, #24, 0
    9504:	e245c001 	sub	ip, r5, #1, 0
    9508:	e5730001 	ldrb	r0, [r3, #-1]!
    950c:	e1530001 	cmp	r3, r1
    9510:	e5ec0001 	strb	r0, [ip, #1]!
    9514:	1afffffb 	bne	9508 <va_printk+0x44c>
    9518:	e0423003 	sub	r3, r2, r3
    951c:	e0853003 	add	r3, r5, r3
    9520:	e3a02000 	mov	r2, #0, 0
    9524:	e5c32000 	strb	r2, [r3]
    9528:	eaffff39 	b	9214 <va_printk+0x158>
    952c:	e4985004 	ldr	r5, [r8], #4
    9530:	eaffff37 	b	9214 <va_printk+0x158>
    9534:	e3a02003 	mov	r2, #3, 0
    9538:	e1a00006 	mov	r0, r6
    953c:	e59f1168 	ldr	r1, [pc, #360]	; 96ac <va_printk+0x5f0>
    9540:	eb00031b 	bl	a1b4 <strncmp>
    9544:	e2503000 	subs	r3, r0, #0, 0
    9548:	1a00004b 	bne	967c <va_printk+0x5c0>
    954c:	e1a06003 	mov	r6, r3
    9550:	e1a0200b 	mov	r2, fp
    9554:	e58d3000 	str	r3, [sp]
    9558:	e28d1018 	add	r1, sp, #24, 0
    955c:	e1a03005 	mov	r3, r5
    9560:	e3a0000a 	mov	r0, #10, 0
    9564:	ebfffdf2 	bl	8d34 <emit.constprop.0>
    9568:	e1a0c000 	mov	ip, r0
    956c:	e1a03005 	mov	r3, r5
    9570:	e1a02009 	mov	r2, r9
    9574:	e28d1098 	add	r1, sp, #152, 0	; 0x98
    9578:	e3a0000a 	mov	r0, #10, 0
    957c:	e58d6000 	str	r6, [sp]
    9580:	e1a0500c 	mov	r5, ip
    9584:	ebfffdea 	bl	8d34 <emit.constprop.0>
    9588:	e59f112c 	ldr	r1, [pc, #300]	; 96bc <va_printk+0x600>
    958c:	e28d0018 	add	r0, sp, #24, 0
    9590:	eb0002f0 	bl	a158 <strcmp>
    9594:	e3500000 	cmp	r0, #0, 0
    9598:	e28d1098 	add	r1, sp, #152, 0	; 0x98
    959c:	e28d0018 	add	r0, sp, #24, 0
    95a0:	1a000002 	bne	95b0 <va_printk+0x4f4>
    95a4:	eb0002fc 	bl	a19c <strcpy>
    95a8:	e59d6014 	ldr	r6, [sp, #20]
    95ac:	eaffff18 	b	9214 <va_printk+0x158>
    95b0:	eb0002dd 	bl	a12c <strcat>
    95b4:	e59d6014 	ldr	r6, [sp, #20]
    95b8:	eaffff15 	b	9214 <va_printk+0x158>
    95bc:	e28d5018 	add	r5, sp, #24, 0
    95c0:	e1a03005 	mov	r3, r5
    95c4:	eaffffd5 	b	9520 <va_printk+0x464>
    95c8:	e3a0c000 	mov	ip, #0, 0
    95cc:	e350007f 	cmp	r0, #127, 0	; 0x7f
    95d0:	e5c3c000 	strb	ip, [r3]
    95d4:	caffffc3 	bgt	94e8 <va_printk+0x42c>
    95d8:	eaffffc6 	b	94f8 <va_printk+0x43c>
    95dc:	e3a02000 	mov	r2, #0, 0
    95e0:	e28d3098 	add	r3, sp, #152, 0	; 0x98
    95e4:	e1a00003 	mov	r0, r3
    95e8:	e5cd2099 	strb	r2, [sp, #153]	; 0x99
    95ec:	eaffff85 	b	9408 <va_printk+0x34c>
    95f0:	e3a03000 	mov	r3, #0, 0
    95f4:	e1a01002 	mov	r1, r2
    95f8:	e5c63001 	strb	r3, [r6, #1]
    95fc:	e59f00bc 	ldr	r0, [pc, #188]	; 96c0 <va_printk+0x604>
    9600:	ebfffda7 	bl	8ca4 <printk>
    9604:	e59f30b8 	ldr	r3, [pc, #184]	; 96c4 <va_printk+0x608>
    9608:	e59d0010 	ldr	r0, [sp, #16]
    960c:	e5933000 	ldr	r3, [r3]
    9610:	e12fff33 	blx	r3
    9614:	e3a030e2 	mov	r3, #226, 0	; 0xe2
    9618:	e59f20a8 	ldr	r2, [pc, #168]	; 96c8 <va_printk+0x60c>
    961c:	e59f10a8 	ldr	r1, [pc, #168]	; 96cc <va_printk+0x610>
    9620:	e59f00a8 	ldr	r0, [pc, #168]	; 96d0 <va_printk+0x614>
    9624:	ebfffd9e 	bl	8ca4 <printk>
    9628:	eb00002e 	bl	96e8 <clean_reboot>
    962c:	e3a030be 	mov	r3, #190, 0	; 0xbe
    9630:	e59f2090 	ldr	r2, [pc, #144]	; 96c8 <va_printk+0x60c>
    9634:	e59f1090 	ldr	r1, [pc, #144]	; 96cc <va_printk+0x610>
    9638:	e59f0094 	ldr	r0, [pc, #148]	; 96d4 <va_printk+0x618>
    963c:	ebfffd98 	bl	8ca4 <printk>
    9640:	eb000028 	bl	96e8 <clean_reboot>
    9644:	e28dc099 	add	ip, sp, #153, 0	; 0x99
    9648:	e1a0000c 	mov	r0, ip
    964c:	e3a02001 	mov	r2, #1, 0
    9650:	eaffff58 	b	93b8 <va_printk+0x2fc>
    9654:	e1a0400b 	mov	r4, fp
    9658:	eafffee0 	b	91e0 <va_printk+0x124>
    965c:	e3a03098 	mov	r3, #152, 0	; 0x98
    9660:	e59f2070 	ldr	r2, [pc, #112]	; 96d8 <va_printk+0x61c>
    9664:	e59f1060 	ldr	r1, [pc, #96]	; 96cc <va_printk+0x610>
    9668:	e58d2000 	str	r2, [sp]
    966c:	e59f0068 	ldr	r0, [pc, #104]	; 96dc <va_printk+0x620>
    9670:	e59f2050 	ldr	r2, [pc, #80]	; 96c8 <va_printk+0x60c>
    9674:	ebfffd8a 	bl	8ca4 <printk>
    9678:	eb00001a 	bl	96e8 <clean_reboot>
    967c:	e3a030b6 	mov	r3, #182, 0	; 0xb6
    9680:	e59f2040 	ldr	r2, [pc, #64]	; 96c8 <va_printk+0x60c>
    9684:	e59f1040 	ldr	r1, [pc, #64]	; 96cc <va_printk+0x610>
    9688:	e59f0050 	ldr	r0, [pc, #80]	; 96e0 <va_printk+0x624>
    968c:	e58d6000 	str	r6, [sp]
    9690:	ebfffd83 	bl	8ca4 <printk>
    9694:	eb000013 	bl	96e8 <clean_reboot>
    9698:	e3a0309f 	mov	r3, #159, 0	; 0x9f
    969c:	e59f2040 	ldr	r2, [pc, #64]	; 96e4 <va_printk+0x628>
    96a0:	eaffffef 	b	9664 <va_printk+0x5a8>
    96a4:	0000a84c 	andeq	sl, r0, ip, asr #16
    96a8:	0000a870 	andeq	sl, r0, r0, ror r8
    96ac:	0000a884 	andeq	sl, r0, r4, lsl #17
    96b0:	0000a874 	andeq	sl, r0, r4, ror r8
    96b4:	0000a87c 	andeq	sl, r0, ip, ror r8
    96b8:	20202020 	eorcs	r2, r0, r0, lsr #32
    96bc:	0000a694 	muleq	r0, r4, r6
    96c0:	0000a914 	andeq	sl, r0, r4, lsl r9
    96c4:	0000ab90 	muleq	r0, r0, fp
    96c8:	0000a97c 	andeq	sl, r0, ip, ror r9
    96cc:	0000a824 	andeq	sl, r0, r4, lsr #16
    96d0:	0000a944 	andeq	sl, r0, r4, asr #18
    96d4:	0000a8ec 	andeq	sl, r0, ip, ror #17
    96d8:	0000a864 	andeq	sl, r0, r4, ror #16
    96dc:	0000a354 	andeq	sl, r0, r4, asr r3
    96e0:	0000a8c4 	andeq	sl, r0, r4, asr #17
    96e4:	0000a888 	andeq	sl, r0, r8, lsl #17

000096e8 <clean_reboot>:
    96e8:	e59f301c 	ldr	r3, [pc, #28]	; 970c <clean_reboot+0x24>
    96ec:	e92d4010 	push	{r4, lr}
    96f0:	e5933000 	ldr	r3, [r3]
    96f4:	e59f0014 	ldr	r0, [pc, #20]	; 9710 <clean_reboot+0x28>
    96f8:	e12fff33 	blx	r3
    96fc:	eb00011b 	bl	9b70 <uart_flush_tx>
    9700:	e3a0000a 	mov	r0, #10, 0
    9704:	eb000082 	bl	9914 <delay_ms>
    9708:	eb00004b 	bl	983c <rpi_reboot>
    970c:	0000ab90 	muleq	r0, r0, fp
    9710:	0000a988 	andeq	sl, r0, r8, lsl #19

00009714 <_cstart>:
    9714:	e92d4070 	push	{r4, r5, r6, lr}
    9718:	eb00003b 	bl	980c <custom_loader>
    971c:	e59f20e0 	ldr	r2, [pc, #224]	; 9804 <_cstart+0xf0>
    9720:	e59fc0e0 	ldr	ip, [pc, #224]	; 9808 <_cstart+0xf4>
    9724:	e152000c 	cmp	r2, ip
    9728:	2a00002e 	bcs	97e8 <_cstart+0xd4>
    972c:	e24c1001 	sub	r1, ip, #1, 0
    9730:	e0411002 	sub	r1, r1, r2
    9734:	e3510017 	cmp	r1, #23, 0
    9738:	e1a03122 	lsr	r3, r2, #2
    973c:	e1a01121 	lsr	r1, r1, #2
    9740:	e2811001 	add	r1, r1, #1, 0
    9744:	e2033001 	and	r3, r3, #1, 0
    9748:	9a00002b 	bls	97fc <_cstart+0xe8>
    974c:	e3530000 	cmp	r3, #0, 0
    9750:	11a00002 	movne	r0, r2
    9754:	13a0e000 	movne	lr, #0, 0
    9758:	e3a04000 	mov	r4, #0, 0
    975c:	e3a05000 	mov	r5, #0, 0
    9760:	e0411003 	sub	r1, r1, r3
    9764:	01a00002 	moveq	r0, r2
    9768:	e0823103 	add	r3, r2, r3, lsl #2
    976c:	e1a020a1 	lsr	r2, r1, #1
    9770:	1480e004 	strne	lr, [r0], #4
    9774:	e0832182 	add	r2, r3, r2, lsl #3
    9778:	e0c340f8 	strd	r4, [r3], #8
    977c:	e1520003 	cmp	r2, r3
    9780:	1afffffc 	bne	9778 <_cstart+0x64>
    9784:	e3c13001 	bic	r3, r1, #1, 0
    9788:	e1510003 	cmp	r1, r3
    978c:	e0803103 	add	r3, r0, r3, lsl #2
    9790:	0a000014 	beq	97e8 <_cstart+0xd4>
    9794:	e1a01003 	mov	r1, r3
    9798:	e3a02000 	mov	r2, #0, 0
    979c:	e4812004 	str	r2, [r1], #4
    97a0:	e151000c 	cmp	r1, ip
    97a4:	2a00000f 	bcs	97e8 <_cstart+0xd4>
    97a8:	e2831008 	add	r1, r3, #8, 0
    97ac:	e151000c 	cmp	r1, ip
    97b0:	e5832004 	str	r2, [r3, #4]
    97b4:	2a00000b 	bcs	97e8 <_cstart+0xd4>
    97b8:	e283100c 	add	r1, r3, #12, 0
    97bc:	e151000c 	cmp	r1, ip
    97c0:	e5832008 	str	r2, [r3, #8]
    97c4:	2a000007 	bcs	97e8 <_cstart+0xd4>
    97c8:	e2831010 	add	r1, r3, #16, 0
    97cc:	e151000c 	cmp	r1, ip
    97d0:	e583200c 	str	r2, [r3, #12]
    97d4:	2a000003 	bcs	97e8 <_cstart+0xd4>
    97d8:	e2831014 	add	r1, r3, #20, 0
    97dc:	e151000c 	cmp	r1, ip
    97e0:	e5832010 	str	r2, [r3, #16]
    97e4:	35832014 	strcc	r2, [r3, #20]
    97e8:	eb000082 	bl	99f8 <uart_init>
    97ec:	e3a03001 	mov	r3, #1, 0
    97f0:	ee0f3f1c 	mcr	15, 0, r3, cr15, cr12, {0}
    97f4:	ebfffa29 	bl	80a0 <notmain>
    97f8:	ebffffba 	bl	96e8 <clean_reboot>
    97fc:	e1a03002 	mov	r3, r2
    9800:	eaffffe3 	b	9794 <_cstart+0x80>
    9804:	0000aba8 	andeq	sl, r0, r8, lsr #23
    9808:	0000afd0 	ldrdeq	sl, [r0], -r0

0000980c <custom_loader>:
    980c:	e12fff1e 	bx	lr

00009810 <at_user_level>:
    9810:	e10f0000 	mrs	r0, CPSR
    9814:	e200001f 	and	r0, r0, #31, 0
    9818:	e2400010 	sub	r0, r0, #16, 0
    981c:	e16f0f10 	clz	r0, r0
    9820:	e1a002a0 	lsr	r0, r0, #5
    9824:	e12fff1e 	bx	lr

00009828 <set_user_level>:
    9828:	e10f3000 	mrs	r3, CPSR
    982c:	e3c3301f 	bic	r3, r3, #31, 0
    9830:	e3833010 	orr	r3, r3, #16, 0
    9834:	e129f003 	msr	CPSR_fc, r3
    9838:	e12fff1e 	bx	lr

0000983c <rpi_reboot>:
    983c:	e92d4010 	push	{r4, lr}
    9840:	e10f3000 	mrs	r3, CPSR
    9844:	e203301f 	and	r3, r3, #31, 0
    9848:	e3530010 	cmp	r3, #16, 0
    984c:	1a000003 	bne	9860 <rpi_reboot+0x24>
    9850:	e10f3000 	mrs	r3, CPSR
    9854:	e3c3301f 	bic	r3, r3, #31, 0
    9858:	e3833010 	orr	r3, r3, #16, 0
    985c:	e129f003 	msr	CPSR_fc, r3
    9860:	eb00025f 	bl	a1e4 <reboot_callout>
    9864:	eb0000c1 	bl	9b70 <uart_flush_tx>
    9868:	e3a0000a 	mov	r0, #10, 0
    986c:	eb000028 	bl	9914 <delay_ms>
    9870:	e59f1014 	ldr	r1, [pc, #20]	; 988c <rpi_reboot+0x50>
    9874:	e59f0014 	ldr	r0, [pc, #20]	; 9890 <rpi_reboot+0x54>
    9878:	ebfff9e9 	bl	8024 <PUT32>
    987c:	e59f1010 	ldr	r1, [pc, #16]	; 9894 <rpi_reboot+0x58>
    9880:	e59f0010 	ldr	r0, [pc, #16]	; 9898 <rpi_reboot+0x5c>
    9884:	ebfff9e6 	bl	8024 <PUT32>
    9888:	eafffffe 	b	9888 <rpi_reboot+0x4c>
    988c:	5a000001 	bpl	9898 <rpi_reboot+0x5c>
    9890:	20100024 	andscs	r0, r0, r4, lsr #32
    9894:	5a000020 	bpl	991c <delay_ms+0x8>
    9898:	2010001c 	andscs	r0, r0, ip, lsl r0

0000989c <timer_get_usec_raw>:
    989c:	e59f0000 	ldr	r0, [pc]	; 98a4 <timer_get_usec_raw+0x8>
    98a0:	eafff9e1 	b	802c <GET32>
    98a4:	20003004 	andcs	r3, r0, r4

000098a8 <timer_get_usec>:
    98a8:	e92d4010 	push	{r4, lr}
    98ac:	eb00024d 	bl	a1e8 <dev_barrier>
    98b0:	e59f0010 	ldr	r0, [pc, #16]	; 98c8 <timer_get_usec+0x20>
    98b4:	ebfff9dc 	bl	802c <GET32>
    98b8:	e1a04000 	mov	r4, r0
    98bc:	eb000249 	bl	a1e8 <dev_barrier>
    98c0:	e1a00004 	mov	r0, r4
    98c4:	e8bd8010 	pop	{r4, pc}
    98c8:	20003004 	andcs	r3, r0, r4

000098cc <delay_us>:
    98cc:	e92d41f0 	push	{r4, r5, r6, r7, r8, lr}
    98d0:	e1a06000 	mov	r6, r0
    98d4:	eb000243 	bl	a1e8 <dev_barrier>
    98d8:	e59f0030 	ldr	r0, [pc, #48]	; 9910 <delay_us+0x44>
    98dc:	ebfff9d2 	bl	802c <GET32>
    98e0:	e1a05000 	mov	r5, r0
    98e4:	eb00023f 	bl	a1e8 <dev_barrier>
    98e8:	e59f7020 	ldr	r7, [pc, #32]	; 9910 <delay_us+0x44>
    98ec:	eb00023d 	bl	a1e8 <dev_barrier>
    98f0:	e1a00007 	mov	r0, r7
    98f4:	ebfff9cc 	bl	802c <GET32>
    98f8:	e1a04000 	mov	r4, r0
    98fc:	e0444005 	sub	r4, r4, r5
    9900:	eb000238 	bl	a1e8 <dev_barrier>
    9904:	e1540006 	cmp	r4, r6
    9908:	3afffff7 	bcc	98ec <delay_us+0x20>
    990c:	e8bd81f0 	pop	{r4, r5, r6, r7, r8, pc}
    9910:	20003004 	andcs	r3, r0, r4

00009914 <delay_ms>:
    9914:	e92d41f0 	push	{r4, r5, r6, r7, r8, lr}
    9918:	e0604280 	rsb	r4, r0, r0, lsl #5
    991c:	e0800104 	add	r0, r0, r4, lsl #2
    9920:	e1a04180 	lsl	r4, r0, #3
    9924:	eb00022f 	bl	a1e8 <dev_barrier>
    9928:	e59f0030 	ldr	r0, [pc, #48]	; 9960 <delay_ms+0x4c>
    992c:	ebfff9be 	bl	802c <GET32>
    9930:	e1a06000 	mov	r6, r0
    9934:	eb00022b 	bl	a1e8 <dev_barrier>
    9938:	e59f7020 	ldr	r7, [pc, #32]	; 9960 <delay_ms+0x4c>
    993c:	eb000229 	bl	a1e8 <dev_barrier>
    9940:	e1a00007 	mov	r0, r7
    9944:	ebfff9b8 	bl	802c <GET32>
    9948:	e1a05000 	mov	r5, r0
    994c:	e0455006 	sub	r5, r5, r6
    9950:	eb000224 	bl	a1e8 <dev_barrier>
    9954:	e1540005 	cmp	r4, r5
    9958:	8afffff7 	bhi	993c <delay_ms+0x28>
    995c:	e8bd81f0 	pop	{r4, r5, r6, r7, r8, pc}
    9960:	20003004 	andcs	r3, r0, r4

00009964 <delay_sec>:
    9964:	e92d41f0 	push	{r4, r5, r6, r7, r8, lr}
    9968:	e0604280 	rsb	r4, r0, r0, lsl #5
    996c:	e0644304 	rsb	r4, r4, r4, lsl #6
    9970:	e0800184 	add	r0, r0, r4, lsl #3
    9974:	e1a04300 	lsl	r4, r0, #6
    9978:	eb00021a 	bl	a1e8 <dev_barrier>
    997c:	e59f0030 	ldr	r0, [pc, #48]	; 99b4 <delay_sec+0x50>
    9980:	ebfff9a9 	bl	802c <GET32>
    9984:	e1a06000 	mov	r6, r0
    9988:	eb000216 	bl	a1e8 <dev_barrier>
    998c:	e59f7020 	ldr	r7, [pc, #32]	; 99b4 <delay_sec+0x50>
    9990:	eb000214 	bl	a1e8 <dev_barrier>
    9994:	e1a00007 	mov	r0, r7
    9998:	ebfff9a3 	bl	802c <GET32>
    999c:	e1a05000 	mov	r5, r0
    99a0:	e0455006 	sub	r5, r5, r6
    99a4:	eb00020f 	bl	a1e8 <dev_barrier>
    99a8:	e1540005 	cmp	r4, r5
    99ac:	8afffff7 	bhi	9990 <delay_sec+0x2c>
    99b0:	e8bd81f0 	pop	{r4, r5, r6, r7, r8, pc}
    99b4:	20003004 	andcs	r3, r0, r4

000099b8 <and_in32>:
    99b8:	e92d4070 	push	{r4, r5, r6, lr}
    99bc:	e1a04000 	mov	r4, r0
    99c0:	e1a05001 	mov	r5, r1
    99c4:	ebfff998 	bl	802c <GET32>
    99c8:	e0001005 	and	r1, r0, r5
    99cc:	e1a00004 	mov	r0, r4
    99d0:	ebfff993 	bl	8024 <PUT32>
    99d4:	e8bd8070 	pop	{r4, r5, r6, pc}

000099d8 <or_in32>:
    99d8:	e92d4070 	push	{r4, r5, r6, lr}
    99dc:	e1a04000 	mov	r4, r0
    99e0:	e1a05001 	mov	r5, r1
    99e4:	ebfff990 	bl	802c <GET32>
    99e8:	e1801005 	orr	r1, r0, r5
    99ec:	e1a00004 	mov	r0, r4
    99f0:	ebfff98b 	bl	8024 <PUT32>
    99f4:	e8bd8070 	pop	{r4, r5, r6, pc}

000099f8 <uart_init>:
    99f8:	e92d4010 	push	{r4, lr}
    99fc:	e3a01002 	mov	r1, #2, 0
    9a00:	e3a0000e 	mov	r0, #14, 0
    9a04:	eb000153 	bl	9f58 <gpio_set_function>
    9a08:	e3a01002 	mov	r1, #2, 0
    9a0c:	e3a0000f 	mov	r0, #15, 0
    9a10:	eb000150 	bl	9f58 <gpio_set_function>
    9a14:	eb0001f3 	bl	a1e8 <dev_barrier>
    9a18:	e3a01001 	mov	r1, #1, 0
    9a1c:	e59f0064 	ldr	r0, [pc, #100]	; 9a88 <uart_init+0x90>
    9a20:	ebffffec 	bl	99d8 <or_in32>
    9a24:	eb0001ef 	bl	a1e8 <dev_barrier>
    9a28:	e59f405c 	ldr	r4, [pc, #92]	; 9a8c <uart_init+0x94>
    9a2c:	e3a01000 	mov	r1, #0, 0
    9a30:	e1a00004 	mov	r0, r4
    9a34:	ebfff97a 	bl	8024 <PUT32>
    9a38:	e3a01000 	mov	r1, #0, 0
    9a3c:	e59f004c 	ldr	r0, [pc, #76]	; 9a90 <uart_init+0x98>
    9a40:	ebfff977 	bl	8024 <PUT32>
    9a44:	e3a01003 	mov	r1, #3, 0
    9a48:	e59f0044 	ldr	r0, [pc, #68]	; 9a94 <uart_init+0x9c>
    9a4c:	ebfff974 	bl	8024 <PUT32>
    9a50:	e3a01000 	mov	r1, #0, 0
    9a54:	e59f003c 	ldr	r0, [pc, #60]	; 9a98 <uart_init+0xa0>
    9a58:	ebfff971 	bl	8024 <PUT32>
    9a5c:	e3a010c7 	mov	r1, #199, 0	; 0xc7
    9a60:	e59f0034 	ldr	r0, [pc, #52]	; 9a9c <uart_init+0xa4>
    9a64:	ebfff96e 	bl	8024 <PUT32>
    9a68:	e59f1030 	ldr	r1, [pc, #48]	; 9aa0 <uart_init+0xa8>
    9a6c:	e59f0030 	ldr	r0, [pc, #48]	; 9aa4 <uart_init+0xac>
    9a70:	ebfff96b 	bl	8024 <PUT32>
    9a74:	e3a01003 	mov	r1, #3, 0
    9a78:	e1a00004 	mov	r0, r4
    9a7c:	ebfff968 	bl	8024 <PUT32>
    9a80:	eb0001d8 	bl	a1e8 <dev_barrier>
    9a84:	e8bd8010 	pop	{r4, pc}
    9a88:	20215004 	eorcs	r5, r1, r4
    9a8c:	20215060 	eorcs	r5, r1, r0, rrx
    9a90:	20215044 	eorcs	r5, r1, r4, asr #32
    9a94:	2021504c 	eorcs	r5, r1, ip, asr #32
    9a98:	20215050 	eorcs	r5, r1, r0, asr r0
    9a9c:	20215048 	eorcs	r5, r1, r8, asr #32
    9aa0:	0000010e 	andeq	r0, r0, lr, lsl #2
    9aa4:	20215068 	eorcs	r5, r1, r8, rrx

00009aa8 <uart_can_getc>:
    9aa8:	e92d4010 	push	{r4, lr}
    9aac:	e59f0008 	ldr	r0, [pc, #8]	; 9abc <uart_can_getc+0x14>
    9ab0:	ebfff95d 	bl	802c <GET32>
    9ab4:	e2000001 	and	r0, r0, #1, 0
    9ab8:	e8bd8010 	pop	{r4, pc}
    9abc:	20215064 	eorcs	r5, r1, r4, rrx

00009ac0 <uart_can_putc>:
    9ac0:	e92d4010 	push	{r4, lr}
    9ac4:	e59f0010 	ldr	r0, [pc, #16]	; 9adc <uart_can_putc+0x1c>
    9ac8:	ebfff957 	bl	802c <GET32>
    9acc:	e3100002 	tst	r0, #2, 0
    9ad0:	13a00001 	movne	r0, #1, 0
    9ad4:	03a00000 	moveq	r0, #0, 0
    9ad8:	e8bd8010 	pop	{r4, pc}
    9adc:	20215064 	eorcs	r5, r1, r4, rrx

00009ae0 <uart_getc>:
    9ae0:	e92d4010 	push	{r4, lr}
    9ae4:	eb0001bf 	bl	a1e8 <dev_barrier>
    9ae8:	ebffffee 	bl	9aa8 <uart_can_getc>
    9aec:	e3500000 	cmp	r0, #0, 0
    9af0:	0afffffc 	beq	9ae8 <uart_getc+0x8>
    9af4:	e59f0010 	ldr	r0, [pc, #16]	; 9b0c <uart_getc+0x2c>
    9af8:	ebfff94b 	bl	802c <GET32>
    9afc:	e6ef4070 	uxtb	r4, r0
    9b00:	eb0001b8 	bl	a1e8 <dev_barrier>
    9b04:	e1a00004 	mov	r0, r4
    9b08:	e8bd8010 	pop	{r4, pc}
    9b0c:	20215040 	eorcs	r5, r1, r0, asr #32

00009b10 <uart_putc>:
    9b10:	e92d4010 	push	{r4, lr}
    9b14:	e1a04000 	mov	r4, r0
    9b18:	eb0001b2 	bl	a1e8 <dev_barrier>
    9b1c:	ebffffe7 	bl	9ac0 <uart_can_putc>
    9b20:	e3500000 	cmp	r0, #0, 0
    9b24:	0afffffc 	beq	9b1c <uart_putc+0xc>
    9b28:	e6ef1074 	uxtb	r1, r4
    9b2c:	e59f0008 	ldr	r0, [pc, #8]	; 9b3c <uart_putc+0x2c>
    9b30:	ebfff93b 	bl	8024 <PUT32>
    9b34:	eb0001ab 	bl	a1e8 <dev_barrier>
    9b38:	e8bd8010 	pop	{r4, pc}
    9b3c:	20215040 	eorcs	r5, r1, r0, asr #32

00009b40 <uart_has_data>:
    9b40:	e92d4010 	push	{r4, lr}
    9b44:	eb0001a7 	bl	a1e8 <dev_barrier>
    9b48:	ebffffd6 	bl	9aa8 <uart_can_getc>
    9b4c:	e8bd8010 	pop	{r4, pc}

00009b50 <uart_tx_is_empty>:
    9b50:	e92d4010 	push	{r4, lr}
    9b54:	eb0001a3 	bl	a1e8 <dev_barrier>
    9b58:	e59f000c 	ldr	r0, [pc, #12]	; 9b6c <uart_tx_is_empty+0x1c>
    9b5c:	ebfff932 	bl	802c <GET32>
    9b60:	e1a004a0 	lsr	r0, r0, #9
    9b64:	e2000001 	and	r0, r0, #1, 0
    9b68:	e8bd8010 	pop	{r4, pc}
    9b6c:	20215064 	eorcs	r5, r1, r4, rrx

00009b70 <uart_flush_tx>:
    9b70:	e92d4010 	push	{r4, lr}
    9b74:	ebfffff5 	bl	9b50 <uart_tx_is_empty>
    9b78:	e3500000 	cmp	r0, #0, 0
    9b7c:	0afffffc 	beq	9b74 <uart_flush_tx+0x4>
    9b80:	e8bd8010 	pop	{r4, pc}

00009b84 <uart_disable>:
    9b84:	e92d4010 	push	{r4, lr}
    9b88:	ebfffff8 	bl	9b70 <uart_flush_tx>
    9b8c:	eb000195 	bl	a1e8 <dev_barrier>
    9b90:	e3e01001 	mvn	r1, #1, 0
    9b94:	e59f0008 	ldr	r0, [pc, #8]	; 9ba4 <uart_disable+0x20>
    9b98:	ebffff86 	bl	99b8 <and_in32>
    9b9c:	eb000191 	bl	a1e8 <dev_barrier>
    9ba0:	e8bd8010 	pop	{r4, pc}
    9ba4:	20215004 	eorcs	r5, r1, r4

00009ba8 <kmalloc_heap_end>:
    9ba8:	e59f3004 	ldr	r3, [pc, #4]	; 9bb4 <kmalloc_heap_end+0xc>
    9bac:	e5930000 	ldr	r0, [r3]
    9bb0:	e12fff1e 	bx	lr
    9bb4:	0000ab94 	muleq	r0, r4, fp

00009bb8 <kmalloc_heap_start>:
    9bb8:	e59f3004 	ldr	r3, [pc, #4]	; 9bc4 <kmalloc_heap_start+0xc>
    9bbc:	e5930004 	ldr	r0, [r3, #4]
    9bc0:	e12fff1e 	bx	lr
    9bc4:	0000ab94 	muleq	r0, r4, fp

00009bc8 <kmalloc_heap_ptr>:
    9bc8:	e59f3004 	ldr	r3, [pc, #4]	; 9bd4 <kmalloc_heap_ptr+0xc>
    9bcc:	e5930000 	ldr	r0, [r3]
    9bd0:	e12fff1e 	bx	lr
    9bd4:	0000ab94 	muleq	r0, r4, fp

00009bd8 <kmalloc_init_set_start>:
    9bd8:	e52de004 	push	{lr}		; (str lr, [sp, #-4]!)
    9bdc:	e24dd00c 	sub	sp, sp, #12, 0
    9be0:	e3510000 	cmp	r1, #0, 0
    9be4:	0a00000a 	beq	9c14 <kmalloc_init_set_start+0x3c>
    9be8:	e59f306c 	ldr	r3, [pc, #108]	; 9c5c <kmalloc_init_set_start+0x84>
    9bec:	e5933000 	ldr	r3, [r3]
    9bf0:	e1530000 	cmp	r3, r0
    9bf4:	8a00000e 	bhi	9c34 <kmalloc_init_set_start+0x5c>
    9bf8:	e59f305c 	ldr	r3, [pc, #92]	; 9c5c <kmalloc_init_set_start+0x84>
    9bfc:	e5830000 	str	r0, [r3]
    9c00:	e5830004 	str	r0, [r3, #4]
    9c04:	e0800001 	add	r0, r0, r1
    9c08:	e5830008 	str	r0, [r3, #8]
    9c0c:	e28dd00c 	add	sp, sp, #12, 0
    9c10:	e49df004 	pop	{pc}		; (ldr pc, [sp], #4)
    9c14:	e59f3044 	ldr	r3, [pc, #68]	; 9c60 <kmalloc_init_set_start+0x88>
    9c18:	e58d3000 	str	r3, [sp]
    9c1c:	e3a03030 	mov	r3, #48, 0	; 0x30
    9c20:	e59f203c 	ldr	r2, [pc, #60]	; 9c64 <kmalloc_init_set_start+0x8c>
    9c24:	e59f103c 	ldr	r1, [pc, #60]	; 9c68 <kmalloc_init_set_start+0x90>
    9c28:	e59f003c 	ldr	r0, [pc, #60]	; 9c6c <kmalloc_init_set_start+0x94>
    9c2c:	ebfffc1c 	bl	8ca4 <printk>
    9c30:	ebfffeac 	bl	96e8 <clean_reboot>
    9c34:	e59f3020 	ldr	r3, [pc, #32]	; 9c5c <kmalloc_init_set_start+0x84>
    9c38:	e5933008 	ldr	r3, [r3, #8]
    9c3c:	e58d3004 	str	r3, [sp, #4]
    9c40:	e58d0000 	str	r0, [sp]
    9c44:	e3a03034 	mov	r3, #52, 0	; 0x34
    9c48:	e59f2014 	ldr	r2, [pc, #20]	; 9c64 <kmalloc_init_set_start+0x8c>
    9c4c:	e59f1014 	ldr	r1, [pc, #20]	; 9c68 <kmalloc_init_set_start+0x90>
    9c50:	e59f0018 	ldr	r0, [pc, #24]	; 9c70 <kmalloc_init_set_start+0x98>
    9c54:	ebfffc12 	bl	8ca4 <printk>
    9c58:	ebfffea2 	bl	96e8 <clean_reboot>
    9c5c:	0000ab94 	muleq	r0, r4, fp
    9c60:	0000a9a0 	andeq	sl, r0, r0, lsr #19
    9c64:	0000ab2c 	andeq	sl, r0, ip, lsr #22
    9c68:	0000a994 	muleq	r0, r4, r9
    9c6c:	0000a354 	andeq	sl, r0, r4, asr r3
    9c70:	0000a9ac 	andeq	sl, r0, ip, lsr #19

00009c74 <kmalloc_init>:
    9c74:	e92d4010 	push	{r4, lr}
    9c78:	e59f303c 	ldr	r3, [pc, #60]	; 9cbc <kmalloc_init+0x48>
    9c7c:	e5933000 	ldr	r3, [r3]
    9c80:	e3530000 	cmp	r3, #0, 0
    9c84:	1a000006 	bne	9ca4 <kmalloc_init+0x30>
    9c88:	e59f302c 	ldr	r3, [pc, #44]	; 9cbc <kmalloc_init+0x48>
    9c8c:	e3a02001 	mov	r2, #1, 0
    9c90:	e5832000 	str	r2, [r3]
    9c94:	e3a01201 	mov	r1, #268435456	; 0x10000000
    9c98:	e3a00601 	mov	r0, #1048576	; 0x100000
    9c9c:	ebffffcd 	bl	9bd8 <kmalloc_init_set_start>
    9ca0:	e8bd8010 	pop	{r4, pc}
    9ca4:	e3a03040 	mov	r3, #64, 0	; 0x40
    9ca8:	e59f2010 	ldr	r2, [pc, #16]	; 9cc0 <kmalloc_init+0x4c>
    9cac:	e59f1010 	ldr	r1, [pc, #16]	; 9cc4 <kmalloc_init+0x50>
    9cb0:	e59f0010 	ldr	r0, [pc, #16]	; 9cc8 <kmalloc_init+0x54>
    9cb4:	ebfffbfa 	bl	8ca4 <printk>
    9cb8:	ebfffe8a 	bl	96e8 <clean_reboot>
    9cbc:	0000afcc 	andeq	sl, r0, ip, asr #31
    9cc0:	0000ab44 	andeq	sl, r0, r4, asr #22
    9cc4:	0000a994 	muleq	r0, r4, r9
    9cc8:	0000a9f0 	strdeq	sl, [r0], -r0

00009ccc <kmalloc_notzero>:
    9ccc:	e52de004 	push	{lr}		; (str lr, [sp, #-4]!)
    9cd0:	e24dd00c 	sub	sp, sp, #12, 0
    9cd4:	e3500000 	cmp	r0, #0, 0
    9cd8:	0a00000a 	beq	9d08 <kmalloc_notzero+0x3c>
    9cdc:	e2800007 	add	r0, r0, #7, 0
    9ce0:	e3c03007 	bic	r3, r0, #7, 0
    9ce4:	e59f2060 	ldr	r2, [pc, #96]	; 9d4c <kmalloc_notzero+0x80>
    9ce8:	e5920000 	ldr	r0, [r2]
    9cec:	e0801003 	add	r1, r0, r3
    9cf0:	e5821000 	str	r1, [r2]
    9cf4:	e5922008 	ldr	r2, [r2, #8]
    9cf8:	e1510002 	cmp	r1, r2
    9cfc:	8a000009 	bhi	9d28 <kmalloc_notzero+0x5c>
    9d00:	e28dd00c 	add	sp, sp, #12, 0
    9d04:	e49df004 	pop	{pc}		; (ldr pc, [sp], #4)
    9d08:	e59f3040 	ldr	r3, [pc, #64]	; 9d50 <kmalloc_notzero+0x84>
    9d0c:	e58d3000 	str	r3, [sp]
    9d10:	e3a03048 	mov	r3, #72, 0	; 0x48
    9d14:	e59f2038 	ldr	r2, [pc, #56]	; 9d54 <kmalloc_notzero+0x88>
    9d18:	e59f1038 	ldr	r1, [pc, #56]	; 9d58 <kmalloc_notzero+0x8c>
    9d1c:	e59f0038 	ldr	r0, [pc, #56]	; 9d5c <kmalloc_notzero+0x90>
    9d20:	ebfffbdf 	bl	8ca4 <printk>
    9d24:	ebfffe6f 	bl	96e8 <clean_reboot>
    9d28:	e0422000 	sub	r2, r2, r0
    9d2c:	e58d2004 	str	r2, [sp, #4]
    9d30:	e58d3000 	str	r3, [sp]
    9d34:	e3a0304e 	mov	r3, #78, 0	; 0x4e
    9d38:	e59f2014 	ldr	r2, [pc, #20]	; 9d54 <kmalloc_notzero+0x88>
    9d3c:	e59f1014 	ldr	r1, [pc, #20]	; 9d58 <kmalloc_notzero+0x8c>
    9d40:	e59f0018 	ldr	r0, [pc, #24]	; 9d60 <kmalloc_notzero+0x94>
    9d44:	ebfffbd6 	bl	8ca4 <printk>
    9d48:	ebfffe66 	bl	96e8 <clean_reboot>
    9d4c:	0000ab94 	muleq	r0, r4, fp
    9d50:	0000a9a4 	andeq	sl, r0, r4, lsr #19
    9d54:	0000ab54 	andeq	sl, r0, r4, asr fp
    9d58:	0000a994 	muleq	r0, r4, r9
    9d5c:	0000a354 	andeq	sl, r0, r4, asr r3
    9d60:	0000aa20 	andeq	sl, r0, r0, lsr #20

00009d64 <kmalloc>:
    9d64:	e92d4030 	push	{r4, r5, lr}
    9d68:	e24dd00c 	sub	sp, sp, #12, 0
    9d6c:	e2504000 	subs	r4, r0, #0, 0
    9d70:	0a000008 	beq	9d98 <kmalloc+0x34>
    9d74:	e1a00004 	mov	r0, r4
    9d78:	ebffffd3 	bl	9ccc <kmalloc_notzero>
    9d7c:	e1a05000 	mov	r5, r0
    9d80:	e1a02004 	mov	r2, r4
    9d84:	e3a01000 	mov	r1, #0, 0
    9d88:	ebfffba7 	bl	8c2c <memset>
    9d8c:	e1a00005 	mov	r0, r5
    9d90:	e28dd00c 	add	sp, sp, #12, 0
    9d94:	e8bd8030 	pop	{r4, r5, pc}
    9d98:	e59f3018 	ldr	r3, [pc, #24]	; 9db8 <kmalloc+0x54>
    9d9c:	e58d3000 	str	r3, [sp]
    9da0:	e3a03054 	mov	r3, #84, 0	; 0x54
    9da4:	e59f2010 	ldr	r2, [pc, #16]	; 9dbc <kmalloc+0x58>
    9da8:	e59f1010 	ldr	r1, [pc, #16]	; 9dc0 <kmalloc+0x5c>
    9dac:	e59f0010 	ldr	r0, [pc, #16]	; 9dc4 <kmalloc+0x60>
    9db0:	ebfffbbb 	bl	8ca4 <printk>
    9db4:	ebfffe4b 	bl	96e8 <clean_reboot>
    9db8:	0000a9a4 	andeq	sl, r0, r4, lsr #19
    9dbc:	0000ab64 	andeq	sl, r0, r4, ror #22
    9dc0:	0000a994 	muleq	r0, r4, r9
    9dc4:	0000a354 	andeq	sl, r0, r4, asr r3

00009dc8 <kmalloc_aligned>:
    9dc8:	e52de004 	push	{lr}		; (str lr, [sp, #-4]!)
    9dcc:	e24dd00c 	sub	sp, sp, #12, 0
    9dd0:	e3500000 	cmp	r0, #0, 0
    9dd4:	0a000014 	beq	9e2c <kmalloc_aligned+0x64>
    9dd8:	e2613000 	rsb	r3, r1, #0, 0
    9ddc:	e1d13003 	bics	r3, r1, r3
    9de0:	1a000019 	bne	9e4c <kmalloc_aligned+0x84>
    9de4:	e3510008 	cmp	r1, #8, 0
    9de8:	33a01008 	movcc	r1, #8, 0
    9dec:	e59f30c0 	ldr	r3, [pc, #192]	; 9eb4 <kmalloc_aligned+0xec>
    9df0:	e5932000 	ldr	r2, [r3]
    9df4:	e2613000 	rsb	r3, r1, #0, 0
    9df8:	e1d1c003 	bics	ip, r1, r3
    9dfc:	1a00001b 	bne	9e70 <kmalloc_aligned+0xa8>
    9e00:	e0822001 	add	r2, r2, r1
    9e04:	e2422001 	sub	r2, r2, #1, 0
    9e08:	e0033002 	and	r3, r3, r2
    9e0c:	e2411001 	sub	r1, r1, #1, 0
    9e10:	e1110003 	tst	r1, r3
    9e14:	1a00001d 	bne	9e90 <kmalloc_aligned+0xc8>
    9e18:	e59f2094 	ldr	r2, [pc, #148]	; 9eb4 <kmalloc_aligned+0xec>
    9e1c:	e5823000 	str	r3, [r2]
    9e20:	ebffffcf 	bl	9d64 <kmalloc>
    9e24:	e28dd00c 	add	sp, sp, #12, 0
    9e28:	e49df004 	pop	{pc}		; (ldr pc, [sp], #4)
    9e2c:	e59f3084 	ldr	r3, [pc, #132]	; 9eb8 <kmalloc_aligned+0xf0>
    9e30:	e58d3000 	str	r3, [sp]
    9e34:	e3a0305f 	mov	r3, #95, 0	; 0x5f
    9e38:	e59f207c 	ldr	r2, [pc, #124]	; 9ebc <kmalloc_aligned+0xf4>
    9e3c:	e59f107c 	ldr	r1, [pc, #124]	; 9ec0 <kmalloc_aligned+0xf8>
    9e40:	e59f007c 	ldr	r0, [pc, #124]	; 9ec4 <kmalloc_aligned+0xfc>
    9e44:	ebfffb96 	bl	8ca4 <printk>
    9e48:	ebfffe26 	bl	96e8 <clean_reboot>
    9e4c:	eb0000ac 	bl	a104 <rpi_reset_putc>
    9e50:	e59f3070 	ldr	r3, [pc, #112]	; 9ec8 <kmalloc_aligned+0x100>
    9e54:	e58d3000 	str	r3, [sp]
    9e58:	e3a03060 	mov	r3, #96, 0	; 0x60
    9e5c:	e59f2058 	ldr	r2, [pc, #88]	; 9ebc <kmalloc_aligned+0xf4>
    9e60:	e59f1058 	ldr	r1, [pc, #88]	; 9ec0 <kmalloc_aligned+0xf8>
    9e64:	e59f0060 	ldr	r0, [pc, #96]	; 9ecc <kmalloc_aligned+0x104>
    9e68:	ebfffb8d 	bl	8ca4 <printk>
    9e6c:	ebfffe1d 	bl	96e8 <clean_reboot>
    9e70:	e59f3058 	ldr	r3, [pc, #88]	; 9ed0 <kmalloc_aligned+0x108>
    9e74:	e58d3000 	str	r3, [sp]
    9e78:	e3a03011 	mov	r3, #17, 0
    9e7c:	e59f2050 	ldr	r2, [pc, #80]	; 9ed4 <kmalloc_aligned+0x10c>
    9e80:	e59f1038 	ldr	r1, [pc, #56]	; 9ec0 <kmalloc_aligned+0xf8>
    9e84:	e59f0038 	ldr	r0, [pc, #56]	; 9ec4 <kmalloc_aligned+0xfc>
    9e88:	ebfffb85 	bl	8ca4 <printk>
    9e8c:	ebfffe15 	bl	96e8 <clean_reboot>
    9e90:	eb00009b 	bl	a104 <rpi_reset_putc>
    9e94:	e59f303c 	ldr	r3, [pc, #60]	; 9ed8 <kmalloc_aligned+0x110>
    9e98:	e58d3000 	str	r3, [sp]
    9e9c:	e3a03068 	mov	r3, #104, 0	; 0x68
    9ea0:	e59f2014 	ldr	r2, [pc, #20]	; 9ebc <kmalloc_aligned+0xf4>
    9ea4:	e59f1014 	ldr	r1, [pc, #20]	; 9ec0 <kmalloc_aligned+0xf8>
    9ea8:	e59f002c 	ldr	r0, [pc, #44]	; 9edc <kmalloc_aligned+0x114>
    9eac:	ebfffb7c 	bl	8ca4 <printk>
    9eb0:	ebfffe0c 	bl	96e8 <clean_reboot>
    9eb4:	0000ab94 	muleq	r0, r4, fp
    9eb8:	0000a9a4 	andeq	sl, r0, r4, lsr #19
    9ebc:	0000ab6c 	andeq	sl, r0, ip, ror #22
    9ec0:	0000a994 	muleq	r0, r4, r9
    9ec4:	0000a354 	andeq	sl, r0, r4, asr r3
    9ec8:	0000aa94 	muleq	r0, r4, sl
    9ecc:	0000aa60 	andeq	sl, r0, r0, ror #20
    9ed0:	0000aaa8 	andeq	sl, r0, r8, lsr #21
    9ed4:	0000ab7c 	andeq	sl, r0, ip, ror fp
    9ed8:	0000aae0 	andeq	sl, r0, r0, ror #21
    9edc:	0000aab4 			; <UNDEFINED> instruction: 0x0000aab4

00009ee0 <kfree>:
    9ee0:	e12fff1e 	bx	lr

00009ee4 <kfree_all>:
    9ee4:	e59f3008 	ldr	r3, [pc, #8]	; 9ef4 <kfree_all+0x10>
    9ee8:	e5932004 	ldr	r2, [r3, #4]
    9eec:	e5832000 	str	r2, [r3]
    9ef0:	e12fff1e 	bx	lr
    9ef4:	0000ab94 	muleq	r0, r4, fp

00009ef8 <kfree_pop>:
    9ef8:	e59f3048 	ldr	r3, [pc, #72]	; 9f48 <kfree_pop+0x50>
    9efc:	e5933004 	ldr	r3, [r3, #4]
    9f00:	e1530000 	cmp	r3, r0
    9f04:	8a000006 	bhi	9f24 <kfree_pop+0x2c>
    9f08:	e59f3038 	ldr	r3, [pc, #56]	; 9f48 <kfree_pop+0x50>
    9f0c:	e5933008 	ldr	r3, [r3, #8]
    9f10:	e1530000 	cmp	r3, r0
    9f14:	3a000002 	bcc	9f24 <kfree_pop+0x2c>
    9f18:	e59f3028 	ldr	r3, [pc, #40]	; 9f48 <kfree_pop+0x50>
    9f1c:	e5830000 	str	r0, [r3]
    9f20:	e12fff1e 	bx	lr
    9f24:	e52de004 	push	{lr}		; (str lr, [sp, #-4]!)
    9f28:	e24dd00c 	sub	sp, sp, #12, 0
    9f2c:	e58d0000 	str	r0, [sp]
    9f30:	e3a03077 	mov	r3, #119, 0	; 0x77
    9f34:	e59f2010 	ldr	r2, [pc, #16]	; 9f4c <kfree_pop+0x54>
    9f38:	e59f1010 	ldr	r1, [pc, #16]	; 9f50 <kfree_pop+0x58>
    9f3c:	e59f0010 	ldr	r0, [pc, #16]	; 9f54 <kfree_pop+0x5c>
    9f40:	ebfffb57 	bl	8ca4 <printk>
    9f44:	ebfffde7 	bl	96e8 <clean_reboot>
    9f48:	0000ab94 	muleq	r0, r4, fp
    9f4c:	0000ab84 	andeq	sl, r0, r4, lsl #23
    9f50:	0000a994 	muleq	r0, r4, r9
    9f54:	0000aafc 	strdeq	sl, [r0], -ip

00009f58 <gpio_set_function>:
    9f58:	e350001f 	cmp	r0, #31, 0
    9f5c:	812fff1e 	bxhi	lr
    9f60:	e3d13007 	bics	r3, r1, #7, 0
    9f64:	e92d4070 	push	{r4, r5, r6, lr}
    9f68:	e1a05001 	mov	r5, r1
    9f6c:	18bd8070 	popne	{r4, r5, r6, pc}
    9f70:	e59f403c 	ldr	r4, [pc, #60]	; 9fb4 <gpio_set_function+0x5c>
    9f74:	e0843094 	umull	r3, r4, r4, r0
    9f78:	e1a041a4 	lsr	r4, r4, #3
    9f7c:	e2843302 	add	r3, r4, #134217728	; 0x8000000
    9f80:	e2833702 	add	r3, r3, #524288	; 0x80000
    9f84:	e1a06103 	lsl	r6, r3, #2
    9f88:	e0844104 	add	r4, r4, r4, lsl #2
    9f8c:	e0404084 	sub	r4, r0, r4, lsl #1
    9f90:	e1a00006 	mov	r0, r6
    9f94:	ebfff824 	bl	802c <GET32>
    9f98:	e3a01007 	mov	r1, #7, 0
    9f9c:	e0844084 	add	r4, r4, r4, lsl #1
    9fa0:	e1c01411 	bic	r1, r0, r1, lsl r4
    9fa4:	e1811415 	orr	r1, r1, r5, lsl r4
    9fa8:	e1a00006 	mov	r0, r6
    9fac:	e8bd4070 	pop	{r4, r5, r6, lr}
    9fb0:	eafff81b 	b	8024 <PUT32>
    9fb4:	cccccccd 	stclgt	12, cr12, [ip], {205}	; 0xcd

00009fb8 <gpio_set_output>:
    9fb8:	e350001f 	cmp	r0, #31, 0
    9fbc:	812fff1e 	bxhi	lr
    9fc0:	e92d4070 	push	{r4, r5, r6, lr}
    9fc4:	e59f4040 	ldr	r4, [pc, #64]	; a00c <gpio_set_output+0x54>
    9fc8:	e0843094 	umull	r3, r4, r4, r0
    9fcc:	e1a041a4 	lsr	r4, r4, #3
    9fd0:	e2843302 	add	r3, r4, #134217728	; 0x8000000
    9fd4:	e2833702 	add	r3, r3, #524288	; 0x80000
    9fd8:	e1a05103 	lsl	r5, r3, #2
    9fdc:	e0844104 	add	r4, r4, r4, lsl #2
    9fe0:	e0404084 	sub	r4, r0, r4, lsl #1
    9fe4:	e1a00005 	mov	r0, r5
    9fe8:	ebfff80f 	bl	802c <GET32>
    9fec:	e3a03007 	mov	r3, #7, 0
    9ff0:	e3a01001 	mov	r1, #1, 0
    9ff4:	e0844084 	add	r4, r4, r4, lsl #1
    9ff8:	e1c03413 	bic	r3, r0, r3, lsl r4
    9ffc:	e1831411 	orr	r1, r3, r1, lsl r4
    a000:	e1a00005 	mov	r0, r5
    a004:	e8bd4070 	pop	{r4, r5, r6, lr}
    a008:	eafff805 	b	8024 <PUT32>
    a00c:	cccccccd 	stclgt	12, cr12, [ip], {205}	; 0xcd

0000a010 <gpio_set_on>:
    a010:	e1a03000 	mov	r3, r0
    a014:	e3a01001 	mov	r1, #1, 0
    a018:	e59f0004 	ldr	r0, [pc, #4]	; a024 <gpio_set_on+0x14>
    a01c:	e1a01311 	lsl	r1, r1, r3
    a020:	eafff7ff 	b	8024 <PUT32>
    a024:	2020001c 	eorcs	r0, r0, ip, lsl r0

0000a028 <gpio_set_off>:
    a028:	e1a03000 	mov	r3, r0
    a02c:	e3a01001 	mov	r1, #1, 0
    a030:	e59f0004 	ldr	r0, [pc, #4]	; a03c <gpio_set_off+0x14>
    a034:	e1a01311 	lsl	r1, r1, r3
    a038:	eafff7f9 	b	8024 <PUT32>
    a03c:	20200028 	eorcs	r0, r0, r8, lsr #32

0000a040 <gpio_set_input>:
    a040:	e350001f 	cmp	r0, #31, 0
    a044:	812fff1e 	bxhi	lr
    a048:	e92d4070 	push	{r4, r5, r6, lr}
    a04c:	e59f5040 	ldr	r5, [pc, #64]	; a094 <gpio_set_input+0x54>
    a050:	e1a04000 	mov	r4, r0
    a054:	e0853095 	umull	r3, r5, r5, r0
    a058:	e1a051a5 	lsr	r5, r5, #3
    a05c:	e2850302 	add	r0, r5, #134217728	; 0x8000000
    a060:	e2800702 	add	r0, r0, #524288	; 0x80000
    a064:	e1a06100 	lsl	r6, r0, #2
    a068:	e1a00006 	mov	r0, r6
    a06c:	ebfff7ee 	bl	802c <GET32>
    a070:	e3a01007 	mov	r1, #7, 0
    a074:	e1a03000 	mov	r3, r0
    a078:	e0855105 	add	r5, r5, r5, lsl #2
    a07c:	e0444085 	sub	r4, r4, r5, lsl #1
    a080:	e0844084 	add	r4, r4, r4, lsl #1
    a084:	e1a00006 	mov	r0, r6
    a088:	e1c31411 	bic	r1, r3, r1, lsl r4
    a08c:	e8bd4070 	pop	{r4, r5, r6, lr}
    a090:	eafff7e3 	b	8024 <PUT32>
    a094:	cccccccd 	stclgt	12, cr12, [ip], {205}	; 0xcd

0000a098 <gpio_write>:
    a098:	e3510000 	cmp	r1, #0, 0
    a09c:	e3a03001 	mov	r3, #1, 0
    a0a0:	e1a01000 	mov	r1, r0
    a0a4:	0a000002 	beq	a0b4 <gpio_write+0x1c>
    a0a8:	e59f0010 	ldr	r0, [pc, #16]	; a0c0 <gpio_write+0x28>
    a0ac:	e1a01113 	lsl	r1, r3, r1
    a0b0:	eafff7db 	b	8024 <PUT32>
    a0b4:	e59f0008 	ldr	r0, [pc, #8]	; a0c4 <gpio_write+0x2c>
    a0b8:	e1a01113 	lsl	r1, r3, r1
    a0bc:	eafff7d8 	b	8024 <PUT32>
    a0c0:	2020001c 	eorcs	r0, r0, ip, lsl r0
    a0c4:	20200028 	eorcs	r0, r0, r8, lsr #32

0000a0c8 <gpio_read>:
    a0c8:	e92d4010 	push	{r4, lr}
    a0cc:	e1a04000 	mov	r4, r0
    a0d0:	e59f0014 	ldr	r0, [pc, #20]	; a0ec <gpio_read+0x24>
    a0d4:	e08002a4 	add	r0, r0, r4, lsr #5
    a0d8:	ebfff7d3 	bl	802c <GET32>
    a0dc:	e204401f 	and	r4, r4, #31, 0
    a0e0:	e1a00430 	lsr	r0, r0, r4
    a0e4:	e2000001 	and	r0, r0, #1, 0
    a0e8:	e8bd8010 	pop	{r4, pc}
    a0ec:	20200034 	eorcs	r0, r0, r4, lsr r0

0000a0f0 <internal_putchar>:
    a0f0:	e92d4010 	push	{r4, lr}
    a0f4:	e1a04000 	mov	r4, r0
    a0f8:	ebfffe84 	bl	9b10 <uart_putc>
    a0fc:	e1a00004 	mov	r0, r4
    a100:	e8bd8010 	pop	{r4, pc}

0000a104 <rpi_reset_putc>:
    a104:	e59f3008 	ldr	r3, [pc, #8]	; a114 <rpi_reset_putc+0x10>
    a108:	e59f2008 	ldr	r2, [pc, #8]	; a118 <rpi_reset_putc+0x14>
    a10c:	e5832000 	str	r2, [r3]
    a110:	e12fff1e 	bx	lr
    a114:	0000aba0 	andeq	sl, r0, r0, lsr #23
    a118:	0000a0f0 	strdeq	sl, [r0], -r0

0000a11c <rpi_set_putc>:
    a11c:	e59f3004 	ldr	r3, [pc, #4]	; a128 <rpi_set_putc+0xc>
    a120:	e5830000 	str	r0, [r3]
    a124:	e12fff1e 	bx	lr
    a128:	0000aba0 	andeq	sl, r0, r0, lsr #23

0000a12c <strcat>:
    a12c:	e1a02000 	mov	r2, r0
    a130:	e1a03002 	mov	r3, r2
    a134:	e4d2c001 	ldrb	ip, [r2], #1
    a138:	e35c0000 	cmp	ip, #0, 0
    a13c:	1afffffb 	bne	a130 <strcat+0x4>
    a140:	e2433001 	sub	r3, r3, #1, 0
    a144:	e4d12001 	ldrb	r2, [r1], #1
    a148:	e3520000 	cmp	r2, #0, 0
    a14c:	e5e32001 	strb	r2, [r3, #1]!
    a150:	1afffffb 	bne	a144 <strcat+0x18>
    a154:	e12fff1e 	bx	lr

0000a158 <strcmp>:
    a158:	e5d03000 	ldrb	r3, [r0]
    a15c:	e3530000 	cmp	r3, #0, 0
    a160:	05d12000 	ldrbeq	r2, [r1]
    a164:	1a000003 	bne	a178 <strcmp+0x20>
    a168:	ea000006 	b	a188 <strcmp+0x30>
    a16c:	e5f03001 	ldrb	r3, [r0, #1]!
    a170:	e3530000 	cmp	r3, #0, 0
    a174:	0a000005 	beq	a190 <strcmp+0x38>
    a178:	e1a0c001 	mov	ip, r1
    a17c:	e4d12001 	ldrb	r2, [r1], #1
    a180:	e1520003 	cmp	r2, r3
    a184:	0afffff8 	beq	a16c <strcmp+0x14>
    a188:	e0430002 	sub	r0, r3, r2
    a18c:	e12fff1e 	bx	lr
    a190:	e5dc2001 	ldrb	r2, [ip, #1]
    a194:	e0430002 	sub	r0, r3, r2
    a198:	e12fff1e 	bx	lr

0000a19c <strcpy>:
    a19c:	e2402001 	sub	r2, r0, #1, 0
    a1a0:	e4d13001 	ldrb	r3, [r1], #1
    a1a4:	e3530000 	cmp	r3, #0, 0
    a1a8:	e5e23001 	strb	r3, [r2, #1]!
    a1ac:	1afffffb 	bne	a1a0 <strcpy+0x4>
    a1b0:	e12fff1e 	bx	lr

0000a1b4 <strncmp>:
    a1b4:	e0802002 	add	r2, r0, r2
    a1b8:	ea000003 	b	a1cc <strncmp+0x18>
    a1bc:	e4d03001 	ldrb	r3, [r0], #1
    a1c0:	e4d1c001 	ldrb	ip, [r1], #1
    a1c4:	e153000c 	cmp	r3, ip
    a1c8:	1a000003 	bne	a1dc <strncmp+0x28>
    a1cc:	e1500002 	cmp	r0, r2
    a1d0:	1afffff9 	bne	a1bc <strncmp+0x8>
    a1d4:	e3a00000 	mov	r0, #0, 0
    a1d8:	e12fff1e 	bx	lr
    a1dc:	e043000c 	sub	r0, r3, ip
    a1e0:	e12fff1e 	bx	lr

0000a1e4 <reboot_callout>:
    a1e4:	e12fff1e 	bx	lr

0000a1e8 <dev_barrier>:
    a1e8:	ea000002 	b	a1f8 <dsb>

0000a1ec <dmb>:
    a1ec:	e3a00000 	mov	r0, #0, 0
    a1f0:	ee070fba 	mcr	15, 0, r0, cr7, cr10, {5}
    a1f4:	e12fff1e 	bx	lr

0000a1f8 <dsb>:
    a1f8:	ee070f9a 	mcr	15, 0, r0, cr7, cr10, {4}
    a1fc:	e12fff1e 	bx	lr

Disassembly of section .rodata:

0000a200 <__FUNCTION__.4030-0x138>:
    a200:	74736574 	ldrbtvc	r6, [r3], #-1396	; 0xfffffa8c
    a204:	2e322d73 	mrccs	13, 1, r2, cr2, cr3, {3}
    a208:	61702f30 	cmnvs	r0, r0, lsr pc
    a20c:	2d327472 	cfldrscs	mvf7, [r2, #-456]!	; 0xfffffe38
    a210:	74736574 	ldrbtvc	r6, [r3], #-1396	; 0xfffffa8c
    a214:	63672d35 	cmnvs	r7, #3392	; 0xd40
    a218:	0000632e 	andeq	r6, r0, lr, lsr #6
    a21c:	43415254 	movtmi	r5, #4692	; 0x1254
    a220:	61683a45 	cmnvs	r8, r5, asr #20
    a224:	61206576 			; <UNDEFINED> instruction: 0x61206576
    a228:	76696c20 	strbtvc	r6, [r9], -r0, lsr #24
    a22c:	6f702065 	svcvs	0x00702065
    a230:	65746e69 	ldrbvs	r6, [r4, #-3689]!	; 0xfffff197
    a234:	683c2072 	ldmdavs	ip!, {r1, r4, r5, r6, sp}
    a238:	73203a3e 			; <UNDEFINED> instruction: 0x73203a3e
    a23c:	6c756f68 	ldclvs	15, cr6, [r5], #-416	; 0xfffffe60
    a240:	6f6e2064 	svcvs	0x006e2064
    a244:	656c2074 	strbvs	r2, [ip, #-116]!	; 0xffffff8c
    a248:	000a6b61 	andeq	r6, sl, r1, ror #22
    a24c:	74204347 	strtvc	r4, [r0], #-839	; 0xfffffcb9
    a250:	3a747365 	bcc	1d26fec <__bss_end__+0x1d1c01c>
    a254:	65686320 	strbvs	r6, [r8, #-800]!	; 0xfffffce0
    a258:	6e696b63 	vnmulvs.f64	d22, d9, d19
    a25c:	68742067 	ldmdavs	r4!, {r0, r1, r2, r5, r6, sp}^
    a260:	61207461 			; <UNDEFINED> instruction: 0x61207461
    a264:	756f6420 	strbvc	r6, [pc, #-1056]!	; 9e4c <kmalloc_aligned+0x84>
    a268:	2d796c62 	ldclcs	12, cr6, [r9, #-392]!	; 0xfffffe78
    a26c:	6b6e696c 	blvs	1ba4824 <__bss_end__+0x1b99854>
    a270:	6c206465 	cfstrsvs	mvf6, [r0], #-404	; 0xfffffe6c
    a274:	20747369 	rsbscs	r7, r4, r9, ror #6
    a278:	68207369 	stmdavs	r0!, {r0, r3, r5, r6, r8, r9, ip, sp, lr}
    a27c:	6c646e61 	stclvs	14, cr6, [r4], #-388	; 0xfffffe7c
    a280:	0a2e6465 	beq	ba341c <__bss_end__+0xb9844c>
    a284:	00000000 	andeq	r0, r0, r0
    a288:	43415254 	movtmi	r5, #4692	; 0x1254
    a28c:	68733a45 	ldmdavs	r3!, {r0, r2, r6, r9, fp, ip, sp}^
    a290:	646c756f 	strbtvs	r7, [ip], #-1391	; 0xfffffa91
    a294:	61656c20 	cmnvs	r5, r0, lsr #24
    a298:	00000a6b 	andeq	r0, r0, fp, ror #20
    a29c:	43415254 	movtmi	r5, #4692	; 0x1254
    a2a0:	6f633a45 	svcvs	0x00633a45
    a2a4:	6361706d 	cmnvs	r1, #109, 0	; 0x6d
    a2a8:	20646574 	rsbcs	r6, r4, r4, ror r5
    a2ac:	6e5b203d 	mrcvs	0, 2, r2, cr11, cr13, {1}
    a2b0:	65747962 	ldrbvs	r7, [r4, #-2402]!	; 0xfffff69e
    a2b4:	64253d73 	strtvs	r3, [r5], #-3443	; 0xfffff28d
    a2b8:	00000a5d 	andeq	r0, r0, sp, asr sl
    a2bc:	756f6873 	strbvc	r6, [pc, #-2163]!	; 9a51 <uart_init+0x59>
    a2c0:	6620646c 	strtvs	r6, [r0], -ip, ror #8
    a2c4:	20646e69 	rsbcs	r6, r4, r9, ror #28
    a2c8:	79622030 	stmdbvc	r2!, {r4, r5, sp}^
    a2cc:	20736574 	rsbscs	r6, r3, r4, ror r5
    a2d0:	73206e6f 			; <UNDEFINED> instruction: 0x73206e6f
    a2d4:	6e6f6365 	cdpvs	3, 6, cr6, cr15, cr5, {3}
    a2d8:	63672064 	cmnvs	r7, #100, 0	; 0x64
    a2dc:	0000000a 	andeq	r0, r0, sl
    a2e0:	494e4150 	stmdbmi	lr, {r4, r6, r8, lr}^
    a2e4:	73253a43 			; <UNDEFINED> instruction: 0x73253a43
    a2e8:	3a73253a 	bcc	1cd37d8 <__bss_end__+0x1cc8808>
    a2ec:	613a6425 	teqvs	sl, r5, lsr #8
    a2f0:	63657320 	cmnvs	r5, #32, 6	; 0x80000000
    a2f4:	20646e6f 	rsbcs	r6, r4, pc, ror #28
    a2f8:	73206367 			; <UNDEFINED> instruction: 0x73206367
    a2fc:	6c756f68 	ldclvs	15, cr6, [r5], #-416	; 0xfffffe60
    a300:	72662064 	rsbvc	r2, r6, #100, 0	; 0x64
    a304:	30206565 	eorcc	r6, r0, r5, ror #10
    a308:	74796220 	ldrbtvc	r6, [r9], #-544	; 0xfffffde0
    a30c:	203a7365 	eorscs	r7, sl, r5, ror #6
    a310:	6e756f66 	cdpvs	15, 7, cr6, cr5, cr6, {3}
    a314:	64252064 	strtvs	r2, [r5], #-100	; 0xffffff9c
    a318:	00000a0a 	andeq	r0, r0, sl, lsl #20
    a31c:	43415254 	movtmi	r5, #4692	; 0x1254
    a320:	68733a45 	ldmdavs	r3!, {r0, r2, r6, r9, fp, ip, sp}^
    a324:	646c756f 	strbtvs	r7, [ip], #-1391	; 0xfffffa91
    a328:	6e696620 	cdpvs	6, 6, cr6, cr9, cr0, {1}
    a32c:	6f6e2064 	svcvs	0x006e2064
    a330:	61656c20 	cmnvs	r5, r0, lsr #24
    a334:	00000a6b 	andeq	r0, r0, fp, ror #20

0000a338 <__FUNCTION__.4030>:
    a338:	74736574 	ldrbtvc	r6, [r3], #-1396	; 0xfffffa8c
    a33c:	00000000 	andeq	r0, r0, r0

0000a340 <__FUNCTION__.4041>:
    a340:	6d746f6e 	ldclvs	15, cr6, [r4, #-440]!	; 0xfffffe48
    a344:	006e6961 	rsbeq	r6, lr, r1, ror #18
    a348:	6c616b63 			; <UNDEFINED> instruction: 0x6c616b63
    a34c:	2e636f6c 	cdpcs	15, 6, cr6, cr3, cr12, {3}
    a350:	00000063 	andeq	r0, r0, r3, rrx
    a354:	494e4150 	stmdbmi	lr, {r4, r6, r8, lr}^
    a358:	73253a43 			; <UNDEFINED> instruction: 0x73253a43
    a35c:	3a73253a 	bcc	1cd384c <__bss_end__+0x1cc887c>
    a360:	253a6425 	ldrcs	r6, [sl, #-1061]!	; 0xfffffbdb
    a364:	00000a73 	andeq	r0, r0, r3, ror sl
    a368:	0000006c 	andeq	r0, r0, ip, rrx
    a36c:	494e4150 	stmdbmi	lr, {r4, r6, r8, lr}^
    a370:	73253a43 			; <UNDEFINED> instruction: 0x73253a43
    a374:	3a73253a 	bcc	1cd3864 <__bss_end__+0x1cc8894>
    a378:	643a6425 	ldrtvs	r6, [sl], #-1061	; 0xfffffbdb
    a37c:	6e206469 	cdpvs	4, 2, cr6, cr0, cr9, {3}
    a380:	6620746f 	strtvs	r7, [r0], -pc, ror #8
    a384:	20646e69 	rsbcs	r6, r4, r9, ror #28
    a388:	69207025 	stmdbvs	r0!, {r0, r2, r5, ip, sp, lr}
    a38c:	696c206e 	stmdbvs	ip!, {r1, r2, r3, r5, r6, sp}^
    a390:	0a0a7473 	beq	2a7564 <__bss_end__+0x29c594>
    a394:	00000000 	andeq	r0, r0, r0
    a398:	6e756f66 	cdpvs	15, 7, cr6, cr5, cr6, {3}
    a39c:	70252064 	eorvc	r2, r5, r4, rrx
    a3a0:	206e6920 	rsbcs	r6, lr, r0, lsr #18
    a3a4:	000a7025 	andeq	r7, sl, r5, lsr #32
    a3a8:	253a7325 	ldrcs	r7, [sl, #-805]!	; 0xfffffcdb
    a3ac:	64253a73 	strtvs	r3, [r5], #-2675	; 0xfffff58d
    a3b0:	0000003a 	andeq	r0, r0, sl, lsr r0
    a3b4:	65657266 	strbvs	r7, [r5, #-614]!	; 0xfffffd9a
    a3b8:	20676e69 	rsbcs	r6, r7, r9, ror #28
    a3bc:	0a702509 	beq	1c137e8 <__bss_end__+0x1c08818>
    a3c0:	00000000 	andeq	r0, r0, r0
    a3c4:	5f434f4c 	svcpl	0x00434f4c
    a3c8:	494e4150 	stmdbmi	lr, {r4, r6, r8, lr}^
    a3cc:	25203a43 	strcs	r3, [r0, #-2627]!	; 0xfffff5bd
    a3d0:	73253a73 			; <UNDEFINED> instruction: 0x73253a73
    a3d4:	3a64253a 	bcc	19138c4 <__bss_end__+0x19088f4>
    a3d8:	00000000 	andeq	r0, r0, r0
    a3dc:	65657266 	strbvs	r7, [r5, #-614]!	; 0xfffffd9a
    a3e0:	20676e69 	rsbcs	r6, r7, r9, ror #28
    a3e4:	6c616e75 	stclvs	14, cr6, [r1], #-468	; 0xfffffe2c
    a3e8:	61636f6c 	cmnvs	r3, ip, ror #30
    a3ec:	20646574 	rsbcs	r6, r4, r4, ror r5
    a3f0:	6f6d656d 	svcvs	0x006d656d
    a3f4:	203a7972 	eorscs	r7, sl, r2, ror r9
    a3f8:	74617473 	strbtvc	r7, [r1], #-1139	; 0xfffffb8d
    a3fc:	64253d65 	strtvs	r3, [r5], #-3429	; 0xfffff29b
    a400:	0000000a 	andeq	r0, r0, sl
    a404:	7a646572 	bvc	19239d4 <__bss_end__+0x1918a04>
    a408:	31656e6f 	cmncc	r5, pc, ror #28
    a40c:	73617720 	cmnvc	r1, #32, 14	; 0x800000
    a410:	726f6320 	rsbvc	r6, pc, #32, 6	; 0x80000000
    a414:	74707572 	ldrbtvc	r7, [r0], #-1394	; 0xfffffa8e
    a418:	20216465 	eorcs	r6, r1, r5, ror #8
    a41c:	6e756f66 	cdpvs	15, 7, cr6, cr5, cr6, {3}
    a420:	78252064 	stmdavc	r5!, {r2, r5, r6, sp}
    a424:	7865202c 	stmdavc	r5!, {r2, r3, r5, sp}^
    a428:	74636570 	strbtvc	r6, [r3], #-1392	; 0xfffffa90
    a42c:	25206465 	strcs	r6, [r0, #-1125]!	; 0xfffffb9b
    a430:	00000a78 	andeq	r0, r0, r8, ror sl
    a434:	7a646572 	bvc	1923a04 <__bss_end__+0x1918a34>
    a438:	32656e6f 	rsbcc	r6, r5, #1776	; 0x6f0
    a43c:	73617720 	cmnvc	r1, #32, 14	; 0x800000
    a440:	726f6320 	rsbvc	r6, pc, #32, 6	; 0x80000000
    a444:	74707572 	ldrbtvc	r7, [r0], #-1394	; 0xfffffa8e
    a448:	0a216465 	beq	8635e4 <__bss_end__+0x858614>
    a44c:	00000000 	andeq	r0, r0, r0
    a450:	705f6b63 	subsvc	r6, pc, r3, ror #22
    a454:	695f7274 	ldmdbvs	pc, {r2, r4, r5, r6, r9, ip, sp, lr}^	; <UNPREDICTABLE>
    a458:	6c615f73 	stclvs	15, cr5, [r1], #-460	; 0xfffffe34
    a45c:	65636f6c 	strbvs	r6, [r3, #-3948]!	; 0xfffff094
    a460:	64612864 	strbtvs	r2, [r1], #-2148	; 0xfffff79c
    a464:	00297264 	eoreq	r7, r9, r4, ror #4
    a468:	6f6c6c61 	svcvs	0x006c6c61
    a46c:	69746163 	ldmdbvs	r4!, {r0, r1, r5, r6, r8, sp, lr}^
    a470:	2520676e 	strcs	r6, [r0, #-1902]!	; 0xfffff892
    a474:	25282070 	strcs	r2, [r8, #-112]!	; 0xffffff90
    a478:	79622064 	stmdbvc	r2!, {r2, r5, r6, sp}^
    a47c:	29736574 	ldmdbcs	r3!, {r2, r4, r5, r6, r8, sl, sp, lr}^
    a480:	0000000a 	andeq	r0, r0, sl

0000a484 <__FUNCTION__.4058>:
    a484:	7473696c 	ldrbtvc	r6, [r3], #-2412	; 0xfffff694
    a488:	6d65725f 	sfmvs	f7, 2, [r5, #-380]!	; 0xfffffe84
    a48c:	0065766f 	rsbeq	r7, r5, pc, ror #12

0000a490 <__FUNCTION__.4077>:
    a490:	72666b63 	rsbvc	r6, r6, #101376	; 0x18c00
    a494:	00006565 	andeq	r6, r0, r5, ror #10
    a498:	75716552 	ldrbvc	r6, [r1, #-1362]!	; 0xfffffaae
    a49c:	74737265 	ldrbtvc	r7, [r3], #-613	; 0xfffffd9b
    a4a0:	20676e69 	rsbcs	r6, r7, r9, ror #28
    a4a4:	65726f6d 	ldrbvs	r6, [r2, #-3949]!	; 0xfffff093
    a4a8:	6d656d20 	stclvs	13, cr6, [r5, #-128]!	; 0xffffff80
    a4ac:	2079726f 	rsbscs	r7, r9, pc, ror #4
    a4b0:	29642528 	stmdbcs	r4!, {r3, r5, r8, sl, sp}^
    a4b4:	0a2e2e2e 	beq	b95d74 <__bss_end__+0xb8ada4>
    a4b8:	00000000 	andeq	r0, r0, r0
    a4bc:	672d6b63 	strvs	r6, [sp, -r3, ror #22]!
    a4c0:	00632e63 	rsbeq	r2, r3, r3, ror #28
    a4c4:	203c2070 	eorscs	r2, ip, r0, ror r0
    a4c8:	00000065 	andeq	r0, r0, r5, rrx
    a4cc:	67696c61 	strbvs	r6, [r9, -r1, ror #24]!
    a4d0:	2864656e 	stmdacs	r4!, {r1, r2, r3, r5, r6, r8, sl, sp, lr}^
    a4d4:	34202c70 	strtcc	r2, [r0], #-3184	; 0xfffff390
    a4d8:	00000029 	andeq	r0, r0, r9, lsr #32
    a4dc:	67696c61 	strbvs	r6, [r9, -r1, ror #24]!
    a4e0:	2864656e 	stmdacs	r4!, {r1, r2, r3, r5, r6, r8, sl, sp, lr}^
    a4e4:	34202c65 	strtcc	r2, [r0], #-3173	; 0xfffff39b
    a4e8:	00000029 	andeq	r0, r0, r9, lsr #32
    a4ec:	6e696f67 	cdpvs	15, 6, cr6, cr9, cr7, {3}
    a4f0:	6f742067 	svcvs	0x00742067
    a4f4:	72616d20 	rsbvc	r6, r1, #32, 26	; 0x800
    a4f8:	7025206b 	eorvc	r2, r5, fp, rrx
    a4fc:	20692820 	rsbcs	r2, r9, r0, lsr #16
    a500:	70252040 	eorvc	r2, r5, r0, asr #32
    a504:	25203d20 	strcs	r3, [r0, #-3360]!	; 0xfffff2e0
    a508:	202c2970 	eorcs	r2, ip, r0, ror r9
    a50c:	20707865 	rsbscs	r7, r0, r5, ror #16
    a510:	7025203d 	eorvc	r2, r5, sp, lsr r0
    a514:	0000000a 	andeq	r0, r0, sl
    a518:	6b72616d 	blvs	1ca2ad4 <__bss_end__+0x1c97b04>
    a51c:	20676e69 	rsbcs	r6, r7, r9, ror #28
    a520:	25207361 	strcs	r7, [r0, #-865]!	; 0xfffffc9f
    a524:	00000a64 	andeq	r0, r0, r4, ror #20
    a528:	20746f6e 	rsbscs	r6, r4, lr, ror #30
    a52c:	6b72616d 	blvs	1ca2ae8 <__bss_end__+0x1c97b18>
    a530:	21676e69 	cmncs	r7, r9, ror #28
    a534:	0000000a 	andeq	r0, r0, sl
    a538:	63656863 	cmnvs	r5, #6488064	; 0x630000
    a53c:	676e696b 	strbvs	r6, [lr, -fp, ror #18]!
    a540:	61747320 	cmnvs	r4, r0, lsr #6
    a544:	203a6b63 	eorscs	r6, sl, r3, ror #22
    a548:	74207025 	strtvc	r7, [r0], #-37	; 0xffffffdb
    a54c:	7025206f 	eorvc	r2, r5, pc, rrx
    a550:	0000000a 	andeq	r0, r0, sl
    a554:	2d2d2d2d 	stccs	13, cr2, [sp, #-180]!	; 0xffffff4c
    a558:	2d2d2d2d 	stccs	13, cr2, [sp, #-180]!	; 0xffffff4c
    a55c:	2d2d2d2d 	stccs	13, cr2, [sp, #-180]!	; 0xffffff4c
    a560:	2d2d2d2d 	stccs	13, cr2, [sp, #-180]!	; 0xffffff4c
    a564:	2d2d2d2d 	stccs	13, cr2, [sp, #-180]!	; 0xffffff4c
    a568:	2d2d2d2d 	stccs	13, cr2, [sp, #-180]!	; 0xffffff4c
    a56c:	2d2d2d2d 	stccs	13, cr2, [sp, #-180]!	; 0xffffff4c
    a570:	2d2d2d2d 	stccs	13, cr2, [sp, #-180]!	; 0xffffff4c
    a574:	2d2d2d2d 	stccs	13, cr2, [sp, #-180]!	; 0xffffff4c
    a578:	2d2d2d2d 	stccs	13, cr2, [sp, #-180]!	; 0xffffff4c
    a57c:	2d2d2d2d 	stccs	13, cr2, [sp, #-180]!	; 0xffffff4c
    a580:	2d2d2d2d 	stccs	13, cr2, [sp, #-180]!	; 0xffffff4c
    a584:	2d2d2d2d 	stccs	13, cr2, [sp, #-180]!	; 0xffffff4c
    a588:	2d2d2d2d 	stccs	13, cr2, [sp, #-180]!	; 0xffffff4c
    a58c:	00000a2d 	andeq	r0, r0, sp, lsr #20
    a590:	63656863 	cmnvs	r5, #6488064	; 0x630000
    a594:	676e696b 	strbvs	r6, [lr, -fp, ror #18]!
    a598:	726f6620 	rsbvc	r6, pc, #32, 12	; 0x2000000
    a59c:	61656c20 	cmnvs	r5, r0, lsr #24
    a5a0:	0a3a736b 	beq	ea7354 <__bss_end__+0xe9c384>
    a5a4:	00000000 	andeq	r0, r0, r0
    a5a8:	4c3a4347 	ldcmi	3, cr4, [sl], #-284	; 0xfffffee4
    a5ac:	2054534f 	subscs	r5, r4, pc, asr #6
    a5b0:	2d206425 	cfstrscs	mvf6, [r0, #-148]!	; 0xffffff6c
    a5b4:	7025203e 	eorvc	r2, r5, lr, lsr r0
    a5b8:	0000000a 	andeq	r0, r0, sl
    a5bc:	4d3a4347 	ldcmi	3, cr4, [sl, #-284]!	; 0xfffffee4
    a5c0:	45425941 	strbmi	r5, [r2, #-2369]	; 0xfffff6bf
    a5c4:	534f4c20 	movtpl	r4, #64544	; 0xfc20
    a5c8:	64252054 	strtvs	r2, [r5], #-84	; 0xffffffac
    a5cc:	203e2d20 	eorscs	r2, lr, r0, lsr #26
    a5d0:	000a7025 	andeq	r7, sl, r5, lsr #32
    a5d4:	43415254 	movtmi	r5, #4692	; 0x1254
    a5d8:	47093a45 	strmi	r3, [r9, -r5, asr #20]
    a5dc:	68433a43 	stmdavs	r3, {r0, r1, r6, r9, fp, ip, sp}^
    a5e0:	656b6365 	strbvs	r6, [fp, #-869]!	; 0xfffffc9b
    a5e4:	64252064 	strtvs	r2, [r5], #-100	; 0xffffff9c
    a5e8:	6f6c6220 	svcvs	0x006c6220
    a5ec:	2e736b63 	vsubcs.f64	d22, d3, d19
    a5f0:	0000000a 	andeq	r0, r0, sl
    a5f4:	43415254 	movtmi	r5, #4692	; 0x1254
    a5f8:	09093a45 	stmdbeq	r9, {r0, r2, r6, r9, fp, ip, sp}
    a5fc:	533a4347 	teqpl	sl, #469762049	; 0x1c000001
    a600:	45434355 	strbmi	r4, [r3, #-853]	; 0xfffffcab
    a604:	203a5353 	eorscs	r5, sl, r3, asr r3
    a608:	6c206f4e 	stcvs	15, cr6, [r0], #-312	; 0xfffffec8
    a60c:	736b6165 	cmnvc	fp, #1073741849	; 0x40000019
    a610:	756f6620 	strbvc	r6, [pc, #-1568]!	; 9ff8 <gpio_set_output+0x40>
    a614:	0a21646e 	beq	8637d4 <__bss_end__+0x858804>
    a618:	00000000 	andeq	r0, r0, r0
    a61c:	43415254 	movtmi	r5, #4692	; 0x1254
    a620:	09093a45 	stmdbeq	r9, {r0, r2, r6, r9, fp, ip, sp}
    a624:	453a4347 	ldrmi	r4, [sl, #-839]!	; 0xfffffcb9
    a628:	524f5252 	subpl	r5, pc, #536870917	; 0x20000005
    a62c:	25203a53 	strcs	r3, [r0, #-2643]!	; 0xfffff5ad
    a630:	72652064 	rsbvc	r2, r5, #100, 0	; 0x64
    a634:	73726f72 	cmnvc	r2, #456	; 0x1c8
    a638:	6425202c 	strtvs	r2, [r5], #-44	; 0xffffffd4
    a63c:	79616d20 	stmdbvc	r1!, {r5, r8, sl, fp, sp, lr}^
    a640:	655f6562 	ldrbvs	r6, [pc, #-1378]	; a0e6 <gpio_read+0x1e>
    a644:	726f7272 	rsbvc	r7, pc, #536870919	; 0x20000007
    a648:	00000a73 	andeq	r0, r0, r3, ror sl
    a64c:	2d2d2d2d 	stccs	13, cr2, [sp, #-180]!	; 0xffffff4c
    a650:	2d2d2d2d 	stccs	13, cr2, [sp, #-180]!	; 0xffffff4c
    a654:	2d2d2d2d 	stccs	13, cr2, [sp, #-180]!	; 0xffffff4c
    a658:	2d2d2d2d 	stccs	13, cr2, [sp, #-180]!	; 0xffffff4c
    a65c:	2d2d2d2d 	stccs	13, cr2, [sp, #-180]!	; 0xffffff4c
    a660:	2d2d2d2d 	stccs	13, cr2, [sp, #-180]!	; 0xffffff4c
    a664:	2d2d2d2d 	stccs	13, cr2, [sp, #-180]!	; 0xffffff4c
    a668:	2d2d2d2d 	stccs	13, cr2, [sp, #-180]!	; 0xffffff4c
    a66c:	2d2d2d2d 	stccs	13, cr2, [sp, #-180]!	; 0xffffff4c
    a670:	2d2d2d2d 	stccs	13, cr2, [sp, #-180]!	; 0xffffff4c
    a674:	2d2d2d2d 	stccs	13, cr2, [sp, #-180]!	; 0xffffff4c
    a678:	2d2d2d2d 	stccs	13, cr2, [sp, #-180]!	; 0xffffff4c
    a67c:	2d2d2d2d 	stccs	13, cr2, [sp, #-180]!	; 0xffffff4c
    a680:	2d2d2d2d 	stccs	13, cr2, [sp, #-180]!	; 0xffffff4c
    a684:	000a2d2d 	andeq	r2, sl, sp, lsr #26
    a688:	72636e69 	rsbvc	r6, r3, #1680	; 0x690
    a68c:	6e656d65 	cdpvs	13, 6, cr6, cr5, cr5, {3}
    a690:	203e2074 	eorscs	r2, lr, r4, ror r0
    a694:	00000030 	andeq	r0, r0, r0, lsr r0
    a698:	494e4150 	stmdbmi	lr, {r4, r6, r8, lr}^
    a69c:	73253a43 			; <UNDEFINED> instruction: 0x73253a43
    a6a0:	3a73253a 	bcc	1cd3b90 <__bss_end__+0x1cc8bc0>
    a6a4:	6e3a6425 	cdpvs	4, 3, cr6, cr10, cr5, {1}
    a6a8:	6820746f 	stmdavs	r0!, {r0, r1, r2, r3, r5, r6, sl, ip, sp, lr}
    a6ac:	6c646e61 	stclvs	14, cr6, [r4], #-388	; 0xfffffe7c
    a6b0:	0a676e69 	beq	19e605c <__bss_end__+0x19db08c>
    a6b4:	0000000a 	andeq	r0, r0, sl
    a6b8:	494e4150 	stmdbmi	lr, {r4, r6, r8, lr}^
    a6bc:	73253a43 			; <UNDEFINED> instruction: 0x73253a43
    a6c0:	3a73253a 	bcc	1cd3bb0 <__bss_end__+0x1cc8be0>
    a6c4:	473a6425 	ldrmi	r6, [sl, -r5, lsr #8]!
    a6c8:	73203a43 			; <UNDEFINED> instruction: 0x73203a43
    a6cc:	6c756f68 	ldclvs	15, cr6, [r5], #-416	; 0xfffffe60
    a6d0:	61682064 	cmnvs	r8, r4, rrx
    a6d4:	6e206576 	mcrvs	5, 1, r6, cr0, cr6, {3}
    a6d8:	656c206f 	strbvs	r2, [ip, #-111]!	; 0xffffff91
    a6dc:	21736b61 	cmncs	r3, r1, ror #22
    a6e0:	00000a0a 	andeq	r0, r0, sl, lsl #20
    a6e4:	43415254 	movtmi	r5, #4692	; 0x1254
    a6e8:	43473a45 	movtmi	r3, #31301	; 0x7a45
    a6ec:	5553203a 	ldrbpl	r2, [r3, #-58]	; 0xffffffc6
    a6f0:	53454343 	movtpl	r4, #21315	; 0x5343
    a6f4:	6e203a53 			; <UNDEFINED> instruction: 0x6e203a53
    a6f8:	656c206f 	strbvs	r2, [ip, #-111]!	; 0xffffff91
    a6fc:	21736b61 	cmncs	r3, r1, ror #22
    a700:	0000000a 	andeq	r0, r0, sl
    a704:	494e4150 	stmdbmi	lr, {r4, r6, r8, lr}^
    a708:	73253a43 			; <UNDEFINED> instruction: 0x73253a43
    a70c:	3a73253a 	bcc	1cd3bfc <__bss_end__+0x1cc8c2c>
    a710:	473a6425 	ldrmi	r6, [sl, -r5, lsr #8]!
    a714:	73203a43 			; <UNDEFINED> instruction: 0x73203a43
    a718:	6c756f68 	ldclvs	15, cr6, [r5], #-416	; 0xfffffe60
    a71c:	61682064 	cmnvs	r8, r4, rrx
    a720:	6c206576 	cfstr32vs	mvfx6, [r0], #-472	; 0xfffffe28
    a724:	736b6165 	cmnvc	fp, #1073741849	; 0x40000019
    a728:	000a0a21 	andeq	r0, sl, r1, lsr #20
    a72c:	43415254 	movtmi	r5, #4692	; 0x1254
    a730:	43473a45 	movtmi	r3, #31301	; 0x7a45
    a734:	5553203a 	ldrbpl	r2, [r3, #-58]	; 0xffffffc6
    a738:	53454343 	movtpl	r4, #21315	; 0x5343
    a73c:	66203a53 			; <UNDEFINED> instruction: 0x66203a53
    a740:	646e756f 	strbtvs	r7, [lr], #-1391	; 0xfffffa91
    a744:	20642520 	rsbcs	r2, r4, r0, lsr #10
    a748:	6b61656c 	blvs	1863d00 <__bss_end__+0x1858d30>
    a74c:	000a2173 	andeq	r2, sl, r3, ror r1
    a750:	706d6f63 	rsbvc	r6, sp, r3, ror #30
    a754:	69746361 	ldmdbvs	r4!, {r0, r5, r6, r8, r9, sp, lr}^
    a758:	0a3a676e 	beq	ea4518 <__bss_end__+0xe99548>
    a75c:	00000000 	andeq	r0, r0, r0
    a760:	463a4347 	ldrtmi	r4, [sl], -r7, asr #6
    a764:	44454552 	strbmi	r4, [r5], #-1362	; 0xfffffaae
    a768:	0a702520 	beq	1c13bf0 <__bss_end__+0x1c08c20>
    a76c:	00000000 	andeq	r0, r0, r0
    a770:	43415254 	movtmi	r5, #4692	; 0x1254
    a774:	47093a45 	strmi	r3, [r9, -r5, asr #20]
    a778:	68433a43 	stmdavs	r3, {r0, r1, r6, r9, fp, ip, sp}^
    a77c:	656b6365 	strbvs	r6, [fp, #-869]!	; 0xfffffc9b
    a780:	64252064 	strtvs	r2, [r5], #-100	; 0xffffff9c
    a784:	6f6c6220 	svcvs	0x006c6220
    a788:	2c736b63 			; <UNDEFINED> instruction: 0x2c736b63
    a78c:	65726620 	ldrbvs	r6, [r2, #-1568]!	; 0xfffff9e0
    a790:	25206465 	strcs	r6, [r0, #-1125]!	; 0xfffffb9b
    a794:	25202c64 	strcs	r2, [r0, #-3172]!	; 0xfffff39c
    a798:	79622064 	stmdbvc	r2!, {r2, r5, r6, sp}^
    a79c:	0a736574 	beq	1ce3d74 <__bss_end__+0x1cd8da4>
    a7a0:	00000000 	andeq	r0, r0, r0
    a7a4:	494e4150 	stmdbmi	lr, {r4, r6, r8, lr}^
    a7a8:	73253a43 			; <UNDEFINED> instruction: 0x73253a43
    a7ac:	3a73253a 	bcc	1cd3c9c <__bss_end__+0x1cc8ccc>
    a7b0:	643a6425 	ldrtvs	r6, [sl], #-1061	; 0xfffffbdb
    a7b4:	6e206469 	cdpvs	4, 2, cr6, cr0, cr9, {3}
    a7b8:	6920746f 	stmdbvs	r0!, {r0, r1, r2, r3, r5, r6, sl, ip, sp, lr}
    a7bc:	656c706d 	strbvs	r7, [ip, #-109]!	; 0xffffff93
    a7c0:	746e656d 	strbtvc	r6, [lr], #-1389	; 0xfffffa93
    a7c4:	6d756420 	cfldrdvs	mvd6, [r5, #-128]!	; 0xffffff80
    a7c8:	65725f70 	ldrbvs	r5, [r2, #-3952]!	; 0xfffff090
    a7cc:	0a217367 	beq	867570 <__bss_end__+0x85c5a0>
    a7d0:	0000000a 	andeq	r0, r0, sl

0000a7d4 <__FUNCTION__.4045>:
    a7d4:	6b72616d 	blvs	1ca2d90 <__bss_end__+0x1c97dc0>
    a7d8:	00000000 	andeq	r0, r0, r0

0000a7dc <__FUNCTION__.4032>:
    a7dc:	6b726273 	blvs	1ca31b0 <__bss_end__+0x1c981e0>
    a7e0:	00000000 	andeq	r0, r0, r0

0000a7e4 <__FUNCTION__.4088>:
    a7e4:	63656863 	cmnvs	r5, #6488064	; 0x630000
    a7e8:	6f6e5f6b 	svcvs	0x006e5f6b
    a7ec:	61656c5f 	cmnvs	r5, pc, asr ip
    a7f0:	0000006b 	andeq	r0, r0, fp, rrx

0000a7f4 <__FUNCTION__.4093>:
    a7f4:	63656863 	cmnvs	r5, #6488064	; 0x630000
    a7f8:	68735f6b 	ldmdavs	r3!, {r0, r1, r3, r5, r6, r8, r9, sl, fp, ip, lr}^
    a7fc:	646c756f 	strbtvs	r7, [ip], #-1391	; 0xfffffa91
    a800:	61656c5f 	cmnvs	r5, pc, asr ip
    a804:	0000006b 	andeq	r0, r0, fp, rrx

0000a808 <__FUNCTION__.4101>:
    a808:	65657773 	strbvs	r7, [r5, #-1907]!	; 0xfffff88d
    a80c:	72665f70 	rsbvc	r5, r6, #112, 30	; 0x1c0
    a810:	00006565 	andeq	r6, r0, r5, ror #10

0000a814 <__FUNCTION__.4112>:
    a814:	6c706d69 	ldclvs	13, cr6, [r0], #-420	; 0xfffffe5c
    a818:	6e656d65 	cdpvs	13, 6, cr6, cr5, cr5, {3}
    a81c:	68745f74 	ldmdavs	r4!, {r2, r4, r5, r6, r8, r9, sl, fp, ip, lr}^
    a820:	00007369 	andeq	r7, r0, r9, ror #6
    a824:	696c2f2e 	stmdbvs	ip!, {r1, r2, r3, r5, r8, r9, sl, fp, sp}^
    a828:	762f6362 	strtvc	r6, [pc], -r2, ror #6
    a82c:	72702d61 	rsbsvc	r2, r0, #6208	; 0x1840
    a830:	6b746e69 	blvs	1d261dc <__bss_end__+0x1d1b20c>
    a834:	0000632e 	andeq	r6, r0, lr, lsr #6
    a838:	33323130 	teqcc	r2, #12
    a83c:	37363534 			; <UNDEFINED> instruction: 0x37363534
    a840:	62613938 	rsbvs	r3, r1, #56, 18	; 0xe0000
    a844:	66656463 	strbtvs	r6, [r5], -r3, ror #8
    a848:	00000000 	andeq	r0, r0, r0
    a84c:	00003130 	andeq	r3, r0, r0, lsr r1
    a850:	33323130 	teqcc	r2, #12
    a854:	37363534 			; <UNDEFINED> instruction: 0x37363534
    a858:	00003938 	andeq	r3, r0, r8, lsr r9
    a85c:	63747570 	cmnvs	r4, #112, 10	; 0x1c000000
    a860:	0070665f 	rsbseq	r6, r0, pc, asr r6
    a864:	74646977 	strbtvc	r6, [r4], #-2423	; 0xfffff689
    a868:	203c2068 	eorscs	r2, ip, r8, rrx
    a86c:	00003233 	andeq	r3, r0, r3, lsr r2
    a870:	00786c6c 	rsbseq	r6, r8, ip, ror #24
    a874:	253d3078 	ldrcs	r3, [sp, #-120]!	; 0xffffff88
    a878:	00000a78 	andeq	r0, r0, r8, ror sl
    a87c:	253d3178 	ldrcs	r3, [sp, #-376]!	; 0xfffffe88
    a880:	00000a78 	andeq	r0, r0, r8, ror sl
    a884:	00646c6c 	rsbeq	r6, r4, ip, ror #24
    a888:	6e727473 	mrcvs	4, 3, r7, cr2, cr3, {3}
    a88c:	28706d63 	ldmdacs	r0!, {r0, r1, r5, r6, r8, sl, fp, sp, lr}^
    a890:	202c7974 	eorcs	r7, ip, r4, ror r9
    a894:	786c6c22 	stmdavc	ip!, {r1, r5, sl, fp, sp, lr}^
    a898:	33202c22 			; <UNDEFINED> instruction: 0x33202c22
    a89c:	3d3d2029 	ldccc	0, cr2, [sp, #-164]!	; 0xffffff5c
    a8a0:	7c203020 	stcvc	0, cr3, [r0], #-128	; 0xffffff80
    a8a4:	7473207c 	ldrbtvc	r2, [r3], #-124	; 0xffffff84
    a8a8:	6d636e72 	stclvs	14, cr6, [r3, #-456]!	; 0xfffffe38
    a8ac:	79742870 	ldmdbvc	r4!, {r4, r5, r6, fp, sp}^
    a8b0:	6c22202c 	stcvs	0, cr2, [r2], #-176	; 0xffffff50
    a8b4:	2c22646c 	cfstrscs	mvf6, [r2], #-432	; 0xfffffe50
    a8b8:	20293320 	eorcs	r3, r9, r0, lsr #6
    a8bc:	30203d3d 	eorcc	r3, r0, sp, lsr sp
    a8c0:	00000000 	andeq	r0, r0, r0
    a8c4:	494e4150 	stmdbmi	lr, {r4, r6, r8, lr}^
    a8c8:	73253a43 			; <UNDEFINED> instruction: 0x73253a43
    a8cc:	3a73253a 	bcc	1cd3dbc <__bss_end__+0x1cc8dec>
    a8d0:	693a6425 	ldmdbvs	sl!, {r0, r2, r5, sl, sp, lr}
    a8d4:	736f706d 	cmnvc	pc, #109, 0	; 0x6d
    a8d8:	6c626973 			; <UNDEFINED> instruction: 0x6c626973
    a8dc:	66203a65 	strtvs	r3, [r0], -r5, ror #20
    a8e0:	3c3d746d 	cfldrscc	mvf7, [sp], #-436	; 0xfffffe4c
    a8e4:	0a3e7325 	beq	fa7580 <__bss_end__+0xf9c5b0>
    a8e8:	0000000a 	andeq	r0, r0, sl
    a8ec:	494e4150 	stmdbmi	lr, {r4, r6, r8, lr}^
    a8f0:	73253a43 			; <UNDEFINED> instruction: 0x73253a43
    a8f4:	3a73253a 	bcc	1cd3de4 <__bss_end__+0x1cc8e14>
    a8f8:	663a6425 	ldrtvs	r6, [sl], -r5, lsr #8
    a8fc:	74616f6c 	strbtvc	r6, [r1], #-3948	; 0xfffff094
    a900:	746f6e20 	strbtvc	r6, [pc], #-3616	; a908 <__FUNCTION__.4112+0xf4>
    a904:	616e6520 	cmnvs	lr, r0, lsr #10
    a908:	64656c62 	strbtvs	r6, [r5], #-3170	; 0xfffff39e
    a90c:	0a212121 	beq	852d98 <__bss_end__+0x847dc8>
    a910:	00000000 	andeq	r0, r0, r0
    a914:	6e697270 	mcrvs	2, 3, r7, cr9, cr0, {3}
    a918:	203a6b74 	eorscs	r6, sl, r4, ror fp
    a91c:	20746f6e 	rsbscs	r6, r4, lr, ror #30
    a920:	646e6168 	strbtvs	r6, [lr], #-360	; 0xfffffe98
    a924:	676e696c 	strbvs	r6, [lr, -ip, ror #18]!
    a928:	65707320 	ldrbvs	r7, [r0, #-800]!	; 0xfffffce0
    a92c:	69666963 	stmdbvs	r6!, {r0, r1, r5, r6, r8, fp, sp, lr}^
    a930:	27207265 	strcs	r7, [r0, -r5, ror #4]!
    a934:	20276325 	eorcs	r6, r7, r5, lsr #6
    a938:	63736128 	cmnvs	r3, #10
    a93c:	253d6969 	ldrcs	r6, [sp, #-2409]!	; 0xfffff697
    a940:	000a2964 	andeq	r2, sl, r4, ror #18
    a944:	494e4150 	stmdbmi	lr, {r4, r6, r8, lr}^
    a948:	73253a43 			; <UNDEFINED> instruction: 0x73253a43
    a94c:	3a73253a 	bcc	1cd3e3c <__bss_end__+0x1cc8e6c>
    a950:	703a6425 	eorsvc	r6, sl, r5, lsr #8
    a954:	746e6972 	strbtvc	r6, [lr], #-2418	; 0xfffff68e
    a958:	7265206b 	rsbvc	r2, r5, #107, 0	; 0x6b
    a95c:	0a726f72 	beq	1ca672c <__bss_end__+0x1c9b75c>
    a960:	0000000a 	andeq	r0, r0, sl

0000a964 <__FUNCTION__.4004>:
    a964:	74696d65 	strbtvc	r6, [r9], #-3429	; 0xfffff29b
    a968:	00000000 	andeq	r0, r0, r0

0000a96c <__FUNCTION__.3952>:
    a96c:	5f697072 	svcpl	0x00697072
    a970:	5f746573 	svcpl	0x00746573
    a974:	7074756f 	rsbsvc	r7, r4, pc, ror #10
    a978:	00007475 	andeq	r7, r0, r5, ror r4

0000a97c <__FUNCTION__.4030>:
    a97c:	705f6176 	subsvc	r6, pc, r6, ror r1	; <UNPREDICTABLE>
    a980:	746e6972 	strbtvc	r6, [lr], #-2418	; 0xfffff68e
    a984:	0000006b 	andeq	r0, r0, fp, rrx
    a988:	454e4f44 	strbmi	r4, [lr, #-3908]	; 0xfffff0bc
    a98c:	0a212121 	beq	852e18 <__bss_end__+0x847e48>
    a990:	00000000 	andeq	r0, r0, r0
    a994:	6c616d6b 	stclvs	13, cr6, [r1], #-428	; 0xfffffe54
    a998:	2e636f6c 	cdpcs	15, 6, cr6, cr3, cr12, {3}
    a99c:	00000063 	andeq	r0, r0, r3, rrx
    a9a0:	5f78616d 	svcpl	0x0078616d
    a9a4:	7479626e 	ldrbtvc	r6, [r9], #-622	; 0xfffffd92
    a9a8:	00007365 	andeq	r7, r0, r5, ror #6
    a9ac:	494e4150 	stmdbmi	lr, {r4, r6, r8, lr}^
    a9b0:	73253a43 			; <UNDEFINED> instruction: 0x73253a43
    a9b4:	3a73253a 	bcc	1cd3ea4 <__bss_end__+0x1cc8ed4>
    a9b8:	733a6425 	teqvc	sl, #620756992	; 0x25000000
    a9bc:	69747465 	ldmdbvs	r4!, {r0, r2, r5, r6, sl, ip, sp, lr}^
    a9c0:	6820676e 	stmdavs	r0!, {r1, r2, r3, r5, r6, r8, r9, sl, sp, lr}
    a9c4:	20706165 	rsbscs	r6, r0, r5, ror #2
    a9c8:	25206f74 	strcs	r6, [r0, #-3956]!	; 0xfffff08c
    a9cc:	77203a70 			; <UNDEFINED> instruction: 0x77203a70
    a9d0:	206c6c69 	rsbcs	r6, ip, r9, ror #24
    a9d4:	20746968 	rsbscs	r6, r4, r8, ror #18
    a9d8:	20656874 	rsbcs	r6, r5, r4, ror r8
    a9dc:	20646c6f 	rsbcs	r6, r4, pc, ror #24
    a9e0:	70616568 	rsbvc	r6, r1, r8, ror #10
    a9e4:	20746120 	rsbscs	r6, r4, r0, lsr #2
    a9e8:	0a0a7025 	beq	2a6a84 <__bss_end__+0x29bab4>
    a9ec:	00000000 	andeq	r0, r0, r0
    a9f0:	494e4150 	stmdbmi	lr, {r4, r6, r8, lr}^
    a9f4:	73253a43 			; <UNDEFINED> instruction: 0x73253a43
    a9f8:	3a73253a 	bcc	1cd3ee8 <__bss_end__+0x1cc8f18>
    a9fc:	613a6425 	teqvs	sl, r5, lsr #8
    aa00:	6165726c 	cmnvs	r5, ip, ror #4
    aa04:	63207964 			; <UNDEFINED> instruction: 0x63207964
    aa08:	656c6c61 	strbvs	r6, [ip, #-3169]!	; 0xfffff39f
    aa0c:	6d6b2064 	stclvs	0, cr2, [fp, #-400]!	; 0xfffffe70
    aa10:	6f6c6c61 	svcvs	0x006c6c61
    aa14:	6e695f63 	cdpvs	15, 6, cr5, cr9, cr3, {3}
    aa18:	0a0a7469 	beq	2a7bc4 <__bss_end__+0x29cbf4>
    aa1c:	00000000 	andeq	r0, r0, r0
    aa20:	494e4150 	stmdbmi	lr, {r4, r6, r8, lr}^
    aa24:	73253a43 			; <UNDEFINED> instruction: 0x73253a43
    aa28:	3a73253a 	bcc	1cd3f18 <__bss_end__+0x1cc8f48>
    aa2c:	253a6425 	ldrcs	r6, [sl, #-1061]!	; 0xfffffbdb
    aa30:	626e2064 	rsbvs	r2, lr, #100, 0	; 0x64
    aa34:	73657479 	cmnvc	r5, #2030043136	; 0x79000000
    aa38:	63786520 	cmnvs	r8, #32, 10	; 0x8000000
    aa3c:	65646565 	strbvs	r6, [r4, #-1381]!	; 0xfffffa9b
    aa40:	69732064 	ldmdbvs	r3!, {r2, r5, r6, sp}^
    aa44:	6f20657a 	svcvs	0x0020657a
    aa48:	65682066 	strbvs	r2, [r8, #-102]!	; 0xffffff9a
    aa4c:	62207061 	eorvs	r7, r0, #97, 0	; 0x61
    aa50:	75252079 	strvc	r2, [r5, #-121]!	; 0xffffff87
    aa54:	79626e20 	stmdbvc	r2!, {r5, r9, sl, fp, sp, lr}^
    aa58:	0a736574 	beq	1ce4030 <__bss_end__+0x1cd9060>
    aa5c:	0000000a 	andeq	r0, r0, sl
    aa60:	4f525245 	svcmi	0x00525245
    aa64:	73253a52 			; <UNDEFINED> instruction: 0x73253a52
    aa68:	3a73253a 	bcc	1cd3f58 <__bss_end__+0x1cc8f88>
    aa6c:	203a6425 	eorscs	r6, sl, r5, lsr #8
    aa70:	534c4146 	movtpl	r4, #49478	; 0xc146
    aa74:	253c2845 	ldrcs	r2, [ip, #-2117]!	; 0xfffff7bb
    aa78:	3a293e73 	bcc	a5a44c <__bss_end__+0xa4f47c>
    aa7c:	73736120 	cmnvc	r3, #8
    aa80:	6e696d75 	mcrvs	13, 3, r6, cr9, cr5, {3}
    aa84:	6f702067 	svcvs	0x00702067
    aa88:	20726577 	rsbscs	r6, r2, r7, ror r5
    aa8c:	7420666f 	strtvc	r6, [r0], #-1647	; 0xfffff991
    aa90:	000a6f77 	andeq	r6, sl, r7, ror pc
    aa94:	705f7369 	subsvc	r7, pc, r9, ror #6
    aa98:	2832776f 	ldmdacs	r2!, {r0, r1, r2, r3, r5, r6, r8, r9, sl, ip, sp, lr}
    aa9c:	67696c61 	strbvs	r6, [r9, -r1, ror #24]!
    aaa0:	6e656d6e 	cdpvs	13, 6, cr6, cr5, cr14, {3}
    aaa4:	00002974 	andeq	r2, r0, r4, ror r9
    aaa8:	705f7369 	subsvc	r7, pc, r9, ror #6
    aaac:	2832776f 	ldmdacs	r2!, {r0, r1, r2, r3, r5, r6, r8, r9, sl, ip, sp, lr}
    aab0:	0000296e 	andeq	r2, r0, lr, ror #18
    aab4:	4f525245 	svcmi	0x00525245
    aab8:	73253a52 			; <UNDEFINED> instruction: 0x73253a52
    aabc:	3a73253a 	bcc	1cd3fac <__bss_end__+0x1cc8fdc>
    aac0:	203a6425 	eorscs	r6, sl, r5, lsr #8
    aac4:	534c4146 	movtpl	r4, #49478	; 0xc146
    aac8:	253c2845 	ldrcs	r2, [ip, #-2117]!	; 0xfffff7bb
    aacc:	3a293e73 	bcc	a5a4a0 <__bss_end__+0xa4f4d0>
    aad0:	706d6920 	rsbvc	r6, sp, r0, lsr #18
    aad4:	6973736f 	ldmdbvs	r3!, {r0, r1, r2, r3, r5, r6, r8, r9, ip, sp, lr}^
    aad8:	0a656c62 	beq	1965c68 <__bss_end__+0x195ac98>
    aadc:	00000000 	andeq	r0, r0, r0
    aae0:	615f7369 	cmpvs	pc, r9, ror #6
    aae4:	6e67696c 	vnmulvs.f16	s13, s14, s25	; <UNPREDICTABLE>
    aae8:	68286465 	stmdavs	r8!, {r0, r2, r5, r6, sl, sp, lr}
    aaec:	6c61202c 	stclvs	0, cr2, [r1], #-176	; 0xffffff50
    aaf0:	6d6e6769 	stclvs	7, cr6, [lr, #-420]!	; 0xfffffe5c
    aaf4:	29746e65 	ldmdbcs	r4!, {r0, r2, r5, r6, r9, sl, fp, sp, lr}^
    aaf8:	00000000 	andeq	r0, r0, r0
    aafc:	494e4150 	stmdbmi	lr, {r4, r6, r8, lr}^
    ab00:	73253a43 			; <UNDEFINED> instruction: 0x73253a43
    ab04:	3a73253a 	bcc	1cd3ff4 <__bss_end__+0x1cc9024>
    ab08:	703a6425 	eorsvc	r6, sl, r5, lsr #8
    ab0c:	746e696f 	strbtvc	r6, [lr], #-2415	; 0xfffff691
    ab10:	25207265 	strcs	r7, [r0, #-613]!	; 0xfffffd9b
    ab14:	61772070 	cmnvs	r7, r0, ror r0
    ab18:	656e2073 	strbvs	r2, [lr, #-115]!	; 0xffffff8d
    ab1c:	20726576 	rsbscs	r6, r2, r6, ror r5
    ab20:	6f6c6c61 	svcvs	0x006c6c61
    ab24:	65746163 	ldrbvs	r6, [r4, #-355]!	; 0xfffffe9d
    ab28:	000a0a64 	andeq	r0, sl, r4, ror #20

0000ab2c <__FUNCTION__.7>:
    ab2c:	6c616d6b 	stclvs	13, cr6, [r1], #-428	; 0xfffffe54
    ab30:	5f636f6c 	svcpl	0x00636f6c
    ab34:	74696e69 	strbtvc	r6, [r9], #-3689	; 0xfffff197
    ab38:	7465735f 	strbtvc	r7, [r5], #-863	; 0xfffffca1
    ab3c:	6174735f 	cmnvs	r4, pc, asr r3
    ab40:	00007472 	andeq	r7, r0, r2, ror r4

0000ab44 <__FUNCTION__.5>:
    ab44:	6c616d6b 	stclvs	13, cr6, [r1], #-428	; 0xfffffe54
    ab48:	5f636f6c 	svcpl	0x00636f6c
    ab4c:	74696e69 	strbtvc	r6, [r9], #-3689	; 0xfffff197
    ab50:	00000000 	andeq	r0, r0, r0

0000ab54 <__FUNCTION__.4>:
    ab54:	6c616d6b 	stclvs	13, cr6, [r1], #-428	; 0xfffffe54
    ab58:	5f636f6c 	svcpl	0x00636f6c
    ab5c:	7a746f6e 	bvc	1d2691c <__bss_end__+0x1d1b94c>
    ab60:	006f7265 	rsbeq	r7, pc, r5, ror #4

0000ab64 <__FUNCTION__.2>:
    ab64:	6c616d6b 	stclvs	13, cr6, [r1], #-428	; 0xfffffe54
    ab68:	00636f6c 	rsbeq	r6, r3, ip, ror #30

0000ab6c <__FUNCTION__.1>:
    ab6c:	6c616d6b 	stclvs	13, cr6, [r1], #-428	; 0xfffffe54
    ab70:	5f636f6c 	svcpl	0x00636f6c
    ab74:	67696c61 	strbvs	r6, [r9, -r1, ror #24]!
    ab78:	0064656e 	rsbeq	r6, r4, lr, ror #10

0000ab7c <__FUNCTION__.3>:
    ab7c:	6e756f72 	mrcvs	15, 3, r6, cr5, cr2, {3}
    ab80:	00707564 	rsbseq	r7, r0, r4, ror #10

0000ab84 <__FUNCTION__.0>:
    ab84:	6572666b 	ldrbvs	r6, [r2, #-1643]!	; 0xfffff995
    ab88:	6f705f65 	svcvs	0x00705f65
    ab8c:	Address 0x000000000000ab8c is out of bounds.


Disassembly of section .data:

0000ab90 <putk>:
    ab90:	00008cfc 	strdeq	r8, [r0], -ip

0000ab94 <heap>:
    ab94:	0000afd0 	ldrdeq	sl, [r0], -r0

0000ab98 <heap_start>:
    ab98:	0000afd0 	ldrdeq	sl, [r0], -r0

0000ab9c <heap_end>:
    ab9c:	0020afd0 	ldrdeq	sl, [r0], -r0	; <UNPREDICTABLE>

0000aba0 <rpi_putchar>:
    aba0:	0000a0f0 	strdeq	sl, [r0], -r0

Disassembly of section .bss:

0000aba8 <__bss_start__>:
	...

0000abb0 <freep>:
	...

0000abb8 <base>:
	...

0000abc0 <heap_start>:
    abc0:	00000000 	andeq	r0, r0, r0

0000abc4 <heap_end>:
    abc4:	00000000 	andeq	r0, r0, r0

0000abc8 <init_p.4031>:
    abc8:	00000000 	andeq	r0, r0, r0

0000abcc <buf.3944>:
	...

0000afcc <init_p.6>:
    afcc:	00000000 	andeq	r0, r0, r0

Disassembly of section .ARM.attributes:

00000000 <.ARM.attributes>:
   0:	00002a41 	andeq	r2, r0, r1, asr #20
   4:	61656100 	cmnvs	r5, r0, lsl #2
   8:	01006962 	tsteq	r0, r2, ror #18
   c:	00000020 	andeq	r0, r0, r0, lsr #32
  10:	4b5a3605 	blmi	168d82c <__bss_end__+0x168285c>
  14:	08070600 	stmdaeq	r7, {r9, sl}
  18:	12010901 	andne	r0, r1, #16384	; 0x4000
  1c:	15011404 	strne	r1, [r1, #-1028]	; 0xfffffbfc
  20:	18031701 	stmdane	r3, {r0, r8, r9, sl, ip}
  24:	22011a01 	andcs	r1, r1, #4096	; 0x1000
  28:	Address 0x0000000000000028 is out of bounds.


Disassembly of section .comment:

00000000 <.comment>:
   0:	3a434347 	bcc	10d0d24 <__bss_end__+0x10c5d54>
   4:	4e472820 	cdpmi	8, 4, cr2, cr7, cr0, {1}
   8:	6f542055 	svcvs	0x00542055
   c:	20736c6f 	rsbscs	r6, r3, pc, ror #24
  10:	20726f66 	rsbscs	r6, r2, r6, ror #30
  14:	206d7241 	rsbcs	r7, sp, r1, asr #4
  18:	65626d45 	strbvs	r6, [r2, #-3397]!	; 0xfffff2bb
  1c:	64656464 	strbtvs	r6, [r5], #-1124	; 0xfffffb9c
  20:	6f725020 	svcvs	0x00725020
  24:	73736563 	cmnvc	r3, #415236096	; 0x18c00000
  28:	2073726f 	rsbscs	r7, r3, pc, ror #4
  2c:	30322d39 	eorscc	r2, r2, r9, lsr sp
  30:	712d3931 			; <UNDEFINED> instruction: 0x712d3931
  34:	616d2d34 	cmnvs	sp, r4, lsr sp
  38:	29726f6a 	ldmdbcs	r2!, {r1, r3, r5, r6, r8, r9, sl, fp, sp, lr}^
  3c:	322e3920 	eorcc	r3, lr, #32, 18	; 0x80000
  40:	3220312e 	eorcc	r3, r0, #-2147483637	; 0x8000000b
  44:	31393130 	teqcc	r9, r0, lsr r1
  48:	20353230 	eorscs	r3, r5, r0, lsr r2
  4c:	6c657228 	sfmvs	f7, 2, [r5], #-160	; 0xffffff60
  50:	65736165 	ldrbvs	r6, [r3, #-357]!	; 0xfffffe9b
  54:	415b2029 	cmpmi	fp, r9, lsr #32
  58:	612f4d52 			; <UNDEFINED> instruction: 0x612f4d52
  5c:	392d6d72 	pushcc	{r1, r4, r5, r6, r8, sl, fp, sp, lr}
  60:	6172622d 	cmnvs	r2, sp, lsr #4
  64:	2068636e 	rsbcs	r6, r8, lr, ror #6
  68:	69766572 	ldmdbvs	r6!, {r1, r4, r5, r6, r8, sl, sp, lr}^
  6c:	6e6f6973 			; <UNDEFINED> instruction: 0x6e6f6973
  70:	37373220 	ldrcc	r3, [r7, -r0, lsr #4]!
  74:	5d393935 			; <UNDEFINED> instruction: 0x5d393935
  78:	43434700 	movtmi	r4, #14080	; 0x3700
  7c:	4728203a 			; <UNDEFINED> instruction: 0x4728203a
  80:	4120554e 			; <UNDEFINED> instruction: 0x4120554e
  84:	45206d72 	strmi	r6, [r0, #-3442]!	; 0xfffff28e
  88:	6465626d 	strbtvs	r6, [r5], #-621	; 0xfffffd93
  8c:	20646564 	rsbcs	r6, r4, r4, ror #10
  90:	6c6f6f54 	stclvs	15, cr6, [pc], #-336	; ffffff48 <__bss_end__+0xffff4f78>
  94:	69616863 	stmdbvs	r1!, {r0, r1, r5, r6, fp, sp, lr}^
  98:	3031206e 	eorscc	r2, r1, lr, rrx
  9c:	322d332e 	eorcc	r3, sp, #-1207959552	; 0xb8000000
  a0:	2e313230 	mrccs	2, 1, r3, cr1, cr0, {1}
  a4:	20293031 	eorcs	r3, r9, r1, lsr r0
  a8:	332e3031 			; <UNDEFINED> instruction: 0x332e3031
  ac:	3220312e 	eorcc	r3, r0, #-2147483637	; 0x8000000b
  b0:	30313230 	eorscc	r3, r1, r0, lsr r2
  b4:	20343238 	eorscs	r3, r4, r8, lsr r2
  b8:	6c657228 	sfmvs	f7, 2, [r5], #-160	; 0xffffff60
  bc:	65736165 	ldrbvs	r6, [r3, #-357]!	; 0xfffffe9b
  c0:	Address 0x00000000000000c0 is out of bounds.


Disassembly of section .debug_info:

00000000 <.debug_info>:
       0:	000004d7 	ldrdeq	r0, [r0], -r7
       4:	00000004 	andeq	r0, r0, r4
       8:	01040000 	mrseq	r0, (UNDEF: 4)
       c:	00000132 	andeq	r0, r0, r2, lsr r1
      10:	0000ed0c 	andeq	lr, r0, ip, lsl #26
      14:	00007e00 	andeq	r7, r0, r0, lsl #28
      18:	00803800 	addeq	r3, r0, r0, lsl #16
      1c:	00012400 	andeq	r2, r1, r0, lsl #8
      20:	00000000 	andeq	r0, r0, r0
      24:	05040200 	streq	r0, [r4, #-512]	; 0xfffffe00
      28:	00746e69 	rsbseq	r6, r4, r9, ror #28
      2c:	cf070403 	svcgt	0x00070403
      30:	03000000 	movweq	r0, #0
      34:	00720601 	rsbseq	r0, r2, r1, lsl #12
      38:	02030000 	andeq	r0, r3, #0, 0
      3c:	00000005 	andeq	r0, r0, r5
      40:	05040300 	streq	r0, [r4, #-768]	; 0xfffffd00
      44:	00000033 	andeq	r0, r0, r3, lsr r0
      48:	2e050803 	cdpcs	8, 0, cr0, cr5, cr3, {0}
      4c:	03000000 	movweq	r0, #0
      50:	00700801 	rsbseq	r0, r0, r1, lsl #16
      54:	02030000 	andeq	r0, r3, #0, 0
      58:	00010807 	andeq	r0, r1, r7, lsl #16
      5c:	00dc0400 	sbcseq	r0, ip, r0, lsl #8
      60:	34040000 	strcc	r0, [r4], #-0
      64:	00006919 	andeq	r6, r0, r9, lsl r9
      68:	07040300 	streq	r0, [r4, -r0, lsl #6]
      6c:	000000ca 	andeq	r0, r0, sl, asr #1
      70:	c5070803 	strgt	r0, [r7, #-2051]	; 0xfffff7fd
      74:	05000000 	streq	r0, [r0, #-0]
      78:	00000025 	andeq	r0, r0, r5, lsr #32
      7c:	00000086 	andeq	r0, r0, r6, lsl #1
      80:	00002506 	andeq	r2, r0, r6, lsl #10
      84:	0a070000 	beq	1c008c <__bss_end__+0x1b50bc>
      88:	03000000 	movweq	r0, #0
      8c:	00920e1c 	addseq	r0, r2, ip, lsl lr
      90:	04080000 	streq	r0, [r8], #-0
      94:	00000077 	andeq	r0, r0, r7, ror r0
      98:	00002505 	andeq	r2, r0, r5, lsl #10
      9c:	0000a700 	andeq	sl, r0, r0, lsl #14
      a0:	00a70600 	adceq	r0, r7, r0, lsl #12
      a4:	08000000 	stmdaeq	r0, {}	; <UNPREDICTABLE>
      a8:	0000b404 	andeq	fp, r0, r4, lsl #8
      ac:	08010300 	stmdaeq	r1, {r8, r9}
      b0:	00000079 	andeq	r0, r0, r9, ror r0
      b4:	0000ad09 	andeq	sl, r0, r9, lsl #26
      b8:	05fe0700 	ldrbeq	r0, [lr, #1792]!	; 0x700
      bc:	21030000 	mrscs	r0, (UNDEF: 3)
      c0:	0000c50e 	andeq	ip, r0, lr, lsl #10
      c4:	98040800 	stmdals	r4, {fp}
      c8:	0a000000 	beq	d0 <__code_start__-0x7f30>
      cc:	0904020c 	stmdbeq	r4, {r2, r3, r9}
      d0:	000000fc 	strdeq	r0, [r0], -ip
      d4:	00001e0b 	andeq	r1, r0, fp, lsl #28
      d8:	11060200 	mrsne	r0, LR_usr
      dc:	000000a7 	andeq	r0, r0, r7, lsr #1
      e0:	00290b00 	eoreq	r0, r9, r0, lsl #22
      e4:	07020000 	streq	r0, [r2, -r0]
      e8:	0000a711 	andeq	sl, r0, r1, lsl r7
      ec:	be0b0400 	cfcpyslt	mvf0, mvf11
      f0:	02000000 	andeq	r0, r0, #0, 0
      f4:	002c0e08 	eoreq	r0, ip, r8, lsl #28
      f8:	00080000 	andeq	r0, r8, r0
      fc:	0001ff04 	andeq	pc, r1, r4, lsl #30
     100:	03090200 	movweq	r0, #37376	; 0x9200
     104:	000000cb 	andeq	r0, r0, fp, asr #1
     108:	6307040c 	movwvs	r0, #29708	; 0x740c
     10c:	05000000 	streq	r0, [r0, #-0]
     110:	002c11a5 	eoreq	r1, ip, r5, lsr #3
     114:	620d0000 	andvs	r0, sp, #0, 0
     118:	01007261 	tsteq	r0, r1, ror #4
     11c:	002c0a4c 	eoreq	r0, ip, ip, asr #20
     120:	32010000 	andcc	r0, r1, #0, 0
     124:	0e000001 	cdpeq	0, 0, cr0, cr0, cr1, {0}
     128:	4d010070 	stcmi	0, cr0, [r1, #-448]	; 0xfffffe40
     12c:	0001080b 	andeq	r0, r1, fp, lsl #16
     130:	e50f0000 	str	r0, [pc, #-0]	; 138 <__code_start__-0x7ec8>
     134:	01000000 	mrseq	r0, (UNDEF: 0)
     138:	80a0062b 	adchi	r0, r0, fp, lsr #12
     13c:	00a00000 	adceq	r0, r0, r0
     140:	9c010000 	stcls	0, cr0, [r1], {-0}
     144:	00000283 	andeq	r0, r0, r3, lsl #5
     148:	01007810 	tsteq	r0, r0, lsl r8
     14c:	002c0e31 	eoreq	r0, ip, r1, lsr lr
     150:	11000000 	mrsne	r0, (UNDEF: 0)
     154:	4201006e 	andmi	r0, r1, #110, 0	; 0x6e
     158:	00002c0e 	andeq	r2, r0, lr, lsl #24
     15c:	00000600 	andeq	r0, r0, r0, lsl #12
     160:	00000000 	andeq	r0, r0, r0
     164:	00491200 	subeq	r1, r9, r0, lsl #4
     168:	02930000 	addseq	r0, r3, #0, 0
     16c:	03050000 	movweq	r0, #20480	; 0x5000
     170:	0000a340 	andeq	sl, r0, r0, asr #6
     174:	00011613 	andeq	r1, r1, r3, lsl r6
     178:	0080b000 	addeq	fp, r0, r0
     17c:	80b00100 	adcshi	r0, r0, r0, lsl #2
     180:	00100000 	andseq	r0, r0, r0
     184:	31010000 	mrscc	r0, (UNDEF: 1)
     188:	0001b312 	andeq	fp, r1, r2, lsl r3
     18c:	01271400 			; <UNDEFINED> instruction: 0x01271400
     190:	00340000 	eorseq	r0, r4, r0
     194:	00300000 	eorseq	r0, r0, r0
     198:	b4150000 	ldrlt	r0, [r5], #-0
     19c:	98000080 	stmdals	r0, {r7}
     1a0:	16000002 	strne	r0, [r0], -r2
     1a4:	000080c0 	andeq	r8, r0, r0, asr #1
     1a8:	00000471 	andeq	r0, r0, r1, ror r4
     1ac:	01500117 	cmpeq	r0, r7, lsl r1
     1b0:	18000030 	stmdane	r0, {r4, r5}
     1b4:	000080b0 	strheq	r8, [r0], -r0
     1b8:	0000047d 	andeq	r0, r0, sp, ror r4
     1bc:	000001ca 	andeq	r0, r0, sl, asr #3
     1c0:	05500117 	ldrbeq	r0, [r0, #-279]	; 0xfffffee9
     1c4:	00a24c03 	adceq	r4, r2, r3, lsl #24
     1c8:	c8180000 	ldmdagt	r8, {}	; <UNPREDICTABLE>
     1cc:	7d000080 	stcvc	0, cr0, [r0, #-512]	; 0xfffffe00
     1d0:	e1000004 	tst	r0, r4
     1d4:	17000001 	strne	r0, [r0, -r1]
     1d8:	03055001 	movweq	r5, #20481	; 0x5001
     1dc:	0000a288 	andeq	sl, r0, r8, lsl #5
     1e0:	80cc1500 	sbchi	r1, ip, r0, lsl #10
     1e4:	04890000 	streq	r0, [r9], #0
     1e8:	d0150000 	andsle	r0, r5, r0
     1ec:	95000080 	strls	r0, [r0, #-128]	; 0xffffff80
     1f0:	18000004 	stmdane	r0, {r2}
     1f4:	000080dc 	ldrdeq	r8, [r0], -ip
     1f8:	0000047d 	andeq	r0, r0, sp, ror r4
     1fc:	0000020a 	andeq	r0, r0, sl, lsl #4
     200:	05500117 	ldrbeq	r0, [r0, #-279]	; 0xfffffee9
     204:	00a29c03 	adceq	r9, r2, r3, lsl #24
     208:	e4180000 	ldr	r0, [r8], #-0
     20c:	7d000080 	stcvc	0, cr0, [r0, #-512]	; 0xfffffe00
     210:	21000004 	tstcs	r0, r4
     214:	17000002 	strne	r0, [r0, -r2]
     218:	03055001 	movweq	r5, #20481	; 0x5001
     21c:	0000a2bc 			; <UNDEFINED> instruction: 0x0000a2bc
     220:	80e81500 	rschi	r1, r8, r0, lsl #10
     224:	04950000 	ldreq	r0, [r5], #0
     228:	f8180000 			; <UNDEFINED> instruction: 0xf8180000
     22c:	7d000080 	stcvc	0, cr0, [r0, #-512]	; 0xfffffe00
     230:	41000004 	tstmi	r0, r4
     234:	17000002 	strne	r0, [r0, -r2]
     238:	03055001 	movweq	r5, #20481	; 0x5001
     23c:	0000a31c 	andeq	sl, r0, ip, lsl r3
     240:	81041900 	tsthi	r4, r0, lsl #18
     244:	04a10000 	strteq	r0, [r1], #0
     248:	1c180000 	ldcne	0, cr0, [r8], {-0}
     24c:	7d000081 	stcvc	0, cr0, [r0, #-516]	; 0xfffffdfc
     250:	79000004 	stmdbvc	r0, {r2}
     254:	17000002 	strne	r0, [r0, -r2]
     258:	03055001 	movweq	r5, #20481	; 0x5001
     25c:	0000a2e0 	andeq	sl, r0, r0, ror #5
     260:	05510117 	ldrbeq	r0, [r1, #-279]	; 0xfffffee9
     264:	00a20003 	adceq	r0, r2, r3
     268:	52011700 	andpl	r1, r1, #0, 14
     26c:	a3400305 	movtge	r0, #773	; 0x305
     270:	01170000 	tsteq	r7, r0
     274:	44080253 	strmi	r0, [r8], #-595	; 0xfffffdad
     278:	81201500 			; <UNDEFINED> instruction: 0x81201500
     27c:	04ad0000 	strteq	r0, [sp], #0
     280:	1a000000 	bne	288 <__code_start__-0x7d78>
     284:	000000b4 	strheq	r0, [r0], -r4
     288:	00000293 	muleq	r0, r3, r2
     28c:	00002c1b 	andeq	r2, r0, fp, lsl ip
     290:	09000700 	stmdbeq	r0, {r8, r9, sl}
     294:	00000283 	andeq	r0, r0, r3, lsl #5
     298:	00012d1c 	andeq	r2, r1, ip, lsl sp
     29c:	070c0100 	streq	r0, [ip, -r0, lsl #2]
     2a0:	00000108 	andeq	r0, r0, r8, lsl #2
     2a4:	00033b01 	andeq	r3, r3, r1, lsl #22
     2a8:	05f01d00 	ldrbeq	r1, [r0, #3328]!	; 0xd00
     2ac:	010c0000 	mrseq	r0, (UNDEF: 12)
     2b0:	02dc0c0d 	sbcseq	r0, ip, #3328	; 0xd00
     2b4:	781e0000 	ldmdavc	lr, {}	; <UNPREDICTABLE>
     2b8:	0d0e0100 	stfeqs	f0, [lr, #-0]
     2bc:	00000025 	andeq	r0, r0, r5, lsr #32
     2c0:	01fa0b00 	mvnseq	r0, r0, lsl #22
     2c4:	0f010000 	svceq	0x00010000
     2c8:	00033b16 	andeq	r3, r3, r6, lsl fp
     2cc:	ea0b0400 	b	2c12d4 <__bss_end__+0x2b6304>
     2d0:	01000001 	tsteq	r0, r1
     2d4:	033b1610 	teqeq	fp, #16, 12	; 0x1000000
     2d8:	00080000 	andeq	r0, r8, r0
     2dc:	0100680e 	tsteq	r0, lr, lsl #16
     2e0:	033b0811 	teqeq	fp, #1114112	; 0x110000
     2e4:	49120000 	ldmdbmi	r2, {}	; <UNPREDICTABLE>
     2e8:	51000000 	mrspl	r0, (UNDEF: 0)
     2ec:	05000003 	streq	r0, [r0, #-3]
     2f0:	00a33803 	adceq	r3, r3, r3, lsl #16
     2f4:	690e1f00 	stmdbvs	lr, {r8, r9, sl, fp, ip}
     2f8:	0d130100 	ldfeqs	f0, [r3, #-0]
     2fc:	00000025 	andeq	r0, r0, r5, lsr #32
     300:	00650e1f 	rsbeq	r0, r5, pc, lsl lr
     304:	3b161401 	blcc	585310 <__bss_end__+0x57a340>
     308:	18000003 	stmdane	r0, {r0, r1}
     30c:	00008064 	andeq	r8, r0, r4, rrx
     310:	000004b9 			; <UNDEFINED> instruction: 0x000004b9
     314:	0000031e 	andeq	r0, r0, lr, lsl r3
     318:	01500117 	cmpeq	r0, r7, lsl r1
     31c:	7416003c 	ldrvc	r0, [r6], #-60	; 0xffffffc4
     320:	c5000080 	strgt	r0, [r0, #-128]	; 0xffffff80
     324:	17000004 	strne	r0, [r0, -r4]
     328:	74025001 	strvc	r5, [r2], #-1
     32c:	51011700 	tstpl	r1, r0, lsl #14
     330:	01173001 	tsteq	r7, r1
     334:	003c0152 	eorseq	r0, ip, r2, asr r1
     338:	08000000 	stmdaeq	r0, {}	; <UNPREDICTABLE>
     33c:	0002a904 	andeq	sl, r2, r4, lsl #18
     340:	00b41a00 	adcseq	r1, r4, r0, lsl #20
     344:	03510000 	cmpeq	r1, #0, 0
     348:	2c1b0000 	ldccs	0, cr0, [fp], {-0}
     34c:	04000000 	streq	r0, [r0], #-0
     350:	03410900 	movteq	r0, #6400	; 0x1900
     354:	ef200000 	svc	0x00200000
     358:	02000001 	andeq	r0, r0, #1, 0
     35c:	00fc0b0c 	rscseq	r0, ip, ip, lsl #22
     360:	8c030000 	stchi	0, cr0, [r3], {-0}
     364:	21000003 	tstcs	r0, r3
     368:	0000001e 	andeq	r0, r0, lr, lsl r0
     36c:	a7220c02 	strge	r0, [r2, -r2, lsl #24]!
     370:	21000000 	mrscs	r0, (UNDEF: 0)
     374:	00000029 	andeq	r0, r0, r9, lsr #32
     378:	a7340c02 	ldrge	r0, [r4, -r2, lsl #24]!
     37c:	21000000 	mrscs	r0, (UNDEF: 0)
     380:	000000be 	strheq	r0, [r0], -lr
     384:	2c430c02 	mcrrcs	12, 0, r0, r3, cr2
     388:	00000000 	andeq	r0, r0, r0
     38c:	00029822 	andeq	r9, r2, r2, lsr #16
     390:	00803800 	addeq	r3, r0, r0, lsl #16
     394:	00006800 	andeq	r6, r0, r0, lsl #16
     398:	389c0100 	ldmcc	ip, {r8}
     39c:	14000004 	strne	r0, [r0], #-4
     3a0:	000002dc 	ldrdeq	r0, [r0], -ip
     3a4:	00000058 	andeq	r0, r0, r8, asr r0
     3a8:	00000052 	andeq	r0, r0, r2, asr r0
     3ac:	0002f523 	andeq	pc, r2, r3, lsr #10
     3b0:	00000000 	andeq	r0, r0, r0
     3b4:	00041700 	andeq	r1, r4, r0, lsl #14
     3b8:	02f61400 	rscseq	r1, r6, #0, 8
     3bc:	00860000 	addeq	r0, r6, r0
     3c0:	00820000 	addeq	r0, r2, r0
     3c4:	00240000 	eoreq	r0, r4, r0
     3c8:	00000003 	andeq	r0, r0, r3
     3cc:	14000000 	strne	r0, [r0], #-0
     3d0:	00000301 	andeq	r0, r0, r1, lsl #6
     3d4:	000000ac 	andeq	r0, r0, ip, lsr #1
     3d8:	000000a6 	andeq	r0, r0, r6, lsr #1
     3dc:	00035625 	andeq	r5, r3, r5, lsr #12
     3e0:	00803800 	addeq	r3, r0, r0, lsl #16
     3e4:	00280600 	eoreq	r0, r8, r0, lsl #12
     3e8:	14010000 	strne	r0, [r1], #-0
     3ec:	037f261a 	cmneq	pc, #27262976	; 0x1a00000
     3f0:	00d70000 	sbcseq	r0, r7, r0
     3f4:	00d50000 	sbcseq	r0, r5, r0
     3f8:	73260000 			; <UNDEFINED> instruction: 0x73260000
     3fc:	ed000003 	stc	0, cr0, [r0, #-12]
     400:	eb000000 	bl	408 <__code_start__-0x7bf8>
     404:	26000000 	strcs	r0, [r0], -r0
     408:	00000367 	andeq	r0, r0, r7, ror #6
     40c:	00000107 	andeq	r0, r0, r7, lsl #2
     410:	00000105 	andeq	r0, r0, r5, lsl #2
     414:	18000000 	stmdane	r0, {}	; <UNPREDICTABLE>
     418:	00008084 	andeq	r8, r0, r4, lsl #1
     41c:	0000047d 	andeq	r0, r0, sp, ror r4
     420:	0000042e 	andeq	r0, r0, lr, lsr #8
     424:	05500117 	ldrbeq	r0, [r0, #-279]	; 0xfffffee9
     428:	00a21c03 	adceq	r1, r2, r3, lsl #24
     42c:	88150000 	ldmdahi	r5, {}	; <UNPREDICTABLE>
     430:	a1000080 	smlabbge	r0, r0, r0, r0
     434:	00000004 	andeq	r0, r0, r4
     438:	00011622 	andeq	r1, r1, r2, lsr #12
     43c:	00814000 	addeq	r4, r1, r0
     440:	00001c00 	andeq	r1, r0, r0, lsl #24
     444:	719c0100 	orrsvc	r0, ip, r0, lsl #2
     448:	14000004 	strne	r0, [r0], #-4
     44c:	00000127 	andeq	r0, r0, r7, lsr #2
     450:	00000123 	andeq	r0, r0, r3, lsr #2
     454:	0000011f 	andeq	r0, r0, pc, lsl r1
     458:	00814815 	addeq	r4, r1, r5, lsl r8
     45c:	00029800 	andeq	r9, r2, r0, lsl #16
     460:	81541600 	cmphi	r4, r0, lsl #12
     464:	04710000 	ldrbteq	r0, [r1], #-0
     468:	01170000 	tsteq	r7, r0
     46c:	00300150 	eorseq	r0, r0, r0, asr r1
     470:	00232700 	eoreq	r2, r3, r0, lsl #14
     474:	00230000 	eoreq	r0, r3, r0
     478:	ad030000 	stcge	0, cr0, [r3, #-0]
     47c:	05c02706 	strbeq	r2, [r0, #1798]	; 0x706
     480:	05c00000 	strbeq	r0, [r0]
     484:	28030000 	stmdacs	r3, {}	; <UNPREDICTABLE>
     488:	011b2706 	tsteq	fp, r6, lsl #14
     48c:	011b0000 	tsteq	fp, r0
     490:	6e050000 	cdpvs	0, 0, cr0, cr5, cr0, {0}
     494:	0043270a 	subeq	r2, r3, sl, lsl #14
     498:	00430000 	subeq	r0, r3, r0
     49c:	67050000 	strvs	r0, [r5, -r0]
     4a0:	00b0270a 	adcseq	r2, r0, sl, lsl #14
     4a4:	00b00000 	adcseq	r0, r0, r0
     4a8:	6c050000 	stcvs	0, cr0, [r5], {-0}
     4ac:	00562706 	subseq	r2, r6, r6, lsl #14
     4b0:	00560000 	subseq	r0, r6, r0
     4b4:	6e030000 	cdpvs	0, 0, cr0, cr3, cr0, {0}
     4b8:	00162706 	andseq	r2, r6, r6, lsl #14
     4bc:	00160000 	andseq	r0, r6, r0
     4c0:	49050000 	stmdbmi	r5, {}	; <UNPREDICTABLE>
     4c4:	003c2708 	eorseq	r2, ip, r8, lsl #14
     4c8:	003c0000 	eorseq	r0, ip, r0
     4cc:	f2030000 	vhadd.s8	d0, d3, d0
     4d0:	9e072807 	cdpls	8, 0, cr2, cr7, cr7, {0}
     4d4:	73657405 	cmnvc	r5, #83886080	; 0x5000000
     4d8:	bd000074 	stclt	0, cr0, [r0, #-464]	; 0xfffffe30
     4dc:	04000008 	streq	r0, [r0], #-8
     4e0:	00023e00 	andeq	r3, r2, r0, lsl #28
     4e4:	dc010400 	cfstrsle	mvf0, [r1], {-0}
     4e8:	0c000002 	stceq	0, cr0, [r0], {2}
     4ec:	000002d2 	ldrdeq	r0, [r0], -r2
     4f0:	000003a5 	andeq	r0, r0, r5, lsr #7
     4f4:	0000815c 	andeq	r8, r0, ip, asr r1
     4f8:	000003bc 			; <UNDEFINED> instruction: 0x000003bc
     4fc:	000001ef 	andeq	r0, r0, pc, ror #3
     500:	69050402 	stmdbvs	r5, {r1, sl}
     504:	0300746e 	movweq	r7, #1134	; 0x46e
     508:	00cf0704 	sbceq	r0, pc, r4, lsl #14
     50c:	01030000 	mrseq	r0, (UNDEF: 3)
     510:	00007206 	andeq	r7, r0, r6, lsl #4
     514:	05020300 	streq	r0, [r2, #-768]	; 0xfffffd00
     518:	00000000 	andeq	r0, r0, r0
     51c:	33050403 	movwcc	r0, #21507	; 0x5403
     520:	03000000 	movweq	r0, #0
     524:	002e0508 	eoreq	r0, lr, r8, lsl #10
     528:	63040000 	movwvs	r0, #16384	; 0x4000
     52c:	03000002 	movweq	r0, #2
     530:	005b182e 	subseq	r1, fp, lr, lsr #16
     534:	01030000 	mrseq	r0, (UNDEF: 3)
     538:	00007008 	andeq	r7, r0, r8
     53c:	02ab0400 	adceq	r0, fp, #0, 8
     540:	31030000 	mrscc	r0, (UNDEF: 3)
     544:	00006e19 	andeq	r6, r0, r9, lsl lr
     548:	07020300 	streq	r0, [r2, -r0, lsl #6]
     54c:	00000108 	andeq	r0, r0, r8, lsl #2
     550:	0000dc04 	andeq	sp, r0, r4, lsl #24
     554:	19340300 	ldmdbne	r4!, {r8, r9}
     558:	00000081 	andeq	r0, r0, r1, lsl #1
     55c:	ca070403 	bgt	1c1570 <__bss_end__+0x1b65a0>
     560:	03000000 	movweq	r0, #0
     564:	00c50708 	sbceq	r0, r5, r8, lsl #14
     568:	25050000 	strcs	r0, [r5, #-0]
     56c:	9e000000 	cdpls	0, 0, cr0, cr0, cr0, {0}
     570:	06000000 	streq	r0, [r0], -r0
     574:	00000025 	andeq	r0, r0, r5, lsr #32
     578:	000a0700 	andeq	r0, sl, r0, lsl #14
     57c:	1c040000 	stcne	0, cr0, [r4], {-0}
     580:	0000aa0e 	andeq	sl, r0, lr, lsl #20
     584:	8f040800 	svchi	0x00040800
     588:	05000000 	streq	r0, [r0, #-0]
     58c:	00000025 	andeq	r0, r0, r5, lsr #32
     590:	000000bf 	strheq	r0, [r0], -pc	; <UNPREDICTABLE>
     594:	0000bf06 	andeq	fp, r0, r6, lsl #30
     598:	04080000 	streq	r0, [r8], #-0
     59c:	000000cc 	andeq	r0, r0, ip, asr #1
     5a0:	79080103 	stmdbvc	r8, {r0, r1, r8}
     5a4:	09000000 	stmdbeq	r0, {}	; <UNPREDICTABLE>
     5a8:	000000c5 	andeq	r0, r0, r5, asr #1
     5ac:	0005fe07 	andeq	pc, r5, r7, lsl #28
     5b0:	0e210400 	cdpeq	4, 2, cr0, cr1, cr0, {0}
     5b4:	000000dd 	ldrdeq	r0, [r0], -sp
     5b8:	00b00408 	adcseq	r0, r0, r8, lsl #8
     5bc:	0c0a0000 	stceq	0, cr0, [sl], {-0}
     5c0:	14090405 	strne	r0, [r9], #-1029	; 0xfffffbfb
     5c4:	0b000001 	bleq	5d0 <__code_start__-0x7a30>
     5c8:	0000001e 	andeq	r0, r0, lr, lsl r0
     5cc:	bf110605 	svclt	0x00110605
     5d0:	00000000 	andeq	r0, r0, r0
     5d4:	0000290b 	andeq	r2, r0, fp, lsl #18
     5d8:	11070500 	tstne	r7, r0, lsl #10
     5dc:	000000bf 	strheq	r0, [r0], -pc	; <UNPREDICTABLE>
     5e0:	00be0b04 	adcseq	r0, lr, r4, lsl #22
     5e4:	08050000 	stmdaeq	r5, {}	; <UNPREDICTABLE>
     5e8:	00002c0e 	andeq	r2, r0, lr, lsl #24
     5ec:	04000800 	streq	r0, [r0], #-2048	; 0xfffff800
     5f0:	000001ff 	strdeq	r0, [r0], -pc	; <UNPREDICTABLE>
     5f4:	e3030905 	movw	r0, #14597	; 0x3905
     5f8:	0c000000 	stceq	0, cr0, [r0], {-0}
     5fc:	005b0107 	subseq	r0, fp, r7, lsl #2
     600:	09020000 	stmdbeq	r2, {}	; <UNPREDICTABLE>
     604:	00013b0e 	andeq	r3, r1, lr, lsl #22
     608:	039d0d00 	orrseq	r0, sp, #0, 26
     60c:	0d0b0000 	stceq	0, cr0, [fp, #-0]
     610:	00000228 	andeq	r0, r0, r8, lsr #4
     614:	070c000c 	streq	r0, [ip, -ip]
     618:	00005b01 	andeq	r5, r0, r1, lsl #22
     61c:	060a0200 	streq	r0, [sl], -r0, lsl #4
     620:	00000156 	andeq	r0, r0, r6, asr r1
     624:	0002470d 	andeq	r4, r2, sp, lsl #14
     628:	3b0d8000 	blcc	360630 <__bss_end__+0x355660>
     62c:	fe000002 	cdp2	0, 0, cr0, cr0, cr2, {0}
     630:	02890e00 	addeq	r0, r9, #0, 28
     634:	02a80000 	adceq	r0, r8, #0, 0
     638:	01d9100d 	bicseq	r1, r9, sp
     63c:	fa0b0000 	blx	2c0644 <__bss_end__+0x2b5674>
     640:	02000001 	andeq	r0, r0, #1, 0
     644:	01d9140e 	bicseq	r1, r9, lr, lsl #8
     648:	0b000000 	bleq	650 <__code_start__-0x79b0>
     64c:	0000022e 	andeq	r0, r0, lr, lsr #4
     650:	750e0f02 	strvc	r0, [lr, #-3842]	; 0xfffff0fe
     654:	04000000 	streq	r0, [r0], #-0
     658:	00029a0b 	andeq	r9, r2, fp, lsl #20
     65c:	0e100200 	cdpeq	2, 1, cr0, cr0, cr0, {0}
     660:	00000075 	andeq	r0, r0, r5, ror r0
     664:	021f0b08 	andseq	r0, pc, #8, 22	; 0x2000
     668:	14020000 	strne	r0, [r2], #-0
     66c:	0000750e 	andeq	r7, r0, lr, lsl #10
     670:	900b0c00 	andls	r0, fp, r0, lsl #24
     674:	02000002 	andeq	r0, r0, #2, 0
     678:	01140f16 	tsteq	r4, r6, lsl pc
     67c:	0b100000 	bleq	400684 <__bss_end__+0x3f56b4>
     680:	000002a0 	andeq	r0, r0, r0, lsr #5
     684:	750e1902 	strvc	r1, [lr, #-2306]	; 0xfffff6fe
     688:	1c000000 	stcne	0, cr0, [r0], {-0}
     68c:	0003910b 	andeq	r9, r3, fp, lsl #2
     690:	0e1a0200 	cdpeq	2, 1, cr0, cr10, cr0, {0}
     694:	00000075 	andeq	r0, r0, r5, ror r0
     698:	04af0b20 	strteq	r0, [pc], #2848	; 6a0 <__code_start__-0x7960>
     69c:	1c020000 	stcne	0, cr0, [r2], {-0}
     6a0:	0000620e 	andeq	r6, r0, lr, lsl #4
     6a4:	720f2400 	andvc	r2, pc, #0, 8
     6a8:	0200317a 	andeq	r3, r0, #-2147483618	; 0x8000001e
     6ac:	01df0d1e 	bicseq	r0, pc, lr, lsl sp	; <UNPREDICTABLE>
     6b0:	00260000 	eoreq	r0, r6, r0
     6b4:	01560408 	cmpeq	r6, r8, lsl #8
     6b8:	4f100000 	svcmi	0x00100000
     6bc:	ef000000 	svc	0x00000000
     6c0:	11000001 	tstne	r0, r1
     6c4:	0000002c 	andeq	r0, r0, ip, lsr #32
     6c8:	1904007f 	stmdbne	r4, {r0, r1, r2, r3, r4, r5, r6}
     6cc:	02000002 	andeq	r0, r0, #2, 0
     6d0:	0156031f 	cmpeq	r6, pc, lsl r3
     6d4:	04120000 	ldreq	r0, [r2], #-0
     6d8:	00006307 	andeq	r6, r0, r7, lsl #6
     6dc:	11a50200 			; <UNDEFINED> instruction: 0x11a50200
     6e0:	0000002c 	andeq	r0, r0, ip, lsr #32
     6e4:	00027213 	andeq	r7, r2, r3, lsl r2
     6e8:	0f080100 	svceq	0x00080100
     6ec:	0000021b 	andeq	r0, r0, fp, lsl r2
     6f0:	aba80305 	blge	fea0130c <__bss_end__+0xfe9f633c>
     6f4:	04080000 	streq	r0, [r8], #-0
     6f8:	000001ef 	andeq	r0, r0, pc, ror #3
     6fc:	00001614 	andeq	r1, r0, r4, lsl r6
     700:	08720100 	ldmdaeq	r2!, {r8}^
     704:	000001fb 	strdeq	r0, [r0], -fp
     708:	00008454 	andeq	r8, r0, r4, asr r4
     70c:	000000c4 	andeq	r0, r0, r4, asr #1
     710:	030e9c01 	movweq	r9, #60417	; 0xec01
     714:	f4150000 			; <UNDEFINED> instruction: 0xf4150000
     718:	01000003 	tsteq	r0, r3
     71c:	00751a72 	rsbseq	r1, r5, r2, ror sl
     720:	01470000 	mrseq	r0, (UNDEF: 71)
     724:	01410000 	mrseq	r0, (UNDEF: 65)
     728:	6c160000 	ldcvs	0, cr0, [r6], {-0}
     72c:	2c720100 	ldfcse	f0, [r2], #-0
     730:	00000114 	andeq	r0, r0, r4, lsl r1
     734:	17649102 	strbne	r9, [r4, -r2, lsl #2]!
     738:	74010068 	strvc	r0, [r1], #-104	; 0xffffff98
     73c:	00021b0c 	andeq	r1, r2, ip, lsl #22
     740:	00017900 	andeq	r7, r1, r0, lsl #18
     744:	00017300 	andeq	r7, r1, r0, lsl #6
     748:	84801800 	strhi	r1, [r0], #2048	; 0x800
     74c:	002c0000 	eoreq	r0, ip, r0
     750:	028e0000 	addeq	r0, lr, #0, 0
     754:	69170000 	ldmdbvs	r7, {}	; <UNPREDICTABLE>
     758:	0d7a0100 	ldfeqe	f0, [sl, #-0]
     75c:	00000025 	andeq	r0, r0, r5, lsr #32
     760:	000001aa 	andeq	r0, r0, sl, lsr #3
     764:	000001a6 	andeq	r0, r0, r6, lsr #3
     768:	84701900 	ldrbthi	r1, [r0], #-2304	; 0xfffff700
     76c:	08900000 	ldmeq	r0, {}	; <UNPREDICTABLE>
     770:	02a30000 	adceq	r0, r3, #0, 0
     774:	011a0000 	tsteq	sl, r0
     778:	a8750350 	ldmdage	r5!, {r4, r6, r8, r9}^
     77c:	80190002 	andshi	r0, r9, r2
     780:	9c000084 	stcls	0, cr0, [r0], {132}	; 0x84
     784:	c2000008 	andgt	r0, r0, #8, 0
     788:	1a000002 	bne	798 <__code_start__-0x7868>
     78c:	74025001 	strvc	r5, [r2], #-1
     790:	51011a00 	tstpl	r1, r0, lsl #20
     794:	011a3001 	tsteq	sl, r1
     798:	a8080252 	stmdage	r8, {r1, r4, r6, r9}
     79c:	84dc1900 	ldrbhi	r1, [ip], #2304	; 0x900
     7a0:	08a80000 	stmiaeq	r8!, {}	; <UNPREDICTABLE>
     7a4:	02ee0000 	rsceq	r0, lr, #0, 0
     7a8:	011a0000 	tsteq	sl, r0
     7ac:	a8030550 	stmdage	r3, {r4, r6, r8, sl}
     7b0:	1a0000a3 	bne	a44 <__code_start__-0x75bc>
     7b4:	91035101 	tstls	r3, r1, lsl #2
     7b8:	011a065c 	tsteq	sl, ip, asr r6
     7bc:	60910352 	addsvs	r0, r1, r2, asr r3
     7c0:	53011a06 	movwpl	r1, #6662	; 0x1a06
     7c4:	06649103 	strbteq	r9, [r4], -r3, lsl #2
     7c8:	84f01b00 	ldrbthi	r1, [r0], #2816	; 0xb00
     7cc:	08a80000 	stmiaeq	r8!, {}	; <UNPREDICTABLE>
     7d0:	011a0000 	tsteq	sl, r0
     7d4:	68030550 	stmdavs	r3, {r4, r6, r8, sl}
     7d8:	1a0000a4 	bne	a70 <__code_start__-0x7590>
     7dc:	76025101 	strvc	r5, [r2], -r1, lsl #2
     7e0:	52011a00 	andpl	r1, r1, #0, 20
     7e4:	00007502 	andeq	r7, r0, r2, lsl #10
     7e8:	026b1c00 	rsbeq	r1, fp, #0, 24
     7ec:	53010000 	movwpl	r0, #4096	; 0x1000
     7f0:	0082c806 	addeq	ip, r2, r6, lsl #16
     7f4:	00018c00 	andeq	r8, r1, r0, lsl #24
     7f8:	3d9c0100 	ldfccs	f0, [ip]
     7fc:	15000005 	strne	r0, [r0, #-5]
     800:	00000a77 	andeq	r0, r0, r7, ror sl
     804:	fb145301 	blx	515412 <__bss_end__+0x50a442>
     808:	cd000001 	stcgt	0, cr0, [r0, #-4]
     80c:	c9000001 	stmdbgt	r0, {r0}
     810:	16000001 	strne	r0, [r0], -r1
     814:	5301006c 	movwpl	r0, #4204	; 0x106c
     818:	00011424 	andeq	r1, r1, r4, lsr #8
     81c:	54910200 	ldrpl	r0, [r1], #512	; 0x200
     820:	01006817 	tsteq	r0, r7, lsl r8
     824:	021b0c55 	andseq	r0, fp, #21760	; 0x5500
     828:	01f50000 	mvnseq	r0, r0
     82c:	01eb0000 	mvneq	r0, r0
     830:	491d0000 	ldmdbmi	sp, {}	; <UNPREDICTABLE>
     834:	4d000000 	stcmi	0, cr0, [r0, #-0]
     838:	05000005 	streq	r0, [r0, #-5]
     83c:	00a49003 	adceq	r9, r4, r3
     840:	00481e00 	subeq	r1, r8, r0, lsl #28
     844:	041a0000 	ldreq	r0, [sl], #-0
     848:	69170000 	ldmdbvs	r7, {}	; <UNPREDICTABLE>
     84c:	0d5c0100 	ldfeqe	f0, [ip, #-0]
     850:	00000025 	andeq	r0, r0, r5, lsr #32
     854:	00000240 	andeq	r0, r0, r0, asr #4
     858:	0000023a 	andeq	r0, r0, sl, lsr r2
     85c:	00838819 	addeq	r8, r3, r9, lsl r8
     860:	0008a800 	andeq	sl, r8, r0, lsl #16
     864:	0003aa00 	andeq	sl, r3, r0, lsl #20
     868:	50011a00 	andpl	r1, r1, r0, lsl #20
     86c:	a3c40305 	bicge	r0, r4, #335544320	; 0x14000000
     870:	011a0000 	tsteq	sl, r0
     874:	00760251 	rsbseq	r0, r6, r1, asr r2
     878:	0252011a 	subseq	r0, r2, #-2147483642	; 0x80000006
     87c:	011a0077 	tsteq	sl, r7, ror r0
     880:	00780253 	rsbseq	r0, r8, r3, asr r2
     884:	839c1900 	orrshi	r1, ip, #0, 18
     888:	08a80000 	stmiaeq	r8!, {}	; <UNPREDICTABLE>
     88c:	03c70000 	biceq	r0, r7, #0, 0
     890:	011a0000 	tsteq	sl, r0
     894:	04030550 	streq	r0, [r3], #-1360	; 0xfffffab0
     898:	1a0000a4 	bne	b30 <__code_start__-0x74d0>
     89c:	08025201 	stmdaeq	r2, {r0, r9, ip, lr}
     8a0:	a01f00fe 	ldrshge	r0, [pc], -lr
     8a4:	b4000083 	strlt	r0, [r0], #-131	; 0xffffff7d
     8a8:	19000008 	stmdbne	r0, {r3}
     8ac:	000083b4 			; <UNDEFINED> instruction: 0x000083b4
     8b0:	000008a8 	andeq	r0, r0, r8, lsr #17
     8b4:	000003f9 	strdeq	r0, [r0], -r9
     8b8:	0550011a 	ldrbeq	r0, [r0, #-282]	; 0xfffffee6
     8bc:	00a3c403 	adceq	ip, r3, r3, lsl #8
     8c0:	51011a00 	tstpl	r1, r0, lsl #20
     8c4:	1a007602 	bne	1e0d4 <__bss_end__+0x13104>
     8c8:	77025201 	strvc	r5, [r2, -r1, lsl #4]
     8cc:	53011a00 	movwpl	r1, #6656	; 0x1a00
     8d0:	00007802 	andeq	r7, r0, r2, lsl #16
     8d4:	0083bc19 	addeq	fp, r3, r9, lsl ip
     8d8:	0008a800 	andeq	sl, r8, r0, lsl #16
     8dc:	00041000 	andeq	r1, r4, r0
     8e0:	50011a00 	andpl	r1, r1, r0, lsl #20
     8e4:	a4340305 	ldrtge	r0, [r4], #-773	; 0xfffffcfb
     8e8:	1f000000 	svcne	0x00000000
     8ec:	000083c0 	andeq	r8, r0, r0, asr #7
     8f0:	000008b4 			; <UNDEFINED> instruction: 0x000008b4
     8f4:	83c01800 	bichi	r1, r0, #0, 16
     8f8:	001c0000 	andseq	r0, ip, r0
     8fc:	043a0000 	ldrteq	r0, [sl], #-0
     900:	69170000 	ldmdbvs	r7, {}	; <UNPREDICTABLE>
     904:	0d640100 	stfeqe	f0, [r4, #-0]
     908:	00000025 	andeq	r0, r0, r5, lsr #32
     90c:	0000026b 	andeq	r0, r0, fp, ror #4
     910:	00000269 	andeq	r0, r0, r9, ror #4
     914:	82fc1900 	rscshi	r1, ip, #0, 18
     918:	08a80000 	stmiaeq	r8!, {}	; <UNPREDICTABLE>
     91c:	04630000 	strbteq	r0, [r3], #-0
     920:	011a0000 	tsteq	sl, r0
     924:	a8030550 	stmdage	r3, {r4, r6, r8, sl}
     928:	1a0000a3 	bne	bbc <__code_start__-0x7444>
     92c:	76025101 	strvc	r5, [r2], -r1, lsl #2
     930:	52011a00 	andpl	r1, r1, #0, 20
     934:	1a007702 	bne	1e544 <__bss_end__+0x13574>
     938:	78025301 	stmdavc	r2, {r0, r8, r9, ip, lr}
     93c:	08190000 	ldmdaeq	r9, {}	; <UNPREDICTABLE>
     940:	a8000083 	stmdage	r0, {r0, r1, r7}
     944:	80000008 	andhi	r0, r0, r8
     948:	1a000004 	bne	960 <__code_start__-0x76a0>
     94c:	03055001 	movweq	r5, #20481	; 0x5001
     950:	0000a3b4 			; <UNDEFINED> instruction: 0x0000a3b4
     954:	0251011a 	subseq	r0, r1, #-2147483642	; 0x80000006
     958:	19000075 	stmdbne	r0, {r0, r2, r4, r5, r6}
     95c:	00008364 	andeq	r8, r0, r4, ror #6
     960:	000008a8 	andeq	r0, r0, r8, lsr #17
     964:	000004a9 	andeq	r0, r0, r9, lsr #9
     968:	0550011a 	ldrbeq	r0, [r0, #-282]	; 0xfffffee6
     96c:	00a3c403 	adceq	ip, r3, r3, lsl #8
     970:	51011a00 	tstpl	r1, r0, lsl #20
     974:	1a007602 	bne	1e184 <__bss_end__+0x131b4>
     978:	77025201 	strvc	r5, [r2, -r1, lsl #4]
     97c:	53011a00 	movwpl	r1, #6656	; 0x1a00
     980:	00007802 	andeq	r7, r0, r2, lsl #16
     984:	00837019 	addeq	r7, r3, r9, lsl r0
     988:	0008a800 	andeq	sl, r8, r0, lsl #16
     98c:	0004c000 	andeq	ip, r4, r0
     990:	50011a00 	andpl	r1, r1, r0, lsl #20
     994:	a3dc0305 	bicsge	r0, ip, #335544320	; 0x14000000
     998:	1f000000 	svcne	0x00000000
     99c:	00008374 	andeq	r8, r0, r4, ror r3
     9a0:	000008b4 			; <UNDEFINED> instruction: 0x000008b4
     9a4:	0083ec19 	addeq	lr, r3, r9, lsl ip
     9a8:	00067200 	andeq	r7, r6, r0, lsl #4
     9ac:	0004dd00 	andeq	sp, r4, r0, lsl #26
     9b0:	50011a00 	andpl	r1, r1, r0, lsl #20
     9b4:	00007502 	andeq	r7, r0, r2, lsl #10
     9b8:	00840019 	addeq	r0, r4, r9, lsl r0
     9bc:	00055200 	andeq	r5, r5, r0, lsl #4
     9c0:	0004fa00 	andeq	pc, r4, r0, lsl #20
     9c4:	50011a00 	andpl	r1, r1, r0, lsl #20
     9c8:	aba80305 	blge	fea015e4 <__bss_end__+0xfe9f6614>
     9cc:	011a0000 	tsteq	sl, r0
     9d0:	00790251 	rsbseq	r0, r9, r1, asr r2
     9d4:	84241900 	strthi	r1, [r4], #-2304	; 0xfffff700
     9d8:	08a80000 	stmiaeq	r8!, {}	; <UNPREDICTABLE>
     9dc:	05330000 	ldreq	r0, [r3, #-0]!
     9e0:	011a0000 	tsteq	sl, r0
     9e4:	54030550 	strpl	r0, [r3], #-1360	; 0xfffffab0
     9e8:	1a0000a3 	bne	c7c <__code_start__-0x7384>
     9ec:	03055101 	movweq	r5, #20737	; 0x5101
     9f0:	0000a348 	andeq	sl, r0, r8, asr #6
     9f4:	0552011a 	ldrbeq	r0, [r2, #-282]	; 0xfffffee6
     9f8:	00a49003 	adceq	r9, r4, r3
     9fc:	53011a00 	movwpl	r1, #6656	; 0x1a00
     a00:	1a690802 	bne	1a42a10 <__bss_end__+0x1a37a40>
     a04:	05007d02 	streq	r7, [r0, #-3330]	; 0xfffff2fe
     a08:	00a45003 	adceq	r5, r4, r3
     a0c:	281f0000 	ldmdacs	pc, {}	; <UNPREDICTABLE>
     a10:	b4000084 	strlt	r0, [r0], #-132	; 0xffffff7c
     a14:	00000008 	andeq	r0, r0, r8
     a18:	0000cc10 	andeq	ip, r0, r0, lsl ip
     a1c:	00054d00 	andeq	r4, r5, r0, lsl #26
     a20:	002c1100 	eoreq	r1, ip, r0, lsl #2
     a24:	00060000 	andeq	r0, r6, r0
     a28:	00053d09 	andeq	r3, r5, r9, lsl #26
     a2c:	027d2000 	rsbseq	r2, sp, #0, 0
     a30:	3a010000 	bcc	40a38 <__bss_end__+0x35a68>
     a34:	00817c0d 	addeq	r7, r1, sp, lsl #24
     a38:	0000a400 	andeq	sl, r0, r0, lsl #8
     a3c:	579c0100 	ldrpl	r0, [ip, r0, lsl #2]
     a40:	21000006 	tstcs	r0, r6
     a44:	3a01006c 	bcc	40bfc <__bss_end__+0x35c2c>
     a48:	00065721 	andeq	r5, r6, r1, lsr #14
     a4c:	00028c00 	andeq	r8, r2, r0, lsl #24
     a50:	00027e00 	andeq	r7, r2, r0, lsl #28
     a54:	00682100 	rsbeq	r2, r8, r0, lsl #2
     a58:	1b2b3a01 	blne	acf264 <__bss_end__+0xac4294>
     a5c:	f6000002 			; <UNDEFINED> instruction: 0xf6000002
     a60:	ea000002 	b	a70 <__code_start__-0x7590>
     a64:	1d000002 	stcne	0, cr0, [r0, #-8]
     a68:	00000049 	andeq	r0, r0, r9, asr #32
     a6c:	0000066d 	andeq	r0, r0, sp, ror #12
     a70:	a4840305 	strge	r0, [r4], #773	; 0x305
     a74:	ea220000 	b	880a7c <__bss_end__+0x875aac>
     a78:	01000001 	tsteq	r0, r1
     a7c:	021b0c3d 	andseq	r0, fp, #15616	; 0x3d00
     a80:	034b0000 	movteq	r0, #45056	; 0xb000
     a84:	03430000 	movteq	r0, #12288	; 0x3000
     a88:	70170000 	andsvc	r0, r7, r0
     a8c:	0c450100 	stfeqe	f0, [r5], {-0}
     a90:	0000021b 	andeq	r0, r0, fp, lsl r2
     a94:	00000383 	andeq	r0, r0, r3, lsl #7
     a98:	0000037f 	andeq	r0, r0, pc, ror r3
     a9c:	0081a419 	addeq	sl, r1, r9, lsl r4
     aa0:	00083100 	andeq	r3, r8, r0, lsl #2
     aa4:	0005d500 	andeq	sp, r5, r0, lsl #10
     aa8:	50011a00 	andpl	r1, r1, r0, lsl #20
     aac:	00007502 	andeq	r7, r0, r2, lsl #10
     ab0:	0081e019 	addeq	lr, r1, r9, lsl r0
     ab4:	0008a800 	andeq	sl, r8, r0, lsl #16
     ab8:	00060e00 	andeq	r0, r6, r0, lsl #28
     abc:	50011a00 	andpl	r1, r1, r0, lsl #20
     ac0:	a3540305 	cmpge	r4, #335544320	; 0x14000000
     ac4:	011a0000 	tsteq	sl, r0
     ac8:	48030551 	stmdami	r3, {r0, r4, r6, r8, sl}
     acc:	1a0000a3 	bne	d60 <__code_start__-0x72a0>
     ad0:	03055201 	movweq	r5, #20993	; 0x5201
     ad4:	0000a484 	andeq	sl, r0, r4, lsl #9
     ad8:	0253011a 	subseq	r0, r3, #-2147483642	; 0x80000006
     adc:	021a3c08 	andseq	r3, sl, #8, 24	; 0x800
     ae0:	0305007d 	movweq	r0, #20605	; 0x507d
     ae4:	0000a368 	andeq	sl, r0, r8, ror #6
     ae8:	81e41f00 	mvnhi	r1, r0, lsl #30
     aec:	08b40000 	ldmeq	r4!, {}	; <UNPREDICTABLE>
     af0:	08190000 	ldmdaeq	r9, {}	; <UNPREDICTABLE>
     af4:	a8000082 	stmdage	r0, {r1, r7}
     af8:	4d000008 	stcmi	0, cr0, [r0, #-32]	; 0xffffffe0
     afc:	1a000006 	bne	b1c <__code_start__-0x74e4>
     b00:	03055001 	movweq	r5, #20481	; 0x5001
     b04:	0000a36c 	andeq	sl, r0, ip, ror #6
     b08:	0551011a 	ldrbeq	r0, [r1, #-282]	; 0xfffffee6
     b0c:	00a34803 	adceq	r4, r3, r3, lsl #16
     b10:	52011a00 	andpl	r1, r1, #0, 20
     b14:	a4840305 	strge	r0, [r4], #773	; 0x305
     b18:	011a0000 	tsteq	sl, r0
     b1c:	4f080253 	svcmi	0x00080253
     b20:	007d021a 	rsbseq	r0, sp, sl, lsl r2
     b24:	00007402 	andeq	r7, r0, r2, lsl #8
     b28:	00820c1f 	addeq	r0, r2, pc, lsl ip
     b2c:	0008b400 	andeq	fp, r8, r0, lsl #8
     b30:	04080000 	streq	r0, [r8], #-0
     b34:	0000021b 	andeq	r0, r0, fp, lsl r2
     b38:	0000cc10 	andeq	ip, r0, r0, lsl ip
     b3c:	00066d00 	andeq	r6, r6, r0, lsl #26
     b40:	002c1100 	eoreq	r1, ip, r0, lsl #2
     b44:	000b0000 	andeq	r0, fp, r0
     b48:	00065d09 	andeq	r5, r6, r9, lsl #26
     b4c:	02b41400 	adcseq	r1, r4, #0, 8
     b50:	2b010000 	blcs	40b58 <__bss_end__+0x35b88>
     b54:	00021b08 	andeq	r1, r2, r8, lsl #22
     b58:	00827000 	addeq	r7, r2, r0
     b5c:	00005800 	andeq	r5, r0, r0, lsl #16
     b60:	139c0100 	orrsne	r0, ip, #0
     b64:	21000007 	tstcs	r0, r7
     b68:	00727470 	rsbseq	r7, r2, r0, ror r4
     b6c:	fb202b01 	blx	80b77a <__bss_end__+0x8007aa>
     b70:	a5000001 	strge	r0, [r0, #-1]
     b74:	a1000003 	tstge	r0, r3
     b78:	23000003 	movwcs	r0, #3
     b7c:	00008278 	andeq	r8, r0, r8, ror r2
     b80:	00000044 	andeq	r0, r0, r4, asr #32
     b84:	01006817 	tsteq	r0, r7, lsl r8
     b88:	021b112e 	andseq	r1, fp, #-2147483637	; 0x8000000b
     b8c:	03cb0000 	biceq	r0, fp, #0, 0
     b90:	03c30000 	biceq	r0, r3, #0, 0
     b94:	7c1f0000 	ldcvc	0, cr0, [pc], {-0}
     b98:	5e000082 	cdppl	0, 0, cr0, cr0, cr2, {4}
     b9c:	19000008 	stmdbne	r0, {r3}
     ba0:	00008294 	muleq	r0, r4, r2
     ba4:	00000713 	andeq	r0, r0, r3, lsl r7
     ba8:	000006de 	ldrdeq	r0, [r0], -lr
     bac:	0250011a 	subseq	r0, r0, #-2147483642	; 0x80000006
     bb0:	011a0074 	tsteq	sl, r4, ror r0
     bb4:	00750251 	rsbseq	r0, r5, r1, asr r2
     bb8:	82a41900 	adchi	r1, r4, #0, 18
     bbc:	08310000 	ldmdaeq	r1!, {}	; <UNPREDICTABLE>
     bc0:	06f20000 	ldrbteq	r0, [r2], r0
     bc4:	011a0000 	tsteq	sl, r0
     bc8:	00740250 	rsbseq	r0, r4, r0, asr r2
     bcc:	82bc1b00 	adcshi	r1, ip, #0, 22
     bd0:	08a80000 	stmiaeq	r8!, {}	; <UNPREDICTABLE>
     bd4:	011a0000 	tsteq	sl, r0
     bd8:	98030550 	stmdals	r3, {r4, r6, r8, sl}
     bdc:	1a0000a3 	bne	e70 <__code_start__-0x7190>
     be0:	75025101 	strvc	r5, [r2, #-257]	; 0xfffffeff
     be4:	52011a00 	andpl	r1, r1, #0, 20
     be8:	00007402 	andeq	r7, r0, r2, lsl #8
     bec:	09140000 	ldmdbeq	r4, {}	; <UNPREDICTABLE>
     bf0:	01000002 	tsteq	r0, r2
     bf4:	002c0a24 	eoreq	r0, ip, r4, lsr #20
     bf8:	82400000 	subhi	r0, r0, #0, 0
     bfc:	00300000 	eorseq	r0, r0, r0
     c00:	9c010000 	stcls	0, cr0, [r1], {-0}
     c04:	000007a0 	andeq	r0, r0, r0, lsr #15
     c08:	01006821 	tsteq	r0, r1, lsr #16
     c0c:	021b2124 	andseq	r2, fp, #9
     c10:	04030000 	streq	r0, [r3], #-0
     c14:	03ff0000 	mvnseq	r0, #0, 0
     c18:	70210000 	eorvc	r0, r1, r0
     c1c:	01007274 	tsteq	r0, r4, ror r2
     c20:	01fb2a24 	mvnseq	r2, r4, lsr #20
     c24:	04250000 	strteq	r0, [r5], #-0
     c28:	04210000 	strteq	r0, [r1], #-0
     c2c:	6d170000 	ldcvs	0, cr0, [r7, #-0]
     c30:	01006e69 	tsteq	r0, r9, ror #28
     c34:	01fb0b26 	mvnseq	r0, r6, lsr #22
     c38:	04470000 	strbeq	r0, [r7], #-0
     c3c:	04430000 	strbeq	r0, [r3], #-0
     c40:	6d170000 	ldcvs	0, cr0, [r7, #-0]
     c44:	01007861 	tsteq	r0, r1, ror #16
     c48:	01fb0b27 	mvnseq	r0, r7, lsr #22
     c4c:	04670000 	strbteq	r0, [r7], #-0
     c50:	04650000 	strbteq	r0, [r5], #-0
     c54:	50190000 	andspl	r0, r9, r0
     c58:	04000082 	streq	r0, [r0], #-130	; 0xffffff7e
     c5c:	8f000008 	svchi	0x00000008
     c60:	1a000007 	bne	c84 <__code_start__-0x737c>
     c64:	76025001 	strvc	r5, [r2], -r1
     c68:	5c1b0000 	ldcpl	0, cr0, [fp], {-0}
     c6c:	a0000082 	andge	r0, r0, r2, lsl #1
     c70:	1a000007 	bne	c94 <__code_start__-0x736c>
     c74:	76025001 	strvc	r5, [r2], -r1
     c78:	14000000 	strne	r0, [r0], #-0
     c7c:	000003e6 	andeq	r0, r0, r6, ror #7
     c80:	fb071e01 	blx	1c848e <__bss_end__+0x1bd4be>
     c84:	28000001 	stmdacs	r0, {r0}
     c88:	18000082 	stmdane	r0, {r1, r7}
     c8c:	01000000 	mrseq	r0, (UNDEF: 0)
     c90:	0008049c 	muleq	r8, ip, r4
     c94:	00682100 	rsbeq	r2, r8, r0, lsl #2
     c98:	1b191e01 	blne	6484a4 <__bss_end__+0x63d4d4>
     c9c:	7e000002 	cdpvc	0, 0, cr0, cr0, cr2, {0}
     ca0:	7a000004 	bvc	cb8 <__code_start__-0x7348>
     ca4:	24000004 	strcs	r0, [r0], #-4
     ca8:	00000874 	andeq	r0, r0, r4, ror r8
     cac:	00008234 	andeq	r8, r0, r4, lsr r2
     cb0:	00823400 	addeq	r3, r2, r0, lsl #8
     cb4:	00000400 	andeq	r0, r0, r0, lsl #8
     cb8:	26200100 	strtcs	r0, [r0], -r0, lsl #2
     cbc:	000007f3 	strdeq	r0, [r0], -r3
     cc0:	00088525 	andeq	r8, r8, r5, lsr #10
     cc4:	00049e00 	andeq	r9, r4, r0, lsl #28
     cc8:	00049c00 	andeq	r9, r4, r0, lsl #24
     ccc:	341b0000 	ldrcc	r0, [fp], #-0
     cd0:	04000082 	streq	r0, [r0], #-130	; 0xffffff7e
     cd4:	1a000008 	bne	cfc <__code_start__-0x7304>
     cd8:	74025001 	strvc	r5, [r2], #-1
     cdc:	14000000 	strne	r0, [r0], #-0
     ce0:	000003d9 	ldrdeq	r0, [r0], -r9
     ce4:	fb071801 	blx	1c6cf2 <__bss_end__+0x1bbd22>
     ce8:	20000001 	andcs	r0, r0, r1
     cec:	08000082 	stmdaeq	r0, {r1, r7}
     cf0:	01000000 	mrseq	r0, (UNDEF: 0)
     cf4:	0008319c 	muleq	r8, ip, r1
     cf8:	00682100 	rsbeq	r2, r8, r0, lsl #2
     cfc:	1b1b1801 	blne	6c6d08 <__bss_end__+0x6bbd38>
     d00:	b5000002 	strlt	r0, [r0, #-2]
     d04:	b1000004 	tstlt	r0, r4
     d08:	00000004 	andeq	r0, r0, r4
     d0c:	0002c614 	andeq	ip, r2, r4, lsl r6
     d10:	08110100 	ldmdaeq	r1, {r8}
     d14:	0000021b 	andeq	r0, r0, fp, lsl r2
     d18:	0000816c 	andeq	r8, r0, ip, ror #2
     d1c:	00000010 	andeq	r0, r0, r0, lsl r0
     d20:	085e9c01 	ldmdaeq	lr, {r0, sl, fp, ip, pc}^
     d24:	70210000 	eorvc	r0, r1, r0
     d28:	1b110100 	blne	441130 <__bss_end__+0x436160>
     d2c:	0000021b 	andeq	r0, r0, fp, lsl r2
     d30:	000004da 	ldrdeq	r0, [r0], -sl
     d34:	000004d6 	ldrdeq	r0, [r0], -r6
     d38:	02562600 	subseq	r2, r6, #0, 12
     d3c:	0b010000 	bleq	40d44 <__bss_end__+0x35d74>
     d40:	00021b08 	andeq	r1, r2, r8, lsl #22
     d44:	00815c00 	addeq	r5, r1, r0, lsl #24
     d48:	00001000 	andeq	r1, r0, r0
     d4c:	279c0100 	ldrcs	r0, [ip, r0, lsl #2]
     d50:	000003f1 	strdeq	r0, [r0], -r1
     d54:	2c182e02 	ldccs	14, cr2, [r8], {2}
     d58:	03000000 	movweq	r0, #0
     d5c:	00000890 	muleq	r0, r0, r8
     d60:	02006828 	andeq	r6, r0, #40, 16	; 0x280000
     d64:	021b292e 	andseq	r2, fp, #753664	; 0xb8000
     d68:	29000000 	stmdbcs	r0, {}	; <UNPREDICTABLE>
     d6c:	000003fb 	strdeq	r0, [r0], -fp
     d70:	000003fb 	strdeq	r0, [r0], -fp
     d74:	29071e06 	stmdbcs	r7, {r1, r2, r9, sl, fp, ip}
     d78:	0000003c 	andeq	r0, r0, ip, lsr r0
     d7c:	0000003c 	andeq	r0, r0, ip, lsr r0
     d80:	2907f204 	stmdbcs	r7, {r2, r9, ip, sp, lr, pc}
     d84:	000005c0 	andeq	r0, r0, r0, asr #11
     d88:	000005c0 	andeq	r0, r0, r0, asr #11
     d8c:	29062804 	stmdbcs	r6, {r2, fp, sp}
     d90:	00000056 	andeq	r0, r0, r6, asr r0
     d94:	00000056 	andeq	r0, r0, r6, asr r0
     d98:	00066e04 	andeq	r6, r6, r4, lsl #28
     d9c:	000002fb 	strdeq	r0, [r0], -fp
     da0:	04b90004 	ldrteq	r0, [r9], #4
     da4:	01040000 	mrseq	r0, (UNDEF: 4)
     da8:	00000132 	andeq	r0, r0, r2, lsr r1
     dac:	00042d0c 	andeq	r2, r4, ip, lsl #26
     db0:	00007e00 	andeq	r7, r0, r0, lsl #28
     db4:	00851800 	addeq	r1, r5, r0, lsl #16
     db8:	00018800 	andeq	r8, r1, r0, lsl #16
     dbc:	0005d400 	andeq	sp, r5, r0, lsl #8
     dc0:	05040200 	streq	r0, [r4, #-512]	; 0xfffffe00
     dc4:	00746e69 	rsbseq	r6, r4, r9, ror #28
     dc8:	cf070403 	svcgt	0x00070403
     dcc:	03000000 	movweq	r0, #0
     dd0:	00720601 	rsbseq	r0, r2, r1, lsl #12
     dd4:	02030000 	andeq	r0, r3, #0, 0
     dd8:	00000005 	andeq	r0, r0, r5
     ddc:	05040300 	streq	r0, [r4, #-768]	; 0xfffffd00
     de0:	00000033 	andeq	r0, r0, r3, lsr r0
     de4:	2e050803 	cdpcs	8, 0, cr0, cr5, cr3, {0}
     de8:	03000000 	movweq	r0, #0
     dec:	00700801 	rsbseq	r0, r0, r1, lsl #16
     df0:	02030000 	andeq	r0, r3, #0, 0
     df4:	00010807 	andeq	r0, r1, r7, lsl #16
     df8:	07040300 	streq	r0, [r4, -r0, lsl #6]
     dfc:	000000ca 	andeq	r0, r0, sl, asr #1
     e00:	c5070803 	strgt	r0, [r7, #-2051]	; 0xfffff7fd
     e04:	04000000 	streq	r0, [r0], #-0
     e08:	00000025 	andeq	r0, r0, r5, lsr #32
     e0c:	0000007a 	andeq	r0, r0, sl, ror r0
     e10:	00002505 	andeq	r2, r0, r5, lsl #10
     e14:	0a060000 	beq	180e1c <__bss_end__+0x175e4c>
     e18:	02000000 	andeq	r0, r0, #0, 0
     e1c:	00860e1c 	addeq	r0, r6, ip, lsl lr
     e20:	04070000 	streq	r0, [r7], #-0
     e24:	0000006b 	andeq	r0, r0, fp, rrx
     e28:	00002504 	andeq	r2, r0, r4, lsl #10
     e2c:	00009b00 	andeq	r9, r0, r0, lsl #22
     e30:	009b0500 	addseq	r0, fp, r0, lsl #10
     e34:	07000000 	streq	r0, [r0, -r0]
     e38:	0000a804 	andeq	sl, r0, r4, lsl #16
     e3c:	08010300 	stmdaeq	r1, {r8, r9}
     e40:	00000079 	andeq	r0, r0, r9, ror r0
     e44:	0000a108 	andeq	sl, r0, r8, lsl #2
     e48:	05fe0600 	ldrbeq	r0, [lr, #1536]!	; 0x600
     e4c:	21020000 	mrscs	r0, (UNDEF: 2)
     e50:	0000b90e 	andeq	fp, r0, lr, lsl #18
     e54:	8c040700 	stchi	7, cr0, [r4], {-0}
     e58:	09000000 	stmdbeq	r0, {}	; <UNPREDICTABLE>
     e5c:	00000412 	andeq	r0, r0, r2, lsl r4
     e60:	07050108 	streq	r0, [r5, -r8, lsl #2]
     e64:	000000ec 	andeq	r0, r0, ip, ror #1
     e68:	0100640a 	tsteq	r0, sl, lsl #8
     e6c:	00ec0907 	rsceq	r0, ip, r7, lsl #18
     e70:	700a0000 	andvc	r0, sl, r0
     e74:	08080100 	stmdaeq	r8, {r8}
     e78:	000000f3 	strdeq	r0, [r0], -r3
     e7c:	0070660a 	rsbseq	r6, r0, sl, lsl #12
     e80:	f6090901 			; <UNDEFINED> instruction: 0xf6090901
     e84:	00000000 	andeq	r0, r0, r0
     e88:	39040803 	stmdbcc	r4, {r0, r1, fp}
     e8c:	0b000004 	bleq	ea4 <__code_start__-0x715c>
     e90:	04070c04 	streq	r0, [r7], #-3076	; 0xfffff3fc
     e94:	000000f5 	strdeq	r0, [r0], -r5
     e98:	0e01080d 	cdpeq	8, 0, cr0, cr1, cr13, {0}
     e9c:	00012002 	andeq	r2, r1, r2
     ea0:	74700e00 	ldrbtvc	r0, [r0], #-3584	; 0xfffff200
     ea4:	10010072 	andne	r0, r1, r2, ror r0
     ea8:	00014211 	andeq	r4, r1, r1, lsl r2
     eac:	530f0000 	movwpl	r0, #61440	; 0xf000
     eb0:	01000004 	tsteq	r0, r4
     eb4:	002c0c11 	eoreq	r0, ip, r1, lsl ip
     eb8:	00040000 	andeq	r0, r4, r0
     ebc:	00040509 	andeq	r0, r4, r9, lsl #10
     ec0:	0c010800 	stceq	8, cr0, [r1], {-0}
     ec4:	0001420f 	andeq	r4, r1, pc, lsl #4
     ec8:	00730a00 	rsbseq	r0, r3, r0, lsl #20
     ecc:	fc041201 	stc2	2, cr1, [r4], {1}
     ed0:	0a000000 	beq	ed8 <__code_start__-0x7128>
     ed4:	13010078 	movwne	r0, #4216	; 0x1078
     ed8:	0000bf0e 	andeq	fp, r0, lr, lsl #30
     edc:	04070000 	streq	r0, [r7], #-0
     ee0:	00000120 	andeq	r0, r0, r0, lsr #2
     ee4:	00045810 	andeq	r5, r4, r0, lsl r8
     ee8:	03140100 	tsteq	r4, #0
     eec:	00000120 	andeq	r0, r0, r0, lsr #2
     ef0:	00044011 	andeq	r4, r4, r1, lsl r0
     ef4:	0f180100 	svceq	0x00180100
     ef8:	00000148 	andeq	r0, r0, r8, asr #2
     efc:	abb80305 	blge	fee01b18 <__bss_end__+0xfedf6b48>
     f00:	20110000 	andscs	r0, r1, r0
     f04:	01000004 	tsteq	r0, r4
     f08:	01781019 	cmneq	r8, r9, lsl r0
     f0c:	03050000 	movweq	r0, #20480	; 0x5000
     f10:	0000abb0 			; <UNDEFINED> instruction: 0x0000abb0
     f14:	01480407 	cmpeq	r8, r7, lsl #8
     f18:	18120000 	ldmdane	r2, {}	; <UNPREDICTABLE>
     f1c:	01000004 	tsteq	r0, r4
     f20:	85180653 	ldrhi	r0, [r8, #-1619]	; 0xfffff9ad
     f24:	00880000 	addeq	r0, r8, r0
     f28:	9c010000 	stcls	0, cr0, [r1], {-0}
     f2c:	000001cd 	andeq	r0, r0, sp, asr #3
     f30:	00706113 	rsbseq	r6, r0, r3, lsl r1
     f34:	f3145301 	vcgt.u16	d5, d4, d1
     f38:	01000000 	mrseq	r0, (UNDEF: 0)
     f3c:	fb000005 	blx	f5a <__code_start__-0x70a6>
     f40:	14000004 	strne	r0, [r0], #-4
     f44:	01007062 	tsteq	r0, r2, rrx
     f48:	01780a55 	cmneq	r8, r5, asr sl
     f4c:	05330000 	ldreq	r0, [r3, #-0]!
     f50:	052f0000 	streq	r0, [pc, #-0]!	; f58 <__code_start__-0x70a8>
     f54:	70140000 	andsvc	r0, r4, r0
     f58:	0f550100 	svceq	0x00550100
     f5c:	00000178 	andeq	r0, r0, r8, ror r1
     f60:	00000558 	andeq	r0, r0, r8, asr r5
     f64:	00000556 	andeq	r0, r0, r6, asr r5
     f68:	03fb1500 	mvnseq	r1, #0, 10
     f6c:	2b010000 	blcs	40f74 <__bss_end__+0x35fa4>
     f70:	0000f307 	andeq	pc, r0, r7, lsl #6
     f74:	0085a000 	addeq	sl, r5, r0
     f78:	00010000 	andeq	r0, r1, r0
     f7c:	ad9c0100 	ldfges	f0, [ip]
     f80:	16000002 	strne	r0, [r0], -r2
     f84:	000003f4 	strdeq	r0, [r0], -r4
     f88:	2c1a2b01 			; <UNDEFINED> instruction: 0x2c1a2b01
     f8c:	73000000 	movwvc	r0, #0
     f90:	6b000005 	blvs	fac <__code_start__-0x7054>
     f94:	14000005 	strne	r0, [r0], #-5
     f98:	2d010070 	stccs	0, cr0, [r1, #-448]	; 0xfffffe40
     f9c:	0001780a 	andeq	r7, r1, sl, lsl #16
     fa0:	0005bd00 	andeq	fp, r5, r0, lsl #26
     fa4:	0005ad00 	andeq	sl, r5, r0, lsl #26
     fa8:	040c1700 	streq	r1, [ip], #-1792	; 0xfffff900
     fac:	2d010000 	stccs	0, cr0, [r1, #-0]
     fb0:	0001780e 	andeq	r7, r1, lr, lsl #16
     fb4:	00063500 	andeq	r3, r6, r0, lsl #10
     fb8:	00062900 	andeq	r2, r6, r0, lsl #18
     fbc:	04261700 	strteq	r1, [r6], #-1792	; 0xfffff900
     fc0:	2e010000 	cdpcs	0, 0, cr0, cr1, cr0, {0}
     fc4:	00002c0b 	andeq	r2, r0, fp, lsl #24
     fc8:	00068600 	andeq	r8, r6, r0, lsl #12
     fcc:	00068400 	andeq	r8, r6, r0, lsl #8
     fd0:	02ad1800 	adceq	r1, sp, #0, 16
     fd4:	85f80000 	ldrbhi	r0, [r8, #0]!
     fd8:	60010000 	andvs	r0, r1, r0
     fdc:	01000000 	mrseq	r0, (UNDEF: 0)
     fe0:	be190d4a 	cdplt	13, 1, cr0, cr9, cr10, {2}
     fe4:	9b000002 	blls	ff4 <__code_start__-0x700c>
     fe8:	99000006 	stmdbls	r0, {r1, r2}
     fec:	1a000006 	bne	100c <__code_start__-0x6ff4>
     ff0:	00000060 	andeq	r0, r0, r0, rrx
     ff4:	0002c91b 	andeq	ip, r2, fp, lsl r9
     ff8:	0006b500 	andeq	fp, r6, r0, lsl #10
     ffc:	0006b100 	andeq	fp, r6, r0, lsl #2
    1000:	02d41b00 	sbcseq	r1, r4, #0, 22
    1004:	06d70000 	ldrbeq	r0, [r7], r0
    1008:	06d30000 	ldrbeq	r0, [r3], r0
    100c:	041c0000 	ldreq	r0, [ip], #-0
    1010:	e6000086 	str	r0, [r0], -r6, lsl #1
    1014:	8c000002 	stchi	0, cr0, [r0], {2}
    1018:	1d000002 	stcne	0, cr0, [r0, #-8]
    101c:	76025001 	strvc	r5, [r2], -r1
    1020:	51011d00 	tstpl	r1, r0, lsl #26
    1024:	00007702 	andeq	r7, r0, r2, lsl #14
    1028:	00860c1c 	addeq	r0, r6, ip, lsl ip
    102c:	0002f200 	andeq	pc, r2, r0, lsl #4
    1030:	0002a100 	andeq	sl, r2, r0, lsl #2
    1034:	50011d00 	andpl	r1, r1, r0, lsl #26
    1038:	243e4003 	ldrtcs	r4, [lr], #-3
    103c:	86241e00 	strthi	r1, [r4], -r0, lsl #28
    1040:	017e0000 	cmneq	lr, r0
    1044:	00000000 	andeq	r0, r0, r0
    1048:	044a1f00 	strbeq	r1, [sl], #-3840	; 0xfffff100
    104c:	1c010000 	stcne	0, cr0, [r1], {-0}
    1050:	00017810 	andeq	r7, r1, r0, lsl r8
    1054:	02e00100 	rsceq	r0, r0, #0
    1058:	6e200000 	cdpvs	0, 2, cr0, cr0, cr0, {0}
    105c:	1c010075 	stcne	0, cr0, [r1], {117}	; 0x75
    1060:	00002c22 	andeq	r2, r0, r2, lsr #24
    1064:	70632100 	rsbvc	r2, r3, r0, lsl #2
    1068:	08210100 	stmdaeq	r1!, {r8}
    106c:	000002e0 	andeq	r0, r0, r0, ror #5
    1070:	00707521 	rsbseq	r7, r0, r1, lsr #10
    1074:	780a2401 	stmdavc	sl, {r0, sl, sp}
    1078:	00000001 	andeq	r0, r0, r1
    107c:	00a10407 	adceq	r0, r1, r7, lsl #8
    1080:	c0220000 	eorgt	r0, r2, r0
    1084:	c0000005 	andgt	r0, r0, r5
    1088:	02000005 	andeq	r0, r0, #5, 0
    108c:	45220628 	strmi	r0, [r2, #-1576]!	; 0xfffff9d8
    1090:	45000004 	strmi	r0, [r0, #-4]
    1094:	03000004 	movweq	r0, #4
    1098:	70000b1a 	andvc	r0, r0, sl, lsl fp
    109c:	0400000d 	streq	r0, [r0], #-13
    10a0:	0006be00 	andeq	fp, r6, r0, lsl #28
    10a4:	32010400 	andcc	r0, r1, #0, 8
    10a8:	0c000001 	stceq	0, cr0, [r0], {1}
    10ac:	00000513 	andeq	r0, r0, r3, lsl r5
    10b0:	0000007e 	andeq	r0, r0, lr, ror r0
    10b4:	000086a0 	andeq	r8, r0, r0, lsr #13
    10b8:	00000584 	andeq	r0, r0, r4, lsl #11
    10bc:	00000814 	andeq	r0, r0, r4, lsl r8
    10c0:	69050402 	stmdbvs	r5, {r1, sl}
    10c4:	0300746e 	movweq	r7, #1134	; 0x46e
    10c8:	00cf0704 	sbceq	r0, pc, r4, lsl #14
    10cc:	01030000 	mrseq	r0, (UNDEF: 3)
    10d0:	00007206 	andeq	r7, r0, r6, lsl #4
    10d4:	05020300 	streq	r0, [r2, #-768]	; 0xfffffd00
    10d8:	00000000 	andeq	r0, r0, r0
    10dc:	33050403 	movwcc	r0, #21507	; 0x5403
    10e0:	03000000 	movweq	r0, #0
    10e4:	002e0508 	eoreq	r0, lr, r8, lsl #10
    10e8:	63040000 	movwvs	r0, #16384	; 0x4000
    10ec:	03000002 	movweq	r0, #2
    10f0:	005b182e 	subseq	r1, fp, lr, lsr #16
    10f4:	01030000 	mrseq	r0, (UNDEF: 3)
    10f8:	00007008 	andeq	r7, r0, r8
    10fc:	02ab0400 	adceq	r0, fp, #0, 8
    1100:	31030000 	mrscc	r0, (UNDEF: 3)
    1104:	00006e19 	andeq	r6, r0, r9, lsl lr
    1108:	07020300 	streq	r0, [r2, -r0, lsl #6]
    110c:	00000108 	andeq	r0, r0, r8, lsl #2
    1110:	0000dc04 	andeq	sp, r0, r4, lsl #24
    1114:	19340300 	ldmdbne	r4!, {r8, r9}
    1118:	00000081 	andeq	r0, r0, r1, lsl #1
    111c:	ca070403 	bgt	1c2130 <__bss_end__+0x1b7160>
    1120:	03000000 	movweq	r0, #0
    1124:	00c50708 	sbceq	r0, r5, r8, lsl #14
    1128:	25050000 	strcs	r0, [r5, #-0]
    112c:	9e000000 	cdpls	0, 0, cr0, cr0, cr0, {0}
    1130:	06000000 	streq	r0, [r0], -r0
    1134:	00000025 	andeq	r0, r0, r5, lsr #32
    1138:	000a0700 	andeq	r0, sl, r0, lsl #14
    113c:	1c040000 	stcne	0, cr0, [r4], {-0}
    1140:	0000aa0e 	andeq	sl, r0, lr, lsl #20
    1144:	8f040800 	svchi	0x00040800
    1148:	05000000 	streq	r0, [r0, #-0]
    114c:	00000025 	andeq	r0, r0, r5, lsr #32
    1150:	000000bf 	strheq	r0, [r0], -pc	; <UNPREDICTABLE>
    1154:	0000bf06 	andeq	fp, r0, r6, lsl #30
    1158:	04080000 	streq	r0, [r8], #-0
    115c:	000000cc 	andeq	r0, r0, ip, asr #1
    1160:	79080103 	stmdbvc	r8, {r0, r1, r8}
    1164:	09000000 	stmdbeq	r0, {}	; <UNPREDICTABLE>
    1168:	000000c5 	andeq	r0, r0, r5, asr #1
    116c:	0005fe07 	andeq	pc, r5, r7, lsl #28
    1170:	0e210400 	cdpeq	4, 2, cr0, cr1, cr0, {0}
    1174:	000000dd 	ldrdeq	r0, [r0], -sp
    1178:	00b00408 	adcseq	r0, r0, r8, lsl #8
    117c:	0c0a0000 	stceq	0, cr0, [sl], {-0}
    1180:	14090402 	strne	r0, [r9], #-1026	; 0xfffffbfe
    1184:	0b000001 	bleq	1190 <__code_start__-0x6e70>
    1188:	0000001e 	andeq	r0, r0, lr, lsl r0
    118c:	bf110602 	svclt	0x00110602
    1190:	00000000 	andeq	r0, r0, r0
    1194:	0000290b 	andeq	r2, r0, fp, lsl #18
    1198:	11070200 	mrsne	r0, (UNDEF: 39)
    119c:	000000bf 	strheq	r0, [r0], -pc	; <UNPREDICTABLE>
    11a0:	00be0b04 	adcseq	r0, lr, r4, lsl #22
    11a4:	08020000 	stmdaeq	r2, {}	; <UNPREDICTABLE>
    11a8:	00002c0e 	andeq	r2, r0, lr, lsl #24
    11ac:	04000800 	streq	r0, [r0], #-2048	; 0xfffff800
    11b0:	000001ff 	strdeq	r0, [r0], -pc	; <UNPREDICTABLE>
    11b4:	e3030902 	movw	r0, #14594	; 0x3902
    11b8:	0c000000 	stceq	0, cr0, [r0], {-0}
    11bc:	005b0107 	subseq	r0, fp, r7, lsl #2
    11c0:	0a050000 	beq	1411c8 <__bss_end__+0x1361f8>
    11c4:	00013b06 	andeq	r3, r1, r6, lsl #22
    11c8:	02470d00 	subeq	r0, r7, #0, 26
    11cc:	0d800000 	stceq	0, cr0, [r0]
    11d0:	0000023b 	andeq	r0, r0, fp, lsr r2
    11d4:	890e00fe 	stmdbhi	lr, {r1, r2, r3, r4, r5, r6, r7}
    11d8:	a8000002 	stmdage	r0, {r1}
    11dc:	be100d05 	cdplt	13, 1, cr0, cr0, cr5, {0}
    11e0:	0b000001 	bleq	11ec <__code_start__-0x6e14>
    11e4:	000001fa 	strdeq	r0, [r0], -sl
    11e8:	be140e05 	cdplt	14, 1, cr0, cr4, cr5, {0}
    11ec:	00000001 	andeq	r0, r0, r1
    11f0:	00022e0b 	andeq	r2, r2, fp, lsl #28
    11f4:	0e0f0500 	cfsh32eq	mvfx0, mvfx15, #0
    11f8:	00000075 	andeq	r0, r0, r5, ror r0
    11fc:	029a0b04 	addseq	r0, sl, #4, 22	; 0x1000
    1200:	10050000 	andne	r0, r5, r0
    1204:	0000750e 	andeq	r7, r0, lr, lsl #10
    1208:	1f0b0800 	svcne	0x000b0800
    120c:	05000002 	streq	r0, [r0, #-2]
    1210:	00750e14 	rsbseq	r0, r5, r4, lsl lr
    1214:	0b0c0000 	bleq	30121c <__bss_end__+0x2f624c>
    1218:	00000290 	muleq	r0, r0, r2
    121c:	140f1605 	strne	r1, [pc], #-1541	; 1224 <__code_start__-0x6ddc>
    1220:	10000001 	andne	r0, r0, r1
    1224:	0002a00b 	andeq	sl, r2, fp
    1228:	0e190500 	cfmul32eq	mvfx0, mvfx9, mvfx0
    122c:	00000075 	andeq	r0, r0, r5, ror r0
    1230:	03910b1c 	orrseq	r0, r1, #28, 22	; 0x7000
    1234:	1a050000 	bne	14123c <__bss_end__+0x13626c>
    1238:	0000750e 	andeq	r7, r0, lr, lsl #10
    123c:	af0b2000 	svcge	0x000b2000
    1240:	05000004 	streq	r0, [r0, #-4]
    1244:	00620e1c 	rsbeq	r0, r2, ip, lsl lr
    1248:	0f240000 	svceq	0x00240000
    124c:	00317a72 	eorseq	r7, r1, r2, ror sl
    1250:	c40d1e05 	strgt	r1, [sp], #-3589	; 0xfffff1fb
    1254:	26000001 	strcs	r0, [r0], -r1
    1258:	3b040800 	blcc	103260 <__bss_end__+0xf8290>
    125c:	10000001 	andne	r0, r0, r1
    1260:	0000004f 	andeq	r0, r0, pc, asr #32
    1264:	000001d4 	ldrdeq	r0, [r0], -r4
    1268:	00002c11 	andeq	r2, r0, r1, lsl ip
    126c:	04007f00 	streq	r7, [r0], #-3840	; 0xfffff100
    1270:	00000219 	andeq	r0, r0, r9, lsl r2
    1274:	3b031f05 	blcc	c8e90 <__bss_end__+0xbdec0>
    1278:	12000001 	andne	r0, r0, #1, 0
    127c:	00630704 	rsbeq	r0, r3, r4, lsl #14
    1280:	a5050000 	strge	r0, [r5, #-0]
    1284:	00002c11 	andeq	r2, r0, r1, lsl ip
    1288:	0a601300 	beq	1805e90 <__bss_end__+0x17faec0>
    128c:	10010000 	andne	r0, r1, r0
    1290:	0001e00e 	andeq	lr, r1, lr
    1294:	c0030500 	andgt	r0, r3, r0, lsl #10
    1298:	130000ab 	movwne	r0, #171	; 0xab
    129c:	00000ac1 	andeq	r0, r0, r1, asr #21
    12a0:	e00e1101 	and	r1, lr, r1, lsl #2
    12a4:	05000001 	streq	r0, [r0, #-1]
    12a8:	00abc403 	adceq	ip, fp, r3, lsl #8
    12ac:	04721400 	ldrbteq	r1, [r2], #-1024	; 0xfffffc00
    12b0:	15010000 	strne	r0, [r1, #-0]
    12b4:	8bf80601 	blhi	ffe02ac0 <__bss_end__+0xffdf7af0>
    12b8:	002c0000 	eoreq	r0, ip, r0
    12bc:	9c010000 	stcls	0, cr0, [r1], {-0}
    12c0:	00000272 	andeq	r0, r0, r2, ror r2
    12c4:	00004915 	andeq	r4, r0, r5, lsl r9
    12c8:	00028200 	andeq	r8, r2, r0, lsl #4
    12cc:	14030500 	strne	r0, [r3], #-1280	; 0xfffffb00
    12d0:	160000a8 	strne	r0, [r0], -r8, lsr #1
    12d4:	00008c10 	andeq	r8, r0, r0, lsl ip
    12d8:	00000cec 	andeq	r0, r0, ip, ror #25
    12dc:	00000268 	andeq	r0, r0, r8, ror #4
    12e0:	05500117 	ldrbeq	r0, [r0, #-279]	; 0xfffffee9
    12e4:	00a7a403 	adceq	sl, r7, r3, lsl #8
    12e8:	51011700 	tstpl	r1, r0, lsl #14
    12ec:	a4bc0305 	ldrtge	r0, [ip], #773	; 0x305
    12f0:	01170000 	tsteq	r7, r0
    12f4:	14030552 	strne	r0, [r3], #-1362	; 0xfffffaae
    12f8:	170000a8 	strne	r0, [r0, -r8, lsr #1]
    12fc:	0a035301 	beq	d5f08 <__bss_end__+0xcaf38>
    1300:	18000117 	stmdane	r0, {r0, r1, r2, r4, r8}
    1304:	00008c14 	andeq	r8, r0, r4, lsl ip
    1308:	00000cf8 	strdeq	r0, [r0], -r8
    130c:	00cc1000 	sbceq	r1, ip, r0
    1310:	02820000 	addeq	r0, r2, #0, 0
    1314:	2c110000 	ldccs	0, cr0, [r1], {-0}
    1318:	0e000000 	cdpeq	0, 0, cr0, cr0, cr0, {0}
    131c:	02720900 	rsbseq	r0, r2, #0, 18
    1320:	43190000 	tstmi	r9, #0, 0
    1324:	01000000 	mrseq	r0, (UNDEF: 0)
    1328:	2c0a010b 	stfcss	f0, [sl], {11}
    132c:	f8000000 			; <UNDEFINED> instruction: 0xf8000000
    1330:	0000008a 	andeq	r0, r0, sl, lsl #1
    1334:	01000001 	tsteq	r0, r1
    1338:	0004159c 	muleq	r4, ip, r5
    133c:	03f41a00 	mvnseq	r1, #0, 20
    1340:	0e010000 	cdpeq	0, 0, cr0, cr1, cr0, {0}
    1344:	002c0e01 	eoreq	r0, ip, r1, lsl #28
    1348:	06f70000 	ldrbteq	r0, [r7], r0
    134c:	06f50000 	ldrbteq	r0, [r5], r0
    1350:	151b0000 	ldrne	r0, [fp, #-0]
    1354:	04000004 	streq	r0, [r0], #-4
    1358:	0100008b 	smlabbeq	r0, fp, r0, r0
    135c:	00000188 	andeq	r0, r0, r8, lsl #3
    1360:	17010e01 	strne	r0, [r1, -r1, lsl #28]
    1364:	0000040b 	andeq	r0, r0, fp, lsl #8
    1368:	0001881c 	andeq	r8, r1, ip, lsl r8
    136c:	04261d00 	strteq	r1, [r6], #-3328	; 0xfffff300
    1370:	07120000 	ldreq	r0, [r2, -r0]
    1374:	070a0000 	streq	r0, [sl, -r0]
    1378:	321d0000 	andscc	r0, sp, #0, 0
    137c:	50000004 	andpl	r0, r0, r4
    1380:	48000007 	stmdami	r0, {r0, r1, r2}
    1384:	1d000007 	stcne	0, cr0, [r0, #-28]	; 0xffffffe4
    1388:	0000043e 	andeq	r0, r0, lr, lsr r4
    138c:	00000790 	muleq	r0, r0, r7
    1390:	00000786 	andeq	r0, r0, r6, lsl #15
    1394:	0004591e 	andeq	r5, r4, lr, lsl r9
    1398:	0001a000 	andeq	sl, r1, r0
    139c:	0003ad00 	andeq	sl, r3, r0, lsl #26
    13a0:	045a1d00 	ldrbeq	r1, [sl], #-3328	; 0xfffff300
    13a4:	07dd0000 	ldrbeq	r0, [sp, r0]
    13a8:	07d10000 	ldrbeq	r0, [r1, r0]
    13ac:	dc1b0000 	ldcle	0, cr0, [fp], {-0}
    13b0:	c400000a 	strgt	r0, [r0], #-10
    13b4:	0200008b 	andeq	r0, r0, #139, 0	; 0x8b
    13b8:	000001c0 	andeq	r0, r0, r0, asr #3
    13bc:	0d010101 	stfeqs	f0, [r1, #-4]
    13c0:	00000351 	andeq	r0, r0, r1, asr r3
    13c4:	000b051f 	andeq	r0, fp, pc, lsl r5
    13c8:	00082c00 	andeq	r2, r8, r0, lsl #24
    13cc:	00082a00 	andeq	r2, r8, r0, lsl #20
    13d0:	0af91f00 	beq	ffe48fd8 <__bss_end__+0xffe3e008>
    13d4:	08440000 	stmdaeq	r4, {}^	; <UNPREDICTABLE>
    13d8:	08420000 	stmdaeq	r2, {}^	; <UNPREDICTABLE>
    13dc:	ed1f0000 	ldc	0, cr0, [pc, #-0]	; 13e4 <__code_start__-0x6c1c>
    13e0:	5e00000a 	cdppl	0, 0, cr0, cr0, cr10, {0}
    13e4:	5c000008 	stcpl	0, cr0, [r0], {8}
    13e8:	00000008 	andeq	r0, r0, r8
    13ec:	008b1c18 	addeq	r1, fp, r8, lsl ip
    13f0:	000d1300 	andeq	r1, sp, r0, lsl #6
    13f4:	8b541600 	blhi	1506bfc <__bss_end__+0x14fbc2c>
    13f8:	0d1f0000 	ldceq	0, cr0, [pc, #-0]	; 1400 <__code_start__-0x6c00>
    13fc:	036e0000 	cmneq	lr, #0, 0
    1400:	01170000 	tsteq	r7, r0
    1404:	00740250 	rsbseq	r0, r4, r0, asr r2
    1408:	8ba81600 	blhi	fea06c10 <__bss_end__+0xfe9fbc40>
    140c:	0d2b0000 	stceq	0, cr0, [fp, #-0]
    1410:	03820000 	orreq	r0, r2, #0, 0
    1414:	01170000 	tsteq	r7, r0
    1418:	007b0250 	rsbseq	r0, fp, r0, asr r2
    141c:	8bb41600 	blhi	fed06c24 <__bss_end__+0xfecfbc54>
    1420:	0cec0000 	stcleq	0, cr0, [ip]
    1424:	039c0000 	orrseq	r0, ip, #0, 0
    1428:	01170000 	tsteq	r7, r0
    142c:	00780250 	rsbseq	r0, r8, r0, asr r2
    1430:	02510117 	subseq	r0, r1, #-1073741819	; 0xc0000005
    1434:	2000007b 	andcs	r0, r0, fp, ror r0
    1438:	00008bbc 			; <UNDEFINED> instruction: 0x00008bbc
    143c:	00000d1f 	andeq	r0, r0, pc, lsl sp
    1440:	02500117 	subseq	r0, r0, #-1073741819	; 0xc0000005
    1444:	00000074 	andeq	r0, r0, r4, ror r0
    1448:	008b0c16 	addeq	r0, fp, r6, lsl ip
    144c:	000cec00 	andeq	lr, ip, r0, lsl #24
    1450:	0003c400 	andeq	ip, r3, r0, lsl #8
    1454:	50011700 	andpl	r1, r1, r0, lsl #14
    1458:	a5540305 	ldrbge	r0, [r4, #-773]	; 0xfffffcfb
    145c:	16000000 	strne	r0, [r0], -r0
    1460:	00008b14 	andeq	r8, r0, r4, lsl fp
    1464:	00000cec 	andeq	r0, r0, ip, ror #25
    1468:	000003db 	ldrdeq	r0, [r0], -fp
    146c:	05500117 	ldrbeq	r0, [r0, #-279]	; 0xfffffee9
    1470:	00a75003 	adceq	r5, r7, r3
    1474:	18180000 	ldmdane	r8, {}	; <UNPREDICTABLE>
    1478:	ef00008b 	svc	0x0000008b
    147c:	20000007 	andcs	r0, r0, r7
    1480:	00008b70 	andeq	r8, r0, r0, ror fp
    1484:	00000cec 	andeq	r0, r0, ip, ror #25
    1488:	05500117 	ldrbeq	r0, [r0, #-279]	; 0xfffffee9
    148c:	00a77003 	adceq	r7, r7, r3
    1490:	51011700 	tstpl	r1, r0, lsl #14
    1494:	17007602 	strne	r7, [r0, -r2, lsl #12]
    1498:	77025201 	strvc	r5, [r2, -r1, lsl #4]
    149c:	53011700 	movwpl	r1, #5888	; 0x1700
    14a0:	00007502 	andeq	r7, r0, r2, lsl #10
    14a4:	04180000 	ldreq	r0, [r8], #-0
    14a8:	ef00008b 	svc	0x0000008b
    14ac:	00000007 	andeq	r0, r0, r7
    14b0:	00056021 	andeq	r6, r5, r1, lsr #32
    14b4:	11f30100 	mvnsne	r0, r0, lsl #2
    14b8:	0000002c 	andeq	r0, r0, ip, lsr #32
    14bc:	00046601 	andeq	r6, r4, r1, lsl #12
    14c0:	048f2200 	streq	r2, [pc], #512	; 14c8 <__code_start__-0x6b38>
    14c4:	f5010000 			; <UNDEFINED> instruction: 0xf5010000
    14c8:	00002c0e 	andeq	r2, r0, lr, lsl #24
    14cc:	04fe2200 	ldrbteq	r2, [lr], #512	; 0x200
    14d0:	f5010000 			; <UNDEFINED> instruction: 0xf5010000
    14d4:	00002c1b 	andeq	r2, r0, fp, lsl ip
    14d8:	049e2200 	ldreq	r2, [lr], #512	; 0x200
    14dc:	f5010000 			; <UNDEFINED> instruction: 0xf5010000
    14e0:	00002c27 	andeq	r2, r0, r7, lsr #24
    14e4:	00491500 	subeq	r1, r9, r0, lsl #10
    14e8:	04760000 	ldrbteq	r0, [r6], #-0
    14ec:	03050000 	movweq	r0, #20480	; 0x5000
    14f0:	0000a808 	andeq	sl, r0, r8, lsl #16
    14f4:	00682423 	rsbeq	r2, r8, r3, lsr #8
    14f8:	7b11fa01 	blvc	47fd04 <__bss_end__+0x474d34>
    14fc:	00000004 	andeq	r0, r0, r4
    1500:	00cc1000 	sbceq	r1, ip, r0
    1504:	04760000 	ldrbteq	r0, [r6], #-0
    1508:	2c110000 	ldccs	0, cr0, [r1], {-0}
    150c:	0a000000 	beq	1514 <__code_start__-0x6aec>
    1510:	04660900 	strbteq	r0, [r6], #-2304	; 0xfffff700
    1514:	04080000 	streq	r0, [r8], #-0
    1518:	000001d4 	ldrdeq	r0, [r0], -r4
    151c:	00011b25 	andeq	r1, r1, r5, lsr #22
    1520:	0ae30100 	beq	ff8c1928 <__bss_end__+0xff8b6958>
    1524:	0000002c 	andeq	r0, r0, ip, lsr #32
    1528:	00008aa8 	andeq	r8, r0, r8, lsr #21
    152c:	00000050 	andeq	r0, r0, r0, asr r0
    1530:	054a9c01 	strbeq	r9, [sl, #-3073]	; 0xfffff3ff
    1534:	d9260000 	stmdble	r6!, {}	; <UNPREDICTABLE>
    1538:	01000004 	tsteq	r0, r4
    153c:	002c0ee9 	eoreq	r0, ip, r9, ror #29
    1540:	087c0000 	ldmdaeq	ip!, {}^	; <UNPREDICTABLE>
    1544:	08760000 	ldmdaeq	r6!, {}^	; <UNPREDICTABLE>
    1548:	49150000 	ldmdbmi	r5, {}	; <UNPREDICTABLE>
    154c:	5a000000 	bpl	1554 <__code_start__-0x6aac>
    1550:	05000005 	streq	r0, [r0, #-5]
    1554:	00a7f403 	adceq	pc, r7, r3, lsl #8
    1558:	061f2700 	ldreq	r2, [pc], -r0, lsl #14
    155c:	8aac0000 	bhi	feb01564 <__bss_end__+0xfeaf6594>
    1560:	ac020000 	stcge	0, cr0, [r2], {-0}
    1564:	0800008a 	stmdaeq	r0, {r1, r3, r7}
    1568:	01000000 	mrseq	r0, (UNDEF: 0)
    156c:	04f417e9 	ldrbteq	r1, [r4], #2025	; 0x7e9
    1570:	301f0000 	andscc	r0, pc, r0
    1574:	a7000006 	strge	r0, [r0, -r6]
    1578:	a5000008 	strge	r0, [r0, #-8]
    157c:	20000008 	andcs	r0, r0, r8
    1580:	00008ab4 			; <UNDEFINED> instruction: 0x00008ab4
    1584:	0000063d 	andeq	r0, r0, sp, lsr r6
    1588:	01500117 	cmpeq	r0, r7, lsl r1
    158c:	16000031 			; <UNDEFINED> instruction: 0x16000031
    1590:	00008ac8 	andeq	r8, r0, r8, asr #21
    1594:	00000cec 	andeq	r0, r0, ip, ror #25
    1598:	00000511 	andeq	r0, r0, r1, lsl r5
    159c:	05500117 	ldrbeq	r0, [r0, #-279]	; 0xfffffee9
    15a0:	00a72c03 	adceq	r2, r7, r3, lsl #24
    15a4:	51011700 	tstpl	r1, r0, lsl #14
    15a8:	00007402 	andeq	r7, r0, r2, lsl #8
    15ac:	008ae416 	addeq	lr, sl, r6, lsl r4
    15b0:	000cec00 	andeq	lr, ip, r0, lsl #24
    15b4:	00054000 	andeq	r4, r5, r0
    15b8:	50011700 	andpl	r1, r1, r0, lsl #14
    15bc:	a7040305 	strge	r0, [r4, -r5, lsl #6]
    15c0:	01170000 	tsteq	r7, r0
    15c4:	bc030551 	cfstr32lt	mvfx0, [r3], {81}	; 0x51
    15c8:	170000a4 	strne	r0, [r0, -r4, lsr #1]
    15cc:	03055201 	movweq	r5, #20993	; 0x5201
    15d0:	0000a7f4 	strdeq	sl, [r0], -r4
    15d4:	02530117 	subseq	r0, r3, #-1073741819	; 0xc0000005
    15d8:	1800eb08 	stmdane	r0, {r3, r8, r9, fp, sp, lr, pc}
    15dc:	00008ae8 	andeq	r8, r0, r8, ror #21
    15e0:	00000cf8 	strdeq	r0, [r0], -r8
    15e4:	00cc1000 	sbceq	r1, ip, r0
    15e8:	055a0000 	ldrbeq	r0, [sl, #-0]
    15ec:	2c110000 	ldccs	0, cr0, [r1], {-0}
    15f0:	11000000 	mrsne	r0, (UNDEF: 0)
    15f4:	054a0900 	strbeq	r0, [sl, #-2304]	; 0xfffff700
    15f8:	b0280000 	eorlt	r0, r8, r0
    15fc:	01000000 	mrseq	r0, (UNDEF: 0)
    1600:	8a6006d5 	bhi	180315c <__bss_end__+0x17f818c>
    1604:	00480000 	subeq	r0, r8, r0
    1608:	9c010000 	stcls	0, cr0, [r1], {-0}
    160c:	0000060a 	andeq	r0, r0, sl, lsl #12
    1610:	00004915 	andeq	r4, r0, r5, lsl r9
    1614:	00061a00 	andeq	r1, r6, r0, lsl #20
    1618:	e4030500 	str	r0, [r3], #-1280	; 0xfffffb00
    161c:	270000a7 	strcs	r0, [r0, -r7, lsr #1]
    1620:	0000061f 	andeq	r0, r0, pc, lsl r6
    1624:	00008a64 	andeq	r8, r0, r4, ror #20
    1628:	008a6402 	addeq	r6, sl, r2, lsl #8
    162c:	00000800 	andeq	r0, r0, r0, lsl #16
    1630:	09db0100 	ldmibeq	fp, {r8}^
    1634:	000005ba 			; <UNDEFINED> instruction: 0x000005ba
    1638:	0006301f 	andeq	r3, r6, pc, lsl r0
    163c:	0008bd00 	andeq	fp, r8, r0, lsl #26
    1640:	0008bb00 	andeq	fp, r8, r0, lsl #22
    1644:	8a6c2000 	bhi	1b0964c <__bss_end__+0x1afe67c>
    1648:	063d0000 	ldrteq	r0, [sp], -r0
    164c:	01170000 	tsteq	r7, r0
    1650:	00310150 	eorseq	r0, r1, r0, asr r1
    1654:	8a7c1600 	bhi	1f06e5c <__bss_end__+0x1efbe8c>
    1658:	0cec0000 	stcleq	0, cr0, [ip]
    165c:	05d10000 	ldrbeq	r0, [r1]
    1660:	01170000 	tsteq	r7, r0
    1664:	e4030550 	str	r0, [r3], #-1360	; 0xfffffab0
    1668:	000000a6 	andeq	r0, r0, r6, lsr #1
    166c:	008a9416 	addeq	r9, sl, r6, lsl r4
    1670:	000cec00 	andeq	lr, ip, r0, lsl #24
    1674:	00060000 	andeq	r0, r6, r0
    1678:	50011700 	andpl	r1, r1, r0, lsl #14
    167c:	a6b80305 	ldrtge	r0, [r8], r5, lsl #6
    1680:	01170000 	tsteq	r7, r0
    1684:	bc030551 	cfstr32lt	mvfx0, [r3], {81}	; 0x51
    1688:	170000a4 	strne	r0, [r0, -r4, lsr #1]
    168c:	03055201 	movweq	r5, #20993	; 0x5201
    1690:	0000a7e4 	andeq	sl, r0, r4, ror #15
    1694:	02530117 	subseq	r0, r3, #-1073741819	; 0xc0000005
    1698:	1800dc08 	stmdane	r0, {r3, sl, fp, ip, lr, pc}
    169c:	00008a98 	muleq	r0, r8, sl
    16a0:	00000cf8 	strdeq	r0, [r0], -r8
    16a4:	00cc1000 	sbceq	r1, ip, r0
    16a8:	061a0000 	ldreq	r0, [sl], -r0
    16ac:	2c110000 	ldccs	0, cr0, [r1], {-0}
    16b0:	0d000000 	stceq	0, cr0, [r0, #-0]
    16b4:	060a0900 	streq	r0, [sl], -r0, lsl #18
    16b8:	b4290000 	strtlt	r0, [r9], #-0
    16bc:	01000004 	tsteq	r0, r4
    16c0:	002c0ace 	eoreq	r0, ip, lr, asr #21
    16c4:	3d010000 	stccc	0, cr0, [r1, #-0]
    16c8:	2a000006 	bcs	16e8 <__code_start__-0x6918>
    16cc:	0000056b 	andeq	r0, r0, fp, ror #10
    16d0:	251cce01 	ldrcs	ip, [ip, #-3585]	; 0xfffff1ff
    16d4:	00000000 	andeq	r0, r0, r0
    16d8:	0005462b 	andeq	r4, r5, fp, lsr #12
    16dc:	11a50100 			; <UNDEFINED> instruction: 0x11a50100
    16e0:	0000002c 	andeq	r0, r0, ip, lsr #32
    16e4:	000088a0 	andeq	r8, r0, r0, lsr #17
    16e8:	00000120 	andeq	r0, r0, r0, lsr #2
    16ec:	07ef9c01 	strbeq	r9, [pc, r1, lsl #24]!
    16f0:	6b2c0000 	blvs	b016f8 <__bss_end__+0xaf6728>
    16f4:	01000005 	tsteq	r0, r5
    16f8:	002520a5 	eoreq	r2, r5, r5, lsr #1
    16fc:	08d50000 	ldmeq	r5, {}^	; <UNPREDICTABLE>
    1700:	08d10000 	ldmeq	r1, {}^	; <UNPREDICTABLE>
    1704:	8f260000 	svchi	0x00260000
    1708:	01000004 	tsteq	r0, r4
    170c:	002c0ea7 	eoreq	r0, ip, r7, lsr #29
    1710:	08fb0000 	ldmeq	fp!, {}^	; <UNPREDICTABLE>
    1714:	08f30000 	ldmeq	r3!, {}^	; <UNPREDICTABLE>
    1718:	c8260000 	stmdagt	r6!, {}	; <UNPREDICTABLE>
    171c:	01000004 	tsteq	r0, r4
    1720:	002c1ba7 	eoreq	r1, ip, r7, lsr #23
    1724:	09390000 	ldmdbeq	r9!, {}	; <UNPREDICTABLE>
    1728:	09310000 	ldmdbeq	r1!, {}	; <UNPREDICTABLE>
    172c:	c2260000 	eorgt	r0, r6, #0, 0
    1730:	01000004 	tsteq	r0, r4
    1734:	002c27a7 	eoreq	r2, ip, r7, lsr #15
    1738:	09770000 	ldmdbeq	r7!, {}^	; <UNPREDICTABLE>
    173c:	096f0000 	stmdbeq	pc!, {}^	; <UNPREDICTABLE>
    1740:	482d0000 	stmdami	sp!, {}	; <UNPREDICTABLE>
    1744:	30000001 	andcc	r0, r0, r1
    1748:	2e000007 	cdpcs	0, 0, cr0, cr0, cr7, {0}
    174c:	ac010068 	stcge	0, cr0, [r1], {104}	; 0x68
    1750:	00047b11 	andeq	r7, r4, r1, lsl fp
    1754:	0009c300 	andeq	ip, r9, r0, lsl #6
    1758:	0009ad00 	andeq	sl, r9, r0, lsl #26
    175c:	88c01800 	stmiahi	r0, {fp, ip}^
    1760:	0d130000 	ldceq	0, cr0, [r3, #-0]
    1764:	f0160000 			; <UNDEFINED> instruction: 0xf0160000
    1768:	1f000088 	svcne	0x00000088
    176c:	df00000d 	svcle	0x0000000d
    1770:	17000006 	strne	r0, [r0, -r6]
    1774:	74025001 	strvc	r5, [r2], #-1
    1778:	18160000 	ldmdane	r6, {}	; <UNPREDICTABLE>
    177c:	ec000089 	stc	0, cr0, [r0], {137}	; 0x89
    1780:	ff00000c 			; <UNDEFINED> instruction: 0xff00000c
    1784:	17000006 	strne	r0, [r0, -r6]
    1788:	79025001 	stmdbvc	r2, {r0, ip, lr}
    178c:	51011700 	tstpl	r1, r0, lsl #14
    1790:	17007502 	strne	r7, [r0, -r2, lsl #10]
    1794:	74025201 	strvc	r5, [r2], #-513	; 0xfffffdff
    1798:	20160000 	andscs	r0, r6, r0
    179c:	1f000089 	svcne	0x00000089
    17a0:	1300000d 	movwne	r0, #13
    17a4:	17000007 	strne	r0, [r0, -r7]
    17a8:	74025001 	strvc	r5, [r2], #-1
    17ac:	7c200000 	stcvc	0, cr0, [r0], #-0
    17b0:	ec000089 	stc	0, cr0, [r0], {137}	; 0x89
    17b4:	1700000c 	strne	r0, [r0, -ip]
    17b8:	7a025001 	bvc	957c4 <__bss_end__+0x8a7f4>
    17bc:	51011700 	tstpl	r1, r0, lsl #14
    17c0:	17007502 	strne	r7, [r0, -r2, lsl #10]
    17c4:	74025201 	strvc	r5, [r2], #-513	; 0xfffffdff
    17c8:	16000000 	strne	r0, [r0], -r0
    17cc:	000088b0 			; <UNDEFINED> instruction: 0x000088b0
    17d0:	00000cec 	andeq	r0, r0, ip, ror #25
    17d4:	00000747 	andeq	r0, r0, r7, asr #14
    17d8:	05500117 	ldrbeq	r0, [r0, #-279]	; 0xfffffee9
    17dc:	00a55403 	adceq	r5, r5, r3, lsl #8
    17e0:	b8160000 	ldmdalt	r6, {}	; <UNPREDICTABLE>
    17e4:	ec000088 	stc	0, cr0, [r0], {136}	; 0x88
    17e8:	5e00000c 	cdppl	0, 0, cr0, cr0, cr12, {0}
    17ec:	17000007 	strne	r0, [r0, -r7]
    17f0:	03055001 	movweq	r5, #20481	; 0x5001
    17f4:	0000a590 	muleq	r0, r0, r5
    17f8:	88bc1800 	ldmhi	ip!, {fp, ip}
    17fc:	07ef0000 	strbeq	r0, [pc, r0]!
    1800:	38160000 	ldmdacc	r6, {}	; <UNPREDICTABLE>
    1804:	ec000089 	stc	0, cr0, [r0], {137}	; 0x89
    1808:	8400000c 	strhi	r0, [r0], #-12
    180c:	17000007 	strne	r0, [r0, -r7]
    1810:	03055001 	movweq	r5, #20481	; 0x5001
    1814:	0000a5d4 	ldrdeq	sl, [r0], -r4
    1818:	02510117 	subseq	r0, r1, #-1073741819	; 0xc0000005
    181c:	16000075 			; <UNDEFINED> instruction: 0x16000075
    1820:	00008950 	andeq	r8, r0, r0, asr r9
    1824:	00000cec 	andeq	r0, r0, ip, ror #25
    1828:	000007a7 	andeq	r0, r0, r7, lsr #15
    182c:	05500117 	ldrbeq	r0, [r0, #-279]	; 0xfffffee9
    1830:	00a61c03 	adceq	r1, r6, r3, lsl #24
    1834:	51011700 	tstpl	r1, r0, lsl #14
    1838:	17007602 	strne	r7, [r0, -r2, lsl #12]
    183c:	77025201 	strvc	r5, [r2, -r1, lsl #4]
    1840:	58160000 	ldmdapl	r6, {}	; <UNPREDICTABLE>
    1844:	ec000089 	stc	0, cr0, [r0], {137}	; 0x89
    1848:	be00000c 	cdplt	0, 0, cr0, cr0, cr12, {0}
    184c:	17000007 	strne	r0, [r0, -r7]
    1850:	03055001 	movweq	r5, #20481	; 0x5001
    1854:	0000a64c 	andeq	sl, r0, ip, asr #12
    1858:	898c1600 	stmibhi	ip, {r9, sl, ip}
    185c:	0cec0000 	stcleq	0, cr0, [ip]
    1860:	07db0000 	ldrbeq	r0, [fp, r0]
    1864:	01170000 	tsteq	r7, r0
    1868:	d4030550 	strle	r0, [r3], #-1360	; 0xfffffab0
    186c:	170000a5 	strne	r0, [r0, -r5, lsr #1]
    1870:	74025101 	strvc	r5, [r2], #-257	; 0xfffffeff
    1874:	9c200000 	stcls	0, cr0, [r0], #-0
    1878:	ec000089 	stc	0, cr0, [r0], {137}	; 0x89
    187c:	1700000c 	strne	r0, [r0, -ip]
    1880:	03055001 	movweq	r5, #20481	; 0x5001
    1884:	0000a5f4 	strdeq	sl, [r0], -r4
    1888:	692f0000 	stmdbvs	pc!, {}	; <UNPREDICTABLE>
    188c:	01000004 	tsteq	r0, r4
    1890:	87fc0d79 			; <UNDEFINED> instruction: 0x87fc0d79
    1894:	00a40000 	adceq	r0, r4, r0
    1898:	9c010000 	stcls	0, cr0, [r1], {-0}
    189c:	000008f7 	strdeq	r0, [r0], -r7
    18a0:	0004d413 	andeq	sp, r4, r3, lsl r4
    18a4:	0e850100 	rmfeqs	f0, f5, f0
    18a8:	000008f7 	strdeq	r0, [r0], -r7
    18ac:	7fb89103 	svcvc	0x00b89103
    18b0:	00045f30 	andeq	r5, r4, r0, lsr pc
    18b4:	0f960100 	svceq	0x00960100
    18b8:	00000907 	andeq	r0, r0, r7, lsl #18
    18bc:	08000000 	stmdaeq	r0, {}	; <UNPREDICTABLE>
    18c0:	00048107 	andeq	r8, r4, r7, lsl #2
    18c4:	159b0100 	ldrne	r0, [fp, #256]	; 0x100
    18c8:	00000075 	andeq	r0, r0, r5, ror r0
    18cc:	00051b07 	andeq	r1, r5, r7, lsl #22
    18d0:	249b0100 	ldrcs	r0, [fp], #256	; 0x100
    18d4:	00000075 	andeq	r0, r0, r5, ror r0
    18d8:	00055107 	andeq	r5, r5, r7, lsl #2
    18dc:	159e0100 	ldrne	r0, [lr, #256]	; 0x100
    18e0:	00000075 	andeq	r0, r0, r5, ror r0
    18e4:	0004ea07 	andeq	lr, r4, r7, lsl #20
    18e8:	259e0100 	ldrcs	r0, [lr, #256]	; 0x100
    18ec:	00000075 	andeq	r0, r0, r5, ror r0
    18f0:	0001302d 	andeq	r3, r1, sp, lsr #32
    18f4:	00088300 	andeq	r8, r8, r0, lsl #6
    18f8:	00682e00 	rsbeq	r2, r8, r0, lsl #28
    18fc:	7b117e01 	blvc	461108 <__bss_end__+0x456138>
    1900:	48000004 	stmdami	r0, {r2}
    1904:	4400000a 	strmi	r0, [r0], #-10
    1908:	1800000a 	stmdane	r0, {r1, r3}
    190c:	00008808 	andeq	r8, r0, r8, lsl #16
    1910:	00000d13 	andeq	r0, r0, r3, lsl sp
    1914:	00882418 	addeq	r2, r8, r8, lsl r4
    1918:	000d1f00 	andeq	r1, sp, r0, lsl #30
    191c:	34160000 	ldrcc	r0, [r6], #-0
    1920:	37000088 	strcc	r0, [r0, -r8, lsl #1]
    1924:	9700000d 	strls	r0, [r0, -sp]
    1928:	17000008 	strne	r0, [r0, -r8]
    192c:	7d025001 	stcvc	0, cr5, [r2, #-4]
    1930:	50160000 	andspl	r0, r6, r0
    1934:	0d000088 	stceq	0, cr0, [r0, #-544]	; 0xfffffde0
    1938:	b1000009 	tstlt	r0, r9
    193c:	17000008 	strne	r0, [r0, -r8]
    1940:	7d025001 	stcvc	0, cr5, [r2, #-4]
    1944:	51011700 	tstpl	r1, r0, lsl #14
    1948:	00689102 	rsbeq	r9, r8, r2, lsl #2
    194c:	00886016 	addeq	r6, r8, r6, lsl r0
    1950:	000cec00 	andeq	lr, ip, r0, lsl #24
    1954:	0008cf00 	andeq	ip, r8, r0, lsl #30
    1958:	50011700 	andpl	r1, r1, r0, lsl #14
    195c:	a5380305 	ldrge	r0, [r8, #-773]!	; 0xfffffcfb
    1960:	01170000 	tsteq	r7, r0
    1964:	47400352 	smlsldmi	r0, r0, r2, r3	; <UNPREDICTABLE>
    1968:	6c160024 	ldcvs	0, cr0, [r6], {36}	; 0x24
    196c:	0d000088 	stceq	0, cr0, [r0, #-544]	; 0xfffffde0
    1970:	e4000009 	str	r0, [r0], #-9
    1974:	17000008 	strne	r0, [r0, -r8]
    1978:	40035101 	andmi	r5, r3, r1, lsl #2
    197c:	18002447 	stmdane	r0, {r0, r1, r2, r6, sl, sp}
    1980:	00008878 	andeq	r8, r0, r8, ror r8
    1984:	0000090d 	andeq	r0, r0, sp, lsl #18
    1988:	00888418 	addeq	r8, r8, r8, lsl r4
    198c:	00090d00 	andeq	r0, r9, r0, lsl #26
    1990:	75100000 	ldrvc	r0, [r0, #-0]
    1994:	07000000 	streq	r0, [r0, -r0]
    1998:	11000009 	tstne	r0, r9
    199c:	0000002c 	andeq	r0, r0, ip, lsr #32
    19a0:	0408000f 	streq	r0, [r8], #-15
    19a4:	00000075 	andeq	r0, r0, r5, ror r0
    19a8:	0004af31 	andeq	sl, r4, r1, lsr pc
    19ac:	0d500100 	ldfeqe	f0, [r0, #-0]
    19b0:	00097001 	andeq	r7, r9, r1
    19b4:	00703200 	rsbseq	r3, r0, r0, lsl #4
    19b8:	071c5001 	ldreq	r5, [ip, -r1]
    19bc:	32000009 	andcc	r0, r0, #9, 0
    19c0:	50010065 	andpl	r0, r1, r5, rrx
    19c4:	00090729 	andeq	r0, r9, r9, lsr #14
    19c8:	00491500 	subeq	r1, r9, r0, lsl #10
    19cc:	09800000 	stmibeq	r0, {}	; <UNPREDICTABLE>
    19d0:	03050000 	movweq	r0, #20480	; 0x5000
    19d4:	0000a7d4 	ldrdeq	sl, [r0], -r4
    19d8:	00692423 	rsbeq	r2, r9, r3, lsr #8
    19dc:	07145801 	ldreq	r5, [r4, -r1, lsl #16]
    19e0:	23000009 	movwcs	r0, #9
    19e4:	01006224 	tsteq	r0, r4, lsr #4
    19e8:	047b105a 	ldrbteq	r1, [fp], #-90	; 0xffffffa6
    19ec:	24230000 	strtcs	r0, [r3], #-0
    19f0:	00707865 	rsbseq	r7, r0, r5, ror #16
    19f4:	75165d01 	ldrvc	r5, [r6, #-3329]	; 0xfffff2ff
    19f8:	22000000 	andcs	r0, r0, #0, 0
    19fc:	000004ab 	andeq	r0, r0, fp, lsr #9
    1a00:	62165e01 	andsvs	r5, r6, #1, 28
    1a04:	00000000 	andeq	r0, r0, r0
    1a08:	10000000 	andne	r0, r0, r0
    1a0c:	000000cc 	andeq	r0, r0, ip, asr #1
    1a10:	00000980 	andeq	r0, r0, r0, lsl #19
    1a14:	00002c11 	andeq	r2, r0, r1, lsl ip
    1a18:	09000400 	stmdbeq	r0, {sl}
    1a1c:	00000970 	andeq	r0, r0, r0, ror r9
    1a20:	0004f721 	andeq	pc, r4, r1, lsr #14
    1a24:	0f3c0100 	svceq	0x003c0100
    1a28:	0000047b 	andeq	r0, r0, fp, ror r4
    1a2c:	0009ad01 	andeq	sl, r9, r1, lsl #26
    1a30:	0a772a00 	beq	1dcc238 <__bss_end__+0x1dc1268>
    1a34:	3c010000 	stccc	0, cr0, [r1], {-0}
    1a38:	0000751f 	andeq	r7, r0, pc, lsl r5
    1a3c:	00702400 	rsbseq	r2, r0, r0, lsl #8
    1a40:	e00b3e01 	and	r3, fp, r1, lsl #28
    1a44:	00000001 	andeq	r0, r0, r1
    1a48:	00050521 	andeq	r0, r5, r1, lsr #10
    1a4c:	0c2b0100 	stfeqs	f0, [fp], #-0
    1a50:	00000025 	andeq	r0, r0, r5, lsr #32
    1a54:	0009c901 	andeq	ip, r9, r1, lsl #18
    1a58:	00703200 	rsbseq	r3, r0, r0, lsl #4
    1a5c:	e01a2b01 	ands	r2, sl, r1, lsl #22
    1a60:	00000001 	andeq	r0, r0, r1
    1a64:	00044525 	andeq	r4, r4, r5, lsr #10
    1a68:	07130100 	ldreq	r0, [r3, -r0, lsl #2]
    1a6c:	000001e0 	andeq	r0, r0, r0, ror #3
    1a70:	000089c0 	andeq	r8, r0, r0, asr #19
    1a74:	0000009c 	muleq	r0, ip, r0
    1a78:	0adc9c01 	beq	ff728a84 <__bss_end__+0xff71dab4>
    1a7c:	e02c0000 	eor	r0, ip, r0
    1a80:	01000004 	tsteq	r0, r4
    1a84:	00411113 	subeq	r1, r1, r3, lsl r1
    1a88:	0a760000 	beq	1d81a90 <__bss_end__+0x1d76ac0>
    1a8c:	0a660000 	beq	1981a94 <__bss_end__+0x1976ac4>
    1a90:	97130000 	ldrls	r0, [r3, -r0]
    1a94:	01000004 	tsteq	r0, r4
    1a98:	00251015 	eoreq	r1, r5, r5, lsl r0
    1a9c:	03050000 	movweq	r0, #20480	; 0x5000
    1aa0:	0000abc8 	andeq	sl, r0, r8, asr #23
    1aa4:	00004915 	andeq	r4, r0, r5, lsl r9
    1aa8:	00098000 	andeq	r8, r9, r0
    1aac:	dc030500 	cfstr32le	mvfx0, [r3], {-0}
    1ab0:	2d0000a7 	stccs	0, cr0, [r0, #-668]	; 0xfffffd64
    1ab4:	00000170 	andeq	r0, r0, r0, ror r1
    1ab8:	00000a4e 	andeq	r0, r0, lr, asr #20
    1abc:	00050d26 	andeq	r0, r5, r6, lsr #26
    1ac0:	121c0100 	andsne	r0, ip, #0
    1ac4:	0000002c 	andeq	r0, r0, ip, lsr #32
    1ac8:	00000adb 	ldrdeq	r0, [r0], -fp
    1acc:	00000ad9 	ldrdeq	r0, [r0], -r9
    1ad0:	0089f420 	addeq	pc, r9, r0, lsr #8
    1ad4:	000d4300 	andeq	r4, sp, r0, lsl #6
    1ad8:	50011700 	andpl	r1, r1, r0, lsl #14
    1adc:	24404003 	strbcs	r4, [r0], #-3
    1ae0:	03510117 	cmpeq	r1, #-1073741819	; 0xc0000005
    1ae4:	00244040 	eoreq	r4, r4, r0, asr #32
    1ae8:	8a0c3300 	bhi	30e6f0 <__bss_end__+0x303720>
    1aec:	0d4f0000 	stcleq	0, cr0, [pc, #-0]	; 1af4 <__code_start__-0x650c>
    1af0:	0a630000 	beq	18c1af8 <__bss_end__+0x18b6b28>
    1af4:	01170000 	tsteq	r7, r0
    1af8:	01f30350 	mvnseq	r0, r0, asr r3
    1afc:	28160050 	ldmdacs	r6, {r4, r6}
    1b00:	ec00008a 	stc	0, cr0, [r0], {138}	; 0x8a
    1b04:	9b00000c 	blls	1b3c <__code_start__-0x64c4>
    1b08:	1700000a 	strne	r0, [r0, -sl]
    1b0c:	03055001 	movweq	r5, #20481	; 0x5001
    1b10:	0000a354 	andeq	sl, r0, r4, asr r3
    1b14:	05510117 	ldrbeq	r0, [r1, #-279]	; 0xfffffee9
    1b18:	00a4bc03 	adceq	fp, r4, r3, lsl #24
    1b1c:	52011700 	andpl	r1, r1, #0, 14
    1b20:	a7dc0305 	ldrbge	r0, [ip, r5, lsl #6]
    1b24:	01170000 	tsteq	r7, r0
    1b28:	17470153 	smlsldne	r0, r7, r3, r1
    1b2c:	05007d02 	streq	r7, [r0, #-3330]	; 0xfffff2fe
    1b30:	00a68803 	adceq	r8, r6, r3, lsl #16
    1b34:	2c180000 	ldccs	0, cr0, [r8], {-0}
    1b38:	f800008a 			; <UNDEFINED> instruction: 0xf800008a
    1b3c:	1600000c 	strne	r0, [r0], -ip
    1b40:	00008a40 	andeq	r8, r0, r0, asr #20
    1b44:	00000cec 	andeq	r0, r0, ip, ror #25
    1b48:	00000ad2 	ldrdeq	r0, [r0], -r2
    1b4c:	05500117 	ldrbeq	r0, [r0, #-279]	; 0xfffffee9
    1b50:	00a69803 	adceq	r9, r6, r3, lsl #16
    1b54:	51011700 	tstpl	r1, r0, lsl #14
    1b58:	a4bc0305 	ldrtge	r0, [ip], #773	; 0x305
    1b5c:	01170000 	tsteq	r7, r0
    1b60:	dc030552 	cfstr32le	mvfx0, [r3], {82}	; 0x52
    1b64:	170000a7 	strne	r0, [r0, -r7, lsr #1]
    1b68:	49015301 	stmdbmi	r1, {r0, r8, r9, ip, lr}
    1b6c:	8a441800 	bhi	1107b74 <__bss_end__+0x10fcba4>
    1b70:	0cf80000 	ldcleq	0, cr0, [r8]
    1b74:	21000000 	mrscs	r0, (UNDEF: 0)
    1b78:	000001ef 	andeq	r0, r0, pc, ror #3
    1b7c:	140b0c02 	strne	r0, [fp], #-3074	; 0xfffff3fe
    1b80:	03000001 	movweq	r0, #1
    1b84:	00000b12 	andeq	r0, r0, r2, lsl fp
    1b88:	00001e2a 	andeq	r1, r0, sl, lsr #28
    1b8c:	220c0200 	andcs	r0, ip, #0, 4
    1b90:	000000bf 	strheq	r0, [r0], -pc	; <UNPREDICTABLE>
    1b94:	0000292a 	andeq	r2, r0, sl, lsr #18
    1b98:	340c0200 	strcc	r0, [ip], #-512	; 0xfffffe00
    1b9c:	000000bf 	strheq	r0, [r0], -pc	; <UNPREDICTABLE>
    1ba0:	0000be2a 	andeq	fp, r0, sl, lsr #28
    1ba4:	430c0200 	movwmi	r0, #49664	; 0xc200
    1ba8:	0000002c 	andeq	r0, r0, ip, lsr #32
    1bac:	090d3400 	stmdbeq	sp, {sl, ip, sp}
    1bb0:	86a00000 	strthi	r0, [r0], r0
    1bb4:	015c0000 	cmpeq	ip, r0
    1bb8:	9c010000 	stcls	0, cr0, [r1], {-0}
    1bbc:	00000cba 			; <UNDEFINED> instruction: 0x00000cba
    1bc0:	00091a1f 	andeq	r1, r9, pc, lsl sl
    1bc4:	000af900 	andeq	pc, sl, r0, lsl #18
    1bc8:	000af100 	andeq	pc, sl, r0, lsl #2
    1bcc:	09241f00 	stmdbeq	r4!, {r8, r9, sl, fp, ip}
    1bd0:	0b3b0000 	bleq	ec1bd8 <__bss_end__+0xeb6c08>
    1bd4:	0b330000 	bleq	cc1bdc <__bss_end__+0xcb6c0c>
    1bd8:	0d350000 	ldceq	0, cr0, [r5, #-0]
    1bdc:	78000009 	stmdavc	r0, {r0, r3}
    1be0:	01000000 	mrseq	r0, (UNDEF: 0)
    1be4:	0c870d50 	stceq	13, cr0, [r7], {80}	; 0x50
    1be8:	24360000 	ldrtcs	r0, [r6], #-0
    1bec:	36000009 	strcc	r0, [r0], -r9
    1bf0:	0000091a 	andeq	r0, r0, sl, lsl r9
    1bf4:	0000781c 	andeq	r7, r0, ip, lsl r8
    1bf8:	093d3700 	ldmdbeq	sp!, {r8, r9, sl, ip, sp}
    1bfc:	00780000 	rsbseq	r0, r8, r0
    1c00:	3e1d0000 	cdpcc	0, 1, cr0, cr13, cr0, {0}
    1c04:	83000009 	movwhi	r0, #9
    1c08:	7500000b 	strvc	r0, [r0, #-11]
    1c0c:	3700000b 	strcc	r0, [r0, -fp]
    1c10:	00000948 	andeq	r0, r0, r8, asr #18
    1c14:	00000090 	muleq	r0, r0, r0
    1c18:	0009491d 	andeq	r4, r9, sp, lsl r9
    1c1c:	000be000 	andeq	lr, fp, r0
    1c20:	000bd800 	andeq	sp, fp, r0, lsl #16
    1c24:	09531e00 	ldmdbeq	r3, {r9, sl, fp, ip}^
    1c28:	00b00000 	adcseq	r0, r0, r0
    1c2c:	0c250000 	stceq	0, cr0, [r5], #-0
    1c30:	541d0000 	ldrpl	r0, [sp], #-0
    1c34:	18000009 	stmdane	r0, {r0, r3}
    1c38:	1400000c 	strne	r0, [r0], #-12
    1c3c:	1d00000c 	stcne	0, cr0, [r0, #-48]	; 0xffffffd0
    1c40:	00000960 	andeq	r0, r0, r0, ror #18
    1c44:	00000c3a 	andeq	r0, r0, sl, lsr ip
    1c48:	00000c36 	andeq	r0, r0, r6, lsr ip
    1c4c:	00872416 	addeq	r2, r7, r6, lsl r4
    1c50:	000d5b00 	andeq	r5, sp, r0, lsl #22
    1c54:	000bc500 	andeq	ip, fp, r0, lsl #10
    1c58:	50011700 	andpl	r1, r1, r0, lsl #14
    1c5c:	00007602 	andeq	r7, r0, r2, lsl #12
    1c60:	00874016 	addeq	r4, r7, r6, lsl r0
    1c64:	000cec00 	andeq	lr, ip, r0, lsl #24
    1c68:	000be600 	andeq	lr, fp, r0, lsl #12
    1c6c:	50011700 	andpl	r1, r1, r0, lsl #14
    1c70:	17007a02 	strne	r7, [r0, -r2, lsl #20]
    1c74:	78025201 	stmdavc	r2, {r0, r9, ip, lr}
    1c78:	7d021700 	stcvc	7, cr1, [r2, #-0]
    1c7c:	007b0200 	rsbseq	r0, fp, r0, lsl #4
    1c80:	87681600 	strbhi	r1, [r8, -r0, lsl #12]!
    1c84:	0cec0000 	stcleq	0, cr0, [ip]
    1c88:	0bfd0000 	bleq	fff41c90 <__bss_end__+0xfff36cc0>
    1c8c:	01170000 	tsteq	r7, r0
    1c90:	18030550 	stmdane	r3, {r4, r6, r8, sl}
    1c94:	000000a5 	andeq	r0, r0, r5, lsr #1
    1c98:	00878816 	addeq	r8, r7, r6, lsl r8
    1c9c:	000cec00 	andeq	lr, ip, r0, lsl #24
    1ca0:	000c1400 	andeq	r1, ip, r0, lsl #8
    1ca4:	50011700 	andpl	r1, r1, r0, lsl #14
    1ca8:	a5280305 	strge	r0, [r8, #-773]!	; 0xfffffcfb
    1cac:	20000000 	andcs	r0, r0, r0
    1cb0:	000087a8 	andeq	r8, r0, r8, lsr #15
    1cb4:	0000090d 	andeq	r0, r0, sp, lsl #18
    1cb8:	02500117 	subseq	r0, r0, #-1073741819	; 0xc0000005
    1cbc:	00000476 	andeq	r0, r0, r6, ror r4
    1cc0:	00098538 	andeq	r8, r9, r8, lsr r5
    1cc4:	00870000 	addeq	r0, r7, r0
    1cc8:	00d80100 	sbcseq	r0, r8, r0, lsl #2
    1ccc:	5a010000 	bpl	41cd4 <__bss_end__+0x36d04>
    1cd0:	09961f14 	ldmibeq	r6, {r2, r4, r8, r9, sl, fp, ip}
    1cd4:	0c5a0000 	mraeq	r0, sl, acc0
    1cd8:	0c580000 	mraeq	r0, r8, acc0
    1cdc:	f01c0000 			; <UNDEFINED> instruction: 0xf01c0000
    1ce0:	1d000000 	stcne	0, cr0, [r0, #-0]
    1ce4:	000009a2 	andeq	r0, r0, r2, lsr #19
    1ce8:	00000c6f 	andeq	r0, r0, pc, ror #24
    1cec:	00000c6d 	andeq	r0, r0, sp, ror #24
    1cf0:	0009ad39 	andeq	sl, r9, r9, lsr sp
    1cf4:	00870000 	addeq	r0, r7, r0
    1cf8:	01100400 	tsteq	r0, r0, lsl #8
    1cfc:	40010000 	andmi	r0, r1, r0
    1d00:	000c780a 	andeq	r7, ip, sl, lsl #16
    1d04:	09be1f00 	ldmibeq	lr!, {r8, r9, sl, fp, ip}
    1d08:	0c840000 	stceq	0, cr0, [r4], {0}
    1d0c:	0c820000 	stceq	0, cr0, [r2], {0}
    1d10:	18000000 	stmdane	r0, {}	; <UNPREDICTABLE>
    1d14:	00008714 	andeq	r8, r0, r4, lsl r7
    1d18:	00000d67 	andeq	r0, r0, r7, ror #26
    1d1c:	00000000 	andeq	r0, r0, r0
    1d20:	d0160000 	andsle	r0, r6, r0
    1d24:	ec000087 	stc	0, cr0, [r0], {135}	; 0x87
    1d28:	b000000c 	andlt	r0, r0, ip
    1d2c:	1700000c 	strne	r0, [r0, -ip]
    1d30:	03055001 	movweq	r5, #20481	; 0x5001
    1d34:	0000a354 	andeq	sl, r0, r4, asr r3
    1d38:	05510117 	ldrbeq	r0, [r1, #-279]	; 0xfffffee9
    1d3c:	00a4bc03 	adceq	fp, r4, r3, lsl #24
    1d40:	52011700 	andpl	r1, r1, #0, 14
    1d44:	a7d40305 	ldrbge	r0, [r4, r5, lsl #6]
    1d48:	18000000 	stmdane	r0, {}	; <UNPREDICTABLE>
    1d4c:	000087d4 	ldrdeq	r8, [r0], -r4
    1d50:	00000cf8 	strdeq	r0, [r0], -r8
    1d54:	061f3400 	ldreq	r3, [pc], -r0, lsl #8
    1d58:	8a5c0000 	bhi	1701d60 <__bss_end__+0x16f6d90>
    1d5c:	00040000 	andeq	r0, r4, r0
    1d60:	9c010000 	stcls	0, cr0, [r1], {-0}
    1d64:	00000cec 	andeq	r0, r0, ip, ror #25
    1d68:	0006301f 	andeq	r3, r6, pc, lsl r0
    1d6c:	000c9b00 	andeq	r9, ip, r0, lsl #22
    1d70:	000c9700 	andeq	r9, ip, r0, lsl #14
    1d74:	8a603a00 	bhi	181057c <__bss_end__+0x18055ac>
    1d78:	063d0000 	ldrteq	r0, [sp], -r0
    1d7c:	01170000 	tsteq	r7, r0
    1d80:	01f30350 	mvnseq	r0, r0, asr r3
    1d84:	3b000050 	blcc	1ecc <__code_start__-0x6134>
    1d88:	000005c0 	andeq	r0, r0, r0, asr #11
    1d8c:	000005c0 	andeq	r0, r0, r0, asr #11
    1d90:	3b062804 	blcc	18bda8 <__bss_end__+0x180dd8>
    1d94:	00000056 	andeq	r0, r0, r6, asr r0
    1d98:	00000056 	andeq	r0, r0, r6, asr r0
    1d9c:	3c066e04 	stccc	14, cr6, [r6], {4}
    1da0:	730b9e0d 	movwvc	r9, #48653	; 0xbe0d
    1da4:	70656577 	rsbvc	r6, r5, r7, ror r5
    1da8:	6572665f 	ldrbvs	r6, [r2, #-1631]!	; 0xfffff9a1
    1dac:	563b0065 	ldrtpl	r0, [fp], -r5, rrx
    1db0:	56000002 	strpl	r0, [r0], -r2
    1db4:	05000002 	streq	r0, [r0, #-2]
    1db8:	c63b0828 	ldrtgt	r0, [fp], -r8, lsr #16
    1dbc:	c6000002 	strgt	r0, [r0], -r2
    1dc0:	05000002 	streq	r0, [r0, #-2]
    1dc4:	6b3b082b 	blvs	ec3e78 <__bss_end__+0xeb8ea8>
    1dc8:	6b000002 	blvs	1dd8 <__code_start__-0x6228>
    1dcc:	05000002 	streq	r0, [r0, #-2]
    1dd0:	cf3b074a 	svcgt	0x003b074a
    1dd4:	cf000004 	svcgt	0x00000004
    1dd8:	01000004 	tsteq	r0, r4
    1ddc:	2f3b0676 	svccs	0x003b0676
    1de0:	2f000005 	svccs	0x00000005
    1de4:	04000005 	streq	r0, [r0], #-5
    1de8:	273b0682 	ldrcs	r0, [fp, -r2, lsl #13]!
    1dec:	27000005 	strcs	r0, [r0, -r5]
    1df0:	04000005 	streq	r0, [r0], #-5
    1df4:	d93b077b 	ldmdble	fp!, {r0, r1, r3, r4, r5, r6, r8, r9, sl}
    1df8:	d9000003 	stmdble	r0, {r0, r1}
    1dfc:	05000003 	streq	r0, [r0, #-3]
    1e00:	b43b0732 	ldrtlt	r0, [fp], #-1842	; 0xfffff8ce
    1e04:	b4000002 	strlt	r0, [r0], #-2
    1e08:	05000002 	streq	r0, [r0, #-2]
    1e0c:	40000845 	andmi	r0, r0, r5, asr #16
    1e10:	04000001 	streq	r0, [r0], #-1
    1e14:	000a7100 	andeq	r7, sl, r0, lsl #2
    1e18:	32010400 	andcc	r0, r1, #0, 8
    1e1c:	0c000001 	stceq	0, cr0, [r0], {1}
    1e20:	00000586 	andeq	r0, r0, r6, lsl #11
    1e24:	00000596 	muleq	r0, r6, r5
    1e28:	00008c2c 	andeq	r8, r0, ip, lsr #24
    1e2c:	00000078 	andeq	r0, r0, r8, ror r0
    1e30:	00000db4 			; <UNDEFINED> instruction: 0x00000db4
    1e34:	69050402 	stmdbvs	r5, {r1, sl}
    1e38:	0300746e 	movweq	r7, #1134	; 0x46e
    1e3c:	0000057f 	andeq	r0, r0, pc, ror r5
    1e40:	3817d103 	ldmdacc	r7, {r0, r1, r8, ip, lr, pc}
    1e44:	04000000 	streq	r0, [r0], #-0
    1e48:	00cf0704 	sbceq	r0, pc, r4, lsl #14
    1e4c:	01040000 	mrseq	r0, (UNDEF: 4)
    1e50:	00007206 	andeq	r7, r0, r6, lsl #4
    1e54:	05020400 	streq	r0, [r2, #-1024]	; 0xfffffc00
    1e58:	00000000 	andeq	r0, r0, r0
    1e5c:	33050404 	movwcc	r0, #21508	; 0x5404
    1e60:	04000000 	streq	r0, [r0], #-0
    1e64:	002e0508 	eoreq	r0, lr, r8, lsl #10
    1e68:	01040000 	mrseq	r0, (UNDEF: 4)
    1e6c:	00007008 	andeq	r7, r0, r8
    1e70:	07020400 	streq	r0, [r2, -r0, lsl #8]
    1e74:	00000108 	andeq	r0, r0, r8, lsl #2
    1e78:	ca070404 	bgt	1c2e90 <__bss_end__+0x1b7ec0>
    1e7c:	04000000 	streq	r0, [r0], #-0
    1e80:	00c50708 	sbceq	r0, r5, r8, lsl #14
    1e84:	25050000 	strcs	r0, [r5, #-0]
    1e88:	86000000 	strhi	r0, [r0], -r0
    1e8c:	06000000 	streq	r0, [r0], -r0
    1e90:	00000025 	andeq	r0, r0, r5, lsr #32
    1e94:	000a0700 	andeq	r0, sl, r0, lsl #14
    1e98:	1c020000 	stcne	0, cr0, [r2], {-0}
    1e9c:	0000920e 	andeq	r9, r0, lr, lsl #4
    1ea0:	77040800 	strvc	r0, [r4, -r0, lsl #16]
    1ea4:	05000000 	streq	r0, [r0, #-0]
    1ea8:	00000025 	andeq	r0, r0, r5, lsr #32
    1eac:	000000a7 	andeq	r0, r0, r7, lsr #1
    1eb0:	0000a706 	andeq	sl, r0, r6, lsl #14
    1eb4:	04080000 	streq	r0, [r8], #-0
    1eb8:	000000b4 	strheq	r0, [r0], -r4
    1ebc:	79080104 	stmdbvc	r8, {r2, r8}
    1ec0:	09000000 	stmdbeq	r0, {}	; <UNPREDICTABLE>
    1ec4:	000000ad 	andeq	r0, r0, sp, lsr #1
    1ec8:	0005fe07 	andeq	pc, r5, r7, lsl #28
    1ecc:	0e210200 	cdpeq	2, 2, cr0, cr1, cr0, {0}
    1ed0:	000000c5 	andeq	r0, r0, r5, asr #1
    1ed4:	00980408 	addseq	r0, r8, r8, lsl #8
    1ed8:	3c0a0000 	stccc	0, cr0, [sl], {-0}
    1edc:	01000000 	mrseq	r0, (UNDEF: 0)
    1ee0:	013b0704 	teqeq	fp, r4, lsl #14
    1ee4:	8c2c0000 	stchi	0, cr0, [ip], #-0
    1ee8:	00780000 	rsbseq	r0, r8, r0
    1eec:	9c010000 	stcls	0, cr0, [r1], {-0}
    1ef0:	0000013b 	andeq	r0, r0, fp, lsr r1
    1ef4:	00705f0b 	rsbseq	r5, r0, fp, lsl #30
    1ef8:	3b140401 	blcc	502f04 <__bss_end__+0x4f7f34>
    1efc:	01000001 	tsteq	r0, r1
    1f00:	00630c50 	rsbeq	r0, r3, r0, asr ip
    1f04:	251c0401 	ldrcs	r0, [ip, #-1025]	; 0xfffffbff
    1f08:	c0000000 	andgt	r0, r0, r0
    1f0c:	bc00000c 	stclt	0, cr0, [r0], {12}
    1f10:	0c00000c 	stceq	0, cr0, [r0], {12}
    1f14:	0401006e 	streq	r0, [r1], #-110	; 0xffffff92
    1f18:	00002c26 	andeq	r2, r0, r6, lsr #24
    1f1c:	000ce500 	andeq	lr, ip, r0, lsl #10
    1f20:	000ce100 	andeq	lr, ip, r0, lsl #2
    1f24:	00700d00 	rsbseq	r0, r0, r0, lsl #26
    1f28:	3d0b0501 	cfstr32cc	mvfx0, [fp, #-4]
    1f2c:	14000001 	strne	r0, [r0], #-1
    1f30:	0600000d 	streq	r0, [r0], -sp
    1f34:	0d00000d 	stceq	0, cr0, [r0, #-52]	; 0xffffffcc
    1f38:	05010065 	streq	r0, [r1, #-101]	; 0xffffff9b
    1f3c:	00013d14 	andeq	r3, r1, r4, lsl sp
    1f40:	000d7100 	andeq	r7, sp, r0, lsl #2
    1f44:	000d6f00 	andeq	r6, sp, r0, lsl #30
    1f48:	040e0000 	streq	r0, [lr], #-0
    1f4c:	00ad0408 	adceq	r0, sp, r8, lsl #8
    1f50:	9d000000 	stcls	0, cr0, [r0, #-0]
    1f54:	04000001 	streq	r0, [r0], #-1
    1f58:	000b3d00 	andeq	r3, fp, r0, lsl #26
    1f5c:	32010400 	andcc	r0, r1, #0, 8
    1f60:	0c000001 	stceq	0, cr0, [r0], {1}
    1f64:	000005db 	ldrdeq	r0, [r0], -fp
    1f68:	00000596 	muleq	r0, r6, r5
    1f6c:	00008ca4 	andeq	r8, r0, r4, lsr #25
    1f70:	00000058 	andeq	r0, r0, r8, asr r0
    1f74:	00000ed9 	ldrdeq	r0, [r0], -r9
    1f78:	0005c702 	andeq	ip, r5, r2, lsl #14
    1f7c:	1b280200 	blne	a02784 <__bss_end__+0x9f77b4>
    1f80:	00000031 	andeq	r0, r0, r1, lsr r0
    1f84:	0005eb03 	andeq	lr, r5, r3, lsl #22
    1f88:	00040400 	andeq	r0, r4, r0, lsl #8
    1f8c:	00000048 	andeq	r0, r0, r8, asr #32
    1f90:	0005d604 	andeq	sp, r5, r4, lsl #12
    1f94:	00004800 	andeq	r4, r0, r0, lsl #16
    1f98:	05000000 	streq	r0, [r0, #-0]
    1f9c:	05ed0204 	strbeq	r0, [sp, #516]!	; 0x204
    1fa0:	63020000 	movwvs	r0, #8192	; 0x2000
    1fa4:	00002518 	andeq	r2, r0, r8, lsl r5
    1fa8:	05040600 	streq	r0, [r4, #-1536]	; 0xfffffa00
    1fac:	00746e69 	rsbseq	r6, r4, r9, ror #28
    1fb0:	cf070407 	svcgt	0x00070407
    1fb4:	07000000 	streq	r0, [r0, -r0]
    1fb8:	00720601 	rsbseq	r0, r2, r1, lsl #12
    1fbc:	02070000 	andeq	r0, r7, #0, 0
    1fc0:	00000005 	andeq	r0, r0, r5
    1fc4:	05040700 	streq	r0, [r4, #-1792]	; 0xfffff900
    1fc8:	00000033 	andeq	r0, r0, r3, lsr r0
    1fcc:	2e050807 	cdpcs	8, 0, cr0, cr5, cr7, {0}
    1fd0:	07000000 	streq	r0, [r0, -r0]
    1fd4:	00700801 	rsbseq	r0, r0, r1, lsl #16
    1fd8:	02070000 	andeq	r0, r7, #0, 0
    1fdc:	00010807 	andeq	r0, r1, r7, lsl #16
    1fe0:	07040700 	streq	r0, [r4, -r0, lsl #14]
    1fe4:	000000ca 	andeq	r0, r0, sl, asr #1
    1fe8:	c5070807 	strgt	r0, [r7, #-2055]	; 0xfffff7f9
    1fec:	08000000 	stmdaeq	r0, {}	; <UNPREDICTABLE>
    1ff0:	00000056 	andeq	r0, r0, r6, asr r0
    1ff4:	000000ab 	andeq	r0, r0, fp, lsr #1
    1ff8:	00005609 	andeq	r5, r0, r9, lsl #12
    1ffc:	0a0a0000 	beq	282004 <__bss_end__+0x277034>
    2000:	03000000 	movweq	r0, #0
    2004:	00b70e1c 	adcseq	r0, r7, ip, lsl lr
    2008:	040b0000 	streq	r0, [fp], #-0
    200c:	0000009c 	muleq	r0, ip, r0
    2010:	00005608 	andeq	r5, r0, r8, lsl #12
    2014:	0000cc00 	andeq	ip, r0, r0, lsl #24
    2018:	00cc0900 	sbceq	r0, ip, r0, lsl #18
    201c:	0b000000 	bleq	2024 <__code_start__-0x5fdc>
    2020:	0000d904 	andeq	sp, r0, r4, lsl #18
    2024:	08010700 	stmdaeq	r1, {r8, r9, sl}
    2028:	00000079 	andeq	r0, r0, r9, ror r0
    202c:	0000d20c 	andeq	sp, r0, ip, lsl #4
    2030:	05fe0a00 	ldrbeq	r0, [lr, #2560]!	; 0xa00
    2034:	21030000 	mrscs	r0, (UNDEF: 3)
    2038:	0000ea0e 	andeq	lr, r0, lr, lsl #20
    203c:	bd040b00 	vstrlt	d0, [r4, #-0]
    2040:	0d000000 	stceq	0, cr0, [r0, #-0]
    2044:	000005c0 	andeq	r0, r0, r0, asr #11
    2048:	56050601 	strpl	r0, [r5], -r1, lsl #12
    204c:	a4000000 	strge	r0, [r0], #-0
    2050:	5800008c 	stmdapl	r0, {r2, r3, r7}
    2054:	01000000 	mrseq	r0, (UNDEF: 0)
    2058:	0001839c 	muleq	r1, ip, r3
    205c:	6d660e00 	stclvs	14, cr0, [r6, #-0]
    2060:	06010074 			; <UNDEFINED> instruction: 0x06010074
    2064:	0000cc18 	andeq	ip, r0, r8, lsl ip
    2068:	70910200 	addsvc	r0, r1, r0, lsl #4
    206c:	7562100f 	strbvc	r1, [r2, #-15]!
    2070:	08010066 	stmdaeq	r1, {r1, r2, r5, r6}
    2074:	00018311 	andeq	r8, r1, r1, lsl r3
    2078:	cc030500 	cfstr32gt	mvfx0, [r3], {-0}
    207c:	110000ab 	smlatbne	r0, fp, r0, r0
    2080:	000005b8 			; <UNDEFINED> instruction: 0x000005b8
    2084:	4a0d0901 	bmi	344490 <__bss_end__+0x3394c0>
    2088:	02000000 	andeq	r0, r0, #0, 0
    208c:	73125c91 	tstvc	r2, #37120	; 0x9100
    2090:	0c01007a 	stceq	0, cr0, [r1], {122}	; 0x7a
    2094:	0000560d 	andeq	r5, r0, sp, lsl #12
    2098:	000d8a00 	andeq	r8, sp, r0, lsl #20
    209c:	000d8400 	andeq	r8, sp, r0, lsl #8
    20a0:	8ccc1300 	stclhi	3, cr1, [ip], {0}
    20a4:	01940000 	orrseq	r0, r4, r0
    20a8:	01760000 	cmneq	r6, r0
    20ac:	01140000 	tsteq	r4, r0
    20b0:	00750250 	rsbseq	r0, r5, r0, asr r2
    20b4:	03510114 	cmpeq	r1, #5
    20b8:	1404000a 	strne	r0, [r4], #-10
    20bc:	91035201 	tstls	r3, r1, lsl #4
    20c0:	01140648 	tsteq	r4, r8, asr #12
    20c4:	4c910253 	lfmmi	f0, 4, [r1], {83}	; 0x53
    20c8:	8ce01500 	cfstr64hi	mvdx1, [r0]
    20cc:	01140000 	tsteq	r4, r0
    20d0:	00750250 	rsbseq	r0, r5, r0, asr r2
    20d4:	d2160000 	andsle	r0, r6, #0, 0
    20d8:	94000000 	strls	r0, [r0], #-0
    20dc:	17000001 	strne	r0, [r0, -r1]
    20e0:	0000005d 	andeq	r0, r0, sp, asr r0
    20e4:	180003ff 	stmdane	r0, {r0, r1, r2, r3, r4, r5, r6, r7, r8, r9}
    20e8:	000005bd 			; <UNDEFINED> instruction: 0x000005bd
    20ec:	000005bd 			; <UNDEFINED> instruction: 0x000005bd
    20f0:	00050205 	andeq	r0, r5, r5, lsl #4
    20f4:	000000f3 	strdeq	r0, [r0], -r3
    20f8:	0c7f0004 	ldcleq	0, cr0, [pc], #-16	; 20f0 <__code_start__-0x5f10>
    20fc:	01040000 	mrseq	r0, (UNDEF: 4)
    2100:	00000132 	andeq	r0, r0, r2, lsr r1
    2104:	0006030c 	andeq	r0, r6, ip, lsl #6
    2108:	00059600 	andeq	r9, r5, r0, lsl #12
    210c:	008cfc00 	addeq	pc, ip, r0, lsl #24
    2110:	00003800 	andeq	r3, r0, r0, lsl #16
    2114:	000ffd00 	andeq	pc, pc, r0, lsl #26
    2118:	05040200 	streq	r0, [r4, #-512]	; 0xfffffe00
    211c:	00746e69 	rsbseq	r6, r4, r9, ror #28
    2120:	cf070403 	svcgt	0x00070403
    2124:	03000000 	movweq	r0, #0
    2128:	00720601 	rsbseq	r0, r2, r1, lsl #12
    212c:	02030000 	andeq	r0, r3, #0, 0
    2130:	00000005 	andeq	r0, r0, r5
    2134:	05040300 	streq	r0, [r4, #-768]	; 0xfffffd00
    2138:	00000033 	andeq	r0, r0, r3, lsr r0
    213c:	2e050803 	cdpcs	8, 0, cr0, cr5, cr3, {0}
    2140:	03000000 	movweq	r0, #0
    2144:	00700801 	rsbseq	r0, r0, r1, lsl #16
    2148:	02030000 	andeq	r0, r3, #0, 0
    214c:	00010807 	andeq	r0, r1, r7, lsl #16
    2150:	07040300 	streq	r0, [r4, -r0, lsl #6]
    2154:	000000ca 	andeq	r0, r0, sl, asr #1
    2158:	c5070803 	strgt	r0, [r7, #-2051]	; 0xfffff7fd
    215c:	04000000 	streq	r0, [r0], #-0
    2160:	00000025 	andeq	r0, r0, r5, lsr #32
    2164:	0000007a 	andeq	r0, r0, sl, ror r0
    2168:	00002505 	andeq	r2, r0, r5, lsl #10
    216c:	0a060000 	beq	182174 <__bss_end__+0x1771a4>
    2170:	02000000 	andeq	r0, r0, #0, 0
    2174:	00860e1c 	addeq	r0, r6, ip, lsl lr
    2178:	04070000 	streq	r0, [r7], #-0
    217c:	0000006b 	andeq	r0, r0, fp, rrx
    2180:	00002504 	andeq	r2, r0, r4, lsl #10
    2184:	00009b00 	andeq	r9, r0, r0, lsl #22
    2188:	009b0500 	addseq	r0, fp, r0, lsl #10
    218c:	07000000 	streq	r0, [r0, -r0]
    2190:	0000a804 	andeq	sl, r0, r4, lsl #16
    2194:	08010300 	stmdaeq	r1, {r8, r9}
    2198:	00000079 	andeq	r0, r0, r9, ror r0
    219c:	0000a108 	andeq	sl, r0, r8, lsl #2
    21a0:	05fe0600 	ldrbeq	r0, [lr, #1536]!	; 0x600
    21a4:	21020000 	mrscs	r0, (UNDEF: 2)
    21a8:	0000b90e 	andeq	fp, r0, lr, lsl #18
    21ac:	8c040700 	stchi	7, cr0, [r4], {-0}
    21b0:	09000000 	stmdbeq	r0, {}	; <UNPREDICTABLE>
    21b4:	000000ad 	andeq	r0, r0, sp, lsr #1
    21b8:	05070c01 	streq	r0, [r7, #-3073]	; 0xfffff3ff
    21bc:	00ab9003 	adceq	r9, fp, r3
    21c0:	05f50a00 	ldrbeq	r0, [r5, #2560]!	; 0xa00
    21c4:	04010000 	streq	r0, [r1], #-0
    21c8:	00002505 	andeq	r2, r0, r5, lsl #10
    21cc:	008cfc00 	addeq	pc, ip, r0, lsl #24
    21d0:	00003800 	andeq	r3, r0, r0, lsl #16
    21d4:	0b9c0100 	bleq	fe7025dc <__bss_end__+0xfe6f760c>
    21d8:	04010070 	streq	r0, [r1], #-112	; 0xffffff90
    21dc:	00009b1f 	andeq	r9, r0, pc, lsl fp
    21e0:	000dbb00 	andeq	fp, sp, r0, lsl #22
    21e4:	000db300 	andeq	fp, sp, r0, lsl #6
    21e8:	7f000000 	svcvc	0x00000000
    21ec:	0400000c 	streq	r0, [r0], #-12
    21f0:	000d1d00 	andeq	r1, sp, r0, lsl #26
    21f4:	32010400 	andcc	r0, r1, #0, 8
    21f8:	0c000001 	stceq	0, cr0, [r0], {1}
    21fc:	00000622 	andeq	r0, r0, r2, lsr #12
    2200:	00000596 	muleq	r0, r6, r5
    2204:	00008d34 	andeq	r8, r0, r4, lsr sp
    2208:	000009b4 			; <UNDEFINED> instruction: 0x000009b4
    220c:	000010a1 	andeq	r1, r0, r1, lsr #1
    2210:	c5070802 	strgt	r0, [r7, #-2050]	; 0xfffff7fe
    2214:	02000000 	andeq	r0, r0, #0, 0
    2218:	00cf0704 	sbceq	r0, pc, r4, lsl #14
    221c:	04030000 	streq	r0, [r3], #-0
    2220:	746e6905 	strbtvc	r6, [lr], #-2309	; 0xfffff6fb
    2224:	06010200 	streq	r0, [r1], -r0, lsl #4
    2228:	00000072 	andeq	r0, r0, r2, ror r0
    222c:	00050202 	andeq	r0, r5, r2, lsl #4
    2230:	02000000 	andeq	r0, r0, #0, 0
    2234:	00330504 	eorseq	r0, r3, r4, lsl #10
    2238:	08020000 	stmdaeq	r2, {}	; <UNPREDICTABLE>
    223c:	00002e05 	andeq	r2, r0, r5, lsl #28
    2240:	08010200 	stmdaeq	r1, {r9}
    2244:	00000070 	andeq	r0, r0, r0, ror r0
    2248:	08070202 	stmdaeq	r7, {r1, r9}
    224c:	04000001 	streq	r0, [r0], #-1
    2250:	000000dc 	ldrdeq	r0, [r0], -ip
    2254:	70193402 	andsvc	r3, r9, r2, lsl #8
    2258:	02000000 	andeq	r0, r0, #0, 0
    225c:	00ca0704 	sbceq	r0, sl, r4, lsl #14
    2260:	19040000 	stmdbne	r4, {}	; <UNPREDICTABLE>
    2264:	02000006 	andeq	r0, r0, #6, 0
    2268:	00251937 	eoreq	r1, r5, r7, lsr r9
    226c:	33050000 	movwcc	r0, #20480	; 0x5000
    2270:	92000000 	andls	r0, r0, #0, 0
    2274:	06000000 	streq	r0, [r0], -r0
    2278:	00000033 	andeq	r0, r0, r3, lsr r0
    227c:	000a0700 	andeq	r0, sl, r0, lsl #14
    2280:	1c030000 	stcne	0, cr0, [r3], {-0}
    2284:	00009e0e 	andeq	r9, r0, lr, lsl #28
    2288:	83040800 	movwhi	r0, #18432	; 0x4800
    228c:	05000000 	streq	r0, [r0, #-0]
    2290:	00000033 	andeq	r0, r0, r3, lsr r0
    2294:	000000b3 	strheq	r0, [r0], -r3
    2298:	0000b306 	andeq	fp, r0, r6, lsl #6
    229c:	04080000 	streq	r0, [r8], #-0
    22a0:	000000c0 	andeq	r0, r0, r0, asr #1
    22a4:	79080102 	stmdbvc	r8, {r1, r8}
    22a8:	09000000 	stmdbeq	r0, {}	; <UNPREDICTABLE>
    22ac:	000000b9 	strheq	r0, [r0], -r9
    22b0:	0005fe07 	andeq	pc, r5, r7, lsl #28
    22b4:	0e210300 	cdpeq	3, 2, cr0, cr1, cr0, {0}
    22b8:	000000d1 	ldrdeq	r0, [r0], -r1
    22bc:	00a40408 	adceq	r0, r4, r8, lsl #8
    22c0:	35070000 	strcc	r0, [r7, #-0]
    22c4:	04000006 	streq	r0, [r0], #-6
    22c8:	00b90d0b 	adcseq	r0, r9, fp, lsl #26
    22cc:	8e070000 	cdphi	0, 0, cr0, cr7, cr0, {0}
    22d0:	04000006 	streq	r0, [r0], #-6
    22d4:	00b90d0c 	adcseq	r0, r9, ip, lsl #26
    22d8:	81070000 	mrshi	r0, (UNDEF: 7)
    22dc:	04000004 	streq	r0, [r0], #-4
    22e0:	00b90d0d 	adcseq	r0, r9, sp, lsl #26
    22e4:	1b070000 	blne	1c22ec <__bss_end__+0x1b731c>
    22e8:	04000005 	streq	r0, [r0], #-5
    22ec:	00b90d0e 	adcseq	r0, r9, lr, lsl #26
    22f0:	51070000 	mrspl	r0, (UNDEF: 7)
    22f4:	04000005 	streq	r0, [r0], #-5
    22f8:	00b90d0f 	adcseq	r0, r9, pc, lsl #26
    22fc:	ea070000 	b	1c2304 <__bss_end__+0x1b7334>
    2300:	04000004 	streq	r0, [r0], #-4
    2304:	00b90d10 	adcseq	r0, r9, r0, lsl sp
    2308:	b7070000 	strlt	r0, [r7, -r0]
    230c:	04000006 	streq	r0, [r0], #-6
    2310:	00b90d11 	adcseq	r0, r9, r1, lsl sp
    2314:	52070000 	andpl	r0, r7, #0, 0
    2318:	04000006 	streq	r0, [r0], #-6
    231c:	00b90d12 	adcseq	r0, r9, r2, lsl sp
    2320:	c7040000 	strgt	r0, [r4, -r0]
    2324:	05000005 	streq	r0, [r0, #-5]
    2328:	01431b28 	cmpeq	r3, r8, lsr #22
    232c:	eb0a0000 	bl	282334 <__bss_end__+0x277364>
    2330:	04000005 	streq	r0, [r0], #-5
    2334:	015a0006 	cmpeq	sl, r6
    2338:	d60b0000 	strle	r0, [fp], -r0
    233c:	5a000005 	bpl	2358 <__code_start__-0x5ca8>
    2340:	00000001 	andeq	r0, r0, r1
    2344:	04040c00 	streq	r0, [r4], #-3072	; 0xfffff400
    2348:	000005ed 	andeq	r0, r0, sp, ror #11
    234c:	37186305 	ldrcc	r6, [r8, -r5, lsl #6]
    2350:	0d000001 	stceq	0, cr0, [r0, #-4]
    2354:	000005bd 			; <UNDEFINED> instruction: 0x000005bd
    2358:	33058101 	movwcc	r8, #20737	; 0x5101
    235c:	bc000000 	stclt	0, cr0, [r0], {-0}
    2360:	2c000090 	stccs	0, cr0, [r0], {144}	; 0x90
    2364:	01000006 	tsteq	r0, r6
    2368:	00086a9c 	muleq	r8, ip, sl
    236c:	75620e00 	strbvc	r0, [r2, #-3584]!	; 0xfffff200
    2370:	81010066 	tsthi	r1, r6, rrx
    2374:	00086a15 	andeq	r6, r8, r5, lsl sl
    2378:	000dfb00 	andeq	pc, sp, r0, lsl #22
    237c:	000df100 	andeq	pc, sp, r0, lsl #2
    2380:	006e0e00 	rsbeq	r0, lr, r0, lsl #28
    2384:	331e8101 	tstcc	lr, #1073741824	; 0x40000000
    2388:	48000000 	stmdami	r0, {}	; <UNPREDICTABLE>
    238c:	4000000e 	andmi	r0, r0, lr
    2390:	0e00000e 	cdpeq	0, 0, cr0, cr0, cr14, {0}
    2394:	00746d66 	rsbseq	r6, r4, r6, ror #26
    2398:	b32d8101 			; <UNDEFINED> instruction: 0xb32d8101
    239c:	9a000000 	bls	23a4 <__code_start__-0x5c5c>
    23a0:	8200000e 	andhi	r0, r0, #14, 0
    23a4:	0f00000e 	svceq	0x0000000e
    23a8:	000005b8 			; <UNDEFINED> instruction: 0x000005b8
    23ac:	5c3a8101 	ldfpld	f0, [sl], #-4
    23b0:	5c000001 	stcpl	0, cr0, [r0], {1}
    23b4:	2e00000f 	cdpcs	0, 0, cr0, cr0, cr15, {0}
    23b8:	1000000f 	andne	r0, r0, pc
    23bc:	82010070 	andhi	r0, r1, #112, 0	; 0x70
    23c0:	00086a08 	andeq	r6, r8, r8, lsl #20
    23c4:	0010af00 	andseq	sl, r0, r0, lsl #30
    23c8:	00109900 	andseq	r9, r0, r0, lsl #18
    23cc:	00651000 	rsbeq	r1, r5, r0
    23d0:	6a128201 	bvs	4a2bdc <__bss_end__+0x497c0c>
    23d4:	38000008 	stmdacc	r0, {r3}
    23d8:	36000011 			; <UNDEFINED> instruction: 0x36000011
    23dc:	10000011 	andne	r0, r0, r1, lsl r0
    23e0:	01003078 	tsteq	r0, r8, ror r0
    23e4:	00640e83 	rsbeq	r0, r4, r3, lsl #29
    23e8:	11510000 	cmpne	r1, r0
    23ec:	114b0000 	mrsne	r0, (UNDEF: 75)
    23f0:	78100000 	ldmdavc	r0, {}	; <UNPREDICTABLE>
    23f4:	83010031 	movwhi	r0, #4145	; 0x1031
    23f8:	00006411 	andeq	r6, r0, r1, lsl r4
    23fc:	00118000 	andseq	r8, r1, r0
    2400:	00117a00 	andseq	r7, r1, r0, lsl #20
    2404:	06701100 	ldrbteq	r1, [r0], -r0, lsl #2
    2408:	86010000 	strhi	r0, [r1], -r0
    240c:	0000b311 	andeq	fp, r0, r1, lsl r3
    2410:	0011b100 	andseq	fp, r1, r0, lsl #2
    2414:	0011a900 	andseq	sl, r1, r0, lsl #18
    2418:	00491200 	subeq	r1, r9, r0, lsl #4
    241c:	08800000 	stmeq	r0, {}	; <UNPREDICTABLE>
    2420:	03050000 	movweq	r0, #20480	; 0x5000
    2424:	0000a97c 	andeq	sl, r0, ip, ror r9
    2428:	00025813 	andeq	r5, r2, r3, lsl r8
    242c:	00731000 	rsbseq	r1, r3, r0
    2430:	6a0a9101 	bvs	2a683c <__bss_end__+0x29b86c>
    2434:	f7000008 			; <UNDEFINED> instruction: 0xf7000008
    2438:	eb000011 	bl	2484 <__code_start__-0x5b7c>
    243c:	14000011 	strne	r0, [r0], #-17	; 0xffffffef
    2440:	006d756e 	rsbeq	r7, sp, lr, ror #10
    2444:	850d9101 	strhi	r9, [sp, #-257]	; 0xfffffeff
    2448:	03000008 	movweq	r0, #8
    244c:	157dd891 	ldrbne	sp, [sp, #-2193]!	; 0xfffff76f
    2450:	000006c4 	andeq	r0, r0, r4, asr #13
    2454:	85179101 	ldrhi	r9, [r7, #-257]	; 0xfffffeff
    2458:	03000008 	movweq	r0, #8
    245c:	117ed891 			; <UNDEFINED> instruction: 0x117ed891
    2460:	00000644 	andeq	r0, r0, r4, asr #12
    2464:	2c0d9201 	sfmcs	f1, 1, [sp], {1}
    2468:	49000000 	stmdbmi	r0, {}	; <UNPREDICTABLE>
    246c:	41000012 	tstmi	r0, r2, lsl r0
    2470:	16000012 			; <UNDEFINED> instruction: 0x16000012
    2474:	00000280 	andeq	r0, r0, r0, lsl #5
    2478:	000004f1 	strdeq	r0, [r0], -r1
    247c:	00797410 	rsbseq	r7, r9, r0, lsl r4
    2480:	b31d9e01 	tstlt	sp, #1, 28
    2484:	8a000000 	bhi	248c <__code_start__-0x5b74>
    2488:	7e000012 	mcrvc	0, 0, r0, cr0, cr2, {0}
    248c:	14000012 	strne	r0, [r0], #-18	; 0xffffffee
    2490:	01007878 	tsteq	r0, r8, ror r8
    2494:	00771aa2 	rsbseq	r1, r7, r2, lsr #21
    2498:	59060000 	stmdbpl	r6, {}	; <UNPREDICTABLE>
    249c:	935b0493 	cmpls	fp, #-1828716544	; 0x93000000
    24a0:	92481704 	subls	r1, r8, #4, 14	; 0x100000
    24a4:	0c3a0000 	ldceq	0, cr0, [sl], #-0
    24a8:	02d80000 	sbcseq	r0, r8, #0, 0
    24ac:	01180000 	tsteq	r8, r0
    24b0:	00760250 	rsbseq	r0, r6, r0, asr r2
    24b4:	05510118 	ldrbeq	r0, [r1, #-280]	; 0xfffffee8
    24b8:	00a87003 	adceq	r7, r8, r3
    24bc:	52011800 	andpl	r1, r1, #0, 16
    24c0:	17003301 	strne	r3, [r0, -r1, lsl #6]
    24c4:	00009260 	andeq	r9, r0, r0, ror #4
    24c8:	00000c3a 	andeq	r0, r0, sl, lsr ip
    24cc:	000002fa 	strdeq	r0, [r0], -sl
    24d0:	02500118 	subseq	r0, r0, #6
    24d4:	01180076 	tsteq	r8, r6, ror r0
    24d8:	84030551 	strhi	r0, [r3], #-1361	; 0xfffffaaf
    24dc:	180000a8 	stmdane	r0, {r3, r5, r7}
    24e0:	33015201 	movwcc	r5, #4609	; 0x1201
    24e4:	92841700 	addls	r1, r4, #0, 14
    24e8:	0c460000 	mareq	acc0, r0, r6
    24ec:	03170000 	tsteq	r7, #0, 0
    24f0:	01180000 	tsteq	r8, r0
    24f4:	74030550 	strvc	r0, [r3], #-1360	; 0xfffffab0
    24f8:	180000a8 	stmdane	r0, {r3, r5, r7}
    24fc:	7b025101 	blvc	96908 <__bss_end__+0x8b938>
    2500:	90170000 	andsls	r0, r7, r0
    2504:	46000092 			; <UNDEFINED> instruction: 0x46000092
    2508:	3400000c 	strcc	r0, [r0], #-12
    250c:	18000003 	stmdane	r0, {r0, r1}
    2510:	03055001 	movweq	r5, #20481	; 0x5001
    2514:	0000a87c 	andeq	sl, r0, ip, ror r8
    2518:	02510118 	subseq	r0, r1, #6
    251c:	17000079 	smlsdxne	r0, r9, r0, r0
    2520:	000092a0 	andeq	r9, r0, r0, lsr #5
    2524:	00000c3a 	andeq	r0, r0, sl, lsr ip
    2528:	00000356 	andeq	r0, r0, r6, asr r3
    252c:	02500118 	subseq	r0, r0, #6
    2530:	01180076 	tsteq	r8, r6, ror r0
    2534:	70030551 	andvc	r0, r3, r1, asr r5
    2538:	180000a8 	stmdane	r0, {r3, r5, r7}
    253c:	33015201 	movwcc	r5, #4609	; 0x1201
    2540:	92d01700 	sbcsls	r1, r0, #0, 14
    2544:	0aa40000 	beq	fe90254c <__bss_end__+0xfe8f757c>
    2548:	03830000 	orreq	r0, r3, #0, 0
    254c:	01180000 	tsteq	r8, r0
    2550:	18400150 	stmdane	r0, {r4, r6, r8}^
    2554:	91035101 	tstls	r3, r1, lsl #2
    2558:	01187dd0 			; <UNDEFINED> instruction: 0x01187dd0
    255c:	007b0252 	rsbseq	r0, fp, r2, asr r2
    2560:	02530118 	subseq	r0, r3, #6
    2564:	02180075 	andseq	r0, r8, #117, 0	; 0x75
    2568:	7602007d 			; <UNDEFINED> instruction: 0x7602007d
    256c:	f0170000 			; <UNDEFINED> instruction: 0xf0170000
    2570:	a4000092 	strge	r0, [r0], #-146	; 0xffffff6e
    2574:	aa00000a 	bge	25a4 <__code_start__-0x5a5c>
    2578:	18000003 	stmdane	r0, {r0, r1}
    257c:	40015001 	andmi	r5, r1, r1
    2580:	03510118 	cmpeq	r1, #6
    2584:	187ed091 	ldmdane	lr!, {r0, r4, r7, ip, lr, pc}^
    2588:	79025201 	stmdbvc	r2, {r0, r9, ip, lr}
    258c:	7d021800 	stcvc	8, cr1, [r2, #-0]
    2590:	00760200 	rsbseq	r0, r6, r0, lsl #4
    2594:	93001700 	movwls	r1, #1792	; 0x700
    2598:	0c520000 	mraeq	r0, r2, acc0
    259c:	03c60000 	biceq	r0, r6, #0, 0
    25a0:	01180000 	tsteq	r8, r0
    25a4:	d0910350 	addsle	r0, r1, r0, asr r3
    25a8:	5101187d 	tstpl	r1, sp, ror r8
    25ac:	7ed29103 	atnvcs	f1, f3
    25b0:	95441700 	strbls	r1, [r4, #-1792]	; 0xfffff900
    25b4:	0c3a0000 	ldceq	0, cr0, [sl], #-0
    25b8:	03e80000 	mvneq	r0, #0, 0
    25bc:	01180000 	tsteq	r8, r0
    25c0:	00760250 	rsbseq	r0, r6, r0, asr r2
    25c4:	05510118 	ldrbeq	r0, [r1, #-280]	; 0xfffffee8
    25c8:	00a88403 	adceq	r8, r8, r3, lsl #8
    25cc:	52011800 	andpl	r1, r1, #0, 16
    25d0:	17003301 	strne	r3, [r0, -r1, lsl #6]
    25d4:	00009568 	andeq	r9, r0, r8, ror #10
    25d8:	00000aa4 	andeq	r0, r0, r4, lsr #21
    25dc:	00000415 	andeq	r0, r0, r5, lsl r4
    25e0:	01500118 	cmpeq	r0, r8, lsl r1
    25e4:	5101183a 	tstpl	r1, sl, lsr r8
    25e8:	7dd09103 	ldfvcp	f1, [r0, #12]
    25ec:	02520118 	subseq	r0, r2, #6
    25f0:	0118007b 	tsteq	r8, fp, ror r0
    25f4:	00750253 	rsbseq	r0, r5, r3, asr r2
    25f8:	007d0218 	rsbseq	r0, sp, r8, lsl r2
    25fc:	00007602 	andeq	r7, r0, r2, lsl #12
    2600:	00958817 	addseq	r8, r5, r7, lsl r8
    2604:	000aa400 	andeq	sl, sl, r0, lsl #8
    2608:	00043c00 	andeq	r3, r4, r0, lsl #24
    260c:	50011800 	andpl	r1, r1, r0, lsl #16
    2610:	01183a01 	tsteq	r8, r1, lsl #20
    2614:	d0910351 	addsle	r0, r1, r1, asr r3
    2618:	5201187e 	andpl	r1, r1, #8257536	; 0x7e0000
    261c:	18007902 	stmdane	r0, {r1, r8, fp, ip, sp, lr}
    2620:	02007d02 	andeq	r7, r0, #128	; 0x80
    2624:	17000076 	smlsdxne	r0, r6, r0, r0
    2628:	00009594 	muleq	r0, r4, r5
    262c:	00000c5e 	andeq	r0, r0, lr, asr ip
    2630:	0000045a 	andeq	r0, r0, sl, asr r4
    2634:	03500118 	cmpeq	r0, #6
    2638:	187dd091 	ldmdane	sp!, {r0, r4, r7, ip, lr, pc}^
    263c:	03055101 	movweq	r5, #20737	; 0x5101
    2640:	0000a694 	muleq	r0, r4, r6
    2644:	95a81700 	strls	r1, [r8, #1792]!	; 0x700
    2648:	0c6a0000 	stcleq	0, cr0, [sl], #-0
    264c:	04760000 	ldrbteq	r0, [r6], #-0
    2650:	01180000 	tsteq	r8, r0
    2654:	d0910350 	addsle	r0, r1, r0, asr r3
    2658:	5101187d 	tstpl	r1, sp, ror r8
    265c:	7ed09103 	atnvcs	f1, f3
    2660:	95b41900 	ldrls	r1, [r4, #2304]!	; 0x900
    2664:	0c520000 	mraeq	r0, r2, acc0
    2668:	78170000 	ldmdavc	r7, {}	; <UNPREDICTABLE>
    266c:	46000096 			; <UNDEFINED> instruction: 0x46000096
    2670:	a800000c 	stmdage	r0, {r2, r3}
    2674:	18000004 	stmdane	r0, {r2}
    2678:	03055001 	movweq	r5, #20481	; 0x5001
    267c:	0000a354 	andeq	sl, r0, r4, asr r3
    2680:	05510118 	ldrbeq	r0, [r1, #-280]	; 0xfffffee8
    2684:	00a82403 	adceq	r2, r8, r3, lsl #8
    2688:	52011800 	andpl	r1, r1, #0, 16
    268c:	a97c0305 	ldmdbge	ip!, {r0, r2, r8, r9}^
    2690:	19000000 	stmdbne	r0, {}	; <UNPREDICTABLE>
    2694:	0000967c 	andeq	r9, r0, ip, ror r6
    2698:	00000c76 	andeq	r0, r0, r6, ror ip
    269c:	00969417 	addseq	r9, r6, r7, lsl r4
    26a0:	000c4600 	andeq	r4, ip, r0, lsl #12
    26a4:	0004e700 	andeq	lr, r4, r0, lsl #14
    26a8:	50011800 	andpl	r1, r1, r0, lsl #16
    26ac:	a8c40305 	stmiage	r4, {r0, r2, r8, r9}^
    26b0:	01180000 	tsteq	r8, r0
    26b4:	24030551 	strcs	r0, [r3], #-1361	; 0xfffffaaf
    26b8:	180000a8 	stmdane	r0, {r3, r5, r7}
    26bc:	03055201 	movweq	r5, #20993	; 0x5201
    26c0:	0000a97c 	andeq	sl, r0, ip, ror r9
    26c4:	02530118 	subseq	r0, r3, #6
    26c8:	0218b608 	andseq	fp, r8, #8, 12	; 0x800000
    26cc:	7602007d 			; <UNDEFINED> instruction: 0x7602007d
    26d0:	98190000 	ldmdals	r9, {}	; <UNPREDICTABLE>
    26d4:	76000096 			; <UNDEFINED> instruction: 0x76000096
    26d8:	0000000c 	andeq	r0, r0, ip
    26dc:	0009e31a 	andeq	lr, r9, sl, lsl r3
    26e0:	00914800 	addseq	r4, r1, r0, lsl #16
    26e4:	a8000400 	stmdage	r0, {sl}
    26e8:	01000002 	tsteq	r0, r2
    26ec:	05150a94 	ldreq	r0, [r5, #-2708]	; 0xfffff56c
    26f0:	f41b0000 			; <UNDEFINED> instruction: 0xf41b0000
    26f4:	e6000009 	str	r0, [r0], -r9
    26f8:	e2000012 	and	r0, r0, #18, 0
    26fc:	00000012 	andeq	r0, r0, r2, lsl r0
    2700:	0008951a 	andeq	r9, r8, sl, lsl r5
    2704:	00933000 	addseq	r3, r3, r0
    2708:	c8000100 	stmdagt	r0, {r8}
    270c:	01000002 	tsteq	r0, r2
    2710:	064b09dc 			; <UNDEFINED> instruction: 0x064b09dc
    2714:	be1b0000 	cdplt	0, 1, cr0, cr11, cr0, {0}
    2718:	14000008 	strne	r0, [r0], #-8
    271c:	0e000013 	mcreq	0, 0, r0, cr0, cr3, {0}
    2720:	1b000013 	blne	2774 <__code_start__-0x588c>
    2724:	000008e0 	andeq	r0, r0, r0, ror #17
    2728:	00001349 	andeq	r1, r0, r9, asr #6
    272c:	00001343 	andeq	r1, r0, r3, asr #6
    2730:	0008d41b 	andeq	sp, r8, fp, lsl r4
    2734:	00137b00 	andseq	r7, r3, r0, lsl #22
    2738:	00137500 	andseq	r7, r3, r0, lsl #10
    273c:	08c81c00 	stmiaeq	r8, {sl, fp, ip}^
    2740:	b21b0000 	andslt	r0, fp, #0, 0
    2744:	ac000008 	stcge	0, cr0, [r0], {8}
    2748:	a4000013 	strge	r0, [r0], #-19	; 0xffffffed
    274c:	1b000013 	blne	27a0 <__code_start__-0x5860>
    2750:	000008a6 	andeq	r0, r0, r6, lsr #17
    2754:	000013ef 	andeq	r1, r0, pc, ror #7
    2758:	000013e9 	andeq	r1, r0, r9, ror #7
    275c:	0002c813 	andeq	ip, r2, r3, lsl r8
    2760:	08ec1d00 	stmiaeq	ip!, {r8, sl, fp, ip}^
    2764:	91030000 	mrsls	r0, (UNDEF: 3)
    2768:	f81e7ed8 			; <UNDEFINED> instruction: 0xf81e7ed8
    276c:	29000008 	stmdbcs	r0, {r3}
    2770:	1b000014 	blne	27c8 <__code_start__-0x5838>
    2774:	1f000014 	svcne	0x00000014
    2778:	00000902 	andeq	r0, r0, r2, lsl #18
    277c:	0009a31a 	andeq	sl, r9, sl, lsl r3
    2780:	00933c00 	addseq	r3, r3, r0, lsl #24
    2784:	f8000400 			; <UNDEFINED> instruction: 0xf8000400
    2788:	01000002 	tsteq	r0, r2
    278c:	05e2097c 	strbeq	r0, [r2, #2428]!	; 0x97c
    2790:	ca1b0000 	bgt	6c2798 <__bss_end__+0x6b77c8>
    2794:	93000009 	movwls	r0, #9
    2798:	8d000014 	stchi	0, cr0, [r0, #-80]	; 0xffffffb0
    279c:	1b000014 	blne	27f4 <__code_start__-0x580c>
    27a0:	000009be 			; <UNDEFINED> instruction: 0x000009be
    27a4:	000014c8 	andeq	r1, r0, r8, asr #9
    27a8:	000014bc 			; <UNDEFINED> instruction: 0x000014bc
    27ac:	0009b41b 	andeq	fp, r9, fp, lsl r4
    27b0:	00152e00 	andseq	r2, r5, r0, lsl #28
    27b4:	00151e00 	andseq	r1, r5, r0, lsl #28
    27b8:	02f81300 	rscseq	r1, r8, #0, 6
    27bc:	d61e0000 	ldrle	r0, [lr], -r0
    27c0:	ab000009 	blge	27ec <__code_start__-0x5814>
    27c4:	9d000015 	stcls	0, cr0, [r0, #-84]	; 0xffffffac
    27c8:	00000015 	andeq	r0, r0, r5, lsl r0
    27cc:	094f2000 	stmdbeq	pc, {sp}^	; <UNPREDICTABLE>
    27d0:	94040000 	strls	r0, [r4], #-0
    27d4:	00020000 	andeq	r0, r2, r0
    27d8:	00000328 	andeq	r0, r0, r8, lsr #6
    27dc:	1b097c01 	blne	2617e8 <__bss_end__+0x256818>
    27e0:	00000980 	andeq	r0, r0, r0, lsl #19
    27e4:	0000160b 	andeq	r1, r0, fp, lsl #12
    27e8:	00001605 	andeq	r1, r0, r5, lsl #12
    27ec:	0009761b 	andeq	r7, r9, fp, lsl r6
    27f0:	00164100 	andseq	r4, r6, r0, lsl #2
    27f4:	00163700 	andseq	r3, r6, r0, lsl #14
    27f8:	096c1b00 	stmdbeq	ip!, {r8, r9, fp, ip}^
    27fc:	16900000 	ldrne	r0, [r0], r0
    2800:	168c0000 	strne	r0, [ip], r0
    2804:	601b0000 	andsvs	r0, fp, r0
    2808:	c0000009 	andgt	r0, r0, r9
    280c:	b2000016 	andlt	r0, r0, #22, 0
    2810:	13000016 	movwne	r0, #22
    2814:	00000328 	andeq	r0, r0, r8, lsr #6
    2818:	00098c1e 	andeq	r8, r9, lr, lsl ip
    281c:	00172500 	andseq	r2, r7, r0, lsl #10
    2820:	00172300 	andseq	r2, r7, r0, lsl #6
    2824:	09981e00 	ldmibeq	r8, {r9, sl, fp, ip}
    2828:	173f0000 	ldrne	r0, [pc, -r0]!
    282c:	17390000 	ldrne	r0, [r9, -r0]!
    2830:	00000000 	andeq	r0, r0, r0
    2834:	951a0000 	ldrls	r0, [sl, #-0]
    2838:	40000008 	andmi	r0, r0, r8
    283c:	00000094 	muleq	r0, r4, r0
    2840:	00035800 	andeq	r5, r3, r0, lsl #16
    2844:	09d60100 	ldmibeq	r6, {r8}^
    2848:	00000789 	andeq	r0, r0, r9, lsl #15
    284c:	0008be1b 	andeq	fp, r8, fp, lsl lr
    2850:	00177200 	andseq	r7, r7, r0, lsl #4
    2854:	00176e00 	andseq	r6, r7, r0, lsl #28
    2858:	08e01b00 	stmiaeq	r0!, {r8, r9, fp, ip}^
    285c:	17980000 	ldrne	r0, [r8, r0]
    2860:	17940000 	ldrne	r0, [r4, r0]
    2864:	d41b0000 	ldrle	r0, [fp], #-0
    2868:	bc000008 	stclt	0, cr0, [r0], {8}
    286c:	b8000017 	stmdalt	r0, {r0, r1, r2, r4}
    2870:	1c000017 	stcne	0, cr0, [r0], {23}
    2874:	000008c8 	andeq	r0, r0, r8, asr #17
    2878:	0008b21b 	andeq	fp, r8, fp, lsl r2
    287c:	0017e000 	andseq	lr, r7, r0
    2880:	0017da00 	andseq	sp, r7, r0, lsl #20
    2884:	08a61b00 	stmiaeq	r6!, {r8, r9, fp, ip}
    2888:	18130000 	ldmdane	r3, {}	; <UNPREDICTABLE>
    288c:	180f0000 	stmdane	pc, {}	; <UNPREDICTABLE>
    2890:	58130000 	ldmdapl	r3, {}	; <UNPREDICTABLE>
    2894:	1d000003 	stcne	0, cr0, [r0, #-12]
    2898:	000008ec 	andeq	r0, r0, ip, ror #17
    289c:	7ed89103 	atnvce	f1, f3
    28a0:	0008f81e 	andeq	pc, r8, lr, lsl r8	; <UNPREDICTABLE>
    28a4:	00183d00 	andseq	r3, r8, r0, lsl #26
    28a8:	00183300 	andseq	r3, r8, r0, lsl #6
    28ac:	09021e00 	stmdbeq	r2, {r9, sl, fp, ip}
    28b0:	18820000 	stmne	r2, {}	; <UNPREDICTABLE>
    28b4:	187e0000 	ldmdane	lr!, {}^	; <UNPREDICTABLE>
    28b8:	a31a0000 	tstge	sl, #0, 0
    28bc:	5c000009 	stcpl	0, cr0, [r0], {9}
    28c0:	03000094 	movweq	r0, #148	; 0x94
    28c4:	00037800 	andeq	r7, r3, r0, lsl #16
    28c8:	097c0100 	ldmdbeq	ip!, {r8}^
    28cc:	00000720 	andeq	r0, r0, r0, lsr #14
    28d0:	0009ca1b 	andeq	ip, r9, fp, lsl sl
    28d4:	0018a400 	andseq	sl, r8, r0, lsl #8
    28d8:	0018a000 	andseq	sl, r8, r0
    28dc:	09be1b00 	ldmibeq	lr!, {r8, r9, fp, ip}
    28e0:	18c60000 	stmiane	r6, {}^	; <UNPREDICTABLE>
    28e4:	18c20000 	stmiane	r2, {}^	; <UNPREDICTABLE>
    28e8:	b41b0000 	ldrlt	r0, [fp], #-0
    28ec:	f0000009 			; <UNDEFINED> instruction: 0xf0000009
    28f0:	e4000018 	str	r0, [r0], #-24	; 0xffffffe8
    28f4:	13000018 	movwne	r0, #24
    28f8:	00000378 	andeq	r0, r0, r8, ror r3
    28fc:	0009d61e 	andeq	sp, r9, lr, lsl r6
    2900:	00194c00 	andseq	r4, r9, r0, lsl #24
    2904:	00194000 	andseq	r4, r9, r0
    2908:	20000000 	andcs	r0, r0, r0
    290c:	0000094f 	andeq	r0, r0, pc, asr #18
    2910:	000094e4 	andeq	r9, r0, r4, ror #9
    2914:	03a00002 	moveq	r0, #2, 0
    2918:	7c010000 	stcvc	0, cr0, [r1], {-0}
    291c:	09801b09 	stmibeq	r0, {r0, r3, r8, r9, fp, ip}
    2920:	199c0000 	ldmibne	ip, {}	; <UNPREDICTABLE>
    2924:	19980000 	ldmibne	r8, {}	; <UNPREDICTABLE>
    2928:	761b0000 	ldrvc	r0, [fp], -r0
    292c:	c4000009 	strgt	r0, [r0], #-9
    2930:	ba000019 	blt	299c <__code_start__-0x5664>
    2934:	1b000019 	blne	29a0 <__code_start__-0x5660>
    2938:	0000096c 	andeq	r0, r0, ip, ror #18
    293c:	00001a10 	andeq	r1, r0, r0, lsl sl
    2940:	00001a0c 	andeq	r1, r0, ip, lsl #20
    2944:	0009601b 	andeq	r6, r9, fp, lsl r0
    2948:	001a3e00 	andseq	r3, sl, r0, lsl #28
    294c:	001a3200 	andseq	r3, sl, r0, lsl #4
    2950:	03a01300 	moveq	r1, #0, 6
    2954:	8c1e0000 	ldchi	0, cr0, [lr], {-0}
    2958:	98000009 	stmdals	r0, {r0, r3}
    295c:	9400001a 	strls	r0, [r0], #-26	; 0xffffffe6
    2960:	1e00001a 	mcrne	0, 0, r0, cr0, cr10, {0}
    2964:	00000998 	muleq	r0, r8, r9
    2968:	00001abe 			; <UNDEFINED> instruction: 0x00001abe
    296c:	00001aba 			; <UNDEFINED> instruction: 0x00001aba
    2970:	00000000 	andeq	r0, r0, r0
    2974:	00921017 	addseq	r1, r2, r7, lsl r0
    2978:	000aa400 	andeq	sl, sl, r0, lsl #8
    297c:	0007af00 	andeq	sl, r7, r0, lsl #30
    2980:	50011800 	andpl	r1, r1, r0, lsl #16
    2984:	01184001 	tsteq	r8, r1
    2988:	d0910351 	addsle	r0, r1, r1, asr r3
    298c:	5301187d 	movwpl	r1, #6269	; 0x187d
    2990:	18007502 	stmdane	r0, {r1, r8, sl, ip, sp, lr}
    2994:	01007d02 	tsteq	r0, r2, lsl #26
    2998:	20170030 	andscs	r0, r7, r0, lsr r0
    299c:	a4000093 	strge	r0, [r0], #-147	; 0xffffff6d
    29a0:	cf00000a 	svcgt	0x0000000a
    29a4:	18000007 	stmdane	r0, {r0, r1, r2}
    29a8:	3a015001 	bcc	569b4 <__bss_end__+0x4b9e4>
    29ac:	03510118 	cmpeq	r1, #6
    29b0:	187dd091 	ldmdane	sp!, {r0, r4, r7, ip, lr, pc}^
    29b4:	75025301 	strvc	r5, [r2, #-769]	; 0xfffffcff
    29b8:	04170000 	ldreq	r0, [r7], #-0
    29bc:	46000096 			; <UNDEFINED> instruction: 0x46000096
    29c0:	e600000c 	str	r0, [r0], -ip
    29c4:	18000007 	stmdane	r0, {r0, r1, r2}
    29c8:	03055001 	movweq	r5, #20481	; 0x5001
    29cc:	0000a914 	andeq	sl, r0, r4, lsl r9
    29d0:	96142100 	ldrls	r2, [r4], -r0, lsl #2
    29d4:	07f80000 	ldrbeq	r0, [r8, r0]!
    29d8:	01180000 	tsteq	r8, r0
    29dc:	c8910450 	ldmgt	r1, {r4, r6, sl}
    29e0:	1700067d 	smlsdxne	r0, sp, r6, r0
    29e4:	00009628 	andeq	r9, r0, r8, lsr #12
    29e8:	00000c46 	andeq	r0, r0, r6, asr #24
    29ec:	00000827 	andeq	r0, r0, r7, lsr #16
    29f0:	05500118 	ldrbeq	r0, [r0, #-280]	; 0xfffffee8
    29f4:	00a94403 	adceq	r4, r9, r3, lsl #8
    29f8:	51011800 	tstpl	r1, r0, lsl #16
    29fc:	a8240305 	stmdage	r4!, {r0, r2, r8, r9}
    2a00:	01180000 	tsteq	r8, r0
    2a04:	7c030552 	cfstr32vc	mvfx0, [r3], {82}	; 0x52
    2a08:	180000a9 	stmdane	r0, {r0, r3, r5, r7}
    2a0c:	08025301 	stmdaeq	r2, {r0, r8, r9, ip, lr}
    2a10:	2c1900e2 	ldccs	0, cr0, [r9], {226}	; 0xe2
    2a14:	76000096 			; <UNDEFINED> instruction: 0x76000096
    2a18:	1700000c 	strne	r0, [r0, -ip]
    2a1c:	00009640 	andeq	r9, r0, r0, asr #12
    2a20:	00000c46 	andeq	r0, r0, r6, asr #24
    2a24:	0000085f 	andeq	r0, r0, pc, asr r8
    2a28:	05500118 	ldrbeq	r0, [r0, #-280]	; 0xfffffee8
    2a2c:	00a8ec03 	adceq	lr, r8, r3, lsl #24
    2a30:	51011800 	tstpl	r1, r0, lsl #16
    2a34:	a8240305 	stmdage	r4!, {r0, r2, r8, r9}
    2a38:	01180000 	tsteq	r8, r0
    2a3c:	7c030552 	cfstr32vc	mvfx0, [r3], {82}	; 0x52
    2a40:	180000a9 	stmdane	r0, {r0, r3, r5, r7}
    2a44:	08025301 	stmdaeq	r2, {r0, r8, r9, ip, lr}
    2a48:	441900be 	ldrmi	r0, [r9], #-190	; 0xffffff42
    2a4c:	76000096 			; <UNDEFINED> instruction: 0x76000096
    2a50:	0000000c 	andeq	r0, r0, ip
    2a54:	b9040800 	stmdblt	r4, {fp}
    2a58:	22000000 	andcs	r0, r0, #0, 0
    2a5c:	000000c0 	andeq	r0, r0, r0, asr #1
    2a60:	00000880 	andeq	r0, r0, r0, lsl #17
    2a64:	00002c23 	andeq	r2, r0, r3, lsr #24
    2a68:	09000900 	stmdbeq	r0, {r8, fp}
    2a6c:	00000870 	andeq	r0, r0, r0, ror r8
    2a70:	0000b922 	andeq	fp, r0, r2, lsr #18
    2a74:	00089500 	andeq	r9, r8, r0, lsl #10
    2a78:	002c2300 	eoreq	r2, ip, r0, lsl #6
    2a7c:	007f0000 	rsbseq	r0, pc, r0
    2a80:	00069b24 	andeq	r9, r6, r4, lsr #22
    2a84:	01490100 	mrseq	r0, (UNDEF: 89)
    2a88:	0000086a 	andeq	r0, r0, sl, ror #16
    2a8c:	00092a01 	andeq	r2, r9, r1, lsl #20
    2a90:	04402500 	strbeq	r2, [r0], #-1280	; 0xfffffb00
    2a94:	49010000 	stmdbmi	r1, {}	; <UNPREDICTABLE>
    2a98:	00002c0f 	andeq	r2, r0, pc, lsl #24
    2a9c:	73642600 	cmnvc	r4, #0, 12
    2aa0:	49010074 	stmdbmi	r1, {r2, r4, r5, r6}
    2aa4:	00086a1b 	andeq	r6, r8, fp, lsl sl
    2aa8:	006e2600 	rsbeq	r2, lr, r0, lsl #12
    2aac:	33244901 			; <UNDEFINED> instruction: 0x33244901
    2ab0:	26000000 	strcs	r0, [r0], -r0
    2ab4:	006c6176 	rsbeq	r6, ip, r6, ror r1
    2ab8:	332b4901 			; <UNDEFINED> instruction: 0x332b4901
    2abc:	25000000 	strcs	r0, [r0, #-0]
    2ac0:	00000644 	andeq	r0, r0, r4, asr #12
    2ac4:	33344901 	teqcc	r4, #16384	; 0x4000
    2ac8:	25000000 	strcs	r0, [r0, #-0]
    2acc:	000006d1 	ldrdeq	r0, [r0], -r1
    2ad0:	333f4901 	teqcc	pc, #16384	; 0x4000
    2ad4:	27000000 	strcs	r0, [r0, -r0]
    2ad8:	00667562 	rsbeq	r7, r6, r2, ror #10
    2adc:	2a074e01 	bcs	1d62e8 <__bss_end__+0x1cb318>
    2ae0:	27000009 	strcs	r0, [r0, -r9]
    2ae4:	4e010070 	mcrmi	0, 0, r0, cr1, cr0, {3}
    2ae8:	00086a11 	andeq	r6, r8, r1, lsl sl
    2aec:	00752700 	rsbseq	r2, r5, r0, lsl #14
    2af0:	2c0b4f01 	stccs	15, cr4, [fp], {1}
    2af4:	12000000 	andne	r0, r0, #0, 0
    2af8:	00000049 	andeq	r0, r0, r9, asr #32
    2afc:	0000094a 	andeq	r0, r0, sl, asr #18
    2b00:	a9640305 	stmdbge	r4!, {r0, r2, r8, r9}^
    2b04:	29280000 	stmdbcs	r8!, {}	; <UNPREDICTABLE>
    2b08:	00000688 	andeq	r0, r0, r8, lsl #13
    2b0c:	2c0d5401 	cfstrscs	mvf5, [sp], {1}
    2b10:	00000000 	andeq	r0, r0, r0
    2b14:	00b92200 	adcseq	r2, r9, r0, lsl #4
    2b18:	093a0000 	ldmdbeq	sl!, {}	; <UNPREDICTABLE>
    2b1c:	2c230000 	stccs	0, cr0, [r3], #-0
    2b20:	3f000000 	svccc	0x00000000
    2b24:	00c02200 	sbceq	r2, r0, r0, lsl #4
    2b28:	094a0000 	stmdbeq	sl, {}^	; <UNPREDICTABLE>
    2b2c:	2c230000 	stccs	0, cr0, [r3], #-0
    2b30:	04000000 	streq	r0, [r0], #-0
    2b34:	093a0900 	ldmdbeq	sl!, {r8, fp}
    2b38:	a0240000 	eorge	r0, r4, r0
    2b3c:	01000006 	tsteq	r0, r6
    2b40:	086a0e38 	stmdaeq	sl!, {r3, r4, r5, r9, sl, fp}^
    2b44:	a3010000 	movwge	r0, #4096	; 0x1000
    2b48:	26000009 	strcs	r0, [r0], -r9
    2b4c:	00747364 	rsbseq	r7, r4, r4, ror #6
    2b50:	6a1c3801 	bvs	710b5c <__bss_end__+0x705b8c>
    2b54:	26000008 	strcs	r0, [r0], -r8
    2b58:	3801006e 	stmdacc	r1, {r1, r2, r3, r5, r6}
    2b5c:	00003325 	andeq	r3, r0, r5, lsr #6
    2b60:	00702600 	rsbseq	r2, r0, r0, lsl #12
    2b64:	6a2e3801 	bvs	b90b70 <__bss_end__+0xb85ba0>
    2b68:	25000008 	strcs	r0, [r0, #-8]
    2b6c:	00000a65 	andeq	r0, r0, r5, ror #20
    2b70:	6a373801 	bvs	dd0b7c <__bss_end__+0xdc5bac>
    2b74:	27000008 	strcs	r0, [r0, -r8]
    2b78:	006e656c 	rsbeq	r6, lr, ip, ror #10
    2b7c:	33063a01 	movwcc	r3, #27137	; 0x6a01
    2b80:	27000000 	strcs	r0, [r0, -r0]
    2b84:	3e010073 	mcrcc	0, 0, r0, cr1, cr3, {3}
    2b88:	00086a08 	andeq	r6, r8, r8, lsl #20
    2b8c:	702a0000 	eorvc	r0, sl, r0
    2b90:	01006461 	tsteq	r0, r1, ror #8
    2b94:	086a0e2e 	stmdaeq	sl!, {r1, r2, r3, r5, r9, sl, fp}^
    2b98:	e3010000 	movw	r0, #4096	; 0x1000
    2b9c:	26000009 	strcs	r0, [r0], -r9
    2ba0:	2e010070 	mcrcs	0, 0, r0, cr1, cr0, {3}
    2ba4:	00086a18 	andeq	r6, r8, r8, lsl sl
    2ba8:	04402500 	strbeq	r2, [r0], #-1280	; 0xfffffb00
    2bac:	2e010000 	cdpcs	0, 0, cr0, cr1, cr0, {0}
    2bb0:	00086a22 	andeq	r6, r8, r2, lsr #20
    2bb4:	06442500 	strbeq	r2, [r4], -r0, lsl #10
    2bb8:	2e010000 	cdpcs	0, 0, cr0, cr1, cr0, {0}
    2bbc:	0000332c 	andeq	r3, r0, ip, lsr #6
    2bc0:	656c2700 	strbvs	r2, [ip, #-1792]!	; 0xfffff900
    2bc4:	2f01006e 	svccs	0x0001006e
    2bc8:	00003306 	andeq	r3, r0, r6, lsl #6
    2bcc:	11240000 			; <UNDEFINED> instruction: 0x11240000
    2bd0:	01000006 	tsteq	r0, r6
    2bd4:	00330c27 	eorseq	r0, r3, r7, lsr #24
    2bd8:	ff010000 			; <UNDEFINED> instruction: 0xff010000
    2bdc:	26000009 	strcs	r0, [r0], -r9
    2be0:	27010063 	strcs	r0, [r1, -r3, rrx]
    2be4:	00003318 	andeq	r3, r0, r8, lsl r3
    2be8:	612b0000 			; <UNDEFINED> instruction: 0x612b0000
    2bec:	01000006 	tsteq	r0, r6
    2bf0:	905c061f 	subsls	r0, ip, pc, lsl r6
    2bf4:	00600000 	rsbeq	r0, r0, r0
    2bf8:	9c010000 	stcls	0, cr0, [r1], {-0}
    2bfc:	00000a8f 	andeq	r0, r0, pc, lsl #21
    2c00:	00064a0f 	andeq	r4, r6, pc, lsl #20
    2c04:	1b1f0100 	blne	7c300c <__bss_end__+0x7b803c>
    2c08:	0000009e 	muleq	r0, lr, r0
    2c0c:	00001ae3 	andeq	r1, r0, r3, ror #21
    2c10:	00001adf 	ldrdeq	r1, [r0], -pc	; <UNPREDICTABLE>
    2c14:	0006af0f 	andeq	sl, r6, pc, lsl #30
    2c18:	301f0100 	andscc	r0, pc, r0, lsl #2
    2c1c:	000000d1 	ldrdeq	r0, [r0], -r1
    2c20:	00001b08 	andeq	r1, r0, r8, lsl #22
    2c24:	00001b04 	andeq	r1, r0, r4, lsl #22
    2c28:	00004912 	andeq	r4, r0, r2, lsl r9
    2c2c:	000a9f00 	andeq	r9, sl, r0, lsl #30
    2c30:	6c030500 	cfstr32vs	mvfx0, [r3], {-0}
    2c34:	170000a9 	strne	r0, [r0, -r9, lsr #1]
    2c38:	000090a0 	andeq	r9, r0, r0, lsr #1
    2c3c:	00000c46 	andeq	r0, r0, r6, asr #24
    2c40:	00000a85 	andeq	r0, r0, r5, lsl #21
    2c44:	05500118 	ldrbeq	r0, [r0, #-280]	; 0xfffffee8
    2c48:	00a35403 	adceq	r5, r3, r3, lsl #8
    2c4c:	51011800 	tstpl	r1, r0, lsl #16
    2c50:	a8240305 	stmdage	r4!, {r0, r2, r8, r9}
    2c54:	01180000 	tsteq	r8, r0
    2c58:	6c030552 	cfstr32vs	mvfx0, [r3], {82}	; 0x52
    2c5c:	180000a9 	stmdane	r0, {r0, r3, r5, r7}
    2c60:	08025301 	stmdaeq	r2, {r0, r8, r9, ip, lr}
    2c64:	7d021820 	stcvc	8, cr1, [r2, #-128]	; 0xffffff80
    2c68:	5c030500 	cfstr32pl	mvfx0, [r3], {-0}
    2c6c:	000000a8 	andeq	r0, r0, r8, lsr #1
    2c70:	0090a419 	addseq	sl, r0, r9, lsl r4
    2c74:	000c7600 	andeq	r7, ip, r0, lsl #12
    2c78:	c0220000 	eorgt	r0, r2, r0
    2c7c:	9f000000 	svcls	0x00000000
    2c80:	2300000a 	movwcs	r0, #10
    2c84:	0000002c 	andeq	r0, r0, ip, lsr #32
    2c88:	8f09000e 	svchi	0x0009000e
    2c8c:	2c00000a 	stccs	0, cr0, [r0], {10}
    2c90:	00000895 	muleq	r0, r5, r8
    2c94:	00008d34 	andeq	r8, r0, r4, lsr sp
    2c98:	00000328 	andeq	r0, r0, r8, lsr #6
    2c9c:	0c3a9c01 	ldceq	12, cr9, [sl], #-4
    2ca0:	a61b0000 	ldrge	r0, [fp], -r0
    2ca4:	41000008 	tstmi	r0, r8
    2ca8:	2900001b 	stmdbcs	r0, {r0, r1, r3, r4}
    2cac:	1b00001b 	blne	2d20 <__code_start__-0x52e0>
    2cb0:	000008b2 			; <UNDEFINED> instruction: 0x000008b2
    2cb4:	00001beb 	andeq	r1, r0, fp, ror #23
    2cb8:	00001be3 	andeq	r1, r0, r3, ror #23
    2cbc:	0008c81b 	andeq	ip, r8, fp, lsl r8
    2cc0:	001c4200 	andseq	r4, ip, r0, lsl #4
    2cc4:	001c2200 	andseq	r2, ip, r0, lsl #4
    2cc8:	08d41b00 	ldmeq	r4, {r8, r9, fp, ip}^
    2ccc:	1d180000 	ldcne	0, cr0, [r8, #-0]
    2cd0:	1d0a0000 	stcne	0, cr0, [sl, #-0]
    2cd4:	e02d0000 	eor	r0, sp, r0
    2cd8:	02000008 	andeq	r0, r0, #8, 0
    2cdc:	ec1d0091 	ldc	0, cr0, [sp], {145}	; 0x91
    2ce0:	03000008 	movweq	r0, #8
    2ce4:	1e7fa891 	mrcne	8, 3, sl, cr15, cr1, {4}
    2ce8:	000008f8 	strdeq	r0, [r0], -r8
    2cec:	00001dac 	andeq	r1, r0, ip, lsr #27
    2cf0:	00001d78 	andeq	r1, r0, r8, ror sp
    2cf4:	0009021e 	andeq	r0, r9, lr, lsl r2
    2cf8:	001f1300 	andseq	r1, pc, r0, lsl #6
    2cfc:	001ef100 	andseq	pc, lr, r0, lsl #2
    2d00:	08be2e00 	ldmeq	lr!, {r9, sl, fp, sp}
    2d04:	1a800000 	bne	fe002d0c <__bss_end__+0xfdff7d3c>
    2d08:	000009a3 	andeq	r0, r0, r3, lsr #19
    2d0c:	00008dd8 	ldrdeq	r8, [r0], -r8	; <UNPREDICTABLE>
    2d10:	01f00004 	mvnseq	r0, r4
    2d14:	7c010000 	stcvc	0, cr0, [r1], {-0}
    2d18:	000b6d09 	andeq	r6, fp, r9, lsl #26
    2d1c:	09ca1b00 	stmibeq	sl, {r8, r9, fp, ip}^
    2d20:	1ffb0000 	svcne	0x00fb0000
    2d24:	1ff10000 	svcne	0x00f10000
    2d28:	be1b0000 	cdplt	0, 1, cr0, cr11, cr0, {0}
    2d2c:	4f000009 	svcmi	0x00000009
    2d30:	3f000020 	svccc	0x00000020
    2d34:	1b000020 	blne	2dbc <__code_start__-0x5244>
    2d38:	000009b4 			; <UNDEFINED> instruction: 0x000009b4
    2d3c:	000020cf 	andeq	r2, r0, pc, asr #1
    2d40:	000020bb 	strheq	r2, [r0], -fp
    2d44:	0001f013 	andeq	pc, r1, r3, lsl r0	; <UNPREDICTABLE>
    2d48:	09d61e00 	ldmibeq	r6, {r9, sl, fp, ip}^
    2d4c:	21610000 	cmncs	r1, r0
    2d50:	21510000 	cmpcs	r1, r0
    2d54:	00000000 	andeq	r0, r0, r0
    2d58:	00094f1a 	andeq	r4, r9, sl, lsl pc
    2d5c:	008e9000 	addeq	r9, lr, r0
    2d60:	38000200 	stmdacc	r0, {r9}
    2d64:	01000002 	tsteq	r0, r2
    2d68:	0bd8097c 	bleq	ff605360 <__bss_end__+0xff5fa390>
    2d6c:	801b0000 	andshi	r0, fp, r0
    2d70:	cd000009 	stcgt	0, cr0, [r0, #-36]	; 0xffffffdc
    2d74:	c5000021 	strgt	r0, [r0, #-33]	; 0xffffffdf
    2d78:	1b000021 	blne	2e04 <__code_start__-0x51fc>
    2d7c:	00000976 	andeq	r0, r0, r6, ror r9
    2d80:	0000220c 	andeq	r2, r0, ip, lsl #4
    2d84:	00002204 	andeq	r2, r0, r4, lsl #4
    2d88:	00096c1b 	andeq	r6, r9, fp, lsl ip
    2d8c:	00224b00 	eoreq	r4, r2, r0, lsl #22
    2d90:	00224700 	eoreq	r4, r2, r0, lsl #14
    2d94:	09601b00 	stmdbeq	r0!, {r8, r9, fp, ip}^
    2d98:	227b0000 	rsbscs	r0, fp, #0, 0
    2d9c:	226d0000 	rsbcs	r0, sp, #0, 0
    2da0:	38130000 	ldmdacc	r3, {}	; <UNPREDICTABLE>
    2da4:	1e000002 	cdpne	0, 0, cr0, cr0, cr2, {0}
    2da8:	0000098c 	andeq	r0, r0, ip, lsl #19
    2dac:	000022e0 	andeq	r2, r0, r0, ror #5
    2db0:	000022da 	ldrdeq	r2, [r0], -sl
    2db4:	0009981e 	andeq	r9, r9, lr, lsl r8
    2db8:	00231200 	eoreq	r1, r3, r0, lsl #4
    2dbc:	00230e00 	eoreq	r0, r3, r0, lsl #28
    2dc0:	2f000000 	svccs	0x00000000
    2dc4:	0000091b 	andeq	r0, r0, fp, lsl r9
    2dc8:	00008f48 	andeq	r8, r0, r8, asr #30
    2dcc:	00000060 	andeq	r0, r0, r0, rrx
    2dd0:	00000bf7 	strdeq	r0, [r0], -r7
    2dd4:	00091c1e 	andeq	r1, r9, lr, lsl ip
    2dd8:	00233400 	eoreq	r3, r3, r0, lsl #8
    2ddc:	00233000 	eoreq	r3, r3, r0
    2de0:	1c170000 	ldcne	0, cr0, [r7], {-0}
    2de4:	46000090 			; <UNDEFINED> instruction: 0x46000090
    2de8:	3000000c 	andcc	r0, r0, ip
    2dec:	1800000c 	stmdane	r0, {r2, r3}
    2df0:	03055001 	movweq	r5, #20481	; 0x5001
    2df4:	0000a354 	andeq	sl, r0, r4, asr r3
    2df8:	05510118 	ldrbeq	r0, [r1, #-280]	; 0xfffffee8
    2dfc:	00a82403 	adceq	r2, r8, r3, lsl #8
    2e00:	52011800 	andpl	r1, r1, #0, 16
    2e04:	a9640305 	stmdbge	r4!, {r0, r2, r8, r9}^
    2e08:	01180000 	tsteq	r8, r0
    2e0c:	79080253 	stmdbvc	r8, {r0, r1, r4, r6, r9}
    2e10:	007d0218 	rsbseq	r0, sp, r8, lsl r2
    2e14:	a6940305 	ldrge	r0, [r4], r5, lsl #6
    2e18:	19000000 	stmdbne	r0, {}	; <UNPREDICTABLE>
    2e1c:	00009020 	andeq	r9, r0, r0, lsr #32
    2e20:	00000c76 	andeq	r0, r0, r6, ror ip
    2e24:	06c93000 	strbeq	r3, [r9], r0
    2e28:	06c90000 	strbeq	r0, [r9], r0
    2e2c:	eb030000 	bl	c2e34 <__bss_end__+0xb7e64>
    2e30:	05c03005 	strbeq	r3, [r0, #5]
    2e34:	05c00000 	strbeq	r0, [r0]
    2e38:	28030000 	stmdacs	r3, {}	; <UNPREDICTABLE>
    2e3c:	067a3006 	ldrbteq	r3, [sl], -r6
    2e40:	067a0000 	ldrbteq	r0, [sl], -r0
    2e44:	ee030000 	cdp	0, 0, cr0, cr3, cr0, {0}
    2e48:	06a83007 	strteq	r3, [r8], r7
    2e4c:	06a80000 	strteq	r0, [r8], r0
    2e50:	ea030000 	b	c2e58 <__bss_end__+0xb7e88>
    2e54:	06813005 	streq	r3, [r1], r5
    2e58:	06810000 	streq	r0, [r1], r0
    2e5c:	ed030000 	stc	0, cr0, [r3, #-0]
    2e60:	00563007 	subseq	r3, r6, r7
    2e64:	00560000 	subseq	r0, r6, r0
    2e68:	6e030000 	cdpvs	0, 0, cr0, cr3, cr0, {0}
    2e6c:	012f0006 			; <UNDEFINED> instruction: 0x012f0006
    2e70:	00040000 	andeq	r0, r4, r0
    2e74:	00000fc0 	andeq	r0, r0, r0, asr #31
    2e78:	01320104 	teqeq	r2, r4, lsl #2
    2e7c:	ee0c0000 	cdp	0, 0, cr0, cr12, cr0, {0}
    2e80:	96000006 	strls	r0, [r0], -r6
    2e84:	e8000005 	stmda	r0, {r0, r2}
    2e88:	2c000096 	stccs	0, cr0, [r0], {150}	; 0x96
    2e8c:	9f000000 	svcls	0x00000000
    2e90:	02000019 	andeq	r0, r0, #25, 0
    2e94:	6e690504 	cdpvs	5, 6, cr0, cr9, cr4, {0}
    2e98:	04030074 	streq	r0, [r3], #-116	; 0xffffff8c
    2e9c:	0000cf07 	andeq	ip, r0, r7, lsl #30
    2ea0:	06010300 	streq	r0, [r1], -r0, lsl #6
    2ea4:	00000072 	andeq	r0, r0, r2, ror r0
    2ea8:	00050203 	andeq	r0, r5, r3, lsl #4
    2eac:	03000000 	movweq	r0, #0
    2eb0:	00330504 	eorseq	r0, r3, r4, lsl #10
    2eb4:	08030000 	stmdaeq	r3, {}	; <UNPREDICTABLE>
    2eb8:	00002e05 	andeq	r2, r0, r5, lsl #28
    2ebc:	08010300 	stmdaeq	r1, {r8, r9}
    2ec0:	00000070 	andeq	r0, r0, r0, ror r0
    2ec4:	08070203 	stmdaeq	r7, {r0, r1, r9}
    2ec8:	03000001 	movweq	r0, #1
    2ecc:	00ca0704 	sbceq	r0, sl, r4, lsl #14
    2ed0:	08030000 	stmdaeq	r3, {}	; <UNPREDICTABLE>
    2ed4:	0000c507 	andeq	ip, r0, r7, lsl #10
    2ed8:	00250400 	eoreq	r0, r5, r0, lsl #8
    2edc:	007a0000 	rsbseq	r0, sl, r0
    2ee0:	25050000 	strcs	r0, [r5, #-0]
    2ee4:	00000000 	andeq	r0, r0, r0
    2ee8:	00000a06 	andeq	r0, r0, r6, lsl #20
    2eec:	0e1c0200 	cdpeq	2, 1, cr0, cr12, cr0, {0}
    2ef0:	00000086 	andeq	r0, r0, r6, lsl #1
    2ef4:	006b0407 	rsbeq	r0, fp, r7, lsl #8
    2ef8:	25040000 	strcs	r0, [r4, #-0]
    2efc:	9b000000 	blls	2f04 <__code_start__-0x50fc>
    2f00:	05000000 	streq	r0, [r0, #-0]
    2f04:	0000009b 	muleq	r0, fp, r0
    2f08:	a8040700 	stmdage	r4, {r8, r9, sl}
    2f0c:	03000000 	movweq	r0, #0
    2f10:	00790801 	rsbseq	r0, r9, r1, lsl #16
    2f14:	a1080000 	mrsge	r0, (UNDEF: 8)
    2f18:	06000000 	streq	r0, [r0], -r0
    2f1c:	000005fe 	strdeq	r0, [r0], -lr
    2f20:	b90e2102 	stmdblt	lr, {r1, r8, sp}
    2f24:	07000000 	streq	r0, [r0, -r0]
    2f28:	00008c04 	andeq	r8, r0, r4, lsl #24
    2f2c:	00560900 	subseq	r0, r6, r0, lsl #18
    2f30:	04010000 	streq	r0, [r1], #-0
    2f34:	0096e806 	addseq	lr, r6, r6, lsl #16
    2f38:	00002c00 	andeq	r2, r0, r0, lsl #24
    2f3c:	0e9c0100 	fmleqe	f0, f4, f0
    2f40:	0a000001 	beq	2f4c <__code_start__-0x50b4>
    2f44:	000096fc 	strdeq	r9, [r0], -ip
    2f48:	000000e8 	andeq	r0, r0, r8, ror #1
    2f4c:	0550010b 	ldrbeq	r0, [r0, #-267]	; 0xfffffef5
    2f50:	00a98803 	adceq	r8, r9, r3, lsl #16
    2f54:	000c0000 	andeq	r0, ip, r0
    2f58:	0e000097 	mcreq	0, 0, r0, cr0, cr7, {4}
    2f5c:	0d000001 	stceq	0, cr0, [r0, #-4]
    2f60:	00009708 	andeq	r9, r0, r8, lsl #14
    2f64:	0000011a 	andeq	r0, r0, sl, lsl r1
    2f68:	00000104 	andeq	r0, r0, r4, lsl #2
    2f6c:	0150010b 	cmpeq	r0, fp, lsl #2
    2f70:	0c0c003a 	stceq	0, cr0, [ip], {58}	; 0x3a
    2f74:	26000097 			; <UNDEFINED> instruction: 0x26000097
    2f78:	00000001 	andeq	r0, r0, r1
    2f7c:	0007090e 	andeq	r0, r7, lr, lsl #18
    2f80:	00070900 	andeq	r0, r7, r0, lsl #18
    2f84:	064d0200 	strbeq	r0, [sp], -r0, lsl #4
    2f88:	0006e50e 	andeq	lr, r6, lr, lsl #10
    2f8c:	0006e500 	andeq	lr, r6, r0, lsl #10
    2f90:	06580200 	ldrbeq	r0, [r8], -r0, lsl #4
    2f94:	0006da0e 	andeq	sp, r6, lr, lsl #20
    2f98:	0006da00 	andeq	sp, r6, r0, lsl #20
    2f9c:	066b0200 	strbteq	r0, [fp], -r0, lsl #4
    2fa0:	00019000 	andeq	r9, r1, r0
    2fa4:	80000400 	andhi	r0, r0, r0, lsl #8
    2fa8:	04000010 	streq	r0, [r0], #-16
    2fac:	00013201 	andeq	r3, r1, r1, lsl #4
    2fb0:	073f0c00 	ldreq	r0, [pc, -r0, lsl #24]!
    2fb4:	05960000 	ldreq	r0, [r6]
    2fb8:	97140000 	ldrls	r0, [r4, -r0]
    2fbc:	00f80000 	rscseq	r0, r8, r0
    2fc0:	1a2a0000 	bne	a82fc8 <__bss_end__+0xa77ff8>
    2fc4:	04020000 	streq	r0, [r2], #-0
    2fc8:	746e6905 	strbtvc	r6, [lr], #-2309	; 0xfffff6fb
    2fcc:	07040300 	streq	r0, [r4, -r0, lsl #6]
    2fd0:	000000cf 	andeq	r0, r0, pc, asr #1
    2fd4:	72060103 	andvc	r0, r6, #-1073741824	; 0xc0000000
    2fd8:	03000000 	movweq	r0, #0
    2fdc:	00000502 	andeq	r0, r0, r2, lsl #10
    2fe0:	04030000 	streq	r0, [r3], #-0
    2fe4:	00003305 	andeq	r3, r0, r5, lsl #6
    2fe8:	05080300 	streq	r0, [r8, #-768]	; 0xfffffd00
    2fec:	0000002e 	andeq	r0, r0, lr, lsr #32
    2ff0:	70080103 	andvc	r0, r8, r3, lsl #2
    2ff4:	03000000 	movweq	r0, #0
    2ff8:	01080702 	tsteq	r8, r2, lsl #14
    2ffc:	04030000 	streq	r0, [r3], #-0
    3000:	0000ca07 	andeq	ip, r0, r7, lsl #20
    3004:	07080300 	streq	r0, [r8, -r0, lsl #6]
    3008:	000000c5 	andeq	r0, r0, r5, asr #1
    300c:	00002504 	andeq	r2, r0, r4, lsl #10
    3010:	00007a00 	andeq	r7, r0, r0, lsl #20
    3014:	00250500 	eoreq	r0, r5, r0, lsl #10
    3018:	06000000 	streq	r0, [r0], -r0
    301c:	0000000a 	andeq	r0, r0, sl
    3020:	860e1c02 	strhi	r1, [lr], -r2, lsl #24
    3024:	07000000 	streq	r0, [r0, -r0]
    3028:	00006b04 	andeq	r6, r0, r4, lsl #22
    302c:	00250400 	eoreq	r0, r5, r0, lsl #8
    3030:	009b0000 	addseq	r0, fp, r0
    3034:	9b050000 	blls	14303c <__bss_end__+0x13806c>
    3038:	00000000 	andeq	r0, r0, r0
    303c:	00a80407 	adceq	r0, r8, r7, lsl #8
    3040:	01030000 	mrseq	r0, (UNDEF: 3)
    3044:	00007908 	andeq	r7, r0, r8, lsl #18
    3048:	00a10800 	adceq	r0, r1, r0, lsl #16
    304c:	fe060000 	cdp2	0, 0, cr0, cr6, cr0, {0}
    3050:	02000005 	andeq	r0, r0, #5, 0
    3054:	00b90e21 	adcseq	r0, r9, r1, lsr #28
    3058:	04070000 	streq	r0, [r7], #-0
    305c:	0000008c 	andeq	r0, r0, ip, lsl #1
    3060:	00071709 	andeq	r1, r7, r9, lsl #14
    3064:	06040100 	streq	r0, [r4], -r0, lsl #2
    3068:	00009714 	andeq	r9, r0, r4, lsl r7
    306c:	000000f8 	strdeq	r0, [r0], -r8
    3070:	015b9c01 	cmpeq	fp, r1, lsl #24
    3074:	81060000 	mrshi	r0, (UNDEF: 6)
    3078:	01000004 	tsteq	r0, r4
    307c:	00251005 	eoreq	r1, r5, r5
    3080:	1b060000 	blne	183088 <__bss_end__+0x1780b8>
    3084:	01000005 	tsteq	r0, r5
    3088:	00251f05 	eoreq	r1, r5, r5, lsl #30
    308c:	e50a0000 	str	r0, [sl, #-0]
    3090:	01000000 	mrseq	r0, (UNDEF: 0)
    3094:	620b0706 	andvs	r0, fp, #1572864	; 0x180000
    3098:	01007373 	tsteq	r0, r3, ror r3
    309c:	015b0a0a 	cmpeq	fp, sl, lsl #20
    30a0:	236c0000 	cmncs	ip, #0, 0
    30a4:	23540000 	cmpcs	r4, #0, 0
    30a8:	1f0c0000 	svcne	0x000c0000
    30ac:	01000007 	tsteq	r0, r7
    30b0:	015b0a0b 	cmpeq	fp, fp, lsl #20
    30b4:	ec0d0000 	stc	0, cr0, [sp], {-0}
    30b8:	08000097 	stmdaeq	r0, {r0, r1, r2, r4, r7}
    30bc:	36000000 	strcc	r0, [r0], -r0
    30c0:	0b000001 	bleq	30cc <__code_start__-0x4f34>
    30c4:	01006e69 	tsteq	r0, r9, ror #28
    30c8:	002c0514 	eoreq	r0, ip, r4, lsl r5
    30cc:	24060000 	strcs	r0, [r6], #-0
    30d0:	24040000 	strcs	r0, [r4], #-0
    30d4:	0e000000 	cdpeq	0, 0, cr0, cr0, cr0, {0}
    30d8:	0000971c 	andeq	r9, r0, ip, lsl r7
    30dc:	00000161 	andeq	r0, r0, r1, ror #2
    30e0:	0097ec0e 	addseq	lr, r7, lr, lsl #24
    30e4:	00016e00 	andeq	r6, r1, r0, lsl #28
    30e8:	97f80e00 	ldrbls	r0, [r8, r0, lsl #28]!
    30ec:	017a0000 	cmneq	sl, r0
    30f0:	fc0e0000 	stc2	0, cr0, [lr], {-0}
    30f4:	87000097 			; <UNDEFINED> instruction: 0x87000097
    30f8:	00000001 	andeq	r0, r0, r1
    30fc:	00250407 	eoreq	r0, r5, r7, lsl #8
    3100:	310f0000 	mrscc	r0, CPSR
    3104:	31000007 	tstcc	r0, r7
    3108:	02000007 	andeq	r0, r0, #7, 0
    310c:	10060131 	andne	r0, r6, r1, lsr r1
    3110:	00000727 	andeq	r0, r0, r7, lsr #14
    3114:	00000727 	andeq	r0, r0, r7, lsr #14
    3118:	0f063b02 	svceq	0x00063b02
    311c:	000000e5 	andeq	r0, r0, r5, ror #1
    3120:	000000e5 	andeq	r0, r0, r5, ror #1
    3124:	06010502 	streq	r0, [r1], -r2, lsl #10
    3128:	00005610 	andeq	r5, r0, r0, lsl r6
    312c:	00005600 	andeq	r5, r0, r0, lsl #12
    3130:	066e0200 	strbteq	r0, [lr], -r0, lsl #4
    3134:	0000ce00 	andeq	ip, r0, r0, lsl #28
    3138:	6b000400 	blvs	4140 <__code_start__-0x3ec0>
    313c:	04000011 	streq	r0, [r0], #-17	; 0xffffffef
    3140:	00013201 	andeq	r3, r1, r1, lsl #4
    3144:	07540c00 	ldrbeq	r0, [r4, -r0, lsl #24]
    3148:	05960000 	ldreq	r0, [r6]
    314c:	980c0000 	stmdals	ip, {}	; <UNPREDICTABLE>
    3150:	00040000 	andeq	r0, r4, r0
    3154:	1b400000 	blne	100315c <__bss_end__+0xff818c>
    3158:	04020000 	streq	r0, [r2], #-0
    315c:	746e6905 	strbtvc	r6, [lr], #-2309	; 0xfffff6fb
    3160:	07040300 	streq	r0, [r4, -r0, lsl #6]
    3164:	000000cf 	andeq	r0, r0, pc, asr #1
    3168:	72060103 	andvc	r0, r6, #-1073741824	; 0xc0000000
    316c:	03000000 	movweq	r0, #0
    3170:	00000502 	andeq	r0, r0, r2, lsl #10
    3174:	04030000 	streq	r0, [r3], #-0
    3178:	00003305 	andeq	r3, r0, r5, lsl #6
    317c:	05080300 	streq	r0, [r8, #-768]	; 0xfffffd00
    3180:	0000002e 	andeq	r0, r0, lr, lsr #32
    3184:	70080103 	andvc	r0, r8, r3, lsl #2
    3188:	03000000 	movweq	r0, #0
    318c:	01080702 	tsteq	r8, r2, lsl #14
    3190:	04030000 	streq	r0, [r3], #-0
    3194:	0000ca07 	andeq	ip, r0, r7, lsl #20
    3198:	07080300 	streq	r0, [r8, -r0, lsl #6]
    319c:	000000c5 	andeq	r0, r0, r5, asr #1
    31a0:	00002504 	andeq	r2, r0, r4, lsl #10
    31a4:	00007a00 	andeq	r7, r0, r0, lsl #20
    31a8:	00250500 	eoreq	r0, r5, r0, lsl #10
    31ac:	06000000 	streq	r0, [r0], -r0
    31b0:	0000000a 	andeq	r0, r0, sl
    31b4:	860e1c02 	strhi	r1, [lr], -r2, lsl #24
    31b8:	07000000 	streq	r0, [r0, -r0]
    31bc:	00006b04 	andeq	r6, r0, r4, lsl #22
    31c0:	00250400 	eoreq	r0, r5, r0, lsl #8
    31c4:	009b0000 	addseq	r0, fp, r0
    31c8:	9b050000 	blls	1431d0 <__bss_end__+0x138200>
    31cc:	00000000 	andeq	r0, r0, r0
    31d0:	00a80407 	adceq	r0, r8, r7, lsl #8
    31d4:	01030000 	mrseq	r0, (UNDEF: 3)
    31d8:	00007908 	andeq	r7, r0, r8, lsl #18
    31dc:	00a10800 	adceq	r0, r1, r0, lsl #16
    31e0:	fe060000 	cdp2	0, 0, cr0, cr6, cr0, {0}
    31e4:	02000005 	andeq	r0, r0, #5, 0
    31e8:	00b90e21 	adcseq	r0, r9, r1, lsr #28
    31ec:	04070000 	streq	r0, [r7], #-0
    31f0:	0000008c 	andeq	r0, r0, ip, lsl #1
    31f4:	00073109 	andeq	r3, r7, r9, lsl #2
    31f8:	06040100 	streq	r0, [r4], -r0, lsl #2
    31fc:	0000980c 	andeq	r9, r0, ip, lsl #16
    3200:	00000004 	andeq	r0, r0, r4
    3204:	7d009c01 	stcvc	12, cr9, [r0, #-4]
    3208:	04000002 	streq	r0, [r0], #-2
    320c:	0011e400 	andseq	lr, r1, r0, lsl #8
    3210:	32010400 	andcc	r0, r1, #0, 8
    3214:	0c000001 	stceq	0, cr0, [r0], {1}
    3218:	00000796 	muleq	r0, r6, r7
    321c:	00000596 	muleq	r0, r6, r5
    3220:	000003e0 	andeq	r0, r0, r0, ror #7
    3224:	00000000 	andeq	r0, r0, r0
    3228:	00001bc1 	andeq	r1, r0, r1, asr #23
    322c:	69050402 	stmdbvs	r5, {r1, sl}
    3230:	0300746e 	movweq	r7, #1134	; 0x46e
    3234:	00000025 	andeq	r0, r0, r5, lsr #32
    3238:	cf070404 	svcgt	0x00070404
    323c:	04000000 	streq	r0, [r0], #-0
    3240:	00720601 	rsbseq	r0, r2, r1, lsl #12
    3244:	02040000 	andeq	r0, r4, #0, 0
    3248:	00000005 	andeq	r0, r0, r5
    324c:	05040400 	streq	r0, [r4, #-1024]	; 0xfffffc00
    3250:	00000033 	andeq	r0, r0, r3, lsr r0
    3254:	2e050804 	cdpcs	8, 0, cr0, cr5, cr4, {0}
    3258:	04000000 	streq	r0, [r0], #-0
    325c:	00700801 	rsbseq	r0, r0, r1, lsl #16
    3260:	02040000 	andeq	r0, r4, #0, 0
    3264:	00010807 	andeq	r0, r1, r7, lsl #16
    3268:	07040400 	streq	r0, [r4, -r0, lsl #8]
    326c:	000000ca 	andeq	r0, r0, sl, asr #1
    3270:	c5070804 	strgt	r0, [r7, #-2052]	; 0xfffff7fc
    3274:	05000000 	streq	r0, [r0, #-0]
    3278:	00000025 	andeq	r0, r0, r5, lsr #32
    327c:	0000007f 	andeq	r0, r0, pc, ror r0
    3280:	00002506 	andeq	r2, r0, r6, lsl #10
    3284:	0a070000 	beq	1c328c <__bss_end__+0x1b82bc>
    3288:	02000000 	andeq	r0, r0, #0, 0
    328c:	008b0e1c 	addeq	r0, fp, ip, lsl lr
    3290:	04080000 	streq	r0, [r8], #-0
    3294:	00000070 	andeq	r0, r0, r0, ror r0
    3298:	00002505 	andeq	r2, r0, r5, lsl #10
    329c:	0000a000 	andeq	sl, r0, r0
    32a0:	00a00600 	adceq	r0, r0, r0, lsl #12
    32a4:	08000000 	stmdaeq	r0, {}	; <UNPREDICTABLE>
    32a8:	0000ad04 	andeq	sl, r0, r4, lsl #26
    32ac:	08010400 	stmdaeq	r1, {sl}
    32b0:	00000079 	andeq	r0, r0, r9, ror r0
    32b4:	0000a603 	andeq	sl, r0, r3, lsl #12
    32b8:	05fe0700 	ldrbeq	r0, [lr, #1792]!	; 0x700
    32bc:	21020000 	mrscs	r0, (UNDEF: 2)
    32c0:	0000be0e 	andeq	fp, r0, lr, lsl #28
    32c4:	91040800 	tstls	r4, r0, lsl #16
    32c8:	09000000 	stmdbeq	r0, {}	; <UNPREDICTABLE>
    32cc:	000007ba 			; <UNDEFINED> instruction: 0x000007ba
    32d0:	31110d01 	tstcc	r1, r1, lsl #26
    32d4:	0a000000 	beq	32dc <__code_start__-0x4d24>
    32d8:	000006da 	ldrdeq	r0, [r0], -sl
    32dc:	3c061f01 	stccc	15, cr1, [r6], {1}
    32e0:	60000098 	mulvs	r0, r8, r0
    32e4:	01000000 	mrseq	r0, (UNDEF: 0)
    32e8:	0001d59c 	muleq	r1, ip, r5
    32ec:	07de0b00 	ldrbeq	r0, [lr, r0, lsl #22]
    32f0:	2c010000 	stccs	0, cr0, [r1], {-0}
    32f4:	00002c0f 	andeq	r2, r0, pc, lsl #24
    32f8:	10001c00 	andne	r1, r0, r0, lsl #24
    32fc:	077f0b20 	ldrbeq	r0, [pc, -r0, lsr #22]!
    3300:	2d010000 	stccs	0, cr0, [r1, #-0]
    3304:	00002c0f 	andeq	r2, r0, pc, lsl #24
    3308:	10002400 	andne	r2, r0, r0, lsl #8
    330c:	07ab0b20 	streq	r0, [fp, r0, lsr #22]!
    3310:	2e010000 	cdpcs	0, 0, cr0, cr1, cr0, {0}
    3314:	00002c0f 	andeq	r2, r0, pc, lsl #24
    3318:	00000000 	andeq	r0, r0, r0
    331c:	07c50c5a 			; <UNDEFINED> instruction: 0x07c50c5a
    3320:	2f010000 	svccs	0x00010000
    3324:	00002c0f 	andeq	r2, r0, pc, lsl #24
    3328:	ef0d2000 	svc	0x000d2000
    332c:	3c000001 	stccc	0, cr0, [r0], {1}
    3330:	02000098 	andeq	r0, r0, #152, 0	; 0x98
    3334:	000003c8 	andeq	r0, r0, r8, asr #7
    3338:	4c082001 	stcmi	0, cr2, [r8], {1}
    333c:	0e000001 	cdpeq	0, 0, cr0, cr0, cr1, {0}
    3340:	000003c8 	andeq	r0, r0, r8, asr #7
    3344:	0002000f 	andeq	r0, r2, pc
    3348:	00241e00 	eoreq	r1, r4, r0, lsl #28
    334c:	00241a00 	eoreq	r1, r4, r0, lsl #20
    3350:	10000000 	andne	r0, r0, r0
    3354:	000001d5 	ldrdeq	r0, [r0], -r5
    3358:	00009850 	andeq	r9, r0, r0, asr r8
    335c:	00985001 	addseq	r5, r8, r1
    3360:	00001000 	andeq	r1, r0, r0
    3364:	09210100 	stmdbeq	r1!, {r8}
    3368:	00000173 	andeq	r0, r0, r3, ror r1
    336c:	0001e20f 	andeq	lr, r1, pc, lsl #4
    3370:	00244500 	eoreq	r4, r4, r0, lsl #10
    3374:	00243d00 	eoreq	r3, r4, r0, lsl #26
    3378:	64110000 	ldrvs	r0, [r1], #-0
    337c:	4f000098 	svcmi	0x00000098
    3380:	11000002 	tstne	r0, r2
    3384:	00009868 	andeq	r9, r0, r8, ror #16
    3388:	0000025c 	andeq	r0, r0, ip, asr r2
    338c:	00987012 	addseq	r7, r8, r2, lsl r0
    3390:	00026800 	andeq	r6, r2, r0, lsl #16
    3394:	00019800 	andeq	r9, r1, r0, lsl #16
    3398:	50011300 	andpl	r1, r1, r0, lsl #6
    339c:	12003a01 	andne	r3, r0, #4096	; 0x1000
    33a0:	0000987c 	andeq	r9, r0, ip, ror r8
    33a4:	00000274 	andeq	r0, r0, r4, ror r2
    33a8:	000001b8 			; <UNDEFINED> instruction: 0x000001b8
    33ac:	05500113 	ldrbeq	r0, [r0, #-275]	; 0xfffffeed
    33b0:	1000240c 	andne	r2, r0, ip, lsl #8
    33b4:	51011320 	tstpl	r1, r0, lsr #6
    33b8:	00010c05 	andeq	r0, r1, r5, lsl #24
    33bc:	14005a00 	strne	r5, [r0], #-2560	; 0xfffff600
    33c0:	00009888 	andeq	r9, r0, r8, lsl #17
    33c4:	00000274 	andeq	r0, r0, r4, ror r2
    33c8:	05500113 	ldrbeq	r0, [r0, #-275]	; 0xfffffeed
    33cc:	10001c0c 	andne	r1, r0, ip, lsl #24
    33d0:	51011320 	tstpl	r1, r0, lsr #6
    33d4:	00200c05 	eoreq	r0, r0, r5, lsl #24
    33d8:	00005a00 	andeq	r5, r0, r0, lsl #20
    33dc:	00078715 	andeq	r8, r7, r5, lsl r7
    33e0:	06170100 	ldreq	r0, [r7], -r0, lsl #2
    33e4:	0001ef01 	andeq	lr, r1, r1, lsl #30
    33e8:	07e60900 	strbeq	r0, [r6, r0, lsl #18]!
    33ec:	18010000 	stmdane	r1, {}	; <UNPREDICTABLE>
    33f0:	0000310e 	andeq	r3, r0, lr, lsl #2
    33f4:	b7160000 	ldrlt	r0, [r6, -r0]
    33f8:	01000007 	tsteq	r0, r7
    33fc:	0025050e 	eoreq	r0, r5, lr, lsl #10
    3400:	0d010000 	stceq	0, cr0, [r1, #-0]
    3404:	09000002 	stmdbeq	r0, {r1}
    3408:	000007e6 	andeq	r0, r0, r6, ror #15
    340c:	310e0f01 	tstcc	lr, r1, lsl #30
    3410:	00000000 	andeq	r0, r0, r0
    3414:	0001ef17 	andeq	lr, r1, r7, lsl pc
    3418:	00981000 	addseq	r1, r8, r0
    341c:	00001800 	andeq	r1, r0, r0, lsl #16
    3420:	2e9c0100 	fmlcse	f0, f4, f0
    3424:	0f000002 	svceq	0x00000002
    3428:	00000200 	andeq	r0, r0, r0, lsl #4
    342c:	00002482 	andeq	r2, r0, r2, lsl #9
    3430:	0000247e 	andeq	r2, r0, lr, ror r4
    3434:	01d51700 	bicseq	r1, r5, r0, lsl #14
    3438:	98280000 	stmdals	r8!, {}	; <UNPREDICTABLE>
    343c:	00140000 	andseq	r0, r4, r0
    3440:	9c010000 	stcls	0, cr0, [r1], {-0}
    3444:	0000024f 	andeq	r0, r0, pc, asr #4
    3448:	0001e20f 	andeq	lr, r1, pc, lsl #4
    344c:	0024a900 	eoreq	sl, r4, r0, lsl #18
    3450:	0024a100 	eoreq	sl, r4, r0, lsl #2
    3454:	70180000 	andsvc	r0, r8, r0
    3458:	70000007 	andvc	r0, r0, r7
    345c:	02000007 	andeq	r0, r0, #7, 0
    3460:	19060136 	stmdbne	r6, {r1, r2, r4, r5, r8}
    3464:	00000709 	andeq	r0, r0, r9, lsl #14
    3468:	00000709 	andeq	r0, r0, r9, lsl #14
    346c:	19064d02 	stmdbne	r6, {r1, r8, sl, fp, lr}
    3470:	000006e5 	andeq	r0, r0, r5, ror #13
    3474:	000006e5 	andeq	r0, r0, r5, ror #13
    3478:	19065802 	stmdbne	r6, {r1, fp, ip, lr}
    347c:	00000023 	andeq	r0, r0, r3, lsr #32
    3480:	00000023 	andeq	r0, r0, r3, lsr #32
    3484:	0006ad02 	andeq	sl, r6, r2, lsl #26
    3488:	0000053f 	andeq	r0, r0, pc, lsr r5
    348c:	13670004 	cmnne	r7, #4, 0
    3490:	01040000 	mrseq	r0, (UNDEF: 4)
    3494:	00000132 	andeq	r0, r0, r2, lsr r1
    3498:	0008010c 	andeq	r0, r8, ip, lsl #2
    349c:	00059600 	andeq	r9, r5, r0, lsl #12
    34a0:	00989c00 	addseq	r9, r8, r0, lsl #24
    34a4:	00011c00 	andeq	r1, r1, r0, lsl #24
    34a8:	001cd900 	andseq	sp, ip, r0, lsl #18
    34ac:	05040200 	streq	r0, [r4, #-512]	; 0xfffffe00
    34b0:	00746e69 	rsbseq	r6, r4, r9, ror #28
    34b4:	cf070403 	svcgt	0x00070403
    34b8:	03000000 	movweq	r0, #0
    34bc:	00720601 	rsbseq	r0, r2, r1, lsl #12
    34c0:	02030000 	andeq	r0, r3, #0, 0
    34c4:	00000005 	andeq	r0, r0, r5
    34c8:	05040300 	streq	r0, [r4, #-768]	; 0xfffffd00
    34cc:	00000033 	andeq	r0, r0, r3, lsr r0
    34d0:	2e050803 	cdpcs	8, 0, cr0, cr5, cr3, {0}
    34d4:	03000000 	movweq	r0, #0
    34d8:	00700801 	rsbseq	r0, r0, r1, lsl #16
    34dc:	02030000 	andeq	r0, r3, #0, 0
    34e0:	00010807 	andeq	r0, r1, r7, lsl #16
    34e4:	07040300 	streq	r0, [r4, -r0, lsl #6]
    34e8:	000000ca 	andeq	r0, r0, sl, asr #1
    34ec:	c5070803 	strgt	r0, [r7, #-2051]	; 0xfffff7fd
    34f0:	04000000 	streq	r0, [r0], #-0
    34f4:	00000025 	andeq	r0, r0, r5, lsr #32
    34f8:	0000007a 	andeq	r0, r0, sl, ror r0
    34fc:	00002505 	andeq	r2, r0, r5, lsl #10
    3500:	0a060000 	beq	183508 <__bss_end__+0x178538>
    3504:	02000000 	andeq	r0, r0, #0, 0
    3508:	00860e1c 	addeq	r0, r6, ip, lsl lr
    350c:	04070000 	streq	r0, [r7], #-0
    3510:	0000006b 	andeq	r0, r0, fp, rrx
    3514:	00002504 	andeq	r2, r0, r4, lsl #10
    3518:	00009b00 	andeq	r9, r0, r0, lsl #22
    351c:	009b0500 	addseq	r0, fp, r0, lsl #10
    3520:	07000000 	streq	r0, [r0, -r0]
    3524:	0000a804 	andeq	sl, r0, r4, lsl #16
    3528:	08010300 	stmdaeq	r1, {r8, r9}
    352c:	00000079 	andeq	r0, r0, r9, ror r0
    3530:	0000a108 	andeq	sl, r0, r8, lsl #2
    3534:	05fe0600 	ldrbeq	r0, [lr, #1536]!	; 0x600
    3538:	21020000 	mrscs	r0, (UNDEF: 2)
    353c:	0000b90e 	andeq	fp, r0, lr, lsl #18
    3540:	8c040700 	stchi	7, cr0, [r4], {-0}
    3544:	09000000 	stmdbeq	r0, {}	; <UNPREDICTABLE>
    3548:	000007f7 	strdeq	r0, [r0], -r7
    354c:	64061e01 	strvs	r1, [r6], #-3585	; 0xfffff1ff
    3550:	54000099 	strpl	r0, [r0], #-153	; 0xffffff67
    3554:	01000000 	mrseq	r0, (UNDEF: 0)
    3558:	00020b9c 	muleq	r2, ip, fp
    355c:	65730a00 	ldrbvs	r0, [r3, #-2560]!	; 0xfffff600
    3560:	1e010063 	cdpne	0, 0, cr0, cr1, cr3, {3}
    3564:	00002c19 	andeq	r2, r0, r9, lsl ip
    3568:	0024e600 	eoreq	lr, r4, r0, lsl #12
    356c:	0024e200 	eoreq	lr, r4, r0, lsl #4
    3570:	020b0b00 	andeq	r0, fp, #0, 22
    3574:	99640000 	stmdbls	r4!, {}^	; <UNPREDICTABLE>
    3578:	a8020000 	stmdage	r2, {}	; <UNPREDICTABLE>
    357c:	01000004 	tsteq	r0, r4
    3580:	180c051f 	stmdane	ip, {r0, r1, r2, r3, r4, r8, sl}
    3584:	0b000002 	bleq	3594 <__code_start__-0x4a6c>
    3588:	07000025 	streq	r0, [r0, -r5, lsr #32]
    358c:	0d000025 	stceq	0, cr0, [r0, #-148]	; 0xffffff6c
    3590:	00000224 	andeq	r0, r0, r4, lsr #4
    3594:	00009978 	andeq	r9, r0, r8, ror r9
    3598:	00997800 	addseq	r7, r9, r0, lsl #16
    359c:	00004000 	andeq	r4, r0, r0
    35a0:	051c0100 	ldreq	r0, [ip, #-256]	; 0xffffff00
    35a4:	0002310c 	andeq	r3, r2, ip, lsl #2
    35a8:	00253800 	eoreq	r3, r5, r0, lsl #16
    35ac:	00253600 	eoreq	r3, r5, r0, lsl #12
    35b0:	023c0e00 	eorseq	r0, ip, #0, 28
    35b4:	254d0000 	strbcs	r0, [sp, #-0]
    35b8:	254b0000 	strbcs	r0, [fp, #-0]
    35bc:	550f0000 	strpl	r0, [pc, #-0]	; 35c4 <__code_start__-0x4a3c>
    35c0:	78000002 	stmdavc	r0, {r1}
    35c4:	02000099 	andeq	r0, r0, #153, 0	; 0x99
    35c8:	00009978 	andeq	r9, r0, r8, ror r9
    35cc:	00000014 	andeq	r0, r0, r4, lsl r0
    35d0:	9c131301 	ldcls	3, cr1, [r3], {1}
    35d4:	0e000001 	cdpeq	0, 0, cr0, cr0, cr1, {0}
    35d8:	00000266 	andeq	r0, r0, r6, ror #4
    35dc:	00002564 	andeq	r2, r0, r4, ror #10
    35e0:	00002560 	andeq	r2, r0, r0, ror #10
    35e4:	0002710f 	andeq	r7, r2, pc, lsl #2
    35e8:	00997c00 	addseq	r7, r9, r0, lsl #24
    35ec:	997c0100 	ldmdbls	ip!, {r8}^
    35f0:	000c0000 	andeq	r0, ip, r0
    35f4:	0d010000 	stceq	0, cr0, [r1, #-0]
    35f8:	00018912 	andeq	r8, r1, r2, lsl r9
    35fc:	99841000 	stmibls	r4, {ip}
    3600:	052a0000 	streq	r0, [sl, #-0]!
    3604:	01110000 	tsteq	r1, r0
    3608:	040c0550 	streq	r0, [ip], #-1360	; 0xfffffab0
    360c:	00200030 	eoreq	r0, r0, r0, lsr r0
    3610:	997c1200 	ldmdbls	ip!, {r9, ip}^
    3614:	05360000 	ldreq	r0, [r6, #-0]!
    3618:	8c120000 	ldchi	0, cr0, [r2], {-0}
    361c:	36000099 			; <UNDEFINED> instruction: 0x36000099
    3620:	00000005 	andeq	r0, r0, r5
    3624:	00024713 	andeq	r4, r2, r3, lsl r7
    3628:	0004c000 	andeq	ip, r4, r0
    362c:	02481400 	subeq	r1, r8, #0, 8
    3630:	550b0000 	strpl	r0, [fp, #-0]
    3634:	90000002 	andls	r0, r0, r2
    3638:	02000099 	andeq	r0, r0, #153, 0	; 0x99
    363c:	000004d8 	ldrdeq	r0, [r0], -r8
    3640:	15171501 	ldrne	r1, [r7, #-1281]	; 0xfffffaff
    3644:	000004d8 	ldrdeq	r0, [r0], -r8
    3648:	0002660e 	andeq	r6, r2, lr, lsl #12
    364c:	00258400 	eoreq	r8, r5, r0, lsl #8
    3650:	00258200 	eoreq	r8, r5, r0, lsl #4
    3654:	02711600 	rsbseq	r1, r1, #0, 12
    3658:	99940000 	ldmibls	r4, {}	; <UNPREDICTABLE>
    365c:	f8010000 			; <UNDEFINED> instruction: 0xf8010000
    3660:	01000004 	tsteq	r0, r4
    3664:	01f3120d 	mvnseq	r1, sp, lsl #4
    3668:	9c100000 	ldcls	0, cr0, [r0], {-0}
    366c:	2a000099 	bcs	38d8 <__code_start__-0x4728>
    3670:	11000005 	tstne	r0, r5
    3674:	77025001 	strvc	r5, [r2, -r1]
    3678:	12000000 	andne	r0, r0, #0, 0
    367c:	00009994 	muleq	r0, r4, r9
    3680:	00000536 	andeq	r0, r0, r6, lsr r5
    3684:	0099a812 	addseq	sl, r9, r2, lsl r8
    3688:	00053600 	andeq	r3, r5, r0, lsl #12
    368c:	00000000 	andeq	r0, r0, r0
    3690:	17000000 	strne	r0, [r0, -r0]
    3694:	000006e5 	andeq	r0, r0, r5, ror #13
    3698:	01061b01 	tsteq	r6, r1, lsl #22
    369c:	00000224 	andeq	r0, r0, r4, lsr #4
    36a0:	00736d18 	rsbseq	r6, r3, r8, lsl sp
    36a4:	2c181b01 			; <UNDEFINED> instruction: 0x2c181b01
    36a8:	00000000 	andeq	r0, r0, r0
    36ac:	00082a17 	andeq	r2, r8, r7, lsl sl
    36b0:	06120100 	ldreq	r0, [r2], -r0, lsl #2
    36b4:	00025501 	andeq	r5, r2, r1, lsl #10
    36b8:	73751800 	cmnvc	r5, #0, 16
    36bc:	18120100 	ldmdane	r2, {r8}
    36c0:	0000002c 	andeq	r0, r0, ip, lsr #32
    36c4:	00627219 	rsbeq	r7, r2, r9, lsl r2
    36c8:	2c0e1301 	stccs	3, cr1, [lr], {1}
    36cc:	1a000000 	bne	36d4 <__code_start__-0x492c>
    36d0:	00617219 	rsbeq	r7, r1, r9, lsl r2
    36d4:	2c121501 	cfldr32cs	mvfx1, [r2], {1}
    36d8:	00000000 	andeq	r0, r0, r0
    36dc:	081b1b00 	ldmdaeq	fp, {r8, r9, fp, ip}
    36e0:	09010000 	stmdbeq	r1, {}	; <UNPREDICTABLE>
    36e4:	00002c0a 	andeq	r2, r0, sl, lsl #24
    36e8:	02710100 	rsbseq	r0, r1, #0
    36ec:	75190000 	ldrvc	r0, [r9, #-0]
    36f0:	0e0d0100 	adfeqe	f0, f5, f0
    36f4:	0000002c 	andeq	r0, r0, ip, lsr #32
    36f8:	08331c00 	ldmdaeq	r3!, {sl, fp, ip}
    36fc:	04010000 	streq	r0, [r1], #-0
    3700:	00002c0a 	andeq	r2, r0, sl, lsl #24
    3704:	711d0100 	tstvc	sp, r0, lsl #2
    3708:	9c000002 	stcls	0, cr0, [r0], {2}
    370c:	0c000098 	stceq	0, cr0, [r0], {152}	; 0x98
    3710:	01000000 	mrseq	r0, (UNDEF: 0)
    3714:	0002a59c 	muleq	r2, ip, r5
    3718:	98a41e00 	stmials	r4!, {r9, sl, fp, ip}
    371c:	052a0000 	streq	r0, [sl, #-0]!
    3720:	01110000 	tsteq	r1, r0
    3724:	040c0550 	streq	r0, [ip], #-1360	; 0xfffffab0
    3728:	00200030 	eoreq	r0, r0, r0, lsr r0
    372c:	02551d00 	subseq	r1, r5, #0, 26
    3730:	98a80000 	stmials	r8!, {}	; <UNPREDICTABLE>
    3734:	00240000 	eoreq	r0, r4, r0
    3738:	9c010000 	stcls	0, cr0, [r1], {-0}
    373c:	00000305 	andeq	r0, r0, r5, lsl #6
    3740:	0002660e 	andeq	r6, r2, lr, lsl #12
    3744:	00259b00 	eoreq	r9, r5, r0, lsl #22
    3748:	00259700 	eoreq	r9, r5, r0, lsl #14
    374c:	02710f00 	rsbseq	r0, r1, #0, 30
    3750:	98b00000 	ldmls	r0!, {}	; <UNPREDICTABLE>
    3754:	b0010000 	andlt	r0, r1, r0
    3758:	0c000098 	stceq	0, cr0, [r0], {152}	; 0x98
    375c:	01000000 	mrseq	r0, (UNDEF: 0)
    3760:	02f2120d 	rscseq	r1, r2, #-805306368	; 0xd0000000
    3764:	b8100000 	ldmdalt	r0, {}	; <UNPREDICTABLE>
    3768:	2a000098 	bcs	39d0 <__code_start__-0x4630>
    376c:	11000005 	tstne	r0, r5
    3770:	0c055001 	stceq	0, cr5, [r5], {1}
    3774:	20003004 	andcs	r3, r0, r4
    3778:	b0120000 	andslt	r0, r2, r0
    377c:	36000098 			; <UNDEFINED> instruction: 0x36000098
    3780:	12000005 	andne	r0, r0, #5, 0
    3784:	000098c0 	andeq	r9, r0, r0, asr #17
    3788:	00000536 	andeq	r0, r0, r6, lsr r5
    378c:	02241d00 	eoreq	r1, r4, #0, 26
    3790:	98cc0000 	stmials	ip, {}^	; <UNPREDICTABLE>
    3794:	00480000 	subeq	r0, r8, r0
    3798:	9c010000 	stcls	0, cr0, [r1], {-0}
    379c:	00000407 	andeq	r0, r0, r7, lsl #8
    37a0:	0002310c 	andeq	r3, r2, ip, lsl #2
    37a4:	0025bd00 	eoreq	fp, r5, r0, lsl #26
    37a8:	0025b900 	eoreq	fp, r5, r0, lsl #18
    37ac:	023c0e00 	eorseq	r0, ip, #0, 28
    37b0:	25dd0000 	ldrbcs	r0, [sp]
    37b4:	25db0000 	ldrbcs	r0, [fp]
    37b8:	55160000 	ldrpl	r0, [r6, #-0]
    37bc:	cc000002 	stcgt	0, cr0, [r0], {2}
    37c0:	02000098 	andeq	r0, r0, #152, 0	; 0x98
    37c4:	000003f0 	strdeq	r0, [r0], -r0	; <UNPREDICTABLE>
    37c8:	9a131301 	bls	4c83d4 <__bss_end__+0x4bd404>
    37cc:	15000003 	strne	r0, [r0, #-3]
    37d0:	000003f0 	strdeq	r0, [r0], -r0	; <UNPREDICTABLE>
    37d4:	0002660e 	andeq	r6, r2, lr, lsl #12
    37d8:	0025f400 	eoreq	pc, r5, r0, lsl #8
    37dc:	0025f000 	eoreq	pc, r5, r0
    37e0:	02710f00 	rsbseq	r0, r1, #0, 30
    37e4:	98d80000 	ldmls	r8, {}^	; <UNPREDICTABLE>
    37e8:	d8010000 	stmdale	r1, {}	; <UNPREDICTABLE>
    37ec:	0c000098 	stceq	0, cr0, [r0], {152}	; 0x98
    37f0:	01000000 	mrseq	r0, (UNDEF: 0)
    37f4:	0386120d 	orreq	r1, r6, #-805306368	; 0xd0000000
    37f8:	e0100000 	ands	r0, r0, r0
    37fc:	2a000098 	bcs	3a64 <__code_start__-0x459c>
    3800:	11000005 	tstne	r0, r5
    3804:	0c055001 	stceq	0, cr5, [r5], {1}
    3808:	20003004 	andcs	r3, r0, r4
    380c:	d8120000 	ldmdale	r2, {}	; <UNPREDICTABLE>
    3810:	36000098 			; <UNDEFINED> instruction: 0x36000098
    3814:	12000005 	andne	r0, r0, #5, 0
    3818:	000098e8 	andeq	r9, r0, r8, ror #17
    381c:	00000536 	andeq	r0, r0, r6, lsr r5
    3820:	47130000 	ldrmi	r0, [r3, -r0]
    3824:	08000002 	stmdaeq	r0, {r1}
    3828:	14000004 	strne	r0, [r0], #-4
    382c:	00000248 	andeq	r0, r0, r8, asr #4
    3830:	0002550b 	andeq	r5, r2, fp, lsl #10
    3834:	0098ec00 	addseq	lr, r8, r0, lsl #24
    3838:	04200200 	strteq	r0, [r0], #-512	; 0xfffffe00
    383c:	15010000 	strne	r0, [r1, #-0]
    3840:	04201517 	strteq	r1, [r0], #-1303	; 0xfffffae9
    3844:	660e0000 	strvs	r0, [lr], -r0
    3848:	14000002 	strne	r0, [r0], #-2
    384c:	12000026 	andne	r0, r0, #38, 0	; 0x26
    3850:	16000026 	strne	r0, [r0], -r6, lsr #32
    3854:	00000271 	andeq	r0, r0, r1, ror r2
    3858:	000098f0 	strdeq	r9, [r0], -r0
    385c:	00044001 	andeq	r4, r4, r1
    3860:	120d0100 	andne	r0, sp, #0
    3864:	000003f1 	strdeq	r0, [r0], -r1
    3868:	0098f810 	addseq	pc, r8, r0, lsl r8	; <UNPREDICTABLE>
    386c:	00052a00 	andeq	r2, r5, r0, lsl #20
    3870:	50011100 	andpl	r1, r1, r0, lsl #2
    3874:	00007702 	andeq	r7, r0, r2, lsl #14
    3878:	98f01200 	ldmls	r0!, {r9, ip}^
    387c:	05360000 	ldreq	r0, [r6, #-0]!
    3880:	04120000 	ldreq	r0, [r2], #-0
    3884:	36000099 			; <UNDEFINED> instruction: 0x36000099
    3888:	00000005 	andeq	r0, r0, r5
    388c:	1d000000 	stcne	0, cr0, [r0, #-0]
    3890:	0000020b 	andeq	r0, r0, fp, lsl #4
    3894:	00009914 	andeq	r9, r0, r4, lsl r9
    3898:	00000050 	andeq	r0, r0, r0, asr r0
    389c:	052a9c01 	streq	r9, [sl, #-3073]!	; 0xfffff3ff
    38a0:	180c0000 	stmdane	ip, {}	; <UNPREDICTABLE>
    38a4:	2b000002 	blcs	38b4 <__code_start__-0x474c>
    38a8:	27000026 	strcs	r0, [r0, -r6, lsr #32]
    38ac:	0d000026 	stceq	0, cr0, [r0, #-152]	; 0xffffff68
    38b0:	00000224 	andeq	r0, r0, r4, lsr #4
    38b4:	00009924 	andeq	r9, r0, r4, lsr #18
    38b8:	00992400 	addseq	r2, r9, r0, lsl #8
    38bc:	00004000 	andeq	r4, r0, r0
    38c0:	051c0100 	ldreq	r0, [ip, #-256]	; 0xffffff00
    38c4:	0002310c 	andeq	r3, r2, ip, lsl #2
    38c8:	00264e00 	eoreq	r4, r6, r0, lsl #28
    38cc:	00264c00 	eoreq	r4, r6, r0, lsl #24
    38d0:	023c0e00 	eorseq	r0, ip, #0, 28
    38d4:	26630000 	strbtcs	r0, [r3], -r0
    38d8:	26610000 	strbtcs	r0, [r1], -r0
    38dc:	550f0000 	strpl	r0, [pc, #-0]	; 38e4 <__code_start__-0x471c>
    38e0:	24000002 	strcs	r0, [r0], #-2
    38e4:	02000099 	andeq	r0, r0, #153, 0	; 0x99
    38e8:	00009924 	andeq	r9, r0, r4, lsr #18
    38ec:	00000014 	andeq	r0, r0, r4, lsl r0
    38f0:	bc131301 	ldclt	3, cr1, [r3], {1}
    38f4:	0e000004 	cdpeq	0, 0, cr0, cr0, cr4, {0}
    38f8:	00000266 	andeq	r0, r0, r6, ror #4
    38fc:	0000267a 	andeq	r2, r0, sl, ror r6
    3900:	00002676 	andeq	r2, r0, r6, ror r6
    3904:	0002710f 	andeq	r7, r2, pc, lsl #2
    3908:	00992800 	addseq	r2, r9, r0, lsl #16
    390c:	99280100 	stmdbls	r8!, {r8}
    3910:	000c0000 	andeq	r0, ip, r0
    3914:	0d010000 	stceq	0, cr0, [r1, #-0]
    3918:	0004a912 	andeq	sl, r4, r2, lsl r9
    391c:	99301000 	ldmdbls	r0!, {ip}
    3920:	052a0000 	streq	r0, [sl, #-0]!
    3924:	01110000 	tsteq	r1, r0
    3928:	040c0550 	streq	r0, [ip], #-1360	; 0xfffffab0
    392c:	00200030 	eoreq	r0, r0, r0, lsr r0
    3930:	99281200 	stmdbls	r8!, {r9, ip}
    3934:	05360000 	ldreq	r0, [r6, #-0]!
    3938:	38120000 	ldmdacc	r2, {}	; <UNPREDICTABLE>
    393c:	36000099 			; <UNDEFINED> instruction: 0x36000099
    3940:	00000005 	andeq	r0, r0, r5
    3944:	00024713 	andeq	r4, r2, r3, lsl r7
    3948:	00045800 	andeq	r5, r4, r0, lsl #16
    394c:	02481400 	subeq	r1, r8, #0, 8
    3950:	550b0000 	strpl	r0, [fp, #-0]
    3954:	3c000002 	stccc	0, cr0, [r0], {2}
    3958:	02000099 	andeq	r0, r0, #153, 0	; 0x99
    395c:	00000470 	andeq	r0, r0, r0, ror r4
    3960:	15171501 	ldrne	r1, [r7, #-1281]	; 0xfffffaff
    3964:	00000470 	andeq	r0, r0, r0, ror r4
    3968:	0002660e 	andeq	r6, r2, lr, lsl #12
    396c:	00269a00 	eoreq	r9, r6, r0, lsl #20
    3970:	00269800 	eoreq	r9, r6, r0, lsl #16
    3974:	02711600 	rsbseq	r1, r1, #0, 12
    3978:	99400000 	stmdbls	r0, {}^	; <UNPREDICTABLE>
    397c:	90010000 	andls	r0, r1, r0
    3980:	01000004 	tsteq	r0, r4
    3984:	0513120d 	ldreq	r1, [r3, #-525]	; 0xfffffdf3
    3988:	48100000 	ldmdami	r0, {}	; <UNPREDICTABLE>
    398c:	2a000099 	bcs	3bf8 <__code_start__-0x4408>
    3990:	11000005 	tstne	r0, r5
    3994:	77025001 	strvc	r5, [r2, -r1]
    3998:	12000000 	andne	r0, r0, #0, 0
    399c:	00009940 	andeq	r9, r0, r0, asr #18
    39a0:	00000536 	andeq	r0, r0, r6, lsr r5
    39a4:	00995412 	addseq	r5, r9, r2, lsl r4
    39a8:	00053600 	andeq	r3, r5, r0, lsl #12
    39ac:	00000000 	andeq	r0, r0, r0
    39b0:	151f0000 	ldrne	r0, [pc, #-0]	; 39b8 <__code_start__-0x4648>
    39b4:	15000008 	strne	r0, [r0, #-8]
    39b8:	02000008 	andeq	r0, r0, #8, 0
    39bc:	eb1f0ac2 	bl	7c64cc <__bss_end__+0x7bb4fc>
    39c0:	eb000007 	bl	39e4 <__code_start__-0x461c>
    39c4:	02000007 	andeq	r0, r0, #7, 0
    39c8:	cd00069c 	stcgt	6, cr0, [r0, #-624]	; 0xfffffd90
    39cc:	04000005 	streq	r0, [r0], #-5
    39d0:	00153600 	andseq	r3, r5, r0, lsl #12
    39d4:	46010400 	strmi	r0, [r1], -r0, lsl #8
    39d8:	0c000009 	stceq	0, cr0, [r0], {9}
    39dc:	00000885 	andeq	r0, r0, r5, lsl #17
    39e0:	000008f6 	strdeq	r0, [r0], -r6
    39e4:	000099b8 			; <UNDEFINED> instruction: 0x000099b8
    39e8:	000001f0 	strdeq	r0, [r0], -r0	; <UNPREDICTABLE>
    39ec:	00001ed7 	ldrdeq	r1, [r0], -r7
    39f0:	69050402 	stmdbvs	r5, {r1, sl}
    39f4:	0300746e 	movweq	r7, #1134	; 0x46e
    39f8:	00cf0704 	sbceq	r0, pc, r4, lsl #14
    39fc:	2c040000 	stccs	0, cr0, [r4], {-0}
    3a00:	03000000 	movweq	r0, #0
    3a04:	00720601 	rsbseq	r0, r2, r1, lsl #12
    3a08:	02030000 	andeq	r0, r3, #0, 0
    3a0c:	00000005 	andeq	r0, r0, r5
    3a10:	05040300 	streq	r0, [r4, #-768]	; 0xfffffd00
    3a14:	00000033 	andeq	r0, r0, r3, lsr r0
    3a18:	2e050803 	cdpcs	8, 0, cr0, cr5, cr3, {0}
    3a1c:	03000000 	movweq	r0, #0
    3a20:	00700801 	rsbseq	r0, r0, r1, lsl #16
    3a24:	02030000 	andeq	r0, r3, #0, 0
    3a28:	00010807 	andeq	r0, r1, r7, lsl #16
    3a2c:	00dc0500 	sbcseq	r0, ip, r0, lsl #10
    3a30:	34050000 	strcc	r0, [r5], #-0
    3a34:	00006e19 	andeq	r6, r0, r9, lsl lr
    3a38:	07040300 	streq	r0, [r4, -r0, lsl #6]
    3a3c:	000000ca 	andeq	r0, r0, sl, asr #1
    3a40:	c5070803 	strgt	r0, [r7, #-2051]	; 0xfffff7fd
    3a44:	03000000 	movweq	r0, #0
    3a48:	00790801 	rsbseq	r0, r9, r1, lsl #16
    3a4c:	07060000 	streq	r0, [r6, -r0]
    3a50:	00005401 	andeq	r5, r0, r1, lsl #8
    3a54:	0e0c0400 	cfcpyseq	mvf0, mvf12
    3a58:	000000c2 	andeq	r0, r0, r2, asr #1
    3a5c:	000a3007 	andeq	r3, sl, r7
    3a60:	68070000 	stmdavs	r7, {}	; <UNPREDICTABLE>
    3a64:	01000008 	tsteq	r0, r8
    3a68:	0008ab07 	andeq	sl, r8, r7, lsl #22
    3a6c:	ba070400 	blt	1c4a74 <__bss_end__+0x1b9aa4>
    3a70:	05000008 	streq	r0, [r0, #-8]
    3a74:	0008c907 	andeq	ip, r8, r7, lsl #18
    3a78:	d8070600 	stmdale	r7, {r9, sl}
    3a7c:	07000008 	streq	r0, [r0, -r8]
    3a80:	0009f907 	andeq	pc, r9, r7, lsl #18
    3a84:	e7070300 	str	r0, [r7, -r0, lsl #6]
    3a88:	02000008 	andeq	r0, r0, #8, 0
    3a8c:	08790800 	ldmdaeq	r9!, {fp}^
    3a90:	022c0000 	eoreq	r0, ip, #0, 0
    3a94:	015e0806 	cmpeq	lr, r6, lsl #16
    3a98:	69090000 	stmdbvs	r9, {}	; <UNPREDICTABLE>
    3a9c:	0902006f 	stmdbeq	r2, {r0, r1, r2, r3, r5, r6}
    3aa0:	00003309 	andeq	r3, r0, r9, lsl #6
    3aa4:	69090000 	stmdbvs	r9, {}	; <UNPREDICTABLE>
    3aa8:	02007265 	andeq	r7, r0, #1342177286	; 0x50000006
    3aac:	0033090a 	eorseq	r0, r3, sl, lsl #18
    3ab0:	09040000 	stmdbeq	r4, {}	; <UNPREDICTABLE>
    3ab4:	00726969 	rsbseq	r6, r2, r9, ror #18
    3ab8:	33091102 	movwcc	r1, #37122	; 0x9102
    3abc:	08000000 	stmdaeq	r0, {}	; <UNPREDICTABLE>
    3ac0:	72636c09 	rsbvc	r6, r3, #2304	; 0x900
    3ac4:	09130200 	ldmdbeq	r3, {r9}
    3ac8:	00000033 	andeq	r0, r0, r3, lsr r0
    3acc:	636d090c 	cmnvs	sp, #12, 18	; 0x30000
    3ad0:	14020072 	strne	r0, [r2], #-114	; 0xffffff8e
    3ad4:	00003309 	andeq	r3, r0, r9, lsl #6
    3ad8:	6c091000 	stcvs	0, cr1, [r9], {-0}
    3adc:	02007273 	andeq	r7, r0, #805306375	; 0x30000007
    3ae0:	00330915 	eorseq	r0, r3, r5, lsl r9
    3ae4:	09140000 	ldmdbeq	r4, {}	; <UNPREDICTABLE>
    3ae8:	0072736d 	rsbseq	r7, r2, sp, ror #6
    3aec:	33091602 	movwcc	r1, #38402	; 0x9602
    3af0:	18000000 	stmdane	r0, {}	; <UNPREDICTABLE>
    3af4:	000a100a 	andeq	r1, sl, sl
    3af8:	09170200 	ldmdbeq	r7, {r9}
    3afc:	00000033 	andeq	r0, r0, r3, lsr r0
    3b00:	09d90a1c 	ldmibeq	r9, {r2, r3, r4, r9, fp}^
    3b04:	1b020000 	blne	83b0c <__bss_end__+0x78b3c>
    3b08:	00003309 	andeq	r3, r0, r9, lsl #6
    3b0c:	550a2000 	strpl	r2, [sl, #-0]
    3b10:	02000008 	andeq	r0, r0, #8, 0
    3b14:	0033091d 	eorseq	r0, r3, sp, lsl r9
    3b18:	0a240000 	beq	903b20 <__bss_end__+0x8f8b50>
    3b1c:	0000092b 	andeq	r0, r0, fp, lsr #18
    3b20:	33091e02 	movwcc	r1, #40450	; 0x9e02
    3b24:	28000000 	stmdacs	r0, {}	; <UNPREDICTABLE>
    3b28:	09300b00 	ldmdbeq	r0!, {r8, r9, fp}
    3b2c:	08010000 	stmdaeq	r1, {}	; <UNPREDICTABLE>
    3b30:	00017409 	andeq	r7, r1, r9, lsl #8
    3b34:	21500400 	cmpcs	r0, r0, lsl #8
    3b38:	33040c20 	movwcc	r0, #19488	; 0x4c20
    3b3c:	0d000000 	stceq	0, cr0, [r0, #-0]
    3b40:	0000016e 	andeq	r0, r0, lr, ror #2
    3b44:	000a180b 	andeq	r1, sl, fp, lsl #16
    3b48:	23290100 			; <UNDEFINED> instruction: 0x23290100
    3b4c:	0000018f 	andeq	r0, r0, pc, lsl #3
    3b50:	20215040 	eorcs	r5, r1, r0, asr #32
    3b54:	00c2040c 	sbceq	r0, r2, ip, lsl #8
    3b58:	890d0000 	stmdbhi	sp, {}	; <UNPREDICTABLE>
    3b5c:	0e000001 	cdpeq	0, 0, cr0, cr0, cr1, {0}
    3b60:	00000709 	andeq	r0, r0, r9, lsl #14
    3b64:	7006cc01 	andvc	ip, r6, r1, lsl #24
    3b68:	1400009b 	strne	r0, [r0], #-155	; 0xffffff65
    3b6c:	01000000 	mrseq	r0, (UNDEF: 0)
    3b70:	0001b49c 	muleq	r1, ip, r4
    3b74:	9b780f00 	blls	1e0777c <__bss_end__+0x1dfc7ac>
    3b78:	01b40000 			; <UNDEFINED> instruction: 0x01b40000
    3b7c:	10000000 	andne	r0, r0, r0
    3b80:	0000089a 	muleq	r0, sl, r8
    3b84:	2505b601 	strcs	fp, [r5, #-1537]	; 0xfffff9ff
    3b88:	50000000 	andpl	r0, r0, r0
    3b8c:	2000009b 	mulcs	r0, fp, r0
    3b90:	01000000 	mrseq	r0, (UNDEF: 0)
    3b94:	0001eb9c 	muleq	r1, ip, fp
    3b98:	9b580f00 	blls	16077a0 <__bss_end__+0x15fc7d0>
    3b9c:	05a00000 	streq	r0, [r0, #0]!
    3ba0:	60110000 	andsvs	r0, r1, r0
    3ba4:	ac00009b 	stcge	0, cr0, [r0], {155}	; 0x9b
    3ba8:	12000005 	andne	r0, r0, #5, 0
    3bac:	0c055001 	stceq	0, cr5, [r5], {1}
    3bb0:	20215064 	eorcs	r5, r1, r4, rrx
    3bb4:	eb100000 	bl	403bbc <__bss_end__+0x3f8bec>
    3bb8:	01000009 	tsteq	r0, r9
    3bbc:	002505b3 	strhteq	r0, [r5], -r3
    3bc0:	9b400000 	blls	1003bc8 <__bss_end__+0xff8bf8>
    3bc4:	00100000 	andseq	r0, r0, r0
    3bc8:	9c010000 	stcls	0, cr0, [r1], {-0}
    3bcc:	00000218 	andeq	r0, r0, r8, lsl r2
    3bd0:	009b480f 	addseq	r4, fp, pc, lsl #16
    3bd4:	0005a000 	andeq	sl, r5, r0
    3bd8:	9b4c0f00 	blls	13077e0 <__bss_end__+0x12fc810>
    3bdc:	03090000 	movweq	r0, #36864	; 0x9000
    3be0:	0e000000 	cdpeq	0, 0, cr0, cr0, cr0, {0}
    3be4:	00000a26 	andeq	r0, r0, r6, lsr #20
    3be8:	1006ab01 	andne	sl, r6, r1, lsl #22
    3bec:	3000009b 	mulcc	r0, fp, r0
    3bf0:	01000000 	mrseq	r0, (UNDEF: 0)
    3bf4:	00027c9c 	muleq	r2, ip, ip
    3bf8:	00631300 	rsbeq	r1, r3, r0, lsl #6
    3bfc:	2c19ab01 			; <UNDEFINED> instruction: 0x2c19ab01
    3c00:	b1000000 	mrslt	r0, (UNDEF: 0)
    3c04:	ad000026 	stcge	0, cr0, [r0, #-152]	; 0xffffff68
    3c08:	0f000026 	svceq	0x00000026
    3c0c:	00009b1c 	andeq	r9, r0, ip, lsl fp
    3c10:	000005a0 	andeq	r0, r0, r0, lsr #11
    3c14:	009b200f 	addseq	r2, fp, pc
    3c18:	0002db00 	andeq	sp, r2, r0, lsl #22
    3c1c:	9b341400 	blls	d08c24 <__bss_end__+0xcfdc54>
    3c20:	05b80000 	ldreq	r0, [r8, #0]!
    3c24:	02720000 	rsbseq	r0, r2, #0, 0
    3c28:	01120000 	tsteq	r2, r0
    3c2c:	400c0550 	andmi	r0, ip, r0, asr r5
    3c30:	12202150 	eorne	r2, r0, #20
    3c34:	74055101 	strvc	r5, [r5], #-257	; 0xfffffeff
    3c38:	1aff0800 	bne	fffc5c40 <__bss_end__+0xfffbac70>
    3c3c:	9b380f00 	blls	e07844 <__bss_end__+0xdfc874>
    3c40:	05a00000 	streq	r0, [r0, #0]!
    3c44:	10000000 	andne	r0, r0, r0
    3c48:	0000093c 	andeq	r0, r0, ip, lsr r9
    3c4c:	2505a301 	strcs	sl, [r5, #-769]	; 0xfffffcff
    3c50:	e0000000 	and	r0, r0, r0
    3c54:	3000009a 	mulcc	r0, sl, r0
    3c58:	01000000 	mrseq	r0, (UNDEF: 0)
    3c5c:	0002db9c 	muleq	r2, ip, fp
    3c60:	00631500 	rsbeq	r1, r3, r0, lsl #10
    3c64:	2509a701 	strcs	sl, [r9, #-1793]	; 0xfffff8ff
    3c68:	d1000000 	mrsle	r0, (UNDEF: 0)
    3c6c:	cf000026 	svcgt	0x00000026
    3c70:	0f000026 	svceq	0x00000026
    3c74:	00009ae8 	andeq	r9, r0, r8, ror #21
    3c78:	000005a0 	andeq	r0, r0, r0, lsr #11
    3c7c:	009aec0f 	addseq	lr, sl, pc, lsl #24
    3c80:	00030900 	andeq	r0, r3, r0, lsl #18
    3c84:	9afc1400 	bls	fff08c8c <__bss_end__+0xffefdcbc>
    3c88:	05ac0000 	streq	r0, [ip, #0]!
    3c8c:	02d10000 	sbcseq	r0, r1, #0, 0
    3c90:	01120000 	tsteq	r2, r0
    3c94:	400c0550 	andmi	r0, ip, r0, asr r5
    3c98:	00202150 	eoreq	r2, r0, r0, asr r1
    3c9c:	009b040f 	addseq	r0, fp, pc, lsl #8
    3ca0:	0005a000 	andeq	sl, r5, r0
    3ca4:	8c100000 	ldchi	0, cr0, [r0], {-0}
    3ca8:	01000008 	tsteq	r0, r8
    3cac:	00250594 	mlaeq	r5, r4, r5, r0
    3cb0:	9ac00000 	bls	ff003cb8 <__bss_end__+0xfeff8ce8>
    3cb4:	00200000 	eoreq	r0, r0, r0
    3cb8:	9c010000 	stcls	0, cr0, [r1], {-0}
    3cbc:	00000309 	andeq	r0, r0, r9, lsl #6
    3cc0:	009acc11 	addseq	ip, sl, r1, lsl ip
    3cc4:	0005ac00 	andeq	sl, r5, r0, lsl #24
    3cc8:	50011200 	andpl	r1, r1, r0, lsl #4
    3ccc:	50640c05 	rsbpl	r0, r4, r5, lsl #24
    3cd0:	00002021 	andeq	r2, r0, r1, lsr #32
    3cd4:	00085a10 	andeq	r5, r8, r0, lsl sl
    3cd8:	058b0100 	streq	r0, [fp, #256]	; 0x100
    3cdc:	00000025 	andeq	r0, r0, r5, lsr #32
    3ce0:	00009aa8 	andeq	r9, r0, r8, lsr #21
    3ce4:	00000018 	andeq	r0, r0, r8, lsl r0
    3ce8:	03379c01 	teqeq	r7, #256	; 0x100
    3cec:	b4110000 	ldrlt	r0, [r1], #-0
    3cf0:	ac00009a 	stcge	0, cr0, [r0], {154}	; 0x9a
    3cf4:	12000005 	andne	r0, r0, #5, 0
    3cf8:	0c055001 	stceq	0, cr5, [r5], {1}
    3cfc:	20215064 	eorcs	r5, r1, r4, rrx
    3d00:	270e0000 	strcs	r0, [lr, -r0]
    3d04:	01000007 	tsteq	r0, r7
    3d08:	99f80645 	ldmibls	r8!, {r0, r2, r6, r9, sl}^
    3d0c:	00b00000 	adcseq	r0, r0, r0
    3d10:	9c010000 	stcls	0, cr0, [r1], {-0}
    3d14:	00000484 	andeq	r0, r0, r4, lsl #9
    3d18:	00084c16 	andeq	r4, r8, r6, lsl ip
    3d1c:	0e7e0100 	rpweqe	f0, f6, f0
    3d20:	00000062 	andeq	r0, r0, r2, rrx
    3d24:	0814010e 	ldmdaeq	r4, {r1, r2, r3, r8}
    3d28:	c400009a 	strgt	r0, [r0], #-154	; 0xffffff66
    3d2c:	73000005 	movwvc	r0, #5
    3d30:	12000003 	andne	r0, r0, #3, 0
    3d34:	3e015001 	cdpcc	0, 0, cr5, cr1, cr1, {0}
    3d38:	01510112 	cmpeq	r1, r2, lsl r1
    3d3c:	14140032 	ldrne	r0, [r4], #-50	; 0xffffffce
    3d40:	c400009a 	strgt	r0, [r0], #-154	; 0xffffff66
    3d44:	8b000005 	blhi	3d60 <__code_start__-0x42a0>
    3d48:	12000003 	andne	r0, r0, #3, 0
    3d4c:	3f015001 	svccc	0x00015001
    3d50:	01510112 	cmpeq	r1, r2, lsl r1
    3d54:	180f0032 	stmdane	pc, {r1, r4, r5}	; <UNPREDICTABLE>
    3d58:	a000009a 	mulge	r0, sl, r0
    3d5c:	14000005 	strne	r0, [r0], #-5
    3d60:	00009a24 	andeq	r9, r0, r4, lsr #20
    3d64:	0000053d 	andeq	r0, r0, sp, lsr r5
    3d68:	000003b0 			; <UNDEFINED> instruction: 0x000003b0
    3d6c:	05500112 	ldrbeq	r0, [r0, #-274]	; 0xfffffeee
    3d70:	2150040c 	cmpcs	r0, ip, lsl #8
    3d74:	51011220 	tstpl	r1, r0, lsr #4
    3d78:	0f003101 	svceq	0x00003101
    3d7c:	00009a28 	andeq	r9, r0, r8, lsr #20
    3d80:	000005a0 	andeq	r0, r0, r0, lsr #11
    3d84:	009a3814 	addseq	r3, sl, r4, lsl r8
    3d88:	0005b800 	andeq	fp, r5, r0, lsl #16
    3d8c:	0003d200 	andeq	sp, r3, r0, lsl #4
    3d90:	50011200 	andpl	r1, r1, r0, lsl #4
    3d94:	12007402 	andne	r7, r0, #33554432	; 0x2000000
    3d98:	30015101 	andcc	r5, r1, r1, lsl #2
    3d9c:	9a441400 	bls	1108da4 <__bss_end__+0x10fddd4>
    3da0:	05b80000 	ldreq	r0, [r8, #0]!
    3da4:	03ee0000 	mvneq	r0, #0, 0
    3da8:	01120000 	tsteq	r2, r0
    3dac:	440c0550 	strmi	r0, [ip], #-1360	; 0xfffffab0
    3db0:	12202150 	eorne	r2, r0, #20
    3db4:	30015101 	andcc	r5, r1, r1, lsl #2
    3db8:	9a501400 	bls	1408dc0 <__bss_end__+0x13fddf0>
    3dbc:	05b80000 	ldreq	r0, [r8, #0]!
    3dc0:	040a0000 	streq	r0, [sl], #-0
    3dc4:	01120000 	tsteq	r2, r0
    3dc8:	4c0c0550 	cfstr32mi	mvfx0, [ip], {80}	; 0x50
    3dcc:	12202150 	eorne	r2, r0, #20
    3dd0:	33015101 	movwcc	r5, #4353	; 0x1101
    3dd4:	9a5c1400 	bls	1708ddc <__bss_end__+0x16fde0c>
    3dd8:	05b80000 	ldreq	r0, [r8, #0]!
    3ddc:	04260000 	strteq	r0, [r6], #-0
    3de0:	01120000 	tsteq	r2, r0
    3de4:	500c0550 	andpl	r0, ip, r0, asr r5
    3de8:	12202150 	eorne	r2, r0, #20
    3dec:	30015101 	andcc	r5, r1, r1, lsl #2
    3df0:	9a681400 	bls	1a08df8 <__bss_end__+0x19fde28>
    3df4:	05b80000 	ldreq	r0, [r8, #0]!
    3df8:	04430000 	strbeq	r0, [r3], #-0
    3dfc:	01120000 	tsteq	r2, r0
    3e00:	480c0550 	stmdami	ip, {r4, r6, r8, sl}
    3e04:	12202150 	eorne	r2, r0, #20
    3e08:	08025101 	stmdaeq	r2, {r0, r8, ip, lr}
    3e0c:	741400c7 	ldrvc	r0, [r4], #-199	; 0xffffff39
    3e10:	b800009a 	stmdalt	r0, {r1, r3, r4, r7}
    3e14:	61000005 	tstvs	r0, r5
    3e18:	12000004 	andne	r0, r0, #4, 0
    3e1c:	0c055001 	stceq	0, cr5, [r5], {1}
    3e20:	20215068 	eorcs	r5, r1, r8, rrx
    3e24:	03510112 	cmpeq	r1, #-2147483644	; 0x80000004
    3e28:	00010e0a 	andeq	r0, r1, sl, lsl #28
    3e2c:	009a8014 	addseq	r8, sl, r4, lsl r0
    3e30:	0005b800 	andeq	fp, r5, r0, lsl #16
    3e34:	00047a00 	andeq	r7, r4, r0, lsl #20
    3e38:	50011200 	andpl	r1, r1, r0, lsl #4
    3e3c:	12007402 	andne	r7, r0, #33554432	; 0x2000000
    3e40:	33015101 	movwcc	r5, #4353	; 0x1101
    3e44:	9a840f00 	bls	fe107a4c <__bss_end__+0xfe0fca7c>
    3e48:	05a00000 	streq	r0, [r0, #0]!
    3e4c:	0e000000 	cdpeq	0, 0, cr0, cr0, cr0, {0}
    3e50:	000009de 	ldrdeq	r0, [r0], -lr
    3e54:	84063501 	strhi	r3, [r6], #-1281	; 0xfffffaff
    3e58:	2400009b 	strcs	r0, [r0], #-155	; 0xffffff65
    3e5c:	01000000 	mrseq	r0, (UNDEF: 0)
    3e60:	0004d39c 	muleq	r4, ip, r3
    3e64:	9b8c0f00 	blls	fe307a6c <__bss_end__+0xfe2fca9c>
    3e68:	01940000 	orrseq	r0, r4, r0
    3e6c:	900f0000 	andls	r0, pc, r0
    3e70:	a000009b 	mulge	r0, fp, r0
    3e74:	14000005 	strne	r0, [r0], #-5
    3e78:	00009b9c 	muleq	r0, ip, fp
    3e7c:	000004d3 	ldrdeq	r0, [r0], -r3
    3e80:	000004c9 	andeq	r0, r0, r9, asr #9
    3e84:	05500112 	ldrbeq	r0, [r0, #-274]	; 0xfffffeee
    3e88:	2150040c 	cmpcs	r0, ip, lsl #8
    3e8c:	51011220 	tstpl	r1, r0, lsr #4
    3e90:	00fe0902 	rscseq	r0, lr, r2, lsl #18
    3e94:	009ba00f 	addseq	sl, fp, pc
    3e98:	0005a000 	andeq	sl, r5, r0
    3e9c:	1d170000 	ldcne	0, cr0, [r7, #-0]
    3ea0:	0100000a 	tsteq	r0, sl
    3ea4:	99b80d31 	ldmibls	r8!, {r0, r4, r5, r8, sl, fp}
    3ea8:	00200000 	eoreq	r0, r0, r0
    3eac:	9c010000 	stcls	0, cr0, [r1], {-0}
    3eb0:	00000536 	andeq	r0, r0, r6, lsr r5
    3eb4:	000a7718 	andeq	r7, sl, r8, lsl r7
    3eb8:	25310100 	ldrcs	r0, [r1, #-256]!	; 0xffffff00
    3ebc:	00000536 	andeq	r0, r0, r6, lsr r5
    3ec0:	000026e8 	andeq	r2, r0, r8, ror #13
    3ec4:	000026e4 	andeq	r2, r0, r4, ror #13
    3ec8:	6c617613 	stclvs	6, cr7, [r1], #-76	; 0xffffffb4
    3ecc:	34310100 	ldrtcc	r0, [r1], #-256	; 0xffffff00
    3ed0:	0000002c 	andeq	r0, r0, ip, lsr #32
    3ed4:	0000270a 	andeq	r2, r0, sl, lsl #14
    3ed8:	00002706 	andeq	r2, r0, r6, lsl #14
    3edc:	0099c814 	addseq	ip, r9, r4, lsl r8
    3ee0:	0005ac00 	andeq	sl, r5, r0, lsl #24
    3ee4:	00052500 	andeq	r2, r5, r0, lsl #10
    3ee8:	50011200 	andpl	r1, r1, r0, lsl #4
    3eec:	00007402 	andeq	r7, r0, r2, lsl #8
    3ef0:	0099d411 	addseq	sp, r9, r1, lsl r4
    3ef4:	0005b800 	andeq	fp, r5, r0, lsl #16
    3ef8:	50011200 	andpl	r1, r1, r0, lsl #4
    3efc:	00007402 	andeq	r7, r0, r2, lsl #8
    3f00:	3c040c00 	stccc	12, cr0, [r4], {-0}
    3f04:	19000005 	stmdbne	r0, {r0, r2}
    3f08:	000a0817 	andeq	r0, sl, r7, lsl r8
    3f0c:	0d2e0100 	stfeqs	f0, [lr, #-0]
    3f10:	000099d8 	ldrdeq	r9, [r0], -r8
    3f14:	00000020 	andeq	r0, r0, r0, lsr #32
    3f18:	05a09c01 	streq	r9, [r0, #3073]!	; 0xc01
    3f1c:	77180000 	ldrvc	r0, [r8, -r0]
    3f20:	0100000a 	tsteq	r0, sl
    3f24:	0536242e 	ldreq	r2, [r6, #-1070]!	; 0xfffffbd2
    3f28:	272c0000 	strcs	r0, [ip, -r0]!
    3f2c:	27280000 	strcs	r0, [r8, -r0]!
    3f30:	76130000 	ldrvc	r0, [r3], -r0
    3f34:	01006c61 	tsteq	r0, r1, ror #24
    3f38:	002c332e 	eoreq	r3, ip, lr, lsr #6
    3f3c:	274e0000 	strbcs	r0, [lr, -r0]
    3f40:	274a0000 	strbcs	r0, [sl, -r0]
    3f44:	e8140000 	ldmda	r4, {}	; <UNPREDICTABLE>
    3f48:	ac000099 	stcge	0, cr0, [r0], {153}	; 0x99
    3f4c:	8f000005 	svchi	0x00000005
    3f50:	12000005 	andne	r0, r0, #5, 0
    3f54:	74025001 	strvc	r5, [r2], #-1
    3f58:	f4110000 			; <UNDEFINED> instruction: 0xf4110000
    3f5c:	b8000099 	stmdalt	r0, {r0, r3, r4, r7}
    3f60:	12000005 	andne	r0, r0, #5, 0
    3f64:	74025001 	strvc	r5, [r2], #-1
    3f68:	1a000000 	bne	3f70 <__code_start__-0x4090>
    3f6c:	000007eb 	andeq	r0, r0, fp, ror #15
    3f70:	000007eb 	andeq	r0, r0, fp, ror #15
    3f74:	1a069c03 	bne	1aaf88 <__bss_end__+0x19ffb8>
    3f78:	00000a52 	andeq	r0, r0, r2, asr sl
    3f7c:	00000a52 	andeq	r0, r0, r2, asr sl
    3f80:	1a0bc303 	bne	2f4b94 <__bss_end__+0x2e9bc4>
    3f84:	00000846 	andeq	r0, r0, r6, asr #16
    3f88:	00000846 	andeq	r0, r0, r6, asr #16
    3f8c:	1a06ae03 	bne	1af7a0 <__bss_end__+0x1a47d0>
    3f90:	00000a40 	andeq	r0, r0, r0, asr #20
    3f94:	00000a40 	andeq	r0, r0, r0, asr #20
    3f98:	00061904 	andeq	r1, r6, r4, lsl #18
    3f9c:	000008e9 	andeq	r0, r0, r9, ror #17
    3fa0:	16ce0004 	strbne	r0, [lr], r4
    3fa4:	01040000 	mrseq	r0, (UNDEF: 4)
    3fa8:	00000946 	andeq	r0, r0, r6, asr #18
    3fac:	000ae20c 	andeq	lr, sl, ip, lsl #4
    3fb0:	0008f600 	andeq	pc, r8, r0, lsl #12
    3fb4:	009ba800 	addseq	sl, fp, r0, lsl #16
    3fb8:	0003b000 	andeq	fp, r3, r0
    3fbc:	0020df00 	eoreq	sp, r0, r0, lsl #30
    3fc0:	05040200 	streq	r0, [r4, #-512]	; 0xfffffe00
    3fc4:	00746e69 	rsbseq	r6, r4, r9, ror #28
    3fc8:	cf070403 	svcgt	0x00070403
    3fcc:	03000000 	movweq	r0, #0
    3fd0:	00720601 	rsbseq	r0, r2, r1, lsl #12
    3fd4:	02030000 	andeq	r0, r3, #0, 0
    3fd8:	00000005 	andeq	r0, r0, r5
    3fdc:	05040300 	streq	r0, [r4, #-768]	; 0xfffffd00
    3fe0:	00000033 	andeq	r0, r0, r3, lsr r0
    3fe4:	2e050803 	cdpcs	8, 0, cr0, cr5, cr3, {0}
    3fe8:	03000000 	movweq	r0, #0
    3fec:	00700801 	rsbseq	r0, r0, r1, lsl #16
    3ff0:	02030000 	andeq	r0, r3, #0, 0
    3ff4:	00010807 	andeq	r0, r1, r7, lsl #16
    3ff8:	00dc0400 	sbcseq	r0, ip, r0, lsl #8
    3ffc:	34030000 	strcc	r0, [r3], #-0
    4000:	00006919 	andeq	r6, r0, r9, lsl r9
    4004:	07040300 	streq	r0, [r4, -r0, lsl #6]
    4008:	000000ca 	andeq	r0, r0, sl, asr #1
    400c:	c5070803 	strgt	r0, [r7, #-2051]	; 0xfffff7fd
    4010:	03000000 	movweq	r0, #0
    4014:	00790801 	rsbseq	r0, r9, r1, lsl #16
    4018:	77050000 	strvc	r0, [r5, -r0]
    401c:	03000000 	movweq	r0, #0
    4020:	04390408 	ldrteq	r0, [r9], #-1032	; 0xfffffbf8
    4024:	04060000 	streq	r0, [r6], #-0
    4028:	2c040707 	stccs	7, cr0, [r4], {7}
    402c:	01000000 	mrseq	r0, (UNDEF: 0)
    4030:	00a4061f 	adceq	r0, r4, pc, lsl r6
    4034:	7c080000 	stcvc	0, cr0, [r8], {-0}
    4038:	0000000a 	andeq	r0, r0, sl
    403c:	00002000 	andeq	r2, r0, r0
    4040:	00065209 	andeq	r5, r6, r9, lsl #4
    4044:	0d220100 	stfeqs	f0, [r2, #-0]
    4048:	00000077 	andeq	r0, r0, r7, ror r0
    404c:	0005080a 	andeq	r0, r5, sl, lsl #16
    4050:	0e230100 	sufeqs	f0, f3, f0
    4054:	000000c2 	andeq	r0, r0, r2, asr #1
    4058:	ab940305 	blge	fe504c74 <__bss_end__+0xfe4f9ca4>
    405c:	040b0000 	streq	r0, [fp], #-0
    4060:	00000077 	andeq	r0, r0, r7, ror r0
    4064:	000a600a 	andeq	r6, sl, sl
    4068:	0e240100 	sufeqs	f0, f4, f0
    406c:	000000c2 	andeq	r0, r0, r2, asr #1
    4070:	ab980305 	blge	fe604c8c <__bss_end__+0xfe5f9cbc>
    4074:	c10a0000 	mrsgt	r0, (UNDEF: 10)
    4078:	0100000a 	tsteq	r0, sl
    407c:	00c20e25 	sbceq	r0, r2, r5, lsr #28
    4080:	03050000 	movweq	r0, #20480	; 0x5000
    4084:	0000ab9c 	muleq	r0, ip, fp
    4088:	000a970c 	andeq	r9, sl, ip, lsl #14
    408c:	06750100 	ldrbteq	r0, [r5], -r0, lsl #2
    4090:	00009ef8 	strdeq	r9, [r0], -r8
    4094:	00000060 	andeq	r0, r0, r0, rrx
    4098:	01649c01 	cmneq	r4, r1, lsl #24
    409c:	700d0000 	andvc	r0, sp, r0
    40a0:	16750100 	ldrbtne	r0, [r5], -r0, lsl #2
    40a4:	0000008a 	andeq	r0, r0, sl, lsl #1
    40a8:	00002772 	andeq	r2, r0, r2, ror r7
    40ac:	0000276c 	andeq	r2, r0, ip, ror #14
    40b0:	0000490e 	andeq	r4, r0, lr, lsl #18
    40b4:	00017400 	andeq	r7, r1, r0, lsl #8
    40b8:	84030500 	strhi	r0, [r3], #-1280	; 0xfffffb00
    40bc:	0f0000ab 	svceq	0x000000ab
    40c0:	00009f44 	andeq	r9, r0, r4, asr #30
    40c4:	000008bc 			; <UNDEFINED> instruction: 0x000008bc
    40c8:	0000015a 	andeq	r0, r0, sl, asr r1
    40cc:	05500110 	ldrbeq	r0, [r0, #-272]	; 0xfffffef0
    40d0:	00aafc03 	adceq	pc, sl, r3, lsl #24
    40d4:	51011000 	mrspl	r1, (UNDEF: 1)
    40d8:	a9940305 	ldmibge	r4, {r0, r2, r8, r9}
    40dc:	01100000 	tsteq	r0, r0
    40e0:	84030552 	strhi	r0, [r3], #-1362	; 0xfffffaae
    40e4:	100000ab 	andne	r0, r0, fp, lsr #1
    40e8:	08025301 	stmdaeq	r2, {r0, r8, r9, ip, lr}
    40ec:	7d021077 	stcvc	0, cr1, [r2, #-476]	; 0xfffffe24
    40f0:	01f30300 	mvnseq	r0, r0, lsl #6
    40f4:	48110050 	ldmdami	r1, {r4, r6}
    40f8:	c800009f 	stmdagt	r0, {r0, r1, r2, r3, r4, r7}
    40fc:	00000008 	andeq	r0, r0, r8
    4100:	00007e12 	andeq	r7, r0, r2, lsl lr
    4104:	00017400 	andeq	r7, r1, r0, lsl #8
    4108:	002c1300 	eoreq	r1, ip, r0, lsl #6
    410c:	00090000 	andeq	r0, r9, r0
    4110:	00016405 	andeq	r6, r1, r5, lsl #8
    4114:	0a851400 	beq	fe14911c <__bss_end__+0xfe13e14c>
    4118:	72010000 	andvc	r0, r1, #0, 0
    411c:	009ee406 	addseq	lr, lr, r6, lsl #8
    4120:	00001400 	andeq	r1, r0, r0, lsl #8
    4124:	0c9c0100 	ldfeqs	f0, [ip], {0}
    4128:	0000026c 	andeq	r0, r0, ip, ror #4
    412c:	e0066f01 	and	r6, r6, r1, lsl #30
    4130:	0400009e 	streq	r0, [r0], #-158	; 0xffffff62
    4134:	01000000 	mrseq	r0, (UNDEF: 0)
    4138:	0001ae9c 	muleq	r1, ip, lr
    413c:	00701500 	rsbseq	r1, r0, r0, lsl #10
    4140:	8a126f01 	bhi	49fd4c <__bss_end__+0x494d7c>
    4144:	01000000 	mrseq	r0, (UNDEF: 0)
    4148:	24160050 	ldrcs	r0, [r6], #-80	; 0xffffffb0
    414c:	0100000b 	tsteq	r0, fp
    4150:	008a075e 	addeq	r0, sl, lr, asr r7
    4154:	9dc80000 	stclls	0, cr0, [r8]
    4158:	01180000 	tsteq	r8, r0
    415c:	9c010000 	stcls	0, cr0, [r1], {-0}
    4160:	0000042c 	andeq	r0, r0, ip, lsr #8
    4164:	0003f417 	andeq	pc, r3, r7, lsl r4	; <UNPREDICTABLE>
    4168:	205e0100 	subscs	r0, lr, r0, lsl #2
    416c:	0000002c 	andeq	r0, r0, ip, lsr #32
    4170:	000027b3 			; <UNDEFINED> instruction: 0x000027b3
    4174:	0000279f 	muleq	r0, pc, r7	; <UNPREDICTABLE>
    4178:	000aa117 	andeq	sl, sl, r7, lsl r1
    417c:	315e0100 	cmpcc	lr, r0, lsl #2
    4180:	0000002c 	andeq	r0, r0, ip, lsr #32
    4184:	0000284c 	andeq	r2, r0, ip, asr #16
    4188:	00002838 	andeq	r2, r0, r8, lsr r8
    418c:	0000490e 	andeq	r4, r0, lr, lsl #18
    4190:	00043c00 	andeq	r3, r4, r0, lsl #24
    4194:	6c030500 	cfstr32vs	mvfx0, [r3], {-0}
    4198:	180000ab 	stmdane	r0, {r0, r1, r3, r5, r7}
    419c:	66010068 	strvs	r0, [r1], -r8, rrx
    41a0:	00002c0e 	andeq	r2, r0, lr, lsl #24
    41a4:	00290200 	eoreq	r0, r9, r0, lsl #4
    41a8:	0028f600 	eoreq	pc, r8, r0, lsl #12
    41ac:	08541900 	ldmdaeq	r4, {r8, fp, ip}^
    41b0:	9dd80000 	ldclls	0, cr0, [r8]
    41b4:	d8040000 	stmdale	r4, {}	; <UNPREDICTABLE>
    41b8:	0400009d 	streq	r0, [r0], #-157	; 0xffffff63
    41bc:	01000000 	mrseq	r0, (UNDEF: 0)
    41c0:	02380560 	eorseq	r0, r8, #96, 10	; 0x18000000
    41c4:	651a0000 	ldrvs	r0, [sl, #-0]
    41c8:	56000008 	strpl	r0, [r0], -r8
    41cc:	54000029 	strpl	r0, [r0], #-41	; 0xffffffd7
    41d0:	00000029 	andeq	r0, r0, r9, lsr #32
    41d4:	00089619 	andeq	r9, r8, r9, lsl r6
    41d8:	009de400 	addseq	lr, sp, r0, lsl #8
    41dc:	9de40200 	sfmls	f0, 2, [r4]
    41e0:	00080000 	andeq	r0, r8, r0
    41e4:	61010000 	mrsvs	r0, (UNDEF: 1)
    41e8:	00026c11 	andeq	r6, r2, r1, lsl ip
    41ec:	08b11a00 	ldmeq	r1!, {r9, fp, ip}
    41f0:	296b0000 	stmdbcs	fp!, {}^	; <UNPREDICTABLE>
    41f4:	29690000 	stmdbcs	r9!, {}^	; <UNPREDICTABLE>
    41f8:	a71a0000 	ldrge	r0, [sl, -r0]
    41fc:	81000008 	tsthi	r0, r8
    4200:	7f000029 	svcvc	0x00000029
    4204:	00000029 	andeq	r0, r0, r9, lsr #32
    4208:	00081f1b 	andeq	r1, r8, fp, lsl pc
    420c:	009df400 	addseq	pc, sp, r0, lsl #8
    4210:	05280100 	streq	r0, [r8, #-256]!	; 0xffffff00
    4214:	67010000 	strvs	r0, [r1, -r0]
    4218:	00030a09 	andeq	r0, r3, r9, lsl #20
    421c:	083a1a00 	ldmdaeq	sl!, {r9, fp, ip}
    4220:	299a0000 	ldmibcs	sl, {}	; <UNPREDICTABLE>
    4224:	29940000 	ldmibcs	r4, {}	; <UNPREDICTABLE>
    4228:	301a0000 	andscc	r0, sl, r0
    422c:	e1000008 	tst	r0, r8
    4230:	d9000029 	stmdble	r0, {r0, r3, r5}
    4234:	1c000029 	stcne	0, cr0, [r0], {41}	; 0x29
    4238:	00000528 	andeq	r0, r0, r8, lsr #10
    423c:	00085419 	andeq	r5, r8, r9, lsl r4
    4240:	009df400 	addseq	pc, sp, r0, lsl #8
    4244:	9df40400 	cfldrdls	mvd0, [r4]
    4248:	00040000 	andeq	r0, r4, r0
    424c:	11010000 	mrsne	r0, (UNDEF: 1)
    4250:	0002c705 	andeq	ip, r2, r5, lsl #14
    4254:	08651a00 	stmdaeq	r5!, {r9, fp, ip}^
    4258:	2a1f0000 	bcs	7c4260 <__bss_end__+0x7b9290>
    425c:	2a1d0000 	bcs	744264 <__bss_end__+0x739294>
    4260:	0f000000 	svceq	0x00000000
    4264:	00009e8c 	andeq	r9, r0, ip, lsl #29
    4268:	000008bc 			; <UNDEFINED> instruction: 0x000008bc
    426c:	000002ff 	strdeq	r0, [r0], -pc	; <UNPREDICTABLE>
    4270:	05500110 	ldrbeq	r0, [r0, #-272]	; 0xfffffef0
    4274:	00a35403 	adceq	r5, r3, r3, lsl #8
    4278:	51011000 	mrspl	r1, (UNDEF: 1)
    427c:	a9940305 	ldmibge	r4, {r0, r2, r8, r9}
    4280:	01100000 	tsteq	r0, r0
    4284:	7c030552 	cfstr32vc	mvfx0, [r3], {82}	; 0x52
    4288:	100000ab 	andne	r0, r0, fp, lsr #1
    428c:	41015301 	tstmi	r1, r1, lsl #6
    4290:	007d0210 	rsbseq	r0, sp, r0, lsl r2
    4294:	aaa80305 	bge	fea04eb0 <__bss_end__+0xfe9f9ee0>
    4298:	11000000 	mrsne	r0, (UNDEF: 0)
    429c:	00009e90 	muleq	r0, r0, lr
    42a0:	000008c8 	andeq	r0, r0, r8, asr #17
    42a4:	70190000 	andsvc	r0, r9, r0
    42a8:	0c000008 	stceq	0, cr0, [r0], {8}
    42ac:	0300009e 	movweq	r0, #158	; 0x9e
    42b0:	00009e0c 	andeq	r9, r0, ip, lsl #28
    42b4:	00000004 	andeq	r0, r0, r4
    42b8:	3e056801 	cdpcc	8, 0, cr6, cr5, cr1, {0}
    42bc:	1a000003 	bne	42d0 <__code_start__-0x3d30>
    42c0:	0000088b 	andeq	r0, r0, fp, lsl #17
    42c4:	00002a34 	andeq	r2, r0, r4, lsr sl
    42c8:	00002a32 	andeq	r2, r0, r2, lsr sl
    42cc:	0008811a 	andeq	r8, r8, sl, lsl r1
    42d0:	002a4900 	eoreq	r4, sl, r0, lsl #18
    42d4:	002a4700 	eoreq	r4, sl, r0, lsl #14
    42d8:	240f0000 	strcs	r0, [pc], #-0	; 42e0 <__code_start__-0x3d20>
    42dc:	4100009e 	swpmi	r0, lr, [r0]	; <UNPREDICTABLE>
    42e0:	53000004 	movwpl	r0, #4
    42e4:	10000003 	andne	r0, r0, r3
    42e8:	f3035001 	vhadd.u8	d5, d3, d1
    42ec:	0f005001 	svceq	0x00005001
    42f0:	00009e48 	andeq	r9, r0, r8, asr #28
    42f4:	000008bc 			; <UNDEFINED> instruction: 0x000008bc
    42f8:	0000038c 	andeq	r0, r0, ip, lsl #7
    42fc:	05500110 	ldrbeq	r0, [r0, #-272]	; 0xfffffef0
    4300:	00a35403 	adceq	r5, r3, r3, lsl #8
    4304:	51011000 	mrspl	r1, (UNDEF: 1)
    4308:	a9940305 	ldmibge	r4, {r0, r2, r8, r9}
    430c:	01100000 	tsteq	r0, r0
    4310:	6c030552 	cfstr32vs	mvfx0, [r3], {82}	; 0x52
    4314:	100000ab 	andne	r0, r0, fp, lsr #1
    4318:	08025301 	stmdaeq	r2, {r0, r8, r9, ip, lr}
    431c:	7d02105f 	stcvc	0, cr1, [r2, #-380]	; 0xfffffe84
    4320:	a4030500 	strge	r0, [r3], #-1280	; 0xfffffb00
    4324:	000000a9 	andeq	r0, r0, r9, lsr #1
    4328:	009e4c11 	addseq	r4, lr, r1, lsl ip
    432c:	0008c800 	andeq	ip, r8, r0, lsl #16
    4330:	9e501100 	rdflss	f1, f0, f0
    4334:	08d40000 	ldmeq	r4, {}^	; <UNPREDICTABLE>
    4338:	6c0f0000 	stcvs	0, cr0, [pc], {-0}
    433c:	bc00009e 	stclt	0, cr0, [r0], {158}	; 0x9e
    4340:	d7000008 	strle	r0, [r0, -r8]
    4344:	10000003 	andne	r0, r0, r3
    4348:	03055001 	movweq	r5, #20481	; 0x5001
    434c:	0000aa60 	andeq	sl, r0, r0, ror #20
    4350:	05510110 	ldrbeq	r0, [r1, #-272]	; 0xfffffef0
    4354:	00a99403 	adceq	r9, r9, r3, lsl #8
    4358:	52011000 	andpl	r1, r1, #0, 0
    435c:	ab6c0305 	blge	1b04f78 <__bss_end__+0x1af9fa8>
    4360:	01100000 	tsteq	r0, r0
    4364:	60080253 	andvs	r0, r8, r3, asr r2
    4368:	007d0210 	rsbseq	r0, sp, r0, lsl r2
    436c:	aa940305 	bge	fe504f88 <__bss_end__+0xfe4f9fb8>
    4370:	11000000 	mrsne	r0, (UNDEF: 0)
    4374:	00009e70 	andeq	r9, r0, r0, ror lr
    4378:	000008c8 	andeq	r0, r0, r8, asr #17
    437c:	009e9411 	addseq	r9, lr, r1, lsl r4
    4380:	0008d400 	andeq	sp, r8, r0, lsl #8
    4384:	9eb00f00 	cdpls	15, 11, cr0, cr0, cr0, {0}
    4388:	08bc0000 	ldmeq	ip!, {}	; <UNPREDICTABLE>
    438c:	04220000 	strteq	r0, [r2], #-0
    4390:	01100000 	tsteq	r0, r0
    4394:	b4030550 	strlt	r0, [r3], #-1360	; 0xfffffab0
    4398:	100000aa 	andne	r0, r0, sl, lsr #1
    439c:	03055101 	movweq	r5, #20737	; 0x5101
    43a0:	0000a994 	muleq	r0, r4, r9
    43a4:	05520110 	ldrbeq	r0, [r2, #-272]	; 0xfffffef0
    43a8:	00ab6c03 	adceq	r6, fp, r3, lsl #24
    43ac:	53011000 	movwpl	r1, #4096	; 0x1000
    43b0:	10680802 	rsbne	r0, r8, r2, lsl #16
    43b4:	05007d02 	streq	r7, [r0, #-3330]	; 0xfffff2fe
    43b8:	00aae003 	adceq	lr, sl, r3
    43bc:	b4110000 	ldrlt	r0, [r1], #-0
    43c0:	c800009e 	stmdagt	r0, {r1, r2, r3, r4, r7}
    43c4:	00000008 	andeq	r0, r0, r8
    43c8:	00007e12 	andeq	r7, r0, r2, lsl lr
    43cc:	00043c00 	andeq	r3, r4, r0, lsl #24
    43d0:	002c1300 	eoreq	r1, ip, r0, lsl #6
    43d4:	000f0000 	andeq	r0, pc, r0
    43d8:	00042c05 	andeq	r2, r4, r5, lsl #24
    43dc:	05271600 	streq	r1, [r7, #-1536]!	; 0xfffffa00
    43e0:	53010000 	movwpl	r0, #4096	; 0x1000
    43e4:	00008a07 	andeq	r8, r0, r7, lsl #20
    43e8:	009d6400 	addseq	r6, sp, r0, lsl #8
    43ec:	00006400 	andeq	r6, r0, r0, lsl #8
    43f0:	089c0100 	ldmeq	ip, {r8}
    43f4:	17000005 	strne	r0, [r0, -r5]
    43f8:	000003f4 	strdeq	r0, [r0], -r4
    43fc:	2c185301 	ldccs	3, cr5, [r8], {1}
    4400:	64000000 	strvs	r0, [r0], #-0
    4404:	5c00002a 	stcpl	0, cr0, [r0], {42}	; 0x2a
    4408:	0e00002a 	cdpeq	0, 0, cr0, cr0, cr10, {1}
    440c:	00000049 	andeq	r0, r0, r9, asr #32
    4410:	00000518 	andeq	r0, r0, r8, lsl r5
    4414:	ab640305 	blge	1905030 <__bss_end__+0x18fa060>
    4418:	771d0000 	ldrvc	r0, [sp, -r0]
    441c:	0100000a 	tsteq	r0, sl
    4420:	008a0b55 	addeq	r0, sl, r5, asr fp
    4424:	2a9c0000 	bcs	fe70442c <__bss_end__+0xfe6f945c>
    4428:	2a980000 	bcs	fe604430 <__bss_end__+0xfe5f9460>
    442c:	7c0f0000 	stcvc	0, cr0, [pc], {-0}
    4430:	1d00009d 	stcne	0, cr0, [r0, #-628]	; 0xfffffd8c
    4434:	a6000005 	strge	r0, [r0], -r5
    4438:	10000004 	andne	r0, r0, r4
    443c:	74025001 	strvc	r5, [r2], #-1
    4440:	8c0f0000 	stchi	0, cr0, [pc], {-0}
    4444:	e000009d 	mul	r0, sp, r0
    4448:	c5000008 	strgt	r0, [r0, #-8]
    444c:	10000004 	andne	r0, r0, r4
    4450:	75025001 	strvc	r5, [r2, #-1]
    4454:	51011000 	mrspl	r1, (UNDEF: 1)
    4458:	01103001 	tsteq	r0, r1
    445c:	00740252 	rsbseq	r0, r4, r2, asr r2
    4460:	9db40f00 	ldcls	15, cr0, [r4]
    4464:	08bc0000 	ldmeq	ip!, {}	; <UNPREDICTABLE>
    4468:	04fe0000 	ldrbteq	r0, [lr], #0
    446c:	01100000 	tsteq	r0, r0
    4470:	54030550 	strpl	r0, [r3], #-1360	; 0xfffffab0
    4474:	100000a3 	andne	r0, r0, r3, lsr #1
    4478:	03055101 	movweq	r5, #20737	; 0x5101
    447c:	0000a994 	muleq	r0, r4, r9
    4480:	05520110 	ldrbeq	r0, [r2, #-272]	; 0xfffffef0
    4484:	00ab6403 	adceq	r6, fp, r3, lsl #8
    4488:	53011000 	movwpl	r1, #4096	; 0x1000
    448c:	10540802 	subsne	r0, r4, r2, lsl #16
    4490:	05007d02 	streq	r7, [r0, #-3330]	; 0xfffff2fe
    4494:	00a9a403 	adceq	sl, r9, r3, lsl #8
    4498:	b8110000 	ldmdalt	r1, {}	; <UNPREDICTABLE>
    449c:	c800009d 	stmdagt	r0, {r0, r2, r3, r4, r7}
    44a0:	00000008 	andeq	r0, r0, r8
    44a4:	00007e12 	andeq	r7, r0, r2, lsl lr
    44a8:	00051800 	andeq	r1, r5, r0, lsl #16
    44ac:	002c1300 	eoreq	r1, ip, r0, lsl #6
    44b0:	00070000 	andeq	r0, r7, r0
    44b4:	00050805 	andeq	r0, r5, r5, lsl #16
    44b8:	0aca1600 	beq	ff289cc0 <__bss_end__+0xff27ecf0>
    44bc:	47010000 	strmi	r0, [r1, -r0]
    44c0:	00008a07 	andeq	r8, r0, r7, lsl #20
    44c4:	009ccc00 	addseq	ip, ip, r0, lsl #24
    44c8:	00009800 	andeq	r9, r0, r0, lsl #16
    44cc:	2b9c0100 	blcs	fe7048d4 <__bss_end__+0xfe6f9904>
    44d0:	17000006 	strne	r0, [r0, -r6]
    44d4:	000003f4 	strdeq	r0, [r0], -r4
    44d8:	2c204701 	stccs	7, cr4, [r0], #-4
    44dc:	ca000000 	bgt	44e4 <__code_start__-0x3b1c>
    44e0:	ba00002a 	blt	4590 <__code_start__-0x3a70>
    44e4:	0e00002a 	cdpeq	0, 0, cr0, cr0, cr10, {1}
    44e8:	00000049 	andeq	r0, r0, r9, asr #32
    44ec:	0000043c 	andeq	r0, r0, ip, lsr r4
    44f0:	ab540305 	blge	150510c <__bss_end__+0x14fa13c>
    44f4:	771d0000 	ldrvc	r0, [sp, -r0]
    44f8:	0100000a 	tsteq	r0, sl
    44fc:	008a0b4b 	addeq	r0, sl, fp, asr #22
    4500:	2b3c0000 	blcs	f04508 <__bss_end__+0xef9538>
    4504:	2b380000 	blcs	e0450c <__bss_end__+0xdf953c>
    4508:	1f1b0000 	svcne	0x001b0000
    450c:	dc000008 	stcle	0, cr0, [r0], {8}
    4510:	0300009c 	movweq	r0, #156	; 0x9c
    4514:	00000510 	andeq	r0, r0, r0, lsl r5
    4518:	a30e4901 	movwge	r4, #59649	; 0xe901
    451c:	1a000005 	bne	4538 <__code_start__-0x3ac8>
    4520:	0000083a 	andeq	r0, r0, sl, lsr r8
    4524:	00002b5c 	andeq	r2, r0, ip, asr fp
    4528:	00002b5a 	andeq	r2, r0, sl, asr fp
    452c:	0008301a 	andeq	r3, r8, sl, lsl r0
    4530:	002b7400 	eoreq	r7, fp, r0, lsl #8
    4534:	002b7000 	eoreq	r7, fp, r0
    4538:	05101e00 	ldreq	r1, [r0, #-3584]	; 0xfffff200
    453c:	0f000000 	svceq	0x00000000
    4540:	00009d24 	andeq	r9, r0, r4, lsr #26
    4544:	000008bc 			; <UNDEFINED> instruction: 0x000008bc
    4548:	000005dc 	ldrdeq	r0, [r0], -ip
    454c:	05500110 	ldrbeq	r0, [r0, #-272]	; 0xfffffef0
    4550:	00a35403 	adceq	r5, r3, r3, lsl #8
    4554:	51011000 	mrspl	r1, (UNDEF: 1)
    4558:	a9940305 	ldmibge	r4, {r0, r2, r8, r9}
    455c:	01100000 	tsteq	r0, r0
    4560:	54030552 	strpl	r0, [r3], #-1362	; 0xfffffaae
    4564:	100000ab 	andne	r0, r0, fp, lsr #1
    4568:	08025301 	stmdaeq	r2, {r0, r8, r9, ip, lr}
    456c:	7d021048 	stcvc	0, cr1, [r2, #-288]	; 0xfffffee0
    4570:	a4030500 	strge	r0, [r3], #-1280	; 0xfffffb00
    4574:	000000a9 	andeq	r0, r0, r9, lsr #1
    4578:	009d2811 	addseq	r2, sp, r1, lsl r8
    457c:	0008c800 	andeq	ip, r8, r0, lsl #16
    4580:	9d480f00 	stclls	15, cr0, [r8, #-0]
    4584:	08bc0000 	ldmeq	ip!, {}	; <UNPREDICTABLE>
    4588:	06210000 	strteq	r0, [r1], -r0
    458c:	01100000 	tsteq	r0, r0
    4590:	20030550 	andcs	r0, r3, r0, asr r5
    4594:	100000aa 	andne	r0, r0, sl, lsr #1
    4598:	03055101 	movweq	r5, #20737	; 0x5101
    459c:	0000a994 	muleq	r0, r4, r9
    45a0:	05520110 	ldrbeq	r0, [r2, #-272]	; 0xfffffef0
    45a4:	00ab5403 	adceq	r5, fp, r3, lsl #8
    45a8:	53011000 	movwpl	r1, #4096	; 0x1000
    45ac:	104e0802 	subne	r0, lr, r2, lsl #16
    45b0:	08007d02 	stmdaeq	r0, {r1, r8, sl, fp, ip, sp, lr}
    45b4:	235001f3 	cmpcs	r0, #-1073741764	; 0xc000003c
    45b8:	1af80907 	bne	ffe069dc <__bss_end__+0xffdfba0c>
    45bc:	9d4c1100 	stflse	f1, [ip, #-0]
    45c0:	08c80000 	stmiaeq	r8, {}^	; <UNPREDICTABLE>
    45c4:	0c000000 	stceq	0, cr0, [r0], {-0}
    45c8:	00000aec 	andeq	r0, r0, ip, ror #21
    45cc:	74063c01 	strvc	r3, [r6], #-3073	; 0xfffff3ff
    45d0:	5800009c 	stmdapl	r0, {r2, r3, r4, r7}
    45d4:	01000000 	mrseq	r0, (UNDEF: 0)
    45d8:	0006cf9c 	muleq	r6, ip, pc	; <UNPREDICTABLE>
    45dc:	04970a00 	ldreq	r0, [r7], #2560	; 0xa00
    45e0:	3d010000 	stccc	0, cr0, [r1, #-0]
    45e4:	00002510 	andeq	r2, r0, r0, lsl r5
    45e8:	cc030500 	cfstr32gt	mvfx0, [r3], {-0}
    45ec:	0e0000af 	cdpeq	0, 0, cr0, cr0, cr15, {5}
    45f0:	00000049 	andeq	r0, r0, r9, asr #32
    45f4:	000006df 	ldrdeq	r0, [r0], -pc	; <UNPREDICTABLE>
    45f8:	ab440305 	blge	1105214 <__bss_end__+0x10fa244>
    45fc:	07070000 	streq	r0, [r7, -r0]
    4600:	00002c04 	andeq	r2, r0, r4, lsl #24
    4604:	0a420100 	beq	1084a0c <__bss_end__+0x1079a3c>
    4608:	0000067a 	andeq	r0, r0, sl, ror r6
    460c:	000ab308 	andeq	fp, sl, r8, lsl #6
    4610:	10000000 	andne	r0, r0, r0
    4614:	a00f0000 	andge	r0, pc, r0
    4618:	e400009c 	str	r0, [r0], #-156	; 0xffffff64
    461c:	96000006 	strls	r0, [r0], -r6
    4620:	10000006 	andne	r0, r0, r6
    4624:	40035001 	andmi	r5, r3, r1
    4628:	01102440 	tsteq	r0, r0, asr #8
    462c:	48400351 	stmdami	r0, {r0, r4, r6, r8, r9}^
    4630:	b80f0024 	stmdalt	pc, {r2, r5}	; <UNPREDICTABLE>
    4634:	bc00009c 	stclt	0, cr0, [r0], {156}	; 0x9c
    4638:	c5000008 	strgt	r0, [r0, #-8]
    463c:	10000006 	andne	r0, r0, r6
    4640:	03055001 	movweq	r5, #20481	; 0x5001
    4644:	0000a9f0 	strdeq	sl, [r0], -r0
    4648:	05510110 	ldrbeq	r0, [r1, #-272]	; 0xfffffef0
    464c:	00a99403 	adceq	r9, r9, r3, lsl #8
    4650:	52011000 	andpl	r1, r1, #0, 0
    4654:	ab440305 	blge	1105270 <__bss_end__+0x10fa2a0>
    4658:	01100000 	tsteq	r0, r0
    465c:	40080253 	andmi	r0, r8, r3, asr r2
    4660:	9cbc1100 	ldflss	f1, [ip]
    4664:	08c80000 	stmiaeq	r8, {}^	; <UNPREDICTABLE>
    4668:	12000000 	andne	r0, r0, #0, 0
    466c:	0000007e 	andeq	r0, r0, lr, ror r0
    4670:	000006df 	ldrdeq	r0, [r0], -pc	; <UNPREDICTABLE>
    4674:	00002c13 	andeq	r2, r0, r3, lsl ip
    4678:	05000c00 	streq	r0, [r0, #-3072]	; 0xfffff400
    467c:	000006cf 	andeq	r0, r0, pc, asr #13
    4680:	00052f0c 	andeq	r2, r5, ip, lsl #30
    4684:	062d0100 	strteq	r0, [sp], -r0, lsl #2
    4688:	00009bd8 	ldrdeq	r9, [r0], -r8
    468c:	0000009c 	muleq	r0, ip, r0
    4690:	07c89c01 	strbeq	r9, [r8, r1, lsl #24]
    4694:	76170000 	ldrvc	r0, [r7], -r0
    4698:	0100000a 	tsteq	r0, sl
    469c:	002c262d 	eoreq	r2, ip, sp, lsr #12
    46a0:	2ba20000 	blcs	fe8846a8 <__bss_end__+0xfe8796d8>
    46a4:	2b940000 	blcs	fe5046ac <__bss_end__+0xfe4f96dc>
    46a8:	6b170000 	blvs	5c46b0 <__bss_end__+0x5b96e0>
    46ac:	0100000a 	tsteq	r0, sl
    46b0:	002c362d 	eoreq	r3, ip, sp, lsr #12
    46b4:	2c0a0000 	stccs	0, cr0, [sl], {-0}
    46b8:	2c020000 	stccs	0, cr0, [r2], {-0}
    46bc:	771d0000 	ldrvc	r0, [sp, -r0]
    46c0:	0100000a 	tsteq	r0, sl
    46c4:	00c20b2e 	sbceq	r0, r2, lr, lsr #22
    46c8:	2c520000 	mracs	r0, r2, acc0
    46cc:	2c440000 	marcs	acc0, r0, r4
    46d0:	490e0000 	stmdbmi	lr, {}	; <UNPREDICTABLE>
    46d4:	d8000000 	stmdale	r0, {}	; <UNPREDICTABLE>
    46d8:	05000007 	streq	r0, [r0, #-7]
    46dc:	00ab2c03 	adceq	r2, fp, r3, lsl #24
    46e0:	9c300f00 	ldcls	15, cr0, [r0], #-0
    46e4:	08bc0000 	ldmeq	ip!, {}	; <UNPREDICTABLE>
    46e8:	077e0000 	ldrbeq	r0, [lr, -r0]!
    46ec:	01100000 	tsteq	r0, r0
    46f0:	54030550 	strpl	r0, [r3], #-1360	; 0xfffffab0
    46f4:	100000a3 	andne	r0, r0, r3, lsr #1
    46f8:	03055101 	movweq	r5, #20737	; 0x5101
    46fc:	0000a994 	muleq	r0, r4, r9
    4700:	05520110 	ldrbeq	r0, [r2, #-272]	; 0xfffffef0
    4704:	00ab2c03 	adceq	r2, fp, r3, lsl #24
    4708:	53011000 	movwpl	r1, #4096	; 0x1000
    470c:	10300802 	eorsne	r0, r0, r2, lsl #16
    4710:	05007d02 	streq	r7, [r0, #-3330]	; 0xfffff2fe
    4714:	00a9a003 	adceq	sl, r9, r3
    4718:	34110000 	ldrcc	r0, [r1], #-0
    471c:	c800009c 	stmdagt	r0, {r2, r3, r4, r7}
    4720:	0f000008 	svceq	0x00000008
    4724:	00009c58 	andeq	r9, r0, r8, asr ip
    4728:	000008bc 			; <UNDEFINED> instruction: 0x000008bc
    472c:	000007be 			; <UNDEFINED> instruction: 0x000007be
    4730:	05500110 	ldrbeq	r0, [r0, #-272]	; 0xfffffef0
    4734:	00a9ac03 	adceq	sl, r9, r3, lsl #24
    4738:	51011000 	mrspl	r1, (UNDEF: 1)
    473c:	a9940305 	ldmibge	r4, {r0, r2, r8, r9}
    4740:	01100000 	tsteq	r0, r0
    4744:	2c030552 	cfstr32cs	mvfx0, [r3], {82}	; 0x52
    4748:	100000ab 	andne	r0, r0, fp, lsr #1
    474c:	08025301 	stmdaeq	r2, {r0, r8, r9, ip, lr}
    4750:	7d021034 	stcvc	0, cr1, [r2, #-208]	; 0xffffff30
    4754:	01f30300 	mvnseq	r0, r0, lsl #6
    4758:	5c110050 	ldcpl	0, cr0, [r1], {80}	; 0x50
    475c:	c800009c 	stmdagt	r0, {r2, r3, r4, r7}
    4760:	00000008 	andeq	r0, r0, r8
    4764:	00007e12 	andeq	r7, r0, r2, lsl lr
    4768:	0007d800 	andeq	sp, r7, r0, lsl #16
    476c:	002c1300 	eoreq	r1, ip, r0, lsl #6
    4770:	00160000 	andseq	r0, r6, r0
    4774:	0007c805 	andeq	ip, r7, r5, lsl #16
    4778:	0b041f00 	bleq	10c380 <__bss_end__+0x1013b0>
    477c:	2a010000 	bcs	44784 <__bss_end__+0x397b4>
    4780:	00008a07 	andeq	r8, r0, r7, lsl #20
    4784:	009bc800 	addseq	ip, fp, r0, lsl #16
    4788:	00001000 	andeq	r1, r0, r0
    478c:	1f9c0100 	svcne	0x009c0100
    4790:	00000a58 	andeq	r0, r0, r8, asr sl
    4794:	8a072901 	bhi	1ceba0 <__bss_end__+0x1c3bd0>
    4798:	b8000000 	stmdalt	r0, {}	; <UNPREDICTABLE>
    479c:	1000009b 	mulne	r0, fp, r0
    47a0:	01000000 	mrseq	r0, (UNDEF: 0)
    47a4:	0ab91f9c 	beq	fee4c61c <__bss_end__+0xfee4164c>
    47a8:	28010000 	stmdacs	r1, {}	; <UNPREDICTABLE>
    47ac:	00008a07 	andeq	r8, r0, r7, lsl #20
    47b0:	009ba800 	addseq	sl, fp, r0, lsl #16
    47b4:	00001000 	andeq	r1, r0, r0
    47b8:	209c0100 	addscs	r0, ip, r0, lsl #2
    47bc:	00000a8f 	andeq	r0, r0, pc, lsl #21
    47c0:	2c181001 	ldccs	0, cr1, [r8], {1}
    47c4:	03000000 	movweq	r0, #0
    47c8:	00000854 	andeq	r0, r0, r4, asr r8
    47cc:	01007821 	tsteq	r0, r1, lsr #16
    47d0:	002c2910 	eoreq	r2, ip, r0, lsl r9
    47d4:	6e210000 	cdpvs	0, 2, cr0, cr1, cr0, {0}
    47d8:	35100100 	ldrcc	r0, [r0, #-256]	; 0xffffff00
    47dc:	0000002c 	andeq	r0, r0, ip, lsr #32
    47e0:	0000490e 	andeq	r4, r0, lr, lsl #18
    47e4:	00051800 	andeq	r1, r5, r0, lsl #16
    47e8:	7c030500 	cfstr32vc	mvfx0, [r3], {-0}
    47ec:	000000ab 	andeq	r0, r0, fp, lsr #1
    47f0:	000ada20 	andeq	sp, sl, r0, lsr #20
    47f4:	180d0100 	stmdane	sp, {r8}
    47f8:	0000002c 	andeq	r0, r0, ip, lsr #32
    47fc:	00087003 	andeq	r7, r8, r3
    4800:	00782100 	rsbseq	r2, r8, r0, lsl #2
    4804:	2c290d01 	stccs	13, cr0, [r9], #-4
    4808:	00000000 	andeq	r0, r0, r0
    480c:	000af920 	andeq	pc, sl, r0, lsr #18
    4810:	18070100 	stmdane	r7, {r8}
    4814:	0000002c 	andeq	r0, r0, ip, lsr #32
    4818:	00089603 	andeq	r9, r8, r3, lsl #12
    481c:	00782100 	rsbseq	r2, r8, r0, lsl #2
    4820:	2c2c0701 	stccs	7, cr0, [ip], #-4
    4824:	21000000 	mrscs	r0, (UNDEF: 0)
    4828:	0701006e 	streq	r0, [r1, -lr, rrx]
    482c:	00002c38 	andeq	r2, r0, r8, lsr ip
    4830:	ab200000 	blge	804838 <__bss_end__+0x7f9868>
    4834:	0100000a 	tsteq	r0, sl
    4838:	005d1804 	subseq	r1, sp, r4, lsl #16
    483c:	bc030000 	stclt	0, cr0, [r3], {-0}
    4840:	21000008 	tstcs	r0, r8
    4844:	04010078 	streq	r0, [r1], #-120	; 0xffffff88
    4848:	00005d29 	andeq	r5, r0, r9, lsr #26
    484c:	00792100 	rsbseq	r2, r9, r0, lsl #2
    4850:	5d350401 	cfldrspl	mvf0, [r5, #-4]!
    4854:	00000000 	andeq	r0, r0, r0
    4858:	0005c022 	andeq	ip, r5, r2, lsr #32
    485c:	0005c000 	andeq	ip, r5, r0
    4860:	06280200 	strteq	r0, [r8], -r0, lsl #4
    4864:	00005622 	andeq	r5, r0, r2, lsr #12
    4868:	00005600 	andeq	r5, r0, r0, lsl #12
    486c:	066e0200 	strbteq	r0, [lr], -r0, lsl #4
    4870:	000b1522 	andeq	r1, fp, r2, lsr #10
    4874:	000b1500 	andeq	r1, fp, r0, lsl #10
    4878:	061d0200 	ldreq	r0, [sp], -r0, lsl #4
    487c:	00003c22 	andeq	r3, r0, r2, lsr #24
    4880:	00003c00 	andeq	r3, r0, r0, lsl #24
    4884:	07f20200 	ldrbeq	r0, [r2, r0, lsl #4]!
    4888:	00067300 	andeq	r7, r6, r0, lsl #6
    488c:	f1000400 			; <UNDEFINED> instruction: 0xf1000400
    4890:	04000018 	streq	r0, [r0], #-24	; 0xffffffe8
    4894:	00013201 	andeq	r3, r1, r1, lsl #4
    4898:	0b670c00 	bleq	19c78a0 <__bss_end__+0x19bc8d0>
    489c:	05960000 	ldreq	r0, [r6]
    48a0:	9f580000 	svcls	0x00580000
    48a4:	01980000 	orrseq	r0, r8, r0
    48a8:	24750000 	ldrbtcs	r0, [r5], #-0
    48ac:	08020000 	stmdaeq	r2, {}	; <UNPREDICTABLE>
    48b0:	0000c507 	andeq	ip, r0, r7, lsl #10
    48b4:	07040200 	streq	r0, [r4, -r0, lsl #4]
    48b8:	000000cf 	andeq	r0, r0, pc, asr #1
    48bc:	69050403 	stmdbvs	r5, {r0, r1, sl}
    48c0:	0400746e 	streq	r7, [r0], #-1134	; 0xfffffb92
    48c4:	0000002c 	andeq	r0, r0, ip, lsr #32
    48c8:	72060102 	andvc	r0, r6, #-2147483648	; 0x80000000
    48cc:	02000000 	andeq	r0, r0, #0, 0
    48d0:	00000502 	andeq	r0, r0, r2, lsl #10
    48d4:	04020000 	streq	r0, [r2], #-0
    48d8:	00003305 	andeq	r3, r0, r5, lsl #6
    48dc:	05080200 	streq	r0, [r8, #-512]	; 0xfffffe00
    48e0:	0000002e 	andeq	r0, r0, lr, lsr #32
    48e4:	70080102 	andvc	r0, r8, r2, lsl #2
    48e8:	02000000 	andeq	r0, r0, #0, 0
    48ec:	01080702 	tsteq	r8, r2, lsl #14
    48f0:	dc050000 	stcle	0, cr0, [r5], {-0}
    48f4:	03000000 	movweq	r0, #0
    48f8:	00751934 	rsbseq	r1, r5, r4, lsr r9
    48fc:	04020000 	streq	r0, [r2], #-0
    4900:	0000ca07 	andeq	ip, r0, r7, lsl #20
    4904:	00330600 	eorseq	r0, r3, r0, lsl #12
    4908:	008b0000 	addeq	r0, fp, r0
    490c:	33070000 	movwcc	r0, #28672	; 0x7000
    4910:	00000000 	andeq	r0, r0, r0
    4914:	00000a08 	andeq	r0, r0, r8, lsl #20
    4918:	0e1c0200 	cdpeq	2, 1, cr0, cr12, cr0, {0}
    491c:	00000097 	muleq	r0, r7, r0
    4920:	007c0409 	rsbseq	r0, ip, r9, lsl #8
    4924:	33060000 	movwcc	r0, #24576	; 0x6000
    4928:	ac000000 	stcge	0, cr0, [r0], {-0}
    492c:	07000000 	streq	r0, [r0, -r0]
    4930:	000000ac 	andeq	r0, r0, ip, lsr #1
    4934:	b9040900 	stmdblt	r4, {r8, fp}
    4938:	02000000 	andeq	r0, r0, #0, 0
    493c:	00790801 	rsbseq	r0, r9, r1, lsl #16
    4940:	b2040000 	andlt	r0, r4, #0, 0
    4944:	08000000 	stmdaeq	r0, {}	; <UNPREDICTABLE>
    4948:	000005fe 	strdeq	r0, [r0], -lr
    494c:	ca0e2102 	bgt	38cd5c <__bss_end__+0x381d8c>
    4950:	09000000 	stmdbeq	r0, {}	; <UNPREDICTABLE>
    4954:	00009d04 	andeq	r9, r0, r4, lsl #26
    4958:	01070a00 	tsteq	r7, r0, lsl #20
    495c:	0000005b 	andeq	r0, r0, fp, asr r0
    4960:	0f0e0c04 	svceq	0x000e0c04
    4964:	0b000001 	bleq	4970 <__code_start__-0x3690>
    4968:	00000a30 	andeq	r0, r0, r0, lsr sl
    496c:	08680b00 	stmdaeq	r8!, {r8, r9, fp}^
    4970:	0b010000 	bleq	44978 <__bss_end__+0x399a8>
    4974:	000008ab 	andeq	r0, r0, fp, lsr #17
    4978:	08ba0b04 	ldmeq	sl!, {r2, r8, r9, fp}
    497c:	0b050000 	bleq	144984 <__bss_end__+0x1399b4>
    4980:	000008c9 	andeq	r0, r0, r9, asr #17
    4984:	08d80b06 	ldmeq	r8, {r1, r2, r8, r9, fp}^
    4988:	0b070000 	bleq	1c4990 <__bss_end__+0x1b99c0>
    498c:	000009f9 	strdeq	r0, [r0], -r9
    4990:	08e70b03 	stmiaeq	r7!, {r0, r1, r8, r9, fp}^
    4994:	00020000 	andeq	r0, r2, r0
    4998:	000ba005 	andeq	sl, fp, r5
    499c:	03150400 	tsteq	r5, #0, 8
    49a0:	000000d0 	ldrdeq	r0, [r0], -r0	; <UNPREDICTABLE>
    49a4:	000b3e0c 	andeq	r3, fp, ip, lsl #28
    49a8:	171d0100 	ldrne	r0, [sp, -r0, lsl #2]
    49ac:	0000003a 	andeq	r0, r0, sl, lsr r0
    49b0:	2020001c 	eorcs	r0, r0, ip, lsl r0
    49b4:	000b340c 	andeq	r3, fp, ip, lsl #8
    49b8:	171e0100 	ldrne	r0, [lr, -r0, lsl #2]
    49bc:	0000003a 	andeq	r0, r0, sl, lsr r0
    49c0:	20200028 	eorcs	r0, r0, r8, lsr #32
    49c4:	000bac0c 	andeq	sl, fp, ip, lsl #24
    49c8:	171f0100 	ldrne	r0, [pc, -r0, lsl #2]
    49cc:	0000003a 	andeq	r0, r0, sl, lsr r0
    49d0:	20200034 	eorcs	r0, r0, r4, lsr r0
    49d4:	000b5d0d 	andeq	r5, fp, sp, lsl #26
    49d8:	05510100 	ldrbeq	r0, [r1, #-256]	; 0xffffff00
    49dc:	00000033 	andeq	r0, r0, r3, lsr r0
    49e0:	0000a0c8 	andeq	sl, r0, r8, asr #1
    49e4:	00000028 	andeq	r0, r0, r8, lsr #32
    49e8:	01ba9c01 			; <UNDEFINED> instruction: 0x01ba9c01
    49ec:	700e0000 	andvc	r0, lr, r0
    49f0:	01006e69 	tsteq	r0, r9, ror #28
    49f4:	002c1851 	eoreq	r1, ip, r1, asr r8
    49f8:	2cb80000 	ldccs	0, cr0, [r8]
    49fc:	2cb20000 	ldccs	0, cr0, [r2]
    4a00:	b60f0000 	strlt	r0, [pc], -r0
    4a04:	0100000b 	tsteq	r0, fp
    4a08:	002c0e52 	eoreq	r0, ip, r2, asr lr
    4a0c:	2cee0000 	stclcs	0, cr0, [lr]
    4a10:	2ce40000 	stclcs	0, cr0, [r4]
    4a14:	6f100000 	svcvs	0x00100000
    4a18:	01006666 	tsteq	r0, r6, ror #12
    4a1c:	002c0e53 	eoreq	r0, ip, r3, asr lr
    4a20:	2d5c0000 	ldclcs	0, cr0, [ip, #-0]
    4a24:	2d560000 	ldclcs	0, cr0, [r6, #-0]
    4a28:	dc110000 	ldcle	0, cr0, [r1], {-0}
    4a2c:	5e0000a0 	cdppl	0, 0, cr0, cr0, cr0, {5}
    4a30:	12000006 	andne	r0, r0, #6, 0
    4a34:	740a5001 	strvc	r5, [sl], #-1
    4a38:	23253500 			; <UNDEFINED> instruction: 0x23253500
    4a3c:	818080b4 	strhhi	r8, [r0, r4]
    4a40:	13000002 	movwne	r0, #2
    4a44:	00000b48 	andeq	r0, r0, r8, asr #22
    4a48:	98064a01 	stmdals	r6, {r0, r9, fp, lr}
    4a4c:	300000a0 	andcc	r0, r0, r0, lsr #1
    4a50:	01000000 	mrseq	r0, (UNDEF: 0)
    4a54:	0002759c 	muleq	r2, ip, r5
    4a58:	69700e00 	ldmdbvs	r0!, {r9, sl, fp}^
    4a5c:	4a01006e 	bmi	44c1c <__bss_end__+0x39c4c>
    4a60:	00002c1a 	andeq	r2, r0, sl, lsl ip
    4a64:	002d9900 	eoreq	r9, sp, r0, lsl #18
    4a68:	002d8d00 	eoreq	r8, sp, r0, lsl #26
    4a6c:	00760e00 	rsbseq	r0, r6, r0, lsl #28
    4a70:	2c284a01 			; <UNDEFINED> instruction: 0x2c284a01
    4a74:	ed000000 	stc	0, cr0, [r0, #-0]
    4a78:	e900002d 	stmdb	r0, {r0, r2, r3, r5}
    4a7c:	1400002d 	strne	r0, [r0], #-45	; 0xffffffd3
    4a80:	0000038d 	andeq	r0, r0, sp, lsl #7
    4a84:	0000a0a8 	andeq	sl, r0, r8, lsr #1
    4a88:	0005e001 	andeq	lr, r5, r1
    4a8c:	094c0100 	stmdbeq	ip, {r8}^
    4a90:	00000235 	andeq	r0, r0, r5, lsr r2
    4a94:	00039a15 	andeq	r9, r3, r5, lsl sl
    4a98:	002e1400 	eoreq	r1, lr, r0, lsl #8
    4a9c:	002e0e00 	eoreq	r0, lr, r0, lsl #28
    4aa0:	a0b41600 	adcsge	r1, r4, r0, lsl #12
    4aa4:	066a0000 	strbteq	r0, [sl], -r0
    4aa8:	01120000 	tsteq	r2, r0
    4aac:	1c0c0550 	cfstr32ne	mvfx0, [ip], {80}	; 0x50
    4ab0:	12202000 	eorne	r2, r0, #0, 0
    4ab4:	31055101 	tstcc	r5, r1, lsl #2
    4ab8:	245001f3 	ldrbcs	r0, [r0], #-499	; 0xfffffe0d
    4abc:	73170000 	tstvc	r7, #0, 0
    4ac0:	b4000003 	strlt	r0, [r0], #-3
    4ac4:	020000a0 	andeq	r0, r0, #160, 0	; 0xa0
    4ac8:	0000a0b4 	strheq	sl, [r0], -r4
    4acc:	00000014 	andeq	r0, r0, r4, lsl r0
    4ad0:	15094e01 	strne	r4, [r9, #-3585]	; 0xfffff1ff
    4ad4:	00000380 	andeq	r0, r0, r0, lsl #7
    4ad8:	00002e46 	andeq	r2, r0, r6, asr #28
    4adc:	00002e40 	andeq	r2, r0, r0, asr #28
    4ae0:	00a0c016 	adceq	ip, r0, r6, lsl r0
    4ae4:	00066a00 	andeq	r6, r6, r0, lsl #20
    4ae8:	50011200 	andpl	r1, r1, r0, lsl #4
    4aec:	00280c05 	eoreq	r0, r8, r5, lsl #24
    4af0:	01122020 	tsteq	r2, r0, lsr #32
    4af4:	f3310551 	vqrshl.u64	q0, <illegal reg q0.5>, <illegal reg q0.5>
    4af8:	00245001 	eoreq	r5, r4, r1
    4afc:	74130000 	ldrvc	r0, [r3], #-0
    4b00:	0100000b 	tsteq	r0, fp
    4b04:	a0400645 	subge	r0, r0, r5, asr #12
    4b08:	00580000 	subseq	r0, r8, r0
    4b0c:	9c010000 	stcls	0, cr0, [r1], {-0}
    4b10:	00000373 	andeq	r0, r0, r3, ror r3
    4b14:	6e69700e 	cdpvs	0, 6, cr7, cr9, cr14, {0}
    4b18:	1e450100 	dvfnes	f0, f5, f0
    4b1c:	0000002c 	andeq	r0, r0, ip, lsr #32
    4b20:	00002e78 	andeq	r2, r0, r8, ror lr
    4b24:	00002e72 	andeq	r2, r0, r2, ror lr
    4b28:	0004a518 	andeq	sl, r4, r8, lsl r5
    4b2c:	00a04000 	adceq	r4, r0, r0
    4b30:	05a00200 	streq	r0, [r0, #512]!	; 0x200
    4b34:	46010000 	strmi	r0, [r1], -r0
    4b38:	04be1905 	ldrteq	r1, [lr], #2309	; 0x905
    4b3c:	15000000 	strne	r0, [r0, #-0]
    4b40:	000004b2 			; <UNDEFINED> instruction: 0x000004b2
    4b44:	00002eaa 	andeq	r2, r0, sl, lsr #29
    4b48:	00002ea4 	andeq	r2, r0, r4, lsr #29
    4b4c:	0005a01a 	andeq	sl, r5, sl, lsl r0
    4b50:	04ca1b00 	strbeq	r1, [sl], #2816	; 0xb00
    4b54:	d61b0000 	ldrle	r0, [fp], -r0
    4b58:	1b000004 	blne	4b70 <__code_start__-0x3490>
    4b5c:	000004e0 	andeq	r0, r0, r0, ror #9
    4b60:	0004a518 	andeq	sl, r4, r8, lsl r5
    4b64:	00a04800 	adceq	r4, r0, r0, lsl #16
    4b68:	05c00000 	strbeq	r0, [r0]
    4b6c:	28010000 	stmdacs	r1, {}	; <UNPREDICTABLE>
    4b70:	04be1906 	ldrteq	r1, [lr], #2310	; 0x906
    4b74:	15000000 	strne	r0, [r0, #-0]
    4b78:	000004b2 			; <UNDEFINED> instruction: 0x000004b2
    4b7c:	00002edc 	ldrdeq	r2, [r0], -ip
    4b80:	00002ed6 	ldrdeq	r2, [r0], -r6
    4b84:	0005c01a 	andeq	ip, r5, sl, lsl r0
    4b88:	04ca1c00 	strbeq	r1, [sl], #3072	; 0xc00
    4b8c:	2f0e0000 	svccs	0x000e0000
    4b90:	2f080000 	svccs	0x00080000
    4b94:	d61c0000 	ldrle	r0, [ip], -r0
    4b98:	50000004 	andpl	r0, r0, r4
    4b9c:	4a00002f 	bmi	4c60 <__code_start__-0x33a0>
    4ba0:	1c00002f 	stcne	0, cr0, [r0], {47}	; 0x2f
    4ba4:	000004e0 	andeq	r0, r0, r0, ror #9
    4ba8:	00002fa6 	andeq	r2, r0, r6, lsr #31
    4bac:	00002f9e 	muleq	r0, lr, pc	; <UNPREDICTABLE>
    4bb0:	00a0701d 	adceq	r7, r0, sp, lsl r0
    4bb4:	00065e00 	andeq	r5, r6, r0, lsl #28
    4bb8:	00033b00 	andeq	r3, r3, r0, lsl #22
    4bbc:	50011200 	andpl	r1, r1, r0, lsl #4
    4bc0:	00007602 	andeq	r7, r0, r2, lsl #12
    4bc4:	00a09416 	adceq	r9, r0, r6, lsl r4
    4bc8:	00066a00 	andeq	r6, r6, r0, lsl #20
    4bcc:	50011200 	andpl	r1, r1, r0, lsl #4
    4bd0:	5001f325 	andpl	pc, r1, r5, lsr #6
    4bd4:	25f72cf7 	ldrbcs	r2, [r7, #3319]!	; 0xcf7
    4bd8:	cd0825f4 	cfstr32gt	mvfx2, [r8, #-976]	; 0xfffffc30
    4bdc:	00cccccc 	sbceq	ip, ip, ip, asr #25
    4be0:	1e000000 	cdpne	0, 0, cr0, cr0, cr0, {0}
    4be4:	25f72008 	ldrbcs	r2, [r7, #8]!
    4be8:	f72cf725 			; <UNDEFINED> instruction: 0xf72cf725
    4bec:	23253300 			; <UNDEFINED> instruction: 0x23253300
    4bf0:	40a08080 	adcmi	r8, r0, r0, lsl #1
    4bf4:	00002432 	andeq	r2, r0, r2, lsr r4
    4bf8:	00000000 	andeq	r0, r0, r0
    4bfc:	000b831e 	andeq	r8, fp, lr, lsl r3
    4c00:	0d400100 	stfeqe	f0, [r0, #-0]
    4c04:	00038d03 	andeq	r8, r3, r3, lsl #26
    4c08:	69701f00 	ldmdbvs	r0!, {r8, r9, sl, fp, ip}^
    4c0c:	4001006e 	andmi	r0, r1, lr, rrx
    4c10:	00002c23 	andeq	r2, r0, r3, lsr #24
    4c14:	bb1e0000 	bllt	784c1c <__bss_end__+0x779c4c>
    4c18:	0100000b 	tsteq	r0, fp
    4c1c:	a7030d3b 	smladxge	r3, fp, sp, r0
    4c20:	1f000003 	svcne	0x00000003
    4c24:	006e6970 	rsbeq	r6, lr, r0, ror r9
    4c28:	2c223b01 			; <UNDEFINED> instruction: 0x2c223b01
    4c2c:	00000000 	andeq	r0, r0, r0
    4c30:	000b9013 	andeq	r9, fp, r3, lsl r0
    4c34:	06360100 	ldrteq	r0, [r6], -r0, lsl #2
    4c38:	00009fb8 			; <UNDEFINED> instruction: 0x00009fb8
    4c3c:	00000058 	andeq	r0, r0, r8, asr r0
    4c40:	04a59c01 	strteq	r9, [r5], #3073	; 0xc01
    4c44:	700e0000 	andvc	r0, lr, r0
    4c48:	01006e69 	tsteq	r0, r9, ror #28
    4c4c:	002c1f36 	eoreq	r1, ip, r6, lsr pc
    4c50:	30040000 	andcc	r0, r4, r0
    4c54:	30000000 	andcc	r0, r0, r0
    4c58:	a5180000 	ldrge	r0, [r8, #-0]
    4c5c:	b8000004 	stmdalt	r0, {r2}
    4c60:	0200009f 	andeq	r0, r0, #159, 0	; 0x9f
    4c64:	00000560 	andeq	r0, r0, r0, ror #10
    4c68:	19053701 	stmdbne	r5, {r0, r8, r9, sl, ip, sp}
    4c6c:	000004be 			; <UNDEFINED> instruction: 0x000004be
    4c70:	04b21501 	ldrteq	r1, [r2], #1281	; 0x501
    4c74:	30290000 	eorcc	r0, r9, r0
    4c78:	30250000 	eorcc	r0, r5, r0
    4c7c:	601a0000 	andsvs	r0, sl, r0
    4c80:	1b000005 	blne	4c9c <__code_start__-0x3364>
    4c84:	000004ca 	andeq	r0, r0, sl, asr #9
    4c88:	0004d61b 	andeq	sp, r4, fp, lsl r6
    4c8c:	04e01b00 	strbteq	r1, [r0], #2816	; 0xb00
    4c90:	a5180000 	ldrge	r0, [r8, #-0]
    4c94:	c0000004 	andgt	r0, r0, r4
    4c98:	0000009f 	muleq	r0, pc, r0	; <UNPREDICTABLE>
    4c9c:	00000580 	andeq	r0, r0, r0, lsl #11
    4ca0:	19062801 	stmdbne	r6, {r0, fp, sp}
    4ca4:	000004be 			; <UNDEFINED> instruction: 0x000004be
    4ca8:	04b21501 	ldrteq	r1, [r2], #1281	; 0x501
    4cac:	304e0000 	subcc	r0, lr, r0
    4cb0:	304a0000 	subcc	r0, sl, r0
    4cb4:	801a0000 	andshi	r0, sl, r0
    4cb8:	1c000005 	stcne	0, cr0, [r0], {5}
    4cbc:	000004ca 	andeq	r0, r0, sl, asr #9
    4cc0:	00003073 	andeq	r3, r0, r3, ror r0
    4cc4:	0000306f 	andeq	r3, r0, pc, rrx
    4cc8:	0004d61c 	andeq	sp, r4, ip, lsl r6
    4ccc:	0030bf00 	eorseq	fp, r0, r0, lsl #30
    4cd0:	0030b900 	eorseq	fp, r0, r0, lsl #18
    4cd4:	04e01c00 	strbteq	r1, [r0], #3072	; 0xc00
    4cd8:	31150000 	tstcc	r5, r0
    4cdc:	310d0000 	mrscc	r0, (UNDEF: 13)
    4ce0:	ec1d0000 	ldc	0, cr0, [sp], {-0}
    4ce4:	5e00009f 	mcrpl	0, 0, r0, cr0, cr15, {4}
    4ce8:	6d000006 	stcvs	0, cr0, [r0, #-24]	; 0xffffffe8
    4cec:	12000004 	andne	r0, r0, #4, 0
    4cf0:	75025001 	strvc	r5, [r2, #-1]
    4cf4:	0c160000 	ldceq	0, cr0, [r6], {-0}
    4cf8:	6a0000a0 	bvs	4f80 <__code_start__-0x3080>
    4cfc:	12000006 	andne	r0, r0, #6, 0
    4d00:	f3255001 	vhadd.u32	d5, d5, d1
    4d04:	2cf75001 	ldclcs	0, cr5, [r7], #4
    4d08:	25f425f7 	ldrbcs	r2, [r4, #1527]!	; 0x5f7
    4d0c:	cccccd08 	stclgt	13, cr12, [ip], {8}
    4d10:	000000cc 	andeq	r0, r0, ip, asr #1
    4d14:	20081e00 	andcs	r1, r8, r0, lsl #28
    4d18:	f72525f7 			; <UNDEFINED> instruction: 0xf72525f7
    4d1c:	3300f72c 	movwcc	pc, #1836	; 0x72c	; <UNPREDICTABLE>
    4d20:	80802325 	addhi	r2, r0, r5, lsr #6
    4d24:	243240a0 	ldrtcs	r4, [r2], #-160	; 0xffffff60
    4d28:	00000000 	andeq	r0, r0, r0
    4d2c:	401e0000 	andsmi	r0, lr, r0
    4d30:	0100000a 	tsteq	r0, sl
    4d34:	eb010628 	bl	465dc <__bss_end__+0x3b60c>
    4d38:	1f000004 	svcne	0x00000004
    4d3c:	006e6970 	rsbeq	r6, lr, r0, ror r9
    4d40:	2c212801 	stccs	8, cr2, [r1], #-4
    4d44:	20000000 	andcs	r0, r0, r0
    4d48:	00000029 	andeq	r0, r0, r9, lsr #32
    4d4c:	0f322801 	svceq	0x00322801
    4d50:	21000001 	tstcs	r0, r1
    4d54:	0066666f 	rsbeq	r6, r6, pc, ror #12
    4d58:	2c0e2d01 	stccs	13, cr2, [lr], {1}
    4d5c:	21000000 	mrscs	r0, (UNDEF: 0)
    4d60:	2e010067 	cdpcs	0, 0, cr0, cr1, cr7, {3}
    4d64:	00002c0e 	andeq	r2, r0, lr, lsl #24
    4d68:	00762100 	rsbseq	r2, r6, r0, lsl #2
    4d6c:	2c0e3001 	stccs	0, cr3, [lr], {1}
    4d70:	00000000 	andeq	r0, r0, r0
    4d74:	000b5322 	andeq	r5, fp, r2, lsr #6
    4d78:	18b10200 	ldmne	r1!, {r9}
    4d7c:	00000069 	andeq	r0, r0, r9, rrx
    4d80:	00050703 	andeq	r0, r5, r3, lsl #14
    4d84:	00781f00 	rsbseq	r1, r8, r0, lsl #30
    4d88:	692bb102 	stmdbvs	fp!, {r1, r8, ip, sp, pc}
    4d8c:	00000000 	andeq	r0, r0, r0
    4d90:	0004a523 	andeq	sl, r4, r3, lsr #10
    4d94:	009f5800 	addseq	r5, pc, r0, lsl #16
    4d98:	00006000 	andeq	r6, r0, r0
    4d9c:	e49c0100 	ldr	r0, [ip], #256	; 0x100
    4da0:	15000005 	strne	r0, [r0, #-5]
    4da4:	000004b2 			; <UNDEFINED> instruction: 0x000004b2
    4da8:	00003154 	andeq	r3, r0, r4, asr r1
    4dac:	00003150 	andeq	r3, r0, r0, asr r1
    4db0:	0004be15 	andeq	fp, r4, r5, lsl lr
    4db4:	00317900 	eorseq	r7, r1, r0, lsl #18
    4db8:	00317500 	eorseq	r7, r1, r0, lsl #10
    4dbc:	04ca1b00 	strbeq	r1, [sl], #2816	; 0xb00
    4dc0:	d61b0000 	ldrle	r0, [fp], -r0
    4dc4:	1b000004 	blne	4ddc <__code_start__-0x3224>
    4dc8:	000004e0 	andeq	r0, r0, r0, ror #9
    4dcc:	0004a518 	andeq	sl, r4, r8, lsl r5
    4dd0:	009f6000 	addseq	r6, pc, r0
    4dd4:	05400000 	strbeq	r0, [r0, #-0]
    4dd8:	28010000 	stmdacs	r1, {}	; <UNPREDICTABLE>
    4ddc:	04be1506 	ldrteq	r1, [lr], #1286	; 0x506
    4de0:	319e0000 	orrscc	r0, lr, r0
    4de4:	319a0000 	orrscc	r0, sl, r0
    4de8:	b2150000 	andslt	r0, r5, #0, 0
    4dec:	c3000004 	movwgt	r0, #4
    4df0:	bf000031 	svclt	0x00000031
    4df4:	1a000031 	bne	4ec0 <__code_start__-0x3140>
    4df8:	00000540 	andeq	r0, r0, r0, asr #10
    4dfc:	0004ca1c 	andeq	ip, r4, ip, lsl sl
    4e00:	0031e800 	eorseq	lr, r1, r0, lsl #16
    4e04:	0031e400 	eorseq	lr, r1, r0, lsl #8
    4e08:	04d61c00 	ldrbeq	r1, [r6], #3072	; 0xc00
    4e0c:	32340000 	eorscc	r0, r4, #0, 0
    4e10:	322e0000 	eorcc	r0, lr, #0, 0
    4e14:	e01c0000 	ands	r0, ip, r0
    4e18:	8a000004 	bhi	4e30 <__code_start__-0x31d0>
    4e1c:	82000032 	andhi	r0, r0, #50, 0	; 0x32
    4e20:	1d000032 	stcne	0, cr0, [r0, #-200]	; 0xffffff38
    4e24:	00009f98 	muleq	r0, r8, pc	; <UNPREDICTABLE>
    4e28:	0000065e 	andeq	r0, r0, lr, asr r6
    4e2c:	000005ae 	andeq	r0, r0, lr, lsr #11
    4e30:	02500112 	subseq	r0, r0, #-2147483644	; 0x80000004
    4e34:	16000076 			; <UNDEFINED> instruction: 0x16000076
    4e38:	00009fb4 			; <UNDEFINED> instruction: 0x00009fb4
    4e3c:	0000066a 	andeq	r0, r0, sl, ror #12
    4e40:	25500112 	ldrbcs	r0, [r0, #-274]	; 0xfffffeee
    4e44:	f75001f3 			; <UNDEFINED> instruction: 0xf75001f3
    4e48:	f425f72c 	vld1.8	{d15}, [r5 :128], ip
    4e4c:	cccd0825 	stclgt	8, cr0, [sp], {37}	; 0x25
    4e50:	0000cccc 	andeq	ip, r0, ip, asr #25
    4e54:	081e0000 	ldmdaeq	lr, {}	; <UNPREDICTABLE>
    4e58:	2525f720 	strcs	pc, [r5, #-1824]!	; 0xfffff8e0
    4e5c:	00f72cf7 	ldrshteq	r2, [r7], #199	; 0xc7
    4e60:	80232533 	eorhi	r2, r3, r3, lsr r5
    4e64:	3240a080 	subcc	sl, r0, #128, 0	; 0x80
    4e68:	00000024 	andeq	r0, r0, r4, lsr #32
    4e6c:	038d2300 	orreq	r2, sp, #0, 6
    4e70:	a0100000 	andsge	r0, r0, r0
    4e74:	00180000 	andseq	r0, r8, r0
    4e78:	9c010000 	stcls	0, cr0, [r1], {-0}
    4e7c:	00000621 	andeq	r0, r0, r1, lsr #12
    4e80:	00039a15 	andeq	r9, r3, r5, lsl sl
    4e84:	0032e000 	eorseq	lr, r2, r0
    4e88:	0032da00 	eorseq	sp, r2, r0, lsl #20
    4e8c:	a0241600 	eorge	r1, r4, r0, lsl #12
    4e90:	066a0000 	strbteq	r0, [sl], -r0
    4e94:	01120000 	tsteq	r2, r0
    4e98:	1c0c0550 	cfstr32ne	mvfx0, [ip], {80}	; 0x50
    4e9c:	12202000 	eorne	r2, r0, #0, 0
    4ea0:	31055101 	tstcc	r5, r1, lsl #2
    4ea4:	245001f3 	ldrbcs	r0, [r0], #-499	; 0xfffffe0d
    4ea8:	73230000 			; <UNDEFINED> instruction: 0x73230000
    4eac:	28000003 	stmdacs	r0, {r0, r1}
    4eb0:	180000a0 	stmdane	r0, {r5, r7}
    4eb4:	01000000 	mrseq	r0, (UNDEF: 0)
    4eb8:	00065e9c 	muleq	r6, ip, lr
    4ebc:	03801500 	orreq	r1, r0, #0, 10
    4ec0:	33120000 	tstcc	r2, #0, 0
    4ec4:	330c0000 	movwcc	r0, #49152	; 0xc000
    4ec8:	3c160000 	ldccc	0, cr0, [r6], {-0}
    4ecc:	6a0000a0 	bvs	5154 <__code_start__-0x2eac>
    4ed0:	12000006 	andne	r0, r0, #6, 0
    4ed4:	0c055001 	stceq	0, cr5, [r5], {1}
    4ed8:	20200028 	eorcs	r0, r0, r8, lsr #32
    4edc:	05510112 	ldrbeq	r0, [r1, #-274]	; 0xfffffeee
    4ee0:	5001f331 	andpl	pc, r1, r1, lsr r3	; <UNPREDICTABLE>
    4ee4:	24000024 	strcs	r0, [r0], #-36	; 0xffffffdc
    4ee8:	00000815 	andeq	r0, r0, r5, lsl r8
    4eec:	00000815 	andeq	r0, r0, r5, lsl r8
    4ef0:	240ac202 	strcs	ip, [sl], #-514	; 0xfffffdfe
    4ef4:	00000023 	andeq	r0, r0, r3, lsr #32
    4ef8:	00000023 	andeq	r0, r0, r3, lsr #32
    4efc:	0006ad02 	andeq	sl, r6, r2, lsl #26
    4f00:	00000149 	andeq	r0, r0, r9, asr #2
    4f04:	1b1f0004 	blne	7c4f1c <__bss_end__+0x7b9f4c>
    4f08:	01040000 	mrseq	r0, (UNDEF: 4)
    4f0c:	00000132 	andeq	r0, r0, r2, lsr r1
    4f10:	000be50c 	andeq	lr, fp, ip, lsl #10
    4f14:	00059600 	andeq	r9, r5, r0, lsl #12
    4f18:	00a0f000 	adceq	pc, r0, r0
    4f1c:	00003c00 	andeq	r3, r0, r0, lsl #24
    4f20:	00270200 	eoreq	r0, r7, r0, lsl #4
    4f24:	05040200 	streq	r0, [r4, #-512]	; 0xfffffe00
    4f28:	00746e69 	rsbseq	r6, r4, r9, ror #28
    4f2c:	cf070403 	svcgt	0x00070403
    4f30:	03000000 	movweq	r0, #0
    4f34:	00720601 	rsbseq	r0, r2, r1, lsl #12
    4f38:	02030000 	andeq	r0, r3, #0, 0
    4f3c:	00000005 	andeq	r0, r0, r5
    4f40:	05040300 	streq	r0, [r4, #-768]	; 0xfffffd00
    4f44:	00000033 	andeq	r0, r0, r3, lsr r0
    4f48:	2e050803 	cdpcs	8, 0, cr0, cr5, cr3, {0}
    4f4c:	03000000 	movweq	r0, #0
    4f50:	00700801 	rsbseq	r0, r0, r1, lsl #16
    4f54:	02030000 	andeq	r0, r3, #0, 0
    4f58:	00010807 	andeq	r0, r1, r7, lsl #16
    4f5c:	07040300 	streq	r0, [r4, -r0, lsl #6]
    4f60:	000000ca 	andeq	r0, r0, sl, asr #1
    4f64:	c5070803 	strgt	r0, [r7, #-2051]	; 0xfffff7fd
    4f68:	04000000 	streq	r0, [r0], #-0
    4f6c:	00000025 	andeq	r0, r0, r5, lsr #32
    4f70:	0000007a 	andeq	r0, r0, sl, ror r0
    4f74:	00002505 	andeq	r2, r0, r5, lsl #10
    4f78:	0a060000 	beq	184f80 <__bss_end__+0x179fb0>
    4f7c:	02000000 	andeq	r0, r0, #0, 0
    4f80:	00860e1c 	addeq	r0, r6, ip, lsl lr
    4f84:	04070000 	streq	r0, [r7], #-0
    4f88:	0000006b 	andeq	r0, r0, fp, rrx
    4f8c:	00002504 	andeq	r2, r0, r4, lsl #10
    4f90:	00009b00 	andeq	r9, r0, r0, lsl #22
    4f94:	009b0500 	addseq	r0, fp, r0, lsl #10
    4f98:	07000000 	streq	r0, [r0, -r0]
    4f9c:	0000a804 	andeq	sl, r0, r4, lsl #16
    4fa0:	08010300 	stmdaeq	r1, {r8, r9}
    4fa4:	00000079 	andeq	r0, r0, r9, ror r0
    4fa8:	0000a108 	andeq	sl, r0, r8, lsl #2
    4fac:	05fe0600 	ldrbeq	r0, [lr, #1536]!	; 0x600
    4fb0:	21020000 	mrscs	r0, (UNDEF: 2)
    4fb4:	0000b90e 	andeq	fp, r0, lr, lsl #18
    4fb8:	8c040700 	stchi	7, cr0, [r4], {-0}
    4fbc:	09000000 	stmdbeq	r0, {}	; <UNPREDICTABLE>
    4fc0:	0000007a 	andeq	r0, r0, sl, ror r0
    4fc4:	05070601 	streq	r0, [r7, #-1537]	; 0xfffff9ff
    4fc8:	00aba003 	adceq	sl, fp, r3
    4fcc:	0bd80a00 	bleq	ff6077d4 <__bss_end__+0xff5fc804>
    4fd0:	0b010000 	bleq	44fd8 <__bss_end__+0x3a008>
    4fd4:	00a11c06 	adceq	r1, r1, r6, lsl #24
    4fd8:	00001000 	andeq	r1, r0, r0
    4fdc:	f19c0100 			; <UNDEFINED> instruction: 0xf19c0100
    4fe0:	0b000000 	bleq	4fe8 <__code_start__-0x3018>
    4fe4:	01007066 	tsteq	r0, r6, rrx
    4fe8:	0086190b 	addeq	r1, r6, fp, lsl #18
    4fec:	50010000 	andpl	r0, r1, r0
    4ff0:	0b150c00 	bleq	547ff8 <__bss_end__+0x53d028>
    4ff4:	08010000 	stmdaeq	r1, {}	; <UNPREDICTABLE>
    4ff8:	00a10406 	adceq	r0, r1, r6, lsl #8
    4ffc:	00001800 	andeq	r1, r0, r0, lsl #16
    5000:	0d9c0100 	ldfeqs	f0, [ip]
    5004:	00000bc7 	andeq	r0, r0, r7, asr #23
    5008:	250c0301 	strcs	r0, [ip, #-769]	; 0xfffffcff
    500c:	f0000000 			; <UNDEFINED> instruction: 0xf0000000
    5010:	140000a0 	strne	r0, [r0], #-160	; 0xffffff60
    5014:	01000000 	mrseq	r0, (UNDEF: 0)
    5018:	0001409c 	muleq	r1, ip, r0
    501c:	00630e00 	rsbeq	r0, r3, r0, lsl #28
    5020:	25210301 	strcs	r0, [r1, #-769]!	; 0xfffffcff
    5024:	42000000 	andmi	r0, r0, #0, 0
    5028:	3e000033 	mcrcc	0, 0, r0, cr0, cr3, {1}
    502c:	0f000033 	svceq	0x00000033
    5030:	0000a0fc 	strdeq	sl, [r0], -ip
    5034:	00000140 	andeq	r0, r0, r0, asr #2
    5038:	02500110 	subseq	r0, r0, #4
    503c:	00000074 	andeq	r0, r0, r4, ror r0
    5040:	000a2611 	andeq	r2, sl, r1, lsl r6
    5044:	000a2600 	andeq	r2, sl, r0, lsl #12
    5048:	06420200 	strbeq	r0, [r2], -r0, lsl #4
    504c:	00013700 	andeq	r3, r1, r0, lsl #14
    5050:	2e000400 	cfcpyscs	mvf0, mvf0
    5054:	0400001c 	streq	r0, [r0], #-28	; 0xffffffe4
    5058:	00013201 	andeq	r3, r1, r1, lsl #4
    505c:	0bf60c00 	bleq	ffd88064 <__bss_end__+0xffd7d094>
    5060:	05960000 	ldreq	r0, [r6]
    5064:	a12c0000 			; <UNDEFINED> instruction: 0xa12c0000
    5068:	002c0000 	eoreq	r0, ip, r0
    506c:	27a40000 	strcs	r0, [r4, r0]!
    5070:	04020000 	streq	r0, [r2], #-0
    5074:	746e6905 	strbtvc	r6, [lr], #-2309	; 0xfffff6fb
    5078:	07040300 	streq	r0, [r4, -r0, lsl #6]
    507c:	000000cf 	andeq	r0, r0, pc, asr #1
    5080:	72060103 	andvc	r0, r6, #-1073741824	; 0xc0000000
    5084:	03000000 	movweq	r0, #0
    5088:	00000502 	andeq	r0, r0, r2, lsl #10
    508c:	04030000 	streq	r0, [r3], #-0
    5090:	00003305 	andeq	r3, r0, r5, lsl #6
    5094:	05080300 	streq	r0, [r8, #-768]	; 0xfffffd00
    5098:	0000002e 	andeq	r0, r0, lr, lsr #32
    509c:	70080103 	andvc	r0, r8, r3, lsl #2
    50a0:	03000000 	movweq	r0, #0
    50a4:	01080702 	tsteq	r8, r2, lsl #14
    50a8:	04030000 	streq	r0, [r3], #-0
    50ac:	0000ca07 	andeq	ip, r0, r7, lsl #20
    50b0:	07080300 	streq	r0, [r8, -r0, lsl #6]
    50b4:	000000c5 	andeq	r0, r0, r5, asr #1
    50b8:	00002504 	andeq	r2, r0, r4, lsl #10
    50bc:	00007a00 	andeq	r7, r0, r0, lsl #20
    50c0:	00250500 	eoreq	r0, r5, r0, lsl #10
    50c4:	06000000 	streq	r0, [r0], -r0
    50c8:	0000000a 	andeq	r0, r0, sl
    50cc:	860e1c02 	strhi	r1, [lr], -r2, lsl #24
    50d0:	07000000 	streq	r0, [r0, -r0]
    50d4:	00006b04 	andeq	r6, r0, r4, lsl #22
    50d8:	00250400 	eoreq	r0, r5, r0, lsl #8
    50dc:	009b0000 	addseq	r0, fp, r0
    50e0:	9b050000 	blls	1450e8 <__bss_end__+0x13a118>
    50e4:	00000000 	andeq	r0, r0, r0
    50e8:	00a80407 	adceq	r0, r8, r7, lsl #8
    50ec:	01030000 	mrseq	r0, (UNDEF: 3)
    50f0:	00007908 	andeq	r7, r0, r8, lsl #18
    50f4:	00a10800 	adceq	r0, r1, r0, lsl #16
    50f8:	fe060000 	cdp2	0, 0, cr0, cr6, cr0, {0}
    50fc:	02000005 	andeq	r0, r0, #5, 0
    5100:	00b90e21 	adcseq	r0, r9, r1, lsr #28
    5104:	04070000 	streq	r0, [r7], #-0
    5108:	0000008c 	andeq	r0, r0, ip, lsl #1
    510c:	00067a09 	andeq	r7, r6, r9, lsl #20
    5110:	07040100 	streq	r0, [r4, -r0, lsl #2]
    5114:	00000134 	andeq	r0, r0, r4, lsr r1
    5118:	0000a12c 	andeq	sl, r0, ip, lsr #2
    511c:	0000002c 	andeq	r0, r0, ip, lsr #32
    5120:	01349c01 	teqeq	r4, r1, lsl #24
    5124:	060a0000 	streq	r0, [sl], -r0
    5128:	0100000c 	tsteq	r0, ip
    512c:	01341504 	teqeq	r4, r4, lsl #10
    5130:	50010000 	andpl	r0, r1, r0
    5134:	6372730b 	cmnvs	r2, #738197504	; 0x2c000000
    5138:	27040100 	strcs	r0, [r4, -r0, lsl #2]
    513c:	0000009b 	muleq	r0, fp, r0
    5140:	00003364 	andeq	r3, r0, r4, ror #6
    5144:	00003360 	andeq	r3, r0, r0, ror #6
    5148:	0031730c 	eorseq	r7, r1, ip, lsl #6
    514c:	340b0501 	strcc	r0, [fp], #-1281	; 0xfffffaff
    5150:	93000001 	movwls	r0, #1
    5154:	85000033 	strhi	r0, [r0, #-51]	; 0xffffffcd
    5158:	0c000033 	stceq	0, cr0, [r0], {51}	; 0x33
    515c:	01003273 	tsteq	r0, r3, ror r2
    5160:	009b1106 	addseq	r1, fp, r6, lsl #2
    5164:	33f20000 	mvnscc	r0, #0, 0
    5168:	33ec0000 	mvncc	r0, #0, 0
    516c:	630c0000 	movwvs	r0, #49152	; 0xc000
    5170:	0a070100 	beq	1c5578 <__bss_end__+0x1ba5a8>
    5174:	000000a1 	andeq	r0, r0, r1, lsr #1
    5178:	00003423 	andeq	r3, r0, r3, lsr #8
    517c:	0000341d 	andeq	r3, r0, sp, lsl r4
    5180:	a1040700 	tstge	r4, r0, lsl #14
    5184:	00000000 	andeq	r0, r0, r0
    5188:	000000f7 	strdeq	r0, [r0], -r7
    518c:	1ce40004 	stclne	0, cr0, [r4], #16
    5190:	01040000 	mrseq	r0, (UNDEF: 4)
    5194:	00000132 	andeq	r0, r0, r2, lsr r1
    5198:	000c0b0c 	andeq	r0, ip, ip, lsl #22
    519c:	00059600 	andeq	r9, r5, r0, lsl #12
    51a0:	00a15800 	adceq	r5, r1, r0, lsl #16
    51a4:	00004400 	andeq	r4, r0, r0, lsl #8
    51a8:	00288a00 	eoreq	r8, r8, r0, lsl #20
    51ac:	05040200 	streq	r0, [r4, #-512]	; 0xfffffe00
    51b0:	00746e69 	rsbseq	r6, r4, r9, ror #28
    51b4:	cf070403 	svcgt	0x00070403
    51b8:	03000000 	movweq	r0, #0
    51bc:	00720601 	rsbseq	r0, r2, r1, lsl #12
    51c0:	02030000 	andeq	r0, r3, #0, 0
    51c4:	00000005 	andeq	r0, r0, r5
    51c8:	05040300 	streq	r0, [r4, #-768]	; 0xfffffd00
    51cc:	00000033 	andeq	r0, r0, r3, lsr r0
    51d0:	2e050803 	cdpcs	8, 0, cr0, cr5, cr3, {0}
    51d4:	03000000 	movweq	r0, #0
    51d8:	00700801 	rsbseq	r0, r0, r1, lsl #16
    51dc:	02030000 	andeq	r0, r3, #0, 0
    51e0:	00010807 	andeq	r0, r1, r7, lsl #16
    51e4:	07040300 	streq	r0, [r4, -r0, lsl #6]
    51e8:	000000ca 	andeq	r0, r0, sl, asr #1
    51ec:	c5070803 	strgt	r0, [r7, #-2051]	; 0xfffff7fd
    51f0:	04000000 	streq	r0, [r0], #-0
    51f4:	00000025 	andeq	r0, r0, r5, lsr #32
    51f8:	0000007a 	andeq	r0, r0, sl, ror r0
    51fc:	00002505 	andeq	r2, r0, r5, lsl #10
    5200:	0a060000 	beq	185208 <__bss_end__+0x17a238>
    5204:	02000000 	andeq	r0, r0, #0, 0
    5208:	00860e1c 	addeq	r0, r6, ip, lsl lr
    520c:	04070000 	streq	r0, [r7], #-0
    5210:	0000006b 	andeq	r0, r0, fp, rrx
    5214:	00002504 	andeq	r2, r0, r4, lsl #10
    5218:	00009b00 	andeq	r9, r0, r0, lsl #22
    521c:	009b0500 	addseq	r0, fp, r0, lsl #10
    5220:	07000000 	streq	r0, [r0, -r0]
    5224:	0000a804 	andeq	sl, r0, r4, lsl #16
    5228:	08010300 	stmdaeq	r1, {r8, r9}
    522c:	00000079 	andeq	r0, r0, r9, ror r0
    5230:	0000a108 	andeq	sl, r0, r8, lsl #2
    5234:	05fe0600 	ldrbeq	r0, [lr, #1536]!	; 0x600
    5238:	21020000 	mrscs	r0, (UNDEF: 2)
    523c:	0000b90e 	andeq	fp, r0, lr, lsl #18
    5240:	8c040700 	stchi	7, cr0, [r4], {-0}
    5244:	09000000 	stmdbeq	r0, {}	; <UNPREDICTABLE>
    5248:	000006a8 	andeq	r0, r0, r8, lsr #13
    524c:	25050301 	strcs	r0, [r5, #-769]	; 0xfffffcff
    5250:	58000000 	stmdapl	r0, {}	; <UNPREDICTABLE>
    5254:	440000a1 	strmi	r0, [r0], #-161	; 0xffffff5f
    5258:	01000000 	mrseq	r0, (UNDEF: 0)
    525c:	00610a9c 	mlseq	r1, ip, sl, r0
    5260:	9b180301 	blls	605e6c <__bss_end__+0x5fae9c>
    5264:	5a000000 	bpl	526c <__code_start__-0x2d94>
    5268:	4e000034 	mcrmi	0, 0, r0, cr0, cr4, {1}
    526c:	0a000034 	beq	5344 <__code_start__-0x2cbc>
    5270:	03010062 	movweq	r0, #4194	; 0x1062
    5274:	00009b27 	andeq	r9, r0, r7, lsr #22
    5278:	0034ae00 	eorseq	sl, r4, r0, lsl #28
    527c:	0034a800 	eorseq	sl, r4, r0, lsl #16
    5280:	0f000000 	svceq	0x00000000
    5284:	04000001 	streq	r0, [r0], #-1
    5288:	001d7300 	andseq	r7, sp, r0, lsl #6
    528c:	32010400 	andcc	r0, r1, #0, 8
    5290:	0c000001 	stceq	0, cr0, [r0], {1}
    5294:	00000c1b 	andeq	r0, r0, fp, lsl ip
    5298:	00000596 	muleq	r0, r6, r5
    529c:	0000a19c 	muleq	r0, ip, r1
    52a0:	00000018 	andeq	r0, r0, r8, lsl r0
    52a4:	00002940 	andeq	r2, r0, r0, asr #18
    52a8:	69050402 	stmdbvs	r5, {r1, sl}
    52ac:	0300746e 	movweq	r7, #1134	; 0x46e
    52b0:	00cf0704 	sbceq	r0, pc, r4, lsl #14
    52b4:	01030000 	mrseq	r0, (UNDEF: 3)
    52b8:	00007206 	andeq	r7, r0, r6, lsl #4
    52bc:	05020300 	streq	r0, [r2, #-768]	; 0xfffffd00
    52c0:	00000000 	andeq	r0, r0, r0
    52c4:	33050403 	movwcc	r0, #21507	; 0x5403
    52c8:	03000000 	movweq	r0, #0
    52cc:	002e0508 	eoreq	r0, lr, r8, lsl #10
    52d0:	01030000 	mrseq	r0, (UNDEF: 3)
    52d4:	00007008 	andeq	r7, r0, r8
    52d8:	07020300 	streq	r0, [r2, -r0, lsl #6]
    52dc:	00000108 	andeq	r0, r0, r8, lsl #2
    52e0:	ca070403 	bgt	1c62f4 <__bss_end__+0x1bb324>
    52e4:	03000000 	movweq	r0, #0
    52e8:	00c50708 	sbceq	r0, r5, r8, lsl #14
    52ec:	25040000 	strcs	r0, [r4, #-0]
    52f0:	7a000000 	bvc	52f8 <__code_start__-0x2d08>
    52f4:	05000000 	streq	r0, [r0, #-0]
    52f8:	00000025 	andeq	r0, r0, r5, lsr #32
    52fc:	000a0600 	andeq	r0, sl, r0, lsl #12
    5300:	1c020000 	stcne	0, cr0, [r2], {-0}
    5304:	0000860e 	andeq	r8, r0, lr, lsl #12
    5308:	6b040700 	blvs	106f10 <__bss_end__+0xfbf40>
    530c:	04000000 	streq	r0, [r0], #-0
    5310:	00000025 	andeq	r0, r0, r5, lsr #32
    5314:	0000009b 	muleq	r0, fp, r0
    5318:	00009b05 	andeq	r9, r0, r5, lsl #22
    531c:	04070000 	streq	r0, [r7], #-0
    5320:	000000a8 	andeq	r0, r0, r8, lsr #1
    5324:	79080103 	stmdbvc	r8, {r0, r1, r8}
    5328:	08000000 	stmdaeq	r0, {}	; <UNPREDICTABLE>
    532c:	000000a1 	andeq	r0, r0, r1, lsr #1
    5330:	0005fe06 	andeq	pc, r5, r6, lsl #28
    5334:	0e210200 	cdpeq	2, 2, cr0, cr1, cr0, {0}
    5338:	000000b9 	strheq	r0, [r0], -r9
    533c:	008c0407 	addeq	r0, ip, r7, lsl #8
    5340:	81090000 	mrshi	r0, (UNDEF: 9)
    5344:	01000006 	tsteq	r0, r6
    5348:	010c0703 	tsteq	ip, r3, lsl #14
    534c:	a19c0000 	orrsge	r0, ip, r0
    5350:	00180000 	andseq	r0, r8, r0
    5354:	9c010000 	stcls	0, cr0, [r1], {-0}
    5358:	0000010c 	andeq	r0, r0, ip, lsl #2
    535c:	0031730a 	eorseq	r7, r1, sl, lsl #6
    5360:	0c150301 	ldceq	3, cr0, [r5], {1}
    5364:	01000001 	tsteq	r0, r1
    5368:	32730b50 	rsbscc	r0, r3, #80, 22	; 0x14000
    536c:	26030100 	strcs	r0, [r3], -r0, lsl #2
    5370:	0000009b 	muleq	r0, fp, r0
    5374:	000034dd 	ldrdeq	r3, [r0], -sp
    5378:	000034d7 	ldrdeq	r3, [r0], -r7
    537c:	0100730c 	tsteq	r0, ip, lsl #6
    5380:	010c1404 	tsteq	ip, r4, lsl #8
    5384:	350a0000 	strcc	r0, [sl, #-0]
    5388:	35080000 	strcc	r0, [r8, #-0]
    538c:	07000000 	streq	r0, [r0, -r0]
    5390:	0000a104 	andeq	sl, r0, r4, lsl #2
    5394:	014e0000 	mrseq	r0, (UNDEF: 78)
    5398:	00040000 	andeq	r0, r4, r0
    539c:	00001e29 	andeq	r1, r0, r9, lsr #28
    53a0:	01320104 	teqeq	r2, r4, lsl #2
    53a4:	2b0c0000 	blcs	3053ac <__bss_end__+0x2fa3dc>
    53a8:	9600000c 	strls	r0, [r0], -ip
    53ac:	b4000005 	strlt	r0, [r0], #-5
    53b0:	300000a1 	andcc	r0, r0, r1, lsr #1
    53b4:	e1000000 	mrs	r0, (UNDEF: 0)
    53b8:	02000029 	andeq	r0, r0, #41, 0	; 0x29
    53bc:	6e690504 	cdpvs	5, 6, cr0, cr9, cr4, {0}
    53c0:	7f030074 	svcvc	0x00030074
    53c4:	03000005 	movweq	r0, #5
    53c8:	003817d1 	ldrsbteq	r1, [r8], -r1
    53cc:	04040000 	streq	r0, [r4], #-0
    53d0:	0000cf07 	andeq	ip, r0, r7, lsl #30
    53d4:	06010400 	streq	r0, [r1], -r0, lsl #8
    53d8:	00000072 	andeq	r0, r0, r2, ror r0
    53dc:	00050204 	andeq	r0, r5, r4, lsl #4
    53e0:	04000000 	streq	r0, [r0], #-0
    53e4:	00330504 	eorseq	r0, r3, r4, lsl #10
    53e8:	08040000 	stmdaeq	r4, {}	; <UNPREDICTABLE>
    53ec:	00002e05 	andeq	r2, r0, r5, lsl #28
    53f0:	08010400 	stmdaeq	r1, {sl}
    53f4:	00000070 	andeq	r0, r0, r0, ror r0
    53f8:	00005b05 	andeq	r5, r0, r5, lsl #22
    53fc:	07020400 	streq	r0, [r2, -r0, lsl #8]
    5400:	00000108 	andeq	r0, r0, r8, lsl #2
    5404:	ca070404 	bgt	1c641c <__bss_end__+0x1bb44c>
    5408:	04000000 	streq	r0, [r0], #-0
    540c:	00c50708 	sbceq	r0, r5, r8, lsl #14
    5410:	25060000 	strcs	r0, [r6, #-0]
    5414:	8b000000 	blhi	541c <__code_start__-0x2be4>
    5418:	07000000 	streq	r0, [r0, -r0]
    541c:	00000025 	andeq	r0, r0, r5, lsr #32
    5420:	000a0800 	andeq	r0, sl, r0, lsl #16
    5424:	1c020000 	stcne	0, cr0, [r2], {-0}
    5428:	0000970e 	andeq	r9, r0, lr, lsl #14
    542c:	7c040900 			; <UNDEFINED> instruction: 0x7c040900
    5430:	06000000 	streq	r0, [r0], -r0
    5434:	00000025 	andeq	r0, r0, r5, lsr #32
    5438:	000000ac 	andeq	r0, r0, ip, lsr #1
    543c:	0000ac07 	andeq	sl, r0, r7, lsl #24
    5440:	04090000 	streq	r0, [r9], #-0
    5444:	000000b9 	strheq	r0, [r0], -r9
    5448:	79080104 	stmdbvc	r8, {r2, r8}
    544c:	05000000 	streq	r0, [r0, #-0]
    5450:	000000b2 	strheq	r0, [r0], -r2
    5454:	0005fe08 	andeq	pc, r5, r8, lsl #28
    5458:	0e210200 	cdpeq	2, 2, cr0, cr1, cr0, {0}
    545c:	000000ca 	andeq	r0, r0, sl, asr #1
    5460:	009d0409 	addseq	r0, sp, r9, lsl #8
    5464:	c90a0000 	stmdbgt	sl, {}	; <UNPREDICTABLE>
    5468:	01000006 	tsteq	r0, r6
    546c:	00250504 	eoreq	r0, r5, r4, lsl #10
    5470:	a1b40000 			; <UNDEFINED> instruction: 0xa1b40000
    5474:	00300000 	eorseq	r0, r0, r0
    5478:	9c010000 	stcls	0, cr0, [r1], {-0}
    547c:	0000014b 	andeq	r0, r0, fp, asr #2
    5480:	31735f0b 	cmncc	r3, fp, lsl #30
    5484:	19040100 	stmdbne	r4, {r8}
    5488:	000000ac 	andeq	r0, r0, ip, lsr #1
    548c:	00003521 	andeq	r3, r0, r1, lsr #10
    5490:	0000351d 	andeq	r3, r0, sp, lsl r5
    5494:	32735f0b 	rsbscc	r5, r3, #11, 30	; 0x2c
    5498:	2a040100 	bcs	1058a0 <__bss_end__+0xfa8d0>
    549c:	000000ac 	andeq	r0, r0, ip, lsr #1
    54a0:	00003546 	andeq	r3, r0, r6, asr #10
    54a4:	00003542 	andeq	r3, r0, r2, asr #10
    54a8:	01006e0b 	tsteq	r0, fp, lsl #28
    54ac:	002c3604 	eoreq	r3, ip, r4, lsl #12
    54b0:	35710000 	ldrbcc	r0, [r1, #-0]!
    54b4:	35670000 	strbcc	r0, [r7, #-0]!
    54b8:	730c0000 	movwvc	r0, #49152	; 0xc000
    54bc:	05010031 	streq	r0, [r1, #-49]	; 0xffffffcf
    54c0:	00014b1a 	andeq	r4, r1, sl, lsl fp
    54c4:	0035c800 	eorseq	ip, r5, r0, lsl #16
    54c8:	0035c000 	eorseq	ip, r5, r0
    54cc:	32730c00 	rsbscc	r0, r3, #0, 24
    54d0:	2c050100 	stfcss	f0, [r5], {-0}
    54d4:	0000014b 	andeq	r0, r0, fp, asr #2
    54d8:	00003606 	andeq	r3, r0, r6, lsl #12
    54dc:	00003600 	andeq	r3, r0, r0, lsl #12
    54e0:	62040900 	andvs	r0, r4, #0, 18
    54e4:	00000000 	andeq	r0, r0, r0
    54e8:	000000ce 	andeq	r0, r0, lr, asr #1
    54ec:	1edd0004 	cdpne	0, 13, cr0, cr13, cr4, {0}
    54f0:	01040000 	mrseq	r0, (UNDEF: 4)
    54f4:	00000132 	andeq	r0, r0, r2, lsr r1
    54f8:	000c3c0c 	andeq	r3, ip, ip, lsl #24
    54fc:	00059600 	andeq	r9, r5, r0, lsl #12
    5500:	00a1e400 	adceq	lr, r1, r0, lsl #8
    5504:	00000400 	andeq	r0, r0, r0, lsl #8
    5508:	002ae200 	eoreq	lr, sl, r0, lsl #4
    550c:	05040200 	streq	r0, [r4, #-512]	; 0xfffffe00
    5510:	00746e69 	rsbseq	r6, r4, r9, ror #28
    5514:	cf070403 	svcgt	0x00070403
    5518:	03000000 	movweq	r0, #0
    551c:	00720601 	rsbseq	r0, r2, r1, lsl #12
    5520:	02030000 	andeq	r0, r3, #0, 0
    5524:	00000005 	andeq	r0, r0, r5
    5528:	05040300 	streq	r0, [r4, #-768]	; 0xfffffd00
    552c:	00000033 	andeq	r0, r0, r3, lsr r0
    5530:	2e050803 	cdpcs	8, 0, cr0, cr5, cr3, {0}
    5534:	03000000 	movweq	r0, #0
    5538:	00700801 	rsbseq	r0, r0, r1, lsl #16
    553c:	02030000 	andeq	r0, r3, #0, 0
    5540:	00010807 	andeq	r0, r1, r7, lsl #16
    5544:	07040300 	streq	r0, [r4, -r0, lsl #6]
    5548:	000000ca 	andeq	r0, r0, sl, asr #1
    554c:	c5070803 	strgt	r0, [r7, #-2051]	; 0xfffff7fd
    5550:	04000000 	streq	r0, [r0], #-0
    5554:	00000025 	andeq	r0, r0, r5, lsr #32
    5558:	0000007a 	andeq	r0, r0, sl, ror r0
    555c:	00002505 	andeq	r2, r0, r5, lsl #10
    5560:	0a060000 	beq	185568 <__bss_end__+0x17a598>
    5564:	02000000 	andeq	r0, r0, #0, 0
    5568:	00860e1c 	addeq	r0, r6, ip, lsl lr
    556c:	04070000 	streq	r0, [r7], #-0
    5570:	0000006b 	andeq	r0, r0, fp, rrx
    5574:	00002504 	andeq	r2, r0, r4, lsl #10
    5578:	00009b00 	andeq	r9, r0, r0, lsl #22
    557c:	009b0500 	addseq	r0, fp, r0, lsl #10
    5580:	07000000 	streq	r0, [r0, -r0]
    5584:	0000a804 	andeq	sl, r0, r4, lsl #16
    5588:	08010300 	stmdaeq	r1, {r8, r9}
    558c:	00000079 	andeq	r0, r0, r9, ror r0
    5590:	0000a108 	andeq	sl, r0, r8, lsl #2
    5594:	05fe0600 	ldrbeq	r0, [lr, #1536]!	; 0x600
    5598:	21020000 	mrscs	r0, (UNDEF: 2)
    559c:	0000b90e 	andeq	fp, r0, lr, lsl #18
    55a0:	8c040700 	stchi	7, cr0, [r4], {-0}
    55a4:	09000000 	stmdbeq	r0, {}	; <UNPREDICTABLE>
    55a8:	00000770 	andeq	r0, r0, r0, ror r7
    55ac:	e4060301 	str	r0, [r6], #-769	; 0xfffffcff
    55b0:	040000a1 	streq	r0, [r0], #-161	; 0xffffff5f
    55b4:	01000000 	mrseq	r0, (UNDEF: 0)
    55b8:	Address 0x00000000000055b8 is out of bounds.


Disassembly of section .debug_abbrev:

00000000 <.debug_abbrev>:
       0:	25011101 	strcs	r1, [r1, #-257]	; 0xfffffeff
       4:	030b130e 	movweq	r1, #45838	; 0xb30e
       8:	110e1b0e 	tstne	lr, lr, lsl #22
       c:	10061201 	andne	r1, r6, r1, lsl #4
      10:	02000017 	andeq	r0, r0, #23, 0
      14:	0b0b0024 	bleq	2c00ac <__bss_end__+0x2b50dc>
      18:	08030b3e 	stmdaeq	r3, {r1, r2, r3, r4, r5, r8, r9, fp}
      1c:	24030000 	strcs	r0, [r3], #-0
      20:	3e0b0b00 	vmlacc.f64	d0, d11, d0
      24:	000e030b 	andeq	r0, lr, fp, lsl #6
      28:	00160400 	andseq	r0, r6, r0, lsl #8
      2c:	0b3a0e03 	bleq	e83840 <__bss_end__+0xe78870>
      30:	0b390b3b 	bleq	e42d24 <__bss_end__+0xe37d54>
      34:	00001349 	andeq	r1, r0, r9, asr #6
      38:	27011505 	strcs	r1, [r1, -r5, lsl #10]
      3c:	01134919 	tsteq	r3, r9, lsl r9
      40:	06000013 			; <UNDEFINED> instruction: 0x06000013
      44:	13490005 	movtne	r0, #36869	; 0x9005
      48:	34070000 	strcc	r0, [r7], #-0
      4c:	3a0e0300 	bcc	380c54 <__bss_end__+0x375c84>
      50:	390b3b0b 	stmdbcc	fp, {r0, r1, r3, r8, r9, fp, ip, sp}
      54:	3f13490b 	svccc	0x0013490b
      58:	00193c19 	andseq	r3, r9, r9, lsl ip
      5c:	000f0800 	andeq	r0, pc, r0, lsl #16
      60:	13490b0b 	movtne	r0, #39691	; 0x9b0b
      64:	26090000 	strcs	r0, [r9], -r0
      68:	00134900 	andseq	r4, r3, r0, lsl #18
      6c:	01130a00 	tsteq	r3, r0, lsl #20
      70:	0b3a0b0b 	bleq	e82ca4 <__bss_end__+0xe77cd4>
      74:	0b390b3b 	bleq	e42d68 <__bss_end__+0xe37d98>
      78:	00001301 	andeq	r1, r0, r1, lsl #6
      7c:	03000d0b 	movweq	r0, #3339	; 0xd0b
      80:	3b0b3a0e 	blcc	2ce8c0 <__bss_end__+0x2c38f0>
      84:	490b390b 	stmdbmi	fp, {r0, r1, r3, r8, fp, ip, sp}
      88:	000b3813 	andeq	r3, fp, r3, lsl r8
      8c:	000f0c00 	andeq	r0, pc, r0, lsl #24
      90:	00000b0b 	andeq	r0, r0, fp, lsl #22
      94:	3f012e0d 	svccc	0x00012e0d
      98:	3a080319 	bcc	200d04 <__bss_end__+0x1f5d34>
      9c:	390b3b0b 	stmdbcc	fp, {r0, r1, r3, r8, r9, fp, ip, sp}
      a0:	4919270b 	ldmdbmi	r9, {r0, r1, r3, r8, r9, sl, sp}
      a4:	010b2013 	tsteq	fp, r3, lsl r0
      a8:	0e000013 	mcreq	0, 0, r0, cr0, cr3, {0}
      ac:	08030034 	stmdaeq	r3, {r2, r4, r5}
      b0:	0b3b0b3a 	bleq	ec2da0 <__bss_end__+0xeb7dd0>
      b4:	13490b39 	movtne	r0, #39737	; 0x9b39
      b8:	2e0f0000 	cdpcs	0, 0, cr0, cr15, cr0, {0}
      bc:	03193f01 	tsteq	r9, #1, 30
      c0:	3b0b3a0e 	blcc	2ce900 <__bss_end__+0x2c3930>
      c4:	270b390b 	strcs	r3, [fp, -fp, lsl #18]
      c8:	12011119 	andne	r1, r1, #1073741830	; 0x40000006
      cc:	97184006 	ldrls	r4, [r8, -r6]
      d0:	13011942 	movwne	r1, #6466	; 0x1942
      d4:	34100000 	ldrcc	r0, [r0], #-0
      d8:	3a080300 	bcc	200ce0 <__bss_end__+0x1f5d10>
      dc:	390b3b0b 	stmdbcc	fp, {r0, r1, r3, r8, r9, fp, ip, sp}
      e0:	1c13490b 			; <UNDEFINED> instruction: 0x1c13490b
      e4:	1100000b 	tstne	r0, fp
      e8:	08030034 	stmdaeq	r3, {r2, r4, r5}
      ec:	0b3b0b3a 	bleq	ec2ddc <__bss_end__+0xeb7e0c>
      f0:	13490b39 	movtne	r0, #39737	; 0x9b39
      f4:	42b71702 	adcsmi	r1, r7, #524288	; 0x80000
      f8:	12000017 	andne	r0, r0, #23, 0
      fc:	0e030034 	mcreq	0, 0, r0, cr3, cr4, {1}
     100:	19341349 	ldmdbne	r4!, {r0, r3, r6, r8, r9, ip}
     104:	00001802 	andeq	r1, r0, r2, lsl #16
     108:	31011d13 	tstcc	r1, r3, lsl sp
     10c:	b8015213 	stmdalt	r1, {r0, r1, r4, r9, ip, lr}
     110:	01110b42 	tsteq	r1, r2, asr #22
     114:	0b580612 	bleq	1601964 <__bss_end__+0x15f6994>
     118:	0b570b59 	bleq	15c2e84 <__bss_end__+0x15b7eb4>
     11c:	00001301 	andeq	r1, r0, r1, lsl #6
     120:	31003414 	tstcc	r0, r4, lsl r4
     124:	b7170213 			; <UNDEFINED> instruction: 0xb7170213
     128:	00001742 	andeq	r1, r0, r2, asr #14
     12c:	01828915 	orreq	r8, r2, r5, lsl r9
     130:	31011100 	mrscc	r1, (UNDEF: 17)
     134:	16000013 			; <UNDEFINED> instruction: 0x16000013
     138:	01018289 	smlabbeq	r1, r9, r2, r8
     13c:	13310111 	teqne	r1, #1073741828	; 0x40000004
     140:	8a170000 	bhi	5c0148 <__bss_end__+0x5b5178>
     144:	02000182 	andeq	r0, r0, #-2147483616	; 0x80000020
     148:	18429118 	stmdane	r2, {r3, r4, r8, ip, pc}^
     14c:	89180000 	ldmdbhi	r8, {}	; <UNPREDICTABLE>
     150:	11010182 	smlabbne	r1, r2, r1, r0
     154:	01133101 	tsteq	r3, r1, lsl #2
     158:	19000013 	stmdbne	r0, {r0, r1, r4}
     15c:	00018289 	andeq	r8, r1, r9, lsl #5
     160:	42950111 	addsmi	r0, r5, #1073741828	; 0x40000004
     164:	00133119 	andseq	r3, r3, r9, lsl r1
     168:	01011a00 	tsteq	r1, r0, lsl #20
     16c:	13011349 	movwne	r1, #4937	; 0x1349
     170:	211b0000 	tstcs	fp, r0
     174:	2f134900 	svccs	0x00134900
     178:	1c00000b 	stcne	0, cr0, [r0], {11}
     17c:	193f012e 	ldmdbne	pc!, {r1, r2, r3, r5, r8}	; <UNPREDICTABLE>
     180:	0b3a0e03 	bleq	e83994 <__bss_end__+0xe789c4>
     184:	0b390b3b 	bleq	e42e78 <__bss_end__+0xe37ea8>
     188:	13491927 	movtne	r1, #39207	; 0x9927
     18c:	13010b20 	movwne	r0, #6944	; 0x1b20
     190:	131d0000 	tstne	sp, #0, 0
     194:	0b0e0301 	bleq	380da0 <__bss_end__+0x375dd0>
     198:	3b0b3a0b 	blcc	2ce9cc <__bss_end__+0x2c39fc>
     19c:	010b390b 	tsteq	fp, fp, lsl #18
     1a0:	1e000013 	mcrne	0, 0, r0, cr0, cr3, {0}
     1a4:	0803000d 	stmdaeq	r3, {r0, r2, r3}
     1a8:	0b3b0b3a 	bleq	ec2e98 <__bss_end__+0xeb7ec8>
     1ac:	13490b39 	movtne	r0, #39737	; 0x9b39
     1b0:	00000b38 	andeq	r0, r0, r8, lsr fp
     1b4:	00010b1f 	andeq	r0, r1, pc, lsl fp
     1b8:	012e2000 			; <UNDEFINED> instruction: 0x012e2000
     1bc:	0b3a0e03 	bleq	e839d0 <__bss_end__+0xe78a00>
     1c0:	0b390b3b 	bleq	e42eb4 <__bss_end__+0xe37ee4>
     1c4:	13491927 	movtne	r1, #39207	; 0x9927
     1c8:	13010b20 	movwne	r0, #6944	; 0x1b20
     1cc:	05210000 	streq	r0, [r1, #-0]!
     1d0:	3a0e0300 	bcc	380dd8 <__bss_end__+0x375e08>
     1d4:	390b3b0b 	stmdbcc	fp, {r0, r1, r3, r8, r9, fp, ip, sp}
     1d8:	0013490b 	andseq	r4, r3, fp, lsl #18
     1dc:	012e2200 			; <UNDEFINED> instruction: 0x012e2200
     1e0:	01111331 	tsteq	r1, r1, lsr r3
     1e4:	18400612 	stmdane	r0, {r1, r4, r9, sl}^
     1e8:	01194297 			; <UNDEFINED> instruction: 0x01194297
     1ec:	23000013 	movwcs	r0, #19
     1f0:	1331010b 	teqne	r1, #-1073741822	; 0xc0000002
     1f4:	13011755 	movwne	r1, #5973	; 0x1755
     1f8:	0b240000 	bleq	900200 <__bss_end__+0x8f5230>
     1fc:	55133101 	ldrpl	r3, [r3, #-257]	; 0xfffffeff
     200:	25000017 	strcs	r0, [r0, #-23]	; 0xffffffe9
     204:	1331011d 	teqne	r1, #1073741831	; 0x40000007
     208:	42b80152 	adcsmi	r0, r8, #-2147483628	; 0x80000014
     20c:	5817550b 	ldmdapl	r7, {r0, r1, r3, r8, sl, ip, lr}
     210:	570b590b 	strpl	r5, [fp, -fp, lsl #18]
     214:	2600000b 	strcs	r0, [r0], -fp
     218:	13310005 	teqne	r1, #5, 0
     21c:	42b71702 	adcsmi	r1, r7, #524288	; 0x80000
     220:	27000017 	smladcs	r0, r7, r0, r0
     224:	193f002e 	ldmdbne	pc!, {r1, r2, r3, r5}	; <UNPREDICTABLE>
     228:	0e6e193c 			; <UNDEFINED> instruction: 0x0e6e193c
     22c:	0b3a0e03 	bleq	e83a40 <__bss_end__+0xe78a70>
     230:	0b390b3b 	bleq	e42f24 <__bss_end__+0xe37f54>
     234:	36280000 	strtcc	r0, [r8], -r0
     238:	00180200 	andseq	r0, r8, r0, lsl #4
     23c:	11010000 	mrsne	r0, (UNDEF: 1)
     240:	130e2501 	movwne	r2, #58625	; 0xe501
     244:	1b0e030b 	blne	380e78 <__bss_end__+0x375ea8>
     248:	1201110e 	andne	r1, r1, #-2147483645	; 0x80000003
     24c:	00171006 	andseq	r1, r7, r6
     250:	00240200 	eoreq	r0, r4, r0, lsl #4
     254:	0b3e0b0b 	bleq	f82e88 <__bss_end__+0xf77eb8>
     258:	00000803 	andeq	r0, r0, r3, lsl #16
     25c:	0b002403 	bleq	9270 <va_printk+0x1b4>
     260:	030b3e0b 	movweq	r3, #48651	; 0xbe0b
     264:	0400000e 	streq	r0, [r0], #-14
     268:	0e030016 	mcreq	0, 0, r0, cr3, cr6, {0}
     26c:	0b3b0b3a 	bleq	ec2f5c <__bss_end__+0xeb7f8c>
     270:	13490b39 	movtne	r0, #39737	; 0x9b39
     274:	15050000 	strne	r0, [r5, #-0]
     278:	49192701 	ldmdbmi	r9, {r0, r8, r9, sl, sp}
     27c:	00130113 	andseq	r0, r3, r3, lsl r1
     280:	00050600 	andeq	r0, r5, r0, lsl #12
     284:	00001349 	andeq	r1, r0, r9, asr #6
     288:	03003407 	movweq	r3, #1031	; 0x407
     28c:	3b0b3a0e 	blcc	2ceacc <__bss_end__+0x2c3afc>
     290:	490b390b 	stmdbmi	fp, {r0, r1, r3, r8, fp, ip, sp}
     294:	3c193f13 	ldccc	15, cr3, [r9], {19}
     298:	08000019 	stmdaeq	r0, {r0, r3, r4}
     29c:	0b0b000f 	bleq	2c02e0 <__bss_end__+0x2b5310>
     2a0:	00001349 	andeq	r1, r0, r9, asr #6
     2a4:	49002609 	stmdbmi	r0, {r0, r3, r9, sl, sp}
     2a8:	0a000013 	beq	2fc <__code_start__-0x7d04>
     2ac:	0b0b0113 	bleq	2c0700 <__bss_end__+0x2b5730>
     2b0:	0b3b0b3a 	bleq	ec2fa0 <__bss_end__+0xeb7fd0>
     2b4:	13010b39 	movwne	r0, #6969	; 0x1b39
     2b8:	0d0b0000 	stceq	0, cr0, [fp, #-0]
     2bc:	3a0e0300 	bcc	380ec4 <__bss_end__+0x375ef4>
     2c0:	390b3b0b 	stmdbcc	fp, {r0, r1, r3, r8, r9, fp, ip, sp}
     2c4:	3813490b 	ldmdacc	r3, {r0, r1, r3, r8, fp, lr}
     2c8:	0c00000b 	stceq	0, cr0, [r0], {11}
     2cc:	0b3e0104 	bleq	f806e4 <__bss_end__+0xf75714>
     2d0:	13490b0b 	movtne	r0, #39691	; 0x9b0b
     2d4:	0b3b0b3a 	bleq	ec2fc4 <__bss_end__+0xeb7ff4>
     2d8:	13010b39 	movwne	r0, #6969	; 0x1b39
     2dc:	280d0000 	stmdacs	sp, {}	; <UNPREDICTABLE>
     2e0:	1c0e0300 	stcne	3, cr0, [lr], {-0}
     2e4:	0e00000b 	cdpeq	0, 0, cr0, cr0, cr11, {0}
     2e8:	0e030113 	mcreq	1, 0, r0, cr3, cr3, {0}
     2ec:	0b3a0b0b 	bleq	e82f20 <__bss_end__+0xe77f50>
     2f0:	0b390b3b 	bleq	e42fe4 <__bss_end__+0xe38014>
     2f4:	00001301 	andeq	r1, r0, r1, lsl #6
     2f8:	03000d0f 	movweq	r0, #3343	; 0xd0f
     2fc:	3b0b3a08 	blcc	2ceb24 <__bss_end__+0x2c3b54>
     300:	490b390b 	stmdbmi	fp, {r0, r1, r3, r8, fp, ip, sp}
     304:	000b3813 	andeq	r3, fp, r3, lsl r8
     308:	01011000 	mrseq	r1, (UNDEF: 1)
     30c:	13011349 	movwne	r1, #4937	; 0x1349
     310:	21110000 	tstcs	r1, r0
     314:	2f134900 	svccs	0x00134900
     318:	1200000b 	andne	r0, r0, #11, 0
     31c:	0b0b000f 	bleq	2c0360 <__bss_end__+0x2b5390>
     320:	34130000 	ldrcc	r0, [r3], #-0
     324:	3a0e0300 	bcc	380f2c <__bss_end__+0x375f5c>
     328:	390b3b0b 	stmdbcc	fp, {r0, r1, r3, r8, r9, fp, ip, sp}
     32c:	0213490b 	andseq	r4, r3, #180224	; 0x2c000
     330:	14000018 	strne	r0, [r0], #-24	; 0xffffffe8
     334:	193f012e 	ldmdbne	pc!, {r1, r2, r3, r5, r8}	; <UNPREDICTABLE>
     338:	0b3a0e03 	bleq	e83b4c <__bss_end__+0xe78b7c>
     33c:	0b390b3b 	bleq	e43030 <__bss_end__+0xe38060>
     340:	13491927 	movtne	r1, #39207	; 0x9927
     344:	06120111 			; <UNDEFINED> instruction: 0x06120111
     348:	42971840 	addsmi	r1, r7, #64, 16	; 0x400000
     34c:	00130119 	andseq	r0, r3, r9, lsl r1
     350:	00051500 	andeq	r1, r5, r0, lsl #10
     354:	0b3a0e03 	bleq	e83b68 <__bss_end__+0xe78b98>
     358:	0b390b3b 	bleq	e4304c <__bss_end__+0xe3807c>
     35c:	17021349 	strne	r1, [r2, -r9, asr #6]
     360:	001742b7 			; <UNDEFINED> instruction: 0x001742b7
     364:	00051600 	andeq	r1, r5, r0, lsl #12
     368:	0b3a0803 	bleq	e8237c <__bss_end__+0xe773ac>
     36c:	0b390b3b 	bleq	e43060 <__bss_end__+0xe38090>
     370:	18021349 	stmdane	r2, {r0, r3, r6, r8, r9, ip}
     374:	34170000 	ldrcc	r0, [r7], #-0
     378:	3a080300 	bcc	200f80 <__bss_end__+0x1f5fb0>
     37c:	390b3b0b 	stmdbcc	fp, {r0, r1, r3, r8, r9, fp, ip, sp}
     380:	0213490b 	andseq	r4, r3, #180224	; 0x2c000
     384:	1742b717 	smlaldne	fp, r2, r7, r7
     388:	0b180000 	bleq	600390 <__bss_end__+0x5f53c0>
     38c:	12011101 	andne	r1, r1, #1073741824	; 0x40000000
     390:	00130106 	andseq	r0, r3, r6, lsl #2
     394:	82891900 	addhi	r1, r9, #0, 18
     398:	01110101 	tsteq	r1, r1, lsl #2
     39c:	13011331 	movwne	r1, #4913	; 0x1331
     3a0:	8a1a0000 	bhi	6803a8 <__bss_end__+0x6753d8>
     3a4:	02000182 	andeq	r0, r0, #-2147483616	; 0x80000020
     3a8:	18429118 	stmdane	r2, {r3, r4, r8, ip, pc}^
     3ac:	891b0000 	ldmdbhi	fp, {}	; <UNPREDICTABLE>
     3b0:	11010182 	smlabbne	r1, r2, r1, r0
     3b4:	00133101 	andseq	r3, r3, r1, lsl #2
     3b8:	012e1c00 			; <UNDEFINED> instruction: 0x012e1c00
     3bc:	0e03193f 			; <UNDEFINED> instruction: 0x0e03193f
     3c0:	0b3b0b3a 	bleq	ec30b0 <__bss_end__+0xeb80e0>
     3c4:	19270b39 	stmdbne	r7!, {r0, r3, r4, r5, r8, r9, fp}
     3c8:	06120111 			; <UNDEFINED> instruction: 0x06120111
     3cc:	42971840 	addsmi	r1, r7, #64, 16	; 0x400000
     3d0:	00130119 	andseq	r0, r3, r9, lsl r1
     3d4:	00341d00 	eorseq	r1, r4, r0, lsl #26
     3d8:	13490e03 	movtne	r0, #40451	; 0x9e03
     3dc:	18021934 	stmdane	r2, {r2, r4, r5, r8, fp, ip}
     3e0:	0b1e0000 	bleq	7803e8 <__bss_end__+0x775418>
     3e4:	01175501 	tsteq	r7, r1, lsl #10
     3e8:	1f000013 	svcne	0x00000013
     3ec:	00018289 	andeq	r8, r1, r9, lsl #5
     3f0:	13310111 	teqne	r1, #1073741828	; 0x40000004
     3f4:	2e200000 	cdpcs	0, 2, cr0, cr0, cr0, {0}
     3f8:	3a0e0301 	bcc	381004 <__bss_end__+0x376034>
     3fc:	390b3b0b 	stmdbcc	fp, {r0, r1, r3, r8, r9, fp, ip, sp}
     400:	1119270b 	tstne	r9, fp, lsl #14
     404:	40061201 	andmi	r1, r6, r1, lsl #4
     408:	19429718 	stmdbne	r2, {r3, r4, r8, r9, sl, ip, pc}^
     40c:	00001301 	andeq	r1, r0, r1, lsl #6
     410:	03000521 	movweq	r0, #1313	; 0x521
     414:	3b0b3a08 	blcc	2cec3c <__bss_end__+0x2c3c6c>
     418:	490b390b 	stmdbmi	fp, {r0, r1, r3, r8, fp, ip, sp}
     41c:	b7170213 			; <UNDEFINED> instruction: 0xb7170213
     420:	00001742 	andeq	r1, r0, r2, asr #14
     424:	03003422 	movweq	r3, #1058	; 0x422
     428:	3b0b3a0e 	blcc	2cec68 <__bss_end__+0x2c3c98>
     42c:	490b390b 	stmdbmi	fp, {r0, r1, r3, r8, fp, ip, sp}
     430:	b7170213 			; <UNDEFINED> instruction: 0xb7170213
     434:	00001742 	andeq	r1, r0, r2, asr #14
     438:	11010b23 	tstne	r1, r3, lsr #22
     43c:	00061201 	andeq	r1, r6, r1, lsl #4
     440:	011d2400 	tsteq	sp, r0, lsl #8
     444:	01521331 	cmpeq	r2, r1, lsr r3
     448:	110b42b8 			; <UNDEFINED> instruction: 0x110b42b8
     44c:	58061201 	stmdapl	r6, {r0, r9, ip}
     450:	570b590b 	strpl	r5, [fp, -fp, lsl #18]
     454:	0013010b 	andseq	r0, r3, fp, lsl #2
     458:	00052500 	andeq	r2, r5, r0, lsl #10
     45c:	17021331 	smladxne	r2, r1, r3, r1
     460:	001742b7 			; <UNDEFINED> instruction: 0x001742b7
     464:	002e2600 	eoreq	r2, lr, r0, lsl #12
     468:	0e03193f 			; <UNDEFINED> instruction: 0x0e03193f
     46c:	0b3b0b3a 	bleq	ec315c <__bss_end__+0xeb818c>
     470:	19270b39 	stmdbne	r7!, {r0, r3, r4, r5, r8, r9, fp}
     474:	01111349 	tsteq	r1, r9, asr #6
     478:	18400612 	stmdane	r0, {r1, r4, r9, sl}^
     47c:	00194297 	mulseq	r9, r7, r2
     480:	012e2700 			; <UNDEFINED> instruction: 0x012e2700
     484:	0b3a0e03 	bleq	e83c98 <__bss_end__+0xe78cc8>
     488:	0b390b3b 	bleq	e4317c <__bss_end__+0xe381ac>
     48c:	13491927 	movtne	r1, #39207	; 0x9927
     490:	13010b20 	movwne	r0, #6944	; 0x1b20
     494:	05280000 	streq	r0, [r8, #-0]!
     498:	3a080300 	bcc	2010a0 <__bss_end__+0x1f60d0>
     49c:	390b3b0b 	stmdbcc	fp, {r0, r1, r3, r8, r9, fp, ip, sp}
     4a0:	0013490b 	andseq	r4, r3, fp, lsl #18
     4a4:	002e2900 	eoreq	r2, lr, r0, lsl #18
     4a8:	193c193f 	ldmdbne	ip!, {r0, r1, r2, r3, r4, r5, r8, fp, ip}
     4ac:	0e030e6e 	cdpeq	14, 0, cr0, cr3, cr14, {3}
     4b0:	0b3b0b3a 	bleq	ec31a0 <__bss_end__+0xeb81d0>
     4b4:	00000b39 	andeq	r0, r0, r9, lsr fp
     4b8:	01110100 	tsteq	r1, r0, lsl #2
     4bc:	0b130e25 	bleq	4c3d58 <__bss_end__+0x4b8d88>
     4c0:	0e1b0e03 	cdpeq	14, 1, cr0, cr11, cr3, {0}
     4c4:	06120111 			; <UNDEFINED> instruction: 0x06120111
     4c8:	00001710 	andeq	r1, r0, r0, lsl r7
     4cc:	0b002402 	bleq	94dc <va_printk+0x420>
     4d0:	030b3e0b 	movweq	r3, #48651	; 0xbe0b
     4d4:	03000008 	movweq	r0, #8
     4d8:	0b0b0024 	bleq	2c0570 <__bss_end__+0x2b55a0>
     4dc:	0e030b3e 	vmoveq.16	d3[0], r0
     4e0:	15040000 	strne	r0, [r4, #-0]
     4e4:	49192701 	ldmdbmi	r9, {r0, r8, r9, sl, sp}
     4e8:	00130113 	andseq	r0, r3, r3, lsl r1
     4ec:	00050500 	andeq	r0, r5, r0, lsl #10
     4f0:	00001349 	andeq	r1, r0, r9, asr #6
     4f4:	03003406 	movweq	r3, #1030	; 0x406
     4f8:	3b0b3a0e 	blcc	2ced38 <__bss_end__+0x2c3d68>
     4fc:	490b390b 	stmdbmi	fp, {r0, r1, r3, r8, fp, ip, sp}
     500:	3c193f13 	ldccc	15, cr3, [r9], {19}
     504:	07000019 	smladeq	r0, r9, r0, r0
     508:	0b0b000f 	bleq	2c054c <__bss_end__+0x2b557c>
     50c:	00001349 	andeq	r1, r0, r9, asr #6
     510:	49002608 	stmdbmi	r0, {r3, r9, sl, sp}
     514:	09000013 	stmdbeq	r0, {r0, r1, r4}
     518:	0e030117 	mcreq	1, 0, r0, cr3, cr7, {0}
     51c:	0b3a0b0b 	bleq	e83150 <__bss_end__+0xe78180>
     520:	0b390b3b 	bleq	e43214 <__bss_end__+0xe38244>
     524:	00001301 	andeq	r1, r0, r1, lsl #6
     528:	03000d0a 	movweq	r0, #3338	; 0xd0a
     52c:	3b0b3a08 	blcc	2ced54 <__bss_end__+0x2c3d84>
     530:	490b390b 	stmdbmi	fp, {r0, r1, r3, r8, fp, ip, sp}
     534:	0b000013 	bleq	588 <__code_start__-0x7a78>
     538:	0b0b000f 	bleq	2c057c <__bss_end__+0x2b55ac>
     53c:	150c0000 	strne	r0, [ip, #-0]
     540:	00192700 	andseq	r2, r9, r0, lsl #14
     544:	01130d00 	tsteq	r3, r0, lsl #26
     548:	0b3a0b0b 	bleq	e8317c <__bss_end__+0xe781ac>
     54c:	0b390b3b 	bleq	e43240 <__bss_end__+0xe38270>
     550:	00001301 	andeq	r1, r0, r1, lsl #6
     554:	03000d0e 	movweq	r0, #3342	; 0xd0e
     558:	3b0b3a08 	blcc	2ced80 <__bss_end__+0x2c3db0>
     55c:	490b390b 	stmdbmi	fp, {r0, r1, r3, r8, fp, ip, sp}
     560:	000b3813 	andeq	r3, fp, r3, lsl r8
     564:	000d0f00 	andeq	r0, sp, r0, lsl #30
     568:	0b3a0e03 	bleq	e83d7c <__bss_end__+0xe78dac>
     56c:	0b390b3b 	bleq	e43260 <__bss_end__+0xe38290>
     570:	0b381349 	bleq	e0529c <__bss_end__+0xdfa2cc>
     574:	16100000 	ldrne	r0, [r0], -r0
     578:	3a0e0300 	bcc	381180 <__bss_end__+0x3761b0>
     57c:	390b3b0b 	stmdbcc	fp, {r0, r1, r3, r8, r9, fp, ip, sp}
     580:	0013490b 	andseq	r4, r3, fp, lsl #18
     584:	00341100 	eorseq	r1, r4, r0, lsl #2
     588:	0b3a0e03 	bleq	e83d9c <__bss_end__+0xe78dcc>
     58c:	0b390b3b 	bleq	e43280 <__bss_end__+0xe382b0>
     590:	18021349 	stmdane	r2, {r0, r3, r6, r8, r9, ip}
     594:	2e120000 	cdpcs	0, 1, cr0, cr2, cr0, {0}
     598:	03193f01 	tsteq	r9, #1, 30
     59c:	3b0b3a0e 	blcc	2ceddc <__bss_end__+0x2c3e0c>
     5a0:	270b390b 	strcs	r3, [fp, -fp, lsl #18]
     5a4:	12011119 	andne	r1, r1, #1073741830	; 0x40000006
     5a8:	97184006 	ldrls	r4, [r8, -r6]
     5ac:	13011942 	movwne	r1, #6466	; 0x1942
     5b0:	05130000 	ldreq	r0, [r3, #-0]
     5b4:	3a080300 	bcc	2011bc <__bss_end__+0x1f61ec>
     5b8:	390b3b0b 	stmdbcc	fp, {r0, r1, r3, r8, r9, fp, ip, sp}
     5bc:	0213490b 	andseq	r4, r3, #180224	; 0x2c000
     5c0:	1742b717 	smlaldne	fp, r2, r7, r7
     5c4:	34140000 	ldrcc	r0, [r4], #-0
     5c8:	3a080300 	bcc	2011d0 <__bss_end__+0x1f6200>
     5cc:	390b3b0b 	stmdbcc	fp, {r0, r1, r3, r8, r9, fp, ip, sp}
     5d0:	0213490b 	andseq	r4, r3, #180224	; 0x2c000
     5d4:	1742b717 	smlaldne	fp, r2, r7, r7
     5d8:	2e150000 	cdpcs	0, 1, cr0, cr5, cr0, {0}
     5dc:	03193f01 	tsteq	r9, #1, 30
     5e0:	3b0b3a0e 	blcc	2cee20 <__bss_end__+0x2c3e50>
     5e4:	270b390b 	strcs	r3, [fp, -fp, lsl #18]
     5e8:	11134919 	tstne	r3, r9, lsl r9
     5ec:	40061201 	andmi	r1, r6, r1, lsl #4
     5f0:	19429718 	stmdbne	r2, {r3, r4, r8, r9, sl, ip, pc}^
     5f4:	00001301 	andeq	r1, r0, r1, lsl #6
     5f8:	03000516 	movweq	r0, #1302	; 0x516
     5fc:	3b0b3a0e 	blcc	2cee3c <__bss_end__+0x2c3e6c>
     600:	490b390b 	stmdbmi	fp, {r0, r1, r3, r8, fp, ip, sp}
     604:	b7170213 			; <UNDEFINED> instruction: 0xb7170213
     608:	00001742 	andeq	r1, r0, r2, asr #14
     60c:	03003417 	movweq	r3, #1047	; 0x417
     610:	3b0b3a0e 	blcc	2cee50 <__bss_end__+0x2c3e80>
     614:	490b390b 	stmdbmi	fp, {r0, r1, r3, r8, fp, ip, sp}
     618:	b7170213 			; <UNDEFINED> instruction: 0xb7170213
     61c:	00001742 	andeq	r1, r0, r2, asr #14
     620:	31011d18 	tstcc	r1, r8, lsl sp
     624:	b8015213 	stmdalt	r1, {r0, r1, r4, r9, ip, lr}
     628:	17550b42 	ldrbne	r0, [r5, -r2, asr #22]
     62c:	0b590b58 	bleq	1643394 <__bss_end__+0x16383c4>
     630:	00000b57 	andeq	r0, r0, r7, asr fp
     634:	31000519 	tstcc	r0, r9, lsl r5
     638:	b7170213 			; <UNDEFINED> instruction: 0xb7170213
     63c:	00001742 	andeq	r1, r0, r2, asr #14
     640:	55010b1a 	strpl	r0, [r1, #-2842]	; 0xfffff4e6
     644:	1b000017 	blne	6a8 <__code_start__-0x7958>
     648:	13310034 	teqne	r1, #52, 0	; 0x34
     64c:	42b71702 	adcsmi	r1, r7, #524288	; 0x80000
     650:	1c000017 	stcne	0, cr0, [r0], {23}
     654:	01018289 	smlabbeq	r1, r9, r2, r8
     658:	13310111 	teqne	r1, #1073741828	; 0x40000004
     65c:	00001301 	andeq	r1, r0, r1, lsl #6
     660:	01828a1d 	orreq	r8, r2, sp, lsl sl
     664:	91180200 	tstls	r8, r0, lsl #4
     668:	00001842 	andeq	r1, r0, r2, asr #16
     66c:	0182891e 	orreq	r8, r2, lr, lsl r9
     670:	31011100 	mrscc	r1, (UNDEF: 17)
     674:	1f000013 	svcne	0x00000013
     678:	0e03012e 	adfeqsp	f0, f3, #0.5
     67c:	0b3b0b3a 	bleq	ec336c <__bss_end__+0xeb839c>
     680:	19270b39 	stmdbne	r7!, {r0, r3, r4, r5, r8, r9, fp}
     684:	0b201349 	bleq	8053b0 <__bss_end__+0x7fa3e0>
     688:	00001301 	andeq	r1, r0, r1, lsl #6
     68c:	03000520 	movweq	r0, #1312	; 0x520
     690:	3b0b3a08 	blcc	2ceeb8 <__bss_end__+0x2c3ee8>
     694:	490b390b 	stmdbmi	fp, {r0, r1, r3, r8, fp, ip, sp}
     698:	21000013 	tstcs	r0, r3, lsl r0
     69c:	08030034 	stmdaeq	r3, {r2, r4, r5}
     6a0:	0b3b0b3a 	bleq	ec3390 <__bss_end__+0xeb83c0>
     6a4:	13490b39 	movtne	r0, #39737	; 0x9b39
     6a8:	2e220000 	cdpcs	0, 2, cr0, cr2, cr0, {0}
     6ac:	3c193f00 	ldccc	15, cr3, [r9], {-0}
     6b0:	030e6e19 	movweq	r6, #60953	; 0xee19
     6b4:	3b0b3a0e 	blcc	2ceef4 <__bss_end__+0x2c3f24>
     6b8:	000b390b 	andeq	r3, fp, fp, lsl #18
     6bc:	11010000 	mrsne	r0, (UNDEF: 1)
     6c0:	130e2501 	movwne	r2, #58625	; 0xe501
     6c4:	1b0e030b 	blne	3812f8 <__bss_end__+0x376328>
     6c8:	1201110e 	andne	r1, r1, #-2147483645	; 0x80000003
     6cc:	00171006 	andseq	r1, r7, r6
     6d0:	00240200 	eoreq	r0, r4, r0, lsl #4
     6d4:	0b3e0b0b 	bleq	f83308 <__bss_end__+0xf78338>
     6d8:	00000803 	andeq	r0, r0, r3, lsl #16
     6dc:	0b002403 	bleq	96f0 <clean_reboot+0x8>
     6e0:	030b3e0b 	movweq	r3, #48651	; 0xbe0b
     6e4:	0400000e 	streq	r0, [r0], #-14
     6e8:	0e030016 	mcreq	0, 0, r0, cr3, cr6, {0}
     6ec:	0b3b0b3a 	bleq	ec33dc <__bss_end__+0xeb840c>
     6f0:	13490b39 	movtne	r0, #39737	; 0x9b39
     6f4:	15050000 	strne	r0, [r5, #-0]
     6f8:	49192701 	ldmdbmi	r9, {r0, r8, r9, sl, sp}
     6fc:	00130113 	andseq	r0, r3, r3, lsl r1
     700:	00050600 	andeq	r0, r5, r0, lsl #12
     704:	00001349 	andeq	r1, r0, r9, asr #6
     708:	03003407 	movweq	r3, #1031	; 0x407
     70c:	3b0b3a0e 	blcc	2cef4c <__bss_end__+0x2c3f7c>
     710:	490b390b 	stmdbmi	fp, {r0, r1, r3, r8, fp, ip, sp}
     714:	3c193f13 	ldccc	15, cr3, [r9], {19}
     718:	08000019 	stmdaeq	r0, {r0, r3, r4}
     71c:	0b0b000f 	bleq	2c0760 <__bss_end__+0x2b5790>
     720:	00001349 	andeq	r1, r0, r9, asr #6
     724:	49002609 	stmdbmi	r0, {r0, r3, r9, sl, sp}
     728:	0a000013 	beq	77c <__code_start__-0x7884>
     72c:	0b0b0113 	bleq	2c0b80 <__bss_end__+0x2b5bb0>
     730:	0b3b0b3a 	bleq	ec3420 <__bss_end__+0xeb8450>
     734:	13010b39 	movwne	r0, #6969	; 0x1b39
     738:	0d0b0000 	stceq	0, cr0, [fp, #-0]
     73c:	3a0e0300 	bcc	381344 <__bss_end__+0x376374>
     740:	390b3b0b 	stmdbcc	fp, {r0, r1, r3, r8, r9, fp, ip, sp}
     744:	3813490b 	ldmdacc	r3, {r0, r1, r3, r8, fp, lr}
     748:	0c00000b 	stceq	0, cr0, [r0], {11}
     74c:	0b3e0104 	bleq	f80b64 <__bss_end__+0xf75b94>
     750:	13490b0b 	movtne	r0, #39691	; 0x9b0b
     754:	0b3b0b3a 	bleq	ec3444 <__bss_end__+0xeb8474>
     758:	13010b39 	movwne	r0, #6969	; 0x1b39
     75c:	280d0000 	stmdacs	sp, {}	; <UNPREDICTABLE>
     760:	1c0e0300 	stcne	3, cr0, [lr], {-0}
     764:	0e00000b 	cdpeq	0, 0, cr0, cr0, cr11, {0}
     768:	0e030113 	mcreq	1, 0, r0, cr3, cr3, {0}
     76c:	0b3a0b0b 	bleq	e833a0 <__bss_end__+0xe783d0>
     770:	0b390b3b 	bleq	e43464 <__bss_end__+0xe38494>
     774:	00001301 	andeq	r1, r0, r1, lsl #6
     778:	03000d0f 	movweq	r0, #3343	; 0xd0f
     77c:	3b0b3a08 	blcc	2cefa4 <__bss_end__+0x2c3fd4>
     780:	490b390b 	stmdbmi	fp, {r0, r1, r3, r8, fp, ip, sp}
     784:	000b3813 	andeq	r3, fp, r3, lsl r8
     788:	01011000 	mrseq	r1, (UNDEF: 1)
     78c:	13011349 	movwne	r1, #4937	; 0x1349
     790:	21110000 	tstcs	r1, r0
     794:	2f134900 	svccs	0x00134900
     798:	1200000b 	andne	r0, r0, #11, 0
     79c:	0b0b000f 	bleq	2c07e0 <__bss_end__+0x2b5810>
     7a0:	34130000 	ldrcc	r0, [r3], #-0
     7a4:	3a0e0300 	bcc	3813ac <__bss_end__+0x3763dc>
     7a8:	390b3b0b 	stmdbcc	fp, {r0, r1, r3, r8, r9, fp, ip, sp}
     7ac:	0213490b 	andseq	r4, r3, #180224	; 0x2c000
     7b0:	14000018 	strne	r0, [r0], #-24	; 0xffffffe8
     7b4:	193f012e 	ldmdbne	pc!, {r1, r2, r3, r5, r8}	; <UNPREDICTABLE>
     7b8:	0b3a0e03 	bleq	e83fcc <__bss_end__+0xe78ffc>
     7bc:	0b39053b 	bleq	e41cb0 <__bss_end__+0xe36ce0>
     7c0:	01111927 	tsteq	r1, r7, lsr #18
     7c4:	18400612 	stmdane	r0, {r1, r4, r9, sl}^
     7c8:	01194297 			; <UNDEFINED> instruction: 0x01194297
     7cc:	15000013 	strne	r0, [r0, #-19]	; 0xffffffed
     7d0:	0e030034 	mcreq	0, 0, r0, cr3, cr4, {1}
     7d4:	19341349 	ldmdbne	r4!, {r0, r3, r6, r8, r9, ip}
     7d8:	00001802 	andeq	r1, r0, r2, lsl #16
     7dc:	01828916 	orreq	r8, r2, r6, lsl r9
     7e0:	31011101 	tstcc	r1, r1, lsl #2
     7e4:	00130113 	andseq	r0, r3, r3, lsl r1
     7e8:	828a1700 	addhi	r1, sl, #0, 14
     7ec:	18020001 	stmdane	r2, {r0}
     7f0:	00184291 	mulseq	r8, r1, r2
     7f4:	82891800 	addhi	r1, r9, #0, 16
     7f8:	01110001 	tsteq	r1, r1
     7fc:	00001331 	andeq	r1, r0, r1, lsr r3
     800:	3f012e19 	svccc	0x00012e19
     804:	3a0e0319 	bcc	381470 <__bss_end__+0x3764a0>
     808:	39053b0b 	stmdbcc	r5, {r0, r1, r3, r8, r9, fp, ip, sp}
     80c:	4919270b 	ldmdbmi	r9, {r0, r1, r3, r8, r9, sl, sp}
     810:	12011113 	andne	r1, r1, #-1073741820	; 0xc0000004
     814:	97184006 	ldrls	r4, [r8, -r6]
     818:	13011942 	movwne	r1, #6466	; 0x1942
     81c:	341a0000 	ldrcc	r0, [sl], #-0
     820:	3a0e0300 	bcc	381428 <__bss_end__+0x376458>
     824:	39053b0b 	stmdbcc	r5, {r0, r1, r3, r8, r9, fp, ip, sp}
     828:	0213490b 	andseq	r4, r3, #180224	; 0x2c000
     82c:	1742b717 	smlaldne	fp, r2, r7, r7
     830:	1d1b0000 	ldcne	0, cr0, [fp, #-0]
     834:	52133101 	andspl	r3, r3, #1073741824	; 0x40000000
     838:	0b42b801 	bleq	10ae844 <__bss_end__+0x10a3874>
     83c:	0b581755 	bleq	1606598 <__bss_end__+0x15fb5c8>
     840:	0b570559 	bleq	15c1dac <__bss_end__+0x15b6ddc>
     844:	00001301 	andeq	r1, r0, r1, lsl #6
     848:	55010b1c 	strpl	r0, [r1, #-2844]	; 0xfffff4e4
     84c:	1d000017 	stcne	0, cr0, [r0, #-92]	; 0xffffffa4
     850:	13310034 	teqne	r1, #52, 0	; 0x34
     854:	42b71702 	adcsmi	r1, r7, #524288	; 0x80000
     858:	1e000017 	mcrne	0, 0, r0, cr0, cr7, {0}
     85c:	1331010b 	teqne	r1, #-1073741822	; 0xc0000002
     860:	13011755 	movwne	r1, #5973	; 0x1755
     864:	051f0000 	ldreq	r0, [pc, #-0]	; 86c <__code_start__-0x7794>
     868:	02133100 	andseq	r3, r3, #0
     86c:	1742b717 	smlaldne	fp, r2, r7, r7
     870:	89200000 	stmdbhi	r0!, {}	; <UNPREDICTABLE>
     874:	11010182 	smlabbne	r1, r2, r1, r0
     878:	00133101 	andseq	r3, r3, r1, lsl #2
     87c:	012e2100 			; <UNDEFINED> instruction: 0x012e2100
     880:	0b3a0e03 	bleq	e84094 <__bss_end__+0xe790c4>
     884:	0b390b3b 	bleq	e43578 <__bss_end__+0xe385a8>
     888:	13491927 	movtne	r1, #39207	; 0x9927
     88c:	13010b20 	movwne	r0, #6944	; 0x1b20
     890:	34220000 	strtcc	r0, [r2], #-0
     894:	3a0e0300 	bcc	38149c <__bss_end__+0x3764cc>
     898:	390b3b0b 	stmdbcc	fp, {r0, r1, r3, r8, r9, fp, ip, sp}
     89c:	0013490b 	andseq	r4, r3, fp, lsl #18
     8a0:	010b2300 	mrseq	r2, (UNDEF: 59)
     8a4:	34240000 	strtcc	r0, [r4], #-0
     8a8:	3a080300 	bcc	2014b0 <__bss_end__+0x1f64e0>
     8ac:	390b3b0b 	stmdbcc	fp, {r0, r1, r3, r8, r9, fp, ip, sp}
     8b0:	0013490b 	andseq	r4, r3, fp, lsl #18
     8b4:	012e2500 			; <UNDEFINED> instruction: 0x012e2500
     8b8:	0e03193f 			; <UNDEFINED> instruction: 0x0e03193f
     8bc:	0b3b0b3a 	bleq	ec35ac <__bss_end__+0xeb85dc>
     8c0:	19270b39 	stmdbne	r7!, {r0, r3, r4, r5, r8, r9, fp}
     8c4:	01111349 	tsteq	r1, r9, asr #6
     8c8:	18400612 	stmdane	r0, {r1, r4, r9, sl}^
     8cc:	01194297 			; <UNDEFINED> instruction: 0x01194297
     8d0:	26000013 			; <UNDEFINED> instruction: 0x26000013
     8d4:	0e030034 	mcreq	0, 0, r0, cr3, cr4, {1}
     8d8:	0b3b0b3a 	bleq	ec35c8 <__bss_end__+0xeb85f8>
     8dc:	13490b39 	movtne	r0, #39737	; 0x9b39
     8e0:	42b71702 	adcsmi	r1, r7, #524288	; 0x80000
     8e4:	27000017 	smladcs	r0, r7, r0, r0
     8e8:	1331011d 	teqne	r1, #1073741831	; 0x40000007
     8ec:	42b80152 	adcsmi	r0, r8, #-2147483628	; 0x80000014
     8f0:	1201110b 	andne	r1, r1, #-1073741822	; 0xc0000002
     8f4:	590b5806 	stmdbpl	fp, {r1, r2, fp, ip, lr}
     8f8:	010b570b 	tsteq	fp, fp, lsl #14
     8fc:	28000013 	stmdacs	r0, {r0, r1, r4}
     900:	193f012e 	ldmdbne	pc!, {r1, r2, r3, r5, r8}	; <UNPREDICTABLE>
     904:	0b3a0e03 	bleq	e84118 <__bss_end__+0xe79148>
     908:	0b390b3b 	bleq	e435fc <__bss_end__+0xe3862c>
     90c:	01111927 	tsteq	r1, r7, lsr #18
     910:	18400612 	stmdane	r0, {r1, r4, r9, sl}^
     914:	01194297 			; <UNDEFINED> instruction: 0x01194297
     918:	29000013 	stmdbcs	r0, {r0, r1, r4}
     91c:	193f012e 	ldmdbne	pc!, {r1, r2, r3, r5, r8}	; <UNPREDICTABLE>
     920:	0b3a0e03 	bleq	e84134 <__bss_end__+0xe79164>
     924:	0b390b3b 	bleq	e43618 <__bss_end__+0xe38648>
     928:	13491927 	movtne	r1, #39207	; 0x9927
     92c:	13010b20 	movwne	r0, #6944	; 0x1b20
     930:	052a0000 	streq	r0, [sl, #-0]!
     934:	3a0e0300 	bcc	38153c <__bss_end__+0x37656c>
     938:	390b3b0b 	stmdbcc	fp, {r0, r1, r3, r8, r9, fp, ip, sp}
     93c:	0013490b 	andseq	r4, r3, fp, lsl #18
     940:	012e2b00 			; <UNDEFINED> instruction: 0x012e2b00
     944:	0b3a0e03 	bleq	e84158 <__bss_end__+0xe79188>
     948:	0b390b3b 	bleq	e4363c <__bss_end__+0xe3866c>
     94c:	13491927 	movtne	r1, #39207	; 0x9927
     950:	06120111 			; <UNDEFINED> instruction: 0x06120111
     954:	42971840 	addsmi	r1, r7, #64, 16	; 0x400000
     958:	00130119 	andseq	r0, r3, r9, lsl r1
     95c:	00052c00 	andeq	r2, r5, r0, lsl #24
     960:	0b3a0e03 	bleq	e84174 <__bss_end__+0xe791a4>
     964:	0b390b3b 	bleq	e43658 <__bss_end__+0xe38688>
     968:	17021349 	strne	r1, [r2, -r9, asr #6]
     96c:	001742b7 			; <UNDEFINED> instruction: 0x001742b7
     970:	010b2d00 	tsteq	fp, r0, lsl #26
     974:	13011755 	movwne	r1, #5973	; 0x1755
     978:	342e0000 	strtcc	r0, [lr], #-0
     97c:	3a080300 	bcc	201584 <__bss_end__+0x1f65b4>
     980:	390b3b0b 	stmdbcc	fp, {r0, r1, r3, r8, r9, fp, ip, sp}
     984:	0213490b 	andseq	r4, r3, #180224	; 0x2c000
     988:	1742b717 	smlaldne	fp, r2, r7, r7
     98c:	2e2f0000 	cdpcs	0, 2, cr0, cr15, cr0, {0}
     990:	3a0e0301 	bcc	38159c <__bss_end__+0x3765cc>
     994:	390b3b0b 	stmdbcc	fp, {r0, r1, r3, r8, r9, fp, ip, sp}
     998:	1119270b 	tstne	r9, fp, lsl #14
     99c:	40061201 	andmi	r1, r6, r1, lsl #4
     9a0:	19429718 	stmdbne	r2, {r3, r4, r8, r9, sl, ip, pc}^
     9a4:	00001301 	andeq	r1, r0, r1, lsl #6
     9a8:	03003430 	movweq	r3, #1072	; 0x430
     9ac:	3b0b3a0e 	blcc	2cf1ec <__bss_end__+0x2c421c>
     9b0:	490b390b 	stmdbmi	fp, {r0, r1, r3, r8, fp, ip, sp}
     9b4:	00061c13 	andeq	r1, r6, r3, lsl ip
     9b8:	012e3100 			; <UNDEFINED> instruction: 0x012e3100
     9bc:	0b3a0e03 	bleq	e841d0 <__bss_end__+0xe79200>
     9c0:	0b390b3b 	bleq	e436b4 <__bss_end__+0xe386e4>
     9c4:	0b201927 	bleq	806e68 <__bss_end__+0x7fbe98>
     9c8:	00001301 	andeq	r1, r0, r1, lsl #6
     9cc:	03000532 	movweq	r0, #1330	; 0x532
     9d0:	3b0b3a08 	blcc	2cf1f8 <__bss_end__+0x2c4228>
     9d4:	490b390b 	stmdbmi	fp, {r0, r1, r3, r8, fp, ip, sp}
     9d8:	33000013 	movwcc	r0, #19
     9dc:	01018289 	smlabbeq	r1, r9, r2, r8
     9e0:	42950111 	addsmi	r0, r5, #1073741828	; 0x40000004
     9e4:	01133119 	tsteq	r3, r9, lsl r1
     9e8:	34000013 	strcc	r0, [r0], #-19	; 0xffffffed
     9ec:	1331012e 	teqne	r1, #-2147483637	; 0x8000000b
     9f0:	06120111 			; <UNDEFINED> instruction: 0x06120111
     9f4:	42971840 	addsmi	r1, r7, #64, 16	; 0x400000
     9f8:	00130119 	andseq	r0, r3, r9, lsl r1
     9fc:	011d3500 	tsteq	sp, r0, lsl #10
     a00:	17551331 	smmlarne	r5, r1, r3, r1
     a04:	0b590b58 	bleq	164376c <__bss_end__+0x163879c>
     a08:	13010b57 	movwne	r0, #6999	; 0x1b57
     a0c:	05360000 	ldreq	r0, [r6, #-0]!
     a10:	00133100 	andseq	r3, r3, r0, lsl #2
     a14:	010b3700 	tsteq	fp, r0, lsl #14
     a18:	17551331 	smmlarne	r5, r1, r3, r1
     a1c:	1d380000 	ldcne	0, cr0, [r8, #-0]
     a20:	52133101 	andspl	r3, r3, #1073741824	; 0x40000000
     a24:	0b42b801 	bleq	10aea30 <__bss_end__+0x10a3a60>
     a28:	0b581755 	bleq	1606784 <__bss_end__+0x15fb7b4>
     a2c:	0b570b59 	bleq	15c3798 <__bss_end__+0x15b87c8>
     a30:	1d390000 	ldcne	0, cr0, [r9, #-0]
     a34:	52133101 	andspl	r3, r3, #1073741824	; 0x40000000
     a38:	0b42b801 	bleq	10aea44 <__bss_end__+0x10a3a74>
     a3c:	0b581755 	bleq	1606798 <__bss_end__+0x15fb7c8>
     a40:	0b570b59 	bleq	15c37ac <__bss_end__+0x15b87dc>
     a44:	00001301 	andeq	r1, r0, r1, lsl #6
     a48:	0182893a 	orreq	r8, r2, sl, lsr r9
     a4c:	95011101 	strls	r1, [r1, #-257]	; 0xfffffeff
     a50:	13311942 	teqne	r1, #1081344	; 0x108000
     a54:	2e3b0000 	cdpcs	0, 3, cr0, cr11, cr0, {0}
     a58:	3c193f00 	ldccc	15, cr3, [r9], {-0}
     a5c:	030e6e19 	movweq	r6, #60953	; 0xee19
     a60:	3b0b3a0e 	blcc	2cf2a0 <__bss_end__+0x2c42d0>
     a64:	000b390b 	andeq	r3, fp, fp, lsl #18
     a68:	00363c00 	eorseq	r3, r6, r0, lsl #24
     a6c:	00001802 	andeq	r1, r0, r2, lsl #16
     a70:	01110100 	tsteq	r1, r0, lsl #2
     a74:	0b130e25 	bleq	4c4310 <__bss_end__+0x4b9340>
     a78:	0e1b0e03 	cdpeq	14, 1, cr0, cr11, cr3, {0}
     a7c:	06120111 			; <UNDEFINED> instruction: 0x06120111
     a80:	00001710 	andeq	r1, r0, r0, lsl r7
     a84:	0b002402 	bleq	9a94 <uart_init+0x9c>
     a88:	030b3e0b 	movweq	r3, #48651	; 0xbe0b
     a8c:	03000008 	movweq	r0, #8
     a90:	0e030016 	mcreq	0, 0, r0, cr3, cr6, {0}
     a94:	0b3b0b3a 	bleq	ec3784 <__bss_end__+0xeb87b4>
     a98:	13490b39 	movtne	r0, #39737	; 0x9b39
     a9c:	24040000 	strcs	r0, [r4], #-0
     aa0:	3e0b0b00 	vmlacc.f64	d0, d11, d0
     aa4:	000e030b 	andeq	r0, lr, fp, lsl #6
     aa8:	01150500 	tsteq	r5, r0, lsl #10
     aac:	13491927 	movtne	r1, #39207	; 0x9927
     ab0:	00001301 	andeq	r1, r0, r1, lsl #6
     ab4:	49000506 	stmdbmi	r0, {r1, r2, r8, sl}
     ab8:	07000013 	smladeq	r0, r3, r0, r0
     abc:	0e030034 	mcreq	0, 0, r0, cr3, cr4, {1}
     ac0:	0b3b0b3a 	bleq	ec37b0 <__bss_end__+0xeb87e0>
     ac4:	13490b39 	movtne	r0, #39737	; 0x9b39
     ac8:	193c193f 	ldmdbne	ip!, {r0, r1, r2, r3, r4, r5, r8, fp, ip}
     acc:	0f080000 	svceq	0x00080000
     ad0:	490b0b00 	stmdbmi	fp, {r8, r9, fp}
     ad4:	09000013 	stmdbeq	r0, {r0, r1, r4}
     ad8:	13490026 	movtne	r0, #36902	; 0x9026
     adc:	2e0a0000 	cdpcs	0, 0, cr0, cr10, cr0, {0}
     ae0:	03193f01 	tsteq	r9, #1, 30
     ae4:	3b0b3a0e 	blcc	2cf324 <__bss_end__+0x2c4354>
     ae8:	270b390b 	strcs	r3, [fp, -fp, lsl #18]
     aec:	11134919 	tstne	r3, r9, lsl r9
     af0:	40061201 	andmi	r1, r6, r1, lsl #4
     af4:	19429718 	stmdbne	r2, {r3, r4, r8, r9, sl, ip, pc}^
     af8:	00001301 	andeq	r1, r0, r1, lsl #6
     afc:	0300050b 	movweq	r0, #1291	; 0x50b
     b00:	3b0b3a08 	blcc	2cf328 <__bss_end__+0x2c4358>
     b04:	490b390b 	stmdbmi	fp, {r0, r1, r3, r8, fp, ip, sp}
     b08:	00180213 	andseq	r0, r8, r3, lsl r2
     b0c:	00050c00 	andeq	r0, r5, r0, lsl #24
     b10:	0b3a0803 	bleq	e82b24 <__bss_end__+0xe77b54>
     b14:	0b390b3b 	bleq	e43808 <__bss_end__+0xe38838>
     b18:	17021349 	strne	r1, [r2, -r9, asr #6]
     b1c:	001742b7 			; <UNDEFINED> instruction: 0x001742b7
     b20:	00340d00 	eorseq	r0, r4, r0, lsl #26
     b24:	0b3a0803 	bleq	e82b38 <__bss_end__+0xe77b68>
     b28:	0b390b3b 	bleq	e4381c <__bss_end__+0xe3884c>
     b2c:	17021349 	strne	r1, [r2, -r9, asr #6]
     b30:	001742b7 			; <UNDEFINED> instruction: 0x001742b7
     b34:	000f0e00 	andeq	r0, pc, r0, lsl #28
     b38:	00000b0b 	andeq	r0, r0, fp, lsl #22
     b3c:	01110100 	tsteq	r1, r0, lsl #2
     b40:	0b130e25 	bleq	4c43dc <__bss_end__+0x4b940c>
     b44:	0e1b0e03 	cdpeq	14, 1, cr0, cr11, cr3, {0}
     b48:	06120111 			; <UNDEFINED> instruction: 0x06120111
     b4c:	00001710 	andeq	r1, r0, r0, lsl r7
     b50:	03001602 	movweq	r1, #1538	; 0x602
     b54:	3b0b3a0e 	blcc	2cf394 <__bss_end__+0x2c43c4>
     b58:	490b390b 	stmdbmi	fp, {r0, r1, r3, r8, fp, ip, sp}
     b5c:	03000013 	movweq	r0, #19
     b60:	0e030113 	mcreq	1, 0, r0, cr3, cr3, {0}
     b64:	0b3a0b0b 	bleq	e83798 <__bss_end__+0xe787c8>
     b68:	13010b3b 	movwne	r0, #6971	; 0x1b3b
     b6c:	0d040000 	stceq	0, cr0, [r4, #-0]
     b70:	490e0300 	stmdbmi	lr, {r8, r9}
     b74:	340b3813 	strcc	r3, [fp], #-2067	; 0xfffff7ed
     b78:	05000019 	streq	r0, [r0, #-25]	; 0xffffffe7
     b7c:	0b0b000f 	bleq	2c0bc0 <__bss_end__+0x2b5bf0>
     b80:	24060000 	strcs	r0, [r6], #-0
     b84:	3e0b0b00 	vmlacc.f64	d0, d11, d0
     b88:	0008030b 	andeq	r0, r8, fp, lsl #6
     b8c:	00240700 	eoreq	r0, r4, r0, lsl #14
     b90:	0b3e0b0b 	bleq	f837c4 <__bss_end__+0xf787f4>
     b94:	00000e03 	andeq	r0, r0, r3, lsl #28
     b98:	27011508 	strcs	r1, [r1, -r8, lsl #10]
     b9c:	01134919 	tsteq	r3, r9, lsl r9
     ba0:	09000013 	stmdbeq	r0, {r0, r1, r4}
     ba4:	13490005 	movtne	r0, #36869	; 0x9005
     ba8:	340a0000 	strcc	r0, [sl], #-0
     bac:	3a0e0300 	bcc	3817b4 <__bss_end__+0x3767e4>
     bb0:	390b3b0b 	stmdbcc	fp, {r0, r1, r3, r8, r9, fp, ip, sp}
     bb4:	3f13490b 	svccc	0x0013490b
     bb8:	00193c19 	andseq	r3, r9, r9, lsl ip
     bbc:	000f0b00 	andeq	r0, pc, r0, lsl #22
     bc0:	13490b0b 	movtne	r0, #39691	; 0x9b0b
     bc4:	260c0000 	strcs	r0, [ip], -r0
     bc8:	00134900 	andseq	r4, r3, r0, lsl #18
     bcc:	012e0d00 			; <UNDEFINED> instruction: 0x012e0d00
     bd0:	0e03193f 			; <UNDEFINED> instruction: 0x0e03193f
     bd4:	0b3b0b3a 	bleq	ec38c4 <__bss_end__+0xeb88f4>
     bd8:	19270b39 	stmdbne	r7!, {r0, r3, r4, r5, r8, r9, fp}
     bdc:	01111349 	tsteq	r1, r9, asr #6
     be0:	18400612 	stmdane	r0, {r1, r4, r9, sl}^
     be4:	01194297 			; <UNDEFINED> instruction: 0x01194297
     be8:	0e000013 	mcreq	0, 0, r0, cr0, cr3, {0}
     bec:	08030005 	stmdaeq	r3, {r0, r2}
     bf0:	0b3b0b3a 	bleq	ec38e0 <__bss_end__+0xeb8910>
     bf4:	13490b39 	movtne	r0, #39737	; 0x9b39
     bf8:	00001802 	andeq	r1, r0, r2, lsl #16
     bfc:	0000180f 	andeq	r1, r0, pc, lsl #16
     c00:	00341000 	eorseq	r1, r4, r0
     c04:	0b3a0803 	bleq	e82c18 <__bss_end__+0xe77c48>
     c08:	0b390b3b 	bleq	e438fc <__bss_end__+0xe3892c>
     c0c:	18021349 	stmdane	r2, {r0, r3, r6, r8, r9, ip}
     c10:	34110000 	ldrcc	r0, [r1], #-0
     c14:	3a0e0300 	bcc	38181c <__bss_end__+0x37684c>
     c18:	390b3b0b 	stmdbcc	fp, {r0, r1, r3, r8, r9, fp, ip, sp}
     c1c:	0213490b 	andseq	r4, r3, #180224	; 0x2c000
     c20:	12000018 	andne	r0, r0, #24, 0
     c24:	08030034 	stmdaeq	r3, {r2, r4, r5}
     c28:	0b3b0b3a 	bleq	ec3918 <__bss_end__+0xeb8948>
     c2c:	13490b39 	movtne	r0, #39737	; 0x9b39
     c30:	42b71702 	adcsmi	r1, r7, #524288	; 0x80000
     c34:	13000017 	movwne	r0, #23
     c38:	01018289 	smlabbeq	r1, r9, r2, r8
     c3c:	13310111 	teqne	r1, #1073741828	; 0x40000004
     c40:	00001301 	andeq	r1, r0, r1, lsl #6
     c44:	01828a14 	orreq	r8, r2, r4, lsl sl
     c48:	91180200 	tstls	r8, r0, lsl #4
     c4c:	00001842 	andeq	r1, r0, r2, asr #16
     c50:	01828915 	orreq	r8, r2, r5, lsl r9
     c54:	00011101 	andeq	r1, r1, r1, lsl #2
     c58:	01011600 	tsteq	r1, r0, lsl #12
     c5c:	13011349 	movwne	r1, #4937	; 0x1349
     c60:	21170000 	tstcs	r7, r0
     c64:	2f134900 	svccs	0x00134900
     c68:	18000005 	stmdane	r0, {r0, r2}
     c6c:	193f002e 	ldmdbne	pc!, {r1, r2, r3, r5}	; <UNPREDICTABLE>
     c70:	0e6e193c 			; <UNDEFINED> instruction: 0x0e6e193c
     c74:	0b3a0e03 	bleq	e84488 <__bss_end__+0xe794b8>
     c78:	0b390b3b 	bleq	e4396c <__bss_end__+0xe3899c>
     c7c:	01000000 	mrseq	r0, (UNDEF: 0)
     c80:	0e250111 	mcreq	1, 1, r0, cr5, cr1, {0}
     c84:	0e030b13 	vmoveq.32	d3[0], r0
     c88:	01110e1b 	tsteq	r1, fp, lsl lr
     c8c:	17100612 			; <UNDEFINED> instruction: 0x17100612
     c90:	24020000 	strcs	r0, [r2], #-0
     c94:	3e0b0b00 	vmlacc.f64	d0, d11, d0
     c98:	0008030b 	andeq	r0, r8, fp, lsl #6
     c9c:	00240300 	eoreq	r0, r4, r0, lsl #6
     ca0:	0b3e0b0b 	bleq	f838d4 <__bss_end__+0xf78904>
     ca4:	00000e03 	andeq	r0, r0, r3, lsl #28
     ca8:	27011504 	strcs	r1, [r1, -r4, lsl #10]
     cac:	01134919 	tsteq	r3, r9, lsl r9
     cb0:	05000013 	streq	r0, [r0, #-19]	; 0xffffffed
     cb4:	13490005 	movtne	r0, #36869	; 0x9005
     cb8:	34060000 	strcc	r0, [r6], #-0
     cbc:	3a0e0300 	bcc	3818c4 <__bss_end__+0x3768f4>
     cc0:	390b3b0b 	stmdbcc	fp, {r0, r1, r3, r8, r9, fp, ip, sp}
     cc4:	3f13490b 	svccc	0x0013490b
     cc8:	00193c19 	andseq	r3, r9, r9, lsl ip
     ccc:	000f0700 	andeq	r0, pc, r0, lsl #14
     cd0:	13490b0b 	movtne	r0, #39691	; 0x9b0b
     cd4:	26080000 	strcs	r0, [r8], -r0
     cd8:	00134900 	andseq	r4, r3, r0, lsl #18
     cdc:	00340900 	eorseq	r0, r4, r0, lsl #18
     ce0:	0b3a1347 	bleq	e85a04 <__bss_end__+0xe7aa34>
     ce4:	0b390b3b 	bleq	e439d8 <__bss_end__+0xe38a08>
     ce8:	00001802 	andeq	r1, r0, r2, lsl #16
     cec:	3f012e0a 	svccc	0x00012e0a
     cf0:	3a0e0319 	bcc	38195c <__bss_end__+0x37698c>
     cf4:	390b3b0b 	stmdbcc	fp, {r0, r1, r3, r8, r9, fp, ip, sp}
     cf8:	4919270b 	ldmdbmi	r9, {r0, r1, r3, r8, r9, sl, sp}
     cfc:	12011113 	andne	r1, r1, #-1073741820	; 0xc0000004
     d00:	96184006 	ldrls	r4, [r8], -r6
     d04:	00001942 	andeq	r1, r0, r2, asr #18
     d08:	0300050b 	movweq	r0, #1291	; 0x50b
     d0c:	3b0b3a08 	blcc	2cf534 <__bss_end__+0x2c4564>
     d10:	490b390b 	stmdbmi	fp, {r0, r1, r3, r8, fp, ip, sp}
     d14:	b7170213 			; <UNDEFINED> instruction: 0xb7170213
     d18:	00001742 	andeq	r1, r0, r2, asr #14
     d1c:	01110100 	tsteq	r1, r0, lsl #2
     d20:	0b130e25 	bleq	4c45bc <__bss_end__+0x4b95ec>
     d24:	0e1b0e03 	cdpeq	14, 1, cr0, cr11, cr3, {0}
     d28:	06120111 			; <UNDEFINED> instruction: 0x06120111
     d2c:	00001710 	andeq	r1, r0, r0, lsl r7
     d30:	0b002402 	bleq	9d40 <kmalloc_notzero+0x74>
     d34:	030b3e0b 	movweq	r3, #48651	; 0xbe0b
     d38:	0300000e 	movweq	r0, #14
     d3c:	0b0b0024 	bleq	2c0dd4 <__bss_end__+0x2b5e04>
     d40:	08030b3e 	stmdaeq	r3, {r1, r2, r3, r4, r5, r8, r9, fp}
     d44:	16040000 	strne	r0, [r4], -r0
     d48:	3a0e0300 	bcc	381950 <__bss_end__+0x376980>
     d4c:	390b3b0b 	stmdbcc	fp, {r0, r1, r3, r8, r9, fp, ip, sp}
     d50:	0013490b 	andseq	r4, r3, fp, lsl #18
     d54:	01150500 	tsteq	r5, r0, lsl #10
     d58:	13491927 	movtne	r1, #39207	; 0x9927
     d5c:	00001301 	andeq	r1, r0, r1, lsl #6
     d60:	49000506 	stmdbmi	r0, {r1, r2, r8, sl}
     d64:	07000013 	smladeq	r0, r3, r0, r0
     d68:	0e030034 	mcreq	0, 0, r0, cr3, cr4, {1}
     d6c:	0b3b0b3a 	bleq	ec3a5c <__bss_end__+0xeb8a8c>
     d70:	13490b39 	movtne	r0, #39737	; 0x9b39
     d74:	193c193f 	ldmdbne	ip!, {r0, r1, r2, r3, r4, r5, r8, fp, ip}
     d78:	0f080000 	svceq	0x00080000
     d7c:	490b0b00 	stmdbmi	fp, {r8, r9, fp}
     d80:	09000013 	stmdbeq	r0, {r0, r1, r4}
     d84:	13490026 	movtne	r0, #36902	; 0x9026
     d88:	130a0000 	movwne	r0, #40960	; 0xa000
     d8c:	0b0e0301 	bleq	381998 <__bss_end__+0x3769c8>
     d90:	3b0b3a0b 	blcc	2cf5c4 <__bss_end__+0x2c45f4>
     d94:	0013010b 	andseq	r0, r3, fp, lsl #2
     d98:	000d0b00 	andeq	r0, sp, r0, lsl #22
     d9c:	13490e03 	movtne	r0, #40451	; 0x9e03
     da0:	19340b38 	ldmdbne	r4!, {r3, r4, r5, r8, r9, fp}
     da4:	0f0c0000 	svceq	0x000c0000
     da8:	000b0b00 	andeq	r0, fp, r0, lsl #22
     dac:	012e0d00 			; <UNDEFINED> instruction: 0x012e0d00
     db0:	0e03193f 			; <UNDEFINED> instruction: 0x0e03193f
     db4:	0b3b0b3a 	bleq	ec3aa4 <__bss_end__+0xeb8ad4>
     db8:	19270b39 	stmdbne	r7!, {r0, r3, r4, r5, r8, r9, fp}
     dbc:	01111349 	tsteq	r1, r9, asr #6
     dc0:	18400612 	stmdane	r0, {r1, r4, r9, sl}^
     dc4:	01194297 			; <UNDEFINED> instruction: 0x01194297
     dc8:	0e000013 	mcreq	0, 0, r0, cr0, cr3, {0}
     dcc:	08030005 	stmdaeq	r3, {r0, r2}
     dd0:	0b3b0b3a 	bleq	ec3ac0 <__bss_end__+0xeb8af0>
     dd4:	13490b39 	movtne	r0, #39737	; 0x9b39
     dd8:	42b71702 	adcsmi	r1, r7, #524288	; 0x80000
     ddc:	0f000017 	svceq	0x00000017
     de0:	0e030005 	cdpeq	0, 0, cr0, cr3, cr5, {0}
     de4:	0b3b0b3a 	bleq	ec3ad4 <__bss_end__+0xeb8b04>
     de8:	13490b39 	movtne	r0, #39737	; 0x9b39
     dec:	42b71702 	adcsmi	r1, r7, #524288	; 0x80000
     df0:	10000017 	andne	r0, r0, r7, lsl r0
     df4:	08030034 	stmdaeq	r3, {r2, r4, r5}
     df8:	0b3b0b3a 	bleq	ec3ae8 <__bss_end__+0xeb8b18>
     dfc:	13490b39 	movtne	r0, #39737	; 0x9b39
     e00:	42b71702 	adcsmi	r1, r7, #524288	; 0x80000
     e04:	11000017 	tstne	r0, r7, lsl r0
     e08:	0e030034 	mcreq	0, 0, r0, cr3, cr4, {1}
     e0c:	0b3b0b3a 	bleq	ec3afc <__bss_end__+0xeb8b2c>
     e10:	13490b39 	movtne	r0, #39737	; 0x9b39
     e14:	42b71702 	adcsmi	r1, r7, #524288	; 0x80000
     e18:	12000017 	andne	r0, r0, #23, 0
     e1c:	0e030034 	mcreq	0, 0, r0, cr3, cr4, {1}
     e20:	19341349 	ldmdbne	r4!, {r0, r3, r6, r8, r9, ip}
     e24:	00001802 	andeq	r1, r0, r2, lsl #16
     e28:	55010b13 	strpl	r0, [r1, #-2835]	; 0xfffff4ed
     e2c:	14000017 	strne	r0, [r0], #-23	; 0xffffffe9
     e30:	08030034 	stmdaeq	r3, {r2, r4, r5}
     e34:	0b3b0b3a 	bleq	ec3b24 <__bss_end__+0xeb8b54>
     e38:	13490b39 	movtne	r0, #39737	; 0x9b39
     e3c:	00001802 	andeq	r1, r0, r2, lsl #16
     e40:	03003415 	movweq	r3, #1045	; 0x415
     e44:	3b0b3a0e 	blcc	2cf684 <__bss_end__+0x2c46b4>
     e48:	490b390b 	stmdbmi	fp, {r0, r1, r3, r8, fp, ip, sp}
     e4c:	00180213 	andseq	r0, r8, r3, lsl r2
     e50:	010b1600 	tsteq	fp, r0, lsl #12
     e54:	13011755 	movwne	r1, #5973	; 0x1755
     e58:	89170000 	ldmdbhi	r7, {}	; <UNPREDICTABLE>
     e5c:	11010182 	smlabbne	r1, r2, r1, r0
     e60:	01133101 	tsteq	r3, r1, lsl #2
     e64:	18000013 	stmdane	r0, {r0, r1, r4}
     e68:	0001828a 	andeq	r8, r1, sl, lsl #5
     e6c:	42911802 	addsmi	r1, r1, #131072	; 0x20000
     e70:	19000018 	stmdbne	r0, {r3, r4}
     e74:	00018289 	andeq	r8, r1, r9, lsl #5
     e78:	13310111 	teqne	r1, #1073741828	; 0x40000004
     e7c:	1d1a0000 	ldcne	0, cr0, [sl, #-0]
     e80:	52133101 	andspl	r3, r3, #1073741824	; 0x40000000
     e84:	0542b801 	strbeq	fp, [r2, #-2049]	; 0xfffff7ff
     e88:	0b581755 	bleq	1606be4 <__bss_end__+0x15fbc14>
     e8c:	0b570b59 	bleq	15c3bf8 <__bss_end__+0x15b8c28>
     e90:	00001301 	andeq	r1, r0, r1, lsl #6
     e94:	3100051b 	tstcc	r0, fp, lsl r5
     e98:	b7170213 			; <UNDEFINED> instruction: 0xb7170213
     e9c:	00001742 	andeq	r1, r0, r2, asr #14
     ea0:	3100051c 	tstcc	r0, ip, lsl r5
     ea4:	1d000013 	stcne	0, cr0, [r0, #-76]	; 0xffffffb4
     ea8:	13310034 	teqne	r1, #52, 0	; 0x34
     eac:	00001802 	andeq	r1, r0, r2, lsl #16
     eb0:	3100341e 	tstcc	r0, lr, lsl r4
     eb4:	b7170213 			; <UNDEFINED> instruction: 0xb7170213
     eb8:	00001742 	andeq	r1, r0, r2, asr #14
     ebc:	3100341f 	tstcc	r0, pc, lsl r4
     ec0:	20000013 	andcs	r0, r0, r3, lsl r0
     ec4:	1331011d 	teqne	r1, #1073741831	; 0x40000007
     ec8:	42b80152 	adcsmi	r0, r8, #-2147483628	; 0x80000014
     ecc:	58175505 	ldmdapl	r7, {r0, r2, r8, sl, ip, lr}
     ed0:	570b590b 	strpl	r5, [fp, -fp, lsl #18]
     ed4:	2100000b 	tstcs	r0, fp
     ed8:	01018289 	smlabbeq	r1, r9, r2, r8
     edc:	13010111 	movwne	r0, #4369	; 0x1111
     ee0:	01220000 			; <UNDEFINED> instruction: 0x01220000
     ee4:	01134901 	tsteq	r3, r1, lsl #18
     ee8:	23000013 	movwcs	r0, #19
     eec:	13490021 	movtne	r0, #36897	; 0x9021
     ef0:	00000b2f 	andeq	r0, r0, pc, lsr #22
     ef4:	03012e24 	movweq	r2, #7716	; 0x1e24
     ef8:	3b0b3a0e 	blcc	2cf738 <__bss_end__+0x2c4768>
     efc:	270b390b 	strcs	r3, [fp, -fp, lsl #18]
     f00:	20134919 	andscs	r4, r3, r9, lsl r9
     f04:	0013010b 	andseq	r0, r3, fp, lsl #2
     f08:	00052500 	andeq	r2, r5, r0, lsl #10
     f0c:	0b3a0e03 	bleq	e84720 <__bss_end__+0xe79750>
     f10:	0b390b3b 	bleq	e43c04 <__bss_end__+0xe38c34>
     f14:	00001349 	andeq	r1, r0, r9, asr #6
     f18:	03000526 	movweq	r0, #1318	; 0x526
     f1c:	3b0b3a08 	blcc	2cf744 <__bss_end__+0x2c4774>
     f20:	490b390b 	stmdbmi	fp, {r0, r1, r3, r8, fp, ip, sp}
     f24:	27000013 	smladcs	r0, r3, r0, r0
     f28:	08030034 	stmdaeq	r3, {r2, r4, r5}
     f2c:	0b3b0b3a 	bleq	ec3c1c <__bss_end__+0xeb8c4c>
     f30:	13490b39 	movtne	r0, #39737	; 0x9b39
     f34:	0b280000 	bleq	a00f3c <__bss_end__+0x9f5f6c>
     f38:	29000001 	stmdbcs	r0, {r0}
     f3c:	0e030034 	mcreq	0, 0, r0, cr3, cr4, {1}
     f40:	0b3b0b3a 	bleq	ec3c30 <__bss_end__+0xeb8c60>
     f44:	13490b39 	movtne	r0, #39737	; 0x9b39
     f48:	2e2a0000 	cdpcs	0, 2, cr0, cr10, cr0, {0}
     f4c:	3a080301 	bcc	201b58 <__bss_end__+0x1f6b88>
     f50:	390b3b0b 	stmdbcc	fp, {r0, r1, r3, r8, r9, fp, ip, sp}
     f54:	4919270b 	ldmdbmi	r9, {r0, r1, r3, r8, r9, sl, sp}
     f58:	010b2013 	tsteq	fp, r3, lsl r0
     f5c:	2b000013 	blcs	fb0 <__code_start__-0x7050>
     f60:	193f012e 	ldmdbne	pc!, {r1, r2, r3, r5, r8}	; <UNPREDICTABLE>
     f64:	0b3a0e03 	bleq	e84778 <__bss_end__+0xe797a8>
     f68:	0b390b3b 	bleq	e43c5c <__bss_end__+0xe38c8c>
     f6c:	01111927 	tsteq	r1, r7, lsr #18
     f70:	18400612 	stmdane	r0, {r1, r4, r9, sl}^
     f74:	01194297 			; <UNDEFINED> instruction: 0x01194297
     f78:	2c000013 	stccs	0, cr0, [r0], {19}
     f7c:	1331012e 	teqne	r1, #-2147483637	; 0x8000000b
     f80:	06120111 			; <UNDEFINED> instruction: 0x06120111
     f84:	42971840 	addsmi	r1, r7, #64, 16	; 0x400000
     f88:	00130119 	andseq	r0, r3, r9, lsl r1
     f8c:	00052d00 	andeq	r2, r5, r0, lsl #26
     f90:	18021331 	stmdane	r2, {r0, r4, r5, r8, r9, ip}
     f94:	052e0000 	streq	r0, [lr, #-0]!
     f98:	1c133100 	ldfnes	f3, [r3], {-0}
     f9c:	2f00000b 	svccs	0x0000000b
     fa0:	1331010b 	teqne	r1, #-1073741822	; 0xc0000002
     fa4:	06120111 			; <UNDEFINED> instruction: 0x06120111
     fa8:	00001301 	andeq	r1, r0, r1, lsl #6
     fac:	3f002e30 	svccc	0x00002e30
     fb0:	6e193c19 	mrcvs	12, 0, r3, cr9, cr9, {0}
     fb4:	3a0e030e 	bcc	381bf4 <__bss_end__+0x376c24>
     fb8:	390b3b0b 	stmdbcc	fp, {r0, r1, r3, r8, r9, fp, ip, sp}
     fbc:	0000000b 	andeq	r0, r0, fp
     fc0:	25011101 	strcs	r1, [r1, #-257]	; 0xfffffeff
     fc4:	030b130e 	movweq	r1, #45838	; 0xb30e
     fc8:	110e1b0e 	tstne	lr, lr, lsl #22
     fcc:	10061201 	andne	r1, r6, r1, lsl #4
     fd0:	02000017 	andeq	r0, r0, #23, 0
     fd4:	0b0b0024 	bleq	2c106c <__bss_end__+0x2b609c>
     fd8:	08030b3e 	stmdaeq	r3, {r1, r2, r3, r4, r5, r8, r9, fp}
     fdc:	24030000 	strcs	r0, [r3], #-0
     fe0:	3e0b0b00 	vmlacc.f64	d0, d11, d0
     fe4:	000e030b 	andeq	r0, lr, fp, lsl #6
     fe8:	01150400 	tsteq	r5, r0, lsl #8
     fec:	13491927 	movtne	r1, #39207	; 0x9927
     ff0:	00001301 	andeq	r1, r0, r1, lsl #6
     ff4:	49000505 	stmdbmi	r0, {r0, r2, r8, sl}
     ff8:	06000013 			; <UNDEFINED> instruction: 0x06000013
     ffc:	0e030034 	mcreq	0, 0, r0, cr3, cr4, {1}
    1000:	0b3b0b3a 	bleq	ec3cf0 <__bss_end__+0xeb8d20>
    1004:	13490b39 	movtne	r0, #39737	; 0x9b39
    1008:	193c193f 	ldmdbne	ip!, {r0, r1, r2, r3, r4, r5, r8, fp, ip}
    100c:	0f070000 	svceq	0x00070000
    1010:	490b0b00 	stmdbmi	fp, {r8, r9, fp}
    1014:	08000013 	stmdaeq	r0, {r0, r1, r4}
    1018:	13490026 	movtne	r0, #36902	; 0x9026
    101c:	2e090000 	cdpcs	0, 0, cr0, cr9, cr0, {0}
    1020:	03193f01 	tsteq	r9, #1, 30
    1024:	3b0b3a0e 	blcc	2cf864 <__bss_end__+0x2c4894>
    1028:	270b390b 	strcs	r3, [fp, -fp, lsl #18]
    102c:	19018719 	stmdbne	r1, {r0, r3, r4, r8, r9, sl, pc}
    1030:	06120111 			; <UNDEFINED> instruction: 0x06120111
    1034:	42971840 	addsmi	r1, r7, #64, 16	; 0x400000
    1038:	00130119 	andseq	r0, r3, r9, lsl r1
    103c:	82890a00 	addhi	r0, r9, #0, 20
    1040:	01110101 	tsteq	r1, r1, lsl #2
    1044:	00001301 	andeq	r1, r0, r1, lsl #6
    1048:	01828a0b 	orreq	r8, r2, fp, lsl #20
    104c:	91180200 	tstls	r8, r0, lsl #4
    1050:	00001842 	andeq	r1, r0, r2, asr #16
    1054:	0182890c 	orreq	r8, r2, ip, lsl #18
    1058:	31011100 	mrscc	r1, (UNDEF: 17)
    105c:	0d000013 	stceq	0, cr0, [r0, #-76]	; 0xffffffb4
    1060:	01018289 	smlabbeq	r1, r9, r2, r8
    1064:	13310111 	teqne	r1, #1073741828	; 0x40000004
    1068:	00001301 	andeq	r1, r0, r1, lsl #6
    106c:	3f002e0e 	svccc	0x00002e0e
    1070:	6e193c19 	mrcvs	12, 0, r3, cr9, cr9, {0}
    1074:	3a0e030e 	bcc	381cb4 <__bss_end__+0x376ce4>
    1078:	390b3b0b 	stmdbcc	fp, {r0, r1, r3, r8, r9, fp, ip, sp}
    107c:	0000000b 	andeq	r0, r0, fp
    1080:	25011101 	strcs	r1, [r1, #-257]	; 0xfffffeff
    1084:	030b130e 	movweq	r1, #45838	; 0xb30e
    1088:	110e1b0e 	tstne	lr, lr, lsl #22
    108c:	10061201 	andne	r1, r6, r1, lsl #4
    1090:	02000017 	andeq	r0, r0, #23, 0
    1094:	0b0b0024 	bleq	2c112c <__bss_end__+0x2b615c>
    1098:	08030b3e 	stmdaeq	r3, {r1, r2, r3, r4, r5, r8, r9, fp}
    109c:	24030000 	strcs	r0, [r3], #-0
    10a0:	3e0b0b00 	vmlacc.f64	d0, d11, d0
    10a4:	000e030b 	andeq	r0, lr, fp, lsl #6
    10a8:	01150400 	tsteq	r5, r0, lsl #8
    10ac:	13491927 	movtne	r1, #39207	; 0x9927
    10b0:	00001301 	andeq	r1, r0, r1, lsl #6
    10b4:	49000505 	stmdbmi	r0, {r0, r2, r8, sl}
    10b8:	06000013 			; <UNDEFINED> instruction: 0x06000013
    10bc:	0e030034 	mcreq	0, 0, r0, cr3, cr4, {1}
    10c0:	0b3b0b3a 	bleq	ec3db0 <__bss_end__+0xeb8de0>
    10c4:	13490b39 	movtne	r0, #39737	; 0x9b39
    10c8:	193c193f 	ldmdbne	ip!, {r0, r1, r2, r3, r4, r5, r8, fp, ip}
    10cc:	0f070000 	svceq	0x00070000
    10d0:	490b0b00 	stmdbmi	fp, {r8, r9, fp}
    10d4:	08000013 	stmdaeq	r0, {r0, r1, r4}
    10d8:	13490026 	movtne	r0, #36902	; 0x9026
    10dc:	2e090000 	cdpcs	0, 0, cr0, cr9, cr0, {0}
    10e0:	03193f01 	tsteq	r9, #1, 30
    10e4:	3b0b3a0e 	blcc	2cf924 <__bss_end__+0x2c4954>
    10e8:	110b390b 	tstne	fp, fp, lsl #18
    10ec:	40061201 	andmi	r1, r6, r1, lsl #4
    10f0:	19429718 	stmdbne	r2, {r3, r4, r8, r9, sl, ip, pc}^
    10f4:	00001301 	andeq	r1, r0, r1, lsl #6
    10f8:	3f002e0a 	svccc	0x00002e0a
    10fc:	3a0e0319 	bcc	381d68 <__bss_end__+0x376d98>
    1100:	390b3b0b 	stmdbcc	fp, {r0, r1, r3, r8, r9, fp, ip, sp}
    1104:	3c19270b 	ldccc	7, cr2, [r9], {11}
    1108:	0b000019 	bleq	1174 <__code_start__-0x6e8c>
    110c:	08030034 	stmdaeq	r3, {r2, r4, r5}
    1110:	0b3b0b3a 	bleq	ec3e00 <__bss_end__+0xeb8e30>
    1114:	13490b39 	movtne	r0, #39737	; 0x9b39
    1118:	42b71702 	adcsmi	r1, r7, #524288	; 0x80000
    111c:	0c000017 	stceq	0, cr0, [r0], {23}
    1120:	0e030034 	mcreq	0, 0, r0, cr3, cr4, {1}
    1124:	0b3b0b3a 	bleq	ec3e14 <__bss_end__+0xeb8e44>
    1128:	13490b39 	movtne	r0, #39737	; 0x9b39
    112c:	0b0d0000 	bleq	341134 <__bss_end__+0x336164>
    1130:	12011101 	andne	r1, r1, #1073741824	; 0x40000000
    1134:	00130106 	andseq	r0, r3, r6, lsl #2
    1138:	82890e00 	addhi	r0, r9, #0, 28
    113c:	01110001 	tsteq	r1, r1
    1140:	00001331 	andeq	r1, r0, r1, lsr r3
    1144:	3f002e0f 	svccc	0x00002e0f
    1148:	6e193c19 	mrcvs	12, 0, r3, cr9, cr9, {0}
    114c:	3a0e030e 	bcc	381d8c <__bss_end__+0x376dbc>
    1150:	39053b0b 	stmdbcc	r5, {r0, r1, r3, r8, r9, fp, ip, sp}
    1154:	1000000b 	andne	r0, r0, fp
    1158:	193f002e 	ldmdbne	pc!, {r1, r2, r3, r5}	; <UNPREDICTABLE>
    115c:	0e6e193c 			; <UNDEFINED> instruction: 0x0e6e193c
    1160:	0b3a0e03 	bleq	e84974 <__bss_end__+0xe799a4>
    1164:	0b390b3b 	bleq	e43e58 <__bss_end__+0xe38e88>
    1168:	01000000 	mrseq	r0, (UNDEF: 0)
    116c:	0e250111 	mcreq	1, 1, r0, cr5, cr1, {0}
    1170:	0e030b13 	vmoveq.32	d3[0], r0
    1174:	01110e1b 	tsteq	r1, fp, lsl lr
    1178:	17100612 			; <UNDEFINED> instruction: 0x17100612
    117c:	24020000 	strcs	r0, [r2], #-0
    1180:	3e0b0b00 	vmlacc.f64	d0, d11, d0
    1184:	0008030b 	andeq	r0, r8, fp, lsl #6
    1188:	00240300 	eoreq	r0, r4, r0, lsl #6
    118c:	0b3e0b0b 	bleq	f83dc0 <__bss_end__+0xf78df0>
    1190:	00000e03 	andeq	r0, r0, r3, lsl #28
    1194:	27011504 	strcs	r1, [r1, -r4, lsl #10]
    1198:	01134919 	tsteq	r3, r9, lsl r9
    119c:	05000013 	streq	r0, [r0, #-19]	; 0xffffffed
    11a0:	13490005 	movtne	r0, #36869	; 0x9005
    11a4:	34060000 	strcc	r0, [r6], #-0
    11a8:	3a0e0300 	bcc	381db0 <__bss_end__+0x376de0>
    11ac:	390b3b0b 	stmdbcc	fp, {r0, r1, r3, r8, r9, fp, ip, sp}
    11b0:	3f13490b 	svccc	0x0013490b
    11b4:	00193c19 	andseq	r3, r9, r9, lsl ip
    11b8:	000f0700 	andeq	r0, pc, r0, lsl #14
    11bc:	13490b0b 	movtne	r0, #39691	; 0x9b0b
    11c0:	26080000 	strcs	r0, [r8], -r0
    11c4:	00134900 	andseq	r4, r3, r0, lsl #18
    11c8:	002e0900 	eoreq	r0, lr, r0, lsl #18
    11cc:	0e03193f 			; <UNDEFINED> instruction: 0x0e03193f
    11d0:	0b3b0b3a 	bleq	ec3ec0 <__bss_end__+0xeb8ef0>
    11d4:	19270b39 	stmdbne	r7!, {r0, r3, r4, r5, r8, r9, fp}
    11d8:	06120111 			; <UNDEFINED> instruction: 0x06120111
    11dc:	42971840 	addsmi	r1, r7, #64, 16	; 0x400000
    11e0:	00000019 	andeq	r0, r0, r9, lsl r0
    11e4:	25011101 	strcs	r1, [r1, #-257]	; 0xfffffeff
    11e8:	030b130e 	movweq	r1, #45838	; 0xb30e
    11ec:	550e1b0e 	strpl	r1, [lr, #-2830]	; 0xfffff4f2
    11f0:	10011117 	andne	r1, r1, r7, lsl r1
    11f4:	02000017 	andeq	r0, r0, #23, 0
    11f8:	0b0b0024 	bleq	2c1290 <__bss_end__+0x2b62c0>
    11fc:	08030b3e 	stmdaeq	r3, {r1, r2, r3, r4, r5, r8, r9, fp}
    1200:	26030000 	strcs	r0, [r3], -r0
    1204:	00134900 	andseq	r4, r3, r0, lsl #18
    1208:	00240400 	eoreq	r0, r4, r0, lsl #8
    120c:	0b3e0b0b 	bleq	f83e40 <__bss_end__+0xf78e70>
    1210:	00000e03 	andeq	r0, r0, r3, lsl #28
    1214:	27011505 	strcs	r1, [r1, -r5, lsl #10]
    1218:	01134919 	tsteq	r3, r9, lsl r9
    121c:	06000013 			; <UNDEFINED> instruction: 0x06000013
    1220:	13490005 	movtne	r0, #36869	; 0x9005
    1224:	34070000 	strcc	r0, [r7], #-0
    1228:	3a0e0300 	bcc	381e30 <__bss_end__+0x376e60>
    122c:	390b3b0b 	stmdbcc	fp, {r0, r1, r3, r8, r9, fp, ip, sp}
    1230:	3f13490b 	svccc	0x0013490b
    1234:	00193c19 	andseq	r3, r9, r9, lsl ip
    1238:	000f0800 	andeq	r0, pc, r0, lsl #16
    123c:	13490b0b 	movtne	r0, #39691	; 0x9b0b
    1240:	34090000 	strcc	r0, [r9], #-0
    1244:	3a0e0300 	bcc	381e4c <__bss_end__+0x376e7c>
    1248:	390b3b0b 	stmdbcc	fp, {r0, r1, r3, r8, r9, fp, ip, sp}
    124c:	0013490b 	andseq	r4, r3, fp, lsl #18
    1250:	012e0a00 			; <UNDEFINED> instruction: 0x012e0a00
    1254:	0e03193f 			; <UNDEFINED> instruction: 0x0e03193f
    1258:	0b3b0b3a 	bleq	ec3f48 <__bss_end__+0xeb8f78>
    125c:	19270b39 	stmdbne	r7!, {r0, r3, r4, r5, r8, r9, fp}
    1260:	11190187 	tstne	r9, r7, lsl #3
    1264:	40061201 	andmi	r1, r6, r1, lsl #4
    1268:	19429718 	stmdbne	r2, {r3, r4, r8, r9, sl, ip, pc}^
    126c:	00001301 	andeq	r1, r0, r1, lsl #6
    1270:	0300340b 	movweq	r3, #1035	; 0x40b
    1274:	3b0b3a0e 	blcc	2cfab4 <__bss_end__+0x2c4ae4>
    1278:	490b390b 	stmdbmi	fp, {r0, r1, r3, r8, fp, ip, sp}
    127c:	00061c13 	andeq	r1, r6, r3, lsl ip
    1280:	00340c00 	eorseq	r0, r4, r0, lsl #24
    1284:	0b3a0e03 	bleq	e84a98 <__bss_end__+0xe79ac8>
    1288:	0b390b3b 	bleq	e43f7c <__bss_end__+0xe38fac>
    128c:	0b1c1349 	bleq	705fb8 <__bss_end__+0x6fafe8>
    1290:	1d0d0000 	stcne	0, cr0, [sp, #-0]
    1294:	52133101 	andspl	r3, r3, #1073741824	; 0x40000000
    1298:	0b42b801 	bleq	10af2a4 <__bss_end__+0x10a42d4>
    129c:	0b581755 	bleq	1606ff8 <__bss_end__+0x15fc028>
    12a0:	0b570b59 	bleq	15c400c <__bss_end__+0x15b903c>
    12a4:	00001301 	andeq	r1, r0, r1, lsl #6
    12a8:	55010b0e 	strpl	r0, [r1, #-2830]	; 0xfffff4f2
    12ac:	0f000017 	svceq	0x00000017
    12b0:	13310034 	teqne	r1, #52, 0	; 0x34
    12b4:	42b71702 	adcsmi	r1, r7, #524288	; 0x80000
    12b8:	10000017 	andne	r0, r0, r7, lsl r0
    12bc:	1331011d 	teqne	r1, #1073741831	; 0x40000007
    12c0:	42b80152 	adcsmi	r0, r8, #-2147483628	; 0x80000014
    12c4:	1201110b 	andne	r1, r1, #-1073741822	; 0xc0000002
    12c8:	590b5806 	stmdbpl	fp, {r1, r2, fp, ip, lr}
    12cc:	010b570b 	tsteq	fp, fp, lsl #14
    12d0:	11000013 	tstne	r0, r3, lsl r0
    12d4:	00018289 	andeq	r8, r1, r9, lsl #5
    12d8:	13310111 	teqne	r1, #1073741828	; 0x40000004
    12dc:	89120000 	ldmdbhi	r2, {}	; <UNPREDICTABLE>
    12e0:	11010182 	smlabbne	r1, r2, r1, r0
    12e4:	01133101 	tsteq	r3, r1, lsl #2
    12e8:	13000013 	movwne	r0, #19
    12ec:	0001828a 	andeq	r8, r1, sl, lsl #5
    12f0:	42911802 	addsmi	r1, r1, #131072	; 0x20000
    12f4:	14000018 	strne	r0, [r0], #-24	; 0xffffffe8
    12f8:	01018289 	smlabbeq	r1, r9, r2, r8
    12fc:	13310111 	teqne	r1, #1073741828	; 0x40000004
    1300:	2e150000 	cdpcs	0, 1, cr0, cr5, cr0, {0}
    1304:	03193f01 	tsteq	r9, #1, 30
    1308:	3b0b3a0e 	blcc	2cfb48 <__bss_end__+0x2c4b78>
    130c:	270b390b 	strcs	r3, [fp, -fp, lsl #18]
    1310:	010b2019 	tsteq	fp, r9, lsl r0
    1314:	16000013 			; <UNDEFINED> instruction: 0x16000013
    1318:	193f012e 	ldmdbne	pc!, {r1, r2, r3, r5, r8}	; <UNPREDICTABLE>
    131c:	0b3a0e03 	bleq	e84b30 <__bss_end__+0xe79b60>
    1320:	0b390b3b 	bleq	e44014 <__bss_end__+0xe39044>
    1324:	13491927 	movtne	r1, #39207	; 0x9927
    1328:	13010b20 	movwne	r0, #6944	; 0x1b20
    132c:	2e170000 	cdpcs	0, 1, cr0, cr7, cr0, {0}
    1330:	11133101 	tstne	r3, r1, lsl #2
    1334:	40061201 	andmi	r1, r6, r1, lsl #4
    1338:	19429718 	stmdbne	r2, {r3, r4, r8, r9, sl, ip, pc}^
    133c:	00001301 	andeq	r1, r0, r1, lsl #6
    1340:	3f002e18 	svccc	0x00002e18
    1344:	6e193c19 	mrcvs	12, 0, r3, cr9, cr9, {0}
    1348:	3a0e030e 	bcc	381f88 <__bss_end__+0x376fb8>
    134c:	39053b0b 	stmdbcc	r5, {r0, r1, r3, r8, r9, fp, ip, sp}
    1350:	1900000b 	stmdbne	r0, {r0, r1, r3}
    1354:	193f002e 	ldmdbne	pc!, {r1, r2, r3, r5}	; <UNPREDICTABLE>
    1358:	0e6e193c 			; <UNDEFINED> instruction: 0x0e6e193c
    135c:	0b3a0e03 	bleq	e84b70 <__bss_end__+0xe79ba0>
    1360:	0b390b3b 	bleq	e44054 <__bss_end__+0xe39084>
    1364:	01000000 	mrseq	r0, (UNDEF: 0)
    1368:	0e250111 	mcreq	1, 1, r0, cr5, cr1, {0}
    136c:	0e030b13 	vmoveq.32	d3[0], r0
    1370:	01110e1b 	tsteq	r1, fp, lsl lr
    1374:	17100612 			; <UNDEFINED> instruction: 0x17100612
    1378:	24020000 	strcs	r0, [r2], #-0
    137c:	3e0b0b00 	vmlacc.f64	d0, d11, d0
    1380:	0008030b 	andeq	r0, r8, fp, lsl #6
    1384:	00240300 	eoreq	r0, r4, r0, lsl #6
    1388:	0b3e0b0b 	bleq	f83fbc <__bss_end__+0xf78fec>
    138c:	00000e03 	andeq	r0, r0, r3, lsl #28
    1390:	27011504 	strcs	r1, [r1, -r4, lsl #10]
    1394:	01134919 	tsteq	r3, r9, lsl r9
    1398:	05000013 	streq	r0, [r0, #-19]	; 0xffffffed
    139c:	13490005 	movtne	r0, #36869	; 0x9005
    13a0:	34060000 	strcc	r0, [r6], #-0
    13a4:	3a0e0300 	bcc	381fac <__bss_end__+0x376fdc>
    13a8:	390b3b0b 	stmdbcc	fp, {r0, r1, r3, r8, r9, fp, ip, sp}
    13ac:	3f13490b 	svccc	0x0013490b
    13b0:	00193c19 	andseq	r3, r9, r9, lsl ip
    13b4:	000f0700 	andeq	r0, pc, r0, lsl #14
    13b8:	13490b0b 	movtne	r0, #39691	; 0x9b0b
    13bc:	26080000 	strcs	r0, [r8], -r0
    13c0:	00134900 	andseq	r4, r3, r0, lsl #18
    13c4:	012e0900 			; <UNDEFINED> instruction: 0x012e0900
    13c8:	0e03193f 			; <UNDEFINED> instruction: 0x0e03193f
    13cc:	0b3b0b3a 	bleq	ec40bc <__bss_end__+0xeb90ec>
    13d0:	19270b39 	stmdbne	r7!, {r0, r3, r4, r5, r8, r9, fp}
    13d4:	06120111 			; <UNDEFINED> instruction: 0x06120111
    13d8:	42971840 	addsmi	r1, r7, #64, 16	; 0x400000
    13dc:	00130119 	andseq	r0, r3, r9, lsl r1
    13e0:	00050a00 	andeq	r0, r5, r0, lsl #20
    13e4:	0b3a0803 	bleq	e833f8 <__bss_end__+0xe78428>
    13e8:	0b390b3b 	bleq	e440dc <__bss_end__+0xe3910c>
    13ec:	17021349 	strne	r1, [r2, -r9, asr #6]
    13f0:	001742b7 			; <UNDEFINED> instruction: 0x001742b7
    13f4:	011d0b00 	tsteq	sp, r0, lsl #22
    13f8:	01521331 	cmpeq	r2, r1, lsr r3
    13fc:	550b42b8 	strpl	r4, [fp, #-696]	; 0xfffffd48
    1400:	590b5817 	stmdbpl	fp, {r0, r1, r2, r4, fp, ip, lr}
    1404:	000b570b 	andeq	r5, fp, fp, lsl #14
    1408:	00050c00 	andeq	r0, r5, r0, lsl #24
    140c:	17021331 	smladxne	r2, r1, r3, r1
    1410:	001742b7 			; <UNDEFINED> instruction: 0x001742b7
    1414:	011d0d00 	tsteq	sp, r0, lsl #26
    1418:	01521331 	cmpeq	r2, r1, lsr r3
    141c:	110b42b8 			; <UNDEFINED> instruction: 0x110b42b8
    1420:	58061201 	stmdapl	r6, {r0, r9, ip}
    1424:	570b590b 	strpl	r5, [fp, -fp, lsl #18]
    1428:	0e00000b 	cdpeq	0, 0, cr0, cr0, cr11, {0}
    142c:	13310034 	teqne	r1, #52, 0	; 0x34
    1430:	42b71702 	adcsmi	r1, r7, #524288	; 0x80000
    1434:	0f000017 	svceq	0x00000017
    1438:	1331011d 	teqne	r1, #1073741831	; 0x40000007
    143c:	42b80152 	adcsmi	r0, r8, #-2147483628	; 0x80000014
    1440:	1201110b 	andne	r1, r1, #-1073741822	; 0xc0000002
    1444:	590b5806 	stmdbpl	fp, {r1, r2, fp, ip, lr}
    1448:	010b570b 	tsteq	fp, fp, lsl #14
    144c:	10000013 	andne	r0, r0, r3, lsl r0
    1450:	01018289 	smlabbeq	r1, r9, r2, r8
    1454:	13310111 	teqne	r1, #1073741828	; 0x40000004
    1458:	8a110000 	bhi	441460 <__bss_end__+0x436490>
    145c:	02000182 	andeq	r0, r0, #-2147483616	; 0x80000020
    1460:	18429118 	stmdane	r2, {r3, r4, r8, ip, pc}^
    1464:	89120000 	ldmdbhi	r2, {}	; <UNPREDICTABLE>
    1468:	11000182 	smlabbne	r0, r2, r1, r0
    146c:	00133101 	andseq	r3, r3, r1, lsl #2
    1470:	010b1300 	mrseq	r1, (UNDEF: 59)
    1474:	17551331 	smmlarne	r5, r1, r3, r1
    1478:	34140000 	ldrcc	r0, [r4], #-0
    147c:	00133100 	andseq	r3, r3, r0, lsl #2
    1480:	010b1500 	tsteq	fp, r0, lsl #10
    1484:	00001755 	andeq	r1, r0, r5, asr r7
    1488:	31011d16 	tstcc	r1, r6, lsl sp
    148c:	b8015213 	stmdalt	r1, {r0, r1, r4, r9, ip, lr}
    1490:	17550b42 	ldrbne	r0, [r5, -r2, asr #22]
    1494:	0b590b58 	bleq	16441fc <__bss_end__+0x163922c>
    1498:	13010b57 	movwne	r0, #6999	; 0x1b57
    149c:	2e170000 	cdpcs	0, 1, cr0, cr7, cr0, {0}
    14a0:	03193f01 	tsteq	r9, #1, 30
    14a4:	3b0b3a0e 	blcc	2cfce4 <__bss_end__+0x2c4d14>
    14a8:	270b390b 	strcs	r3, [fp, -fp, lsl #18]
    14ac:	010b2019 	tsteq	fp, r9, lsl r0
    14b0:	18000013 	stmdane	r0, {r0, r1, r4}
    14b4:	08030005 	stmdaeq	r3, {r0, r2}
    14b8:	0b3b0b3a 	bleq	ec41a8 <__bss_end__+0xeb91d8>
    14bc:	13490b39 	movtne	r0, #39737	; 0x9b39
    14c0:	34190000 	ldrcc	r0, [r9], #-0
    14c4:	3a080300 	bcc	2020cc <__bss_end__+0x1f70fc>
    14c8:	390b3b0b 	stmdbcc	fp, {r0, r1, r3, r8, r9, fp, ip, sp}
    14cc:	0013490b 	andseq	r4, r3, fp, lsl #18
    14d0:	010b1a00 	tsteq	fp, r0, lsl #20
    14d4:	2e1b0000 	cdpcs	0, 1, cr0, cr11, cr0, {0}
    14d8:	03193f01 	tsteq	r9, #1, 30
    14dc:	3b0b3a0e 	blcc	2cfd1c <__bss_end__+0x2c4d4c>
    14e0:	270b390b 	strcs	r3, [fp, -fp, lsl #18]
    14e4:	20134919 	andscs	r4, r3, r9, lsl r9
    14e8:	0013010b 	andseq	r0, r3, fp, lsl #2
    14ec:	002e1c00 	eoreq	r1, lr, r0, lsl #24
    14f0:	0e03193f 			; <UNDEFINED> instruction: 0x0e03193f
    14f4:	0b3b0b3a 	bleq	ec41e4 <__bss_end__+0xeb9214>
    14f8:	19270b39 	stmdbne	r7!, {r0, r3, r4, r5, r8, r9, fp}
    14fc:	0b201349 	bleq	806228 <__bss_end__+0x7fb258>
    1500:	2e1d0000 	cdpcs	0, 1, cr0, cr13, cr0, {0}
    1504:	11133101 	tstne	r3, r1, lsl #2
    1508:	40061201 	andmi	r1, r6, r1, lsl #4
    150c:	19429718 	stmdbne	r2, {r3, r4, r8, r9, sl, ip, pc}^
    1510:	00001301 	andeq	r1, r0, r1, lsl #6
    1514:	0182891e 	orreq	r8, r2, lr, lsl r9
    1518:	95011101 	strls	r1, [r1, #-257]	; 0xfffffeff
    151c:	13311942 	teqne	r1, #1081344	; 0x108000
    1520:	2e1f0000 	cdpcs	0, 1, cr0, cr15, cr0, {0}
    1524:	3c193f00 	ldccc	15, cr3, [r9], {-0}
    1528:	030e6e19 	movweq	r6, #60953	; 0xee19
    152c:	3b0b3a0e 	blcc	2cfd6c <__bss_end__+0x2c4d9c>
    1530:	000b390b 	andeq	r3, fp, fp, lsl #18
    1534:	11010000 	mrsne	r0, (UNDEF: 1)
    1538:	130e2501 	movwne	r2, #58625	; 0xe501
    153c:	1b0e030b 	blne	382170 <__bss_end__+0x3771a0>
    1540:	1201110e 	andne	r1, r1, #-2147483645	; 0x80000003
    1544:	00171006 	andseq	r1, r7, r6
    1548:	00240200 	eoreq	r0, r4, r0, lsl #4
    154c:	0b3e0b0b 	bleq	f84180 <__bss_end__+0xf791b0>
    1550:	00000803 	andeq	r0, r0, r3, lsl #16
    1554:	0b002403 	bleq	a568 <__FUNCTION__.4077+0xd8>
    1558:	030b3e0b 	movweq	r3, #48651	; 0xbe0b
    155c:	0400000e 	streq	r0, [r0], #-14
    1560:	13490035 	movtne	r0, #36917	; 0x9035
    1564:	16050000 	strne	r0, [r5], -r0
    1568:	3a0e0300 	bcc	382170 <__bss_end__+0x3771a0>
    156c:	390b3b0b 	stmdbcc	fp, {r0, r1, r3, r8, r9, fp, ip, sp}
    1570:	0013490b 	andseq	r4, r3, fp, lsl #18
    1574:	01040600 	tsteq	r4, r0, lsl #12
    1578:	0b0b0b3e 	bleq	2c4278 <__bss_end__+0x2b92a8>
    157c:	0b3a1349 	bleq	e862a8 <__bss_end__+0xe7b2d8>
    1580:	0b390b3b 	bleq	e44274 <__bss_end__+0xe392a4>
    1584:	00001301 	andeq	r1, r0, r1, lsl #6
    1588:	03002807 	movweq	r2, #2055	; 0x807
    158c:	000b1c0e 	andeq	r1, fp, lr, lsl #24
    1590:	01130800 	tsteq	r3, r0, lsl #16
    1594:	0b0b0e03 	bleq	2c4da8 <__bss_end__+0x2b9dd8>
    1598:	0b3b0b3a 	bleq	ec4288 <__bss_end__+0xeb92b8>
    159c:	13010b39 	movwne	r0, #6969	; 0x1b39
    15a0:	0d090000 	stceq	0, cr0, [r9, #-0]
    15a4:	3a080300 	bcc	2021ac <__bss_end__+0x1f71dc>
    15a8:	390b3b0b 	stmdbcc	fp, {r0, r1, r3, r8, r9, fp, ip, sp}
    15ac:	3813490b 	ldmdacc	r3, {r0, r1, r3, r8, fp, lr}
    15b0:	0a00000b 	beq	15e4 <__code_start__-0x6a1c>
    15b4:	0e03000d 	cdpeq	0, 0, cr0, cr3, cr13, {0}
    15b8:	0b3b0b3a 	bleq	ec42a8 <__bss_end__+0xeb92d8>
    15bc:	13490b39 	movtne	r0, #39737	; 0x9b39
    15c0:	00000b38 	andeq	r0, r0, r8, lsr fp
    15c4:	0300340b 	movweq	r3, #1035	; 0x40b
    15c8:	3b0b3a0e 	blcc	2cfe08 <__bss_end__+0x2c4e38>
    15cc:	490b390b 	stmdbmi	fp, {r0, r1, r3, r8, fp, ip, sp}
    15d0:	00061c13 	andeq	r1, r6, r3, lsl ip
    15d4:	000f0c00 	andeq	r0, pc, r0, lsl #24
    15d8:	13490b0b 	movtne	r0, #39691	; 0x9b0b
    15dc:	260d0000 	strcs	r0, [sp], -r0
    15e0:	00134900 	andseq	r4, r3, r0, lsl #18
    15e4:	012e0e00 			; <UNDEFINED> instruction: 0x012e0e00
    15e8:	0e03193f 			; <UNDEFINED> instruction: 0x0e03193f
    15ec:	0b3b0b3a 	bleq	ec42dc <__bss_end__+0xeb930c>
    15f0:	19270b39 	stmdbne	r7!, {r0, r3, r4, r5, r8, r9, fp}
    15f4:	06120111 			; <UNDEFINED> instruction: 0x06120111
    15f8:	42971840 	addsmi	r1, r7, #64, 16	; 0x400000
    15fc:	00130119 	andseq	r0, r3, r9, lsl r1
    1600:	82890f00 	addhi	r0, r9, #0, 30
    1604:	01110001 	tsteq	r1, r1
    1608:	00001331 	andeq	r1, r0, r1, lsr r3
    160c:	3f012e10 	svccc	0x00012e10
    1610:	3a0e0319 	bcc	38227c <__bss_end__+0x3772ac>
    1614:	390b3b0b 	stmdbcc	fp, {r0, r1, r3, r8, r9, fp, ip, sp}
    1618:	4919270b 	ldmdbmi	r9, {r0, r1, r3, r8, r9, sl, sp}
    161c:	12011113 	andne	r1, r1, #-1073741820	; 0xc0000004
    1620:	97184006 	ldrls	r4, [r8, -r6]
    1624:	13011942 	movwne	r1, #6466	; 0x1942
    1628:	89110000 	ldmdbhi	r1, {}	; <UNPREDICTABLE>
    162c:	11010182 	smlabbne	r1, r2, r1, r0
    1630:	00133101 	andseq	r3, r3, r1, lsl #2
    1634:	828a1200 	addhi	r1, sl, #0, 4
    1638:	18020001 	stmdane	r2, {r0}
    163c:	00184291 	mulseq	r8, r1, r2
    1640:	00051300 	andeq	r1, r5, r0, lsl #6
    1644:	0b3a0803 	bleq	e83658 <__bss_end__+0xe78688>
    1648:	0b390b3b 	bleq	e4433c <__bss_end__+0xe3936c>
    164c:	17021349 	strne	r1, [r2, -r9, asr #6]
    1650:	001742b7 			; <UNDEFINED> instruction: 0x001742b7
    1654:	82891400 	addhi	r1, r9, #0, 8
    1658:	01110101 	tsteq	r1, r1, lsl #2
    165c:	13011331 	movwne	r1, #4913	; 0x1331
    1660:	34150000 	ldrcc	r0, [r5], #-0
    1664:	3a080300 	bcc	20226c <__bss_end__+0x1f729c>
    1668:	390b3b0b 	stmdbcc	fp, {r0, r1, r3, r8, r9, fp, ip, sp}
    166c:	0213490b 	andseq	r4, r3, #180224	; 0x2c000
    1670:	1742b717 	smlaldne	fp, r2, r7, r7
    1674:	34160000 	ldrcc	r0, [r6], #-0
    1678:	3a0e0300 	bcc	382280 <__bss_end__+0x3772b0>
    167c:	390b3b0b 	stmdbcc	fp, {r0, r1, r3, r8, r9, fp, ip, sp}
    1680:	1c13490b 			; <UNDEFINED> instruction: 0x1c13490b
    1684:	17000005 	strne	r0, [r0, -r5]
    1688:	0e03012e 	adfeqsp	f0, f3, #0.5
    168c:	0b3b0b3a 	bleq	ec437c <__bss_end__+0xeb93ac>
    1690:	19270b39 	stmdbne	r7!, {r0, r3, r4, r5, r8, r9, fp}
    1694:	06120111 			; <UNDEFINED> instruction: 0x06120111
    1698:	42971840 	addsmi	r1, r7, #64, 16	; 0x400000
    169c:	00130119 	andseq	r0, r3, r9, lsl r1
    16a0:	00051800 	andeq	r1, r5, r0, lsl #16
    16a4:	0b3a0e03 	bleq	e84eb8 <__bss_end__+0xe79ee8>
    16a8:	0b390b3b 	bleq	e4439c <__bss_end__+0xe393cc>
    16ac:	17021349 	strne	r1, [r2, -r9, asr #6]
    16b0:	001742b7 			; <UNDEFINED> instruction: 0x001742b7
    16b4:	00351900 	eorseq	r1, r5, r0, lsl #18
    16b8:	2e1a0000 	cdpcs	0, 1, cr0, cr10, cr0, {0}
    16bc:	3c193f00 	ldccc	15, cr3, [r9], {-0}
    16c0:	030e6e19 	movweq	r6, #60953	; 0xee19
    16c4:	3b0b3a0e 	blcc	2cff04 <__bss_end__+0x2c4f34>
    16c8:	000b390b 	andeq	r3, fp, fp, lsl #18
    16cc:	11010000 	mrsne	r0, (UNDEF: 1)
    16d0:	130e2501 	movwne	r2, #58625	; 0xe501
    16d4:	1b0e030b 	blne	382308 <__bss_end__+0x377338>
    16d8:	1201110e 	andne	r1, r1, #-2147483645	; 0x80000003
    16dc:	00171006 	andseq	r1, r7, r6
    16e0:	00240200 	eoreq	r0, r4, r0, lsl #4
    16e4:	0b3e0b0b 	bleq	f84318 <__bss_end__+0xf79348>
    16e8:	00000803 	andeq	r0, r0, r3, lsl #16
    16ec:	0b002403 	bleq	a700 <__FUNCTION__.4077+0x270>
    16f0:	030b3e0b 	movweq	r3, #48651	; 0xbe0b
    16f4:	0400000e 	streq	r0, [r0], #-14
    16f8:	0e030016 	mcreq	0, 0, r0, cr3, cr6, {0}
    16fc:	0b3b0b3a 	bleq	ec43ec <__bss_end__+0xeb941c>
    1700:	13490b39 	movtne	r0, #39737	; 0x9b39
    1704:	26050000 	strcs	r0, [r5], -r0
    1708:	00134900 	andseq	r4, r3, r0, lsl #18
    170c:	000f0600 	andeq	r0, pc, r0, lsl #12
    1710:	00000b0b 	andeq	r0, r0, fp, lsl #22
    1714:	3e010407 	cdpcc	4, 0, cr0, cr1, cr7, {0}
    1718:	490b0b0b 	stmdbmi	fp, {r0, r1, r3, r8, r9, fp}
    171c:	3b0b3a13 	blcc	2cff70 <__bss_end__+0x2c4fa0>
    1720:	010b390b 	tsteq	fp, fp, lsl #18
    1724:	08000013 	stmdaeq	r0, {r0, r1, r4}
    1728:	0e030028 	cdpeq	0, 0, cr0, cr3, cr8, {1}
    172c:	0000061c 	andeq	r0, r0, ip, lsl r6
    1730:	03003409 	movweq	r3, #1033	; 0x409
    1734:	3b0b3a0e 	blcc	2cff74 <__bss_end__+0x2c4fa4>
    1738:	490b390b 	stmdbmi	fp, {r0, r1, r3, r8, fp, ip, sp}
    173c:	3c193f13 	ldccc	15, cr3, [r9], {19}
    1740:	0a000019 	beq	17ac <__code_start__-0x6854>
    1744:	0e030034 	mcreq	0, 0, r0, cr3, cr4, {1}
    1748:	0b3b0b3a 	bleq	ec4438 <__bss_end__+0xeb9468>
    174c:	13490b39 	movtne	r0, #39737	; 0x9b39
    1750:	00001802 	andeq	r1, r0, r2, lsl #16
    1754:	0b000f0b 	bleq	5388 <__code_start__-0x2c78>
    1758:	0013490b 	andseq	r4, r3, fp, lsl #18
    175c:	012e0c00 			; <UNDEFINED> instruction: 0x012e0c00
    1760:	0e03193f 			; <UNDEFINED> instruction: 0x0e03193f
    1764:	0b3b0b3a 	bleq	ec4454 <__bss_end__+0xeb9484>
    1768:	19270b39 	stmdbne	r7!, {r0, r3, r4, r5, r8, r9, fp}
    176c:	06120111 			; <UNDEFINED> instruction: 0x06120111
    1770:	42971840 	addsmi	r1, r7, #64, 16	; 0x400000
    1774:	00130119 	andseq	r0, r3, r9, lsl r1
    1778:	00050d00 	andeq	r0, r5, r0, lsl #26
    177c:	0b3a0803 	bleq	e83790 <__bss_end__+0xe787c0>
    1780:	0b390b3b 	bleq	e44474 <__bss_end__+0xe394a4>
    1784:	17021349 	strne	r1, [r2, -r9, asr #6]
    1788:	001742b7 			; <UNDEFINED> instruction: 0x001742b7
    178c:	00340e00 	eorseq	r0, r4, r0, lsl #28
    1790:	13490e03 	movtne	r0, #40451	; 0x9e03
    1794:	18021934 	stmdane	r2, {r2, r4, r5, r8, fp, ip}
    1798:	890f0000 	stmdbhi	pc, {}	; <UNPREDICTABLE>
    179c:	11010182 	smlabbne	r1, r2, r1, r0
    17a0:	01133101 	tsteq	r3, r1, lsl #2
    17a4:	10000013 	andne	r0, r0, r3, lsl r0
    17a8:	0001828a 	andeq	r8, r1, sl, lsl #5
    17ac:	42911802 	addsmi	r1, r1, #131072	; 0x20000
    17b0:	11000018 	tstne	r0, r8, lsl r0
    17b4:	00018289 	andeq	r8, r1, r9, lsl #5
    17b8:	13310111 	teqne	r1, #1073741828	; 0x40000004
    17bc:	01120000 	tsteq	r2, r0
    17c0:	01134901 	tsteq	r3, r1, lsl #18
    17c4:	13000013 	movwne	r0, #19
    17c8:	13490021 	movtne	r0, #36897	; 0x9021
    17cc:	00000b2f 	andeq	r0, r0, pc, lsr #22
    17d0:	3f002e14 	svccc	0x00002e14
    17d4:	3a0e0319 	bcc	382440 <__bss_end__+0x377470>
    17d8:	390b3b0b 	stmdbcc	fp, {r0, r1, r3, r8, r9, fp, ip, sp}
    17dc:	1119270b 	tstne	r9, fp, lsl #14
    17e0:	40061201 	andmi	r1, r6, r1, lsl #4
    17e4:	19429718 	stmdbne	r2, {r3, r4, r8, r9, sl, ip, pc}^
    17e8:	05150000 	ldreq	r0, [r5, #-0]
    17ec:	3a080300 	bcc	2023f4 <__bss_end__+0x1f7424>
    17f0:	390b3b0b 	stmdbcc	fp, {r0, r1, r3, r8, r9, fp, ip, sp}
    17f4:	0213490b 	andseq	r4, r3, #180224	; 0x2c000
    17f8:	16000018 			; <UNDEFINED> instruction: 0x16000018
    17fc:	193f012e 	ldmdbne	pc!, {r1, r2, r3, r5, r8}	; <UNPREDICTABLE>
    1800:	0b3a0e03 	bleq	e85014 <__bss_end__+0xe7a044>
    1804:	0b390b3b 	bleq	e444f8 <__bss_end__+0xe39528>
    1808:	13491927 	movtne	r1, #39207	; 0x9927
    180c:	06120111 			; <UNDEFINED> instruction: 0x06120111
    1810:	42971840 	addsmi	r1, r7, #64, 16	; 0x400000
    1814:	00130119 	andseq	r0, r3, r9, lsl r1
    1818:	00051700 	andeq	r1, r5, r0, lsl #14
    181c:	0b3a0e03 	bleq	e85030 <__bss_end__+0xe7a060>
    1820:	0b390b3b 	bleq	e44514 <__bss_end__+0xe39544>
    1824:	17021349 	strne	r1, [r2, -r9, asr #6]
    1828:	001742b7 			; <UNDEFINED> instruction: 0x001742b7
    182c:	00341800 	eorseq	r1, r4, r0, lsl #16
    1830:	0b3a0803 	bleq	e83844 <__bss_end__+0xe78874>
    1834:	0b390b3b 	bleq	e44528 <__bss_end__+0xe39558>
    1838:	17021349 	strne	r1, [r2, -r9, asr #6]
    183c:	001742b7 			; <UNDEFINED> instruction: 0x001742b7
    1840:	011d1900 	tsteq	sp, r0, lsl #18
    1844:	01521331 	cmpeq	r2, r1, lsr r3
    1848:	110b42b8 			; <UNDEFINED> instruction: 0x110b42b8
    184c:	58061201 	stmdapl	r6, {r0, r9, ip}
    1850:	570b590b 	strpl	r5, [fp, -fp, lsl #18]
    1854:	0013010b 	andseq	r0, r3, fp, lsl #2
    1858:	00051a00 	andeq	r1, r5, r0, lsl #20
    185c:	17021331 	smladxne	r2, r1, r3, r1
    1860:	001742b7 			; <UNDEFINED> instruction: 0x001742b7
    1864:	011d1b00 	tsteq	sp, r0, lsl #22
    1868:	01521331 	cmpeq	r2, r1, lsr r3
    186c:	550b42b8 	strpl	r4, [fp, #-696]	; 0xfffffd48
    1870:	590b5817 	stmdbpl	fp, {r0, r1, r2, r4, fp, ip, lr}
    1874:	010b570b 	tsteq	fp, fp, lsl #14
    1878:	1c000013 	stcne	0, cr0, [r0], {19}
    187c:	1755010b 	ldrbne	r0, [r5, -fp, lsl #2]
    1880:	341d0000 	ldrcc	r0, [sp], #-0
    1884:	3a0e0300 	bcc	38248c <__bss_end__+0x3774bc>
    1888:	390b3b0b 	stmdbcc	fp, {r0, r1, r3, r8, r9, fp, ip, sp}
    188c:	0213490b 	andseq	r4, r3, #180224	; 0x2c000
    1890:	1742b717 	smlaldne	fp, r2, r7, r7
    1894:	0b1e0000 	bleq	78189c <__bss_end__+0x7768cc>
    1898:	00175500 	andseq	r5, r7, r0, lsl #10
    189c:	002e1f00 	eoreq	r1, lr, r0, lsl #30
    18a0:	0e03193f 			; <UNDEFINED> instruction: 0x0e03193f
    18a4:	0b3b0b3a 	bleq	ec4594 <__bss_end__+0xeb95c4>
    18a8:	19270b39 	stmdbne	r7!, {r0, r3, r4, r5, r8, r9, fp}
    18ac:	01111349 	tsteq	r1, r9, asr #6
    18b0:	18400612 	stmdane	r0, {r1, r4, r9, sl}^
    18b4:	00194297 	mulseq	r9, r7, r2
    18b8:	012e2000 			; <UNDEFINED> instruction: 0x012e2000
    18bc:	0b3a0e03 	bleq	e850d0 <__bss_end__+0xe7a100>
    18c0:	0b390b3b 	bleq	e445b4 <__bss_end__+0xe395e4>
    18c4:	13491927 	movtne	r1, #39207	; 0x9927
    18c8:	13010b20 	movwne	r0, #6944	; 0x1b20
    18cc:	05210000 	streq	r0, [r1, #-0]!
    18d0:	3a080300 	bcc	2024d8 <__bss_end__+0x1f7508>
    18d4:	390b3b0b 	stmdbcc	fp, {r0, r1, r3, r8, r9, fp, ip, sp}
    18d8:	0013490b 	andseq	r4, r3, fp, lsl #18
    18dc:	002e2200 	eoreq	r2, lr, r0, lsl #4
    18e0:	193c193f 	ldmdbne	ip!, {r0, r1, r2, r3, r4, r5, r8, fp, ip}
    18e4:	0e030e6e 	cdpeq	14, 0, cr0, cr3, cr14, {3}
    18e8:	0b3b0b3a 	bleq	ec45d8 <__bss_end__+0xeb9608>
    18ec:	00000b39 	andeq	r0, r0, r9, lsr fp
    18f0:	01110100 	tsteq	r1, r0, lsl #2
    18f4:	0b130e25 	bleq	4c5190 <__bss_end__+0x4ba1c0>
    18f8:	0e1b0e03 	cdpeq	14, 1, cr0, cr11, cr3, {0}
    18fc:	06120111 			; <UNDEFINED> instruction: 0x06120111
    1900:	00001710 	andeq	r1, r0, r0, lsl r7
    1904:	0b002402 	bleq	a914 <__FUNCTION__.4112+0x100>
    1908:	030b3e0b 	movweq	r3, #48651	; 0xbe0b
    190c:	0300000e 	movweq	r0, #14
    1910:	0b0b0024 	bleq	2c19a8 <__bss_end__+0x2b69d8>
    1914:	08030b3e 	stmdaeq	r3, {r1, r2, r3, r4, r5, r8, r9, fp}
    1918:	26040000 	strcs	r0, [r4], -r0
    191c:	00134900 	andseq	r4, r3, r0, lsl #18
    1920:	00160500 	andseq	r0, r6, r0, lsl #10
    1924:	0b3a0e03 	bleq	e85138 <__bss_end__+0xe7a168>
    1928:	0b390b3b 	bleq	e4461c <__bss_end__+0xe3964c>
    192c:	00001349 	andeq	r1, r0, r9, asr #6
    1930:	27011506 	strcs	r1, [r1, -r6, lsl #10]
    1934:	01134919 	tsteq	r3, r9, lsl r9
    1938:	07000013 	smladeq	r0, r3, r0, r0
    193c:	13490005 	movtne	r0, #36869	; 0x9005
    1940:	34080000 	strcc	r0, [r8], #-0
    1944:	3a0e0300 	bcc	38254c <__bss_end__+0x37757c>
    1948:	390b3b0b 	stmdbcc	fp, {r0, r1, r3, r8, r9, fp, ip, sp}
    194c:	3f13490b 	svccc	0x0013490b
    1950:	00193c19 	andseq	r3, r9, r9, lsl ip
    1954:	000f0900 	andeq	r0, pc, r0, lsl #18
    1958:	13490b0b 	movtne	r0, #39691	; 0x9b0b
    195c:	040a0000 	streq	r0, [sl], #-0
    1960:	0b0b3e01 	bleq	2d116c <__bss_end__+0x2c619c>
    1964:	3a13490b 	bcc	4d3d98 <__bss_end__+0x4c8dc8>
    1968:	390b3b0b 	stmdbcc	fp, {r0, r1, r3, r8, r9, fp, ip, sp}
    196c:	0013010b 	andseq	r0, r3, fp, lsl #2
    1970:	00280b00 	eoreq	r0, r8, r0, lsl #22
    1974:	0b1c0e03 	bleq	705188 <__bss_end__+0x6fa1b8>
    1978:	340c0000 	strcc	r0, [ip], #-0
    197c:	3a0e0300 	bcc	382584 <__bss_end__+0x3775b4>
    1980:	390b3b0b 	stmdbcc	fp, {r0, r1, r3, r8, r9, fp, ip, sp}
    1984:	1c13490b 			; <UNDEFINED> instruction: 0x1c13490b
    1988:	0d000006 	stceq	0, cr0, [r0, #-24]	; 0xffffffe8
    198c:	193f012e 	ldmdbne	pc!, {r1, r2, r3, r5, r8}	; <UNPREDICTABLE>
    1990:	0b3a0e03 	bleq	e851a4 <__bss_end__+0xe7a1d4>
    1994:	0b390b3b 	bleq	e44688 <__bss_end__+0xe396b8>
    1998:	13491927 	movtne	r1, #39207	; 0x9927
    199c:	06120111 			; <UNDEFINED> instruction: 0x06120111
    19a0:	42971840 	addsmi	r1, r7, #64, 16	; 0x400000
    19a4:	00130119 	andseq	r0, r3, r9, lsl r1
    19a8:	00050e00 	andeq	r0, r5, r0, lsl #28
    19ac:	0b3a0803 	bleq	e839c0 <__bss_end__+0xe789f0>
    19b0:	0b390b3b 	bleq	e446a4 <__bss_end__+0xe396d4>
    19b4:	17021349 	strne	r1, [r2, -r9, asr #6]
    19b8:	001742b7 			; <UNDEFINED> instruction: 0x001742b7
    19bc:	00340f00 	eorseq	r0, r4, r0, lsl #30
    19c0:	0b3a0e03 	bleq	e851d4 <__bss_end__+0xe7a204>
    19c4:	0b390b3b 	bleq	e446b8 <__bss_end__+0xe396e8>
    19c8:	17021349 	strne	r1, [r2, -r9, asr #6]
    19cc:	001742b7 			; <UNDEFINED> instruction: 0x001742b7
    19d0:	00341000 	eorseq	r1, r4, r0
    19d4:	0b3a0803 	bleq	e839e8 <__bss_end__+0xe78a18>
    19d8:	0b390b3b 	bleq	e446cc <__bss_end__+0xe396fc>
    19dc:	17021349 	strne	r1, [r2, -r9, asr #6]
    19e0:	001742b7 			; <UNDEFINED> instruction: 0x001742b7
    19e4:	82891100 	addhi	r1, r9, #0
    19e8:	01110101 	tsteq	r1, r1, lsl #2
    19ec:	00001331 	andeq	r1, r0, r1, lsr r3
    19f0:	01828a12 	orreq	r8, r2, r2, lsl sl
    19f4:	91180200 	tstls	r8, r0, lsl #4
    19f8:	00001842 	andeq	r1, r0, r2, asr #16
    19fc:	3f012e13 	svccc	0x00012e13
    1a00:	3a0e0319 	bcc	38266c <__bss_end__+0x37769c>
    1a04:	390b3b0b 	stmdbcc	fp, {r0, r1, r3, r8, r9, fp, ip, sp}
    1a08:	1119270b 	tstne	r9, fp, lsl #14
    1a0c:	40061201 	andmi	r1, r6, r1, lsl #4
    1a10:	19429718 	stmdbne	r2, {r3, r4, r8, r9, sl, ip, pc}^
    1a14:	00001301 	andeq	r1, r0, r1, lsl #6
    1a18:	31011d14 	tstcc	r1, r4, lsl sp
    1a1c:	b8015213 	stmdalt	r1, {r0, r1, r4, r9, ip, lr}
    1a20:	17550b42 	ldrbne	r0, [r5, -r2, asr #22]
    1a24:	0b590b58 	bleq	164478c <__bss_end__+0x16397bc>
    1a28:	13010b57 	movwne	r0, #6999	; 0x1b57
    1a2c:	05150000 	ldreq	r0, [r5, #-0]
    1a30:	02133100 	andseq	r3, r3, #0
    1a34:	1742b717 	smlaldne	fp, r2, r7, r7
    1a38:	89160000 	ldmdbhi	r6, {}	; <UNPREDICTABLE>
    1a3c:	11010182 	smlabbne	r1, r2, r1, r0
    1a40:	19429501 	stmdbne	r2, {r0, r8, sl, ip, pc}^
    1a44:	00001331 	andeq	r1, r0, r1, lsr r3
    1a48:	31011d17 	tstcc	r1, r7, lsl sp
    1a4c:	b8015213 	stmdalt	r1, {r0, r1, r4, r9, ip, lr}
    1a50:	01110b42 	tsteq	r1, r2, asr #22
    1a54:	0b580612 	bleq	16032a4 <__bss_end__+0x15f82d4>
    1a58:	0b570b59 	bleq	15c47c4 <__bss_end__+0x15b97f4>
    1a5c:	1d180000 	ldcne	0, cr0, [r8, #-0]
    1a60:	52133101 	andspl	r3, r3, #1073741824	; 0x40000000
    1a64:	0b42b801 	bleq	10afa70 <__bss_end__+0x10a4aa0>
    1a68:	0b581755 	bleq	16077c4 <__bss_end__+0x15fc7f4>
    1a6c:	0b570b59 	bleq	15c47d8 <__bss_end__+0x15b9808>
    1a70:	05190000 	ldreq	r0, [r9, #-0]
    1a74:	1c133100 	ldfnes	f3, [r3], {-0}
    1a78:	1a00000b 	bne	1aac <__code_start__-0x6554>
    1a7c:	1755010b 	ldrbne	r0, [r5, -fp, lsl #2]
    1a80:	341b0000 	ldrcc	r0, [fp], #-0
    1a84:	00133100 	andseq	r3, r3, r0, lsl #2
    1a88:	00341c00 	eorseq	r1, r4, r0, lsl #24
    1a8c:	17021331 	smladxne	r2, r1, r3, r1
    1a90:	001742b7 			; <UNDEFINED> instruction: 0x001742b7
    1a94:	82891d00 	addhi	r1, r9, #0, 26
    1a98:	01110101 	tsteq	r1, r1, lsl #2
    1a9c:	13011331 	movwne	r1, #4913	; 0x1331
    1aa0:	2e1e0000 	cdpcs	0, 1, cr0, cr14, cr0, {0}
    1aa4:	03193f01 	tsteq	r9, #1, 30
    1aa8:	3b0b3a0e 	blcc	2d02e8 <__bss_end__+0x2c5318>
    1aac:	270b390b 	strcs	r3, [fp, -fp, lsl #18]
    1ab0:	010b2019 	tsteq	fp, r9, lsl r0
    1ab4:	1f000013 	svcne	0x00000013
    1ab8:	08030005 	stmdaeq	r3, {r0, r2}
    1abc:	0b3b0b3a 	bleq	ec47ac <__bss_end__+0xeb97dc>
    1ac0:	13490b39 	movtne	r0, #39737	; 0x9b39
    1ac4:	05200000 	streq	r0, [r0, #-0]!
    1ac8:	3a0e0300 	bcc	3826d0 <__bss_end__+0x377700>
    1acc:	390b3b0b 	stmdbcc	fp, {r0, r1, r3, r8, r9, fp, ip, sp}
    1ad0:	0013490b 	andseq	r4, r3, fp, lsl #18
    1ad4:	00342100 	eorseq	r2, r4, r0, lsl #2
    1ad8:	0b3a0803 	bleq	e83aec <__bss_end__+0xe78b1c>
    1adc:	0b390b3b 	bleq	e447d0 <__bss_end__+0xe39800>
    1ae0:	00001349 	andeq	r1, r0, r9, asr #6
    1ae4:	03012e22 	movweq	r2, #7714	; 0x1e22
    1ae8:	3b0b3a0e 	blcc	2d0328 <__bss_end__+0x2c5358>
    1aec:	270b390b 	strcs	r3, [fp, -fp, lsl #18]
    1af0:	20134919 	andscs	r4, r3, r9, lsl r9
    1af4:	0013010b 	andseq	r0, r3, fp, lsl #2
    1af8:	012e2300 			; <UNDEFINED> instruction: 0x012e2300
    1afc:	01111331 	tsteq	r1, r1, lsr r3
    1b00:	18400612 	stmdane	r0, {r1, r4, r9, sl}^
    1b04:	01194297 			; <UNDEFINED> instruction: 0x01194297
    1b08:	24000013 	strcs	r0, [r0], #-19	; 0xffffffed
    1b0c:	193f002e 	ldmdbne	pc!, {r1, r2, r3, r5}	; <UNPREDICTABLE>
    1b10:	0e6e193c 			; <UNDEFINED> instruction: 0x0e6e193c
    1b14:	0b3a0e03 	bleq	e85328 <__bss_end__+0xe7a358>
    1b18:	0b390b3b 	bleq	e4480c <__bss_end__+0xe3983c>
    1b1c:	01000000 	mrseq	r0, (UNDEF: 0)
    1b20:	0e250111 	mcreq	1, 1, r0, cr5, cr1, {0}
    1b24:	0e030b13 	vmoveq.32	d3[0], r0
    1b28:	01110e1b 	tsteq	r1, fp, lsl lr
    1b2c:	17100612 			; <UNDEFINED> instruction: 0x17100612
    1b30:	24020000 	strcs	r0, [r2], #-0
    1b34:	3e0b0b00 	vmlacc.f64	d0, d11, d0
    1b38:	0008030b 	andeq	r0, r8, fp, lsl #6
    1b3c:	00240300 	eoreq	r0, r4, r0, lsl #6
    1b40:	0b3e0b0b 	bleq	f84774 <__bss_end__+0xf797a4>
    1b44:	00000e03 	andeq	r0, r0, r3, lsl #28
    1b48:	27011504 	strcs	r1, [r1, -r4, lsl #10]
    1b4c:	01134919 	tsteq	r3, r9, lsl r9
    1b50:	05000013 	streq	r0, [r0, #-19]	; 0xffffffed
    1b54:	13490005 	movtne	r0, #36869	; 0x9005
    1b58:	34060000 	strcc	r0, [r6], #-0
    1b5c:	3a0e0300 	bcc	382764 <__bss_end__+0x377794>
    1b60:	390b3b0b 	stmdbcc	fp, {r0, r1, r3, r8, r9, fp, ip, sp}
    1b64:	3f13490b 	svccc	0x0013490b
    1b68:	00193c19 	andseq	r3, r9, r9, lsl ip
    1b6c:	000f0700 	andeq	r0, pc, r0, lsl #14
    1b70:	13490b0b 	movtne	r0, #39691	; 0x9b0b
    1b74:	26080000 	strcs	r0, [r8], -r0
    1b78:	00134900 	andseq	r4, r3, r0, lsl #18
    1b7c:	00340900 	eorseq	r0, r4, r0, lsl #18
    1b80:	0b3a1347 	bleq	e868a4 <__bss_end__+0xe7b8d4>
    1b84:	0b390b3b 	bleq	e44878 <__bss_end__+0xe398a8>
    1b88:	00001802 	andeq	r1, r0, r2, lsl #16
    1b8c:	3f012e0a 	svccc	0x00012e0a
    1b90:	3a0e0319 	bcc	3827fc <__bss_end__+0x37782c>
    1b94:	390b3b0b 	stmdbcc	fp, {r0, r1, r3, r8, r9, fp, ip, sp}
    1b98:	1119270b 	tstne	r9, fp, lsl #14
    1b9c:	40061201 	andmi	r1, r6, r1, lsl #4
    1ba0:	19429718 	stmdbne	r2, {r3, r4, r8, r9, sl, ip, pc}^
    1ba4:	00001301 	andeq	r1, r0, r1, lsl #6
    1ba8:	0300050b 	movweq	r0, #1291	; 0x50b
    1bac:	3b0b3a08 	blcc	2d03d4 <__bss_end__+0x2c5404>
    1bb0:	490b390b 	stmdbmi	fp, {r0, r1, r3, r8, fp, ip, sp}
    1bb4:	00180213 	andseq	r0, r8, r3, lsl r2
    1bb8:	002e0c00 	eoreq	r0, lr, r0, lsl #24
    1bbc:	0e03193f 			; <UNDEFINED> instruction: 0x0e03193f
    1bc0:	0b3b0b3a 	bleq	ec48b0 <__bss_end__+0xeb98e0>
    1bc4:	19270b39 	stmdbne	r7!, {r0, r3, r4, r5, r8, r9, fp}
    1bc8:	06120111 			; <UNDEFINED> instruction: 0x06120111
    1bcc:	42971840 	addsmi	r1, r7, #64, 16	; 0x400000
    1bd0:	0d000019 	stceq	0, cr0, [r0, #-100]	; 0xffffff9c
    1bd4:	0e03012e 	adfeqsp	f0, f3, #0.5
    1bd8:	0b3b0b3a 	bleq	ec48c8 <__bss_end__+0xeb98f8>
    1bdc:	19270b39 	stmdbne	r7!, {r0, r3, r4, r5, r8, r9, fp}
    1be0:	01111349 	tsteq	r1, r9, asr #6
    1be4:	18400612 	stmdane	r0, {r1, r4, r9, sl}^
    1be8:	01194297 			; <UNDEFINED> instruction: 0x01194297
    1bec:	0e000013 	mcreq	0, 0, r0, cr0, cr3, {0}
    1bf0:	08030005 	stmdaeq	r3, {r0, r2}
    1bf4:	0b3b0b3a 	bleq	ec48e4 <__bss_end__+0xeb9914>
    1bf8:	13490b39 	movtne	r0, #39737	; 0x9b39
    1bfc:	42b71702 	adcsmi	r1, r7, #524288	; 0x80000
    1c00:	0f000017 	svceq	0x00000017
    1c04:	01018289 	smlabbeq	r1, r9, r2, r8
    1c08:	13310111 	teqne	r1, #1073741828	; 0x40000004
    1c0c:	8a100000 	bhi	401c14 <__bss_end__+0x3f6c44>
    1c10:	02000182 	andeq	r0, r0, #-2147483616	; 0x80000020
    1c14:	18429118 	stmdane	r2, {r3, r4, r8, ip, pc}^
    1c18:	2e110000 	cdpcs	0, 1, cr0, cr1, cr0, {0}
    1c1c:	3c193f00 	ldccc	15, cr3, [r9], {-0}
    1c20:	030e6e19 	movweq	r6, #60953	; 0xee19
    1c24:	3b0b3a0e 	blcc	2d0464 <__bss_end__+0x2c5494>
    1c28:	000b390b 	andeq	r3, fp, fp, lsl #18
    1c2c:	11010000 	mrsne	r0, (UNDEF: 1)
    1c30:	130e2501 	movwne	r2, #58625	; 0xe501
    1c34:	1b0e030b 	blne	382868 <__bss_end__+0x377898>
    1c38:	1201110e 	andne	r1, r1, #-2147483645	; 0x80000003
    1c3c:	00171006 	andseq	r1, r7, r6
    1c40:	00240200 	eoreq	r0, r4, r0, lsl #4
    1c44:	0b3e0b0b 	bleq	f84878 <__bss_end__+0xf798a8>
    1c48:	00000803 	andeq	r0, r0, r3, lsl #16
    1c4c:	0b002403 	bleq	ac60 <buf.3944+0x94>
    1c50:	030b3e0b 	movweq	r3, #48651	; 0xbe0b
    1c54:	0400000e 	streq	r0, [r0], #-14
    1c58:	19270115 	stmdbne	r7!, {r0, r2, r4, r8}
    1c5c:	13011349 	movwne	r1, #4937	; 0x1349
    1c60:	05050000 	streq	r0, [r5, #-0]
    1c64:	00134900 	andseq	r4, r3, r0, lsl #18
    1c68:	00340600 	eorseq	r0, r4, r0, lsl #12
    1c6c:	0b3a0e03 	bleq	e85480 <__bss_end__+0xe7a4b0>
    1c70:	0b390b3b 	bleq	e44964 <__bss_end__+0xe39994>
    1c74:	193f1349 	ldmdbne	pc!, {r0, r3, r6, r8, r9, ip}	; <UNPREDICTABLE>
    1c78:	0000193c 	andeq	r1, r0, ip, lsr r9
    1c7c:	0b000f07 	bleq	58a0 <__code_start__-0x2760>
    1c80:	0013490b 	andseq	r4, r3, fp, lsl #18
    1c84:	00260800 	eoreq	r0, r6, r0, lsl #16
    1c88:	00001349 	andeq	r1, r0, r9, asr #6
    1c8c:	3f012e09 	svccc	0x00012e09
    1c90:	3a0e0319 	bcc	3828fc <__bss_end__+0x37792c>
    1c94:	390b3b0b 	stmdbcc	fp, {r0, r1, r3, r8, r9, fp, ip, sp}
    1c98:	4919270b 	ldmdbmi	r9, {r0, r1, r3, r8, r9, sl, sp}
    1c9c:	12011113 	andne	r1, r1, #-1073741820	; 0xc0000004
    1ca0:	97184006 	ldrls	r4, [r8, -r6]
    1ca4:	13011942 	movwne	r1, #6466	; 0x1942
    1ca8:	050a0000 	streq	r0, [sl, #-0]
    1cac:	3a0e0300 	bcc	3828b4 <__bss_end__+0x3778e4>
    1cb0:	390b3b0b 	stmdbcc	fp, {r0, r1, r3, r8, r9, fp, ip, sp}
    1cb4:	0213490b 	andseq	r4, r3, #180224	; 0x2c000
    1cb8:	0b000018 	bleq	1d20 <__code_start__-0x62e0>
    1cbc:	08030005 	stmdaeq	r3, {r0, r2}
    1cc0:	0b3b0b3a 	bleq	ec49b0 <__bss_end__+0xeb99e0>
    1cc4:	13490b39 	movtne	r0, #39737	; 0x9b39
    1cc8:	42b71702 	adcsmi	r1, r7, #524288	; 0x80000
    1ccc:	0c000017 	stceq	0, cr0, [r0], {23}
    1cd0:	08030034 	stmdaeq	r3, {r2, r4, r5}
    1cd4:	0b3b0b3a 	bleq	ec49c4 <__bss_end__+0xeb99f4>
    1cd8:	13490b39 	movtne	r0, #39737	; 0x9b39
    1cdc:	42b71702 	adcsmi	r1, r7, #524288	; 0x80000
    1ce0:	00000017 	andeq	r0, r0, r7, lsl r0
    1ce4:	25011101 	strcs	r1, [r1, #-257]	; 0xfffffeff
    1ce8:	030b130e 	movweq	r1, #45838	; 0xb30e
    1cec:	110e1b0e 	tstne	lr, lr, lsl #22
    1cf0:	10061201 	andne	r1, r6, r1, lsl #4
    1cf4:	02000017 	andeq	r0, r0, #23, 0
    1cf8:	0b0b0024 	bleq	2c1d90 <__bss_end__+0x2b6dc0>
    1cfc:	08030b3e 	stmdaeq	r3, {r1, r2, r3, r4, r5, r8, r9, fp}
    1d00:	24030000 	strcs	r0, [r3], #-0
    1d04:	3e0b0b00 	vmlacc.f64	d0, d11, d0
    1d08:	000e030b 	andeq	r0, lr, fp, lsl #6
    1d0c:	01150400 	tsteq	r5, r0, lsl #8
    1d10:	13491927 	movtne	r1, #39207	; 0x9927
    1d14:	00001301 	andeq	r1, r0, r1, lsl #6
    1d18:	49000505 	stmdbmi	r0, {r0, r2, r8, sl}
    1d1c:	06000013 			; <UNDEFINED> instruction: 0x06000013
    1d20:	0e030034 	mcreq	0, 0, r0, cr3, cr4, {1}
    1d24:	0b3b0b3a 	bleq	ec4a14 <__bss_end__+0xeb9a44>
    1d28:	13490b39 	movtne	r0, #39737	; 0x9b39
    1d2c:	193c193f 	ldmdbne	ip!, {r0, r1, r2, r3, r4, r5, r8, fp, ip}
    1d30:	0f070000 	svceq	0x00070000
    1d34:	490b0b00 	stmdbmi	fp, {r8, r9, fp}
    1d38:	08000013 	stmdaeq	r0, {r0, r1, r4}
    1d3c:	13490026 	movtne	r0, #36902	; 0x9026
    1d40:	2e090000 	cdpcs	0, 0, cr0, cr9, cr0, {0}
    1d44:	03193f01 	tsteq	r9, #1, 30
    1d48:	3b0b3a0e 	blcc	2d0588 <__bss_end__+0x2c55b8>
    1d4c:	270b390b 	strcs	r3, [fp, -fp, lsl #18]
    1d50:	11134919 	tstne	r3, r9, lsl r9
    1d54:	40061201 	andmi	r1, r6, r1, lsl #4
    1d58:	19429718 	stmdbne	r2, {r3, r4, r8, r9, sl, ip, pc}^
    1d5c:	050a0000 	streq	r0, [sl, #-0]
    1d60:	3a080300 	bcc	202968 <__bss_end__+0x1f7998>
    1d64:	390b3b0b 	stmdbcc	fp, {r0, r1, r3, r8, r9, fp, ip, sp}
    1d68:	0213490b 	andseq	r4, r3, #180224	; 0x2c000
    1d6c:	1742b717 	smlaldne	fp, r2, r7, r7
    1d70:	01000000 	mrseq	r0, (UNDEF: 0)
    1d74:	0e250111 	mcreq	1, 1, r0, cr5, cr1, {0}
    1d78:	0e030b13 	vmoveq.32	d3[0], r0
    1d7c:	01110e1b 	tsteq	r1, fp, lsl lr
    1d80:	17100612 			; <UNDEFINED> instruction: 0x17100612
    1d84:	24020000 	strcs	r0, [r2], #-0
    1d88:	3e0b0b00 	vmlacc.f64	d0, d11, d0
    1d8c:	0008030b 	andeq	r0, r8, fp, lsl #6
    1d90:	00240300 	eoreq	r0, r4, r0, lsl #6
    1d94:	0b3e0b0b 	bleq	f849c8 <__bss_end__+0xf799f8>
    1d98:	00000e03 	andeq	r0, r0, r3, lsl #28
    1d9c:	27011504 	strcs	r1, [r1, -r4, lsl #10]
    1da0:	01134919 	tsteq	r3, r9, lsl r9
    1da4:	05000013 	streq	r0, [r0, #-19]	; 0xffffffed
    1da8:	13490005 	movtne	r0, #36869	; 0x9005
    1dac:	34060000 	strcc	r0, [r6], #-0
    1db0:	3a0e0300 	bcc	3829b8 <__bss_end__+0x3779e8>
    1db4:	390b3b0b 	stmdbcc	fp, {r0, r1, r3, r8, r9, fp, ip, sp}
    1db8:	3f13490b 	svccc	0x0013490b
    1dbc:	00193c19 	andseq	r3, r9, r9, lsl ip
    1dc0:	000f0700 	andeq	r0, pc, r0, lsl #14
    1dc4:	13490b0b 	movtne	r0, #39691	; 0x9b0b
    1dc8:	26080000 	strcs	r0, [r8], -r0
    1dcc:	00134900 	andseq	r4, r3, r0, lsl #18
    1dd0:	012e0900 			; <UNDEFINED> instruction: 0x012e0900
    1dd4:	0e03193f 			; <UNDEFINED> instruction: 0x0e03193f
    1dd8:	0b3b0b3a 	bleq	ec4ac8 <__bss_end__+0xeb9af8>
    1ddc:	19270b39 	stmdbne	r7!, {r0, r3, r4, r5, r8, r9, fp}
    1de0:	01111349 	tsteq	r1, r9, asr #6
    1de4:	18400612 	stmdane	r0, {r1, r4, r9, sl}^
    1de8:	01194297 			; <UNDEFINED> instruction: 0x01194297
    1dec:	0a000013 	beq	1e40 <__code_start__-0x61c0>
    1df0:	08030005 	stmdaeq	r3, {r0, r2}
    1df4:	0b3b0b3a 	bleq	ec4ae4 <__bss_end__+0xeb9b14>
    1df8:	13490b39 	movtne	r0, #39737	; 0x9b39
    1dfc:	00001802 	andeq	r1, r0, r2, lsl #16
    1e00:	0300050b 	movweq	r0, #1291	; 0x50b
    1e04:	3b0b3a08 	blcc	2d062c <__bss_end__+0x2c565c>
    1e08:	490b390b 	stmdbmi	fp, {r0, r1, r3, r8, fp, ip, sp}
    1e0c:	b7170213 			; <UNDEFINED> instruction: 0xb7170213
    1e10:	00001742 	andeq	r1, r0, r2, asr #14
    1e14:	0300340c 	movweq	r3, #1036	; 0x40c
    1e18:	3b0b3a08 	blcc	2d0640 <__bss_end__+0x2c5670>
    1e1c:	490b390b 	stmdbmi	fp, {r0, r1, r3, r8, fp, ip, sp}
    1e20:	b7170213 			; <UNDEFINED> instruction: 0xb7170213
    1e24:	00001742 	andeq	r1, r0, r2, asr #14
    1e28:	01110100 	tsteq	r1, r0, lsl #2
    1e2c:	0b130e25 	bleq	4c56c8 <__bss_end__+0x4ba6f8>
    1e30:	0e1b0e03 	cdpeq	14, 1, cr0, cr11, cr3, {0}
    1e34:	06120111 			; <UNDEFINED> instruction: 0x06120111
    1e38:	00001710 	andeq	r1, r0, r0, lsl r7
    1e3c:	0b002402 	bleq	ae4c <buf.3944+0x280>
    1e40:	030b3e0b 	movweq	r3, #48651	; 0xbe0b
    1e44:	03000008 	movweq	r0, #8
    1e48:	0e030016 	mcreq	0, 0, r0, cr3, cr6, {0}
    1e4c:	0b3b0b3a 	bleq	ec4b3c <__bss_end__+0xeb9b6c>
    1e50:	13490b39 	movtne	r0, #39737	; 0x9b39
    1e54:	24040000 	strcs	r0, [r4], #-0
    1e58:	3e0b0b00 	vmlacc.f64	d0, d11, d0
    1e5c:	000e030b 	andeq	r0, lr, fp, lsl #6
    1e60:	00260500 	eoreq	r0, r6, r0, lsl #10
    1e64:	00001349 	andeq	r1, r0, r9, asr #6
    1e68:	27011506 	strcs	r1, [r1, -r6, lsl #10]
    1e6c:	01134919 	tsteq	r3, r9, lsl r9
    1e70:	07000013 	smladeq	r0, r3, r0, r0
    1e74:	13490005 	movtne	r0, #36869	; 0x9005
    1e78:	34080000 	strcc	r0, [r8], #-0
    1e7c:	3a0e0300 	bcc	382a84 <__bss_end__+0x377ab4>
    1e80:	390b3b0b 	stmdbcc	fp, {r0, r1, r3, r8, r9, fp, ip, sp}
    1e84:	3f13490b 	svccc	0x0013490b
    1e88:	00193c19 	andseq	r3, r9, r9, lsl ip
    1e8c:	000f0900 	andeq	r0, pc, r0, lsl #18
    1e90:	13490b0b 	movtne	r0, #39691	; 0x9b0b
    1e94:	2e0a0000 	cdpcs	0, 0, cr0, cr10, cr0, {0}
    1e98:	03193f01 	tsteq	r9, #1, 30
    1e9c:	3b0b3a0e 	blcc	2d06dc <__bss_end__+0x2c570c>
    1ea0:	270b390b 	strcs	r3, [fp, -fp, lsl #18]
    1ea4:	11134919 	tstne	r3, r9, lsl r9
    1ea8:	40061201 	andmi	r1, r6, r1, lsl #4
    1eac:	19429718 	stmdbne	r2, {r3, r4, r8, r9, sl, ip, pc}^
    1eb0:	00001301 	andeq	r1, r0, r1, lsl #6
    1eb4:	0300050b 	movweq	r0, #1291	; 0x50b
    1eb8:	3b0b3a08 	blcc	2d06e0 <__bss_end__+0x2c5710>
    1ebc:	490b390b 	stmdbmi	fp, {r0, r1, r3, r8, fp, ip, sp}
    1ec0:	b7170213 			; <UNDEFINED> instruction: 0xb7170213
    1ec4:	00001742 	andeq	r1, r0, r2, asr #14
    1ec8:	0300340c 	movweq	r3, #1036	; 0x40c
    1ecc:	3b0b3a08 	blcc	2d06f4 <__bss_end__+0x2c5724>
    1ed0:	490b390b 	stmdbmi	fp, {r0, r1, r3, r8, fp, ip, sp}
    1ed4:	b7170213 			; <UNDEFINED> instruction: 0xb7170213
    1ed8:	00001742 	andeq	r1, r0, r2, asr #14
    1edc:	01110100 	tsteq	r1, r0, lsl #2
    1ee0:	0b130e25 	bleq	4c577c <__bss_end__+0x4ba7ac>
    1ee4:	0e1b0e03 	cdpeq	14, 1, cr0, cr11, cr3, {0}
    1ee8:	06120111 			; <UNDEFINED> instruction: 0x06120111
    1eec:	00001710 	andeq	r1, r0, r0, lsl r7
    1ef0:	0b002402 	bleq	af00 <buf.3944+0x334>
    1ef4:	030b3e0b 	movweq	r3, #48651	; 0xbe0b
    1ef8:	03000008 	movweq	r0, #8
    1efc:	0b0b0024 	bleq	2c1f94 <__bss_end__+0x2b6fc4>
    1f00:	0e030b3e 	vmoveq.16	d3[0], r0
    1f04:	15040000 	strne	r0, [r4, #-0]
    1f08:	49192701 	ldmdbmi	r9, {r0, r8, r9, sl, sp}
    1f0c:	00130113 	andseq	r0, r3, r3, lsl r1
    1f10:	00050500 	andeq	r0, r5, r0, lsl #10
    1f14:	00001349 	andeq	r1, r0, r9, asr #6
    1f18:	03003406 	movweq	r3, #1030	; 0x406
    1f1c:	3b0b3a0e 	blcc	2d075c <__bss_end__+0x2c578c>
    1f20:	490b390b 	stmdbmi	fp, {r0, r1, r3, r8, fp, ip, sp}
    1f24:	3c193f13 	ldccc	15, cr3, [r9], {19}
    1f28:	07000019 	smladeq	r0, r9, r0, r0
    1f2c:	0b0b000f 	bleq	2c1f70 <__bss_end__+0x2b6fa0>
    1f30:	00001349 	andeq	r1, r0, r9, asr #6
    1f34:	49002608 	stmdbmi	r0, {r3, r9, sl, sp}
    1f38:	09000013 	stmdbeq	r0, {r0, r1, r4}
    1f3c:	193f002e 	ldmdbne	pc!, {r1, r2, r3, r5}	; <UNPREDICTABLE>
    1f40:	0b3a0e03 	bleq	e85754 <__bss_end__+0xe7a784>
    1f44:	0b390b3b 	bleq	e44c38 <__bss_end__+0xe39c68>
    1f48:	01111927 	tsteq	r1, r7, lsr #18
    1f4c:	18400612 	stmdane	r0, {r1, r4, r9, sl}^
    1f50:	00194297 	mulseq	r9, r7, r2
	...

Disassembly of section .debug_loc:

00000000 <.debug_loc>:
       0:	00000000 	andeq	r0, r0, r0
       4:	00b00000 	adcseq	r0, r0, r0
       8:	00bc0000 	adcseq	r0, ip, r0
       c:	00010000 	andeq	r0, r1, r0
      10:	0000cc50 	andeq	ip, r0, r0, asr ip
      14:	0000e000 	andeq	lr, r0, r0
      18:	50000100 	andpl	r0, r0, r0, lsl #2
      1c:	000000e0 	andeq	r0, r0, r0, ror #1
      20:	000000e3 	andeq	r0, r0, r3, ror #1
      24:	007d0002 	rsbseq	r0, sp, r2
	...
      34:	00000080 	andeq	r0, r0, r0, lsl #1
      38:	00000084 	andeq	r0, r0, r4, lsl #1
      3c:	84500001 	ldrbhi	r0, [r0], #-1
      40:	87000000 	strhi	r0, [r0, -r0]
      44:	01000000 	mrseq	r0, (UNDEF: 0)
      48:	00005100 	andeq	r5, r0, r0, lsl #2
      4c:	00000000 	andeq	r0, r0, r0
      50:	01020000 	mrseq	r0, (UNDEF: 2)
      54:	00000001 	andeq	r0, r0, r1
      58:	00000000 	andeq	r0, r0, r0
      5c:	00000048 	andeq	r0, r0, r8, asr #32
      60:	9f300002 	svcls	0x00300002
      64:	00000048 	andeq	r0, r0, r8, asr #32
      68:	0000005c 	andeq	r0, r0, ip, asr r0
      6c:	5c540001 	mrrcpl	0, 0, r0, r4, cr1
      70:	68000000 	stmdavs	r0, {}	; <UNPREDICTABLE>
      74:	01000000 	mrseq	r0, (UNDEF: 0)
      78:	00005000 	andeq	r5, r0, r0
      7c:	00000000 	andeq	r0, r0, r0
      80:	01040000 	mrseq	r0, (UNDEF: 4)
      84:	00000001 	andeq	r0, r0, r1
      88:	00480000 	subeq	r0, r8, r0
      8c:	00020000 	andeq	r0, r2, r0
      90:	00489f30 	subeq	r9, r8, r0, lsr pc
      94:	00680000 	rsbeq	r0, r8, r0
      98:	00020000 	andeq	r0, r2, r0
      9c:	00009f31 	andeq	r9, r0, r1, lsr pc
	...
      ac:	00000038 	andeq	r0, r0, r8, lsr r0
      b0:	0000003b 	andeq	r0, r0, fp, lsr r0
      b4:	3b500001 	blcc	14000c0 <__bss_end__+0x13f50f0>
      b8:	5c000000 	stcpl	0, cr0, [r0], {-0}
      bc:	01000000 	mrseq	r0, (UNDEF: 0)
      c0:	005c5400 	subseq	r5, ip, r0, lsl #8
      c4:	00680000 	rsbeq	r0, r8, r0
      c8:	00010000 	andeq	r0, r1, r0
      cc:	00000050 	andeq	r0, r0, r0, asr r0
      d0:	00000000 	andeq	r0, r0, r0
      d4:	00000600 	andeq	r0, r0, r0, lsl #12
      d8:	1c000000 	stcne	0, cr0, [r0], {-0}
      dc:	02000000 	andeq	r0, r0, #0, 0
      e0:	009f4400 	addseq	r4, pc, r0, lsl #8
      e4:	00000000 	andeq	r0, r0, r0
      e8:	06000000 	streq	r0, [r0], -r0
      ec:	00000000 	andeq	r0, r0, r0
      f0:	00001c00 	andeq	r1, r0, r0, lsl #24
      f4:	f2000600 	vmax.s8	d0, d0, d0
      f8:	000004d1 	ldrdeq	r0, [r0], -r1
	...
     104:	00000600 	andeq	r0, r0, r0, lsl #12
     108:	1c000000 	stcne	0, cr0, [r0], {-0}
     10c:	06000000 	streq	r0, [r0], -r0
     110:	a2000300 	andge	r0, r0, #0, 6
     114:	009f0000 	addseq	r0, pc, r0
	...
     120:	14000000 	strne	r0, [r0], #-0
     124:	18000001 	stmdane	r0, {r0}
     128:	01000001 	tsteq	r0, r1
     12c:	01185000 	tsteq	r8, r0
     130:	011b0000 	tsteq	fp, r0
     134:	00010000 	andeq	r0, r1, r0
     138:	00000051 	andeq	r0, r0, r1, asr r0
	...
     144:	f8000000 			; <UNDEFINED> instruction: 0xf8000000
     148:	08000002 	stmdaeq	r0, {r1}
     14c:	01000003 	tsteq	r0, r3
     150:	03085000 	movweq	r5, #32768	; 0x8000
     154:	03b00000 	movseq	r0, #0, 0
     158:	00010000 	andeq	r0, r1, r0
     15c:	0003b055 	andeq	fp, r3, r5, asr r0
     160:	0003bc00 	andeq	fp, r3, r0, lsl #24
     164:	f3000400 	vshl.u8	d0, d0, d0
     168:	009f5001 	addseq	r5, pc, r1
	...
     178:	00031800 	andeq	r1, r3, r0, lsl #16
     17c:	00032300 	andeq	r2, r3, r0, lsl #6
     180:	50000100 	andpl	r0, r0, r0, lsl #2
     184:	00000323 	andeq	r0, r0, r3, lsr #6
     188:	000003b0 			; <UNDEFINED> instruction: 0x000003b0
     18c:	b0540001 	subslt	r0, r4, r1
     190:	bc000003 	stclt	0, cr0, [r0], {3}
     194:	05000003 	streq	r0, [r0, #-3]
     198:	aba80300 	blge	fea00da0 <__bss_end__+0xfe9f5dd0>
	...
     1a4:	00020000 	andeq	r0, r2, r0
     1a8:	03240000 			; <UNDEFINED> instruction: 0x03240000
     1ac:	03280000 			; <UNDEFINED> instruction: 0x03280000
     1b0:	00020000 	andeq	r0, r2, r0
     1b4:	03289f30 			; <UNDEFINED> instruction: 0x03289f30
     1b8:	03580000 	cmpeq	r8, #0, 0
     1bc:	00010000 	andeq	r0, r1, r0
     1c0:	00000053 	andeq	r0, r0, r3, asr r0
	...
     1cc:	00016c00 	andeq	r6, r1, r0, lsl #24
     1d0:	00017c00 	andeq	r7, r1, r0, lsl #24
     1d4:	50000100 	andpl	r0, r0, r0, lsl #2
     1d8:	0000017c 	andeq	r0, r0, ip, ror r1
     1dc:	000002f8 	strdeq	r0, [r0], -r8
     1e0:	00550001 	subseq	r0, r5, r1
     1e4:	00000000 	andeq	r0, r0, r0
     1e8:	01000000 	mrseq	r0, (UNDEF: 0)
     1ec:	00000202 	andeq	r0, r0, r2, lsl #4
     1f0:	00000000 	andeq	r0, r0, r0
     1f4:	00018000 	andeq	r8, r1, r0
     1f8:	00018000 	andeq	r8, r1, r0
     1fc:	55000100 	strpl	r0, [r0, #-256]	; 0xffffff00
     200:	00000180 	andeq	r0, r0, r0, lsl #3
     204:	000001bc 			; <UNDEFINED> instruction: 0x000001bc
     208:	d8750004 	ldmdale	r5!, {r2}^
     20c:	01bc9f7e 			; <UNDEFINED> instruction: 0x01bc9f7e
     210:	01f40000 	mvnseq	r0, r0
     214:	00010000 	andeq	r0, r1, r0
     218:	0001f459 	andeq	pc, r1, r9, asr r4	; <UNPREDICTABLE>
     21c:	00021800 	andeq	r1, r2, r0, lsl #16
     220:	75000400 	strvc	r0, [r0, #-1024]	; 0xfffffc00
     224:	189f7ed8 	ldmne	pc, {r3, r4, r6, r7, r9, sl, fp, ip, sp, lr}	; <UNPREDICTABLE>
     228:	f8000002 			; <UNDEFINED> instruction: 0xf8000002
     22c:	01000002 	tsteq	r0, r2
     230:	00005900 	andeq	r5, r0, r0, lsl #18
	...
     240:	000001c0 	andeq	r0, r0, r0, asr #3
     244:	000001f4 	strdeq	r0, [r0], -r4
     248:	18540001 	ldmdane	r4, {r0}^
     24c:	30000002 	andcc	r0, r0, r2
     250:	01000002 	tsteq	r0, r2
     254:	02445400 	subeq	r5, r4, #0, 8
     258:	02f80000 	rscseq	r0, r8, #0, 0
     25c:	00010000 	andeq	r0, r1, r0
     260:	00000054 	andeq	r0, r0, r4, asr r0
     264:	00000000 	andeq	r0, r0, r0
     268:	68000000 	stmdavs	r0, {}	; <UNPREDICTABLE>
     26c:	84000002 	strhi	r0, [r0], #-2
     270:	01000002 	tsteq	r0, r2
     274:	00005300 	andeq	r5, r0, r0, lsl #6
	...
     28c:	00000020 	andeq	r0, r0, r0, lsr #32
     290:	00000038 	andeq	r0, r0, r8, lsr r0
     294:	38500001 	ldmdacc	r0, {r0}^
     298:	40000000 	andmi	r0, r0, r0
     29c:	01000000 	mrseq	r0, (UNDEF: 0)
     2a0:	00405300 	subeq	r5, r0, r0, lsl #6
     2a4:	00680000 	rsbeq	r0, r8, r0
     2a8:	00040000 	andeq	r0, r4, r0
     2ac:	9f5001f3 	svcls	0x005001f3
     2b0:	00000068 	andeq	r0, r0, r8, rrx
     2b4:	00000080 	andeq	r0, r0, r0, lsl #1
     2b8:	80500001 	subshi	r0, r0, r1
     2bc:	88000000 	stmdahi	r0, {}	; <UNPREDICTABLE>
     2c0:	04000000 	streq	r0, [r0], #-0
     2c4:	5001f300 	andpl	pc, r1, r0, lsl #6
     2c8:	0000889f 	muleq	r0, pc, r8	; <UNPREDICTABLE>
     2cc:	00009400 	andeq	r9, r0, r0, lsl #8
     2d0:	53000100 	movwpl	r0, #256	; 0x100
     2d4:	00000094 	muleq	r0, r4, r0
     2d8:	000000c4 	andeq	r0, r0, r4, asr #1
     2dc:	01f30004 	mvnseq	r0, r4
     2e0:	00009f50 	andeq	r9, r0, r0, asr pc
	...
     2f4:	00200000 	eoreq	r0, r0, r0
     2f8:	00400000 	subeq	r0, r0, r0
     2fc:	00010000 	andeq	r0, r1, r0
     300:	00004051 	andeq	r4, r0, r1, asr r0
     304:	00006800 	andeq	r6, r0, r0, lsl #16
     308:	54000100 	strpl	r0, [r0], #-256	; 0xffffff00
     30c:	00000068 	andeq	r0, r0, r8, rrx
     310:	0000007c 	andeq	r0, r0, ip, ror r0
     314:	7c510001 	mrrcvc	0, 0, r0, r1, cr1
     318:	88000000 	stmdahi	r0, {}	; <UNPREDICTABLE>
     31c:	04000000 	streq	r0, [r0], #-0
     320:	5101f300 	mrspl	pc, SP_irq	; <UNPREDICTABLE>
     324:	0000889f 	muleq	r0, pc, r8	; <UNPREDICTABLE>
     328:	00009400 	andeq	r9, r0, r0, lsl #8
     32c:	51000100 	mrspl	r0, (UNDEF: 16)
     330:	00000094 	muleq	r0, r4, r0
     334:	000000c4 	andeq	r0, r0, r4, asr #1
     338:	00540001 	subseq	r0, r4, r1
	...
     344:	00010000 	andeq	r0, r1, r0
     348:	38000000 	stmdacc	r0, {}	; <UNPREDICTABLE>
     34c:	47000000 	strmi	r0, [r0, -r0]
     350:	01000000 	mrseq	r0, (UNDEF: 0)
     354:	00475000 	subeq	r5, r7, r0
     358:	00600000 	rsbeq	r0, r0, r0
     35c:	00010000 	andeq	r0, r1, r0
     360:	00008855 	andeq	r8, r0, r5, asr r8
     364:	00009400 	andeq	r9, r0, r0, lsl #8
     368:	50000100 	andpl	r0, r0, r0, lsl #2
     36c:	00000094 	muleq	r0, r4, r0
     370:	000000c4 	andeq	r0, r0, r4, asr #1
     374:	00550001 	subseq	r0, r5, r1
	...
     380:	48000001 	stmdami	r0, {r0}
     384:	60000000 	andvs	r0, r0, r0
     388:	01000000 	mrseq	r0, (UNDEF: 0)
     38c:	00945000 	addseq	r5, r4, r0
     390:	00a80000 	adceq	r0, r8, r0
     394:	00010000 	andeq	r0, r1, r0
     398:	00000050 	andeq	r0, r0, r0, asr r0
	...
     3a4:	00011400 	andeq	r1, r1, r0, lsl #8
     3a8:	00011f00 	andeq	r1, r1, r0, lsl #30
     3ac:	50000100 	andpl	r0, r0, r0, lsl #2
     3b0:	0000011f 	andeq	r0, r0, pc, lsl r1
     3b4:	0000016c 	andeq	r0, r0, ip, ror #2
     3b8:	00550001 	subseq	r0, r5, r1
	...
     3c8:	24000000 	strcs	r0, [r0], #-0
     3cc:	37000001 	strcc	r0, [r0, -r1]
     3d0:	01000001 	tsteq	r0, r1
     3d4:	01375000 	teqeq	r7, r0
     3d8:	014c0000 	mrseq	r0, (UNDEF: 76)
     3dc:	00010000 	andeq	r0, r1, r0
     3e0:	00014c54 	andeq	r4, r1, r4, asr ip
     3e4:	00015000 	andeq	r5, r1, r0
     3e8:	50000100 	andpl	r0, r0, r0, lsl #2
     3ec:	00000150 	andeq	r0, r0, r0, asr r1
     3f0:	0000016c 	andeq	r0, r0, ip, ror #2
     3f4:	00540001 	subseq	r0, r4, r1
	...
     400:	e4000000 	str	r0, [r0], #-0
     404:	f3000000 	vhadd.u8	d0, d0, d0
     408:	01000000 	mrseq	r0, (UNDEF: 0)
     40c:	00f35000 	rscseq	r5, r3, r0
     410:	01140000 	tsteq	r4, r0
     414:	00010000 	andeq	r0, r1, r0
     418:	00000056 	andeq	r0, r0, r6, asr r0
	...
     424:	0000e400 	andeq	lr, r0, r0, lsl #8
     428:	0000f300 	andeq	pc, r0, r0, lsl #6
     42c:	51000100 	mrspl	r0, (UNDEF: 16)
     430:	000000f3 	strdeq	r0, [r0], -r3
     434:	00000114 	andeq	r0, r0, r4, lsl r1
     438:	00540001 	subseq	r0, r4, r1
	...
     444:	f8000000 			; <UNDEFINED> instruction: 0xf8000000
     448:	fc000000 	stc2	0, cr0, [r0], {-0}
     44c:	01000000 	mrseq	r0, (UNDEF: 0)
     450:	00fc5000 	rscseq	r5, ip, r0
     454:	01140000 	tsteq	r4, r0
     458:	00010000 	andeq	r0, r1, r0
     45c:	00000055 	andeq	r0, r0, r5, asr r0
	...
     468:	0c000001 	stceq	0, cr0, [r0], {1}
     46c:	01000001 	tsteq	r0, r1
     470:	00005000 	andeq	r5, r0, r0
	...
     47c:	00cc0000 	sbceq	r0, ip, r0
     480:	00d70000 	sbcseq	r0, r7, r0
     484:	00010000 	andeq	r0, r1, r0
     488:	0000d750 	andeq	sp, r0, r0, asr r7
     48c:	0000e400 	andeq	lr, r0, r0, lsl #8
     490:	54000100 	strpl	r0, [r0], #-256	; 0xffffff00
	...
     49c:	00d80000 	sbcseq	r0, r8, r0
     4a0:	00dc0000 	sbcseq	r0, ip, r0
     4a4:	00010000 	andeq	r0, r1, r0
     4a8:	00000054 	andeq	r0, r0, r4, asr r0
	...
     4b4:	0000c400 	andeq	ip, r0, r0, lsl #8
     4b8:	0000c800 	andeq	ip, r0, r0, lsl #16
     4bc:	50000100 	andpl	r0, r0, r0, lsl #2
     4c0:	000000c8 	andeq	r0, r0, r8, asr #1
     4c4:	000000cc 	andeq	r0, r0, ip, asr #1
     4c8:	d8700004 	ldmdale	r0!, {r2}^
     4cc:	00009f7e 	andeq	r9, r0, lr, ror pc
	...
     4d8:	00100000 	andseq	r0, r0, r0
     4dc:	001c0000 	andseq	r0, ip, r0
     4e0:	00010000 	andeq	r0, r1, r0
     4e4:	00001c50 	andeq	r1, r0, r0, asr ip
     4e8:	00002000 	andeq	r2, r0, r0
     4ec:	f3000400 	vshl.u8	d0, d0, d0
     4f0:	009f5001 	addseq	r5, pc, r1
	...
     504:	00006c00 	andeq	r6, r0, r0, lsl #24
     508:	50000100 	andpl	r0, r0, r0, lsl #2
     50c:	0000006c 	andeq	r0, r0, ip, rrx
     510:	00000074 	andeq	r0, r0, r4, ror r0
     514:	08710003 	ldmdaeq	r1!, {r0, r1}^
     518:	0000749f 	muleq	r0, pc, r4	; <UNPREDICTABLE>
     51c:	00008800 	andeq	r8, r0, r0, lsl #16
     520:	f3000400 	vshl.u8	d0, d0, d0
     524:	009f5001 	addseq	r5, pc, r1
	...
     530:	0c000000 	stceq	0, cr0, [r0], {-0}
     534:	74000000 	strvc	r0, [r0], #-0
     538:	01000000 	mrseq	r0, (UNDEF: 0)
     53c:	00745100 	rsbseq	r5, r4, r0, lsl #2
     540:	00880000 	addeq	r0, r8, r0
     544:	00060000 	andeq	r0, r6, r0
     548:	385001f3 	ldmdacc	r0, {r0, r1, r4, r5, r6, r7, r8}^
     54c:	00009f1c 	andeq	r9, r0, ip, lsl pc
	...
     558:	00000010 	andeq	r0, r0, r0, lsl r0
     55c:	00000088 	andeq	r0, r0, r8, lsl #1
     560:	00530001 	subseq	r0, r3, r1
	...
     570:	88000000 	stmdahi	r0, {}	; <UNPREDICTABLE>
     574:	ac000000 	stcge	0, cr0, [r0], {-0}
     578:	01000000 	mrseq	r0, (UNDEF: 0)
     57c:	00ac5000 	adceq	r5, ip, r0
     580:	015c0000 	cmpeq	ip, r0
     584:	00040000 	andeq	r0, r4, r0
     588:	9f5001f3 	svcls	0x005001f3
     58c:	0000015c 	andeq	r0, r0, ip, asr r1
     590:	00000168 	andeq	r0, r0, r8, ror #2
     594:	68500001 	ldmdavs	r0, {r0}^
     598:	88000001 	stmdahi	r0, {r0}
     59c:	04000001 	streq	r0, [r0], #-1
     5a0:	5001f300 	andpl	pc, r1, r0, lsl #6
     5a4:	0000009f 	muleq	r0, pc, r0	; <UNPREDICTABLE>
	...
     5b4:	01010101 	tsteq	r1, r1, lsl #2
     5b8:	00000200 	andeq	r0, r0, r0, lsl #4
     5bc:	0000ac00 	andeq	sl, r0, r0, lsl #24
     5c0:	0000b800 	andeq	fp, r0, r0, lsl #16
     5c4:	50000100 	andpl	r0, r0, r0, lsl #2
     5c8:	000000c4 	andeq	r0, r0, r4, asr #1
     5cc:	000000c8 	andeq	r0, r0, r8, asr #1
     5d0:	c8530001 	ldmdagt	r3, {r0}^
     5d4:	d4000000 	strle	r0, [r0], #-0
     5d8:	01000000 	mrseq	r0, (UNDEF: 0)
     5dc:	01105000 	tsteq	r0, r0
     5e0:	01200000 			; <UNDEFINED> instruction: 0x01200000
     5e4:	00010000 	andeq	r0, r1, r0
     5e8:	00012053 	andeq	r2, r1, r3, asr r0
     5ec:	00013c00 	andeq	r3, r1, r0, lsl #24
     5f0:	50000100 	andpl	r0, r0, r0, lsl #2
     5f4:	0000013c 	andeq	r0, r0, ip, lsr r1
     5f8:	00000140 	andeq	r0, r0, r0, asr #2
     5fc:	00720008 	rsbseq	r0, r2, r8
     600:	00702433 	rsbseq	r2, r0, r3, lsr r4
     604:	01749f22 	cmneq	r4, r2, lsr #30
     608:	01780000 	cmneq	r8, r0
     60c:	00060000 	andeq	r0, r6, r0
     610:	00abb803 	adceq	fp, fp, r3, lsl #16
     614:	01789f00 	cmneq	r8, r0, lsl #30
     618:	01880000 	orreq	r0, r8, r0
     61c:	00010000 	andeq	r0, r1, r0
     620:	00000050 	andeq	r0, r0, r0, asr r0
     624:	00000000 	andeq	r0, r0, r0
     628:	02000100 	andeq	r0, r0, #0
     62c:	00000100 	andeq	r0, r0, r0, lsl #2
     630:	00000101 	andeq	r0, r0, r1, lsl #2
     634:	0000a400 	andeq	sl, r0, r0, lsl #8
     638:	0000b800 	andeq	fp, r0, r0, lsl #16
     63c:	51000100 	mrspl	r0, (UNDEF: 16)
     640:	000000c4 	andeq	r0, r0, r4, asr #1
     644:	000000d4 	ldrdeq	r0, [r0], -r4
     648:	20530001 	subscs	r0, r3, r1
     64c:	2c000001 	stccs	0, cr0, [r0], {1}
     650:	01000001 	tsteq	r0, r1
     654:	015c5300 	cmpeq	ip, r0, lsl #6
     658:	015c0000 	cmpeq	ip, r0
     65c:	00010000 	andeq	r0, r1, r0
     660:	00015c51 	andeq	r5, r1, r1, asr ip
     664:	00017800 	andeq	r7, r1, r0, lsl #16
     668:	03000600 	movweq	r0, #1536	; 0x600
     66c:	0000abb8 			; <UNDEFINED> instruction: 0x0000abb8
     670:	0001789f 	muleq	r1, pc, r8	; <UNPREDICTABLE>
     674:	00018800 	andeq	r8, r1, r0, lsl #16
     678:	51000100 	mrspl	r0, (UNDEF: 16)
	...
     684:	00a40000 	adceq	r0, r4, r0
     688:	01880000 	orreq	r0, r8, r0
     68c:	00010000 	andeq	r0, r1, r0
     690:	00000054 	andeq	r0, r0, r4, asr r0
     694:	00000000 	andeq	r0, r0, r0
     698:	e0000200 	and	r0, r0, r0, lsl #4
     69c:	10000000 	andne	r0, r0, r0
     6a0:	04000001 	streq	r0, [r0], #-1
     6a4:	80000a00 	andhi	r0, r0, r0, lsl #20
     6a8:	0000009f 	muleq	r0, pc, r0	; <UNPREDICTABLE>
	...
     6b4:	0000f800 	andeq	pc, r0, r0, lsl #16
     6b8:	00010000 	andeq	r0, r1, r0
     6bc:	50000100 	andpl	r0, r0, r0, lsl #2
     6c0:	00000100 	andeq	r0, r0, r0, lsl #2
     6c4:	0000010b 	andeq	r0, r0, fp, lsl #2
     6c8:	00530001 	subseq	r0, r3, r1
     6cc:	00000000 	andeq	r0, r0, r0
     6d0:	01000000 	mrseq	r0, (UNDEF: 0)
     6d4:	f8000000 			; <UNDEFINED> instruction: 0xf8000000
     6d8:	00000000 	andeq	r0, r0, r0
     6dc:	01000001 	tsteq	r0, r1
     6e0:	01005000 	mrseq	r5, (UNDEF: 0)
     6e4:	010b0000 	mrseq	r0, (UNDEF: 11)
     6e8:	00010000 	andeq	r0, r1, r0
     6ec:	00000053 	andeq	r0, r0, r3, asr r0
     6f0:	00000000 	andeq	r0, r0, r0
     6f4:	d0000200 	andle	r0, r0, r0, lsl #4
     6f8:	dc000004 	stcle	0, cr0, [r0], {4}
     6fc:	01000004 	tsteq	r0, r4
     700:	00005500 	andeq	r5, r0, r0, lsl #10
     704:	00000000 	andeq	r0, r0, r0
     708:	00030000 	andeq	r0, r3, r0
     70c:	00000000 	andeq	r0, r0, r0
     710:	04640000 	strbteq	r0, [r4], #-0
     714:	049c0000 	ldreq	r0, [ip], #0
     718:	00020000 	andeq	r0, r2, r0
     71c:	049c9f30 	ldreq	r9, [ip], #3888	; 0xf30
     720:	04bc0000 	ldrteq	r0, [ip], #0
     724:	00010000 	andeq	r0, r1, r0
     728:	0004dc56 	andeq	sp, r4, r6, asr ip
     72c:	00052c00 	andeq	r2, r5, r0, lsl #24
     730:	56000100 	strpl	r0, [r0], -r0, lsl #2
     734:	0000052c 	andeq	r0, r0, ip, lsr #10
     738:	00000558 	andeq	r0, r0, r8, asr r5
     73c:	9f300002 	svcls	0x00300002
	...
     748:	00000003 	andeq	r0, r0, r3
     74c:	00000000 	andeq	r0, r0, r0
     750:	00000464 	andeq	r0, r0, r4, ror #8
     754:	0000049c 	muleq	r0, ip, r4
     758:	9f300002 	svcls	0x00300002
     75c:	0000049c 	muleq	r0, ip, r4
     760:	000004bc 			; <UNDEFINED> instruction: 0x000004bc
     764:	dc570001 	mrrcle	0, 0, r0, r7, cr1
     768:	2c000004 	stccs	0, cr0, [r0], {4}
     76c:	01000005 	tsteq	r0, r5
     770:	052c5700 	streq	r5, [ip, #-1792]!	; 0xfffff900
     774:	05580000 	ldrbeq	r0, [r8, #-0]
     778:	00020000 	andeq	r0, r2, r0
     77c:	00009f30 	andeq	r9, r0, r0, lsr pc
     780:	00000000 	andeq	r0, r0, r0
     784:	00030000 	andeq	r0, r3, r0
     788:	00000000 	andeq	r0, r0, r0
     78c:	00000001 	andeq	r0, r0, r1
     790:	00000464 	andeq	r0, r0, r4, ror #8
     794:	0000049c 	muleq	r0, ip, r4
     798:	9f300002 	svcls	0x00300002
     79c:	0000049c 	muleq	r0, ip, r4
     7a0:	000004bc 			; <UNDEFINED> instruction: 0x000004bc
     7a4:	dc550001 	mrrcle	0, 0, r0, r5, cr1
     7a8:	04000004 	streq	r0, [r0], #-4
     7ac:	01000005 	tsteq	r0, r5
     7b0:	05245500 	streq	r5, [r4, #-1280]!	; 0xfffffb00
     7b4:	052c0000 	streq	r0, [ip, #-0]!
     7b8:	00010000 	andeq	r0, r1, r0
     7bc:	00052c55 	andeq	r2, r5, r5, asr ip
     7c0:	00055800 	andeq	r5, r5, r0, lsl #16
     7c4:	30000200 	andcc	r0, r0, r0, lsl #4
     7c8:	0000009f 	muleq	r0, pc, r0	; <UNPREDICTABLE>
	...
     7d8:	07070000 	streq	r0, [r7, -r0]
     7dc:	00047c00 	andeq	r7, r4, r0, lsl #24
     7e0:	00049c00 	andeq	r9, r4, r0, lsl #24
     7e4:	50000100 	andpl	r0, r0, r0, lsl #2
     7e8:	0000049c 	muleq	r0, ip, r4
     7ec:	000004b4 			; <UNDEFINED> instruction: 0x000004b4
     7f0:	b4540001 	ldrblt	r0, [r4], #-1
     7f4:	bc000004 	stclt	0, cr0, [r0], {4}
     7f8:	01000004 	tsteq	r0, r4
     7fc:	04dc5000 	ldrbeq	r5, [ip], #0
     800:	05200000 	streq	r0, [r0, #-0]!
     804:	00010000 	andeq	r0, r1, r0
     808:	00052054 	andeq	r2, r5, r4, asr r0
     80c:	00052400 	andeq	r2, r5, r0, lsl #8
     810:	7b000400 	blvc	1818 <__code_start__-0x67e8>
     814:	249f7ed8 	ldrcs	r7, [pc], #3800	; 81c <__code_start__-0x77e4>
     818:	58000005 	stmdapl	r0, {r0, r2}
     81c:	01000005 	tsteq	r0, r5
     820:	00005000 	andeq	r5, r0, r0
     824:	00000000 	andeq	r0, r0, r0
     828:	04020000 	streq	r0, [r2], #-0
     82c:	00000524 	andeq	r0, r0, r4, lsr #10
     830:	00000524 	andeq	r0, r0, r4, lsr #10
     834:	010a0004 	tsteq	sl, r4
     838:	00009f01 	andeq	r9, r0, r1, lsl #30
     83c:	00000000 	andeq	r0, r0, r0
     840:	04020000 	streq	r0, [r2], #-0
     844:	00000524 	andeq	r0, r0, r4, lsr #10
     848:	00000524 	andeq	r0, r0, r4, lsr #10
     84c:	9ff20006 	svcls	0x00f20006
     850:	0000001d 	andeq	r0, r0, sp, lsl r0
	...
     85c:	05240402 	streq	r0, [r4, #-1026]!	; 0xfffffbfe
     860:	05240000 	streq	r0, [r4, #-0]!
     864:	00060000 	andeq	r0, r6, r0
     868:	00a4bc03 	adceq	fp, r4, r3, lsl #24
     86c:	00009f00 	andeq	r9, r0, r0, lsl #30
	...
     87c:	00000414 	andeq	r0, r0, r4, lsl r4
     880:	00000424 	andeq	r0, r0, r4, lsr #8
     884:	24500001 	ldrbcs	r0, [r0], #-1
     888:	27000004 	strcs	r0, [r0, -r4]
     88c:	01000004 	tsteq	r0, r4
     890:	04275100 	strteq	r5, [r7], #-256	; 0xffffff00
     894:	04580000 	ldrbeq	r0, [r8], #-0
     898:	00010000 	andeq	r0, r1, r0
     89c:	00000054 	andeq	r0, r0, r4, asr r0
     8a0:	00000000 	andeq	r0, r0, r0
     8a4:	0c000200 	sfmeq	f0, 4, [r0], {-0}
     8a8:	14000004 	strne	r0, [r0], #-4
     8ac:	02000004 	andeq	r0, r0, #4, 0
     8b0:	009f3100 	addseq	r3, pc, r0, lsl #2
     8b4:	00000000 	andeq	r0, r0, r0
     8b8:	02000000 	andeq	r0, r0, #0, 0
     8bc:	0003c400 	andeq	ip, r3, r0, lsl #8
     8c0:	0003cc00 	andeq	ip, r3, r0, lsl #24
     8c4:	31000200 	mrscc	r0, R8_usr
     8c8:	0000009f 	muleq	r0, pc, r0	; <UNPREDICTABLE>
	...
     8d4:	00020000 	andeq	r0, r2, r0
     8d8:	00020c00 	andeq	r0, r2, r0, lsl #24
     8dc:	50000100 	andpl	r0, r0, r0, lsl #2
     8e0:	0000020c 	andeq	r0, r0, ip, lsl #4
     8e4:	00000320 	andeq	r0, r0, r0, lsr #6
     8e8:	00580001 	subseq	r0, r8, r1
     8ec:	00000000 	andeq	r0, r0, r0
     8f0:	02000000 	andeq	r0, r0, #0, 0
     8f4:	00000000 	andeq	r0, r0, r0
     8f8:	00020000 	andeq	r0, r2, r0
     8fc:	40000002 	andmi	r0, r0, r2
     900:	02000002 	andeq	r0, r0, #2, 0
     904:	409f3000 	addsmi	r3, pc, r0
     908:	b0000002 	andlt	r0, r0, r2
     90c:	01000002 	tsteq	r0, r2
     910:	02c85500 	sbceq	r5, r8, #0, 10
     914:	02e00000 	rsceq	r0, r0, #0, 0
     918:	00010000 	andeq	r0, r1, r0
     91c:	0002e055 	andeq	lr, r2, r5, asr r0
     920:	0002ec00 	andeq	lr, r2, r0, lsl #24
     924:	30000200 	andcc	r0, r0, r0, lsl #4
     928:	0000009f 	muleq	r0, pc, r0	; <UNPREDICTABLE>
     92c:	00000000 	andeq	r0, r0, r0
     930:	00000200 	andeq	r0, r0, r0, lsl #4
     934:	00000000 	andeq	r0, r0, r0
     938:	00020002 	andeq	r0, r2, r2
     93c:	00024000 	andeq	r4, r2, r0
     940:	30000200 	andcc	r0, r0, r0, lsl #4
     944:	0002409f 	muleq	r2, pc, r0	; <UNPREDICTABLE>
     948:	0002b000 	andeq	fp, r2, r0
     94c:	56000100 	strpl	r0, [r0], -r0, lsl #2
     950:	000002c8 	andeq	r0, r0, r8, asr #5
     954:	000002e0 	andeq	r0, r0, r0, ror #5
     958:	e0560001 	subs	r0, r6, r1
     95c:	ec000002 	stc	0, cr0, [r0], {2}
     960:	02000002 	andeq	r0, r0, #2, 0
     964:	009f3000 	addseq	r3, pc, r0
     968:	00000000 	andeq	r0, r0, r0
     96c:	02000000 	andeq	r0, r0, #0, 0
     970:	00000000 	andeq	r0, r0, r0
     974:	00020000 	andeq	r0, r2, r0
     978:	40000002 	andmi	r0, r0, r2
     97c:	02000002 	andeq	r0, r0, #2, 0
     980:	409f3000 	addsmi	r3, pc, r0
     984:	b0000002 	andlt	r0, r0, r2
     988:	01000002 	tsteq	r0, r2
     98c:	02c85700 	sbceq	r5, r8, #0, 14
     990:	02e00000 	rsceq	r0, r0, #0, 0
     994:	00010000 	andeq	r0, r1, r0
     998:	0002e057 	andeq	lr, r2, r7, asr r0
     99c:	0002ec00 	andeq	lr, r2, r0, lsl #24
     9a0:	30000200 	andcc	r0, r0, r0, lsl #4
     9a4:	0000009f 	muleq	r0, pc, r0	; <UNPREDICTABLE>
	...
     9b4:	02000000 	andeq	r0, r0, #0, 0
	...
     9c0:	20000000 	andcs	r0, r0, r0
     9c4:	48000002 	stmdami	r0, {r1}
     9c8:	01000002 	tsteq	r0, r2
     9cc:	02485000 	subeq	r5, r8, #0, 0
     9d0:	02500000 	subseq	r0, r0, #0, 0
     9d4:	00010000 	andeq	r0, r1, r0
     9d8:	00025054 	andeq	r5, r2, r4, asr r0
     9dc:	00027400 	andeq	r7, r2, r0, lsl #8
     9e0:	50000100 	andpl	r0, r0, r0, lsl #2
     9e4:	00000274 	andeq	r0, r0, r4, ror r2
     9e8:	00000277 	andeq	r0, r0, r7, ror r2
     9ec:	77520001 	ldrbvc	r0, [r2, -r1]
     9f0:	84000002 	strhi	r0, [r0], #-2
     9f4:	01000002 	tsteq	r0, r2
     9f8:	02885400 	addeq	r5, r8, #0, 8
     9fc:	02940000 	addseq	r0, r4, #0, 0
     a00:	00010000 	andeq	r0, r1, r0
     a04:	00029450 	andeq	r9, r2, r0, asr r4
     a08:	0002c800 	andeq	ip, r2, r0, lsl #16
     a0c:	54000100 	strpl	r0, [r0], #-256	; 0xffffff00
     a10:	000002c8 	andeq	r0, r0, r8, asr #5
     a14:	000002d4 	ldrdeq	r0, [r0], -r4
     a18:	d4500001 	ldrble	r0, [r0], #-1
     a1c:	e0000002 	and	r0, r0, r2
     a20:	01000002 	tsteq	r0, r2
     a24:	02e05400 	rsceq	r5, r0, #0, 8
     a28:	02e80000 	rsceq	r0, r8, #0, 0
     a2c:	00010000 	andeq	r0, r1, r0
     a30:	0002e850 	andeq	lr, r2, r0, asr r8
     a34:	00032000 	andeq	r2, r3, r0
     a38:	54000100 	strpl	r0, [r0], #-256	; 0xffffff00
	...
     a48:	00000168 	andeq	r0, r0, r8, ror #2
     a4c:	00000183 	andeq	r0, r0, r3, lsl #3
     a50:	84500001 	ldrbhi	r0, [r0], #-1
     a54:	90000001 	andls	r0, r0, r1
     a58:	01000001 	tsteq	r0, r1
     a5c:	00005000 	andeq	r5, r0, r0
	...
     a74:	03200000 	nopeq	{0}	; <UNPREDICTABLE>
     a78:	034c0000 	movteq	r0, #49152	; 0xc000
     a7c:	00010000 	andeq	r0, r1, r0
     a80:	00034c50 	andeq	r4, r3, r0, asr ip
     a84:	00036800 	andeq	r6, r3, r0, lsl #16
     a88:	54000100 	strpl	r0, [r0], #-256	; 0xffffff00
     a8c:	00000368 	andeq	r0, r0, r8, ror #6
     a90:	0000036b 	andeq	r0, r0, fp, ror #6
     a94:	6b500001 	blvs	1400aa0 <__bss_end__+0x13f5ad0>
     a98:	6c000003 	stcvs	0, cr0, [r0], {3}
     a9c:	04000003 	streq	r0, [r0], #-3
     aa0:	5001f300 	andpl	pc, r1, r0, lsl #6
     aa4:	00036c9f 	muleq	r3, pc, ip	; <UNPREDICTABLE>
     aa8:	00038000 	andeq	r8, r3, r0
     aac:	50000100 	andpl	r0, r0, r0, lsl #2
     ab0:	00000380 	andeq	r0, r0, r0, lsl #7
     ab4:	0000038c 	andeq	r0, r0, ip, lsl #7
     ab8:	8c540001 	mrrchi	0, 0, r0, r4, cr1
     abc:	9c000003 	stcls	0, cr0, [r0], {3}
     ac0:	01000003 	tsteq	r0, r3
     ac4:	039c5000 	orrseq	r5, ip, #0, 0
     ac8:	03bc0000 			; <UNDEFINED> instruction: 0x03bc0000
     acc:	00010000 	andeq	r0, r1, r0
     ad0:	00000054 	andeq	r0, r0, r4, asr r0
     ad4:	00000000 	andeq	r0, r0, r0
     ad8:	40000200 	andmi	r0, r0, r0, lsl #4
     adc:	6c000003 	stcvs	0, cr0, [r0], {3}
     ae0:	04000003 	streq	r0, [r0], #-3
     ae4:	24404000 	strbcs	r4, [r0], #-0
     ae8:	0000009f 	muleq	r0, pc, r0	; <UNPREDICTABLE>
	...
     afc:	00004c00 	andeq	r4, r0, r0, lsl #24
     b00:	50000100 	andpl	r0, r0, r0, lsl #2
     b04:	0000004c 	andeq	r0, r0, ip, asr #32
     b08:	00000114 	andeq	r0, r0, r4, lsl r1
     b0c:	01f30004 	mvnseq	r0, r4
     b10:	01149f50 	tsteq	r4, r0, asr pc
     b14:	01280000 			; <UNDEFINED> instruction: 0x01280000
     b18:	00010000 	andeq	r0, r1, r0
     b1c:	00012850 	andeq	r2, r1, r0, asr r8
     b20:	00015c00 	andeq	r5, r1, r0, lsl #24
     b24:	f3000400 	vshl.u8	d0, d0, d0
     b28:	009f5001 	addseq	r5, pc, r1
	...
     b3c:	38000000 	stmdacc	r0, {}	; <UNPREDICTABLE>
     b40:	01000000 	mrseq	r0, (UNDEF: 0)
     b44:	00385100 	eorseq	r5, r8, r0, lsl #2
     b48:	01140000 	tsteq	r4, r0
     b4c:	00040000 	andeq	r0, r4, r0
     b50:	9f5101f3 	svcls	0x005101f3
     b54:	00000114 	andeq	r0, r0, r4, lsl r1
     b58:	00000120 	andeq	r0, r0, r0, lsr #2
     b5c:	20510001 	subscs	r0, r1, r1
     b60:	5c000001 	stcpl	0, cr0, [r0], {1}
     b64:	04000001 	streq	r0, [r0], #-1
     b68:	5101f300 	mrspl	pc, SP_irq	; <UNPREDICTABLE>
     b6c:	0000009f 	muleq	r0, pc, r0	; <UNPREDICTABLE>
	...
     b78:	00000202 	andeq	r0, r0, r2, lsl #4
     b7c:	00000202 	andeq	r0, r0, r2, lsl #4
     b80:	58000202 	stmdapl	r0, {r1, r9}
     b84:	60000000 	andvs	r0, r0, r0
     b88:	01000000 	mrseq	r0, (UNDEF: 0)
     b8c:	00605400 	rsbeq	r5, r0, r0, lsl #8
     b90:	00d00000 	sbcseq	r0, r0, r0
     b94:	00010000 	andeq	r0, r1, r0
     b98:	0000d058 	andeq	sp, r0, r8, asr r0
     b9c:	0000e000 	andeq	lr, r0, r0
     ba0:	54000100 	strpl	r0, [r0], #-256	; 0xffffff00
     ba4:	000000e0 	andeq	r0, r0, r0, ror #1
     ba8:	000000e8 	andeq	r0, r0, r8, ror #1
     bac:	e8580001 	ldmda	r8, {r0}^
     bb0:	f4000000 	vst4.8	{d0-d3}, [r0], r0
     bb4:	01000000 	mrseq	r0, (UNDEF: 0)
     bb8:	00f45400 	rscseq	r5, r4, r0, lsl #8
     bbc:	01080000 	mrseq	r0, (UNDEF: 8)
     bc0:	00010000 	andeq	r0, r1, r0
     bc4:	00010858 	andeq	r0, r1, r8, asr r8
     bc8:	00011400 	andeq	r1, r1, r0, lsl #8
     bcc:	54000100 	strpl	r0, [r0], #-256	; 0xffffff00
	...
     be0:	00000074 	andeq	r0, r0, r4, ror r0
     be4:	00000083 	andeq	r0, r0, r3, lsl #1
     be8:	83500001 	cmphi	r0, #1, 0
     bec:	d0000000 	andle	r0, r0, r0
     bf0:	01000000 	mrseq	r0, (UNDEF: 0)
     bf4:	00e05600 	rsceq	r5, r0, r0, lsl #12
     bf8:	00e80000 	rsceq	r0, r8, r0
     bfc:	00010000 	andeq	r0, r1, r0
     c00:	0000f456 	andeq	pc, r0, r6, asr r4	; <UNPREDICTABLE>
     c04:	00010800 	andeq	r0, r1, r0, lsl #16
     c08:	56000100 	strpl	r0, [r0], -r0, lsl #2
	...
     c18:	00000088 	andeq	r0, r0, r8, lsl #1
     c1c:	000000d0 	ldrdeq	r0, [r0], -r0	; <UNPREDICTABLE>
     c20:	e05b0001 	subs	r0, fp, r1
     c24:	14000000 	strne	r0, [r0], #-0
     c28:	01000001 	tsteq	r0, r1
     c2c:	00005b00 	andeq	r5, r0, r0, lsl #22
     c30:	00000000 	andeq	r0, r0, r0
     c34:	00010000 	andeq	r0, r1, r0
     c38:	00880000 	addeq	r0, r8, r0
     c3c:	00d00000 	sbcseq	r0, r0, r0
     c40:	00010000 	andeq	r0, r1, r0
     c44:	0000e059 	andeq	lr, r0, r9, asr r0
     c48:	00011400 	andeq	r1, r1, r0, lsl #8
     c4c:	59000100 	stmdbpl	r0, {r8}
	...
     c58:	00600000 	rsbeq	r0, r0, r0
     c5c:	00730000 	rsbseq	r0, r3, r0
     c60:	00010000 	andeq	r0, r1, r0
     c64:	00000050 	andeq	r0, r0, r0, asr r0
     c68:	00000000 	andeq	r0, r0, r0
     c6c:	60000300 	andvs	r0, r0, r0, lsl #6
     c70:	73000000 	movwvc	r0, #0
     c74:	01000000 	mrseq	r0, (UNDEF: 0)
     c78:	00005000 	andeq	r5, r0, r0
     c7c:	00000000 	andeq	r0, r0, r0
     c80:	00040000 	andeq	r0, r4, r0
     c84:	00000060 	andeq	r0, r0, r0, rrx
     c88:	00000070 	andeq	r0, r0, r0, ror r0
     c8c:	00500001 	subseq	r0, r0, r1
	...
     c98:	bc000000 	stclt	0, cr0, [r0], {-0}
     c9c:	bf000003 	svclt	0x00000003
     ca0:	01000003 	tsteq	r0, r3
     ca4:	03bf5000 			; <UNDEFINED> instruction: 0x03bf5000
     ca8:	03c00000 	biceq	r0, r0, #0, 0
     cac:	00040000 	andeq	r0, r4, r0
     cb0:	9f5001f3 	svcls	0x005001f3
	...
     cc4:	0000001c 	andeq	r0, r0, ip, lsl r0
     cc8:	1c510001 	mrrcne	0, 0, r0, r1, cr1
     ccc:	78000000 	stmdavc	r0, {}	; <UNPREDICTABLE>
     cd0:	04000000 	streq	r0, [r0], #-0
     cd4:	5101f300 	mrspl	pc, SP_irq	; <UNPREDICTABLE>
     cd8:	0000009f 	muleq	r0, pc, r0	; <UNPREDICTABLE>
	...
     ce8:	00005800 	andeq	r5, r0, r0, lsl #16
     cec:	52000100 	andpl	r0, r0, #0
     cf0:	00000058 	andeq	r0, r0, r8, asr r0
     cf4:	00000078 	andeq	r0, r0, r8, ror r0
     cf8:	01f30004 	mvnseq	r0, r4
     cfc:	00009f52 	andeq	r9, r0, r2, asr pc
     d00:	00000000 	andeq	r0, r0, r0
     d04:	00020000 	andeq	r0, r2, r0
     d08:	00010100 	andeq	r0, r1, r0, lsl #2
     d0c:	00010100 	andeq	r0, r1, r0, lsl #2
     d10:	00010100 	andeq	r0, r1, r0, lsl #2
     d14:	00000000 	andeq	r0, r0, r0
     d18:	00000038 	andeq	r0, r0, r8, lsr r0
     d1c:	54500001 	ldrbpl	r0, [r0], #-1
     d20:	54000000 	strpl	r0, [r0], #-0
     d24:	01000000 	mrseq	r0, (UNDEF: 0)
     d28:	00545300 	subseq	r5, r4, r0, lsl #6
     d2c:	005c0000 	subseq	r0, ip, r0
     d30:	00030000 	andeq	r0, r3, r0
     d34:	5c9f0173 	ldfpls	f0, [pc], {115}	; 0x73
     d38:	64000000 	strvs	r0, [r0], #-0
     d3c:	01000000 	mrseq	r0, (UNDEF: 0)
     d40:	00645200 	rsbeq	r5, r4, r0, lsl #4
     d44:	00680000 	rsbeq	r0, r8, r0
     d48:	00030000 	andeq	r0, r3, r0
     d4c:	689f0273 	ldmvs	pc, {r0, r1, r4, r5, r6, r9}	; <UNPREDICTABLE>
     d50:	74000000 	strvc	r0, [r0], #-0
     d54:	01000000 	mrseq	r0, (UNDEF: 0)
     d58:	00745200 	rsbseq	r5, r4, r0, lsl #4
     d5c:	00780000 	rsbseq	r0, r8, r0
     d60:	00030000 	andeq	r0, r3, r0
     d64:	009f0172 	addseq	r0, pc, r2, ror r1	; <UNPREDICTABLE>
	...
     d70:	00000800 	andeq	r0, r0, r0, lsl #16
     d74:	00007800 	andeq	r7, r0, r0, lsl #16
     d78:	54000100 	strpl	r0, [r0], #-256	; 0xffffff00
	...
     d88:	002c0000 	eoreq	r0, ip, r0
     d8c:	00340000 	eorseq	r0, r4, r0
     d90:	00010000 	andeq	r0, r1, r0
     d94:	00003450 	andeq	r3, r0, r0, asr r4
     d98:	00004800 	andeq	r4, r0, r0, lsl #16
     d9c:	54000100 	strpl	r0, [r0], #-256	; 0xffffff00
     da0:	00000048 	andeq	r0, r0, r8, asr #32
     da4:	00000058 	andeq	r0, r0, r8, asr r0
     da8:	00500001 	subseq	r0, r0, r1
	...
     db4:	01010000 	mrseq	r0, (UNDEF: 1)
     db8:	00000000 	andeq	r0, r0, r0
     dbc:	0c000000 	stceq	0, cr0, [r0], {-0}
     dc0:	01000000 	mrseq	r0, (UNDEF: 0)
     dc4:	000c5000 	andeq	r5, ip, r0
     dc8:	00200000 	eoreq	r0, r0, r0
     dcc:	00010000 	andeq	r0, r1, r0
     dd0:	00002054 	andeq	r2, r0, r4, asr r0
     dd4:	00002400 	andeq	r2, r0, r0, lsl #8
     dd8:	74000300 	strvc	r0, [r0], #-768	; 0xfffffd00
     ddc:	00249f01 	eoreq	r9, r4, r1, lsl #30
     de0:	00380000 	eorseq	r0, r8, r0
     de4:	00010000 	andeq	r0, r1, r0
     de8:	00000054 	andeq	r0, r0, r4, asr r0
	...
     df8:	88000000 	stmdahi	r0, {}	; <UNPREDICTABLE>
     dfc:	94000003 	strls	r0, [r0], #-3
     e00:	01000003 	tsteq	r0, r3
     e04:	03945000 	orrseq	r5, r4, #0, 0
     e08:	03d00000 	bicseq	r0, r0, #0, 0
     e0c:	00010000 	andeq	r0, r1, r0
     e10:	0003d05b 	andeq	sp, r3, fp, asr r0
     e14:	00092000 	andeq	r2, r9, r0
     e18:	f3000400 	vshl.u8	d0, d0, d0
     e1c:	209f5001 	addscs	r5, pc, r1
     e20:	28000009 	stmdacs	r0, {r0, r3}
     e24:	01000009 	tsteq	r0, r9
     e28:	09285b00 	stmdbeq	r8!, {r8, r9, fp, ip, lr}
     e2c:	09b40000 	ldmibeq	r4!, {}	; <UNPREDICTABLE>
     e30:	00040000 	andeq	r0, r4, r0
     e34:	9f5001f3 	svcls	0x005001f3
	...
     e48:	00000388 	andeq	r0, r0, r8, lsl #7
     e4c:	000003d0 	ldrdeq	r0, [r0], -r0	; <UNPREDICTABLE>
     e50:	d0510001 	subsle	r0, r1, r1
     e54:	20000003 	andcs	r0, r0, r3
     e58:	04000009 	streq	r0, [r0], #-9
     e5c:	5101f300 	mrspl	pc, SP_irq	; <UNPREDICTABLE>
     e60:	0009209f 	muleq	r9, pc, r0	; <UNPREDICTABLE>
     e64:	00092800 	andeq	r2, r9, r0, lsl #16
     e68:	51000100 	mrspl	r0, (UNDEF: 16)
     e6c:	00000928 	andeq	r0, r0, r8, lsr #18
     e70:	000009b4 			; <UNDEFINED> instruction: 0x000009b4
     e74:	01f30004 	mvnseq	r0, r4
     e78:	00009f51 	andeq	r9, r0, r1, asr pc
	...
     e88:	00000100 	andeq	r0, r0, r0, lsl #2
     e8c:	00000001 	andeq	r0, r0, r1
	...
     e98:	03880000 	orreq	r0, r8, #0, 0
     e9c:	03d00000 	bicseq	r0, r0, #0, 0
     ea0:	00010000 	andeq	r0, r1, r0
     ea4:	0003d052 	andeq	sp, r3, r2, asr r0
     ea8:	00040000 	andeq	r0, r4, r0
     eac:	56000100 	strpl	r0, [r0], -r0, lsl #2
     eb0:	00000414 	andeq	r0, r0, r4, lsl r4
     eb4:	00000424 	andeq	r0, r0, r4, lsr #8
     eb8:	24560001 	ldrbcs	r0, [r6], #-1
     ebc:	28000004 	stmdacs	r0, {r2}
     ec0:	03000004 	movweq	r0, #4
     ec4:	9f7f7600 	svcls	0x007f7600
     ec8:	000004a8 	andeq	r0, r0, r8, lsr #9
     ecc:	000004ac 	andeq	r0, r0, ip, lsr #9
     ed0:	e0560001 	subs	r0, r6, r1
     ed4:	04000004 	streq	r0, [r0], #-4
     ed8:	01000005 	tsteq	r0, r5
     edc:	057c5600 	ldrbeq	r5, [ip, #-1536]!	; 0xfffffa00
     ee0:	05880000 	streq	r0, [r8]
     ee4:	00010000 	andeq	r0, r1, r0
     ee8:	00058853 	andeq	r8, r5, r3, asr r8
     eec:	0005d000 	andeq	sp, r5, r0
     ef0:	91000300 	mrsls	r0, LR_irq
     ef4:	08007dcc 	stmdaeq	r0, {r2, r3, r6, r7, r8, sl, fp, ip, sp, lr}
     ef8:	080f0000 	stmdaeq	pc, {}	; <UNPREDICTABLE>
     efc:	00010000 	andeq	r0, r1, r0
     f00:	00080f53 	andeq	r0, r8, r3, asr pc
     f04:	00088800 	andeq	r8, r8, r0, lsl #16
     f08:	91000300 	mrsls	r0, LR_irq
     f0c:	09207dcc 	stmdbeq	r0!, {r2, r3, r6, r7, r8, sl, fp, ip, sp, lr}
     f10:	09280000 	stmdbeq	r8!, {}	; <UNPREDICTABLE>
     f14:	00010000 	andeq	r0, r1, r0
     f18:	00094852 	andeq	r4, r9, r2, asr r8
     f1c:	00096400 	andeq	r6, r9, r0, lsl #8
     f20:	91000300 	mrsls	r0, LR_irq
     f24:	00007dcc 	andeq	r7, r0, ip, asr #27
	...
     f34:	01000000 	mrseq	r0, (UNDEF: 0)
     f38:	01000001 	tsteq	r0, r1
     f3c:	00000001 	andeq	r0, r0, r1
     f40:	00020200 	andeq	r0, r2, r0, lsl #4
     f44:	00020200 	andeq	r0, r2, r0, lsl #4
     f48:	00010100 	andeq	r0, r1, r0, lsl #2
     f4c:	00020200 	andeq	r0, r2, r0, lsl #4
     f50:	00010100 	andeq	r0, r1, r0, lsl #2
	...
     f5c:	00000388 	andeq	r0, r0, r8, lsl #7
     f60:	000003ac 	andeq	r0, r0, ip, lsr #7
     f64:	ac530001 	mrrcge	0, 0, r0, r3, cr1
     f68:	c0000003 	andgt	r0, r0, r3
     f6c:	03000003 	movweq	r0, #3
     f70:	04935300 	ldreq	r5, [r3], #768	; 0x300
     f74:	000003d0 	ldrdeq	r0, [r0], -r0	; <UNPREDICTABLE>
     f78:	000003e8 	andeq	r0, r0, r8, ror #7
     f7c:	93580003 	cmpls	r8, #3, 0
     f80:	0003e804 	andeq	lr, r3, r4, lsl #16
     f84:	0004ac00 	andeq	sl, r4, r0, lsl #24
     f88:	58000300 	stmdapl	r0, {r8, r9}
     f8c:	04c00493 	strbeq	r0, [r0], #1171	; 0x493
     f90:	04c00000 	strbeq	r0, [r0], #0
     f94:	00030000 	andeq	r0, r3, r0
     f98:	c0049358 	andgt	r9, r4, r8, asr r3
     f9c:	cc000004 	stcgt	0, cr0, [r0], {4}
     fa0:	05000004 	streq	r0, [r0, #-4]
     fa4:	9f047800 	svcls	0x00047800
     fa8:	04cc0493 	strbeq	r0, [ip], #1171	; 0x493
     fac:	04e00000 	strbteq	r0, [r0], #0
     fb0:	00030000 	andeq	r0, r3, r0
     fb4:	e0049358 	and	r9, r4, r8, asr r3
     fb8:	38000004 	stmdacc	r0, {r2}
     fbc:	03000005 	movweq	r0, #5
     fc0:	04935800 	ldreq	r5, [r3], #2048	; 0x800
     fc4:	00000538 	andeq	r0, r0, r8, lsr r5
     fc8:	0000053c 	andeq	r0, r0, ip, lsr r5
     fcc:	79780005 	ldmdbvc	r8!, {r0, r2}^
     fd0:	d004939f 	mulle	r4, pc, r3	; <UNPREDICTABLE>
     fd4:	d0000005 	andle	r0, r0, r5
     fd8:	03000005 	movweq	r0, #5
     fdc:	04935800 	ldreq	r5, [r3], #2048	; 0x800
     fe0:	000005d0 	ldrdeq	r0, [r0], -r0	; <UNPREDICTABLE>
     fe4:	000005d4 	ldrdeq	r0, [r0], -r4
     fe8:	04780005 	ldrbteq	r0, [r8], #-5
     fec:	f404939f 	vst2.32	{d9-d12}, [r4 :64]
     ff0:	f4000005 	vst4.8	{d0-d3}, [r0], r5
     ff4:	03000005 	movweq	r0, #5
     ff8:	04935800 	ldreq	r5, [r3], #2048	; 0x800
     ffc:	000005f4 	strdeq	r0, [r0], -r4
    1000:	000005fc 	strdeq	r0, [r0], -ip
    1004:	04780005 	ldrbteq	r0, [r8], #-5
    1008:	fc04939f 	stc2	3, cr9, [r4], {159}	; 0x9f
    100c:	fc000005 	stc2	0, cr0, [r0], {5}
    1010:	03000005 	movweq	r0, #5
    1014:	04935800 	ldreq	r5, [r3], #2048	; 0x800
    1018:	000005fc 	strdeq	r0, [r0], -ip
    101c:	00000600 	andeq	r0, r0, r0, lsl #12
    1020:	04780005 	ldrbteq	r0, [r8], #-5
    1024:	0004939f 	muleq	r4, pc, r3	; <UNPREDICTABLE>
    1028:	00000006 	andeq	r0, r0, r6
    102c:	03000007 	movweq	r0, #7
    1030:	04935800 	ldreq	r5, [r3], #2048	; 0x800
    1034:	00000700 	andeq	r0, r0, r0, lsl #14
    1038:	0000070c 	andeq	r0, r0, ip, lsl #14
    103c:	04780005 	ldrbteq	r0, [r8], #-5
    1040:	0c04939f 	stceq	3, cr9, [r4], {159}	; 0x9f
    1044:	f8000007 			; <UNDEFINED> instruction: 0xf8000007
    1048:	03000007 	movweq	r0, #7
    104c:	04935800 	ldreq	r5, [r3], #2048	; 0x800
    1050:	000007f8 	strdeq	r0, [r0], -r8
    1054:	000007fc 	strdeq	r0, [r0], -ip
    1058:	04780005 	ldrbteq	r0, [r8], #-5
    105c:	fc04939f 	stc2	3, cr9, [r4], {159}	; 0x9f
    1060:	00000007 	andeq	r0, r0, r7
    1064:	03000008 	movweq	r0, #8
    1068:	04935800 	ldreq	r5, [r3], #2048	; 0x800
    106c:	00000888 	andeq	r0, r0, r8, lsl #17
    1070:	00000920 	andeq	r0, r0, r0, lsr #18
    1074:	93580003 	cmpls	r8, #3, 0
    1078:	00092004 	andeq	r2, r9, r4
    107c:	00092800 	andeq	r2, r9, r0, lsl #16
    1080:	53000100 	movwpl	r0, #256	; 0x100
    1084:	00000964 	andeq	r0, r0, r4, ror #18
    1088:	000009b4 			; <UNDEFINED> instruction: 0x000009b4
    108c:	93580003 	cmpls	r8, #3, 0
    1090:	00000004 	andeq	r0, r0, r4
    1094:	00000000 	andeq	r0, r0, r0
    1098:	00000100 	andeq	r0, r0, r0, lsl #2
    109c:	00000000 	andeq	r0, r0, r0
    10a0:	02020000 	andeq	r0, r2, #0, 0
    10a4:	01000000 	mrseq	r0, (UNDEF: 0)
    10a8:	00000101 	andeq	r0, r0, r1, lsl #2
    10ac:	ac000000 	stcge	0, cr0, [r0], {-0}
    10b0:	d0000003 	andle	r0, r0, r3
    10b4:	01000003 	tsteq	r0, r3
    10b8:	03d05b00 	bicseq	r5, r0, #0, 22
    10bc:	03d40000 	bicseq	r0, r4, #0, 0
    10c0:	00010000 	andeq	r0, r1, r0
    10c4:	0003d454 	andeq	sp, r3, r4, asr r4
    10c8:	0003d800 	andeq	sp, r3, r0, lsl #16
    10cc:	74000300 	strvc	r0, [r0], #-768	; 0xfffffd00
    10d0:	03d89f7f 	bicseq	r9, r8, #508	; 0x1fc
    10d4:	03fc0000 	mvnseq	r0, #0, 0
    10d8:	00010000 	andeq	r0, r1, r0
    10dc:	0004a854 	andeq	sl, r4, r4, asr r8
    10e0:	0004ac00 	andeq	sl, r4, r0, lsl #24
    10e4:	54000100 	strpl	r0, [r0], #-256	; 0xffffff00
    10e8:	000004ac 	andeq	r0, r0, ip, lsr #9
    10ec:	000004b4 			; <UNDEFINED> instruction: 0x000004b4
    10f0:	01740003 	cmneq	r4, r3
    10f4:	0004b49f 	muleq	r4, pc, r4	; <UNPREDICTABLE>
    10f8:	0004c000 	andeq	ip, r4, r0
    10fc:	54000100 	strpl	r0, [r0], #-256	; 0xffffff00
    1100:	000004e4 	andeq	r0, r0, r4, ror #9
    1104:	000004f4 	strdeq	r0, [r0], -r4
    1108:	f4540001 			; <UNDEFINED> instruction: 0xf4540001
    110c:	f8000004 			; <UNDEFINED> instruction: 0xf8000004
    1110:	03000004 	movweq	r0, #4
    1114:	9f017400 	svcls	0x00017400
    1118:	000004f8 	strdeq	r0, [r0], -r8
    111c:	00000504 	andeq	r0, r0, r4, lsl #10
    1120:	20540001 	subscs	r0, r4, r1
    1124:	28000009 	stmdacs	r0, {r0, r3}
    1128:	01000009 	tsteq	r0, r9
    112c:	00005b00 	andeq	r5, r0, r0, lsl #22
    1130:	00000000 	andeq	r0, r0, r0
    1134:	00010000 	andeq	r0, r1, r0
    1138:	000003ac 	andeq	r0, r0, ip, lsr #7
    113c:	000009b4 			; <UNDEFINED> instruction: 0x000009b4
    1140:	00570001 	subseq	r0, r7, r1
    1144:	00000000 	andeq	r0, r0, r0
    1148:	02000000 	andeq	r0, r0, #0, 0
    114c:	00000000 	andeq	r0, r0, r0
    1150:	00057c00 	andeq	r7, r5, r0, lsl #24
    1154:	0005d000 	andeq	sp, r5, r0
    1158:	5b000100 	blpl	1560 <__code_start__-0x6aa0>
    115c:	00000800 	andeq	r0, r0, r0, lsl #16
    1160:	00000888 	andeq	r0, r0, r8, lsl #17
    1164:	485b0001 	ldmdami	fp, {r0}^
    1168:	64000009 	strvs	r0, [r0], #-9
    116c:	01000009 	tsteq	r0, r9
    1170:	00005b00 	andeq	r5, r0, r0, lsl #22
    1174:	00000000 	andeq	r0, r0, r0
    1178:	00030000 	andeq	r0, r3, r0
    117c:	00000000 	andeq	r0, r0, r0
    1180:	0000057c 	andeq	r0, r0, ip, ror r5
    1184:	000005d0 	ldrdeq	r0, [r0], -r0	; <UNPREDICTABLE>
    1188:	00590001 	subseq	r0, r9, r1
    118c:	88000008 	stmdahi	r0, {r3}
    1190:	01000008 	tsteq	r0, r8
    1194:	09485900 	stmdbeq	r8, {r8, fp, ip, lr}^
    1198:	09640000 	stmdbeq	r4!, {}^	; <UNPREDICTABLE>
    119c:	00010000 	andeq	r0, r1, r0
    11a0:	00000059 	andeq	r0, r0, r9, asr r0
    11a4:	00000000 	andeq	r0, r0, r0
    11a8:	00000400 	andeq	r0, r0, r0, lsl #8
    11ac:	00000000 	andeq	r0, r0, r0
    11b0:	0003ac00 	andeq	sl, r3, r0, lsl #24
    11b4:	0003d000 	andeq	sp, r3, r0
    11b8:	52000100 	andpl	r0, r0, #0
    11bc:	000003d0 	ldrdeq	r0, [r0], -r0	; <UNPREDICTABLE>
    11c0:	00000920 	andeq	r0, r0, r0, lsr #18
    11c4:	01f30004 	mvnseq	r0, r4
    11c8:	09209f52 	stmdbeq	r0!, {r1, r4, r6, r8, r9, sl, fp, ip, pc}
    11cc:	09280000 	stmdbeq	r8!, {}	; <UNPREDICTABLE>
    11d0:	00010000 	andeq	r0, r1, r0
    11d4:	00092852 	andeq	r2, r9, r2, asr r8
    11d8:	0009b400 	andeq	fp, r9, r0, lsl #8
    11dc:	f3000400 	vshl.u8	d0, d0, d0
    11e0:	009f5201 	addseq	r5, pc, r1, lsl #4
	...
    11ec:	00000101 	andeq	r0, r0, r1, lsl #2
    11f0:	01000000 	mrseq	r0, (UNDEF: 0)
    11f4:	e0000000 	and	r0, r0, r0
    11f8:	e0000004 	and	r0, r0, r4
    11fc:	01000004 	tsteq	r0, r4
    1200:	04e05000 	strbteq	r5, [r0], #0
    1204:	04e80000 	strbteq	r0, [r8], #0
    1208:	00010000 	andeq	r0, r1, r0
    120c:	0005b855 	andeq	fp, r5, r5, asr r8
    1210:	0005d000 	andeq	sp, r5, r0
    1214:	55000100 	strpl	r0, [r0, #-256]	; 0xffffff00
    1218:	000005f0 	strdeq	r0, [r0], -r0	; <UNPREDICTABLE>
    121c:	000005f4 	strdeq	r0, [r0], -r4
    1220:	f4500001 			; <UNDEFINED> instruction: 0xf4500001
    1224:	f8000007 			; <UNDEFINED> instruction: 0xf8000007
    1228:	01000007 	tsteq	r0, r7
    122c:	08505500 	ldmdaeq	r0, {r8, sl, ip, lr}^
    1230:	08880000 	stmeq	r8, {}	; <UNPREDICTABLE>
    1234:	00010000 	andeq	r0, r1, r0
    1238:	00000055 	andeq	r0, r0, r5, asr r0
    123c:	00000000 	andeq	r0, r0, r0
    1240:	00000200 	andeq	r0, r0, r0, lsl #4
    1244:	00000000 	andeq	r0, r0, r0
    1248:	00041400 	andeq	r1, r4, r0, lsl #8
    124c:	00041800 	andeq	r1, r4, r0, lsl #16
    1250:	30000200 	andcc	r0, r0, r0, lsl #4
    1254:	0004189f 	muleq	r4, pc, r8	; <UNPREDICTABLE>
    1258:	00041c00 	andeq	r1, r4, r0, lsl #24
    125c:	55000100 	strpl	r0, [r0, #-256]	; 0xffffff00
    1260:	00000428 	andeq	r0, r0, r8, lsr #8
    1264:	0000043c 	andeq	r0, r0, ip, lsr r4
    1268:	28550001 	ldmdacs	r5, {r0}^
    126c:	30000009 	andcc	r0, r0, r9
    1270:	01000009 	tsteq	r0, r9
    1274:	00005500 	andeq	r5, r0, r0, lsl #10
    1278:	00000000 	andeq	r0, r0, r0
    127c:	00010000 	andeq	r0, r1, r0
	...
    1288:	05040000 	streq	r0, [r4, #-0]
    128c:	05840000 	streq	r0, [r4]
    1290:	00010000 	andeq	r0, r1, r0
    1294:	00058456 	andeq	r8, r5, r6, asr r4
    1298:	00058800 	andeq	r8, r5, r0, lsl #16
    129c:	73000300 	movwvc	r0, #768	; 0x300
    12a0:	05889f7e 	streq	r9, [r8, #3966]	; 0xf7e
    12a4:	05d00000 	ldrbeq	r0, [r0]
    12a8:	00070000 	andeq	r0, r7, r0
    12ac:	067dcc91 			; <UNDEFINED> instruction: 0x067dcc91
    12b0:	009f1c32 	addseq	r1, pc, r2, lsr ip	; <UNPREDICTABLE>
    12b4:	1c000008 	stcne	0, cr0, [r0], {8}
    12b8:	01000008 	tsteq	r0, r8
    12bc:	081c5600 	ldmdaeq	ip, {r9, sl, ip, lr}
    12c0:	08880000 	stmeq	r8, {}	; <UNPREDICTABLE>
    12c4:	00070000 	andeq	r0, r7, r0
    12c8:	067dcc91 			; <UNDEFINED> instruction: 0x067dcc91
    12cc:	489f1c32 	ldmmi	pc, {r1, r4, r5, sl, fp, ip}	; <UNPREDICTABLE>
    12d0:	b4000009 	strlt	r0, [r0], #-9
    12d4:	01000009 	tsteq	r0, r9
    12d8:	00005600 	andeq	r5, r0, r0, lsl #12
    12dc:	00000000 	andeq	r0, r0, r0
    12e0:	06040000 	streq	r0, [r4], -r0
    12e4:	04140402 	ldreq	r0, [r4], #-1026	; 0xfffffbfe
    12e8:	04140000 	ldreq	r0, [r4], #-0
    12ec:	00060000 	andeq	r0, r6, r0
    12f0:	ff080072 			; <UNDEFINED> instruction: 0xff080072
    12f4:	04289f1a 	strteq	r9, [r8], #-3866	; 0xfffff0e6
    12f8:	04280000 	strteq	r0, [r8], #-0
    12fc:	00060000 	andeq	r0, r6, r0
    1300:	ff080072 			; <UNDEFINED> instruction: 0xff080072
    1304:	00009f1a 	andeq	r9, r0, sl, lsl pc
    1308:	00000000 	andeq	r0, r0, r0
    130c:	00020000 	andeq	r0, r2, r0
    1310:	00000000 	andeq	r0, r0, r0
    1314:	000005fc 	strdeq	r0, [r0], -ip
    1318:	00000700 	andeq	r0, r0, r0, lsl #14
    131c:	80080003 	andhi	r0, r8, r3
    1320:	0008a89f 	muleq	r8, pc, r8	; <UNPREDICTABLE>
    1324:	0008bc00 	andeq	fp, r8, r0, lsl #24
    1328:	08000300 	stmdaeq	r0, {r8, r9}
    132c:	09109f80 	ldmdbeq	r0, {r7, r8, r9, sl, fp, ip, pc}
    1330:	09200000 	stmdbeq	r0!, {}	; <UNPREDICTABLE>
    1334:	00030000 	andeq	r0, r3, r0
    1338:	009f8008 	addseq	r8, pc, r8
    133c:	00000000 	andeq	r0, r0, r0
    1340:	01000000 	mrseq	r0, (UNDEF: 0)
    1344:	00000000 	andeq	r0, r0, r0
    1348:	0005fc00 	andeq	pc, r5, r0, lsl #24
    134c:	00070000 	andeq	r0, r7, r0
    1350:	30000200 	andcc	r0, r0, r0, lsl #4
    1354:	0008a89f 	muleq	r8, pc, r8	; <UNPREDICTABLE>
    1358:	0008bc00 	andeq	fp, r8, r0, lsl #24
    135c:	30000200 	andcc	r0, r0, r0, lsl #4
    1360:	0009109f 	muleq	r9, pc, r0	; <UNPREDICTABLE>
    1364:	00092000 	andeq	r2, r9, r0
    1368:	30000200 	andcc	r0, r0, r0, lsl #4
    136c:	0000009f 	muleq	r0, pc, r0	; <UNPREDICTABLE>
    1370:	00000000 	andeq	r0, r0, r0
    1374:	00000100 	andeq	r0, r0, r0, lsl #2
    1378:	fc000000 	stc2	0, cr0, [r0], {-0}
    137c:	e0000005 	and	r0, r0, r5
    1380:	01000006 	tsteq	r0, r6
    1384:	08a85500 	stmiaeq	r8!, {r8, sl, ip, lr}
    1388:	08bc0000 	ldmeq	ip!, {}	; <UNPREDICTABLE>
    138c:	00010000 	andeq	r0, r1, r0
    1390:	00091055 	andeq	r1, r9, r5, asr r0
    1394:	00092000 	andeq	r2, r9, r0
    1398:	55000100 	strpl	r0, [r0, #-256]	; 0xffffff00
	...
    13a4:	00000001 	andeq	r0, r0, r1
    13a8:	00000000 	andeq	r0, r0, r0
    13ac:	000005fc 	strdeq	r0, [r0], -ip
    13b0:	000006e0 	andeq	r0, r0, r0, ror #13
    13b4:	d0910004 	addsle	r0, r1, r4
    13b8:	06e09f7d 			; <UNDEFINED> instruction: 0x06e09f7d
    13bc:	07000000 	streq	r0, [r0, -r0]
    13c0:	00010000 	andeq	r0, r1, r0
    13c4:	0008a855 	andeq	sl, r8, r5, asr r8
    13c8:	0008bc00 	andeq	fp, r8, r0, lsl #24
    13cc:	91000400 	tstls	r0, r0, lsl #8
    13d0:	109f7dd0 			; <UNDEFINED> instruction: 0x109f7dd0
    13d4:	20000009 	andcs	r0, r0, r9
    13d8:	04000009 	streq	r0, [r0], #-9
    13dc:	7dd09100 	ldfvcp	f1, [r0]
    13e0:	0000009f 	muleq	r0, pc, r0	; <UNPREDICTABLE>
    13e4:	00000000 	andeq	r0, r0, r0
    13e8:	00000100 	andeq	r0, r0, r0, lsl #2
    13ec:	fc000000 	stc2	0, cr0, [r0], {-0}
    13f0:	00000005 	andeq	r0, r0, r5
    13f4:	02000007 	andeq	r0, r0, #7, 0
    13f8:	a89f3800 	ldmge	pc, {fp, ip, sp}	; <UNPREDICTABLE>
    13fc:	bc000008 	stclt	0, cr0, [r0], {8}
    1400:	02000008 	andeq	r0, r0, #8, 0
    1404:	109f3800 	addsne	r3, pc, r0, lsl #16
    1408:	20000009 	andcs	r0, r0, r9
    140c:	02000009 	andeq	r0, r0, #9, 0
    1410:	009f3800 	addseq	r3, pc, r0, lsl #16
    1414:	00000000 	andeq	r0, r0, r0
    1418:	04000000 	streq	r0, [r0], #-0
    141c:	00000707 	andeq	r0, r0, r7, lsl #14
	...
    1428:	0005fc00 	andeq	pc, r5, r0, lsl #24
    142c:	0005fc00 	andeq	pc, r5, r0, lsl #24
    1430:	91000400 	tstls	r0, r0, lsl #8
    1434:	fc9f7ed0 	ldc2	14, cr7, [pc], {208}	; 0xd0
    1438:	78000005 	stmdavc	r0, {r0, r2}
    143c:	04000006 	streq	r0, [r0], #-6
    1440:	7ed19100 	atnvcs	f1, f0
    1444:	0006789f 	muleq	r6, pc, r8	; <UNPREDICTABLE>
    1448:	0006d400 	andeq	sp, r6, r0, lsl #8
    144c:	5c000100 	stfpls	f0, [r0], {-0}
    1450:	000006d4 	ldrdeq	r0, [r0], -r4
    1454:	00000700 	andeq	r0, r0, r0, lsl #14
    1458:	d1910004 	orrsle	r0, r1, r4
    145c:	08a89f7e 	stmiaeq	r8!, {r1, r2, r3, r4, r5, r6, r8, r9, sl, fp, ip, pc}
    1460:	08bc0000 	ldmeq	ip!, {}	; <UNPREDICTABLE>
    1464:	00040000 	andeq	r0, r4, r0
    1468:	9f7ed191 	svcls	0x007ed191
    146c:	00000910 	andeq	r0, r0, r0, lsl r9
    1470:	00000914 	andeq	r0, r0, r4, lsl r9
    1474:	d1910004 	orrsle	r0, r1, r4
    1478:	09149f7e 	ldmdbeq	r4, {r1, r2, r3, r4, r5, r6, r8, r9, sl, fp, ip, pc}
    147c:	09200000 	stmdbeq	r0!, {}	; <UNPREDICTABLE>
    1480:	00010000 	andeq	r0, r1, r0
    1484:	0000005c 	andeq	r0, r0, ip, asr r0
    1488:	00000000 	andeq	r0, r0, r0
    148c:	00010400 	andeq	r0, r1, r0, lsl #8
    1490:	08000001 	stmdaeq	r0, {r0}
    1494:	d0000006 	andle	r0, r0, r6
    1498:	01000006 	tsteq	r0, r6
    149c:	08a85500 	stmiaeq	r8!, {r8, sl, ip, lr}
    14a0:	08b80000 	ldmeq	r8!, {}	; <UNPREDICTABLE>
    14a4:	00010000 	andeq	r0, r1, r0
    14a8:	00091055 	andeq	r1, r9, r5, asr r0
    14ac:	00092000 	andeq	r2, r9, r0
    14b0:	55000100 	strpl	r0, [r0, #-256]	; 0xffffff00
	...
    14bc:	00000004 	andeq	r0, r0, r4
    14c0:	00000100 	andeq	r0, r0, r0, lsl #2
    14c4:	00000100 	andeq	r0, r0, r0, lsl #2
    14c8:	00000608 	andeq	r0, r0, r8, lsl #12
    14cc:	000006b0 			; <UNDEFINED> instruction: 0x000006b0
    14d0:	d0910004 	addsle	r0, r1, r4
    14d4:	06b09f7e 			; <UNDEFINED> instruction: 0x06b09f7e
    14d8:	06c80000 	strbeq	r0, [r8], r0
    14dc:	00010000 	andeq	r0, r1, r0
    14e0:	0006c850 	andeq	ip, r6, r0, asr r8
    14e4:	0006d000 	andeq	sp, r6, r0
    14e8:	91000400 	tstls	r0, r0, lsl #8
    14ec:	a89f7ed0 	ldmge	pc, {r4, r6, r7, r9, sl, fp, ip, sp, lr}	; <UNPREDICTABLE>
    14f0:	b0000008 	andlt	r0, r0, r8
    14f4:	04000008 	streq	r0, [r0], #-8
    14f8:	7ed09100 	atnvcs	f1, f0
    14fc:	0008b09f 	muleq	r8, pc, r0	; <UNPREDICTABLE>
    1500:	0008b800 	andeq	fp, r8, r0, lsl #16
    1504:	53000100 	movwpl	r0, #256	; 0x100
    1508:	00000910 	andeq	r0, r0, r0, lsl r9
    150c:	00000920 	andeq	r0, r0, r0, lsr #18
    1510:	d0910004 	addsle	r0, r1, r4
    1514:	00009f7e 	andeq	r9, r0, lr, ror pc
    1518:	00000000 	andeq	r0, r0, r0
    151c:	00040000 	andeq	r0, r4, r0
    1520:	01010100 	mrseq	r0, (UNDEF: 17)
    1524:	02030301 	andeq	r0, r3, #67108864	; 0x4000000
    1528:	00000100 	andeq	r0, r0, r0, lsl #2
    152c:	06080000 	streq	r0, [r8], -r0
    1530:	06240000 	strteq	r0, [r4], -r0
    1534:	00040000 	andeq	r0, r4, r0
    1538:	9f7ed191 	svcls	0x007ed191
    153c:	00000684 	andeq	r0, r0, r4, lsl #13
    1540:	00000684 	andeq	r0, r0, r4, lsl #13
    1544:	84500001 	ldrbhi	r0, [r0], #-1
    1548:	98000006 	stmdals	r0, {r1, r2}
    154c:	03000006 	movweq	r0, #6
    1550:	9f017000 	svcls	0x00017000
    1554:	00000698 	muleq	r0, r8, r6
    1558:	000006a4 	andeq	r0, r0, r4, lsr #13
    155c:	02700003 	rsbseq	r0, r0, #3, 0
    1560:	0006a49f 	muleq	r6, pc, r4	; <UNPREDICTABLE>
    1564:	0006a800 	andeq	sl, r6, r0, lsl #16
    1568:	70000300 	andvc	r0, r0, r0, lsl #6
    156c:	08a89f03 	stmiaeq	r8!, {r0, r1, r8, r9, sl, fp, ip, pc}
    1570:	08b80000 	ldmeq	r8!, {}	; <UNPREDICTABLE>
    1574:	00040000 	andeq	r0, r4, r0
    1578:	9f7ed191 	svcls	0x007ed191
    157c:	00000910 	andeq	r0, r0, r0, lsl r9
    1580:	00000914 	andeq	r0, r0, r4, lsl r9
    1584:	d1910004 	orrsle	r0, r1, r4
    1588:	09149f7e 	ldmdbeq	r4, {r1, r2, r3, r4, r5, r6, r8, r9, sl, fp, ip, pc}
    158c:	09200000 	stmdbeq	r0!, {}	; <UNPREDICTABLE>
    1590:	00010000 	andeq	r0, r1, r0
    1594:	0000005c 	andeq	r0, r0, ip, asr r0
    1598:	00000000 	andeq	r0, r0, r0
    159c:	00000600 	andeq	r0, r0, r0, lsl #12
    15a0:	01010101 	tsteq	r1, r1, lsl #2
    15a4:	00020101 	andeq	r0, r2, r1, lsl #2
    15a8:	08000001 	stmdaeq	r0, {r0}
    15ac:	24000006 	strcs	r0, [r0], #-6
    15b0:	02000006 	andeq	r0, r0, #6, 0
    15b4:	849f3100 	ldrhi	r3, [pc], #256	; 15bc <__code_start__-0x6a44>
    15b8:	94000006 	strls	r0, [r0], #-6
    15bc:	01000006 	tsteq	r0, r6
    15c0:	06945200 	ldreq	r5, [r4], r0, lsl #4
    15c4:	06a40000 	strteq	r0, [r4], r0
    15c8:	00010000 	andeq	r0, r1, r0
    15cc:	0006a459 	andeq	sl, r6, r9, asr r4
    15d0:	0006a800 	andeq	sl, r6, r0, lsl #16
    15d4:	52000100 	andpl	r0, r0, #0
    15d8:	000006a8 	andeq	r0, r0, r8, lsr #13
    15dc:	000006a8 	andeq	r0, r0, r8, lsr #13
    15e0:	01720003 	cmneq	r2, r3
    15e4:	0008a89f 	muleq	r8, pc, r8	; <UNPREDICTABLE>
    15e8:	0008b800 	andeq	fp, r8, r0, lsl #16
    15ec:	31000200 	mrscc	r0, R8_usr
    15f0:	0009109f 	muleq	r9, pc, r0	; <UNPREDICTABLE>
    15f4:	00092000 	andeq	r2, r9, r0
    15f8:	31000200 	mrscc	r0, R8_usr
    15fc:	0000009f 	muleq	r0, pc, r0	; <UNPREDICTABLE>
    1600:	00000000 	andeq	r0, r0, r0
    1604:	06060100 	streq	r0, [r6], -r0, lsl #2
    1608:	d0000100 	andle	r0, r0, r0, lsl #2
    160c:	d0000006 	andle	r0, r0, r6
    1610:	04000006 	streq	r0, [r0], #-6
    1614:	7ed09100 	atnvcs	f1, f0
    1618:	0006d09f 	muleq	r6, pc, r0	; <UNPREDICTABLE>
    161c:	00070000 	andeq	r0, r7, r0
    1620:	50000100 	andpl	r0, r0, r0, lsl #2
    1624:	000008b8 			; <UNDEFINED> instruction: 0x000008b8
    1628:	000008bc 			; <UNDEFINED> instruction: 0x000008bc
    162c:	00530001 	subseq	r0, r3, r1
    1630:	00000000 	andeq	r0, r0, r0
    1634:	01000000 	mrseq	r0, (UNDEF: 0)
    1638:	00000008 	andeq	r0, r0, r8
    163c:	01000101 	tsteq	r0, r1, lsl #2
    1640:	0006d007 	andeq	sp, r6, r7
    1644:	0006d000 	andeq	sp, r6, r0
    1648:	7c000600 	stcvc	6, cr0, [r0], {-0}
    164c:	22007100 	andcs	r7, r0, #0
    1650:	0006e49f 	muleq	r6, pc, r4	; <UNPREDICTABLE>
    1654:	0006e800 	andeq	lr, r6, r0, lsl #16
    1658:	73000300 	movwvc	r0, #768	; 0x300
    165c:	06e89f7f 			; <UNDEFINED> instruction: 0x06e89f7f
    1660:	06f00000 	ldrbteq	r0, [r0], r0
    1664:	00010000 	andeq	r0, r1, r0
    1668:	0006f053 	andeq	pc, r6, r3, asr r0	; <UNPREDICTABLE>
    166c:	0006f800 	andeq	pc, r6, r0, lsl #16
    1670:	73000300 	movwvc	r0, #768	; 0x300
    1674:	08b89f7f 	ldmeq	r8!, {r0, r1, r2, r3, r4, r5, r6, r8, r9, sl, fp, ip, pc}
    1678:	08b80000 	ldmeq	r8!, {}	; <UNPREDICTABLE>
    167c:	00040000 	andeq	r0, r4, r0
    1680:	9f7ed191 	svcls	0x007ed191
	...
    168c:	00010001 	andeq	r0, r1, r1
    1690:	000006d0 	ldrdeq	r0, [r0], -r0	; <UNPREDICTABLE>
    1694:	00000700 	andeq	r0, r0, r0, lsl #14
    1698:	80080003 	andhi	r0, r8, r3
    169c:	0008b89f 	muleq	r8, pc, r8	; <UNPREDICTABLE>
    16a0:	0008bc00 	andeq	fp, r8, r0, lsl #24
    16a4:	08000300 	stmdaeq	r0, {r8, r9}
    16a8:	00009f80 	andeq	r9, r0, r0, lsl #31
    16ac:	00000000 	andeq	r0, r0, r0
    16b0:	00010000 	andeq	r0, r1, r0
    16b4:	01000000 	mrseq	r0, (UNDEF: 0)
    16b8:	00000001 	andeq	r0, r0, r1
    16bc:	00010102 	andeq	r0, r1, r2, lsl #2
    16c0:	000006d0 	ldrdeq	r0, [r0], -r0	; <UNPREDICTABLE>
    16c4:	000006e0 	andeq	r0, r0, r0, ror #13
    16c8:	d0910004 	addsle	r0, r1, r4
    16cc:	06e09f7d 			; <UNDEFINED> instruction: 0x06e09f7d
    16d0:	06e40000 	strbteq	r0, [r4], r0
    16d4:	00010000 	andeq	r0, r1, r0
    16d8:	0006e455 	andeq	lr, r6, r5, asr r4
    16dc:	0006e400 	andeq	lr, r6, r0, lsl #8
    16e0:	72000300 	andvc	r0, r0, #0, 6
    16e4:	06e49f01 	strbteq	r9, [r4], r1, lsl #30
    16e8:	06f00000 	ldrbteq	r0, [r0], r0
    16ec:	00030000 	andeq	r0, r3, r0
    16f0:	f09f0272 			; <UNDEFINED> instruction: 0xf09f0272
    16f4:	00000006 	andeq	r0, r0, r6
    16f8:	03000007 	movweq	r0, #7
    16fc:	9f017200 	svcls	0x00017200
    1700:	000007ec 	andeq	r0, r0, ip, ror #15
    1704:	000007f4 	strdeq	r0, [r0], -r4
    1708:	01730003 	cmneq	r3, r3
    170c:	0008b89f 	muleq	r8, pc, r8	; <UNPREDICTABLE>
    1710:	0008bc00 	andeq	fp, r8, r0, lsl #24
    1714:	91000400 	tstls	r0, r0, lsl #8
    1718:	009f7dd0 			; <UNDEFINED> instruction: 0x009f7dd0
    171c:	00000000 	andeq	r0, r0, r0
    1720:	04000000 	streq	r0, [r0], #-0
    1724:	0008b800 	andeq	fp, r8, r0, lsl #16
    1728:	0008bc00 	andeq	fp, r8, r0, lsl #24
    172c:	32000200 	andcc	r0, r0, #0, 4
    1730:	0000009f 	muleq	r0, pc, r0	; <UNPREDICTABLE>
    1734:	00000000 	andeq	r0, r0, r0
    1738:	00000700 	andeq	r0, r0, r0, lsl #14
    173c:	d0000600 	andle	r0, r0, r0, lsl #12
    1740:	e0000006 	and	r0, r0, r6
    1744:	04000006 	streq	r0, [r0], #-6
    1748:	7dd09100 	ldfvcp	f1, [r0]
    174c:	0006e09f 	muleq	r6, pc, r0	; <UNPREDICTABLE>
    1750:	00070000 	andeq	r0, r7, r0
    1754:	55000100 	strpl	r0, [r0, #-256]	; 0xffffff00
    1758:	000008b8 			; <UNDEFINED> instruction: 0x000008b8
    175c:	000008bc 			; <UNDEFINED> instruction: 0x000008bc
    1760:	d0910004 	addsle	r0, r1, r4
    1764:	00009f7d 	andeq	r9, r0, sp, ror pc
    1768:	00000000 	andeq	r0, r0, r0
    176c:	00010000 	andeq	r0, r1, r0
    1770:	070c0000 	streq	r0, [ip, -r0]
    1774:	07ec0000 	strbeq	r0, [ip, r0]!
    1778:	00030000 	andeq	r0, r3, r0
    177c:	949f8008 	ldrls	r8, [pc], #8	; 1784 <__code_start__-0x687c>
    1780:	a8000008 	stmdage	r0, {r3}
    1784:	03000008 	movweq	r0, #8
    1788:	9f800800 	svcls	0x00800800
	...
    1798:	0000070c 	andeq	r0, r0, ip, lsl #14
    179c:	000007ec 	andeq	r0, r0, ip, ror #15
    17a0:	9f300002 	svcls	0x00300002
    17a4:	00000894 	muleq	r0, r4, r8
    17a8:	000008a8 	andeq	r0, r0, r8, lsr #17
    17ac:	9f300002 	svcls	0x00300002
	...
    17bc:	0000070c 	andeq	r0, r0, ip, lsl #14
    17c0:	000007d0 	ldrdeq	r0, [r0], -r0	; <UNPREDICTABLE>
    17c4:	94550001 	ldrbls	r0, [r5], #-1
    17c8:	a8000008 	stmdage	r0, {r3}
    17cc:	01000008 	tsteq	r0, r8
    17d0:	00005500 	andeq	r5, r0, r0, lsl #10
	...
    17e0:	0000070c 	andeq	r0, r0, ip, lsl #14
    17e4:	000007d0 	ldrdeq	r0, [r0], -r0	; <UNPREDICTABLE>
    17e8:	d0910004 	addsle	r0, r1, r4
    17ec:	07d09f7d 			; <UNDEFINED> instruction: 0x07d09f7d
    17f0:	07ec0000 	strbeq	r0, [ip, r0]!
    17f4:	00010000 	andeq	r0, r1, r0
    17f8:	00089455 	andeq	r9, r8, r5, asr r4
    17fc:	0008a800 	andeq	sl, r8, r0, lsl #16
    1800:	91000400 	tstls	r0, r0, lsl #8
    1804:	009f7dd0 			; <UNDEFINED> instruction: 0x009f7dd0
	...
    1810:	0c000000 	stceq	0, cr0, [r0], {-0}
    1814:	ec000007 	stc	0, cr0, [r0], {7}
    1818:	02000007 	andeq	r0, r0, #7, 0
    181c:	949f3200 	ldrls	r3, [pc], #512	; 1824 <__code_start__-0x67dc>
    1820:	a8000008 	stmdage	r0, {r3}
    1824:	02000008 	andeq	r0, r0, #8, 0
    1828:	009f3200 	addseq	r3, pc, r0, lsl #4
    182c:	00000000 	andeq	r0, r0, r0
    1830:	03000000 	movweq	r0, #0
    1834:	00000505 	andeq	r0, r0, r5, lsl #10
    1838:	00000000 	andeq	r0, r0, r0
    183c:	00070c00 	andeq	r0, r7, r0, lsl #24
    1840:	00070c00 	andeq	r0, r7, r0, lsl #24
    1844:	51000100 	mrspl	r0, (UNDEF: 16)
    1848:	0000070c 	andeq	r0, r0, ip, lsl #14
    184c:	0000071c 	andeq	r0, r0, ip, lsl r7
    1850:	1c530001 	mrrcne	0, 0, r0, r3, cr1
    1854:	24000007 	strcs	r0, [r0], #-7
    1858:	03000007 	movweq	r0, #7
    185c:	9f017200 	svcls	0x00017200
    1860:	00000724 	andeq	r0, r0, r4, lsr #14
    1864:	000007cc 	andeq	r0, r0, ip, asr #15
    1868:	94530001 	ldrbls	r0, [r3], #-1
    186c:	a8000008 	stmdage	r0, {r3}
    1870:	01000008 	tsteq	r0, r8
    1874:	00005300 	andeq	r5, r0, r0, lsl #6
    1878:	00000000 	andeq	r0, r0, r0
    187c:	00050000 	andeq	r0, r5, r0
    1880:	070c0001 	streq	r0, [ip, -r1]
    1884:	07200000 	streq	r0, [r0, -r0]!
    1888:	00010000 	andeq	r0, r1, r0
    188c:	00072450 	andeq	r2, r7, r0, asr r4
    1890:	00072c00 	andeq	r2, r7, r0, lsl #24
    1894:	50000100 	andpl	r0, r0, r0, lsl #2
	...
    18a0:	01000103 	tsteq	r0, r3, lsl #2
    18a4:	00000728 	andeq	r0, r0, r8, lsr #14
    18a8:	000007b0 			; <UNDEFINED> instruction: 0x000007b0
    18ac:	94550001 	ldrbls	r0, [r5], #-1
    18b0:	a0000008 	andge	r0, r0, r8
    18b4:	01000008 	tsteq	r0, r8
    18b8:	00005500 	andeq	r5, r0, r0, lsl #10
    18bc:	00000000 	andeq	r0, r0, r0
    18c0:	01030000 	mrseq	r0, (UNDEF: 3)
    18c4:	07280100 	streq	r0, [r8, -r0, lsl #2]!
    18c8:	07b00000 	ldreq	r0, [r0, r0]!
    18cc:	00010000 	andeq	r0, r1, r0
    18d0:	00089451 	andeq	r9, r8, r1, asr r4
    18d4:	0008a000 	andeq	sl, r8, r0
    18d8:	51000100 	mrspl	r0, (UNDEF: 16)
	...
    18e4:	01000003 	tsteq	r0, r3
    18e8:	03010101 	movweq	r0, #4353	; 0x1101
    18ec:	01000203 	tsteq	r0, r3, lsl #4
    18f0:	00000728 	andeq	r0, r0, r8, lsr #14
    18f4:	00000750 	andeq	r0, r0, r0, asr r7
    18f8:	74530001 	ldrbvc	r0, [r3], #-1
    18fc:	74000007 	strvc	r0, [r0], #-7
    1900:	01000007 	tsteq	r0, r7
    1904:	07745e00 	ldrbeq	r5, [r4, -r0, lsl #28]!
    1908:	07880000 	streq	r0, [r8, r0]
    190c:	00030000 	andeq	r0, r3, r0
    1910:	889f017e 	ldmhi	pc, {r1, r2, r3, r4, r5, r6, r8}	; <UNPREDICTABLE>
    1914:	94000007 	strls	r0, [r0], #-7
    1918:	03000007 	movweq	r0, #7
    191c:	9f027e00 	svcls	0x00027e00
    1920:	00000794 	muleq	r0, r4, r7
    1924:	00000798 	muleq	r0, r8, r7
    1928:	037e0003 	cmneq	lr, #3, 0
    192c:	0008949f 	muleq	r8, pc, r4	; <UNPREDICTABLE>
    1930:	0008a000 	andeq	sl, r8, r0
    1934:	53000100 	movwpl	r0, #256	; 0x100
	...
    1940:	01000000 	mrseq	r0, (UNDEF: 0)
    1944:	01010101 	tsteq	r1, r1, lsl #2
    1948:	01000201 	tsteq	r0, r1, lsl #4
    194c:	0000072c 	andeq	r0, r0, ip, lsr #14
    1950:	00000750 	andeq	r0, r0, r0, asr r7
    1954:	74500001 	ldrbvc	r0, [r0], #-1
    1958:	84000007 	strhi	r0, [r0], #-7
    195c:	01000007 	tsteq	r0, r7
    1960:	07845000 	streq	r5, [r4, r0]
    1964:	07940000 	ldreq	r0, [r4, r0]
    1968:	00010000 	andeq	r0, r1, r0
    196c:	0007945b 	andeq	r9, r7, fp, asr r4
    1970:	00079800 	andeq	r9, r7, r0, lsl #16
    1974:	50000100 	andpl	r0, r0, r0, lsl #2
    1978:	00000798 	muleq	r0, r8, r7
    197c:	00000798 	muleq	r0, r8, r7
    1980:	01700003 	cmneq	r0, r3
    1984:	0008949f 	muleq	r8, pc, r4	; <UNPREDICTABLE>
    1988:	0008a000 	andeq	sl, r8, r0
    198c:	50000100 	andpl	r0, r0, r0, lsl #2
	...
    1998:	00010001 	andeq	r0, r1, r1
    199c:	000007b0 			; <UNDEFINED> instruction: 0x000007b0
    19a0:	000007ec 	andeq	r0, r0, ip, ror #15
    19a4:	a0510001 	subsge	r0, r1, r1
    19a8:	a8000008 	stmdage	r0, {r3}
    19ac:	01000008 	tsteq	r0, r8
    19b0:	00005100 	andeq	r5, r0, r0, lsl #2
    19b4:	00000000 	andeq	r0, r0, r0
    19b8:	00010000 	andeq	r0, r1, r0
    19bc:	01000000 	mrseq	r0, (UNDEF: 0)
    19c0:	00010001 	andeq	r0, r1, r1
    19c4:	000007b0 			; <UNDEFINED> instruction: 0x000007b0
    19c8:	000007b4 			; <UNDEFINED> instruction: 0x000007b4
    19cc:	00730006 	rsbseq	r0, r3, r6
    19d0:	9f22007c 	svcls	0x0022007c
    19d4:	000007d4 	ldrdeq	r0, [r0], -r4
    19d8:	000007d8 	ldrdeq	r0, [r0], -r8
    19dc:	7f730003 	svcvc	0x00730003
    19e0:	0007d89f 	muleq	r7, pc, r8	; <UNPREDICTABLE>
    19e4:	0007e000 	andeq	lr, r7, r0
    19e8:	53000100 	movwpl	r0, #256	; 0x100
    19ec:	000007e0 	andeq	r0, r0, r0, ror #15
    19f0:	000007e8 	andeq	r0, r0, r8, ror #15
    19f4:	7f730003 	svcvc	0x00730003
    19f8:	0008a09f 	muleq	r8, pc, r0	; <UNPREDICTABLE>
    19fc:	0008a800 	andeq	sl, r8, r0, lsl #16
    1a00:	53000100 	movwpl	r0, #256	; 0x100
	...
    1a0c:	00010001 	andeq	r0, r1, r1
    1a10:	000007b0 			; <UNDEFINED> instruction: 0x000007b0
    1a14:	000007ec 	andeq	r0, r0, ip, ror #15
    1a18:	80080003 	andhi	r0, r8, r3
    1a1c:	0008a09f 	muleq	r8, pc, r0	; <UNPREDICTABLE>
    1a20:	0008a800 	andeq	sl, r8, r0, lsl #16
    1a24:	08000300 	stmdaeq	r0, {r8, r9}
    1a28:	00009f80 	andeq	r9, r0, r0, lsl #31
    1a2c:	00000000 	andeq	r0, r0, r0
    1a30:	00010000 	andeq	r0, r1, r0
    1a34:	01000000 	mrseq	r0, (UNDEF: 0)
    1a38:	00000001 	andeq	r0, r0, r1
    1a3c:	07b00001 	ldreq	r0, [r0, r1]!
    1a40:	07d00000 	ldrbeq	r0, [r0, r0]
    1a44:	00040000 	andeq	r0, r4, r0
    1a48:	9f7dd091 	svcls	0x007dd091
    1a4c:	000007d0 	ldrdeq	r0, [r0], -r0	; <UNPREDICTABLE>
    1a50:	000007d4 	ldrdeq	r0, [r0], -r4
    1a54:	d4550001 	ldrble	r0, [r5], #-1
    1a58:	d4000007 	strle	r0, [r0], #-7
    1a5c:	03000007 	movweq	r0, #7
    1a60:	9f017c00 	svcls	0x00017c00
    1a64:	000007d4 	ldrdeq	r0, [r0], -r4
    1a68:	000007e0 	andeq	r0, r0, r0, ror #15
    1a6c:	027c0003 	rsbseq	r0, ip, #3, 0
    1a70:	0007e09f 	muleq	r7, pc, r0	; <UNPREDICTABLE>
    1a74:	0007ec00 	andeq	lr, r7, r0, lsl #24
    1a78:	7c000300 	stcvc	3, cr0, [r0], {-0}
    1a7c:	08a09f01 	stmiaeq	r0!, {r0, r8, r9, sl, fp, ip, pc}
    1a80:	08a80000 	stmiaeq	r8!, {}	; <UNPREDICTABLE>
    1a84:	00040000 	andeq	r0, r4, r0
    1a88:	9f7dd091 	svcls	0x007dd091
	...
    1a94:	00040004 	andeq	r0, r4, r4
    1a98:	000007b0 			; <UNDEFINED> instruction: 0x000007b0
    1a9c:	000007b4 			; <UNDEFINED> instruction: 0x000007b4
    1aa0:	01700003 	cmneq	r0, r3
    1aa4:	0008a09f 	muleq	r8, pc, r0	; <UNPREDICTABLE>
    1aa8:	0008a800 	andeq	sl, r8, r0, lsl #16
    1aac:	70000300 	andvc	r0, r0, r0, lsl #6
    1ab0:	00009f01 	andeq	r9, r0, r1, lsl #30
    1ab4:	00000000 	andeq	r0, r0, r0
    1ab8:	00010000 	andeq	r0, r1, r0
    1abc:	07bc0000 	ldreq	r0, [ip, r0]!
    1ac0:	07d00000 	ldrbeq	r0, [r0, r0]
    1ac4:	00040000 	andeq	r0, r4, r0
    1ac8:	9f7dd091 	svcls	0x007dd091
    1acc:	000007d0 	ldrdeq	r0, [r0], -r0	; <UNPREDICTABLE>
    1ad0:	000007ec 	andeq	r0, r0, ip, ror #15
    1ad4:	00550001 	subseq	r0, r5, r1
	...
    1ae0:	28000000 	stmdacs	r0, {}	; <UNPREDICTABLE>
    1ae4:	64000003 	strvs	r0, [r0], #-3
    1ae8:	01000003 	tsteq	r0, r3
    1aec:	03645000 	cmneq	r4, #0, 0
    1af0:	03880000 	orreq	r0, r8, #0, 0
    1af4:	00040000 	andeq	r0, r4, r0
    1af8:	9f5001f3 	svcls	0x005001f3
	...
    1b08:	00000328 	andeq	r0, r0, r8, lsr #6
    1b0c:	0000035c 	andeq	r0, r0, ip, asr r3
    1b10:	5c510001 	mrrcpl	0, 0, r0, r1, cr1
    1b14:	88000003 	stmdahi	r0, {r0, r1}
    1b18:	04000003 	streq	r0, [r0], #-3
    1b1c:	5101f300 	mrspl	pc, SP_irq	; <UNPREDICTABLE>
    1b20:	0000009f 	muleq	r0, pc, r0	; <UNPREDICTABLE>
	...
    1b44:	00001400 	andeq	r1, r0, r0, lsl #8
    1b48:	50000100 	andpl	r0, r0, r0, lsl #2
    1b4c:	00000014 	andeq	r0, r0, r4, lsl r0
    1b50:	00000020 	andeq	r0, r0, r0, lsr #32
    1b54:	205c0001 	subscs	r0, ip, r1
    1b58:	68000000 	stmdavs	r0, {}	; <UNPREDICTABLE>
    1b5c:	03000000 	movweq	r0, #0
    1b60:	9f027100 	svcls	0x00027100
    1b64:	00000068 	andeq	r0, r0, r8, rrx
    1b68:	0000006c 	andeq	r0, r0, ip, rrx
    1b6c:	02730003 	rsbseq	r0, r3, #3, 0
    1b70:	00006c9f 	muleq	r0, pc, ip	; <UNPREDICTABLE>
    1b74:	00019400 	andeq	r9, r1, r0, lsl #8
    1b78:	f3000400 	vshl.u8	d0, d0, d0
    1b7c:	949f5001 	ldrls	r5, [pc], #1	; 1b84 <__code_start__-0x647c>
    1b80:	98000001 	stmdals	r0, {r0}
    1b84:	03000001 	movweq	r0, #1
    1b88:	9f027300 	svcls	0x00027300
    1b8c:	00000198 	muleq	r0, r8, r1
    1b90:	000001c0 	andeq	r0, r0, r0, asr #3
    1b94:	01f30004 	mvnseq	r0, r4
    1b98:	01c09f50 	biceq	r9, r0, r0, asr pc
    1b9c:	01c80000 	biceq	r0, r8, r0
    1ba0:	00010000 	andeq	r0, r1, r0
    1ba4:	0001c85c 	andeq	ip, r1, ip, asr r8
    1ba8:	00021400 	andeq	r1, r2, r0, lsl #8
    1bac:	73000300 	movwvc	r0, #768	; 0x300
    1bb0:	02149f02 	andseq	r9, r4, #2, 30
    1bb4:	02ec0000 	rsceq	r0, ip, #0, 0
    1bb8:	00040000 	andeq	r0, r4, r0
    1bbc:	9f5001f3 	svcls	0x005001f3
    1bc0:	000002ec 	andeq	r0, r0, ip, ror #5
    1bc4:	000002f4 	strdeq	r0, [r0], -r4
    1bc8:	02730003 	rsbseq	r0, r3, #3, 0
    1bcc:	0002f49f 	muleq	r2, pc, r4	; <UNPREDICTABLE>
    1bd0:	00032800 	andeq	r2, r3, r0, lsl #16
    1bd4:	f3000400 	vshl.u8	d0, d0, d0
    1bd8:	009f5001 	addseq	r5, pc, r1
	...
    1bec:	1c000000 	stcne	0, cr0, [r0], {-0}
    1bf0:	01000000 	mrseq	r0, (UNDEF: 0)
    1bf4:	001c5100 	andseq	r5, ip, r0, lsl #2
    1bf8:	02e00000 	rsceq	r0, r0, #0, 0
    1bfc:	00010000 	andeq	r0, r1, r0
    1c00:	0002e050 	andeq	lr, r2, r0, asr r0
    1c04:	0002ec00 	andeq	lr, r2, r0, lsl #24
    1c08:	f3000400 	vshl.u8	d0, d0, d0
    1c0c:	ec9f5101 	ldfs	f5, [pc], {1}
    1c10:	28000002 	stmdacs	r0, {r1}
    1c14:	01000003 	tsteq	r0, r3
    1c18:	00005000 	andeq	r5, r0, r0
	...
    1c24:	01000000 	mrseq	r0, (UNDEF: 0)
    1c28:	00000000 	andeq	r0, r0, r0
    1c2c:	02000000 	andeq	r0, r0, #0, 0
    1c30:	00000002 	andeq	r0, r0, r2
	...
    1c44:	00700000 	rsbseq	r0, r0, r0
    1c48:	00010000 	andeq	r0, r1, r0
    1c4c:	00007052 	andeq	r7, r0, r2, asr r0
    1c50:	00007800 	andeq	r7, r0, r0, lsl #16
    1c54:	5c000100 	stfpls	f0, [r0], {-0}
    1c58:	00000078 	andeq	r0, r0, r8, ror r0
    1c5c:	000000a4 	andeq	r0, r0, r4, lsr #1
    1c60:	01f30004 	mvnseq	r0, r4
    1c64:	01949f52 	orrseq	r9, r4, r2, asr pc
    1c68:	019c0000 	orrseq	r0, ip, r0
    1c6c:	00010000 	andeq	r0, r1, r0
    1c70:	00019c52 	andeq	r9, r1, r2, asr ip
    1c74:	0001a400 	andeq	sl, r1, r0, lsl #8
    1c78:	5c000100 	stfpls	f0, [r0], {-0}
    1c7c:	000001a4 	andeq	r0, r0, r4, lsr #3
    1c80:	000001c0 	andeq	r0, r0, r0, asr #3
    1c84:	01f30004 	mvnseq	r0, r4
    1c88:	01c09f52 	biceq	r9, r0, r2, asr pc
    1c8c:	02200000 	eoreq	r0, r0, #0, 0
    1c90:	00010000 	andeq	r0, r1, r0
    1c94:	00022052 	andeq	r2, r2, r2, asr r0
    1c98:	00022800 	andeq	r2, r2, r0, lsl #16
    1c9c:	72000400 	andvc	r0, r0, #0, 8
    1ca0:	289f1f00 	ldmcs	pc, {r8, r9, sl, fp, ip}	; <UNPREDICTABLE>
    1ca4:	74000002 	strvc	r0, [r0], #-2
    1ca8:	05000002 	streq	r0, [r0, #-2]
    1cac:	5201f300 	andpl	pc, r1, #0, 6
    1cb0:	02749f1f 	rsbseq	r9, r4, #124	; 0x7c
    1cb4:	02880000 	addeq	r0, r8, #0, 0
    1cb8:	00010000 	andeq	r0, r1, r0
    1cbc:	00028852 	andeq	r8, r2, r2, asr r8
    1cc0:	0002a000 	andeq	sl, r2, r0
    1cc4:	5c000100 	stfpls	f0, [r0], {-0}
    1cc8:	000002cc 	andeq	r0, r0, ip, asr #5
    1ccc:	000002d0 	ldrdeq	r0, [r0], -r0	; <UNPREDICTABLE>
    1cd0:	d0520001 	subsle	r0, r2, r1
    1cd4:	e7000002 	str	r0, [r0, -r2]
    1cd8:	01000002 	tsteq	r0, r2
    1cdc:	02e75c00 	rsceq	r5, r7, #0, 24
    1ce0:	02ec0000 	rsceq	r0, ip, #0, 0
    1ce4:	00040000 	andeq	r0, r4, r0
    1ce8:	9f5201f3 	svcls	0x005201f3
    1cec:	000002ec 	andeq	r0, r0, ip, ror #5
    1cf0:	00000300 	andeq	r0, r0, r0, lsl #6
    1cf4:	00520001 	subseq	r0, r2, r1
    1cf8:	28000003 	stmdacs	r0, {r0, r1}
    1cfc:	01000003 	tsteq	r0, r3
    1d00:	00005c00 	andeq	r5, r0, r0, lsl #24
	...
    1d1c:	00000068 	andeq	r0, r0, r8, rrx
    1d20:	68530001 	ldmdavs	r3, {r0}^
    1d24:	6c000000 	stcvs	0, cr0, [r0], {-0}
    1d28:	03000000 	movweq	r0, #0
    1d2c:	9f7f0800 	svcls	0x007f0800
    1d30:	00000194 	muleq	r0, r4, r1
    1d34:	00000198 	muleq	r0, r8, r1
    1d38:	7f080003 	svcvc	0x00080003
    1d3c:	0001c09f 	muleq	r1, pc, r0	; <UNPREDICTABLE>
    1d40:	00021400 	andeq	r1, r2, r0, lsl #8
    1d44:	08000300 	stmdaeq	r0, {r8, r9}
    1d48:	02749f7f 	rsbseq	r9, r4, #508	; 0x1fc
    1d4c:	02900000 	addseq	r0, r0, #0, 0
    1d50:	00010000 	andeq	r0, r1, r0
    1d54:	00029053 	andeq	r9, r2, r3, asr r0
    1d58:	0002a000 	andeq	sl, r2, r0
    1d5c:	f3000400 	vshl.u8	d0, d0, d0
    1d60:	ec9f5301 	ldc	3, cr5, [pc], {1}
    1d64:	28000002 	stmdacs	r0, {r1}
    1d68:	03000003 	movweq	r0, #3
    1d6c:	9f7f0800 	svcls	0x007f0800
	...
    1d78:	00000001 	andeq	r0, r0, r1
    1d7c:	00020200 	andeq	r0, r2, r0, lsl #4
    1d80:	00010100 	andeq	r0, r1, r0, lsl #2
    1d84:	00000000 	andeq	r0, r0, r0
    1d88:	02000000 	andeq	r0, r0, #0, 0
    1d8c:	00000002 	andeq	r0, r0, r2
    1d90:	00000001 	andeq	r0, r0, r1
    1d94:	00000000 	andeq	r0, r0, r0
    1d98:	00010100 	andeq	r0, r1, r0, lsl #2
    1d9c:	02000000 	andeq	r0, r0, #0, 0
    1da0:	00000002 	andeq	r0, r0, r2
    1da4:	01000000 	mrseq	r0, (UNDEF: 0)
    1da8:	00000001 	andeq	r0, r0, r1
    1dac:	00000018 	andeq	r0, r0, r8, lsl r0
    1db0:	00000070 	andeq	r0, r0, r0, ror r0
    1db4:	a0910004 	addsge	r0, r1, r4
    1db8:	00709f7f 	rsbseq	r9, r0, pc, ror pc
    1dbc:	00780000 	rsbseq	r0, r8, r0
    1dc0:	00010000 	andeq	r0, r1, r0
    1dc4:	00007852 	andeq	r7, r0, r2, asr r8
    1dc8:	00007800 	andeq	r7, r0, r0, lsl #16
    1dcc:	54000100 	strpl	r0, [r0], #-256	; 0xffffff00
    1dd0:	00000078 	andeq	r0, r0, r8, ror r0
    1dd4:	00000088 	andeq	r0, r0, r8, lsl #1
    1dd8:	01740003 	cmneq	r4, r3
    1ddc:	0000889f 	muleq	r0, pc, r8	; <UNPREDICTABLE>
    1de0:	00009000 	andeq	r9, r0, r0
    1de4:	54000100 	strpl	r0, [r0], #-256	; 0xffffff00
    1de8:	00000090 	muleq	r0, r0, r0
    1dec:	000000a0 	andeq	r0, r0, r0, lsr #1
    1df0:	02740003 	rsbseq	r0, r4, #3, 0
    1df4:	0000a09f 	muleq	r0, pc, r0	; <UNPREDICTABLE>
    1df8:	0000b000 	andeq	fp, r0, r0
    1dfc:	5e000100 	adfpls	f0, f0, f0
    1e00:	00000194 	muleq	r0, r4, r1
    1e04:	0000019c 	muleq	r0, ip, r1
    1e08:	a0910004 	addsge	r0, r1, r4
    1e0c:	019c9f7f 	orrseq	r9, ip, pc, ror pc
    1e10:	01a40000 			; <UNDEFINED> instruction: 0x01a40000
    1e14:	00010000 	andeq	r0, r1, r0
    1e18:	0001a452 	andeq	sl, r1, r2, asr r4
    1e1c:	0001a400 	andeq	sl, r1, r0, lsl #8
    1e20:	5e000100 	adfpls	f0, f0, f0
    1e24:	000001a4 	andeq	r0, r0, r4, lsr #3
    1e28:	000001b4 			; <UNDEFINED> instruction: 0x000001b4
    1e2c:	017e0003 	cmneq	lr, r3
    1e30:	0001b49f 	muleq	r1, pc, r4	; <UNPREDICTABLE>
    1e34:	0001c000 	andeq	ip, r1, r0
    1e38:	5e000100 	adfpls	f0, f0, f0
    1e3c:	000001c0 	andeq	r0, r0, r0, asr #3
    1e40:	00000228 	andeq	r0, r0, r8, lsr #4
    1e44:	a0910004 	addsge	r0, r1, r4
    1e48:	02289f7f 	eoreq	r9, r8, #508	; 0x1fc
    1e4c:	02340000 	eorseq	r0, r4, #0, 0
    1e50:	00010000 	andeq	r0, r1, r0
    1e54:	00023452 	andeq	r3, r2, r2, asr r4
    1e58:	00025800 	andeq	r5, r2, r0, lsl #16
    1e5c:	5e000100 	adfpls	f0, f0, f0
    1e60:	00000258 	andeq	r0, r0, r8, asr r2
    1e64:	0000025c 	andeq	r0, r0, ip, asr r2
    1e68:	017e0003 	cmneq	lr, r3
    1e6c:	00025c9f 	muleq	r2, pc, ip	; <UNPREDICTABLE>
    1e70:	00026400 	andeq	r6, r2, r0, lsl #8
    1e74:	5e000100 	adfpls	f0, f0, f0
    1e78:	00000264 	andeq	r0, r0, r4, ror #4
    1e7c:	00000270 	andeq	r0, r0, r0, ror r2
    1e80:	02710003 	rsbseq	r0, r1, #3, 0
    1e84:	0002709f 	muleq	r2, pc, r0	; <UNPREDICTABLE>
    1e88:	00027400 	andeq	r7, r2, r0, lsl #8
    1e8c:	5e000100 	adfpls	f0, f0, f0
    1e90:	00000274 	andeq	r0, r0, r4, ror r2
    1e94:	00000274 	andeq	r0, r0, r4, ror r2
    1e98:	a0910004 	addsge	r0, r1, r4
    1e9c:	02749f7f 	rsbseq	r9, r4, #508	; 0x1fc
    1ea0:	02a00000 	adceq	r0, r0, #0, 0
    1ea4:	00040000 	andeq	r0, r4, r0
    1ea8:	9f7fa191 	svcls	0x007fa191
    1eac:	000002c0 	andeq	r0, r0, r0, asr #5
    1eb0:	000002c8 	andeq	r0, r0, r8, asr #5
    1eb4:	c85e0001 	ldmdagt	lr, {r0}^
    1eb8:	cc000002 	stcgt	0, cr0, [r0], {2}
    1ebc:	01000002 	tsteq	r0, r2
    1ec0:	02cc5600 	sbceq	r5, ip, #0, 12
    1ec4:	02ec0000 	rsceq	r0, ip, #0, 0
    1ec8:	00040000 	andeq	r0, r4, r0
    1ecc:	9f7fa091 	svcls	0x007fa091
    1ed0:	000002ec 	andeq	r0, r0, ip, ror #5
    1ed4:	000002fc 	strdeq	r0, [r0], -ip
    1ed8:	a1910004 	orrsge	r0, r1, r4
    1edc:	02fc9f7f 	rscseq	r9, ip, #508	; 0x1fc
    1ee0:	03280000 			; <UNDEFINED> instruction: 0x03280000
    1ee4:	00010000 	andeq	r0, r1, r0
    1ee8:	0000005e 	andeq	r0, r0, lr, asr r0
	...
    1f00:	00000101 	andeq	r0, r0, r1, lsl #2
	...
    1f10:	20000000 	andcs	r0, r0, r0
    1f14:	70000000 	andvc	r0, r0, r0
    1f18:	01000000 	mrseq	r0, (UNDEF: 0)
    1f1c:	00705200 	rsbseq	r5, r0, r0, lsl #4
    1f20:	00940000 	addseq	r0, r4, r0
    1f24:	00010000 	andeq	r0, r1, r0
    1f28:	0001945c 	andeq	r9, r1, ip, asr r4
    1f2c:	00019c00 	andeq	r9, r1, r0, lsl #24
    1f30:	52000100 	andpl	r0, r0, #0
    1f34:	0000019c 	muleq	r0, ip, r1
    1f38:	000001c0 	andeq	r0, r0, r0, asr #3
    1f3c:	c85c0001 	ldmdagt	ip, {r0}^
    1f40:	10000001 	andne	r0, r0, r1
    1f44:	01000002 	tsteq	r0, r2
    1f48:	02105c00 	andseq	r5, r0, #0, 24
    1f4c:	02240000 	eoreq	r0, r4, #0, 0
    1f50:	00010000 	andeq	r0, r1, r0
    1f54:	00022452 	andeq	r2, r2, r2, asr r4
    1f58:	00024800 	andeq	r4, r2, r0, lsl #16
    1f5c:	5c000100 	stfpls	f0, [r0], {-0}
    1f60:	00000248 	andeq	r0, r0, r8, asr #4
    1f64:	0000025c 	andeq	r0, r0, ip, asr r2
    1f68:	5c550001 	mrrcpl	0, 0, r0, r5, cr1
    1f6c:	68000002 	stmdavs	r0, {r1}
    1f70:	01000002 	tsteq	r0, r2
    1f74:	02685c00 	rsbeq	r5, r8, #0, 24
    1f78:	02740000 	rsbseq	r0, r4, #0, 0
    1f7c:	00190000 	andseq	r0, r9, r0
    1f80:	2cf70075 	ldclcs	0, cr0, [r7], #468	; 0x1d4
    1f84:	007625f7 	ldrshteq	r2, [r6], #-87	; 0xffffffa9
    1f88:	25f72cf7 	ldrbcs	r2, [r7, #3319]!	; 0xcf7
    1f8c:	f720081e 			; <UNDEFINED> instruction: 0xf720081e
    1f90:	2cf72525 	cfldr64cs	mvdx2, [r7], #148	; 0x94
    1f94:	253300f7 	ldrcs	r0, [r3, #-247]!	; 0xffffff09
    1f98:	0002749f 	muleq	r2, pc, r4	; <UNPREDICTABLE>
    1f9c:	00028800 	andeq	r8, r2, r0, lsl #16
    1fa0:	52000100 	andpl	r0, r0, #0
    1fa4:	00000288 	andeq	r0, r0, r8, lsl #5
    1fa8:	000002a0 	andeq	r0, r0, r0, lsr #5
    1fac:	cc5c0001 	mrrcgt	0, 0, r0, ip, cr1
    1fb0:	d0000002 	andle	r0, r0, r2
    1fb4:	01000002 	tsteq	r0, r2
    1fb8:	02d05200 	sbcseq	r5, r0, #0, 4
    1fbc:	02e70000 	rsceq	r0, r7, #0, 0
    1fc0:	00010000 	andeq	r0, r1, r0
    1fc4:	0002e75c 	andeq	lr, r2, ip, asr r7
    1fc8:	0002ec00 	andeq	lr, r2, r0, lsl #24
    1fcc:	f3000400 	vshl.u8	d0, d0, d0
    1fd0:	ec9f5201 	lfm	f5, 4, [pc], {1}
    1fd4:	00000002 	andeq	r0, r0, r2
    1fd8:	01000003 	tsteq	r0, r3
    1fdc:	03005200 	movweq	r5, #512	; 0x200
    1fe0:	03280000 			; <UNDEFINED> instruction: 0x03280000
    1fe4:	00010000 	andeq	r0, r1, r0
    1fe8:	0000005c 	andeq	r0, r0, ip, asr r0
    1fec:	00000000 	andeq	r0, r0, r0
    1ff0:	04000400 	streq	r0, [r0], #-1024	; 0xfffffc00
    1ff4:	00010000 	andeq	r0, r1, r0
    1ff8:	a4000400 	strge	r0, [r0], #-1024	; 0xfffffc00
    1ffc:	b0000000 	andlt	r0, r0, r0
    2000:	01000000 	mrseq	r0, (UNDEF: 0)
    2004:	027c5300 	rsbseq	r5, ip, #0, 6
    2008:	02900000 	addseq	r0, r0, #0, 0
    200c:	00010000 	andeq	r0, r1, r0
    2010:	00029053 	andeq	r9, r2, r3, asr r0
    2014:	00029c00 	andeq	r9, r2, r0, lsl #24
    2018:	f3000400 	vshl.u8	d0, d0, d0
    201c:	c09f5301 	addsgt	r5, pc, r1, lsl #6
    2020:	cc000002 	stcgt	0, cr0, [r0], {2}
    2024:	01000002 	tsteq	r0, r2
    2028:	02f05300 	rscseq	r5, r0, #0, 6
    202c:	03280000 			; <UNDEFINED> instruction: 0x03280000
    2030:	00030000 	andeq	r0, r3, r0
    2034:	009f7f08 	addseq	r7, pc, r8, lsl #30
    2038:	00000000 	andeq	r0, r0, r0
    203c:	04000000 	streq	r0, [r0], #-0
    2040:	04010000 	streq	r0, [r1], #-0
    2044:	00010000 	andeq	r0, r1, r0
    2048:	04000000 	streq	r0, [r0], #-0
    204c:	a4000000 	strge	r0, [r0], #-0
    2050:	b0000000 	andlt	r0, r0, r0
    2054:	01000000 	mrseq	r0, (UNDEF: 0)
    2058:	00b05200 	adcseq	r5, r0, r0, lsl #4
    205c:	015c0000 	cmpeq	ip, r0
    2060:	00040000 	andeq	r0, r4, r0
    2064:	9f7fa091 	svcls	0x007fa091
    2068:	0000027c 	andeq	r0, r0, ip, ror r2
    206c:	00000294 	muleq	r0, r4, r2
    2070:	a0910004 	addsge	r0, r1, r4
    2074:	02949f7f 	addseq	r9, r4, #508	; 0x1fc
    2078:	029c0000 	addseq	r0, ip, #0, 0
    207c:	00010000 	andeq	r0, r1, r0
    2080:	0002b45e 	andeq	fp, r2, lr, asr r4
    2084:	0002c000 	andeq	ip, r2, r0
    2088:	91000400 	tstls	r0, r0, lsl #8
    208c:	c09f7fa0 	addsgt	r7, pc, r0, lsr #31
    2090:	cc000002 	stcgt	0, cr0, [r0], {2}
    2094:	01000002 	tsteq	r0, r2
    2098:	02f05200 	rscseq	r5, r0, #0, 4
    209c:	03000000 	movweq	r0, #0
    20a0:	00040000 	andeq	r0, r4, r0
    20a4:	9f7fa091 	svcls	0x007fa091
    20a8:	00000300 	andeq	r0, r0, r0, lsl #6
    20ac:	00000328 	andeq	r0, r0, r8, lsr #6
    20b0:	00520001 	subseq	r0, r2, r1
    20b4:	00000000 	andeq	r0, r0, r0
    20b8:	04000000 	streq	r0, [r0], #-0
    20bc:	01010000 	mrseq	r0, (UNDEF: 1)
    20c0:	03030101 	movweq	r0, #12545	; 0x3101
    20c4:	00010402 	andeq	r0, r1, r2, lsl #8
    20c8:	04000000 	streq	r0, [r0], #-0
    20cc:	a4000000 	strge	r0, [r0], #-0
    20d0:	b0000000 	andlt	r0, r0, r0
    20d4:	01000000 	mrseq	r0, (UNDEF: 0)
    20d8:	010c5e00 	tsteq	ip, r0, lsl #28
    20dc:	010c0000 	mrseq	r0, (UNDEF: 12)
    20e0:	00010000 	andeq	r0, r1, r0
    20e4:	00010c55 	andeq	r0, r1, r5, asr ip
    20e8:	00012000 	andeq	r2, r1, r0
    20ec:	75000300 	strvc	r0, [r0, #-768]	; 0xfffffd00
    20f0:	01209f01 			; <UNDEFINED> instruction: 0x01209f01
    20f4:	012c0000 			; <UNDEFINED> instruction: 0x012c0000
    20f8:	00030000 	andeq	r0, r3, r0
    20fc:	2c9f0275 	lfmcs	f0, 4, [pc], {117}	; 0x75
    2100:	30000001 	andcc	r0, r0, r1
    2104:	03000001 	movweq	r0, #1
    2108:	9f037500 	svcls	0x00037500
    210c:	0000027c 	andeq	r0, r0, ip, ror r2
    2110:	0000029c 	muleq	r0, ip, r2
    2114:	a1910004 	orrsge	r0, r1, r4
    2118:	02c09f7f 	sbceq	r9, r0, #508	; 0x1fc
    211c:	02c80000 	sbceq	r0, r8, #0, 0
    2120:	00010000 	andeq	r0, r1, r0
    2124:	0002c85e 	andeq	ip, r2, lr, asr r8
    2128:	0002cc00 	andeq	ip, r2, r0, lsl #24
    212c:	56000100 	strpl	r0, [r0], -r0, lsl #2
    2130:	000002f0 	strdeq	r0, [r0], -r0	; <UNPREDICTABLE>
    2134:	000002fc 	strdeq	r0, [r0], -ip
    2138:	a1910004 	orrsge	r0, r1, r4
    213c:	02fc9f7f 	rscseq	r9, ip, #508	; 0x1fc
    2140:	03280000 			; <UNDEFINED> instruction: 0x03280000
    2144:	00010000 	andeq	r0, r1, r0
    2148:	0000005e 	andeq	r0, r0, lr, asr r0
	...
    2154:	01010101 	tsteq	r1, r1, lsl #2
    2158:	06020101 	streq	r0, [r2], -r1, lsl #2
    215c:	06000001 	streq	r0, [r0], -r1
    2160:	0000a800 	andeq	sl, r0, r0, lsl #16
    2164:	0000b000 	andeq	fp, r0, r0
    2168:	51000100 	mrspl	r0, (UNDEF: 16)
    216c:	0000010c 	andeq	r0, r0, ip, lsl #2
    2170:	0000011c 	andeq	r0, r0, ip, lsl r1
    2174:	1c5c0001 	mrrcne	0, 0, r0, ip, cr1
    2178:	2c000001 	stccs	0, cr0, [r0], {1}
    217c:	01000001 	tsteq	r0, r1
    2180:	012c5800 			; <UNDEFINED> instruction: 0x012c5800
    2184:	01300000 	teqeq	r0, r0
    2188:	00010000 	andeq	r0, r1, r0
    218c:	0001305c 	andeq	r3, r1, ip, asr r0
    2190:	00013000 	andeq	r3, r1, r0
    2194:	7c000300 	stcvc	3, cr0, [r0], {-0}
    2198:	027c9f01 	rsbseq	r9, ip, #1, 30
    219c:	029c0000 	addseq	r0, ip, #0, 0
    21a0:	00020000 	andeq	r0, r2, r0
    21a4:	02c09f31 	sbceq	r9, r0, #196	; 0xc4
    21a8:	02cc0000 	sbceq	r0, ip, #0, 0
    21ac:	00010000 	andeq	r0, r1, r0
    21b0:	0002f051 	andeq	pc, r2, r1, asr r0	; <UNPREDICTABLE>
    21b4:	00032800 	andeq	r2, r3, r0, lsl #16
    21b8:	31000200 	mrscc	r0, R8_usr
    21bc:	0000009f 	muleq	r0, pc, r0	; <UNPREDICTABLE>
    21c0:	00000000 	andeq	r0, r0, r0
    21c4:	06060100 	streq	r0, [r6], -r0, lsl #2
    21c8:	00000101 	andeq	r0, r0, r1, lsl #2
    21cc:	00015c01 	andeq	r5, r1, r1, lsl #24
    21d0:	00015c00 	andeq	r5, r1, r0, lsl #24
    21d4:	91000400 	tstls	r0, r0, lsl #8
    21d8:	5c9f7fa0 	ldcpl	15, cr7, [pc], {160}	; 0xa0
    21dc:	8c000001 	stchi	0, cr0, [r0], {1}
    21e0:	01000001 	tsteq	r0, r1
    21e4:	029c5200 	addseq	r5, ip, #0, 4
    21e8:	02a00000 	adceq	r0, r0, #0, 0
    21ec:	00010000 	andeq	r0, r1, r0
    21f0:	0002a05e 	andeq	sl, r2, lr, asr r0
    21f4:	0002ac00 	andeq	sl, r2, r0, lsl #24
    21f8:	52000100 	andpl	r0, r0, #0
	...
    2204:	01000000 	mrseq	r0, (UNDEF: 0)
    2208:	07010001 	streq	r0, [r1, -r1]
    220c:	0000016c 	andeq	r0, r0, ip, ror #2
    2210:	00000170 	andeq	r0, r0, r0, ror r1
    2214:	7f730003 	svcvc	0x00730003
    2218:	0001709f 	muleq	r1, pc, r0	; <UNPREDICTABLE>
    221c:	00017800 	andeq	r7, r1, r0, lsl #16
    2220:	53000100 	movwpl	r0, #256	; 0x100
    2224:	00000178 	andeq	r0, r0, r8, ror r1
    2228:	00000184 	andeq	r0, r0, r4, lsl #3
    222c:	7f730003 	svcvc	0x00730003
    2230:	00029c9f 	muleq	r2, pc, ip	; <UNPREDICTABLE>
    2234:	00029c00 	andeq	r9, r2, r0, lsl #24
    2238:	91000400 	tstls	r0, r0, lsl #8
    223c:	009f7fa1 	addseq	r7, pc, r1, lsr #31
    2240:	00000000 	andeq	r0, r0, r0
    2244:	01000000 	mrseq	r0, (UNDEF: 0)
    2248:	5c010101 	stfpls	f0, [r1], {1}
    224c:	8c000001 	stchi	0, cr0, [r0], {1}
    2250:	03000001 	movweq	r0, #1
    2254:	9f800800 	svcls	0x00800800
    2258:	0000029c 	muleq	r0, ip, r2
    225c:	000002ac 	andeq	r0, r0, ip, lsr #5
    2260:	80080003 	andhi	r0, r8, r3
    2264:	0000009f 	muleq	r0, pc, r0	; <UNPREDICTABLE>
    2268:	00000000 	andeq	r0, r0, r0
    226c:	00000100 	andeq	r0, r0, r0, lsl #2
    2270:	00000101 	andeq	r0, r0, r1, lsl #2
    2274:	01010101 	tsteq	r1, r1, lsl #2
    2278:	5c010101 	stfpls	f0, [r1], {1}
    227c:	6c000001 	stcvs	0, cr0, [r0], {1}
    2280:	01000001 	tsteq	r0, r1
    2284:	016c5000 	cmneq	ip, r0
    2288:	016c0000 	cmneq	ip, r0
    228c:	00030000 	andeq	r0, r3, r0
    2290:	6c9f017c 	ldfvss	f0, [pc], {124}	; 0x7c
    2294:	78000001 	stmdavc	r0, {r0}
    2298:	03000001 	movweq	r0, #1
    229c:	9f027c00 	svcls	0x00027c00
    22a0:	00000178 	andeq	r0, r0, r8, ror r1
    22a4:	00000188 	andeq	r0, r0, r8, lsl #3
    22a8:	017c0003 	cmneq	ip, r3
    22ac:	0001889f 	muleq	r1, pc, r8	; <UNPREDICTABLE>
    22b0:	00018c00 	andeq	r8, r1, r0, lsl #24
    22b4:	7e000300 	cdpvc	3, 0, cr0, cr0, cr0, {0}
    22b8:	029c9f01 	addseq	r9, ip, #1, 30
    22bc:	02a40000 	adceq	r0, r4, #0, 0
    22c0:	00010000 	andeq	r0, r1, r0
    22c4:	0002a450 	andeq	sl, r2, r0, asr r4
    22c8:	0002ac00 	andeq	sl, r2, r0, lsl #24
    22cc:	7e000300 	cdpvc	3, 0, cr0, cr0, cr0, {0}
    22d0:	00009f01 	andeq	r9, r0, r1, lsl #30
    22d4:	00000000 	andeq	r0, r0, r0
    22d8:	00040000 	andeq	r0, r4, r0
    22dc:	01000004 	tsteq	r0, r4
    22e0:	0000015c 	andeq	r0, r0, ip, asr r1
    22e4:	00000160 	andeq	r0, r0, r0, ror #2
    22e8:	01710003 	cmneq	r1, r3
    22ec:	00029c9f 	muleq	r2, pc, ip	; <UNPREDICTABLE>
    22f0:	0002a000 	andeq	sl, r2, r0
    22f4:	32000200 	andcc	r0, r0, #0, 4
    22f8:	0002a09f 	muleq	r2, pc, r0	; <UNPREDICTABLE>
    22fc:	0002ac00 	andeq	sl, r2, r0, lsl #24
    2300:	71000300 	mrsvc	r0, LR_irq
    2304:	00009f01 	andeq	r9, r0, r1, lsl #30
    2308:	00000000 	andeq	r0, r0, r0
    230c:	00070000 	andeq	r0, r7, r0
    2310:	015c0006 	cmpeq	ip, r6
    2314:	01940000 	orrseq	r0, r4, r0
    2318:	00010000 	andeq	r0, r1, r0
    231c:	00029c50 	andeq	r9, r2, r0, asr ip
    2320:	0002b400 	andeq	fp, r2, r0, lsl #8
    2324:	50000100 	andpl	r0, r0, r0, lsl #2
	...
    2330:	00010101 	andeq	r0, r1, r1, lsl #2
    2334:	00000214 	andeq	r0, r0, r4, lsl r2
    2338:	00000220 	andeq	r0, r0, r0, lsr #4
    233c:	9f300002 	svcls	0x00300002
    2340:	00000220 	andeq	r0, r0, r0, lsr #4
    2344:	00000234 	andeq	r0, r0, r4, lsr r2
    2348:	9f310002 	svcls	0x00310002
	...
    2354:	00010100 	andeq	r0, r1, r0, lsl #2
    2358:	00010100 	andeq	r0, r1, r0, lsl #2
    235c:	00010100 	andeq	r0, r1, r0, lsl #2
    2360:	00010100 	andeq	r0, r1, r0, lsl #2
    2364:	00010100 	andeq	r0, r1, r0, lsl #2
    2368:	01020200 	mrseq	r0, R10_usr
    236c:	00000080 	andeq	r0, r0, r0, lsl #1
    2370:	00000080 	andeq	r0, r0, r0, lsl #1
    2374:	80530001 	subshi	r0, r3, r1
    2378:	8c000000 	stchi	0, cr0, [r0], {-0}
    237c:	03000000 	movweq	r0, #0
    2380:	9f047300 	svcls	0x00047300
    2384:	0000008c 	andeq	r0, r0, ip, lsl #1
    2388:	00000094 	muleq	r0, r4, r0
    238c:	94510001 	ldrbls	r0, [r1], #-1
    2390:	98000000 	stmdals	r0, {}	; <UNPREDICTABLE>
    2394:	03000000 	movweq	r0, #0
    2398:	9f087300 	svcls	0x00087300
    239c:	00000098 	muleq	r0, r8, r0
    23a0:	000000a4 	andeq	r0, r0, r4, lsr #1
    23a4:	a4510001 	ldrbge	r0, [r1], #-1
    23a8:	a8000000 	stmdage	r0, {}	; <UNPREDICTABLE>
    23ac:	03000000 	movweq	r0, #0
    23b0:	9f0c7300 	svcls	0x000c7300
    23b4:	000000a8 	andeq	r0, r0, r8, lsr #1
    23b8:	000000b4 	strheq	r0, [r0], -r4
    23bc:	b4510001 	ldrblt	r0, [r1], #-1
    23c0:	b8000000 	stmdalt	r0, {}	; <UNPREDICTABLE>
    23c4:	03000000 	movweq	r0, #0
    23c8:	9f107300 	svcls	0x00107300
    23cc:	000000b8 	strheq	r0, [r0], -r8
    23d0:	000000c4 	andeq	r0, r0, r4, asr #1
    23d4:	c4510001 	ldrbgt	r0, [r1], #-1
    23d8:	c8000000 	stmdagt	r0, {}	; <UNPREDICTABLE>
    23dc:	03000000 	movweq	r0, #0
    23e0:	9f147300 	svcls	0x00147300
    23e4:	000000c8 	andeq	r0, r0, r8, asr #1
    23e8:	000000d0 	ldrdeq	r0, [r0], -r0	; <UNPREDICTABLE>
    23ec:	d0510001 	subsle	r0, r1, r1
    23f0:	d4000000 	strle	r0, [r0], #-0
    23f4:	03000000 	movweq	r0, #0
    23f8:	9f047100 	svcls	0x00047100
	...
    2404:	00d80002 	sbcseq	r0, r8, r2
    2408:	00e80000 	rsceq	r0, r8, r0
    240c:	00020000 	andeq	r0, r2, r0
    2410:	00009f31 	andeq	r9, r0, r1, lsr pc
    2414:	00000000 	andeq	r0, r0, r0
    2418:	00040000 	andeq	r0, r4, r0
    241c:	983c0100 	ldmdals	ip!, {r8}
    2420:	98440000 	stmdals	r4, {}^	; <UNPREDICTABLE>
    2424:	00020000 	andeq	r0, r2, r0
    2428:	98449f30 	stmdals	r4, {r4, r5, r8, r9, sl, fp, ip, pc}^
    242c:	98440000 	stmdals	r4, {}^	; <UNPREDICTABLE>
    2430:	00010000 	andeq	r0, r1, r0
    2434:	00000053 	andeq	r0, r0, r3, asr r0
    2438:	00000000 	andeq	r0, r0, r0
    243c:	00000300 	andeq	r0, r0, r0, lsl #6
    2440:	00000000 	andeq	r0, r0, r0
    2444:	00985000 	addseq	r5, r8, r0
    2448:	00985400 	addseq	r5, r8, r0, lsl #8
    244c:	30000200 	andcc	r0, r0, r0, lsl #4
    2450:	0098549f 	umullseq	r5, r8, pc, r4	; <UNPREDICTABLE>
    2454:	00985800 	addseq	r5, r8, r0, lsl #16
    2458:	53000100 	movwpl	r0, #256	; 0x100
    245c:	00009858 	andeq	r9, r0, r8, asr r8
    2460:	0000985c 	andeq	r9, r0, ip, asr r8
    2464:	00730005 	rsbseq	r0, r3, r5
    2468:	5c9f2140 	ldfpls	f2, [pc], {64}	; 0x40
    246c:	60000098 	mulvs	r0, r8, r0
    2470:	01000098 	swpeq	r0, r8, [r0]	; <UNPREDICTABLE>
    2474:	00005300 	andeq	r5, r0, r0, lsl #6
    2478:	00000000 	andeq	r0, r0, r0
    247c:	00020000 	andeq	r0, r2, r0
    2480:	98100000 	ldmdals	r0, {}	; <UNPREDICTABLE>
    2484:	98140000 	ldmdals	r4, {}	; <UNPREDICTABLE>
    2488:	00020000 	andeq	r0, r2, r0
    248c:	98149f30 	ldmdals	r4, {r4, r5, r8, r9, sl, fp, ip, pc}
    2490:	98180000 	ldmdals	r8, {}	; <UNPREDICTABLE>
    2494:	00010000 	andeq	r0, r1, r0
    2498:	00000050 	andeq	r0, r0, r0, asr r0
    249c:	00000000 	andeq	r0, r0, r0
    24a0:	00000200 	andeq	r0, r0, r0, lsl #4
    24a4:	00000000 	andeq	r0, r0, r0
    24a8:	00982800 	addseq	r2, r8, r0, lsl #16
    24ac:	00982c00 	addseq	r2, r8, r0, lsl #24
    24b0:	30000200 	andcc	r0, r0, r0, lsl #4
    24b4:	00982c9f 	umullseq	r2, r8, pc, ip	; <UNPREDICTABLE>
    24b8:	00983000 	addseq	r3, r8, r0
    24bc:	53000100 	movwpl	r0, #256	; 0x100
    24c0:	00009830 	andeq	r9, r0, r0, lsr r8
    24c4:	00009834 	andeq	r9, r0, r4, lsr r8
    24c8:	00730005 	rsbseq	r0, r3, r5
    24cc:	349f2140 	ldrcc	r2, [pc], #320	; 24d4 <__code_start__-0x5b2c>
    24d0:	3c000098 	stccc	0, cr0, [r0], {152}	; 0x98
    24d4:	01000098 	swpeq	r0, r8, [r0]	; <UNPREDICTABLE>
    24d8:	00005300 	andeq	r5, r0, r0, lsl #6
	...
    24e4:	00c80000 	sbceq	r0, r8, r0
    24e8:	00d80000 	sbcseq	r0, r8, r0
    24ec:	00010000 	andeq	r0, r1, r0
    24f0:	0000d850 	andeq	sp, r0, r0, asr r8
    24f4:	00011c00 	andeq	r1, r1, r0, lsl #24
    24f8:	f3000400 	vshl.u8	d0, d0, d0
    24fc:	009f5001 	addseq	r5, pc, r1
    2500:	00000000 	andeq	r0, r0, r0
    2504:	02000000 	andeq	r0, r0, #0, 0
    2508:	c8000000 	stmdagt	r0, {}	; <UNPREDICTABLE>
    250c:	d8000000 	stmdale	r0, {}	; <UNPREDICTABLE>
    2510:	07000000 	streq	r0, [r0, -r0]
    2514:	0a007000 	beq	1e51c <__bss_end__+0x1354c>
    2518:	9f1e03e8 	svcls	0x001e03e8
    251c:	000000d8 	ldrdeq	r0, [r0], -r8
    2520:	0000011c 	andeq	r0, r0, ip, lsl r1
    2524:	01f30008 	mvnseq	r0, r8
    2528:	03e80a50 	mvneq	r0, #80, 20	; 0x50000
    252c:	00009f1e 	andeq	r9, r0, lr, lsl pc
	...
    2538:	000000dc 	ldrdeq	r0, [r0], -ip
    253c:	0000011c 	andeq	r0, r0, ip, lsl r1
    2540:	00540001 	subseq	r0, r4, r1
    2544:	00000000 	andeq	r0, r0, r0
    2548:	01000000 	mrseq	r0, (UNDEF: 0)
    254c:	0000f000 	andeq	pc, r0, r0
    2550:	00011c00 	andeq	r1, r1, r0, lsl #24
    2554:	56000100 	strpl	r0, [r0], -r0, lsl #2
	...
    2564:	000000ec 	andeq	r0, r0, ip, ror #1
    2568:	000000ef 	andeq	r0, r0, pc, ror #1
    256c:	ef500001 	svc	0x00500001
    2570:	1c000000 	stcne	0, cr0, [r0], {-0}
    2574:	01000001 	tsteq	r0, r1
    2578:	00005600 	andeq	r5, r0, r0, lsl #12
	...
    2584:	00000104 	andeq	r0, r0, r4, lsl #2
    2588:	0000010b 	andeq	r0, r0, fp, lsl #2
    258c:	00500001 	subseq	r0, r0, r1
	...
    2598:	20000000 	andcs	r0, r0, r0
    259c:	23000000 	movwcs	r0, #0
    25a0:	01000000 	mrseq	r0, (UNDEF: 0)
    25a4:	00235000 	eoreq	r5, r3, r0
    25a8:	00300000 	eorseq	r0, r0, r0
    25ac:	00010000 	andeq	r0, r1, r0
    25b0:	00000054 	andeq	r0, r0, r4, asr r0
	...
    25bc:	00003000 	andeq	r3, r0, r0
    25c0:	00003b00 	andeq	r3, r0, r0, lsl #22
    25c4:	50000100 	andpl	r0, r0, r0, lsl #2
    25c8:	0000003b 	andeq	r0, r0, fp, lsr r0
    25cc:	00000078 	andeq	r0, r0, r8, ror r0
    25d0:	00560001 	subseq	r0, r6, r1
    25d4:	00000000 	andeq	r0, r0, r0
    25d8:	01000000 	mrseq	r0, (UNDEF: 0)
    25dc:	00004c00 	andeq	r4, r0, r0, lsl #24
    25e0:	00007800 	andeq	r7, r0, r0, lsl #16
    25e4:	55000100 	strpl	r0, [r0, #-256]	; 0xffffff00
	...
    25f4:	00000048 	andeq	r0, r0, r8, asr #32
    25f8:	0000004b 	andeq	r0, r0, fp, asr #32
    25fc:	4b500001 	blmi	1402608 <__bss_end__+0x13f7638>
    2600:	78000000 	stmdavc	r0, {}	; <UNPREDICTABLE>
    2604:	01000000 	mrseq	r0, (UNDEF: 0)
    2608:	00005500 	andeq	r5, r0, r0, lsl #10
	...
    2614:	00000060 	andeq	r0, r0, r0, rrx
    2618:	00000067 	andeq	r0, r0, r7, rrx
    261c:	00500001 	subseq	r0, r0, r1
	...
    2628:	78000000 	stmdavc	r0, {}	; <UNPREDICTABLE>
    262c:	84000000 	strhi	r0, [r0], #-0
    2630:	01000000 	mrseq	r0, (UNDEF: 0)
    2634:	00845000 	addeq	r5, r4, r0
    2638:	00c80000 	sbceq	r0, r8, r0
    263c:	00040000 	andeq	r0, r4, r0
    2640:	9f5001f3 	svcls	0x005001f3
	...
    264c:	00880000 	addeq	r0, r8, r0
    2650:	00c80000 	sbceq	r0, r8, r0
    2654:	00010000 	andeq	r0, r1, r0
    2658:	00000054 	andeq	r0, r0, r4, asr r0
    265c:	00000000 	andeq	r0, r0, r0
    2660:	9c000100 	stflss	f0, [r0], {-0}
    2664:	c8000000 	stmdagt	r0, {}	; <UNPREDICTABLE>
    2668:	01000000 	mrseq	r0, (UNDEF: 0)
    266c:	00005600 	andeq	r5, r0, r0, lsl #12
	...
    2678:	00980000 	addseq	r0, r8, r0
    267c:	009b0000 	addseq	r0, fp, r0
    2680:	00010000 	andeq	r0, r1, r0
    2684:	00009b50 	andeq	r9, r0, r0, asr fp
    2688:	0000c800 	andeq	ip, r0, r0, lsl #16
    268c:	56000100 	strpl	r0, [r0], -r0, lsl #2
	...
    2698:	00b00000 	adcseq	r0, r0, r0
    269c:	00b70000 	adcseq	r0, r7, r0
    26a0:	00010000 	andeq	r0, r1, r0
    26a4:	00000050 	andeq	r0, r0, r0, asr r0
	...
    26b0:	00015800 	andeq	r5, r1, r0, lsl #16
    26b4:	00016300 	andeq	r6, r1, r0, lsl #6
    26b8:	50000100 	andpl	r0, r0, r0, lsl #2
    26bc:	00000163 	andeq	r0, r0, r3, ror #2
    26c0:	00000188 	andeq	r0, r0, r8, lsl #3
    26c4:	00540001 	subseq	r0, r4, r1
	...
    26d0:	00014800 	andeq	r4, r1, r0, lsl #16
    26d4:	00015800 	andeq	r5, r1, r0, lsl #16
    26d8:	54000100 	strpl	r0, [r0], #-256	; 0xffffff00
	...
    26ec:	0000000f 	andeq	r0, r0, pc
    26f0:	0f500001 	svceq	0x00500001
    26f4:	20000000 	andcs	r0, r0, r0
    26f8:	01000000 	mrseq	r0, (UNDEF: 0)
    26fc:	00005400 	andeq	r5, r0, r0, lsl #8
	...
    270c:	000f0000 	andeq	r0, pc, r0
    2710:	00010000 	andeq	r0, r1, r0
    2714:	00000f51 	andeq	r0, r0, r1, asr pc
    2718:	00002000 	andeq	r2, r0, r0
    271c:	55000100 	strpl	r0, [r0, #-256]	; 0xffffff00
	...
    272c:	00000020 	andeq	r0, r0, r0, lsr #32
    2730:	0000002f 	andeq	r0, r0, pc, lsr #32
    2734:	2f500001 	svccs	0x00500001
    2738:	40000000 	andmi	r0, r0, r0
    273c:	01000000 	mrseq	r0, (UNDEF: 0)
    2740:	00005400 	andeq	r5, r0, r0, lsl #8
	...
    274c:	00200000 	eoreq	r0, r0, r0
    2750:	002f0000 	eoreq	r0, pc, r0
    2754:	00010000 	andeq	r0, r1, r0
    2758:	00002f51 	andeq	r2, r0, r1, asr pc
    275c:	00004000 	andeq	r4, r0, r0
    2760:	55000100 	strpl	r0, [r0, #-256]	; 0xffffff00
	...
    2770:	03500000 	cmpeq	r0, #0, 0
    2774:	03980000 	orrseq	r0, r8, #0, 0
    2778:	00010000 	andeq	r0, r1, r0
    277c:	00039850 	andeq	r9, r3, r0, asr r8
    2780:	00039b00 	andeq	r9, r3, r0, lsl #22
    2784:	91000200 	mrsls	r0, R8_usr
    2788:	00039b68 	andeq	r9, r3, r8, ror #22
    278c:	0003b000 	andeq	fp, r3, r0
    2790:	f3000400 	vshl.u8	d0, d0, d0
    2794:	009f5001 	addseq	r5, pc, r1
	...
    27b0:	20000000 	andcs	r0, r0, r0
    27b4:	7b000002 	blvc	27c4 <__code_start__-0x583c>
    27b8:	01000002 	tsteq	r0, r2
    27bc:	027b5000 	rsbseq	r5, fp, #0, 0
    27c0:	02840000 	addeq	r0, r4, #0, 0
    27c4:	00040000 	andeq	r0, r4, r0
    27c8:	9f5001f3 	svcls	0x005001f3
    27cc:	00000284 	andeq	r0, r0, r4, lsl #5
    27d0:	0000029c 	muleq	r0, ip, r2
    27d4:	9c500001 	mrrcls	0, 0, r0, r0, cr1	; <UNPREDICTABLE>
    27d8:	a4000002 	strge	r0, [r0], #-2
    27dc:	04000002 	streq	r0, [r0], #-2
    27e0:	5001f300 	andpl	pc, r1, r0, lsl #6
    27e4:	0002a49f 	muleq	r2, pc, r4	; <UNPREDICTABLE>
    27e8:	0002a700 	andeq	sl, r2, r0, lsl #14
    27ec:	50000100 	andpl	r0, r0, r0, lsl #2
    27f0:	000002a7 	andeq	r0, r0, r7, lsr #5
    27f4:	000002c8 	andeq	r0, r0, r8, asr #5
    27f8:	01f30004 	mvnseq	r0, r4
    27fc:	02c89f50 	sbceq	r9, r8, #80, 30	; 0x140
    2800:	02e00000 	rsceq	r0, r0, #0, 0
    2804:	00010000 	andeq	r0, r1, r0
    2808:	0002e050 	andeq	lr, r2, r0, asr r0
    280c:	0002e800 	andeq	lr, r2, r0, lsl #16
    2810:	f3000400 	vshl.u8	d0, d0, d0
    2814:	e89f5001 	ldm	pc, {r0, ip, lr}	; <UNPREDICTABLE>
    2818:	eb000002 	bl	2828 <__code_start__-0x57d8>
    281c:	01000002 	tsteq	r0, r2
    2820:	02eb5000 	rsceq	r5, fp, #0, 0
    2824:	03380000 	teqeq	r8, #0, 0
    2828:	00040000 	andeq	r0, r4, r0
    282c:	9f5001f3 	svcls	0x005001f3
	...
    284c:	00000220 	andeq	r0, r0, r0, lsr #4
    2850:	00000244 	andeq	r0, r0, r4, asr #4
    2854:	44510001 	ldrbmi	r0, [r1], #-1
    2858:	68000002 	stmdavs	r0, {r1}
    285c:	01000002 	tsteq	r0, r2
    2860:	02685100 	rsbeq	r5, r8, #0
    2864:	027b0000 	rsbseq	r0, fp, #0, 0
    2868:	00030000 	andeq	r0, r3, r0
    286c:	7b9f0171 	blvc	fe7c2e38 <__bss_end__+0xfe7b7e68>
    2870:	84000002 	strhi	r0, [r0], #-2
    2874:	17000002 	strne	r0, [r0, -r2]
    2878:	01f33800 	mvnseq	r3, r0, lsl #16
    287c:	5101f351 	tstpl	r1, r1, asr r3	; <UNPREDICTABLE>
    2880:	22244b40 	eorcs	r4, r4, #64, 22	; 0x10000
    2884:	0000080c 	andeq	r0, r0, ip, lsl #16
    2888:	01282d80 	smlawbeq	r8, r0, sp, r2
    288c:	9f131600 	svcls	0x00131600
    2890:	00000284 	andeq	r0, r0, r4, lsl #5
    2894:	00000298 	muleq	r0, r8, r2
    2898:	98510001 	ldmdals	r1, {r0}^
    289c:	a4000002 	strge	r0, [r0], #-2
    28a0:	04000002 	streq	r0, [r0], #-2
    28a4:	5101f300 	mrspl	pc, SP_irq	; <UNPREDICTABLE>
    28a8:	0002a49f 	muleq	r2, pc, r4	; <UNPREDICTABLE>
    28ac:	0002a700 	andeq	sl, r2, r0, lsl #14
    28b0:	51000100 	mrspl	r0, (UNDEF: 16)
    28b4:	000002a7 	andeq	r0, r0, r7, lsr #5
    28b8:	000002c8 	andeq	r0, r0, r8, asr #5
    28bc:	01f30004 	mvnseq	r0, r4
    28c0:	02c89f51 	sbceq	r9, r8, #324	; 0x144
    28c4:	02dc0000 	sbcseq	r0, ip, #0, 0
    28c8:	00010000 	andeq	r0, r1, r0
    28cc:	0002dc51 	andeq	sp, r2, r1, asr ip
    28d0:	00033800 	andeq	r3, r3, r0, lsl #16
    28d4:	38001700 	stmdacc	r0, {r8, r9, sl, ip}
    28d8:	f35101f3 	vbsl	q8, <illegal reg q8.5>, <illegal reg q9.5>
    28dc:	4b405101 	blmi	1016ce8 <__bss_end__+0x100bd18>
    28e0:	080c2224 	stmdaeq	ip, {r2, r5, r9, sp}
    28e4:	2d800000 	stccs	0, cr0, [r0]
    28e8:	16000128 	strne	r0, [r0], -r8, lsr #2
    28ec:	00009f13 	andeq	r9, r0, r3, lsl pc
	...
    2900:	024c0000 	subeq	r0, ip, #0, 0
    2904:	025c0000 	subseq	r0, ip, #0, 0
    2908:	00010000 	andeq	r0, r1, r0
    290c:	00025c52 	andeq	r5, r2, r2, asr ip
    2910:	00026400 	andeq	r6, r2, r0, lsl #8
    2914:	03000500 	movweq	r0, #1280	; 0x500
    2918:	0000ab94 	muleq	r0, r4, fp
    291c:	00000264 	andeq	r0, r0, r4, ror #4
    2920:	0000027b 	andeq	r0, r0, fp, ror r2
    2924:	c8530001 	ldmdagt	r3, {r0}^
    2928:	d8000002 	stmdale	r0, {r1}
    292c:	01000002 	tsteq	r0, r2
    2930:	02d85200 	sbcseq	r5, r8, #0, 4
    2934:	02e30000 	rsceq	r0, r3, #0, 0
    2938:	00050000 	andeq	r0, r5, r0
    293c:	00ab9403 	adceq	r9, fp, r3, lsl #8
    2940:	0002e800 	andeq	lr, r2, r0, lsl #16
    2944:	0002eb00 	andeq	lr, r2, r0, lsl #22
    2948:	53000100 	movwpl	r0, #256	; 0x100
	...
    2954:	02300004 	eorseq	r0, r0, #4, 0
    2958:	02340000 	eorseq	r0, r4, #0, 0
    295c:	00010000 	andeq	r0, r1, r0
    2960:	00000051 	andeq	r0, r0, r1, asr r0
    2964:	00000000 	andeq	r0, r0, r0
    2968:	3c000200 	sfmcc	f0, 4, [r0], {-0}
    296c:	44000002 	strmi	r0, [r0], #-2
    2970:	02000002 	andeq	r0, r0, #2, 0
    2974:	009f3800 	addseq	r3, pc, r0, lsl #16
    2978:	00000000 	andeq	r0, r0, r0
    297c:	02000000 	andeq	r0, r0, #0, 0
    2980:	00023c00 	andeq	r3, r2, r0, lsl #24
    2984:	00024400 	andeq	r4, r2, r0, lsl #8
    2988:	51000100 	mrspl	r0, (UNDEF: 16)
	...
    2994:	00000001 	andeq	r0, r0, r1
    2998:	024c0000 	subeq	r0, ip, #0, 0
    299c:	02640000 	rsbeq	r0, r4, #0, 0
    29a0:	00010000 	andeq	r0, r1, r0
    29a4:	0002c851 	andeq	ip, r2, r1, asr r8
    29a8:	0002dc00 	andeq	sp, r2, r0, lsl #24
    29ac:	51000100 	mrspl	r0, (UNDEF: 16)
    29b0:	000002dc 	ldrdeq	r0, [r0], -ip
    29b4:	000002e8 	andeq	r0, r0, r8, ror #5
    29b8:	f3380017 	vqadd.u64	d0, d8, d7
    29bc:	01f35101 	mvnseq	r5, r1, lsl #2
    29c0:	244b4051 	strbcs	r4, [fp], #-81	; 0xffffffaf
    29c4:	00080c22 	andeq	r0, r8, r2, lsr #24
    29c8:	282d8000 	stmdacs	sp!, {pc}
    29cc:	13160001 	tstne	r6, #1, 0
    29d0:	0000009f 	muleq	r0, pc, r0	; <UNPREDICTABLE>
    29d4:	00000000 	andeq	r0, r0, r0
    29d8:	00000100 	andeq	r0, r0, r0, lsl #2
    29dc:	00000000 	andeq	r0, r0, r0
    29e0:	00024c00 	andeq	r4, r2, r0, lsl #24
    29e4:	00025c00 	andeq	r5, r2, r0, lsl #24
    29e8:	52000100 	andpl	r0, r0, #0
    29ec:	0000025c 	andeq	r0, r0, ip, asr r2
    29f0:	00000264 	andeq	r0, r0, r4, ror #4
    29f4:	94030005 	strls	r0, [r3], #-5
    29f8:	c80000ab 	stmdagt	r0, {r0, r1, r3, r5, r7}
    29fc:	d8000002 	stmdale	r0, {r1}
    2a00:	01000002 	tsteq	r0, r2
    2a04:	02d85200 	sbcseq	r5, r8, #0, 4
    2a08:	02e30000 	rsceq	r0, r3, #0, 0
    2a0c:	00050000 	andeq	r0, r5, r0
    2a10:	00ab9403 	adceq	r9, fp, r3, lsl #8
	...
    2a1c:	4c000400 	cfstrsmi	mvf0, [r0], {-0}
    2a20:	50000002 	andpl	r0, r0, r2
    2a24:	01000002 	tsteq	r0, r2
    2a28:	00005100 	andeq	r5, r0, r0, lsl #2
    2a2c:	00000000 	andeq	r0, r0, r0
    2a30:	00030000 	andeq	r0, r3, r0
    2a34:	00000264 	andeq	r0, r0, r4, ror #4
    2a38:	00000268 	andeq	r0, r0, r8, ror #4
    2a3c:	00510001 	subseq	r0, r1, r1
    2a40:	00000000 	andeq	r0, r0, r0
    2a44:	03000000 	movweq	r0, #0
    2a48:	00026400 	andeq	r6, r2, r0, lsl #8
    2a4c:	00026800 	andeq	r6, r2, r0, lsl #16
    2a50:	53000100 	movwpl	r0, #256	; 0x100
	...
    2a64:	000001bc 			; <UNDEFINED> instruction: 0x000001bc
    2a68:	000001d3 	ldrdeq	r0, [r0], -r3
    2a6c:	d3500001 	cmple	r0, #1, 0
    2a70:	f0000001 			; <UNDEFINED> instruction: 0xf0000001
    2a74:	01000001 	tsteq	r0, r1
    2a78:	01f05400 	mvnseq	r5, r0, lsl #8
    2a7c:	02080000 	andeq	r0, r8, #0, 0
    2a80:	00010000 	andeq	r0, r1, r0
    2a84:	00020850 	andeq	r0, r2, r0, asr r8
    2a88:	00022000 	andeq	r2, r2, r0
    2a8c:	54000100 	strpl	r0, [r0], #-256	; 0xffffff00
	...
    2a9c:	000001d8 	ldrdeq	r0, [r0], -r8
    2aa0:	000001e3 	andeq	r0, r0, r3, ror #3
    2aa4:	e3500001 	cmp	r0, #1, 0
    2aa8:	f0000001 			; <UNDEFINED> instruction: 0xf0000001
    2aac:	01000001 	tsteq	r0, r1
    2ab0:	00005500 	andeq	r5, r0, r0, lsl #10
	...
    2ac8:	01240000 			; <UNDEFINED> instruction: 0x01240000
    2acc:	01380000 	teqeq	r8, r0
    2ad0:	00010000 	andeq	r0, r1, r0
    2ad4:	00013850 	andeq	r3, r1, r0, asr r8
    2ad8:	00013c00 	andeq	r3, r1, r0, lsl #24
    2adc:	70000300 	andvc	r0, r0, r0, lsl #6
    2ae0:	013c9f79 	teqeq	ip, r9, ror pc
    2ae4:	01600000 	cmneq	r0, r0
    2ae8:	00010000 	andeq	r0, r1, r0
    2aec:	00016053 	andeq	r6, r1, r3, asr r0
    2af0:	00017800 	andeq	r7, r1, r0, lsl #16
    2af4:	50000100 	andpl	r0, r0, r0, lsl #2
    2af8:	00000178 	andeq	r0, r0, r8, ror r1
    2afc:	00000180 	andeq	r0, r0, r0, lsl #3
    2b00:	01f30004 	mvnseq	r0, r4
    2b04:	01809f50 	orreq	r9, r0, r0, asr pc
    2b08:	01900000 	orrseq	r0, r0, r0
    2b0c:	00010000 	andeq	r0, r1, r0
    2b10:	00019053 	andeq	r9, r1, r3, asr r0
    2b14:	00019f00 	andeq	r9, r1, r0, lsl #30
    2b18:	91000200 	mrsls	r0, R8_usr
    2b1c:	00019f68 	andeq	r9, r1, r8, ror #30
    2b20:	0001bc00 	andeq	fp, r1, r0, lsl #24
    2b24:	f3000900 	vmls.i8	d0, d0, d0
    2b28:	07235001 	streq	r5, [r3, -r1]!
    2b2c:	9f1af809 	svcls	0x001af809
	...
    2b3c:	00000144 	andeq	r0, r0, r4, asr #2
    2b40:	00000160 	andeq	r0, r0, r0, ror #2
    2b44:	80500001 	subshi	r0, r0, r1
    2b48:	9c000001 	stcls	0, cr0, [r0], {1}
    2b4c:	01000001 	tsteq	r0, r1
    2b50:	00005000 	andeq	r5, r0, r0
    2b54:	00000000 	andeq	r0, r0, r0
    2b58:	00030000 	andeq	r0, r3, r0
    2b5c:	00000134 	andeq	r0, r0, r4, lsr r1
    2b60:	0000013c 	andeq	r0, r0, ip, lsr r1
    2b64:	9f380002 	svcls	0x00380002
	...
    2b70:	00000003 	andeq	r0, r0, r3
    2b74:	00000134 	andeq	r0, r0, r4, lsr r1
    2b78:	00000138 	andeq	r0, r0, r8, lsr r1
    2b7c:	38500001 	ldmdacc	r0, {r0}^
    2b80:	3c000001 	stccc	0, cr0, [r0], {1}
    2b84:	03000001 	movweq	r0, #1
    2b88:	9f797000 	svcls	0x00797000
	...
    2ba0:	00300000 	eorseq	r0, r0, r0
    2ba4:	00600000 	rsbeq	r0, r0, r0
    2ba8:	00010000 	andeq	r0, r1, r0
    2bac:	00006050 	andeq	r6, r0, r0, asr r0
    2bb0:	00006c00 	andeq	r6, r0, r0, lsl #24
    2bb4:	03000500 	movweq	r0, #1280	; 0x500
    2bb8:	0000ab94 	muleq	r0, r4, fp
    2bbc:	0000006c 	andeq	r0, r0, ip, rrx
    2bc0:	00000084 	andeq	r0, r0, r4, lsl #1
    2bc4:	84500001 	ldrbhi	r0, [r0], #-1
    2bc8:	8c000000 	stchi	0, cr0, [r0], {-0}
    2bcc:	04000000 	streq	r0, [r0], #-0
    2bd0:	5001f300 	andpl	pc, r1, r0, lsl #6
    2bd4:	00008c9f 	muleq	r0, pc, ip	; <UNPREDICTABLE>
    2bd8:	0000ac00 	andeq	sl, r0, r0, lsl #24
    2bdc:	50000100 	andpl	r0, r0, r0, lsl #2
    2be0:	000000ac 	andeq	r0, r0, ip, lsr #1
    2be4:	000000af 	andeq	r0, r0, pc, lsr #1
    2be8:	68910002 	ldmvs	r1, {r1}
    2bec:	000000af 	andeq	r0, r0, pc, lsr #1
    2bf0:	000000cc 	andeq	r0, r0, ip, asr #1
    2bf4:	01f30004 	mvnseq	r0, r4
    2bf8:	00009f50 	andeq	r9, r0, r0, asr pc
	...
    2c08:	00300000 	eorseq	r0, r0, r0
    2c0c:	00800000 	addeq	r0, r0, r0
    2c10:	00010000 	andeq	r0, r1, r0
    2c14:	00008051 	andeq	r8, r0, r1, asr r0
    2c18:	00008c00 	andeq	r8, r0, r0, lsl #24
    2c1c:	f3000400 	vshl.u8	d0, d0, d0
    2c20:	8c9f5101 	ldfhis	f5, [pc], {1}
    2c24:	a8000000 	stmdage	r0, {}	; <UNPREDICTABLE>
    2c28:	01000000 	mrseq	r0, (UNDEF: 0)
    2c2c:	00a85100 	adceq	r5, r8, r0, lsl #2
    2c30:	00cc0000 	sbceq	r0, ip, r0
    2c34:	00040000 	andeq	r0, r4, r0
    2c38:	9f5101f3 	svcls	0x005101f3
	...
    2c44:	00000001 	andeq	r0, r0, r1
	...
    2c50:	00380000 	eorseq	r0, r8, r0
    2c54:	00600000 	rsbeq	r0, r0, r0
    2c58:	00010000 	andeq	r0, r1, r0
    2c5c:	00006050 	andeq	r6, r0, r0, asr r0
    2c60:	00006c00 	andeq	r6, r0, r0, lsl #24
    2c64:	03000500 	movweq	r0, #1280	; 0x500
    2c68:	0000ab94 	muleq	r0, r4, fp
    2c6c:	0000006c 	andeq	r0, r0, ip, rrx
    2c70:	00000084 	andeq	r0, r0, r4, lsl #1
    2c74:	84500001 	ldrbhi	r0, [r0], #-1
    2c78:	8c000000 	stchi	0, cr0, [r0], {-0}
    2c7c:	04000000 	streq	r0, [r0], #-0
    2c80:	5001f300 	andpl	pc, r1, r0, lsl #6
    2c84:	00008c9f 	muleq	r0, pc, ip	; <UNPREDICTABLE>
    2c88:	0000ac00 	andeq	sl, r0, r0, lsl #24
    2c8c:	50000100 	andpl	r0, r0, r0, lsl #2
    2c90:	000000ac 	andeq	r0, r0, ip, lsr #1
    2c94:	000000af 	andeq	r0, r0, pc, lsr #1
    2c98:	68910002 	ldmvs	r1, {r1}
    2c9c:	000000af 	andeq	r0, r0, pc, lsr #1
    2ca0:	000000cc 	andeq	r0, r0, ip, asr #1
    2ca4:	01f30004 	mvnseq	r0, r4
    2ca8:	00009f50 	andeq	r9, r0, r0, asr pc
	...
    2cb8:	00000170 	andeq	r0, r0, r0, ror r1
    2cbc:	0000017c 	andeq	r0, r0, ip, ror r1
    2cc0:	7c500001 	mrrcvc	0, 0, r0, r0, cr1	; <UNPREDICTABLE>
    2cc4:	88000001 	stmdahi	r0, {r0}
    2cc8:	01000001 	tsteq	r0, r1
    2ccc:	01885400 	orreq	r5, r8, r0, lsl #8
    2cd0:	01980000 	orrseq	r0, r8, r0
    2cd4:	00040000 	andeq	r0, r4, r0
    2cd8:	9f5001f3 	svcls	0x005001f3
	...
    2cec:	01780000 	cmneq	r8, r0
    2cf0:	017c0000 	cmneq	ip, r0
    2cf4:	000b0000 	andeq	r0, fp, r0
    2cf8:	25350070 	ldrcs	r0, [r5, #-112]!	; 0xffffff90
    2cfc:	8080b423 	addhi	fp, r0, r3, lsr #8
    2d00:	7c9f0281 	lfmvc	f0, 4, [pc], {129}	; 0x81
    2d04:	80000001 	andhi	r0, r0, r1
    2d08:	0b000001 	bleq	2d14 <__code_start__-0x52ec>
    2d0c:	35007400 	strcc	r7, [r0, #-1024]	; 0xfffffc00
    2d10:	80b42325 	adcshi	r2, r4, r5, lsr #6
    2d14:	9f028180 	svcls	0x00028180
    2d18:	00000180 	andeq	r0, r0, r0, lsl #3
    2d1c:	00000183 	andeq	r0, r0, r3, lsl #3
    2d20:	83500001 	cmphi	r0, #1, 0
    2d24:	88000001 	stmdahi	r0, {r0}
    2d28:	0b000001 	bleq	2d34 <__code_start__-0x52cc>
    2d2c:	35007400 	strcc	r7, [r0, #-1024]	; 0xfffffc00
    2d30:	80b42325 	adcshi	r2, r4, r5, lsr #6
    2d34:	9f028180 	svcls	0x00028180
    2d38:	00000188 	andeq	r0, r0, r8, lsl #3
    2d3c:	00000198 	muleq	r0, r8, r1
    2d40:	01f3000c 	mvnseq	r0, ip
    2d44:	23253550 			; <UNDEFINED> instruction: 0x23253550
    2d48:	818080b4 	strhhi	r8, [r0, r4]
    2d4c:	00009f02 	andeq	r9, r0, r2, lsl #30
    2d50:	00000000 	andeq	r0, r0, r0
    2d54:	00010000 	andeq	r0, r1, r0
    2d58:	00000000 	andeq	r0, r0, r0
    2d5c:	00000178 	andeq	r0, r0, r8, ror r1
    2d60:	0000017c 	andeq	r0, r0, ip, ror r1
    2d64:	00700005 	rsbseq	r0, r0, r5
    2d68:	7c9f1a4f 	vldmiavc	pc, {s2-s80}
    2d6c:	88000001 	stmdahi	r0, {r0}
    2d70:	05000001 	streq	r0, [r0, #-1]
    2d74:	4f007400 	svcmi	0x00007400
    2d78:	01889f1a 	orreq	r9, r8, sl, lsl pc
    2d7c:	01980000 	orrseq	r0, r8, r0
    2d80:	00010000 	andeq	r0, r1, r0
    2d84:	00000054 	andeq	r0, r0, r4, asr r0
	...
    2d98:	00014000 	andeq	r4, r1, r0
    2d9c:	00015400 	andeq	r5, r1, r0, lsl #8
    2da0:	50000100 	andpl	r0, r0, r0, lsl #2
    2da4:	00000154 	andeq	r0, r0, r4, asr r1
    2da8:	00000158 	andeq	r0, r0, r8, asr r1
    2dac:	58510001 	ldmdapl	r1, {r0}^
    2db0:	5c000001 	stcpl	0, cr0, [r0], {1}
    2db4:	04000001 	streq	r0, [r0], #-1
    2db8:	5001f300 	andpl	pc, r1, r0, lsl #6
    2dbc:	00015c9f 	muleq	r1, pc, ip	; <UNPREDICTABLE>
    2dc0:	00016000 	andeq	r6, r1, r0
    2dc4:	50000100 	andpl	r0, r0, r0, lsl #2
    2dc8:	00000160 	andeq	r0, r0, r0, ror #2
    2dcc:	00000164 	andeq	r0, r0, r4, ror #2
    2dd0:	64510001 	ldrbvs	r0, [r1], #-1
    2dd4:	70000001 	andvc	r0, r0, r1
    2dd8:	04000001 	streq	r0, [r0], #-1
    2ddc:	5001f300 	andpl	pc, r1, r0, lsl #6
    2de0:	0000009f 	muleq	r0, pc, r0	; <UNPREDICTABLE>
	...
    2dec:	00014000 	andeq	r4, r1, r0
    2df0:	00014c00 	andeq	r4, r1, r0, lsl #24
    2df4:	51000100 	mrspl	r0, (UNDEF: 16)
    2df8:	0000014c 	andeq	r0, r0, ip, asr #2
    2dfc:	00000170 	andeq	r0, r0, r0, ror r1
    2e00:	01f30004 	mvnseq	r0, r4
    2e04:	00009f51 	andeq	r9, r0, r1, asr pc
    2e08:	00000000 	andeq	r0, r0, r0
    2e0c:	00010000 	andeq	r0, r1, r0
    2e10:	00000000 	andeq	r0, r0, r0
    2e14:	00000150 	andeq	r0, r0, r0, asr r1
    2e18:	00000154 	andeq	r0, r0, r4, asr r1
    2e1c:	54500001 	ldrbpl	r0, [r0], #-1
    2e20:	58000001 	stmdapl	r0, {r0}
    2e24:	01000001 	tsteq	r0, r1
    2e28:	01585100 	cmpeq	r8, r0, lsl #2
    2e2c:	015c0000 	cmpeq	ip, r0
    2e30:	00040000 	andeq	r0, r4, r0
    2e34:	9f5001f3 	svcls	0x005001f3
	...
    2e40:	00000002 	andeq	r0, r0, r2
    2e44:	015c0000 	cmpeq	ip, r0
    2e48:	01600000 	cmneq	r0, r0
    2e4c:	00010000 	andeq	r0, r1, r0
    2e50:	00016050 	andeq	r6, r1, r0, asr r0
    2e54:	00016400 	andeq	r6, r1, r0, lsl #8
    2e58:	51000100 	mrspl	r0, (UNDEF: 16)
    2e5c:	00000164 	andeq	r0, r0, r4, ror #2
    2e60:	00000170 	andeq	r0, r0, r0, ror r1
    2e64:	01f30004 	mvnseq	r0, r4
    2e68:	00009f50 	andeq	r9, r0, r0, asr pc
	...
    2e78:	000000e8 	andeq	r0, r0, r8, ror #1
    2e7c:	00000108 	andeq	r0, r0, r8, lsl #2
    2e80:	08500001 	ldmdaeq	r0, {r0}^
    2e84:	28000001 	stmdacs	r0, {r0}
    2e88:	01000001 	tsteq	r0, r1
    2e8c:	01285400 			; <UNDEFINED> instruction: 0x01285400
    2e90:	01400000 	mrseq	r0, (UNDEF: 64)
    2e94:	00040000 	andeq	r0, r4, r0
    2e98:	9f5001f3 	svcls	0x005001f3
	...
    2ea4:	00000002 	andeq	r0, r0, r2
    2ea8:	00e80000 	rsceq	r0, r8, r0
    2eac:	01080000 	mrseq	r0, (UNDEF: 8)
    2eb0:	00010000 	andeq	r0, r1, r0
    2eb4:	00010850 	andeq	r0, r1, r0, asr r8
    2eb8:	00012800 	andeq	r2, r1, r0, lsl #16
    2ebc:	54000100 	strpl	r0, [r0], #-256	; 0xffffff00
    2ec0:	00000128 	andeq	r0, r0, r8, lsr #2
    2ec4:	00000140 	andeq	r0, r0, r0, asr #2
    2ec8:	01f30004 	mvnseq	r0, r4
    2ecc:	00009f50 	andeq	r9, r0, r0, asr pc
	...
    2edc:	000000f0 	strdeq	r0, [r0], -r0	; <UNPREDICTABLE>
    2ee0:	00000108 	andeq	r0, r0, r8, lsl #2
    2ee4:	08500001 	ldmdaeq	r0, {r0}^
    2ee8:	28000001 	stmdacs	r0, {r0}
    2eec:	01000001 	tsteq	r0, r1
    2ef0:	01285400 			; <UNDEFINED> instruction: 0x01285400
    2ef4:	01400000 	mrseq	r0, (UNDEF: 64)
    2ef8:	00040000 	andeq	r0, r4, r0
    2efc:	9f5001f3 	svcls	0x005001f3
	...
    2f08:	00000003 	andeq	r0, r0, r3
    2f0c:	00f00000 	rscseq	r0, r0, r0
    2f10:	01080000 	mrseq	r0, (UNDEF: 8)
    2f14:	00070000 	andeq	r0, r7, r0
    2f18:	1d3a0070 	ldcne	0, cr0, [sl, #-448]!	; 0xfffffe40
    2f1c:	089f1e33 	ldmeq	pc, {r0, r1, r4, r5, r9, sl, fp, ip}	; <UNPREDICTABLE>
    2f20:	28000001 	stmdacs	r0, {r0}
    2f24:	07000001 	streq	r0, [r0, -r1]
    2f28:	3a007400 	bcc	1ff30 <__bss_end__+0x14f60>
    2f2c:	9f1e331d 	svcls	0x001e331d
    2f30:	00000128 	andeq	r0, r0, r8, lsr #2
    2f34:	00000140 	andeq	r0, r0, r0, asr #2
    2f38:	01f30008 	mvnseq	r0, r8
    2f3c:	331d3a50 	tstcc	sp, #80, 20	; 0x50000
    2f40:	00009f1e 	andeq	r9, r0, lr, lsl pc
	...
    2f50:	00000110 	andeq	r0, r0, r0, lsl r1
    2f54:	00000138 	andeq	r0, r0, r8, lsr r1
    2f58:	38560001 	ldmdacc	r6, {r0}^
    2f5c:	3b000001 	blcc	2f68 <__code_start__-0x5098>
    2f60:	01000001 	tsteq	r0, r1
    2f64:	013b5000 	teqeq	fp, r0
    2f68:	01400000 	mrseq	r0, (UNDEF: 64)
    2f6c:	00260000 	eoreq	r0, r6, r0
    2f70:	f75001f3 			; <UNDEFINED> instruction: 0xf75001f3
    2f74:	f425f72c 	vld1.8	{d15}, [r5 :128], ip
    2f78:	cccd0825 	stclgt	8, cr0, [sp], {37}	; 0x25
    2f7c:	0000cccc 	andeq	ip, r0, ip, asr #25
    2f80:	081e0000 	ldmdaeq	lr, {}	; <UNPREDICTABLE>
    2f84:	2525f720 	strcs	pc, [r5, #-1824]!	; 0xfffff8e0
    2f88:	00f72cf7 	ldrshteq	r2, [r7], #199	; 0xc7
    2f8c:	80232533 	eorhi	r2, r3, r3, lsr r5
    2f90:	3240a080 	subcc	sl, r0, #128, 0	; 0x80
    2f94:	00009f24 	andeq	r9, r0, r4, lsr #30
    2f98:	00000000 	andeq	r0, r0, r0
    2f9c:	01000000 	mrseq	r0, (UNDEF: 0)
    2fa0:	00000001 	andeq	r0, r0, r1
    2fa4:	01200000 			; <UNDEFINED> instruction: 0x01200000
    2fa8:	01200000 			; <UNDEFINED> instruction: 0x01200000
    2fac:	00010000 	andeq	r0, r1, r0
    2fb0:	00012050 	andeq	r2, r1, r0, asr r0
    2fb4:	00012800 	andeq	r2, r1, r0, lsl #16
    2fb8:	37000d00 	strcc	r0, [r0, -r0, lsl #26]
    2fbc:	1d3a0074 	ldcne	0, cr0, [sl, #-464]!	; 0xfffffe30
    2fc0:	20241e33 	eorcs	r1, r4, r3, lsr lr
    2fc4:	9f1a0070 	svcls	0x001a0070
    2fc8:	00000128 	andeq	r0, r0, r8, lsr #2
    2fcc:	00000130 	andeq	r0, r0, r0, lsr r1
    2fd0:	f337000e 	vhadd.u<illegal width 64>	d0, d7, d14
    2fd4:	1d3a5001 	ldcne	0, cr5, [sl, #-4]!
    2fd8:	20241e33 	eorcs	r1, r4, r3, lsr lr
    2fdc:	9f1a0070 	svcls	0x001a0070
    2fe0:	00000130 	andeq	r0, r0, r0, lsr r1
    2fe4:	0000013b 	andeq	r0, r0, fp, lsr r1
    2fe8:	f337000e 	vhadd.u<illegal width 64>	d0, d7, d14
    2fec:	1d3a5001 	ldcne	0, cr5, [sl, #-4]!
    2ff0:	20241e33 	eorcs	r1, r4, r3, lsr lr
    2ff4:	9f1a0073 	svcls	0x001a0073
	...
    3004:	00000060 	andeq	r0, r0, r0, rrx
    3008:	00000090 	muleq	r0, r0, r0
    300c:	90500001 	subsls	r0, r0, r1
    3010:	b8000000 	stmdalt	r0, {}	; <UNPREDICTABLE>
    3014:	04000000 	streq	r0, [r0], #-0
    3018:	5001f300 	andpl	pc, r1, r0, lsl #6
    301c:	0000009f 	muleq	r0, pc, r0	; <UNPREDICTABLE>
    3020:	00000000 	andeq	r0, r0, r0
    3024:	00000200 	andeq	r0, r0, r0, lsl #4
    3028:	00006000 	andeq	r6, r0, r0
    302c:	00009000 	andeq	r9, r0, r0
    3030:	50000100 	andpl	r0, r0, r0, lsl #2
    3034:	00000090 	muleq	r0, r0, r0
    3038:	000000b8 	strheq	r0, [r0], -r8
    303c:	01f30004 	mvnseq	r0, r4
    3040:	00009f50 	andeq	r9, r0, r0, asr pc
	...
    304c:	00680000 	rsbeq	r0, r8, r0
    3050:	00900000 	addseq	r0, r0, r0
    3054:	00010000 	andeq	r0, r1, r0
    3058:	00009050 	andeq	r9, r0, r0, asr r0
    305c:	0000b800 	andeq	fp, r0, r0, lsl #16
    3060:	f3000400 	vshl.u8	d0, d0, d0
    3064:	009f5001 	addseq	r5, pc, r1
	...
    3070:	a0000000 	andge	r0, r0, r0
    3074:	b0000000 	andlt	r0, r0, r0
    3078:	01000000 	mrseq	r0, (UNDEF: 0)
    307c:	00b05400 	adcseq	r5, r0, r0, lsl #8
    3080:	00b80000 	adcseq	r0, r8, r0
    3084:	00290000 	eoreq	r0, r9, r0
    3088:	f35001f3 	vbsl	q8, q8, <illegal reg q9.5>
    308c:	2cf75001 	ldclcs	0, cr5, [r7], #4
    3090:	25f425f7 	ldrbcs	r2, [r4, #1527]!	; 0x5f7
    3094:	cccccd08 	stclgt	13, cr12, [ip], {8}
    3098:	000000cc 	andeq	r0, r0, ip, asr #1
    309c:	20081e00 	andcs	r1, r8, r0, lsl #28
    30a0:	f72525f7 			; <UNDEFINED> instruction: 0xf72525f7
    30a4:	3300f72c 	movwcc	pc, #1836	; 0x72c	; <UNPREDICTABLE>
    30a8:	311e3525 	tstcc	lr, r5, lsr #10
    30ac:	1e331c24 	cdpne	12, 3, cr1, cr3, cr4, {1}
    30b0:	0000009f 	muleq	r0, pc, r0	; <UNPREDICTABLE>
    30b4:	00000000 	andeq	r0, r0, r0
    30b8:	00000100 	andeq	r0, r0, r0, lsl #2
    30bc:	a0000000 	andge	r0, r0, r0
    30c0:	b0000000 	andlt	r0, r0, r0
    30c4:	01000000 	mrseq	r0, (UNDEF: 0)
    30c8:	00b05500 	adcseq	r5, r0, r0, lsl #10
    30cc:	00b30000 	adcseq	r0, r3, r0
    30d0:	00010000 	andeq	r0, r1, r0
    30d4:	0000b350 	andeq	fp, r0, r0, asr r3
    30d8:	0000b800 	andeq	fp, r0, r0, lsl #16
    30dc:	f3002600 	vmax.u8	d2, d0, d0
    30e0:	2cf75001 	ldclcs	0, cr5, [r7], #4
    30e4:	25f425f7 	ldrbcs	r2, [r4, #1527]!	; 0x5f7
    30e8:	cccccd08 	stclgt	13, cr12, [ip], {8}
    30ec:	000000cc 	andeq	r0, r0, ip, asr #1
    30f0:	20081e00 	andcs	r1, r8, r0, lsl #28
    30f4:	f72525f7 			; <UNDEFINED> instruction: 0xf72525f7
    30f8:	3300f72c 	movwcc	pc, #1836	; 0x72c	; <UNPREDICTABLE>
    30fc:	80802325 	addhi	r2, r0, r5, lsr #6
    3100:	243240a0 	ldrtcs	r4, [r2], #-160	; 0xffffff60
    3104:	0000009f 	muleq	r0, pc, r0	; <UNPREDICTABLE>
    3108:	00000000 	andeq	r0, r0, r0
    310c:	00000200 	andeq	r0, r0, r0, lsl #4
    3110:	00000101 	andeq	r0, r0, r1, lsl #2
    3114:	0000a000 	andeq	sl, r0, r0
    3118:	0000a400 	andeq	sl, r0, r0, lsl #8
    311c:	50000100 	andpl	r0, r0, r0, lsl #2
    3120:	000000a4 	andeq	r0, r0, r4, lsr #1
    3124:	000000a4 	andeq	r0, r0, r4, lsr #1
    3128:	a4530001 	ldrbge	r0, [r3], #-1
    312c:	a8000000 	stmdage	r0, {}	; <UNPREDICTABLE>
    3130:	08000000 	stmdaeq	r0, {}	; <UNPREDICTABLE>
    3134:	00743100 	rsbseq	r3, r4, r0, lsl #2
    3138:	21007324 	tstcs	r0, r4, lsr #6
    313c:	0000a89f 	muleq	r0, pc, r8	; <UNPREDICTABLE>
    3140:	0000b300 	andeq	fp, r0, r0, lsl #6
    3144:	51000100 	mrspl	r0, (UNDEF: 16)
	...
    3158:	0000003c 	andeq	r0, r0, ip, lsr r0
    315c:	3c500001 	mrrccc	0, 0, r0, r0, cr1	; <UNPREDICTABLE>
    3160:	60000000 	andvs	r0, r0, r0
    3164:	04000000 	streq	r0, [r0], #-0
    3168:	5001f300 	andpl	pc, r1, r0, lsl #6
    316c:	0000009f 	muleq	r0, pc, r0	; <UNPREDICTABLE>
	...
    317c:	00003f00 	andeq	r3, r0, r0, lsl #30
    3180:	51000100 	mrspl	r0, (UNDEF: 16)
    3184:	0000003f 	andeq	r0, r0, pc, lsr r0
    3188:	00000060 	andeq	r0, r0, r0, rrx
    318c:	01f30004 	mvnseq	r0, r4
    3190:	00009f51 	andeq	r9, r0, r1, asr pc
	...
    319c:	00080000 	andeq	r0, r8, r0
    31a0:	003f0000 	eorseq	r0, pc, r0
    31a4:	00010000 	andeq	r0, r1, r0
    31a8:	00003f51 	andeq	r3, r0, r1, asr pc
    31ac:	00006000 	andeq	r6, r0, r0
    31b0:	f3000400 	vshl.u8	d0, d0, d0
    31b4:	009f5101 	addseq	r5, pc, r1, lsl #2
	...
    31c0:	08000000 	stmdaeq	r0, {}	; <UNPREDICTABLE>
    31c4:	3c000000 	stccc	0, cr0, [r0], {-0}
    31c8:	01000000 	mrseq	r0, (UNDEF: 0)
    31cc:	003c5000 	eorseq	r5, ip, r0
    31d0:	00600000 	rsbeq	r0, r0, r0
    31d4:	00040000 	andeq	r0, r4, r0
    31d8:	9f5001f3 	svcls	0x005001f3
	...
    31e8:	00000048 	andeq	r0, r0, r8, asr #32
    31ec:	00000058 	andeq	r0, r0, r8, asr r0
    31f0:	58540001 	ldmdapl	r4, {r0}^
    31f4:	60000000 	andvs	r0, r0, r0
    31f8:	29000000 	stmdbcs	r0, {}	; <UNPREDICTABLE>
    31fc:	5001f300 	andpl	pc, r1, r0, lsl #6
    3200:	f75001f3 			; <UNDEFINED> instruction: 0xf75001f3
    3204:	f425f72c 	vld1.8	{d15}, [r5 :128], ip
    3208:	cccd0825 	stclgt	8, cr0, [sp], {37}	; 0x25
    320c:	0000cccc 	andeq	ip, r0, ip, asr #25
    3210:	081e0000 	ldmdaeq	lr, {}	; <UNPREDICTABLE>
    3214:	2525f720 	strcs	pc, [r5, #-1824]!	; 0xfffff8e0
    3218:	00f72cf7 	ldrshteq	r2, [r7], #199	; 0xc7
    321c:	1e352533 	mrcne	5, 1, r2, cr5, cr3, {1}
    3220:	331c2431 	tstcc	ip, #822083584	; 0x31000000
    3224:	00009f1e 	andeq	r9, r0, lr, lsl pc
    3228:	00000000 	andeq	r0, r0, r0
    322c:	00010000 	andeq	r0, r1, r0
    3230:	00000000 	andeq	r0, r0, r0
    3234:	00000048 	andeq	r0, r0, r8, asr #32
    3238:	00000058 	andeq	r0, r0, r8, asr r0
    323c:	58560001 	ldmdapl	r6, {r0}^
    3240:	5b000000 	blpl	3248 <__code_start__-0x4db8>
    3244:	01000000 	mrseq	r0, (UNDEF: 0)
    3248:	005b5000 	subseq	r5, fp, r0
    324c:	00600000 	rsbeq	r0, r0, r0
    3250:	00260000 	eoreq	r0, r6, r0
    3254:	f75001f3 			; <UNDEFINED> instruction: 0xf75001f3
    3258:	f425f72c 	vld1.8	{d15}, [r5 :128], ip
    325c:	cccd0825 	stclgt	8, cr0, [sp], {37}	; 0x25
    3260:	0000cccc 	andeq	ip, r0, ip, asr #25
    3264:	081e0000 	ldmdaeq	lr, {}	; <UNPREDICTABLE>
    3268:	2525f720 	strcs	pc, [r5, #-1824]!	; 0xfffff8e0
    326c:	00f72cf7 	ldrshteq	r2, [r7], #199	; 0xc7
    3270:	80232533 	eorhi	r2, r3, r3, lsr r5
    3274:	3240a080 	subcc	sl, r0, #128, 0	; 0x80
    3278:	00009f24 	andeq	r9, r0, r4, lsr #30
    327c:	00000000 	andeq	r0, r0, r0
    3280:	00020000 	andeq	r0, r2, r0
    3284:	00010100 	andeq	r0, r1, r0, lsl #2
    3288:	00480000 	subeq	r0, r8, r0
    328c:	004c0000 	subeq	r0, ip, r0
    3290:	00010000 	andeq	r0, r1, r0
    3294:	00004c50 	andeq	r4, r0, r0, asr ip
    3298:	00004c00 	andeq	r4, r0, r0, lsl #24
    329c:	51000100 	mrspl	r0, (UNDEF: 16)
    32a0:	0000004c 	andeq	r0, r0, ip, asr #32
    32a4:	00000050 	andeq	r0, r0, r0, asr r0
    32a8:	0075000c 	rsbseq	r0, r5, ip
    32ac:	741aff08 	ldrvc	pc, [sl], #-3848	; 0xfffff0f8
    32b0:	00712400 	rsbseq	r2, r1, r0, lsl #8
    32b4:	00509f21 	subseq	r9, r0, r1, lsr #30
    32b8:	00540000 	subseq	r0, r4, r0
    32bc:	00120000 	andseq	r0, r2, r0
    32c0:	24007437 	strcs	r7, [r0], #-1079	; 0xfffffbc9
    32c4:	1a007020 	bne	1f34c <__bss_end__+0x1437c>
    32c8:	ff080075 			; <UNDEFINED> instruction: 0xff080075
    32cc:	2400741a 	strcs	r7, [r0], #-1050	; 0xfffffbe6
    32d0:	00009f21 	andeq	r9, r0, r1, lsr #30
	...
    32e0:	000000b8 	strheq	r0, [r0], -r8
    32e4:	000000c4 	andeq	r0, r0, r4, asr #1
    32e8:	c4500001 	ldrbgt	r0, [r0], #-1
    32ec:	cb000000 	blgt	32f4 <__code_start__-0x4d0c>
    32f0:	01000000 	mrseq	r0, (UNDEF: 0)
    32f4:	00cb5300 	sbceq	r5, fp, r0, lsl #6
    32f8:	00d00000 	sbcseq	r0, r0, r0
    32fc:	00040000 	andeq	r0, r4, r0
    3300:	9f5001f3 	svcls	0x005001f3
	...
    3310:	00d00000 	sbcseq	r0, r0, r0
    3314:	00dc0000 	sbcseq	r0, ip, r0
    3318:	00010000 	andeq	r0, r1, r0
    331c:	0000dc50 	andeq	sp, r0, r0, asr ip
    3320:	0000e300 	andeq	lr, r0, r0, lsl #6
    3324:	53000100 	movwpl	r0, #256	; 0x100
    3328:	000000e3 	andeq	r0, r0, r3, ror #1
    332c:	000000e8 	andeq	r0, r0, r8, ror #1
    3330:	01f30004 	mvnseq	r0, r4
    3334:	00009f50 	andeq	r9, r0, r0, asr pc
	...
    3344:	000b0000 	andeq	r0, fp, r0
    3348:	00010000 	andeq	r0, r1, r0
    334c:	00000b50 	andeq	r0, r0, r0, asr fp
    3350:	00001400 	andeq	r1, r0, r0, lsl #8
    3354:	54000100 	strpl	r0, [r0], #-256	; 0xffffff00
	...
    3368:	00000018 	andeq	r0, r0, r8, lsl r0
    336c:	18510001 	ldmdane	r1, {r0}^
    3370:	2c000000 	stccs	0, cr0, [r0], {-0}
    3374:	04000000 	streq	r0, [r0], #-0
    3378:	5101f300 	mrspl	pc, SP_irq	; <UNPREDICTABLE>
    337c:	0000009f 	muleq	r0, pc, r0	; <UNPREDICTABLE>
    3380:	00000000 	andeq	r0, r0, r0
    3384:	00000200 	andeq	r0, r0, r0, lsl #4
    3388:	00000000 	andeq	r0, r0, r0
    338c:	01010000 	mrseq	r0, (UNDEF: 1)
    3390:	00000000 	andeq	r0, r0, r0
    3394:	04000000 	streq	r0, [r0], #-0
    3398:	01000000 	mrseq	r0, (UNDEF: 0)
    339c:	00045000 	andeq	r5, r4, r0
    33a0:	00080000 	andeq	r0, r8, r0
    33a4:	00010000 	andeq	r0, r1, r0
    33a8:	00000852 	andeq	r0, r0, r2, asr r8
    33ac:	00000c00 	andeq	r0, r0, r0, lsl #24
    33b0:	72000300 	andvc	r0, r0, #0, 6
    33b4:	000c9f01 	andeq	r9, ip, r1, lsl #30
    33b8:	00180000 	andseq	r0, r8, r0
    33bc:	00010000 	andeq	r0, r1, r0
    33c0:	00001852 	andeq	r1, r0, r2, asr r8
    33c4:	00001c00 	andeq	r1, r0, r0, lsl #24
    33c8:	53000100 	movwpl	r0, #256	; 0x100
    33cc:	0000001c 	andeq	r0, r0, ip, lsl r0
    33d0:	00000024 	andeq	r0, r0, r4, lsr #32
    33d4:	01730003 	cmneq	r3, r3
    33d8:	0000249f 	muleq	r0, pc, r4	; <UNPREDICTABLE>
    33dc:	00002c00 	andeq	r2, r0, r0, lsl #24
    33e0:	53000100 	movwpl	r0, #256	; 0x100
	...
    33ec:	00020203 	andeq	r0, r2, r3, lsl #4
    33f0:	00000000 	andeq	r0, r0, r0
    33f4:	00180000 	andseq	r0, r8, r0
    33f8:	00010000 	andeq	r0, r1, r0
    33fc:	00001851 	andeq	r1, r0, r1, asr r8
    3400:	00001c00 	andeq	r1, r0, r0, lsl #24
    3404:	71000300 	mrsvc	r0, LR_irq
    3408:	001c9f01 	andseq	r9, ip, r1, lsl #30
    340c:	002c0000 	eoreq	r0, ip, r0
    3410:	00010000 	andeq	r0, r1, r0
    3414:	00000051 	andeq	r0, r0, r1, asr r0
	...
    3420:	08000000 	stmdaeq	r0, {}	; <UNPREDICTABLE>
    3424:	0c000000 	stceq	0, cr0, [r0], {-0}
    3428:	02000000 	andeq	r0, r0, #0, 0
    342c:	0c007200 	sfmeq	f7, 4, [r0], {-0}
    3430:	18000000 	stmdane	r0, {}	; <UNPREDICTABLE>
    3434:	02000000 	andeq	r0, r0, #0, 0
    3438:	1c007300 	stcne	3, cr7, [r0], {-0}
    343c:	2c000000 	stccs	0, cr0, [r0], {-0}
    3440:	01000000 	mrseq	r0, (UNDEF: 0)
    3444:	00005200 	andeq	r5, r0, r0, lsl #4
	...
    345c:	00140000 	andseq	r0, r4, r0
    3460:	00010000 	andeq	r0, r1, r0
    3464:	00001450 	andeq	r1, r0, r0, asr r4
    3468:	00001800 	andeq	r1, r0, r0, lsl #16
    346c:	70000300 	andvc	r0, r0, r0, lsl #6
    3470:	00189f01 	andseq	r9, r8, r1, lsl #30
    3474:	00200000 	eoreq	r0, r0, r0
    3478:	00010000 	andeq	r0, r1, r0
    347c:	00002450 	andeq	r2, r0, r0, asr r4
    3480:	00002800 	andeq	r2, r0, r0, lsl #16
    3484:	50000100 	andpl	r0, r0, r0, lsl #2
    3488:	00000028 	andeq	r0, r0, r8, lsr #32
    348c:	00000030 	andeq	r0, r0, r0, lsr r0
    3490:	01700003 	cmneq	r0, r3
    3494:	0000389f 	muleq	r0, pc, r8	; <UNPREDICTABLE>
    3498:	00004000 	andeq	r4, r0, r0
    349c:	50000100 	andpl	r0, r0, r0, lsl #2
	...
    34b0:	00240000 	eoreq	r0, r4, r0
    34b4:	00010000 	andeq	r0, r1, r0
    34b8:	00002451 	andeq	r2, r0, r1, asr r4
    34bc:	00002800 	andeq	r2, r0, r0, lsl #16
    34c0:	5c000100 	stfpls	f0, [r0], {-0}
    34c4:	00000028 	andeq	r0, r0, r8, lsr #32
    34c8:	00000044 	andeq	r0, r0, r4, asr #32
    34cc:	00510001 	subseq	r0, r1, r1
	...
    34d8:	00000202 	andeq	r0, r0, r2, lsl #4
    34dc:	00000000 	andeq	r0, r0, r0
    34e0:	00000400 	andeq	r0, r0, r0, lsl #8
    34e4:	51000100 	mrspl	r0, (UNDEF: 16)
    34e8:	00000004 	andeq	r0, r0, r4
    34ec:	00000008 	andeq	r0, r0, r8
    34f0:	01710003 	cmneq	r1, r3
    34f4:	0000089f 	muleq	r0, pc, r8	; <UNPREDICTABLE>
    34f8:	00001800 	andeq	r1, r0, r0, lsl #16
    34fc:	51000100 	mrspl	r0, (UNDEF: 16)
	...
    3508:	00000002 	andeq	r0, r0, r2
    350c:	00040000 	andeq	r0, r4, r0
    3510:	00010000 	andeq	r0, r1, r0
    3514:	00000050 	andeq	r0, r0, r0, asr r0
	...
    3524:	00000800 	andeq	r0, r0, r0, lsl #16
    3528:	50000100 	andpl	r0, r0, r0, lsl #2
    352c:	00000008 	andeq	r0, r0, r8
    3530:	00000030 	andeq	r0, r0, r0, lsr r0
    3534:	01f30004 	mvnseq	r0, r4
    3538:	00009f50 	andeq	r9, r0, r0, asr pc
	...
    3548:	00080000 	andeq	r0, r8, r0
    354c:	00010000 	andeq	r0, r1, r0
    3550:	00000851 	andeq	r0, r0, r1, asr r8
    3554:	00003000 	andeq	r3, r0, r0
    3558:	f3000400 	vshl.u8	d0, d0, d0
    355c:	009f5101 	addseq	r5, pc, r1, lsl #2
	...
    356c:	02020100 	andeq	r0, r2, #0
    3570:	00000000 	andeq	r0, r0, r0
    3574:	00000400 	andeq	r0, r0, r0, lsl #8
    3578:	52000100 	andpl	r0, r0, #0
    357c:	00000004 	andeq	r0, r0, r4
    3580:	00000008 	andeq	r0, r0, r8
    3584:	01f30004 	mvnseq	r0, r4
    3588:	00089f52 	andeq	r9, r8, r2, asr pc
    358c:	00180000 	andseq	r0, r8, r0
    3590:	00060000 	andeq	r0, r6, r0
    3594:	315201f3 	ldrshcc	r0, [r2, #-19]	; 0xffffffed
    3598:	00189f1c 	andseq	r9, r8, ip, lsl pc
    359c:	00180000 	andseq	r0, r8, r0
    35a0:	00040000 	andeq	r0, r4, r0
    35a4:	9f5201f3 	svcls	0x005201f3
    35a8:	00000018 	andeq	r0, r0, r8, lsl r0
    35ac:	00000030 	andeq	r0, r0, r0, lsr r0
    35b0:	01f30006 	mvnseq	r0, r6
    35b4:	9f1c3152 	svcls	0x001c3152
	...
    35c0:	00000002 	andeq	r0, r0, r2
    35c4:	00000001 	andeq	r0, r0, r1
    35c8:	00000000 	andeq	r0, r0, r0
    35cc:	0000000c 	andeq	r0, r0, ip
    35d0:	0c500001 	mrrceq	0, 0, r0, r0, cr1	; <UNPREDICTABLE>
    35d4:	18000000 	stmdane	r0, {}	; <UNPREDICTABLE>
    35d8:	03000000 	movweq	r0, #0
    35dc:	9f7f7000 	svcls	0x007f7000
    35e0:	00000018 	andeq	r0, r0, r8, lsl r0
    35e4:	00000024 	andeq	r0, r0, r4, lsr #32
    35e8:	28500001 	ldmdacs	r0, {r0}^
    35ec:	2c000000 	stccs	0, cr0, [r0], {-0}
    35f0:	03000000 	movweq	r0, #0
    35f4:	9f7f7000 	svcls	0x007f7000
	...
    3600:	00000002 	andeq	r0, r0, r2
    3604:	00000000 	andeq	r0, r0, r0
    3608:	000c0000 	andeq	r0, ip, r0
    360c:	00010000 	andeq	r0, r1, r0
    3610:	00000c51 	andeq	r0, r0, r1, asr ip
    3614:	00001000 	andeq	r1, r0, r0
    3618:	71000300 	mrsvc	r0, LR_irq
    361c:	00109f01 	andseq	r9, r0, r1, lsl #30
    3620:	00300000 	eorseq	r0, r0, r0
    3624:	00010000 	andeq	r0, r1, r0
    3628:	00000051 	andeq	r0, r0, r1, asr r0
    362c:	00000000 	andeq	r0, r0, r0
	...

Disassembly of section .debug_aranges:

00000000 <.debug_aranges>:
   0:	0000001c 	andeq	r0, r0, ip, lsl r0
   4:	00000002 	andeq	r0, r0, r2
   8:	00040000 	andeq	r0, r4, r0
   c:	00000000 	andeq	r0, r0, r0
  10:	00008038 	andeq	r8, r0, r8, lsr r0
  14:	00000124 	andeq	r0, r0, r4, lsr #2
	...
  20:	0000001c 	andeq	r0, r0, ip, lsl r0
  24:	04db0002 	ldrbeq	r0, [fp], #2
  28:	00040000 	andeq	r0, r4, r0
  2c:	00000000 	andeq	r0, r0, r0
  30:	0000815c 	andeq	r8, r0, ip, asr r1
  34:	000003bc 			; <UNDEFINED> instruction: 0x000003bc
	...
  40:	0000001c 	andeq	r0, r0, ip, lsl r0
  44:	0d9c0002 	ldceq	0, cr0, [ip, #8]
  48:	00040000 	andeq	r0, r4, r0
  4c:	00000000 	andeq	r0, r0, r0
  50:	00008518 	andeq	r8, r0, r8, lsl r5
  54:	00000188 	andeq	r0, r0, r8, lsl #3
	...
  60:	0000001c 	andeq	r0, r0, ip, lsl r0
  64:	109b0002 	addsne	r0, fp, r2
  68:	00040000 	andeq	r0, r4, r0
  6c:	00000000 	andeq	r0, r0, r0
  70:	000086a0 	andeq	r8, r0, r0, lsr #13
  74:	00000584 	andeq	r0, r0, r4, lsl #11
	...
  80:	0000001c 	andeq	r0, r0, ip, lsl r0
  84:	1e0f0002 	cdpne	0, 0, cr0, cr15, cr2, {0}
  88:	00040000 	andeq	r0, r4, r0
  8c:	00000000 	andeq	r0, r0, r0
  90:	00008c2c 	andeq	r8, r0, ip, lsr #24
  94:	00000078 	andeq	r0, r0, r8, ror r0
	...
  a0:	0000001c 	andeq	r0, r0, ip, lsl r0
  a4:	1f530002 	svcne	0x00530002
  a8:	00040000 	andeq	r0, r4, r0
  ac:	00000000 	andeq	r0, r0, r0
  b0:	00008ca4 	andeq	r8, r0, r4, lsr #25
  b4:	00000058 	andeq	r0, r0, r8, asr r0
	...
  c0:	0000001c 	andeq	r0, r0, ip, lsl r0
  c4:	20f40002 	rscscs	r0, r4, r2
  c8:	00040000 	andeq	r0, r4, r0
  cc:	00000000 	andeq	r0, r0, r0
  d0:	00008cfc 	strdeq	r8, [r0], -ip
  d4:	00000038 	andeq	r0, r0, r8, lsr r0
	...
  e0:	0000001c 	andeq	r0, r0, ip, lsl r0
  e4:	21eb0002 	mvncs	r0, r2
  e8:	00040000 	andeq	r0, r4, r0
  ec:	00000000 	andeq	r0, r0, r0
  f0:	00008d34 	andeq	r8, r0, r4, lsr sp
  f4:	000009b4 			; <UNDEFINED> instruction: 0x000009b4
	...
 100:	0000001c 	andeq	r0, r0, ip, lsl r0
 104:	2e6e0002 	cdpcs	0, 6, cr0, cr14, cr2, {0}
 108:	00040000 	andeq	r0, r4, r0
 10c:	00000000 	andeq	r0, r0, r0
 110:	000096e8 	andeq	r9, r0, r8, ror #13
 114:	0000002c 	andeq	r0, r0, ip, lsr #32
	...
 120:	0000001c 	andeq	r0, r0, ip, lsl r0
 124:	2fa10002 	svccs	0x00a10002
 128:	00040000 	andeq	r0, r4, r0
 12c:	00000000 	andeq	r0, r0, r0
 130:	00009714 	andeq	r9, r0, r4, lsl r7
 134:	000000f8 	strdeq	r0, [r0], -r8
	...
 140:	0000001c 	andeq	r0, r0, ip, lsl r0
 144:	31350002 	teqcc	r5, r2
 148:	00040000 	andeq	r0, r4, r0
 14c:	00000000 	andeq	r0, r0, r0
 150:	0000980c 	andeq	r9, r0, ip, lsl #16
 154:	00000004 	andeq	r0, r0, r4
	...
 160:	0000001c 	andeq	r0, r0, ip, lsl r0
 164:	32070002 	andcc	r0, r7, #2, 0
 168:	00040000 	andeq	r0, r4, r0
 16c:	00000000 	andeq	r0, r0, r0
 170:	00009810 	andeq	r9, r0, r0, lsl r8
 174:	0000008c 	andeq	r0, r0, ip, lsl #1
	...
 180:	0000001c 	andeq	r0, r0, ip, lsl r0
 184:	34880002 	strcc	r0, [r8], #2
 188:	00040000 	andeq	r0, r4, r0
 18c:	00000000 	andeq	r0, r0, r0
 190:	0000989c 	muleq	r0, ip, r8
 194:	0000011c 	andeq	r0, r0, ip, lsl r1
	...
 1a0:	0000001c 	andeq	r0, r0, ip, lsl r0
 1a4:	39cb0002 	stmibcc	fp, {r1}^
 1a8:	00040000 	andeq	r0, r4, r0
 1ac:	00000000 	andeq	r0, r0, r0
 1b0:	000099b8 			; <UNDEFINED> instruction: 0x000099b8
 1b4:	000001f0 	strdeq	r0, [r0], -r0	; <UNPREDICTABLE>
	...
 1c0:	0000001c 	andeq	r0, r0, ip, lsl r0
 1c4:	3f9c0002 	svccc	0x009c0002
 1c8:	00040000 	andeq	r0, r4, r0
 1cc:	00000000 	andeq	r0, r0, r0
 1d0:	00009ba8 	andeq	r9, r0, r8, lsr #23
 1d4:	000003b0 			; <UNDEFINED> instruction: 0x000003b0
	...
 1e0:	0000001c 	andeq	r0, r0, ip, lsl r0
 1e4:	48890002 	stmmi	r9, {r1}
 1e8:	00040000 	andeq	r0, r4, r0
 1ec:	00000000 	andeq	r0, r0, r0
 1f0:	00009f58 	andeq	r9, r0, r8, asr pc
 1f4:	00000198 	muleq	r0, r8, r1
	...
 200:	0000001c 	andeq	r0, r0, ip, lsl r0
 204:	4f000002 	svcmi	0x00000002
 208:	00040000 	andeq	r0, r4, r0
 20c:	00000000 	andeq	r0, r0, r0
 210:	0000a0f0 	strdeq	sl, [r0], -r0
 214:	0000003c 	andeq	r0, r0, ip, lsr r0
	...
 220:	0000001c 	andeq	r0, r0, ip, lsl r0
 224:	504d0002 	subpl	r0, sp, r2
 228:	00040000 	andeq	r0, r4, r0
 22c:	00000000 	andeq	r0, r0, r0
 230:	0000a12c 	andeq	sl, r0, ip, lsr #2
 234:	0000002c 	andeq	r0, r0, ip, lsr #32
	...
 240:	0000001c 	andeq	r0, r0, ip, lsl r0
 244:	51880002 	orrpl	r0, r8, r2
 248:	00040000 	andeq	r0, r4, r0
 24c:	00000000 	andeq	r0, r0, r0
 250:	0000a158 	andeq	sl, r0, r8, asr r1
 254:	00000044 	andeq	r0, r0, r4, asr #32
	...
 260:	0000001c 	andeq	r0, r0, ip, lsl r0
 264:	52830002 	addpl	r0, r3, #2, 0
 268:	00040000 	andeq	r0, r4, r0
 26c:	00000000 	andeq	r0, r0, r0
 270:	0000a19c 	muleq	r0, ip, r1
 274:	00000018 	andeq	r0, r0, r8, lsl r0
	...
 280:	0000001c 	andeq	r0, r0, ip, lsl r0
 284:	53960002 	orrspl	r0, r6, #2, 0
 288:	00040000 	andeq	r0, r4, r0
 28c:	00000000 	andeq	r0, r0, r0
 290:	0000a1b4 			; <UNDEFINED> instruction: 0x0000a1b4
 294:	00000030 	andeq	r0, r0, r0, lsr r0
	...
 2a0:	0000001c 	andeq	r0, r0, ip, lsl r0
 2a4:	54e80002 	strbtpl	r0, [r8], #2
 2a8:	00040000 	andeq	r0, r4, r0
 2ac:	00000000 	andeq	r0, r0, r0
 2b0:	0000a1e4 	andeq	sl, r0, r4, ror #3
 2b4:	00000004 	andeq	r0, r0, r4
	...

Disassembly of section .debug_ranges:

00000000 <.debug_ranges>:
   0:	00000000 	andeq	r0, r0, r0
   4:	00000004 	andeq	r0, r0, r4
   8:	00000008 	andeq	r0, r0, r8
   c:	00000010 	andeq	r0, r0, r0, lsl r0
  10:	00000014 	andeq	r0, r0, r4, lsl r0
  14:	00000040 	andeq	r0, r0, r0, asr #32
  18:	00000044 	andeq	r0, r0, r4, asr #32
  1c:	00000048 	andeq	r0, r0, r8, asr #32
	...
  2c:	00000004 	andeq	r0, r0, r4
  30:	00000008 	andeq	r0, r0, r8
  34:	00000010 	andeq	r0, r0, r0, lsl r0
  38:	00000014 	andeq	r0, r0, r4, lsl r0
  3c:	0000001c 	andeq	r0, r0, ip, lsl r0
	...
  48:	000001bc 			; <UNDEFINED> instruction: 0x000001bc
  4c:	000001f4 	strdeq	r0, [r0], -r4
  50:	00000218 	andeq	r0, r0, r8, lsl r2
  54:	00000264 	andeq	r0, r0, r4, ror #4
	...
  60:	000000b8 	strheq	r0, [r0], -r8
  64:	000000c4 	andeq	r0, r0, r4, asr #1
  68:	000000e0 	andeq	r0, r0, r0, ror #1
  6c:	00000110 	andeq	r0, r0, r0, lsl r1
	...
  78:	00000044 	andeq	r0, r0, r4, asr #32
  7c:	000000d8 	ldrdeq	r0, [r0], -r8
  80:	000000e0 	andeq	r0, r0, r0, ror #1
  84:	00000114 	andeq	r0, r0, r4, lsl r1
	...
  90:	00000044 	andeq	r0, r0, r4, asr #32
  94:	000000d0 	ldrdeq	r0, [r0], -r0	; <UNPREDICTABLE>
  98:	000000e0 	andeq	r0, r0, r0, ror #1
  9c:	000000e8 	andeq	r0, r0, r8, ror #1
  a0:	000000f4 	strdeq	r0, [r0], -r4
  a4:	00000108 	andeq	r0, r0, r8, lsl #2
	...
  b0:	00000044 	andeq	r0, r0, r4, asr #32
  b4:	0000004c 	andeq	r0, r0, ip, asr #32
  b8:	0000007c 	andeq	r0, r0, ip, ror r0
  bc:	000000d0 	ldrdeq	r0, [r0], -r0	; <UNPREDICTABLE>
  c0:	000000e0 	andeq	r0, r0, r0, ror #1
  c4:	000000e8 	andeq	r0, r0, r8, ror #1
  c8:	000000f4 	strdeq	r0, [r0], -r4
  cc:	00000108 	andeq	r0, r0, r8, lsl #2
	...
  d8:	0000004c 	andeq	r0, r0, ip, asr #32
  dc:	00000058 	andeq	r0, r0, r8, asr r0
  e0:	00000058 	andeq	r0, r0, r8, asr r0
  e4:	00000074 	andeq	r0, r0, r4, ror r0
	...
  f0:	0000004c 	andeq	r0, r0, ip, asr #32
  f4:	00000058 	andeq	r0, r0, r8, asr r0
  f8:	00000058 	andeq	r0, r0, r8, asr r0
  fc:	00000060 	andeq	r0, r0, r0, rrx
 100:	00000060 	andeq	r0, r0, r0, rrx
 104:	00000074 	andeq	r0, r0, r4, ror r0
	...
 110:	00000050 	andeq	r0, r0, r0, asr r0
 114:	00000058 	andeq	r0, r0, r8, asr r0
 118:	00000058 	andeq	r0, r0, r8, asr r0
 11c:	00000060 	andeq	r0, r0, r0, rrx
 120:	00000060 	andeq	r0, r0, r0, rrx
 124:	00000070 	andeq	r0, r0, r0, ror r0
	...
 130:	0000015c 	andeq	r0, r0, ip, asr r1
 134:	0000015c 	andeq	r0, r0, ip, asr r1
 138:	00000164 	andeq	r0, r0, r4, ror #2
 13c:	0000018c 	andeq	r0, r0, ip, lsl #3
	...
 148:	0000021c 	andeq	r0, r0, ip, lsl r2
 14c:	00000228 	andeq	r0, r0, r8, lsr #4
 150:	0000022c 	andeq	r0, r0, ip, lsr #4
 154:	00000230 	andeq	r0, r0, r0, lsr r2
 158:	00000238 	andeq	r0, r0, r8, lsr r2
 15c:	0000028c 	andeq	r0, r0, ip, lsl #5
 160:	000002c8 	andeq	r0, r0, r8, asr #5
 164:	000002e0 	andeq	r0, r0, r0, ror #5
	...
 170:	00000340 	andeq	r0, r0, r0, asr #6
 174:	00000358 	andeq	r0, r0, r8, asr r3
 178:	0000035c 	andeq	r0, r0, ip, asr r3
 17c:	00000360 	andeq	r0, r0, r0, ror #6
	...
 188:	00000464 	andeq	r0, r0, r4, ror #8
 18c:	000004d0 	ldrdeq	r0, [r0], -r0	; <UNPREDICTABLE>
 190:	000004dc 	ldrdeq	r0, [r0], -ip
 194:	00000558 	andeq	r0, r0, r8, asr r5
	...
 1a0:	00000478 	andeq	r0, r0, r8, ror r4
 1a4:	00000484 	andeq	r0, r0, r4, lsl #9
 1a8:	00000490 	muleq	r0, r0, r4
 1ac:	000004bc 			; <UNDEFINED> instruction: 0x000004bc
 1b0:	000004dc 	ldrdeq	r0, [r0], -ip
 1b4:	0000052c 	andeq	r0, r0, ip, lsr #10
	...
 1c0:	00000490 	muleq	r0, r0, r4
 1c4:	00000498 	muleq	r0, r8, r4
 1c8:	000004dc 	ldrdeq	r0, [r0], -ip
 1cc:	000004e0 	andeq	r0, r0, r0, ror #9
 1d0:	000004e4 	andeq	r0, r0, r4, ror #9
 1d4:	000004e8 	andeq	r0, r0, r8, ror #9
 1d8:	000004ec 	andeq	r0, r0, ip, ror #9
 1dc:	000004f4 	strdeq	r0, [r0], -r4
 1e0:	00000524 	andeq	r0, r0, r4, lsr #10
 1e4:	00000524 	andeq	r0, r0, r4, lsr #10
	...
 1f0:	000000a4 	andeq	r0, r0, r4, lsr #1
 1f4:	00000148 	andeq	r0, r0, r8, asr #2
 1f8:	00000158 	andeq	r0, r0, r8, asr r1
 1fc:	0000015c 	andeq	r0, r0, ip, asr r1
 200:	00000274 	andeq	r0, r0, r4, ror r2
 204:	00000278 	andeq	r0, r0, r8, ror r2
 208:	0000027c 	andeq	r0, r0, ip, ror r2
 20c:	00000280 	andeq	r0, r0, r0, lsl #5
 210:	00000288 	andeq	r0, r0, r8, lsl #5
 214:	0000029c 	muleq	r0, ip, r2
 218:	000002c0 	andeq	r0, r0, r0, asr #5
 21c:	000002cc 	andeq	r0, r0, ip, asr #5
 220:	000002f0 	strdeq	r0, [r0], -r0	; <UNPREDICTABLE>
 224:	000002f0 	strdeq	r0, [r0], -r0	; <UNPREDICTABLE>
 228:	000002f4 	strdeq	r0, [r0], -r4
 22c:	000002f8 	strdeq	r0, [r0], -r8
	...
 238:	00000148 	andeq	r0, r0, r8, asr #2
 23c:	00000158 	andeq	r0, r0, r8, asr r1
 240:	0000015c 	andeq	r0, r0, ip, asr r1
 244:	0000018c 	andeq	r0, r0, ip, lsl #3
 248:	0000029c 	muleq	r0, ip, r2
 24c:	000002ac 	andeq	r0, r0, ip, lsr #5
	...
 258:	000003c8 	andeq	r0, r0, r8, asr #7
 25c:	000003d0 	ldrdeq	r0, [r0], -r0	; <UNPREDICTABLE>
 260:	00000404 	andeq	r0, r0, r4, lsl #8
 264:	000004ac 	andeq	r0, r0, ip, lsr #9
 268:	000004c0 	andeq	r0, r0, r0, asr #9
 26c:	00000920 	andeq	r0, r0, r0, lsr #18
 270:	00000928 	andeq	r0, r0, r8, lsr #18
 274:	000009b4 			; <UNDEFINED> instruction: 0x000009b4
	...
 280:	000003c8 	andeq	r0, r0, r8, asr #7
 284:	000003d0 	ldrdeq	r0, [r0], -r0	; <UNPREDICTABLE>
 288:	00000504 	andeq	r0, r0, r4, lsl #10
 28c:	000005d0 	ldrdeq	r0, [r0], -r0	; <UNPREDICTABLE>
 290:	00000800 	andeq	r0, r0, r0, lsl #16
 294:	00000888 	andeq	r0, r0, r8, lsl #17
 298:	00000930 	andeq	r0, r0, r0, lsr r9
 29c:	000009b4 			; <UNDEFINED> instruction: 0x000009b4
	...
 2a8:	00000404 	andeq	r0, r0, r4, lsl #8
 2ac:	00000408 	andeq	r0, r0, r8, lsl #8
 2b0:	00000414 	andeq	r0, r0, r4, lsl r4
 2b4:	00000414 	andeq	r0, r0, r4, lsl r4
 2b8:	00000428 	andeq	r0, r0, r8, lsr #8
 2bc:	0000042c 	andeq	r0, r0, ip, lsr #8
	...
 2c8:	000005fc 	strdeq	r0, [r0], -ip
 2cc:	00000700 	andeq	r0, r0, r0, lsl #14
 2d0:	000007ec 	andeq	r0, r0, ip, ror #15
 2d4:	000007f4 	strdeq	r0, [r0], -r4
 2d8:	00000888 	andeq	r0, r0, r8, lsl #17
 2dc:	00000894 	muleq	r0, r4, r8
 2e0:	000008a8 	andeq	r0, r0, r8, lsr #17
 2e4:	000008bc 			; <UNDEFINED> instruction: 0x000008bc
 2e8:	00000910 	andeq	r0, r0, r0, lsl r9
 2ec:	00000920 	andeq	r0, r0, r0, lsr #18
	...
 2f8:	00000600 	andeq	r0, r0, r0, lsl #12
 2fc:	00000604 	andeq	r0, r0, r4, lsl #12
 300:	00000608 	andeq	r0, r0, r8, lsl #12
 304:	000006b4 			; <UNDEFINED> instruction: 0x000006b4
 308:	000006cc 	andeq	r0, r0, ip, asr #13
 30c:	000006d0 	ldrdeq	r0, [r0], -r0	; <UNPREDICTABLE>
 310:	000008a8 	andeq	r0, r0, r8, lsr #17
 314:	000008b8 			; <UNDEFINED> instruction: 0x000008b8
 318:	00000910 	andeq	r0, r0, r0, lsl r9
 31c:	00000920 	andeq	r0, r0, r0, lsr #18
	...
 328:	000006b4 			; <UNDEFINED> instruction: 0x000006b4
 32c:	000006cc 	andeq	r0, r0, ip, asr #13
 330:	000006d0 	ldrdeq	r0, [r0], -r0	; <UNPREDICTABLE>
 334:	00000700 	andeq	r0, r0, r0, lsl #14
 338:	000007ec 	andeq	r0, r0, ip, ror #15
 33c:	000007f4 	strdeq	r0, [r0], -r4
 340:	00000888 	andeq	r0, r0, r8, lsl #17
 344:	00000894 	muleq	r0, r4, r8
 348:	000008b8 			; <UNDEFINED> instruction: 0x000008b8
 34c:	000008bc 			; <UNDEFINED> instruction: 0x000008bc
	...
 358:	00000700 	andeq	r0, r0, r0, lsl #14
 35c:	00000708 	andeq	r0, r0, r8, lsl #14
 360:	0000070c 	andeq	r0, r0, ip, lsl #14
 364:	000007ec 	andeq	r0, r0, ip, ror #15
 368:	00000894 	muleq	r0, r4, r8
 36c:	000008a8 	andeq	r0, r0, r8, lsr #17
	...
 378:	00000728 	andeq	r0, r0, r8, lsr #14
 37c:	000007a4 	andeq	r0, r0, r4, lsr #15
 380:	000007ac 	andeq	r0, r0, ip, lsr #15
 384:	000007b0 			; <UNDEFINED> instruction: 0x000007b0
 388:	00000894 	muleq	r0, r4, r8
 38c:	00000898 	muleq	r0, r8, r8
 390:	0000089c 	muleq	r0, ip, r8
 394:	000008a0 	andeq	r0, r0, r0, lsr #17
	...
 3a0:	000007a4 	andeq	r0, r0, r4, lsr #15
 3a4:	000007ac 	andeq	r0, r0, ip, lsr #15
 3a8:	000007b0 			; <UNDEFINED> instruction: 0x000007b0
 3ac:	000007ec 	andeq	r0, r0, ip, ror #15
 3b0:	00000898 	muleq	r0, r8, r8
 3b4:	0000089c 	muleq	r0, ip, r8
 3b8:	000008a0 	andeq	r0, r0, r0, lsr #17
 3bc:	000008a8 	andeq	r0, r0, r8, lsr #17
	...
 3c8:	0000983c 	andeq	r9, r0, ip, lsr r8
 3cc:	0000983c 	andeq	r9, r0, ip, lsr r8
 3d0:	00009840 	andeq	r9, r0, r0, asr #16
 3d4:	00009848 	andeq	r9, r0, r8, asr #16
	...
 3e0:	00009810 	andeq	r9, r0, r0, lsl r8
 3e4:	0000989c 	muleq	r0, ip, r8
	...
 3f0:	00000030 	andeq	r0, r0, r0, lsr r0
 3f4:	00000030 	andeq	r0, r0, r0, lsr r0
 3f8:	00000038 	andeq	r0, r0, r8, lsr r0
 3fc:	0000004c 	andeq	r0, r0, ip, asr #32
	...
 408:	0000004c 	andeq	r0, r0, ip, asr #32
 40c:	00000050 	andeq	r0, r0, r0, asr r0
 410:	00000050 	andeq	r0, r0, r0, asr r0
 414:	00000078 	andeq	r0, r0, r8, ror r0
	...
 420:	0000004c 	andeq	r0, r0, ip, asr #32
 424:	00000050 	andeq	r0, r0, r0, asr r0
 428:	00000050 	andeq	r0, r0, r0, asr r0
 42c:	00000060 	andeq	r0, r0, r0, rrx
 430:	00000064 	andeq	r0, r0, r4, rrx
 434:	00000068 	andeq	r0, r0, r8, rrx
	...
 440:	0000004c 	andeq	r0, r0, ip, asr #32
 444:	00000050 	andeq	r0, r0, r0, asr r0
 448:	00000054 	andeq	r0, r0, r4, asr r0
 44c:	00000060 	andeq	r0, r0, r0, rrx
	...
 458:	0000009c 	muleq	r0, ip, r0
 45c:	000000a0 	andeq	r0, r0, r0, lsr #1
 460:	000000a0 	andeq	r0, r0, r0, lsr #1
 464:	000000c8 	andeq	r0, r0, r8, asr #1
	...
 470:	0000009c 	muleq	r0, ip, r0
 474:	000000a0 	andeq	r0, r0, r0, lsr #1
 478:	000000a0 	andeq	r0, r0, r0, lsr #1
 47c:	000000b0 	strheq	r0, [r0], -r0	; <UNPREDICTABLE>
 480:	000000b4 	strheq	r0, [r0], -r4
 484:	000000b8 	strheq	r0, [r0], -r8
	...
 490:	0000009c 	muleq	r0, ip, r0
 494:	000000a0 	andeq	r0, r0, r0, lsr #1
 498:	000000a4 	andeq	r0, r0, r4, lsr #1
 49c:	000000b0 	strheq	r0, [r0], -r0	; <UNPREDICTABLE>
	...
 4a8:	000000c8 	andeq	r0, r0, r8, asr #1
 4ac:	000000c8 	andeq	r0, r0, r8, asr #1
 4b0:	000000cc 	andeq	r0, r0, ip, asr #1
 4b4:	0000011c 	andeq	r0, r0, ip, lsl r1
	...
 4c0:	000000f0 	strdeq	r0, [r0], -r0	; <UNPREDICTABLE>
 4c4:	000000f4 	strdeq	r0, [r0], -r4
 4c8:	000000f4 	strdeq	r0, [r0], -r4
 4cc:	0000011c 	andeq	r0, r0, ip, lsl r1
	...
 4d8:	000000f0 	strdeq	r0, [r0], -r0	; <UNPREDICTABLE>
 4dc:	000000f4 	strdeq	r0, [r0], -r4
 4e0:	000000f4 	strdeq	r0, [r0], -r4
 4e4:	00000104 	andeq	r0, r0, r4, lsl #2
 4e8:	00000108 	andeq	r0, r0, r8, lsl #2
 4ec:	0000010c 	andeq	r0, r0, ip, lsl #2
	...
 4f8:	000000f0 	strdeq	r0, [r0], -r0	; <UNPREDICTABLE>
 4fc:	000000f4 	strdeq	r0, [r0], -r4
 500:	000000f8 	strdeq	r0, [r0], -r8
 504:	00000104 	andeq	r0, r0, r4, lsl #2
	...
 510:	00000134 	andeq	r0, r0, r4, lsr r1
 514:	00000134 	andeq	r0, r0, r4, lsr r1
 518:	00000134 	andeq	r0, r0, r4, lsr r1
 51c:	0000013c 	andeq	r0, r0, ip, lsr r1
	...
 528:	0000024c 	andeq	r0, r0, ip, asr #4
 52c:	00000264 	andeq	r0, r0, r4, ror #4
 530:	000002c8 	andeq	r0, r0, r8, asr #5
 534:	000002e8 	andeq	r0, r0, r8, ror #5
	...
 540:	00000008 	andeq	r0, r0, r8
 544:	0000000c 	andeq	r0, r0, ip
 548:	00000014 	andeq	r0, r0, r4, lsl r0
 54c:	00000054 	andeq	r0, r0, r4, asr r0
 550:	00000058 	andeq	r0, r0, r8, asr r0
 554:	00000060 	andeq	r0, r0, r0, rrx
	...
 560:	00000060 	andeq	r0, r0, r0, rrx
 564:	00000068 	andeq	r0, r0, r8, rrx
 568:	0000006c 	andeq	r0, r0, ip, rrx
 56c:	000000ac 	andeq	r0, r0, ip, lsr #1
 570:	000000b0 	strheq	r0, [r0], -r0	; <UNPREDICTABLE>
 574:	000000b8 	strheq	r0, [r0], -r8
	...
 580:	00000068 	andeq	r0, r0, r8, rrx
 584:	00000068 	andeq	r0, r0, r8, rrx
 588:	0000006c 	andeq	r0, r0, ip, rrx
 58c:	000000ac 	andeq	r0, r0, ip, lsr #1
 590:	000000b0 	strheq	r0, [r0], -r0	; <UNPREDICTABLE>
 594:	000000b8 	strheq	r0, [r0], -r8
	...
 5a0:	000000e8 	andeq	r0, r0, r8, ror #1
 5a4:	000000f0 	strdeq	r0, [r0], -r0	; <UNPREDICTABLE>
 5a8:	000000f4 	strdeq	r0, [r0], -r4
 5ac:	00000134 	andeq	r0, r0, r4, lsr r1
 5b0:	00000138 	andeq	r0, r0, r8, lsr r1
 5b4:	00000140 	andeq	r0, r0, r0, asr #2
	...
 5c0:	000000f0 	strdeq	r0, [r0], -r0	; <UNPREDICTABLE>
 5c4:	000000f0 	strdeq	r0, [r0], -r0	; <UNPREDICTABLE>
 5c8:	000000f4 	strdeq	r0, [r0], -r4
 5cc:	00000134 	andeq	r0, r0, r4, lsr r1
 5d0:	00000138 	andeq	r0, r0, r8, lsr r1
 5d4:	00000140 	andeq	r0, r0, r0, asr #2
	...
 5e0:	00000144 	andeq	r0, r0, r4, asr #2
 5e4:	00000148 	andeq	r0, r0, r8, asr #2
 5e8:	00000150 	andeq	r0, r0, r0, asr r1
 5ec:	0000015c 	andeq	r0, r0, ip, asr r1
	...

Disassembly of section .debug_line:

00000000 <.debug_line>:
       0:	000001eb 	andeq	r0, r0, fp, ror #3
       4:	00e90003 	rsceq	r0, r9, r3
       8:	01020000 	mrseq	r0, (UNDEF: 2)
       c:	000d0efb 	strdeq	r0, [sp], -fp
      10:	01010101 	tsteq	r1, r1, lsl #2
      14:	01000000 	mrseq	r0, (UNDEF: 0)
      18:	74010000 	strvc	r0, [r1], #-0
      1c:	73747365 	cmnvc	r4, #-1811939327	; 0x94000001
      20:	302e322d 	eorcc	r3, lr, sp, lsr #4
      24:	2f002e00 	svccs	0x00002e00
      28:	72657355 	rsbvc	r7, r5, #1409286145	; 0x54000001
      2c:	696d2f73 	stmdbvs	sp!, {r0, r1, r4, r5, r6, r8, r9, sl, fp, sp}^
      30:	2f73656c 	svccs	0x0073656c
      34:	72756f53 	rsbsvc	r6, r5, #332	; 0x14c
      38:	632f6563 			; <UNDEFINED> instruction: 0x632f6563
      3c:	30343273 	eorscc	r3, r4, r3, ror r2
      40:	6c2f786c 	stcvs	8, cr7, [pc], #-432	; fffffe98 <__bss_end__+0xffff4ec8>
      44:	69706269 	ldmdbvs	r0!, {r0, r3, r5, r6, r9, sp, lr}^
      48:	636e692f 	cmnvs	lr, #770048	; 0xbc000
      4c:	6564756c 	strbvs	r7, [r4, #-1388]!	; 0xfffffa94
      50:	706f2f00 	rsbvc	r2, pc, r0, lsl #30
      54:	6f682f74 	svcvs	0x00682f74
      58:	7262656d 	rsbvc	r6, r2, #457179136	; 0x1b400000
      5c:	432f7765 			; <UNDEFINED> instruction: 0x432f7765
      60:	616c6c65 	cmnvs	ip, r5, ror #24
      64:	72612f72 	rsbvc	r2, r1, #456	; 0x1c8
      68:	6f6e2d6d 	svcvs	0x006e2d6d
      6c:	652d656e 	strvs	r6, [sp, #-1390]!	; 0xfffffa92
      70:	2d696261 	sfmcs	f6, 2, [r9, #-388]!	; 0xfffffe7c
      74:	2d392f39 	ldccs	15, cr2, [r9, #-228]!	; 0xffffff1c
      78:	39313032 	ldmdbcc	r1!, {r1, r4, r5, ip, sp}
      7c:	632d3471 			; <UNDEFINED> instruction: 0x632d3471
      80:	37303173 			; <UNDEFINED> instruction: 0x37303173
      84:	696c2f65 	stmdbvs	ip!, {r0, r2, r5, r6, r8, r9, sl, fp, sp}^
      88:	63672f62 	cmnvs	r7, #392	; 0x188
      8c:	72612f63 	rsbvc	r2, r1, #396	; 0x18c
      90:	6f6e2d6d 	svcvs	0x006e2d6d
      94:	652d656e 	strvs	r6, [sp, #-1390]!	; 0xfffffa92
      98:	2f696261 	svccs	0x00696261
      9c:	2e322e39 	mrccs	14, 1, r2, cr2, cr9, {1}
      a0:	6e692f31 	mcrvs	15, 3, r2, cr9, cr1, {1}
      a4:	64756c63 	ldrbtvs	r6, [r5], #-3171	; 0xfffff39d
      a8:	70000065 	andvc	r0, r0, r5, rrx
      ac:	32747261 	rsbscc	r7, r4, #268435462	; 0x10000006
      b0:	7365742d 	cmnvc	r5, #754974720	; 0x2d000000
      b4:	672d3574 			; <UNDEFINED> instruction: 0x672d3574
      b8:	00632e63 	rsbeq	r2, r3, r3, ror #28
      bc:	73000001 	movwvc	r0, #1
      c0:	6c2d6372 	stcvs	3, cr6, [sp], #-456	; 0xfffffe38
      c4:	682e636f 	stmdavs	lr!, {r0, r1, r2, r3, r5, r6, r8, r9, sp, lr}
      c8:	00000200 	andeq	r0, r0, r0, lsl #4
      cc:	2e697072 	mcrcs	0, 3, r7, cr9, cr2, {3}
      d0:	00030068 	andeq	r0, r3, r8, rrx
      d4:	64747300 	ldrbtvs	r7, [r4], #-768	; 0xfffffd00
      d8:	2d746e69 	ldclcs	14, cr6, [r4, #-420]!	; 0xfffffe5c
      dc:	2e636367 	cdpcs	3, 6, cr6, cr3, cr7, {3}
      e0:	00040068 	andeq	r0, r4, r8, rrx
      e4:	616b6300 	cmnvs	fp, r0, lsl #6
      e8:	636f6c6c 	cmnvs	pc, #108, 24	; 0x6c00
      ec:	0200682e 	andeq	r6, r0, #3014656	; 0x2e0000
      f0:	05000000 	streq	r0, [r0, #-0]
      f4:	02050012 	andeq	r0, r5, #18, 0
      f8:	00008038 	andeq	r8, r0, r8, lsr r0
      fc:	05010b03 	streq	r0, [r1, #-2819]	; 0xfffff4fd
     100:	05181305 	ldreq	r1, [r8, #-773]	; 0xfffffcfb
     104:	14050109 	strne	r0, [r5], #-265	; 0xfffffef7
     108:	13090501 	movwne	r0, #38145	; 0x9501
     10c:	0b050204 	bleq	140924 <__bss_end__+0x135954>
     110:	05017803 	streq	r7, [r1, #-2051]	; 0xfffff7fd
     114:	0c051305 	stceq	3, cr1, [r5], {5}
     118:	01040106 	tsteq	r4, r6, lsl #2
     11c:	042d1205 	strteq	r1, [sp], #-517	; 0xfffffdfb
     120:	2f0c0502 	svccs	0x000c0502
     124:	12050104 	andne	r0, r5, #1
     128:	05020449 	streq	r0, [r2, #-1097]	; 0xfffffbb7
     12c:	044a2f0c 	strbeq	r2, [sl], #-3852	; 0xfffff0f4
     130:	191a0501 	ldmdbne	sl, {r0, r8, sl}
     134:	05830905 	streq	r0, [r3, #2309]	; 0x905
     138:	0905491a 	stmdbeq	r5, {r1, r3, r4, r8, fp, lr}
     13c:	052f2f06 	streq	r2, [pc, #-3846]!	; fffff23e <__bss_end__+0xffff426e>
     140:	0501060e 	streq	r0, [r1, #-1550]	; 0xfffff9f2
     144:	2e0d0305 	cdpcs	3, 0, cr0, cr13, cr5, {0}
     148:	73030e05 	movwvc	r0, #15877	; 0x3e05
     14c:	0609052e 	streq	r0, [r9], -lr, lsr #10
     150:	0501062f 	streq	r0, [r1, #-1583]	; 0xfffff9d1
     154:	050e0614 	streq	r0, [lr, #-1556]	; 0xfffff9ec
     158:	01100305 	tsteq	r0, r5, lsl #6
     15c:	30132e01 	andscc	r2, r3, r1, lsl #28
     160:	13060105 	movwne	r0, #24837	; 0x6105
     164:	06140566 	ldreq	r0, [r4], -r6, ror #10
     168:	a0020500 	andge	r0, r2, r0, lsl #10
     16c:	16000080 	strne	r0, [r0], -r0, lsl #1
     170:	05130505 	ldreq	r0, [r3, #-1285]	; 0xfffffafb
     174:	05110614 	ldreq	r0, [r1, #-1556]	; 0xfffff9ec
     178:	14052f05 	strne	r2, [r5], #-3845	; 0xfffff0fb
     17c:	2f05052d 	svccs	0x0005052d
     180:	0a053306 	beq	14cda0 <__bss_end__+0x141dd0>
     184:	05011b03 	streq	r1, [r1, #-2819]	; 0xfffff4fd
     188:	0f051305 	svceq	0x00051305
     18c:	05050106 	streq	r0, [r5, #-262]	; 0xfffffefa
     190:	2e064b06 	vmlacs.f64	d4, d6, d6
     194:	01062f06 	tsteq	r6, r6, lsl #30
     198:	01650306 	cmneq	r5, r6, lsl #6
     19c:	03134a01 	tsteq	r3, #4096	; 0x1000
     1a0:	82012e09 	andhi	r2, r1, #144	; 0x90
     1a4:	12054b15 	andne	r4, r5, #21504	; 0x5400
     1a8:	05050106 	streq	r0, [r5, #-262]	; 0xfffffefa
     1ac:	07052f06 	streq	r2, [r5, -r6, lsl #30]
     1b0:	052e0106 	streq	r0, [lr, #-262]!	; 0xfffffefa
     1b4:	052f0609 	streq	r0, [pc, #-1545]!	; fffffbb3 <__bss_end__+0xffff4be3>
     1b8:	06011405 	streq	r1, [r1], -r5, lsl #8
     1bc:	132e062e 			; <UNDEFINED> instruction: 0x132e062e
     1c0:	13060105 	movwne	r0, #24837	; 0x6105
     1c4:	05490505 	strbeq	r0, [r9, #-1285]	; 0xfffffafb
     1c8:	012b0609 			; <UNDEFINED> instruction: 0x012b0609
     1cc:	2e069e06 	cdpcs	14, 0, cr9, cr6, cr6, {0}
     1d0:	28081405 	stmdacs	r8, {r0, r2, sl, ip}
     1d4:	05130505 	ldreq	r0, [r3, #-1285]	; 0xfffffafb
     1d8:	05110614 	ldreq	r0, [r1, #-1556]	; 0xfffff9ec
     1dc:	05052f0f 	streq	r2, [r5, #-3855]	; 0xfffff0f1
     1e0:	2e064b06 	vmlacs.f64	d4, d6, d6
     1e4:	01052f06 	tsteq	r5, r6, lsl #30
     1e8:	04021306 	streq	r1, [r2], #-774	; 0xfffffcfa
     1ec:	e1010100 	mrs	r0, (UNDEF: 17)
     1f0:	03000003 	movweq	r0, #3
     1f4:	0000e500 	andeq	lr, r0, r0, lsl #10
     1f8:	fb010200 	blx	40a02 <__bss_end__+0x35a32>
     1fc:	01000d0e 	tsteq	r0, lr, lsl #26
     200:	00010101 	andeq	r0, r1, r1, lsl #2
     204:	00010000 	andeq	r0, r1, r0
     208:	6f2f0100 	svcvs	0x002f0100
     20c:	682f7470 	stmdavs	pc!, {r4, r5, r6, sl, ip, sp, lr}	; <UNPREDICTABLE>
     210:	62656d6f 	rsbvs	r6, r5, #7104	; 0x1bc0
     214:	2f776572 	svccs	0x00776572
     218:	6c6c6543 	cfstr64vs	mvdx6, [ip], #-268	; 0xfffffef4
     21c:	612f7261 			; <UNDEFINED> instruction: 0x612f7261
     220:	6e2d6d72 	mcrvs	13, 1, r6, cr13, cr2, {3}
     224:	2d656e6f 	stclcs	14, cr6, [r5, #-444]!	; 0xfffffe44
     228:	69626165 	stmdbvs	r2!, {r0, r2, r5, r6, r8, sp, lr}^
     22c:	392f392d 	stmdbcc	pc!, {r0, r2, r3, r5, r8, fp, ip, sp}	; <UNPREDICTABLE>
     230:	3130322d 	teqcc	r0, sp, lsr #4
     234:	2d347139 	ldfcss	f7, [r4, #-228]!	; 0xffffff1c
     238:	30317363 	eorscc	r7, r1, r3, ror #6
     23c:	6c2f6537 	cfstr32vs	mvfx6, [pc], #-220	; 168 <__code_start__-0x7e98>
     240:	672f6269 	strvs	r6, [pc, -r9, ror #4]!
     244:	612f6363 			; <UNDEFINED> instruction: 0x612f6363
     248:	6e2d6d72 	mcrvs	13, 1, r6, cr13, cr2, {3}
     24c:	2d656e6f 	stclcs	14, cr6, [r5, #-444]!	; 0xfffffe44
     250:	69626165 	stmdbvs	r2!, {r0, r2, r5, r6, r8, sp, lr}^
     254:	322e392f 	eorcc	r3, lr, #770048	; 0xbc000
     258:	692f312e 	stmdbvs	pc!, {r1, r2, r3, r5, r8, ip, sp}	; <UNPREDICTABLE>
     25c:	756c636e 	strbvc	r6, [ip, #-878]!	; 0xfffffc92
     260:	2f006564 	svccs	0x00006564
     264:	72657355 	rsbvc	r7, r5, #1409286145	; 0x54000001
     268:	696d2f73 	stmdbvs	sp!, {r0, r1, r4, r5, r6, r8, r9, sl, fp, sp}^
     26c:	2f73656c 	svccs	0x0073656c
     270:	72756f53 	rsbsvc	r6, r5, #332	; 0x14c
     274:	632f6563 			; <UNDEFINED> instruction: 0x632f6563
     278:	30343273 	eorscc	r3, r4, r3, ror r2
     27c:	6c2f786c 	stcvs	8, cr7, [pc], #-432	; d4 <__code_start__-0x7f2c>
     280:	69706269 	ldmdbvs	r0!, {r0, r3, r5, r6, r9, sp, lr}^
     284:	636e692f 	cmnvs	lr, #770048	; 0xbc000
     288:	6564756c 	strbvs	r7, [r4, #-1388]!	; 0xfffffa94
     28c:	6b630000 	blvs	18c0294 <__bss_end__+0x18b52c4>
     290:	6f6c6c61 	svcvs	0x006c6c61
     294:	00632e63 	rsbeq	r2, r3, r3, ror #28
     298:	63000000 	movwvs	r0, #0
     29c:	6c6c616b 	stfvse	f6, [ip], #-428	; 0xfffffe54
     2a0:	682e636f 	stmdavs	lr!, {r0, r1, r2, r3, r5, r6, r8, r9, sp, lr}
     2a4:	00000000 	andeq	r0, r0, r0
     2a8:	69647473 	stmdbvs	r4!, {r0, r1, r4, r5, r6, sl, ip, sp, lr}^
     2ac:	672d746e 	strvs	r7, [sp, -lr, ror #8]!
     2b0:	682e6363 	stmdavs	lr!, {r0, r1, r5, r6, r8, r9, sp, lr}
     2b4:	00000100 	andeq	r0, r0, r0, lsl #2
     2b8:	2e697072 	mcrcs	0, 3, r7, cr9, cr2, {3}
     2bc:	00020068 	andeq	r0, r2, r8, rrx
     2c0:	63727300 	cmnvs	r2, #0, 6
     2c4:	636f6c2d 	cmnvs	pc, #11520	; 0x2d00
     2c8:	0000682e 	andeq	r6, r0, lr, lsr #16
     2cc:	726b0000 	rsbvc	r0, fp, #0, 0
     2d0:	6c616d2d 	stclvs	13, cr6, [r1], #-180	; 0xffffff4c
     2d4:	2e636f6c 	cdpcs	15, 6, cr6, cr3, cr12, {3}
     2d8:	00000068 	andeq	r0, r0, r8, rrx
     2dc:	01050000 	mrseq	r0, (UNDEF: 5)
     2e0:	5c020500 	cfstr32pl	mvfx0, [r2], {-0}
     2e4:	03000081 	movweq	r0, #129	; 0x81
     2e8:	0505010b 	streq	r0, [r5, #-267]	; 0xfffffef5
     2ec:	06010513 			; <UNDEFINED> instruction: 0x06010513
     2f0:	05860613 	streq	r0, [r6, #1555]	; 0x613
     2f4:	08051305 	stmdaeq	r5, {r0, r2, r8, r9, ip}
     2f8:	052e0106 	streq	r0, [lr, #-262]!	; 0xfffffefa
     2fc:	052f0609 	streq	r0, [pc, #-1545]!	; fffffcfb <__bss_end__+0xffff4d2b>
     300:	05010611 	streq	r0, [r1, #-1553]	; 0xfffff9ef
     304:	03063001 	movweq	r3, #24577	; 0x6001
     308:	01062e25 	tsteq	r6, r5, lsr #28
     30c:	4b060505 	blmi	181728 <__bss_end__+0x176758>
     310:	04020001 	streq	r0, [r2], #-1
     314:	02006602 	andeq	r6, r0, #2097152	; 0x200000
     318:	00010204 	andeq	r0, r1, r4, lsl #4
     31c:	13020402 	movwne	r0, #9218	; 0x2402
     320:	02000c05 	andeq	r0, r0, #1280	; 0x500
     324:	01060204 	tsteq	r6, r4, lsl #4
     328:	02000505 	andeq	r0, r0, #20971520	; 0x1400000
     32c:	30060204 	andcc	r0, r6, r4, lsl #4
     330:	02000805 	andeq	r0, r0, #327680	; 0x50000
     334:	01060204 	tsteq	r6, r4, lsl #4
     338:	51060b05 	tstpl	r6, r5, lsl #22
     33c:	2e061105 	adfcss	f1, f6, f5
     340:	2e2e0b05 	vmulcs.f64	d0, d14, d5
     344:	30060905 	andcc	r0, r6, r5, lsl #18
     348:	01060c05 	tsteq	r6, r5, lsl #24
     34c:	4c060d05 	stcmi	13, cr0, [r6], {5}
     350:	01061b05 	tsteq	r6, r5, lsl #22
     354:	052e1805 	streq	r1, [lr, #-2053]!	; 0xfffff7fb
     358:	052f060d 	streq	r0, [pc, #-1549]!	; fffffd53 <__bss_end__+0xffff4d83>
     35c:	05170601 	ldreq	r0, [r7, #-1537]	; 0xfffff9ff
     360:	04020005 	streq	r0, [r2], #-5
     364:	6c030601 	stcvs	6, cr0, [r3], {1}
     368:	0402004a 	streq	r0, [r2], #-74	; 0xffffffb6
     36c:	02000101 	andeq	r0, r0, #1073741824	; 0x40000000
     370:	9e060104 	adflss	f0, f6, f4
     374:	01040200 	mrseq	r0, R12_usr
     378:	0402002e 	streq	r0, [r2], #-46	; 0xffffffd2
     37c:	052e0601 	streq	r0, [lr, #-1537]!	; 0xfffff9ff
     380:	0f053309 	svceq	0x00053309
     384:	0c050106 	stfeqs	f0, [r5], {6}
     388:	0609052e 	streq	r0, [r9], -lr, lsr #10
     38c:	0305052f 	movweq	r0, #21807	; 0x552f
     390:	06012e0d 	streq	r2, [r1], -sp, lsl #28
     394:	052e069e 	streq	r0, [lr, #-1694]!	; 0xfffff962
     398:	ba4a0301 	blt	1280fa4 <__bss_end__+0x1275fd4>
     39c:	05130505 	ldreq	r0, [r3, #-1285]	; 0xfffffafb
     3a0:	2e130601 	cfmsub32cs	mvax0, mvfx0, mvfx3, mvfx1
     3a4:	01063206 	tsteq	r6, r6, lsl #4
     3a8:	4b060505 	blmi	1817c4 <__bss_end__+0x1767f4>
     3ac:	01061405 	tsteq	r6, r5, lsl #8
     3b0:	18050204 	stmdane	r5, {r2, r9}
     3b4:	2e0e0306 	cdpcs	3, 0, cr0, cr14, cr6, {0}
     3b8:	05130505 	ldreq	r0, [r3, #-1285]	; 0xfffffafb
     3bc:	2e01060d 	cfmadd32cs	mvax0, mvfx0, mvfx1, mvfx13
     3c0:	01050104 	tsteq	r5, r4, lsl #2
     3c4:	06017203 	streq	r7, [r1], -r3, lsl #4
     3c8:	0501064e 	streq	r0, [r1, #-1614]	; 0xfffff9b2
     3cc:	05670605 	strbeq	r0, [r7, #-1541]!	; 0xfffff9fb
     3d0:	2e010611 	mcrcs	6, 0, r0, cr1, cr1, {0}
     3d4:	2f060505 	svccs	0x00060505
     3d8:	01061105 	tsteq	r6, r5, lsl #2
     3dc:	0605052e 	streq	r0, [r5], -lr, lsr #10
     3e0:	0601052f 	streq	r0, [r1], -pc, lsr #10
     3e4:	4d066613 	stcmi	6, cr6, [r6, #-76]	; 0xffffffb4
     3e8:	05050106 	streq	r0, [r5, #-262]	; 0xfffffefa
     3ec:	0a054c06 	beq	15340c <__bss_end__+0x14843c>
     3f0:	06150501 	ldreq	r0, [r5], -r1, lsl #10
     3f4:	25052e01 	strcs	r2, [r5, #-3585]	; 0xfffff1ff
     3f8:	01040200 	mrseq	r0, R12_usr
     3fc:	05052e06 	streq	r2, [r5, #-3590]	; 0xfffff1fa
     400:	01040200 	mrseq	r0, R12_usr
     404:	09050106 	stmdbeq	r5, {r1, r2, r8}
     408:	0d054d06 	stceq	13, cr4, [r5, #-24]	; 0xffffffe8
     40c:	054a0106 	strbeq	r0, [sl, #-262]	; 0xfffffefa
     410:	28052e0c 	stmdacs	r5, {r2, r3, r9, sl, fp, sp}
     414:	02040200 	andeq	r0, r4, #0, 4
     418:	2c054706 	stccs	7, cr4, [r5], {6}
     41c:	02040200 	andeq	r0, r4, #0, 4
     420:	02000106 	andeq	r0, r0, #-2147483647	; 0x80000001
     424:	05660204 	strbeq	r0, [r6, #-516]!	; 0xfffffdfc
     428:	8333060d 	teqhi	r3, #13631488	; 0xd00000
     42c:	01050106 	tsteq	r5, r6, lsl #2
     430:	1c030616 	stcne	6, cr0, [r3], {22}
     434:	82010666 	andhi	r0, r1, #106954752	; 0x6600000
     438:	2f060505 	svccs	0x00060505
     43c:	f2011413 	vqshl.s8	d1, d3, d1
     440:	0a051366 	beq	1451e0 <__bss_end__+0x13a210>
     444:	08050106 	stmdaeq	r5, {r1, r2, r8}
     448:	690d052e 	stmdbvs	sp, {r1, r2, r3, r5, r8, sl}
     44c:	02001405 	andeq	r1, r0, #83886080	; 0x5000000
     450:	2e060104 	adfcss	f0, f6, f4
     454:	02000505 	andeq	r0, r0, #20971520	; 0x1400000
     458:	01060104 	tsteq	r6, r4, lsl #2
     45c:	4b060905 	blmi	182878 <__bss_end__+0x1778a8>
     460:	01061305 	tsteq	r6, r5, lsl #6
     464:	054a0c05 	strbeq	r0, [sl, #-3077]	; 0xfffff3fb
     468:	054b060d 	strbeq	r0, [fp, #-1549]	; 0xfffff9f3
     46c:	22051409 	andcs	r1, r5, #150994944	; 0x9000000
     470:	31050106 	tstcc	r5, r6, lsl #2
     474:	2e0d052e 	cfsh32cs	mvfx0, mvfx13, #30
     478:	052e0c05 	streq	r0, [lr, #-3077]!	; 0xfffff3fb
     47c:	0402000d 	streq	r0, [r2], #-13
     480:	054b0602 	strbeq	r0, [fp, #-1538]	; 0xfffff9fe
     484:	04020028 	streq	r0, [r2], #-40	; 0xffffffd8
     488:	29050d02 	stmdbcs	r5, {r1, r8, sl, fp}
     48c:	02040200 	andeq	r0, r4, #0, 4
     490:	02000106 	andeq	r0, r0, #-2147483647	; 0x80000001
     494:	002e0204 	eoreq	r0, lr, r4, lsl #4
     498:	2e020402 	cdpcs	4, 0, cr0, cr2, cr2, {0}
     49c:	10060905 	andne	r0, r6, r5, lsl #18
     4a0:	05669e01 	strbeq	r9, [r6, #-3585]!	; 0xfffff1ff
     4a4:	9e01320d 	cdpls	2, 0, cr3, cr1, cr13, {0}
     4a8:	82062e06 	andhi	r2, r6, #96	; 0x60
     4ac:	4a9e0131 	bmi	fe780978 <__bss_end__+0xfe7759a8>
     4b0:	05152e06 	ldreq	r2, [r5, #-3590]	; 0xfffff1fa
     4b4:	04020014 	streq	r0, [r2], #-20	; 0xffffffec
     4b8:	052e0601 	streq	r0, [lr, #-1537]!	; 0xfffff9ff
     4bc:	04020019 	streq	r0, [r2], #-25	; 0xffffffe7
     4c0:	05010601 	streq	r0, [r1, #-1537]	; 0xfffff9ff
     4c4:	04020005 	streq	r0, [r2], #-5
     4c8:	09052e01 	stmdbeq	r5, {r0, r9, sl, fp, sp}
     4cc:	03040200 	movweq	r0, #16896	; 0x4200
     4d0:	1c052f06 	stcne	15, cr2, [r5], {6}
     4d4:	03040200 	movweq	r0, #16896	; 0x4200
     4d8:	29050106 	stmdbcs	r5, {r1, r2, r8}
     4dc:	03040200 	movweq	r0, #16896	; 0x4200
     4e0:	2a054906 	bcs	152900 <__bss_end__+0x147930>
     4e4:	03040200 	movweq	r0, #16896	; 0x4200
     4e8:	02000106 	andeq	r0, r0, #-2147483647	; 0x80000001
     4ec:	002e0304 	eoreq	r0, lr, r4, lsl #6
     4f0:	2e030402 	cdpcs	4, 0, cr0, cr3, cr2, {0}
     4f4:	16060505 	strne	r0, [r6], -r5, lsl #10
     4f8:	01060e05 	tsteq	r6, r5, lsl #28
     4fc:	0605052e 	streq	r0, [r5], -lr, lsr #10
     500:	0200012f 	andeq	r0, r0, #-1073741813	; 0xc000000b
     504:	00820204 	addeq	r0, r2, r4, lsl #4
     508:	01020402 	tsteq	r2, r2, lsl #8
     50c:	02040200 	andeq	r0, r4, #0, 4
     510:	00010514 	andeq	r0, r1, r4, lsl r5
     514:	06020402 	streq	r0, [r2], -r2, lsl #8
     518:	00050568 	andeq	r0, r5, r8, ror #10
     51c:	06010402 	streq	r0, [r1], -r2, lsl #8
     520:	04020046 	streq	r0, [r2], #-70	; 0xffffffba
     524:	02000101 	andeq	r0, r0, #1073741824	; 0x40000000
     528:	05d60104 	ldrbeq	r0, [r6, #260]	; 0x104
     52c:	080a0301 	stmdaeq	sl, {r0, r8, r9}
     530:	82010674 	andhi	r0, r1, #116, 12	; 0x7400000
     534:	2f060505 	svccs	0x00060505
     538:	01061005 	tsteq	r6, r5
     53c:	69060505 	stmdbvs	r6, {r0, r2, r8, sl}
     540:	01090569 	tsteq	r9, r9, ror #10
     544:	01060d05 	tsteq	r6, r5, lsl #26
     548:	02001405 	andeq	r1, r0, #83886080	; 0x5000000
     54c:	2e060104 	adfcss	f0, f6, f4
     550:	02000505 	andeq	r0, r0, #20971520	; 0x1400000
     554:	01060104 	tsteq	r6, r4, lsl #2
     558:	02000905 	andeq	r0, r0, #81920	; 0x14000
     55c:	4b060304 	blmi	181174 <__bss_end__+0x1761a4>
     560:	02001305 	andeq	r1, r0, #335544320	; 0x14000000
     564:	01060304 	tsteq	r6, r4, lsl #6
     568:	02000905 	andeq	r0, r0, #81920	; 0x14000
     56c:	67060304 	strvs	r0, [r6, -r4, lsl #6]
     570:	02002605 	andeq	r2, r0, #5242880	; 0x500000
     574:	01060304 	tsteq	r6, r4, lsl #6
     578:	02002b05 	andeq	r2, r0, #5120	; 0x1400
     57c:	054a0304 	strbeq	r0, [sl, #-772]	; 0xfffffcfc
     580:	04020028 	streq	r0, [r2], #-40	; 0xffffffd8
     584:	052c0603 	streq	r0, [ip, #-1539]!	; 0xfffff9fd
     588:	04020029 	streq	r0, [r2], #-41	; 0xffffffd7
     58c:	00010603 	andeq	r0, r1, r3, lsl #12
     590:	2e030402 	cdpcs	4, 0, cr0, cr3, cr2, {0}
     594:	03040200 	movweq	r0, #16896	; 0x4200
     598:	0605052e 	streq	r0, [r5], -lr, lsr #10
     59c:	06150517 			; <UNDEFINED> instruction: 0x06150517
     5a0:	06050501 	streq	r0, [r5], -r1, lsl #10
     5a4:	060e052f 	streq	r0, [lr], -pc, lsr #10
     5a8:	05052e01 	streq	r2, [r5, #-3585]	; 0xfffff1ff
     5ac:	12052f06 	andne	r2, r5, #6, 30
     5b0:	05050106 	streq	r0, [r5, #-262]	; 0xfffffefa
     5b4:	9e018406 	cdpls	4, 0, cr8, cr1, cr6, {0}
     5b8:	0d05149e 	cfstrseq	mvf1, [r5, #-632]	; 0xfffffd88
     5bc:	05050106 	streq	r0, [r5, #-262]	; 0xfffffefa
     5c0:	10056706 	andne	r6, r5, r6, lsl #14
     5c4:	05050106 	streq	r0, [r5, #-262]	; 0xfffffefa
     5c8:	01053006 	tsteq	r5, r6
     5cc:	02661406 	rsbeq	r1, r6, #100663296	; 0x6000000
     5d0:	01010006 	tsteq	r1, r6
     5d4:	0000023c 	andeq	r0, r0, ip, lsr r2
     5d8:	00640003 	rsbeq	r0, r4, r3
     5dc:	01020000 	mrseq	r0, (UNDEF: 2)
     5e0:	000d0efb 	strdeq	r0, [sp], -fp
     5e4:	01010101 	tsteq	r1, r1, lsl #2
     5e8:	01000000 	mrseq	r0, (UNDEF: 0)
     5ec:	2f010000 	svccs	0x00010000
     5f0:	72657355 	rsbvc	r7, r5, #1409286145	; 0x54000001
     5f4:	696d2f73 	stmdbvs	sp!, {r0, r1, r4, r5, r6, r8, r9, sl, fp, sp}^
     5f8:	2f73656c 	svccs	0x0073656c
     5fc:	72756f53 	rsbsvc	r6, r5, #332	; 0x14c
     600:	632f6563 			; <UNDEFINED> instruction: 0x632f6563
     604:	30343273 	eorscc	r3, r4, r3, ror r2
     608:	6c2f786c 	stcvs	8, cr7, [pc], #-432	; 460 <__code_start__-0x7ba0>
     60c:	69706269 	ldmdbvs	r0!, {r0, r3, r5, r6, r9, sp, lr}^
     610:	636e692f 	cmnvs	lr, #770048	; 0xbc000
     614:	6564756c 	strbvs	r7, [r4, #-1388]!	; 0xfffffa94
     618:	726b0000 	rsbvc	r0, fp, #0, 0
     61c:	6c616d2d 	stclvs	13, cr6, [r1], #-180	; 0xffffff4c
     620:	2e636f6c 	cdpcs	15, 6, cr6, cr3, cr12, {3}
     624:	00000063 	andeq	r0, r0, r3, rrx
     628:	69707200 	ldmdbvs	r0!, {r9, ip, sp, lr}^
     62c:	0100682e 	tsteq	r0, lr, lsr #16
     630:	726b0000 	rsbvc	r0, fp, #0, 0
     634:	6c616d2d 	stclvs	13, cr6, [r1], #-180	; 0xffffff4c
     638:	2e636f6c 	cdpcs	15, 6, cr6, cr3, cr12, {3}
     63c:	00000068 	andeq	r0, r0, r8, rrx
     640:	01050000 	mrseq	r0, (UNDEF: 5)
     644:	18020500 	stmdane	r2, {r8, sl}
     648:	03000085 	movweq	r0, #133	; 0x85
     64c:	050100d3 	streq	r0, [r1, #-211]	; 0xffffff2d
     650:	05131302 	ldreq	r1, [r3, #-770]	; 0xfffffcfe
     654:	05100601 	ldreq	r0, [r0, #-1537]	; 0xfffff9ff
     658:	05053109 	streq	r3, [r5, #-265]	; 0xfffffef7
     65c:	0602052d 	streq	r0, [r2], -sp, lsr #10
     660:	0609052f 	streq	r0, [r9], -pc, lsr #10
     664:	2e020501 	cfsh32cs	mvfx0, mvfx2, #1
     668:	02001205 	andeq	r1, r0, #1342177280	; 0x50000000
     66c:	052e0304 	streq	r0, [lr, #-772]!	; 0xfffffcfc
     670:	01054b06 	tsteq	r5, r6, lsl #22
     674:	01040200 	mrseq	r0, R12_usr
     678:	00120546 	andseq	r0, r2, r6, asr #10
     67c:	06010402 	streq	r0, [r1], -r2, lsl #8
     680:	00030531 	andeq	r0, r3, r1, lsr r5
     684:	13010402 	movwne	r0, #5122	; 0x1402
     688:	01040200 	mrseq	r0, R12_usr
     68c:	00020501 	andeq	r0, r2, r1, lsl #10
     690:	06010402 	streq	r0, [r1], -r2, lsl #8
     694:	00100511 	andseq	r0, r0, r1, lsl r5
     698:	2f010402 	svccs	0x00010402
     69c:	02000205 	andeq	r0, r0, #1342177280	; 0x50000000
     6a0:	052d0104 	streq	r0, [sp, #-260]!	; 0xfffffefc
     6a4:	20052f06 	andcs	r2, r5, r6, lsl #30
     6a8:	02040200 	andeq	r0, r4, #0, 4
     6ac:	0602054a 	streq	r0, [r2], -sl, asr #10
     6b0:	0610054c 	ldreq	r0, [r0], -ip, asr #10
     6b4:	03080501 	movweq	r0, #34049	; 0x8501
     6b8:	09052e0e 	stmdbeq	r5, {r1, r2, r3, r9, sl, fp, sp}
     6bc:	052e7203 	streq	r7, [lr, #-515]!	; 0xfffffdfd
     6c0:	03052e05 	movweq	r2, #24069	; 0x5e05
     6c4:	1a053006 	bne	14c6e4 <__bss_end__+0x141714>
     6c8:	0e051306 	cdpeq	3, 0, cr1, cr5, cr6, {0}
     6cc:	0603052d 	streq	r0, [r3], -sp, lsr #10
     6d0:	060e054b 	streq	r0, [lr], -fp, asr #10
     6d4:	06020516 			; <UNDEFINED> instruction: 0x06020516
     6d8:	0608054a 	streq	r0, [r8], -sl, asr #10
     6dc:	2e050501 	cfsh32cs	mvfx0, mvfx5, #1
     6e0:	30060305 	andcc	r0, r6, r5, lsl #6
     6e4:	13060c05 	movwne	r0, #27653	; 0x6c05
     6e8:	052d0d05 	streq	r0, [sp, #-3333]!	; 0xfffff2fb
     6ec:	054b0603 	strbeq	r0, [fp, #-1539]	; 0xfffff9fd
     6f0:	01053202 	tsteq	r5, r2, lsl #4
     6f4:	03061306 	movweq	r1, #25350	; 0x6306
     6f8:	02054a43 	andeq	r4, r5, #274432	; 0x43000
     6fc:	05141313 	ldreq	r1, [r4, #-787]	; 0xfffffced
     700:	050e0601 	streq	r0, [lr, #-1537]	; 0xfffff9ff
     704:	2405330d 	strcs	r3, [r5], #-781	; 0xfffffcf3
     708:	2f0d052d 	svccs	0x000d052d
     70c:	052d2905 	streq	r2, [sp, #-2309]!	; 0xfffff6fb
     710:	09052f05 	stmdbeq	r5, {r0, r2, r8, r9, sl, fp, sp}
     714:	0602052d 	streq	r0, [r2], -sp, lsr #10
     718:	0605052f 	streq	r0, [r5], -pc, lsr #10
     71c:	06020501 	streq	r0, [r2], -r1, lsl #10
     720:	06090534 			; <UNDEFINED> instruction: 0x06090534
     724:	06030501 	streq	r0, [r3], -r1, lsl #10
     728:	060b0530 			; <UNDEFINED> instruction: 0x060b0530
     72c:	2e060501 	cfsh32cs	mvfx0, mvfx6, #1
     730:	67030205 	strvs	r0, [r3, -r5, lsl #4]
     734:	1a05664a 	bne	15a064 <__bss_end__+0x14f094>
     738:	01170306 	tsteq	r7, r6, lsl #6
     73c:	01062705 	tsteq	r6, r5, lsl #14
     740:	2e061805 	cdpcs	8, 0, cr1, cr6, cr5, {0}
     744:	05140305 	ldreq	r0, [r4, #-773]	; 0xfffffcfb
     748:	0501060b 	streq	r0, [r1, #-1547]	; 0xfffff9f5
     74c:	03052e06 	movweq	r2, #24070	; 0x5e06
     750:	4a0f0306 	bmi	3c1370 <__bss_end__+0x3b63a0>
     754:	01060605 	tsteq	r6, r5, lsl #12
     758:	68060405 	stmdavs	r6, {r0, r2, sl}
     75c:	52031005 	andpl	r1, r3, #5, 0
     760:	14020501 	strne	r0, [r2], #-1281	; 0xfffffaff
     764:	0d056714 	stceq	7, cr6, [r5, #-80]	; 0xffffffb0
     768:	02050106 	andeq	r0, r5, #-2147483647	; 0x80000001
     76c:	0d054d06 	stceq	13, cr4, [r5, #-24]	; 0xffffffe8
     770:	02050f06 	andeq	r0, r5, #6, 30
     774:	05152f06 	ldreq	r2, [r5, #-3846]	; 0xfffff0fa
     778:	050f0605 	streq	r0, [pc, #-1541]	; 17b <__code_start__-0x7e85>
     77c:	05053202 	streq	r3, [r5, #-514]	; 0xfffffdfe
     780:	310d052a 	tstcc	sp, sl, lsr #10
     784:	2f060205 	svccs	0x00060205
     788:	0609052f 	streq	r0, [r9], -pc, lsr #10
     78c:	07052e01 	streq	r2, [r5, -r1, lsl #28]
     790:	05012303 	streq	r2, [r1, #-771]	; 0xfffffcfd
     794:	4a6d0327 	bmi	1b41438 <__bss_end__+0x1b36468>
     798:	4a061a05 	bmi	186fb4 <__bss_end__+0x17bfe4>
     79c:	05011805 	streq	r1, [r1, #-2053]	; 0xfffff7fb
     7a0:	0b051403 	bleq	1457b4 <__bss_end__+0x13a7e4>
     7a4:	06050106 	streq	r0, [r5], -r6, lsl #2
     7a8:	0604052e 	streq	r0, [r4], -lr, lsr #10
     7ac:	0607054c 	streq	r0, [r7], -ip, asr #10
     7b0:	06050501 	streq	r0, [r5], -r1, lsl #10
     7b4:	18051630 	stmdane	r5, {r4, r5, r9, sl, ip}
     7b8:	0f050e06 	svceq	0x00050e06
     7bc:	06050532 			; <UNDEFINED> instruction: 0x06050532
     7c0:	0607054b 	streq	r0, [r7], -fp, asr #10
     7c4:	06050501 	streq	r0, [r5], -r1, lsl #10
     7c8:	060f052f 	streq	r0, [pc], -pc, lsr #10
     7cc:	06040501 	streq	r0, [r4], -r1, lsl #10
     7d0:	06120530 			; <UNDEFINED> instruction: 0x06120530
     7d4:	05017803 	streq	r7, [r1, #-2051]	; 0xfffff7fd
     7d8:	0405360a 	streq	r3, [r5], #-1546	; 0xfffff9f6
     7dc:	0b052f06 	bleq	14c3fc <__bss_end__+0x14142c>
     7e0:	0c050106 	stfeqs	f0, [r5], {6}
     7e4:	32010550 	andcc	r0, r1, #80, 10	; 0x14000000
     7e8:	03060305 	movweq	r0, #25349	; 0x6305
     7ec:	16052e63 	strne	r2, [r5], -r3, ror #28
     7f0:	0f050106 	svceq	0x00050106
     7f4:	3109052f 	tstcc	r9, pc, lsr #10
     7f8:	052b0f05 	streq	r0, [fp, #-3845]!	; 0xfffff0fb
     7fc:	0e052d16 	mcreq	13, 0, r2, cr5, cr6, {0}
     800:	0603052e 	streq	r0, [r3], -lr, lsr #10
     804:	1502052f 	strne	r0, [r2, #-1327]	; 0xfffffad1
     808:	05140305 	ldreq	r0, [r4, #-773]	; 0xfffffcfb
     80c:	022e0606 	eoreq	r0, lr, #6291456	; 0x600000
     810:	01010008 	tsteq	r1, r8
     814:	0000059c 	muleq	r0, ip, r5
     818:	00d40003 	sbcseq	r0, r4, r3
     81c:	01020000 	mrseq	r0, (UNDEF: 2)
     820:	000d0efb 	strdeq	r0, [sp], -fp
     824:	01010101 	tsteq	r1, r1, lsl #2
     828:	01000000 	mrseq	r0, (UNDEF: 0)
     82c:	2f010000 	svccs	0x00010000
     830:	2f74706f 	svccs	0x0074706f
     834:	656d6f68 	strbvs	r6, [sp, #-3944]!	; 0xfffff098
     838:	77657262 	strbvc	r7, [r5, -r2, ror #4]!
     83c:	6c65432f 	stclvs	3, cr4, [r5], #-188	; 0xffffff44
     840:	2f72616c 	svccs	0x0072616c
     844:	2d6d7261 	sfmcs	f7, 2, [sp, #-388]!	; 0xfffffe7c
     848:	656e6f6e 	strbvs	r6, [lr, #-3950]!	; 0xfffff092
     84c:	6261652d 	rsbvs	r6, r1, #188743680	; 0xb400000
     850:	2f392d69 	svccs	0x00392d69
     854:	30322d39 	eorscc	r2, r2, r9, lsr sp
     858:	34713931 	ldrbtcc	r3, [r1], #-2353	; 0xfffff6cf
     85c:	3173632d 	cmncc	r3, sp, lsr #6
     860:	2f653730 	svccs	0x00653730
     864:	2f62696c 	svccs	0x0062696c
     868:	2f636367 	svccs	0x00636367
     86c:	2d6d7261 	sfmcs	f7, 2, [sp, #-388]!	; 0xfffffe7c
     870:	656e6f6e 	strbvs	r6, [lr, #-3950]!	; 0xfffff092
     874:	6261652d 	rsbvs	r6, r1, #188743680	; 0xb400000
     878:	2e392f69 	cdpcs	15, 3, cr2, cr9, cr9, {3}
     87c:	2f312e32 	svccs	0x00312e32
     880:	6c636e69 	stclvs	14, cr6, [r3], #-420	; 0xfffffe5c
     884:	00656475 	rsbeq	r6, r5, r5, ror r4
     888:	6573552f 	ldrbvs	r5, [r3, #-1327]!	; 0xfffffad1
     88c:	6d2f7372 	stcvs	3, cr7, [pc, #-456]!	; 6cc <__code_start__-0x7934>
     890:	73656c69 	cmnvc	r5, #26880	; 0x6900
     894:	756f532f 	strbvc	r5, [pc, #-815]!	; 56d <__code_start__-0x7a93>
     898:	2f656372 	svccs	0x00656372
     89c:	34327363 	ldrtcc	r7, [r2], #-867	; 0xfffffc9d
     8a0:	2f786c30 	svccs	0x00786c30
     8a4:	7062696c 	rsbvc	r6, r2, ip, ror #18
     8a8:	6e692f69 	cdpvs	15, 6, cr2, cr9, cr9, {3}
     8ac:	64756c63 	ldrbtvs	r6, [r5], #-3171	; 0xfffff39d
     8b0:	63000065 	movwvs	r0, #101	; 0x65
     8b4:	63672d6b 	cmnvs	r7, #6848	; 0x1ac0
     8b8:	0000632e 	andeq	r6, r0, lr, lsr #6
     8bc:	72730000 	rsbsvc	r0, r3, #0, 0
     8c0:	6f6c2d63 	svcvs	0x006c2d63
     8c4:	00682e63 	rsbeq	r2, r8, r3, ror #28
     8c8:	73000000 	movwvc	r0, #0
     8cc:	6e696474 	mcrvs	4, 3, r6, cr9, cr4, {3}
     8d0:	63672d74 	cmnvs	r7, #116, 26	; 0x1d00
     8d4:	00682e63 	rsbeq	r2, r8, r3, ror #28
     8d8:	72000001 	andvc	r0, r0, #1, 0
     8dc:	682e6970 	stmdavs	lr!, {r4, r5, r6, r8, fp, sp, lr}
     8e0:	00000200 	andeq	r0, r0, r0, lsl #4
     8e4:	6c616b63 			; <UNDEFINED> instruction: 0x6c616b63
     8e8:	2e636f6c 	cdpcs	15, 6, cr6, cr3, cr12, {3}
     8ec:	00000068 	andeq	r0, r0, r8, rrx
     8f0:	01050000 	mrseq	r0, (UNDEF: 5)
     8f4:	a0020500 	andge	r0, r2, r0, lsl #10
     8f8:	03000086 	movweq	r0, #134	; 0x86
     8fc:	050100d0 	streq	r0, [r1, #-208]	; 0xffffff30
     900:	05011305 	streq	r1, [r1, #-773]	; 0xfffffcfb
     904:	05110601 	ldreq	r0, [r1, #-1537]	; 0xfffff9ff
     908:	01052f05 	tsteq	r5, r5, lsl #30
     90c:	2f050565 	svccs	0x00050565
     910:	02040200 	andeq	r0, r4, #0, 4
     914:	02002e06 	andeq	r2, r0, #96	; 0x60
     918:	00010204 	andeq	r0, r1, r4, lsl #4
     91c:	15020402 	strne	r0, [r2, #-1026]	; 0xfffffbfe
     920:	02040200 	andeq	r0, r4, #0, 4
     924:	04020001 	streq	r0, [r2], #-1
     928:	02006602 	andeq	r6, r0, #2097152	; 0x200000
     92c:	00010204 	andeq	r0, r1, r4, lsl #4
     930:	13020402 	movwne	r0, #9218	; 0x2402
     934:	02040200 	andeq	r0, r4, #0, 4
     938:	04020001 	streq	r0, [r2], #-1
     93c:	059e0602 	ldreq	r0, [lr, #1538]	; 0x602
     940:	6609030d 	strvs	r0, [r9], -sp, lsl #6
     944:	030b054a 	movweq	r0, #46410	; 0xb54a
     948:	0805015f 	stmdaeq	r5, {r0, r1, r2, r3, r4, r6, r8}
     94c:	4a2e7003 	bmi	b9c960 <__bss_end__+0xb91990>
     950:	03060905 	movweq	r0, #26885	; 0x6905
     954:	0805012c 	stmdaeq	r5, {r2, r3, r5, r8}
     958:	01540306 	cmpeq	r4, r6, lsl #6
     95c:	060f054a 	streq	r0, [pc], -sl, asr #10
     960:	05010e03 	streq	r0, [r1, #-3587]	; 0xfffff1fd
     964:	05141405 	ldreq	r1, [r4, #-1029]	; 0xfffffbfb
     968:	016b030c 	cmneq	fp, ip, lsl #6
     96c:	05150505 	ldreq	r0, [r5, #-1285]	; 0xfffffafb
     970:	05010608 	streq	r0, [r1, #-1544]	; 0xfffff9f8
     974:	05662e18 	strbeq	r2, [r6, #-3608]!	; 0xfffff1e8
     978:	14030605 	strne	r0, [r3], #-1541	; 0xfffff9fb
     97c:	060c0501 	streq	r0, [ip], -r1, lsl #10
     980:	09052e01 	stmdbeq	r5, {r0, r9, sl, fp, sp}
     984:	01190306 	tsteq	r9, r6, lsl #6
     988:	01060c05 	tsteq	r6, r5, lsl #24
     98c:	4c060d05 	stcmi	13, cr0, [r6], {5}
     990:	13061605 	movwne	r1, #26117	; 0x6605
     994:	052f0d05 	streq	r0, [pc, #-3333]!	; fffffc97 <__bss_end__+0xffff4cc7>
     998:	0d052c29 	stceq	12, cr2, [r5, #-164]	; 0xffffff5c
     99c:	bb132f06 	bllt	4cc5bc <__bss_end__+0x4c15ec>
     9a0:	01061005 	tsteq	r6, r5
     9a4:	4c061105 	stfmis	f1, [r6], {5}
     9a8:	01061905 	tsteq	r6, r5, lsl #18
     9ac:	052f1105 	streq	r1, [pc, #-261]!	; 8af <__code_start__-0x7751>
     9b0:	11052d19 	tstne	r5, r9, lsl sp
     9b4:	05690667 	strbeq	r0, [r9, #-1639]!	; 0xfffff999
     9b8:	4a010614 	bmi	42210 <__bss_end__+0x37240>
     9bc:	03062305 	movweq	r2, #25349	; 0x6305
     9c0:	1b050172 	blne	140f90 <__bss_end__+0x135fc0>
     9c4:	06050501 	streq	r0, [r5], -r1, lsl #10
     9c8:	01054a01 	tsteq	r5, r1, lsl #20
     9cc:	05011903 	streq	r1, [r1, #-2307]	; 0xfffff6fd
     9d0:	06460611 			; <UNDEFINED> instruction: 0x06460611
     9d4:	0623054a 	strteq	r0, [r3], -sl, asr #10
     9d8:	05016b03 	streq	r6, [r1, #-2819]	; 0xfffff4fd
     9dc:	0505011b 	streq	r0, [r5, #-283]	; 0xfffffee5
     9e0:	15050106 	strne	r0, [r5, #-262]	; 0xfffffefa
     9e4:	66100306 	ldrvs	r0, [r0], -r6, lsl #6
     9e8:	23059e06 	movwcs	r9, #24070	; 0x5e06
     9ec:	01700306 	cmneq	r0, r6, lsl #6
     9f0:	05011b05 	streq	r1, [r1, #-2821]	; 0xfffff4fb
     9f4:	66010605 	strvs	r0, [r1], -r5, lsl #12
     9f8:	01040200 	mrseq	r0, R12_usr
     9fc:	02000f06 	andeq	r0, r0, #6, 30
     a00:	00010104 	andeq	r0, r1, r4, lsl #2
     a04:	06010402 	streq	r0, [r1], -r2, lsl #8
     a08:	0402004a 	streq	r0, [r2], #-74	; 0xffffffb6
     a0c:	02002e01 	andeq	r2, r0, #1, 28
     a10:	004a0104 	subeq	r0, sl, r4, lsl #2
     a14:	06010402 	streq	r0, [r1], -r2, lsl #8
     a18:	0301054a 	movweq	r0, #5450	; 0x154a
     a1c:	05580825 	ldrbeq	r0, [r8, #-2085]	; 0xfffff7db
     a20:	0a051605 	beq	14623c <__bss_end__+0x13b26c>
     a24:	06010501 	streq	r0, [r1], -r1, lsl #10
     a28:	4e15050e 	cfmul32mi	mvfx0, mvfx5, mvfx14
     a2c:	2e062505 	cfsh32cs	mvfx2, mvfx6, #5
     a30:	01060505 	tsteq	r6, r5, lsl #10
     a34:	3032052e 	eorscc	r0, r2, lr, lsr #10
     a38:	02000905 	andeq	r0, r0, #81920	; 0x14000
     a3c:	2e060304 	cdpcs	3, 0, cr0, cr6, cr4, {0}
     a40:	02003205 	andeq	r3, r0, #1342177280	; 0x50000000
     a44:	01060304 	tsteq	r6, r4, lsl #6
     a48:	02002105 	andeq	r2, r0, #1073741825	; 0x40000001
     a4c:	052e0304 	streq	r0, [lr, #-772]!	; 0xfffffcfc
     a50:	04020011 	streq	r0, [r2], #-17	; 0xffffffef
     a54:	28052e03 	stmdacs	r5, {r0, r1, r9, sl, fp, sp}
     a58:	03040200 	movweq	r0, #16896	; 0x4200
     a5c:	2c052c06 	stccs	12, cr2, [r5], {6}
     a60:	03040200 	movweq	r0, #16896	; 0x4200
     a64:	25050106 	strcs	r0, [r5, #-262]	; 0xfffffefa
     a68:	03040200 	movweq	r0, #16896	; 0x4200
     a6c:	05052e06 	streq	r2, [r5, #-3590]	; 0xfffff1fa
     a70:	03040200 	movweq	r0, #16896	; 0x4200
     a74:	02000106 	andeq	r0, r0, #-2147483647	; 0x80000001
     a78:	002e0304 	eoreq	r0, lr, r4, lsl #6
     a7c:	2e030402 	cdpcs	4, 0, cr0, cr3, cr2, {0}
     a80:	06131906 	ldreq	r1, [r3], -r6, lsl #18
     a84:	1330062e 	teqne	r0, #48234496	; 0x2e00000
     a88:	0d051313 	stceq	3, cr1, [r5, #-76]	; 0xffffffb4
     a8c:	05050f06 	streq	r0, [r5, #-3846]	; 0xfffff0fa
     a90:	054a0a03 	strbeq	r0, [sl, #-2563]	; 0xfffff5fd
     a94:	4a76030d 	bmi	1d816d0 <__bss_end__+0x1d76700>
     a98:	03060505 	movweq	r0, #25861	; 0x6505
     a9c:	13324a0a 	teqne	r2, #40960	; 0xa000
     aa0:	68136983 	ldmdavs	r3, {r0, r1, r7, r8, fp, sp, lr}
     aa4:	06010513 			; <UNDEFINED> instruction: 0x06010513
     aa8:	05dc0667 	ldrbeq	r0, [ip, #1639]	; 0x667
     aac:	05131305 	ldreq	r1, [r3, #-773]	; 0xfffffcfb
     ab0:	2e100601 	cfmsub32cs	mvax0, mvfx0, mvfx0, mvfx1
     ab4:	2e300505 	cdpcs	5, 3, cr0, cr0, cr5, {0}
     ab8:	2f4c2f06 	svccs	0x004c2f06
     abc:	05010a05 	streq	r0, [r1, #-2565]	; 0xfffff5fb
     ac0:	05010615 	streq	r0, [r1, #-1557]	; 0xfffff9eb
     ac4:	052e0625 	streq	r0, [lr, #-1573]!	; 0xfffff9db
     ac8:	05010605 	streq	r0, [r1, #-1541]	; 0xfffff9fb
     acc:	0d054527 	cfstr32eq	mvfx4, [r5, #-156]	; 0xffffff64
     ad0:	052e1003 	streq	r1, [lr, #-3]!
     ad4:	2e70031b 	mrccs	3, 3, r0, cr0, cr11, {0}
     ad8:	052e0e05 	streq	r0, [lr, #-3589]!	; 0xfffff1fb
     adc:	2e0b030d 	cdpcs	3, 0, cr0, cr11, cr13, {0}
     ae0:	054c1105 	strbeq	r1, [ip, #-261]	; 0xfffffefb
     ae4:	04020028 	streq	r0, [r2], #-40	; 0xffffffd8
     ae8:	78030602 	stmdavc	r3, {r1, r9, sl}
     aec:	002c054a 	eoreq	r0, ip, sl, asr #10
     af0:	06020402 	streq	r0, [r2], -r2, lsl #8
     af4:	00250501 	eoreq	r0, r5, r1, lsl #10
     af8:	06020402 	streq	r0, [r2], -r2, lsl #8
     afc:	0005054a 	andeq	r0, r5, sl, asr #10
     b00:	06020402 	streq	r0, [r2], -r2, lsl #8
     b04:	06090501 	streq	r0, [r9], -r1, lsl #10
     b08:	180e054c 	stmdane	lr, {r2, r3, r6, r8, sl}
     b0c:	10050d06 	andne	r0, r5, r6, lsl #26
     b10:	0609052d 	streq	r0, [r9], -sp, lsr #10
     b14:	060c052f 	streq	r0, [ip], -pc, lsr #10
     b18:	060d0501 	streq	r0, [sp], -r1, lsl #10
     b1c:	6613064c 	ldrvs	r0, [r3], -ip, asr #12
     b20:	7a032c05 	bvc	cbb3c <__bss_end__+0xc0b6c>
     b24:	4a05052e 	bmi	141fe4 <__bss_end__+0x137014>
     b28:	05331305 	ldreq	r1, [r3, #-773]!	; 0xfffffcfb
     b2c:	052f060d 	streq	r0, [pc, #-1549]!	; 527 <__code_start__-0x7ad9>
     b30:	017a0328 	cmneq	sl, r8, lsr #6
     b34:	05012505 	streq	r2, [r1, #-1285]	; 0xfffffafb
     b38:	2e010605 	cfmadd32cs	mvax0, mvfx0, mvfx1, mvfx5
     b3c:	010f0306 	tsteq	pc, r6, lsl #6
     b40:	064a0601 	strbeq	r0, [sl], -r1, lsl #12
     b44:	0805132e 	stmdaeq	r5, {r1, r2, r3, r5, r8, r9, ip}
     b48:	09050106 	stmdbeq	r5, {r1, r2, r8}
     b4c:	00014d06 	andeq	r4, r1, r6, lsl #26
     b50:	82010402 	andhi	r0, r1, #33554432	; 0x2000000
     b54:	02000505 	andeq	r0, r0, #20971520	; 0x1400000
     b58:	00140104 	andseq	r0, r4, r4, lsl #2
     b5c:	4b010402 	blmi	41b6c <__bss_end__+0x36b9c>
     b60:	02000805 	andeq	r0, r0, #327680	; 0x50000
     b64:	01060104 	tsteq	r6, r4, lsl #2
     b68:	02001705 	andeq	r1, r0, #1310720	; 0x140000
     b6c:	05300104 	ldreq	r0, [r0, #-260]!	; 0xfffffefc
     b70:	04020001 	streq	r0, [r2], #-1
     b74:	0d053401 	cfstrseq	mvf3, [r5, #-4]
     b78:	4a6c0306 	bmi	1b01798 <__bss_end__+0x1af67c8>
     b7c:	19051306 	stmdbne	r5, {r1, r2, r8, r9, ip}
     b80:	060d0565 	streq	r0, [sp], -r5, ror #10
     b84:	054a062f 	strbeq	r0, [sl, #-1583]	; 0xfffff9d1
     b88:	01160605 	tsteq	r6, r5, lsl #12
     b8c:	2e064a06 	vmlacs.f32	s8, s12, s12
     b90:	13090513 	movwne	r0, #38163	; 0x9513
     b94:	01058201 	tsteq	r5, r1, lsl #4
     b98:	087ed703 	ldmdaeq	lr!, {r0, r1, r8, r9, sl, ip, lr, pc}^
     b9c:	13050520 	movwne	r0, #21792	; 0x5520
     ba0:	01050114 	tsteq	r5, r4, lsl r1
     ba4:	05050f06 	streq	r0, [r5, #-3846]	; 0xfffff0fa
     ba8:	2b010531 	blcs	42074 <__bss_end__+0x370a4>
     bac:	00310505 	eorseq	r0, r1, r5, lsl #10
     bb0:	06020402 	streq	r0, [r2], -r2, lsl #8
     bb4:	0402002e 	streq	r0, [r2], #-46	; 0xffffffd2
     bb8:	02000102 	andeq	r0, r0, #-2147483648	; 0x80000000
     bbc:	05130204 	ldreq	r0, [r3, #-516]	; 0xfffffdfc
     bc0:	04020009 	streq	r0, [r2], #-9
     bc4:	05010602 	streq	r0, [r1, #-1538]	; 0xfffff9fe
     bc8:	04020008 	streq	r0, [r2], #-8
     bcc:	09052e02 	stmdbeq	r5, {r1, r9, sl, fp, sp}
     bd0:	13156706 	tstne	r5, #1572864	; 0x180000
     bd4:	01061405 	tsteq	r6, r5, lsl #8
     bd8:	052f1205 	streq	r1, [pc, #-517]!	; 9db <__code_start__-0x7625>
     bdc:	12052f09 	andne	r2, r5, #9, 30	; 0x24
     be0:	0609052d 	streq	r0, [r9], -sp, lsr #10
     be4:	10052f2f 	andne	r2, r5, pc, lsr #30
     be8:	0c050106 	stfeqs	f0, [r5], {6}
     bec:	2c100530 	cfldr32cs	mvfx0, [r0], {48}	; 0x30
     bf0:	30060505 	andcc	r0, r6, r5, lsl #10
     bf4:	13060105 	movwne	r0, #24837	; 0x6105
     bf8:	05490c05 	strbeq	r0, [r9, #-3077]	; 0xfffff3fb
     bfc:	04020005 	streq	r0, [r2], #-5
     c00:	75030601 	strvc	r0, [r3, #-1537]	; 0xfffff9ff
     c04:	0402002e 	streq	r0, [r2], #-46	; 0xffffffd2
     c08:	02000101 	andeq	r0, r0, #1073741824	; 0x40000000
     c0c:	9e060104 	adflss	f0, f6, f4
     c10:	01040200 	mrseq	r0, R12_usr
     c14:	09054a06 	stmdbeq	r5, {r1, r2, r9, fp, lr}
     c18:	82060130 	andhi	r0, r6, #12
     c1c:	01052e06 	tsteq	r5, r6, lsl #28
     c20:	d601b603 	strle	fp, [r1], -r3, lsl #12
     c24:	05140505 	ldreq	r0, [r4, #-1285]	; 0xfffffafb
     c28:	2e01060c 	cfmadd32cs	mvax0, mvfx0, mvfx1, mvfx12
     c2c:	00060105 	andeq	r0, r6, r5, lsl #2
     c30:	8a600205 	bhi	180144c <__bss_end__+0x17f647c>
     c34:	05170000 	ldreq	r0, [r7, #-0]
     c38:	01051605 	tsteq	r5, r5, lsl #12
     c3c:	05050e06 	streq	r0, [r5, #-3590]	; 0xfffff1fa
     c40:	05130632 	ldreq	r0, [r3, #-1586]	; 0xfffff9ce
     c44:	0173030a 	cmneq	r3, sl, lsl #6
     c48:	05150505 	ldreq	r0, [r5, #-1285]	; 0xfffffafb
     c4c:	4a01060c 	bmi	42484 <__bss_end__+0x374b4>
     c50:	0a030805 	beq	c2c6c <__bss_end__+0xb7c9c>
     c54:	06090501 	streq	r0, [r9], -r1, lsl #10
     c58:	4a01144b 	bmi	45d8c <__bss_end__+0x3adbc>
     c5c:	05130505 	ldreq	r0, [r3, #-1285]	; 0xfffffafb
     c60:	05130601 	ldreq	r0, [r3, #-1537]	; 0xfffff9ff
     c64:	012a0609 			; <UNDEFINED> instruction: 0x012a0609
     c68:	a601059e 			; <UNDEFINED> instruction: 0xa601059e
     c6c:	05160505 	ldreq	r0, [r6, #-1285]	; 0xfffffafb
     c70:	050e0601 	streq	r0, [lr, #-1537]	; 0xfffff9ff
     c74:	13063205 	movwne	r3, #25093	; 0x6205
     c78:	65030a05 	strvs	r0, [r3, #-2565]	; 0xfffff5fb
     c7c:	15050501 	strne	r0, [r5, #-1281]	; 0xfffffaff
     c80:	01060c05 	tsteq	r6, r5, lsl #24
     c84:	0605054a 	streq	r0, [r5], -sl, asr #10
     c88:	05011903 	streq	r1, [r1, #-2307]	; 0xfffff6fd
     c8c:	05010608 	streq	r0, [r1, #-1544]	; 0xfffff9f8
     c90:	144b0609 	strbne	r0, [fp], #-1545	; 0xfffff9f7
     c94:	064a0601 	strbeq	r0, [sl], -r1, lsl #12
     c98:	1305052e 	movwne	r0, #21806	; 0x552e
     c9c:	06010513 			; <UNDEFINED> instruction: 0x06010513
     ca0:	06090513 			; <UNDEFINED> instruction: 0x06090513
     ca4:	059e0145 	ldreq	r0, [lr, #325]	; 0x145
     ca8:	9e210301 	cdpls	3, 2, cr0, cr1, cr1, {0}
     cac:	05130505 	ldreq	r0, [r3, #-1285]	; 0xfffffafb
     cb0:	05110601 	ldreq	r0, [r1, #-1537]	; 0xfffff9ff
     cb4:	2f064b05 	svccs	0x00064b05
     cb8:	65031105 	strvs	r1, [r3, #-261]	; 0xfffffefb
     cbc:	14050501 	strne	r0, [r5], #-1281	; 0xfffffaff
     cc0:	2f4c4b13 	svccs	0x004c4b13
     cc4:	05010a05 	streq	r0, [r1, #-2565]	; 0xfffff5fb
     cc8:	05010615 	streq	r0, [r1, #-1557]	; 0xfffff9eb
     ccc:	052e0625 	streq	r0, [lr, #-1573]!	; 0xfffff9db
     cd0:	05010605 	streq	r0, [r1, #-1541]	; 0xfffff9fb
     cd4:	1b054527 	blne	152178 <__bss_end__+0x1471a8>
     cd8:	2e0e052e 	cfsh32cs	mvfx0, mvfx14, #30
     cdc:	0c050204 	sfmeq	f0, 4, [r5], {4}
     ce0:	2e7e9803 	cdpcs	8, 7, cr9, cr14, cr3, {0}
     ce4:	0d050104 	stfeqs	f0, [r5, #-16]
     ce8:	4a01f503 	bmi	7e0fc <__bss_end__+0x7312c>
     cec:	03060905 	movweq	r0, #26885	; 0x6905
     cf0:	28052e7a 	stmdacs	r5, {r1, r3, r4, r5, r6, r9, sl, fp, sp}
     cf4:	060c0510 			; <UNDEFINED> instruction: 0x060c0510
     cf8:	2d100515 	cfldr32cs	mvfx0, [r0, #-84]	; 0xffffffac
     cfc:	2f060905 	svccs	0x00060905
     d00:	01060c05 	tsteq	r6, r5, lsl #24
     d04:	05472c05 	strbeq	r2, [r7, #-3077]	; 0xfffff3fb
     d08:	054a0625 	strbeq	r0, [sl, #-1573]	; 0xfffff9db
     d0c:	4a010605 	bmi	42528 <__bss_end__+0x37558>
     d10:	010c0306 	tsteq	ip, r6, lsl #6
     d14:	06149e01 	ldreq	r9, [r4], -r1, lsl #28
     d18:	0a030601 	beq	c2524 <__bss_end__+0xb7554>
     d1c:	06010501 	streq	r0, [r1], -r1, lsl #10
     d20:	060d0513 			; <UNDEFINED> instruction: 0x060d0513
     d24:	04666c03 	strbteq	r6, [r6], #-3075	; 0xfffff3fd
     d28:	060c0502 	streq	r0, [ip], -r2, lsl #10
     d2c:	017e8e03 	cmneq	lr, r3, lsl #28
     d30:	1a050104 	bne	141148 <__bss_end__+0x136178>
     d34:	2e01f303 	cdpcs	3, 0, cr15, cr1, cr3, {0}
     d38:	0c050204 	sfmeq	f0, 4, [r5], {4}
     d3c:	2e7e8d03 	cdpcs	13, 7, cr8, cr14, cr3, {0}
     d40:	0d050104 	stfeqs	f0, [r5, #-16]
     d44:	2e01f403 	cdpcs	4, 0, cr15, cr1, cr3, {0}
     d48:	0c050204 	sfmeq	f0, 4, [r5], {4}
     d4c:	2e7e8c03 	cdpcs	12, 7, cr8, cr14, cr3, {0}
     d50:	0d050104 	stfeqs	f0, [r5, #-16]
     d54:	4a01f403 	bmi	7dd68 <__bss_end__+0x72d98>
     d58:	05651a05 	strbeq	r1, [r5, #-2565]!	; 0xfffff5fb
     d5c:	052f2f0d 	streq	r2, [pc, #-3853]!	; fffffe57 <__bss_end__+0xffff4e87>
     d60:	6678032c 	ldrbtvs	r0, [r8], -ip, lsr #6
     d64:	054a0505 	strbeq	r0, [sl, #-1285]	; 0xfffffafb
     d68:	0d053313 	stceq	3, cr3, [r5, #-76]	; 0xffffffb4
     d6c:	04132f06 	ldreq	r2, [r3], #-3846	; 0xfffff0fa
     d70:	030b0502 	movweq	r0, #46338	; 0xb502
     d74:	05017e8b 	streq	r7, [r1, #-3723]	; 0xfffff175
     d78:	01061305 	tsteq	r6, r5, lsl #6
     d7c:	0d050104 	stfeqs	f0, [r5, #-16]
     d80:	01f50306 	mvnseq	r0, r6, lsl #6
     d84:	03280501 			; <UNDEFINED> instruction: 0x03280501
     d88:	25050178 	strcs	r0, [r5, #-376]	; 0xfffffe88
     d8c:	06050501 	streq	r0, [r5], -r1, lsl #10
     d90:	27054a01 	strcs	r4, [r5, -r1, lsl #20]
     d94:	2e1b050d 	cfmul32cs	mvfx0, mvfx11, mvfx13
     d98:	052e0e05 	streq	r0, [lr, #-3589]!	; 0xfffff1fb
     d9c:	21030601 	tstcs	r3, r1, lsl #12
     da0:	05052008 	streq	r2, [r5, #-8]
     da4:	01050113 	tsteq	r5, r3, lsl r1
     da8:	05051106 	streq	r1, [r5, #-262]	; 0xfffffefa
     dac:	029e062f 	addseq	r0, lr, #49283072	; 0x2f00000
     db0:	0101000a 	tsteq	r1, sl
     db4:	00000121 	andeq	r0, r0, r1, lsr #2
     db8:	00be0003 	adcseq	r0, lr, r3
     dbc:	01020000 	mrseq	r0, (UNDEF: 2)
     dc0:	000d0efb 	strdeq	r0, [sp], -fp
     dc4:	01010101 	tsteq	r1, r1, lsl #2
     dc8:	01000000 	mrseq	r0, (UNDEF: 0)
     dcc:	2e010000 	cdpcs	0, 0, cr0, cr1, cr0, {0}
     dd0:	62696c2f 	rsbvs	r6, r9, #12032	; 0x2f00
     dd4:	552f0063 	strpl	r0, [pc, #-99]!	; d79 <__code_start__-0x7287>
     dd8:	73726573 	cmnvc	r2, #482344960	; 0x1cc00000
     ddc:	6c696d2f 	stclvs	13, cr6, [r9], #-188	; 0xffffff44
     de0:	532f7365 			; <UNDEFINED> instruction: 0x532f7365
     de4:	6372756f 	cmnvs	r2, #465567744	; 0x1bc00000
     de8:	73632f65 	cmnvc	r3, #404	; 0x194
     dec:	6c303432 	cfldrsvs	mvf3, [r0], #-200	; 0xffffff38
     df0:	696c2f78 	stmdbvs	ip!, {r3, r4, r5, r6, r8, r9, sl, fp, sp}^
     df4:	2f697062 	svccs	0x00697062
     df8:	6c636e69 	stclvs	14, cr6, [r3], #-420	; 0xfffffe5c
     dfc:	00656475 	rsbeq	r6, r5, r5, ror r4
     e00:	74706f2f 	ldrbtvc	r6, [r0], #-3887	; 0xfffff0d1
     e04:	6d6f682f 	stclvs	8, cr6, [pc, #-188]!	; d50 <__code_start__-0x72b0>
     e08:	65726265 	ldrbvs	r6, [r2, #-613]!	; 0xfffffd9b
     e0c:	65432f77 	strbvs	r2, [r3, #-3959]	; 0xfffff089
     e10:	72616c6c 	rsbvc	r6, r1, #108, 24	; 0x6c00
     e14:	6d72612f 	ldfvse	f6, [r2, #-188]!	; 0xffffff44
     e18:	6e6f6e2d 	cdpvs	14, 6, cr6, cr15, cr13, {1}
     e1c:	61652d65 	cmnvs	r5, r5, ror #26
     e20:	392d6962 	pushcc	{r1, r5, r6, r8, fp, sp, lr}
     e24:	322d392f 	eorcc	r3, sp, #770048	; 0xbc000
     e28:	71393130 	teqvc	r9, r0, lsr r1
     e2c:	73632d34 	cmnvc	r3, #52, 26	; 0xd00
     e30:	65373031 	ldrvs	r3, [r7, #-49]!	; 0xffffffcf
     e34:	62696c2f 	rsbvs	r6, r9, #12032	; 0x2f00
     e38:	6363672f 	cmnvs	r3, #12320768	; 0xbc0000
     e3c:	6d72612f 	ldfvse	f6, [r2, #-188]!	; 0xffffff44
     e40:	6e6f6e2d 	cdpvs	14, 6, cr6, cr15, cr13, {1}
     e44:	61652d65 	cmnvs	r5, r5, ror #26
     e48:	392f6962 	stmdbcc	pc!, {r1, r5, r6, r8, fp, sp, lr}	; <UNPREDICTABLE>
     e4c:	312e322e 			; <UNDEFINED> instruction: 0x312e322e
     e50:	636e692f 	cmnvs	lr, #770048	; 0xbc000
     e54:	6564756c 	strbvs	r7, [r4, #-1388]!	; 0xfffffa94
     e58:	656d0000 	strbvs	r0, [sp, #-0]!
     e5c:	7465736d 	strbtvc	r7, [r5], #-877	; 0xfffffc93
     e60:	0100632e 	tsteq	r0, lr, lsr #6
     e64:	70720000 	rsbsvc	r0, r2, r0
     e68:	00682e69 	rsbeq	r2, r8, r9, ror #28
     e6c:	73000002 	movwvc	r0, #2
     e70:	65646474 	strbvs	r6, [r4, #-1140]!	; 0xfffffb8c
     e74:	00682e66 	rsbeq	r2, r8, r6, ror #28
     e78:	00000003 	andeq	r0, r0, r3
     e7c:	05002905 	streq	r2, [r0, #-2309]	; 0xfffff6fb
     e80:	008c2c02 	addeq	r2, ip, r2, lsl #24
     e84:	05051500 	streq	r1, [r5, #-1280]	; 0xfffffb00
     e88:	06290513 			; <UNDEFINED> instruction: 0x06290513
     e8c:	2f140511 	svccs	0x00140511
     e90:	30060505 	andcc	r0, r6, r5, lsl #10
     e94:	06010a05 	streq	r0, [r1], -r5, lsl #20
     e98:	0609059e 			; <UNDEFINED> instruction: 0x0609059e
     e9c:	060e05d7 			; <UNDEFINED> instruction: 0x060e05d7
     ea0:	060a0501 	streq	r0, [sl], -r1, lsl #10
     ea4:	bb09052d 	bllt	242360 <__bss_end__+0x237390>
     ea8:	01060e05 	tsteq	r6, r5, lsl #28
     eac:	060a052e 	streq	r0, [sl], -lr, lsr #10
     eb0:	4b09052d 	blmi	24236c <__bss_end__+0x23739c>
     eb4:	01060b05 	tsteq	r6, r5, lsl #22
     eb8:	052d0a05 	streq	r0, [sp, #-2565]!	; 0xfffff5fb
     ebc:	0a052f0e 	beq	14cafc <__bss_end__+0x141b2c>
     ec0:	0e052d06 	cdpeq	13, 0, cr2, cr5, cr6, {0}
     ec4:	09051306 	stmdbeq	r5, {r1, r2, r8, r9, ip}
     ec8:	0a052e06 	beq	14c6e8 <__bss_end__+0x141718>
     ecc:	14050511 	strne	r0, [r5], #-1297	; 0xfffffaef
     ed0:	13060105 	movwne	r0, #24837	; 0x6105
     ed4:	01000202 	tsteq	r0, r2, lsl #4
     ed8:	00012001 	andeq	r2, r1, r1
     edc:	db000300 	blle	1ae4 <__code_start__-0x651c>
     ee0:	02000000 	andeq	r0, r0, #0, 0
     ee4:	0d0efb01 	vstreq	d15, [lr, #-4]
     ee8:	01010100 	mrseq	r0, (UNDEF: 17)
     eec:	00000001 	andeq	r0, r0, r1
     ef0:	01000001 	tsteq	r0, r1
     ef4:	696c2f2e 	stmdbvs	ip!, {r1, r2, r3, r5, r8, r9, sl, fp, sp}^
     ef8:	2f006362 	svccs	0x00006362
     efc:	2f74706f 	svccs	0x0074706f
     f00:	656d6f68 	strbvs	r6, [sp, #-3944]!	; 0xfffff098
     f04:	77657262 	strbvc	r7, [r5, -r2, ror #4]!
     f08:	6c65432f 	stclvs	3, cr4, [r5], #-188	; 0xffffff44
     f0c:	2f72616c 	svccs	0x0072616c
     f10:	2d6d7261 	sfmcs	f7, 2, [sp, #-388]!	; 0xfffffe7c
     f14:	656e6f6e 	strbvs	r6, [lr, #-3950]!	; 0xfffff092
     f18:	6261652d 	rsbvs	r6, r1, #188743680	; 0xb400000
     f1c:	2f392d69 	svccs	0x00392d69
     f20:	30322d39 	eorscc	r2, r2, r9, lsr sp
     f24:	34713931 	ldrbtcc	r3, [r1], #-2353	; 0xfffff6cf
     f28:	3173632d 	cmncc	r3, sp, lsr #6
     f2c:	2f653730 	svccs	0x00653730
     f30:	2f62696c 	svccs	0x0062696c
     f34:	2f636367 	svccs	0x00636367
     f38:	2d6d7261 	sfmcs	f7, 2, [sp, #-388]!	; 0xfffffe7c
     f3c:	656e6f6e 	strbvs	r6, [lr, #-3950]!	; 0xfffff092
     f40:	6261652d 	rsbvs	r6, r1, #188743680	; 0xb400000
     f44:	2e392f69 	cdpcs	15, 3, cr2, cr9, cr9, {3}
     f48:	2f312e32 	svccs	0x00312e32
     f4c:	6c636e69 	stclvs	14, cr6, [r3], #-420	; 0xfffffe5c
     f50:	00656475 	rsbeq	r6, r5, r5, ror r4
     f54:	6573552f 	ldrbvs	r5, [r3, #-1327]!	; 0xfffffad1
     f58:	6d2f7372 	stcvs	3, cr7, [pc, #-456]!	; d98 <__code_start__-0x7268>
     f5c:	73656c69 	cmnvc	r5, #26880	; 0x6900
     f60:	756f532f 	strbvc	r5, [pc, #-815]!	; c39 <__code_start__-0x73c7>
     f64:	2f656372 	svccs	0x00656372
     f68:	34327363 	ldrtcc	r7, [r2], #-867	; 0xfffffc9d
     f6c:	2f786c30 	svccs	0x00786c30
     f70:	7062696c 	rsbvc	r6, r2, ip, ror #18
     f74:	6e692f69 	cdpvs	15, 6, cr2, cr9, cr9, {3}
     f78:	64756c63 	ldrbtvs	r6, [r5], #-3171	; 0xfffff39d
     f7c:	70000065 	andvc	r0, r0, r5, rrx
     f80:	746e6972 	strbtvc	r6, [lr], #-2418	; 0xfffff68e
     f84:	00632e6b 	rsbeq	r2, r3, fp, ror #28
     f88:	73000001 	movwvc	r0, #1
     f8c:	72616474 	rsbvc	r6, r1, #116, 8	; 0x74000000
     f90:	00682e67 	rsbeq	r2, r8, r7, ror #28
     f94:	72000002 	andvc	r0, r0, #2, 0
     f98:	682e6970 	stmdavs	lr!, {r4, r5, r6, r8, fp, sp, lr}
     f9c:	00000300 	andeq	r0, r0, r0, lsl #6
     fa0:	6975623c 	ldmdbvs	r5!, {r2, r3, r4, r5, r9, sp, lr}^
     fa4:	692d746c 	pushvs	{r2, r3, r5, r6, sl, ip, sp, lr}
     fa8:	00003e6e 	andeq	r3, r0, lr, ror #28
     fac:	61760000 	cmnvs	r6, r0
     fb0:	6972702d 	ldmdbvs	r2!, {r0, r2, r3, r5, ip, sp, lr}^
     fb4:	2e6b746e 	cdpcs	4, 6, cr7, cr11, cr14, {3}
     fb8:	00010068 	andeq	r0, r1, r8, rrx
     fbc:	22050000 	andcs	r0, r5, #0, 0
     fc0:	a4020500 	strge	r0, [r2], #-1280	; 0xfffffb00
     fc4:	1700008c 	strne	r0, [r0, -ip, lsl #1]
     fc8:	13140505 	tstne	r4, #20971520	; 0x1400000
     fcc:	06220514 			; <UNDEFINED> instruction: 0x06220514
     fd0:	5012050d 	andspl	r0, r2, sp, lsl #10
     fd4:	7a032205 	bvc	c97f0 <__bss_end__+0xbe820>
     fd8:	3305052e 	movwcc	r0, #21806	; 0x552e
     fdc:	052f1205 	streq	r1, [pc, #-517]!	; ddf <__code_start__-0x7221>
     fe0:	09056505 	stmdbeq	r5, {r0, r2, r8, sl, sp, lr}
     fe4:	12052f06 	andne	r2, r5, #6, 30
     fe8:	05050106 	streq	r0, [r5, #-262]	; 0xfffffefa
     fec:	06164b06 	ldreq	r4, [r6], -r6, lsl #22
     ff0:	0550064a 	ldrbeq	r0, [r0, #-1610]	; 0xfffff9b6
     ff4:	66130601 	ldrvs	r0, [r3], -r1, lsl #12
     ff8:	01000802 	tsteq	r0, r2, lsl #16
     ffc:	0000a001 	andeq	sl, r0, r1
    1000:	57000300 	strpl	r0, [r0, -r0, lsl #6]
    1004:	02000000 	andeq	r0, r0, #0, 0
    1008:	0d0efb01 	vstreq	d15, [lr, #-4]
    100c:	01010100 	mrseq	r0, (UNDEF: 17)
    1010:	00000001 	andeq	r0, r0, r1
    1014:	01000001 	tsteq	r0, r1
    1018:	696c2f2e 	stmdbvs	ip!, {r1, r2, r3, r5, r8, r9, sl, fp, sp}^
    101c:	2f006362 	svccs	0x00006362
    1020:	72657355 	rsbvc	r7, r5, #1409286145	; 0x54000001
    1024:	696d2f73 	stmdbvs	sp!, {r0, r1, r4, r5, r6, r8, r9, sl, fp, sp}^
    1028:	2f73656c 	svccs	0x0073656c
    102c:	72756f53 	rsbsvc	r6, r5, #332	; 0x14c
    1030:	632f6563 			; <UNDEFINED> instruction: 0x632f6563
    1034:	30343273 	eorscc	r3, r4, r3, ror r2
    1038:	6c2f786c 	stcvs	8, cr7, [pc], #-432	; e90 <__code_start__-0x7170>
    103c:	69706269 	ldmdbvs	r0!, {r0, r3, r5, r6, r9, sp, lr}^
    1040:	636e692f 	cmnvs	lr, #770048	; 0xbc000
    1044:	6564756c 	strbvs	r7, [r4, #-1388]!	; 0xfffffa94
    1048:	75700000 	ldrbvc	r0, [r0, #-0]!
    104c:	632e6b74 			; <UNDEFINED> instruction: 0x632e6b74
    1050:	00000100 	andeq	r0, r0, r0, lsl #2
    1054:	2e697072 	mcrcs	0, 3, r7, cr9, cr2, {3}
    1058:	00020068 	andeq	r0, r2, r8, rrx
    105c:	22050000 	andcs	r0, r5, #0, 0
    1060:	fc020500 	stc2	5, cr0, [r2], {-0}
    1064:	1500008c 	strne	r0, [r0, #-140]	; 0xffffff74
    1068:	05130505 	ldreq	r0, [r3, #-1285]	; 0xfffffafb
    106c:	2e110622 	cfmsub32cs	mvax1, mvfx0, mvfx1, mvfx2
    1070:	2f060b05 	svccs	0x00060b05
    1074:	2e060505 	cfsh32cs	mvfx0, mvfx6, #5
    1078:	02000905 	andeq	r0, r0, #81920	; 0x14000
    107c:	67060204 	strvs	r0, [r6, -r4, lsl #4]
    1080:	02000f05 	andeq	r0, r0, #5, 30
    1084:	05490204 	strbeq	r0, [r9, #-516]	; 0xfffffdfc
    1088:	0402000b 	streq	r0, [r2], #-11
    108c:	05050102 	streq	r0, [r5, #-258]	; 0xfffffefe
    1090:	02040200 	andeq	r0, r4, #0, 4
    1094:	4e062e06 	cdpmi	14, 0, cr2, cr6, cr6, {0}
    1098:	13060105 	movwne	r0, #24837	; 0x6105
    109c:	01000602 	tsteq	r0, r2, lsl #12
    10a0:	0008fa01 	andeq	pc, r8, r1, lsl #20
    10a4:	f1000300 			; <UNDEFINED> instruction: 0xf1000300
    10a8:	02000000 	andeq	r0, r0, #0, 0
    10ac:	0d0efb01 	vstreq	d15, [lr, #-4]
    10b0:	01010100 	mrseq	r0, (UNDEF: 17)
    10b4:	00000001 	andeq	r0, r0, r1
    10b8:	01000001 	tsteq	r0, r1
    10bc:	696c2f2e 	stmdbvs	ip!, {r1, r2, r3, r5, r8, r9, sl, fp, sp}^
    10c0:	2f006362 	svccs	0x00006362
    10c4:	2f74706f 	svccs	0x0074706f
    10c8:	656d6f68 	strbvs	r6, [sp, #-3944]!	; 0xfffff098
    10cc:	77657262 	strbvc	r7, [r5, -r2, ror #4]!
    10d0:	6c65432f 	stclvs	3, cr4, [r5], #-188	; 0xffffff44
    10d4:	2f72616c 	svccs	0x0072616c
    10d8:	2d6d7261 	sfmcs	f7, 2, [sp, #-388]!	; 0xfffffe7c
    10dc:	656e6f6e 	strbvs	r6, [lr, #-3950]!	; 0xfffff092
    10e0:	6261652d 	rsbvs	r6, r1, #188743680	; 0xb400000
    10e4:	2f392d69 	svccs	0x00392d69
    10e8:	30322d39 	eorscc	r2, r2, r9, lsr sp
    10ec:	34713931 	ldrbtcc	r3, [r1], #-2353	; 0xfffff6cf
    10f0:	3173632d 	cmncc	r3, sp, lsr #6
    10f4:	2f653730 	svccs	0x00653730
    10f8:	2f62696c 	svccs	0x0062696c
    10fc:	2f636367 	svccs	0x00636367
    1100:	2d6d7261 	sfmcs	f7, 2, [sp, #-388]!	; 0xfffffe7c
    1104:	656e6f6e 	strbvs	r6, [lr, #-3950]!	; 0xfffff092
    1108:	6261652d 	rsbvs	r6, r1, #188743680	; 0xb400000
    110c:	2e392f69 	cdpcs	15, 3, cr2, cr9, cr9, {3}
    1110:	2f312e32 	svccs	0x00312e32
    1114:	6c636e69 	stclvs	14, cr6, [r3], #-420	; 0xfffffe5c
    1118:	00656475 	rsbeq	r6, r5, r5, ror r4
    111c:	6573552f 	ldrbvs	r5, [r3, #-1327]!	; 0xfffffad1
    1120:	6d2f7372 	stcvs	3, cr7, [pc, #-456]!	; f60 <__code_start__-0x70a0>
    1124:	73656c69 	cmnvc	r5, #26880	; 0x6900
    1128:	756f532f 	strbvc	r5, [pc, #-815]!	; e01 <__code_start__-0x71ff>
    112c:	2f656372 	svccs	0x00656372
    1130:	34327363 	ldrtcc	r7, [r2], #-867	; 0xfffffc9d
    1134:	2f786c30 	svccs	0x00786c30
    1138:	7062696c 	rsbvc	r6, r2, ip, ror #18
    113c:	6e692f69 	cdpvs	15, 6, cr2, cr9, cr9, {3}
    1140:	64756c63 	ldrbtvs	r6, [r5], #-3171	; 0xfffff39d
    1144:	76000065 	strvc	r0, [r0], -r5, rrx
    1148:	72702d61 	rsbsvc	r2, r0, #6208	; 0x1840
    114c:	6b746e69 	blvs	1d1caf8 <__bss_end__+0x1d11b28>
    1150:	0100632e 	tsteq	r0, lr, lsr #6
    1154:	74730000 	ldrbtvc	r0, [r3], #-0
    1158:	746e6964 	strbtvc	r6, [lr], #-2404	; 0xfffff69c
    115c:	6363672d 	cmnvs	r3, #11796480	; 0xb40000
    1160:	0200682e 	andeq	r6, r0, #3014656	; 0x2e0000
    1164:	70720000 	rsbsvc	r0, r2, r0
    1168:	00682e69 	rsbeq	r2, r8, r9, ror #28
    116c:	72000003 	andvc	r0, r0, #3, 0
    1170:	692d6970 	pushvs	{r4, r5, r6, r8, fp, sp, lr}
    1174:	7265746e 	rsbvc	r7, r5, #1845493760	; 0x6e000000
    1178:	2e6c616e 	powcsez	f6, f4, #0.5
    117c:	00030068 	andeq	r0, r3, r8, rrx
    1180:	64747300 	ldrbtvs	r7, [r4], #-768	; 0xfffffd00
    1184:	2e677261 	cdpcs	2, 6, cr7, cr7, cr1, {3}
    1188:	00020068 	andeq	r0, r2, r8, rrx
    118c:	75623c00 	strbvc	r3, [r2, #-3072]!	; 0xfffff400
    1190:	2d746c69 	ldclcs	12, cr6, [r4, #-420]!	; 0xfffffe5c
    1194:	003e6e69 	eorseq	r6, lr, r9, ror #28
    1198:	00000000 	andeq	r0, r0, r0
    119c:	05000105 	streq	r0, [r0, #-261]	; 0xfffffefb
    11a0:	008d3402 	addeq	r3, sp, r2, lsl #8
    11a4:	00c80300 	sbceq	r0, r8, r0, lsl #6
    11a8:	14020501 	strne	r0, [r2], #-1281	; 0xfffffaff
    11ac:	10060105 	andne	r0, r6, r5, lsl #2
    11b0:	05300405 	ldreq	r0, [r0, #-1029]!	; 0xfffffbfb
    11b4:	054a2c01 	strbeq	r2, [sl, #-3073]	; 0xfffff3ff
    11b8:	02053004 	andeq	r3, r5, #4, 0
    11bc:	05133106 	ldreq	r3, [r3, #-262]	; 0xfffffefa
    11c0:	052e060b 	streq	r0, [lr, #-1547]!	; 0xfffff9f5
    11c4:	05300602 	ldreq	r0, [r0, #-1538]!	; 0xfffff9fe
    11c8:	24020609 	strcs	r0, [r2], #-1545	; 0xfffff9f7
    11cc:	052e2e0d 	streq	r2, [lr, #-3597]!	; 0xfffff1f3
    11d0:	1703060d 	strne	r0, [r3, -sp, lsl #12]
    11d4:	1311054a 	tstne	r1, #310378496	; 0x12800000
    11d8:	01062d05 	tsteq	r6, r5, lsl #26
    11dc:	052e1605 	streq	r1, [lr, #-1541]!	; 0xfffff9fb
    11e0:	16052f0d 	strne	r2, [r5], -sp, lsl #30
    11e4:	0614052d 	ldreq	r0, [r4], -sp, lsr #10
    11e8:	0617052f 	ldreq	r0, [r7], -pc, lsr #10
    11ec:	2e0d0501 	cfsh32cs	mvfx0, mvfx13, #1
    11f0:	12052f06 	andne	r2, r5, #6, 30
    11f4:	2f2e0106 	svccs	0x002e0106
    11f8:	060d052d 	streq	r0, [sp], -sp, lsr #10
    11fc:	0612052f 	ldreq	r0, [r2], -pc, lsr #10
    1200:	06190501 	ldreq	r0, [r9], -r1, lsl #10
    1204:	0304052f 	movweq	r0, #17711	; 0x452f
    1208:	05010111 	streq	r0, [r1, #-273]	; 0xfffffeef
    120c:	0e051502 	cfsh32eq	mvfx1, mvfx5, #2
    1210:	017fb203 	cmneq	pc, r3, lsl #4
    1214:	05130205 	ldreq	r0, [r3, #-517]	; 0xfffffdfb
    1218:	05010606 	streq	r0, [r1, #-1542]	; 0xfffff9fa
    121c:	05300602 	ldreq	r0, [r0, #-1538]!	; 0xfffff9fe
    1220:	02050108 	andeq	r0, r5, #2
    1224:	054a0106 	strbeq	r0, [sl, #-262]	; 0xfffffefa
    1228:	05910808 	ldreq	r0, [r1, #2056]	; 0x808
    122c:	054a0603 	strbeq	r0, [sl, #-1539]	; 0xfffff9fd
    1230:	05010608 	streq	r0, [r1, #-1544]	; 0xfffff9f8
    1234:	052d0615 	streq	r0, [sp, #-1557]!	; 0xfffff9eb
    1238:	03050108 	movweq	r0, #20744	; 0x5108
    123c:	060805d7 			; <UNDEFINED> instruction: 0x060805d7
    1240:	2d180501 	cfldr32cs	mvfx0, [r8, #-4]
    1244:	052e0205 	streq	r0, [lr, #-517]!	; 0xfffffdfb
    1248:	15052f08 	strne	r2, [r5, #-3848]	; 0xfffff0f8
    124c:	08052d06 	stmdaeq	r5, {r1, r2, r8, sl, fp, sp}
    1250:	06020501 	streq	r0, [r2], -r1, lsl #10
    1254:	06030501 	streq	r0, [r3], -r1, lsl #10
    1258:	0618052f 	ldreq	r0, [r8], -pc, lsr #10
    125c:	2e020511 	mcrcs	5, 0, r0, cr2, cr1, {0}
    1260:	052f0805 	streq	r0, [pc, #-2053]!	; a63 <__code_start__-0x759d>
    1264:	052d0615 	streq	r0, [sp, #-1557]!	; 0xfffff9eb
    1268:	03050108 	movweq	r0, #20744	; 0x5108
    126c:	06080513 			; <UNDEFINED> instruction: 0x06080513
    1270:	06150501 	ldreq	r0, [r5], -r1, lsl #10
    1274:	0108052d 	tsteq	r8, sp, lsr #10
    1278:	02050106 	andeq	r0, r5, #-2147483647	; 0x80000001
    127c:	0505a006 	streq	sl, [r5, #-6]
    1280:	04050106 	streq	r0, [r5], #-262	; 0xfffffefa
    1284:	2f110536 	svccs	0x00110536
    1288:	052e0905 	streq	r0, [lr, #-2309]!	; 0xfffff6fb
    128c:	05053302 	streq	r3, [r5, #-770]	; 0xfffffcfe
    1290:	052e7203 	streq	r7, [lr, #-515]!	; 0xfffffdfd
    1294:	062f0602 	strteq	r0, [pc], -r2, lsl #12
    1298:	060e0501 	streq	r0, [lr], -r1, lsl #10
    129c:	14020516 	strne	r0, [r2], #-1302	; 0xfffffaea
    12a0:	13030513 	movwne	r0, #13587	; 0x3513
    12a4:	15140205 	ldrne	r0, [r4, #-517]	; 0xfffffdfb
    12a8:	05010b05 	streq	r0, [r1, #-2821]	; 0xfffff4fb
    12ac:	2e010602 	cfmadd32cs	mvax0, mvfx0, mvfx1, mvfx2
    12b0:	67060305 	strvs	r0, [r6, -r5, lsl #6]
    12b4:	01060a05 	tsteq	r6, r5, lsl #20
    12b8:	052d0205 	streq	r0, [sp, #-517]!	; 0xfffffdfb
    12bc:	17052f0a 	strne	r2, [r5, -sl, lsl #30]
    12c0:	0b052d06 	bleq	14c6e0 <__bss_end__+0x141710>
    12c4:	06020501 	streq	r0, [r2], -r1, lsl #10
    12c8:	4c090501 	cfstr32mi	mvfx0, [r9], {1}
    12cc:	0602052e 	streq	r0, [r2], -lr, lsr #10
    12d0:	0609052e 	streq	r0, [r9], -lr, lsr #10
    12d4:	06020501 	streq	r0, [r2], -r1, lsl #10
    12d8:	05010630 	streq	r0, [r1, #-1584]	; 0xfffff9d0
    12dc:	01380301 	teqeq	r8, r1, lsl #6
    12e0:	4f030905 	svcmi	0x00030905
    12e4:	052e2e4a 	streq	r2, [lr, #-3658]!	; 0xfffff1b6
    12e8:	27030619 	smladcs	r3, r9, r6, r0
    12ec:	131a054a 	tstne	sl, #310378496	; 0x12800000
    12f0:	01062805 	tsteq	r6, r5, lsl #16
    12f4:	052e1f05 	streq	r1, [lr, #-3845]!	; 0xfffff0fb
    12f8:	1f052f04 	svcne	0x00052f04
    12fc:	060b052d 	streq	r0, [fp], -sp, lsr #10
    1300:	060e052f 	streq	r0, [lr], -pc, lsr #10
    1304:	2e040501 	cfsh32cs	mvfx0, mvfx4, #1
    1308:	03060205 	movweq	r0, #25093	; 0x6205
    130c:	05134a59 	ldreq	r4, [r3, #-2649]	; 0xfffff5a7
    1310:	052e060b 	streq	r0, [lr, #-1547]!	; 0xfffff9f5
    1314:	05300602 	ldreq	r0, [r0, #-1538]!	; 0xfffff9fe
    1318:	24020609 	strcs	r0, [r2], #-1545	; 0xfffff9f7
    131c:	0604050d 	streq	r0, [r4], -sp, lsl #10
    1320:	06051336 			; <UNDEFINED> instruction: 0x06051336
    1324:	05050106 	streq	r0, [r5, #-262]	; 0xfffffefa
    1328:	13136706 	tstne	r3, #1572864	; 0x180000
    132c:	11060905 	tstne	r6, r5, lsl #18
    1330:	052b0d05 	streq	r0, [fp, #-3333]!	; 0xfffff2fb
    1334:	0d05300b 	stceq	0, cr3, [r5, #-44]	; 0xffffffd4
    1338:	351b052c 	ldrcc	r0, [fp, #-1324]	; 0xfffffad4
    133c:	2d060405 	cfstrscs	mvf0, [r6, #-20]	; 0xffffffec
    1340:	05130505 	ldreq	r0, [r3, #-1285]	; 0xfffffafb
    1344:	052e061b 	streq	r0, [lr, #-1563]!	; 0xfffff9e5
    1348:	0405820a 	streq	r8, [r5], #-522	; 0xfffffdf6
    134c:	2e0e052f 	cfsh32cs	mvfx0, mvfx14, #31
    1350:	05490a05 	strbeq	r0, [r9, #-2565]	; 0xfffff5fb
    1354:	052f060b 	streq	r0, [pc, #-1547]!	; d51 <__code_start__-0x72af>
    1358:	06010604 	streq	r0, [r1], -r4, lsl #12
    135c:	0606052f 	streq	r0, [r6], -pc, lsr #10
    1360:	06050501 	streq	r0, [r5], -r1, lsl #10
    1364:	060a052f 	streq	r0, [sl], -pc, lsr #10
    1368:	07052e01 	streq	r2, [r5, -r1, lsl #28]
    136c:	052e2e2e 	streq	r2, [lr, #-3630]!	; 0xfffff1d2
    1370:	0d030604 	stceq	6, cr0, [r3, #-16]
    1374:	06020501 	streq	r0, [r2], -r1, lsl #10
    1378:	05014603 	streq	r4, [r1, #-1539]	; 0xfffff9fd
    137c:	2e3a0309 	cdpcs	3, 3, cr0, cr10, cr9, {0}
    1380:	2f060405 	svccs	0x00060405
    1384:	01010d03 	tsteq	r1, r3, lsl #26
    1388:	05150205 	ldreq	r0, [r5, #-517]	; 0xfffffdfb
    138c:	7fb2030e 	svcvc	0x00b2030e
    1390:	13020501 	movwne	r0, #9473	; 0x2501
    1394:	01080514 	tsteq	r8, r4, lsl r5
    1398:	10060605 	andne	r0, r6, r5, lsl #12
    139c:	052e3c03 	streq	r3, [lr, #-3075]!	; 0xfffff3fd
    13a0:	4a460302 	bmi	1181fb0 <__bss_end__+0x1176fe0>
    13a4:	05053006 	streq	r3, [r5, #-6]
    13a8:	2e2e0106 	sufcse	f0, f6, f6
    13ac:	4b060205 	blmi	181bc8 <__bss_end__+0x176bf8>
    13b0:	0e050106 	adfeqs	f0, f5, f6
    13b4:	02051606 	andeq	r1, r5, #6291456	; 0x600000
    13b8:	15151314 	ldrne	r1, [r5, #-788]	; 0xfffffcec
    13bc:	05010b05 	streq	r0, [r1, #-2821]	; 0xfffff4fb
    13c0:	062e0602 	strteq	r0, [lr], -r2, lsl #12
    13c4:	06090530 			; <UNDEFINED> instruction: 0x06090530
    13c8:	06020501 	streq	r0, [r2], -r1, lsl #10
    13cc:	0501064c 	streq	r0, [r1, #-1612]	; 0xfffff9b4
    13d0:	01380301 	teqeq	r8, r1, lsl #6
    13d4:	6e030605 	cfmadd32vs	mvax0, mvfx0, mvfx3, mvfx5
    13d8:	0302054a 	movweq	r0, #9546	; 0x254a
    13dc:	2e4a6646 	cdpcs	6, 4, cr6, cr10, cr6, {2}
    13e0:	03060405 	movweq	r0, #25605	; 0x6405
    13e4:	010100c8 	smlabteq	r1, r8, r0, r0
    13e8:	2e060101 	adfcss	f0, f6, f1
    13ec:	034a0682 	movteq	r0, #42626	; 0xa682
    13f0:	09052e72 	stmdbeq	r5, {r1, r4, r5, r6, r9, sl, fp, sp}
    13f4:	04050106 	streq	r0, [r5], #-262	; 0xfffffefa
    13f8:	0d032f06 	stceq	15, cr2, [r3, #-24]	; 0xffffffe8
    13fc:	02050101 	andeq	r0, r5, #1073741824	; 0x40000000
    1400:	030e0515 	movweq	r0, #58645	; 0xe515
    1404:	05017fb2 	streq	r7, [r1, #-4018]	; 0xfffff04e
    1408:	05141302 	ldreq	r1, [r4, #-770]	; 0xfffffcfe
    140c:	09050108 	stmdbeq	r5, {r3, r8}
    1410:	011b0306 	tsteq	fp, r6, lsl #6
    1414:	63030605 	movwvs	r0, #13829	; 0x3605
    1418:	2e3c032e 	cdpcs	3, 3, cr0, cr12, cr14, {1}
    141c:	48052e2e 	stmdami	r5, {r1, r2, r3, r5, r9, sl, fp, sp}
    1420:	7fb40306 	svcvc	0x00b40306
    1424:	05053c08 	streq	r3, [r5, #-3080]	; 0xfffff3f8
    1428:	2e060113 	mcrcs	1, 0, r0, cr6, cr3, {0}
    142c:	02040200 	andeq	r0, r4, #0, 4
    1430:	02002e06 	andeq	r2, r0, #96	; 0x60
    1434:	00010204 	andeq	r0, r1, r4, lsl #4
    1438:	13020402 	movwne	r0, #9218	; 0x2402
    143c:	02001105 	andeq	r1, r0, #1073741825	; 0x40000001
    1440:	01060204 	tsteq	r6, r4, lsl #4
    1444:	02000705 	andeq	r0, r0, #1310720	; 0x140000
    1448:	052f0204 	streq	r0, [pc, #-516]!	; 124c <__code_start__-0x6db4>
    144c:	04020011 	streq	r0, [r2], #-17	; 0xffffffef
    1450:	05052d02 	streq	r2, [r5, #-3330]	; 0xfffff2fe
    1454:	02040200 	andeq	r0, r4, #0, 4
    1458:	09052f06 	stmdbeq	r5, {r1, r2, r8, r9, sl, fp, sp}
    145c:	02040200 	andeq	r0, r4, #0, 4
    1460:	000e0513 	andeq	r0, lr, r3, lsl r5
    1464:	06020402 	streq	r0, [r2], -r2, lsl #8
    1468:	00050501 	andeq	r0, r5, r1, lsl #10
    146c:	06010402 	streq	r0, [r1], -r2, lsl #8
    1470:	04020063 	streq	r0, [r2], #-99	; 0xffffff9d
    1474:	48050101 	stmdami	r5, {r0, r8}
    1478:	01040200 	mrseq	r0, R12_usr
    147c:	05051106 	streq	r1, [r5, #-262]	; 0xfffffefa
    1480:	01040200 	mrseq	r0, R12_usr
    1484:	0048052f 	subeq	r0, r8, pc, lsr #10
    1488:	2d010402 	cfstrscs	mvf0, [r1, #-8]
    148c:	02000505 	andeq	r0, r0, #20971520	; 0x1400000
    1490:	002f0104 	eoreq	r0, pc, r4, lsl #2
    1494:	4a010402 	bmi	424a4 <__bss_end__+0x374d4>
    1498:	01040200 	mrseq	r0, R12_usr
    149c:	0402004a 	streq	r0, [r2], #-74	; 0xffffffb6
    14a0:	054a0601 	strbeq	r0, [sl, #-1537]	; 0xfffff9ff
    14a4:	00e10340 	rsceq	r0, r1, r0, asr #6
    14a8:	050106d6 	streq	r0, [r1, #-1750]	; 0xfffff92a
    14ac:	052e4e09 	streq	r4, [lr, #-3593]!	; 0xfffff1f7
    14b0:	1e053008 	cdpne	0, 0, cr3, cr5, cr8, {0}
    14b4:	2e120529 	cfmul64cs	mvdx0, mvdx2, mvdx9
    14b8:	05330d05 	ldreq	r0, [r3, #-3333]!	; 0xfffff2fb
    14bc:	05450602 	strbeq	r0, [r5, #-1538]	; 0xfffff9fe
    14c0:	02051305 	andeq	r1, r5, #335544320	; 0x14000000
    14c4:	13050514 	movwne	r0, #21780	; 0x5514
    14c8:	05130205 	ldreq	r0, [r3, #-517]	; 0xfffffdfb
    14cc:	40050108 	andmi	r0, r5, r8, lsl #2
    14d0:	017a0306 	cmneq	sl, r6, lsl #6
    14d4:	340d052e 	strcc	r0, [sp], #-1326	; 0xfffffad2
    14d8:	03110566 	tsteq	r1, #427819008	; 0x19800000
    14dc:	054a4a20 	strbeq	r4, [sl, #-2592]	; 0xfffff5e0
    14e0:	62030604 	andvs	r0, r3, #4, 12	; 0x400000
    14e4:	06090501 	streq	r0, [r9], -r1, lsl #10
    14e8:	2e0f0501 	cfsh32cs	mvfx0, mvfx15, #1
    14ec:	2c060805 	stccs	8, cr0, [r6], {5}
    14f0:	2e060d05 	cdpcs	13, 0, cr0, cr6, cr5, {0}
    14f4:	67060305 	strvs	r0, [r6, -r5, lsl #6]
    14f8:	01060505 	tsteq	r6, r5, lsl #10
    14fc:	4d060805 	stcmi	8, cr0, [r6, #-20]	; 0xffffffec
    1500:	01060e05 	tsteq	r6, r5, lsl #28
    1504:	052e0a05 	streq	r0, [lr, #-2565]!	; 0xfffff5fb
    1508:	04052f09 	streq	r2, [r5], #-3849	; 0xfffff0f7
    150c:	07052f06 	streq	r2, [r5, -r6, lsl #30]
    1510:	0a050106 	beq	141930 <__bss_end__+0x136960>
    1514:	0604052c 	streq	r0, [r4], -ip, lsr #10
    1518:	062d0532 			; <UNDEFINED> instruction: 0x062d0532
    151c:	017f9803 	cmneq	pc, r3, lsl #16
    1520:	ed030905 	vstr.16	s0, [r3, #-10]
    1524:	0d052e00 	stceq	14, cr2, [r5, #-0]
    1528:	2b07052c 	blcs	1c29e0 <__bss_end__+0x1b7a10>
    152c:	30060405 	andcc	r0, r6, r5, lsl #8
    1530:	09051413 	stmdbeq	r5, {r0, r1, r4, sl, ip}
    1534:	030c0501 	movweq	r0, #50433	; 0xc501
    1538:	05017f93 	streq	r7, [r1, #-3987]	; 0xfffff06d
    153c:	0106011d 	tsteq	r6, sp, lsl r1
    1540:	ed030905 	vstr.16	s0, [r3, #-10]
    1544:	05050100 	streq	r0, [r5, #-256]	; 0xffffff00
    1548:	12052f06 	andne	r2, r5, #6, 30
    154c:	2d2e0106 	stfcss	f0, [lr, #-24]!	; 0xffffffe8
    1550:	052f0b05 	streq	r0, [pc, #-2821]!	; a53 <__code_start__-0x75ad>
    1554:	052f0605 	streq	r0, [pc, #-1541]!	; f57 <__code_start__-0x70a9>
    1558:	0c051009 	stceq	0, cr1, [r5], {9}
    155c:	017f9303 	cmneq	pc, r3, lsl #6
    1560:	05011d05 	streq	r1, [r1, #-3333]	; 0xfffff2fb
    1564:	0501062d 	streq	r0, [r1, #-1581]	; 0xfffff9d3
    1568:	00ed0309 	rsceq	r0, sp, r9, lsl #6
    156c:	0604052e 	streq	r0, [r4], -lr, lsr #10
    1570:	0200014e 	andeq	r0, r0, #-2147483629	; 0x80000013
    1574:	004a0204 	subeq	r0, sl, r4, lsl #4
    1578:	01020402 	tsteq	r2, r2, lsl #8
    157c:	02040200 	andeq	r0, r4, #0, 4
    1580:	04020015 	streq	r0, [r2], #-21	; 0xffffffeb
    1584:	36020602 	strcc	r0, [r2], -r2, lsl #12
    1588:	04020012 	streq	r0, [r2], #-18	; 0xffffffee
    158c:	02052e02 	andeq	r2, r5, #2, 28
    1590:	00d10306 	sbcseq	r0, r1, r6, lsl #6
    1594:	06070501 	streq	r0, [r7], -r1, lsl #10
    1598:	02052e01 	andeq	r2, r5, #1, 28
    159c:	0b052f06 	bleq	14d1bc <__bss_end__+0x1421ec>
    15a0:	01050106 	tsteq	r5, r6, lsl #2
    15a4:	0605052f 	streq	r0, [r5], -pc, lsr #10
    15a8:	054a6503 	strbeq	r6, [sl, #-1283]	; 0xfffffafd
    15ac:	66010609 	strvs	r0, [r1], -r9, lsl #12
    15b0:	9f060505 	svcls	0x00060505
    15b4:	11030405 	tstne	r3, r5, lsl #8
    15b8:	06070501 	streq	r0, [r7], -r1, lsl #10
    15bc:	06040501 	streq	r0, [r4], -r1, lsl #10
    15c0:	010a0531 	tsteq	sl, r1, lsr r5
    15c4:	02001305 	andeq	r1, r0, #335544320	; 0x14000000
    15c8:	2e060104 	adfcss	f0, f6, f4
    15cc:	02001005 	andeq	r1, r0, #5, 0
    15d0:	052e0104 	streq	r0, [lr, #-260]!	; 0xfffffefc
    15d4:	054b0605 	strbeq	r0, [fp, #-1541]	; 0xfffff9fb
    15d8:	0601060a 	streq	r0, [r1], -sl, lsl #12
    15dc:	0604052d 	streq	r0, [r4], -sp, lsr #10
    15e0:	06110501 	ldreq	r0, [r1], -r1, lsl #10
    15e4:	667fb603 	ldrbtvs	fp, [pc], -r3, lsl #12
    15e8:	02000113 	andeq	r0, r0, #-1073741820	; 0xc0000004
    15ec:	ba060204 	blt	181e04 <__bss_end__+0x176e34>
    15f0:	1401ba06 	strne	fp, [r1], #-2566	; 0xfffff5fa
    15f4:	13061a05 	movwne	r1, #27141	; 0x6a05
    15f8:	11052e2e 	tstne	r5, lr, lsr #28
    15fc:	1405674e 	strne	r6, [r5], #-1870	; 0xfffff8b2
    1600:	82130568 	andshi	r0, r3, #104, 10	; 0x1a000000
    1604:	78031505 	stmdavc	r3, {r0, r2, r8, sl, ip}
    1608:	0611054a 	ldreq	r0, [r1], -sl, asr #10
    160c:	1413134b 	ldrne	r1, [r3], #-843	; 0xfffffcb5
    1610:	13051413 	movwne	r1, #21523	; 0x5413
    1614:	09050106 	stmdbeq	r5, {r1, r2, r8}
    1618:	0d052f06 	stceq	15, cr2, [r5, #-24]	; 0xffffffe8
    161c:	2e2e0106 	sufcse	f0, f6, f6
    1620:	05bb0905 	ldreq	r0, [fp, #2309]!	; 0x905
    1624:	09059d0d 	stmdbeq	r5, {r0, r2, r3, r8, sl, fp, ip, pc}
    1628:	15052f06 	strne	r2, [r5, #-3846]	; 0xfffff0fa
    162c:	7503062f 	strvc	r0, [r3, #-1583]	; 0xfffff9d1
    1630:	2e0b034a 	cdpcs	3, 0, cr0, cr11, cr10, {2}
    1634:	0605054a 	streq	r0, [r5], -sl, asr #10
    1638:	05012303 	streq	r2, [r1, #-771]	; 0xfffffcfd
    163c:	2e010609 	cfmadd32cs	mvax0, mvfx0, mvfx1, mvfx9
    1640:	d7060505 	strle	r0, [r6, -r5, lsl #10]
    1644:	032e6e03 			; <UNDEFINED> instruction: 0x032e6e03
    1648:	0905010e 	stmdbeq	r5, {r1, r2, r3, r8}
    164c:	05050106 	streq	r0, [r5, #-262]	; 0xfffffefa
    1650:	4a100306 	bmi	402270 <__bss_end__+0x3f72a0>
    1654:	ed030105 	stfs	f0, [r3, #-20]	; 0xffffffec
    1658:	0205017e 	andeq	r0, r5, #-2147483617	; 0x8000001f
    165c:	14131514 	ldrne	r1, [r3], #-1300	; 0xfffffaec
    1660:	1a030405 	bne	c267c <__bss_end__+0xb76ac>
    1664:	06090501 	streq	r0, [r9], -r1, lsl #10
    1668:	03020501 	movweq	r0, #9473	; 0x2501
    166c:	09052e46 	stmdbeq	r5, {r1, r2, r6, r9, sl, fp, sp}
    1670:	052e3a03 	streq	r3, [lr, #-2563]!	; 0xfffff5fd
    1674:	032f0604 			; <UNDEFINED> instruction: 0x032f0604
    1678:	0501010d 	streq	r0, [r1, #-269]	; 0xfffffef3
    167c:	0e051502 	cfsh32eq	mvfx1, mvfx5, #2
    1680:	017fb203 	cmneq	pc, r3, lsl #4
    1684:	14130205 	ldrne	r0, [r3], #-517	; 0xfffffdfb
    1688:	05010805 	streq	r0, [r1, #-2053]	; 0xfffff7fb
    168c:	05010602 	streq	r0, [r1, #-1538]	; 0xfffff9fe
    1690:	03059f08 	movweq	r9, #24328	; 0x5f08
    1694:	01064a06 	tsteq	r6, r6, lsl #20
    1698:	052e0805 	streq	r0, [lr, #-2053]!	; 0xfffff7fb
    169c:	052d0615 	streq	r0, [sp, #-1557]!	; 0xfffff9eb
    16a0:	03050108 	movweq	r0, #20744	; 0x5108
    16a4:	0501062f 	streq	r0, [r1, #-1583]	; 0xfffff9d1
    16a8:	15052e08 	strne	r2, [r5, #-3592]	; 0xfffff1f8
    16ac:	08052d06 	stmdaeq	r5, {r1, r2, r8, sl, fp, sp}
    16b0:	2f030501 	svccs	0x00030501
    16b4:	08050106 	stmdaeq	r5, {r1, r2, r8}
    16b8:	0615052e 	ldreq	r0, [r5], -lr, lsr #10
    16bc:	0108052d 	tsteq	r8, sp, lsr #10
    16c0:	062f0305 	strteq	r0, [pc], -r5, lsl #6
    16c4:	2e080501 	cfsh32cs	mvfx0, mvfx8, #1
    16c8:	2d061505 	cfstr32cs	mvfx1, [r6, #-20]	; 0xffffffec
    16cc:	05010805 	streq	r0, [r1, #-2053]	; 0xfffff7fb
    16d0:	01062f03 	tsteq	r6, r3, lsl #30
    16d4:	052e0805 	streq	r0, [lr, #-2053]!	; 0xfffff7fb
    16d8:	052d0615 	streq	r0, [sp, #-1557]!	; 0xfffff9eb
    16dc:	03050108 	movweq	r0, #20744	; 0x5108
    16e0:	0501062f 	streq	r0, [r1, #-1583]	; 0xfffff9d1
    16e4:	15052e08 	strne	r2, [r5, #-3592]	; 0xfffff1f8
    16e8:	08052d06 	stmdaeq	r5, {r1, r2, r8, sl, fp, sp}
    16ec:	13030501 	movwne	r0, #13569	; 0x3501
    16f0:	01060805 	tsteq	r6, r5, lsl #16
    16f4:	2d061505 	cfstr32cs	mvfx1, [r6, #-20]	; 0xffffffec
    16f8:	06010805 	streq	r0, [r1], -r5, lsl #16
    16fc:	06030566 	streq	r0, [r3], -r6, ror #10
    1700:	06080567 	streq	r0, [r8], -r7, ror #10
    1704:	2d180501 	cfldr32cs	mvfx0, [r8, #-4]
    1708:	052e0205 	streq	r0, [lr, #-517]!	; 0xfffffdfb
    170c:	15052f08 	strne	r2, [r5, #-3848]	; 0xfffff0f8
    1710:	08052d06 	stmdaeq	r5, {r1, r2, r8, sl, fp, sp}
    1714:	06020501 	streq	r0, [r2], -r1, lsl #10
    1718:	06030501 	streq	r0, [r3], -r1, lsl #10
    171c:	0618052f 	ldreq	r0, [r8], -pc, lsr #10
    1720:	2e020511 	mcrcs	5, 0, r0, cr2, cr1, {0}
    1724:	052f0805 	streq	r0, [pc, #-2053]!	; f27 <__code_start__-0x70d9>
    1728:	052d0615 	streq	r0, [sp, #-1557]!	; 0xfffff9eb
    172c:	03050108 	movweq	r0, #20744	; 0x5108
    1730:	06080513 			; <UNDEFINED> instruction: 0x06080513
    1734:	06150501 	ldreq	r0, [r5], -r1, lsl #10
    1738:	0108052d 	tsteq	r8, sp, lsr #10
    173c:	14060505 	strne	r0, [r6], #-1285	; 0xfffffafb
    1740:	0602054a 	streq	r0, [r2], -sl, asr #10
    1744:	060e052e 	streq	r0, [lr], -lr, lsr #10
    1748:	2f040519 	svccs	0x00040519
    174c:	052f1105 	streq	r1, [pc, #-261]!	; 164f <__code_start__-0x69b1>
    1750:	02054a09 	andeq	r4, r5, #36864	; 0x9000
    1754:	03050533 	movweq	r0, #21811	; 0x5533
    1758:	02052e72 	andeq	r2, r5, #1824	; 0x720
    175c:	01062f06 	tsteq	r6, r6, lsl #30
    1760:	16060e05 	strne	r0, [r6], -r5, lsl #28
    1764:	13140205 	tstne	r4, #1342177280	; 0x50000000
    1768:	05130305 	ldreq	r0, [r3, #-773]	; 0xfffffcfb
    176c:	05151402 	ldreq	r1, [r5, #-1026]	; 0xfffffbfe
    1770:	0205010b 	andeq	r0, r5, #-1073741822	; 0xc0000002
    1774:	662e0106 	strtvs	r0, [lr], -r6, lsl #2
    1778:	2f060305 	svccs	0x00060305
    177c:	01060a05 	tsteq	r6, r5, lsl #20
    1780:	052d0205 	streq	r0, [sp, #-517]!	; 0xfffffdfb
    1784:	17052f0a 	strne	r2, [r5, -sl, lsl #30]
    1788:	0b052d06 	bleq	14cba8 <__bss_end__+0x141bd8>
    178c:	06020501 	streq	r0, [r2], -r1, lsl #10
    1790:	054a4a01 	strbeq	r4, [sl, #-2561]	; 0xfffff5ff
    1794:	95030605 	strls	r0, [r3, #-1541]	; 0xfffff9fb
    1798:	11050101 	tstne	r5, r1, lsl #2
    179c:	7ef80306 	cdpvc	3, 15, cr0, cr8, cr6, {0}
    17a0:	031b0501 	tsteq	fp, #4194304	; 0x400000
    17a4:	054a0188 	strbeq	r0, [sl, #-392]	; 0xfffffe78
    17a8:	f3030601 	vmax.u8	d0, d3, d1
    17ac:	02052e7e 	andeq	r2, r5, #2016	; 0x7e0
    17b0:	14131514 	ldrne	r1, [r3], #-1300	; 0xfffffaec
    17b4:	22031905 	andcs	r1, r3, #81920	; 0x14000
    17b8:	131a0501 	tstne	sl, #4194304	; 0x400000
    17bc:	01062805 	tsteq	r6, r5, lsl #16
    17c0:	052e1f05 	streq	r1, [lr, #-3845]!	; 0xfffff0fb
    17c4:	0e052f04 	cdpeq	15, 0, cr2, cr5, cr4, {0}
    17c8:	2d1f054a 	cfldr32cs	mvfx0, [pc, #-296]	; 16a8 <__code_start__-0x6958>
    17cc:	2f060b05 	svccs	0x00060b05
    17d0:	01060405 	tsteq	r6, r5, lsl #8
    17d4:	05013206 	streq	r3, [r1, #-518]	; 0xfffffdfa
    17d8:	0e051502 	cfsh32eq	mvfx1, mvfx5, #2
    17dc:	017fb203 	cmneq	pc, r3, lsl #4
    17e0:	05130205 	ldreq	r0, [r3, #-517]	; 0xfffffdfb
    17e4:	05010606 	streq	r0, [r1, #-1542]	; 0xfffff9fa
    17e8:	05300602 	ldreq	r0, [r0, #-1538]!	; 0xfffff9fe
    17ec:	02050108 	andeq	r0, r5, #2
    17f0:	03050106 	movweq	r0, #20742	; 0x5106
    17f4:	05210806 	streq	r0, [r1, #-2054]!	; 0xfffff7fa
    17f8:	05010608 	streq	r0, [r1, #-1544]	; 0xfffff9f8
    17fc:	05490615 	strbeq	r0, [r9, #-1557]	; 0xfffff9eb
    1800:	03050108 	movweq	r0, #20744	; 0x5108
    1804:	060805d7 			; <UNDEFINED> instruction: 0x060805d7
    1808:	2d180501 	cfldr32cs	mvfx0, [r8, #-4]
    180c:	052e0205 	streq	r0, [lr, #-517]!	; 0xfffffdfb
    1810:	15052f08 	strne	r2, [r5, #-3848]	; 0xfffff0f8
    1814:	08052d06 	stmdaeq	r5, {r1, r2, r8, sl, fp, sp}
    1818:	06020501 	streq	r0, [r2], -r1, lsl #10
    181c:	06030501 	streq	r0, [r3], -r1, lsl #10
    1820:	0618052f 	ldreq	r0, [r8], -pc, lsr #10
    1824:	2e020511 	mcrcs	5, 0, r0, cr2, cr1, {0}
    1828:	052f0805 	streq	r0, [pc, #-2053]!	; 102b <__code_start__-0x6fd5>
    182c:	052d0615 	streq	r0, [sp, #-1557]!	; 0xfffff9eb
    1830:	03050108 	movweq	r0, #20744	; 0x5108
    1834:	06080513 			; <UNDEFINED> instruction: 0x06080513
    1838:	06150501 	ldreq	r0, [r5], -r1, lsl #10
    183c:	0108052d 	tsteq	r8, sp, lsr #10
    1840:	14060505 	strne	r0, [r6], #-1285	; 0xfffffafb
    1844:	66060205 	strvs	r0, [r6], -r5, lsl #4
    1848:	1a060405 	bne	182864 <__bss_end__+0x177894>
    184c:	78030505 	stmdavc	r3, {r0, r2, r8, sl}
    1850:	0602054a 	streq	r0, [r2], -sl, asr #10
    1854:	0501062f 	streq	r0, [r1, #-1583]	; 0xfffff9d1
    1858:	0516060e 	ldreq	r0, [r6, #-1550]	; 0xfffff9f2
    185c:	05131402 	ldreq	r1, [r3, #-1026]	; 0xfffffbfe
    1860:	05010604 	streq	r0, [r1, #-1540]	; 0xfffff9fc
    1864:	052f0603 	streq	r0, [pc, #-1539]!	; 1269 <__code_start__-0x6d97>
    1868:	05010611 	streq	r0, [r1, #-1553]	; 0xfffff9ef
    186c:	02052e09 	andeq	r2, r5, #144	; 0x90
    1870:	05153006 	ldreq	r3, [r5, #-6]
    1874:	0205010b 	andeq	r0, r5, #-1073741822	; 0xc0000002
    1878:	4a4a0106 	bmi	1281c98 <__bss_end__+0x1276cc8>
    187c:	0603052e 	streq	r0, [r3], -lr, lsr #10
    1880:	060a052f 	streq	r0, [sl], -pc, lsr #10
    1884:	2d020501 	cfstr32cs	mvfx0, [r2, #-4]
    1888:	052f0a05 	streq	r0, [pc, #-2565]!	; e8b <__code_start__-0x7175>
    188c:	052d0617 	streq	r0, [sp, #-1559]!	; 0xfffff9e9
    1890:	0205010b 	andeq	r0, r5, #-1073741822	; 0xc0000002
    1894:	2e4a0106 	dvfcse	f0, f2, f6
    1898:	09051406 	stmdbeq	r5, {r1, r2, sl, ip}
    189c:	02050106 	andeq	r0, r5, #-2147483647	; 0x80000001
    18a0:	01064c06 	tsteq	r6, r6, lsl #24
    18a4:	03060505 	movweq	r0, #25861	; 0x6505
    18a8:	2a010198 	bcs	41f10 <__bss_end__+0x36f40>
    18ac:	01060705 	tsteq	r6, r5, lsl #14
    18b0:	2f060505 	svccs	0x00060505
    18b4:	53031805 	movwpl	r1, #14341	; 0x3805
    18b8:	061b052e 	ldreq	r0, [fp], -lr, lsr #10
    18bc:	821a0501 	andshi	r0, sl, #4194304	; 0x400000
    18c0:	4b060905 	blmi	183cdc <__bss_end__+0x178d0c>
    18c4:	01060d05 	tsteq	r6, r5, lsl #26
    18c8:	d709052e 	strle	r0, [r9, -lr, lsr #10]
    18cc:	059d0d05 	ldreq	r0, [sp, #3333]	; 0xd05
    18d0:	052f0609 	streq	r0, [pc, #-1545]!	; 12cf <__code_start__-0x6d31>
    18d4:	18053015 	stmdane	r5, {r0, r2, r4, ip, sp}
    18d8:	17050106 	strne	r0, [r5, -r6, lsl #2]
    18dc:	2f190566 	svccs	0x00190566
    18e0:	05491705 	strbeq	r1, [r9, #-1797]	; 0xfffff8fb
    18e4:	052f0619 	streq	r0, [pc, #-1561]!	; 12d3 <__code_start__-0x6d2d>
    18e8:	6f030615 	svcvs	0x00030615
    18ec:	0619052e 	ldreq	r0, [r9], -lr, lsr #10
    18f0:	054a1303 	strbeq	r1, [sl, #-771]	; 0xfffffcfd
    18f4:	6d030615 	stcvs	6, cr0, [r3, #-84]	; 0xffffffac
    18f8:	02054a2e 	andeq	r4, r5, #188416	; 0x2e000
    18fc:	017fa003 	cmneq	pc, r3
    1900:	72030666 	andvc	r0, r3, #106954752	; 0x6600000
    1904:	06050501 	streq	r0, [r5], -r1, lsl #10
    1908:	36040501 	strcc	r0, [r4], -r1, lsl #10
    190c:	78030505 	stmdavc	r3, {r0, r2, r8, sl}
    1910:	0602052e 	streq	r0, [r2], -lr, lsr #10
    1914:	0501062f 	streq	r0, [r1, #-1583]	; 0xfffff9d1
    1918:	0516060e 	ldreq	r0, [r6, #-1550]	; 0xfffff9f2
    191c:	05131402 	ldreq	r1, [r3, #-1026]	; 0xfffffbfe
    1920:	4a010604 	bmi	43138 <__bss_end__+0x38168>
    1924:	03060205 	movweq	r0, #25093	; 0x6205
    1928:	05050178 	streq	r0, [r5, #-376]	; 0xfffffe88
    192c:	054a0106 	strbeq	r0, [sl, #-262]	; 0xfffffefa
    1930:	064b0602 	strbeq	r0, [fp], -r2, lsl #12
    1934:	060e0501 	streq	r0, [lr], -r1, lsl #10
    1938:	14020516 	strne	r0, [r2], #-1302	; 0xfffffaea
    193c:	05151513 	ldreq	r1, [r5, #-1299]	; 0xfffffaed
    1940:	2e06010b 	adfcss	f0, f6, #3.0
    1944:	03061105 	movweq	r1, #24837	; 0x6105
    1948:	0501019e 	streq	r0, [r1, #-414]	; 0xfffffe62
    194c:	05010622 	streq	r0, [r1, #-1570]	; 0xfffff9de
    1950:	22052f05 	andcs	r2, r5, #5, 30
    1954:	0605052d 	streq	r0, [r5], -sp, lsr #10
    1958:	4b11052f 	blmi	442e1c <__bss_end__+0x437e4c>
    195c:	01830505 	orreq	r0, r3, r5, lsl #10
    1960:	2e5c039e 	mrccs	3, 2, r0, cr12, cr14, {4}
    1964:	02059e01 	andeq	r9, r5, #1, 28
    1968:	7ef30306 	cdpvc	3, 15, cr0, cr3, cr6, {0}
    196c:	06052e2e 	streq	r2, [r5], -lr, lsr #28
    1970:	0d054a2c 	vstreq	s8, [r5, #-176]	; 0xffffff50
    1974:	0100d803 	tsteq	r0, r3, lsl #16
    1978:	02000405 	andeq	r0, r0, #83886080	; 0x5000000
    197c:	03060104 	movweq	r0, #24836	; 0x6104
    1980:	02004a11 	andeq	r4, r0, #69632	; 0x11000
    1984:	05010104 	streq	r0, [r1, #-260]	; 0xfffffefc
    1988:	06510611 			; <UNDEFINED> instruction: 0x06510611
    198c:	0315059e 	tsteq	r5, #662700032	; 0x27800000
    1990:	ba012e17 	blt	4d1f4 <__bss_end__+0x42224>
    1994:	69031105 	stmdbvs	r3, {r0, r2, r8, ip}
    1998:	2802012e 	stmdacs	r2, {r1, r2, r3, r5, r8}
    199c:	87010100 	strhi	r0, [r1, -r0, lsl #2]
    19a0:	03000000 	movweq	r0, #0
    19a4:	00006400 	andeq	r6, r0, r0, lsl #8
    19a8:	fb010200 	blx	421b2 <__bss_end__+0x371e2>
    19ac:	01000d0e 	tsteq	r0, lr, lsl #26
    19b0:	00010101 	andeq	r0, r1, r1, lsl #2
    19b4:	00010000 	andeq	r0, r1, r0
    19b8:	2f2e0100 	svccs	0x002e0100
    19bc:	66617473 			; <UNDEFINED> instruction: 0x66617473
    19c0:	72732d66 	rsbsvc	r2, r3, #6528	; 0x1980
    19c4:	552f0063 	strpl	r0, [pc, #-99]!	; 1969 <__code_start__-0x6697>
    19c8:	73726573 	cmnvc	r2, #482344960	; 0x1cc00000
    19cc:	6c696d2f 	stclvs	13, cr6, [r9], #-188	; 0xffffff44
    19d0:	532f7365 			; <UNDEFINED> instruction: 0x532f7365
    19d4:	6372756f 	cmnvs	r2, #465567744	; 0x1bc00000
    19d8:	73632f65 	cmnvc	r3, #404	; 0x194
    19dc:	6c303432 	cfldrsvs	mvf3, [r0], #-200	; 0xffffff38
    19e0:	696c2f78 	stmdbvs	ip!, {r3, r4, r5, r6, r8, r9, sl, fp, sp}^
    19e4:	2f697062 	svccs	0x00697062
    19e8:	6c636e69 	stclvs	14, cr6, [r3], #-420	; 0xfffffe5c
    19ec:	00656475 	rsbeq	r6, r5, r5, ror r4
    19f0:	656c6300 	strbvs	r6, [ip, #-768]!	; 0xfffffd00
    19f4:	722d6e61 	eorvc	r6, sp, #1552	; 0x610
    19f8:	6f6f6265 	svcvs	0x006f6265
    19fc:	00632e74 	rsbeq	r2, r3, r4, ror lr
    1a00:	72000001 	andvc	r0, r0, #1, 0
    1a04:	682e6970 	stmdavs	lr!, {r4, r5, r6, r8, fp, sp, lr}
    1a08:	00000200 	andeq	r0, r0, r0, lsl #4
    1a0c:	00190500 	andseq	r0, r9, r0, lsl #10
    1a10:	96e80205 	strbtls	r0, [r8], r5, lsl #4
    1a14:	05150000 	ldreq	r0, [r5, #-0]
    1a18:	19051305 	stmdbne	r5, {r0, r2, r8, r9, ip}
    1a1c:	05052d06 	streq	r2, [r5, #-3334]	; 0xfffff2fa
    1a20:	2f67062f 	svccs	0x0067062f
    1a24:	0006024b 	andeq	r0, r6, fp, asr #4
    1a28:	01120101 	tsteq	r2, r1, lsl #2
    1a2c:	00030000 	andeq	r0, r3, r0
    1a30:	0000005e 	andeq	r0, r0, lr, asr r0
    1a34:	0efb0102 	cdpeq	1, 15, cr0, cr11, cr2, {0}
    1a38:	0101000d 	tsteq	r1, sp
    1a3c:	00000101 	andeq	r0, r0, r1, lsl #2
    1a40:	00000100 	andeq	r0, r0, r0, lsl #2
    1a44:	732f2e01 			; <UNDEFINED> instruction: 0x732f2e01
    1a48:	66666174 			; <UNDEFINED> instruction: 0x66666174
    1a4c:	6372732d 	cmnvs	r2, #-1275068416	; 0xb4000000
    1a50:	73552f00 	cmpvc	r5, #0, 30
    1a54:	2f737265 	svccs	0x00737265
    1a58:	656c696d 	strbvs	r6, [ip, #-2413]!	; 0xfffff693
    1a5c:	6f532f73 	svcvs	0x00532f73
    1a60:	65637275 	strbvs	r7, [r3, #-629]!	; 0xfffffd8b
    1a64:	3273632f 	rsbscc	r6, r3, #-1140850688	; 0xbc000000
    1a68:	786c3034 	stmdavc	ip!, {r2, r4, r5, ip, sp}^
    1a6c:	62696c2f 	rsbvs	r6, r9, #12032	; 0x2f00
    1a70:	692f6970 	stmdbvs	pc!, {r4, r5, r6, r8, fp, sp, lr}	; <UNPREDICTABLE>
    1a74:	756c636e 	strbvc	r6, [ip, #-878]!	; 0xfffffc92
    1a78:	00006564 	andeq	r6, r0, r4, ror #10
    1a7c:	61747363 	cmnvs	r4, r3, ror #6
    1a80:	632e7472 			; <UNDEFINED> instruction: 0x632e7472
    1a84:	00000100 	andeq	r0, r0, r0, lsl #2
    1a88:	2e697072 	mcrcs	0, 3, r7, cr9, cr2, {3}
    1a8c:	00020068 	andeq	r0, r2, r8, rrx
    1a90:	10050000 	andne	r0, r5, r0
    1a94:	14020500 	strne	r0, [r2], #-1280	; 0xfffffb00
    1a98:	15000097 	strne	r0, [r0, #-151]	; 0xffffff69
    1a9c:	05130505 	ldreq	r0, [r3, #-1285]	; 0xfffffafb
    1aa0:	05051302 	streq	r1, [r5, #-770]	; 0xfffffcfe
    1aa4:	06100514 			; <UNDEFINED> instruction: 0x06100514
    1aa8:	3205050e 	andcc	r0, r5, #58720256	; 0x3800000
    1aac:	14133006 	ldrne	r3, [r3], #-6
    1ab0:	05010a05 	streq	r0, [r1, #-2565]	; 0xfffff5fb
    1ab4:	05910809 	ldreq	r0, [r1, #2057]	; 0x809
    1ab8:	05010610 	streq	r0, [r1, #-1552]	; 0xfffff9f0
    1abc:	10059a0a 	andne	r9, r5, sl, lsl #20
    1ac0:	060a056a 	streq	r0, [sl], -sl, ror #10
    1ac4:	2f09052d 	svccs	0x0009052d
    1ac8:	01061005 	tsteq	r6, r5
    1acc:	2d060a05 	vstrcs	s0, [r6, #-20]	; 0xffffffec
    1ad0:	05bb0905 	ldreq	r0, [fp, #2309]!	; 0x905
    1ad4:	05010610 	streq	r0, [r1, #-1552]	; 0xfffff9f0
    1ad8:	0565060a 	strbeq	r0, [r5, #-1546]!	; 0xfffff9f6
    1adc:	0d054b09 	vstreq	d4, [r5, #-36]	; 0xffffffdc
    1ae0:	0a050106 	beq	141f00 <__bss_end__+0x136f30>
    1ae4:	2f10052d 	svccs	0x0010052d
    1ae8:	2d060a05 	vstrcs	s0, [r6, #-20]	; 0xffffffec
    1aec:	052f0905 	streq	r0, [pc, #-2309]!	; 11ef <__code_start__-0x6e11>
    1af0:	0501060d 	streq	r0, [r1, #-1549]	; 0xfffff9f3
    1af4:	10052d0a 	andne	r2, r5, sl, lsl #26
    1af8:	060a052f 	streq	r0, [sl], -pc, lsr #10
    1afc:	2f09052d 	svccs	0x0009052d
    1b00:	01060d05 	tsteq	r6, r5, lsl #26
    1b04:	052d0a05 	streq	r0, [sp, #-2565]!	; 0xfffff5fb
    1b08:	0a052f10 	beq	14d750 <__bss_end__+0x142780>
    1b0c:	09052d06 	stmdbeq	r5, {r1, r2, r8, sl, fp, sp}
    1b10:	060d052f 	streq	r0, [sp], -pc, lsr #10
    1b14:	2d0a0501 	cfstr32cs	mvfx0, [sl, #-4]
    1b18:	052f1005 	streq	r1, [pc, #-5]!	; 1b1b <__code_start__-0x64e5>
    1b1c:	052d060a 	streq	r0, [sp, #-1546]!	; 0xfffff9f6
    1b20:	10051309 	andne	r1, r5, r9, lsl #6
    1b24:	0a050106 	beq	141f44 <__bss_end__+0x136f74>
    1b28:	05052d06 	streq	r2, [r5, #-3334]	; 0xfffff2fa
    1b2c:	01013215 	tsteq	r1, r5, lsl r2
    1b30:	0205144a 	andeq	r1, r5, #1241513984	; 0x4a000000
    1b34:	060a052f 	streq	r0, [sl], -pc, lsr #10
    1b38:	022e7303 	eoreq	r7, lr, #201326592	; 0xc000000
    1b3c:	01010008 	tsteq	r1, r8
    1b40:	0000007d 	andeq	r0, r0, sp, ror r0
    1b44:	00650003 	rsbeq	r0, r5, r3
    1b48:	01020000 	mrseq	r0, (UNDEF: 2)
    1b4c:	000d0efb 	strdeq	r0, [sp], -fp
    1b50:	01010101 	tsteq	r1, r1, lsl #2
    1b54:	01000000 	mrseq	r0, (UNDEF: 0)
    1b58:	2e010000 	cdpcs	0, 0, cr0, cr1, cr0, {0}
    1b5c:	6174732f 	cmnvs	r4, pc, lsr #6
    1b60:	732d6666 			; <UNDEFINED> instruction: 0x732d6666
    1b64:	2f006372 	svccs	0x00006372
    1b68:	72657355 	rsbvc	r7, r5, #1409286145	; 0x54000001
    1b6c:	696d2f73 	stmdbvs	sp!, {r0, r1, r4, r5, r6, r8, r9, sl, fp, sp}^
    1b70:	2f73656c 	svccs	0x0073656c
    1b74:	72756f53 	rsbsvc	r6, r5, #332	; 0x14c
    1b78:	632f6563 			; <UNDEFINED> instruction: 0x632f6563
    1b7c:	30343273 	eorscc	r3, r4, r3, ror r2
    1b80:	6c2f786c 	stcvs	8, cr7, [pc], #-432	; 19d8 <__code_start__-0x6628>
    1b84:	69706269 	ldmdbvs	r0!, {r0, r3, r5, r6, r9, sp, lr}^
    1b88:	636e692f 	cmnvs	lr, #770048	; 0xbc000
    1b8c:	6564756c 	strbvs	r7, [r4, #-1388]!	; 0xfffffa94
    1b90:	75630000 	strbvc	r0, [r3, #-0]!
    1b94:	6d6f7473 	cfstrdvs	mvd7, [pc, #-460]!	; 19d0 <__code_start__-0x6630>
    1b98:	616f6c2d 	cmnvs	pc, sp, lsr #24
    1b9c:	2e726564 	cdpcs	5, 7, cr6, cr2, cr4, {3}
    1ba0:	00010063 	andeq	r0, r1, r3, rrx
    1ba4:	69707200 	ldmdbvs	r0!, {r9, ip, sp, lr}^
    1ba8:	0200682e 	andeq	r6, r0, #3014656	; 0x2e0000
    1bac:	05000000 	streq	r0, [r0, #-0]
    1bb0:	0205001a 	andeq	r0, r5, #26, 0
    1bb4:	0000980c 	andeq	r9, r0, ip, lsl #16
    1bb8:	14010515 	strne	r0, [r1], #-1301	; 0xfffffaeb
    1bbc:	01000202 	tsteq	r0, r2, lsl #4
    1bc0:	00011401 	andeq	r1, r1, r1, lsl #8
    1bc4:	5e000300 	cdppl	3, 0, cr0, cr0, cr0, {0}
    1bc8:	02000000 	andeq	r0, r0, #0, 0
    1bcc:	0d0efb01 	vstreq	d15, [lr, #-4]
    1bd0:	01010100 	mrseq	r0, (UNDEF: 17)
    1bd4:	00000001 	andeq	r0, r0, r1
    1bd8:	01000001 	tsteq	r0, r1
    1bdc:	74732f2e 	ldrbtvc	r2, [r3], #-3886	; 0xfffff0d2
    1be0:	2d666661 	stclcs	6, cr6, [r6, #-388]!	; 0xfffffe7c
    1be4:	00637273 	rsbeq	r7, r3, r3, ror r2
    1be8:	6573552f 	ldrbvs	r5, [r3, #-1327]!	; 0xfffffad1
    1bec:	6d2f7372 	stcvs	3, cr7, [pc, #-456]!	; 1a2c <__code_start__-0x65d4>
    1bf0:	73656c69 	cmnvc	r5, #26880	; 0x6900
    1bf4:	756f532f 	strbvc	r5, [pc, #-815]!	; 18cd <__code_start__-0x6733>
    1bf8:	2f656372 	svccs	0x00656372
    1bfc:	34327363 	ldrtcc	r7, [r2], #-867	; 0xfffffc9d
    1c00:	2f786c30 	svccs	0x00786c30
    1c04:	7062696c 	rsbvc	r6, r2, ip, ror #18
    1c08:	6e692f69 	cdpvs	15, 6, cr2, cr9, cr9, {3}
    1c0c:	64756c63 	ldrbtvs	r6, [r5], #-3171	; 0xfffff39d
    1c10:	72000065 	andvc	r0, r0, #101, 0	; 0x65
    1c14:	6f6f6265 	svcvs	0x006f6265
    1c18:	00632e74 	rsbeq	r2, r3, r4, ror lr
    1c1c:	72000001 	andvc	r0, r0, #1, 0
    1c20:	682e6970 	stmdavs	lr!, {r4, r5, r6, r8, fp, sp, lr}
    1c24:	00000200 	andeq	r0, r0, r0, lsl #4
    1c28:	00190500 	andseq	r0, r9, r0, lsl #10
    1c2c:	98100205 	ldmdals	r0, {r0, r2, r9}
    1c30:	0d030000 	stceq	0, cr0, [r3, #-0]
    1c34:	13050501 	movwne	r0, #21761	; 0x5501
    1c38:	13053113 	movwne	r3, #20755	; 0x5113
    1c3c:	01050106 	tsteq	r5, r6, lsl #2
    1c40:	061b052f 	ldreq	r0, [fp], -pc, lsr #10
    1c44:	13050585 	movwne	r0, #21893	; 0x5585
    1c48:	2f090514 	svccs	0x00090514
    1c4c:	01061605 	tsteq	r6, r5, lsl #12
    1c50:	2f060505 	svccs	0x00060505
    1c54:	11060e05 	tstne	r6, r5, lsl #28
    1c58:	052f0505 	streq	r0, [pc, #-1285]!	; 175b <__code_start__-0x68a5>
    1c5c:	17052f01 	strne	r2, [r5, -r1, lsl #30]
    1c60:	05053006 	streq	r3, [r5, #-6]
    1c64:	016e0313 	cmneq	lr, r3, lsl r3
    1c68:	17051313 	smladne	r5, r3, r3, r1
    1c6c:	010f0306 	tsteq	pc, r6, lsl #6
    1c70:	71030505 	tstvc	r3, r5, lsl #10
    1c74:	0531062e 	ldreq	r0, [r1, #-1582]!	; 0xfffff9d2
    1c78:	05010613 	streq	r0, [r1, #-1555]	; 0xfffff9ed
    1c7c:	2e0d0307 	cdpcs	3, 0, cr0, cr13, cr7, {0}
    1c80:	4b060905 	blmi	18409c <__bss_end__+0x1790cc>
    1c84:	76030605 	strvc	r0, [r3], -r5, lsl #12
    1c88:	13050501 	movwne	r0, #21761	; 0x5501
    1c8c:	2f090514 	svccs	0x00090514
    1c90:	01061605 	tsteq	r6, r5, lsl #12
    1c94:	2f060505 	svccs	0x00060505
    1c98:	11060e05 	tstne	r6, r5, lsl #28
    1c9c:	2e2f0505 	cfsh64cs	mvdx0, mvdx15, #5
    1ca0:	010a0306 	tsteq	sl, r6, lsl #6
    1ca4:	134d2f30 	movtne	r2, #57136	; 0xdf30
    1ca8:	67151313 			; <UNDEFINED> instruction: 0x67151313
    1cac:	01040200 	mrseq	r0, R12_usr
    1cb0:	000d0567 	andeq	r0, sp, r7, ror #10
    1cb4:	01010402 	tsteq	r1, r2, lsl #8
    1cb8:	02000a05 	andeq	r0, r0, #20480	; 0x5000
    1cbc:	05010104 	streq	r0, [r1, #-260]	; 0xfffffefc
    1cc0:	04020005 	streq	r0, [r2], #-5
    1cc4:	0d050101 	stfeqs	f0, [r5, #-4]
    1cc8:	01040200 	mrseq	r0, R12_usr
    1ccc:	000a0501 	andeq	r0, sl, r1, lsl #10
    1cd0:	01010402 	tsteq	r1, r2, lsl #8
    1cd4:	01000a02 	tsteq	r0, r2, lsl #20
    1cd8:	0001fa01 	andeq	pc, r1, r1, lsl #20
    1cdc:	5d000300 	stcpl	3, cr0, [r0, #-0]
    1ce0:	02000000 	andeq	r0, r0, #0, 0
    1ce4:	0d0efb01 	vstreq	d15, [lr, #-4]
    1ce8:	01010100 	mrseq	r0, (UNDEF: 17)
    1cec:	00000001 	andeq	r0, r0, r1
    1cf0:	01000001 	tsteq	r0, r1
    1cf4:	74732f2e 	ldrbtvc	r2, [r3], #-3886	; 0xfffff0d2
    1cf8:	2d666661 	stclcs	6, cr6, [r6, #-388]!	; 0xfffffe7c
    1cfc:	00637273 	rsbeq	r7, r3, r3, ror r2
    1d00:	6573552f 	ldrbvs	r5, [r3, #-1327]!	; 0xfffffad1
    1d04:	6d2f7372 	stcvs	3, cr7, [pc, #-456]!	; 1b44 <__code_start__-0x64bc>
    1d08:	73656c69 	cmnvc	r5, #26880	; 0x6900
    1d0c:	756f532f 	strbvc	r5, [pc, #-815]!	; 19e5 <__code_start__-0x661b>
    1d10:	2f656372 	svccs	0x00656372
    1d14:	34327363 	ldrtcc	r7, [r2], #-867	; 0xfffffc9d
    1d18:	2f786c30 	svccs	0x00786c30
    1d1c:	7062696c 	rsbvc	r6, r2, ip, ror #18
    1d20:	6e692f69 	cdpvs	15, 6, cr2, cr9, cr9, {3}
    1d24:	64756c63 	ldrbtvs	r6, [r5], #-3171	; 0xfffff39d
    1d28:	74000065 	strvc	r0, [r0], #-101	; 0xffffff9b
    1d2c:	72656d69 	rsbvc	r6, r5, #6720	; 0x1a40
    1d30:	0100632e 	tsteq	r0, lr, lsr #6
    1d34:	70720000 	rsbsvc	r0, r2, r0
    1d38:	00682e69 	rsbeq	r2, r8, r9, ror #28
    1d3c:	00000002 	andeq	r0, r0, r2
    1d40:	05002305 	streq	r2, [r0, #-773]	; 0xfffffcfb
    1d44:	00989c02 	addseq	r9, r8, r2, lsl #24
    1d48:	05051500 	streq	r1, [r5, #-1280]	; 0xfffffb00
    1d4c:	060c0513 			; <UNDEFINED> instruction: 0x060c0513
    1d50:	061f0501 	ldreq	r0, [pc], -r1, lsl #10
    1d54:	1505056a 	strne	r0, [r5, #-1386]	; 0xfffffa96
    1d58:	0f061f05 	svceq	0x00061f05
    1d5c:	06310505 	ldrteq	r0, [r1], -r5, lsl #10
    1d60:	030a052f 	movweq	r0, #42287	; 0xa52f
    1d64:	05050177 	streq	r0, [r5, #-375]	; 0xfffffe89
    1d68:	060c0513 			; <UNDEFINED> instruction: 0x060c0513
    1d6c:	05056601 	streq	r6, [r5, #-1537]	; 0xfffff9ff
    1d70:	01090306 	tsteq	r9, r6, lsl #6
    1d74:	0601052f 	streq	r0, [r1], -pc, lsr #10
    1d78:	061c0513 			; <UNDEFINED> instruction: 0x061c0513
    1d7c:	13050568 	movwne	r0, #21864	; 0x5568
    1d80:	76030a05 	strvc	r0, [r3], -r5, lsl #20
    1d84:	15050501 	strne	r0, [r5, #-1281]	; 0xfffffaff
    1d88:	18061c05 	stmdane	r6, {r0, r2, sl, fp, ip}
    1d8c:	0305052e 	movweq	r0, #21806	; 0x552e
    1d90:	2f062e7a 	svccs	0x00062e7a
    1d94:	77030a05 	strvc	r0, [r3, -r5, lsl #20]
    1d98:	13050501 	movwne	r0, #21761	; 0x5501
    1d9c:	01060c05 	tsteq	r6, r5, lsl #24
    1da0:	06050566 	streq	r0, [r5], -r6, ror #10
    1da4:	2f010903 	svccs	0x00010903
    1da8:	0c050106 	stfeqs	f0, [r5], {6}
    1dac:	05017603 	streq	r7, [r1, #-1539]	; 0xfffff9fd
    1db0:	0f030605 	svceq	0x00030605
    1db4:	1309052e 	movwne	r0, #38190	; 0x952e
    1db8:	74030a05 	strvc	r0, [r3], #-2565	; 0xfffff5fb
    1dbc:	15050501 	strne	r0, [r5, #-1281]	; 0xfffffaff
    1dc0:	030a052f 	movweq	r0, #42287	; 0xa52f
    1dc4:	05050177 	streq	r0, [r5, #-375]	; 0xfffffe89
    1dc8:	060c0513 			; <UNDEFINED> instruction: 0x060c0513
    1dcc:	05056601 	streq	r6, [r5, #-1537]	; 0xfffff9ff
    1dd0:	01090306 	tsteq	r9, r6, lsl #6
    1dd4:	1a061105 	bne	1861f0 <__bss_end__+0x17b220>
    1dd8:	78030505 	stmdavc	r3, {r0, r2, r8, sl}
    1ddc:	052f062e 	streq	r0, [pc, #-1582]!	; 17b6 <__code_start__-0x684a>
    1de0:	0c051909 			; <UNDEFINED> instruction: 0x0c051909
    1de4:	1c050106 	stfnes	f0, [r5], {6}
    1de8:	05058706 	streq	r8, [r5, #-1798]	; 0xfffff8fa
    1dec:	061c0513 			; <UNDEFINED> instruction: 0x061c0513
    1df0:	2f050511 	svccs	0x00050511
    1df4:	0606054a 	streq	r0, [r6], -sl, asr #10
    1df8:	052e7603 	streq	r7, [lr, #-1539]!	; 0xfffff9fd
    1dfc:	0a051305 	beq	146a18 <__bss_end__+0x13ba48>
    1e00:	05017603 	streq	r7, [r1, #-1539]	; 0xfffff9fd
    1e04:	052f1505 	streq	r1, [pc, #-1285]!	; 1907 <__code_start__-0x66f9>
    1e08:	0177030a 	cmneq	r7, sl, lsl #6
    1e0c:	05130505 	ldreq	r0, [r3, #-1285]	; 0xfffffafb
    1e10:	6601060c 	strvs	r0, [r1], -ip, lsl #12
    1e14:	03060505 	movweq	r0, #25861	; 0x6505
    1e18:	062f0109 	strteq	r0, [pc], -r9, lsl #2
    1e1c:	030c0501 	movweq	r0, #50433	; 0xc501
    1e20:	05050176 	streq	r0, [r5, #-374]	; 0xfffffe8a
    1e24:	2e0f0306 	cdpcs	3, 0, cr0, cr15, cr6, {0}
    1e28:	05130905 	ldreq	r0, [r3, #-2309]	; 0xfffff6fb
    1e2c:	0174030a 	cmneq	r4, sl, lsl #6
    1e30:	2f150505 	svccs	0x00150505
    1e34:	77030a05 	strvc	r0, [r3, -r5, lsl #20]
    1e38:	13050501 	movwne	r0, #21761	; 0x5501
    1e3c:	01060c05 	tsteq	r6, r5, lsl #24
    1e40:	06050566 	streq	r0, [r5], -r6, ror #10
    1e44:	05010903 	streq	r0, [r1, #-2307]	; 0xfffff6fd
    1e48:	051a0611 	ldreq	r0, [sl, #-1553]	; 0xfffff9ef
    1e4c:	2e780305 	cdpcs	3, 7, cr0, cr8, cr5, {0}
    1e50:	09052f06 	stmdbeq	r5, {r1, r2, r8, r9, sl, fp, sp}
    1e54:	060c0519 			; <UNDEFINED> instruction: 0x060c0519
    1e58:	061e0501 	ldreq	r0, [lr], -r1, lsl #10
    1e5c:	1305058a 	movwne	r0, #21898	; 0x558a
    1e60:	050e0605 	streq	r0, [lr, #-1541]	; 0xfffff9fb
    1e64:	1e051305 	cdpne	3, 0, cr1, cr5, cr5, {0}
    1e68:	05051406 	streq	r1, [r5, #-1030]	; 0xfffffbfa
    1e6c:	0605662c 	streq	r6, [r5], -ip, lsr #12
    1e70:	2e760306 	cdpcs	3, 7, cr0, cr6, cr6, {0}
    1e74:	05130505 	ldreq	r0, [r3, #-1285]	; 0xfffffafb
    1e78:	0176030a 	cmneq	r6, sl, lsl #6
    1e7c:	2f150505 	svccs	0x00150505
    1e80:	77030a05 	strvc	r0, [r3, -r5, lsl #20]
    1e84:	13050501 	movwne	r0, #21761	; 0x5501
    1e88:	01060c05 	tsteq	r6, r5, lsl #24
    1e8c:	06050566 	streq	r0, [r5], -r6, ror #10
    1e90:	2f010903 	svccs	0x00010903
    1e94:	0c050106 	stfeqs	f0, [r5], {6}
    1e98:	05017603 	streq	r7, [r1, #-1539]	; 0xfffff9fd
    1e9c:	0f030605 	svceq	0x00030605
    1ea0:	1309052e 	movwne	r0, #38190	; 0x952e
    1ea4:	74030a05 	strvc	r0, [r3], #-2565	; 0xfffff5fb
    1ea8:	15050501 	strne	r0, [r5, #-1281]	; 0xfffffaff
    1eac:	030a052f 	movweq	r0, #42287	; 0xa52f
    1eb0:	05050177 	streq	r0, [r5, #-375]	; 0xfffffe89
    1eb4:	060c0513 			; <UNDEFINED> instruction: 0x060c0513
    1eb8:	05056601 	streq	r6, [r5, #-1537]	; 0xfffff9ff
    1ebc:	01090306 	tsteq	r9, r6, lsl #6
    1ec0:	1a061105 	bne	1862dc <__bss_end__+0x17b30c>
    1ec4:	78030505 	stmdavc	r3, {r0, r2, r8, sl}
    1ec8:	052f062e 	streq	r0, [pc, #-1582]!	; 18a2 <__code_start__-0x675e>
    1ecc:	0c051909 			; <UNDEFINED> instruction: 0x0c051909
    1ed0:	08020106 	stmdaeq	r2, {r1, r2, r8}
    1ed4:	04010100 	streq	r0, [r1], #-256	; 0xffffff00
    1ed8:	03000002 	movweq	r0, #2
    1edc:	0000c800 	andeq	ip, r0, r0, lsl #16
    1ee0:	fb010200 	blx	426ea <__bss_end__+0x3771a>
    1ee4:	01000d0e 	tsteq	r0, lr, lsl #26
    1ee8:	00010101 	andeq	r0, r1, r1, lsl #2
    1eec:	00010000 	andeq	r0, r1, r0
    1ef0:	682f0100 	stmdavs	pc!, {r8}	; <UNPREDICTABLE>
    1ef4:	2f656d6f 	svccs	0x00656d6f
    1ef8:	6c676e65 	stclvs	14, cr6, [r7], #-404	; 0xfffffe6c
    1efc:	632f7265 			; <UNDEFINED> instruction: 0x632f7265
    1f00:	7373616c 	cmnvc	r3, #27
    1f04:	3173632f 	cmncc	r3, pc, lsr #6
    1f08:	2d653034 	stclcs	0, cr3, [r5, #-208]!	; 0xffffff30
    1f0c:	69773232 	ldmdbvs	r7!, {r1, r4, r5, r9, ip, sp}^
    1f10:	6c2f2f6e 	stcvs	15, cr2, [pc], #-440	; 1d60 <__code_start__-0x62a0>
    1f14:	69706269 	ldmdbvs	r0!, {r0, r3, r5, r6, r9, sp, lr}^
    1f18:	636e692f 	cmnvs	lr, #770048	; 0xbc000
    1f1c:	6564756c 	strbvs	r7, [r4, #-1388]!	; 0xfffffa94
    1f20:	73752f00 	cmnvc	r5, #0, 30
    1f24:	68732f72 	ldmdavs	r3!, {r1, r4, r5, r6, r8, r9, sl, fp, sp}^
    1f28:	2f657261 	svccs	0x00657261
    1f2c:	2d636367 	stclcs	3, cr6, [r3, #-412]!	; 0xfffffe64
    1f30:	2d6d7261 	sfmcs	f7, 2, [sp, #-388]!	; 0xfffffe7c
    1f34:	656e6f6e 	strbvs	r6, [lr, #-3950]!	; 0xfffff092
    1f38:	6261652d 	rsbvs	r6, r1, #188743680	; 0xb400000
    1f3c:	30312d69 	eorscc	r2, r1, r9, ror #26
    1f40:	322d332e 	eorcc	r3, sp, #-1207959552	; 0xb8000000
    1f44:	2e313230 	mrccs	2, 1, r3, cr1, cr0, {1}
    1f48:	6c2f3031 	stcvs	0, cr3, [pc], #-196	; 1e8c <__code_start__-0x6174>
    1f4c:	672f6269 	strvs	r6, [pc, -r9, ror #4]!
    1f50:	612f6363 			; <UNDEFINED> instruction: 0x612f6363
    1f54:	6e2d6d72 	mcrvs	13, 1, r6, cr13, cr2, {3}
    1f58:	2d656e6f 	stclcs	14, cr6, [r5, #-444]!	; 0xfffffe44
    1f5c:	69626165 	stmdbvs	r2!, {r0, r2, r5, r6, r8, sp, lr}^
    1f60:	2e30312f 	rsfcssp	f3, f0, #10.0
    1f64:	2f312e33 	svccs	0x00312e33
    1f68:	6c636e69 	stclvs	14, cr6, [r3], #-420	; 0xfffffe5c
    1f6c:	00656475 	rsbeq	r6, r5, r5, ror r4
    1f70:	72617500 	rsbvc	r7, r1, #0, 10
    1f74:	00632e74 	rsbeq	r2, r3, r4, ror lr
    1f78:	75000000 	strvc	r0, [r0, #-0]
    1f7c:	2e747261 	cdpcs	2, 7, cr7, cr4, cr1, {3}
    1f80:	00010068 	andeq	r0, r1, r8, rrx
    1f84:	69707200 	ldmdbvs	r0!, {r9, ip, sp, lr}^
    1f88:	0100682e 	tsteq	r0, lr, lsr #16
    1f8c:	70670000 	rsbvc	r0, r7, r0
    1f90:	682e6f69 	stmdavs	lr!, {r0, r3, r5, r6, r8, r9, sl, fp, sp, lr}
    1f94:	00000100 	andeq	r0, r0, r0, lsl #2
    1f98:	69647473 	stmdbvs	r4!, {r0, r1, r4, r5, r6, sl, ip, sp, lr}^
    1f9c:	672d746e 	strvs	r7, [sp, -lr, ror #8]!
    1fa0:	682e6363 	stmdavs	lr!, {r0, r1, r5, r6, r8, r9, sp, lr}
    1fa4:	00000200 	andeq	r0, r0, r0, lsl #4
    1fa8:	00390500 	eorseq	r0, r9, r0, lsl #10
    1fac:	99b80205 	ldmibls	r8!, {r0, r2, r9}
    1fb0:	30030000 	andcc	r0, r3, r0
    1fb4:	05010601 	streq	r0, [r1, #-1537]	; 0xfffff9ff
    1fb8:	05670605 	strbeq	r0, [r7, #-1541]!	; 0xfffff9fb
    1fbc:	05010611 	streq	r0, [r1, #-1553]	; 0xfffff9ef
    1fc0:	01052e05 	tsteq	r5, r5, lsl #28
    1fc4:	06380567 	ldrteq	r0, [r8], -r7, ror #10
    1fc8:	05010629 	streq	r0, [r1, #-1577]	; 0xfffff9d7
    1fcc:	05670605 	strbeq	r0, [r7, #-1541]!	; 0xfffff9fb
    1fd0:	05010611 	streq	r0, [r1, #-1553]	; 0xfffff9ef
    1fd4:	01052e05 	tsteq	r5, r5, lsl #28
    1fd8:	06160567 	ldreq	r0, [r6], -r7, ror #10
    1fdc:	052e1503 	streq	r1, [lr, #-1283]!	; 0xfffffafd
    1fe0:	68673505 	stmdavs	r7!, {r0, r2, r8, sl, ip, sp}^
    1fe4:	0c036835 	stceq	8, cr6, [r3], {53}	; 0x35
    1fe8:	696b852e 	stmdbvs	fp!, {r1, r2, r3, r5, r8, sl, pc}^
    1fec:	660c0369 	strvs	r0, [ip], -r9, ror #6
    1ff0:	05676b13 	strbeq	r6, [r7, #-2835]!	; 0xfffff4ed
    1ff4:	052f0601 	streq	r0, [pc, #-1537]!	; 19fb <__code_start__-0x6605>
    1ff8:	25080619 	strcs	r0, [r8, #-1561]	; 0xfffff9e7
    1ffc:	05340505 	ldreq	r0, [r4, #-1285]!	; 0xfffffafb
    2000:	0501060d 	streq	r0, [r1, #-1549]	; 0xfffff9f3
    2004:	19054c01 	stmdbne	r5, {r0, sl, fp, lr}
    2008:	05056706 	streq	r6, [r5, #-1798]	; 0xfffff8fa
    200c:	060d0536 			; <UNDEFINED> instruction: 0x060d0536
    2010:	4a280501 	bmi	a0341c <__bss_end__+0x9f844c>
    2014:	05300105 	ldreq	r0, [r0, #-261]!	; 0xfffffefb
    2018:	05870615 	streq	r0, [r7, #1557]	; 0x615
    201c:	052f2f05 	streq	r2, [pc, #-3845]!	; 111f <__code_start__-0x6ee1>
    2020:	04020009 	streq	r0, [r2], #-9
    2024:	0a051301 	beq	146c30 <__bss_end__+0x13bc60>
    2028:	01040200 	mrseq	r0, R12_usr
    202c:	000c0511 	andeq	r0, ip, r1, lsl r5
    2030:	06010402 	streq	r0, [r1], -r2, lsl #8
    2034:	000a0501 	andeq	r0, sl, r1, lsl #10
    2038:	2e010402 	cdpcs	4, 0, cr0, cr1, cr2, {0}
    203c:	4c060505 	cfstr32mi	mvfx0, [r6], {5}
    2040:	01060e05 	tsteq	r6, r5, lsl #28
    2044:	054a0905 	strbeq	r0, [sl, #-2309]	; 0xfffff6fb
    2048:	2f2f0605 	svccs	0x002f0605
    204c:	13060105 	movwne	r0, #24837	; 0x6105
    2050:	67061c05 	strvs	r1, [r6, -r5, lsl #24]
    2054:	05050106 	streq	r0, [r5, #-262]	; 0xfffffefa
    2058:	052f4b06 	streq	r4, [pc, #-2822]!	; 155a <__code_start__-0x6aa6>
    205c:	04020009 	streq	r0, [r2], #-9
    2060:	0a051301 	beq	146c6c <__bss_end__+0x13bc9c>
    2064:	01040200 	mrseq	r0, R12_usr
    2068:	000c0511 	andeq	r0, ip, r1, lsl r5
    206c:	06010402 	streq	r0, [r1], -r2, lsl #8
    2070:	000a0501 	andeq	r0, sl, r1, lsl #10
    2074:	2e010402 	cdpcs	4, 0, cr0, cr1, cr2, {0}
    2078:	4c060505 	cfstr32mi	mvfx0, [r6], {5}
    207c:	06010567 	streq	r0, [r1], -r7, ror #10
    2080:	0619052f 	ldreq	r0, [r9], -pc, lsr #10
    2084:	2e1b054c 	cfmac32cs	mvfx0, mvfx11, mvfx12
    2088:	052e2a05 	streq	r2, [lr, #-2565]!	; 0xfffff5fb
    208c:	05010631 	streq	r0, [r1, #-1585]	; 0xfffff9cf
    2090:	1c052e42 	stcne	14, cr2, [r5], {66}	; 0x42
    2094:	05053106 	streq	r3, [r5, #-262]	; 0xfffffefa
    2098:	2e09032f 	cdpcs	3, 0, cr0, cr9, cr15, {1}
    209c:	01060e05 	tsteq	r6, r5, lsl #28
    20a0:	054a2105 	strbeq	r2, [sl, #-261]	; 0xfffffefb
    20a4:	2e0a0301 	cdpcs	3, 0, cr0, cr10, cr1, {0}
    20a8:	68061a05 	stmdavs	r6, {r0, r2, r9, fp, ip}
    20ac:	02000905 	andeq	r0, r0, #81920	; 0x14000
    20b0:	05300104 	ldreq	r0, [r0, #-260]!	; 0xfffffefc
    20b4:	0402000a 	streq	r0, [r2], #-10
    20b8:	0c051101 	stfeqs	f1, [r5], {1}
    20bc:	01040200 	mrseq	r0, R12_usr
    20c0:	0a050106 	beq	1424e0 <__bss_end__+0x137510>
    20c4:	01040200 	mrseq	r0, R12_usr
    20c8:	0619052e 	ldreq	r0, [r9], -lr, lsr #10
    20cc:	667ee803 	ldrbtvs	lr, [lr], -r3, lsl #16
    20d0:	2f2f0505 	svccs	0x002f0505
    20d4:	0105672f 	tsteq	r5, pc, lsr #14
    20d8:	04022f06 	streq	r2, [r2], #-3846	; 0xfffff0fa
    20dc:	92010100 	andls	r0, r1, #0
    20e0:	03000003 	movweq	r0, #3
    20e4:	0000b700 	andeq	fp, r0, r0, lsl #14
    20e8:	fb010200 	blx	428f2 <__bss_end__+0x37922>
    20ec:	01000d0e 	tsteq	r0, lr, lsl #26
    20f0:	00010101 	andeq	r0, r1, r1, lsl #2
    20f4:	00010000 	andeq	r0, r1, r0
    20f8:	682f0100 	stmdavs	pc!, {r8}	; <UNPREDICTABLE>
    20fc:	2f656d6f 	svccs	0x00656d6f
    2100:	6c676e65 	stclvs	14, cr6, [r7], #-404	; 0xfffffe6c
    2104:	632f7265 			; <UNDEFINED> instruction: 0x632f7265
    2108:	7373616c 	cmnvc	r3, #27
    210c:	3173632f 	cmncc	r3, pc, lsr #6
    2110:	2d653034 	stclcs	0, cr3, [r5, #-208]!	; 0xffffff30
    2114:	69773232 	ldmdbvs	r7!, {r1, r4, r5, r9, ip, sp}^
    2118:	6c2f2f6e 	stcvs	15, cr2, [pc], #-440	; 1f68 <__code_start__-0x6098>
    211c:	69706269 	ldmdbvs	r0!, {r0, r3, r5, r6, r9, sp, lr}^
    2120:	636e692f 	cmnvs	lr, #770048	; 0xbc000
    2124:	6564756c 	strbvs	r7, [r4, #-1388]!	; 0xfffffa94
    2128:	73752f00 	cmnvc	r5, #0, 30
    212c:	68732f72 	ldmdavs	r3!, {r1, r4, r5, r6, r8, r9, sl, fp, sp}^
    2130:	2f657261 	svccs	0x00657261
    2134:	2d636367 	stclcs	3, cr6, [r3, #-412]!	; 0xfffffe64
    2138:	2d6d7261 	sfmcs	f7, 2, [sp, #-388]!	; 0xfffffe7c
    213c:	656e6f6e 	strbvs	r6, [lr, #-3950]!	; 0xfffff092
    2140:	6261652d 	rsbvs	r6, r1, #188743680	; 0xb400000
    2144:	30312d69 	eorscc	r2, r1, r9, ror #26
    2148:	322d332e 	eorcc	r3, sp, #-1207959552	; 0xb8000000
    214c:	2e313230 	mrccs	2, 1, r3, cr1, cr0, {1}
    2150:	6c2f3031 	stcvs	0, cr3, [pc], #-196	; 2094 <__code_start__-0x5f6c>
    2154:	672f6269 	strvs	r6, [pc, -r9, ror #4]!
    2158:	612f6363 			; <UNDEFINED> instruction: 0x612f6363
    215c:	6e2d6d72 	mcrvs	13, 1, r6, cr13, cr2, {3}
    2160:	2d656e6f 	stclcs	14, cr6, [r5, #-444]!	; 0xfffffe44
    2164:	69626165 	stmdbvs	r2!, {r0, r2, r5, r6, r8, sp, lr}^
    2168:	2e30312f 	rsfcssp	f3, f0, #10.0
    216c:	2f312e33 	svccs	0x00312e33
    2170:	6c636e69 	stclvs	14, cr6, [r3], #-420	; 0xfffffe5c
    2174:	00656475 	rsbeq	r6, r5, r5, ror r4
    2178:	616d6b00 	cmnvs	sp, r0, lsl #22
    217c:	636f6c6c 	cmnvs	pc, #108, 24	; 0x6c00
    2180:	0000632e 	andeq	r6, r0, lr, lsr #6
    2184:	70720000 	rsbsvc	r0, r2, r0
    2188:	00682e69 	rsbeq	r2, r8, r9, ror #28
    218c:	73000001 	movwvc	r0, #1
    2190:	6e696474 	mcrvs	4, 3, r6, cr9, cr4, {3}
    2194:	63672d74 	cmnvs	r7, #116, 26	; 0x1d00
    2198:	00682e63 	rsbeq	r2, r8, r3, ror #28
    219c:	00000002 	andeq	r0, r0, r2
    21a0:	05001e05 	streq	r1, [r0, #-3589]	; 0xfffff1fb
    21a4:	009ba802 	addseq	sl, fp, r2, lsl #16
    21a8:	01270300 			; <UNDEFINED> instruction: 0x01270300
    21ac:	05012005 	streq	r2, [r1, #-5]
    21b0:	0501062d 	streq	r0, [r1, #-1581]	; 0xfffff9d3
    21b4:	05830620 	streq	r0, [r3, #1568]	; 0x620
    21b8:	35050122 	strcc	r0, [r5, #-290]	; 0xfffffede
    21bc:	1e050106 	adfnes	f0, f5, f6
    21c0:	20058306 	andcs	r8, r5, r6, lsl #6
    21c4:	062d0501 	strteq	r0, [sp], -r1, lsl #10
    21c8:	06420501 	strbeq	r0, [r2], -r1, lsl #10
    21cc:	05010685 	streq	r0, [r1, #-1669]	; 0xfffff97b
    21d0:	144b0605 	strbne	r0, [fp], #-1541	; 0xfffff9fb
    21d4:	002e0601 	eoreq	r0, lr, r1, lsl #12
    21d8:	06020402 	streq	r0, [r2], -r2, lsl #8
    21dc:	0402002e 	streq	r0, [r2], #-46	; 0xffffffd2
    21e0:	02000102 	andeq	r0, r0, #-2147483648	; 0x80000000
    21e4:	05150204 	ldreq	r0, [r5, #-516]	; 0xfffffdfc
    21e8:	0402000d 	streq	r0, [r2], #-13
    21ec:	05010602 	streq	r0, [r1, #-1538]	; 0xfffff9fe
    21f0:	04020007 	streq	r0, [r2], #-7
    21f4:	09054a02 	stmdbeq	r5, {r1, r9, fp, lr}
    21f8:	05054b06 	streq	r4, [r5, #-2822]	; 0xfffff4fa
    21fc:	06170515 			; <UNDEFINED> instruction: 0x06170515
    2200:	4a100501 	bmi	40360c <__bss_end__+0x3f863c>
    2204:	2f060505 	svccs	0x00060505
    2208:	01061b05 	tsteq	r6, r5, lsl #22
    220c:	052e0e05 	streq	r0, [lr, #-3589]!	; 0xfffff1fb
    2210:	05052f01 	streq	r2, [r5, #-3841]	; 0xfffff0ff
    2214:	01040200 	mrseq	r0, R12_usr
    2218:	4a770306 	bmi	1dc2e38 <__bss_end__+0x1db7e68>
    221c:	01040200 	mrseq	r0, R12_usr
    2220:	04020001 	streq	r0, [r2], #-1
    2224:	009e0601 	addseq	r0, lr, r1, lsl #12
    2228:	2e010402 	cdpcs	4, 0, cr0, cr1, cr2, {0}
    222c:	01040200 	mrseq	r0, R12_usr
    2230:	09052e06 	stmdbeq	r5, {r1, r2, r9, sl, fp, sp}
    2234:	d6060132 			; <UNDEFINED> instruction: 0xd6060132
    2238:	052e062e 	streq	r0, [lr, #-1582]!	; 0xfffff9d2
    223c:	0505de19 	streq	sp, [r5, #-3609]	; 0xfffff1e7
    2240:	0805142f 	stmdaeq	r5, {r0, r1, r2, r3, r5, sl, ip}
    2244:	07050106 	streq	r0, [r5, -r6, lsl #2]
    2248:	0609054a 	streq	r0, [r9], -sl, asr #10
    224c:	1305054b 	movwne	r0, #21835	; 0x554b
    2250:	01060c05 	tsteq	r6, r5, lsl #24
    2254:	67060505 	strvs	r0, [r6, -r5, lsl #10]
    2258:	06010513 			; <UNDEFINED> instruction: 0x06010513
    225c:	06090567 	streq	r0, [r9], -r7, ror #10
    2260:	059e012a 	ldreq	r0, [lr, #298]	; 0x12a
    2264:	0106a528 	tsteq	r6, r8, lsr #10
    2268:	4b060505 	blmi	183684 <__bss_end__+0x1786b4>
    226c:	062e0601 	strteq	r0, [lr], -r1, lsl #12
    2270:	0513012e 	ldreq	r0, [r3, #-302]	; 0xfffffed2
    2274:	01470318 	cmpeq	r7, r8, lsl r3
    2278:	01130505 	tsteq	r3, r5, lsl #10
    227c:	0f060106 	svceq	0x00060106
    2280:	05130115 	ldreq	r0, [r3, #-277]	; 0xfffffeeb
    2284:	0501060e 	streq	r0, [r1, #-1550]	; 0xfffff9f2
    2288:	052e2e16 	streq	r2, [lr, #-3606]!	; 0xfffff1ea
    228c:	39030605 	stmdbcc	r3, {r0, r2, r9, sl}
    2290:	060b0501 	streq	r0, [fp], -r1, lsl #10
    2294:	06050501 	streq	r0, [r5], -r1, lsl #10
    2298:	060a054b 	streq	r0, [sl], -fp, asr #10
    229c:	06050501 	streq	r0, [r5], -r1, lsl #10
    22a0:	060d054b 	streq	r0, [sp], -fp, asr #10
    22a4:	2e070501 	cfsh32cs	mvfx0, mvfx7, #1
    22a8:	054d0105 	strbeq	r0, [sp, #-261]	; 0xfffffefb
    22ac:	04020005 	streq	r0, [r2], #-5
    22b0:	78030601 	stmdavc	r3, {r0, r9, sl}
    22b4:	0402004a 	streq	r0, [r2], #-74	; 0xffffffb6
    22b8:	02000101 	andeq	r0, r0, #1073741824	; 0x40000000
    22bc:	ba060104 	blt	1826d4 <__bss_end__+0x177704>
    22c0:	01040200 	mrseq	r0, R12_usr
    22c4:	09052e06 	stmdbeq	r5, {r1, r2, r9, sl, fp, sp}
    22c8:	82060134 	andhi	r0, r6, #13
    22cc:	052e0666 	streq	r0, [lr, #-1638]!	; 0xfffff99a
    22d0:	0106db20 	tsteq	r6, r0, lsr #22
    22d4:	4b060505 	blmi	1836f0 <__bss_end__+0x178720>
    22d8:	04020001 	streq	r0, [r2], #-1
    22dc:	02004a02 	andeq	r4, r0, #8192	; 0x2000
    22e0:	00010204 	andeq	r0, r1, r4, lsl #4
    22e4:	13020402 	movwne	r0, #9218	; 0x2402
    22e8:	02001205 	andeq	r1, r0, #1342177280	; 0x50000000
    22ec:	01060204 	tsteq	r6, r4, lsl #4
    22f0:	02040200 	andeq	r0, r4, #0, 4
    22f4:	0402002e 	streq	r0, [r2], #-46	; 0xffffffd2
    22f8:	05052e02 	streq	r2, [r5, #-3586]	; 0xfffff1fe
    22fc:	02040200 	andeq	r0, r4, #0, 4
    2300:	02002f06 	andeq	r2, r0, #6, 30
    2304:	05670204 	strbeq	r0, [r7, #-516]!	; 0xfffffdfc
    2308:	04020001 	streq	r0, [r2], #-1
    230c:	05130602 	ldreq	r0, [r3, #-1538]	; 0xfffff9fe
    2310:	04020005 	streq	r0, [r2], #-5
    2314:	00620601 	rsbeq	r0, r2, r1, lsl #12
    2318:	01010402 	tsteq	r1, r2, lsl #8
    231c:	01040200 	mrseq	r0, R12_usr
    2320:	0200ba06 	andeq	fp, r0, #24576	; 0x6000
    2324:	2e060104 	adfcss	f0, f6, f4
    2328:	0a033c05 	beq	d1344 <__bss_end__+0xc6374>
    232c:	0501069e 	streq	r0, [r1, #-1694]	; 0xfffff962
    2330:	014b0605 	cmpeq	fp, r5, lsl #12
    2334:	2e062e06 	cdpcs	14, 0, cr2, cr6, cr6, {0}
    2338:	05011301 	streq	r1, [r1, #-769]	; 0xfffffcff
    233c:	7fad0318 	svcvc	0x00ad0318
    2340:	13050501 	movwne	r0, #21761	; 0x5501
    2344:	01061105 	tsteq	r6, r5, lsl #2
    2348:	0305052e 	movweq	r0, #21806	; 0x552e
    234c:	060100d2 			; <UNDEFINED> instruction: 0x060100d2
    2350:	1805134a 	stmdane	r5, {r1, r3, r6, r8, r9, ip}
    2354:	017fa303 	cmneq	pc, r3, lsl #6
    2358:	05130505 	ldreq	r0, [r3, #-1285]	; 0xfffffafb
    235c:	4a010616 	bmi	43bbc <__bss_end__+0x38bec>
    2360:	03060505 	movweq	r0, #25861	; 0x6505
    2364:	050100e1 	streq	r0, [r1, #-225]	; 0xffffff1f
    2368:	05010612 	streq	r0, [r1, #-1554]	; 0xfffff9ee
    236c:	054b0605 	strbeq	r0, [fp, #-1541]	; 0xfffff9fb
    2370:	7fa90318 	svcvc	0x00a90318
    2374:	13050501 	movwne	r0, #21761	; 0x5501
    2378:	0e180501 	cfmul32eq	mvfx0, mvfx8, mvfx1
    237c:	05130505 	ldreq	r0, [r3, #-1285]	; 0xfffffafb
    2380:	2e010611 	mcrcs	6, 0, r0, cr1, cr1, {0}
    2384:	06150505 	ldreq	r0, [r5], -r5, lsl #10
    2388:	0513014a 	ldreq	r0, [r3, #-330]	; 0xfffffeb6
    238c:	2e01060e 	cfmadd32cs	mvax0, mvfx0, mvfx1, mvfx14
    2390:	2e2e1605 	cfmadda32cs	mvax0, mvax1, mvfx14, mvfx5
    2394:	03060505 	movweq	r0, #25861	; 0x6505
    2398:	010100d6 	ldrdeq	r0, [r1, -r6]
    239c:	9f031805 	svcls	0x00031805
    23a0:	0505017f 	streq	r0, [r5, #-383]	; 0xfffffe81
    23a4:	06190513 			; <UNDEFINED> instruction: 0x06190513
    23a8:	05052e01 	streq	r2, [r5, #-3585]	; 0xfffff1ff
    23ac:	0100e003 	tsteq	r0, r3
    23b0:	02040200 	andeq	r0, r4, #0, 4
    23b4:	02004a06 	andeq	r4, r0, #24576	; 0x6000
    23b8:	05140204 	ldreq	r0, [r4, #-516]	; 0xfffffdfc
    23bc:	0402000a 	streq	r0, [r2], #-10
    23c0:	05010602 	streq	r0, [r1, #-1538]	; 0xfffff9fe
    23c4:	04020005 	streq	r0, [r2], #-5
    23c8:	054b0602 	strbeq	r0, [fp, #-1538]	; 0xfffff9fe
    23cc:	0402000c 	streq	r0, [r2], #-12
    23d0:	05010602 	streq	r0, [r1, #-1538]	; 0xfffff9fe
    23d4:	04020001 	streq	r0, [r2], #-1
    23d8:	05052f02 	streq	r2, [r5, #-3842]	; 0xfffff0fe
    23dc:	01040200 	mrseq	r0, R12_usr
    23e0:	4a730306 	bmi	1cc3000 <__bss_end__+0x1cb8030>
    23e4:	01040200 	mrseq	r0, R12_usr
    23e8:	04020001 	streq	r0, [r2], #-1
    23ec:	009e0601 	addseq	r0, lr, r1, lsl #12
    23f0:	2e010402 	cdpcs	4, 0, cr0, cr1, cr2, {0}
    23f4:	01040200 	mrseq	r0, R12_usr
    23f8:	02002e06 	andeq	r2, r0, #96	; 0x60
    23fc:	002f0104 	eoreq	r0, pc, r4, lsl #2
    2400:	2e010402 	cdpcs	4, 0, cr0, cr1, cr2, {0}
    2404:	01040200 	mrseq	r0, R12_usr
    2408:	7fb103d6 	svcvc	0x00b103d6
    240c:	8206012e 	andhi	r0, r6, #-2147483637	; 0x8000000b
    2410:	2e062e2e 	cdpcs	14, 0, cr2, cr6, cr14, {1}
    2414:	02002e06 	andeq	r2, r0, #96	; 0x60
    2418:	03060104 	movweq	r0, #24836	; 0x6104
    241c:	000100d7 	ldrdeq	r0, [r1], -r7
    2420:	2e010402 	cdpcs	4, 0, cr0, cr1, cr2, {0}
    2424:	01040200 	mrseq	r0, R12_usr
    2428:	081505d6 	ldmdaeq	r5, {r1, r2, r4, r6, r7, r8, sl}
    242c:	0117057b 	tsteq	r7, fp, ror r5
    2430:	05311605 	ldreq	r1, [r1, #-1541]!	; 0xfffff9fb
    2434:	1d050118 	stfnes	f0, [r5, #-96]	; 0xffffffa0
    2438:	2b050106 	blcs	142858 <__bss_end__+0x137888>
    243c:	06190566 	ldreq	r0, [r9], -r6, ror #10
    2440:	1305054d 	movwne	r0, #21837	; 0x554d
    2444:	01060c05 	tsteq	r6, r5, lsl #24
    2448:	054a0705 	strbeq	r0, [sl, #-1797]	; 0xfffff8fb
    244c:	04020025 	streq	r0, [r2], #-37	; 0xffffffdb
    2450:	1e054a01 	vmlane.f32	s8, s10, s2
    2454:	01040200 	mrseq	r0, R12_usr
    2458:	0609054a 	streq	r0, [r9], -sl, asr #10
    245c:	1305054b 	movwne	r0, #21835	; 0x554b
    2460:	01060a05 	tsteq	r6, r5, lsl #20
    2464:	05631905 	strbeq	r1, [r3, #-2309]!	; 0xfffff6fb
    2468:	014c0609 	cmpeq	ip, r9, lsl #12
    246c:	2e069e06 	cdpcs	14, 0, cr9, cr6, cr6, {0}
    2470:	01000a02 	tsteq	r0, r2, lsl #20
    2474:	00028901 	andeq	r8, r2, r1, lsl #18
    2478:	c9000300 	stmdbgt	r0, {r8, r9}
    247c:	02000000 	andeq	r0, r0, #0, 0
    2480:	0d0efb01 	vstreq	d15, [lr, #-4]
    2484:	01010100 	mrseq	r0, (UNDEF: 17)
    2488:	00000001 	andeq	r0, r0, r1
    248c:	01000001 	tsteq	r0, r1
    2490:	72732f2e 	rsbsvc	r2, r3, #184	; 0xb8
    2494:	552f0063 	strpl	r0, [pc, #-99]!	; 2439 <__code_start__-0x5bc7>
    2498:	73726573 	cmnvc	r2, #482344960	; 0x1cc00000
    249c:	6c696d2f 	stclvs	13, cr6, [r9], #-188	; 0xffffff44
    24a0:	532f7365 			; <UNDEFINED> instruction: 0x532f7365
    24a4:	6372756f 	cmnvs	r2, #465567744	; 0x1bc00000
    24a8:	73632f65 	cmnvc	r3, #404	; 0x194
    24ac:	6c303432 	cfldrsvs	mvf3, [r0], #-200	; 0xffffff38
    24b0:	696c2f78 	stmdbvs	ip!, {r3, r4, r5, r6, r8, r9, sl, fp, sp}^
    24b4:	2f697062 	svccs	0x00697062
    24b8:	6c636e69 	stclvs	14, cr6, [r3], #-420	; 0xfffffe5c
    24bc:	00656475 	rsbeq	r6, r5, r5, ror r4
    24c0:	74706f2f 	ldrbtvc	r6, [r0], #-3887	; 0xfffff0d1
    24c4:	6d6f682f 	stclvs	8, cr6, [pc, #-188]!	; 2410 <__code_start__-0x5bf0>
    24c8:	65726265 	ldrbvs	r6, [r2, #-613]!	; 0xfffffd9b
    24cc:	65432f77 	strbvs	r2, [r3, #-3959]	; 0xfffff089
    24d0:	72616c6c 	rsbvc	r6, r1, #108, 24	; 0x6c00
    24d4:	6d72612f 	ldfvse	f6, [r2, #-188]!	; 0xffffff44
    24d8:	6e6f6e2d 	cdpvs	14, 6, cr6, cr15, cr13, {1}
    24dc:	61652d65 	cmnvs	r5, r5, ror #26
    24e0:	392d6962 	pushcc	{r1, r5, r6, r8, fp, sp, lr}
    24e4:	322d392f 	eorcc	r3, sp, #770048	; 0xbc000
    24e8:	71393130 	teqvc	r9, r0, lsr r1
    24ec:	73632d34 	cmnvc	r3, #52, 26	; 0xd00
    24f0:	65373031 	ldrvs	r3, [r7, #-49]!	; 0xffffffcf
    24f4:	62696c2f 	rsbvs	r6, r9, #12032	; 0x2f00
    24f8:	6363672f 	cmnvs	r3, #12320768	; 0xbc0000
    24fc:	6d72612f 	ldfvse	f6, [r2, #-188]!	; 0xffffff44
    2500:	6e6f6e2d 	cdpvs	14, 6, cr6, cr15, cr13, {1}
    2504:	61652d65 	cmnvs	r5, r5, ror #26
    2508:	392f6962 	stmdbcc	pc!, {r1, r5, r6, r8, fp, sp, lr}	; <UNPREDICTABLE>
    250c:	312e322e 			; <UNDEFINED> instruction: 0x312e322e
    2510:	636e692f 	cmnvs	lr, #770048	; 0xbc000
    2514:	6564756c 	strbvs	r7, [r4, #-1388]!	; 0xfffffa94
    2518:	70670000 	rsbvc	r0, r7, r0
    251c:	632e6f69 			; <UNDEFINED> instruction: 0x632e6f69
    2520:	00000100 	andeq	r0, r0, r0, lsl #2
    2524:	2e697072 	mcrcs	0, 3, r7, cr9, cr2, {3}
    2528:	00020068 	andeq	r0, r2, r8, rrx
    252c:	64747300 	ldrbtvs	r7, [r4], #-768	; 0xfffffd00
    2530:	2d746e69 	ldclcs	14, cr6, [r4, #-420]!	; 0xfffffe5c
    2534:	2e636367 	cdpcs	3, 6, cr6, cr3, cr7, {3}
    2538:	00030068 	andeq	r0, r3, r8, rrx
    253c:	69706700 	ldmdbvs	r0!, {r8, r9, sl, sp, lr}^
    2540:	00682e6f 	rsbeq	r2, r8, pc, ror #28
    2544:	00000002 	andeq	r0, r0, r2
    2548:	05003805 	streq	r3, [r0, #-2053]	; 0xfffff7fb
    254c:	009f5802 	addseq	r5, pc, r2, lsl #16
    2550:	01270300 			; <UNDEFINED> instruction: 0x01270300
    2554:	05130505 	ldreq	r0, [r3, #-1285]	; 0xfffffafb
    2558:	05010607 	streq	r0, [r1, #-1543]	; 0xfffff9f9
    255c:	05490606 	strbeq	r0, [r9, #-1542]	; 0xfffff9fa
    2560:	07051505 	streq	r1, [r5, -r5, lsl #10]
    2564:	38050106 	stmdacc	r5, {r1, r2, r8}
    2568:	4d07052b 	cfstr32mi	mvfx0, [r7, #-172]	; 0xffffff54
    256c:	30060505 	andcc	r0, r6, r5, lsl #10
    2570:	01061805 	tsteq	r6, r5, lsl #16
    2574:	05671c05 	strbeq	r1, [r7, #-3077]!	; 0xfffff3fb
    2578:	18054a0e 	stmdane	r5, {r1, r2, r3, r9, fp, lr}
    257c:	4d12052d 	cfldr32mi	mvfx0, [r2, #-180]	; 0xffffff4c
    2580:	0e052f2e 	cdpeq	15, 0, cr2, cr5, cr14, {1}
    2584:	0605052a 	streq	r0, [r5], -sl, lsr #10
    2588:	0513142f 	ldreq	r1, [r3, #-1071]	; 0xfffffbd1
    258c:	05010607 	streq	r0, [r1, #-1543]	; 0xfffff9f9
    2590:	132f0605 			; <UNDEFINED> instruction: 0x132f0605
    2594:	052e2e06 	streq	r2, [lr, #-3590]!	; 0xfffff1fa
    2598:	05051301 	streq	r1, [r5, #-769]	; 0xfffffcff
    259c:	24052e2d 	strcs	r2, [r5], #-3629	; 0xfffff1d3
    25a0:	02050006 	andeq	r0, r5, #6, 0
    25a4:	00009fb8 			; <UNDEFINED> instruction: 0x00009fb8
    25a8:	13050515 	movwne	r0, #21781	; 0x5515
    25ac:	71030605 	tstvc	r3, r5, lsl #12
    25b0:	13050501 	movwne	r0, #21761	; 0x5501
    25b4:	01060705 	tsteq	r6, r5, lsl #14
    25b8:	49060605 	stmdbmi	r6, {r0, r2, r9, sl}
    25bc:	14150505 	ldrne	r0, [r5], #-1285	; 0xfffffafb
    25c0:	03062405 	movweq	r2, #25605	; 0x6405
    25c4:	18050109 	stmdane	r5, {r0, r3, r8}
    25c8:	052e7703 	streq	r7, [lr, #-1795]!	; 0xfffff8fd
    25cc:	0e05671c 	mcreq	7, 0, r6, cr5, cr12, {0}
    25d0:	2d18054a 	cfldr32cs	mvfx0, [r8, #-296]	; 0xfffffed8
    25d4:	2e4d1205 	cdpcs	2, 4, cr1, cr13, cr5, {0}
    25d8:	2f0f052f 	svccs	0x000f052f
    25dc:	05290e05 	streq	r0, [r9, #-3589]!	; 0xfffff1fb
    25e0:	142f0605 	strtne	r0, [pc], #-1541	; 25e8 <__code_start__-0x5a18>
    25e4:	06070513 			; <UNDEFINED> instruction: 0x06070513
    25e8:	06050501 	streq	r0, [r5], -r1, lsl #10
    25ec:	2e06132f 	cdpcs	3, 0, cr1, cr6, cr15, {1}
    25f0:	05330105 	ldreq	r0, [r3, #-261]!	; 0xfffffefb
    25f4:	052e2905 	streq	r2, [lr, #-2309]!	; 0xfffff6fb
    25f8:	05000627 	streq	r0, [r0, #-1575]	; 0xfffff9d9
    25fc:	00a01002 	adceq	r1, r0, r2
    2600:	05051a00 	streq	r1, [r5, #-2560]	; 0xfffff600
    2604:	06270513 			; <UNDEFINED> instruction: 0x06270513
    2608:	2f180511 	svccs	0x00180511
    260c:	2e2e0505 	cfsh64cs	mvdx0, mvdx14, #5
    2610:	0628054a 	strteq	r0, [r8], -sl, asr #10
    2614:	28020500 	stmdacs	r2, {r8, sl}
    2618:	160000a0 	strne	r0, [r0], -r0, lsr #1
    261c:	05130505 	ldreq	r0, [r3, #-1285]	; 0xfffffafb
    2620:	05110628 	ldreq	r0, [r1, #-1576]	; 0xfffff9d8
    2624:	05052f18 	streq	r2, [r5, #-3864]	; 0xfffff0e8
    2628:	054a2e2e 	strbeq	r2, [sl, #-3630]	; 0xfffff1d2
    262c:	05000623 	streq	r0, [r0, #-1571]	; 0xfffff9dd
    2630:	00a04002 	adceq	r4, r0, r2
    2634:	05051600 	streq	r1, [r5, #-1536]	; 0xfffffa00
    2638:	03060513 	movweq	r0, #25875	; 0x6513
    263c:	05050162 	streq	r0, [r5, #-354]	; 0xfffffe9e
    2640:	06070513 			; <UNDEFINED> instruction: 0x06070513
    2644:	06060501 	streq	r0, [r6], -r1, lsl #10
    2648:	15050549 	strne	r0, [r5, #-1353]	; 0xfffffab7
    264c:	23051314 	movwcs	r1, #21268	; 0x5314
    2650:	01170306 	tsteq	r7, r6, lsl #6
    2654:	69032205 	stmdbvs	r3, {r0, r2, r9, sp}
    2658:	821c052e 	andshi	r0, ip, #192937984	; 0xb800000
    265c:	2e0e052e 	cfsh32cs	mvfx0, mvfx14, #30
    2660:	30060505 	andcc	r0, r6, r5, lsl #10
    2664:	01061205 	tsteq	r6, r5, lsl #4
    2668:	05052d4b 	streq	r2, [r5, #-3403]	; 0xfffff2b5
    266c:	13132f06 	tstne	r3, #6, 30
    2670:	03061805 	movweq	r1, #26629	; 0x6805
    2674:	0e05017a 	mcreq	1, 0, r0, cr5, cr10, {3}
    2678:	3405054a 	strcc	r0, [r5], #-1354	; 0xfffffab6
    267c:	0301052e 	movweq	r0, #5422	; 0x152e
    2680:	05052e14 	streq	r2, [r5, #-3604]	; 0xfffff1ec
    2684:	2e2e6c03 	cdpcs	12, 2, cr6, cr14, cr3, {0}
    2688:	00062b05 	andeq	r2, r6, r5, lsl #22
    268c:	a0980205 	addsge	r0, r8, r5, lsl #4
    2690:	17030000 	strne	r0, [r3, -r0]
    2694:	13050501 	movwne	r0, #21761	; 0x5501
    2698:	01060705 	tsteq	r6, r5, lsl #14
    269c:	71031805 	tstvc	r3, r5, lsl #16
    26a0:	032b052e 			; <UNDEFINED> instruction: 0x032b052e
    26a4:	07052e0e 	streq	r2, [r5, -lr, lsl #28]
    26a8:	0609052f 	streq	r0, [r9], -pc, lsr #10
    26ac:	030d052f 	movweq	r0, #54575	; 0xd52f
    26b0:	0505016f 	streq	r0, [r5, #-367]	; 0xfffffe91
    26b4:	2e2e0613 	mcrcs	6, 1, r0, cr14, cr3, {0}
    26b8:	0609052e 	streq	r0, [r9], -lr, lsr #10
    26bc:	05011203 	streq	r1, [r1, #-515]	; 0xfffffdfd
    26c0:	0172030d 	cmneq	r2, sp, lsl #6
    26c4:	06130505 	ldreq	r0, [r3], -r5, lsl #10
    26c8:	1d052e2e 	stcne	14, cr2, [r5, #-184]	; 0xffffff48
    26cc:	66100306 	ldrvs	r0, [r0], -r6, lsl #6
    26d0:	05130505 	ldreq	r0, [r3, #-1285]	; 0xfffffafb
    26d4:	2e11061d 	mrccs	6, 0, r0, cr1, cr13, {0}
    26d8:	30060505 	andcc	r0, r6, r5, lsl #10
    26dc:	060e0513 			; <UNDEFINED> instruction: 0x060e0513
    26e0:	30170510 	andscc	r0, r7, r0, lsl r5
    26e4:	0502042e 	streq	r0, [r2, #-1070]	; 0xfffffbd2
    26e8:	dd030630 	stcle	6, cr0, [r3, #-192]	; 0xffffff40
    26ec:	01042e00 	tsteq	r4, r0, lsl #28
    26f0:	03060e05 	movweq	r0, #28165	; 0x6e05
    26f4:	05017fa2 	streq	r7, [r1, #-4002]	; 0xfffff05e
    26f8:	01052f23 	tsteq	r5, r3, lsr #30
    26fc:	0006022f 	andeq	r0, r6, pc, lsr #4
    2700:	009e0101 	addseq	r0, lr, r1, lsl #2
    2704:	00030000 	andeq	r0, r3, r0
    2708:	0000005a 	andeq	r0, r0, sl, asr r0
    270c:	0efb0102 	cdpeq	1, 15, cr0, cr11, cr2, {0}
    2710:	0101000d 	tsteq	r1, sp
    2714:	00000101 	andeq	r0, r0, r1, lsl #2
    2718:	00000100 	andeq	r0, r0, r0, lsl #2
    271c:	6c2f2e01 	stcvs	14, cr2, [pc], #-4	; 2720 <__code_start__-0x58e0>
    2720:	00636269 	rsbeq	r6, r3, r9, ror #4
    2724:	6573552f 	ldrbvs	r5, [r3, #-1327]!	; 0xfffffad1
    2728:	6d2f7372 	stcvs	3, cr7, [pc, #-456]!	; 2568 <__code_start__-0x5a98>
    272c:	73656c69 	cmnvc	r5, #26880	; 0x6900
    2730:	756f532f 	strbvc	r5, [pc, #-815]!	; 2409 <__code_start__-0x5bf7>
    2734:	2f656372 	svccs	0x00656372
    2738:	34327363 	ldrtcc	r7, [r2], #-867	; 0xfffffc9d
    273c:	2f786c30 	svccs	0x00786c30
    2740:	7062696c 	rsbvc	r6, r2, ip, ror #18
    2744:	6e692f69 	cdpvs	15, 6, cr2, cr9, cr9, {3}
    2748:	64756c63 	ldrbtvs	r6, [r5], #-3171	; 0xfffff39d
    274c:	70000065 	andvc	r0, r0, r5, rrx
    2750:	68637475 	stmdavs	r3!, {r0, r2, r4, r5, r6, sl, ip, sp, lr}^
    2754:	632e7261 			; <UNDEFINED> instruction: 0x632e7261
    2758:	00000100 	andeq	r0, r0, r0, lsl #2
    275c:	2e697072 	mcrcs	0, 3, r7, cr9, cr2, {3}
    2760:	00020068 	andeq	r0, r2, r8, rrx
    2764:	24050000 	strcs	r0, [r5], #-0
    2768:	f0020500 			; <UNDEFINED> instruction: 0xf0020500
    276c:	140000a0 	strne	r0, [r0], #-160	; 0xffffff60
    2770:	05012605 	streq	r2, [r1, #-1541]	; 0xfffff9fb
    2774:	2e010624 	cfmadd32cs	mvax1, mvfx0, mvfx1, mvfx4
    2778:	052e2605 	streq	r2, [lr, #-1541]!	; 0xfffff9fb
    277c:	052e0634 	streq	r0, [lr, #-1588]!	; 0xfffff9cc
    2780:	05010601 	streq	r0, [r1, #-1537]	; 0xfffff9ff
    2784:	054f061b 	strbeq	r0, [pc, #-1563]	; 2171 <__code_start__-0x5e8f>
    2788:	11051305 	tstne	r5, r5, lsl #6
    278c:	01050106 	tsteq	r5, r6, lsl #2
    2790:	06230567 	strteq	r0, [r3], -r7, ror #10
    2794:	13050567 	movwne	r0, #21863	; 0x5567
    2798:	01061105 	tsteq	r6, r5, lsl #2
    279c:	024b0105 	subeq	r0, fp, #1073741825	; 0x40000001
    27a0:	01010004 	tsteq	r1, r4
    27a4:	000000e2 	andeq	r0, r0, r2, ror #1
    27a8:	00590003 	subseq	r0, r9, r3
    27ac:	01020000 	mrseq	r0, (UNDEF: 2)
    27b0:	000d0efb 	strdeq	r0, [sp], -fp
    27b4:	01010101 	tsteq	r1, r1, lsl #2
    27b8:	01000000 	mrseq	r0, (UNDEF: 0)
    27bc:	2e010000 	cdpcs	0, 0, cr0, cr1, cr0, {0}
    27c0:	62696c2f 	rsbvs	r6, r9, #12032	; 0x2f00
    27c4:	552f0063 	strpl	r0, [pc, #-99]!	; 2769 <__code_start__-0x5897>
    27c8:	73726573 	cmnvc	r2, #482344960	; 0x1cc00000
    27cc:	6c696d2f 	stclvs	13, cr6, [r9], #-188	; 0xffffff44
    27d0:	532f7365 			; <UNDEFINED> instruction: 0x532f7365
    27d4:	6372756f 	cmnvs	r2, #465567744	; 0x1bc00000
    27d8:	73632f65 	cmnvc	r3, #404	; 0x194
    27dc:	6c303432 	cfldrsvs	mvf3, [r0], #-200	; 0xffffff38
    27e0:	696c2f78 	stmdbvs	ip!, {r3, r4, r5, r6, r8, r9, sl, fp, sp}^
    27e4:	2f697062 	svccs	0x00697062
    27e8:	6c636e69 	stclvs	14, cr6, [r3], #-420	; 0xfffffe5c
    27ec:	00656475 	rsbeq	r6, r5, r5, ror r4
    27f0:	72747300 	rsbsvc	r7, r4, #0, 6
    27f4:	2e746163 	rpwcssz	f6, f4, f3
    27f8:	00010063 	andeq	r0, r1, r3, rrx
    27fc:	69707200 	ldmdbvs	r0!, {r9, ip, sp, lr}^
    2800:	0200682e 	andeq	r6, r0, #3014656	; 0x2e0000
    2804:	05000000 	streq	r0, [r0, #-0]
    2808:	0205002c 	andeq	r0, r5, #44, 0	; 0x2c
    280c:	0000a12c 	andeq	sl, r0, ip, lsr #2
    2810:	13050515 	movwne	r0, #21781	; 0x5515
    2814:	060b0513 			; <UNDEFINED> instruction: 0x060b0513
    2818:	00050511 	andeq	r0, r5, r1, lsl r5
    281c:	06010402 	streq	r0, [r1], -r2, lsl #8
    2820:	04020030 	streq	r0, [r2], #-48	; 0xffffffd0
    2824:	09051501 	stmdbeq	r5, {r0, r8, sl, ip}
    2828:	01040200 	mrseq	r0, R12_usr
    282c:	000b0513 	andeq	r0, fp, r3, lsl r5
    2830:	2f010402 	svccs	0x00010402
    2834:	02000505 	andeq	r0, r0, #20971520	; 0x1400000
    2838:	01060104 	tsteq	r6, r4, lsl #2
    283c:	01040200 	mrseq	r0, R12_usr
    2840:	054e062e 	strbeq	r0, [lr, #-1582]	; 0xfffff9d2
    2844:	05010608 	streq	r0, [r1, #-1544]	; 0xfffff9f8
    2848:	04020005 	streq	r0, [r2], #-5
    284c:	052f0601 	streq	r0, [pc, #-1537]!	; 2253 <__code_start__-0x5dad>
    2850:	04020009 	streq	r0, [r2], #-9
    2854:	0b051301 	bleq	147460 <__bss_end__+0x13c490>
    2858:	01040200 	mrseq	r0, R12_usr
    285c:	09050106 	stmdbeq	r5, {r1, r2, r8}
    2860:	01040200 	mrseq	r0, R12_usr
    2864:	05052f06 	streq	r2, [r5, #-3846]	; 0xfffff0fa
    2868:	01040200 	mrseq	r0, R12_usr
    286c:	0f051306 	svceq	0x00051306
    2870:	01040200 	mrseq	r0, R12_usr
    2874:	000d052d 	andeq	r0, sp, sp, lsr #10
    2878:	06010402 	streq	r0, [r1], -r2, lsl #8
    287c:	0005052f 	andeq	r0, r5, pc, lsr #10
    2880:	06010402 	streq	r0, [r1], -r2, lsl #8
    2884:	00040201 	andeq	r0, r4, r1, lsl #4
    2888:	00b20101 	adcseq	r0, r2, r1, lsl #2
    288c:	00030000 	andeq	r0, r3, r0
    2890:	00000059 	andeq	r0, r0, r9, asr r0
    2894:	0efb0102 	cdpeq	1, 15, cr0, cr11, cr2, {0}
    2898:	0101000d 	tsteq	r1, sp
    289c:	00000101 	andeq	r0, r0, r1, lsl #2
    28a0:	00000100 	andeq	r0, r0, r0, lsl #2
    28a4:	6c2f2e01 	stcvs	14, cr2, [pc], #-4	; 28a8 <__code_start__-0x5758>
    28a8:	00636269 	rsbeq	r6, r3, r9, ror #4
    28ac:	6573552f 	ldrbvs	r5, [r3, #-1327]!	; 0xfffffad1
    28b0:	6d2f7372 	stcvs	3, cr7, [pc, #-456]!	; 26f0 <__code_start__-0x5910>
    28b4:	73656c69 	cmnvc	r5, #26880	; 0x6900
    28b8:	756f532f 	strbvc	r5, [pc, #-815]!	; 2591 <__code_start__-0x5a6f>
    28bc:	2f656372 	svccs	0x00656372
    28c0:	34327363 	ldrtcc	r7, [r2], #-867	; 0xfffffc9d
    28c4:	2f786c30 	svccs	0x00786c30
    28c8:	7062696c 	rsbvc	r6, r2, ip, ror #18
    28cc:	6e692f69 	cdpvs	15, 6, cr2, cr9, cr9, {3}
    28d0:	64756c63 	ldrbtvs	r6, [r5], #-3171	; 0xfffff39d
    28d4:	73000065 	movwvc	r0, #101	; 0x65
    28d8:	6d637274 	sfmvs	f7, 2, [r3, #-464]!	; 0xfffffe30
    28dc:	00632e70 	rsbeq	r2, r3, r0, ror lr
    28e0:	72000001 	andvc	r0, r0, #1, 0
    28e4:	682e6970 	stmdavs	lr!, {r4, r5, r6, r8, fp, sp, lr}
    28e8:	00000200 	andeq	r0, r0, r0, lsl #4
    28ec:	002a0500 	eoreq	r0, sl, r0, lsl #10
    28f0:	a1580205 	cmpge	r8, r5, lsl #4
    28f4:	05140000 	ldreq	r0, [r4, #-0]
    28f8:	10051309 	andne	r1, r5, r9, lsl #6
    28fc:	0f050106 	svceq	0x00050106
    2900:	10052e06 	andne	r2, r5, r6, lsl #28
    2904:	0f058206 	svceq	0x00058206
    2908:	0011052e 	andseq	r0, r1, lr, lsr #10
    290c:	06010402 	streq	r0, [r1], -r2, lsl #8
    2910:	001c054b 	andseq	r0, ip, fp, asr #10
    2914:	06010402 	streq	r0, [r1], -r2, lsl #8
    2918:	000f052d 	andeq	r0, pc, sp, lsr #10
    291c:	06010402 	streq	r0, [r1], -r2, lsl #8
    2920:	0013052e 	andseq	r0, r3, lr, lsr #10
    2924:	06010402 	streq	r0, [r1], -r2, lsl #8
    2928:	06090501 	streq	r0, [r9], -r1, lsl #10
    292c:	0601054c 	streq	r0, [r1], -ip, asr #10
    2930:	09054a13 	stmdbeq	r5, {r0, r1, r4, r9, fp, lr}
    2934:	01052d06 	tsteq	r5, r6, lsl #26
    2938:	022e1306 	eoreq	r1, lr, #402653184	; 0x18000000
    293c:	01010002 	tsteq	r1, r2
    2940:	0000009d 	muleq	r0, sp, r0
    2944:	00590003 	subseq	r0, r9, r3
    2948:	01020000 	mrseq	r0, (UNDEF: 2)
    294c:	000d0efb 	strdeq	r0, [sp], -fp
    2950:	01010101 	tsteq	r1, r1, lsl #2
    2954:	01000000 	mrseq	r0, (UNDEF: 0)
    2958:	2e010000 	cdpcs	0, 0, cr0, cr1, cr0, {0}
    295c:	62696c2f 	rsbvs	r6, r9, #12032	; 0x2f00
    2960:	552f0063 	strpl	r0, [pc, #-99]!	; 2905 <__code_start__-0x56fb>
    2964:	73726573 	cmnvc	r2, #482344960	; 0x1cc00000
    2968:	6c696d2f 	stclvs	13, cr6, [r9], #-188	; 0xffffff44
    296c:	532f7365 			; <UNDEFINED> instruction: 0x532f7365
    2970:	6372756f 	cmnvs	r2, #465567744	; 0x1bc00000
    2974:	73632f65 	cmnvc	r3, #404	; 0x194
    2978:	6c303432 	cfldrsvs	mvf3, [r0], #-200	; 0xffffff38
    297c:	696c2f78 	stmdbvs	ip!, {r3, r4, r5, r6, r8, r9, sl, fp, sp}^
    2980:	2f697062 	svccs	0x00697062
    2984:	6c636e69 	stclvs	14, cr6, [r3], #-420	; 0xfffffe5c
    2988:	00656475 	rsbeq	r6, r5, r5, ror r4
    298c:	72747300 	rsbsvc	r7, r4, #0, 6
    2990:	2e797063 	cdpcs	0, 7, cr7, cr9, cr3, {3}
    2994:	00010063 	andeq	r0, r1, r3, rrx
    2998:	69707200 	ldmdbvs	r0!, {r9, ip, sp, lr}^
    299c:	0200682e 	andeq	r6, r0, #3014656	; 0x2e0000
    29a0:	05000000 	streq	r0, [r0, #-0]
    29a4:	0205002a 	andeq	r0, r5, #42, 0	; 0x2a
    29a8:	0000a19c 	muleq	r0, ip, r1
    29ac:	13050514 	movwne	r0, #21780	; 0x5514
    29b0:	00220513 	eoreq	r0, r2, r3, lsl r5
    29b4:	2e010402 	cdpcs	4, 0, cr0, cr1, cr2, {0}
    29b8:	02000b05 	andeq	r0, r0, #5120	; 0x1400
    29bc:	05010104 	streq	r0, [r1, #-260]	; 0xfffffefc
    29c0:	04020015 	streq	r0, [r2], #-21	; 0xffffffeb
    29c4:	05010601 	streq	r0, [r1, #-1537]	; 0xfffff9ff
    29c8:	0402000b 	streq	r0, [r2], #-11
    29cc:	13052e01 	movwne	r2, #24065	; 0x5e01
    29d0:	01040200 	mrseq	r0, R12_usr
    29d4:	000b052e 	andeq	r0, fp, lr, lsr #10
    29d8:	2e010402 	cdpcs	4, 0, cr0, cr1, cr2, {0}
    29dc:	01000402 	tsteq	r0, r2, lsl #8
    29e0:	0000fd01 	andeq	pc, r0, r1, lsl #26
    29e4:	bf000300 	svclt	0x00000300
    29e8:	02000000 	andeq	r0, r0, #0, 0
    29ec:	0d0efb01 	vstreq	d15, [lr, #-4]
    29f0:	01010100 	mrseq	r0, (UNDEF: 17)
    29f4:	00000001 	andeq	r0, r0, r1
    29f8:	01000001 	tsteq	r0, r1
    29fc:	696c2f2e 	stmdbvs	ip!, {r1, r2, r3, r5, r8, r9, sl, fp, sp}^
    2a00:	2f006362 	svccs	0x00006362
    2a04:	72657355 	rsbvc	r7, r5, #1409286145	; 0x54000001
    2a08:	696d2f73 	stmdbvs	sp!, {r0, r1, r4, r5, r6, r8, r9, sl, fp, sp}^
    2a0c:	2f73656c 	svccs	0x0073656c
    2a10:	72756f53 	rsbsvc	r6, r5, #332	; 0x14c
    2a14:	632f6563 			; <UNDEFINED> instruction: 0x632f6563
    2a18:	30343273 	eorscc	r3, r4, r3, ror r2
    2a1c:	6c2f786c 	stcvs	8, cr7, [pc], #-432	; 2874 <__code_start__-0x578c>
    2a20:	69706269 	ldmdbvs	r0!, {r0, r3, r5, r6, r9, sp, lr}^
    2a24:	636e692f 	cmnvs	lr, #770048	; 0xbc000
    2a28:	6564756c 	strbvs	r7, [r4, #-1388]!	; 0xfffffa94
    2a2c:	706f2f00 	rsbvc	r2, pc, r0, lsl #30
    2a30:	6f682f74 	svcvs	0x00682f74
    2a34:	7262656d 	rsbvc	r6, r2, #457179136	; 0x1b400000
    2a38:	432f7765 			; <UNDEFINED> instruction: 0x432f7765
    2a3c:	616c6c65 	cmnvs	ip, r5, ror #24
    2a40:	72612f72 	rsbvc	r2, r1, #456	; 0x1c8
    2a44:	6f6e2d6d 	svcvs	0x006e2d6d
    2a48:	652d656e 	strvs	r6, [sp, #-1390]!	; 0xfffffa92
    2a4c:	2d696261 	sfmcs	f6, 2, [r9, #-388]!	; 0xfffffe7c
    2a50:	2d392f39 	ldccs	15, cr2, [r9, #-228]!	; 0xffffff1c
    2a54:	39313032 	ldmdbcc	r1!, {r1, r4, r5, ip, sp}
    2a58:	632d3471 			; <UNDEFINED> instruction: 0x632d3471
    2a5c:	37303173 			; <UNDEFINED> instruction: 0x37303173
    2a60:	696c2f65 	stmdbvs	ip!, {r0, r2, r5, r6, r8, r9, sl, fp, sp}^
    2a64:	63672f62 	cmnvs	r7, #392	; 0x188
    2a68:	72612f63 	rsbvc	r2, r1, #396	; 0x18c
    2a6c:	6f6e2d6d 	svcvs	0x006e2d6d
    2a70:	652d656e 	strvs	r6, [sp, #-1390]!	; 0xfffffa92
    2a74:	2f696261 	svccs	0x00696261
    2a78:	2e322e39 	mrccs	14, 1, r2, cr2, cr9, {1}
    2a7c:	6e692f31 	mcrvs	15, 3, r2, cr9, cr1, {1}
    2a80:	64756c63 	ldrbtvs	r6, [r5], #-3171	; 0xfffff39d
    2a84:	73000065 	movwvc	r0, #101	; 0x65
    2a88:	636e7274 	cmnvs	lr, #116, 4	; 0x40000007
    2a8c:	632e706d 			; <UNDEFINED> instruction: 0x632e706d
    2a90:	00000100 	andeq	r0, r0, r0, lsl #2
    2a94:	2e697072 	mcrcs	0, 3, r7, cr9, cr2, {3}
    2a98:	00020068 	andeq	r0, r2, r8, rrx
    2a9c:	64747300 	ldrbtvs	r7, [r4], #-768	; 0xfffffd00
    2aa0:	2e666564 	cdpcs	5, 6, cr6, cr6, cr4, {3}
    2aa4:	00030068 	andeq	r0, r3, r8, rrx
    2aa8:	39050000 	stmdbcc	r5, {}	; <UNPREDICTABLE>
    2aac:	b4020500 	strlt	r0, [r2], #-1280	; 0xfffffb00
    2ab0:	150000a1 	strne	r0, [r0, #-161]	; 0xffffff5f
    2ab4:	13130505 	tstne	r3, #20971520	; 0x1400000
    2ab8:	2e060a05 	vmlacs.f32	s0, s12, s10
    2abc:	052f0c05 	streq	r0, [pc, #-3077]!	; 1ebf <__code_start__-0x6141>
    2ac0:	0b052e13 	bleq	14e314 <__bss_end__+0x143344>
    2ac4:	0609052e 	streq	r0, [r9], -lr, lsr #10
    2ac8:	110a054a 	tstne	sl, sl, asr #10
    2acc:	0c050106 	stfeqs	f0, [r5], {6}
    2ad0:	2f01054e 	svccs	0x0001054e
    2ad4:	2b060d05 	blcs	185ef0 <__bss_end__+0x17af20>
    2ad8:	01061b05 	tsteq	r6, r5, lsl #22
    2adc:	0002022e 	andeq	r0, r2, lr, lsr #4
    2ae0:	008a0101 	addeq	r0, sl, r1, lsl #2
    2ae4:	00030000 	andeq	r0, r3, r0
    2ae8:	0000006e 	andeq	r0, r0, lr, rrx
    2aec:	0efb0102 	cdpeq	1, 15, cr0, cr11, cr2, {0}
    2af0:	0101000d 	tsteq	r1, sp
    2af4:	00000101 	andeq	r0, r0, r1, lsl #2
    2af8:	00000100 	andeq	r0, r0, r0, lsl #2
    2afc:	732f2e01 			; <UNDEFINED> instruction: 0x732f2e01
    2b00:	66666174 			; <UNDEFINED> instruction: 0x66666174
    2b04:	6372732d 	cmnvs	r2, #-1275068416	; 0xb4000000
    2b08:	73552f00 	cmpvc	r5, #0, 30
    2b0c:	2f737265 	svccs	0x00737265
    2b10:	656c696d 	strbvs	r6, [ip, #-2413]!	; 0xfffff693
    2b14:	6f532f73 	svcvs	0x00532f73
    2b18:	65637275 	strbvs	r7, [r3, #-629]!	; 0xfffffd8b
    2b1c:	3273632f 	rsbscc	r6, r3, #-1140850688	; 0xbc000000
    2b20:	786c3034 	stmdavc	ip!, {r2, r4, r5, ip, sp}^
    2b24:	62696c2f 	rsbvs	r6, r9, #12032	; 0x2f00
    2b28:	692f6970 	stmdbvs	pc!, {r4, r5, r6, r8, fp, sp, lr}	; <UNPREDICTABLE>
    2b2c:	756c636e 	strbvc	r6, [ip, #-878]!	; 0xfffffc92
    2b30:	00006564 	andeq	r6, r0, r4, ror #10
    2b34:	61666564 	cmnvs	r6, r4, ror #10
    2b38:	2d746c75 	ldclcs	12, cr6, [r4, #-468]!	; 0xfffffe2c
    2b3c:	6f626572 	svcvs	0x00626572
    2b40:	632d746f 			; <UNDEFINED> instruction: 0x632d746f
    2b44:	6f6c6c61 	svcvs	0x006c6c61
    2b48:	632e7475 			; <UNDEFINED> instruction: 0x632e7475
    2b4c:	00000100 	andeq	r0, r0, r0, lsl #2
    2b50:	2e697072 	mcrcs	0, 3, r7, cr9, cr2, {3}
    2b54:	00020068 	andeq	r0, r2, r8, rrx
    2b58:	1b050000 	blne	142b60 <__bss_end__+0x137b90>
    2b5c:	e4020500 	str	r0, [r2], #-1280	; 0xfffffb00
    2b60:	140000a1 	strne	r0, [r0], #-161	; 0xffffff5f
    2b64:	05011c05 	streq	r1, [r1, #-3077]	; 0xfffff3fb
    2b68:	02010601 	andeq	r0, r1, #1048576	; 0x100000
    2b6c:	01010002 	tsteq	r1, r2

Disassembly of section .debug_str:

00000000 <.debug_str>:
   0:	726f6873 	rsbvc	r6, pc, #7536640	; 0x730000
   4:	6e692074 	mcrvs	0, 3, r2, cr9, cr4, {3}
   8:	70720074 	rsbsvc	r0, r2, r4, ror r0
   c:	75705f69 	ldrbvc	r5, [r0, #-3945]!	; 0xfffff097
  10:	61686374 	smcvs	34356	; 0x8634
  14:	6b630072 	blvs	18c01e4 <__bss_end__+0x18b5214>
  18:	6f6c6c61 	svcvs	0x006c6c61
  1c:	69660063 	stmdbvs	r6!, {r0, r1, r5, r6}^
  20:	5000656c 	andpl	r6, r0, ip, ror #10
  24:	32335455 	eorscc	r5, r3, #1426063360	; 0x55000000
  28:	6e756600 	cdpvs	6, 7, cr6, cr5, cr0, {0}
  2c:	6f6c0063 	svcvs	0x006c0063
  30:	6c20676e 	stcvs	7, cr6, [r0], #-440	; 0xfffffe48
  34:	20676e6f 	rsbcs	r6, r7, pc, ror #28
  38:	00746e69 	rsbseq	r6, r4, r9, ror #28
  3c:	736d656d 	cmnvc	sp, #457179136	; 0x1b400000
  40:	63007465 	movwvs	r7, #1125	; 0x465
  44:	63675f6b 	cmnvs	r7, #428	; 0x1ac
  48:	465f5f00 	ldrbmi	r5, [pc], -r0, lsl #30
  4c:	54434e55 	strbpl	r4, [r3], #-3669	; 0xfffff1ab
  50:	5f4e4f49 	svcpl	0x004e4f49
  54:	6c63005f 	stclvs	0, cr0, [r3], #-380	; 0xfffffe84
  58:	5f6e6165 	svcpl	0x006e6165
  5c:	6f626572 	svcvs	0x00626572
  60:	6300746f 	movwvs	r7, #1135	; 0x46f
  64:	65765f6b 	ldrbvs	r5, [r6, #-3947]!	; 0xfffff095
  68:	736f6272 	cmnvc	pc, #536870919	; 0x20000007
  6c:	00705f65 	rsbseq	r5, r0, r5, ror #30
  70:	69736e75 	ldmdbvs	r3!, {r0, r2, r4, r5, r6, r9, sl, fp, sp, lr}^
  74:	64656e67 	strbtvs	r6, [r5], #-3687	; 0xfffff199
  78:	61686320 	cmnvs	r8, r0, lsr #6
  7c:	552f0072 	strpl	r0, [pc, #-114]!	; 12 <__code_start__-0x7fee>
  80:	73726573 	cmnvc	r2, #482344960	; 0x1cc00000
  84:	6c696d2f 	stclvs	13, cr6, [r9], #-188	; 0xffffff44
  88:	532f7365 			; <UNDEFINED> instruction: 0x532f7365
  8c:	6372756f 	cmnvs	r2, #465567744	; 0x1bc00000
  90:	73632f65 	cmnvc	r3, #404	; 0x194
  94:	6c303432 	cfldrsvs	mvf3, [r0], #-200	; 0xffffff38
  98:	616c2f78 	smcvs	49912	; 0xc2f8
  9c:	352f7362 	strcc	r7, [pc, #-866]!	; fffffd42 <__bss_end__+0xffff4d72>
  a0:	6c616d2d 	stclvs	13, cr6, [r1], #-180	; 0xffffff4c
  a4:	2b636f6c 	blcs	18dbe5c <__bss_end__+0x18d0e8c>
  a8:	632f6367 			; <UNDEFINED> instruction: 0x632f6367
  ac:	0065646f 	rsbeq	r6, r5, pc, ror #8
  b0:	63656863 	cmnvs	r5, #6488064	; 0x630000
  b4:	6f6e5f6b 	svcvs	0x006e5f6b
  b8:	61656c5f 	cmnvs	r5, pc, asr ip
  bc:	696c006b 	stmdbvs	ip!, {r0, r1, r3, r5, r6}^
  c0:	6f6e656e 	svcvs	0x006e656e
  c4:	6e6f6c00 	cdpvs	12, 6, cr6, cr15, cr0, {0}
  c8:	6f6c2067 	svcvs	0x006c2067
  cc:	7520676e 	strvc	r6, [r0, #-1902]!	; 0xfffff892
  d0:	6769736e 	strbvs	r7, [r9, -lr, ror #6]!
  d4:	2064656e 	rsbcs	r6, r4, lr, ror #10
  d8:	00746e69 	rsbseq	r6, r4, r9, ror #28
  dc:	746e6975 	strbtvc	r6, [lr], #-2421	; 0xfffff68b
  e0:	745f3233 	ldrbvc	r3, [pc], #-563	; e8 <__code_start__-0x7f18>
  e4:	746f6e00 	strbtvc	r6, [pc], #-3584	; ec <__code_start__-0x7f14>
  e8:	6e69616d 	powvsez	f6, f1, #5.0
  ec:	73657400 	cmnvc	r5, #0, 8
  f0:	322d7374 	eorcc	r7, sp, #116, 6	; 0xd0000001
  f4:	702f302e 	eorvc	r3, pc, lr, lsr #32
  f8:	32747261 	rsbscc	r7, r4, #268435462	; 0x10000006
  fc:	7365742d 	cmnvc	r5, #754974720	; 0x2d000000
 100:	672d3574 			; <UNDEFINED> instruction: 0x672d3574
 104:	00632e63 	rsbeq	r2, r3, r3, ror #28
 108:	726f6873 	rsbvc	r6, pc, #7536640	; 0x730000
 10c:	6e752074 	mrcvs	0, 3, r2, cr5, cr4, {3}
 110:	6e676973 			; <UNDEFINED> instruction: 0x6e676973
 114:	69206465 	stmdbvs	r0!, {r0, r2, r5, r6, sl, sp, lr}
 118:	6300746e 	movwvs	r7, #1134	; 0x46e
 11c:	6b636568 	blvs	18d96c4 <__bss_end__+0x18ce6f4>
 120:	6f68735f 	svcvs	0x0068735f
 124:	5f646c75 	svcpl	0x00646c75
 128:	6b61656c 	blvs	18596e0 <__bss_end__+0x184e710>
 12c:	73657400 	cmnvc	r5, #0, 8
 130:	4e470074 	mcrmi	0, 2, r0, cr7, cr4, {3}
 134:	39432055 	stmdbcc	r3, {r0, r2, r4, r6, sp}^
 138:	2e392039 	mrccs	0, 1, r2, cr9, cr9, {1}
 13c:	20312e32 	eorscs	r2, r1, r2, lsr lr
 140:	39313032 	ldmdbcc	r1!, {r1, r4, r5, ip, sp}
 144:	35323031 	ldrcc	r3, [r2, #-49]!	; 0xffffffcf
 148:	65722820 	ldrbvs	r2, [r2, #-2080]!	; 0xfffff7e0
 14c:	7361656c 	cmnvc	r1, #108, 10	; 0x1b000000
 150:	5b202965 	blpl	80a6ec <__bss_end__+0x7ff71c>
 154:	2f4d5241 	svccs	0x004d5241
 158:	2d6d7261 	sfmcs	f7, 2, [sp, #-388]!	; 0xfffffe7c
 15c:	72622d39 	rsbvc	r2, r2, #3648	; 0xe40
 160:	68636e61 	stmdavs	r3!, {r0, r5, r6, r9, sl, fp, sp, lr}^
 164:	76657220 	strbtvc	r7, [r5], -r0, lsr #4
 168:	6f697369 	svcvs	0x00697369
 16c:	3732206e 	ldrcc	r2, [r2, -lr, rrx]!
 170:	39393537 	ldmdbcc	r9!, {r0, r1, r2, r4, r5, r8, sl, ip, sp}
 174:	6d2d205d 	stcvs	0, cr2, [sp, #-372]!	; 0xfffffe8c
 178:	3d757063 	ldclcc	0, cr7, [r5, #-396]!	; 0xfffffe74
 17c:	316d7261 	cmncc	sp, r1, ror #4
 180:	6a363731 	bvs	d8de4c <__bss_end__+0xd82e7c>
 184:	732d667a 			; <UNDEFINED> instruction: 0x732d667a
 188:	746d2d20 	strbtvc	r2, [sp], #-3360	; 0xfffff2e0
 18c:	3d656e75 	stclcc	14, cr6, [r5, #-468]!	; 0xfffffe2c
 190:	316d7261 	cmncc	sp, r1, ror #4
 194:	6a363731 	bvs	d8de60 <__bss_end__+0xd82e90>
 198:	732d667a 			; <UNDEFINED> instruction: 0x732d667a
 19c:	666d2d20 	strbtvs	r2, [sp], -r0, lsr #26
 1a0:	74616f6c 	strbtvc	r6, [r1], #-3948	; 0xfffff094
 1a4:	6962612d 	stmdbvs	r2!, {r0, r2, r3, r5, r8, sp, lr}^
 1a8:	666f733d 			; <UNDEFINED> instruction: 0x666f733d
 1ac:	6d2d2074 	stcvs	0, cr2, [sp, #-464]!	; 0xfffffe30
 1b0:	206d7261 	rsbcs	r7, sp, r1, ror #4
 1b4:	72616d2d 	rsbvc	r6, r1, #2880	; 0xb40
 1b8:	613d6863 	teqvs	sp, r3, ror #16
 1bc:	36766d72 			; <UNDEFINED> instruction: 0x36766d72
 1c0:	2d207a6b 	vstmdbcs	r0!, {s14-s120}
 1c4:	62646767 	rsbvs	r6, r4, #27000832	; 0x19c0000
 1c8:	664f2d20 	strbvs	r2, [pc], -r0, lsr #26
 1cc:	20747361 	rsbscs	r7, r4, r1, ror #6
 1d0:	6474732d 	ldrbtvs	r7, [r4], #-813	; 0xfffffcd3
 1d4:	756e673d 	strbvc	r6, [lr, #-1853]!	; 0xfffff8c3
 1d8:	2d203939 			; <UNDEFINED> instruction: 0x2d203939
 1dc:	65726666 	ldrbvs	r6, [r2, #-1638]!	; 0xfffff99a
 1e0:	61747365 	cmnvs	r4, r5, ror #6
 1e4:	6e69646e 	cdpvs	4, 6, cr6, cr9, cr14, {3}
 1e8:	72700067 	rsbsvc	r0, r0, #103, 0	; 0x67
 1ec:	73007665 	movwvc	r7, #1637	; 0x665
 1f0:	6c5f6372 	mrrcvs	3, 7, r6, pc, cr2	; <UNPREDICTABLE>
 1f4:	6d5f636f 	ldclvs	3, cr6, [pc, #-444]	; 40 <__code_start__-0x7fc0>
 1f8:	656e006b 	strbvs	r0, [lr, #-107]!	; 0xffffff95
 1fc:	73007478 	movwvc	r7, #1144	; 0x478
 200:	6c5f6372 	mrrcvs	3, 7, r6, pc, cr2	; <UNPREDICTABLE>
 204:	745f636f 	ldrbvc	r6, [pc], #-879	; 20c <__code_start__-0x7df4>
 208:	5f6b6300 	svcpl	0x006b6300
 20c:	5f727470 	svcpl	0x00727470
 210:	625f6e69 	subsvs	r6, pc, #1680	; 0x690
 214:	6b636f6c 	blvs	18dbfcc <__bss_end__+0x18d0ffc>
 218:	72646800 	rsbvc	r6, r4, #0, 16
 21c:	6200745f 	andvs	r7, r0, #1593835520	; 0x5f000000
 220:	6b636f6c 	blvs	18dbfd8 <__bss_end__+0x18d1008>
 224:	0064695f 	rsbeq	r6, r4, pc, asr r9
 228:	45455246 	strbmi	r5, [r5, #-582]	; 0xfffffdba
 22c:	626e0044 	rsbvs	r0, lr, #68, 0	; 0x44
 230:	73657479 	cmnvc	r5, #2030043136	; 0x79000000
 234:	6c6c615f 	stfvse	f6, [ip], #-380	; 0xfffffe84
 238:	5200636f 	andpl	r6, r0, #-1140850687	; 0xbc000001
 23c:	4f5a4445 	svcmi	0x005a4445
 240:	565f454e 	ldrbpl	r4, [pc], -lr, asr #10
 244:	52004c41 	andpl	r4, r0, #16640	; 0x4100
 248:	4f5a4445 	svcmi	0x005a4445
 24c:	4e5f454e 	cdpmi	5, 5, cr4, cr15, cr14, {2}
 250:	45545942 	ldrbmi	r5, [r4, #-2370]	; 0xfffff6be
 254:	6b630053 	blvs	18c03a8 <__bss_end__+0x18b53d8>
 258:	7269665f 	rsbvc	r6, r9, #99614720	; 0x5f00000
 25c:	685f7473 	ldmdavs	pc, {r0, r1, r4, r5, r6, sl, ip, sp, lr}^	; <UNPREDICTABLE>
 260:	75007264 	strvc	r7, [r0, #-612]	; 0xfffffd9c
 264:	38746e69 	ldmdacc	r4!, {r0, r3, r5, r6, r9, sl, fp, sp, lr}^
 268:	6300745f 	movwvs	r7, #1119	; 0x45f
 26c:	6572666b 	ldrbvs	r6, [r2, #-1643]!	; 0xfffff995
 270:	6c610065 	stclvs	0, cr0, [r1], #-404	; 0xfffffe6c
 274:	5f636f6c 	svcpl	0x00636f6c
 278:	7473696c 	ldrbtvc	r6, [r3], #-2412	; 0xfffff694
 27c:	73696c00 	cmnvc	r9, #0, 24
 280:	65725f74 	ldrbvs	r5, [r2, #-3956]!	; 0xfffff08c
 284:	65766f6d 	ldrbvs	r6, [r6, #-3949]!	; 0xfffff093
 288:	5f6b6300 	svcpl	0x006b6300
 28c:	00726468 	rsbseq	r6, r2, r8, ror #8
 290:	6f6c6c61 	svcvs	0x006c6c61
 294:	6f6c5f63 	svcvs	0x006c5f63
 298:	74730063 	ldrbtvc	r0, [r3], #-99	; 0xffffff9d
 29c:	00657461 	rsbeq	r7, r5, r1, ror #8
 2a0:	73666572 	cmnvc	r6, #478150656	; 0x1c800000
 2a4:	6174735f 	cmnvs	r4, pc, asr r3
 2a8:	75007472 	strvc	r7, [r0, #-1138]	; 0xfffffb8e
 2ac:	31746e69 	cmncc	r4, r9, ror #28
 2b0:	00745f36 	rsbseq	r5, r4, r6, lsr pc
 2b4:	705f6b63 	subsvc	r6, pc, r3, ror #22
 2b8:	695f7274 	ldmdbvs	pc, {r2, r4, r5, r6, r9, ip, sp, lr}^	; <UNPREDICTABLE>
 2bc:	6c615f73 	stclvs	15, cr5, [r1], #-460	; 0xfffffe34
 2c0:	65636f6c 	strbvs	r6, [r3, #-3948]!	; 0xfffff094
 2c4:	6b630064 	blvs	18c045c <__bss_end__+0x18b548c>
 2c8:	78656e5f 	stmdavc	r5!, {r0, r1, r2, r3, r4, r6, r9, sl, fp, sp, lr}^
 2cc:	64685f74 	strbtvs	r5, [r8], #-3956	; 0xfffff08c
 2d0:	6b630072 	blvs	18c04a0 <__bss_end__+0x18b54d0>
 2d4:	6f6c6c61 	svcvs	0x006c6c61
 2d8:	00632e63 	rsbeq	r2, r3, r3, ror #28
 2dc:	20554e47 	subscs	r4, r5, r7, asr #28
 2e0:	20393943 	eorscs	r3, r9, r3, asr #18
 2e4:	2e322e39 	mrccs	14, 1, r2, cr2, cr9, {1}
 2e8:	30322031 	eorscc	r2, r2, r1, lsr r0
 2ec:	30313931 	eorscc	r3, r1, r1, lsr r9
 2f0:	28203532 	stmdacs	r0!, {r1, r4, r5, r8, sl, ip, sp}
 2f4:	656c6572 	strbvs	r6, [ip, #-1394]!	; 0xfffffa8e
 2f8:	29657361 	stmdbcs	r5!, {r0, r5, r6, r8, r9, ip, sp, lr}^
 2fc:	52415b20 	subpl	r5, r1, #32, 22	; 0x8000
 300:	72612f4d 	rsbvc	r2, r1, #308	; 0x134
 304:	2d392d6d 	ldccs	13, cr2, [r9, #-436]!	; 0xfffffe4c
 308:	6e617262 	cdpvs	2, 6, cr7, cr1, cr2, {3}
 30c:	72206863 	eorvc	r6, r0, #6488064	; 0x630000
 310:	73697665 	cmnvc	r9, #105906176	; 0x6500000
 314:	206e6f69 	rsbcs	r6, lr, r9, ror #30
 318:	35373732 	ldrcc	r3, [r7, #-1842]!	; 0xfffff8ce
 31c:	205d3939 	subscs	r3, sp, r9, lsr r9
 320:	70636d2d 	rsbvc	r6, r3, sp, lsr #26
 324:	72613d75 	rsbvc	r3, r1, #7488	; 0x1d40
 328:	3731316d 	ldrcc	r3, [r1, -sp, ror #2]!
 32c:	667a6a36 			; <UNDEFINED> instruction: 0x667a6a36
 330:	2d20732d 	stccs	3, cr7, [r0, #-180]!	; 0xffffff4c
 334:	6e75746d 	cdpvs	4, 7, cr7, cr5, cr13, {3}
 338:	72613d65 	rsbvc	r3, r1, #6464	; 0x1940
 33c:	3731316d 	ldrcc	r3, [r1, -sp, ror #2]!
 340:	667a6a36 			; <UNDEFINED> instruction: 0x667a6a36
 344:	2d20732d 	stccs	3, cr7, [r0, #-180]!	; 0xffffff4c
 348:	6f6c666d 	svcvs	0x006c666d
 34c:	612d7461 			; <UNDEFINED> instruction: 0x612d7461
 350:	733d6962 	teqvc	sp, #1605632	; 0x188000
 354:	2074666f 	rsbscs	r6, r4, pc, ror #12
 358:	72616d2d 	rsbvc	r6, r1, #2880	; 0xb40
 35c:	6d2d206d 	stcvs	0, cr2, [sp, #-436]!	; 0xfffffe4c
 360:	68637261 	stmdavs	r3!, {r0, r5, r6, r9, ip, sp, lr}^
 364:	6d72613d 	ldfvse	f6, [r2, #-244]!	; 0xffffff0c
 368:	7a6b3676 	bvc	1acdd48 <__bss_end__+0x1ac2d78>
 36c:	67672d20 	strbvs	r2, [r7, -r0, lsr #26]!
 370:	2d206264 	sfmcs	f6, 4, [r0, #-400]!	; 0xfffffe70
 374:	2d20674f 	stccs	7, cr6, [r0, #-316]!	; 0xfffffec4
 378:	3d647473 	cfstrdcc	mvd7, [r4, #-460]!	; 0xfffffe34
 37c:	39756e67 	ldmdbcc	r5!, {r0, r1, r2, r5, r6, r9, sl, fp, sp, lr}^
 380:	662d2039 			; <UNDEFINED> instruction: 0x662d2039
 384:	65657266 	strbvs	r7, [r5, #-614]!	; 0xfffffd9a
 388:	6e617473 	mcrvs	4, 3, r7, cr1, cr3, {3}
 38c:	676e6964 	strbvs	r6, [lr, -r4, ror #18]!
 390:	66657200 	strbtvs	r7, [r5], -r0, lsl #4
 394:	696d5f73 	stmdbvs	sp!, {r0, r1, r4, r5, r6, r8, r9, sl, fp, ip, lr}^
 398:	656c6464 	strbvs	r6, [ip, #-1124]!	; 0xfffffb9c
 39c:	4c4c4100 	stfmie	f4, [ip], {-0}
 3a0:	4445434f 	strbmi	r4, [r5], #-847	; 0xfffffcb1
 3a4:	73552f00 	cmpvc	r5, #0, 30
 3a8:	2f737265 	svccs	0x00737265
 3ac:	656c696d 	strbvs	r6, [ip, #-2413]!	; 0xfffff693
 3b0:	6f532f73 	svcvs	0x00532f73
 3b4:	65637275 	strbvs	r7, [r3, #-629]!	; 0xfffffd8b
 3b8:	3273632f 	rsbscc	r6, r3, #-1140850688	; 0xbc000000
 3bc:	786c3034 	stmdavc	ip!, {r2, r4, r5, ip, sp}^
 3c0:	62616c2f 	rsbvs	r6, r1, #12032	; 0x2f00
 3c4:	2d362f73 	ldccs	15, cr2, [r6, #-460]!	; 0xfffffe34
 3c8:	75626564 	strbvc	r6, [r2, #-1380]!	; 0xfffffa9c
 3cc:	6c612d67 	stclvs	13, cr2, [r1], #-412	; 0xfffffe64
 3d0:	2f636f6c 	svccs	0x00636f6c
 3d4:	65646f63 	strbvs	r6, [r4, #-3939]!	; 0xfffff09d
 3d8:	5f6b6300 	svcpl	0x006b6300
 3dc:	5f726468 	svcpl	0x00726468
 3e0:	72617473 	rsbvc	r7, r1, #1929379840	; 0x73000000
 3e4:	6b630074 	blvs	18c05bc <__bss_end__+0x18b55ec>
 3e8:	7264685f 	rsbvc	r6, r4, #6225920	; 0x5f0000
 3ec:	646e655f 	strbtvs	r6, [lr], #-1375	; 0xfffffaa1
 3f0:	5f6b6300 	svcpl	0x006b6300
 3f4:	7479626e 	ldrbtvc	r6, [r9], #-622	; 0xfffffd92
 3f8:	6b007365 	blvs	1d194 <__bss_end__+0x121c4>
 3fc:	616d5f72 	smcvs	54770	; 0xd5f2
 400:	636f6c6c 	cmnvs	pc, #108, 24	; 0x6c00
 404:	61656800 	cmnvs	r5, r0, lsl #16
 408:	00726564 	rsbseq	r6, r2, r4, ror #10
 40c:	76657270 			; <UNDEFINED> instruction: 0x76657270
 410:	6c610070 	stclvs	0, cr0, [r1], #-448	; 0xfffffe40
 414:	006e6769 	rsbeq	r6, lr, r9, ror #14
 418:	665f726b 	ldrbvs	r7, [pc], -fp, ror #4
 41c:	00656572 	rsbeq	r6, r5, r2, ror r5
 420:	65657266 	strbvs	r7, [r5, #-614]!	; 0xfffffd9a
 424:	756e0070 	strbvc	r0, [lr, #-112]!	; 0xffffff90
 428:	7374696e 	cmnvc	r4, #1802240	; 0x1b8000
 42c:	2d726b00 	vldmdbcs	r2!, {d22-d21}
 430:	6c6c616d 	stfvse	f6, [ip], #-436	; 0xfffffe4c
 434:	632e636f 			; <UNDEFINED> instruction: 0x632e636f
 438:	756f6400 	strbvc	r6, [pc, #-1024]!	; 40 <__code_start__-0x7fc0>
 43c:	00656c62 	rsbeq	r6, r5, r2, ror #24
 440:	65736162 	ldrbvs	r6, [r3, #-354]!	; 0xfffffe9e
 444:	72627300 	rsbvc	r7, r2, #0, 6
 448:	6f6d006b 	svcvs	0x006d006b
 44c:	6f636572 	svcvs	0x00636572
 450:	73006572 	movwvc	r6, #1394	; 0x572
 454:	00657a69 	rsbeq	r7, r5, r9, ror #20
 458:	64616548 	strbtvs	r6, [r1], #-1352	; 0xfffffab8
 45c:	73007265 	movwvc	r7, #613	; 0x265
 460:	6b636174 	blvs	18d8a38 <__bss_end__+0x18cda68>
 464:	706f745f 	rsbvc	r7, pc, pc, asr r4	; <UNPREDICTABLE>
 468:	72616d00 	rsbvc	r6, r1, #0, 26
 46c:	6c615f6b 	stclvs	15, cr5, [r1], #-428	; 0xfffffe54
 470:	6d69006c 	stclvs	0, cr0, [r9, #-432]!	; 0xfffffe50
 474:	6d656c70 	stclvs	12, cr6, [r5, #-448]!	; 0xfffffe40
 478:	5f746e65 	svcpl	0x00746e65
 47c:	73696874 	cmnvc	r9, #116, 16	; 0x740000
 480:	625f5f00 	subsvs	r5, pc, #0, 30
 484:	735f7373 	cmpvc	pc, #-872415231	; 0xcc000001
 488:	74726174 	ldrbtvc	r6, [r2], #-372	; 0xfffffe8c
 48c:	6e005f5f 	mcrvs	15, 0, r5, cr0, cr15, {2}
 490:	636f6c62 	cmnvs	pc, #25088	; 0x6200
 494:	6900736b 	stmdbvs	r0, {r0, r1, r3, r5, r6, r8, r9, ip, sp, lr}
 498:	5f74696e 	svcpl	0x0074696e
 49c:	626e0070 	rsbvs	r0, lr, #112, 0	; 0x70
 4a0:	73657479 	cmnvc	r5, #2030043136	; 0x79000000
 4a4:	6572665f 	ldrbvs	r6, [r2, #-1631]!	; 0xfffff9a1
 4a8:	6f006465 	svcvs	0x00006465
 4ac:	6d5f646c 	cfldrdvs	mvd6, [pc, #-432]	; 304 <__code_start__-0x7cfc>
 4b0:	006b7261 	rsbeq	r7, fp, r1, ror #4
 4b4:	665f6b63 	ldrbvs	r6, [pc], -r3, ror #22
 4b8:	5f646e69 	svcpl	0x00646e69
 4bc:	6b61656c 	blvs	1859a74 <__bss_end__+0x184eaa4>
 4c0:	616d0073 	smcvs	53251	; 0xd003
 4c4:	5f656279 	svcpl	0x00656279
 4c8:	6f727265 	svcvs	0x00727265
 4cc:	64007372 	strvs	r7, [r0], #-882	; 0xfffffc8e
 4d0:	5f706d75 	svcpl	0x00706d75
 4d4:	73676572 	cmnvc	r7, #478150656	; 0x1c800000
 4d8:	656c6e00 	strbvs	r6, [ip, #-3584]!	; 0xfffff200
 4dc:	00736b61 	rsbseq	r6, r3, r1, ror #22
 4e0:	72636e69 	rsbvc	r6, r3, #1680	; 0x690
 4e4:	6e656d65 	cdpvs	13, 6, cr6, cr5, cr5, {3}
 4e8:	5f5f0074 	svcpl	0x005f0074
 4ec:	61746164 	cmnvs	r4, r4, ror #2
 4f0:	646e655f 	strbtvs	r6, [lr], #-1375	; 0xfffffaa1
 4f4:	69005f5f 	stmdbvs	r0, {r0, r1, r2, r3, r4, r6, r8, r9, sl, fp, ip, lr}
 4f8:	74705f73 	ldrbtvc	r5, [r0], #-3955	; 0xfffff08d
 4fc:	666e0072 			; <UNDEFINED> instruction: 0x666e0072
 500:	64656572 	strbtvs	r6, [r5], #-1394	; 0xfffffa8e
 504:	5f6e6900 	svcpl	0x006e6900
 508:	70616568 	rsbvc	r6, r1, r8, ror #10
 50c:	656e6f00 	strbvs	r6, [lr, #-3840]!	; 0xfffff100
 510:	6300626d 	movwvs	r6, #621	; 0x26d
 514:	63672d6b 	cmnvs	r7, #6848	; 0x1ac0
 518:	5f00632e 	svcpl	0x0000632e
 51c:	7373625f 	cmnvc	r3, #-268435451	; 0xf0000005
 520:	646e655f 	strbtvs	r6, [lr], #-1375	; 0xfffffaa1
 524:	6b005f5f 	blvs	182a8 <__bss_end__+0xd2d8>
 528:	6c6c616d 	stfvse	f6, [ip], #-436	; 0xfffffe4c
 52c:	6b00636f 	blvs	192f0 <__bss_end__+0xe320>
 530:	6c6c616d 	stfvse	f6, [ip], #-436	; 0xfffffe4c
 534:	695f636f 	ldmdbvs	pc, {r0, r1, r2, r3, r5, r6, r8, r9, sp, lr}^	; <UNPREDICTABLE>
 538:	5f74696e 	svcpl	0x0074696e
 53c:	5f746573 	svcpl	0x00746573
 540:	72617473 	rsbvc	r7, r1, #1929379840	; 0x73000000
 544:	77730074 			; <UNDEFINED> instruction: 0x77730074
 548:	5f706565 	svcpl	0x00706565
 54c:	6b61656c 	blvs	1859b04 <__bss_end__+0x184eb34>
 550:	645f5f00 	ldrbvs	r5, [pc], #-3840	; 558 <__code_start__-0x7aa8>
 554:	5f617461 	svcpl	0x00617461
 558:	72617473 	rsbvc	r7, r1, #1929379840	; 0x73000000
 55c:	005f5f74 	subseq	r5, pc, r4, ror pc	; <UNPREDICTABLE>
 560:	65657773 	strbvs	r7, [r5, #-1907]!	; 0xfffff88d
 564:	72665f70 	rsbvc	r5, r6, #112, 30	; 0x1c0
 568:	77006565 	strvc	r6, [r0, -r5, ror #10]
 56c:	5f6e7261 	svcpl	0x006e7261
 570:	735f6f6e 	cmpvc	pc, #440	; 0x1b8
 574:	74726174 	ldrbtvc	r6, [r2], #-372	; 0xfffffe8c
 578:	6665725f 			; <UNDEFINED> instruction: 0x6665725f
 57c:	7300705f 	movwvc	r7, #95	; 0x5f
 580:	5f657a69 	svcpl	0x00657a69
 584:	2f2e0074 	svccs	0x002e0074
 588:	6362696c 	cmnvs	r2, #108, 18	; 0x1b0000
 58c:	6d656d2f 	stclvs	13, cr6, [r5, #-188]!	; 0xffffff44
 590:	2e746573 	mrccs	5, 3, r6, cr4, cr3, {3}
 594:	552f0063 	strpl	r0, [pc, #-99]!	; 539 <__code_start__-0x7ac7>
 598:	73726573 	cmnvc	r2, #482344960	; 0x1cc00000
 59c:	6c696d2f 	stclvs	13, cr6, [r9], #-188	; 0xffffff44
 5a0:	532f7365 			; <UNDEFINED> instruction: 0x532f7365
 5a4:	6372756f 	cmnvs	r2, #465567744	; 0x1bc00000
 5a8:	73632f65 	cmnvc	r3, #404	; 0x194
 5ac:	6c303432 	cfldrsvs	mvf3, [r0], #-200	; 0xffffff38
 5b0:	696c2f78 	stmdbvs	ip!, {r3, r4, r5, r6, r8, r9, sl, fp, sp}^
 5b4:	00697062 	rsbeq	r7, r9, r2, rrx
 5b8:	73677261 	cmnvc	r7, #268435462	; 0x10000006
 5bc:	5f617600 	svcpl	0x00617600
 5c0:	6e697270 	mcrvs	2, 3, r7, cr9, cr0, {3}
 5c4:	5f006b74 	svcpl	0x00006b74
 5c8:	756e675f 	strbvc	r6, [lr, #-1887]!	; 0xfffff8a1
 5cc:	61765f63 	cmnvs	r6, r3, ror #30
 5d0:	73696c5f 	cmnvc	r9, #24320	; 0x5f00
 5d4:	5f5f0074 	svcpl	0x005f0074
 5d8:	2e007061 	cdpcs	0, 0, cr7, cr0, cr1, {3}
 5dc:	62696c2f 	rsbvs	r6, r9, #12032	; 0x2f00
 5e0:	72702f63 	rsbsvc	r2, r0, #396	; 0x18c
 5e4:	6b746e69 	blvs	1d1bf90 <__bss_end__+0x1d10fc0>
 5e8:	5f00632e 	svcpl	0x0000632e
 5ec:	5f61765f 	svcpl	0x0061765f
 5f0:	7473696c 	ldrbtvc	r6, [r3], #-2412	; 0xfffff694
 5f4:	746e6900 	strbtvc	r6, [lr], #-2304	; 0xfffff700
 5f8:	616e7265 	cmnvs	lr, r5, ror #4
 5fc:	75705f6c 	ldrbvc	r5, [r0, #-3948]!	; 0xfffff094
 600:	2e006b74 	vmovcs.16	d0[1], r6
 604:	62696c2f 	rsbvs	r6, r9, #12032	; 0x2f00
 608:	75702f63 	ldrbvc	r2, [r0, #-3939]!	; 0xfffff09d
 60c:	632e6b74 			; <UNDEFINED> instruction: 0x632e6b74
 610:	64736900 	ldrbtvs	r6, [r3], #-2304	; 0xfffff700
 614:	74696769 	strbtvc	r6, [r9], #-1897	; 0xfffff897
 618:	6e697500 	cdpvs	5, 6, cr7, cr9, cr0, {0}
 61c:	5f343674 	svcpl	0x00343674
 620:	2f2e0074 	svccs	0x002e0074
 624:	6362696c 	cmnvs	r2, #108, 18	; 0x1b0000
 628:	2d61762f 	stclcs	6, cr7, [r1, #-188]!	; 0xffffff44
 62c:	6e697270 	mcrvs	2, 3, r7, cr9, cr0, {3}
 630:	632e6b74 			; <UNDEFINED> instruction: 0x632e6b74
 634:	635f5f00 	cmpvs	pc, #0, 30
 638:	5f65646f 	svcpl	0x0065646f
 63c:	72617473 	rsbvc	r7, r1, #1929379840	; 0x73000000
 640:	005f5f74 	subseq	r5, pc, r4, ror pc	; <UNPREDICTABLE>
 644:	74646977 	strbtvc	r6, [r4], #-2423	; 0xfffff689
 648:	75700068 	ldrbvc	r0, [r0, #-104]!	; 0xffffff98
 64c:	665f6374 			; <UNDEFINED> instruction: 0x665f6374
 650:	5f5f0070 	svcpl	0x005f0070
 654:	70616568 	rsbvc	r6, r1, r8, ror #10
 658:	6174735f 	cmnvs	r4, pc, asr r3
 65c:	5f5f7472 	svcpl	0x005f7472
 660:	69707200 	ldmdbvs	r0!, {r9, ip, sp, lr}^
 664:	7465735f 	strbtvc	r7, [r5], #-863	; 0xfffffca1
 668:	74756f5f 	ldrbtvc	r6, [r5], #-3935	; 0xfffff0a1
 66c:	00747570 	rsbseq	r7, r4, r0, ror r5
 670:	5f746d66 	svcpl	0x00746d66
 674:	72617473 	rsbvc	r7, r1, #1929379840	; 0x73000000
 678:	74730074 	ldrbtvc	r0, [r3], #-116	; 0xffffff8c
 67c:	74616372 	strbtvc	r6, [r1], #-882	; 0xfffffc8e
 680:	72747300 	rsbsvc	r7, r4, #0, 6
 684:	00797063 	rsbseq	r7, r9, r3, rrx
 688:	5f67656e 	svcpl	0x0067656e
 68c:	5f5f0070 	svcpl	0x005f0070
 690:	65646f63 	strbvs	r6, [r4, #-3939]!	; 0xfffff09d
 694:	646e655f 	strbtvs	r6, [lr], #-1375	; 0xfffffaa1
 698:	65005f5f 	strvs	r5, [r0, #-3935]	; 0xfffff0a1
 69c:	0074696d 	rsbseq	r6, r4, sp, ror #18
 6a0:	65766572 	ldrbvs	r6, [r6, #-1394]!	; 0xfffffa8e
 6a4:	00657372 	rsbeq	r7, r5, r2, ror r3
 6a8:	63727473 	cmnvs	r2, #1929379840	; 0x73000000
 6ac:	7000706d 	andvc	r7, r0, sp, rrx
 6b0:	5f737475 	svcpl	0x00737475
 6b4:	5f007066 	svcpl	0x00007066
 6b8:	6f72705f 	svcvs	0x0072705f
 6bc:	6e655f67 	cdpvs	15, 6, cr5, cr5, cr7, {3}
 6c0:	005f5f64 	subseq	r5, pc, r4, ror #30
 6c4:	316d756e 	cmncc	sp, lr, ror #10
 6c8:	72747300 	rsbsvc	r7, r4, #0, 6
 6cc:	706d636e 	rsbvc	r6, sp, lr, ror #6
 6d0:	67697300 	strbvs	r7, [r9, -r0, lsl #6]!
 6d4:	5f64656e 	svcpl	0x0064656e
 6d8:	70720070 	rsbsvc	r0, r2, r0, ror r0
 6dc:	65725f69 	ldrbvs	r5, [r2, #-3945]!	; 0xfffff097
 6e0:	746f6f62 	strbtvc	r6, [pc], #-3938	; 6e8 <__code_start__-0x7918>
 6e4:	6c656400 	cfstrdvs	mvd6, [r5], #-0
 6e8:	6d5f7961 	vldrvs.16	s15, [pc, #-194]	; 62e <__code_start__-0x79d2>	; <UNPREDICTABLE>
 6ec:	2f2e0073 	svccs	0x002e0073
 6f0:	66617473 			; <UNDEFINED> instruction: 0x66617473
 6f4:	72732d66 	rsbsvc	r2, r3, #6528	; 0x1980
 6f8:	6c632f63 	stclvs	15, cr2, [r3], #-396	; 0xfffffe74
 6fc:	2d6e6165 	stfcse	f6, [lr, #-404]!	; 0xfffffe6c
 700:	6f626572 	svcvs	0x00626572
 704:	632e746f 			; <UNDEFINED> instruction: 0x632e746f
 708:	72617500 	rsbvc	r7, r1, #0, 10
 70c:	6c665f74 	stclvs	15, cr5, [r6], #-464	; 0xfffffe30
 710:	5f687375 	svcpl	0x00687375
 714:	5f007874 	svcpl	0x00007874
 718:	61747363 	cmnvs	r4, r3, ror #6
 71c:	62007472 	andvs	r7, r0, #1912602624	; 0x72000000
 720:	655f7373 	ldrbvs	r7, [pc, #-883]	; 3b5 <__code_start__-0x7c4b>
 724:	7500646e 	strvc	r6, [r0, #-1134]	; 0xfffffb92
 728:	5f747261 	svcpl	0x00747261
 72c:	74696e69 	strbtvc	r6, [r9], #-3689	; 0xfffff197
 730:	73756300 	cmnvc	r5, #0, 6
 734:	5f6d6f74 	svcpl	0x006d6f74
 738:	64616f6c 	strbtvs	r6, [r1], #-3948	; 0xfffff094
 73c:	2e007265 	cdpcs	2, 0, cr7, cr0, cr5, {3}
 740:	6174732f 	cmnvs	r4, pc, lsr #6
 744:	732d6666 			; <UNDEFINED> instruction: 0x732d6666
 748:	632f6372 			; <UNDEFINED> instruction: 0x632f6372
 74c:	72617473 	rsbvc	r7, r1, #1929379840	; 0x73000000
 750:	00632e74 	rsbeq	r2, r3, r4, ror lr
 754:	74732f2e 	ldrbtvc	r2, [r3], #-3886	; 0xfffff0d2
 758:	2d666661 	stclcs	6, cr6, [r6, #-388]!	; 0xfffffe7c
 75c:	2f637273 	svccs	0x00637273
 760:	74737563 	ldrbtvc	r7, [r3], #-1379	; 0xfffffa9d
 764:	6c2d6d6f 	stcvs	13, cr6, [sp], #-444	; 0xfffffe44
 768:	6564616f 	strbvs	r6, [r4, #-367]!	; 0xfffffe91
 76c:	00632e72 	rsbeq	r2, r3, r2, ror lr
 770:	6f626572 	svcvs	0x00626572
 774:	635f746f 	cmpvs	pc, #1862270976	; 0x6f000000
 778:	6f6c6c61 	svcvs	0x006c6c61
 77c:	50007475 	andpl	r7, r0, r5, ror r4
 780:	44575f4d 	ldrbmi	r5, [r7], #-3917	; 0xfffff0b3
 784:	7300474f 	movwvc	r4, #1871	; 0x74f
 788:	755f7465 	ldrbvc	r7, [pc, #-1125]	; 32b <__code_start__-0x7cd5>
 78c:	5f726573 	svcpl	0x00726573
 790:	6576656c 	ldrbvs	r6, [r6, #-1388]!	; 0xfffffa94
 794:	2f2e006c 	svccs	0x002e006c
 798:	66617473 			; <UNDEFINED> instruction: 0x66617473
 79c:	72732d66 	rsbsvc	r2, r3, #6528	; 0x1980
 7a0:	65722f63 	ldrbvs	r2, [r2, #-3939]!	; 0xfffff09d
 7a4:	746f6f62 	strbtvc	r6, [pc], #-3938	; 7ac <__code_start__-0x7854>
 7a8:	5000632e 	andpl	r6, r0, lr, lsr #6
 7ac:	41505f4d 	cmpmi	r0, sp, asr #30
 7b0:	4f575353 	svcmi	0x00575353
 7b4:	61004452 	tstvs	r0, r2, asr r4
 7b8:	73755f74 	cmnvc	r5, #116, 30	; 0x1d0
 7bc:	6c5f7265 	lfmvs	f7, 2, [pc], {101}	; 0x65
 7c0:	6c657665 	stclvs	6, cr7, [r5], #-404	; 0xfffffe6c
 7c4:	5f4d5000 	svcpl	0x004d5000
 7c8:	43545352 	cmpmi	r4, #1207959553	; 0x48000001
 7cc:	4352575f 	cmpmi	r2, #24903680	; 0x17c0000
 7d0:	465f4746 	ldrbmi	r4, [pc], -r6, asr #14
 7d4:	5f4c4c55 	svcpl	0x004c4c55
 7d8:	45534552 	ldrbmi	r4, [r3, #-1362]	; 0xfffffaae
 7dc:	4d500054 	ldclmi	0, cr0, [r0, #-336]	; 0xfffffeb0
 7e0:	5453525f 	ldrbpl	r5, [r3], #-607	; 0xfffffda1
 7e4:	70630043 	rsbvc	r0, r3, r3, asr #32
 7e8:	64007273 	strvs	r7, [r0], #-627	; 0xfffffd8d
 7ec:	625f7665 	subsvs	r7, pc, #105906176	; 0x6500000
 7f0:	69727261 	ldmdbvs	r2!, {r0, r5, r6, r9, ip, sp, lr}^
 7f4:	64007265 	strvs	r7, [r0], #-613	; 0xfffffd9b
 7f8:	79616c65 	stmdbvc	r1!, {r0, r2, r5, r6, sl, fp, sp, lr}^
 7fc:	6365735f 	cmnvs	r5, #2080374785	; 0x7c000001
 800:	732f2e00 			; <UNDEFINED> instruction: 0x732f2e00
 804:	66666174 			; <UNDEFINED> instruction: 0x66666174
 808:	6372732d 	cmnvs	r2, #-1275068416	; 0xb4000000
 80c:	6d69742f 	cfstrdvs	mvd7, [r9, #-188]!	; 0xffffff44
 810:	632e7265 			; <UNDEFINED> instruction: 0x632e7265
 814:	54454700 	strbpl	r4, [r5], #-1792	; 0xfffff900
 818:	74003233 	strvc	r3, [r0], #-563	; 0xfffffdcd
 81c:	72656d69 	rsbvc	r6, r5, #6720	; 0x1a40
 820:	7465675f 	strbtvc	r6, [r5], #-1887	; 0xfffff8a1
 824:	6573755f 	ldrbvs	r7, [r3, #-1375]!	; 0xfffffaa1
 828:	65640063 	strbvs	r0, [r4, #-99]!	; 0xffffff9d
 82c:	5f79616c 	svcpl	0x0079616c
 830:	74007375 	strvc	r7, [r0], #-885	; 0xfffffc8b
 834:	72656d69 	rsbvc	r6, r5, #6720	; 0x1a40
 838:	7465675f 	strbtvc	r6, [r5], #-1887	; 0xfffff8a1
 83c:	6573755f 	ldrbvs	r7, [r3, #-1375]!	; 0xfffffaa1
 840:	61725f63 	cmnvs	r2, r3, ror #30
 844:	75700077 	ldrbvc	r0, [r0, #-119]!	; 0xffffff89
 848:	00323374 	eorseq	r3, r2, r4, ror r3
 84c:	64756162 	ldrbtvs	r6, [r5], #-354	; 0xfffffe9e
 850:	6c61765f 	stclvs	6, cr7, [r1], #-380	; 0xfffffe84
 854:	61747300 	cmnvs	r4, r0, lsl #6
 858:	61750074 	cmnvs	r5, r4, ror r0
 85c:	635f7472 	cmpvs	pc, #1912602624	; 0x72000000
 860:	675f6e61 	ldrbvs	r6, [pc, -r1, ror #28]
 864:	00637465 	rsbeq	r7, r3, r5, ror #8
 868:	4f495047 	svcmi	0x00495047
 86c:	4e55465f 	mrcmi	6, 2, r4, cr5, cr15, {2}
 870:	554f5f43 	strbpl	r5, [pc, #-3907]	; fffff935 <__bss_end__+0xffff4965>
 874:	54555054 	ldrbpl	r5, [r5], #-84	; 0xffffffac
 878:	78756100 	ldmdavc	r5!, {r8, sp, lr}^
 87c:	7265705f 	rsbvc	r7, r5, #95, 0	; 0x5f
 880:	73687069 	cmnvc	r8, #105, 0	; 0x69
 884:	72617500 	rsbvc	r7, r1, #0, 10
 888:	00632e74 	rsbeq	r2, r3, r4, ror lr
 88c:	74726175 	ldrbtvc	r6, [r2], #-373	; 0xfffffe8b
 890:	6e61635f 	mcrvs	3, 3, r6, cr1, cr15, {2}
 894:	7475705f 	ldrbtvc	r7, [r5], #-95	; 0xffffffa1
 898:	61750063 	cmnvs	r5, r3, rrx
 89c:	745f7472 	ldrbvc	r7, [pc], #-1138	; 8a4 <__code_start__-0x775c>
 8a0:	73695f78 	cmnvc	r9, #120, 30	; 0x1e0
 8a4:	706d655f 	rsbvc	r6, sp, pc, asr r5
 8a8:	47007974 	smlsdxmi	r0, r4, r9, r7
 8ac:	5f4f4950 	svcpl	0x004f4950
 8b0:	434e5546 	movtmi	r5, #58694	; 0xe546
 8b4:	544c415f 	strbpl	r4, [ip], #-351	; 0xfffffea1
 8b8:	50470030 	subpl	r0, r7, r0, lsr r0
 8bc:	465f4f49 	ldrbmi	r4, [pc], -r9, asr #30
 8c0:	5f434e55 	svcpl	0x00434e55
 8c4:	31544c41 	cmpcc	r4, r1, asr #24
 8c8:	49504700 	ldmdbmi	r0, {r8, r9, sl, lr}^
 8cc:	55465f4f 	strbpl	r5, [r6, #-3919]	; 0xfffff0b1
 8d0:	415f434e 	cmpmi	pc, lr, asr #6
 8d4:	0032544c 	eorseq	r5, r2, ip, asr #8
 8d8:	4f495047 	svcmi	0x00495047
 8dc:	4e55465f 	mrcmi	6, 2, r4, cr5, cr15, {2}
 8e0:	4c415f43 	mcrrmi	15, 4, r5, r1, cr3
 8e4:	47003354 	smlsdmi	r0, r4, r3, r3
 8e8:	5f4f4950 	svcpl	0x004f4950
 8ec:	434e5546 	movtmi	r5, #58694	; 0xe546
 8f0:	544c415f 	strbpl	r4, [ip], #-351	; 0xfffffea1
 8f4:	682f0035 	stmdavs	pc!, {r0, r2, r4, r5}	; <UNPREDICTABLE>
 8f8:	2f656d6f 	svccs	0x00656d6f
 8fc:	6c676e65 	stclvs	14, cr6, [r7], #-404	; 0xfffffe6c
 900:	632f7265 			; <UNDEFINED> instruction: 0x632f7265
 904:	7373616c 	cmnvc	r3, #27
 908:	3273632f 	rsbscc	r6, r3, #-1140850688	; 0xbc000000
 90c:	786c3034 	stmdavc	ip!, {r2, r4, r5, ip, sp}^
 910:	7332322d 	teqvc	r2, #-805306366	; 0xd0000002
 914:	6c2f7270 	sfmvs	f7, 4, [pc], #-448	; 75c <__code_start__-0x78a4>
 918:	69706269 	ldmdbvs	r0!, {r0, r3, r5, r6, r9, sp, lr}^
 91c:	6174732f 	cmnvs	r4, pc, lsr #6
 920:	702d6666 	eorvc	r6, sp, r6, ror #12
 924:	61766972 	cmnvs	r6, r2, ror r9
 928:	62006574 	andvs	r6, r0, #116, 10	; 0x1d000000
 92c:	00647561 	rsbeq	r7, r4, r1, ror #10
 930:	5f787561 	svcpl	0x00787561
 934:	62616e65 	rsbvs	r6, r1, #1616	; 0x650
 938:	0073656c 	rsbseq	r6, r3, ip, ror #10
 93c:	74726175 	ldrbtvc	r6, [r2], #-373	; 0xfffffe8b
 940:	7465675f 	strbtvc	r6, [r5], #-1887	; 0xfffff8a1
 944:	4e470063 	cdpmi	0, 4, cr0, cr7, cr3, {3}
 948:	39432055 	stmdbcc	r3, {r0, r2, r4, r6, sp}^
 94c:	30312039 	eorscc	r2, r1, r9, lsr r0
 950:	312e332e 			; <UNDEFINED> instruction: 0x312e332e
 954:	32303220 	eorscc	r3, r0, #32, 4
 958:	32383031 	eorscc	r3, r8, #49, 0	; 0x31
 95c:	72282034 	eorvc	r2, r8, #52, 0	; 0x34
 960:	61656c65 	cmnvs	r5, r5, ror #24
 964:	20296573 	eorcs	r6, r9, r3, ror r5
 968:	70636d2d 	rsbvc	r6, r3, sp, lsr #26
 96c:	72613d75 	rsbvc	r3, r1, #7488	; 0x1d40
 970:	3731316d 	ldrcc	r3, [r1, -sp, ror #2]!
 974:	667a6a36 			; <UNDEFINED> instruction: 0x667a6a36
 978:	2d20732d 	stccs	3, cr7, [r0, #-180]!	; 0xffffff4c
 97c:	6e75746d 	cdpvs	4, 7, cr7, cr5, cr13, {3}
 980:	72613d65 	rsbvc	r3, r1, #6464	; 0x1940
 984:	3731316d 	ldrcc	r3, [r1, -sp, ror #2]!
 988:	667a6a36 			; <UNDEFINED> instruction: 0x667a6a36
 98c:	2d20732d 	stccs	3, cr7, [r0, #-180]!	; 0xffffff4c
 990:	6f6c666d 	svcvs	0x006c666d
 994:	612d7461 			; <UNDEFINED> instruction: 0x612d7461
 998:	733d6962 	teqvc	sp, #1605632	; 0x188000
 99c:	2074666f 	rsbscs	r6, r4, pc, ror #12
 9a0:	72616d2d 	rsbvc	r6, r1, #2880	; 0xb40
 9a4:	6d2d206d 	stcvs	0, cr2, [sp, #-436]!	; 0xfffffe4c
 9a8:	68637261 	stmdavs	r3!, {r0, r5, r6, r9, ip, sp, lr}^
 9ac:	6d72613d 	ldfvse	f6, [r2, #-244]!	; 0xffffff0c
 9b0:	7a6b3676 	bvc	1ace390 <__bss_end__+0x1ac33c0>
 9b4:	67672d20 	strbvs	r2, [r7, -r0, lsr #26]!
 9b8:	2d206264 	sfmcs	f6, 4, [r0, #-400]!	; 0xfffffe70
 9bc:	2d20674f 	stccs	7, cr6, [r0, #-316]!	; 0xfffffec4
 9c0:	3d647473 	cfstrdcc	mvd7, [r4, #-460]!	; 0xfffffe34
 9c4:	39756e67 	ldmdbcc	r5!, {r0, r1, r2, r5, r6, r9, sl, fp, sp, lr}^
 9c8:	662d2039 			; <UNDEFINED> instruction: 0x662d2039
 9cc:	65657266 	strbvs	r7, [r5, #-614]!	; 0xfffffd9a
 9d0:	6e617473 	mcrvs	4, 3, r7, cr1, cr3, {3}
 9d4:	676e6964 	strbvs	r6, [lr, -r4, ror #18]!
 9d8:	746e6300 	strbtvc	r6, [lr], #-768	; 0xfffffd00
 9dc:	6175006c 	cmnvs	r5, ip, rrx
 9e0:	645f7472 	ldrbvs	r7, [pc], #-1138	; 9e8 <__code_start__-0x7618>
 9e4:	62617369 	rsbvs	r7, r1, #-1543503871	; 0xa4000001
 9e8:	7500656c 	strvc	r6, [r0, #-1388]	; 0xfffffa94
 9ec:	5f747261 	svcpl	0x00747261
 9f0:	5f736168 	svcpl	0x00736168
 9f4:	61746164 	cmnvs	r4, r4, ror #2
 9f8:	49504700 	ldmdbmi	r0, {r8, r9, sl, lr}^
 9fc:	55465f4f 	strbpl	r5, [r6, #-3919]	; 0xfffff0b1
 a00:	415f434e 	cmpmi	pc, lr, asr #6
 a04:	0034544c 	eorseq	r5, r4, ip, asr #8
 a08:	695f726f 	ldmdbvs	pc, {r0, r1, r2, r3, r5, r6, r9, ip, sp, lr}^	; <UNPREDICTABLE>
 a0c:	0032336e 	eorseq	r3, r2, lr, ror #6
 a10:	61726373 	cmnvs	r2, r3, ror r3
 a14:	00686374 	rsbeq	r6, r8, r4, ror r3
 a18:	74726175 	ldrbtvc	r6, [r2], #-373	; 0xfffffe8b
 a1c:	646e6100 	strbtvs	r6, [lr], #-256	; 0xffffff00
 a20:	336e695f 	cmncc	lr, #1556480	; 0x17c000
 a24:	61750032 	cmnvs	r5, r2, lsr r0
 a28:	705f7472 	subsvc	r7, pc, r2, ror r4	; <UNPREDICTABLE>
 a2c:	00637475 	rsbeq	r7, r3, r5, ror r4
 a30:	4f495047 	svcmi	0x00495047
 a34:	4e55465f 	mrcmi	6, 2, r4, cr5, cr15, {2}
 a38:	4e495f43 	cdpmi	15, 4, cr5, cr9, cr3, {2}
 a3c:	00545550 	subseq	r5, r4, r0, asr r5
 a40:	6f697067 	svcvs	0x00697067
 a44:	7465735f 	strbtvc	r7, [r5], #-863	; 0xfffffca1
 a48:	6e75665f 	mrcvs	6, 3, r6, cr5, cr15, {2}
 a4c:	6f697463 	svcvs	0x00697463
 a50:	6567006e 	strbvs	r0, [r7, #-110]!	; 0xffffff92
 a54:	00323374 	eorseq	r3, r2, r4, ror r3
 a58:	6c616d6b 	stclvs	13, cr6, [r1], #-428	; 0xfffffe54
 a5c:	5f636f6c 	svcpl	0x00636f6c
 a60:	70616568 	rsbvc	r6, r1, r8, ror #10
 a64:	6174735f 	cmnvs	r4, pc, asr r3
 a68:	6d007472 	cfstrsvs	mvf7, [r0, #-456]	; 0xfffffe38
 a6c:	6e5f7861 	cdpvs	8, 5, cr7, cr15, cr1, {3}
 a70:	65747962 	ldrbvs	r7, [r4, #-2402]!	; 0xfffff69e
 a74:	615f0073 	cmpvs	pc, r3, ror r0	; <UNPREDICTABLE>
 a78:	00726464 	rsbseq	r6, r2, r4, ror #8
 a7c:	70616568 	rsbvc	r6, r1, r8, ror #10
 a80:	78616d5f 	stmdavc	r1!, {r0, r1, r2, r3, r4, r6, r8, sl, fp, sp, lr}^
 a84:	72666b00 	rsbvc	r6, r6, #0, 22
 a88:	615f6565 	cmpvs	pc, r5, ror #10
 a8c:	72006c6c 	andvc	r6, r0, #108, 24	; 0x6c00
 a90:	646e756f 	strbtvs	r7, [lr], #-1391	; 0xfffffa91
 a94:	6b007075 	blvs	1cc70 <__bss_end__+0x11ca0>
 a98:	65657266 	strbvs	r7, [r5, #-614]!	; 0xfffffd9a
 a9c:	706f705f 	rsbvc	r7, pc, pc, asr r0	; <UNPREDICTABLE>
 aa0:	696c6100 	stmdbvs	ip!, {r8, sp, lr}^
 aa4:	656d6e67 	strbvs	r6, [sp, #-3687]!	; 0xfffff199
 aa8:	6d00746e 	cfstrsvs	mvf7, [r0, #-440]	; 0xfffffe48
 aac:	755f7861 	ldrbvc	r7, [pc, #-2145]	; 253 <__code_start__-0x7dad>
 ab0:	4f003233 	svcmi	0x00003233
 ab4:	424d656e 	submi	r6, sp, #461373440	; 0x1b800000
 ab8:	616d6b00 	cmnvs	sp, r0, lsl #22
 abc:	636f6c6c 	cmnvs	pc, #108, 24	; 0x6c00
 ac0:	6165685f 	cmnvs	r5, pc, asr r8
 ac4:	6e655f70 	mcrvs	15, 3, r5, cr5, cr0, {3}
 ac8:	6d6b0064 	stclvs	0, cr0, [fp, #-400]!	; 0xfffffe70
 acc:	6f6c6c61 	svcvs	0x006c6c61
 ad0:	6f6e5f63 	svcvs	0x006e5f63
 ad4:	72657a74 	rsbvc	r7, r5, #116, 20	; 0x74000
 ad8:	7369006f 	cmnvc	r9, #111, 0	; 0x6f
 adc:	776f705f 			; <UNDEFINED> instruction: 0x776f705f
 ae0:	6d6b0032 	stclvs	0, cr0, [fp, #-200]!	; 0xffffff38
 ae4:	6f6c6c61 	svcvs	0x006c6c61
 ae8:	00632e63 	rsbeq	r2, r3, r3, ror #28
 aec:	6c616d6b 	stclvs	13, cr6, [r1], #-428	; 0xfffffe54
 af0:	5f636f6c 	svcpl	0x00636f6c
 af4:	74696e69 	strbtvc	r6, [r9], #-3689	; 0xfffff197
 af8:	5f736900 	svcpl	0x00736900
 afc:	67696c61 	strbvs	r6, [r9, -r1, ror #24]!
 b00:	0064656e 	rsbeq	r6, r4, lr, ror #10
 b04:	6c616d6b 	stclvs	13, cr6, [r1], #-428	; 0xfffffe54
 b08:	5f636f6c 	svcpl	0x00636f6c
 b0c:	70616568 	rsbvc	r6, r1, r8, ror #10
 b10:	7274705f 	rsbsvc	r7, r4, #95, 0	; 0x5f
 b14:	69707200 	ldmdbvs	r0!, {r9, ip, sp, lr}^
 b18:	7365725f 	cmnvc	r5, #-268435451	; 0xf0000005
 b1c:	705f7465 	subsvc	r7, pc, r5, ror #8
 b20:	00637475 	rsbeq	r7, r3, r5, ror r4
 b24:	6c616d6b 	stclvs	13, cr6, [r1], #-428	; 0xfffffe54
 b28:	5f636f6c 	svcpl	0x00636f6c
 b2c:	67696c61 	strbvs	r6, [r9, -r1, ror #24]!
 b30:	0064656e 	rsbeq	r6, r4, lr, ror #10
 b34:	6f697067 	svcvs	0x00697067
 b38:	726c635f 	rsbvc	r6, ip, #2080374785	; 0x7c000001
 b3c:	70670030 	rsbvc	r0, r7, r0, lsr r0
 b40:	735f6f69 	cmpvc	pc, #420	; 0x1a4
 b44:	00307465 	eorseq	r7, r0, r5, ror #8
 b48:	6f697067 	svcvs	0x00697067
 b4c:	6972775f 	ldmdbvs	r2!, {r0, r1, r2, r3, r4, r6, r8, r9, sl, ip, sp, lr}^
 b50:	44006574 	strmi	r6, [r0], #-1396	; 0xfffffa8c
 b54:	565f5645 	ldrbpl	r5, [pc], -r5, asr #12
 b58:	32334c41 	eorscc	r4, r3, #16640	; 0x4100
 b5c:	69706700 	ldmdbvs	r0!, {r8, r9, sl, sp, lr}^
 b60:	65725f6f 	ldrbvs	r5, [r2, #-3951]!	; 0xfffff091
 b64:	2e006461 	cdpcs	4, 0, cr6, cr0, cr1, {3}
 b68:	6372732f 	cmnvs	r2, #-1140850688	; 0xbc000000
 b6c:	6970672f 	ldmdbvs	r0!, {r0, r1, r2, r3, r5, r8, r9, sl, sp, lr}^
 b70:	00632e6f 	rsbeq	r2, r3, pc, ror #28
 b74:	6f697067 	svcvs	0x00697067
 b78:	7465735f 	strbtvc	r7, [r5], #-863	; 0xfffffca1
 b7c:	706e695f 	rsbvc	r6, lr, pc, asr r9
 b80:	67007475 	smlsdxvs	r0, r5, r4, r7
 b84:	5f6f6970 	svcpl	0x006f6970
 b88:	5f746573 	svcpl	0x00746573
 b8c:	0066666f 	rsbeq	r6, r6, pc, ror #12
 b90:	6f697067 	svcvs	0x00697067
 b94:	7465735f 	strbtvc	r7, [r5], #-863	; 0xfffffca1
 b98:	74756f5f 	ldrbtvc	r6, [r5], #-3935	; 0xfffff0a1
 b9c:	00747570 	rsbseq	r7, r4, r0, ror r5
 ba0:	6f697067 	svcvs	0x00697067
 ba4:	6e75665f 	mrcvs	6, 3, r6, cr5, cr15, {2}
 ba8:	00745f63 	rsbseq	r5, r4, r3, ror #30
 bac:	6f697067 	svcvs	0x00697067
 bb0:	76656c5f 			; <UNDEFINED> instruction: 0x76656c5f
 bb4:	61620030 	cmnvs	r2, r0, lsr r0
 bb8:	67006b6e 	strvs	r6, [r0, -lr, ror #22]
 bbc:	5f6f6970 	svcpl	0x006f6970
 bc0:	5f746573 	svcpl	0x00746573
 bc4:	69006e6f 	stmdbvs	r0, {r0, r1, r2, r3, r5, r6, r9, sl, fp, sp, lr}
 bc8:	7265746e 	rsbvc	r7, r5, #1845493760	; 0x6e000000
 bcc:	5f6c616e 	svcpl	0x006c616e
 bd0:	63747570 	cmnvs	r4, #112, 10	; 0x1c000000
 bd4:	00726168 	rsbseq	r6, r2, r8, ror #2
 bd8:	5f697072 	svcpl	0x00697072
 bdc:	5f746573 	svcpl	0x00746573
 be0:	63747570 	cmnvs	r4, #112, 10	; 0x1c000000
 be4:	6c2f2e00 	stcvs	14, cr2, [pc], #-0	; bec <__code_start__-0x7414>
 be8:	2f636269 	svccs	0x00636269
 bec:	63747570 	cmnvs	r4, #112, 10	; 0x1c000000
 bf0:	2e726168 	rpwcssz	f6, f2, #0.0
 bf4:	2f2e0063 	svccs	0x002e0063
 bf8:	6362696c 	cmnvs	r2, #108, 18	; 0x1b0000
 bfc:	7274732f 	rsbsvc	r7, r4, #-1140850688	; 0xbc000000
 c00:	2e746163 	rpwcssz	f6, f4, f3
 c04:	65640063 	strbvs	r0, [r4, #-99]!	; 0xffffff9d
 c08:	2e007473 	mcrcs	4, 0, r7, cr0, cr3, {3}
 c0c:	62696c2f 	rsbvs	r6, r9, #12032	; 0x2f00
 c10:	74732f63 	ldrbtvc	r2, [r3], #-3939	; 0xfffff09d
 c14:	706d6372 	rsbvc	r6, sp, r2, ror r3
 c18:	2e00632e 	cdpcs	3, 0, cr6, cr0, cr14, {1}
 c1c:	62696c2f 	rsbvs	r6, r9, #12032	; 0x2f00
 c20:	74732f63 	ldrbtvc	r2, [r3], #-3939	; 0xfffff09d
 c24:	79706372 	ldmdbvc	r0!, {r1, r4, r5, r6, r8, r9, sp, lr}^
 c28:	2e00632e 	cdpcs	3, 0, cr6, cr0, cr14, {1}
 c2c:	62696c2f 	rsbvs	r6, r9, #12032	; 0x2f00
 c30:	74732f63 	ldrbtvc	r2, [r3], #-3939	; 0xfffff09d
 c34:	6d636e72 	stclvs	14, cr6, [r3, #-456]!	; 0xfffffe38
 c38:	00632e70 	rsbeq	r2, r3, r0, ror lr
 c3c:	74732f2e 	ldrbtvc	r2, [r3], #-3886	; 0xfffff0d2
 c40:	2d666661 	stclcs	6, cr6, [r6, #-388]!	; 0xfffffe7c
 c44:	2f637273 	svccs	0x00637273
 c48:	61666564 	cmnvs	r6, r4, ror #10
 c4c:	2d746c75 	ldclcs	12, cr6, [r4, #-468]!	; 0xfffffe2c
 c50:	6f626572 	svcvs	0x00626572
 c54:	632d746f 			; <UNDEFINED> instruction: 0x632d746f
 c58:	6f6c6c61 	svcvs	0x006c6c61
 c5c:	632e7475 			; <UNDEFINED> instruction: 0x632e7475
	...

Disassembly of section .debug_frame:

00000000 <.debug_frame>:
   0:	0000000c 	andeq	r0, r0, ip
   4:	ffffffff 			; <UNDEFINED> instruction: 0xffffffff
   8:	7c020001 	stcvc	0, cr0, [r2], {1}
   c:	000d0c0e 	andeq	r0, sp, lr, lsl #24
  10:	0000001c 	andeq	r0, r0, ip, lsl r0
  14:	00000000 	andeq	r0, r0, r0
  18:	00008038 	andeq	r8, r0, r8, lsr r0
  1c:	00000068 	andeq	r0, r0, r8, rrx
  20:	84080e44 	strhi	r0, [r8], #-3652	; 0xfffff1bc
  24:	46018e02 	strmi	r8, [r1], -r2, lsl #28
  28:	0e62180e 	cdpeq	8, 6, cr1, cr2, cr14, {0}
  2c:	00000008 	andeq	r0, r0, r8
  30:	00000020 	andeq	r0, r0, r0, lsr #32
  34:	00000000 	andeq	r0, r0, r0
  38:	000080a0 	andeq	r8, r0, r0, lsr #1
  3c:	000000a0 	andeq	r0, r0, r0, lsr #1
  40:	8e040e42 	cdphi	14, 0, cr0, cr4, cr2, {2}
  44:	100e4401 	andne	r4, lr, r1, lsl #8
  48:	040e0a68 	streq	r0, [lr], #-2664	; 0xfffff598
  4c:	000ece42 	andeq	ip, lr, r2, asr #28
  50:	00000b42 	andeq	r0, r0, r2, asr #22
  54:	00000014 	andeq	r0, r0, r4, lsl r0
  58:	00000000 	andeq	r0, r0, r0
  5c:	00008140 	andeq	r8, r0, r0, asr #2
  60:	0000001c 	andeq	r0, r0, ip, lsl r0
  64:	84080e42 	strhi	r0, [r8], #-3650	; 0xfffff1be
  68:	00018e02 	andeq	r8, r1, r2, lsl #28
  6c:	0000000c 	andeq	r0, r0, ip
  70:	ffffffff 			; <UNDEFINED> instruction: 0xffffffff
  74:	7c020001 	stcvc	0, cr0, [r2], {1}
  78:	000d0c0e 	andeq	r0, sp, lr, lsl #24
  7c:	0000000c 	andeq	r0, r0, ip
  80:	0000006c 	andeq	r0, r0, ip, rrx
  84:	0000815c 	andeq	r8, r0, ip, asr r1
  88:	00000010 	andeq	r0, r0, r0, lsl r0
  8c:	0000000c 	andeq	r0, r0, ip
  90:	0000006c 	andeq	r0, r0, ip, rrx
  94:	0000816c 	andeq	r8, r0, ip, ror #2
  98:	00000010 	andeq	r0, r0, r0, lsl r0
  9c:	00000020 	andeq	r0, r0, r0, lsr #32
  a0:	0000006c 	andeq	r0, r0, ip, rrx
  a4:	0000817c 	andeq	r8, r0, ip, ror r1
  a8:	000000a4 	andeq	r0, r0, r4, lsr #1
  ac:	840c0e42 	strhi	r0, [ip], #-3650	; 0xfffff1be
  b0:	8e028503 	cfsh32hi	mvfx8, mvfx2, #3
  b4:	180e4201 	stmdane	lr, {r0, r9, lr}
  b8:	0c0e0a5e 			; <UNDEFINED> instruction: 0x0c0e0a5e
  bc:	00000b42 	andeq	r0, r0, r2, asr #22
  c0:	0000000c 	andeq	r0, r0, ip
  c4:	0000006c 	andeq	r0, r0, ip, rrx
  c8:	00008220 	andeq	r8, r0, r0, lsr #4
  cc:	00000008 	andeq	r0, r0, r8
  d0:	00000014 	andeq	r0, r0, r4, lsl r0
  d4:	0000006c 	andeq	r0, r0, ip, rrx
  d8:	00008228 	andeq	r8, r0, r8, lsr #4
  dc:	00000018 	andeq	r0, r0, r8, lsl r0
  e0:	84080e42 	strhi	r0, [r8], #-3650	; 0xfffff1be
  e4:	00018e02 	andeq	r8, r1, r2, lsl #28
  e8:	00000018 	andeq	r0, r0, r8, lsl r0
  ec:	0000006c 	andeq	r0, r0, ip, rrx
  f0:	00008240 	andeq	r8, r0, r0, asr #4
  f4:	00000030 	andeq	r0, r0, r0, lsr r0
  f8:	84100e42 	ldrhi	r0, [r0], #-3650	; 0xfffff1be
  fc:	86038504 	strhi	r8, [r3], -r4, lsl #10
 100:	00018e02 	andeq	r8, r1, r2, lsl #28
 104:	00000018 	andeq	r0, r0, r8, lsl r0
 108:	0000006c 	andeq	r0, r0, ip, rrx
 10c:	00008270 	andeq	r8, r0, r0, ror r2
 110:	00000058 	andeq	r0, r0, r8, asr r0
 114:	84100e42 	ldrhi	r0, [r0], #-3650	; 0xfffff1be
 118:	86038504 	strhi	r8, [r3], -r4, lsl #10
 11c:	00018e02 	andeq	r8, r1, r2, lsl #28
 120:	00000028 	andeq	r0, r0, r8, lsr #32
 124:	0000006c 	andeq	r0, r0, ip, rrx
 128:	000082c8 	andeq	r8, r0, r8, asr #5
 12c:	0000018c 	andeq	r0, r0, ip, lsl #3
 130:	841c0e42 	ldrhi	r0, [ip], #-3650	; 0xfffff1be
 134:	86068507 	strhi	r8, [r6], -r7, lsl #10
 138:	88048705 	stmdahi	r4, {r0, r2, r8, r9, sl, pc}
 13c:	8e028903 	vmlahi.f16	s16, s4, s6	; <UNPREDICTABLE>
 140:	380e4201 	stmdacc	lr, {r0, r9, lr}
 144:	0e0a9a02 	vmlaeq.f32	s18, s20, s4
 148:	000b421c 	andeq	r4, fp, ip, lsl r2
 14c:	00000020 	andeq	r0, r0, r0, lsr #32
 150:	0000006c 	andeq	r0, r0, ip, rrx
 154:	00008454 	andeq	r8, r0, r4, asr r4
 158:	000000c4 	andeq	r0, r0, r4, asr #1
 15c:	84100e42 	ldrhi	r0, [r0], #-3650	; 0xfffff1be
 160:	86038504 	strhi	r8, [r3], -r4, lsl #10
 164:	42018e02 	andmi	r8, r1, #2, 28
 168:	5602200e 	strpl	r2, [r2], -lr
 16c:	0000100e 	andeq	r1, r0, lr
 170:	0000000c 	andeq	r0, r0, ip
 174:	ffffffff 			; <UNDEFINED> instruction: 0xffffffff
 178:	7c020001 	stcvc	0, cr0, [r2], {1}
 17c:	000d0c0e 	andeq	r0, sp, lr, lsl #24
 180:	00000014 	andeq	r0, r0, r4, lsl r0
 184:	00000170 	andeq	r0, r0, r0, ror r1
 188:	00008518 	andeq	r8, r0, r8, lsl r5
 18c:	00000088 	andeq	r0, r0, r8, lsl #1
 190:	84080e42 	strhi	r0, [r8], #-3650	; 0xfffff1be
 194:	00018e02 	andeq	r8, r1, r2, lsl #28
 198:	0000001c 	andeq	r0, r0, ip, lsl r0
 19c:	00000170 	andeq	r0, r0, r0, ror r1
 1a0:	000085a0 	andeq	r8, r0, r0, lsr #11
 1a4:	00000100 	andeq	r0, r0, r0, lsl #2
 1a8:	84180e42 	ldrhi	r0, [r8], #-3650	; 0xfffff1be
 1ac:	86058506 	strhi	r8, [r5], -r6, lsl #10
 1b0:	88038704 	stmdahi	r3, {r2, r8, r9, sl, pc}
 1b4:	00018e02 	andeq	r8, r1, r2, lsl #28
 1b8:	0000000c 	andeq	r0, r0, ip
 1bc:	ffffffff 			; <UNDEFINED> instruction: 0xffffffff
 1c0:	7c020001 	stcvc	0, cr0, [r2], {1}
 1c4:	000d0c0e 	andeq	r0, sp, lr, lsl #24
 1c8:	0000002c 	andeq	r0, r0, ip, lsr #32
 1cc:	000001b8 			; <UNDEFINED> instruction: 0x000001b8
 1d0:	000086a0 	andeq	r8, r0, r0, lsr #13
 1d4:	0000015c 	andeq	r0, r0, ip, asr r1
 1d8:	84240e42 	strthi	r0, [r4], #-3650	; 0xfffff1be
 1dc:	86088509 	strhi	r8, [r8], -r9, lsl #10
 1e0:	88068707 	stmdahi	r6, {r0, r1, r2, r8, r9, sl, pc}
 1e4:	8a048905 	bhi	122600 <__bss_end__+0x117630>
 1e8:	8e028b03 	vmlahi.f64	d8, d2, d3
 1ec:	300e4801 	andcc	r4, lr, r1, lsl #16
 1f0:	0e0a6402 	cdpeq	4, 0, cr6, cr10, cr2, {0}
 1f4:	000b4224 	andeq	r4, fp, r4, lsr #4
 1f8:	0000001c 	andeq	r0, r0, ip, lsl r0
 1fc:	000001b8 			; <UNDEFINED> instruction: 0x000001b8
 200:	000087fc 	strdeq	r8, [r0], -ip
 204:	000000a4 	andeq	r0, r0, r4, lsr #1
 208:	84080e42 	strhi	r0, [r8], #-3650	; 0xfffff1be
 20c:	42018e02 	andmi	r8, r1, #2, 28
 210:	4202480e 	andmi	r4, r2, #917504	; 0xe0000
 214:	0000080e 	andeq	r0, r0, lr, lsl #16
 218:	00000020 	andeq	r0, r0, r0, lsr #32
 21c:	000001b8 			; <UNDEFINED> instruction: 0x000001b8
 220:	000088a0 	andeq	r8, r0, r0, lsr #17
 224:	00000120 	andeq	r0, r0, r0, lsr #2
 228:	84200e42 	strthi	r0, [r0], #-3650	; 0xfffff1be
 22c:	86078508 	strhi	r8, [r7], -r8, lsl #10
 230:	88058706 	stmdahi	r5, {r1, r2, r8, r9, sl, pc}
 234:	8a038904 	bhi	e264c <__bss_end__+0xd767c>
 238:	00018e02 	andeq	r8, r1, r2, lsl #28
 23c:	00000024 	andeq	r0, r0, r4, lsr #32
 240:	000001b8 			; <UNDEFINED> instruction: 0x000001b8
 244:	000089c0 	andeq	r8, r0, r0, asr #19
 248:	0000009c 	muleq	r0, ip, r0
 24c:	840c0e42 	strhi	r0, [ip], #-3650	; 0xfffff1be
 250:	8e028503 	cfsh32hi	mvfx8, mvfx2, #3
 254:	180e4401 	stmdane	lr, {r0, sl, lr}
 258:	0c0e0a5c 			; <UNDEFINED> instruction: 0x0c0e0a5c
 25c:	c4c5ce42 	strbgt	ip, [r5], #3650	; 0xe42
 260:	0b42000e 	bleq	10802a0 <__bss_end__+0x10752d0>
 264:	0000000c 	andeq	r0, r0, ip
 268:	000001b8 			; <UNDEFINED> instruction: 0x000001b8
 26c:	00008a5c 	andeq	r8, r0, ip, asr sl
 270:	00000004 	andeq	r0, r0, r4
 274:	00000014 	andeq	r0, r0, r4, lsl r0
 278:	000001b8 			; <UNDEFINED> instruction: 0x000001b8
 27c:	00008a60 	andeq	r8, r0, r0, ror #20
 280:	00000048 	andeq	r0, r0, r8, asr #32
 284:	84080e42 	strhi	r0, [r8], #-3650	; 0xfffff1be
 288:	00018e02 	andeq	r8, r1, r2, lsl #28
 28c:	00000014 	andeq	r0, r0, r4, lsl r0
 290:	000001b8 			; <UNDEFINED> instruction: 0x000001b8
 294:	00008aa8 	andeq	r8, r0, r8, lsr #21
 298:	00000050 	andeq	r0, r0, r0, asr r0
 29c:	84080e42 	strhi	r0, [r8], #-3650	; 0xfffff1be
 2a0:	00018e02 	andeq	r8, r1, r2, lsl #28
 2a4:	0000002c 	andeq	r0, r0, ip, lsr #32
 2a8:	000001b8 			; <UNDEFINED> instruction: 0x000001b8
 2ac:	00008af8 	strdeq	r8, [r0], -r8	; <UNPREDICTABLE>
 2b0:	00000100 	andeq	r0, r0, r0, lsl #2
 2b4:	84240e42 	strthi	r0, [r4], #-3650	; 0xfffff1be
 2b8:	86088509 	strhi	r8, [r8], -r9, lsl #10
 2bc:	88068707 	stmdahi	r6, {r0, r1, r2, r8, r9, sl, pc}
 2c0:	8a048905 	bhi	1226dc <__bss_end__+0x11770c>
 2c4:	8e028b03 	vmlahi.f64	d8, d2, d3
 2c8:	380e4201 	stmdacc	lr, {r0, r9, lr}
 2cc:	240e0a7c 	strcs	r0, [lr], #-2684	; 0xfffff584
 2d0:	00000b42 	andeq	r0, r0, r2, asr #22
 2d4:	00000014 	andeq	r0, r0, r4, lsl r0
 2d8:	000001b8 			; <UNDEFINED> instruction: 0x000001b8
 2dc:	00008bf8 	strdeq	r8, [r0], -r8	; <UNPREDICTABLE>
 2e0:	0000002c 	andeq	r0, r0, ip, lsr #32
 2e4:	84080e42 	strhi	r0, [r8], #-3650	; 0xfffff1be
 2e8:	00018e02 	andeq	r8, r1, r2, lsl #28
 2ec:	0000000c 	andeq	r0, r0, ip
 2f0:	ffffffff 			; <UNDEFINED> instruction: 0xffffffff
 2f4:	7c020001 	stcvc	0, cr0, [r2], {1}
 2f8:	000d0c0e 	andeq	r0, sp, lr, lsl #24
 2fc:	00000014 	andeq	r0, r0, r4, lsl r0
 300:	000002ec 	andeq	r0, r0, ip, ror #5
 304:	00008c2c 	andeq	r8, r0, ip, lsr #24
 308:	00000078 	andeq	r0, r0, r8, ror r0
 30c:	84080e42 	strhi	r0, [r8], #-3650	; 0xfffff1be
 310:	00018e02 	andeq	r8, r1, r2, lsl #28
 314:	0000000c 	andeq	r0, r0, ip
 318:	ffffffff 			; <UNDEFINED> instruction: 0xffffffff
 31c:	7c020001 	stcvc	0, cr0, [r2], {1}
 320:	000d0c0e 	andeq	r0, sp, lr, lsl #24
 324:	00000034 	andeq	r0, r0, r4, lsr r0
 328:	00000314 	andeq	r0, r0, r4, lsl r3
 32c:	00008ca4 	andeq	r8, r0, r4, lsr #25
 330:	00000058 	andeq	r0, r0, r8, asr r0
 334:	80100e42 	andshi	r0, r0, r2, asr #28
 338:	82038104 	andhi	r8, r3, #1
 33c:	42018302 	andmi	r8, r1, #134217728	; 0x8000000
 340:	07841c0e 	streq	r1, [r4, lr, lsl #24]
 344:	058e0685 	streq	r0, [lr, #1669]	; 0x685
 348:	5a280e44 	bpl	a03c60 <__bss_end__+0x9f8c90>
 34c:	ce421c0e 	cdpgt	12, 4, cr1, cr2, cr14, {0}
 350:	100ec4c5 	andne	ip, lr, r5, asr #9
 354:	c1c2c342 	bicgt	ip, r2, r2, asr #6
 358:	00000ec0 	andeq	r0, r0, r0, asr #29
 35c:	0000000c 	andeq	r0, r0, ip
 360:	ffffffff 			; <UNDEFINED> instruction: 0xffffffff
 364:	7c020001 	stcvc	0, cr0, [r2], {1}
 368:	000d0c0e 	andeq	r0, sp, lr, lsl #24
 36c:	00000018 	andeq	r0, r0, r8, lsl r0
 370:	0000035c 	andeq	r0, r0, ip, asr r3
 374:	00008cfc 	strdeq	r8, [r0], -ip
 378:	00000038 	andeq	r0, r0, r8, lsr r0
 37c:	84100e42 	ldrhi	r0, [r0], #-3650	; 0xfffff1be
 380:	86038504 	strhi	r8, [r3], -r4, lsl #10
 384:	00018e02 	andeq	r8, r1, r2, lsl #28
 388:	0000000c 	andeq	r0, r0, ip
 38c:	ffffffff 			; <UNDEFINED> instruction: 0xffffffff
 390:	7c020001 	stcvc	0, cr0, [r2], {1}
 394:	000d0c0e 	andeq	r0, sp, lr, lsl #24
 398:	0000002c 	andeq	r0, r0, ip, lsr #32
 39c:	00000388 	andeq	r0, r0, r8, lsl #7
 3a0:	00008d34 	andeq	r8, r0, r4, lsr sp
 3a4:	00000328 	andeq	r0, r0, r8, lsr #6
 3a8:	84180e42 	ldrhi	r0, [r8], #-3650	; 0xfffff1be
 3ac:	86058506 	strhi	r8, [r5], -r6, lsl #10
 3b0:	88038704 	stmdahi	r3, {r2, r8, r9, sl, pc}
 3b4:	46018e02 	strmi	r8, [r1], -r2, lsl #28
 3b8:	c002600e 	andgt	r6, r2, lr
 3bc:	42180e0a 	andsmi	r0, r8, #160	; 0xa0
 3c0:	0a8e020b 	beq	fe380bf4 <__bss_end__+0xfe375c24>
 3c4:	0b42180e 	bleq	1086404 <__bss_end__+0x107b434>
 3c8:	00000014 	andeq	r0, r0, r4, lsl r0
 3cc:	00000388 	andeq	r0, r0, r8, lsl #7
 3d0:	0000905c 	andeq	r9, r0, ip, asr r0
 3d4:	00000060 	andeq	r0, r0, r0, rrx
 3d8:	8e040e52 	mcrhi	14, 0, r0, cr4, cr2, {2}
 3dc:	100e4401 	andne	r4, lr, r1, lsl #8
 3e0:	0000002c 	andeq	r0, r0, ip, lsr #32
 3e4:	00000388 	andeq	r0, r0, r8, lsl #7
 3e8:	000090bc 	strheq	r9, [r0], -ip
 3ec:	0000062c 	andeq	r0, r0, ip, lsr #12
 3f0:	84240e42 	strthi	r0, [r4], #-3650	; 0xfffff1be
 3f4:	86088509 	strhi	r8, [r8], -r9, lsl #10
 3f8:	88068707 	stmdahi	r6, {r0, r1, r2, r8, r9, sl, pc}
 3fc:	8a048905 	bhi	122818 <__bss_end__+0x117848>
 400:	8e028b03 	vmlahi.f64	d8, d2, d3
 404:	c00e5201 	andgt	r5, lr, r1, lsl #4
 408:	0a860202 	beq	fe180c18 <__bss_end__+0xfe175c48>
 40c:	0b42240e 	bleq	108944c <__bss_end__+0x107e47c>
 410:	0000000c 	andeq	r0, r0, ip
 414:	ffffffff 			; <UNDEFINED> instruction: 0xffffffff
 418:	7c020001 	stcvc	0, cr0, [r2], {1}
 41c:	000d0c0e 	andeq	r0, sp, lr, lsl #24
 420:	00000014 	andeq	r0, r0, r4, lsl r0
 424:	00000410 	andeq	r0, r0, r0, lsl r4
 428:	000096e8 	andeq	r9, r0, r8, ror #13
 42c:	0000002c 	andeq	r0, r0, ip, lsr #32
 430:	84080e44 	strhi	r0, [r8], #-3652	; 0xfffff1bc
 434:	00018e02 	andeq	r8, r1, r2, lsl #28
 438:	0000000c 	andeq	r0, r0, ip
 43c:	ffffffff 			; <UNDEFINED> instruction: 0xffffffff
 440:	7c020001 	stcvc	0, cr0, [r2], {1}
 444:	000d0c0e 	andeq	r0, sp, lr, lsl #24
 448:	00000018 	andeq	r0, r0, r8, lsl r0
 44c:	00000438 	andeq	r0, r0, r8, lsr r4
 450:	00009714 	andeq	r9, r0, r4, lsl r7
 454:	000000f8 	strdeq	r0, [r0], -r8
 458:	84100e42 	ldrhi	r0, [r0], #-3650	; 0xfffff1be
 45c:	86038504 	strhi	r8, [r3], -r4, lsl #10
 460:	00018e02 	andeq	r8, r1, r2, lsl #28
 464:	0000000c 	andeq	r0, r0, ip
 468:	ffffffff 			; <UNDEFINED> instruction: 0xffffffff
 46c:	7c020001 	stcvc	0, cr0, [r2], {1}
 470:	000d0c0e 	andeq	r0, sp, lr, lsl #24
 474:	0000000c 	andeq	r0, r0, ip
 478:	00000464 	andeq	r0, r0, r4, ror #8
 47c:	0000980c 	andeq	r9, r0, ip, lsl #16
 480:	00000004 	andeq	r0, r0, r4
 484:	0000000c 	andeq	r0, r0, ip
 488:	ffffffff 			; <UNDEFINED> instruction: 0xffffffff
 48c:	7c020001 	stcvc	0, cr0, [r2], {1}
 490:	000d0c0e 	andeq	r0, sp, lr, lsl #24
 494:	0000000c 	andeq	r0, r0, ip
 498:	00000484 	andeq	r0, r0, r4, lsl #9
 49c:	00009810 	andeq	r9, r0, r0, lsl r8
 4a0:	00000018 	andeq	r0, r0, r8, lsl r0
 4a4:	0000000c 	andeq	r0, r0, ip
 4a8:	00000484 	andeq	r0, r0, r4, lsl #9
 4ac:	00009828 	andeq	r9, r0, r8, lsr #16
 4b0:	00000014 	andeq	r0, r0, r4, lsl r0
 4b4:	00000014 	andeq	r0, r0, r4, lsl r0
 4b8:	00000484 	andeq	r0, r0, r4, lsl #9
 4bc:	0000983c 	andeq	r9, r0, ip, lsr r8
 4c0:	00000060 	andeq	r0, r0, r0, rrx
 4c4:	84080e42 	strhi	r0, [r8], #-3650	; 0xfffff1be
 4c8:	00018e02 	andeq	r8, r1, r2, lsl #28
 4cc:	0000000c 	andeq	r0, r0, ip
 4d0:	ffffffff 			; <UNDEFINED> instruction: 0xffffffff
 4d4:	7c020001 	stcvc	0, cr0, [r2], {1}
 4d8:	000d0c0e 	andeq	r0, sp, lr, lsl #24
 4dc:	0000000c 	andeq	r0, r0, ip
 4e0:	000004cc 	andeq	r0, r0, ip, asr #9
 4e4:	0000989c 	muleq	r0, ip, r8
 4e8:	0000000c 	andeq	r0, r0, ip
 4ec:	00000014 	andeq	r0, r0, r4, lsl r0
 4f0:	000004cc 	andeq	r0, r0, ip, asr #9
 4f4:	000098a8 	andeq	r9, r0, r8, lsr #17
 4f8:	00000024 	andeq	r0, r0, r4, lsr #32
 4fc:	84080e42 	strhi	r0, [r8], #-3650	; 0xfffff1be
 500:	00018e02 	andeq	r8, r1, r2, lsl #28
 504:	0000001c 	andeq	r0, r0, ip, lsl r0
 508:	000004cc 	andeq	r0, r0, ip, asr #9
 50c:	000098cc 	andeq	r9, r0, ip, asr #17
 510:	00000048 	andeq	r0, r0, r8, asr #32
 514:	84180e42 	ldrhi	r0, [r8], #-3650	; 0xfffff1be
 518:	86058506 	strhi	r8, [r5], -r6, lsl #10
 51c:	88038704 	stmdahi	r3, {r2, r8, r9, sl, pc}
 520:	00018e02 	andeq	r8, r1, r2, lsl #28
 524:	0000001c 	andeq	r0, r0, ip, lsl r0
 528:	000004cc 	andeq	r0, r0, ip, asr #9
 52c:	00009914 	andeq	r9, r0, r4, lsl r9
 530:	00000050 	andeq	r0, r0, r0, asr r0
 534:	84180e42 	ldrhi	r0, [r8], #-3650	; 0xfffff1be
 538:	86058506 	strhi	r8, [r5], -r6, lsl #10
 53c:	88038704 	stmdahi	r3, {r2, r8, r9, sl, pc}
 540:	00018e02 	andeq	r8, r1, r2, lsl #28
 544:	0000001c 	andeq	r0, r0, ip, lsl r0
 548:	000004cc 	andeq	r0, r0, ip, asr #9
 54c:	00009964 	andeq	r9, r0, r4, ror #18
 550:	00000054 	andeq	r0, r0, r4, asr r0
 554:	84180e42 	ldrhi	r0, [r8], #-3650	; 0xfffff1be
 558:	86058506 	strhi	r8, [r5], -r6, lsl #10
 55c:	88038704 	stmdahi	r3, {r2, r8, r9, sl, pc}
 560:	00018e02 	andeq	r8, r1, r2, lsl #28
 564:	0000000c 	andeq	r0, r0, ip
 568:	ffffffff 			; <UNDEFINED> instruction: 0xffffffff
 56c:	7c020001 	stcvc	0, cr0, [r2], {1}
 570:	000d0c0e 	andeq	r0, sp, lr, lsl #24
 574:	00000018 	andeq	r0, r0, r8, lsl r0
 578:	00000564 	andeq	r0, r0, r4, ror #10
 57c:	000099b8 			; <UNDEFINED> instruction: 0x000099b8
 580:	00000020 	andeq	r0, r0, r0, lsr #32
 584:	84100e42 	ldrhi	r0, [r0], #-3650	; 0xfffff1be
 588:	86038504 	strhi	r8, [r3], -r4, lsl #10
 58c:	00018e02 	andeq	r8, r1, r2, lsl #28
 590:	00000018 	andeq	r0, r0, r8, lsl r0
 594:	00000564 	andeq	r0, r0, r4, ror #10
 598:	000099d8 	ldrdeq	r9, [r0], -r8
 59c:	00000020 	andeq	r0, r0, r0, lsr #32
 5a0:	84100e42 	ldrhi	r0, [r0], #-3650	; 0xfffff1be
 5a4:	86038504 	strhi	r8, [r3], -r4, lsl #10
 5a8:	00018e02 	andeq	r8, r1, r2, lsl #28
 5ac:	00000014 	andeq	r0, r0, r4, lsl r0
 5b0:	00000564 	andeq	r0, r0, r4, ror #10
 5b4:	000099f8 	strdeq	r9, [r0], -r8
 5b8:	000000b0 	strheq	r0, [r0], -r0	; <UNPREDICTABLE>
 5bc:	84080e42 	strhi	r0, [r8], #-3650	; 0xfffff1be
 5c0:	00018e02 	andeq	r8, r1, r2, lsl #28
 5c4:	00000014 	andeq	r0, r0, r4, lsl r0
 5c8:	00000564 	andeq	r0, r0, r4, ror #10
 5cc:	00009aa8 	andeq	r9, r0, r8, lsr #21
 5d0:	00000018 	andeq	r0, r0, r8, lsl r0
 5d4:	84080e42 	strhi	r0, [r8], #-3650	; 0xfffff1be
 5d8:	00018e02 	andeq	r8, r1, r2, lsl #28
 5dc:	00000014 	andeq	r0, r0, r4, lsl r0
 5e0:	00000564 	andeq	r0, r0, r4, ror #10
 5e4:	00009ac0 	andeq	r9, r0, r0, asr #21
 5e8:	00000020 	andeq	r0, r0, r0, lsr #32
 5ec:	84080e42 	strhi	r0, [r8], #-3650	; 0xfffff1be
 5f0:	00018e02 	andeq	r8, r1, r2, lsl #28
 5f4:	00000014 	andeq	r0, r0, r4, lsl r0
 5f8:	00000564 	andeq	r0, r0, r4, ror #10
 5fc:	00009ae0 	andeq	r9, r0, r0, ror #21
 600:	00000030 	andeq	r0, r0, r0, lsr r0
 604:	84080e42 	strhi	r0, [r8], #-3650	; 0xfffff1be
 608:	00018e02 	andeq	r8, r1, r2, lsl #28
 60c:	00000014 	andeq	r0, r0, r4, lsl r0
 610:	00000564 	andeq	r0, r0, r4, ror #10
 614:	00009b10 	andeq	r9, r0, r0, lsl fp
 618:	00000030 	andeq	r0, r0, r0, lsr r0
 61c:	84080e42 	strhi	r0, [r8], #-3650	; 0xfffff1be
 620:	00018e02 	andeq	r8, r1, r2, lsl #28
 624:	00000014 	andeq	r0, r0, r4, lsl r0
 628:	00000564 	andeq	r0, r0, r4, ror #10
 62c:	00009b40 	andeq	r9, r0, r0, asr #22
 630:	00000010 	andeq	r0, r0, r0, lsl r0
 634:	84080e42 	strhi	r0, [r8], #-3650	; 0xfffff1be
 638:	00018e02 	andeq	r8, r1, r2, lsl #28
 63c:	00000014 	andeq	r0, r0, r4, lsl r0
 640:	00000564 	andeq	r0, r0, r4, ror #10
 644:	00009b50 	andeq	r9, r0, r0, asr fp
 648:	00000020 	andeq	r0, r0, r0, lsr #32
 64c:	84080e42 	strhi	r0, [r8], #-3650	; 0xfffff1be
 650:	00018e02 	andeq	r8, r1, r2, lsl #28
 654:	00000014 	andeq	r0, r0, r4, lsl r0
 658:	00000564 	andeq	r0, r0, r4, ror #10
 65c:	00009b70 	andeq	r9, r0, r0, ror fp
 660:	00000014 	andeq	r0, r0, r4, lsl r0
 664:	84080e42 	strhi	r0, [r8], #-3650	; 0xfffff1be
 668:	00018e02 	andeq	r8, r1, r2, lsl #28
 66c:	00000014 	andeq	r0, r0, r4, lsl r0
 670:	00000564 	andeq	r0, r0, r4, ror #10
 674:	00009b84 	andeq	r9, r0, r4, lsl #23
 678:	00000024 	andeq	r0, r0, r4, lsr #32
 67c:	84080e42 	strhi	r0, [r8], #-3650	; 0xfffff1be
 680:	00018e02 	andeq	r8, r1, r2, lsl #28
 684:	0000000c 	andeq	r0, r0, ip
 688:	ffffffff 			; <UNDEFINED> instruction: 0xffffffff
 68c:	7c020001 	stcvc	0, cr0, [r2], {1}
 690:	000d0c0e 	andeq	r0, sp, lr, lsl #24
 694:	0000000c 	andeq	r0, r0, ip
 698:	00000684 	andeq	r0, r0, r4, lsl #13
 69c:	00009ba8 	andeq	r9, r0, r8, lsr #23
 6a0:	00000010 	andeq	r0, r0, r0, lsl r0
 6a4:	0000000c 	andeq	r0, r0, ip
 6a8:	00000684 	andeq	r0, r0, r4, lsl #13
 6ac:	00009bb8 			; <UNDEFINED> instruction: 0x00009bb8
 6b0:	00000010 	andeq	r0, r0, r0, lsl r0
 6b4:	0000000c 	andeq	r0, r0, ip
 6b8:	00000684 	andeq	r0, r0, r4, lsl #13
 6bc:	00009bc8 	andeq	r9, r0, r8, asr #23
 6c0:	00000010 	andeq	r0, r0, r0, lsl r0
 6c4:	0000001c 	andeq	r0, r0, ip, lsl r0
 6c8:	00000684 	andeq	r0, r0, r4, lsl #13
 6cc:	00009bd8 	ldrdeq	r9, [r0], -r8
 6d0:	0000009c 	muleq	r0, ip, r0
 6d4:	8e040e42 	cdphi	14, 0, cr0, cr4, cr2, {2}
 6d8:	100e4201 	andne	r4, lr, r1, lsl #4
 6dc:	040e0a58 	streq	r0, [lr], #-2648	; 0xfffff5a8
 6e0:	00000b42 	andeq	r0, r0, r2, asr #22
 6e4:	00000014 	andeq	r0, r0, r4, lsl r0
 6e8:	00000684 	andeq	r0, r0, r4, lsl #13
 6ec:	00009c74 	andeq	r9, r0, r4, ror ip
 6f0:	00000058 	andeq	r0, r0, r8, asr r0
 6f4:	84080e42 	strhi	r0, [r8], #-3650	; 0xfffff1be
 6f8:	00018e02 	andeq	r8, r1, r2, lsl #28
 6fc:	0000001c 	andeq	r0, r0, ip, lsl r0
 700:	00000684 	andeq	r0, r0, r4, lsl #13
 704:	00009ccc 	andeq	r9, r0, ip, asr #25
 708:	00000098 	muleq	r0, r8, r0
 70c:	8e040e42 	cdphi	14, 0, cr0, cr4, cr2, {2}
 710:	100e4201 	andne	r4, lr, r1, lsl #4
 714:	040e0a58 	streq	r0, [lr], #-2648	; 0xfffff5a8
 718:	00000b42 	andeq	r0, r0, r2, asr #22
 71c:	00000020 	andeq	r0, r0, r0, lsr #32
 720:	00000684 	andeq	r0, r0, r4, lsl #13
 724:	00009d64 	andeq	r9, r0, r4, ror #26
 728:	00000064 	andeq	r0, r0, r4, rrx
 72c:	840c0e42 	strhi	r0, [ip], #-3650	; 0xfffff1be
 730:	8e028503 	cfsh32hi	mvfx8, mvfx2, #3
 734:	180e4201 	stmdane	lr, {r0, r9, lr}
 738:	0c0e0a54 			; <UNDEFINED> instruction: 0x0c0e0a54
 73c:	00000b42 	andeq	r0, r0, r2, asr #22
 740:	0000001c 	andeq	r0, r0, ip, lsl r0
 744:	00000684 	andeq	r0, r0, r4, lsl #13
 748:	00009dc8 	andeq	r9, r0, r8, asr #27
 74c:	00000118 	andeq	r0, r0, r8, lsl r1
 750:	8e040e42 	cdphi	14, 0, cr0, cr4, cr2, {2}
 754:	100e4201 	andne	r4, lr, r1, lsl #4
 758:	040e0a6c 	streq	r0, [lr], #-2668	; 0xfffff594
 75c:	00000b42 	andeq	r0, r0, r2, asr #22
 760:	0000000c 	andeq	r0, r0, ip
 764:	00000684 	andeq	r0, r0, r4, lsl #13
 768:	00009ee0 	andeq	r9, r0, r0, ror #29
 76c:	00000004 	andeq	r0, r0, r4
 770:	0000000c 	andeq	r0, r0, ip
 774:	00000684 	andeq	r0, r0, r4, lsl #13
 778:	00009ee4 	andeq	r9, r0, r4, ror #29
 77c:	00000014 	andeq	r0, r0, r4, lsl r0
 780:	00000014 	andeq	r0, r0, r4, lsl r0
 784:	00000684 	andeq	r0, r0, r4, lsl #13
 788:	00009ef8 	strdeq	r9, [r0], -r8
 78c:	00000060 	andeq	r0, r0, r0, rrx
 790:	8e040e58 	mcrhi	14, 0, r0, cr4, cr8, {2}
 794:	100e4201 	andne	r4, lr, r1, lsl #4
 798:	0000000c 	andeq	r0, r0, ip
 79c:	ffffffff 			; <UNDEFINED> instruction: 0xffffffff
 7a0:	7c020001 	stcvc	0, cr0, [r2], {1}
 7a4:	000d0c0e 	andeq	r0, sp, lr, lsl #24
 7a8:	00000020 	andeq	r0, r0, r0, lsr #32
 7ac:	00000798 	muleq	r0, r8, r7
 7b0:	00009f58 	andeq	r9, r0, r8, asr pc
 7b4:	00000060 	andeq	r0, r0, r0, rrx
 7b8:	84100e48 	ldrhi	r0, [r0], #-3656	; 0xfffff1b8
 7bc:	86038504 	strhi	r8, [r3], -r4, lsl #10
 7c0:	64018e02 	strvs	r8, [r1], #-3586	; 0xfffff1fe
 7c4:	c4c5c6ce 	strbgt	ip, [r5], #1742	; 0x6ce
 7c8:	0000000e 	andeq	r0, r0, lr
 7cc:	00000020 	andeq	r0, r0, r0, lsr #32
 7d0:	00000798 	muleq	r0, r8, r7
 7d4:	00009fb8 			; <UNDEFINED> instruction: 0x00009fb8
 7d8:	00000058 	andeq	r0, r0, r8, asr r0
 7dc:	84100e46 	ldrhi	r0, [r0], #-3654	; 0xfffff1ba
 7e0:	86038504 	strhi	r8, [r3], -r4, lsl #10
 7e4:	62018e02 	andvs	r8, r1, #2, 28
 7e8:	c4c5c6ce 	strbgt	ip, [r5], #1742	; 0x6ce
 7ec:	0000000e 	andeq	r0, r0, lr
 7f0:	0000000c 	andeq	r0, r0, ip
 7f4:	00000798 	muleq	r0, r8, r7
 7f8:	0000a010 	andeq	sl, r0, r0, lsl r0
 7fc:	00000018 	andeq	r0, r0, r8, lsl r0
 800:	0000000c 	andeq	r0, r0, ip
 804:	00000798 	muleq	r0, r8, r7
 808:	0000a028 	andeq	sl, r0, r8, lsr #32
 80c:	00000018 	andeq	r0, r0, r8, lsl r0
 810:	00000020 	andeq	r0, r0, r0, lsr #32
 814:	00000798 	muleq	r0, r8, r7
 818:	0000a040 	andeq	sl, r0, r0, asr #32
 81c:	00000058 	andeq	r0, r0, r8, asr r0
 820:	84100e46 	ldrhi	r0, [r0], #-3654	; 0xfffff1ba
 824:	86038504 	strhi	r8, [r3], -r4, lsl #10
 828:	62018e02 	andvs	r8, r1, #2, 28
 82c:	c4c5c6ce 	strbgt	ip, [r5], #1742	; 0x6ce
 830:	0000000e 	andeq	r0, r0, lr
 834:	0000000c 	andeq	r0, r0, ip
 838:	00000798 	muleq	r0, r8, r7
 83c:	0000a098 	muleq	r0, r8, r0
 840:	00000030 	andeq	r0, r0, r0, lsr r0
 844:	00000014 	andeq	r0, r0, r4, lsl r0
 848:	00000798 	muleq	r0, r8, r7
 84c:	0000a0c8 	andeq	sl, r0, r8, asr #1
 850:	00000028 	andeq	r0, r0, r8, lsr #32
 854:	84080e42 	strhi	r0, [r8], #-3650	; 0xfffff1be
 858:	00018e02 	andeq	r8, r1, r2, lsl #28
 85c:	0000000c 	andeq	r0, r0, ip
 860:	ffffffff 			; <UNDEFINED> instruction: 0xffffffff
 864:	7c020001 	stcvc	0, cr0, [r2], {1}
 868:	000d0c0e 	andeq	r0, sp, lr, lsl #24
 86c:	00000014 	andeq	r0, r0, r4, lsl r0
 870:	0000085c 	andeq	r0, r0, ip, asr r8
 874:	0000a0f0 	strdeq	sl, [r0], -r0
 878:	00000014 	andeq	r0, r0, r4, lsl r0
 87c:	84080e42 	strhi	r0, [r8], #-3650	; 0xfffff1be
 880:	00018e02 	andeq	r8, r1, r2, lsl #28
 884:	0000000c 	andeq	r0, r0, ip
 888:	0000085c 	andeq	r0, r0, ip, asr r8
 88c:	0000a104 	andeq	sl, r0, r4, lsl #2
 890:	00000018 	andeq	r0, r0, r8, lsl r0
 894:	0000000c 	andeq	r0, r0, ip
 898:	0000085c 	andeq	r0, r0, ip, asr r8
 89c:	0000a11c 	andeq	sl, r0, ip, lsl r1
 8a0:	00000010 	andeq	r0, r0, r0, lsl r0
 8a4:	0000000c 	andeq	r0, r0, ip
 8a8:	ffffffff 			; <UNDEFINED> instruction: 0xffffffff
 8ac:	7c020001 	stcvc	0, cr0, [r2], {1}
 8b0:	000d0c0e 	andeq	r0, sp, lr, lsl #24
 8b4:	0000000c 	andeq	r0, r0, ip
 8b8:	000008a4 	andeq	r0, r0, r4, lsr #17
 8bc:	0000a12c 	andeq	sl, r0, ip, lsr #2
 8c0:	0000002c 	andeq	r0, r0, ip, lsr #32
 8c4:	0000000c 	andeq	r0, r0, ip
 8c8:	ffffffff 			; <UNDEFINED> instruction: 0xffffffff
 8cc:	7c020001 	stcvc	0, cr0, [r2], {1}
 8d0:	000d0c0e 	andeq	r0, sp, lr, lsl #24
 8d4:	0000000c 	andeq	r0, r0, ip
 8d8:	000008c4 	andeq	r0, r0, r4, asr #17
 8dc:	0000a158 	andeq	sl, r0, r8, asr r1
 8e0:	00000044 	andeq	r0, r0, r4, asr #32
 8e4:	0000000c 	andeq	r0, r0, ip
 8e8:	ffffffff 			; <UNDEFINED> instruction: 0xffffffff
 8ec:	7c020001 	stcvc	0, cr0, [r2], {1}
 8f0:	000d0c0e 	andeq	r0, sp, lr, lsl #24
 8f4:	0000000c 	andeq	r0, r0, ip
 8f8:	000008e4 	andeq	r0, r0, r4, ror #17
 8fc:	0000a19c 	muleq	r0, ip, r1
 900:	00000018 	andeq	r0, r0, r8, lsl r0
 904:	0000000c 	andeq	r0, r0, ip
 908:	ffffffff 			; <UNDEFINED> instruction: 0xffffffff
 90c:	7c020001 	stcvc	0, cr0, [r2], {1}
 910:	000d0c0e 	andeq	r0, sp, lr, lsl #24
 914:	0000000c 	andeq	r0, r0, ip
 918:	00000904 	andeq	r0, r0, r4, lsl #18
 91c:	0000a1b4 			; <UNDEFINED> instruction: 0x0000a1b4
 920:	00000030 	andeq	r0, r0, r0, lsr r0
 924:	0000000c 	andeq	r0, r0, ip
 928:	ffffffff 			; <UNDEFINED> instruction: 0xffffffff
 92c:	7c020001 	stcvc	0, cr0, [r2], {1}
 930:	000d0c0e 	andeq	r0, sp, lr, lsl #24
 934:	0000000c 	andeq	r0, r0, ip
 938:	00000924 	andeq	r0, r0, r4, lsr #18
 93c:	0000a1e4 	andeq	sl, r0, r4, ror #3
 940:	00000004 	andeq	r0, r0, r4
