
tests-2.0/part1-test5-no-bug.elf:     file format elf32-littlearm


Disassembly of section .text:

00008000 <__code_start__>:
    8000:	e3a00013 	mov	r0, #19, 0
    8004:	e3800080 	orr	r0, r0, #128, 0	; 0x80
    8008:	e129f000 	msr	CPSR_fc, r0
    800c:	e3a01000 	mov	r1, #0, 0
    8010:	ee071f95 	mcr	15, 0, r1, cr7, cr5, {4}
    8014:	e3a0d302 	mov	sp, #134217728	; 0x8000000
    8018:	e3a0b000 	mov	fp, #0, 0
    801c:	eb0006d7 	bl	9b80 <_cstart>
    8020:	eb000720 	bl	9ca8 <rpi_reboot>

00008024 <PUT32>:
    8024:	e5801000 	str	r1, [r0]
    8028:	e12fff1e 	bx	lr

0000802c <GET32>:
    802c:	e5900000 	ldr	r0, [r0]
    8030:	e12fff1e 	bx	lr

00008034 <BRANCHTO>:
    8034:	e12fff10 	bx	r0
    8038:	6d746f6e 	ldclvs	15, cr6, [r4, #-440]!	; 0xfffffe48
    803c:	006e6961 	rsbeq	r6, lr, r1, ror #18
    8040:	ff000008 			; <UNDEFINED> instruction: 0xff000008

00008044 <notmain>:
    8044:	e1a0c00d 	mov	ip, sp
    8048:	e92dd8f0 	push	{r4, r5, r6, r7, fp, ip, lr, pc}
    804c:	e24cb004 	sub	fp, ip, #4, 0
    8050:	e24dd030 	sub	sp, sp, #48, 0	; 0x30
    8054:	e59f00d4 	ldr	r0, [pc, #212]	; 8130 <notmain+0xec>
    8058:	eb000406 	bl	9078 <printk>
    805c:	eb000435 	bl	9138 <rpi_rand32>
    8060:	e59f50cc 	ldr	r5, [pc, #204]	; 8134 <notmain+0xf0>
    8064:	e50b504c 	str	r5, [fp, #-76]	; 0xffffffb4
    8068:	e59f40c8 	ldr	r4, [pc, #200]	; 8138 <notmain+0xf4>
    806c:	e50b4048 	str	r4, [fp, #-72]	; 0xffffffb8
    8070:	e3a03008 	mov	r3, #8, 0
    8074:	e50b3044 	str	r3, [fp, #-68]	; 0xffffffbc
    8078:	e24b304c 	sub	r3, fp, #76, 0	; 0x4c
    807c:	e893000e 	ldm	r3, {r1, r2, r3}
    8080:	e1a00b00 	lsl	r0, r0, #22
    8084:	e1a00b20 	lsr	r0, r0, #22
    8088:	eb0000f8 	bl	8470 <ckalloc>
    808c:	e1a07000 	mov	r7, r0
    8090:	eb000428 	bl	9138 <rpi_rand32>
    8094:	e50b5040 	str	r5, [fp, #-64]	; 0xffffffc0
    8098:	e50b403c 	str	r4, [fp, #-60]	; 0xffffffc4
    809c:	e3a03009 	mov	r3, #9, 0
    80a0:	e50b3038 	str	r3, [fp, #-56]	; 0xffffffc8
    80a4:	e24b3040 	sub	r3, fp, #64, 0	; 0x40
    80a8:	e893000e 	ldm	r3, {r1, r2, r3}
    80ac:	e1a00b00 	lsl	r0, r0, #22
    80b0:	e1a00b20 	lsr	r0, r0, #22
    80b4:	eb0000ed 	bl	8470 <ckalloc>
    80b8:	e1a06000 	mov	r6, r0
    80bc:	e50b5034 	str	r5, [fp, #-52]	; 0xffffffcc
    80c0:	e50b4030 	str	r4, [fp, #-48]	; 0xffffffd0
    80c4:	e3a0300a 	mov	r3, #10, 0
    80c8:	e50b302c 	str	r3, [fp, #-44]	; 0xffffffd4
    80cc:	e24b3034 	sub	r3, fp, #52, 0	; 0x34
    80d0:	e893000e 	ldm	r3, {r1, r2, r3}
    80d4:	e1a00007 	mov	r0, r7
    80d8:	eb00007a 	bl	82c8 <ckfree>
    80dc:	e50b5028 	str	r5, [fp, #-40]	; 0xffffffd8
    80e0:	e50b4024 	str	r4, [fp, #-36]	; 0xffffffdc
    80e4:	e3a0300b 	mov	r3, #11, 0
    80e8:	e50b3020 	str	r3, [fp, #-32]	; 0xffffffe0
    80ec:	e24b301c 	sub	r3, fp, #28, 0
    80f0:	e913000e 	ldmdb	r3, {r1, r2, r3}
    80f4:	e1a00006 	mov	r0, r6
    80f8:	eb000072 	bl	82c8 <ckfree>
    80fc:	eb000307 	bl	8d20 <ck_heap_errors>
    8100:	e3500000 	cmp	r0, #0, 0
    8104:	1a000003 	bne	8118 <notmain+0xd4>
    8108:	e59f002c 	ldr	r0, [pc, #44]	; 813c <notmain+0xf8>
    810c:	eb0003d9 	bl	9078 <printk>
    8110:	e24bd01c 	sub	sp, fp, #28, 0
    8114:	e89da8f0 	ldm	sp, {r4, r5, r6, r7, fp, sp, pc}
    8118:	e3a0300e 	mov	r3, #14, 0
    811c:	e1a02004 	mov	r2, r4
    8120:	e1a01005 	mov	r1, r5
    8124:	e59f0014 	ldr	r0, [pc, #20]	; 8140 <notmain+0xfc>
    8128:	eb0003d2 	bl	9078 <printk>
    812c:	eb000688 	bl	9b54 <clean_reboot>
    8130:	0000a670 	andeq	sl, r0, r0, ror r6
    8134:	0000a690 	muleq	r0, r0, r6
    8138:	0000a6f4 	strdeq	sl, [r0], -r4
    813c:	0000a6d4 	ldrdeq	sl, [r0], -r4
    8140:	0000a6b0 			; <UNDEFINED> instruction: 0x0000a6b0
    8144:	665f6b63 	ldrbvs	r6, [pc], -r3, ror #22
    8148:	74737269 	ldrbtvc	r7, [r3], #-617	; 0xfffffd97
    814c:	7264685f 	rsbvc	r6, r4, #6225920	; 0x5f0000
    8150:	00000000 	andeq	r0, r0, r0
    8154:	ff000010 			; <UNDEFINED> instruction: 0xff000010

00008158 <ck_first_hdr>:
    8158:	e1a0c00d 	mov	ip, sp
    815c:	e92dd800 	push	{fp, ip, lr, pc}
    8160:	e24cb004 	sub	fp, ip, #4, 0
    8164:	e59f3004 	ldr	r3, [pc, #4]	; 8170 <ck_first_hdr+0x18>
    8168:	e5930000 	ldr	r0, [r3]
    816c:	e89da800 	ldm	sp, {fp, sp, pc}
    8170:	0000af68 	andeq	sl, r0, r8, ror #30
    8174:	6e5f6b63 	vnmlavs.f64	d22, d15, d19
    8178:	5f747865 	svcpl	0x00747865
    817c:	00726468 	rsbseq	r6, r2, r8, ror #8
    8180:	ff00000c 			; <UNDEFINED> instruction: 0xff00000c

00008184 <ck_next_hdr>:
    8184:	e1a0c00d 	mov	ip, sp
    8188:	e92dd800 	push	{fp, ip, lr, pc}
    818c:	e24cb004 	sub	fp, ip, #4, 0
    8190:	e3500000 	cmp	r0, #0, 0
    8194:	089da800 	ldmeq	sp, {fp, sp, pc}
    8198:	e5900000 	ldr	r0, [r0]
    819c:	e89da800 	ldm	sp, {fp, sp, pc}
    81a0:	685f6b63 	ldmdavs	pc, {r0, r1, r5, r6, r8, r9, fp, sp, lr}^	; <UNPREDICTABLE>
    81a4:	735f7264 	cmpvc	pc, #100, 4	; 0x40000006
    81a8:	74726174 	ldrbtvc	r6, [r2], #-372	; 0xfffffe8c
    81ac:	00000000 	andeq	r0, r0, r0
    81b0:	ff000010 			; <UNDEFINED> instruction: 0xff000010

000081b4 <ck_hdr_start>:
    81b4:	e1a0c00d 	mov	ip, sp
    81b8:	e92dd800 	push	{fp, ip, lr, pc}
    81bc:	e24cb004 	sub	fp, ip, #4, 0
    81c0:	e28000b4 	add	r0, r0, #180, 0	; 0xb4
    81c4:	e89da800 	ldm	sp, {fp, sp, pc}
    81c8:	685f6b63 	ldmdavs	pc, {r0, r1, r5, r6, r8, r9, fp, sp, lr}^	; <UNPREDICTABLE>
    81cc:	655f7264 	ldrbvs	r7, [pc, #-612]	; 7f70 <__code_start__-0x90>
    81d0:	0000646e 	andeq	r6, r0, lr, ror #8
    81d4:	ff00000c 			; <UNDEFINED> instruction: 0xff00000c

000081d8 <ck_hdr_end>:
    81d8:	e1a0c00d 	mov	ip, sp
    81dc:	e92dd830 	push	{r4, r5, fp, ip, lr, pc}
    81e0:	e24cb004 	sub	fp, ip, #4, 0
    81e4:	e1a04000 	mov	r4, r0
    81e8:	ebfffff1 	bl	81b4 <ck_hdr_start>
    81ec:	e5943004 	ldr	r3, [r4, #4]
    81f0:	e0800003 	add	r0, r0, r3
    81f4:	e89da830 	ldm	sp, {r4, r5, fp, sp, pc}
    81f8:	705f6b63 	subsvc	r6, pc, r3, ror #22
    81fc:	695f7274 	ldmdbvs	pc, {r2, r4, r5, r6, r9, ip, sp, lr}^	; <UNPREDICTABLE>
    8200:	6c625f6e 	stclvs	15, cr5, [r2], #-440	; 0xfffffe48
    8204:	006b636f 	rsbeq	r6, fp, pc, ror #6
    8208:	ff000010 			; <UNDEFINED> instruction: 0xff000010

0000820c <ck_ptr_in_block>:
    820c:	e1a0c00d 	mov	ip, sp
    8210:	e92dd8f0 	push	{r4, r5, r6, r7, fp, ip, lr, pc}
    8214:	e24cb004 	sub	fp, ip, #4, 0
    8218:	e1a06000 	mov	r6, r0
    821c:	e1a04001 	mov	r4, r1
    8220:	ebffffe3 	bl	81b4 <ck_hdr_start>
    8224:	e1a05000 	mov	r5, r0
    8228:	e1a00006 	mov	r0, r6
    822c:	ebffffe9 	bl	81d8 <ck_hdr_end>
    8230:	e1550004 	cmp	r5, r4
    8234:	91540000 	cmpls	r4, r0
    8238:	33a00001 	movcc	r0, #1, 0
    823c:	23a00000 	movcs	r0, #0, 0
    8240:	e89da8f0 	ldm	sp, {r4, r5, r6, r7, fp, sp, pc}
    8244:	705f6b63 	subsvc	r6, pc, r3, ror #22
    8248:	695f7274 	ldmdbvs	pc, {r2, r4, r5, r6, r9, ip, sp, lr}^	; <UNPREDICTABLE>
    824c:	6c615f73 	stclvs	15, cr5, [r1], #-460	; 0xfffffe34
    8250:	65636f6c 	strbvs	r6, [r3, #-3948]!	; 0xfffff094
    8254:	00000064 	andeq	r0, r0, r4, rrx
    8258:	ff000014 			; <UNDEFINED> instruction: 0xff000014

0000825c <ck_ptr_is_alloced>:
    825c:	e1a0c00d 	mov	ip, sp
    8260:	e92dd830 	push	{r4, r5, fp, ip, lr, pc}
    8264:	e24cb004 	sub	fp, ip, #4, 0
    8268:	e1a05000 	mov	r5, r0
    826c:	ebffffb9 	bl	8158 <ck_first_hdr>
    8270:	e1a04000 	mov	r4, r0
    8274:	e3540000 	cmp	r4, #0, 0
    8278:	0a00000c 	beq	82b0 <ck_ptr_is_alloced+0x54>
    827c:	e1a01005 	mov	r1, r5
    8280:	e1a00004 	mov	r0, r4
    8284:	ebffffe0 	bl	820c <ck_ptr_in_block>
    8288:	e3500000 	cmp	r0, #0, 0
    828c:	1a000003 	bne	82a0 <ck_ptr_is_alloced+0x44>
    8290:	e1a00004 	mov	r0, r4
    8294:	ebffffba 	bl	8184 <ck_next_hdr>
    8298:	e1a04000 	mov	r4, r0
    829c:	eafffff4 	b	8274 <ck_ptr_is_alloced+0x18>
    82a0:	e1a02004 	mov	r2, r4
    82a4:	e1a01005 	mov	r1, r5
    82a8:	e59f0008 	ldr	r0, [pc, #8]	; 82b8 <ck_ptr_is_alloced+0x5c>
    82ac:	eb000371 	bl	9078 <printk>
    82b0:	e1a00004 	mov	r0, r4
    82b4:	e89da830 	ldm	sp, {r4, r5, fp, sp, pc}
    82b8:	0000a6fc 	strdeq	sl, [r0], -ip
    82bc:	72666b63 	rsbvc	r6, r6, #101376	; 0x18c00
    82c0:	00006565 	andeq	r6, r0, r5, ror #10
    82c4:	ff000008 			; <UNDEFINED> instruction: 0xff000008

000082c8 <ckfree>:
    82c8:	e1a0c00d 	mov	ip, sp
    82cc:	e92dd8f0 	push	{r4, r5, r6, r7, fp, ip, lr, pc}
    82d0:	e24cb004 	sub	fp, ip, #4, 0
    82d4:	e24dd018 	sub	sp, sp, #24, 0
    82d8:	e1a04000 	mov	r4, r0
    82dc:	e24b0028 	sub	r0, fp, #40, 0	; 0x28
    82e0:	e880000e 	stm	r0, {r1, r2, r3}
    82e4:	e244c098 	sub	ip, r4, #152, 0	; 0x98
    82e8:	e8900007 	ldm	r0, {r0, r1, r2}
    82ec:	e88c000b 	stm	ip, {r0, r1, r3}
    82f0:	e1a05000 	mov	r5, r0
    82f4:	e51b6024 	ldr	r6, [fp, #-36]	; 0xffffffdc
    82f8:	e51b7020 	ldr	r7, [fp, #-32]	; 0xffffffe0
    82fc:	e1a03007 	mov	r3, r7
    8300:	e1a02006 	mov	r2, r6
    8304:	e1a01000 	mov	r1, r0
    8308:	e59f012c 	ldr	r0, [pc, #300]	; 843c <ckfree+0x174>
    830c:	eb000359 	bl	9078 <printk>
    8310:	e1a01004 	mov	r1, r4
    8314:	e59f0124 	ldr	r0, [pc, #292]	; 8440 <ckfree+0x178>
    8318:	eb000356 	bl	9078 <printk>
    831c:	e51430ac 	ldr	r3, [r4, #-172]	; 0xffffff54
    8320:	e353000b 	cmp	r3, #11, 0
    8324:	1a00000d 	bne	8360 <ckfree+0x98>
    8328:	e3a03000 	mov	r3, #0, 0
    832c:	e353007f 	cmp	r3, #127, 0	; 0x7f
    8330:	ca000026 	bgt	83d0 <ckfree+0x108>
    8334:	e0842003 	add	r2, r4, r3
    8338:	e5522082 	ldrb	r2, [r2, #-130]	; 0xffffff7e
    833c:	e35200fe 	cmp	r2, #254, 0	; 0xfe
    8340:	1a000010 	bne	8388 <ckfree+0xc0>
    8344:	e51420b0 	ldr	r2, [r4, #-176]	; 0xffffff50
    8348:	e0832002 	add	r2, r3, r2
    834c:	e7d42002 	ldrb	r2, [r4, r2]
    8350:	e35200fe 	cmp	r2, #254, 0	; 0xfe
    8354:	1a000014 	bne	83ac <ckfree+0xe4>
    8358:	e2833001 	add	r3, r3, #1, 0
    835c:	eafffff2 	b	832c <ckfree+0x64>
    8360:	eb0002fe 	bl	8f60 <backtrace>
    8364:	e1a03007 	mov	r3, r7
    8368:	e1a02006 	mov	r2, r6
    836c:	e1a01005 	mov	r1, r5
    8370:	e59f00cc 	ldr	r0, [pc, #204]	; 8444 <ckfree+0x17c>
    8374:	eb00033f 	bl	9078 <printk>
    8378:	e51410ac 	ldr	r1, [r4, #-172]	; 0xffffff54
    837c:	e59f00c4 	ldr	r0, [pc, #196]	; 8448 <ckfree+0x180>
    8380:	eb00033c 	bl	9078 <printk>
    8384:	eb0005f2 	bl	9b54 <clean_reboot>
    8388:	eb0002f4 	bl	8f60 <backtrace>
    838c:	e1a03007 	mov	r3, r7
    8390:	e1a02006 	mov	r2, r6
    8394:	e1a01005 	mov	r1, r5
    8398:	e59f00a4 	ldr	r0, [pc, #164]	; 8444 <ckfree+0x17c>
    839c:	eb000335 	bl	9078 <printk>
    83a0:	e59f00a4 	ldr	r0, [pc, #164]	; 844c <ckfree+0x184>
    83a4:	eb000333 	bl	9078 <printk>
    83a8:	eb0005e9 	bl	9b54 <clean_reboot>
    83ac:	eb0002eb 	bl	8f60 <backtrace>
    83b0:	e1a03007 	mov	r3, r7
    83b4:	e1a02006 	mov	r2, r6
    83b8:	e1a01005 	mov	r1, r5
    83bc:	e59f0080 	ldr	r0, [pc, #128]	; 8444 <ckfree+0x17c>
    83c0:	eb00032c 	bl	9078 <printk>
    83c4:	e59f0084 	ldr	r0, [pc, #132]	; 8450 <ckfree+0x188>
    83c8:	eb00032a 	bl	9078 <printk>
    83cc:	eb0005e0 	bl	9b54 <clean_reboot>
    83d0:	e3a03000 	mov	r3, #0, 0
    83d4:	e51420b0 	ldr	r2, [r4, #-176]	; 0xffffff50
    83d8:	e1520003 	cmp	r2, r3
    83dc:	83e02001 	mvnhi	r2, #1, 0
    83e0:	87c42003 	strbhi	r2, [r4, r3]
    83e4:	82833001 	addhi	r3, r3, #1, 0
    83e8:	8afffff9 	bhi	83d4 <ckfree+0x10c>
    83ec:	e3a0300c 	mov	r3, #12, 0
    83f0:	e50430ac 	str	r3, [r4, #-172]	; 0xffffff54
    83f4:	e2443098 	sub	r3, r4, #152, 0	; 0x98
    83f8:	e24b201c 	sub	r2, fp, #28, 0
    83fc:	e9120007 	ldmdb	r2, {r0, r1, r2}
    8400:	e8830007 	stm	r3, {r0, r1, r2}
    8404:	e1a00004 	mov	r0, r4
    8408:	ebffff93 	bl	825c <ck_ptr_is_alloced>
    840c:	e3500000 	cmp	r0, #0, 0
    8410:	0a000001 	beq	841c <ckfree+0x154>
    8414:	e24bd01c 	sub	sp, fp, #28, 0
    8418:	e89da8f0 	ldm	sp, {r4, r5, r6, r7, fp, sp, pc}
    841c:	e59f3030 	ldr	r3, [pc, #48]	; 8454 <ckfree+0x18c>
    8420:	e58d3000 	str	r3, [sp]
    8424:	e3a0306d 	mov	r3, #109, 0	; 0x6d
    8428:	e59f2028 	ldr	r2, [pc, #40]	; 8458 <ckfree+0x190>
    842c:	e59f1028 	ldr	r1, [pc, #40]	; 845c <ckfree+0x194>
    8430:	e59f0028 	ldr	r0, [pc, #40]	; 8460 <ckfree+0x198>
    8434:	eb00030f 	bl	9078 <printk>
    8438:	eb0005c5 	bl	9b54 <clean_reboot>
    843c:	0000a70c 	andeq	sl, r0, ip, lsl #14
    8440:	0000a718 	andeq	sl, r0, r8, lsl r7
    8444:	0000a728 	andeq	sl, r0, r8, lsr #14
    8448:	0000a740 	andeq	sl, r0, r0, asr #14
    844c:	0000a768 	andeq	sl, r0, r8, ror #14
    8450:	0000a784 	andeq	sl, r0, r4, lsl #15
    8454:	0000a7c0 	andeq	sl, r0, r0, asr #15
    8458:	0000a7f4 	strdeq	sl, [r0], -r4
    845c:	0000a7a0 	andeq	sl, r0, r0, lsr #15
    8460:	0000a7ac 	andeq	sl, r0, ip, lsr #15
    8464:	6c616b63 			; <UNDEFINED> instruction: 0x6c616b63
    8468:	00636f6c 	rsbeq	r6, r3, ip, ror #30
    846c:	ff000008 			; <UNDEFINED> instruction: 0xff000008

00008470 <ckalloc>:
    8470:	e1a0c00d 	mov	ip, sp
    8474:	e92dd870 	push	{r4, r5, r6, fp, ip, lr, pc}
    8478:	e24cb004 	sub	fp, ip, #4, 0
    847c:	e24dd014 	sub	sp, sp, #20, 0
    8480:	e1a05000 	mov	r5, r0
    8484:	e24b001c 	sub	r0, fp, #28, 0
    8488:	e900000e 	stmdb	r0, {r1, r2, r3}
    848c:	e2850f4d 	add	r0, r5, #308	; 0x134
    8490:	eb00007c 	bl	8688 <kr_malloc>
    8494:	e1a04000 	mov	r4, r0
    8498:	e3a020b4 	mov	r2, #180, 0	; 0xb4
    849c:	e3a01000 	mov	r1, #0, 0
    84a0:	eb0002d6 	bl	9000 <memset>
    84a4:	e3a03000 	mov	r3, #0, 0
    84a8:	e353007f 	cmp	r3, #127, 0	; 0x7f
    84ac:	ca000007 	bgt	84d0 <ckalloc+0x60>
    84b0:	e0842003 	add	r2, r4, r3
    84b4:	e3e01001 	mvn	r1, #1, 0
    84b8:	e5c21032 	strb	r1, [r2, #50]	; 0x32
    84bc:	e0832005 	add	r2, r3, r5
    84c0:	e28220b4 	add	r2, r2, #180, 0	; 0xb4
    84c4:	e7c41002 	strb	r1, [r4, r2]
    84c8:	e2833001 	add	r3, r3, #1, 0
    84cc:	eafffff5 	b	84a8 <ckalloc+0x38>
    84d0:	e5845004 	str	r5, [r4, #4]
    84d4:	e3a0300b 	mov	r3, #11, 0
    84d8:	e5843008 	str	r3, [r4, #8]
    84dc:	e2843010 	add	r3, r4, #16, 0
    84e0:	e24b201c 	sub	r2, fp, #28, 0
    84e4:	e9120007 	ldmdb	r2, {r0, r1, r2}
    84e8:	e8830007 	stm	r3, {r0, r1, r2}
    84ec:	e51b3020 	ldr	r3, [fp, #-32]	; 0xffffffe0
    84f0:	e51b2024 	ldr	r2, [fp, #-36]	; 0xffffffdc
    84f4:	e51b1028 	ldr	r1, [fp, #-40]	; 0xffffffd8
    84f8:	e59f0030 	ldr	r0, [pc, #48]	; 8530 <ckalloc+0xc0>
    84fc:	eb0002dd 	bl	9078 <printk>
    8500:	e28460b4 	add	r6, r4, #180, 0	; 0xb4
    8504:	e1a02005 	mov	r2, r5
    8508:	e1a01006 	mov	r1, r6
    850c:	e59f0020 	ldr	r0, [pc, #32]	; 8534 <ckalloc+0xc4>
    8510:	eb0002d8 	bl	9078 <printk>
    8514:	e59f301c 	ldr	r3, [pc, #28]	; 8538 <ckalloc+0xc8>
    8518:	e5932000 	ldr	r2, [r3]
    851c:	e5842000 	str	r2, [r4]
    8520:	e5834000 	str	r4, [r3]
    8524:	e1a00006 	mov	r0, r6
    8528:	e24bd018 	sub	sp, fp, #24, 0
    852c:	e89da870 	ldm	sp, {r4, r5, r6, fp, sp, pc}
    8530:	0000a70c 	andeq	sl, r0, ip, lsl #14
    8534:	0000a7d8 	ldrdeq	sl, [r0], -r8
    8538:	0000af68 	andeq	sl, r0, r8, ror #30
    853c:	665f726b 	ldrbvs	r7, [pc], -fp, ror #4
    8540:	00656572 	rsbeq	r6, r5, r2, ror r5
    8544:	ff000008 			; <UNDEFINED> instruction: 0xff000008

00008548 <kr_free>:
    8548:	e1a0c00d 	mov	ip, sp
    854c:	e92dd800 	push	{fp, ip, lr, pc}
    8550:	e24cb004 	sub	fp, ip, #4, 0
    8554:	e2401008 	sub	r1, r0, #8, 0
    8558:	e59f30a8 	ldr	r3, [pc, #168]	; 8608 <kr_free+0xc0>
    855c:	e5933000 	ldr	r3, [r3]
    8560:	ea000000 	b	8568 <kr_free+0x20>
    8564:	e1a03002 	mov	r3, r2
    8568:	e1530001 	cmp	r3, r1
    856c:	2a000002 	bcs	857c <kr_free+0x34>
    8570:	e5932000 	ldr	r2, [r3]
    8574:	e1520001 	cmp	r2, r1
    8578:	8a000007 	bhi	859c <kr_free+0x54>
    857c:	e5932000 	ldr	r2, [r3]
    8580:	e1520003 	cmp	r2, r3
    8584:	8afffff6 	bhi	8564 <kr_free+0x1c>
    8588:	e1530001 	cmp	r3, r1
    858c:	3a000002 	bcc	859c <kr_free+0x54>
    8590:	e1520001 	cmp	r2, r1
    8594:	91a03002 	movls	r3, r2
    8598:	9afffff2 	bls	8568 <kr_free+0x20>
    859c:	e510c004 	ldr	ip, [r0, #-4]
    85a0:	e081e18c 	add	lr, r1, ip, lsl #3
    85a4:	e5932000 	ldr	r2, [r3]
    85a8:	e15e0002 	cmp	lr, r2
    85ac:	0a000008 	beq	85d4 <kr_free+0x8c>
    85b0:	e5002008 	str	r2, [r0, #-8]
    85b4:	e5932004 	ldr	r2, [r3, #4]
    85b8:	e083c182 	add	ip, r3, r2, lsl #3
    85bc:	e15c0001 	cmp	ip, r1
    85c0:	0a00000a 	beq	85f0 <kr_free+0xa8>
    85c4:	e5831000 	str	r1, [r3]
    85c8:	e59f2038 	ldr	r2, [pc, #56]	; 8608 <kr_free+0xc0>
    85cc:	e5823000 	str	r3, [r2]
    85d0:	e89da800 	ldm	sp, {fp, sp, pc}
    85d4:	e5922004 	ldr	r2, [r2, #4]
    85d8:	e08cc002 	add	ip, ip, r2
    85dc:	e500c004 	str	ip, [r0, #-4]
    85e0:	e5932000 	ldr	r2, [r3]
    85e4:	e5922000 	ldr	r2, [r2]
    85e8:	e5002008 	str	r2, [r0, #-8]
    85ec:	eafffff0 	b	85b4 <kr_free+0x6c>
    85f0:	e5101004 	ldr	r1, [r0, #-4]
    85f4:	e0822001 	add	r2, r2, r1
    85f8:	e5832004 	str	r2, [r3, #4]
    85fc:	e5102008 	ldr	r2, [r0, #-8]
    8600:	e5832000 	str	r2, [r3]
    8604:	eaffffef 	b	85c8 <kr_free+0x80>
    8608:	0000af70 	andeq	sl, r0, r0, ror pc
    860c:	65726f6d 	ldrbvs	r6, [r2, #-3949]!	; 0xfffff093
    8610:	65726f63 	ldrbvs	r6, [r2, #-3939]!	; 0xfffff09d
    8614:	00000000 	andeq	r0, r0, r0
    8618:	ff00000c 			; <UNDEFINED> instruction: 0xff00000c

0000861c <morecore>:
    861c:	e1a0c00d 	mov	ip, sp
    8620:	e92dd830 	push	{r4, r5, fp, ip, lr, pc}
    8624:	e24cb004 	sub	fp, ip, #4, 0
    8628:	e1a04000 	mov	r4, r0
    862c:	e3500b01 	cmp	r0, #1024	; 0x400
    8630:	33a04b01 	movcc	r4, #1024	; 0x400
    8634:	e1a01004 	mov	r1, r4
    8638:	e59f0030 	ldr	r0, [pc, #48]	; 8670 <morecore+0x54>
    863c:	eb00028d 	bl	9078 <printk>
    8640:	e1a00184 	lsl	r0, r4, #3
    8644:	eb000171 	bl	8c10 <sbrk>
    8648:	e3700001 	cmn	r0, #1, 0
    864c:	0a000005 	beq	8668 <morecore+0x4c>
    8650:	e5804004 	str	r4, [r0, #4]
    8654:	e2800008 	add	r0, r0, #8, 0
    8658:	ebffffba 	bl	8548 <kr_free>
    865c:	e59f3010 	ldr	r3, [pc, #16]	; 8674 <morecore+0x58>
    8660:	e5930000 	ldr	r0, [r3]
    8664:	e89da830 	ldm	sp, {r4, r5, fp, sp, pc}
    8668:	e3a00000 	mov	r0, #0, 0
    866c:	e89da830 	ldm	sp, {r4, r5, fp, sp, pc}
    8670:	0000a7fc 	strdeq	sl, [r0], -ip
    8674:	0000af70 	andeq	sl, r0, r0, ror pc
    8678:	6d5f726b 	lfmvs	f7, 2, [pc, #-428]	; 84d4 <ckalloc+0x64>
    867c:	6f6c6c61 	svcvs	0x006c6c61
    8680:	00000063 	andeq	r0, r0, r3, rrx
    8684:	ff00000c 			; <UNDEFINED> instruction: 0xff00000c

00008688 <kr_malloc>:
    8688:	e1a0c00d 	mov	ip, sp
    868c:	e92dd830 	push	{r4, r5, fp, ip, lr, pc}
    8690:	e24cb004 	sub	fp, ip, #4, 0
    8694:	e2804007 	add	r4, r0, #7, 0
    8698:	e1a041a4 	lsr	r4, r4, #3
    869c:	e2844001 	add	r4, r4, #1, 0
    86a0:	e59f3090 	ldr	r3, [pc, #144]	; 8738 <kr_malloc+0xb0>
    86a4:	e5932000 	ldr	r2, [r3]
    86a8:	e3520000 	cmp	r2, #0, 0
    86ac:	0a000001 	beq	86b8 <kr_malloc+0x30>
    86b0:	e5920000 	ldr	r0, [r2]
    86b4:	ea000013 	b	8708 <kr_malloc+0x80>
    86b8:	e2832008 	add	r2, r3, #8, 0
    86bc:	e5832000 	str	r2, [r3]
    86c0:	e5832008 	str	r2, [r3, #8]
    86c4:	e3a01000 	mov	r1, #0, 0
    86c8:	e583100c 	str	r1, [r3, #12]
    86cc:	eafffff7 	b	86b0 <kr_malloc+0x28>
    86d0:	0a000007 	beq	86f4 <kr_malloc+0x6c>
    86d4:	e0433004 	sub	r3, r3, r4
    86d8:	e5803004 	str	r3, [r0, #4]
    86dc:	e0800183 	add	r0, r0, r3, lsl #3
    86e0:	e5804004 	str	r4, [r0, #4]
    86e4:	e59f304c 	ldr	r3, [pc, #76]	; 8738 <kr_malloc+0xb0>
    86e8:	e5832000 	str	r2, [r3]
    86ec:	e2800008 	add	r0, r0, #8, 0
    86f0:	e89da830 	ldm	sp, {r4, r5, fp, sp, pc}
    86f4:	e5903000 	ldr	r3, [r0]
    86f8:	e5823000 	str	r3, [r2]
    86fc:	eafffff8 	b	86e4 <kr_malloc+0x5c>
    8700:	e1a02000 	mov	r2, r0
    8704:	e5900000 	ldr	r0, [r0]
    8708:	e5903004 	ldr	r3, [r0, #4]
    870c:	e1530004 	cmp	r3, r4
    8710:	2affffee 	bcs	86d0 <kr_malloc+0x48>
    8714:	e59f301c 	ldr	r3, [pc, #28]	; 8738 <kr_malloc+0xb0>
    8718:	e5933000 	ldr	r3, [r3]
    871c:	e1530000 	cmp	r3, r0
    8720:	1afffff6 	bne	8700 <kr_malloc+0x78>
    8724:	e3a00902 	mov	r0, #32768	; 0x8000
    8728:	ebffffbb 	bl	861c <morecore>
    872c:	e3500000 	cmp	r0, #0, 0
    8730:	1afffff2 	bne	8700 <kr_malloc+0x78>
    8734:	e89da830 	ldm	sp, {r4, r5, fp, sp, pc}
    8738:	0000af70 	andeq	sl, r0, r0, ror pc
    873c:	685f6e69 	ldmdavs	pc, {r0, r3, r5, r6, r9, sl, fp, sp, lr}^	; <UNPREDICTABLE>
    8740:	00706165 	rsbseq	r6, r0, r5, ror #2
    8744:	ff000008 			; <UNDEFINED> instruction: 0xff000008

00008748 <in_heap>:
    8748:	e1a0c00d 	mov	ip, sp
    874c:	e92dd800 	push	{fp, ip, lr, pc}
    8750:	e24cb004 	sub	fp, ip, #4, 0
    8754:	e59f3030 	ldr	r3, [pc, #48]	; 878c <in_heap+0x44>
    8758:	e5933000 	ldr	r3, [r3]
    875c:	e1530000 	cmp	r3, r0
    8760:	8a000005 	bhi	877c <in_heap+0x34>
    8764:	e59f3020 	ldr	r3, [pc, #32]	; 878c <in_heap+0x44>
    8768:	e5933004 	ldr	r3, [r3, #4]
    876c:	e1530000 	cmp	r3, r0
    8770:	9a000003 	bls	8784 <in_heap+0x3c>
    8774:	e3a00001 	mov	r0, #1, 0
    8778:	e89da800 	ldm	sp, {fp, sp, pc}
    877c:	e3a00000 	mov	r0, #0, 0
    8780:	e89da800 	ldm	sp, {fp, sp, pc}
    8784:	e3a00000 	mov	r0, #0, 0
    8788:	e89da800 	ldm	sp, {fp, sp, pc}
    878c:	0000af80 	andeq	sl, r0, r0, lsl #31
    8790:	705f7369 	subsvc	r7, pc, r9, ror #6
    8794:	00007274 	andeq	r7, r0, r4, ror r2
    8798:	ff000008 			; <UNDEFINED> instruction: 0xff000008

0000879c <is_ptr>:
    879c:	e1a0c00d 	mov	ip, sp
    87a0:	e92dd830 	push	{r4, r5, fp, ip, lr, pc}
    87a4:	e24cb004 	sub	fp, ip, #4, 0
    87a8:	e1a04000 	mov	r4, r0
    87ac:	ebffffe5 	bl	8748 <in_heap>
    87b0:	e3500000 	cmp	r0, #0, 0
    87b4:	0a000002 	beq	87c4 <is_ptr+0x28>
    87b8:	e1a00004 	mov	r0, r4
    87bc:	ebfffea6 	bl	825c <ck_ptr_is_alloced>
    87c0:	e89da830 	ldm	sp, {r4, r5, fp, sp, pc}
    87c4:	e3a00000 	mov	r0, #0, 0
    87c8:	e89da830 	ldm	sp, {r4, r5, fp, sp, pc}
    87cc:	6b72616d 	blvs	1ca0d88 <__bss_end__+0x1c959f8>
    87d0:	00000000 	andeq	r0, r0, r0
    87d4:	ff000008 			; <UNDEFINED> instruction: 0xff000008

000087d8 <mark>:
    87d8:	e1a0c00d 	mov	ip, sp
    87dc:	e92dd9f0 	push	{r4, r5, r6, r7, r8, fp, ip, lr, pc}
    87e0:	e24cb004 	sub	fp, ip, #4, 0
    87e4:	e24dd00c 	sub	sp, sp, #12, 0
    87e8:	e1500001 	cmp	r0, r1
    87ec:	2a00000d 	bcs	8828 <mark+0x50>
    87f0:	e1a04000 	mov	r4, r0
    87f4:	e1a06001 	mov	r6, r1
    87f8:	e3100003 	tst	r0, #3, 0
    87fc:	1a000011 	bne	8848 <mark+0x70>
    8800:	e3110003 	tst	r1, #3, 0
    8804:	0a00001f 	beq	8888 <mark+0xb0>
    8808:	e59f3114 	ldr	r3, [pc, #276]	; 8924 <mark+0x14c>
    880c:	e58d3000 	str	r3, [sp]
    8810:	e3a03056 	mov	r3, #86, 0	; 0x56
    8814:	e59f210c 	ldr	r2, [pc, #268]	; 8928 <mark+0x150>
    8818:	e59f110c 	ldr	r1, [pc, #268]	; 892c <mark+0x154>
    881c:	e59f010c 	ldr	r0, [pc, #268]	; 8930 <mark+0x158>
    8820:	eb000214 	bl	9078 <printk>
    8824:	eb0004ca 	bl	9b54 <clean_reboot>
    8828:	e59f3104 	ldr	r3, [pc, #260]	; 8934 <mark+0x15c>
    882c:	e58d3000 	str	r3, [sp]
    8830:	e3a03052 	mov	r3, #82, 0	; 0x52
    8834:	e59f20ec 	ldr	r2, [pc, #236]	; 8928 <mark+0x150>
    8838:	e59f10ec 	ldr	r1, [pc, #236]	; 892c <mark+0x154>
    883c:	e59f00ec 	ldr	r0, [pc, #236]	; 8930 <mark+0x158>
    8840:	eb00020c 	bl	9078 <printk>
    8844:	eb0004c2 	bl	9b54 <clean_reboot>
    8848:	e59f30e8 	ldr	r3, [pc, #232]	; 8938 <mark+0x160>
    884c:	e58d3000 	str	r3, [sp]
    8850:	e3a03055 	mov	r3, #85, 0	; 0x55
    8854:	e59f20cc 	ldr	r2, [pc, #204]	; 8928 <mark+0x150>
    8858:	e59f10cc 	ldr	r1, [pc, #204]	; 892c <mark+0x154>
    885c:	e59f00cc 	ldr	r0, [pc, #204]	; 8930 <mark+0x158>
    8860:	eb000204 	bl	9078 <printk>
    8864:	eb0004ba 	bl	9b54 <clean_reboot>
    8868:	e3a03002 	mov	r3, #2, 0
    886c:	ea00001b 	b	88e0 <mark+0x108>
    8870:	e3a01002 	mov	r1, #2, 0
    8874:	e59f00c0 	ldr	r0, [pc, #192]	; 893c <mark+0x164>
    8878:	eb0001fe 	bl	9078 <printk>
    887c:	e3580000 	cmp	r8, #0, 0
    8880:	0a00001c 	beq	88f8 <mark+0x120>
    8884:	e2844004 	add	r4, r4, #4, 0
    8888:	e1540006 	cmp	r4, r6
    888c:	8a000022 	bhi	891c <mark+0x144>
    8890:	e5940000 	ldr	r0, [r4]
    8894:	ebffffc0 	bl	879c <is_ptr>
    8898:	e2505000 	subs	r5, r0, #0, 0
    889c:	0afffff8 	beq	8884 <mark+0xac>
    88a0:	e28570b4 	add	r7, r5, #180, 0	; 0xb4
    88a4:	e1d583b0 	ldrh	r8, [r5, #48]	; 0x30
    88a8:	e1a00005 	mov	r0, r5
    88ac:	ebfffe40 	bl	81b4 <ck_hdr_start>
    88b0:	e1a01000 	mov	r1, r0
    88b4:	e58d7000 	str	r7, [sp]
    88b8:	e5943000 	ldr	r3, [r4]
    88bc:	e1a02004 	mov	r2, r4
    88c0:	e59f0078 	ldr	r0, [pc, #120]	; 8940 <mark+0x168>
    88c4:	eb0001eb 	bl	9078 <printk>
    88c8:	e3580001 	cmp	r8, #1, 0
    88cc:	8a00000f 	bhi	8910 <mark+0x138>
    88d0:	e5943000 	ldr	r3, [r4]
    88d4:	e1530007 	cmp	r3, r7
    88d8:	0affffe2 	beq	8868 <mark+0x90>
    88dc:	e3a03001 	mov	r3, #1, 0
    88e0:	e1c533b0 	strh	r3, [r5, #48]	; 0x30
    88e4:	e5943000 	ldr	r3, [r4]
    88e8:	e1530007 	cmp	r3, r7
    88ec:	0affffdf 	beq	8870 <mark+0x98>
    88f0:	e3a01001 	mov	r1, #1, 0
    88f4:	eaffffde 	b	8874 <mark+0x9c>
    88f8:	e5951004 	ldr	r1, [r5, #4]
    88fc:	e28110b4 	add	r1, r1, #180, 0	; 0xb4
    8900:	e0851001 	add	r1, r5, r1
    8904:	e2850004 	add	r0, r5, #4, 0
    8908:	ebffffb2 	bl	87d8 <mark>
    890c:	eaffffdc 	b	8884 <mark+0xac>
    8910:	e59f002c 	ldr	r0, [pc, #44]	; 8944 <mark+0x16c>
    8914:	eb0001d7 	bl	9078 <printk>
    8918:	eaffffd9 	b	8884 <mark+0xac>
    891c:	e24bd020 	sub	sp, fp, #32, 0
    8920:	e89da9f0 	ldm	sp, {r4, r5, r6, r7, r8, fp, sp, pc}
    8924:	0000a840 	andeq	sl, r0, r0, asr #16
    8928:	0000ab80 	andeq	sl, r0, r0, lsl #23
    892c:	0000a820 	andeq	sl, r0, r0, lsr #16
    8930:	0000a7ac 	andeq	sl, r0, ip, lsr #15
    8934:	0000a828 	andeq	sl, r0, r8, lsr #16
    8938:	0000a830 	andeq	sl, r0, r0, lsr r8
    893c:	0000a87c 	andeq	sl, r0, ip, ror r8
    8940:	0000a850 	andeq	sl, r0, r0, asr r8
    8944:	0000a88c 	andeq	sl, r0, ip, lsl #17
    8948:	6b72616d 	blvs	1ca0f04 <__bss_end__+0x1c95b74>
    894c:	6c6c615f 	stfvse	f6, [ip], #-380	; 0xfffffe84
    8950:	00000000 	andeq	r0, r0, r0
    8954:	ff00000c 			; <UNDEFINED> instruction: 0xff00000c

00008958 <mark_all>:
    8958:	e1a0c00d 	mov	ip, sp
    895c:	e92dd800 	push	{fp, ip, lr, pc}
    8960:	e24cb004 	sub	fp, ip, #4, 0
    8964:	e24dd040 	sub	sp, sp, #64, 0	; 0x40
    8968:	ebfffdfa 	bl	8158 <ck_first_hdr>
    896c:	e3500000 	cmp	r0, #0, 0
    8970:	0a000005 	beq	898c <mark_all+0x34>
    8974:	e3a03000 	mov	r3, #0, 0
    8978:	e580302c 	str	r3, [r0, #44]	; 0x2c
    897c:	e5803028 	str	r3, [r0, #40]	; 0x28
    8980:	e1c033b0 	strh	r3, [r0, #48]	; 0x30
    8984:	ebfffdfe 	bl	8184 <ck_next_hdr>
    8988:	eafffff7 	b	896c <mark_all+0x14>
    898c:	e24b004c 	sub	r0, fp, #76, 0	; 0x4c
    8990:	eb000170 	bl	8f58 <dump_regs>
    8994:	e3a03000 	mov	r3, #0, 0
    8998:	e50b304c 	str	r3, [fp, #-76]	; 0xffffffb4
    899c:	e50b3048 	str	r3, [fp, #-72]	; 0xffffffb8
    89a0:	e50b3044 	str	r3, [fp, #-68]	; 0xffffffbc
    89a4:	e50b3040 	str	r3, [fp, #-64]	; 0xffffffc0
    89a8:	e24b1014 	sub	r1, fp, #20, 0
    89ac:	e24b004c 	sub	r0, fp, #76, 0	; 0x4c
    89b0:	ebffff88 	bl	87d8 <mark>
    89b4:	e3a02302 	mov	r2, #134217728	; 0x8000000
    89b8:	e51b1018 	ldr	r1, [fp, #-24]	; 0xffffffe8
    89bc:	e59f002c 	ldr	r0, [pc, #44]	; 89f0 <mark_all+0x98>
    89c0:	eb0001ac 	bl	9078 <printk>
    89c4:	e3a01302 	mov	r1, #134217728	; 0x8000000
    89c8:	e51b0018 	ldr	r0, [fp, #-24]	; 0xffffffe8
    89cc:	ebffff81 	bl	87d8 <mark>
    89d0:	e59f101c 	ldr	r1, [pc, #28]	; 89f4 <mark_all+0x9c>
    89d4:	e59f001c 	ldr	r0, [pc, #28]	; 89f8 <mark_all+0xa0>
    89d8:	ebffff7e 	bl	87d8 <mark>
    89dc:	e59f1018 	ldr	r1, [pc, #24]	; 89fc <mark_all+0xa4>
    89e0:	e59f0018 	ldr	r0, [pc, #24]	; 8a00 <mark_all+0xa8>
    89e4:	ebffff7b 	bl	87d8 <mark>
    89e8:	e24bd00c 	sub	sp, fp, #12, 0
    89ec:	e89da800 	ldm	sp, {fp, sp, pc}
    89f0:	0000a89c 	muleq	r0, ip, r8
    89f4:	0000b390 	muleq	r0, r0, r3
    89f8:	0000af68 	andeq	sl, r0, r8, ror #30
    89fc:	0000af68 	andeq	sl, r0, r8, ror #30
    8a00:	0000af50 	andeq	sl, r0, r0, asr pc
    8a04:	65657773 	strbvs	r7, [r5, #-1907]!	; 0xfffff88d
    8a08:	656c5f70 	strbvs	r5, [ip, #-3952]!	; 0xfffff090
    8a0c:	00006b61 	andeq	r6, r0, r1, ror #22
    8a10:	ff00000c 			; <UNDEFINED> instruction: 0xff00000c

00008a14 <sweep_leak>:
    8a14:	e1a0c00d 	mov	ip, sp
    8a18:	e92ddbf0 	push	{r4, r5, r6, r7, r8, r9, fp, ip, lr, pc}
    8a1c:	e24cb004 	sub	fp, ip, #4, 0
    8a20:	e1a07000 	mov	r7, r0
    8a24:	e59f00c4 	ldr	r0, [pc, #196]	; 8af0 <sweep_leak+0xdc>
    8a28:	eb000192 	bl	9078 <printk>
    8a2c:	e59f00c0 	ldr	r0, [pc, #192]	; 8af4 <sweep_leak+0xe0>
    8a30:	eb000190 	bl	9078 <printk>
    8a34:	ebffffc7 	bl	8958 <mark_all>
    8a38:	ebfffdc6 	bl	8158 <ck_first_hdr>
    8a3c:	e1a04000 	mov	r4, r0
    8a40:	e3a08000 	mov	r8, #0, 0
    8a44:	e1a06008 	mov	r6, r8
    8a48:	e1a05008 	mov	r5, r8
    8a4c:	ea000007 	b	8a70 <sweep_leak+0x5c>
    8a50:	e2866001 	add	r6, r6, #1, 0
    8a54:	e1a02004 	mov	r2, r4
    8a58:	e1a01005 	mov	r1, r5
    8a5c:	e59f0094 	ldr	r0, [pc, #148]	; 8af8 <sweep_leak+0xe4>
    8a60:	eb000184 	bl	9078 <printk>
    8a64:	e1a00004 	mov	r0, r4
    8a68:	ebfffdc5 	bl	8184 <ck_next_hdr>
    8a6c:	e1a04000 	mov	r4, r0
    8a70:	e3540000 	cmp	r4, #0, 0
    8a74:	0a00000b 	beq	8aa8 <sweep_leak+0x94>
    8a78:	e2855001 	add	r5, r5, #1, 0
    8a7c:	e1d433b0 	ldrh	r3, [r4, #48]	; 0x30
    8a80:	e3530000 	cmp	r3, #0, 0
    8a84:	0afffff1 	beq	8a50 <sweep_leak+0x3c>
    8a88:	e3530001 	cmp	r3, #1, 0
    8a8c:	1afffff4 	bne	8a64 <sweep_leak+0x50>
    8a90:	e2888001 	add	r8, r8, #1, 0
    8a94:	e1a02004 	mov	r2, r4
    8a98:	e1a01005 	mov	r1, r5
    8a9c:	e59f0058 	ldr	r0, [pc, #88]	; 8afc <sweep_leak+0xe8>
    8aa0:	eb000174 	bl	9078 <printk>
    8aa4:	eaffffee 	b	8a64 <sweep_leak+0x50>
    8aa8:	e1a01005 	mov	r1, r5
    8aac:	e59f004c 	ldr	r0, [pc, #76]	; 8b00 <sweep_leak+0xec>
    8ab0:	eb000170 	bl	9078 <printk>
    8ab4:	e1963008 	orrs	r3, r6, r8
    8ab8:	1a000007 	bne	8adc <sweep_leak+0xc8>
    8abc:	e59f0040 	ldr	r0, [pc, #64]	; 8b04 <sweep_leak+0xf0>
    8ac0:	eb00016c 	bl	9078 <printk>
    8ac4:	e59f003c 	ldr	r0, [pc, #60]	; 8b08 <sweep_leak+0xf4>
    8ac8:	eb00016a 	bl	9078 <printk>
    8acc:	e3570000 	cmp	r7, #0, 0
    8ad0:	10866008 	addne	r6, r6, r8
    8ad4:	e1a00006 	mov	r0, r6
    8ad8:	e89dabf0 	ldm	sp, {r4, r5, r6, r7, r8, r9, fp, sp, pc}
    8adc:	e1a02008 	mov	r2, r8
    8ae0:	e1a01006 	mov	r1, r6
    8ae4:	e59f0020 	ldr	r0, [pc, #32]	; 8b0c <sweep_leak+0xf8>
    8ae8:	eb000162 	bl	9078 <printk>
    8aec:	eafffff4 	b	8ac4 <sweep_leak+0xb0>
    8af0:	0000a8b8 			; <UNDEFINED> instruction: 0x0000a8b8
    8af4:	0000a8f4 	strdeq	sl, [r0], -r4
    8af8:	0000a90c 	andeq	sl, r0, ip, lsl #18
    8afc:	0000a920 	andeq	sl, r0, r0, lsr #18
    8b00:	0000a938 	andeq	sl, r0, r8, lsr r9
    8b04:	0000a958 	andeq	sl, r0, r8, asr r9
    8b08:	0000a9b0 			; <UNDEFINED> instruction: 0x0000a9b0
    8b0c:	0000a980 	andeq	sl, r0, r0, lsl #19
    8b10:	65657773 	strbvs	r7, [r5, #-1907]!	; 0xfffff88d
    8b14:	72665f70 	rsbvc	r5, r6, #112, 30	; 0x1c0
    8b18:	00006565 	andeq	r6, r0, r5, ror #10
    8b1c:	ff00000c 			; <UNDEFINED> instruction: 0xff00000c

00008b20 <sweep_free>:
    8b20:	e1a0c00d 	mov	ip, sp
    8b24:	e92dd9f0 	push	{r4, r5, r6, r7, r8, fp, ip, lr, pc}
    8b28:	e24cb004 	sub	fp, ip, #4, 0
    8b2c:	e24dd014 	sub	sp, sp, #20, 0
    8b30:	e59f00b0 	ldr	r0, [pc, #176]	; 8be8 <sweep_free+0xc8>
    8b34:	eb00014f 	bl	9078 <printk>
    8b38:	e59f00ac 	ldr	r0, [pc, #172]	; 8bec <sweep_free+0xcc>
    8b3c:	eb00014d 	bl	9078 <printk>
    8b40:	ebffff84 	bl	8958 <mark_all>
    8b44:	ebfffd83 	bl	8158 <ck_first_hdr>
    8b48:	e1a04000 	mov	r4, r0
    8b4c:	e3a07000 	mov	r7, #0, 0
    8b50:	e1a08007 	mov	r8, r7
    8b54:	e1a05007 	mov	r5, r7
    8b58:	ea000013 	b	8bac <sweep_free+0x8c>
    8b5c:	e2888001 	add	r8, r8, #1, 0
    8b60:	e5943004 	ldr	r3, [r4, #4]
    8b64:	e0877003 	add	r7, r7, r3
    8b68:	e28460b4 	add	r6, r4, #180, 0	; 0xb4
    8b6c:	e59f307c 	ldr	r3, [pc, #124]	; 8bf0 <sweep_free+0xd0>
    8b70:	e50b3030 	str	r3, [fp, #-48]	; 0xffffffd0
    8b74:	e59f3078 	ldr	r3, [pc, #120]	; 8bf4 <sweep_free+0xd4>
    8b78:	e50b302c 	str	r3, [fp, #-44]	; 0xffffffd4
    8b7c:	e59f3074 	ldr	r3, [pc, #116]	; 8bf8 <sweep_free+0xd8>
    8b80:	e50b3028 	str	r3, [fp, #-40]	; 0xffffffd8
    8b84:	e24b3024 	sub	r3, fp, #36, 0	; 0x24
    8b88:	e913000e 	ldmdb	r3, {r1, r2, r3}
    8b8c:	e1a00006 	mov	r0, r6
    8b90:	ebfffdcc 	bl	82c8 <ckfree>
    8b94:	e1a01006 	mov	r1, r6
    8b98:	e59f005c 	ldr	r0, [pc, #92]	; 8bfc <sweep_free+0xdc>
    8b9c:	eb000135 	bl	9078 <printk>
    8ba0:	e1a00004 	mov	r0, r4
    8ba4:	ebfffd76 	bl	8184 <ck_next_hdr>
    8ba8:	e1a04000 	mov	r4, r0
    8bac:	e3540000 	cmp	r4, #0, 0
    8bb0:	0a000004 	beq	8bc8 <sweep_free+0xa8>
    8bb4:	e2855001 	add	r5, r5, #1, 0
    8bb8:	e1d433b0 	ldrh	r3, [r4, #48]	; 0x30
    8bbc:	e3530000 	cmp	r3, #0, 0
    8bc0:	1afffff6 	bne	8ba0 <sweep_free+0x80>
    8bc4:	eaffffe4 	b	8b5c <sweep_free+0x3c>
    8bc8:	e1a03007 	mov	r3, r7
    8bcc:	e1a02008 	mov	r2, r8
    8bd0:	e1a01005 	mov	r1, r5
    8bd4:	e59f0024 	ldr	r0, [pc, #36]	; 8c00 <sweep_free+0xe0>
    8bd8:	eb000126 	bl	9078 <printk>
    8bdc:	e1a00007 	mov	r0, r7
    8be0:	e24bd020 	sub	sp, fp, #32, 0
    8be4:	e89da9f0 	ldm	sp, {r4, r5, r6, r7, r8, fp, sp, pc}
    8be8:	0000a8b8 			; <UNDEFINED> instruction: 0x0000a8b8
    8bec:	0000a9ec 	andeq	sl, r0, ip, ror #19
    8bf0:	0000a820 	andeq	sl, r0, r0, lsr #16
    8bf4:	0000ab88 	andeq	sl, r0, r8, lsl #23
    8bf8:	0000011e 	andeq	r0, r0, lr, lsl r1
    8bfc:	0000a9fc 	strdeq	sl, [r0], -ip
    8c00:	0000aa0c 	andeq	sl, r0, ip, lsl #20
    8c04:	6b726273 	blvs	1ca15d8 <__bss_end__+0x1c96248>
    8c08:	00000000 	andeq	r0, r0, r0
    8c0c:	ff000008 			; <UNDEFINED> instruction: 0xff000008

00008c10 <sbrk>:
    8c10:	e1a0c00d 	mov	ip, sp
    8c14:	e92dd830 	push	{r4, r5, fp, ip, lr, pc}
    8c18:	e24cb004 	sub	fp, ip, #4, 0
    8c1c:	e24dd008 	sub	sp, sp, #8, 0
    8c20:	e2504000 	subs	r4, r0, #0, 0
    8c24:	da000010 	ble	8c6c <sbrk+0x5c>
    8c28:	e59f3074 	ldr	r3, [pc, #116]	; 8ca4 <sbrk+0x94>
    8c2c:	e5933008 	ldr	r3, [r3, #8]
    8c30:	e3530000 	cmp	r3, #0, 0
    8c34:	1a000014 	bne	8c8c <sbrk+0x7c>
    8c38:	e59f5064 	ldr	r5, [pc, #100]	; 8ca4 <sbrk+0x94>
    8c3c:	e3a00601 	mov	r0, #1048576	; 0x100000
    8c40:	e5850000 	str	r0, [r5]
    8c44:	e3a03602 	mov	r3, #2097152	; 0x200000
    8c48:	e5853004 	str	r3, [r5, #4]
    8c4c:	e1a01000 	mov	r1, r0
    8c50:	eb0004fb 	bl	a044 <kmalloc_init_set_start>
    8c54:	e3a03001 	mov	r3, #1, 0
    8c58:	e5853008 	str	r3, [r5, #8]
    8c5c:	e1a00004 	mov	r0, r4
    8c60:	eb00055a 	bl	a1d0 <kmalloc>
    8c64:	e24bd014 	sub	sp, fp, #20, 0
    8c68:	e89da830 	ldm	sp, {r4, r5, fp, sp, pc}
    8c6c:	e59f3034 	ldr	r3, [pc, #52]	; 8ca8 <sbrk+0x98>
    8c70:	e58d3000 	str	r3, [sp]
    8c74:	e3a03017 	mov	r3, #23, 0
    8c78:	e59f202c 	ldr	r2, [pc, #44]	; 8cac <sbrk+0x9c>
    8c7c:	e59f102c 	ldr	r1, [pc, #44]	; 8cb0 <sbrk+0xa0>
    8c80:	e59f002c 	ldr	r0, [pc, #44]	; 8cb4 <sbrk+0xa4>
    8c84:	eb0000fb 	bl	9078 <printk>
    8c88:	eb0003b1 	bl	9b54 <clean_reboot>
    8c8c:	e3a03019 	mov	r3, #25, 0
    8c90:	e59f2014 	ldr	r2, [pc, #20]	; 8cac <sbrk+0x9c>
    8c94:	e59f1014 	ldr	r1, [pc, #20]	; 8cb0 <sbrk+0xa0>
    8c98:	e59f0018 	ldr	r0, [pc, #24]	; 8cb8 <sbrk+0xa8>
    8c9c:	eb0000f5 	bl	9078 <printk>
    8ca0:	eb0003ab 	bl	9b54 <clean_reboot>
    8ca4:	0000af80 	andeq	sl, r0, r0, lsl #31
    8ca8:	0000aa40 	andeq	sl, r0, r0, asr #20
    8cac:	0000ab94 	muleq	r0, r4, fp
    8cb0:	0000a820 	andeq	sl, r0, r0, lsr #16
    8cb4:	0000a7ac 	andeq	sl, r0, ip, lsr #15
    8cb8:	0000aa50 	andeq	sl, r0, r0, asr sl
    8cbc:	7a646572 	bvc	192228c <__bss_end__+0x1916efc>
    8cc0:	5f656e6f 	svcpl	0x00656e6f
    8cc4:	6f727265 	svcvs	0x00727265
    8cc8:	00007372 	andeq	r7, r0, r2, ror r3
    8ccc:	ff000010 			; <UNDEFINED> instruction: 0xff000010

00008cd0 <redzone_errors>:
    8cd0:	e1a0c00d 	mov	ip, sp
    8cd4:	e92dd800 	push	{fp, ip, lr, pc}
    8cd8:	e24cb004 	sub	fp, ip, #4, 0
    8cdc:	e1a0c000 	mov	ip, r0
    8ce0:	e3a03000 	mov	r3, #0, 0
    8ce4:	e1a00003 	mov	r0, r3
    8ce8:	ea000001 	b	8cf4 <redzone_errors+0x24>
    8cec:	e2800001 	add	r0, r0, #1, 0
    8cf0:	e2833001 	add	r3, r3, #1, 0
    8cf4:	e1530001 	cmp	r3, r1
    8cf8:	a89da800 	ldmge	sp, {fp, sp, pc}
    8cfc:	e7dc2003 	ldrb	r2, [ip, r3]
    8d00:	e35200fe 	cmp	r2, #254, 0	; 0xfe
    8d04:	1afffff8 	bne	8cec <redzone_errors+0x1c>
    8d08:	eafffff8 	b	8cf0 <redzone_errors+0x20>
    8d0c:	685f6b63 	ldmdavs	pc, {r0, r1, r5, r6, r8, r9, fp, sp, lr}^	; <UNPREDICTABLE>
    8d10:	5f706165 	svcpl	0x00706165
    8d14:	6f727265 	svcvs	0x00727265
    8d18:	00007372 	andeq	r7, r0, r2, ror r3
    8d1c:	ff000010 			; <UNDEFINED> instruction: 0xff000010

00008d20 <ck_heap_errors>:
    8d20:	e1a0c00d 	mov	ip, sp
    8d24:	e92dd8f0 	push	{r4, r5, r6, r7, fp, ip, lr, pc}
    8d28:	e24cb004 	sub	fp, ip, #4, 0
    8d2c:	ebfffd09 	bl	8158 <ck_first_hdr>
    8d30:	e1a04000 	mov	r4, r0
    8d34:	e3a06000 	mov	r6, #0, 0
    8d38:	ea00000a 	b	8d68 <ck_heap_errors+0x48>
    8d3c:	e5943024 	ldr	r3, [r4, #36]	; 0x24
    8d40:	e5942020 	ldr	r2, [r4, #32]
    8d44:	e594101c 	ldr	r1, [r4, #28]
    8d48:	e59f0098 	ldr	r0, [pc, #152]	; 8de8 <ck_heap_errors+0xc8>
    8d4c:	eb0000c9 	bl	9078 <printk>
    8d50:	e59f0094 	ldr	r0, [pc, #148]	; 8dec <ck_heap_errors+0xcc>
    8d54:	eb0000c7 	bl	9078 <printk>
    8d58:	e0866005 	add	r6, r6, r5
    8d5c:	e1a00004 	mov	r0, r4
    8d60:	ebfffd07 	bl	8184 <ck_next_hdr>
    8d64:	e1a04000 	mov	r4, r0
    8d68:	e3540000 	cmp	r4, #0, 0
    8d6c:	0a00001b 	beq	8de0 <ck_heap_errors+0xc0>
    8d70:	e3a01080 	mov	r1, #128, 0	; 0x80
    8d74:	e2840032 	add	r0, r4, #50, 0	; 0x32
    8d78:	ebffffd4 	bl	8cd0 <redzone_errors>
    8d7c:	e1a05000 	mov	r5, r0
    8d80:	e28470b4 	add	r7, r4, #180, 0	; 0xb4
    8d84:	e5940004 	ldr	r0, [r4, #4]
    8d88:	e28000b4 	add	r0, r0, #180, 0	; 0xb4
    8d8c:	e3a01080 	mov	r1, #128, 0	; 0x80
    8d90:	e0840000 	add	r0, r4, r0
    8d94:	ebffffcd 	bl	8cd0 <redzone_errors>
    8d98:	e0855000 	add	r5, r5, r0
    8d9c:	e5943018 	ldr	r3, [r4, #24]
    8da0:	e5942014 	ldr	r2, [r4, #20]
    8da4:	e5941010 	ldr	r1, [r4, #16]
    8da8:	e59f0038 	ldr	r0, [pc, #56]	; 8de8 <ck_heap_errors+0xc8>
    8dac:	eb0000b1 	bl	9078 <printk>
    8db0:	e59f0038 	ldr	r0, [pc, #56]	; 8df0 <ck_heap_errors+0xd0>
    8db4:	eb0000af 	bl	9078 <printk>
    8db8:	e5943008 	ldr	r3, [r4, #8]
    8dbc:	e353000c 	cmp	r3, #12, 0
    8dc0:	1affffe4 	bne	8d58 <ck_heap_errors+0x38>
    8dc4:	e5941004 	ldr	r1, [r4, #4]
    8dc8:	e1a00007 	mov	r0, r7
    8dcc:	ebffffbf 	bl	8cd0 <redzone_errors>
    8dd0:	e0855000 	add	r5, r5, r0
    8dd4:	e3500000 	cmp	r0, #0, 0
    8dd8:	0affffde 	beq	8d58 <ck_heap_errors+0x38>
    8ddc:	eaffffd6 	b	8d3c <ck_heap_errors+0x1c>
    8de0:	e1a00006 	mov	r0, r6
    8de4:	e89da8f0 	ldm	sp, {r4, r5, r6, r7, fp, sp, pc}
    8de8:	0000a70c 	andeq	sl, r0, ip, lsl #14
    8dec:	0000aaa0 	andeq	sl, r0, r0, lsr #21
    8df0:	0000aa70 	andeq	sl, r0, r0, ror sl
    8df4:	665f6b63 	ldrbvs	r6, [pc], -r3, ror #22
    8df8:	5f646e69 	svcpl	0x00646e69
    8dfc:	6b61656c 	blvs	18623b4 <__bss_end__+0x1857024>
    8e00:	00000073 	andeq	r0, r0, r3, ror r0
    8e04:	ff000010 			; <UNDEFINED> instruction: 0xff000010

00008e08 <ck_find_leaks>:
    8e08:	e1a0c00d 	mov	ip, sp
    8e0c:	e92dd800 	push	{fp, ip, lr, pc}
    8e10:	e24cb004 	sub	fp, ip, #4, 0
    8e14:	ebfffefe 	bl	8a14 <sweep_leak>
    8e18:	e89da800 	ldm	sp, {fp, sp, pc}
    8e1c:	63656863 	cmnvs	r5, #6488064	; 0x630000
    8e20:	6f6e5f6b 	svcvs	0x006e5f6b
    8e24:	61656c5f 	cmnvs	r5, pc, asr ip
    8e28:	0000006b 	andeq	r0, r0, fp, rrx
    8e2c:	ff000010 			; <UNDEFINED> instruction: 0xff000010

00008e30 <check_no_leak>:
    8e30:	e1a0c00d 	mov	ip, sp
    8e34:	e92dd800 	push	{fp, ip, lr, pc}
    8e38:	e24cb004 	sub	fp, ip, #4, 0
    8e3c:	e3a00001 	mov	r0, #1, 0
    8e40:	ebfffff0 	bl	8e08 <ck_find_leaks>
    8e44:	e3500000 	cmp	r0, #0, 0
    8e48:	1a000002 	bne	8e58 <check_no_leak+0x28>
    8e4c:	e59f001c 	ldr	r0, [pc, #28]	; 8e70 <check_no_leak+0x40>
    8e50:	eb000088 	bl	9078 <printk>
    8e54:	e89da800 	ldm	sp, {fp, sp, pc}
    8e58:	e3a030f9 	mov	r3, #249, 0	; 0xf9
    8e5c:	e59f2010 	ldr	r2, [pc, #16]	; 8e74 <check_no_leak+0x44>
    8e60:	e59f1010 	ldr	r1, [pc, #16]	; 8e78 <check_no_leak+0x48>
    8e64:	e59f0010 	ldr	r0, [pc, #16]	; 8e7c <check_no_leak+0x4c>
    8e68:	eb000082 	bl	9078 <printk>
    8e6c:	eb000338 	bl	9b54 <clean_reboot>
    8e70:	0000aae4 	andeq	sl, r0, r4, ror #21
    8e74:	0000ab9c 	muleq	r0, ip, fp
    8e78:	0000a820 	andeq	sl, r0, r0, lsr #16
    8e7c:	0000aab8 			; <UNDEFINED> instruction: 0x0000aab8
    8e80:	63656863 	cmnvs	r5, #6488064	; 0x630000
    8e84:	68735f6b 	ldmdavs	r3!, {r0, r1, r3, r5, r6, r8, r9, sl, fp, ip, lr}^
    8e88:	646c756f 	strbtvs	r7, [ip], #-1391	; 0xfffffa91
    8e8c:	61656c5f 	cmnvs	r5, pc, asr ip
    8e90:	0000006b 	andeq	r0, r0, fp, rrx
    8e94:	ff000014 			; <UNDEFINED> instruction: 0xff000014

00008e98 <check_should_leak>:
    8e98:	e1a0c00d 	mov	ip, sp
    8e9c:	e92dd830 	push	{r4, r5, fp, ip, lr, pc}
    8ea0:	e24cb004 	sub	fp, ip, #4, 0
    8ea4:	e3a00001 	mov	r0, #1, 0
    8ea8:	ebffffd6 	bl	8e08 <ck_find_leaks>
    8eac:	e2504000 	subs	r4, r0, #0, 0
    8eb0:	0a000004 	beq	8ec8 <check_should_leak+0x30>
    8eb4:	e1a01004 	mov	r1, r4
    8eb8:	e59f0020 	ldr	r0, [pc, #32]	; 8ee0 <check_should_leak+0x48>
    8ebc:	eb00006d 	bl	9078 <printk>
    8ec0:	e1a00004 	mov	r0, r4
    8ec4:	e89da830 	ldm	sp, {r4, r5, fp, sp, pc}
    8ec8:	e3a03f42 	mov	r3, #264	; 0x108
    8ecc:	e59f2010 	ldr	r2, [pc, #16]	; 8ee4 <check_should_leak+0x4c>
    8ed0:	e59f1010 	ldr	r1, [pc, #16]	; 8ee8 <check_should_leak+0x50>
    8ed4:	e59f0010 	ldr	r0, [pc, #16]	; 8eec <check_should_leak+0x54>
    8ed8:	eb000066 	bl	9078 <printk>
    8edc:	eb00031c 	bl	9b54 <clean_reboot>
    8ee0:	0000ab2c 	andeq	sl, r0, ip, lsr #22
    8ee4:	0000abac 	andeq	sl, r0, ip, lsr #23
    8ee8:	0000a820 	andeq	sl, r0, r0, lsr #16
    8eec:	0000ab04 	andeq	sl, r0, r4, lsl #22
    8ef0:	675f6b63 	ldrbvs	r6, [pc, -r3, ror #22]
    8ef4:	00000063 	andeq	r0, r0, r3, rrx
    8ef8:	ff000008 			; <UNDEFINED> instruction: 0xff000008

00008efc <ck_gc>:
    8efc:	e1a0c00d 	mov	ip, sp
    8f00:	e92dd800 	push	{fp, ip, lr, pc}
    8f04:	e24cb004 	sub	fp, ip, #4, 0
    8f08:	ebfffe92 	bl	8958 <mark_all>
    8f0c:	ebffff03 	bl	8b20 <sweep_free>
    8f10:	e89da800 	ldm	sp, {fp, sp, pc}
    8f14:	6c706d69 	ldclvs	13, cr6, [r0], #-420	; 0xfffffe5c
    8f18:	6e656d65 	cdpvs	13, 6, cr6, cr5, cr5, {3}
    8f1c:	68745f74 	ldmdavs	r4!, {r2, r4, r5, r6, r8, r9, sl, fp, ip, lr}^
    8f20:	00007369 	andeq	r7, r0, r9, ror #6
    8f24:	ff000010 			; <UNDEFINED> instruction: 0xff000010

00008f28 <implement_this>:
    8f28:	e1a0c00d 	mov	ip, sp
    8f2c:	e92dd800 	push	{fp, ip, lr, pc}
    8f30:	e24cb004 	sub	fp, ip, #4, 0
    8f34:	e3a03f4d 	mov	r3, #308	; 0x134
    8f38:	e59f200c 	ldr	r2, [pc, #12]	; 8f4c <implement_this+0x24>
    8f3c:	e59f100c 	ldr	r1, [pc, #12]	; 8f50 <implement_this+0x28>
    8f40:	e59f000c 	ldr	r0, [pc, #12]	; 8f54 <implement_this+0x2c>
    8f44:	eb00004b 	bl	9078 <printk>
    8f48:	eb000301 	bl	9b54 <clean_reboot>
    8f4c:	0000abc0 	andeq	sl, r0, r0, asr #23
    8f50:	0000a820 	andeq	sl, r0, r0, lsr #16
    8f54:	0000ab50 	andeq	sl, r0, r0, asr fp

00008f58 <dump_regs>:
    8f58:	e8a0ffff 	stmia	r0!, {r0, r1, r2, r3, r4, r5, r6, r7, r8, r9, sl, fp, ip, sp, lr, pc}
    8f5c:	e12fff1e 	bx	lr

00008f60 <backtrace>:
    8f60:	e92d41f0 	push	{r4, r5, r6, r7, r8, lr}
    8f64:	e1a0400b 	mov	r4, fp
    8f68:	e3540000 	cmp	r4, #0, 0
    8f6c:	0a000016 	beq	8fcc <backtrace+0x6c>
    8f70:	e3a07000 	mov	r7, #0, 0
    8f74:	e59f605c 	ldr	r6, [pc, #92]	; 8fd8 <backtrace+0x78>
    8f78:	e59f505c 	ldr	r5, [pc, #92]	; 8fdc <backtrace+0x7c>
    8f7c:	ea000002 	b	8f8c <backtrace+0x2c>
    8f80:	e2877001 	add	r7, r7, #1, 0
    8f84:	e3570020 	cmp	r7, #32, 0
    8f88:	0a00000f 	beq	8fcc <backtrace+0x6c>
    8f8c:	e5940000 	ldr	r0, [r4]
    8f90:	e1a01007 	mov	r1, r7
    8f94:	e5103010 	ldr	r3, [r0, #-16]
    8f98:	e240200c 	sub	r2, r0, #12, 0
    8f9c:	e31304ff 	tst	r3, #-16777216	; 0xff000000
    8fa0:	e2400010 	sub	r0, r0, #16, 0
    8fa4:	e3c334ff 	bic	r3, r3, #-16777216	; 0xff000000
    8fa8:	10403003 	subne	r3, r0, r3
    8fac:	01a03006 	moveq	r3, r6
    8fb0:	e1a00005 	mov	r0, r5
    8fb4:	eb00002f 	bl	9078 <printk>
    8fb8:	e514400c 	ldr	r4, [r4, #-12]
    8fbc:	e3540000 	cmp	r4, #0, 0
    8fc0:	1affffee 	bne	8f80 <backtrace+0x20>
    8fc4:	e1a00007 	mov	r0, r7
    8fc8:	e8bd81f0 	pop	{r4, r5, r6, r7, r8, pc}
    8fcc:	e3e07000 	mvn	r7, #0, 0
    8fd0:	e1a00007 	mov	r0, r7
    8fd4:	e8bd81f0 	pop	{r4, r5, r6, r7, r8, pc}
    8fd8:	0000abd0 	ldrdeq	sl, [r0], -r0
    8fdc:	0000abd4 	ldrdeq	sl, [r0], -r4

00008fe0 <name_of>:
    8fe0:	e5103004 	ldr	r3, [r0, #-4]
    8fe4:	e2400004 	sub	r0, r0, #4, 0
    8fe8:	e31304ff 	tst	r3, #-16777216	; 0xff000000
    8fec:	13c334ff 	bicne	r3, r3, #-16777216	; 0xff000000
    8ff0:	10400003 	subne	r0, r0, r3
    8ff4:	059f0000 	ldreq	r0, [pc]	; 8ffc <name_of+0x1c>
    8ff8:	e12fff1e 	bx	lr
    8ffc:	0000abd0 	ldrdeq	sl, [r0], -r0

00009000 <memset>:
    9000:	e92d4010 	push	{r4, lr}
    9004:	e0804002 	add	r4, r0, r2
    9008:	e1500004 	cmp	r0, r4
    900c:	28bd8010 	popcs	{r4, pc}
    9010:	e2423001 	sub	r3, r2, #1, 0
    9014:	e3530002 	cmp	r3, #2, 0
    9018:	e6ef1071 	uxtb	r1, r1
    901c:	e1a03000 	mov	r3, r0
    9020:	9a00000b 	bls	9054 <memset+0x54>
    9024:	e181e401 	orr	lr, r1, r1, lsl #8
    9028:	e18ee801 	orr	lr, lr, r1, lsl #16
    902c:	e3c2c003 	bic	ip, r2, #3, 0
    9030:	e18eec01 	orr	lr, lr, r1, lsl #24
    9034:	e08cc000 	add	ip, ip, r0
    9038:	e483e004 	str	lr, [r3], #4
    903c:	e153000c 	cmp	r3, ip
    9040:	1afffffc 	bne	9038 <memset+0x38>
    9044:	e3c23003 	bic	r3, r2, #3, 0
    9048:	e1520003 	cmp	r2, r3
    904c:	e0803003 	add	r3, r0, r3
    9050:	08bd8010 	popeq	{r4, pc}
    9054:	e1a02003 	mov	r2, r3
    9058:	e4c21001 	strb	r1, [r2], #1
    905c:	e1540002 	cmp	r4, r2
    9060:	98bd8010 	popls	{r4, pc}
    9064:	e2832002 	add	r2, r3, #2, 0
    9068:	e1540002 	cmp	r4, r2
    906c:	e5c31001 	strb	r1, [r3, #1]
    9070:	85c31002 	strbhi	r1, [r3, #2]
    9074:	e8bd8010 	pop	{r4, pc}

00009078 <printk>:
    9078:	e92d000f 	push	{r0, r1, r2, r3}
    907c:	e92d4030 	push	{r4, r5, lr}
    9080:	e59f5040 	ldr	r5, [pc, #64]	; 90c8 <printk+0x50>
    9084:	e24dd00c 	sub	sp, sp, #12, 0
    9088:	e28d301c 	add	r3, sp, #28, 0
    908c:	e3a01b01 	mov	r1, #1024	; 0x400
    9090:	e59d2018 	ldr	r2, [sp, #24]
    9094:	e1a00005 	mov	r0, r5
    9098:	e58d3004 	str	r3, [sp, #4]
    909c:	eb000121 	bl	9528 <va_printk>
    90a0:	e1a04000 	mov	r4, r0
    90a4:	e59f3020 	ldr	r3, [pc, #32]	; 90cc <printk+0x54>
    90a8:	e1a00005 	mov	r0, r5
    90ac:	e5933000 	ldr	r3, [r3]
    90b0:	e12fff33 	blx	r3
    90b4:	e1a00004 	mov	r0, r4
    90b8:	e28dd00c 	add	sp, sp, #12, 0
    90bc:	e8bd4030 	pop	{r4, r5, lr}
    90c0:	e28dd010 	add	sp, sp, #16, 0
    90c4:	e12fff1e 	bx	lr
    90c8:	0000af8c 	andeq	sl, r0, ip, lsl #31
    90cc:	0000af50 	andeq	sl, r0, r0, asr pc

000090d0 <internal_putk>:
    90d0:	e92d4070 	push	{r4, r5, r6, lr}
    90d4:	e1a04000 	mov	r4, r0
    90d8:	e5d00000 	ldrb	r0, [r0]
    90dc:	e3500000 	cmp	r0, #0, 0
    90e0:	0a000005 	beq	90fc <internal_putk+0x2c>
    90e4:	e59f5018 	ldr	r5, [pc, #24]	; 9104 <internal_putk+0x34>
    90e8:	e5953000 	ldr	r3, [r5]
    90ec:	e12fff33 	blx	r3
    90f0:	e5f40001 	ldrb	r0, [r4, #1]!
    90f4:	e3500000 	cmp	r0, #0, 0
    90f8:	1afffffa 	bne	90e8 <internal_putk+0x18>
    90fc:	e3a00001 	mov	r0, #1, 0
    9100:	e8bd8070 	pop	{r4, r5, r6, pc}
    9104:	0000af64 	andeq	sl, r0, r4, ror #30

00009108 <rpi_rand16>:
    9108:	e59f1024 	ldr	r1, [pc, #36]	; 9134 <rpi_rand16+0x2c>
    910c:	e1d130b0 	ldrh	r3, [r1]
    9110:	e1a001a3 	lsr	r0, r3, #3
    9114:	e0200123 	eor	r0, r0, r3, lsr #2
    9118:	e0200003 	eor	r0, r0, r3
    911c:	e02022a3 	eor	r2, r0, r3, lsr #5
    9120:	e1a000a3 	lsr	r0, r3, #1
    9124:	e1800782 	orr	r0, r0, r2, lsl #15
    9128:	e6ff0070 	uxth	r0, r0
    912c:	e1c100b0 	strh	r0, [r1]
    9130:	e12fff1e 	bx	lr
    9134:	0000af54 	andeq	sl, r0, r4, asr pc

00009138 <rpi_rand32>:
    9138:	e59f1044 	ldr	r1, [pc, #68]	; 9184 <rpi_rand32+0x4c>
    913c:	e1d120b0 	ldrh	r2, [r1]
    9140:	e1a031a2 	lsr	r3, r2, #3
    9144:	e0233122 	eor	r3, r3, r2, lsr #2
    9148:	e0233002 	eor	r3, r3, r2
    914c:	e02302a2 	eor	r0, r3, r2, lsr #5
    9150:	e1a030a2 	lsr	r3, r2, #1
    9154:	e1833780 	orr	r3, r3, r0, lsl #15
    9158:	e6ff3073 	uxth	r3, r3
    915c:	e1a001a3 	lsr	r0, r3, #3
    9160:	e0200123 	eor	r0, r0, r3, lsr #2
    9164:	e0200003 	eor	r0, r0, r3
    9168:	e02002a3 	eor	r0, r0, r3, lsr #5
    916c:	e1a020a3 	lsr	r2, r3, #1
    9170:	e1820780 	orr	r0, r2, r0, lsl #15
    9174:	e6ff0070 	uxth	r0, r0
    9178:	e1c100b0 	strh	r0, [r1]
    917c:	e1800803 	orr	r0, r0, r3, lsl #16
    9180:	e12fff1e 	bx	lr
    9184:	0000af54 	andeq	sl, r0, r4, asr pc

00009188 <rpi_reset>:
    9188:	e59f3008 	ldr	r3, [pc, #8]	; 9198 <rpi_reset+0x10>
    918c:	e59f2008 	ldr	r2, [pc, #8]	; 919c <rpi_reset+0x14>
    9190:	e1c320b0 	strh	r2, [r3]
    9194:	e12fff1e 	bx	lr
    9198:	0000af54 	andeq	sl, r0, r4, asr pc
    919c:	fffface1 			; <UNDEFINED> instruction: 0xfffface1

000091a0 <emit.constprop.0>:
    91a0:	e92d41f0 	push	{r4, r5, r6, r7, r8, lr}
    91a4:	e3530080 	cmp	r3, #128, 0	; 0x80
    91a8:	e1a0c000 	mov	ip, r0
    91ac:	e24dd048 	sub	sp, sp, #72, 0	; 0x48
    91b0:	e1a00001 	mov	r0, r1
    91b4:	ca000069 	bgt	9360 <emit.constprop.0+0x1c0>
    91b8:	e24c1002 	sub	r1, ip, #2, 0
    91bc:	e1a0c002 	mov	ip, r2
    91c0:	e351000e 	cmp	r1, #14, 0
    91c4:	979ff101 	ldrls	pc, [pc, r1, lsl #2]
    91c8:	ea0000a7 	b	946c <emit.constprop.0+0x2cc>
    91cc:	00009338 	andeq	r9, r0, r8, lsr r3
    91d0:	0000946c 	andeq	r9, r0, ip, ror #8
    91d4:	0000946c 	andeq	r9, r0, ip, ror #8
    91d8:	0000946c 	andeq	r9, r0, ip, ror #8
    91dc:	0000946c 	andeq	r9, r0, ip, ror #8
    91e0:	0000946c 	andeq	r9, r0, ip, ror #8
    91e4:	00009414 	andeq	r9, r0, r4, lsl r4
    91e8:	0000946c 	andeq	r9, r0, ip, ror #8
    91ec:	000093b4 			; <UNDEFINED> instruction: 0x000093b4
    91f0:	0000946c 	andeq	r9, r0, ip, ror #8
    91f4:	0000946c 	andeq	r9, r0, ip, ror #8
    91f8:	0000946c 	andeq	r9, r0, ip, ror #8
    91fc:	0000946c 	andeq	r9, r0, ip, ror #8
    9200:	0000946c 	andeq	r9, r0, ip, ror #8
    9204:	0000920c 	andeq	r9, r0, ip, lsl #4
    9208:	e3a0307f 	mov	r3, #127, 0	; 0x7f
    920c:	e28d2008 	add	r2, sp, #8, 0
    9210:	e1a04002 	mov	r4, r2
    9214:	e59f1288 	ldr	r1, [pc, #648]	; 94a4 <emit.constprop.0+0x304>
    9218:	e20ce00f 	and	lr, ip, #15, 0
    921c:	e7d1e00e 	ldrb	lr, [r1, lr]
    9220:	e35c000f 	cmp	ip, #15, 0
    9224:	e4c4e001 	strb	lr, [r4], #1
    9228:	e1a0c22c 	lsr	ip, ip, #4
    922c:	8afffff9 	bhi	9218 <emit.constprop.0+0x78>
    9230:	e3a0c078 	mov	ip, #120, 0	; 0x78
    9234:	e1a0e004 	mov	lr, r4
    9238:	e3a01030 	mov	r1, #48, 0	; 0x30
    923c:	e4cec002 	strb	ip, [lr], #2
    9240:	e5c41001 	strb	r1, [r4, #1]
    9244:	e04e1002 	sub	r1, lr, r2
    9248:	e1510003 	cmp	r1, r3
    924c:	aa000083 	bge	9460 <emit.constprop.0+0x2c0>
    9250:	e1510003 	cmp	r1, r3
    9254:	a3a0c001 	movge	ip, #1, 0
    9258:	b3a0c000 	movlt	ip, #0, 0
    925c:	e2434001 	sub	r4, r3, #1, 0
    9260:	e0444001 	sub	r4, r4, r1
    9264:	b0436001 	sublt	r6, r3, r1
    9268:	a3a06001 	movge	r6, #1, 0
    926c:	e3540002 	cmp	r4, #2, 0
    9270:	938cc001 	orrls	ip, ip, #1, 0
    9274:	e35c0000 	cmp	ip, #0, 0
    9278:	1a000075 	bne	9454 <emit.constprop.0+0x2b4>
    927c:	e1a0c00e 	mov	ip, lr
    9280:	e3c65003 	bic	r5, r6, #3, 0
    9284:	e59f721c 	ldr	r7, [pc, #540]	; 94a8 <emit.constprop.0+0x308>
    9288:	e085500e 	add	r5, r5, lr
    928c:	e48c7004 	str	r7, [ip], #4
    9290:	e15c0005 	cmp	ip, r5
    9294:	1afffffc 	bne	928c <emit.constprop.0+0xec>
    9298:	e3c6c003 	bic	ip, r6, #3, 0
    929c:	e156000c 	cmp	r6, ip
    92a0:	e08e500c 	add	r5, lr, ip
    92a4:	e08cc001 	add	ip, ip, r1
    92a8:	0a000008 	beq	92d0 <emit.constprop.0+0x130>
    92ac:	e3a07020 	mov	r7, #32, 0
    92b0:	e28c8001 	add	r8, ip, #1, 0
    92b4:	e1580003 	cmp	r8, r3
    92b8:	e5c57000 	strb	r7, [r5]
    92bc:	aa000003 	bge	92d0 <emit.constprop.0+0x130>
    92c0:	e28cc002 	add	ip, ip, #2, 0
    92c4:	e15c0003 	cmp	ip, r3
    92c8:	e5c57001 	strb	r7, [r5, #1]
    92cc:	b5c57002 	strblt	r7, [r5, #2]
    92d0:	e1510003 	cmp	r1, r3
    92d4:	a3a04000 	movge	r4, #0, 0
    92d8:	e08e6006 	add	r6, lr, r6
    92dc:	e0461002 	sub	r1, r6, r2
    92e0:	e08ee004 	add	lr, lr, r4
    92e4:	e3a03000 	mov	r3, #0, 0
    92e8:	e351007f 	cmp	r1, #127, 0	; 0x7f
    92ec:	c241407f 	subgt	r4, r1, #127, 0	; 0x7f
    92f0:	c0822004 	addgt	r2, r2, r4
    92f4:	e152000e 	cmp	r2, lr
    92f8:	e5c63000 	strb	r3, [r6]
    92fc:	8a00004f 	bhi	9440 <emit.constprop.0+0x2a0>
    9300:	e28ee001 	add	lr, lr, #1, 0
    9304:	e1a0300e 	mov	r3, lr
    9308:	e240c001 	sub	ip, r0, #1, 0
    930c:	e5734001 	ldrb	r4, [r3, #-1]!
    9310:	e1530002 	cmp	r3, r2
    9314:	e5ec4001 	strb	r4, [ip, #1]!
    9318:	1afffffb 	bne	930c <emit.constprop.0+0x16c>
    931c:	e04ee003 	sub	lr, lr, r3
    9320:	e3a03000 	mov	r3, #0, 0
    9324:	e080e00e 	add	lr, r0, lr
    9328:	e5ce3000 	strb	r3, [lr]
    932c:	e28dd048 	add	sp, sp, #72, 0	; 0x48
    9330:	e8bd81f0 	pop	{r4, r5, r6, r7, r8, pc}
    9334:	e3a0307f 	mov	r3, #127, 0	; 0x7f
    9338:	e28d2008 	add	r2, sp, #8, 0
    933c:	e1a0e002 	mov	lr, r2
    9340:	e59f1164 	ldr	r1, [pc, #356]	; 94ac <emit.constprop.0+0x30c>
    9344:	e20c4001 	and	r4, ip, #1, 0
    9348:	e7d14004 	ldrb	r4, [r1, r4]
    934c:	e35c0001 	cmp	ip, #1, 0
    9350:	e4ce4001 	strb	r4, [lr], #1
    9354:	e1a0c0ac 	lsr	ip, ip, #1
    9358:	8afffff9 	bhi	9344 <emit.constprop.0+0x1a4>
    935c:	eaffffb8 	b	9244 <emit.constprop.0+0xa4>
    9360:	e24c3002 	sub	r3, ip, #2, 0
    9364:	e1a0c002 	mov	ip, r2
    9368:	e353000e 	cmp	r3, #14, 0
    936c:	979ff103 	ldrls	pc, [pc, r3, lsl #2]
    9370:	ea00003d 	b	946c <emit.constprop.0+0x2cc>
    9374:	00009334 	andeq	r9, r0, r4, lsr r3
    9378:	0000946c 	andeq	r9, r0, ip, ror #8
    937c:	0000946c 	andeq	r9, r0, ip, ror #8
    9380:	0000946c 	andeq	r9, r0, ip, ror #8
    9384:	0000946c 	andeq	r9, r0, ip, ror #8
    9388:	0000946c 	andeq	r9, r0, ip, ror #8
    938c:	0000948c 	andeq	r9, r0, ip, lsl #9
    9390:	0000946c 	andeq	r9, r0, ip, ror #8
    9394:	000093b0 			; <UNDEFINED> instruction: 0x000093b0
    9398:	0000946c 	andeq	r9, r0, ip, ror #8
    939c:	0000946c 	andeq	r9, r0, ip, ror #8
    93a0:	0000946c 	andeq	r9, r0, ip, ror #8
    93a4:	0000946c 	andeq	r9, r0, ip, ror #8
    93a8:	0000946c 	andeq	r9, r0, ip, ror #8
    93ac:	00009208 	andeq	r9, r0, r8, lsl #4
    93b0:	e3a0307f 	mov	r3, #127, 0	; 0x7f
    93b4:	e59d1060 	ldr	r1, [sp, #96]	; 0x60
    93b8:	e59f70f0 	ldr	r7, [pc, #240]	; 94b0 <emit.constprop.0+0x310>
    93bc:	e0118fa2 	ands	r8, r1, r2, lsr #31
    93c0:	1262c000 	rsbne	ip, r2, #0, 0
    93c4:	e28d2008 	add	r2, sp, #8, 0
    93c8:	13a08001 	movne	r8, #1, 0
    93cc:	e1a0e002 	mov	lr, r2
    93d0:	e59f60dc 	ldr	r6, [pc, #220]	; 94b4 <emit.constprop.0+0x314>
    93d4:	e1a0500c 	mov	r5, ip
    93d8:	e0814c96 	umull	r4, r1, r6, ip
    93dc:	e1a011a1 	lsr	r1, r1, #3
    93e0:	e0814101 	add	r4, r1, r1, lsl #2
    93e4:	e04cc084 	sub	ip, ip, r4, lsl #1
    93e8:	e7d7400c 	ldrb	r4, [r7, ip]
    93ec:	e3550009 	cmp	r5, #9, 0
    93f0:	e1a0c001 	mov	ip, r1
    93f4:	e1a0100e 	mov	r1, lr
    93f8:	e4ce4001 	strb	r4, [lr], #1
    93fc:	8afffff4 	bhi	93d4 <emit.constprop.0+0x234>
    9400:	e3580000 	cmp	r8, #0, 0
    9404:	13a0c02d 	movne	ip, #45, 0	; 0x2d
    9408:	15cec000 	strbne	ip, [lr]
    940c:	1281e002 	addne	lr, r1, #2, 0
    9410:	eaffff8b 	b	9244 <emit.constprop.0+0xa4>
    9414:	e3530001 	cmp	r3, #1, 0
    9418:	e5cd2008 	strb	r2, [sp, #8]
    941c:	c3a01001 	movgt	r1, #1, 0
    9420:	c28de009 	addgt	lr, sp, #9, 0
    9424:	c28d2008 	addgt	r2, sp, #8, 0
    9428:	caffff88 	bgt	9250 <emit.constprop.0+0xb0>
    942c:	e3a03000 	mov	r3, #0, 0
    9430:	e28de008 	add	lr, sp, #8, 0
    9434:	e1a0200e 	mov	r2, lr
    9438:	e5cd3009 	strb	r3, [sp, #9]
    943c:	eaffffaf 	b	9300 <emit.constprop.0+0x160>
    9440:	e1a0e000 	mov	lr, r0
    9444:	e3a03000 	mov	r3, #0, 0
    9448:	e5ce3000 	strb	r3, [lr]
    944c:	e28dd048 	add	sp, sp, #72, 0	; 0x48
    9450:	e8bd81f0 	pop	{r4, r5, r6, r7, r8, pc}
    9454:	e1a0c001 	mov	ip, r1
    9458:	e1a0500e 	mov	r5, lr
    945c:	eaffff92 	b	92ac <emit.constprop.0+0x10c>
    9460:	e1a0600e 	mov	r6, lr
    9464:	e24ee001 	sub	lr, lr, #1, 0
    9468:	eaffff9d 	b	92e4 <emit.constprop.0+0x144>
    946c:	e59f2044 	ldr	r2, [pc, #68]	; 94b8 <emit.constprop.0+0x318>
    9470:	e3a03079 	mov	r3, #121, 0	; 0x79
    9474:	e59f1040 	ldr	r1, [pc, #64]	; 94bc <emit.constprop.0+0x31c>
    9478:	e58d2000 	str	r2, [sp]
    947c:	e59f003c 	ldr	r0, [pc, #60]	; 94c0 <emit.constprop.0+0x320>
    9480:	e59f203c 	ldr	r2, [pc, #60]	; 94c4 <emit.constprop.0+0x324>
    9484:	ebfffefb 	bl	9078 <printk>
    9488:	eb0001b1 	bl	9b54 <clean_reboot>
    948c:	e5cd2008 	strb	r2, [sp, #8]
    9490:	e3a0307f 	mov	r3, #127, 0	; 0x7f
    9494:	e3a01001 	mov	r1, #1, 0
    9498:	e28de009 	add	lr, sp, #9, 0
    949c:	e28d2008 	add	r2, sp, #8, 0
    94a0:	eaffff6a 	b	9250 <emit.constprop.0+0xb0>
    94a4:	0000abf8 	strdeq	sl, [r0], -r8
    94a8:	20202020 	eorcs	r2, r0, r0, lsr #32
    94ac:	0000ac0c 	andeq	sl, r0, ip, lsl #24
    94b0:	0000ac10 	andeq	sl, r0, r0, lsl ip
    94b4:	cccccccd 	stclgt	12, cr12, [ip], {205}	; 0xcd
    94b8:	0000aa4c 	andeq	sl, r0, ip, asr #20
    94bc:	0000abe4 	andeq	sl, r0, r4, ror #23
    94c0:	0000a7ac 	andeq	sl, r0, ip, lsr #15
    94c4:	0000ad24 	andeq	sl, r0, r4, lsr #26

000094c8 <rpi_set_output>:
    94c8:	e3500000 	cmp	r0, #0, 0
    94cc:	0a000005 	beq	94e8 <rpi_set_output+0x20>
    94d0:	e59f3038 	ldr	r3, [pc, #56]	; 9510 <rpi_set_output+0x48>
    94d4:	e3510000 	cmp	r1, #0, 0
    94d8:	e5830000 	str	r0, [r3]
    94dc:	159f3030 	ldrne	r3, [pc, #48]	; 9514 <rpi_set_output+0x4c>
    94e0:	15831000 	strne	r1, [r3]
    94e4:	e12fff1e 	bx	lr
    94e8:	e52de004 	push	{lr}		; (str lr, [sp, #-4]!)
    94ec:	e59f2024 	ldr	r2, [pc, #36]	; 9518 <rpi_set_output+0x50>
    94f0:	e24dd00c 	sub	sp, sp, #12, 0
    94f4:	e3a03020 	mov	r3, #32, 0
    94f8:	e59f101c 	ldr	r1, [pc, #28]	; 951c <rpi_set_output+0x54>
    94fc:	e58d2000 	str	r2, [sp]
    9500:	e59f0018 	ldr	r0, [pc, #24]	; 9520 <rpi_set_output+0x58>
    9504:	e59f2018 	ldr	r2, [pc, #24]	; 9524 <rpi_set_output+0x5c>
    9508:	ebfffeda 	bl	9078 <printk>
    950c:	eb000190 	bl	9b54 <clean_reboot>
    9510:	0000af64 	andeq	sl, r0, r4, ror #30
    9514:	0000af50 	andeq	sl, r0, r0, asr pc
    9518:	0000ac1c 	andeq	sl, r0, ip, lsl ip
    951c:	0000abe4 	andeq	sl, r0, r4, ror #23
    9520:	0000a7ac 	andeq	sl, r0, ip, lsr #15
    9524:	0000ad2c 	andeq	sl, r0, ip, lsr #26

00009528 <va_printk>:
    9528:	e92d4ff0 	push	{r4, r5, r6, r7, r8, r9, sl, fp, lr}
    952c:	e1a0b000 	mov	fp, r0
    9530:	e3a00000 	mov	r0, #0, 0
    9534:	e5cb0000 	strb	r0, [fp]
    9538:	e5d2c000 	ldrb	ip, [r2]
    953c:	e2417001 	sub	r7, r1, #1, 0
    9540:	e08b7007 	add	r7, fp, r7
    9544:	e15c0000 	cmp	ip, r0
    9548:	115b0007 	cmpne	fp, r7
    954c:	e24ddf47 	sub	sp, sp, #284	; 0x11c
    9550:	e58d2010 	str	r2, [sp, #16]
    9554:	2a000159 	bcs	9ac0 <va_printk+0x598>
    9558:	e1a06002 	mov	r6, r2
    955c:	e1a08003 	mov	r8, r3
    9560:	e1a0400b 	mov	r4, fp
    9564:	e59fa5a4 	ldr	sl, [pc, #1444]	; 9b10 <va_printk+0x5e8>
    9568:	e58db00c 	str	fp, [sp, #12]
    956c:	ea000005 	b	9588 <va_printk+0x60>
    9570:	e4c4c001 	strb	ip, [r4], #1
    9574:	e2866001 	add	r6, r6, #1, 0
    9578:	e5d6c000 	ldrb	ip, [r6]
    957c:	e35c0000 	cmp	ip, #0, 0
    9580:	11570004 	cmpne	r7, r4
    9584:	9a00002f 	bls	9648 <va_printk+0x120>
    9588:	e35c0025 	cmp	ip, #37, 0	; 0x25
    958c:	1afffff7 	bne	9570 <va_printk+0x48>
    9590:	e5d62001 	ldrb	r2, [r6, #1]
    9594:	e3520025 	cmp	r2, #37, 0	; 0x25
    9598:	04c4c001 	strbeq	ip, [r4], #1
    959c:	02866002 	addeq	r6, r6, #2, 0
    95a0:	0afffff4 	beq	9578 <va_printk+0x50>
    95a4:	e2423030 	sub	r3, r2, #48, 0	; 0x30
    95a8:	e3530009 	cmp	r3, #9, 0
    95ac:	e3a05000 	mov	r5, #0, 0
    95b0:	e2866001 	add	r6, r6, #1, 0
    95b4:	8a000008 	bhi	95dc <va_printk+0xb4>
    95b8:	e0855105 	add	r5, r5, r5, lsl #2
    95bc:	e0825085 	add	r5, r2, r5, lsl #1
    95c0:	e5f62001 	ldrb	r2, [r6, #1]!
    95c4:	e2455030 	sub	r5, r5, #48, 0	; 0x30
    95c8:	e2423030 	sub	r3, r2, #48, 0	; 0x30
    95cc:	e3530009 	cmp	r3, #9, 0
    95d0:	9afffff8 	bls	95b8 <va_printk+0x90>
    95d4:	e355001f 	cmp	r5, #31, 0
    95d8:	8a00013a 	bhi	9ac8 <va_printk+0x5a0>
    95dc:	e2423062 	sub	r3, r2, #98, 0	; 0x62
    95e0:	e3530016 	cmp	r3, #22, 0
    95e4:	979ff103 	ldrls	pc, [pc, r3, lsl #2]
    95e8:	ea00011b 	b	9a5c <va_printk+0x534>
    95ec:	000098a0 	andeq	r9, r0, r0, lsr #17
    95f0:	0000979c 	muleq	r0, ip, r7
    95f4:	00009794 	muleq	r0, r4, r7
    95f8:	00009a5c 	andeq	r9, r0, ip, asr sl
    95fc:	00009a98 	muleq	r0, r8, sl
    9600:	00009a5c 	andeq	r9, r0, ip, asr sl
    9604:	00009a5c 	andeq	r9, r0, ip, asr sl
    9608:	00009a5c 	andeq	r9, r0, ip, asr sl
    960c:	00009a5c 	andeq	r9, r0, ip, asr sl
    9610:	00009a5c 	andeq	r9, r0, ip, asr sl
    9614:	000096a4 	andeq	r9, r0, r4, lsr #13
    9618:	00009a5c 	andeq	r9, r0, ip, asr sl
    961c:	00009a5c 	andeq	r9, r0, ip, asr sl
    9620:	00009a5c 	andeq	r9, r0, ip, asr sl
    9624:	00009660 	andeq	r9, r0, r0, ror #12
    9628:	00009a5c 	andeq	r9, r0, ip, asr sl
    962c:	00009a5c 	andeq	r9, r0, ip, asr sl
    9630:	00009998 	muleq	r0, r8, r9
    9634:	00009a5c 	andeq	r9, r0, ip, asr sl
    9638:	00009770 	andeq	r9, r0, r0, ror r7
    963c:	00009a5c 	andeq	r9, r0, ip, asr sl
    9640:	00009a5c 	andeq	r9, r0, ip, asr sl
    9644:	00009660 	andeq	r9, r0, r0, ror #12
    9648:	e59db00c 	ldr	fp, [sp, #12]
    964c:	e3a03000 	mov	r3, #0, 0
    9650:	e4c43001 	strb	r3, [r4], #1
    9654:	e044000b 	sub	r0, r4, fp
    9658:	e28ddf47 	add	sp, sp, #284	; 0x11c
    965c:	e8bd8ff0 	pop	{r4, r5, r6, r7, r8, r9, sl, fp, pc}
    9660:	e3a01000 	mov	r1, #0, 0
    9664:	e1a03005 	mov	r3, r5
    9668:	e4982004 	ldr	r2, [r8], #4
    966c:	e3a00010 	mov	r0, #16, 0
    9670:	e58d1000 	str	r1, [sp]
    9674:	e28d1018 	add	r1, sp, #24, 0
    9678:	ebfffec8 	bl	91a0 <emit.constprop.0>
    967c:	e1a05000 	mov	r5, r0
    9680:	e2866001 	add	r6, r6, #1, 0
    9684:	e2455001 	sub	r5, r5, #1, 0
    9688:	e5f53001 	ldrb	r3, [r5, #1]!
    968c:	e3530000 	cmp	r3, #0, 0
    9690:	0affffb8 	beq	9578 <va_printk+0x50>
    9694:	e4c43001 	strb	r3, [r4], #1
    9698:	e1570004 	cmp	r7, r4
    969c:	8afffff9 	bhi	9688 <va_printk+0x160>
    96a0:	eaffffb4 	b	9578 <va_printk+0x50>
    96a4:	e3a02003 	mov	r2, #3, 0
    96a8:	e1a00006 	mov	r0, r6
    96ac:	e59f1460 	ldr	r1, [pc, #1120]	; 9b14 <va_printk+0x5ec>
    96b0:	eb0003da 	bl	a620 <strncmp>
    96b4:	e3500000 	cmp	r0, #0, 0
    96b8:	0a000005 	beq	96d4 <va_printk+0x1ac>
    96bc:	e3a02003 	mov	r2, #3, 0
    96c0:	e1a00006 	mov	r0, r6
    96c4:	e59f144c 	ldr	r1, [pc, #1100]	; 9b18 <va_printk+0x5f0>
    96c8:	eb0003d4 	bl	a620 <strncmp>
    96cc:	e3500000 	cmp	r0, #0, 0
    96d0:	1a00010b 	bne	9b04 <va_printk+0x5dc>
    96d4:	e2888007 	add	r8, r8, #7, 0
    96d8:	e3c88007 	bic	r8, r8, #7, 0
    96dc:	e598b004 	ldr	fp, [r8, #4]
    96e0:	e4989008 	ldr	r9, [r8], #8
    96e4:	e1a0100b 	mov	r1, fp
    96e8:	e59f042c 	ldr	r0, [pc, #1068]	; 9b1c <va_printk+0x5f4>
    96ec:	ebfffe61 	bl	9078 <printk>
    96f0:	e1a01009 	mov	r1, r9
    96f4:	e59f0424 	ldr	r0, [pc, #1060]	; 9b20 <va_printk+0x5f8>
    96f8:	ebfffe5e 	bl	9078 <printk>
    96fc:	e3a02003 	mov	r2, #3, 0
    9700:	e1a00006 	mov	r0, r6
    9704:	e59f1408 	ldr	r1, [pc, #1032]	; 9b14 <va_printk+0x5ec>
    9708:	eb0003c4 	bl	a620 <strncmp>
    970c:	e2503000 	subs	r3, r0, #0, 0
    9710:	e1a02003 	mov	r2, r3
    9714:	e2863002 	add	r3, r6, #2, 0
    9718:	e58d3014 	str	r3, [sp, #20]
    971c:	1a00009f 	bne	99a0 <va_printk+0x478>
    9720:	e1a06002 	mov	r6, r2
    9724:	e1a03005 	mov	r3, r5
    9728:	e58d2000 	str	r2, [sp]
    972c:	e28d1018 	add	r1, sp, #24, 0
    9730:	e1a0200b 	mov	r2, fp
    9734:	e3a00010 	mov	r0, #16, 0
    9738:	ebfffe98 	bl	91a0 <emit.constprop.0>
    973c:	e1a0c000 	mov	ip, r0
    9740:	e1a03005 	mov	r3, r5
    9744:	e58d6000 	str	r6, [sp]
    9748:	e28d1098 	add	r1, sp, #152, 0	; 0x98
    974c:	e1a02009 	mov	r2, r9
    9750:	e3a00010 	mov	r0, #16, 0
    9754:	e1a0500c 	mov	r5, ip
    9758:	ebfffe90 	bl	91a0 <emit.constprop.0>
    975c:	e28d0018 	add	r0, sp, #24, 0
    9760:	e28d109a 	add	r1, sp, #154, 0	; 0x9a
    9764:	e59d6014 	ldr	r6, [sp, #20]
    9768:	eb00038a 	bl	a598 <strcat>
    976c:	eaffffc3 	b	9680 <va_printk+0x158>
    9770:	e3a01000 	mov	r1, #0, 0
    9774:	e1a03005 	mov	r3, r5
    9778:	e4982004 	ldr	r2, [r8], #4
    977c:	e3a0000a 	mov	r0, #10, 0
    9780:	e58d1000 	str	r1, [sp]
    9784:	e28d1018 	add	r1, sp, #24, 0
    9788:	ebfffe84 	bl	91a0 <emit.constprop.0>
    978c:	e1a05000 	mov	r5, r0
    9790:	eaffffba 	b	9680 <va_printk+0x158>
    9794:	e3a01001 	mov	r1, #1, 0
    9798:	eafffff5 	b	9774 <va_printk+0x24c>
    979c:	e4983004 	ldr	r3, [r8], #4
    97a0:	e3550001 	cmp	r5, #1, 0
    97a4:	e5cd3098 	strb	r3, [sp, #152]	; 0x98
    97a8:	9a0000a6 	bls	9a48 <va_printk+0x520>
    97ac:	e2453002 	sub	r3, r5, #2, 0
    97b0:	e3530002 	cmp	r3, #2, 0
    97b4:	e2451001 	sub	r1, r5, #1, 0
    97b8:	9a0000bc 	bls	9ab0 <va_printk+0x588>
    97bc:	e59f0360 	ldr	r0, [pc, #864]	; 9b24 <va_printk+0x5fc>
    97c0:	e1a02121 	lsr	r2, r1, #2
    97c4:	e3520001 	cmp	r2, #1, 0
    97c8:	e58d0099 	str	r0, [sp, #153]	; 0x99
    97cc:	0a00000e 	beq	980c <va_printk+0x2e4>
    97d0:	e3520002 	cmp	r2, #2, 0
    97d4:	e58d009d 	str	r0, [sp, #157]	; 0x9d
    97d8:	0a00000b 	beq	980c <va_printk+0x2e4>
    97dc:	e3520003 	cmp	r2, #3, 0
    97e0:	e58d00a1 	str	r0, [sp, #161]	; 0xa1
    97e4:	0a000008 	beq	980c <va_printk+0x2e4>
    97e8:	e3520004 	cmp	r2, #4, 0
    97ec:	e58d00a5 	str	r0, [sp, #165]	; 0xa5
    97f0:	0a000005 	beq	980c <va_printk+0x2e4>
    97f4:	e3520005 	cmp	r2, #5, 0
    97f8:	e58d00a9 	str	r0, [sp, #169]	; 0xa9
    97fc:	0a000002 	beq	980c <va_printk+0x2e4>
    9800:	e3520007 	cmp	r2, #7, 0
    9804:	e58d00ad 	str	r0, [sp, #173]	; 0xad
    9808:	058d00b1 	streq	r0, [sp, #177]	; 0xb1
    980c:	e3c12003 	bic	r2, r1, #3, 0
    9810:	e1510002 	cmp	r1, r2
    9814:	e28dc099 	add	ip, sp, #153, 0	; 0x99
    9818:	e08c0002 	add	r0, ip, r2
    981c:	e2822001 	add	r2, r2, #1, 0
    9820:	0a000008 	beq	9848 <va_printk+0x320>
    9824:	e3a0e020 	mov	lr, #32, 0
    9828:	e2829001 	add	r9, r2, #1, 0
    982c:	e1550009 	cmp	r5, r9
    9830:	e5c0e000 	strb	lr, [r0]
    9834:	da000003 	ble	9848 <va_printk+0x320>
    9838:	e2822002 	add	r2, r2, #2, 0
    983c:	e1550002 	cmp	r5, r2
    9840:	e5c0e001 	strb	lr, [r0, #1]
    9844:	c5c0e002 	strbgt	lr, [r0, #2]
    9848:	e3a0e000 	mov	lr, #0, 0
    984c:	e28d0098 	add	r0, sp, #152, 0	; 0x98
    9850:	e08c2001 	add	r2, ip, r1
    9854:	e0422000 	sub	r2, r2, r0
    9858:	e352007f 	cmp	r2, #127, 0	; 0x7f
    985c:	c242207f 	subgt	r2, r2, #127, 0	; 0x7f
    9860:	e08c3003 	add	r3, ip, r3
    9864:	c0800002 	addgt	r0, r0, r2
    9868:	e1530000 	cmp	r3, r0
    986c:	e7cce001 	strb	lr, [ip, r1]
    9870:	3a00006c 	bcc	9a28 <va_printk+0x500>
    9874:	e283c001 	add	ip, r3, #1, 0
    9878:	e1a0300c 	mov	r3, ip
    987c:	e28d5018 	add	r5, sp, #24, 0
    9880:	e2452001 	sub	r2, r5, #1, 0
    9884:	e5731001 	ldrb	r1, [r3, #-1]!
    9888:	e1500003 	cmp	r0, r3
    988c:	e5e21001 	strb	r1, [r2, #1]!
    9890:	1afffffb 	bne	9884 <va_printk+0x35c>
    9894:	e04c3000 	sub	r3, ip, r0
    9898:	e0853003 	add	r3, r5, r3
    989c:	ea00003a 	b	998c <va_printk+0x464>
    98a0:	e28d1098 	add	r1, sp, #152, 0	; 0x98
    98a4:	e1a03001 	mov	r3, r1
    98a8:	e4980004 	ldr	r0, [r8], #4
    98ac:	e200c001 	and	ip, r0, #1, 0
    98b0:	e7dac00c 	ldrb	ip, [sl, ip]
    98b4:	e3500001 	cmp	r0, #1, 0
    98b8:	e1a02003 	mov	r2, r3
    98bc:	e1a000a0 	lsr	r0, r0, #1
    98c0:	e4c3c001 	strb	ip, [r3], #1
    98c4:	8afffff8 	bhi	98ac <va_printk+0x384>
    98c8:	e0430001 	sub	r0, r3, r1
    98cc:	e1550000 	cmp	r5, r0
    98d0:	da000057 	ble	9a34 <va_printk+0x50c>
    98d4:	e045c000 	sub	ip, r5, r0
    98d8:	e24ce001 	sub	lr, ip, #1, 0
    98dc:	e35e0002 	cmp	lr, #2, 0
    98e0:	e1a0e003 	mov	lr, r3
    98e4:	9a00000a 	bls	9914 <va_printk+0x3ec>
    98e8:	e3cc9003 	bic	r9, ip, #3, 0
    98ec:	e0899003 	add	r9, r9, r3
    98f0:	e59fb22c 	ldr	fp, [pc, #556]	; 9b24 <va_printk+0x5fc>
    98f4:	e48eb004 	str	fp, [lr], #4
    98f8:	e15e0009 	cmp	lr, r9
    98fc:	1afffffb 	bne	98f0 <va_printk+0x3c8>
    9900:	e3cce003 	bic	lr, ip, #3, 0
    9904:	e15e000c 	cmp	lr, ip
    9908:	e080000e 	add	r0, r0, lr
    990c:	e083e00e 	add	lr, r3, lr
    9910:	0a000008 	beq	9938 <va_printk+0x410>
    9914:	e3a09020 	mov	r9, #32, 0
    9918:	e280b001 	add	fp, r0, #1, 0
    991c:	e155000b 	cmp	r5, fp
    9920:	e5ce9000 	strb	r9, [lr]
    9924:	da000003 	ble	9938 <va_printk+0x410>
    9928:	e2800002 	add	r0, r0, #2, 0
    992c:	e1550000 	cmp	r5, r0
    9930:	e5ce9001 	strb	r9, [lr, #1]
    9934:	c5ce9002 	strbgt	r9, [lr, #2]
    9938:	e3a0e000 	mov	lr, #0, 0
    993c:	e083000c 	add	r0, r3, ip
    9940:	e0400001 	sub	r0, r0, r1
    9944:	e350007f 	cmp	r0, #127, 0	; 0x7f
    9948:	e082200c 	add	r2, r2, ip
    994c:	e7c3e00c 	strb	lr, [r3, ip]
    9950:	da000001 	ble	995c <va_printk+0x434>
    9954:	e240007f 	sub	r0, r0, #127, 0	; 0x7f
    9958:	e0811000 	add	r1, r1, r0
    995c:	e1510002 	cmp	r1, r2
    9960:	8a000030 	bhi	9a28 <va_printk+0x500>
    9964:	e2822001 	add	r2, r2, #1, 0
    9968:	e1a03002 	mov	r3, r2
    996c:	e28d5018 	add	r5, sp, #24, 0
    9970:	e245c001 	sub	ip, r5, #1, 0
    9974:	e5730001 	ldrb	r0, [r3, #-1]!
    9978:	e1530001 	cmp	r3, r1
    997c:	e5ec0001 	strb	r0, [ip, #1]!
    9980:	1afffffb 	bne	9974 <va_printk+0x44c>
    9984:	e0423003 	sub	r3, r2, r3
    9988:	e0853003 	add	r3, r5, r3
    998c:	e3a02000 	mov	r2, #0, 0
    9990:	e5c32000 	strb	r2, [r3]
    9994:	eaffff39 	b	9680 <va_printk+0x158>
    9998:	e4985004 	ldr	r5, [r8], #4
    999c:	eaffff37 	b	9680 <va_printk+0x158>
    99a0:	e3a02003 	mov	r2, #3, 0
    99a4:	e1a00006 	mov	r0, r6
    99a8:	e59f1168 	ldr	r1, [pc, #360]	; 9b18 <va_printk+0x5f0>
    99ac:	eb00031b 	bl	a620 <strncmp>
    99b0:	e2503000 	subs	r3, r0, #0, 0
    99b4:	1a00004b 	bne	9ae8 <va_printk+0x5c0>
    99b8:	e1a06003 	mov	r6, r3
    99bc:	e1a0200b 	mov	r2, fp
    99c0:	e58d3000 	str	r3, [sp]
    99c4:	e28d1018 	add	r1, sp, #24, 0
    99c8:	e1a03005 	mov	r3, r5
    99cc:	e3a0000a 	mov	r0, #10, 0
    99d0:	ebfffdf2 	bl	91a0 <emit.constprop.0>
    99d4:	e1a0c000 	mov	ip, r0
    99d8:	e1a03005 	mov	r3, r5
    99dc:	e1a02009 	mov	r2, r9
    99e0:	e28d1098 	add	r1, sp, #152, 0	; 0x98
    99e4:	e3a0000a 	mov	r0, #10, 0
    99e8:	e58d6000 	str	r6, [sp]
    99ec:	e1a0500c 	mov	r5, ip
    99f0:	ebfffdea 	bl	91a0 <emit.constprop.0>
    99f4:	e59f112c 	ldr	r1, [pc, #300]	; 9b28 <va_printk+0x600>
    99f8:	e28d0018 	add	r0, sp, #24, 0
    99fc:	eb0002f0 	bl	a5c4 <strcmp>
    9a00:	e3500000 	cmp	r0, #0, 0
    9a04:	e28d1098 	add	r1, sp, #152, 0	; 0x98
    9a08:	e28d0018 	add	r0, sp, #24, 0
    9a0c:	1a000002 	bne	9a1c <va_printk+0x4f4>
    9a10:	eb0002fc 	bl	a608 <strcpy>
    9a14:	e59d6014 	ldr	r6, [sp, #20]
    9a18:	eaffff18 	b	9680 <va_printk+0x158>
    9a1c:	eb0002dd 	bl	a598 <strcat>
    9a20:	e59d6014 	ldr	r6, [sp, #20]
    9a24:	eaffff15 	b	9680 <va_printk+0x158>
    9a28:	e28d5018 	add	r5, sp, #24, 0
    9a2c:	e1a03005 	mov	r3, r5
    9a30:	eaffffd5 	b	998c <va_printk+0x464>
    9a34:	e3a0c000 	mov	ip, #0, 0
    9a38:	e350007f 	cmp	r0, #127, 0	; 0x7f
    9a3c:	e5c3c000 	strb	ip, [r3]
    9a40:	caffffc3 	bgt	9954 <va_printk+0x42c>
    9a44:	eaffffc6 	b	9964 <va_printk+0x43c>
    9a48:	e3a02000 	mov	r2, #0, 0
    9a4c:	e28d3098 	add	r3, sp, #152, 0	; 0x98
    9a50:	e1a00003 	mov	r0, r3
    9a54:	e5cd2099 	strb	r2, [sp, #153]	; 0x99
    9a58:	eaffff85 	b	9874 <va_printk+0x34c>
    9a5c:	e3a03000 	mov	r3, #0, 0
    9a60:	e1a01002 	mov	r1, r2
    9a64:	e5c63001 	strb	r3, [r6, #1]
    9a68:	e59f00bc 	ldr	r0, [pc, #188]	; 9b2c <va_printk+0x604>
    9a6c:	ebfffd81 	bl	9078 <printk>
    9a70:	e59f30b8 	ldr	r3, [pc, #184]	; 9b30 <va_printk+0x608>
    9a74:	e59d0010 	ldr	r0, [sp, #16]
    9a78:	e5933000 	ldr	r3, [r3]
    9a7c:	e12fff33 	blx	r3
    9a80:	e3a030e2 	mov	r3, #226, 0	; 0xe2
    9a84:	e59f20a8 	ldr	r2, [pc, #168]	; 9b34 <va_printk+0x60c>
    9a88:	e59f10a8 	ldr	r1, [pc, #168]	; 9b38 <va_printk+0x610>
    9a8c:	e59f00a8 	ldr	r0, [pc, #168]	; 9b3c <va_printk+0x614>
    9a90:	ebfffd78 	bl	9078 <printk>
    9a94:	eb00002e 	bl	9b54 <clean_reboot>
    9a98:	e3a030be 	mov	r3, #190, 0	; 0xbe
    9a9c:	e59f2090 	ldr	r2, [pc, #144]	; 9b34 <va_printk+0x60c>
    9aa0:	e59f1090 	ldr	r1, [pc, #144]	; 9b38 <va_printk+0x610>
    9aa4:	e59f0094 	ldr	r0, [pc, #148]	; 9b40 <va_printk+0x618>
    9aa8:	ebfffd72 	bl	9078 <printk>
    9aac:	eb000028 	bl	9b54 <clean_reboot>
    9ab0:	e28dc099 	add	ip, sp, #153, 0	; 0x99
    9ab4:	e1a0000c 	mov	r0, ip
    9ab8:	e3a02001 	mov	r2, #1, 0
    9abc:	eaffff58 	b	9824 <va_printk+0x2fc>
    9ac0:	e1a0400b 	mov	r4, fp
    9ac4:	eafffee0 	b	964c <va_printk+0x124>
    9ac8:	e3a03098 	mov	r3, #152, 0	; 0x98
    9acc:	e59f2070 	ldr	r2, [pc, #112]	; 9b44 <va_printk+0x61c>
    9ad0:	e59f1060 	ldr	r1, [pc, #96]	; 9b38 <va_printk+0x610>
    9ad4:	e58d2000 	str	r2, [sp]
    9ad8:	e59f0068 	ldr	r0, [pc, #104]	; 9b48 <va_printk+0x620>
    9adc:	e59f2050 	ldr	r2, [pc, #80]	; 9b34 <va_printk+0x60c>
    9ae0:	ebfffd64 	bl	9078 <printk>
    9ae4:	eb00001a 	bl	9b54 <clean_reboot>
    9ae8:	e3a030b6 	mov	r3, #182, 0	; 0xb6
    9aec:	e59f2040 	ldr	r2, [pc, #64]	; 9b34 <va_printk+0x60c>
    9af0:	e59f1040 	ldr	r1, [pc, #64]	; 9b38 <va_printk+0x610>
    9af4:	e59f0050 	ldr	r0, [pc, #80]	; 9b4c <va_printk+0x624>
    9af8:	e58d6000 	str	r6, [sp]
    9afc:	ebfffd5d 	bl	9078 <printk>
    9b00:	eb000013 	bl	9b54 <clean_reboot>
    9b04:	e3a0309f 	mov	r3, #159, 0	; 0x9f
    9b08:	e59f2040 	ldr	r2, [pc, #64]	; 9b50 <va_printk+0x628>
    9b0c:	eaffffef 	b	9ad0 <va_printk+0x5a8>
    9b10:	0000ac0c 	andeq	sl, r0, ip, lsl #24
    9b14:	0000ac30 	andeq	sl, r0, r0, lsr ip
    9b18:	0000ac44 	andeq	sl, r0, r4, asr #24
    9b1c:	0000ac34 	andeq	sl, r0, r4, lsr ip
    9b20:	0000ac3c 	andeq	sl, r0, ip, lsr ip
    9b24:	20202020 	eorcs	r2, r0, r0, lsr #32
    9b28:	0000aa4c 	andeq	sl, r0, ip, asr #20
    9b2c:	0000acd4 	ldrdeq	sl, [r0], -r4
    9b30:	0000af50 	andeq	sl, r0, r0, asr pc
    9b34:	0000ad3c 	andeq	sl, r0, ip, lsr sp
    9b38:	0000abe4 	andeq	sl, r0, r4, ror #23
    9b3c:	0000ad04 	andeq	sl, r0, r4, lsl #26
    9b40:	0000acac 	andeq	sl, r0, ip, lsr #25
    9b44:	0000ac24 	andeq	sl, r0, r4, lsr #24
    9b48:	0000a7ac 	andeq	sl, r0, ip, lsr #15
    9b4c:	0000ac84 	andeq	sl, r0, r4, lsl #25
    9b50:	0000ac48 	andeq	sl, r0, r8, asr #24

00009b54 <clean_reboot>:
    9b54:	e59f301c 	ldr	r3, [pc, #28]	; 9b78 <clean_reboot+0x24>
    9b58:	e92d4010 	push	{r4, lr}
    9b5c:	e5933000 	ldr	r3, [r3]
    9b60:	e59f0014 	ldr	r0, [pc, #20]	; 9b7c <clean_reboot+0x28>
    9b64:	e12fff33 	blx	r3
    9b68:	eb00011b 	bl	9fdc <uart_flush_tx>
    9b6c:	e3a0000a 	mov	r0, #10, 0
    9b70:	eb000082 	bl	9d80 <delay_ms>
    9b74:	eb00004b 	bl	9ca8 <rpi_reboot>
    9b78:	0000af50 	andeq	sl, r0, r0, asr pc
    9b7c:	0000ad48 	andeq	sl, r0, r8, asr #26

00009b80 <_cstart>:
    9b80:	e92d4070 	push	{r4, r5, r6, lr}
    9b84:	eb00003b 	bl	9c78 <custom_loader>
    9b88:	e59f20e0 	ldr	r2, [pc, #224]	; 9c70 <_cstart+0xf0>
    9b8c:	e59fc0e0 	ldr	ip, [pc, #224]	; 9c74 <_cstart+0xf4>
    9b90:	e152000c 	cmp	r2, ip
    9b94:	2a00002e 	bcs	9c54 <_cstart+0xd4>
    9b98:	e24c1001 	sub	r1, ip, #1, 0
    9b9c:	e0411002 	sub	r1, r1, r2
    9ba0:	e3510017 	cmp	r1, #23, 0
    9ba4:	e1a03122 	lsr	r3, r2, #2
    9ba8:	e1a01121 	lsr	r1, r1, #2
    9bac:	e2811001 	add	r1, r1, #1, 0
    9bb0:	e2033001 	and	r3, r3, #1, 0
    9bb4:	9a00002b 	bls	9c68 <_cstart+0xe8>
    9bb8:	e3530000 	cmp	r3, #0, 0
    9bbc:	11a00002 	movne	r0, r2
    9bc0:	13a0e000 	movne	lr, #0, 0
    9bc4:	e3a04000 	mov	r4, #0, 0
    9bc8:	e3a05000 	mov	r5, #0, 0
    9bcc:	e0411003 	sub	r1, r1, r3
    9bd0:	01a00002 	moveq	r0, r2
    9bd4:	e0823103 	add	r3, r2, r3, lsl #2
    9bd8:	e1a020a1 	lsr	r2, r1, #1
    9bdc:	1480e004 	strne	lr, [r0], #4
    9be0:	e0832182 	add	r2, r3, r2, lsl #3
    9be4:	e0c340f8 	strd	r4, [r3], #8
    9be8:	e1520003 	cmp	r2, r3
    9bec:	1afffffc 	bne	9be4 <_cstart+0x64>
    9bf0:	e3c13001 	bic	r3, r1, #1, 0
    9bf4:	e1510003 	cmp	r1, r3
    9bf8:	e0803103 	add	r3, r0, r3, lsl #2
    9bfc:	0a000014 	beq	9c54 <_cstart+0xd4>
    9c00:	e1a01003 	mov	r1, r3
    9c04:	e3a02000 	mov	r2, #0, 0
    9c08:	e4812004 	str	r2, [r1], #4
    9c0c:	e151000c 	cmp	r1, ip
    9c10:	2a00000f 	bcs	9c54 <_cstart+0xd4>
    9c14:	e2831008 	add	r1, r3, #8, 0
    9c18:	e151000c 	cmp	r1, ip
    9c1c:	e5832004 	str	r2, [r3, #4]
    9c20:	2a00000b 	bcs	9c54 <_cstart+0xd4>
    9c24:	e283100c 	add	r1, r3, #12, 0
    9c28:	e151000c 	cmp	r1, ip
    9c2c:	e5832008 	str	r2, [r3, #8]
    9c30:	2a000007 	bcs	9c54 <_cstart+0xd4>
    9c34:	e2831010 	add	r1, r3, #16, 0
    9c38:	e151000c 	cmp	r1, ip
    9c3c:	e583200c 	str	r2, [r3, #12]
    9c40:	2a000003 	bcs	9c54 <_cstart+0xd4>
    9c44:	e2831014 	add	r1, r3, #20, 0
    9c48:	e151000c 	cmp	r1, ip
    9c4c:	e5832010 	str	r2, [r3, #16]
    9c50:	35832014 	strcc	r2, [r3, #20]
    9c54:	eb000082 	bl	9e64 <uart_init>
    9c58:	e3a03001 	mov	r3, #1, 0
    9c5c:	ee0f3f1c 	mcr	15, 0, r3, cr15, cr12, {0}
    9c60:	ebfff8f7 	bl	8044 <notmain>
    9c64:	ebffffba 	bl	9b54 <clean_reboot>
    9c68:	e1a03002 	mov	r3, r2
    9c6c:	eaffffe3 	b	9c00 <_cstart+0x80>
    9c70:	0000af68 	andeq	sl, r0, r8, ror #30
    9c74:	0000b390 	muleq	r0, r0, r3

00009c78 <custom_loader>:
    9c78:	e12fff1e 	bx	lr

00009c7c <at_user_level>:
    9c7c:	e10f0000 	mrs	r0, CPSR
    9c80:	e200001f 	and	r0, r0, #31, 0
    9c84:	e2400010 	sub	r0, r0, #16, 0
    9c88:	e16f0f10 	clz	r0, r0
    9c8c:	e1a002a0 	lsr	r0, r0, #5
    9c90:	e12fff1e 	bx	lr

00009c94 <set_user_level>:
    9c94:	e10f3000 	mrs	r3, CPSR
    9c98:	e3c3301f 	bic	r3, r3, #31, 0
    9c9c:	e3833010 	orr	r3, r3, #16, 0
    9ca0:	e129f003 	msr	CPSR_fc, r3
    9ca4:	e12fff1e 	bx	lr

00009ca8 <rpi_reboot>:
    9ca8:	e92d4010 	push	{r4, lr}
    9cac:	e10f3000 	mrs	r3, CPSR
    9cb0:	e203301f 	and	r3, r3, #31, 0
    9cb4:	e3530010 	cmp	r3, #16, 0
    9cb8:	1a000003 	bne	9ccc <rpi_reboot+0x24>
    9cbc:	e10f3000 	mrs	r3, CPSR
    9cc0:	e3c3301f 	bic	r3, r3, #31, 0
    9cc4:	e3833010 	orr	r3, r3, #16, 0
    9cc8:	e129f003 	msr	CPSR_fc, r3
    9ccc:	eb00025f 	bl	a650 <reboot_callout>
    9cd0:	eb0000c1 	bl	9fdc <uart_flush_tx>
    9cd4:	e3a0000a 	mov	r0, #10, 0
    9cd8:	eb000028 	bl	9d80 <delay_ms>
    9cdc:	e59f1014 	ldr	r1, [pc, #20]	; 9cf8 <rpi_reboot+0x50>
    9ce0:	e59f0014 	ldr	r0, [pc, #20]	; 9cfc <rpi_reboot+0x54>
    9ce4:	ebfff8ce 	bl	8024 <PUT32>
    9ce8:	e59f1010 	ldr	r1, [pc, #16]	; 9d00 <rpi_reboot+0x58>
    9cec:	e59f0010 	ldr	r0, [pc, #16]	; 9d04 <rpi_reboot+0x5c>
    9cf0:	ebfff8cb 	bl	8024 <PUT32>
    9cf4:	eafffffe 	b	9cf4 <rpi_reboot+0x4c>
    9cf8:	5a000001 	bpl	9d04 <rpi_reboot+0x5c>
    9cfc:	20100024 	andscs	r0, r0, r4, lsr #32
    9d00:	5a000020 	bpl	9d88 <delay_ms+0x8>
    9d04:	2010001c 	andscs	r0, r0, ip, lsl r0

00009d08 <timer_get_usec_raw>:
    9d08:	e59f0000 	ldr	r0, [pc]	; 9d10 <timer_get_usec_raw+0x8>
    9d0c:	eafff8c6 	b	802c <GET32>
    9d10:	20003004 	andcs	r3, r0, r4

00009d14 <timer_get_usec>:
    9d14:	e92d4010 	push	{r4, lr}
    9d18:	eb00024d 	bl	a654 <dev_barrier>
    9d1c:	e59f0010 	ldr	r0, [pc, #16]	; 9d34 <timer_get_usec+0x20>
    9d20:	ebfff8c1 	bl	802c <GET32>
    9d24:	e1a04000 	mov	r4, r0
    9d28:	eb000249 	bl	a654 <dev_barrier>
    9d2c:	e1a00004 	mov	r0, r4
    9d30:	e8bd8010 	pop	{r4, pc}
    9d34:	20003004 	andcs	r3, r0, r4

00009d38 <delay_us>:
    9d38:	e92d41f0 	push	{r4, r5, r6, r7, r8, lr}
    9d3c:	e1a06000 	mov	r6, r0
    9d40:	eb000243 	bl	a654 <dev_barrier>
    9d44:	e59f0030 	ldr	r0, [pc, #48]	; 9d7c <delay_us+0x44>
    9d48:	ebfff8b7 	bl	802c <GET32>
    9d4c:	e1a05000 	mov	r5, r0
    9d50:	eb00023f 	bl	a654 <dev_barrier>
    9d54:	e59f7020 	ldr	r7, [pc, #32]	; 9d7c <delay_us+0x44>
    9d58:	eb00023d 	bl	a654 <dev_barrier>
    9d5c:	e1a00007 	mov	r0, r7
    9d60:	ebfff8b1 	bl	802c <GET32>
    9d64:	e1a04000 	mov	r4, r0
    9d68:	e0444005 	sub	r4, r4, r5
    9d6c:	eb000238 	bl	a654 <dev_barrier>
    9d70:	e1540006 	cmp	r4, r6
    9d74:	3afffff7 	bcc	9d58 <delay_us+0x20>
    9d78:	e8bd81f0 	pop	{r4, r5, r6, r7, r8, pc}
    9d7c:	20003004 	andcs	r3, r0, r4

00009d80 <delay_ms>:
    9d80:	e92d41f0 	push	{r4, r5, r6, r7, r8, lr}
    9d84:	e0604280 	rsb	r4, r0, r0, lsl #5
    9d88:	e0800104 	add	r0, r0, r4, lsl #2
    9d8c:	e1a04180 	lsl	r4, r0, #3
    9d90:	eb00022f 	bl	a654 <dev_barrier>
    9d94:	e59f0030 	ldr	r0, [pc, #48]	; 9dcc <delay_ms+0x4c>
    9d98:	ebfff8a3 	bl	802c <GET32>
    9d9c:	e1a06000 	mov	r6, r0
    9da0:	eb00022b 	bl	a654 <dev_barrier>
    9da4:	e59f7020 	ldr	r7, [pc, #32]	; 9dcc <delay_ms+0x4c>
    9da8:	eb000229 	bl	a654 <dev_barrier>
    9dac:	e1a00007 	mov	r0, r7
    9db0:	ebfff89d 	bl	802c <GET32>
    9db4:	e1a05000 	mov	r5, r0
    9db8:	e0455006 	sub	r5, r5, r6
    9dbc:	eb000224 	bl	a654 <dev_barrier>
    9dc0:	e1540005 	cmp	r4, r5
    9dc4:	8afffff7 	bhi	9da8 <delay_ms+0x28>
    9dc8:	e8bd81f0 	pop	{r4, r5, r6, r7, r8, pc}
    9dcc:	20003004 	andcs	r3, r0, r4

00009dd0 <delay_sec>:
    9dd0:	e92d41f0 	push	{r4, r5, r6, r7, r8, lr}
    9dd4:	e0604280 	rsb	r4, r0, r0, lsl #5
    9dd8:	e0644304 	rsb	r4, r4, r4, lsl #6
    9ddc:	e0800184 	add	r0, r0, r4, lsl #3
    9de0:	e1a04300 	lsl	r4, r0, #6
    9de4:	eb00021a 	bl	a654 <dev_barrier>
    9de8:	e59f0030 	ldr	r0, [pc, #48]	; 9e20 <delay_sec+0x50>
    9dec:	ebfff88e 	bl	802c <GET32>
    9df0:	e1a06000 	mov	r6, r0
    9df4:	eb000216 	bl	a654 <dev_barrier>
    9df8:	e59f7020 	ldr	r7, [pc, #32]	; 9e20 <delay_sec+0x50>
    9dfc:	eb000214 	bl	a654 <dev_barrier>
    9e00:	e1a00007 	mov	r0, r7
    9e04:	ebfff888 	bl	802c <GET32>
    9e08:	e1a05000 	mov	r5, r0
    9e0c:	e0455006 	sub	r5, r5, r6
    9e10:	eb00020f 	bl	a654 <dev_barrier>
    9e14:	e1540005 	cmp	r4, r5
    9e18:	8afffff7 	bhi	9dfc <delay_sec+0x2c>
    9e1c:	e8bd81f0 	pop	{r4, r5, r6, r7, r8, pc}
    9e20:	20003004 	andcs	r3, r0, r4

00009e24 <and_in32>:
    9e24:	e92d4070 	push	{r4, r5, r6, lr}
    9e28:	e1a04000 	mov	r4, r0
    9e2c:	e1a05001 	mov	r5, r1
    9e30:	ebfff87d 	bl	802c <GET32>
    9e34:	e0001005 	and	r1, r0, r5
    9e38:	e1a00004 	mov	r0, r4
    9e3c:	ebfff878 	bl	8024 <PUT32>
    9e40:	e8bd8070 	pop	{r4, r5, r6, pc}

00009e44 <or_in32>:
    9e44:	e92d4070 	push	{r4, r5, r6, lr}
    9e48:	e1a04000 	mov	r4, r0
    9e4c:	e1a05001 	mov	r5, r1
    9e50:	ebfff875 	bl	802c <GET32>
    9e54:	e1801005 	orr	r1, r0, r5
    9e58:	e1a00004 	mov	r0, r4
    9e5c:	ebfff870 	bl	8024 <PUT32>
    9e60:	e8bd8070 	pop	{r4, r5, r6, pc}

00009e64 <uart_init>:
    9e64:	e92d4010 	push	{r4, lr}
    9e68:	e3a01002 	mov	r1, #2, 0
    9e6c:	e3a0000e 	mov	r0, #14, 0
    9e70:	eb000153 	bl	a3c4 <gpio_set_function>
    9e74:	e3a01002 	mov	r1, #2, 0
    9e78:	e3a0000f 	mov	r0, #15, 0
    9e7c:	eb000150 	bl	a3c4 <gpio_set_function>
    9e80:	eb0001f3 	bl	a654 <dev_barrier>
    9e84:	e3a01001 	mov	r1, #1, 0
    9e88:	e59f0064 	ldr	r0, [pc, #100]	; 9ef4 <uart_init+0x90>
    9e8c:	ebffffec 	bl	9e44 <or_in32>
    9e90:	eb0001ef 	bl	a654 <dev_barrier>
    9e94:	e59f405c 	ldr	r4, [pc, #92]	; 9ef8 <uart_init+0x94>
    9e98:	e3a01000 	mov	r1, #0, 0
    9e9c:	e1a00004 	mov	r0, r4
    9ea0:	ebfff85f 	bl	8024 <PUT32>
    9ea4:	e3a01000 	mov	r1, #0, 0
    9ea8:	e59f004c 	ldr	r0, [pc, #76]	; 9efc <uart_init+0x98>
    9eac:	ebfff85c 	bl	8024 <PUT32>
    9eb0:	e3a01003 	mov	r1, #3, 0
    9eb4:	e59f0044 	ldr	r0, [pc, #68]	; 9f00 <uart_init+0x9c>
    9eb8:	ebfff859 	bl	8024 <PUT32>
    9ebc:	e3a01000 	mov	r1, #0, 0
    9ec0:	e59f003c 	ldr	r0, [pc, #60]	; 9f04 <uart_init+0xa0>
    9ec4:	ebfff856 	bl	8024 <PUT32>
    9ec8:	e3a010c7 	mov	r1, #199, 0	; 0xc7
    9ecc:	e59f0034 	ldr	r0, [pc, #52]	; 9f08 <uart_init+0xa4>
    9ed0:	ebfff853 	bl	8024 <PUT32>
    9ed4:	e59f1030 	ldr	r1, [pc, #48]	; 9f0c <uart_init+0xa8>
    9ed8:	e59f0030 	ldr	r0, [pc, #48]	; 9f10 <uart_init+0xac>
    9edc:	ebfff850 	bl	8024 <PUT32>
    9ee0:	e3a01003 	mov	r1, #3, 0
    9ee4:	e1a00004 	mov	r0, r4
    9ee8:	ebfff84d 	bl	8024 <PUT32>
    9eec:	eb0001d8 	bl	a654 <dev_barrier>
    9ef0:	e8bd8010 	pop	{r4, pc}
    9ef4:	20215004 	eorcs	r5, r1, r4
    9ef8:	20215060 	eorcs	r5, r1, r0, rrx
    9efc:	20215044 	eorcs	r5, r1, r4, asr #32
    9f00:	2021504c 	eorcs	r5, r1, ip, asr #32
    9f04:	20215050 	eorcs	r5, r1, r0, asr r0
    9f08:	20215048 	eorcs	r5, r1, r8, asr #32
    9f0c:	0000010e 	andeq	r0, r0, lr, lsl #2
    9f10:	20215068 	eorcs	r5, r1, r8, rrx

00009f14 <uart_can_getc>:
    9f14:	e92d4010 	push	{r4, lr}
    9f18:	e59f0008 	ldr	r0, [pc, #8]	; 9f28 <uart_can_getc+0x14>
    9f1c:	ebfff842 	bl	802c <GET32>
    9f20:	e2000001 	and	r0, r0, #1, 0
    9f24:	e8bd8010 	pop	{r4, pc}
    9f28:	20215064 	eorcs	r5, r1, r4, rrx

00009f2c <uart_can_putc>:
    9f2c:	e92d4010 	push	{r4, lr}
    9f30:	e59f0010 	ldr	r0, [pc, #16]	; 9f48 <uart_can_putc+0x1c>
    9f34:	ebfff83c 	bl	802c <GET32>
    9f38:	e3100002 	tst	r0, #2, 0
    9f3c:	13a00001 	movne	r0, #1, 0
    9f40:	03a00000 	moveq	r0, #0, 0
    9f44:	e8bd8010 	pop	{r4, pc}
    9f48:	20215064 	eorcs	r5, r1, r4, rrx

00009f4c <uart_getc>:
    9f4c:	e92d4010 	push	{r4, lr}
    9f50:	eb0001bf 	bl	a654 <dev_barrier>
    9f54:	ebffffee 	bl	9f14 <uart_can_getc>
    9f58:	e3500000 	cmp	r0, #0, 0
    9f5c:	0afffffc 	beq	9f54 <uart_getc+0x8>
    9f60:	e59f0010 	ldr	r0, [pc, #16]	; 9f78 <uart_getc+0x2c>
    9f64:	ebfff830 	bl	802c <GET32>
    9f68:	e6ef4070 	uxtb	r4, r0
    9f6c:	eb0001b8 	bl	a654 <dev_barrier>
    9f70:	e1a00004 	mov	r0, r4
    9f74:	e8bd8010 	pop	{r4, pc}
    9f78:	20215040 	eorcs	r5, r1, r0, asr #32

00009f7c <uart_putc>:
    9f7c:	e92d4010 	push	{r4, lr}
    9f80:	e1a04000 	mov	r4, r0
    9f84:	eb0001b2 	bl	a654 <dev_barrier>
    9f88:	ebffffe7 	bl	9f2c <uart_can_putc>
    9f8c:	e3500000 	cmp	r0, #0, 0
    9f90:	0afffffc 	beq	9f88 <uart_putc+0xc>
    9f94:	e6ef1074 	uxtb	r1, r4
    9f98:	e59f0008 	ldr	r0, [pc, #8]	; 9fa8 <uart_putc+0x2c>
    9f9c:	ebfff820 	bl	8024 <PUT32>
    9fa0:	eb0001ab 	bl	a654 <dev_barrier>
    9fa4:	e8bd8010 	pop	{r4, pc}
    9fa8:	20215040 	eorcs	r5, r1, r0, asr #32

00009fac <uart_has_data>:
    9fac:	e92d4010 	push	{r4, lr}
    9fb0:	eb0001a7 	bl	a654 <dev_barrier>
    9fb4:	ebffffd6 	bl	9f14 <uart_can_getc>
    9fb8:	e8bd8010 	pop	{r4, pc}

00009fbc <uart_tx_is_empty>:
    9fbc:	e92d4010 	push	{r4, lr}
    9fc0:	eb0001a3 	bl	a654 <dev_barrier>
    9fc4:	e59f000c 	ldr	r0, [pc, #12]	; 9fd8 <uart_tx_is_empty+0x1c>
    9fc8:	ebfff817 	bl	802c <GET32>
    9fcc:	e1a004a0 	lsr	r0, r0, #9
    9fd0:	e2000001 	and	r0, r0, #1, 0
    9fd4:	e8bd8010 	pop	{r4, pc}
    9fd8:	20215064 	eorcs	r5, r1, r4, rrx

00009fdc <uart_flush_tx>:
    9fdc:	e92d4010 	push	{r4, lr}
    9fe0:	ebfffff5 	bl	9fbc <uart_tx_is_empty>
    9fe4:	e3500000 	cmp	r0, #0, 0
    9fe8:	0afffffc 	beq	9fe0 <uart_flush_tx+0x4>
    9fec:	e8bd8010 	pop	{r4, pc}

00009ff0 <uart_disable>:
    9ff0:	e92d4010 	push	{r4, lr}
    9ff4:	ebfffff8 	bl	9fdc <uart_flush_tx>
    9ff8:	eb000195 	bl	a654 <dev_barrier>
    9ffc:	e3e01001 	mvn	r1, #1, 0
    a000:	e59f0008 	ldr	r0, [pc, #8]	; a010 <uart_disable+0x20>
    a004:	ebffff86 	bl	9e24 <and_in32>
    a008:	eb000191 	bl	a654 <dev_barrier>
    a00c:	e8bd8010 	pop	{r4, pc}
    a010:	20215004 	eorcs	r5, r1, r4

0000a014 <kmalloc_heap_end>:
    a014:	e59f3004 	ldr	r3, [pc, #4]	; a020 <kmalloc_heap_end+0xc>
    a018:	e5930000 	ldr	r0, [r3]
    a01c:	e12fff1e 	bx	lr
    a020:	0000af58 	andeq	sl, r0, r8, asr pc

0000a024 <kmalloc_heap_start>:
    a024:	e59f3004 	ldr	r3, [pc, #4]	; a030 <kmalloc_heap_start+0xc>
    a028:	e5930004 	ldr	r0, [r3, #4]
    a02c:	e12fff1e 	bx	lr
    a030:	0000af58 	andeq	sl, r0, r8, asr pc

0000a034 <kmalloc_heap_ptr>:
    a034:	e59f3004 	ldr	r3, [pc, #4]	; a040 <kmalloc_heap_ptr+0xc>
    a038:	e5930000 	ldr	r0, [r3]
    a03c:	e12fff1e 	bx	lr
    a040:	0000af58 	andeq	sl, r0, r8, asr pc

0000a044 <kmalloc_init_set_start>:
    a044:	e52de004 	push	{lr}		; (str lr, [sp, #-4]!)
    a048:	e24dd00c 	sub	sp, sp, #12, 0
    a04c:	e3510000 	cmp	r1, #0, 0
    a050:	0a00000a 	beq	a080 <kmalloc_init_set_start+0x3c>
    a054:	e59f306c 	ldr	r3, [pc, #108]	; a0c8 <kmalloc_init_set_start+0x84>
    a058:	e5933000 	ldr	r3, [r3]
    a05c:	e1530000 	cmp	r3, r0
    a060:	8a00000e 	bhi	a0a0 <kmalloc_init_set_start+0x5c>
    a064:	e59f305c 	ldr	r3, [pc, #92]	; a0c8 <kmalloc_init_set_start+0x84>
    a068:	e5830000 	str	r0, [r3]
    a06c:	e5830004 	str	r0, [r3, #4]
    a070:	e0800001 	add	r0, r0, r1
    a074:	e5830008 	str	r0, [r3, #8]
    a078:	e28dd00c 	add	sp, sp, #12, 0
    a07c:	e49df004 	pop	{pc}		; (ldr pc, [sp], #4)
    a080:	e59f3044 	ldr	r3, [pc, #68]	; a0cc <kmalloc_init_set_start+0x88>
    a084:	e58d3000 	str	r3, [sp]
    a088:	e3a03030 	mov	r3, #48, 0	; 0x30
    a08c:	e59f203c 	ldr	r2, [pc, #60]	; a0d0 <kmalloc_init_set_start+0x8c>
    a090:	e59f103c 	ldr	r1, [pc, #60]	; a0d4 <kmalloc_init_set_start+0x90>
    a094:	e59f003c 	ldr	r0, [pc, #60]	; a0d8 <kmalloc_init_set_start+0x94>
    a098:	ebfffbf6 	bl	9078 <printk>
    a09c:	ebfffeac 	bl	9b54 <clean_reboot>
    a0a0:	e59f3020 	ldr	r3, [pc, #32]	; a0c8 <kmalloc_init_set_start+0x84>
    a0a4:	e5933008 	ldr	r3, [r3, #8]
    a0a8:	e58d3004 	str	r3, [sp, #4]
    a0ac:	e58d0000 	str	r0, [sp]
    a0b0:	e3a03034 	mov	r3, #52, 0	; 0x34
    a0b4:	e59f2014 	ldr	r2, [pc, #20]	; a0d0 <kmalloc_init_set_start+0x8c>
    a0b8:	e59f1014 	ldr	r1, [pc, #20]	; a0d4 <kmalloc_init_set_start+0x90>
    a0bc:	e59f0018 	ldr	r0, [pc, #24]	; a0dc <kmalloc_init_set_start+0x98>
    a0c0:	ebfffbec 	bl	9078 <printk>
    a0c4:	ebfffea2 	bl	9b54 <clean_reboot>
    a0c8:	0000af58 	andeq	sl, r0, r8, asr pc
    a0cc:	0000ad60 	andeq	sl, r0, r0, ror #26
    a0d0:	0000aeec 	andeq	sl, r0, ip, ror #29
    a0d4:	0000ad54 	andeq	sl, r0, r4, asr sp
    a0d8:	0000a7ac 	andeq	sl, r0, ip, lsr #15
    a0dc:	0000ad6c 	andeq	sl, r0, ip, ror #26

0000a0e0 <kmalloc_init>:
    a0e0:	e92d4010 	push	{r4, lr}
    a0e4:	e59f303c 	ldr	r3, [pc, #60]	; a128 <kmalloc_init+0x48>
    a0e8:	e5933000 	ldr	r3, [r3]
    a0ec:	e3530000 	cmp	r3, #0, 0
    a0f0:	1a000006 	bne	a110 <kmalloc_init+0x30>
    a0f4:	e59f302c 	ldr	r3, [pc, #44]	; a128 <kmalloc_init+0x48>
    a0f8:	e3a02001 	mov	r2, #1, 0
    a0fc:	e5832000 	str	r2, [r3]
    a100:	e3a01201 	mov	r1, #268435456	; 0x10000000
    a104:	e3a00601 	mov	r0, #1048576	; 0x100000
    a108:	ebffffcd 	bl	a044 <kmalloc_init_set_start>
    a10c:	e8bd8010 	pop	{r4, pc}
    a110:	e3a03040 	mov	r3, #64, 0	; 0x40
    a114:	e59f2010 	ldr	r2, [pc, #16]	; a12c <kmalloc_init+0x4c>
    a118:	e59f1010 	ldr	r1, [pc, #16]	; a130 <kmalloc_init+0x50>
    a11c:	e59f0010 	ldr	r0, [pc, #16]	; a134 <kmalloc_init+0x54>
    a120:	ebfffbd4 	bl	9078 <printk>
    a124:	ebfffe8a 	bl	9b54 <clean_reboot>
    a128:	0000b38c 	andeq	fp, r0, ip, lsl #7
    a12c:	0000af04 	andeq	sl, r0, r4, lsl #30
    a130:	0000ad54 	andeq	sl, r0, r4, asr sp
    a134:	0000adb0 			; <UNDEFINED> instruction: 0x0000adb0

0000a138 <kmalloc_notzero>:
    a138:	e52de004 	push	{lr}		; (str lr, [sp, #-4]!)
    a13c:	e24dd00c 	sub	sp, sp, #12, 0
    a140:	e3500000 	cmp	r0, #0, 0
    a144:	0a00000a 	beq	a174 <kmalloc_notzero+0x3c>
    a148:	e2800007 	add	r0, r0, #7, 0
    a14c:	e3c03007 	bic	r3, r0, #7, 0
    a150:	e59f2060 	ldr	r2, [pc, #96]	; a1b8 <kmalloc_notzero+0x80>
    a154:	e5920000 	ldr	r0, [r2]
    a158:	e0801003 	add	r1, r0, r3
    a15c:	e5821000 	str	r1, [r2]
    a160:	e5922008 	ldr	r2, [r2, #8]
    a164:	e1510002 	cmp	r1, r2
    a168:	8a000009 	bhi	a194 <kmalloc_notzero+0x5c>
    a16c:	e28dd00c 	add	sp, sp, #12, 0
    a170:	e49df004 	pop	{pc}		; (ldr pc, [sp], #4)
    a174:	e59f3040 	ldr	r3, [pc, #64]	; a1bc <kmalloc_notzero+0x84>
    a178:	e58d3000 	str	r3, [sp]
    a17c:	e3a03048 	mov	r3, #72, 0	; 0x48
    a180:	e59f2038 	ldr	r2, [pc, #56]	; a1c0 <kmalloc_notzero+0x88>
    a184:	e59f1038 	ldr	r1, [pc, #56]	; a1c4 <kmalloc_notzero+0x8c>
    a188:	e59f0038 	ldr	r0, [pc, #56]	; a1c8 <kmalloc_notzero+0x90>
    a18c:	ebfffbb9 	bl	9078 <printk>
    a190:	ebfffe6f 	bl	9b54 <clean_reboot>
    a194:	e0422000 	sub	r2, r2, r0
    a198:	e58d2004 	str	r2, [sp, #4]
    a19c:	e58d3000 	str	r3, [sp]
    a1a0:	e3a0304e 	mov	r3, #78, 0	; 0x4e
    a1a4:	e59f2014 	ldr	r2, [pc, #20]	; a1c0 <kmalloc_notzero+0x88>
    a1a8:	e59f1014 	ldr	r1, [pc, #20]	; a1c4 <kmalloc_notzero+0x8c>
    a1ac:	e59f0018 	ldr	r0, [pc, #24]	; a1cc <kmalloc_notzero+0x94>
    a1b0:	ebfffbb0 	bl	9078 <printk>
    a1b4:	ebfffe66 	bl	9b54 <clean_reboot>
    a1b8:	0000af58 	andeq	sl, r0, r8, asr pc
    a1bc:	0000ad64 	andeq	sl, r0, r4, ror #26
    a1c0:	0000af14 	andeq	sl, r0, r4, lsl pc
    a1c4:	0000ad54 	andeq	sl, r0, r4, asr sp
    a1c8:	0000a7ac 	andeq	sl, r0, ip, lsr #15
    a1cc:	0000ade0 	andeq	sl, r0, r0, ror #27

0000a1d0 <kmalloc>:
    a1d0:	e92d4030 	push	{r4, r5, lr}
    a1d4:	e24dd00c 	sub	sp, sp, #12, 0
    a1d8:	e2504000 	subs	r4, r0, #0, 0
    a1dc:	0a000008 	beq	a204 <kmalloc+0x34>
    a1e0:	e1a00004 	mov	r0, r4
    a1e4:	ebffffd3 	bl	a138 <kmalloc_notzero>
    a1e8:	e1a05000 	mov	r5, r0
    a1ec:	e1a02004 	mov	r2, r4
    a1f0:	e3a01000 	mov	r1, #0, 0
    a1f4:	ebfffb81 	bl	9000 <memset>
    a1f8:	e1a00005 	mov	r0, r5
    a1fc:	e28dd00c 	add	sp, sp, #12, 0
    a200:	e8bd8030 	pop	{r4, r5, pc}
    a204:	e59f3018 	ldr	r3, [pc, #24]	; a224 <kmalloc+0x54>
    a208:	e58d3000 	str	r3, [sp]
    a20c:	e3a03054 	mov	r3, #84, 0	; 0x54
    a210:	e59f2010 	ldr	r2, [pc, #16]	; a228 <kmalloc+0x58>
    a214:	e59f1010 	ldr	r1, [pc, #16]	; a22c <kmalloc+0x5c>
    a218:	e59f0010 	ldr	r0, [pc, #16]	; a230 <kmalloc+0x60>
    a21c:	ebfffb95 	bl	9078 <printk>
    a220:	ebfffe4b 	bl	9b54 <clean_reboot>
    a224:	0000ad64 	andeq	sl, r0, r4, ror #26
    a228:	0000af24 	andeq	sl, r0, r4, lsr #30
    a22c:	0000ad54 	andeq	sl, r0, r4, asr sp
    a230:	0000a7ac 	andeq	sl, r0, ip, lsr #15

0000a234 <kmalloc_aligned>:
    a234:	e52de004 	push	{lr}		; (str lr, [sp, #-4]!)
    a238:	e24dd00c 	sub	sp, sp, #12, 0
    a23c:	e3500000 	cmp	r0, #0, 0
    a240:	0a000014 	beq	a298 <kmalloc_aligned+0x64>
    a244:	e2613000 	rsb	r3, r1, #0, 0
    a248:	e1d13003 	bics	r3, r1, r3
    a24c:	1a000019 	bne	a2b8 <kmalloc_aligned+0x84>
    a250:	e3510008 	cmp	r1, #8, 0
    a254:	33a01008 	movcc	r1, #8, 0
    a258:	e59f30c0 	ldr	r3, [pc, #192]	; a320 <kmalloc_aligned+0xec>
    a25c:	e5932000 	ldr	r2, [r3]
    a260:	e2613000 	rsb	r3, r1, #0, 0
    a264:	e1d1c003 	bics	ip, r1, r3
    a268:	1a00001b 	bne	a2dc <kmalloc_aligned+0xa8>
    a26c:	e0822001 	add	r2, r2, r1
    a270:	e2422001 	sub	r2, r2, #1, 0
    a274:	e0033002 	and	r3, r3, r2
    a278:	e2411001 	sub	r1, r1, #1, 0
    a27c:	e1110003 	tst	r1, r3
    a280:	1a00001d 	bne	a2fc <kmalloc_aligned+0xc8>
    a284:	e59f2094 	ldr	r2, [pc, #148]	; a320 <kmalloc_aligned+0xec>
    a288:	e5823000 	str	r3, [r2]
    a28c:	ebffffcf 	bl	a1d0 <kmalloc>
    a290:	e28dd00c 	add	sp, sp, #12, 0
    a294:	e49df004 	pop	{pc}		; (ldr pc, [sp], #4)
    a298:	e59f3084 	ldr	r3, [pc, #132]	; a324 <kmalloc_aligned+0xf0>
    a29c:	e58d3000 	str	r3, [sp]
    a2a0:	e3a0305f 	mov	r3, #95, 0	; 0x5f
    a2a4:	e59f207c 	ldr	r2, [pc, #124]	; a328 <kmalloc_aligned+0xf4>
    a2a8:	e59f107c 	ldr	r1, [pc, #124]	; a32c <kmalloc_aligned+0xf8>
    a2ac:	e59f007c 	ldr	r0, [pc, #124]	; a330 <kmalloc_aligned+0xfc>
    a2b0:	ebfffb70 	bl	9078 <printk>
    a2b4:	ebfffe26 	bl	9b54 <clean_reboot>
    a2b8:	eb0000ac 	bl	a570 <rpi_reset_putc>
    a2bc:	e59f3070 	ldr	r3, [pc, #112]	; a334 <kmalloc_aligned+0x100>
    a2c0:	e58d3000 	str	r3, [sp]
    a2c4:	e3a03060 	mov	r3, #96, 0	; 0x60
    a2c8:	e59f2058 	ldr	r2, [pc, #88]	; a328 <kmalloc_aligned+0xf4>
    a2cc:	e59f1058 	ldr	r1, [pc, #88]	; a32c <kmalloc_aligned+0xf8>
    a2d0:	e59f0060 	ldr	r0, [pc, #96]	; a338 <kmalloc_aligned+0x104>
    a2d4:	ebfffb67 	bl	9078 <printk>
    a2d8:	ebfffe1d 	bl	9b54 <clean_reboot>
    a2dc:	e59f3058 	ldr	r3, [pc, #88]	; a33c <kmalloc_aligned+0x108>
    a2e0:	e58d3000 	str	r3, [sp]
    a2e4:	e3a03011 	mov	r3, #17, 0
    a2e8:	e59f2050 	ldr	r2, [pc, #80]	; a340 <kmalloc_aligned+0x10c>
    a2ec:	e59f1038 	ldr	r1, [pc, #56]	; a32c <kmalloc_aligned+0xf8>
    a2f0:	e59f0038 	ldr	r0, [pc, #56]	; a330 <kmalloc_aligned+0xfc>
    a2f4:	ebfffb5f 	bl	9078 <printk>
    a2f8:	ebfffe15 	bl	9b54 <clean_reboot>
    a2fc:	eb00009b 	bl	a570 <rpi_reset_putc>
    a300:	e59f303c 	ldr	r3, [pc, #60]	; a344 <kmalloc_aligned+0x110>
    a304:	e58d3000 	str	r3, [sp]
    a308:	e3a03068 	mov	r3, #104, 0	; 0x68
    a30c:	e59f2014 	ldr	r2, [pc, #20]	; a328 <kmalloc_aligned+0xf4>
    a310:	e59f1014 	ldr	r1, [pc, #20]	; a32c <kmalloc_aligned+0xf8>
    a314:	e59f002c 	ldr	r0, [pc, #44]	; a348 <kmalloc_aligned+0x114>
    a318:	ebfffb56 	bl	9078 <printk>
    a31c:	ebfffe0c 	bl	9b54 <clean_reboot>
    a320:	0000af58 	andeq	sl, r0, r8, asr pc
    a324:	0000ad64 	andeq	sl, r0, r4, ror #26
    a328:	0000af2c 	andeq	sl, r0, ip, lsr #30
    a32c:	0000ad54 	andeq	sl, r0, r4, asr sp
    a330:	0000a7ac 	andeq	sl, r0, ip, lsr #15
    a334:	0000ae54 	andeq	sl, r0, r4, asr lr
    a338:	0000ae20 	andeq	sl, r0, r0, lsr #28
    a33c:	0000ae68 	andeq	sl, r0, r8, ror #28
    a340:	0000af3c 	andeq	sl, r0, ip, lsr pc
    a344:	0000aea0 	andeq	sl, r0, r0, lsr #29
    a348:	0000ae74 	andeq	sl, r0, r4, ror lr

0000a34c <kfree>:
    a34c:	e12fff1e 	bx	lr

0000a350 <kfree_all>:
    a350:	e59f3008 	ldr	r3, [pc, #8]	; a360 <kfree_all+0x10>
    a354:	e5932004 	ldr	r2, [r3, #4]
    a358:	e5832000 	str	r2, [r3]
    a35c:	e12fff1e 	bx	lr
    a360:	0000af58 	andeq	sl, r0, r8, asr pc

0000a364 <kfree_pop>:
    a364:	e59f3048 	ldr	r3, [pc, #72]	; a3b4 <kfree_pop+0x50>
    a368:	e5933004 	ldr	r3, [r3, #4]
    a36c:	e1530000 	cmp	r3, r0
    a370:	8a000006 	bhi	a390 <kfree_pop+0x2c>
    a374:	e59f3038 	ldr	r3, [pc, #56]	; a3b4 <kfree_pop+0x50>
    a378:	e5933008 	ldr	r3, [r3, #8]
    a37c:	e1530000 	cmp	r3, r0
    a380:	3a000002 	bcc	a390 <kfree_pop+0x2c>
    a384:	e59f3028 	ldr	r3, [pc, #40]	; a3b4 <kfree_pop+0x50>
    a388:	e5830000 	str	r0, [r3]
    a38c:	e12fff1e 	bx	lr
    a390:	e52de004 	push	{lr}		; (str lr, [sp, #-4]!)
    a394:	e24dd00c 	sub	sp, sp, #12, 0
    a398:	e58d0000 	str	r0, [sp]
    a39c:	e3a03077 	mov	r3, #119, 0	; 0x77
    a3a0:	e59f2010 	ldr	r2, [pc, #16]	; a3b8 <kfree_pop+0x54>
    a3a4:	e59f1010 	ldr	r1, [pc, #16]	; a3bc <kfree_pop+0x58>
    a3a8:	e59f0010 	ldr	r0, [pc, #16]	; a3c0 <kfree_pop+0x5c>
    a3ac:	ebfffb31 	bl	9078 <printk>
    a3b0:	ebfffde7 	bl	9b54 <clean_reboot>
    a3b4:	0000af58 	andeq	sl, r0, r8, asr pc
    a3b8:	0000af44 	andeq	sl, r0, r4, asr #30
    a3bc:	0000ad54 	andeq	sl, r0, r4, asr sp
    a3c0:	0000aebc 			; <UNDEFINED> instruction: 0x0000aebc

0000a3c4 <gpio_set_function>:
    a3c4:	e350001f 	cmp	r0, #31, 0
    a3c8:	812fff1e 	bxhi	lr
    a3cc:	e3d13007 	bics	r3, r1, #7, 0
    a3d0:	e92d4070 	push	{r4, r5, r6, lr}
    a3d4:	e1a05001 	mov	r5, r1
    a3d8:	18bd8070 	popne	{r4, r5, r6, pc}
    a3dc:	e59f403c 	ldr	r4, [pc, #60]	; a420 <gpio_set_function+0x5c>
    a3e0:	e0843094 	umull	r3, r4, r4, r0
    a3e4:	e1a041a4 	lsr	r4, r4, #3
    a3e8:	e2843302 	add	r3, r4, #134217728	; 0x8000000
    a3ec:	e2833702 	add	r3, r3, #524288	; 0x80000
    a3f0:	e1a06103 	lsl	r6, r3, #2
    a3f4:	e0844104 	add	r4, r4, r4, lsl #2
    a3f8:	e0404084 	sub	r4, r0, r4, lsl #1
    a3fc:	e1a00006 	mov	r0, r6
    a400:	ebfff709 	bl	802c <GET32>
    a404:	e3a01007 	mov	r1, #7, 0
    a408:	e0844084 	add	r4, r4, r4, lsl #1
    a40c:	e1c01411 	bic	r1, r0, r1, lsl r4
    a410:	e1811415 	orr	r1, r1, r5, lsl r4
    a414:	e1a00006 	mov	r0, r6
    a418:	e8bd4070 	pop	{r4, r5, r6, lr}
    a41c:	eafff700 	b	8024 <PUT32>
    a420:	cccccccd 	stclgt	12, cr12, [ip], {205}	; 0xcd

0000a424 <gpio_set_output>:
    a424:	e350001f 	cmp	r0, #31, 0
    a428:	812fff1e 	bxhi	lr
    a42c:	e92d4070 	push	{r4, r5, r6, lr}
    a430:	e59f4040 	ldr	r4, [pc, #64]	; a478 <gpio_set_output+0x54>
    a434:	e0843094 	umull	r3, r4, r4, r0
    a438:	e1a041a4 	lsr	r4, r4, #3
    a43c:	e2843302 	add	r3, r4, #134217728	; 0x8000000
    a440:	e2833702 	add	r3, r3, #524288	; 0x80000
    a444:	e1a05103 	lsl	r5, r3, #2
    a448:	e0844104 	add	r4, r4, r4, lsl #2
    a44c:	e0404084 	sub	r4, r0, r4, lsl #1
    a450:	e1a00005 	mov	r0, r5
    a454:	ebfff6f4 	bl	802c <GET32>
    a458:	e3a03007 	mov	r3, #7, 0
    a45c:	e3a01001 	mov	r1, #1, 0
    a460:	e0844084 	add	r4, r4, r4, lsl #1
    a464:	e1c03413 	bic	r3, r0, r3, lsl r4
    a468:	e1831411 	orr	r1, r3, r1, lsl r4
    a46c:	e1a00005 	mov	r0, r5
    a470:	e8bd4070 	pop	{r4, r5, r6, lr}
    a474:	eafff6ea 	b	8024 <PUT32>
    a478:	cccccccd 	stclgt	12, cr12, [ip], {205}	; 0xcd

0000a47c <gpio_set_on>:
    a47c:	e1a03000 	mov	r3, r0
    a480:	e3a01001 	mov	r1, #1, 0
    a484:	e59f0004 	ldr	r0, [pc, #4]	; a490 <gpio_set_on+0x14>
    a488:	e1a01311 	lsl	r1, r1, r3
    a48c:	eafff6e4 	b	8024 <PUT32>
    a490:	2020001c 	eorcs	r0, r0, ip, lsl r0

0000a494 <gpio_set_off>:
    a494:	e1a03000 	mov	r3, r0
    a498:	e3a01001 	mov	r1, #1, 0
    a49c:	e59f0004 	ldr	r0, [pc, #4]	; a4a8 <gpio_set_off+0x14>
    a4a0:	e1a01311 	lsl	r1, r1, r3
    a4a4:	eafff6de 	b	8024 <PUT32>
    a4a8:	20200028 	eorcs	r0, r0, r8, lsr #32

0000a4ac <gpio_set_input>:
    a4ac:	e350001f 	cmp	r0, #31, 0
    a4b0:	812fff1e 	bxhi	lr
    a4b4:	e92d4070 	push	{r4, r5, r6, lr}
    a4b8:	e59f5040 	ldr	r5, [pc, #64]	; a500 <gpio_set_input+0x54>
    a4bc:	e1a04000 	mov	r4, r0
    a4c0:	e0853095 	umull	r3, r5, r5, r0
    a4c4:	e1a051a5 	lsr	r5, r5, #3
    a4c8:	e2850302 	add	r0, r5, #134217728	; 0x8000000
    a4cc:	e2800702 	add	r0, r0, #524288	; 0x80000
    a4d0:	e1a06100 	lsl	r6, r0, #2
    a4d4:	e1a00006 	mov	r0, r6
    a4d8:	ebfff6d3 	bl	802c <GET32>
    a4dc:	e3a01007 	mov	r1, #7, 0
    a4e0:	e1a03000 	mov	r3, r0
    a4e4:	e0855105 	add	r5, r5, r5, lsl #2
    a4e8:	e0444085 	sub	r4, r4, r5, lsl #1
    a4ec:	e0844084 	add	r4, r4, r4, lsl #1
    a4f0:	e1a00006 	mov	r0, r6
    a4f4:	e1c31411 	bic	r1, r3, r1, lsl r4
    a4f8:	e8bd4070 	pop	{r4, r5, r6, lr}
    a4fc:	eafff6c8 	b	8024 <PUT32>
    a500:	cccccccd 	stclgt	12, cr12, [ip], {205}	; 0xcd

0000a504 <gpio_write>:
    a504:	e3510000 	cmp	r1, #0, 0
    a508:	e3a03001 	mov	r3, #1, 0
    a50c:	e1a01000 	mov	r1, r0
    a510:	0a000002 	beq	a520 <gpio_write+0x1c>
    a514:	e59f0010 	ldr	r0, [pc, #16]	; a52c <gpio_write+0x28>
    a518:	e1a01113 	lsl	r1, r3, r1
    a51c:	eafff6c0 	b	8024 <PUT32>
    a520:	e59f0008 	ldr	r0, [pc, #8]	; a530 <gpio_write+0x2c>
    a524:	e1a01113 	lsl	r1, r3, r1
    a528:	eafff6bd 	b	8024 <PUT32>
    a52c:	2020001c 	eorcs	r0, r0, ip, lsl r0
    a530:	20200028 	eorcs	r0, r0, r8, lsr #32

0000a534 <gpio_read>:
    a534:	e92d4010 	push	{r4, lr}
    a538:	e1a04000 	mov	r4, r0
    a53c:	e59f0014 	ldr	r0, [pc, #20]	; a558 <gpio_read+0x24>
    a540:	e08002a4 	add	r0, r0, r4, lsr #5
    a544:	ebfff6b8 	bl	802c <GET32>
    a548:	e204401f 	and	r4, r4, #31, 0
    a54c:	e1a00430 	lsr	r0, r0, r4
    a550:	e2000001 	and	r0, r0, #1, 0
    a554:	e8bd8010 	pop	{r4, pc}
    a558:	20200034 	eorcs	r0, r0, r4, lsr r0

0000a55c <internal_putchar>:
    a55c:	e92d4010 	push	{r4, lr}
    a560:	e1a04000 	mov	r4, r0
    a564:	ebfffe84 	bl	9f7c <uart_putc>
    a568:	e1a00004 	mov	r0, r4
    a56c:	e8bd8010 	pop	{r4, pc}

0000a570 <rpi_reset_putc>:
    a570:	e59f3008 	ldr	r3, [pc, #8]	; a580 <rpi_reset_putc+0x10>
    a574:	e59f2008 	ldr	r2, [pc, #8]	; a584 <rpi_reset_putc+0x14>
    a578:	e5832000 	str	r2, [r3]
    a57c:	e12fff1e 	bx	lr
    a580:	0000af64 	andeq	sl, r0, r4, ror #30
    a584:	0000a55c 	andeq	sl, r0, ip, asr r5

0000a588 <rpi_set_putc>:
    a588:	e59f3004 	ldr	r3, [pc, #4]	; a594 <rpi_set_putc+0xc>
    a58c:	e5830000 	str	r0, [r3]
    a590:	e12fff1e 	bx	lr
    a594:	0000af64 	andeq	sl, r0, r4, ror #30

0000a598 <strcat>:
    a598:	e1a02000 	mov	r2, r0
    a59c:	e1a03002 	mov	r3, r2
    a5a0:	e4d2c001 	ldrb	ip, [r2], #1
    a5a4:	e35c0000 	cmp	ip, #0, 0
    a5a8:	1afffffb 	bne	a59c <strcat+0x4>
    a5ac:	e2433001 	sub	r3, r3, #1, 0
    a5b0:	e4d12001 	ldrb	r2, [r1], #1
    a5b4:	e3520000 	cmp	r2, #0, 0
    a5b8:	e5e32001 	strb	r2, [r3, #1]!
    a5bc:	1afffffb 	bne	a5b0 <strcat+0x18>
    a5c0:	e12fff1e 	bx	lr

0000a5c4 <strcmp>:
    a5c4:	e5d03000 	ldrb	r3, [r0]
    a5c8:	e3530000 	cmp	r3, #0, 0
    a5cc:	05d12000 	ldrbeq	r2, [r1]
    a5d0:	1a000003 	bne	a5e4 <strcmp+0x20>
    a5d4:	ea000006 	b	a5f4 <strcmp+0x30>
    a5d8:	e5f03001 	ldrb	r3, [r0, #1]!
    a5dc:	e3530000 	cmp	r3, #0, 0
    a5e0:	0a000005 	beq	a5fc <strcmp+0x38>
    a5e4:	e1a0c001 	mov	ip, r1
    a5e8:	e4d12001 	ldrb	r2, [r1], #1
    a5ec:	e1520003 	cmp	r2, r3
    a5f0:	0afffff8 	beq	a5d8 <strcmp+0x14>
    a5f4:	e0430002 	sub	r0, r3, r2
    a5f8:	e12fff1e 	bx	lr
    a5fc:	e5dc2001 	ldrb	r2, [ip, #1]
    a600:	e0430002 	sub	r0, r3, r2
    a604:	e12fff1e 	bx	lr

0000a608 <strcpy>:
    a608:	e2402001 	sub	r2, r0, #1, 0
    a60c:	e4d13001 	ldrb	r3, [r1], #1
    a610:	e3530000 	cmp	r3, #0, 0
    a614:	e5e23001 	strb	r3, [r2, #1]!
    a618:	1afffffb 	bne	a60c <strcpy+0x4>
    a61c:	e12fff1e 	bx	lr

0000a620 <strncmp>:
    a620:	e0802002 	add	r2, r0, r2
    a624:	ea000003 	b	a638 <strncmp+0x18>
    a628:	e4d03001 	ldrb	r3, [r0], #1
    a62c:	e4d1c001 	ldrb	ip, [r1], #1
    a630:	e153000c 	cmp	r3, ip
    a634:	1a000003 	bne	a648 <strncmp+0x28>
    a638:	e1500002 	cmp	r0, r2
    a63c:	1afffff9 	bne	a628 <strncmp+0x8>
    a640:	e3a00000 	mov	r0, #0, 0
    a644:	e12fff1e 	bx	lr
    a648:	e043000c 	sub	r0, r3, ip
    a64c:	e12fff1e 	bx	lr

0000a650 <reboot_callout>:
    a650:	e12fff1e 	bx	lr

0000a654 <dev_barrier>:
    a654:	ea000002 	b	a664 <dsb>

0000a658 <dmb>:
    a658:	e3a00000 	mov	r0, #0, 0
    a65c:	ee070fba 	mcr	15, 0, r0, cr7, cr10, {5}
    a660:	e12fff1e 	bx	lr

0000a664 <dsb>:
    a664:	ee070f9a 	mcr	15, 0, r0, cr7, cr10, {4}
    a668:	e12fff1e 	bx	lr

0000a66c <__code_end__>:
    a66c:	00000000 	andeq	r0, r0, r0

Disassembly of section .rodata:

0000a670 <__FUNCTION__.4028-0x84>:
    a670:	74736574 	ldrbtvc	r6, [r3], #-1396	; 0xfffffa8c
    a674:	6c203a34 			; <UNDEFINED> instruction: 0x6c203a34
    a678:	65677261 	strbvs	r7, [r7, #-609]!	; 0xfffffd9f
    a67c:	6c612072 	stclvs	0, cr2, [r1], #-456	; 0xfffffe38
    a680:	2c636f6c 	stclcs	15, cr6, [r3], #-432	; 0xfffffe50
    a684:	206f6e20 	rsbcs	r6, pc, r0, lsr #28
    a688:	6f727265 	svcvs	0x00727265
    a68c:	00000a72 	andeq	r0, r0, r2, ror sl
    a690:	74736574 	ldrbtvc	r6, [r3], #-1396	; 0xfffffa8c
    a694:	2e322d73 	mrccs	13, 1, r2, cr2, cr3, {3}
    a698:	61702f30 	cmnvs	r0, r0, lsr pc
    a69c:	2d317472 	cfldrscs	mvf7, [r1, #-456]!	; 0xfffffe38
    a6a0:	74736574 	ldrbtvc	r6, [r3], #-1396	; 0xfffffa8c
    a6a4:	6f6e2d35 	svcvs	0x006e2d35
    a6a8:	6775622d 	ldrbvs	r6, [r5, -sp, lsr #4]!
    a6ac:	0000632e 	andeq	r6, r0, lr, lsr #6
    a6b0:	494e4150 	stmdbmi	lr, {r4, r6, r8, lr}^
    a6b4:	73253a43 			; <UNDEFINED> instruction: 0x73253a43
    a6b8:	3a73253a 	bcc	1cd3ba8 <__bss_end__+0x1cc8818>
    a6bc:	693a6425 	ldmdbvs	sl!, {r0, r2, r5, sl, sp, lr}
    a6c0:	6c61766e 	stclvs	6, cr7, [r1], #-440	; 0xfffffe48
    a6c4:	65206469 	strvs	r6, [r0, #-1129]!	; 0xfffffb97
    a6c8:	726f7272 	rsbvc	r7, pc, #536870919	; 0x20000007
    a6cc:	0a0a2121 	beq	292b58 <__bss_end__+0x2877c8>
    a6d0:	00000000 	andeq	r0, r0, r0
    a6d4:	43415254 	movtmi	r5, #4692	; 0x1254
    a6d8:	55533a45 	ldrbpl	r3, [r3, #-2629]	; 0xfffff5bb
    a6dc:	53454343 	movtpl	r4, #21315	; 0x5343
    a6e0:	65682053 	strbvs	r2, [r8, #-83]!	; 0xffffffad
    a6e4:	63207061 			; <UNDEFINED> instruction: 0x63207061
    a6e8:	6b636568 	blvs	18e3c90 <__bss_end__+0x18d8900>
    a6ec:	6f206465 	svcvs	0x00206465
    a6f0:	000a7475 	andeq	r7, sl, r5, ror r4

0000a6f4 <__FUNCTION__.4028>:
    a6f4:	6d746f6e 	ldclvs	15, cr6, [r4, #-440]!	; 0xfffffe48
    a6f8:	006e6961 	rsbeq	r6, lr, r1, ror #18
    a6fc:	6e756f66 	cdpvs	15, 7, cr6, cr5, cr6, {3}
    a700:	70252064 	eorvc	r2, r5, r4, rrx
    a704:	206e6920 	rsbcs	r6, lr, r0, lsr #18
    a708:	000a7025 	andeq	r7, sl, r5, lsr #32
    a70c:	253a7325 	ldrcs	r7, [sl, #-805]!	; 0xfffffcdb
    a710:	64253a73 	strtvs	r3, [r5], #-2675	; 0xfffff58d
    a714:	0000003a 	andeq	r0, r0, sl, lsr r0
    a718:	65657266 	strbvs	r7, [r5, #-614]!	; 0xfffffd9a
    a71c:	20676e69 	rsbcs	r6, r7, r9, ror #28
    a720:	0a702509 	beq	1c13b4c <__bss_end__+0x1c087bc>
    a724:	00000000 	andeq	r0, r0, r0
    a728:	5f434f4c 	svcpl	0x00434f4c
    a72c:	494e4150 	stmdbmi	lr, {r4, r6, r8, lr}^
    a730:	25203a43 	strcs	r3, [r0, #-2627]!	; 0xfffff5bd
    a734:	73253a73 			; <UNDEFINED> instruction: 0x73253a73
    a738:	3a64253a 	bcc	1913c28 <__bss_end__+0x1908898>
    a73c:	00000000 	andeq	r0, r0, r0
    a740:	65657266 	strbvs	r7, [r5, #-614]!	; 0xfffffd9a
    a744:	20676e69 	rsbcs	r6, r7, r9, ror #28
    a748:	6c616e75 	stclvs	14, cr6, [r1], #-468	; 0xfffffe2c
    a74c:	61636f6c 	cmnvs	r3, ip, ror #30
    a750:	20646574 	rsbcs	r6, r4, r4, ror r5
    a754:	6f6d656d 	svcvs	0x006d656d
    a758:	203a7972 	eorscs	r7, sl, r2, ror r9
    a75c:	74617473 	strbtvc	r7, [r1], #-1139	; 0xfffffb8d
    a760:	64253d65 	strtvs	r3, [r5], #-3429	; 0xfffff29b
    a764:	0000000a 	andeq	r0, r0, sl
    a768:	7a646572 	bvc	1923d38 <__bss_end__+0x19189a8>
    a76c:	20656e6f 	rsbcs	r6, r5, pc, ror #28
    a770:	77203123 	strvc	r3, [r0, -r3, lsr #2]!
    a774:	63207361 			; <UNDEFINED> instruction: 0x63207361
    a778:	7572726f 	ldrbvc	r7, [r2, #-623]!	; 0xfffffd91
    a77c:	64657470 	strbtvs	r7, [r5], #-1136	; 0xfffffb90
    a780:	00000a21 	andeq	r0, r0, r1, lsr #20
    a784:	7a646572 	bvc	1923d54 <__bss_end__+0x19189c4>
    a788:	20656e6f 	rsbcs	r6, r5, pc, ror #28
    a78c:	77203223 	strvc	r3, [r0, -r3, lsr #4]!
    a790:	63207361 			; <UNDEFINED> instruction: 0x63207361
    a794:	7572726f 	ldrbvc	r7, [r2, #-623]!	; 0xfffffd91
    a798:	64657470 	strbtvs	r7, [r5], #-1136	; 0xfffffb90
    a79c:	00000a21 	andeq	r0, r0, r1, lsr #20
    a7a0:	6c616b63 			; <UNDEFINED> instruction: 0x6c616b63
    a7a4:	2e636f6c 	cdpcs	15, 6, cr6, cr3, cr12, {3}
    a7a8:	00000063 	andeq	r0, r0, r3, rrx
    a7ac:	494e4150 	stmdbmi	lr, {r4, r6, r8, lr}^
    a7b0:	73253a43 			; <UNDEFINED> instruction: 0x73253a43
    a7b4:	3a73253a 	bcc	1cd3ca4 <__bss_end__+0x1cc8914>
    a7b8:	253a6425 	ldrcs	r6, [sl, #-1061]!	; 0xfffffbdb
    a7bc:	00000a73 	andeq	r0, r0, r3, ror sl
    a7c0:	705f6b63 	subsvc	r6, pc, r3, ror #22
    a7c4:	695f7274 	ldmdbvs	pc, {r2, r4, r5, r6, r9, ip, sp, lr}^	; <UNPREDICTABLE>
    a7c8:	6c615f73 	stclvs	15, cr5, [r1], #-460	; 0xfffffe34
    a7cc:	65636f6c 	strbvs	r6, [r3, #-3948]!	; 0xfffff094
    a7d0:	64612864 	strbtvs	r2, [r1], #-2148	; 0xfffff79c
    a7d4:	00297264 	eoreq	r7, r9, r4, ror #4
    a7d8:	6f6c6c61 	svcvs	0x006c6c61
    a7dc:	69746163 	ldmdbvs	r4!, {r0, r1, r5, r6, r8, sp, lr}^
    a7e0:	2520676e 	strcs	r6, [r0, #-1902]!	; 0xfffff892
    a7e4:	25282070 	strcs	r2, [r8, #-112]!	; 0xffffff90
    a7e8:	79622064 	stmdbvc	r2!, {r2, r5, r6, sp}^
    a7ec:	29736574 	ldmdbcs	r3!, {r2, r4, r5, r6, r8, sl, sp, lr}^
    a7f0:	0000000a 	andeq	r0, r0, sl

0000a7f4 <__FUNCTION__.4081>:
    a7f4:	72666b63 	rsbvc	r6, r6, #101376	; 0x18c00
    a7f8:	00006565 	andeq	r6, r0, r5, ror #10
    a7fc:	75716552 	ldrbvc	r6, [r1, #-1362]!	; 0xfffffaae
    a800:	74737265 	ldrbtvc	r7, [r3], #-613	; 0xfffffd9b
    a804:	20676e69 	rsbcs	r6, r7, r9, ror #28
    a808:	65726f6d 	ldrbvs	r6, [r2, #-3949]!	; 0xfffff093
    a80c:	6d656d20 	stclvs	13, cr6, [r5, #-128]!	; 0xffffff80
    a810:	2079726f 	rsbscs	r7, r9, pc, ror #4
    a814:	29642528 	stmdbcs	r4!, {r3, r5, r8, sl, sp}^
    a818:	0a2e2e2e 	beq	b960d8 <__bss_end__+0xb8ad48>
    a81c:	00000000 	andeq	r0, r0, r0
    a820:	672d6b63 	strvs	r6, [sp, -r3, ror #22]!
    a824:	00632e63 	rsbeq	r2, r3, r3, ror #28
    a828:	203c2070 	eorscs	r2, ip, r0, ror r0
    a82c:	00000065 	andeq	r0, r0, r5, rrx
    a830:	67696c61 	strbvs	r6, [r9, -r1, ror #24]!
    a834:	2864656e 	stmdacs	r4!, {r1, r2, r3, r5, r6, r8, sl, sp, lr}^
    a838:	34202c70 	strtcc	r2, [r0], #-3184	; 0xfffff390
    a83c:	00000029 	andeq	r0, r0, r9, lsr #32
    a840:	67696c61 	strbvs	r6, [r9, -r1, ror #24]!
    a844:	2864656e 	stmdacs	r4!, {r1, r2, r3, r5, r6, r8, sl, sp, lr}^
    a848:	34202c65 	strtcc	r2, [r0], #-3173	; 0xfffff39b
    a84c:	00000029 	andeq	r0, r0, r9, lsr #32
    a850:	6e696f67 	cdpvs	15, 6, cr6, cr9, cr7, {3}
    a854:	6f742067 	svcvs	0x00742067
    a858:	72616d20 	rsbvc	r6, r1, #32, 26	; 0x800
    a85c:	7025206b 	eorvc	r2, r5, fp, rrx
    a860:	20692820 	rsbcs	r2, r9, r0, lsr #16
    a864:	70252040 	eorvc	r2, r5, r0, asr #32
    a868:	25203d20 	strcs	r3, [r0, #-3360]!	; 0xfffff2e0
    a86c:	202c2970 	eorcs	r2, ip, r0, ror r9
    a870:	20707865 	rsbscs	r7, r0, r5, ror #16
    a874:	7025203d 	eorvc	r2, r5, sp, lsr r0
    a878:	0000000a 	andeq	r0, r0, sl
    a87c:	6b72616d 	blvs	1ca2e38 <__bss_end__+0x1c97aa8>
    a880:	20676e69 	rsbcs	r6, r7, r9, ror #28
    a884:	25207361 	strcs	r7, [r0, #-865]!	; 0xfffffc9f
    a888:	00000a64 	andeq	r0, r0, r4, ror #20
    a88c:	20746f6e 	rsbscs	r6, r4, lr, ror #30
    a890:	6b72616d 	blvs	1ca2e4c <__bss_end__+0x1c97abc>
    a894:	21676e69 	cmncs	r7, r9, ror #28
    a898:	0000000a 	andeq	r0, r0, sl
    a89c:	63656863 	cmnvs	r5, #6488064	; 0x630000
    a8a0:	676e696b 	strbvs	r6, [lr, -fp, ror #18]!
    a8a4:	61747320 	cmnvs	r4, r0, lsr #6
    a8a8:	203a6b63 	eorscs	r6, sl, r3, ror #22
    a8ac:	74207025 	strtvc	r7, [r0], #-37	; 0xffffffdb
    a8b0:	7025206f 	eorvc	r2, r5, pc, rrx
    a8b4:	0000000a 	andeq	r0, r0, sl
    a8b8:	2d2d2d2d 	stccs	13, cr2, [sp, #-180]!	; 0xffffff4c
    a8bc:	2d2d2d2d 	stccs	13, cr2, [sp, #-180]!	; 0xffffff4c
    a8c0:	2d2d2d2d 	stccs	13, cr2, [sp, #-180]!	; 0xffffff4c
    a8c4:	2d2d2d2d 	stccs	13, cr2, [sp, #-180]!	; 0xffffff4c
    a8c8:	2d2d2d2d 	stccs	13, cr2, [sp, #-180]!	; 0xffffff4c
    a8cc:	2d2d2d2d 	stccs	13, cr2, [sp, #-180]!	; 0xffffff4c
    a8d0:	2d2d2d2d 	stccs	13, cr2, [sp, #-180]!	; 0xffffff4c
    a8d4:	2d2d2d2d 	stccs	13, cr2, [sp, #-180]!	; 0xffffff4c
    a8d8:	2d2d2d2d 	stccs	13, cr2, [sp, #-180]!	; 0xffffff4c
    a8dc:	2d2d2d2d 	stccs	13, cr2, [sp, #-180]!	; 0xffffff4c
    a8e0:	2d2d2d2d 	stccs	13, cr2, [sp, #-180]!	; 0xffffff4c
    a8e4:	2d2d2d2d 	stccs	13, cr2, [sp, #-180]!	; 0xffffff4c
    a8e8:	2d2d2d2d 	stccs	13, cr2, [sp, #-180]!	; 0xffffff4c
    a8ec:	2d2d2d2d 	stccs	13, cr2, [sp, #-180]!	; 0xffffff4c
    a8f0:	00000a2d 	andeq	r0, r0, sp, lsr #20
    a8f4:	63656863 	cmnvs	r5, #6488064	; 0x630000
    a8f8:	676e696b 	strbvs	r6, [lr, -fp, ror #18]!
    a8fc:	726f6620 	rsbvc	r6, pc, #32, 12	; 0x2000000
    a900:	61656c20 	cmnvs	r5, r0, lsr #24
    a904:	0a3a736b 	beq	ea76b8 <__bss_end__+0xe9c328>
    a908:	00000000 	andeq	r0, r0, r0
    a90c:	4c3a4347 	ldcmi	3, cr4, [sl], #-284	; 0xfffffee4
    a910:	2054534f 	subscs	r5, r4, pc, asr #6
    a914:	2d206425 	cfstrscs	mvf6, [r0, #-148]!	; 0xffffff6c
    a918:	7025203e 	eorvc	r2, r5, lr, lsr r0
    a91c:	0000000a 	andeq	r0, r0, sl
    a920:	4d3a4347 	ldcmi	3, cr4, [sl, #-284]!	; 0xfffffee4
    a924:	45425941 	strbmi	r5, [r2, #-2369]	; 0xfffff6bf
    a928:	534f4c20 	movtpl	r4, #64544	; 0xfc20
    a92c:	64252054 	strtvs	r2, [r5], #-84	; 0xffffffac
    a930:	203e2d20 	eorscs	r2, lr, r0, lsr #26
    a934:	000a7025 	andeq	r7, sl, r5, lsr #32
    a938:	43415254 	movtmi	r5, #4692	; 0x1254
    a93c:	47093a45 	strmi	r3, [r9, -r5, asr #20]
    a940:	68433a43 	stmdavs	r3, {r0, r1, r6, r9, fp, ip, sp}^
    a944:	656b6365 	strbvs	r6, [fp, #-869]!	; 0xfffffc9b
    a948:	64252064 	strtvs	r2, [r5], #-100	; 0xffffff9c
    a94c:	6f6c6220 	svcvs	0x006c6220
    a950:	2e736b63 	vsubcs.f64	d22, d3, d19
    a954:	0000000a 	andeq	r0, r0, sl
    a958:	43415254 	movtmi	r5, #4692	; 0x1254
    a95c:	09093a45 	stmdbeq	r9, {r0, r2, r6, r9, fp, ip, sp}
    a960:	533a4347 	teqpl	sl, #469762049	; 0x1c000001
    a964:	45434355 	strbmi	r4, [r3, #-853]	; 0xfffffcab
    a968:	203a5353 	eorscs	r5, sl, r3, asr r3
    a96c:	6c206f4e 	stcvs	15, cr6, [r0], #-312	; 0xfffffec8
    a970:	736b6165 	cmnvc	fp, #1073741849	; 0x40000019
    a974:	756f6620 	strbvc	r6, [pc, #-1568]!	; a35c <kfree_all+0xc>
    a978:	0a21646e 	beq	863b38 <__bss_end__+0x8587a8>
    a97c:	00000000 	andeq	r0, r0, r0
    a980:	43415254 	movtmi	r5, #4692	; 0x1254
    a984:	09093a45 	stmdbeq	r9, {r0, r2, r6, r9, fp, ip, sp}
    a988:	453a4347 	ldrmi	r4, [sl, #-839]!	; 0xfffffcb9
    a98c:	524f5252 	subpl	r5, pc, #536870917	; 0x20000005
    a990:	25203a53 	strcs	r3, [r0, #-2643]!	; 0xfffff5ad
    a994:	72652064 	rsbvc	r2, r5, #100, 0	; 0x64
    a998:	73726f72 	cmnvc	r2, #456	; 0x1c8
    a99c:	6425202c 	strtvs	r2, [r5], #-44	; 0xffffffd4
    a9a0:	79616d20 	stmdbvc	r1!, {r5, r8, sl, fp, sp, lr}^
    a9a4:	655f6562 	ldrbvs	r6, [pc, #-1378]	; a44a <gpio_set_output+0x26>
    a9a8:	726f7272 	rsbvc	r7, pc, #536870919	; 0x20000007
    a9ac:	00000a73 	andeq	r0, r0, r3, ror sl
    a9b0:	2d2d2d2d 	stccs	13, cr2, [sp, #-180]!	; 0xffffff4c
    a9b4:	2d2d2d2d 	stccs	13, cr2, [sp, #-180]!	; 0xffffff4c
    a9b8:	2d2d2d2d 	stccs	13, cr2, [sp, #-180]!	; 0xffffff4c
    a9bc:	2d2d2d2d 	stccs	13, cr2, [sp, #-180]!	; 0xffffff4c
    a9c0:	2d2d2d2d 	stccs	13, cr2, [sp, #-180]!	; 0xffffff4c
    a9c4:	2d2d2d2d 	stccs	13, cr2, [sp, #-180]!	; 0xffffff4c
    a9c8:	2d2d2d2d 	stccs	13, cr2, [sp, #-180]!	; 0xffffff4c
    a9cc:	2d2d2d2d 	stccs	13, cr2, [sp, #-180]!	; 0xffffff4c
    a9d0:	2d2d2d2d 	stccs	13, cr2, [sp, #-180]!	; 0xffffff4c
    a9d4:	2d2d2d2d 	stccs	13, cr2, [sp, #-180]!	; 0xffffff4c
    a9d8:	2d2d2d2d 	stccs	13, cr2, [sp, #-180]!	; 0xffffff4c
    a9dc:	2d2d2d2d 	stccs	13, cr2, [sp, #-180]!	; 0xffffff4c
    a9e0:	2d2d2d2d 	stccs	13, cr2, [sp, #-180]!	; 0xffffff4c
    a9e4:	2d2d2d2d 	stccs	13, cr2, [sp, #-180]!	; 0xffffff4c
    a9e8:	000a2d2d 	andeq	r2, sl, sp, lsr #26
    a9ec:	706d6f63 	rsbvc	r6, sp, r3, ror #30
    a9f0:	69746361 	ldmdbvs	r4!, {r0, r5, r6, r8, r9, sp, lr}^
    a9f4:	0a3a676e 	beq	ea47b4 <__bss_end__+0xe99424>
    a9f8:	00000000 	andeq	r0, r0, r0
    a9fc:	463a4347 	ldrtmi	r4, [sl], -r7, asr #6
    aa00:	44454552 	strbmi	r4, [r5], #-1362	; 0xfffffaae
    aa04:	0a702520 	beq	1c13e8c <__bss_end__+0x1c08afc>
    aa08:	00000000 	andeq	r0, r0, r0
    aa0c:	43415254 	movtmi	r5, #4692	; 0x1254
    aa10:	47093a45 	strmi	r3, [r9, -r5, asr #20]
    aa14:	68433a43 	stmdavs	r3, {r0, r1, r6, r9, fp, ip, sp}^
    aa18:	656b6365 	strbvs	r6, [fp, #-869]!	; 0xfffffc9b
    aa1c:	64252064 	strtvs	r2, [r5], #-100	; 0xffffff9c
    aa20:	6f6c6220 	svcvs	0x006c6220
    aa24:	2c736b63 			; <UNDEFINED> instruction: 0x2c736b63
    aa28:	65726620 	ldrbvs	r6, [r2, #-1568]!	; 0xfffff9e0
    aa2c:	25206465 	strcs	r6, [r0, #-1125]!	; 0xfffffb9b
    aa30:	25202c64 	strcs	r2, [r0, #-3172]!	; 0xfffff39c
    aa34:	79622064 	stmdbvc	r2!, {r2, r5, r6, sp}^
    aa38:	0a736574 	beq	1ce4010 <__bss_end__+0x1cd8c80>
    aa3c:	00000000 	andeq	r0, r0, r0
    aa40:	72636e69 	rsbvc	r6, r3, #1680	; 0x690
    aa44:	6e656d65 	cdpvs	13, 6, cr6, cr5, cr5, {3}
    aa48:	203e2074 	eorscs	r2, lr, r4, ror r0
    aa4c:	00000030 	andeq	r0, r0, r0, lsr r0
    aa50:	494e4150 	stmdbmi	lr, {r4, r6, r8, lr}^
    aa54:	73253a43 			; <UNDEFINED> instruction: 0x73253a43
    aa58:	3a73253a 	bcc	1cd3f48 <__bss_end__+0x1cc8bb8>
    aa5c:	6e3a6425 	cdpvs	4, 3, cr6, cr10, cr5, {1}
    aa60:	6820746f 	stmdavs	r0!, {r0, r1, r2, r3, r5, r6, sl, ip, sp, lr}
    aa64:	6c646e61 	stclvs	14, cr6, [r4], #-388	; 0xfffffe7c
    aa68:	0a676e69 	beq	19e6414 <__bss_end__+0x19db084>
    aa6c:	0000000a 	andeq	r0, r0, sl
    aa70:	73696874 	cmnvc	r9, #116, 16	; 0x740000
    aa74:	6c6c6120 	stfvse	f6, [ip], #-128	; 0xffffff80
    aa78:	7461636f 	strbtvc	r6, [r1], #-879	; 0xfffffc91
    aa7c:	276e6f69 	strbcs	r6, [lr, -r9, ror #30]!
    aa80:	65722073 	ldrbvs	r2, [r2, #-115]!	; 0xffffff8d
    aa84:	6e6f7a64 	vnmulvs.f32	s15, s30, s9
    aa88:	77207365 	strvc	r7, [r0, -r5, ror #6]!
    aa8c:	20657265 	rsbcs	r7, r5, r5, ror #4
    aa90:	74697277 	strbtvc	r7, [r9], #-631	; 0xfffffd89
    aa94:	206e6574 	rsbcs	r6, lr, r4, ror r5
    aa98:	0a216f74 	beq	866870 <__bss_end__+0x85b4e0>
    aa9c:	00000000 	andeq	r0, r0, r0
    aaa0:	20736177 	rsbscs	r6, r3, r7, ror r1
    aaa4:	64657375 	strbtvs	r7, [r5], #-885	; 0xfffffc8b
    aaa8:	74666120 	strbtvc	r6, [r6], #-288	; 0xfffffee0
    aaac:	66207265 	strtvs	r7, [r0], -r5, ror #4
    aab0:	21656572 	smccs	22098	; 0x5652
    aab4:	0000000a 	andeq	r0, r0, sl
    aab8:	494e4150 	stmdbmi	lr, {r4, r6, r8, lr}^
    aabc:	73253a43 			; <UNDEFINED> instruction: 0x73253a43
    aac0:	3a73253a 	bcc	1cd3fb0 <__bss_end__+0x1cc8c20>
    aac4:	473a6425 	ldrmi	r6, [sl, -r5, lsr #8]!
    aac8:	73203a43 			; <UNDEFINED> instruction: 0x73203a43
    aacc:	6c756f68 	ldclvs	15, cr6, [r5], #-416	; 0xfffffe60
    aad0:	61682064 	cmnvs	r8, r4, rrx
    aad4:	6e206576 	mcrvs	5, 1, r6, cr0, cr6, {3}
    aad8:	656c206f 	strbvs	r2, [ip, #-111]!	; 0xffffff91
    aadc:	21736b61 	cmncs	r3, r1, ror #22
    aae0:	00000a0a 	andeq	r0, r0, sl, lsl #20
    aae4:	43415254 	movtmi	r5, #4692	; 0x1254
    aae8:	43473a45 	movtmi	r3, #31301	; 0x7a45
    aaec:	5553203a 	ldrbpl	r2, [r3, #-58]	; 0xffffffc6
    aaf0:	53454343 	movtpl	r4, #21315	; 0x5343
    aaf4:	6e203a53 			; <UNDEFINED> instruction: 0x6e203a53
    aaf8:	656c206f 	strbvs	r2, [ip, #-111]!	; 0xffffff91
    aafc:	21736b61 	cmncs	r3, r1, ror #22
    ab00:	0000000a 	andeq	r0, r0, sl
    ab04:	494e4150 	stmdbmi	lr, {r4, r6, r8, lr}^
    ab08:	73253a43 			; <UNDEFINED> instruction: 0x73253a43
    ab0c:	3a73253a 	bcc	1cd3ffc <__bss_end__+0x1cc8c6c>
    ab10:	473a6425 	ldrmi	r6, [sl, -r5, lsr #8]!
    ab14:	73203a43 			; <UNDEFINED> instruction: 0x73203a43
    ab18:	6c756f68 	ldclvs	15, cr6, [r5], #-416	; 0xfffffe60
    ab1c:	61682064 	cmnvs	r8, r4, rrx
    ab20:	6c206576 	cfstr32vs	mvfx6, [r0], #-472	; 0xfffffe28
    ab24:	736b6165 	cmnvc	fp, #1073741849	; 0x40000019
    ab28:	000a0a21 	andeq	r0, sl, r1, lsr #20
    ab2c:	43415254 	movtmi	r5, #4692	; 0x1254
    ab30:	43473a45 	movtmi	r3, #31301	; 0x7a45
    ab34:	5553203a 	ldrbpl	r2, [r3, #-58]	; 0xffffffc6
    ab38:	53454343 	movtpl	r4, #21315	; 0x5343
    ab3c:	66203a53 			; <UNDEFINED> instruction: 0x66203a53
    ab40:	646e756f 	strbtvs	r7, [lr], #-1391	; 0xfffffa91
    ab44:	20642520 	rsbcs	r2, r4, r0, lsr #10
    ab48:	6b61656c 	blvs	1864100 <__bss_end__+0x1858d70>
    ab4c:	000a2173 	andeq	r2, sl, r3, ror r1
    ab50:	494e4150 	stmdbmi	lr, {r4, r6, r8, lr}^
    ab54:	73253a43 			; <UNDEFINED> instruction: 0x73253a43
    ab58:	3a73253a 	bcc	1cd4048 <__bss_end__+0x1cc8cb8>
    ab5c:	643a6425 	ldrtvs	r6, [sl], #-1061	; 0xfffffbdb
    ab60:	6e206469 	cdpvs	4, 2, cr6, cr0, cr9, {3}
    ab64:	6920746f 	stmdbvs	r0!, {r0, r1, r2, r3, r5, r6, sl, ip, sp, lr}
    ab68:	656c706d 	strbvs	r7, [ip, #-109]!	; 0xffffff93
    ab6c:	746e656d 	strbtvc	r6, [lr], #-1389	; 0xfffffa93
    ab70:	6d756420 	cfldrdvs	mvd6, [r5, #-128]!	; 0xffffff80
    ab74:	65725f70 	ldrbvs	r5, [r2, #-3952]!	; 0xfffff090
    ab78:	0a217367 	beq	86791c <__bss_end__+0x85c58c>
    ab7c:	0000000a 	andeq	r0, r0, sl

0000ab80 <__FUNCTION__.4049>:
    ab80:	6b72616d 	blvs	1ca313c <__bss_end__+0x1c97dac>
    ab84:	00000000 	andeq	r0, r0, r0

0000ab88 <__FUNCTION__.4123>:
    ab88:	65657773 	strbvs	r7, [r5, #-1907]!	; 0xfffff88d
    ab8c:	72665f70 	rsbvc	r5, r6, #112, 30	; 0x1c0
    ab90:	00006565 	andeq	r6, r0, r5, ror #10

0000ab94 <__FUNCTION__.4036>:
    ab94:	6b726273 	blvs	1ca3568 <__bss_end__+0x1c981d8>
    ab98:	00000000 	andeq	r0, r0, r0

0000ab9c <__FUNCTION__.4110>:
    ab9c:	63656863 	cmnvs	r5, #6488064	; 0x630000
    aba0:	6f6e5f6b 	svcvs	0x006e5f6b
    aba4:	61656c5f 	cmnvs	r5, pc, asr ip
    aba8:	0000006b 	andeq	r0, r0, fp, rrx

0000abac <__FUNCTION__.4115>:
    abac:	63656863 	cmnvs	r5, #6488064	; 0x630000
    abb0:	68735f6b 	ldmdavs	r3!, {r0, r1, r3, r5, r6, r8, r9, sl, fp, ip, lr}^
    abb4:	646c756f 	strbtvs	r7, [ip], #-1391	; 0xfffffa91
    abb8:	61656c5f 	cmnvs	r5, pc, asr ip
    abbc:	0000006b 	andeq	r0, r0, fp, rrx

0000abc0 <__FUNCTION__.4134>:
    abc0:	6c706d69 	ldclvs	13, cr6, [r0], #-420	; 0xfffffe5c
    abc4:	6e656d65 	cdpvs	13, 6, cr6, cr5, cr5, {3}
    abc8:	68745f74 	ldmdavs	r4!, {r2, r4, r5, r6, r8, r9, sl, fp, ip, lr}^
    abcc:	00007369 	andeq	r7, r0, r9, ror #6
    abd0:	003f3f3f 	eorseq	r3, pc, pc, lsr pc	; <UNPREDICTABLE>
    abd4:	20642523 	rsbcs	r2, r4, r3, lsr #10
    abd8:	28207825 	stmdacs	r0!, {r0, r2, r5, fp, ip, sp, lr}
    abdc:	0a297325 	beq	a67878 <__bss_end__+0xa5c4e8>
    abe0:	00000000 	andeq	r0, r0, r0
    abe4:	696c2f2e 	stmdbvs	ip!, {r1, r2, r3, r5, r8, r9, sl, fp, sp}^
    abe8:	762f6362 	strtvc	r6, [pc], -r2, ror #6
    abec:	72702d61 	rsbsvc	r2, r0, #6208	; 0x1840
    abf0:	6b746e69 	blvs	1d2659c <__bss_end__+0x1d1b20c>
    abf4:	0000632e 	andeq	r6, r0, lr, lsr #6
    abf8:	33323130 	teqcc	r2, #12
    abfc:	37363534 			; <UNDEFINED> instruction: 0x37363534
    ac00:	62613938 	rsbvs	r3, r1, #56, 18	; 0xe0000
    ac04:	66656463 	strbtvs	r6, [r5], -r3, ror #8
    ac08:	00000000 	andeq	r0, r0, r0
    ac0c:	00003130 	andeq	r3, r0, r0, lsr r1
    ac10:	33323130 	teqcc	r2, #12
    ac14:	37363534 			; <UNDEFINED> instruction: 0x37363534
    ac18:	00003938 	andeq	r3, r0, r8, lsr r9
    ac1c:	63747570 	cmnvs	r4, #112, 10	; 0x1c000000
    ac20:	0070665f 	rsbseq	r6, r0, pc, asr r6
    ac24:	74646977 	strbtvc	r6, [r4], #-2423	; 0xfffff689
    ac28:	203c2068 	eorscs	r2, ip, r8, rrx
    ac2c:	00003233 	andeq	r3, r0, r3, lsr r2
    ac30:	00786c6c 	rsbseq	r6, r8, ip, ror #24
    ac34:	253d3078 	ldrcs	r3, [sp, #-120]!	; 0xffffff88
    ac38:	00000a78 	andeq	r0, r0, r8, ror sl
    ac3c:	253d3178 	ldrcs	r3, [sp, #-376]!	; 0xfffffe88
    ac40:	00000a78 	andeq	r0, r0, r8, ror sl
    ac44:	00646c6c 	rsbeq	r6, r4, ip, ror #24
    ac48:	6e727473 	mrcvs	4, 3, r7, cr2, cr3, {3}
    ac4c:	28706d63 	ldmdacs	r0!, {r0, r1, r5, r6, r8, sl, fp, sp, lr}^
    ac50:	202c7974 	eorcs	r7, ip, r4, ror r9
    ac54:	786c6c22 	stmdavc	ip!, {r1, r5, sl, fp, sp, lr}^
    ac58:	33202c22 			; <UNDEFINED> instruction: 0x33202c22
    ac5c:	3d3d2029 	ldccc	0, cr2, [sp, #-164]!	; 0xffffff5c
    ac60:	7c203020 	stcvc	0, cr3, [r0], #-128	; 0xffffff80
    ac64:	7473207c 	ldrbtvc	r2, [r3], #-124	; 0xffffff84
    ac68:	6d636e72 	stclvs	14, cr6, [r3, #-456]!	; 0xfffffe38
    ac6c:	79742870 	ldmdbvc	r4!, {r4, r5, r6, fp, sp}^
    ac70:	6c22202c 	stcvs	0, cr2, [r2], #-176	; 0xffffff50
    ac74:	2c22646c 	cfstrscs	mvf6, [r2], #-432	; 0xfffffe50
    ac78:	20293320 	eorcs	r3, r9, r0, lsr #6
    ac7c:	30203d3d 	eorcc	r3, r0, sp, lsr sp
    ac80:	00000000 	andeq	r0, r0, r0
    ac84:	494e4150 	stmdbmi	lr, {r4, r6, r8, lr}^
    ac88:	73253a43 			; <UNDEFINED> instruction: 0x73253a43
    ac8c:	3a73253a 	bcc	1cd417c <__bss_end__+0x1cc8dec>
    ac90:	693a6425 	ldmdbvs	sl!, {r0, r2, r5, sl, sp, lr}
    ac94:	736f706d 	cmnvc	pc, #109, 0	; 0x6d
    ac98:	6c626973 			; <UNDEFINED> instruction: 0x6c626973
    ac9c:	66203a65 	strtvs	r3, [r0], -r5, ror #20
    aca0:	3c3d746d 	cfldrscc	mvf7, [sp], #-436	; 0xfffffe4c
    aca4:	0a3e7325 	beq	fa7940 <__bss_end__+0xf9c5b0>
    aca8:	0000000a 	andeq	r0, r0, sl
    acac:	494e4150 	stmdbmi	lr, {r4, r6, r8, lr}^
    acb0:	73253a43 			; <UNDEFINED> instruction: 0x73253a43
    acb4:	3a73253a 	bcc	1cd41a4 <__bss_end__+0x1cc8e14>
    acb8:	663a6425 	ldrtvs	r6, [sl], -r5, lsr #8
    acbc:	74616f6c 	strbtvc	r6, [r1], #-3948	; 0xfffff094
    acc0:	746f6e20 	strbtvc	r6, [pc], #-3616	; acc8 <__FUNCTION__.4134+0x108>
    acc4:	616e6520 	cmnvs	lr, r0, lsr #10
    acc8:	64656c62 	strbtvs	r6, [r5], #-3170	; 0xfffff39e
    accc:	0a212121 	beq	853158 <__bss_end__+0x847dc8>
    acd0:	00000000 	andeq	r0, r0, r0
    acd4:	6e697270 	mcrvs	2, 3, r7, cr9, cr0, {3}
    acd8:	203a6b74 	eorscs	r6, sl, r4, ror fp
    acdc:	20746f6e 	rsbscs	r6, r4, lr, ror #30
    ace0:	646e6168 	strbtvs	r6, [lr], #-360	; 0xfffffe98
    ace4:	676e696c 	strbvs	r6, [lr, -ip, ror #18]!
    ace8:	65707320 	ldrbvs	r7, [r0, #-800]!	; 0xfffffce0
    acec:	69666963 	stmdbvs	r6!, {r0, r1, r5, r6, r8, fp, sp, lr}^
    acf0:	27207265 	strcs	r7, [r0, -r5, ror #4]!
    acf4:	20276325 	eorcs	r6, r7, r5, lsr #6
    acf8:	63736128 	cmnvs	r3, #10
    acfc:	253d6969 	ldrcs	r6, [sp, #-2409]!	; 0xfffff697
    ad00:	000a2964 	andeq	r2, sl, r4, ror #18
    ad04:	494e4150 	stmdbmi	lr, {r4, r6, r8, lr}^
    ad08:	73253a43 			; <UNDEFINED> instruction: 0x73253a43
    ad0c:	3a73253a 	bcc	1cd41fc <__bss_end__+0x1cc8e6c>
    ad10:	703a6425 	eorsvc	r6, sl, r5, lsr #8
    ad14:	746e6972 	strbtvc	r6, [lr], #-2418	; 0xfffff68e
    ad18:	7265206b 	rsbvc	r2, r5, #107, 0	; 0x6b
    ad1c:	0a726f72 	beq	1ca6aec <__bss_end__+0x1c9b75c>
    ad20:	0000000a 	andeq	r0, r0, sl

0000ad24 <__FUNCTION__.4004>:
    ad24:	74696d65 	strbtvc	r6, [r9], #-3429	; 0xfffff29b
    ad28:	00000000 	andeq	r0, r0, r0

0000ad2c <__FUNCTION__.3952>:
    ad2c:	5f697072 	svcpl	0x00697072
    ad30:	5f746573 	svcpl	0x00746573
    ad34:	7074756f 	rsbsvc	r7, r4, pc, ror #10
    ad38:	00007475 	andeq	r7, r0, r5, ror r4

0000ad3c <__FUNCTION__.4030>:
    ad3c:	705f6176 	subsvc	r6, pc, r6, ror r1	; <UNPREDICTABLE>
    ad40:	746e6972 	strbtvc	r6, [lr], #-2418	; 0xfffff68e
    ad44:	0000006b 	andeq	r0, r0, fp, rrx
    ad48:	454e4f44 	strbmi	r4, [lr, #-3908]	; 0xfffff0bc
    ad4c:	0a212121 	beq	8531d8 <__bss_end__+0x847e48>
    ad50:	00000000 	andeq	r0, r0, r0
    ad54:	6c616d6b 	stclvs	13, cr6, [r1], #-428	; 0xfffffe54
    ad58:	2e636f6c 	cdpcs	15, 6, cr6, cr3, cr12, {3}
    ad5c:	00000063 	andeq	r0, r0, r3, rrx
    ad60:	5f78616d 	svcpl	0x0078616d
    ad64:	7479626e 	ldrbtvc	r6, [r9], #-622	; 0xfffffd92
    ad68:	00007365 	andeq	r7, r0, r5, ror #6
    ad6c:	494e4150 	stmdbmi	lr, {r4, r6, r8, lr}^
    ad70:	73253a43 			; <UNDEFINED> instruction: 0x73253a43
    ad74:	3a73253a 	bcc	1cd4264 <__bss_end__+0x1cc8ed4>
    ad78:	733a6425 	teqvc	sl, #620756992	; 0x25000000
    ad7c:	69747465 	ldmdbvs	r4!, {r0, r2, r5, r6, sl, ip, sp, lr}^
    ad80:	6820676e 	stmdavs	r0!, {r1, r2, r3, r5, r6, r8, r9, sl, sp, lr}
    ad84:	20706165 	rsbscs	r6, r0, r5, ror #2
    ad88:	25206f74 	strcs	r6, [r0, #-3956]!	; 0xfffff08c
    ad8c:	77203a70 			; <UNDEFINED> instruction: 0x77203a70
    ad90:	206c6c69 	rsbcs	r6, ip, r9, ror #24
    ad94:	20746968 	rsbscs	r6, r4, r8, ror #18
    ad98:	20656874 	rsbcs	r6, r5, r4, ror r8
    ad9c:	20646c6f 	rsbcs	r6, r4, pc, ror #24
    ada0:	70616568 	rsbvc	r6, r1, r8, ror #10
    ada4:	20746120 	rsbscs	r6, r4, r0, lsr #2
    ada8:	0a0a7025 	beq	2a6e44 <__bss_end__+0x29bab4>
    adac:	00000000 	andeq	r0, r0, r0
    adb0:	494e4150 	stmdbmi	lr, {r4, r6, r8, lr}^
    adb4:	73253a43 			; <UNDEFINED> instruction: 0x73253a43
    adb8:	3a73253a 	bcc	1cd42a8 <__bss_end__+0x1cc8f18>
    adbc:	613a6425 	teqvs	sl, r5, lsr #8
    adc0:	6165726c 	cmnvs	r5, ip, ror #4
    adc4:	63207964 			; <UNDEFINED> instruction: 0x63207964
    adc8:	656c6c61 	strbvs	r6, [ip, #-3169]!	; 0xfffff39f
    adcc:	6d6b2064 	stclvs	0, cr2, [fp, #-400]!	; 0xfffffe70
    add0:	6f6c6c61 	svcvs	0x006c6c61
    add4:	6e695f63 	cdpvs	15, 6, cr5, cr9, cr3, {3}
    add8:	0a0a7469 	beq	2a7f84 <__bss_end__+0x29cbf4>
    addc:	00000000 	andeq	r0, r0, r0
    ade0:	494e4150 	stmdbmi	lr, {r4, r6, r8, lr}^
    ade4:	73253a43 			; <UNDEFINED> instruction: 0x73253a43
    ade8:	3a73253a 	bcc	1cd42d8 <__bss_end__+0x1cc8f48>
    adec:	253a6425 	ldrcs	r6, [sl, #-1061]!	; 0xfffffbdb
    adf0:	626e2064 	rsbvs	r2, lr, #100, 0	; 0x64
    adf4:	73657479 	cmnvc	r5, #2030043136	; 0x79000000
    adf8:	63786520 	cmnvs	r8, #32, 10	; 0x8000000
    adfc:	65646565 	strbvs	r6, [r4, #-1381]!	; 0xfffffa9b
    ae00:	69732064 	ldmdbvs	r3!, {r2, r5, r6, sp}^
    ae04:	6f20657a 	svcvs	0x0020657a
    ae08:	65682066 	strbvs	r2, [r8, #-102]!	; 0xffffff9a
    ae0c:	62207061 	eorvs	r7, r0, #97, 0	; 0x61
    ae10:	75252079 	strvc	r2, [r5, #-121]!	; 0xffffff87
    ae14:	79626e20 	stmdbvc	r2!, {r5, r9, sl, fp, sp, lr}^
    ae18:	0a736574 	beq	1ce43f0 <__bss_end__+0x1cd9060>
    ae1c:	0000000a 	andeq	r0, r0, sl
    ae20:	4f525245 	svcmi	0x00525245
    ae24:	73253a52 			; <UNDEFINED> instruction: 0x73253a52
    ae28:	3a73253a 	bcc	1cd4318 <__bss_end__+0x1cc8f88>
    ae2c:	203a6425 	eorscs	r6, sl, r5, lsr #8
    ae30:	534c4146 	movtpl	r4, #49478	; 0xc146
    ae34:	253c2845 	ldrcs	r2, [ip, #-2117]!	; 0xfffff7bb
    ae38:	3a293e73 	bcc	a5a80c <__bss_end__+0xa4f47c>
    ae3c:	73736120 	cmnvc	r3, #8
    ae40:	6e696d75 	mcrvs	13, 3, r6, cr9, cr5, {3}
    ae44:	6f702067 	svcvs	0x00702067
    ae48:	20726577 	rsbscs	r6, r2, r7, ror r5
    ae4c:	7420666f 	strtvc	r6, [r0], #-1647	; 0xfffff991
    ae50:	000a6f77 	andeq	r6, sl, r7, ror pc
    ae54:	705f7369 	subsvc	r7, pc, r9, ror #6
    ae58:	2832776f 	ldmdacs	r2!, {r0, r1, r2, r3, r5, r6, r8, r9, sl, ip, sp, lr}
    ae5c:	67696c61 	strbvs	r6, [r9, -r1, ror #24]!
    ae60:	6e656d6e 	cdpvs	13, 6, cr6, cr5, cr14, {3}
    ae64:	00002974 	andeq	r2, r0, r4, ror r9
    ae68:	705f7369 	subsvc	r7, pc, r9, ror #6
    ae6c:	2832776f 	ldmdacs	r2!, {r0, r1, r2, r3, r5, r6, r8, r9, sl, ip, sp, lr}
    ae70:	0000296e 	andeq	r2, r0, lr, ror #18
    ae74:	4f525245 	svcmi	0x00525245
    ae78:	73253a52 			; <UNDEFINED> instruction: 0x73253a52
    ae7c:	3a73253a 	bcc	1cd436c <__bss_end__+0x1cc8fdc>
    ae80:	203a6425 	eorscs	r6, sl, r5, lsr #8
    ae84:	534c4146 	movtpl	r4, #49478	; 0xc146
    ae88:	253c2845 	ldrcs	r2, [ip, #-2117]!	; 0xfffff7bb
    ae8c:	3a293e73 	bcc	a5a860 <__bss_end__+0xa4f4d0>
    ae90:	706d6920 	rsbvc	r6, sp, r0, lsr #18
    ae94:	6973736f 	ldmdbvs	r3!, {r0, r1, r2, r3, r5, r6, r8, r9, ip, sp, lr}^
    ae98:	0a656c62 	beq	1966028 <__bss_end__+0x195ac98>
    ae9c:	00000000 	andeq	r0, r0, r0
    aea0:	615f7369 	cmpvs	pc, r9, ror #6
    aea4:	6e67696c 	vnmulvs.f16	s13, s14, s25	; <UNPREDICTABLE>
    aea8:	68286465 	stmdavs	r8!, {r0, r2, r5, r6, sl, sp, lr}
    aeac:	6c61202c 	stclvs	0, cr2, [r1], #-176	; 0xffffff50
    aeb0:	6d6e6769 	stclvs	7, cr6, [lr, #-420]!	; 0xfffffe5c
    aeb4:	29746e65 	ldmdbcs	r4!, {r0, r2, r5, r6, r9, sl, fp, sp, lr}^
    aeb8:	00000000 	andeq	r0, r0, r0
    aebc:	494e4150 	stmdbmi	lr, {r4, r6, r8, lr}^
    aec0:	73253a43 			; <UNDEFINED> instruction: 0x73253a43
    aec4:	3a73253a 	bcc	1cd43b4 <__bss_end__+0x1cc9024>
    aec8:	703a6425 	eorsvc	r6, sl, r5, lsr #8
    aecc:	746e696f 	strbtvc	r6, [lr], #-2415	; 0xfffff691
    aed0:	25207265 	strcs	r7, [r0, #-613]!	; 0xfffffd9b
    aed4:	61772070 	cmnvs	r7, r0, ror r0
    aed8:	656e2073 	strbvs	r2, [lr, #-115]!	; 0xffffff8d
    aedc:	20726576 	rsbscs	r6, r2, r6, ror r5
    aee0:	6f6c6c61 	svcvs	0x006c6c61
    aee4:	65746163 	ldrbvs	r6, [r4, #-355]!	; 0xfffffe9d
    aee8:	000a0a64 	andeq	r0, sl, r4, ror #20

0000aeec <__FUNCTION__.7>:
    aeec:	6c616d6b 	stclvs	13, cr6, [r1], #-428	; 0xfffffe54
    aef0:	5f636f6c 	svcpl	0x00636f6c
    aef4:	74696e69 	strbtvc	r6, [r9], #-3689	; 0xfffff197
    aef8:	7465735f 	strbtvc	r7, [r5], #-863	; 0xfffffca1
    aefc:	6174735f 	cmnvs	r4, pc, asr r3
    af00:	00007472 	andeq	r7, r0, r2, ror r4

0000af04 <__FUNCTION__.5>:
    af04:	6c616d6b 	stclvs	13, cr6, [r1], #-428	; 0xfffffe54
    af08:	5f636f6c 	svcpl	0x00636f6c
    af0c:	74696e69 	strbtvc	r6, [r9], #-3689	; 0xfffff197
    af10:	00000000 	andeq	r0, r0, r0

0000af14 <__FUNCTION__.4>:
    af14:	6c616d6b 	stclvs	13, cr6, [r1], #-428	; 0xfffffe54
    af18:	5f636f6c 	svcpl	0x00636f6c
    af1c:	7a746f6e 	bvc	1d26cdc <__bss_end__+0x1d1b94c>
    af20:	006f7265 	rsbeq	r7, pc, r5, ror #4

0000af24 <__FUNCTION__.2>:
    af24:	6c616d6b 	stclvs	13, cr6, [r1], #-428	; 0xfffffe54
    af28:	00636f6c 	rsbeq	r6, r3, ip, ror #30

0000af2c <__FUNCTION__.1>:
    af2c:	6c616d6b 	stclvs	13, cr6, [r1], #-428	; 0xfffffe54
    af30:	5f636f6c 	svcpl	0x00636f6c
    af34:	67696c61 	strbvs	r6, [r9, -r1, ror #24]!
    af38:	0064656e 	rsbeq	r6, r4, lr, ror #10

0000af3c <__FUNCTION__.3>:
    af3c:	6e756f72 	mrcvs	15, 3, r6, cr5, cr2, {3}
    af40:	00707564 	rsbseq	r7, r0, r4, ror #10

0000af44 <__FUNCTION__.0>:
    af44:	6572666b 	ldrbvs	r6, [r2, #-1643]!	; 0xfffff995
    af48:	6f705f65 	svcvs	0x00705f65
    af4c:	Address 0x000000000000af4c is out of bounds.


Disassembly of section .data:

0000af50 <putk>:
    af50:	000090d0 	ldrdeq	r9, [r0], -r0

0000af54 <lfsr>:
    af54:	0000ace1 	andeq	sl, r0, r1, ror #25

0000af58 <heap>:
    af58:	0000b390 	muleq	r0, r0, r3

0000af5c <heap_start>:
    af5c:	0000b390 	muleq	r0, r0, r3

0000af60 <heap_end>:
    af60:	0020b390 	mlaeq	r0, r0, r3, fp

0000af64 <rpi_putchar>:
    af64:	0000a55c 	andeq	sl, r0, ip, asr r5

Disassembly of section .bss:

0000af68 <__bss_start__>:
	...

0000af70 <freep>:
	...

0000af78 <base>:
	...

0000af80 <heap_start>:
    af80:	00000000 	andeq	r0, r0, r0

0000af84 <heap_end>:
    af84:	00000000 	andeq	r0, r0, r0

0000af88 <init_p.4035>:
    af88:	00000000 	andeq	r0, r0, r0

0000af8c <buf.3944>:
	...

0000b38c <init_p.6>:
    b38c:	00000000 	andeq	r0, r0, r0

Disassembly of section .ARM.attributes:

00000000 <.ARM.attributes>:
   0:	00002a41 	andeq	r2, r0, r1, asr #20
   4:	61656100 	cmnvs	r5, r0, lsl #2
   8:	01006962 	tsteq	r0, r2, ror #18
   c:	00000020 	andeq	r0, r0, r0, lsr #32
  10:	4b5a3605 	blmi	168d82c <__bss_end__+0x168249c>
  14:	08070600 	stmdaeq	r7, {r9, sl}
  18:	12010901 	andne	r0, r1, #16384	; 0x4000
  1c:	15011404 	strne	r1, [r1, #-1028]	; 0xfffffbfc
  20:	18031701 	stmdane	r3, {r0, r8, r9, sl, ip}
  24:	22011a01 	andcs	r1, r1, #4096	; 0x1000
  28:	Address 0x0000000000000028 is out of bounds.


Disassembly of section .comment:

00000000 <.comment>:
   0:	3a434347 	bcc	10d0d24 <__bss_end__+0x10c5994>
   4:	4e472820 	cdpmi	8, 4, cr2, cr7, cr0, {1}
   8:	6f542055 	svcvs	0x00542055
   c:	20736c6f 	rsbscs	r6, r3, pc, ror #24
  10:	20726f66 	rsbscs	r6, r2, r6, ror #30
  14:	206d7241 	rsbcs	r7, sp, r1, asr #4
  18:	65626d45 	strbvs	r6, [r2, #-3397]!	; 0xfffff2bb
  1c:	64656464 	strbtvs	r6, [r5], #-1124	; 0xfffffb9c
  20:	6f725020 	svcvs	0x00725020
  24:	73736563 	cmnvc	r3, #415236096	; 0x18c00000
  28:	2073726f 	rsbscs	r7, r3, pc, ror #4
  2c:	30322d39 	eorscc	r2, r2, r9, lsr sp
  30:	712d3931 			; <UNDEFINED> instruction: 0x712d3931
  34:	616d2d34 	cmnvs	sp, r4, lsr sp
  38:	29726f6a 	ldmdbcs	r2!, {r1, r3, r5, r6, r8, r9, sl, fp, sp, lr}^
  3c:	322e3920 	eorcc	r3, lr, #32, 18	; 0x80000
  40:	3220312e 	eorcc	r3, r0, #-2147483637	; 0x8000000b
  44:	31393130 	teqcc	r9, r0, lsr r1
  48:	20353230 	eorscs	r3, r5, r0, lsr r2
  4c:	6c657228 	sfmvs	f7, 2, [r5], #-160	; 0xffffff60
  50:	65736165 	ldrbvs	r6, [r3, #-357]!	; 0xfffffe9b
  54:	415b2029 	cmpmi	fp, r9, lsr #32
  58:	612f4d52 			; <UNDEFINED> instruction: 0x612f4d52
  5c:	392d6d72 	pushcc	{r1, r4, r5, r6, r8, sl, fp, sp, lr}
  60:	6172622d 	cmnvs	r2, sp, lsr #4
  64:	2068636e 	rsbcs	r6, r8, lr, ror #6
  68:	69766572 	ldmdbvs	r6!, {r1, r4, r5, r6, r8, sl, sp, lr}^
  6c:	6e6f6973 			; <UNDEFINED> instruction: 0x6e6f6973
  70:	37373220 	ldrcc	r3, [r7, -r0, lsr #4]!
  74:	5d393935 			; <UNDEFINED> instruction: 0x5d393935
  78:	43434700 	movtmi	r4, #14080	; 0x3700
  7c:	4728203a 			; <UNDEFINED> instruction: 0x4728203a
  80:	4120554e 			; <UNDEFINED> instruction: 0x4120554e
  84:	45206d72 	strmi	r6, [r0, #-3442]!	; 0xfffff28e
  88:	6465626d 	strbtvs	r6, [r5], #-621	; 0xfffffd93
  8c:	20646564 	rsbcs	r6, r4, r4, ror #10
  90:	6c6f6f54 	stclvs	15, cr6, [pc], #-336	; ffffff48 <__bss_end__+0xffff4bb8>
  94:	69616863 	stmdbvs	r1!, {r0, r1, r5, r6, fp, sp, lr}^
  98:	3031206e 	eorscc	r2, r1, lr, rrx
  9c:	322d332e 	eorcc	r3, sp, #-1207959552	; 0xb8000000
  a0:	2e313230 	mrccs	2, 1, r3, cr1, cr0, {1}
  a4:	20293031 	eorcs	r3, r9, r1, lsr r0
  a8:	332e3031 			; <UNDEFINED> instruction: 0x332e3031
  ac:	3220312e 	eorcc	r3, r0, #-2147483637	; 0x8000000b
  b0:	30313230 	eorscc	r3, r1, r0, lsr r2
  b4:	20343238 	eorscs	r3, r4, r8, lsr r2
  b8:	6c657228 	sfmvs	f7, 2, [r5], #-160	; 0xffffff60
  bc:	65736165 	ldrbvs	r6, [r3, #-357]!	; 0xfffffe9b
  c0:	Address 0x00000000000000c0 is out of bounds.


Disassembly of section .debug_info:

00000000 <.debug_info>:
       0:	000003aa 	andeq	r0, r0, sl, lsr #7
       4:	00000004 	andeq	r0, r0, r4
       8:	01040000 	mrseq	r0, (UNDEF: 4)
       c:	00000090 	muleq	r0, r0, r0
      10:	00005e0c 	andeq	r5, r0, ip, lsl #28
      14:	00017200 	andeq	r7, r1, r0, lsl #4
      18:	00803800 	addeq	r3, r0, r0, lsl #16
      1c:	00010c00 	andeq	r0, r1, r0, lsl #24
      20:	00000000 	andeq	r0, r0, r0
      24:	05040200 	streq	r0, [r4, #-512]	; 0xfffffe00
      28:	00746e69 	rsbseq	r6, r4, r9, ror #28
      2c:	cd070403 	cfstrsgt	mvf0, [r7, #-12]
      30:	03000001 	movweq	r0, #1
      34:	00450601 	subeq	r0, r5, r1, lsl #12
      38:	02030000 	andeq	r0, r3, #0, 0
      3c:	0001fb05 	andeq	pc, r1, r5, lsl #22
      40:	05040300 	streq	r0, [r4, #-768]	; 0xfffffd00
      44:	000001df 	ldrdeq	r0, [r0], -pc	; <UNPREDICTABLE>
      48:	da050803 	ble	14205c <__bss_end__+0x136ccc>
      4c:	03000001 	movweq	r0, #1
      50:	00430801 	subeq	r0, r3, r1, lsl #16
      54:	02030000 	andeq	r0, r3, #0, 0
      58:	00007d07 	andeq	r7, r0, r7, lsl #26
      5c:	07040300 	streq	r0, [r4, -r0, lsl #6]
      60:	000001c8 	andeq	r0, r0, r8, asr #3
      64:	c3070803 	movwgt	r0, #30723	; 0x7803
      68:	04000001 	streq	r0, [r0], #-1
      6c:	00000025 	andeq	r0, r0, r5, lsr #32
      70:	0000007a 	andeq	r0, r0, sl, ror r0
      74:	00002505 	andeq	r2, r0, r5, lsl #10
      78:	e8060000 	stmda	r6, {}	; <UNPREDICTABLE>
      7c:	03000001 	movweq	r0, #1
      80:	00860e1c 	addeq	r0, r6, ip, lsl lr
      84:	04070000 	streq	r0, [r7], #-0
      88:	0000006b 	andeq	r0, r0, fp, rrx
      8c:	00002504 	andeq	r2, r0, r4, lsl #10
      90:	00009b00 	andeq	r9, r0, r0, lsl #22
      94:	009b0500 	addseq	r0, fp, r0, lsl #10
      98:	07000000 	streq	r0, [r0, -r0]
      9c:	0000a804 	andeq	sl, r0, r4, lsl #16
      a0:	08010300 	stmdaeq	r1, {r8, r9}
      a4:	0000004c 	andeq	r0, r0, ip, asr #32
      a8:	0000a108 	andeq	sl, r0, r8, lsl #2
      ac:	067a0600 	ldrbteq	r0, [sl], -r0, lsl #12
      b0:	21030000 	mrscs	r0, (UNDEF: 3)
      b4:	0000b90e 	andeq	fp, r0, lr, lsl #18
      b8:	8c040700 	stchi	7, cr0, [r4], {-0}
      bc:	09000000 	stmdbeq	r0, {}	; <UNPREDICTABLE>
      c0:	0905020c 	stmdbeq	r5, {r2, r3, r9}
      c4:	000000f0 	strdeq	r0, [r0], -r0	; <UNPREDICTABLE>
      c8:	00003e0a 	andeq	r3, r0, sl, lsl #28
      cc:	11070200 	mrsne	r0, (UNDEF: 39)
      d0:	0000009b 	muleq	r0, fp, r0
      d4:	01a60a00 			; <UNDEFINED> instruction: 0x01a60a00
      d8:	08020000 	stmdaeq	r2, {}	; <UNPREDICTABLE>
      dc:	00009b11 	andeq	r9, r0, r1, lsl fp
      e0:	200a0400 	andcs	r0, sl, r0, lsl #8
      e4:	02000000 	andeq	r0, r0, #0, 0
      e8:	002c0e09 	eoreq	r0, ip, r9, lsl #28
      ec:	00080000 	andeq	r0, r8, r0
      f0:	0002050b 	andeq	r0, r2, fp, lsl #10
      f4:	030a0200 	movweq	r0, #41472	; 0xa200
      f8:	000000bf 	strheq	r0, [r0], -pc	; <UNPREDICTABLE>
      fc:	0006040c 	andeq	r0, r6, ip, lsl #8
     100:	04000000 	streq	r0, [r0], #-0
     104:	002c11a6 	eoreq	r1, ip, r6, lsr #3
     108:	270d0000 	strcs	r0, [sp, -r0]
     10c:	01000000 	mrseq	r0, (UNDEF: 0)
     110:	80440605 	subhi	r0, r4, r5, lsl #12
     114:	01000000 	mrseq	r0, (UNDEF: 0)
     118:	9c010000 	stcls	0, cr0, [r1], {-0}
     11c:	0000030e 	andeq	r0, r0, lr, lsl #6
     120:	0030700e 	eorseq	r7, r0, lr
     124:	fc0b0801 	stc2	8, cr0, [fp], {1}
     128:	04000000 	streq	r0, [r0], #-0
     12c:	00000000 	andeq	r0, r0, r0
     130:	0f000000 	svceq	0x00000000
     134:	000001b6 			; <UNDEFINED> instruction: 0x000001b6
     138:	0000031e 	andeq	r0, r0, lr, lsl r3
     13c:	a6f40305 	ldrbtge	r0, [r4], r5, lsl #6
     140:	700e0000 	andvc	r0, lr, r0
     144:	09010031 	stmdbeq	r1, {r0, r4, r5}
     148:	0000fc0b 	andeq	pc, r0, fp, lsl #24
     14c:	00002600 	andeq	r2, r0, r0, lsl #12
     150:	00002200 	andeq	r2, r0, r0, lsl #4
     154:	03231000 			; <UNDEFINED> instruction: 0x03231000
     158:	80600000 	rsbhi	r0, r0, r0
     15c:	60000000 	andvs	r0, r0, r0
     160:	18000080 	stmdane	r0, {r7}
     164:	01000000 	mrseq	r0, (UNDEF: 0)
     168:	01961008 	orrseq	r1, r6, r8
     16c:	4c110000 	ldcmi	0, cr0, [r1], {-0}
     170:	46000003 	strmi	r0, [r0], -r3
     174:	44000000 	strmi	r0, [r0], #-0
     178:	11000000 	mrsne	r0, (UNDEF: 0)
     17c:	00000340 	andeq	r0, r0, r0, asr #6
     180:	0000005c 	andeq	r0, r0, ip, asr r0
     184:	0000005a 	andeq	r0, r0, sl, asr r0
     188:	00033411 	andeq	r3, r3, r1, lsl r4
     18c:	00007600 	andeq	r7, r0, r0, lsl #12
     190:	00007400 	andeq	r7, r0, r0, lsl #8
     194:	23100000 	tstcs	r0, #0, 0
     198:	94000003 	strls	r0, [r0], #-3
     19c:	00000080 	andeq	r0, r0, r0, lsl #1
     1a0:	00008094 	muleq	r0, r4, r0
     1a4:	00000010 	andeq	r0, r0, r0, lsl r0
     1a8:	d7100901 	ldrle	r0, [r0, -r1, lsl #18]
     1ac:	11000001 	tstne	r0, r1
     1b0:	0000034c 	andeq	r0, r0, ip, asr #6
     1b4:	00000090 	muleq	r0, r0, r0
     1b8:	0000008e 	andeq	r0, r0, lr, lsl #1
     1bc:	00034011 	andeq	r4, r3, r1, lsl r0
     1c0:	0000a600 	andeq	sl, r0, r0, lsl #12
     1c4:	0000a400 	andeq	sl, r0, r0, lsl #8
     1c8:	03341100 	teqeq	r4, #0
     1cc:	00c00000 	sbceq	r0, r0, r0
     1d0:	00be0000 	adcseq	r0, lr, r0
     1d4:	10000000 	andne	r0, r0, r0
     1d8:	00000323 	andeq	r0, r0, r3, lsr #6
     1dc:	000080bc 	strheq	r8, [r0], -ip
     1e0:	0080bc01 	addeq	fp, r0, r1, lsl #24
     1e4:	00001000 	andeq	r1, r0, r0
     1e8:	050a0100 	streq	r0, [sl, #-256]	; 0xffffff00
     1ec:	00000218 	andeq	r0, r0, r8, lsl r2
     1f0:	00034c11 	andeq	r4, r3, r1, lsl ip
     1f4:	0000da00 	andeq	sp, r0, r0, lsl #20
     1f8:	0000d800 	andeq	sp, r0, r0, lsl #16
     1fc:	03401100 	movteq	r1, #256	; 0x100
     200:	00f00000 	rscseq	r0, r0, r0
     204:	00ee0000 	rsceq	r0, lr, r0
     208:	34110000 	ldrcc	r0, [r1], #-0
     20c:	0a000003 	beq	220 <__code_start__-0x7de0>
     210:	08000001 	stmdaeq	r0, {r0}
     214:	00000001 	andeq	r0, r0, r1
     218:	00032310 	andeq	r2, r3, r0, lsl r3
     21c:	0080dc00 	addeq	sp, r0, r0, lsl #24
     220:	80dc0100 	sbcshi	r0, ip, r0, lsl #2
     224:	00100000 	andseq	r0, r0, r0
     228:	0b010000 	bleq	40230 <__bss_end__+0x34ea0>
     22c:	00025905 	andeq	r5, r2, r5, lsl #18
     230:	034c1100 	movteq	r1, #49408	; 0xc100
     234:	01240000 			; <UNDEFINED> instruction: 0x01240000
     238:	01220000 			; <UNDEFINED> instruction: 0x01220000
     23c:	40110000 	andsmi	r0, r1, r0
     240:	3a000003 	bcc	254 <__code_start__-0x7dac>
     244:	38000001 	stmdacc	r0, {r0}
     248:	11000001 	tstne	r0, r1
     24c:	00000334 	andeq	r0, r0, r4, lsr r3
     250:	00000154 	andeq	r0, r0, r4, asr r1
     254:	00000152 	andeq	r0, r0, r2, asr r1
     258:	805c1200 	subshi	r1, ip, r0, lsl #4
     25c:	03650000 	cmneq	r5, #0, 0
     260:	02700000 	rsbseq	r0, r0, #0, 0
     264:	01130000 	tsteq	r3, r0
     268:	70030550 	andvc	r0, r3, r0, asr r5
     26c:	000000a6 	andeq	r0, r0, r6, lsr #1
     270:	00806014 	addeq	r6, r0, r4, lsl r0
     274:	00037100 	andeq	r7, r3, r0, lsl #2
     278:	808c1400 	addhi	r1, ip, r0, lsl #8
     27c:	037d0000 	cmneq	sp, #0, 0
     280:	94140000 	ldrls	r0, [r4], #-0
     284:	71000080 	smlabbvc	r0, r0, r0, r0
     288:	14000003 	strne	r0, [r0], #-3
     28c:	000080b8 	strheq	r8, [r0], -r8	; <UNPREDICTABLE>
     290:	0000037d 	andeq	r0, r0, sp, ror r3
     294:	0080dc12 	addeq	sp, r0, r2, lsl ip
     298:	00038900 	andeq	r8, r3, r0, lsl #18
     29c:	0002a800 	andeq	sl, r2, r0, lsl #16
     2a0:	50011300 	andpl	r1, r1, r0, lsl #6
     2a4:	00007702 	andeq	r7, r0, r2, lsl #14
     2a8:	0080fc12 	addeq	pc, r0, r2, lsl ip	; <UNPREDICTABLE>
     2ac:	00038900 	andeq	r8, r3, r0, lsl #18
     2b0:	0002bc00 	andeq	fp, r2, r0, lsl #24
     2b4:	50011300 	andpl	r1, r1, r0, lsl #6
     2b8:	00007602 	andeq	r7, r0, r2, lsl #12
     2bc:	00810014 	addeq	r0, r1, r4, lsl r0
     2c0:	00039500 	andeq	r9, r3, r0, lsl #10
     2c4:	81101200 	tsthi	r0, r0, lsl #4
     2c8:	03650000 	cmneq	r5, #0, 0
     2cc:	02dc0000 	sbcseq	r0, ip, #0, 0
     2d0:	01130000 	tsteq	r3, r0
     2d4:	d4030550 	strle	r0, [r3], #-1360	; 0xfffffab0
     2d8:	000000a6 	andeq	r0, r0, r6, lsr #1
     2dc:	00812c12 	addeq	r2, r1, r2, lsl ip
     2e0:	00036500 	andeq	r6, r3, r0, lsl #10
     2e4:	00030400 	andeq	r0, r3, r0, lsl #8
     2e8:	50011300 	andpl	r1, r1, r0, lsl #6
     2ec:	a6b00305 	ldrtge	r0, [r0], r5, lsl #6
     2f0:	01130000 	tsteq	r3, r0
     2f4:	00750251 	rsbseq	r0, r5, r1, asr r2
     2f8:	02520113 	subseq	r0, r2, #-1073741820	; 0xc0000004
     2fc:	01130074 	tsteq	r3, r4, ror r0
     300:	003e0153 	eorseq	r0, lr, r3, asr r1
     304:	00813014 	addeq	r3, r1, r4, lsl r0
     308:	0003a100 	andeq	sl, r3, r0, lsl #2
     30c:	a8150000 	ldmdage	r5, {}	; <UNPREDICTABLE>
     310:	1e000000 	cdpne	0, 0, cr0, cr0, cr0, {0}
     314:	16000003 	strne	r0, [r0], -r3
     318:	0000002c 	andeq	r0, r0, ip, lsr #32
     31c:	0e080007 	cdpeq	0, 0, cr0, cr8, cr7, {0}
     320:	17000003 	strne	r0, [r0, -r3]
     324:	00000015 	andeq	r0, r0, r5, lsl r0
     328:	f00b0d02 			; <UNDEFINED> instruction: 0xf00b0d02
     32c:	03000000 	movweq	r0, #0
     330:	00000359 	andeq	r0, r0, r9, asr r3
     334:	00003e18 	andeq	r3, r0, r8, lsl lr
     338:	220d0200 	andcs	r0, sp, #0, 4
     33c:	0000009b 	muleq	r0, fp, r0
     340:	0001a618 	andeq	sl, r1, r8, lsl r6
     344:	340d0200 	strcc	r0, [sp], #-512	; 0xfffffe00
     348:	0000009b 	muleq	r0, fp, r0
     34c:	00002018 	andeq	r2, r0, r8, lsl r0
     350:	430d0200 	movwmi	r0, #53760	; 0xd200
     354:	0000002c 	andeq	r0, r0, ip, lsr #32
     358:	9e0a1900 	vmlals.f16	s2, s20, s0	; <UNPREDICTABLE>
     35c:	746f6e08 	strbtvc	r6, [pc], #-3592	; 364 <__code_start__-0x7c9c>
     360:	6e69616d 	powvsez	f6, f1, #5.0
     364:	063c1a00 	ldrteq	r1, [ip], -r0, lsl #20
     368:	063c0000 	ldrteq	r0, [ip], -r0
     36c:	28030000 	stmdacs	r3, {}	; <UNPREDICTABLE>
     370:	01ab1a06 			; <UNDEFINED> instruction: 0x01ab1a06
     374:	01ab0000 			; <UNDEFINED> instruction: 0x01ab0000
     378:	31030000 	mrscc	r0, (UNDEF: 3)
     37c:	000d1a0f 	andeq	r1, sp, pc, lsl #20
     380:	000d0000 	andeq	r0, sp, r0
     384:	4a040000 	bmi	10038c <__bss_end__+0xf4ffc>
     388:	01f41a08 	mvnseq	r1, r8, lsl #20
     38c:	01f40000 	mvnseq	r0, r0
     390:	4b040000 	blmi	100398 <__bss_end__+0xf5008>
     394:	002f1a07 	eoreq	r1, pc, r7, lsl #20
     398:	002f0000 	eoreq	r0, pc, r0
     39c:	56040000 	strpl	r0, [r4], -r0
     3a0:	00511a05 	subseq	r1, r1, r5, lsl #20
     3a4:	00510000 	subseq	r0, r1, r0
     3a8:	6e030000 	cdpvs	0, 0, cr0, cr3, cr0, {0}
     3ac:	07ae0006 	streq	r0, [lr, r6]!
     3b0:	00040000 	andeq	r0, r4, r0
     3b4:	0000016a 	andeq	r0, r0, sl, ror #2
     3b8:	00900104 	addseq	r0, r0, r4, lsl #2
     3bc:	df0c0000 	svcle	0x000c0000
     3c0:	72000002 	andvc	r0, r0, #2, 0
     3c4:	44000001 	strmi	r0, [r0], #-1
     3c8:	f8000081 			; <UNDEFINED> instruction: 0xf8000081
     3cc:	1a000003 	bne	3e0 <__code_start__-0x7c20>
     3d0:	02000001 	andeq	r0, r0, #1, 0
     3d4:	6e690504 	cdpvs	5, 6, cr0, cr9, cr4, {0}
     3d8:	04030074 	streq	r0, [r3], #-116	; 0xffffff8c
     3dc:	0001cd07 	andeq	ip, r1, r7, lsl #26
     3e0:	06010300 	streq	r0, [r1], -r0, lsl #6
     3e4:	00000045 	andeq	r0, r0, r5, asr #32
     3e8:	fb050203 	blx	140bfe <__bss_end__+0x13586e>
     3ec:	03000001 	movweq	r0, #1
     3f0:	01df0504 	bicseq	r0, pc, r4, lsl #10
     3f4:	08030000 	stmdaeq	r3, {}	; <UNPREDICTABLE>
     3f8:	0001da05 	andeq	sp, r1, r5, lsl #20
     3fc:	02690400 	rsbeq	r0, r9, #0, 8
     400:	2e030000 	cdpcs	0, 0, cr0, cr3, cr0, {0}
     404:	00005b18 	andeq	r5, r0, r8, lsl fp
     408:	08010300 	stmdaeq	r1, {r8, r9}
     40c:	00000043 	andeq	r0, r0, r3, asr #32
     410:	0002b804 	andeq	fp, r2, r4, lsl #16
     414:	19310300 	ldmdbne	r1!, {r8, r9}
     418:	0000006e 	andeq	r0, r0, lr, rrx
     41c:	7d070203 	sfmvc	f0, 4, [r7, #-12]
     420:	04000000 	streq	r0, [r0], #-0
     424:	000002af 	andeq	r0, r0, pc, lsr #5
     428:	81193403 	tsthi	r9, r3, lsl #8
     42c:	03000000 	movweq	r0, #0
     430:	01c80704 	biceq	r0, r8, r4, lsl #14
     434:	08030000 	stmdaeq	r3, {}	; <UNPREDICTABLE>
     438:	0001c307 	andeq	ip, r1, r7, lsl #6
     43c:	00250500 	eoreq	r0, r5, r0, lsl #10
     440:	009e0000 	addseq	r0, lr, r0
     444:	25060000 	strcs	r0, [r6, #-0]
     448:	00000000 	andeq	r0, r0, r0
     44c:	0001e807 	andeq	lr, r1, r7, lsl #16
     450:	0e1c0400 	cfmulseq	mvf0, mvf12, mvf0
     454:	000000aa 	andeq	r0, r0, sl, lsr #1
     458:	008f0408 	addeq	r0, pc, r8, lsl #8
     45c:	25050000 	strcs	r0, [r5, #-0]
     460:	bf000000 	svclt	0x00000000
     464:	06000000 	streq	r0, [r0], -r0
     468:	000000bf 	strheq	r0, [r0], -pc	; <UNPREDICTABLE>
     46c:	cc040800 	stcgt	8, cr0, [r4], {-0}
     470:	03000000 	movweq	r0, #0
     474:	004c0801 	subeq	r0, ip, r1, lsl #16
     478:	c5090000 	strgt	r0, [r9, #-0]
     47c:	07000000 	streq	r0, [r0, -r0]
     480:	0000067a 	andeq	r0, r0, sl, ror r6
     484:	dd0e2104 	stfles	f2, [lr, #-16]
     488:	08000000 	stmdaeq	r0, {}	; <UNPREDICTABLE>
     48c:	0000b004 	andeq	fp, r0, r4
     490:	050c0a00 	streq	r0, [ip, #-2560]	; 0xfffff600
     494:	01140905 	tsteq	r4, r5, lsl #18
     498:	3e0b0000 	cdpcc	0, 0, cr0, cr11, cr0, {0}
     49c:	05000000 	streq	r0, [r0, #-0]
     4a0:	00bf1107 	adcseq	r1, pc, r7, lsl #2
     4a4:	0b000000 	bleq	4ac <__code_start__-0x7b54>
     4a8:	000001a6 	andeq	r0, r0, r6, lsr #3
     4ac:	bf110805 	svclt	0x00110805
     4b0:	04000000 	streq	r0, [r0], #-0
     4b4:	0000200b 	andeq	r2, r0, fp
     4b8:	0e090500 	cfsh32eq	mvfx0, mvfx9, #0
     4bc:	0000002c 	andeq	r0, r0, ip, lsr #32
     4c0:	05040008 	streq	r0, [r4, #-8]
     4c4:	05000002 	streq	r0, [r0, #-2]
     4c8:	00e3030a 	rsceq	r0, r3, sl, lsl #6
     4cc:	070c0000 	streq	r0, [ip, -r0]
     4d0:	00005b01 	andeq	r5, r0, r1, lsl #22
     4d4:	0e090200 	cdpeq	2, 0, cr0, cr9, cr0, {0}
     4d8:	0000013b 	andeq	r0, r0, fp, lsr r1
     4dc:	0002f50d 	andeq	pc, r2, sp, lsl #10
     4e0:	2e0d0b00 	vmlacs.f64	d0, d13, d0
     4e4:	0c000002 	stceq	0, cr0, [r0], {2}
     4e8:	01070c00 	tsteq	r7, r0, lsl #24
     4ec:	0000005b 	andeq	r0, r0, fp, asr r0
     4f0:	56060a02 	strpl	r0, [r6], -r2, lsl #20
     4f4:	0d000001 	stceq	0, cr0, [r0, #-4]
     4f8:	0000024d 	andeq	r0, r0, sp, asr #4
     4fc:	02410d80 	subeq	r0, r1, #128, 26	; 0x2000
     500:	00fe0000 	rscseq	r0, lr, r0
     504:	00028d0e 	andeq	r8, r2, lr, lsl #26
     508:	0d02b400 	cfstrseq	mvf11, [r2, #-0]
     50c:	0001e610 	andeq	lr, r1, r0, lsl r6
     510:	03320b00 	teqeq	r2, #0, 22
     514:	0e020000 	cdpeq	0, 0, cr0, cr2, cr0, {0}
     518:	0001e614 	andeq	lr, r1, r4, lsl r6
     51c:	340b0000 	strcc	r0, [fp], #-0
     520:	02000002 	andeq	r0, r0, #2, 0
     524:	00750e0f 	rsbseq	r0, r5, pc, lsl #28
     528:	0b040000 	bleq	100530 <__bss_end__+0xf51a0>
     52c:	0000029e 	muleq	r0, lr, r2
     530:	750e1002 	strvc	r1, [lr, #-2]
     534:	08000000 	stmdaeq	r0, {}	; <UNPREDICTABLE>
     538:	0002250b 	andeq	r2, r2, fp, lsl #10
     53c:	0e140200 	cdpeq	2, 1, cr0, cr4, cr0, {0}
     540:	00000075 	andeq	r0, r0, r5, ror r0
     544:	02940b0c 	addseq	r0, r4, #12, 22	; 0x3000
     548:	16020000 	strne	r0, [r2], -r0
     54c:	0001140f 	andeq	r1, r1, pc, lsl #8
     550:	150b1000 	strne	r1, [fp, #-0]
     554:	02000003 	andeq	r0, r0, #3, 0
     558:	01140f17 	tsteq	r4, r7, lsl pc
     55c:	0b1c0000 	bleq	700564 <__bss_end__+0x6f51d4>
     560:	000002a4 	andeq	r0, r0, r4, lsr #5
     564:	750e1a02 	strvc	r1, [lr, #-2562]	; 0xfffff5fe
     568:	28000000 	stmdacs	r0, {}	; <UNPREDICTABLE>
     56c:	0002e90b 	andeq	lr, r2, fp, lsl #18
     570:	0e1b0200 	cdpeq	2, 1, cr0, cr11, cr0, {0}
     574:	00000075 	andeq	r0, r0, r5, ror r0
     578:	03e10b2c 	mvneq	r0, #44, 22	; 0xb000
     57c:	1d020000 	stcne	0, cr0, [r2, #-0]
     580:	0000620e 	andeq	r6, r0, lr, lsl #4
     584:	720f3000 	andvc	r3, pc, #0, 0
     588:	0200317a 	andeq	r3, r0, #-2147483618	; 0x8000001e
     58c:	01ec0d1f 	mvneq	r0, pc, lsl sp
     590:	00320000 	eorseq	r0, r2, r0
     594:	01560408 	cmpeq	r6, r8, lsl #8
     598:	4f100000 	svcmi	0x00100000
     59c:	fc000000 	stc2	0, cr0, [r0], {-0}
     5a0:	11000001 	tstne	r0, r1
     5a4:	0000002c 	andeq	r0, r0, ip, lsr #32
     5a8:	1f04007f 	svcne	0x0004007f
     5ac:	02000002 	andeq	r0, r0, #2, 0
     5b0:	01560320 	cmpeq	r6, r0, lsr #6
     5b4:	04120000 	ldreq	r0, [r2], #-0
     5b8:	00000007 	andeq	r0, r0, r7
     5bc:	11a60200 			; <UNDEFINED> instruction: 0x11a60200
     5c0:	0000002c 	andeq	r0, r0, ip, lsr #32
     5c4:	00027b13 	andeq	r7, r2, r3, lsl fp
     5c8:	0f080100 	svceq	0x00080100
     5cc:	00000228 	andeq	r0, r0, r8, lsr #4
     5d0:	af680305 	svcge	0x00680305
     5d4:	04080000 	streq	r0, [r8], #-0
     5d8:	000001fc 	strdeq	r0, [r0], -ip
     5dc:	00000d14 	andeq	r0, r0, r4, lsl sp
     5e0:	08760100 	ldmdaeq	r6!, {r8}^
     5e4:	00000208 	andeq	r0, r0, r8, lsl #4
     5e8:	00008470 	andeq	r8, r0, r0, ror r4
     5ec:	000000cc 	andeq	r0, r0, ip, asr #1
     5f0:	031b9c01 	tsteq	fp, #256	; 0x100
     5f4:	21150000 	tstcs	r5, r0
     5f8:	01000003 	tsteq	r0, r3
     5fc:	00751a76 	rsbseq	r1, r5, r6, ror sl
     600:	01720000 	cmneq	r2, r0
     604:	016c0000 	cmneq	ip, r0
     608:	6c160000 	ldcvs	0, cr0, [r6], {-0}
     60c:	2c760100 	ldfcse	f0, [r6], #-0
     610:	00000114 	andeq	r0, r0, r4, lsl r1
     614:	17549102 	ldrbne	r9, [r4, -r2, lsl #2]
     618:	78010068 	stmdavc	r1, {r3, r5, r6}
     61c:	0002280c 	andeq	r2, r2, ip, lsl #16
     620:	0001a400 	andeq	sl, r1, r0, lsl #8
     624:	00019e00 	andeq	r9, r1, r0, lsl #28
     628:	84a41800 	strthi	r1, [r4], #2048	; 0x800
     62c:	002c0000 	eoreq	r0, ip, r0
     630:	029b0000 	addseq	r0, fp, #0, 0
     634:	69170000 	ldmdbvs	r7, {}	; <UNPREDICTABLE>
     638:	0d7e0100 	ldfeqe	f0, [lr, #-0]
     63c:	00000025 	andeq	r0, r0, r5, lsr #32
     640:	000001d5 	ldrdeq	r0, [r0], -r5
     644:	000001d1 	ldrdeq	r0, [r0], -r1
     648:	84941900 	ldrhi	r1, [r4], #2304	; 0x900
     64c:	07750000 	ldrbeq	r0, [r5, -r0]!
     650:	02b00000 	adcseq	r0, r0, #0, 0
     654:	011a0000 	tsteq	sl, r0
     658:	b4750350 	ldrbtlt	r0, [r5], #-848	; 0xfffffcb0
     65c:	a4190002 	ldrge	r0, [r9], #-2
     660:	81000084 	smlabbhi	r0, r4, r0, r0
     664:	cf000007 	svcgt	0x00000007
     668:	1a000002 	bne	678 <__code_start__-0x7988>
     66c:	74025001 	strvc	r5, [r2], #-1
     670:	51011a00 	tstpl	r1, r0, lsl #20
     674:	011a3001 	tsteq	sl, r1
     678:	b4080252 	strlt	r0, [r8], #-594	; 0xfffffdae
     67c:	85001900 	strhi	r1, [r0, #-2304]	; 0xfffff700
     680:	078d0000 	streq	r0, [sp, r0]
     684:	02fb0000 	rscseq	r0, fp, #0, 0
     688:	011a0000 	tsteq	sl, r0
     68c:	0c030550 	cfstr32eq	mvfx0, [r3], {80}	; 0x50
     690:	1a0000a7 	bne	934 <__code_start__-0x76cc>
     694:	7b035101 	blvc	d4aa0 <__bss_end__+0xc9710>
     698:	011a0658 	tsteq	sl, r8, asr r6
     69c:	5c7b0352 	ldclpl	3, cr0, [fp], #-328	; 0xfffffeb8
     6a0:	53011a06 	movwpl	r1, #6662	; 0x1a06
     6a4:	06607b03 	strbteq	r7, [r0], -r3, lsl #22
     6a8:	85141b00 	ldrhi	r1, [r4, #-2816]	; 0xfffff500
     6ac:	078d0000 	streq	r0, [sp, r0]
     6b0:	011a0000 	tsteq	sl, r0
     6b4:	d8030550 	stmdale	r3, {r4, r6, r8, sl}
     6b8:	1a0000a7 	bne	95c <__code_start__-0x76a4>
     6bc:	76025101 	strvc	r5, [r2], -r1, lsl #2
     6c0:	52011a00 	andpl	r1, r1, #0, 20
     6c4:	00007502 	andeq	r7, r0, r2, lsl #10
     6c8:	01f41c00 	mvnseq	r1, r0, lsl #24
     6cc:	53010000 	movwpl	r0, #4096	; 0x1000
     6d0:	0082c806 	addeq	ip, r2, r6, lsl #16
     6d4:	00019c00 	andeq	r9, r1, r0, lsl #24
     6d8:	429c0100 	addsmi	r0, ip, #0
     6dc:	15000005 	strne	r0, [r0, #-5]
     6e0:	000005d5 	ldrdeq	r0, [r0], -r5
     6e4:	08145301 	ldmdaeq	r4, {r0, r8, r9, ip, lr}
     6e8:	f8000002 			; <UNDEFINED> instruction: 0xf8000002
     6ec:	f4000001 	vst4.8	{d0-d3}, [r0], r1
     6f0:	16000001 	strne	r0, [r0], -r1
     6f4:	5301006c 	movwpl	r0, #4204	; 0x106c
     6f8:	00011424 	andeq	r1, r1, r4, lsr #8
     6fc:	54910200 	ldrpl	r0, [r1], #512	; 0x200
     700:	01006817 	tsteq	r0, r7, lsl r8
     704:	02280c55 	eoreq	r0, r8, #21760	; 0x5500
     708:	021a0000 	andseq	r0, sl, #0, 0
     70c:	02160000 	andseq	r0, r6, #0, 0
     710:	b61d0000 	ldrlt	r0, [sp], -r0
     714:	52000001 	andpl	r0, r0, #1, 0
     718:	05000005 	streq	r0, [r0, #-5]
     71c:	00a7f403 	adceq	pc, r7, r3, lsl #8
     720:	00001e00 	andeq	r1, r0, r0, lsl #28
     724:	04330000 	ldrteq	r0, [r3], #-0
     728:	69170000 	ldmdbvs	r7, {}	; <UNPREDICTABLE>
     72c:	0d5d0100 	ldfeqe	f0, [sp, #-0]
     730:	00000025 	andeq	r0, r0, r5, lsr #32
     734:	00000243 	andeq	r0, r0, r3, asr #4
     738:	0000023b 	andeq	r0, r0, fp, lsr r2
     73c:	00838c1f 	addeq	r8, r3, pc, lsl ip
     740:	00079900 	andeq	r9, r7, r0, lsl #18
     744:	83a01900 	movhi	r1, #0, 18
     748:	078d0000 	streq	r0, [sp, r0]
     74c:	03c00000 	biceq	r0, r0, #0, 0
     750:	011a0000 	tsteq	sl, r0
     754:	28030550 	stmdacs	r3, {r4, r6, r8, sl}
     758:	1a0000a7 	bne	9fc <__code_start__-0x7604>
     75c:	75025101 	strvc	r5, [r2, #-257]	; 0xfffffeff
     760:	52011a00 	andpl	r1, r1, #0, 20
     764:	1a007602 	bne	1df74 <__bss_end__+0x12be4>
     768:	77025301 	strvc	r5, [r2, -r1, lsl #6]
     76c:	a8190000 	ldmdage	r9, {}	; <UNPREDICTABLE>
     770:	8d000083 	stchi	0, cr0, [r0, #-524]	; 0xfffffdf4
     774:	d7000007 	strle	r0, [r0, -r7]
     778:	1a000003 	bne	78c <__code_start__-0x7874>
     77c:	03055001 	movweq	r5, #20481	; 0x5001
     780:	0000a768 	andeq	sl, r0, r8, ror #14
     784:	83ac1f00 			; <UNDEFINED> instruction: 0x83ac1f00
     788:	07a50000 	streq	r0, [r5, r0]!
     78c:	b01f0000 	andslt	r0, pc, r0
     790:	99000083 	stmdbls	r0, {r0, r1, r7}
     794:	19000007 	stmdbne	r0, {r0, r1, r2}
     798:	000083c4 	andeq	r8, r0, r4, asr #7
     79c:	0000078d 	andeq	r0, r0, sp, lsl #15
     7a0:	00000412 	andeq	r0, r0, r2, lsl r4
     7a4:	0550011a 	ldrbeq	r0, [r0, #-282]	; 0xfffffee6
     7a8:	00a72803 	adceq	r2, r7, r3, lsl #16
     7ac:	51011a00 	tstpl	r1, r0, lsl #20
     7b0:	1a007502 	bne	1dbc0 <__bss_end__+0x12830>
     7b4:	76025201 	strvc	r5, [r2], -r1, lsl #4
     7b8:	53011a00 	movwpl	r1, #6656	; 0x1a00
     7bc:	00007702 	andeq	r7, r0, r2, lsl #14
     7c0:	0083cc19 	addeq	ip, r3, r9, lsl ip
     7c4:	00078d00 	andeq	r8, r7, r0, lsl #26
     7c8:	00042900 	andeq	r2, r4, r0, lsl #18
     7cc:	50011a00 	andpl	r1, r1, r0, lsl #20
     7d0:	a7840305 	strge	r0, [r4, r5, lsl #6]
     7d4:	1f000000 	svcne	0x00000000
     7d8:	000083d0 	ldrdeq	r8, [r0], -r0
     7dc:	000007a5 	andeq	r0, r0, r5, lsr #15
     7e0:	83d01800 	bicshi	r1, r0, #0, 16
     7e4:	001c0000 	andseq	r0, ip, r0
     7e8:	04530000 	ldrbeq	r0, [r3], #-0
     7ec:	69170000 	ldmdbvs	r7, {}	; <UNPREDICTABLE>
     7f0:	0d670100 	stfeqe	f0, [r7, #-0]
     7f4:	00000025 	andeq	r0, r0, r5, lsr #32
     7f8:	00000279 	andeq	r0, r0, r9, ror r2
     7fc:	00000277 	andeq	r0, r0, r7, ror r2
     800:	83101900 	tsthi	r0, #0, 18
     804:	078d0000 	streq	r0, [sp, r0]
     808:	047c0000 	ldrbteq	r0, [ip], #-0
     80c:	011a0000 	tsteq	sl, r0
     810:	0c030550 	cfstr32eq	mvfx0, [r3], {80}	; 0x50
     814:	1a0000a7 	bne	ab8 <__code_start__-0x7548>
     818:	75025101 	strvc	r5, [r2, #-257]	; 0xfffffeff
     81c:	52011a00 	andpl	r1, r1, #0, 20
     820:	1a007602 	bne	1e030 <__bss_end__+0x12ca0>
     824:	77025301 	strvc	r5, [r2, -r1, lsl #6]
     828:	1c190000 	ldcne	0, cr0, [r9], {-0}
     82c:	8d000083 	stchi	0, cr0, [r0, #-524]	; 0xfffffdf4
     830:	99000007 	stmdbls	r0, {r0, r1, r2}
     834:	1a000004 	bne	84c <__code_start__-0x77b4>
     838:	03055001 	movweq	r5, #20481	; 0x5001
     83c:	0000a718 	andeq	sl, r0, r8, lsl r7
     840:	0251011a 	subseq	r0, r1, #-2147483642	; 0x80000006
     844:	1f000074 	svcne	0x00000074
     848:	00008364 	andeq	r8, r0, r4, ror #6
     84c:	00000799 	muleq	r0, r9, r7
     850:	00837819 	addeq	r7, r3, r9, lsl r8
     854:	00078d00 	andeq	r8, r7, r0, lsl #26
     858:	0004cb00 	andeq	ip, r4, r0, lsl #22
     85c:	50011a00 	andpl	r1, r1, r0, lsl #20
     860:	a7280305 	strge	r0, [r8, -r5, lsl #6]!
     864:	011a0000 	tsteq	sl, r0
     868:	00750251 	rsbseq	r0, r5, r1, asr r2
     86c:	0252011a 	subseq	r0, r2, #-2147483642	; 0x80000006
     870:	011a0076 	tsteq	sl, r6, ror r0
     874:	00770253 	rsbseq	r0, r7, r3, asr r2
     878:	83841900 	orrhi	r1, r4, #0, 18
     87c:	078d0000 	streq	r0, [sp, r0]
     880:	04e20000 	strbteq	r0, [r2], #0
     884:	011a0000 	tsteq	sl, r0
     888:	40030550 	andmi	r0, r3, r0, asr r5
     88c:	000000a7 	andeq	r0, r0, r7, lsr #1
     890:	0083881f 	addeq	r8, r3, pc, lsl r8
     894:	0007a500 	andeq	sl, r7, r0, lsl #10
     898:	840c1900 	strhi	r1, [ip], #-2304	; 0xfffff700
     89c:	05570000 	ldrbeq	r0, [r7, #-0]
     8a0:	04ff0000 	ldrbteq	r0, [pc], #0	; 8a8 <__code_start__-0x7758>
     8a4:	011a0000 	tsteq	sl, r0
     8a8:	00740250 	rsbseq	r0, r4, r0, asr r2
     8ac:	84381900 	ldrthi	r1, [r8], #-2304	; 0xfffff700
     8b0:	078d0000 	streq	r0, [sp, r0]
     8b4:	05380000 	ldreq	r0, [r8, #-0]!
     8b8:	011a0000 	tsteq	sl, r0
     8bc:	ac030550 	cfstr32ge	mvfx0, [r3], {80}	; 0x50
     8c0:	1a0000a7 	bne	b64 <__code_start__-0x749c>
     8c4:	03055101 	movweq	r5, #20737	; 0x5101
     8c8:	0000a7a0 	andeq	sl, r0, r0, lsr #15
     8cc:	0552011a 	ldrbeq	r0, [r2, #-282]	; 0xfffffee6
     8d0:	00a7f403 	adceq	pc, r7, r3, lsl #8
     8d4:	53011a00 	movwpl	r1, #6656	; 0x1a00
     8d8:	1a6d0802 	bne	1b428e8 <__bss_end__+0x1b37558>
     8dc:	05007d02 	streq	r7, [r0, #-3330]	; 0xfffff2fe
     8e0:	00a7c003 	adceq	ip, r7, r3
     8e4:	3c1f0000 	ldccc	0, cr0, [pc], {-0}
     8e8:	a5000084 	strge	r0, [r0, #-132]	; 0xffffff7c
     8ec:	00000007 	andeq	r0, r0, r7
     8f0:	0000cc10 	andeq	ip, r0, r0, lsl ip
     8f4:	00055200 	andeq	r5, r5, r0, lsl #4
     8f8:	002c1100 	eoreq	r1, ip, r0, lsl #2
     8fc:	00060000 	andeq	r0, r6, r0
     900:	00054209 	andeq	r4, r5, r9, lsl #4
     904:	02c11400 	sbceq	r1, r1, #0, 8
     908:	2b010000 	blcs	40910 <__bss_end__+0x35580>
     90c:	00022808 	andeq	r2, r2, r8, lsl #16
     910:	00825c00 	addeq	r5, r2, r0, lsl #24
     914:	00006000 	andeq	r6, r0, r0
     918:	f89c0100 			; <UNDEFINED> instruction: 0xf89c0100
     91c:	20000005 	andcs	r0, r0, r5
     920:	00727470 	rsbseq	r7, r2, r0, ror r4
     924:	08202b01 	stmdaeq	r0!, {r0, r8, r9, fp, sp}
     928:	90000002 	andls	r0, r0, r2
     92c:	8c000002 	stchi	0, cr0, [r0], {2}
     930:	21000002 	tstcs	r0, r2
     934:	0000826c 	andeq	r8, r0, ip, ror #4
     938:	00000044 	andeq	r0, r0, r4, asr #32
     93c:	01006817 	tsteq	r0, r7, lsl r8
     940:	0228112e 	eoreq	r1, r8, #-2147483637	; 0x8000000b
     944:	02b60000 	adcseq	r0, r6, #0, 0
     948:	02ae0000 	adceq	r0, lr, #0, 0
     94c:	701f0000 	andsvc	r0, pc, r0
     950:	43000082 	movwmi	r0, #130	; 0x82
     954:	19000007 	stmdbne	r0, {r0, r1, r2}
     958:	00008288 	andeq	r8, r0, r8, lsl #5
     95c:	000005f8 	strdeq	r0, [r0], -r8
     960:	000005c3 	andeq	r0, r0, r3, asr #11
     964:	0250011a 	subseq	r0, r0, #-2147483642	; 0x80000006
     968:	011a0074 	tsteq	sl, r4, ror r0
     96c:	00750251 	rsbseq	r0, r5, r1, asr r2
     970:	82981900 	addshi	r1, r8, #0, 18
     974:	07160000 	ldreq	r0, [r6, -r0]
     978:	05d70000 	ldrbeq	r0, [r7]
     97c:	011a0000 	tsteq	sl, r0
     980:	00740250 	rsbseq	r0, r4, r0, asr r2
     984:	82b01b00 	adcshi	r1, r0, #0, 22
     988:	078d0000 	streq	r0, [sp, r0]
     98c:	011a0000 	tsteq	sl, r0
     990:	fc030550 	stc2	5, cr0, [r3], {80}	; 0x50
     994:	1a0000a6 	bne	c34 <__code_start__-0x73cc>
     998:	75025101 	strvc	r5, [r2, #-257]	; 0xfffffeff
     99c:	52011a00 	andpl	r1, r1, #0, 20
     9a0:	00007402 	andeq	r7, r0, r2, lsl #8
     9a4:	0f140000 	svceq	0x00140000
     9a8:	01000002 	tsteq	r0, r2
     9ac:	002c0a24 	eoreq	r0, ip, r4, lsr #20
     9b0:	820c0000 	andhi	r0, ip, #0, 0
     9b4:	00380000 	eorseq	r0, r8, r0
     9b8:	9c010000 	stcls	0, cr0, [r1], {-0}
     9bc:	00000685 	andeq	r0, r0, r5, lsl #13
     9c0:	01006820 	tsteq	r0, r0, lsr #16
     9c4:	02282124 	eoreq	r2, r8, #9
     9c8:	02ee0000 	rsceq	r0, lr, #0, 0
     9cc:	02ea0000 	rsceq	r0, sl, #0, 0
     9d0:	70200000 	eorvc	r0, r0, r0
     9d4:	01007274 	tsteq	r0, r4, ror r2
     9d8:	02082a24 	andeq	r2, r8, #36, 20	; 0x24000
     9dc:	03100000 	tsteq	r0, #0, 0
     9e0:	030c0000 	movweq	r0, #49152	; 0xc000
     9e4:	6d170000 	ldcvs	0, cr0, [r7, #-0]
     9e8:	01006e69 	tsteq	r0, r9, ror #28
     9ec:	02080b26 	andeq	r0, r8, #38912	; 0x9800
     9f0:	03320000 	teqeq	r2, #0, 0
     9f4:	032e0000 			; <UNDEFINED> instruction: 0x032e0000
     9f8:	6d170000 	ldcvs	0, cr0, [r7, #-0]
     9fc:	01007861 	tsteq	r0, r1, ror #16
     a00:	02080b27 	andeq	r0, r8, #39936	; 0x9c00
     a04:	03520000 	cmpeq	r2, #0, 0
     a08:	03500000 	cmpeq	r0, #0, 0
     a0c:	24190000 	ldrcs	r0, [r9], #-0
     a10:	e9000082 	stmdb	r0, {r1, r7}
     a14:	74000006 	strvc	r0, [r0], #-6
     a18:	1a000006 	bne	a38 <__code_start__-0x75c8>
     a1c:	76025001 	strvc	r5, [r2], -r1
     a20:	301b0000 	andscc	r0, fp, r0
     a24:	85000082 	strhi	r0, [r0, #-130]	; 0xffffff7e
     a28:	1a000006 	bne	a48 <__code_start__-0x75b8>
     a2c:	76025001 	strvc	r5, [r2], -r1
     a30:	14000000 	strne	r0, [r0], #-0
     a34:	0000030a 	andeq	r0, r0, sl, lsl #6
     a38:	08071e01 	stmdaeq	r7, {r0, r9, sl, fp, ip}
     a3c:	d8000002 	stmdale	r0, {r1}
     a40:	20000081 	andcs	r0, r0, r1, lsl #1
     a44:	01000000 	mrseq	r0, (UNDEF: 0)
     a48:	0006e99c 	muleq	r6, ip, r9
     a4c:	00682000 	rsbeq	r2, r8, r0
     a50:	28191e01 	ldmdacs	r9, {r0, r9, sl, fp, ip}
     a54:	69000002 	stmdbvs	r0, {r1}
     a58:	65000003 	strvs	r0, [r0, #-3]
     a5c:	22000003 	andcs	r0, r0, #3, 0
     a60:	00000759 	andeq	r0, r0, r9, asr r7
     a64:	000081ec 	andeq	r8, r0, ip, ror #3
     a68:	0081ec00 	addeq	lr, r1, r0, lsl #24
     a6c:	00000400 	andeq	r0, r0, r0, lsl #8
     a70:	26200100 	strtcs	r0, [r0], -r0, lsl #2
     a74:	000006d8 	ldrdeq	r0, [r0], -r8
     a78:	00076a23 	andeq	r6, r7, r3, lsr #20
     a7c:	00038900 	andeq	r8, r3, r0, lsl #18
     a80:	00038700 	andeq	r8, r3, r0, lsl #14
     a84:	ec1b0000 	ldc	0, cr0, [fp], {-0}
     a88:	e9000081 	stmdb	r0, {r0, r7}
     a8c:	1a000006 	bne	aac <__code_start__-0x7554>
     a90:	74025001 	strvc	r5, [r2], #-1
     a94:	14000000 	strne	r0, [r0], #-0
     a98:	000002fd 	strdeq	r0, [r0], -sp
     a9c:	08071801 	stmdaeq	r7, {r0, fp, ip}
     aa0:	b4000002 	strlt	r0, [r0], #-2
     aa4:	14000081 	strne	r0, [r0], #-129	; 0xffffff7f
     aa8:	01000000 	mrseq	r0, (UNDEF: 0)
     aac:	0007169c 	muleq	r7, ip, r6
     ab0:	00682000 	rsbeq	r2, r8, r0
     ab4:	281b1801 	ldmdacs	fp, {r0, fp, ip}
     ab8:	a0000002 	andge	r0, r0, r2
     abc:	9c000003 	stcls	0, cr0, [r0], {3}
     ac0:	00000003 	andeq	r0, r0, r3
     ac4:	0002d314 	andeq	sp, r2, r4, lsl r3
     ac8:	08110100 	ldmdaeq	r1, {r8}
     acc:	00000228 	andeq	r0, r0, r8, lsr #4
     ad0:	00008184 	andeq	r8, r0, r4, lsl #3
     ad4:	0000001c 	andeq	r0, r0, ip, lsl r0
     ad8:	07439c01 	strbeq	r9, [r3, -r1, lsl #24]
     adc:	70200000 	eorvc	r0, r0, r0
     ae0:	1b110100 	blne	440ee8 <__bss_end__+0x435b58>
     ae4:	00000228 	andeq	r0, r0, r8, lsr #4
     ae8:	000003c5 	andeq	r0, r0, r5, asr #7
     aec:	000003c1 	andeq	r0, r0, r1, asr #7
     af0:	025c2400 	subseq	r2, ip, #0, 8
     af4:	0b010000 	bleq	40afc <__bss_end__+0x3576c>
     af8:	00022808 	andeq	r2, r2, r8, lsl #16
     afc:	00815800 	addeq	r5, r1, r0, lsl #16
     b00:	00001c00 	andeq	r1, r0, r0, lsl #24
     b04:	259c0100 	ldrcs	r0, [ip, #256]	; 0x100
     b08:	0000031e 	andeq	r0, r0, lr, lsl r3
     b0c:	2c182f02 	ldccs	15, cr2, [r8], {2}
     b10:	03000000 	movweq	r0, #0
     b14:	00000775 	andeq	r0, r0, r5, ror r7
     b18:	02006826 	andeq	r6, r0, #2490368	; 0x260000
     b1c:	0228292f 	eoreq	r2, r8, #770048	; 0xbc000
     b20:	27000000 	strcs	r0, [r0, -r0]
     b24:	00000328 	andeq	r0, r0, r8, lsr #6
     b28:	00000328 	andeq	r0, r0, r8, lsr #6
     b2c:	27071e06 	strcs	r1, [r7, -r6, lsl #28]
     b30:	00000286 	andeq	r0, r0, r6, lsl #5
     b34:	00000286 	andeq	r0, r0, r6, lsl #5
     b38:	2707f204 	strcs	pc, [r7, -r4, lsl #4]
     b3c:	0000063c 	andeq	r0, r0, ip, lsr r6
     b40:	0000063c 	andeq	r0, r0, ip, lsr r6
     b44:	27062804 	strcs	r2, [r6, -r4, lsl #16]
     b48:	00000271 	andeq	r0, r0, r1, ror r2
     b4c:	00000271 	andeq	r0, r0, r1, ror r2
     b50:	27050407 	strcs	r0, [r5, -r7, lsl #8]
     b54:	00000051 	andeq	r0, r0, r1, asr r0
     b58:	00000051 	andeq	r0, r0, r1, asr r0
     b5c:	00066e04 	andeq	r6, r6, r4, lsl #28
     b60:	000002ec 	andeq	r0, r0, ip, ror #5
     b64:	03b70004 			; <UNDEFINED> instruction: 0x03b70004
     b68:	01040000 	mrseq	r0, (UNDEF: 4)
     b6c:	00000090 	muleq	r0, r0, r0
     b70:	00035f0c 	andeq	r5, r3, ip, lsl #30
     b74:	00017200 	andeq	r7, r1, r0, lsl #4
     b78:	00853c00 	addeq	r3, r5, r0, lsl #24
     b7c:	00020000 	andeq	r0, r2, r0
     b80:	00047d00 	andeq	r7, r4, r0, lsl #26
     b84:	05040200 	streq	r0, [r4, #-512]	; 0xfffffe00
     b88:	00746e69 	rsbseq	r6, r4, r9, ror #28
     b8c:	cd070403 	cfstrsgt	mvf0, [r7, #-12]
     b90:	03000001 	movweq	r0, #1
     b94:	00450601 	subeq	r0, r5, r1, lsl #12
     b98:	02030000 	andeq	r0, r3, #0, 0
     b9c:	0001fb05 	andeq	pc, r1, r5, lsl #22
     ba0:	05040300 	streq	r0, [r4, #-768]	; 0xfffffd00
     ba4:	000001df 	ldrdeq	r0, [r0], -pc	; <UNPREDICTABLE>
     ba8:	da050803 	ble	142bbc <__bss_end__+0x13782c>
     bac:	03000001 	movweq	r0, #1
     bb0:	00430801 	subeq	r0, r3, r1, lsl #16
     bb4:	02030000 	andeq	r0, r3, #0, 0
     bb8:	00007d07 	andeq	r7, r0, r7, lsl #26
     bbc:	07040300 	streq	r0, [r4, -r0, lsl #6]
     bc0:	000001c8 	andeq	r0, r0, r8, asr #3
     bc4:	c3070803 	movwgt	r0, #30723	; 0x7803
     bc8:	04000001 	streq	r0, [r0], #-1
     bcc:	00000025 	andeq	r0, r0, r5, lsr #32
     bd0:	0000007a 	andeq	r0, r0, sl, ror r0
     bd4:	00002505 	andeq	r2, r0, r5, lsl #10
     bd8:	e8060000 	stmda	r6, {}	; <UNPREDICTABLE>
     bdc:	02000001 	andeq	r0, r0, #1, 0
     be0:	00860e1c 	addeq	r0, r6, ip, lsl lr
     be4:	04070000 	streq	r0, [r7], #-0
     be8:	0000006b 	andeq	r0, r0, fp, rrx
     bec:	00002504 	andeq	r2, r0, r4, lsl #10
     bf0:	00009b00 	andeq	r9, r0, r0, lsl #22
     bf4:	009b0500 	addseq	r0, fp, r0, lsl #10
     bf8:	07000000 	streq	r0, [r0, -r0]
     bfc:	0000a804 	andeq	sl, r0, r4, lsl #16
     c00:	08010300 	stmdaeq	r1, {r8, r9}
     c04:	0000004c 	andeq	r0, r0, ip, asr #32
     c08:	0000a108 	andeq	sl, r0, r8, lsl #2
     c0c:	067a0600 	ldrbteq	r0, [sl], -r0, lsl #12
     c10:	21020000 	mrscs	r0, (UNDEF: 2)
     c14:	0000b90e 	andeq	fp, r0, lr, lsl #18
     c18:	8c040700 	stchi	7, cr0, [r4], {-0}
     c1c:	09000000 	stmdbeq	r0, {}	; <UNPREDICTABLE>
     c20:	00000344 	andeq	r0, r0, r4, asr #6
     c24:	07050108 	streq	r0, [r5, -r8, lsl #2]
     c28:	000000ec 	andeq	r0, r0, ip, ror #1
     c2c:	0100640a 	tsteq	r0, sl, lsl #8
     c30:	00ec0907 	rsceq	r0, ip, r7, lsl #18
     c34:	700a0000 	andvc	r0, sl, r0
     c38:	08080100 	stmdaeq	r8, {r8}
     c3c:	000000f3 	strdeq	r0, [r0], -r3
     c40:	0070660a 	rsbseq	r6, r0, sl, lsl #12
     c44:	f6090901 			; <UNDEFINED> instruction: 0xf6090901
     c48:	00000000 	andeq	r0, r0, r0
     c4c:	6b040803 	blvs	102c60 <__bss_end__+0xf78d0>
     c50:	0b000003 	bleq	c64 <__code_start__-0x739c>
     c54:	04070c04 	streq	r0, [r7], #-3076	; 0xfffff3fc
     c58:	000000f5 	strdeq	r0, [r0], -r5
     c5c:	0e01080d 	cdpeq	8, 0, cr0, cr1, cr13, {0}
     c60:	00012002 	andeq	r2, r1, r2
     c64:	74700e00 	ldrbtvc	r0, [r0], #-3584	; 0xfffff200
     c68:	10010072 	andne	r0, r1, r2, ror r0
     c6c:	00014211 	andeq	r4, r1, r1, lsl r2
     c70:	850f0000 	strhi	r0, [pc, #-0]	; c78 <__code_start__-0x7388>
     c74:	01000003 	tsteq	r0, r3
     c78:	002c0c11 	eoreq	r0, ip, r1, lsl ip
     c7c:	00040000 	andeq	r0, r4, r0
     c80:	00033709 	andeq	r3, r3, r9, lsl #14
     c84:	0c010800 	stceq	8, cr0, [r1], {-0}
     c88:	0001420f 	andeq	r4, r1, pc, lsl #4
     c8c:	00730a00 	rsbseq	r0, r3, r0, lsl #20
     c90:	fc041201 	stc2	2, cr1, [r4], {1}
     c94:	0a000000 	beq	c9c <__code_start__-0x7364>
     c98:	13010078 	movwne	r0, #4216	; 0x1078
     c9c:	0000bf0e 	andeq	fp, r0, lr, lsl #30
     ca0:	04070000 	streq	r0, [r7], #-0
     ca4:	00000120 	andeq	r0, r0, r0, lsr #2
     ca8:	00038a10 	andeq	r8, r3, r0, lsl sl
     cac:	03140100 	tsteq	r4, #0
     cb0:	00000120 	andeq	r0, r0, r0, lsr #2
     cb4:	00037211 	andeq	r7, r3, r1, lsl r2
     cb8:	0f180100 	svceq	0x00180100
     cbc:	00000148 	andeq	r0, r0, r8, asr #2
     cc0:	af780305 	svcge	0x00780305
     cc4:	52110000 	andspl	r0, r1, #0, 0
     cc8:	01000003 	tsteq	r0, r3
     ccc:	01781019 	cmneq	r8, r9, lsl r0
     cd0:	03050000 	movweq	r0, #20480	; 0x5000
     cd4:	0000af70 	andeq	sl, r0, r0, ror pc
     cd8:	01480407 	cmpeq	r8, r7, lsl #8
     cdc:	4a120000 	bmi	480ce4 <__bss_end__+0x475954>
     ce0:	01000003 	tsteq	r0, r3
     ce4:	85480653 	strbhi	r0, [r8, #-1619]	; 0xfffff9ad
     ce8:	00c40000 	sbceq	r0, r4, r0
     cec:	9c010000 	stcls	0, cr0, [r1], {-0}
     cf0:	000001c7 	andeq	r0, r0, r7, asr #3
     cf4:	00706113 	rsbseq	r6, r0, r3, lsl r1
     cf8:	f3145301 	vcgt.u16	d5, d4, d1
     cfc:	01000000 	mrseq	r0, (UNDEF: 0)
     d00:	70621450 	rsbvc	r1, r2, r0, asr r4
     d04:	0a550100 	beq	154110c <__bss_end__+0x1535d7c>
     d08:	00000178 	andeq	r0, r0, r8, ror r1
     d0c:	000003ee 	andeq	r0, r0, lr, ror #7
     d10:	000003e6 	andeq	r0, r0, r6, ror #7
     d14:	01007014 	tsteq	r0, r4, lsl r0
     d18:	01780f55 	cmneq	r8, r5, asr pc
     d1c:	042a0000 	strteq	r0, [sl], #-0
     d20:	04260000 	strteq	r0, [r6], #-0
     d24:	15000000 	strne	r0, [r0, #-0]
     d28:	00000328 	andeq	r0, r0, r8, lsr #6
     d2c:	f3072b01 	vqrdmulh.s<illegal width 8>	d2, d7, d1
     d30:	88000000 	stmdahi	r0, {}	; <UNPREDICTABLE>
     d34:	b4000086 	strlt	r0, [r0], #-134	; 0xffffff7a
     d38:	01000000 	mrseq	r0, (UNDEF: 0)
     d3c:	0002419c 	muleq	r2, ip, r1
     d40:	03211600 			; <UNDEFINED> instruction: 0x03211600
     d44:	2b010000 	blcs	40d4c <__bss_end__+0x359bc>
     d48:	00002c1a 	andeq	r2, r0, sl, lsl ip
     d4c:	00045000 	andeq	r5, r4, r0
     d50:	00044800 	andeq	r4, r4, r0, lsl #16
     d54:	00701400 	rsbseq	r1, r0, r0, lsl #8
     d58:	780a2d01 	stmdavc	sl, {r0, r8, sl, fp, sp}
     d5c:	98000001 	stmdals	r0, {r0}
     d60:	8a000004 	bhi	d78 <__code_start__-0x7288>
     d64:	17000004 	strne	r0, [r0, -r4]
     d68:	0000033e 	andeq	r0, r0, lr, lsr r3
     d6c:	780e2d01 	stmdavc	lr, {r0, r8, sl, fp, sp}
     d70:	fa000001 	blx	d7c <__code_start__-0x7284>
     d74:	f0000004 			; <UNDEFINED> instruction: 0xf0000004
     d78:	17000004 	strne	r0, [r0, -r4]
     d7c:	00000358 	andeq	r0, r0, r8, asr r3
     d80:	2c0b2e01 	stccs	14, cr2, [fp], {1}
     d84:	40000000 	andmi	r0, r0, r0
     d88:	3e000005 	cdpcc	0, 0, cr0, cr0, cr5, {0}
     d8c:	18000005 	stmdane	r0, {r0, r2}
     d90:	0000872c 	andeq	r8, r0, ip, lsr #14
     d94:	00000241 	andeq	r0, r0, r1, asr #4
     d98:	03500119 	cmpeq	r0, #1073741830	; 0x40000006
     d9c:	0080000a 	addeq	r0, r0, sl
     da0:	037c1a00 	cmneq	ip, #0, 20
     da4:	1c010000 	stcne	0, cr0, [r1], {-0}
     da8:	00017810 	andeq	r7, r1, r0, lsl r8
     dac:	00861c00 	addeq	r1, r6, r0, lsl #24
     db0:	00005c00 	andeq	r5, r0, r0, lsl #24
     db4:	d19c0100 	orrsle	r0, ip, r0, lsl #2
     db8:	1b000002 	blne	dc8 <__code_start__-0x7238>
     dbc:	0100756e 	tsteq	r0, lr, ror #10
     dc0:	002c221c 	eoreq	r2, ip, ip, lsl r2
     dc4:	05570000 	ldrbeq	r0, [r7, #-0]
     dc8:	05530000 	ldrbeq	r0, [r3, #-0]
     dcc:	63140000 	tstvs	r4, #0, 0
     dd0:	21010070 	tstcs	r1, r0, ror r0
     dd4:	0002d108 	andeq	sp, r2, r8, lsl #2
     dd8:	00057b00 	andeq	r7, r5, r0, lsl #22
     ddc:	00057500 	andeq	r7, r5, r0, lsl #10
     de0:	70751400 	rsbsvc	r1, r5, r0, lsl #8
     de4:	0a240100 	beq	9011ec <__bss_end__+0x8f5e5c>
     de8:	00000178 	andeq	r0, r0, r8, ror r1
     dec:	000005aa 	andeq	r0, r0, sl, lsr #11
     df0:	000005a6 	andeq	r0, r0, r6, lsr #11
     df4:	0086401c 	addeq	r4, r6, ip, lsl r0
     df8:	0002d700 	andeq	sp, r2, r0, lsl #14
     dfc:	0002b100 	andeq	fp, r2, r0, lsl #2
     e00:	50011900 	andpl	r1, r1, r0, lsl #18
     e04:	a7fc0305 	ldrbge	r0, [ip, r5, lsl #6]!
     e08:	01190000 	tsteq	r9, r0
     e0c:	00740251 	rsbseq	r0, r4, r1, asr r2
     e10:	86481c00 	strbhi	r1, [r8], -r0, lsl #24
     e14:	02e30000 	rsceq	r0, r3, #0, 0
     e18:	02c70000 	sbceq	r0, r7, #0, 0
     e1c:	01190000 	tsteq	r9, r0
     e20:	00740450 	rsbseq	r0, r4, r0, asr r4
     e24:	1d002433 	cfstrsne	mvf2, [r0, #-204]	; 0xffffff34
     e28:	0000865c 	andeq	r8, r0, ip, asr r6
     e2c:	0000017e 	andeq	r0, r0, lr, ror r1
     e30:	a1040700 	tstge	r4, r0, lsl #14
     e34:	1e000000 	cdpne	0, 0, cr0, cr0, cr0, {0}
     e38:	0000063c 	andeq	r0, r0, ip, lsr r6
     e3c:	0000063c 	andeq	r0, r0, ip, lsr r6
     e40:	1e062802 	cdpne	8, 0, cr2, cr6, cr2, {0}
     e44:	00000377 	andeq	r0, r0, r7, ror r3
     e48:	00000377 	andeq	r0, r0, r7, ror r3
     e4c:	000b1a03 	andeq	r1, fp, r3, lsl #20
     e50:	00000ed1 	ldrdeq	r0, [r0], -r1
     e54:	058e0004 	streq	r0, [lr, #4]
     e58:	01040000 	mrseq	r0, (UNDEF: 4)
     e5c:	00000090 	muleq	r0, r0, r0
     e60:	00046b0c 	andeq	r6, r4, ip, lsl #22
     e64:	00017200 	andeq	r7, r1, r0, lsl #4
     e68:	00873c00 	addeq	r3, r7, r0, lsl #24
     e6c:	00081c00 	andeq	r1, r8, r0, lsl #24
     e70:	0006a900 	andeq	sl, r6, r0, lsl #18
     e74:	05040200 	streq	r0, [r4, #-512]	; 0xfffffe00
     e78:	00746e69 	rsbseq	r6, r4, r9, ror #28
     e7c:	cd070403 	cfstrsgt	mvf0, [r7, #-12]
     e80:	03000001 	movweq	r0, #1
     e84:	00450601 	subeq	r0, r5, r1, lsl #12
     e88:	02030000 	andeq	r0, r3, #0, 0
     e8c:	0001fb05 	andeq	pc, r1, r5, lsl #22
     e90:	05040300 	streq	r0, [r4, #-768]	; 0xfffffd00
     e94:	000001df 	ldrdeq	r0, [r0], -pc	; <UNPREDICTABLE>
     e98:	da050803 	ble	142eac <__bss_end__+0x137b1c>
     e9c:	04000001 	streq	r0, [r0], #-1
     ea0:	00000269 	andeq	r0, r0, r9, ror #4
     ea4:	5b182e03 	blpl	60c6b8 <__bss_end__+0x601328>
     ea8:	03000000 	movweq	r0, #0
     eac:	00430801 	subeq	r0, r3, r1, lsl #16
     eb0:	b8040000 	stmdalt	r4, {}	; <UNPREDICTABLE>
     eb4:	03000002 	movweq	r0, #2
     eb8:	006e1931 	rsbeq	r1, lr, r1, lsr r9
     ebc:	02030000 	andeq	r0, r3, #0, 0
     ec0:	00007d07 	andeq	r7, r0, r7, lsl #26
     ec4:	02af0400 	adceq	r0, pc, #0, 8
     ec8:	34030000 	strcc	r0, [r3], #-0
     ecc:	00008119 	andeq	r8, r0, r9, lsl r1
     ed0:	07040300 	streq	r0, [r4, -r0, lsl #6]
     ed4:	000001c8 	andeq	r0, r0, r8, asr #3
     ed8:	c3070803 	movwgt	r0, #30723	; 0x7803
     edc:	05000001 	streq	r0, [r0, #-1]
     ee0:	00000025 	andeq	r0, r0, r5, lsr #32
     ee4:	0000009e 	muleq	r0, lr, r0
     ee8:	00002506 	andeq	r2, r0, r6, lsl #10
     eec:	e8070000 	stmda	r7, {}	; <UNPREDICTABLE>
     ef0:	04000001 	streq	r0, [r0], #-1
     ef4:	00aa0e1c 	adceq	r0, sl, ip, lsl lr
     ef8:	04080000 	streq	r0, [r8], #-0
     efc:	0000008f 	andeq	r0, r0, pc, lsl #1
     f00:	00002505 	andeq	r2, r0, r5, lsl #10
     f04:	0000bf00 	andeq	fp, r0, r0, lsl #30
     f08:	00bf0600 	adcseq	r0, pc, r0, lsl #12
     f0c:	08000000 	stmdaeq	r0, {}	; <UNPREDICTABLE>
     f10:	0000cc04 	andeq	ip, r0, r4, lsl #24
     f14:	08010300 	stmdaeq	r1, {r8, r9}
     f18:	0000004c 	andeq	r0, r0, ip, asr #32
     f1c:	0000c509 	andeq	ip, r0, r9, lsl #10
     f20:	067a0700 	ldrbteq	r0, [sl], -r0, lsl #14
     f24:	21040000 	mrscs	r0, (UNDEF: 4)
     f28:	0000dd0e 	andeq	sp, r0, lr, lsl #26
     f2c:	b0040800 	andlt	r0, r4, r0, lsl #16
     f30:	0a000000 	beq	f38 <__code_start__-0x70c8>
     f34:	0905020c 	stmdbeq	r5, {r2, r3, r9}
     f38:	00000114 	andeq	r0, r0, r4, lsl r1
     f3c:	00003e0b 	andeq	r3, r0, fp, lsl #28
     f40:	11070200 	mrsne	r0, (UNDEF: 39)
     f44:	000000bf 	strheq	r0, [r0], -pc	; <UNPREDICTABLE>
     f48:	01a60b00 			; <UNDEFINED> instruction: 0x01a60b00
     f4c:	08020000 	stmdaeq	r2, {}	; <UNPREDICTABLE>
     f50:	0000bf11 	andeq	fp, r0, r1, lsl pc
     f54:	200b0400 	andcs	r0, fp, r0, lsl #8
     f58:	02000000 	andeq	r0, r0, #0, 0
     f5c:	002c0e09 	eoreq	r0, ip, r9, lsl #28
     f60:	00080000 	andeq	r0, r8, r0
     f64:	00020504 	andeq	r0, r2, r4, lsl #10
     f68:	030a0200 	movweq	r0, #41472	; 0xa200
     f6c:	000000e3 	andeq	r0, r0, r3, ror #1
     f70:	5b01070c 	blpl	42ba8 <__bss_end__+0x37818>
     f74:	05000000 	streq	r0, [r0, #-0]
     f78:	013b0e09 	teqeq	fp, r9, lsl #28
     f7c:	f50d0000 			; <UNDEFINED> instruction: 0xf50d0000
     f80:	0b000002 	bleq	f90 <__code_start__-0x7070>
     f84:	00022e0d 	andeq	r2, r2, sp, lsl #28
     f88:	0c000c00 	stceq	12, cr0, [r0], {-0}
     f8c:	005b0107 	subseq	r0, fp, r7, lsl #2
     f90:	0a050000 	beq	140f98 <__bss_end__+0x135c08>
     f94:	00015606 	andeq	r5, r1, r6, lsl #12
     f98:	024d0d00 	subeq	r0, sp, #0, 26
     f9c:	0d800000 	stceq	0, cr0, [r0]
     fa0:	00000241 	andeq	r0, r0, r1, asr #4
     fa4:	8d0e00fe 	stchi	0, cr0, [lr, #-1016]	; 0xfffffc08
     fa8:	b4000002 	strlt	r0, [r0], #-2
     fac:	e6100d05 	ldr	r0, [r0], -r5, lsl #26
     fb0:	0b000001 	bleq	fbc <__code_start__-0x7044>
     fb4:	00000332 	andeq	r0, r0, r2, lsr r3
     fb8:	e6140e05 	ldr	r0, [r4], -r5, lsl #28
     fbc:	00000001 	andeq	r0, r0, r1
     fc0:	0002340b 	andeq	r3, r2, fp, lsl #8
     fc4:	0e0f0500 	cfsh32eq	mvfx0, mvfx15, #0
     fc8:	00000075 	andeq	r0, r0, r5, ror r0
     fcc:	029e0b04 	addseq	r0, lr, #4, 22	; 0x1000
     fd0:	10050000 	andne	r0, r5, r0
     fd4:	0000750e 	andeq	r7, r0, lr, lsl #10
     fd8:	250b0800 	strcs	r0, [fp, #-2048]	; 0xfffff800
     fdc:	05000002 	streq	r0, [r0, #-2]
     fe0:	00750e14 	rsbseq	r0, r5, r4, lsl lr
     fe4:	0b0c0000 	bleq	300fec <__bss_end__+0x2f5c5c>
     fe8:	00000294 	muleq	r0, r4, r2
     fec:	140f1605 	strne	r1, [pc], #-1541	; ff4 <__code_start__-0x700c>
     ff0:	10000001 	andne	r0, r0, r1
     ff4:	0003150b 	andeq	r1, r3, fp, lsl #10
     ff8:	0f170500 	svceq	0x00170500
     ffc:	00000114 	andeq	r0, r0, r4, lsl r1
    1000:	02a40b1c 	adceq	r0, r4, #28, 22	; 0x7000
    1004:	1a050000 	bne	14100c <__bss_end__+0x135c7c>
    1008:	0000750e 	andeq	r7, r0, lr, lsl #10
    100c:	e90b2800 	stmdb	fp, {fp, sp}
    1010:	05000002 	streq	r0, [r0, #-2]
    1014:	00750e1b 	rsbseq	r0, r5, fp, lsl lr
    1018:	0b2c0000 	bleq	b01020 <__bss_end__+0xaf5c90>
    101c:	000003e1 	andeq	r0, r0, r1, ror #7
    1020:	620e1d05 	andvs	r1, lr, #320	; 0x140
    1024:	30000000 	andcc	r0, r0, r0
    1028:	317a720f 	cmncc	sl, pc, lsl #4
    102c:	0d1f0500 	cfldr32eq	mvfx0, [pc, #-0]	; 1034 <__code_start__-0x6fcc>
    1030:	000001ec 	andeq	r0, r0, ip, ror #3
    1034:	04080032 	streq	r0, [r8], #-50	; 0xffffffce
    1038:	00000156 	andeq	r0, r0, r6, asr r1
    103c:	00004f10 	andeq	r4, r0, r0, lsl pc
    1040:	0001fc00 	andeq	pc, r1, r0, lsl #24
    1044:	002c1100 	eoreq	r1, ip, r0, lsl #2
    1048:	007f0000 	rsbseq	r0, pc, r0
    104c:	00021f04 	andeq	r1, r2, r4, lsl #30
    1050:	03200500 	nopeq	{0}	; <UNPREDICTABLE>
    1054:	00000156 	andeq	r0, r0, r6, asr r1
    1058:	00070412 	andeq	r0, r7, r2, lsl r4
    105c:	05000000 	streq	r0, [r0, #-0]
    1060:	002c11a6 	eoreq	r1, ip, r6, lsr #3
    1064:	13130000 	tstne	r3, #0, 0
    1068:	0100000b 	tsteq	r0, fp
    106c:	02080e10 	andeq	r0, r8, #16, 28	; 0x100
    1070:	03050000 	movweq	r0, #20480	; 0x5000
    1074:	0000af80 	andeq	sl, r0, r0, lsl #31
    1078:	000b6e13 	andeq	r6, fp, r3, lsl lr
    107c:	0e110100 	mufeqs	f0, f1, f0
    1080:	00000208 	andeq	r0, r0, r8, lsl #4
    1084:	af840305 	svcge	0x00840305
    1088:	a4140000 	ldrge	r0, [r4], #-0
    108c:	01000003 	tsteq	r0, r3
    1090:	28060132 	stmdacs	r6, {r1, r4, r5, r8}
    1094:	3000008f 	andcc	r0, r0, pc, lsl #1
    1098:	01000000 	mrseq	r0, (UNDEF: 0)
    109c:	00029a9c 	muleq	r2, ip, sl
    10a0:	01b61500 			; <UNDEFINED> instruction: 0x01b61500
    10a4:	02aa0000 	adceq	r0, sl, #0, 0
    10a8:	03050000 	movweq	r0, #20480	; 0x5000
    10ac:	0000abc0 	andeq	sl, r0, r0, asr #23
    10b0:	008f4816 	addeq	r4, pc, r6, lsl r8	; <UNPREDICTABLE>
    10b4:	000e4d00 	andeq	r4, lr, r0, lsl #26
    10b8:	00029000 	andeq	r9, r2, r0
    10bc:	50011700 	andpl	r1, r1, r0, lsl #14
    10c0:	ab500305 	blge	1401cdc <__bss_end__+0x13f694c>
    10c4:	01170000 	tsteq	r7, r0
    10c8:	20030551 	andcs	r0, r3, r1, asr r5
    10cc:	170000a8 	strne	r0, [r0, -r8, lsr #1]
    10d0:	03055201 	movweq	r5, #20993	; 0x5201
    10d4:	0000abc0 	andeq	sl, r0, r0, asr #23
    10d8:	03530117 	cmpeq	r3, #-1073741819	; 0xc0000005
    10dc:	0001340a 	andeq	r3, r1, sl, lsl #8
    10e0:	008f4c18 	addeq	r4, pc, r8, lsl ip	; <UNPREDICTABLE>
    10e4:	000e5900 	andeq	r5, lr, r0, lsl #18
    10e8:	cc100000 	ldcgt	0, cr0, [r0], {-0}
    10ec:	aa000000 	bge	10f4 <__code_start__-0x6f0c>
    10f0:	11000002 	tstne	r0, r2
    10f4:	0000002c 	andeq	r0, r0, ip, lsr #32
    10f8:	9a09000e 	bls	241138 <__bss_end__+0x235da8>
    10fc:	19000002 	stmdbne	r0, {r1}
    1100:	0000040b 	andeq	r0, r0, fp, lsl #8
    1104:	0a012801 	beq	4b110 <__bss_end__+0x3fd80>
    1108:	0000002c 	andeq	r0, r0, ip, lsr #32
    110c:	00008efc 	strdeq	r8, [r0], -ip
    1110:	00000018 	andeq	r0, r0, r8, lsl r0
    1114:	02f29c01 	rscseq	r9, r2, #256	; 0x100
    1118:	211a0000 	tstcs	sl, r0
    111c:	01000003 	tsteq	r0, r3
    1120:	2c0e012b 	stfcss	f0, [lr], {43}	; 0x2b
    1124:	cc000000 	stcgt	0, cr0, [r0], {-0}
    1128:	ca000005 	bgt	1144 <__code_start__-0x6ebc>
    112c:	18000005 	stmdane	r0, {r0, r2}
    1130:	00008f0c 	andeq	r8, r0, ip, lsl #30
    1134:	0000093d 	andeq	r0, r0, sp, lsr r9
    1138:	008f1018 	addeq	r1, pc, r8, lsl r0	; <UNPREDICTABLE>
    113c:	0002f200 	andeq	pc, r2, r0, lsl #4
    1140:	e11b0000 	tst	fp, r0
    1144:	01000004 	tsteq	r0, r4
    1148:	2c110110 	ldfcss	f0, [r1], {16}
    114c:	20000000 	andcs	r0, r0, r0
    1150:	e400008b 	str	r0, [r0], #-139	; 0xffffff75
    1154:	01000000 	mrseq	r0, (UNDEF: 0)
    1158:	0004619c 	muleq	r4, ip, r1
    115c:	03c11a00 	biceq	r1, r1, #0, 20
    1160:	12010000 	andne	r0, r1, #0, 0
    1164:	002c0e01 	eoreq	r0, ip, r1, lsl #28
    1168:	05e30000 	strbeq	r0, [r3, #0]!
    116c:	05df0000 	ldrbeq	r0, [pc]	; 1174 <__code_start__-0x6e8c>
    1170:	481a0000 	ldmdami	sl, {}	; <UNPREDICTABLE>
    1174:	01000004 	tsteq	r0, r4
    1178:	2c1b0112 	ldfcss	f0, [fp], {18}
    117c:	06000000 	streq	r0, [r0], -r0
    1180:	02000006 	andeq	r0, r0, #6, 0
    1184:	1a000006 	bne	11a4 <__code_start__-0x6e5c>
    1188:	000003d0 	ldrdeq	r0, [r0], -r0	; <UNPREDICTABLE>
    118c:	27011201 	strcs	r1, [r1, -r1, lsl #4]
    1190:	0000002c 	andeq	r0, r0, ip, lsr #32
    1194:	0000062b 	andeq	r0, r0, fp, lsr #12
    1198:	00000625 	andeq	r0, r0, r5, lsr #12
    119c:	0001b615 	andeq	fp, r1, r5, lsl r6
    11a0:	00047100 	andeq	r7, r4, r0, lsl #2
    11a4:	88030500 	stmdahi	r3, {r8, sl}
    11a8:	1c0000ab 	stcne	0, cr0, [r0], {171}	; 0xab
    11ac:	00000060 	andeq	r0, r0, r0, rrx
    11b0:	00000404 	andeq	r0, r0, r4, lsl #8
    11b4:	0100681d 	tsteq	r0, sp, lsl r8
    11b8:	76110117 			; <UNDEFINED> instruction: 0x76110117
    11bc:	5d000004 	stcpl	0, cr0, [r0, #-16]
    11c0:	55000006 	strpl	r0, [r0, #-6]
    11c4:	1e000006 	cdpne	0, 0, cr0, cr0, cr6, {0}
    11c8:	00000e17 	andeq	r0, r0, r7, lsl lr
    11cc:	00008b6c 	andeq	r8, r0, ip, ror #22
    11d0:	008b6c00 	addeq	r6, fp, r0, lsl #24
    11d4:	00001800 	andeq	r1, r0, r0, lsl #16
    11d8:	011e0100 	tsteq	lr, r0, lsl #2
    11dc:	0003b90d 	andeq	fp, r3, sp, lsl #18
    11e0:	0e401f00 	cdpeq	15, 4, cr1, cr0, cr0, {0}
    11e4:	06930000 	ldreq	r0, [r3], r0
    11e8:	06910000 	ldreq	r0, [r1], r0
    11ec:	341f0000 	ldrcc	r0, [pc], #-0	; 11f4 <__code_start__-0x6e0c>
    11f0:	ab00000e 	blge	1230 <__code_start__-0x6dd0>
    11f4:	a9000006 	stmdbge	r0, {r1, r2}
    11f8:	1f000006 	svcne	0x00000006
    11fc:	00000e28 	andeq	r0, r0, r8, lsr #28
    1200:	000006c5 	andeq	r0, r0, r5, asr #13
    1204:	000006c3 	andeq	r0, r0, r3, asr #13
    1208:	8b481800 	blhi	1207210 <__bss_end__+0x11fbe80>
    120c:	0e740000 	cdpeq	0, 7, cr0, cr4, cr0, {0}
    1210:	94160000 	ldrls	r0, [r6], #-0
    1214:	8000008b 	andhi	r0, r0, fp, lsl #1
    1218:	d600000e 	strle	r0, [r0], -lr
    121c:	17000003 	strne	r0, [r0, -r3]
    1220:	76025001 	strvc	r5, [r2], -r1
    1224:	a0160000 	andsge	r0, r6, r0
    1228:	4d00008b 	stcmi	0, cr0, [r0, #-556]	; 0xfffffdd4
    122c:	f300000e 	vhadd.u8	d0, d0, d14
    1230:	17000003 	strne	r0, [r0, -r3]
    1234:	03055001 	movweq	r5, #20481	; 0x5001
    1238:	0000a9fc 	strdeq	sl, [r0], -ip
    123c:	02510117 	subseq	r0, r1, #-1073741819	; 0xc0000005
    1240:	20000076 	andcs	r0, r0, r6, ror r0
    1244:	00008ba8 	andeq	r8, r0, r8, lsr #23
    1248:	00000e8c 	andeq	r0, r0, ip, lsl #29
    124c:	02500117 	subseq	r0, r0, #-1073741819	; 0xc0000005
    1250:	00000074 	andeq	r0, r0, r4, ror r0
    1254:	008b3816 	addeq	r3, fp, r6, lsl r8
    1258:	000e4d00 	andeq	r4, lr, r0, lsl #26
    125c:	00041b00 	andeq	r1, r4, r0, lsl #22
    1260:	50011700 	andpl	r1, r1, r0, lsl #14
    1264:	a8b80305 	ldmge	r8!, {r0, r2, r8, r9}
    1268:	16000000 	strne	r0, [r0], -r0
    126c:	00008b40 	andeq	r8, r0, r0, asr #22
    1270:	00000e4d 	andeq	r0, r0, sp, asr #28
    1274:	00000432 	andeq	r0, r0, r2, lsr r4
    1278:	05500117 	ldrbeq	r0, [r0, #-279]	; 0xfffffee9
    127c:	00a9ec03 	adceq	lr, r9, r3, lsl #24
    1280:	44180000 	ldrmi	r0, [r8], #-0
    1284:	3d00008b 	stccc	0, cr0, [r0, #-556]	; 0xfffffdd4
    1288:	20000009 	andcs	r0, r0, r9
    128c:	00008bdc 	ldrdeq	r8, [r0], -ip
    1290:	00000e4d 	andeq	r0, r0, sp, asr #28
    1294:	05500117 	ldrbeq	r0, [r0, #-279]	; 0xfffffee9
    1298:	00aa0c03 	adceq	r0, sl, r3, lsl #24
    129c:	51011700 	tstpl	r1, r0, lsl #14
    12a0:	17007502 	strne	r7, [r0, -r2, lsl #10]
    12a4:	78025201 	stmdavc	r2, {r0, r9, ip, lr}
    12a8:	53011700 	movwpl	r1, #5888	; 0x1700
    12ac:	00007702 	andeq	r7, r0, r2, lsl #14
    12b0:	00cc1000 	sbceq	r1, ip, r0
    12b4:	04710000 	ldrbteq	r0, [r1], #-0
    12b8:	2c110000 	ldccs	0, cr0, [r1], {-0}
    12bc:	0a000000 	beq	12c4 <__code_start__-0x6d3c>
    12c0:	04610900 	strbteq	r0, [r1], #-2304	; 0xfffff700
    12c4:	04080000 	streq	r0, [r8], #-0
    12c8:	000001fc 	strdeq	r0, [r0], -ip
    12cc:	00047319 	andeq	r7, r4, r9, lsl r3
    12d0:	01000100 	mrseq	r0, (UNDEF: 16)
    12d4:	00002c0a 	andeq	r2, r0, sl, lsl #24
    12d8:	008e9800 	addeq	r9, lr, r0, lsl #16
    12dc:	00005800 	andeq	r5, r0, r0, lsl #16
    12e0:	259c0100 	ldrcs	r0, [ip, #256]	; 0x100
    12e4:	1a000005 	bne	1300 <__code_start__-0x6d00>
    12e8:	00000428 	andeq	r0, r0, r8, lsr #8
    12ec:	0e010601 	cfmadd32eq	mvax0, mvfx0, mvfx1, mvfx1
    12f0:	0000002c 	andeq	r0, r0, ip, lsr #32
    12f4:	000006e3 	andeq	r0, r0, r3, ror #13
    12f8:	000006dd 	ldrdeq	r0, [r0], -sp
    12fc:	0001b615 	andeq	fp, r1, r5, lsl r6
    1300:	00053500 	andeq	r3, r5, r0, lsl #10
    1304:	ac030500 	cfstr32ge	mvfx0, [r3], {-0}
    1308:	160000ab 	strne	r0, [r0], -fp, lsr #1
    130c:	00008eac 	andeq	r8, r0, ip, lsr #29
    1310:	000005d7 	ldrdeq	r0, [r0], -r7
    1314:	000004ce 	andeq	r0, r0, lr, asr #9
    1318:	01500117 	cmpeq	r0, r7, lsl r1
    131c:	c0160031 	andsgt	r0, r6, r1, lsr r0
    1320:	4d00008e 	stcmi	0, cr0, [r0, #-568]	; 0xfffffdc8
    1324:	eb00000e 	bl	1364 <__code_start__-0x6c9c>
    1328:	17000004 	strne	r0, [r0, -r4]
    132c:	03055001 	movweq	r5, #20481	; 0x5001
    1330:	0000ab2c 	andeq	sl, r0, ip, lsr #22
    1334:	02510117 	subseq	r0, r1, #-1073741819	; 0xc0000005
    1338:	16000074 			; <UNDEFINED> instruction: 0x16000074
    133c:	00008edc 	ldrdeq	r8, [r0], -ip
    1340:	00000e4d 	andeq	r0, r0, sp, asr #28
    1344:	0000051b 	andeq	r0, r0, fp, lsl r5
    1348:	05500117 	ldrbeq	r0, [r0, #-279]	; 0xfffffee9
    134c:	00ab0403 	adceq	r0, fp, r3, lsl #8
    1350:	51011700 	tstpl	r1, r0, lsl #14
    1354:	a8200305 	stmdage	r0!, {r0, r2, r8, r9}
    1358:	01170000 	tsteq	r7, r0
    135c:	ac030552 	cfstr32ge	mvfx0, [r3], {82}	; 0x52
    1360:	170000ab 	strne	r0, [r0, -fp, lsr #1]
    1364:	0a035301 	beq	d5f70 <__bss_end__+0xcabe0>
    1368:	18000108 	stmdane	r0, {r3, r8}
    136c:	00008ee0 	andeq	r8, r0, r0, ror #29
    1370:	00000e59 	andeq	r0, r0, r9, asr lr
    1374:	00cc1000 	sbceq	r1, ip, r0
    1378:	05350000 	ldreq	r0, [r5, #-0]!
    137c:	2c110000 	ldccs	0, cr0, [r1], {-0}
    1380:	11000000 	mrsne	r0, (UNDEF: 0)
    1384:	05250900 	streq	r0, [r5, #-2304]!	; 0xfffff700
    1388:	4f210000 	svcmi	0x00210000
    138c:	01000004 	tsteq	r0, r4
    1390:	8e3006f2 	mrchi	6, 1, r0, cr0, cr2, {7}
    1394:	00500000 	subseq	r0, r0, r0
    1398:	9c010000 	stcls	0, cr0, [r1], {-0}
    139c:	000005c2 	andeq	r0, r0, r2, asr #11
    13a0:	0001b615 	andeq	fp, r1, r5, lsl r6
    13a4:	0005d200 	andeq	sp, r5, r0, lsl #4
    13a8:	9c030500 	cfstr32ls	mvfx0, [r3], {-0}
    13ac:	160000ab 	strne	r0, [r0], -fp, lsr #1
    13b0:	00008e44 	andeq	r8, r0, r4, asr #28
    13b4:	000005d7 	ldrdeq	r0, [r0], -r7
    13b8:	00000572 	andeq	r0, r0, r2, ror r5
    13bc:	01500117 	cmpeq	r0, r7, lsl r1
    13c0:	54160031 	ldrpl	r0, [r6], #-49	; 0xffffffcf
    13c4:	4d00008e 	stcmi	0, cr0, [r0, #-568]	; 0xfffffdc8
    13c8:	8900000e 	stmdbhi	r0, {r1, r2, r3}
    13cc:	17000005 	strne	r0, [r0, -r5]
    13d0:	03055001 	movweq	r5, #20481	; 0x5001
    13d4:	0000aae4 	andeq	sl, r0, r4, ror #21
    13d8:	8e6c1600 	cdphi	6, 6, cr1, cr12, cr0, {0}
    13dc:	0e4d0000 	cdpeq	0, 4, cr0, cr13, cr0, {0}
    13e0:	05b80000 	ldreq	r0, [r8, #0]!
    13e4:	01170000 	tsteq	r7, r0
    13e8:	b8030550 	stmdalt	r3, {r4, r6, r8, sl}
    13ec:	170000aa 	strne	r0, [r0, -sl, lsr #1]
    13f0:	03055101 	movweq	r5, #20737	; 0x5101
    13f4:	0000a820 	andeq	sl, r0, r0, lsr #16
    13f8:	05520117 	ldrbeq	r0, [r2, #-279]	; 0xfffffee9
    13fc:	00ab9c03 	adceq	r9, fp, r3, lsl #24
    1400:	53011700 	movwpl	r1, #5888	; 0x1700
    1404:	00f90802 	rscseq	r0, r9, r2, lsl #16
    1408:	008e7018 	addeq	r7, lr, r8, lsl r0
    140c:	000e5900 	andeq	r5, lr, r0, lsl #18
    1410:	cc100000 	ldcgt	0, cr0, [r0], {-0}
    1414:	d2000000 	andle	r0, r0, #0, 0
    1418:	11000005 	tstne	r0, r5
    141c:	0000002c 	andeq	r0, r0, ip, lsr #32
    1420:	c209000d 	andgt	r0, r9, #13, 0
    1424:	22000005 	andcs	r0, r0, #5, 0
    1428:	000003f0 	strdeq	r0, [r0], -r0	; <UNPREDICTABLE>
    142c:	2c0aeb01 			; <UNDEFINED> instruction: 0x2c0aeb01
    1430:	08000000 	stmdaeq	r0, {}	; <UNPREDICTABLE>
    1434:	1400008e 	strne	r0, [r0], #-142	; 0xffffff72
    1438:	01000000 	mrseq	r0, (UNDEF: 0)
    143c:	0006179c 	muleq	r6, ip, r7
    1440:	04ec2300 	strbteq	r2, [ip], #768	; 0x300
    1444:	eb010000 	bl	4144c <__bss_end__+0x360bc>
    1448:	0000251c 	andeq	r2, r0, ip, lsl r5
    144c:	00071000 	andeq	r1, r7, r0
    1450:	00070c00 	andeq	r0, r7, r0, lsl #24
    1454:	8e182000 	cdphi	0, 1, cr2, cr8, cr0, {0}
    1458:	06170000 	ldreq	r0, [r7], -r0
    145c:	01170000 	tsteq	r7, r0
    1460:	01f30350 	mvnseq	r0, r0, asr r3
    1464:	24000050 	strcs	r0, [r0], #-80	; 0xffffffb0
    1468:	000004c7 	andeq	r0, r0, r7, asr #9
    146c:	2c11c201 	lfmcs	f4, 1, [r1], {1}
    1470:	14000000 	strne	r0, [r0], #-0
    1474:	fc00008a 	stc2	0, cr0, [r0], {138}	; 0x8a
    1478:	01000000 	mrseq	r0, (UNDEF: 0)
    147c:	00079e9c 	muleq	r7, ip, lr
    1480:	04ec2300 	strbteq	r2, [ip], #768	; 0x300
    1484:	c2010000 	andgt	r0, r1, #0, 0
    1488:	00002520 	andeq	r2, r0, r0, lsr #10
    148c:	00073500 	andeq	r3, r7, r0, lsl #10
    1490:	00073100 	andeq	r3, r7, r0, lsl #2
    1494:	03c12500 	biceq	r2, r1, #0, 10
    1498:	c4010000 	strgt	r0, [r1], #-0
    149c:	00002c0e 	andeq	r2, r0, lr, lsl #24
    14a0:	00075700 	andeq	r5, r7, r0, lsl #14
    14a4:	00075300 	andeq	r5, r7, r0, lsl #6
    14a8:	04042500 	streq	r2, [r4], #-1280	; 0xfffffb00
    14ac:	c4010000 	strgt	r0, [r1], #-0
    14b0:	00002c1b 	andeq	r2, r0, fp, lsl ip
    14b4:	00077c00 	andeq	r7, r7, r0, lsl #24
    14b8:	00077600 	andeq	r7, r7, r0, lsl #12
    14bc:	03fe2500 	mvnseq	r2, #0, 10
    14c0:	c4010000 	strgt	r0, [r1], #-0
    14c4:	00002c27 	andeq	r2, r0, r7, lsr #24
    14c8:	0007aa00 	andeq	sl, r7, r0, lsl #20
    14cc:	0007a600 	andeq	sl, r7, r0, lsl #12
    14d0:	00481c00 	subeq	r1, r8, r0, lsl #24
    14d4:	06fc0000 	ldrbteq	r0, [ip], r0
    14d8:	68260000 	stmdavs	r6!, {}	; <UNPREDICTABLE>
    14dc:	11c90100 	bicne	r0, r9, r0, lsl #2
    14e0:	00000476 	andeq	r0, r0, r6, ror r4
    14e4:	000007d7 	ldrdeq	r0, [r0], -r7
    14e8:	000007c9 	andeq	r0, r0, r9, asr #15
    14ec:	008a3c18 	addeq	r3, sl, r8, lsl ip
    14f0:	000e7400 	andeq	r7, lr, r0, lsl #8
    14f4:	8a641600 	bhi	1906cfc <__bss_end__+0x18fb96c>
    14f8:	0e4d0000 	cdpeq	0, 4, cr0, cr13, cr0, {0}
    14fc:	06c80000 	strbeq	r0, [r8], r0
    1500:	01170000 	tsteq	r7, r0
    1504:	0c030550 	cfstr32eq	mvfx0, [r3], {80}	; 0x50
    1508:	170000a9 	strne	r0, [r0, -r9, lsr #1]
    150c:	75025101 	strvc	r5, [r2, #-257]	; 0xfffffeff
    1510:	52011700 	andpl	r1, r1, #0, 14
    1514:	00007402 	andeq	r7, r0, r2, lsl #8
    1518:	008a6c16 	addeq	r6, sl, r6, lsl ip
    151c:	000e8c00 	andeq	r8, lr, r0, lsl #24
    1520:	0006dc00 	andeq	sp, r6, r0, lsl #24
    1524:	50011700 	andpl	r1, r1, r0, lsl #14
    1528:	00007402 	andeq	r7, r0, r2, lsl #8
    152c:	008aa420 	addeq	sl, sl, r0, lsr #8
    1530:	000e4d00 	andeq	r4, lr, r0, lsl #26
    1534:	50011700 	andpl	r1, r1, r0, lsl #14
    1538:	a9200305 	stmdbge	r0!, {r0, r2, r8, r9}
    153c:	01170000 	tsteq	r7, r0
    1540:	00750251 	rsbseq	r0, r5, r1, asr r2
    1544:	02520117 	subseq	r0, r2, #-1073741819	; 0xc0000005
    1548:	00000074 	andeq	r0, r0, r4, ror r0
    154c:	008a2c16 	addeq	r2, sl, r6, lsl ip
    1550:	000e4d00 	andeq	r4, lr, r0, lsl #26
    1554:	00071300 	andeq	r1, r7, r0, lsl #6
    1558:	50011700 	andpl	r1, r1, r0, lsl #14
    155c:	a8b80305 	ldmge	r8!, {r0, r2, r8, r9}
    1560:	16000000 	strne	r0, [r0], -r0
    1564:	00008a34 	andeq	r8, r0, r4, lsr sl
    1568:	00000e4d 	andeq	r0, r0, sp, asr #28
    156c:	0000072a 	andeq	r0, r0, sl, lsr #14
    1570:	05500117 	ldrbeq	r0, [r0, #-279]	; 0xfffffee9
    1574:	00a8f403 	adceq	pc, r8, r3, lsl #8
    1578:	38180000 	ldmdacc	r8, {}	; <UNPREDICTABLE>
    157c:	3d00008a 	stccc	0, cr0, [r0, #-552]	; 0xfffffdd8
    1580:	16000009 	strne	r0, [r0], -r9
    1584:	00008ab4 			; <UNDEFINED> instruction: 0x00008ab4
    1588:	00000e4d 	andeq	r0, r0, sp, asr #28
    158c:	00000750 	andeq	r0, r0, r0, asr r7
    1590:	05500117 	ldrbeq	r0, [r0, #-279]	; 0xfffffee9
    1594:	00a93803 	adceq	r3, r9, r3, lsl #16
    1598:	51011700 	tstpl	r1, r0, lsl #14
    159c:	00007502 	andeq	r7, r0, r2, lsl #10
    15a0:	008ac416 	addeq	ip, sl, r6, lsl r4
    15a4:	000e4d00 	andeq	r4, lr, r0, lsl #26
    15a8:	00076700 	andeq	r6, r7, r0, lsl #14
    15ac:	50011700 	andpl	r1, r1, r0, lsl #14
    15b0:	a9580305 	ldmdbge	r8, {r0, r2, r8, r9}^
    15b4:	16000000 	strne	r0, [r0], -r0
    15b8:	00008acc 	andeq	r8, r0, ip, asr #21
    15bc:	00000e4d 	andeq	r0, r0, sp, asr #28
    15c0:	0000077e 	andeq	r0, r0, lr, ror r7
    15c4:	05500117 	ldrbeq	r0, [r0, #-279]	; 0xfffffee9
    15c8:	00a9b003 	adceq	fp, r9, r3
    15cc:	ec200000 	stc	0, cr0, [r0], #-0
    15d0:	4d00008a 	stcmi	0, cr0, [r0, #-552]	; 0xfffffdd8
    15d4:	1700000e 	strne	r0, [r0, -lr]
    15d8:	03055001 	movweq	r5, #20481	; 0x5001
    15dc:	0000a980 	andeq	sl, r0, r0, lsl #19
    15e0:	02510117 	subseq	r0, r1, #-1073741819	; 0xc0000005
    15e4:	01170076 	tsteq	r7, r6, ror r0
    15e8:	00780252 	rsbseq	r0, r8, r2, asr r2
    15ec:	2f220000 	svccs	0x00220000
    15f0:	01000000 	mrseq	r0, (UNDEF: 0)
    15f4:	002505ac 	eoreq	r0, r5, ip, lsr #11
    15f8:	8d200000 	stchi	0, cr0, [r0, #-0]
    15fc:	00d40000 	sbcseq	r0, r4, r0
    1600:	9c010000 	stcls	0, cr0, [r1], {-0}
    1604:	000008ce 	andeq	r0, r0, lr, asr #17
    1608:	00040425 	andeq	r0, r4, r5, lsr #8
    160c:	09ad0100 	stmibeq	sp!, {r8}
    1610:	00000025 	andeq	r0, r0, r5, lsr #32
    1614:	00000830 	andeq	r0, r0, r0, lsr r8
    1618:	0000082c 	andeq	r0, r0, ip, lsr #16
    161c:	00009027 	andeq	r9, r0, r7, lsr #32
    1620:	00682600 	rsbeq	r2, r8, r0, lsl #12
    1624:	7611ae01 	ldrvc	sl, [r1], -r1, lsl #28
    1628:	5b000004 	blpl	1640 <__code_start__-0x69c0>
    162c:	4f000008 	svcmi	0x00000008
    1630:	1c000008 	stcne	0, cr0, [r0], {8}
    1634:	000000a8 	andeq	r0, r0, r8, lsr #1
    1638:	000008b3 			; <UNDEFINED> instruction: 0x000008b3
    163c:	00042f25 	andeq	r2, r4, r5, lsr #30
    1640:	0daf0100 	stfeqs	f0, [pc]	; 1648 <__code_start__-0x69b8>
    1644:	00000025 	andeq	r0, r0, r5, lsr #32
    1648:	000008ad 	andeq	r0, r0, sp, lsr #17
    164c:	000008a5 	andeq	r0, r0, r5, lsr #17
    1650:	0000c01c 	andeq	ip, r0, ip, lsl r0
    1654:	00085a00 	andeq	r5, r8, r0, lsl #20
    1658:	00652600 	rsbeq	r2, r5, r0, lsl #12
    165c:	2511b401 	ldrcs	fp, [r1, #-1025]	; 0xfffffbff
    1660:	e6000000 	str	r0, [r0], -r0
    1664:	e2000008 	and	r0, r0, #8, 0
    1668:	16000008 	strne	r0, [r0], -r8
    166c:	00008d50 	andeq	r8, r0, r0, asr sp
    1670:	00000e4d 	andeq	r0, r0, sp, asr #28
    1674:	00000832 	andeq	r0, r0, r2, lsr r8
    1678:	05500117 	ldrbeq	r0, [r0, #-279]	; 0xfffffee9
    167c:	00a70c03 	adceq	r0, r7, r3, lsl #24
    1680:	58160000 	ldmdapl	r6, {}	; <UNPREDICTABLE>
    1684:	4d00008d 	stcmi	0, cr0, [r0, #-564]	; 0xfffffdcc
    1688:	4900000e 	stmdbmi	r0, {r1, r2, r3}
    168c:	17000008 	strne	r0, [r0, -r8]
    1690:	03055001 	movweq	r5, #20481	; 0x5001
    1694:	0000aaa0 	andeq	sl, r0, r0, lsr #21
    1698:	8dd02000 	ldclhi	0, cr2, [r0]
    169c:	08ce0000 	stmiaeq	lr, {}^	; <UNPREDICTABLE>
    16a0:	01170000 	tsteq	r7, r0
    16a4:	00770250 	rsbseq	r0, r7, r0, asr r2
    16a8:	7c160000 	ldcvc	0, cr0, [r6], {-0}
    16ac:	ce00008d 	cdpgt	0, 0, cr0, cr0, cr13, {4}
    16b0:	74000008 	strvc	r0, [r0], #-8
    16b4:	17000008 	strne	r0, [r0, -r8]
    16b8:	74025001 	strvc	r5, [r2], #-1
    16bc:	51011732 	tstpl	r1, r2, lsr r7
    16c0:	00800802 	addeq	r0, r0, r2, lsl #16
    16c4:	008d9816 	addeq	r9, sp, r6, lsl r8
    16c8:	0008ce00 	andeq	ip, r8, r0, lsl #28
    16cc:	00088800 	andeq	r8, r8, r0, lsl #16
    16d0:	51011700 	tstpl	r1, r0, lsl #14
    16d4:	00800802 	addeq	r0, r0, r2, lsl #16
    16d8:	008db016 	addeq	fp, sp, r6, lsl r0
    16dc:	000e4d00 	andeq	r4, lr, r0, lsl #26
    16e0:	00089f00 	andeq	r9, r8, r0, lsl #30
    16e4:	50011700 	andpl	r1, r1, r0, lsl #14
    16e8:	a70c0305 	strge	r0, [ip, -r5, lsl #6]
    16ec:	20000000 	andcs	r0, r0, r0
    16f0:	00008db8 			; <UNDEFINED> instruction: 0x00008db8
    16f4:	00000e4d 	andeq	r0, r0, sp, asr #28
    16f8:	05500117 	ldrbeq	r0, [r0, #-279]	; 0xfffffee9
    16fc:	00aa7003 	adceq	r7, sl, r3
    1700:	18000000 	stmdane	r0, {}	; <UNPREDICTABLE>
    1704:	00008d30 	andeq	r8, r0, r0, lsr sp
    1708:	00000e74 	andeq	r0, r0, r4, ror lr
    170c:	008d6420 	addeq	r6, sp, r0, lsr #8
    1710:	000e8c00 	andeq	r8, lr, r0, lsl #24
    1714:	50011700 	andpl	r1, r1, r0, lsl #14
    1718:	00007402 	andeq	r7, r0, r2, lsl #8
    171c:	91220000 			; <UNDEFINED> instruction: 0x91220000
    1720:	01000004 	tsteq	r0, r4
    1724:	002c0ea2 	eoreq	r0, ip, r2, lsr #29
    1728:	8cd00000 	ldclhi	0, cr0, [r0], {0}
    172c:	003c0000 	eorseq	r0, ip, r0
    1730:	9c010000 	stcls	0, cr0, [r1], {-0}
    1734:	00000937 	andeq	r0, r0, r7, lsr r9
    1738:	0004a023 	andeq	sl, r4, r3, lsr #32
    173c:	23a20100 			; <UNDEFINED> instruction: 0x23a20100
    1740:	00000937 	andeq	r0, r0, r7, lsr r9
    1744:	00000908 	andeq	r0, r0, r8, lsl #18
    1748:	00000904 	andeq	r0, r0, r4, lsl #18
    174c:	00032128 	andeq	r2, r3, r8, lsr #2
    1750:	30a20100 	adccc	r0, r2, r0, lsl #2
    1754:	00000025 	andeq	r0, r0, r5, lsr #32
    1758:	00255101 	eoreq	r5, r5, r1, lsl #2
    175c:	01000005 	tsteq	r0, r5
    1760:	002509a3 	eoreq	r0, r5, r3, lsr #19
    1764:	092a0000 	stmdbeq	sl!, {}	; <UNPREDICTABLE>
    1768:	09260000 	stmdbeq	r6!, {}	; <UNPREDICTABLE>
    176c:	78270000 	stmdavc	r7!, {}	; <UNPREDICTABLE>
    1770:	26000000 	strcs	r0, [r0], -r0
    1774:	a4010069 	strge	r0, [r1], #-105	; 0xffffff97
    1778:	0000250e 	andeq	r2, r0, lr, lsl #10
    177c:	00094d00 	andeq	r4, r9, r0, lsl #26
    1780:	00094900 	andeq	r4, r9, r0, lsl #18
    1784:	08000000 	stmdaeq	r0, {}	; <UNPREDICTABLE>
    1788:	0000c504 	andeq	ip, r0, r4, lsl #10
    178c:	039b2900 	orrseq	r2, fp, #0, 18
    1790:	79010000 	stmdbvc	r1, {}	; <UNPREDICTABLE>
    1794:	0089580d 	addeq	r5, r9, sp, lsl #16
    1798:	0000ac00 	andeq	sl, r0, r0, lsl #24
    179c:	4b9c0100 	blmi	fe701ba4 <__bss_end__+0xfe6f6814>
    17a0:	1300000a 	movwne	r0, #10
    17a4:	00000423 	andeq	r0, r0, r3, lsr #8
    17a8:	4b0e8501 	blmi	3a2bb4 <__bss_end__+0x397824>
    17ac:	0300000a 	movweq	r0, #10
    17b0:	2a7fb091 	bcs	1fed9fc <__bss_end__+0x1fe266c>
    17b4:	00000391 	muleq	r0, r1, r3
    17b8:	5b0f9601 	blpl	3e6fc4 <__bss_end__+0x3dbc34>
    17bc:	0000000a 	andeq	r0, r0, sl
    17c0:	07080000 	streq	r0, [r8, -r0]
    17c4:	000003b3 			; <UNDEFINED> instruction: 0x000003b3
    17c8:	75159b01 	ldrvc	r9, [r5, #-2817]	; 0xfffff4ff
    17cc:	07000000 	streq	r0, [r0, -r0]
    17d0:	00000485 	andeq	r0, r0, r5, lsl #9
    17d4:	75249b01 	strvc	r9, [r4, #-2817]!	; 0xfffff4ff
    17d8:	07000000 	streq	r0, [r0, -r0]
    17dc:	000004d2 	ldrdeq	r0, [r0], -r2
    17e0:	75159e01 	ldrvc	r9, [r5, #-3585]	; 0xfffff1ff
    17e4:	07000000 	streq	r0, [r0, -r0]
    17e8:	00000411 	andeq	r0, r0, r1, lsl r4
    17ec:	75259e01 	strvc	r9, [r5, #-3585]!	; 0xfffff1ff
    17f0:	2b000000 	blcs	17f8 <__code_start__-0x6808>
    17f4:	00008968 	andeq	r8, r0, r8, ror #18
    17f8:	00000024 	andeq	r0, r0, r4, lsr #32
    17fc:	000009d5 	ldrdeq	r0, [r0], -r5
    1800:	01006826 	tsteq	r0, r6, lsr #16
    1804:	0476117e 	ldrbteq	r1, [r6], #-382	; 0xfffffe82
    1808:	09700000 	ldmdbeq	r0!, {}^	; <UNPREDICTABLE>
    180c:	096c0000 	stmdbeq	ip!, {}^	; <UNPREDICTABLE>
    1810:	6c180000 	ldcvs	0, cr0, [r8], {-0}
    1814:	74000089 	strvc	r0, [r0], #-137	; 0xffffff77
    1818:	1800000e 	stmdane	r0, {r1, r2, r3}
    181c:	00008988 	andeq	r8, r0, r8, lsl #19
    1820:	00000e8c 	andeq	r0, r0, ip, lsl #29
    1824:	89941600 	ldmibhi	r4, {r9, sl, ip}
    1828:	0e980000 	cdpeq	0, 9, cr0, cr8, cr0, {0}
    182c:	09ea0000 	stmibeq	sl!, {}^	; <UNPREDICTABLE>
    1830:	01170000 	tsteq	r7, r0
    1834:	b47b0350 	ldrbtlt	r0, [fp], #-848	; 0xfffffcb0
    1838:	b416007f 	ldrlt	r0, [r6], #-127	; 0xffffff81
    183c:	61000089 	smlabbvs	r0, r9, r0, r0
    1840:	0500000a 	streq	r0, [r0, #-10]
    1844:	1700000a 	strne	r0, [r0, -sl]
    1848:	7b035001 	blvc	d5854 <__bss_end__+0xca4c4>
    184c:	01177fb4 			; <UNDEFINED> instruction: 0x01177fb4
    1850:	6c7b0251 	lfmvs	f0, 2, [fp], #-324	; 0xfffffebc
    1854:	89c41600 	stmibhi	r4, {r9, sl, ip}^
    1858:	0e4d0000 	cdpeq	0, 4, cr0, cr13, cr0, {0}
    185c:	0a230000 	beq	8c1864 <__bss_end__+0x8b64d4>
    1860:	01170000 	tsteq	r7, r0
    1864:	9c030550 	cfstr32ls	mvfx0, [r3], {80}	; 0x50
    1868:	170000a8 	strne	r0, [r0, -r8, lsr #1]
    186c:	40035201 	andmi	r5, r3, r1, lsl #4
    1870:	16002447 	strne	r2, [r0], -r7, asr #8
    1874:	000089d0 	ldrdeq	r8, [r0], -r0
    1878:	00000a61 	andeq	r0, r0, r1, ror #20
    187c:	00000a38 	andeq	r0, r0, r8, lsr sl
    1880:	03510117 	cmpeq	r1, #-1073741819	; 0xc0000005
    1884:	00244740 	eoreq	r4, r4, r0, asr #14
    1888:	0089dc18 	addeq	sp, r9, r8, lsl ip
    188c:	000a6100 	andeq	r6, sl, r0, lsl #2
    1890:	89e81800 	stmibhi	r8!, {fp, ip}^
    1894:	0a610000 	beq	184189c <__bss_end__+0x183650c>
    1898:	10000000 	andne	r0, r0, r0
    189c:	00000075 	andeq	r0, r0, r5, ror r0
    18a0:	00000a5b 	andeq	r0, r0, fp, asr sl
    18a4:	00002c11 	andeq	r2, r0, r1, lsl ip
    18a8:	08000f00 	stmdaeq	r0, {r8, r9, sl, fp}
    18ac:	00007504 	andeq	r7, r0, r4, lsl #10
    18b0:	03e12900 	mvneq	r2, #0, 18
    18b4:	50010000 	andpl	r0, r1, r0
    18b8:	0087d80d 	addeq	sp, r7, sp, lsl #16
    18bc:	00017000 	andeq	r7, r1, r0
    18c0:	5a9c0100 	bpl	fe701cc8 <__bss_end__+0xfe6f6938>
    18c4:	2c00000c 	stccs	0, cr0, [r0], {12}
    18c8:	50010070 	andpl	r0, r1, r0, ror r0
    18cc:	000a5b1c 	andeq	r5, sl, ip, lsl fp
    18d0:	00099c00 	andeq	r9, r9, r0, lsl #24
    18d4:	00098e00 	andeq	r8, r9, r0, lsl #28
    18d8:	00652c00 	rsbeq	r2, r5, r0, lsl #24
    18dc:	5b295001 	blpl	a558e8 <__bss_end__+0xa4a558>
    18e0:	0500000a 	streq	r0, [r0, #-10]
    18e4:	f700000a 			; <UNDEFINED> instruction: 0xf700000a
    18e8:	15000009 	strne	r0, [r0, #-9]
    18ec:	000001b6 			; <UNDEFINED> instruction: 0x000001b6
    18f0:	00000c6a 	andeq	r0, r0, sl, ror #24
    18f4:	ab800305 	blge	fe002510 <__bss_end__+0xfdff7180>
    18f8:	682b0000 	stmdavs	fp!, {}	; <UNPREDICTABLE>
    18fc:	b4000088 	strlt	r0, [r0], #-136	; 0xffffff78
    1900:	93000000 	movwls	r0, #0
    1904:	2600000b 	strcs	r0, [r0], -fp
    1908:	58010069 	stmdapl	r1, {r0, r3, r5, r6}
    190c:	000a5b14 	andeq	r5, sl, r4, lsl fp
    1910:	000a6200 	andeq	r6, sl, r0, lsl #4
    1914:	000a6000 	andeq	r6, sl, r0
    1918:	00182700 	andseq	r2, r8, r0, lsl #14
    191c:	62260000 	eorvs	r0, r6, #0, 0
    1920:	105a0100 	subsne	r0, sl, r0, lsl #2
    1924:	00000476 	andeq	r0, r0, r6, ror r4
    1928:	00000a7b 	andeq	r0, r0, fp, ror sl
    192c:	00000a75 	andeq	r0, r0, r5, ror sl
    1930:	0000301c 	andeq	r3, r0, ip, lsl r0
    1934:	000b8800 	andeq	r8, fp, r0, lsl #16
    1938:	78652600 	stmdavc	r5!, {r9, sl, sp}^
    193c:	5d010070 	stcpl	0, cr0, [r1, #-448]	; 0xfffffe40
    1940:	00007516 	andeq	r7, r0, r6, lsl r5
    1944:	000aa800 	andeq	sl, sl, r0, lsl #16
    1948:	000aa400 	andeq	sl, sl, r0, lsl #8
    194c:	03dd2500 	bicseq	r2, sp, #0, 10
    1950:	5e010000 	cdppl	0, 0, cr0, cr1, cr0, {0}
    1954:	00006216 	andeq	r6, r0, r6, lsl r2
    1958:	000aca00 	andeq	ip, sl, r0, lsl #20
    195c:	000ac600 	andeq	ip, sl, r0, lsl #12
    1960:	887c1600 	ldmdahi	ip!, {r9, sl, ip}^
    1964:	0e4d0000 	cdpeq	0, 4, cr0, cr13, cr0, {0}
    1968:	0b280000 	bleq	a01970 <__bss_end__+0x9f65e0>
    196c:	01170000 	tsteq	r7, r0
    1970:	7c030550 	cfstr32vc	mvfx0, [r3], {80}	; 0x50
    1974:	000000a8 	andeq	r0, r0, r8, lsr #1
    1978:	0088b016 	addeq	fp, r8, r6, lsl r0
    197c:	000ea400 	andeq	sl, lr, r0, lsl #8
    1980:	000b3c00 	andeq	r3, fp, r0, lsl #24
    1984:	50011700 	andpl	r1, r1, r0, lsl #14
    1988:	00007502 	andeq	r7, r0, r2, lsl #10
    198c:	0088c816 	addeq	ip, r8, r6, lsl r8
    1990:	000e4d00 	andeq	r4, lr, r0, lsl #26
    1994:	000b6000 	andeq	r6, fp, r0
    1998:	50011700 	andpl	r1, r1, r0, lsl #14
    199c:	a8500305 	ldmdage	r0, {r0, r2, r8, r9}^
    19a0:	01170000 	tsteq	r7, r0
    19a4:	00740252 	rsbseq	r0, r4, r2, asr r2
    19a8:	007d0217 	rsbseq	r0, sp, r7, lsl r2
    19ac:	00007702 	andeq	r7, r0, r2, lsl #14
    19b0:	00890c16 	addeq	r0, r9, r6, lsl ip
    19b4:	000a6100 	andeq	r6, sl, r0, lsl #2
    19b8:	000b7400 	andeq	r7, fp, r0, lsl #8
    19bc:	50011700 	andpl	r1, r1, r0, lsl #14
    19c0:	00047502 	andeq	r7, r4, r2, lsl #10
    19c4:	00891820 	addeq	r1, r9, r0, lsr #16
    19c8:	000e4d00 	andeq	r4, lr, r0, lsl #26
    19cc:	50011700 	andpl	r1, r1, r0, lsl #14
    19d0:	a88c0305 	stmge	ip, {r0, r2, r8, r9}
    19d4:	00000000 	andeq	r0, r0, r0
    19d8:	00889818 	addeq	r9, r8, r8, lsl r8
    19dc:	000c6f00 	andeq	r6, ip, r0, lsl #30
    19e0:	16000000 	strne	r0, [r0], -r0
    19e4:	00008824 	andeq	r8, r0, r4, lsr #16
    19e8:	00000e4d 	andeq	r0, r0, sp, asr #28
    19ec:	00000bcc 	andeq	r0, r0, ip, asr #23
    19f0:	05500117 	ldrbeq	r0, [r0, #-279]	; 0xfffffee9
    19f4:	00a7ac03 	adceq	sl, r7, r3, lsl #24
    19f8:	51011700 	tstpl	r1, r0, lsl #14
    19fc:	a8200305 	stmdage	r0!, {r0, r2, r8, r9}
    1a00:	01170000 	tsteq	r7, r0
    1a04:	80030552 	andhi	r0, r3, r2, asr r5
    1a08:	170000ab 	strne	r0, [r0, -fp, lsr #1]
    1a0c:	08025301 	stmdaeq	r2, {r0, r8, r9, ip, lr}
    1a10:	7d021756 	stcvc	7, cr1, [r2, #-344]	; 0xfffffea8
    1a14:	40030500 	andmi	r0, r3, r0, lsl #10
    1a18:	000000a8 	andeq	r0, r0, r8, lsr #1
    1a1c:	00882818 	addeq	r2, r8, r8, lsl r8
    1a20:	000e5900 	andeq	r5, lr, r0, lsl #18
    1a24:	88441600 	stmdahi	r4, {r9, sl, ip}^
    1a28:	0e4d0000 	cdpeq	0, 4, cr0, cr13, cr0, {0}
    1a2c:	0c0e0000 	stceq	0, cr0, [lr], {-0}
    1a30:	01170000 	tsteq	r7, r0
    1a34:	ac030550 	cfstr32ge	mvfx0, [r3], {80}	; 0x50
    1a38:	170000a7 	strne	r0, [r0, -r7, lsr #1]
    1a3c:	03055101 	movweq	r5, #20737	; 0x5101
    1a40:	0000a820 	andeq	sl, r0, r0, lsr #16
    1a44:	05520117 	ldrbeq	r0, [r2, #-279]	; 0xfffffee9
    1a48:	00ab8003 	adceq	r8, fp, r3
    1a4c:	53011700 	movwpl	r1, #5888	; 0x1700
    1a50:	17520802 	ldrbne	r0, [r2, -r2, lsl #16]
    1a54:	05007d02 	streq	r7, [r0, #-3330]	; 0xfffff2fe
    1a58:	00a82803 	adceq	r2, r8, r3, lsl #16
    1a5c:	48180000 	ldmdami	r8, {}	; <UNPREDICTABLE>
    1a60:	59000088 	stmdbpl	r0, {r3, r7}
    1a64:	1600000e 	strne	r0, [r0], -lr
    1a68:	00008864 	andeq	r8, r0, r4, ror #16
    1a6c:	00000e4d 	andeq	r0, r0, sp, asr #28
    1a70:	00000c50 	andeq	r0, r0, r0, asr ip
    1a74:	05500117 	ldrbeq	r0, [r0, #-279]	; 0xfffffee9
    1a78:	00a7ac03 	adceq	sl, r7, r3, lsl #24
    1a7c:	51011700 	tstpl	r1, r0, lsl #14
    1a80:	a8200305 	stmdage	r0!, {r0, r2, r8, r9}
    1a84:	01170000 	tsteq	r7, r0
    1a88:	80030552 	andhi	r0, r3, r2, asr r5
    1a8c:	170000ab 	strne	r0, [r0, -fp, lsr #1]
    1a90:	08025301 	stmdaeq	r2, {r0, r8, r9, ip, lr}
    1a94:	7d021755 	stcvc	7, cr1, [r2, #-340]	; 0xfffffeac
    1a98:	30030500 	andcc	r0, r3, r0, lsl #10
    1a9c:	000000a8 	andeq	r0, r0, r8, lsr #1
    1aa0:	00886818 	addeq	r6, r8, r8, lsl r8
    1aa4:	000e5900 	andeq	r5, lr, r0, lsl #18
    1aa8:	cc100000 	ldcgt	0, cr0, [r0], {-0}
    1aac:	6a000000 	bvs	1ab4 <__code_start__-0x654c>
    1ab0:	1100000c 	tstne	r0, ip
    1ab4:	0000002c 	andeq	r0, r0, ip, lsr #32
    1ab8:	5a090004 	bpl	241ad0 <__bss_end__+0x236740>
    1abc:	2400000c 	strcs	r0, [r0], #-12
    1ac0:	00000441 	andeq	r0, r0, r1, asr #8
    1ac4:	760f3c01 	strvc	r3, [pc], -r1, lsl #24
    1ac8:	9c000004 	stcls	0, cr0, [r0], {4}
    1acc:	30000087 	andcc	r0, r0, r7, lsl #1
    1ad0:	01000000 	mrseq	r0, (UNDEF: 0)
    1ad4:	000cd49c 	muleq	ip, ip, r4
    1ad8:	05d52300 	ldrbeq	r2, [r5, #768]	; 0x300
    1adc:	3c010000 	stccc	0, cr0, [r1], {-0}
    1ae0:	0000751f 	andeq	r7, r0, pc, lsl r5
    1ae4:	000aec00 	andeq	lr, sl, r0, lsl #24
    1ae8:	000ae800 	andeq	lr, sl, r0, lsl #16
    1aec:	00702600 	rsbseq	r2, r0, r0, lsl #12
    1af0:	080b3e01 	stmdaeq	fp, {r0, r9, sl, fp, ip, sp}
    1af4:	0e000002 	cdpeq	0, 0, cr0, cr0, cr2, {0}
    1af8:	0a00000b 	beq	1b2c <__code_start__-0x64d4>
    1afc:	1600000b 	strne	r0, [r0], -fp
    1b00:	000087b0 			; <UNDEFINED> instruction: 0x000087b0
    1b04:	00000cd4 	ldrdeq	r0, [r0], -r4
    1b08:	00000cc3 	andeq	r0, r0, r3, asr #25
    1b0c:	02500117 	subseq	r0, r0, #-1073741819	; 0xc0000005
    1b10:	20000074 	andcs	r0, r0, r4, ror r0
    1b14:	000087c0 	andeq	r8, r0, r0, asr #15
    1b18:	00000eb0 			; <UNDEFINED> instruction: 0x00000eb0
    1b1c:	02500117 	subseq	r0, r0, #-1073741819	; 0xc0000005
    1b20:	00000074 	andeq	r0, r0, r4, ror r0
    1b24:	00045d24 	andeq	r5, r4, r4, lsr #26
    1b28:	0c2b0100 	stfeqs	f0, [fp], #-0
    1b2c:	00000025 	andeq	r0, r0, r5, lsr #32
    1b30:	00008748 	andeq	r8, r0, r8, asr #14
    1b34:	00000048 	andeq	r0, r0, r8, asr #32
    1b38:	0d019c01 	stceq	12, cr9, [r1, #-4]
    1b3c:	702c0000 	eorvc	r0, ip, r0
    1b40:	1a2b0100 	bne	ac1f48 <__bss_end__+0xab6bb8>
    1b44:	00000208 	andeq	r0, r0, r8, lsl #4
    1b48:	00000b38 	andeq	r0, r0, r8, lsr fp
    1b4c:	00000b2c 	andeq	r0, r0, ip, lsr #22
    1b50:	03772200 	cmneq	r7, #0, 4
    1b54:	13010000 	movwne	r0, #4096	; 0x1000
    1b58:	00020807 	andeq	r0, r2, r7, lsl #16
    1b5c:	008c1000 	addeq	r1, ip, r0
    1b60:	0000ac00 	andeq	sl, r0, r0, lsl #24
    1b64:	179c0100 	ldrne	r0, [ip, r0, lsl #2]
    1b68:	2300000e 	movwcs	r0, #14
    1b6c:	000003e6 	andeq	r0, r0, r6, ror #7
    1b70:	41111301 	tstmi	r1, r1, lsl #6
    1b74:	97000000 	strls	r0, [r0, -r0]
    1b78:	8b00000b 	blhi	1bac <__code_start__-0x6454>
    1b7c:	1300000b 	movwne	r0, #11
    1b80:	000003c9 	andeq	r0, r0, r9, asr #7
    1b84:	25101501 	ldrcs	r1, [r0, #-1281]	; 0xfffffaff
    1b88:	05000000 	streq	r0, [r0, #-0]
    1b8c:	00af8803 	adceq	r8, pc, r3, lsl #16
    1b90:	01b61500 			; <UNDEFINED> instruction: 0x01b61500
    1b94:	0c6a0000 	stcleq	0, cr0, [sl], #-0
    1b98:	03050000 	movweq	r0, #20480	; 0x5000
    1b9c:	0000ab94 	muleq	r0, r4, fp
    1ba0:	008c382b 	addeq	r3, ip, fp, lsr #16
    1ba4:	00002400 	andeq	r2, r0, r0, lsl #8
    1ba8:	000d8a00 	andeq	r8, sp, r0, lsl #20
    1bac:	04652500 	strbteq	r2, [r5], #-1280	; 0xfffffb00
    1bb0:	1c010000 	stcne	0, cr0, [r1], {-0}
    1bb4:	00002c12 	andeq	r2, r0, r2, lsl ip
    1bb8:	000be300 	andeq	lr, fp, r0, lsl #6
    1bbc:	000be100 	andeq	lr, fp, r0, lsl #2
    1bc0:	8c542000 	mrahi	r2, r4, acc0
    1bc4:	0ebc0000 	cdpeq	0, 11, cr0, cr12, cr0, {0}
    1bc8:	01170000 	tsteq	r7, r0
    1bcc:	40400350 	submi	r0, r0, r0, asr r3
    1bd0:	51011724 	tstpl	r1, r4, lsr #14
    1bd4:	24404003 	strbcs	r4, [r0], #-3
    1bd8:	64160000 	ldrvs	r0, [r6], #-0
    1bdc:	c800008c 	stmdagt	r0, {r2, r3, r7}
    1be0:	9e00000e 	cdpls	0, 0, cr0, cr0, cr14, {0}
    1be4:	1700000d 	strne	r0, [r0, -sp]
    1be8:	74025001 	strvc	r5, [r2], #-1
    1bec:	88160000 	ldmdahi	r6, {}	; <UNPREDICTABLE>
    1bf0:	4d00008c 	stcmi	0, cr0, [r0, #-560]	; 0xfffffdd0
    1bf4:	d600000e 	strle	r0, [r0], -lr
    1bf8:	1700000d 	strne	r0, [r0, -sp]
    1bfc:	03055001 	movweq	r5, #20481	; 0x5001
    1c00:	0000a7ac 	andeq	sl, r0, ip, lsr #15
    1c04:	05510117 	ldrbeq	r0, [r1, #-279]	; 0xfffffee9
    1c08:	00a82003 	adceq	r2, r8, r3
    1c0c:	52011700 	andpl	r1, r1, #0, 14
    1c10:	ab940305 	blge	fe50282c <__bss_end__+0xfe4f749c>
    1c14:	01170000 	tsteq	r7, r0
    1c18:	17470153 	smlsldne	r0, r7, r3, r1
    1c1c:	05007d02 	streq	r7, [r0, #-3330]	; 0xfffff2fe
    1c20:	00aa4003 	adceq	r4, sl, r3
    1c24:	8c180000 	ldchi	0, cr0, [r8], {-0}
    1c28:	5900008c 	stmdbpl	r0, {r2, r3, r7}
    1c2c:	1600000e 	strne	r0, [r0], -lr
    1c30:	00008ca0 	andeq	r8, r0, r0, lsr #25
    1c34:	00000e4d 	andeq	r0, r0, sp, asr #28
    1c38:	00000e0d 	andeq	r0, r0, sp, lsl #28
    1c3c:	05500117 	ldrbeq	r0, [r0, #-279]	; 0xfffffee9
    1c40:	00aa5003 	adceq	r5, sl, r3
    1c44:	51011700 	tstpl	r1, r0, lsl #14
    1c48:	a8200305 	stmdage	r0!, {r0, r2, r8, r9}
    1c4c:	01170000 	tsteq	r7, r0
    1c50:	94030552 	strls	r0, [r3], #-1362	; 0xfffffaae
    1c54:	170000ab 	strne	r0, [r0, -fp, lsr #1]
    1c58:	49015301 	stmdbmi	r1, {r0, r8, r9, ip, lr}
    1c5c:	8ca41800 	stchi	8, cr1, [r4]
    1c60:	0e590000 	cdpeq	0, 5, cr0, cr9, cr0, {0}
    1c64:	2d000000 	stccs	0, cr0, [r0, #-0]
    1c68:	00000015 	andeq	r0, r0, r5, lsl r0
    1c6c:	140b0d02 	strne	r0, [fp], #-3330	; 0xfffff2fe
    1c70:	03000001 	movweq	r0, #1
    1c74:	00000e4d 	andeq	r0, r0, sp, asr #28
    1c78:	00003e2e 	andeq	r3, r0, lr, lsr #28
    1c7c:	220d0200 	andcs	r0, sp, #0, 4
    1c80:	000000bf 	strheq	r0, [r0], -pc	; <UNPREDICTABLE>
    1c84:	0001a62e 	andeq	sl, r1, lr, lsr #12
    1c88:	340d0200 	strcc	r0, [sp], #-512	; 0xfffffe00
    1c8c:	000000bf 	strheq	r0, [r0], -pc	; <UNPREDICTABLE>
    1c90:	0000202e 	andeq	r2, r0, lr, lsr #32
    1c94:	430d0200 	movwmi	r0, #53760	; 0xd200
    1c98:	0000002c 	andeq	r0, r0, ip, lsr #32
    1c9c:	063c2f00 	ldrteq	r2, [ip], -r0, lsl #30
    1ca0:	063c0000 	ldrteq	r0, [ip], -r0
    1ca4:	28040000 	stmdacs	r4, {}	; <UNPREDICTABLE>
    1ca8:	00512f06 	subseq	r2, r1, r6, lsl #30
    1cac:	00510000 	subseq	r0, r1, r0
    1cb0:	6e040000 	cdpvs	0, 0, cr0, cr4, cr0, {0}
    1cb4:	9e0d3006 	cdpls	0, 0, cr3, cr13, cr6, {0}
    1cb8:	6577730b 	ldrbvs	r7, [r7, #-779]!	; 0xfffffcf5
    1cbc:	665f7065 	ldrbvs	r7, [pc], -r5, rrx
    1cc0:	00656572 	rsbeq	r6, r5, r2, ror r5
    1cc4:	00025c2f 	andeq	r5, r2, pc, lsr #24
    1cc8:	00025c00 	andeq	r5, r2, r0, lsl #24
    1ccc:	08290500 	stmdaeq	r9!, {r8, sl}
    1cd0:	0001f42f 	andeq	pc, r1, pc, lsr #8
    1cd4:	0001f400 	andeq	pc, r1, r0, lsl #8
    1cd8:	074b0500 	strbeq	r0, [fp, -r0, lsl #10]
    1cdc:	0002d32f 	andeq	sp, r2, pc, lsr #6
    1ce0:	0002d300 	andeq	sp, r2, r0, lsl #6
    1ce4:	082c0500 	stmdaeq	ip!, {r8, sl}
    1ce8:	00041e2f 	andeq	r1, r4, pc, lsr #28
    1cec:	00041e00 	andeq	r1, r4, r0, lsl #28
    1cf0:	06760100 	ldrbteq	r0, [r6], -r0, lsl #2
    1cf4:	0002fd2f 	andeq	pc, r2, pc, lsr #26
    1cf8:	0002fd00 	andeq	pc, r2, r0, lsl #26
    1cfc:	07330500 	ldreq	r0, [r3, -r0, lsl #10]!
    1d00:	0002c12f 	andeq	ip, r2, pc, lsr #2
    1d04:	0002c100 	andeq	ip, r2, r0, lsl #2
    1d08:	08460500 	stmdaeq	r6, {r8, sl}^
    1d0c:	0004b02f 	andeq	fp, r4, pc, lsr #32
    1d10:	0004b000 	andeq	fp, r4, r0
    1d14:	06820400 	streq	r0, [r2], r0, lsl #8
    1d18:	0004a82f 	andeq	sl, r4, pc, lsr #16
    1d1c:	0004a800 	andeq	sl, r4, r0, lsl #16
    1d20:	077b0400 	ldrbeq	r0, [fp, -r0, lsl #8]!
    1d24:	00021600 	andeq	r1, r2, r0, lsl #12
    1d28:	9d000400 	cfstrsls	mvf0, [r0, #-0]
    1d2c:	04000008 	streq	r0, [r0], #-8
    1d30:	00051401 	andeq	r1, r5, r1, lsl #8
    1d34:	05fc0c00 	ldrbeq	r0, [ip, #3072]!	; 0xc00
    1d38:	05da0000 	ldrbeq	r0, [sl]
    1d3c:	8f600000 	svchi	0x00600000
    1d40:	00a00000 	adceq	r0, r0, r0
    1d44:	0cdc0000 	ldcleq	0, cr0, [ip], {0}
    1d48:	04020000 	streq	r0, [r2], #-0
    1d4c:	746e6905 	strbtvc	r6, [lr], #-2309	; 0xfffff6fb
    1d50:	07040300 	streq	r0, [r4, -r0, lsl #6]
    1d54:	000001cd 	andeq	r0, r0, sp, asr #3
    1d58:	45060103 	strmi	r0, [r6, #-259]	; 0xfffffefd
    1d5c:	03000000 	movweq	r0, #0
    1d60:	01fb0502 	mvnseq	r0, r2, lsl #10
    1d64:	04030000 	streq	r0, [r3], #-0
    1d68:	0001df05 	andeq	sp, r1, r5, lsl #30
    1d6c:	05080300 	streq	r0, [r8, #-768]	; 0xfffffd00
    1d70:	000001da 	ldrdeq	r0, [r0], -sl
    1d74:	43080103 	movwmi	r0, #33027	; 0x8103
    1d78:	03000000 	movweq	r0, #0
    1d7c:	007d0702 	rsbseq	r0, sp, r2, lsl #14
    1d80:	04030000 	streq	r0, [r3], #-0
    1d84:	0001c807 	andeq	ip, r1, r7, lsl #16
    1d88:	07080300 	streq	r0, [r8, -r0, lsl #6]
    1d8c:	000001c3 	andeq	r0, r0, r3, asr #3
    1d90:	00002504 	andeq	r2, r0, r4, lsl #10
    1d94:	00007a00 	andeq	r7, r0, r0, lsl #20
    1d98:	00250500 	eoreq	r0, r5, r0, lsl #10
    1d9c:	06000000 	streq	r0, [r0], -r0
    1da0:	000001e8 	andeq	r0, r0, r8, ror #3
    1da4:	860e1c02 	strhi	r1, [lr], -r2, lsl #24
    1da8:	07000000 	streq	r0, [r0, -r0]
    1dac:	00006b04 	andeq	r6, r0, r4, lsl #22
    1db0:	00250400 	eoreq	r0, r5, r0, lsl #8
    1db4:	009b0000 	addseq	r0, fp, r0
    1db8:	9b050000 	blls	141dc0 <__bss_end__+0x136a30>
    1dbc:	00000000 	andeq	r0, r0, r0
    1dc0:	00a80407 	adceq	r0, r8, r7, lsl #8
    1dc4:	01030000 	mrseq	r0, (UNDEF: 3)
    1dc8:	00004c08 	andeq	r4, r0, r8, lsl #24
    1dcc:	00a10800 	adceq	r0, r1, r0, lsl #16
    1dd0:	7a060000 	bvc	181dd8 <__bss_end__+0x176a48>
    1dd4:	02000006 	andeq	r0, r0, #6, 0
    1dd8:	00b90e21 	adcseq	r0, r9, r1, lsr #28
    1ddc:	04070000 	streq	r0, [r7], #-0
    1de0:	0000008c 	andeq	r0, r0, ip, lsl #1
    1de4:	00061509 	andeq	r1, r6, r9, lsl #10
    1de8:	0d420100 	stfeqe	f0, [r2, #-0]
    1dec:	0000009b 	muleq	r0, fp, r0
    1df0:	0000f701 	andeq	pc, r0, r1, lsl #14
    1df4:	05cc0a00 	strbeq	r0, [ip, #2560]	; 0xa00
    1df8:	42010000 	andmi	r0, r1, #0, 0
    1dfc:	00002c1e 	andeq	r2, r0, lr, lsl ip
    1e00:	05060b00 	streq	r0, [r6, #-2816]	; 0xfffff500
    1e04:	43010000 	movwmi	r0, #4096	; 0x1000
    1e08:	00002c0e 	andeq	r2, r0, lr, lsl #24
    1e0c:	0b0b0c00 	bleq	2c4e14 <__bss_end__+0x2b9a84>
    1e10:	01000005 	tsteq	r0, r5
    1e14:	002c1245 	eoreq	r1, ip, r5, asr #4
    1e18:	00000000 	andeq	r0, r0, r0
    1e1c:	0002710d 	andeq	r7, r2, sp, lsl #2
    1e20:	051d0100 	ldreq	r0, [sp, #-256]	; 0xffffff00
    1e24:	00000025 	andeq	r0, r0, r5, lsr #32
    1e28:	00008f60 	andeq	r8, r0, r0, ror #30
    1e2c:	00000080 	andeq	r0, r0, r0, lsl #1
    1e30:	01be9c01 			; <UNDEFINED> instruction: 0x01be9c01
    1e34:	0e0e0000 	cdpeq	0, 0, cr0, cr14, cr0, {0}
    1e38:	01000006 	tsteq	r0, r6
    1e3c:	01be0f1e 			; <UNDEFINED> instruction: 0x01be0f1e
    1e40:	0bfb0000 	bleq	ffec1e48 <__bss_end__+0xffeb6ab8>
    1e44:	0bf90000 	bleq	ffe41e4c <__bss_end__+0xffe36abc>
    1e48:	680f0000 	stmdavs	pc, {}	; <UNPREDICTABLE>
    1e4c:	5c00008f 	stcpl	0, cr0, [r0], {143}	; 0x8f
    1e50:	10000000 	andne	r0, r0, r0
    1e54:	21010069 	tstcs	r1, r9, rrx
    1e58:	0000250e 	andeq	r2, r0, lr, lsl #10
    1e5c:	000c1200 	andeq	r1, ip, r0, lsl #4
    1e60:	000c0e00 	andeq	r0, ip, r0, lsl #28
    1e64:	00d81100 	sbcseq	r1, r8, r0, lsl #2
    1e68:	70100000 	andsvc	r0, r0, r0
    1e6c:	22010063 	andcs	r0, r1, #99, 0	; 0x63
    1e70:	00002c12 	andeq	r2, r0, r2, lsl ip
    1e74:	000c3300 	andeq	r3, ip, r0, lsl #6
    1e78:	000c3100 	andeq	r3, ip, r0, lsl #2
    1e7c:	00bf1200 	adcseq	r1, pc, r0, lsl #4
    1e80:	8f9c0000 	svchi	0x009c0000
    1e84:	f8010000 			; <UNDEFINED> instruction: 0xf8010000
    1e88:	01000000 	mrseq	r0, (UNDEF: 0)
    1e8c:	01a50923 			; <UNDEFINED> instruction: 0x01a50923
    1e90:	d0130000 	andsle	r0, r3, r0
    1e94:	48000000 	stmdami	r0, {}	; <UNPREDICTABLE>
    1e98:	4600000c 	strmi	r0, [r0], -ip
    1e9c:	1100000c 	tstne	r0, ip
    1ea0:	000000f8 	strdeq	r0, [r0], -r8
    1ea4:	0000dc14 	andeq	sp, r0, r4, lsl ip
    1ea8:	000c5f00 	andeq	r5, ip, r0, lsl #30
    1eac:	000c5b00 	andeq	r5, ip, r0, lsl #22
    1eb0:	00e81500 	rsceq	r1, r8, r0, lsl #10
    1eb4:	01200000 			; <UNDEFINED> instruction: 0x01200000
    1eb8:	e9140000 	ldmdb	r4, {}	; <UNPREDICTABLE>
    1ebc:	84000000 	strhi	r0, [r0], #-0
    1ec0:	7e00000c 	cdpvc	0, 0, cr0, cr0, cr12, {0}
    1ec4:	0000000c 	andeq	r0, r0, ip
    1ec8:	b8160000 	ldmdalt	r6, {}	; <UNPREDICTABLE>
    1ecc:	0d00008f 	stceq	0, cr0, [r0, #-572]	; 0xfffffdc4
    1ed0:	17000002 	strne	r0, [r0, -r2]
    1ed4:	75025001 	strvc	r5, [r2, #-1]
    1ed8:	51011700 	tstpl	r1, r0, lsl #14
    1edc:	00007702 	andeq	r7, r0, r2, lsl #14
    1ee0:	07000000 	streq	r0, [r0, -r0]
    1ee4:	00002c04 	andeq	r2, r0, r4, lsl #24
    1ee8:	00bf1800 	adcseq	r1, pc, r0, lsl #16
    1eec:	8fe00000 	svchi	0x00e00000
    1ef0:	00200000 	eoreq	r0, r0, r0
    1ef4:	9c010000 	stcls	0, cr0, [r1], {-0}
    1ef8:	0000020d 	andeq	r0, r0, sp, lsl #4
    1efc:	0000d013 	andeq	sp, r0, r3, lsl r0
    1f00:	000cc400 	andeq	ip, ip, r0, lsl #8
    1f04:	000cbe00 	andeq	fp, ip, r0, lsl #28
    1f08:	00dc1400 	sbcseq	r1, ip, r0, lsl #8
    1f0c:	0cf80000 	ldcleq	0, cr0, [r8]
    1f10:	0cf20000 	ldcleq	0, cr0, [r2]
    1f14:	e8190000 	ldmda	r9, {}	; <UNPREDICTABLE>
    1f18:	ec000000 	stc	0, cr0, [r0], {-0}
    1f1c:	0800008f 	stmdaeq	r0, {r0, r1, r2, r3, r7}
    1f20:	14000000 	strne	r0, [r0], #-0
    1f24:	000000e9 	andeq	r0, r0, r9, ror #1
    1f28:	00000d2c 	andeq	r0, r0, ip, lsr #26
    1f2c:	00000d26 	andeq	r0, r0, r6, lsr #26
    1f30:	3c1a0000 	ldccc	0, cr0, [sl], {-0}
    1f34:	3c000006 	stccc	0, cr0, [r0], {6}
    1f38:	02000006 	andeq	r0, r0, #6, 0
    1f3c:	40000628 	andmi	r0, r0, r8, lsr #12
    1f40:	04000001 	streq	r0, [r0], #-1
    1f44:	000a0800 	andeq	r0, sl, r0, lsl #16
    1f48:	14010400 	strne	r0, [r1], #-1024	; 0xfffffc00
    1f4c:	0c000005 	stceq	0, cr0, [r0], {5}
    1f50:	00000624 	andeq	r0, r0, r4, lsr #12
    1f54:	000005da 	ldrdeq	r0, [r0], -sl
    1f58:	00009000 	andeq	r9, r0, r0
    1f5c:	00000078 	andeq	r0, r0, r8, ror r0
    1f60:	00000e16 	andeq	r0, r0, r6, lsl lr
    1f64:	69050402 	stmdbvs	r5, {r1, sl}
    1f68:	0300746e 	movweq	r7, #1134	; 0x46e
    1f6c:	0000061d 	andeq	r0, r0, sp, lsl r6
    1f70:	3817d103 	ldmdacc	r7, {r0, r1, r8, ip, lr, pc}
    1f74:	04000000 	streq	r0, [r0], #-0
    1f78:	01cd0704 	biceq	r0, sp, r4, lsl #14
    1f7c:	01040000 	mrseq	r0, (UNDEF: 4)
    1f80:	00004506 	andeq	r4, r0, r6, lsl #10
    1f84:	05020400 	streq	r0, [r2, #-1024]	; 0xfffffc00
    1f88:	000001fb 	strdeq	r0, [r0], -fp
    1f8c:	df050404 	svcle	0x00050404
    1f90:	04000001 	streq	r0, [r0], #-1
    1f94:	01da0508 	bicseq	r0, sl, r8, lsl #10
    1f98:	01040000 	mrseq	r0, (UNDEF: 4)
    1f9c:	00004308 	andeq	r4, r0, r8, lsl #6
    1fa0:	07020400 	streq	r0, [r2, -r0, lsl #8]
    1fa4:	0000007d 	andeq	r0, r0, sp, ror r0
    1fa8:	c8070404 	stmdagt	r7, {r2, sl}
    1fac:	04000001 	streq	r0, [r0], #-1
    1fb0:	01c30708 	biceq	r0, r3, r8, lsl #14
    1fb4:	25050000 	strcs	r0, [r5, #-0]
    1fb8:	86000000 	strhi	r0, [r0], -r0
    1fbc:	06000000 	streq	r0, [r0], -r0
    1fc0:	00000025 	andeq	r0, r0, r5, lsr #32
    1fc4:	01e80700 	mvneq	r0, r0, lsl #14
    1fc8:	1c020000 	stcne	0, cr0, [r2], {-0}
    1fcc:	0000920e 	andeq	r9, r0, lr, lsl #4
    1fd0:	77040800 	strvc	r0, [r4, -r0, lsl #16]
    1fd4:	05000000 	streq	r0, [r0, #-0]
    1fd8:	00000025 	andeq	r0, r0, r5, lsr #32
    1fdc:	000000a7 	andeq	r0, r0, r7, lsr #1
    1fe0:	0000a706 	andeq	sl, r0, r6, lsl #14
    1fe4:	04080000 	streq	r0, [r8], #-0
    1fe8:	000000b4 	strheq	r0, [r0], -r4
    1fec:	4c080104 	stfmis	f0, [r8], {4}
    1ff0:	09000000 	stmdbeq	r0, {}	; <UNPREDICTABLE>
    1ff4:	000000ad 	andeq	r0, r0, sp, lsr #1
    1ff8:	00067a07 	andeq	r7, r6, r7, lsl #20
    1ffc:	0e210200 	cdpeq	2, 2, cr0, cr1, cr0, {0}
    2000:	000000c5 	andeq	r0, r0, r5, asr #1
    2004:	00980408 	addseq	r0, r8, r8, lsl #8
    2008:	860a0000 	strhi	r0, [sl], -r0
    200c:	01000002 	tsteq	r0, r2
    2010:	013b0704 	teqeq	fp, r4, lsl #14
    2014:	90000000 	andls	r0, r0, r0
    2018:	00780000 	rsbseq	r0, r8, r0
    201c:	9c010000 	stcls	0, cr0, [r1], {-0}
    2020:	0000013b 	andeq	r0, r0, fp, lsr r1
    2024:	00705f0b 	rsbseq	r5, r0, fp, lsl #30
    2028:	3b140401 	blcc	503034 <__bss_end__+0x4f7ca4>
    202c:	01000001 	tsteq	r0, r1
    2030:	00630c50 	rsbeq	r0, r3, r0, asr ip
    2034:	251c0401 	ldrcs	r0, [ip, #-1025]	; 0xfffffbff
    2038:	76000000 	strvc	r0, [r0], -r0
    203c:	7200000d 	andvc	r0, r0, #13, 0
    2040:	0c00000d 	stceq	0, cr0, [r0], {13}
    2044:	0401006e 	streq	r0, [r1], #-110	; 0xffffff92
    2048:	00002c26 	andeq	r2, r0, r6, lsr #24
    204c:	000d9b00 	andeq	r9, sp, r0, lsl #22
    2050:	000d9700 	andeq	r9, sp, r0, lsl #14
    2054:	00700d00 	rsbseq	r0, r0, r0, lsl #26
    2058:	3d0b0501 	cfstr32cc	mvfx0, [fp, #-4]
    205c:	ca000001 	bgt	2068 <__code_start__-0x5f98>
    2060:	bc00000d 	stclt	0, cr0, [r0], {13}
    2064:	0d00000d 	stceq	0, cr0, [r0, #-52]	; 0xffffffcc
    2068:	05010065 	streq	r0, [r1, #-101]	; 0xffffff9b
    206c:	00013d14 	andeq	r3, r1, r4, lsl sp
    2070:	000e2700 	andeq	r2, lr, r0, lsl #14
    2074:	000e2500 	andeq	r2, lr, r0, lsl #10
    2078:	040e0000 	streq	r0, [lr], #-0
    207c:	00ad0408 	adceq	r0, sp, r8, lsl #8
    2080:	9d000000 	stcls	0, cr0, [r0, #-0]
    2084:	04000001 	streq	r0, [r0], #-1
    2088:	000ad400 	andeq	sp, sl, r0, lsl #8
    208c:	14010400 	strne	r0, [r1], #-1024	; 0xfffffc00
    2090:	0c000005 	stceq	0, cr0, [r0], {5}
    2094:	00000657 	andeq	r0, r0, r7, asr r6
    2098:	000005da 	ldrdeq	r0, [r0], -sl
    209c:	00009078 	andeq	r9, r0, r8, ror r0
    20a0:	00000058 	andeq	r0, r0, r8, asr r0
    20a4:	00000f3b 	andeq	r0, r0, fp, lsr pc
    20a8:	00064302 	andeq	r4, r6, r2, lsl #6
    20ac:	1b280200 	blne	a028b4 <__bss_end__+0x9f7524>
    20b0:	00000031 	andeq	r0, r0, r1, lsr r0
    20b4:	00066703 	andeq	r6, r6, r3, lsl #14
    20b8:	00040400 	andeq	r0, r4, r0, lsl #8
    20bc:	00000048 	andeq	r0, r0, r8, asr #32
    20c0:	00065204 	andeq	r5, r6, r4, lsl #4
    20c4:	00004800 	andeq	r4, r0, r0, lsl #16
    20c8:	05000000 	streq	r0, [r0, #-0]
    20cc:	06690204 	strbteq	r0, [r9], -r4, lsl #4
    20d0:	63020000 	movwvs	r0, #8192	; 0x2000
    20d4:	00002518 	andeq	r2, r0, r8, lsl r5
    20d8:	05040600 	streq	r0, [r4, #-1536]	; 0xfffffa00
    20dc:	00746e69 	rsbseq	r6, r4, r9, ror #28
    20e0:	cd070407 	cfstrsgt	mvf0, [r7, #-28]	; 0xffffffe4
    20e4:	07000001 	streq	r0, [r0, -r1]
    20e8:	00450601 	subeq	r0, r5, r1, lsl #12
    20ec:	02070000 	andeq	r0, r7, #0, 0
    20f0:	0001fb05 	andeq	pc, r1, r5, lsl #22
    20f4:	05040700 	streq	r0, [r4, #-1792]	; 0xfffff900
    20f8:	000001df 	ldrdeq	r0, [r0], -pc	; <UNPREDICTABLE>
    20fc:	da050807 	ble	144120 <__bss_end__+0x138d90>
    2100:	07000001 	streq	r0, [r0, -r1]
    2104:	00430801 	subeq	r0, r3, r1, lsl #16
    2108:	02070000 	andeq	r0, r7, #0, 0
    210c:	00007d07 	andeq	r7, r0, r7, lsl #26
    2110:	07040700 	streq	r0, [r4, -r0, lsl #14]
    2114:	000001c8 	andeq	r0, r0, r8, asr #3
    2118:	c3070807 	movwgt	r0, #30727	; 0x7807
    211c:	08000001 	stmdaeq	r0, {r0}
    2120:	00000056 	andeq	r0, r0, r6, asr r0
    2124:	000000ab 	andeq	r0, r0, fp, lsr #1
    2128:	00005609 	andeq	r5, r0, r9, lsl #12
    212c:	e80a0000 	stmda	sl, {}	; <UNPREDICTABLE>
    2130:	03000001 	movweq	r0, #1
    2134:	00b70e1c 	adcseq	r0, r7, ip, lsl lr
    2138:	040b0000 	streq	r0, [fp], #-0
    213c:	0000009c 	muleq	r0, ip, r0
    2140:	00005608 	andeq	r5, r0, r8, lsl #12
    2144:	0000cc00 	andeq	ip, r0, r0, lsl #24
    2148:	00cc0900 	sbceq	r0, ip, r0, lsl #18
    214c:	0b000000 	bleq	2154 <__code_start__-0x5eac>
    2150:	0000d904 	andeq	sp, r0, r4, lsl #18
    2154:	08010700 	stmdaeq	r1, {r8, r9, sl}
    2158:	0000004c 	andeq	r0, r0, ip, asr #32
    215c:	0000d20c 	andeq	sp, r0, ip, lsl #4
    2160:	067a0a00 	ldrbteq	r0, [sl], -r0, lsl #20
    2164:	21030000 	mrscs	r0, (UNDEF: 3)
    2168:	0000ea0e 	andeq	lr, r0, lr, lsl #20
    216c:	bd040b00 	vstrlt	d0, [r4, #-0]
    2170:	0d000000 	stceq	0, cr0, [r0, #-0]
    2174:	0000063c 	andeq	r0, r0, ip, lsr r6
    2178:	56050601 	strpl	r0, [r5], -r1, lsl #12
    217c:	78000000 	stmdavc	r0, {}	; <UNPREDICTABLE>
    2180:	58000090 	stmdapl	r0, {r4, r7}
    2184:	01000000 	mrseq	r0, (UNDEF: 0)
    2188:	0001839c 	muleq	r1, ip, r3
    218c:	6d660e00 	stclvs	14, cr0, [r6, #-0]
    2190:	06010074 			; <UNDEFINED> instruction: 0x06010074
    2194:	0000cc18 	andeq	ip, r0, r8, lsl ip
    2198:	70910200 	addsvc	r0, r1, r0, lsl #4
    219c:	7562100f 	strbvc	r1, [r2, #-15]!
    21a0:	08010066 	stmdaeq	r1, {r1, r2, r5, r6}
    21a4:	00018311 	andeq	r8, r1, r1, lsl r3
    21a8:	8c030500 	cfstr32hi	mvfx0, [r3], {-0}
    21ac:	110000af 	smlatbne	r0, pc, r0, r0	; <UNPREDICTABLE>
    21b0:	00000634 	andeq	r0, r0, r4, lsr r6
    21b4:	4a0d0901 	bmi	3445c0 <__bss_end__+0x339230>
    21b8:	02000000 	andeq	r0, r0, #0, 0
    21bc:	73125c91 	tstvc	r2, #37120	; 0x9100
    21c0:	0c01007a 	stceq	0, cr0, [r1], {122}	; 0x7a
    21c4:	0000560d 	andeq	r5, r0, sp, lsl #12
    21c8:	000e4000 	andeq	r4, lr, r0
    21cc:	000e3a00 	andeq	r3, lr, r0, lsl #20
    21d0:	90a01300 	adcls	r1, r0, r0, lsl #6
    21d4:	01940000 	orrseq	r0, r4, r0
    21d8:	01760000 	cmneq	r6, r0
    21dc:	01140000 	tsteq	r4, r0
    21e0:	00750250 	rsbseq	r0, r5, r0, asr r2
    21e4:	03510114 	cmpeq	r1, #5
    21e8:	1404000a 	strne	r0, [r4], #-10
    21ec:	91035201 	tstls	r3, r1, lsl #4
    21f0:	01140648 	tsteq	r4, r8, asr #12
    21f4:	4c910253 	lfmmi	f0, 4, [r1], {83}	; 0x53
    21f8:	90b41500 	adcsls	r1, r4, r0, lsl #10
    21fc:	01140000 	tsteq	r4, r0
    2200:	00750250 	rsbseq	r0, r5, r0, asr r2
    2204:	d2160000 	andsle	r0, r6, #0, 0
    2208:	94000000 	strls	r0, [r0], #-0
    220c:	17000001 	strne	r0, [r0, -r1]
    2210:	0000005d 	andeq	r0, r0, sp, asr r0
    2214:	180003ff 	stmdane	r0, {r0, r1, r2, r3, r4, r5, r6, r7, r8, r9}
    2218:	00000639 	andeq	r0, r0, r9, lsr r6
    221c:	00000639 	andeq	r0, r0, r9, lsr r6
    2220:	00050205 	andeq	r0, r5, r5, lsl #4
    2224:	000000f3 	strdeq	r0, [r0], -r3
    2228:	0c160004 	ldceq	0, cr0, [r6], {4}
    222c:	01040000 	mrseq	r0, (UNDEF: 4)
    2230:	00000514 	andeq	r0, r0, r4, lsl r5
    2234:	00067f0c 	andeq	r7, r6, ip, lsl #30
    2238:	0005da00 	andeq	sp, r5, r0, lsl #20
    223c:	0090d000 	addseq	sp, r0, r0
    2240:	00003800 	andeq	r3, r0, r0, lsl #16
    2244:	00105f00 	andseq	r5, r0, r0, lsl #30
    2248:	05040200 	streq	r0, [r4, #-512]	; 0xfffffe00
    224c:	00746e69 	rsbseq	r6, r4, r9, ror #28
    2250:	cd070403 	cfstrsgt	mvf0, [r7, #-12]
    2254:	03000001 	movweq	r0, #1
    2258:	00450601 	subeq	r0, r5, r1, lsl #12
    225c:	02030000 	andeq	r0, r3, #0, 0
    2260:	0001fb05 	andeq	pc, r1, r5, lsl #22
    2264:	05040300 	streq	r0, [r4, #-768]	; 0xfffffd00
    2268:	000001df 	ldrdeq	r0, [r0], -pc	; <UNPREDICTABLE>
    226c:	da050803 	ble	144280 <__bss_end__+0x138ef0>
    2270:	03000001 	movweq	r0, #1
    2274:	00430801 	subeq	r0, r3, r1, lsl #16
    2278:	02030000 	andeq	r0, r3, #0, 0
    227c:	00007d07 	andeq	r7, r0, r7, lsl #26
    2280:	07040300 	streq	r0, [r4, -r0, lsl #6]
    2284:	000001c8 	andeq	r0, r0, r8, asr #3
    2288:	c3070803 	movwgt	r0, #30723	; 0x7803
    228c:	04000001 	streq	r0, [r0], #-1
    2290:	00000025 	andeq	r0, r0, r5, lsr #32
    2294:	0000007a 	andeq	r0, r0, sl, ror r0
    2298:	00002505 	andeq	r2, r0, r5, lsl #10
    229c:	e8060000 	stmda	r6, {}	; <UNPREDICTABLE>
    22a0:	02000001 	andeq	r0, r0, #1, 0
    22a4:	00860e1c 	addeq	r0, r6, ip, lsl lr
    22a8:	04070000 	streq	r0, [r7], #-0
    22ac:	0000006b 	andeq	r0, r0, fp, rrx
    22b0:	00002504 	andeq	r2, r0, r4, lsl #10
    22b4:	00009b00 	andeq	r9, r0, r0, lsl #22
    22b8:	009b0500 	addseq	r0, fp, r0, lsl #10
    22bc:	07000000 	streq	r0, [r0, -r0]
    22c0:	0000a804 	andeq	sl, r0, r4, lsl #16
    22c4:	08010300 	stmdaeq	r1, {r8, r9}
    22c8:	0000004c 	andeq	r0, r0, ip, asr #32
    22cc:	0000a108 	andeq	sl, r0, r8, lsl #2
    22d0:	067a0600 	ldrbteq	r0, [sl], -r0, lsl #12
    22d4:	21020000 	mrscs	r0, (UNDEF: 2)
    22d8:	0000b90e 	andeq	fp, r0, lr, lsl #18
    22dc:	8c040700 	stchi	7, cr0, [r4], {-0}
    22e0:	09000000 	stmdbeq	r0, {}	; <UNPREDICTABLE>
    22e4:	000000ad 	andeq	r0, r0, sp, lsr #1
    22e8:	05070c01 	streq	r0, [r7, #-3073]	; 0xfffff3ff
    22ec:	00af5003 	adceq	r5, pc, r3
    22f0:	06710a00 	ldrbteq	r0, [r1], -r0, lsl #20
    22f4:	04010000 	streq	r0, [r1], #-0
    22f8:	00002505 	andeq	r2, r0, r5, lsl #10
    22fc:	0090d000 	addseq	sp, r0, r0
    2300:	00003800 	andeq	r3, r0, r0, lsl #16
    2304:	0b9c0100 	bleq	fe70270c <__bss_end__+0xfe6f737c>
    2308:	04010070 	streq	r0, [r1], #-112	; 0xffffff90
    230c:	00009b1f 	andeq	r9, r0, pc, lsl fp
    2310:	000e7100 	andeq	r7, lr, r0, lsl #2
    2314:	000e6900 	andeq	r6, lr, r0, lsl #18
    2318:	60000000 	andvs	r0, r0, r0
    231c:	04000001 	streq	r0, [r0], #-1
    2320:	000cb400 	andeq	fp, ip, r0, lsl #8
    2324:	14010400 	strne	r0, [r1], #-1024	; 0xfffffc00
    2328:	0c000005 	stceq	0, cr0, [r0], {5}
    232c:	000006ac 	andeq	r0, r0, ip, lsr #13
    2330:	000005da 	ldrdeq	r0, [r0], -sl
    2334:	00009108 	andeq	r9, r0, r8, lsl #2
    2338:	00000098 	muleq	r0, r8, r0
    233c:	00001103 	andeq	r1, r0, r3, lsl #2
    2340:	69050402 	stmdbvs	r5, {r1, sl}
    2344:	0300746e 	movweq	r7, #1134	; 0x46e
    2348:	01cd0704 	biceq	r0, sp, r4, lsl #14
    234c:	01030000 	mrseq	r0, (UNDEF: 3)
    2350:	00004506 	andeq	r4, r0, r6, lsl #10
    2354:	05020300 	streq	r0, [r2, #-768]	; 0xfffffd00
    2358:	000001fb 	strdeq	r0, [r0], -fp
    235c:	df050403 	svcle	0x00050403
    2360:	03000001 	movweq	r0, #1
    2364:	01da0508 	bicseq	r0, sl, r8, lsl #10
    2368:	01030000 	mrseq	r0, (UNDEF: 3)
    236c:	00004308 	andeq	r4, r0, r8, lsl #6
    2370:	07020300 	streq	r0, [r2, -r0, lsl #6]
    2374:	0000007d 	andeq	r0, r0, sp, ror r0
    2378:	c8070403 	stmdagt	r7, {r0, r1, sl}
    237c:	03000001 	movweq	r0, #1
    2380:	01c30708 	biceq	r0, r3, r8, lsl #14
    2384:	25040000 	strcs	r0, [r4, #-0]
    2388:	7a000000 	bvc	2390 <__code_start__-0x5c70>
    238c:	05000000 	streq	r0, [r0, #-0]
    2390:	00000025 	andeq	r0, r0, r5, lsr #32
    2394:	01e80600 	mvneq	r0, r0, lsl #12
    2398:	1c020000 	stcne	0, cr0, [r2], {-0}
    239c:	0000860e 	andeq	r8, r0, lr, lsl #12
    23a0:	6b040700 	blvs	103fa8 <__bss_end__+0xf8c18>
    23a4:	04000000 	streq	r0, [r0], #-0
    23a8:	00000025 	andeq	r0, r0, r5, lsr #32
    23ac:	0000009b 	muleq	r0, fp, r0
    23b0:	00009b05 	andeq	r9, r0, r5, lsl #22
    23b4:	04070000 	streq	r0, [r7], #-0
    23b8:	000000a8 	andeq	r0, r0, r8, lsr #1
    23bc:	4c080103 	stfmis	f0, [r8], {3}
    23c0:	08000000 	stmdaeq	r0, {}	; <UNPREDICTABLE>
    23c4:	000000a1 	andeq	r0, r0, r1, lsr #1
    23c8:	00067a06 	andeq	r7, r6, r6, lsl #20
    23cc:	0e210200 	cdpeq	2, 2, cr0, cr1, cr0, {0}
    23d0:	000000b9 	strheq	r0, [r0], -r9
    23d4:	008c0407 	addeq	r0, ip, r7, lsl #8
    23d8:	8d090000 	stchi	0, cr0, [r9, #-0]
    23dc:	01000006 	tsteq	r0, r6
    23e0:	00561708 	subseq	r1, r6, r8, lsl #14
    23e4:	03050000 	movweq	r0, #20480	; 0x5000
    23e8:	0000af54 	andeq	sl, r0, r4, asr pc
    23ec:	7469620a 	strbtvc	r6, [r9], #-522	; 0xfffffdf6
    23f0:	11090100 	mrsne	r0, (UNDEF: 25)
    23f4:	0000002c 	andeq	r0, r0, ip, lsr #32
    23f8:	0006920b 	andeq	r9, r6, fp, lsl #4
    23fc:	06160100 	ldreq	r0, [r6], -r0, lsl #2
    2400:	00009188 	andeq	r9, r0, r8, lsl #3
    2404:	00000018 	andeq	r0, r0, r8, lsl r0
    2408:	01029c01 	tsteq	r2, r1, lsl #24
    240c:	a70c0000 	strge	r0, [ip, -r0]
    2410:	01000006 	tsteq	r0, r6
    2414:	002c1916 	eoreq	r1, ip, r6, lsl r9
    2418:	50010000 	andpl	r0, r1, r0
    241c:	01ab0d00 			; <UNDEFINED> instruction: 0x01ab0d00
    2420:	11010000 	mrsne	r0, (UNDEF: 1)
    2424:	00005d0f 	andeq	r5, r0, pc, lsl #26
    2428:	00913800 	addseq	r3, r1, r0, lsl #16
    242c:	00005000 	andeq	r5, r0, r0
    2430:	479c0100 	ldrmi	r0, [ip, r0, lsl #2]
    2434:	0e000001 	cdpeq	0, 0, cr0, cr0, cr1, {0}
    2438:	00000147 	andeq	r0, r0, r7, asr #2
    243c:	00009138 	andeq	r9, r0, r8, lsr r1
    2440:	00913802 	addseq	r3, r1, r2, lsl #16
    2444:	00002400 	andeq	r2, r0, r0, lsl #8
    2448:	0d120100 	ldfeqs	f0, [r2, #-0]
    244c:	0001470e 	andeq	r4, r1, lr, lsl #14
    2450:	00915c00 	addseq	r5, r1, r0, lsl #24
    2454:	915c0100 	cmpls	ip, r0, lsl #2
    2458:	00200000 	eoreq	r0, r0, r0
    245c:	12010000 	andne	r0, r1, #0, 0
    2460:	9c0f0023 	stcls	0, cr0, [pc], {35}	; 0x23
    2464:	01000006 	tsteq	r0, r6
    2468:	0056100b 	subseq	r1, r6, fp
    246c:	10010000 	andne	r0, r1, r0
    2470:	00000147 	andeq	r0, r0, r7, asr #2
    2474:	00009108 	andeq	r9, r0, r8, lsl #2
    2478:	00000030 	andeq	r0, r0, r0, lsr r0
    247c:	7f009c01 	svcvc	0x00009c01
    2480:	0400000c 	streq	r0, [r0], #-12
    2484:	000db900 	andeq	fp, sp, r0, lsl #18
    2488:	14010400 	strne	r0, [r1], #-1024	; 0xfffffc00
    248c:	0c000005 	stceq	0, cr0, [r0], {5}
    2490:	000006cf 	andeq	r0, r0, pc, asr #13
    2494:	000005da 	ldrdeq	r0, [r0], -sl
    2498:	000091a0 	andeq	r9, r0, r0, lsr #3
    249c:	000009b4 			; <UNDEFINED> instruction: 0x000009b4
    24a0:	000011e8 	andeq	r1, r0, r8, ror #3
    24a4:	c3070802 	movwgt	r0, #30722	; 0x7802
    24a8:	02000001 	andeq	r0, r0, #1, 0
    24ac:	01cd0704 	biceq	r0, sp, r4, lsl #14
    24b0:	04030000 	streq	r0, [r3], #-0
    24b4:	746e6905 	strbtvc	r6, [lr], #-2309	; 0xfffff6fb
    24b8:	06010200 	streq	r0, [r1], -r0, lsl #4
    24bc:	00000045 	andeq	r0, r0, r5, asr #32
    24c0:	fb050202 	blx	142cd2 <__bss_end__+0x137942>
    24c4:	02000001 	andeq	r0, r0, #1, 0
    24c8:	01df0504 	bicseq	r0, pc, r4, lsl #10
    24cc:	08020000 	stmdaeq	r2, {}	; <UNPREDICTABLE>
    24d0:	0001da05 	andeq	sp, r1, r5, lsl #20
    24d4:	08010200 	stmdaeq	r1, {r9}
    24d8:	00000043 	andeq	r0, r0, r3, asr #32
    24dc:	7d070202 	sfmvc	f0, 4, [r7, #-8]
    24e0:	04000000 	streq	r0, [r0], #-0
    24e4:	000002af 	andeq	r0, r0, pc, lsr #5
    24e8:	70193402 	andsvc	r3, r9, r2, lsl #8
    24ec:	02000000 	andeq	r0, r0, #0, 0
    24f0:	01c80704 	biceq	r0, r8, r4, lsl #14
    24f4:	c6040000 	strgt	r0, [r4], -r0
    24f8:	02000006 	andeq	r0, r0, #6, 0
    24fc:	00251937 	eoreq	r1, r5, r7, lsr r9
    2500:	33050000 	movwcc	r0, #20480	; 0x5000
    2504:	92000000 	andls	r0, r0, #0, 0
    2508:	06000000 	streq	r0, [r0], -r0
    250c:	00000033 	andeq	r0, r0, r3, lsr r0
    2510:	01e80700 	mvneq	r0, r0, lsl #14
    2514:	1c030000 	stcne	0, cr0, [r3], {-0}
    2518:	00009e0e 	andeq	r9, r0, lr, lsl #28
    251c:	83040800 	movwhi	r0, #18432	; 0x4800
    2520:	05000000 	streq	r0, [r0, #-0]
    2524:	00000033 	andeq	r0, r0, r3, lsr r0
    2528:	000000b3 	strheq	r0, [r0], -r3
    252c:	0000b306 	andeq	fp, r0, r6, lsl #6
    2530:	04080000 	streq	r0, [r8], #-0
    2534:	000000c0 	andeq	r0, r0, r0, asr #1
    2538:	4c080102 	stfmis	f0, [r8], {2}
    253c:	09000000 	stmdbeq	r0, {}	; <UNPREDICTABLE>
    2540:	000000b9 	strheq	r0, [r0], -r9
    2544:	00067a07 	andeq	r7, r6, r7, lsl #20
    2548:	0e210300 	cdpeq	3, 2, cr0, cr1, cr0, {0}
    254c:	000000d1 	ldrdeq	r0, [r0], -r1
    2550:	00a40408 	adceq	r0, r4, r8, lsl #8
    2554:	e2070000 	and	r0, r7, #0, 0
    2558:	04000006 	streq	r0, [r0], #-6
    255c:	00b90d0b 	adcseq	r0, r9, fp, lsl #26
    2560:	3b070000 	blcc	1c2568 <__bss_end__+0x1b71d8>
    2564:	04000007 	streq	r0, [r0], #-7
    2568:	00b90d0c 	adcseq	r0, r9, ip, lsl #26
    256c:	b3070000 	movwlt	r0, #28672	; 0x7000
    2570:	04000003 	streq	r0, [r0], #-3
    2574:	00b90d0d 	adcseq	r0, r9, sp, lsl #26
    2578:	85070000 	strhi	r0, [r7, #-0]
    257c:	04000004 	streq	r0, [r0], #-4
    2580:	00b90d0e 	adcseq	r0, r9, lr, lsl #26
    2584:	d2070000 	andle	r0, r7, #0, 0
    2588:	04000004 	streq	r0, [r0], #-4
    258c:	00b90d0f 	adcseq	r0, r9, pc, lsl #26
    2590:	11070000 	mrsne	r0, (UNDEF: 7)
    2594:	04000004 	streq	r0, [r0], #-4
    2598:	00b90d10 	adcseq	r0, r9, r0, lsl sp
    259c:	64070000 	strvs	r0, [r7], #-0
    25a0:	04000007 	streq	r0, [r0], #-7
    25a4:	00b90d11 	adcseq	r0, r9, r1, lsl sp
    25a8:	ff070000 			; <UNDEFINED> instruction: 0xff070000
    25ac:	04000006 	streq	r0, [r0], #-6
    25b0:	00b90d12 	adcseq	r0, r9, r2, lsl sp
    25b4:	43040000 	movwmi	r0, #16384	; 0x4000
    25b8:	05000006 	streq	r0, [r0, #-6]
    25bc:	01431b28 	cmpeq	r3, r8, lsr #22
    25c0:	670a0000 	strvs	r0, [sl, -r0]
    25c4:	04000006 	streq	r0, [r0], #-6
    25c8:	015a0006 	cmpeq	sl, r6
    25cc:	520b0000 	andpl	r0, fp, #0, 0
    25d0:	5a000006 	bpl	25f0 <__code_start__-0x5a10>
    25d4:	00000001 	andeq	r0, r0, r1
    25d8:	04040c00 	streq	r0, [r4], #-3072	; 0xfffff400
    25dc:	00000669 	andeq	r0, r0, r9, ror #12
    25e0:	37186305 	ldrcc	r6, [r8, -r5, lsl #6]
    25e4:	0d000001 	stceq	0, cr0, [r0, #-4]
    25e8:	00000639 	andeq	r0, r0, r9, lsr r6
    25ec:	33058101 	movwcc	r8, #20737	; 0x5101
    25f0:	28000000 	stmdacs	r0, {}	; <UNPREDICTABLE>
    25f4:	2c000095 	stccs	0, cr0, [r0], {149}	; 0x95
    25f8:	01000006 	tsteq	r0, r6
    25fc:	00086a9c 	muleq	r8, ip, sl
    2600:	75620e00 	strbvc	r0, [r2, #-3584]!	; 0xfffff200
    2604:	81010066 	tsthi	r1, r6, rrx
    2608:	00086a15 	andeq	r6, r8, r5, lsl sl
    260c:	000eb100 	andeq	fp, lr, r0, lsl #2
    2610:	000ea700 	andeq	sl, lr, r0, lsl #14
    2614:	006e0e00 	rsbeq	r0, lr, r0, lsl #28
    2618:	331e8101 	tstcc	lr, #1073741824	; 0x40000000
    261c:	fe000000 	cdp2	0, 0, cr0, cr0, cr0, {0}
    2620:	f600000e 			; <UNDEFINED> instruction: 0xf600000e
    2624:	0e00000e 	cdpeq	0, 0, cr0, cr0, cr14, {0}
    2628:	00746d66 	rsbseq	r6, r4, r6, ror #26
    262c:	b32d8101 			; <UNDEFINED> instruction: 0xb32d8101
    2630:	50000000 	andpl	r0, r0, r0
    2634:	3800000f 	stmdacc	r0, {r0, r1, r2, r3}
    2638:	0f00000f 	svceq	0x0000000f
    263c:	00000634 	andeq	r0, r0, r4, lsr r6
    2640:	5c3a8101 	ldfpld	f0, [sl], #-4
    2644:	12000001 	andne	r0, r0, #1, 0
    2648:	e4000010 	str	r0, [r0], #-16
    264c:	1000000f 	andne	r0, r0, pc
    2650:	82010070 	andhi	r0, r1, #112, 0	; 0x70
    2654:	00086a08 	andeq	r6, r8, r8, lsl #20
    2658:	00116500 	andseq	r6, r1, r0, lsl #10
    265c:	00114f00 	andseq	r4, r1, r0, lsl #30
    2660:	00651000 	rsbeq	r1, r5, r0
    2664:	6a128201 	bvs	4a2e70 <__bss_end__+0x497ae0>
    2668:	ee000008 	cdp	0, 0, cr0, cr0, cr8, {0}
    266c:	ec000011 	stc	0, cr0, [r0], {17}
    2670:	10000011 	andne	r0, r0, r1, lsl r0
    2674:	01003078 	tsteq	r0, r8, ror r0
    2678:	00640e83 	rsbeq	r0, r4, r3, lsl #29
    267c:	12070000 	andne	r0, r7, #0, 0
    2680:	12010000 	andne	r0, r1, #0, 0
    2684:	78100000 	ldmdavc	r0, {}	; <UNPREDICTABLE>
    2688:	83010031 	movwhi	r0, #4145	; 0x1031
    268c:	00006411 	andeq	r6, r0, r1, lsl r4
    2690:	00123600 	andseq	r3, r2, r0, lsl #12
    2694:	00123000 	andseq	r3, r2, r0
    2698:	071d1100 	ldreq	r1, [sp, -r0, lsl #2]
    269c:	86010000 	strhi	r0, [r1], -r0
    26a0:	0000b311 	andeq	fp, r0, r1, lsl r3
    26a4:	00126700 	andseq	r6, r2, r0, lsl #14
    26a8:	00125f00 	andseq	r5, r2, r0, lsl #30
    26ac:	01b61200 			; <UNDEFINED> instruction: 0x01b61200
    26b0:	08800000 	stmeq	r0, {}	; <UNPREDICTABLE>
    26b4:	03050000 	movweq	r0, #20480	; 0x5000
    26b8:	0000ad3c 	andeq	sl, r0, ip, lsr sp
    26bc:	0001a813 	andeq	sl, r1, r3, lsl r8
    26c0:	00731000 	rsbseq	r1, r3, r0
    26c4:	6a0a9101 	bvs	2a6ad0 <__bss_end__+0x29b740>
    26c8:	ad000008 	stcge	0, cr0, [r0, #-32]	; 0xffffffe0
    26cc:	a1000012 	tstge	r0, r2, lsl r0
    26d0:	14000012 	strne	r0, [r0], #-18	; 0xffffffee
    26d4:	006d756e 	rsbeq	r7, sp, lr, ror #10
    26d8:	850d9101 	strhi	r9, [sp, #-257]	; 0xfffffeff
    26dc:	03000008 	movweq	r0, #8
    26e0:	157dd891 	ldrbne	sp, [sp, #-2193]!	; 0xfffff76f
    26e4:	00000771 	andeq	r0, r0, r1, ror r7
    26e8:	85179101 	ldrhi	r9, [r7, #-257]	; 0xfffffeff
    26ec:	03000008 	movweq	r0, #8
    26f0:	117ed891 			; <UNDEFINED> instruction: 0x117ed891
    26f4:	000006f1 	strdeq	r0, [r0], -r1
    26f8:	2c0d9201 	sfmcs	f1, 1, [sp], {1}
    26fc:	ff000000 			; <UNDEFINED> instruction: 0xff000000
    2700:	f7000012 			; <UNDEFINED> instruction: 0xf7000012
    2704:	16000012 			; <UNDEFINED> instruction: 0x16000012
    2708:	000001d0 	ldrdeq	r0, [r0], -r0	; <UNPREDICTABLE>
    270c:	000004f1 	strdeq	r0, [r0], -r1
    2710:	00797410 	rsbseq	r7, r9, r0, lsl r4
    2714:	b31d9e01 	tstlt	sp, #1, 28
    2718:	40000000 	andmi	r0, r0, r0
    271c:	34000013 	strcc	r0, [r0], #-19	; 0xffffffed
    2720:	14000013 	strne	r0, [r0], #-19	; 0xffffffed
    2724:	01007878 	tsteq	r0, r8, ror r8
    2728:	00771aa2 	rsbseq	r1, r7, r2, lsr #21
    272c:	59060000 	stmdbpl	r6, {}	; <UNPREDICTABLE>
    2730:	935b0493 	cmpls	fp, #-1828716544	; 0x93000000
    2734:	96b41704 	ldrtls	r1, [r4], r4, lsl #14
    2738:	0c3a0000 	ldceq	0, cr0, [sl], #-0
    273c:	02d80000 	sbcseq	r0, r8, #0, 0
    2740:	01180000 	tsteq	r8, r0
    2744:	00760250 	rsbseq	r0, r6, r0, asr r2
    2748:	05510118 	ldrbeq	r0, [r1, #-280]	; 0xfffffee8
    274c:	00ac3003 	adceq	r3, ip, r3
    2750:	52011800 	andpl	r1, r1, #0, 16
    2754:	17003301 	strne	r3, [r0, -r1, lsl #6]
    2758:	000096cc 	andeq	r9, r0, ip, asr #13
    275c:	00000c3a 	andeq	r0, r0, sl, lsr ip
    2760:	000002fa 	strdeq	r0, [r0], -sl
    2764:	02500118 	subseq	r0, r0, #6
    2768:	01180076 	tsteq	r8, r6, ror r0
    276c:	44030551 	strmi	r0, [r3], #-1361	; 0xfffffaaf
    2770:	180000ac 	stmdane	r0, {r2, r3, r5, r7}
    2774:	33015201 	movwcc	r5, #4609	; 0x1201
    2778:	96f01700 	ldrbtls	r1, [r0], r0, lsl #14
    277c:	0c460000 	mareq	acc0, r0, r6
    2780:	03170000 	tsteq	r7, #0, 0
    2784:	01180000 	tsteq	r8, r0
    2788:	34030550 	strcc	r0, [r3], #-1360	; 0xfffffab0
    278c:	180000ac 	stmdane	r0, {r2, r3, r5, r7}
    2790:	7b025101 	blvc	96b9c <__bss_end__+0x8b80c>
    2794:	fc170000 	ldc2	0, cr0, [r7], {-0}
    2798:	46000096 			; <UNDEFINED> instruction: 0x46000096
    279c:	3400000c 	strcc	r0, [r0], #-12
    27a0:	18000003 	stmdane	r0, {r0, r1}
    27a4:	03055001 	movweq	r5, #20481	; 0x5001
    27a8:	0000ac3c 	andeq	sl, r0, ip, lsr ip
    27ac:	02510118 	subseq	r0, r1, #6
    27b0:	17000079 	smlsdxne	r0, r9, r0, r0
    27b4:	0000970c 	andeq	r9, r0, ip, lsl #14
    27b8:	00000c3a 	andeq	r0, r0, sl, lsr ip
    27bc:	00000356 	andeq	r0, r0, r6, asr r3
    27c0:	02500118 	subseq	r0, r0, #6
    27c4:	01180076 	tsteq	r8, r6, ror r0
    27c8:	30030551 	andcc	r0, r3, r1, asr r5
    27cc:	180000ac 	stmdane	r0, {r2, r3, r5, r7}
    27d0:	33015201 	movwcc	r5, #4609	; 0x1201
    27d4:	973c1700 	ldrls	r1, [ip, -r0, lsl #14]!
    27d8:	0aa40000 	beq	fe9027e0 <__bss_end__+0xfe8f7450>
    27dc:	03830000 	orreq	r0, r3, #0, 0
    27e0:	01180000 	tsteq	r8, r0
    27e4:	18400150 	stmdane	r0, {r4, r6, r8}^
    27e8:	91035101 	tstls	r3, r1, lsl #2
    27ec:	01187dd0 			; <UNDEFINED> instruction: 0x01187dd0
    27f0:	007b0252 	rsbseq	r0, fp, r2, asr r2
    27f4:	02530118 	subseq	r0, r3, #6
    27f8:	02180075 	andseq	r0, r8, #117, 0	; 0x75
    27fc:	7602007d 			; <UNDEFINED> instruction: 0x7602007d
    2800:	5c170000 	ldcpl	0, cr0, [r7], {-0}
    2804:	a4000097 	strge	r0, [r0], #-151	; 0xffffff69
    2808:	aa00000a 	bge	2838 <__code_start__-0x57c8>
    280c:	18000003 	stmdane	r0, {r0, r1}
    2810:	40015001 	andmi	r5, r1, r1
    2814:	03510118 	cmpeq	r1, #6
    2818:	187ed091 	ldmdane	lr!, {r0, r4, r7, ip, lr, pc}^
    281c:	79025201 	stmdbvc	r2, {r0, r9, ip, lr}
    2820:	7d021800 	stcvc	8, cr1, [r2, #-0]
    2824:	00760200 	rsbseq	r0, r6, r0, lsl #4
    2828:	976c1700 	strbls	r1, [ip, -r0, lsl #14]!
    282c:	0c520000 	mraeq	r0, r2, acc0
    2830:	03c60000 	biceq	r0, r6, #0, 0
    2834:	01180000 	tsteq	r8, r0
    2838:	d0910350 	addsle	r0, r1, r0, asr r3
    283c:	5101187d 	tstpl	r1, sp, ror r8
    2840:	7ed29103 	atnvcs	f1, f3
    2844:	99b01700 	ldmibls	r0!, {r8, r9, sl, ip}
    2848:	0c3a0000 	ldceq	0, cr0, [sl], #-0
    284c:	03e80000 	mvneq	r0, #0, 0
    2850:	01180000 	tsteq	r8, r0
    2854:	00760250 	rsbseq	r0, r6, r0, asr r2
    2858:	05510118 	ldrbeq	r0, [r1, #-280]	; 0xfffffee8
    285c:	00ac4403 	adceq	r4, ip, r3, lsl #8
    2860:	52011800 	andpl	r1, r1, #0, 16
    2864:	17003301 	strne	r3, [r0, -r1, lsl #6]
    2868:	000099d4 	ldrdeq	r9, [r0], -r4
    286c:	00000aa4 	andeq	r0, r0, r4, lsr #21
    2870:	00000415 	andeq	r0, r0, r5, lsl r4
    2874:	01500118 	cmpeq	r0, r8, lsl r1
    2878:	5101183a 	tstpl	r1, sl, lsr r8
    287c:	7dd09103 	ldfvcp	f1, [r0, #12]
    2880:	02520118 	subseq	r0, r2, #6
    2884:	0118007b 	tsteq	r8, fp, ror r0
    2888:	00750253 	rsbseq	r0, r5, r3, asr r2
    288c:	007d0218 	rsbseq	r0, sp, r8, lsl r2
    2890:	00007602 	andeq	r7, r0, r2, lsl #12
    2894:	0099f417 	addseq	pc, r9, r7, lsl r4	; <UNPREDICTABLE>
    2898:	000aa400 	andeq	sl, sl, r0, lsl #8
    289c:	00043c00 	andeq	r3, r4, r0, lsl #24
    28a0:	50011800 	andpl	r1, r1, r0, lsl #16
    28a4:	01183a01 	tsteq	r8, r1, lsl #20
    28a8:	d0910351 	addsle	r0, r1, r1, asr r3
    28ac:	5201187e 	andpl	r1, r1, #8257536	; 0x7e0000
    28b0:	18007902 	stmdane	r0, {r1, r8, fp, ip, sp, lr}
    28b4:	02007d02 	andeq	r7, r0, #128	; 0x80
    28b8:	17000076 	smlsdxne	r0, r6, r0, r0
    28bc:	00009a00 	andeq	r9, r0, r0, lsl #20
    28c0:	00000c5e 	andeq	r0, r0, lr, asr ip
    28c4:	0000045a 	andeq	r0, r0, sl, asr r4
    28c8:	03500118 	cmpeq	r0, #6
    28cc:	187dd091 	ldmdane	sp!, {r0, r4, r7, ip, lr, pc}^
    28d0:	03055101 	movweq	r5, #20737	; 0x5101
    28d4:	0000aa4c 	andeq	sl, r0, ip, asr #20
    28d8:	9a141700 	bls	5084e0 <__bss_end__+0x4fd150>
    28dc:	0c6a0000 	stcleq	0, cr0, [sl], #-0
    28e0:	04760000 	ldrbteq	r0, [r6], #-0
    28e4:	01180000 	tsteq	r8, r0
    28e8:	d0910350 	addsle	r0, r1, r0, asr r3
    28ec:	5101187d 	tstpl	r1, sp, ror r8
    28f0:	7ed09103 	atnvcs	f1, f3
    28f4:	9a201900 	bls	808cfc <__bss_end__+0x7fd96c>
    28f8:	0c520000 	mraeq	r0, r2, acc0
    28fc:	e4170000 	ldr	r0, [r7], #-0
    2900:	4600009a 			; <UNDEFINED> instruction: 0x4600009a
    2904:	a800000c 	stmdage	r0, {r2, r3}
    2908:	18000004 	stmdane	r0, {r2}
    290c:	03055001 	movweq	r5, #20481	; 0x5001
    2910:	0000a7ac 	andeq	sl, r0, ip, lsr #15
    2914:	05510118 	ldrbeq	r0, [r1, #-280]	; 0xfffffee8
    2918:	00abe403 	adceq	lr, fp, r3, lsl #8
    291c:	52011800 	andpl	r1, r1, #0, 16
    2920:	ad3c0305 	ldcge	3, cr0, [ip, #-20]!	; 0xffffffec
    2924:	19000000 	stmdbne	r0, {}	; <UNPREDICTABLE>
    2928:	00009ae8 	andeq	r9, r0, r8, ror #21
    292c:	00000c76 	andeq	r0, r0, r6, ror ip
    2930:	009b0017 	addseq	r0, fp, r7, lsl r0
    2934:	000c4600 	andeq	r4, ip, r0, lsl #12
    2938:	0004e700 	andeq	lr, r4, r0, lsl #14
    293c:	50011800 	andpl	r1, r1, r0, lsl #16
    2940:	ac840305 	stcge	3, cr0, [r4], {5}
    2944:	01180000 	tsteq	r8, r0
    2948:	e4030551 	str	r0, [r3], #-1361	; 0xfffffaaf
    294c:	180000ab 	stmdane	r0, {r0, r1, r3, r5, r7}
    2950:	03055201 	movweq	r5, #20993	; 0x5201
    2954:	0000ad3c 	andeq	sl, r0, ip, lsr sp
    2958:	02530118 	subseq	r0, r3, #6
    295c:	0218b608 	andseq	fp, r8, #8, 12	; 0x800000
    2960:	7602007d 			; <UNDEFINED> instruction: 0x7602007d
    2964:	04190000 	ldreq	r0, [r9], #-0
    2968:	7600009b 			; <UNDEFINED> instruction: 0x7600009b
    296c:	0000000c 	andeq	r0, r0, ip
    2970:	0009e31a 	andeq	lr, r9, sl, lsl r3
    2974:	0095b400 	addseq	fp, r5, r0, lsl #8
    2978:	f8000400 			; <UNDEFINED> instruction: 0xf8000400
    297c:	01000001 	tsteq	r0, r1
    2980:	05150a94 	ldreq	r0, [r5, #-2708]	; 0xfffff56c
    2984:	f41b0000 			; <UNDEFINED> instruction: 0xf41b0000
    2988:	9c000009 	stcls	0, cr0, [r0], {9}
    298c:	98000013 	stmdals	r0, {r0, r1, r4}
    2990:	00000013 	andeq	r0, r0, r3, lsl r0
    2994:	0008951a 	andeq	r9, r8, sl, lsl r5
    2998:	00979c00 	addseq	r9, r7, r0, lsl #24
    299c:	18000100 	stmdane	r0, {r8}
    29a0:	01000002 	tsteq	r0, r2
    29a4:	064b09dc 			; <UNDEFINED> instruction: 0x064b09dc
    29a8:	be1b0000 	cdplt	0, 1, cr0, cr11, cr0, {0}
    29ac:	ca000008 	bgt	29d4 <__code_start__-0x562c>
    29b0:	c4000013 	strgt	r0, [r0], #-19	; 0xffffffed
    29b4:	1b000013 	blne	2a08 <__code_start__-0x55f8>
    29b8:	000008e0 	andeq	r0, r0, r0, ror #17
    29bc:	000013ff 	strdeq	r1, [r0], -pc	; <UNPREDICTABLE>
    29c0:	000013f9 	strdeq	r1, [r0], -r9
    29c4:	0008d41b 	andeq	sp, r8, fp, lsl r4
    29c8:	00143100 	andseq	r3, r4, r0, lsl #2
    29cc:	00142b00 	andseq	r2, r4, r0, lsl #22
    29d0:	08c81c00 	stmiaeq	r8, {sl, fp, ip}^
    29d4:	b21b0000 	andslt	r0, fp, #0, 0
    29d8:	62000008 	andvs	r0, r0, #8, 0
    29dc:	5a000014 	bpl	2a34 <__code_start__-0x55cc>
    29e0:	1b000014 	blne	2a38 <__code_start__-0x55c8>
    29e4:	000008a6 	andeq	r0, r0, r6, lsr #17
    29e8:	000014a5 	andeq	r1, r0, r5, lsr #9
    29ec:	0000149f 	muleq	r0, pc, r4	; <UNPREDICTABLE>
    29f0:	00021813 	andeq	r1, r2, r3, lsl r8
    29f4:	08ec1d00 	stmiaeq	ip!, {r8, sl, fp, ip}^
    29f8:	91030000 	mrsls	r0, (UNDEF: 3)
    29fc:	f81e7ed8 			; <UNDEFINED> instruction: 0xf81e7ed8
    2a00:	df000008 	svcle	0x00000008
    2a04:	d1000014 	tstle	r0, r4, lsl r0
    2a08:	1f000014 	svcne	0x00000014
    2a0c:	00000902 	andeq	r0, r0, r2, lsl #18
    2a10:	0009a31a 	andeq	sl, r9, sl, lsl r3
    2a14:	0097a800 	addseq	sl, r7, r0, lsl #16
    2a18:	48000400 	stmdami	r0, {sl}
    2a1c:	01000002 	tsteq	r0, r2
    2a20:	05e2097c 	strbeq	r0, [r2, #2428]!	; 0x97c
    2a24:	ca1b0000 	bgt	6c2a2c <__bss_end__+0x6b769c>
    2a28:	49000009 	stmdbmi	r0, {r0, r3}
    2a2c:	43000015 	movwmi	r0, #21
    2a30:	1b000015 	blne	2a8c <__code_start__-0x5574>
    2a34:	000009be 			; <UNDEFINED> instruction: 0x000009be
    2a38:	0000157e 	andeq	r1, r0, lr, ror r5
    2a3c:	00001572 	andeq	r1, r0, r2, ror r5
    2a40:	0009b41b 	andeq	fp, r9, fp, lsl r4
    2a44:	0015e400 	andseq	lr, r5, r0, lsl #8
    2a48:	0015d400 	andseq	sp, r5, r0, lsl #8
    2a4c:	02481300 	subeq	r1, r8, #0, 6
    2a50:	d61e0000 	ldrle	r0, [lr], -r0
    2a54:	61000009 	tstvs	r0, r9
    2a58:	53000016 	movwpl	r0, #22
    2a5c:	00000016 	andeq	r0, r0, r6, lsl r0
    2a60:	094f2000 	stmdbeq	pc, {sp}^	; <UNPREDICTABLE>
    2a64:	98700000 	ldmdals	r0!, {}^	; <UNPREDICTABLE>
    2a68:	00020000 	andeq	r0, r2, r0
    2a6c:	00000278 	andeq	r0, r0, r8, ror r2
    2a70:	1b097c01 	blne	261a7c <__bss_end__+0x2566ec>
    2a74:	00000980 	andeq	r0, r0, r0, lsl #19
    2a78:	000016c1 	andeq	r1, r0, r1, asr #13
    2a7c:	000016bb 			; <UNDEFINED> instruction: 0x000016bb
    2a80:	0009761b 	andeq	r7, r9, fp, lsl r6
    2a84:	0016f700 	andseq	pc, r6, r0, lsl #14
    2a88:	0016ed00 	andseq	lr, r6, r0, lsl #26
    2a8c:	096c1b00 	stmdbeq	ip!, {r8, r9, fp, ip}^
    2a90:	17460000 	strbne	r0, [r6, -r0]
    2a94:	17420000 	strbne	r0, [r2, -r0]
    2a98:	601b0000 	andsvs	r0, fp, r0
    2a9c:	76000009 	strvc	r0, [r0], -r9
    2aa0:	68000017 	stmdavs	r0, {r0, r1, r2, r4}
    2aa4:	13000017 	movwne	r0, #23
    2aa8:	00000278 	andeq	r0, r0, r8, ror r2
    2aac:	00098c1e 	andeq	r8, r9, lr, lsl ip
    2ab0:	0017db00 	andseq	sp, r7, r0, lsl #22
    2ab4:	0017d900 	andseq	sp, r7, r0, lsl #18
    2ab8:	09981e00 	ldmibeq	r8, {r9, sl, fp, ip}
    2abc:	17f50000 	ldrbne	r0, [r5, r0]!
    2ac0:	17ef0000 	strbne	r0, [pc, r0]!
    2ac4:	00000000 	andeq	r0, r0, r0
    2ac8:	951a0000 	ldrls	r0, [sl, #-0]
    2acc:	ac000008 	stcge	0, cr0, [r0], {8}
    2ad0:	00000098 	muleq	r0, r8, r0
    2ad4:	0002a800 	andeq	sl, r2, r0, lsl #16
    2ad8:	09d60100 	ldmibeq	r6, {r8}^
    2adc:	00000789 	andeq	r0, r0, r9, lsl #15
    2ae0:	0008be1b 	andeq	fp, r8, fp, lsl lr
    2ae4:	00182800 	andseq	r2, r8, r0, lsl #16
    2ae8:	00182400 	andseq	r2, r8, r0, lsl #8
    2aec:	08e01b00 	stmiaeq	r0!, {r8, r9, fp, ip}^
    2af0:	184e0000 	stmdane	lr, {}^	; <UNPREDICTABLE>
    2af4:	184a0000 	stmdane	sl, {}^	; <UNPREDICTABLE>
    2af8:	d41b0000 	ldrle	r0, [fp], #-0
    2afc:	72000008 	andvc	r0, r0, #8, 0
    2b00:	6e000018 	mcrvs	0, 0, r0, cr0, cr8, {0}
    2b04:	1c000018 	stcne	0, cr0, [r0], {24}
    2b08:	000008c8 	andeq	r0, r0, r8, asr #17
    2b0c:	0008b21b 	andeq	fp, r8, fp, lsl r2
    2b10:	00189600 	andseq	r9, r8, r0, lsl #12
    2b14:	00189000 	andseq	r9, r8, r0
    2b18:	08a61b00 	stmiaeq	r6!, {r8, r9, fp, ip}
    2b1c:	18c90000 	stmiane	r9, {}^	; <UNPREDICTABLE>
    2b20:	18c50000 	stmiane	r5, {}^	; <UNPREDICTABLE>
    2b24:	a8130000 	ldmdage	r3, {}	; <UNPREDICTABLE>
    2b28:	1d000002 	stcne	0, cr0, [r0, #-8]
    2b2c:	000008ec 	andeq	r0, r0, ip, ror #17
    2b30:	7ed89103 	atnvce	f1, f3
    2b34:	0008f81e 	andeq	pc, r8, lr, lsl r8	; <UNPREDICTABLE>
    2b38:	0018f300 	andseq	pc, r8, r0, lsl #6
    2b3c:	0018e900 	andseq	lr, r8, r0, lsl #18
    2b40:	09021e00 	stmdbeq	r2, {r9, sl, fp, ip}
    2b44:	19380000 	ldmdbne	r8!, {}	; <UNPREDICTABLE>
    2b48:	19340000 	ldmdbne	r4!, {}	; <UNPREDICTABLE>
    2b4c:	a31a0000 	tstge	sl, #0, 0
    2b50:	c8000009 	stmdagt	r0, {r0, r3}
    2b54:	03000098 	movweq	r0, #152	; 0x98
    2b58:	0002c800 	andeq	ip, r2, r0, lsl #16
    2b5c:	097c0100 	ldmdbeq	ip!, {r8}^
    2b60:	00000720 	andeq	r0, r0, r0, lsr #14
    2b64:	0009ca1b 	andeq	ip, r9, fp, lsl sl
    2b68:	00195a00 	andseq	r5, r9, r0, lsl #20
    2b6c:	00195600 	andseq	r5, r9, r0, lsl #12
    2b70:	09be1b00 	ldmibeq	lr!, {r8, r9, fp, ip}
    2b74:	197c0000 	ldmdbne	ip!, {}^	; <UNPREDICTABLE>
    2b78:	19780000 	ldmdbne	r8!, {}^	; <UNPREDICTABLE>
    2b7c:	b41b0000 	ldrlt	r0, [fp], #-0
    2b80:	a6000009 	strge	r0, [r0], -r9
    2b84:	9a000019 	bls	2bf0 <__code_start__-0x5410>
    2b88:	13000019 	movwne	r0, #25
    2b8c:	000002c8 	andeq	r0, r0, r8, asr #5
    2b90:	0009d61e 	andeq	sp, r9, lr, lsl r6
    2b94:	001a0200 	andseq	r0, sl, r0, lsl #4
    2b98:	0019f600 	andseq	pc, r9, r0, lsl #12
    2b9c:	20000000 	andcs	r0, r0, r0
    2ba0:	0000094f 	andeq	r0, r0, pc, asr #18
    2ba4:	00009950 	andeq	r9, r0, r0, asr r9
    2ba8:	02f00002 	rscseq	r0, r0, #2, 0
    2bac:	7c010000 	stcvc	0, cr0, [r1], {-0}
    2bb0:	09801b09 	stmibeq	r0, {r0, r3, r8, r9, fp, ip}
    2bb4:	1a520000 	bne	1482bbc <__bss_end__+0x147782c>
    2bb8:	1a4e0000 	bne	1382bc0 <__bss_end__+0x1377830>
    2bbc:	761b0000 	ldrvc	r0, [fp], -r0
    2bc0:	7a000009 	bvc	2bec <__code_start__-0x5414>
    2bc4:	7000001a 	andvc	r0, r0, sl, lsl r0
    2bc8:	1b00001a 	blne	2c38 <__code_start__-0x53c8>
    2bcc:	0000096c 	andeq	r0, r0, ip, ror #18
    2bd0:	00001ac6 	andeq	r1, r0, r6, asr #21
    2bd4:	00001ac2 	andeq	r1, r0, r2, asr #21
    2bd8:	0009601b 	andeq	r6, r9, fp, lsl r0
    2bdc:	001af400 	andseq	pc, sl, r0, lsl #8
    2be0:	001ae800 	andseq	lr, sl, r0, lsl #16
    2be4:	02f01300 	rscseq	r1, r0, #0, 6
    2be8:	8c1e0000 	ldchi	0, cr0, [lr], {-0}
    2bec:	4e000009 	cdpmi	0, 0, cr0, cr0, cr9, {0}
    2bf0:	4a00001b 	bmi	2c64 <__code_start__-0x539c>
    2bf4:	1e00001b 	mcrne	0, 0, r0, cr0, cr11, {0}
    2bf8:	00000998 	muleq	r0, r8, r9
    2bfc:	00001b74 	andeq	r1, r0, r4, ror fp
    2c00:	00001b70 	andeq	r1, r0, r0, ror fp
    2c04:	00000000 	andeq	r0, r0, r0
    2c08:	00967c17 	addseq	r7, r6, r7, lsl ip
    2c0c:	000aa400 	andeq	sl, sl, r0, lsl #8
    2c10:	0007af00 	andeq	sl, r7, r0, lsl #30
    2c14:	50011800 	andpl	r1, r1, r0, lsl #16
    2c18:	01184001 	tsteq	r8, r1
    2c1c:	d0910351 	addsle	r0, r1, r1, asr r3
    2c20:	5301187d 	movwpl	r1, #6269	; 0x187d
    2c24:	18007502 	stmdane	r0, {r1, r8, sl, ip, sp, lr}
    2c28:	01007d02 	tsteq	r0, r2, lsl #26
    2c2c:	8c170030 	ldchi	0, cr0, [r7], {48}	; 0x30
    2c30:	a4000097 	strge	r0, [r0], #-151	; 0xffffff69
    2c34:	cf00000a 	svcgt	0x0000000a
    2c38:	18000007 	stmdane	r0, {r0, r1, r2}
    2c3c:	3a015001 	bcc	56c48 <__bss_end__+0x4b8b8>
    2c40:	03510118 	cmpeq	r1, #6
    2c44:	187dd091 	ldmdane	sp!, {r0, r4, r7, ip, lr, pc}^
    2c48:	75025301 	strvc	r5, [r2, #-769]	; 0xfffffcff
    2c4c:	70170000 	andsvc	r0, r7, r0
    2c50:	4600009a 			; <UNDEFINED> instruction: 0x4600009a
    2c54:	e600000c 	str	r0, [r0], -ip
    2c58:	18000007 	stmdane	r0, {r0, r1, r2}
    2c5c:	03055001 	movweq	r5, #20481	; 0x5001
    2c60:	0000acd4 	ldrdeq	sl, [r0], -r4
    2c64:	9a802100 	bls	fe00b06c <__bss_end__+0xfdfffcdc>
    2c68:	07f80000 	ldrbeq	r0, [r8, r0]!
    2c6c:	01180000 	tsteq	r8, r0
    2c70:	c8910450 	ldmgt	r1, {r4, r6, sl}
    2c74:	1700067d 	smlsdxne	r0, sp, r6, r0
    2c78:	00009a94 	muleq	r0, r4, sl
    2c7c:	00000c46 	andeq	r0, r0, r6, asr #24
    2c80:	00000827 	andeq	r0, r0, r7, lsr #16
    2c84:	05500118 	ldrbeq	r0, [r0, #-280]	; 0xfffffee8
    2c88:	00ad0403 	adceq	r0, sp, r3, lsl #8
    2c8c:	51011800 	tstpl	r1, r0, lsl #16
    2c90:	abe40305 	blge	ff9038ac <__bss_end__+0xff8f851c>
    2c94:	01180000 	tsteq	r8, r0
    2c98:	3c030552 	cfstr32cc	mvfx0, [r3], {82}	; 0x52
    2c9c:	180000ad 	stmdane	r0, {r0, r2, r3, r5, r7}
    2ca0:	08025301 	stmdaeq	r2, {r0, r8, r9, ip, lr}
    2ca4:	981900e2 	ldmdals	r9, {r1, r5, r6, r7}
    2ca8:	7600009a 			; <UNDEFINED> instruction: 0x7600009a
    2cac:	1700000c 	strne	r0, [r0, -ip]
    2cb0:	00009aac 	andeq	r9, r0, ip, lsr #21
    2cb4:	00000c46 	andeq	r0, r0, r6, asr #24
    2cb8:	0000085f 	andeq	r0, r0, pc, asr r8
    2cbc:	05500118 	ldrbeq	r0, [r0, #-280]	; 0xfffffee8
    2cc0:	00acac03 	adceq	sl, ip, r3, lsl #24
    2cc4:	51011800 	tstpl	r1, r0, lsl #16
    2cc8:	abe40305 	blge	ff9038e4 <__bss_end__+0xff8f8554>
    2ccc:	01180000 	tsteq	r8, r0
    2cd0:	3c030552 	cfstr32cc	mvfx0, [r3], {82}	; 0x52
    2cd4:	180000ad 	stmdane	r0, {r0, r2, r3, r5, r7}
    2cd8:	08025301 	stmdaeq	r2, {r0, r8, r9, ip, lr}
    2cdc:	b01900be 	ldrhlt	r0, [r9], -lr
    2ce0:	7600009a 			; <UNDEFINED> instruction: 0x7600009a
    2ce4:	0000000c 	andeq	r0, r0, ip
    2ce8:	b9040800 	stmdblt	r4, {fp}
    2cec:	22000000 	andcs	r0, r0, #0, 0
    2cf0:	000000c0 	andeq	r0, r0, r0, asr #1
    2cf4:	00000880 	andeq	r0, r0, r0, lsl #17
    2cf8:	00002c23 	andeq	r2, r0, r3, lsr #24
    2cfc:	09000900 	stmdbeq	r0, {r8, fp}
    2d00:	00000870 	andeq	r0, r0, r0, ror r8
    2d04:	0000b922 	andeq	fp, r0, r2, lsr #18
    2d08:	00089500 	andeq	r9, r8, r0, lsl #10
    2d0c:	002c2300 	eoreq	r2, ip, r0, lsl #6
    2d10:	007f0000 	rsbseq	r0, pc, r0
    2d14:	00074824 	andeq	r4, r7, r4, lsr #16
    2d18:	01490100 	mrseq	r0, (UNDEF: 89)
    2d1c:	0000086a 	andeq	r0, r0, sl, ror #16
    2d20:	00092a01 	andeq	r2, r9, r1, lsl #20
    2d24:	03722500 	cmneq	r2, #0, 10
    2d28:	49010000 	stmdbmi	r1, {}	; <UNPREDICTABLE>
    2d2c:	00002c0f 	andeq	r2, r0, pc, lsl #24
    2d30:	73642600 	cmnvc	r4, #0, 12
    2d34:	49010074 	stmdbmi	r1, {r2, r4, r5, r6}
    2d38:	00086a1b 	andeq	r6, r8, fp, lsl sl
    2d3c:	006e2600 	rsbeq	r2, lr, r0, lsl #12
    2d40:	33244901 			; <UNDEFINED> instruction: 0x33244901
    2d44:	26000000 	strcs	r0, [r0], -r0
    2d48:	006c6176 	rsbeq	r6, ip, r6, ror r1
    2d4c:	332b4901 			; <UNDEFINED> instruction: 0x332b4901
    2d50:	25000000 	strcs	r0, [r0, #-0]
    2d54:	000006f1 	strdeq	r0, [r0], -r1
    2d58:	33344901 	teqcc	r4, #16384	; 0x4000
    2d5c:	25000000 	strcs	r0, [r0, #-0]
    2d60:	0000077e 	andeq	r0, r0, lr, ror r7
    2d64:	333f4901 	teqcc	pc, #16384	; 0x4000
    2d68:	27000000 	strcs	r0, [r0, -r0]
    2d6c:	00667562 	rsbeq	r7, r6, r2, ror #10
    2d70:	2a074e01 	bcs	1d657c <__bss_end__+0x1cb1ec>
    2d74:	27000009 	strcs	r0, [r0, -r9]
    2d78:	4e010070 	mcrmi	0, 0, r0, cr1, cr0, {3}
    2d7c:	00086a11 	andeq	r6, r8, r1, lsl sl
    2d80:	00752700 	rsbseq	r2, r5, r0, lsl #14
    2d84:	2c0b4f01 	stccs	15, cr4, [fp], {1}
    2d88:	12000000 	andne	r0, r0, #0, 0
    2d8c:	000001b6 			; <UNDEFINED> instruction: 0x000001b6
    2d90:	0000094a 	andeq	r0, r0, sl, asr #18
    2d94:	ad240305 	stcge	3, cr0, [r4, #-20]!	; 0xffffffec
    2d98:	29280000 	stmdbcs	r8!, {}	; <UNPREDICTABLE>
    2d9c:	00000735 	andeq	r0, r0, r5, lsr r7
    2da0:	2c0d5401 	cfstrscs	mvf5, [sp], {1}
    2da4:	00000000 	andeq	r0, r0, r0
    2da8:	00b92200 	adcseq	r2, r9, r0, lsl #4
    2dac:	093a0000 	ldmdbeq	sl!, {}	; <UNPREDICTABLE>
    2db0:	2c230000 	stccs	0, cr0, [r3], #-0
    2db4:	3f000000 	svccc	0x00000000
    2db8:	00c02200 	sbceq	r2, r0, r0, lsl #4
    2dbc:	094a0000 	stmdbeq	sl, {}^	; <UNPREDICTABLE>
    2dc0:	2c230000 	stccs	0, cr0, [r3], #-0
    2dc4:	04000000 	streq	r0, [r0], #-0
    2dc8:	093a0900 	ldmdbeq	sl!, {r8, fp}
    2dcc:	4d240000 	stcmi	0, cr0, [r4, #-0]
    2dd0:	01000007 	tsteq	r0, r7
    2dd4:	086a0e38 	stmdaeq	sl!, {r3, r4, r5, r9, sl, fp}^
    2dd8:	a3010000 	movwge	r0, #4096	; 0x1000
    2ddc:	26000009 	strcs	r0, [r0], -r9
    2de0:	00747364 	rsbseq	r7, r4, r4, ror #6
    2de4:	6a1c3801 	bvs	710df0 <__bss_end__+0x705a60>
    2de8:	26000008 	strcs	r0, [r0], -r8
    2dec:	3801006e 	stmdacc	r1, {r1, r2, r3, r5, r6}
    2df0:	00003325 	andeq	r3, r0, r5, lsr #6
    2df4:	00702600 	rsbseq	r2, r0, r0, lsl #12
    2df8:	6a2e3801 	bvs	b90e04 <__bss_end__+0xb85a74>
    2dfc:	25000008 	strcs	r0, [r0, #-8]
    2e00:	00000b18 	andeq	r0, r0, r8, lsl fp
    2e04:	6a373801 	bvs	dd0e10 <__bss_end__+0xdc5a80>
    2e08:	27000008 	strcs	r0, [r0, -r8]
    2e0c:	006e656c 	rsbeq	r6, lr, ip, ror #10
    2e10:	33063a01 	movwcc	r3, #27137	; 0x6a01
    2e14:	27000000 	strcs	r0, [r0, -r0]
    2e18:	3e010073 	mcrcc	0, 0, r0, cr1, cr3, {3}
    2e1c:	00086a08 	andeq	r6, r8, r8, lsl #20
    2e20:	702a0000 	eorvc	r0, sl, r0
    2e24:	01006461 	tsteq	r0, r1, ror #8
    2e28:	086a0e2e 	stmdaeq	sl!, {r1, r2, r3, r5, r9, sl, fp}^
    2e2c:	e3010000 	movw	r0, #4096	; 0x1000
    2e30:	26000009 	strcs	r0, [r0], -r9
    2e34:	2e010070 	mcrcs	0, 0, r0, cr1, cr0, {3}
    2e38:	00086a18 	andeq	r6, r8, r8, lsl sl
    2e3c:	03722500 	cmneq	r2, #0, 10
    2e40:	2e010000 	cdpcs	0, 0, cr0, cr1, cr0, {0}
    2e44:	00086a22 	andeq	r6, r8, r2, lsr #20
    2e48:	06f12500 	ldrbteq	r2, [r1], r0, lsl #10
    2e4c:	2e010000 	cdpcs	0, 0, cr0, cr1, cr0, {0}
    2e50:	0000332c 	andeq	r3, r0, ip, lsr #6
    2e54:	656c2700 	strbvs	r2, [ip, #-1792]!	; 0xfffff900
    2e58:	2f01006e 	svccs	0x0001006e
    2e5c:	00003306 	andeq	r3, r0, r6, lsl #6
    2e60:	be240000 	cdplt	0, 2, cr0, cr4, cr0, {0}
    2e64:	01000006 	tsteq	r0, r6
    2e68:	00330c27 	eorseq	r0, r3, r7, lsr #24
    2e6c:	ff010000 			; <UNDEFINED> instruction: 0xff010000
    2e70:	26000009 	strcs	r0, [r0], -r9
    2e74:	27010063 	strcs	r0, [r1, -r3, rrx]
    2e78:	00003318 	andeq	r3, r0, r8, lsl r3
    2e7c:	0e2b0000 	cdpeq	0, 2, cr0, cr11, cr0, {0}
    2e80:	01000007 	tsteq	r0, r7
    2e84:	94c8061f 	strbls	r0, [r8], #1567	; 0x61f
    2e88:	00600000 	rsbeq	r0, r0, r0
    2e8c:	9c010000 	stcls	0, cr0, [r1], {-0}
    2e90:	00000a8f 	andeq	r0, r0, pc, lsl #21
    2e94:	0006f70f 	andeq	pc, r6, pc, lsl #14
    2e98:	1b1f0100 	blne	7c32a0 <__bss_end__+0x7b7f10>
    2e9c:	0000009e 	muleq	r0, lr, r0
    2ea0:	00001b99 	muleq	r0, r9, fp
    2ea4:	00001b95 	muleq	r0, r5, fp
    2ea8:	00075c0f 	andeq	r5, r7, pc, lsl #24
    2eac:	301f0100 	andscc	r0, pc, r0, lsl #2
    2eb0:	000000d1 	ldrdeq	r0, [r0], -r1
    2eb4:	00001bbe 			; <UNDEFINED> instruction: 0x00001bbe
    2eb8:	00001bba 			; <UNDEFINED> instruction: 0x00001bba
    2ebc:	0001b612 	andeq	fp, r1, r2, lsl r6
    2ec0:	000a9f00 	andeq	r9, sl, r0, lsl #30
    2ec4:	2c030500 	cfstr32cs	mvfx0, [r3], {-0}
    2ec8:	170000ad 	strne	r0, [r0, -sp, lsr #1]
    2ecc:	0000950c 	andeq	r9, r0, ip, lsl #10
    2ed0:	00000c46 	andeq	r0, r0, r6, asr #24
    2ed4:	00000a85 	andeq	r0, r0, r5, lsl #21
    2ed8:	05500118 	ldrbeq	r0, [r0, #-280]	; 0xfffffee8
    2edc:	00a7ac03 	adceq	sl, r7, r3, lsl #24
    2ee0:	51011800 	tstpl	r1, r0, lsl #16
    2ee4:	abe40305 	blge	ff903b00 <__bss_end__+0xff8f8770>
    2ee8:	01180000 	tsteq	r8, r0
    2eec:	2c030552 	cfstr32cs	mvfx0, [r3], {82}	; 0x52
    2ef0:	180000ad 	stmdane	r0, {r0, r2, r3, r5, r7}
    2ef4:	08025301 	stmdaeq	r2, {r0, r8, r9, ip, lr}
    2ef8:	7d021820 	stcvc	8, cr1, [r2, #-128]	; 0xffffff80
    2efc:	1c030500 	cfstr32ne	mvfx0, [r3], {-0}
    2f00:	000000ac 	andeq	r0, r0, ip, lsr #1
    2f04:	00951019 	addseq	r1, r5, r9, lsl r0
    2f08:	000c7600 	andeq	r7, ip, r0, lsl #12
    2f0c:	c0220000 	eorgt	r0, r2, r0
    2f10:	9f000000 	svcls	0x00000000
    2f14:	2300000a 	movwcs	r0, #10
    2f18:	0000002c 	andeq	r0, r0, ip, lsr #32
    2f1c:	8f09000e 	svchi	0x0009000e
    2f20:	2c00000a 	stccs	0, cr0, [r0], {10}
    2f24:	00000895 	muleq	r0, r5, r8
    2f28:	000091a0 	andeq	r9, r0, r0, lsr #3
    2f2c:	00000328 	andeq	r0, r0, r8, lsr #6
    2f30:	0c3a9c01 	ldceq	12, cr9, [sl], #-4
    2f34:	a61b0000 	ldrge	r0, [fp], -r0
    2f38:	f7000008 			; <UNDEFINED> instruction: 0xf7000008
    2f3c:	df00001b 	svcle	0x0000001b
    2f40:	1b00001b 	blne	2fb4 <__code_start__-0x504c>
    2f44:	000008b2 			; <UNDEFINED> instruction: 0x000008b2
    2f48:	00001ca1 	andeq	r1, r0, r1, lsr #25
    2f4c:	00001c99 	muleq	r0, r9, ip
    2f50:	0008c81b 	andeq	ip, r8, fp, lsl r8
    2f54:	001cf800 	andseq	pc, ip, r0, lsl #16
    2f58:	001cd800 	andseq	sp, ip, r0, lsl #16
    2f5c:	08d41b00 	ldmeq	r4, {r8, r9, fp, ip}^
    2f60:	1dce0000 	stclne	0, cr0, [lr]
    2f64:	1dc00000 	stclne	0, cr0, [r0]
    2f68:	e02d0000 	eor	r0, sp, r0
    2f6c:	02000008 	andeq	r0, r0, #8, 0
    2f70:	ec1d0091 	ldc	0, cr0, [sp], {145}	; 0x91
    2f74:	03000008 	movweq	r0, #8
    2f78:	1e7fa891 	mrcne	8, 3, sl, cr15, cr1, {4}
    2f7c:	000008f8 	strdeq	r0, [r0], -r8
    2f80:	00001e62 	andeq	r1, r0, r2, ror #28
    2f84:	00001e2e 	andeq	r1, r0, lr, lsr #28
    2f88:	0009021e 	andeq	r0, r9, lr, lsl r2
    2f8c:	001fc900 	andseq	ip, pc, r0, lsl #18
    2f90:	001fa700 	andseq	sl, pc, r0, lsl #14
    2f94:	08be2e00 	ldmeq	lr!, {r9, sl, fp, sp}
    2f98:	1a800000 	bne	fe002fa0 <__bss_end__+0xfdff7c10>
    2f9c:	000009a3 	andeq	r0, r0, r3, lsr #19
    2fa0:	00009244 	andeq	r9, r0, r4, asr #4
    2fa4:	01400004 	cmpeq	r0, r4
    2fa8:	7c010000 	stcvc	0, cr0, [r1], {-0}
    2fac:	000b6d09 	andeq	r6, fp, r9, lsl #26
    2fb0:	09ca1b00 	stmibeq	sl, {r8, r9, fp, ip}^
    2fb4:	20b10000 	adcscs	r0, r1, r0
    2fb8:	20a70000 	adccs	r0, r7, r0
    2fbc:	be1b0000 	cdplt	0, 1, cr0, cr11, cr0, {0}
    2fc0:	05000009 	streq	r0, [r0, #-9]
    2fc4:	f5000021 			; <UNDEFINED> instruction: 0xf5000021
    2fc8:	1b000020 	blne	3050 <__code_start__-0x4fb0>
    2fcc:	000009b4 			; <UNDEFINED> instruction: 0x000009b4
    2fd0:	00002185 	andeq	r2, r0, r5, lsl #3
    2fd4:	00002171 	andeq	r2, r0, r1, ror r1
    2fd8:	00014013 	andeq	r4, r1, r3, lsl r0
    2fdc:	09d61e00 	ldmibeq	r6, {r9, sl, fp, ip}^
    2fe0:	22170000 	andscs	r0, r7, #0, 0
    2fe4:	22070000 	andcs	r0, r7, #0, 0
    2fe8:	00000000 	andeq	r0, r0, r0
    2fec:	00094f1a 	andeq	r4, r9, sl, lsl pc
    2ff0:	0092fc00 	addseq	pc, r2, r0, lsl #24
    2ff4:	88000200 	stmdahi	r0, {r9}
    2ff8:	01000001 	tsteq	r0, r1
    2ffc:	0bd8097c 	bleq	ff6055f4 <__bss_end__+0xff5fa264>
    3000:	801b0000 	andshi	r0, fp, r0
    3004:	83000009 	movwhi	r0, #9
    3008:	7b000022 	blvc	3098 <__code_start__-0x4f68>
    300c:	1b000022 	blne	309c <__code_start__-0x4f64>
    3010:	00000976 	andeq	r0, r0, r6, ror r9
    3014:	000022c2 	andeq	r2, r0, r2, asr #5
    3018:	000022ba 			; <UNDEFINED> instruction: 0x000022ba
    301c:	00096c1b 	andeq	r6, r9, fp, lsl ip
    3020:	00230100 	eoreq	r0, r3, r0, lsl #2
    3024:	0022fd00 	eoreq	pc, r2, r0, lsl #26
    3028:	09601b00 	stmdbeq	r0!, {r8, r9, fp, ip}^
    302c:	23310000 	teqcs	r1, #0, 0
    3030:	23230000 			; <UNDEFINED> instruction: 0x23230000
    3034:	88130000 	ldmdahi	r3, {}	; <UNPREDICTABLE>
    3038:	1e000001 	cdpne	0, 0, cr0, cr0, cr1, {0}
    303c:	0000098c 	andeq	r0, r0, ip, lsl #19
    3040:	00002396 	muleq	r0, r6, r3
    3044:	00002390 	muleq	r0, r0, r3
    3048:	0009981e 	andeq	r9, r9, lr, lsl r8
    304c:	0023c800 	eoreq	ip, r3, r0, lsl #16
    3050:	0023c400 	eoreq	ip, r3, r0, lsl #8
    3054:	2f000000 	svccs	0x00000000
    3058:	0000091b 	andeq	r0, r0, fp, lsl r9
    305c:	000093b4 			; <UNDEFINED> instruction: 0x000093b4
    3060:	00000060 	andeq	r0, r0, r0, rrx
    3064:	00000bf7 	strdeq	r0, [r0], -r7
    3068:	00091c1e 	andeq	r1, r9, lr, lsl ip
    306c:	0023ea00 	eoreq	lr, r3, r0, lsl #20
    3070:	0023e600 	eoreq	lr, r3, r0, lsl #12
    3074:	88170000 	ldmdahi	r7, {}	; <UNPREDICTABLE>
    3078:	46000094 			; <UNDEFINED> instruction: 0x46000094
    307c:	3000000c 	andcc	r0, r0, ip
    3080:	1800000c 	stmdane	r0, {r2, r3}
    3084:	03055001 	movweq	r5, #20481	; 0x5001
    3088:	0000a7ac 	andeq	sl, r0, ip, lsr #15
    308c:	05510118 	ldrbeq	r0, [r1, #-280]	; 0xfffffee8
    3090:	00abe403 	adceq	lr, fp, r3, lsl #8
    3094:	52011800 	andpl	r1, r1, #0, 16
    3098:	ad240305 	stcge	3, cr0, [r4, #-20]!	; 0xffffffec
    309c:	01180000 	tsteq	r8, r0
    30a0:	79080253 	stmdbvc	r8, {r0, r1, r4, r6, r9}
    30a4:	007d0218 	rsbseq	r0, sp, r8, lsl r2
    30a8:	aa4c0305 	bge	1303cc4 <__bss_end__+0x12f8934>
    30ac:	19000000 	stmdbne	r0, {}	; <UNPREDICTABLE>
    30b0:	0000948c 	andeq	r9, r0, ip, lsl #9
    30b4:	00000c76 	andeq	r0, r0, r6, ror ip
    30b8:	07763000 	ldrbeq	r3, [r6, -r0]!
    30bc:	07760000 	ldrbeq	r0, [r6, -r0]!
    30c0:	eb030000 	bl	c30c8 <__bss_end__+0xb7d38>
    30c4:	063c3005 	ldrteq	r3, [ip], -r5
    30c8:	063c0000 	ldrteq	r0, [ip], -r0
    30cc:	28030000 	stmdacs	r3, {}	; <UNPREDICTABLE>
    30d0:	07273006 	streq	r3, [r7, -r6]!
    30d4:	07270000 	streq	r0, [r7, -r0]!
    30d8:	ee030000 	cdp	0, 0, cr0, cr3, cr0, {0}
    30dc:	07553007 	ldrbeq	r3, [r5, -r7]
    30e0:	07550000 	ldrbeq	r0, [r5, -r0]
    30e4:	ea030000 	b	c30ec <__bss_end__+0xb7d5c>
    30e8:	072e3005 	streq	r3, [lr, -r5]!
    30ec:	072e0000 	streq	r0, [lr, -r0]!
    30f0:	ed030000 	stc	0, cr0, [r3, #-0]
    30f4:	00513007 	subseq	r3, r1, r7
    30f8:	00510000 	subseq	r0, r1, r0
    30fc:	6e030000 	cdpvs	0, 0, cr0, cr3, cr0, {0}
    3100:	012f0006 			; <UNDEFINED> instruction: 0x012f0006
    3104:	00040000 	andeq	r0, r4, r0
    3108:	0000105c 	andeq	r1, r0, ip, asr r0
    310c:	05140104 	ldreq	r0, [r4, #-260]	; 0xfffffefc
    3110:	9b0c0000 	blls	303118 <__bss_end__+0x2f7d88>
    3114:	da000007 	ble	3138 <__code_start__-0x4ec8>
    3118:	54000005 	strpl	r0, [r0], #-5
    311c:	2c00009b 	stccs	0, cr0, [r0], {155}	; 0x9b
    3120:	e6000000 	str	r0, [r0], -r0
    3124:	0200001a 	andeq	r0, r0, #26, 0
    3128:	6e690504 	cdpvs	5, 6, cr0, cr9, cr4, {0}
    312c:	04030074 	streq	r0, [r3], #-116	; 0xffffff8c
    3130:	0001cd07 	andeq	ip, r1, r7, lsl #26
    3134:	06010300 	streq	r0, [r1], -r0, lsl #6
    3138:	00000045 	andeq	r0, r0, r5, asr #32
    313c:	fb050203 	blx	143952 <__bss_end__+0x1385c2>
    3140:	03000001 	movweq	r0, #1
    3144:	01df0504 	bicseq	r0, pc, r4, lsl #10
    3148:	08030000 	stmdaeq	r3, {}	; <UNPREDICTABLE>
    314c:	0001da05 	andeq	sp, r1, r5, lsl #20
    3150:	08010300 	stmdaeq	r1, {r8, r9}
    3154:	00000043 	andeq	r0, r0, r3, asr #32
    3158:	7d070203 	sfmvc	f0, 4, [r7, #-12]
    315c:	03000000 	movweq	r0, #0
    3160:	01c80704 	biceq	r0, r8, r4, lsl #14
    3164:	08030000 	stmdaeq	r3, {}	; <UNPREDICTABLE>
    3168:	0001c307 	andeq	ip, r1, r7, lsl #6
    316c:	00250400 	eoreq	r0, r5, r0, lsl #8
    3170:	007a0000 	rsbseq	r0, sl, r0
    3174:	25050000 	strcs	r0, [r5, #-0]
    3178:	00000000 	andeq	r0, r0, r0
    317c:	0001e806 	andeq	lr, r1, r6, lsl #16
    3180:	0e1c0200 	cdpeq	2, 1, cr0, cr12, cr0, {0}
    3184:	00000086 	andeq	r0, r0, r6, lsl #1
    3188:	006b0407 	rsbeq	r0, fp, r7, lsl #8
    318c:	25040000 	strcs	r0, [r4, #-0]
    3190:	9b000000 	blls	3198 <__code_start__-0x4e68>
    3194:	05000000 	streq	r0, [r0, #-0]
    3198:	0000009b 	muleq	r0, fp, r0
    319c:	a8040700 	stmdage	r4, {r8, r9, sl}
    31a0:	03000000 	movweq	r0, #0
    31a4:	004c0801 	subeq	r0, ip, r1, lsl #16
    31a8:	a1080000 	mrsge	r0, (UNDEF: 8)
    31ac:	06000000 	streq	r0, [r0], -r0
    31b0:	0000067a 	andeq	r0, r0, sl, ror r6
    31b4:	b90e2102 	stmdblt	lr, {r1, r8, sp}
    31b8:	07000000 	streq	r0, [r0, -r0]
    31bc:	00008c04 	andeq	r8, r0, r4, lsl #24
    31c0:	00510900 	subseq	r0, r1, r0, lsl #18
    31c4:	04010000 	streq	r0, [r1], #-0
    31c8:	009b5406 	addseq	r5, fp, r6, lsl #8
    31cc:	00002c00 	andeq	r2, r0, r0, lsl #24
    31d0:	0e9c0100 	fmleqe	f0, f4, f0
    31d4:	0a000001 	beq	31e0 <__code_start__-0x4e20>
    31d8:	00009b68 	andeq	r9, r0, r8, ror #22
    31dc:	000000e8 	andeq	r0, r0, r8, ror #1
    31e0:	0550010b 	ldrbeq	r0, [r0, #-267]	; 0xfffffef5
    31e4:	00ad4803 	adceq	r4, sp, r3, lsl #16
    31e8:	6c0c0000 	stcvs	0, cr0, [ip], {-0}
    31ec:	0e00009b 	mcreq	0, 0, r0, cr0, cr11, {4}
    31f0:	0d000001 	stceq	0, cr0, [r0, #-4]
    31f4:	00009b74 	andeq	r9, r0, r4, ror fp
    31f8:	0000011a 	andeq	r0, r0, sl, lsl r1
    31fc:	00000104 	andeq	r0, r0, r4, lsl #2
    3200:	0150010b 	cmpeq	r0, fp, lsl #2
    3204:	780c003a 	stmdavc	ip, {r1, r3, r4, r5}
    3208:	2600009b 			; <UNDEFINED> instruction: 0x2600009b
    320c:	00000001 	andeq	r0, r0, r1
    3210:	0007b60e 	andeq	fp, r7, lr, lsl #12
    3214:	0007b600 	andeq	fp, r7, r0, lsl #12
    3218:	064d0200 	strbeq	r0, [sp], -r0, lsl #4
    321c:	0007920e 	andeq	r9, r7, lr, lsl #4
    3220:	00079200 	andeq	r9, r7, r0, lsl #4
    3224:	06580200 	ldrbeq	r0, [r8], -r0, lsl #4
    3228:	0007870e 	andeq	r8, r7, lr, lsl #14
    322c:	00078700 	andeq	r8, r7, r0, lsl #14
    3230:	066b0200 	strbteq	r0, [fp], -r0, lsl #4
    3234:	00019000 	andeq	r9, r1, r0
    3238:	1c000400 	cfstrsne	mvf0, [r0], {-0}
    323c:	04000011 	streq	r0, [r0], #-17	; 0xffffffef
    3240:	00051401 	andeq	r1, r5, r1, lsl #8
    3244:	07ec0c00 	strbeq	r0, [ip, r0, lsl #24]!
    3248:	05da0000 	ldrbeq	r0, [sl]
    324c:	9b800000 	blls	fe003254 <__bss_end__+0xfdff7ec4>
    3250:	00f80000 	rscseq	r0, r8, r0
    3254:	1b710000 	blne	1c4325c <__bss_end__+0x1c37ecc>
    3258:	04020000 	streq	r0, [r2], #-0
    325c:	746e6905 	strbtvc	r6, [lr], #-2309	; 0xfffff6fb
    3260:	07040300 	streq	r0, [r4, -r0, lsl #6]
    3264:	000001cd 	andeq	r0, r0, sp, asr #3
    3268:	45060103 	strmi	r0, [r6, #-259]	; 0xfffffefd
    326c:	03000000 	movweq	r0, #0
    3270:	01fb0502 	mvnseq	r0, r2, lsl #10
    3274:	04030000 	streq	r0, [r3], #-0
    3278:	0001df05 	andeq	sp, r1, r5, lsl #30
    327c:	05080300 	streq	r0, [r8, #-768]	; 0xfffffd00
    3280:	000001da 	ldrdeq	r0, [r0], -sl
    3284:	43080103 	movwmi	r0, #33027	; 0x8103
    3288:	03000000 	movweq	r0, #0
    328c:	007d0702 	rsbseq	r0, sp, r2, lsl #14
    3290:	04030000 	streq	r0, [r3], #-0
    3294:	0001c807 	andeq	ip, r1, r7, lsl #16
    3298:	07080300 	streq	r0, [r8, -r0, lsl #6]
    329c:	000001c3 	andeq	r0, r0, r3, asr #3
    32a0:	00002504 	andeq	r2, r0, r4, lsl #10
    32a4:	00007a00 	andeq	r7, r0, r0, lsl #20
    32a8:	00250500 	eoreq	r0, r5, r0, lsl #10
    32ac:	06000000 	streq	r0, [r0], -r0
    32b0:	000001e8 	andeq	r0, r0, r8, ror #3
    32b4:	860e1c02 	strhi	r1, [lr], -r2, lsl #24
    32b8:	07000000 	streq	r0, [r0, -r0]
    32bc:	00006b04 	andeq	r6, r0, r4, lsl #22
    32c0:	00250400 	eoreq	r0, r5, r0, lsl #8
    32c4:	009b0000 	addseq	r0, fp, r0
    32c8:	9b050000 	blls	1432d0 <__bss_end__+0x137f40>
    32cc:	00000000 	andeq	r0, r0, r0
    32d0:	00a80407 	adceq	r0, r8, r7, lsl #8
    32d4:	01030000 	mrseq	r0, (UNDEF: 3)
    32d8:	00004c08 	andeq	r4, r0, r8, lsl #24
    32dc:	00a10800 	adceq	r0, r1, r0, lsl #16
    32e0:	7a060000 	bvc	1832e8 <__bss_end__+0x177f58>
    32e4:	02000006 	andeq	r0, r0, #6, 0
    32e8:	00b90e21 	adcseq	r0, r9, r1, lsr #28
    32ec:	04070000 	streq	r0, [r7], #-0
    32f0:	0000008c 	andeq	r0, r0, ip, lsl #1
    32f4:	0007c409 	andeq	ip, r7, r9, lsl #8
    32f8:	06040100 	streq	r0, [r4], -r0, lsl #2
    32fc:	00009b80 	andeq	r9, r0, r0, lsl #23
    3300:	000000f8 	strdeq	r0, [r0], -r8
    3304:	015b9c01 	cmpeq	fp, r1, lsl #24
    3308:	b3060000 	movwlt	r0, #24576	; 0x6000
    330c:	01000003 	tsteq	r0, r3
    3310:	00251005 	eoreq	r1, r5, r5
    3314:	85060000 	strhi	r0, [r6, #-0]
    3318:	01000004 	tsteq	r0, r4
    331c:	00251f05 	eoreq	r1, r5, r5, lsl #30
    3320:	270a0000 	strcs	r0, [sl, -r0]
    3324:	01000000 	mrseq	r0, (UNDEF: 0)
    3328:	620b0706 	andvs	r0, fp, #1572864	; 0x180000
    332c:	01007373 	tsteq	r0, r3, ror r3
    3330:	015b0a0a 	cmpeq	fp, sl, lsl #20
    3334:	24220000 	strtcs	r0, [r2], #-0
    3338:	240a0000 	strcs	r0, [sl], #-0
    333c:	cc0c0000 	stcgt	0, cr0, [ip], {-0}
    3340:	01000007 	tsteq	r0, r7
    3344:	015b0a0b 	cmpeq	fp, fp, lsl #20
    3348:	580d0000 	stmdapl	sp, {}	; <UNPREDICTABLE>
    334c:	0800009c 	stmdaeq	r0, {r2, r3, r4, r7}
    3350:	36000000 	strcc	r0, [r0], -r0
    3354:	0b000001 	bleq	3360 <__code_start__-0x4ca0>
    3358:	01006e69 	tsteq	r0, r9, ror #28
    335c:	002c0514 	eoreq	r0, ip, r4, lsl r5
    3360:	24bc0000 	ldrtcs	r0, [ip], #0
    3364:	24ba0000 	ldrtcs	r0, [sl], #0
    3368:	0e000000 	cdpeq	0, 0, cr0, cr0, cr0, {0}
    336c:	00009b88 	andeq	r9, r0, r8, lsl #23
    3370:	00000161 	andeq	r0, r0, r1, ror #2
    3374:	009c580e 	addseq	r5, ip, lr, lsl #16
    3378:	00016e00 	andeq	r6, r1, r0, lsl #28
    337c:	9c640e00 	stclls	14, cr0, [r4], #-0
    3380:	017a0000 	cmneq	sl, r0
    3384:	680e0000 	stmdavs	lr, {}	; <UNPREDICTABLE>
    3388:	8700009c 			; <UNDEFINED> instruction: 0x8700009c
    338c:	00000001 	andeq	r0, r0, r1
    3390:	00250407 	eoreq	r0, r5, r7, lsl #8
    3394:	de0f0000 	cdple	0, 0, cr0, cr15, cr0, {0}
    3398:	de000007 	cdple	0, 0, cr0, cr0, cr7, {0}
    339c:	02000007 	andeq	r0, r0, #7, 0
    33a0:	10060131 	andne	r0, r6, r1, lsr r1
    33a4:	000007d4 	ldrdeq	r0, [r0], -r4
    33a8:	000007d4 	ldrdeq	r0, [r0], -r4
    33ac:	0f063b02 	svceq	0x00063b02
    33b0:	00000027 	andeq	r0, r0, r7, lsr #32
    33b4:	00000027 	andeq	r0, r0, r7, lsr #32
    33b8:	06010502 	streq	r0, [r1], -r2, lsl #10
    33bc:	00005110 	andeq	r5, r0, r0, lsl r1
    33c0:	00005100 	andeq	r5, r0, r0, lsl #2
    33c4:	066e0200 	strbteq	r0, [lr], -r0, lsl #4
    33c8:	0000ce00 	andeq	ip, r0, r0, lsl #28
    33cc:	07000400 	streq	r0, [r0, -r0, lsl #8]
    33d0:	04000012 	streq	r0, [r0], #-18	; 0xffffffee
    33d4:	00051401 	andeq	r1, r5, r1, lsl #8
    33d8:	08010c00 	stmdaeq	r1, {sl, fp}
    33dc:	05da0000 	ldrbeq	r0, [sl]
    33e0:	9c780000 	ldclls	0, cr0, [r8], #-0
    33e4:	00040000 	andeq	r0, r4, r0
    33e8:	1c870000 	stcne	0, cr0, [r7], {0}
    33ec:	04020000 	streq	r0, [r2], #-0
    33f0:	746e6905 	strbtvc	r6, [lr], #-2309	; 0xfffff6fb
    33f4:	07040300 	streq	r0, [r4, -r0, lsl #6]
    33f8:	000001cd 	andeq	r0, r0, sp, asr #3
    33fc:	45060103 	strmi	r0, [r6, #-259]	; 0xfffffefd
    3400:	03000000 	movweq	r0, #0
    3404:	01fb0502 	mvnseq	r0, r2, lsl #10
    3408:	04030000 	streq	r0, [r3], #-0
    340c:	0001df05 	andeq	sp, r1, r5, lsl #30
    3410:	05080300 	streq	r0, [r8, #-768]	; 0xfffffd00
    3414:	000001da 	ldrdeq	r0, [r0], -sl
    3418:	43080103 	movwmi	r0, #33027	; 0x8103
    341c:	03000000 	movweq	r0, #0
    3420:	007d0702 	rsbseq	r0, sp, r2, lsl #14
    3424:	04030000 	streq	r0, [r3], #-0
    3428:	0001c807 	andeq	ip, r1, r7, lsl #16
    342c:	07080300 	streq	r0, [r8, -r0, lsl #6]
    3430:	000001c3 	andeq	r0, r0, r3, asr #3
    3434:	00002504 	andeq	r2, r0, r4, lsl #10
    3438:	00007a00 	andeq	r7, r0, r0, lsl #20
    343c:	00250500 	eoreq	r0, r5, r0, lsl #10
    3440:	06000000 	streq	r0, [r0], -r0
    3444:	000001e8 	andeq	r0, r0, r8, ror #3
    3448:	860e1c02 	strhi	r1, [lr], -r2, lsl #24
    344c:	07000000 	streq	r0, [r0, -r0]
    3450:	00006b04 	andeq	r6, r0, r4, lsl #22
    3454:	00250400 	eoreq	r0, r5, r0, lsl #8
    3458:	009b0000 	addseq	r0, fp, r0
    345c:	9b050000 	blls	143464 <__bss_end__+0x1380d4>
    3460:	00000000 	andeq	r0, r0, r0
    3464:	00a80407 	adceq	r0, r8, r7, lsl #8
    3468:	01030000 	mrseq	r0, (UNDEF: 3)
    346c:	00004c08 	andeq	r4, r0, r8, lsl #24
    3470:	00a10800 	adceq	r0, r1, r0, lsl #16
    3474:	7a060000 	bvc	18347c <__bss_end__+0x1780ec>
    3478:	02000006 	andeq	r0, r0, #6, 0
    347c:	00b90e21 	adcseq	r0, r9, r1, lsr #28
    3480:	04070000 	streq	r0, [r7], #-0
    3484:	0000008c 	andeq	r0, r0, ip, lsl #1
    3488:	0007de09 	andeq	sp, r7, r9, lsl #28
    348c:	06040100 	streq	r0, [r4], -r0, lsl #2
    3490:	00009c78 	andeq	r9, r0, r8, ror ip
    3494:	00000004 	andeq	r0, r0, r4
    3498:	7d009c01 	stcvc	12, cr9, [r0, #-4]
    349c:	04000002 	streq	r0, [r0], #-2
    34a0:	00128000 	andseq	r8, r2, r0
    34a4:	14010400 	strne	r0, [r1], #-1024	; 0xfffffc00
    34a8:	0c000005 	stceq	0, cr0, [r0], {5}
    34ac:	00000849 	andeq	r0, r0, r9, asr #16
    34b0:	000005da 	ldrdeq	r0, [r0], -sl
    34b4:	00000330 	andeq	r0, r0, r0, lsr r3
    34b8:	00000000 	andeq	r0, r0, r0
    34bc:	00001d08 	andeq	r1, r0, r8, lsl #26
    34c0:	69050402 	stmdbvs	r5, {r1, sl}
    34c4:	0300746e 	movweq	r7, #1134	; 0x46e
    34c8:	00000025 	andeq	r0, r0, r5, lsr #32
    34cc:	cd070404 	cfstrsgt	mvf0, [r7, #-16]
    34d0:	04000001 	streq	r0, [r0], #-1
    34d4:	00450601 	subeq	r0, r5, r1, lsl #12
    34d8:	02040000 	andeq	r0, r4, #0, 0
    34dc:	0001fb05 	andeq	pc, r1, r5, lsl #22
    34e0:	05040400 	streq	r0, [r4, #-1024]	; 0xfffffc00
    34e4:	000001df 	ldrdeq	r0, [r0], -pc	; <UNPREDICTABLE>
    34e8:	da050804 	ble	145500 <__bss_end__+0x13a170>
    34ec:	04000001 	streq	r0, [r0], #-1
    34f0:	00430801 	subeq	r0, r3, r1, lsl #16
    34f4:	02040000 	andeq	r0, r4, #0, 0
    34f8:	00007d07 	andeq	r7, r0, r7, lsl #26
    34fc:	07040400 	streq	r0, [r4, -r0, lsl #8]
    3500:	000001c8 	andeq	r0, r0, r8, asr #3
    3504:	c3070804 	movwgt	r0, #30724	; 0x7804
    3508:	05000001 	streq	r0, [r0, #-1]
    350c:	00000025 	andeq	r0, r0, r5, lsr #32
    3510:	0000007f 	andeq	r0, r0, pc, ror r0
    3514:	00002506 	andeq	r2, r0, r6, lsl #10
    3518:	e8070000 	stmda	r7, {}	; <UNPREDICTABLE>
    351c:	02000001 	andeq	r0, r0, #1, 0
    3520:	008b0e1c 	addeq	r0, fp, ip, lsl lr
    3524:	04080000 	streq	r0, [r8], #-0
    3528:	00000070 	andeq	r0, r0, r0, ror r0
    352c:	00002505 	andeq	r2, r0, r5, lsl #10
    3530:	0000a000 	andeq	sl, r0, r0
    3534:	00a00600 	adceq	r0, r0, r0, lsl #12
    3538:	08000000 	stmdaeq	r0, {}	; <UNPREDICTABLE>
    353c:	0000ad04 	andeq	sl, r0, r4, lsl #26
    3540:	08010400 	stmdaeq	r1, {sl}
    3544:	0000004c 	andeq	r0, r0, ip, asr #32
    3548:	0000a603 	andeq	sl, r0, r3, lsl #12
    354c:	067a0700 	ldrbteq	r0, [sl], -r0, lsl #14
    3550:	21020000 	mrscs	r0, (UNDEF: 2)
    3554:	0000be0e 	andeq	fp, r0, lr, lsl #28
    3558:	91040800 	tstls	r4, r0, lsl #16
    355c:	09000000 	stmdbeq	r0, {}	; <UNPREDICTABLE>
    3560:	0000086d 	andeq	r0, r0, sp, ror #16
    3564:	31110d01 	tstcc	r1, r1, lsl #26
    3568:	0a000000 	beq	3570 <__code_start__-0x4a90>
    356c:	00000787 	andeq	r0, r0, r7, lsl #15
    3570:	a8061f01 	stmdage	r6, {r0, r8, r9, sl, fp, ip}
    3574:	6000009c 	mulvs	r0, ip, r0
    3578:	01000000 	mrseq	r0, (UNDEF: 0)
    357c:	0001d59c 	muleq	r1, ip, r5
    3580:	08910b00 	ldmeq	r1, {r8, r9, fp}
    3584:	2c010000 	stccs	0, cr0, [r1], {-0}
    3588:	00002c0f 	andeq	r2, r0, pc, lsl #24
    358c:	10001c00 	andne	r1, r0, r0, lsl #24
    3590:	082c0b20 	stmdaeq	ip!, {r5, r8, r9, fp}
    3594:	2d010000 	stccs	0, cr0, [r1, #-0]
    3598:	00002c0f 	andeq	r2, r0, pc, lsl #24
    359c:	10002400 	andne	r2, r0, r0, lsl #8
    35a0:	085e0b20 	ldmdaeq	lr, {r5, r8, r9, fp}^
    35a4:	2e010000 	cdpcs	0, 0, cr0, cr1, cr0, {0}
    35a8:	00002c0f 	andeq	r2, r0, pc, lsl #24
    35ac:	00000000 	andeq	r0, r0, r0
    35b0:	08780c5a 	ldmdaeq	r8!, {r1, r3, r4, r6, sl, fp}^
    35b4:	2f010000 	svccs	0x00010000
    35b8:	00002c0f 	andeq	r2, r0, pc, lsl #24
    35bc:	ef0d2000 	svc	0x000d2000
    35c0:	a8000001 	stmdage	r0, {r0}
    35c4:	0200009c 	andeq	r0, r0, #156, 0	; 0x9c
    35c8:	00000318 	andeq	r0, r0, r8, lsl r3
    35cc:	4c082001 	stcmi	0, cr2, [r8], {1}
    35d0:	0e000001 	cdpeq	0, 0, cr0, cr0, cr1, {0}
    35d4:	00000318 	andeq	r0, r0, r8, lsl r3
    35d8:	0002000f 	andeq	r0, r2, pc
    35dc:	0024d400 	eoreq	sp, r4, r0, lsl #8
    35e0:	0024d000 	eoreq	sp, r4, r0
    35e4:	10000000 	andne	r0, r0, r0
    35e8:	000001d5 	ldrdeq	r0, [r0], -r5
    35ec:	00009cbc 			; <UNDEFINED> instruction: 0x00009cbc
    35f0:	009cbc01 	addseq	fp, ip, r1, lsl #24
    35f4:	00001000 	andeq	r1, r0, r0
    35f8:	09210100 	stmdbeq	r1!, {r8}
    35fc:	00000173 	andeq	r0, r0, r3, ror r1
    3600:	0001e20f 	andeq	lr, r1, pc, lsl #4
    3604:	0024fb00 	eoreq	pc, r4, r0, lsl #22
    3608:	0024f300 	eoreq	pc, r4, r0, lsl #6
    360c:	d0110000 	andsle	r0, r1, r0
    3610:	4f00009c 	svcmi	0x0000009c
    3614:	11000002 	tstne	r0, r2
    3618:	00009cd4 	ldrdeq	r9, [r0], -r4
    361c:	0000025c 	andeq	r0, r0, ip, asr r2
    3620:	009cdc12 	addseq	sp, ip, r2, lsl ip
    3624:	00026800 	andeq	r6, r2, r0, lsl #16
    3628:	00019800 	andeq	r9, r1, r0, lsl #16
    362c:	50011300 	andpl	r1, r1, r0, lsl #6
    3630:	12003a01 	andne	r3, r0, #4096	; 0x1000
    3634:	00009ce8 	andeq	r9, r0, r8, ror #25
    3638:	00000274 	andeq	r0, r0, r4, ror r2
    363c:	000001b8 			; <UNDEFINED> instruction: 0x000001b8
    3640:	05500113 	ldrbeq	r0, [r0, #-275]	; 0xfffffeed
    3644:	1000240c 	andne	r2, r0, ip, lsl #8
    3648:	51011320 	tstpl	r1, r0, lsr #6
    364c:	00010c05 	andeq	r0, r1, r5, lsl #24
    3650:	14005a00 	strne	r5, [r0], #-2560	; 0xfffff600
    3654:	00009cf4 	strdeq	r9, [r0], -r4
    3658:	00000274 	andeq	r0, r0, r4, ror r2
    365c:	05500113 	ldrbeq	r0, [r0, #-275]	; 0xfffffeed
    3660:	10001c0c 	andne	r1, r0, ip, lsl #24
    3664:	51011320 	tstpl	r1, r0, lsr #6
    3668:	00200c05 	eoreq	r0, r0, r5, lsl #24
    366c:	00005a00 	andeq	r5, r0, r0, lsl #20
    3670:	00083a15 	andeq	r3, r8, r5, lsl sl
    3674:	06170100 	ldreq	r0, [r7], -r0, lsl #2
    3678:	0001ef01 	andeq	lr, r1, r1, lsl #30
    367c:	08990900 	ldmeq	r9, {r8, fp}
    3680:	18010000 	stmdane	r1, {}	; <UNPREDICTABLE>
    3684:	0000310e 	andeq	r3, r0, lr, lsl #2
    3688:	6a160000 	bvs	583690 <__bss_end__+0x578300>
    368c:	01000008 	tsteq	r0, r8
    3690:	0025050e 	eoreq	r0, r5, lr, lsl #10
    3694:	0d010000 	stceq	0, cr0, [r1, #-0]
    3698:	09000002 	stmdbeq	r0, {r1}
    369c:	00000899 	muleq	r0, r9, r8
    36a0:	310e0f01 	tstcc	lr, r1, lsl #30
    36a4:	00000000 	andeq	r0, r0, r0
    36a8:	0001ef17 	andeq	lr, r1, r7, lsl pc
    36ac:	009c7c00 	addseq	r7, ip, r0, lsl #24
    36b0:	00001800 	andeq	r1, r0, r0, lsl #16
    36b4:	2e9c0100 	fmlcse	f0, f4, f0
    36b8:	0f000002 	svceq	0x00000002
    36bc:	00000200 	andeq	r0, r0, r0, lsl #4
    36c0:	00002538 	andeq	r2, r0, r8, lsr r5
    36c4:	00002534 	andeq	r2, r0, r4, lsr r5
    36c8:	01d51700 	bicseq	r1, r5, r0, lsl #14
    36cc:	9c940000 	ldcls	0, cr0, [r4], {0}
    36d0:	00140000 	andseq	r0, r4, r0
    36d4:	9c010000 	stcls	0, cr0, [r1], {-0}
    36d8:	0000024f 	andeq	r0, r0, pc, asr #4
    36dc:	0001e20f 	andeq	lr, r1, pc, lsl #4
    36e0:	00255f00 	eoreq	r5, r5, r0, lsl #30
    36e4:	00255700 	eoreq	r5, r5, r0, lsl #14
    36e8:	1d180000 	ldcne	0, cr0, [r8, #-0]
    36ec:	1d000008 	stcne	0, cr0, [r0, #-32]	; 0xffffffe0
    36f0:	02000008 	andeq	r0, r0, #8, 0
    36f4:	19060136 	stmdbne	r6, {r1, r2, r4, r5, r8}
    36f8:	000007b6 			; <UNDEFINED> instruction: 0x000007b6
    36fc:	000007b6 			; <UNDEFINED> instruction: 0x000007b6
    3700:	19064d02 	stmdbne	r6, {r1, r8, sl, fp, lr}
    3704:	00000792 	muleq	r0, r2, r7
    3708:	00000792 	muleq	r0, r2, r7
    370c:	19065802 	stmdbne	r6, {r1, fp, ip, lr}
    3710:	00000834 	andeq	r0, r0, r4, lsr r8
    3714:	00000834 	andeq	r0, r0, r4, lsr r8
    3718:	0006ad02 	andeq	sl, r6, r2, lsl #26
    371c:	0000053f 	andeq	r0, r0, pc, lsr r5
    3720:	14030004 	strne	r0, [r3], #-4
    3724:	01040000 	mrseq	r0, (UNDEF: 4)
    3728:	00000514 	andeq	r0, r0, r4, lsl r5
    372c:	0008b40c 	andeq	fp, r8, ip, lsl #8
    3730:	0005da00 	andeq	sp, r5, r0, lsl #20
    3734:	009d0800 	addseq	r0, sp, r0, lsl #16
    3738:	00011c00 	andeq	r1, r1, r0, lsl #24
    373c:	001e2000 	andseq	r2, lr, r0
    3740:	05040200 	streq	r0, [r4, #-512]	; 0xfffffe00
    3744:	00746e69 	rsbseq	r6, r4, r9, ror #28
    3748:	cd070403 	cfstrsgt	mvf0, [r7, #-12]
    374c:	03000001 	movweq	r0, #1
    3750:	00450601 	subeq	r0, r5, r1, lsl #12
    3754:	02030000 	andeq	r0, r3, #0, 0
    3758:	0001fb05 	andeq	pc, r1, r5, lsl #22
    375c:	05040300 	streq	r0, [r4, #-768]	; 0xfffffd00
    3760:	000001df 	ldrdeq	r0, [r0], -pc	; <UNPREDICTABLE>
    3764:	da050803 	ble	145778 <__bss_end__+0x13a3e8>
    3768:	03000001 	movweq	r0, #1
    376c:	00430801 	subeq	r0, r3, r1, lsl #16
    3770:	02030000 	andeq	r0, r3, #0, 0
    3774:	00007d07 	andeq	r7, r0, r7, lsl #26
    3778:	07040300 	streq	r0, [r4, -r0, lsl #6]
    377c:	000001c8 	andeq	r0, r0, r8, asr #3
    3780:	c3070803 	movwgt	r0, #30723	; 0x7803
    3784:	04000001 	streq	r0, [r0], #-1
    3788:	00000025 	andeq	r0, r0, r5, lsr #32
    378c:	0000007a 	andeq	r0, r0, sl, ror r0
    3790:	00002505 	andeq	r2, r0, r5, lsl #10
    3794:	e8060000 	stmda	r6, {}	; <UNPREDICTABLE>
    3798:	02000001 	andeq	r0, r0, #1, 0
    379c:	00860e1c 	addeq	r0, r6, ip, lsl lr
    37a0:	04070000 	streq	r0, [r7], #-0
    37a4:	0000006b 	andeq	r0, r0, fp, rrx
    37a8:	00002504 	andeq	r2, r0, r4, lsl #10
    37ac:	00009b00 	andeq	r9, r0, r0, lsl #22
    37b0:	009b0500 	addseq	r0, fp, r0, lsl #10
    37b4:	07000000 	streq	r0, [r0, -r0]
    37b8:	0000a804 	andeq	sl, r0, r4, lsl #16
    37bc:	08010300 	stmdaeq	r1, {r8, r9}
    37c0:	0000004c 	andeq	r0, r0, ip, asr #32
    37c4:	0000a108 	andeq	sl, r0, r8, lsl #2
    37c8:	067a0600 	ldrbteq	r0, [sl], -r0, lsl #12
    37cc:	21020000 	mrscs	r0, (UNDEF: 2)
    37d0:	0000b90e 	andeq	fp, r0, lr, lsl #18
    37d4:	8c040700 	stchi	7, cr0, [r4], {-0}
    37d8:	09000000 	stmdbeq	r0, {}	; <UNPREDICTABLE>
    37dc:	000008aa 	andeq	r0, r0, sl, lsr #17
    37e0:	d0061e01 	andle	r1, r6, r1, lsl #28
    37e4:	5400009d 	strpl	r0, [r0], #-157	; 0xffffff63
    37e8:	01000000 	mrseq	r0, (UNDEF: 0)
    37ec:	00020b9c 	muleq	r2, ip, fp
    37f0:	65730a00 	ldrbvs	r0, [r3, #-2560]!	; 0xfffff600
    37f4:	1e010063 	cdpne	0, 0, cr0, cr1, cr3, {3}
    37f8:	00002c19 	andeq	r2, r0, r9, lsl ip
    37fc:	00259c00 	eoreq	r9, r5, r0, lsl #24
    3800:	00259800 	eoreq	r9, r5, r0, lsl #16
    3804:	020b0b00 	andeq	r0, fp, #0, 22
    3808:	9dd00000 	ldclls	0, cr0, [r0]
    380c:	f8020000 			; <UNDEFINED> instruction: 0xf8020000
    3810:	01000003 	tsteq	r0, r3
    3814:	180c051f 	stmdane	ip, {r0, r1, r2, r3, r4, r8, sl}
    3818:	c1000002 	tstgt	r0, r2
    381c:	bd000025 	stclt	0, cr0, [r0, #-148]	; 0xffffff6c
    3820:	0d000025 	stceq	0, cr0, [r0, #-148]	; 0xffffff6c
    3824:	00000224 	andeq	r0, r0, r4, lsr #4
    3828:	00009de4 	andeq	r9, r0, r4, ror #27
    382c:	009de400 	addseq	lr, sp, r0, lsl #8
    3830:	00004000 	andeq	r4, r0, r0
    3834:	051c0100 	ldreq	r0, [ip, #-256]	; 0xffffff00
    3838:	0002310c 	andeq	r3, r2, ip, lsl #2
    383c:	0025ee00 	eoreq	lr, r5, r0, lsl #28
    3840:	0025ec00 	eoreq	lr, r5, r0, lsl #24
    3844:	023c0e00 	eorseq	r0, ip, #0, 28
    3848:	26030000 	strcs	r0, [r3], -r0
    384c:	26010000 	strcs	r0, [r1], -r0
    3850:	550f0000 	strpl	r0, [pc, #-0]	; 3858 <__code_start__-0x47a8>
    3854:	e4000002 	str	r0, [r0], #-2
    3858:	0200009d 	andeq	r0, r0, #157, 0	; 0x9d
    385c:	00009de4 	andeq	r9, r0, r4, ror #27
    3860:	00000014 	andeq	r0, r0, r4, lsl r0
    3864:	9c131301 	ldcls	3, cr1, [r3], {1}
    3868:	0e000001 	cdpeq	0, 0, cr0, cr0, cr1, {0}
    386c:	00000266 	andeq	r0, r0, r6, ror #4
    3870:	0000261a 	andeq	r2, r0, sl, lsl r6
    3874:	00002616 	andeq	r2, r0, r6, lsl r6
    3878:	0002710f 	andeq	r7, r2, pc, lsl #2
    387c:	009de800 	addseq	lr, sp, r0, lsl #16
    3880:	9de80100 	stflse	f0, [r8]
    3884:	000c0000 	andeq	r0, ip, r0
    3888:	0d010000 	stceq	0, cr0, [r1, #-0]
    388c:	00018912 	andeq	r8, r1, r2, lsl r9
    3890:	9df01000 	ldclls	0, cr1, [r0]
    3894:	052a0000 	streq	r0, [sl, #-0]!
    3898:	01110000 	tsteq	r1, r0
    389c:	040c0550 	streq	r0, [ip], #-1360	; 0xfffffab0
    38a0:	00200030 	eoreq	r0, r0, r0, lsr r0
    38a4:	9de81200 	sfmls	f1, 2, [r8]
    38a8:	05360000 	ldreq	r0, [r6, #-0]!
    38ac:	f8120000 			; <UNDEFINED> instruction: 0xf8120000
    38b0:	3600009d 			; <UNDEFINED> instruction: 0x3600009d
    38b4:	00000005 	andeq	r0, r0, r5
    38b8:	00024713 	andeq	r4, r2, r3, lsl r7
    38bc:	00041000 	andeq	r1, r4, r0
    38c0:	02481400 	subeq	r1, r8, #0, 8
    38c4:	550b0000 	strpl	r0, [fp, #-0]
    38c8:	fc000002 	stc2	0, cr0, [r0], {2}
    38cc:	0200009d 	andeq	r0, r0, #157, 0	; 0x9d
    38d0:	00000428 	andeq	r0, r0, r8, lsr #8
    38d4:	15171501 	ldrne	r1, [r7, #-1281]	; 0xfffffaff
    38d8:	00000428 	andeq	r0, r0, r8, lsr #8
    38dc:	0002660e 	andeq	r6, r2, lr, lsl #12
    38e0:	00263a00 	eoreq	r3, r6, r0, lsl #20
    38e4:	00263800 	eoreq	r3, r6, r0, lsl #16
    38e8:	02711600 	rsbseq	r1, r1, #0, 12
    38ec:	9e000000 	cdpls	0, 0, cr0, cr0, cr0, {0}
    38f0:	48010000 	stmdami	r1, {}	; <UNPREDICTABLE>
    38f4:	01000004 	tsteq	r0, r4
    38f8:	01f3120d 	mvnseq	r1, sp, lsl #4
    38fc:	08100000 	ldmdaeq	r0, {}	; <UNPREDICTABLE>
    3900:	2a00009e 	bcs	3b80 <__code_start__-0x4480>
    3904:	11000005 	tstne	r0, r5
    3908:	77025001 	strvc	r5, [r2, -r1]
    390c:	12000000 	andne	r0, r0, #0, 0
    3910:	00009e00 	andeq	r9, r0, r0, lsl #28
    3914:	00000536 	andeq	r0, r0, r6, lsr r5
    3918:	009e1412 	addseq	r1, lr, r2, lsl r4
    391c:	00053600 	andeq	r3, r5, r0, lsl #12
    3920:	00000000 	andeq	r0, r0, r0
    3924:	17000000 	strne	r0, [r0, -r0]
    3928:	00000792 	muleq	r0, r2, r7
    392c:	01061b01 	tsteq	r6, r1, lsl #22
    3930:	00000224 	andeq	r0, r0, r4, lsr #4
    3934:	00736d18 	rsbseq	r6, r3, r8, lsl sp
    3938:	2c181b01 			; <UNDEFINED> instruction: 0x2c181b01
    393c:	00000000 	andeq	r0, r0, r0
    3940:	0008dd17 	andeq	sp, r8, r7, lsl sp
    3944:	06120100 	ldreq	r0, [r2], -r0, lsl #2
    3948:	00025501 	andeq	r5, r2, r1, lsl #10
    394c:	73751800 	cmnvc	r5, #0, 16
    3950:	18120100 	ldmdane	r2, {r8}
    3954:	0000002c 	andeq	r0, r0, ip, lsr #32
    3958:	00627219 	rsbeq	r7, r2, r9, lsl r2
    395c:	2c0e1301 	stccs	3, cr1, [lr], {1}
    3960:	1a000000 	bne	3968 <__code_start__-0x4698>
    3964:	00617219 	rsbeq	r7, r1, r9, lsl r2
    3968:	2c121501 	cfldr32cs	mvfx1, [r2], {1}
    396c:	00000000 	andeq	r0, r0, r0
    3970:	08ce1b00 	stmiaeq	lr, {r8, r9, fp, ip}^
    3974:	09010000 	stmdbeq	r1, {}	; <UNPREDICTABLE>
    3978:	00002c0a 	andeq	r2, r0, sl, lsl #24
    397c:	02710100 	rsbseq	r0, r1, #0
    3980:	75190000 	ldrvc	r0, [r9, #-0]
    3984:	0e0d0100 	adfeqe	f0, f5, f0
    3988:	0000002c 	andeq	r0, r0, ip, lsr #32
    398c:	08e61c00 	stmiaeq	r6!, {sl, fp, ip}^
    3990:	04010000 	streq	r0, [r1], #-0
    3994:	00002c0a 	andeq	r2, r0, sl, lsl #24
    3998:	711d0100 	tstvc	sp, r0, lsl #2
    399c:	08000002 	stmdaeq	r0, {r1}
    39a0:	0c00009d 	stceq	0, cr0, [r0], {157}	; 0x9d
    39a4:	01000000 	mrseq	r0, (UNDEF: 0)
    39a8:	0002a59c 	muleq	r2, ip, r5
    39ac:	9d101e00 	ldcls	14, cr1, [r0, #-0]
    39b0:	052a0000 	streq	r0, [sl, #-0]!
    39b4:	01110000 	tsteq	r1, r0
    39b8:	040c0550 	streq	r0, [ip], #-1360	; 0xfffffab0
    39bc:	00200030 	eoreq	r0, r0, r0, lsr r0
    39c0:	02551d00 	subseq	r1, r5, #0, 26
    39c4:	9d140000 	ldcls	0, cr0, [r4, #-0]
    39c8:	00240000 	eoreq	r0, r4, r0
    39cc:	9c010000 	stcls	0, cr0, [r1], {-0}
    39d0:	00000305 	andeq	r0, r0, r5, lsl #6
    39d4:	0002660e 	andeq	r6, r2, lr, lsl #12
    39d8:	00265100 	eoreq	r5, r6, r0, lsl #2
    39dc:	00264d00 	eoreq	r4, r6, r0, lsl #26
    39e0:	02710f00 	rsbseq	r0, r1, #0, 30
    39e4:	9d1c0000 	ldcls	0, cr0, [ip, #-0]
    39e8:	1c010000 	stcne	0, cr0, [r1], {-0}
    39ec:	0c00009d 	stceq	0, cr0, [r0], {157}	; 0x9d
    39f0:	01000000 	mrseq	r0, (UNDEF: 0)
    39f4:	02f2120d 	rscseq	r1, r2, #-805306368	; 0xd0000000
    39f8:	24100000 	ldrcs	r0, [r0], #-0
    39fc:	2a00009d 	bcs	3c78 <__code_start__-0x4388>
    3a00:	11000005 	tstne	r0, r5
    3a04:	0c055001 	stceq	0, cr5, [r5], {1}
    3a08:	20003004 	andcs	r3, r0, r4
    3a0c:	1c120000 	ldcne	0, cr0, [r2], {-0}
    3a10:	3600009d 			; <UNDEFINED> instruction: 0x3600009d
    3a14:	12000005 	andne	r0, r0, #5, 0
    3a18:	00009d2c 	andeq	r9, r0, ip, lsr #26
    3a1c:	00000536 	andeq	r0, r0, r6, lsr r5
    3a20:	02241d00 	eoreq	r1, r4, #0, 26
    3a24:	9d380000 	ldcls	0, cr0, [r8, #-0]
    3a28:	00480000 	subeq	r0, r8, r0
    3a2c:	9c010000 	stcls	0, cr0, [r1], {-0}
    3a30:	00000407 	andeq	r0, r0, r7, lsl #8
    3a34:	0002310c 	andeq	r3, r2, ip, lsl #2
    3a38:	00267300 	eoreq	r7, r6, r0, lsl #6
    3a3c:	00266f00 	eoreq	r6, r6, r0, lsl #30
    3a40:	023c0e00 	eorseq	r0, ip, #0, 28
    3a44:	26930000 	ldrcs	r0, [r3], r0
    3a48:	26910000 	ldrcs	r0, [r1], r0
    3a4c:	55160000 	ldrpl	r0, [r6, #-0]
    3a50:	38000002 	stmdacc	r0, {r1}
    3a54:	0200009d 	andeq	r0, r0, #157, 0	; 0x9d
    3a58:	00000340 	andeq	r0, r0, r0, asr #6
    3a5c:	9a131301 	bls	4c8668 <__bss_end__+0x4bd2d8>
    3a60:	15000003 	strne	r0, [r0, #-3]
    3a64:	00000340 	andeq	r0, r0, r0, asr #6
    3a68:	0002660e 	andeq	r6, r2, lr, lsl #12
    3a6c:	0026aa00 	eoreq	sl, r6, r0, lsl #20
    3a70:	0026a600 	eoreq	sl, r6, r0, lsl #12
    3a74:	02710f00 	rsbseq	r0, r1, #0, 30
    3a78:	9d440000 	stclls	0, cr0, [r4, #-0]
    3a7c:	44010000 	strmi	r0, [r1], #-0
    3a80:	0c00009d 	stceq	0, cr0, [r0], {157}	; 0x9d
    3a84:	01000000 	mrseq	r0, (UNDEF: 0)
    3a88:	0386120d 	orreq	r1, r6, #-805306368	; 0xd0000000
    3a8c:	4c100000 	ldcmi	0, cr0, [r0], {-0}
    3a90:	2a00009d 	bcs	3d0c <__code_start__-0x42f4>
    3a94:	11000005 	tstne	r0, r5
    3a98:	0c055001 	stceq	0, cr5, [r5], {1}
    3a9c:	20003004 	andcs	r3, r0, r4
    3aa0:	44120000 	ldrmi	r0, [r2], #-0
    3aa4:	3600009d 			; <UNDEFINED> instruction: 0x3600009d
    3aa8:	12000005 	andne	r0, r0, #5, 0
    3aac:	00009d54 	andeq	r9, r0, r4, asr sp
    3ab0:	00000536 	andeq	r0, r0, r6, lsr r5
    3ab4:	47130000 	ldrmi	r0, [r3, -r0]
    3ab8:	58000002 	stmdapl	r0, {r1}
    3abc:	14000003 	strne	r0, [r0], #-3
    3ac0:	00000248 	andeq	r0, r0, r8, asr #4
    3ac4:	0002550b 	andeq	r5, r2, fp, lsl #10
    3ac8:	009d5800 	addseq	r5, sp, r0, lsl #16
    3acc:	03700200 	cmneq	r0, #0, 4
    3ad0:	15010000 	strne	r0, [r1, #-0]
    3ad4:	03701517 	cmneq	r0, #96468992	; 0x5c00000
    3ad8:	660e0000 	strvs	r0, [lr], -r0
    3adc:	ca000002 	bgt	3aec <__code_start__-0x4514>
    3ae0:	c8000026 	stmdagt	r0, {r1, r2, r5}
    3ae4:	16000026 	strne	r0, [r0], -r6, lsr #32
    3ae8:	00000271 	andeq	r0, r0, r1, ror r2
    3aec:	00009d5c 	andeq	r9, r0, ip, asr sp
    3af0:	00039001 	andeq	r9, r3, r1
    3af4:	120d0100 	andne	r0, sp, #0
    3af8:	000003f1 	strdeq	r0, [r0], -r1
    3afc:	009d6410 	addseq	r6, sp, r0, lsl r4
    3b00:	00052a00 	andeq	r2, r5, r0, lsl #20
    3b04:	50011100 	andpl	r1, r1, r0, lsl #2
    3b08:	00007702 	andeq	r7, r0, r2, lsl #14
    3b0c:	9d5c1200 	lfmls	f1, 2, [ip, #-0]
    3b10:	05360000 	ldreq	r0, [r6, #-0]!
    3b14:	70120000 	andsvc	r0, r2, r0
    3b18:	3600009d 			; <UNDEFINED> instruction: 0x3600009d
    3b1c:	00000005 	andeq	r0, r0, r5
    3b20:	1d000000 	stcne	0, cr0, [r0, #-0]
    3b24:	0000020b 	andeq	r0, r0, fp, lsl #4
    3b28:	00009d80 	andeq	r9, r0, r0, lsl #27
    3b2c:	00000050 	andeq	r0, r0, r0, asr r0
    3b30:	052a9c01 	streq	r9, [sl, #-3073]!	; 0xfffff3ff
    3b34:	180c0000 	stmdane	ip, {}	; <UNPREDICTABLE>
    3b38:	e1000002 	tst	r0, r2
    3b3c:	dd000026 	stcle	0, cr0, [r0, #-152]	; 0xffffff68
    3b40:	0d000026 	stceq	0, cr0, [r0, #-152]	; 0xffffff68
    3b44:	00000224 	andeq	r0, r0, r4, lsr #4
    3b48:	00009d90 	muleq	r0, r0, sp
    3b4c:	009d9000 	addseq	r9, sp, r0
    3b50:	00004000 	andeq	r4, r0, r0
    3b54:	051c0100 	ldreq	r0, [ip, #-256]	; 0xffffff00
    3b58:	0002310c 	andeq	r3, r2, ip, lsl #2
    3b5c:	00270400 	eoreq	r0, r7, r0, lsl #8
    3b60:	00270200 	eoreq	r0, r7, r0, lsl #4
    3b64:	023c0e00 	eorseq	r0, ip, #0, 28
    3b68:	27190000 	ldrcs	r0, [r9, -r0]
    3b6c:	27170000 	ldrcs	r0, [r7, -r0]
    3b70:	550f0000 	strpl	r0, [pc, #-0]	; 3b78 <__code_start__-0x4488>
    3b74:	90000002 	andls	r0, r0, r2
    3b78:	0200009d 	andeq	r0, r0, #157, 0	; 0x9d
    3b7c:	00009d90 	muleq	r0, r0, sp
    3b80:	00000014 	andeq	r0, r0, r4, lsl r0
    3b84:	bc131301 	ldclt	3, cr1, [r3], {1}
    3b88:	0e000004 	cdpeq	0, 0, cr0, cr0, cr4, {0}
    3b8c:	00000266 	andeq	r0, r0, r6, ror #4
    3b90:	00002730 	andeq	r2, r0, r0, lsr r7
    3b94:	0000272c 	andeq	r2, r0, ip, lsr #14
    3b98:	0002710f 	andeq	r7, r2, pc, lsl #2
    3b9c:	009d9400 	addseq	r9, sp, r0, lsl #8
    3ba0:	9d940100 	ldflss	f0, [r4]
    3ba4:	000c0000 	andeq	r0, ip, r0
    3ba8:	0d010000 	stceq	0, cr0, [r1, #-0]
    3bac:	0004a912 	andeq	sl, r4, r2, lsl r9
    3bb0:	9d9c1000 	ldcls	0, cr1, [ip]
    3bb4:	052a0000 	streq	r0, [sl, #-0]!
    3bb8:	01110000 	tsteq	r1, r0
    3bbc:	040c0550 	streq	r0, [ip], #-1360	; 0xfffffab0
    3bc0:	00200030 	eoreq	r0, r0, r0, lsr r0
    3bc4:	9d941200 	lfmls	f1, 4, [r4]
    3bc8:	05360000 	ldreq	r0, [r6, #-0]!
    3bcc:	a4120000 	ldrge	r0, [r2], #-0
    3bd0:	3600009d 			; <UNDEFINED> instruction: 0x3600009d
    3bd4:	00000005 	andeq	r0, r0, r5
    3bd8:	00024713 	andeq	r4, r2, r3, lsl r7
    3bdc:	0003a800 	andeq	sl, r3, r0, lsl #16
    3be0:	02481400 	subeq	r1, r8, #0, 8
    3be4:	550b0000 	strpl	r0, [fp, #-0]
    3be8:	a8000002 	stmdage	r0, {r1}
    3bec:	0200009d 	andeq	r0, r0, #157, 0	; 0x9d
    3bf0:	000003c0 	andeq	r0, r0, r0, asr #7
    3bf4:	15171501 	ldrne	r1, [r7, #-1281]	; 0xfffffaff
    3bf8:	000003c0 	andeq	r0, r0, r0, asr #7
    3bfc:	0002660e 	andeq	r6, r2, lr, lsl #12
    3c00:	00275000 	eoreq	r5, r7, r0
    3c04:	00274e00 	eoreq	r4, r7, r0, lsl #28
    3c08:	02711600 	rsbseq	r1, r1, #0, 12
    3c0c:	9dac0000 	stcls	0, cr0, [ip]
    3c10:	e0010000 	and	r0, r1, r0
    3c14:	01000003 	tsteq	r0, r3
    3c18:	0513120d 	ldreq	r1, [r3, #-525]	; 0xfffffdf3
    3c1c:	b4100000 	ldrlt	r0, [r0], #-0
    3c20:	2a00009d 	bcs	3e9c <__code_start__-0x4164>
    3c24:	11000005 	tstne	r0, r5
    3c28:	77025001 	strvc	r5, [r2, -r1]
    3c2c:	12000000 	andne	r0, r0, #0, 0
    3c30:	00009dac 	andeq	r9, r0, ip, lsr #27
    3c34:	00000536 	andeq	r0, r0, r6, lsr r5
    3c38:	009dc012 	addseq	ip, sp, r2, lsl r0
    3c3c:	00053600 	andeq	r3, r5, r0, lsl #12
    3c40:	00000000 	andeq	r0, r0, r0
    3c44:	c81f0000 	ldmdagt	pc, {}	; <UNPREDICTABLE>
    3c48:	c8000008 	stmdagt	r0, {r3}
    3c4c:	02000008 	andeq	r0, r0, #8, 0
    3c50:	9e1f0ac2 	vnmlals.f32	s0, s31, s4
    3c54:	9e000008 	cdpls	0, 0, cr0, cr0, cr8, {0}
    3c58:	02000008 	andeq	r0, r0, #8, 0
    3c5c:	cd00069c 	stcgt	6, cr0, [r0, #-624]	; 0xfffffd90
    3c60:	04000005 	streq	r0, [r0], #-5
    3c64:	0015d200 	andseq	sp, r5, r0, lsl #4
    3c68:	f9010400 			; <UNDEFINED> instruction: 0xf9010400
    3c6c:	0c000009 	stceq	0, cr0, [r0], {9}
    3c70:	00000938 	andeq	r0, r0, r8, lsr r9
    3c74:	000009a9 	andeq	r0, r0, r9, lsr #19
    3c78:	00009e24 	andeq	r9, r0, r4, lsr #28
    3c7c:	000001f0 	strdeq	r0, [r0], -r0	; <UNPREDICTABLE>
    3c80:	0000201e 	andeq	r2, r0, lr, lsl r0
    3c84:	69050402 	stmdbvs	r5, {r1, sl}
    3c88:	0300746e 	movweq	r7, #1134	; 0x46e
    3c8c:	01cd0704 	biceq	r0, sp, r4, lsl #14
    3c90:	2c040000 	stccs	0, cr0, [r4], {-0}
    3c94:	03000000 	movweq	r0, #0
    3c98:	00450601 	subeq	r0, r5, r1, lsl #12
    3c9c:	02030000 	andeq	r0, r3, #0, 0
    3ca0:	0001fb05 	andeq	pc, r1, r5, lsl #22
    3ca4:	05040300 	streq	r0, [r4, #-768]	; 0xfffffd00
    3ca8:	000001df 	ldrdeq	r0, [r0], -pc	; <UNPREDICTABLE>
    3cac:	da050803 	ble	145cc0 <__bss_end__+0x13a930>
    3cb0:	03000001 	movweq	r0, #1
    3cb4:	00430801 	subeq	r0, r3, r1, lsl #16
    3cb8:	02030000 	andeq	r0, r3, #0, 0
    3cbc:	00007d07 	andeq	r7, r0, r7, lsl #26
    3cc0:	02af0500 	adceq	r0, pc, #0, 10
    3cc4:	34050000 	strcc	r0, [r5], #-0
    3cc8:	00006e19 	andeq	r6, r0, r9, lsl lr
    3ccc:	07040300 	streq	r0, [r4, -r0, lsl #6]
    3cd0:	000001c8 	andeq	r0, r0, r8, asr #3
    3cd4:	c3070803 	movwgt	r0, #30723	; 0x7803
    3cd8:	03000001 	movweq	r0, #1
    3cdc:	004c0801 	subeq	r0, ip, r1, lsl #16
    3ce0:	07060000 	streq	r0, [r6, -r0]
    3ce4:	00005401 	andeq	r5, r0, r1, lsl #8
    3ce8:	0e0c0400 	cfcpyseq	mvf0, mvf12
    3cec:	000000c2 	andeq	r0, r0, r2, asr #1
    3cf0:	000ae307 	andeq	lr, sl, r7, lsl #6
    3cf4:	1b070000 	blne	1c3cfc <__bss_end__+0x1b896c>
    3cf8:	01000009 	tsteq	r0, r9
    3cfc:	00095e07 	andeq	r5, r9, r7, lsl #28
    3d00:	6d070400 	cfstrsvs	mvf0, [r7, #-0]
    3d04:	05000009 	streq	r0, [r0, #-9]
    3d08:	00097c07 	andeq	r7, r9, r7, lsl #24
    3d0c:	8b070600 	blhi	1c5514 <__bss_end__+0x1ba184>
    3d10:	07000009 	streq	r0, [r0, -r9]
    3d14:	000aac07 	andeq	sl, sl, r7, lsl #24
    3d18:	9a070300 	bls	1c4920 <__bss_end__+0x1b9590>
    3d1c:	02000009 	andeq	r0, r0, #9, 0
    3d20:	092c0800 	stmdbeq	ip!, {fp}
    3d24:	022c0000 	eoreq	r0, ip, #0, 0
    3d28:	015e0806 	cmpeq	lr, r6, lsl #16
    3d2c:	69090000 	stmdbvs	r9, {}	; <UNPREDICTABLE>
    3d30:	0902006f 	stmdbeq	r2, {r0, r1, r2, r3, r5, r6}
    3d34:	00003309 	andeq	r3, r0, r9, lsl #6
    3d38:	69090000 	stmdbvs	r9, {}	; <UNPREDICTABLE>
    3d3c:	02007265 	andeq	r7, r0, #1342177286	; 0x50000006
    3d40:	0033090a 	eorseq	r0, r3, sl, lsl #18
    3d44:	09040000 	stmdbeq	r4, {}	; <UNPREDICTABLE>
    3d48:	00726969 	rsbseq	r6, r2, r9, ror #18
    3d4c:	33091102 	movwcc	r1, #37122	; 0x9102
    3d50:	08000000 	stmdaeq	r0, {}	; <UNPREDICTABLE>
    3d54:	72636c09 	rsbvc	r6, r3, #2304	; 0x900
    3d58:	09130200 	ldmdbeq	r3, {r9}
    3d5c:	00000033 	andeq	r0, r0, r3, lsr r0
    3d60:	636d090c 	cmnvs	sp, #12, 18	; 0x30000
    3d64:	14020072 	strne	r0, [r2], #-114	; 0xffffff8e
    3d68:	00003309 	andeq	r3, r0, r9, lsl #6
    3d6c:	6c091000 	stcvs	0, cr1, [r9], {-0}
    3d70:	02007273 	andeq	r7, r0, #805306375	; 0x30000007
    3d74:	00330915 	eorseq	r0, r3, r5, lsl r9
    3d78:	09140000 	ldmdbeq	r4, {}	; <UNPREDICTABLE>
    3d7c:	0072736d 	rsbseq	r7, r2, sp, ror #6
    3d80:	33091602 	movwcc	r1, #38402	; 0x9602
    3d84:	18000000 	stmdane	r0, {}	; <UNPREDICTABLE>
    3d88:	000ac30a 	andeq	ip, sl, sl, lsl #6
    3d8c:	09170200 	ldmdbeq	r7, {r9}
    3d90:	00000033 	andeq	r0, r0, r3, lsr r0
    3d94:	0a8c0a1c 	beq	fe30660c <__bss_end__+0xfe2fb27c>
    3d98:	1b020000 	blne	83da0 <__bss_end__+0x78a10>
    3d9c:	00003309 	andeq	r3, r0, r9, lsl #6
    3da0:	080a2000 	stmdaeq	sl, {sp}
    3da4:	02000009 	andeq	r0, r0, #9, 0
    3da8:	0033091d 	eorseq	r0, r3, sp, lsl r9
    3dac:	0a240000 	beq	903db4 <__bss_end__+0x8f8a24>
    3db0:	000009de 	ldrdeq	r0, [r0], -lr
    3db4:	33091e02 	movwcc	r1, #40450	; 0x9e02
    3db8:	28000000 	stmdacs	r0, {}	; <UNPREDICTABLE>
    3dbc:	09e30b00 	stmibeq	r3!, {r8, r9, fp}^
    3dc0:	08010000 	stmdaeq	r1, {}	; <UNPREDICTABLE>
    3dc4:	00017409 	andeq	r7, r1, r9, lsl #8
    3dc8:	21500400 	cmpcs	r0, r0, lsl #8
    3dcc:	33040c20 	movwcc	r0, #19488	; 0x4c20
    3dd0:	0d000000 	stceq	0, cr0, [r0, #-0]
    3dd4:	0000016e 	andeq	r0, r0, lr, ror #2
    3dd8:	000acb0b 	andeq	ip, sl, fp, lsl #22
    3ddc:	23290100 			; <UNDEFINED> instruction: 0x23290100
    3de0:	0000018f 	andeq	r0, r0, pc, lsl #3
    3de4:	20215040 	eorcs	r5, r1, r0, asr #32
    3de8:	00c2040c 	sbceq	r0, r2, ip, lsl #8
    3dec:	890d0000 	stmdbhi	sp, {}	; <UNPREDICTABLE>
    3df0:	0e000001 	cdpeq	0, 0, cr0, cr0, cr1, {0}
    3df4:	000007b6 			; <UNDEFINED> instruction: 0x000007b6
    3df8:	dc06cc01 	stcle	12, cr12, [r6], {1}
    3dfc:	1400009f 	strne	r0, [r0], #-159	; 0xffffff61
    3e00:	01000000 	mrseq	r0, (UNDEF: 0)
    3e04:	0001b49c 	muleq	r1, ip, r4
    3e08:	9fe40f00 	svcls	0x00e40f00
    3e0c:	01b40000 			; <UNDEFINED> instruction: 0x01b40000
    3e10:	10000000 	andne	r0, r0, r0
    3e14:	0000094d 	andeq	r0, r0, sp, asr #18
    3e18:	2505b601 	strcs	fp, [r5, #-1537]	; 0xfffff9ff
    3e1c:	bc000000 	stclt	0, cr0, [r0], {-0}
    3e20:	2000009f 	mulcs	r0, pc, r0	; <UNPREDICTABLE>
    3e24:	01000000 	mrseq	r0, (UNDEF: 0)
    3e28:	0001eb9c 	muleq	r1, ip, fp
    3e2c:	9fc40f00 	svcls	0x00c40f00
    3e30:	05a00000 	streq	r0, [r0, #0]!
    3e34:	cc110000 	ldcgt	0, cr0, [r1], {-0}
    3e38:	ac00009f 	stcge	0, cr0, [r0], {159}	; 0x9f
    3e3c:	12000005 	andne	r0, r0, #5, 0
    3e40:	0c055001 	stceq	0, cr5, [r5], {1}
    3e44:	20215064 	eorcs	r5, r1, r4, rrx
    3e48:	9e100000 	cdpls	0, 1, cr0, cr0, cr0, {0}
    3e4c:	0100000a 	tsteq	r0, sl
    3e50:	002505b3 	strhteq	r0, [r5], -r3
    3e54:	9fac0000 	svcls	0x00ac0000
    3e58:	00100000 	andseq	r0, r0, r0
    3e5c:	9c010000 	stcls	0, cr0, [r1], {-0}
    3e60:	00000218 	andeq	r0, r0, r8, lsl r2
    3e64:	009fb40f 	addseq	fp, pc, pc, lsl #8
    3e68:	0005a000 	andeq	sl, r5, r0
    3e6c:	9fb80f00 	svcls	0x00b80f00
    3e70:	03090000 	movweq	r0, #36864	; 0x9000
    3e74:	0e000000 	cdpeq	0, 0, cr0, cr0, cr0, {0}
    3e78:	00000ad9 	ldrdeq	r0, [r0], -r9
    3e7c:	7c06ab01 			; <UNDEFINED> instruction: 0x7c06ab01
    3e80:	3000009f 	mulcc	r0, pc, r0	; <UNPREDICTABLE>
    3e84:	01000000 	mrseq	r0, (UNDEF: 0)
    3e88:	00027c9c 	muleq	r2, ip, ip
    3e8c:	00631300 	rsbeq	r1, r3, r0, lsl #6
    3e90:	2c19ab01 			; <UNDEFINED> instruction: 0x2c19ab01
    3e94:	67000000 	strvs	r0, [r0, -r0]
    3e98:	63000027 	movwvs	r0, #39	; 0x27
    3e9c:	0f000027 	svceq	0x00000027
    3ea0:	00009f88 	andeq	r9, r0, r8, lsl #31
    3ea4:	000005a0 	andeq	r0, r0, r0, lsr #11
    3ea8:	009f8c0f 	addseq	r8, pc, pc, lsl #24
    3eac:	0002db00 	andeq	sp, r2, r0, lsl #22
    3eb0:	9fa01400 	svcls	0x00a01400
    3eb4:	05b80000 	ldreq	r0, [r8, #0]!
    3eb8:	02720000 	rsbseq	r0, r2, #0, 0
    3ebc:	01120000 	tsteq	r2, r0
    3ec0:	400c0550 	andmi	r0, ip, r0, asr r5
    3ec4:	12202150 	eorne	r2, r0, #20
    3ec8:	74055101 	strvc	r5, [r5], #-257	; 0xfffffeff
    3ecc:	1aff0800 	bne	fffc5ed4 <__bss_end__+0xfffbab44>
    3ed0:	9fa40f00 	svcls	0x00a40f00
    3ed4:	05a00000 	streq	r0, [r0, #0]!
    3ed8:	10000000 	andne	r0, r0, r0
    3edc:	000009ef 	andeq	r0, r0, pc, ror #19
    3ee0:	2505a301 	strcs	sl, [r5, #-769]	; 0xfffffcff
    3ee4:	4c000000 	stcmi	0, cr0, [r0], {-0}
    3ee8:	3000009f 	mulcc	r0, pc, r0	; <UNPREDICTABLE>
    3eec:	01000000 	mrseq	r0, (UNDEF: 0)
    3ef0:	0002db9c 	muleq	r2, ip, fp
    3ef4:	00631500 	rsbeq	r1, r3, r0, lsl #10
    3ef8:	2509a701 	strcs	sl, [r9, #-1793]	; 0xfffff8ff
    3efc:	87000000 	strhi	r0, [r0, -r0]
    3f00:	85000027 	strhi	r0, [r0, #-39]	; 0xffffffd9
    3f04:	0f000027 	svceq	0x00000027
    3f08:	00009f54 	andeq	r9, r0, r4, asr pc
    3f0c:	000005a0 	andeq	r0, r0, r0, lsr #11
    3f10:	009f580f 	addseq	r5, pc, pc, lsl #16
    3f14:	00030900 	andeq	r0, r3, r0, lsl #18
    3f18:	9f681400 	svcls	0x00681400
    3f1c:	05ac0000 	streq	r0, [ip, #0]!
    3f20:	02d10000 	sbcseq	r0, r1, #0, 0
    3f24:	01120000 	tsteq	r2, r0
    3f28:	400c0550 	andmi	r0, ip, r0, asr r5
    3f2c:	00202150 	eoreq	r2, r0, r0, asr r1
    3f30:	009f700f 	addseq	r7, pc, pc
    3f34:	0005a000 	andeq	sl, r5, r0
    3f38:	3f100000 	svccc	0x00100000
    3f3c:	01000009 	tsteq	r0, r9
    3f40:	00250594 	mlaeq	r5, r4, r5, r0
    3f44:	9f2c0000 	svcls	0x002c0000
    3f48:	00200000 	eoreq	r0, r0, r0
    3f4c:	9c010000 	stcls	0, cr0, [r1], {-0}
    3f50:	00000309 	andeq	r0, r0, r9, lsl #6
    3f54:	009f3811 	addseq	r3, pc, r1, lsl r8	; <UNPREDICTABLE>
    3f58:	0005ac00 	andeq	sl, r5, r0, lsl #24
    3f5c:	50011200 	andpl	r1, r1, r0, lsl #4
    3f60:	50640c05 	rsbpl	r0, r4, r5, lsl #24
    3f64:	00002021 	andeq	r2, r0, r1, lsr #32
    3f68:	00090d10 	andeq	r0, r9, r0, lsl sp
    3f6c:	058b0100 	streq	r0, [fp, #256]	; 0x100
    3f70:	00000025 	andeq	r0, r0, r5, lsr #32
    3f74:	00009f14 	andeq	r9, r0, r4, lsl pc
    3f78:	00000018 	andeq	r0, r0, r8, lsl r0
    3f7c:	03379c01 	teqeq	r7, #256	; 0x100
    3f80:	20110000 	andscs	r0, r1, r0
    3f84:	ac00009f 	stcge	0, cr0, [r0], {159}	; 0x9f
    3f88:	12000005 	andne	r0, r0, #5, 0
    3f8c:	0c055001 	stceq	0, cr5, [r5], {1}
    3f90:	20215064 	eorcs	r5, r1, r4, rrx
    3f94:	d40e0000 	strle	r0, [lr], #-0
    3f98:	01000007 	tsteq	r0, r7
    3f9c:	9e640645 	cdpls	6, 6, cr0, cr4, cr5, {2}
    3fa0:	00b00000 	adcseq	r0, r0, r0
    3fa4:	9c010000 	stcls	0, cr0, [r1], {-0}
    3fa8:	00000484 	andeq	r0, r0, r4, lsl #9
    3fac:	0008ff16 	andeq	pc, r8, r6, lsl pc	; <UNPREDICTABLE>
    3fb0:	0e7e0100 	rpweqe	f0, f6, f0
    3fb4:	00000062 	andeq	r0, r0, r2, rrx
    3fb8:	7414010e 	ldrvc	r0, [r4], #-270	; 0xfffffef2
    3fbc:	c400009e 	strgt	r0, [r0], #-158	; 0xffffff62
    3fc0:	73000005 	movwvc	r0, #5
    3fc4:	12000003 	andne	r0, r0, #3, 0
    3fc8:	3e015001 	cdpcc	0, 0, cr5, cr1, cr1, {0}
    3fcc:	01510112 	cmpeq	r1, r2, lsl r1
    3fd0:	80140032 	andshi	r0, r4, r2, lsr r0
    3fd4:	c400009e 	strgt	r0, [r0], #-158	; 0xffffff62
    3fd8:	8b000005 	blhi	3ff4 <__code_start__-0x400c>
    3fdc:	12000003 	andne	r0, r0, #3, 0
    3fe0:	3f015001 	svccc	0x00015001
    3fe4:	01510112 	cmpeq	r1, r2, lsl r1
    3fe8:	840f0032 	strhi	r0, [pc], #-50	; 3ff0 <__code_start__-0x4010>
    3fec:	a000009e 	mulge	r0, lr, r0
    3ff0:	14000005 	strne	r0, [r0], #-5
    3ff4:	00009e90 	muleq	r0, r0, lr
    3ff8:	0000053d 	andeq	r0, r0, sp, lsr r5
    3ffc:	000003b0 			; <UNDEFINED> instruction: 0x000003b0
    4000:	05500112 	ldrbeq	r0, [r0, #-274]	; 0xfffffeee
    4004:	2150040c 	cmpcs	r0, ip, lsl #8
    4008:	51011220 	tstpl	r1, r0, lsr #4
    400c:	0f003101 	svceq	0x00003101
    4010:	00009e94 	muleq	r0, r4, lr
    4014:	000005a0 	andeq	r0, r0, r0, lsr #11
    4018:	009ea414 	addseq	sl, lr, r4, lsl r4
    401c:	0005b800 	andeq	fp, r5, r0, lsl #16
    4020:	0003d200 	andeq	sp, r3, r0, lsl #4
    4024:	50011200 	andpl	r1, r1, r0, lsl #4
    4028:	12007402 	andne	r7, r0, #33554432	; 0x2000000
    402c:	30015101 	andcc	r5, r1, r1, lsl #2
    4030:	9eb01400 	cdpls	4, 11, cr1, cr0, cr0, {0}
    4034:	05b80000 	ldreq	r0, [r8, #0]!
    4038:	03ee0000 	mvneq	r0, #0, 0
    403c:	01120000 	tsteq	r2, r0
    4040:	440c0550 	strmi	r0, [ip], #-1360	; 0xfffffab0
    4044:	12202150 	eorne	r2, r0, #20
    4048:	30015101 	andcc	r5, r1, r1, lsl #2
    404c:	9ebc1400 	cdpls	4, 11, cr1, cr12, cr0, {0}
    4050:	05b80000 	ldreq	r0, [r8, #0]!
    4054:	040a0000 	streq	r0, [sl], #-0
    4058:	01120000 	tsteq	r2, r0
    405c:	4c0c0550 	cfstr32mi	mvfx0, [ip], {80}	; 0x50
    4060:	12202150 	eorne	r2, r0, #20
    4064:	33015101 	movwcc	r5, #4353	; 0x1101
    4068:	9ec81400 	cdpls	4, 12, cr1, cr8, cr0, {0}
    406c:	05b80000 	ldreq	r0, [r8, #0]!
    4070:	04260000 	strteq	r0, [r6], #-0
    4074:	01120000 	tsteq	r2, r0
    4078:	500c0550 	andpl	r0, ip, r0, asr r5
    407c:	12202150 	eorne	r2, r0, #20
    4080:	30015101 	andcc	r5, r1, r1, lsl #2
    4084:	9ed41400 	cdpls	4, 13, cr1, cr4, cr0, {0}
    4088:	05b80000 	ldreq	r0, [r8, #0]!
    408c:	04430000 	strbeq	r0, [r3], #-0
    4090:	01120000 	tsteq	r2, r0
    4094:	480c0550 	stmdami	ip, {r4, r6, r8, sl}
    4098:	12202150 	eorne	r2, r0, #20
    409c:	08025101 	stmdaeq	r2, {r0, r8, ip, lr}
    40a0:	e01400c7 	ands	r0, r4, r7, asr #1
    40a4:	b800009e 	stmdalt	r0, {r1, r2, r3, r4, r7}
    40a8:	61000005 	tstvs	r0, r5
    40ac:	12000004 	andne	r0, r0, #4, 0
    40b0:	0c055001 	stceq	0, cr5, [r5], {1}
    40b4:	20215068 	eorcs	r5, r1, r8, rrx
    40b8:	03510112 	cmpeq	r1, #-2147483644	; 0x80000004
    40bc:	00010e0a 	andeq	r0, r1, sl, lsl #28
    40c0:	009eec14 	addseq	lr, lr, r4, lsl ip
    40c4:	0005b800 	andeq	fp, r5, r0, lsl #16
    40c8:	00047a00 	andeq	r7, r4, r0, lsl #20
    40cc:	50011200 	andpl	r1, r1, r0, lsl #4
    40d0:	12007402 	andne	r7, r0, #33554432	; 0x2000000
    40d4:	33015101 	movwcc	r5, #4353	; 0x1101
    40d8:	9ef00f00 	cdpls	15, 15, cr0, cr0, cr0, {0}
    40dc:	05a00000 	streq	r0, [r0, #0]!
    40e0:	0e000000 	cdpeq	0, 0, cr0, cr0, cr0, {0}
    40e4:	00000a91 	muleq	r0, r1, sl
    40e8:	f0063501 			; <UNDEFINED> instruction: 0xf0063501
    40ec:	2400009f 	strcs	r0, [r0], #-159	; 0xffffff61
    40f0:	01000000 	mrseq	r0, (UNDEF: 0)
    40f4:	0004d39c 	muleq	r4, ip, r3
    40f8:	9ff80f00 	svcls	0x00f80f00
    40fc:	01940000 	orrseq	r0, r4, r0
    4100:	fc0f0000 	stc2	0, cr0, [pc], {-0}
    4104:	a000009f 	mulge	r0, pc, r0	; <UNPREDICTABLE>
    4108:	14000005 	strne	r0, [r0], #-5
    410c:	0000a008 	andeq	sl, r0, r8
    4110:	000004d3 	ldrdeq	r0, [r0], -r3
    4114:	000004c9 	andeq	r0, r0, r9, asr #9
    4118:	05500112 	ldrbeq	r0, [r0, #-274]	; 0xfffffeee
    411c:	2150040c 	cmpcs	r0, ip, lsl #8
    4120:	51011220 	tstpl	r1, r0, lsr #4
    4124:	00fe0902 	rscseq	r0, lr, r2, lsl #18
    4128:	00a00c0f 	adceq	r0, r0, pc, lsl #24
    412c:	0005a000 	andeq	sl, r5, r0
    4130:	d0170000 	andsle	r0, r7, r0
    4134:	0100000a 	tsteq	r0, sl
    4138:	9e240d31 	mcrls	13, 1, r0, cr4, cr1, {1}
    413c:	00200000 	eoreq	r0, r0, r0
    4140:	9c010000 	stcls	0, cr0, [r1], {-0}
    4144:	00000536 	andeq	r0, r0, r6, lsr r5
    4148:	0005d518 	andeq	sp, r5, r8, lsl r5
    414c:	25310100 	ldrcs	r0, [r1, #-256]!	; 0xffffff00
    4150:	00000536 	andeq	r0, r0, r6, lsr r5
    4154:	0000279e 	muleq	r0, lr, r7
    4158:	0000279a 	muleq	r0, sl, r7
    415c:	6c617613 	stclvs	6, cr7, [r1], #-76	; 0xffffffb4
    4160:	34310100 	ldrtcc	r0, [r1], #-256	; 0xffffff00
    4164:	0000002c 	andeq	r0, r0, ip, lsr #32
    4168:	000027c0 	andeq	r2, r0, r0, asr #15
    416c:	000027bc 			; <UNDEFINED> instruction: 0x000027bc
    4170:	009e3414 	addseq	r3, lr, r4, lsl r4
    4174:	0005ac00 	andeq	sl, r5, r0, lsl #24
    4178:	00052500 	andeq	r2, r5, r0, lsl #10
    417c:	50011200 	andpl	r1, r1, r0, lsl #4
    4180:	00007402 	andeq	r7, r0, r2, lsl #8
    4184:	009e4011 	addseq	r4, lr, r1, lsl r0
    4188:	0005b800 	andeq	fp, r5, r0, lsl #16
    418c:	50011200 	andpl	r1, r1, r0, lsl #4
    4190:	00007402 	andeq	r7, r0, r2, lsl #8
    4194:	3c040c00 	stccc	12, cr0, [r4], {-0}
    4198:	19000005 	stmdbne	r0, {r0, r2}
    419c:	000abb17 	andeq	fp, sl, r7, lsl fp
    41a0:	0d2e0100 	stfeqs	f0, [lr, #-0]
    41a4:	00009e44 	andeq	r9, r0, r4, asr #28
    41a8:	00000020 	andeq	r0, r0, r0, lsr #32
    41ac:	05a09c01 	streq	r9, [r0, #3073]!	; 0xc01
    41b0:	d5180000 	ldrle	r0, [r8, #-0]
    41b4:	01000005 	tsteq	r0, r5
    41b8:	0536242e 	ldreq	r2, [r6, #-1070]!	; 0xfffffbd2
    41bc:	27e20000 	strbcs	r0, [r2, r0]!
    41c0:	27de0000 	ldrbcs	r0, [lr, r0]
    41c4:	76130000 	ldrvc	r0, [r3], -r0
    41c8:	01006c61 	tsteq	r0, r1, ror #24
    41cc:	002c332e 	eoreq	r3, ip, lr, lsr #6
    41d0:	28040000 	stmdacs	r4, {}	; <UNPREDICTABLE>
    41d4:	28000000 	stmdacs	r0, {}	; <UNPREDICTABLE>
    41d8:	54140000 	ldrpl	r0, [r4], #-0
    41dc:	ac00009e 	stcge	0, cr0, [r0], {158}	; 0x9e
    41e0:	8f000005 	svchi	0x00000005
    41e4:	12000005 	andne	r0, r0, #5, 0
    41e8:	74025001 	strvc	r5, [r2], #-1
    41ec:	60110000 	andsvs	r0, r1, r0
    41f0:	b800009e 	stmdalt	r0, {r1, r2, r3, r4, r7}
    41f4:	12000005 	andne	r0, r0, #5, 0
    41f8:	74025001 	strvc	r5, [r2], #-1
    41fc:	1a000000 	bne	4204 <__code_start__-0x3dfc>
    4200:	0000089e 	muleq	r0, lr, r8
    4204:	0000089e 	muleq	r0, lr, r8
    4208:	1a069c03 	bne	1ab21c <__bss_end__+0x19fe8c>
    420c:	00000b05 	andeq	r0, r0, r5, lsl #22
    4210:	00000b05 	andeq	r0, r0, r5, lsl #22
    4214:	1a0bc303 	bne	2f4e28 <__bss_end__+0x2e9a98>
    4218:	000008f9 	strdeq	r0, [r0], -r9
    421c:	000008f9 	strdeq	r0, [r0], -r9
    4220:	1a06ae03 	bne	1afa34 <__bss_end__+0x1a46a4>
    4224:	00000af3 	strdeq	r0, [r0], -r3
    4228:	00000af3 	strdeq	r0, [r0], -r3
    422c:	00061904 	andeq	r1, r6, r4, lsl #18
    4230:	000008e9 	andeq	r0, r0, r9, ror #17
    4234:	176a0004 	strbne	r0, [sl, -r4]!
    4238:	01040000 	mrseq	r0, (UNDEF: 4)
    423c:	000009f9 	strdeq	r0, [r0], -r9
    4240:	000b8f0c 	andeq	r8, fp, ip, lsl #30
    4244:	0009a900 	andeq	sl, r9, r0, lsl #18
    4248:	00a01400 	adceq	r1, r0, r0, lsl #8
    424c:	0003b000 	andeq	fp, r3, r0
    4250:	00222600 	eoreq	r2, r2, r0, lsl #12
    4254:	05040200 	streq	r0, [r4, #-512]	; 0xfffffe00
    4258:	00746e69 	rsbseq	r6, r4, r9, ror #28
    425c:	cd070403 	cfstrsgt	mvf0, [r7, #-12]
    4260:	03000001 	movweq	r0, #1
    4264:	00450601 	subeq	r0, r5, r1, lsl #12
    4268:	02030000 	andeq	r0, r3, #0, 0
    426c:	0001fb05 	andeq	pc, r1, r5, lsl #22
    4270:	05040300 	streq	r0, [r4, #-768]	; 0xfffffd00
    4274:	000001df 	ldrdeq	r0, [r0], -pc	; <UNPREDICTABLE>
    4278:	da050803 	ble	14628c <__bss_end__+0x13aefc>
    427c:	03000001 	movweq	r0, #1
    4280:	00430801 	subeq	r0, r3, r1, lsl #16
    4284:	02030000 	andeq	r0, r3, #0, 0
    4288:	00007d07 	andeq	r7, r0, r7, lsl #26
    428c:	02af0400 	adceq	r0, pc, #0, 8
    4290:	34030000 	strcc	r0, [r3], #-0
    4294:	00006919 	andeq	r6, r0, r9, lsl r9
    4298:	07040300 	streq	r0, [r4, -r0, lsl #6]
    429c:	000001c8 	andeq	r0, r0, r8, asr #3
    42a0:	c3070803 	movwgt	r0, #30723	; 0x7803
    42a4:	03000001 	movweq	r0, #1
    42a8:	004c0801 	subeq	r0, ip, r1, lsl #16
    42ac:	77050000 	strvc	r0, [r5, -r0]
    42b0:	03000000 	movweq	r0, #0
    42b4:	036b0408 	cmneq	fp, #8, 8	; 0x8000000
    42b8:	04060000 	streq	r0, [r6], #-0
    42bc:	2c040707 	stccs	7, cr0, [r4], {7}
    42c0:	01000000 	mrseq	r0, (UNDEF: 0)
    42c4:	00a4061f 	adceq	r0, r4, pc, lsl r6
    42c8:	29080000 	stmdbcs	r8, {}	; <UNPREDICTABLE>
    42cc:	0000000b 	andeq	r0, r0, fp
    42d0:	00002000 	andeq	r2, r0, r0
    42d4:	0006ff09 	andeq	pc, r6, r9, lsl #30
    42d8:	0d220100 	stfeqs	f0, [r2, #-0]
    42dc:	00000077 	andeq	r0, r0, r7, ror r0
    42e0:	0004600a 	andeq	r6, r4, sl
    42e4:	0e230100 	sufeqs	f0, f3, f0
    42e8:	000000c2 	andeq	r0, r0, r2, asr #1
    42ec:	af580305 	svcge	0x00580305
    42f0:	040b0000 	streq	r0, [fp], #-0
    42f4:	00000077 	andeq	r0, r0, r7, ror r0
    42f8:	000b130a 	andeq	r1, fp, sl, lsl #6
    42fc:	0e240100 	sufeqs	f0, f4, f0
    4300:	000000c2 	andeq	r0, r0, r2, asr #1
    4304:	af5c0305 	svcge	0x005c0305
    4308:	6e0a0000 	cdpvs	0, 0, cr0, cr10, cr0, {0}
    430c:	0100000b 	tsteq	r0, fp
    4310:	00c20e25 	sbceq	r0, r2, r5, lsr #28
    4314:	03050000 	movweq	r0, #20480	; 0x5000
    4318:	0000af60 	andeq	sl, r0, r0, ror #30
    431c:	000b440c 	andeq	r4, fp, ip, lsl #8
    4320:	06750100 	ldrbteq	r0, [r5], -r0, lsl #2
    4324:	0000a364 	andeq	sl, r0, r4, ror #6
    4328:	00000060 	andeq	r0, r0, r0, rrx
    432c:	01649c01 	cmneq	r4, r1, lsl #24
    4330:	700d0000 	andvc	r0, sp, r0
    4334:	16750100 	ldrbtne	r0, [r5], -r0, lsl #2
    4338:	0000008a 	andeq	r0, r0, sl, lsl #1
    433c:	00002828 	andeq	r2, r0, r8, lsr #16
    4340:	00002822 	andeq	r2, r0, r2, lsr #16
    4344:	0001b60e 	andeq	fp, r1, lr, lsl #12
    4348:	00017400 	andeq	r7, r1, r0, lsl #8
    434c:	44030500 	strmi	r0, [r3], #-1280	; 0xfffffb00
    4350:	0f0000af 	svceq	0x000000af
    4354:	0000a3b0 			; <UNDEFINED> instruction: 0x0000a3b0
    4358:	000008bc 			; <UNDEFINED> instruction: 0x000008bc
    435c:	0000015a 	andeq	r0, r0, sl, asr r1
    4360:	05500110 	ldrbeq	r0, [r0, #-272]	; 0xfffffef0
    4364:	00aebc03 	adceq	fp, lr, r3, lsl #24
    4368:	51011000 	mrspl	r1, (UNDEF: 1)
    436c:	ad540305 	ldclge	3, cr0, [r4, #-20]	; 0xffffffec
    4370:	01100000 	tsteq	r0, r0
    4374:	44030552 	strmi	r0, [r3], #-1362	; 0xfffffaae
    4378:	100000af 	andne	r0, r0, pc, lsr #1
    437c:	08025301 	stmdaeq	r2, {r0, r8, r9, ip, lr}
    4380:	7d021077 	stcvc	0, cr1, [r2, #-476]	; 0xfffffe24
    4384:	01f30300 	mvnseq	r0, r0, lsl #6
    4388:	b4110050 	ldrlt	r0, [r1], #-80	; 0xffffffb0
    438c:	c80000a3 	stmdagt	r0, {r0, r1, r5, r7}
    4390:	00000008 	andeq	r0, r0, r8
    4394:	00007e12 	andeq	r7, r0, r2, lsl lr
    4398:	00017400 	andeq	r7, r1, r0, lsl #8
    439c:	002c1300 	eoreq	r1, ip, r0, lsl #6
    43a0:	00090000 	andeq	r0, r9, r0
    43a4:	00016405 	andeq	r6, r1, r5, lsl #8
    43a8:	0b321400 	bleq	c893b0 <__bss_end__+0xc7e020>
    43ac:	72010000 	andvc	r0, r1, #0, 0
    43b0:	00a35006 	adceq	r5, r3, r6
    43b4:	00001400 	andeq	r1, r0, r0, lsl #8
    43b8:	0c9c0100 	ldfeqs	f0, [ip], {0}
    43bc:	000001f5 	strdeq	r0, [r0], -r5
    43c0:	4c066f01 	stcmi	15, cr6, [r6], {1}
    43c4:	040000a3 	streq	r0, [r0], #-163	; 0xffffff5d
    43c8:	01000000 	mrseq	r0, (UNDEF: 0)
    43cc:	0001ae9c 	muleq	r1, ip, lr
    43d0:	00701500 	rsbseq	r1, r0, r0, lsl #10
    43d4:	8a126f01 	bhi	49ffe0 <__bss_end__+0x494c50>
    43d8:	01000000 	mrseq	r0, (UNDEF: 0)
    43dc:	d1160050 	tstle	r6, r0, asr r0
    43e0:	0100000b 	tsteq	r0, fp
    43e4:	008a075e 	addeq	r0, sl, lr, asr r7
    43e8:	a2340000 	eorsge	r0, r4, #0, 0
    43ec:	01180000 	tsteq	r8, r0
    43f0:	9c010000 	stcls	0, cr0, [r1], {-0}
    43f4:	0000042c 	andeq	r0, r0, ip, lsr #8
    43f8:	00032117 	andeq	r2, r3, r7, lsl r1
    43fc:	205e0100 	subscs	r0, lr, r0, lsl #2
    4400:	0000002c 	andeq	r0, r0, ip, lsr #32
    4404:	00002869 	andeq	r2, r0, r9, ror #16
    4408:	00002855 	andeq	r2, r0, r5, asr r8
    440c:	000b4e17 	andeq	r4, fp, r7, lsl lr
    4410:	315e0100 	cmpcc	lr, r0, lsl #2
    4414:	0000002c 	andeq	r0, r0, ip, lsr #32
    4418:	00002902 	andeq	r2, r0, r2, lsl #18
    441c:	000028ee 	andeq	r2, r0, lr, ror #17
    4420:	0001b60e 	andeq	fp, r1, lr, lsl #12
    4424:	00043c00 	andeq	r3, r4, r0, lsl #24
    4428:	2c030500 	cfstr32cs	mvfx0, [r3], {-0}
    442c:	180000af 	stmdane	r0, {r0, r1, r2, r3, r5, r7}
    4430:	66010068 	strvs	r0, [r1], -r8, rrx
    4434:	00002c0e 	andeq	r2, r0, lr, lsl #24
    4438:	0029b800 	eoreq	fp, r9, r0, lsl #16
    443c:	0029ac00 	eoreq	sl, r9, r0, lsl #24
    4440:	08541900 	ldmdaeq	r4, {r8, fp, ip}^
    4444:	a2440000 	subge	r0, r4, #0, 0
    4448:	44040000 	strmi	r0, [r4], #-0
    444c:	040000a2 	streq	r0, [r0], #-162	; 0xffffff5e
    4450:	01000000 	mrseq	r0, (UNDEF: 0)
    4454:	02380560 	eorseq	r0, r8, #96, 10	; 0x18000000
    4458:	651a0000 	ldrvs	r0, [sl, #-0]
    445c:	0c000008 	stceq	0, cr0, [r0], {8}
    4460:	0a00002a 	beq	4510 <__code_start__-0x3af0>
    4464:	0000002a 	andeq	r0, r0, sl, lsr #32
    4468:	00089619 	andeq	r9, r8, r9, lsl r6
    446c:	00a25000 	adceq	r5, r2, r0
    4470:	a2500200 	subsge	r0, r0, #0, 4
    4474:	00080000 	andeq	r0, r8, r0
    4478:	61010000 	mrsvs	r0, (UNDEF: 1)
    447c:	00026c11 	andeq	r6, r2, r1, lsl ip
    4480:	08b11a00 	ldmeq	r1!, {r9, fp, ip}
    4484:	2a210000 	bcs	84448c <__bss_end__+0x8390fc>
    4488:	2a1f0000 	bcs	7c4490 <__bss_end__+0x7b9100>
    448c:	a71a0000 	ldrge	r0, [sl, -r0]
    4490:	37000008 	strcc	r0, [r0, -r8]
    4494:	3500002a 	strcc	r0, [r0, #-42]	; 0xffffffd6
    4498:	0000002a 	andeq	r0, r0, sl, lsr #32
    449c:	00081f1b 	andeq	r1, r8, fp, lsl pc
    44a0:	00a26000 	adceq	r6, r2, r0
    44a4:	04780100 	ldrbteq	r0, [r8], #-256	; 0xffffff00
    44a8:	67010000 	strvs	r0, [r1, -r0]
    44ac:	00030a09 	andeq	r0, r3, r9, lsl #20
    44b0:	083a1a00 	ldmdaeq	sl!, {r9, fp, ip}
    44b4:	2a500000 	bcs	14044bc <__bss_end__+0x13f912c>
    44b8:	2a4a0000 	bcs	12844c0 <__bss_end__+0x1279130>
    44bc:	301a0000 	andscc	r0, sl, r0
    44c0:	97000008 	strls	r0, [r0, -r8]
    44c4:	8f00002a 	svchi	0x0000002a
    44c8:	1c00002a 	stcne	0, cr0, [r0], {42}	; 0x2a
    44cc:	00000478 	andeq	r0, r0, r8, ror r4
    44d0:	00085419 	andeq	r5, r8, r9, lsl r4
    44d4:	00a26000 	adceq	r6, r2, r0
    44d8:	a2600400 	rsbge	r0, r0, #0, 8
    44dc:	00040000 	andeq	r0, r4, r0
    44e0:	11010000 	mrsne	r0, (UNDEF: 1)
    44e4:	0002c705 	andeq	ip, r2, r5, lsl #14
    44e8:	08651a00 	stmdaeq	r5!, {r9, fp, ip}^
    44ec:	2ad50000 	bcs	ff5444f4 <__bss_end__+0xff539164>
    44f0:	2ad30000 	bcs	ff4c44f8 <__bss_end__+0xff4b9168>
    44f4:	0f000000 	svceq	0x00000000
    44f8:	0000a2f8 	strdeq	sl, [r0], -r8
    44fc:	000008bc 			; <UNDEFINED> instruction: 0x000008bc
    4500:	000002ff 	strdeq	r0, [r0], -pc	; <UNPREDICTABLE>
    4504:	05500110 	ldrbeq	r0, [r0, #-272]	; 0xfffffef0
    4508:	00a7ac03 	adceq	sl, r7, r3, lsl #24
    450c:	51011000 	mrspl	r1, (UNDEF: 1)
    4510:	ad540305 	ldclge	3, cr0, [r4, #-20]	; 0xffffffec
    4514:	01100000 	tsteq	r0, r0
    4518:	3c030552 	cfstr32cc	mvfx0, [r3], {82}	; 0x52
    451c:	100000af 	andne	r0, r0, pc, lsr #1
    4520:	41015301 	tstmi	r1, r1, lsl #6
    4524:	007d0210 	rsbseq	r0, sp, r0, lsl r2
    4528:	ae680305 	cdpge	3, 6, cr0, cr8, cr5, {0}
    452c:	11000000 	mrsne	r0, (UNDEF: 0)
    4530:	0000a2fc 	strdeq	sl, [r0], -ip
    4534:	000008c8 	andeq	r0, r0, r8, asr #17
    4538:	70190000 	andsvc	r0, r9, r0
    453c:	78000008 	stmdavc	r0, {r3}
    4540:	030000a2 	movweq	r0, #162	; 0xa2
    4544:	0000a278 	andeq	sl, r0, r8, ror r2
    4548:	00000004 	andeq	r0, r0, r4
    454c:	3e056801 	cdpcc	8, 0, cr6, cr5, cr1, {0}
    4550:	1a000003 	bne	4564 <__code_start__-0x3a9c>
    4554:	0000088b 	andeq	r0, r0, fp, lsl #17
    4558:	00002aea 	andeq	r2, r0, sl, ror #21
    455c:	00002ae8 	andeq	r2, r0, r8, ror #21
    4560:	0008811a 	andeq	r8, r8, sl, lsl r1
    4564:	002aff00 	eoreq	pc, sl, r0, lsl #30
    4568:	002afd00 	eoreq	pc, sl, r0, lsl #26
    456c:	900f0000 	andls	r0, pc, r0
    4570:	410000a2 	smlatbmi	r0, r2, r0, r0
    4574:	53000004 	movwpl	r0, #4
    4578:	10000003 	andne	r0, r0, r3
    457c:	f3035001 	vhadd.u8	d5, d3, d1
    4580:	0f005001 	svceq	0x00005001
    4584:	0000a2b4 			; <UNDEFINED> instruction: 0x0000a2b4
    4588:	000008bc 			; <UNDEFINED> instruction: 0x000008bc
    458c:	0000038c 	andeq	r0, r0, ip, lsl #7
    4590:	05500110 	ldrbeq	r0, [r0, #-272]	; 0xfffffef0
    4594:	00a7ac03 	adceq	sl, r7, r3, lsl #24
    4598:	51011000 	mrspl	r1, (UNDEF: 1)
    459c:	ad540305 	ldclge	3, cr0, [r4, #-20]	; 0xffffffec
    45a0:	01100000 	tsteq	r0, r0
    45a4:	2c030552 	cfstr32cs	mvfx0, [r3], {82}	; 0x52
    45a8:	100000af 	andne	r0, r0, pc, lsr #1
    45ac:	08025301 	stmdaeq	r2, {r0, r8, r9, ip, lr}
    45b0:	7d02105f 	stcvc	0, cr1, [r2, #-380]	; 0xfffffe84
    45b4:	64030500 	strvs	r0, [r3], #-1280	; 0xfffffb00
    45b8:	000000ad 	andeq	r0, r0, sp, lsr #1
    45bc:	00a2b811 	adceq	fp, r2, r1, lsl r8
    45c0:	0008c800 	andeq	ip, r8, r0, lsl #16
    45c4:	a2bc1100 	adcsge	r1, ip, #0
    45c8:	08d40000 	ldmeq	r4, {}^	; <UNPREDICTABLE>
    45cc:	d80f0000 	stmdale	pc, {}	; <UNPREDICTABLE>
    45d0:	bc0000a2 	stclt	0, cr0, [r0], {162}	; 0xa2
    45d4:	d7000008 	strle	r0, [r0, -r8]
    45d8:	10000003 	andne	r0, r0, r3
    45dc:	03055001 	movweq	r5, #20481	; 0x5001
    45e0:	0000ae20 	andeq	sl, r0, r0, lsr #28
    45e4:	05510110 	ldrbeq	r0, [r1, #-272]	; 0xfffffef0
    45e8:	00ad5403 	adceq	r5, sp, r3, lsl #8
    45ec:	52011000 	andpl	r1, r1, #0, 0
    45f0:	af2c0305 	svcge	0x002c0305
    45f4:	01100000 	tsteq	r0, r0
    45f8:	60080253 	andvs	r0, r8, r3, asr r2
    45fc:	007d0210 	rsbseq	r0, sp, r0, lsl r2
    4600:	ae540305 	cdpge	3, 5, cr0, cr4, cr5, {0}
    4604:	11000000 	mrsne	r0, (UNDEF: 0)
    4608:	0000a2dc 	ldrdeq	sl, [r0], -ip
    460c:	000008c8 	andeq	r0, r0, r8, asr #17
    4610:	00a30011 	adceq	r0, r3, r1, lsl r0
    4614:	0008d400 	andeq	sp, r8, r0, lsl #8
    4618:	a31c0f00 	tstge	ip, #0, 30
    461c:	08bc0000 	ldmeq	ip!, {}	; <UNPREDICTABLE>
    4620:	04220000 	strteq	r0, [r2], #-0
    4624:	01100000 	tsteq	r0, r0
    4628:	74030550 	strvc	r0, [r3], #-1360	; 0xfffffab0
    462c:	100000ae 	andne	r0, r0, lr, lsr #1
    4630:	03055101 	movweq	r5, #20737	; 0x5101
    4634:	0000ad54 	andeq	sl, r0, r4, asr sp
    4638:	05520110 	ldrbeq	r0, [r2, #-272]	; 0xfffffef0
    463c:	00af2c03 	adceq	r2, pc, r3, lsl #24
    4640:	53011000 	movwpl	r1, #4096	; 0x1000
    4644:	10680802 	rsbne	r0, r8, r2, lsl #16
    4648:	05007d02 	streq	r7, [r0, #-3330]	; 0xfffff2fe
    464c:	00aea003 	adceq	sl, lr, r3
    4650:	20110000 	andscs	r0, r1, r0
    4654:	c80000a3 	stmdagt	r0, {r0, r1, r5, r7}
    4658:	00000008 	andeq	r0, r0, r8
    465c:	00007e12 	andeq	r7, r0, r2, lsl lr
    4660:	00043c00 	andeq	r3, r4, r0, lsl #24
    4664:	002c1300 	eoreq	r1, ip, r0, lsl #6
    4668:	000f0000 	andeq	r0, pc, r0
    466c:	00042c05 	andeq	r2, r4, r5, lsl #24
    4670:	04a81600 	strteq	r1, [r8], #1536	; 0x600
    4674:	53010000 	movwpl	r0, #4096	; 0x1000
    4678:	00008a07 	andeq	r8, r0, r7, lsl #20
    467c:	00a1d000 	adceq	sp, r1, r0
    4680:	00006400 	andeq	r6, r0, r0, lsl #8
    4684:	089c0100 	ldmeq	ip, {r8}
    4688:	17000005 	strne	r0, [r0, -r5]
    468c:	00000321 	andeq	r0, r0, r1, lsr #6
    4690:	2c185301 	ldccs	3, cr5, [r8], {1}
    4694:	1a000000 	bne	469c <__code_start__-0x3964>
    4698:	1200002b 	andne	r0, r0, #43, 0	; 0x2b
    469c:	0e00002b 	cdpeq	0, 0, cr0, cr0, cr11, {1}
    46a0:	000001b6 			; <UNDEFINED> instruction: 0x000001b6
    46a4:	00000518 	andeq	r0, r0, r8, lsl r5
    46a8:	af240305 	svcge	0x00240305
    46ac:	d51d0000 	ldrle	r0, [sp, #-0]
    46b0:	01000005 	tsteq	r0, r5
    46b4:	008a0b55 	addeq	r0, sl, r5, asr fp
    46b8:	2b520000 	blcs	14846c0 <__bss_end__+0x1479330>
    46bc:	2b4e0000 	blcs	13846c4 <__bss_end__+0x1379334>
    46c0:	e80f0000 	stmda	pc, {}	; <UNPREDICTABLE>
    46c4:	1d0000a1 	stcne	0, cr0, [r0, #-644]	; 0xfffffd7c
    46c8:	a6000005 	strge	r0, [r0], -r5
    46cc:	10000004 	andne	r0, r0, r4
    46d0:	74025001 	strvc	r5, [r2], #-1
    46d4:	f80f0000 			; <UNDEFINED> instruction: 0xf80f0000
    46d8:	e00000a1 	and	r0, r0, r1, lsr #1
    46dc:	c5000008 	strgt	r0, [r0, #-8]
    46e0:	10000004 	andne	r0, r0, r4
    46e4:	75025001 	strvc	r5, [r2, #-1]
    46e8:	51011000 	mrspl	r1, (UNDEF: 1)
    46ec:	01103001 	tsteq	r0, r1
    46f0:	00740252 	rsbseq	r0, r4, r2, asr r2
    46f4:	a2200f00 	eorge	r0, r0, #0, 30
    46f8:	08bc0000 	ldmeq	ip!, {}	; <UNPREDICTABLE>
    46fc:	04fe0000 	ldrbteq	r0, [lr], #0
    4700:	01100000 	tsteq	r0, r0
    4704:	ac030550 	cfstr32ge	mvfx0, [r3], {80}	; 0x50
    4708:	100000a7 	andne	r0, r0, r7, lsr #1
    470c:	03055101 	movweq	r5, #20737	; 0x5101
    4710:	0000ad54 	andeq	sl, r0, r4, asr sp
    4714:	05520110 	ldrbeq	r0, [r2, #-272]	; 0xfffffef0
    4718:	00af2403 	adceq	r2, pc, r3, lsl #8
    471c:	53011000 	movwpl	r1, #4096	; 0x1000
    4720:	10540802 	subsne	r0, r4, r2, lsl #16
    4724:	05007d02 	streq	r7, [r0, #-3330]	; 0xfffff2fe
    4728:	00ad6403 	adceq	r6, sp, r3, lsl #8
    472c:	24110000 	ldrcs	r0, [r1], #-0
    4730:	c80000a2 	stmdagt	r0, {r1, r5, r7}
    4734:	00000008 	andeq	r0, r0, r8
    4738:	00007e12 	andeq	r7, r0, r2, lsl lr
    473c:	00051800 	andeq	r1, r5, r0, lsl #16
    4740:	002c1300 	eoreq	r1, ip, r0, lsl #6
    4744:	00070000 	andeq	r0, r7, r0
    4748:	00050805 	andeq	r0, r5, r5, lsl #16
    474c:	0b771600 	bleq	1dc9f54 <__bss_end__+0x1dbebc4>
    4750:	47010000 	strmi	r0, [r1, -r0]
    4754:	00008a07 	andeq	r8, r0, r7, lsl #20
    4758:	00a13800 	adceq	r3, r1, r0, lsl #16
    475c:	00009800 	andeq	r9, r0, r0, lsl #16
    4760:	2b9c0100 	blcs	fe704b68 <__bss_end__+0xfe6f97d8>
    4764:	17000006 	strne	r0, [r0, -r6]
    4768:	00000321 	andeq	r0, r0, r1, lsr #6
    476c:	2c204701 	stccs	7, cr4, [r0], #-4
    4770:	80000000 	andhi	r0, r0, r0
    4774:	7000002b 	andvc	r0, r0, fp, lsr #32
    4778:	0e00002b 	cdpeq	0, 0, cr0, cr0, cr11, {1}
    477c:	000001b6 			; <UNDEFINED> instruction: 0x000001b6
    4780:	0000043c 	andeq	r0, r0, ip, lsr r4
    4784:	af140305 	svcge	0x00140305
    4788:	d51d0000 	ldrle	r0, [sp, #-0]
    478c:	01000005 	tsteq	r0, r5
    4790:	008a0b4b 	addeq	r0, sl, fp, asr #22
    4794:	2bf20000 	blcs	ffc8479c <__bss_end__+0xffc7940c>
    4798:	2bee0000 	blcs	ffb847a0 <__bss_end__+0xffb79410>
    479c:	1f1b0000 	svcne	0x001b0000
    47a0:	48000008 	stmdami	r0, {r3}
    47a4:	030000a1 	movweq	r0, #161	; 0xa1
    47a8:	00000460 	andeq	r0, r0, r0, ror #8
    47ac:	a30e4901 	movwge	r4, #59649	; 0xe901
    47b0:	1a000005 	bne	47cc <__code_start__-0x3834>
    47b4:	0000083a 	andeq	r0, r0, sl, lsr r8
    47b8:	00002c12 	andeq	r2, r0, r2, lsl ip
    47bc:	00002c10 	andeq	r2, r0, r0, lsl ip
    47c0:	0008301a 	andeq	r3, r8, sl, lsl r0
    47c4:	002c2a00 	eoreq	r2, ip, r0, lsl #20
    47c8:	002c2600 	eoreq	r2, ip, r0, lsl #12
    47cc:	04601e00 	strbteq	r1, [r0], #-3584	; 0xfffff200
    47d0:	0f000000 	svceq	0x00000000
    47d4:	0000a190 	muleq	r0, r0, r1
    47d8:	000008bc 			; <UNDEFINED> instruction: 0x000008bc
    47dc:	000005dc 	ldrdeq	r0, [r0], -ip
    47e0:	05500110 	ldrbeq	r0, [r0, #-272]	; 0xfffffef0
    47e4:	00a7ac03 	adceq	sl, r7, r3, lsl #24
    47e8:	51011000 	mrspl	r1, (UNDEF: 1)
    47ec:	ad540305 	ldclge	3, cr0, [r4, #-20]	; 0xffffffec
    47f0:	01100000 	tsteq	r0, r0
    47f4:	14030552 	strne	r0, [r3], #-1362	; 0xfffffaae
    47f8:	100000af 	andne	r0, r0, pc, lsr #1
    47fc:	08025301 	stmdaeq	r2, {r0, r8, r9, ip, lr}
    4800:	7d021048 	stcvc	0, cr1, [r2, #-288]	; 0xfffffee0
    4804:	64030500 	strvs	r0, [r3], #-1280	; 0xfffffb00
    4808:	000000ad 	andeq	r0, r0, sp, lsr #1
    480c:	00a19411 	adceq	r9, r1, r1, lsl r4
    4810:	0008c800 	andeq	ip, r8, r0, lsl #16
    4814:	a1b40f00 			; <UNDEFINED> instruction: 0xa1b40f00
    4818:	08bc0000 	ldmeq	ip!, {}	; <UNPREDICTABLE>
    481c:	06210000 	strteq	r0, [r1], -r0
    4820:	01100000 	tsteq	r0, r0
    4824:	e0030550 	and	r0, r3, r0, asr r5
    4828:	100000ad 	andne	r0, r0, sp, lsr #1
    482c:	03055101 	movweq	r5, #20737	; 0x5101
    4830:	0000ad54 	andeq	sl, r0, r4, asr sp
    4834:	05520110 	ldrbeq	r0, [r2, #-272]	; 0xfffffef0
    4838:	00af1403 	adceq	r1, pc, r3, lsl #8
    483c:	53011000 	movwpl	r1, #4096	; 0x1000
    4840:	104e0802 	subne	r0, lr, r2, lsl #16
    4844:	08007d02 	stmdaeq	r0, {r1, r8, sl, fp, ip, sp, lr}
    4848:	235001f3 	cmpcs	r0, #-1073741764	; 0xc000003c
    484c:	1af80907 	bne	ffe06c70 <__bss_end__+0xffdfb8e0>
    4850:	a1b81100 			; <UNDEFINED> instruction: 0xa1b81100
    4854:	08c80000 	stmiaeq	r8, {}^	; <UNPREDICTABLE>
    4858:	0c000000 	stceq	0, cr0, [r0], {-0}
    485c:	00000b99 	muleq	r0, r9, fp
    4860:	e0063c01 	and	r3, r6, r1, lsl #24
    4864:	580000a0 	stmdapl	r0, {r5, r7}
    4868:	01000000 	mrseq	r0, (UNDEF: 0)
    486c:	0006cf9c 	muleq	r6, ip, pc	; <UNPREDICTABLE>
    4870:	03c90a00 	biceq	r0, r9, #0, 20
    4874:	3d010000 	stccc	0, cr0, [r1, #-0]
    4878:	00002510 	andeq	r2, r0, r0, lsl r5
    487c:	8c030500 	cfstr32hi	mvfx0, [r3], {-0}
    4880:	0e0000b3 	mcreq	0, 0, r0, cr0, cr3, {5}
    4884:	000001b6 			; <UNDEFINED> instruction: 0x000001b6
    4888:	000006df 	ldrdeq	r0, [r0], -pc	; <UNPREDICTABLE>
    488c:	af040305 	svcge	0x00040305
    4890:	07070000 	streq	r0, [r7, -r0]
    4894:	00002c04 	andeq	r2, r0, r4, lsl #24
    4898:	0a420100 	beq	1084ca0 <__bss_end__+0x1079910>
    489c:	0000067a 	andeq	r0, r0, sl, ror r6
    48a0:	000b6008 	andeq	r6, fp, r8
    48a4:	10000000 	andne	r0, r0, r0
    48a8:	0c0f0000 	stceq	0, cr0, [pc], {-0}
    48ac:	e40000a1 	str	r0, [r0], #-161	; 0xffffff5f
    48b0:	96000006 	strls	r0, [r0], -r6
    48b4:	10000006 	andne	r0, r0, r6
    48b8:	40035001 	andmi	r5, r3, r1
    48bc:	01102440 	tsteq	r0, r0, asr #8
    48c0:	48400351 	stmdami	r0, {r0, r4, r6, r8, r9}^
    48c4:	240f0024 	strcs	r0, [pc], #-36	; 48cc <__code_start__-0x3734>
    48c8:	bc0000a1 	stclt	0, cr0, [r0], {161}	; 0xa1
    48cc:	c5000008 	strgt	r0, [r0, #-8]
    48d0:	10000006 	andne	r0, r0, r6
    48d4:	03055001 	movweq	r5, #20481	; 0x5001
    48d8:	0000adb0 			; <UNDEFINED> instruction: 0x0000adb0
    48dc:	05510110 	ldrbeq	r0, [r1, #-272]	; 0xfffffef0
    48e0:	00ad5403 	adceq	r5, sp, r3, lsl #8
    48e4:	52011000 	andpl	r1, r1, #0, 0
    48e8:	af040305 	svcge	0x00040305
    48ec:	01100000 	tsteq	r0, r0
    48f0:	40080253 	andmi	r0, r8, r3, asr r2
    48f4:	a1281100 			; <UNDEFINED> instruction: 0xa1281100
    48f8:	08c80000 	stmiaeq	r8, {}^	; <UNPREDICTABLE>
    48fc:	12000000 	andne	r0, r0, #0, 0
    4900:	0000007e 	andeq	r0, r0, lr, ror r0
    4904:	000006df 	ldrdeq	r0, [r0], -pc	; <UNPREDICTABLE>
    4908:	00002c13 	andeq	r2, r0, r3, lsl ip
    490c:	05000c00 	streq	r0, [r0, #-3072]	; 0xfffff400
    4910:	000006cf 	andeq	r0, r0, pc, asr #13
    4914:	0004b00c 	andeq	fp, r4, ip
    4918:	062d0100 	strteq	r0, [sp], -r0, lsl #2
    491c:	0000a044 	andeq	sl, r0, r4, asr #32
    4920:	0000009c 	muleq	r0, ip, r0
    4924:	07c89c01 	strbeq	r9, [r8, r1, lsl #24]
    4928:	d4170000 	ldrle	r0, [r7], #-0
    492c:	01000005 	tsteq	r0, r5
    4930:	002c262d 	eoreq	r2, ip, sp, lsr #12
    4934:	2c580000 	mracs	r0, r8, acc0
    4938:	2c4a0000 	marcs	acc0, r0, sl
    493c:	1e170000 	cdpne	0, 1, cr0, cr7, cr0, {0}
    4940:	0100000b 	tsteq	r0, fp
    4944:	002c362d 	eoreq	r3, ip, sp, lsr #12
    4948:	2cc00000 	stclcs	0, cr0, [r0], {0}
    494c:	2cb80000 	ldccs	0, cr0, [r8]
    4950:	d51d0000 	ldrle	r0, [sp, #-0]
    4954:	01000005 	tsteq	r0, r5
    4958:	00c20b2e 	sbceq	r0, r2, lr, lsr #22
    495c:	2d080000 	stccs	0, cr0, [r8, #-0]
    4960:	2cfa0000 	ldclcs	0, cr0, [sl]
    4964:	b60e0000 	strlt	r0, [lr], -r0
    4968:	d8000001 	stmdale	r0, {r0}
    496c:	05000007 	streq	r0, [r0, #-7]
    4970:	00aeec03 	adceq	lr, lr, r3, lsl #24
    4974:	a09c0f00 	addsge	r0, ip, r0, lsl #30
    4978:	08bc0000 	ldmeq	ip!, {}	; <UNPREDICTABLE>
    497c:	077e0000 	ldrbeq	r0, [lr, -r0]!
    4980:	01100000 	tsteq	r0, r0
    4984:	ac030550 	cfstr32ge	mvfx0, [r3], {80}	; 0x50
    4988:	100000a7 	andne	r0, r0, r7, lsr #1
    498c:	03055101 	movweq	r5, #20737	; 0x5101
    4990:	0000ad54 	andeq	sl, r0, r4, asr sp
    4994:	05520110 	ldrbeq	r0, [r2, #-272]	; 0xfffffef0
    4998:	00aeec03 	adceq	lr, lr, r3, lsl #24
    499c:	53011000 	movwpl	r1, #4096	; 0x1000
    49a0:	10300802 	eorsne	r0, r0, r2, lsl #16
    49a4:	05007d02 	streq	r7, [r0, #-3330]	; 0xfffff2fe
    49a8:	00ad6003 	adceq	r6, sp, r3
    49ac:	a0110000 	andsge	r0, r1, r0
    49b0:	c80000a0 	stmdagt	r0, {r5, r7}
    49b4:	0f000008 	svceq	0x00000008
    49b8:	0000a0c4 	andeq	sl, r0, r4, asr #1
    49bc:	000008bc 			; <UNDEFINED> instruction: 0x000008bc
    49c0:	000007be 			; <UNDEFINED> instruction: 0x000007be
    49c4:	05500110 	ldrbeq	r0, [r0, #-272]	; 0xfffffef0
    49c8:	00ad6c03 	adceq	r6, sp, r3, lsl #24
    49cc:	51011000 	mrspl	r1, (UNDEF: 1)
    49d0:	ad540305 	ldclge	3, cr0, [r4, #-20]	; 0xffffffec
    49d4:	01100000 	tsteq	r0, r0
    49d8:	ec030552 	cfstr32	mvfx0, [r3], {82}	; 0x52
    49dc:	100000ae 	andne	r0, r0, lr, lsr #1
    49e0:	08025301 	stmdaeq	r2, {r0, r8, r9, ip, lr}
    49e4:	7d021034 	stcvc	0, cr1, [r2, #-208]	; 0xffffff30
    49e8:	01f30300 	mvnseq	r0, r0, lsl #6
    49ec:	c8110050 	ldmdagt	r1, {r4, r6}
    49f0:	c80000a0 	stmdagt	r0, {r5, r7}
    49f4:	00000008 	andeq	r0, r0, r8
    49f8:	00007e12 	andeq	r7, r0, r2, lsl lr
    49fc:	0007d800 	andeq	sp, r7, r0, lsl #16
    4a00:	002c1300 	eoreq	r1, ip, r0, lsl #6
    4a04:	00160000 	andseq	r0, r6, r0
    4a08:	0007c805 	andeq	ip, r7, r5, lsl #16
    4a0c:	0bb11f00 	bleq	fec4c614 <__bss_end__+0xfec41284>
    4a10:	2a010000 	bcs	44a18 <__bss_end__+0x39688>
    4a14:	00008a07 	andeq	r8, r0, r7, lsl #20
    4a18:	00a03400 	adceq	r3, r0, r0, lsl #8
    4a1c:	00001000 	andeq	r1, r0, r0
    4a20:	1f9c0100 	svcne	0x009c0100
    4a24:	00000b0b 	andeq	r0, r0, fp, lsl #22
    4a28:	8a072901 	bhi	1cee34 <__bss_end__+0x1c3aa4>
    4a2c:	24000000 	strcs	r0, [r0], #-0
    4a30:	100000a0 	andne	r0, r0, r0, lsr #1
    4a34:	01000000 	mrseq	r0, (UNDEF: 0)
    4a38:	0b661f9c 	bleq	198c8b0 <__bss_end__+0x1981520>
    4a3c:	28010000 	stmdacs	r1, {}	; <UNPREDICTABLE>
    4a40:	00008a07 	andeq	r8, r0, r7, lsl #20
    4a44:	00a01400 	adceq	r1, r0, r0, lsl #8
    4a48:	00001000 	andeq	r1, r0, r0
    4a4c:	209c0100 	addscs	r0, ip, r0, lsl #2
    4a50:	00000b3c 	andeq	r0, r0, ip, lsr fp
    4a54:	2c181001 	ldccs	0, cr1, [r8], {1}
    4a58:	03000000 	movweq	r0, #0
    4a5c:	00000854 	andeq	r0, r0, r4, asr r8
    4a60:	01007821 	tsteq	r0, r1, lsr #16
    4a64:	002c2910 	eoreq	r2, ip, r0, lsl r9
    4a68:	6e210000 	cdpvs	0, 2, cr0, cr1, cr0, {0}
    4a6c:	35100100 	ldrcc	r0, [r0, #-256]	; 0xffffff00
    4a70:	0000002c 	andeq	r0, r0, ip, lsr #32
    4a74:	0001b60e 	andeq	fp, r1, lr, lsl #12
    4a78:	00051800 	andeq	r1, r5, r0, lsl #16
    4a7c:	3c030500 	cfstr32cc	mvfx0, [r3], {-0}
    4a80:	000000af 	andeq	r0, r0, pc, lsr #1
    4a84:	000b8720 	andeq	r8, fp, r0, lsr #14
    4a88:	180d0100 	stmdane	sp, {r8}
    4a8c:	0000002c 	andeq	r0, r0, ip, lsr #32
    4a90:	00087003 	andeq	r7, r8, r3
    4a94:	00782100 	rsbseq	r2, r8, r0, lsl #2
    4a98:	2c290d01 	stccs	13, cr0, [r9], #-4
    4a9c:	00000000 	andeq	r0, r0, r0
    4aa0:	000ba620 	andeq	sl, fp, r0, lsr #12
    4aa4:	18070100 	stmdane	r7, {r8}
    4aa8:	0000002c 	andeq	r0, r0, ip, lsr #32
    4aac:	00089603 	andeq	r9, r8, r3, lsl #12
    4ab0:	00782100 	rsbseq	r2, r8, r0, lsl #2
    4ab4:	2c2c0701 	stccs	7, cr0, [ip], #-4
    4ab8:	21000000 	mrscs	r0, (UNDEF: 0)
    4abc:	0701006e 	streq	r0, [r1, -lr, rrx]
    4ac0:	00002c38 	andeq	r2, r0, r8, lsr ip
    4ac4:	58200000 	stmdapl	r0!, {}	; <UNPREDICTABLE>
    4ac8:	0100000b 	tsteq	r0, fp
    4acc:	005d1804 	subseq	r1, sp, r4, lsl #16
    4ad0:	bc030000 	stclt	0, cr0, [r3], {-0}
    4ad4:	21000008 	tstcs	r0, r8
    4ad8:	04010078 	streq	r0, [r1], #-120	; 0xffffff88
    4adc:	00005d29 	andeq	r5, r0, r9, lsr #26
    4ae0:	00792100 	rsbseq	r2, r9, r0, lsl #2
    4ae4:	5d350401 	cfldrspl	mvf0, [r5, #-4]!
    4ae8:	00000000 	andeq	r0, r0, r0
    4aec:	00063c22 	andeq	r3, r6, r2, lsr #24
    4af0:	00063c00 	andeq	r3, r6, r0, lsl #24
    4af4:	06280200 	strteq	r0, [r8], -r0, lsl #4
    4af8:	00005122 	andeq	r5, r0, r2, lsr #2
    4afc:	00005100 	andeq	r5, r0, r0, lsl #2
    4b00:	066e0200 	strbteq	r0, [lr], -r0, lsl #4
    4b04:	000bc222 	andeq	ip, fp, r2, lsr #4
    4b08:	000bc200 	andeq	ip, fp, r0, lsl #4
    4b0c:	061d0200 	ldreq	r0, [sp], -r0, lsl #4
    4b10:	00028622 	andeq	r8, r2, r2, lsr #12
    4b14:	00028600 	andeq	r8, r2, r0, lsl #12
    4b18:	07f20200 	ldrbeq	r0, [r2, r0, lsl #4]!
    4b1c:	00067300 	andeq	r7, r6, r0, lsl #6
    4b20:	8d000400 	cfstrshi	mvf0, [r0, #-0]
    4b24:	04000019 	streq	r0, [r0], #-25	; 0xffffffe7
    4b28:	00051401 	andeq	r1, r5, r1, lsl #8
    4b2c:	0c140c00 	ldceq	12, cr0, [r4], {-0}
    4b30:	05da0000 	ldrbeq	r0, [sl]
    4b34:	a3c40000 	bicge	r0, r4, #0, 0
    4b38:	01980000 	orrseq	r0, r8, r0
    4b3c:	25bc0000 	ldrcs	r0, [ip, #0]!
    4b40:	08020000 	stmdaeq	r2, {}	; <UNPREDICTABLE>
    4b44:	0001c307 	andeq	ip, r1, r7, lsl #6
    4b48:	07040200 	streq	r0, [r4, -r0, lsl #4]
    4b4c:	000001cd 	andeq	r0, r0, sp, asr #3
    4b50:	69050403 	stmdbvs	r5, {r0, r1, sl}
    4b54:	0400746e 	streq	r7, [r0], #-1134	; 0xfffffb92
    4b58:	0000002c 	andeq	r0, r0, ip, lsr #32
    4b5c:	45060102 	strmi	r0, [r6, #-258]	; 0xfffffefe
    4b60:	02000000 	andeq	r0, r0, #0, 0
    4b64:	01fb0502 	mvnseq	r0, r2, lsl #10
    4b68:	04020000 	streq	r0, [r2], #-0
    4b6c:	0001df05 	andeq	sp, r1, r5, lsl #30
    4b70:	05080200 	streq	r0, [r8, #-512]	; 0xfffffe00
    4b74:	000001da 	ldrdeq	r0, [r0], -sl
    4b78:	43080102 	movwmi	r0, #33026	; 0x8102
    4b7c:	02000000 	andeq	r0, r0, #0, 0
    4b80:	007d0702 	rsbseq	r0, sp, r2, lsl #14
    4b84:	af050000 	svcge	0x00050000
    4b88:	03000002 	movweq	r0, #2
    4b8c:	00751934 	rsbseq	r1, r5, r4, lsr r9
    4b90:	04020000 	streq	r0, [r2], #-0
    4b94:	0001c807 	andeq	ip, r1, r7, lsl #16
    4b98:	00330600 	eorseq	r0, r3, r0, lsl #12
    4b9c:	008b0000 	addeq	r0, fp, r0
    4ba0:	33070000 	movwcc	r0, #28672	; 0x7000
    4ba4:	00000000 	andeq	r0, r0, r0
    4ba8:	0001e808 	andeq	lr, r1, r8, lsl #16
    4bac:	0e1c0200 	cdpeq	2, 1, cr0, cr12, cr0, {0}
    4bb0:	00000097 	muleq	r0, r7, r0
    4bb4:	007c0409 	rsbseq	r0, ip, r9, lsl #8
    4bb8:	33060000 	movwcc	r0, #24576	; 0x6000
    4bbc:	ac000000 	stcge	0, cr0, [r0], {-0}
    4bc0:	07000000 	streq	r0, [r0, -r0]
    4bc4:	000000ac 	andeq	r0, r0, ip, lsr #1
    4bc8:	b9040900 	stmdblt	r4, {r8, fp}
    4bcc:	02000000 	andeq	r0, r0, #0, 0
    4bd0:	004c0801 	subeq	r0, ip, r1, lsl #16
    4bd4:	b2040000 	andlt	r0, r4, #0, 0
    4bd8:	08000000 	stmdaeq	r0, {}	; <UNPREDICTABLE>
    4bdc:	0000067a 	andeq	r0, r0, sl, ror r6
    4be0:	ca0e2102 	bgt	38cff0 <__bss_end__+0x381c60>
    4be4:	09000000 	stmdbeq	r0, {}	; <UNPREDICTABLE>
    4be8:	00009d04 	andeq	r9, r0, r4, lsl #26
    4bec:	01070a00 	tsteq	r7, r0, lsl #20
    4bf0:	0000005b 	andeq	r0, r0, fp, asr r0
    4bf4:	0f0e0c04 	svceq	0x000e0c04
    4bf8:	0b000001 	bleq	4c04 <__code_start__-0x33fc>
    4bfc:	00000ae3 	andeq	r0, r0, r3, ror #21
    4c00:	091b0b00 	ldmdbeq	fp, {r8, r9, fp}
    4c04:	0b010000 	bleq	44c0c <__bss_end__+0x3987c>
    4c08:	0000095e 	andeq	r0, r0, lr, asr r9
    4c0c:	096d0b04 	stmdbeq	sp!, {r2, r8, r9, fp}^
    4c10:	0b050000 	bleq	144c18 <__bss_end__+0x139888>
    4c14:	0000097c 	andeq	r0, r0, ip, ror r9
    4c18:	098b0b06 	stmibeq	fp, {r1, r2, r8, r9, fp}
    4c1c:	0b070000 	bleq	1c4c24 <__bss_end__+0x1b9894>
    4c20:	00000aac 	andeq	r0, r0, ip, lsr #21
    4c24:	099a0b03 	ldmibeq	sl, {r0, r1, r8, r9, fp}
    4c28:	00020000 	andeq	r0, r2, r0
    4c2c:	000c4d05 	andeq	r4, ip, r5, lsl #26
    4c30:	03150400 	tsteq	r5, #0, 8
    4c34:	000000d0 	ldrdeq	r0, [r0], -r0	; <UNPREDICTABLE>
    4c38:	000beb0c 	andeq	lr, fp, ip, lsl #22
    4c3c:	171d0100 	ldrne	r0, [sp, -r0, lsl #2]
    4c40:	0000003a 	andeq	r0, r0, sl, lsr r0
    4c44:	2020001c 	eorcs	r0, r0, ip, lsl r0
    4c48:	000be10c 	andeq	lr, fp, ip, lsl #2
    4c4c:	171e0100 	ldrne	r0, [lr, -r0, lsl #2]
    4c50:	0000003a 	andeq	r0, r0, sl, lsr r0
    4c54:	20200028 	eorcs	r0, r0, r8, lsr #32
    4c58:	000c590c 	andeq	r5, ip, ip, lsl #18
    4c5c:	171f0100 	ldrne	r0, [pc, -r0, lsl #2]
    4c60:	0000003a 	andeq	r0, r0, sl, lsr r0
    4c64:	20200034 	eorcs	r0, r0, r4, lsr r0
    4c68:	000c0a0d 	andeq	r0, ip, sp, lsl #20
    4c6c:	05510100 	ldrbeq	r0, [r1, #-256]	; 0xffffff00
    4c70:	00000033 	andeq	r0, r0, r3, lsr r0
    4c74:	0000a534 	andeq	sl, r0, r4, lsr r5
    4c78:	00000028 	andeq	r0, r0, r8, lsr #32
    4c7c:	01ba9c01 			; <UNDEFINED> instruction: 0x01ba9c01
    4c80:	700e0000 	andvc	r0, lr, r0
    4c84:	01006e69 	tsteq	r0, r9, ror #28
    4c88:	002c1851 	eoreq	r1, ip, r1, asr r8
    4c8c:	2d6e0000 	stclcs	0, cr0, [lr, #-0]
    4c90:	2d680000 	stclcs	0, cr0, [r8, #-0]
    4c94:	630f0000 	movwvs	r0, #61440	; 0xf000
    4c98:	0100000c 	tsteq	r0, ip
    4c9c:	002c0e52 	eoreq	r0, ip, r2, asr lr
    4ca0:	2da40000 	stccs	0, cr0, [r4]
    4ca4:	2d9a0000 	ldccs	0, cr0, [sl]
    4ca8:	6f100000 	svcvs	0x00100000
    4cac:	01006666 	tsteq	r0, r6, ror #12
    4cb0:	002c0e53 	eoreq	r0, ip, r3, asr lr
    4cb4:	2e120000 	cdpcs	0, 1, cr0, cr2, cr0, {0}
    4cb8:	2e0c0000 	cdpcs	0, 0, cr0, cr12, cr0, {0}
    4cbc:	48110000 	ldmdami	r1, {}	; <UNPREDICTABLE>
    4cc0:	5e0000a5 	cdppl	0, 0, cr0, cr0, cr5, {5}
    4cc4:	12000006 	andne	r0, r0, #6, 0
    4cc8:	740a5001 	strvc	r5, [sl], #-1
    4ccc:	23253500 			; <UNDEFINED> instruction: 0x23253500
    4cd0:	818080b4 	strhhi	r8, [r0, r4]
    4cd4:	13000002 	movwne	r0, #2
    4cd8:	00000bf5 	strdeq	r0, [r0], -r5
    4cdc:	04064a01 	streq	r4, [r6], #-2561	; 0xfffff5ff
    4ce0:	300000a5 	andcc	r0, r0, r5, lsr #1
    4ce4:	01000000 	mrseq	r0, (UNDEF: 0)
    4ce8:	0002759c 	muleq	r2, ip, r5
    4cec:	69700e00 	ldmdbvs	r0!, {r9, sl, fp}^
    4cf0:	4a01006e 	bmi	44eb0 <__bss_end__+0x39b20>
    4cf4:	00002c1a 	andeq	r2, r0, sl, lsl ip
    4cf8:	002e4f00 	eoreq	r4, lr, r0, lsl #30
    4cfc:	002e4300 	eoreq	r4, lr, r0, lsl #6
    4d00:	00760e00 	rsbseq	r0, r6, r0, lsl #28
    4d04:	2c284a01 			; <UNDEFINED> instruction: 0x2c284a01
    4d08:	a3000000 	movwge	r0, #0
    4d0c:	9f00002e 	svcls	0x0000002e
    4d10:	1400002e 	strne	r0, [r0], #-46	; 0xffffffd2
    4d14:	0000038d 	andeq	r0, r0, sp, lsl #7
    4d18:	0000a514 	andeq	sl, r0, r4, lsl r5
    4d1c:	00053001 	andeq	r3, r5, r1
    4d20:	094c0100 	stmdbeq	ip, {r8}^
    4d24:	00000235 	andeq	r0, r0, r5, lsr r2
    4d28:	00039a15 	andeq	r9, r3, r5, lsl sl
    4d2c:	002eca00 	eoreq	ip, lr, r0, lsl #20
    4d30:	002ec400 	eoreq	ip, lr, r0, lsl #8
    4d34:	a5201600 	strge	r1, [r0, #-1536]!	; 0xfffffa00
    4d38:	066a0000 	strbteq	r0, [sl], -r0
    4d3c:	01120000 	tsteq	r2, r0
    4d40:	1c0c0550 	cfstr32ne	mvfx0, [ip], {80}	; 0x50
    4d44:	12202000 	eorne	r2, r0, #0, 0
    4d48:	31055101 	tstcc	r5, r1, lsl #2
    4d4c:	245001f3 	ldrbcs	r0, [r0], #-499	; 0xfffffe0d
    4d50:	73170000 	tstvc	r7, #0, 0
    4d54:	20000003 	andcs	r0, r0, r3
    4d58:	020000a5 	andeq	r0, r0, #165, 0	; 0xa5
    4d5c:	0000a520 	andeq	sl, r0, r0, lsr #10
    4d60:	00000014 	andeq	r0, r0, r4, lsl r0
    4d64:	15094e01 	strne	r4, [r9, #-3585]	; 0xfffff1ff
    4d68:	00000380 	andeq	r0, r0, r0, lsl #7
    4d6c:	00002efc 	strdeq	r2, [r0], -ip
    4d70:	00002ef6 	strdeq	r2, [r0], -r6
    4d74:	00a52c16 	adceq	r2, r5, r6, lsl ip
    4d78:	00066a00 	andeq	r6, r6, r0, lsl #20
    4d7c:	50011200 	andpl	r1, r1, r0, lsl #4
    4d80:	00280c05 	eoreq	r0, r8, r5, lsl #24
    4d84:	01122020 	tsteq	r2, r0, lsr #32
    4d88:	f3310551 	vqrshl.u64	q0, <illegal reg q0.5>, <illegal reg q0.5>
    4d8c:	00245001 	eoreq	r5, r4, r1
    4d90:	21130000 	tstcs	r3, r0
    4d94:	0100000c 	tsteq	r0, ip
    4d98:	a4ac0645 	strtge	r0, [ip], #1605	; 0x645
    4d9c:	00580000 	subseq	r0, r8, r0
    4da0:	9c010000 	stcls	0, cr0, [r1], {-0}
    4da4:	00000373 	andeq	r0, r0, r3, ror r3
    4da8:	6e69700e 	cdpvs	0, 6, cr7, cr9, cr14, {0}
    4dac:	1e450100 	dvfnes	f0, f5, f0
    4db0:	0000002c 	andeq	r0, r0, ip, lsr #32
    4db4:	00002f2e 	andeq	r2, r0, lr, lsr #30
    4db8:	00002f28 	andeq	r2, r0, r8, lsr #30
    4dbc:	0004a518 	andeq	sl, r4, r8, lsl r5
    4dc0:	00a4ac00 	adceq	sl, r4, r0, lsl #24
    4dc4:	04f00200 	ldrbteq	r0, [r0], #512	; 0x200
    4dc8:	46010000 	strmi	r0, [r1], -r0
    4dcc:	04be1905 	ldrteq	r1, [lr], #2309	; 0x905
    4dd0:	15000000 	strne	r0, [r0, #-0]
    4dd4:	000004b2 			; <UNDEFINED> instruction: 0x000004b2
    4dd8:	00002f60 	andeq	r2, r0, r0, ror #30
    4ddc:	00002f5a 	andeq	r2, r0, sl, asr pc
    4de0:	0004f01a 	andeq	pc, r4, sl, lsl r0	; <UNPREDICTABLE>
    4de4:	04ca1b00 	strbeq	r1, [sl], #2816	; 0xb00
    4de8:	d61b0000 	ldrle	r0, [fp], -r0
    4dec:	1b000004 	blne	4e04 <__code_start__-0x31fc>
    4df0:	000004e0 	andeq	r0, r0, r0, ror #9
    4df4:	0004a518 	andeq	sl, r4, r8, lsl r5
    4df8:	00a4b400 	adceq	fp, r4, r0, lsl #8
    4dfc:	05100000 	ldreq	r0, [r0, #-0]
    4e00:	28010000 	stmdacs	r1, {}	; <UNPREDICTABLE>
    4e04:	04be1906 	ldrteq	r1, [lr], #2310	; 0x906
    4e08:	15000000 	strne	r0, [r0, #-0]
    4e0c:	000004b2 			; <UNDEFINED> instruction: 0x000004b2
    4e10:	00002f92 	muleq	r0, r2, pc	; <UNPREDICTABLE>
    4e14:	00002f8c 	andeq	r2, r0, ip, lsl #31
    4e18:	0005101a 	andeq	r1, r5, sl, lsl r0
    4e1c:	04ca1c00 	strbeq	r1, [sl], #3072	; 0xc00
    4e20:	2fc40000 	svccs	0x00c40000
    4e24:	2fbe0000 	svccs	0x00be0000
    4e28:	d61c0000 	ldrle	r0, [ip], -r0
    4e2c:	06000004 	streq	r0, [r0], -r4
    4e30:	00000030 	andeq	r0, r0, r0, lsr r0
    4e34:	1c000030 	stcne	0, cr0, [r0], {48}	; 0x30
    4e38:	000004e0 	andeq	r0, r0, r0, ror #9
    4e3c:	0000305c 	andeq	r3, r0, ip, asr r0
    4e40:	00003054 	andeq	r3, r0, r4, asr r0
    4e44:	00a4dc1d 	adceq	sp, r4, sp, lsl ip
    4e48:	00065e00 	andeq	r5, r6, r0, lsl #28
    4e4c:	00033b00 	andeq	r3, r3, r0, lsl #22
    4e50:	50011200 	andpl	r1, r1, r0, lsl #4
    4e54:	00007602 	andeq	r7, r0, r2, lsl #12
    4e58:	00a50016 	adceq	r0, r5, r6, lsl r0
    4e5c:	00066a00 	andeq	r6, r6, r0, lsl #20
    4e60:	50011200 	andpl	r1, r1, r0, lsl #4
    4e64:	5001f325 	andpl	pc, r1, r5, lsr #6
    4e68:	25f72cf7 	ldrbcs	r2, [r7, #3319]!	; 0xcf7
    4e6c:	cd0825f4 	cfstr32gt	mvfx2, [r8, #-976]	; 0xfffffc30
    4e70:	00cccccc 	sbceq	ip, ip, ip, asr #25
    4e74:	1e000000 	cdpne	0, 0, cr0, cr0, cr0, {0}
    4e78:	25f72008 	ldrbcs	r2, [r7, #8]!
    4e7c:	f72cf725 			; <UNDEFINED> instruction: 0xf72cf725
    4e80:	23253300 			; <UNDEFINED> instruction: 0x23253300
    4e84:	40a08080 	adcmi	r8, r0, r0, lsl #1
    4e88:	00002432 	andeq	r2, r0, r2, lsr r4
    4e8c:	00000000 	andeq	r0, r0, r0
    4e90:	000c301e 	andeq	r3, ip, lr, lsl r0
    4e94:	0d400100 	stfeqe	f0, [r0, #-0]
    4e98:	00038d03 	andeq	r8, r3, r3, lsl #26
    4e9c:	69701f00 	ldmdbvs	r0!, {r8, r9, sl, fp, ip}^
    4ea0:	4001006e 	andmi	r0, r1, lr, rrx
    4ea4:	00002c23 	andeq	r2, r0, r3, lsr #24
    4ea8:	681e0000 	ldmdavs	lr, {}	; <UNPREDICTABLE>
    4eac:	0100000c 	tsteq	r0, ip
    4eb0:	a7030d3b 	smladxge	r3, fp, sp, r0
    4eb4:	1f000003 	svcne	0x00000003
    4eb8:	006e6970 	rsbeq	r6, lr, r0, ror r9
    4ebc:	2c223b01 			; <UNDEFINED> instruction: 0x2c223b01
    4ec0:	00000000 	andeq	r0, r0, r0
    4ec4:	000c3d13 	andeq	r3, ip, r3, lsl sp
    4ec8:	06360100 	ldrteq	r0, [r6], -r0, lsl #2
    4ecc:	0000a424 	andeq	sl, r0, r4, lsr #8
    4ed0:	00000058 	andeq	r0, r0, r8, asr r0
    4ed4:	04a59c01 	strteq	r9, [r5], #3073	; 0xc01
    4ed8:	700e0000 	andvc	r0, lr, r0
    4edc:	01006e69 	tsteq	r0, r9, ror #28
    4ee0:	002c1f36 	eoreq	r1, ip, r6, lsr pc
    4ee4:	30ba0000 	adcscc	r0, sl, r0
    4ee8:	30b60000 	adcscc	r0, r6, r0
    4eec:	a5180000 	ldrge	r0, [r8, #-0]
    4ef0:	24000004 	strcs	r0, [r0], #-4
    4ef4:	020000a4 	andeq	r0, r0, #164, 0	; 0xa4
    4ef8:	000004b0 			; <UNDEFINED> instruction: 0x000004b0
    4efc:	19053701 	stmdbne	r5, {r0, r8, r9, sl, ip, sp}
    4f00:	000004be 			; <UNDEFINED> instruction: 0x000004be
    4f04:	04b21501 	ldrteq	r1, [r2], #1281	; 0x501
    4f08:	30df0000 	sbcscc	r0, pc, r0
    4f0c:	30db0000 	sbcscc	r0, fp, r0
    4f10:	b01a0000 	andslt	r0, sl, r0
    4f14:	1b000004 	blne	4f2c <__code_start__-0x30d4>
    4f18:	000004ca 	andeq	r0, r0, sl, asr #9
    4f1c:	0004d61b 	andeq	sp, r4, fp, lsl r6
    4f20:	04e01b00 	strbteq	r1, [r0], #2816	; 0xb00
    4f24:	a5180000 	ldrge	r0, [r8, #-0]
    4f28:	2c000004 	stccs	0, cr0, [r0], {4}
    4f2c:	000000a4 	andeq	r0, r0, r4, lsr #1
    4f30:	000004d0 	ldrdeq	r0, [r0], -r0	; <UNPREDICTABLE>
    4f34:	19062801 	stmdbne	r6, {r0, fp, sp}
    4f38:	000004be 			; <UNDEFINED> instruction: 0x000004be
    4f3c:	04b21501 	ldrteq	r1, [r2], #1281	; 0x501
    4f40:	31040000 	mrscc	r0, (UNDEF: 4)
    4f44:	31000000 	mrscc	r0, (UNDEF: 0)
    4f48:	d01a0000 	andsle	r0, sl, r0
    4f4c:	1c000004 	stcne	0, cr0, [r0], {4}
    4f50:	000004ca 	andeq	r0, r0, sl, asr #9
    4f54:	00003129 	andeq	r3, r0, r9, lsr #2
    4f58:	00003125 	andeq	r3, r0, r5, lsr #2
    4f5c:	0004d61c 	andeq	sp, r4, ip, lsl r6
    4f60:	00317500 	eorseq	r7, r1, r0, lsl #10
    4f64:	00316f00 	eorseq	r6, r1, r0, lsl #30
    4f68:	04e01c00 	strbteq	r1, [r0], #3072	; 0xc00
    4f6c:	31cb0000 	biccc	r0, fp, r0
    4f70:	31c30000 	biccc	r0, r3, r0
    4f74:	581d0000 	ldmdapl	sp, {}	; <UNPREDICTABLE>
    4f78:	5e0000a4 	cdppl	0, 0, cr0, cr0, cr4, {5}
    4f7c:	6d000006 	stcvs	0, cr0, [r0, #-24]	; 0xffffffe8
    4f80:	12000004 	andne	r0, r0, #4, 0
    4f84:	75025001 	strvc	r5, [r2, #-1]
    4f88:	78160000 	ldmdavc	r6, {}	; <UNPREDICTABLE>
    4f8c:	6a0000a4 	bvs	5224 <__code_start__-0x2ddc>
    4f90:	12000006 	andne	r0, r0, #6, 0
    4f94:	f3255001 	vhadd.u32	d5, d5, d1
    4f98:	2cf75001 	ldclcs	0, cr5, [r7], #4
    4f9c:	25f425f7 	ldrbcs	r2, [r4, #1527]!	; 0x5f7
    4fa0:	cccccd08 	stclgt	13, cr12, [ip], {8}
    4fa4:	000000cc 	andeq	r0, r0, ip, asr #1
    4fa8:	20081e00 	andcs	r1, r8, r0, lsl #28
    4fac:	f72525f7 			; <UNDEFINED> instruction: 0xf72525f7
    4fb0:	3300f72c 	movwcc	pc, #1836	; 0x72c	; <UNPREDICTABLE>
    4fb4:	80802325 	addhi	r2, r0, r5, lsr #6
    4fb8:	243240a0 	ldrtcs	r4, [r2], #-160	; 0xffffff60
    4fbc:	00000000 	andeq	r0, r0, r0
    4fc0:	f31e0000 	vhadd.u16	d0, d14, d0
    4fc4:	0100000a 	tsteq	r0, sl
    4fc8:	eb010628 	bl	46870 <__bss_end__+0x3b4e0>
    4fcc:	1f000004 	svcne	0x00000004
    4fd0:	006e6970 	rsbeq	r6, lr, r0, ror r9
    4fd4:	2c212801 	stccs	8, cr2, [r1], #-4
    4fd8:	20000000 	andcs	r0, r0, r0
    4fdc:	000001a6 	andeq	r0, r0, r6, lsr #3
    4fe0:	0f322801 	svceq	0x00322801
    4fe4:	21000001 	tstcs	r0, r1
    4fe8:	0066666f 	rsbeq	r6, r6, pc, ror #12
    4fec:	2c0e2d01 	stccs	13, cr2, [lr], {1}
    4ff0:	21000000 	mrscs	r0, (UNDEF: 0)
    4ff4:	2e010067 	cdpcs	0, 0, cr0, cr1, cr7, {3}
    4ff8:	00002c0e 	andeq	r2, r0, lr, lsl #24
    4ffc:	00762100 	rsbseq	r2, r6, r0, lsl #2
    5000:	2c0e3001 	stccs	0, cr3, [lr], {1}
    5004:	00000000 	andeq	r0, r0, r0
    5008:	000c0022 	andeq	r0, ip, r2, lsr #32
    500c:	18b10200 	ldmne	r1!, {r9}
    5010:	00000069 	andeq	r0, r0, r9, rrx
    5014:	00050703 	andeq	r0, r5, r3, lsl #14
    5018:	00781f00 	rsbseq	r1, r8, r0, lsl #30
    501c:	692bb102 	stmdbvs	fp!, {r1, r8, ip, sp, pc}
    5020:	00000000 	andeq	r0, r0, r0
    5024:	0004a523 	andeq	sl, r4, r3, lsr #10
    5028:	00a3c400 	adceq	ip, r3, r0, lsl #8
    502c:	00006000 	andeq	r6, r0, r0
    5030:	e49c0100 	ldr	r0, [ip], #256	; 0x100
    5034:	15000005 	strne	r0, [r0, #-5]
    5038:	000004b2 			; <UNDEFINED> instruction: 0x000004b2
    503c:	0000320a 	andeq	r3, r0, sl, lsl #4
    5040:	00003206 	andeq	r3, r0, r6, lsl #4
    5044:	0004be15 	andeq	fp, r4, r5, lsl lr
    5048:	00322f00 	eorseq	r2, r2, r0, lsl #30
    504c:	00322b00 	eorseq	r2, r2, r0, lsl #22
    5050:	04ca1b00 	strbeq	r1, [sl], #2816	; 0xb00
    5054:	d61b0000 	ldrle	r0, [fp], -r0
    5058:	1b000004 	blne	5070 <__code_start__-0x2f90>
    505c:	000004e0 	andeq	r0, r0, r0, ror #9
    5060:	0004a518 	andeq	sl, r4, r8, lsl r5
    5064:	00a3cc00 	adceq	ip, r3, r0, lsl #24
    5068:	04900000 	ldreq	r0, [r0], #0
    506c:	28010000 	stmdacs	r1, {}	; <UNPREDICTABLE>
    5070:	04be1506 	ldrteq	r1, [lr], #1286	; 0x506
    5074:	32540000 	subscc	r0, r4, #0, 0
    5078:	32500000 	subscc	r0, r0, #0, 0
    507c:	b2150000 	andslt	r0, r5, #0, 0
    5080:	79000004 	stmdbvc	r0, {r2}
    5084:	75000032 	strvc	r0, [r0, #-50]	; 0xffffffce
    5088:	1a000032 	bne	5158 <__code_start__-0x2ea8>
    508c:	00000490 	muleq	r0, r0, r4
    5090:	0004ca1c 	andeq	ip, r4, ip, lsl sl
    5094:	00329e00 	eorseq	r9, r2, r0, lsl #28
    5098:	00329a00 	eorseq	r9, r2, r0, lsl #20
    509c:	04d61c00 	ldrbeq	r1, [r6], #3072	; 0xc00
    50a0:	32ea0000 	rsccc	r0, sl, #0, 0
    50a4:	32e40000 	rsccc	r0, r4, #0, 0
    50a8:	e01c0000 	ands	r0, ip, r0
    50ac:	40000004 	andmi	r0, r0, r4
    50b0:	38000033 	stmdacc	r0, {r0, r1, r4, r5}
    50b4:	1d000033 	stcne	0, cr0, [r0, #-204]	; 0xffffff34
    50b8:	0000a404 	andeq	sl, r0, r4, lsl #8
    50bc:	0000065e 	andeq	r0, r0, lr, asr r6
    50c0:	000005ae 	andeq	r0, r0, lr, lsr #11
    50c4:	02500112 	subseq	r0, r0, #-2147483644	; 0x80000004
    50c8:	16000076 			; <UNDEFINED> instruction: 0x16000076
    50cc:	0000a420 	andeq	sl, r0, r0, lsr #8
    50d0:	0000066a 	andeq	r0, r0, sl, ror #12
    50d4:	25500112 	ldrbcs	r0, [r0, #-274]	; 0xfffffeee
    50d8:	f75001f3 			; <UNDEFINED> instruction: 0xf75001f3
    50dc:	f425f72c 	vld1.8	{d15}, [r5 :128], ip
    50e0:	cccd0825 	stclgt	8, cr0, [sp], {37}	; 0x25
    50e4:	0000cccc 	andeq	ip, r0, ip, asr #25
    50e8:	081e0000 	ldmdaeq	lr, {}	; <UNPREDICTABLE>
    50ec:	2525f720 	strcs	pc, [r5, #-1824]!	; 0xfffff8e0
    50f0:	00f72cf7 	ldrshteq	r2, [r7], #199	; 0xc7
    50f4:	80232533 	eorhi	r2, r3, r3, lsr r5
    50f8:	3240a080 	subcc	sl, r0, #128, 0	; 0x80
    50fc:	00000024 	andeq	r0, r0, r4, lsr #32
    5100:	038d2300 	orreq	r2, sp, #0, 6
    5104:	a47c0000 	ldrbtge	r0, [ip], #-0
    5108:	00180000 	andseq	r0, r8, r0
    510c:	9c010000 	stcls	0, cr0, [r1], {-0}
    5110:	00000621 	andeq	r0, r0, r1, lsr #12
    5114:	00039a15 	andeq	r9, r3, r5, lsl sl
    5118:	00339600 	eorseq	r9, r3, r0, lsl #12
    511c:	00339000 	eorseq	r9, r3, r0
    5120:	a4901600 	ldrge	r1, [r0], #1536	; 0x600
    5124:	066a0000 	strbteq	r0, [sl], -r0
    5128:	01120000 	tsteq	r2, r0
    512c:	1c0c0550 	cfstr32ne	mvfx0, [ip], {80}	; 0x50
    5130:	12202000 	eorne	r2, r0, #0, 0
    5134:	31055101 	tstcc	r5, r1, lsl #2
    5138:	245001f3 	ldrbcs	r0, [r0], #-499	; 0xfffffe0d
    513c:	73230000 			; <UNDEFINED> instruction: 0x73230000
    5140:	94000003 	strls	r0, [r0], #-3
    5144:	180000a4 	stmdane	r0, {r2, r5, r7}
    5148:	01000000 	mrseq	r0, (UNDEF: 0)
    514c:	00065e9c 	muleq	r6, ip, lr
    5150:	03801500 	orreq	r1, r0, #0, 10
    5154:	33c80000 	biccc	r0, r8, #0, 0
    5158:	33c20000 	biccc	r0, r2, #0, 0
    515c:	a8160000 	ldmdage	r6, {}	; <UNPREDICTABLE>
    5160:	6a0000a4 	bvs	53f8 <__code_start__-0x2c08>
    5164:	12000006 	andne	r0, r0, #6, 0
    5168:	0c055001 	stceq	0, cr5, [r5], {1}
    516c:	20200028 	eorcs	r0, r0, r8, lsr #32
    5170:	05510112 	ldrbeq	r0, [r1, #-274]	; 0xfffffeee
    5174:	5001f331 	andpl	pc, r1, r1, lsr r3	; <UNPREDICTABLE>
    5178:	24000024 	strcs	r0, [r0], #-36	; 0xffffffdc
    517c:	000008c8 	andeq	r0, r0, r8, asr #17
    5180:	000008c8 	andeq	r0, r0, r8, asr #17
    5184:	240ac202 	strcs	ip, [sl], #-514	; 0xfffffdfe
    5188:	00000834 	andeq	r0, r0, r4, lsr r8
    518c:	00000834 	andeq	r0, r0, r4, lsr r8
    5190:	0006ad02 	andeq	sl, r6, r2, lsl #26
    5194:	00000149 	andeq	r0, r0, r9, asr #2
    5198:	1bbb0004 	blne	feec51b0 <__bss_end__+0xfeeb9e20>
    519c:	01040000 	mrseq	r0, (UNDEF: 4)
    51a0:	00000514 	andeq	r0, r0, r4, lsl r5
    51a4:	000c920c 	andeq	r9, ip, ip, lsl #4
    51a8:	0005da00 	andeq	sp, r5, r0, lsl #20
    51ac:	00a55c00 	adceq	r5, r5, r0, lsl #24
    51b0:	00003c00 	andeq	r3, r0, r0, lsl #24
    51b4:	00284900 	eoreq	r4, r8, r0, lsl #18
    51b8:	05040200 	streq	r0, [r4, #-512]	; 0xfffffe00
    51bc:	00746e69 	rsbseq	r6, r4, r9, ror #28
    51c0:	cd070403 	cfstrsgt	mvf0, [r7, #-12]
    51c4:	03000001 	movweq	r0, #1
    51c8:	00450601 	subeq	r0, r5, r1, lsl #12
    51cc:	02030000 	andeq	r0, r3, #0, 0
    51d0:	0001fb05 	andeq	pc, r1, r5, lsl #22
    51d4:	05040300 	streq	r0, [r4, #-768]	; 0xfffffd00
    51d8:	000001df 	ldrdeq	r0, [r0], -pc	; <UNPREDICTABLE>
    51dc:	da050803 	ble	1471f0 <__bss_end__+0x13be60>
    51e0:	03000001 	movweq	r0, #1
    51e4:	00430801 	subeq	r0, r3, r1, lsl #16
    51e8:	02030000 	andeq	r0, r3, #0, 0
    51ec:	00007d07 	andeq	r7, r0, r7, lsl #26
    51f0:	07040300 	streq	r0, [r4, -r0, lsl #6]
    51f4:	000001c8 	andeq	r0, r0, r8, asr #3
    51f8:	c3070803 	movwgt	r0, #30723	; 0x7803
    51fc:	04000001 	streq	r0, [r0], #-1
    5200:	00000025 	andeq	r0, r0, r5, lsr #32
    5204:	0000007a 	andeq	r0, r0, sl, ror r0
    5208:	00002505 	andeq	r2, r0, r5, lsl #10
    520c:	e8060000 	stmda	r6, {}	; <UNPREDICTABLE>
    5210:	02000001 	andeq	r0, r0, #1, 0
    5214:	00860e1c 	addeq	r0, r6, ip, lsl lr
    5218:	04070000 	streq	r0, [r7], #-0
    521c:	0000006b 	andeq	r0, r0, fp, rrx
    5220:	00002504 	andeq	r2, r0, r4, lsl #10
    5224:	00009b00 	andeq	r9, r0, r0, lsl #22
    5228:	009b0500 	addseq	r0, fp, r0, lsl #10
    522c:	07000000 	streq	r0, [r0, -r0]
    5230:	0000a804 	andeq	sl, r0, r4, lsl #16
    5234:	08010300 	stmdaeq	r1, {r8, r9}
    5238:	0000004c 	andeq	r0, r0, ip, asr #32
    523c:	0000a108 	andeq	sl, r0, r8, lsl #2
    5240:	067a0600 	ldrbteq	r0, [sl], -r0, lsl #12
    5244:	21020000 	mrscs	r0, (UNDEF: 2)
    5248:	0000b90e 	andeq	fp, r0, lr, lsl #18
    524c:	8c040700 	stchi	7, cr0, [r4], {-0}
    5250:	09000000 	stmdbeq	r0, {}	; <UNPREDICTABLE>
    5254:	0000007a 	andeq	r0, r0, sl, ror r0
    5258:	05070601 	streq	r0, [r7, #-1537]	; 0xfffff9ff
    525c:	00af6403 	adceq	r6, pc, r3, lsl #8
    5260:	0c850a00 	vstmiaeq	r5, {s0-s-1}
    5264:	0b010000 	bleq	4526c <__bss_end__+0x39edc>
    5268:	00a58806 	adceq	r8, r5, r6, lsl #16
    526c:	00001000 	andeq	r1, r0, r0
    5270:	f19c0100 			; <UNDEFINED> instruction: 0xf19c0100
    5274:	0b000000 	bleq	527c <__code_start__-0x2d84>
    5278:	01007066 	tsteq	r0, r6, rrx
    527c:	0086190b 	addeq	r1, r6, fp, lsl #18
    5280:	50010000 	andpl	r0, r1, r0
    5284:	0bc20c00 	bleq	ff08828c <__bss_end__+0xff07cefc>
    5288:	08010000 	stmdaeq	r1, {}	; <UNPREDICTABLE>
    528c:	00a57006 	adceq	r7, r5, r6
    5290:	00001800 	andeq	r1, r0, r0, lsl #16
    5294:	0d9c0100 	ldfeqs	f0, [ip]
    5298:	00000c74 	andeq	r0, r0, r4, ror ip
    529c:	250c0301 	strcs	r0, [ip, #-769]	; 0xfffffcff
    52a0:	5c000000 	stcpl	0, cr0, [r0], {-0}
    52a4:	140000a5 	strne	r0, [r0], #-165	; 0xffffff5b
    52a8:	01000000 	mrseq	r0, (UNDEF: 0)
    52ac:	0001409c 	muleq	r1, ip, r0
    52b0:	00630e00 	rsbeq	r0, r3, r0, lsl #28
    52b4:	25210301 	strcs	r0, [r1, #-769]!	; 0xfffffcff
    52b8:	f8000000 			; <UNDEFINED> instruction: 0xf8000000
    52bc:	f4000033 	vst4.8	{d0-d3}, [r0 :256], r3
    52c0:	0f000033 	svceq	0x00000033
    52c4:	0000a568 	andeq	sl, r0, r8, ror #10
    52c8:	00000140 	andeq	r0, r0, r0, asr #2
    52cc:	02500110 	subseq	r0, r0, #4
    52d0:	00000074 	andeq	r0, r0, r4, ror r0
    52d4:	000ad911 	andeq	sp, sl, r1, lsl r9
    52d8:	000ad900 	andeq	sp, sl, r0, lsl #18
    52dc:	06420200 	strbeq	r0, [r2], -r0, lsl #4
    52e0:	00013700 	andeq	r3, r1, r0, lsl #14
    52e4:	ca000400 	bgt	62ec <__code_start__-0x1d14>
    52e8:	0400001c 	streq	r0, [r0], #-28	; 0xffffffe4
    52ec:	00051401 	andeq	r1, r5, r1, lsl #8
    52f0:	0ca30c00 	stceq	12, cr0, [r3]
    52f4:	05da0000 	ldrbeq	r0, [sl]
    52f8:	a5980000 	ldrge	r0, [r8]
    52fc:	002c0000 	eoreq	r0, ip, r0
    5300:	28eb0000 	stmiacs	fp!, {}^	; <UNPREDICTABLE>
    5304:	04020000 	streq	r0, [r2], #-0
    5308:	746e6905 	strbtvc	r6, [lr], #-2309	; 0xfffff6fb
    530c:	07040300 	streq	r0, [r4, -r0, lsl #6]
    5310:	000001cd 	andeq	r0, r0, sp, asr #3
    5314:	45060103 	strmi	r0, [r6, #-259]	; 0xfffffefd
    5318:	03000000 	movweq	r0, #0
    531c:	01fb0502 	mvnseq	r0, r2, lsl #10
    5320:	04030000 	streq	r0, [r3], #-0
    5324:	0001df05 	andeq	sp, r1, r5, lsl #30
    5328:	05080300 	streq	r0, [r8, #-768]	; 0xfffffd00
    532c:	000001da 	ldrdeq	r0, [r0], -sl
    5330:	43080103 	movwmi	r0, #33027	; 0x8103
    5334:	03000000 	movweq	r0, #0
    5338:	007d0702 	rsbseq	r0, sp, r2, lsl #14
    533c:	04030000 	streq	r0, [r3], #-0
    5340:	0001c807 	andeq	ip, r1, r7, lsl #16
    5344:	07080300 	streq	r0, [r8, -r0, lsl #6]
    5348:	000001c3 	andeq	r0, r0, r3, asr #3
    534c:	00002504 	andeq	r2, r0, r4, lsl #10
    5350:	00007a00 	andeq	r7, r0, r0, lsl #20
    5354:	00250500 	eoreq	r0, r5, r0, lsl #10
    5358:	06000000 	streq	r0, [r0], -r0
    535c:	000001e8 	andeq	r0, r0, r8, ror #3
    5360:	860e1c02 	strhi	r1, [lr], -r2, lsl #24
    5364:	07000000 	streq	r0, [r0, -r0]
    5368:	00006b04 	andeq	r6, r0, r4, lsl #22
    536c:	00250400 	eoreq	r0, r5, r0, lsl #8
    5370:	009b0000 	addseq	r0, fp, r0
    5374:	9b050000 	blls	14537c <__bss_end__+0x139fec>
    5378:	00000000 	andeq	r0, r0, r0
    537c:	00a80407 	adceq	r0, r8, r7, lsl #8
    5380:	01030000 	mrseq	r0, (UNDEF: 3)
    5384:	00004c08 	andeq	r4, r0, r8, lsl #24
    5388:	00a10800 	adceq	r0, r1, r0, lsl #16
    538c:	7a060000 	bvc	185394 <__bss_end__+0x17a004>
    5390:	02000006 	andeq	r0, r0, #6, 0
    5394:	00b90e21 	adcseq	r0, r9, r1, lsr #28
    5398:	04070000 	streq	r0, [r7], #-0
    539c:	0000008c 	andeq	r0, r0, ip, lsl #1
    53a0:	00072709 	andeq	r2, r7, r9, lsl #14
    53a4:	07040100 	streq	r0, [r4, -r0, lsl #2]
    53a8:	00000134 	andeq	r0, r0, r4, lsr r1
    53ac:	0000a598 	muleq	r0, r8, r5
    53b0:	0000002c 	andeq	r0, r0, ip, lsr #32
    53b4:	01349c01 	teqeq	r4, r1, lsl #24
    53b8:	b30a0000 	movwlt	r0, #40960	; 0xa000
    53bc:	0100000c 	tsteq	r0, ip
    53c0:	01341504 	teqeq	r4, r4, lsl #10
    53c4:	50010000 	andpl	r0, r1, r0
    53c8:	6372730b 	cmnvs	r2, #738197504	; 0x2c000000
    53cc:	27040100 	strcs	r0, [r4, -r0, lsl #2]
    53d0:	0000009b 	muleq	r0, fp, r0
    53d4:	0000341a 	andeq	r3, r0, sl, lsl r4
    53d8:	00003416 	andeq	r3, r0, r6, lsl r4
    53dc:	0031730c 	eorseq	r7, r1, ip, lsl #6
    53e0:	340b0501 	strcc	r0, [fp], #-1281	; 0xfffffaff
    53e4:	49000001 	stmdbmi	r0, {r0}
    53e8:	3b000034 	blcc	54c0 <__code_start__-0x2b40>
    53ec:	0c000034 	stceq	0, cr0, [r0], {52}	; 0x34
    53f0:	01003273 	tsteq	r0, r3, ror r2
    53f4:	009b1106 	addseq	r1, fp, r6, lsl #2
    53f8:	34a80000 	strtcc	r0, [r8], #0
    53fc:	34a20000 	strtcc	r0, [r2], #0
    5400:	630c0000 	movwvs	r0, #49152	; 0xc000
    5404:	0a070100 	beq	1c580c <__bss_end__+0x1ba47c>
    5408:	000000a1 	andeq	r0, r0, r1, lsr #1
    540c:	000034d9 	ldrdeq	r3, [r0], -r9
    5410:	000034d3 	ldrdeq	r3, [r0], -r3	; <UNPREDICTABLE>
    5414:	a1040700 	tstge	r4, r0, lsl #14
    5418:	00000000 	andeq	r0, r0, r0
    541c:	000000f7 	strdeq	r0, [r0], -r7
    5420:	1d800004 	stcne	0, cr0, [r0, #16]
    5424:	01040000 	mrseq	r0, (UNDEF: 4)
    5428:	00000514 	andeq	r0, r0, r4, lsl r5
    542c:	000cb80c 	andeq	fp, ip, ip, lsl #16
    5430:	0005da00 	andeq	sp, r5, r0, lsl #20
    5434:	00a5c400 	adceq	ip, r5, r0, lsl #8
    5438:	00004400 	andeq	r4, r0, r0, lsl #8
    543c:	0029d100 	eoreq	sp, r9, r0, lsl #2
    5440:	05040200 	streq	r0, [r4, #-512]	; 0xfffffe00
    5444:	00746e69 	rsbseq	r6, r4, r9, ror #28
    5448:	cd070403 	cfstrsgt	mvf0, [r7, #-12]
    544c:	03000001 	movweq	r0, #1
    5450:	00450601 	subeq	r0, r5, r1, lsl #12
    5454:	02030000 	andeq	r0, r3, #0, 0
    5458:	0001fb05 	andeq	pc, r1, r5, lsl #22
    545c:	05040300 	streq	r0, [r4, #-768]	; 0xfffffd00
    5460:	000001df 	ldrdeq	r0, [r0], -pc	; <UNPREDICTABLE>
    5464:	da050803 	ble	147478 <__bss_end__+0x13c0e8>
    5468:	03000001 	movweq	r0, #1
    546c:	00430801 	subeq	r0, r3, r1, lsl #16
    5470:	02030000 	andeq	r0, r3, #0, 0
    5474:	00007d07 	andeq	r7, r0, r7, lsl #26
    5478:	07040300 	streq	r0, [r4, -r0, lsl #6]
    547c:	000001c8 	andeq	r0, r0, r8, asr #3
    5480:	c3070803 	movwgt	r0, #30723	; 0x7803
    5484:	04000001 	streq	r0, [r0], #-1
    5488:	00000025 	andeq	r0, r0, r5, lsr #32
    548c:	0000007a 	andeq	r0, r0, sl, ror r0
    5490:	00002505 	andeq	r2, r0, r5, lsl #10
    5494:	e8060000 	stmda	r6, {}	; <UNPREDICTABLE>
    5498:	02000001 	andeq	r0, r0, #1, 0
    549c:	00860e1c 	addeq	r0, r6, ip, lsl lr
    54a0:	04070000 	streq	r0, [r7], #-0
    54a4:	0000006b 	andeq	r0, r0, fp, rrx
    54a8:	00002504 	andeq	r2, r0, r4, lsl #10
    54ac:	00009b00 	andeq	r9, r0, r0, lsl #22
    54b0:	009b0500 	addseq	r0, fp, r0, lsl #10
    54b4:	07000000 	streq	r0, [r0, -r0]
    54b8:	0000a804 	andeq	sl, r0, r4, lsl #16
    54bc:	08010300 	stmdaeq	r1, {r8, r9}
    54c0:	0000004c 	andeq	r0, r0, ip, asr #32
    54c4:	0000a108 	andeq	sl, r0, r8, lsl #2
    54c8:	067a0600 	ldrbteq	r0, [sl], -r0, lsl #12
    54cc:	21020000 	mrscs	r0, (UNDEF: 2)
    54d0:	0000b90e 	andeq	fp, r0, lr, lsl #18
    54d4:	8c040700 	stchi	7, cr0, [r4], {-0}
    54d8:	09000000 	stmdbeq	r0, {}	; <UNPREDICTABLE>
    54dc:	00000755 	andeq	r0, r0, r5, asr r7
    54e0:	25050301 	strcs	r0, [r5, #-769]	; 0xfffffcff
    54e4:	c4000000 	strgt	r0, [r0], #-0
    54e8:	440000a5 	strmi	r0, [r0], #-165	; 0xffffff5b
    54ec:	01000000 	mrseq	r0, (UNDEF: 0)
    54f0:	00610a9c 	mlseq	r1, ip, sl, r0
    54f4:	9b180301 	blls	606100 <__bss_end__+0x5fad70>
    54f8:	10000000 	andne	r0, r0, r0
    54fc:	04000035 	streq	r0, [r0], #-53	; 0xffffffcb
    5500:	0a000035 	beq	55dc <__code_start__-0x2a24>
    5504:	03010062 	movweq	r0, #4194	; 0x1062
    5508:	00009b27 	andeq	r9, r0, r7, lsr #22
    550c:	00356400 	eorseq	r6, r5, r0, lsl #8
    5510:	00355e00 	eorseq	r5, r5, r0, lsl #28
    5514:	0f000000 	svceq	0x00000000
    5518:	04000001 	streq	r0, [r0], #-1
    551c:	001e0f00 	andseq	r0, lr, r0, lsl #30
    5520:	14010400 	strne	r0, [r1], #-1024	; 0xfffffc00
    5524:	0c000005 	stceq	0, cr0, [r0], {5}
    5528:	00000cc8 	andeq	r0, r0, r8, asr #25
    552c:	000005da 	ldrdeq	r0, [r0], -sl
    5530:	0000a608 	andeq	sl, r0, r8, lsl #12
    5534:	00000018 	andeq	r0, r0, r8, lsl r0
    5538:	00002a87 	andeq	r2, r0, r7, lsl #21
    553c:	69050402 	stmdbvs	r5, {r1, sl}
    5540:	0300746e 	movweq	r7, #1134	; 0x46e
    5544:	01cd0704 	biceq	r0, sp, r4, lsl #14
    5548:	01030000 	mrseq	r0, (UNDEF: 3)
    554c:	00004506 	andeq	r4, r0, r6, lsl #10
    5550:	05020300 	streq	r0, [r2, #-768]	; 0xfffffd00
    5554:	000001fb 	strdeq	r0, [r0], -fp
    5558:	df050403 	svcle	0x00050403
    555c:	03000001 	movweq	r0, #1
    5560:	01da0508 	bicseq	r0, sl, r8, lsl #10
    5564:	01030000 	mrseq	r0, (UNDEF: 3)
    5568:	00004308 	andeq	r4, r0, r8, lsl #6
    556c:	07020300 	streq	r0, [r2, -r0, lsl #6]
    5570:	0000007d 	andeq	r0, r0, sp, ror r0
    5574:	c8070403 	stmdagt	r7, {r0, r1, sl}
    5578:	03000001 	movweq	r0, #1
    557c:	01c30708 	biceq	r0, r3, r8, lsl #14
    5580:	25040000 	strcs	r0, [r4, #-0]
    5584:	7a000000 	bvc	558c <__code_start__-0x2a74>
    5588:	05000000 	streq	r0, [r0, #-0]
    558c:	00000025 	andeq	r0, r0, r5, lsr #32
    5590:	01e80600 	mvneq	r0, r0, lsl #12
    5594:	1c020000 	stcne	0, cr0, [r2], {-0}
    5598:	0000860e 	andeq	r8, r0, lr, lsl #12
    559c:	6b040700 	blvs	1071a4 <__bss_end__+0xfbe14>
    55a0:	04000000 	streq	r0, [r0], #-0
    55a4:	00000025 	andeq	r0, r0, r5, lsr #32
    55a8:	0000009b 	muleq	r0, fp, r0
    55ac:	00009b05 	andeq	r9, r0, r5, lsl #22
    55b0:	04070000 	streq	r0, [r7], #-0
    55b4:	000000a8 	andeq	r0, r0, r8, lsr #1
    55b8:	4c080103 	stfmis	f0, [r8], {3}
    55bc:	08000000 	stmdaeq	r0, {}	; <UNPREDICTABLE>
    55c0:	000000a1 	andeq	r0, r0, r1, lsr #1
    55c4:	00067a06 	andeq	r7, r6, r6, lsl #20
    55c8:	0e210200 	cdpeq	2, 2, cr0, cr1, cr0, {0}
    55cc:	000000b9 	strheq	r0, [r0], -r9
    55d0:	008c0407 	addeq	r0, ip, r7, lsl #8
    55d4:	2e090000 	cdpcs	0, 0, cr0, cr9, cr0, {0}
    55d8:	01000007 	tsteq	r0, r7
    55dc:	010c0703 	tsteq	ip, r3, lsl #14
    55e0:	a6080000 	strge	r0, [r8], -r0
    55e4:	00180000 	andseq	r0, r8, r0
    55e8:	9c010000 	stcls	0, cr0, [r1], {-0}
    55ec:	0000010c 	andeq	r0, r0, ip, lsl #2
    55f0:	0031730a 	eorseq	r7, r1, sl, lsl #6
    55f4:	0c150301 	ldceq	3, cr0, [r5], {1}
    55f8:	01000001 	tsteq	r0, r1
    55fc:	32730b50 	rsbscc	r0, r3, #80, 22	; 0x14000
    5600:	26030100 	strcs	r0, [r3], -r0, lsl #2
    5604:	0000009b 	muleq	r0, fp, r0
    5608:	00003593 	muleq	r0, r3, r5
    560c:	0000358d 	andeq	r3, r0, sp, lsl #11
    5610:	0100730c 	tsteq	r0, ip, lsl #6
    5614:	010c1404 	tsteq	ip, r4, lsl #8
    5618:	35c00000 	strbcc	r0, [r0]
    561c:	35be0000 	ldrcc	r0, [lr, #0]!
    5620:	07000000 	streq	r0, [r0, -r0]
    5624:	0000a104 	andeq	sl, r0, r4, lsl #2
    5628:	014e0000 	mrseq	r0, (UNDEF: 78)
    562c:	00040000 	andeq	r0, r4, r0
    5630:	00001ec5 	andeq	r1, r0, r5, asr #29
    5634:	05140104 	ldreq	r0, [r4, #-260]	; 0xfffffefc
    5638:	d80c0000 	stmdale	ip, {}	; <UNPREDICTABLE>
    563c:	da00000c 	ble	5674 <__code_start__-0x298c>
    5640:	20000005 	andcs	r0, r0, r5
    5644:	300000a6 	andcc	r0, r0, r6, lsr #1
    5648:	28000000 	stmdacs	r0, {}	; <UNPREDICTABLE>
    564c:	0200002b 	andeq	r0, r0, #43, 0	; 0x2b
    5650:	6e690504 	cdpvs	5, 6, cr0, cr9, cr4, {0}
    5654:	1d030074 	stcne	0, cr0, [r3, #-464]	; 0xfffffe30
    5658:	03000006 	movweq	r0, #6
    565c:	003817d1 	ldrsbteq	r1, [r8], -r1
    5660:	04040000 	streq	r0, [r4], #-0
    5664:	0001cd07 	andeq	ip, r1, r7, lsl #26
    5668:	06010400 	streq	r0, [r1], -r0, lsl #8
    566c:	00000045 	andeq	r0, r0, r5, asr #32
    5670:	fb050204 	blx	145e8a <__bss_end__+0x13aafa>
    5674:	04000001 	streq	r0, [r0], #-1
    5678:	01df0504 	bicseq	r0, pc, r4, lsl #10
    567c:	08040000 	stmdaeq	r4, {}	; <UNPREDICTABLE>
    5680:	0001da05 	andeq	sp, r1, r5, lsl #20
    5684:	08010400 	stmdaeq	r1, {sl}
    5688:	00000043 	andeq	r0, r0, r3, asr #32
    568c:	00005b05 	andeq	r5, r0, r5, lsl #22
    5690:	07020400 	streq	r0, [r2, -r0, lsl #8]
    5694:	0000007d 	andeq	r0, r0, sp, ror r0
    5698:	c8070404 	stmdagt	r7, {r2, sl}
    569c:	04000001 	streq	r0, [r0], #-1
    56a0:	01c30708 	biceq	r0, r3, r8, lsl #14
    56a4:	25060000 	strcs	r0, [r6, #-0]
    56a8:	8b000000 	blhi	56b0 <__code_start__-0x2950>
    56ac:	07000000 	streq	r0, [r0, -r0]
    56b0:	00000025 	andeq	r0, r0, r5, lsr #32
    56b4:	01e80800 	mvneq	r0, r0, lsl #16
    56b8:	1c020000 	stcne	0, cr0, [r2], {-0}
    56bc:	0000970e 	andeq	r9, r0, lr, lsl #14
    56c0:	7c040900 			; <UNDEFINED> instruction: 0x7c040900
    56c4:	06000000 	streq	r0, [r0], -r0
    56c8:	00000025 	andeq	r0, r0, r5, lsr #32
    56cc:	000000ac 	andeq	r0, r0, ip, lsr #1
    56d0:	0000ac07 	andeq	sl, r0, r7, lsl #24
    56d4:	04090000 	streq	r0, [r9], #-0
    56d8:	000000b9 	strheq	r0, [r0], -r9
    56dc:	4c080104 	stfmis	f0, [r8], {4}
    56e0:	05000000 	streq	r0, [r0, #-0]
    56e4:	000000b2 	strheq	r0, [r0], -r2
    56e8:	00067a08 	andeq	r7, r6, r8, lsl #20
    56ec:	0e210200 	cdpeq	2, 2, cr0, cr1, cr0, {0}
    56f0:	000000ca 	andeq	r0, r0, sl, asr #1
    56f4:	009d0409 	addseq	r0, sp, r9, lsl #8
    56f8:	760a0000 	strvc	r0, [sl], -r0
    56fc:	01000007 	tsteq	r0, r7
    5700:	00250504 	eoreq	r0, r5, r4, lsl #10
    5704:	a6200000 	strtge	r0, [r0], -r0
    5708:	00300000 	eorseq	r0, r0, r0
    570c:	9c010000 	stcls	0, cr0, [r1], {-0}
    5710:	0000014b 	andeq	r0, r0, fp, asr #2
    5714:	31735f0b 	cmncc	r3, fp, lsl #30
    5718:	19040100 	stmdbne	r4, {r8}
    571c:	000000ac 	andeq	r0, r0, ip, lsr #1
    5720:	000035d7 	ldrdeq	r3, [r0], -r7
    5724:	000035d3 	ldrdeq	r3, [r0], -r3	; <UNPREDICTABLE>
    5728:	32735f0b 	rsbscc	r5, r3, #11, 30	; 0x2c
    572c:	2a040100 	bcs	105b34 <__bss_end__+0xfa7a4>
    5730:	000000ac 	andeq	r0, r0, ip, lsr #1
    5734:	000035fc 	strdeq	r3, [r0], -ip
    5738:	000035f8 	strdeq	r3, [r0], -r8
    573c:	01006e0b 	tsteq	r0, fp, lsl #28
    5740:	002c3604 	eoreq	r3, ip, r4, lsl #12
    5744:	36270000 	strtcc	r0, [r7], -r0
    5748:	361d0000 	ldrcc	r0, [sp], -r0
    574c:	730c0000 	movwvc	r0, #49152	; 0xc000
    5750:	05010031 	streq	r0, [r1, #-49]	; 0xffffffcf
    5754:	00014b1a 	andeq	r4, r1, sl, lsl fp
    5758:	00367e00 	eorseq	r7, r6, r0, lsl #28
    575c:	00367600 	eorseq	r7, r6, r0, lsl #12
    5760:	32730c00 	rsbscc	r0, r3, #0, 24
    5764:	2c050100 	stfcss	f0, [r5], {-0}
    5768:	0000014b 	andeq	r0, r0, fp, asr #2
    576c:	000036bc 			; <UNDEFINED> instruction: 0x000036bc
    5770:	000036b6 			; <UNDEFINED> instruction: 0x000036b6
    5774:	62040900 	andvs	r0, r4, #0, 18
    5778:	00000000 	andeq	r0, r0, r0
    577c:	000000ce 	andeq	r0, r0, lr, asr #1
    5780:	1f790004 	svcne	0x00790004
    5784:	01040000 	mrseq	r0, (UNDEF: 4)
    5788:	00000514 	andeq	r0, r0, r4, lsl r5
    578c:	000ce90c 	andeq	lr, ip, ip, lsl #18
    5790:	0005da00 	andeq	sp, r5, r0, lsl #20
    5794:	00a65000 	adceq	r5, r6, r0
    5798:	00000400 	andeq	r0, r0, r0, lsl #8
    579c:	002c2900 	eoreq	r2, ip, r0, lsl #18
    57a0:	05040200 	streq	r0, [r4, #-512]	; 0xfffffe00
    57a4:	00746e69 	rsbseq	r6, r4, r9, ror #28
    57a8:	cd070403 	cfstrsgt	mvf0, [r7, #-12]
    57ac:	03000001 	movweq	r0, #1
    57b0:	00450601 	subeq	r0, r5, r1, lsl #12
    57b4:	02030000 	andeq	r0, r3, #0, 0
    57b8:	0001fb05 	andeq	pc, r1, r5, lsl #22
    57bc:	05040300 	streq	r0, [r4, #-768]	; 0xfffffd00
    57c0:	000001df 	ldrdeq	r0, [r0], -pc	; <UNPREDICTABLE>
    57c4:	da050803 	ble	1477d8 <__bss_end__+0x13c448>
    57c8:	03000001 	movweq	r0, #1
    57cc:	00430801 	subeq	r0, r3, r1, lsl #16
    57d0:	02030000 	andeq	r0, r3, #0, 0
    57d4:	00007d07 	andeq	r7, r0, r7, lsl #26
    57d8:	07040300 	streq	r0, [r4, -r0, lsl #6]
    57dc:	000001c8 	andeq	r0, r0, r8, asr #3
    57e0:	c3070803 	movwgt	r0, #30723	; 0x7803
    57e4:	04000001 	streq	r0, [r0], #-1
    57e8:	00000025 	andeq	r0, r0, r5, lsr #32
    57ec:	0000007a 	andeq	r0, r0, sl, ror r0
    57f0:	00002505 	andeq	r2, r0, r5, lsl #10
    57f4:	e8060000 	stmda	r6, {}	; <UNPREDICTABLE>
    57f8:	02000001 	andeq	r0, r0, #1, 0
    57fc:	00860e1c 	addeq	r0, r6, ip, lsl lr
    5800:	04070000 	streq	r0, [r7], #-0
    5804:	0000006b 	andeq	r0, r0, fp, rrx
    5808:	00002504 	andeq	r2, r0, r4, lsl #10
    580c:	00009b00 	andeq	r9, r0, r0, lsl #22
    5810:	009b0500 	addseq	r0, fp, r0, lsl #10
    5814:	07000000 	streq	r0, [r0, -r0]
    5818:	0000a804 	andeq	sl, r0, r4, lsl #16
    581c:	08010300 	stmdaeq	r1, {r8, r9}
    5820:	0000004c 	andeq	r0, r0, ip, asr #32
    5824:	0000a108 	andeq	sl, r0, r8, lsl #2
    5828:	067a0600 	ldrbteq	r0, [sl], -r0, lsl #12
    582c:	21020000 	mrscs	r0, (UNDEF: 2)
    5830:	0000b90e 	andeq	fp, r0, lr, lsl #18
    5834:	8c040700 	stchi	7, cr0, [r4], {-0}
    5838:	09000000 	stmdbeq	r0, {}	; <UNPREDICTABLE>
    583c:	0000081d 	andeq	r0, r0, sp, lsl r8
    5840:	50060301 	andpl	r0, r6, r1, lsl #6
    5844:	040000a6 	streq	r0, [r0], #-166	; 0xffffff5a
    5848:	01000000 	mrseq	r0, (UNDEF: 0)
    584c:	Address 0x000000000000584c is out of bounds.


Disassembly of section .debug_abbrev:

00000000 <.debug_abbrev>:
       0:	25011101 	strcs	r1, [r1, #-257]	; 0xfffffeff
       4:	030b130e 	movweq	r1, #45838	; 0xb30e
       8:	110e1b0e 	tstne	lr, lr, lsl #22
       c:	10061201 	andne	r1, r6, r1, lsl #4
      10:	02000017 	andeq	r0, r0, #23, 0
      14:	0b0b0024 	bleq	2c00ac <__bss_end__+0x2b4d1c>
      18:	08030b3e 	stmdaeq	r3, {r1, r2, r3, r4, r5, r8, r9, fp}
      1c:	24030000 	strcs	r0, [r3], #-0
      20:	3e0b0b00 	vmlacc.f64	d0, d11, d0
      24:	000e030b 	andeq	r0, lr, fp, lsl #6
      28:	01150400 	tsteq	r5, r0, lsl #8
      2c:	13491927 	movtne	r1, #39207	; 0x9927
      30:	00001301 	andeq	r1, r0, r1, lsl #6
      34:	49000505 	stmdbmi	r0, {r0, r2, r8, sl}
      38:	06000013 			; <UNDEFINED> instruction: 0x06000013
      3c:	0e030034 	mcreq	0, 0, r0, cr3, cr4, {1}
      40:	0b3b0b3a 	bleq	ec2d30 <__bss_end__+0xeb79a0>
      44:	13490b39 	movtne	r0, #39737	; 0x9b39
      48:	193c193f 	ldmdbne	ip!, {r0, r1, r2, r3, r4, r5, r8, fp, ip}
      4c:	0f070000 	svceq	0x00070000
      50:	490b0b00 	stmdbmi	fp, {r8, r9, fp}
      54:	08000013 	stmdaeq	r0, {r0, r1, r4}
      58:	13490026 	movtne	r0, #36902	; 0x9026
      5c:	13090000 	movwne	r0, #36864	; 0x9000
      60:	3a0b0b01 	bcc	2c2c6c <__bss_end__+0x2b78dc>
      64:	390b3b0b 	stmdbcc	fp, {r0, r1, r3, r8, r9, fp, ip, sp}
      68:	0013010b 	andseq	r0, r3, fp, lsl #2
      6c:	000d0a00 	andeq	r0, sp, r0, lsl #20
      70:	0b3a0e03 	bleq	e83884 <__bss_end__+0xe784f4>
      74:	0b390b3b 	bleq	e42d68 <__bss_end__+0xe379d8>
      78:	0b381349 	bleq	e04da4 <__bss_end__+0xdf9a14>
      7c:	160b0000 	strne	r0, [fp], -r0
      80:	3a0e0300 	bcc	380c88 <__bss_end__+0x3758f8>
      84:	390b3b0b 	stmdbcc	fp, {r0, r1, r3, r8, r9, fp, ip, sp}
      88:	0013490b 	andseq	r4, r3, fp, lsl #18
      8c:	000f0c00 	andeq	r0, pc, r0, lsl #24
      90:	00000b0b 	andeq	r0, r0, fp, lsl #22
      94:	3f012e0d 	svccc	0x00012e0d
      98:	3a0e0319 	bcc	380d04 <__bss_end__+0x375974>
      9c:	390b3b0b 	stmdbcc	fp, {r0, r1, r3, r8, r9, fp, ip, sp}
      a0:	1119270b 	tstne	r9, fp, lsl #14
      a4:	40061201 	andmi	r1, r6, r1, lsl #4
      a8:	19429718 	stmdbne	r2, {r3, r4, r8, r9, sl, ip, pc}^
      ac:	00001301 	andeq	r1, r0, r1, lsl #6
      b0:	0300340e 	movweq	r3, #1038	; 0x40e
      b4:	3b0b3a08 	blcc	2ce8dc <__bss_end__+0x2c354c>
      b8:	490b390b 	stmdbmi	fp, {r0, r1, r3, r8, fp, ip, sp}
      bc:	b7170213 			; <UNDEFINED> instruction: 0xb7170213
      c0:	00001742 	andeq	r1, r0, r2, asr #14
      c4:	0300340f 	movweq	r3, #1039	; 0x40f
      c8:	3413490e 	ldrcc	r4, [r3], #-2318	; 0xfffff6f2
      cc:	00180219 	andseq	r0, r8, r9, lsl r2
      d0:	011d1000 	tsteq	sp, r0
      d4:	01521331 	cmpeq	r2, r1, lsr r3
      d8:	110b42b8 			; <UNDEFINED> instruction: 0x110b42b8
      dc:	58061201 	stmdapl	r6, {r0, r9, ip}
      e0:	570b590b 	strpl	r5, [fp, -fp, lsl #18]
      e4:	0013010b 	andseq	r0, r3, fp, lsl #2
      e8:	00051100 	andeq	r1, r5, r0, lsl #2
      ec:	17021331 	smladxne	r2, r1, r3, r1
      f0:	001742b7 			; <UNDEFINED> instruction: 0x001742b7
      f4:	82891200 	addhi	r1, r9, #0, 4
      f8:	01110101 	tsteq	r1, r1, lsl #2
      fc:	13011331 	movwne	r1, #4913	; 0x1331
     100:	8a130000 	bhi	4c0108 <__bss_end__+0x4b4d78>
     104:	02000182 	andeq	r0, r0, #-2147483616	; 0x80000020
     108:	18429118 	stmdane	r2, {r3, r4, r8, ip, pc}^
     10c:	89140000 	ldmdbhi	r4, {}	; <UNPREDICTABLE>
     110:	11000182 	smlabbne	r0, r2, r1, r0
     114:	00133101 	andseq	r3, r3, r1, lsl #2
     118:	01011500 	tsteq	r1, r0, lsl #10
     11c:	13011349 	movwne	r1, #4937	; 0x1349
     120:	21160000 	tstcs	r6, r0
     124:	2f134900 	svccs	0x00134900
     128:	1700000b 	strne	r0, [r0, -fp]
     12c:	0e03012e 	adfeqsp	f0, f3, #0.5
     130:	0b3b0b3a 	bleq	ec2e20 <__bss_end__+0xeb7a90>
     134:	19270b39 	stmdbne	r7!, {r0, r3, r4, r5, r8, r9, fp}
     138:	0b201349 	bleq	804e64 <__bss_end__+0x7f9ad4>
     13c:	00001301 	andeq	r1, r0, r1, lsl #6
     140:	03000518 	movweq	r0, #1304	; 0x518
     144:	3b0b3a0e 	blcc	2ce984 <__bss_end__+0x2c35f4>
     148:	490b390b 	stmdbmi	fp, {r0, r1, r3, r8, fp, ip, sp}
     14c:	19000013 	stmdbne	r0, {r0, r1, r4}
     150:	18020036 	stmdane	r2, {r1, r2, r4, r5}
     154:	2e1a0000 	cdpcs	0, 1, cr0, cr10, cr0, {0}
     158:	3c193f00 	ldccc	15, cr3, [r9], {-0}
     15c:	030e6e19 	movweq	r6, #60953	; 0xee19
     160:	3b0b3a0e 	blcc	2ce9a0 <__bss_end__+0x2c3610>
     164:	000b390b 	andeq	r3, fp, fp, lsl #18
     168:	11010000 	mrsne	r0, (UNDEF: 1)
     16c:	130e2501 	movwne	r2, #58625	; 0xe501
     170:	1b0e030b 	blne	380da4 <__bss_end__+0x375a14>
     174:	1201110e 	andne	r1, r1, #-2147483645	; 0x80000003
     178:	00171006 	andseq	r1, r7, r6
     17c:	00240200 	eoreq	r0, r4, r0, lsl #4
     180:	0b3e0b0b 	bleq	f82db4 <__bss_end__+0xf77a24>
     184:	00000803 	andeq	r0, r0, r3, lsl #16
     188:	0b002403 	bleq	919c <rpi_reset+0x14>
     18c:	030b3e0b 	movweq	r3, #48651	; 0xbe0b
     190:	0400000e 	streq	r0, [r0], #-14
     194:	0e030016 	mcreq	0, 0, r0, cr3, cr6, {0}
     198:	0b3b0b3a 	bleq	ec2e88 <__bss_end__+0xeb7af8>
     19c:	13490b39 	movtne	r0, #39737	; 0x9b39
     1a0:	15050000 	strne	r0, [r5, #-0]
     1a4:	49192701 	ldmdbmi	r9, {r0, r8, r9, sl, sp}
     1a8:	00130113 	andseq	r0, r3, r3, lsl r1
     1ac:	00050600 	andeq	r0, r5, r0, lsl #12
     1b0:	00001349 	andeq	r1, r0, r9, asr #6
     1b4:	03003407 	movweq	r3, #1031	; 0x407
     1b8:	3b0b3a0e 	blcc	2ce9f8 <__bss_end__+0x2c3668>
     1bc:	490b390b 	stmdbmi	fp, {r0, r1, r3, r8, fp, ip, sp}
     1c0:	3c193f13 	ldccc	15, cr3, [r9], {19}
     1c4:	08000019 	stmdaeq	r0, {r0, r3, r4}
     1c8:	0b0b000f 	bleq	2c020c <__bss_end__+0x2b4e7c>
     1cc:	00001349 	andeq	r1, r0, r9, asr #6
     1d0:	49002609 	stmdbmi	r0, {r0, r3, r9, sl, sp}
     1d4:	0a000013 	beq	228 <__code_start__-0x7dd8>
     1d8:	0b0b0113 	bleq	2c062c <__bss_end__+0x2b529c>
     1dc:	0b3b0b3a 	bleq	ec2ecc <__bss_end__+0xeb7b3c>
     1e0:	13010b39 	movwne	r0, #6969	; 0x1b39
     1e4:	0d0b0000 	stceq	0, cr0, [fp, #-0]
     1e8:	3a0e0300 	bcc	380df0 <__bss_end__+0x375a60>
     1ec:	390b3b0b 	stmdbcc	fp, {r0, r1, r3, r8, r9, fp, ip, sp}
     1f0:	3813490b 	ldmdacc	r3, {r0, r1, r3, r8, fp, lr}
     1f4:	0c00000b 	stceq	0, cr0, [r0], {11}
     1f8:	0b3e0104 	bleq	f80610 <__bss_end__+0xf75280>
     1fc:	13490b0b 	movtne	r0, #39691	; 0x9b0b
     200:	0b3b0b3a 	bleq	ec2ef0 <__bss_end__+0xeb7b60>
     204:	13010b39 	movwne	r0, #6969	; 0x1b39
     208:	280d0000 	stmdacs	sp, {}	; <UNPREDICTABLE>
     20c:	1c0e0300 	stcne	3, cr0, [lr], {-0}
     210:	0e00000b 	cdpeq	0, 0, cr0, cr0, cr11, {0}
     214:	0e030113 	mcreq	1, 0, r0, cr3, cr3, {0}
     218:	0b3a0b0b 	bleq	e82e4c <__bss_end__+0xe77abc>
     21c:	0b390b3b 	bleq	e42f10 <__bss_end__+0xe37b80>
     220:	00001301 	andeq	r1, r0, r1, lsl #6
     224:	03000d0f 	movweq	r0, #3343	; 0xd0f
     228:	3b0b3a08 	blcc	2cea50 <__bss_end__+0x2c36c0>
     22c:	490b390b 	stmdbmi	fp, {r0, r1, r3, r8, fp, ip, sp}
     230:	000b3813 	andeq	r3, fp, r3, lsl r8
     234:	01011000 	mrseq	r1, (UNDEF: 1)
     238:	13011349 	movwne	r1, #4937	; 0x1349
     23c:	21110000 	tstcs	r1, r0
     240:	2f134900 	svccs	0x00134900
     244:	1200000b 	andne	r0, r0, #11, 0
     248:	0b0b000f 	bleq	2c028c <__bss_end__+0x2b4efc>
     24c:	34130000 	ldrcc	r0, [r3], #-0
     250:	3a0e0300 	bcc	380e58 <__bss_end__+0x375ac8>
     254:	390b3b0b 	stmdbcc	fp, {r0, r1, r3, r8, r9, fp, ip, sp}
     258:	0213490b 	andseq	r4, r3, #180224	; 0x2c000
     25c:	14000018 	strne	r0, [r0], #-24	; 0xffffffe8
     260:	193f012e 	ldmdbne	pc!, {r1, r2, r3, r5, r8}	; <UNPREDICTABLE>
     264:	0b3a0e03 	bleq	e83a78 <__bss_end__+0xe786e8>
     268:	0b390b3b 	bleq	e42f5c <__bss_end__+0xe37bcc>
     26c:	13491927 	movtne	r1, #39207	; 0x9927
     270:	06120111 			; <UNDEFINED> instruction: 0x06120111
     274:	42971840 	addsmi	r1, r7, #64, 16	; 0x400000
     278:	00130119 	andseq	r0, r3, r9, lsl r1
     27c:	00051500 	andeq	r1, r5, r0, lsl #10
     280:	0b3a0e03 	bleq	e83a94 <__bss_end__+0xe78704>
     284:	0b390b3b 	bleq	e42f78 <__bss_end__+0xe37be8>
     288:	17021349 	strne	r1, [r2, -r9, asr #6]
     28c:	001742b7 			; <UNDEFINED> instruction: 0x001742b7
     290:	00051600 	andeq	r1, r5, r0, lsl #12
     294:	0b3a0803 	bleq	e822a8 <__bss_end__+0xe76f18>
     298:	0b390b3b 	bleq	e42f8c <__bss_end__+0xe37bfc>
     29c:	18021349 	stmdane	r2, {r0, r3, r6, r8, r9, ip}
     2a0:	34170000 	ldrcc	r0, [r7], #-0
     2a4:	3a080300 	bcc	200eac <__bss_end__+0x1f5b1c>
     2a8:	390b3b0b 	stmdbcc	fp, {r0, r1, r3, r8, r9, fp, ip, sp}
     2ac:	0213490b 	andseq	r4, r3, #180224	; 0x2c000
     2b0:	1742b717 	smlaldne	fp, r2, r7, r7
     2b4:	0b180000 	bleq	6002bc <__bss_end__+0x5f4f2c>
     2b8:	12011101 	andne	r1, r1, #1073741824	; 0x40000000
     2bc:	00130106 	andseq	r0, r3, r6, lsl #2
     2c0:	82891900 	addhi	r1, r9, #0, 18
     2c4:	01110101 	tsteq	r1, r1, lsl #2
     2c8:	13011331 	movwne	r1, #4913	; 0x1331
     2cc:	8a1a0000 	bhi	6802d4 <__bss_end__+0x674f44>
     2d0:	02000182 	andeq	r0, r0, #-2147483616	; 0x80000020
     2d4:	18429118 	stmdane	r2, {r3, r4, r8, ip, pc}^
     2d8:	891b0000 	ldmdbhi	fp, {}	; <UNPREDICTABLE>
     2dc:	11010182 	smlabbne	r1, r2, r1, r0
     2e0:	00133101 	andseq	r3, r3, r1, lsl #2
     2e4:	012e1c00 			; <UNDEFINED> instruction: 0x012e1c00
     2e8:	0e03193f 			; <UNDEFINED> instruction: 0x0e03193f
     2ec:	0b3b0b3a 	bleq	ec2fdc <__bss_end__+0xeb7c4c>
     2f0:	19270b39 	stmdbne	r7!, {r0, r3, r4, r5, r8, r9, fp}
     2f4:	06120111 			; <UNDEFINED> instruction: 0x06120111
     2f8:	42971840 	addsmi	r1, r7, #64, 16	; 0x400000
     2fc:	00130119 	andseq	r0, r3, r9, lsl r1
     300:	00341d00 	eorseq	r1, r4, r0, lsl #26
     304:	13490e03 	movtne	r0, #40451	; 0x9e03
     308:	18021934 	stmdane	r2, {r2, r4, r5, r8, fp, ip}
     30c:	0b1e0000 	bleq	780314 <__bss_end__+0x774f84>
     310:	01175501 	tsteq	r7, r1, lsl #10
     314:	1f000013 	svcne	0x00000013
     318:	00018289 	andeq	r8, r1, r9, lsl #5
     31c:	13310111 	teqne	r1, #1073741828	; 0x40000004
     320:	05200000 	streq	r0, [r0, #-0]!
     324:	3a080300 	bcc	200f2c <__bss_end__+0x1f5b9c>
     328:	390b3b0b 	stmdbcc	fp, {r0, r1, r3, r8, r9, fp, ip, sp}
     32c:	0213490b 	andseq	r4, r3, #180224	; 0x2c000
     330:	1742b717 	smlaldne	fp, r2, r7, r7
     334:	0b210000 	bleq	84033c <__bss_end__+0x834fac>
     338:	12011101 	andne	r1, r1, #1073741824	; 0x40000000
     33c:	22000006 	andcs	r0, r0, #6, 0
     340:	1331011d 	teqne	r1, #1073741831	; 0x40000007
     344:	42b80152 	adcsmi	r0, r8, #-2147483628	; 0x80000014
     348:	1201110b 	andne	r1, r1, #-1073741822	; 0xc0000002
     34c:	590b5806 	stmdbpl	fp, {r1, r2, fp, ip, lr}
     350:	010b570b 	tsteq	fp, fp, lsl #14
     354:	23000013 	movwcs	r0, #19
     358:	13310005 	teqne	r1, #5, 0
     35c:	42b71702 	adcsmi	r1, r7, #524288	; 0x80000
     360:	24000017 	strcs	r0, [r0], #-23	; 0xffffffe9
     364:	193f002e 	ldmdbne	pc!, {r1, r2, r3, r5}	; <UNPREDICTABLE>
     368:	0b3a0e03 	bleq	e83b7c <__bss_end__+0xe787ec>
     36c:	0b390b3b 	bleq	e43060 <__bss_end__+0xe37cd0>
     370:	13491927 	movtne	r1, #39207	; 0x9927
     374:	06120111 			; <UNDEFINED> instruction: 0x06120111
     378:	42971840 	addsmi	r1, r7, #64, 16	; 0x400000
     37c:	25000019 	strcs	r0, [r0, #-25]	; 0xffffffe7
     380:	0e03012e 	adfeqsp	f0, f3, #0.5
     384:	0b3b0b3a 	bleq	ec3074 <__bss_end__+0xeb7ce4>
     388:	19270b39 	stmdbne	r7!, {r0, r3, r4, r5, r8, r9, fp}
     38c:	0b201349 	bleq	8050b8 <__bss_end__+0x7f9d28>
     390:	00001301 	andeq	r1, r0, r1, lsl #6
     394:	03000526 	movweq	r0, #1318	; 0x526
     398:	3b0b3a08 	blcc	2cebc0 <__bss_end__+0x2c3830>
     39c:	490b390b 	stmdbmi	fp, {r0, r1, r3, r8, fp, ip, sp}
     3a0:	27000013 	smladcs	r0, r3, r0, r0
     3a4:	193f002e 	ldmdbne	pc!, {r1, r2, r3, r5}	; <UNPREDICTABLE>
     3a8:	0e6e193c 			; <UNDEFINED> instruction: 0x0e6e193c
     3ac:	0b3a0e03 	bleq	e83bc0 <__bss_end__+0xe78830>
     3b0:	0b390b3b 	bleq	e430a4 <__bss_end__+0xe37d14>
     3b4:	01000000 	mrseq	r0, (UNDEF: 0)
     3b8:	0e250111 	mcreq	1, 1, r0, cr5, cr1, {0}
     3bc:	0e030b13 	vmoveq.32	d3[0], r0
     3c0:	01110e1b 	tsteq	r1, fp, lsl lr
     3c4:	17100612 			; <UNDEFINED> instruction: 0x17100612
     3c8:	24020000 	strcs	r0, [r2], #-0
     3cc:	3e0b0b00 	vmlacc.f64	d0, d11, d0
     3d0:	0008030b 	andeq	r0, r8, fp, lsl #6
     3d4:	00240300 	eoreq	r0, r4, r0, lsl #6
     3d8:	0b3e0b0b 	bleq	f8300c <__bss_end__+0xf77c7c>
     3dc:	00000e03 	andeq	r0, r0, r3, lsl #28
     3e0:	27011504 	strcs	r1, [r1, -r4, lsl #10]
     3e4:	01134919 	tsteq	r3, r9, lsl r9
     3e8:	05000013 	streq	r0, [r0, #-19]	; 0xffffffed
     3ec:	13490005 	movtne	r0, #36869	; 0x9005
     3f0:	34060000 	strcc	r0, [r6], #-0
     3f4:	3a0e0300 	bcc	380ffc <__bss_end__+0x375c6c>
     3f8:	390b3b0b 	stmdbcc	fp, {r0, r1, r3, r8, r9, fp, ip, sp}
     3fc:	3f13490b 	svccc	0x0013490b
     400:	00193c19 	andseq	r3, r9, r9, lsl ip
     404:	000f0700 	andeq	r0, pc, r0, lsl #14
     408:	13490b0b 	movtne	r0, #39691	; 0x9b0b
     40c:	26080000 	strcs	r0, [r8], -r0
     410:	00134900 	andseq	r4, r3, r0, lsl #18
     414:	01170900 	tsteq	r7, r0, lsl #18
     418:	0b0b0e03 	bleq	2c3c2c <__bss_end__+0x2b889c>
     41c:	0b3b0b3a 	bleq	ec310c <__bss_end__+0xeb7d7c>
     420:	13010b39 	movwne	r0, #6969	; 0x1b39
     424:	0d0a0000 	stceq	0, cr0, [sl, #-0]
     428:	3a080300 	bcc	201030 <__bss_end__+0x1f5ca0>
     42c:	390b3b0b 	stmdbcc	fp, {r0, r1, r3, r8, r9, fp, ip, sp}
     430:	0013490b 	andseq	r4, r3, fp, lsl #18
     434:	000f0b00 	andeq	r0, pc, r0, lsl #22
     438:	00000b0b 	andeq	r0, r0, fp, lsl #22
     43c:	2700150c 	strcs	r1, [r0, -ip, lsl #10]
     440:	0d000019 	stceq	0, cr0, [r0, #-100]	; 0xffffff9c
     444:	0b0b0113 	bleq	2c0898 <__bss_end__+0x2b5508>
     448:	0b3b0b3a 	bleq	ec3138 <__bss_end__+0xeb7da8>
     44c:	13010b39 	movwne	r0, #6969	; 0x1b39
     450:	0d0e0000 	stceq	0, cr0, [lr, #-0]
     454:	3a080300 	bcc	20105c <__bss_end__+0x1f5ccc>
     458:	390b3b0b 	stmdbcc	fp, {r0, r1, r3, r8, r9, fp, ip, sp}
     45c:	3813490b 	ldmdacc	r3, {r0, r1, r3, r8, fp, lr}
     460:	0f00000b 	svceq	0x0000000b
     464:	0e03000d 	cdpeq	0, 0, cr0, cr3, cr13, {0}
     468:	0b3b0b3a 	bleq	ec3158 <__bss_end__+0xeb7dc8>
     46c:	13490b39 	movtne	r0, #39737	; 0x9b39
     470:	00000b38 	andeq	r0, r0, r8, lsr fp
     474:	03001610 	movweq	r1, #1552	; 0x610
     478:	3b0b3a0e 	blcc	2cecb8 <__bss_end__+0x2c3928>
     47c:	490b390b 	stmdbmi	fp, {r0, r1, r3, r8, fp, ip, sp}
     480:	11000013 	tstne	r0, r3, lsl r0
     484:	0e030034 	mcreq	0, 0, r0, cr3, cr4, {1}
     488:	0b3b0b3a 	bleq	ec3178 <__bss_end__+0xeb7de8>
     48c:	13490b39 	movtne	r0, #39737	; 0x9b39
     490:	00001802 	andeq	r1, r0, r2, lsl #16
     494:	3f012e12 	svccc	0x00012e12
     498:	3a0e0319 	bcc	381104 <__bss_end__+0x375d74>
     49c:	390b3b0b 	stmdbcc	fp, {r0, r1, r3, r8, r9, fp, ip, sp}
     4a0:	1119270b 	tstne	r9, fp, lsl #14
     4a4:	40061201 	andmi	r1, r6, r1, lsl #4
     4a8:	19429718 	stmdbne	r2, {r3, r4, r8, r9, sl, ip, pc}^
     4ac:	00001301 	andeq	r1, r0, r1, lsl #6
     4b0:	03000513 	movweq	r0, #1299	; 0x513
     4b4:	3b0b3a08 	blcc	2cecdc <__bss_end__+0x2c394c>
     4b8:	490b390b 	stmdbmi	fp, {r0, r1, r3, r8, fp, ip, sp}
     4bc:	00180213 	andseq	r0, r8, r3, lsl r2
     4c0:	00341400 	eorseq	r1, r4, r0, lsl #8
     4c4:	0b3a0803 	bleq	e824d8 <__bss_end__+0xe77148>
     4c8:	0b390b3b 	bleq	e431bc <__bss_end__+0xe37e2c>
     4cc:	17021349 	strne	r1, [r2, -r9, asr #6]
     4d0:	001742b7 			; <UNDEFINED> instruction: 0x001742b7
     4d4:	012e1500 			; <UNDEFINED> instruction: 0x012e1500
     4d8:	0e03193f 			; <UNDEFINED> instruction: 0x0e03193f
     4dc:	0b3b0b3a 	bleq	ec31cc <__bss_end__+0xeb7e3c>
     4e0:	19270b39 	stmdbne	r7!, {r0, r3, r4, r5, r8, r9, fp}
     4e4:	01111349 	tsteq	r1, r9, asr #6
     4e8:	18400612 	stmdane	r0, {r1, r4, r9, sl}^
     4ec:	01194297 			; <UNDEFINED> instruction: 0x01194297
     4f0:	16000013 			; <UNDEFINED> instruction: 0x16000013
     4f4:	0e030005 	cdpeq	0, 0, cr0, cr3, cr5, {0}
     4f8:	0b3b0b3a 	bleq	ec31e8 <__bss_end__+0xeb7e58>
     4fc:	13490b39 	movtne	r0, #39737	; 0x9b39
     500:	42b71702 	adcsmi	r1, r7, #524288	; 0x80000
     504:	17000017 	smladne	r0, r7, r0, r0
     508:	0e030034 	mcreq	0, 0, r0, cr3, cr4, {1}
     50c:	0b3b0b3a 	bleq	ec31fc <__bss_end__+0xeb7e6c>
     510:	13490b39 	movtne	r0, #39737	; 0x9b39
     514:	42b71702 	adcsmi	r1, r7, #524288	; 0x80000
     518:	18000017 	stmdane	r0, {r0, r1, r2, r4}
     51c:	01018289 	smlabbeq	r1, r9, r2, r8
     520:	13310111 	teqne	r1, #1073741828	; 0x40000004
     524:	8a190000 	bhi	64052c <__bss_end__+0x63519c>
     528:	02000182 	andeq	r0, r0, #-2147483616	; 0x80000020
     52c:	18429118 	stmdane	r2, {r3, r4, r8, ip, pc}^
     530:	2e1a0000 	cdpcs	0, 1, cr0, cr10, cr0, {0}
     534:	3a0e0301 	bcc	381140 <__bss_end__+0x375db0>
     538:	390b3b0b 	stmdbcc	fp, {r0, r1, r3, r8, r9, fp, ip, sp}
     53c:	4919270b 	ldmdbmi	r9, {r0, r1, r3, r8, r9, sl, sp}
     540:	12011113 	andne	r1, r1, #-1073741820	; 0xc0000004
     544:	97184006 	ldrls	r4, [r8, -r6]
     548:	13011942 	movwne	r1, #6466	; 0x1942
     54c:	051b0000 	ldreq	r0, [fp, #-0]
     550:	3a080300 	bcc	201158 <__bss_end__+0x1f5dc8>
     554:	390b3b0b 	stmdbcc	fp, {r0, r1, r3, r8, r9, fp, ip, sp}
     558:	0213490b 	andseq	r4, r3, #180224	; 0x2c000
     55c:	1742b717 	smlaldne	fp, r2, r7, r7
     560:	891c0000 	ldmdbhi	ip, {}	; <UNPREDICTABLE>
     564:	11010182 	smlabbne	r1, r2, r1, r0
     568:	01133101 	tsteq	r3, r1, lsl #2
     56c:	1d000013 	stcne	0, cr0, [r0, #-76]	; 0xffffffb4
     570:	00018289 	andeq	r8, r1, r9, lsl #5
     574:	13310111 	teqne	r1, #1073741828	; 0x40000004
     578:	2e1e0000 	cdpcs	0, 1, cr0, cr14, cr0, {0}
     57c:	3c193f00 	ldccc	15, cr3, [r9], {-0}
     580:	030e6e19 	movweq	r6, #60953	; 0xee19
     584:	3b0b3a0e 	blcc	2cedc4 <__bss_end__+0x2c3a34>
     588:	000b390b 	andeq	r3, fp, fp, lsl #18
     58c:	11010000 	mrsne	r0, (UNDEF: 1)
     590:	130e2501 	movwne	r2, #58625	; 0xe501
     594:	1b0e030b 	blne	3811c8 <__bss_end__+0x375e38>
     598:	1201110e 	andne	r1, r1, #-2147483645	; 0x80000003
     59c:	00171006 	andseq	r1, r7, r6
     5a0:	00240200 	eoreq	r0, r4, r0, lsl #4
     5a4:	0b3e0b0b 	bleq	f831d8 <__bss_end__+0xf77e48>
     5a8:	00000803 	andeq	r0, r0, r3, lsl #16
     5ac:	0b002403 	bleq	95c0 <va_printk+0x98>
     5b0:	030b3e0b 	movweq	r3, #48651	; 0xbe0b
     5b4:	0400000e 	streq	r0, [r0], #-14
     5b8:	0e030016 	mcreq	0, 0, r0, cr3, cr6, {0}
     5bc:	0b3b0b3a 	bleq	ec32ac <__bss_end__+0xeb7f1c>
     5c0:	13490b39 	movtne	r0, #39737	; 0x9b39
     5c4:	15050000 	strne	r0, [r5, #-0]
     5c8:	49192701 	ldmdbmi	r9, {r0, r8, r9, sl, sp}
     5cc:	00130113 	andseq	r0, r3, r3, lsl r1
     5d0:	00050600 	andeq	r0, r5, r0, lsl #12
     5d4:	00001349 	andeq	r1, r0, r9, asr #6
     5d8:	03003407 	movweq	r3, #1031	; 0x407
     5dc:	3b0b3a0e 	blcc	2cee1c <__bss_end__+0x2c3a8c>
     5e0:	490b390b 	stmdbmi	fp, {r0, r1, r3, r8, fp, ip, sp}
     5e4:	3c193f13 	ldccc	15, cr3, [r9], {19}
     5e8:	08000019 	stmdaeq	r0, {r0, r3, r4}
     5ec:	0b0b000f 	bleq	2c0630 <__bss_end__+0x2b52a0>
     5f0:	00001349 	andeq	r1, r0, r9, asr #6
     5f4:	49002609 	stmdbmi	r0, {r0, r3, r9, sl, sp}
     5f8:	0a000013 	beq	64c <__code_start__-0x79b4>
     5fc:	0b0b0113 	bleq	2c0a50 <__bss_end__+0x2b56c0>
     600:	0b3b0b3a 	bleq	ec32f0 <__bss_end__+0xeb7f60>
     604:	13010b39 	movwne	r0, #6969	; 0x1b39
     608:	0d0b0000 	stceq	0, cr0, [fp, #-0]
     60c:	3a0e0300 	bcc	381214 <__bss_end__+0x375e84>
     610:	390b3b0b 	stmdbcc	fp, {r0, r1, r3, r8, r9, fp, ip, sp}
     614:	3813490b 	ldmdacc	r3, {r0, r1, r3, r8, fp, lr}
     618:	0c00000b 	stceq	0, cr0, [r0], {11}
     61c:	0b3e0104 	bleq	f80a34 <__bss_end__+0xf756a4>
     620:	13490b0b 	movtne	r0, #39691	; 0x9b0b
     624:	0b3b0b3a 	bleq	ec3314 <__bss_end__+0xeb7f84>
     628:	13010b39 	movwne	r0, #6969	; 0x1b39
     62c:	280d0000 	stmdacs	sp, {}	; <UNPREDICTABLE>
     630:	1c0e0300 	stcne	3, cr0, [lr], {-0}
     634:	0e00000b 	cdpeq	0, 0, cr0, cr0, cr11, {0}
     638:	0e030113 	mcreq	1, 0, r0, cr3, cr3, {0}
     63c:	0b3a0b0b 	bleq	e83270 <__bss_end__+0xe77ee0>
     640:	0b390b3b 	bleq	e43334 <__bss_end__+0xe37fa4>
     644:	00001301 	andeq	r1, r0, r1, lsl #6
     648:	03000d0f 	movweq	r0, #3343	; 0xd0f
     64c:	3b0b3a08 	blcc	2cee74 <__bss_end__+0x2c3ae4>
     650:	490b390b 	stmdbmi	fp, {r0, r1, r3, r8, fp, ip, sp}
     654:	000b3813 	andeq	r3, fp, r3, lsl r8
     658:	01011000 	mrseq	r1, (UNDEF: 1)
     65c:	13011349 	movwne	r1, #4937	; 0x1349
     660:	21110000 	tstcs	r1, r0
     664:	2f134900 	svccs	0x00134900
     668:	1200000b 	andne	r0, r0, #11, 0
     66c:	0b0b000f 	bleq	2c06b0 <__bss_end__+0x2b5320>
     670:	34130000 	ldrcc	r0, [r3], #-0
     674:	3a0e0300 	bcc	38127c <__bss_end__+0x375eec>
     678:	390b3b0b 	stmdbcc	fp, {r0, r1, r3, r8, r9, fp, ip, sp}
     67c:	0213490b 	andseq	r4, r3, #180224	; 0x2c000
     680:	14000018 	strne	r0, [r0], #-24	; 0xffffffe8
     684:	193f012e 	ldmdbne	pc!, {r1, r2, r3, r5, r8}	; <UNPREDICTABLE>
     688:	0b3a0e03 	bleq	e83e9c <__bss_end__+0xe78b0c>
     68c:	0b39053b 	bleq	e41b80 <__bss_end__+0xe367f0>
     690:	01111927 	tsteq	r1, r7, lsr #18
     694:	18400612 	stmdane	r0, {r1, r4, r9, sl}^
     698:	01194297 			; <UNDEFINED> instruction: 0x01194297
     69c:	15000013 	strne	r0, [r0, #-19]	; 0xffffffed
     6a0:	0e030034 	mcreq	0, 0, r0, cr3, cr4, {1}
     6a4:	19341349 	ldmdbne	r4!, {r0, r3, r6, r8, r9, ip}
     6a8:	00001802 	andeq	r1, r0, r2, lsl #16
     6ac:	01828916 	orreq	r8, r2, r6, lsl r9
     6b0:	31011101 	tstcc	r1, r1, lsl #2
     6b4:	00130113 	andseq	r0, r3, r3, lsl r1
     6b8:	828a1700 	addhi	r1, sl, #0, 14
     6bc:	18020001 	stmdane	r2, {r0}
     6c0:	00184291 	mulseq	r8, r1, r2
     6c4:	82891800 	addhi	r1, r9, #0, 16
     6c8:	01110001 	tsteq	r1, r1
     6cc:	00001331 	andeq	r1, r0, r1, lsr r3
     6d0:	3f012e19 	svccc	0x00012e19
     6d4:	3a0e0319 	bcc	381340 <__bss_end__+0x375fb0>
     6d8:	39053b0b 	stmdbcc	r5, {r0, r1, r3, r8, r9, fp, ip, sp}
     6dc:	4919270b 	ldmdbmi	r9, {r0, r1, r3, r8, r9, sl, sp}
     6e0:	12011113 	andne	r1, r1, #-1073741820	; 0xc0000004
     6e4:	97184006 	ldrls	r4, [r8, -r6]
     6e8:	13011942 	movwne	r1, #6466	; 0x1942
     6ec:	341a0000 	ldrcc	r0, [sl], #-0
     6f0:	3a0e0300 	bcc	3812f8 <__bss_end__+0x375f68>
     6f4:	39053b0b 	stmdbcc	r5, {r0, r1, r3, r8, r9, fp, ip, sp}
     6f8:	0213490b 	andseq	r4, r3, #180224	; 0x2c000
     6fc:	1742b717 	smlaldne	fp, r2, r7, r7
     700:	2e1b0000 	cdpcs	0, 1, cr0, cr11, cr0, {0}
     704:	3a0e0301 	bcc	381310 <__bss_end__+0x375f80>
     708:	39053b0b 	stmdbcc	r5, {r0, r1, r3, r8, r9, fp, ip, sp}
     70c:	4919270b 	ldmdbmi	r9, {r0, r1, r3, r8, r9, sl, sp}
     710:	12011113 	andne	r1, r1, #-1073741820	; 0xc0000004
     714:	97184006 	ldrls	r4, [r8, -r6]
     718:	13011942 	movwne	r1, #6466	; 0x1942
     71c:	0b1c0000 	bleq	700724 <__bss_end__+0x6f5394>
     720:	01175501 	tsteq	r7, r1, lsl #10
     724:	1d000013 	stcne	0, cr0, [r0, #-76]	; 0xffffffb4
     728:	08030034 	stmdaeq	r3, {r2, r4, r5}
     72c:	053b0b3a 	ldreq	r0, [fp, #-2874]!	; 0xfffff4c6
     730:	13490b39 	movtne	r0, #39737	; 0x9b39
     734:	42b71702 	adcsmi	r1, r7, #524288	; 0x80000
     738:	1e000017 	mcrne	0, 0, r0, cr0, cr7, {0}
     73c:	1331011d 	teqne	r1, #1073741831	; 0x40000007
     740:	42b80152 	adcsmi	r0, r8, #-2147483628	; 0x80000014
     744:	1201110b 	andne	r1, r1, #-1073741822	; 0xc0000002
     748:	590b5806 	stmdbpl	fp, {r1, r2, fp, ip, lr}
     74c:	010b5705 	tsteq	fp, r5, lsl #14
     750:	1f000013 	svcne	0x00000013
     754:	13310005 	teqne	r1, #5, 0
     758:	42b71702 	adcsmi	r1, r7, #524288	; 0x80000
     75c:	20000017 	andcs	r0, r0, r7, lsl r0
     760:	01018289 	smlabbeq	r1, r9, r2, r8
     764:	13310111 	teqne	r1, #1073741828	; 0x40000004
     768:	2e210000 	cdpcs	0, 2, cr0, cr1, cr0, {0}
     76c:	03193f01 	tsteq	r9, #1, 30
     770:	3b0b3a0e 	blcc	2cefb0 <__bss_end__+0x2c3c20>
     774:	270b390b 	strcs	r3, [fp, -fp, lsl #18]
     778:	12011119 	andne	r1, r1, #1073741830	; 0x40000006
     77c:	97184006 	ldrls	r4, [r8, -r6]
     780:	13011942 	movwne	r1, #6466	; 0x1942
     784:	2e220000 	cdpcs	0, 2, cr0, cr2, cr0, {0}
     788:	03193f01 	tsteq	r9, #1, 30
     78c:	3b0b3a0e 	blcc	2cefcc <__bss_end__+0x2c3c3c>
     790:	270b390b 	strcs	r3, [fp, -fp, lsl #18]
     794:	11134919 	tstne	r3, r9, lsl r9
     798:	40061201 	andmi	r1, r6, r1, lsl #4
     79c:	19429718 	stmdbne	r2, {r3, r4, r8, r9, sl, ip, pc}^
     7a0:	00001301 	andeq	r1, r0, r1, lsl #6
     7a4:	03000523 	movweq	r0, #1315	; 0x523
     7a8:	3b0b3a0e 	blcc	2cefe8 <__bss_end__+0x2c3c58>
     7ac:	490b390b 	stmdbmi	fp, {r0, r1, r3, r8, fp, ip, sp}
     7b0:	b7170213 			; <UNDEFINED> instruction: 0xb7170213
     7b4:	00001742 	andeq	r1, r0, r2, asr #14
     7b8:	03012e24 	movweq	r2, #7716	; 0x1e24
     7bc:	3b0b3a0e 	blcc	2ceffc <__bss_end__+0x2c3c6c>
     7c0:	270b390b 	strcs	r3, [fp, -fp, lsl #18]
     7c4:	11134919 	tstne	r3, r9, lsl r9
     7c8:	40061201 	andmi	r1, r6, r1, lsl #4
     7cc:	19429718 	stmdbne	r2, {r3, r4, r8, r9, sl, ip, pc}^
     7d0:	00001301 	andeq	r1, r0, r1, lsl #6
     7d4:	03003425 	movweq	r3, #1061	; 0x425
     7d8:	3b0b3a0e 	blcc	2cf018 <__bss_end__+0x2c3c88>
     7dc:	490b390b 	stmdbmi	fp, {r0, r1, r3, r8, fp, ip, sp}
     7e0:	b7170213 			; <UNDEFINED> instruction: 0xb7170213
     7e4:	00001742 	andeq	r1, r0, r2, asr #14
     7e8:	03003426 	movweq	r3, #1062	; 0x426
     7ec:	3b0b3a08 	blcc	2cf014 <__bss_end__+0x2c3c84>
     7f0:	490b390b 	stmdbmi	fp, {r0, r1, r3, r8, fp, ip, sp}
     7f4:	b7170213 			; <UNDEFINED> instruction: 0xb7170213
     7f8:	00001742 	andeq	r1, r0, r2, asr #14
     7fc:	55010b27 	strpl	r0, [r1, #-2855]	; 0xfffff4d9
     800:	28000017 	stmdacs	r0, {r0, r1, r2, r4}
     804:	0e030005 	cdpeq	0, 0, cr0, cr3, cr5, {0}
     808:	0b3b0b3a 	bleq	ec34f8 <__bss_end__+0xeb8168>
     80c:	13490b39 	movtne	r0, #39737	; 0x9b39
     810:	00001802 	andeq	r1, r0, r2, lsl #16
     814:	03012e29 	movweq	r2, #7721	; 0x1e29
     818:	3b0b3a0e 	blcc	2cf058 <__bss_end__+0x2c3cc8>
     81c:	270b390b 	strcs	r3, [fp, -fp, lsl #18]
     820:	12011119 	andne	r1, r1, #1073741830	; 0x40000006
     824:	97184006 	ldrls	r4, [r8, -r6]
     828:	13011942 	movwne	r1, #6466	; 0x1942
     82c:	342a0000 	strtcc	r0, [sl], #-0
     830:	3a0e0300 	bcc	381438 <__bss_end__+0x3760a8>
     834:	390b3b0b 	stmdbcc	fp, {r0, r1, r3, r8, r9, fp, ip, sp}
     838:	1c13490b 			; <UNDEFINED> instruction: 0x1c13490b
     83c:	2b000006 	blcs	85c <__code_start__-0x77a4>
     840:	0111010b 	tsteq	r1, fp, lsl #2
     844:	13010612 	movwne	r0, #5650	; 0x1612
     848:	052c0000 	streq	r0, [ip, #-0]!
     84c:	3a080300 	bcc	201454 <__bss_end__+0x1f60c4>
     850:	390b3b0b 	stmdbcc	fp, {r0, r1, r3, r8, r9, fp, ip, sp}
     854:	0213490b 	andseq	r4, r3, #180224	; 0x2c000
     858:	1742b717 	smlaldne	fp, r2, r7, r7
     85c:	2e2d0000 	cdpcs	0, 2, cr0, cr13, cr0, {0}
     860:	3a0e0301 	bcc	38146c <__bss_end__+0x3760dc>
     864:	390b3b0b 	stmdbcc	fp, {r0, r1, r3, r8, r9, fp, ip, sp}
     868:	4919270b 	ldmdbmi	r9, {r0, r1, r3, r8, r9, sl, sp}
     86c:	010b2013 	tsteq	fp, r3, lsl r0
     870:	2e000013 	mcrcs	0, 0, r0, cr0, cr3, {0}
     874:	0e030005 	cdpeq	0, 0, cr0, cr3, cr5, {0}
     878:	0b3b0b3a 	bleq	ec3568 <__bss_end__+0xeb81d8>
     87c:	13490b39 	movtne	r0, #39737	; 0x9b39
     880:	2e2f0000 	cdpcs	0, 2, cr0, cr15, cr0, {0}
     884:	3c193f00 	ldccc	15, cr3, [r9], {-0}
     888:	030e6e19 	movweq	r6, #60953	; 0xee19
     88c:	3b0b3a0e 	blcc	2cf0cc <__bss_end__+0x2c3d3c>
     890:	000b390b 	andeq	r3, fp, fp, lsl #18
     894:	00363000 	eorseq	r3, r6, r0
     898:	00001802 	andeq	r1, r0, r2, lsl #16
     89c:	01110100 	tsteq	r1, r0, lsl #2
     8a0:	0b130e25 	bleq	4c413c <__bss_end__+0x4b8dac>
     8a4:	0e1b0e03 	cdpeq	14, 1, cr0, cr11, cr3, {0}
     8a8:	06120111 			; <UNDEFINED> instruction: 0x06120111
     8ac:	00001710 	andeq	r1, r0, r0, lsl r7
     8b0:	0b002402 	bleq	98c0 <va_printk+0x398>
     8b4:	030b3e0b 	movweq	r3, #48651	; 0xbe0b
     8b8:	03000008 	movweq	r0, #8
     8bc:	0b0b0024 	bleq	2c0954 <__bss_end__+0x2b55c4>
     8c0:	0e030b3e 	vmoveq.16	d3[0], r0
     8c4:	15040000 	strne	r0, [r4, #-0]
     8c8:	49192701 	ldmdbmi	r9, {r0, r8, r9, sl, sp}
     8cc:	00130113 	andseq	r0, r3, r3, lsl r1
     8d0:	00050500 	andeq	r0, r5, r0, lsl #10
     8d4:	00001349 	andeq	r1, r0, r9, asr #6
     8d8:	03003406 	movweq	r3, #1030	; 0x406
     8dc:	3b0b3a0e 	blcc	2cf11c <__bss_end__+0x2c3d8c>
     8e0:	490b390b 	stmdbmi	fp, {r0, r1, r3, r8, fp, ip, sp}
     8e4:	3c193f13 	ldccc	15, cr3, [r9], {19}
     8e8:	07000019 	smladeq	r0, r9, r0, r0
     8ec:	0b0b000f 	bleq	2c0930 <__bss_end__+0x2b55a0>
     8f0:	00001349 	andeq	r1, r0, r9, asr #6
     8f4:	49002608 	stmdbmi	r0, {r3, r9, sl, sp}
     8f8:	09000013 	stmdbeq	r0, {r0, r1, r4}
     8fc:	193f012e 	ldmdbne	pc!, {r1, r2, r3, r5, r8}	; <UNPREDICTABLE>
     900:	0b3a0e03 	bleq	e84114 <__bss_end__+0xe78d84>
     904:	0b390b3b 	bleq	e435f8 <__bss_end__+0xe38268>
     908:	13491927 	movtne	r1, #39207	; 0x9927
     90c:	13010b20 	movwne	r0, #6944	; 0x1b20
     910:	050a0000 	streq	r0, [sl, #-0]
     914:	3a0e0300 	bcc	38151c <__bss_end__+0x37618c>
     918:	390b3b0b 	stmdbcc	fp, {r0, r1, r3, r8, r9, fp, ip, sp}
     91c:	0013490b 	andseq	r4, r3, fp, lsl #18
     920:	00340b00 	eorseq	r0, r4, r0, lsl #22
     924:	0b3a0e03 	bleq	e84138 <__bss_end__+0xe78da8>
     928:	0b390b3b 	bleq	e4361c <__bss_end__+0xe3828c>
     92c:	00001349 	andeq	r1, r0, r9, asr #6
     930:	00010b0c 	andeq	r0, r1, ip, lsl #22
     934:	012e0d00 			; <UNDEFINED> instruction: 0x012e0d00
     938:	0e03193f 			; <UNDEFINED> instruction: 0x0e03193f
     93c:	0b3b0b3a 	bleq	ec362c <__bss_end__+0xeb829c>
     940:	13490b39 	movtne	r0, #39737	; 0x9b39
     944:	06120111 			; <UNDEFINED> instruction: 0x06120111
     948:	42971840 	addsmi	r1, r7, #64, 16	; 0x400000
     94c:	00130119 	andseq	r0, r3, r9, lsl r1
     950:	00340e00 	eorseq	r0, r4, r0, lsl #28
     954:	0b3a0e03 	bleq	e84168 <__bss_end__+0xe78dd8>
     958:	0b390b3b 	bleq	e4364c <__bss_end__+0xe382bc>
     95c:	17021349 	strne	r1, [r2, -r9, asr #6]
     960:	001742b7 			; <UNDEFINED> instruction: 0x001742b7
     964:	010b0f00 	tsteq	fp, r0, lsl #30
     968:	06120111 			; <UNDEFINED> instruction: 0x06120111
     96c:	34100000 	ldrcc	r0, [r0], #-0
     970:	3a080300 	bcc	201578 <__bss_end__+0x1f61e8>
     974:	390b3b0b 	stmdbcc	fp, {r0, r1, r3, r8, r9, fp, ip, sp}
     978:	0213490b 	andseq	r4, r3, #180224	; 0x2c000
     97c:	1742b717 	smlaldne	fp, r2, r7, r7
     980:	0b110000 	bleq	440988 <__bss_end__+0x4355f8>
     984:	00175501 	andseq	r5, r7, r1, lsl #10
     988:	011d1200 	tsteq	sp, r0, lsl #4
     98c:	01521331 	cmpeq	r2, r1, lsr r3
     990:	550b42b8 	strpl	r4, [fp, #-696]	; 0xfffffd48
     994:	590b5817 	stmdbpl	fp, {r0, r1, r2, r4, fp, ip, lr}
     998:	010b570b 	tsteq	fp, fp, lsl #14
     99c:	13000013 	movwne	r0, #19
     9a0:	13310005 	teqne	r1, #5, 0
     9a4:	42b71702 	adcsmi	r1, r7, #524288	; 0x80000
     9a8:	14000017 	strne	r0, [r0], #-23	; 0xffffffe9
     9ac:	13310034 	teqne	r1, #52, 0	; 0x34
     9b0:	42b71702 	adcsmi	r1, r7, #524288	; 0x80000
     9b4:	15000017 	strne	r0, [r0, #-23]	; 0xffffffe9
     9b8:	1331010b 	teqne	r1, #-1073741822	; 0xc0000002
     9bc:	00001755 	andeq	r1, r0, r5, asr r7
     9c0:	01828916 	orreq	r8, r2, r6, lsl r9
     9c4:	31011101 	tstcc	r1, r1, lsl #2
     9c8:	17000013 	smladne	r0, r3, r0, r0
     9cc:	0001828a 	andeq	r8, r1, sl, lsl #5
     9d0:	42911802 	addsmi	r1, r1, #131072	; 0x20000
     9d4:	18000018 	stmdane	r0, {r3, r4}
     9d8:	1331012e 	teqne	r1, #-2147483637	; 0x8000000b
     9dc:	06120111 			; <UNDEFINED> instruction: 0x06120111
     9e0:	42971840 	addsmi	r1, r7, #64, 16	; 0x400000
     9e4:	00130119 	andseq	r0, r3, r9, lsl r1
     9e8:	010b1900 	tsteq	fp, r0, lsl #18
     9ec:	01111331 	tsteq	r1, r1, lsr r3
     9f0:	00000612 	andeq	r0, r0, r2, lsl r6
     9f4:	3f002e1a 	svccc	0x00002e1a
     9f8:	6e193c19 	mrcvs	12, 0, r3, cr9, cr9, {0}
     9fc:	3a0e030e 	bcc	38163c <__bss_end__+0x3762ac>
     a00:	390b3b0b 	stmdbcc	fp, {r0, r1, r3, r8, r9, fp, ip, sp}
     a04:	0000000b 	andeq	r0, r0, fp
     a08:	25011101 	strcs	r1, [r1, #-257]	; 0xfffffeff
     a0c:	030b130e 	movweq	r1, #45838	; 0xb30e
     a10:	110e1b0e 	tstne	lr, lr, lsl #22
     a14:	10061201 	andne	r1, r6, r1, lsl #4
     a18:	02000017 	andeq	r0, r0, #23, 0
     a1c:	0b0b0024 	bleq	2c0ab4 <__bss_end__+0x2b5724>
     a20:	08030b3e 	stmdaeq	r3, {r1, r2, r3, r4, r5, r8, r9, fp}
     a24:	16030000 	strne	r0, [r3], -r0
     a28:	3a0e0300 	bcc	381630 <__bss_end__+0x3762a0>
     a2c:	390b3b0b 	stmdbcc	fp, {r0, r1, r3, r8, r9, fp, ip, sp}
     a30:	0013490b 	andseq	r4, r3, fp, lsl #18
     a34:	00240400 	eoreq	r0, r4, r0, lsl #8
     a38:	0b3e0b0b 	bleq	f8366c <__bss_end__+0xf782dc>
     a3c:	00000e03 	andeq	r0, r0, r3, lsl #28
     a40:	27011505 	strcs	r1, [r1, -r5, lsl #10]
     a44:	01134919 	tsteq	r3, r9, lsl r9
     a48:	06000013 			; <UNDEFINED> instruction: 0x06000013
     a4c:	13490005 	movtne	r0, #36869	; 0x9005
     a50:	34070000 	strcc	r0, [r7], #-0
     a54:	3a0e0300 	bcc	38165c <__bss_end__+0x3762cc>
     a58:	390b3b0b 	stmdbcc	fp, {r0, r1, r3, r8, r9, fp, ip, sp}
     a5c:	3f13490b 	svccc	0x0013490b
     a60:	00193c19 	andseq	r3, r9, r9, lsl ip
     a64:	000f0800 	andeq	r0, pc, r0, lsl #16
     a68:	13490b0b 	movtne	r0, #39691	; 0x9b0b
     a6c:	26090000 	strcs	r0, [r9], -r0
     a70:	00134900 	andseq	r4, r3, r0, lsl #18
     a74:	012e0a00 			; <UNDEFINED> instruction: 0x012e0a00
     a78:	0e03193f 			; <UNDEFINED> instruction: 0x0e03193f
     a7c:	0b3b0b3a 	bleq	ec376c <__bss_end__+0xeb83dc>
     a80:	19270b39 	stmdbne	r7!, {r0, r3, r4, r5, r8, r9, fp}
     a84:	01111349 	tsteq	r1, r9, asr #6
     a88:	18400612 	stmdane	r0, {r1, r4, r9, sl}^
     a8c:	01194297 			; <UNDEFINED> instruction: 0x01194297
     a90:	0b000013 	bleq	ae4 <__code_start__-0x751c>
     a94:	08030005 	stmdaeq	r3, {r0, r2}
     a98:	0b3b0b3a 	bleq	ec3788 <__bss_end__+0xeb83f8>
     a9c:	13490b39 	movtne	r0, #39737	; 0x9b39
     aa0:	00001802 	andeq	r1, r0, r2, lsl #16
     aa4:	0300050c 	movweq	r0, #1292	; 0x50c
     aa8:	3b0b3a08 	blcc	2cf2d0 <__bss_end__+0x2c3f40>
     aac:	490b390b 	stmdbmi	fp, {r0, r1, r3, r8, fp, ip, sp}
     ab0:	b7170213 			; <UNDEFINED> instruction: 0xb7170213
     ab4:	00001742 	andeq	r1, r0, r2, asr #14
     ab8:	0300340d 	movweq	r3, #1037	; 0x40d
     abc:	3b0b3a08 	blcc	2cf2e4 <__bss_end__+0x2c3f54>
     ac0:	490b390b 	stmdbmi	fp, {r0, r1, r3, r8, fp, ip, sp}
     ac4:	b7170213 			; <UNDEFINED> instruction: 0xb7170213
     ac8:	00001742 	andeq	r1, r0, r2, asr #14
     acc:	0b000f0e 	bleq	470c <__code_start__-0x38f4>
     ad0:	0000000b 	andeq	r0, r0, fp
     ad4:	25011101 	strcs	r1, [r1, #-257]	; 0xfffffeff
     ad8:	030b130e 	movweq	r1, #45838	; 0xb30e
     adc:	110e1b0e 	tstne	lr, lr, lsl #22
     ae0:	10061201 	andne	r1, r6, r1, lsl #4
     ae4:	02000017 	andeq	r0, r0, #23, 0
     ae8:	0e030016 	mcreq	0, 0, r0, cr3, cr6, {0}
     aec:	0b3b0b3a 	bleq	ec37dc <__bss_end__+0xeb844c>
     af0:	13490b39 	movtne	r0, #39737	; 0x9b39
     af4:	13030000 	movwne	r0, #12288	; 0x3000
     af8:	0b0e0301 	bleq	381704 <__bss_end__+0x376374>
     afc:	3b0b3a0b 	blcc	2cf330 <__bss_end__+0x2c3fa0>
     b00:	0013010b 	andseq	r0, r3, fp, lsl #2
     b04:	000d0400 	andeq	r0, sp, r0, lsl #8
     b08:	13490e03 	movtne	r0, #40451	; 0x9e03
     b0c:	19340b38 	ldmdbne	r4!, {r3, r4, r5, r8, r9, fp}
     b10:	0f050000 	svceq	0x00050000
     b14:	000b0b00 	andeq	r0, fp, r0, lsl #22
     b18:	00240600 	eoreq	r0, r4, r0, lsl #12
     b1c:	0b3e0b0b 	bleq	f83750 <__bss_end__+0xf783c0>
     b20:	00000803 	andeq	r0, r0, r3, lsl #16
     b24:	0b002407 	bleq	9b48 <va_printk+0x620>
     b28:	030b3e0b 	movweq	r3, #48651	; 0xbe0b
     b2c:	0800000e 	stmdaeq	r0, {r1, r2, r3}
     b30:	19270115 	stmdbne	r7!, {r0, r2, r4, r8}
     b34:	13011349 	movwne	r1, #4937	; 0x1349
     b38:	05090000 	streq	r0, [r9, #-0]
     b3c:	00134900 	andseq	r4, r3, r0, lsl #18
     b40:	00340a00 	eorseq	r0, r4, r0, lsl #20
     b44:	0b3a0e03 	bleq	e84358 <__bss_end__+0xe78fc8>
     b48:	0b390b3b 	bleq	e4383c <__bss_end__+0xe384ac>
     b4c:	193f1349 	ldmdbne	pc!, {r0, r3, r6, r8, r9, ip}	; <UNPREDICTABLE>
     b50:	0000193c 	andeq	r1, r0, ip, lsr r9
     b54:	0b000f0b 	bleq	4788 <__code_start__-0x3878>
     b58:	0013490b 	andseq	r4, r3, fp, lsl #18
     b5c:	00260c00 	eoreq	r0, r6, r0, lsl #24
     b60:	00001349 	andeq	r1, r0, r9, asr #6
     b64:	3f012e0d 	svccc	0x00012e0d
     b68:	3a0e0319 	bcc	3817d4 <__bss_end__+0x376444>
     b6c:	390b3b0b 	stmdbcc	fp, {r0, r1, r3, r8, r9, fp, ip, sp}
     b70:	4919270b 	ldmdbmi	r9, {r0, r1, r3, r8, r9, sl, sp}
     b74:	12011113 	andne	r1, r1, #-1073741820	; 0xc0000004
     b78:	97184006 	ldrls	r4, [r8, -r6]
     b7c:	13011942 	movwne	r1, #6466	; 0x1942
     b80:	050e0000 	streq	r0, [lr, #-0]
     b84:	3a080300 	bcc	20178c <__bss_end__+0x1f63fc>
     b88:	390b3b0b 	stmdbcc	fp, {r0, r1, r3, r8, r9, fp, ip, sp}
     b8c:	0213490b 	andseq	r4, r3, #180224	; 0x2c000
     b90:	0f000018 	svceq	0x00000018
     b94:	00000018 	andeq	r0, r0, r8, lsl r0
     b98:	03003410 	movweq	r3, #1040	; 0x410
     b9c:	3b0b3a08 	blcc	2cf3c4 <__bss_end__+0x2c4034>
     ba0:	490b390b 	stmdbmi	fp, {r0, r1, r3, r8, fp, ip, sp}
     ba4:	00180213 	andseq	r0, r8, r3, lsl r2
     ba8:	00341100 	eorseq	r1, r4, r0, lsl #2
     bac:	0b3a0e03 	bleq	e843c0 <__bss_end__+0xe79030>
     bb0:	0b390b3b 	bleq	e438a4 <__bss_end__+0xe38514>
     bb4:	18021349 	stmdane	r2, {r0, r3, r6, r8, r9, ip}
     bb8:	34120000 	ldrcc	r0, [r2], #-0
     bbc:	3a080300 	bcc	2017c4 <__bss_end__+0x1f6434>
     bc0:	390b3b0b 	stmdbcc	fp, {r0, r1, r3, r8, r9, fp, ip, sp}
     bc4:	0213490b 	andseq	r4, r3, #180224	; 0x2c000
     bc8:	1742b717 	smlaldne	fp, r2, r7, r7
     bcc:	89130000 	ldmdbhi	r3, {}	; <UNPREDICTABLE>
     bd0:	11010182 	smlabbne	r1, r2, r1, r0
     bd4:	01133101 	tsteq	r3, r1, lsl #2
     bd8:	14000013 	strne	r0, [r0], #-19	; 0xffffffed
     bdc:	0001828a 	andeq	r8, r1, sl, lsl #5
     be0:	42911802 	addsmi	r1, r1, #131072	; 0x20000
     be4:	15000018 	strne	r0, [r0, #-24]	; 0xffffffe8
     be8:	01018289 	smlabbeq	r1, r9, r2, r8
     bec:	00000111 	andeq	r0, r0, r1, lsl r1
     bf0:	49010116 	stmdbmi	r1, {r1, r2, r4, r8}
     bf4:	00130113 	andseq	r0, r3, r3, lsl r1
     bf8:	00211700 	eoreq	r1, r1, r0, lsl #14
     bfc:	052f1349 	streq	r1, [pc, #-841]!	; 8bb <__code_start__-0x7745>
     c00:	2e180000 	cdpcs	0, 1, cr0, cr8, cr0, {0}
     c04:	3c193f00 	ldccc	15, cr3, [r9], {-0}
     c08:	030e6e19 	movweq	r6, #60953	; 0xee19
     c0c:	3b0b3a0e 	blcc	2cf44c <__bss_end__+0x2c40bc>
     c10:	000b390b 	andeq	r3, fp, fp, lsl #18
     c14:	11010000 	mrsne	r0, (UNDEF: 1)
     c18:	130e2501 	movwne	r2, #58625	; 0xe501
     c1c:	1b0e030b 	blne	381850 <__bss_end__+0x3764c0>
     c20:	1201110e 	andne	r1, r1, #-2147483645	; 0x80000003
     c24:	00171006 	andseq	r1, r7, r6
     c28:	00240200 	eoreq	r0, r4, r0, lsl #4
     c2c:	0b3e0b0b 	bleq	f83860 <__bss_end__+0xf784d0>
     c30:	00000803 	andeq	r0, r0, r3, lsl #16
     c34:	0b002403 	bleq	9c48 <_cstart+0xc8>
     c38:	030b3e0b 	movweq	r3, #48651	; 0xbe0b
     c3c:	0400000e 	streq	r0, [r0], #-14
     c40:	19270115 	stmdbne	r7!, {r0, r2, r4, r8}
     c44:	13011349 	movwne	r1, #4937	; 0x1349
     c48:	05050000 	streq	r0, [r5, #-0]
     c4c:	00134900 	andseq	r4, r3, r0, lsl #18
     c50:	00340600 	eorseq	r0, r4, r0, lsl #12
     c54:	0b3a0e03 	bleq	e84468 <__bss_end__+0xe790d8>
     c58:	0b390b3b 	bleq	e4394c <__bss_end__+0xe385bc>
     c5c:	193f1349 	ldmdbne	pc!, {r0, r3, r6, r8, r9, ip}	; <UNPREDICTABLE>
     c60:	0000193c 	andeq	r1, r0, ip, lsr r9
     c64:	0b000f07 	bleq	4888 <__code_start__-0x3778>
     c68:	0013490b 	andseq	r4, r3, fp, lsl #18
     c6c:	00260800 	eoreq	r0, r6, r0, lsl #16
     c70:	00001349 	andeq	r1, r0, r9, asr #6
     c74:	47003409 	strmi	r3, [r0, -r9, lsl #8]
     c78:	3b0b3a13 	blcc	2cf4cc <__bss_end__+0x2c413c>
     c7c:	020b390b 	andeq	r3, fp, #180224	; 0x2c000
     c80:	0a000018 	beq	ce8 <__code_start__-0x7318>
     c84:	193f012e 	ldmdbne	pc!, {r1, r2, r3, r5, r8}	; <UNPREDICTABLE>
     c88:	0b3a0e03 	bleq	e8449c <__bss_end__+0xe7910c>
     c8c:	0b390b3b 	bleq	e43980 <__bss_end__+0xe385f0>
     c90:	13491927 	movtne	r1, #39207	; 0x9927
     c94:	06120111 			; <UNDEFINED> instruction: 0x06120111
     c98:	42961840 	addsmi	r1, r6, #64, 16	; 0x400000
     c9c:	0b000019 	bleq	d08 <__code_start__-0x72f8>
     ca0:	08030005 	stmdaeq	r3, {r0, r2}
     ca4:	0b3b0b3a 	bleq	ec3994 <__bss_end__+0xeb8604>
     ca8:	13490b39 	movtne	r0, #39737	; 0x9b39
     cac:	42b71702 	adcsmi	r1, r7, #524288	; 0x80000
     cb0:	00000017 	andeq	r0, r0, r7, lsl r0
     cb4:	25011101 	strcs	r1, [r1, #-257]	; 0xfffffeff
     cb8:	030b130e 	movweq	r1, #45838	; 0xb30e
     cbc:	110e1b0e 	tstne	lr, lr, lsl #22
     cc0:	10061201 	andne	r1, r6, r1, lsl #4
     cc4:	02000017 	andeq	r0, r0, #23, 0
     cc8:	0b0b0024 	bleq	2c0d60 <__bss_end__+0x2b59d0>
     ccc:	08030b3e 	stmdaeq	r3, {r1, r2, r3, r4, r5, r8, r9, fp}
     cd0:	24030000 	strcs	r0, [r3], #-0
     cd4:	3e0b0b00 	vmlacc.f64	d0, d11, d0
     cd8:	000e030b 	andeq	r0, lr, fp, lsl #6
     cdc:	01150400 	tsteq	r5, r0, lsl #8
     ce0:	13491927 	movtne	r1, #39207	; 0x9927
     ce4:	00001301 	andeq	r1, r0, r1, lsl #6
     ce8:	49000505 	stmdbmi	r0, {r0, r2, r8, sl}
     cec:	06000013 			; <UNDEFINED> instruction: 0x06000013
     cf0:	0e030034 	mcreq	0, 0, r0, cr3, cr4, {1}
     cf4:	0b3b0b3a 	bleq	ec39e4 <__bss_end__+0xeb8654>
     cf8:	13490b39 	movtne	r0, #39737	; 0x9b39
     cfc:	193c193f 	ldmdbne	ip!, {r0, r1, r2, r3, r4, r5, r8, fp, ip}
     d00:	0f070000 	svceq	0x00070000
     d04:	490b0b00 	stmdbmi	fp, {r8, r9, fp}
     d08:	08000013 	stmdaeq	r0, {r0, r1, r4}
     d0c:	13490026 	movtne	r0, #36902	; 0x9026
     d10:	34090000 	strcc	r0, [r9], #-0
     d14:	3a0e0300 	bcc	38191c <__bss_end__+0x37658c>
     d18:	390b3b0b 	stmdbcc	fp, {r0, r1, r3, r8, r9, fp, ip, sp}
     d1c:	0213490b 	andseq	r4, r3, #180224	; 0x2c000
     d20:	0a000018 	beq	d88 <__code_start__-0x7278>
     d24:	08030034 	stmdaeq	r3, {r2, r4, r5}
     d28:	0b3b0b3a 	bleq	ec3a18 <__bss_end__+0xeb8688>
     d2c:	13490b39 	movtne	r0, #39737	; 0x9b39
     d30:	2e0b0000 	cdpcs	0, 0, cr0, cr11, cr0, {0}
     d34:	03193f01 	tsteq	r9, #1, 30
     d38:	3b0b3a0e 	blcc	2cf578 <__bss_end__+0x2c41e8>
     d3c:	270b390b 	strcs	r3, [fp, -fp, lsl #18]
     d40:	12011119 	andne	r1, r1, #1073741830	; 0x40000006
     d44:	97184006 	ldrls	r4, [r8, -r6]
     d48:	13011942 	movwne	r1, #6466	; 0x1942
     d4c:	050c0000 	streq	r0, [ip, #-0]
     d50:	3a0e0300 	bcc	381958 <__bss_end__+0x3765c8>
     d54:	390b3b0b 	stmdbcc	fp, {r0, r1, r3, r8, r9, fp, ip, sp}
     d58:	0213490b 	andseq	r4, r3, #180224	; 0x2c000
     d5c:	0d000018 	stceq	0, cr0, [r0, #-96]	; 0xffffffa0
     d60:	193f012e 	ldmdbne	pc!, {r1, r2, r3, r5, r8}	; <UNPREDICTABLE>
     d64:	0b3a0e03 	bleq	e84578 <__bss_end__+0xe791e8>
     d68:	0b390b3b 	bleq	e43a5c <__bss_end__+0xe386cc>
     d6c:	13491927 	movtne	r1, #39207	; 0x9927
     d70:	06120111 			; <UNDEFINED> instruction: 0x06120111
     d74:	42971840 	addsmi	r1, r7, #64, 16	; 0x400000
     d78:	00130119 	andseq	r0, r3, r9, lsl r1
     d7c:	001d0e00 	andseq	r0, sp, r0, lsl #28
     d80:	01521331 	cmpeq	r2, r1, lsr r3
     d84:	110b42b8 			; <UNDEFINED> instruction: 0x110b42b8
     d88:	58061201 	stmdapl	r6, {r0, r9, ip}
     d8c:	570b590b 	strpl	r5, [fp, -fp, lsl #18]
     d90:	0f00000b 	svceq	0x0000000b
     d94:	193f002e 	ldmdbne	pc!, {r1, r2, r3, r5}	; <UNPREDICTABLE>
     d98:	0b3a0e03 	bleq	e845ac <__bss_end__+0xe7921c>
     d9c:	0b390b3b 	bleq	e43a90 <__bss_end__+0xe38700>
     da0:	13491927 	movtne	r1, #39207	; 0x9927
     da4:	00000b20 	andeq	r0, r0, r0, lsr #22
     da8:	31002e10 	tstcc	r0, r0, lsl lr
     dac:	12011113 	andne	r1, r1, #-1073741820	; 0xc0000004
     db0:	97184006 	ldrls	r4, [r8, -r6]
     db4:	00001942 	andeq	r1, r0, r2, asr #18
     db8:	01110100 	tsteq	r1, r0, lsl #2
     dbc:	0b130e25 	bleq	4c4658 <__bss_end__+0x4b92c8>
     dc0:	0e1b0e03 	cdpeq	14, 1, cr0, cr11, cr3, {0}
     dc4:	06120111 			; <UNDEFINED> instruction: 0x06120111
     dc8:	00001710 	andeq	r1, r0, r0, lsl r7
     dcc:	0b002402 	bleq	9ddc <delay_sec+0xc>
     dd0:	030b3e0b 	movweq	r3, #48651	; 0xbe0b
     dd4:	0300000e 	movweq	r0, #14
     dd8:	0b0b0024 	bleq	2c0e70 <__bss_end__+0x2b5ae0>
     ddc:	08030b3e 	stmdaeq	r3, {r1, r2, r3, r4, r5, r8, r9, fp}
     de0:	16040000 	strne	r0, [r4], -r0
     de4:	3a0e0300 	bcc	3819ec <__bss_end__+0x37665c>
     de8:	390b3b0b 	stmdbcc	fp, {r0, r1, r3, r8, r9, fp, ip, sp}
     dec:	0013490b 	andseq	r4, r3, fp, lsl #18
     df0:	01150500 	tsteq	r5, r0, lsl #10
     df4:	13491927 	movtne	r1, #39207	; 0x9927
     df8:	00001301 	andeq	r1, r0, r1, lsl #6
     dfc:	49000506 	stmdbmi	r0, {r1, r2, r8, sl}
     e00:	07000013 	smladeq	r0, r3, r0, r0
     e04:	0e030034 	mcreq	0, 0, r0, cr3, cr4, {1}
     e08:	0b3b0b3a 	bleq	ec3af8 <__bss_end__+0xeb8768>
     e0c:	13490b39 	movtne	r0, #39737	; 0x9b39
     e10:	193c193f 	ldmdbne	ip!, {r0, r1, r2, r3, r4, r5, r8, fp, ip}
     e14:	0f080000 	svceq	0x00080000
     e18:	490b0b00 	stmdbmi	fp, {r8, r9, fp}
     e1c:	09000013 	stmdbeq	r0, {r0, r1, r4}
     e20:	13490026 	movtne	r0, #36902	; 0x9026
     e24:	130a0000 	movwne	r0, #40960	; 0xa000
     e28:	0b0e0301 	bleq	381a34 <__bss_end__+0x3766a4>
     e2c:	3b0b3a0b 	blcc	2cf660 <__bss_end__+0x2c42d0>
     e30:	0013010b 	andseq	r0, r3, fp, lsl #2
     e34:	000d0b00 	andeq	r0, sp, r0, lsl #22
     e38:	13490e03 	movtne	r0, #40451	; 0x9e03
     e3c:	19340b38 	ldmdbne	r4!, {r3, r4, r5, r8, r9, fp}
     e40:	0f0c0000 	svceq	0x000c0000
     e44:	000b0b00 	andeq	r0, fp, r0, lsl #22
     e48:	012e0d00 			; <UNDEFINED> instruction: 0x012e0d00
     e4c:	0e03193f 			; <UNDEFINED> instruction: 0x0e03193f
     e50:	0b3b0b3a 	bleq	ec3b40 <__bss_end__+0xeb87b0>
     e54:	19270b39 	stmdbne	r7!, {r0, r3, r4, r5, r8, r9, fp}
     e58:	01111349 	tsteq	r1, r9, asr #6
     e5c:	18400612 	stmdane	r0, {r1, r4, r9, sl}^
     e60:	01194297 			; <UNDEFINED> instruction: 0x01194297
     e64:	0e000013 	mcreq	0, 0, r0, cr0, cr3, {0}
     e68:	08030005 	stmdaeq	r3, {r0, r2}
     e6c:	0b3b0b3a 	bleq	ec3b5c <__bss_end__+0xeb87cc>
     e70:	13490b39 	movtne	r0, #39737	; 0x9b39
     e74:	42b71702 	adcsmi	r1, r7, #524288	; 0x80000
     e78:	0f000017 	svceq	0x00000017
     e7c:	0e030005 	cdpeq	0, 0, cr0, cr3, cr5, {0}
     e80:	0b3b0b3a 	bleq	ec3b70 <__bss_end__+0xeb87e0>
     e84:	13490b39 	movtne	r0, #39737	; 0x9b39
     e88:	42b71702 	adcsmi	r1, r7, #524288	; 0x80000
     e8c:	10000017 	andne	r0, r0, r7, lsl r0
     e90:	08030034 	stmdaeq	r3, {r2, r4, r5}
     e94:	0b3b0b3a 	bleq	ec3b84 <__bss_end__+0xeb87f4>
     e98:	13490b39 	movtne	r0, #39737	; 0x9b39
     e9c:	42b71702 	adcsmi	r1, r7, #524288	; 0x80000
     ea0:	11000017 	tstne	r0, r7, lsl r0
     ea4:	0e030034 	mcreq	0, 0, r0, cr3, cr4, {1}
     ea8:	0b3b0b3a 	bleq	ec3b98 <__bss_end__+0xeb8808>
     eac:	13490b39 	movtne	r0, #39737	; 0x9b39
     eb0:	42b71702 	adcsmi	r1, r7, #524288	; 0x80000
     eb4:	12000017 	andne	r0, r0, #23, 0
     eb8:	0e030034 	mcreq	0, 0, r0, cr3, cr4, {1}
     ebc:	19341349 	ldmdbne	r4!, {r0, r3, r6, r8, r9, ip}
     ec0:	00001802 	andeq	r1, r0, r2, lsl #16
     ec4:	55010b13 	strpl	r0, [r1, #-2835]	; 0xfffff4ed
     ec8:	14000017 	strne	r0, [r0], #-23	; 0xffffffe9
     ecc:	08030034 	stmdaeq	r3, {r2, r4, r5}
     ed0:	0b3b0b3a 	bleq	ec3bc0 <__bss_end__+0xeb8830>
     ed4:	13490b39 	movtne	r0, #39737	; 0x9b39
     ed8:	00001802 	andeq	r1, r0, r2, lsl #16
     edc:	03003415 	movweq	r3, #1045	; 0x415
     ee0:	3b0b3a0e 	blcc	2cf720 <__bss_end__+0x2c4390>
     ee4:	490b390b 	stmdbmi	fp, {r0, r1, r3, r8, fp, ip, sp}
     ee8:	00180213 	andseq	r0, r8, r3, lsl r2
     eec:	010b1600 	tsteq	fp, r0, lsl #12
     ef0:	13011755 	movwne	r1, #5973	; 0x1755
     ef4:	89170000 	ldmdbhi	r7, {}	; <UNPREDICTABLE>
     ef8:	11010182 	smlabbne	r1, r2, r1, r0
     efc:	01133101 	tsteq	r3, r1, lsl #2
     f00:	18000013 	stmdane	r0, {r0, r1, r4}
     f04:	0001828a 	andeq	r8, r1, sl, lsl #5
     f08:	42911802 	addsmi	r1, r1, #131072	; 0x20000
     f0c:	19000018 	stmdbne	r0, {r3, r4}
     f10:	00018289 	andeq	r8, r1, r9, lsl #5
     f14:	13310111 	teqne	r1, #1073741828	; 0x40000004
     f18:	1d1a0000 	ldcne	0, cr0, [sl, #-0]
     f1c:	52133101 	andspl	r3, r3, #1073741824	; 0x40000000
     f20:	0542b801 	strbeq	fp, [r2, #-2049]	; 0xfffff7ff
     f24:	0b581755 	bleq	1606c80 <__bss_end__+0x15fb8f0>
     f28:	0b570b59 	bleq	15c3c94 <__bss_end__+0x15b8904>
     f2c:	00001301 	andeq	r1, r0, r1, lsl #6
     f30:	3100051b 	tstcc	r0, fp, lsl r5
     f34:	b7170213 			; <UNDEFINED> instruction: 0xb7170213
     f38:	00001742 	andeq	r1, r0, r2, asr #14
     f3c:	3100051c 	tstcc	r0, ip, lsl r5
     f40:	1d000013 	stcne	0, cr0, [r0, #-76]	; 0xffffffb4
     f44:	13310034 	teqne	r1, #52, 0	; 0x34
     f48:	00001802 	andeq	r1, r0, r2, lsl #16
     f4c:	3100341e 	tstcc	r0, lr, lsl r4
     f50:	b7170213 			; <UNDEFINED> instruction: 0xb7170213
     f54:	00001742 	andeq	r1, r0, r2, asr #14
     f58:	3100341f 	tstcc	r0, pc, lsl r4
     f5c:	20000013 	andcs	r0, r0, r3, lsl r0
     f60:	1331011d 	teqne	r1, #1073741831	; 0x40000007
     f64:	42b80152 	adcsmi	r0, r8, #-2147483628	; 0x80000014
     f68:	58175505 	ldmdapl	r7, {r0, r2, r8, sl, ip, lr}
     f6c:	570b590b 	strpl	r5, [fp, -fp, lsl #18]
     f70:	2100000b 	tstcs	r0, fp
     f74:	01018289 	smlabbeq	r1, r9, r2, r8
     f78:	13010111 	movwne	r0, #4369	; 0x1111
     f7c:	01220000 			; <UNDEFINED> instruction: 0x01220000
     f80:	01134901 	tsteq	r3, r1, lsl #18
     f84:	23000013 	movwcs	r0, #19
     f88:	13490021 	movtne	r0, #36897	; 0x9021
     f8c:	00000b2f 	andeq	r0, r0, pc, lsr #22
     f90:	03012e24 	movweq	r2, #7716	; 0x1e24
     f94:	3b0b3a0e 	blcc	2cf7d4 <__bss_end__+0x2c4444>
     f98:	270b390b 	strcs	r3, [fp, -fp, lsl #18]
     f9c:	20134919 	andscs	r4, r3, r9, lsl r9
     fa0:	0013010b 	andseq	r0, r3, fp, lsl #2
     fa4:	00052500 	andeq	r2, r5, r0, lsl #10
     fa8:	0b3a0e03 	bleq	e847bc <__bss_end__+0xe7942c>
     fac:	0b390b3b 	bleq	e43ca0 <__bss_end__+0xe38910>
     fb0:	00001349 	andeq	r1, r0, r9, asr #6
     fb4:	03000526 	movweq	r0, #1318	; 0x526
     fb8:	3b0b3a08 	blcc	2cf7e0 <__bss_end__+0x2c4450>
     fbc:	490b390b 	stmdbmi	fp, {r0, r1, r3, r8, fp, ip, sp}
     fc0:	27000013 	smladcs	r0, r3, r0, r0
     fc4:	08030034 	stmdaeq	r3, {r2, r4, r5}
     fc8:	0b3b0b3a 	bleq	ec3cb8 <__bss_end__+0xeb8928>
     fcc:	13490b39 	movtne	r0, #39737	; 0x9b39
     fd0:	0b280000 	bleq	a00fd8 <__bss_end__+0x9f5c48>
     fd4:	29000001 	stmdbcs	r0, {r0}
     fd8:	0e030034 	mcreq	0, 0, r0, cr3, cr4, {1}
     fdc:	0b3b0b3a 	bleq	ec3ccc <__bss_end__+0xeb893c>
     fe0:	13490b39 	movtne	r0, #39737	; 0x9b39
     fe4:	2e2a0000 	cdpcs	0, 2, cr0, cr10, cr0, {0}
     fe8:	3a080301 	bcc	201bf4 <__bss_end__+0x1f6864>
     fec:	390b3b0b 	stmdbcc	fp, {r0, r1, r3, r8, r9, fp, ip, sp}
     ff0:	4919270b 	ldmdbmi	r9, {r0, r1, r3, r8, r9, sl, sp}
     ff4:	010b2013 	tsteq	fp, r3, lsl r0
     ff8:	2b000013 	blcs	104c <__code_start__-0x6fb4>
     ffc:	193f012e 	ldmdbne	pc!, {r1, r2, r3, r5, r8}	; <UNPREDICTABLE>
    1000:	0b3a0e03 	bleq	e84814 <__bss_end__+0xe79484>
    1004:	0b390b3b 	bleq	e43cf8 <__bss_end__+0xe38968>
    1008:	01111927 	tsteq	r1, r7, lsr #18
    100c:	18400612 	stmdane	r0, {r1, r4, r9, sl}^
    1010:	01194297 			; <UNDEFINED> instruction: 0x01194297
    1014:	2c000013 	stccs	0, cr0, [r0], {19}
    1018:	1331012e 	teqne	r1, #-2147483637	; 0x8000000b
    101c:	06120111 			; <UNDEFINED> instruction: 0x06120111
    1020:	42971840 	addsmi	r1, r7, #64, 16	; 0x400000
    1024:	00130119 	andseq	r0, r3, r9, lsl r1
    1028:	00052d00 	andeq	r2, r5, r0, lsl #26
    102c:	18021331 	stmdane	r2, {r0, r4, r5, r8, r9, ip}
    1030:	052e0000 	streq	r0, [lr, #-0]!
    1034:	1c133100 	ldfnes	f3, [r3], {-0}
    1038:	2f00000b 	svccs	0x0000000b
    103c:	1331010b 	teqne	r1, #-1073741822	; 0xc0000002
    1040:	06120111 			; <UNDEFINED> instruction: 0x06120111
    1044:	00001301 	andeq	r1, r0, r1, lsl #6
    1048:	3f002e30 	svccc	0x00002e30
    104c:	6e193c19 	mrcvs	12, 0, r3, cr9, cr9, {0}
    1050:	3a0e030e 	bcc	381c90 <__bss_end__+0x376900>
    1054:	390b3b0b 	stmdbcc	fp, {r0, r1, r3, r8, r9, fp, ip, sp}
    1058:	0000000b 	andeq	r0, r0, fp
    105c:	25011101 	strcs	r1, [r1, #-257]	; 0xfffffeff
    1060:	030b130e 	movweq	r1, #45838	; 0xb30e
    1064:	110e1b0e 	tstne	lr, lr, lsl #22
    1068:	10061201 	andne	r1, r6, r1, lsl #4
    106c:	02000017 	andeq	r0, r0, #23, 0
    1070:	0b0b0024 	bleq	2c1108 <__bss_end__+0x2b5d78>
    1074:	08030b3e 	stmdaeq	r3, {r1, r2, r3, r4, r5, r8, r9, fp}
    1078:	24030000 	strcs	r0, [r3], #-0
    107c:	3e0b0b00 	vmlacc.f64	d0, d11, d0
    1080:	000e030b 	andeq	r0, lr, fp, lsl #6
    1084:	01150400 	tsteq	r5, r0, lsl #8
    1088:	13491927 	movtne	r1, #39207	; 0x9927
    108c:	00001301 	andeq	r1, r0, r1, lsl #6
    1090:	49000505 	stmdbmi	r0, {r0, r2, r8, sl}
    1094:	06000013 			; <UNDEFINED> instruction: 0x06000013
    1098:	0e030034 	mcreq	0, 0, r0, cr3, cr4, {1}
    109c:	0b3b0b3a 	bleq	ec3d8c <__bss_end__+0xeb89fc>
    10a0:	13490b39 	movtne	r0, #39737	; 0x9b39
    10a4:	193c193f 	ldmdbne	ip!, {r0, r1, r2, r3, r4, r5, r8, fp, ip}
    10a8:	0f070000 	svceq	0x00070000
    10ac:	490b0b00 	stmdbmi	fp, {r8, r9, fp}
    10b0:	08000013 	stmdaeq	r0, {r0, r1, r4}
    10b4:	13490026 	movtne	r0, #36902	; 0x9026
    10b8:	2e090000 	cdpcs	0, 0, cr0, cr9, cr0, {0}
    10bc:	03193f01 	tsteq	r9, #1, 30
    10c0:	3b0b3a0e 	blcc	2cf900 <__bss_end__+0x2c4570>
    10c4:	270b390b 	strcs	r3, [fp, -fp, lsl #18]
    10c8:	19018719 	stmdbne	r1, {r0, r3, r4, r8, r9, sl, pc}
    10cc:	06120111 			; <UNDEFINED> instruction: 0x06120111
    10d0:	42971840 	addsmi	r1, r7, #64, 16	; 0x400000
    10d4:	00130119 	andseq	r0, r3, r9, lsl r1
    10d8:	82890a00 	addhi	r0, r9, #0, 20
    10dc:	01110101 	tsteq	r1, r1, lsl #2
    10e0:	00001301 	andeq	r1, r0, r1, lsl #6
    10e4:	01828a0b 	orreq	r8, r2, fp, lsl #20
    10e8:	91180200 	tstls	r8, r0, lsl #4
    10ec:	00001842 	andeq	r1, r0, r2, asr #16
    10f0:	0182890c 	orreq	r8, r2, ip, lsl #18
    10f4:	31011100 	mrscc	r1, (UNDEF: 17)
    10f8:	0d000013 	stceq	0, cr0, [r0, #-76]	; 0xffffffb4
    10fc:	01018289 	smlabbeq	r1, r9, r2, r8
    1100:	13310111 	teqne	r1, #1073741828	; 0x40000004
    1104:	00001301 	andeq	r1, r0, r1, lsl #6
    1108:	3f002e0e 	svccc	0x00002e0e
    110c:	6e193c19 	mrcvs	12, 0, r3, cr9, cr9, {0}
    1110:	3a0e030e 	bcc	381d50 <__bss_end__+0x3769c0>
    1114:	390b3b0b 	stmdbcc	fp, {r0, r1, r3, r8, r9, fp, ip, sp}
    1118:	0000000b 	andeq	r0, r0, fp
    111c:	25011101 	strcs	r1, [r1, #-257]	; 0xfffffeff
    1120:	030b130e 	movweq	r1, #45838	; 0xb30e
    1124:	110e1b0e 	tstne	lr, lr, lsl #22
    1128:	10061201 	andne	r1, r6, r1, lsl #4
    112c:	02000017 	andeq	r0, r0, #23, 0
    1130:	0b0b0024 	bleq	2c11c8 <__bss_end__+0x2b5e38>
    1134:	08030b3e 	stmdaeq	r3, {r1, r2, r3, r4, r5, r8, r9, fp}
    1138:	24030000 	strcs	r0, [r3], #-0
    113c:	3e0b0b00 	vmlacc.f64	d0, d11, d0
    1140:	000e030b 	andeq	r0, lr, fp, lsl #6
    1144:	01150400 	tsteq	r5, r0, lsl #8
    1148:	13491927 	movtne	r1, #39207	; 0x9927
    114c:	00001301 	andeq	r1, r0, r1, lsl #6
    1150:	49000505 	stmdbmi	r0, {r0, r2, r8, sl}
    1154:	06000013 			; <UNDEFINED> instruction: 0x06000013
    1158:	0e030034 	mcreq	0, 0, r0, cr3, cr4, {1}
    115c:	0b3b0b3a 	bleq	ec3e4c <__bss_end__+0xeb8abc>
    1160:	13490b39 	movtne	r0, #39737	; 0x9b39
    1164:	193c193f 	ldmdbne	ip!, {r0, r1, r2, r3, r4, r5, r8, fp, ip}
    1168:	0f070000 	svceq	0x00070000
    116c:	490b0b00 	stmdbmi	fp, {r8, r9, fp}
    1170:	08000013 	stmdaeq	r0, {r0, r1, r4}
    1174:	13490026 	movtne	r0, #36902	; 0x9026
    1178:	2e090000 	cdpcs	0, 0, cr0, cr9, cr0, {0}
    117c:	03193f01 	tsteq	r9, #1, 30
    1180:	3b0b3a0e 	blcc	2cf9c0 <__bss_end__+0x2c4630>
    1184:	110b390b 	tstne	fp, fp, lsl #18
    1188:	40061201 	andmi	r1, r6, r1, lsl #4
    118c:	19429718 	stmdbne	r2, {r3, r4, r8, r9, sl, ip, pc}^
    1190:	00001301 	andeq	r1, r0, r1, lsl #6
    1194:	3f002e0a 	svccc	0x00002e0a
    1198:	3a0e0319 	bcc	381e04 <__bss_end__+0x376a74>
    119c:	390b3b0b 	stmdbcc	fp, {r0, r1, r3, r8, r9, fp, ip, sp}
    11a0:	3c19270b 	ldccc	7, cr2, [r9], {11}
    11a4:	0b000019 	bleq	1210 <__code_start__-0x6df0>
    11a8:	08030034 	stmdaeq	r3, {r2, r4, r5}
    11ac:	0b3b0b3a 	bleq	ec3e9c <__bss_end__+0xeb8b0c>
    11b0:	13490b39 	movtne	r0, #39737	; 0x9b39
    11b4:	42b71702 	adcsmi	r1, r7, #524288	; 0x80000
    11b8:	0c000017 	stceq	0, cr0, [r0], {23}
    11bc:	0e030034 	mcreq	0, 0, r0, cr3, cr4, {1}
    11c0:	0b3b0b3a 	bleq	ec3eb0 <__bss_end__+0xeb8b20>
    11c4:	13490b39 	movtne	r0, #39737	; 0x9b39
    11c8:	0b0d0000 	bleq	3411d0 <__bss_end__+0x335e40>
    11cc:	12011101 	andne	r1, r1, #1073741824	; 0x40000000
    11d0:	00130106 	andseq	r0, r3, r6, lsl #2
    11d4:	82890e00 	addhi	r0, r9, #0, 28
    11d8:	01110001 	tsteq	r1, r1
    11dc:	00001331 	andeq	r1, r0, r1, lsr r3
    11e0:	3f002e0f 	svccc	0x00002e0f
    11e4:	6e193c19 	mrcvs	12, 0, r3, cr9, cr9, {0}
    11e8:	3a0e030e 	bcc	381e28 <__bss_end__+0x376a98>
    11ec:	39053b0b 	stmdbcc	r5, {r0, r1, r3, r8, r9, fp, ip, sp}
    11f0:	1000000b 	andne	r0, r0, fp
    11f4:	193f002e 	ldmdbne	pc!, {r1, r2, r3, r5}	; <UNPREDICTABLE>
    11f8:	0e6e193c 			; <UNDEFINED> instruction: 0x0e6e193c
    11fc:	0b3a0e03 	bleq	e84a10 <__bss_end__+0xe79680>
    1200:	0b390b3b 	bleq	e43ef4 <__bss_end__+0xe38b64>
    1204:	01000000 	mrseq	r0, (UNDEF: 0)
    1208:	0e250111 	mcreq	1, 1, r0, cr5, cr1, {0}
    120c:	0e030b13 	vmoveq.32	d3[0], r0
    1210:	01110e1b 	tsteq	r1, fp, lsl lr
    1214:	17100612 			; <UNDEFINED> instruction: 0x17100612
    1218:	24020000 	strcs	r0, [r2], #-0
    121c:	3e0b0b00 	vmlacc.f64	d0, d11, d0
    1220:	0008030b 	andeq	r0, r8, fp, lsl #6
    1224:	00240300 	eoreq	r0, r4, r0, lsl #6
    1228:	0b3e0b0b 	bleq	f83e5c <__bss_end__+0xf78acc>
    122c:	00000e03 	andeq	r0, r0, r3, lsl #28
    1230:	27011504 	strcs	r1, [r1, -r4, lsl #10]
    1234:	01134919 	tsteq	r3, r9, lsl r9
    1238:	05000013 	streq	r0, [r0, #-19]	; 0xffffffed
    123c:	13490005 	movtne	r0, #36869	; 0x9005
    1240:	34060000 	strcc	r0, [r6], #-0
    1244:	3a0e0300 	bcc	381e4c <__bss_end__+0x376abc>
    1248:	390b3b0b 	stmdbcc	fp, {r0, r1, r3, r8, r9, fp, ip, sp}
    124c:	3f13490b 	svccc	0x0013490b
    1250:	00193c19 	andseq	r3, r9, r9, lsl ip
    1254:	000f0700 	andeq	r0, pc, r0, lsl #14
    1258:	13490b0b 	movtne	r0, #39691	; 0x9b0b
    125c:	26080000 	strcs	r0, [r8], -r0
    1260:	00134900 	andseq	r4, r3, r0, lsl #18
    1264:	002e0900 	eoreq	r0, lr, r0, lsl #18
    1268:	0e03193f 			; <UNDEFINED> instruction: 0x0e03193f
    126c:	0b3b0b3a 	bleq	ec3f5c <__bss_end__+0xeb8bcc>
    1270:	19270b39 	stmdbne	r7!, {r0, r3, r4, r5, r8, r9, fp}
    1274:	06120111 			; <UNDEFINED> instruction: 0x06120111
    1278:	42971840 	addsmi	r1, r7, #64, 16	; 0x400000
    127c:	00000019 	andeq	r0, r0, r9, lsl r0
    1280:	25011101 	strcs	r1, [r1, #-257]	; 0xfffffeff
    1284:	030b130e 	movweq	r1, #45838	; 0xb30e
    1288:	550e1b0e 	strpl	r1, [lr, #-2830]	; 0xfffff4f2
    128c:	10011117 	andne	r1, r1, r7, lsl r1
    1290:	02000017 	andeq	r0, r0, #23, 0
    1294:	0b0b0024 	bleq	2c132c <__bss_end__+0x2b5f9c>
    1298:	08030b3e 	stmdaeq	r3, {r1, r2, r3, r4, r5, r8, r9, fp}
    129c:	26030000 	strcs	r0, [r3], -r0
    12a0:	00134900 	andseq	r4, r3, r0, lsl #18
    12a4:	00240400 	eoreq	r0, r4, r0, lsl #8
    12a8:	0b3e0b0b 	bleq	f83edc <__bss_end__+0xf78b4c>
    12ac:	00000e03 	andeq	r0, r0, r3, lsl #28
    12b0:	27011505 	strcs	r1, [r1, -r5, lsl #10]
    12b4:	01134919 	tsteq	r3, r9, lsl r9
    12b8:	06000013 			; <UNDEFINED> instruction: 0x06000013
    12bc:	13490005 	movtne	r0, #36869	; 0x9005
    12c0:	34070000 	strcc	r0, [r7], #-0
    12c4:	3a0e0300 	bcc	381ecc <__bss_end__+0x376b3c>
    12c8:	390b3b0b 	stmdbcc	fp, {r0, r1, r3, r8, r9, fp, ip, sp}
    12cc:	3f13490b 	svccc	0x0013490b
    12d0:	00193c19 	andseq	r3, r9, r9, lsl ip
    12d4:	000f0800 	andeq	r0, pc, r0, lsl #16
    12d8:	13490b0b 	movtne	r0, #39691	; 0x9b0b
    12dc:	34090000 	strcc	r0, [r9], #-0
    12e0:	3a0e0300 	bcc	381ee8 <__bss_end__+0x376b58>
    12e4:	390b3b0b 	stmdbcc	fp, {r0, r1, r3, r8, r9, fp, ip, sp}
    12e8:	0013490b 	andseq	r4, r3, fp, lsl #18
    12ec:	012e0a00 			; <UNDEFINED> instruction: 0x012e0a00
    12f0:	0e03193f 			; <UNDEFINED> instruction: 0x0e03193f
    12f4:	0b3b0b3a 	bleq	ec3fe4 <__bss_end__+0xeb8c54>
    12f8:	19270b39 	stmdbne	r7!, {r0, r3, r4, r5, r8, r9, fp}
    12fc:	11190187 	tstne	r9, r7, lsl #3
    1300:	40061201 	andmi	r1, r6, r1, lsl #4
    1304:	19429718 	stmdbne	r2, {r3, r4, r8, r9, sl, ip, pc}^
    1308:	00001301 	andeq	r1, r0, r1, lsl #6
    130c:	0300340b 	movweq	r3, #1035	; 0x40b
    1310:	3b0b3a0e 	blcc	2cfb50 <__bss_end__+0x2c47c0>
    1314:	490b390b 	stmdbmi	fp, {r0, r1, r3, r8, fp, ip, sp}
    1318:	00061c13 	andeq	r1, r6, r3, lsl ip
    131c:	00340c00 	eorseq	r0, r4, r0, lsl #24
    1320:	0b3a0e03 	bleq	e84b34 <__bss_end__+0xe797a4>
    1324:	0b390b3b 	bleq	e44018 <__bss_end__+0xe38c88>
    1328:	0b1c1349 	bleq	706054 <__bss_end__+0x6facc4>
    132c:	1d0d0000 	stcne	0, cr0, [sp, #-0]
    1330:	52133101 	andspl	r3, r3, #1073741824	; 0x40000000
    1334:	0b42b801 	bleq	10af340 <__bss_end__+0x10a3fb0>
    1338:	0b581755 	bleq	1607094 <__bss_end__+0x15fbd04>
    133c:	0b570b59 	bleq	15c40a8 <__bss_end__+0x15b8d18>
    1340:	00001301 	andeq	r1, r0, r1, lsl #6
    1344:	55010b0e 	strpl	r0, [r1, #-2830]	; 0xfffff4f2
    1348:	0f000017 	svceq	0x00000017
    134c:	13310034 	teqne	r1, #52, 0	; 0x34
    1350:	42b71702 	adcsmi	r1, r7, #524288	; 0x80000
    1354:	10000017 	andne	r0, r0, r7, lsl r0
    1358:	1331011d 	teqne	r1, #1073741831	; 0x40000007
    135c:	42b80152 	adcsmi	r0, r8, #-2147483628	; 0x80000014
    1360:	1201110b 	andne	r1, r1, #-1073741822	; 0xc0000002
    1364:	590b5806 	stmdbpl	fp, {r1, r2, fp, ip, lr}
    1368:	010b570b 	tsteq	fp, fp, lsl #14
    136c:	11000013 	tstne	r0, r3, lsl r0
    1370:	00018289 	andeq	r8, r1, r9, lsl #5
    1374:	13310111 	teqne	r1, #1073741828	; 0x40000004
    1378:	89120000 	ldmdbhi	r2, {}	; <UNPREDICTABLE>
    137c:	11010182 	smlabbne	r1, r2, r1, r0
    1380:	01133101 	tsteq	r3, r1, lsl #2
    1384:	13000013 	movwne	r0, #19
    1388:	0001828a 	andeq	r8, r1, sl, lsl #5
    138c:	42911802 	addsmi	r1, r1, #131072	; 0x20000
    1390:	14000018 	strne	r0, [r0], #-24	; 0xffffffe8
    1394:	01018289 	smlabbeq	r1, r9, r2, r8
    1398:	13310111 	teqne	r1, #1073741828	; 0x40000004
    139c:	2e150000 	cdpcs	0, 1, cr0, cr5, cr0, {0}
    13a0:	03193f01 	tsteq	r9, #1, 30
    13a4:	3b0b3a0e 	blcc	2cfbe4 <__bss_end__+0x2c4854>
    13a8:	270b390b 	strcs	r3, [fp, -fp, lsl #18]
    13ac:	010b2019 	tsteq	fp, r9, lsl r0
    13b0:	16000013 			; <UNDEFINED> instruction: 0x16000013
    13b4:	193f012e 	ldmdbne	pc!, {r1, r2, r3, r5, r8}	; <UNPREDICTABLE>
    13b8:	0b3a0e03 	bleq	e84bcc <__bss_end__+0xe7983c>
    13bc:	0b390b3b 	bleq	e440b0 <__bss_end__+0xe38d20>
    13c0:	13491927 	movtne	r1, #39207	; 0x9927
    13c4:	13010b20 	movwne	r0, #6944	; 0x1b20
    13c8:	2e170000 	cdpcs	0, 1, cr0, cr7, cr0, {0}
    13cc:	11133101 	tstne	r3, r1, lsl #2
    13d0:	40061201 	andmi	r1, r6, r1, lsl #4
    13d4:	19429718 	stmdbne	r2, {r3, r4, r8, r9, sl, ip, pc}^
    13d8:	00001301 	andeq	r1, r0, r1, lsl #6
    13dc:	3f002e18 	svccc	0x00002e18
    13e0:	6e193c19 	mrcvs	12, 0, r3, cr9, cr9, {0}
    13e4:	3a0e030e 	bcc	382024 <__bss_end__+0x376c94>
    13e8:	39053b0b 	stmdbcc	r5, {r0, r1, r3, r8, r9, fp, ip, sp}
    13ec:	1900000b 	stmdbne	r0, {r0, r1, r3}
    13f0:	193f002e 	ldmdbne	pc!, {r1, r2, r3, r5}	; <UNPREDICTABLE>
    13f4:	0e6e193c 			; <UNDEFINED> instruction: 0x0e6e193c
    13f8:	0b3a0e03 	bleq	e84c0c <__bss_end__+0xe7987c>
    13fc:	0b390b3b 	bleq	e440f0 <__bss_end__+0xe38d60>
    1400:	01000000 	mrseq	r0, (UNDEF: 0)
    1404:	0e250111 	mcreq	1, 1, r0, cr5, cr1, {0}
    1408:	0e030b13 	vmoveq.32	d3[0], r0
    140c:	01110e1b 	tsteq	r1, fp, lsl lr
    1410:	17100612 			; <UNDEFINED> instruction: 0x17100612
    1414:	24020000 	strcs	r0, [r2], #-0
    1418:	3e0b0b00 	vmlacc.f64	d0, d11, d0
    141c:	0008030b 	andeq	r0, r8, fp, lsl #6
    1420:	00240300 	eoreq	r0, r4, r0, lsl #6
    1424:	0b3e0b0b 	bleq	f84058 <__bss_end__+0xf78cc8>
    1428:	00000e03 	andeq	r0, r0, r3, lsl #28
    142c:	27011504 	strcs	r1, [r1, -r4, lsl #10]
    1430:	01134919 	tsteq	r3, r9, lsl r9
    1434:	05000013 	streq	r0, [r0, #-19]	; 0xffffffed
    1438:	13490005 	movtne	r0, #36869	; 0x9005
    143c:	34060000 	strcc	r0, [r6], #-0
    1440:	3a0e0300 	bcc	382048 <__bss_end__+0x376cb8>
    1444:	390b3b0b 	stmdbcc	fp, {r0, r1, r3, r8, r9, fp, ip, sp}
    1448:	3f13490b 	svccc	0x0013490b
    144c:	00193c19 	andseq	r3, r9, r9, lsl ip
    1450:	000f0700 	andeq	r0, pc, r0, lsl #14
    1454:	13490b0b 	movtne	r0, #39691	; 0x9b0b
    1458:	26080000 	strcs	r0, [r8], -r0
    145c:	00134900 	andseq	r4, r3, r0, lsl #18
    1460:	012e0900 			; <UNDEFINED> instruction: 0x012e0900
    1464:	0e03193f 			; <UNDEFINED> instruction: 0x0e03193f
    1468:	0b3b0b3a 	bleq	ec4158 <__bss_end__+0xeb8dc8>
    146c:	19270b39 	stmdbne	r7!, {r0, r3, r4, r5, r8, r9, fp}
    1470:	06120111 			; <UNDEFINED> instruction: 0x06120111
    1474:	42971840 	addsmi	r1, r7, #64, 16	; 0x400000
    1478:	00130119 	andseq	r0, r3, r9, lsl r1
    147c:	00050a00 	andeq	r0, r5, r0, lsl #20
    1480:	0b3a0803 	bleq	e83494 <__bss_end__+0xe78104>
    1484:	0b390b3b 	bleq	e44178 <__bss_end__+0xe38de8>
    1488:	17021349 	strne	r1, [r2, -r9, asr #6]
    148c:	001742b7 			; <UNDEFINED> instruction: 0x001742b7
    1490:	011d0b00 	tsteq	sp, r0, lsl #22
    1494:	01521331 	cmpeq	r2, r1, lsr r3
    1498:	550b42b8 	strpl	r4, [fp, #-696]	; 0xfffffd48
    149c:	590b5817 	stmdbpl	fp, {r0, r1, r2, r4, fp, ip, lr}
    14a0:	000b570b 	andeq	r5, fp, fp, lsl #14
    14a4:	00050c00 	andeq	r0, r5, r0, lsl #24
    14a8:	17021331 	smladxne	r2, r1, r3, r1
    14ac:	001742b7 			; <UNDEFINED> instruction: 0x001742b7
    14b0:	011d0d00 	tsteq	sp, r0, lsl #26
    14b4:	01521331 	cmpeq	r2, r1, lsr r3
    14b8:	110b42b8 			; <UNDEFINED> instruction: 0x110b42b8
    14bc:	58061201 	stmdapl	r6, {r0, r9, ip}
    14c0:	570b590b 	strpl	r5, [fp, -fp, lsl #18]
    14c4:	0e00000b 	cdpeq	0, 0, cr0, cr0, cr11, {0}
    14c8:	13310034 	teqne	r1, #52, 0	; 0x34
    14cc:	42b71702 	adcsmi	r1, r7, #524288	; 0x80000
    14d0:	0f000017 	svceq	0x00000017
    14d4:	1331011d 	teqne	r1, #1073741831	; 0x40000007
    14d8:	42b80152 	adcsmi	r0, r8, #-2147483628	; 0x80000014
    14dc:	1201110b 	andne	r1, r1, #-1073741822	; 0xc0000002
    14e0:	590b5806 	stmdbpl	fp, {r1, r2, fp, ip, lr}
    14e4:	010b570b 	tsteq	fp, fp, lsl #14
    14e8:	10000013 	andne	r0, r0, r3, lsl r0
    14ec:	01018289 	smlabbeq	r1, r9, r2, r8
    14f0:	13310111 	teqne	r1, #1073741828	; 0x40000004
    14f4:	8a110000 	bhi	4414fc <__bss_end__+0x43616c>
    14f8:	02000182 	andeq	r0, r0, #-2147483616	; 0x80000020
    14fc:	18429118 	stmdane	r2, {r3, r4, r8, ip, pc}^
    1500:	89120000 	ldmdbhi	r2, {}	; <UNPREDICTABLE>
    1504:	11000182 	smlabbne	r0, r2, r1, r0
    1508:	00133101 	andseq	r3, r3, r1, lsl #2
    150c:	010b1300 	mrseq	r1, (UNDEF: 59)
    1510:	17551331 	smmlarne	r5, r1, r3, r1
    1514:	34140000 	ldrcc	r0, [r4], #-0
    1518:	00133100 	andseq	r3, r3, r0, lsl #2
    151c:	010b1500 	tsteq	fp, r0, lsl #10
    1520:	00001755 	andeq	r1, r0, r5, asr r7
    1524:	31011d16 	tstcc	r1, r6, lsl sp
    1528:	b8015213 	stmdalt	r1, {r0, r1, r4, r9, ip, lr}
    152c:	17550b42 	ldrbne	r0, [r5, -r2, asr #22]
    1530:	0b590b58 	bleq	1644298 <__bss_end__+0x1638f08>
    1534:	13010b57 	movwne	r0, #6999	; 0x1b57
    1538:	2e170000 	cdpcs	0, 1, cr0, cr7, cr0, {0}
    153c:	03193f01 	tsteq	r9, #1, 30
    1540:	3b0b3a0e 	blcc	2cfd80 <__bss_end__+0x2c49f0>
    1544:	270b390b 	strcs	r3, [fp, -fp, lsl #18]
    1548:	010b2019 	tsteq	fp, r9, lsl r0
    154c:	18000013 	stmdane	r0, {r0, r1, r4}
    1550:	08030005 	stmdaeq	r3, {r0, r2}
    1554:	0b3b0b3a 	bleq	ec4244 <__bss_end__+0xeb8eb4>
    1558:	13490b39 	movtne	r0, #39737	; 0x9b39
    155c:	34190000 	ldrcc	r0, [r9], #-0
    1560:	3a080300 	bcc	202168 <__bss_end__+0x1f6dd8>
    1564:	390b3b0b 	stmdbcc	fp, {r0, r1, r3, r8, r9, fp, ip, sp}
    1568:	0013490b 	andseq	r4, r3, fp, lsl #18
    156c:	010b1a00 	tsteq	fp, r0, lsl #20
    1570:	2e1b0000 	cdpcs	0, 1, cr0, cr11, cr0, {0}
    1574:	03193f01 	tsteq	r9, #1, 30
    1578:	3b0b3a0e 	blcc	2cfdb8 <__bss_end__+0x2c4a28>
    157c:	270b390b 	strcs	r3, [fp, -fp, lsl #18]
    1580:	20134919 	andscs	r4, r3, r9, lsl r9
    1584:	0013010b 	andseq	r0, r3, fp, lsl #2
    1588:	002e1c00 	eoreq	r1, lr, r0, lsl #24
    158c:	0e03193f 			; <UNDEFINED> instruction: 0x0e03193f
    1590:	0b3b0b3a 	bleq	ec4280 <__bss_end__+0xeb8ef0>
    1594:	19270b39 	stmdbne	r7!, {r0, r3, r4, r5, r8, r9, fp}
    1598:	0b201349 	bleq	8062c4 <__bss_end__+0x7faf34>
    159c:	2e1d0000 	cdpcs	0, 1, cr0, cr13, cr0, {0}
    15a0:	11133101 	tstne	r3, r1, lsl #2
    15a4:	40061201 	andmi	r1, r6, r1, lsl #4
    15a8:	19429718 	stmdbne	r2, {r3, r4, r8, r9, sl, ip, pc}^
    15ac:	00001301 	andeq	r1, r0, r1, lsl #6
    15b0:	0182891e 	orreq	r8, r2, lr, lsl r9
    15b4:	95011101 	strls	r1, [r1, #-257]	; 0xfffffeff
    15b8:	13311942 	teqne	r1, #1081344	; 0x108000
    15bc:	2e1f0000 	cdpcs	0, 1, cr0, cr15, cr0, {0}
    15c0:	3c193f00 	ldccc	15, cr3, [r9], {-0}
    15c4:	030e6e19 	movweq	r6, #60953	; 0xee19
    15c8:	3b0b3a0e 	blcc	2cfe08 <__bss_end__+0x2c4a78>
    15cc:	000b390b 	andeq	r3, fp, fp, lsl #18
    15d0:	11010000 	mrsne	r0, (UNDEF: 1)
    15d4:	130e2501 	movwne	r2, #58625	; 0xe501
    15d8:	1b0e030b 	blne	38220c <__bss_end__+0x376e7c>
    15dc:	1201110e 	andne	r1, r1, #-2147483645	; 0x80000003
    15e0:	00171006 	andseq	r1, r7, r6
    15e4:	00240200 	eoreq	r0, r4, r0, lsl #4
    15e8:	0b3e0b0b 	bleq	f8421c <__bss_end__+0xf78e8c>
    15ec:	00000803 	andeq	r0, r0, r3, lsl #16
    15f0:	0b002403 	bleq	a604 <strcmp+0x40>
    15f4:	030b3e0b 	movweq	r3, #48651	; 0xbe0b
    15f8:	0400000e 	streq	r0, [r0], #-14
    15fc:	13490035 	movtne	r0, #36917	; 0x9035
    1600:	16050000 	strne	r0, [r5], -r0
    1604:	3a0e0300 	bcc	38220c <__bss_end__+0x376e7c>
    1608:	390b3b0b 	stmdbcc	fp, {r0, r1, r3, r8, r9, fp, ip, sp}
    160c:	0013490b 	andseq	r4, r3, fp, lsl #18
    1610:	01040600 	tsteq	r4, r0, lsl #12
    1614:	0b0b0b3e 	bleq	2c4314 <__bss_end__+0x2b8f84>
    1618:	0b3a1349 	bleq	e86344 <__bss_end__+0xe7afb4>
    161c:	0b390b3b 	bleq	e44310 <__bss_end__+0xe38f80>
    1620:	00001301 	andeq	r1, r0, r1, lsl #6
    1624:	03002807 	movweq	r2, #2055	; 0x807
    1628:	000b1c0e 	andeq	r1, fp, lr, lsl #24
    162c:	01130800 	tsteq	r3, r0, lsl #16
    1630:	0b0b0e03 	bleq	2c4e44 <__bss_end__+0x2b9ab4>
    1634:	0b3b0b3a 	bleq	ec4324 <__bss_end__+0xeb8f94>
    1638:	13010b39 	movwne	r0, #6969	; 0x1b39
    163c:	0d090000 	stceq	0, cr0, [r9, #-0]
    1640:	3a080300 	bcc	202248 <__bss_end__+0x1f6eb8>
    1644:	390b3b0b 	stmdbcc	fp, {r0, r1, r3, r8, r9, fp, ip, sp}
    1648:	3813490b 	ldmdacc	r3, {r0, r1, r3, r8, fp, lr}
    164c:	0a00000b 	beq	1680 <__code_start__-0x6980>
    1650:	0e03000d 	cdpeq	0, 0, cr0, cr3, cr13, {0}
    1654:	0b3b0b3a 	bleq	ec4344 <__bss_end__+0xeb8fb4>
    1658:	13490b39 	movtne	r0, #39737	; 0x9b39
    165c:	00000b38 	andeq	r0, r0, r8, lsr fp
    1660:	0300340b 	movweq	r3, #1035	; 0x40b
    1664:	3b0b3a0e 	blcc	2cfea4 <__bss_end__+0x2c4b14>
    1668:	490b390b 	stmdbmi	fp, {r0, r1, r3, r8, fp, ip, sp}
    166c:	00061c13 	andeq	r1, r6, r3, lsl ip
    1670:	000f0c00 	andeq	r0, pc, r0, lsl #24
    1674:	13490b0b 	movtne	r0, #39691	; 0x9b0b
    1678:	260d0000 	strcs	r0, [sp], -r0
    167c:	00134900 	andseq	r4, r3, r0, lsl #18
    1680:	012e0e00 			; <UNDEFINED> instruction: 0x012e0e00
    1684:	0e03193f 			; <UNDEFINED> instruction: 0x0e03193f
    1688:	0b3b0b3a 	bleq	ec4378 <__bss_end__+0xeb8fe8>
    168c:	19270b39 	stmdbne	r7!, {r0, r3, r4, r5, r8, r9, fp}
    1690:	06120111 			; <UNDEFINED> instruction: 0x06120111
    1694:	42971840 	addsmi	r1, r7, #64, 16	; 0x400000
    1698:	00130119 	andseq	r0, r3, r9, lsl r1
    169c:	82890f00 	addhi	r0, r9, #0, 30
    16a0:	01110001 	tsteq	r1, r1
    16a4:	00001331 	andeq	r1, r0, r1, lsr r3
    16a8:	3f012e10 	svccc	0x00012e10
    16ac:	3a0e0319 	bcc	382318 <__bss_end__+0x376f88>
    16b0:	390b3b0b 	stmdbcc	fp, {r0, r1, r3, r8, r9, fp, ip, sp}
    16b4:	4919270b 	ldmdbmi	r9, {r0, r1, r3, r8, r9, sl, sp}
    16b8:	12011113 	andne	r1, r1, #-1073741820	; 0xc0000004
    16bc:	97184006 	ldrls	r4, [r8, -r6]
    16c0:	13011942 	movwne	r1, #6466	; 0x1942
    16c4:	89110000 	ldmdbhi	r1, {}	; <UNPREDICTABLE>
    16c8:	11010182 	smlabbne	r1, r2, r1, r0
    16cc:	00133101 	andseq	r3, r3, r1, lsl #2
    16d0:	828a1200 	addhi	r1, sl, #0, 4
    16d4:	18020001 	stmdane	r2, {r0}
    16d8:	00184291 	mulseq	r8, r1, r2
    16dc:	00051300 	andeq	r1, r5, r0, lsl #6
    16e0:	0b3a0803 	bleq	e836f4 <__bss_end__+0xe78364>
    16e4:	0b390b3b 	bleq	e443d8 <__bss_end__+0xe39048>
    16e8:	17021349 	strne	r1, [r2, -r9, asr #6]
    16ec:	001742b7 			; <UNDEFINED> instruction: 0x001742b7
    16f0:	82891400 	addhi	r1, r9, #0, 8
    16f4:	01110101 	tsteq	r1, r1, lsl #2
    16f8:	13011331 	movwne	r1, #4913	; 0x1331
    16fc:	34150000 	ldrcc	r0, [r5], #-0
    1700:	3a080300 	bcc	202308 <__bss_end__+0x1f6f78>
    1704:	390b3b0b 	stmdbcc	fp, {r0, r1, r3, r8, r9, fp, ip, sp}
    1708:	0213490b 	andseq	r4, r3, #180224	; 0x2c000
    170c:	1742b717 	smlaldne	fp, r2, r7, r7
    1710:	34160000 	ldrcc	r0, [r6], #-0
    1714:	3a0e0300 	bcc	38231c <__bss_end__+0x376f8c>
    1718:	390b3b0b 	stmdbcc	fp, {r0, r1, r3, r8, r9, fp, ip, sp}
    171c:	1c13490b 			; <UNDEFINED> instruction: 0x1c13490b
    1720:	17000005 	strne	r0, [r0, -r5]
    1724:	0e03012e 	adfeqsp	f0, f3, #0.5
    1728:	0b3b0b3a 	bleq	ec4418 <__bss_end__+0xeb9088>
    172c:	19270b39 	stmdbne	r7!, {r0, r3, r4, r5, r8, r9, fp}
    1730:	06120111 			; <UNDEFINED> instruction: 0x06120111
    1734:	42971840 	addsmi	r1, r7, #64, 16	; 0x400000
    1738:	00130119 	andseq	r0, r3, r9, lsl r1
    173c:	00051800 	andeq	r1, r5, r0, lsl #16
    1740:	0b3a0e03 	bleq	e84f54 <__bss_end__+0xe79bc4>
    1744:	0b390b3b 	bleq	e44438 <__bss_end__+0xe390a8>
    1748:	17021349 	strne	r1, [r2, -r9, asr #6]
    174c:	001742b7 			; <UNDEFINED> instruction: 0x001742b7
    1750:	00351900 	eorseq	r1, r5, r0, lsl #18
    1754:	2e1a0000 	cdpcs	0, 1, cr0, cr10, cr0, {0}
    1758:	3c193f00 	ldccc	15, cr3, [r9], {-0}
    175c:	030e6e19 	movweq	r6, #60953	; 0xee19
    1760:	3b0b3a0e 	blcc	2cffa0 <__bss_end__+0x2c4c10>
    1764:	000b390b 	andeq	r3, fp, fp, lsl #18
    1768:	11010000 	mrsne	r0, (UNDEF: 1)
    176c:	130e2501 	movwne	r2, #58625	; 0xe501
    1770:	1b0e030b 	blne	3823a4 <__bss_end__+0x377014>
    1774:	1201110e 	andne	r1, r1, #-2147483645	; 0x80000003
    1778:	00171006 	andseq	r1, r7, r6
    177c:	00240200 	eoreq	r0, r4, r0, lsl #4
    1780:	0b3e0b0b 	bleq	f843b4 <__bss_end__+0xf79024>
    1784:	00000803 	andeq	r0, r0, r3, lsl #16
    1788:	0b002403 	bleq	a79c <__FUNCTION__.4028+0xa8>
    178c:	030b3e0b 	movweq	r3, #48651	; 0xbe0b
    1790:	0400000e 	streq	r0, [r0], #-14
    1794:	0e030016 	mcreq	0, 0, r0, cr3, cr6, {0}
    1798:	0b3b0b3a 	bleq	ec4488 <__bss_end__+0xeb90f8>
    179c:	13490b39 	movtne	r0, #39737	; 0x9b39
    17a0:	26050000 	strcs	r0, [r5], -r0
    17a4:	00134900 	andseq	r4, r3, r0, lsl #18
    17a8:	000f0600 	andeq	r0, pc, r0, lsl #12
    17ac:	00000b0b 	andeq	r0, r0, fp, lsl #22
    17b0:	3e010407 	cdpcc	4, 0, cr0, cr1, cr7, {0}
    17b4:	490b0b0b 	stmdbmi	fp, {r0, r1, r3, r8, r9, fp}
    17b8:	3b0b3a13 	blcc	2d000c <__bss_end__+0x2c4c7c>
    17bc:	010b390b 	tsteq	fp, fp, lsl #18
    17c0:	08000013 	stmdaeq	r0, {r0, r1, r4}
    17c4:	0e030028 	cdpeq	0, 0, cr0, cr3, cr8, {1}
    17c8:	0000061c 	andeq	r0, r0, ip, lsl r6
    17cc:	03003409 	movweq	r3, #1033	; 0x409
    17d0:	3b0b3a0e 	blcc	2d0010 <__bss_end__+0x2c4c80>
    17d4:	490b390b 	stmdbmi	fp, {r0, r1, r3, r8, fp, ip, sp}
    17d8:	3c193f13 	ldccc	15, cr3, [r9], {19}
    17dc:	0a000019 	beq	1848 <__code_start__-0x67b8>
    17e0:	0e030034 	mcreq	0, 0, r0, cr3, cr4, {1}
    17e4:	0b3b0b3a 	bleq	ec44d4 <__bss_end__+0xeb9144>
    17e8:	13490b39 	movtne	r0, #39737	; 0x9b39
    17ec:	00001802 	andeq	r1, r0, r2, lsl #16
    17f0:	0b000f0b 	bleq	5424 <__code_start__-0x2bdc>
    17f4:	0013490b 	andseq	r4, r3, fp, lsl #18
    17f8:	012e0c00 			; <UNDEFINED> instruction: 0x012e0c00
    17fc:	0e03193f 			; <UNDEFINED> instruction: 0x0e03193f
    1800:	0b3b0b3a 	bleq	ec44f0 <__bss_end__+0xeb9160>
    1804:	19270b39 	stmdbne	r7!, {r0, r3, r4, r5, r8, r9, fp}
    1808:	06120111 			; <UNDEFINED> instruction: 0x06120111
    180c:	42971840 	addsmi	r1, r7, #64, 16	; 0x400000
    1810:	00130119 	andseq	r0, r3, r9, lsl r1
    1814:	00050d00 	andeq	r0, r5, r0, lsl #26
    1818:	0b3a0803 	bleq	e8382c <__bss_end__+0xe7849c>
    181c:	0b390b3b 	bleq	e44510 <__bss_end__+0xe39180>
    1820:	17021349 	strne	r1, [r2, -r9, asr #6]
    1824:	001742b7 			; <UNDEFINED> instruction: 0x001742b7
    1828:	00340e00 	eorseq	r0, r4, r0, lsl #28
    182c:	13490e03 	movtne	r0, #40451	; 0x9e03
    1830:	18021934 	stmdane	r2, {r2, r4, r5, r8, fp, ip}
    1834:	890f0000 	stmdbhi	pc, {}	; <UNPREDICTABLE>
    1838:	11010182 	smlabbne	r1, r2, r1, r0
    183c:	01133101 	tsteq	r3, r1, lsl #2
    1840:	10000013 	andne	r0, r0, r3, lsl r0
    1844:	0001828a 	andeq	r8, r1, sl, lsl #5
    1848:	42911802 	addsmi	r1, r1, #131072	; 0x20000
    184c:	11000018 	tstne	r0, r8, lsl r0
    1850:	00018289 	andeq	r8, r1, r9, lsl #5
    1854:	13310111 	teqne	r1, #1073741828	; 0x40000004
    1858:	01120000 	tsteq	r2, r0
    185c:	01134901 	tsteq	r3, r1, lsl #18
    1860:	13000013 	movwne	r0, #19
    1864:	13490021 	movtne	r0, #36897	; 0x9021
    1868:	00000b2f 	andeq	r0, r0, pc, lsr #22
    186c:	3f002e14 	svccc	0x00002e14
    1870:	3a0e0319 	bcc	3824dc <__bss_end__+0x37714c>
    1874:	390b3b0b 	stmdbcc	fp, {r0, r1, r3, r8, r9, fp, ip, sp}
    1878:	1119270b 	tstne	r9, fp, lsl #14
    187c:	40061201 	andmi	r1, r6, r1, lsl #4
    1880:	19429718 	stmdbne	r2, {r3, r4, r8, r9, sl, ip, pc}^
    1884:	05150000 	ldreq	r0, [r5, #-0]
    1888:	3a080300 	bcc	202490 <__bss_end__+0x1f7100>
    188c:	390b3b0b 	stmdbcc	fp, {r0, r1, r3, r8, r9, fp, ip, sp}
    1890:	0213490b 	andseq	r4, r3, #180224	; 0x2c000
    1894:	16000018 			; <UNDEFINED> instruction: 0x16000018
    1898:	193f012e 	ldmdbne	pc!, {r1, r2, r3, r5, r8}	; <UNPREDICTABLE>
    189c:	0b3a0e03 	bleq	e850b0 <__bss_end__+0xe79d20>
    18a0:	0b390b3b 	bleq	e44594 <__bss_end__+0xe39204>
    18a4:	13491927 	movtne	r1, #39207	; 0x9927
    18a8:	06120111 			; <UNDEFINED> instruction: 0x06120111
    18ac:	42971840 	addsmi	r1, r7, #64, 16	; 0x400000
    18b0:	00130119 	andseq	r0, r3, r9, lsl r1
    18b4:	00051700 	andeq	r1, r5, r0, lsl #14
    18b8:	0b3a0e03 	bleq	e850cc <__bss_end__+0xe79d3c>
    18bc:	0b390b3b 	bleq	e445b0 <__bss_end__+0xe39220>
    18c0:	17021349 	strne	r1, [r2, -r9, asr #6]
    18c4:	001742b7 			; <UNDEFINED> instruction: 0x001742b7
    18c8:	00341800 	eorseq	r1, r4, r0, lsl #16
    18cc:	0b3a0803 	bleq	e838e0 <__bss_end__+0xe78550>
    18d0:	0b390b3b 	bleq	e445c4 <__bss_end__+0xe39234>
    18d4:	17021349 	strne	r1, [r2, -r9, asr #6]
    18d8:	001742b7 			; <UNDEFINED> instruction: 0x001742b7
    18dc:	011d1900 	tsteq	sp, r0, lsl #18
    18e0:	01521331 	cmpeq	r2, r1, lsr r3
    18e4:	110b42b8 			; <UNDEFINED> instruction: 0x110b42b8
    18e8:	58061201 	stmdapl	r6, {r0, r9, ip}
    18ec:	570b590b 	strpl	r5, [fp, -fp, lsl #18]
    18f0:	0013010b 	andseq	r0, r3, fp, lsl #2
    18f4:	00051a00 	andeq	r1, r5, r0, lsl #20
    18f8:	17021331 	smladxne	r2, r1, r3, r1
    18fc:	001742b7 			; <UNDEFINED> instruction: 0x001742b7
    1900:	011d1b00 	tsteq	sp, r0, lsl #22
    1904:	01521331 	cmpeq	r2, r1, lsr r3
    1908:	550b42b8 	strpl	r4, [fp, #-696]	; 0xfffffd48
    190c:	590b5817 	stmdbpl	fp, {r0, r1, r2, r4, fp, ip, lr}
    1910:	010b570b 	tsteq	fp, fp, lsl #14
    1914:	1c000013 	stcne	0, cr0, [r0], {19}
    1918:	1755010b 	ldrbne	r0, [r5, -fp, lsl #2]
    191c:	341d0000 	ldrcc	r0, [sp], #-0
    1920:	3a0e0300 	bcc	382528 <__bss_end__+0x377198>
    1924:	390b3b0b 	stmdbcc	fp, {r0, r1, r3, r8, r9, fp, ip, sp}
    1928:	0213490b 	andseq	r4, r3, #180224	; 0x2c000
    192c:	1742b717 	smlaldne	fp, r2, r7, r7
    1930:	0b1e0000 	bleq	781938 <__bss_end__+0x7765a8>
    1934:	00175500 	andseq	r5, r7, r0, lsl #10
    1938:	002e1f00 	eoreq	r1, lr, r0, lsl #30
    193c:	0e03193f 			; <UNDEFINED> instruction: 0x0e03193f
    1940:	0b3b0b3a 	bleq	ec4630 <__bss_end__+0xeb92a0>
    1944:	19270b39 	stmdbne	r7!, {r0, r3, r4, r5, r8, r9, fp}
    1948:	01111349 	tsteq	r1, r9, asr #6
    194c:	18400612 	stmdane	r0, {r1, r4, r9, sl}^
    1950:	00194297 	mulseq	r9, r7, r2
    1954:	012e2000 			; <UNDEFINED> instruction: 0x012e2000
    1958:	0b3a0e03 	bleq	e8516c <__bss_end__+0xe79ddc>
    195c:	0b390b3b 	bleq	e44650 <__bss_end__+0xe392c0>
    1960:	13491927 	movtne	r1, #39207	; 0x9927
    1964:	13010b20 	movwne	r0, #6944	; 0x1b20
    1968:	05210000 	streq	r0, [r1, #-0]!
    196c:	3a080300 	bcc	202574 <__bss_end__+0x1f71e4>
    1970:	390b3b0b 	stmdbcc	fp, {r0, r1, r3, r8, r9, fp, ip, sp}
    1974:	0013490b 	andseq	r4, r3, fp, lsl #18
    1978:	002e2200 	eoreq	r2, lr, r0, lsl #4
    197c:	193c193f 	ldmdbne	ip!, {r0, r1, r2, r3, r4, r5, r8, fp, ip}
    1980:	0e030e6e 	cdpeq	14, 0, cr0, cr3, cr14, {3}
    1984:	0b3b0b3a 	bleq	ec4674 <__bss_end__+0xeb92e4>
    1988:	00000b39 	andeq	r0, r0, r9, lsr fp
    198c:	01110100 	tsteq	r1, r0, lsl #2
    1990:	0b130e25 	bleq	4c522c <__bss_end__+0x4b9e9c>
    1994:	0e1b0e03 	cdpeq	14, 1, cr0, cr11, cr3, {0}
    1998:	06120111 			; <UNDEFINED> instruction: 0x06120111
    199c:	00001710 	andeq	r1, r0, r0, lsl r7
    19a0:	0b002402 	bleq	a9b0 <__FUNCTION__.4081+0x1bc>
    19a4:	030b3e0b 	movweq	r3, #48651	; 0xbe0b
    19a8:	0300000e 	movweq	r0, #14
    19ac:	0b0b0024 	bleq	2c1a44 <__bss_end__+0x2b66b4>
    19b0:	08030b3e 	stmdaeq	r3, {r1, r2, r3, r4, r5, r8, r9, fp}
    19b4:	26040000 	strcs	r0, [r4], -r0
    19b8:	00134900 	andseq	r4, r3, r0, lsl #18
    19bc:	00160500 	andseq	r0, r6, r0, lsl #10
    19c0:	0b3a0e03 	bleq	e851d4 <__bss_end__+0xe79e44>
    19c4:	0b390b3b 	bleq	e446b8 <__bss_end__+0xe39328>
    19c8:	00001349 	andeq	r1, r0, r9, asr #6
    19cc:	27011506 	strcs	r1, [r1, -r6, lsl #10]
    19d0:	01134919 	tsteq	r3, r9, lsl r9
    19d4:	07000013 	smladeq	r0, r3, r0, r0
    19d8:	13490005 	movtne	r0, #36869	; 0x9005
    19dc:	34080000 	strcc	r0, [r8], #-0
    19e0:	3a0e0300 	bcc	3825e8 <__bss_end__+0x377258>
    19e4:	390b3b0b 	stmdbcc	fp, {r0, r1, r3, r8, r9, fp, ip, sp}
    19e8:	3f13490b 	svccc	0x0013490b
    19ec:	00193c19 	andseq	r3, r9, r9, lsl ip
    19f0:	000f0900 	andeq	r0, pc, r0, lsl #18
    19f4:	13490b0b 	movtne	r0, #39691	; 0x9b0b
    19f8:	040a0000 	streq	r0, [sl], #-0
    19fc:	0b0b3e01 	bleq	2d1208 <__bss_end__+0x2c5e78>
    1a00:	3a13490b 	bcc	4d3e34 <__bss_end__+0x4c8aa4>
    1a04:	390b3b0b 	stmdbcc	fp, {r0, r1, r3, r8, r9, fp, ip, sp}
    1a08:	0013010b 	andseq	r0, r3, fp, lsl #2
    1a0c:	00280b00 	eoreq	r0, r8, r0, lsl #22
    1a10:	0b1c0e03 	bleq	705224 <__bss_end__+0x6f9e94>
    1a14:	340c0000 	strcc	r0, [ip], #-0
    1a18:	3a0e0300 	bcc	382620 <__bss_end__+0x377290>
    1a1c:	390b3b0b 	stmdbcc	fp, {r0, r1, r3, r8, r9, fp, ip, sp}
    1a20:	1c13490b 			; <UNDEFINED> instruction: 0x1c13490b
    1a24:	0d000006 	stceq	0, cr0, [r0, #-24]	; 0xffffffe8
    1a28:	193f012e 	ldmdbne	pc!, {r1, r2, r3, r5, r8}	; <UNPREDICTABLE>
    1a2c:	0b3a0e03 	bleq	e85240 <__bss_end__+0xe79eb0>
    1a30:	0b390b3b 	bleq	e44724 <__bss_end__+0xe39394>
    1a34:	13491927 	movtne	r1, #39207	; 0x9927
    1a38:	06120111 			; <UNDEFINED> instruction: 0x06120111
    1a3c:	42971840 	addsmi	r1, r7, #64, 16	; 0x400000
    1a40:	00130119 	andseq	r0, r3, r9, lsl r1
    1a44:	00050e00 	andeq	r0, r5, r0, lsl #28
    1a48:	0b3a0803 	bleq	e83a5c <__bss_end__+0xe786cc>
    1a4c:	0b390b3b 	bleq	e44740 <__bss_end__+0xe393b0>
    1a50:	17021349 	strne	r1, [r2, -r9, asr #6]
    1a54:	001742b7 			; <UNDEFINED> instruction: 0x001742b7
    1a58:	00340f00 	eorseq	r0, r4, r0, lsl #30
    1a5c:	0b3a0e03 	bleq	e85270 <__bss_end__+0xe79ee0>
    1a60:	0b390b3b 	bleq	e44754 <__bss_end__+0xe393c4>
    1a64:	17021349 	strne	r1, [r2, -r9, asr #6]
    1a68:	001742b7 			; <UNDEFINED> instruction: 0x001742b7
    1a6c:	00341000 	eorseq	r1, r4, r0
    1a70:	0b3a0803 	bleq	e83a84 <__bss_end__+0xe786f4>
    1a74:	0b390b3b 	bleq	e44768 <__bss_end__+0xe393d8>
    1a78:	17021349 	strne	r1, [r2, -r9, asr #6]
    1a7c:	001742b7 			; <UNDEFINED> instruction: 0x001742b7
    1a80:	82891100 	addhi	r1, r9, #0
    1a84:	01110101 	tsteq	r1, r1, lsl #2
    1a88:	00001331 	andeq	r1, r0, r1, lsr r3
    1a8c:	01828a12 	orreq	r8, r2, r2, lsl sl
    1a90:	91180200 	tstls	r8, r0, lsl #4
    1a94:	00001842 	andeq	r1, r0, r2, asr #16
    1a98:	3f012e13 	svccc	0x00012e13
    1a9c:	3a0e0319 	bcc	382708 <__bss_end__+0x377378>
    1aa0:	390b3b0b 	stmdbcc	fp, {r0, r1, r3, r8, r9, fp, ip, sp}
    1aa4:	1119270b 	tstne	r9, fp, lsl #14
    1aa8:	40061201 	andmi	r1, r6, r1, lsl #4
    1aac:	19429718 	stmdbne	r2, {r3, r4, r8, r9, sl, ip, pc}^
    1ab0:	00001301 	andeq	r1, r0, r1, lsl #6
    1ab4:	31011d14 	tstcc	r1, r4, lsl sp
    1ab8:	b8015213 	stmdalt	r1, {r0, r1, r4, r9, ip, lr}
    1abc:	17550b42 	ldrbne	r0, [r5, -r2, asr #22]
    1ac0:	0b590b58 	bleq	1644828 <__bss_end__+0x1639498>
    1ac4:	13010b57 	movwne	r0, #6999	; 0x1b57
    1ac8:	05150000 	ldreq	r0, [r5, #-0]
    1acc:	02133100 	andseq	r3, r3, #0
    1ad0:	1742b717 	smlaldne	fp, r2, r7, r7
    1ad4:	89160000 	ldmdbhi	r6, {}	; <UNPREDICTABLE>
    1ad8:	11010182 	smlabbne	r1, r2, r1, r0
    1adc:	19429501 	stmdbne	r2, {r0, r8, sl, ip, pc}^
    1ae0:	00001331 	andeq	r1, r0, r1, lsr r3
    1ae4:	31011d17 	tstcc	r1, r7, lsl sp
    1ae8:	b8015213 	stmdalt	r1, {r0, r1, r4, r9, ip, lr}
    1aec:	01110b42 	tsteq	r1, r2, asr #22
    1af0:	0b580612 	bleq	1603340 <__bss_end__+0x15f7fb0>
    1af4:	0b570b59 	bleq	15c4860 <__bss_end__+0x15b94d0>
    1af8:	1d180000 	ldcne	0, cr0, [r8, #-0]
    1afc:	52133101 	andspl	r3, r3, #1073741824	; 0x40000000
    1b00:	0b42b801 	bleq	10afb0c <__bss_end__+0x10a477c>
    1b04:	0b581755 	bleq	1607860 <__bss_end__+0x15fc4d0>
    1b08:	0b570b59 	bleq	15c4874 <__bss_end__+0x15b94e4>
    1b0c:	05190000 	ldreq	r0, [r9, #-0]
    1b10:	1c133100 	ldfnes	f3, [r3], {-0}
    1b14:	1a00000b 	bne	1b48 <__code_start__-0x64b8>
    1b18:	1755010b 	ldrbne	r0, [r5, -fp, lsl #2]
    1b1c:	341b0000 	ldrcc	r0, [fp], #-0
    1b20:	00133100 	andseq	r3, r3, r0, lsl #2
    1b24:	00341c00 	eorseq	r1, r4, r0, lsl #24
    1b28:	17021331 	smladxne	r2, r1, r3, r1
    1b2c:	001742b7 			; <UNDEFINED> instruction: 0x001742b7
    1b30:	82891d00 	addhi	r1, r9, #0, 26
    1b34:	01110101 	tsteq	r1, r1, lsl #2
    1b38:	13011331 	movwne	r1, #4913	; 0x1331
    1b3c:	2e1e0000 	cdpcs	0, 1, cr0, cr14, cr0, {0}
    1b40:	03193f01 	tsteq	r9, #1, 30
    1b44:	3b0b3a0e 	blcc	2d0384 <__bss_end__+0x2c4ff4>
    1b48:	270b390b 	strcs	r3, [fp, -fp, lsl #18]
    1b4c:	010b2019 	tsteq	fp, r9, lsl r0
    1b50:	1f000013 	svcne	0x00000013
    1b54:	08030005 	stmdaeq	r3, {r0, r2}
    1b58:	0b3b0b3a 	bleq	ec4848 <__bss_end__+0xeb94b8>
    1b5c:	13490b39 	movtne	r0, #39737	; 0x9b39
    1b60:	05200000 	streq	r0, [r0, #-0]!
    1b64:	3a0e0300 	bcc	38276c <__bss_end__+0x3773dc>
    1b68:	390b3b0b 	stmdbcc	fp, {r0, r1, r3, r8, r9, fp, ip, sp}
    1b6c:	0013490b 	andseq	r4, r3, fp, lsl #18
    1b70:	00342100 	eorseq	r2, r4, r0, lsl #2
    1b74:	0b3a0803 	bleq	e83b88 <__bss_end__+0xe787f8>
    1b78:	0b390b3b 	bleq	e4486c <__bss_end__+0xe394dc>
    1b7c:	00001349 	andeq	r1, r0, r9, asr #6
    1b80:	03012e22 	movweq	r2, #7714	; 0x1e22
    1b84:	3b0b3a0e 	blcc	2d03c4 <__bss_end__+0x2c5034>
    1b88:	270b390b 	strcs	r3, [fp, -fp, lsl #18]
    1b8c:	20134919 	andscs	r4, r3, r9, lsl r9
    1b90:	0013010b 	andseq	r0, r3, fp, lsl #2
    1b94:	012e2300 			; <UNDEFINED> instruction: 0x012e2300
    1b98:	01111331 	tsteq	r1, r1, lsr r3
    1b9c:	18400612 	stmdane	r0, {r1, r4, r9, sl}^
    1ba0:	01194297 			; <UNDEFINED> instruction: 0x01194297
    1ba4:	24000013 	strcs	r0, [r0], #-19	; 0xffffffed
    1ba8:	193f002e 	ldmdbne	pc!, {r1, r2, r3, r5}	; <UNPREDICTABLE>
    1bac:	0e6e193c 			; <UNDEFINED> instruction: 0x0e6e193c
    1bb0:	0b3a0e03 	bleq	e853c4 <__bss_end__+0xe7a034>
    1bb4:	0b390b3b 	bleq	e448a8 <__bss_end__+0xe39518>
    1bb8:	01000000 	mrseq	r0, (UNDEF: 0)
    1bbc:	0e250111 	mcreq	1, 1, r0, cr5, cr1, {0}
    1bc0:	0e030b13 	vmoveq.32	d3[0], r0
    1bc4:	01110e1b 	tsteq	r1, fp, lsl lr
    1bc8:	17100612 			; <UNDEFINED> instruction: 0x17100612
    1bcc:	24020000 	strcs	r0, [r2], #-0
    1bd0:	3e0b0b00 	vmlacc.f64	d0, d11, d0
    1bd4:	0008030b 	andeq	r0, r8, fp, lsl #6
    1bd8:	00240300 	eoreq	r0, r4, r0, lsl #6
    1bdc:	0b3e0b0b 	bleq	f84810 <__bss_end__+0xf79480>
    1be0:	00000e03 	andeq	r0, r0, r3, lsl #28
    1be4:	27011504 	strcs	r1, [r1, -r4, lsl #10]
    1be8:	01134919 	tsteq	r3, r9, lsl r9
    1bec:	05000013 	streq	r0, [r0, #-19]	; 0xffffffed
    1bf0:	13490005 	movtne	r0, #36869	; 0x9005
    1bf4:	34060000 	strcc	r0, [r6], #-0
    1bf8:	3a0e0300 	bcc	382800 <__bss_end__+0x377470>
    1bfc:	390b3b0b 	stmdbcc	fp, {r0, r1, r3, r8, r9, fp, ip, sp}
    1c00:	3f13490b 	svccc	0x0013490b
    1c04:	00193c19 	andseq	r3, r9, r9, lsl ip
    1c08:	000f0700 	andeq	r0, pc, r0, lsl #14
    1c0c:	13490b0b 	movtne	r0, #39691	; 0x9b0b
    1c10:	26080000 	strcs	r0, [r8], -r0
    1c14:	00134900 	andseq	r4, r3, r0, lsl #18
    1c18:	00340900 	eorseq	r0, r4, r0, lsl #18
    1c1c:	0b3a1347 	bleq	e86940 <__bss_end__+0xe7b5b0>
    1c20:	0b390b3b 	bleq	e44914 <__bss_end__+0xe39584>
    1c24:	00001802 	andeq	r1, r0, r2, lsl #16
    1c28:	3f012e0a 	svccc	0x00012e0a
    1c2c:	3a0e0319 	bcc	382898 <__bss_end__+0x377508>
    1c30:	390b3b0b 	stmdbcc	fp, {r0, r1, r3, r8, r9, fp, ip, sp}
    1c34:	1119270b 	tstne	r9, fp, lsl #14
    1c38:	40061201 	andmi	r1, r6, r1, lsl #4
    1c3c:	19429718 	stmdbne	r2, {r3, r4, r8, r9, sl, ip, pc}^
    1c40:	00001301 	andeq	r1, r0, r1, lsl #6
    1c44:	0300050b 	movweq	r0, #1291	; 0x50b
    1c48:	3b0b3a08 	blcc	2d0470 <__bss_end__+0x2c50e0>
    1c4c:	490b390b 	stmdbmi	fp, {r0, r1, r3, r8, fp, ip, sp}
    1c50:	00180213 	andseq	r0, r8, r3, lsl r2
    1c54:	002e0c00 	eoreq	r0, lr, r0, lsl #24
    1c58:	0e03193f 			; <UNDEFINED> instruction: 0x0e03193f
    1c5c:	0b3b0b3a 	bleq	ec494c <__bss_end__+0xeb95bc>
    1c60:	19270b39 	stmdbne	r7!, {r0, r3, r4, r5, r8, r9, fp}
    1c64:	06120111 			; <UNDEFINED> instruction: 0x06120111
    1c68:	42971840 	addsmi	r1, r7, #64, 16	; 0x400000
    1c6c:	0d000019 	stceq	0, cr0, [r0, #-100]	; 0xffffff9c
    1c70:	0e03012e 	adfeqsp	f0, f3, #0.5
    1c74:	0b3b0b3a 	bleq	ec4964 <__bss_end__+0xeb95d4>
    1c78:	19270b39 	stmdbne	r7!, {r0, r3, r4, r5, r8, r9, fp}
    1c7c:	01111349 	tsteq	r1, r9, asr #6
    1c80:	18400612 	stmdane	r0, {r1, r4, r9, sl}^
    1c84:	01194297 			; <UNDEFINED> instruction: 0x01194297
    1c88:	0e000013 	mcreq	0, 0, r0, cr0, cr3, {0}
    1c8c:	08030005 	stmdaeq	r3, {r0, r2}
    1c90:	0b3b0b3a 	bleq	ec4980 <__bss_end__+0xeb95f0>
    1c94:	13490b39 	movtne	r0, #39737	; 0x9b39
    1c98:	42b71702 	adcsmi	r1, r7, #524288	; 0x80000
    1c9c:	0f000017 	svceq	0x00000017
    1ca0:	01018289 	smlabbeq	r1, r9, r2, r8
    1ca4:	13310111 	teqne	r1, #1073741828	; 0x40000004
    1ca8:	8a100000 	bhi	401cb0 <__bss_end__+0x3f6920>
    1cac:	02000182 	andeq	r0, r0, #-2147483616	; 0x80000020
    1cb0:	18429118 	stmdane	r2, {r3, r4, r8, ip, pc}^
    1cb4:	2e110000 	cdpcs	0, 1, cr0, cr1, cr0, {0}
    1cb8:	3c193f00 	ldccc	15, cr3, [r9], {-0}
    1cbc:	030e6e19 	movweq	r6, #60953	; 0xee19
    1cc0:	3b0b3a0e 	blcc	2d0500 <__bss_end__+0x2c5170>
    1cc4:	000b390b 	andeq	r3, fp, fp, lsl #18
    1cc8:	11010000 	mrsne	r0, (UNDEF: 1)
    1ccc:	130e2501 	movwne	r2, #58625	; 0xe501
    1cd0:	1b0e030b 	blne	382904 <__bss_end__+0x377574>
    1cd4:	1201110e 	andne	r1, r1, #-2147483645	; 0x80000003
    1cd8:	00171006 	andseq	r1, r7, r6
    1cdc:	00240200 	eoreq	r0, r4, r0, lsl #4
    1ce0:	0b3e0b0b 	bleq	f84914 <__bss_end__+0xf79584>
    1ce4:	00000803 	andeq	r0, r0, r3, lsl #16
    1ce8:	0b002403 	bleq	acfc <__FUNCTION__.4134+0x13c>
    1cec:	030b3e0b 	movweq	r3, #48651	; 0xbe0b
    1cf0:	0400000e 	streq	r0, [r0], #-14
    1cf4:	19270115 	stmdbne	r7!, {r0, r2, r4, r8}
    1cf8:	13011349 	movwne	r1, #4937	; 0x1349
    1cfc:	05050000 	streq	r0, [r5, #-0]
    1d00:	00134900 	andseq	r4, r3, r0, lsl #18
    1d04:	00340600 	eorseq	r0, r4, r0, lsl #12
    1d08:	0b3a0e03 	bleq	e8551c <__bss_end__+0xe7a18c>
    1d0c:	0b390b3b 	bleq	e44a00 <__bss_end__+0xe39670>
    1d10:	193f1349 	ldmdbne	pc!, {r0, r3, r6, r8, r9, ip}	; <UNPREDICTABLE>
    1d14:	0000193c 	andeq	r1, r0, ip, lsr r9
    1d18:	0b000f07 	bleq	593c <__code_start__-0x26c4>
    1d1c:	0013490b 	andseq	r4, r3, fp, lsl #18
    1d20:	00260800 	eoreq	r0, r6, r0, lsl #16
    1d24:	00001349 	andeq	r1, r0, r9, asr #6
    1d28:	3f012e09 	svccc	0x00012e09
    1d2c:	3a0e0319 	bcc	382998 <__bss_end__+0x377608>
    1d30:	390b3b0b 	stmdbcc	fp, {r0, r1, r3, r8, r9, fp, ip, sp}
    1d34:	4919270b 	ldmdbmi	r9, {r0, r1, r3, r8, r9, sl, sp}
    1d38:	12011113 	andne	r1, r1, #-1073741820	; 0xc0000004
    1d3c:	97184006 	ldrls	r4, [r8, -r6]
    1d40:	13011942 	movwne	r1, #6466	; 0x1942
    1d44:	050a0000 	streq	r0, [sl, #-0]
    1d48:	3a0e0300 	bcc	382950 <__bss_end__+0x3775c0>
    1d4c:	390b3b0b 	stmdbcc	fp, {r0, r1, r3, r8, r9, fp, ip, sp}
    1d50:	0213490b 	andseq	r4, r3, #180224	; 0x2c000
    1d54:	0b000018 	bleq	1dbc <__code_start__-0x6244>
    1d58:	08030005 	stmdaeq	r3, {r0, r2}
    1d5c:	0b3b0b3a 	bleq	ec4a4c <__bss_end__+0xeb96bc>
    1d60:	13490b39 	movtne	r0, #39737	; 0x9b39
    1d64:	42b71702 	adcsmi	r1, r7, #524288	; 0x80000
    1d68:	0c000017 	stceq	0, cr0, [r0], {23}
    1d6c:	08030034 	stmdaeq	r3, {r2, r4, r5}
    1d70:	0b3b0b3a 	bleq	ec4a60 <__bss_end__+0xeb96d0>
    1d74:	13490b39 	movtne	r0, #39737	; 0x9b39
    1d78:	42b71702 	adcsmi	r1, r7, #524288	; 0x80000
    1d7c:	00000017 	andeq	r0, r0, r7, lsl r0
    1d80:	25011101 	strcs	r1, [r1, #-257]	; 0xfffffeff
    1d84:	030b130e 	movweq	r1, #45838	; 0xb30e
    1d88:	110e1b0e 	tstne	lr, lr, lsl #22
    1d8c:	10061201 	andne	r1, r6, r1, lsl #4
    1d90:	02000017 	andeq	r0, r0, #23, 0
    1d94:	0b0b0024 	bleq	2c1e2c <__bss_end__+0x2b6a9c>
    1d98:	08030b3e 	stmdaeq	r3, {r1, r2, r3, r4, r5, r8, r9, fp}
    1d9c:	24030000 	strcs	r0, [r3], #-0
    1da0:	3e0b0b00 	vmlacc.f64	d0, d11, d0
    1da4:	000e030b 	andeq	r0, lr, fp, lsl #6
    1da8:	01150400 	tsteq	r5, r0, lsl #8
    1dac:	13491927 	movtne	r1, #39207	; 0x9927
    1db0:	00001301 	andeq	r1, r0, r1, lsl #6
    1db4:	49000505 	stmdbmi	r0, {r0, r2, r8, sl}
    1db8:	06000013 			; <UNDEFINED> instruction: 0x06000013
    1dbc:	0e030034 	mcreq	0, 0, r0, cr3, cr4, {1}
    1dc0:	0b3b0b3a 	bleq	ec4ab0 <__bss_end__+0xeb9720>
    1dc4:	13490b39 	movtne	r0, #39737	; 0x9b39
    1dc8:	193c193f 	ldmdbne	ip!, {r0, r1, r2, r3, r4, r5, r8, fp, ip}
    1dcc:	0f070000 	svceq	0x00070000
    1dd0:	490b0b00 	stmdbmi	fp, {r8, r9, fp}
    1dd4:	08000013 	stmdaeq	r0, {r0, r1, r4}
    1dd8:	13490026 	movtne	r0, #36902	; 0x9026
    1ddc:	2e090000 	cdpcs	0, 0, cr0, cr9, cr0, {0}
    1de0:	03193f01 	tsteq	r9, #1, 30
    1de4:	3b0b3a0e 	blcc	2d0624 <__bss_end__+0x2c5294>
    1de8:	270b390b 	strcs	r3, [fp, -fp, lsl #18]
    1dec:	11134919 	tstne	r3, r9, lsl r9
    1df0:	40061201 	andmi	r1, r6, r1, lsl #4
    1df4:	19429718 	stmdbne	r2, {r3, r4, r8, r9, sl, ip, pc}^
    1df8:	050a0000 	streq	r0, [sl, #-0]
    1dfc:	3a080300 	bcc	202a04 <__bss_end__+0x1f7674>
    1e00:	390b3b0b 	stmdbcc	fp, {r0, r1, r3, r8, r9, fp, ip, sp}
    1e04:	0213490b 	andseq	r4, r3, #180224	; 0x2c000
    1e08:	1742b717 	smlaldne	fp, r2, r7, r7
    1e0c:	01000000 	mrseq	r0, (UNDEF: 0)
    1e10:	0e250111 	mcreq	1, 1, r0, cr5, cr1, {0}
    1e14:	0e030b13 	vmoveq.32	d3[0], r0
    1e18:	01110e1b 	tsteq	r1, fp, lsl lr
    1e1c:	17100612 			; <UNDEFINED> instruction: 0x17100612
    1e20:	24020000 	strcs	r0, [r2], #-0
    1e24:	3e0b0b00 	vmlacc.f64	d0, d11, d0
    1e28:	0008030b 	andeq	r0, r8, fp, lsl #6
    1e2c:	00240300 	eoreq	r0, r4, r0, lsl #6
    1e30:	0b3e0b0b 	bleq	f84a64 <__bss_end__+0xf796d4>
    1e34:	00000e03 	andeq	r0, r0, r3, lsl #28
    1e38:	27011504 	strcs	r1, [r1, -r4, lsl #10]
    1e3c:	01134919 	tsteq	r3, r9, lsl r9
    1e40:	05000013 	streq	r0, [r0, #-19]	; 0xffffffed
    1e44:	13490005 	movtne	r0, #36869	; 0x9005
    1e48:	34060000 	strcc	r0, [r6], #-0
    1e4c:	3a0e0300 	bcc	382a54 <__bss_end__+0x3776c4>
    1e50:	390b3b0b 	stmdbcc	fp, {r0, r1, r3, r8, r9, fp, ip, sp}
    1e54:	3f13490b 	svccc	0x0013490b
    1e58:	00193c19 	andseq	r3, r9, r9, lsl ip
    1e5c:	000f0700 	andeq	r0, pc, r0, lsl #14
    1e60:	13490b0b 	movtne	r0, #39691	; 0x9b0b
    1e64:	26080000 	strcs	r0, [r8], -r0
    1e68:	00134900 	andseq	r4, r3, r0, lsl #18
    1e6c:	012e0900 			; <UNDEFINED> instruction: 0x012e0900
    1e70:	0e03193f 			; <UNDEFINED> instruction: 0x0e03193f
    1e74:	0b3b0b3a 	bleq	ec4b64 <__bss_end__+0xeb97d4>
    1e78:	19270b39 	stmdbne	r7!, {r0, r3, r4, r5, r8, r9, fp}
    1e7c:	01111349 	tsteq	r1, r9, asr #6
    1e80:	18400612 	stmdane	r0, {r1, r4, r9, sl}^
    1e84:	01194297 			; <UNDEFINED> instruction: 0x01194297
    1e88:	0a000013 	beq	1edc <__code_start__-0x6124>
    1e8c:	08030005 	stmdaeq	r3, {r0, r2}
    1e90:	0b3b0b3a 	bleq	ec4b80 <__bss_end__+0xeb97f0>
    1e94:	13490b39 	movtne	r0, #39737	; 0x9b39
    1e98:	00001802 	andeq	r1, r0, r2, lsl #16
    1e9c:	0300050b 	movweq	r0, #1291	; 0x50b
    1ea0:	3b0b3a08 	blcc	2d06c8 <__bss_end__+0x2c5338>
    1ea4:	490b390b 	stmdbmi	fp, {r0, r1, r3, r8, fp, ip, sp}
    1ea8:	b7170213 			; <UNDEFINED> instruction: 0xb7170213
    1eac:	00001742 	andeq	r1, r0, r2, asr #14
    1eb0:	0300340c 	movweq	r3, #1036	; 0x40c
    1eb4:	3b0b3a08 	blcc	2d06dc <__bss_end__+0x2c534c>
    1eb8:	490b390b 	stmdbmi	fp, {r0, r1, r3, r8, fp, ip, sp}
    1ebc:	b7170213 			; <UNDEFINED> instruction: 0xb7170213
    1ec0:	00001742 	andeq	r1, r0, r2, asr #14
    1ec4:	01110100 	tsteq	r1, r0, lsl #2
    1ec8:	0b130e25 	bleq	4c5764 <__bss_end__+0x4ba3d4>
    1ecc:	0e1b0e03 	cdpeq	14, 1, cr0, cr11, cr3, {0}
    1ed0:	06120111 			; <UNDEFINED> instruction: 0x06120111
    1ed4:	00001710 	andeq	r1, r0, r0, lsl r7
    1ed8:	0b002402 	bleq	aee8 <__FUNCTION__.4030+0x1ac>
    1edc:	030b3e0b 	movweq	r3, #48651	; 0xbe0b
    1ee0:	03000008 	movweq	r0, #8
    1ee4:	0e030016 	mcreq	0, 0, r0, cr3, cr6, {0}
    1ee8:	0b3b0b3a 	bleq	ec4bd8 <__bss_end__+0xeb9848>
    1eec:	13490b39 	movtne	r0, #39737	; 0x9b39
    1ef0:	24040000 	strcs	r0, [r4], #-0
    1ef4:	3e0b0b00 	vmlacc.f64	d0, d11, d0
    1ef8:	000e030b 	andeq	r0, lr, fp, lsl #6
    1efc:	00260500 	eoreq	r0, r6, r0, lsl #10
    1f00:	00001349 	andeq	r1, r0, r9, asr #6
    1f04:	27011506 	strcs	r1, [r1, -r6, lsl #10]
    1f08:	01134919 	tsteq	r3, r9, lsl r9
    1f0c:	07000013 	smladeq	r0, r3, r0, r0
    1f10:	13490005 	movtne	r0, #36869	; 0x9005
    1f14:	34080000 	strcc	r0, [r8], #-0
    1f18:	3a0e0300 	bcc	382b20 <__bss_end__+0x377790>
    1f1c:	390b3b0b 	stmdbcc	fp, {r0, r1, r3, r8, r9, fp, ip, sp}
    1f20:	3f13490b 	svccc	0x0013490b
    1f24:	00193c19 	andseq	r3, r9, r9, lsl ip
    1f28:	000f0900 	andeq	r0, pc, r0, lsl #18
    1f2c:	13490b0b 	movtne	r0, #39691	; 0x9b0b
    1f30:	2e0a0000 	cdpcs	0, 0, cr0, cr10, cr0, {0}
    1f34:	03193f01 	tsteq	r9, #1, 30
    1f38:	3b0b3a0e 	blcc	2d0778 <__bss_end__+0x2c53e8>
    1f3c:	270b390b 	strcs	r3, [fp, -fp, lsl #18]
    1f40:	11134919 	tstne	r3, r9, lsl r9
    1f44:	40061201 	andmi	r1, r6, r1, lsl #4
    1f48:	19429718 	stmdbne	r2, {r3, r4, r8, r9, sl, ip, pc}^
    1f4c:	00001301 	andeq	r1, r0, r1, lsl #6
    1f50:	0300050b 	movweq	r0, #1291	; 0x50b
    1f54:	3b0b3a08 	blcc	2d077c <__bss_end__+0x2c53ec>
    1f58:	490b390b 	stmdbmi	fp, {r0, r1, r3, r8, fp, ip, sp}
    1f5c:	b7170213 			; <UNDEFINED> instruction: 0xb7170213
    1f60:	00001742 	andeq	r1, r0, r2, asr #14
    1f64:	0300340c 	movweq	r3, #1036	; 0x40c
    1f68:	3b0b3a08 	blcc	2d0790 <__bss_end__+0x2c5400>
    1f6c:	490b390b 	stmdbmi	fp, {r0, r1, r3, r8, fp, ip, sp}
    1f70:	b7170213 			; <UNDEFINED> instruction: 0xb7170213
    1f74:	00001742 	andeq	r1, r0, r2, asr #14
    1f78:	01110100 	tsteq	r1, r0, lsl #2
    1f7c:	0b130e25 	bleq	4c5818 <__bss_end__+0x4ba488>
    1f80:	0e1b0e03 	cdpeq	14, 1, cr0, cr11, cr3, {0}
    1f84:	06120111 			; <UNDEFINED> instruction: 0x06120111
    1f88:	00001710 	andeq	r1, r0, r0, lsl r7
    1f8c:	0b002402 	bleq	af9c <buf.3944+0x10>
    1f90:	030b3e0b 	movweq	r3, #48651	; 0xbe0b
    1f94:	03000008 	movweq	r0, #8
    1f98:	0b0b0024 	bleq	2c2030 <__bss_end__+0x2b6ca0>
    1f9c:	0e030b3e 	vmoveq.16	d3[0], r0
    1fa0:	15040000 	strne	r0, [r4, #-0]
    1fa4:	49192701 	ldmdbmi	r9, {r0, r8, r9, sl, sp}
    1fa8:	00130113 	andseq	r0, r3, r3, lsl r1
    1fac:	00050500 	andeq	r0, r5, r0, lsl #10
    1fb0:	00001349 	andeq	r1, r0, r9, asr #6
    1fb4:	03003406 	movweq	r3, #1030	; 0x406
    1fb8:	3b0b3a0e 	blcc	2d07f8 <__bss_end__+0x2c5468>
    1fbc:	490b390b 	stmdbmi	fp, {r0, r1, r3, r8, fp, ip, sp}
    1fc0:	3c193f13 	ldccc	15, cr3, [r9], {19}
    1fc4:	07000019 	smladeq	r0, r9, r0, r0
    1fc8:	0b0b000f 	bleq	2c200c <__bss_end__+0x2b6c7c>
    1fcc:	00001349 	andeq	r1, r0, r9, asr #6
    1fd0:	49002608 	stmdbmi	r0, {r3, r9, sl, sp}
    1fd4:	09000013 	stmdbeq	r0, {r0, r1, r4}
    1fd8:	193f002e 	ldmdbne	pc!, {r1, r2, r3, r5}	; <UNPREDICTABLE>
    1fdc:	0b3a0e03 	bleq	e857f0 <__bss_end__+0xe7a460>
    1fe0:	0b390b3b 	bleq	e44cd4 <__bss_end__+0xe39944>
    1fe4:	01111927 	tsteq	r1, r7, lsr #18
    1fe8:	18400612 	stmdane	r0, {r1, r4, r9, sl}^
    1fec:	00194297 	mulseq	r9, r7, r2
	...

Disassembly of section .debug_loc:

00000000 <.debug_loc>:
       0:	00000000 	andeq	r0, r0, r0
       4:	00000058 	andeq	r0, r0, r8, asr r0
       8:	0000005b 	andeq	r0, r0, fp, asr r0
       c:	5b500001 	blpl	1400018 <__bss_end__+0x13f4c88>
      10:	0c000000 	stceq	0, cr0, [r0], {-0}
      14:	01000001 	tsteq	r0, r1
      18:	00005700 	andeq	r5, r0, r0, lsl #14
	...
      24:	00840000 	addeq	r0, r4, r0
      28:	00a00000 	adceq	r0, r0, r0
      2c:	00010000 	andeq	r0, r1, r0
      30:	0000a050 	andeq	sl, r0, r0, asr r0
      34:	00010c00 	andeq	r0, r1, r0, lsl #24
      38:	56000100 	strpl	r0, [r0], -r0, lsl #2
	...
      44:	00280000 	eoreq	r0, r8, r0
      48:	00400000 	subeq	r0, r0, r0
      4c:	00020000 	andeq	r0, r2, r0
      50:	00009f38 	andeq	r9, r0, r8, lsr pc
	...
      5c:	00000028 	andeq	r0, r0, r8, lsr #32
      60:	00000040 	andeq	r0, r0, r0, asr #32
      64:	59f20006 	ldmibpl	r2!, {r1, r2}^
      68:	00000003 	andeq	r0, r0, r3
	...
      74:	00280000 	eoreq	r0, r8, r0
      78:	00400000 	subeq	r0, r0, r0
      7c:	00060000 	andeq	r0, r6, r0
      80:	00a69003 	adceq	r9, r6, r3
      84:	00009f00 	andeq	r9, r0, r0, lsl #30
	...
      90:	0000005c 	andeq	r0, r0, ip, asr r0
      94:	0000006c 	andeq	r0, r0, ip, rrx
      98:	9f390002 	svcls	0x00390002
	...
      a4:	005c0000 	subseq	r0, ip, r0
      a8:	006c0000 	rsbeq	r0, ip, r0
      ac:	00060000 	andeq	r0, r6, r0
      b0:	000359f2 	strdeq	r5, [r3], -r2
	...
      c0:	0000005c 	andeq	r0, r0, ip, asr r0
      c4:	0000006c 	andeq	r0, r0, ip, rrx
      c8:	90030006 	andls	r0, r3, r6
      cc:	9f0000a6 	svcls	0x000000a6
	...
      d8:	00840001 	addeq	r0, r4, r1
      dc:	00940000 	addseq	r0, r4, r0
      e0:	00020000 	andeq	r0, r2, r0
      e4:	00009f3a 	andeq	r9, r0, sl, lsr pc
      e8:	00000000 	andeq	r0, r0, r0
      ec:	00010000 	andeq	r0, r1, r0
      f0:	00000084 	andeq	r0, r0, r4, lsl #1
      f4:	00000094 	muleq	r0, r4, r0
      f8:	59f20006 	ldmibpl	r2!, {r1, r2}^
      fc:	00000003 	andeq	r0, r0, r3
	...
     108:	00840001 	addeq	r0, r4, r1
     10c:	00940000 	addseq	r0, r4, r0
     110:	00060000 	andeq	r0, r6, r0
     114:	00a69003 	adceq	r9, r6, r3
     118:	00009f00 	andeq	r9, r0, r0, lsl #30
     11c:	00000000 	andeq	r0, r0, r0
     120:	00010000 	andeq	r0, r1, r0
     124:	000000a4 	andeq	r0, r0, r4, lsr #1
     128:	000000b4 	strheq	r0, [r0], -r4
     12c:	9f3b0002 	svcls	0x003b0002
	...
     138:	00a40001 	adceq	r0, r4, r1
     13c:	00b40000 	adcseq	r0, r4, r0
     140:	00060000 	andeq	r0, r6, r0
     144:	000359f2 	strdeq	r5, [r3], -r2
	...
     150:	00010000 	andeq	r0, r1, r0
     154:	000000a4 	andeq	r0, r0, r4, lsr #1
     158:	000000b4 	strheq	r0, [r0], -r4
     15c:	90030006 	andls	r0, r3, r6
     160:	9f0000a6 	svcls	0x000000a6
	...
     170:	032c0000 			; <UNDEFINED> instruction: 0x032c0000
     174:	03440000 	movteq	r0, #16384	; 0x4000
     178:	00010000 	andeq	r0, r1, r0
     17c:	00034450 	andeq	r4, r3, r0, asr r4
     180:	0003ec00 	andeq	lr, r3, r0, lsl #24
     184:	55000100 	strpl	r0, [r0, #-256]	; 0xffffff00
     188:	000003ec 	andeq	r0, r0, ip, ror #7
     18c:	000003f8 	strdeq	r0, [r0], -r8
     190:	01f30004 	mvnseq	r0, r4
     194:	00009f50 	andeq	r9, r0, r0, asr pc
	...
     1a4:	00000354 	andeq	r0, r0, r4, asr r3
     1a8:	0000035f 	andeq	r0, r0, pc, asr r3
     1ac:	5f500001 	svcpl	0x00500001
     1b0:	ec000003 	stc	0, cr0, [r0], {3}
     1b4:	01000003 	tsteq	r0, r3
     1b8:	03ec5400 	mvneq	r5, #0, 8
     1bc:	03f80000 	mvnseq	r0, #0, 0
     1c0:	00050000 	andeq	r0, r5, r0
     1c4:	00af6803 	adceq	r6, pc, r3, lsl #16
	...
     1d0:	00000200 	andeq	r0, r0, r0, lsl #4
     1d4:	00036000 	andeq	r6, r3, r0
     1d8:	00036400 	andeq	r6, r3, r0, lsl #8
     1dc:	30000200 	andcc	r0, r0, r0, lsl #4
     1e0:	0003649f 	muleq	r3, pc, r4	; <UNPREDICTABLE>
     1e4:	00039400 	andeq	r9, r3, r0, lsl #8
     1e8:	53000100 	movwpl	r0, #256	; 0x100
	...
     1f8:	00000184 	andeq	r0, r0, r4, lsl #3
     1fc:	0000019c 	muleq	r0, ip, r1
     200:	9c500001 	mrrcls	0, 0, r0, r0, cr1	; <UNPREDICTABLE>
     204:	20000001 	andcs	r0, r0, r1
     208:	01000003 	tsteq	r0, r3
     20c:	00005400 	andeq	r5, r0, r0, lsl #8
     210:	00000000 	andeq	r0, r0, r0
     214:	02010000 	andeq	r0, r1, #0, 0
     218:	01a00002 	moveq	r0, r2
     21c:	01a00000 	moveq	r0, r0
     220:	00010000 	andeq	r0, r1, r0
     224:	0001a054 	andeq	sl, r1, r4, asr r0
     228:	00032000 	andeq	r2, r3, r0
     22c:	74000400 	strvc	r0, [r0], #-1024	; 0xfffffc00
     230:	009f7ecc 	addseq	r7, pc, ip, asr #29
	...
     240:	e8000000 	stmda	r0, {}	; <UNPREDICTABLE>
     244:	1c000001 	stcne	0, cr0, [r0], {1}
     248:	01000002 	tsteq	r0, r2
     24c:	02445300 	subeq	r5, r4, #0, 6
     250:	02470000 	subeq	r0, r7, #0, 0
     254:	00010000 	andeq	r0, r1, r0
     258:	00026853 	andeq	r6, r2, r3, asr r8
     25c:	00026b00 	andeq	r6, r2, r0, lsl #22
     260:	53000100 	movwpl	r0, #256	; 0x100
     264:	0000028c 	andeq	r0, r0, ip, lsl #5
     268:	00000290 	muleq	r0, r0, r2
     26c:	00530001 	subseq	r0, r3, r1
	...
     278:	00029000 	andeq	r9, r2, r0
     27c:	0002ac00 	andeq	sl, r2, r0, lsl #24
     280:	53000100 	movwpl	r0, #256	; 0x100
	...
     290:	00000118 	andeq	r0, r0, r8, lsl r1
     294:	0000012b 	andeq	r0, r0, fp, lsr #2
     298:	2b500001 	blcs	14002a4 <__bss_end__+0x13f4f14>
     29c:	78000001 	stmdavc	r0, {r0}
     2a0:	01000001 	tsteq	r0, r1
     2a4:	00005500 	andeq	r5, r0, r0, lsl #10
	...
     2b4:	01300000 	teqeq	r0, r0
     2b8:	01430000 	mrseq	r0, (UNDEF: 67)
     2bc:	00010000 	andeq	r0, r1, r0
     2c0:	00014350 	andeq	r4, r1, r0, asr r3
     2c4:	00015800 	andeq	r5, r1, r0, lsl #16
     2c8:	54000100 	strpl	r0, [r0], #-256	; 0xffffff00
     2cc:	00000158 	andeq	r0, r0, r8, asr r1
     2d0:	0000015c 	andeq	r0, r0, ip, asr r1
     2d4:	5c500001 	mrrcpl	0, 0, r0, r0, cr1	; <UNPREDICTABLE>
     2d8:	78000001 	stmdavc	r0, {r0}
     2dc:	01000001 	tsteq	r0, r1
     2e0:	00005400 	andeq	r5, r0, r0, lsl #8
	...
     2ec:	00c80000 	sbceq	r0, r8, r0
     2f0:	00df0000 	sbcseq	r0, pc, r0
     2f4:	00010000 	andeq	r0, r1, r0
     2f8:	0000df50 	andeq	sp, r0, r0, asr pc
     2fc:	00010000 	andeq	r0, r1, r0
     300:	56000100 	strpl	r0, [r0], -r0, lsl #2
	...
     310:	000000c8 	andeq	r0, r0, r8, asr #1
     314:	000000df 	ldrdeq	r0, [r0], -pc	; <UNPREDICTABLE>
     318:	df510001 	svcle	0x00510001
     31c:	00000000 	andeq	r0, r0, r0
     320:	01000001 	tsteq	r0, r1
     324:	00005400 	andeq	r5, r0, r0, lsl #8
	...
     330:	00e40000 	rsceq	r0, r4, r0
     334:	00e80000 	rsceq	r0, r8, r0
     338:	00010000 	andeq	r0, r1, r0
     33c:	0000e850 	andeq	lr, r0, r0, asr r8
     340:	00010000 	andeq	r0, r1, r0
     344:	55000100 	strpl	r0, [r0, #-256]	; 0xffffff00
	...
     350:	00ec0000 	rsceq	r0, ip, r0
     354:	00f80000 	rscseq	r0, r8, r0
     358:	00010000 	andeq	r0, r1, r0
     35c:	00000050 	andeq	r0, r0, r0, asr r0
	...
     368:	00009400 	andeq	r9, r0, r0, lsl #8
     36c:	0000a700 	andeq	sl, r0, r0, lsl #14
     370:	50000100 	andpl	r0, r0, r0, lsl #2
     374:	000000a7 	andeq	r0, r0, r7, lsr #1
     378:	000000b4 	strheq	r0, [r0], -r4
     37c:	00540001 	subseq	r0, r4, r1
	...
     388:	0000a800 	andeq	sl, r0, r0, lsl #16
     38c:	0000ac00 	andeq	sl, r0, r0, lsl #24
     390:	54000100 	strpl	r0, [r0], #-256	; 0xffffff00
	...
     3a0:	00000070 	andeq	r0, r0, r0, ror r0
     3a4:	00000080 	andeq	r0, r0, r0, lsl #1
     3a8:	80500001 	subshi	r0, r0, r1
     3ac:	84000000 	strhi	r0, [r0], #-0
     3b0:	04000000 	streq	r0, [r0], #-0
     3b4:	7ecc7000 	cdpvc	0, 12, cr7, cr12, cr0, {0}
     3b8:	0000009f 	muleq	r0, pc, r0	; <UNPREDICTABLE>
	...
     3c4:	00004000 	andeq	r4, r0, r0
     3c8:	00005800 	andeq	r5, r0, r0, lsl #16
     3cc:	50000100 	andpl	r0, r0, r0, lsl #2
     3d0:	00000058 	andeq	r0, r0, r8, asr r0
     3d4:	0000005c 	andeq	r0, r0, ip, asr r0
     3d8:	01f30004 	mvnseq	r0, r4
     3dc:	00009f50 	andeq	r9, r0, r0, asr pc
	...
     3ec:	001c0000 	andseq	r0, ip, r0
     3f0:	008c0000 	addeq	r0, ip, r0
     3f4:	00010000 	andeq	r0, r1, r0
     3f8:	00008c51 	andeq	r8, r0, r1, asr ip
     3fc:	00009800 	andeq	r9, r0, r0, lsl #16
     400:	70000300 	andvc	r0, r0, r0, lsl #6
     404:	00989f78 	addseq	r9, r8, r8, ror pc
     408:	00b80000 	adcseq	r0, r8, r0
     40c:	00010000 	andeq	r0, r1, r0
     410:	0000b851 	andeq	fp, r0, r1, asr r8
     414:	0000d000 	andeq	sp, r0, r0
     418:	70000300 	andvc	r0, r0, r0, lsl #6
     41c:	00009f78 	andeq	r9, r0, r8, ror pc
	...
     428:	00240000 	eoreq	r0, r4, r0
     42c:	005c0000 	subseq	r0, ip, r0
     430:	00010000 	andeq	r0, r1, r0
     434:	00006053 	andeq	r6, r0, r3, asr r0
     438:	0000d000 	andeq	sp, r0, r0
     43c:	53000100 	movwpl	r0, #256	; 0x100
	...
     450:	0000014c 	andeq	r0, r0, ip, asr #2
     454:	00000178 	andeq	r0, r0, r8, ror r1
     458:	78500001 	ldmdavc	r0, {r0}^
     45c:	7c000001 	stcvc	0, cr0, [r0], {1}
     460:	04000001 	streq	r0, [r0], #-1
     464:	5001f300 	andpl	pc, r1, r0, lsl #6
     468:	00017c9f 	muleq	r1, pc, ip	; <UNPREDICTABLE>
     46c:	00019400 	andeq	r9, r1, r0, lsl #8
     470:	50000100 	andpl	r0, r0, r0, lsl #2
     474:	00000194 	muleq	r0, r4, r1
     478:	00000200 	andeq	r0, r0, r0, lsl #4
     47c:	01f30004 	mvnseq	r0, r4
     480:	00009f50 	andeq	r9, r0, r0, asr pc
	...
     490:	00010100 	andeq	r0, r1, r0, lsl #2
     494:	00000000 	andeq	r0, r0, r0
     498:	00000178 	andeq	r0, r0, r8, ror r1
     49c:	0000017c 	andeq	r0, r0, ip, ror r1
     4a0:	94500001 	ldrbls	r0, [r0], #-1
     4a4:	b4000001 	strlt	r0, [r0], #-1
     4a8:	01000001 	tsteq	r0, r1
     4ac:	01b45000 			; <UNDEFINED> instruction: 0x01b45000
     4b0:	01b80000 			; <UNDEFINED> instruction: 0x01b80000
     4b4:	00030000 	andeq	r0, r3, r0
     4b8:	b89f7870 	ldmlt	pc, {r4, r5, r6, fp, ip, sp, lr}	; <UNPREDICTABLE>
     4bc:	c4000001 	strgt	r0, [r0], #-1
     4c0:	01000001 	tsteq	r0, r1
     4c4:	01c45000 	biceq	r5, r4, r0
     4c8:	01cc0000 	biceq	r0, ip, r0
     4cc:	00020000 	andeq	r0, r2, r0
     4d0:	01cc0070 	biceq	r0, ip, r0, ror r0
     4d4:	01ec0000 	mvneq	r0, r0
     4d8:	00010000 	andeq	r0, r1, r0
     4dc:	0001f050 	andeq	pc, r1, r0, asr r0	; <UNPREDICTABLE>
     4e0:	00020000 	andeq	r0, r2, r0
     4e4:	50000100 	andpl	r0, r0, r0, lsl #2
	...
     4f0:	00010100 	andeq	r0, r1, r0, lsl #2
     4f4:	00010000 	andeq	r0, r1, r0
     4f8:	016c0000 	cmneq	ip, r0
     4fc:	017c0000 	cmneq	ip, r0
     500:	00010000 	andeq	r0, r1, r0
     504:	00017c52 	andeq	r7, r1, r2, asr ip
     508:	00019400 	andeq	r9, r1, r0, lsl #8
     50c:	03000600 	movweq	r0, #1536	; 0x600
     510:	0000af78 	andeq	sl, r0, r8, ror pc
     514:	0001949f 	muleq	r1, pc, r4	; <UNPREDICTABLE>
     518:	0001c400 	andeq	ip, r1, r0, lsl #8
     51c:	52000100 	andpl	r0, r0, #0
     520:	000001c4 	andeq	r0, r0, r4, asr #3
     524:	000001cc 	andeq	r0, r0, ip, asr #3
     528:	cc500001 	mrrcgt	0, 0, r0, r0, cr1	; <UNPREDICTABLE>
     52c:	ef000001 	svc	0x00000001
     530:	01000001 	tsteq	r0, r1
     534:	00005200 	andeq	r5, r0, r0, lsl #4
	...
     540:	00000164 	andeq	r0, r0, r4, ror #2
     544:	00000200 	andeq	r0, r0, r0, lsl #4
     548:	00540001 	subseq	r0, r4, r1
	...
     554:	e0000000 	and	r0, r0, r0
     558:	f8000000 			; <UNDEFINED> instruction: 0xf8000000
     55c:	01000000 	mrseq	r0, (UNDEF: 0)
     560:	00f85000 	rscseq	r5, r8, r0
     564:	013c0000 	teqeq	ip, r0
     568:	00010000 	andeq	r0, r1, r0
     56c:	00000054 	andeq	r0, r0, r4, asr r0
	...
     578:	0c000000 	stceq	0, cr0, [r0], {-0}
     57c:	1c000001 	stcne	0, cr0, [r0], {1}
     580:	01000001 	tsteq	r0, r1
     584:	011c5000 	tsteq	ip, r0
     588:	011f0000 	tsteq	pc, r0
     58c:	00030000 	andeq	r0, r3, r0
     590:	2c9f7870 	ldccs	8, cr7, [pc], {112}	; 0x70
     594:	30000001 	andcc	r0, r0, r1
     598:	01000001 	tsteq	r0, r1
     59c:	00005000 	andeq	r5, r0, r0
     5a0:	00000000 	andeq	r0, r0, r0
     5a4:	00010000 	andeq	r0, r1, r0
     5a8:	01140000 	tsteq	r4, r0
     5ac:	011c0000 	tsteq	ip, r0
     5b0:	00010000 	andeq	r0, r1, r0
     5b4:	00011c50 	andeq	r1, r1, r0, asr ip
     5b8:	00011f00 	andeq	r1, r1, r0, lsl #30
     5bc:	70000300 	andvc	r0, r0, r0, lsl #6
     5c0:	00009f78 	andeq	r9, r0, r8, ror pc
	...
     5cc:	000007d4 	ldrdeq	r0, [r0], -r4
     5d0:	000007d8 	ldrdeq	r0, [r0], -r8
     5d4:	00500001 	subseq	r0, r0, r1
     5d8:	00000000 	andeq	r0, r0, r0
     5dc:	01000000 	mrseq	r0, (UNDEF: 0)
     5e0:	f4000000 	vst4.8	{d0-d3}, [r0], r0
     5e4:	20000003 	andcs	r0, r0, r3
     5e8:	02000004 	andeq	r0, r0, #4, 0
     5ec:	209f3000 	addscs	r3, pc, r0
     5f0:	ac000004 	stcge	0, cr0, [r0], {4}
     5f4:	01000004 	tsteq	r0, r4
     5f8:	00005500 	andeq	r5, r0, r0, lsl #10
     5fc:	00000000 	andeq	r0, r0, r0
     600:	00010000 	andeq	r0, r1, r0
     604:	03f40000 	mvnseq	r0, #0, 0
     608:	04200000 	strteq	r0, [r0], #-0
     60c:	00020000 	andeq	r0, r2, r0
     610:	04209f30 	strteq	r9, [r0], #-3888	; 0xfffff0d0
     614:	04ac0000 	strteq	r0, [ip], #0
     618:	00010000 	andeq	r0, r1, r0
     61c:	00000058 	andeq	r0, r0, r8, asr r0
     620:	00000000 	andeq	r0, r0, r0
     624:	00000100 	andeq	r0, r0, r0, lsl #2
     628:	f4000000 	vst4.8	{d0-d3}, [r0], r0
     62c:	20000003 	andcs	r0, r0, r3
     630:	02000004 	andeq	r0, r0, #4, 0
     634:	209f3000 	addscs	r3, pc, r0
     638:	ac000004 	stcge	0, cr0, [r0], {4}
     63c:	01000004 	tsteq	r0, r4
     640:	04ac5700 	strteq	r5, [ip], #1792	; 0x700
     644:	04c80000 	strbeq	r0, [r8], #0
     648:	00010000 	andeq	r0, r1, r0
     64c:	00000050 	andeq	r0, r0, r0, asr r0
	...
     65c:	00041000 	andeq	r1, r4, r0
     660:	00045400 	andeq	r5, r4, r0, lsl #8
     664:	50000100 	andpl	r0, r0, r0, lsl #2
     668:	00000454 	andeq	r0, r0, r4, asr r4
     66c:	00000470 	andeq	r0, r0, r0, ror r4
     670:	70540001 	subsvc	r0, r4, r1
     674:	9c000004 	stcls	0, cr0, [r0], {4}
     678:	01000004 	tsteq	r0, r4
     67c:	049c5000 	ldreq	r5, [ip], #0
     680:	04ac0000 	strteq	r0, [ip], #0
     684:	00010000 	andeq	r0, r1, r0
     688:	00000054 	andeq	r0, r0, r4, asr r0
     68c:	00000000 	andeq	r0, r0, r0
     690:	30000000 	andcc	r0, r0, r0
     694:	48000004 	stmdami	r0, {r2}
     698:	04000004 	streq	r0, [r0], #-4
     69c:	011e0a00 	tsteq	lr, r0, lsl #20
     6a0:	0000009f 	muleq	r0, pc, r0	; <UNPREDICTABLE>
     6a4:	00000000 	andeq	r0, r0, r0
     6a8:	30000000 	andcc	r0, r0, r0
     6ac:	48000004 	stmdami	r0, {r2}
     6b0:	06000004 	streq	r0, [r0], -r4
     6b4:	1cb5f200 	lfmne	f7, 1, [r5]
	...
     6c4:	00043000 	andeq	r3, r4, r0
     6c8:	00044800 	andeq	r4, r4, r0, lsl #16
     6cc:	03000600 	movweq	r0, #1536	; 0x600
     6d0:	0000a820 	andeq	sl, r0, r0, lsr #16
     6d4:	0000009f 	muleq	r0, pc, r0	; <UNPREDICTABLE>
	...
     6e0:	70000000 	andvc	r0, r0, r0
     6e4:	80000007 	andhi	r0, r0, r7
     6e8:	01000007 	tsteq	r0, r7
     6ec:	07805000 	streq	r5, [r0, r0]
     6f0:	07830000 	streq	r0, [r3, r0]
     6f4:	00010000 	andeq	r0, r1, r0
     6f8:	00078351 	andeq	r8, r7, r1, asr r3
     6fc:	0007b400 	andeq	fp, r7, r0, lsl #8
     700:	54000100 	strpl	r0, [r0], #-256	; 0xffffff00
	...
     710:	000006cc 	andeq	r0, r0, ip, asr #13
     714:	000006db 	ldrdeq	r0, [r0], -fp
     718:	db500001 	blle	1400724 <__bss_end__+0x13f5394>
     71c:	e0000006 	and	r0, r0, r6
     720:	04000006 	streq	r0, [r0], #-6
     724:	5001f300 	andpl	pc, r1, r0, lsl #6
     728:	0000009f 	muleq	r0, pc, r0	; <UNPREDICTABLE>
	...
     734:	0002d800 	andeq	sp, r2, r0, lsl #16
     738:	0002ec00 	andeq	lr, r2, r0, lsl #24
     73c:	50000100 	andpl	r0, r0, r0, lsl #2
     740:	000002ec 	andeq	r0, r0, ip, ror #5
     744:	000003d4 	ldrdeq	r0, [r0], -r4
     748:	00570001 	subseq	r0, r7, r1
     74c:	00000000 	andeq	r0, r0, r0
     750:	01000000 	mrseq	r0, (UNDEF: 0)
     754:	e8000000 	stmda	r0, {}	; <UNPREDICTABLE>
     758:	14000002 	strne	r0, [r0], #-2
     75c:	02000003 	andeq	r0, r0, #3, 0
     760:	149f3000 	ldrne	r3, [pc], #0	; 768 <__code_start__-0x7898>
     764:	d4000003 	strle	r0, [r0], #-3
     768:	01000003 	tsteq	r0, r3
     76c:	00005500 	andeq	r5, r0, r0, lsl #10
     770:	00000000 	andeq	r0, r0, r0
     774:	00010000 	andeq	r0, r1, r0
     778:	00000000 	andeq	r0, r0, r0
     77c:	000002e8 	andeq	r0, r0, r8, ror #5
     780:	00000314 	andeq	r0, r0, r4, lsl r3
     784:	9f300002 	svcls	0x00300002
     788:	00000314 	andeq	r0, r0, r4, lsl r3
     78c:	00000398 	muleq	r0, r8, r3
     790:	a0560001 	subsge	r0, r6, r1
     794:	d4000003 	strle	r0, [r0], #-3
     798:	01000003 	tsteq	r0, r3
     79c:	00005600 	andeq	r5, r0, r0, lsl #12
     7a0:	00000000 	andeq	r0, r0, r0
     7a4:	00010000 	andeq	r0, r1, r0
     7a8:	02e80000 	rsceq	r0, r8, #0, 0
     7ac:	03140000 	tsteq	r4, #0, 0
     7b0:	00020000 	andeq	r0, r2, r0
     7b4:	03149f30 	tsteq	r4, #48, 30	; 0xc0
     7b8:	03d40000 	bicseq	r0, r4, #0, 0
     7bc:	00010000 	andeq	r0, r1, r0
     7c0:	00000058 	andeq	r0, r0, r8, asr r0
	...
     7d4:	04000000 	streq	r0, [r0], #-0
     7d8:	24000003 	strcs	r0, [r0], #-3
     7dc:	01000003 	tsteq	r0, r3
     7e0:	03245000 			; <UNDEFINED> instruction: 0x03245000
     7e4:	03340000 	teqeq	r4, #0, 0
     7e8:	00010000 	andeq	r0, r1, r0
     7ec:	00033454 	andeq	r3, r3, r4, asr r4
     7f0:	00036400 	andeq	r6, r3, r0, lsl #8
     7f4:	50000100 	andpl	r0, r0, r0, lsl #2
     7f8:	00000364 	andeq	r0, r0, r4, ror #6
     7fc:	00000367 	andeq	r0, r0, r7, ror #6
     800:	67520001 	ldrbvs	r0, [r2, -r1]
     804:	6c000003 	stcvs	0, cr0, [r0], {3}
     808:	01000003 	tsteq	r0, r3
     80c:	036c5400 	cmneq	ip, #0, 8
     810:	03740000 	cmneq	r4, #0, 0
     814:	00010000 	andeq	r0, r1, r0
     818:	00037450 	andeq	r7, r3, r0, asr r4
     81c:	0003d400 	andeq	sp, r3, r0, lsl #8
     820:	54000100 	strpl	r0, [r0], #-256	; 0xffffff00
	...
     82c:	00000001 	andeq	r0, r0, r1
     830:	000005f0 	strdeq	r0, [r0], -r0	; <UNPREDICTABLE>
     834:	00000600 	andeq	r0, r0, r0, lsl #12
     838:	9f300002 	svcls	0x00300002
     83c:	00000600 	andeq	r0, r0, r0, lsl #12
     840:	000006b8 			; <UNDEFINED> instruction: 0x000006b8
     844:	00560001 	subseq	r0, r6, r1
	...
     858:	f8000000 			; <UNDEFINED> instruction: 0xf8000000
     85c:	00000005 	andeq	r0, r0, r5
     860:	01000006 	tsteq	r0, r6
     864:	06005000 	streq	r5, [r0], -r0
     868:	062c0000 	strteq	r0, [ip], -r0
     86c:	00010000 	andeq	r0, r1, r0
     870:	00062c54 	andeq	r2, r6, r4, asr ip
     874:	00063c00 	andeq	r3, r6, r0, lsl #24
     878:	50000100 	andpl	r0, r0, r0, lsl #2
     87c:	0000063c 	andeq	r0, r0, ip, lsr r6
     880:	000006a4 	andeq	r0, r0, r4, lsr #13
     884:	a4540001 	ldrbge	r0, [r4], #-1
     888:	a8000006 	stmdage	r0, {r1, r2}
     88c:	01000006 	tsteq	r0, r6
     890:	06a85000 	strteq	r5, [r8], r0
     894:	06b80000 	ldrteq	r0, [r8], r0
     898:	00010000 	andeq	r0, r1, r0
     89c:	00000054 	andeq	r0, r0, r4, asr r0
     8a0:	00000000 	andeq	r0, r0, r0
     8a4:	01000000 	mrseq	r0, (UNDEF: 0)
     8a8:	00000000 	andeq	r0, r0, r0
     8ac:	00060000 	andeq	r0, r6, r0
     8b0:	00062c00 	andeq	r2, r6, r0, lsl #24
     8b4:	55000100 	strpl	r0, [r0, #-256]	; 0xffffff00
     8b8:	00000634 	andeq	r0, r0, r4, lsr r6
     8bc:	00000644 	andeq	r0, r0, r4, asr #12
     8c0:	9f300002 	svcls	0x00300002
     8c4:	00000644 	andeq	r0, r0, r4, asr #12
     8c8:	0000064c 	andeq	r0, r0, ip, asr #12
     8cc:	4c500001 	mrrcmi	0, 0, r0, r0, cr1	; <UNPREDICTABLE>
     8d0:	a4000006 	strge	r0, [r0], #-6
     8d4:	01000006 	tsteq	r0, r6
     8d8:	00005500 	andeq	r5, r0, r0, lsl #10
	...
     8e4:	06000000 	streq	r0, [r0], -r0
     8e8:	06100000 	ldreq	r0, [r0], -r0
     8ec:	00010000 	andeq	r0, r1, r0
     8f0:	00069450 	andeq	r9, r6, r0, asr r4
     8f4:	0006a400 	andeq	sl, r6, r0, lsl #8
     8f8:	50000100 	andpl	r0, r0, r0, lsl #2
	...
     908:	00000594 	muleq	r0, r4, r5
     90c:	000005ac 	andeq	r0, r0, ip, lsr #11
     910:	ac500001 	mrrcge	0, 0, r0, r0, cr1	; <UNPREDICTABLE>
     914:	d0000005 	andle	r0, r0, r5
     918:	01000005 	tsteq	r0, r5
     91c:	00005c00 	andeq	r5, r0, r0, lsl #24
     920:	00000000 	andeq	r0, r0, r0
     924:	00010000 	andeq	r0, r1, r0
     928:	05a40000 	streq	r0, [r4, #0]!
     92c:	05b00000 	ldreq	r0, [r0, #0]!
     930:	00020000 	andeq	r0, r2, r0
     934:	05b09f30 	ldreq	r9, [r0, #3888]!	; 0xf30
     938:	05d00000 	ldrbeq	r0, [r0]
     93c:	00010000 	andeq	r0, r1, r0
     940:	00000050 	andeq	r0, r0, r0, asr r0
     944:	00000000 	andeq	r0, r0, r0
     948:	00000300 	andeq	r0, r0, r0, lsl #6
     94c:	0005a400 	andeq	sl, r5, r0, lsl #8
     950:	0005b000 	andeq	fp, r5, r0
     954:	30000200 	andcc	r0, r0, r0, lsl #4
     958:	0005b09f 	muleq	r5, pc, r0	; <UNPREDICTABLE>
     95c:	0005d000 	andeq	sp, r5, r0
     960:	53000100 	movwpl	r0, #256	; 0x100
	...
     970:	00000230 	andeq	r0, r0, r0, lsr r2
     974:	0000024b 	andeq	r0, r0, fp, asr #4
     978:	4c500001 	mrrcmi	0, 0, r0, r0, cr1	; <UNPREDICTABLE>
     97c:	54000002 	strpl	r0, [r0], #-2
     980:	01000002 	tsteq	r0, r2
     984:	00005000 	andeq	r5, r0, r0
	...
     99c:	0000009c 	muleq	r0, ip, r0
     9a0:	000000e4 	andeq	r0, r0, r4, ror #1
     9a4:	e4500001 	ldrb	r0, [r0], #-1
     9a8:	ec000000 	stc	0, cr0, [r0], {-0}
     9ac:	01000000 	mrseq	r0, (UNDEF: 0)
     9b0:	00ec5400 	rsceq	r5, ip, r0, lsl #8
     9b4:	01040000 	mrseq	r0, (UNDEF: 4)
     9b8:	00010000 	andeq	r0, r1, r0
     9bc:	00010450 	andeq	r0, r1, r0, asr r4
     9c0:	00010c00 	andeq	r0, r1, r0, lsl #24
     9c4:	f3000400 	vshl.u8	d0, d0, d0
     9c8:	0c9f5001 	ldceq	0, cr5, [pc], {1}
     9cc:	24000001 	strcs	r0, [r0], #-1
     9d0:	01000001 	tsteq	r0, r1
     9d4:	01245000 			; <UNDEFINED> instruction: 0x01245000
     9d8:	012c0000 			; <UNDEFINED> instruction: 0x012c0000
     9dc:	00010000 	andeq	r0, r1, r0
     9e0:	00012c54 	andeq	r2, r1, r4, asr ip
     9e4:	00020c00 	andeq	r0, r2, r0, lsl #24
     9e8:	f3000400 	vshl.u8	d0, d0, d0
     9ec:	009f5001 	addseq	r5, pc, r1
	...
     a04:	00009c00 	andeq	r9, r0, r0, lsl #24
     a08:	0000e000 	andeq	lr, r0, r0
     a0c:	51000100 	mrspl	r0, (UNDEF: 16)
     a10:	000000e0 	andeq	r0, r0, r0, ror #1
     a14:	000000ec 	andeq	r0, r0, ip, ror #1
     a18:	ec560001 	mrrc	0, 0, r0, r6, cr1
     a1c:	00000000 	andeq	r0, r0, r0
     a20:	01000001 	tsteq	r0, r1
     a24:	01005100 	mrseq	r5, (UNDEF: 16)
     a28:	010c0000 	mrseq	r0, (UNDEF: 12)
     a2c:	00040000 	andeq	r0, r4, r0
     a30:	9f5101f3 	svcls	0x005101f3
     a34:	0000010c 	andeq	r0, r0, ip, lsl #2
     a38:	00000120 	andeq	r0, r0, r0, lsr #2
     a3c:	20510001 	subscs	r0, r1, r1
     a40:	e8000001 	stmda	r0, {r0}
     a44:	01000001 	tsteq	r0, r1
     a48:	01e85600 	mvneq	r5, r0, lsl #12
     a4c:	020c0000 	andeq	r0, ip, #0, 0
     a50:	00040000 	andeq	r0, r4, r0
     a54:	9f5101f3 	svcls	0x005101f3
	...
     a60:	012c0000 			; <UNDEFINED> instruction: 0x012c0000
     a64:	01e80000 	mvneq	r0, r0
     a68:	00010000 	andeq	r0, r1, r0
     a6c:	00000054 	andeq	r0, r0, r4, asr r0
	...
     a78:	2c000000 	stccs	0, cr0, [r0], {-0}
     a7c:	4c000001 	stcmi	0, cr0, [r0], {1}
     a80:	01000001 	tsteq	r0, r1
     a84:	015c5500 	cmpeq	ip, r0, lsl #10
     a88:	01730000 	cmneq	r3, r0
     a8c:	00010000 	andeq	r0, r1, r0
     a90:	00017350 	andeq	r7, r1, r0, asr r3
     a94:	0001e000 	andeq	lr, r1, r0
     a98:	55000100 	strpl	r0, [r0, #-256]	; 0xffffff00
	...
     aa8:	0000012c 	andeq	r0, r0, ip, lsr #2
     aac:	00000148 	andeq	r0, r0, r8, asr #2
     ab0:	68570001 	ldmdavs	r7, {r0}^
     ab4:	e0000001 	and	r0, r0, r1
     ab8:	01000001 	tsteq	r0, r1
     abc:	00005700 	andeq	r5, r0, r0, lsl #14
	...
     ac8:	012c0000 			; <UNDEFINED> instruction: 0x012c0000
     acc:	01480000 	mrseq	r0, (UNDEF: 72)
     ad0:	00010000 	andeq	r0, r1, r0
     ad4:	00016c58 	andeq	r6, r1, r8, asr ip
     ad8:	0001e000 	andeq	lr, r1, r0
     adc:	58000100 	stmdapl	r0, {r8}
	...
     aec:	00000060 	andeq	r0, r0, r0, rrx
     af0:	00000073 	andeq	r0, r0, r3, ror r0
     af4:	73500001 	cmpvc	r0, #1, 0
     af8:	90000000 	andls	r0, r0, r0
     afc:	01000000 	mrseq	r0, (UNDEF: 0)
     b00:	00005400 	andeq	r5, r0, r0, lsl #8
     b04:	00000000 	andeq	r0, r0, r0
     b08:	00010000 	andeq	r0, r1, r0
     b0c:	00700000 	rsbseq	r0, r0, r0
     b10:	00730000 	rsbseq	r0, r3, r0
     b14:	00010000 	andeq	r0, r1, r0
     b18:	00007350 	andeq	r7, r0, r0, asr r3
     b1c:	00009000 	andeq	r9, r0, r0
     b20:	54000100 	strpl	r0, [r0], #-256	; 0xffffff00
	...
     b38:	0000000c 	andeq	r0, r0, ip
     b3c:	0000003c 	andeq	r0, r0, ip, lsr r0
     b40:	3c500001 	mrrccc	0, 0, r0, r0, cr1	; <UNPREDICTABLE>
     b44:	40000000 	andmi	r0, r0, r0
     b48:	04000000 	streq	r0, [r0], #-0
     b4c:	5001f300 	andpl	pc, r1, r0, lsl #6
     b50:	0000409f 	muleq	r0, pc, r0	; <UNPREDICTABLE>
     b54:	00004400 	andeq	r4, r0, r0, lsl #8
     b58:	50000100 	andpl	r0, r0, r0, lsl #2
     b5c:	00000044 	andeq	r0, r0, r4, asr #32
     b60:	00000048 	andeq	r0, r0, r8, asr #32
     b64:	01f30004 	mvnseq	r0, r4
     b68:	00489f50 	subeq	r9, r8, r0, asr pc
     b6c:	004c0000 	subeq	r0, ip, r0
     b70:	00010000 	andeq	r0, r1, r0
     b74:	00004c50 	andeq	r4, r0, r0, asr ip
     b78:	00005400 	andeq	r5, r0, r0, lsl #8
     b7c:	f3000400 	vshl.u8	d0, d0, d0
     b80:	009f5001 	addseq	r5, pc, r1
	...
     b94:	d4000000 	strle	r0, [r0], #-0
     b98:	04000004 	streq	r0, [r0], #-4
     b9c:	01000005 	tsteq	r0, r5
     ba0:	05045000 	streq	r5, [r4, #-0]
     ba4:	05300000 	ldreq	r0, [r0, #-0]!
     ba8:	00010000 	andeq	r0, r1, r0
     bac:	00053054 	andeq	r3, r5, r4, asr r0
     bb0:	00054800 	andeq	r4, r5, r0, lsl #16
     bb4:	50000100 	andpl	r0, r0, r0, lsl #2
     bb8:	00000548 	andeq	r0, r0, r8, asr #10
     bbc:	00000550 	andeq	r0, r0, r0, asr r5
     bc0:	50540001 	subspl	r0, r4, r1
     bc4:	60000005 	andvs	r0, r0, r5
     bc8:	01000005 	tsteq	r0, r5
     bcc:	05605000 	strbeq	r5, [r0, #-0]!
     bd0:	05800000 	streq	r0, [r0]
     bd4:	00010000 	andeq	r0, r1, r0
     bd8:	00000054 	andeq	r0, r0, r4, asr r0
     bdc:	00000000 	andeq	r0, r0, r0
     be0:	fc000200 	stc2	2, cr0, [r0], {-0}
     be4:	30000004 	andcc	r0, r0, r4
     be8:	04000005 	streq	r0, [r0], #-5
     bec:	24404000 	strbcs	r4, [r0], #-0
     bf0:	0000009f 	muleq	r0, pc, r0	; <UNPREDICTABLE>
     bf4:	00000000 	andeq	r0, r0, r0
     bf8:	08000000 	stmdaeq	r0, {}	; <UNPREDICTABLE>
     bfc:	80000000 	andhi	r0, r0, r0
     c00:	01000000 	mrseq	r0, (UNDEF: 0)
     c04:	00005400 	andeq	r5, r0, r0, lsl #8
     c08:	00000000 	andeq	r0, r0, r0
     c0c:	00020000 	andeq	r0, r2, r0
     c10:	00080000 	andeq	r0, r8, r0
     c14:	00200000 	eoreq	r0, r0, r0
     c18:	00020000 	andeq	r0, r2, r0
     c1c:	00209f30 	eoreq	r9, r0, r0, lsr pc
     c20:	006c0000 	rsbeq	r0, ip, r0
     c24:	00010000 	andeq	r0, r1, r0
     c28:	00000057 	andeq	r0, r0, r7, asr r0
     c2c:	00000000 	andeq	r0, r0, r0
     c30:	3c000000 	stccc	0, cr0, [r0], {-0}
     c34:	57000000 	strpl	r0, [r0, -r0]
     c38:	01000000 	mrseq	r0, (UNDEF: 0)
     c3c:	00005200 	andeq	r5, r0, r0, lsl #4
     c40:	00000000 	andeq	r0, r0, r0
     c44:	00010000 	andeq	r0, r1, r0
     c48:	0000003c 	andeq	r0, r0, ip, lsr r0
     c4c:	00000050 	andeq	r0, r0, r0, asr r0
     c50:	00520001 	subseq	r0, r2, r1
     c54:	00000000 	andeq	r0, r0, r0
     c58:	03000000 	movweq	r0, #0
     c5c:	3c000000 	stccc	0, cr0, [r0], {-0}
     c60:	48000000 	stmdami	r0, {}	; <UNPREDICTABLE>
     c64:	01000000 	mrseq	r0, (UNDEF: 0)
     c68:	00485300 	subeq	r5, r8, r0, lsl #6
     c6c:	00500000 	subseq	r0, r0, r0
     c70:	00020000 	andeq	r0, r2, r0
     c74:	00000070 	andeq	r0, r0, r0, ror r0
	...
     c84:	00000038 	andeq	r0, r0, r8, lsr r0
     c88:	00000048 	andeq	r0, r0, r8, asr #32
     c8c:	00730009 	rsbseq	r0, r3, r9
     c90:	ffffff0c 			; <UNDEFINED> instruction: 0xffffff0c
     c94:	489f1a00 	ldmmi	pc, {r9, fp, ip}	; <UNPREDICTABLE>
     c98:	4c000000 	stcmi	0, cr0, [r0], {-0}
     c9c:	01000000 	mrseq	r0, (UNDEF: 0)
     ca0:	004c5300 	subeq	r5, ip, r0, lsl #6
     ca4:	00500000 	subseq	r0, r0, r0
     ca8:	000a0000 	andeq	r0, sl, r0
     cac:	0c060070 	stceq	0, cr0, [r6], {112}	; 0x70
     cb0:	00ffffff 	ldrshteq	pc, [pc], #255	; <UNPREDICTABLE>
     cb4:	00009f1a 	andeq	r9, r0, sl, lsl pc
	...
     cc4:	00000080 	andeq	r0, r0, r0, lsl #1
     cc8:	00000088 	andeq	r0, r0, r8, lsl #1
     ccc:	88500001 	ldmdahi	r0, {r0}^
     cd0:	94000000 	strls	r0, [r0], #-0
     cd4:	03000000 	movweq	r0, #0
     cd8:	9f047000 	svcls	0x00047000
     cdc:	00000094 	muleq	r0, r4, r0
     ce0:	000000a0 	andeq	r0, r0, r0, lsr #1
     ce4:	01f30004 	mvnseq	r0, r4
     ce8:	00009f50 	andeq	r9, r0, r0, asr pc
	...
     cf8:	00000084 	andeq	r0, r0, r4, lsl #1
     cfc:	00000090 	muleq	r0, r0, r0
     d00:	90530001 	subsls	r0, r3, r1
     d04:	94000000 	strls	r0, [r0], #-0
     d08:	02000000 	andeq	r0, r0, #0, 0
     d0c:	94007000 	strls	r7, [r0], #-0
     d10:	a0000000 	andge	r0, r0, r0
     d14:	05000000 	streq	r0, [r0, #-0]
     d18:	5001f300 	andpl	pc, r1, r0, lsl #6
     d1c:	00001c34 	andeq	r1, r0, r4, lsr ip
     d20:	00000000 	andeq	r0, r0, r0
     d24:	00010000 	andeq	r0, r1, r0
     d28:	00000000 	andeq	r0, r0, r0
     d2c:	0000008c 	andeq	r0, r0, ip, lsl #1
     d30:	00000090 	muleq	r0, r0, r0
     d34:	00730009 	rsbseq	r0, r3, r9
     d38:	ffffff0c 			; <UNDEFINED> instruction: 0xffffff0c
     d3c:	909f1a00 	addsls	r1, pc, r0, lsl #20
     d40:	94000000 	strls	r0, [r0], #-0
     d44:	0a000000 	beq	d4c <__code_start__-0x72b4>
     d48:	06007000 	streq	r7, [r0], -r0
     d4c:	ffffff0c 			; <UNDEFINED> instruction: 0xffffff0c
     d50:	949f1a00 	ldrls	r1, [pc], #2560	; d58 <__code_start__-0x72a8>
     d54:	a0000000 	andge	r0, r0, r0
     d58:	0d000000 	stceq	0, cr0, [r0, #-0]
     d5c:	5001f300 	andpl	pc, r1, r0, lsl #6
     d60:	0c061c34 	stceq	12, cr1, [r6], {52}	; 0x34
     d64:	00ffffff 	ldrshteq	pc, [pc], #255	; <UNPREDICTABLE>
     d68:	00009f1a 	andeq	r9, r0, sl, lsl pc
	...
     d78:	001c0000 	andseq	r0, ip, r0
     d7c:	00010000 	andeq	r0, r1, r0
     d80:	00001c51 	andeq	r1, r0, r1, asr ip
     d84:	00007800 	andeq	r7, r0, r0, lsl #16
     d88:	f3000400 	vshl.u8	d0, d0, d0
     d8c:	009f5101 	addseq	r5, pc, r1, lsl #2
	...
     d9c:	58000000 	stmdapl	r0, {}	; <UNPREDICTABLE>
     da0:	01000000 	mrseq	r0, (UNDEF: 0)
     da4:	00585200 	subseq	r5, r8, r0, lsl #4
     da8:	00780000 	rsbseq	r0, r8, r0
     dac:	00040000 	andeq	r0, r4, r0
     db0:	9f5201f3 	svcls	0x005201f3
	...
     dbc:	01000002 	tsteq	r0, r2
     dc0:	01000001 	tsteq	r0, r1
     dc4:	01000001 	tsteq	r0, r1
     dc8:	00000001 	andeq	r0, r0, r1
     dcc:	00380000 	eorseq	r0, r8, r0
     dd0:	00010000 	andeq	r0, r1, r0
     dd4:	00005450 	andeq	r5, r0, r0, asr r4
     dd8:	00005400 	andeq	r5, r0, r0, lsl #8
     ddc:	53000100 	movwpl	r0, #256	; 0x100
     de0:	00000054 	andeq	r0, r0, r4, asr r0
     de4:	0000005c 	andeq	r0, r0, ip, asr r0
     de8:	01730003 	cmneq	r3, r3
     dec:	00005c9f 	muleq	r0, pc, ip	; <UNPREDICTABLE>
     df0:	00006400 	andeq	r6, r0, r0, lsl #8
     df4:	52000100 	andpl	r0, r0, #0
     df8:	00000064 	andeq	r0, r0, r4, rrx
     dfc:	00000068 	andeq	r0, r0, r8, rrx
     e00:	02730003 	rsbseq	r0, r3, #3, 0
     e04:	0000689f 	muleq	r0, pc, r8	; <UNPREDICTABLE>
     e08:	00007400 	andeq	r7, r0, r0, lsl #8
     e0c:	52000100 	andpl	r0, r0, #0
     e10:	00000074 	andeq	r0, r0, r4, ror r0
     e14:	00000078 	andeq	r0, r0, r8, ror r0
     e18:	01720003 	cmneq	r2, r3
     e1c:	0000009f 	muleq	r0, pc, r0	; <UNPREDICTABLE>
     e20:	00000000 	andeq	r0, r0, r0
     e24:	08000000 	stmdaeq	r0, {}	; <UNPREDICTABLE>
     e28:	78000000 	stmdavc	r0, {}	; <UNPREDICTABLE>
     e2c:	01000000 	mrseq	r0, (UNDEF: 0)
     e30:	00005400 	andeq	r5, r0, r0, lsl #8
	...
     e40:	0000002c 	andeq	r0, r0, ip, lsr #32
     e44:	00000034 	andeq	r0, r0, r4, lsr r0
     e48:	34500001 	ldrbcc	r0, [r0], #-1
     e4c:	48000000 	stmdami	r0, {}	; <UNPREDICTABLE>
     e50:	01000000 	mrseq	r0, (UNDEF: 0)
     e54:	00485400 	subeq	r5, r8, r0, lsl #8
     e58:	00580000 	subseq	r0, r8, r0
     e5c:	00010000 	andeq	r0, r1, r0
     e60:	00000050 	andeq	r0, r0, r0, asr r0
	...
     e6c:	00000101 	andeq	r0, r0, r1, lsl #2
     e70:	00000000 	andeq	r0, r0, r0
     e74:	00000c00 	andeq	r0, r0, r0, lsl #24
     e78:	50000100 	andpl	r0, r0, r0, lsl #2
     e7c:	0000000c 	andeq	r0, r0, ip
     e80:	00000020 	andeq	r0, r0, r0, lsr #32
     e84:	20540001 	subscs	r0, r4, r1
     e88:	24000000 	strcs	r0, [r0], #-0
     e8c:	03000000 	movweq	r0, #0
     e90:	9f017400 	svcls	0x00017400
     e94:	00000024 	andeq	r0, r0, r4, lsr #32
     e98:	00000038 	andeq	r0, r0, r8, lsr r0
     e9c:	00540001 	subseq	r0, r4, r1
	...
     eb0:	00038800 	andeq	r8, r3, r0, lsl #16
     eb4:	00039400 	andeq	r9, r3, r0, lsl #8
     eb8:	50000100 	andpl	r0, r0, r0, lsl #2
     ebc:	00000394 	muleq	r0, r4, r3
     ec0:	000003d0 	ldrdeq	r0, [r0], -r0	; <UNPREDICTABLE>
     ec4:	d05b0001 	subsle	r0, fp, r1
     ec8:	20000003 	andcs	r0, r0, r3
     ecc:	04000009 	streq	r0, [r0], #-9
     ed0:	5001f300 	andpl	pc, r1, r0, lsl #6
     ed4:	0009209f 	muleq	r9, pc, r0	; <UNPREDICTABLE>
     ed8:	00092800 	andeq	r2, r9, r0, lsl #16
     edc:	5b000100 	blpl	12e4 <__code_start__-0x6d1c>
     ee0:	00000928 	andeq	r0, r0, r8, lsr #18
     ee4:	000009b4 			; <UNDEFINED> instruction: 0x000009b4
     ee8:	01f30004 	mvnseq	r0, r4
     eec:	00009f50 	andeq	r9, r0, r0, asr pc
	...
     efc:	03880000 	orreq	r0, r8, #0, 0
     f00:	03d00000 	bicseq	r0, r0, #0, 0
     f04:	00010000 	andeq	r0, r1, r0
     f08:	0003d051 	andeq	sp, r3, r1, asr r0
     f0c:	00092000 	andeq	r2, r9, r0
     f10:	f3000400 	vshl.u8	d0, d0, d0
     f14:	209f5101 	addscs	r5, pc, r1, lsl #2
     f18:	28000009 	stmdacs	r0, {r0, r3}
     f1c:	01000009 	tsteq	r0, r9
     f20:	09285100 	stmdbeq	r8!, {r8, ip, lr}
     f24:	09b40000 	ldmibeq	r4!, {}	; <UNPREDICTABLE>
     f28:	00040000 	andeq	r0, r4, r0
     f2c:	9f5101f3 	svcls	0x005101f3
	...
     f3c:	01000000 	mrseq	r0, (UNDEF: 0)
     f40:	00010000 	andeq	r0, r1, r0
	...
     f50:	00000388 	andeq	r0, r0, r8, lsl #7
     f54:	000003d0 	ldrdeq	r0, [r0], -r0	; <UNPREDICTABLE>
     f58:	d0520001 	subsle	r0, r2, r1
     f5c:	00000003 	andeq	r0, r0, r3
     f60:	01000004 	tsteq	r0, r4
     f64:	04145600 	ldreq	r5, [r4], #-1536	; 0xfffffa00
     f68:	04240000 	strteq	r0, [r4], #-0
     f6c:	00010000 	andeq	r0, r1, r0
     f70:	00042456 	andeq	r2, r4, r6, asr r4
     f74:	00042800 	andeq	r2, r4, r0, lsl #16
     f78:	76000300 	strvc	r0, [r0], -r0, lsl #6
     f7c:	04a89f7f 	strteq	r9, [r8], #3967	; 0xf7f
     f80:	04ac0000 	strteq	r0, [ip], #0
     f84:	00010000 	andeq	r0, r1, r0
     f88:	0004e056 	andeq	lr, r4, r6, asr r0
     f8c:	00050400 	andeq	r0, r5, r0, lsl #8
     f90:	56000100 	strpl	r0, [r0], -r0, lsl #2
     f94:	0000057c 	andeq	r0, r0, ip, ror r5
     f98:	00000588 	andeq	r0, r0, r8, lsl #11
     f9c:	88530001 	ldmdahi	r3, {r0}^
     fa0:	d0000005 	andle	r0, r0, r5
     fa4:	03000005 	movweq	r0, #5
     fa8:	7dcc9100 	stfvcp	f1, [ip]
     fac:	00000800 	andeq	r0, r0, r0, lsl #16
     fb0:	0000080f 	andeq	r0, r0, pc, lsl #16
     fb4:	0f530001 	svceq	0x00530001
     fb8:	88000008 	stmdahi	r0, {r3}
     fbc:	03000008 	movweq	r0, #8
     fc0:	7dcc9100 	stfvcp	f1, [ip]
     fc4:	00000920 	andeq	r0, r0, r0, lsr #18
     fc8:	00000928 	andeq	r0, r0, r8, lsr #18
     fcc:	48520001 	ldmdami	r2, {r0}^
     fd0:	64000009 	strvs	r0, [r0], #-9
     fd4:	03000009 	movweq	r0, #9
     fd8:	7dcc9100 	stfvcp	f1, [ip]
	...
     fec:	00010100 	andeq	r0, r1, r0, lsl #2
     ff0:	00010100 	andeq	r0, r1, r0, lsl #2
     ff4:	02000000 	andeq	r0, r0, #0, 0
     ff8:	02000002 	andeq	r0, r0, #2, 0
     ffc:	01000002 	tsteq	r0, r2
    1000:	02000001 	andeq	r0, r0, #1, 0
    1004:	01000002 	tsteq	r0, r2
    1008:	00000001 	andeq	r0, r0, r1
    100c:	00000000 	andeq	r0, r0, r0
    1010:	03880000 	orreq	r0, r8, #0, 0
    1014:	03ac0000 			; <UNDEFINED> instruction: 0x03ac0000
    1018:	00010000 	andeq	r0, r1, r0
    101c:	0003ac53 	andeq	sl, r3, r3, asr ip
    1020:	0003c000 	andeq	ip, r3, r0
    1024:	53000300 	movwpl	r0, #768	; 0x300
    1028:	03d00493 	bicseq	r0, r0, #-1828716544	; 0x93000000
    102c:	03e80000 	mvneq	r0, #0, 0
    1030:	00030000 	andeq	r0, r3, r0
    1034:	e8049358 	stmda	r4, {r3, r4, r6, r8, r9, ip, pc}
    1038:	ac000003 	stcge	0, cr0, [r0], {3}
    103c:	03000004 	movweq	r0, #4
    1040:	04935800 	ldreq	r5, [r3], #2048	; 0x800
    1044:	000004c0 	andeq	r0, r0, r0, asr #9
    1048:	000004c0 	andeq	r0, r0, r0, asr #9
    104c:	93580003 	cmpls	r8, #3, 0
    1050:	0004c004 	andeq	ip, r4, r4
    1054:	0004cc00 	andeq	ip, r4, r0, lsl #24
    1058:	78000500 	stmdavc	r0, {r8, sl}
    105c:	04939f04 	ldreq	r9, [r3], #3844	; 0xf04
    1060:	000004cc 	andeq	r0, r0, ip, asr #9
    1064:	000004e0 	andeq	r0, r0, r0, ror #9
    1068:	93580003 	cmpls	r8, #3, 0
    106c:	0004e004 	andeq	lr, r4, r4
    1070:	00053800 	andeq	r3, r5, r0, lsl #16
    1074:	58000300 	stmdapl	r0, {r8, r9}
    1078:	05380493 	ldreq	r0, [r8, #-1171]!	; 0xfffffb6d
    107c:	053c0000 	ldreq	r0, [ip, #-0]!
    1080:	00050000 	andeq	r0, r5, r0
    1084:	939f7978 	orrsls	r7, pc, #120, 18	; 0x1e0000
    1088:	0005d004 	andeq	sp, r5, r4
    108c:	0005d000 	andeq	sp, r5, r0
    1090:	58000300 	stmdapl	r0, {r8, r9}
    1094:	05d00493 	ldrbeq	r0, [r0, #1171]	; 0x493
    1098:	05d40000 	ldrbeq	r0, [r4]
    109c:	00050000 	andeq	r0, r5, r0
    10a0:	939f0478 	orrsls	r0, pc, #120, 8	; 0x78000000
    10a4:	0005f404 	andeq	pc, r5, r4, lsl #8
    10a8:	0005f400 	andeq	pc, r5, r0, lsl #8
    10ac:	58000300 	stmdapl	r0, {r8, r9}
    10b0:	05f40493 	ldrbeq	r0, [r4, #1171]!	; 0x493
    10b4:	05fc0000 	ldrbeq	r0, [ip, #0]!
    10b8:	00050000 	andeq	r0, r5, r0
    10bc:	939f0478 	orrsls	r0, pc, #120, 8	; 0x78000000
    10c0:	0005fc04 	andeq	pc, r5, r4, lsl #24
    10c4:	0005fc00 	andeq	pc, r5, r0, lsl #24
    10c8:	58000300 	stmdapl	r0, {r8, r9}
    10cc:	05fc0493 	ldrbeq	r0, [ip, #1171]!	; 0x493
    10d0:	06000000 	streq	r0, [r0], -r0
    10d4:	00050000 	andeq	r0, r5, r0
    10d8:	939f0478 	orrsls	r0, pc, #120, 8	; 0x78000000
    10dc:	00060004 	andeq	r0, r6, r4
    10e0:	00070000 	andeq	r0, r7, r0
    10e4:	58000300 	stmdapl	r0, {r8, r9}
    10e8:	07000493 			; <UNDEFINED> instruction: 0x07000493
    10ec:	070c0000 	streq	r0, [ip, -r0]
    10f0:	00050000 	andeq	r0, r5, r0
    10f4:	939f0478 	orrsls	r0, pc, #120, 8	; 0x78000000
    10f8:	00070c04 	andeq	r0, r7, r4, lsl #24
    10fc:	0007f800 	andeq	pc, r7, r0, lsl #16
    1100:	58000300 	stmdapl	r0, {r8, r9}
    1104:	07f80493 			; <UNDEFINED> instruction: 0x07f80493
    1108:	07fc0000 	ldrbeq	r0, [ip, r0]!
    110c:	00050000 	andeq	r0, r5, r0
    1110:	939f0478 	orrsls	r0, pc, #120, 8	; 0x78000000
    1114:	0007fc04 	andeq	pc, r7, r4, lsl #24
    1118:	00080000 	andeq	r0, r8, r0
    111c:	58000300 	stmdapl	r0, {r8, r9}
    1120:	08880493 	stmeq	r8, {r0, r1, r4, r7, sl}
    1124:	09200000 	stmdbeq	r0!, {}	; <UNPREDICTABLE>
    1128:	00030000 	andeq	r0, r3, r0
    112c:	20049358 	andcs	r9, r4, r8, asr r3
    1130:	28000009 	stmdacs	r0, {r0, r3}
    1134:	01000009 	tsteq	r0, r9
    1138:	09645300 	stmdbeq	r4!, {r8, r9, ip, lr}^
    113c:	09b40000 	ldmibeq	r4!, {}	; <UNPREDICTABLE>
    1140:	00030000 	andeq	r0, r3, r0
    1144:	00049358 	andeq	r9, r4, r8, asr r3
    1148:	00000000 	andeq	r0, r0, r0
    114c:	01000000 	mrseq	r0, (UNDEF: 0)
	...
    1158:	00000202 	andeq	r0, r0, r2, lsl #4
    115c:	01010100 	mrseq	r0, (UNDEF: 17)
    1160:	00000000 	andeq	r0, r0, r0
    1164:	0003ac00 	andeq	sl, r3, r0, lsl #24
    1168:	0003d000 	andeq	sp, r3, r0
    116c:	5b000100 	blpl	1574 <__code_start__-0x6a8c>
    1170:	000003d0 	ldrdeq	r0, [r0], -r0	; <UNPREDICTABLE>
    1174:	000003d4 	ldrdeq	r0, [r0], -r4
    1178:	d4540001 	ldrble	r0, [r4], #-1
    117c:	d8000003 	stmdale	r0, {r0, r1}
    1180:	03000003 	movweq	r0, #3
    1184:	9f7f7400 	svcls	0x007f7400
    1188:	000003d8 	ldrdeq	r0, [r0], -r8
    118c:	000003fc 	strdeq	r0, [r0], -ip
    1190:	a8540001 	ldmdage	r4, {r0}^
    1194:	ac000004 	stcge	0, cr0, [r0], {4}
    1198:	01000004 	tsteq	r0, r4
    119c:	04ac5400 	strteq	r5, [ip], #1024	; 0x400
    11a0:	04b40000 	ldrteq	r0, [r4], #0
    11a4:	00030000 	andeq	r0, r3, r0
    11a8:	b49f0174 	ldrlt	r0, [pc], #372	; 11b0 <__code_start__-0x6e50>
    11ac:	c0000004 	andgt	r0, r0, r4
    11b0:	01000004 	tsteq	r0, r4
    11b4:	04e45400 	strbteq	r5, [r4], #1024	; 0x400
    11b8:	04f40000 	ldrbteq	r0, [r4], #0
    11bc:	00010000 	andeq	r0, r1, r0
    11c0:	0004f454 	andeq	pc, r4, r4, asr r4	; <UNPREDICTABLE>
    11c4:	0004f800 	andeq	pc, r4, r0, lsl #16
    11c8:	74000300 	strvc	r0, [r0], #-768	; 0xfffffd00
    11cc:	04f89f01 	ldrbteq	r9, [r8], #3841	; 0xf01
    11d0:	05040000 	streq	r0, [r4, #-0]
    11d4:	00010000 	andeq	r0, r1, r0
    11d8:	00092054 	andeq	r2, r9, r4, asr r0
    11dc:	00092800 	andeq	r2, r9, r0, lsl #16
    11e0:	5b000100 	blpl	15e8 <__code_start__-0x6a18>
	...
    11ec:	03ac0001 			; <UNDEFINED> instruction: 0x03ac0001
    11f0:	09b40000 	ldmibeq	r4!, {}	; <UNPREDICTABLE>
    11f4:	00010000 	andeq	r0, r1, r0
    11f8:	00000057 	andeq	r0, r0, r7, asr r0
    11fc:	00000000 	andeq	r0, r0, r0
    1200:	00000200 	andeq	r0, r0, r0, lsl #4
    1204:	7c000000 	stcvc	0, cr0, [r0], {-0}
    1208:	d0000005 	andle	r0, r0, r5
    120c:	01000005 	tsteq	r0, r5
    1210:	08005b00 	stmdaeq	r0, {r8, r9, fp, ip, lr}
    1214:	08880000 	stmeq	r8, {}	; <UNPREDICTABLE>
    1218:	00010000 	andeq	r0, r1, r0
    121c:	0009485b 	andeq	r4, r9, fp, asr r8
    1220:	00096400 	andeq	r6, r9, r0, lsl #8
    1224:	5b000100 	blpl	162c <__code_start__-0x69d4>
	...
    1230:	00000003 	andeq	r0, r0, r3
    1234:	057c0000 	ldrbeq	r0, [ip, #-0]!
    1238:	05d00000 	ldrbeq	r0, [r0]
    123c:	00010000 	andeq	r0, r1, r0
    1240:	00080059 	andeq	r0, r8, r9, asr r0
    1244:	00088800 	andeq	r8, r8, r0, lsl #16
    1248:	59000100 	stmdbpl	r0, {r8}
    124c:	00000948 	andeq	r0, r0, r8, asr #18
    1250:	00000964 	andeq	r0, r0, r4, ror #18
    1254:	00590001 	subseq	r0, r9, r1
    1258:	00000000 	andeq	r0, r0, r0
    125c:	04000000 	streq	r0, [r0], #-0
    1260:	00000000 	andeq	r0, r0, r0
    1264:	ac000000 	stcge	0, cr0, [r0], {-0}
    1268:	d0000003 	andle	r0, r0, r3
    126c:	01000003 	tsteq	r0, r3
    1270:	03d05200 	bicseq	r5, r0, #0, 4
    1274:	09200000 	stmdbeq	r0!, {}	; <UNPREDICTABLE>
    1278:	00040000 	andeq	r0, r4, r0
    127c:	9f5201f3 	svcls	0x005201f3
    1280:	00000920 	andeq	r0, r0, r0, lsr #18
    1284:	00000928 	andeq	r0, r0, r8, lsr #18
    1288:	28520001 	ldmdacs	r2, {r0}^
    128c:	b4000009 	strlt	r0, [r0], #-9
    1290:	04000009 	streq	r0, [r0], #-9
    1294:	5201f300 	andpl	pc, r1, #0, 6
    1298:	0000009f 	muleq	r0, pc, r0	; <UNPREDICTABLE>
    129c:	00000000 	andeq	r0, r0, r0
    12a0:	01010000 	mrseq	r0, (UNDEF: 1)
    12a4:	00000000 	andeq	r0, r0, r0
    12a8:	00000100 	andeq	r0, r0, r0, lsl #2
    12ac:	0004e000 	andeq	lr, r4, r0
    12b0:	0004e000 	andeq	lr, r4, r0
    12b4:	50000100 	andpl	r0, r0, r0, lsl #2
    12b8:	000004e0 	andeq	r0, r0, r0, ror #9
    12bc:	000004e8 	andeq	r0, r0, r8, ror #9
    12c0:	b8550001 	ldmdalt	r5, {r0}^
    12c4:	d0000005 	andle	r0, r0, r5
    12c8:	01000005 	tsteq	r0, r5
    12cc:	05f05500 	ldrbeq	r5, [r0, #1280]!	; 0x500
    12d0:	05f40000 	ldrbeq	r0, [r4, #0]!
    12d4:	00010000 	andeq	r0, r1, r0
    12d8:	0007f450 	andeq	pc, r7, r0, asr r4	; <UNPREDICTABLE>
    12dc:	0007f800 	andeq	pc, r7, r0, lsl #16
    12e0:	55000100 	strpl	r0, [r0, #-256]	; 0xffffff00
    12e4:	00000850 	andeq	r0, r0, r0, asr r8
    12e8:	00000888 	andeq	r0, r0, r8, lsl #17
    12ec:	00550001 	subseq	r0, r5, r1
    12f0:	00000000 	andeq	r0, r0, r0
    12f4:	02000000 	andeq	r0, r0, #0, 0
    12f8:	00000000 	andeq	r0, r0, r0
    12fc:	14000000 	strne	r0, [r0], #-0
    1300:	18000004 	stmdane	r0, {r2}
    1304:	02000004 	andeq	r0, r0, #4, 0
    1308:	189f3000 	ldmne	pc, {ip, sp}	; <UNPREDICTABLE>
    130c:	1c000004 	stcne	0, cr0, [r0], {4}
    1310:	01000004 	tsteq	r0, r4
    1314:	04285500 	strteq	r5, [r8], #-1280	; 0xfffffb00
    1318:	043c0000 	ldrteq	r0, [ip], #-0
    131c:	00010000 	andeq	r0, r1, r0
    1320:	00092855 	andeq	r2, r9, r5, asr r8
    1324:	00093000 	andeq	r3, r9, r0
    1328:	55000100 	strpl	r0, [r0, #-256]	; 0xffffff00
	...
    1334:	00000001 	andeq	r0, r0, r1
	...
    1340:	00000504 	andeq	r0, r0, r4, lsl #10
    1344:	00000584 	andeq	r0, r0, r4, lsl #11
    1348:	84560001 	ldrbhi	r0, [r6], #-1
    134c:	88000005 	stmdahi	r0, {r0, r2}
    1350:	03000005 	movweq	r0, #5
    1354:	9f7e7300 	svcls	0x007e7300
    1358:	00000588 	andeq	r0, r0, r8, lsl #11
    135c:	000005d0 	ldrdeq	r0, [r0], -r0	; <UNPREDICTABLE>
    1360:	cc910007 	ldcgt	0, cr0, [r1], {7}
    1364:	1c32067d 	ldcne	6, cr0, [r2], #-500	; 0xfffffe0c
    1368:	0008009f 	muleq	r8, pc, r0	; <UNPREDICTABLE>
    136c:	00081c00 	andeq	r1, r8, r0, lsl #24
    1370:	56000100 	strpl	r0, [r0], -r0, lsl #2
    1374:	0000081c 	andeq	r0, r0, ip, lsl r8
    1378:	00000888 	andeq	r0, r0, r8, lsl #17
    137c:	cc910007 	ldcgt	0, cr0, [r1], {7}
    1380:	1c32067d 	ldcne	6, cr0, [r2], #-500	; 0xfffffe0c
    1384:	0009489f 	muleq	r9, pc, r8	; <UNPREDICTABLE>
    1388:	0009b400 	andeq	fp, r9, r0, lsl #8
    138c:	56000100 	strpl	r0, [r0], -r0, lsl #2
	...
    1398:	04020604 	streq	r0, [r2], #-1540	; 0xfffff9fc
    139c:	00000414 	andeq	r0, r0, r4, lsl r4
    13a0:	00000414 	andeq	r0, r0, r4, lsl r4
    13a4:	00720006 	rsbseq	r0, r2, r6
    13a8:	9f1aff08 	svcls	0x001aff08
    13ac:	00000428 	andeq	r0, r0, r8, lsr #8
    13b0:	00000428 	andeq	r0, r0, r8, lsr #8
    13b4:	00720006 	rsbseq	r0, r2, r6
    13b8:	9f1aff08 	svcls	0x001aff08
	...
    13c4:	00000002 	andeq	r0, r0, r2
    13c8:	05fc0000 	ldrbeq	r0, [ip, #0]!
    13cc:	07000000 	streq	r0, [r0, -r0]
    13d0:	00030000 	andeq	r0, r3, r0
    13d4:	a89f8008 	ldmge	pc, {r3, pc}	; <UNPREDICTABLE>
    13d8:	bc000008 	stclt	0, cr0, [r0], {8}
    13dc:	03000008 	movweq	r0, #8
    13e0:	9f800800 	svcls	0x00800800
    13e4:	00000910 	andeq	r0, r0, r0, lsl r9
    13e8:	00000920 	andeq	r0, r0, r0, lsr #18
    13ec:	80080003 	andhi	r0, r8, r3
    13f0:	0000009f 	muleq	r0, pc, r0	; <UNPREDICTABLE>
    13f4:	00000000 	andeq	r0, r0, r0
    13f8:	00000100 	andeq	r0, r0, r0, lsl #2
    13fc:	fc000000 	stc2	0, cr0, [r0], {-0}
    1400:	00000005 	andeq	r0, r0, r5
    1404:	02000007 	andeq	r0, r0, #7, 0
    1408:	a89f3000 	ldmge	pc, {ip, sp}	; <UNPREDICTABLE>
    140c:	bc000008 	stclt	0, cr0, [r0], {8}
    1410:	02000008 	andeq	r0, r0, #8, 0
    1414:	109f3000 	addsne	r3, pc, r0
    1418:	20000009 	andcs	r0, r0, r9
    141c:	02000009 	andeq	r0, r0, #9, 0
    1420:	009f3000 	addseq	r3, pc, r0
    1424:	00000000 	andeq	r0, r0, r0
    1428:	01000000 	mrseq	r0, (UNDEF: 0)
    142c:	00000000 	andeq	r0, r0, r0
    1430:	0005fc00 	andeq	pc, r5, r0, lsl #24
    1434:	0006e000 	andeq	lr, r6, r0
    1438:	55000100 	strpl	r0, [r0, #-256]	; 0xffffff00
    143c:	000008a8 	andeq	r0, r0, r8, lsr #17
    1440:	000008bc 			; <UNDEFINED> instruction: 0x000008bc
    1444:	10550001 	subsne	r0, r5, r1
    1448:	20000009 	andcs	r0, r0, r9
    144c:	01000009 	tsteq	r0, r9
    1450:	00005500 	andeq	r5, r0, r0, lsl #10
    1454:	00000000 	andeq	r0, r0, r0
    1458:	00010000 	andeq	r0, r1, r0
    145c:	00000000 	andeq	r0, r0, r0
    1460:	05fc0000 	ldrbeq	r0, [ip, #0]!
    1464:	06e00000 	strbteq	r0, [r0], r0
    1468:	00040000 	andeq	r0, r4, r0
    146c:	9f7dd091 	svcls	0x007dd091
    1470:	000006e0 	andeq	r0, r0, r0, ror #13
    1474:	00000700 	andeq	r0, r0, r0, lsl #14
    1478:	a8550001 	ldmdage	r5, {r0}^
    147c:	bc000008 	stclt	0, cr0, [r0], {8}
    1480:	04000008 	streq	r0, [r0], #-8
    1484:	7dd09100 	ldfvcp	f1, [r0]
    1488:	0009109f 	muleq	r9, pc, r0	; <UNPREDICTABLE>
    148c:	00092000 	andeq	r2, r9, r0
    1490:	91000400 	tstls	r0, r0, lsl #8
    1494:	009f7dd0 			; <UNDEFINED> instruction: 0x009f7dd0
    1498:	00000000 	andeq	r0, r0, r0
    149c:	01000000 	mrseq	r0, (UNDEF: 0)
    14a0:	00000000 	andeq	r0, r0, r0
    14a4:	0005fc00 	andeq	pc, r5, r0, lsl #24
    14a8:	00070000 	andeq	r0, r7, r0
    14ac:	38000200 	stmdacc	r0, {r9}
    14b0:	0008a89f 	muleq	r8, pc, r8	; <UNPREDICTABLE>
    14b4:	0008bc00 	andeq	fp, r8, r0, lsl #24
    14b8:	38000200 	stmdacc	r0, {r9}
    14bc:	0009109f 	muleq	r9, pc, r0	; <UNPREDICTABLE>
    14c0:	00092000 	andeq	r2, r9, r0
    14c4:	38000200 	stmdacc	r0, {r9}
    14c8:	0000009f 	muleq	r0, pc, r0	; <UNPREDICTABLE>
    14cc:	00000000 	andeq	r0, r0, r0
    14d0:	07070400 	streq	r0, [r7, -r0, lsl #8]
	...
    14dc:	fc000000 	stc2	0, cr0, [r0], {-0}
    14e0:	fc000005 	stc2	0, cr0, [r0], {5}
    14e4:	04000005 	streq	r0, [r0], #-5
    14e8:	7ed09100 	atnvcs	f1, f0
    14ec:	0005fc9f 	muleq	r5, pc, ip	; <UNPREDICTABLE>
    14f0:	00067800 	andeq	r7, r6, r0, lsl #16
    14f4:	91000400 	tstls	r0, r0, lsl #8
    14f8:	789f7ed1 	ldmvc	pc, {r0, r4, r6, r7, r9, sl, fp, ip, sp, lr}	; <UNPREDICTABLE>
    14fc:	d4000006 	strle	r0, [r0], #-6
    1500:	01000006 	tsteq	r0, r6
    1504:	06d45c00 	ldrbeq	r5, [r4], r0, lsl #24
    1508:	07000000 	streq	r0, [r0, -r0]
    150c:	00040000 	andeq	r0, r4, r0
    1510:	9f7ed191 	svcls	0x007ed191
    1514:	000008a8 	andeq	r0, r0, r8, lsr #17
    1518:	000008bc 			; <UNDEFINED> instruction: 0x000008bc
    151c:	d1910004 	orrsle	r0, r1, r4
    1520:	09109f7e 	ldmdbeq	r0, {r1, r2, r3, r4, r5, r6, r8, r9, sl, fp, ip, pc}
    1524:	09140000 	ldmdbeq	r4, {}	; <UNPREDICTABLE>
    1528:	00040000 	andeq	r0, r4, r0
    152c:	9f7ed191 	svcls	0x007ed191
    1530:	00000914 	andeq	r0, r0, r4, lsl r9
    1534:	00000920 	andeq	r0, r0, r0, lsr #18
    1538:	005c0001 	subseq	r0, ip, r1
    153c:	00000000 	andeq	r0, r0, r0
    1540:	04000000 	streq	r0, [r0], #-0
    1544:	00010001 	andeq	r0, r1, r1
    1548:	00060800 	andeq	r0, r6, r0, lsl #16
    154c:	0006d000 	andeq	sp, r6, r0
    1550:	55000100 	strpl	r0, [r0, #-256]	; 0xffffff00
    1554:	000008a8 	andeq	r0, r0, r8, lsr #17
    1558:	000008b8 			; <UNDEFINED> instruction: 0x000008b8
    155c:	10550001 	subsne	r0, r5, r1
    1560:	20000009 	andcs	r0, r0, r9
    1564:	01000009 	tsteq	r0, r9
    1568:	00005500 	andeq	r5, r0, r0, lsl #10
    156c:	00000000 	andeq	r0, r0, r0
    1570:	00040000 	andeq	r0, r4, r0
    1574:	01000000 	mrseq	r0, (UNDEF: 0)
    1578:	01000000 	mrseq	r0, (UNDEF: 0)
    157c:	06080000 	streq	r0, [r8], -r0
    1580:	06b00000 	ldrteq	r0, [r0], r0
    1584:	00040000 	andeq	r0, r4, r0
    1588:	9f7ed091 	svcls	0x007ed091
    158c:	000006b0 			; <UNDEFINED> instruction: 0x000006b0
    1590:	000006c8 	andeq	r0, r0, r8, asr #13
    1594:	c8500001 	ldmdagt	r0, {r0}^
    1598:	d0000006 	andle	r0, r0, r6
    159c:	04000006 	streq	r0, [r0], #-6
    15a0:	7ed09100 	atnvcs	f1, f0
    15a4:	0008a89f 	muleq	r8, pc, r8	; <UNPREDICTABLE>
    15a8:	0008b000 	andeq	fp, r8, r0
    15ac:	91000400 	tstls	r0, r0, lsl #8
    15b0:	b09f7ed0 			; <UNDEFINED> instruction: 0xb09f7ed0
    15b4:	b8000008 	stmdalt	r0, {r3}
    15b8:	01000008 	tsteq	r0, r8
    15bc:	09105300 	ldmdbeq	r0, {r8, r9, ip, lr}
    15c0:	09200000 	stmdbeq	r0!, {}	; <UNPREDICTABLE>
    15c4:	00040000 	andeq	r0, r4, r0
    15c8:	9f7ed091 	svcls	0x007ed091
	...
    15d4:	01000004 	tsteq	r0, r4
    15d8:	03010101 	movweq	r0, #4353	; 0x1101
    15dc:	01000203 	tsteq	r0, r3, lsl #4
    15e0:	00000000 	andeq	r0, r0, r0
    15e4:	00000608 	andeq	r0, r0, r8, lsl #12
    15e8:	00000624 	andeq	r0, r0, r4, lsr #12
    15ec:	d1910004 	orrsle	r0, r1, r4
    15f0:	06849f7e 			; <UNDEFINED> instruction: 0x06849f7e
    15f4:	06840000 	streq	r0, [r4], r0
    15f8:	00010000 	andeq	r0, r1, r0
    15fc:	00068450 	andeq	r8, r6, r0, asr r4
    1600:	00069800 	andeq	r9, r6, r0, lsl #16
    1604:	70000300 	andvc	r0, r0, r0, lsl #6
    1608:	06989f01 	ldreq	r9, [r8], r1, lsl #30
    160c:	06a40000 	strteq	r0, [r4], r0
    1610:	00030000 	andeq	r0, r3, r0
    1614:	a49f0270 	ldrge	r0, [pc], #624	; 161c <__code_start__-0x69e4>
    1618:	a8000006 	stmdage	r0, {r1, r2}
    161c:	03000006 	movweq	r0, #6
    1620:	9f037000 	svcls	0x00037000
    1624:	000008a8 	andeq	r0, r0, r8, lsr #17
    1628:	000008b8 			; <UNDEFINED> instruction: 0x000008b8
    162c:	d1910004 	orrsle	r0, r1, r4
    1630:	09109f7e 	ldmdbeq	r0, {r1, r2, r3, r4, r5, r6, r8, r9, sl, fp, ip, pc}
    1634:	09140000 	ldmdbeq	r4, {}	; <UNPREDICTABLE>
    1638:	00040000 	andeq	r0, r4, r0
    163c:	9f7ed191 	svcls	0x007ed191
    1640:	00000914 	andeq	r0, r0, r4, lsl r9
    1644:	00000920 	andeq	r0, r0, r0, lsr #18
    1648:	005c0001 	subseq	r0, ip, r1
    164c:	00000000 	andeq	r0, r0, r0
    1650:	06000000 	streq	r0, [r0], -r0
    1654:	01010000 	mrseq	r0, (UNDEF: 1)
    1658:	01010101 	tsteq	r1, r1, lsl #2
    165c:	00010002 	andeq	r0, r1, r2
    1660:	00060800 	andeq	r0, r6, r0, lsl #16
    1664:	00062400 	andeq	r2, r6, r0, lsl #8
    1668:	31000200 	mrscc	r0, R8_usr
    166c:	0006849f 	muleq	r6, pc, r4	; <UNPREDICTABLE>
    1670:	00069400 	andeq	r9, r6, r0, lsl #8
    1674:	52000100 	andpl	r0, r0, #0
    1678:	00000694 	muleq	r0, r4, r6
    167c:	000006a4 	andeq	r0, r0, r4, lsr #13
    1680:	a4590001 	ldrbge	r0, [r9], #-1
    1684:	a8000006 	stmdage	r0, {r1, r2}
    1688:	01000006 	tsteq	r0, r6
    168c:	06a85200 	strteq	r5, [r8], r0, lsl #4
    1690:	06a80000 	strteq	r0, [r8], r0
    1694:	00030000 	andeq	r0, r3, r0
    1698:	a89f0172 	ldmge	pc, {r1, r4, r5, r6, r8}	; <UNPREDICTABLE>
    169c:	b8000008 	stmdalt	r0, {r3}
    16a0:	02000008 	andeq	r0, r0, #8, 0
    16a4:	109f3100 	addsne	r3, pc, r0, lsl #2
    16a8:	20000009 	andcs	r0, r0, r9
    16ac:	02000009 	andeq	r0, r0, #9, 0
    16b0:	009f3100 	addseq	r3, pc, r0, lsl #2
    16b4:	00000000 	andeq	r0, r0, r0
    16b8:	01000000 	mrseq	r0, (UNDEF: 0)
    16bc:	01000606 	tsteq	r0, r6, lsl #12
    16c0:	0006d000 	andeq	sp, r6, r0
    16c4:	0006d000 	andeq	sp, r6, r0
    16c8:	91000400 	tstls	r0, r0, lsl #8
    16cc:	d09f7ed0 			; <UNDEFINED> instruction: 0xd09f7ed0
    16d0:	00000006 	andeq	r0, r0, r6
    16d4:	01000007 	tsteq	r0, r7
    16d8:	08b85000 	ldmeq	r8!, {ip, lr}
    16dc:	08bc0000 	ldmeq	ip!, {}	; <UNPREDICTABLE>
    16e0:	00010000 	andeq	r0, r1, r0
    16e4:	00000053 	andeq	r0, r0, r3, asr r0
    16e8:	00000000 	andeq	r0, r0, r0
    16ec:	00080100 	andeq	r0, r8, r0, lsl #2
    16f0:	01010000 	mrseq	r0, (UNDEF: 1)
    16f4:	d0070100 	andle	r0, r7, r0, lsl #2
    16f8:	d0000006 	andle	r0, r0, r6
    16fc:	06000006 	streq	r0, [r0], -r6
    1700:	71007c00 	tstvc	r0, r0, lsl #24
    1704:	e49f2200 	ldr	r2, [pc], #512	; 170c <__code_start__-0x68f4>
    1708:	e8000006 	stmda	r0, {r1, r2}
    170c:	03000006 	movweq	r0, #6
    1710:	9f7f7300 	svcls	0x007f7300
    1714:	000006e8 	andeq	r0, r0, r8, ror #13
    1718:	000006f0 	strdeq	r0, [r0], -r0	; <UNPREDICTABLE>
    171c:	f0530001 			; <UNDEFINED> instruction: 0xf0530001
    1720:	f8000006 			; <UNDEFINED> instruction: 0xf8000006
    1724:	03000006 	movweq	r0, #6
    1728:	9f7f7300 	svcls	0x007f7300
    172c:	000008b8 			; <UNDEFINED> instruction: 0x000008b8
    1730:	000008b8 			; <UNDEFINED> instruction: 0x000008b8
    1734:	d1910004 	orrsle	r0, r1, r4
    1738:	00009f7e 	andeq	r9, r0, lr, ror pc
    173c:	00000000 	andeq	r0, r0, r0
    1740:	00010000 	andeq	r0, r1, r0
    1744:	06d00001 	ldrbeq	r0, [r0], r1
    1748:	07000000 	streq	r0, [r0, -r0]
    174c:	00030000 	andeq	r0, r3, r0
    1750:	b89f8008 	ldmlt	pc, {r3, pc}	; <UNPREDICTABLE>
    1754:	bc000008 	stclt	0, cr0, [r0], {8}
    1758:	03000008 	movweq	r0, #8
    175c:	9f800800 	svcls	0x00800800
	...
    1768:	00000001 	andeq	r0, r0, r1
    176c:	00010100 	andeq	r0, r1, r0, lsl #2
    1770:	01020000 	mrseq	r0, (UNDEF: 2)
    1774:	06d00001 	ldrbeq	r0, [r0], r1
    1778:	06e00000 	strbteq	r0, [r0], r0
    177c:	00040000 	andeq	r0, r4, r0
    1780:	9f7dd091 	svcls	0x007dd091
    1784:	000006e0 	andeq	r0, r0, r0, ror #13
    1788:	000006e4 	andeq	r0, r0, r4, ror #13
    178c:	e4550001 	ldrb	r0, [r5], #-1
    1790:	e4000006 	str	r0, [r0], #-6
    1794:	03000006 	movweq	r0, #6
    1798:	9f017200 	svcls	0x00017200
    179c:	000006e4 	andeq	r0, r0, r4, ror #13
    17a0:	000006f0 	strdeq	r0, [r0], -r0	; <UNPREDICTABLE>
    17a4:	02720003 	rsbseq	r0, r2, #3, 0
    17a8:	0006f09f 	muleq	r6, pc, r0	; <UNPREDICTABLE>
    17ac:	00070000 	andeq	r0, r7, r0
    17b0:	72000300 	andvc	r0, r0, #0, 6
    17b4:	07ec9f01 	strbeq	r9, [ip, r1, lsl #30]!
    17b8:	07f40000 	ldrbeq	r0, [r4, r0]!
    17bc:	00030000 	andeq	r0, r3, r0
    17c0:	b89f0173 	ldmlt	pc, {r0, r1, r4, r5, r6, r8}	; <UNPREDICTABLE>
    17c4:	bc000008 	stclt	0, cr0, [r0], {8}
    17c8:	04000008 	streq	r0, [r0], #-8
    17cc:	7dd09100 	ldfvcp	f1, [r0]
    17d0:	0000009f 	muleq	r0, pc, r0	; <UNPREDICTABLE>
    17d4:	00000000 	andeq	r0, r0, r0
    17d8:	b8000400 	stmdalt	r0, {sl}
    17dc:	bc000008 	stclt	0, cr0, [r0], {8}
    17e0:	02000008 	andeq	r0, r0, #8, 0
    17e4:	009f3200 	addseq	r3, pc, r0, lsl #4
    17e8:	00000000 	andeq	r0, r0, r0
    17ec:	07000000 	streq	r0, [r0, -r0]
    17f0:	06000000 	streq	r0, [r0], -r0
    17f4:	0006d000 	andeq	sp, r6, r0
    17f8:	0006e000 	andeq	lr, r6, r0
    17fc:	91000400 	tstls	r0, r0, lsl #8
    1800:	e09f7dd0 			; <UNDEFINED> instruction: 0xe09f7dd0
    1804:	00000006 	andeq	r0, r0, r6
    1808:	01000007 	tsteq	r0, r7
    180c:	08b85500 	ldmeq	r8!, {r8, sl, ip, lr}
    1810:	08bc0000 	ldmeq	ip!, {}	; <UNPREDICTABLE>
    1814:	00040000 	andeq	r0, r4, r0
    1818:	9f7dd091 	svcls	0x007dd091
	...
    1824:	00000001 	andeq	r0, r0, r1
    1828:	0000070c 	andeq	r0, r0, ip, lsl #14
    182c:	000007ec 	andeq	r0, r0, ip, ror #15
    1830:	80080003 	andhi	r0, r8, r3
    1834:	0008949f 	muleq	r8, pc, r4	; <UNPREDICTABLE>
    1838:	0008a800 	andeq	sl, r8, r0, lsl #16
    183c:	08000300 	stmdaeq	r0, {r8, r9}
    1840:	00009f80 	andeq	r9, r0, r0, lsl #31
	...
    184c:	070c0000 	streq	r0, [ip, -r0]
    1850:	07ec0000 	strbeq	r0, [ip, r0]!
    1854:	00020000 	andeq	r0, r2, r0
    1858:	08949f30 	ldmeq	r4, {r4, r5, r8, r9, sl, fp, ip, pc}
    185c:	08a80000 	stmiaeq	r8!, {}	; <UNPREDICTABLE>
    1860:	00020000 	andeq	r0, r2, r0
    1864:	00009f30 	andeq	r9, r0, r0, lsr pc
	...
    1870:	070c0000 	streq	r0, [ip, -r0]
    1874:	07d00000 	ldrbeq	r0, [r0, r0]
    1878:	00010000 	andeq	r0, r1, r0
    187c:	00089455 	andeq	r9, r8, r5, asr r4
    1880:	0008a800 	andeq	sl, r8, r0, lsl #16
    1884:	55000100 	strpl	r0, [r0, #-256]	; 0xffffff00
	...
    1894:	070c0000 	streq	r0, [ip, -r0]
    1898:	07d00000 	ldrbeq	r0, [r0, r0]
    189c:	00040000 	andeq	r0, r4, r0
    18a0:	9f7dd091 	svcls	0x007dd091
    18a4:	000007d0 	ldrdeq	r0, [r0], -r0	; <UNPREDICTABLE>
    18a8:	000007ec 	andeq	r0, r0, ip, ror #15
    18ac:	94550001 	ldrbls	r0, [r5], #-1
    18b0:	a8000008 	stmdage	r0, {r3}
    18b4:	04000008 	streq	r0, [r0], #-8
    18b8:	7dd09100 	ldfvcp	f1, [r0]
    18bc:	0000009f 	muleq	r0, pc, r0	; <UNPREDICTABLE>
	...
    18c8:	00070c00 	andeq	r0, r7, r0, lsl #24
    18cc:	0007ec00 	andeq	lr, r7, r0, lsl #24
    18d0:	32000200 	andcc	r0, r0, #0, 4
    18d4:	0008949f 	muleq	r8, pc, r4	; <UNPREDICTABLE>
    18d8:	0008a800 	andeq	sl, r8, r0, lsl #16
    18dc:	32000200 	andcc	r0, r0, #0, 4
    18e0:	0000009f 	muleq	r0, pc, r0	; <UNPREDICTABLE>
    18e4:	00000000 	andeq	r0, r0, r0
    18e8:	05050300 	streq	r0, [r5, #-768]	; 0xfffffd00
    18ec:	00000000 	andeq	r0, r0, r0
    18f0:	0c000000 	stceq	0, cr0, [r0], {-0}
    18f4:	0c000007 	stceq	0, cr0, [r0], {7}
    18f8:	01000007 	tsteq	r0, r7
    18fc:	070c5100 	streq	r5, [ip, -r0, lsl #2]
    1900:	071c0000 	ldreq	r0, [ip, -r0]
    1904:	00010000 	andeq	r0, r1, r0
    1908:	00071c53 	andeq	r1, r7, r3, asr ip
    190c:	00072400 	andeq	r2, r7, r0, lsl #8
    1910:	72000300 	andvc	r0, r0, #0, 6
    1914:	07249f01 	streq	r9, [r4, -r1, lsl #30]!
    1918:	07cc0000 	strbeq	r0, [ip, r0]
    191c:	00010000 	andeq	r0, r1, r0
    1920:	00089453 	andeq	r9, r8, r3, asr r4
    1924:	0008a800 	andeq	sl, r8, r0, lsl #16
    1928:	53000100 	movwpl	r0, #256	; 0x100
	...
    1934:	00010005 	andeq	r0, r1, r5
    1938:	0000070c 	andeq	r0, r0, ip, lsl #14
    193c:	00000720 	andeq	r0, r0, r0, lsr #14
    1940:	24500001 	ldrbcs	r0, [r0], #-1
    1944:	2c000007 	stccs	0, cr0, [r0], {7}
    1948:	01000007 	tsteq	r0, r7
    194c:	00005000 	andeq	r5, r0, r0
    1950:	00000000 	andeq	r0, r0, r0
    1954:	01030000 	mrseq	r0, (UNDEF: 3)
    1958:	07280100 	streq	r0, [r8, -r0, lsl #2]!
    195c:	07b00000 	ldreq	r0, [r0, r0]!
    1960:	00010000 	andeq	r0, r1, r0
    1964:	00089455 	andeq	r9, r8, r5, asr r4
    1968:	0008a000 	andeq	sl, r8, r0
    196c:	55000100 	strpl	r0, [r0, #-256]	; 0xffffff00
	...
    1978:	01000103 	tsteq	r0, r3, lsl #2
    197c:	00000728 	andeq	r0, r0, r8, lsr #14
    1980:	000007b0 			; <UNDEFINED> instruction: 0x000007b0
    1984:	94510001 	ldrbls	r0, [r1], #-1
    1988:	a0000008 	andge	r0, r0, r8
    198c:	01000008 	tsteq	r0, r8
    1990:	00005100 	andeq	r5, r0, r0, lsl #2
    1994:	00000000 	andeq	r0, r0, r0
    1998:	00030000 	andeq	r0, r3, r0
    199c:	01010100 	mrseq	r0, (UNDEF: 17)
    19a0:	02030301 	andeq	r0, r3, #67108864	; 0x4000000
    19a4:	07280100 	streq	r0, [r8, -r0, lsl #2]!
    19a8:	07500000 	ldrbeq	r0, [r0, -r0]
    19ac:	00010000 	andeq	r0, r1, r0
    19b0:	00077453 	andeq	r7, r7, r3, asr r4
    19b4:	00077400 	andeq	r7, r7, r0, lsl #8
    19b8:	5e000100 	adfpls	f0, f0, f0
    19bc:	00000774 	andeq	r0, r0, r4, ror r7
    19c0:	00000788 	andeq	r0, r0, r8, lsl #15
    19c4:	017e0003 	cmneq	lr, r3
    19c8:	0007889f 	muleq	r7, pc, r8	; <UNPREDICTABLE>
    19cc:	00079400 	andeq	r9, r7, r0, lsl #8
    19d0:	7e000300 	cdpvc	3, 0, cr0, cr0, cr0, {0}
    19d4:	07949f02 	ldreq	r9, [r4, r2, lsl #30]
    19d8:	07980000 	ldreq	r0, [r8, r0]
    19dc:	00030000 	andeq	r0, r3, r0
    19e0:	949f037e 	ldrls	r0, [pc], #894	; 19e8 <__code_start__-0x6618>
    19e4:	a0000008 	andge	r0, r0, r8
    19e8:	01000008 	tsteq	r0, r8
    19ec:	00005300 	andeq	r5, r0, r0, lsl #6
	...
    19f8:	01010100 	mrseq	r0, (UNDEF: 17)
    19fc:	02010101 	andeq	r0, r1, #1073741824	; 0x40000000
    1a00:	072c0100 	streq	r0, [ip, -r0, lsl #2]!
    1a04:	07500000 	ldrbeq	r0, [r0, -r0]
    1a08:	00010000 	andeq	r0, r1, r0
    1a0c:	00077450 	andeq	r7, r7, r0, asr r4
    1a10:	00078400 	andeq	r8, r7, r0, lsl #8
    1a14:	50000100 	andpl	r0, r0, r0, lsl #2
    1a18:	00000784 	andeq	r0, r0, r4, lsl #15
    1a1c:	00000794 	muleq	r0, r4, r7
    1a20:	945b0001 	ldrbls	r0, [fp], #-1
    1a24:	98000007 	stmdals	r0, {r0, r1, r2}
    1a28:	01000007 	tsteq	r0, r7
    1a2c:	07985000 	ldreq	r5, [r8, r0]
    1a30:	07980000 	ldreq	r0, [r8, r0]
    1a34:	00030000 	andeq	r0, r3, r0
    1a38:	949f0170 	ldrls	r0, [pc], #368	; 1a40 <__code_start__-0x65c0>
    1a3c:	a0000008 	andge	r0, r0, r8
    1a40:	01000008 	tsteq	r0, r8
    1a44:	00005000 	andeq	r5, r0, r0
    1a48:	00000000 	andeq	r0, r0, r0
    1a4c:	00010000 	andeq	r0, r1, r0
    1a50:	07b00001 	ldreq	r0, [r0, r1]!
    1a54:	07ec0000 	strbeq	r0, [ip, r0]!
    1a58:	00010000 	andeq	r0, r1, r0
    1a5c:	0008a051 	andeq	sl, r8, r1, asr r0
    1a60:	0008a800 	andeq	sl, r8, r0, lsl #16
    1a64:	51000100 	mrspl	r0, (UNDEF: 16)
	...
    1a70:	00000001 	andeq	r0, r0, r1
    1a74:	00010100 	andeq	r0, r1, r0, lsl #2
    1a78:	07b00001 	ldreq	r0, [r0, r1]!
    1a7c:	07b40000 	ldreq	r0, [r4, r0]!
    1a80:	00060000 	andeq	r0, r6, r0
    1a84:	007c0073 	rsbseq	r0, ip, r3, ror r0
    1a88:	07d49f22 	ldrbeq	r9, [r4, r2, lsr #30]
    1a8c:	07d80000 	ldrbeq	r0, [r8, r0]
    1a90:	00030000 	andeq	r0, r3, r0
    1a94:	d89f7f73 	ldmle	pc, {r0, r1, r4, r5, r6, r8, r9, sl, fp, ip, sp, lr}	; <UNPREDICTABLE>
    1a98:	e0000007 	and	r0, r0, r7
    1a9c:	01000007 	tsteq	r0, r7
    1aa0:	07e05300 	strbeq	r5, [r0, r0, lsl #6]!
    1aa4:	07e80000 	strbeq	r0, [r8, r0]!
    1aa8:	00030000 	andeq	r0, r3, r0
    1aac:	a09f7f73 	addsge	r7, pc, r3, ror pc	; <UNPREDICTABLE>
    1ab0:	a8000008 	stmdage	r0, {r3}
    1ab4:	01000008 	tsteq	r0, r8
    1ab8:	00005300 	andeq	r5, r0, r0, lsl #6
    1abc:	00000000 	andeq	r0, r0, r0
    1ac0:	00010000 	andeq	r0, r1, r0
    1ac4:	07b00001 	ldreq	r0, [r0, r1]!
    1ac8:	07ec0000 	strbeq	r0, [ip, r0]!
    1acc:	00030000 	andeq	r0, r3, r0
    1ad0:	a09f8008 	addsge	r8, pc, r8
    1ad4:	a8000008 	stmdage	r0, {r3}
    1ad8:	03000008 	movweq	r0, #8
    1adc:	9f800800 	svcls	0x00800800
	...
    1ae8:	00000001 	andeq	r0, r0, r1
    1aec:	00010100 	andeq	r0, r1, r0, lsl #2
    1af0:	00010000 	andeq	r0, r1, r0
    1af4:	000007b0 			; <UNDEFINED> instruction: 0x000007b0
    1af8:	000007d0 	ldrdeq	r0, [r0], -r0	; <UNPREDICTABLE>
    1afc:	d0910004 	addsle	r0, r1, r4
    1b00:	07d09f7d 			; <UNDEFINED> instruction: 0x07d09f7d
    1b04:	07d40000 	ldrbeq	r0, [r4, r0]
    1b08:	00010000 	andeq	r0, r1, r0
    1b0c:	0007d455 	andeq	sp, r7, r5, asr r4
    1b10:	0007d400 	andeq	sp, r7, r0, lsl #8
    1b14:	7c000300 	stcvc	3, cr0, [r0], {-0}
    1b18:	07d49f01 	ldrbeq	r9, [r4, r1, lsl #30]
    1b1c:	07e00000 	strbeq	r0, [r0, r0]!
    1b20:	00030000 	andeq	r0, r3, r0
    1b24:	e09f027c 	adds	r0, pc, ip, ror r2	; <UNPREDICTABLE>
    1b28:	ec000007 	stc	0, cr0, [r0], {7}
    1b2c:	03000007 	movweq	r0, #7
    1b30:	9f017c00 	svcls	0x00017c00
    1b34:	000008a0 	andeq	r0, r0, r0, lsr #17
    1b38:	000008a8 	andeq	r0, r0, r8, lsr #17
    1b3c:	d0910004 	addsle	r0, r1, r4
    1b40:	00009f7d 	andeq	r9, r0, sp, ror pc
    1b44:	00000000 	andeq	r0, r0, r0
    1b48:	00040000 	andeq	r0, r4, r0
    1b4c:	07b00004 	ldreq	r0, [r0, r4]!
    1b50:	07b40000 	ldreq	r0, [r4, r0]!
    1b54:	00030000 	andeq	r0, r3, r0
    1b58:	a09f0170 	addsge	r0, pc, r0, ror r1	; <UNPREDICTABLE>
    1b5c:	a8000008 	stmdage	r0, {r3}
    1b60:	03000008 	movweq	r0, #8
    1b64:	9f017000 	svcls	0x00017000
	...
    1b70:	00000001 	andeq	r0, r0, r1
    1b74:	000007bc 			; <UNDEFINED> instruction: 0x000007bc
    1b78:	000007d0 	ldrdeq	r0, [r0], -r0	; <UNPREDICTABLE>
    1b7c:	d0910004 	addsle	r0, r1, r4
    1b80:	07d09f7d 			; <UNDEFINED> instruction: 0x07d09f7d
    1b84:	07ec0000 	strbeq	r0, [ip, r0]!
    1b88:	00010000 	andeq	r0, r1, r0
    1b8c:	00000055 	andeq	r0, r0, r5, asr r0
	...
    1b98:	00032800 	andeq	r2, r3, r0, lsl #16
    1b9c:	00036400 	andeq	r6, r3, r0, lsl #8
    1ba0:	50000100 	andpl	r0, r0, r0, lsl #2
    1ba4:	00000364 	andeq	r0, r0, r4, ror #6
    1ba8:	00000388 	andeq	r0, r0, r8, lsl #7
    1bac:	01f30004 	mvnseq	r0, r4
    1bb0:	00009f50 	andeq	r9, r0, r0, asr pc
	...
    1bbc:	03280000 			; <UNDEFINED> instruction: 0x03280000
    1bc0:	035c0000 	cmpeq	ip, #0, 0
    1bc4:	00010000 	andeq	r0, r1, r0
    1bc8:	00035c51 	andeq	r5, r3, r1, asr ip
    1bcc:	00038800 	andeq	r8, r3, r0, lsl #16
    1bd0:	f3000400 	vshl.u8	d0, d0, d0
    1bd4:	009f5101 	addseq	r5, pc, r1, lsl #2
	...
    1bf8:	14000000 	strne	r0, [r0], #-0
    1bfc:	01000000 	mrseq	r0, (UNDEF: 0)
    1c00:	00145000 	andseq	r5, r4, r0
    1c04:	00200000 	eoreq	r0, r0, r0
    1c08:	00010000 	andeq	r0, r1, r0
    1c0c:	0000205c 	andeq	r2, r0, ip, asr r0
    1c10:	00006800 	andeq	r6, r0, r0, lsl #16
    1c14:	71000300 	mrsvc	r0, LR_irq
    1c18:	00689f02 	rsbeq	r9, r8, r2, lsl #30
    1c1c:	006c0000 	rsbeq	r0, ip, r0
    1c20:	00030000 	andeq	r0, r3, r0
    1c24:	6c9f0273 	lfmvs	f0, 4, [pc], {115}	; 0x73
    1c28:	94000000 	strls	r0, [r0], #-0
    1c2c:	04000001 	streq	r0, [r0], #-1
    1c30:	5001f300 	andpl	pc, r1, r0, lsl #6
    1c34:	0001949f 	muleq	r1, pc, r4	; <UNPREDICTABLE>
    1c38:	00019800 	andeq	r9, r1, r0, lsl #16
    1c3c:	73000300 	movwvc	r0, #768	; 0x300
    1c40:	01989f02 	orrseq	r9, r8, r2, lsl #30
    1c44:	01c00000 	biceq	r0, r0, r0
    1c48:	00040000 	andeq	r0, r4, r0
    1c4c:	9f5001f3 	svcls	0x005001f3
    1c50:	000001c0 	andeq	r0, r0, r0, asr #3
    1c54:	000001c8 	andeq	r0, r0, r8, asr #3
    1c58:	c85c0001 	ldmdagt	ip, {r0}^
    1c5c:	14000001 	strne	r0, [r0], #-1
    1c60:	03000002 	movweq	r0, #2
    1c64:	9f027300 	svcls	0x00027300
    1c68:	00000214 	andeq	r0, r0, r4, lsl r2
    1c6c:	000002ec 	andeq	r0, r0, ip, ror #5
    1c70:	01f30004 	mvnseq	r0, r4
    1c74:	02ec9f50 	rsceq	r9, ip, #80, 30	; 0x140
    1c78:	02f40000 	rscseq	r0, r4, #0, 0
    1c7c:	00030000 	andeq	r0, r3, r0
    1c80:	f49f0273 			; <UNDEFINED> instruction: 0xf49f0273
    1c84:	28000002 	stmdacs	r0, {r1}
    1c88:	04000003 	streq	r0, [r0], #-3
    1c8c:	5001f300 	andpl	pc, r1, r0, lsl #6
    1c90:	0000009f 	muleq	r0, pc, r0	; <UNPREDICTABLE>
	...
    1ca4:	00001c00 	andeq	r1, r0, r0, lsl #24
    1ca8:	51000100 	mrspl	r0, (UNDEF: 16)
    1cac:	0000001c 	andeq	r0, r0, ip, lsl r0
    1cb0:	000002e0 	andeq	r0, r0, r0, ror #5
    1cb4:	e0500001 	subs	r0, r0, r1
    1cb8:	ec000002 	stc	0, cr0, [r0], {2}
    1cbc:	04000002 	streq	r0, [r0], #-2
    1cc0:	5101f300 	mrspl	pc, SP_irq	; <UNPREDICTABLE>
    1cc4:	0002ec9f 	muleq	r2, pc, ip	; <UNPREDICTABLE>
    1cc8:	00032800 	andeq	r2, r3, r0, lsl #16
    1ccc:	50000100 	andpl	r0, r0, r0, lsl #2
	...
    1cdc:	00000100 	andeq	r0, r0, r0, lsl #2
    1ce0:	00000000 	andeq	r0, r0, r0
    1ce4:	00020200 	andeq	r0, r2, r0, lsl #4
	...
    1cfc:	00000070 	andeq	r0, r0, r0, ror r0
    1d00:	70520001 	subsvc	r0, r2, r1
    1d04:	78000000 	stmdavc	r0, {}	; <UNPREDICTABLE>
    1d08:	01000000 	mrseq	r0, (UNDEF: 0)
    1d0c:	00785c00 	rsbseq	r5, r8, r0, lsl #24
    1d10:	00a40000 	adceq	r0, r4, r0
    1d14:	00040000 	andeq	r0, r4, r0
    1d18:	9f5201f3 	svcls	0x005201f3
    1d1c:	00000194 	muleq	r0, r4, r1
    1d20:	0000019c 	muleq	r0, ip, r1
    1d24:	9c520001 	mrrcls	0, 0, r0, r2, cr1
    1d28:	a4000001 	strge	r0, [r0], #-1
    1d2c:	01000001 	tsteq	r0, r1
    1d30:	01a45c00 			; <UNDEFINED> instruction: 0x01a45c00
    1d34:	01c00000 	biceq	r0, r0, r0
    1d38:	00040000 	andeq	r0, r4, r0
    1d3c:	9f5201f3 	svcls	0x005201f3
    1d40:	000001c0 	andeq	r0, r0, r0, asr #3
    1d44:	00000220 	andeq	r0, r0, r0, lsr #4
    1d48:	20520001 	subscs	r0, r2, r1
    1d4c:	28000002 	stmdacs	r0, {r1}
    1d50:	04000002 	streq	r0, [r0], #-2
    1d54:	1f007200 	svcne	0x00007200
    1d58:	0002289f 	muleq	r2, pc, r8	; <UNPREDICTABLE>
    1d5c:	00027400 	andeq	r7, r2, r0, lsl #8
    1d60:	f3000500 	vrshl.u8	d0, d0, d0
    1d64:	9f1f5201 	svcls	0x001f5201
    1d68:	00000274 	andeq	r0, r0, r4, ror r2
    1d6c:	00000288 	andeq	r0, r0, r8, lsl #5
    1d70:	88520001 	ldmdahi	r2, {r0}^
    1d74:	a0000002 	andge	r0, r0, r2
    1d78:	01000002 	tsteq	r0, r2
    1d7c:	02cc5c00 	sbceq	r5, ip, #0, 24
    1d80:	02d00000 	sbcseq	r0, r0, #0, 0
    1d84:	00010000 	andeq	r0, r1, r0
    1d88:	0002d052 	andeq	sp, r2, r2, asr r0
    1d8c:	0002e700 	andeq	lr, r2, r0, lsl #14
    1d90:	5c000100 	stfpls	f0, [r0], {-0}
    1d94:	000002e7 	andeq	r0, r0, r7, ror #5
    1d98:	000002ec 	andeq	r0, r0, ip, ror #5
    1d9c:	01f30004 	mvnseq	r0, r4
    1da0:	02ec9f52 	rsceq	r9, ip, #328	; 0x148
    1da4:	03000000 	movweq	r0, #0
    1da8:	00010000 	andeq	r0, r1, r0
    1dac:	00030052 	andeq	r0, r3, r2, asr r0
    1db0:	00032800 	andeq	r2, r3, r0, lsl #16
    1db4:	5c000100 	stfpls	f0, [r0], {-0}
	...
    1dd0:	00680000 	rsbeq	r0, r8, r0
    1dd4:	00010000 	andeq	r0, r1, r0
    1dd8:	00006853 	andeq	r6, r0, r3, asr r8
    1ddc:	00006c00 	andeq	r6, r0, r0, lsl #24
    1de0:	08000300 	stmdaeq	r0, {r8, r9}
    1de4:	01949f7f 	orrseq	r9, r4, pc, ror pc
    1de8:	01980000 	orrseq	r0, r8, r0
    1dec:	00030000 	andeq	r0, r3, r0
    1df0:	c09f7f08 	addsgt	r7, pc, r8, lsl #30
    1df4:	14000001 	strne	r0, [r0], #-1
    1df8:	03000002 	movweq	r0, #2
    1dfc:	9f7f0800 	svcls	0x007f0800
    1e00:	00000274 	andeq	r0, r0, r4, ror r2
    1e04:	00000290 	muleq	r0, r0, r2
    1e08:	90530001 	subsls	r0, r3, r1
    1e0c:	a0000002 	andge	r0, r0, r2
    1e10:	04000002 	streq	r0, [r0], #-2
    1e14:	5301f300 	movwpl	pc, #4864	; 0x1300	; <UNPREDICTABLE>
    1e18:	0002ec9f 	muleq	r2, pc, ip	; <UNPREDICTABLE>
    1e1c:	00032800 	andeq	r2, r3, r0, lsl #16
    1e20:	08000300 	stmdaeq	r0, {r8, r9}
    1e24:	00009f7f 	andeq	r9, r0, pc, ror pc
    1e28:	00000000 	andeq	r0, r0, r0
    1e2c:	00010000 	andeq	r0, r1, r0
    1e30:	02000000 	andeq	r0, r0, #0, 0
    1e34:	01000002 	tsteq	r0, r2
    1e38:	00000001 	andeq	r0, r0, r1
    1e3c:	00000000 	andeq	r0, r0, r0
    1e40:	00020200 	andeq	r0, r2, r0, lsl #4
    1e44:	00010000 	andeq	r0, r1, r0
    1e48:	00000000 	andeq	r0, r0, r0
    1e4c:	01000000 	mrseq	r0, (UNDEF: 0)
    1e50:	00000001 	andeq	r0, r0, r1
    1e54:	00020200 	andeq	r0, r2, r0, lsl #4
    1e58:	00000000 	andeq	r0, r0, r0
    1e5c:	00010100 	andeq	r0, r1, r0, lsl #2
    1e60:	00180000 	andseq	r0, r8, r0
    1e64:	00700000 	rsbseq	r0, r0, r0
    1e68:	00040000 	andeq	r0, r4, r0
    1e6c:	9f7fa091 	svcls	0x007fa091
    1e70:	00000070 	andeq	r0, r0, r0, ror r0
    1e74:	00000078 	andeq	r0, r0, r8, ror r0
    1e78:	78520001 	ldmdavc	r2, {r0}^
    1e7c:	78000000 	stmdavc	r0, {}	; <UNPREDICTABLE>
    1e80:	01000000 	mrseq	r0, (UNDEF: 0)
    1e84:	00785400 	rsbseq	r5, r8, r0, lsl #8
    1e88:	00880000 	addeq	r0, r8, r0
    1e8c:	00030000 	andeq	r0, r3, r0
    1e90:	889f0174 	ldmhi	pc, {r2, r4, r5, r6, r8}	; <UNPREDICTABLE>
    1e94:	90000000 	andls	r0, r0, r0
    1e98:	01000000 	mrseq	r0, (UNDEF: 0)
    1e9c:	00905400 	addseq	r5, r0, r0, lsl #8
    1ea0:	00a00000 	adceq	r0, r0, r0
    1ea4:	00030000 	andeq	r0, r3, r0
    1ea8:	a09f0274 	addsge	r0, pc, r4, ror r2	; <UNPREDICTABLE>
    1eac:	b0000000 	andlt	r0, r0, r0
    1eb0:	01000000 	mrseq	r0, (UNDEF: 0)
    1eb4:	01945e00 	orrseq	r5, r4, r0, lsl #28
    1eb8:	019c0000 	orrseq	r0, ip, r0
    1ebc:	00040000 	andeq	r0, r4, r0
    1ec0:	9f7fa091 	svcls	0x007fa091
    1ec4:	0000019c 	muleq	r0, ip, r1
    1ec8:	000001a4 	andeq	r0, r0, r4, lsr #3
    1ecc:	a4520001 	ldrbge	r0, [r2], #-1
    1ed0:	a4000001 	strge	r0, [r0], #-1
    1ed4:	01000001 	tsteq	r0, r1
    1ed8:	01a45e00 			; <UNDEFINED> instruction: 0x01a45e00
    1edc:	01b40000 			; <UNDEFINED> instruction: 0x01b40000
    1ee0:	00030000 	andeq	r0, r3, r0
    1ee4:	b49f017e 	ldrlt	r0, [pc], #382	; 1eec <__code_start__-0x6114>
    1ee8:	c0000001 	andgt	r0, r0, r1
    1eec:	01000001 	tsteq	r0, r1
    1ef0:	01c05e00 	biceq	r5, r0, r0, lsl #28
    1ef4:	02280000 	eoreq	r0, r8, #0, 0
    1ef8:	00040000 	andeq	r0, r4, r0
    1efc:	9f7fa091 	svcls	0x007fa091
    1f00:	00000228 	andeq	r0, r0, r8, lsr #4
    1f04:	00000234 	andeq	r0, r0, r4, lsr r2
    1f08:	34520001 	ldrbcc	r0, [r2], #-1
    1f0c:	58000002 	stmdapl	r0, {r1}
    1f10:	01000002 	tsteq	r0, r2
    1f14:	02585e00 	subseq	r5, r8, #0, 28
    1f18:	025c0000 	subseq	r0, ip, #0, 0
    1f1c:	00030000 	andeq	r0, r3, r0
    1f20:	5c9f017e 	ldfpls	f0, [pc], {126}	; 0x7e
    1f24:	64000002 	strvs	r0, [r0], #-2
    1f28:	01000002 	tsteq	r0, r2
    1f2c:	02645e00 	rsbeq	r5, r4, #0, 28
    1f30:	02700000 	rsbseq	r0, r0, #0, 0
    1f34:	00030000 	andeq	r0, r3, r0
    1f38:	709f0271 	addsvc	r0, pc, r1, ror r2	; <UNPREDICTABLE>
    1f3c:	74000002 	strvc	r0, [r0], #-2
    1f40:	01000002 	tsteq	r0, r2
    1f44:	02745e00 	rsbseq	r5, r4, #0, 28
    1f48:	02740000 	rsbseq	r0, r4, #0, 0
    1f4c:	00040000 	andeq	r0, r4, r0
    1f50:	9f7fa091 	svcls	0x007fa091
    1f54:	00000274 	andeq	r0, r0, r4, ror r2
    1f58:	000002a0 	andeq	r0, r0, r0, lsr #5
    1f5c:	a1910004 	orrsge	r0, r1, r4
    1f60:	02c09f7f 	sbceq	r9, r0, #508	; 0x1fc
    1f64:	02c80000 	sbceq	r0, r8, #0, 0
    1f68:	00010000 	andeq	r0, r1, r0
    1f6c:	0002c85e 	andeq	ip, r2, lr, asr r8
    1f70:	0002cc00 	andeq	ip, r2, r0, lsl #24
    1f74:	56000100 	strpl	r0, [r0], -r0, lsl #2
    1f78:	000002cc 	andeq	r0, r0, ip, asr #5
    1f7c:	000002ec 	andeq	r0, r0, ip, ror #5
    1f80:	a0910004 	addsge	r0, r1, r4
    1f84:	02ec9f7f 	rsceq	r9, ip, #508	; 0x1fc
    1f88:	02fc0000 	rscseq	r0, ip, #0, 0
    1f8c:	00040000 	andeq	r0, r4, r0
    1f90:	9f7fa191 	svcls	0x007fa191
    1f94:	000002fc 	strdeq	r0, [r0], -ip
    1f98:	00000328 	andeq	r0, r0, r8, lsr #6
    1f9c:	005e0001 	subseq	r0, lr, r1
	...
    1fb4:	01010000 	mrseq	r0, (UNDEF: 1)
	...
    1fc8:	00002000 	andeq	r2, r0, r0
    1fcc:	00007000 	andeq	r7, r0, r0
    1fd0:	52000100 	andpl	r0, r0, #0
    1fd4:	00000070 	andeq	r0, r0, r0, ror r0
    1fd8:	00000094 	muleq	r0, r4, r0
    1fdc:	945c0001 	ldrbls	r0, [ip], #-1
    1fe0:	9c000001 	stcls	0, cr0, [r0], {1}
    1fe4:	01000001 	tsteq	r0, r1
    1fe8:	019c5200 	orrseq	r5, ip, r0, lsl #4
    1fec:	01c00000 	biceq	r0, r0, r0
    1ff0:	00010000 	andeq	r0, r1, r0
    1ff4:	0001c85c 	andeq	ip, r1, ip, asr r8
    1ff8:	00021000 	andeq	r1, r2, r0
    1ffc:	5c000100 	stfpls	f0, [r0], {-0}
    2000:	00000210 	andeq	r0, r0, r0, lsl r2
    2004:	00000224 	andeq	r0, r0, r4, lsr #4
    2008:	24520001 	ldrbcs	r0, [r2], #-1
    200c:	48000002 	stmdami	r0, {r1}
    2010:	01000002 	tsteq	r0, r2
    2014:	02485c00 	subeq	r5, r8, #0, 24
    2018:	025c0000 	subseq	r0, ip, #0, 0
    201c:	00010000 	andeq	r0, r1, r0
    2020:	00025c55 	andeq	r5, r2, r5, asr ip
    2024:	00026800 	andeq	r6, r2, r0, lsl #16
    2028:	5c000100 	stfpls	f0, [r0], {-0}
    202c:	00000268 	andeq	r0, r0, r8, ror #4
    2030:	00000274 	andeq	r0, r0, r4, ror r2
    2034:	00750019 	rsbseq	r0, r5, r9, lsl r0
    2038:	25f72cf7 	ldrbcs	r2, [r7, #3319]!	; 0xcf7
    203c:	2cf70076 	ldclcs	0, cr0, [r7], #472	; 0x1d8
    2040:	081e25f7 	ldmdaeq	lr, {r0, r1, r2, r4, r5, r6, r7, r8, sl, sp}
    2044:	2525f720 	strcs	pc, [r5, #-1824]!	; 0xfffff8e0
    2048:	00f72cf7 	ldrshteq	r2, [r7], #199	; 0xc7
    204c:	749f2533 	ldrvc	r2, [pc], #1331	; 2054 <__code_start__-0x5fac>
    2050:	88000002 	stmdahi	r0, {r1}
    2054:	01000002 	tsteq	r0, r2
    2058:	02885200 	addeq	r5, r8, #0, 4
    205c:	02a00000 	adceq	r0, r0, #0, 0
    2060:	00010000 	andeq	r0, r1, r0
    2064:	0002cc5c 	andeq	ip, r2, ip, asr ip
    2068:	0002d000 	andeq	sp, r2, r0
    206c:	52000100 	andpl	r0, r0, #0
    2070:	000002d0 	ldrdeq	r0, [r0], -r0	; <UNPREDICTABLE>
    2074:	000002e7 	andeq	r0, r0, r7, ror #5
    2078:	e75c0001 	ldrb	r0, [ip, -r1]
    207c:	ec000002 	stc	0, cr0, [r0], {2}
    2080:	04000002 	streq	r0, [r0], #-2
    2084:	5201f300 	andpl	pc, r1, #0, 6
    2088:	0002ec9f 	muleq	r2, pc, ip	; <UNPREDICTABLE>
    208c:	00030000 	andeq	r0, r3, r0
    2090:	52000100 	andpl	r0, r0, #0
    2094:	00000300 	andeq	r0, r0, r0, lsl #6
    2098:	00000328 	andeq	r0, r0, r8, lsr #6
    209c:	005c0001 	subseq	r0, ip, r1
    20a0:	00000000 	andeq	r0, r0, r0
    20a4:	04000000 	streq	r0, [r0], #-0
    20a8:	00000400 	andeq	r0, r0, r0, lsl #8
    20ac:	04000001 	streq	r0, [r0], #-1
    20b0:	0000a400 	andeq	sl, r0, r0, lsl #8
    20b4:	0000b000 	andeq	fp, r0, r0
    20b8:	53000100 	movwpl	r0, #256	; 0x100
    20bc:	0000027c 	andeq	r0, r0, ip, ror r2
    20c0:	00000290 	muleq	r0, r0, r2
    20c4:	90530001 	subsls	r0, r3, r1
    20c8:	9c000002 	stcls	0, cr0, [r0], {2}
    20cc:	04000002 	streq	r0, [r0], #-2
    20d0:	5301f300 	movwpl	pc, #4864	; 0x1300	; <UNPREDICTABLE>
    20d4:	0002c09f 	muleq	r2, pc, r0	; <UNPREDICTABLE>
    20d8:	0002cc00 	andeq	ip, r2, r0, lsl #24
    20dc:	53000100 	movwpl	r0, #256	; 0x100
    20e0:	000002f0 	strdeq	r0, [r0], -r0	; <UNPREDICTABLE>
    20e4:	00000328 	andeq	r0, r0, r8, lsr #6
    20e8:	7f080003 	svcvc	0x00080003
    20ec:	0000009f 	muleq	r0, pc, r0	; <UNPREDICTABLE>
    20f0:	00000000 	andeq	r0, r0, r0
    20f4:	00000400 	andeq	r0, r0, r0, lsl #8
    20f8:	00000401 	andeq	r0, r0, r1, lsl #8
    20fc:	00000001 	andeq	r0, r0, r1
    2100:	00000400 	andeq	r0, r0, r0, lsl #8
    2104:	0000a400 	andeq	sl, r0, r0, lsl #8
    2108:	0000b000 	andeq	fp, r0, r0
    210c:	52000100 	andpl	r0, r0, #0
    2110:	000000b0 	strheq	r0, [r0], -r0	; <UNPREDICTABLE>
    2114:	0000015c 	andeq	r0, r0, ip, asr r1
    2118:	a0910004 	addsge	r0, r1, r4
    211c:	027c9f7f 	rsbseq	r9, ip, #508	; 0x1fc
    2120:	02940000 	addseq	r0, r4, #0, 0
    2124:	00040000 	andeq	r0, r4, r0
    2128:	9f7fa091 	svcls	0x007fa091
    212c:	00000294 	muleq	r0, r4, r2
    2130:	0000029c 	muleq	r0, ip, r2
    2134:	b45e0001 	ldrblt	r0, [lr], #-1
    2138:	c0000002 	andgt	r0, r0, r2
    213c:	04000002 	streq	r0, [r0], #-2
    2140:	7fa09100 	svcvc	0x00a09100
    2144:	0002c09f 	muleq	r2, pc, r0	; <UNPREDICTABLE>
    2148:	0002cc00 	andeq	ip, r2, r0, lsl #24
    214c:	52000100 	andpl	r0, r0, #0
    2150:	000002f0 	strdeq	r0, [r0], -r0	; <UNPREDICTABLE>
    2154:	00000300 	andeq	r0, r0, r0, lsl #6
    2158:	a0910004 	addsge	r0, r1, r4
    215c:	03009f7f 	movweq	r9, #3967	; 0xf7f
    2160:	03280000 			; <UNDEFINED> instruction: 0x03280000
    2164:	00010000 	andeq	r0, r1, r0
    2168:	00000052 	andeq	r0, r0, r2, asr r0
    216c:	00000000 	andeq	r0, r0, r0
    2170:	00000400 	andeq	r0, r0, r0, lsl #8
    2174:	01010101 	tsteq	r1, r1, lsl #2
    2178:	04020303 	streq	r0, [r2], #-771	; 0xfffffcfd
    217c:	00000001 	andeq	r0, r0, r1
    2180:	00000400 	andeq	r0, r0, r0, lsl #8
    2184:	0000a400 	andeq	sl, r0, r0, lsl #8
    2188:	0000b000 	andeq	fp, r0, r0
    218c:	5e000100 	adfpls	f0, f0, f0
    2190:	0000010c 	andeq	r0, r0, ip, lsl #2
    2194:	0000010c 	andeq	r0, r0, ip, lsl #2
    2198:	0c550001 	mrrceq	0, 0, r0, r5, cr1
    219c:	20000001 	andcs	r0, r0, r1
    21a0:	03000001 	movweq	r0, #1
    21a4:	9f017500 	svcls	0x00017500
    21a8:	00000120 	andeq	r0, r0, r0, lsr #2
    21ac:	0000012c 	andeq	r0, r0, ip, lsr #2
    21b0:	02750003 	rsbseq	r0, r5, #3, 0
    21b4:	00012c9f 	muleq	r1, pc, ip	; <UNPREDICTABLE>
    21b8:	00013000 	andeq	r3, r1, r0
    21bc:	75000300 	strvc	r0, [r0, #-768]	; 0xfffffd00
    21c0:	027c9f03 	rsbseq	r9, ip, #3, 30
    21c4:	029c0000 	addseq	r0, ip, #0, 0
    21c8:	00040000 	andeq	r0, r4, r0
    21cc:	9f7fa191 	svcls	0x007fa191
    21d0:	000002c0 	andeq	r0, r0, r0, asr #5
    21d4:	000002c8 	andeq	r0, r0, r8, asr #5
    21d8:	c85e0001 	ldmdagt	lr, {r0}^
    21dc:	cc000002 	stcgt	0, cr0, [r0], {2}
    21e0:	01000002 	tsteq	r0, r2
    21e4:	02f05600 	rscseq	r5, r0, #0, 12
    21e8:	02fc0000 	rscseq	r0, ip, #0, 0
    21ec:	00040000 	andeq	r0, r4, r0
    21f0:	9f7fa191 	svcls	0x007fa191
    21f4:	000002fc 	strdeq	r0, [r0], -ip
    21f8:	00000328 	andeq	r0, r0, r8, lsr #6
    21fc:	005e0001 	subseq	r0, lr, r1
	...
    2208:	01010000 	mrseq	r0, (UNDEF: 1)
    220c:	01010101 	tsteq	r1, r1, lsl #2
    2210:	00010602 	andeq	r0, r1, r2, lsl #12
    2214:	a8000600 	stmdage	r0, {r9, sl}
    2218:	b0000000 	andlt	r0, r0, r0
    221c:	01000000 	mrseq	r0, (UNDEF: 0)
    2220:	010c5100 	mrseq	r5, (UNDEF: 28)
    2224:	011c0000 	tsteq	ip, r0
    2228:	00010000 	andeq	r0, r1, r0
    222c:	00011c5c 	andeq	r1, r1, ip, asr ip
    2230:	00012c00 	andeq	r2, r1, r0, lsl #24
    2234:	58000100 	stmdapl	r0, {r8}
    2238:	0000012c 	andeq	r0, r0, ip, lsr #2
    223c:	00000130 	andeq	r0, r0, r0, lsr r1
    2240:	305c0001 	subscc	r0, ip, r1
    2244:	30000001 	andcc	r0, r0, r1
    2248:	03000001 	movweq	r0, #1
    224c:	9f017c00 	svcls	0x00017c00
    2250:	0000027c 	andeq	r0, r0, ip, ror r2
    2254:	0000029c 	muleq	r0, ip, r2
    2258:	9f310002 	svcls	0x00310002
    225c:	000002c0 	andeq	r0, r0, r0, asr #5
    2260:	000002cc 	andeq	r0, r0, ip, asr #5
    2264:	f0510001 			; <UNDEFINED> instruction: 0xf0510001
    2268:	28000002 	stmdacs	r0, {r1}
    226c:	02000003 	andeq	r0, r0, #3, 0
    2270:	009f3100 	addseq	r3, pc, r0, lsl #2
    2274:	00000000 	andeq	r0, r0, r0
    2278:	01000000 	mrseq	r0, (UNDEF: 0)
    227c:	01010606 	tsteq	r1, r6, lsl #12
    2280:	5c010000 	stcpl	0, cr0, [r1], {-0}
    2284:	5c000001 	stcpl	0, cr0, [r0], {1}
    2288:	04000001 	streq	r0, [r0], #-1
    228c:	7fa09100 	svcvc	0x00a09100
    2290:	00015c9f 	muleq	r1, pc, ip	; <UNPREDICTABLE>
    2294:	00018c00 	andeq	r8, r1, r0, lsl #24
    2298:	52000100 	andpl	r0, r0, #0
    229c:	0000029c 	muleq	r0, ip, r2
    22a0:	000002a0 	andeq	r0, r0, r0, lsr #5
    22a4:	a05e0001 	subsge	r0, lr, r1
    22a8:	ac000002 	stcge	0, cr0, [r0], {2}
    22ac:	01000002 	tsteq	r0, r2
    22b0:	00005200 	andeq	r5, r0, r0, lsl #4
	...
    22bc:	00010100 	andeq	r0, r1, r0, lsl #2
    22c0:	016c0701 	cmneq	ip, r1, lsl #14
    22c4:	01700000 	cmneq	r0, r0
    22c8:	00030000 	andeq	r0, r3, r0
    22cc:	709f7f73 	addsvc	r7, pc, r3, ror pc	; <UNPREDICTABLE>
    22d0:	78000001 	stmdavc	r0, {r0}
    22d4:	01000001 	tsteq	r0, r1
    22d8:	01785300 	cmneq	r8, r0, lsl #6
    22dc:	01840000 	orreq	r0, r4, r0
    22e0:	00030000 	andeq	r0, r3, r0
    22e4:	9c9f7f73 	ldcls	15, cr7, [pc], {115}	; 0x73
    22e8:	9c000002 	stcls	0, cr0, [r0], {2}
    22ec:	04000002 	streq	r0, [r0], #-2
    22f0:	7fa19100 	svcvc	0x00a19100
    22f4:	0000009f 	muleq	r0, pc, r0	; <UNPREDICTABLE>
    22f8:	00000000 	andeq	r0, r0, r0
    22fc:	01010100 	mrseq	r0, (UNDEF: 17)
    2300:	00015c01 	andeq	r5, r1, r1, lsl #24
    2304:	00018c00 	andeq	r8, r1, r0, lsl #24
    2308:	08000300 	stmdaeq	r0, {r8, r9}
    230c:	029c9f80 	addseq	r9, ip, #128, 30	; 0x200
    2310:	02ac0000 	adceq	r0, ip, #0, 0
    2314:	00030000 	andeq	r0, r3, r0
    2318:	009f8008 	addseq	r8, pc, r8
    231c:	00000000 	andeq	r0, r0, r0
    2320:	01000000 	mrseq	r0, (UNDEF: 0)
    2324:	01010000 	mrseq	r0, (UNDEF: 1)
    2328:	01010000 	mrseq	r0, (UNDEF: 1)
    232c:	01010101 	tsteq	r1, r1, lsl #2
    2330:	00015c01 	andeq	r5, r1, r1, lsl #24
    2334:	00016c00 	andeq	r6, r1, r0, lsl #24
    2338:	50000100 	andpl	r0, r0, r0, lsl #2
    233c:	0000016c 	andeq	r0, r0, ip, ror #2
    2340:	0000016c 	andeq	r0, r0, ip, ror #2
    2344:	017c0003 	cmneq	ip, r3
    2348:	00016c9f 	muleq	r1, pc, ip	; <UNPREDICTABLE>
    234c:	00017800 	andeq	r7, r1, r0, lsl #16
    2350:	7c000300 	stcvc	3, cr0, [r0], {-0}
    2354:	01789f02 	cmneq	r8, r2, lsl #30
    2358:	01880000 	orreq	r0, r8, r0
    235c:	00030000 	andeq	r0, r3, r0
    2360:	889f017c 	ldmhi	pc, {r2, r3, r4, r5, r6, r8}	; <UNPREDICTABLE>
    2364:	8c000001 	stchi	0, cr0, [r0], {1}
    2368:	03000001 	movweq	r0, #1
    236c:	9f017e00 	svcls	0x00017e00
    2370:	0000029c 	muleq	r0, ip, r2
    2374:	000002a4 	andeq	r0, r0, r4, lsr #5
    2378:	a4500001 	ldrbge	r0, [r0], #-1
    237c:	ac000002 	stcge	0, cr0, [r0], {2}
    2380:	03000002 	movweq	r0, #2
    2384:	9f017e00 	svcls	0x00017e00
	...
    2390:	00040004 	andeq	r0, r4, r4
    2394:	015c0100 	cmpeq	ip, r0, lsl #2
    2398:	01600000 	cmneq	r0, r0
    239c:	00030000 	andeq	r0, r3, r0
    23a0:	9c9f0171 	ldflss	f0, [pc], {113}	; 0x71
    23a4:	a0000002 	andge	r0, r0, r2
    23a8:	02000002 	andeq	r0, r0, #2, 0
    23ac:	a09f3200 	addsge	r3, pc, r0, lsl #4
    23b0:	ac000002 	stcge	0, cr0, [r0], {2}
    23b4:	03000002 	movweq	r0, #2
    23b8:	9f017100 	svcls	0x00017100
	...
    23c4:	00060007 	andeq	r0, r6, r7
    23c8:	0000015c 	andeq	r0, r0, ip, asr r1
    23cc:	00000194 	muleq	r0, r4, r1
    23d0:	9c500001 	mrrcls	0, 0, r0, r0, cr1	; <UNPREDICTABLE>
    23d4:	b4000002 	strlt	r0, [r0], #-2
    23d8:	01000002 	tsteq	r0, r2
    23dc:	00005000 	andeq	r5, r0, r0
    23e0:	00000000 	andeq	r0, r0, r0
    23e4:	01010000 	mrseq	r0, (UNDEF: 1)
    23e8:	02140001 	andseq	r0, r4, #1, 0
    23ec:	02200000 	eoreq	r0, r0, #0, 0
    23f0:	00020000 	andeq	r0, r2, r0
    23f4:	02209f30 	eoreq	r9, r0, #48, 30	; 0xc0
    23f8:	02340000 	eorseq	r0, r4, #0, 0
    23fc:	00020000 	andeq	r0, r2, r0
    2400:	00009f31 	andeq	r9, r0, r1, lsr pc
    2404:	00000000 	andeq	r0, r0, r0
    2408:	01000000 	mrseq	r0, (UNDEF: 0)
    240c:	01000001 	tsteq	r0, r1
    2410:	01000001 	tsteq	r0, r1
    2414:	01000001 	tsteq	r0, r1
    2418:	01000001 	tsteq	r0, r1
    241c:	02000001 	andeq	r0, r0, #1, 0
    2420:	00800102 	addeq	r0, r0, r2, lsl #2
    2424:	00800000 	addeq	r0, r0, r0
    2428:	00010000 	andeq	r0, r1, r0
    242c:	00008053 	andeq	r8, r0, r3, asr r0
    2430:	00008c00 	andeq	r8, r0, r0, lsl #24
    2434:	73000300 	movwvc	r0, #768	; 0x300
    2438:	008c9f04 	addeq	r9, ip, r4, lsl #30
    243c:	00940000 	addseq	r0, r4, r0
    2440:	00010000 	andeq	r0, r1, r0
    2444:	00009451 	andeq	r9, r0, r1, asr r4
    2448:	00009800 	andeq	r9, r0, r0, lsl #16
    244c:	73000300 	movwvc	r0, #768	; 0x300
    2450:	00989f08 	addseq	r9, r8, r8, lsl #30
    2454:	00a40000 	adceq	r0, r4, r0
    2458:	00010000 	andeq	r0, r1, r0
    245c:	0000a451 	andeq	sl, r0, r1, asr r4
    2460:	0000a800 	andeq	sl, r0, r0, lsl #16
    2464:	73000300 	movwvc	r0, #768	; 0x300
    2468:	00a89f0c 	adceq	r9, r8, ip, lsl #30
    246c:	00b40000 	adcseq	r0, r4, r0
    2470:	00010000 	andeq	r0, r1, r0
    2474:	0000b451 	andeq	fp, r0, r1, asr r4
    2478:	0000b800 	andeq	fp, r0, r0, lsl #16
    247c:	73000300 	movwvc	r0, #768	; 0x300
    2480:	00b89f10 	adcseq	r9, r8, r0, lsl pc
    2484:	00c40000 	sbceq	r0, r4, r0
    2488:	00010000 	andeq	r0, r1, r0
    248c:	0000c451 	andeq	ip, r0, r1, asr r4
    2490:	0000c800 	andeq	ip, r0, r0, lsl #16
    2494:	73000300 	movwvc	r0, #768	; 0x300
    2498:	00c89f14 	sbceq	r9, r8, r4, lsl pc
    249c:	00d00000 	sbcseq	r0, r0, r0
    24a0:	00010000 	andeq	r0, r1, r0
    24a4:	0000d051 	andeq	sp, r0, r1, asr r0
    24a8:	0000d400 	andeq	sp, r0, r0, lsl #8
    24ac:	71000300 	mrsvc	r0, LR_irq
    24b0:	00009f04 	andeq	r9, r0, r4, lsl #30
    24b4:	00000000 	andeq	r0, r0, r0
    24b8:	00020000 	andeq	r0, r2, r0
    24bc:	000000d8 	ldrdeq	r0, [r0], -r8
    24c0:	000000e8 	andeq	r0, r0, r8, ror #1
    24c4:	9f310002 	svcls	0x00310002
	...
    24d0:	01000004 	tsteq	r0, r4
    24d4:	00009ca8 	andeq	r9, r0, r8, lsr #25
    24d8:	00009cb0 			; <UNDEFINED> instruction: 0x00009cb0
    24dc:	9f300002 	svcls	0x00300002
    24e0:	00009cb0 			; <UNDEFINED> instruction: 0x00009cb0
    24e4:	00009cb0 			; <UNDEFINED> instruction: 0x00009cb0
    24e8:	00530001 	subseq	r0, r3, r1
    24ec:	00000000 	andeq	r0, r0, r0
    24f0:	03000000 	movweq	r0, #0
    24f4:	00000000 	andeq	r0, r0, r0
    24f8:	bc000000 	stclt	0, cr0, [r0], {-0}
    24fc:	c000009c 	mulgt	r0, ip, r0
    2500:	0200009c 	andeq	r0, r0, #156, 0	; 0x9c
    2504:	c09f3000 	addsgt	r3, pc, r0
    2508:	c400009c 	strgt	r0, [r0], #-156	; 0xffffff64
    250c:	0100009c 	swpeq	r0, ip, [r0]	; <UNPREDICTABLE>
    2510:	9cc45300 	stclls	3, cr5, [r4], {0}
    2514:	9cc80000 	stclls	0, cr0, [r8], {0}
    2518:	00050000 	andeq	r0, r5, r0
    251c:	21400073 	hvccs	3
    2520:	009cc89f 	umullseq	ip, ip, pc, r8	; <UNPREDICTABLE>
    2524:	009ccc00 	addseq	ip, ip, r0, lsl #24
    2528:	53000100 	movwpl	r0, #256	; 0x100
	...
    2534:	00000002 	andeq	r0, r0, r2
    2538:	00009c7c 	andeq	r9, r0, ip, ror ip
    253c:	00009c80 	andeq	r9, r0, r0, lsl #25
    2540:	9f300002 	svcls	0x00300002
    2544:	00009c80 	andeq	r9, r0, r0, lsl #25
    2548:	00009c84 	andeq	r9, r0, r4, lsl #25
    254c:	00500001 	subseq	r0, r0, r1
    2550:	00000000 	andeq	r0, r0, r0
    2554:	02000000 	andeq	r0, r0, #0, 0
    2558:	00000000 	andeq	r0, r0, r0
    255c:	94000000 	strls	r0, [r0], #-0
    2560:	9800009c 	stmdals	r0, {r2, r3, r4, r7}
    2564:	0200009c 	andeq	r0, r0, #156, 0	; 0x9c
    2568:	989f3000 	ldmls	pc, {ip, sp}	; <UNPREDICTABLE>
    256c:	9c00009c 	stcls	0, cr0, [r0], {156}	; 0x9c
    2570:	0100009c 	swpeq	r0, ip, [r0]	; <UNPREDICTABLE>
    2574:	9c9c5300 	ldcls	3, cr5, [ip], {0}
    2578:	9ca00000 	stcls	0, cr0, [r0]
    257c:	00050000 	andeq	r0, r5, r0
    2580:	21400073 	hvccs	3
    2584:	009ca09f 	umullseq	sl, ip, pc, r0	; <UNPREDICTABLE>
    2588:	009ca800 	addseq	sl, ip, r0, lsl #16
    258c:	53000100 	movwpl	r0, #256	; 0x100
	...
    259c:	000000c8 	andeq	r0, r0, r8, asr #1
    25a0:	000000d8 	ldrdeq	r0, [r0], -r8
    25a4:	d8500001 	ldmdale	r0, {r0}^
    25a8:	1c000000 	stcne	0, cr0, [r0], {-0}
    25ac:	04000001 	streq	r0, [r0], #-1
    25b0:	5001f300 	andpl	pc, r1, r0, lsl #6
    25b4:	0000009f 	muleq	r0, pc, r0	; <UNPREDICTABLE>
    25b8:	00000000 	andeq	r0, r0, r0
    25bc:	00000200 	andeq	r0, r0, r0, lsl #4
    25c0:	0000c800 	andeq	ip, r0, r0, lsl #16
    25c4:	0000d800 	andeq	sp, r0, r0, lsl #16
    25c8:	70000700 	andvc	r0, r0, r0, lsl #14
    25cc:	03e80a00 	mvneq	r0, #0, 20
    25d0:	00d89f1e 	sbcseq	r9, r8, lr, lsl pc
    25d4:	011c0000 	tsteq	ip, r0
    25d8:	00080000 	andeq	r0, r8, r0
    25dc:	0a5001f3 	beq	1402db0 <__bss_end__+0x13f7a20>
    25e0:	9f1e03e8 	svcls	0x001e03e8
	...
    25ec:	00dc0000 	sbcseq	r0, ip, r0
    25f0:	011c0000 	tsteq	ip, r0
    25f4:	00010000 	andeq	r0, r1, r0
    25f8:	00000054 	andeq	r0, r0, r4, asr r0
    25fc:	00000000 	andeq	r0, r0, r0
    2600:	f0000100 			; <UNDEFINED> instruction: 0xf0000100
    2604:	1c000000 	stcne	0, cr0, [r0], {-0}
    2608:	01000001 	tsteq	r0, r1
    260c:	00005600 	andeq	r5, r0, r0, lsl #12
	...
    2618:	00ec0000 	rsceq	r0, ip, r0
    261c:	00ef0000 	rsceq	r0, pc, r0
    2620:	00010000 	andeq	r0, r1, r0
    2624:	0000ef50 	andeq	lr, r0, r0, asr pc
    2628:	00011c00 	andeq	r1, r1, r0, lsl #24
    262c:	56000100 	strpl	r0, [r0], -r0, lsl #2
	...
    2638:	01040000 	mrseq	r0, (UNDEF: 4)
    263c:	010b0000 	mrseq	r0, (UNDEF: 11)
    2640:	00010000 	andeq	r0, r1, r0
    2644:	00000050 	andeq	r0, r0, r0, asr r0
	...
    2650:	00002000 	andeq	r2, r0, r0
    2654:	00002300 	andeq	r2, r0, r0, lsl #6
    2658:	50000100 	andpl	r0, r0, r0, lsl #2
    265c:	00000023 	andeq	r0, r0, r3, lsr #32
    2660:	00000030 	andeq	r0, r0, r0, lsr r0
    2664:	00540001 	subseq	r0, r4, r1
	...
    2670:	30000000 	andcc	r0, r0, r0
    2674:	3b000000 	blcc	267c <__code_start__-0x5984>
    2678:	01000000 	mrseq	r0, (UNDEF: 0)
    267c:	003b5000 	eorseq	r5, fp, r0
    2680:	00780000 	rsbseq	r0, r8, r0
    2684:	00010000 	andeq	r0, r1, r0
    2688:	00000056 	andeq	r0, r0, r6, asr r0
    268c:	00000000 	andeq	r0, r0, r0
    2690:	4c000100 	stfmis	f0, [r0], {-0}
    2694:	78000000 	stmdavc	r0, {}	; <UNPREDICTABLE>
    2698:	01000000 	mrseq	r0, (UNDEF: 0)
    269c:	00005500 	andeq	r5, r0, r0, lsl #10
	...
    26a8:	00480000 	subeq	r0, r8, r0
    26ac:	004b0000 	subeq	r0, fp, r0
    26b0:	00010000 	andeq	r0, r1, r0
    26b4:	00004b50 	andeq	r4, r0, r0, asr fp
    26b8:	00007800 	andeq	r7, r0, r0, lsl #16
    26bc:	55000100 	strpl	r0, [r0, #-256]	; 0xffffff00
	...
    26c8:	00600000 	rsbeq	r0, r0, r0
    26cc:	00670000 	rsbeq	r0, r7, r0
    26d0:	00010000 	andeq	r0, r1, r0
    26d4:	00000050 	andeq	r0, r0, r0, asr r0
	...
    26e0:	00007800 	andeq	r7, r0, r0, lsl #16
    26e4:	00008400 	andeq	r8, r0, r0, lsl #8
    26e8:	50000100 	andpl	r0, r0, r0, lsl #2
    26ec:	00000084 	andeq	r0, r0, r4, lsl #1
    26f0:	000000c8 	andeq	r0, r0, r8, asr #1
    26f4:	01f30004 	mvnseq	r0, r4
    26f8:	00009f50 	andeq	r9, r0, r0, asr pc
	...
    2704:	00000088 	andeq	r0, r0, r8, lsl #1
    2708:	000000c8 	andeq	r0, r0, r8, asr #1
    270c:	00540001 	subseq	r0, r4, r1
    2710:	00000000 	andeq	r0, r0, r0
    2714:	01000000 	mrseq	r0, (UNDEF: 0)
    2718:	00009c00 	andeq	r9, r0, r0, lsl #24
    271c:	0000c800 	andeq	ip, r0, r0, lsl #16
    2720:	56000100 	strpl	r0, [r0], -r0, lsl #2
	...
    2730:	00000098 	muleq	r0, r8, r0
    2734:	0000009b 	muleq	r0, fp, r0
    2738:	9b500001 	blls	1402744 <__bss_end__+0x13f73b4>
    273c:	c8000000 	stmdagt	r0, {}	; <UNPREDICTABLE>
    2740:	01000000 	mrseq	r0, (UNDEF: 0)
    2744:	00005600 	andeq	r5, r0, r0, lsl #12
	...
    2750:	000000b0 	strheq	r0, [r0], -r0	; <UNPREDICTABLE>
    2754:	000000b7 	strheq	r0, [r0], -r7
    2758:	00500001 	subseq	r0, r0, r1
	...
    2764:	58000000 	stmdapl	r0, {}	; <UNPREDICTABLE>
    2768:	63000001 	movwvs	r0, #1
    276c:	01000001 	tsteq	r0, r1
    2770:	01635000 	cmneq	r3, r0
    2774:	01880000 	orreq	r0, r8, r0
    2778:	00010000 	andeq	r0, r1, r0
    277c:	00000054 	andeq	r0, r0, r4, asr r0
    2780:	00000000 	andeq	r0, r0, r0
    2784:	48000000 	stmdami	r0, {}	; <UNPREDICTABLE>
    2788:	58000001 	stmdapl	r0, {r0}
    278c:	01000001 	tsteq	r0, r1
    2790:	00005400 	andeq	r5, r0, r0, lsl #8
	...
    27a0:	000f0000 	andeq	r0, pc, r0
    27a4:	00010000 	andeq	r0, r1, r0
    27a8:	00000f50 	andeq	r0, r0, r0, asr pc
    27ac:	00002000 	andeq	r2, r0, r0
    27b0:	54000100 	strpl	r0, [r0], #-256	; 0xffffff00
	...
    27c4:	0000000f 	andeq	r0, r0, pc
    27c8:	0f510001 	svceq	0x00510001
    27cc:	20000000 	andcs	r0, r0, r0
    27d0:	01000000 	mrseq	r0, (UNDEF: 0)
    27d4:	00005500 	andeq	r5, r0, r0, lsl #10
	...
    27e0:	00200000 	eoreq	r0, r0, r0
    27e4:	002f0000 	eoreq	r0, pc, r0
    27e8:	00010000 	andeq	r0, r1, r0
    27ec:	00002f50 	andeq	r2, r0, r0, asr pc
    27f0:	00004000 	andeq	r4, r0, r0
    27f4:	54000100 	strpl	r0, [r0], #-256	; 0xffffff00
	...
    2804:	00000020 	andeq	r0, r0, r0, lsr #32
    2808:	0000002f 	andeq	r0, r0, pc, lsr #32
    280c:	2f510001 	svccs	0x00510001
    2810:	40000000 	andmi	r0, r0, r0
    2814:	01000000 	mrseq	r0, (UNDEF: 0)
    2818:	00005500 	andeq	r5, r0, r0, lsl #10
	...
    2828:	00000350 	andeq	r0, r0, r0, asr r3
    282c:	00000398 	muleq	r0, r8, r3
    2830:	98500001 	ldmdals	r0, {r0}^
    2834:	9b000003 	blls	2848 <__code_start__-0x57b8>
    2838:	02000003 	andeq	r0, r0, #3, 0
    283c:	9b689100 	blls	1a26c44 <__bss_end__+0x1a1b8b4>
    2840:	b0000003 	andlt	r0, r0, r3
    2844:	04000003 	streq	r0, [r0], #-3
    2848:	5001f300 	andpl	pc, r1, r0, lsl #6
    284c:	0000009f 	muleq	r0, pc, r0	; <UNPREDICTABLE>
	...
    2868:	00022000 	andeq	r2, r2, r0
    286c:	00027b00 	andeq	r7, r2, r0, lsl #22
    2870:	50000100 	andpl	r0, r0, r0, lsl #2
    2874:	0000027b 	andeq	r0, r0, fp, ror r2
    2878:	00000284 	andeq	r0, r0, r4, lsl #5
    287c:	01f30004 	mvnseq	r0, r4
    2880:	02849f50 	addeq	r9, r4, #80, 30	; 0x140
    2884:	029c0000 	addseq	r0, ip, #0, 0
    2888:	00010000 	andeq	r0, r1, r0
    288c:	00029c50 	andeq	r9, r2, r0, asr ip
    2890:	0002a400 	andeq	sl, r2, r0, lsl #8
    2894:	f3000400 	vshl.u8	d0, d0, d0
    2898:	a49f5001 	ldrge	r5, [pc], #1	; 28a0 <__code_start__-0x5760>
    289c:	a7000002 	strge	r0, [r0, -r2]
    28a0:	01000002 	tsteq	r0, r2
    28a4:	02a75000 	adceq	r5, r7, #0, 0
    28a8:	02c80000 	sbceq	r0, r8, #0, 0
    28ac:	00040000 	andeq	r0, r4, r0
    28b0:	9f5001f3 	svcls	0x005001f3
    28b4:	000002c8 	andeq	r0, r0, r8, asr #5
    28b8:	000002e0 	andeq	r0, r0, r0, ror #5
    28bc:	e0500001 	subs	r0, r0, r1
    28c0:	e8000002 	stmda	r0, {r1}
    28c4:	04000002 	streq	r0, [r0], #-2
    28c8:	5001f300 	andpl	pc, r1, r0, lsl #6
    28cc:	0002e89f 	muleq	r2, pc, r8	; <UNPREDICTABLE>
    28d0:	0002eb00 	andeq	lr, r2, r0, lsl #22
    28d4:	50000100 	andpl	r0, r0, r0, lsl #2
    28d8:	000002eb 	andeq	r0, r0, fp, ror #5
    28dc:	00000338 	andeq	r0, r0, r8, lsr r3
    28e0:	01f30004 	mvnseq	r0, r4
    28e4:	00009f50 	andeq	r9, r0, r0, asr pc
	...
    2900:	02200000 	eoreq	r0, r0, #0, 0
    2904:	02440000 	subeq	r0, r4, #0, 0
    2908:	00010000 	andeq	r0, r1, r0
    290c:	00024451 	andeq	r4, r2, r1, asr r4
    2910:	00026800 	andeq	r6, r2, r0, lsl #16
    2914:	51000100 	mrspl	r0, (UNDEF: 16)
    2918:	00000268 	andeq	r0, r0, r8, ror #4
    291c:	0000027b 	andeq	r0, r0, fp, ror r2
    2920:	01710003 	cmneq	r1, r3
    2924:	00027b9f 	muleq	r2, pc, fp	; <UNPREDICTABLE>
    2928:	00028400 	andeq	r8, r2, r0, lsl #8
    292c:	38001700 	stmdacc	r0, {r8, r9, sl, ip}
    2930:	f35101f3 	vbsl	q8, <illegal reg q8.5>, <illegal reg q9.5>
    2934:	4b405101 	blmi	1016d40 <__bss_end__+0x100b9b0>
    2938:	080c2224 	stmdaeq	ip, {r2, r5, r9, sp}
    293c:	2d800000 	stccs	0, cr0, [r0]
    2940:	16000128 	strne	r0, [r0], -r8, lsr #2
    2944:	02849f13 	addeq	r9, r4, #76	; 0x4c
    2948:	02980000 	addseq	r0, r8, #0, 0
    294c:	00010000 	andeq	r0, r1, r0
    2950:	00029851 	andeq	r9, r2, r1, asr r8
    2954:	0002a400 	andeq	sl, r2, r0, lsl #8
    2958:	f3000400 	vshl.u8	d0, d0, d0
    295c:	a49f5101 	ldrge	r5, [pc], #257	; 2964 <__code_start__-0x569c>
    2960:	a7000002 	strge	r0, [r0, -r2]
    2964:	01000002 	tsteq	r0, r2
    2968:	02a75100 	adceq	r5, r7, #0
    296c:	02c80000 	sbceq	r0, r8, #0, 0
    2970:	00040000 	andeq	r0, r4, r0
    2974:	9f5101f3 	svcls	0x005101f3
    2978:	000002c8 	andeq	r0, r0, r8, asr #5
    297c:	000002dc 	ldrdeq	r0, [r0], -ip
    2980:	dc510001 	mrrcle	0, 0, r0, r1, cr1
    2984:	38000002 	stmdacc	r0, {r1}
    2988:	17000003 	strne	r0, [r0, -r3]
    298c:	01f33800 	mvnseq	r3, r0, lsl #16
    2990:	5101f351 	tstpl	r1, r1, asr r3	; <UNPREDICTABLE>
    2994:	22244b40 	eorcs	r4, r4, #64, 22	; 0x10000
    2998:	0000080c 	andeq	r0, r0, ip, lsl #16
    299c:	01282d80 	smlawbeq	r8, r0, sp, r2
    29a0:	9f131600 	svcls	0x00131600
	...
    29b8:	0000024c 	andeq	r0, r0, ip, asr #4
    29bc:	0000025c 	andeq	r0, r0, ip, asr r2
    29c0:	5c520001 	mrrcpl	0, 0, r0, r2, cr1
    29c4:	64000002 	strvs	r0, [r0], #-2
    29c8:	05000002 	streq	r0, [r0, #-2]
    29cc:	af580300 	svcge	0x00580300
    29d0:	02640000 	rsbeq	r0, r4, #0, 0
    29d4:	027b0000 	rsbseq	r0, fp, #0, 0
    29d8:	00010000 	andeq	r0, r1, r0
    29dc:	0002c853 	andeq	ip, r2, r3, asr r8
    29e0:	0002d800 	andeq	sp, r2, r0, lsl #16
    29e4:	52000100 	andpl	r0, r0, #0
    29e8:	000002d8 	ldrdeq	r0, [r0], -r8
    29ec:	000002e3 	andeq	r0, r0, r3, ror #5
    29f0:	58030005 	stmdapl	r3, {r0, r2}
    29f4:	e80000af 	stmda	r0, {r0, r1, r2, r3, r5, r7}
    29f8:	eb000002 	bl	2a08 <__code_start__-0x55f8>
    29fc:	01000002 	tsteq	r0, r2
    2a00:	00005300 	andeq	r5, r0, r0, lsl #6
    2a04:	00000000 	andeq	r0, r0, r0
    2a08:	00040000 	andeq	r0, r4, r0
    2a0c:	00000230 	andeq	r0, r0, r0, lsr r2
    2a10:	00000234 	andeq	r0, r0, r4, lsr r2
    2a14:	00510001 	subseq	r0, r1, r1
    2a18:	00000000 	andeq	r0, r0, r0
    2a1c:	02000000 	andeq	r0, r0, #0, 0
    2a20:	00023c00 	andeq	r3, r2, r0, lsl #24
    2a24:	00024400 	andeq	r4, r2, r0, lsl #8
    2a28:	38000200 	stmdacc	r0, {r9}
    2a2c:	0000009f 	muleq	r0, pc, r0	; <UNPREDICTABLE>
    2a30:	00000000 	andeq	r0, r0, r0
    2a34:	3c000200 	sfmcc	f0, 4, [r0], {-0}
    2a38:	44000002 	strmi	r0, [r0], #-2
    2a3c:	01000002 	tsteq	r0, r2
    2a40:	00005100 	andeq	r5, r0, r0, lsl #2
    2a44:	00000000 	andeq	r0, r0, r0
    2a48:	00010000 	andeq	r0, r1, r0
    2a4c:	00000000 	andeq	r0, r0, r0
    2a50:	0000024c 	andeq	r0, r0, ip, asr #4
    2a54:	00000264 	andeq	r0, r0, r4, ror #4
    2a58:	c8510001 	ldmdagt	r1, {r0}^
    2a5c:	dc000002 	stcle	0, cr0, [r0], {2}
    2a60:	01000002 	tsteq	r0, r2
    2a64:	02dc5100 	sbcseq	r5, ip, #0
    2a68:	02e80000 	rsceq	r0, r8, #0, 0
    2a6c:	00170000 	andseq	r0, r7, r0
    2a70:	5101f338 	tstpl	r1, r8, lsr r3	; <UNPREDICTABLE>
    2a74:	405101f3 	ldrshmi	r0, [r1], #-19	; 0xffffffed
    2a78:	0c22244b 	cfstrseq	mvf2, [r2], #-300	; 0xfffffed4
    2a7c:	80000008 	andhi	r0, r0, r8
    2a80:	0001282d 	andeq	r2, r1, sp, lsr #16
    2a84:	009f1316 	addseq	r1, pc, r6, lsl r3	; <UNPREDICTABLE>
    2a88:	00000000 	andeq	r0, r0, r0
    2a8c:	01000000 	mrseq	r0, (UNDEF: 0)
    2a90:	00000000 	andeq	r0, r0, r0
    2a94:	4c000000 	stcmi	0, cr0, [r0], {-0}
    2a98:	5c000002 	stcpl	0, cr0, [r0], {2}
    2a9c:	01000002 	tsteq	r0, r2
    2aa0:	025c5200 	subseq	r5, ip, #0, 4
    2aa4:	02640000 	rsbeq	r0, r4, #0, 0
    2aa8:	00050000 	andeq	r0, r5, r0
    2aac:	00af5803 	adceq	r5, pc, r3, lsl #16
    2ab0:	0002c800 	andeq	ip, r2, r0, lsl #16
    2ab4:	0002d800 	andeq	sp, r2, r0, lsl #16
    2ab8:	52000100 	andpl	r0, r0, #0
    2abc:	000002d8 	ldrdeq	r0, [r0], -r8
    2ac0:	000002e3 	andeq	r0, r0, r3, ror #5
    2ac4:	58030005 	stmdapl	r3, {r0, r2}
    2ac8:	000000af 	andeq	r0, r0, pc, lsr #1
    2acc:	00000000 	andeq	r0, r0, r0
    2ad0:	04000000 	streq	r0, [r0], #-0
    2ad4:	00024c00 	andeq	r4, r2, r0, lsl #24
    2ad8:	00025000 	andeq	r5, r2, r0
    2adc:	51000100 	mrspl	r0, (UNDEF: 16)
	...
    2ae8:	02640003 	rsbeq	r0, r4, #3, 0
    2aec:	02680000 	rsbeq	r0, r8, #0, 0
    2af0:	00010000 	andeq	r0, r1, r0
    2af4:	00000051 	andeq	r0, r0, r1, asr r0
    2af8:	00000000 	andeq	r0, r0, r0
    2afc:	64000300 	strvs	r0, [r0], #-768	; 0xfffffd00
    2b00:	68000002 	stmdavs	r0, {r1}
    2b04:	01000002 	tsteq	r0, r2
    2b08:	00005300 	andeq	r5, r0, r0, lsl #6
	...
    2b18:	01bc0000 			; <UNDEFINED> instruction: 0x01bc0000
    2b1c:	01d30000 	bicseq	r0, r3, r0
    2b20:	00010000 	andeq	r0, r1, r0
    2b24:	0001d350 	andeq	sp, r1, r0, asr r3
    2b28:	0001f000 	andeq	pc, r1, r0
    2b2c:	54000100 	strpl	r0, [r0], #-256	; 0xffffff00
    2b30:	000001f0 	strdeq	r0, [r0], -r0	; <UNPREDICTABLE>
    2b34:	00000208 	andeq	r0, r0, r8, lsl #4
    2b38:	08500001 	ldmdaeq	r0, {r0}^
    2b3c:	20000002 	andcs	r0, r0, r2
    2b40:	01000002 	tsteq	r0, r2
    2b44:	00005400 	andeq	r5, r0, r0, lsl #8
	...
    2b50:	01d80000 	bicseq	r0, r8, r0
    2b54:	01e30000 	mvneq	r0, r0
    2b58:	00010000 	andeq	r0, r1, r0
    2b5c:	0001e350 	andeq	lr, r1, r0, asr r3
    2b60:	0001f000 	andeq	pc, r1, r0
    2b64:	55000100 	strpl	r0, [r0, #-256]	; 0xffffff00
	...
    2b80:	00000124 	andeq	r0, r0, r4, lsr #2
    2b84:	00000138 	andeq	r0, r0, r8, lsr r1
    2b88:	38500001 	ldmdacc	r0, {r0}^
    2b8c:	3c000001 	stccc	0, cr0, [r0], {1}
    2b90:	03000001 	movweq	r0, #1
    2b94:	9f797000 	svcls	0x00797000
    2b98:	0000013c 	andeq	r0, r0, ip, lsr r1
    2b9c:	00000160 	andeq	r0, r0, r0, ror #2
    2ba0:	60530001 	subsvs	r0, r3, r1
    2ba4:	78000001 	stmdavc	r0, {r0}
    2ba8:	01000001 	tsteq	r0, r1
    2bac:	01785000 	cmneq	r8, r0
    2bb0:	01800000 	orreq	r0, r0, r0
    2bb4:	00040000 	andeq	r0, r4, r0
    2bb8:	9f5001f3 	svcls	0x005001f3
    2bbc:	00000180 	andeq	r0, r0, r0, lsl #3
    2bc0:	00000190 	muleq	r0, r0, r1
    2bc4:	90530001 	subsls	r0, r3, r1
    2bc8:	9f000001 	svcls	0x00000001
    2bcc:	02000001 	andeq	r0, r0, #1, 0
    2bd0:	9f689100 	svcls	0x00689100
    2bd4:	bc000001 	stclt	0, cr0, [r0], {1}
    2bd8:	09000001 	stmdbeq	r0, {r0}
    2bdc:	5001f300 	andpl	pc, r1, r0, lsl #6
    2be0:	f8090723 			; <UNDEFINED> instruction: 0xf8090723
    2be4:	00009f1a 	andeq	r9, r0, sl, lsl pc
	...
    2bf0:	01440000 	mrseq	r0, (UNDEF: 68)
    2bf4:	01600000 	cmneq	r0, r0
    2bf8:	00010000 	andeq	r0, r1, r0
    2bfc:	00018050 	andeq	r8, r1, r0, asr r0
    2c00:	00019c00 	andeq	r9, r1, r0, lsl #24
    2c04:	50000100 	andpl	r0, r0, r0, lsl #2
	...
    2c10:	01340003 	teqeq	r4, r3
    2c14:	013c0000 	teqeq	ip, r0
    2c18:	00020000 	andeq	r0, r2, r0
    2c1c:	00009f38 	andeq	r9, r0, r8, lsr pc
    2c20:	00000000 	andeq	r0, r0, r0
    2c24:	00030000 	andeq	r0, r3, r0
    2c28:	01340000 	teqeq	r4, r0
    2c2c:	01380000 	teqeq	r8, r0
    2c30:	00010000 	andeq	r0, r1, r0
    2c34:	00013850 	andeq	r3, r1, r0, asr r8
    2c38:	00013c00 	andeq	r3, r1, r0, lsl #24
    2c3c:	70000300 	andvc	r0, r0, r0, lsl #6
    2c40:	00009f79 	andeq	r9, r0, r9, ror pc
	...
    2c58:	00000030 	andeq	r0, r0, r0, lsr r0
    2c5c:	00000060 	andeq	r0, r0, r0, rrx
    2c60:	60500001 	subsvs	r0, r0, r1
    2c64:	6c000000 	stcvs	0, cr0, [r0], {-0}
    2c68:	05000000 	streq	r0, [r0, #-0]
    2c6c:	af580300 	svcge	0x00580300
    2c70:	006c0000 	rsbeq	r0, ip, r0
    2c74:	00840000 	addeq	r0, r4, r0
    2c78:	00010000 	andeq	r0, r1, r0
    2c7c:	00008450 	andeq	r8, r0, r0, asr r4
    2c80:	00008c00 	andeq	r8, r0, r0, lsl #24
    2c84:	f3000400 	vshl.u8	d0, d0, d0
    2c88:	8c9f5001 	ldchi	0, cr5, [pc], {1}
    2c8c:	ac000000 	stcge	0, cr0, [r0], {-0}
    2c90:	01000000 	mrseq	r0, (UNDEF: 0)
    2c94:	00ac5000 	adceq	r5, ip, r0
    2c98:	00af0000 	adceq	r0, pc, r0
    2c9c:	00020000 	andeq	r0, r2, r0
    2ca0:	00af6891 	umlaleq	r6, pc, r1, r8	; <UNPREDICTABLE>
    2ca4:	00cc0000 	sbceq	r0, ip, r0
    2ca8:	00040000 	andeq	r0, r4, r0
    2cac:	9f5001f3 	svcls	0x005001f3
	...
    2cc0:	00000030 	andeq	r0, r0, r0, lsr r0
    2cc4:	00000080 	andeq	r0, r0, r0, lsl #1
    2cc8:	80510001 	subshi	r0, r1, r1
    2ccc:	8c000000 	stchi	0, cr0, [r0], {-0}
    2cd0:	04000000 	streq	r0, [r0], #-0
    2cd4:	5101f300 	mrspl	pc, SP_irq	; <UNPREDICTABLE>
    2cd8:	00008c9f 	muleq	r0, pc, ip	; <UNPREDICTABLE>
    2cdc:	0000a800 	andeq	sl, r0, r0, lsl #16
    2ce0:	51000100 	mrspl	r0, (UNDEF: 16)
    2ce4:	000000a8 	andeq	r0, r0, r8, lsr #1
    2ce8:	000000cc 	andeq	r0, r0, ip, asr #1
    2cec:	01f30004 	mvnseq	r0, r4
    2cf0:	00009f51 	andeq	r9, r0, r1, asr pc
    2cf4:	00000000 	andeq	r0, r0, r0
    2cf8:	00010000 	andeq	r0, r1, r0
	...
    2d08:	00000038 	andeq	r0, r0, r8, lsr r0
    2d0c:	00000060 	andeq	r0, r0, r0, rrx
    2d10:	60500001 	subsvs	r0, r0, r1
    2d14:	6c000000 	stcvs	0, cr0, [r0], {-0}
    2d18:	05000000 	streq	r0, [r0, #-0]
    2d1c:	af580300 	svcge	0x00580300
    2d20:	006c0000 	rsbeq	r0, ip, r0
    2d24:	00840000 	addeq	r0, r4, r0
    2d28:	00010000 	andeq	r0, r1, r0
    2d2c:	00008450 	andeq	r8, r0, r0, asr r4
    2d30:	00008c00 	andeq	r8, r0, r0, lsl #24
    2d34:	f3000400 	vshl.u8	d0, d0, d0
    2d38:	8c9f5001 	ldchi	0, cr5, [pc], {1}
    2d3c:	ac000000 	stcge	0, cr0, [r0], {-0}
    2d40:	01000000 	mrseq	r0, (UNDEF: 0)
    2d44:	00ac5000 	adceq	r5, ip, r0
    2d48:	00af0000 	adceq	r0, pc, r0
    2d4c:	00020000 	andeq	r0, r2, r0
    2d50:	00af6891 	umlaleq	r6, pc, r1, r8	; <UNPREDICTABLE>
    2d54:	00cc0000 	sbceq	r0, ip, r0
    2d58:	00040000 	andeq	r0, r4, r0
    2d5c:	9f5001f3 	svcls	0x005001f3
	...
    2d6c:	01700000 	cmneq	r0, r0
    2d70:	017c0000 	cmneq	ip, r0
    2d74:	00010000 	andeq	r0, r1, r0
    2d78:	00017c50 	andeq	r7, r1, r0, asr ip
    2d7c:	00018800 	andeq	r8, r1, r0, lsl #16
    2d80:	54000100 	strpl	r0, [r0], #-256	; 0xffffff00
    2d84:	00000188 	andeq	r0, r0, r8, lsl #3
    2d88:	00000198 	muleq	r0, r8, r1
    2d8c:	01f30004 	mvnseq	r0, r4
    2d90:	00009f50 	andeq	r9, r0, r0, asr pc
	...
    2da4:	00000178 	andeq	r0, r0, r8, ror r1
    2da8:	0000017c 	andeq	r0, r0, ip, ror r1
    2dac:	0070000b 	rsbseq	r0, r0, fp
    2db0:	b4232535 	strtlt	r2, [r3], #-1333	; 0xfffffacb
    2db4:	02818080 	addeq	r8, r1, #128, 0	; 0x80
    2db8:	00017c9f 	muleq	r1, pc, ip	; <UNPREDICTABLE>
    2dbc:	00018000 	andeq	r8, r1, r0
    2dc0:	74000b00 	strvc	r0, [r0], #-2816	; 0xfffff500
    2dc4:	23253500 			; <UNDEFINED> instruction: 0x23253500
    2dc8:	818080b4 	strhhi	r8, [r0, r4]
    2dcc:	01809f02 	orreq	r9, r0, r2, lsl #30
    2dd0:	01830000 	orreq	r0, r3, r0
    2dd4:	00010000 	andeq	r0, r1, r0
    2dd8:	00018350 	andeq	r8, r1, r0, asr r3
    2ddc:	00018800 	andeq	r8, r1, r0, lsl #16
    2de0:	74000b00 	strvc	r0, [r0], #-2816	; 0xfffff500
    2de4:	23253500 			; <UNDEFINED> instruction: 0x23253500
    2de8:	818080b4 	strhhi	r8, [r0, r4]
    2dec:	01889f02 	orreq	r9, r8, r2, lsl #30
    2df0:	01980000 	orrseq	r0, r8, r0
    2df4:	000c0000 	andeq	r0, ip, r0
    2df8:	355001f3 	ldrbcc	r0, [r0, #-499]	; 0xfffffe0d
    2dfc:	80b42325 	adcshi	r2, r4, r5, lsr #6
    2e00:	9f028180 	svcls	0x00028180
	...
    2e0c:	00000001 	andeq	r0, r0, r1
    2e10:	01780000 	cmneq	r8, r0
    2e14:	017c0000 	cmneq	ip, r0
    2e18:	00050000 	andeq	r0, r5, r0
    2e1c:	1a4f0070 	bne	13c2fe4 <__bss_end__+0x13b7c54>
    2e20:	00017c9f 	muleq	r1, pc, ip	; <UNPREDICTABLE>
    2e24:	00018800 	andeq	r8, r1, r0, lsl #16
    2e28:	74000500 	strvc	r0, [r0], #-1280	; 0xfffffb00
    2e2c:	9f1a4f00 	svcls	0x001a4f00
    2e30:	00000188 	andeq	r0, r0, r8, lsl #3
    2e34:	00000198 	muleq	r0, r8, r1
    2e38:	00540001 	subseq	r0, r4, r1
	...
    2e4c:	40000000 	andmi	r0, r0, r0
    2e50:	54000001 	strpl	r0, [r0], #-1
    2e54:	01000001 	tsteq	r0, r1
    2e58:	01545000 	cmpeq	r4, r0
    2e5c:	01580000 	cmpeq	r8, r0
    2e60:	00010000 	andeq	r0, r1, r0
    2e64:	00015851 	andeq	r5, r1, r1, asr r8
    2e68:	00015c00 	andeq	r5, r1, r0, lsl #24
    2e6c:	f3000400 	vshl.u8	d0, d0, d0
    2e70:	5c9f5001 	ldcpl	0, cr5, [pc], {1}
    2e74:	60000001 	andvs	r0, r0, r1
    2e78:	01000001 	tsteq	r0, r1
    2e7c:	01605000 	cmneq	r0, r0
    2e80:	01640000 	cmneq	r4, r0
    2e84:	00010000 	andeq	r0, r1, r0
    2e88:	00016451 	andeq	r6, r1, r1, asr r4
    2e8c:	00017000 	andeq	r7, r1, r0
    2e90:	f3000400 	vshl.u8	d0, d0, d0
    2e94:	009f5001 	addseq	r5, pc, r1
	...
    2ea0:	40000000 	andmi	r0, r0, r0
    2ea4:	4c000001 	stcmi	0, cr0, [r0], {1}
    2ea8:	01000001 	tsteq	r0, r1
    2eac:	014c5100 	mrseq	r5, (UNDEF: 92)
    2eb0:	01700000 	cmneq	r0, r0
    2eb4:	00040000 	andeq	r0, r4, r0
    2eb8:	9f5101f3 	svcls	0x005101f3
	...
    2ec4:	00000001 	andeq	r0, r0, r1
    2ec8:	01500000 	cmpeq	r0, r0
    2ecc:	01540000 	cmpeq	r4, r0
    2ed0:	00010000 	andeq	r0, r1, r0
    2ed4:	00015450 	andeq	r5, r1, r0, asr r4
    2ed8:	00015800 	andeq	r5, r1, r0, lsl #16
    2edc:	51000100 	mrspl	r0, (UNDEF: 16)
    2ee0:	00000158 	andeq	r0, r0, r8, asr r1
    2ee4:	0000015c 	andeq	r0, r0, ip, asr r1
    2ee8:	01f30004 	mvnseq	r0, r4
    2eec:	00009f50 	andeq	r9, r0, r0, asr pc
    2ef0:	00000000 	andeq	r0, r0, r0
    2ef4:	00020000 	andeq	r0, r2, r0
    2ef8:	00000000 	andeq	r0, r0, r0
    2efc:	0000015c 	andeq	r0, r0, ip, asr r1
    2f00:	00000160 	andeq	r0, r0, r0, ror #2
    2f04:	60500001 	subsvs	r0, r0, r1
    2f08:	64000001 	strvs	r0, [r0], #-1
    2f0c:	01000001 	tsteq	r0, r1
    2f10:	01645100 	cmneq	r4, r0, lsl #2
    2f14:	01700000 	cmneq	r0, r0
    2f18:	00040000 	andeq	r0, r4, r0
    2f1c:	9f5001f3 	svcls	0x005001f3
	...
    2f2c:	00e80000 	rsceq	r0, r8, r0
    2f30:	01080000 	mrseq	r0, (UNDEF: 8)
    2f34:	00010000 	andeq	r0, r1, r0
    2f38:	00010850 	andeq	r0, r1, r0, asr r8
    2f3c:	00012800 	andeq	r2, r1, r0, lsl #16
    2f40:	54000100 	strpl	r0, [r0], #-256	; 0xffffff00
    2f44:	00000128 	andeq	r0, r0, r8, lsr #2
    2f48:	00000140 	andeq	r0, r0, r0, asr #2
    2f4c:	01f30004 	mvnseq	r0, r4
    2f50:	00009f50 	andeq	r9, r0, r0, asr pc
    2f54:	00000000 	andeq	r0, r0, r0
    2f58:	00020000 	andeq	r0, r2, r0
    2f5c:	00000000 	andeq	r0, r0, r0
    2f60:	000000e8 	andeq	r0, r0, r8, ror #1
    2f64:	00000108 	andeq	r0, r0, r8, lsl #2
    2f68:	08500001 	ldmdaeq	r0, {r0}^
    2f6c:	28000001 	stmdacs	r0, {r0}
    2f70:	01000001 	tsteq	r0, r1
    2f74:	01285400 			; <UNDEFINED> instruction: 0x01285400
    2f78:	01400000 	mrseq	r0, (UNDEF: 64)
    2f7c:	00040000 	andeq	r0, r4, r0
    2f80:	9f5001f3 	svcls	0x005001f3
	...
    2f90:	00f00000 	rscseq	r0, r0, r0
    2f94:	01080000 	mrseq	r0, (UNDEF: 8)
    2f98:	00010000 	andeq	r0, r1, r0
    2f9c:	00010850 	andeq	r0, r1, r0, asr r8
    2fa0:	00012800 	andeq	r2, r1, r0, lsl #16
    2fa4:	54000100 	strpl	r0, [r0], #-256	; 0xffffff00
    2fa8:	00000128 	andeq	r0, r0, r8, lsr #2
    2fac:	00000140 	andeq	r0, r0, r0, asr #2
    2fb0:	01f30004 	mvnseq	r0, r4
    2fb4:	00009f50 	andeq	r9, r0, r0, asr pc
    2fb8:	00000000 	andeq	r0, r0, r0
    2fbc:	00030000 	andeq	r0, r3, r0
    2fc0:	00000000 	andeq	r0, r0, r0
    2fc4:	000000f0 	strdeq	r0, [r0], -r0	; <UNPREDICTABLE>
    2fc8:	00000108 	andeq	r0, r0, r8, lsl #2
    2fcc:	00700007 	rsbseq	r0, r0, r7
    2fd0:	1e331d3a 	mrcne	13, 1, r1, cr3, cr10, {1}
    2fd4:	0001089f 	muleq	r1, pc, r8	; <UNPREDICTABLE>
    2fd8:	00012800 	andeq	r2, r1, r0, lsl #16
    2fdc:	74000700 	strvc	r0, [r0], #-1792	; 0xfffff900
    2fe0:	331d3a00 	tstcc	sp, #0, 20
    2fe4:	01289f1e 			; <UNDEFINED> instruction: 0x01289f1e
    2fe8:	01400000 	mrseq	r0, (UNDEF: 64)
    2fec:	00080000 	andeq	r0, r8, r0
    2ff0:	3a5001f3 	bcc	14037c4 <__bss_end__+0x13f8434>
    2ff4:	9f1e331d 	svcls	0x001e331d
	...
    3004:	01100000 	tsteq	r0, r0
    3008:	01380000 	teqeq	r8, r0
    300c:	00010000 	andeq	r0, r1, r0
    3010:	00013856 	andeq	r3, r1, r6, asr r8
    3014:	00013b00 	andeq	r3, r1, r0, lsl #22
    3018:	50000100 	andpl	r0, r0, r0, lsl #2
    301c:	0000013b 	andeq	r0, r0, fp, lsr r1
    3020:	00000140 	andeq	r0, r0, r0, asr #2
    3024:	01f30026 	mvnseq	r0, r6, lsr #32
    3028:	f72cf750 			; <UNDEFINED> instruction: 0xf72cf750
    302c:	0825f425 	stmdaeq	r5!, {r0, r2, r5, sl, ip, sp, lr, pc}
    3030:	cccccccd 	stclgt	12, cr12, [ip], {205}	; 0xcd
    3034:	00000000 	andeq	r0, r0, r0
    3038:	f720081e 			; <UNDEFINED> instruction: 0xf720081e
    303c:	2cf72525 	cfldr64cs	mvdx2, [r7], #148	; 0x94
    3040:	253300f7 	ldrcs	r0, [r3, #-247]!	; 0xffffff09
    3044:	a0808023 	addge	r8, r0, r3, lsr #32
    3048:	9f243240 	svcls	0x00243240
	...
    3054:	00010100 	andeq	r0, r1, r0, lsl #2
    3058:	00000000 	andeq	r0, r0, r0
    305c:	00000120 	andeq	r0, r0, r0, lsr #2
    3060:	00000120 	andeq	r0, r0, r0, lsr #2
    3064:	20500001 	subscs	r0, r0, r1
    3068:	28000001 	stmdacs	r0, {r0}
    306c:	0d000001 	stceq	0, cr0, [r0, #-4]
    3070:	00743700 	rsbseq	r3, r4, r0, lsl #14
    3074:	1e331d3a 	mrcne	13, 1, r1, cr3, cr10, {1}
    3078:	00702024 	rsbseq	r2, r0, r4, lsr #32
    307c:	01289f1a 			; <UNDEFINED> instruction: 0x01289f1a
    3080:	01300000 	teqeq	r0, r0
    3084:	000e0000 	andeq	r0, lr, r0
    3088:	5001f337 	andpl	pc, r1, r7, lsr r3	; <UNPREDICTABLE>
    308c:	1e331d3a 	mrcne	13, 1, r1, cr3, cr10, {1}
    3090:	00702024 	rsbseq	r2, r0, r4, lsr #32
    3094:	01309f1a 	teqeq	r0, sl, lsl pc
    3098:	013b0000 	teqeq	fp, r0
    309c:	000e0000 	andeq	r0, lr, r0
    30a0:	5001f337 	andpl	pc, r1, r7, lsr r3	; <UNPREDICTABLE>
    30a4:	1e331d3a 	mrcne	13, 1, r1, cr3, cr10, {1}
    30a8:	00732024 	rsbseq	r2, r3, r4, lsr #32
    30ac:	00009f1a 	andeq	r9, r0, sl, lsl pc
	...
    30b8:	00600000 	rsbeq	r0, r0, r0
    30bc:	00900000 	addseq	r0, r0, r0
    30c0:	00010000 	andeq	r0, r1, r0
    30c4:	00009050 	andeq	r9, r0, r0, asr r0
    30c8:	0000b800 	andeq	fp, r0, r0, lsl #16
    30cc:	f3000400 	vshl.u8	d0, d0, d0
    30d0:	009f5001 	addseq	r5, pc, r1
    30d4:	00000000 	andeq	r0, r0, r0
    30d8:	02000000 	andeq	r0, r0, #0, 0
    30dc:	60000000 	andvs	r0, r0, r0
    30e0:	90000000 	andls	r0, r0, r0
    30e4:	01000000 	mrseq	r0, (UNDEF: 0)
    30e8:	00905000 	addseq	r5, r0, r0
    30ec:	00b80000 	adcseq	r0, r8, r0
    30f0:	00040000 	andeq	r0, r4, r0
    30f4:	9f5001f3 	svcls	0x005001f3
	...
    3104:	00000068 	andeq	r0, r0, r8, rrx
    3108:	00000090 	muleq	r0, r0, r0
    310c:	90500001 	subsls	r0, r0, r1
    3110:	b8000000 	stmdalt	r0, {}	; <UNPREDICTABLE>
    3114:	04000000 	streq	r0, [r0], #-0
    3118:	5001f300 	andpl	pc, r1, r0, lsl #6
    311c:	0000009f 	muleq	r0, pc, r0	; <UNPREDICTABLE>
	...
    3128:	0000a000 	andeq	sl, r0, r0
    312c:	0000b000 	andeq	fp, r0, r0
    3130:	54000100 	strpl	r0, [r0], #-256	; 0xffffff00
    3134:	000000b0 	strheq	r0, [r0], -r0	; <UNPREDICTABLE>
    3138:	000000b8 	strheq	r0, [r0], -r8
    313c:	01f30029 	mvnseq	r0, r9, lsr #32
    3140:	5001f350 	andpl	pc, r1, r0, asr r3	; <UNPREDICTABLE>
    3144:	25f72cf7 	ldrbcs	r2, [r7, #3319]!	; 0xcf7
    3148:	cd0825f4 	cfstr32gt	mvfx2, [r8, #-976]	; 0xfffffc30
    314c:	00cccccc 	sbceq	ip, ip, ip, asr #25
    3150:	1e000000 	cdpne	0, 0, cr0, cr0, cr0, {0}
    3154:	25f72008 	ldrbcs	r2, [r7, #8]!
    3158:	f72cf725 			; <UNDEFINED> instruction: 0xf72cf725
    315c:	35253300 	strcc	r3, [r5, #-768]!	; 0xfffffd00
    3160:	1c24311e 	stfnes	f3, [r4], #-120	; 0xffffff88
    3164:	009f1e33 	addseq	r1, pc, r3, lsr lr	; <UNPREDICTABLE>
    3168:	00000000 	andeq	r0, r0, r0
    316c:	01000000 	mrseq	r0, (UNDEF: 0)
    3170:	00000000 	andeq	r0, r0, r0
    3174:	0000a000 	andeq	sl, r0, r0
    3178:	0000b000 	andeq	fp, r0, r0
    317c:	55000100 	strpl	r0, [r0, #-256]	; 0xffffff00
    3180:	000000b0 	strheq	r0, [r0], -r0	; <UNPREDICTABLE>
    3184:	000000b3 	strheq	r0, [r0], -r3
    3188:	b3500001 	cmplt	r0, #1, 0
    318c:	b8000000 	stmdalt	r0, {}	; <UNPREDICTABLE>
    3190:	26000000 	strcs	r0, [r0], -r0
    3194:	5001f300 	andpl	pc, r1, r0, lsl #6
    3198:	25f72cf7 	ldrbcs	r2, [r7, #3319]!	; 0xcf7
    319c:	cd0825f4 	cfstr32gt	mvfx2, [r8, #-976]	; 0xfffffc30
    31a0:	00cccccc 	sbceq	ip, ip, ip, asr #25
    31a4:	1e000000 	cdpne	0, 0, cr0, cr0, cr0, {0}
    31a8:	25f72008 	ldrbcs	r2, [r7, #8]!
    31ac:	f72cf725 			; <UNDEFINED> instruction: 0xf72cf725
    31b0:	23253300 			; <UNDEFINED> instruction: 0x23253300
    31b4:	40a08080 	adcmi	r8, r0, r0, lsl #1
    31b8:	009f2432 	addseq	r2, pc, r2, lsr r4	; <UNPREDICTABLE>
    31bc:	00000000 	andeq	r0, r0, r0
    31c0:	02000000 	andeq	r0, r0, #0, 0
    31c4:	01010000 	mrseq	r0, (UNDEF: 1)
    31c8:	a0000000 	andge	r0, r0, r0
    31cc:	a4000000 	strge	r0, [r0], #-0
    31d0:	01000000 	mrseq	r0, (UNDEF: 0)
    31d4:	00a45000 	adceq	r5, r4, r0
    31d8:	00a40000 	adceq	r0, r4, r0
    31dc:	00010000 	andeq	r0, r1, r0
    31e0:	0000a453 	andeq	sl, r0, r3, asr r4
    31e4:	0000a800 	andeq	sl, r0, r0, lsl #16
    31e8:	31000800 	tstcc	r0, r0, lsl #16
    31ec:	73240074 			; <UNDEFINED> instruction: 0x73240074
    31f0:	a89f2100 	ldmge	pc, {r8, sp}	; <UNPREDICTABLE>
    31f4:	b3000000 	movwlt	r0, #0
    31f8:	01000000 	mrseq	r0, (UNDEF: 0)
    31fc:	00005100 	andeq	r5, r0, r0, lsl #2
	...
    320c:	003c0000 	eorseq	r0, ip, r0
    3210:	00010000 	andeq	r0, r1, r0
    3214:	00003c50 	andeq	r3, r0, r0, asr ip
    3218:	00006000 	andeq	r6, r0, r0
    321c:	f3000400 	vshl.u8	d0, d0, d0
    3220:	009f5001 	addseq	r5, pc, r1
	...
    3230:	3f000000 	svccc	0x00000000
    3234:	01000000 	mrseq	r0, (UNDEF: 0)
    3238:	003f5100 	eorseq	r5, pc, r0, lsl #2
    323c:	00600000 	rsbeq	r0, r0, r0
    3240:	00040000 	andeq	r0, r4, r0
    3244:	9f5101f3 	svcls	0x005101f3
	...
    3254:	00000008 	andeq	r0, r0, r8
    3258:	0000003f 	andeq	r0, r0, pc, lsr r0
    325c:	3f510001 	svccc	0x00510001
    3260:	60000000 	andvs	r0, r0, r0
    3264:	04000000 	streq	r0, [r0], #-0
    3268:	5101f300 	mrspl	pc, SP_irq	; <UNPREDICTABLE>
    326c:	0000009f 	muleq	r0, pc, r0	; <UNPREDICTABLE>
	...
    3278:	00000800 	andeq	r0, r0, r0, lsl #16
    327c:	00003c00 	andeq	r3, r0, r0, lsl #24
    3280:	50000100 	andpl	r0, r0, r0, lsl #2
    3284:	0000003c 	andeq	r0, r0, ip, lsr r0
    3288:	00000060 	andeq	r0, r0, r0, rrx
    328c:	01f30004 	mvnseq	r0, r4
    3290:	00009f50 	andeq	r9, r0, r0, asr pc
	...
    329c:	00480000 	subeq	r0, r8, r0
    32a0:	00580000 	subseq	r0, r8, r0
    32a4:	00010000 	andeq	r0, r1, r0
    32a8:	00005854 	andeq	r5, r0, r4, asr r8
    32ac:	00006000 	andeq	r6, r0, r0
    32b0:	f3002900 	vmls.i8	d2, d0, d0
    32b4:	01f35001 	mvnseq	r5, r1
    32b8:	f72cf750 			; <UNDEFINED> instruction: 0xf72cf750
    32bc:	0825f425 	stmdaeq	r5!, {r0, r2, r5, sl, ip, sp, lr, pc}
    32c0:	cccccccd 	stclgt	12, cr12, [ip], {205}	; 0xcd
    32c4:	00000000 	andeq	r0, r0, r0
    32c8:	f720081e 			; <UNDEFINED> instruction: 0xf720081e
    32cc:	2cf72525 	cfldr64cs	mvdx2, [r7], #148	; 0x94
    32d0:	253300f7 	ldrcs	r0, [r3, #-247]!	; 0xffffff09
    32d4:	24311e35 	ldrtcs	r1, [r1], #-3637	; 0xfffff1cb
    32d8:	9f1e331c 	svcls	0x001e331c
	...
    32e4:	00000001 	andeq	r0, r0, r1
    32e8:	00480000 	subeq	r0, r8, r0
    32ec:	00580000 	subseq	r0, r8, r0
    32f0:	00010000 	andeq	r0, r1, r0
    32f4:	00005856 	andeq	r5, r0, r6, asr r8
    32f8:	00005b00 	andeq	r5, r0, r0, lsl #22
    32fc:	50000100 	andpl	r0, r0, r0, lsl #2
    3300:	0000005b 	andeq	r0, r0, fp, asr r0
    3304:	00000060 	andeq	r0, r0, r0, rrx
    3308:	01f30026 	mvnseq	r0, r6, lsr #32
    330c:	f72cf750 			; <UNDEFINED> instruction: 0xf72cf750
    3310:	0825f425 	stmdaeq	r5!, {r0, r2, r5, sl, ip, sp, lr, pc}
    3314:	cccccccd 	stclgt	12, cr12, [ip], {205}	; 0xcd
    3318:	00000000 	andeq	r0, r0, r0
    331c:	f720081e 			; <UNDEFINED> instruction: 0xf720081e
    3320:	2cf72525 	cfldr64cs	mvdx2, [r7], #148	; 0x94
    3324:	253300f7 	ldrcs	r0, [r3, #-247]!	; 0xffffff09
    3328:	a0808023 	addge	r8, r0, r3, lsr #32
    332c:	9f243240 	svcls	0x00243240
	...
    3338:	01000002 	tsteq	r0, r2
    333c:	00000001 	andeq	r0, r0, r1
    3340:	00000048 	andeq	r0, r0, r8, asr #32
    3344:	0000004c 	andeq	r0, r0, ip, asr #32
    3348:	4c500001 	mrrcmi	0, 0, r0, r0, cr1	; <UNPREDICTABLE>
    334c:	4c000000 	stcmi	0, cr0, [r0], {-0}
    3350:	01000000 	mrseq	r0, (UNDEF: 0)
    3354:	004c5100 	subeq	r5, ip, r0, lsl #2
    3358:	00500000 	subseq	r0, r0, r0
    335c:	000c0000 	andeq	r0, ip, r0
    3360:	ff080075 			; <UNDEFINED> instruction: 0xff080075
    3364:	2400741a 	strcs	r7, [r0], #-1050	; 0xfffffbe6
    3368:	9f210071 	svcls	0x00210071
    336c:	00000050 	andeq	r0, r0, r0, asr r0
    3370:	00000054 	andeq	r0, r0, r4, asr r0
    3374:	74370012 	ldrtvc	r0, [r7], #-18	; 0xffffffee
    3378:	70202400 	eorvc	r2, r0, r0, lsl #8
    337c:	00751a00 	rsbseq	r1, r5, r0, lsl #20
    3380:	741aff08 	ldrvc	pc, [sl], #-3848	; 0xfffff0f8
    3384:	9f212400 	svcls	0x00212400
	...
    3394:	00b80000 	adcseq	r0, r8, r0
    3398:	00c40000 	sbceq	r0, r4, r0
    339c:	00010000 	andeq	r0, r1, r0
    33a0:	0000c450 	andeq	ip, r0, r0, asr r4
    33a4:	0000cb00 	andeq	ip, r0, r0, lsl #22
    33a8:	53000100 	movwpl	r0, #256	; 0x100
    33ac:	000000cb 	andeq	r0, r0, fp, asr #1
    33b0:	000000d0 	ldrdeq	r0, [r0], -r0	; <UNPREDICTABLE>
    33b4:	01f30004 	mvnseq	r0, r4
    33b8:	00009f50 	andeq	r9, r0, r0, asr pc
	...
    33c8:	000000d0 	ldrdeq	r0, [r0], -r0	; <UNPREDICTABLE>
    33cc:	000000dc 	ldrdeq	r0, [r0], -ip
    33d0:	dc500001 	mrrcle	0, 0, r0, r0, cr1	; <UNPREDICTABLE>
    33d4:	e3000000 	movw	r0, #0
    33d8:	01000000 	mrseq	r0, (UNDEF: 0)
    33dc:	00e35300 	rsceq	r5, r3, r0, lsl #6
    33e0:	00e80000 	rsceq	r0, r8, r0
    33e4:	00040000 	andeq	r0, r4, r0
    33e8:	9f5001f3 	svcls	0x005001f3
	...
    33fc:	0000000b 	andeq	r0, r0, fp
    3400:	0b500001 	bleq	140340c <__bss_end__+0x13f807c>
    3404:	14000000 	strne	r0, [r0], #-0
    3408:	01000000 	mrseq	r0, (UNDEF: 0)
    340c:	00005400 	andeq	r5, r0, r0, lsl #8
	...
    341c:	00180000 	andseq	r0, r8, r0
    3420:	00010000 	andeq	r0, r1, r0
    3424:	00001851 	andeq	r1, r0, r1, asr r8
    3428:	00002c00 	andeq	r2, r0, r0, lsl #24
    342c:	f3000400 	vshl.u8	d0, d0, d0
    3430:	009f5101 	addseq	r5, pc, r1, lsl #2
    3434:	00000000 	andeq	r0, r0, r0
    3438:	02000000 	andeq	r0, r0, #0, 0
	...
    3444:	00000101 	andeq	r0, r0, r1, lsl #2
    3448:	00000000 	andeq	r0, r0, r0
    344c:	00000400 	andeq	r0, r0, r0, lsl #8
    3450:	50000100 	andpl	r0, r0, r0, lsl #2
    3454:	00000004 	andeq	r0, r0, r4
    3458:	00000008 	andeq	r0, r0, r8
    345c:	08520001 	ldmdaeq	r2, {r0}^
    3460:	0c000000 	stceq	0, cr0, [r0], {-0}
    3464:	03000000 	movweq	r0, #0
    3468:	9f017200 	svcls	0x00017200
    346c:	0000000c 	andeq	r0, r0, ip
    3470:	00000018 	andeq	r0, r0, r8, lsl r0
    3474:	18520001 	ldmdane	r2, {r0}^
    3478:	1c000000 	stcne	0, cr0, [r0], {-0}
    347c:	01000000 	mrseq	r0, (UNDEF: 0)
    3480:	001c5300 	andseq	r5, ip, r0, lsl #6
    3484:	00240000 	eoreq	r0, r4, r0
    3488:	00030000 	andeq	r0, r3, r0
    348c:	249f0173 	ldrcs	r0, [pc], #371	; 3494 <__code_start__-0x4b6c>
    3490:	2c000000 	stccs	0, cr0, [r0], {-0}
    3494:	01000000 	mrseq	r0, (UNDEF: 0)
    3498:	00005300 	andeq	r5, r0, r0, lsl #6
    349c:	00000000 	andeq	r0, r0, r0
    34a0:	02030000 	andeq	r0, r3, #0, 0
    34a4:	00000002 	andeq	r0, r0, r2
    34a8:	00000000 	andeq	r0, r0, r0
    34ac:	00000018 	andeq	r0, r0, r8, lsl r0
    34b0:	18510001 	ldmdane	r1, {r0}^
    34b4:	1c000000 	stcne	0, cr0, [r0], {-0}
    34b8:	03000000 	movweq	r0, #0
    34bc:	9f017100 	svcls	0x00017100
    34c0:	0000001c 	andeq	r0, r0, ip, lsl r0
    34c4:	0000002c 	andeq	r0, r0, ip, lsr #32
    34c8:	00510001 	subseq	r0, r1, r1
	...
    34d8:	00000800 	andeq	r0, r0, r0, lsl #16
    34dc:	00000c00 	andeq	r0, r0, r0, lsl #24
    34e0:	72000200 	andvc	r0, r0, #0, 4
    34e4:	00000c00 	andeq	r0, r0, r0, lsl #24
    34e8:	00001800 	andeq	r1, r0, r0, lsl #16
    34ec:	73000200 	movwvc	r0, #512	; 0x200
    34f0:	00001c00 	andeq	r1, r0, r0, lsl #24
    34f4:	00002c00 	andeq	r2, r0, r0, lsl #24
    34f8:	52000100 	andpl	r0, r0, #0
	...
    3514:	00000014 	andeq	r0, r0, r4, lsl r0
    3518:	14500001 	ldrbne	r0, [r0], #-1
    351c:	18000000 	stmdane	r0, {}	; <UNPREDICTABLE>
    3520:	03000000 	movweq	r0, #0
    3524:	9f017000 	svcls	0x00017000
    3528:	00000018 	andeq	r0, r0, r8, lsl r0
    352c:	00000020 	andeq	r0, r0, r0, lsr #32
    3530:	24500001 	ldrbcs	r0, [r0], #-1
    3534:	28000000 	stmdacs	r0, {}	; <UNPREDICTABLE>
    3538:	01000000 	mrseq	r0, (UNDEF: 0)
    353c:	00285000 	eoreq	r5, r8, r0
    3540:	00300000 	eorseq	r0, r0, r0
    3544:	00030000 	andeq	r0, r3, r0
    3548:	389f0170 	ldmcc	pc, {r4, r5, r6, r8}	; <UNPREDICTABLE>
    354c:	40000000 	andmi	r0, r0, r0
    3550:	01000000 	mrseq	r0, (UNDEF: 0)
    3554:	00005000 	andeq	r5, r0, r0
	...
    3568:	00000024 	andeq	r0, r0, r4, lsr #32
    356c:	24510001 	ldrbcs	r0, [r1], #-1
    3570:	28000000 	stmdacs	r0, {}	; <UNPREDICTABLE>
    3574:	01000000 	mrseq	r0, (UNDEF: 0)
    3578:	00285c00 	eoreq	r5, r8, r0, lsl #24
    357c:	00440000 	subeq	r0, r4, r0
    3580:	00010000 	andeq	r0, r1, r0
    3584:	00000051 	andeq	r0, r0, r1, asr r0
    3588:	00000000 	andeq	r0, r0, r0
    358c:	02020000 	andeq	r0, r2, #0, 0
    3590:	00000000 	andeq	r0, r0, r0
    3594:	04000000 	streq	r0, [r0], #-0
    3598:	01000000 	mrseq	r0, (UNDEF: 0)
    359c:	00045100 	andeq	r5, r4, r0, lsl #2
    35a0:	00080000 	andeq	r0, r8, r0
    35a4:	00030000 	andeq	r0, r3, r0
    35a8:	089f0171 	ldmeq	pc, {r0, r4, r5, r6, r8}	; <UNPREDICTABLE>
    35ac:	18000000 	stmdane	r0, {}	; <UNPREDICTABLE>
    35b0:	01000000 	mrseq	r0, (UNDEF: 0)
    35b4:	00005100 	andeq	r5, r0, r0, lsl #2
    35b8:	00000000 	andeq	r0, r0, r0
    35bc:	00020000 	andeq	r0, r2, r0
    35c0:	00000000 	andeq	r0, r0, r0
    35c4:	00000004 	andeq	r0, r0, r4
    35c8:	00500001 	subseq	r0, r0, r1
	...
    35d8:	08000000 	stmdaeq	r0, {}	; <UNPREDICTABLE>
    35dc:	01000000 	mrseq	r0, (UNDEF: 0)
    35e0:	00085000 	andeq	r5, r8, r0
    35e4:	00300000 	eorseq	r0, r0, r0
    35e8:	00040000 	andeq	r0, r4, r0
    35ec:	9f5001f3 	svcls	0x005001f3
	...
    3600:	00000008 	andeq	r0, r0, r8
    3604:	08510001 	ldmdaeq	r1, {r0}^
    3608:	30000000 	andcc	r0, r0, r0
    360c:	04000000 	streq	r0, [r0], #-0
    3610:	5101f300 	mrspl	pc, SP_irq	; <UNPREDICTABLE>
    3614:	0000009f 	muleq	r0, pc, r0	; <UNPREDICTABLE>
	...
    3620:	01000000 	mrseq	r0, (UNDEF: 0)
    3624:	00000202 	andeq	r0, r0, r2, lsl #4
    3628:	04000000 	streq	r0, [r0], #-0
    362c:	01000000 	mrseq	r0, (UNDEF: 0)
    3630:	00045200 	andeq	r5, r4, r0, lsl #4
    3634:	00080000 	andeq	r0, r8, r0
    3638:	00040000 	andeq	r0, r4, r0
    363c:	9f5201f3 	svcls	0x005201f3
    3640:	00000008 	andeq	r0, r0, r8
    3644:	00000018 	andeq	r0, r0, r8, lsl r0
    3648:	01f30006 	mvnseq	r0, r6
    364c:	9f1c3152 	svcls	0x001c3152
    3650:	00000018 	andeq	r0, r0, r8, lsl r0
    3654:	00000018 	andeq	r0, r0, r8, lsl r0
    3658:	01f30004 	mvnseq	r0, r4
    365c:	00189f52 	andseq	r9, r8, r2, asr pc
    3660:	00300000 	eorseq	r0, r0, r0
    3664:	00060000 	andeq	r0, r6, r0
    3668:	315201f3 	ldrshcc	r0, [r2, #-19]	; 0xffffffed
    366c:	00009f1c 	andeq	r9, r0, ip, lsl pc
    3670:	00000000 	andeq	r0, r0, r0
    3674:	00020000 	andeq	r0, r2, r0
    3678:	00010000 	andeq	r0, r1, r0
    367c:	00000000 	andeq	r0, r0, r0
    3680:	000c0000 	andeq	r0, ip, r0
    3684:	00010000 	andeq	r0, r1, r0
    3688:	00000c50 	andeq	r0, r0, r0, asr ip
    368c:	00001800 	andeq	r1, r0, r0, lsl #16
    3690:	70000300 	andvc	r0, r0, r0, lsl #6
    3694:	00189f7f 	andseq	r9, r8, pc, ror pc
    3698:	00240000 	eoreq	r0, r4, r0
    369c:	00010000 	andeq	r0, r1, r0
    36a0:	00002850 	andeq	r2, r0, r0, asr r8
    36a4:	00002c00 	andeq	r2, r0, r0, lsl #24
    36a8:	70000300 	andvc	r0, r0, r0, lsl #6
    36ac:	00009f7f 	andeq	r9, r0, pc, ror pc
    36b0:	00000000 	andeq	r0, r0, r0
    36b4:	00020000 	andeq	r0, r2, r0
	...
    36c0:	0000000c 	andeq	r0, r0, ip
    36c4:	0c510001 	mrrceq	0, 0, r0, r1, cr1
    36c8:	10000000 	andne	r0, r0, r0
    36cc:	03000000 	movweq	r0, #0
    36d0:	9f017100 	svcls	0x00017100
    36d4:	00000010 	andeq	r0, r0, r0, lsl r0
    36d8:	00000030 	andeq	r0, r0, r0, lsr r0
    36dc:	00510001 	subseq	r0, r1, r1
    36e0:	00000000 	andeq	r0, r0, r0
    36e4:	Address 0x00000000000036e4 is out of bounds.


Disassembly of section .debug_aranges:

00000000 <.debug_aranges>:
   0:	0000001c 	andeq	r0, r0, ip, lsl r0
   4:	00000002 	andeq	r0, r0, r2
   8:	00040000 	andeq	r0, r4, r0
   c:	00000000 	andeq	r0, r0, r0
  10:	00008038 	andeq	r8, r0, r8, lsr r0
  14:	0000010c 	andeq	r0, r0, ip, lsl #2
	...
  20:	0000001c 	andeq	r0, r0, ip, lsl r0
  24:	03ae0002 			; <UNDEFINED> instruction: 0x03ae0002
  28:	00040000 	andeq	r0, r4, r0
  2c:	00000000 	andeq	r0, r0, r0
  30:	00008144 	andeq	r8, r0, r4, asr #2
  34:	000003f8 	strdeq	r0, [r0], -r8
	...
  40:	0000001c 	andeq	r0, r0, ip, lsl r0
  44:	0b600002 	bleq	1800054 <__bss_end__+0x17f4cc4>
  48:	00040000 	andeq	r0, r4, r0
  4c:	00000000 	andeq	r0, r0, r0
  50:	0000853c 	andeq	r8, r0, ip, lsr r5
  54:	00000200 	andeq	r0, r0, r0, lsl #4
	...
  60:	0000001c 	andeq	r0, r0, ip, lsl r0
  64:	0e500002 	cdpeq	0, 5, cr0, cr0, cr2, {0}
  68:	00040000 	andeq	r0, r4, r0
  6c:	00000000 	andeq	r0, r0, r0
  70:	0000873c 	andeq	r8, r0, ip, lsr r7
  74:	0000081c 	andeq	r0, r0, ip, lsl r8
	...
  80:	0000001c 	andeq	r0, r0, ip, lsl r0
  84:	1d250002 	stcne	0, cr0, [r5, #-8]!
  88:	00040000 	andeq	r0, r4, r0
  8c:	00000000 	andeq	r0, r0, r0
  90:	00008f60 	andeq	r8, r0, r0, ror #30
  94:	000000a0 	andeq	r0, r0, r0, lsr #1
	...
  a0:	0000001c 	andeq	r0, r0, ip, lsl r0
  a4:	1f3f0002 	svcne	0x003f0002
  a8:	00040000 	andeq	r0, r4, r0
  ac:	00000000 	andeq	r0, r0, r0
  b0:	00009000 	andeq	r9, r0, r0
  b4:	00000078 	andeq	r0, r0, r8, ror r0
	...
  c0:	0000001c 	andeq	r0, r0, ip, lsl r0
  c4:	20830002 	addcs	r0, r3, r2
  c8:	00040000 	andeq	r0, r4, r0
  cc:	00000000 	andeq	r0, r0, r0
  d0:	00009078 	andeq	r9, r0, r8, ror r0
  d4:	00000058 	andeq	r0, r0, r8, asr r0
	...
  e0:	0000001c 	andeq	r0, r0, ip, lsl r0
  e4:	22240002 	eorcs	r0, r4, #2, 0
  e8:	00040000 	andeq	r0, r4, r0
  ec:	00000000 	andeq	r0, r0, r0
  f0:	000090d0 	ldrdeq	r9, [r0], -r0
  f4:	00000038 	andeq	r0, r0, r8, lsr r0
	...
 100:	0000001c 	andeq	r0, r0, ip, lsl r0
 104:	231b0002 	tstcs	fp, #2, 0
 108:	00040000 	andeq	r0, r4, r0
 10c:	00000000 	andeq	r0, r0, r0
 110:	00009108 	andeq	r9, r0, r8, lsl #2
 114:	00000098 	muleq	r0, r8, r0
	...
 120:	0000001c 	andeq	r0, r0, ip, lsl r0
 124:	247f0002 	ldrbtcs	r0, [pc], #-2	; 12c <__code_start__-0x7ed4>
 128:	00040000 	andeq	r0, r4, r0
 12c:	00000000 	andeq	r0, r0, r0
 130:	000091a0 	andeq	r9, r0, r0, lsr #3
 134:	000009b4 			; <UNDEFINED> instruction: 0x000009b4
	...
 140:	0000001c 	andeq	r0, r0, ip, lsl r0
 144:	31020002 	tstcc	r2, r2
 148:	00040000 	andeq	r0, r4, r0
 14c:	00000000 	andeq	r0, r0, r0
 150:	00009b54 	andeq	r9, r0, r4, asr fp
 154:	0000002c 	andeq	r0, r0, ip, lsr #32
	...
 160:	0000001c 	andeq	r0, r0, ip, lsl r0
 164:	32350002 	eorscc	r0, r5, #2, 0
 168:	00040000 	andeq	r0, r4, r0
 16c:	00000000 	andeq	r0, r0, r0
 170:	00009b80 	andeq	r9, r0, r0, lsl #23
 174:	000000f8 	strdeq	r0, [r0], -r8
	...
 180:	0000001c 	andeq	r0, r0, ip, lsl r0
 184:	33c90002 	biccc	r0, r9, #2, 0
 188:	00040000 	andeq	r0, r4, r0
 18c:	00000000 	andeq	r0, r0, r0
 190:	00009c78 	andeq	r9, r0, r8, ror ip
 194:	00000004 	andeq	r0, r0, r4
	...
 1a0:	0000001c 	andeq	r0, r0, ip, lsl r0
 1a4:	349b0002 	ldrcc	r0, [fp], #2
 1a8:	00040000 	andeq	r0, r4, r0
 1ac:	00000000 	andeq	r0, r0, r0
 1b0:	00009c7c 	andeq	r9, r0, ip, ror ip
 1b4:	0000008c 	andeq	r0, r0, ip, lsl #1
	...
 1c0:	0000001c 	andeq	r0, r0, ip, lsl r0
 1c4:	371c0002 	ldrcc	r0, [ip, -r2]
 1c8:	00040000 	andeq	r0, r4, r0
 1cc:	00000000 	andeq	r0, r0, r0
 1d0:	00009d08 	andeq	r9, r0, r8, lsl #26
 1d4:	0000011c 	andeq	r0, r0, ip, lsl r1
	...
 1e0:	0000001c 	andeq	r0, r0, ip, lsl r0
 1e4:	3c5f0002 	mrrccc	0, 0, r0, pc, cr2	; <UNPREDICTABLE>
 1e8:	00040000 	andeq	r0, r4, r0
 1ec:	00000000 	andeq	r0, r0, r0
 1f0:	00009e24 	andeq	r9, r0, r4, lsr #28
 1f4:	000001f0 	strdeq	r0, [r0], -r0	; <UNPREDICTABLE>
	...
 200:	0000001c 	andeq	r0, r0, ip, lsl r0
 204:	42300002 	eorsmi	r0, r0, #2, 0
 208:	00040000 	andeq	r0, r4, r0
 20c:	00000000 	andeq	r0, r0, r0
 210:	0000a014 	andeq	sl, r0, r4, lsl r0
 214:	000003b0 			; <UNDEFINED> instruction: 0x000003b0
	...
 220:	0000001c 	andeq	r0, r0, ip, lsl r0
 224:	4b1d0002 	blmi	740234 <__bss_end__+0x734ea4>
 228:	00040000 	andeq	r0, r4, r0
 22c:	00000000 	andeq	r0, r0, r0
 230:	0000a3c4 	andeq	sl, r0, r4, asr #7
 234:	00000198 	muleq	r0, r8, r1
	...
 240:	0000001c 	andeq	r0, r0, ip, lsl r0
 244:	51940002 	orrspl	r0, r4, r2
 248:	00040000 	andeq	r0, r4, r0
 24c:	00000000 	andeq	r0, r0, r0
 250:	0000a55c 	andeq	sl, r0, ip, asr r5
 254:	0000003c 	andeq	r0, r0, ip, lsr r0
	...
 260:	0000001c 	andeq	r0, r0, ip, lsl r0
 264:	52e10002 	rscpl	r0, r1, #2, 0
 268:	00040000 	andeq	r0, r4, r0
 26c:	00000000 	andeq	r0, r0, r0
 270:	0000a598 	muleq	r0, r8, r5
 274:	0000002c 	andeq	r0, r0, ip, lsr #32
	...
 280:	0000001c 	andeq	r0, r0, ip, lsl r0
 284:	541c0002 	ldrpl	r0, [ip], #-2
 288:	00040000 	andeq	r0, r4, r0
 28c:	00000000 	andeq	r0, r0, r0
 290:	0000a5c4 	andeq	sl, r0, r4, asr #11
 294:	00000044 	andeq	r0, r0, r4, asr #32
	...
 2a0:	0000001c 	andeq	r0, r0, ip, lsl r0
 2a4:	55170002 	ldrpl	r0, [r7, #-2]
 2a8:	00040000 	andeq	r0, r4, r0
 2ac:	00000000 	andeq	r0, r0, r0
 2b0:	0000a608 	andeq	sl, r0, r8, lsl #12
 2b4:	00000018 	andeq	r0, r0, r8, lsl r0
	...
 2c0:	0000001c 	andeq	r0, r0, ip, lsl r0
 2c4:	562a0002 	strtpl	r0, [sl], -r2
 2c8:	00040000 	andeq	r0, r4, r0
 2cc:	00000000 	andeq	r0, r0, r0
 2d0:	0000a620 	andeq	sl, r0, r0, lsr #12
 2d4:	00000030 	andeq	r0, r0, r0, lsr r0
	...
 2e0:	0000001c 	andeq	r0, r0, ip, lsl r0
 2e4:	577c0002 	ldrbpl	r0, [ip, -r2]!
 2e8:	00040000 	andeq	r0, r4, r0
 2ec:	00000000 	andeq	r0, r0, r0
 2f0:	0000a650 	andeq	sl, r0, r0, asr r6
 2f4:	00000004 	andeq	r0, r0, r4
	...

Disassembly of section .debug_line:

00000000 <.debug_line>:
       0:	00000116 	andeq	r0, r0, r6, lsl r1
       4:	00840003 	addeq	r0, r4, r3
       8:	01020000 	mrseq	r0, (UNDEF: 2)
       c:	000d0efb 	strdeq	r0, [sp], -fp
      10:	01010101 	tsteq	r1, r1, lsl #2
      14:	01000000 	mrseq	r0, (UNDEF: 0)
      18:	74010000 	strvc	r0, [r1], #-0
      1c:	73747365 	cmnvc	r4, #-1811939327	; 0x94000001
      20:	302e322d 	eorcc	r3, lr, sp, lsr #4
      24:	2f002e00 	svccs	0x00002e00
      28:	72657355 	rsbvc	r7, r5, #1409286145	; 0x54000001
      2c:	696d2f73 	stmdbvs	sp!, {r0, r1, r4, r5, r6, r8, r9, sl, fp, sp}^
      30:	2f73656c 	svccs	0x0073656c
      34:	72756f53 	rsbsvc	r6, r5, #332	; 0x14c
      38:	632f6563 			; <UNDEFINED> instruction: 0x632f6563
      3c:	30343273 	eorscc	r3, r4, r3, ror r2
      40:	6c2f786c 	stcvs	8, cr7, [pc], #-432	; fffffe98 <__bss_end__+0xffff4b08>
      44:	69706269 	ldmdbvs	r0!, {r0, r3, r5, r6, r9, sp, lr}^
      48:	636e692f 	cmnvs	lr, #770048	; 0xbc000
      4c:	6564756c 	strbvs	r7, [r4, #-1388]!	; 0xfffffa94
      50:	61700000 	cmnvs	r0, r0
      54:	2d317472 	cfldrscs	mvf7, [r1, #-456]!	; 0xfffffe38
      58:	74736574 	ldrbtvc	r6, [r3], #-1396	; 0xfffffa8c
      5c:	6f6e2d35 	svcvs	0x006e2d35
      60:	6775622d 	ldrbvs	r6, [r5, -sp, lsr #4]!
      64:	0100632e 	tsteq	r0, lr, lsr #6
      68:	72730000 	rsbsvc	r0, r3, #0, 0
      6c:	6f6c2d63 	svcvs	0x006c2d63
      70:	00682e63 	rsbeq	r2, r8, r3, ror #28
      74:	72000002 	andvc	r0, r0, #2, 0
      78:	682e6970 	stmdavs	lr!, {r4, r5, r6, r8, fp, sp, lr}
      7c:	00000300 	andeq	r0, r0, r0, lsl #6
      80:	6c616b63 			; <UNDEFINED> instruction: 0x6c616b63
      84:	2e636f6c 	cdpcs	15, 6, cr6, cr3, cr12, {3}
      88:	00020068 	andeq	r0, r2, r8, rrx
      8c:	14050000 	strne	r0, [r5], #-0
      90:	44020500 	strmi	r0, [r2], #-1280	; 0xfffffb00
      94:	16000080 	strne	r0, [r0], -r0, lsl #1
      98:	4c830505 	cfstr32mi	mvfx0, [r3], {5}
      9c:	01061005 	tsteq	r6, r5
      a0:	0b050204 	bleq	1408b8 <__bss_end__+0x135528>
      a4:	05053306 	streq	r3, [r5, #-774]	; 0xfffffcfa
      a8:	060c0513 			; <UNDEFINED> instruction: 0x060c0513
      ac:	0104ba01 	tsteq	r4, r1, lsl #20
      b0:	7a031005 	bvc	c40cc <__bss_end__+0xb8d3c>
      b4:	06050501 	streq	r0, [r5], -r1, lsl #10
      b8:	061005bb 			; <UNDEFINED> instruction: 0x061005bb
      bc:	05020401 	streq	r0, [r2, #-1025]	; 0xfffffbff
      c0:	0532060b 	ldreq	r0, [r2, #-1547]!	; 0xfffff9f5
      c4:	0c051305 	stceq	3, cr1, [r5], {5}
      c8:	04820106 	streq	r0, [r2], #262	; 0x106
      cc:	0d100501 	cfldr32eq	mvfx0, [r0, #-4]
      d0:	bb060505 	bllt	1814ec <__bss_end__+0x17615c>
      d4:	0b050204 	bleq	1408ec <__bss_end__+0x13555c>
      d8:	13050515 	movwne	r0, #21781	; 0x5515
      dc:	01060c05 	tsteq	r6, r5, lsl #24
      e0:	05010482 	streq	r0, [r1, #-1154]	; 0xfffffb7e
      e4:	06660e05 	strbteq	r0, [r6], -r5, lsl #28
      e8:	0502042f 	streq	r0, [r2, #-1071]	; 0xfffffbd1
      ec:	0505140b 	streq	r1, [r5, #-1035]	; 0xfffffbf5
      f0:	060c0513 			; <UNDEFINED> instruction: 0x060c0513
      f4:	01048201 	tsteq	r4, r1, lsl #4
      f8:	060f0505 	streq	r0, [pc], -r5, lsl #10
      fc:	06080584 	streq	r0, [r8], -r4, lsl #11
     100:	2e070501 	cfsh32cs	mvfx0, mvfx7, #1
     104:	4b060905 	blmi	182520 <__bss_end__+0x177190>
     108:	054a0114 	strbeq	r0, [sl, #-276]	; 0xfffffeec
     10c:	05130601 	ldreq	r0, [r3, #-1537]	; 0xfffff9ff
     110:	01470609 	cmpeq	r7, r9, lsl #12
     114:	000c029e 	muleq	ip, lr, r2
     118:	035f0101 	cmpeq	pc, #1073741824	; 0x40000000
     11c:	00030000 	andeq	r0, r3, r0
     120:	000000f4 	strdeq	r0, [r0], -r4
     124:	0efb0102 	cdpeq	1, 15, cr0, cr11, cr2, {0}
     128:	0101000d 	tsteq	r1, sp
     12c:	00000101 	andeq	r0, r0, r1, lsl #2
     130:	00000100 	andeq	r0, r0, r0, lsl #2
     134:	706f2f01 	rsbvc	r2, pc, r1, lsl #30
     138:	6f682f74 	svcvs	0x00682f74
     13c:	7262656d 	rsbvc	r6, r2, #457179136	; 0x1b400000
     140:	432f7765 			; <UNDEFINED> instruction: 0x432f7765
     144:	616c6c65 	cmnvs	ip, r5, ror #24
     148:	72612f72 	rsbvc	r2, r1, #456	; 0x1c8
     14c:	6f6e2d6d 	svcvs	0x006e2d6d
     150:	652d656e 	strvs	r6, [sp, #-1390]!	; 0xfffffa92
     154:	2d696261 	sfmcs	f6, 2, [r9, #-388]!	; 0xfffffe7c
     158:	2d392f39 	ldccs	15, cr2, [r9, #-228]!	; 0xffffff1c
     15c:	39313032 	ldmdbcc	r1!, {r1, r4, r5, ip, sp}
     160:	632d3471 			; <UNDEFINED> instruction: 0x632d3471
     164:	37303173 			; <UNDEFINED> instruction: 0x37303173
     168:	696c2f65 	stmdbvs	ip!, {r0, r2, r5, r6, r8, r9, sl, fp, sp}^
     16c:	63672f62 	cmnvs	r7, #392	; 0x188
     170:	72612f63 	rsbvc	r2, r1, #396	; 0x18c
     174:	6f6e2d6d 	svcvs	0x006e2d6d
     178:	652d656e 	strvs	r6, [sp, #-1390]!	; 0xfffffa92
     17c:	2f696261 	svccs	0x00696261
     180:	2e322e39 	mrccs	14, 1, r2, cr2, cr9, {1}
     184:	6e692f31 	mcrvs	15, 3, r2, cr9, cr1, {1}
     188:	64756c63 	ldrbtvs	r6, [r5], #-3171	; 0xfffff39d
     18c:	552f0065 	strpl	r0, [pc, #-101]!	; 12f <__code_start__-0x7ed1>
     190:	73726573 	cmnvc	r2, #482344960	; 0x1cc00000
     194:	6c696d2f 	stclvs	13, cr6, [r9], #-188	; 0xffffff44
     198:	532f7365 			; <UNDEFINED> instruction: 0x532f7365
     19c:	6372756f 	cmnvs	r2, #465567744	; 0x1bc00000
     1a0:	73632f65 	cmnvc	r3, #404	; 0x194
     1a4:	6c303432 	cfldrsvs	mvf3, [r0], #-200	; 0xffffff38
     1a8:	696c2f78 	stmdbvs	ip!, {r3, r4, r5, r6, r8, r9, sl, fp, sp}^
     1ac:	2f697062 	svccs	0x00697062
     1b0:	6c636e69 	stclvs	14, cr6, [r3], #-420	; 0xfffffe5c
     1b4:	00656475 	rsbeq	r6, r5, r5, ror r4
     1b8:	616b6300 	cmnvs	fp, r0, lsl #6
     1bc:	636f6c6c 	cmnvs	pc, #108, 24	; 0x6c00
     1c0:	0000632e 	andeq	r6, r0, lr, lsr #6
     1c4:	6b630000 	blvs	18c01cc <__bss_end__+0x18b4e3c>
     1c8:	6f6c6c61 	svcvs	0x006c6c61
     1cc:	00682e63 	rsbeq	r2, r8, r3, ror #28
     1d0:	73000000 	movwvc	r0, #0
     1d4:	6e696474 	mcrvs	4, 3, r6, cr9, cr4, {3}
     1d8:	63672d74 	cmnvs	r7, #116, 26	; 0x1d00
     1dc:	00682e63 	rsbeq	r2, r8, r3, ror #28
     1e0:	72000001 	andvc	r0, r0, #1, 0
     1e4:	682e6970 	stmdavs	lr!, {r4, r5, r6, r8, fp, sp, lr}
     1e8:	00000200 	andeq	r0, r0, r0, lsl #4
     1ec:	2d637273 	sfmcs	f7, 2, [r3, #-460]!	; 0xfffffe34
     1f0:	2e636f6c 	cdpcs	15, 6, cr6, cr3, cr12, {3}
     1f4:	00000068 	andeq	r0, r0, r8, rrx
     1f8:	2d726b00 	vldmdbcs	r2!, {d22-d21}
     1fc:	6c6c616d 	stfvse	f6, [ip], #-436	; 0xfffffe4c
     200:	682e636f 	stmdavs	lr!, {r0, r1, r2, r3, r5, r6, r8, r9, sp, lr}
     204:	00000000 	andeq	r0, r0, r0
     208:	6b636162 	blvs	18d8798 <__bss_end__+0x18cd408>
     20c:	63617274 	cmnvs	r1, #116, 4	; 0x40000007
     210:	00682e65 	rsbeq	r2, r8, r5, ror #28
     214:	00000002 	andeq	r0, r0, r2
     218:	05000105 	streq	r0, [r0, #-261]	; 0xfffffefb
     21c:	00815802 	addeq	r5, r1, r2, lsl #16
     220:	010b0300 	mrseq	r0, (UNDEF: 59)
     224:	05670505 	strbeq	r0, [r7, #-1285]!	; 0xfffffafb
     228:	06130601 	ldreq	r0, [r3], -r1, lsl #12
     22c:	050106f6 	streq	r0, [r1, #-1782]	; 0xfffff90a
     230:	05670605 	strbeq	r0, [r7, #-1541]!	; 0xfffff9fb
     234:	2e010608 	cfmadd32cs	mvax0, mvfx0, mvfx1, mvfx8
     238:	2f060905 	svccs	0x00060905
     23c:	01061105 	tsteq	r6, r5, lsl #2
     240:	06300105 	ldrteq	r0, [r0], -r5, lsl #2
     244:	050106bd 	streq	r0, [r1, #-1725]	; 0xfffff943
     248:	05670605 	strbeq	r0, [r7, #-1541]!	; 0xfffff9fb
     24c:	2e130601 	cfmsub32cs	mvax0, mvfx0, mvfx3, mvfx1
     250:	0106a206 	tsteq	r6, r6, lsl #4
     254:	83060505 	movwhi	r0, #25861	; 0x6505
     258:	01061405 	tsteq	r6, r5, lsl #8
     25c:	18050204 	stmdane	r5, {r2, r9}
     260:	2e0f0306 	cdpcs	3, 0, cr0, cr15, cr6, {0}
     264:	05130505 	ldreq	r0, [r3, #-1285]	; 0xfffffafb
     268:	2e01060d 	cfmadd32cs	mvax0, mvfx0, mvfx1, mvfx13
     26c:	01050104 	tsteq	r5, r4, lsl #2
     270:	06017103 	streq	r7, [r1], -r3, lsl #2
     274:	050106da 	streq	r0, [r1, #-1754]	; 0xfffff926
     278:	059f0605 	ldreq	r0, [pc, #1541]	; 885 <__code_start__-0x777b>
     27c:	2e010611 	mcrcs	6, 0, r0, cr1, cr1, {0}
     280:	2f060505 	svccs	0x00060505
     284:	01061105 	tsteq	r6, r5, lsl #2
     288:	0605052e 	streq	r0, [r5], -lr, lsr #10
     28c:	0601052f 	streq	r0, [r1], -pc, lsr #10
     290:	f5066613 			; <UNDEFINED> instruction: 0xf5066613
     294:	05050106 	streq	r0, [r5, #-262]	; 0xfffffefa
     298:	0a058406 	beq	1612b8 <__bss_end__+0x155f28>
     29c:	06150501 	ldreq	r0, [r5], -r1, lsl #10
     2a0:	25052e01 	strcs	r2, [r5, #-3585]	; 0xfffff1ff
     2a4:	01040200 	mrseq	r0, R12_usr
     2a8:	05052e06 	streq	r2, [r5, #-3590]	; 0xfffff1fa
     2ac:	01040200 	mrseq	r0, R12_usr
     2b0:	09050106 	stmdbeq	r5, {r1, r2, r8}
     2b4:	0d054d06 	stceq	13, cr4, [r5, #-24]	; 0xffffffe8
     2b8:	054a0106 	strbeq	r0, [sl, #-262]	; 0xfffffefa
     2bc:	28052e0c 	stmdacs	r5, {r2, r3, r9, sl, fp, sp}
     2c0:	02040200 	andeq	r0, r4, #0, 4
     2c4:	2c054706 	stccs	7, cr4, [r5], {6}
     2c8:	02040200 	andeq	r0, r4, #0, 4
     2cc:	02000106 	andeq	r0, r0, #-2147483647	; 0x80000001
     2d0:	05660204 	strbeq	r0, [r6, #-516]!	; 0xfffffdfc
     2d4:	8333060d 	teqhi	r3, #13631488	; 0xd00000
     2d8:	01050106 	tsteq	r5, r6, lsl #2
     2dc:	1c030616 	stcne	6, cr0, [r3], {22}
     2e0:	ba0106ba 	blt	41dd0 <__bss_end__+0x36a40>
     2e4:	2f060505 	svccs	0x00060505
     2e8:	11051313 	tstne	r5, r3, lsl r3
     2ec:	05050106 	streq	r0, [r5, #-262]	; 0xfffffefa
     2f0:	f2016806 	vadd.i8	d6, d1, d6
     2f4:	0a051366 	beq	145094 <__bss_end__+0x139d04>
     2f8:	08050106 	stmdaeq	r5, {r1, r2, r8}
     2fc:	4d0d052e 	cfstr32mi	mvfx0, [sp, #-184]	; 0xffffff48
     300:	02001405 	andeq	r1, r0, #83886080	; 0x5000000
     304:	2e060104 	adfcss	f0, f6, f4
     308:	02000505 	andeq	r0, r0, #20971520	; 0x1400000
     30c:	01060104 	tsteq	r6, r4, lsl #2
     310:	4b060905 	blmi	18272c <__bss_end__+0x17739c>
     314:	01061305 	tsteq	r6, r5, lsl #6
     318:	054a0c05 	strbeq	r0, [sl, #-3077]	; 0xfffff3fb
     31c:	054b060d 	strbeq	r0, [fp, #-1549]	; 0xfffff9f3
     320:	22051409 	andcs	r1, r5, #150994944	; 0x9000000
     324:	31050106 	tstcc	r5, r6, lsl #2
     328:	2e0d052e 	cfsh32cs	mvfx0, mvfx13, #30
     32c:	052e0c05 	streq	r0, [lr, #-3077]!	; 0xfffff3fb
     330:	0402000d 	streq	r0, [r2], #-13
     334:	054b0602 	strbeq	r0, [fp, #-1538]	; 0xfffff9fe
     338:	04020028 	streq	r0, [r2], #-40	; 0xffffffd8
     33c:	29050d02 	stmdbcs	r5, {r1, r8, sl, fp}
     340:	02040200 	andeq	r0, r4, #0, 4
     344:	02000106 	andeq	r0, r0, #-2147483647	; 0x80000001
     348:	002e0204 	eoreq	r0, lr, r4, lsl #4
     34c:	2e020402 	cdpcs	4, 0, cr0, cr2, cr2, {0}
     350:	10060905 	andne	r0, r6, r5, lsl #18
     354:	669e2e01 	ldrvs	r2, [lr], r1, lsl #28
     358:	01320d05 	teqeq	r2, r5, lsl #26
     35c:	314a9e2e 	cmpcc	sl, lr, lsr #28
     360:	4a9e2e01 	bmi	fe78bb6c <__bss_end__+0xfe7807dc>
     364:	05172e06 	ldreq	r2, [r7, #-3590]	; 0xfffff1fa
     368:	04020014 	streq	r0, [r2], #-20	; 0xffffffec
     36c:	052e0601 	streq	r0, [lr, #-1537]!	; 0xfffff9ff
     370:	04020019 	streq	r0, [r2], #-25	; 0xffffffe7
     374:	05010601 	streq	r0, [r1, #-1537]	; 0xfffff9ff
     378:	04020005 	streq	r0, [r2], #-5
     37c:	09052e01 	stmdbeq	r5, {r0, r9, sl, fp, sp}
     380:	03040200 	movweq	r0, #16896	; 0x4200
     384:	1c052f06 	stcne	15, cr2, [r5], {6}
     388:	03040200 	movweq	r0, #16896	; 0x4200
     38c:	29050106 	stmdbcs	r5, {r1, r2, r8}
     390:	03040200 	movweq	r0, #16896	; 0x4200
     394:	2a054906 	bcs	1527b4 <__bss_end__+0x147424>
     398:	03040200 	movweq	r0, #16896	; 0x4200
     39c:	02000106 	andeq	r0, r0, #-2147483647	; 0x80000001
     3a0:	002e0304 	eoreq	r0, lr, r4, lsl #6
     3a4:	2e030402 	cdpcs	4, 0, cr0, cr3, cr2, {0}
     3a8:	16060505 	strne	r0, [r6], -r5, lsl #10
     3ac:	01060e05 	tsteq	r6, r5, lsl #28
     3b0:	0605052e 	streq	r0, [r5], -lr, lsr #10
     3b4:	0611052f 	ldreq	r0, [r1], -pc, lsr #10
     3b8:	06050501 	streq	r0, [r5], -r1, lsl #10
     3bc:	01050183 	smlabbeq	r5, r3, r1, r0
     3c0:	05058606 	streq	r8, [r5, #-1542]	; 0xfffff9fa
     3c4:	01040200 	mrseq	r0, R12_usr
     3c8:	02004606 	andeq	r4, r0, #6291456	; 0x600000
     3cc:	00010104 	andeq	r0, r1, r4, lsl #2
     3d0:	d6010402 	strle	r0, [r1], -r2, lsl #8
     3d4:	0a030105 	beq	c07f0 <__bss_end__+0xb5460>
     3d8:	0106ac08 	tsteq	r6, r8, lsl #24
     3dc:	060505ba 			; <UNDEFINED> instruction: 0x060505ba
     3e0:	0610052f 	ldreq	r0, [r0], -pc, lsr #10
     3e4:	06050501 	streq	r0, [r5], -r1, lsl #10
     3e8:	09056969 	stmdbeq	r5, {r0, r3, r5, r6, r8, fp, sp, lr}
     3ec:	060d0501 	streq	r0, [sp], -r1, lsl #10
     3f0:	00140501 	andseq	r0, r4, r1, lsl #10
     3f4:	06010402 	streq	r0, [r1], -r2, lsl #8
     3f8:	0005052e 	andeq	r0, r5, lr, lsr #10
     3fc:	06010402 	streq	r0, [r1], -r2, lsl #8
     400:	00090501 	andeq	r0, r9, r1, lsl #10
     404:	06030402 	streq	r0, [r3], -r2, lsl #8
     408:	0013054b 	andseq	r0, r3, fp, asr #10
     40c:	06030402 	streq	r0, [r3], -r2, lsl #8
     410:	00090501 	andeq	r0, r9, r1, lsl #10
     414:	06030402 	streq	r0, [r3], -r2, lsl #8
     418:	00260567 	eoreq	r0, r6, r7, ror #10
     41c:	06030402 	streq	r0, [r3], -r2, lsl #8
     420:	002b0501 	eoreq	r0, fp, r1, lsl #10
     424:	4a030402 	bmi	c1434 <__bss_end__+0xb60a4>
     428:	02002805 	andeq	r2, r0, #327680	; 0x50000
     42c:	2c060304 	stccs	3, cr0, [r6], {4}
     430:	02002905 	andeq	r2, r0, #81920	; 0x14000
     434:	01060304 	tsteq	r6, r4, lsl #6
     438:	03040200 	movweq	r0, #16896	; 0x4200
     43c:	0402002e 	streq	r0, [r2], #-46	; 0xffffffd2
     440:	05052e03 	streq	r2, [r5, #-3587]	; 0xfffff1fd
     444:	15051706 	strne	r1, [r5, #-1798]	; 0xfffff8fa
     448:	05050106 	streq	r0, [r5, #-262]	; 0xfffffefa
     44c:	0e052f06 	cdpeq	15, 0, cr2, cr5, cr6, {0}
     450:	052e0106 	streq	r0, [lr, #-262]!	; 0xfffffefa
     454:	052f0605 	streq	r0, [pc, #-1541]!	; fffffe57 <__bss_end__+0xffff4ac7>
     458:	05010612 	streq	r0, [r1, #-1554]	; 0xfffff9ee
     45c:	01840605 	orreq	r0, r4, r5, lsl #12
     460:	05149e9e 	ldreq	r9, [r4, #-3742]	; 0xfffff162
     464:	0501060d 	streq	r0, [r1, #-1549]	; 0xfffff9f3
     468:	05670605 	strbeq	r0, [r7, #-1541]!	; 0xfffff9fb
     46c:	05010610 	streq	r0, [r1, #-1552]	; 0xfffff9f0
     470:	05300605 	ldreq	r0, [r0, #-1541]!	; 0xfffff9fb
     474:	66140601 	ldrvs	r0, [r4], -r1, lsl #12
     478:	01000602 	tsteq	r0, r2, lsl #12
     47c:	00022801 	andeq	r2, r2, r1, lsl #16
     480:	64000300 	strvs	r0, [r0], #-768	; 0xfffffd00
     484:	02000000 	andeq	r0, r0, #0, 0
     488:	0d0efb01 	vstreq	d15, [lr, #-4]
     48c:	01010100 	mrseq	r0, (UNDEF: 17)
     490:	00000001 	andeq	r0, r0, r1
     494:	01000001 	tsteq	r0, r1
     498:	6573552f 	ldrbvs	r5, [r3, #-1327]!	; 0xfffffad1
     49c:	6d2f7372 	stcvs	3, cr7, [pc, #-456]!	; 2dc <__code_start__-0x7d24>
     4a0:	73656c69 	cmnvc	r5, #26880	; 0x6900
     4a4:	756f532f 	strbvc	r5, [pc, #-815]!	; 17d <__code_start__-0x7e83>
     4a8:	2f656372 	svccs	0x00656372
     4ac:	34327363 	ldrtcc	r7, [r2], #-867	; 0xfffffc9d
     4b0:	2f786c30 	svccs	0x00786c30
     4b4:	7062696c 	rsbvc	r6, r2, ip, ror #18
     4b8:	6e692f69 	cdpvs	15, 6, cr2, cr9, cr9, {3}
     4bc:	64756c63 	ldrbtvs	r6, [r5], #-3171	; 0xfffff39d
     4c0:	6b000065 	blvs	65c <__code_start__-0x79a4>
     4c4:	616d2d72 	smcvs	53970	; 0xd2d2
     4c8:	636f6c6c 	cmnvs	pc, #108, 24	; 0x6c00
     4cc:	0000632e 	andeq	r6, r0, lr, lsr #6
     4d0:	70720000 	rsbsvc	r0, r2, r0
     4d4:	00682e69 	rsbeq	r2, r8, r9, ror #28
     4d8:	6b000001 	blvs	4e4 <__code_start__-0x7b1c>
     4dc:	616d2d72 	smcvs	53970	; 0xd2d2
     4e0:	636f6c6c 	cmnvs	pc, #108, 24	; 0x6c00
     4e4:	0000682e 	andeq	r6, r0, lr, lsr #16
     4e8:	05000000 	streq	r0, [r0, #-0]
     4ec:	02050001 	andeq	r0, r5, #1, 0
     4f0:	00008548 	andeq	r8, r0, r8, asr #10
     4f4:	0100d303 	tsteq	r0, r3, lsl #6
     4f8:	02050106 	andeq	r0, r5, #-2147483647	; 0x80000001
     4fc:	05136706 	ldreq	r6, [r3, #-1798]	; 0xfffff8fa
     500:	05010605 	streq	r0, [r1, #-1541]	; 0xfffff9fb
     504:	052f0602 	streq	r0, [pc, #-1538]!	; ffffff0a <__bss_end__+0xffff4b7a>
     508:	05010609 	streq	r0, [r1, #-1545]	; 0xfffff9f7
     50c:	052e4a02 	streq	r4, [lr, #-2562]!	; 0xfffff5fe
     510:	04020012 	streq	r0, [r2], #-18	; 0xffffffee
     514:	052e0601 	streq	r0, [lr, #-1537]!	; 0xfffff9ff
     518:	04020002 	streq	r0, [r2], #-2
     51c:	05010601 	streq	r0, [r1, #-1537]	; 0xfffff9ff
     520:	04020027 	streq	r0, [r2], #-39	; 0xffffffd9
     524:	12054a03 	andne	r4, r5, #12288	; 0x3000
     528:	03040200 	movweq	r0, #16896	; 0x4200
     52c:	0603052e 	streq	r0, [r3], -lr, lsr #10
     530:	0610054b 	ldreq	r0, [r0], -fp, asr #10
     534:	2e060501 	cfsh32cs	mvfx0, mvfx6, #1
     538:	02001505 	andeq	r1, r0, #20971520	; 0x1400000
     53c:	054a0104 	strbeq	r0, [sl, #-260]	; 0xfffffefc
     540:	04020020 	streq	r0, [r2], #-32	; 0xffffffe0
     544:	02004a02 	andeq	r4, r0, #8192	; 0x2000
     548:	054a0204 	strbeq	r0, [sl, #-516]	; 0xfffffdfc
     54c:	05300602 	ldreq	r0, [r0, #-1538]!	; 0xfffff9fe
     550:	05010610 	streq	r0, [r1, #-1552]	; 0xfffff9f0
     554:	1d052e09 	stcne	14, cr2, [r5, #-36]	; 0xffffffdc
     558:	2e05052e 	cfsh32cs	mvfx0, mvfx5, #30
     55c:	50060305 	andpl	r0, r6, r5, lsl #6
     560:	01060d05 	tsteq	r6, r5, lsl #26
     564:	2f060205 	svccs	0x00060205
     568:	01060e05 	tsteq	r6, r5, lsl #28
     56c:	052e0805 	streq	r0, [lr, #-2053]!	; 0xfffff7fb
     570:	03052e05 	movweq	r2, #24069	; 0x5e05
     574:	0c055006 	stceq	0, cr5, [r5], {6}
     578:	02050106 	andeq	r0, r5, #-2147483647	; 0x80000001
     57c:	08052f06 	stmdaeq	r5, {r1, r2, r8, r9, sl, fp, sp}
     580:	01050106 	tsteq	r5, r6, lsl #2
     584:	0603054b 	streq	r0, [r3], -fp, asr #10
     588:	052e7303 	streq	r7, [lr, #-771]!	; 0xfffffcfd
     58c:	0501061c 	streq	r0, [r1, #-1564]	; 0xfffff9e4
     590:	03052e0e 	movweq	r2, #24078	; 0x5e0e
     594:	13054b06 	movwne	r4, #23302	; 0x5b06
     598:	1a050106 	bne	1409b8 <__bss_end__+0x135628>
     59c:	2e0d052e 	cfsh32cs	mvfx0, mvfx13, #30
     5a0:	50060305 	andpl	r0, r6, r5, lsl #6
     5a4:	01061505 	tsteq	r6, r5, lsl #10
     5a8:	052e0d05 	streq	r0, [lr, #-3333]!	; 0xfffff2fb
     5ac:	054b0603 	strbeq	r0, [fp, #-1539]	; 0xfffff9fd
     5b0:	05010613 	streq	r0, [r1, #-1555]	; 0xfffff9ed
     5b4:	01052e0c 	tsteq	r5, ip, lsl #28
     5b8:	7fb90306 	svcvc	0x00b90306
     5bc:	050106d6 	streq	r0, [r1, #-1750]	; 0xfffff92a
     5c0:	05830602 	streq	r0, [r3, #1538]	; 0x602
     5c4:	05010605 	streq	r0, [r1, #-1541]	; 0xfffff9fb
     5c8:	02052f06 	andeq	r2, r5, #6, 30
     5cc:	05672f06 	strbeq	r2, [r7, #-3846]!	; 0xfffff0fa
     5d0:	0501060d 	streq	r0, [r1, #-1549]	; 0xfffff9f3
     5d4:	054b0602 	strbeq	r0, [fp, #-1538]	; 0xfffff9fe
     5d8:	05010605 	streq	r0, [r1, #-1541]	; 0xfffff9fb
     5dc:	134c0602 	movtne	r0, #50690	; 0xc602
     5e0:	01060d05 	tsteq	r6, r5, lsl #26
     5e4:	2f060205 	svccs	0x00060205
     5e8:	2f062e06 	svccs	0x00062e06
     5ec:	01060905 	tsteq	r6, r5, lsl #18
     5f0:	05620a05 	strbeq	r0, [r2, #-2565]!	; 0xfffff5fb
     5f4:	da063301 	ble	18d200 <__bss_end__+0x181e70>
     5f8:	02050106 	andeq	r0, r5, #-2147483647	; 0x80000001
     5fc:	14136706 	ldrne	r6, [r3], #-1798	; 0xfffff8fa
     600:	01062405 	tsteq	r6, r5, lsl #8
     604:	052e2905 	streq	r2, [lr, #-2309]!	; 0xfffff6fb
     608:	02052e09 	andeq	r2, r5, #144	; 0x90
     60c:	0d052f06 	stceq	15, cr2, [r5, #-24]	; 0xffffffe8
     610:	05050106 	streq	r0, [r5, #-262]	; 0xfffffefa
     614:	0602054a 	streq	r0, [r2], -sl, asr #10
     618:	06090550 			; <UNDEFINED> instruction: 0x06090550
     61c:	03052e01 	movweq	r2, #24065	; 0x5e01
     620:	16052a06 	strne	r2, [r5], -r6, lsl #20
     624:	0e050106 	adfeqs	f0, f5, f6
     628:	0603054a 	streq	r0, [r3], -sl, asr #10
     62c:	060f052f 	streq	r0, [pc], -pc, lsr #10
     630:	06040501 	streq	r0, [r4], -r1, lsl #10
     634:	0607056d 	streq	r0, [r7], -sp, ror #10
     638:	06050501 	streq	r0, [r5], -r1, lsl #10
     63c:	060f0534 			; <UNDEFINED> instruction: 0x060f0534
     640:	06050501 	streq	r0, [r5], -r1, lsl #10
     644:	0607054b 	streq	r0, [r7], -fp, asr #10
     648:	06050501 	streq	r0, [r5], -r1, lsl #10
     64c:	060f052f 	streq	r0, [pc], -pc, lsr #10
     650:	06040501 	streq	r0, [r4], -r1, lsl #10
     654:	060a0530 			; <UNDEFINED> instruction: 0x060a0530
     658:	06040501 	streq	r0, [r4], -r1, lsl #10
     65c:	060b054b 	streq	r0, [fp], -fp, asr #10
     660:	05052e01 	streq	r2, [r5, #-3585]	; 0xfffff1ff
     664:	2e770306 	cdpcs	3, 7, cr0, cr7, cr6, {0}
     668:	01061805 	tsteq	r6, r5, lsl #16
     66c:	052e1205 	streq	r1, [lr, #-517]!	; 0xfffffdfb
     670:	7a03061a 	bvc	c1ee0 <__bss_end__+0xb6b50>
     674:	0118054a 	tsteq	r8, sl, asr #10
     678:	01062005 	tsteq	r6, r5
     67c:	052e2705 	streq	r2, [lr, #-1797]!	; 0xfffff8fb
     680:	05300603 	ldreq	r0, [r0, #-1539]!	; 0xfffff9fd
     684:	0501060b 	streq	r0, [r1, #-1547]	; 0xfffff9f5
     688:	03052e06 	movweq	r2, #24070	; 0x5e06
     68c:	4a0f0306 	bmi	3c12ac <__bss_end__+0x3b5f1c>
     690:	01060905 	tsteq	r6, r5, lsl #18
     694:	054a0605 	strbeq	r0, [sl, #-1541]	; 0xfffff9fb
     698:	054c0604 	strbeq	r0, [ip, #-1540]	; 0xfffff9fc
     69c:	2e01060d 	cfmadd32cs	mvax0, mvfx0, mvfx1, mvfx13
     6a0:	2e2e0705 	cdpcs	7, 2, cr0, cr14, cr5, {0}
     6a4:	01000602 	tsteq	r0, r2, lsl #12
     6a8:	00062f01 	andeq	r2, r6, r1, lsl #30
     6ac:	d4000300 	strle	r0, [r0], #-768	; 0xfffffd00
     6b0:	02000000 	andeq	r0, r0, #0, 0
     6b4:	0d0efb01 	vstreq	d15, [lr, #-4]
     6b8:	01010100 	mrseq	r0, (UNDEF: 17)
     6bc:	00000001 	andeq	r0, r0, r1
     6c0:	01000001 	tsteq	r0, r1
     6c4:	74706f2f 	ldrbtvc	r6, [r0], #-3887	; 0xfffff0d1
     6c8:	6d6f682f 	stclvs	8, cr6, [pc, #-188]!	; 614 <__code_start__-0x79ec>
     6cc:	65726265 	ldrbvs	r6, [r2, #-613]!	; 0xfffffd9b
     6d0:	65432f77 	strbvs	r2, [r3, #-3959]	; 0xfffff089
     6d4:	72616c6c 	rsbvc	r6, r1, #108, 24	; 0x6c00
     6d8:	6d72612f 	ldfvse	f6, [r2, #-188]!	; 0xffffff44
     6dc:	6e6f6e2d 	cdpvs	14, 6, cr6, cr15, cr13, {1}
     6e0:	61652d65 	cmnvs	r5, r5, ror #26
     6e4:	392d6962 	pushcc	{r1, r5, r6, r8, fp, sp, lr}
     6e8:	322d392f 	eorcc	r3, sp, #770048	; 0xbc000
     6ec:	71393130 	teqvc	r9, r0, lsr r1
     6f0:	73632d34 	cmnvc	r3, #52, 26	; 0xd00
     6f4:	65373031 	ldrvs	r3, [r7, #-49]!	; 0xffffffcf
     6f8:	62696c2f 	rsbvs	r6, r9, #12032	; 0x2f00
     6fc:	6363672f 	cmnvs	r3, #12320768	; 0xbc0000
     700:	6d72612f 	ldfvse	f6, [r2, #-188]!	; 0xffffff44
     704:	6e6f6e2d 	cdpvs	14, 6, cr6, cr15, cr13, {1}
     708:	61652d65 	cmnvs	r5, r5, ror #26
     70c:	392f6962 	stmdbcc	pc!, {r1, r5, r6, r8, fp, sp, lr}	; <UNPREDICTABLE>
     710:	312e322e 			; <UNDEFINED> instruction: 0x312e322e
     714:	636e692f 	cmnvs	lr, #770048	; 0xbc000
     718:	6564756c 	strbvs	r7, [r4, #-1388]!	; 0xfffffa94
     71c:	73552f00 	cmpvc	r5, #0, 30
     720:	2f737265 	svccs	0x00737265
     724:	656c696d 	strbvs	r6, [ip, #-2413]!	; 0xfffff693
     728:	6f532f73 	svcvs	0x00532f73
     72c:	65637275 	strbvs	r7, [r3, #-629]!	; 0xfffffd8b
     730:	3273632f 	rsbscc	r6, r3, #-1140850688	; 0xbc000000
     734:	786c3034 	stmdavc	ip!, {r2, r4, r5, ip, sp}^
     738:	62696c2f 	rsbvs	r6, r9, #12032	; 0x2f00
     73c:	692f6970 	stmdbvs	pc!, {r4, r5, r6, r8, fp, sp, lr}	; <UNPREDICTABLE>
     740:	756c636e 	strbvc	r6, [ip, #-878]!	; 0xfffffc92
     744:	00006564 	andeq	r6, r0, r4, ror #10
     748:	672d6b63 	strvs	r6, [sp, -r3, ror #22]!
     74c:	00632e63 	rsbeq	r2, r3, r3, ror #28
     750:	73000000 	movwvc	r0, #0
     754:	6c2d6372 	stcvs	3, cr6, [sp], #-456	; 0xfffffe38
     758:	682e636f 	stmdavs	lr!, {r0, r1, r2, r3, r5, r6, r8, r9, sp, lr}
     75c:	00000000 	andeq	r0, r0, r0
     760:	69647473 	stmdbvs	r4!, {r0, r1, r4, r5, r6, sl, ip, sp, lr}^
     764:	672d746e 	strvs	r7, [sp, -lr, ror #8]!
     768:	682e6363 	stmdavs	lr!, {r0, r1, r5, r6, r8, r9, sp, lr}
     76c:	00000100 	andeq	r0, r0, r0, lsl #2
     770:	2e697072 	mcrcs	0, 3, r7, cr9, cr2, {3}
     774:	00020068 	andeq	r0, r2, r8, rrx
     778:	616b6300 	cmnvs	fp, r0, lsl #6
     77c:	636f6c6c 	cmnvs	pc, #108, 24	; 0x6c00
     780:	0000682e 	andeq	r6, r0, lr, lsr #16
     784:	05000000 	streq	r0, [r0, #-0]
     788:	02050001 	andeq	r0, r5, #1, 0
     78c:	00008748 	andeq	r8, r0, r8, asr #14
     790:	06012b03 	streq	r2, [r1], -r3, lsl #22
     794:	06050501 	streq	r0, [r5], -r1, lsl #10
     798:	060b0568 	streq	r0, [fp], -r8, ror #10
     79c:	4a080501 	bmi	201ba8 <__bss_end__+0x1f6818>
     7a0:	02001d05 	andeq	r1, r0, #320	; 0x140
     7a4:	054a0104 	strbeq	r0, [sl, #-260]	; 0xfffffefc
     7a8:	04020018 	streq	r0, [r2], #-24	; 0xffffffe8
     7ac:	0c054a01 			; <UNDEFINED> instruction: 0x0c054a01
     7b0:	10052e4d 	andne	r2, r5, sp, asr #28
     7b4:	052e2e2c 	streq	r2, [lr, #-3628]!	; 0xfffff1d4
     7b8:	03063101 	movweq	r3, #24833	; 0x6101
     7bc:	01069e0b 	tsteq	r6, fp, lsl #28
     7c0:	83060505 	movwhi	r0, #25861	; 0x6505
     7c4:	060a0514 			; <UNDEFINED> instruction: 0x060a0514
     7c8:	2e080501 	cfsh32cs	mvfx0, mvfx8, #1
     7cc:	4c060505 	cfstr32mi	mvfx0, [r6], {5}
     7d0:	01060c05 	tsteq	r6, r5, lsl #24
     7d4:	05651005 	strbeq	r1, [r5, #-5]!
     7d8:	03063001 	movweq	r3, #24577	; 0x6001
     7dc:	0106820e 	tsteq	r6, lr, lsl #4
     7e0:	83060505 	movwhi	r0, #25861	; 0x6505
     7e4:	04020001 	streq	r0, [r2], #-1
     7e8:	02008202 	andeq	r8, r0, #536870912	; 0x20000000
     7ec:	00010204 	andeq	r0, r1, r4, lsl #4
     7f0:	15020402 	strne	r0, [r2, #-1026]	; 0xfffffbfe
     7f4:	02040200 	andeq	r0, r4, #0, 4
     7f8:	04020001 	streq	r0, [r2], #-1
     7fc:	02004a02 	andeq	r4, r0, #8192	; 0x2000
     800:	00010204 	andeq	r0, r1, r4, lsl #4
     804:	13020402 	movwne	r0, #9218	; 0x2402
     808:	02040200 	andeq	r0, r4, #0, 4
     80c:	04020001 	streq	r0, [r2], #-1
     810:	02004a01 	andeq	r4, r0, #4096	; 0x1000
     814:	00010104 	andeq	r0, r1, r4, lsl #2
     818:	06010402 	streq	r0, [r1], -r2, lsl #8
     81c:	0402009e 	streq	r0, [r2], #-158	; 0xffffff62
     820:	02002e01 	andeq	r2, r0, #1, 28
     824:	2e060104 	adfcss	f0, f6, f4
     828:	01040200 	mrseq	r0, R12_usr
     82c:	0402002a 	streq	r0, [r2], #-42	; 0xffffffd6
     830:	02000101 	andeq	r0, r0, #1073741824	; 0x40000000
     834:	9e060104 	adflss	f0, f6, f4
     838:	01040200 	mrseq	r0, R12_usr
     83c:	0402002e 	streq	r0, [r2], #-46	; 0xffffffd2
     840:	002e0601 	eoreq	r0, lr, r1, lsl #12
     844:	31010402 	tstcc	r1, r2, lsl #8
     848:	01040200 	mrseq	r0, R12_usr
     84c:	04020001 	streq	r0, [r2], #-1
     850:	009e0601 	addseq	r0, lr, r1, lsl #12
     854:	2e010402 	cdpcs	4, 0, cr0, cr1, cr2, {0}
     858:	01040200 	mrseq	r0, R12_usr
     85c:	19052e06 	stmdbne	r5, {r1, r2, r9, sl, fp, sp}
     860:	2e0d0306 	cdpcs	3, 0, cr0, cr13, cr6, {0}
     864:	004b1105 	subeq	r1, fp, r5, lsl #2
     868:	2e040402 	cdpcs	4, 0, cr0, cr4, cr2, {0}
     86c:	04040200 	streq	r0, [r4], #-512	; 0xfffffe00
     870:	14054d06 	strne	r4, [r5], #-3334	; 0xfffff2fa
     874:	04040200 	streq	r0, [r4], #-512	; 0xfffffe00
     878:	02000106 	andeq	r0, r0, #-2147483647	; 0x80000001
     87c:	054a0404 	strbeq	r0, [sl, #-1028]	; 0xfffffbfc
     880:	04020023 	streq	r0, [r2], #-35	; 0xffffffdd
     884:	72030602 	andvc	r0, r3, #2097152	; 0x200000
     888:	00240501 	eoreq	r0, r4, r1, lsl #10
     88c:	06020402 	streq	r0, [r2], -r2, lsl #8
     890:	001b0501 	andseq	r0, fp, r1, lsl #10
     894:	06010402 	streq	r0, [r1], -r2, lsl #8
     898:	0005052e 	andeq	r0, r5, lr, lsr #10
     89c:	06010402 	streq	r0, [r1], -r2, lsl #8
     8a0:	06090501 	streq	r0, [r9], -r1, lsl #10
     8a4:	0614054c 	ldreq	r0, [r4], -ip, asr #10
     8a8:	06090501 	streq	r0, [r9], -r1, lsl #10
     8ac:	060c054b 	streq	r0, [ip], -fp, asr #10
     8b0:	060d0501 	streq	r0, [sp], -r1, lsl #10
     8b4:	0629054c 	strteq	r0, [r9], -ip, asr #10
     8b8:	060d0501 	streq	r0, [sp], -r1, lsl #10
     8bc:	0616052f 	ldreq	r0, [r6], -pc, lsr #10
     8c0:	060d0501 	streq	r0, [sp], -r1, lsl #10
     8c4:	2e2e062f 	cfmadda32cs	mvax1, mvax0, mvfx14, mvfx15
     8c8:	1005bb06 	andne	fp, r5, r6, lsl #22
     8cc:	11050106 	tstne	r5, r6, lsl #2
     8d0:	1c054c06 	stcne	12, cr4, [r5], {6}
     8d4:	19050106 	stmdbne	r5, {r1, r2, r8}
     8d8:	0402002e 	streq	r0, [r2], #-46	; 0xffffffd2
     8dc:	11056604 	tstne	r5, r4, lsl #12
     8e0:	04040200 	streq	r0, [r4], #-512	; 0xfffffe00
     8e4:	2c052f06 	stccs	15, cr2, [r5], {6}
     8e8:	04040200 	streq	r0, [r4], #-512	; 0xfffffe00
     8ec:	11050106 	tstne	r5, r6, lsl #2
     8f0:	04040200 	streq	r0, [r4], #-512	; 0xfffffe00
     8f4:	15054a2e 	strne	r4, [r5, #-2606]	; 0xfffff5d2
     8f8:	4d054f06 	stcmi	15, cr4, [r5, #-24]	; 0xffffffe8
     8fc:	15050106 	strne	r0, [r5, #-262]	; 0xfffffefa
     900:	0611052e 	ldreq	r0, [r1], -lr, lsr #10
     904:	056606a3 	strbeq	r0, [r6, #-1699]!	; 0xfffff95d
     908:	064a1601 	strbeq	r1, [sl], -r1, lsl #12
     90c:	90080903 	andls	r0, r8, r3, lsl #18
     910:	05860505 	streq	r0, [r6, #1285]	; 0x505
     914:	1505010a 	strne	r0, [r5, #-266]	; 0xfffffef6
     918:	25050106 	strcs	r0, [r5, #-262]	; 0xfffffefa
     91c:	01040200 	mrseq	r0, R12_usr
     920:	05052e06 	streq	r2, [r5, #-3590]	; 0xfffff1fa
     924:	01040200 	mrseq	r0, R12_usr
     928:	09050106 	stmdbeq	r5, {r1, r2, r8}
     92c:	03040200 	movweq	r0, #16896	; 0x4200
     930:	32054c06 	andcc	r4, r5, #1536	; 0x600
     934:	03040200 	movweq	r0, #16896	; 0x4200
     938:	21050106 	tstcs	r5, r6, lsl #2
     93c:	03040200 	movweq	r0, #16896	; 0x4200
     940:	0011054a 	andseq	r0, r1, sl, asr #10
     944:	2e030402 	cdpcs	4, 0, cr0, cr3, cr2, {0}
     948:	02002805 	andeq	r2, r0, #327680	; 0x50000
     94c:	2c060304 	stccs	3, cr0, [r6], {4}
     950:	02002c05 	andeq	r2, r0, #1280	; 0x500
     954:	01060304 	tsteq	r6, r4, lsl #6
     958:	03040200 	movweq	r0, #16896	; 0x4200
     95c:	0402002e 	streq	r0, [r2], #-46	; 0xffffffd2
     960:	05052e03 	streq	r2, [r5, #-3587]	; 0xfffff1fd
     964:	06131906 	ldreq	r1, [r3], -r6, lsl #18
     968:	0530062e 	ldreq	r0, [r0, #-1582]!	; 0xfffff9d2
     96c:	0501060d 	streq	r0, [r1, #-1549]	; 0xfffff9f3
     970:	054b0605 	strbeq	r0, [fp, #-1541]	; 0xfffff9fb
     974:	0501060d 	streq	r0, [r1, #-1549]	; 0xfffff9f3
     978:	052f0605 	streq	r0, [pc, #-1541]!	; 37b <__code_start__-0x7c85>
     97c:	0501060d 	streq	r0, [r1, #-1549]	; 0xfffff9f3
     980:	052f0605 	streq	r0, [pc, #-1541]!	; 383 <__code_start__-0x7c7d>
     984:	0501060d 	streq	r0, [r1, #-1549]	; 0xfffff9f3
     988:	6a350605 	bvs	d421a4 <__bss_end__+0xd36e14>
     98c:	13698313 	cmnne	r9, #1275068416	; 0x4c000000
     990:	01051368 	tsteq	r5, r8, ror #6
     994:	03066706 	movweq	r6, #26374	; 0x6706
     998:	06580823 	ldrbeq	r0, [r8], -r3, lsr #16
     99c:	06050501 	streq	r0, [r5], -r1, lsl #10
     9a0:	2e061383 	cdpcs	3, 0, cr1, cr6, cr3, {4}
     9a4:	2f4c2f06 	svccs	0x004c2f06
     9a8:	05010a05 	streq	r0, [r1, #-2565]	; 0xfffff5fb
     9ac:	4a010615 	bmi	42208 <__bss_end__+0x36e78>
     9b0:	050d2705 	streq	r2, [sp, #-1797]	; 0xfffff8fb
     9b4:	0e052e1b 	mcreq	14, 0, r2, cr5, cr11, {0}
     9b8:	3305052e 	movwcc	r0, #21806	; 0x552e
     9bc:	33060d05 	movwcc	r0, #27909	; 0x6d05
     9c0:	01061305 	tsteq	r6, r5, lsl #6
     9c4:	2f060d05 	svccs	0x00060d05
     9c8:	28056606 	stmdacs	r5, {r1, r2, r9, sl, sp, lr}
     9cc:	02040200 	andeq	r0, r4, #0, 4
     9d0:	2e7a0306 	cdpcs	3, 7, cr0, cr10, cr6, {0}
     9d4:	02002c05 	andeq	r2, r0, #1280	; 0x500
     9d8:	01060204 	tsteq	r6, r4, lsl #4
     9dc:	02002505 	andeq	r2, r0, #20971520	; 0x1400000
     9e0:	66060104 	strvs	r0, [r6], -r4, lsl #2
     9e4:	02000505 	andeq	r0, r0, #20971520	; 0x1400000
     9e8:	01060104 	tsteq	r6, r4, lsl #2
     9ec:	4c060905 			; <UNDEFINED> instruction: 0x4c060905
     9f0:	01061005 	tsteq	r6, r5
     9f4:	2f060905 	svccs	0x00060905
     9f8:	01060e05 	tsteq	r6, r5, lsl #28
     9fc:	052e0c05 	streq	r0, [lr, #-3077]!	; 0xfffff3fb
     a00:	054f060e 	strbeq	r0, [pc, #-1550]	; 3fa <__code_start__-0x7c06>
     a04:	05010611 	streq	r0, [r1, #-1553]	; 0xfffff9ef
     a08:	054c060d 	strbeq	r0, [ip, #-1549]	; 0xfffff9f3
     a0c:	05010619 	streq	r0, [r1, #-1561]	; 0xfffff9e7
     a10:	062f060d 	strteq	r0, [pc], -sp, lsl #12
     a14:	052e2e66 	streq	r2, [lr, #-3686]!	; 0xfffff19a
     a18:	01160605 	tsteq	r6, r5, lsl #12
     a1c:	2e064a06 	vmlacs.f32	s8, s12, s12
     a20:	06080513 			; <UNDEFINED> instruction: 0x06080513
     a24:	06090501 	streq	r0, [r9], -r1, lsl #10
     a28:	004a014b 	subeq	r0, sl, fp, asr #2
     a2c:	14010402 	strne	r0, [r1], #-1026	; 0xfffffbfe
     a30:	02000505 	andeq	r0, r0, #20971520	; 0x1400000
     a34:	00140104 	andseq	r0, r4, r4, lsl #2
     a38:	4b010402 	blmi	41a48 <__bss_end__+0x366b8>
     a3c:	02000805 	andeq	r0, r0, #327680	; 0x50000
     a40:	01060104 	tsteq	r6, r4, lsl #2
     a44:	30060905 	andcc	r0, r6, r5, lsl #18
     a48:	01061705 	tsteq	r6, r5, lsl #14
     a4c:	05340105 	ldreq	r0, [r4, #-261]!	; 0xfffffefb
     a50:	75030609 	strvc	r0, [r3, #-1545]	; 0xfffff9f7
     a54:	0105014a 	tsteq	r5, sl, asr #2
     a58:	22023503 	andcs	r3, r2, #12582912	; 0xc00000
     a5c:	83050501 	movwhi	r0, #21761	; 0x5501
     a60:	2f4c4b13 	svccs	0x004c4b13
     a64:	05010a05 	streq	r0, [r1, #-2565]	; 0xfffff5fb
     a68:	4a010615 	bmi	422c4 <__bss_end__+0x36f34>
     a6c:	050d2705 	streq	r2, [sp, #-1797]	; 0xfffff8fb
     a70:	0e052e1b 	mcreq	14, 0, r2, cr5, cr11, {0}
     a74:	3305052e 	movwcc	r0, #21806	; 0x552e
     a78:	33060d05 	movwcc	r0, #27909	; 0x6d05
     a7c:	01061305 	tsteq	r6, r5, lsl #6
     a80:	2f060d05 	svccs	0x00060d05
     a84:	01061e05 	tsteq	r6, r5, lsl #28
     a88:	052e1a05 	streq	r1, [lr, #-2565]!	; 0xfffff5fb
     a8c:	042f060d 	strteq	r0, [pc], #-1549	; a94 <__code_start__-0x756c>
     a90:	030b0502 	movweq	r0, #46338	; 0xb502
     a94:	052e7def 	streq	r7, [lr, #-3567]!	; 0xfffff211
     a98:	0c051305 	stceq	3, cr1, [r5], {5}
     a9c:	04ba0106 	ldrteq	r0, [sl], #262	; 0x106
     aa0:	030d0501 	movweq	r0, #54529	; 0xd501
     aa4:	66010290 			; <UNDEFINED> instruction: 0x66010290
     aa8:	28052f06 	stmdacs	r5, {r1, r2, r8, r9, sl, fp, sp}
     aac:	02040200 	andeq	r0, r4, #0, 4
     ab0:	05667803 	strbeq	r7, [r6, #-2051]!	; 0xfffff7fd
     ab4:	0402002c 	streq	r0, [r2], #-44	; 0xffffffd4
     ab8:	05010602 	streq	r0, [r1, #-1538]	; 0xfffff9fe
     abc:	04020025 	streq	r0, [r2], #-37	; 0xffffffdb
     ac0:	05660601 	strbeq	r0, [r6, #-1537]!	; 0xfffff9ff
     ac4:	04020005 	streq	r0, [r2], #-5
     ac8:	05010601 	streq	r0, [r1, #-1537]	; 0xfffff9ff
     acc:	054c0609 	strbeq	r0, [ip, #-1545]	; 0xfffff9f7
     ad0:	05010610 	streq	r0, [r1, #-1552]	; 0xfffff9f0
     ad4:	052f0609 	streq	r0, [pc, #-1545]!	; 4d3 <__code_start__-0x7b2d>
     ad8:	0501060e 	streq	r0, [r1, #-1550]	; 0xfffff9f2
     adc:	05662e0c 	strbeq	r2, [r6, #-3596]!	; 0xfffff1f4
     ae0:	09030605 	stmdbeq	r3, {r0, r2, r9, sl}
     ae4:	82060101 	andhi	r0, r6, #1073741824	; 0x40000000
     ae8:	05142e06 	ldreq	r2, [r4, #-3590]	; 0xfffff1fa
     aec:	66130601 	ldrvs	r0, [r3], -r1, lsl #12
     af0:	7dee0306 	stclvc	3, cr0, [lr, #24]!
     af4:	01063c08 	tsteq	r6, r8, lsl #24
     af8:	83060505 	movwhi	r0, #25861	; 0x6505
     afc:	02000114 	andeq	r0, r0, #5
     b00:	004a0204 	subeq	r0, sl, r4, lsl #4
     b04:	01020402 	tsteq	r2, r2, lsl #8
     b08:	02040200 	andeq	r0, r4, #0, 4
     b0c:	00090513 	andeq	r0, r9, r3, lsl r5
     b10:	06020402 	streq	r0, [r2], -r2, lsl #8
     b14:	00080501 	andeq	r0, r8, r1, lsl #10
     b18:	4a020402 	bmi	81b28 <__bss_end__+0x76798>
     b1c:	4b060905 	blmi	182f38 <__bss_end__+0x177ba8>
     b20:	14051315 	strne	r1, [r5], #-789	; 0xfffffceb
     b24:	054a0106 	strbeq	r0, [sl, #-262]	; 0xfffffefa
     b28:	052f0609 	streq	r0, [pc, #-1545]!	; 527 <__code_start__-0x7ad9>
     b2c:	05010612 	streq	r0, [r1, #-1554]	; 0xfffff9ee
     b30:	4b4b0609 	blmi	12c235c <__bss_end__+0x12b6fcc>
     b34:	01061005 	tsteq	r6, r5
     b38:	4c060505 	cfstr32mi	mvfx0, [r6], {5}
     b3c:	01060c05 	tsteq	r6, r5, lsl #24
     b40:	054b0105 	strbeq	r0, [fp, #-261]	; 0xfffffefb
     b44:	04020005 	streq	r0, [r2], #-5
     b48:	74030601 	strvc	r0, [r3], #-1537	; 0xfffff9ff
     b4c:	0402004a 	streq	r0, [r2], #-74	; 0xffffffb6
     b50:	02000101 	andeq	r0, r0, #1073741824	; 0x40000000
     b54:	ba060104 	blt	180f6c <__bss_end__+0x175bdc>
     b58:	01040200 	mrseq	r0, R12_usr
     b5c:	09052e06 	stmdbeq	r5, {r1, r2, r9, sl, fp, sp}
     b60:	82060130 	andhi	r0, r6, #12
     b64:	38052e06 	stmdacc	r5, {r1, r2, r9, sl, fp, sp}
     b68:	08018903 	stmdaeq	r1, {r0, r1, r8, fp, pc}
     b6c:	05010674 	streq	r0, [r1, #-1652]	; 0xfffff98c
     b70:	13830605 	orrne	r0, r3, #5242880	; 0x500000
     b74:	05010a05 	streq	r0, [r1, #-2565]	; 0xfffff5fb
     b78:	0501060e 	streq	r0, [r1, #-1550]	; 0xfffff9f2
     b7c:	05052d09 	streq	r2, [r5, #-3337]	; 0xfffff2f7
     b80:	060d052f 	streq	r0, [sp], -pc, lsr #10
     b84:	06120530 			; <UNDEFINED> instruction: 0x06120530
     b88:	00210501 	eoreq	r0, r1, r1, lsl #10
     b8c:	06020402 	streq	r0, [r2], -r2, lsl #8
     b90:	0022052c 	eoreq	r0, r2, ip, lsr #10
     b94:	06020402 	streq	r0, [r2], -r2, lsl #8
     b98:	00150501 	andseq	r0, r5, r1, lsl #10
     b9c:	06010402 	streq	r0, [r1], -r2, lsl #8
     ba0:	0005052e 	andeq	r0, r5, lr, lsr #10
     ba4:	06010402 	streq	r0, [r1], -r2, lsl #8
     ba8:	06090501 	streq	r0, [r9], -r1, lsl #10
     bac:	0614054b 	ldreq	r0, [r4], -fp, asr #10
     bb0:	2e0c0501 	cfsh32cs	mvfx0, mvfx12, #1
     bb4:	f9061605 			; <UNDEFINED> instruction: 0xf9061605
     bb8:	13670505 	cmnne	r7, #20971520	; 0x1400000
     bbc:	05010a05 	streq	r0, [r1, #-2565]	; 0xfffff5fb
     bc0:	4a010615 	bmi	4241c <__bss_end__+0x3708c>
     bc4:	05110905 	ldreq	r0, [r1, #-2309]	; 0xfffff6fb
     bc8:	11052f05 	tstne	r5, r5, lsl #30
     bcc:	2e090306 	cdpcs	3, 0, cr0, cr9, cr6, {0}
     bd0:	06820601 	streq	r0, [r2], r1, lsl #12
     bd4:	0402002e 	streq	r0, [r2], #-46	; 0xffffffd2
     bd8:	09054a01 	stmdbeq	r5, {r0, r9, fp, lr}
     bdc:	01040200 	mrseq	r0, R12_usr
     be0:	00100515 	andseq	r0, r0, r5, lsl r5
     be4:	06010402 	streq	r0, [r1], -r2, lsl #8
     be8:	04020001 	streq	r0, [r2], #-1
     bec:	28052e01 	stmdacs	r5, {r0, r9, sl, fp, sp}
     bf0:	01040200 	mrseq	r0, R12_usr
     bf4:	01740306 	cmneq	r4, r6, lsl #6
     bf8:	02002c05 	andeq	r2, r0, #1280	; 0x500
     bfc:	01060104 	tsteq	r6, r4, lsl #2
     c00:	02002505 	andeq	r2, r0, #20971520	; 0x1400000
     c04:	66060204 	strvs	r0, [r6], -r4, lsl #4
     c08:	02000505 	andeq	r0, r0, #20971520	; 0x1400000
     c0c:	01060204 	tsteq	r6, r4, lsl #4
     c10:	4b060905 	blmi	18302c <__bss_end__+0x177c9c>
     c14:	061e0513 			; <UNDEFINED> instruction: 0x061e0513
     c18:	09054a01 	stmdbeq	r5, {r0, r9, fp, lr}
     c1c:	37054b06 	strcc	r4, [r5, -r6, lsl #22]
     c20:	3f050106 	svccc	0x00050106
     c24:	2e1e052e 	cfmul64cs	mvdx0, mvdx14, mvdx14
     c28:	05821b05 	streq	r1, [r2, #2821]	; 0xb05
     c2c:	012f0609 			; <UNDEFINED> instruction: 0x012f0609
     c30:	05134a9e 	ldreq	r4, [r3, #-2718]	; 0xfffff562
     c34:	0501060e 	streq	r0, [r1, #-1550]	; 0xfffff9f2
     c38:	0d052e0c 	stceq	14, cr2, [r5, #-48]	; 0xffffffd0
     c3c:	15054b06 	strne	r4, [r5, #-2822]	; 0xfffff4fa
     c40:	0d050106 	stfeqs	f0, [r5, #-24]	; 0xffffffe8
     c44:	1f056706 	svcne	0x00056706
     c48:	0d050106 	stfeqs	f0, [r5, #-24]	; 0xffffffe8
     c4c:	10052f06 	andne	r2, r5, r6, lsl #30
     c50:	05660106 	strbeq	r0, [r6, #-262]!	; 0xfffffefa
     c54:	05180605 	ldreq	r0, [r8, #-1541]	; 0xfffff9fb
     c58:	2e130601 	cfmsub32cs	mvax0, mvfx0, mvfx3, mvfx1
     c5c:	082f0306 	stmdaeq	pc!, {r1, r2, r8, r9}	; <UNPREDICTABLE>
     c60:	05010620 	streq	r0, [r1, #-1568]	; 0xfffff9e0
     c64:	05680605 	strbeq	r0, [r8, #-1541]!	; 0xfffff9fb
     c68:	0501060c 	streq	r0, [r1, #-1548]	; 0xfffff9f4
     c6c:	be062f01 	cdplt	15, 0, cr2, cr6, cr1, {0}
     c70:	136a0505 	cmnne	sl, #20971520	; 0x1400000
     c74:	01060905 	tsteq	r6, r5, lsl #18
     c78:	054a0805 	strbeq	r0, [sl, #-2053]	; 0xfffff7fb
     c7c:	144b0609 	strbne	r0, [fp], #-1545	; 0xfffff9f7
     c80:	05054a01 	streq	r4, [r5, #-2561]	; 0xfffff5ff
     c84:	06010513 			; <UNDEFINED> instruction: 0x06010513
     c88:	06090513 			; <UNDEFINED> instruction: 0x06090513
     c8c:	059e012a 	ldreq	r0, [lr, #298]	; 0x12a
     c90:	05600801 	strbeq	r0, [r0, #-2049]!	; 0xfffff7ff
     c94:	05136a05 	ldreq	r6, [r3, #-2565]	; 0xfffff5fb
     c98:	05010617 	streq	r0, [r1, #-1559]	; 0xfffff9e9
     c9c:	054b0605 	strbeq	r0, [fp, #-1541]	; 0xfffff9fb
     ca0:	05010608 	streq	r0, [r1, #-1544]	; 0xfffff9f8
     ca4:	144b0609 	strbne	r0, [fp], #-1545	; 0xfffff9f7
     ca8:	064a0601 	strbeq	r0, [sl], -r1, lsl #12
     cac:	1305052e 	movwne	r0, #21806	; 0x552e
     cb0:	06010513 			; <UNDEFINED> instruction: 0x06010513
     cb4:	06090513 			; <UNDEFINED> instruction: 0x06090513
     cb8:	059e0145 	ldreq	r0, [lr, #325]	; 0x145
     cbc:	f2210301 	vcgt.s32	d0, d1, d1
     cc0:	2f670505 	svccs	0x00670505
     cc4:	01061705 	tsteq	r6, r5, lsl #14
     cc8:	32060505 	andcc	r0, r6, #20971520	; 0x1400000
     ccc:	13060105 	movwne	r0, #24837	; 0x6105
     cd0:	0505bd06 	streq	fp, [r5, #-3334]	; 0xfffff2fa
     cd4:	029e0167 	addseq	r0, lr, #-1073741799	; 0xc0000019
     cd8:	01010008 	tsteq	r1, r8
     cdc:	00000136 	andeq	r0, r0, r6, lsr r1
     ce0:	005b0003 	subseq	r0, fp, r3
     ce4:	01020000 	mrseq	r0, (UNDEF: 2)
     ce8:	000d0efb 	strdeq	r0, [sp], -fp
     cec:	01010101 	tsteq	r1, r1, lsl #2
     cf0:	01000000 	mrseq	r0, (UNDEF: 0)
     cf4:	2e010000 	cdpcs	0, 0, cr0, cr1, cr0, {0}
     cf8:	6372732f 	cmnvs	r2, #-1140850688	; 0xbc000000
     cfc:	73552f00 	cmpvc	r5, #0, 30
     d00:	2f737265 	svccs	0x00737265
     d04:	656c696d 	strbvs	r6, [ip, #-2413]!	; 0xfffff693
     d08:	6f532f73 	svcvs	0x00532f73
     d0c:	65637275 	strbvs	r7, [r3, #-629]!	; 0xfffffd8b
     d10:	3273632f 	rsbscc	r6, r3, #-1140850688	; 0xbc000000
     d14:	786c3034 	stmdavc	ip!, {r2, r4, r5, ip, sp}^
     d18:	62696c2f 	rsbvs	r6, r9, #12032	; 0x2f00
     d1c:	692f6970 	stmdbvs	pc!, {r4, r5, r6, r8, fp, sp, lr}	; <UNPREDICTABLE>
     d20:	756c636e 	strbvc	r6, [ip, #-878]!	; 0xfffffc92
     d24:	00006564 	andeq	r6, r0, r4, ror #10
     d28:	6b636162 	blvs	18d92b8 <__bss_end__+0x18cdf28>
     d2c:	63617274 	cmnvs	r1, #116, 4	; 0x40000007
     d30:	00632e65 	rsbeq	r2, r3, r5, ror #28
     d34:	72000001 	andvc	r0, r0, #1, 0
     d38:	682e6970 	stmdavs	lr!, {r4, r5, r6, r8, fp, sp, lr}
     d3c:	00000200 	andeq	r0, r0, r0, lsl #4
     d40:	00110500 	andseq	r0, r1, r0, lsl #10
     d44:	8f600205 	svchi	0x00600205
     d48:	1c030000 	stcne	0, cr0, [r3], {-0}
     d4c:	13050501 	movwne	r0, #21761	; 0x5501
     d50:	06110513 			; <UNDEFINED> instruction: 0x06110513
     d54:	30050510 	andcc	r0, r5, r0, lsl r5
     d58:	0a053006 	beq	14cd78 <__bss_end__+0x1419e8>
     d5c:	01150501 	tsteq	r5, r1, lsl #10
     d60:	01060505 	tsteq	r6, r5, lsl #10
     d64:	054a0e05 	strbeq	r0, [sl, #-3589]	; 0xfffff1fb
     d68:	2e270310 	mcrcs	3, 1, r0, cr7, cr0, {0}
     d6c:	5b030905 	blpl	c3188 <__bss_end__+0xb7df8>
     d70:	2f054a2e 	svccs	0x00054a2e
     d74:	02040200 	andeq	r0, r4, #0, 4
     d78:	00150510 	andseq	r0, r5, r0, lsl r5
     d7c:	06020402 	streq	r0, [r2], -r2, lsl #8
     d80:	0005052e 	andeq	r0, r5, lr, lsr #10
     d84:	06020402 	streq	r0, [r2], -r2, lsl #8
     d88:	06090501 	streq	r0, [r9], -r1, lsl #10
     d8c:	0123034b 			; <UNDEFINED> instruction: 0x0123034b
     d90:	03061705 	movweq	r1, #26373	; 0x6705
     d94:	0905015d 	stmdbeq	r5, {r0, r2, r3, r4, r6, r8}
     d98:	030e052f 	movweq	r0, #58671	; 0xe52f
     d9c:	09052e20 	stmdbeq	r5, {r5, r9, sl, fp, sp}
     da0:	12053106 	andne	r3, r5, #-2147483647	; 0x80000001
     da4:	015c0306 	cmpeq	ip, r6, lsl #6
     da8:	2f060905 	svccs	0x00060905
     dac:	1f030d05 	svcne	0x00030d05
     db0:	13050501 	movwne	r0, #21761	; 0x5501
     db4:	06080513 			; <UNDEFINED> instruction: 0x06080513
     db8:	2d310501 	cfldr32cs	mvfx0, [r1, #-4]!
     dbc:	05301205 	ldreq	r1, [r0, #-517]!	; 0xfffffdfb
     dc0:	052e2f31 	streq	r2, [lr, #-3889]!	; 0xfffff0cf
     dc4:	052e1410 	streq	r1, [lr, #-1040]!	; 0xfffffbf0
     dc8:	015b0309 	cmpeq	fp, r9, lsl #6
     dcc:	2e054b06 	vmlacs.f64	d4, d5, d6
     dd0:	061f050f 	ldreq	r0, [pc], -pc, lsl #10
     dd4:	06090515 			; <UNDEFINED> instruction: 0x06090515
     dd8:	060c052f 	streq	r0, [ip], -pc, lsr #10
     ddc:	50010501 	andpl	r0, r1, r1, lsl #10
     de0:	05490c05 	strbeq	r0, [r9, #-3077]	; 0xfffff3fb
     de4:	2d052f01 	stccs	15, cr2, [r5, #-4]
     de8:	82170306 	andshi	r0, r7, #402653184	; 0x18000000
     dec:	05130505 	ldreq	r0, [r3, #-1285]	; 0xfffffafb
     df0:	0501060e 	streq	r0, [r1, #-1550]	; 0xfffff9f2
     df4:	052f0605 	streq	r0, [pc, #-1541]!	; 7f7 <__code_start__-0x7809>
     df8:	05110631 	ldreq	r0, [r1, #-1585]	; 0xfffff9cf
     dfc:	09052f08 	stmdbeq	r5, {r3, r8, r9, sl, fp, sp}
     e00:	05132f06 	ldreq	r2, [r3, #-3846]	; 0xfffff0fa
     e04:	05110612 	ldreq	r0, [r1, #-1554]	; 0xfffff9ee
     e08:	052e2f31 	streq	r2, [lr, #-3889]!	; 0xfffff0cf
     e0c:	01051410 	tsteq	r5, r0, lsl r4
     e10:	00040230 	andeq	r0, r4, r0, lsr r2
     e14:	01210101 			; <UNDEFINED> instruction: 0x01210101
     e18:	00030000 	andeq	r0, r3, r0
     e1c:	000000be 	strheq	r0, [r0], -lr
     e20:	0efb0102 	cdpeq	1, 15, cr0, cr11, cr2, {0}
     e24:	0101000d 	tsteq	r1, sp
     e28:	00000101 	andeq	r0, r0, r1, lsl #2
     e2c:	00000100 	andeq	r0, r0, r0, lsl #2
     e30:	6c2f2e01 	stcvs	14, cr2, [pc], #-4	; e34 <__code_start__-0x71cc>
     e34:	00636269 	rsbeq	r6, r3, r9, ror #4
     e38:	6573552f 	ldrbvs	r5, [r3, #-1327]!	; 0xfffffad1
     e3c:	6d2f7372 	stcvs	3, cr7, [pc, #-456]!	; c7c <__code_start__-0x7384>
     e40:	73656c69 	cmnvc	r5, #26880	; 0x6900
     e44:	756f532f 	strbvc	r5, [pc, #-815]!	; b1d <__code_start__-0x74e3>
     e48:	2f656372 	svccs	0x00656372
     e4c:	34327363 	ldrtcc	r7, [r2], #-867	; 0xfffffc9d
     e50:	2f786c30 	svccs	0x00786c30
     e54:	7062696c 	rsbvc	r6, r2, ip, ror #18
     e58:	6e692f69 	cdpvs	15, 6, cr2, cr9, cr9, {3}
     e5c:	64756c63 	ldrbtvs	r6, [r5], #-3171	; 0xfffff39d
     e60:	6f2f0065 	svcvs	0x002f0065
     e64:	682f7470 	stmdavs	pc!, {r4, r5, r6, sl, ip, sp, lr}	; <UNPREDICTABLE>
     e68:	62656d6f 	rsbvs	r6, r5, #7104	; 0x1bc0
     e6c:	2f776572 	svccs	0x00776572
     e70:	6c6c6543 	cfstr64vs	mvdx6, [ip], #-268	; 0xfffffef4
     e74:	612f7261 			; <UNDEFINED> instruction: 0x612f7261
     e78:	6e2d6d72 	mcrvs	13, 1, r6, cr13, cr2, {3}
     e7c:	2d656e6f 	stclcs	14, cr6, [r5, #-444]!	; 0xfffffe44
     e80:	69626165 	stmdbvs	r2!, {r0, r2, r5, r6, r8, sp, lr}^
     e84:	392f392d 	stmdbcc	pc!, {r0, r2, r3, r5, r8, fp, ip, sp}	; <UNPREDICTABLE>
     e88:	3130322d 	teqcc	r0, sp, lsr #4
     e8c:	2d347139 	ldfcss	f7, [r4, #-228]!	; 0xffffff1c
     e90:	30317363 	eorscc	r7, r1, r3, ror #6
     e94:	6c2f6537 	cfstr32vs	mvfx6, [pc], #-220	; dc0 <__code_start__-0x7240>
     e98:	672f6269 	strvs	r6, [pc, -r9, ror #4]!
     e9c:	612f6363 			; <UNDEFINED> instruction: 0x612f6363
     ea0:	6e2d6d72 	mcrvs	13, 1, r6, cr13, cr2, {3}
     ea4:	2d656e6f 	stclcs	14, cr6, [r5, #-444]!	; 0xfffffe44
     ea8:	69626165 	stmdbvs	r2!, {r0, r2, r5, r6, r8, sp, lr}^
     eac:	322e392f 	eorcc	r3, lr, #770048	; 0xbc000
     eb0:	692f312e 	stmdbvs	pc!, {r1, r2, r3, r5, r8, ip, sp}	; <UNPREDICTABLE>
     eb4:	756c636e 	strbvc	r6, [ip, #-878]!	; 0xfffffc92
     eb8:	00006564 	andeq	r6, r0, r4, ror #10
     ebc:	736d656d 	cmnvc	sp, #457179136	; 0x1b400000
     ec0:	632e7465 			; <UNDEFINED> instruction: 0x632e7465
     ec4:	00000100 	andeq	r0, r0, r0, lsl #2
     ec8:	2e697072 	mcrcs	0, 3, r7, cr9, cr2, {3}
     ecc:	00020068 	andeq	r0, r2, r8, rrx
     ed0:	64747300 	ldrbtvs	r7, [r4], #-768	; 0xfffffd00
     ed4:	2e666564 	cdpcs	5, 6, cr6, cr6, cr4, {3}
     ed8:	00030068 	andeq	r0, r3, r8, rrx
     edc:	29050000 	stmdbcs	r5, {}	; <UNPREDICTABLE>
     ee0:	00020500 	andeq	r0, r2, r0, lsl #10
     ee4:	15000090 	strne	r0, [r0, #-144]	; 0xffffff70
     ee8:	05130505 	ldreq	r0, [r3, #-1285]	; 0xfffffafb
     eec:	05110629 	ldreq	r0, [r1, #-1577]	; 0xfffff9d7
     ef0:	05052f14 	streq	r2, [r5, #-3860]	; 0xfffff0ec
     ef4:	0a053006 	beq	14cf14 <__bss_end__+0x141b84>
     ef8:	059e0601 	ldreq	r0, [lr, #1537]	; 0x601
     efc:	05d70609 	ldrbeq	r0, [r7, #1545]	; 0x609
     f00:	0501060e 	streq	r0, [r1, #-1550]	; 0xfffff9f2
     f04:	052d060a 	streq	r0, [sp, #-1546]!	; 0xfffff9f6
     f08:	0e05bb09 	vmlaeq.f64	d11, d5, d9
     f0c:	052e0106 	streq	r0, [lr, #-262]!	; 0xfffffefa
     f10:	052d060a 	streq	r0, [sp, #-1546]!	; 0xfffff9f6
     f14:	0b054b09 	bleq	153b40 <__bss_end__+0x1487b0>
     f18:	0a050106 	beq	141338 <__bss_end__+0x135fa8>
     f1c:	2f0e052d 	svccs	0x000e052d
     f20:	2d060a05 	vstrcs	s0, [r6, #-20]	; 0xffffffec
     f24:	13060e05 	movwne	r0, #28165	; 0x6e05
     f28:	2e060905 	vmlacs.f16	s0, s12, s10	; <UNPREDICTABLE>
     f2c:	05110a05 	ldreq	r0, [r1, #-2565]	; 0xfffff5fb
     f30:	01051405 	tsteq	r5, r5, lsl #8
     f34:	02021306 	andeq	r1, r2, #402653184	; 0x18000000
     f38:	20010100 	andcs	r0, r1, r0, lsl #2
     f3c:	03000001 	movweq	r0, #1
     f40:	0000db00 	andeq	sp, r0, r0, lsl #22
     f44:	fb010200 	blx	4174e <__bss_end__+0x363be>
     f48:	01000d0e 	tsteq	r0, lr, lsl #26
     f4c:	00010101 	andeq	r0, r1, r1, lsl #2
     f50:	00010000 	andeq	r0, r1, r0
     f54:	2f2e0100 	svccs	0x002e0100
     f58:	6362696c 	cmnvs	r2, #108, 18	; 0x1b0000
     f5c:	706f2f00 	rsbvc	r2, pc, r0, lsl #30
     f60:	6f682f74 	svcvs	0x00682f74
     f64:	7262656d 	rsbvc	r6, r2, #457179136	; 0x1b400000
     f68:	432f7765 			; <UNDEFINED> instruction: 0x432f7765
     f6c:	616c6c65 	cmnvs	ip, r5, ror #24
     f70:	72612f72 	rsbvc	r2, r1, #456	; 0x1c8
     f74:	6f6e2d6d 	svcvs	0x006e2d6d
     f78:	652d656e 	strvs	r6, [sp, #-1390]!	; 0xfffffa92
     f7c:	2d696261 	sfmcs	f6, 2, [r9, #-388]!	; 0xfffffe7c
     f80:	2d392f39 	ldccs	15, cr2, [r9, #-228]!	; 0xffffff1c
     f84:	39313032 	ldmdbcc	r1!, {r1, r4, r5, ip, sp}
     f88:	632d3471 			; <UNDEFINED> instruction: 0x632d3471
     f8c:	37303173 			; <UNDEFINED> instruction: 0x37303173
     f90:	696c2f65 	stmdbvs	ip!, {r0, r2, r5, r6, r8, r9, sl, fp, sp}^
     f94:	63672f62 	cmnvs	r7, #392	; 0x188
     f98:	72612f63 	rsbvc	r2, r1, #396	; 0x18c
     f9c:	6f6e2d6d 	svcvs	0x006e2d6d
     fa0:	652d656e 	strvs	r6, [sp, #-1390]!	; 0xfffffa92
     fa4:	2f696261 	svccs	0x00696261
     fa8:	2e322e39 	mrccs	14, 1, r2, cr2, cr9, {1}
     fac:	6e692f31 	mcrvs	15, 3, r2, cr9, cr1, {1}
     fb0:	64756c63 	ldrbtvs	r6, [r5], #-3171	; 0xfffff39d
     fb4:	552f0065 	strpl	r0, [pc, #-101]!	; f57 <__code_start__-0x70a9>
     fb8:	73726573 	cmnvc	r2, #482344960	; 0x1cc00000
     fbc:	6c696d2f 	stclvs	13, cr6, [r9], #-188	; 0xffffff44
     fc0:	532f7365 			; <UNDEFINED> instruction: 0x532f7365
     fc4:	6372756f 	cmnvs	r2, #465567744	; 0x1bc00000
     fc8:	73632f65 	cmnvc	r3, #404	; 0x194
     fcc:	6c303432 	cfldrsvs	mvf3, [r0], #-200	; 0xffffff38
     fd0:	696c2f78 	stmdbvs	ip!, {r3, r4, r5, r6, r8, r9, sl, fp, sp}^
     fd4:	2f697062 	svccs	0x00697062
     fd8:	6c636e69 	stclvs	14, cr6, [r3], #-420	; 0xfffffe5c
     fdc:	00656475 	rsbeq	r6, r5, r5, ror r4
     fe0:	69727000 	ldmdbvs	r2!, {ip, sp, lr}^
     fe4:	2e6b746e 	cdpcs	4, 6, cr7, cr11, cr14, {3}
     fe8:	00010063 	andeq	r0, r1, r3, rrx
     fec:	64747300 	ldrbtvs	r7, [r4], #-768	; 0xfffffd00
     ff0:	2e677261 	cdpcs	2, 6, cr7, cr7, cr1, {3}
     ff4:	00020068 	andeq	r0, r2, r8, rrx
     ff8:	69707200 	ldmdbvs	r0!, {r9, ip, sp, lr}^
     ffc:	0300682e 	movweq	r6, #2094	; 0x82e
    1000:	623c0000 	eorsvs	r0, ip, #0, 0
    1004:	746c6975 	strbtvc	r6, [ip], #-2421	; 0xfffff68b
    1008:	3e6e692d 	vmulcc.f16	s13, s28, s27	; <UNPREDICTABLE>
    100c:	00000000 	andeq	r0, r0, r0
    1010:	702d6176 	eorvc	r6, sp, r6, ror r1
    1014:	746e6972 	strbtvc	r6, [lr], #-2418	; 0xfffff68e
    1018:	00682e6b 	rsbeq	r2, r8, fp, ror #28
    101c:	00000001 	andeq	r0, r0, r1
    1020:	05002205 	streq	r2, [r0, #-517]	; 0xfffffdfb
    1024:	00907802 	addseq	r7, r0, r2, lsl #16
    1028:	05051700 	streq	r1, [r5, #-1792]	; 0xfffff900
    102c:	05141314 	ldreq	r1, [r4, #-788]	; 0xfffffcec
    1030:	050d0622 	streq	r0, [sp, #-1570]	; 0xfffff9de
    1034:	22055012 	andcs	r5, r5, #18, 0
    1038:	052e7a03 	streq	r7, [lr, #-2563]!	; 0xfffff5fd
    103c:	12053305 	andne	r3, r5, #335544320	; 0x14000000
    1040:	6505052f 	strvs	r0, [r5, #-1327]	; 0xfffffad1
    1044:	2f060905 	svccs	0x00060905
    1048:	01061205 	tsteq	r6, r5, lsl #4
    104c:	4b060505 	blmi	182468 <__bss_end__+0x1770d8>
    1050:	064a0616 			; <UNDEFINED> instruction: 0x064a0616
    1054:	06010550 			; <UNDEFINED> instruction: 0x06010550
    1058:	08026613 	stmdaeq	r2, {r0, r1, r4, r9, sl, sp, lr}
    105c:	a0010100 	andge	r0, r1, r0, lsl #2
    1060:	03000000 	movweq	r0, #0
    1064:	00005700 	andeq	r5, r0, r0, lsl #14
    1068:	fb010200 	blx	41872 <__bss_end__+0x364e2>
    106c:	01000d0e 	tsteq	r0, lr, lsl #26
    1070:	00010101 	andeq	r0, r1, r1, lsl #2
    1074:	00010000 	andeq	r0, r1, r0
    1078:	2f2e0100 	svccs	0x002e0100
    107c:	6362696c 	cmnvs	r2, #108, 18	; 0x1b0000
    1080:	73552f00 	cmpvc	r5, #0, 30
    1084:	2f737265 	svccs	0x00737265
    1088:	656c696d 	strbvs	r6, [ip, #-2413]!	; 0xfffff693
    108c:	6f532f73 	svcvs	0x00532f73
    1090:	65637275 	strbvs	r7, [r3, #-629]!	; 0xfffffd8b
    1094:	3273632f 	rsbscc	r6, r3, #-1140850688	; 0xbc000000
    1098:	786c3034 	stmdavc	ip!, {r2, r4, r5, ip, sp}^
    109c:	62696c2f 	rsbvs	r6, r9, #12032	; 0x2f00
    10a0:	692f6970 	stmdbvs	pc!, {r4, r5, r6, r8, fp, sp, lr}	; <UNPREDICTABLE>
    10a4:	756c636e 	strbvc	r6, [ip, #-878]!	; 0xfffffc92
    10a8:	00006564 	andeq	r6, r0, r4, ror #10
    10ac:	6b747570 	blvs	1d1e674 <__bss_end__+0x1d132e4>
    10b0:	0100632e 	tsteq	r0, lr, lsr #6
    10b4:	70720000 	rsbsvc	r0, r2, r0
    10b8:	00682e69 	rsbeq	r2, r8, r9, ror #28
    10bc:	00000002 	andeq	r0, r0, r2
    10c0:	05002205 	streq	r2, [r0, #-517]	; 0xfffffdfb
    10c4:	0090d002 	addseq	sp, r0, r2
    10c8:	05051500 	streq	r1, [r5, #-1280]	; 0xfffffb00
    10cc:	06220513 			; <UNDEFINED> instruction: 0x06220513
    10d0:	0b052e11 	bleq	14c91c <__bss_end__+0x14158c>
    10d4:	05052f06 	streq	r2, [r5, #-3846]	; 0xfffff0fa
    10d8:	09052e06 	stmdbeq	r5, {r1, r2, r9, sl, fp, sp}
    10dc:	02040200 	andeq	r0, r4, #0, 4
    10e0:	0f056706 	svceq	0x00056706
    10e4:	02040200 	andeq	r0, r4, #0, 4
    10e8:	000b0549 	andeq	r0, fp, r9, asr #10
    10ec:	01020402 	tsteq	r2, r2, lsl #8
    10f0:	02000505 	andeq	r0, r0, #20971520	; 0x1400000
    10f4:	2e060204 	cdpcs	2, 0, cr0, cr6, cr4, {0}
    10f8:	01054e06 	tsteq	r5, r6, lsl #28
    10fc:	06021306 	streq	r1, [r2], -r6, lsl #6
    1100:	e1010100 	mrs	r0, (UNDEF: 17)
    1104:	03000000 	movweq	r0, #0
    1108:	00005b00 	andeq	r5, r0, r0, lsl #22
    110c:	fb010200 	blx	41916 <__bss_end__+0x36586>
    1110:	01000d0e 	tsteq	r0, lr, lsl #26
    1114:	00010101 	andeq	r0, r1, r1, lsl #2
    1118:	00010000 	andeq	r0, r1, r0
    111c:	2f2e0100 	svccs	0x002e0100
    1120:	6362696c 	cmnvs	r2, #108, 18	; 0x1b0000
    1124:	73552f00 	cmpvc	r5, #0, 30
    1128:	2f737265 	svccs	0x00737265
    112c:	656c696d 	strbvs	r6, [ip, #-2413]!	; 0xfffff693
    1130:	6f532f73 	svcvs	0x00532f73
    1134:	65637275 	strbvs	r7, [r3, #-629]!	; 0xfffffd8b
    1138:	3273632f 	rsbscc	r6, r3, #-1140850688	; 0xbc000000
    113c:	786c3034 	stmdavc	ip!, {r2, r4, r5, ip, sp}^
    1140:	62696c2f 	rsbvs	r6, r9, #12032	; 0x2f00
    1144:	692f6970 	stmdbvs	pc!, {r4, r5, r6, r8, fp, sp, lr}	; <UNPREDICTABLE>
    1148:	756c636e 	strbvc	r6, [ip, #-878]!	; 0xfffffc92
    114c:	00006564 	andeq	r6, r0, r4, ror #10
    1150:	2d697072 	stclcs	0, cr7, [r9, #-456]!	; 0xfffffe38
    1154:	646e6172 	strbtvs	r6, [lr], #-370	; 0xfffffe8e
    1158:	0100632e 	tsteq	r0, lr, lsr #6
    115c:	70720000 	rsbsvc	r0, r2, r0
    1160:	00682e69 	rsbeq	r2, r8, r9, ror #28
    1164:	00000002 	andeq	r0, r0, r2
    1168:	05002105 	streq	r2, [r0, #-261]	; 0xfffffefb
    116c:	00910802 	addseq	r0, r1, r2, lsl #16
    1170:	010a0300 	mrseq	r0, (UNDEF: 58)
    1174:	05130505 	ldreq	r0, [r3, #-1285]	; 0xfffffafb
    1178:	05010619 	streq	r0, [r1, #-1561]	; 0xfffff9e7
    117c:	054b0605 	strbeq	r0, [fp, #-1541]	; 0xfffff9fb
    1180:	05110627 	ldreq	r0, [r1, #-1575]	; 0xfffff9d9
    1184:	19056635 	stmdbne	r5, {r0, r2, r4, r5, r9, sl, sp, lr}
    1188:	660a052f 	strvs	r0, [sl], -pc, lsr #10
    118c:	2f060505 	svccs	0x00060505
    1190:	13060105 	movwne	r0, #24837	; 0x6105
    1194:	4c062005 	stcmi	0, cr2, [r6], {5}
    1198:	05130505 	ldreq	r0, [r3, #-1285]	; 0xfffffafb
    119c:	01790310 	cmneq	r9, r0, lsl r3
    11a0:	05130505 	ldreq	r0, [r3, #-1285]	; 0xfffffafb
    11a4:	05010619 	streq	r0, [r1, #-1561]	; 0xfffff9e7
    11a8:	054b0605 	strbeq	r0, [fp, #-1541]	; 0xfffff9fb
    11ac:	05110627 	ldreq	r0, [r1, #-1575]	; 0xfffff9d9
    11b0:	19056635 	stmdbne	r5, {r0, r2, r4, r5, r9, sl, sp, lr}
    11b4:	0605052f 	streq	r0, [r5], -pc, lsr #10
    11b8:	0f100567 	svceq	0x00100567
    11bc:	13130505 	tstne	r3, #20971520	; 0x1400000
    11c0:	11062705 	tstne	r6, r5, lsl #14
    11c4:	05663505 	strbeq	r3, [r6, #-1285]!	; 0xfffffafb
    11c8:	0a052f19 	beq	14ce34 <__bss_end__+0x141aa4>
    11cc:	06050566 	streq	r0, [r5], -r6, ror #10
    11d0:	0601052f 	streq	r0, [r1], -pc, lsr #10
    11d4:	061f0517 			; <UNDEFINED> instruction: 0x061f0517
    11d8:	13050569 	movwne	r0, #21865	; 0x5569
    11dc:	01060a05 	tsteq	r6, r5, lsl #20
    11e0:	02670105 	rsbeq	r0, r7, #1073741825	; 0x40000001
    11e4:	01010006 	tsteq	r1, r6
    11e8:	000008fa 	strdeq	r0, [r0], -sl
    11ec:	00f10003 	rscseq	r0, r1, r3
    11f0:	01020000 	mrseq	r0, (UNDEF: 2)
    11f4:	000d0efb 	strdeq	r0, [sp], -fp
    11f8:	01010101 	tsteq	r1, r1, lsl #2
    11fc:	01000000 	mrseq	r0, (UNDEF: 0)
    1200:	2e010000 	cdpcs	0, 0, cr0, cr1, cr0, {0}
    1204:	62696c2f 	rsbvs	r6, r9, #12032	; 0x2f00
    1208:	6f2f0063 	svcvs	0x002f0063
    120c:	682f7470 	stmdavs	pc!, {r4, r5, r6, sl, ip, sp, lr}	; <UNPREDICTABLE>
    1210:	62656d6f 	rsbvs	r6, r5, #7104	; 0x1bc0
    1214:	2f776572 	svccs	0x00776572
    1218:	6c6c6543 	cfstr64vs	mvdx6, [ip], #-268	; 0xfffffef4
    121c:	612f7261 			; <UNDEFINED> instruction: 0x612f7261
    1220:	6e2d6d72 	mcrvs	13, 1, r6, cr13, cr2, {3}
    1224:	2d656e6f 	stclcs	14, cr6, [r5, #-444]!	; 0xfffffe44
    1228:	69626165 	stmdbvs	r2!, {r0, r2, r5, r6, r8, sp, lr}^
    122c:	392f392d 	stmdbcc	pc!, {r0, r2, r3, r5, r8, fp, ip, sp}	; <UNPREDICTABLE>
    1230:	3130322d 	teqcc	r0, sp, lsr #4
    1234:	2d347139 	ldfcss	f7, [r4, #-228]!	; 0xffffff1c
    1238:	30317363 	eorscc	r7, r1, r3, ror #6
    123c:	6c2f6537 	cfstr32vs	mvfx6, [pc], #-220	; 1168 <__code_start__-0x6e98>
    1240:	672f6269 	strvs	r6, [pc, -r9, ror #4]!
    1244:	612f6363 			; <UNDEFINED> instruction: 0x612f6363
    1248:	6e2d6d72 	mcrvs	13, 1, r6, cr13, cr2, {3}
    124c:	2d656e6f 	stclcs	14, cr6, [r5, #-444]!	; 0xfffffe44
    1250:	69626165 	stmdbvs	r2!, {r0, r2, r5, r6, r8, sp, lr}^
    1254:	322e392f 	eorcc	r3, lr, #770048	; 0xbc000
    1258:	692f312e 	stmdbvs	pc!, {r1, r2, r3, r5, r8, ip, sp}	; <UNPREDICTABLE>
    125c:	756c636e 	strbvc	r6, [ip, #-878]!	; 0xfffffc92
    1260:	2f006564 	svccs	0x00006564
    1264:	72657355 	rsbvc	r7, r5, #1409286145	; 0x54000001
    1268:	696d2f73 	stmdbvs	sp!, {r0, r1, r4, r5, r6, r8, r9, sl, fp, sp}^
    126c:	2f73656c 	svccs	0x0073656c
    1270:	72756f53 	rsbsvc	r6, r5, #332	; 0x14c
    1274:	632f6563 			; <UNDEFINED> instruction: 0x632f6563
    1278:	30343273 	eorscc	r3, r4, r3, ror r2
    127c:	6c2f786c 	stcvs	8, cr7, [pc], #-432	; 10d4 <__code_start__-0x6f2c>
    1280:	69706269 	ldmdbvs	r0!, {r0, r3, r5, r6, r9, sp, lr}^
    1284:	636e692f 	cmnvs	lr, #770048	; 0xbc000
    1288:	6564756c 	strbvs	r7, [r4, #-1388]!	; 0xfffffa94
    128c:	61760000 	cmnvs	r6, r0
    1290:	6972702d 	ldmdbvs	r2!, {r0, r2, r3, r5, ip, sp, lr}^
    1294:	2e6b746e 	cdpcs	4, 6, cr7, cr11, cr14, {3}
    1298:	00010063 	andeq	r0, r1, r3, rrx
    129c:	64747300 	ldrbtvs	r7, [r4], #-768	; 0xfffffd00
    12a0:	2d746e69 	ldclcs	14, cr6, [r4, #-420]!	; 0xfffffe5c
    12a4:	2e636367 	cdpcs	3, 6, cr6, cr3, cr7, {3}
    12a8:	00020068 	andeq	r0, r2, r8, rrx
    12ac:	69707200 	ldmdbvs	r0!, {r9, ip, sp, lr}^
    12b0:	0300682e 	movweq	r6, #2094	; 0x82e
    12b4:	70720000 	rsbsvc	r0, r2, r0
    12b8:	6e692d69 	cdpvs	13, 6, cr2, cr9, cr9, {3}
    12bc:	6e726574 	mrcvs	5, 3, r6, cr2, cr4, {3}
    12c0:	682e6c61 	stmdavs	lr!, {r0, r5, r6, sl, fp, sp, lr}
    12c4:	00000300 	andeq	r0, r0, r0, lsl #6
    12c8:	61647473 	smcvs	18243	; 0x4743
    12cc:	682e6772 	stmdavs	lr!, {r1, r4, r5, r6, r8, r9, sl, sp, lr}
    12d0:	00000200 	andeq	r0, r0, r0, lsl #4
    12d4:	6975623c 	ldmdbvs	r5!, {r2, r3, r4, r5, r9, sp, lr}^
    12d8:	692d746c 	pushvs	{r2, r3, r5, r6, sl, ip, sp, lr}
    12dc:	00003e6e 	andeq	r3, r0, lr, ror #28
    12e0:	05000000 	streq	r0, [r0, #-0]
    12e4:	02050001 	andeq	r0, r5, #1, 0
    12e8:	000091a0 	andeq	r9, r0, r0, lsr #3
    12ec:	0100c803 	tsteq	r0, r3, lsl #16
    12f0:	05140205 	ldreq	r0, [r4, #-517]	; 0xfffffdfb
    12f4:	05100601 	ldreq	r0, [r0, #-1537]	; 0xfffff9ff
    12f8:	01053004 	tsteq	r5, r4
    12fc:	04054a2c 	streq	r4, [r5], #-2604	; 0xfffff5d4
    1300:	06020530 			; <UNDEFINED> instruction: 0x06020530
    1304:	0b051331 	bleq	145fd0 <__bss_end__+0x13ac40>
    1308:	02052e06 	andeq	r2, r5, #96	; 0x60
    130c:	09053006 	stmdbeq	r5, {r1, r2, ip, sp}
    1310:	0d240206 	sfmeq	f0, 4, [r4, #-24]!	; 0xffffffe8
    1314:	0d052e2e 	stceq	14, cr2, [r5, #-184]	; 0xffffff48
    1318:	4a170306 	bmi	5c1f38 <__bss_end__+0x5b6ba8>
    131c:	05131105 	ldreq	r1, [r3, #-261]	; 0xfffffefb
    1320:	0501062d 	streq	r0, [r1, #-1581]	; 0xfffff9d3
    1324:	0d052e16 	stceq	14, cr2, [r5, #-88]	; 0xffffffa8
    1328:	2d16052f 	cfldr32cs	mvfx0, [r6, #-188]	; 0xffffff44
    132c:	2f061405 	svccs	0x00061405
    1330:	01061705 	tsteq	r6, r5, lsl #14
    1334:	062e0d05 	strteq	r0, [lr], -r5, lsl #26
    1338:	0612052f 	ldreq	r0, [r2], -pc, lsr #10
    133c:	2d2f2e01 	stccs	14, cr2, [pc, #-4]!	; 1340 <__code_start__-0x6cc0>
    1340:	2f060d05 	svccs	0x00060d05
    1344:	01061205 	tsteq	r6, r5, lsl #4
    1348:	2f061905 	svccs	0x00061905
    134c:	11030405 	tstne	r3, r5, lsl #8
    1350:	02050101 	andeq	r0, r5, #1073741824	; 0x40000000
    1354:	030e0515 	movweq	r0, #58645	; 0xe515
    1358:	05017fb2 	streq	r7, [r1, #-4018]	; 0xfffff04e
    135c:	06051302 	streq	r1, [r5], -r2, lsl #6
    1360:	02050106 	andeq	r0, r5, #-2147483647	; 0x80000001
    1364:	08053006 	stmdaeq	r5, {r1, r2, ip, sp}
    1368:	06020501 	streq	r0, [r2], -r1, lsl #10
    136c:	08054a01 	stmdaeq	r5, {r0, r9, fp, lr}
    1370:	03059108 	movweq	r9, #20744	; 0x5108
    1374:	08054a06 	stmdaeq	r5, {r1, r2, r9, fp, lr}
    1378:	15050106 	strne	r0, [r5, #-262]	; 0xfffffefa
    137c:	08052d06 	stmdaeq	r5, {r1, r2, r8, sl, fp, sp}
    1380:	d7030501 	strle	r0, [r3, -r1, lsl #10]
    1384:	01060805 	tsteq	r6, r5, lsl #16
    1388:	052d1805 	streq	r1, [sp, #-2053]!	; 0xfffff7fb
    138c:	08052e02 	stmdaeq	r5, {r1, r9, sl, fp, sp}
    1390:	0615052f 	ldreq	r0, [r5], -pc, lsr #10
    1394:	0108052d 	tsteq	r8, sp, lsr #10
    1398:	01060205 	tsteq	r6, r5, lsl #4
    139c:	2f060305 	svccs	0x00060305
    13a0:	11061805 	tstne	r6, r5, lsl #16
    13a4:	052e0205 	streq	r0, [lr, #-517]!	; 0xfffffdfb
    13a8:	15052f08 	strne	r2, [r5, #-3848]	; 0xfffff0f8
    13ac:	08052d06 	stmdaeq	r5, {r1, r2, r8, sl, fp, sp}
    13b0:	13030501 	movwne	r0, #13569	; 0x3501
    13b4:	01060805 	tsteq	r6, r5, lsl #16
    13b8:	2d061505 	cfstr32cs	mvfx1, [r6, #-20]	; 0xffffffec
    13bc:	06010805 	streq	r0, [r1], -r5, lsl #16
    13c0:	06020501 	streq	r0, [r2], -r1, lsl #10
    13c4:	060505a0 	streq	r0, [r5], -r0, lsr #11
    13c8:	36040501 	strcc	r0, [r4], -r1, lsl #10
    13cc:	052f1105 	streq	r1, [pc, #-261]!	; 12cf <__code_start__-0x6d31>
    13d0:	02052e09 	andeq	r2, r5, #144	; 0x90
    13d4:	03050533 	movweq	r0, #21811	; 0x5533
    13d8:	02052e72 	andeq	r2, r5, #1824	; 0x720
    13dc:	01062f06 	tsteq	r6, r6, lsl #30
    13e0:	16060e05 	strne	r0, [r6], -r5, lsl #28
    13e4:	13140205 	tstne	r4, #1342177280	; 0x50000000
    13e8:	05130305 	ldreq	r0, [r3, #-773]	; 0xfffffcfb
    13ec:	05151402 	ldreq	r1, [r5, #-1026]	; 0xfffffbfe
    13f0:	0205010b 	andeq	r0, r5, #-1073741822	; 0xc0000002
    13f4:	052e0106 	streq	r0, [lr, #-262]!	; 0xfffffefa
    13f8:	05670603 	strbeq	r0, [r7, #-1539]!	; 0xfffff9fd
    13fc:	0501060a 	streq	r0, [r1, #-1546]	; 0xfffff9f6
    1400:	0a052d02 	beq	14c810 <__bss_end__+0x141480>
    1404:	0617052f 	ldreq	r0, [r7], -pc, lsr #10
    1408:	010b052d 	tsteq	fp, sp, lsr #10
    140c:	01060205 	tsteq	r6, r5, lsl #4
    1410:	2e4c0905 	vmlacs.f16	s1, s24, s10	; <UNPREDICTABLE>
    1414:	2e060205 	cdpcs	2, 0, cr0, cr6, cr5, {0}
    1418:	01060905 	tsteq	r6, r5, lsl #18
    141c:	30060205 	andcc	r0, r6, r5, lsl #4
    1420:	01050106 	tsteq	r5, r6, lsl #2
    1424:	05013803 	streq	r3, [r1, #-2051]	; 0xfffff7fd
    1428:	4a4f0309 	bmi	13c2054 <__bss_end__+0x13b6cc4>
    142c:	19052e2e 	stmdbne	r5, {r1, r2, r3, r5, r9, sl, fp, sp}
    1430:	4a270306 	bmi	9c2050 <__bss_end__+0x9b6cc0>
    1434:	05131a05 	ldreq	r1, [r3, #-2565]	; 0xfffff5fb
    1438:	05010628 	streq	r0, [r1, #-1576]	; 0xfffff9d8
    143c:	04052e1f 	streq	r2, [r5], #-3615	; 0xfffff1e1
    1440:	2d1f052f 	cfldr32cs	mvfx0, [pc, #-188]	; 138c <__code_start__-0x6c74>
    1444:	2f060b05 	svccs	0x00060b05
    1448:	01060e05 	tsteq	r6, r5, lsl #28
    144c:	052e0405 	streq	r0, [lr, #-1029]!	; 0xfffffbfb
    1450:	59030602 	stmdbpl	r3, {r1, r9, sl}
    1454:	0b05134a 	bleq	146184 <__bss_end__+0x13adf4>
    1458:	02052e06 	andeq	r2, r5, #96	; 0x60
    145c:	09053006 	stmdbeq	r5, {r1, r2, ip, sp}
    1460:	0d240206 	sfmeq	f0, 4, [r4, #-24]!	; 0xffffffe8
    1464:	36060405 	strcc	r0, [r6], -r5, lsl #8
    1468:	06060513 			; <UNDEFINED> instruction: 0x06060513
    146c:	06050501 	streq	r0, [r5], -r1, lsl #10
    1470:	05131367 	ldreq	r1, [r3, #-871]	; 0xfffffc99
    1474:	05110609 	ldreq	r0, [r1, #-1545]	; 0xfffff9f7
    1478:	0b052b0d 	bleq	14c0b4 <__bss_end__+0x140d24>
    147c:	2c0d0530 	cfstr32cs	mvfx0, [sp], {48}	; 0x30
    1480:	05351b05 	ldreq	r1, [r5, #-2821]!	; 0xfffff4fb
    1484:	052d0604 	streq	r0, [sp, #-1540]!	; 0xfffff9fc
    1488:	1b051305 	blne	1460a4 <__bss_end__+0x13ad14>
    148c:	0a052e06 	beq	14ccac <__bss_end__+0x14191c>
    1490:	2f040582 	svccs	0x00040582
    1494:	052e0e05 	streq	r0, [lr, #-3589]!	; 0xfffff1fb
    1498:	0b05490a 	bleq	1538c8 <__bss_end__+0x148538>
    149c:	04052f06 	streq	r2, [r5], #-3846	; 0xfffff0fa
    14a0:	2f060106 	svccs	0x00060106
    14a4:	01060605 	tsteq	r6, r5, lsl #12
    14a8:	2f060505 	svccs	0x00060505
    14ac:	01060a05 	tsteq	r6, r5, lsl #20
    14b0:	2e07052e 	cfsh32cs	mvfx0, mvfx7, #30
    14b4:	04052e2e 	streq	r2, [r5], #-3630	; 0xfffff1d2
    14b8:	010d0306 	tsteq	sp, r6, lsl #6
    14bc:	03060205 	movweq	r0, #25093	; 0x6205
    14c0:	09050146 	stmdbeq	r5, {r1, r2, r6, r8}
    14c4:	052e3a03 	streq	r3, [lr, #-2563]!	; 0xfffff5fd
    14c8:	032f0604 			; <UNDEFINED> instruction: 0x032f0604
    14cc:	0501010d 	streq	r0, [r1, #-269]	; 0xfffffef3
    14d0:	0e051502 	cfsh32eq	mvfx1, mvfx5, #2
    14d4:	017fb203 	cmneq	pc, r3, lsl #4
    14d8:	14130205 	ldrne	r0, [r3], #-517	; 0xfffffdfb
    14dc:	05010805 	streq	r0, [r1, #-2053]	; 0xfffff7fb
    14e0:	03100606 	tsteq	r0, #6291456	; 0x600000
    14e4:	02052e3c 	andeq	r2, r5, #60, 28	; 0x3c0
    14e8:	064a4603 	strbeq	r4, [sl], -r3, lsl #12
    14ec:	06050530 			; <UNDEFINED> instruction: 0x06050530
    14f0:	052e2e01 	streq	r2, [lr, #-3585]!	; 0xfffff1ff
    14f4:	064b0602 	strbeq	r0, [fp], -r2, lsl #12
    14f8:	060e0501 	streq	r0, [lr], -r1, lsl #10
    14fc:	14020516 	strne	r0, [r2], #-1302	; 0xfffffaea
    1500:	05151513 	ldreq	r1, [r5, #-1299]	; 0xfffffaed
    1504:	0205010b 	andeq	r0, r5, #-1073741822	; 0xc0000002
    1508:	30062e06 	andcc	r2, r6, r6, lsl #28
    150c:	01060905 	tsteq	r6, r5, lsl #18
    1510:	4c060205 	sfmmi	f0, 4, [r6], {5}
    1514:	01050106 	tsteq	r5, r6, lsl #2
    1518:	05013803 	streq	r3, [r1, #-2051]	; 0xfffff7fd
    151c:	4a6e0306 	bmi	1b8213c <__bss_end__+0x1b76dac>
    1520:	46030205 	strmi	r0, [r3], -r5, lsl #4
    1524:	052e4a66 	streq	r4, [lr, #-2662]!	; 0xfffff59a
    1528:	c8030604 	stmdagt	r3, {r2, r9, sl}
    152c:	01010100 	mrseq	r0, (UNDEF: 17)
    1530:	822e0601 	eorhi	r0, lr, #1048576	; 0x100000
    1534:	72034a06 	andvc	r4, r3, #24576	; 0x6000
    1538:	0609052e 	streq	r0, [r9], -lr, lsr #10
    153c:	06040501 	streq	r0, [r4], -r1, lsl #10
    1540:	010d032f 	tsteq	sp, pc, lsr #6
    1544:	15020501 	strne	r0, [r2, #-1281]	; 0xfffffaff
    1548:	b2030e05 	andlt	r0, r3, #80	; 0x50
    154c:	0205017f 	andeq	r0, r5, #-1073741793	; 0xc000001f
    1550:	08051413 	stmdaeq	r5, {r0, r1, r4, sl, ip}
    1554:	06090501 	streq	r0, [r9], -r1, lsl #10
    1558:	05011b03 	streq	r1, [r1, #-2819]	; 0xfffff4fd
    155c:	2e630306 	cdpcs	3, 6, cr0, cr3, cr6, {0}
    1560:	2e2e3c03 	cdpcs	12, 2, cr3, cr14, cr3, {0}
    1564:	0648052e 	strbeq	r0, [r8], -lr, lsr #10
    1568:	087fb403 	ldmdaeq	pc!, {r0, r1, sl, ip, sp, pc}^	; <UNPREDICTABLE>
    156c:	1305053c 	movwne	r0, #21820	; 0x553c
    1570:	002e0601 	eoreq	r0, lr, r1, lsl #12
    1574:	06020402 	streq	r0, [r2], -r2, lsl #8
    1578:	0402002e 	streq	r0, [r2], #-46	; 0xffffffd2
    157c:	02000102 	andeq	r0, r0, #-2147483648	; 0x80000000
    1580:	05130204 	ldreq	r0, [r3, #-516]	; 0xfffffdfc
    1584:	04020011 	streq	r0, [r2], #-17	; 0xffffffef
    1588:	05010602 	streq	r0, [r1, #-1538]	; 0xfffff9fe
    158c:	04020007 	streq	r0, [r2], #-7
    1590:	11052f02 	tstne	r5, r2, lsl #30
    1594:	02040200 	andeq	r0, r4, #0, 4
    1598:	0005052d 	andeq	r0, r5, sp, lsr #10
    159c:	06020402 	streq	r0, [r2], -r2, lsl #8
    15a0:	0009052f 	andeq	r0, r9, pc, lsr #10
    15a4:	13020402 	movwne	r0, #9218	; 0x2402
    15a8:	02000e05 	andeq	r0, r0, #80	; 0x50
    15ac:	01060204 	tsteq	r6, r4, lsl #4
    15b0:	02000505 	andeq	r0, r0, #20971520	; 0x1400000
    15b4:	63060104 	movwvs	r0, #24836	; 0x6104
    15b8:	01040200 	mrseq	r0, R12_usr
    15bc:	00480501 	subeq	r0, r8, r1, lsl #10
    15c0:	06010402 	streq	r0, [r1], -r2, lsl #8
    15c4:	00050511 	andeq	r0, r5, r1, lsl r5
    15c8:	2f010402 	svccs	0x00010402
    15cc:	02004805 	andeq	r4, r0, #327680	; 0x50000
    15d0:	052d0104 	streq	r0, [sp, #-260]!	; 0xfffffefc
    15d4:	04020005 	streq	r0, [r2], #-5
    15d8:	02002f01 	andeq	r2, r0, #1, 30
    15dc:	004a0104 	subeq	r0, sl, r4, lsl #2
    15e0:	4a010402 	bmi	425f0 <__bss_end__+0x37260>
    15e4:	01040200 	mrseq	r0, R12_usr
    15e8:	40054a06 	andmi	r4, r5, r6, lsl #20
    15ec:	d600e103 	strle	lr, [r0], -r3, lsl #2
    15f0:	09050106 	stmdbeq	r5, {r1, r2, r8}
    15f4:	08052e4e 	stmdaeq	r5, {r1, r2, r3, r6, r9, sl, fp, sp}
    15f8:	291e0530 	ldmdbcs	lr, {r4, r5, r8, sl}
    15fc:	052e1205 	streq	r1, [lr, #-517]!	; 0xfffffdfb
    1600:	0205330d 	andeq	r3, r5, #872415232	; 0x34000000
    1604:	05054506 	streq	r4, [r5, #-1286]	; 0xfffffafa
    1608:	14020513 	strne	r0, [r2], #-1299	; 0xfffffaed
    160c:	05130505 	ldreq	r0, [r3, #-1285]	; 0xfffffafb
    1610:	08051302 	stmdaeq	r5, {r1, r8, r9, ip}
    1614:	06400501 	strbeq	r0, [r0], -r1, lsl #10
    1618:	2e017a03 	vmlacs.f32	s14, s2, s6
    161c:	66340d05 	ldrtvs	r0, [r4], -r5, lsl #26
    1620:	20031105 	andcs	r1, r3, r5, lsl #2
    1624:	04054a4a 	streq	r4, [r5], #-2634	; 0xfffff5b6
    1628:	01620306 	cmneq	r2, r6, lsl #6
    162c:	01060905 	tsteq	r6, r5, lsl #18
    1630:	052e0f05 	streq	r0, [lr, #-3845]!	; 0xfffff0fb
    1634:	052c0608 	streq	r0, [ip, #-1544]!	; 0xfffff9f8
    1638:	052e060d 	streq	r0, [lr, #-1549]!	; 0xfffff9f3
    163c:	05670603 	strbeq	r0, [r7, #-1539]!	; 0xfffff9fd
    1640:	05010605 	streq	r0, [r1, #-1541]	; 0xfffff9fb
    1644:	054d0608 	strbeq	r0, [sp, #-1544]	; 0xfffff9f8
    1648:	0501060e 	streq	r0, [r1, #-1550]	; 0xfffff9f2
    164c:	09052e0a 	stmdbeq	r5, {r1, r3, r9, sl, fp, sp}
    1650:	0604052f 	streq	r0, [r4], -pc, lsr #10
    1654:	0607052f 	streq	r0, [r7], -pc, lsr #10
    1658:	2c0a0501 	cfstr32cs	mvfx0, [sl], {1}
    165c:	32060405 	andcc	r0, r6, #83886080	; 0x5000000
    1660:	03062d05 	movweq	r2, #27909	; 0x6d05
    1664:	05017f98 	streq	r7, [r1, #-3992]	; 0xfffff068
    1668:	00ed0309 	rsceq	r0, sp, r9, lsl #6
    166c:	2c0d052e 	cfstr32cs	mvfx0, [sp], {46}	; 0x2e
    1670:	052b0705 	streq	r0, [fp, #-1797]!	; 0xfffff8fb
    1674:	13300604 	teqne	r0, #4, 12	; 0x400000
    1678:	01090514 	tsteq	r9, r4, lsl r5
    167c:	93030c05 	movwls	r0, #15365	; 0x3c05
    1680:	1d05017f 	stfnes	f0, [r5, #-508]	; 0xfffffe04
    1684:	05010601 	streq	r0, [r1, #-1537]	; 0xfffff9ff
    1688:	00ed0309 	rsceq	r0, sp, r9, lsl #6
    168c:	06050501 	streq	r0, [r5], -r1, lsl #10
    1690:	0612052f 	ldreq	r0, [r2], -pc, lsr #10
    1694:	052d2e01 	streq	r2, [sp, #-3585]!	; 0xfffff1ff
    1698:	05052f0b 	streq	r2, [r5, #-3851]	; 0xfffff0f5
    169c:	09052f06 	stmdbeq	r5, {r1, r2, r8, r9, sl, fp, sp}
    16a0:	030c0510 	movweq	r0, #50448	; 0xc510
    16a4:	05017f93 	streq	r7, [r1, #-3987]	; 0xfffff06d
    16a8:	2d05011d 	stfcss	f0, [r5, #-116]	; 0xffffff8c
    16ac:	09050106 	stmdbeq	r5, {r1, r2, r8}
    16b0:	2e00ed03 	cdpcs	13, 0, cr14, cr0, cr3, {0}
    16b4:	4e060405 	cdpmi	4, 0, cr0, cr6, cr5, {0}
    16b8:	04020001 	streq	r0, [r2], #-1
    16bc:	02004a02 	andeq	r4, r0, #8192	; 0x2000
    16c0:	00010204 	andeq	r0, r1, r4, lsl #4
    16c4:	15020402 	strne	r0, [r2, #-1026]	; 0xfffffbfe
    16c8:	02040200 	andeq	r0, r4, #0, 4
    16cc:	12360206 	eorsne	r0, r6, #1610612736	; 0x60000000
    16d0:	02040200 	andeq	r0, r4, #0, 4
    16d4:	0602052e 	streq	r0, [r2], -lr, lsr #10
    16d8:	0100d103 	tsteq	r0, r3, lsl #2
    16dc:	01060705 	tsteq	r6, r5, lsl #14
    16e0:	0602052e 	streq	r0, [r2], -lr, lsr #10
    16e4:	060b052f 	streq	r0, [fp], -pc, lsr #10
    16e8:	2f010501 	svccs	0x00010501
    16ec:	03060505 	movweq	r0, #25861	; 0x6505
    16f0:	09054a65 	stmdbeq	r5, {r0, r2, r5, r6, r9, fp, lr}
    16f4:	05660106 	strbeq	r0, [r6, #-262]!	; 0xfffffefa
    16f8:	059f0605 	ldreq	r0, [pc, #1541]	; 1d05 <__code_start__-0x62fb>
    16fc:	01110304 	tsteq	r1, r4, lsl #6
    1700:	01060705 	tsteq	r6, r5, lsl #14
    1704:	31060405 	tstcc	r6, r5, lsl #8
    1708:	05010a05 	streq	r0, [r1, #-2565]	; 0xfffff5fb
    170c:	04020013 	streq	r0, [r2], #-19	; 0xffffffed
    1710:	052e0601 	streq	r0, [lr, #-1537]!	; 0xfffff9ff
    1714:	04020010 	streq	r0, [r2], #-16
    1718:	05052e01 	streq	r2, [r5, #-3585]	; 0xfffff1ff
    171c:	0a054b06 	beq	15433c <__bss_end__+0x148fac>
    1720:	2d060106 	stfcss	f0, [r6, #-24]	; 0xffffffe8
    1724:	01060405 	tsteq	r6, r5, lsl #8
    1728:	03061105 	movweq	r1, #24837	; 0x6105
    172c:	13667fb6 	cmnne	r6, #728	; 0x2d8
    1730:	04020001 	streq	r0, [r2], #-1
    1734:	06ba0602 	ldrteq	r0, [sl], r2, lsl #12
    1738:	051401ba 	ldreq	r0, [r4, #-442]	; 0xfffffe46
    173c:	2e13061a 	mrccs	6, 0, r0, cr3, cr10, {0}
    1740:	4e11052e 	cfmul64mi	mvdx0, mvdx1, mvdx14
    1744:	68140567 	ldmdavs	r4, {r0, r1, r2, r5, r6, r8, sl}
    1748:	05821305 	streq	r1, [r2, #773]	; 0x305
    174c:	4a780315 	bmi	1e023a8 <__bss_end__+0x1df7018>
    1750:	4b061105 	blmi	185b6c <__bss_end__+0x17a7dc>
    1754:	13141313 	tstne	r4, #1275068416	; 0x4c000000
    1758:	06130514 			; <UNDEFINED> instruction: 0x06130514
    175c:	06090501 	streq	r0, [r9], -r1, lsl #10
    1760:	060d052f 	streq	r0, [sp], -pc, lsr #10
    1764:	052e2e01 	streq	r2, [lr, #-3585]!	; 0xfffff1ff
    1768:	0d05bb09 	vstreq	d11, [r5, #-36]	; 0xffffffdc
    176c:	0609059d 			; <UNDEFINED> instruction: 0x0609059d
    1770:	2f15052f 	svccs	0x0015052f
    1774:	4a750306 	bmi	1d42394 <__bss_end__+0x1d37004>
    1778:	4a2e0b03 	bmi	b8438c <__bss_end__+0xb78ffc>
    177c:	03060505 	movweq	r0, #25861	; 0x6505
    1780:	09050123 	stmdbeq	r5, {r0, r1, r5, r8}
    1784:	052e0106 	streq	r0, [lr, #-262]!	; 0xfffffefa
    1788:	03d70605 	bicseq	r0, r7, #5242880	; 0x500000
    178c:	0e032e6e 	cdpeq	14, 0, cr2, cr3, cr14, {3}
    1790:	06090501 	streq	r0, [r9], -r1, lsl #10
    1794:	06050501 	streq	r0, [r5], -r1, lsl #10
    1798:	054a1003 	strbeq	r1, [sl, #-3]
    179c:	7eed0301 	cdpvc	3, 14, cr0, cr13, cr1, {0}
    17a0:	14020501 	strne	r0, [r2], #-1281	; 0xfffffaff
    17a4:	05141315 	ldreq	r1, [r4, #-789]	; 0xfffffceb
    17a8:	011a0304 	tsteq	sl, r4, lsl #6
    17ac:	01060905 	tsteq	r6, r5, lsl #18
    17b0:	46030205 	strmi	r0, [r3], -r5, lsl #4
    17b4:	0309052e 	movweq	r0, #38190	; 0x952e
    17b8:	04052e3a 	streq	r2, [r5], #-3642	; 0xfffff1c6
    17bc:	0d032f06 	stceq	15, cr2, [r3, #-24]	; 0xffffffe8
    17c0:	02050101 	andeq	r0, r5, #1073741824	; 0x40000000
    17c4:	030e0515 	movweq	r0, #58645	; 0xe515
    17c8:	05017fb2 	streq	r7, [r1, #-4018]	; 0xfffff04e
    17cc:	05141302 	ldreq	r1, [r4, #-770]	; 0xfffffcfe
    17d0:	02050108 	andeq	r0, r5, #2
    17d4:	08050106 	stmdaeq	r5, {r1, r2, r8}
    17d8:	0603059f 			; <UNDEFINED> instruction: 0x0603059f
    17dc:	0501064a 	streq	r0, [r1, #-1610]	; 0xfffff9b6
    17e0:	15052e08 	strne	r2, [r5, #-3592]	; 0xfffff1f8
    17e4:	08052d06 	stmdaeq	r5, {r1, r2, r8, sl, fp, sp}
    17e8:	2f030501 	svccs	0x00030501
    17ec:	08050106 	stmdaeq	r5, {r1, r2, r8}
    17f0:	0615052e 	ldreq	r0, [r5], -lr, lsr #10
    17f4:	0108052d 	tsteq	r8, sp, lsr #10
    17f8:	062f0305 	strteq	r0, [pc], -r5, lsl #6
    17fc:	2e080501 	cfsh32cs	mvfx0, mvfx8, #1
    1800:	2d061505 	cfstr32cs	mvfx1, [r6, #-20]	; 0xffffffec
    1804:	05010805 	streq	r0, [r1, #-2053]	; 0xfffff7fb
    1808:	01062f03 	tsteq	r6, r3, lsl #30
    180c:	052e0805 	streq	r0, [lr, #-2053]!	; 0xfffff7fb
    1810:	052d0615 	streq	r0, [sp, #-1557]!	; 0xfffff9eb
    1814:	03050108 	movweq	r0, #20744	; 0x5108
    1818:	0501062f 	streq	r0, [r1, #-1583]	; 0xfffff9d1
    181c:	15052e08 	strne	r2, [r5, #-3592]	; 0xfffff1f8
    1820:	08052d06 	stmdaeq	r5, {r1, r2, r8, sl, fp, sp}
    1824:	2f030501 	svccs	0x00030501
    1828:	08050106 	stmdaeq	r5, {r1, r2, r8}
    182c:	0615052e 	ldreq	r0, [r5], -lr, lsr #10
    1830:	0108052d 	tsteq	r8, sp, lsr #10
    1834:	05130305 	ldreq	r0, [r3, #-773]	; 0xfffffcfb
    1838:	05010608 	streq	r0, [r1, #-1544]	; 0xfffff9f8
    183c:	052d0615 	streq	r0, [sp, #-1557]!	; 0xfffff9eb
    1840:	66060108 	strvs	r0, [r6], -r8, lsl #2
    1844:	67060305 	strvs	r0, [r6, -r5, lsl #6]
    1848:	01060805 	tsteq	r6, r5, lsl #16
    184c:	052d1805 	streq	r1, [sp, #-2053]!	; 0xfffff7fb
    1850:	08052e02 	stmdaeq	r5, {r1, r9, sl, fp, sp}
    1854:	0615052f 	ldreq	r0, [r5], -pc, lsr #10
    1858:	0108052d 	tsteq	r8, sp, lsr #10
    185c:	01060205 	tsteq	r6, r5, lsl #4
    1860:	2f060305 	svccs	0x00060305
    1864:	11061805 	tstne	r6, r5, lsl #16
    1868:	052e0205 	streq	r0, [lr, #-517]!	; 0xfffffdfb
    186c:	15052f08 	strne	r2, [r5, #-3848]	; 0xfffff0f8
    1870:	08052d06 	stmdaeq	r5, {r1, r2, r8, sl, fp, sp}
    1874:	13030501 	movwne	r0, #13569	; 0x3501
    1878:	01060805 	tsteq	r6, r5, lsl #16
    187c:	2d061505 	cfstr32cs	mvfx1, [r6, #-20]	; 0xffffffec
    1880:	05010805 	streq	r0, [r1, #-2053]	; 0xfffff7fb
    1884:	4a140605 	bmi	5030a0 <__bss_end__+0x4f7d10>
    1888:	2e060205 	cdpcs	2, 0, cr0, cr6, cr5, {0}
    188c:	19060e05 	stmdbne	r6, {r0, r2, r9, sl, fp}
    1890:	052f0405 	streq	r0, [pc, #-1029]!	; 1493 <__code_start__-0x6b6d>
    1894:	09052f11 	stmdbeq	r5, {r0, r4, r8, r9, sl, fp, sp}
    1898:	3302054a 	movwcc	r0, #9546	; 0x254a
    189c:	72030505 	andvc	r0, r3, #20971520	; 0x1400000
    18a0:	0602052e 	streq	r0, [r2], -lr, lsr #10
    18a4:	0501062f 	streq	r0, [r1, #-1583]	; 0xfffff9d1
    18a8:	0516060e 	ldreq	r0, [r6, #-1550]	; 0xfffff9f2
    18ac:	05131402 	ldreq	r1, [r3, #-1026]	; 0xfffffbfe
    18b0:	02051303 	andeq	r1, r5, #201326592	; 0xc000000
    18b4:	0b051514 	bleq	146d0c <__bss_end__+0x13b97c>
    18b8:	06020501 	streq	r0, [r2], -r1, lsl #10
    18bc:	05662e01 	strbeq	r2, [r6, #-3585]!	; 0xfffff1ff
    18c0:	052f0603 	streq	r0, [pc, #-1539]!	; 12c5 <__code_start__-0x6d3b>
    18c4:	0501060a 	streq	r0, [r1, #-1546]	; 0xfffff9f6
    18c8:	0a052d02 	beq	14ccd8 <__bss_end__+0x141948>
    18cc:	0617052f 	ldreq	r0, [r7], -pc, lsr #10
    18d0:	010b052d 	tsteq	fp, sp, lsr #10
    18d4:	01060205 	tsteq	r6, r5, lsl #4
    18d8:	05054a4a 	streq	r4, [r5, #-2634]	; 0xfffff5b6
    18dc:	01950306 	orrseq	r0, r5, r6, lsl #6
    18e0:	06110501 	ldreq	r0, [r1], -r1, lsl #10
    18e4:	017ef803 	cmneq	lr, r3, lsl #16	; <UNPREDICTABLE>
    18e8:	88031b05 	stmdahi	r3, {r0, r2, r8, r9, fp, ip}
    18ec:	01054a01 	tsteq	r5, r1, lsl #20
    18f0:	7ef30306 	cdpvc	3, 15, cr0, cr3, cr6, {0}
    18f4:	1402052e 	strne	r0, [r2], #-1326	; 0xfffffad2
    18f8:	05141315 	ldreq	r1, [r4, #-789]	; 0xfffffceb
    18fc:	01220319 			; <UNDEFINED> instruction: 0x01220319
    1900:	05131a05 	ldreq	r1, [r3, #-2565]	; 0xfffff5fb
    1904:	05010628 	streq	r0, [r1, #-1576]	; 0xfffff9d8
    1908:	04052e1f 	streq	r2, [r5], #-3615	; 0xfffff1e1
    190c:	4a0e052f 	bmi	382dd0 <__bss_end__+0x377a40>
    1910:	052d1f05 	streq	r1, [sp, #-3845]!	; 0xfffff0fb
    1914:	052f060b 	streq	r0, [pc, #-1547]!	; 1311 <__code_start__-0x6cef>
    1918:	06010604 	streq	r0, [r1], -r4, lsl #12
    191c:	02050132 	andeq	r0, r5, #-2147483636	; 0x8000000c
    1920:	030e0515 	movweq	r0, #58645	; 0xe515
    1924:	05017fb2 	streq	r7, [r1, #-4018]	; 0xfffff04e
    1928:	06051302 	streq	r1, [r5], -r2, lsl #6
    192c:	02050106 	andeq	r0, r5, #-2147483647	; 0x80000001
    1930:	08053006 	stmdaeq	r5, {r1, r2, ip, sp}
    1934:	06020501 	streq	r0, [r2], -r1, lsl #10
    1938:	06030501 	streq	r0, [r3], -r1, lsl #10
    193c:	08052108 	stmdaeq	r5, {r3, r8, sp}
    1940:	15050106 	strne	r0, [r5, #-262]	; 0xfffffefa
    1944:	08054906 	stmdaeq	r5, {r1, r2, r8, fp, lr}
    1948:	d7030501 	strle	r0, [r3, -r1, lsl #10]
    194c:	01060805 	tsteq	r6, r5, lsl #16
    1950:	052d1805 	streq	r1, [sp, #-2053]!	; 0xfffff7fb
    1954:	08052e02 	stmdaeq	r5, {r1, r9, sl, fp, sp}
    1958:	0615052f 	ldreq	r0, [r5], -pc, lsr #10
    195c:	0108052d 	tsteq	r8, sp, lsr #10
    1960:	01060205 	tsteq	r6, r5, lsl #4
    1964:	2f060305 	svccs	0x00060305
    1968:	11061805 	tstne	r6, r5, lsl #16
    196c:	052e0205 	streq	r0, [lr, #-517]!	; 0xfffffdfb
    1970:	15052f08 	strne	r2, [r5, #-3848]	; 0xfffff0f8
    1974:	08052d06 	stmdaeq	r5, {r1, r2, r8, sl, fp, sp}
    1978:	13030501 	movwne	r0, #13569	; 0x3501
    197c:	01060805 	tsteq	r6, r5, lsl #16
    1980:	2d061505 	cfstr32cs	mvfx1, [r6, #-20]	; 0xffffffec
    1984:	05010805 	streq	r0, [r1, #-2053]	; 0xfffff7fb
    1988:	05140605 	ldreq	r0, [r4, #-1541]	; 0xfffff9fb
    198c:	05660602 	strbeq	r0, [r6, #-1538]!	; 0xfffff9fe
    1990:	051a0604 	ldreq	r0, [sl, #-1540]	; 0xfffff9fc
    1994:	4a780305 	bmi	1e025b0 <__bss_end__+0x1df7220>
    1998:	2f060205 	svccs	0x00060205
    199c:	0e050106 	adfeqs	f0, f5, f6
    19a0:	02051606 	andeq	r1, r5, #6291456	; 0x600000
    19a4:	04051314 	streq	r1, [r5], #-788	; 0xfffffcec
    19a8:	03050106 	movweq	r0, #20742	; 0x5106
    19ac:	11052f06 	tstne	r5, r6, lsl #30
    19b0:	09050106 	stmdbeq	r5, {r1, r2, r8}
    19b4:	0602052e 	streq	r0, [r2], -lr, lsr #10
    19b8:	0b051530 	bleq	146e80 <__bss_end__+0x13baf0>
    19bc:	06020501 	streq	r0, [r2], -r1, lsl #10
    19c0:	2e4a4a01 	vmlacs.f32	s9, s20, s2
    19c4:	2f060305 	svccs	0x00060305
    19c8:	01060a05 	tsteq	r6, r5, lsl #20
    19cc:	052d0205 	streq	r0, [sp, #-517]!	; 0xfffffdfb
    19d0:	17052f0a 	strne	r2, [r5, -sl, lsl #30]
    19d4:	0b052d06 	bleq	14cdf4 <__bss_end__+0x141a64>
    19d8:	06020501 	streq	r0, [r2], -r1, lsl #10
    19dc:	062e4a01 	strteq	r4, [lr], -r1, lsl #20
    19e0:	06090514 			; <UNDEFINED> instruction: 0x06090514
    19e4:	06020501 	streq	r0, [r2], -r1, lsl #10
    19e8:	0501064c 	streq	r0, [r1, #-1612]	; 0xfffff9b4
    19ec:	98030605 	stmdals	r3, {r0, r2, r9, sl}
    19f0:	052a0101 	streq	r0, [sl, #-257]!	; 0xfffffeff
    19f4:	05010607 	streq	r0, [r1, #-1543]	; 0xfffff9f9
    19f8:	052f0605 	streq	r0, [pc, #-1541]!	; 13fb <__code_start__-0x6c05>
    19fc:	2e530318 	mrccs	3, 2, r0, cr3, cr8, {0}
    1a00:	01061b05 	tsteq	r6, r5, lsl #22
    1a04:	05821a05 	streq	r1, [r2, #2565]	; 0xa05
    1a08:	054b0609 	strbeq	r0, [fp, #-1545]	; 0xfffff9f7
    1a0c:	2e01060d 	cfmadd32cs	mvax0, mvfx0, mvfx1, mvfx13
    1a10:	05d70905 	ldrbeq	r0, [r7, #2309]	; 0x905
    1a14:	09059d0d 	stmdbeq	r5, {r0, r2, r3, r8, sl, fp, ip, pc}
    1a18:	15052f06 	strne	r2, [r5, #-3846]	; 0xfffff0fa
    1a1c:	06180530 			; <UNDEFINED> instruction: 0x06180530
    1a20:	66170501 	ldrvs	r0, [r7], -r1, lsl #10
    1a24:	052f1905 	streq	r1, [pc, #-2309]!	; 1127 <__code_start__-0x6ed9>
    1a28:	19054917 	stmdbne	r5, {r0, r1, r2, r4, r8, fp, lr}
    1a2c:	15052f06 	strne	r2, [r5, #-3846]	; 0xfffff0fa
    1a30:	2e6f0306 	cdpcs	3, 6, cr0, cr15, cr6, {0}
    1a34:	03061905 	movweq	r1, #26885	; 0x6905
    1a38:	15054a13 	strne	r4, [r5, #-2579]	; 0xfffff5ed
    1a3c:	2e6d0306 	cdpcs	3, 6, cr0, cr13, cr6, {0}
    1a40:	0302054a 	movweq	r0, #9546	; 0x254a
    1a44:	66017fa0 	strvs	r7, [r1], -r0, lsr #31
    1a48:	01720306 	cmneq	r2, r6, lsl #6
    1a4c:	01060505 	tsteq	r6, r5, lsl #10
    1a50:	05360405 	ldreq	r0, [r6, #-1029]!	; 0xfffffbfb
    1a54:	2e780305 	cdpcs	3, 7, cr0, cr8, cr5, {0}
    1a58:	2f060205 	svccs	0x00060205
    1a5c:	0e050106 	adfeqs	f0, f5, f6
    1a60:	02051606 	andeq	r1, r5, #6291456	; 0x600000
    1a64:	04051314 	streq	r1, [r5], #-788	; 0xfffffcec
    1a68:	054a0106 	strbeq	r0, [sl, #-262]	; 0xfffffefa
    1a6c:	78030602 	stmdavc	r3, {r1, r9, sl}
    1a70:	06050501 	streq	r0, [r5], -r1, lsl #10
    1a74:	02054a01 	andeq	r4, r5, #4096	; 0x1000
    1a78:	01064b06 	tsteq	r6, r6, lsl #22
    1a7c:	16060e05 	strne	r0, [r6], -r5, lsl #28
    1a80:	13140205 	tstne	r4, #1342177280	; 0x50000000
    1a84:	0b051515 	bleq	146ee0 <__bss_end__+0x13bb50>
    1a88:	052e0601 	streq	r0, [lr, #-1537]!	; 0xfffff9ff
    1a8c:	9e030611 	mcrls	6, 0, r0, cr3, cr1, {0}
    1a90:	22050101 	andcs	r0, r5, #1073741824	; 0x40000000
    1a94:	05050106 	streq	r0, [r5, #-262]	; 0xfffffefa
    1a98:	2d22052f 	cfstr32cs	mvfx0, [r2, #-188]!	; 0xffffff44
    1a9c:	2f060505 	svccs	0x00060505
    1aa0:	054b1105 	strbeq	r1, [fp, #-261]	; 0xfffffefb
    1aa4:	9e018305 	cdpls	3, 0, cr8, cr1, cr5, {0}
    1aa8:	012e5c03 			; <UNDEFINED> instruction: 0x012e5c03
    1aac:	0602059e 			; <UNDEFINED> instruction: 0x0602059e
    1ab0:	2e7ef303 	cdpcs	3, 7, cr15, cr14, cr3, {0}
    1ab4:	2c06052e 	cfstr32cs	mvfx0, [r6], {46}	; 0x2e
    1ab8:	030d054a 	movweq	r0, #54602	; 0xd54a
    1abc:	050100d8 	streq	r0, [r1, #-216]	; 0xffffff28
    1ac0:	04020004 	streq	r0, [r2], #-4
    1ac4:	11030601 	tstne	r3, r1, lsl #12
    1ac8:	0402004a 	streq	r0, [r2], #-74	; 0xffffffb6
    1acc:	11050101 	tstne	r5, r1, lsl #2
    1ad0:	9e065106 	adflss	f5, f6, f6
    1ad4:	17031505 	strne	r1, [r3, -r5, lsl #10]
    1ad8:	05ba012e 	ldreq	r0, [sl, #302]!	; 0x12e
    1adc:	2e690311 	mcrcs	3, 3, r0, cr9, cr1, {0}
    1ae0:	00280201 	eoreq	r0, r8, r1, lsl #4
    1ae4:	00870101 	addeq	r0, r7, r1, lsl #2
    1ae8:	00030000 	andeq	r0, r3, r0
    1aec:	00000064 	andeq	r0, r0, r4, rrx
    1af0:	0efb0102 	cdpeq	1, 15, cr0, cr11, cr2, {0}
    1af4:	0101000d 	tsteq	r1, sp
    1af8:	00000101 	andeq	r0, r0, r1, lsl #2
    1afc:	00000100 	andeq	r0, r0, r0, lsl #2
    1b00:	732f2e01 			; <UNDEFINED> instruction: 0x732f2e01
    1b04:	66666174 			; <UNDEFINED> instruction: 0x66666174
    1b08:	6372732d 	cmnvs	r2, #-1275068416	; 0xb4000000
    1b0c:	73552f00 	cmpvc	r5, #0, 30
    1b10:	2f737265 	svccs	0x00737265
    1b14:	656c696d 	strbvs	r6, [ip, #-2413]!	; 0xfffff693
    1b18:	6f532f73 	svcvs	0x00532f73
    1b1c:	65637275 	strbvs	r7, [r3, #-629]!	; 0xfffffd8b
    1b20:	3273632f 	rsbscc	r6, r3, #-1140850688	; 0xbc000000
    1b24:	786c3034 	stmdavc	ip!, {r2, r4, r5, ip, sp}^
    1b28:	62696c2f 	rsbvs	r6, r9, #12032	; 0x2f00
    1b2c:	692f6970 	stmdbvs	pc!, {r4, r5, r6, r8, fp, sp, lr}	; <UNPREDICTABLE>
    1b30:	756c636e 	strbvc	r6, [ip, #-878]!	; 0xfffffc92
    1b34:	00006564 	andeq	r6, r0, r4, ror #10
    1b38:	61656c63 	cmnvs	r5, r3, ror #24
    1b3c:	65722d6e 	ldrbvs	r2, [r2, #-3438]!	; 0xfffff292
    1b40:	746f6f62 	strbtvc	r6, [pc], #-3938	; 1b48 <__code_start__-0x64b8>
    1b44:	0100632e 	tsteq	r0, lr, lsr #6
    1b48:	70720000 	rsbsvc	r0, r2, r0
    1b4c:	00682e69 	rsbeq	r2, r8, r9, ror #28
    1b50:	00000002 	andeq	r0, r0, r2
    1b54:	05001905 	streq	r1, [r0, #-2309]	; 0xfffff6fb
    1b58:	009b5402 	addseq	r5, fp, r2, lsl #8
    1b5c:	05051500 	streq	r1, [r5, #-1280]	; 0xfffffb00
    1b60:	06190513 			; <UNDEFINED> instruction: 0x06190513
    1b64:	2f05052d 	svccs	0x0005052d
    1b68:	4b2f6706 	blmi	bdb788 <__bss_end__+0xbd03f8>
    1b6c:	01000602 	tsteq	r0, r2, lsl #12
    1b70:	00011201 	andeq	r1, r1, r1, lsl #4
    1b74:	5e000300 	cdppl	3, 0, cr0, cr0, cr0, {0}
    1b78:	02000000 	andeq	r0, r0, #0, 0
    1b7c:	0d0efb01 	vstreq	d15, [lr, #-4]
    1b80:	01010100 	mrseq	r0, (UNDEF: 17)
    1b84:	00000001 	andeq	r0, r0, r1
    1b88:	01000001 	tsteq	r0, r1
    1b8c:	74732f2e 	ldrbtvc	r2, [r3], #-3886	; 0xfffff0d2
    1b90:	2d666661 	stclcs	6, cr6, [r6, #-388]!	; 0xfffffe7c
    1b94:	00637273 	rsbeq	r7, r3, r3, ror r2
    1b98:	6573552f 	ldrbvs	r5, [r3, #-1327]!	; 0xfffffad1
    1b9c:	6d2f7372 	stcvs	3, cr7, [pc, #-456]!	; 19dc <__code_start__-0x6624>
    1ba0:	73656c69 	cmnvc	r5, #26880	; 0x6900
    1ba4:	756f532f 	strbvc	r5, [pc, #-815]!	; 187d <__code_start__-0x6783>
    1ba8:	2f656372 	svccs	0x00656372
    1bac:	34327363 	ldrtcc	r7, [r2], #-867	; 0xfffffc9d
    1bb0:	2f786c30 	svccs	0x00786c30
    1bb4:	7062696c 	rsbvc	r6, r2, ip, ror #18
    1bb8:	6e692f69 	cdpvs	15, 6, cr2, cr9, cr9, {3}
    1bbc:	64756c63 	ldrbtvs	r6, [r5], #-3171	; 0xfffff39d
    1bc0:	63000065 	movwvs	r0, #101	; 0x65
    1bc4:	72617473 	rsbvc	r7, r1, #1929379840	; 0x73000000
    1bc8:	00632e74 	rsbeq	r2, r3, r4, ror lr
    1bcc:	72000001 	andvc	r0, r0, #1, 0
    1bd0:	682e6970 	stmdavs	lr!, {r4, r5, r6, r8, fp, sp, lr}
    1bd4:	00000200 	andeq	r0, r0, r0, lsl #4
    1bd8:	00100500 	andseq	r0, r0, r0, lsl #10
    1bdc:	9b800205 	blls	fe0023f8 <__bss_end__+0xfdff7068>
    1be0:	05150000 	ldreq	r0, [r5, #-0]
    1be4:	02051305 	andeq	r1, r5, #335544320	; 0x14000000
    1be8:	14050513 	strne	r0, [r5], #-1299	; 0xfffffaed
    1bec:	0e061005 	cdpeq	0, 0, cr1, cr6, cr5, {0}
    1bf0:	06320505 	ldrteq	r0, [r2], -r5, lsl #10
    1bf4:	05141330 	ldreq	r1, [r4, #-816]	; 0xfffffcd0
    1bf8:	0905010a 	stmdbeq	r5, {r1, r3, r8}
    1bfc:	10059108 	andne	r9, r5, r8, lsl #2
    1c00:	0a050106 	beq	142020 <__bss_end__+0x136c90>
    1c04:	6a10059a 	bvs	403274 <__bss_end__+0x3f7ee4>
    1c08:	2d060a05 	vstrcs	s0, [r6, #-20]	; 0xffffffec
    1c0c:	052f0905 	streq	r0, [pc, #-2309]!	; 130f <__code_start__-0x6cf1>
    1c10:	05010610 	streq	r0, [r1, #-1552]	; 0xfffff9f0
    1c14:	052d060a 	streq	r0, [sp, #-1546]!	; 0xfffff9f6
    1c18:	1005bb09 	andne	fp, r5, r9, lsl #22
    1c1c:	0a050106 	beq	14203c <__bss_end__+0x136cac>
    1c20:	09056506 	stmdbeq	r5, {r1, r2, r8, sl, sp, lr}
    1c24:	060d054b 	streq	r0, [sp], -fp, asr #10
    1c28:	2d0a0501 	cfstr32cs	mvfx0, [sl, #-4]
    1c2c:	052f1005 	streq	r1, [pc, #-5]!	; 1c2f <__code_start__-0x63d1>
    1c30:	052d060a 	streq	r0, [sp, #-1546]!	; 0xfffff9f6
    1c34:	0d052f09 	stceq	15, cr2, [r5, #-36]	; 0xffffffdc
    1c38:	0a050106 	beq	142058 <__bss_end__+0x136cc8>
    1c3c:	2f10052d 	svccs	0x0010052d
    1c40:	2d060a05 	vstrcs	s0, [r6, #-20]	; 0xffffffec
    1c44:	052f0905 	streq	r0, [pc, #-2309]!	; 1347 <__code_start__-0x6cb9>
    1c48:	0501060d 	streq	r0, [r1, #-1549]	; 0xfffff9f3
    1c4c:	10052d0a 	andne	r2, r5, sl, lsl #26
    1c50:	060a052f 	streq	r0, [sl], -pc, lsr #10
    1c54:	2f09052d 	svccs	0x0009052d
    1c58:	01060d05 	tsteq	r6, r5, lsl #26
    1c5c:	052d0a05 	streq	r0, [sp, #-2565]!	; 0xfffff5fb
    1c60:	0a052f10 	beq	14d8a8 <__bss_end__+0x142518>
    1c64:	09052d06 	stmdbeq	r5, {r1, r2, r8, sl, fp, sp}
    1c68:	06100513 			; <UNDEFINED> instruction: 0x06100513
    1c6c:	060a0501 	streq	r0, [sl], -r1, lsl #10
    1c70:	1505052d 	strne	r0, [r5, #-1325]	; 0xfffffad3
    1c74:	4a010132 	bmi	42144 <__bss_end__+0x36db4>
    1c78:	2f020514 	svccs	0x00020514
    1c7c:	03060a05 	movweq	r0, #27141	; 0x6a05
    1c80:	08022e73 	stmdaeq	r2, {r0, r1, r4, r5, r6, r9, sl, fp, sp}
    1c84:	7d010100 	stfvcs	f0, [r1, #-0]
    1c88:	03000000 	movweq	r0, #0
    1c8c:	00006500 	andeq	r6, r0, r0, lsl #10
    1c90:	fb010200 	blx	4249a <__bss_end__+0x3710a>
    1c94:	01000d0e 	tsteq	r0, lr, lsl #26
    1c98:	00010101 	andeq	r0, r1, r1, lsl #2
    1c9c:	00010000 	andeq	r0, r1, r0
    1ca0:	2f2e0100 	svccs	0x002e0100
    1ca4:	66617473 			; <UNDEFINED> instruction: 0x66617473
    1ca8:	72732d66 	rsbsvc	r2, r3, #6528	; 0x1980
    1cac:	552f0063 	strpl	r0, [pc, #-99]!	; 1c51 <__code_start__-0x63af>
    1cb0:	73726573 	cmnvc	r2, #482344960	; 0x1cc00000
    1cb4:	6c696d2f 	stclvs	13, cr6, [r9], #-188	; 0xffffff44
    1cb8:	532f7365 			; <UNDEFINED> instruction: 0x532f7365
    1cbc:	6372756f 	cmnvs	r2, #465567744	; 0x1bc00000
    1cc0:	73632f65 	cmnvc	r3, #404	; 0x194
    1cc4:	6c303432 	cfldrsvs	mvf3, [r0], #-200	; 0xffffff38
    1cc8:	696c2f78 	stmdbvs	ip!, {r3, r4, r5, r6, r8, r9, sl, fp, sp}^
    1ccc:	2f697062 	svccs	0x00697062
    1cd0:	6c636e69 	stclvs	14, cr6, [r3], #-420	; 0xfffffe5c
    1cd4:	00656475 	rsbeq	r6, r5, r5, ror r4
    1cd8:	73756300 	cmnvc	r5, #0, 6
    1cdc:	2d6d6f74 	stclcs	15, cr6, [sp, #-464]!	; 0xfffffe30
    1ce0:	64616f6c 	strbtvs	r6, [r1], #-3948	; 0xfffff094
    1ce4:	632e7265 			; <UNDEFINED> instruction: 0x632e7265
    1ce8:	00000100 	andeq	r0, r0, r0, lsl #2
    1cec:	2e697072 	mcrcs	0, 3, r7, cr9, cr2, {3}
    1cf0:	00020068 	andeq	r0, r2, r8, rrx
    1cf4:	1a050000 	bne	141cfc <__bss_end__+0x13696c>
    1cf8:	78020500 	stmdavc	r2, {r8, sl}
    1cfc:	1500009c 	strne	r0, [r0, #-156]	; 0xffffff64
    1d00:	02140105 	andseq	r0, r4, #1073741825	; 0x40000001
    1d04:	01010002 	tsteq	r1, r2
    1d08:	00000114 	andeq	r0, r0, r4, lsl r1
    1d0c:	005e0003 	subseq	r0, lr, r3
    1d10:	01020000 	mrseq	r0, (UNDEF: 2)
    1d14:	000d0efb 	strdeq	r0, [sp], -fp
    1d18:	01010101 	tsteq	r1, r1, lsl #2
    1d1c:	01000000 	mrseq	r0, (UNDEF: 0)
    1d20:	2e010000 	cdpcs	0, 0, cr0, cr1, cr0, {0}
    1d24:	6174732f 	cmnvs	r4, pc, lsr #6
    1d28:	732d6666 			; <UNDEFINED> instruction: 0x732d6666
    1d2c:	2f006372 	svccs	0x00006372
    1d30:	72657355 	rsbvc	r7, r5, #1409286145	; 0x54000001
    1d34:	696d2f73 	stmdbvs	sp!, {r0, r1, r4, r5, r6, r8, r9, sl, fp, sp}^
    1d38:	2f73656c 	svccs	0x0073656c
    1d3c:	72756f53 	rsbsvc	r6, r5, #332	; 0x14c
    1d40:	632f6563 			; <UNDEFINED> instruction: 0x632f6563
    1d44:	30343273 	eorscc	r3, r4, r3, ror r2
    1d48:	6c2f786c 	stcvs	8, cr7, [pc], #-432	; 1ba0 <__code_start__-0x6460>
    1d4c:	69706269 	ldmdbvs	r0!, {r0, r3, r5, r6, r9, sp, lr}^
    1d50:	636e692f 	cmnvs	lr, #770048	; 0xbc000
    1d54:	6564756c 	strbvs	r7, [r4, #-1388]!	; 0xfffffa94
    1d58:	65720000 	ldrbvs	r0, [r2, #-0]!
    1d5c:	746f6f62 	strbtvc	r6, [pc], #-3938	; 1d64 <__code_start__-0x629c>
    1d60:	0100632e 	tsteq	r0, lr, lsr #6
    1d64:	70720000 	rsbsvc	r0, r2, r0
    1d68:	00682e69 	rsbeq	r2, r8, r9, ror #28
    1d6c:	00000002 	andeq	r0, r0, r2
    1d70:	05001905 	streq	r1, [r0, #-2309]	; 0xfffff6fb
    1d74:	009c7c02 	addseq	r7, ip, r2, lsl #24
    1d78:	010d0300 	mrseq	r0, SP_mon
    1d7c:	13130505 	tstne	r3, #20971520	; 0x1400000
    1d80:	06130531 			; <UNDEFINED> instruction: 0x06130531
    1d84:	2f010501 	svccs	0x00010501
    1d88:	85061b05 	strhi	r1, [r6, #-2821]	; 0xfffff4fb
    1d8c:	14130505 	ldrne	r0, [r3], #-1285	; 0xfffffafb
    1d90:	052f0905 	streq	r0, [pc, #-2309]!	; 1493 <__code_start__-0x6b6d>
    1d94:	05010616 	streq	r0, [r1, #-1558]	; 0xfffff9ea
    1d98:	052f0605 	streq	r0, [pc, #-1541]!	; 179b <__code_start__-0x6865>
    1d9c:	0511060e 	ldreq	r0, [r1, #-1550]	; 0xfffff9f2
    1da0:	01052f05 	tsteq	r5, r5, lsl #30
    1da4:	0617052f 	ldreq	r0, [r7], -pc, lsr #10
    1da8:	13050530 	movwne	r0, #21808	; 0x5530
    1dac:	13016e03 	movwne	r6, #7683	; 0x1e03
    1db0:	06170513 			; <UNDEFINED> instruction: 0x06170513
    1db4:	05010f03 	streq	r0, [r1, #-3843]	; 0xfffff0fd
    1db8:	2e710305 	cdpcs	3, 7, cr0, cr1, cr5, {0}
    1dbc:	13053106 	movwne	r3, #20742	; 0x5106
    1dc0:	07050106 	streq	r0, [r5, -r6, lsl #2]
    1dc4:	052e0d03 	streq	r0, [lr, #-3331]!	; 0xfffff2fd
    1dc8:	054b0609 	strbeq	r0, [fp, #-1545]	; 0xfffff9f7
    1dcc:	01760306 	cmneq	r6, r6, lsl #6
    1dd0:	14130505 	ldrne	r0, [r3], #-1285	; 0xfffffafb
    1dd4:	052f0905 	streq	r0, [pc, #-2309]!	; 14d7 <__code_start__-0x6b29>
    1dd8:	05010616 	streq	r0, [r1, #-1558]	; 0xfffff9ea
    1ddc:	052f0605 	streq	r0, [pc, #-1541]!	; 17df <__code_start__-0x6821>
    1de0:	0511060e 	ldreq	r0, [r1, #-1550]	; 0xfffff9f2
    1de4:	062e2f05 	strteq	r2, [lr], -r5, lsl #30
    1de8:	30010a03 	andcc	r0, r1, r3, lsl #20
    1dec:	13134d2f 	tstne	r3, #3008	; 0xbc0
    1df0:	00671513 	rsbeq	r1, r7, r3, lsl r5
    1df4:	67010402 	strvs	r0, [r1, -r2, lsl #8]
    1df8:	02000d05 	andeq	r0, r0, #320	; 0x140
    1dfc:	05010104 	streq	r0, [r1, #-260]	; 0xfffffefc
    1e00:	0402000a 	streq	r0, [r2], #-10
    1e04:	05050101 	streq	r0, [r5, #-257]	; 0xfffffeff
    1e08:	01040200 	mrseq	r0, R12_usr
    1e0c:	000d0501 	andeq	r0, sp, r1, lsl #10
    1e10:	01010402 	tsteq	r1, r2, lsl #8
    1e14:	02000a05 	andeq	r0, r0, #20480	; 0x5000
    1e18:	02010104 	andeq	r0, r1, #1
    1e1c:	0101000a 	tsteq	r1, sl
    1e20:	000001fa 	strdeq	r0, [r0], -sl
    1e24:	005d0003 	subseq	r0, sp, r3
    1e28:	01020000 	mrseq	r0, (UNDEF: 2)
    1e2c:	000d0efb 	strdeq	r0, [sp], -fp
    1e30:	01010101 	tsteq	r1, r1, lsl #2
    1e34:	01000000 	mrseq	r0, (UNDEF: 0)
    1e38:	2e010000 	cdpcs	0, 0, cr0, cr1, cr0, {0}
    1e3c:	6174732f 	cmnvs	r4, pc, lsr #6
    1e40:	732d6666 			; <UNDEFINED> instruction: 0x732d6666
    1e44:	2f006372 	svccs	0x00006372
    1e48:	72657355 	rsbvc	r7, r5, #1409286145	; 0x54000001
    1e4c:	696d2f73 	stmdbvs	sp!, {r0, r1, r4, r5, r6, r8, r9, sl, fp, sp}^
    1e50:	2f73656c 	svccs	0x0073656c
    1e54:	72756f53 	rsbsvc	r6, r5, #332	; 0x14c
    1e58:	632f6563 			; <UNDEFINED> instruction: 0x632f6563
    1e5c:	30343273 	eorscc	r3, r4, r3, ror r2
    1e60:	6c2f786c 	stcvs	8, cr7, [pc], #-432	; 1cb8 <__code_start__-0x6348>
    1e64:	69706269 	ldmdbvs	r0!, {r0, r3, r5, r6, r9, sp, lr}^
    1e68:	636e692f 	cmnvs	lr, #770048	; 0xbc000
    1e6c:	6564756c 	strbvs	r7, [r4, #-1388]!	; 0xfffffa94
    1e70:	69740000 	ldmdbvs	r4!, {}^	; <UNPREDICTABLE>
    1e74:	2e72656d 	cdpcs	5, 7, cr6, cr2, cr13, {3}
    1e78:	00010063 	andeq	r0, r1, r3, rrx
    1e7c:	69707200 	ldmdbvs	r0!, {r9, ip, sp, lr}^
    1e80:	0200682e 	andeq	r6, r0, #3014656	; 0x2e0000
    1e84:	05000000 	streq	r0, [r0, #-0]
    1e88:	02050023 	andeq	r0, r5, #35, 0	; 0x23
    1e8c:	00009d08 	andeq	r9, r0, r8, lsl #26
    1e90:	13050515 	movwne	r0, #21781	; 0x5515
    1e94:	01060c05 	tsteq	r6, r5, lsl #24
    1e98:	6a061f05 	bvs	189ab4 <__bss_end__+0x17e724>
    1e9c:	05150505 	ldreq	r0, [r5, #-1285]	; 0xfffffafb
    1ea0:	050f061f 	streq	r0, [pc, #-1567]	; 1889 <__code_start__-0x6777>
    1ea4:	2f063105 	svccs	0x00063105
    1ea8:	77030a05 	strvc	r0, [r3, -r5, lsl #20]
    1eac:	13050501 	movwne	r0, #21761	; 0x5501
    1eb0:	01060c05 	tsteq	r6, r5, lsl #24
    1eb4:	06050566 	streq	r0, [r5], -r6, ror #10
    1eb8:	2f010903 	svccs	0x00010903
    1ebc:	13060105 	movwne	r0, #24837	; 0x6105
    1ec0:	68061c05 	stmdavs	r6, {r0, r2, sl, fp, ip}
    1ec4:	05130505 	ldreq	r0, [r3, #-1285]	; 0xfffffafb
    1ec8:	0176030a 	cmneq	r6, sl, lsl #6
    1ecc:	05150505 	ldreq	r0, [r5, #-1285]	; 0xfffffafb
    1ed0:	2e18061c 	mrccs	6, 0, r0, cr8, cr12, {0}
    1ed4:	7a030505 	bvc	c32f0 <__bss_end__+0xb7f60>
    1ed8:	052f062e 	streq	r0, [pc, #-1582]!	; 18b2 <__code_start__-0x674e>
    1edc:	0177030a 	cmneq	r7, sl, lsl #6
    1ee0:	05130505 	ldreq	r0, [r3, #-1285]	; 0xfffffafb
    1ee4:	6601060c 	strvs	r0, [r1], -ip, lsl #12
    1ee8:	03060505 	movweq	r0, #25861	; 0x6505
    1eec:	062f0109 	strteq	r0, [pc], -r9, lsl #2
    1ef0:	030c0501 	movweq	r0, #50433	; 0xc501
    1ef4:	05050176 	streq	r0, [r5, #-374]	; 0xfffffe8a
    1ef8:	2e0f0306 	cdpcs	3, 0, cr0, cr15, cr6, {0}
    1efc:	05130905 	ldreq	r0, [r3, #-2309]	; 0xfffff6fb
    1f00:	0174030a 	cmneq	r4, sl, lsl #6
    1f04:	2f150505 	svccs	0x00150505
    1f08:	77030a05 	strvc	r0, [r3, -r5, lsl #20]
    1f0c:	13050501 	movwne	r0, #21761	; 0x5501
    1f10:	01060c05 	tsteq	r6, r5, lsl #24
    1f14:	06050566 	streq	r0, [r5], -r6, ror #10
    1f18:	05010903 	streq	r0, [r1, #-2307]	; 0xfffff6fd
    1f1c:	051a0611 	ldreq	r0, [sl, #-1553]	; 0xfffff9ef
    1f20:	2e780305 	cdpcs	3, 7, cr0, cr8, cr5, {0}
    1f24:	09052f06 	stmdbeq	r5, {r1, r2, r8, r9, sl, fp, sp}
    1f28:	060c0519 			; <UNDEFINED> instruction: 0x060c0519
    1f2c:	061c0501 	ldreq	r0, [ip], -r1, lsl #10
    1f30:	13050587 	movwne	r0, #21895	; 0x5587
    1f34:	11061c05 	tstne	r6, r5, lsl #24
    1f38:	4a2f0505 	bmi	bc3354 <__bss_end__+0xbb7fc4>
    1f3c:	03060605 	movweq	r0, #26117	; 0x6605
    1f40:	05052e76 	streq	r2, [r5, #-3702]	; 0xfffff18a
    1f44:	030a0513 	movweq	r0, #42259	; 0xa513
    1f48:	05050176 	streq	r0, [r5, #-374]	; 0xfffffe8a
    1f4c:	0a052f15 	beq	14dba8 <__bss_end__+0x142818>
    1f50:	05017703 	streq	r7, [r1, #-1795]	; 0xfffff8fd
    1f54:	0c051305 	stceq	3, cr1, [r5], {5}
    1f58:	05660106 	strbeq	r0, [r6, #-262]!	; 0xfffffefa
    1f5c:	09030605 	stmdbeq	r3, {r0, r2, r9, sl}
    1f60:	01062f01 	tsteq	r6, r1, lsl #30
    1f64:	76030c05 	strvc	r0, [r3], -r5, lsl #24
    1f68:	06050501 	streq	r0, [r5], -r1, lsl #10
    1f6c:	052e0f03 	streq	r0, [lr, #-3843]!	; 0xfffff0fd
    1f70:	0a051309 	beq	146b9c <__bss_end__+0x13b80c>
    1f74:	05017403 	streq	r7, [r1, #-1027]	; 0xfffffbfd
    1f78:	052f1505 	streq	r1, [pc, #-1285]!	; 1a7b <__code_start__-0x6585>
    1f7c:	0177030a 	cmneq	r7, sl, lsl #6
    1f80:	05130505 	ldreq	r0, [r3, #-1285]	; 0xfffffafb
    1f84:	6601060c 	strvs	r0, [r1], -ip, lsl #12
    1f88:	03060505 	movweq	r0, #25861	; 0x6505
    1f8c:	11050109 	tstne	r5, r9, lsl #2
    1f90:	05051a06 	streq	r1, [r5, #-2566]	; 0xfffff5fa
    1f94:	062e7803 	strteq	r7, [lr], -r3, lsl #16
    1f98:	1909052f 	stmdbne	r9, {r0, r1, r2, r3, r5, r8, sl}
    1f9c:	01060c05 	tsteq	r6, r5, lsl #24
    1fa0:	8a061e05 	bhi	1897bc <__bss_end__+0x17e42c>
    1fa4:	05130505 	ldreq	r0, [r3, #-1285]	; 0xfffffafb
    1fa8:	05050e06 	streq	r0, [r5, #-3590]	; 0xfffff1fa
    1fac:	061e0513 			; <UNDEFINED> instruction: 0x061e0513
    1fb0:	2c050514 	cfstr32cs	mvfx0, [r5], {20}
    1fb4:	06060566 	streq	r0, [r6], -r6, ror #10
    1fb8:	052e7603 	streq	r7, [lr, #-1539]!	; 0xfffff9fd
    1fbc:	0a051305 	beq	146bd8 <__bss_end__+0x13b848>
    1fc0:	05017603 	streq	r7, [r1, #-1539]	; 0xfffff9fd
    1fc4:	052f1505 	streq	r1, [pc, #-1285]!	; 1ac7 <__code_start__-0x6539>
    1fc8:	0177030a 	cmneq	r7, sl, lsl #6
    1fcc:	05130505 	ldreq	r0, [r3, #-1285]	; 0xfffffafb
    1fd0:	6601060c 	strvs	r0, [r1], -ip, lsl #12
    1fd4:	03060505 	movweq	r0, #25861	; 0x6505
    1fd8:	062f0109 	strteq	r0, [pc], -r9, lsl #2
    1fdc:	030c0501 	movweq	r0, #50433	; 0xc501
    1fe0:	05050176 	streq	r0, [r5, #-374]	; 0xfffffe8a
    1fe4:	2e0f0306 	cdpcs	3, 0, cr0, cr15, cr6, {0}
    1fe8:	05130905 	ldreq	r0, [r3, #-2309]	; 0xfffff6fb
    1fec:	0174030a 	cmneq	r4, sl, lsl #6
    1ff0:	2f150505 	svccs	0x00150505
    1ff4:	77030a05 	strvc	r0, [r3, -r5, lsl #20]
    1ff8:	13050501 	movwne	r0, #21761	; 0x5501
    1ffc:	01060c05 	tsteq	r6, r5, lsl #24
    2000:	06050566 	streq	r0, [r5], -r6, ror #10
    2004:	05010903 	streq	r0, [r1, #-2307]	; 0xfffff6fd
    2008:	051a0611 	ldreq	r0, [sl, #-1553]	; 0xfffff9ef
    200c:	2e780305 	cdpcs	3, 7, cr0, cr8, cr5, {0}
    2010:	09052f06 	stmdbeq	r5, {r1, r2, r8, r9, sl, fp, sp}
    2014:	060c0519 			; <UNDEFINED> instruction: 0x060c0519
    2018:	00080201 	andeq	r0, r8, r1, lsl #4
    201c:	02040101 	andeq	r0, r4, #1073741824	; 0x40000000
    2020:	00030000 	andeq	r0, r3, r0
    2024:	000000c8 	andeq	r0, r0, r8, asr #1
    2028:	0efb0102 	cdpeq	1, 15, cr0, cr11, cr2, {0}
    202c:	0101000d 	tsteq	r1, sp
    2030:	00000101 	andeq	r0, r0, r1, lsl #2
    2034:	00000100 	andeq	r0, r0, r0, lsl #2
    2038:	6f682f01 	svcvs	0x00682f01
    203c:	652f656d 	strvs	r6, [pc, #-1389]!	; 1ad7 <__code_start__-0x6529>
    2040:	656c676e 	strbvs	r6, [ip, #-1902]!	; 0xfffff892
    2044:	6c632f72 	stclvs	15, cr2, [r3], #-456	; 0xfffffe38
    2048:	2f737361 	svccs	0x00737361
    204c:	34317363 	ldrtcc	r7, [r1], #-867	; 0xfffffc9d
    2050:	322d6530 	eorcc	r6, sp, #48, 10	; 0xc000000
    2054:	6e697732 	mcrvs	7, 3, r7, cr9, cr2, {1}
    2058:	696c2f2f 	stmdbvs	ip!, {r0, r1, r2, r3, r5, r8, r9, sl, fp, sp}^
    205c:	2f697062 	svccs	0x00697062
    2060:	6c636e69 	stclvs	14, cr6, [r3], #-420	; 0xfffffe5c
    2064:	00656475 	rsbeq	r6, r5, r5, ror r4
    2068:	7273752f 	rsbsvc	r7, r3, #197132288	; 0xbc00000
    206c:	6168732f 	cmnvs	r8, pc, lsr #6
    2070:	672f6572 			; <UNDEFINED> instruction: 0x672f6572
    2074:	612d6363 			; <UNDEFINED> instruction: 0x612d6363
    2078:	6e2d6d72 	mcrvs	13, 1, r6, cr13, cr2, {3}
    207c:	2d656e6f 	stclcs	14, cr6, [r5, #-444]!	; 0xfffffe44
    2080:	69626165 	stmdbvs	r2!, {r0, r2, r5, r6, r8, sp, lr}^
    2084:	2e30312d 	rsfcssp	f3, f0, #5.0
    2088:	30322d33 	eorscc	r2, r2, r3, lsr sp
    208c:	312e3132 			; <UNDEFINED> instruction: 0x312e3132
    2090:	696c2f30 	stmdbvs	ip!, {r4, r5, r8, r9, sl, fp, sp}^
    2094:	63672f62 	cmnvs	r7, #392	; 0x188
    2098:	72612f63 	rsbvc	r2, r1, #396	; 0x18c
    209c:	6f6e2d6d 	svcvs	0x006e2d6d
    20a0:	652d656e 	strvs	r6, [sp, #-1390]!	; 0xfffffa92
    20a4:	2f696261 	svccs	0x00696261
    20a8:	332e3031 			; <UNDEFINED> instruction: 0x332e3031
    20ac:	692f312e 	stmdbvs	pc!, {r1, r2, r3, r5, r8, ip, sp}	; <UNPREDICTABLE>
    20b0:	756c636e 	strbvc	r6, [ip, #-878]!	; 0xfffffc92
    20b4:	00006564 	andeq	r6, r0, r4, ror #10
    20b8:	74726175 	ldrbtvc	r6, [r2], #-373	; 0xfffffe8b
    20bc:	0000632e 	andeq	r6, r0, lr, lsr #6
    20c0:	61750000 	cmnvs	r5, r0
    20c4:	682e7472 	stmdavs	lr!, {r1, r4, r5, r6, sl, ip, sp, lr}
    20c8:	00000100 	andeq	r0, r0, r0, lsl #2
    20cc:	2e697072 	mcrcs	0, 3, r7, cr9, cr2, {3}
    20d0:	00010068 	andeq	r0, r1, r8, rrx
    20d4:	69706700 	ldmdbvs	r0!, {r8, r9, sl, sp, lr}^
    20d8:	00682e6f 	rsbeq	r2, r8, pc, ror #28
    20dc:	73000001 	movwvc	r0, #1
    20e0:	6e696474 	mcrvs	4, 3, r6, cr9, cr4, {3}
    20e4:	63672d74 	cmnvs	r7, #116, 26	; 0x1d00
    20e8:	00682e63 	rsbeq	r2, r8, r3, ror #28
    20ec:	00000002 	andeq	r0, r0, r2
    20f0:	05003905 	streq	r3, [r0, #-2309]	; 0xfffff6fb
    20f4:	009e2402 	addseq	r2, lr, r2, lsl #8
    20f8:	01300300 	teqeq	r0, r0, lsl #6
    20fc:	05050106 	streq	r0, [r5, #-262]	; 0xfffffefa
    2100:	11056706 	tstne	r5, r6, lsl #14
    2104:	05050106 	streq	r0, [r5, #-262]	; 0xfffffefa
    2108:	6701052e 	strvs	r0, [r1, -lr, lsr #10]
    210c:	29063805 	stmdbcs	r6, {r0, r2, fp, ip, sp}
    2110:	05050106 	streq	r0, [r5, #-262]	; 0xfffffefa
    2114:	11056706 	tstne	r5, r6, lsl #14
    2118:	05050106 	streq	r0, [r5, #-262]	; 0xfffffefa
    211c:	6701052e 	strvs	r0, [r1, -lr, lsr #10]
    2120:	03061605 	movweq	r1, #26117	; 0x6605
    2124:	05052e15 	streq	r2, [r5, #-3605]	; 0xfffff1eb
    2128:	35686735 	strbcc	r6, [r8, #-1845]!	; 0xfffff8cb
    212c:	2e0c0368 	cdpcs	3, 0, cr0, cr12, cr8, {3}
    2130:	69696b85 	stmdbvs	r9!, {r0, r2, r7, r8, r9, fp, sp, lr}^
    2134:	13660c03 	cmnne	r6, #768	; 0x300
    2138:	0105676b 	tsteq	r5, fp, ror #14
    213c:	19052f06 	stmdbne	r5, {r1, r2, r8, r9, sl, fp, sp}
    2140:	05250806 	streq	r0, [r5, #-2054]!	; 0xfffff7fa
    2144:	0d053405 	cfstrseq	mvf3, [r5, #-20]	; 0xffffffec
    2148:	01050106 	tsteq	r5, r6, lsl #2
    214c:	0619054c 	ldreq	r0, [r9], -ip, asr #10
    2150:	36050567 	strcc	r0, [r5], -r7, ror #10
    2154:	01060d05 	tsteq	r6, r5, lsl #26
    2158:	054a2805 	strbeq	r2, [sl, #-2053]	; 0xfffff7fb
    215c:	15053001 	strne	r3, [r5, #-1]
    2160:	05058706 	streq	r8, [r5, #-1798]	; 0xfffff8fa
    2164:	09052f2f 	stmdbeq	r5, {r0, r1, r2, r3, r5, r8, r9, sl, fp, sp}
    2168:	01040200 	mrseq	r0, R12_usr
    216c:	000a0513 	andeq	r0, sl, r3, lsl r5
    2170:	11010402 	tstne	r1, r2, lsl #8
    2174:	02000c05 	andeq	r0, r0, #1280	; 0x500
    2178:	01060104 	tsteq	r6, r4, lsl #2
    217c:	02000a05 	andeq	r0, r0, #20480	; 0x5000
    2180:	052e0104 	streq	r0, [lr, #-260]!	; 0xfffffefc
    2184:	054c0605 	strbeq	r0, [ip, #-1541]	; 0xfffff9fb
    2188:	0501060e 	streq	r0, [r1, #-1550]	; 0xfffff9f2
    218c:	05054a09 	streq	r4, [r5, #-2569]	; 0xfffff5f7
    2190:	052f2f06 	streq	r2, [pc, #-3846]!	; 1292 <__code_start__-0x6d6e>
    2194:	05130601 	ldreq	r0, [r3, #-1537]	; 0xfffff9ff
    2198:	0667061c 			; <UNDEFINED> instruction: 0x0667061c
    219c:	06050501 	streq	r0, [r5], -r1, lsl #10
    21a0:	09052f4b 	stmdbeq	r5, {r0, r1, r3, r6, r8, r9, sl, fp, sp}
    21a4:	01040200 	mrseq	r0, R12_usr
    21a8:	000a0513 	andeq	r0, sl, r3, lsl r5
    21ac:	11010402 	tstne	r1, r2, lsl #8
    21b0:	02000c05 	andeq	r0, r0, #1280	; 0x500
    21b4:	01060104 	tsteq	r6, r4, lsl #2
    21b8:	02000a05 	andeq	r0, r0, #20480	; 0x5000
    21bc:	052e0104 	streq	r0, [lr, #-260]!	; 0xfffffefc
    21c0:	674c0605 	strbvs	r0, [ip, -r5, lsl #12]
    21c4:	2f060105 	svccs	0x00060105
    21c8:	4c061905 			; <UNDEFINED> instruction: 0x4c061905
    21cc:	052e1b05 	streq	r1, [lr, #-2821]!	; 0xfffff4fb
    21d0:	31052e2a 	tstcc	r5, sl, lsr #28
    21d4:	42050106 	andmi	r0, r5, #-2147483647	; 0x80000001
    21d8:	061c052e 	ldreq	r0, [ip], -lr, lsr #10
    21dc:	2f050531 	svccs	0x00050531
    21e0:	052e0903 	streq	r0, [lr, #-2307]!	; 0xfffff6fd
    21e4:	0501060e 	streq	r0, [r1, #-1550]	; 0xfffff9f2
    21e8:	01054a21 	tsteq	r5, r1, lsr #20
    21ec:	052e0a03 	streq	r0, [lr, #-2563]!	; 0xfffff5fd
    21f0:	0568061a 	strbeq	r0, [r8, #-1562]!	; 0xfffff9e6
    21f4:	04020009 	streq	r0, [r2], #-9
    21f8:	0a053001 	beq	14e204 <__bss_end__+0x142e74>
    21fc:	01040200 	mrseq	r0, R12_usr
    2200:	000c0511 	andeq	r0, ip, r1, lsl r5
    2204:	06010402 	streq	r0, [r1], -r2, lsl #8
    2208:	000a0501 	andeq	r0, sl, r1, lsl #10
    220c:	2e010402 	cdpcs	4, 0, cr0, cr1, cr2, {0}
    2210:	03061905 	movweq	r1, #26885	; 0x6905
    2214:	05667ee8 	strbeq	r7, [r6, #-3816]!	; 0xfffff118
    2218:	2f2f2f05 	svccs	0x002f2f05
    221c:	06010567 	streq	r0, [r1], -r7, ror #10
    2220:	0004022f 	andeq	r0, r4, pc, lsr #4
    2224:	03920101 	orrseq	r0, r2, #1073741824	; 0x40000000
    2228:	00030000 	andeq	r0, r3, r0
    222c:	000000b7 	strheq	r0, [r0], -r7
    2230:	0efb0102 	cdpeq	1, 15, cr0, cr11, cr2, {0}
    2234:	0101000d 	tsteq	r1, sp
    2238:	00000101 	andeq	r0, r0, r1, lsl #2
    223c:	00000100 	andeq	r0, r0, r0, lsl #2
    2240:	6f682f01 	svcvs	0x00682f01
    2244:	652f656d 	strvs	r6, [pc, #-1389]!	; 1cdf <__code_start__-0x6321>
    2248:	656c676e 	strbvs	r6, [ip, #-1902]!	; 0xfffff892
    224c:	6c632f72 	stclvs	15, cr2, [r3], #-456	; 0xfffffe38
    2250:	2f737361 	svccs	0x00737361
    2254:	34317363 	ldrtcc	r7, [r1], #-867	; 0xfffffc9d
    2258:	322d6530 	eorcc	r6, sp, #48, 10	; 0xc000000
    225c:	6e697732 	mcrvs	7, 3, r7, cr9, cr2, {1}
    2260:	696c2f2f 	stmdbvs	ip!, {r0, r1, r2, r3, r5, r8, r9, sl, fp, sp}^
    2264:	2f697062 	svccs	0x00697062
    2268:	6c636e69 	stclvs	14, cr6, [r3], #-420	; 0xfffffe5c
    226c:	00656475 	rsbeq	r6, r5, r5, ror r4
    2270:	7273752f 	rsbsvc	r7, r3, #197132288	; 0xbc00000
    2274:	6168732f 	cmnvs	r8, pc, lsr #6
    2278:	672f6572 			; <UNDEFINED> instruction: 0x672f6572
    227c:	612d6363 			; <UNDEFINED> instruction: 0x612d6363
    2280:	6e2d6d72 	mcrvs	13, 1, r6, cr13, cr2, {3}
    2284:	2d656e6f 	stclcs	14, cr6, [r5, #-444]!	; 0xfffffe44
    2288:	69626165 	stmdbvs	r2!, {r0, r2, r5, r6, r8, sp, lr}^
    228c:	2e30312d 	rsfcssp	f3, f0, #5.0
    2290:	30322d33 	eorscc	r2, r2, r3, lsr sp
    2294:	312e3132 			; <UNDEFINED> instruction: 0x312e3132
    2298:	696c2f30 	stmdbvs	ip!, {r4, r5, r8, r9, sl, fp, sp}^
    229c:	63672f62 	cmnvs	r7, #392	; 0x188
    22a0:	72612f63 	rsbvc	r2, r1, #396	; 0x18c
    22a4:	6f6e2d6d 	svcvs	0x006e2d6d
    22a8:	652d656e 	strvs	r6, [sp, #-1390]!	; 0xfffffa92
    22ac:	2f696261 	svccs	0x00696261
    22b0:	332e3031 			; <UNDEFINED> instruction: 0x332e3031
    22b4:	692f312e 	stmdbvs	pc!, {r1, r2, r3, r5, r8, ip, sp}	; <UNPREDICTABLE>
    22b8:	756c636e 	strbvc	r6, [ip, #-878]!	; 0xfffffc92
    22bc:	00006564 	andeq	r6, r0, r4, ror #10
    22c0:	6c616d6b 	stclvs	13, cr6, [r1], #-428	; 0xfffffe54
    22c4:	2e636f6c 	cdpcs	15, 6, cr6, cr3, cr12, {3}
    22c8:	00000063 	andeq	r0, r0, r3, rrx
    22cc:	69707200 	ldmdbvs	r0!, {r9, ip, sp, lr}^
    22d0:	0100682e 	tsteq	r0, lr, lsr #16
    22d4:	74730000 	ldrbtvc	r0, [r3], #-0
    22d8:	746e6964 	strbtvc	r6, [lr], #-2404	; 0xfffff69c
    22dc:	6363672d 	cmnvs	r3, #11796480	; 0xb40000
    22e0:	0200682e 	andeq	r6, r0, #3014656	; 0x2e0000
    22e4:	05000000 	streq	r0, [r0, #-0]
    22e8:	0205001e 	andeq	r0, r5, #30, 0
    22ec:	0000a014 	andeq	sl, r0, r4, lsl r0
    22f0:	05012703 	streq	r2, [r1, #-1795]	; 0xfffff8fd
    22f4:	2d050120 	stfcss	f0, [r5, #-128]	; 0xffffff80
    22f8:	20050106 	andcs	r0, r5, r6, lsl #2
    22fc:	22058306 	andcs	r8, r5, #402653184	; 0x18000000
    2300:	06350501 	ldrteq	r0, [r5], -r1, lsl #10
    2304:	061e0501 	ldreq	r0, [lr], -r1, lsl #10
    2308:	01200583 	smlawbeq	r0, r3, r5, r0
    230c:	01062d05 	tsteq	r6, r5, lsl #26
    2310:	85064205 	strhi	r4, [r6, #-517]	; 0xfffffdfb
    2314:	05050106 	streq	r0, [r5, #-262]	; 0xfffffefa
    2318:	01144b06 	tsteq	r4, r6, lsl #22
    231c:	02002e06 	andeq	r2, r0, #96	; 0x60
    2320:	2e060204 	cdpcs	2, 0, cr0, cr6, cr4, {0}
    2324:	02040200 	andeq	r0, r4, #0, 4
    2328:	04020001 	streq	r0, [r2], #-1
    232c:	0d051502 	cfstr32eq	mvfx1, [r5, #-8]
    2330:	02040200 	andeq	r0, r4, #0, 4
    2334:	07050106 	streq	r0, [r5, -r6, lsl #2]
    2338:	02040200 	andeq	r0, r4, #0, 4
    233c:	0609054a 	streq	r0, [r9], -sl, asr #10
    2340:	1505054b 	strne	r0, [r5, #-1355]	; 0xfffffab5
    2344:	01061705 	tsteq	r6, r5, lsl #14
    2348:	054a1005 	strbeq	r1, [sl, #-5]
    234c:	052f0605 	streq	r0, [pc, #-1541]!	; 1d4f <__code_start__-0x62b1>
    2350:	0501061b 	streq	r0, [r1, #-1563]	; 0xfffff9e5
    2354:	01052e0e 	tsteq	r5, lr, lsl #28
    2358:	0005052f 	andeq	r0, r5, pc, lsr #10
    235c:	06010402 	streq	r0, [r1], -r2, lsl #8
    2360:	004a7703 	subeq	r7, sl, r3, lsl #14
    2364:	01010402 	tsteq	r1, r2, lsl #8
    2368:	01040200 	mrseq	r0, R12_usr
    236c:	02009e06 	andeq	r9, r0, #96	; 0x60
    2370:	002e0104 	eoreq	r0, lr, r4, lsl #2
    2374:	06010402 	streq	r0, [r1], -r2, lsl #8
    2378:	3209052e 	andcc	r0, r9, #192937984	; 0xb800000
    237c:	2ed60601 	cdpcs	6, 13, cr0, cr6, cr1, {0}
    2380:	19052e06 	stmdbne	r5, {r1, r2, r9, sl, fp, sp}
    2384:	2f0505de 	svccs	0x000505de
    2388:	06080514 			; <UNDEFINED> instruction: 0x06080514
    238c:	4a070501 	bmi	1c3798 <__bss_end__+0x1b8408>
    2390:	4b060905 	blmi	1847ac <__bss_end__+0x17941c>
    2394:	05130505 	ldreq	r0, [r3, #-1285]	; 0xfffffafb
    2398:	0501060c 	streq	r0, [r1, #-1548]	; 0xfffff9f4
    239c:	13670605 	cmnne	r7, #5242880	; 0x500000
    23a0:	67060105 	strvs	r0, [r6, -r5, lsl #2]
    23a4:	2a060905 	bcs	1847c0 <__bss_end__+0x179430>
    23a8:	28059e01 	stmdacs	r5, {r0, r9, sl, fp, ip, pc}
    23ac:	050106a5 	streq	r0, [r1, #-1701]	; 0xfffff95b
    23b0:	014b0605 	cmpeq	fp, r5, lsl #12
    23b4:	2e062e06 	cdpcs	14, 0, cr2, cr6, cr6, {0}
    23b8:	18051301 	stmdane	r5, {r0, r8, r9, ip}
    23bc:	05014703 	streq	r4, [r1, #-1795]	; 0xfffff8fd
    23c0:	06011305 	streq	r1, [r1], -r5, lsl #6
    23c4:	150f0601 	strne	r0, [pc, #-1537]	; 1dcb <__code_start__-0x6235>
    23c8:	0e051301 	cdpeq	3, 0, cr1, cr5, cr1, {0}
    23cc:	16050106 	strne	r0, [r5], -r6, lsl #2
    23d0:	05052e2e 	streq	r2, [r5, #-3630]	; 0xfffff1d2
    23d4:	01390306 	teqeq	r9, r6, lsl #6
    23d8:	01060b05 	tsteq	r6, r5, lsl #22
    23dc:	4b060505 	blmi	1837f8 <__bss_end__+0x178468>
    23e0:	01060a05 	tsteq	r6, r5, lsl #20
    23e4:	4b060505 	blmi	183800 <__bss_end__+0x178470>
    23e8:	01060d05 	tsteq	r6, r5, lsl #26
    23ec:	052e0705 	streq	r0, [lr, #-1797]!	; 0xfffff8fb
    23f0:	05054d01 	streq	r4, [r5, #-3329]	; 0xfffff2ff
    23f4:	01040200 	mrseq	r0, R12_usr
    23f8:	4a780306 	bmi	1e03018 <__bss_end__+0x1df7c88>
    23fc:	01040200 	mrseq	r0, R12_usr
    2400:	04020001 	streq	r0, [r2], #-1
    2404:	00ba0601 	adcseq	r0, sl, r1, lsl #12
    2408:	06010402 	streq	r0, [r1], -r2, lsl #8
    240c:	3409052e 	strcc	r0, [r9], #-1326	; 0xfffffad2
    2410:	66820601 	strvs	r0, [r2], r1, lsl #12
    2414:	20052e06 	andcs	r2, r5, r6, lsl #28
    2418:	050106db 	streq	r0, [r1, #-1755]	; 0xfffff925
    241c:	014b0605 	cmpeq	fp, r5, lsl #12
    2420:	02040200 	andeq	r0, r4, #0, 4
    2424:	0402004a 	streq	r0, [r2], #-74	; 0xffffffb6
    2428:	02000102 	andeq	r0, r0, #-2147483648	; 0x80000000
    242c:	05130204 	ldreq	r0, [r3, #-516]	; 0xfffffdfc
    2430:	04020012 	streq	r0, [r2], #-18	; 0xffffffee
    2434:	00010602 	andeq	r0, r1, r2, lsl #12
    2438:	2e020402 	cdpcs	4, 0, cr0, cr2, cr2, {0}
    243c:	02040200 	andeq	r0, r4, #0, 4
    2440:	0005052e 	andeq	r0, r5, lr, lsr #10
    2444:	06020402 	streq	r0, [r2], -r2, lsl #8
    2448:	0402002f 	streq	r0, [r2], #-47	; 0xffffffd1
    244c:	01056702 	tsteq	r5, r2, lsl #14
    2450:	02040200 	andeq	r0, r4, #0, 4
    2454:	05051306 	streq	r1, [r5, #-774]	; 0xfffffcfa
    2458:	01040200 	mrseq	r0, R12_usr
    245c:	02006206 	andeq	r6, r0, #1610612736	; 0x60000000
    2460:	00010104 	andeq	r0, r1, r4, lsl #2
    2464:	06010402 	streq	r0, [r1], -r2, lsl #8
    2468:	040200ba 	streq	r0, [r2], #-186	; 0xffffff46
    246c:	052e0601 	streq	r0, [lr, #-1537]!	; 0xfffff9ff
    2470:	9e0a033c 	mcrls	3, 0, r0, cr10, cr12, {1}
    2474:	05050106 	streq	r0, [r5, #-262]	; 0xfffffefa
    2478:	06014b06 	streq	r4, [r1], -r6, lsl #22
    247c:	012e062e 			; <UNDEFINED> instruction: 0x012e062e
    2480:	18050113 	stmdane	r5, {r0, r1, r4, r8}
    2484:	017fad03 	cmneq	pc, r3, lsl #26
    2488:	05130505 	ldreq	r0, [r3, #-1285]	; 0xfffffafb
    248c:	2e010611 	mcrcs	6, 0, r0, cr1, cr1, {0}
    2490:	d2030505 	andle	r0, r3, #20971520	; 0x1400000
    2494:	4a060100 	bmi	18289c <__bss_end__+0x17750c>
    2498:	03180513 	tsteq	r8, #79691776	; 0x4c00000
    249c:	05017fa3 	streq	r7, [r1, #-4003]	; 0xfffff05d
    24a0:	16051305 	strne	r1, [r5], -r5, lsl #6
    24a4:	054a0106 	strbeq	r0, [sl, #-262]	; 0xfffffefa
    24a8:	e1030605 	tst	r3, r5, lsl #12
    24ac:	12050100 	andne	r0, r5, #0
    24b0:	05050106 	streq	r0, [r5, #-262]	; 0xfffffefa
    24b4:	18054b06 	stmdane	r5, {r1, r2, r8, r9, fp, lr}
    24b8:	017fa903 	cmneq	pc, r3, lsl #18
    24bc:	01130505 	tsteq	r3, r5, lsl #10
    24c0:	050e1805 	streq	r1, [lr, #-2053]	; 0xfffff7fb
    24c4:	11051305 	tstne	r5, r5, lsl #6
    24c8:	052e0106 	streq	r0, [lr, #-262]!	; 0xfffffefa
    24cc:	4a061505 	bmi	1878e8 <__bss_end__+0x17c558>
    24d0:	0e051301 	cdpeq	3, 0, cr1, cr5, cr1, {0}
    24d4:	052e0106 	streq	r0, [lr, #-262]!	; 0xfffffefa
    24d8:	052e2e16 	streq	r2, [lr, #-3606]!	; 0xfffff1ea
    24dc:	d6030605 	strle	r0, [r3], -r5, lsl #12
    24e0:	05010100 	streq	r0, [r1, #-256]	; 0xffffff00
    24e4:	7f9f0318 	svcvc	0x009f0318
    24e8:	13050501 	movwne	r0, #21761	; 0x5501
    24ec:	01061905 	tsteq	r6, r5, lsl #18
    24f0:	0305052e 	movweq	r0, #21806	; 0x552e
    24f4:	000100e0 	andeq	r0, r1, r0, ror #1
    24f8:	06020402 	streq	r0, [r2], -r2, lsl #8
    24fc:	0402004a 	streq	r0, [r2], #-74	; 0xffffffb6
    2500:	0a051402 	beq	147510 <__bss_end__+0x13c180>
    2504:	02040200 	andeq	r0, r4, #0, 4
    2508:	05050106 	streq	r0, [r5, #-262]	; 0xfffffefa
    250c:	02040200 	andeq	r0, r4, #0, 4
    2510:	0c054b06 			; <UNDEFINED> instruction: 0x0c054b06
    2514:	02040200 	andeq	r0, r4, #0, 4
    2518:	01050106 	tsteq	r5, r6, lsl #2
    251c:	02040200 	andeq	r0, r4, #0, 4
    2520:	0005052f 	andeq	r0, r5, pc, lsr #10
    2524:	06010402 	streq	r0, [r1], -r2, lsl #8
    2528:	004a7303 	subeq	r7, sl, r3, lsl #6
    252c:	01010402 	tsteq	r1, r2, lsl #8
    2530:	01040200 	mrseq	r0, R12_usr
    2534:	02009e06 	andeq	r9, r0, #96	; 0x60
    2538:	002e0104 	eoreq	r0, lr, r4, lsl #2
    253c:	06010402 	streq	r0, [r1], -r2, lsl #8
    2540:	0402002e 	streq	r0, [r2], #-46	; 0xffffffd2
    2544:	02002f01 	andeq	r2, r0, #1, 30
    2548:	002e0104 	eoreq	r0, lr, r4, lsl #2
    254c:	d6010402 	strle	r0, [r1], -r2, lsl #8
    2550:	2e7fb103 	expcse	f3, f3
    2554:	2e820601 	cdpcs	6, 8, cr0, cr2, cr1, {0}
    2558:	062e062e 	strteq	r0, [lr], -lr, lsr #12
    255c:	0402002e 	streq	r0, [r2], #-46	; 0xffffffd2
    2560:	d7030601 	strle	r0, [r3, -r1, lsl #12]
    2564:	02000100 	andeq	r0, r0, #0
    2568:	002e0104 	eoreq	r0, lr, r4, lsl #2
    256c:	d6010402 	strle	r0, [r1], -r2, lsl #8
    2570:	7b081505 	blvc	20798c <__bss_end__+0x1fc5fc>
    2574:	05011705 	streq	r1, [r1, #-1797]	; 0xfffff8fb
    2578:	18053116 	stmdane	r5, {r1, r2, r4, r8, ip, sp}
    257c:	061d0501 	ldreq	r0, [sp], -r1, lsl #10
    2580:	662b0501 	strtvs	r0, [fp], -r1, lsl #10
    2584:	4d061905 	vstrmi.16	s2, [r6, #-10]	; <UNPREDICTABLE>
    2588:	05130505 	ldreq	r0, [r3, #-1285]	; 0xfffffafb
    258c:	0501060c 	streq	r0, [r1, #-1548]	; 0xfffff9f4
    2590:	25054a07 	strcs	r4, [r5, #-2567]	; 0xfffff5f9
    2594:	01040200 	mrseq	r0, R12_usr
    2598:	001e054a 	andseq	r0, lr, sl, asr #10
    259c:	4a010402 	bmi	435ac <__bss_end__+0x3821c>
    25a0:	4b060905 	blmi	1849bc <__bss_end__+0x17962c>
    25a4:	05130505 	ldreq	r0, [r3, #-1285]	; 0xfffffafb
    25a8:	0501060a 	streq	r0, [r1, #-1546]	; 0xfffff9f6
    25ac:	09056319 	stmdbeq	r5, {r0, r3, r4, r8, r9, sp, lr}
    25b0:	06014c06 	streq	r4, [r1], -r6, lsl #24
    25b4:	022e069e 	eoreq	r0, lr, #165675008	; 0x9e00000
    25b8:	0101000a 	tsteq	r1, sl
    25bc:	00000289 	andeq	r0, r0, r9, lsl #5
    25c0:	00c90003 	sbceq	r0, r9, r3
    25c4:	01020000 	mrseq	r0, (UNDEF: 2)
    25c8:	000d0efb 	strdeq	r0, [sp], -fp
    25cc:	01010101 	tsteq	r1, r1, lsl #2
    25d0:	01000000 	mrseq	r0, (UNDEF: 0)
    25d4:	2e010000 	cdpcs	0, 0, cr0, cr1, cr0, {0}
    25d8:	6372732f 	cmnvs	r2, #-1140850688	; 0xbc000000
    25dc:	73552f00 	cmpvc	r5, #0, 30
    25e0:	2f737265 	svccs	0x00737265
    25e4:	656c696d 	strbvs	r6, [ip, #-2413]!	; 0xfffff693
    25e8:	6f532f73 	svcvs	0x00532f73
    25ec:	65637275 	strbvs	r7, [r3, #-629]!	; 0xfffffd8b
    25f0:	3273632f 	rsbscc	r6, r3, #-1140850688	; 0xbc000000
    25f4:	786c3034 	stmdavc	ip!, {r2, r4, r5, ip, sp}^
    25f8:	62696c2f 	rsbvs	r6, r9, #12032	; 0x2f00
    25fc:	692f6970 	stmdbvs	pc!, {r4, r5, r6, r8, fp, sp, lr}	; <UNPREDICTABLE>
    2600:	756c636e 	strbvc	r6, [ip, #-878]!	; 0xfffffc92
    2604:	2f006564 	svccs	0x00006564
    2608:	2f74706f 	svccs	0x0074706f
    260c:	656d6f68 	strbvs	r6, [sp, #-3944]!	; 0xfffff098
    2610:	77657262 	strbvc	r7, [r5, -r2, ror #4]!
    2614:	6c65432f 	stclvs	3, cr4, [r5], #-188	; 0xffffff44
    2618:	2f72616c 	svccs	0x0072616c
    261c:	2d6d7261 	sfmcs	f7, 2, [sp, #-388]!	; 0xfffffe7c
    2620:	656e6f6e 	strbvs	r6, [lr, #-3950]!	; 0xfffff092
    2624:	6261652d 	rsbvs	r6, r1, #188743680	; 0xb400000
    2628:	2f392d69 	svccs	0x00392d69
    262c:	30322d39 	eorscc	r2, r2, r9, lsr sp
    2630:	34713931 	ldrbtcc	r3, [r1], #-2353	; 0xfffff6cf
    2634:	3173632d 	cmncc	r3, sp, lsr #6
    2638:	2f653730 	svccs	0x00653730
    263c:	2f62696c 	svccs	0x0062696c
    2640:	2f636367 	svccs	0x00636367
    2644:	2d6d7261 	sfmcs	f7, 2, [sp, #-388]!	; 0xfffffe7c
    2648:	656e6f6e 	strbvs	r6, [lr, #-3950]!	; 0xfffff092
    264c:	6261652d 	rsbvs	r6, r1, #188743680	; 0xb400000
    2650:	2e392f69 	cdpcs	15, 3, cr2, cr9, cr9, {3}
    2654:	2f312e32 	svccs	0x00312e32
    2658:	6c636e69 	stclvs	14, cr6, [r3], #-420	; 0xfffffe5c
    265c:	00656475 	rsbeq	r6, r5, r5, ror r4
    2660:	69706700 	ldmdbvs	r0!, {r8, r9, sl, sp, lr}^
    2664:	00632e6f 	rsbeq	r2, r3, pc, ror #28
    2668:	72000001 	andvc	r0, r0, #1, 0
    266c:	682e6970 	stmdavs	lr!, {r4, r5, r6, r8, fp, sp, lr}
    2670:	00000200 	andeq	r0, r0, r0, lsl #4
    2674:	69647473 	stmdbvs	r4!, {r0, r1, r4, r5, r6, sl, ip, sp, lr}^
    2678:	672d746e 	strvs	r7, [sp, -lr, ror #8]!
    267c:	682e6363 	stmdavs	lr!, {r0, r1, r5, r6, r8, r9, sp, lr}
    2680:	00000300 	andeq	r0, r0, r0, lsl #6
    2684:	6f697067 	svcvs	0x00697067
    2688:	0200682e 	andeq	r6, r0, #3014656	; 0x2e0000
    268c:	05000000 	streq	r0, [r0, #-0]
    2690:	02050038 	andeq	r0, r5, #56, 0	; 0x38
    2694:	0000a3c4 	andeq	sl, r0, r4, asr #7
    2698:	05012703 	streq	r2, [r1, #-1795]	; 0xfffff8fd
    269c:	07051305 	streq	r1, [r5, -r5, lsl #6]
    26a0:	06050106 	streq	r0, [r5], -r6, lsl #2
    26a4:	05054906 	streq	r4, [r5, #-2310]	; 0xfffff6fa
    26a8:	06070515 			; <UNDEFINED> instruction: 0x06070515
    26ac:	2b380501 	blcs	e03ab8 <__bss_end__+0xdf8728>
    26b0:	054d0705 	strbeq	r0, [sp, #-1797]	; 0xfffff8fb
    26b4:	05300605 	ldreq	r0, [r0, #-1541]!	; 0xfffff9fb
    26b8:	05010618 	streq	r0, [r1, #-1560]	; 0xfffff9e8
    26bc:	0e05671c 	mcreq	7, 0, r6, cr5, cr12, {0}
    26c0:	2d18054a 	cfldr32cs	mvfx0, [r8, #-296]	; 0xfffffed8
    26c4:	2e4d1205 	cdpcs	2, 4, cr1, cr13, cr5, {0}
    26c8:	2a0e052f 	bcs	383b8c <__bss_end__+0x3787fc>
    26cc:	2f060505 	svccs	0x00060505
    26d0:	07051314 	smladeq	r5, r4, r3, r1
    26d4:	05050106 	streq	r0, [r5, #-262]	; 0xfffffefa
    26d8:	06132f06 	ldreq	r2, [r3], -r6, lsl #30
    26dc:	01052e2e 	tsteq	r5, lr, lsr #28
    26e0:	2d050513 	cfstr32cs	mvfx0, [r5, #-76]	; 0xffffffb4
    26e4:	0624052e 	strteq	r0, [r4], -lr, lsr #10
    26e8:	24020500 	strcs	r0, [r2], #-1280	; 0xfffffb00
    26ec:	150000a4 	strne	r0, [r0, #-164]	; 0xffffff5c
    26f0:	05130505 	ldreq	r0, [r3, #-1285]	; 0xfffffafb
    26f4:	01710306 	cmneq	r1, r6, lsl #6
    26f8:	05130505 	ldreq	r0, [r3, #-1285]	; 0xfffffafb
    26fc:	05010607 	streq	r0, [r1, #-1543]	; 0xfffff9f9
    2700:	05490606 	strbeq	r0, [r9, #-1542]	; 0xfffff9fa
    2704:	05141505 	ldreq	r1, [r4, #-1285]	; 0xfffffafb
    2708:	09030624 	stmdbeq	r3, {r2, r5, r9, sl}
    270c:	03180501 	tsteq	r8, #4194304	; 0x400000
    2710:	1c052e77 	stcne	14, cr2, [r5], {119}	; 0x77
    2714:	4a0e0567 	bmi	383cb8 <__bss_end__+0x378928>
    2718:	052d1805 	streq	r1, [sp, #-2053]!	; 0xfffff7fb
    271c:	2f2e4d12 	svccs	0x002e4d12
    2720:	052f0f05 	streq	r0, [pc, #-3845]!	; 1823 <__code_start__-0x67dd>
    2724:	0505290e 	streq	r2, [r5, #-2318]	; 0xfffff6f2
    2728:	13142f06 	tstne	r4, #6, 30
    272c:	01060705 	tsteq	r6, r5, lsl #14
    2730:	2f060505 	svccs	0x00060505
    2734:	052e0613 	streq	r0, [lr, #-1555]!	; 0xfffff9ed
    2738:	05053301 	streq	r3, [r5, #-769]	; 0xfffffcff
    273c:	27052e29 	strcs	r2, [r5, -r9, lsr #28]
    2740:	02050006 	andeq	r0, r5, #6, 0
    2744:	0000a47c 	andeq	sl, r0, ip, ror r4
    2748:	1305051a 	movwne	r0, #21786	; 0x551a
    274c:	11062705 	tstne	r6, r5, lsl #14
    2750:	052f1805 	streq	r1, [pc, #-2053]!	; 1f53 <__code_start__-0x60ad>
    2754:	4a2e2e05 	bmi	b8df70 <__bss_end__+0xb82be0>
    2758:	00062805 	andeq	r2, r6, r5, lsl #16
    275c:	a4940205 	ldrge	r0, [r4], #517	; 0x205
    2760:	05160000 	ldreq	r0, [r6, #-0]
    2764:	28051305 	stmdacs	r5, {r0, r2, r8, r9, ip}
    2768:	18051106 	stmdane	r5, {r1, r2, r8, ip}
    276c:	2e05052f 	cfsh32cs	mvfx0, mvfx5, #31
    2770:	23054a2e 	movwcs	r4, #23086	; 0x5a2e
    2774:	02050006 	andeq	r0, r5, #6, 0
    2778:	0000a4ac 	andeq	sl, r0, ip, lsr #9
    277c:	13050516 	movwne	r0, #21782	; 0x5516
    2780:	62030605 	andvs	r0, r3, #5242880	; 0x500000
    2784:	13050501 	movwne	r0, #21761	; 0x5501
    2788:	01060705 	tsteq	r6, r5, lsl #14
    278c:	49060605 	stmdbmi	r6, {r0, r2, r9, sl}
    2790:	14150505 	ldrne	r0, [r5], #-1285	; 0xfffffafb
    2794:	06230513 			; <UNDEFINED> instruction: 0x06230513
    2798:	05011703 	streq	r1, [r1, #-1795]	; 0xfffff8fd
    279c:	2e690322 	cdpcs	3, 6, cr0, cr9, cr2, {1}
    27a0:	2e821c05 	cdpcs	12, 8, cr1, cr2, cr5, {0}
    27a4:	052e0e05 	streq	r0, [lr, #-3589]!	; 0xfffff1fb
    27a8:	05300605 	ldreq	r0, [r0, #-1541]!	; 0xfffff9fb
    27ac:	4b010612 	blmi	43ffc <__bss_end__+0x38c6c>
    27b0:	0605052d 	streq	r0, [r5], -sp, lsr #10
    27b4:	0513132f 	ldreq	r1, [r3, #-815]	; 0xfffffcd1
    27b8:	7a030618 	bvc	c4020 <__bss_end__+0xb8c90>
    27bc:	4a0e0501 	bmi	383bc8 <__bss_end__+0x378838>
    27c0:	2e340505 	cdpcs	5, 3, cr0, cr4, cr5, {0}
    27c4:	14030105 	strne	r0, [r3], #-261	; 0xfffffefb
    27c8:	0305052e 	movweq	r0, #21806	; 0x552e
    27cc:	052e2e6c 	streq	r2, [lr, #-3692]!	; 0xfffff194
    27d0:	0500062b 	streq	r0, [r0, #-1579]	; 0xfffff9d5
    27d4:	00a50402 	adceq	r0, r5, r2, lsl #8
    27d8:	01170300 	tsteq	r7, r0, lsl #6
    27dc:	05130505 	ldreq	r0, [r3, #-1285]	; 0xfffffafb
    27e0:	05010607 	streq	r0, [r1, #-1543]	; 0xfffff9f9
    27e4:	2e710318 	mrccs	3, 3, r0, cr1, cr8, {0}
    27e8:	0e032b05 	vmlaeq.f64	d2, d3, d5
    27ec:	2f07052e 	svccs	0x0007052e
    27f0:	2f060905 	svccs	0x00060905
    27f4:	6f030d05 	svcvs	0x00030d05
    27f8:	13050501 	movwne	r0, #21761	; 0x5501
    27fc:	2e2e2e06 	cdpcs	14, 2, cr2, cr14, cr6, {0}
    2800:	03060905 	movweq	r0, #26885	; 0x6905
    2804:	0d050112 	stfeqs	f0, [r5, #-72]	; 0xffffffb8
    2808:	05017203 	streq	r7, [r1, #-515]	; 0xfffffdfd
    280c:	2e061305 	cdpcs	3, 0, cr1, cr6, cr5, {0}
    2810:	061d052e 	ldreq	r0, [sp], -lr, lsr #10
    2814:	05661003 	strbeq	r1, [r6, #-3]!
    2818:	1d051305 	stcne	3, cr1, [r5, #-20]	; 0xffffffec
    281c:	052e1106 	streq	r1, [lr, #-262]!	; 0xfffffefa
    2820:	13300605 	teqne	r0, #5242880	; 0x500000
    2824:	10060e05 	andne	r0, r6, r5, lsl #28
    2828:	2e301705 	cdpcs	7, 3, cr1, cr0, cr5, {0}
    282c:	30050204 	andcc	r0, r5, r4, lsl #4
    2830:	00dd0306 	sbcseq	r0, sp, r6, lsl #6
    2834:	0501042e 	streq	r0, [r1, #-1070]	; 0xfffffbd2
    2838:	a203060e 	andge	r0, r3, #14680064	; 0xe00000
    283c:	2305017f 	movwcs	r0, #20863	; 0x517f
    2840:	2f01052f 	svccs	0x0001052f
    2844:	01000602 	tsteq	r0, r2, lsl #12
    2848:	00009e01 	andeq	r9, r0, r1, lsl #28
    284c:	5a000300 	bpl	3454 <__code_start__-0x4bac>
    2850:	02000000 	andeq	r0, r0, #0, 0
    2854:	0d0efb01 	vstreq	d15, [lr, #-4]
    2858:	01010100 	mrseq	r0, (UNDEF: 17)
    285c:	00000001 	andeq	r0, r0, r1
    2860:	01000001 	tsteq	r0, r1
    2864:	696c2f2e 	stmdbvs	ip!, {r1, r2, r3, r5, r8, r9, sl, fp, sp}^
    2868:	2f006362 	svccs	0x00006362
    286c:	72657355 	rsbvc	r7, r5, #1409286145	; 0x54000001
    2870:	696d2f73 	stmdbvs	sp!, {r0, r1, r4, r5, r6, r8, r9, sl, fp, sp}^
    2874:	2f73656c 	svccs	0x0073656c
    2878:	72756f53 	rsbsvc	r6, r5, #332	; 0x14c
    287c:	632f6563 			; <UNDEFINED> instruction: 0x632f6563
    2880:	30343273 	eorscc	r3, r4, r3, ror r2
    2884:	6c2f786c 	stcvs	8, cr7, [pc], #-432	; 26dc <__code_start__-0x5924>
    2888:	69706269 	ldmdbvs	r0!, {r0, r3, r5, r6, r9, sp, lr}^
    288c:	636e692f 	cmnvs	lr, #770048	; 0xbc000
    2890:	6564756c 	strbvs	r7, [r4, #-1388]!	; 0xfffffa94
    2894:	75700000 	ldrbvc	r0, [r0, #-0]!
    2898:	61686374 	smcvs	34356	; 0x8634
    289c:	00632e72 	rsbeq	r2, r3, r2, ror lr
    28a0:	72000001 	andvc	r0, r0, #1, 0
    28a4:	682e6970 	stmdavs	lr!, {r4, r5, r6, r8, fp, sp, lr}
    28a8:	00000200 	andeq	r0, r0, r0, lsl #4
    28ac:	00240500 	eoreq	r0, r4, r0, lsl #10
    28b0:	a55c0205 	ldrbge	r0, [ip, #-517]	; 0xfffffdfb
    28b4:	05140000 	ldreq	r0, [r4, #-0]
    28b8:	24050126 	strcs	r0, [r5], #-294	; 0xfffffeda
    28bc:	052e0106 	streq	r0, [lr, #-262]!	; 0xfffffefa
    28c0:	34052e26 	strcc	r2, [r5], #-3622	; 0xfffff1da
    28c4:	01052e06 	tsteq	r5, r6, lsl #28
    28c8:	1b050106 	blne	142ce8 <__bss_end__+0x137958>
    28cc:	05054f06 	streq	r4, [r5, #-3846]	; 0xfffff0fa
    28d0:	06110513 			; <UNDEFINED> instruction: 0x06110513
    28d4:	67010501 	strvs	r0, [r1, -r1, lsl #10]
    28d8:	67062305 	strvs	r2, [r6, -r5, lsl #6]
    28dc:	05130505 	ldreq	r0, [r3, #-1285]	; 0xfffffafb
    28e0:	05010611 	streq	r0, [r1, #-1553]	; 0xfffff9ef
    28e4:	04024b01 	streq	r4, [r2], #-2817	; 0xfffff4ff
    28e8:	e2010100 	and	r0, r1, #0
    28ec:	03000000 	movweq	r0, #0
    28f0:	00005900 	andeq	r5, r0, r0, lsl #18
    28f4:	fb010200 	blx	430fe <__bss_end__+0x37d6e>
    28f8:	01000d0e 	tsteq	r0, lr, lsl #26
    28fc:	00010101 	andeq	r0, r1, r1, lsl #2
    2900:	00010000 	andeq	r0, r1, r0
    2904:	2f2e0100 	svccs	0x002e0100
    2908:	6362696c 	cmnvs	r2, #108, 18	; 0x1b0000
    290c:	73552f00 	cmpvc	r5, #0, 30
    2910:	2f737265 	svccs	0x00737265
    2914:	656c696d 	strbvs	r6, [ip, #-2413]!	; 0xfffff693
    2918:	6f532f73 	svcvs	0x00532f73
    291c:	65637275 	strbvs	r7, [r3, #-629]!	; 0xfffffd8b
    2920:	3273632f 	rsbscc	r6, r3, #-1140850688	; 0xbc000000
    2924:	786c3034 	stmdavc	ip!, {r2, r4, r5, ip, sp}^
    2928:	62696c2f 	rsbvs	r6, r9, #12032	; 0x2f00
    292c:	692f6970 	stmdbvs	pc!, {r4, r5, r6, r8, fp, sp, lr}	; <UNPREDICTABLE>
    2930:	756c636e 	strbvc	r6, [ip, #-878]!	; 0xfffffc92
    2934:	00006564 	andeq	r6, r0, r4, ror #10
    2938:	63727473 	cmnvs	r2, #1929379840	; 0x73000000
    293c:	632e7461 			; <UNDEFINED> instruction: 0x632e7461
    2940:	00000100 	andeq	r0, r0, r0, lsl #2
    2944:	2e697072 	mcrcs	0, 3, r7, cr9, cr2, {3}
    2948:	00020068 	andeq	r0, r2, r8, rrx
    294c:	2c050000 	stccs	0, cr0, [r5], {-0}
    2950:	98020500 	stmdals	r2, {r8, sl}
    2954:	150000a5 	strne	r0, [r0, #-165]	; 0xffffff5b
    2958:	13130505 	tstne	r3, #20971520	; 0x1400000
    295c:	11060b05 	tstne	r6, r5, lsl #22
    2960:	02000505 	andeq	r0, r0, #20971520	; 0x1400000
    2964:	30060104 	andcc	r0, r6, r4, lsl #2
    2968:	01040200 	mrseq	r0, R12_usr
    296c:	00090515 	andeq	r0, r9, r5, lsl r5
    2970:	13010402 	movwne	r0, #5122	; 0x1402
    2974:	02000b05 	andeq	r0, r0, #5120	; 0x1400
    2978:	052f0104 	streq	r0, [pc, #-260]!	; 287c <__code_start__-0x5784>
    297c:	04020005 	streq	r0, [r2], #-5
    2980:	00010601 	andeq	r0, r1, r1, lsl #12
    2984:	2e010402 	cdpcs	4, 0, cr0, cr1, cr2, {0}
    2988:	08054e06 	stmdaeq	r5, {r1, r2, r9, sl, fp, lr}
    298c:	05050106 	streq	r0, [r5, #-262]	; 0xfffffefa
    2990:	01040200 	mrseq	r0, R12_usr
    2994:	09052f06 	stmdbeq	r5, {r1, r2, r8, r9, sl, fp, sp}
    2998:	01040200 	mrseq	r0, R12_usr
    299c:	000b0513 	andeq	r0, fp, r3, lsl r5
    29a0:	06010402 	streq	r0, [r1], -r2, lsl #8
    29a4:	00090501 	andeq	r0, r9, r1, lsl #10
    29a8:	06010402 	streq	r0, [r1], -r2, lsl #8
    29ac:	0005052f 	andeq	r0, r5, pc, lsr #10
    29b0:	06010402 	streq	r0, [r1], -r2, lsl #8
    29b4:	000f0513 	andeq	r0, pc, r3, lsl r5	; <UNPREDICTABLE>
    29b8:	2d010402 	cfstrscs	mvf0, [r1, #-8]
    29bc:	02000d05 	andeq	r0, r0, #320	; 0x140
    29c0:	2f060104 	svccs	0x00060104
    29c4:	02000505 	andeq	r0, r0, #20971520	; 0x1400000
    29c8:	01060104 	tsteq	r6, r4, lsl #2
    29cc:	01000402 	tsteq	r0, r2, lsl #8
    29d0:	0000b201 	andeq	fp, r0, r1, lsl #4
    29d4:	59000300 	stmdbpl	r0, {r8, r9}
    29d8:	02000000 	andeq	r0, r0, #0, 0
    29dc:	0d0efb01 	vstreq	d15, [lr, #-4]
    29e0:	01010100 	mrseq	r0, (UNDEF: 17)
    29e4:	00000001 	andeq	r0, r0, r1
    29e8:	01000001 	tsteq	r0, r1
    29ec:	696c2f2e 	stmdbvs	ip!, {r1, r2, r3, r5, r8, r9, sl, fp, sp}^
    29f0:	2f006362 	svccs	0x00006362
    29f4:	72657355 	rsbvc	r7, r5, #1409286145	; 0x54000001
    29f8:	696d2f73 	stmdbvs	sp!, {r0, r1, r4, r5, r6, r8, r9, sl, fp, sp}^
    29fc:	2f73656c 	svccs	0x0073656c
    2a00:	72756f53 	rsbsvc	r6, r5, #332	; 0x14c
    2a04:	632f6563 			; <UNDEFINED> instruction: 0x632f6563
    2a08:	30343273 	eorscc	r3, r4, r3, ror r2
    2a0c:	6c2f786c 	stcvs	8, cr7, [pc], #-432	; 2864 <__code_start__-0x579c>
    2a10:	69706269 	ldmdbvs	r0!, {r0, r3, r5, r6, r9, sp, lr}^
    2a14:	636e692f 	cmnvs	lr, #770048	; 0xbc000
    2a18:	6564756c 	strbvs	r7, [r4, #-1388]!	; 0xfffffa94
    2a1c:	74730000 	ldrbtvc	r0, [r3], #-0
    2a20:	706d6372 	rsbvc	r6, sp, r2, ror r3
    2a24:	0100632e 	tsteq	r0, lr, lsr #6
    2a28:	70720000 	rsbsvc	r0, r2, r0
    2a2c:	00682e69 	rsbeq	r2, r8, r9, ror #28
    2a30:	00000002 	andeq	r0, r0, r2
    2a34:	05002a05 	streq	r2, [r0, #-2565]	; 0xfffff5fb
    2a38:	00a5c402 	adceq	ip, r5, r2, lsl #8
    2a3c:	09051400 	stmdbeq	r5, {sl, ip}
    2a40:	06100513 			; <UNDEFINED> instruction: 0x06100513
    2a44:	060f0501 	streq	r0, [pc], -r1, lsl #10
    2a48:	0610052e 	ldreq	r0, [r0], -lr, lsr #10
    2a4c:	2e0f0582 	cfsh32cs	mvfx0, mvfx15, #-62
    2a50:	02001105 	andeq	r1, r0, #1073741825	; 0x40000001
    2a54:	4b060104 	blmi	182e6c <__bss_end__+0x177adc>
    2a58:	02001c05 	andeq	r1, r0, #1280	; 0x500
    2a5c:	2d060104 	stfcss	f0, [r6, #-16]
    2a60:	02000f05 	andeq	r0, r0, #5, 30
    2a64:	2e060104 	adfcss	f0, f6, f4
    2a68:	02001305 	andeq	r1, r0, #335544320	; 0x14000000
    2a6c:	01060104 	tsteq	r6, r4, lsl #2
    2a70:	4c060905 			; <UNDEFINED> instruction: 0x4c060905
    2a74:	13060105 	movwne	r0, #24837	; 0x6105
    2a78:	0609054a 	streq	r0, [r9], -sl, asr #10
    2a7c:	0601052d 	streq	r0, [r1], -sp, lsr #10
    2a80:	02022e13 	andeq	r2, r2, #304	; 0x130
    2a84:	9d010100 	stflss	f0, [r1, #-0]
    2a88:	03000000 	movweq	r0, #0
    2a8c:	00005900 	andeq	r5, r0, r0, lsl #18
    2a90:	fb010200 	blx	4329a <__bss_end__+0x37f0a>
    2a94:	01000d0e 	tsteq	r0, lr, lsl #26
    2a98:	00010101 	andeq	r0, r1, r1, lsl #2
    2a9c:	00010000 	andeq	r0, r1, r0
    2aa0:	2f2e0100 	svccs	0x002e0100
    2aa4:	6362696c 	cmnvs	r2, #108, 18	; 0x1b0000
    2aa8:	73552f00 	cmpvc	r5, #0, 30
    2aac:	2f737265 	svccs	0x00737265
    2ab0:	656c696d 	strbvs	r6, [ip, #-2413]!	; 0xfffff693
    2ab4:	6f532f73 	svcvs	0x00532f73
    2ab8:	65637275 	strbvs	r7, [r3, #-629]!	; 0xfffffd8b
    2abc:	3273632f 	rsbscc	r6, r3, #-1140850688	; 0xbc000000
    2ac0:	786c3034 	stmdavc	ip!, {r2, r4, r5, ip, sp}^
    2ac4:	62696c2f 	rsbvs	r6, r9, #12032	; 0x2f00
    2ac8:	692f6970 	stmdbvs	pc!, {r4, r5, r6, r8, fp, sp, lr}	; <UNPREDICTABLE>
    2acc:	756c636e 	strbvc	r6, [ip, #-878]!	; 0xfffffc92
    2ad0:	00006564 	andeq	r6, r0, r4, ror #10
    2ad4:	63727473 	cmnvs	r2, #1929379840	; 0x73000000
    2ad8:	632e7970 			; <UNDEFINED> instruction: 0x632e7970
    2adc:	00000100 	andeq	r0, r0, r0, lsl #2
    2ae0:	2e697072 	mcrcs	0, 3, r7, cr9, cr2, {3}
    2ae4:	00020068 	andeq	r0, r2, r8, rrx
    2ae8:	2a050000 	bcs	142af0 <__bss_end__+0x137760>
    2aec:	08020500 	stmdaeq	r2, {r8, sl}
    2af0:	140000a6 	strne	r0, [r0], #-166	; 0xffffff5a
    2af4:	13130505 	tstne	r3, #20971520	; 0x1400000
    2af8:	02002205 	andeq	r2, r0, #1342177280	; 0x50000000
    2afc:	052e0104 	streq	r0, [lr, #-260]!	; 0xfffffefc
    2b00:	0402000b 	streq	r0, [r2], #-11
    2b04:	15050101 	strne	r0, [r5, #-257]	; 0xfffffeff
    2b08:	01040200 	mrseq	r0, R12_usr
    2b0c:	0b050106 	bleq	142f2c <__bss_end__+0x137b9c>
    2b10:	01040200 	mrseq	r0, R12_usr
    2b14:	0013052e 	andseq	r0, r3, lr, lsr #10
    2b18:	2e010402 	cdpcs	4, 0, cr0, cr1, cr2, {0}
    2b1c:	02000b05 	andeq	r0, r0, #5120	; 0x1400
    2b20:	022e0104 	eoreq	r0, lr, #1
    2b24:	01010004 	tsteq	r1, r4
    2b28:	000000fd 	strdeq	r0, [r0], -sp
    2b2c:	00bf0003 	adcseq	r0, pc, r3
    2b30:	01020000 	mrseq	r0, (UNDEF: 2)
    2b34:	000d0efb 	strdeq	r0, [sp], -fp
    2b38:	01010101 	tsteq	r1, r1, lsl #2
    2b3c:	01000000 	mrseq	r0, (UNDEF: 0)
    2b40:	2e010000 	cdpcs	0, 0, cr0, cr1, cr0, {0}
    2b44:	62696c2f 	rsbvs	r6, r9, #12032	; 0x2f00
    2b48:	552f0063 	strpl	r0, [pc, #-99]!	; 2aed <__code_start__-0x5513>
    2b4c:	73726573 	cmnvc	r2, #482344960	; 0x1cc00000
    2b50:	6c696d2f 	stclvs	13, cr6, [r9], #-188	; 0xffffff44
    2b54:	532f7365 			; <UNDEFINED> instruction: 0x532f7365
    2b58:	6372756f 	cmnvs	r2, #465567744	; 0x1bc00000
    2b5c:	73632f65 	cmnvc	r3, #404	; 0x194
    2b60:	6c303432 	cfldrsvs	mvf3, [r0], #-200	; 0xffffff38
    2b64:	696c2f78 	stmdbvs	ip!, {r3, r4, r5, r6, r8, r9, sl, fp, sp}^
    2b68:	2f697062 	svccs	0x00697062
    2b6c:	6c636e69 	stclvs	14, cr6, [r3], #-420	; 0xfffffe5c
    2b70:	00656475 	rsbeq	r6, r5, r5, ror r4
    2b74:	74706f2f 	ldrbtvc	r6, [r0], #-3887	; 0xfffff0d1
    2b78:	6d6f682f 	stclvs	8, cr6, [pc, #-188]!	; 2ac4 <__code_start__-0x553c>
    2b7c:	65726265 	ldrbvs	r6, [r2, #-613]!	; 0xfffffd9b
    2b80:	65432f77 	strbvs	r2, [r3, #-3959]	; 0xfffff089
    2b84:	72616c6c 	rsbvc	r6, r1, #108, 24	; 0x6c00
    2b88:	6d72612f 	ldfvse	f6, [r2, #-188]!	; 0xffffff44
    2b8c:	6e6f6e2d 	cdpvs	14, 6, cr6, cr15, cr13, {1}
    2b90:	61652d65 	cmnvs	r5, r5, ror #26
    2b94:	392d6962 	pushcc	{r1, r5, r6, r8, fp, sp, lr}
    2b98:	322d392f 	eorcc	r3, sp, #770048	; 0xbc000
    2b9c:	71393130 	teqvc	r9, r0, lsr r1
    2ba0:	73632d34 	cmnvc	r3, #52, 26	; 0xd00
    2ba4:	65373031 	ldrvs	r3, [r7, #-49]!	; 0xffffffcf
    2ba8:	62696c2f 	rsbvs	r6, r9, #12032	; 0x2f00
    2bac:	6363672f 	cmnvs	r3, #12320768	; 0xbc0000
    2bb0:	6d72612f 	ldfvse	f6, [r2, #-188]!	; 0xffffff44
    2bb4:	6e6f6e2d 	cdpvs	14, 6, cr6, cr15, cr13, {1}
    2bb8:	61652d65 	cmnvs	r5, r5, ror #26
    2bbc:	392f6962 	stmdbcc	pc!, {r1, r5, r6, r8, fp, sp, lr}	; <UNPREDICTABLE>
    2bc0:	312e322e 			; <UNDEFINED> instruction: 0x312e322e
    2bc4:	636e692f 	cmnvs	lr, #770048	; 0xbc000
    2bc8:	6564756c 	strbvs	r7, [r4, #-1388]!	; 0xfffffa94
    2bcc:	74730000 	ldrbtvc	r0, [r3], #-0
    2bd0:	6d636e72 	stclvs	14, cr6, [r3, #-456]!	; 0xfffffe38
    2bd4:	00632e70 	rsbeq	r2, r3, r0, ror lr
    2bd8:	72000001 	andvc	r0, r0, #1, 0
    2bdc:	682e6970 	stmdavs	lr!, {r4, r5, r6, r8, fp, sp, lr}
    2be0:	00000200 	andeq	r0, r0, r0, lsl #4
    2be4:	64647473 	strbtvs	r7, [r4], #-1139	; 0xfffffb8d
    2be8:	682e6665 	stmdavs	lr!, {r0, r2, r5, r6, r9, sl, sp, lr}
    2bec:	00000300 	andeq	r0, r0, r0, lsl #6
    2bf0:	00390500 	eorseq	r0, r9, r0, lsl #10
    2bf4:	a6200205 	strtge	r0, [r0], -r5, lsl #4
    2bf8:	05150000 	ldreq	r0, [r5, #-0]
    2bfc:	05131305 	ldreq	r1, [r3, #-773]	; 0xfffffcfb
    2c00:	052e060a 	streq	r0, [lr, #-1546]!	; 0xfffff9f6
    2c04:	13052f0c 	movwne	r2, #24332	; 0x5f0c
    2c08:	2e0b052e 	cfsh32cs	mvfx0, mvfx11, #30
    2c0c:	4a060905 	bmi	185028 <__bss_end__+0x179c98>
    2c10:	06110a05 	ldreq	r0, [r1], -r5, lsl #20
    2c14:	4e0c0501 	cfsh32mi	mvfx0, mvfx12, #1
    2c18:	052f0105 	streq	r0, [pc, #-261]!	; 2b1b <__code_start__-0x54e5>
    2c1c:	052b060d 	streq	r0, [fp, #-1549]!	; 0xfffff9f3
    2c20:	2e01061b 	mcrcs	6, 0, r0, cr1, cr11, {0}
    2c24:	01000202 	tsteq	r0, r2, lsl #4
    2c28:	00008a01 	andeq	r8, r0, r1, lsl #20
    2c2c:	6e000300 	cdpvs	3, 0, cr0, cr0, cr0, {0}
    2c30:	02000000 	andeq	r0, r0, #0, 0
    2c34:	0d0efb01 	vstreq	d15, [lr, #-4]
    2c38:	01010100 	mrseq	r0, (UNDEF: 17)
    2c3c:	00000001 	andeq	r0, r0, r1
    2c40:	01000001 	tsteq	r0, r1
    2c44:	74732f2e 	ldrbtvc	r2, [r3], #-3886	; 0xfffff0d2
    2c48:	2d666661 	stclcs	6, cr6, [r6, #-388]!	; 0xfffffe7c
    2c4c:	00637273 	rsbeq	r7, r3, r3, ror r2
    2c50:	6573552f 	ldrbvs	r5, [r3, #-1327]!	; 0xfffffad1
    2c54:	6d2f7372 	stcvs	3, cr7, [pc, #-456]!	; 2a94 <__code_start__-0x556c>
    2c58:	73656c69 	cmnvc	r5, #26880	; 0x6900
    2c5c:	756f532f 	strbvc	r5, [pc, #-815]!	; 2935 <__code_start__-0x56cb>
    2c60:	2f656372 	svccs	0x00656372
    2c64:	34327363 	ldrtcc	r7, [r2], #-867	; 0xfffffc9d
    2c68:	2f786c30 	svccs	0x00786c30
    2c6c:	7062696c 	rsbvc	r6, r2, ip, ror #18
    2c70:	6e692f69 	cdpvs	15, 6, cr2, cr9, cr9, {3}
    2c74:	64756c63 	ldrbtvs	r6, [r5], #-3171	; 0xfffff39d
    2c78:	64000065 	strvs	r0, [r0], #-101	; 0xffffff9b
    2c7c:	75616665 	strbvc	r6, [r1, #-1637]!	; 0xfffff99b
    2c80:	722d746c 	eorvc	r7, sp, #108, 8	; 0x6c000000
    2c84:	6f6f6265 	svcvs	0x006f6265
    2c88:	61632d74 	smcvs	13012	; 0x32d4
    2c8c:	756f6c6c 	strbvc	r6, [pc, #-3180]!	; 2028 <__code_start__-0x5fd8>
    2c90:	00632e74 	rsbeq	r2, r3, r4, ror lr
    2c94:	72000001 	andvc	r0, r0, #1, 0
    2c98:	682e6970 	stmdavs	lr!, {r4, r5, r6, r8, fp, sp, lr}
    2c9c:	00000200 	andeq	r0, r0, r0, lsl #4
    2ca0:	001b0500 	andseq	r0, fp, r0, lsl #10
    2ca4:	a6500205 	ldrbge	r0, [r0], -r5, lsl #4
    2ca8:	05140000 	ldreq	r0, [r4, #-0]
    2cac:	0105011c 	tsteq	r5, ip, lsl r1
    2cb0:	02020106 	andeq	r0, r2, #-2147483647	; 0x80000001
    2cb4:	Address 0x0000000000002cb4 is out of bounds.


Disassembly of section .debug_str:

00000000 <.debug_str>:
   0:	765f6b63 	ldrbvc	r6, [pc], -r3, ror #22
   4:	6f627265 	svcvs	0x00627265
   8:	705f6573 	subsvc	r6, pc, r3, ror r5	; <UNPREDICTABLE>
   c:	616b6300 	cmnvs	fp, r0, lsl #6
  10:	636f6c6c 	cmnvs	pc, #108, 24	; 0x6c00
  14:	63727300 	cmnvs	r2, #0, 6
  18:	636f6c5f 	cmnvs	pc, #24320	; 0x5f00
  1c:	006b6d5f 	rsbeq	r6, fp, pc, asr sp
  20:	656e696c 	strbvs	r6, [lr, #-2412]!	; 0xfffff694
  24:	6e006f6e 	cdpvs	15, 0, cr6, cr0, cr14, {3}
  28:	616d746f 	cmnvs	sp, pc, ror #8
  2c:	63006e69 	movwvs	r6, #3689	; 0xe69
  30:	65685f6b 	strbvs	r5, [r8, #-3947]!	; 0xfffff095
  34:	655f7061 	ldrbvs	r7, [pc, #-97]	; ffffffdb <__bss_end__+0xffff4c4b>
  38:	726f7272 	rsbvc	r7, pc, #536870919	; 0x20000007
  3c:	69660073 	stmdbvs	r6!, {r0, r1, r4, r5, r6}^
  40:	7500656c 	strvc	r6, [r0, #-1388]	; 0xfffffa94
  44:	6769736e 	strbvs	r7, [r9, -lr, ror #6]!
  48:	2064656e 	rsbcs	r6, r4, lr, ror #10
  4c:	72616863 	rsbvc	r6, r1, #6488064	; 0x630000
  50:	656c6300 	strbvs	r6, [ip, #-768]!	; 0xfffffd00
  54:	725f6e61 	subsvc	r6, pc, #1552	; 0x610
  58:	6f6f6265 	svcvs	0x006f6265
  5c:	65740074 	ldrbvs	r0, [r4, #-116]!	; 0xffffff8c
  60:	2d737473 	cfldrdcs	mvd7, [r3, #-460]!	; 0xfffffe34
  64:	2f302e32 	svccs	0x00302e32
  68:	74726170 	ldrbtvc	r6, [r2], #-368	; 0xfffffe90
  6c:	65742d31 	ldrbvs	r2, [r4, #-3377]!	; 0xfffff2cf
  70:	2d357473 	cfldrscs	mvf7, [r5, #-460]!	; 0xfffffe34
  74:	622d6f6e 	eorvs	r6, sp, #440	; 0x1b8
  78:	632e6775 			; <UNDEFINED> instruction: 0x632e6775
  7c:	6f687300 	svcvs	0x00687300
  80:	75207472 	strvc	r7, [r0, #-1138]!	; 0xfffffb8e
  84:	6769736e 	strbvs	r7, [r9, -lr, ror #6]!
  88:	2064656e 	rsbcs	r6, r4, lr, ror #10
  8c:	00746e69 	rsbseq	r6, r4, r9, ror #28
  90:	20554e47 	subscs	r4, r5, r7, asr #28
  94:	20393943 	eorscs	r3, r9, r3, asr #18
  98:	2e322e39 	mrccs	14, 1, r2, cr2, cr9, {1}
  9c:	30322031 	eorscc	r2, r2, r1, lsr r0
  a0:	30313931 	eorscc	r3, r1, r1, lsr r9
  a4:	28203532 	stmdacs	r0!, {r1, r4, r5, r8, sl, ip, sp}
  a8:	656c6572 	strbvs	r6, [ip, #-1394]!	; 0xfffffa8e
  ac:	29657361 	stmdbcs	r5!, {r0, r5, r6, r8, r9, ip, sp, lr}^
  b0:	52415b20 	subpl	r5, r1, #32, 22	; 0x8000
  b4:	72612f4d 	rsbvc	r2, r1, #308	; 0x134
  b8:	2d392d6d 	ldccs	13, cr2, [r9, #-436]!	; 0xfffffe4c
  bc:	6e617262 	cdpvs	2, 6, cr7, cr1, cr2, {3}
  c0:	72206863 	eorvc	r6, r0, #6488064	; 0x630000
  c4:	73697665 	cmnvc	r9, #105906176	; 0x6500000
  c8:	206e6f69 	rsbcs	r6, lr, r9, ror #30
  cc:	35373732 	ldrcc	r3, [r7, #-1842]!	; 0xfffff8ce
  d0:	205d3939 	subscs	r3, sp, r9, lsr r9
  d4:	70636d2d 	rsbvc	r6, r3, sp, lsr #26
  d8:	72613d75 	rsbvc	r3, r1, #7488	; 0x1d40
  dc:	3731316d 	ldrcc	r3, [r1, -sp, ror #2]!
  e0:	667a6a36 			; <UNDEFINED> instruction: 0x667a6a36
  e4:	2d20732d 	stccs	3, cr7, [r0, #-180]!	; 0xffffff4c
  e8:	6e75746d 	cdpvs	4, 7, cr7, cr5, cr13, {3}
  ec:	72613d65 	rsbvc	r3, r1, #6464	; 0x1940
  f0:	3731316d 	ldrcc	r3, [r1, -sp, ror #2]!
  f4:	667a6a36 			; <UNDEFINED> instruction: 0x667a6a36
  f8:	2d20732d 	stccs	3, cr7, [r0, #-180]!	; 0xffffff4c
  fc:	6b6f706d 	blvs	1bdc2b8 <__bss_end__+0x1bd0f28>
 100:	75662d65 	strbvc	r2, [r6, #-3429]!	; 0xfffff29b
 104:	6974636e 	ldmdbvs	r4!, {r1, r2, r3, r5, r6, r8, r9, sp, lr}^
 108:	6e2d6e6f 	cdpvs	14, 2, cr6, cr13, cr15, {3}
 10c:	20656d61 	rsbcs	r6, r5, r1, ror #26
 110:	6c666d2d 	stclvs	13, cr6, [r6], #-180	; 0xffffff4c
 114:	2d74616f 	ldfcse	f6, [r4, #-444]!	; 0xfffffe44
 118:	3d696261 	sfmcc	f6, 2, [r9, #-388]!	; 0xfffffe7c
 11c:	74666f73 	strbtvc	r6, [r6], #-3955	; 0xfffff08d
 120:	616d2d20 	cmnvs	sp, r0, lsr #26
 124:	2d206d72 	stccs	13, cr6, [r0, #-456]!	; 0xfffffe38
 128:	6372616d 	cmnvs	r2, #1073741851	; 0x4000001b
 12c:	72613d68 	rsbvc	r3, r1, #104, 26	; 0x1a00
 130:	6b36766d 	blvs	d9daec <__bss_end__+0xd9275c>
 134:	672d207a 			; <UNDEFINED> instruction: 0x672d207a
 138:	20626467 	rsbcs	r6, r2, r7, ror #8
 13c:	20674f2d 	rsbcs	r4, r7, sp, lsr #30
 140:	6474732d 	ldrbtvs	r7, [r4], #-813	; 0xfffffcd3
 144:	756e673d 	strbvc	r6, [lr, #-1853]!	; 0xfffff8c3
 148:	2d203939 			; <UNDEFINED> instruction: 0x2d203939
 14c:	65726666 	ldrbvs	r6, [r2, #-1638]!	; 0xfffff99a
 150:	61747365 	cmnvs	r4, r5, ror #6
 154:	6e69646e 	cdpvs	4, 6, cr6, cr9, cr14, {3}
 158:	662d2067 	strtvs	r2, [sp], -r7, rrx
 15c:	6f2d6f6e 	svcvs	0x002d6f6e
 160:	2d74696d 			; <UNDEFINED> instruction: 0x2d74696d
 164:	6d617266 	sfmvs	f7, 2, [r1, #-408]!	; 0xfffffe68
 168:	6f702d65 	svcvs	0x00702d65
 16c:	65746e69 	ldrbvs	r6, [r4, #-3689]!	; 0xfffff197
 170:	552f0072 	strpl	r0, [pc, #-114]!	; 106 <__code_start__-0x7efa>
 174:	73726573 	cmnvc	r2, #482344960	; 0x1cc00000
 178:	6c696d2f 	stclvs	13, cr6, [r9], #-188	; 0xffffff44
 17c:	532f7365 			; <UNDEFINED> instruction: 0x532f7365
 180:	6372756f 	cmnvs	r2, #465567744	; 0x1bc00000
 184:	73632f65 	cmnvc	r3, #404	; 0x194
 188:	6c303432 	cfldrsvs	mvf3, [r0], #-200	; 0xffffff38
 18c:	616c2f78 	smcvs	49912	; 0xc2f8
 190:	362f7362 	strtcc	r7, [pc], -r2, ror #6
 194:	6265642d 	rsbvs	r6, r5, #754974720	; 0x2d000000
 198:	612d6775 			; <UNDEFINED> instruction: 0x612d6775
 19c:	636f6c6c 	cmnvs	pc, #108, 24	; 0x6c00
 1a0:	646f632f 	strbtvs	r6, [pc], #-815	; 1a8 <__code_start__-0x7e58>
 1a4:	75660065 	strbvc	r0, [r6, #-101]!	; 0xffffff9b
 1a8:	7200636e 	andvc	r6, r0, #-1207959551	; 0xb8000001
 1ac:	725f6970 	subsvc	r6, pc, #112, 18	; 0x1c0000
 1b0:	33646e61 	cmncc	r4, #1552	; 0x610
 1b4:	5f5f0032 	svcpl	0x005f0032
 1b8:	434e5546 	movtmi	r5, #58694	; 0xe546
 1bc:	4e4f4954 			; <UNDEFINED> instruction: 0x4e4f4954
 1c0:	6c005f5f 	stcvs	15, cr5, [r0], {95}	; 0x5f
 1c4:	20676e6f 	rsbcs	r6, r7, pc, ror #28
 1c8:	676e6f6c 	strbvs	r6, [lr, -ip, ror #30]!
 1cc:	736e7520 	cmnvc	lr, #32, 10	; 0x8000000
 1d0:	656e6769 	strbvs	r6, [lr, #-1897]!	; 0xfffff897
 1d4:	6e692064 	cdpvs	0, 6, cr2, cr9, cr4, {3}
 1d8:	6f6c0074 	svcvs	0x006c0074
 1dc:	6c20676e 	stcvs	7, cr6, [r0], #-440	; 0xfffffe48
 1e0:	20676e6f 	rsbcs	r6, r7, pc, ror #28
 1e4:	00746e69 	rsbseq	r6, r4, r9, ror #28
 1e8:	5f697072 	svcpl	0x00697072
 1ec:	63747570 	cmnvs	r4, #112, 10	; 0x1c000000
 1f0:	00726168 	rsbseq	r6, r2, r8, ror #2
 1f4:	72666b63 	rsbvc	r6, r6, #101376	; 0x18c00
 1f8:	73006565 	movwvc	r6, #1381	; 0x565
 1fc:	74726f68 	ldrbtvc	r6, [r2], #-3944	; 0xfffff098
 200:	746e6920 	strbtvc	r6, [lr], #-2336	; 0xfffff6e0
 204:	63727300 	cmnvs	r2, #0, 6
 208:	636f6c5f 	cmnvs	pc, #24320	; 0x5f00
 20c:	6300745f 	movwvs	r7, #1119	; 0x45f
 210:	74705f6b 	ldrbtvc	r5, [r0], #-3947	; 0xfffff095
 214:	6e695f72 	mcrvs	15, 3, r5, cr9, cr2, {3}
 218:	6f6c625f 	svcvs	0x006c625f
 21c:	68006b63 	stmdavs	r0, {r0, r1, r5, r6, r8, r9, fp, sp, lr}
 220:	745f7264 	ldrbvc	r7, [pc], #-612	; 228 <__code_start__-0x7dd8>
 224:	6f6c6200 	svcvs	0x006c6200
 228:	695f6b63 	ldmdbvs	pc, {r0, r1, r5, r6, r8, r9, fp, sp, lr}^	; <UNPREDICTABLE>
 22c:	52460064 	subpl	r0, r6, #100, 0	; 0x64
 230:	00444545 	subeq	r4, r4, r5, asr #10
 234:	7479626e 	ldrbtvc	r6, [r9], #-622	; 0xfffffd92
 238:	615f7365 	cmpvs	pc, r5, ror #6
 23c:	636f6c6c 	cmnvs	pc, #108, 24	; 0x6c00
 240:	44455200 	strbmi	r5, [r5], #-512	; 0xfffffe00
 244:	454e4f5a 	strbmi	r4, [lr, #-3930]	; 0xfffff0a6
 248:	4c41565f 	mcrrmi	6, 5, r5, r1, cr15
 24c:	44455200 	strbmi	r5, [r5], #-512	; 0xfffffe00
 250:	454e4f5a 	strbmi	r4, [lr, #-3930]	; 0xfffff0a6
 254:	59424e5f 	stmdbpl	r2, {r0, r1, r2, r3, r4, r6, r9, sl, fp, lr}^
 258:	00534554 	subseq	r4, r3, r4, asr r5
 25c:	665f6b63 	ldrbvs	r6, [pc], -r3, ror #22
 260:	74737269 	ldrbtvc	r7, [r3], #-617	; 0xfffffd97
 264:	7264685f 	rsbvc	r6, r4, #6225920	; 0x5f0000
 268:	6e697500 	cdpvs	5, 6, cr7, cr9, cr0, {0}
 26c:	745f3874 	ldrbvc	r3, [pc], #-2164	; 274 <__code_start__-0x7d8c>
 270:	63616200 	cmnvs	r1, #0, 4
 274:	6172746b 	cmnvs	r2, fp, ror #8
 278:	61006563 	tstvs	r0, r3, ror #10
 27c:	636f6c6c 	cmnvs	pc, #108, 24	; 0x6c00
 280:	73696c5f 	cmnvc	r9, #24320	; 0x5f00
 284:	656d0074 	strbvs	r0, [sp, #-116]!	; 0xffffff8c
 288:	7465736d 	strbtvc	r7, [r5], #-877	; 0xfffffc93
 28c:	5f6b6300 	svcpl	0x006b6300
 290:	00726468 	rsbseq	r6, r2, r8, ror #8
 294:	6f6c6c61 	svcvs	0x006c6c61
 298:	6f6c5f63 	svcvs	0x006c5f63
 29c:	74730063 	ldrbtvc	r0, [r3], #-99	; 0xffffff9d
 2a0:	00657461 	rsbeq	r7, r5, r1, ror #8
 2a4:	73666572 	cmnvc	r6, #478150656	; 0x1c800000
 2a8:	6174735f 	cmnvs	r4, pc, asr r3
 2ac:	75007472 	strvc	r7, [r0, #-1138]	; 0xfffffb8e
 2b0:	33746e69 	cmncc	r4, #1680	; 0x690
 2b4:	00745f32 	rsbseq	r5, r4, r2, lsr pc
 2b8:	746e6975 	strbtvc	r6, [lr], #-2421	; 0xfffff68b
 2bc:	745f3631 	ldrbvc	r3, [pc], #-1585	; 2c4 <__code_start__-0x7d3c>
 2c0:	5f6b6300 	svcpl	0x006b6300
 2c4:	5f727470 	svcpl	0x00727470
 2c8:	615f7369 	cmpvs	pc, r9, ror #6
 2cc:	636f6c6c 	cmnvs	pc, #108, 24	; 0x6c00
 2d0:	63006465 	movwvs	r6, #1125	; 0x465
 2d4:	656e5f6b 	strbvs	r5, [lr, #-3947]!	; 0xfffff095
 2d8:	685f7478 	ldmdavs	pc, {r3, r4, r5, r6, sl, ip, sp, lr}^	; <UNPREDICTABLE>
 2dc:	63007264 	movwvs	r7, #612	; 0x264
 2e0:	6c6c616b 	stfvse	f6, [ip], #-428	; 0xfffffe54
 2e4:	632e636f 			; <UNDEFINED> instruction: 0x632e636f
 2e8:	66657200 	strbtvs	r7, [r5], -r0, lsl #4
 2ec:	696d5f73 	stmdbvs	sp!, {r0, r1, r4, r5, r6, r8, r9, sl, fp, ip, lr}^
 2f0:	656c6464 	strbvs	r6, [ip, #-1124]!	; 0xfffffb9c
 2f4:	4c4c4100 	stfmie	f4, [ip], {-0}
 2f8:	4445434f 	strbmi	r4, [r5], #-847	; 0xfffffcb1
 2fc:	5f6b6300 	svcpl	0x006b6300
 300:	5f726468 	svcpl	0x00726468
 304:	72617473 	rsbvc	r7, r1, #1929379840	; 0x73000000
 308:	6b630074 	blvs	18c04e0 <__bss_end__+0x18b5150>
 30c:	7264685f 	rsbvc	r6, r4, #6225920	; 0x5f0000
 310:	646e655f 	strbtvs	r6, [lr], #-1375	; 0xfffffaa1
 314:	65726600 	ldrbvs	r6, [r2, #-1536]!	; 0xfffffa00
 318:	6f6c5f65 	svcvs	0x006c5f65
 31c:	6b630063 	blvs	18c04b0 <__bss_end__+0x18b5120>
 320:	79626e5f 	stmdbvc	r2!, {r0, r1, r2, r3, r4, r6, r9, sl, fp, sp, lr}^
 324:	00736574 	rsbseq	r6, r3, r4, ror r5
 328:	6d5f726b 	lfmvs	f7, 2, [pc, #-428]	; 184 <__code_start__-0x7e7c>
 32c:	6f6c6c61 	svcvs	0x006c6c61
 330:	656e0063 	strbvs	r0, [lr, #-99]!	; 0xffffff9d
 334:	68007478 	stmdavs	r0, {r3, r4, r5, r6, sl, ip, sp, lr}
 338:	65646165 	strbvs	r6, [r4, #-357]!	; 0xfffffe9b
 33c:	72700072 	rsbsvc	r0, r0, #114, 0	; 0x72
 340:	00707665 	rsbseq	r7, r0, r5, ror #12
 344:	67696c61 	strbvs	r6, [r9, -r1, ror #24]!
 348:	726b006e 	rsbvc	r0, fp, #110, 0	; 0x6e
 34c:	6572665f 	ldrbvs	r6, [r2, #-1631]!	; 0xfffff9a1
 350:	72660065 	rsbvc	r0, r6, #101, 0	; 0x65
 354:	00706565 	rsbseq	r6, r0, r5, ror #10
 358:	696e756e 	stmdbvs	lr!, {r1, r2, r3, r5, r6, r8, sl, ip, sp, lr}^
 35c:	6b007374 	blvs	1d134 <__bss_end__+0x11da4>
 360:	616d2d72 	smcvs	53970	; 0xd2d2
 364:	636f6c6c 	cmnvs	pc, #108, 24	; 0x6c00
 368:	6400632e 	strvs	r6, [r0], #-814	; 0xfffffcd2
 36c:	6c62756f 	cfstr64vs	mvdx7, [r2], #-444	; 0xfffffe44
 370:	61620065 	cmnvs	r2, r5, rrx
 374:	73006573 	movwvc	r6, #1395	; 0x573
 378:	006b7262 	rsbeq	r7, fp, r2, ror #4
 37c:	65726f6d 	ldrbvs	r6, [r2, #-3949]!	; 0xfffff093
 380:	65726f63 	ldrbvs	r6, [r2, #-3939]!	; 0xfffff09d
 384:	7a697300 	bvc	1a5cf8c <__bss_end__+0x1a51bfc>
 388:	65480065 	strbvs	r0, [r8, #-101]	; 0xffffff9b
 38c:	72656461 	rsbvc	r6, r5, #1627389952	; 0x61000000
 390:	61747300 	cmnvs	r4, r0, lsl #6
 394:	745f6b63 	ldrbvc	r6, [pc], #-2915	; 39c <__code_start__-0x7c64>
 398:	6d00706f 	stcvs	0, cr7, [r0, #-444]	; 0xfffffe44
 39c:	5f6b7261 	svcpl	0x006b7261
 3a0:	006c6c61 	rsbeq	r6, ip, r1, ror #24
 3a4:	6c706d69 	ldclvs	13, cr6, [r0], #-420	; 0xfffffe5c
 3a8:	6e656d65 	cdpvs	13, 6, cr6, cr5, cr5, {3}
 3ac:	68745f74 	ldmdavs	r4!, {r2, r4, r5, r6, r8, r9, sl, fp, ip, lr}^
 3b0:	5f007369 	svcpl	0x00007369
 3b4:	7373625f 	cmnvc	r3, #-268435451	; 0xf0000005
 3b8:	6174735f 	cmnvs	r4, pc, asr r3
 3bc:	5f5f7472 	svcpl	0x005f7472
 3c0:	6c626e00 	stclvs	14, cr6, [r2], #-0
 3c4:	736b636f 	cmnvc	fp, #-1140850687	; 0xbc000001
 3c8:	696e6900 	stmdbvs	lr!, {r8, fp, sp, lr}^
 3cc:	00705f74 	rsbseq	r5, r0, r4, ror pc
 3d0:	7479626e 	ldrbtvc	r6, [r9], #-622	; 0xfffffd92
 3d4:	665f7365 	ldrbvs	r7, [pc], -r5, ror #6
 3d8:	64656572 	strbtvs	r6, [r5], #-1394	; 0xfffffa8e
 3dc:	646c6f00 	strbtvs	r6, [ip], #-3840	; 0xfffff100
 3e0:	72616d5f 	rsbvc	r6, r1, #6080	; 0x17c0
 3e4:	6e69006b 	cdpvs	0, 6, cr0, cr9, cr11, {3}
 3e8:	6d657263 	sfmvs	f7, 2, [r5, #-396]!	; 0xfffffe74
 3ec:	00746e65 	rsbseq	r6, r4, r5, ror #28
 3f0:	665f6b63 	ldrbvs	r6, [pc], -r3, ror #22
 3f4:	5f646e69 	svcpl	0x00646e69
 3f8:	6b61656c 	blvs	18599b0 <__bss_end__+0x184e620>
 3fc:	616d0073 	smcvs	53251	; 0xd003
 400:	5f656279 	svcpl	0x00656279
 404:	6f727265 	svcvs	0x00727265
 408:	63007372 	movwvs	r7, #882	; 0x372
 40c:	63675f6b 	cmnvs	r7, #428	; 0x1ac
 410:	645f5f00 	ldrbvs	r5, [pc], #-3840	; 418 <__code_start__-0x7be8>
 414:	5f617461 	svcpl	0x00617461
 418:	5f646e65 	svcpl	0x00646e65
 41c:	7564005f 	strbvc	r0, [r4, #-95]!	; 0xffffffa1
 420:	725f706d 	subsvc	r7, pc, #109, 0	; 0x6d
 424:	00736765 	rsbseq	r6, r3, r5, ror #14
 428:	61656c6e 	cmnvs	r5, lr, ror #24
 42c:	6500736b 	strvs	r7, [r0, #-875]	; 0xfffffc95
 430:	726f7272 	rsbvc	r7, pc, #536870919	; 0x20000007
 434:	68745f73 	ldmdavs	r4!, {r0, r1, r4, r5, r6, r8, r9, sl, fp, ip, lr}^
 438:	625f7369 	subsvs	r7, pc, #-1543503871	; 0xa4000001
 43c:	6b636f6c 	blvs	18dc1f4 <__bss_end__+0x18d0e64>
 440:	5f736900 	svcpl	0x00736900
 444:	00727470 	rsbseq	r7, r2, r0, ror r4
 448:	6572666e 	ldrbvs	r6, [r2, #-1646]!	; 0xfffff992
 44c:	63006465 	movwvs	r6, #1125	; 0x465
 450:	6b636568 	blvs	18d99f8 <__bss_end__+0x18ce668>
 454:	5f6f6e5f 	svcpl	0x006f6e5f
 458:	6b61656c 	blvs	1859a10 <__bss_end__+0x184e680>
 45c:	5f6e6900 	svcpl	0x006e6900
 460:	70616568 	rsbvc	r6, r1, r8, ror #10
 464:	656e6f00 	strbvs	r6, [lr, #-3840]!	; 0xfffff100
 468:	6300626d 	movwvs	r6, #621	; 0x26d
 46c:	63672d6b 	cmnvs	r7, #6848	; 0x1ac0
 470:	6300632e 	movwvs	r6, #814	; 0x32e
 474:	6b636568 	blvs	18d9a1c <__bss_end__+0x18ce68c>
 478:	6f68735f 	svcvs	0x0068735f
 47c:	5f646c75 	svcpl	0x00646c75
 480:	6b61656c 	blvs	1859a38 <__bss_end__+0x184e6a8>
 484:	625f5f00 	subsvs	r5, pc, #0, 30
 488:	655f7373 	ldrbvs	r7, [pc, #-883]	; 11d <__code_start__-0x7ee3>
 48c:	5f5f646e 	svcpl	0x005f646e
 490:	64657200 	strbtvs	r7, [r5], #-512	; 0xfffffe00
 494:	656e6f7a 	strbvs	r6, [lr, #-3962]!	; 0xfffff086
 498:	7272655f 	rsbsvc	r6, r2, #398458880	; 0x17c00000
 49c:	0073726f 	rsbseq	r7, r3, pc, ror #4
 4a0:	7a646572 	bvc	1919a70 <__bss_end__+0x190e6e0>
 4a4:	00656e6f 	rsbeq	r6, r5, pc, ror #28
 4a8:	6c616d6b 	stclvs	13, cr6, [r1], #-428	; 0xfffffe54
 4ac:	00636f6c 	rsbeq	r6, r3, ip, ror #30
 4b0:	6c616d6b 	stclvs	13, cr6, [r1], #-428	; 0xfffffe54
 4b4:	5f636f6c 	svcpl	0x00636f6c
 4b8:	74696e69 	strbtvc	r6, [r9], #-3689	; 0xfffff197
 4bc:	7465735f 	strbtvc	r7, [r5], #-863	; 0xfffffca1
 4c0:	6174735f 	cmnvs	r4, pc, asr r3
 4c4:	73007472 	movwvc	r7, #1138	; 0x472
 4c8:	70656577 	rsbvc	r6, r5, r7, ror r5
 4cc:	61656c5f 	cmnvs	r5, pc, asr ip
 4d0:	5f5f006b 	svcpl	0x005f006b
 4d4:	61746164 	cmnvs	r4, r4, ror #2
 4d8:	6174735f 	cmnvs	r4, pc, asr r3
 4dc:	5f5f7472 	svcpl	0x005f7472
 4e0:	65777300 	ldrbvs	r7, [r7, #-768]!	; 0xfffffd00
 4e4:	665f7065 	ldrbvs	r7, [pc], -r5, rrx
 4e8:	00656572 	rsbeq	r6, r5, r2, ror r5
 4ec:	6e726177 	mrcvs	1, 3, r6, cr2, cr7, {3}
 4f0:	5f6f6e5f 	svcpl	0x006f6e5f
 4f4:	72617473 	rsbvc	r7, r1, #1929379840	; 0x73000000
 4f8:	65725f74 	ldrbvs	r5, [r2, #-3956]!	; 0xfffff08c
 4fc:	00705f66 	rsbseq	r5, r0, r6, ror #30
 500:	61746f74 	cmnvs	r4, r4, ror pc
 504:	6f77006c 	svcvs	0x0077006c
 508:	6e006472 	mcrvs	4, 0, r6, cr0, cr2, {3}
 50c:	5f656d61 	svcpl	0x00656d61
 510:	006e656c 	rsbeq	r6, lr, ip, ror #10
 514:	20554e47 	subscs	r4, r5, r7, asr #28
 518:	20393943 	eorscs	r3, r9, r3, asr #18
 51c:	2e322e39 	mrccs	14, 1, r2, cr2, cr9, {1}
 520:	30322031 	eorscc	r2, r2, r1, lsr r0
 524:	30313931 	eorscc	r3, r1, r1, lsr r9
 528:	28203532 	stmdacs	r0!, {r1, r4, r5, r8, sl, ip, sp}
 52c:	656c6572 	strbvs	r6, [ip, #-1394]!	; 0xfffffa8e
 530:	29657361 	stmdbcs	r5!, {r0, r5, r6, r8, r9, ip, sp, lr}^
 534:	52415b20 	subpl	r5, r1, #32, 22	; 0x8000
 538:	72612f4d 	rsbvc	r2, r1, #308	; 0x134
 53c:	2d392d6d 	ldccs	13, cr2, [r9, #-436]!	; 0xfffffe4c
 540:	6e617262 	cdpvs	2, 6, cr7, cr1, cr2, {3}
 544:	72206863 	eorvc	r6, r0, #6488064	; 0x630000
 548:	73697665 	cmnvc	r9, #105906176	; 0x6500000
 54c:	206e6f69 	rsbcs	r6, lr, r9, ror #30
 550:	35373732 	ldrcc	r3, [r7, #-1842]!	; 0xfffff8ce
 554:	205d3939 	subscs	r3, sp, r9, lsr r9
 558:	70636d2d 	rsbvc	r6, r3, sp, lsr #26
 55c:	72613d75 	rsbvc	r3, r1, #7488	; 0x1d40
 560:	3731316d 	ldrcc	r3, [r1, -sp, ror #2]!
 564:	667a6a36 			; <UNDEFINED> instruction: 0x667a6a36
 568:	2d20732d 	stccs	3, cr7, [r0, #-180]!	; 0xffffff4c
 56c:	6e75746d 	cdpvs	4, 7, cr7, cr5, cr13, {3}
 570:	72613d65 	rsbvc	r3, r1, #6464	; 0x1940
 574:	3731316d 	ldrcc	r3, [r1, -sp, ror #2]!
 578:	667a6a36 			; <UNDEFINED> instruction: 0x667a6a36
 57c:	2d20732d 	stccs	3, cr7, [r0, #-180]!	; 0xffffff4c
 580:	6f6c666d 	svcvs	0x006c666d
 584:	612d7461 			; <UNDEFINED> instruction: 0x612d7461
 588:	733d6962 	teqvc	sp, #1605632	; 0x188000
 58c:	2074666f 	rsbscs	r6, r4, pc, ror #12
 590:	72616d2d 	rsbvc	r6, r1, #2880	; 0xb40
 594:	6d2d206d 	stcvs	0, cr2, [sp, #-436]!	; 0xfffffe4c
 598:	68637261 	stmdavs	r3!, {r0, r5, r6, r9, ip, sp, lr}^
 59c:	6d72613d 	ldfvse	f6, [r2, #-244]!	; 0xffffff0c
 5a0:	7a6b3676 	bvc	1acdf80 <__bss_end__+0x1ac2bf0>
 5a4:	67672d20 	strbvs	r2, [r7, -r0, lsr #26]!
 5a8:	2d206264 	sfmcs	f6, 4, [r0, #-400]!	; 0xfffffe70
 5ac:	7361664f 	cmnvc	r1, #82837504	; 0x4f00000
 5b0:	732d2074 			; <UNDEFINED> instruction: 0x732d2074
 5b4:	673d6474 			; <UNDEFINED> instruction: 0x673d6474
 5b8:	3939756e 	ldmdbcc	r9!, {r1, r2, r3, r5, r6, r8, sl, ip, sp, lr}
 5bc:	66662d20 	strbtvs	r2, [r6], -r0, lsr #26
 5c0:	73656572 	cmnvc	r5, #478150656	; 0x1c800000
 5c4:	646e6174 	strbtvs	r6, [lr], #-372	; 0xfffffe8c
 5c8:	00676e69 	rsbeq	r6, r7, r9, ror #28
 5cc:	735f6e66 	cmpvc	pc, #1632	; 0x660
 5d0:	74726174 	ldrbtvc	r6, [r2], #-372	; 0xfffffe8c
 5d4:	6464615f 	strbtvs	r6, [r4], #-351	; 0xfffffea1
 5d8:	552f0072 	strpl	r0, [pc, #-114]!	; 56e <__code_start__-0x7a92>
 5dc:	73726573 	cmnvc	r2, #482344960	; 0x1cc00000
 5e0:	6c696d2f 	stclvs	13, cr6, [r9], #-188	; 0xffffff44
 5e4:	532f7365 			; <UNDEFINED> instruction: 0x532f7365
 5e8:	6372756f 	cmnvs	r2, #465567744	; 0x1bc00000
 5ec:	73632f65 	cmnvc	r3, #404	; 0x194
 5f0:	6c303432 	cfldrsvs	mvf3, [r0], #-200	; 0xffffff38
 5f4:	696c2f78 	stmdbvs	ip!, {r3, r4, r5, r6, r8, r9, sl, fp, sp}^
 5f8:	00697062 	rsbeq	r7, r9, r2, rrx
 5fc:	72732f2e 	rsbsvc	r2, r3, #184	; 0xb8
 600:	61622f63 	cmnvs	r2, r3, ror #30
 604:	72746b63 	rsbsvc	r6, r4, #101376	; 0x18c00
 608:	2e656361 	cdpcs	3, 6, cr6, cr5, cr1, {3}
 60c:	75630063 	strbvc	r0, [r3, #-99]!	; 0xffffff9d
 610:	70665f72 	rsbvc	r5, r6, r2, ror pc
 614:	6d616e00 	stclvs	14, cr6, [r1, #-0]
 618:	666f5f65 	strbtvs	r5, [pc], -r5, ror #30
 61c:	7a697300 	bvc	1a5d224 <__bss_end__+0x1a51e94>
 620:	00745f65 	rsbseq	r5, r4, r5, ror #30
 624:	696c2f2e 	stmdbvs	ip!, {r1, r2, r3, r5, r8, r9, sl, fp, sp}^
 628:	6d2f6362 	stcvs	3, cr6, [pc, #-392]!	; 4a8 <__code_start__-0x7b58>
 62c:	65736d65 	ldrbvs	r6, [r3, #-3429]!	; 0xfffff29b
 630:	00632e74 	rsbeq	r2, r3, r4, ror lr
 634:	73677261 	cmnvc	r7, #268435462	; 0x10000006
 638:	5f617600 	svcpl	0x00617600
 63c:	6e697270 	mcrvs	2, 3, r7, cr9, cr0, {3}
 640:	5f006b74 	svcpl	0x00006b74
 644:	756e675f 	strbvc	r6, [lr, #-1887]!	; 0xfffff8a1
 648:	61765f63 	cmnvs	r6, r3, ror #30
 64c:	73696c5f 	cmnvc	r9, #24320	; 0x5f00
 650:	5f5f0074 	svcpl	0x005f0074
 654:	2e007061 	cdpcs	0, 0, cr7, cr0, cr1, {3}
 658:	62696c2f 	rsbvs	r6, r9, #12032	; 0x2f00
 65c:	72702f63 	rsbsvc	r2, r0, #396	; 0x18c
 660:	6b746e69 	blvs	1d1c00c <__bss_end__+0x1d10c7c>
 664:	5f00632e 	svcpl	0x0000632e
 668:	5f61765f 	svcpl	0x0061765f
 66c:	7473696c 	ldrbtvc	r6, [r3], #-2412	; 0xfffff694
 670:	746e6900 	strbtvc	r6, [lr], #-2304	; 0xfffff700
 674:	616e7265 	cmnvs	lr, r5, ror #4
 678:	75705f6c 	ldrbvc	r5, [r0, #-3948]!	; 0xfffff094
 67c:	2e006b74 	vmovcs.16	d0[1], r6
 680:	62696c2f 	rsbvs	r6, r9, #12032	; 0x2f00
 684:	75702f63 	ldrbvc	r2, [r0, #-3939]!	; 0xfffff09d
 688:	632e6b74 			; <UNDEFINED> instruction: 0x632e6b74
 68c:	73666c00 	cmnvc	r6, #0, 24
 690:	70720072 	rsbsvc	r0, r2, r2, ror r0
 694:	65725f69 	ldrbvs	r5, [r2, #-3945]!	; 0xfffff097
 698:	00746573 	rsbseq	r6, r4, r3, ror r5
 69c:	5f697072 	svcpl	0x00697072
 6a0:	646e6172 	strbtvs	r6, [lr], #-370	; 0xfffffe8e
 6a4:	73003631 	movwvc	r3, #1585	; 0x631
 6a8:	00646565 	rsbeq	r6, r4, r5, ror #10
 6ac:	696c2f2e 	stmdbvs	ip!, {r1, r2, r3, r5, r8, r9, sl, fp, sp}^
 6b0:	722f6362 	eorvc	r6, pc, #-2013265919	; 0x88000001
 6b4:	722d6970 	eorvc	r6, sp, #112, 18	; 0x1c0000
 6b8:	2e646e61 	cdpcs	14, 6, cr6, cr4, cr1, {3}
 6bc:	73690063 	cmnvc	r9, #99, 0	; 0x63
 6c0:	69676964 	stmdbvs	r7!, {r2, r5, r6, r8, fp, sp, lr}^
 6c4:	69750074 	ldmdbvs	r5!, {r2, r4, r5, r6}^
 6c8:	3436746e 	ldrtcc	r7, [r6], #-1134	; 0xfffffb92
 6cc:	2e00745f 	cfmvsrcs	mvf0, r7
 6d0:	62696c2f 	rsbvs	r6, r9, #12032	; 0x2f00
 6d4:	61762f63 	cmnvs	r6, r3, ror #30
 6d8:	6972702d 	ldmdbvs	r2!, {r0, r2, r3, r5, ip, sp, lr}^
 6dc:	2e6b746e 	cdpcs	4, 6, cr7, cr11, cr14, {3}
 6e0:	5f5f0063 	svcpl	0x005f0063
 6e4:	65646f63 	strbvs	r6, [r4, #-3939]!	; 0xfffff09d
 6e8:	6174735f 	cmnvs	r4, pc, asr r3
 6ec:	5f5f7472 	svcpl	0x005f7472
 6f0:	64697700 	strbtvs	r7, [r9], #-1792	; 0xfffff900
 6f4:	70006874 	andvc	r6, r0, r4, ror r8
 6f8:	5f637475 	svcpl	0x00637475
 6fc:	5f007066 	svcpl	0x00007066
 700:	6165685f 	cmnvs	r5, pc, asr r8
 704:	74735f70 	ldrbtvc	r5, [r3], #-3952	; 0xfffff090
 708:	5f747261 	svcpl	0x00747261
 70c:	7072005f 	rsbsvc	r0, r2, pc, asr r0
 710:	65735f69 	ldrbvs	r5, [r3, #-3945]!	; 0xfffff097
 714:	756f5f74 	strbvc	r5, [pc, #-3956]!	; fffff7a8 <__bss_end__+0xffff4418>
 718:	74757074 	ldrbtvc	r7, [r5], #-116	; 0xffffff8c
 71c:	746d6600 	strbtvc	r6, [sp], #-1536	; 0xfffffa00
 720:	6174735f 	cmnvs	r4, pc, asr r3
 724:	73007472 	movwvc	r7, #1138	; 0x472
 728:	61637274 	smcvs	14116	; 0x3724
 72c:	74730074 	ldrbtvc	r0, [r3], #-116	; 0xffffff8c
 730:	79706372 	ldmdbvc	r0!, {r1, r4, r5, r6, r8, r9, sp, lr}^
 734:	67656e00 	strbvs	r6, [r5, -r0, lsl #28]!
 738:	5f00705f 	svcpl	0x0000705f
 73c:	646f635f 	strbtvs	r6, [pc], #-863	; 744 <__code_start__-0x78bc>
 740:	6e655f65 	cdpvs	15, 6, cr5, cr5, cr5, {3}
 744:	005f5f64 	subseq	r5, pc, r4, ror #30
 748:	74696d65 	strbtvc	r6, [r9], #-3429	; 0xfffff29b
 74c:	76657200 	strbtvc	r7, [r5], -r0, lsl #4
 750:	65737265 	ldrbvs	r7, [r3, #-613]!	; 0xfffffd9b
 754:	72747300 	rsbsvc	r7, r4, #0, 6
 758:	00706d63 	rsbseq	r6, r0, r3, ror #26
 75c:	73747570 	cmnvc	r4, #112, 10	; 0x1c000000
 760:	0070665f 	rsbseq	r6, r0, pc, asr r6
 764:	72705f5f 	rsbsvc	r5, r0, #380	; 0x17c
 768:	655f676f 	ldrbvs	r6, [pc, #-1903]	; 1 <__code_start__-0x7fff>
 76c:	5f5f646e 	svcpl	0x005f646e
 770:	6d756e00 	ldclvs	14, cr6, [r5, #-0]
 774:	74730031 	ldrbtvc	r0, [r3], #-49	; 0xffffffcf
 778:	6d636e72 	stclvs	14, cr6, [r3, #-456]!	; 0xfffffe38
 77c:	69730070 	ldmdbvs	r3!, {r4, r5, r6}^
 780:	64656e67 	strbtvs	r6, [r5], #-3687	; 0xfffff199
 784:	7200705f 	andvc	r7, r0, #95, 0	; 0x5f
 788:	725f6970 	subsvc	r6, pc, #112, 18	; 0x1c0000
 78c:	6f6f6265 	svcvs	0x006f6265
 790:	65640074 	strbvs	r0, [r4, #-116]!	; 0xffffff8c
 794:	5f79616c 	svcpl	0x0079616c
 798:	2e00736d 	cdpcs	3, 0, cr7, cr0, cr13, {3}
 79c:	6174732f 	cmnvs	r4, pc, lsr #6
 7a0:	732d6666 			; <UNDEFINED> instruction: 0x732d6666
 7a4:	632f6372 			; <UNDEFINED> instruction: 0x632f6372
 7a8:	6e61656c 	cdpvs	5, 6, cr6, cr1, cr12, {3}
 7ac:	6265722d 	rsbvs	r7, r5, #-805306366	; 0xd0000002
 7b0:	2e746f6f 	cdpcs	15, 7, cr6, cr4, cr15, {3}
 7b4:	61750063 	cmnvs	r5, r3, rrx
 7b8:	665f7472 			; <UNDEFINED> instruction: 0x665f7472
 7bc:	6873756c 	ldmdavs	r3!, {r2, r3, r5, r6, r8, sl, ip, sp, lr}^
 7c0:	0078745f 	rsbseq	r7, r8, pc, asr r4
 7c4:	7473635f 	ldrbtvc	r6, [r3], #-863	; 0xfffffca1
 7c8:	00747261 	rsbseq	r7, r4, r1, ror #4
 7cc:	5f737362 	svcpl	0x00737362
 7d0:	00646e65 	rsbeq	r6, r4, r5, ror #28
 7d4:	74726175 	ldrbtvc	r6, [r2], #-373	; 0xfffffe8b
 7d8:	696e695f 	stmdbvs	lr!, {r0, r1, r2, r3, r4, r6, r8, fp, sp, lr}^
 7dc:	75630074 	strbvc	r0, [r3, #-116]!	; 0xffffff8c
 7e0:	6d6f7473 	cfstrdvs	mvd7, [pc, #-460]!	; 61c <__code_start__-0x79e4>
 7e4:	616f6c5f 	cmnvs	pc, pc, asr ip	; <UNPREDICTABLE>
 7e8:	00726564 	rsbseq	r6, r2, r4, ror #10
 7ec:	74732f2e 	ldrbtvc	r2, [r3], #-3886	; 0xfffff0d2
 7f0:	2d666661 	stclcs	6, cr6, [r6, #-388]!	; 0xfffffe7c
 7f4:	2f637273 	svccs	0x00637273
 7f8:	61747363 	cmnvs	r4, r3, ror #6
 7fc:	632e7472 			; <UNDEFINED> instruction: 0x632e7472
 800:	732f2e00 			; <UNDEFINED> instruction: 0x732f2e00
 804:	66666174 			; <UNDEFINED> instruction: 0x66666174
 808:	6372732d 	cmnvs	r2, #-1275068416	; 0xb4000000
 80c:	7375632f 	cmnvc	r5, #-1140850688	; 0xbc000000
 810:	2d6d6f74 	stclcs	15, cr6, [sp, #-464]!	; 0xfffffe30
 814:	64616f6c 	strbtvs	r6, [r1], #-3948	; 0xfffff094
 818:	632e7265 			; <UNDEFINED> instruction: 0x632e7265
 81c:	62657200 	rsbvs	r7, r5, #0, 4
 820:	5f746f6f 	svcpl	0x00746f6f
 824:	6c6c6163 	stfvse	f6, [ip], #-396	; 0xfffffe74
 828:	0074756f 	rsbseq	r7, r4, pc, ror #10
 82c:	575f4d50 			; <UNDEFINED> instruction: 0x575f4d50
 830:	00474f44 	subeq	r4, r7, r4, asr #30
 834:	33545550 	cmpcc	r4, #80, 10	; 0x14000000
 838:	65730032 	ldrbvs	r0, [r3, #-50]!	; 0xffffffce
 83c:	73755f74 	cmnvc	r5, #116, 30	; 0x1d0
 840:	6c5f7265 	lfmvs	f7, 2, [pc], {101}	; 0x65
 844:	6c657665 	stclvs	6, cr7, [r5], #-404	; 0xfffffe6c
 848:	732f2e00 			; <UNDEFINED> instruction: 0x732f2e00
 84c:	66666174 			; <UNDEFINED> instruction: 0x66666174
 850:	6372732d 	cmnvs	r2, #-1275068416	; 0xb4000000
 854:	6265722f 	rsbvs	r7, r5, #-268435454	; 0xf0000002
 858:	2e746f6f 	cdpcs	15, 7, cr6, cr4, cr15, {3}
 85c:	4d500063 	ldclmi	0, cr0, [r0, #-396]	; 0xfffffe74
 860:	5341505f 	movtpl	r5, #4191	; 0x105f
 864:	524f5753 	subpl	r5, pc, #21757952	; 0x14c0000
 868:	74610044 	strbtvc	r0, [r1], #-68	; 0xffffffbc
 86c:	6573755f 	ldrbvs	r7, [r3, #-1375]!	; 0xfffffaa1
 870:	656c5f72 	strbvs	r5, [ip, #-3954]!	; 0xfffff08e
 874:	006c6576 	rsbeq	r6, ip, r6, ror r5
 878:	525f4d50 	subspl	r4, pc, #80, 26	; 0x1400
 87c:	5f435453 	svcpl	0x00435453
 880:	46435257 			; <UNDEFINED> instruction: 0x46435257
 884:	55465f47 	strbpl	r5, [r6, #-3911]	; 0xfffff0b9
 888:	525f4c4c 	subspl	r4, pc, #76, 24	; 0x4c00
 88c:	54455345 	strbpl	r5, [r5], #-837	; 0xfffffcbb
 890:	5f4d5000 	svcpl	0x004d5000
 894:	43545352 	cmpmi	r4, #1207959553	; 0x48000001
 898:	73706300 	cmnvc	r0, #0, 6
 89c:	65640072 	strbvs	r0, [r4, #-114]!	; 0xffffff8e
 8a0:	61625f76 	smcvs	9718	; 0x25f6
 8a4:	65697272 	strbvs	r7, [r9, #-626]!	; 0xfffffd8e
 8a8:	65640072 	strbvs	r0, [r4, #-114]!	; 0xffffff8e
 8ac:	5f79616c 	svcpl	0x0079616c
 8b0:	00636573 	rsbeq	r6, r3, r3, ror r5
 8b4:	74732f2e 	ldrbtvc	r2, [r3], #-3886	; 0xfffff0d2
 8b8:	2d666661 	stclcs	6, cr6, [r6, #-388]!	; 0xfffffe7c
 8bc:	2f637273 	svccs	0x00637273
 8c0:	656d6974 	strbvs	r6, [sp, #-2420]!	; 0xfffff68c
 8c4:	00632e72 	rsbeq	r2, r3, r2, ror lr
 8c8:	33544547 	cmpcc	r4, #297795584	; 0x11c00000
 8cc:	69740032 	ldmdbvs	r4!, {r1, r4, r5}^
 8d0:	5f72656d 	svcpl	0x0072656d
 8d4:	5f746567 	svcpl	0x00746567
 8d8:	63657375 	cmnvs	r5, #-738197503	; 0xd4000001
 8dc:	6c656400 	cfstrdvs	mvd6, [r5], #-0
 8e0:	755f7961 	ldrbvc	r7, [pc, #-2401]	; ffffff87 <__bss_end__+0xffff4bf7>
 8e4:	69740073 	ldmdbvs	r4!, {r0, r1, r4, r5, r6}^
 8e8:	5f72656d 	svcpl	0x0072656d
 8ec:	5f746567 	svcpl	0x00746567
 8f0:	63657375 	cmnvs	r5, #-738197503	; 0xd4000001
 8f4:	7761725f 			; <UNDEFINED> instruction: 0x7761725f
 8f8:	74757000 	ldrbtvc	r7, [r5], #-0
 8fc:	62003233 	andvs	r3, r0, #805306371	; 0x30000003
 900:	5f647561 	svcpl	0x00647561
 904:	006c6176 	rsbeq	r6, ip, r6, ror r1
 908:	74617473 	strbtvc	r7, [r1], #-1139	; 0xfffffb8d
 90c:	72617500 	rsbvc	r7, r1, #0, 10
 910:	61635f74 	smcvs	13812	; 0x35f4
 914:	65675f6e 	strbvs	r5, [r7, #-3950]!	; 0xfffff092
 918:	47006374 	smlsdxmi	r0, r4, r3, r6
 91c:	5f4f4950 	svcpl	0x004f4950
 920:	434e5546 	movtmi	r5, #58694	; 0xe546
 924:	54554f5f 	ldrbpl	r4, [r5], #-3935	; 0xfffff0a1
 928:	00545550 	subseq	r5, r4, r0, asr r5
 92c:	5f787561 	svcpl	0x00787561
 930:	69726570 	ldmdbvs	r2!, {r4, r5, r6, r8, sl, sp, lr}^
 934:	00736870 	rsbseq	r6, r3, r0, ror r8
 938:	74726175 	ldrbtvc	r6, [r2], #-373	; 0xfffffe8b
 93c:	7500632e 	strvc	r6, [r0, #-814]	; 0xfffffcd2
 940:	5f747261 	svcpl	0x00747261
 944:	5f6e6163 	svcpl	0x006e6163
 948:	63747570 	cmnvs	r4, #112, 10	; 0x1c000000
 94c:	72617500 	rsbvc	r7, r1, #0, 10
 950:	78745f74 	ldmdavc	r4!, {r2, r4, r5, r6, r8, r9, sl, fp, ip, lr}^
 954:	5f73695f 	svcpl	0x0073695f
 958:	74706d65 	ldrbtvc	r6, [r0], #-3429	; 0xfffff29b
 95c:	50470079 	subpl	r0, r7, r9, ror r0
 960:	465f4f49 	ldrbmi	r4, [pc], -r9, asr #30
 964:	5f434e55 	svcpl	0x00434e55
 968:	30544c41 	subscc	r4, r4, r1, asr #24
 96c:	49504700 	ldmdbmi	r0, {r8, r9, sl, lr}^
 970:	55465f4f 	strbpl	r5, [r6, #-3919]	; 0xfffff0b1
 974:	415f434e 	cmpmi	pc, lr, asr #6
 978:	0031544c 	eorseq	r5, r1, ip, asr #8
 97c:	4f495047 	svcmi	0x00495047
 980:	4e55465f 	mrcmi	6, 2, r4, cr5, cr15, {2}
 984:	4c415f43 	mcrrmi	15, 4, r5, r1, cr3
 988:	47003254 	smlsdmi	r0, r4, r2, r3
 98c:	5f4f4950 	svcpl	0x004f4950
 990:	434e5546 	movtmi	r5, #58694	; 0xe546
 994:	544c415f 	strbpl	r4, [ip], #-351	; 0xfffffea1
 998:	50470033 	subpl	r0, r7, r3, lsr r0
 99c:	465f4f49 	ldrbmi	r4, [pc], -r9, asr #30
 9a0:	5f434e55 	svcpl	0x00434e55
 9a4:	35544c41 	ldrbcc	r4, [r4, #-3137]	; 0xfffff3bf
 9a8:	6f682f00 	svcvs	0x00682f00
 9ac:	652f656d 	strvs	r6, [pc, #-1389]!	; 447 <__code_start__-0x7bb9>
 9b0:	656c676e 	strbvs	r6, [ip, #-1902]!	; 0xfffff892
 9b4:	6c632f72 	stclvs	15, cr2, [r3], #-456	; 0xfffffe38
 9b8:	2f737361 	svccs	0x00737361
 9bc:	34327363 	ldrtcc	r7, [r2], #-867	; 0xfffffc9d
 9c0:	2d786c30 	ldclcs	12, cr6, [r8, #-192]!	; 0xffffff40
 9c4:	70733232 	rsbsvc	r3, r3, r2, lsr r2
 9c8:	696c2f72 	stmdbvs	ip!, {r1, r4, r5, r6, r8, r9, sl, fp, sp}^
 9cc:	2f697062 	svccs	0x00697062
 9d0:	66617473 			; <UNDEFINED> instruction: 0x66617473
 9d4:	72702d66 	rsbsvc	r2, r0, #6528	; 0x1980
 9d8:	74617669 	strbtvc	r7, [r1], #-1641	; 0xfffff997
 9dc:	61620065 	cmnvs	r2, r5, rrx
 9e0:	61006475 	tstvs	r0, r5, ror r4
 9e4:	655f7875 	ldrbvs	r7, [pc, #-2165]	; 177 <__code_start__-0x7e89>
 9e8:	6c62616e 	stfvse	f6, [r2], #-440	; 0xfffffe48
 9ec:	75007365 	strvc	r7, [r0, #-869]	; 0xfffffc9b
 9f0:	5f747261 	svcpl	0x00747261
 9f4:	63746567 	cmnvs	r4, #432013312	; 0x19c00000
 9f8:	554e4700 	strbpl	r4, [lr, #-1792]	; 0xfffff900
 9fc:	39394320 	ldmdbcc	r9!, {r5, r8, r9, lr}
 a00:	2e303120 	rsfcssp	f3, f0, f0
 a04:	20312e33 	eorscs	r2, r1, r3, lsr lr
 a08:	31323032 	teqcc	r2, r2, lsr r0
 a0c:	34323830 	ldrtcc	r3, [r2], #-2096	; 0xfffff7d0
 a10:	65722820 	ldrbvs	r2, [r2, #-2080]!	; 0xfffff7e0
 a14:	7361656c 	cmnvc	r1, #108, 10	; 0x1b000000
 a18:	2d202965 			; <UNDEFINED> instruction: 0x2d202965
 a1c:	7570636d 	ldrbvc	r6, [r0, #-877]!	; 0xfffffc93
 a20:	6d72613d 	ldfvse	f6, [r2, #-244]!	; 0xffffff0c
 a24:	36373131 			; <UNDEFINED> instruction: 0x36373131
 a28:	2d667a6a 	vstmdbcs	r6!, {s15-s120}
 a2c:	6d2d2073 	stcvs	0, cr2, [sp, #-460]!	; 0xfffffe34
 a30:	656e7574 	strbvs	r7, [lr, #-1396]!	; 0xfffffa8c
 a34:	6d72613d 	ldfvse	f6, [r2, #-244]!	; 0xffffff0c
 a38:	36373131 			; <UNDEFINED> instruction: 0x36373131
 a3c:	2d667a6a 	vstmdbcs	r6!, {s15-s120}
 a40:	6d2d2073 	stcvs	0, cr2, [sp, #-460]!	; 0xfffffe34
 a44:	616f6c66 	cmnvs	pc, r6, ror #24
 a48:	62612d74 	rsbvs	r2, r1, #116, 26	; 0x1d00
 a4c:	6f733d69 	svcvs	0x00733d69
 a50:	2d207466 	cfstrscs	mvf7, [r0, #-408]!	; 0xfffffe68
 a54:	6d72616d 	ldfvse	f6, [r2, #-436]!	; 0xfffffe4c
 a58:	616d2d20 	cmnvs	sp, r0, lsr #26
 a5c:	3d686372 	stclcc	3, cr6, [r8, #-456]!	; 0xfffffe38
 a60:	766d7261 	strbtvc	r7, [sp], -r1, ror #4
 a64:	207a6b36 	rsbscs	r6, sl, r6, lsr fp
 a68:	6467672d 	strbtvs	r6, [r7], #-1837	; 0xfffff8d3
 a6c:	4f2d2062 	svcmi	0x002d2062
 a70:	732d2067 			; <UNDEFINED> instruction: 0x732d2067
 a74:	673d6474 			; <UNDEFINED> instruction: 0x673d6474
 a78:	3939756e 	ldmdbcc	r9!, {r1, r2, r3, r5, r6, r8, sl, ip, sp, lr}
 a7c:	66662d20 	strbtvs	r2, [r6], -r0, lsr #26
 a80:	73656572 	cmnvc	r5, #478150656	; 0x1c800000
 a84:	646e6174 	strbtvs	r6, [lr], #-372	; 0xfffffe8c
 a88:	00676e69 	rsbeq	r6, r7, r9, ror #28
 a8c:	6c746e63 	ldclvs	14, cr6, [r4], #-396	; 0xfffffe74
 a90:	72617500 	rsbvc	r7, r1, #0, 10
 a94:	69645f74 	stmdbvs	r4!, {r2, r4, r5, r6, r8, r9, sl, fp, ip, lr}^
 a98:	6c626173 	stfvse	f6, [r2], #-460	; 0xfffffe34
 a9c:	61750065 	cmnvs	r5, r5, rrx
 aa0:	685f7472 	ldmdavs	pc, {r1, r4, r5, r6, sl, ip, sp, lr}^	; <UNPREDICTABLE>
 aa4:	645f7361 	ldrbvs	r7, [pc], #-865	; aac <__code_start__-0x7554>
 aa8:	00617461 	rsbeq	r7, r1, r1, ror #8
 aac:	4f495047 	svcmi	0x00495047
 ab0:	4e55465f 	mrcmi	6, 2, r4, cr5, cr15, {2}
 ab4:	4c415f43 	mcrrmi	15, 4, r5, r1, cr3
 ab8:	6f003454 	svcvs	0x00003454
 abc:	6e695f72 	mcrvs	15, 3, r5, cr9, cr2, {3}
 ac0:	73003233 	movwvc	r3, #563	; 0x233
 ac4:	74617263 	strbtvc	r7, [r1], #-611	; 0xfffffd9d
 ac8:	75006863 	strvc	r6, [r0, #-2147]	; 0xfffff79d
 acc:	00747261 	rsbseq	r7, r4, r1, ror #4
 ad0:	5f646e61 	svcpl	0x00646e61
 ad4:	32336e69 	eorscc	r6, r3, #1680	; 0x690
 ad8:	72617500 	rsbvc	r7, r1, #0, 10
 adc:	75705f74 	ldrbvc	r5, [r0, #-3956]!	; 0xfffff08c
 ae0:	47006374 	smlsdxmi	r0, r4, r3, r6
 ae4:	5f4f4950 	svcpl	0x004f4950
 ae8:	434e5546 	movtmi	r5, #58694	; 0xe546
 aec:	504e495f 	subpl	r4, lr, pc, asr r9
 af0:	67005455 	smlsdvs	r0, r5, r4, r5
 af4:	5f6f6970 	svcpl	0x006f6970
 af8:	5f746573 	svcpl	0x00746573
 afc:	636e7566 	cmnvs	lr, #427819008	; 0x19800000
 b00:	6e6f6974 			; <UNDEFINED> instruction: 0x6e6f6974
 b04:	74656700 	strbtvc	r6, [r5], #-1792	; 0xfffff900
 b08:	6b003233 	blvs	d3dc <__bss_end__+0x204c>
 b0c:	6c6c616d 	stfvse	f6, [ip], #-436	; 0xfffffe4c
 b10:	685f636f 	ldmdavs	pc, {r0, r1, r2, r3, r5, r6, r8, r9, sp, lr}^	; <UNPREDICTABLE>
 b14:	5f706165 	svcpl	0x00706165
 b18:	72617473 	rsbvc	r7, r1, #1929379840	; 0x73000000
 b1c:	616d0074 	smcvs	53252	; 0xd004
 b20:	626e5f78 	rsbvs	r5, lr, #120, 30	; 0x1e0
 b24:	73657479 	cmnvc	r5, #2030043136	; 0x79000000
 b28:	61656800 	cmnvs	r5, r0, lsl #16
 b2c:	616d5f70 	smcvs	54768	; 0xd5f0
 b30:	666b0078 			; <UNDEFINED> instruction: 0x666b0078
 b34:	5f656572 	svcpl	0x00656572
 b38:	006c6c61 	rsbeq	r6, ip, r1, ror #24
 b3c:	6e756f72 	mrcvs	15, 3, r6, cr5, cr2, {3}
 b40:	00707564 	rsbseq	r7, r0, r4, ror #10
 b44:	6572666b 	ldrbvs	r6, [r2, #-1643]!	; 0xfffff995
 b48:	6f705f65 	svcvs	0x00705f65
 b4c:	6c610070 	stclvs	0, cr0, [r1], #-448	; 0xfffffe40
 b50:	6d6e6769 	stclvs	7, cr6, [lr, #-420]!	; 0xfffffe5c
 b54:	00746e65 	rsbseq	r6, r4, r5, ror #28
 b58:	5f78616d 	svcpl	0x0078616d
 b5c:	00323375 	eorseq	r3, r2, r5, ror r3
 b60:	4d656e4f 	stclmi	14, cr6, [r5, #-316]!	; 0xfffffec4
 b64:	6d6b0042 	stclvs	0, cr0, [fp, #-264]!	; 0xfffffef8
 b68:	6f6c6c61 	svcvs	0x006c6c61
 b6c:	65685f63 	strbvs	r5, [r8, #-3939]!	; 0xfffff09d
 b70:	655f7061 	ldrbvs	r7, [pc, #-97]	; b17 <__code_start__-0x74e9>
 b74:	6b00646e 	blvs	19d34 <__bss_end__+0xe9a4>
 b78:	6c6c616d 	stfvse	f6, [ip], #-436	; 0xfffffe4c
 b7c:	6e5f636f 	cdpvs	3, 5, cr6, cr15, cr15, {3}
 b80:	657a746f 	ldrbvs	r7, [sl, #-1135]!	; 0xfffffb91
 b84:	69006f72 	stmdbvs	r0, {r1, r4, r5, r6, r8, r9, sl, fp, sp, lr}
 b88:	6f705f73 	svcvs	0x00705f73
 b8c:	6b003277 	blvs	d570 <__bss_end__+0x21e0>
 b90:	6c6c616d 	stfvse	f6, [ip], #-436	; 0xfffffe4c
 b94:	632e636f 			; <UNDEFINED> instruction: 0x632e636f
 b98:	616d6b00 	cmnvs	sp, r0, lsl #22
 b9c:	636f6c6c 	cmnvs	pc, #108, 24	; 0x6c00
 ba0:	696e695f 	stmdbvs	lr!, {r0, r1, r2, r3, r4, r6, r8, fp, sp, lr}^
 ba4:	73690074 	cmnvc	r9, #116, 0	; 0x74
 ba8:	696c615f 	stmdbvs	ip!, {r0, r1, r2, r3, r4, r6, r8, sp, lr}^
 bac:	64656e67 	strbtvs	r6, [r5], #-3687	; 0xfffff199
 bb0:	616d6b00 	cmnvs	sp, r0, lsl #22
 bb4:	636f6c6c 	cmnvs	pc, #108, 24	; 0x6c00
 bb8:	6165685f 	cmnvs	r5, pc, asr r8
 bbc:	74705f70 	ldrbtvc	r5, [r0], #-3952	; 0xfffff090
 bc0:	70720072 	rsbsvc	r0, r2, r2, ror r0
 bc4:	65725f69 	ldrbvs	r5, [r2, #-3945]!	; 0xfffff097
 bc8:	5f746573 	svcpl	0x00746573
 bcc:	63747570 	cmnvs	r4, #112, 10	; 0x1c000000
 bd0:	616d6b00 	cmnvs	sp, r0, lsl #22
 bd4:	636f6c6c 	cmnvs	pc, #108, 24	; 0x6c00
 bd8:	696c615f 	stmdbvs	ip!, {r0, r1, r2, r3, r4, r6, r8, sp, lr}^
 bdc:	64656e67 	strbtvs	r6, [r5], #-3687	; 0xfffff199
 be0:	69706700 	ldmdbvs	r0!, {r8, r9, sl, sp, lr}^
 be4:	6c635f6f 	stclvs	15, cr5, [r3], #-444	; 0xfffffe44
 be8:	67003072 	smlsdxvs	r0, r2, r0, r3
 bec:	5f6f6970 	svcpl	0x006f6970
 bf0:	30746573 	rsbscc	r6, r4, r3, ror r5
 bf4:	69706700 	ldmdbvs	r0!, {r8, r9, sl, sp, lr}^
 bf8:	72775f6f 	rsbsvc	r5, r7, #444	; 0x1bc
 bfc:	00657469 	rsbeq	r7, r5, r9, ror #8
 c00:	5f564544 	svcpl	0x00564544
 c04:	334c4156 	movtcc	r4, #49494	; 0xc156
 c08:	70670032 	rsbvc	r0, r7, r2, lsr r0
 c0c:	725f6f69 	subsvc	r6, pc, #420	; 0x1a4
 c10:	00646165 	rsbeq	r6, r4, r5, ror #2
 c14:	72732f2e 	rsbsvc	r2, r3, #184	; 0xb8
 c18:	70672f63 	rsbvc	r2, r7, r3, ror #30
 c1c:	632e6f69 			; <UNDEFINED> instruction: 0x632e6f69
 c20:	69706700 	ldmdbvs	r0!, {r8, r9, sl, sp, lr}^
 c24:	65735f6f 	ldrbvs	r5, [r3, #-3951]!	; 0xfffff091
 c28:	6e695f74 	mcrvs	15, 3, r5, cr9, cr4, {3}
 c2c:	00747570 	rsbseq	r7, r4, r0, ror r5
 c30:	6f697067 	svcvs	0x00697067
 c34:	7465735f 	strbtvc	r7, [r5], #-863	; 0xfffffca1
 c38:	66666f5f 	uqsaxvs	r6, r6, pc	; <UNPREDICTABLE>
 c3c:	69706700 	ldmdbvs	r0!, {r8, r9, sl, sp, lr}^
 c40:	65735f6f 	ldrbvs	r5, [r3, #-3951]!	; 0xfffff091
 c44:	756f5f74 	strbvc	r5, [pc, #-3956]!	; fffffcd8 <__bss_end__+0xffff4948>
 c48:	74757074 	ldrbtvc	r7, [r5], #-116	; 0xffffff8c
 c4c:	69706700 	ldmdbvs	r0!, {r8, r9, sl, sp, lr}^
 c50:	75665f6f 	strbvc	r5, [r6, #-3951]!	; 0xfffff091
 c54:	745f636e 	ldrbvc	r6, [pc], #-878	; c5c <__code_start__-0x73a4>
 c58:	69706700 	ldmdbvs	r0!, {r8, r9, sl, sp, lr}^
 c5c:	656c5f6f 	strbvs	r5, [ip, #-3951]!	; 0xfffff091
 c60:	62003076 	andvs	r3, r0, #118, 0	; 0x76
 c64:	006b6e61 	rsbeq	r6, fp, r1, ror #28
 c68:	6f697067 	svcvs	0x00697067
 c6c:	7465735f 	strbtvc	r7, [r5], #-863	; 0xfffffca1
 c70:	006e6f5f 	rsbeq	r6, lr, pc, asr pc
 c74:	65746e69 	ldrbvs	r6, [r4, #-3689]!	; 0xfffff197
 c78:	6c616e72 	stclvs	14, cr6, [r1], #-456	; 0xfffffe38
 c7c:	7475705f 	ldrbtvc	r7, [r5], #-95	; 0xffffffa1
 c80:	72616863 	rsbvc	r6, r1, #6488064	; 0x630000
 c84:	69707200 	ldmdbvs	r0!, {r9, ip, sp, lr}^
 c88:	7465735f 	strbtvc	r7, [r5], #-863	; 0xfffffca1
 c8c:	7475705f 	ldrbtvc	r7, [r5], #-95	; 0xffffffa1
 c90:	2f2e0063 	svccs	0x002e0063
 c94:	6362696c 	cmnvs	r2, #108, 18	; 0x1b0000
 c98:	7475702f 	ldrbtvc	r7, [r5], #-47	; 0xffffffd1
 c9c:	72616863 	rsbvc	r6, r1, #6488064	; 0x630000
 ca0:	2e00632e 	cdpcs	3, 0, cr6, cr0, cr14, {1}
 ca4:	62696c2f 	rsbvs	r6, r9, #12032	; 0x2f00
 ca8:	74732f63 	ldrbtvc	r2, [r3], #-3939	; 0xfffff09d
 cac:	74616372 	strbtvc	r6, [r1], #-882	; 0xfffffc8e
 cb0:	6400632e 	strvs	r6, [r0], #-814	; 0xfffffcd2
 cb4:	00747365 	rsbseq	r7, r4, r5, ror #6
 cb8:	696c2f2e 	stmdbvs	ip!, {r1, r2, r3, r5, r8, r9, sl, fp, sp}^
 cbc:	732f6362 			; <UNDEFINED> instruction: 0x732f6362
 cc0:	6d637274 	sfmvs	f7, 2, [r3, #-464]!	; 0xfffffe30
 cc4:	00632e70 	rsbeq	r2, r3, r0, ror lr
 cc8:	696c2f2e 	stmdbvs	ip!, {r1, r2, r3, r5, r8, r9, sl, fp, sp}^
 ccc:	732f6362 			; <UNDEFINED> instruction: 0x732f6362
 cd0:	70637274 	rsbvc	r7, r3, r4, ror r2
 cd4:	00632e79 	rsbeq	r2, r3, r9, ror lr
 cd8:	696c2f2e 	stmdbvs	ip!, {r1, r2, r3, r5, r8, r9, sl, fp, sp}^
 cdc:	732f6362 			; <UNDEFINED> instruction: 0x732f6362
 ce0:	636e7274 	cmnvs	lr, #116, 4	; 0x40000007
 ce4:	632e706d 			; <UNDEFINED> instruction: 0x632e706d
 ce8:	732f2e00 			; <UNDEFINED> instruction: 0x732f2e00
 cec:	66666174 			; <UNDEFINED> instruction: 0x66666174
 cf0:	6372732d 	cmnvs	r2, #-1275068416	; 0xb4000000
 cf4:	6665642f 	strbtvs	r6, [r5], -pc, lsr #8
 cf8:	746c7561 	strbtvc	r7, [ip], #-1377	; 0xfffffa9f
 cfc:	6265722d 	rsbvs	r7, r5, #-805306366	; 0xd0000002
 d00:	2d746f6f 	ldclcs	15, cr6, [r4, #-444]!	; 0xfffffe44
 d04:	6c6c6163 	stfvse	f6, [ip], #-396	; 0xfffffe74
 d08:	2e74756f 	cdpcs	5, 7, cr7, cr4, cr15, {3}
 d0c:	Address 0x0000000000000d0c is out of bounds.


Disassembly of section .debug_frame:

00000000 <.debug_frame>:
   0:	0000000c 	andeq	r0, r0, ip
   4:	ffffffff 			; <UNDEFINED> instruction: 0xffffffff
   8:	7c020001 	stcvc	0, cr0, [r2], {1}
   c:	000d0c0e 	andeq	r0, sp, lr, lsl #24
  10:	0000002c 	andeq	r0, r0, ip, lsr #32
  14:	00000000 	andeq	r0, r0, r0
  18:	00008044 	andeq	r8, r0, r4, asr #32
  1c:	00000100 	andeq	r0, r0, r0, lsl #2
  20:	420c0d42 	andmi	r0, ip, #4224	; 0x1080
  24:	07850884 	streq	r0, [r5, r4, lsl #17]
  28:	05870686 	streq	r0, [r7, #1670]	; 0x686
  2c:	038d048b 	orreq	r0, sp, #-1962934272	; 0x8b000000
  30:	0c42028e 	sfmeq	f0, 2, [r2], {142}	; 0x8e
  34:	6202040b 	andvs	r0, r2, #184549376	; 0xb000000
  38:	200d0c0a 	andcs	r0, sp, sl, lsl #24
  3c:	00000b42 	andeq	r0, r0, r2, asr #22
  40:	0000000c 	andeq	r0, r0, ip
  44:	ffffffff 			; <UNDEFINED> instruction: 0xffffffff
  48:	7c020001 	stcvc	0, cr0, [r2], {1}
  4c:	000d0c0e 	andeq	r0, sp, lr, lsl #24
  50:	0000001c 	andeq	r0, r0, ip, lsl r0
  54:	00000040 	andeq	r0, r0, r0, asr #32
  58:	00008158 	andeq	r8, r0, r8, asr r1
  5c:	0000001c 	andeq	r0, r0, ip, lsl r0
  60:	420c0d42 	andmi	r0, ip, #4224	; 0x1080
  64:	038d048b 	orreq	r0, sp, #-1962934272	; 0x8b000000
  68:	0c42028e 	sfmeq	f0, 2, [r2], {142}	; 0x8e
  6c:	0000040b 	andeq	r0, r0, fp, lsl #8
  70:	0000001c 	andeq	r0, r0, ip, lsl r0
  74:	00000040 	andeq	r0, r0, r0, asr #32
  78:	00008184 	andeq	r8, r0, r4, lsl #3
  7c:	0000001c 	andeq	r0, r0, ip, lsl r0
  80:	420c0d42 	andmi	r0, ip, #4224	; 0x1080
  84:	038d048b 	orreq	r0, sp, #-1962934272	; 0x8b000000
  88:	0c42028e 	sfmeq	f0, 2, [r2], {142}	; 0x8e
  8c:	0000040b 	andeq	r0, r0, fp, lsl #8
  90:	0000001c 	andeq	r0, r0, ip, lsl r0
  94:	00000040 	andeq	r0, r0, r0, asr #32
  98:	000081b4 			; <UNDEFINED> instruction: 0x000081b4
  9c:	00000014 	andeq	r0, r0, r4, lsl r0
  a0:	420c0d42 	andmi	r0, ip, #4224	; 0x1080
  a4:	038d048b 	orreq	r0, sp, #-1962934272	; 0x8b000000
  a8:	0c42028e 	sfmeq	f0, 2, [r2], {142}	; 0x8e
  ac:	0000040b 	andeq	r0, r0, fp, lsl #8
  b0:	00000020 	andeq	r0, r0, r0, lsr #32
  b4:	00000040 	andeq	r0, r0, r0, asr #32
  b8:	000081d8 	ldrdeq	r8, [r0], -r8	; <UNPREDICTABLE>
  bc:	00000020 	andeq	r0, r0, r0, lsr #32
  c0:	420c0d42 	andmi	r0, ip, #4224	; 0x1080
  c4:	05850684 	streq	r0, [r5, #1668]	; 0x684
  c8:	038d048b 	orreq	r0, sp, #-1962934272	; 0x8b000000
  cc:	0c42028e 	sfmeq	f0, 2, [r2], {142}	; 0x8e
  d0:	0000040b 	andeq	r0, r0, fp, lsl #8
  d4:	00000024 	andeq	r0, r0, r4, lsr #32
  d8:	00000040 	andeq	r0, r0, r0, asr #32
  dc:	0000820c 	andeq	r8, r0, ip, lsl #4
  e0:	00000038 	andeq	r0, r0, r8, lsr r0
  e4:	420c0d42 	andmi	r0, ip, #4224	; 0x1080
  e8:	07850884 	streq	r0, [r5, r4, lsl #17]
  ec:	05870686 	streq	r0, [r7, #1670]	; 0x686
  f0:	038d048b 	orreq	r0, sp, #-1962934272	; 0x8b000000
  f4:	0c42028e 	sfmeq	f0, 2, [r2], {142}	; 0x8e
  f8:	0000040b 	andeq	r0, r0, fp, lsl #8
  fc:	00000020 	andeq	r0, r0, r0, lsr #32
 100:	00000040 	andeq	r0, r0, r0, asr #32
 104:	0000825c 	andeq	r8, r0, ip, asr r2
 108:	00000060 	andeq	r0, r0, r0, rrx
 10c:	420c0d42 	andmi	r0, ip, #4224	; 0x1080
 110:	05850684 	streq	r0, [r5, #1668]	; 0x684
 114:	038d048b 	orreq	r0, sp, #-1962934272	; 0x8b000000
 118:	0c42028e 	sfmeq	f0, 2, [r2], {142}	; 0x8e
 11c:	0000040b 	andeq	r0, r0, fp, lsl #8
 120:	0000002c 	andeq	r0, r0, ip, lsr #32
 124:	00000040 	andeq	r0, r0, r0, asr #32
 128:	000082c8 	andeq	r8, r0, r8, asr #5
 12c:	0000019c 	muleq	r0, ip, r1
 130:	420c0d42 	andmi	r0, ip, #4224	; 0x1080
 134:	07850884 	streq	r0, [r5, r4, lsl #17]
 138:	05870686 	streq	r0, [r7, #1670]	; 0x686
 13c:	038d048b 	orreq	r0, sp, #-1962934272	; 0x8b000000
 140:	0c42028e 	sfmeq	f0, 2, [r2], {142}	; 0x8e
 144:	a202040b 	andge	r0, r2, #184549376	; 0xb000000
 148:	200d0c0a 	andcs	r0, sp, sl, lsl #24
 14c:	00000b42 	andeq	r0, r0, r2, asr #22
 150:	00000028 	andeq	r0, r0, r8, lsr #32
 154:	00000040 	andeq	r0, r0, r0, asr #32
 158:	00008470 	andeq	r8, r0, r0, ror r4
 15c:	000000cc 	andeq	r0, r0, ip, asr #1
 160:	420c0d42 	andmi	r0, ip, #4224	; 0x1080
 164:	06850784 	streq	r0, [r5], r4, lsl #15
 168:	048b0586 	streq	r0, [fp], #1414	; 0x586
 16c:	028e038d 	addeq	r0, lr, #872415234	; 0x34000002
 170:	040b0c42 	streq	r0, [fp], #-3138	; 0xfffff3be
 174:	0d0c5802 	stceq	8, cr5, [ip, #-8]
 178:	0000001c 	andeq	r0, r0, ip, lsl r0
 17c:	0000000c 	andeq	r0, r0, ip
 180:	ffffffff 			; <UNDEFINED> instruction: 0xffffffff
 184:	7c020001 	stcvc	0, cr0, [r2], {1}
 188:	000d0c0e 	andeq	r0, sp, lr, lsl #24
 18c:	0000001c 	andeq	r0, r0, ip, lsl r0
 190:	0000017c 	andeq	r0, r0, ip, ror r1
 194:	00008548 	andeq	r8, r0, r8, asr #10
 198:	000000c4 	andeq	r0, r0, r4, asr #1
 19c:	420c0d42 	andmi	r0, ip, #4224	; 0x1080
 1a0:	038d048b 	orreq	r0, sp, #-1962934272	; 0x8b000000
 1a4:	0c42028e 	sfmeq	f0, 2, [r2], {142}	; 0x8e
 1a8:	0000040b 	andeq	r0, r0, fp, lsl #8
 1ac:	00000020 	andeq	r0, r0, r0, lsr #32
 1b0:	0000017c 	andeq	r0, r0, ip, ror r1
 1b4:	0000861c 	andeq	r8, r0, ip, lsl r6
 1b8:	0000005c 	andeq	r0, r0, ip, asr r0
 1bc:	420c0d42 	andmi	r0, ip, #4224	; 0x1080
 1c0:	05850684 	streq	r0, [r5, #1668]	; 0x684
 1c4:	038d048b 	orreq	r0, sp, #-1962934272	; 0x8b000000
 1c8:	0c42028e 	sfmeq	f0, 2, [r2], {142}	; 0x8e
 1cc:	0000040b 	andeq	r0, r0, fp, lsl #8
 1d0:	00000020 	andeq	r0, r0, r0, lsr #32
 1d4:	0000017c 	andeq	r0, r0, ip, ror r1
 1d8:	00008688 	andeq	r8, r0, r8, lsl #13
 1dc:	000000b4 	strheq	r0, [r0], -r4
 1e0:	420c0d42 	andmi	r0, ip, #4224	; 0x1080
 1e4:	05850684 	streq	r0, [r5, #1668]	; 0x684
 1e8:	038d048b 	orreq	r0, sp, #-1962934272	; 0x8b000000
 1ec:	0c42028e 	sfmeq	f0, 2, [r2], {142}	; 0x8e
 1f0:	0000040b 	andeq	r0, r0, fp, lsl #8
 1f4:	0000000c 	andeq	r0, r0, ip
 1f8:	ffffffff 			; <UNDEFINED> instruction: 0xffffffff
 1fc:	7c020001 	stcvc	0, cr0, [r2], {1}
 200:	000d0c0e 	andeq	r0, sp, lr, lsl #24
 204:	0000001c 	andeq	r0, r0, ip, lsl r0
 208:	000001f4 	strdeq	r0, [r0], -r4
 20c:	00008748 	andeq	r8, r0, r8, asr #14
 210:	00000048 	andeq	r0, r0, r8, asr #32
 214:	420c0d42 	andmi	r0, ip, #4224	; 0x1080
 218:	038d048b 	orreq	r0, sp, #-1962934272	; 0x8b000000
 21c:	0c42028e 	sfmeq	f0, 2, [r2], {142}	; 0x8e
 220:	0000040b 	andeq	r0, r0, fp, lsl #8
 224:	00000020 	andeq	r0, r0, r0, lsr #32
 228:	000001f4 	strdeq	r0, [r0], -r4
 22c:	0000879c 	muleq	r0, ip, r7
 230:	00000030 	andeq	r0, r0, r0, lsr r0
 234:	420c0d42 	andmi	r0, ip, #4224	; 0x1080
 238:	05850684 	streq	r0, [r5, #1668]	; 0x684
 23c:	038d048b 	orreq	r0, sp, #-1962934272	; 0x8b000000
 240:	0c42028e 	sfmeq	f0, 2, [r2], {142}	; 0x8e
 244:	0000040b 	andeq	r0, r0, fp, lsl #8
 248:	0000002c 	andeq	r0, r0, ip, lsr #32
 24c:	000001f4 	strdeq	r0, [r0], -r4
 250:	000087d8 	ldrdeq	r8, [r0], -r8	; <UNPREDICTABLE>
 254:	00000170 	andeq	r0, r0, r0, ror r1
 258:	420c0d42 	andmi	r0, ip, #4224	; 0x1080
 25c:	08850984 	stmeq	r5, {r2, r7, r8, fp}
 260:	06870786 	streq	r0, [r7], r6, lsl #15
 264:	048b0588 	streq	r0, [fp], #1416	; 0x588
 268:	028e038d 	addeq	r0, lr, #872415234	; 0x34000002
 26c:	040b0c42 	streq	r0, [fp], #-3138	; 0xfffff3be
 270:	0d0c9e02 	stceq	14, cr9, [ip, #-8]
 274:	00000024 	andeq	r0, r0, r4, lsr #32
 278:	00000020 	andeq	r0, r0, r0, lsr #32
 27c:	000001f4 	strdeq	r0, [r0], -r4
 280:	00008958 	andeq	r8, r0, r8, asr r9
 284:	000000ac 	andeq	r0, r0, ip, lsr #1
 288:	420c0d42 	andmi	r0, ip, #4224	; 0x1080
 28c:	038d048b 	orreq	r0, sp, #-1962934272	; 0x8b000000
 290:	0c42028e 	sfmeq	f0, 2, [r2], {142}	; 0x8e
 294:	4402040b 	strmi	r0, [r2], #-1035	; 0xfffffbf5
 298:	00100d0c 	andseq	r0, r0, ip, lsl #26
 29c:	00000028 	andeq	r0, r0, r8, lsr #32
 2a0:	000001f4 	strdeq	r0, [r0], -r4
 2a4:	00008a14 	andeq	r8, r0, r4, lsl sl
 2a8:	000000fc 	strdeq	r0, [r0], -ip
 2ac:	420c0d42 	andmi	r0, ip, #4224	; 0x1080
 2b0:	09850a84 	stmibeq	r5, {r2, r7, r9, fp}
 2b4:	07870886 	streq	r0, [r7, r6, lsl #17]
 2b8:	05890688 	streq	r0, [r9, #1672]	; 0x688
 2bc:	038d048b 	orreq	r0, sp, #-1962934272	; 0x8b000000
 2c0:	0c42028e 	sfmeq	f0, 2, [r2], {142}	; 0x8e
 2c4:	0000040b 	andeq	r0, r0, fp, lsl #8
 2c8:	0000002c 	andeq	r0, r0, ip, lsr #32
 2cc:	000001f4 	strdeq	r0, [r0], -r4
 2d0:	00008b20 	andeq	r8, r0, r0, lsr #22
 2d4:	000000e4 	andeq	r0, r0, r4, ror #1
 2d8:	420c0d42 	andmi	r0, ip, #4224	; 0x1080
 2dc:	08850984 	stmeq	r5, {r2, r7, r8, fp}
 2e0:	06870786 	streq	r0, [r7], r6, lsl #15
 2e4:	048b0588 	streq	r0, [fp], #1416	; 0x588
 2e8:	028e038d 	addeq	r0, lr, #872415234	; 0x34000002
 2ec:	040b0c42 	streq	r0, [fp], #-3138	; 0xfffff3be
 2f0:	0d0c5c02 	stceq	12, cr5, [ip, #-8]
 2f4:	00000024 	andeq	r0, r0, r4, lsr #32
 2f8:	00000028 	andeq	r0, r0, r8, lsr #32
 2fc:	000001f4 	strdeq	r0, [r0], -r4
 300:	00008c10 	andeq	r8, r0, r0, lsl ip
 304:	000000ac 	andeq	r0, r0, ip, lsr #1
 308:	420c0d42 	andmi	r0, ip, #4224	; 0x1080
 30c:	05850684 	streq	r0, [r5, #1668]	; 0x684
 310:	038d048b 	orreq	r0, sp, #-1962934272	; 0x8b000000
 314:	0c42028e 	sfmeq	f0, 2, [r2], {142}	; 0x8e
 318:	0a66040b 	beq	198134c <__bss_end__+0x1975fbc>
 31c:	42180d0c 	andsmi	r0, r8, #12, 26	; 0x300
 320:	0000000b 	andeq	r0, r0, fp
 324:	0000001c 	andeq	r0, r0, ip, lsl r0
 328:	000001f4 	strdeq	r0, [r0], -r4
 32c:	00008cd0 	ldrdeq	r8, [r0], -r0
 330:	0000003c 	andeq	r0, r0, ip, lsr r0
 334:	420c0d42 	andmi	r0, ip, #4224	; 0x1080
 338:	038d048b 	orreq	r0, sp, #-1962934272	; 0x8b000000
 33c:	0c42028e 	sfmeq	f0, 2, [r2], {142}	; 0x8e
 340:	0000040b 	andeq	r0, r0, fp, lsl #8
 344:	00000024 	andeq	r0, r0, r4, lsr #32
 348:	000001f4 	strdeq	r0, [r0], -r4
 34c:	00008d20 	andeq	r8, r0, r0, lsr #26
 350:	000000d4 	ldrdeq	r0, [r0], -r4
 354:	420c0d42 	andmi	r0, ip, #4224	; 0x1080
 358:	07850884 	streq	r0, [r5, r4, lsl #17]
 35c:	05870686 	streq	r0, [r7, #1670]	; 0x686
 360:	038d048b 	orreq	r0, sp, #-1962934272	; 0x8b000000
 364:	0c42028e 	sfmeq	f0, 2, [r2], {142}	; 0x8e
 368:	0000040b 	andeq	r0, r0, fp, lsl #8
 36c:	0000001c 	andeq	r0, r0, ip, lsl r0
 370:	000001f4 	strdeq	r0, [r0], -r4
 374:	00008e08 	andeq	r8, r0, r8, lsl #28
 378:	00000014 	andeq	r0, r0, r4, lsl r0
 37c:	420c0d42 	andmi	r0, ip, #4224	; 0x1080
 380:	038d048b 	orreq	r0, sp, #-1962934272	; 0x8b000000
 384:	0c42028e 	sfmeq	f0, 2, [r2], {142}	; 0x8e
 388:	0000040b 	andeq	r0, r0, fp, lsl #8
 38c:	0000001c 	andeq	r0, r0, ip, lsl r0
 390:	000001f4 	strdeq	r0, [r0], -r4
 394:	00008e30 	andeq	r8, r0, r0, lsr lr
 398:	00000050 	andeq	r0, r0, r0, asr r0
 39c:	420c0d42 	andmi	r0, ip, #4224	; 0x1080
 3a0:	038d048b 	orreq	r0, sp, #-1962934272	; 0x8b000000
 3a4:	0c42028e 	sfmeq	f0, 2, [r2], {142}	; 0x8e
 3a8:	0000040b 	andeq	r0, r0, fp, lsl #8
 3ac:	00000020 	andeq	r0, r0, r0, lsr #32
 3b0:	000001f4 	strdeq	r0, [r0], -r4
 3b4:	00008e98 	muleq	r0, r8, lr
 3b8:	00000058 	andeq	r0, r0, r8, asr r0
 3bc:	420c0d42 	andmi	r0, ip, #4224	; 0x1080
 3c0:	05850684 	streq	r0, [r5, #1668]	; 0x684
 3c4:	038d048b 	orreq	r0, sp, #-1962934272	; 0x8b000000
 3c8:	0c42028e 	sfmeq	f0, 2, [r2], {142}	; 0x8e
 3cc:	0000040b 	andeq	r0, r0, fp, lsl #8
 3d0:	0000001c 	andeq	r0, r0, ip, lsl r0
 3d4:	000001f4 	strdeq	r0, [r0], -r4
 3d8:	00008efc 	strdeq	r8, [r0], -ip
 3dc:	00000018 	andeq	r0, r0, r8, lsl r0
 3e0:	420c0d42 	andmi	r0, ip, #4224	; 0x1080
 3e4:	038d048b 	orreq	r0, sp, #-1962934272	; 0x8b000000
 3e8:	0c42028e 	sfmeq	f0, 2, [r2], {142}	; 0x8e
 3ec:	0000040b 	andeq	r0, r0, fp, lsl #8
 3f0:	0000001c 	andeq	r0, r0, ip, lsl r0
 3f4:	000001f4 	strdeq	r0, [r0], -r4
 3f8:	00008f28 	andeq	r8, r0, r8, lsr #30
 3fc:	00000030 	andeq	r0, r0, r0, lsr r0
 400:	420c0d42 	andmi	r0, ip, #4224	; 0x1080
 404:	038d048b 	orreq	r0, sp, #-1962934272	; 0x8b000000
 408:	0c42028e 	sfmeq	f0, 2, [r2], {142}	; 0x8e
 40c:	0000040b 	andeq	r0, r0, fp, lsl #8
 410:	0000000c 	andeq	r0, r0, ip
 414:	ffffffff 			; <UNDEFINED> instruction: 0xffffffff
 418:	7c020001 	stcvc	0, cr0, [r2], {1}
 41c:	000d0c0e 	andeq	r0, sp, lr, lsl #24
 420:	0000001c 	andeq	r0, r0, ip, lsl r0
 424:	00000410 	andeq	r0, r0, r0, lsl r4
 428:	00008f60 	andeq	r8, r0, r0, ror #30
 42c:	00000080 	andeq	r0, r0, r0, lsl #1
 430:	84180e42 	ldrhi	r0, [r8], #-3650	; 0xfffff1be
 434:	86058506 	strhi	r8, [r5], -r6, lsl #10
 438:	88038704 	stmdahi	r3, {r2, r8, r9, sl, pc}
 43c:	00018e02 	andeq	r8, r1, r2, lsl #28
 440:	0000000c 	andeq	r0, r0, ip
 444:	00000410 	andeq	r0, r0, r0, lsl r4
 448:	00008fe0 	andeq	r8, r0, r0, ror #31
 44c:	00000020 	andeq	r0, r0, r0, lsr #32
 450:	0000000c 	andeq	r0, r0, ip
 454:	ffffffff 			; <UNDEFINED> instruction: 0xffffffff
 458:	7c020001 	stcvc	0, cr0, [r2], {1}
 45c:	000d0c0e 	andeq	r0, sp, lr, lsl #24
 460:	00000014 	andeq	r0, r0, r4, lsl r0
 464:	00000450 	andeq	r0, r0, r0, asr r4
 468:	00009000 	andeq	r9, r0, r0
 46c:	00000078 	andeq	r0, r0, r8, ror r0
 470:	84080e42 	strhi	r0, [r8], #-3650	; 0xfffff1be
 474:	00018e02 	andeq	r8, r1, r2, lsl #28
 478:	0000000c 	andeq	r0, r0, ip
 47c:	ffffffff 			; <UNDEFINED> instruction: 0xffffffff
 480:	7c020001 	stcvc	0, cr0, [r2], {1}
 484:	000d0c0e 	andeq	r0, sp, lr, lsl #24
 488:	00000034 	andeq	r0, r0, r4, lsr r0
 48c:	00000478 	andeq	r0, r0, r8, ror r4
 490:	00009078 	andeq	r9, r0, r8, ror r0
 494:	00000058 	andeq	r0, r0, r8, asr r0
 498:	80100e42 	andshi	r0, r0, r2, asr #28
 49c:	82038104 	andhi	r8, r3, #1
 4a0:	42018302 	andmi	r8, r1, #134217728	; 0x8000000
 4a4:	07841c0e 	streq	r1, [r4, lr, lsl #24]
 4a8:	058e0685 	streq	r0, [lr, #1669]	; 0x685
 4ac:	5a280e44 	bpl	a03dc4 <__bss_end__+0x9f8a34>
 4b0:	ce421c0e 	cdpgt	12, 4, cr1, cr2, cr14, {0}
 4b4:	100ec4c5 	andne	ip, lr, r5, asr #9
 4b8:	c1c2c342 	bicgt	ip, r2, r2, asr #6
 4bc:	00000ec0 	andeq	r0, r0, r0, asr #29
 4c0:	0000000c 	andeq	r0, r0, ip
 4c4:	ffffffff 			; <UNDEFINED> instruction: 0xffffffff
 4c8:	7c020001 	stcvc	0, cr0, [r2], {1}
 4cc:	000d0c0e 	andeq	r0, sp, lr, lsl #24
 4d0:	00000018 	andeq	r0, r0, r8, lsl r0
 4d4:	000004c0 	andeq	r0, r0, r0, asr #9
 4d8:	000090d0 	ldrdeq	r9, [r0], -r0
 4dc:	00000038 	andeq	r0, r0, r8, lsr r0
 4e0:	84100e42 	ldrhi	r0, [r0], #-3650	; 0xfffff1be
 4e4:	86038504 	strhi	r8, [r3], -r4, lsl #10
 4e8:	00018e02 	andeq	r8, r1, r2, lsl #28
 4ec:	0000000c 	andeq	r0, r0, ip
 4f0:	ffffffff 			; <UNDEFINED> instruction: 0xffffffff
 4f4:	7c020001 	stcvc	0, cr0, [r2], {1}
 4f8:	000d0c0e 	andeq	r0, sp, lr, lsl #24
 4fc:	0000000c 	andeq	r0, r0, ip
 500:	000004ec 	andeq	r0, r0, ip, ror #9
 504:	00009108 	andeq	r9, r0, r8, lsl #2
 508:	00000030 	andeq	r0, r0, r0, lsr r0
 50c:	0000000c 	andeq	r0, r0, ip
 510:	000004ec 	andeq	r0, r0, ip, ror #9
 514:	00009138 	andeq	r9, r0, r8, lsr r1
 518:	00000050 	andeq	r0, r0, r0, asr r0
 51c:	0000000c 	andeq	r0, r0, ip
 520:	000004ec 	andeq	r0, r0, ip, ror #9
 524:	00009188 	andeq	r9, r0, r8, lsl #3
 528:	00000018 	andeq	r0, r0, r8, lsl r0
 52c:	0000000c 	andeq	r0, r0, ip
 530:	ffffffff 			; <UNDEFINED> instruction: 0xffffffff
 534:	7c020001 	stcvc	0, cr0, [r2], {1}
 538:	000d0c0e 	andeq	r0, sp, lr, lsl #24
 53c:	0000002c 	andeq	r0, r0, ip, lsr #32
 540:	0000052c 	andeq	r0, r0, ip, lsr #10
 544:	000091a0 	andeq	r9, r0, r0, lsr #3
 548:	00000328 	andeq	r0, r0, r8, lsr #6
 54c:	84180e42 	ldrhi	r0, [r8], #-3650	; 0xfffff1be
 550:	86058506 	strhi	r8, [r5], -r6, lsl #10
 554:	88038704 	stmdahi	r3, {r2, r8, r9, sl, pc}
 558:	46018e02 	strmi	r8, [r1], -r2, lsl #28
 55c:	c002600e 	andgt	r6, r2, lr
 560:	42180e0a 	andsmi	r0, r8, #160	; 0xa0
 564:	0a8e020b 	beq	fe380d98 <__bss_end__+0xfe375a08>
 568:	0b42180e 	bleq	10865a8 <__bss_end__+0x107b218>
 56c:	00000014 	andeq	r0, r0, r4, lsl r0
 570:	0000052c 	andeq	r0, r0, ip, lsr #10
 574:	000094c8 	andeq	r9, r0, r8, asr #9
 578:	00000060 	andeq	r0, r0, r0, rrx
 57c:	8e040e52 	mcrhi	14, 0, r0, cr4, cr2, {2}
 580:	100e4401 	andne	r4, lr, r1, lsl #8
 584:	0000002c 	andeq	r0, r0, ip, lsr #32
 588:	0000052c 	andeq	r0, r0, ip, lsr #10
 58c:	00009528 	andeq	r9, r0, r8, lsr #10
 590:	0000062c 	andeq	r0, r0, ip, lsr #12
 594:	84240e42 	strthi	r0, [r4], #-3650	; 0xfffff1be
 598:	86088509 	strhi	r8, [r8], -r9, lsl #10
 59c:	88068707 	stmdahi	r6, {r0, r1, r2, r8, r9, sl, pc}
 5a0:	8a048905 	bhi	1229bc <__bss_end__+0x11762c>
 5a4:	8e028b03 	vmlahi.f64	d8, d2, d3
 5a8:	c00e5201 	andgt	r5, lr, r1, lsl #4
 5ac:	0a860202 	beq	fe180dbc <__bss_end__+0xfe175a2c>
 5b0:	0b42240e 	bleq	10895f0 <__bss_end__+0x107e260>
 5b4:	0000000c 	andeq	r0, r0, ip
 5b8:	ffffffff 			; <UNDEFINED> instruction: 0xffffffff
 5bc:	7c020001 	stcvc	0, cr0, [r2], {1}
 5c0:	000d0c0e 	andeq	r0, sp, lr, lsl #24
 5c4:	00000014 	andeq	r0, r0, r4, lsl r0
 5c8:	000005b4 			; <UNDEFINED> instruction: 0x000005b4
 5cc:	00009b54 	andeq	r9, r0, r4, asr fp
 5d0:	0000002c 	andeq	r0, r0, ip, lsr #32
 5d4:	84080e44 	strhi	r0, [r8], #-3652	; 0xfffff1bc
 5d8:	00018e02 	andeq	r8, r1, r2, lsl #28
 5dc:	0000000c 	andeq	r0, r0, ip
 5e0:	ffffffff 			; <UNDEFINED> instruction: 0xffffffff
 5e4:	7c020001 	stcvc	0, cr0, [r2], {1}
 5e8:	000d0c0e 	andeq	r0, sp, lr, lsl #24
 5ec:	00000018 	andeq	r0, r0, r8, lsl r0
 5f0:	000005dc 	ldrdeq	r0, [r0], -ip
 5f4:	00009b80 	andeq	r9, r0, r0, lsl #23
 5f8:	000000f8 	strdeq	r0, [r0], -r8
 5fc:	84100e42 	ldrhi	r0, [r0], #-3650	; 0xfffff1be
 600:	86038504 	strhi	r8, [r3], -r4, lsl #10
 604:	00018e02 	andeq	r8, r1, r2, lsl #28
 608:	0000000c 	andeq	r0, r0, ip
 60c:	ffffffff 			; <UNDEFINED> instruction: 0xffffffff
 610:	7c020001 	stcvc	0, cr0, [r2], {1}
 614:	000d0c0e 	andeq	r0, sp, lr, lsl #24
 618:	0000000c 	andeq	r0, r0, ip
 61c:	00000608 	andeq	r0, r0, r8, lsl #12
 620:	00009c78 	andeq	r9, r0, r8, ror ip
 624:	00000004 	andeq	r0, r0, r4
 628:	0000000c 	andeq	r0, r0, ip
 62c:	ffffffff 			; <UNDEFINED> instruction: 0xffffffff
 630:	7c020001 	stcvc	0, cr0, [r2], {1}
 634:	000d0c0e 	andeq	r0, sp, lr, lsl #24
 638:	0000000c 	andeq	r0, r0, ip
 63c:	00000628 	andeq	r0, r0, r8, lsr #12
 640:	00009c7c 	andeq	r9, r0, ip, ror ip
 644:	00000018 	andeq	r0, r0, r8, lsl r0
 648:	0000000c 	andeq	r0, r0, ip
 64c:	00000628 	andeq	r0, r0, r8, lsr #12
 650:	00009c94 	muleq	r0, r4, ip
 654:	00000014 	andeq	r0, r0, r4, lsl r0
 658:	00000014 	andeq	r0, r0, r4, lsl r0
 65c:	00000628 	andeq	r0, r0, r8, lsr #12
 660:	00009ca8 	andeq	r9, r0, r8, lsr #25
 664:	00000060 	andeq	r0, r0, r0, rrx
 668:	84080e42 	strhi	r0, [r8], #-3650	; 0xfffff1be
 66c:	00018e02 	andeq	r8, r1, r2, lsl #28
 670:	0000000c 	andeq	r0, r0, ip
 674:	ffffffff 			; <UNDEFINED> instruction: 0xffffffff
 678:	7c020001 	stcvc	0, cr0, [r2], {1}
 67c:	000d0c0e 	andeq	r0, sp, lr, lsl #24
 680:	0000000c 	andeq	r0, r0, ip
 684:	00000670 	andeq	r0, r0, r0, ror r6
 688:	00009d08 	andeq	r9, r0, r8, lsl #26
 68c:	0000000c 	andeq	r0, r0, ip
 690:	00000014 	andeq	r0, r0, r4, lsl r0
 694:	00000670 	andeq	r0, r0, r0, ror r6
 698:	00009d14 	andeq	r9, r0, r4, lsl sp
 69c:	00000024 	andeq	r0, r0, r4, lsr #32
 6a0:	84080e42 	strhi	r0, [r8], #-3650	; 0xfffff1be
 6a4:	00018e02 	andeq	r8, r1, r2, lsl #28
 6a8:	0000001c 	andeq	r0, r0, ip, lsl r0
 6ac:	00000670 	andeq	r0, r0, r0, ror r6
 6b0:	00009d38 	andeq	r9, r0, r8, lsr sp
 6b4:	00000048 	andeq	r0, r0, r8, asr #32
 6b8:	84180e42 	ldrhi	r0, [r8], #-3650	; 0xfffff1be
 6bc:	86058506 	strhi	r8, [r5], -r6, lsl #10
 6c0:	88038704 	stmdahi	r3, {r2, r8, r9, sl, pc}
 6c4:	00018e02 	andeq	r8, r1, r2, lsl #28
 6c8:	0000001c 	andeq	r0, r0, ip, lsl r0
 6cc:	00000670 	andeq	r0, r0, r0, ror r6
 6d0:	00009d80 	andeq	r9, r0, r0, lsl #27
 6d4:	00000050 	andeq	r0, r0, r0, asr r0
 6d8:	84180e42 	ldrhi	r0, [r8], #-3650	; 0xfffff1be
 6dc:	86058506 	strhi	r8, [r5], -r6, lsl #10
 6e0:	88038704 	stmdahi	r3, {r2, r8, r9, sl, pc}
 6e4:	00018e02 	andeq	r8, r1, r2, lsl #28
 6e8:	0000001c 	andeq	r0, r0, ip, lsl r0
 6ec:	00000670 	andeq	r0, r0, r0, ror r6
 6f0:	00009dd0 	ldrdeq	r9, [r0], -r0
 6f4:	00000054 	andeq	r0, r0, r4, asr r0
 6f8:	84180e42 	ldrhi	r0, [r8], #-3650	; 0xfffff1be
 6fc:	86058506 	strhi	r8, [r5], -r6, lsl #10
 700:	88038704 	stmdahi	r3, {r2, r8, r9, sl, pc}
 704:	00018e02 	andeq	r8, r1, r2, lsl #28
 708:	0000000c 	andeq	r0, r0, ip
 70c:	ffffffff 			; <UNDEFINED> instruction: 0xffffffff
 710:	7c020001 	stcvc	0, cr0, [r2], {1}
 714:	000d0c0e 	andeq	r0, sp, lr, lsl #24
 718:	00000018 	andeq	r0, r0, r8, lsl r0
 71c:	00000708 	andeq	r0, r0, r8, lsl #14
 720:	00009e24 	andeq	r9, r0, r4, lsr #28
 724:	00000020 	andeq	r0, r0, r0, lsr #32
 728:	84100e42 	ldrhi	r0, [r0], #-3650	; 0xfffff1be
 72c:	86038504 	strhi	r8, [r3], -r4, lsl #10
 730:	00018e02 	andeq	r8, r1, r2, lsl #28
 734:	00000018 	andeq	r0, r0, r8, lsl r0
 738:	00000708 	andeq	r0, r0, r8, lsl #14
 73c:	00009e44 	andeq	r9, r0, r4, asr #28
 740:	00000020 	andeq	r0, r0, r0, lsr #32
 744:	84100e42 	ldrhi	r0, [r0], #-3650	; 0xfffff1be
 748:	86038504 	strhi	r8, [r3], -r4, lsl #10
 74c:	00018e02 	andeq	r8, r1, r2, lsl #28
 750:	00000014 	andeq	r0, r0, r4, lsl r0
 754:	00000708 	andeq	r0, r0, r8, lsl #14
 758:	00009e64 	andeq	r9, r0, r4, ror #28
 75c:	000000b0 	strheq	r0, [r0], -r0	; <UNPREDICTABLE>
 760:	84080e42 	strhi	r0, [r8], #-3650	; 0xfffff1be
 764:	00018e02 	andeq	r8, r1, r2, lsl #28
 768:	00000014 	andeq	r0, r0, r4, lsl r0
 76c:	00000708 	andeq	r0, r0, r8, lsl #14
 770:	00009f14 	andeq	r9, r0, r4, lsl pc
 774:	00000018 	andeq	r0, r0, r8, lsl r0
 778:	84080e42 	strhi	r0, [r8], #-3650	; 0xfffff1be
 77c:	00018e02 	andeq	r8, r1, r2, lsl #28
 780:	00000014 	andeq	r0, r0, r4, lsl r0
 784:	00000708 	andeq	r0, r0, r8, lsl #14
 788:	00009f2c 	andeq	r9, r0, ip, lsr #30
 78c:	00000020 	andeq	r0, r0, r0, lsr #32
 790:	84080e42 	strhi	r0, [r8], #-3650	; 0xfffff1be
 794:	00018e02 	andeq	r8, r1, r2, lsl #28
 798:	00000014 	andeq	r0, r0, r4, lsl r0
 79c:	00000708 	andeq	r0, r0, r8, lsl #14
 7a0:	00009f4c 	andeq	r9, r0, ip, asr #30
 7a4:	00000030 	andeq	r0, r0, r0, lsr r0
 7a8:	84080e42 	strhi	r0, [r8], #-3650	; 0xfffff1be
 7ac:	00018e02 	andeq	r8, r1, r2, lsl #28
 7b0:	00000014 	andeq	r0, r0, r4, lsl r0
 7b4:	00000708 	andeq	r0, r0, r8, lsl #14
 7b8:	00009f7c 	andeq	r9, r0, ip, ror pc
 7bc:	00000030 	andeq	r0, r0, r0, lsr r0
 7c0:	84080e42 	strhi	r0, [r8], #-3650	; 0xfffff1be
 7c4:	00018e02 	andeq	r8, r1, r2, lsl #28
 7c8:	00000014 	andeq	r0, r0, r4, lsl r0
 7cc:	00000708 	andeq	r0, r0, r8, lsl #14
 7d0:	00009fac 	andeq	r9, r0, ip, lsr #31
 7d4:	00000010 	andeq	r0, r0, r0, lsl r0
 7d8:	84080e42 	strhi	r0, [r8], #-3650	; 0xfffff1be
 7dc:	00018e02 	andeq	r8, r1, r2, lsl #28
 7e0:	00000014 	andeq	r0, r0, r4, lsl r0
 7e4:	00000708 	andeq	r0, r0, r8, lsl #14
 7e8:	00009fbc 			; <UNDEFINED> instruction: 0x00009fbc
 7ec:	00000020 	andeq	r0, r0, r0, lsr #32
 7f0:	84080e42 	strhi	r0, [r8], #-3650	; 0xfffff1be
 7f4:	00018e02 	andeq	r8, r1, r2, lsl #28
 7f8:	00000014 	andeq	r0, r0, r4, lsl r0
 7fc:	00000708 	andeq	r0, r0, r8, lsl #14
 800:	00009fdc 	ldrdeq	r9, [r0], -ip
 804:	00000014 	andeq	r0, r0, r4, lsl r0
 808:	84080e42 	strhi	r0, [r8], #-3650	; 0xfffff1be
 80c:	00018e02 	andeq	r8, r1, r2, lsl #28
 810:	00000014 	andeq	r0, r0, r4, lsl r0
 814:	00000708 	andeq	r0, r0, r8, lsl #14
 818:	00009ff0 	strdeq	r9, [r0], -r0
 81c:	00000024 	andeq	r0, r0, r4, lsr #32
 820:	84080e42 	strhi	r0, [r8], #-3650	; 0xfffff1be
 824:	00018e02 	andeq	r8, r1, r2, lsl #28
 828:	0000000c 	andeq	r0, r0, ip
 82c:	ffffffff 			; <UNDEFINED> instruction: 0xffffffff
 830:	7c020001 	stcvc	0, cr0, [r2], {1}
 834:	000d0c0e 	andeq	r0, sp, lr, lsl #24
 838:	0000000c 	andeq	r0, r0, ip
 83c:	00000828 	andeq	r0, r0, r8, lsr #16
 840:	0000a014 	andeq	sl, r0, r4, lsl r0
 844:	00000010 	andeq	r0, r0, r0, lsl r0
 848:	0000000c 	andeq	r0, r0, ip
 84c:	00000828 	andeq	r0, r0, r8, lsr #16
 850:	0000a024 	andeq	sl, r0, r4, lsr #32
 854:	00000010 	andeq	r0, r0, r0, lsl r0
 858:	0000000c 	andeq	r0, r0, ip
 85c:	00000828 	andeq	r0, r0, r8, lsr #16
 860:	0000a034 	andeq	sl, r0, r4, lsr r0
 864:	00000010 	andeq	r0, r0, r0, lsl r0
 868:	0000001c 	andeq	r0, r0, ip, lsl r0
 86c:	00000828 	andeq	r0, r0, r8, lsr #16
 870:	0000a044 	andeq	sl, r0, r4, asr #32
 874:	0000009c 	muleq	r0, ip, r0
 878:	8e040e42 	cdphi	14, 0, cr0, cr4, cr2, {2}
 87c:	100e4201 	andne	r4, lr, r1, lsl #4
 880:	040e0a58 	streq	r0, [lr], #-2648	; 0xfffff5a8
 884:	00000b42 	andeq	r0, r0, r2, asr #22
 888:	00000014 	andeq	r0, r0, r4, lsl r0
 88c:	00000828 	andeq	r0, r0, r8, lsr #16
 890:	0000a0e0 	andeq	sl, r0, r0, ror #1
 894:	00000058 	andeq	r0, r0, r8, asr r0
 898:	84080e42 	strhi	r0, [r8], #-3650	; 0xfffff1be
 89c:	00018e02 	andeq	r8, r1, r2, lsl #28
 8a0:	0000001c 	andeq	r0, r0, ip, lsl r0
 8a4:	00000828 	andeq	r0, r0, r8, lsr #16
 8a8:	0000a138 	andeq	sl, r0, r8, lsr r1
 8ac:	00000098 	muleq	r0, r8, r0
 8b0:	8e040e42 	cdphi	14, 0, cr0, cr4, cr2, {2}
 8b4:	100e4201 	andne	r4, lr, r1, lsl #4
 8b8:	040e0a58 	streq	r0, [lr], #-2648	; 0xfffff5a8
 8bc:	00000b42 	andeq	r0, r0, r2, asr #22
 8c0:	00000020 	andeq	r0, r0, r0, lsr #32
 8c4:	00000828 	andeq	r0, r0, r8, lsr #16
 8c8:	0000a1d0 	ldrdeq	sl, [r0], -r0
 8cc:	00000064 	andeq	r0, r0, r4, rrx
 8d0:	840c0e42 	strhi	r0, [ip], #-3650	; 0xfffff1be
 8d4:	8e028503 	cfsh32hi	mvfx8, mvfx2, #3
 8d8:	180e4201 	stmdane	lr, {r0, r9, lr}
 8dc:	0c0e0a54 			; <UNDEFINED> instruction: 0x0c0e0a54
 8e0:	00000b42 	andeq	r0, r0, r2, asr #22
 8e4:	0000001c 	andeq	r0, r0, ip, lsl r0
 8e8:	00000828 	andeq	r0, r0, r8, lsr #16
 8ec:	0000a234 	andeq	sl, r0, r4, lsr r2
 8f0:	00000118 	andeq	r0, r0, r8, lsl r1
 8f4:	8e040e42 	cdphi	14, 0, cr0, cr4, cr2, {2}
 8f8:	100e4201 	andne	r4, lr, r1, lsl #4
 8fc:	040e0a6c 	streq	r0, [lr], #-2668	; 0xfffff594
 900:	00000b42 	andeq	r0, r0, r2, asr #22
 904:	0000000c 	andeq	r0, r0, ip
 908:	00000828 	andeq	r0, r0, r8, lsr #16
 90c:	0000a34c 	andeq	sl, r0, ip, asr #6
 910:	00000004 	andeq	r0, r0, r4
 914:	0000000c 	andeq	r0, r0, ip
 918:	00000828 	andeq	r0, r0, r8, lsr #16
 91c:	0000a350 	andeq	sl, r0, r0, asr r3
 920:	00000014 	andeq	r0, r0, r4, lsl r0
 924:	00000014 	andeq	r0, r0, r4, lsl r0
 928:	00000828 	andeq	r0, r0, r8, lsr #16
 92c:	0000a364 	andeq	sl, r0, r4, ror #6
 930:	00000060 	andeq	r0, r0, r0, rrx
 934:	8e040e58 	mcrhi	14, 0, r0, cr4, cr8, {2}
 938:	100e4201 	andne	r4, lr, r1, lsl #4
 93c:	0000000c 	andeq	r0, r0, ip
 940:	ffffffff 			; <UNDEFINED> instruction: 0xffffffff
 944:	7c020001 	stcvc	0, cr0, [r2], {1}
 948:	000d0c0e 	andeq	r0, sp, lr, lsl #24
 94c:	00000020 	andeq	r0, r0, r0, lsr #32
 950:	0000093c 	andeq	r0, r0, ip, lsr r9
 954:	0000a3c4 	andeq	sl, r0, r4, asr #7
 958:	00000060 	andeq	r0, r0, r0, rrx
 95c:	84100e48 	ldrhi	r0, [r0], #-3656	; 0xfffff1b8
 960:	86038504 	strhi	r8, [r3], -r4, lsl #10
 964:	64018e02 	strvs	r8, [r1], #-3586	; 0xfffff1fe
 968:	c4c5c6ce 	strbgt	ip, [r5], #1742	; 0x6ce
 96c:	0000000e 	andeq	r0, r0, lr
 970:	00000020 	andeq	r0, r0, r0, lsr #32
 974:	0000093c 	andeq	r0, r0, ip, lsr r9
 978:	0000a424 	andeq	sl, r0, r4, lsr #8
 97c:	00000058 	andeq	r0, r0, r8, asr r0
 980:	84100e46 	ldrhi	r0, [r0], #-3654	; 0xfffff1ba
 984:	86038504 	strhi	r8, [r3], -r4, lsl #10
 988:	62018e02 	andvs	r8, r1, #2, 28
 98c:	c4c5c6ce 	strbgt	ip, [r5], #1742	; 0x6ce
 990:	0000000e 	andeq	r0, r0, lr
 994:	0000000c 	andeq	r0, r0, ip
 998:	0000093c 	andeq	r0, r0, ip, lsr r9
 99c:	0000a47c 	andeq	sl, r0, ip, ror r4
 9a0:	00000018 	andeq	r0, r0, r8, lsl r0
 9a4:	0000000c 	andeq	r0, r0, ip
 9a8:	0000093c 	andeq	r0, r0, ip, lsr r9
 9ac:	0000a494 	muleq	r0, r4, r4
 9b0:	00000018 	andeq	r0, r0, r8, lsl r0
 9b4:	00000020 	andeq	r0, r0, r0, lsr #32
 9b8:	0000093c 	andeq	r0, r0, ip, lsr r9
 9bc:	0000a4ac 	andeq	sl, r0, ip, lsr #9
 9c0:	00000058 	andeq	r0, r0, r8, asr r0
 9c4:	84100e46 	ldrhi	r0, [r0], #-3654	; 0xfffff1ba
 9c8:	86038504 	strhi	r8, [r3], -r4, lsl #10
 9cc:	62018e02 	andvs	r8, r1, #2, 28
 9d0:	c4c5c6ce 	strbgt	ip, [r5], #1742	; 0x6ce
 9d4:	0000000e 	andeq	r0, r0, lr
 9d8:	0000000c 	andeq	r0, r0, ip
 9dc:	0000093c 	andeq	r0, r0, ip, lsr r9
 9e0:	0000a504 	andeq	sl, r0, r4, lsl #10
 9e4:	00000030 	andeq	r0, r0, r0, lsr r0
 9e8:	00000014 	andeq	r0, r0, r4, lsl r0
 9ec:	0000093c 	andeq	r0, r0, ip, lsr r9
 9f0:	0000a534 	andeq	sl, r0, r4, lsr r5
 9f4:	00000028 	andeq	r0, r0, r8, lsr #32
 9f8:	84080e42 	strhi	r0, [r8], #-3650	; 0xfffff1be
 9fc:	00018e02 	andeq	r8, r1, r2, lsl #28
 a00:	0000000c 	andeq	r0, r0, ip
 a04:	ffffffff 			; <UNDEFINED> instruction: 0xffffffff
 a08:	7c020001 	stcvc	0, cr0, [r2], {1}
 a0c:	000d0c0e 	andeq	r0, sp, lr, lsl #24
 a10:	00000014 	andeq	r0, r0, r4, lsl r0
 a14:	00000a00 	andeq	r0, r0, r0, lsl #20
 a18:	0000a55c 	andeq	sl, r0, ip, asr r5
 a1c:	00000014 	andeq	r0, r0, r4, lsl r0
 a20:	84080e42 	strhi	r0, [r8], #-3650	; 0xfffff1be
 a24:	00018e02 	andeq	r8, r1, r2, lsl #28
 a28:	0000000c 	andeq	r0, r0, ip
 a2c:	00000a00 	andeq	r0, r0, r0, lsl #20
 a30:	0000a570 	andeq	sl, r0, r0, ror r5
 a34:	00000018 	andeq	r0, r0, r8, lsl r0
 a38:	0000000c 	andeq	r0, r0, ip
 a3c:	00000a00 	andeq	r0, r0, r0, lsl #20
 a40:	0000a588 	andeq	sl, r0, r8, lsl #11
 a44:	00000010 	andeq	r0, r0, r0, lsl r0
 a48:	0000000c 	andeq	r0, r0, ip
 a4c:	ffffffff 			; <UNDEFINED> instruction: 0xffffffff
 a50:	7c020001 	stcvc	0, cr0, [r2], {1}
 a54:	000d0c0e 	andeq	r0, sp, lr, lsl #24
 a58:	0000000c 	andeq	r0, r0, ip
 a5c:	00000a48 	andeq	r0, r0, r8, asr #20
 a60:	0000a598 	muleq	r0, r8, r5
 a64:	0000002c 	andeq	r0, r0, ip, lsr #32
 a68:	0000000c 	andeq	r0, r0, ip
 a6c:	ffffffff 			; <UNDEFINED> instruction: 0xffffffff
 a70:	7c020001 	stcvc	0, cr0, [r2], {1}
 a74:	000d0c0e 	andeq	r0, sp, lr, lsl #24
 a78:	0000000c 	andeq	r0, r0, ip
 a7c:	00000a68 	andeq	r0, r0, r8, ror #20
 a80:	0000a5c4 	andeq	sl, r0, r4, asr #11
 a84:	00000044 	andeq	r0, r0, r4, asr #32
 a88:	0000000c 	andeq	r0, r0, ip
 a8c:	ffffffff 			; <UNDEFINED> instruction: 0xffffffff
 a90:	7c020001 	stcvc	0, cr0, [r2], {1}
 a94:	000d0c0e 	andeq	r0, sp, lr, lsl #24
 a98:	0000000c 	andeq	r0, r0, ip
 a9c:	00000a88 	andeq	r0, r0, r8, lsl #21
 aa0:	0000a608 	andeq	sl, r0, r8, lsl #12
 aa4:	00000018 	andeq	r0, r0, r8, lsl r0
 aa8:	0000000c 	andeq	r0, r0, ip
 aac:	ffffffff 			; <UNDEFINED> instruction: 0xffffffff
 ab0:	7c020001 	stcvc	0, cr0, [r2], {1}
 ab4:	000d0c0e 	andeq	r0, sp, lr, lsl #24
 ab8:	0000000c 	andeq	r0, r0, ip
 abc:	00000aa8 	andeq	r0, r0, r8, lsr #21
 ac0:	0000a620 	andeq	sl, r0, r0, lsr #12
 ac4:	00000030 	andeq	r0, r0, r0, lsr r0
 ac8:	0000000c 	andeq	r0, r0, ip
 acc:	ffffffff 			; <UNDEFINED> instruction: 0xffffffff
 ad0:	7c020001 	stcvc	0, cr0, [r2], {1}
 ad4:	000d0c0e 	andeq	r0, sp, lr, lsl #24
 ad8:	0000000c 	andeq	r0, r0, ip
 adc:	00000ac8 	andeq	r0, r0, r8, asr #21
 ae0:	0000a650 	andeq	sl, r0, r0, asr r6
 ae4:	00000004 	andeq	r0, r0, r4

Disassembly of section .debug_ranges:

00000000 <.debug_ranges>:
   0:	000001e4 	andeq	r0, r0, r4, ror #3
   4:	0000021c 	andeq	r0, r0, ip, lsl r2
   8:	00000244 	andeq	r0, r0, r4, asr #4
   c:	0000028c 	andeq	r0, r0, ip, lsl #5
	...
  18:	0000012c 	andeq	r0, r0, ip, lsr #2
  1c:	00000148 	andeq	r0, r0, r8, asr #2
  20:	00000154 	andeq	r0, r0, r4, asr r1
  24:	000001e0 	andeq	r0, r0, r0, ror #3
	...
  30:	0000012c 	andeq	r0, r0, ip, lsr #2
  34:	00000148 	andeq	r0, r0, r8, asr #2
  38:	00000164 	andeq	r0, r0, r4, ror #2
  3c:	000001e0 	andeq	r0, r0, r0, ror #3
	...
  48:	000002fc 	strdeq	r0, [r0], -ip
  4c:	00000304 	andeq	r0, r0, r4, lsl #6
  50:	00000310 	andeq	r0, r0, r0, lsl r3
  54:	0000036c 	andeq	r0, r0, ip, ror #6
	...
  60:	00000408 	andeq	r0, r0, r8, lsl #8
  64:	00000410 	andeq	r0, r0, r0, lsl r4
  68:	0000041c 	andeq	r0, r0, ip, lsl r4
  6c:	0000048c 	andeq	r0, r0, ip, lsl #9
	...
  78:	000005a4 	andeq	r0, r0, r4, lsr #11
  7c:	000005a8 	andeq	r0, r0, r8, lsr #11
  80:	000005ac 	andeq	r0, r0, ip, lsr #11
  84:	000005d0 	ldrdeq	r0, [r0], -r0	; <UNPREDICTABLE>
	...
  90:	000005f0 	strdeq	r0, [r0], -r0	; <UNPREDICTABLE>
  94:	000005f8 	strdeq	r0, [r0], -r8
  98:	000005fc 	strdeq	r0, [r0], -ip
  9c:	000006a4 	andeq	r0, r0, r4, lsr #13
	...
  a8:	00000600 	andeq	r0, r0, r0, lsl #12
  ac:	00000620 	andeq	r0, r0, r0, lsr #12
  b0:	00000634 	andeq	r0, r0, r4, lsr r6
  b4:	000006a4 	andeq	r0, r0, r4, lsr #13
	...
  c0:	00000600 	andeq	r0, r0, r0, lsl #12
  c4:	0000061c 	andeq	r0, r0, ip, lsl r6
  c8:	00000688 	andeq	r0, r0, r8, lsl #13
  cc:	000006a4 	andeq	r0, r0, r4, lsr #13
	...
  d8:	00000014 	andeq	r0, r0, r4, lsl r0
  dc:	00000020 	andeq	r0, r0, r0, lsr #32
  e0:	0000002c 	andeq	r0, r0, ip, lsr #32
  e4:	00000058 	andeq	r0, r0, r8, asr r0
  e8:	00000058 	andeq	r0, r0, r8, asr r0
  ec:	00000064 	andeq	r0, r0, r4, rrx
	...
  f8:	00000014 	andeq	r0, r0, r4, lsl r0
  fc:	00000018 	andeq	r0, r0, r8, lsl r0
 100:	0000002c 	andeq	r0, r0, ip, lsr #32
 104:	0000002c 	andeq	r0, r0, ip, lsr #32
 108:	00000034 	andeq	r0, r0, r4, lsr r0
 10c:	00000038 	andeq	r0, r0, r8, lsr r0
 110:	0000003c 	andeq	r0, r0, ip, lsr r0
 114:	00000050 	andeq	r0, r0, r0, asr r0
	...
 120:	0000002c 	andeq	r0, r0, ip, lsr #32
 124:	0000002c 	andeq	r0, r0, ip, lsr #32
 128:	00000038 	andeq	r0, r0, r8, lsr r0
 12c:	00000038 	andeq	r0, r0, r8, lsr r0
 130:	00000044 	andeq	r0, r0, r4, asr #32
 134:	0000004c 	andeq	r0, r0, ip, asr #32
	...
 140:	000000a4 	andeq	r0, r0, r4, lsr #1
 144:	00000148 	andeq	r0, r0, r8, asr #2
 148:	00000158 	andeq	r0, r0, r8, asr r1
 14c:	0000015c 	andeq	r0, r0, ip, asr r1
 150:	00000274 	andeq	r0, r0, r4, ror r2
 154:	00000278 	andeq	r0, r0, r8, ror r2
 158:	0000027c 	andeq	r0, r0, ip, ror r2
 15c:	00000280 	andeq	r0, r0, r0, lsl #5
 160:	00000288 	andeq	r0, r0, r8, lsl #5
 164:	0000029c 	muleq	r0, ip, r2
 168:	000002c0 	andeq	r0, r0, r0, asr #5
 16c:	000002cc 	andeq	r0, r0, ip, asr #5
 170:	000002f0 	strdeq	r0, [r0], -r0	; <UNPREDICTABLE>
 174:	000002f0 	strdeq	r0, [r0], -r0	; <UNPREDICTABLE>
 178:	000002f4 	strdeq	r0, [r0], -r4
 17c:	000002f8 	strdeq	r0, [r0], -r8
	...
 188:	00000148 	andeq	r0, r0, r8, asr #2
 18c:	00000158 	andeq	r0, r0, r8, asr r1
 190:	0000015c 	andeq	r0, r0, ip, asr r1
 194:	0000018c 	andeq	r0, r0, ip, lsl #3
 198:	0000029c 	muleq	r0, ip, r2
 19c:	000002ac 	andeq	r0, r0, ip, lsr #5
	...
 1a8:	000003c8 	andeq	r0, r0, r8, asr #7
 1ac:	000003d0 	ldrdeq	r0, [r0], -r0	; <UNPREDICTABLE>
 1b0:	00000404 	andeq	r0, r0, r4, lsl #8
 1b4:	000004ac 	andeq	r0, r0, ip, lsr #9
 1b8:	000004c0 	andeq	r0, r0, r0, asr #9
 1bc:	00000920 	andeq	r0, r0, r0, lsr #18
 1c0:	00000928 	andeq	r0, r0, r8, lsr #18
 1c4:	000009b4 			; <UNDEFINED> instruction: 0x000009b4
	...
 1d0:	000003c8 	andeq	r0, r0, r8, asr #7
 1d4:	000003d0 	ldrdeq	r0, [r0], -r0	; <UNPREDICTABLE>
 1d8:	00000504 	andeq	r0, r0, r4, lsl #10
 1dc:	000005d0 	ldrdeq	r0, [r0], -r0	; <UNPREDICTABLE>
 1e0:	00000800 	andeq	r0, r0, r0, lsl #16
 1e4:	00000888 	andeq	r0, r0, r8, lsl #17
 1e8:	00000930 	andeq	r0, r0, r0, lsr r9
 1ec:	000009b4 			; <UNDEFINED> instruction: 0x000009b4
	...
 1f8:	00000404 	andeq	r0, r0, r4, lsl #8
 1fc:	00000408 	andeq	r0, r0, r8, lsl #8
 200:	00000414 	andeq	r0, r0, r4, lsl r4
 204:	00000414 	andeq	r0, r0, r4, lsl r4
 208:	00000428 	andeq	r0, r0, r8, lsr #8
 20c:	0000042c 	andeq	r0, r0, ip, lsr #8
	...
 218:	000005fc 	strdeq	r0, [r0], -ip
 21c:	00000700 	andeq	r0, r0, r0, lsl #14
 220:	000007ec 	andeq	r0, r0, ip, ror #15
 224:	000007f4 	strdeq	r0, [r0], -r4
 228:	00000888 	andeq	r0, r0, r8, lsl #17
 22c:	00000894 	muleq	r0, r4, r8
 230:	000008a8 	andeq	r0, r0, r8, lsr #17
 234:	000008bc 			; <UNDEFINED> instruction: 0x000008bc
 238:	00000910 	andeq	r0, r0, r0, lsl r9
 23c:	00000920 	andeq	r0, r0, r0, lsr #18
	...
 248:	00000600 	andeq	r0, r0, r0, lsl #12
 24c:	00000604 	andeq	r0, r0, r4, lsl #12
 250:	00000608 	andeq	r0, r0, r8, lsl #12
 254:	000006b4 			; <UNDEFINED> instruction: 0x000006b4
 258:	000006cc 	andeq	r0, r0, ip, asr #13
 25c:	000006d0 	ldrdeq	r0, [r0], -r0	; <UNPREDICTABLE>
 260:	000008a8 	andeq	r0, r0, r8, lsr #17
 264:	000008b8 			; <UNDEFINED> instruction: 0x000008b8
 268:	00000910 	andeq	r0, r0, r0, lsl r9
 26c:	00000920 	andeq	r0, r0, r0, lsr #18
	...
 278:	000006b4 			; <UNDEFINED> instruction: 0x000006b4
 27c:	000006cc 	andeq	r0, r0, ip, asr #13
 280:	000006d0 	ldrdeq	r0, [r0], -r0	; <UNPREDICTABLE>
 284:	00000700 	andeq	r0, r0, r0, lsl #14
 288:	000007ec 	andeq	r0, r0, ip, ror #15
 28c:	000007f4 	strdeq	r0, [r0], -r4
 290:	00000888 	andeq	r0, r0, r8, lsl #17
 294:	00000894 	muleq	r0, r4, r8
 298:	000008b8 			; <UNDEFINED> instruction: 0x000008b8
 29c:	000008bc 			; <UNDEFINED> instruction: 0x000008bc
	...
 2a8:	00000700 	andeq	r0, r0, r0, lsl #14
 2ac:	00000708 	andeq	r0, r0, r8, lsl #14
 2b0:	0000070c 	andeq	r0, r0, ip, lsl #14
 2b4:	000007ec 	andeq	r0, r0, ip, ror #15
 2b8:	00000894 	muleq	r0, r4, r8
 2bc:	000008a8 	andeq	r0, r0, r8, lsr #17
	...
 2c8:	00000728 	andeq	r0, r0, r8, lsr #14
 2cc:	000007a4 	andeq	r0, r0, r4, lsr #15
 2d0:	000007ac 	andeq	r0, r0, ip, lsr #15
 2d4:	000007b0 			; <UNDEFINED> instruction: 0x000007b0
 2d8:	00000894 	muleq	r0, r4, r8
 2dc:	00000898 	muleq	r0, r8, r8
 2e0:	0000089c 	muleq	r0, ip, r8
 2e4:	000008a0 	andeq	r0, r0, r0, lsr #17
	...
 2f0:	000007a4 	andeq	r0, r0, r4, lsr #15
 2f4:	000007ac 	andeq	r0, r0, ip, lsr #15
 2f8:	000007b0 			; <UNDEFINED> instruction: 0x000007b0
 2fc:	000007ec 	andeq	r0, r0, ip, ror #15
 300:	00000898 	muleq	r0, r8, r8
 304:	0000089c 	muleq	r0, ip, r8
 308:	000008a0 	andeq	r0, r0, r0, lsr #17
 30c:	000008a8 	andeq	r0, r0, r8, lsr #17
	...
 318:	00009ca8 	andeq	r9, r0, r8, lsr #25
 31c:	00009ca8 	andeq	r9, r0, r8, lsr #25
 320:	00009cac 	andeq	r9, r0, ip, lsr #25
 324:	00009cb4 			; <UNDEFINED> instruction: 0x00009cb4
	...
 330:	00009c7c 	andeq	r9, r0, ip, ror ip
 334:	00009d08 	andeq	r9, r0, r8, lsl #26
	...
 340:	00000030 	andeq	r0, r0, r0, lsr r0
 344:	00000030 	andeq	r0, r0, r0, lsr r0
 348:	00000038 	andeq	r0, r0, r8, lsr r0
 34c:	0000004c 	andeq	r0, r0, ip, asr #32
	...
 358:	0000004c 	andeq	r0, r0, ip, asr #32
 35c:	00000050 	andeq	r0, r0, r0, asr r0
 360:	00000050 	andeq	r0, r0, r0, asr r0
 364:	00000078 	andeq	r0, r0, r8, ror r0
	...
 370:	0000004c 	andeq	r0, r0, ip, asr #32
 374:	00000050 	andeq	r0, r0, r0, asr r0
 378:	00000050 	andeq	r0, r0, r0, asr r0
 37c:	00000060 	andeq	r0, r0, r0, rrx
 380:	00000064 	andeq	r0, r0, r4, rrx
 384:	00000068 	andeq	r0, r0, r8, rrx
	...
 390:	0000004c 	andeq	r0, r0, ip, asr #32
 394:	00000050 	andeq	r0, r0, r0, asr r0
 398:	00000054 	andeq	r0, r0, r4, asr r0
 39c:	00000060 	andeq	r0, r0, r0, rrx
	...
 3a8:	0000009c 	muleq	r0, ip, r0
 3ac:	000000a0 	andeq	r0, r0, r0, lsr #1
 3b0:	000000a0 	andeq	r0, r0, r0, lsr #1
 3b4:	000000c8 	andeq	r0, r0, r8, asr #1
	...
 3c0:	0000009c 	muleq	r0, ip, r0
 3c4:	000000a0 	andeq	r0, r0, r0, lsr #1
 3c8:	000000a0 	andeq	r0, r0, r0, lsr #1
 3cc:	000000b0 	strheq	r0, [r0], -r0	; <UNPREDICTABLE>
 3d0:	000000b4 	strheq	r0, [r0], -r4
 3d4:	000000b8 	strheq	r0, [r0], -r8
	...
 3e0:	0000009c 	muleq	r0, ip, r0
 3e4:	000000a0 	andeq	r0, r0, r0, lsr #1
 3e8:	000000a4 	andeq	r0, r0, r4, lsr #1
 3ec:	000000b0 	strheq	r0, [r0], -r0	; <UNPREDICTABLE>
	...
 3f8:	000000c8 	andeq	r0, r0, r8, asr #1
 3fc:	000000c8 	andeq	r0, r0, r8, asr #1
 400:	000000cc 	andeq	r0, r0, ip, asr #1
 404:	0000011c 	andeq	r0, r0, ip, lsl r1
	...
 410:	000000f0 	strdeq	r0, [r0], -r0	; <UNPREDICTABLE>
 414:	000000f4 	strdeq	r0, [r0], -r4
 418:	000000f4 	strdeq	r0, [r0], -r4
 41c:	0000011c 	andeq	r0, r0, ip, lsl r1
	...
 428:	000000f0 	strdeq	r0, [r0], -r0	; <UNPREDICTABLE>
 42c:	000000f4 	strdeq	r0, [r0], -r4
 430:	000000f4 	strdeq	r0, [r0], -r4
 434:	00000104 	andeq	r0, r0, r4, lsl #2
 438:	00000108 	andeq	r0, r0, r8, lsl #2
 43c:	0000010c 	andeq	r0, r0, ip, lsl #2
	...
 448:	000000f0 	strdeq	r0, [r0], -r0	; <UNPREDICTABLE>
 44c:	000000f4 	strdeq	r0, [r0], -r4
 450:	000000f8 	strdeq	r0, [r0], -r8
 454:	00000104 	andeq	r0, r0, r4, lsl #2
	...
 460:	00000134 	andeq	r0, r0, r4, lsr r1
 464:	00000134 	andeq	r0, r0, r4, lsr r1
 468:	00000134 	andeq	r0, r0, r4, lsr r1
 46c:	0000013c 	andeq	r0, r0, ip, lsr r1
	...
 478:	0000024c 	andeq	r0, r0, ip, asr #4
 47c:	00000264 	andeq	r0, r0, r4, ror #4
 480:	000002c8 	andeq	r0, r0, r8, asr #5
 484:	000002e8 	andeq	r0, r0, r8, ror #5
	...
 490:	00000008 	andeq	r0, r0, r8
 494:	0000000c 	andeq	r0, r0, ip
 498:	00000014 	andeq	r0, r0, r4, lsl r0
 49c:	00000054 	andeq	r0, r0, r4, asr r0
 4a0:	00000058 	andeq	r0, r0, r8, asr r0
 4a4:	00000060 	andeq	r0, r0, r0, rrx
	...
 4b0:	00000060 	andeq	r0, r0, r0, rrx
 4b4:	00000068 	andeq	r0, r0, r8, rrx
 4b8:	0000006c 	andeq	r0, r0, ip, rrx
 4bc:	000000ac 	andeq	r0, r0, ip, lsr #1
 4c0:	000000b0 	strheq	r0, [r0], -r0	; <UNPREDICTABLE>
 4c4:	000000b8 	strheq	r0, [r0], -r8
	...
 4d0:	00000068 	andeq	r0, r0, r8, rrx
 4d4:	00000068 	andeq	r0, r0, r8, rrx
 4d8:	0000006c 	andeq	r0, r0, ip, rrx
 4dc:	000000ac 	andeq	r0, r0, ip, lsr #1
 4e0:	000000b0 	strheq	r0, [r0], -r0	; <UNPREDICTABLE>
 4e4:	000000b8 	strheq	r0, [r0], -r8
	...
 4f0:	000000e8 	andeq	r0, r0, r8, ror #1
 4f4:	000000f0 	strdeq	r0, [r0], -r0	; <UNPREDICTABLE>
 4f8:	000000f4 	strdeq	r0, [r0], -r4
 4fc:	00000134 	andeq	r0, r0, r4, lsr r1
 500:	00000138 	andeq	r0, r0, r8, lsr r1
 504:	00000140 	andeq	r0, r0, r0, asr #2
	...
 510:	000000f0 	strdeq	r0, [r0], -r0	; <UNPREDICTABLE>
 514:	000000f0 	strdeq	r0, [r0], -r0	; <UNPREDICTABLE>
 518:	000000f4 	strdeq	r0, [r0], -r4
 51c:	00000134 	andeq	r0, r0, r4, lsr r1
 520:	00000138 	andeq	r0, r0, r8, lsr r1
 524:	00000140 	andeq	r0, r0, r0, asr #2
	...
 530:	00000144 	andeq	r0, r0, r4, asr #2
 534:	00000148 	andeq	r0, r0, r8, asr #2
 538:	00000150 	andeq	r0, r0, r0, asr r1
 53c:	0000015c 	andeq	r0, r0, ip, asr r1
	...
