
tests-2.0/part2-test4-no-leak.elf:     file format elf32-littlearm


Disassembly of section .text:

00008000 <__code_start__>:
    8000:	e3a00013 	mov	r0, #19, 0
    8004:	e3800080 	orr	r0, r0, #128, 0	; 0x80
    8008:	e129f000 	msr	CPSR_fc, r0
    800c:	e3a01000 	mov	r1, #0, 0
    8010:	ee071f95 	mcr	15, 0, r1, cr7, cr5, {4}
    8014:	e3a0d302 	mov	sp, #134217728	; 0x8000000
    8018:	e3a0b000 	mov	fp, #0, 0
    801c:	eb000674 	bl	99f4 <_cstart>
    8020:	eb0006c9 	bl	9b4c <rpi_reboot>

00008024 <PUT32>:
    8024:	e5801000 	str	r1, [r0]
    8028:	e12fff1e 	bx	lr

0000802c <GET32>:
    802c:	e5900000 	ldr	r0, [r0]
    8030:	e12fff1e 	bx	lr

00008034 <BRANCHTO>:
    8034:	e12fff10 	bx	r0
    8038:	625f6b63 	subsvs	r6, pc, #101376	; 0x18c00
    803c:	695f6b6c 	ldmdbvs	pc, {r2, r3, r5, r6, r8, r9, fp, sp, lr}^	; <UNPREDICTABLE>
    8040:	00000064 	andeq	r0, r0, r4, rrx
    8044:	ff00000c 			; <UNDEFINED> instruction: 0xff00000c

00008048 <ck_blk_id>:
    8048:	e1a0c00d 	mov	ip, sp
    804c:	e92dd800 	push	{fp, ip, lr, pc}
    8050:	e24cb004 	sub	fp, ip, #4, 0
    8054:	e51000a8 	ldr	r0, [r0, #-168]	; 0xffffff58
    8058:	e89da800 	ldm	sp, {fp, sp, pc}
    805c:	74736574 	ldrbtvc	r6, [r3], #-1396	; 0xfffffa8c
    8060:	00000000 	andeq	r0, r0, r0
    8064:	ff000008 			; <UNDEFINED> instruction: 0xff000008

00008068 <test>:
    8068:	e1a0c00d 	mov	ip, sp
    806c:	e92dd870 	push	{r4, r5, r6, fp, ip, lr, pc}
    8070:	e24cb004 	sub	fp, ip, #4, 0
    8074:	e24dd01c 	sub	sp, sp, #28, 0
    8078:	e3a06000 	mov	r6, #0, 0
    807c:	e1a05006 	mov	r5, r6
    8080:	ea000009 	b	80ac <test+0x44>
    8084:	e59f3098 	ldr	r3, [pc, #152]	; 8124 <test+0xbc>
    8088:	e58d3000 	str	r3, [sp]
    808c:	e3a03014 	mov	r3, #20, 0
    8090:	e59f2090 	ldr	r2, [pc, #144]	; 8128 <test+0xc0>
    8094:	e59f1090 	ldr	r1, [pc, #144]	; 812c <test+0xc4>
    8098:	e59f0090 	ldr	r0, [pc, #144]	; 8130 <test+0xc8>
    809c:	eb0003b8 	bl	8f84 <printk>
    80a0:	eb000648 	bl	99c8 <clean_reboot>
    80a4:	e2866001 	add	r6, r6, #1, 0
    80a8:	e1a05004 	mov	r5, r4
    80ac:	e3560063 	cmp	r6, #99, 0	; 0x63
    80b0:	ca000017 	bgt	8114 <test+0xac>
    80b4:	e59f3070 	ldr	r3, [pc, #112]	; 812c <test+0xc4>
    80b8:	e50b3028 	str	r3, [fp, #-40]	; 0xffffffd8
    80bc:	e59f3064 	ldr	r3, [pc, #100]	; 8128 <test+0xc0>
    80c0:	e50b3024 	str	r3, [fp, #-36]	; 0xffffffdc
    80c4:	e3a03010 	mov	r3, #16, 0
    80c8:	e50b3020 	str	r3, [fp, #-32]	; 0xffffffe0
    80cc:	e24b301c 	sub	r3, fp, #28, 0
    80d0:	e913000e 	ldmdb	r3, {r1, r2, r3}
    80d4:	e3a0000c 	mov	r0, #12, 0
    80d8:	eb0000f8 	bl	84c0 <ckalloc>
    80dc:	e1a04000 	mov	r4, r0
    80e0:	e3a0200c 	mov	r2, #12, 0
    80e4:	e3a01000 	mov	r1, #0, 0
    80e8:	eb000387 	bl	8f0c <memset>
    80ec:	e3a03000 	mov	r3, #0, 0
    80f0:	e5843000 	str	r3, [r4]
    80f4:	e1550003 	cmp	r5, r3
    80f8:	0affffe9 	beq	80a4 <test+0x3c>
    80fc:	e5953008 	ldr	r3, [r5, #8]
    8100:	e3530000 	cmp	r3, #0, 0
    8104:	1affffde 	bne	8084 <test+0x1c>
    8108:	e5854008 	str	r4, [r5, #8]
    810c:	e5845004 	str	r5, [r4, #4]
    8110:	eaffffe3 	b	80a4 <test+0x3c>
    8114:	eb000307 	bl	8d38 <check_no_leak>
    8118:	e1a00005 	mov	r0, r5
    811c:	e24bd018 	sub	sp, fp, #24, 0
    8120:	e89da870 	ldm	sp, {r4, r5, r6, fp, sp, pc}
    8124:	0000a544 	andeq	sl, r0, r4, asr #10
    8128:	0000a5b8 			; <UNDEFINED> instruction: 0x0000a5b8
    812c:	0000a510 	andeq	sl, r0, r0, lsl r5
    8130:	0000a530 	andeq	sl, r0, r0, lsr r5
    8134:	6d746f6e 	ldclvs	15, cr6, [r4, #-440]!	; 0xfffffe48
    8138:	006e6961 	rsbeq	r6, lr, r1, ror #18
    813c:	ff000008 			; <UNDEFINED> instruction: 0xff000008

00008140 <notmain>:
    8140:	e1a0c00d 	mov	ip, sp
    8144:	e92dd830 	push	{r4, r5, fp, ip, lr, pc}
    8148:	e24cb004 	sub	fp, ip, #4, 0
    814c:	e59f0020 	ldr	r0, [pc, #32]	; 8174 <notmain+0x34>
    8150:	eb00038b 	bl	8f84 <printk>
    8154:	ebffffc3 	bl	8068 <test>
    8158:	e1a04000 	mov	r4, r0
    815c:	ebffffb9 	bl	8048 <ck_blk_id>
    8160:	e1a01000 	mov	r1, r0
    8164:	e1a02004 	mov	r2, r4
    8168:	e59f0008 	ldr	r0, [pc, #8]	; 8178 <notmain+0x38>
    816c:	eb000384 	bl	8f84 <printk>
    8170:	e89da830 	ldm	sp, {r4, r5, fp, sp, pc}
    8174:	0000a550 	andeq	sl, r0, r0, asr r5
    8178:	0000a58c 	andeq	sl, r0, ip, lsl #11
    817c:	665f6b63 	ldrbvs	r6, [pc], -r3, ror #22
    8180:	74737269 	ldrbtvc	r7, [r3], #-617	; 0xfffffd97
    8184:	7264685f 	rsbvc	r6, r4, #6225920	; 0x5f0000
    8188:	00000000 	andeq	r0, r0, r0
    818c:	ff000010 			; <UNDEFINED> instruction: 0xff000010

00008190 <ck_first_hdr>:
    8190:	e1a0c00d 	mov	ip, sp
    8194:	e92dd800 	push	{fp, ip, lr, pc}
    8198:	e24cb004 	sub	fp, ip, #4, 0
    819c:	e59f3004 	ldr	r3, [pc, #4]	; 81a8 <ck_first_hdr+0x18>
    81a0:	e5930000 	ldr	r0, [r3]
    81a4:	e89da800 	ldm	sp, {fp, sp, pc}
    81a8:	0000ad70 	andeq	sl, r0, r0, ror sp
    81ac:	6e5f6b63 	vnmlavs.f64	d22, d15, d19
    81b0:	5f747865 	svcpl	0x00747865
    81b4:	00726468 	rsbseq	r6, r2, r8, ror #8
    81b8:	ff00000c 			; <UNDEFINED> instruction: 0xff00000c

000081bc <ck_next_hdr>:
    81bc:	e1a0c00d 	mov	ip, sp
    81c0:	e92dd800 	push	{fp, ip, lr, pc}
    81c4:	e24cb004 	sub	fp, ip, #4, 0
    81c8:	e3500000 	cmp	r0, #0, 0
    81cc:	089da800 	ldmeq	sp, {fp, sp, pc}
    81d0:	e5900000 	ldr	r0, [r0]
    81d4:	e89da800 	ldm	sp, {fp, sp, pc}
    81d8:	685f6b63 	ldmdavs	pc, {r0, r1, r5, r6, r8, r9, fp, sp, lr}^	; <UNPREDICTABLE>
    81dc:	735f7264 	cmpvc	pc, #100, 4	; 0x40000006
    81e0:	74726174 	ldrbtvc	r6, [r2], #-372	; 0xfffffe8c
    81e4:	00000000 	andeq	r0, r0, r0
    81e8:	ff000010 			; <UNDEFINED> instruction: 0xff000010

000081ec <ck_hdr_start>:
    81ec:	e1a0c00d 	mov	ip, sp
    81f0:	e92dd800 	push	{fp, ip, lr, pc}
    81f4:	e24cb004 	sub	fp, ip, #4, 0
    81f8:	e28000b8 	add	r0, r0, #184, 0	; 0xb8
    81fc:	e89da800 	ldm	sp, {fp, sp, pc}
    8200:	685f6b63 	ldmdavs	pc, {r0, r1, r5, r6, r8, r9, fp, sp, lr}^	; <UNPREDICTABLE>
    8204:	655f7264 	ldrbvs	r7, [pc, #-612]	; 7fa8 <__code_start__-0x58>
    8208:	0000646e 	andeq	r6, r0, lr, ror #8
    820c:	ff00000c 			; <UNDEFINED> instruction: 0xff00000c

00008210 <ck_hdr_end>:
    8210:	e1a0c00d 	mov	ip, sp
    8214:	e92dd830 	push	{r4, r5, fp, ip, lr, pc}
    8218:	e24cb004 	sub	fp, ip, #4, 0
    821c:	e1a04000 	mov	r4, r0
    8220:	ebfffff1 	bl	81ec <ck_hdr_start>
    8224:	e5943008 	ldr	r3, [r4, #8]
    8228:	e0800003 	add	r0, r0, r3
    822c:	e89da830 	ldm	sp, {r4, r5, fp, sp, pc}
    8230:	705f6b63 	subsvc	r6, pc, r3, ror #22
    8234:	695f7274 	ldmdbvs	pc, {r2, r4, r5, r6, r9, ip, sp, lr}^	; <UNPREDICTABLE>
    8238:	6c625f6e 	stclvs	15, cr5, [r2], #-440	; 0xfffffe48
    823c:	006b636f 	rsbeq	r6, fp, pc, ror #6
    8240:	ff000010 			; <UNDEFINED> instruction: 0xff000010

00008244 <ck_ptr_in_block>:
    8244:	e1a0c00d 	mov	ip, sp
    8248:	e92dd8f0 	push	{r4, r5, r6, r7, fp, ip, lr, pc}
    824c:	e24cb004 	sub	fp, ip, #4, 0
    8250:	e1a06000 	mov	r6, r0
    8254:	e1a04001 	mov	r4, r1
    8258:	ebffffe3 	bl	81ec <ck_hdr_start>
    825c:	e1a05000 	mov	r5, r0
    8260:	e1a00006 	mov	r0, r6
    8264:	ebffffe9 	bl	8210 <ck_hdr_end>
    8268:	e1550004 	cmp	r5, r4
    826c:	91540000 	cmpls	r4, r0
    8270:	33a00001 	movcc	r0, #1, 0
    8274:	23a00000 	movcs	r0, #0, 0
    8278:	e89da8f0 	ldm	sp, {r4, r5, r6, r7, fp, sp, pc}
    827c:	705f6b63 	subsvc	r6, pc, r3, ror #22
    8280:	695f7274 	ldmdbvs	pc, {r2, r4, r5, r6, r9, ip, sp, lr}^	; <UNPREDICTABLE>
    8284:	6c615f73 	stclvs	15, cr5, [r1], #-460	; 0xfffffe34
    8288:	65636f6c 	strbvs	r6, [r3, #-3948]!	; 0xfffff094
    828c:	00000064 	andeq	r0, r0, r4, rrx
    8290:	ff000014 			; <UNDEFINED> instruction: 0xff000014

00008294 <ck_ptr_is_alloced>:
    8294:	e1a0c00d 	mov	ip, sp
    8298:	e92dd830 	push	{r4, r5, fp, ip, lr, pc}
    829c:	e24cb004 	sub	fp, ip, #4, 0
    82a0:	e1a05000 	mov	r5, r0
    82a4:	ebffffb9 	bl	8190 <ck_first_hdr>
    82a8:	e1a04000 	mov	r4, r0
    82ac:	e3540000 	cmp	r4, #0, 0
    82b0:	0a00000c 	beq	82e8 <ck_ptr_is_alloced+0x54>
    82b4:	e1a01005 	mov	r1, r5
    82b8:	e1a00004 	mov	r0, r4
    82bc:	ebffffe0 	bl	8244 <ck_ptr_in_block>
    82c0:	e3500000 	cmp	r0, #0, 0
    82c4:	1a000003 	bne	82d8 <ck_ptr_is_alloced+0x44>
    82c8:	e1a00004 	mov	r0, r4
    82cc:	ebffffba 	bl	81bc <ck_next_hdr>
    82d0:	e1a04000 	mov	r4, r0
    82d4:	eafffff4 	b	82ac <ck_ptr_is_alloced+0x18>
    82d8:	e1a02004 	mov	r2, r4
    82dc:	e1a01005 	mov	r1, r5
    82e0:	e59f0008 	ldr	r0, [pc, #8]	; 82f0 <ck_ptr_is_alloced+0x5c>
    82e4:	eb000326 	bl	8f84 <printk>
    82e8:	e1a00004 	mov	r0, r4
    82ec:	e89da830 	ldm	sp, {r4, r5, fp, sp, pc}
    82f0:	0000a5c0 	andeq	sl, r0, r0, asr #11
    82f4:	72666b63 	rsbvc	r6, r6, #101376	; 0x18c00
    82f8:	00006565 	andeq	r6, r0, r5, ror #10
    82fc:	ff000008 			; <UNDEFINED> instruction: 0xff000008

00008300 <ckfree>:
    8300:	e1a0c00d 	mov	ip, sp
    8304:	e92dd8f0 	push	{r4, r5, r6, r7, fp, ip, lr, pc}
    8308:	e24cb004 	sub	fp, ip, #4, 0
    830c:	e24dd010 	sub	sp, sp, #16, 0
    8310:	e1a04000 	mov	r4, r0
    8314:	e24b0028 	sub	r0, fp, #40, 0	; 0x28
    8318:	e880000e 	stm	r0, {r1, r2, r3}
    831c:	e244c098 	sub	ip, r4, #152, 0	; 0x98
    8320:	e8900007 	ldm	r0, {r0, r1, r2}
    8324:	e88c000b 	stm	ip, {r0, r1, r3}
    8328:	e1a05000 	mov	r5, r0
    832c:	e51b6024 	ldr	r6, [fp, #-36]	; 0xffffffdc
    8330:	e51b7020 	ldr	r7, [fp, #-32]	; 0xffffffe0
    8334:	e1a03007 	mov	r3, r7
    8338:	e1a02006 	mov	r2, r6
    833c:	e1a01000 	mov	r1, r0
    8340:	e59f00fc 	ldr	r0, [pc, #252]	; 8444 <ckfree+0x144>
    8344:	eb00030e 	bl	8f84 <printk>
    8348:	e1a01004 	mov	r1, r4
    834c:	e59f00f4 	ldr	r0, [pc, #244]	; 8448 <ckfree+0x148>
    8350:	eb00030b 	bl	8f84 <printk>
    8354:	e51430ac 	ldr	r3, [r4, #-172]	; 0xffffff54
    8358:	e353000b 	cmp	r3, #11, 0
    835c:	1a00000d 	bne	8398 <ckfree+0x98>
    8360:	e3a03000 	mov	r3, #0, 0
    8364:	e353007f 	cmp	r3, #127, 0	; 0x7f
    8368:	ca000026 	bgt	8408 <ckfree+0x108>
    836c:	e0842003 	add	r2, r4, r3
    8370:	e5522082 	ldrb	r2, [r2, #-130]	; 0xffffff7e
    8374:	e35200fe 	cmp	r2, #254, 0	; 0xfe
    8378:	1a000010 	bne	83c0 <ckfree+0xc0>
    837c:	e51420b0 	ldr	r2, [r4, #-176]	; 0xffffff50
    8380:	e0832002 	add	r2, r3, r2
    8384:	e7d42002 	ldrb	r2, [r4, r2]
    8388:	e35200fe 	cmp	r2, #254, 0	; 0xfe
    838c:	1a000014 	bne	83e4 <ckfree+0xe4>
    8390:	e2833001 	add	r3, r3, #1, 0
    8394:	eafffff2 	b	8364 <ckfree+0x64>
    8398:	eb0002b3 	bl	8e6c <backtrace>
    839c:	e1a03007 	mov	r3, r7
    83a0:	e1a02006 	mov	r2, r6
    83a4:	e1a01005 	mov	r1, r5
    83a8:	e59f009c 	ldr	r0, [pc, #156]	; 844c <ckfree+0x14c>
    83ac:	eb0002f4 	bl	8f84 <printk>
    83b0:	e51410ac 	ldr	r1, [r4, #-172]	; 0xffffff54
    83b4:	e59f0094 	ldr	r0, [pc, #148]	; 8450 <ckfree+0x150>
    83b8:	eb0002f1 	bl	8f84 <printk>
    83bc:	eb000581 	bl	99c8 <clean_reboot>
    83c0:	eb0002a9 	bl	8e6c <backtrace>
    83c4:	e1a03007 	mov	r3, r7
    83c8:	e1a02006 	mov	r2, r6
    83cc:	e1a01005 	mov	r1, r5
    83d0:	e59f0074 	ldr	r0, [pc, #116]	; 844c <ckfree+0x14c>
    83d4:	eb0002ea 	bl	8f84 <printk>
    83d8:	e59f0074 	ldr	r0, [pc, #116]	; 8454 <ckfree+0x154>
    83dc:	eb0002e8 	bl	8f84 <printk>
    83e0:	eb000578 	bl	99c8 <clean_reboot>
    83e4:	eb0002a0 	bl	8e6c <backtrace>
    83e8:	e1a03007 	mov	r3, r7
    83ec:	e1a02006 	mov	r2, r6
    83f0:	e1a01005 	mov	r1, r5
    83f4:	e59f0050 	ldr	r0, [pc, #80]	; 844c <ckfree+0x14c>
    83f8:	eb0002e1 	bl	8f84 <printk>
    83fc:	e59f0054 	ldr	r0, [pc, #84]	; 8458 <ckfree+0x158>
    8400:	eb0002df 	bl	8f84 <printk>
    8404:	eb00056f 	bl	99c8 <clean_reboot>
    8408:	e3a03000 	mov	r3, #0, 0
    840c:	e51420b0 	ldr	r2, [r4, #-176]	; 0xffffff50
    8410:	e1520003 	cmp	r2, r3
    8414:	83e02001 	mvnhi	r2, #1, 0
    8418:	87c42003 	strbhi	r2, [r4, r3]
    841c:	82833001 	addhi	r3, r3, #1, 0
    8420:	8afffff9 	bhi	840c <ckfree+0x10c>
    8424:	e3a0300c 	mov	r3, #12, 0
    8428:	e50430ac 	str	r3, [r4, #-172]	; 0xffffff54
    842c:	e2444098 	sub	r4, r4, #152, 0	; 0x98
    8430:	e24b301c 	sub	r3, fp, #28, 0
    8434:	e9130007 	ldmdb	r3, {r0, r1, r2}
    8438:	e8840007 	stm	r4, {r0, r1, r2}
    843c:	e24bd01c 	sub	sp, fp, #28, 0
    8440:	e89da8f0 	ldm	sp, {r4, r5, r6, r7, fp, sp, pc}
    8444:	0000a5d0 	ldrdeq	sl, [r0], -r0
    8448:	0000a5dc 	ldrdeq	sl, [r0], -ip
    844c:	0000a5ec 	andeq	sl, r0, ip, ror #11
    8450:	0000a604 	andeq	sl, r0, r4, lsl #12
    8454:	0000a62c 	andeq	sl, r0, ip, lsr #12
    8458:	0000a648 	andeq	sl, r0, r8, asr #12
    845c:	64616873 	strbtvs	r6, [r1], #-2163	; 0xfffff78d
    8460:	6c5f776f 	mrrcvs	7, 6, r7, pc, cr15	; <UNPREDICTABLE>
    8464:	7461636f 	strbtvc	r6, [r1], #-879	; 0xfffffc91
    8468:	006e6f69 	rsbeq	r6, lr, r9, ror #30
    846c:	ff000010 			; <UNDEFINED> instruction: 0xff000010

00008470 <shadow_location>:
    8470:	e1a0c00d 	mov	ip, sp
    8474:	e92dd800 	push	{fp, ip, lr, pc}
    8478:	e24cb004 	sub	fp, ip, #4, 0
    847c:	e59f302c 	ldr	r3, [pc, #44]	; 84b0 <shadow_location+0x40>
    8480:	e1500003 	cmp	r0, r3
    8484:	3a000005 	bcc	84a0 <shadow_location+0x30>
    8488:	e2833101 	add	r3, r3, #1073741824	; 0x40000000
    848c:	e1500003 	cmp	r0, r3
    8490:	2a000004 	bcs	84a8 <shadow_location+0x38>
    8494:	e3c00003 	bic	r0, r0, #3, 0
    8498:	e2800201 	add	r0, r0, #268435456	; 0x10000000
    849c:	e89da800 	ldm	sp, {fp, sp, pc}
    84a0:	e3a00000 	mov	r0, #0, 0
    84a4:	e89da800 	ldm	sp, {fp, sp, pc}
    84a8:	e3a00000 	mov	r0, #0, 0
    84ac:	e89da800 	ldm	sp, {fp, sp, pc}
    84b0:	0000b1a0 	andeq	fp, r0, r0, lsr #3
    84b4:	6c616b63 			; <UNDEFINED> instruction: 0x6c616b63
    84b8:	00636f6c 	rsbeq	r6, r3, ip, ror #30
    84bc:	ff000008 			; <UNDEFINED> instruction: 0xff000008

000084c0 <ckalloc>:
    84c0:	e1a0c00d 	mov	ip, sp
    84c4:	e92dd8f0 	push	{r4, r5, r6, r7, fp, ip, lr, pc}
    84c8:	e24cb004 	sub	fp, ip, #4, 0
    84cc:	e24dd010 	sub	sp, sp, #16, 0
    84d0:	e1a05000 	mov	r5, r0
    84d4:	e24b001c 	sub	r0, fp, #28, 0
    84d8:	e900000e 	stmdb	r0, {r1, r2, r3}
    84dc:	e2850f4e 	add	r0, r5, #312	; 0x138
    84e0:	eb000088 	bl	8708 <kr_malloc>
    84e4:	e1a04000 	mov	r4, r0
    84e8:	e3a020b8 	mov	r2, #184, 0	; 0xb8
    84ec:	e3a01000 	mov	r1, #0, 0
    84f0:	eb000285 	bl	8f0c <memset>
    84f4:	e3a03000 	mov	r3, #0, 0
    84f8:	e353007f 	cmp	r3, #127, 0	; 0x7f
    84fc:	ca000007 	bgt	8520 <ckalloc+0x60>
    8500:	e0842003 	add	r2, r4, r3
    8504:	e3e01001 	mvn	r1, #1, 0
    8508:	e5c21036 	strb	r1, [r2, #54]	; 0x36
    850c:	e0832005 	add	r2, r3, r5
    8510:	e28220b8 	add	r2, r2, #184, 0	; 0xb8
    8514:	e7c41002 	strb	r1, [r4, r2]
    8518:	e2833001 	add	r3, r3, #1, 0
    851c:	eafffff5 	b	84f8 <ckalloc+0x38>
    8520:	e5845008 	str	r5, [r4, #8]
    8524:	e3a0300b 	mov	r3, #11, 0
    8528:	e584300c 	str	r3, [r4, #12]
    852c:	e2843014 	add	r3, r4, #20, 0
    8530:	e24b201c 	sub	r2, fp, #28, 0
    8534:	e9120007 	ldmdb	r2, {r0, r1, r2}
    8538:	e8830007 	stm	r3, {r0, r1, r2}
    853c:	e59f3068 	ldr	r3, [pc, #104]	; 85ac <ckalloc+0xec>
    8540:	e5843004 	str	r3, [r4, #4]
    8544:	e51b3020 	ldr	r3, [fp, #-32]	; 0xffffffe0
    8548:	e51b2024 	ldr	r2, [fp, #-36]	; 0xffffffdc
    854c:	e51b1028 	ldr	r1, [fp, #-40]	; 0xffffffd8
    8550:	e59f0058 	ldr	r0, [pc, #88]	; 85b0 <ckalloc+0xf0>
    8554:	eb00028a 	bl	8f84 <printk>
    8558:	e28470b8 	add	r7, r4, #184, 0	; 0xb8
    855c:	e1a02005 	mov	r2, r5
    8560:	e1a01007 	mov	r1, r7
    8564:	e59f0048 	ldr	r0, [pc, #72]	; 85b4 <ckalloc+0xf4>
    8568:	eb000285 	bl	8f84 <printk>
    856c:	e3a06000 	mov	r6, #0, 0
    8570:	e1560005 	cmp	r6, r5
    8574:	8a000005 	bhi	8590 <ckalloc+0xd0>
    8578:	e28600b8 	add	r0, r6, #184, 0	; 0xb8
    857c:	e0840000 	add	r0, r4, r0
    8580:	ebffffba 	bl	8470 <shadow_location>
    8584:	e5804000 	str	r4, [r0]
    8588:	e2866004 	add	r6, r6, #4, 0
    858c:	eafffff7 	b	8570 <ckalloc+0xb0>
    8590:	e59f3020 	ldr	r3, [pc, #32]	; 85b8 <ckalloc+0xf8>
    8594:	e5932000 	ldr	r2, [r3]
    8598:	e5842000 	str	r2, [r4]
    859c:	e5834000 	str	r4, [r3]
    85a0:	e1a00007 	mov	r0, r7
    85a4:	e24bd01c 	sub	sp, fp, #28, 0
    85a8:	e89da8f0 	ldm	sp, {r4, r5, r6, r7, fp, sp, pc}
    85ac:	deadbeef 	cdple	14, 10, cr11, cr13, cr15, {7}
    85b0:	0000a5d0 	ldrdeq	sl, [r0], -r0
    85b4:	0000a664 	andeq	sl, r0, r4, ror #12
    85b8:	0000ad70 	andeq	sl, r0, r0, ror sp
    85bc:	665f726b 	ldrbvs	r7, [pc], -fp, ror #4
    85c0:	00656572 	rsbeq	r6, r5, r2, ror r5
    85c4:	ff000008 			; <UNDEFINED> instruction: 0xff000008

000085c8 <kr_free>:
    85c8:	e1a0c00d 	mov	ip, sp
    85cc:	e92dd800 	push	{fp, ip, lr, pc}
    85d0:	e24cb004 	sub	fp, ip, #4, 0
    85d4:	e2401008 	sub	r1, r0, #8, 0
    85d8:	e59f30a8 	ldr	r3, [pc, #168]	; 8688 <kr_free+0xc0>
    85dc:	e5933000 	ldr	r3, [r3]
    85e0:	ea000000 	b	85e8 <kr_free+0x20>
    85e4:	e1a03002 	mov	r3, r2
    85e8:	e1530001 	cmp	r3, r1
    85ec:	2a000002 	bcs	85fc <kr_free+0x34>
    85f0:	e5932000 	ldr	r2, [r3]
    85f4:	e1520001 	cmp	r2, r1
    85f8:	8a000007 	bhi	861c <kr_free+0x54>
    85fc:	e5932000 	ldr	r2, [r3]
    8600:	e1520003 	cmp	r2, r3
    8604:	8afffff6 	bhi	85e4 <kr_free+0x1c>
    8608:	e1530001 	cmp	r3, r1
    860c:	3a000002 	bcc	861c <kr_free+0x54>
    8610:	e1520001 	cmp	r2, r1
    8614:	91a03002 	movls	r3, r2
    8618:	9afffff2 	bls	85e8 <kr_free+0x20>
    861c:	e510c004 	ldr	ip, [r0, #-4]
    8620:	e081e18c 	add	lr, r1, ip, lsl #3
    8624:	e5932000 	ldr	r2, [r3]
    8628:	e15e0002 	cmp	lr, r2
    862c:	0a000008 	beq	8654 <kr_free+0x8c>
    8630:	e5002008 	str	r2, [r0, #-8]
    8634:	e5932004 	ldr	r2, [r3, #4]
    8638:	e083c182 	add	ip, r3, r2, lsl #3
    863c:	e15c0001 	cmp	ip, r1
    8640:	0a00000a 	beq	8670 <kr_free+0xa8>
    8644:	e5831000 	str	r1, [r3]
    8648:	e59f2038 	ldr	r2, [pc, #56]	; 8688 <kr_free+0xc0>
    864c:	e5823000 	str	r3, [r2]
    8650:	e89da800 	ldm	sp, {fp, sp, pc}
    8654:	e5922004 	ldr	r2, [r2, #4]
    8658:	e08cc002 	add	ip, ip, r2
    865c:	e500c004 	str	ip, [r0, #-4]
    8660:	e5932000 	ldr	r2, [r3]
    8664:	e5922000 	ldr	r2, [r2]
    8668:	e5002008 	str	r2, [r0, #-8]
    866c:	eafffff0 	b	8634 <kr_free+0x6c>
    8670:	e5101004 	ldr	r1, [r0, #-4]
    8674:	e0822001 	add	r2, r2, r1
    8678:	e5832004 	str	r2, [r3, #4]
    867c:	e5102008 	ldr	r2, [r0, #-8]
    8680:	e5832000 	str	r2, [r3]
    8684:	eaffffef 	b	8648 <kr_free+0x80>
    8688:	0000ad78 	andeq	sl, r0, r8, ror sp
    868c:	65726f6d 	ldrbvs	r6, [r2, #-3949]!	; 0xfffff093
    8690:	65726f63 	ldrbvs	r6, [r2, #-3939]!	; 0xfffff09d
    8694:	00000000 	andeq	r0, r0, r0
    8698:	ff00000c 			; <UNDEFINED> instruction: 0xff00000c

0000869c <morecore>:
    869c:	e1a0c00d 	mov	ip, sp
    86a0:	e92dd830 	push	{r4, r5, fp, ip, lr, pc}
    86a4:	e24cb004 	sub	fp, ip, #4, 0
    86a8:	e1a04000 	mov	r4, r0
    86ac:	e3500b01 	cmp	r0, #1024	; 0x400
    86b0:	33a04b01 	movcc	r4, #1024	; 0x400
    86b4:	e1a01004 	mov	r1, r4
    86b8:	e59f0030 	ldr	r0, [pc, #48]	; 86f0 <morecore+0x54>
    86bc:	eb000230 	bl	8f84 <printk>
    86c0:	e1a00184 	lsl	r0, r4, #3
    86c4:	eb000161 	bl	8c50 <sbrk>
    86c8:	e3700001 	cmn	r0, #1, 0
    86cc:	0a000005 	beq	86e8 <morecore+0x4c>
    86d0:	e5804004 	str	r4, [r0, #4]
    86d4:	e2800008 	add	r0, r0, #8, 0
    86d8:	ebffffba 	bl	85c8 <kr_free>
    86dc:	e59f3010 	ldr	r3, [pc, #16]	; 86f4 <morecore+0x58>
    86e0:	e5930000 	ldr	r0, [r3]
    86e4:	e89da830 	ldm	sp, {r4, r5, fp, sp, pc}
    86e8:	e3a00000 	mov	r0, #0, 0
    86ec:	e89da830 	ldm	sp, {r4, r5, fp, sp, pc}
    86f0:	0000a680 	andeq	sl, r0, r0, lsl #13
    86f4:	0000ad78 	andeq	sl, r0, r8, ror sp
    86f8:	6d5f726b 	lfmvs	f7, 2, [pc, #-428]	; 8554 <ckalloc+0x94>
    86fc:	6f6c6c61 	svcvs	0x006c6c61
    8700:	00000063 	andeq	r0, r0, r3, rrx
    8704:	ff00000c 			; <UNDEFINED> instruction: 0xff00000c

00008708 <kr_malloc>:
    8708:	e1a0c00d 	mov	ip, sp
    870c:	e92dd830 	push	{r4, r5, fp, ip, lr, pc}
    8710:	e24cb004 	sub	fp, ip, #4, 0
    8714:	e2804007 	add	r4, r0, #7, 0
    8718:	e1a041a4 	lsr	r4, r4, #3
    871c:	e2844001 	add	r4, r4, #1, 0
    8720:	e59f3090 	ldr	r3, [pc, #144]	; 87b8 <kr_malloc+0xb0>
    8724:	e5932000 	ldr	r2, [r3]
    8728:	e3520000 	cmp	r2, #0, 0
    872c:	0a000001 	beq	8738 <kr_malloc+0x30>
    8730:	e5920000 	ldr	r0, [r2]
    8734:	ea000013 	b	8788 <kr_malloc+0x80>
    8738:	e2832008 	add	r2, r3, #8, 0
    873c:	e5832000 	str	r2, [r3]
    8740:	e5832008 	str	r2, [r3, #8]
    8744:	e3a01000 	mov	r1, #0, 0
    8748:	e583100c 	str	r1, [r3, #12]
    874c:	eafffff7 	b	8730 <kr_malloc+0x28>
    8750:	0a000007 	beq	8774 <kr_malloc+0x6c>
    8754:	e0433004 	sub	r3, r3, r4
    8758:	e5803004 	str	r3, [r0, #4]
    875c:	e0800183 	add	r0, r0, r3, lsl #3
    8760:	e5804004 	str	r4, [r0, #4]
    8764:	e59f304c 	ldr	r3, [pc, #76]	; 87b8 <kr_malloc+0xb0>
    8768:	e5832000 	str	r2, [r3]
    876c:	e2800008 	add	r0, r0, #8, 0
    8770:	e89da830 	ldm	sp, {r4, r5, fp, sp, pc}
    8774:	e5903000 	ldr	r3, [r0]
    8778:	e5823000 	str	r3, [r2]
    877c:	eafffff8 	b	8764 <kr_malloc+0x5c>
    8780:	e1a02000 	mov	r2, r0
    8784:	e5900000 	ldr	r0, [r0]
    8788:	e5903004 	ldr	r3, [r0, #4]
    878c:	e1530004 	cmp	r3, r4
    8790:	2affffee 	bcs	8750 <kr_malloc+0x48>
    8794:	e59f301c 	ldr	r3, [pc, #28]	; 87b8 <kr_malloc+0xb0>
    8798:	e5933000 	ldr	r3, [r3]
    879c:	e1530000 	cmp	r3, r0
    87a0:	1afffff6 	bne	8780 <kr_malloc+0x78>
    87a4:	e3a00902 	mov	r0, #32768	; 0x8000
    87a8:	ebffffbb 	bl	869c <morecore>
    87ac:	e3500000 	cmp	r0, #0, 0
    87b0:	1afffff2 	bne	8780 <kr_malloc+0x78>
    87b4:	e89da830 	ldm	sp, {r4, r5, fp, sp, pc}
    87b8:	0000ad78 	andeq	sl, r0, r8, ror sp
    87bc:	685f6e69 	ldmdavs	pc, {r0, r3, r5, r6, r9, sl, fp, sp, lr}^	; <UNPREDICTABLE>
    87c0:	00706165 	rsbseq	r6, r0, r5, ror #2
    87c4:	ff000008 			; <UNDEFINED> instruction: 0xff000008

000087c8 <in_heap>:
    87c8:	e1a0c00d 	mov	ip, sp
    87cc:	e92dd800 	push	{fp, ip, lr, pc}
    87d0:	e24cb004 	sub	fp, ip, #4, 0
    87d4:	e59f3030 	ldr	r3, [pc, #48]	; 880c <in_heap+0x44>
    87d8:	e5933000 	ldr	r3, [r3]
    87dc:	e1530000 	cmp	r3, r0
    87e0:	8a000005 	bhi	87fc <in_heap+0x34>
    87e4:	e59f3020 	ldr	r3, [pc, #32]	; 880c <in_heap+0x44>
    87e8:	e5933004 	ldr	r3, [r3, #4]
    87ec:	e1530000 	cmp	r3, r0
    87f0:	9a000003 	bls	8804 <in_heap+0x3c>
    87f4:	e3a00001 	mov	r0, #1, 0
    87f8:	e89da800 	ldm	sp, {fp, sp, pc}
    87fc:	e3a00000 	mov	r0, #0, 0
    8800:	e89da800 	ldm	sp, {fp, sp, pc}
    8804:	e3a00000 	mov	r0, #0, 0
    8808:	e89da800 	ldm	sp, {fp, sp, pc}
    880c:	0000ad88 	andeq	sl, r0, r8, lsl #27
    8810:	705f7369 	subsvc	r7, pc, r9, ror #6
    8814:	00007274 	andeq	r7, r0, r4, ror r2
    8818:	ff000008 			; <UNDEFINED> instruction: 0xff000008

0000881c <is_ptr>:
    881c:	e1a0c00d 	mov	ip, sp
    8820:	e92dd830 	push	{r4, r5, fp, ip, lr, pc}
    8824:	e24cb004 	sub	fp, ip, #4, 0
    8828:	e1a04000 	mov	r4, r0
    882c:	ebffffe5 	bl	87c8 <in_heap>
    8830:	e3500000 	cmp	r0, #0, 0
    8834:	0a000002 	beq	8844 <is_ptr+0x28>
    8838:	e1a00004 	mov	r0, r4
    883c:	ebfffe94 	bl	8294 <ck_ptr_is_alloced>
    8840:	e89da830 	ldm	sp, {r4, r5, fp, sp, pc}
    8844:	e3a00000 	mov	r0, #0, 0
    8848:	e89da830 	ldm	sp, {r4, r5, fp, sp, pc}
    884c:	6b72616d 	blvs	1ca0e08 <__bss_end__+0x1c95c68>
    8850:	00000000 	andeq	r0, r0, r0
    8854:	ff000008 			; <UNDEFINED> instruction: 0xff000008

00008858 <mark>:
    8858:	e1a0c00d 	mov	ip, sp
    885c:	e92dd830 	push	{r4, r5, fp, ip, lr, pc}
    8860:	e24cb004 	sub	fp, ip, #4, 0
    8864:	e24dd008 	sub	sp, sp, #8, 0
    8868:	e1500001 	cmp	r0, r1
    886c:	2a00000d 	bcs	88a8 <mark+0x50>
    8870:	e1a04000 	mov	r4, r0
    8874:	e1a05001 	mov	r5, r1
    8878:	e3100003 	tst	r0, #3, 0
    887c:	1a000011 	bne	88c8 <mark+0x70>
    8880:	e3110003 	tst	r1, #3, 0
    8884:	0a00001c 	beq	88fc <mark+0xa4>
    8888:	e59f30c8 	ldr	r3, [pc, #200]	; 8958 <mark+0x100>
    888c:	e58d3000 	str	r3, [sp]
    8890:	e3a03056 	mov	r3, #86, 0	; 0x56
    8894:	e59f20c0 	ldr	r2, [pc, #192]	; 895c <mark+0x104>
    8898:	e59f10c0 	ldr	r1, [pc, #192]	; 8960 <mark+0x108>
    889c:	e59f00c0 	ldr	r0, [pc, #192]	; 8964 <mark+0x10c>
    88a0:	eb0001b7 	bl	8f84 <printk>
    88a4:	eb000447 	bl	99c8 <clean_reboot>
    88a8:	e59f30b8 	ldr	r3, [pc, #184]	; 8968 <mark+0x110>
    88ac:	e58d3000 	str	r3, [sp]
    88b0:	e3a03052 	mov	r3, #82, 0	; 0x52
    88b4:	e59f20a0 	ldr	r2, [pc, #160]	; 895c <mark+0x104>
    88b8:	e59f10a0 	ldr	r1, [pc, #160]	; 8960 <mark+0x108>
    88bc:	e59f00a0 	ldr	r0, [pc, #160]	; 8964 <mark+0x10c>
    88c0:	eb0001af 	bl	8f84 <printk>
    88c4:	eb00043f 	bl	99c8 <clean_reboot>
    88c8:	e59f309c 	ldr	r3, [pc, #156]	; 896c <mark+0x114>
    88cc:	e58d3000 	str	r3, [sp]
    88d0:	e3a03055 	mov	r3, #85, 0	; 0x55
    88d4:	e59f2080 	ldr	r2, [pc, #128]	; 895c <mark+0x104>
    88d8:	e59f1080 	ldr	r1, [pc, #128]	; 8960 <mark+0x108>
    88dc:	e59f0080 	ldr	r0, [pc, #128]	; 8964 <mark+0x10c>
    88e0:	eb0001a7 	bl	8f84 <printk>
    88e4:	eb000437 	bl	99c8 <clean_reboot>
    88e8:	e3a01002 	mov	r1, #2, 0
    88ec:	e1c013b4 	strh	r1, [r0, #52]	; 0x34
    88f0:	e3520000 	cmp	r2, #0, 0
    88f4:	0a00000f 	beq	8938 <mark+0xe0>
    88f8:	e2844004 	add	r4, r4, #4, 0
    88fc:	e1540005 	cmp	r4, r5
    8900:	8a000012 	bhi	8950 <mark+0xf8>
    8904:	e5940000 	ldr	r0, [r4]
    8908:	ebffffc3 	bl	881c <is_ptr>
    890c:	e3500000 	cmp	r0, #0, 0
    8910:	0afffff8 	beq	88f8 <mark+0xa0>
    8914:	e28010b8 	add	r1, r0, #184, 0	; 0xb8
    8918:	e1d023b4 	ldrh	r2, [r0, #52]	; 0x34
    891c:	e3520001 	cmp	r2, #1, 0
    8920:	8afffff4 	bhi	88f8 <mark+0xa0>
    8924:	e5943000 	ldr	r3, [r4]
    8928:	e1530001 	cmp	r3, r1
    892c:	0affffed 	beq	88e8 <mark+0x90>
    8930:	e3a01001 	mov	r1, #1, 0
    8934:	eaffffec 	b	88ec <mark+0x94>
    8938:	e5901008 	ldr	r1, [r0, #8]
    893c:	e28110b8 	add	r1, r1, #184, 0	; 0xb8
    8940:	e0801001 	add	r1, r0, r1
    8944:	e2800004 	add	r0, r0, #4, 0
    8948:	ebffffc2 	bl	8858 <mark>
    894c:	eaffffe9 	b	88f8 <mark+0xa0>
    8950:	e24bd014 	sub	sp, fp, #20, 0
    8954:	e89da830 	ldm	sp, {r4, r5, fp, sp, pc}
    8958:	0000a6c4 	andeq	sl, r0, r4, asr #13
    895c:	0000a970 	andeq	sl, r0, r0, ror r9
    8960:	0000a6a4 	andeq	sl, r0, r4, lsr #13
    8964:	0000a530 	andeq	sl, r0, r0, lsr r5
    8968:	0000a6ac 	andeq	sl, r0, ip, lsr #13
    896c:	0000a6b4 			; <UNDEFINED> instruction: 0x0000a6b4
    8970:	6b72616d 	blvs	1ca0f2c <__bss_end__+0x1c95d8c>
    8974:	6c6c615f 	stfvse	f6, [ip], #-380	; 0xfffffe84
    8978:	00000000 	andeq	r0, r0, r0
    897c:	ff00000c 			; <UNDEFINED> instruction: 0xff00000c

00008980 <mark_all>:
    8980:	e1a0c00d 	mov	ip, sp
    8984:	e92dd800 	push	{fp, ip, lr, pc}
    8988:	e24cb004 	sub	fp, ip, #4, 0
    898c:	e24dd040 	sub	sp, sp, #64, 0	; 0x40
    8990:	ebfffdfe 	bl	8190 <ck_first_hdr>
    8994:	e3500000 	cmp	r0, #0, 0
    8998:	0a000005 	beq	89b4 <mark_all+0x34>
    899c:	e3a03000 	mov	r3, #0, 0
    89a0:	e5803030 	str	r3, [r0, #48]	; 0x30
    89a4:	e580302c 	str	r3, [r0, #44]	; 0x2c
    89a8:	e1c033b4 	strh	r3, [r0, #52]	; 0x34
    89ac:	ebfffe02 	bl	81bc <ck_next_hdr>
    89b0:	eafffff7 	b	8994 <mark_all+0x14>
    89b4:	e24b004c 	sub	r0, fp, #76, 0	; 0x4c
    89b8:	eb000129 	bl	8e64 <dump_regs>
    89bc:	e3a03000 	mov	r3, #0, 0
    89c0:	e50b304c 	str	r3, [fp, #-76]	; 0xffffffb4
    89c4:	e50b3048 	str	r3, [fp, #-72]	; 0xffffffb8
    89c8:	e50b3044 	str	r3, [fp, #-68]	; 0xffffffbc
    89cc:	e50b3040 	str	r3, [fp, #-64]	; 0xffffffc0
    89d0:	e24b1014 	sub	r1, fp, #20, 0
    89d4:	e24b004c 	sub	r0, fp, #76, 0	; 0x4c
    89d8:	ebffff9e 	bl	8858 <mark>
    89dc:	e3a02302 	mov	r2, #134217728	; 0x8000000
    89e0:	e51b1018 	ldr	r1, [fp, #-24]	; 0xffffffe8
    89e4:	e59f002c 	ldr	r0, [pc, #44]	; 8a18 <mark_all+0x98>
    89e8:	eb000165 	bl	8f84 <printk>
    89ec:	e3a01302 	mov	r1, #134217728	; 0x8000000
    89f0:	e51b0018 	ldr	r0, [fp, #-24]	; 0xffffffe8
    89f4:	ebffff97 	bl	8858 <mark>
    89f8:	e59f101c 	ldr	r1, [pc, #28]	; 8a1c <mark_all+0x9c>
    89fc:	e59f001c 	ldr	r0, [pc, #28]	; 8a20 <mark_all+0xa0>
    8a00:	ebffff94 	bl	8858 <mark>
    8a04:	e59f1018 	ldr	r1, [pc, #24]	; 8a24 <mark_all+0xa4>
    8a08:	e59f0018 	ldr	r0, [pc, #24]	; 8a28 <mark_all+0xa8>
    8a0c:	ebffff91 	bl	8858 <mark>
    8a10:	e24bd00c 	sub	sp, fp, #12, 0
    8a14:	e89da800 	ldm	sp, {fp, sp, pc}
    8a18:	0000a6d4 	ldrdeq	sl, [r0], -r4
    8a1c:	0000b1a0 	andeq	fp, r0, r0, lsr #3
    8a20:	0000ad70 	andeq	sl, r0, r0, ror sp
    8a24:	0000ad70 	andeq	sl, r0, r0, ror sp
    8a28:	0000ad5c 	andeq	sl, r0, ip, asr sp
    8a2c:	65657773 	strbvs	r7, [r5, #-1907]!	; 0xfffff88d
    8a30:	656c5f70 	strbvs	r5, [ip, #-3952]!	; 0xfffff090
    8a34:	00006b61 	andeq	r6, r0, r1, ror #22
    8a38:	ff00000c 			; <UNDEFINED> instruction: 0xff00000c

00008a3c <sweep_leak>:
    8a3c:	e1a0c00d 	mov	ip, sp
    8a40:	e92ddbf0 	push	{r4, r5, r6, r7, r8, r9, fp, ip, lr, pc}
    8a44:	e24cb004 	sub	fp, ip, #4, 0
    8a48:	e1a07000 	mov	r7, r0
    8a4c:	e59f00d0 	ldr	r0, [pc, #208]	; 8b24 <sweep_leak+0xe8>
    8a50:	eb00014b 	bl	8f84 <printk>
    8a54:	e59f00cc 	ldr	r0, [pc, #204]	; 8b28 <sweep_leak+0xec>
    8a58:	eb000149 	bl	8f84 <printk>
    8a5c:	ebffffc7 	bl	8980 <mark_all>
    8a60:	ebfffdca 	bl	8190 <ck_first_hdr>
    8a64:	e1a04000 	mov	r4, r0
    8a68:	e3a08000 	mov	r8, #0, 0
    8a6c:	e1a06008 	mov	r6, r8
    8a70:	e1a05008 	mov	r5, r8
    8a74:	ea000007 	b	8a98 <sweep_leak+0x5c>
    8a78:	e2866001 	add	r6, r6, #1, 0
    8a7c:	e1a02004 	mov	r2, r4
    8a80:	e1a01005 	mov	r1, r5
    8a84:	e59f00a0 	ldr	r0, [pc, #160]	; 8b2c <sweep_leak+0xf0>
    8a88:	eb00013d 	bl	8f84 <printk>
    8a8c:	e1a00004 	mov	r0, r4
    8a90:	ebfffdc9 	bl	81bc <ck_next_hdr>
    8a94:	e1a04000 	mov	r4, r0
    8a98:	e3540000 	cmp	r4, #0, 0
    8a9c:	0a00000e 	beq	8adc <sweep_leak+0xa0>
    8aa0:	e594300c 	ldr	r3, [r4, #12]
    8aa4:	e353000b 	cmp	r3, #11, 0
    8aa8:	1afffff7 	bne	8a8c <sweep_leak+0x50>
    8aac:	e2855001 	add	r5, r5, #1, 0
    8ab0:	e1d433b4 	ldrh	r3, [r4, #52]	; 0x34
    8ab4:	e3530000 	cmp	r3, #0, 0
    8ab8:	0affffee 	beq	8a78 <sweep_leak+0x3c>
    8abc:	e3530001 	cmp	r3, #1, 0
    8ac0:	1afffff1 	bne	8a8c <sweep_leak+0x50>
    8ac4:	e2888001 	add	r8, r8, #1, 0
    8ac8:	e1a02004 	mov	r2, r4
    8acc:	e1a01005 	mov	r1, r5
    8ad0:	e59f0058 	ldr	r0, [pc, #88]	; 8b30 <sweep_leak+0xf4>
    8ad4:	eb00012a 	bl	8f84 <printk>
    8ad8:	eaffffeb 	b	8a8c <sweep_leak+0x50>
    8adc:	e1a01005 	mov	r1, r5
    8ae0:	e59f004c 	ldr	r0, [pc, #76]	; 8b34 <sweep_leak+0xf8>
    8ae4:	eb000126 	bl	8f84 <printk>
    8ae8:	e1963008 	orrs	r3, r6, r8
    8aec:	1a000007 	bne	8b10 <sweep_leak+0xd4>
    8af0:	e59f0040 	ldr	r0, [pc, #64]	; 8b38 <sweep_leak+0xfc>
    8af4:	eb000122 	bl	8f84 <printk>
    8af8:	e59f003c 	ldr	r0, [pc, #60]	; 8b3c <sweep_leak+0x100>
    8afc:	eb000120 	bl	8f84 <printk>
    8b00:	e3570000 	cmp	r7, #0, 0
    8b04:	10866008 	addne	r6, r6, r8
    8b08:	e1a00006 	mov	r0, r6
    8b0c:	e89dabf0 	ldm	sp, {r4, r5, r6, r7, r8, r9, fp, sp, pc}
    8b10:	e1a02008 	mov	r2, r8
    8b14:	e1a01006 	mov	r1, r6
    8b18:	e59f0020 	ldr	r0, [pc, #32]	; 8b40 <sweep_leak+0x104>
    8b1c:	eb000118 	bl	8f84 <printk>
    8b20:	eafffff4 	b	8af8 <sweep_leak+0xbc>
    8b24:	0000a6f0 	strdeq	sl, [r0], -r0
    8b28:	0000a72c 	andeq	sl, r0, ip, lsr #14
    8b2c:	0000a744 	andeq	sl, r0, r4, asr #14
    8b30:	0000a758 	andeq	sl, r0, r8, asr r7
    8b34:	0000a770 	andeq	sl, r0, r0, ror r7
    8b38:	0000a790 	muleq	r0, r0, r7
    8b3c:	0000a7e8 	andeq	sl, r0, r8, ror #15
    8b40:	0000a7b8 			; <UNDEFINED> instruction: 0x0000a7b8
    8b44:	65657773 	strbvs	r7, [r5, #-1907]!	; 0xfffff88d
    8b48:	72665f70 	rsbvc	r5, r6, #112, 30	; 0x1c0
    8b4c:	00006565 	andeq	r6, r0, r5, ror #10
    8b50:	ff00000c 			; <UNDEFINED> instruction: 0xff00000c

00008b54 <sweep_free>:
    8b54:	e1a0c00d 	mov	ip, sp
    8b58:	e92dd9f0 	push	{r4, r5, r6, r7, r8, fp, ip, lr, pc}
    8b5c:	e24cb004 	sub	fp, ip, #4, 0
    8b60:	e24dd014 	sub	sp, sp, #20, 0
    8b64:	e59f00bc 	ldr	r0, [pc, #188]	; 8c28 <sweep_free+0xd4>
    8b68:	eb000105 	bl	8f84 <printk>
    8b6c:	e59f00b8 	ldr	r0, [pc, #184]	; 8c2c <sweep_free+0xd8>
    8b70:	eb000103 	bl	8f84 <printk>
    8b74:	ebffff81 	bl	8980 <mark_all>
    8b78:	ebfffd84 	bl	8190 <ck_first_hdr>
    8b7c:	e1a04000 	mov	r4, r0
    8b80:	e3a06000 	mov	r6, #0, 0
    8b84:	e1a07006 	mov	r7, r6
    8b88:	e1a05006 	mov	r5, r6
    8b8c:	ea000013 	b	8be0 <sweep_free+0x8c>
    8b90:	e2877001 	add	r7, r7, #1, 0
    8b94:	e5943008 	ldr	r3, [r4, #8]
    8b98:	e0866003 	add	r6, r6, r3
    8b9c:	e28480b8 	add	r8, r4, #184, 0	; 0xb8
    8ba0:	e59f3088 	ldr	r3, [pc, #136]	; 8c30 <sweep_free+0xdc>
    8ba4:	e50b3030 	str	r3, [fp, #-48]	; 0xffffffd0
    8ba8:	e59f3084 	ldr	r3, [pc, #132]	; 8c34 <sweep_free+0xe0>
    8bac:	e50b302c 	str	r3, [fp, #-44]	; 0xffffffd4
    8bb0:	e59f3080 	ldr	r3, [pc, #128]	; 8c38 <sweep_free+0xe4>
    8bb4:	e50b3028 	str	r3, [fp, #-40]	; 0xffffffd8
    8bb8:	e24b3024 	sub	r3, fp, #36, 0	; 0x24
    8bbc:	e913000e 	ldmdb	r3, {r1, r2, r3}
    8bc0:	e1a00008 	mov	r0, r8
    8bc4:	ebfffdcd 	bl	8300 <ckfree>
    8bc8:	e1a01008 	mov	r1, r8
    8bcc:	e59f0068 	ldr	r0, [pc, #104]	; 8c3c <sweep_free+0xe8>
    8bd0:	eb0000eb 	bl	8f84 <printk>
    8bd4:	e1a00004 	mov	r0, r4
    8bd8:	ebfffd77 	bl	81bc <ck_next_hdr>
    8bdc:	e1a04000 	mov	r4, r0
    8be0:	e3540000 	cmp	r4, #0, 0
    8be4:	0a000007 	beq	8c08 <sweep_free+0xb4>
    8be8:	e2855001 	add	r5, r5, #1, 0
    8bec:	e1d433b4 	ldrh	r3, [r4, #52]	; 0x34
    8bf0:	e3530000 	cmp	r3, #0, 0
    8bf4:	1afffff6 	bne	8bd4 <sweep_free+0x80>
    8bf8:	e594300c 	ldr	r3, [r4, #12]
    8bfc:	e353000b 	cmp	r3, #11, 0
    8c00:	1afffff3 	bne	8bd4 <sweep_free+0x80>
    8c04:	eaffffe1 	b	8b90 <sweep_free+0x3c>
    8c08:	e1a03006 	mov	r3, r6
    8c0c:	e1a02007 	mov	r2, r7
    8c10:	e1a01005 	mov	r1, r5
    8c14:	e59f0024 	ldr	r0, [pc, #36]	; 8c40 <sweep_free+0xec>
    8c18:	eb0000d9 	bl	8f84 <printk>
    8c1c:	e1a00006 	mov	r0, r6
    8c20:	e24bd020 	sub	sp, fp, #32, 0
    8c24:	e89da9f0 	ldm	sp, {r4, r5, r6, r7, r8, fp, sp, pc}
    8c28:	0000a6f0 	strdeq	sl, [r0], -r0
    8c2c:	0000a824 	andeq	sl, r0, r4, lsr #16
    8c30:	0000a6a4 	andeq	sl, r0, r4, lsr #13
    8c34:	0000a978 	andeq	sl, r0, r8, ror r9
    8c38:	00000105 	andeq	r0, r0, r5, lsl #2
    8c3c:	0000a834 	andeq	sl, r0, r4, lsr r8
    8c40:	0000a844 	andeq	sl, r0, r4, asr #16
    8c44:	6b726273 	blvs	1ca1618 <__bss_end__+0x1c96478>
    8c48:	00000000 	andeq	r0, r0, r0
    8c4c:	ff000008 			; <UNDEFINED> instruction: 0xff000008

00008c50 <sbrk>:
    8c50:	e1a0c00d 	mov	ip, sp
    8c54:	e92dd830 	push	{r4, r5, fp, ip, lr, pc}
    8c58:	e24cb004 	sub	fp, ip, #4, 0
    8c5c:	e24dd008 	sub	sp, sp, #8, 0
    8c60:	e2504000 	subs	r4, r0, #0, 0
    8c64:	da000010 	ble	8cac <sbrk+0x5c>
    8c68:	e59f3074 	ldr	r3, [pc, #116]	; 8ce4 <sbrk+0x94>
    8c6c:	e5933008 	ldr	r3, [r3, #8]
    8c70:	e3530000 	cmp	r3, #0, 0
    8c74:	1a000014 	bne	8ccc <sbrk+0x7c>
    8c78:	e59f5064 	ldr	r5, [pc, #100]	; 8ce4 <sbrk+0x94>
    8c7c:	e3a00601 	mov	r0, #1048576	; 0x100000
    8c80:	e5850000 	str	r0, [r5]
    8c84:	e3a03602 	mov	r3, #2097152	; 0x200000
    8c88:	e5853004 	str	r3, [r5, #4]
    8c8c:	e1a01000 	mov	r1, r0
    8c90:	eb000494 	bl	9ee8 <kmalloc_init_set_start>
    8c94:	e3a03001 	mov	r3, #1, 0
    8c98:	e5853008 	str	r3, [r5, #8]
    8c9c:	e1a00004 	mov	r0, r4
    8ca0:	eb0004f3 	bl	a074 <kmalloc>
    8ca4:	e24bd014 	sub	sp, fp, #20, 0
    8ca8:	e89da830 	ldm	sp, {r4, r5, fp, sp, pc}
    8cac:	e59f3034 	ldr	r3, [pc, #52]	; 8ce8 <sbrk+0x98>
    8cb0:	e58d3000 	str	r3, [sp]
    8cb4:	e3a03017 	mov	r3, #23, 0
    8cb8:	e59f202c 	ldr	r2, [pc, #44]	; 8cec <sbrk+0x9c>
    8cbc:	e59f102c 	ldr	r1, [pc, #44]	; 8cf0 <sbrk+0xa0>
    8cc0:	e59f002c 	ldr	r0, [pc, #44]	; 8cf4 <sbrk+0xa4>
    8cc4:	eb0000ae 	bl	8f84 <printk>
    8cc8:	eb00033e 	bl	99c8 <clean_reboot>
    8ccc:	e3a03019 	mov	r3, #25, 0
    8cd0:	e59f2014 	ldr	r2, [pc, #20]	; 8cec <sbrk+0x9c>
    8cd4:	e59f1014 	ldr	r1, [pc, #20]	; 8cf0 <sbrk+0xa0>
    8cd8:	e59f0018 	ldr	r0, [pc, #24]	; 8cf8 <sbrk+0xa8>
    8cdc:	eb0000a8 	bl	8f84 <printk>
    8ce0:	eb000338 	bl	99c8 <clean_reboot>
    8ce4:	0000ad88 	andeq	sl, r0, r8, lsl #27
    8ce8:	0000a878 	andeq	sl, r0, r8, ror r8
    8cec:	0000a984 	andeq	sl, r0, r4, lsl #19
    8cf0:	0000a6a4 	andeq	sl, r0, r4, lsr #13
    8cf4:	0000a530 	andeq	sl, r0, r0, lsr r5
    8cf8:	0000a888 	andeq	sl, r0, r8, lsl #17
    8cfc:	665f6b63 	ldrbvs	r6, [pc], -r3, ror #22
    8d00:	5f646e69 	svcpl	0x00646e69
    8d04:	6b61656c 	blvs	18622bc <__bss_end__+0x185711c>
    8d08:	00000073 	andeq	r0, r0, r3, ror r0
    8d0c:	ff000010 			; <UNDEFINED> instruction: 0xff000010

00008d10 <ck_find_leaks>:
    8d10:	e1a0c00d 	mov	ip, sp
    8d14:	e92dd800 	push	{fp, ip, lr, pc}
    8d18:	e24cb004 	sub	fp, ip, #4, 0
    8d1c:	ebffff46 	bl	8a3c <sweep_leak>
    8d20:	e89da800 	ldm	sp, {fp, sp, pc}
    8d24:	63656863 	cmnvs	r5, #6488064	; 0x630000
    8d28:	6f6e5f6b 	svcvs	0x006e5f6b
    8d2c:	61656c5f 	cmnvs	r5, pc, asr ip
    8d30:	0000006b 	andeq	r0, r0, fp, rrx
    8d34:	ff000010 			; <UNDEFINED> instruction: 0xff000010

00008d38 <check_no_leak>:
    8d38:	e1a0c00d 	mov	ip, sp
    8d3c:	e92dd800 	push	{fp, ip, lr, pc}
    8d40:	e24cb004 	sub	fp, ip, #4, 0
    8d44:	e3a00001 	mov	r0, #1, 0
    8d48:	ebfffff0 	bl	8d10 <ck_find_leaks>
    8d4c:	e3500000 	cmp	r0, #0, 0
    8d50:	1a000002 	bne	8d60 <check_no_leak+0x28>
    8d54:	e59f001c 	ldr	r0, [pc, #28]	; 8d78 <check_no_leak+0x40>
    8d58:	eb000089 	bl	8f84 <printk>
    8d5c:	e89da800 	ldm	sp, {fp, sp, pc}
    8d60:	e3a030e0 	mov	r3, #224, 0	; 0xe0
    8d64:	e59f2010 	ldr	r2, [pc, #16]	; 8d7c <check_no_leak+0x44>
    8d68:	e59f1010 	ldr	r1, [pc, #16]	; 8d80 <check_no_leak+0x48>
    8d6c:	e59f0010 	ldr	r0, [pc, #16]	; 8d84 <check_no_leak+0x4c>
    8d70:	eb000083 	bl	8f84 <printk>
    8d74:	eb000313 	bl	99c8 <clean_reboot>
    8d78:	0000a8d4 	ldrdeq	sl, [r0], -r4
    8d7c:	0000a98c 	andeq	sl, r0, ip, lsl #19
    8d80:	0000a6a4 	andeq	sl, r0, r4, lsr #13
    8d84:	0000a8a8 	andeq	sl, r0, r8, lsr #17
    8d88:	63656863 	cmnvs	r5, #6488064	; 0x630000
    8d8c:	68735f6b 	ldmdavs	r3!, {r0, r1, r3, r5, r6, r8, r9, sl, fp, ip, lr}^
    8d90:	646c756f 	strbtvs	r7, [ip], #-1391	; 0xfffffa91
    8d94:	61656c5f 	cmnvs	r5, pc, asr ip
    8d98:	0000006b 	andeq	r0, r0, fp, rrx
    8d9c:	ff000014 			; <UNDEFINED> instruction: 0xff000014

00008da0 <check_should_leak>:
    8da0:	e1a0c00d 	mov	ip, sp
    8da4:	e92dd830 	push	{r4, r5, fp, ip, lr, pc}
    8da8:	e24cb004 	sub	fp, ip, #4, 0
    8dac:	e3a00001 	mov	r0, #1, 0
    8db0:	ebffffd6 	bl	8d10 <ck_find_leaks>
    8db4:	e2504000 	subs	r4, r0, #0, 0
    8db8:	0a000004 	beq	8dd0 <check_should_leak+0x30>
    8dbc:	e1a01004 	mov	r1, r4
    8dc0:	e59f0020 	ldr	r0, [pc, #32]	; 8de8 <check_should_leak+0x48>
    8dc4:	eb00006e 	bl	8f84 <printk>
    8dc8:	e1a00004 	mov	r0, r4
    8dcc:	e89da830 	ldm	sp, {r4, r5, fp, sp, pc}
    8dd0:	e3a030ef 	mov	r3, #239, 0	; 0xef
    8dd4:	e59f2010 	ldr	r2, [pc, #16]	; 8dec <check_should_leak+0x4c>
    8dd8:	e59f1010 	ldr	r1, [pc, #16]	; 8df0 <check_should_leak+0x50>
    8ddc:	e59f0010 	ldr	r0, [pc, #16]	; 8df4 <check_should_leak+0x54>
    8de0:	eb000067 	bl	8f84 <printk>
    8de4:	eb0002f7 	bl	99c8 <clean_reboot>
    8de8:	0000a91c 	andeq	sl, r0, ip, lsl r9
    8dec:	0000a99c 	muleq	r0, ip, r9
    8df0:	0000a6a4 	andeq	sl, r0, r4, lsr #13
    8df4:	0000a8f4 	strdeq	sl, [r0], -r4
    8df8:	675f6b63 	ldrbvs	r6, [pc, -r3, ror #22]
    8dfc:	00000063 	andeq	r0, r0, r3, rrx
    8e00:	ff000008 			; <UNDEFINED> instruction: 0xff000008

00008e04 <ck_gc>:
    8e04:	e1a0c00d 	mov	ip, sp
    8e08:	e92dd800 	push	{fp, ip, lr, pc}
    8e0c:	e24cb004 	sub	fp, ip, #4, 0
    8e10:	ebfffeda 	bl	8980 <mark_all>
    8e14:	ebffff4e 	bl	8b54 <sweep_free>
    8e18:	e89da800 	ldm	sp, {fp, sp, pc}
    8e1c:	6c706d69 	ldclvs	13, cr6, [r0], #-420	; 0xfffffe5c
    8e20:	6e656d65 	cdpvs	13, 6, cr6, cr5, cr5, {3}
    8e24:	68745f74 	ldmdavs	r4!, {r2, r4, r5, r6, r8, r9, sl, fp, ip, lr}^
    8e28:	00007369 	andeq	r7, r0, r9, ror #6
    8e2c:	ff000010 			; <UNDEFINED> instruction: 0xff000010

00008e30 <implement_this>:
    8e30:	e1a0c00d 	mov	ip, sp
    8e34:	e92dd800 	push	{fp, ip, lr, pc}
    8e38:	e24cb004 	sub	fp, ip, #4, 0
    8e3c:	e59f3010 	ldr	r3, [pc, #16]	; 8e54 <implement_this+0x24>
    8e40:	e59f2010 	ldr	r2, [pc, #16]	; 8e58 <implement_this+0x28>
    8e44:	e59f1010 	ldr	r1, [pc, #16]	; 8e5c <implement_this+0x2c>
    8e48:	e59f0010 	ldr	r0, [pc, #16]	; 8e60 <implement_this+0x30>
    8e4c:	eb00004c 	bl	8f84 <printk>
    8e50:	eb0002dc 	bl	99c8 <clean_reboot>
    8e54:	0000011b 	andeq	r0, r0, fp, lsl r1
    8e58:	0000a9b0 			; <UNDEFINED> instruction: 0x0000a9b0
    8e5c:	0000a6a4 	andeq	sl, r0, r4, lsr #13
    8e60:	0000a940 	andeq	sl, r0, r0, asr #18

00008e64 <dump_regs>:
    8e64:	e8a0ffff 	stmia	r0!, {r0, r1, r2, r3, r4, r5, r6, r7, r8, r9, sl, fp, ip, sp, lr, pc}
    8e68:	e12fff1e 	bx	lr

00008e6c <backtrace>:
    8e6c:	e92d41f0 	push	{r4, r5, r6, r7, r8, lr}
    8e70:	e1a0400b 	mov	r4, fp
    8e74:	e3540000 	cmp	r4, #0, 0
    8e78:	0a000016 	beq	8ed8 <backtrace+0x6c>
    8e7c:	e3a07000 	mov	r7, #0, 0
    8e80:	e59f605c 	ldr	r6, [pc, #92]	; 8ee4 <backtrace+0x78>
    8e84:	e59f505c 	ldr	r5, [pc, #92]	; 8ee8 <backtrace+0x7c>
    8e88:	ea000002 	b	8e98 <backtrace+0x2c>
    8e8c:	e2877001 	add	r7, r7, #1, 0
    8e90:	e3570020 	cmp	r7, #32, 0
    8e94:	0a00000f 	beq	8ed8 <backtrace+0x6c>
    8e98:	e5940000 	ldr	r0, [r4]
    8e9c:	e1a01007 	mov	r1, r7
    8ea0:	e5103010 	ldr	r3, [r0, #-16]
    8ea4:	e240200c 	sub	r2, r0, #12, 0
    8ea8:	e31304ff 	tst	r3, #-16777216	; 0xff000000
    8eac:	e2400010 	sub	r0, r0, #16, 0
    8eb0:	e3c334ff 	bic	r3, r3, #-16777216	; 0xff000000
    8eb4:	10403003 	subne	r3, r0, r3
    8eb8:	01a03006 	moveq	r3, r6
    8ebc:	e1a00005 	mov	r0, r5
    8ec0:	eb00002f 	bl	8f84 <printk>
    8ec4:	e514400c 	ldr	r4, [r4, #-12]
    8ec8:	e3540000 	cmp	r4, #0, 0
    8ecc:	1affffee 	bne	8e8c <backtrace+0x20>
    8ed0:	e1a00007 	mov	r0, r7
    8ed4:	e8bd81f0 	pop	{r4, r5, r6, r7, r8, pc}
    8ed8:	e3e07000 	mvn	r7, #0, 0
    8edc:	e1a00007 	mov	r0, r7
    8ee0:	e8bd81f0 	pop	{r4, r5, r6, r7, r8, pc}
    8ee4:	0000a9c0 	andeq	sl, r0, r0, asr #19
    8ee8:	0000a9c4 	andeq	sl, r0, r4, asr #19

00008eec <name_of>:
    8eec:	e5103004 	ldr	r3, [r0, #-4]
    8ef0:	e2400004 	sub	r0, r0, #4, 0
    8ef4:	e31304ff 	tst	r3, #-16777216	; 0xff000000
    8ef8:	13c334ff 	bicne	r3, r3, #-16777216	; 0xff000000
    8efc:	10400003 	subne	r0, r0, r3
    8f00:	059f0000 	ldreq	r0, [pc]	; 8f08 <name_of+0x1c>
    8f04:	e12fff1e 	bx	lr
    8f08:	0000a9c0 	andeq	sl, r0, r0, asr #19

00008f0c <memset>:
    8f0c:	e92d4010 	push	{r4, lr}
    8f10:	e0804002 	add	r4, r0, r2
    8f14:	e1500004 	cmp	r0, r4
    8f18:	28bd8010 	popcs	{r4, pc}
    8f1c:	e2423001 	sub	r3, r2, #1, 0
    8f20:	e3530002 	cmp	r3, #2, 0
    8f24:	e6ef1071 	uxtb	r1, r1
    8f28:	e1a03000 	mov	r3, r0
    8f2c:	9a00000b 	bls	8f60 <memset+0x54>
    8f30:	e181e401 	orr	lr, r1, r1, lsl #8
    8f34:	e18ee801 	orr	lr, lr, r1, lsl #16
    8f38:	e3c2c003 	bic	ip, r2, #3, 0
    8f3c:	e18eec01 	orr	lr, lr, r1, lsl #24
    8f40:	e08cc000 	add	ip, ip, r0
    8f44:	e483e004 	str	lr, [r3], #4
    8f48:	e153000c 	cmp	r3, ip
    8f4c:	1afffffc 	bne	8f44 <memset+0x38>
    8f50:	e3c23003 	bic	r3, r2, #3, 0
    8f54:	e1520003 	cmp	r2, r3
    8f58:	e0803003 	add	r3, r0, r3
    8f5c:	08bd8010 	popeq	{r4, pc}
    8f60:	e1a02003 	mov	r2, r3
    8f64:	e4c21001 	strb	r1, [r2], #1
    8f68:	e1540002 	cmp	r4, r2
    8f6c:	98bd8010 	popls	{r4, pc}
    8f70:	e2832002 	add	r2, r3, #2, 0
    8f74:	e1540002 	cmp	r4, r2
    8f78:	e5c31001 	strb	r1, [r3, #1]
    8f7c:	85c31002 	strbhi	r1, [r3, #2]
    8f80:	e8bd8010 	pop	{r4, pc}

00008f84 <printk>:
    8f84:	e92d000f 	push	{r0, r1, r2, r3}
    8f88:	e92d4030 	push	{r4, r5, lr}
    8f8c:	e59f5040 	ldr	r5, [pc, #64]	; 8fd4 <printk+0x50>
    8f90:	e24dd00c 	sub	sp, sp, #12, 0
    8f94:	e28d301c 	add	r3, sp, #28, 0
    8f98:	e3a01b01 	mov	r1, #1024	; 0x400
    8f9c:	e59d2018 	ldr	r2, [sp, #24]
    8fa0:	e1a00005 	mov	r0, r5
    8fa4:	e58d3004 	str	r3, [sp, #4]
    8fa8:	eb0000fb 	bl	939c <va_printk>
    8fac:	e1a04000 	mov	r4, r0
    8fb0:	e59f3020 	ldr	r3, [pc, #32]	; 8fd8 <printk+0x54>
    8fb4:	e1a00005 	mov	r0, r5
    8fb8:	e5933000 	ldr	r3, [r3]
    8fbc:	e12fff33 	blx	r3
    8fc0:	e1a00004 	mov	r0, r4
    8fc4:	e28dd00c 	add	sp, sp, #12, 0
    8fc8:	e8bd4030 	pop	{r4, r5, lr}
    8fcc:	e28dd010 	add	sp, sp, #16, 0
    8fd0:	e12fff1e 	bx	lr
    8fd4:	0000ad94 	muleq	r0, r4, sp
    8fd8:	0000ad5c 	andeq	sl, r0, ip, asr sp

00008fdc <internal_putk>:
    8fdc:	e92d4070 	push	{r4, r5, r6, lr}
    8fe0:	e1a04000 	mov	r4, r0
    8fe4:	e5d00000 	ldrb	r0, [r0]
    8fe8:	e3500000 	cmp	r0, #0, 0
    8fec:	0a000005 	beq	9008 <internal_putk+0x2c>
    8ff0:	e59f5018 	ldr	r5, [pc, #24]	; 9010 <internal_putk+0x34>
    8ff4:	e5953000 	ldr	r3, [r5]
    8ff8:	e12fff33 	blx	r3
    8ffc:	e5f40001 	ldrb	r0, [r4, #1]!
    9000:	e3500000 	cmp	r0, #0, 0
    9004:	1afffffa 	bne	8ff4 <internal_putk+0x18>
    9008:	e3a00001 	mov	r0, #1, 0
    900c:	e8bd8070 	pop	{r4, r5, r6, pc}
    9010:	0000ad6c 	andeq	sl, r0, ip, ror #26

00009014 <emit.constprop.0>:
    9014:	e92d41f0 	push	{r4, r5, r6, r7, r8, lr}
    9018:	e3530080 	cmp	r3, #128, 0	; 0x80
    901c:	e1a0c000 	mov	ip, r0
    9020:	e24dd048 	sub	sp, sp, #72, 0	; 0x48
    9024:	e1a00001 	mov	r0, r1
    9028:	ca000069 	bgt	91d4 <emit.constprop.0+0x1c0>
    902c:	e24c1002 	sub	r1, ip, #2, 0
    9030:	e1a0c002 	mov	ip, r2
    9034:	e351000e 	cmp	r1, #14, 0
    9038:	979ff101 	ldrls	pc, [pc, r1, lsl #2]
    903c:	ea0000a7 	b	92e0 <emit.constprop.0+0x2cc>
    9040:	000091ac 	andeq	r9, r0, ip, lsr #3
    9044:	000092e0 	andeq	r9, r0, r0, ror #5
    9048:	000092e0 	andeq	r9, r0, r0, ror #5
    904c:	000092e0 	andeq	r9, r0, r0, ror #5
    9050:	000092e0 	andeq	r9, r0, r0, ror #5
    9054:	000092e0 	andeq	r9, r0, r0, ror #5
    9058:	00009288 	andeq	r9, r0, r8, lsl #5
    905c:	000092e0 	andeq	r9, r0, r0, ror #5
    9060:	00009228 	andeq	r9, r0, r8, lsr #4
    9064:	000092e0 	andeq	r9, r0, r0, ror #5
    9068:	000092e0 	andeq	r9, r0, r0, ror #5
    906c:	000092e0 	andeq	r9, r0, r0, ror #5
    9070:	000092e0 	andeq	r9, r0, r0, ror #5
    9074:	000092e0 	andeq	r9, r0, r0, ror #5
    9078:	00009080 	andeq	r9, r0, r0, lsl #1
    907c:	e3a0307f 	mov	r3, #127, 0	; 0x7f
    9080:	e28d2008 	add	r2, sp, #8, 0
    9084:	e1a04002 	mov	r4, r2
    9088:	e59f1288 	ldr	r1, [pc, #648]	; 9318 <emit.constprop.0+0x304>
    908c:	e20ce00f 	and	lr, ip, #15, 0
    9090:	e7d1e00e 	ldrb	lr, [r1, lr]
    9094:	e35c000f 	cmp	ip, #15, 0
    9098:	e4c4e001 	strb	lr, [r4], #1
    909c:	e1a0c22c 	lsr	ip, ip, #4
    90a0:	8afffff9 	bhi	908c <emit.constprop.0+0x78>
    90a4:	e3a0c078 	mov	ip, #120, 0	; 0x78
    90a8:	e1a0e004 	mov	lr, r4
    90ac:	e3a01030 	mov	r1, #48, 0	; 0x30
    90b0:	e4cec002 	strb	ip, [lr], #2
    90b4:	e5c41001 	strb	r1, [r4, #1]
    90b8:	e04e1002 	sub	r1, lr, r2
    90bc:	e1510003 	cmp	r1, r3
    90c0:	aa000083 	bge	92d4 <emit.constprop.0+0x2c0>
    90c4:	e1510003 	cmp	r1, r3
    90c8:	a3a0c001 	movge	ip, #1, 0
    90cc:	b3a0c000 	movlt	ip, #0, 0
    90d0:	e2434001 	sub	r4, r3, #1, 0
    90d4:	e0444001 	sub	r4, r4, r1
    90d8:	b0436001 	sublt	r6, r3, r1
    90dc:	a3a06001 	movge	r6, #1, 0
    90e0:	e3540002 	cmp	r4, #2, 0
    90e4:	938cc001 	orrls	ip, ip, #1, 0
    90e8:	e35c0000 	cmp	ip, #0, 0
    90ec:	1a000075 	bne	92c8 <emit.constprop.0+0x2b4>
    90f0:	e1a0c00e 	mov	ip, lr
    90f4:	e3c65003 	bic	r5, r6, #3, 0
    90f8:	e59f721c 	ldr	r7, [pc, #540]	; 931c <emit.constprop.0+0x308>
    90fc:	e085500e 	add	r5, r5, lr
    9100:	e48c7004 	str	r7, [ip], #4
    9104:	e15c0005 	cmp	ip, r5
    9108:	1afffffc 	bne	9100 <emit.constprop.0+0xec>
    910c:	e3c6c003 	bic	ip, r6, #3, 0
    9110:	e156000c 	cmp	r6, ip
    9114:	e08e500c 	add	r5, lr, ip
    9118:	e08cc001 	add	ip, ip, r1
    911c:	0a000008 	beq	9144 <emit.constprop.0+0x130>
    9120:	e3a07020 	mov	r7, #32, 0
    9124:	e28c8001 	add	r8, ip, #1, 0
    9128:	e1580003 	cmp	r8, r3
    912c:	e5c57000 	strb	r7, [r5]
    9130:	aa000003 	bge	9144 <emit.constprop.0+0x130>
    9134:	e28cc002 	add	ip, ip, #2, 0
    9138:	e15c0003 	cmp	ip, r3
    913c:	e5c57001 	strb	r7, [r5, #1]
    9140:	b5c57002 	strblt	r7, [r5, #2]
    9144:	e1510003 	cmp	r1, r3
    9148:	a3a04000 	movge	r4, #0, 0
    914c:	e08e6006 	add	r6, lr, r6
    9150:	e0461002 	sub	r1, r6, r2
    9154:	e08ee004 	add	lr, lr, r4
    9158:	e3a03000 	mov	r3, #0, 0
    915c:	e351007f 	cmp	r1, #127, 0	; 0x7f
    9160:	c241407f 	subgt	r4, r1, #127, 0	; 0x7f
    9164:	c0822004 	addgt	r2, r2, r4
    9168:	e152000e 	cmp	r2, lr
    916c:	e5c63000 	strb	r3, [r6]
    9170:	8a00004f 	bhi	92b4 <emit.constprop.0+0x2a0>
    9174:	e28ee001 	add	lr, lr, #1, 0
    9178:	e1a0300e 	mov	r3, lr
    917c:	e240c001 	sub	ip, r0, #1, 0
    9180:	e5734001 	ldrb	r4, [r3, #-1]!
    9184:	e1530002 	cmp	r3, r2
    9188:	e5ec4001 	strb	r4, [ip, #1]!
    918c:	1afffffb 	bne	9180 <emit.constprop.0+0x16c>
    9190:	e04ee003 	sub	lr, lr, r3
    9194:	e3a03000 	mov	r3, #0, 0
    9198:	e080e00e 	add	lr, r0, lr
    919c:	e5ce3000 	strb	r3, [lr]
    91a0:	e28dd048 	add	sp, sp, #72, 0	; 0x48
    91a4:	e8bd81f0 	pop	{r4, r5, r6, r7, r8, pc}
    91a8:	e3a0307f 	mov	r3, #127, 0	; 0x7f
    91ac:	e28d2008 	add	r2, sp, #8, 0
    91b0:	e1a0e002 	mov	lr, r2
    91b4:	e59f1164 	ldr	r1, [pc, #356]	; 9320 <emit.constprop.0+0x30c>
    91b8:	e20c4001 	and	r4, ip, #1, 0
    91bc:	e7d14004 	ldrb	r4, [r1, r4]
    91c0:	e35c0001 	cmp	ip, #1, 0
    91c4:	e4ce4001 	strb	r4, [lr], #1
    91c8:	e1a0c0ac 	lsr	ip, ip, #1
    91cc:	8afffff9 	bhi	91b8 <emit.constprop.0+0x1a4>
    91d0:	eaffffb8 	b	90b8 <emit.constprop.0+0xa4>
    91d4:	e24c3002 	sub	r3, ip, #2, 0
    91d8:	e1a0c002 	mov	ip, r2
    91dc:	e353000e 	cmp	r3, #14, 0
    91e0:	979ff103 	ldrls	pc, [pc, r3, lsl #2]
    91e4:	ea00003d 	b	92e0 <emit.constprop.0+0x2cc>
    91e8:	000091a8 	andeq	r9, r0, r8, lsr #3
    91ec:	000092e0 	andeq	r9, r0, r0, ror #5
    91f0:	000092e0 	andeq	r9, r0, r0, ror #5
    91f4:	000092e0 	andeq	r9, r0, r0, ror #5
    91f8:	000092e0 	andeq	r9, r0, r0, ror #5
    91fc:	000092e0 	andeq	r9, r0, r0, ror #5
    9200:	00009300 	andeq	r9, r0, r0, lsl #6
    9204:	000092e0 	andeq	r9, r0, r0, ror #5
    9208:	00009224 	andeq	r9, r0, r4, lsr #4
    920c:	000092e0 	andeq	r9, r0, r0, ror #5
    9210:	000092e0 	andeq	r9, r0, r0, ror #5
    9214:	000092e0 	andeq	r9, r0, r0, ror #5
    9218:	000092e0 	andeq	r9, r0, r0, ror #5
    921c:	000092e0 	andeq	r9, r0, r0, ror #5
    9220:	0000907c 	andeq	r9, r0, ip, ror r0
    9224:	e3a0307f 	mov	r3, #127, 0	; 0x7f
    9228:	e59d1060 	ldr	r1, [sp, #96]	; 0x60
    922c:	e59f70f0 	ldr	r7, [pc, #240]	; 9324 <emit.constprop.0+0x310>
    9230:	e0118fa2 	ands	r8, r1, r2, lsr #31
    9234:	1262c000 	rsbne	ip, r2, #0, 0
    9238:	e28d2008 	add	r2, sp, #8, 0
    923c:	13a08001 	movne	r8, #1, 0
    9240:	e1a0e002 	mov	lr, r2
    9244:	e59f60dc 	ldr	r6, [pc, #220]	; 9328 <emit.constprop.0+0x314>
    9248:	e1a0500c 	mov	r5, ip
    924c:	e0814c96 	umull	r4, r1, r6, ip
    9250:	e1a011a1 	lsr	r1, r1, #3
    9254:	e0814101 	add	r4, r1, r1, lsl #2
    9258:	e04cc084 	sub	ip, ip, r4, lsl #1
    925c:	e7d7400c 	ldrb	r4, [r7, ip]
    9260:	e3550009 	cmp	r5, #9, 0
    9264:	e1a0c001 	mov	ip, r1
    9268:	e1a0100e 	mov	r1, lr
    926c:	e4ce4001 	strb	r4, [lr], #1
    9270:	8afffff4 	bhi	9248 <emit.constprop.0+0x234>
    9274:	e3580000 	cmp	r8, #0, 0
    9278:	13a0c02d 	movne	ip, #45, 0	; 0x2d
    927c:	15cec000 	strbne	ip, [lr]
    9280:	1281e002 	addne	lr, r1, #2, 0
    9284:	eaffff8b 	b	90b8 <emit.constprop.0+0xa4>
    9288:	e3530001 	cmp	r3, #1, 0
    928c:	e5cd2008 	strb	r2, [sp, #8]
    9290:	c3a01001 	movgt	r1, #1, 0
    9294:	c28de009 	addgt	lr, sp, #9, 0
    9298:	c28d2008 	addgt	r2, sp, #8, 0
    929c:	caffff88 	bgt	90c4 <emit.constprop.0+0xb0>
    92a0:	e3a03000 	mov	r3, #0, 0
    92a4:	e28de008 	add	lr, sp, #8, 0
    92a8:	e1a0200e 	mov	r2, lr
    92ac:	e5cd3009 	strb	r3, [sp, #9]
    92b0:	eaffffaf 	b	9174 <emit.constprop.0+0x160>
    92b4:	e1a0e000 	mov	lr, r0
    92b8:	e3a03000 	mov	r3, #0, 0
    92bc:	e5ce3000 	strb	r3, [lr]
    92c0:	e28dd048 	add	sp, sp, #72, 0	; 0x48
    92c4:	e8bd81f0 	pop	{r4, r5, r6, r7, r8, pc}
    92c8:	e1a0c001 	mov	ip, r1
    92cc:	e1a0500e 	mov	r5, lr
    92d0:	eaffff92 	b	9120 <emit.constprop.0+0x10c>
    92d4:	e1a0600e 	mov	r6, lr
    92d8:	e24ee001 	sub	lr, lr, #1, 0
    92dc:	eaffff9d 	b	9158 <emit.constprop.0+0x144>
    92e0:	e59f2044 	ldr	r2, [pc, #68]	; 932c <emit.constprop.0+0x318>
    92e4:	e3a03079 	mov	r3, #121, 0	; 0x79
    92e8:	e59f1040 	ldr	r1, [pc, #64]	; 9330 <emit.constprop.0+0x31c>
    92ec:	e58d2000 	str	r2, [sp]
    92f0:	e59f003c 	ldr	r0, [pc, #60]	; 9334 <emit.constprop.0+0x320>
    92f4:	e59f203c 	ldr	r2, [pc, #60]	; 9338 <emit.constprop.0+0x324>
    92f8:	ebffff21 	bl	8f84 <printk>
    92fc:	eb0001b1 	bl	99c8 <clean_reboot>
    9300:	e5cd2008 	strb	r2, [sp, #8]
    9304:	e3a0307f 	mov	r3, #127, 0	; 0x7f
    9308:	e3a01001 	mov	r1, #1, 0
    930c:	e28de009 	add	lr, sp, #9, 0
    9310:	e28d2008 	add	r2, sp, #8, 0
    9314:	eaffff6a 	b	90c4 <emit.constprop.0+0xb0>
    9318:	0000a9e8 	andeq	sl, r0, r8, ror #19
    931c:	20202020 	eorcs	r2, r0, r0, lsr #32
    9320:	0000a9fc 	strdeq	sl, [r0], -ip
    9324:	0000aa00 	andeq	sl, r0, r0, lsl #20
    9328:	cccccccd 	stclgt	12, cr12, [ip], {205}	; 0xcd
    932c:	0000a884 	andeq	sl, r0, r4, lsl #17
    9330:	0000a9d4 	ldrdeq	sl, [r0], -r4
    9334:	0000a530 	andeq	sl, r0, r0, lsr r5
    9338:	0000ab14 	andeq	sl, r0, r4, lsl fp

0000933c <rpi_set_output>:
    933c:	e3500000 	cmp	r0, #0, 0
    9340:	0a000005 	beq	935c <rpi_set_output+0x20>
    9344:	e59f3038 	ldr	r3, [pc, #56]	; 9384 <rpi_set_output+0x48>
    9348:	e3510000 	cmp	r1, #0, 0
    934c:	e5830000 	str	r0, [r3]
    9350:	159f3030 	ldrne	r3, [pc, #48]	; 9388 <rpi_set_output+0x4c>
    9354:	15831000 	strne	r1, [r3]
    9358:	e12fff1e 	bx	lr
    935c:	e52de004 	push	{lr}		; (str lr, [sp, #-4]!)
    9360:	e59f2024 	ldr	r2, [pc, #36]	; 938c <rpi_set_output+0x50>
    9364:	e24dd00c 	sub	sp, sp, #12, 0
    9368:	e3a03020 	mov	r3, #32, 0
    936c:	e59f101c 	ldr	r1, [pc, #28]	; 9390 <rpi_set_output+0x54>
    9370:	e58d2000 	str	r2, [sp]
    9374:	e59f0018 	ldr	r0, [pc, #24]	; 9394 <rpi_set_output+0x58>
    9378:	e59f2018 	ldr	r2, [pc, #24]	; 9398 <rpi_set_output+0x5c>
    937c:	ebffff00 	bl	8f84 <printk>
    9380:	eb000190 	bl	99c8 <clean_reboot>
    9384:	0000ad6c 	andeq	sl, r0, ip, ror #26
    9388:	0000ad5c 	andeq	sl, r0, ip, asr sp
    938c:	0000aa0c 	andeq	sl, r0, ip, lsl #20
    9390:	0000a9d4 	ldrdeq	sl, [r0], -r4
    9394:	0000a530 	andeq	sl, r0, r0, lsr r5
    9398:	0000ab1c 	andeq	sl, r0, ip, lsl fp

0000939c <va_printk>:
    939c:	e92d4ff0 	push	{r4, r5, r6, r7, r8, r9, sl, fp, lr}
    93a0:	e1a0b000 	mov	fp, r0
    93a4:	e3a00000 	mov	r0, #0, 0
    93a8:	e5cb0000 	strb	r0, [fp]
    93ac:	e5d2c000 	ldrb	ip, [r2]
    93b0:	e2417001 	sub	r7, r1, #1, 0
    93b4:	e08b7007 	add	r7, fp, r7
    93b8:	e15c0000 	cmp	ip, r0
    93bc:	115b0007 	cmpne	fp, r7
    93c0:	e24ddf47 	sub	sp, sp, #284	; 0x11c
    93c4:	e58d2010 	str	r2, [sp, #16]
    93c8:	2a000159 	bcs	9934 <va_printk+0x598>
    93cc:	e1a06002 	mov	r6, r2
    93d0:	e1a08003 	mov	r8, r3
    93d4:	e1a0400b 	mov	r4, fp
    93d8:	e59fa5a4 	ldr	sl, [pc, #1444]	; 9984 <va_printk+0x5e8>
    93dc:	e58db00c 	str	fp, [sp, #12]
    93e0:	ea000005 	b	93fc <va_printk+0x60>
    93e4:	e4c4c001 	strb	ip, [r4], #1
    93e8:	e2866001 	add	r6, r6, #1, 0
    93ec:	e5d6c000 	ldrb	ip, [r6]
    93f0:	e35c0000 	cmp	ip, #0, 0
    93f4:	11570004 	cmpne	r7, r4
    93f8:	9a00002f 	bls	94bc <va_printk+0x120>
    93fc:	e35c0025 	cmp	ip, #37, 0	; 0x25
    9400:	1afffff7 	bne	93e4 <va_printk+0x48>
    9404:	e5d62001 	ldrb	r2, [r6, #1]
    9408:	e3520025 	cmp	r2, #37, 0	; 0x25
    940c:	04c4c001 	strbeq	ip, [r4], #1
    9410:	02866002 	addeq	r6, r6, #2, 0
    9414:	0afffff4 	beq	93ec <va_printk+0x50>
    9418:	e2423030 	sub	r3, r2, #48, 0	; 0x30
    941c:	e3530009 	cmp	r3, #9, 0
    9420:	e3a05000 	mov	r5, #0, 0
    9424:	e2866001 	add	r6, r6, #1, 0
    9428:	8a000008 	bhi	9450 <va_printk+0xb4>
    942c:	e0855105 	add	r5, r5, r5, lsl #2
    9430:	e0825085 	add	r5, r2, r5, lsl #1
    9434:	e5f62001 	ldrb	r2, [r6, #1]!
    9438:	e2455030 	sub	r5, r5, #48, 0	; 0x30
    943c:	e2423030 	sub	r3, r2, #48, 0	; 0x30
    9440:	e3530009 	cmp	r3, #9, 0
    9444:	9afffff8 	bls	942c <va_printk+0x90>
    9448:	e355001f 	cmp	r5, #31, 0
    944c:	8a00013a 	bhi	993c <va_printk+0x5a0>
    9450:	e2423062 	sub	r3, r2, #98, 0	; 0x62
    9454:	e3530016 	cmp	r3, #22, 0
    9458:	979ff103 	ldrls	pc, [pc, r3, lsl #2]
    945c:	ea00011b 	b	98d0 <va_printk+0x534>
    9460:	00009714 	andeq	r9, r0, r4, lsl r7
    9464:	00009610 	andeq	r9, r0, r0, lsl r6
    9468:	00009608 	andeq	r9, r0, r8, lsl #12
    946c:	000098d0 	ldrdeq	r9, [r0], -r0
    9470:	0000990c 	andeq	r9, r0, ip, lsl #18
    9474:	000098d0 	ldrdeq	r9, [r0], -r0
    9478:	000098d0 	ldrdeq	r9, [r0], -r0
    947c:	000098d0 	ldrdeq	r9, [r0], -r0
    9480:	000098d0 	ldrdeq	r9, [r0], -r0
    9484:	000098d0 	ldrdeq	r9, [r0], -r0
    9488:	00009518 	andeq	r9, r0, r8, lsl r5
    948c:	000098d0 	ldrdeq	r9, [r0], -r0
    9490:	000098d0 	ldrdeq	r9, [r0], -r0
    9494:	000098d0 	ldrdeq	r9, [r0], -r0
    9498:	000094d4 	ldrdeq	r9, [r0], -r4
    949c:	000098d0 	ldrdeq	r9, [r0], -r0
    94a0:	000098d0 	ldrdeq	r9, [r0], -r0
    94a4:	0000980c 	andeq	r9, r0, ip, lsl #16
    94a8:	000098d0 	ldrdeq	r9, [r0], -r0
    94ac:	000095e4 	andeq	r9, r0, r4, ror #11
    94b0:	000098d0 	ldrdeq	r9, [r0], -r0
    94b4:	000098d0 	ldrdeq	r9, [r0], -r0
    94b8:	000094d4 	ldrdeq	r9, [r0], -r4
    94bc:	e59db00c 	ldr	fp, [sp, #12]
    94c0:	e3a03000 	mov	r3, #0, 0
    94c4:	e4c43001 	strb	r3, [r4], #1
    94c8:	e044000b 	sub	r0, r4, fp
    94cc:	e28ddf47 	add	sp, sp, #284	; 0x11c
    94d0:	e8bd8ff0 	pop	{r4, r5, r6, r7, r8, r9, sl, fp, pc}
    94d4:	e3a01000 	mov	r1, #0, 0
    94d8:	e1a03005 	mov	r3, r5
    94dc:	e4982004 	ldr	r2, [r8], #4
    94e0:	e3a00010 	mov	r0, #16, 0
    94e4:	e58d1000 	str	r1, [sp]
    94e8:	e28d1018 	add	r1, sp, #24, 0
    94ec:	ebfffec8 	bl	9014 <emit.constprop.0>
    94f0:	e1a05000 	mov	r5, r0
    94f4:	e2866001 	add	r6, r6, #1, 0
    94f8:	e2455001 	sub	r5, r5, #1, 0
    94fc:	e5f53001 	ldrb	r3, [r5, #1]!
    9500:	e3530000 	cmp	r3, #0, 0
    9504:	0affffb8 	beq	93ec <va_printk+0x50>
    9508:	e4c43001 	strb	r3, [r4], #1
    950c:	e1570004 	cmp	r7, r4
    9510:	8afffff9 	bhi	94fc <va_printk+0x160>
    9514:	eaffffb4 	b	93ec <va_printk+0x50>
    9518:	e3a02003 	mov	r2, #3, 0
    951c:	e1a00006 	mov	r0, r6
    9520:	e59f1460 	ldr	r1, [pc, #1120]	; 9988 <va_printk+0x5ec>
    9524:	eb0003e6 	bl	a4c4 <strncmp>
    9528:	e3500000 	cmp	r0, #0, 0
    952c:	0a000005 	beq	9548 <va_printk+0x1ac>
    9530:	e3a02003 	mov	r2, #3, 0
    9534:	e1a00006 	mov	r0, r6
    9538:	e59f144c 	ldr	r1, [pc, #1100]	; 998c <va_printk+0x5f0>
    953c:	eb0003e0 	bl	a4c4 <strncmp>
    9540:	e3500000 	cmp	r0, #0, 0
    9544:	1a00010b 	bne	9978 <va_printk+0x5dc>
    9548:	e2888007 	add	r8, r8, #7, 0
    954c:	e3c88007 	bic	r8, r8, #7, 0
    9550:	e598b004 	ldr	fp, [r8, #4]
    9554:	e4989008 	ldr	r9, [r8], #8
    9558:	e1a0100b 	mov	r1, fp
    955c:	e59f042c 	ldr	r0, [pc, #1068]	; 9990 <va_printk+0x5f4>
    9560:	ebfffe87 	bl	8f84 <printk>
    9564:	e1a01009 	mov	r1, r9
    9568:	e59f0424 	ldr	r0, [pc, #1060]	; 9994 <va_printk+0x5f8>
    956c:	ebfffe84 	bl	8f84 <printk>
    9570:	e3a02003 	mov	r2, #3, 0
    9574:	e1a00006 	mov	r0, r6
    9578:	e59f1408 	ldr	r1, [pc, #1032]	; 9988 <va_printk+0x5ec>
    957c:	eb0003d0 	bl	a4c4 <strncmp>
    9580:	e2503000 	subs	r3, r0, #0, 0
    9584:	e1a02003 	mov	r2, r3
    9588:	e2863002 	add	r3, r6, #2, 0
    958c:	e58d3014 	str	r3, [sp, #20]
    9590:	1a00009f 	bne	9814 <va_printk+0x478>
    9594:	e1a06002 	mov	r6, r2
    9598:	e1a03005 	mov	r3, r5
    959c:	e58d2000 	str	r2, [sp]
    95a0:	e28d1018 	add	r1, sp, #24, 0
    95a4:	e1a0200b 	mov	r2, fp
    95a8:	e3a00010 	mov	r0, #16, 0
    95ac:	ebfffe98 	bl	9014 <emit.constprop.0>
    95b0:	e1a0c000 	mov	ip, r0
    95b4:	e1a03005 	mov	r3, r5
    95b8:	e58d6000 	str	r6, [sp]
    95bc:	e28d1098 	add	r1, sp, #152, 0	; 0x98
    95c0:	e1a02009 	mov	r2, r9
    95c4:	e3a00010 	mov	r0, #16, 0
    95c8:	e1a0500c 	mov	r5, ip
    95cc:	ebfffe90 	bl	9014 <emit.constprop.0>
    95d0:	e28d0018 	add	r0, sp, #24, 0
    95d4:	e28d109a 	add	r1, sp, #154, 0	; 0x9a
    95d8:	e59d6014 	ldr	r6, [sp, #20]
    95dc:	eb000396 	bl	a43c <strcat>
    95e0:	eaffffc3 	b	94f4 <va_printk+0x158>
    95e4:	e3a01000 	mov	r1, #0, 0
    95e8:	e1a03005 	mov	r3, r5
    95ec:	e4982004 	ldr	r2, [r8], #4
    95f0:	e3a0000a 	mov	r0, #10, 0
    95f4:	e58d1000 	str	r1, [sp]
    95f8:	e28d1018 	add	r1, sp, #24, 0
    95fc:	ebfffe84 	bl	9014 <emit.constprop.0>
    9600:	e1a05000 	mov	r5, r0
    9604:	eaffffba 	b	94f4 <va_printk+0x158>
    9608:	e3a01001 	mov	r1, #1, 0
    960c:	eafffff5 	b	95e8 <va_printk+0x24c>
    9610:	e4983004 	ldr	r3, [r8], #4
    9614:	e3550001 	cmp	r5, #1, 0
    9618:	e5cd3098 	strb	r3, [sp, #152]	; 0x98
    961c:	9a0000a6 	bls	98bc <va_printk+0x520>
    9620:	e2453002 	sub	r3, r5, #2, 0
    9624:	e3530002 	cmp	r3, #2, 0
    9628:	e2451001 	sub	r1, r5, #1, 0
    962c:	9a0000bc 	bls	9924 <va_printk+0x588>
    9630:	e59f0360 	ldr	r0, [pc, #864]	; 9998 <va_printk+0x5fc>
    9634:	e1a02121 	lsr	r2, r1, #2
    9638:	e3520001 	cmp	r2, #1, 0
    963c:	e58d0099 	str	r0, [sp, #153]	; 0x99
    9640:	0a00000e 	beq	9680 <va_printk+0x2e4>
    9644:	e3520002 	cmp	r2, #2, 0
    9648:	e58d009d 	str	r0, [sp, #157]	; 0x9d
    964c:	0a00000b 	beq	9680 <va_printk+0x2e4>
    9650:	e3520003 	cmp	r2, #3, 0
    9654:	e58d00a1 	str	r0, [sp, #161]	; 0xa1
    9658:	0a000008 	beq	9680 <va_printk+0x2e4>
    965c:	e3520004 	cmp	r2, #4, 0
    9660:	e58d00a5 	str	r0, [sp, #165]	; 0xa5
    9664:	0a000005 	beq	9680 <va_printk+0x2e4>
    9668:	e3520005 	cmp	r2, #5, 0
    966c:	e58d00a9 	str	r0, [sp, #169]	; 0xa9
    9670:	0a000002 	beq	9680 <va_printk+0x2e4>
    9674:	e3520007 	cmp	r2, #7, 0
    9678:	e58d00ad 	str	r0, [sp, #173]	; 0xad
    967c:	058d00b1 	streq	r0, [sp, #177]	; 0xb1
    9680:	e3c12003 	bic	r2, r1, #3, 0
    9684:	e1510002 	cmp	r1, r2
    9688:	e28dc099 	add	ip, sp, #153, 0	; 0x99
    968c:	e08c0002 	add	r0, ip, r2
    9690:	e2822001 	add	r2, r2, #1, 0
    9694:	0a000008 	beq	96bc <va_printk+0x320>
    9698:	e3a0e020 	mov	lr, #32, 0
    969c:	e2829001 	add	r9, r2, #1, 0
    96a0:	e1550009 	cmp	r5, r9
    96a4:	e5c0e000 	strb	lr, [r0]
    96a8:	da000003 	ble	96bc <va_printk+0x320>
    96ac:	e2822002 	add	r2, r2, #2, 0
    96b0:	e1550002 	cmp	r5, r2
    96b4:	e5c0e001 	strb	lr, [r0, #1]
    96b8:	c5c0e002 	strbgt	lr, [r0, #2]
    96bc:	e3a0e000 	mov	lr, #0, 0
    96c0:	e28d0098 	add	r0, sp, #152, 0	; 0x98
    96c4:	e08c2001 	add	r2, ip, r1
    96c8:	e0422000 	sub	r2, r2, r0
    96cc:	e352007f 	cmp	r2, #127, 0	; 0x7f
    96d0:	c242207f 	subgt	r2, r2, #127, 0	; 0x7f
    96d4:	e08c3003 	add	r3, ip, r3
    96d8:	c0800002 	addgt	r0, r0, r2
    96dc:	e1530000 	cmp	r3, r0
    96e0:	e7cce001 	strb	lr, [ip, r1]
    96e4:	3a00006c 	bcc	989c <va_printk+0x500>
    96e8:	e283c001 	add	ip, r3, #1, 0
    96ec:	e1a0300c 	mov	r3, ip
    96f0:	e28d5018 	add	r5, sp, #24, 0
    96f4:	e2452001 	sub	r2, r5, #1, 0
    96f8:	e5731001 	ldrb	r1, [r3, #-1]!
    96fc:	e1500003 	cmp	r0, r3
    9700:	e5e21001 	strb	r1, [r2, #1]!
    9704:	1afffffb 	bne	96f8 <va_printk+0x35c>
    9708:	e04c3000 	sub	r3, ip, r0
    970c:	e0853003 	add	r3, r5, r3
    9710:	ea00003a 	b	9800 <va_printk+0x464>
    9714:	e28d1098 	add	r1, sp, #152, 0	; 0x98
    9718:	e1a03001 	mov	r3, r1
    971c:	e4980004 	ldr	r0, [r8], #4
    9720:	e200c001 	and	ip, r0, #1, 0
    9724:	e7dac00c 	ldrb	ip, [sl, ip]
    9728:	e3500001 	cmp	r0, #1, 0
    972c:	e1a02003 	mov	r2, r3
    9730:	e1a000a0 	lsr	r0, r0, #1
    9734:	e4c3c001 	strb	ip, [r3], #1
    9738:	8afffff8 	bhi	9720 <va_printk+0x384>
    973c:	e0430001 	sub	r0, r3, r1
    9740:	e1550000 	cmp	r5, r0
    9744:	da000057 	ble	98a8 <va_printk+0x50c>
    9748:	e045c000 	sub	ip, r5, r0
    974c:	e24ce001 	sub	lr, ip, #1, 0
    9750:	e35e0002 	cmp	lr, #2, 0
    9754:	e1a0e003 	mov	lr, r3
    9758:	9a00000a 	bls	9788 <va_printk+0x3ec>
    975c:	e3cc9003 	bic	r9, ip, #3, 0
    9760:	e0899003 	add	r9, r9, r3
    9764:	e59fb22c 	ldr	fp, [pc, #556]	; 9998 <va_printk+0x5fc>
    9768:	e48eb004 	str	fp, [lr], #4
    976c:	e15e0009 	cmp	lr, r9
    9770:	1afffffb 	bne	9764 <va_printk+0x3c8>
    9774:	e3cce003 	bic	lr, ip, #3, 0
    9778:	e15e000c 	cmp	lr, ip
    977c:	e080000e 	add	r0, r0, lr
    9780:	e083e00e 	add	lr, r3, lr
    9784:	0a000008 	beq	97ac <va_printk+0x410>
    9788:	e3a09020 	mov	r9, #32, 0
    978c:	e280b001 	add	fp, r0, #1, 0
    9790:	e155000b 	cmp	r5, fp
    9794:	e5ce9000 	strb	r9, [lr]
    9798:	da000003 	ble	97ac <va_printk+0x410>
    979c:	e2800002 	add	r0, r0, #2, 0
    97a0:	e1550000 	cmp	r5, r0
    97a4:	e5ce9001 	strb	r9, [lr, #1]
    97a8:	c5ce9002 	strbgt	r9, [lr, #2]
    97ac:	e3a0e000 	mov	lr, #0, 0
    97b0:	e083000c 	add	r0, r3, ip
    97b4:	e0400001 	sub	r0, r0, r1
    97b8:	e350007f 	cmp	r0, #127, 0	; 0x7f
    97bc:	e082200c 	add	r2, r2, ip
    97c0:	e7c3e00c 	strb	lr, [r3, ip]
    97c4:	da000001 	ble	97d0 <va_printk+0x434>
    97c8:	e240007f 	sub	r0, r0, #127, 0	; 0x7f
    97cc:	e0811000 	add	r1, r1, r0
    97d0:	e1510002 	cmp	r1, r2
    97d4:	8a000030 	bhi	989c <va_printk+0x500>
    97d8:	e2822001 	add	r2, r2, #1, 0
    97dc:	e1a03002 	mov	r3, r2
    97e0:	e28d5018 	add	r5, sp, #24, 0
    97e4:	e245c001 	sub	ip, r5, #1, 0
    97e8:	e5730001 	ldrb	r0, [r3, #-1]!
    97ec:	e1530001 	cmp	r3, r1
    97f0:	e5ec0001 	strb	r0, [ip, #1]!
    97f4:	1afffffb 	bne	97e8 <va_printk+0x44c>
    97f8:	e0423003 	sub	r3, r2, r3
    97fc:	e0853003 	add	r3, r5, r3
    9800:	e3a02000 	mov	r2, #0, 0
    9804:	e5c32000 	strb	r2, [r3]
    9808:	eaffff39 	b	94f4 <va_printk+0x158>
    980c:	e4985004 	ldr	r5, [r8], #4
    9810:	eaffff37 	b	94f4 <va_printk+0x158>
    9814:	e3a02003 	mov	r2, #3, 0
    9818:	e1a00006 	mov	r0, r6
    981c:	e59f1168 	ldr	r1, [pc, #360]	; 998c <va_printk+0x5f0>
    9820:	eb000327 	bl	a4c4 <strncmp>
    9824:	e2503000 	subs	r3, r0, #0, 0
    9828:	1a00004b 	bne	995c <va_printk+0x5c0>
    982c:	e1a06003 	mov	r6, r3
    9830:	e1a0200b 	mov	r2, fp
    9834:	e58d3000 	str	r3, [sp]
    9838:	e28d1018 	add	r1, sp, #24, 0
    983c:	e1a03005 	mov	r3, r5
    9840:	e3a0000a 	mov	r0, #10, 0
    9844:	ebfffdf2 	bl	9014 <emit.constprop.0>
    9848:	e1a0c000 	mov	ip, r0
    984c:	e1a03005 	mov	r3, r5
    9850:	e1a02009 	mov	r2, r9
    9854:	e28d1098 	add	r1, sp, #152, 0	; 0x98
    9858:	e3a0000a 	mov	r0, #10, 0
    985c:	e58d6000 	str	r6, [sp]
    9860:	e1a0500c 	mov	r5, ip
    9864:	ebfffdea 	bl	9014 <emit.constprop.0>
    9868:	e59f112c 	ldr	r1, [pc, #300]	; 999c <va_printk+0x600>
    986c:	e28d0018 	add	r0, sp, #24, 0
    9870:	eb0002fc 	bl	a468 <strcmp>
    9874:	e3500000 	cmp	r0, #0, 0
    9878:	e28d1098 	add	r1, sp, #152, 0	; 0x98
    987c:	e28d0018 	add	r0, sp, #24, 0
    9880:	1a000002 	bne	9890 <va_printk+0x4f4>
    9884:	eb000308 	bl	a4ac <strcpy>
    9888:	e59d6014 	ldr	r6, [sp, #20]
    988c:	eaffff18 	b	94f4 <va_printk+0x158>
    9890:	eb0002e9 	bl	a43c <strcat>
    9894:	e59d6014 	ldr	r6, [sp, #20]
    9898:	eaffff15 	b	94f4 <va_printk+0x158>
    989c:	e28d5018 	add	r5, sp, #24, 0
    98a0:	e1a03005 	mov	r3, r5
    98a4:	eaffffd5 	b	9800 <va_printk+0x464>
    98a8:	e3a0c000 	mov	ip, #0, 0
    98ac:	e350007f 	cmp	r0, #127, 0	; 0x7f
    98b0:	e5c3c000 	strb	ip, [r3]
    98b4:	caffffc3 	bgt	97c8 <va_printk+0x42c>
    98b8:	eaffffc6 	b	97d8 <va_printk+0x43c>
    98bc:	e3a02000 	mov	r2, #0, 0
    98c0:	e28d3098 	add	r3, sp, #152, 0	; 0x98
    98c4:	e1a00003 	mov	r0, r3
    98c8:	e5cd2099 	strb	r2, [sp, #153]	; 0x99
    98cc:	eaffff85 	b	96e8 <va_printk+0x34c>
    98d0:	e3a03000 	mov	r3, #0, 0
    98d4:	e1a01002 	mov	r1, r2
    98d8:	e5c63001 	strb	r3, [r6, #1]
    98dc:	e59f00bc 	ldr	r0, [pc, #188]	; 99a0 <va_printk+0x604>
    98e0:	ebfffda7 	bl	8f84 <printk>
    98e4:	e59f30b8 	ldr	r3, [pc, #184]	; 99a4 <va_printk+0x608>
    98e8:	e59d0010 	ldr	r0, [sp, #16]
    98ec:	e5933000 	ldr	r3, [r3]
    98f0:	e12fff33 	blx	r3
    98f4:	e3a030e2 	mov	r3, #226, 0	; 0xe2
    98f8:	e59f20a8 	ldr	r2, [pc, #168]	; 99a8 <va_printk+0x60c>
    98fc:	e59f10a8 	ldr	r1, [pc, #168]	; 99ac <va_printk+0x610>
    9900:	e59f00a8 	ldr	r0, [pc, #168]	; 99b0 <va_printk+0x614>
    9904:	ebfffd9e 	bl	8f84 <printk>
    9908:	eb00002e 	bl	99c8 <clean_reboot>
    990c:	e3a030be 	mov	r3, #190, 0	; 0xbe
    9910:	e59f2090 	ldr	r2, [pc, #144]	; 99a8 <va_printk+0x60c>
    9914:	e59f1090 	ldr	r1, [pc, #144]	; 99ac <va_printk+0x610>
    9918:	e59f0094 	ldr	r0, [pc, #148]	; 99b4 <va_printk+0x618>
    991c:	ebfffd98 	bl	8f84 <printk>
    9920:	eb000028 	bl	99c8 <clean_reboot>
    9924:	e28dc099 	add	ip, sp, #153, 0	; 0x99
    9928:	e1a0000c 	mov	r0, ip
    992c:	e3a02001 	mov	r2, #1, 0
    9930:	eaffff58 	b	9698 <va_printk+0x2fc>
    9934:	e1a0400b 	mov	r4, fp
    9938:	eafffee0 	b	94c0 <va_printk+0x124>
    993c:	e3a03098 	mov	r3, #152, 0	; 0x98
    9940:	e59f2070 	ldr	r2, [pc, #112]	; 99b8 <va_printk+0x61c>
    9944:	e59f1060 	ldr	r1, [pc, #96]	; 99ac <va_printk+0x610>
    9948:	e58d2000 	str	r2, [sp]
    994c:	e59f0068 	ldr	r0, [pc, #104]	; 99bc <va_printk+0x620>
    9950:	e59f2050 	ldr	r2, [pc, #80]	; 99a8 <va_printk+0x60c>
    9954:	ebfffd8a 	bl	8f84 <printk>
    9958:	eb00001a 	bl	99c8 <clean_reboot>
    995c:	e3a030b6 	mov	r3, #182, 0	; 0xb6
    9960:	e59f2040 	ldr	r2, [pc, #64]	; 99a8 <va_printk+0x60c>
    9964:	e59f1040 	ldr	r1, [pc, #64]	; 99ac <va_printk+0x610>
    9968:	e59f0050 	ldr	r0, [pc, #80]	; 99c0 <va_printk+0x624>
    996c:	e58d6000 	str	r6, [sp]
    9970:	ebfffd83 	bl	8f84 <printk>
    9974:	eb000013 	bl	99c8 <clean_reboot>
    9978:	e3a0309f 	mov	r3, #159, 0	; 0x9f
    997c:	e59f2040 	ldr	r2, [pc, #64]	; 99c4 <va_printk+0x628>
    9980:	eaffffef 	b	9944 <va_printk+0x5a8>
    9984:	0000a9fc 	strdeq	sl, [r0], -ip
    9988:	0000aa20 	andeq	sl, r0, r0, lsr #20
    998c:	0000aa34 	andeq	sl, r0, r4, lsr sl
    9990:	0000aa24 	andeq	sl, r0, r4, lsr #20
    9994:	0000aa2c 	andeq	sl, r0, ip, lsr #20
    9998:	20202020 	eorcs	r2, r0, r0, lsr #32
    999c:	0000a884 	andeq	sl, r0, r4, lsl #17
    99a0:	0000aac4 	andeq	sl, r0, r4, asr #21
    99a4:	0000ad5c 	andeq	sl, r0, ip, asr sp
    99a8:	0000ab2c 	andeq	sl, r0, ip, lsr #22
    99ac:	0000a9d4 	ldrdeq	sl, [r0], -r4
    99b0:	0000aaf4 	strdeq	sl, [r0], -r4
    99b4:	0000aa9c 	muleq	r0, ip, sl
    99b8:	0000aa14 	andeq	sl, r0, r4, lsl sl
    99bc:	0000a530 	andeq	sl, r0, r0, lsr r5
    99c0:	0000aa74 	andeq	sl, r0, r4, ror sl
    99c4:	0000aa38 	andeq	sl, r0, r8, lsr sl

000099c8 <clean_reboot>:
    99c8:	e59f301c 	ldr	r3, [pc, #28]	; 99ec <clean_reboot+0x24>
    99cc:	e92d4010 	push	{r4, lr}
    99d0:	e5933000 	ldr	r3, [r3]
    99d4:	e59f0014 	ldr	r0, [pc, #20]	; 99f0 <clean_reboot+0x28>
    99d8:	e12fff33 	blx	r3
    99dc:	eb000127 	bl	9e80 <uart_flush_tx>
    99e0:	e3a0000a 	mov	r0, #10, 0
    99e4:	eb00008e 	bl	9c24 <delay_ms>
    99e8:	eb000057 	bl	9b4c <rpi_reboot>
    99ec:	0000ad5c 	andeq	sl, r0, ip, asr sp
    99f0:	0000ab38 	andeq	sl, r0, r8, lsr fp

000099f4 <_cstart>:
    99f4:	e92d4070 	push	{r4, r5, r6, lr}
    99f8:	eb000047 	bl	9b1c <custom_loader>
    99fc:	e59f2108 	ldr	r2, [pc, #264]	; 9b0c <_cstart+0x118>
    9a00:	e59fc108 	ldr	ip, [pc, #264]	; 9b10 <_cstart+0x11c>
    9a04:	e152000c 	cmp	r2, ip
    9a08:	2a00002e 	bcs	9ac8 <_cstart+0xd4>
    9a0c:	e24c1001 	sub	r1, ip, #1, 0
    9a10:	e0411002 	sub	r1, r1, r2
    9a14:	e3510017 	cmp	r1, #23, 0
    9a18:	e1a03122 	lsr	r3, r2, #2
    9a1c:	e1a01121 	lsr	r1, r1, #2
    9a20:	e2811001 	add	r1, r1, #1, 0
    9a24:	e2033001 	and	r3, r3, #1, 0
    9a28:	9a000035 	bls	9b04 <_cstart+0x110>
    9a2c:	e3530000 	cmp	r3, #0, 0
    9a30:	11a00002 	movne	r0, r2
    9a34:	13a0e000 	movne	lr, #0, 0
    9a38:	e3a04000 	mov	r4, #0, 0
    9a3c:	e3a05000 	mov	r5, #0, 0
    9a40:	e0411003 	sub	r1, r1, r3
    9a44:	01a00002 	moveq	r0, r2
    9a48:	e0823103 	add	r3, r2, r3, lsl #2
    9a4c:	e1a020a1 	lsr	r2, r1, #1
    9a50:	1480e004 	strne	lr, [r0], #4
    9a54:	e0832182 	add	r2, r3, r2, lsl #3
    9a58:	e0c340f8 	strd	r4, [r3], #8
    9a5c:	e1520003 	cmp	r2, r3
    9a60:	1afffffc 	bne	9a58 <_cstart+0x64>
    9a64:	e3c13001 	bic	r3, r1, #1, 0
    9a68:	e1510003 	cmp	r1, r3
    9a6c:	e0803103 	add	r3, r0, r3, lsl #2
    9a70:	0a000014 	beq	9ac8 <_cstart+0xd4>
    9a74:	e1a01003 	mov	r1, r3
    9a78:	e3a02000 	mov	r2, #0, 0
    9a7c:	e4812004 	str	r2, [r1], #4
    9a80:	e151000c 	cmp	r1, ip
    9a84:	2a00000f 	bcs	9ac8 <_cstart+0xd4>
    9a88:	e2831008 	add	r1, r3, #8, 0
    9a8c:	e151000c 	cmp	r1, ip
    9a90:	e5832004 	str	r2, [r3, #4]
    9a94:	2a00000b 	bcs	9ac8 <_cstart+0xd4>
    9a98:	e283100c 	add	r1, r3, #12, 0
    9a9c:	e151000c 	cmp	r1, ip
    9aa0:	e5832008 	str	r2, [r3, #8]
    9aa4:	2a000007 	bcs	9ac8 <_cstart+0xd4>
    9aa8:	e2831010 	add	r1, r3, #16, 0
    9aac:	e151000c 	cmp	r1, ip
    9ab0:	e583200c 	str	r2, [r3, #12]
    9ab4:	2a000003 	bcs	9ac8 <_cstart+0xd4>
    9ab8:	e2831014 	add	r1, r3, #20, 0
    9abc:	e151000c 	cmp	r1, ip
    9ac0:	e5832010 	str	r2, [r3, #16]
    9ac4:	35832014 	strcc	r2, [r3, #20]
    9ac8:	eb00008e 	bl	9d08 <uart_init>
    9acc:	e3a03001 	mov	r3, #1, 0
    9ad0:	ee0f3f1c 	mcr	15, 0, r3, cr15, cr12, {0}
    9ad4:	ee1f3f3c 	mrc	15, 0, r3, cr15, cr12, {1}
    9ad8:	e59f4034 	ldr	r4, [pc, #52]	; 9b14 <_cstart+0x120>
    9adc:	e5843000 	str	r3, [r4]
    9ae0:	ebfff996 	bl	8140 <notmain>
    9ae4:	ee1f3f3c 	mrc	15, 0, r3, cr15, cr12, {1}
    9ae8:	e5941000 	ldr	r1, [r4]
    9aec:	e59f0024 	ldr	r0, [pc, #36]	; 9b18 <_cstart+0x124>
    9af0:	e3510000 	cmp	r1, #0, 0
    9af4:	10431001 	subne	r1, r3, r1
    9af8:	e5843000 	str	r3, [r4]
    9afc:	ebfffd20 	bl	8f84 <printk>
    9b00:	ebffffb0 	bl	99c8 <clean_reboot>
    9b04:	e1a03002 	mov	r3, r2
    9b08:	eaffffd9 	b	9a74 <_cstart+0x80>
    9b0c:	0000ad70 	andeq	sl, r0, r0, ror sp
    9b10:	0000b1a0 	andeq	fp, r0, r0, lsr #3
    9b14:	0000b194 	muleq	r0, r4, r1
    9b18:	0000ab44 	andeq	sl, r0, r4, asr #22

00009b1c <custom_loader>:
    9b1c:	e12fff1e 	bx	lr

00009b20 <at_user_level>:
    9b20:	e10f0000 	mrs	r0, CPSR
    9b24:	e200001f 	and	r0, r0, #31, 0
    9b28:	e2400010 	sub	r0, r0, #16, 0
    9b2c:	e16f0f10 	clz	r0, r0
    9b30:	e1a002a0 	lsr	r0, r0, #5
    9b34:	e12fff1e 	bx	lr

00009b38 <set_user_level>:
    9b38:	e10f3000 	mrs	r3, CPSR
    9b3c:	e3c3301f 	bic	r3, r3, #31, 0
    9b40:	e3833010 	orr	r3, r3, #16, 0
    9b44:	e129f003 	msr	CPSR_fc, r3
    9b48:	e12fff1e 	bx	lr

00009b4c <rpi_reboot>:
    9b4c:	e92d4010 	push	{r4, lr}
    9b50:	e10f3000 	mrs	r3, CPSR
    9b54:	e203301f 	and	r3, r3, #31, 0
    9b58:	e3530010 	cmp	r3, #16, 0
    9b5c:	1a000003 	bne	9b70 <rpi_reboot+0x24>
    9b60:	e10f3000 	mrs	r3, CPSR
    9b64:	e3c3301f 	bic	r3, r3, #31, 0
    9b68:	e3833010 	orr	r3, r3, #16, 0
    9b6c:	e129f003 	msr	CPSR_fc, r3
    9b70:	eb00025f 	bl	a4f4 <reboot_callout>
    9b74:	eb0000c1 	bl	9e80 <uart_flush_tx>
    9b78:	e3a0000a 	mov	r0, #10, 0
    9b7c:	eb000028 	bl	9c24 <delay_ms>
    9b80:	e59f1014 	ldr	r1, [pc, #20]	; 9b9c <rpi_reboot+0x50>
    9b84:	e59f0014 	ldr	r0, [pc, #20]	; 9ba0 <rpi_reboot+0x54>
    9b88:	ebfff925 	bl	8024 <PUT32>
    9b8c:	e59f1010 	ldr	r1, [pc, #16]	; 9ba4 <rpi_reboot+0x58>
    9b90:	e59f0010 	ldr	r0, [pc, #16]	; 9ba8 <rpi_reboot+0x5c>
    9b94:	ebfff922 	bl	8024 <PUT32>
    9b98:	eafffffe 	b	9b98 <rpi_reboot+0x4c>
    9b9c:	5a000001 	bpl	9ba8 <rpi_reboot+0x5c>
    9ba0:	20100024 	andscs	r0, r0, r4, lsr #32
    9ba4:	5a000020 	bpl	9c2c <delay_ms+0x8>
    9ba8:	2010001c 	andscs	r0, r0, ip, lsl r0

00009bac <timer_get_usec_raw>:
    9bac:	e59f0000 	ldr	r0, [pc]	; 9bb4 <timer_get_usec_raw+0x8>
    9bb0:	eafff91d 	b	802c <GET32>
    9bb4:	20003004 	andcs	r3, r0, r4

00009bb8 <timer_get_usec>:
    9bb8:	e92d4010 	push	{r4, lr}
    9bbc:	eb00024d 	bl	a4f8 <dev_barrier>
    9bc0:	e59f0010 	ldr	r0, [pc, #16]	; 9bd8 <timer_get_usec+0x20>
    9bc4:	ebfff918 	bl	802c <GET32>
    9bc8:	e1a04000 	mov	r4, r0
    9bcc:	eb000249 	bl	a4f8 <dev_barrier>
    9bd0:	e1a00004 	mov	r0, r4
    9bd4:	e8bd8010 	pop	{r4, pc}
    9bd8:	20003004 	andcs	r3, r0, r4

00009bdc <delay_us>:
    9bdc:	e92d41f0 	push	{r4, r5, r6, r7, r8, lr}
    9be0:	e1a06000 	mov	r6, r0
    9be4:	eb000243 	bl	a4f8 <dev_barrier>
    9be8:	e59f0030 	ldr	r0, [pc, #48]	; 9c20 <delay_us+0x44>
    9bec:	ebfff90e 	bl	802c <GET32>
    9bf0:	e1a05000 	mov	r5, r0
    9bf4:	eb00023f 	bl	a4f8 <dev_barrier>
    9bf8:	e59f7020 	ldr	r7, [pc, #32]	; 9c20 <delay_us+0x44>
    9bfc:	eb00023d 	bl	a4f8 <dev_barrier>
    9c00:	e1a00007 	mov	r0, r7
    9c04:	ebfff908 	bl	802c <GET32>
    9c08:	e1a04000 	mov	r4, r0
    9c0c:	e0444005 	sub	r4, r4, r5
    9c10:	eb000238 	bl	a4f8 <dev_barrier>
    9c14:	e1540006 	cmp	r4, r6
    9c18:	3afffff7 	bcc	9bfc <delay_us+0x20>
    9c1c:	e8bd81f0 	pop	{r4, r5, r6, r7, r8, pc}
    9c20:	20003004 	andcs	r3, r0, r4

00009c24 <delay_ms>:
    9c24:	e92d41f0 	push	{r4, r5, r6, r7, r8, lr}
    9c28:	e0604280 	rsb	r4, r0, r0, lsl #5
    9c2c:	e0800104 	add	r0, r0, r4, lsl #2
    9c30:	e1a04180 	lsl	r4, r0, #3
    9c34:	eb00022f 	bl	a4f8 <dev_barrier>
    9c38:	e59f0030 	ldr	r0, [pc, #48]	; 9c70 <delay_ms+0x4c>
    9c3c:	ebfff8fa 	bl	802c <GET32>
    9c40:	e1a06000 	mov	r6, r0
    9c44:	eb00022b 	bl	a4f8 <dev_barrier>
    9c48:	e59f7020 	ldr	r7, [pc, #32]	; 9c70 <delay_ms+0x4c>
    9c4c:	eb000229 	bl	a4f8 <dev_barrier>
    9c50:	e1a00007 	mov	r0, r7
    9c54:	ebfff8f4 	bl	802c <GET32>
    9c58:	e1a05000 	mov	r5, r0
    9c5c:	e0455006 	sub	r5, r5, r6
    9c60:	eb000224 	bl	a4f8 <dev_barrier>
    9c64:	e1540005 	cmp	r4, r5
    9c68:	8afffff7 	bhi	9c4c <delay_ms+0x28>
    9c6c:	e8bd81f0 	pop	{r4, r5, r6, r7, r8, pc}
    9c70:	20003004 	andcs	r3, r0, r4

00009c74 <delay_sec>:
    9c74:	e92d41f0 	push	{r4, r5, r6, r7, r8, lr}
    9c78:	e0604280 	rsb	r4, r0, r0, lsl #5
    9c7c:	e0644304 	rsb	r4, r4, r4, lsl #6
    9c80:	e0800184 	add	r0, r0, r4, lsl #3
    9c84:	e1a04300 	lsl	r4, r0, #6
    9c88:	eb00021a 	bl	a4f8 <dev_barrier>
    9c8c:	e59f0030 	ldr	r0, [pc, #48]	; 9cc4 <delay_sec+0x50>
    9c90:	ebfff8e5 	bl	802c <GET32>
    9c94:	e1a06000 	mov	r6, r0
    9c98:	eb000216 	bl	a4f8 <dev_barrier>
    9c9c:	e59f7020 	ldr	r7, [pc, #32]	; 9cc4 <delay_sec+0x50>
    9ca0:	eb000214 	bl	a4f8 <dev_barrier>
    9ca4:	e1a00007 	mov	r0, r7
    9ca8:	ebfff8df 	bl	802c <GET32>
    9cac:	e1a05000 	mov	r5, r0
    9cb0:	e0455006 	sub	r5, r5, r6
    9cb4:	eb00020f 	bl	a4f8 <dev_barrier>
    9cb8:	e1540005 	cmp	r4, r5
    9cbc:	8afffff7 	bhi	9ca0 <delay_sec+0x2c>
    9cc0:	e8bd81f0 	pop	{r4, r5, r6, r7, r8, pc}
    9cc4:	20003004 	andcs	r3, r0, r4

00009cc8 <and_in32>:
    9cc8:	e92d4070 	push	{r4, r5, r6, lr}
    9ccc:	e1a04000 	mov	r4, r0
    9cd0:	e1a05001 	mov	r5, r1
    9cd4:	ebfff8d4 	bl	802c <GET32>
    9cd8:	e0001005 	and	r1, r0, r5
    9cdc:	e1a00004 	mov	r0, r4
    9ce0:	ebfff8cf 	bl	8024 <PUT32>
    9ce4:	e8bd8070 	pop	{r4, r5, r6, pc}

00009ce8 <or_in32>:
    9ce8:	e92d4070 	push	{r4, r5, r6, lr}
    9cec:	e1a04000 	mov	r4, r0
    9cf0:	e1a05001 	mov	r5, r1
    9cf4:	ebfff8cc 	bl	802c <GET32>
    9cf8:	e1801005 	orr	r1, r0, r5
    9cfc:	e1a00004 	mov	r0, r4
    9d00:	ebfff8c7 	bl	8024 <PUT32>
    9d04:	e8bd8070 	pop	{r4, r5, r6, pc}

00009d08 <uart_init>:
    9d08:	e92d4010 	push	{r4, lr}
    9d0c:	e3a01002 	mov	r1, #2, 0
    9d10:	e3a0000e 	mov	r0, #14, 0
    9d14:	eb000153 	bl	a268 <gpio_set_function>
    9d18:	e3a01002 	mov	r1, #2, 0
    9d1c:	e3a0000f 	mov	r0, #15, 0
    9d20:	eb000150 	bl	a268 <gpio_set_function>
    9d24:	eb0001f3 	bl	a4f8 <dev_barrier>
    9d28:	e3a01001 	mov	r1, #1, 0
    9d2c:	e59f0064 	ldr	r0, [pc, #100]	; 9d98 <uart_init+0x90>
    9d30:	ebffffec 	bl	9ce8 <or_in32>
    9d34:	eb0001ef 	bl	a4f8 <dev_barrier>
    9d38:	e59f405c 	ldr	r4, [pc, #92]	; 9d9c <uart_init+0x94>
    9d3c:	e3a01000 	mov	r1, #0, 0
    9d40:	e1a00004 	mov	r0, r4
    9d44:	ebfff8b6 	bl	8024 <PUT32>
    9d48:	e3a01000 	mov	r1, #0, 0
    9d4c:	e59f004c 	ldr	r0, [pc, #76]	; 9da0 <uart_init+0x98>
    9d50:	ebfff8b3 	bl	8024 <PUT32>
    9d54:	e3a01003 	mov	r1, #3, 0
    9d58:	e59f0044 	ldr	r0, [pc, #68]	; 9da4 <uart_init+0x9c>
    9d5c:	ebfff8b0 	bl	8024 <PUT32>
    9d60:	e3a01000 	mov	r1, #0, 0
    9d64:	e59f003c 	ldr	r0, [pc, #60]	; 9da8 <uart_init+0xa0>
    9d68:	ebfff8ad 	bl	8024 <PUT32>
    9d6c:	e3a010c7 	mov	r1, #199, 0	; 0xc7
    9d70:	e59f0034 	ldr	r0, [pc, #52]	; 9dac <uart_init+0xa4>
    9d74:	ebfff8aa 	bl	8024 <PUT32>
    9d78:	e59f1030 	ldr	r1, [pc, #48]	; 9db0 <uart_init+0xa8>
    9d7c:	e59f0030 	ldr	r0, [pc, #48]	; 9db4 <uart_init+0xac>
    9d80:	ebfff8a7 	bl	8024 <PUT32>
    9d84:	e3a01003 	mov	r1, #3, 0
    9d88:	e1a00004 	mov	r0, r4
    9d8c:	ebfff8a4 	bl	8024 <PUT32>
    9d90:	eb0001d8 	bl	a4f8 <dev_barrier>
    9d94:	e8bd8010 	pop	{r4, pc}
    9d98:	20215004 	eorcs	r5, r1, r4
    9d9c:	20215060 	eorcs	r5, r1, r0, rrx
    9da0:	20215044 	eorcs	r5, r1, r4, asr #32
    9da4:	2021504c 	eorcs	r5, r1, ip, asr #32
    9da8:	20215050 	eorcs	r5, r1, r0, asr r0
    9dac:	20215048 	eorcs	r5, r1, r8, asr #32
    9db0:	0000010e 	andeq	r0, r0, lr, lsl #2
    9db4:	20215068 	eorcs	r5, r1, r8, rrx

00009db8 <uart_can_getc>:
    9db8:	e92d4010 	push	{r4, lr}
    9dbc:	e59f0008 	ldr	r0, [pc, #8]	; 9dcc <uart_can_getc+0x14>
    9dc0:	ebfff899 	bl	802c <GET32>
    9dc4:	e2000001 	and	r0, r0, #1, 0
    9dc8:	e8bd8010 	pop	{r4, pc}
    9dcc:	20215064 	eorcs	r5, r1, r4, rrx

00009dd0 <uart_can_putc>:
    9dd0:	e92d4010 	push	{r4, lr}
    9dd4:	e59f0010 	ldr	r0, [pc, #16]	; 9dec <uart_can_putc+0x1c>
    9dd8:	ebfff893 	bl	802c <GET32>
    9ddc:	e3100002 	tst	r0, #2, 0
    9de0:	13a00001 	movne	r0, #1, 0
    9de4:	03a00000 	moveq	r0, #0, 0
    9de8:	e8bd8010 	pop	{r4, pc}
    9dec:	20215064 	eorcs	r5, r1, r4, rrx

00009df0 <uart_getc>:
    9df0:	e92d4010 	push	{r4, lr}
    9df4:	eb0001bf 	bl	a4f8 <dev_barrier>
    9df8:	ebffffee 	bl	9db8 <uart_can_getc>
    9dfc:	e3500000 	cmp	r0, #0, 0
    9e00:	0afffffc 	beq	9df8 <uart_getc+0x8>
    9e04:	e59f0010 	ldr	r0, [pc, #16]	; 9e1c <uart_getc+0x2c>
    9e08:	ebfff887 	bl	802c <GET32>
    9e0c:	e6ef4070 	uxtb	r4, r0
    9e10:	eb0001b8 	bl	a4f8 <dev_barrier>
    9e14:	e1a00004 	mov	r0, r4
    9e18:	e8bd8010 	pop	{r4, pc}
    9e1c:	20215040 	eorcs	r5, r1, r0, asr #32

00009e20 <uart_putc>:
    9e20:	e92d4010 	push	{r4, lr}
    9e24:	e1a04000 	mov	r4, r0
    9e28:	eb0001b2 	bl	a4f8 <dev_barrier>
    9e2c:	ebffffe7 	bl	9dd0 <uart_can_putc>
    9e30:	e3500000 	cmp	r0, #0, 0
    9e34:	0afffffc 	beq	9e2c <uart_putc+0xc>
    9e38:	e6ef1074 	uxtb	r1, r4
    9e3c:	e59f0008 	ldr	r0, [pc, #8]	; 9e4c <uart_putc+0x2c>
    9e40:	ebfff877 	bl	8024 <PUT32>
    9e44:	eb0001ab 	bl	a4f8 <dev_barrier>
    9e48:	e8bd8010 	pop	{r4, pc}
    9e4c:	20215040 	eorcs	r5, r1, r0, asr #32

00009e50 <uart_has_data>:
    9e50:	e92d4010 	push	{r4, lr}
    9e54:	eb0001a7 	bl	a4f8 <dev_barrier>
    9e58:	ebffffd6 	bl	9db8 <uart_can_getc>
    9e5c:	e8bd8010 	pop	{r4, pc}

00009e60 <uart_tx_is_empty>:
    9e60:	e92d4010 	push	{r4, lr}
    9e64:	eb0001a3 	bl	a4f8 <dev_barrier>
    9e68:	e59f000c 	ldr	r0, [pc, #12]	; 9e7c <uart_tx_is_empty+0x1c>
    9e6c:	ebfff86e 	bl	802c <GET32>
    9e70:	e1a004a0 	lsr	r0, r0, #9
    9e74:	e2000001 	and	r0, r0, #1, 0
    9e78:	e8bd8010 	pop	{r4, pc}
    9e7c:	20215064 	eorcs	r5, r1, r4, rrx

00009e80 <uart_flush_tx>:
    9e80:	e92d4010 	push	{r4, lr}
    9e84:	ebfffff5 	bl	9e60 <uart_tx_is_empty>
    9e88:	e3500000 	cmp	r0, #0, 0
    9e8c:	0afffffc 	beq	9e84 <uart_flush_tx+0x4>
    9e90:	e8bd8010 	pop	{r4, pc}

00009e94 <uart_disable>:
    9e94:	e92d4010 	push	{r4, lr}
    9e98:	ebfffff8 	bl	9e80 <uart_flush_tx>
    9e9c:	eb000195 	bl	a4f8 <dev_barrier>
    9ea0:	e3e01001 	mvn	r1, #1, 0
    9ea4:	e59f0008 	ldr	r0, [pc, #8]	; 9eb4 <uart_disable+0x20>
    9ea8:	ebffff86 	bl	9cc8 <and_in32>
    9eac:	eb000191 	bl	a4f8 <dev_barrier>
    9eb0:	e8bd8010 	pop	{r4, pc}
    9eb4:	20215004 	eorcs	r5, r1, r4

00009eb8 <kmalloc_heap_end>:
    9eb8:	e59f3004 	ldr	r3, [pc, #4]	; 9ec4 <kmalloc_heap_end+0xc>
    9ebc:	e5930000 	ldr	r0, [r3]
    9ec0:	e12fff1e 	bx	lr
    9ec4:	0000ad60 	andeq	sl, r0, r0, ror #26

00009ec8 <kmalloc_heap_start>:
    9ec8:	e59f3004 	ldr	r3, [pc, #4]	; 9ed4 <kmalloc_heap_start+0xc>
    9ecc:	e5930004 	ldr	r0, [r3, #4]
    9ed0:	e12fff1e 	bx	lr
    9ed4:	0000ad60 	andeq	sl, r0, r0, ror #26

00009ed8 <kmalloc_heap_ptr>:
    9ed8:	e59f3004 	ldr	r3, [pc, #4]	; 9ee4 <kmalloc_heap_ptr+0xc>
    9edc:	e5930000 	ldr	r0, [r3]
    9ee0:	e12fff1e 	bx	lr
    9ee4:	0000ad60 	andeq	sl, r0, r0, ror #26

00009ee8 <kmalloc_init_set_start>:
    9ee8:	e52de004 	push	{lr}		; (str lr, [sp, #-4]!)
    9eec:	e24dd00c 	sub	sp, sp, #12, 0
    9ef0:	e3510000 	cmp	r1, #0, 0
    9ef4:	0a00000a 	beq	9f24 <kmalloc_init_set_start+0x3c>
    9ef8:	e59f306c 	ldr	r3, [pc, #108]	; 9f6c <kmalloc_init_set_start+0x84>
    9efc:	e5933000 	ldr	r3, [r3]
    9f00:	e1530000 	cmp	r3, r0
    9f04:	8a00000e 	bhi	9f44 <kmalloc_init_set_start+0x5c>
    9f08:	e59f305c 	ldr	r3, [pc, #92]	; 9f6c <kmalloc_init_set_start+0x84>
    9f0c:	e5830000 	str	r0, [r3]
    9f10:	e5830004 	str	r0, [r3, #4]
    9f14:	e0800001 	add	r0, r0, r1
    9f18:	e5830008 	str	r0, [r3, #8]
    9f1c:	e28dd00c 	add	sp, sp, #12, 0
    9f20:	e49df004 	pop	{pc}		; (ldr pc, [sp], #4)
    9f24:	e59f3044 	ldr	r3, [pc, #68]	; 9f70 <kmalloc_init_set_start+0x88>
    9f28:	e58d3000 	str	r3, [sp]
    9f2c:	e3a03030 	mov	r3, #48, 0	; 0x30
    9f30:	e59f203c 	ldr	r2, [pc, #60]	; 9f74 <kmalloc_init_set_start+0x8c>
    9f34:	e59f103c 	ldr	r1, [pc, #60]	; 9f78 <kmalloc_init_set_start+0x90>
    9f38:	e59f003c 	ldr	r0, [pc, #60]	; 9f7c <kmalloc_init_set_start+0x94>
    9f3c:	ebfffc10 	bl	8f84 <printk>
    9f40:	ebfffea0 	bl	99c8 <clean_reboot>
    9f44:	e59f3020 	ldr	r3, [pc, #32]	; 9f6c <kmalloc_init_set_start+0x84>
    9f48:	e5933008 	ldr	r3, [r3, #8]
    9f4c:	e58d3004 	str	r3, [sp, #4]
    9f50:	e58d0000 	str	r0, [sp]
    9f54:	e3a03034 	mov	r3, #52, 0	; 0x34
    9f58:	e59f2014 	ldr	r2, [pc, #20]	; 9f74 <kmalloc_init_set_start+0x8c>
    9f5c:	e59f1014 	ldr	r1, [pc, #20]	; 9f78 <kmalloc_init_set_start+0x90>
    9f60:	e59f0018 	ldr	r0, [pc, #24]	; 9f80 <kmalloc_init_set_start+0x98>
    9f64:	ebfffc06 	bl	8f84 <printk>
    9f68:	ebfffe96 	bl	99c8 <clean_reboot>
    9f6c:	0000ad60 	andeq	sl, r0, r0, ror #26
    9f70:	0000ab6c 	andeq	sl, r0, ip, ror #22
    9f74:	0000acf8 	strdeq	sl, [r0], -r8
    9f78:	0000ab60 	andeq	sl, r0, r0, ror #22
    9f7c:	0000a530 	andeq	sl, r0, r0, lsr r5
    9f80:	0000ab78 	andeq	sl, r0, r8, ror fp

00009f84 <kmalloc_init>:
    9f84:	e92d4010 	push	{r4, lr}
    9f88:	e59f303c 	ldr	r3, [pc, #60]	; 9fcc <kmalloc_init+0x48>
    9f8c:	e5933000 	ldr	r3, [r3]
    9f90:	e3530000 	cmp	r3, #0, 0
    9f94:	1a000006 	bne	9fb4 <kmalloc_init+0x30>
    9f98:	e59f302c 	ldr	r3, [pc, #44]	; 9fcc <kmalloc_init+0x48>
    9f9c:	e3a02001 	mov	r2, #1, 0
    9fa0:	e5832000 	str	r2, [r3]
    9fa4:	e3a01201 	mov	r1, #268435456	; 0x10000000
    9fa8:	e3a00601 	mov	r0, #1048576	; 0x100000
    9fac:	ebffffcd 	bl	9ee8 <kmalloc_init_set_start>
    9fb0:	e8bd8010 	pop	{r4, pc}
    9fb4:	e3a03040 	mov	r3, #64, 0	; 0x40
    9fb8:	e59f2010 	ldr	r2, [pc, #16]	; 9fd0 <kmalloc_init+0x4c>
    9fbc:	e59f1010 	ldr	r1, [pc, #16]	; 9fd4 <kmalloc_init+0x50>
    9fc0:	e59f0010 	ldr	r0, [pc, #16]	; 9fd8 <kmalloc_init+0x54>
    9fc4:	ebfffbee 	bl	8f84 <printk>
    9fc8:	ebfffe7e 	bl	99c8 <clean_reboot>
    9fcc:	0000b198 	muleq	r0, r8, r1
    9fd0:	0000ad10 	andeq	sl, r0, r0, lsl sp
    9fd4:	0000ab60 	andeq	sl, r0, r0, ror #22
    9fd8:	0000abbc 			; <UNDEFINED> instruction: 0x0000abbc

00009fdc <kmalloc_notzero>:
    9fdc:	e52de004 	push	{lr}		; (str lr, [sp, #-4]!)
    9fe0:	e24dd00c 	sub	sp, sp, #12, 0
    9fe4:	e3500000 	cmp	r0, #0, 0
    9fe8:	0a00000a 	beq	a018 <kmalloc_notzero+0x3c>
    9fec:	e2800007 	add	r0, r0, #7, 0
    9ff0:	e3c03007 	bic	r3, r0, #7, 0
    9ff4:	e59f2060 	ldr	r2, [pc, #96]	; a05c <kmalloc_notzero+0x80>
    9ff8:	e5920000 	ldr	r0, [r2]
    9ffc:	e0801003 	add	r1, r0, r3
    a000:	e5821000 	str	r1, [r2]
    a004:	e5922008 	ldr	r2, [r2, #8]
    a008:	e1510002 	cmp	r1, r2
    a00c:	8a000009 	bhi	a038 <kmalloc_notzero+0x5c>
    a010:	e28dd00c 	add	sp, sp, #12, 0
    a014:	e49df004 	pop	{pc}		; (ldr pc, [sp], #4)
    a018:	e59f3040 	ldr	r3, [pc, #64]	; a060 <kmalloc_notzero+0x84>
    a01c:	e58d3000 	str	r3, [sp]
    a020:	e3a03048 	mov	r3, #72, 0	; 0x48
    a024:	e59f2038 	ldr	r2, [pc, #56]	; a064 <kmalloc_notzero+0x88>
    a028:	e59f1038 	ldr	r1, [pc, #56]	; a068 <kmalloc_notzero+0x8c>
    a02c:	e59f0038 	ldr	r0, [pc, #56]	; a06c <kmalloc_notzero+0x90>
    a030:	ebfffbd3 	bl	8f84 <printk>
    a034:	ebfffe63 	bl	99c8 <clean_reboot>
    a038:	e0422000 	sub	r2, r2, r0
    a03c:	e58d2004 	str	r2, [sp, #4]
    a040:	e58d3000 	str	r3, [sp]
    a044:	e3a0304e 	mov	r3, #78, 0	; 0x4e
    a048:	e59f2014 	ldr	r2, [pc, #20]	; a064 <kmalloc_notzero+0x88>
    a04c:	e59f1014 	ldr	r1, [pc, #20]	; a068 <kmalloc_notzero+0x8c>
    a050:	e59f0018 	ldr	r0, [pc, #24]	; a070 <kmalloc_notzero+0x94>
    a054:	ebfffbca 	bl	8f84 <printk>
    a058:	ebfffe5a 	bl	99c8 <clean_reboot>
    a05c:	0000ad60 	andeq	sl, r0, r0, ror #26
    a060:	0000ab70 	andeq	sl, r0, r0, ror fp
    a064:	0000ad20 	andeq	sl, r0, r0, lsr #26
    a068:	0000ab60 	andeq	sl, r0, r0, ror #22
    a06c:	0000a530 	andeq	sl, r0, r0, lsr r5
    a070:	0000abec 	andeq	sl, r0, ip, ror #23

0000a074 <kmalloc>:
    a074:	e92d4030 	push	{r4, r5, lr}
    a078:	e24dd00c 	sub	sp, sp, #12, 0
    a07c:	e2504000 	subs	r4, r0, #0, 0
    a080:	0a000008 	beq	a0a8 <kmalloc+0x34>
    a084:	e1a00004 	mov	r0, r4
    a088:	ebffffd3 	bl	9fdc <kmalloc_notzero>
    a08c:	e1a05000 	mov	r5, r0
    a090:	e1a02004 	mov	r2, r4
    a094:	e3a01000 	mov	r1, #0, 0
    a098:	ebfffb9b 	bl	8f0c <memset>
    a09c:	e1a00005 	mov	r0, r5
    a0a0:	e28dd00c 	add	sp, sp, #12, 0
    a0a4:	e8bd8030 	pop	{r4, r5, pc}
    a0a8:	e59f3018 	ldr	r3, [pc, #24]	; a0c8 <kmalloc+0x54>
    a0ac:	e58d3000 	str	r3, [sp]
    a0b0:	e3a03054 	mov	r3, #84, 0	; 0x54
    a0b4:	e59f2010 	ldr	r2, [pc, #16]	; a0cc <kmalloc+0x58>
    a0b8:	e59f1010 	ldr	r1, [pc, #16]	; a0d0 <kmalloc+0x5c>
    a0bc:	e59f0010 	ldr	r0, [pc, #16]	; a0d4 <kmalloc+0x60>
    a0c0:	ebfffbaf 	bl	8f84 <printk>
    a0c4:	ebfffe3f 	bl	99c8 <clean_reboot>
    a0c8:	0000ab70 	andeq	sl, r0, r0, ror fp
    a0cc:	0000ad30 	andeq	sl, r0, r0, lsr sp
    a0d0:	0000ab60 	andeq	sl, r0, r0, ror #22
    a0d4:	0000a530 	andeq	sl, r0, r0, lsr r5

0000a0d8 <kmalloc_aligned>:
    a0d8:	e52de004 	push	{lr}		; (str lr, [sp, #-4]!)
    a0dc:	e24dd00c 	sub	sp, sp, #12, 0
    a0e0:	e3500000 	cmp	r0, #0, 0
    a0e4:	0a000014 	beq	a13c <kmalloc_aligned+0x64>
    a0e8:	e2613000 	rsb	r3, r1, #0, 0
    a0ec:	e1d13003 	bics	r3, r1, r3
    a0f0:	1a000019 	bne	a15c <kmalloc_aligned+0x84>
    a0f4:	e3510008 	cmp	r1, #8, 0
    a0f8:	33a01008 	movcc	r1, #8, 0
    a0fc:	e59f30c0 	ldr	r3, [pc, #192]	; a1c4 <kmalloc_aligned+0xec>
    a100:	e5932000 	ldr	r2, [r3]
    a104:	e2613000 	rsb	r3, r1, #0, 0
    a108:	e1d1c003 	bics	ip, r1, r3
    a10c:	1a00001b 	bne	a180 <kmalloc_aligned+0xa8>
    a110:	e0822001 	add	r2, r2, r1
    a114:	e2422001 	sub	r2, r2, #1, 0
    a118:	e0033002 	and	r3, r3, r2
    a11c:	e2411001 	sub	r1, r1, #1, 0
    a120:	e1110003 	tst	r1, r3
    a124:	1a00001d 	bne	a1a0 <kmalloc_aligned+0xc8>
    a128:	e59f2094 	ldr	r2, [pc, #148]	; a1c4 <kmalloc_aligned+0xec>
    a12c:	e5823000 	str	r3, [r2]
    a130:	ebffffcf 	bl	a074 <kmalloc>
    a134:	e28dd00c 	add	sp, sp, #12, 0
    a138:	e49df004 	pop	{pc}		; (ldr pc, [sp], #4)
    a13c:	e59f3084 	ldr	r3, [pc, #132]	; a1c8 <kmalloc_aligned+0xf0>
    a140:	e58d3000 	str	r3, [sp]
    a144:	e3a0305f 	mov	r3, #95, 0	; 0x5f
    a148:	e59f207c 	ldr	r2, [pc, #124]	; a1cc <kmalloc_aligned+0xf4>
    a14c:	e59f107c 	ldr	r1, [pc, #124]	; a1d0 <kmalloc_aligned+0xf8>
    a150:	e59f007c 	ldr	r0, [pc, #124]	; a1d4 <kmalloc_aligned+0xfc>
    a154:	ebfffb8a 	bl	8f84 <printk>
    a158:	ebfffe1a 	bl	99c8 <clean_reboot>
    a15c:	eb0000ac 	bl	a414 <rpi_reset_putc>
    a160:	e59f3070 	ldr	r3, [pc, #112]	; a1d8 <kmalloc_aligned+0x100>
    a164:	e58d3000 	str	r3, [sp]
    a168:	e3a03060 	mov	r3, #96, 0	; 0x60
    a16c:	e59f2058 	ldr	r2, [pc, #88]	; a1cc <kmalloc_aligned+0xf4>
    a170:	e59f1058 	ldr	r1, [pc, #88]	; a1d0 <kmalloc_aligned+0xf8>
    a174:	e59f0060 	ldr	r0, [pc, #96]	; a1dc <kmalloc_aligned+0x104>
    a178:	ebfffb81 	bl	8f84 <printk>
    a17c:	ebfffe11 	bl	99c8 <clean_reboot>
    a180:	e59f3058 	ldr	r3, [pc, #88]	; a1e0 <kmalloc_aligned+0x108>
    a184:	e58d3000 	str	r3, [sp]
    a188:	e3a03011 	mov	r3, #17, 0
    a18c:	e59f2050 	ldr	r2, [pc, #80]	; a1e4 <kmalloc_aligned+0x10c>
    a190:	e59f1038 	ldr	r1, [pc, #56]	; a1d0 <kmalloc_aligned+0xf8>
    a194:	e59f0038 	ldr	r0, [pc, #56]	; a1d4 <kmalloc_aligned+0xfc>
    a198:	ebfffb79 	bl	8f84 <printk>
    a19c:	ebfffe09 	bl	99c8 <clean_reboot>
    a1a0:	eb00009b 	bl	a414 <rpi_reset_putc>
    a1a4:	e59f303c 	ldr	r3, [pc, #60]	; a1e8 <kmalloc_aligned+0x110>
    a1a8:	e58d3000 	str	r3, [sp]
    a1ac:	e3a03068 	mov	r3, #104, 0	; 0x68
    a1b0:	e59f2014 	ldr	r2, [pc, #20]	; a1cc <kmalloc_aligned+0xf4>
    a1b4:	e59f1014 	ldr	r1, [pc, #20]	; a1d0 <kmalloc_aligned+0xf8>
    a1b8:	e59f002c 	ldr	r0, [pc, #44]	; a1ec <kmalloc_aligned+0x114>
    a1bc:	ebfffb70 	bl	8f84 <printk>
    a1c0:	ebfffe00 	bl	99c8 <clean_reboot>
    a1c4:	0000ad60 	andeq	sl, r0, r0, ror #26
    a1c8:	0000ab70 	andeq	sl, r0, r0, ror fp
    a1cc:	0000ad38 	andeq	sl, r0, r8, lsr sp
    a1d0:	0000ab60 	andeq	sl, r0, r0, ror #22
    a1d4:	0000a530 	andeq	sl, r0, r0, lsr r5
    a1d8:	0000ac60 	andeq	sl, r0, r0, ror #24
    a1dc:	0000ac2c 	andeq	sl, r0, ip, lsr #24
    a1e0:	0000ac74 	andeq	sl, r0, r4, ror ip
    a1e4:	0000ad48 	andeq	sl, r0, r8, asr #26
    a1e8:	0000acac 	andeq	sl, r0, ip, lsr #25
    a1ec:	0000ac80 	andeq	sl, r0, r0, lsl #25

0000a1f0 <kfree>:
    a1f0:	e12fff1e 	bx	lr

0000a1f4 <kfree_all>:
    a1f4:	e59f3008 	ldr	r3, [pc, #8]	; a204 <kfree_all+0x10>
    a1f8:	e5932004 	ldr	r2, [r3, #4]
    a1fc:	e5832000 	str	r2, [r3]
    a200:	e12fff1e 	bx	lr
    a204:	0000ad60 	andeq	sl, r0, r0, ror #26

0000a208 <kfree_pop>:
    a208:	e59f3048 	ldr	r3, [pc, #72]	; a258 <kfree_pop+0x50>
    a20c:	e5933004 	ldr	r3, [r3, #4]
    a210:	e1530000 	cmp	r3, r0
    a214:	8a000006 	bhi	a234 <kfree_pop+0x2c>
    a218:	e59f3038 	ldr	r3, [pc, #56]	; a258 <kfree_pop+0x50>
    a21c:	e5933008 	ldr	r3, [r3, #8]
    a220:	e1530000 	cmp	r3, r0
    a224:	3a000002 	bcc	a234 <kfree_pop+0x2c>
    a228:	e59f3028 	ldr	r3, [pc, #40]	; a258 <kfree_pop+0x50>
    a22c:	e5830000 	str	r0, [r3]
    a230:	e12fff1e 	bx	lr
    a234:	e52de004 	push	{lr}		; (str lr, [sp, #-4]!)
    a238:	e24dd00c 	sub	sp, sp, #12, 0
    a23c:	e58d0000 	str	r0, [sp]
    a240:	e3a03077 	mov	r3, #119, 0	; 0x77
    a244:	e59f2010 	ldr	r2, [pc, #16]	; a25c <kfree_pop+0x54>
    a248:	e59f1010 	ldr	r1, [pc, #16]	; a260 <kfree_pop+0x58>
    a24c:	e59f0010 	ldr	r0, [pc, #16]	; a264 <kfree_pop+0x5c>
    a250:	ebfffb4b 	bl	8f84 <printk>
    a254:	ebfffddb 	bl	99c8 <clean_reboot>
    a258:	0000ad60 	andeq	sl, r0, r0, ror #26
    a25c:	0000ad50 	andeq	sl, r0, r0, asr sp
    a260:	0000ab60 	andeq	sl, r0, r0, ror #22
    a264:	0000acc8 	andeq	sl, r0, r8, asr #25

0000a268 <gpio_set_function>:
    a268:	e350001f 	cmp	r0, #31, 0
    a26c:	812fff1e 	bxhi	lr
    a270:	e3d13007 	bics	r3, r1, #7, 0
    a274:	e92d4070 	push	{r4, r5, r6, lr}
    a278:	e1a05001 	mov	r5, r1
    a27c:	18bd8070 	popne	{r4, r5, r6, pc}
    a280:	e59f403c 	ldr	r4, [pc, #60]	; a2c4 <gpio_set_function+0x5c>
    a284:	e0843094 	umull	r3, r4, r4, r0
    a288:	e1a041a4 	lsr	r4, r4, #3
    a28c:	e2843302 	add	r3, r4, #134217728	; 0x8000000
    a290:	e2833702 	add	r3, r3, #524288	; 0x80000
    a294:	e1a06103 	lsl	r6, r3, #2
    a298:	e0844104 	add	r4, r4, r4, lsl #2
    a29c:	e0404084 	sub	r4, r0, r4, lsl #1
    a2a0:	e1a00006 	mov	r0, r6
    a2a4:	ebfff760 	bl	802c <GET32>
    a2a8:	e3a01007 	mov	r1, #7, 0
    a2ac:	e0844084 	add	r4, r4, r4, lsl #1
    a2b0:	e1c01411 	bic	r1, r0, r1, lsl r4
    a2b4:	e1811415 	orr	r1, r1, r5, lsl r4
    a2b8:	e1a00006 	mov	r0, r6
    a2bc:	e8bd4070 	pop	{r4, r5, r6, lr}
    a2c0:	eafff757 	b	8024 <PUT32>
    a2c4:	cccccccd 	stclgt	12, cr12, [ip], {205}	; 0xcd

0000a2c8 <gpio_set_output>:
    a2c8:	e350001f 	cmp	r0, #31, 0
    a2cc:	812fff1e 	bxhi	lr
    a2d0:	e92d4070 	push	{r4, r5, r6, lr}
    a2d4:	e59f4040 	ldr	r4, [pc, #64]	; a31c <gpio_set_output+0x54>
    a2d8:	e0843094 	umull	r3, r4, r4, r0
    a2dc:	e1a041a4 	lsr	r4, r4, #3
    a2e0:	e2843302 	add	r3, r4, #134217728	; 0x8000000
    a2e4:	e2833702 	add	r3, r3, #524288	; 0x80000
    a2e8:	e1a05103 	lsl	r5, r3, #2
    a2ec:	e0844104 	add	r4, r4, r4, lsl #2
    a2f0:	e0404084 	sub	r4, r0, r4, lsl #1
    a2f4:	e1a00005 	mov	r0, r5
    a2f8:	ebfff74b 	bl	802c <GET32>
    a2fc:	e3a03007 	mov	r3, #7, 0
    a300:	e3a01001 	mov	r1, #1, 0
    a304:	e0844084 	add	r4, r4, r4, lsl #1
    a308:	e1c03413 	bic	r3, r0, r3, lsl r4
    a30c:	e1831411 	orr	r1, r3, r1, lsl r4
    a310:	e1a00005 	mov	r0, r5
    a314:	e8bd4070 	pop	{r4, r5, r6, lr}
    a318:	eafff741 	b	8024 <PUT32>
    a31c:	cccccccd 	stclgt	12, cr12, [ip], {205}	; 0xcd

0000a320 <gpio_set_on>:
    a320:	e1a03000 	mov	r3, r0
    a324:	e3a01001 	mov	r1, #1, 0
    a328:	e59f0004 	ldr	r0, [pc, #4]	; a334 <gpio_set_on+0x14>
    a32c:	e1a01311 	lsl	r1, r1, r3
    a330:	eafff73b 	b	8024 <PUT32>
    a334:	2020001c 	eorcs	r0, r0, ip, lsl r0

0000a338 <gpio_set_off>:
    a338:	e1a03000 	mov	r3, r0
    a33c:	e3a01001 	mov	r1, #1, 0
    a340:	e59f0004 	ldr	r0, [pc, #4]	; a34c <gpio_set_off+0x14>
    a344:	e1a01311 	lsl	r1, r1, r3
    a348:	eafff735 	b	8024 <PUT32>
    a34c:	20200028 	eorcs	r0, r0, r8, lsr #32

0000a350 <gpio_set_input>:
    a350:	e350001f 	cmp	r0, #31, 0
    a354:	812fff1e 	bxhi	lr
    a358:	e92d4070 	push	{r4, r5, r6, lr}
    a35c:	e59f5040 	ldr	r5, [pc, #64]	; a3a4 <gpio_set_input+0x54>
    a360:	e1a04000 	mov	r4, r0
    a364:	e0853095 	umull	r3, r5, r5, r0
    a368:	e1a051a5 	lsr	r5, r5, #3
    a36c:	e2850302 	add	r0, r5, #134217728	; 0x8000000
    a370:	e2800702 	add	r0, r0, #524288	; 0x80000
    a374:	e1a06100 	lsl	r6, r0, #2
    a378:	e1a00006 	mov	r0, r6
    a37c:	ebfff72a 	bl	802c <GET32>
    a380:	e3a01007 	mov	r1, #7, 0
    a384:	e1a03000 	mov	r3, r0
    a388:	e0855105 	add	r5, r5, r5, lsl #2
    a38c:	e0444085 	sub	r4, r4, r5, lsl #1
    a390:	e0844084 	add	r4, r4, r4, lsl #1
    a394:	e1a00006 	mov	r0, r6
    a398:	e1c31411 	bic	r1, r3, r1, lsl r4
    a39c:	e8bd4070 	pop	{r4, r5, r6, lr}
    a3a0:	eafff71f 	b	8024 <PUT32>
    a3a4:	cccccccd 	stclgt	12, cr12, [ip], {205}	; 0xcd

0000a3a8 <gpio_write>:
    a3a8:	e3510000 	cmp	r1, #0, 0
    a3ac:	e3a03001 	mov	r3, #1, 0
    a3b0:	e1a01000 	mov	r1, r0
    a3b4:	0a000002 	beq	a3c4 <gpio_write+0x1c>
    a3b8:	e59f0010 	ldr	r0, [pc, #16]	; a3d0 <gpio_write+0x28>
    a3bc:	e1a01113 	lsl	r1, r3, r1
    a3c0:	eafff717 	b	8024 <PUT32>
    a3c4:	e59f0008 	ldr	r0, [pc, #8]	; a3d4 <gpio_write+0x2c>
    a3c8:	e1a01113 	lsl	r1, r3, r1
    a3cc:	eafff714 	b	8024 <PUT32>
    a3d0:	2020001c 	eorcs	r0, r0, ip, lsl r0
    a3d4:	20200028 	eorcs	r0, r0, r8, lsr #32

0000a3d8 <gpio_read>:
    a3d8:	e92d4010 	push	{r4, lr}
    a3dc:	e1a04000 	mov	r4, r0
    a3e0:	e59f0014 	ldr	r0, [pc, #20]	; a3fc <gpio_read+0x24>
    a3e4:	e08002a4 	add	r0, r0, r4, lsr #5
    a3e8:	ebfff70f 	bl	802c <GET32>
    a3ec:	e204401f 	and	r4, r4, #31, 0
    a3f0:	e1a00430 	lsr	r0, r0, r4
    a3f4:	e2000001 	and	r0, r0, #1, 0
    a3f8:	e8bd8010 	pop	{r4, pc}
    a3fc:	20200034 	eorcs	r0, r0, r4, lsr r0

0000a400 <internal_putchar>:
    a400:	e92d4010 	push	{r4, lr}
    a404:	e1a04000 	mov	r4, r0
    a408:	ebfffe84 	bl	9e20 <uart_putc>
    a40c:	e1a00004 	mov	r0, r4
    a410:	e8bd8010 	pop	{r4, pc}

0000a414 <rpi_reset_putc>:
    a414:	e59f3008 	ldr	r3, [pc, #8]	; a424 <rpi_reset_putc+0x10>
    a418:	e59f2008 	ldr	r2, [pc, #8]	; a428 <rpi_reset_putc+0x14>
    a41c:	e5832000 	str	r2, [r3]
    a420:	e12fff1e 	bx	lr
    a424:	0000ad6c 	andeq	sl, r0, ip, ror #26
    a428:	0000a400 	andeq	sl, r0, r0, lsl #8

0000a42c <rpi_set_putc>:
    a42c:	e59f3004 	ldr	r3, [pc, #4]	; a438 <rpi_set_putc+0xc>
    a430:	e5830000 	str	r0, [r3]
    a434:	e12fff1e 	bx	lr
    a438:	0000ad6c 	andeq	sl, r0, ip, ror #26

0000a43c <strcat>:
    a43c:	e1a02000 	mov	r2, r0
    a440:	e1a03002 	mov	r3, r2
    a444:	e4d2c001 	ldrb	ip, [r2], #1
    a448:	e35c0000 	cmp	ip, #0, 0
    a44c:	1afffffb 	bne	a440 <strcat+0x4>
    a450:	e2433001 	sub	r3, r3, #1, 0
    a454:	e4d12001 	ldrb	r2, [r1], #1
    a458:	e3520000 	cmp	r2, #0, 0
    a45c:	e5e32001 	strb	r2, [r3, #1]!
    a460:	1afffffb 	bne	a454 <strcat+0x18>
    a464:	e12fff1e 	bx	lr

0000a468 <strcmp>:
    a468:	e5d03000 	ldrb	r3, [r0]
    a46c:	e3530000 	cmp	r3, #0, 0
    a470:	05d12000 	ldrbeq	r2, [r1]
    a474:	1a000003 	bne	a488 <strcmp+0x20>
    a478:	ea000006 	b	a498 <strcmp+0x30>
    a47c:	e5f03001 	ldrb	r3, [r0, #1]!
    a480:	e3530000 	cmp	r3, #0, 0
    a484:	0a000005 	beq	a4a0 <strcmp+0x38>
    a488:	e1a0c001 	mov	ip, r1
    a48c:	e4d12001 	ldrb	r2, [r1], #1
    a490:	e1520003 	cmp	r2, r3
    a494:	0afffff8 	beq	a47c <strcmp+0x14>
    a498:	e0430002 	sub	r0, r3, r2
    a49c:	e12fff1e 	bx	lr
    a4a0:	e5dc2001 	ldrb	r2, [ip, #1]
    a4a4:	e0430002 	sub	r0, r3, r2
    a4a8:	e12fff1e 	bx	lr

0000a4ac <strcpy>:
    a4ac:	e2402001 	sub	r2, r0, #1, 0
    a4b0:	e4d13001 	ldrb	r3, [r1], #1
    a4b4:	e3530000 	cmp	r3, #0, 0
    a4b8:	e5e23001 	strb	r3, [r2, #1]!
    a4bc:	1afffffb 	bne	a4b0 <strcpy+0x4>
    a4c0:	e12fff1e 	bx	lr

0000a4c4 <strncmp>:
    a4c4:	e0802002 	add	r2, r0, r2
    a4c8:	ea000003 	b	a4dc <strncmp+0x18>
    a4cc:	e4d03001 	ldrb	r3, [r0], #1
    a4d0:	e4d1c001 	ldrb	ip, [r1], #1
    a4d4:	e153000c 	cmp	r3, ip
    a4d8:	1a000003 	bne	a4ec <strncmp+0x28>
    a4dc:	e1500002 	cmp	r0, r2
    a4e0:	1afffff9 	bne	a4cc <strncmp+0x8>
    a4e4:	e3a00000 	mov	r0, #0, 0
    a4e8:	e12fff1e 	bx	lr
    a4ec:	e043000c 	sub	r0, r3, ip
    a4f0:	e12fff1e 	bx	lr

0000a4f4 <reboot_callout>:
    a4f4:	e12fff1e 	bx	lr

0000a4f8 <dev_barrier>:
    a4f8:	ea000002 	b	a508 <dsb>

0000a4fc <dmb>:
    a4fc:	e3a00000 	mov	r0, #0, 0
    a500:	ee070fba 	mcr	15, 0, r0, cr7, cr10, {5}
    a504:	e12fff1e 	bx	lr

0000a508 <dsb>:
    a508:	ee070f9a 	mcr	15, 0, r0, cr7, cr10, {4}
    a50c:	e12fff1e 	bx	lr

Disassembly of section .rodata:

0000a510 <__FUNCTION__.4037-0xa8>:
    a510:	74736574 	ldrbtvc	r6, [r3], #-1396	; 0xfffffa8c
    a514:	2e322d73 	mrccs	13, 1, r2, cr2, cr3, {3}
    a518:	61702f30 	cmnvs	r0, r0, lsr pc
    a51c:	2d327472 	cfldrscs	mvf7, [r2, #-456]!	; 0xfffffe38
    a520:	74736574 	ldrbtvc	r6, [r3], #-1396	; 0xfffffa8c
    a524:	6f6e2d34 	svcvs	0x006e2d34
    a528:	61656c2d 	cmnvs	r5, sp, lsr #24
    a52c:	00632e6b 	rsbeq	r2, r3, fp, ror #28
    a530:	494e4150 	stmdbmi	lr, {r4, r6, r8, lr}^
    a534:	73253a43 			; <UNDEFINED> instruction: 0x73253a43
    a538:	3a73253a 	bcc	1cd3a28 <__bss_end__+0x1cc8888>
    a53c:	253a6425 	ldrcs	r6, [sl, #-1061]!	; 0xfffffbdb
    a540:	00000a73 	andeq	r0, r0, r3, ror sl
    a544:	3e2d6821 	cdpcc	8, 2, cr6, cr13, cr1, {1}
    a548:	76657270 			; <UNDEFINED> instruction: 0x76657270
    a54c:	00000000 	andeq	r0, r0, r0
    a550:	74204347 	strtvc	r4, [r0], #-839	; 0xfffffcb9
    a554:	3a747365 	bcc	1d272f0 <__bss_end__+0x1d1c150>
    a558:	65686320 	strbvs	r6, [r8, #-800]!	; 0xfffffce0
    a55c:	6e696b63 	vnmulvs.f64	d22, d9, d19
    a560:	68742067 	ldmdavs	r4!, {r0, r1, r2, r5, r6, sp}^
    a564:	61207461 			; <UNDEFINED> instruction: 0x61207461
    a568:	756f6420 	strbvc	r6, [pc, #-1056]!	; a150 <kmalloc_aligned+0x78>
    a56c:	2d796c62 	ldclcs	12, cr6, [r9, #-392]!	; 0xfffffe78
    a570:	6b6e696c 	blvs	1ba4b28 <__bss_end__+0x1b99988>
    a574:	6c206465 	cfstrsvs	mvf6, [r0], #-404	; 0xfffffe6c
    a578:	20747369 	rsbscs	r7, r4, r9, ror #6
    a57c:	68207369 	stmdavs	r0!, {r0, r3, r5, r6, r8, r9, ip, sp, lr}
    a580:	6c646e61 	stclvs	14, cr6, [r4], #-388	; 0xfffffe7c
    a584:	0a2e6465 	beq	ba3720 <__bss_end__+0xb98580>
    a588:	00000000 	andeq	r0, r0, r0
    a58c:	43415254 	movtmi	r5, #4692	; 0x1254
    a590:	616c3a45 	cmnvs	ip, r5, asr #20
    a594:	61207473 			; <UNDEFINED> instruction: 0x61207473
    a598:	636f6c6c 	cmnvs	pc, #108, 24	; 0x6c00
    a59c:	62203d20 	eorvs	r3, r0, #32, 26	; 0x800
    a5a0:	6b636f6c 	blvs	18e6358 <__bss_end__+0x18db1b8>
    a5a4:	3d646920 			; <UNDEFINED> instruction: 0x3d646920
    a5a8:	5b207525 	blpl	827a44 <__bss_end__+0x81c8a4>
    a5ac:	72646461 	rsbvc	r6, r4, #1627389952	; 0x61000000
    a5b0:	5d70253d 	cfldr64pl	mvdx2, [r0, #-244]!	; 0xffffff0c
    a5b4:	0000000a 	andeq	r0, r0, sl

0000a5b8 <__FUNCTION__.4037>:
    a5b8:	74736574 	ldrbtvc	r6, [r3], #-1396	; 0xfffffa8c
    a5bc:	00000000 	andeq	r0, r0, r0
    a5c0:	6e756f66 	cdpvs	15, 7, cr6, cr5, cr6, {3}
    a5c4:	70252064 	eorvc	r2, r5, r4, rrx
    a5c8:	206e6920 	rsbcs	r6, lr, r0, lsr #18
    a5cc:	000a7025 	andeq	r7, sl, r5, lsr #32
    a5d0:	253a7325 	ldrcs	r7, [sl, #-805]!	; 0xfffffcdb
    a5d4:	64253a73 	strtvs	r3, [r5], #-2675	; 0xfffff58d
    a5d8:	0000003a 	andeq	r0, r0, sl, lsr r0
    a5dc:	65657266 	strbvs	r7, [r5, #-614]!	; 0xfffffd9a
    a5e0:	20676e69 	rsbcs	r6, r7, r9, ror #28
    a5e4:	0a702509 	beq	1c13a10 <__bss_end__+0x1c08870>
    a5e8:	00000000 	andeq	r0, r0, r0
    a5ec:	5f434f4c 	svcpl	0x00434f4c
    a5f0:	494e4150 	stmdbmi	lr, {r4, r6, r8, lr}^
    a5f4:	25203a43 	strcs	r3, [r0, #-2627]!	; 0xfffff5bd
    a5f8:	73253a73 			; <UNDEFINED> instruction: 0x73253a73
    a5fc:	3a64253a 	bcc	1913aec <__bss_end__+0x190894c>
    a600:	00000000 	andeq	r0, r0, r0
    a604:	65657266 	strbvs	r7, [r5, #-614]!	; 0xfffffd9a
    a608:	20676e69 	rsbcs	r6, r7, r9, ror #28
    a60c:	6c616e75 	stclvs	14, cr6, [r1], #-468	; 0xfffffe2c
    a610:	61636f6c 	cmnvs	r3, ip, ror #30
    a614:	20646574 	rsbcs	r6, r4, r4, ror r5
    a618:	6f6d656d 	svcvs	0x006d656d
    a61c:	203a7972 	eorscs	r7, sl, r2, ror r9
    a620:	74617473 	strbtvc	r7, [r1], #-1139	; 0xfffffb8d
    a624:	64253d65 	strtvs	r3, [r5], #-3429	; 0xfffff29b
    a628:	0000000a 	andeq	r0, r0, sl
    a62c:	7a646572 	bvc	1923bfc <__bss_end__+0x1918a5c>
    a630:	20656e6f 	rsbcs	r6, r5, pc, ror #28
    a634:	77203123 	strvc	r3, [r0, -r3, lsr #2]!
    a638:	63207361 			; <UNDEFINED> instruction: 0x63207361
    a63c:	7572726f 	ldrbvc	r7, [r2, #-623]!	; 0xfffffd91
    a640:	64657470 	strbtvs	r7, [r5], #-1136	; 0xfffffb90
    a644:	00000a21 	andeq	r0, r0, r1, lsr #20
    a648:	7a646572 	bvc	1923c18 <__bss_end__+0x1918a78>
    a64c:	20656e6f 	rsbcs	r6, r5, pc, ror #28
    a650:	77203223 	strvc	r3, [r0, -r3, lsr #4]!
    a654:	63207361 			; <UNDEFINED> instruction: 0x63207361
    a658:	7572726f 	ldrbvc	r7, [r2, #-623]!	; 0xfffffd91
    a65c:	64657470 	strbtvs	r7, [r5], #-1136	; 0xfffffb90
    a660:	00000a21 	andeq	r0, r0, r1, lsr #20
    a664:	6f6c6c61 	svcvs	0x006c6c61
    a668:	69746163 	ldmdbvs	r4!, {r0, r1, r5, r6, r8, sp, lr}^
    a66c:	2520676e 	strcs	r6, [r0, #-1902]!	; 0xfffff892
    a670:	25282070 	strcs	r2, [r8, #-112]!	; 0xffffff90
    a674:	79622064 	stmdbvc	r2!, {r2, r5, r6, sp}^
    a678:	29736574 	ldmdbcs	r3!, {r2, r4, r5, r6, r8, sl, sp, lr}^
    a67c:	0000000a 	andeq	r0, r0, sl
    a680:	75716552 	ldrbvc	r6, [r1, #-1362]!	; 0xfffffaae
    a684:	74737265 	ldrbtvc	r7, [r3], #-613	; 0xfffffd9b
    a688:	20676e69 	rsbcs	r6, r7, r9, ror #28
    a68c:	65726f6d 	ldrbvs	r6, [r2, #-3949]!	; 0xfffff093
    a690:	6d656d20 	stclvs	13, cr6, [r5, #-128]!	; 0xffffff80
    a694:	2079726f 	rsbscs	r7, r9, pc, ror #4
    a698:	29642528 	stmdbcs	r4!, {r3, r5, r8, sl, sp}^
    a69c:	0a2e2e2e 	beq	b95f5c <__bss_end__+0xb8adbc>
    a6a0:	00000000 	andeq	r0, r0, r0
    a6a4:	672d6b63 	strvs	r6, [sp, -r3, ror #22]!
    a6a8:	00632e63 	rsbeq	r2, r3, r3, ror #28
    a6ac:	203c2070 	eorscs	r2, ip, r0, ror r0
    a6b0:	00000065 	andeq	r0, r0, r5, rrx
    a6b4:	67696c61 	strbvs	r6, [r9, -r1, ror #24]!
    a6b8:	2864656e 	stmdacs	r4!, {r1, r2, r3, r5, r6, r8, sl, sp, lr}^
    a6bc:	34202c70 	strtcc	r2, [r0], #-3184	; 0xfffff390
    a6c0:	00000029 	andeq	r0, r0, r9, lsr #32
    a6c4:	67696c61 	strbvs	r6, [r9, -r1, ror #24]!
    a6c8:	2864656e 	stmdacs	r4!, {r1, r2, r3, r5, r6, r8, sl, sp, lr}^
    a6cc:	34202c65 	strtcc	r2, [r0], #-3173	; 0xfffff39b
    a6d0:	00000029 	andeq	r0, r0, r9, lsr #32
    a6d4:	63656863 	cmnvs	r5, #6488064	; 0x630000
    a6d8:	676e696b 	strbvs	r6, [lr, -fp, ror #18]!
    a6dc:	61747320 	cmnvs	r4, r0, lsr #6
    a6e0:	203a6b63 	eorscs	r6, sl, r3, ror #22
    a6e4:	74207025 	strtvc	r7, [r0], #-37	; 0xffffffdb
    a6e8:	7025206f 	eorvc	r2, r5, pc, rrx
    a6ec:	0000000a 	andeq	r0, r0, sl
    a6f0:	2d2d2d2d 	stccs	13, cr2, [sp, #-180]!	; 0xffffff4c
    a6f4:	2d2d2d2d 	stccs	13, cr2, [sp, #-180]!	; 0xffffff4c
    a6f8:	2d2d2d2d 	stccs	13, cr2, [sp, #-180]!	; 0xffffff4c
    a6fc:	2d2d2d2d 	stccs	13, cr2, [sp, #-180]!	; 0xffffff4c
    a700:	2d2d2d2d 	stccs	13, cr2, [sp, #-180]!	; 0xffffff4c
    a704:	2d2d2d2d 	stccs	13, cr2, [sp, #-180]!	; 0xffffff4c
    a708:	2d2d2d2d 	stccs	13, cr2, [sp, #-180]!	; 0xffffff4c
    a70c:	2d2d2d2d 	stccs	13, cr2, [sp, #-180]!	; 0xffffff4c
    a710:	2d2d2d2d 	stccs	13, cr2, [sp, #-180]!	; 0xffffff4c
    a714:	2d2d2d2d 	stccs	13, cr2, [sp, #-180]!	; 0xffffff4c
    a718:	2d2d2d2d 	stccs	13, cr2, [sp, #-180]!	; 0xffffff4c
    a71c:	2d2d2d2d 	stccs	13, cr2, [sp, #-180]!	; 0xffffff4c
    a720:	2d2d2d2d 	stccs	13, cr2, [sp, #-180]!	; 0xffffff4c
    a724:	2d2d2d2d 	stccs	13, cr2, [sp, #-180]!	; 0xffffff4c
    a728:	00000a2d 	andeq	r0, r0, sp, lsr #20
    a72c:	63656863 	cmnvs	r5, #6488064	; 0x630000
    a730:	676e696b 	strbvs	r6, [lr, -fp, ror #18]!
    a734:	726f6620 	rsbvc	r6, pc, #32, 12	; 0x2000000
    a738:	61656c20 	cmnvs	r5, r0, lsr #24
    a73c:	0a3a736b 	beq	ea74f0 <__bss_end__+0xe9c350>
    a740:	00000000 	andeq	r0, r0, r0
    a744:	4c3a4347 	ldcmi	3, cr4, [sl], #-284	; 0xfffffee4
    a748:	2054534f 	subscs	r5, r4, pc, asr #6
    a74c:	2d206425 	cfstrscs	mvf6, [r0, #-148]!	; 0xffffff6c
    a750:	7025203e 	eorvc	r2, r5, lr, lsr r0
    a754:	0000000a 	andeq	r0, r0, sl
    a758:	4d3a4347 	ldcmi	3, cr4, [sl, #-284]!	; 0xfffffee4
    a75c:	45425941 	strbmi	r5, [r2, #-2369]	; 0xfffff6bf
    a760:	534f4c20 	movtpl	r4, #64544	; 0xfc20
    a764:	64252054 	strtvs	r2, [r5], #-84	; 0xffffffac
    a768:	203e2d20 	eorscs	r2, lr, r0, lsr #26
    a76c:	000a7025 	andeq	r7, sl, r5, lsr #32
    a770:	43415254 	movtmi	r5, #4692	; 0x1254
    a774:	47093a45 	strmi	r3, [r9, -r5, asr #20]
    a778:	68433a43 	stmdavs	r3, {r0, r1, r6, r9, fp, ip, sp}^
    a77c:	656b6365 	strbvs	r6, [fp, #-869]!	; 0xfffffc9b
    a780:	64252064 	strtvs	r2, [r5], #-100	; 0xffffff9c
    a784:	6f6c6220 	svcvs	0x006c6220
    a788:	2e736b63 	vsubcs.f64	d22, d3, d19
    a78c:	0000000a 	andeq	r0, r0, sl
    a790:	43415254 	movtmi	r5, #4692	; 0x1254
    a794:	09093a45 	stmdbeq	r9, {r0, r2, r6, r9, fp, ip, sp}
    a798:	533a4347 	teqpl	sl, #469762049	; 0x1c000001
    a79c:	45434355 	strbmi	r4, [r3, #-853]	; 0xfffffcab
    a7a0:	203a5353 	eorscs	r5, sl, r3, asr r3
    a7a4:	6c206f4e 	stcvs	15, cr6, [r0], #-312	; 0xfffffec8
    a7a8:	736b6165 	cmnvc	fp, #1073741849	; 0x40000019
    a7ac:	756f6620 	strbvc	r6, [pc, #-1568]!	; a194 <kmalloc_aligned+0xbc>
    a7b0:	0a21646e 	beq	863970 <__bss_end__+0x8587d0>
    a7b4:	00000000 	andeq	r0, r0, r0
    a7b8:	43415254 	movtmi	r5, #4692	; 0x1254
    a7bc:	09093a45 	stmdbeq	r9, {r0, r2, r6, r9, fp, ip, sp}
    a7c0:	453a4347 	ldrmi	r4, [sl, #-839]!	; 0xfffffcb9
    a7c4:	524f5252 	subpl	r5, pc, #536870917	; 0x20000005
    a7c8:	25203a53 	strcs	r3, [r0, #-2643]!	; 0xfffff5ad
    a7cc:	72652064 	rsbvc	r2, r5, #100, 0	; 0x64
    a7d0:	73726f72 	cmnvc	r2, #456	; 0x1c8
    a7d4:	6425202c 	strtvs	r2, [r5], #-44	; 0xffffffd4
    a7d8:	79616d20 	stmdbvc	r1!, {r5, r8, sl, fp, sp, lr}^
    a7dc:	655f6562 	ldrbvs	r6, [pc, #-1378]	; a282 <gpio_set_function+0x1a>
    a7e0:	726f7272 	rsbvc	r7, pc, #536870919	; 0x20000007
    a7e4:	00000a73 	andeq	r0, r0, r3, ror sl
    a7e8:	2d2d2d2d 	stccs	13, cr2, [sp, #-180]!	; 0xffffff4c
    a7ec:	2d2d2d2d 	stccs	13, cr2, [sp, #-180]!	; 0xffffff4c
    a7f0:	2d2d2d2d 	stccs	13, cr2, [sp, #-180]!	; 0xffffff4c
    a7f4:	2d2d2d2d 	stccs	13, cr2, [sp, #-180]!	; 0xffffff4c
    a7f8:	2d2d2d2d 	stccs	13, cr2, [sp, #-180]!	; 0xffffff4c
    a7fc:	2d2d2d2d 	stccs	13, cr2, [sp, #-180]!	; 0xffffff4c
    a800:	2d2d2d2d 	stccs	13, cr2, [sp, #-180]!	; 0xffffff4c
    a804:	2d2d2d2d 	stccs	13, cr2, [sp, #-180]!	; 0xffffff4c
    a808:	2d2d2d2d 	stccs	13, cr2, [sp, #-180]!	; 0xffffff4c
    a80c:	2d2d2d2d 	stccs	13, cr2, [sp, #-180]!	; 0xffffff4c
    a810:	2d2d2d2d 	stccs	13, cr2, [sp, #-180]!	; 0xffffff4c
    a814:	2d2d2d2d 	stccs	13, cr2, [sp, #-180]!	; 0xffffff4c
    a818:	2d2d2d2d 	stccs	13, cr2, [sp, #-180]!	; 0xffffff4c
    a81c:	2d2d2d2d 	stccs	13, cr2, [sp, #-180]!	; 0xffffff4c
    a820:	000a2d2d 	andeq	r2, sl, sp, lsr #26
    a824:	706d6f63 	rsbvc	r6, sp, r3, ror #30
    a828:	69746361 	ldmdbvs	r4!, {r0, r5, r6, r8, r9, sp, lr}^
    a82c:	0a3a676e 	beq	ea45ec <__bss_end__+0xe9944c>
    a830:	00000000 	andeq	r0, r0, r0
    a834:	463a4347 	ldrtmi	r4, [sl], -r7, asr #6
    a838:	44454552 	strbmi	r4, [r5], #-1362	; 0xfffffaae
    a83c:	0a702520 	beq	1c13cc4 <__bss_end__+0x1c08b24>
    a840:	00000000 	andeq	r0, r0, r0
    a844:	43415254 	movtmi	r5, #4692	; 0x1254
    a848:	47093a45 	strmi	r3, [r9, -r5, asr #20]
    a84c:	68433a43 	stmdavs	r3, {r0, r1, r6, r9, fp, ip, sp}^
    a850:	656b6365 	strbvs	r6, [fp, #-869]!	; 0xfffffc9b
    a854:	64252064 	strtvs	r2, [r5], #-100	; 0xffffff9c
    a858:	6f6c6220 	svcvs	0x006c6220
    a85c:	2c736b63 			; <UNDEFINED> instruction: 0x2c736b63
    a860:	65726620 	ldrbvs	r6, [r2, #-1568]!	; 0xfffff9e0
    a864:	25206465 	strcs	r6, [r0, #-1125]!	; 0xfffffb9b
    a868:	25202c64 	strcs	r2, [r0, #-3172]!	; 0xfffff39c
    a86c:	79622064 	stmdbvc	r2!, {r2, r5, r6, sp}^
    a870:	0a736574 	beq	1ce3e48 <__bss_end__+0x1cd8ca8>
    a874:	00000000 	andeq	r0, r0, r0
    a878:	72636e69 	rsbvc	r6, r3, #1680	; 0x690
    a87c:	6e656d65 	cdpvs	13, 6, cr6, cr5, cr5, {3}
    a880:	203e2074 	eorscs	r2, lr, r4, ror r0
    a884:	00000030 	andeq	r0, r0, r0, lsr r0
    a888:	494e4150 	stmdbmi	lr, {r4, r6, r8, lr}^
    a88c:	73253a43 			; <UNDEFINED> instruction: 0x73253a43
    a890:	3a73253a 	bcc	1cd3d80 <__bss_end__+0x1cc8be0>
    a894:	6e3a6425 	cdpvs	4, 3, cr6, cr10, cr5, {1}
    a898:	6820746f 	stmdavs	r0!, {r0, r1, r2, r3, r5, r6, sl, ip, sp, lr}
    a89c:	6c646e61 	stclvs	14, cr6, [r4], #-388	; 0xfffffe7c
    a8a0:	0a676e69 	beq	19e624c <__bss_end__+0x19db0ac>
    a8a4:	0000000a 	andeq	r0, r0, sl
    a8a8:	494e4150 	stmdbmi	lr, {r4, r6, r8, lr}^
    a8ac:	73253a43 			; <UNDEFINED> instruction: 0x73253a43
    a8b0:	3a73253a 	bcc	1cd3da0 <__bss_end__+0x1cc8c00>
    a8b4:	473a6425 	ldrmi	r6, [sl, -r5, lsr #8]!
    a8b8:	73203a43 			; <UNDEFINED> instruction: 0x73203a43
    a8bc:	6c756f68 	ldclvs	15, cr6, [r5], #-416	; 0xfffffe60
    a8c0:	61682064 	cmnvs	r8, r4, rrx
    a8c4:	6e206576 	mcrvs	5, 1, r6, cr0, cr6, {3}
    a8c8:	656c206f 	strbvs	r2, [ip, #-111]!	; 0xffffff91
    a8cc:	21736b61 	cmncs	r3, r1, ror #22
    a8d0:	00000a0a 	andeq	r0, r0, sl, lsl #20
    a8d4:	43415254 	movtmi	r5, #4692	; 0x1254
    a8d8:	43473a45 	movtmi	r3, #31301	; 0x7a45
    a8dc:	5553203a 	ldrbpl	r2, [r3, #-58]	; 0xffffffc6
    a8e0:	53454343 	movtpl	r4, #21315	; 0x5343
    a8e4:	6e203a53 			; <UNDEFINED> instruction: 0x6e203a53
    a8e8:	656c206f 	strbvs	r2, [ip, #-111]!	; 0xffffff91
    a8ec:	21736b61 	cmncs	r3, r1, ror #22
    a8f0:	0000000a 	andeq	r0, r0, sl
    a8f4:	494e4150 	stmdbmi	lr, {r4, r6, r8, lr}^
    a8f8:	73253a43 			; <UNDEFINED> instruction: 0x73253a43
    a8fc:	3a73253a 	bcc	1cd3dec <__bss_end__+0x1cc8c4c>
    a900:	473a6425 	ldrmi	r6, [sl, -r5, lsr #8]!
    a904:	73203a43 			; <UNDEFINED> instruction: 0x73203a43
    a908:	6c756f68 	ldclvs	15, cr6, [r5], #-416	; 0xfffffe60
    a90c:	61682064 	cmnvs	r8, r4, rrx
    a910:	6c206576 	cfstr32vs	mvfx6, [r0], #-472	; 0xfffffe28
    a914:	736b6165 	cmnvc	fp, #1073741849	; 0x40000019
    a918:	000a0a21 	andeq	r0, sl, r1, lsr #20
    a91c:	43415254 	movtmi	r5, #4692	; 0x1254
    a920:	43473a45 	movtmi	r3, #31301	; 0x7a45
    a924:	5553203a 	ldrbpl	r2, [r3, #-58]	; 0xffffffc6
    a928:	53454343 	movtpl	r4, #21315	; 0x5343
    a92c:	66203a53 			; <UNDEFINED> instruction: 0x66203a53
    a930:	646e756f 	strbtvs	r7, [lr], #-1391	; 0xfffffa91
    a934:	20642520 	rsbcs	r2, r4, r0, lsr #10
    a938:	6b61656c 	blvs	1863ef0 <__bss_end__+0x1858d50>
    a93c:	000a2173 	andeq	r2, sl, r3, ror r1
    a940:	494e4150 	stmdbmi	lr, {r4, r6, r8, lr}^
    a944:	73253a43 			; <UNDEFINED> instruction: 0x73253a43
    a948:	3a73253a 	bcc	1cd3e38 <__bss_end__+0x1cc8c98>
    a94c:	643a6425 	ldrtvs	r6, [sl], #-1061	; 0xfffffbdb
    a950:	6e206469 	cdpvs	4, 2, cr6, cr0, cr9, {3}
    a954:	6920746f 	stmdbvs	r0!, {r0, r1, r2, r3, r5, r6, sl, ip, sp, lr}
    a958:	656c706d 	strbvs	r7, [ip, #-109]!	; 0xffffff93
    a95c:	746e656d 	strbtvc	r6, [lr], #-1389	; 0xfffffa93
    a960:	6d756420 	cfldrdvs	mvd6, [r5, #-128]!	; 0xffffff80
    a964:	65725f70 	ldrbvs	r5, [r2, #-3952]!	; 0xfffff090
    a968:	0a217367 	beq	86770c <__bss_end__+0x85c56c>
    a96c:	0000000a 	andeq	r0, r0, sl

0000a970 <__FUNCTION__.4052>:
    a970:	6b72616d 	blvs	1ca2f2c <__bss_end__+0x1c97d8c>
    a974:	00000000 	andeq	r0, r0, r0

0000a978 <__FUNCTION__.4109>:
    a978:	65657773 	strbvs	r7, [r5, #-1907]!	; 0xfffff88d
    a97c:	72665f70 	rsbvc	r5, r6, #112, 30	; 0x1c0
    a980:	00006565 	andeq	r6, r0, r5, ror #10

0000a984 <__FUNCTION__.4039>:
    a984:	6b726273 	blvs	1ca3358 <__bss_end__+0x1c981b8>
    a988:	00000000 	andeq	r0, r0, r0

0000a98c <__FUNCTION__.4096>:
    a98c:	63656863 	cmnvs	r5, #6488064	; 0x630000
    a990:	6f6e5f6b 	svcvs	0x006e5f6b
    a994:	61656c5f 	cmnvs	r5, pc, asr ip
    a998:	0000006b 	andeq	r0, r0, fp, rrx

0000a99c <__FUNCTION__.4101>:
    a99c:	63656863 	cmnvs	r5, #6488064	; 0x630000
    a9a0:	68735f6b 	ldmdavs	r3!, {r0, r1, r3, r5, r6, r8, r9, sl, fp, ip, lr}^
    a9a4:	646c756f 	strbtvs	r7, [ip], #-1391	; 0xfffffa91
    a9a8:	61656c5f 	cmnvs	r5, pc, asr ip
    a9ac:	0000006b 	andeq	r0, r0, fp, rrx

0000a9b0 <__FUNCTION__.4120>:
    a9b0:	6c706d69 	ldclvs	13, cr6, [r0], #-420	; 0xfffffe5c
    a9b4:	6e656d65 	cdpvs	13, 6, cr6, cr5, cr5, {3}
    a9b8:	68745f74 	ldmdavs	r4!, {r2, r4, r5, r6, r8, r9, sl, fp, ip, lr}^
    a9bc:	00007369 	andeq	r7, r0, r9, ror #6
    a9c0:	003f3f3f 	eorseq	r3, pc, pc, lsr pc	; <UNPREDICTABLE>
    a9c4:	20642523 	rsbcs	r2, r4, r3, lsr #10
    a9c8:	28207825 	stmdacs	r0!, {r0, r2, r5, fp, ip, sp, lr}
    a9cc:	0a297325 	beq	a67668 <__bss_end__+0xa5c4c8>
    a9d0:	00000000 	andeq	r0, r0, r0
    a9d4:	696c2f2e 	stmdbvs	ip!, {r1, r2, r3, r5, r8, r9, sl, fp, sp}^
    a9d8:	762f6362 	strtvc	r6, [pc], -r2, ror #6
    a9dc:	72702d61 	rsbsvc	r2, r0, #6208	; 0x1840
    a9e0:	6b746e69 	blvs	1d2638c <__bss_end__+0x1d1b1ec>
    a9e4:	0000632e 	andeq	r6, r0, lr, lsr #6
    a9e8:	33323130 	teqcc	r2, #12
    a9ec:	37363534 			; <UNDEFINED> instruction: 0x37363534
    a9f0:	62613938 	rsbvs	r3, r1, #56, 18	; 0xe0000
    a9f4:	66656463 	strbtvs	r6, [r5], -r3, ror #8
    a9f8:	00000000 	andeq	r0, r0, r0
    a9fc:	00003130 	andeq	r3, r0, r0, lsr r1
    aa00:	33323130 	teqcc	r2, #12
    aa04:	37363534 			; <UNDEFINED> instruction: 0x37363534
    aa08:	00003938 	andeq	r3, r0, r8, lsr r9
    aa0c:	63747570 	cmnvs	r4, #112, 10	; 0x1c000000
    aa10:	0070665f 	rsbseq	r6, r0, pc, asr r6
    aa14:	74646977 	strbtvc	r6, [r4], #-2423	; 0xfffff689
    aa18:	203c2068 	eorscs	r2, ip, r8, rrx
    aa1c:	00003233 	andeq	r3, r0, r3, lsr r2
    aa20:	00786c6c 	rsbseq	r6, r8, ip, ror #24
    aa24:	253d3078 	ldrcs	r3, [sp, #-120]!	; 0xffffff88
    aa28:	00000a78 	andeq	r0, r0, r8, ror sl
    aa2c:	253d3178 	ldrcs	r3, [sp, #-376]!	; 0xfffffe88
    aa30:	00000a78 	andeq	r0, r0, r8, ror sl
    aa34:	00646c6c 	rsbeq	r6, r4, ip, ror #24
    aa38:	6e727473 	mrcvs	4, 3, r7, cr2, cr3, {3}
    aa3c:	28706d63 	ldmdacs	r0!, {r0, r1, r5, r6, r8, sl, fp, sp, lr}^
    aa40:	202c7974 	eorcs	r7, ip, r4, ror r9
    aa44:	786c6c22 	stmdavc	ip!, {r1, r5, sl, fp, sp, lr}^
    aa48:	33202c22 			; <UNDEFINED> instruction: 0x33202c22
    aa4c:	3d3d2029 	ldccc	0, cr2, [sp, #-164]!	; 0xffffff5c
    aa50:	7c203020 	stcvc	0, cr3, [r0], #-128	; 0xffffff80
    aa54:	7473207c 	ldrbtvc	r2, [r3], #-124	; 0xffffff84
    aa58:	6d636e72 	stclvs	14, cr6, [r3, #-456]!	; 0xfffffe38
    aa5c:	79742870 	ldmdbvc	r4!, {r4, r5, r6, fp, sp}^
    aa60:	6c22202c 	stcvs	0, cr2, [r2], #-176	; 0xffffff50
    aa64:	2c22646c 	cfstrscs	mvf6, [r2], #-432	; 0xfffffe50
    aa68:	20293320 	eorcs	r3, r9, r0, lsr #6
    aa6c:	30203d3d 	eorcc	r3, r0, sp, lsr sp
    aa70:	00000000 	andeq	r0, r0, r0
    aa74:	494e4150 	stmdbmi	lr, {r4, r6, r8, lr}^
    aa78:	73253a43 			; <UNDEFINED> instruction: 0x73253a43
    aa7c:	3a73253a 	bcc	1cd3f6c <__bss_end__+0x1cc8dcc>
    aa80:	693a6425 	ldmdbvs	sl!, {r0, r2, r5, sl, sp, lr}
    aa84:	736f706d 	cmnvc	pc, #109, 0	; 0x6d
    aa88:	6c626973 			; <UNDEFINED> instruction: 0x6c626973
    aa8c:	66203a65 	strtvs	r3, [r0], -r5, ror #20
    aa90:	3c3d746d 	cfldrscc	mvf7, [sp], #-436	; 0xfffffe4c
    aa94:	0a3e7325 	beq	fa7730 <__bss_end__+0xf9c590>
    aa98:	0000000a 	andeq	r0, r0, sl
    aa9c:	494e4150 	stmdbmi	lr, {r4, r6, r8, lr}^
    aaa0:	73253a43 			; <UNDEFINED> instruction: 0x73253a43
    aaa4:	3a73253a 	bcc	1cd3f94 <__bss_end__+0x1cc8df4>
    aaa8:	663a6425 	ldrtvs	r6, [sl], -r5, lsr #8
    aaac:	74616f6c 	strbtvc	r6, [r1], #-3948	; 0xfffff094
    aab0:	746f6e20 	strbtvc	r6, [pc], #-3616	; aab8 <__FUNCTION__.4120+0x108>
    aab4:	616e6520 	cmnvs	lr, r0, lsr #10
    aab8:	64656c62 	strbtvs	r6, [r5], #-3170	; 0xfffff39e
    aabc:	0a212121 	beq	852f48 <__bss_end__+0x847da8>
    aac0:	00000000 	andeq	r0, r0, r0
    aac4:	6e697270 	mcrvs	2, 3, r7, cr9, cr0, {3}
    aac8:	203a6b74 	eorscs	r6, sl, r4, ror fp
    aacc:	20746f6e 	rsbscs	r6, r4, lr, ror #30
    aad0:	646e6168 	strbtvs	r6, [lr], #-360	; 0xfffffe98
    aad4:	676e696c 	strbvs	r6, [lr, -ip, ror #18]!
    aad8:	65707320 	ldrbvs	r7, [r0, #-800]!	; 0xfffffce0
    aadc:	69666963 	stmdbvs	r6!, {r0, r1, r5, r6, r8, fp, sp, lr}^
    aae0:	27207265 	strcs	r7, [r0, -r5, ror #4]!
    aae4:	20276325 	eorcs	r6, r7, r5, lsr #6
    aae8:	63736128 	cmnvs	r3, #10
    aaec:	253d6969 	ldrcs	r6, [sp, #-2409]!	; 0xfffff697
    aaf0:	000a2964 	andeq	r2, sl, r4, ror #18
    aaf4:	494e4150 	stmdbmi	lr, {r4, r6, r8, lr}^
    aaf8:	73253a43 			; <UNDEFINED> instruction: 0x73253a43
    aafc:	3a73253a 	bcc	1cd3fec <__bss_end__+0x1cc8e4c>
    ab00:	703a6425 	eorsvc	r6, sl, r5, lsr #8
    ab04:	746e6972 	strbtvc	r6, [lr], #-2418	; 0xfffff68e
    ab08:	7265206b 	rsbvc	r2, r5, #107, 0	; 0x6b
    ab0c:	0a726f72 	beq	1ca68dc <__bss_end__+0x1c9b73c>
    ab10:	0000000a 	andeq	r0, r0, sl

0000ab14 <__FUNCTION__.4004>:
    ab14:	74696d65 	strbtvc	r6, [r9], #-3429	; 0xfffff29b
    ab18:	00000000 	andeq	r0, r0, r0

0000ab1c <__FUNCTION__.3952>:
    ab1c:	5f697072 	svcpl	0x00697072
    ab20:	5f746573 	svcpl	0x00746573
    ab24:	7074756f 	rsbsvc	r7, r4, pc, ror #10
    ab28:	00007475 	andeq	r7, r0, r5, ror r4

0000ab2c <__FUNCTION__.4030>:
    ab2c:	705f6176 	subsvc	r6, pc, r6, ror r1	; <UNPREDICTABLE>
    ab30:	746e6972 	strbtvc	r6, [lr], #-2418	; 0xfffff68e
    ab34:	0000006b 	andeq	r0, r0, fp, rrx
    ab38:	454e4f44 	strbmi	r4, [lr, #-3908]	; 0xfffff0bc
    ab3c:	0a212121 	beq	852fc8 <__bss_end__+0x847e28>
    ab40:	00000000 	andeq	r0, r0, r0
    ab44:	6e75525b 	mrcvs	2, 3, r5, cr5, cr11, {2}
    ab48:	676e696e 	strbvs	r6, [lr, -lr, ror #18]!
    ab4c:	6f6f7420 	svcvs	0x006f7420
    ab50:	6425206b 	strtvs	r2, [r5], #-107	; 0xffffff95
    ab54:	63796320 	cmnvs	r9, #32, 6	; 0x80000000
    ab58:	5d73656c 	cfldr64pl	mvdx6, [r3, #-432]!	; 0xfffffe50
    ab5c:	0000000a 	andeq	r0, r0, sl
    ab60:	6c616d6b 	stclvs	13, cr6, [r1], #-428	; 0xfffffe54
    ab64:	2e636f6c 	cdpcs	15, 6, cr6, cr3, cr12, {3}
    ab68:	00000063 	andeq	r0, r0, r3, rrx
    ab6c:	5f78616d 	svcpl	0x0078616d
    ab70:	7479626e 	ldrbtvc	r6, [r9], #-622	; 0xfffffd92
    ab74:	00007365 	andeq	r7, r0, r5, ror #6
    ab78:	494e4150 	stmdbmi	lr, {r4, r6, r8, lr}^
    ab7c:	73253a43 			; <UNDEFINED> instruction: 0x73253a43
    ab80:	3a73253a 	bcc	1cd4070 <__bss_end__+0x1cc8ed0>
    ab84:	733a6425 	teqvc	sl, #620756992	; 0x25000000
    ab88:	69747465 	ldmdbvs	r4!, {r0, r2, r5, r6, sl, ip, sp, lr}^
    ab8c:	6820676e 	stmdavs	r0!, {r1, r2, r3, r5, r6, r8, r9, sl, sp, lr}
    ab90:	20706165 	rsbscs	r6, r0, r5, ror #2
    ab94:	25206f74 	strcs	r6, [r0, #-3956]!	; 0xfffff08c
    ab98:	77203a70 			; <UNDEFINED> instruction: 0x77203a70
    ab9c:	206c6c69 	rsbcs	r6, ip, r9, ror #24
    aba0:	20746968 	rsbscs	r6, r4, r8, ror #18
    aba4:	20656874 	rsbcs	r6, r5, r4, ror r8
    aba8:	20646c6f 	rsbcs	r6, r4, pc, ror #24
    abac:	70616568 	rsbvc	r6, r1, r8, ror #10
    abb0:	20746120 	rsbscs	r6, r4, r0, lsr #2
    abb4:	0a0a7025 	beq	2a6c50 <__bss_end__+0x29bab0>
    abb8:	00000000 	andeq	r0, r0, r0
    abbc:	494e4150 	stmdbmi	lr, {r4, r6, r8, lr}^
    abc0:	73253a43 			; <UNDEFINED> instruction: 0x73253a43
    abc4:	3a73253a 	bcc	1cd40b4 <__bss_end__+0x1cc8f14>
    abc8:	613a6425 	teqvs	sl, r5, lsr #8
    abcc:	6165726c 	cmnvs	r5, ip, ror #4
    abd0:	63207964 			; <UNDEFINED> instruction: 0x63207964
    abd4:	656c6c61 	strbvs	r6, [ip, #-3169]!	; 0xfffff39f
    abd8:	6d6b2064 	stclvs	0, cr2, [fp, #-400]!	; 0xfffffe70
    abdc:	6f6c6c61 	svcvs	0x006c6c61
    abe0:	6e695f63 	cdpvs	15, 6, cr5, cr9, cr3, {3}
    abe4:	0a0a7469 	beq	2a7d90 <__bss_end__+0x29cbf0>
    abe8:	00000000 	andeq	r0, r0, r0
    abec:	494e4150 	stmdbmi	lr, {r4, r6, r8, lr}^
    abf0:	73253a43 			; <UNDEFINED> instruction: 0x73253a43
    abf4:	3a73253a 	bcc	1cd40e4 <__bss_end__+0x1cc8f44>
    abf8:	253a6425 	ldrcs	r6, [sl, #-1061]!	; 0xfffffbdb
    abfc:	626e2064 	rsbvs	r2, lr, #100, 0	; 0x64
    ac00:	73657479 	cmnvc	r5, #2030043136	; 0x79000000
    ac04:	63786520 	cmnvs	r8, #32, 10	; 0x8000000
    ac08:	65646565 	strbvs	r6, [r4, #-1381]!	; 0xfffffa9b
    ac0c:	69732064 	ldmdbvs	r3!, {r2, r5, r6, sp}^
    ac10:	6f20657a 	svcvs	0x0020657a
    ac14:	65682066 	strbvs	r2, [r8, #-102]!	; 0xffffff9a
    ac18:	62207061 	eorvs	r7, r0, #97, 0	; 0x61
    ac1c:	75252079 	strvc	r2, [r5, #-121]!	; 0xffffff87
    ac20:	79626e20 	stmdbvc	r2!, {r5, r9, sl, fp, sp, lr}^
    ac24:	0a736574 	beq	1ce41fc <__bss_end__+0x1cd905c>
    ac28:	0000000a 	andeq	r0, r0, sl
    ac2c:	4f525245 	svcmi	0x00525245
    ac30:	73253a52 			; <UNDEFINED> instruction: 0x73253a52
    ac34:	3a73253a 	bcc	1cd4124 <__bss_end__+0x1cc8f84>
    ac38:	203a6425 	eorscs	r6, sl, r5, lsr #8
    ac3c:	534c4146 	movtpl	r4, #49478	; 0xc146
    ac40:	253c2845 	ldrcs	r2, [ip, #-2117]!	; 0xfffff7bb
    ac44:	3a293e73 	bcc	a5a618 <__bss_end__+0xa4f478>
    ac48:	73736120 	cmnvc	r3, #8
    ac4c:	6e696d75 	mcrvs	13, 3, r6, cr9, cr5, {3}
    ac50:	6f702067 	svcvs	0x00702067
    ac54:	20726577 	rsbscs	r6, r2, r7, ror r5
    ac58:	7420666f 	strtvc	r6, [r0], #-1647	; 0xfffff991
    ac5c:	000a6f77 	andeq	r6, sl, r7, ror pc
    ac60:	705f7369 	subsvc	r7, pc, r9, ror #6
    ac64:	2832776f 	ldmdacs	r2!, {r0, r1, r2, r3, r5, r6, r8, r9, sl, ip, sp, lr}
    ac68:	67696c61 	strbvs	r6, [r9, -r1, ror #24]!
    ac6c:	6e656d6e 	cdpvs	13, 6, cr6, cr5, cr14, {3}
    ac70:	00002974 	andeq	r2, r0, r4, ror r9
    ac74:	705f7369 	subsvc	r7, pc, r9, ror #6
    ac78:	2832776f 	ldmdacs	r2!, {r0, r1, r2, r3, r5, r6, r8, r9, sl, ip, sp, lr}
    ac7c:	0000296e 	andeq	r2, r0, lr, ror #18
    ac80:	4f525245 	svcmi	0x00525245
    ac84:	73253a52 			; <UNDEFINED> instruction: 0x73253a52
    ac88:	3a73253a 	bcc	1cd4178 <__bss_end__+0x1cc8fd8>
    ac8c:	203a6425 	eorscs	r6, sl, r5, lsr #8
    ac90:	534c4146 	movtpl	r4, #49478	; 0xc146
    ac94:	253c2845 	ldrcs	r2, [ip, #-2117]!	; 0xfffff7bb
    ac98:	3a293e73 	bcc	a5a66c <__bss_end__+0xa4f4cc>
    ac9c:	706d6920 	rsbvc	r6, sp, r0, lsr #18
    aca0:	6973736f 	ldmdbvs	r3!, {r0, r1, r2, r3, r5, r6, r8, r9, ip, sp, lr}^
    aca4:	0a656c62 	beq	1965e34 <__bss_end__+0x195ac94>
    aca8:	00000000 	andeq	r0, r0, r0
    acac:	615f7369 	cmpvs	pc, r9, ror #6
    acb0:	6e67696c 	vnmulvs.f16	s13, s14, s25	; <UNPREDICTABLE>
    acb4:	68286465 	stmdavs	r8!, {r0, r2, r5, r6, sl, sp, lr}
    acb8:	6c61202c 	stclvs	0, cr2, [r1], #-176	; 0xffffff50
    acbc:	6d6e6769 	stclvs	7, cr6, [lr, #-420]!	; 0xfffffe5c
    acc0:	29746e65 	ldmdbcs	r4!, {r0, r2, r5, r6, r9, sl, fp, sp, lr}^
    acc4:	00000000 	andeq	r0, r0, r0
    acc8:	494e4150 	stmdbmi	lr, {r4, r6, r8, lr}^
    accc:	73253a43 			; <UNDEFINED> instruction: 0x73253a43
    acd0:	3a73253a 	bcc	1cd41c0 <__bss_end__+0x1cc9020>
    acd4:	703a6425 	eorsvc	r6, sl, r5, lsr #8
    acd8:	746e696f 	strbtvc	r6, [lr], #-2415	; 0xfffff691
    acdc:	25207265 	strcs	r7, [r0, #-613]!	; 0xfffffd9b
    ace0:	61772070 	cmnvs	r7, r0, ror r0
    ace4:	656e2073 	strbvs	r2, [lr, #-115]!	; 0xffffff8d
    ace8:	20726576 	rsbscs	r6, r2, r6, ror r5
    acec:	6f6c6c61 	svcvs	0x006c6c61
    acf0:	65746163 	ldrbvs	r6, [r4, #-355]!	; 0xfffffe9d
    acf4:	000a0a64 	andeq	r0, sl, r4, ror #20

0000acf8 <__FUNCTION__.7>:
    acf8:	6c616d6b 	stclvs	13, cr6, [r1], #-428	; 0xfffffe54
    acfc:	5f636f6c 	svcpl	0x00636f6c
    ad00:	74696e69 	strbtvc	r6, [r9], #-3689	; 0xfffff197
    ad04:	7465735f 	strbtvc	r7, [r5], #-863	; 0xfffffca1
    ad08:	6174735f 	cmnvs	r4, pc, asr r3
    ad0c:	00007472 	andeq	r7, r0, r2, ror r4

0000ad10 <__FUNCTION__.5>:
    ad10:	6c616d6b 	stclvs	13, cr6, [r1], #-428	; 0xfffffe54
    ad14:	5f636f6c 	svcpl	0x00636f6c
    ad18:	74696e69 	strbtvc	r6, [r9], #-3689	; 0xfffff197
    ad1c:	00000000 	andeq	r0, r0, r0

0000ad20 <__FUNCTION__.4>:
    ad20:	6c616d6b 	stclvs	13, cr6, [r1], #-428	; 0xfffffe54
    ad24:	5f636f6c 	svcpl	0x00636f6c
    ad28:	7a746f6e 	bvc	1d26ae8 <__bss_end__+0x1d1b948>
    ad2c:	006f7265 	rsbeq	r7, pc, r5, ror #4

0000ad30 <__FUNCTION__.2>:
    ad30:	6c616d6b 	stclvs	13, cr6, [r1], #-428	; 0xfffffe54
    ad34:	00636f6c 	rsbeq	r6, r3, ip, ror #30

0000ad38 <__FUNCTION__.1>:
    ad38:	6c616d6b 	stclvs	13, cr6, [r1], #-428	; 0xfffffe54
    ad3c:	5f636f6c 	svcpl	0x00636f6c
    ad40:	67696c61 	strbvs	r6, [r9, -r1, ror #24]!
    ad44:	0064656e 	rsbeq	r6, r4, lr, ror #10

0000ad48 <__FUNCTION__.3>:
    ad48:	6e756f72 	mrcvs	15, 3, r6, cr5, cr2, {3}
    ad4c:	00707564 	rsbseq	r7, r0, r4, ror #10

0000ad50 <__FUNCTION__.0>:
    ad50:	6572666b 	ldrbvs	r6, [r2, #-1643]!	; 0xfffff995
    ad54:	6f705f65 	svcvs	0x00705f65
    ad58:	Address 0x000000000000ad58 is out of bounds.


Disassembly of section .data:

0000ad5c <putk>:
    ad5c:	00008fdc 	ldrdeq	r8, [r0], -ip

0000ad60 <heap>:
    ad60:	0000b1a0 	andeq	fp, r0, r0, lsr #3

0000ad64 <heap_start>:
    ad64:	0000b1a0 	andeq	fp, r0, r0, lsr #3

0000ad68 <heap_end>:
    ad68:	0020b1a0 	eoreq	fp, r0, r0, lsr #3

0000ad6c <rpi_putchar>:
    ad6c:	0000a400 	andeq	sl, r0, r0, lsl #8

Disassembly of section .bss:

0000ad70 <__bss_start__>:
	...

0000ad78 <freep>:
	...

0000ad80 <base>:
	...

0000ad88 <heap_start>:
    ad88:	00000000 	andeq	r0, r0, r0

0000ad8c <heap_end>:
    ad8c:	00000000 	andeq	r0, r0, r0

0000ad90 <init_p.4038>:
    ad90:	00000000 	andeq	r0, r0, r0

0000ad94 <buf.3944>:
	...

0000b194 <last.3937>:
    b194:	00000000 	andeq	r0, r0, r0

0000b198 <init_p.6>:
	...

Disassembly of section .ARM.attributes:

00000000 <.ARM.attributes>:
   0:	00002a41 	andeq	r2, r0, r1, asr #20
   4:	61656100 	cmnvs	r5, r0, lsl #2
   8:	01006962 	tsteq	r0, r2, ror #18
   c:	00000020 	andeq	r0, r0, r0, lsr #32
  10:	4b5a3605 	blmi	168d82c <__bss_end__+0x168268c>
  14:	08070600 	stmdaeq	r7, {r9, sl}
  18:	12010901 	andne	r0, r1, #16384	; 0x4000
  1c:	15011404 	strne	r1, [r1, #-1028]	; 0xfffffbfc
  20:	18031701 	stmdane	r3, {r0, r8, r9, sl, ip}
  24:	22011a01 	andcs	r1, r1, #4096	; 0x1000
  28:	Address 0x0000000000000028 is out of bounds.


Disassembly of section .comment:

00000000 <.comment>:
   0:	3a434347 	bcc	10d0d24 <__bss_end__+0x10c5b84>
   4:	4e472820 	cdpmi	8, 4, cr2, cr7, cr0, {1}
   8:	6f542055 	svcvs	0x00542055
   c:	20736c6f 	rsbscs	r6, r3, pc, ror #24
  10:	20726f66 	rsbscs	r6, r2, r6, ror #30
  14:	206d7241 	rsbcs	r7, sp, r1, asr #4
  18:	65626d45 	strbvs	r6, [r2, #-3397]!	; 0xfffff2bb
  1c:	64656464 	strbtvs	r6, [r5], #-1124	; 0xfffffb9c
  20:	6f725020 	svcvs	0x00725020
  24:	73736563 	cmnvc	r3, #415236096	; 0x18c00000
  28:	2073726f 	rsbscs	r7, r3, pc, ror #4
  2c:	30322d39 	eorscc	r2, r2, r9, lsr sp
  30:	712d3931 			; <UNDEFINED> instruction: 0x712d3931
  34:	616d2d34 	cmnvs	sp, r4, lsr sp
  38:	29726f6a 	ldmdbcs	r2!, {r1, r3, r5, r6, r8, r9, sl, fp, sp, lr}^
  3c:	322e3920 	eorcc	r3, lr, #32, 18	; 0x80000
  40:	3220312e 	eorcc	r3, r0, #-2147483637	; 0x8000000b
  44:	31393130 	teqcc	r9, r0, lsr r1
  48:	20353230 	eorscs	r3, r5, r0, lsr r2
  4c:	6c657228 	sfmvs	f7, 2, [r5], #-160	; 0xffffff60
  50:	65736165 	ldrbvs	r6, [r3, #-357]!	; 0xfffffe9b
  54:	415b2029 	cmpmi	fp, r9, lsr #32
  58:	612f4d52 			; <UNDEFINED> instruction: 0x612f4d52
  5c:	392d6d72 	pushcc	{r1, r4, r5, r6, r8, sl, fp, sp, lr}
  60:	6172622d 	cmnvs	r2, sp, lsr #4
  64:	2068636e 	rsbcs	r6, r8, lr, ror #6
  68:	69766572 	ldmdbvs	r6!, {r1, r4, r5, r6, r8, sl, sp, lr}^
  6c:	6e6f6973 			; <UNDEFINED> instruction: 0x6e6f6973
  70:	37373220 	ldrcc	r3, [r7, -r0, lsr #4]!
  74:	5d393935 			; <UNDEFINED> instruction: 0x5d393935
  78:	43434700 	movtmi	r4, #14080	; 0x3700
  7c:	4728203a 			; <UNDEFINED> instruction: 0x4728203a
  80:	4120554e 			; <UNDEFINED> instruction: 0x4120554e
  84:	45206d72 	strmi	r6, [r0, #-3442]!	; 0xfffff28e
  88:	6465626d 	strbtvs	r6, [r5], #-621	; 0xfffffd93
  8c:	20646564 	rsbcs	r6, r4, r4, ror #10
  90:	6c6f6f54 	stclvs	15, cr6, [pc], #-336	; ffffff48 <__bss_end__+0xffff4da8>
  94:	69616863 	stmdbvs	r1!, {r0, r1, r5, r6, fp, sp, lr}^
  98:	3031206e 	eorscc	r2, r1, lr, rrx
  9c:	322d332e 	eorcc	r3, sp, #-1207959552	; 0xb8000000
  a0:	2e313230 	mrccs	2, 1, r3, cr1, cr0, {1}
  a4:	20293031 	eorcs	r3, r9, r1, lsr r0
  a8:	332e3031 			; <UNDEFINED> instruction: 0x332e3031
  ac:	3220312e 	eorcc	r3, r0, #-2147483637	; 0x8000000b
  b0:	30313230 	eorscc	r3, r1, r0, lsr r2
  b4:	20343238 	eorscs	r3, r4, r8, lsr r2
  b8:	6c657228 	sfmvs	f7, 2, [r5], #-160	; 0xffffff60
  bc:	65736165 	ldrbvs	r6, [r3, #-357]!	; 0xfffffe9b
  c0:	Address 0x00000000000000c0 is out of bounds.


Disassembly of section .debug_info:

00000000 <.debug_info>:
       0:	00000492 	muleq	r0, r2, r4
       4:	00000004 	andeq	r0, r0, r4
       8:	01040000 	mrseq	r0, (UNDEF: 4)
       c:	000000e2 	andeq	r0, r0, r2, ror #1
      10:	0000710c 	andeq	r7, r0, ip, lsl #2
      14:	00022e00 	andeq	r2, r2, r0, lsl #28
      18:	00803800 	addeq	r3, r0, r0, lsl #16
      1c:	00014400 	andeq	r4, r1, r0, lsl #8
      20:	00000000 	andeq	r0, r0, r0
      24:	05040200 	streq	r0, [r4, #-512]	; 0xfffffe00
      28:	00746e69 	rsbseq	r6, r4, r9, ror #28
      2c:	d5070403 	strle	r0, [r7, #-1027]	; 0xfffffbfd
      30:	03000001 	movweq	r0, #1
      34:	00cb0601 	sbceq	r0, fp, r1, lsl #12
      38:	02030000 	andeq	r0, r3, #0, 0
      3c:	00002205 	andeq	r2, r0, r5, lsl #4
      40:	05040300 	streq	r0, [r4, #-768]	; 0xfffffd00
      44:	00000057 	andeq	r0, r0, r7, asr r0
      48:	52050803 	andpl	r0, r5, #196608	; 0x30000
      4c:	04000000 	streq	r0, [r0], #-0
      50:	00000045 	andeq	r0, r0, r5, asr #32
      54:	5b182e04 	blpl	60b86c <__bss_end__+0x6006cc>
      58:	03000000 	movweq	r0, #0
      5c:	00c90801 	sbceq	r0, r9, r1, lsl #16
      60:	eb040000 	bl	100068 <__bss_end__+0xf4ec8>
      64:	04000001 	streq	r0, [r0], #-1
      68:	006e1931 	rsbeq	r1, lr, r1, lsr r9
      6c:	02030000 	andeq	r0, r3, #0, 0
      70:	00020a07 	andeq	r0, r2, r7, lsl #20
      74:	01e20400 	mvneq	r0, r0, lsl #8
      78:	34040000 	strcc	r0, [r4], #-0
      7c:	00008119 	andeq	r8, r0, r9, lsl r1
      80:	07040300 	streq	r0, [r4, -r0, lsl #6]
      84:	000001d0 	ldrdeq	r0, [r0], -r0	; <UNPREDICTABLE>
      88:	cb070803 	blgt	1c209c <__bss_end__+0x1b6efc>
      8c:	05000001 	streq	r0, [r0, #-1]
      90:	00000025 	andeq	r0, r0, r5, lsr #32
      94:	0000009e 	muleq	r0, lr, r0
      98:	00002506 	andeq	r2, r0, r6, lsl #10
      9c:	2c070000 	stccs	0, cr0, [r7], {-0}
      a0:	05000000 	streq	r0, [r0, #-0]
      a4:	00aa0e1c 	adceq	r0, sl, ip, lsl lr
      a8:	04080000 	streq	r0, [r8], #-0
      ac:	0000008f 	andeq	r0, r0, pc, lsl #1
      b0:	00002505 	andeq	r2, r0, r5, lsl #10
      b4:	0000bf00 	andeq	fp, r0, r0, lsl #30
      b8:	00bf0600 	adcseq	r0, pc, r0, lsl #12
      bc:	08000000 	stmdaeq	r0, {}	; <UNPREDICTABLE>
      c0:	0000cc04 	andeq	ip, r0, r4, lsl #24
      c4:	08010300 	stmdaeq	r1, {r8, r9}
      c8:	000000d2 	ldrdeq	r0, [r0], -r2
      cc:	0000c509 	andeq	ip, r0, r9, lsl #10
      d0:	06820700 	streq	r0, [r2], r0, lsl #14
      d4:	21050000 	mrscs	r0, (UNDEF: 5)
      d8:	0000dd0e 	andeq	sp, r0, lr, lsl #26
      dc:	b0040800 	andlt	r0, r4, r0, lsl #16
      e0:	0a000000 	beq	e8 <__code_start__-0x7f18>
      e4:	0905030c 	stmdbeq	r5, {r2, r3, r8, r9}
      e8:	00000114 	andeq	r0, r0, r4, lsl r1
      ec:	0000400b 	andeq	r4, r0, fp
      f0:	11070300 	mrsne	r0, SP_und
      f4:	000000bf 	strheq	r0, [r0], -pc	; <UNPREDICTABLE>
      f8:	004d0b00 	subeq	r0, sp, r0, lsl #22
      fc:	08030000 	stmdaeq	r3, {}	; <UNPREDICTABLE>
     100:	0000bf11 	andeq	fp, r0, r1, lsl pc
     104:	c40b0400 	strgt	r0, [fp], #-1024	; 0xfffffc00
     108:	03000001 	movweq	r0, #1
     10c:	002c0e09 	eoreq	r0, ip, r9, lsl #28
     110:	00080000 	andeq	r0, r8, r0
     114:	00028704 	andeq	r8, r2, r4, lsl #14
     118:	030a0300 	movweq	r0, #41728	; 0xa300
     11c:	000000e3 	andeq	r0, r0, r3, ror #1
     120:	0000910c 	andeq	r9, r0, ip, lsl #2
     124:	0d01b800 	stceq	8, cr11, [r1, #-0]
     128:	0001bd10 	andeq	fp, r1, r0, lsl sp
     12c:	02820b00 	addeq	r0, r2, #0, 22
     130:	0e010000 	cdpeq	0, 0, cr0, cr1, cr0, {0}
     134:	0001bd14 	andeq	fp, r1, r4, lsl sp
     138:	600b0000 	andvs	r0, fp, r0
     13c:	01000000 	mrseq	r0, (UNDEF: 0)
     140:	00750e0f 	rsbseq	r0, r5, pc, lsl #28
     144:	0b040000 	bleq	10014c <__bss_end__+0xf4fac>
     148:	00000015 	andeq	r0, r0, r5, lsl r0
     14c:	750e1001 	strvc	r1, [lr, #-1]
     150:	08000000 	stmdaeq	r0, {}	; <UNPREDICTABLE>
     154:	00000f0b 	andeq	r0, r0, fp, lsl #30
     158:	0e110100 	mufeqs	f0, f1, f0
     15c:	00000075 	andeq	r0, r0, r5, ror r0
     160:	00060b0c 	andeq	r0, r6, ip, lsl #22
     164:	15010000 	strne	r0, [r1, #-0]
     168:	0000750e 	andeq	r7, r0, lr, lsl #10
     16c:	a50b1000 	strge	r1, [fp, #-0]
     170:	01000000 	mrseq	r0, (UNDEF: 0)
     174:	01140f17 	tsteq	r4, r7, lsl pc
     178:	0b140000 	bleq	500180 <__bss_end__+0x4f4fe0>
     17c:	0000026e 	andeq	r0, r0, lr, ror #4
     180:	140f1801 	strne	r1, [pc], #-2049	; 188 <__code_start__-0x7e78>
     184:	20000001 	andcs	r0, r0, r1
     188:	0000d70b 	andeq	sp, r0, fp, lsl #14
     18c:	0e1b0100 	mufeqe	f0, f3, f0
     190:	00000075 	andeq	r0, r0, r5, ror r0
     194:	02220b2c 	eoreq	r0, r2, #44, 22	; 0xb000
     198:	1c010000 	stcne	0, cr0, [r1], {-0}
     19c:	0000750e 	andeq	r7, r0, lr, lsl #10
     1a0:	260b3000 	strcs	r3, [fp], -r0
     1a4:	01000004 	tsteq	r0, r4
     1a8:	00620e1e 	rsbeq	r0, r2, lr, lsl lr
     1ac:	0d340000 	ldceq	0, cr0, [r4, #-0]
     1b0:	00317a72 	eorseq	r7, r1, r2, ror sl
     1b4:	c30d2001 	movwgt	r2, #53249	; 0xd001
     1b8:	36000001 	strcc	r0, [r0], -r1
     1bc:	20040800 	andcs	r0, r4, r0, lsl #16
     1c0:	0e000001 	cdpeq	0, 0, cr0, cr0, cr1, {0}
     1c4:	0000004f 	andeq	r0, r0, pc, asr #32
     1c8:	000001d3 	ldrdeq	r0, [r0], -r3
     1cc:	00002c0f 	andeq	r2, r0, pc, lsl #24
     1d0:	04007f00 	streq	r7, [r0], #-3840	; 0xfffff100
     1d4:	00000000 	andeq	r0, r0, r0
     1d8:	20032101 	andcs	r2, r3, r1, lsl #2
     1dc:	10000001 	andne	r0, r0, r1
     1e0:	00bc0704 	adcseq	r0, ip, r4, lsl #14
     1e4:	a9010000 	stmdbge	r1, {}	; <UNPREDICTABLE>
     1e8:	00002c11 	andeq	r2, r0, r1, lsl ip
     1ec:	02021100 	andeq	r1, r2, #0
     1f0:	24020000 	strcs	r0, [r2], #-0
     1f4:	00814006 	addeq	r4, r1, r6
     1f8:	00003c00 	andeq	r3, r0, r0, lsl #24
     1fc:	639c0100 	orrsvs	r0, ip, #0
     200:	12000002 	andne	r0, r0, #2, 0
     204:	28020070 	stmdacs	r2, {r4, r5, r6}
     208:	0001df0b 	andeq	sp, r1, fp, lsl #30
     20c:	00000400 	andeq	r0, r0, r0, lsl #8
     210:	00000000 	andeq	r0, r0, r0
     214:	81541300 	cmphi	r4, r0, lsl #6
     218:	04500000 	ldrbeq	r0, [r0], #-0
     21c:	022c0000 	eoreq	r0, ip, #0, 0
     220:	01140000 	tsteq	r4, r0
     224:	50030550 	andpl	r0, r3, r0, asr r5
     228:	000000a5 	andeq	r0, r0, r5, lsr #1
     22c:	00815815 	addeq	r5, r1, r5, lsl r8
     230:	00026300 	andeq	r6, r2, r0, lsl #6
     234:	81601300 	cmnhi	r0, r0, lsl #6
     238:	03d50000 	bicseq	r0, r5, #0, 0
     23c:	02490000 	subeq	r0, r9, #0, 0
     240:	01140000 	tsteq	r4, r0
     244:	00740250 	rsbseq	r0, r4, r0, asr r2
     248:	81701600 	cmnhi	r0, r0, lsl #12
     24c:	04500000 	ldrbeq	r0, [r0], #-0
     250:	01140000 	tsteq	r4, r0
     254:	8c030550 	cfstr32hi	mvfx0, [r3], {80}	; 0x50
     258:	140000a5 	strne	r0, [r0], #-165	; 0xffffff5b
     25c:	74025201 	strvc	r5, [r2], #-513	; 0xfffffdff
     260:	17000000 	strne	r0, [r0, -r0]
     264:	0000021d 	andeq	r0, r0, sp, lsl r2
     268:	df070802 	svcle	0x00070802
     26c:	68000001 	stmdavs	r0, {r0}
     270:	cc000080 	stcgt	0, cr0, [r0], {128}	; 0x80
     274:	01000000 	mrseq	r0, (UNDEF: 0)
     278:	0003ba9c 	muleq	r3, ip, sl
     27c:	06740c00 	ldrbteq	r0, [r4], -r0, lsl #24
     280:	020c0000 	andeq	r0, ip, #0, 0
     284:	02b00c09 	adcseq	r0, r0, #2304	; 0x900
     288:	780d0000 	stmdavc	sp, {}	; <UNPREDICTABLE>
     28c:	0d0a0200 	sfmeq	f0, 4, [sl, #-0]
     290:	00000025 	andeq	r0, r0, r5, lsr #32
     294:	02820b00 	addeq	r0, r2, #0, 22
     298:	0b020000 	bleq	802a0 <__bss_end__+0x75100>
     29c:	0003ba16 	andeq	fp, r3, r6, lsl sl
     2a0:	690b0400 	stmdbvs	fp, {sl}
     2a4:	02000002 	andeq	r0, r0, #2, 0
     2a8:	03ba160c 			; <UNDEFINED> instruction: 0x03ba160c
     2ac:	00080000 	andeq	r0, r8, r0
     2b0:	02006812 	andeq	r6, r0, #1179648	; 0x120000
     2b4:	03ba080d 			; <UNDEFINED> instruction: 0x03ba080d
     2b8:	002c0000 	eoreq	r0, ip, r0
     2bc:	00220000 	eoreq	r0, r2, r0
     2c0:	98180000 	ldmdals	r8, {}	; <UNPREDICTABLE>
     2c4:	d0000000 	andle	r0, r0, r0
     2c8:	05000003 	streq	r0, [r0, #-3]
     2cc:	00a5b803 	adceq	fp, r5, r3, lsl #16
     2d0:	00001900 	andeq	r1, r0, r0, lsl #18
     2d4:	03b00000 	movseq	r0, #0, 0
     2d8:	69120000 	ldmdbvs	r2, {}	; <UNPREDICTABLE>
     2dc:	0d0f0200 	sfmeq	f0, 4, [pc, #-0]	; 2e4 <__code_start__-0x7d1c>
     2e0:	00000025 	andeq	r0, r0, r5, lsr #32
     2e4:	00000070 	andeq	r0, r0, r0, ror r0
     2e8:	0000006c 	andeq	r0, r0, ip, rrx
     2ec:	0000181a 	andeq	r1, r0, sl, lsl r8
     2f0:	00651200 	rsbeq	r1, r5, r0, lsl #4
     2f4:	ba161002 	blt	584304 <__bss_end__+0x579164>
     2f8:	95000003 	strls	r0, [r0, #-3]
     2fc:	8f000000 	svchi	0x00000000
     300:	1b000000 	blne	308 <__code_start__-0x7cf8>
     304:	0000041a 	andeq	r0, r0, sl, lsl r4
     308:	000080b4 	strheq	r8, [r0], -r4
     30c:	0080b401 	addeq	fp, r0, r1, lsl #8
     310:	00001800 	andeq	r1, r0, r0, lsl #16
     314:	1a100200 	bne	400b1c <__bss_end__+0x3f597c>
     318:	00000344 	andeq	r0, r0, r4, asr #6
     31c:	0004431c 	andeq	r4, r4, ip, lsl r3
     320:	0000c000 	andeq	ip, r0, r0
     324:	0000be00 	andeq	fp, r0, r0, lsl #28
     328:	04371c00 	ldrteq	r1, [r7], #-3072	; 0xfffff400
     32c:	00d60000 	sbcseq	r0, r6, r0
     330:	00d40000 	sbcseq	r0, r4, r0
     334:	2b1c0000 	blcs	70033c <__bss_end__+0x6f519c>
     338:	f0000004 			; <UNDEFINED> instruction: 0xf0000004
     33c:	ee000000 	cdp	0, 0, cr0, cr0, cr0, {0}
     340:	00000000 	andeq	r0, r0, r0
     344:	0080a013 	addeq	sl, r0, r3, lsl r0
     348:	00045000 	andeq	r5, r4, r0
     34c:	00037800 	andeq	r7, r3, r0, lsl #16
     350:	50011400 	andpl	r1, r1, r0, lsl #8
     354:	a5300305 	ldrge	r0, [r0, #-773]!	; 0xfffffcfb
     358:	01140000 	tsteq	r4, r0
     35c:	587b0351 	ldmdapl	fp!, {r0, r4, r6, r8, r9}^
     360:	52011406 	andpl	r1, r1, #100663296	; 0x6000000
     364:	065c7b03 	ldrbeq	r7, [ip], -r3, lsl #22
     368:	01530114 	cmpeq	r3, r4, lsl r1
     36c:	7d021444 	cfstrsvc	mvf1, [r2, #-272]	; 0xfffffef0
     370:	44030500 	strmi	r0, [r3], #-1280	; 0xfffffb00
     374:	000000a5 	andeq	r0, r0, r5, lsr #1
     378:	0080a415 	addeq	sl, r0, r5, lsl r4
     37c:	00046500 	andeq	r6, r4, r0, lsl #10
     380:	80dc1300 	sbcshi	r1, ip, r0, lsl #6
     384:	04710000 	ldrbteq	r0, [r1], #-0
     388:	03940000 	orrseq	r0, r4, #0, 0
     38c:	01140000 	tsteq	r4, r0
     390:	003c0150 	eorseq	r0, ip, r0, asr r1
     394:	0080ec16 	addeq	lr, r0, r6, lsl ip
     398:	00047d00 	andeq	r7, r4, r0, lsl #26
     39c:	50011400 	andpl	r1, r1, r0, lsl #8
     3a0:	14007402 	strne	r7, [r0], #-1026	; 0xfffffbfe
     3a4:	30015101 	andcc	r5, r1, r1, lsl #2
     3a8:	01520114 	cmpeq	r2, r4, lsl r1
     3ac:	0000003c 	andeq	r0, r0, ip, lsr r0
     3b0:	00811815 	addeq	r1, r1, r5, lsl r8
     3b4:	00048900 	andeq	r8, r4, r0, lsl #18
     3b8:	04080000 	streq	r0, [r8], #-0
     3bc:	0000027d 	andeq	r0, r0, sp, ror r2
     3c0:	0000cc0e 	andeq	ip, r0, lr, lsl #24
     3c4:	0003d000 	andeq	sp, r3, r0
     3c8:	002c0f00 	eoreq	r0, ip, r0, lsl #30
     3cc:	00040000 	andeq	r0, r4, r0
     3d0:	0003c009 	andeq	ip, r3, r9
     3d4:	00671d00 	rsbeq	r1, r7, r0, lsl #26
     3d8:	24010000 	strcs	r0, [r1], #-0
     3dc:	00002c11 	andeq	r2, r0, r1, lsl ip
     3e0:	00804800 	addeq	r4, r0, r0, lsl #16
     3e4:	00001400 	andeq	r1, r0, r0, lsl #8
     3e8:	149c0100 	ldrne	r0, [ip], #256	; 0x100
     3ec:	1e000004 	cdpne	0, 0, cr0, cr0, cr4, {0}
     3f0:	24010070 	strcs	r0, [r1], #-112	; 0xffffff90
     3f4:	0001df21 	andeq	sp, r1, r1, lsr #30
     3f8:	00010c00 	andeq	r0, r1, r0, lsl #24
     3fc:	00010800 	andeq	r0, r1, r0, lsl #16
     400:	00681200 	rsbeq	r1, r8, r0, lsl #4
     404:	140c2501 	strne	r2, [ip], #-1281	; 0xfffffaff
     408:	31000004 	tstcc	r0, r4
     40c:	2d000001 	stccs	0, cr0, [r0, #-4]
     410:	00000001 	andeq	r0, r0, r1
     414:	01d30408 	bicseq	r0, r3, r8, lsl #8
     418:	771f0000 	ldrvc	r0, [pc, -r0]
     41c:	03000002 	movweq	r0, #2
     420:	01140b0d 	tsteq	r4, sp, lsl #22
     424:	50030000 	andpl	r0, r3, r0
     428:	20000004 	andcs	r0, r0, r4
     42c:	00000040 	andeq	r0, r0, r0, asr #32
     430:	bf220d03 	svclt	0x00220d03
     434:	20000000 	andcs	r0, r0, r0
     438:	0000004d 	andeq	r0, r0, sp, asr #32
     43c:	bf340d03 	svclt	0x00340d03
     440:	20000000 	andcs	r0, r0, r0
     444:	000001c4 	andeq	r0, r0, r4, asr #3
     448:	2c430d03 	mcrrcs	13, 0, r0, r3, cr3
     44c:	00000000 	andeq	r0, r0, r0
     450:	00064421 	andeq	r4, r6, r1, lsr #8
     454:	00064400 	andeq	r4, r6, r0, lsl #8
     458:	06280500 	strteq	r0, [r8], -r0, lsl #10
     45c:	059e0722 	ldreq	r0, [lr, #1826]	; 0x722
     460:	74736574 	ldrbtvc	r6, [r3], #-1396	; 0xfffffa8c
     464:	00af2100 	adceq	r2, pc, r0, lsl #2
     468:	00af0000 	adceq	r0, pc, r0
     46c:	6e050000 	cdpvs	0, 0, cr0, cr5, cr0, {0}
     470:	00382106 	eorseq	r2, r8, r6, lsl #2
     474:	00380000 	eorseq	r0, r8, r0
     478:	4d010000 	stcmi	0, cr0, [r1, #-0]
     47c:	02622108 	rsbeq	r2, r2, #2
     480:	02620000 	rsbeq	r0, r2, #0, 0
     484:	f2050000 	vhadd.s8	d0, d5, d0
     488:	01f42107 	mvnseq	r2, r7, lsl #2
     48c:	01f40000 	mvnseq	r0, r0
     490:	70010000 	andvc	r0, r1, r0
     494:	07ee0006 	strbeq	r0, [lr, r6]!
     498:	00040000 	andeq	r0, r4, r0
     49c:	000001f5 	strdeq	r0, [r0], -r5
     4a0:	00e20104 	rsceq	r0, r2, r4, lsl #2
     4a4:	350c0000 	strcc	r0, [ip, #-0]
     4a8:	2e000003 	cdpcs	0, 0, cr0, cr0, cr3, {0}
     4ac:	7c000002 	stcvc	0, cr0, [r0], {2}
     4b0:	40000081 	andmi	r0, r0, r1, lsl #1
     4b4:	fc000004 	stc2	0, cr0, [r0], {4}
     4b8:	02000001 	andeq	r0, r0, #1, 0
     4bc:	6e690504 	cdpvs	5, 6, cr0, cr9, cr4, {0}
     4c0:	04030074 	streq	r0, [r3], #-116	; 0xffffff8c
     4c4:	0001d507 	andeq	sp, r1, r7, lsl #10
     4c8:	06010300 	streq	r0, [r1], -r0, lsl #6
     4cc:	000000cb 	andeq	r0, r0, fp, asr #1
     4d0:	22050203 	andcs	r0, r5, #805306368	; 0x30000000
     4d4:	03000000 	movweq	r0, #0
     4d8:	00570504 	subseq	r0, r7, r4, lsl #10
     4dc:	08030000 	stmdaeq	r3, {}	; <UNPREDICTABLE>
     4e0:	00005205 	andeq	r5, r0, r5, lsl #4
     4e4:	00450400 	subeq	r0, r5, r0, lsl #8
     4e8:	2e030000 	cdpcs	0, 0, cr0, cr3, cr0, {0}
     4ec:	00005b18 	andeq	r5, r0, r8, lsl fp
     4f0:	08010300 	stmdaeq	r1, {r8, r9}
     4f4:	000000c9 	andeq	r0, r0, r9, asr #1
     4f8:	0001eb04 	andeq	lr, r1, r4, lsl #22
     4fc:	19310300 	ldmdbne	r1!, {r8, r9}
     500:	0000006e 	andeq	r0, r0, lr, rrx
     504:	0a070203 	beq	1c0d18 <__bss_end__+0x1b5b78>
     508:	04000002 	streq	r0, [r0], #-2
     50c:	000001e2 	andeq	r0, r0, r2, ror #3
     510:	81193403 	tsthi	r9, r3, lsl #8
     514:	03000000 	movweq	r0, #0
     518:	01d00704 	bicseq	r0, r0, r4, lsl #14
     51c:	08030000 	stmdaeq	r3, {}	; <UNPREDICTABLE>
     520:	0001cb07 	andeq	ip, r1, r7, lsl #22
     524:	00250500 	eoreq	r0, r5, r0, lsl #10
     528:	009e0000 	addseq	r0, lr, r0
     52c:	25060000 	strcs	r0, [r6, #-0]
     530:	00000000 	andeq	r0, r0, r0
     534:	00002c07 	andeq	r2, r0, r7, lsl #24
     538:	0e1c0400 	cfmulseq	mvf0, mvf12, mvf0
     53c:	000000aa 	andeq	r0, r0, sl, lsr #1
     540:	008f0408 	addeq	r0, pc, r8, lsl #8
     544:	25050000 	strcs	r0, [r5, #-0]
     548:	bf000000 	svclt	0x00000000
     54c:	06000000 	streq	r0, [r0], -r0
     550:	000000bf 	strheq	r0, [r0], -pc	; <UNPREDICTABLE>
     554:	cc040800 	stcgt	8, cr0, [r4], {-0}
     558:	03000000 	movweq	r0, #0
     55c:	00d20801 	sbcseq	r0, r2, r1, lsl #16
     560:	c5090000 	strgt	r0, [r9, #-0]
     564:	07000000 	streq	r0, [r0, -r0]
     568:	00000682 	andeq	r0, r0, r2, lsl #13
     56c:	dd0e2104 	stfles	f2, [lr, #-16]
     570:	08000000 	stmdaeq	r0, {}	; <UNPREDICTABLE>
     574:	0000b004 	andeq	fp, r0, r4
     578:	050c0a00 	streq	r0, [ip, #-2560]	; 0xfffff600
     57c:	01140905 	tsteq	r4, r5, lsl #18
     580:	400b0000 	andmi	r0, fp, r0
     584:	05000000 	streq	r0, [r0, #-0]
     588:	00bf1107 	adcseq	r1, pc, r7, lsl #2
     58c:	0b000000 	bleq	594 <__code_start__-0x7a6c>
     590:	0000004d 	andeq	r0, r0, sp, asr #32
     594:	bf110805 	svclt	0x00110805
     598:	04000000 	streq	r0, [r0], #-0
     59c:	0001c40b 	andeq	ip, r1, fp, lsl #8
     5a0:	0e090500 	cfsh32eq	mvfx0, mvfx9, #0
     5a4:	0000002c 	andeq	r0, r0, ip, lsr #32
     5a8:	87040008 	strhi	r0, [r4, -r8]
     5ac:	05000002 	streq	r0, [r0, #-2]
     5b0:	00e3030a 	rsceq	r0, r3, sl, lsl #6
     5b4:	070c0000 	streq	r0, [ip, -r0]
     5b8:	00005b01 	andeq	r5, r0, r1, lsl #22
     5bc:	0e090200 	cdpeq	2, 0, cr0, cr9, cr0, {0}
     5c0:	0000013b 	andeq	r0, r0, fp, lsr r1
     5c4:	00033f0d 	andeq	r3, r3, sp, lsl #30
     5c8:	a10d0b00 	tstge	sp, r0, lsl #22
     5cc:	0c000002 	stceq	0, cr0, [r0], {2}
     5d0:	01070c00 	tsteq	r7, r0, lsl #24
     5d4:	0000005b 	andeq	r0, r0, fp, asr r0
     5d8:	56060a02 	strpl	r0, [r6], -r2, lsl #20
     5dc:	0d000001 	stceq	0, cr0, [r0, #-4]
     5e0:	000002b3 			; <UNDEFINED> instruction: 0x000002b3
     5e4:	02a70d80 	adceq	r0, r7, #128, 26	; 0x2000
     5e8:	00fe0000 	rscseq	r0, lr, r0
     5ec:	0000910e 	andeq	r9, r0, lr, lsl #2
     5f0:	0d02b800 	stceq	8, cr11, [r2, #-0]
     5f4:	0001f310 	andeq	pc, r1, r0, lsl r3	; <UNPREDICTABLE>
     5f8:	02820b00 	addeq	r0, r2, #0, 22
     5fc:	0e020000 	cdpeq	0, 0, cr0, cr2, cr0, {0}
     600:	0001f314 	andeq	pc, r1, r4, lsl r3	; <UNPREDICTABLE>
     604:	600b0000 	andvs	r0, fp, r0
     608:	02000000 	andeq	r0, r0, #0, 0
     60c:	00750e0f 	rsbseq	r0, r5, pc, lsl #28
     610:	0b040000 	bleq	100618 <__bss_end__+0xf5478>
     614:	00000015 	andeq	r0, r0, r5, lsl r0
     618:	750e1002 	strvc	r1, [lr, #-2]
     61c:	08000000 	stmdaeq	r0, {}	; <UNPREDICTABLE>
     620:	00000f0b 	andeq	r0, r0, fp, lsl #30
     624:	0e110200 	cdpeq	2, 1, cr0, cr1, cr0, {0}
     628:	00000075 	andeq	r0, r0, r5, ror r0
     62c:	00060b0c 	andeq	r0, r6, ip, lsl #22
     630:	15020000 	strne	r0, [r2, #-0]
     634:	0000750e 	andeq	r7, r0, lr, lsl #10
     638:	a50b1000 	strge	r1, [fp, #-0]
     63c:	02000000 	andeq	r0, r0, #0, 0
     640:	01140f17 	tsteq	r4, r7, lsl pc
     644:	0b140000 	bleq	50064c <__bss_end__+0x4f54ac>
     648:	0000026e 	andeq	r0, r0, lr, ror #4
     64c:	140f1802 	strne	r1, [pc], #-2050	; 654 <__code_start__-0x79ac>
     650:	20000001 	andcs	r0, r0, r1
     654:	0000d70b 	andeq	sp, r0, fp, lsl #14
     658:	0e1b0200 	cdpeq	2, 1, cr0, cr11, cr0, {0}
     65c:	00000075 	andeq	r0, r0, r5, ror r0
     660:	02220b2c 	eoreq	r0, r2, #44, 22	; 0xb000
     664:	1c020000 	stcne	0, cr0, [r2], {-0}
     668:	0000750e 	andeq	r7, r0, lr, lsl #10
     66c:	260b3000 	strcs	r3, [fp], -r0
     670:	02000004 	andeq	r0, r0, #4, 0
     674:	00620e1e 	rsbeq	r0, r2, lr, lsl lr
     678:	0f340000 	svceq	0x00340000
     67c:	00317a72 	eorseq	r7, r1, r2, ror sl
     680:	f90d2002 			; <UNDEFINED> instruction: 0xf90d2002
     684:	36000001 	strcc	r0, [r0], -r1
     688:	56040800 	strpl	r0, [r4], -r0, lsl #16
     68c:	10000001 	andne	r0, r0, r1
     690:	0000004f 	andeq	r0, r0, pc, asr #32
     694:	00000209 	andeq	r0, r0, r9, lsl #4
     698:	00002c11 	andeq	r2, r0, r1, lsl ip
     69c:	04007f00 	streq	r7, [r0], #-3840	; 0xfffff100
     6a0:	00000000 	andeq	r0, r0, r0
     6a4:	56032102 	strpl	r2, [r3], -r2, lsl #2
     6a8:	12000001 	andne	r0, r0, #1, 0
     6ac:	00bc0704 	adcseq	r0, ip, r4, lsl #14
     6b0:	a9020000 	stmdbge	r2, {}	; <UNPREDICTABLE>
     6b4:	00002c11 	andeq	r2, r0, r1, lsl ip
     6b8:	02e01300 	rsceq	r1, r0, #0, 6
     6bc:	08010000 	stmdaeq	r1, {}	; <UNPREDICTABLE>
     6c0:	0002350f 	andeq	r3, r2, pc, lsl #10
     6c4:	70030500 	andvc	r0, r3, r0, lsl #10
     6c8:	080000ad 	stmdaeq	r0, {r0, r2, r3, r5, r7}
     6cc:	00020904 	andeq	r0, r2, r4, lsl #18
     6d0:	02fb0700 	rscseq	r0, fp, #0, 14
     6d4:	0c010000 	stceq	0, cr0, [r1], {-0}
     6d8:	0000c50d 	andeq	ip, r0, sp, lsl #10
     6dc:	031c1400 	tsteq	ip, #0, 8
     6e0:	0d010000 	stceq	0, cr0, [r1, #-0]
     6e4:	00025312 	andeq	r5, r2, r2, lsl r3
     6e8:	2c040800 	stccs	8, cr0, [r4], {-0}
     6ec:	15000000 	strne	r0, [r0, #-0]
     6f0:	00000038 	andeq	r0, r0, r8, lsr r0
     6f4:	15088e01 	strne	r8, [r8, #-3585]	; 0xfffff1ff
     6f8:	c0000002 	andgt	r0, r0, r2
     6fc:	fc000084 	stc2	0, cr0, [r0], {132}	; 0x84
     700:	01000000 	mrseq	r0, (UNDEF: 0)
     704:	00039a9c 	muleq	r3, ip, sl
     708:	036b1600 	cmneq	fp, #0, 12
     70c:	8e010000 	cdphi	0, 0, cr0, cr1, cr0, {0}
     710:	0000751a 	andeq	r7, r0, sl, lsl r5
     714:	00015800 	andeq	r5, r1, r0, lsl #16
     718:	00015200 	andeq	r5, r1, r0, lsl #4
     71c:	006c1700 	rsbeq	r1, ip, r0, lsl #14
     720:	142c8e01 	strtne	r8, [ip], #-3585	; 0xfffff1ff
     724:	02000001 	andeq	r0, r0, #1, 0
     728:	68185491 	ldmdavs	r8, {r0, r4, r7, sl, ip, lr}
     72c:	0c900100 	ldfeqs	f0, [r0], {0}
     730:	00000235 	andeq	r0, r0, r5, lsr r2
     734:	0000018a 	andeq	r0, r0, sl, lsl #3
     738:	00000184 	andeq	r0, r0, r4, lsl #3
     73c:	0084f419 	addeq	pc, r4, r9, lsl r4	; <UNPREDICTABLE>
     740:	00002c00 	andeq	r2, r0, r0, lsl #24
     744:	0002c600 	andeq	ip, r2, r0, lsl #12
     748:	00691800 	rsbeq	r1, r9, r0, lsl #16
     74c:	250e9601 	strcs	r9, [lr, #-1537]	; 0xfffff9ff
     750:	ba000000 	blt	758 <__code_start__-0x78a8>
     754:	b6000001 	strlt	r0, [r0], -r1
     758:	00000001 	andeq	r0, r0, r1
     75c:	00856c19 	addeq	r6, r5, r9, lsl ip
     760:	00002400 	andeq	r2, r0, r0, lsl #8
     764:	00031a00 	andeq	r1, r3, r0, lsl #20
     768:	00691800 	rsbeq	r1, r9, r0, lsl #16
     76c:	250ea301 	strcs	sl, [lr, #-769]	; 0xfffffcff
     770:	dd000000 	stcle	0, cr0, [r0, #-0]
     774:	d9000001 	stmdble	r0, {r0}
     778:	1a000001 	bne	784 <__code_start__-0x787c>
     77c:	00008578 	andeq	r8, r0, r8, ror r5
     780:	00000010 	andeq	r0, r0, r0, lsl r0
     784:	636f6c18 	cmnvs	pc, #24, 24	; 0x1800
     788:	11a50100 			; <UNDEFINED> instruction: 0x11a50100
     78c:	0000039a 	muleq	r0, sl, r3
     790:	000001fe 	strdeq	r0, [r0], -lr
     794:	000001fc 	strdeq	r0, [r0], -ip
     798:	0085841b 	addeq	r8, r5, fp, lsl r4
     79c:	0003a000 	andeq	sl, r3, r0
     7a0:	50011c00 	andpl	r1, r1, r0, lsl #24
     7a4:	76007408 	strvc	r7, [r0], -r8, lsl #8
     7a8:	b8232200 	stmdalt	r3!, {r9, sp}
     7ac:	00000001 	andeq	r0, r0, r1
     7b0:	0084e41d 	addeq	lr, r4, sp, lsl r4
     7b4:	0007b500 	andeq	fp, r7, r0, lsl #10
     7b8:	00032f00 	andeq	r2, r3, r0, lsl #30
     7bc:	50011c00 	andpl	r1, r1, r0, lsl #24
     7c0:	02b87503 	adcseq	r7, r8, #12582912	; 0xc00000
     7c4:	84f41d00 	ldrbthi	r1, [r4], #3328	; 0xd00
     7c8:	07c10000 	strbeq	r0, [r1, r0]
     7cc:	034e0000 	movteq	r0, #57344	; 0xe000
     7d0:	011c0000 	tsteq	ip, r0
     7d4:	00740250 	rsbseq	r0, r4, r0, asr r2
     7d8:	0151011c 	cmpeq	r1, ip, lsl r1
     7dc:	52011c30 	andpl	r1, r1, #48, 24	; 0x3000
     7e0:	00b80802 	adcseq	r0, r8, r2, lsl #16
     7e4:	0085581d 	addeq	r5, r5, sp, lsl r8
     7e8:	0007cd00 	andeq	ip, r7, r0, lsl #26
     7ec:	00037a00 	andeq	r7, r3, r0, lsl #20
     7f0:	50011c00 	andpl	r1, r1, r0, lsl #24
     7f4:	a5d00305 	ldrbge	r0, [r0, #773]	; 0x305
     7f8:	011c0000 	tsteq	ip, r0
     7fc:	587b0351 	ldmdapl	fp!, {r0, r4, r6, r8, r9}^
     800:	52011c06 	andpl	r1, r1, #1536	; 0x600
     804:	065c7b03 	ldrbeq	r7, [ip], -r3, lsl #22
     808:	0353011c 	cmpeq	r3, #7
     80c:	0006607b 	andeq	r6, r6, fp, ror r0
     810:	00856c1b 	addeq	r6, r5, fp, lsl ip
     814:	0007cd00 	andeq	ip, r7, r0, lsl #26
     818:	50011c00 	andpl	r1, r1, r0, lsl #24
     81c:	a6640305 	strbtge	r0, [r4], -r5, lsl #6
     820:	011c0000 	tsteq	ip, r0
     824:	00770251 	rsbseq	r0, r7, r1, asr r2
     828:	0252011c 	subseq	r0, r2, #7
     82c:	00000075 	andeq	r0, r0, r5, ror r0
     830:	02350408 	eorseq	r0, r5, #8, 8	; 0x8000000
     834:	eb150000 	bl	54083c <__bss_end__+0x53569c>
     838:	01000002 	tsteq	r0, r2
     83c:	039a0982 	orrseq	r0, sl, #2129920	; 0x208000
     840:	84700000 	ldrbthi	r0, [r0], #-0
     844:	00440000 	subeq	r0, r4, r0
     848:	9c010000 	stcls	0, cr0, [r1], {-0}
     84c:	000003cf 	andeq	r0, r0, pc, asr #7
     850:	00035416 	andeq	r5, r3, r6, lsl r4
     854:	1f820100 	svcne	0x00820100
     858:	000003cf 	andeq	r0, r0, pc, asr #7
     85c:	0000021d 	andeq	r0, r0, sp, lsl r2
     860:	00000211 	andeq	r0, r0, r1, lsl r2
     864:	c5040800 	strgt	r0, [r4, #-2048]	; 0xfffff800
     868:	1e000000 	cdpne	0, 0, cr0, cr0, cr0, {0}
     86c:	000002cf 	andeq	r0, r0, pc, asr #5
     870:	00066201 	andeq	r6, r6, r1, lsl #4
     874:	5c000083 	stcpl	0, cr0, [r0], {131}	; 0x83
     878:	01000001 	tsteq	r0, r1
     87c:	0005979c 	muleq	r5, ip, r7
     880:	05dd1600 	ldrbeq	r1, [sp, #1536]	; 0x600
     884:	62010000 	andvs	r0, r1, #0, 0
     888:	00021514 	andeq	r1, r2, r4, lsl r5
     88c:	00027800 	andeq	r7, r2, r0, lsl #16
     890:	00027000 	andeq	r7, r2, r0
     894:	006c1700 	rsbeq	r1, ip, r0, lsl #14
     898:	14246201 	strtne	r6, [r4], #-513	; 0xfffffdff
     89c:	02000001 	andeq	r0, r0, #1, 0
     8a0:	68185491 	ldmdavs	r8, {r0, r4, r7, sl, ip, lr}
     8a4:	0c640100 	stfeqe	f0, [r4], #-0
     8a8:	00000235 	andeq	r0, r0, r5, lsr r2
     8ac:	000002ba 			; <UNDEFINED> instruction: 0x000002ba
     8b0:	000002b2 			; <UNDEFINED> instruction: 0x000002b2
     8b4:	0000381f 	andeq	r3, r0, pc, lsl r8
     8b8:	0004de00 	andeq	sp, r4, r0, lsl #28
     8bc:	00691800 	rsbeq	r1, r9, r0, lsl #16
     8c0:	250e6c01 	strcs	r6, [lr, #-3073]	; 0xfffff3ff
     8c4:	01000000 	mrseq	r0, (UNDEF: 0)
     8c8:	f9000003 			; <UNDEFINED> instruction: 0xf9000003
     8cc:	20000002 	andcs	r0, r0, r2
     8d0:	000083c4 	andeq	r8, r0, r4, asr #7
     8d4:	000007d9 	ldrdeq	r0, [r0], -r9
     8d8:	0083d81d 	addeq	sp, r3, sp, lsl r8
     8dc:	0007cd00 	andeq	ip, r7, r0, lsl #26
     8e0:	00046b00 	andeq	r6, r4, r0, lsl #22
     8e4:	50011c00 	andpl	r1, r1, r0, lsl #24
     8e8:	a5ec0305 	strbge	r0, [ip, #773]!	; 0x305
     8ec:	011c0000 	tsteq	ip, r0
     8f0:	00750251 	rsbseq	r0, r5, r1, asr r2
     8f4:	0252011c 	subseq	r0, r2, #7
     8f8:	011c0076 	tsteq	ip, r6, ror r0
     8fc:	00770253 	rsbseq	r0, r7, r3, asr r2
     900:	83e01d00 	mvnhi	r1, #0, 26
     904:	07cd0000 	strbeq	r0, [sp, r0]
     908:	04820000 	streq	r0, [r2], #0
     90c:	011c0000 	tsteq	ip, r0
     910:	2c030550 	cfstr32cs	mvfx0, [r3], {80}	; 0x50
     914:	000000a6 	andeq	r0, r0, r6, lsr #1
     918:	0083e420 	addeq	lr, r3, r0, lsr #8
     91c:	0007e500 	andeq	lr, r7, r0, lsl #10
     920:	83e82000 	mvnhi	r2, #0, 0
     924:	07d90000 	ldrbeq	r0, [r9, r0]
     928:	fc1d0000 	ldc2	0, cr0, [sp], {-0}
     92c:	cd000083 	stcgt	0, cr0, [r0, #-524]	; 0xfffffdf4
     930:	bd000007 	stclt	0, cr0, [r0, #-28]	; 0xffffffe4
     934:	1c000004 	stcne	0, cr0, [r0], {4}
     938:	03055001 	movweq	r5, #20481	; 0x5001
     93c:	0000a5ec 	andeq	sl, r0, ip, ror #11
     940:	0251011c 	subseq	r0, r1, #7
     944:	011c0075 	tsteq	ip, r5, ror r0
     948:	00760252 	rsbseq	r0, r6, r2, asr r2
     94c:	0253011c 	subseq	r0, r3, #7
     950:	1d000077 	stcne	0, cr0, [r0, #-476]	; 0xfffffe24
     954:	00008404 	andeq	r8, r0, r4, lsl #8
     958:	000007cd 	andeq	r0, r0, sp, asr #15
     95c:	000004d4 	ldrdeq	r0, [r0], -r4
     960:	0550011c 	ldrbeq	r0, [r0, #-284]	; 0xfffffee4
     964:	00a64803 	adceq	r4, r6, r3, lsl #16
     968:	08200000 	stmdaeq	r0!, {}	; <UNPREDICTABLE>
     96c:	e5000084 	str	r0, [r0, #-132]	; 0xffffff7c
     970:	00000007 	andeq	r0, r0, r7
     974:	00840819 	addeq	r0, r4, r9, lsl r8
     978:	00001c00 	andeq	r1, r0, r0, lsl #24
     97c:	0004fe00 	andeq	pc, r4, r0, lsl #28
     980:	00691800 	rsbeq	r1, r9, r0, lsl #16
     984:	250e7901 	strcs	r7, [lr, #-2305]	; 0xfffff6ff
     988:	37000000 	strcc	r0, [r0, -r0]
     98c:	35000003 	strcc	r0, [r0, #-3]
     990:	00000003 	andeq	r0, r0, r3
     994:	0083481d 	addeq	r4, r3, sp, lsl r8
     998:	0007cd00 	andeq	ip, r7, r0, lsl #26
     99c:	00052700 	andeq	r2, r5, r0, lsl #14
     9a0:	50011c00 	andpl	r1, r1, r0, lsl #24
     9a4:	a5d00305 	ldrbge	r0, [r0, #773]	; 0x305
     9a8:	011c0000 	tsteq	ip, r0
     9ac:	00750251 	rsbseq	r0, r5, r1, asr r2
     9b0:	0252011c 	subseq	r0, r2, #7
     9b4:	011c0076 	tsteq	ip, r6, ror r0
     9b8:	00770253 	rsbseq	r0, r7, r3, asr r2
     9bc:	83541d00 	cmphi	r4, #0, 26
     9c0:	07cd0000 	strbeq	r0, [sp, r0]
     9c4:	05440000 	strbeq	r0, [r4, #-0]
     9c8:	011c0000 	tsteq	ip, r0
     9cc:	dc030550 	cfstr32le	mvfx0, [r3], {80}	; 0x50
     9d0:	1c0000a5 	stcne	0, cr0, [r0], {165}	; 0xa5
     9d4:	74025101 	strvc	r5, [r2], #-257	; 0xfffffeff
     9d8:	9c200000 	stcls	0, cr0, [r0], #-0
     9dc:	d9000083 	stmdble	r0, {r0, r1, r7}
     9e0:	1d000007 	stcne	0, cr0, [r0, #-28]	; 0xffffffe4
     9e4:	000083b0 			; <UNDEFINED> instruction: 0x000083b0
     9e8:	000007cd 	andeq	r0, r0, sp, asr #15
     9ec:	00000576 	andeq	r0, r0, r6, ror r5
     9f0:	0550011c 	ldrbeq	r0, [r0, #-284]	; 0xfffffee4
     9f4:	00a5ec03 	adceq	lr, r5, r3, lsl #24
     9f8:	51011c00 	tstpl	r1, r0, lsl #24
     9fc:	1c007502 	cfstr32ne	mvfx7, [r0], {2}
     a00:	76025201 	strvc	r5, [r2], -r1, lsl #4
     a04:	53011c00 	movwpl	r1, #7168	; 0x1c00
     a08:	00007702 	andeq	r7, r0, r2, lsl #14
     a0c:	0083bc1d 	addeq	fp, r3, sp, lsl ip
     a10:	0007cd00 	andeq	ip, r7, r0, lsl #26
     a14:	00058d00 	andeq	r8, r5, r0, lsl #26
     a18:	50011c00 	andpl	r1, r1, r0, lsl #24
     a1c:	a6040305 	strge	r0, [r4], -r5, lsl #6
     a20:	20000000 	andcs	r0, r0, r0
     a24:	000083c0 	andeq	r8, r0, r0, asr #7
     a28:	000007e5 	andeq	r0, r0, r5, ror #15
     a2c:	030a1500 	movweq	r1, #42240	; 0xa500
     a30:	30010000 	andcc	r0, r1, r0
     a34:	00023508 	andeq	r3, r2, r8, lsl #10
     a38:	00829400 	addeq	r9, r2, r0, lsl #8
     a3c:	00006000 	andeq	r6, r0, r0
     a40:	389c0100 	ldmcc	ip, {r8}
     a44:	21000006 	tstcs	r0, r6
     a48:	00727470 	rsbseq	r7, r2, r0, ror r4
     a4c:	15203001 	strne	r3, [r0, #-1]!
     a50:	4e000002 	cdpmi	0, 0, cr0, cr0, cr2, {0}
     a54:	4a000003 	bmi	a68 <__code_start__-0x7598>
     a58:	1a000003 	bne	a6c <__code_start__-0x7594>
     a5c:	000082a4 	andeq	r8, r0, r4, lsr #5
     a60:	00000044 	andeq	r0, r0, r4, asr #32
     a64:	01006818 	tsteq	r0, r8, lsl r8
     a68:	0235113d 	eorseq	r1, r5, #1073741839	; 0x4000000f
     a6c:	03740000 	cmneq	r4, #0, 0
     a70:	036c0000 	cmneq	ip, #0, 0
     a74:	a8200000 	stmdage	r0!, {}	; <UNPREDICTABLE>
     a78:	83000082 	movwhi	r0, #130	; 0x82
     a7c:	1d000007 	stcne	0, cr0, [r0, #-28]	; 0xffffffe4
     a80:	000082c0 	andeq	r8, r0, r0, asr #5
     a84:	00000638 	andeq	r0, r0, r8, lsr r6
     a88:	00000603 	andeq	r0, r0, r3, lsl #12
     a8c:	0250011c 	subseq	r0, r0, #7
     a90:	011c0074 	tsteq	ip, r4, ror r0
     a94:	00750251 	rsbseq	r0, r5, r1, asr r2
     a98:	82d01d00 	sbcshi	r1, r0, #0, 26
     a9c:	07560000 	ldrbeq	r0, [r6, -r0]
     aa0:	06170000 	ldreq	r0, [r7], -r0
     aa4:	011c0000 	tsteq	ip, r0
     aa8:	00740250 	rsbseq	r0, r4, r0, asr r2
     aac:	82e81b00 	rschi	r1, r8, #0, 22
     ab0:	07cd0000 	strbeq	r0, [sp, r0]
     ab4:	011c0000 	tsteq	ip, r0
     ab8:	c0030550 	andgt	r0, r3, r0, asr r5
     abc:	1c0000a5 	stcne	0, cr0, [r0], {165}	; 0xa5
     ac0:	75025101 	strvc	r5, [r2, #-257]	; 0xfffffeff
     ac4:	52011c00 	andpl	r1, r1, #0, 24
     ac8:	00007402 	andeq	r7, r0, r2, lsl #8
     acc:	91150000 	tstls	r5, r0
     ad0:	01000002 	tsteq	r0, r2
     ad4:	002c0a29 	eoreq	r0, ip, r9, lsr #20
     ad8:	82440000 	subhi	r0, r4, #0, 0
     adc:	00380000 	eorseq	r0, r8, r0
     ae0:	9c010000 	stcls	0, cr0, [r1], {-0}
     ae4:	000006c5 	andeq	r0, r0, r5, asr #13
     ae8:	01006821 	tsteq	r0, r1, lsr #16
     aec:	02352129 	eorseq	r2, r5, #1073741834	; 0x4000000a
     af0:	03ac0000 			; <UNDEFINED> instruction: 0x03ac0000
     af4:	03a80000 			; <UNDEFINED> instruction: 0x03a80000
     af8:	70210000 	eorvc	r0, r1, r0
     afc:	01007274 	tsteq	r0, r4, ror r2
     b00:	02152a29 	andseq	r2, r5, #167936	; 0x29000
     b04:	03ce0000 	biceq	r0, lr, #0, 0
     b08:	03ca0000 	biceq	r0, sl, #0, 0
     b0c:	6d180000 	ldcvs	0, cr0, [r8, #-0]
     b10:	01006e69 	tsteq	r0, r9, ror #28
     b14:	02150b2b 	andseq	r0, r5, #44032	; 0xac00
     b18:	03f00000 	mvnseq	r0, #0, 0
     b1c:	03ec0000 	mvneq	r0, #0, 0
     b20:	6d180000 	ldcvs	0, cr0, [r8, #-0]
     b24:	01007861 	tsteq	r0, r1, ror #16
     b28:	02150b2c 	andseq	r0, r5, #44, 22	; 0xb000
     b2c:	04100000 	ldreq	r0, [r0], #-0
     b30:	040e0000 	streq	r0, [lr], #-0
     b34:	5c1d0000 	ldcpl	0, cr0, [sp], {-0}
     b38:	29000082 	stmdbcs	r0, {r1, r7}
     b3c:	b4000007 	strlt	r0, [r0], #-7
     b40:	1c000006 	stcne	0, cr0, [r0], {6}
     b44:	76025001 	strvc	r5, [r2], -r1
     b48:	681b0000 	ldmdavs	fp, {}	; <UNPREDICTABLE>
     b4c:	c5000082 	strgt	r0, [r0, #-130]	; 0xffffff7e
     b50:	1c000006 	stcne	0, cr0, [r0], {6}
     b54:	76025001 	strvc	r5, [r2], -r1
     b58:	15000000 	strne	r0, [r0, #-0]
     b5c:	0000035d 	andeq	r0, r0, sp, asr r3
     b60:	15072301 	strne	r2, [r7, #-769]	; 0xfffffcff
     b64:	10000002 	andne	r0, r0, r2
     b68:	20000082 	andcs	r0, r0, r2, lsl #1
     b6c:	01000000 	mrseq	r0, (UNDEF: 0)
     b70:	0007299c 	muleq	r7, ip, r9
     b74:	00682100 	rsbeq	r2, r8, r0, lsl #2
     b78:	35192301 	ldrcc	r2, [r9, #-769]	; 0xfffffcff
     b7c:	27000002 	strcs	r0, [r0, -r2]
     b80:	23000004 	movwcs	r0, #4
     b84:	22000004 	andcs	r0, r0, #4, 0
     b88:	00000799 	muleq	r0, r9, r7
     b8c:	00008224 	andeq	r8, r0, r4, lsr #4
     b90:	00822400 	addeq	r2, r2, r0, lsl #8
     b94:	00000400 	andeq	r0, r0, r0, lsl #8
     b98:	26250100 	strtcs	r0, [r5], -r0, lsl #2
     b9c:	00000718 	andeq	r0, r0, r8, lsl r7
     ba0:	0007aa23 	andeq	sl, r7, r3, lsr #20
     ba4:	00044700 	andeq	r4, r4, r0, lsl #14
     ba8:	00044500 	andeq	r4, r4, r0, lsl #10
     bac:	241b0000 	ldrcs	r0, [fp], #-0
     bb0:	29000082 	stmdbcs	r0, {r1, r7}
     bb4:	1c000007 	stcne	0, cr0, [r0], {7}
     bb8:	74025001 	strvc	r5, [r2], #-1
     bbc:	15000000 	strne	r0, [r0, #-0]
     bc0:	00000347 	andeq	r0, r0, r7, asr #6
     bc4:	15071d01 	strne	r1, [r7, #-3329]	; 0xfffff2ff
     bc8:	ec000002 	stc	0, cr0, [r0], {2}
     bcc:	14000081 	strne	r0, [r0], #-129	; 0xffffff7f
     bd0:	01000000 	mrseq	r0, (UNDEF: 0)
     bd4:	0007569c 	muleq	r7, ip, r6
     bd8:	00682100 	rsbeq	r2, r8, r0, lsl #2
     bdc:	351b1d01 	ldrcc	r1, [fp, #-3329]	; 0xfffff2ff
     be0:	5e000002 	cdppl	0, 0, cr0, cr0, cr2, {0}
     be4:	5a000004 	bpl	bfc <__code_start__-0x7404>
     be8:	00000004 	andeq	r0, r0, r4
     bec:	00032915 	andeq	r2, r3, r5, lsl r9
     bf0:	08160100 	ldmdaeq	r6, {r8}
     bf4:	00000235 	andeq	r0, r0, r5, lsr r2
     bf8:	000081bc 			; <UNDEFINED> instruction: 0x000081bc
     bfc:	0000001c 	andeq	r0, r0, ip, lsl r0
     c00:	07839c01 	streq	r9, [r3, r1, lsl #24]
     c04:	70210000 	eorvc	r0, r1, r0
     c08:	1b160100 	blne	581010 <__bss_end__+0x575e70>
     c0c:	00000235 	andeq	r0, r0, r5, lsr r2
     c10:	00000483 	andeq	r0, r0, r3, lsl #9
     c14:	0000047f 	andeq	r0, r0, pc, ror r4
     c18:	02c22400 	sbceq	r2, r2, #0, 8
     c1c:	10010000 	andne	r0, r1, r0
     c20:	00023508 	andeq	r3, r2, r8, lsl #10
     c24:	00819000 	addeq	r9, r1, r0
     c28:	00001c00 	andeq	r1, r0, r0, lsl #24
     c2c:	259c0100 	ldrcs	r0, [ip, #256]	; 0x100
     c30:	00000368 	andeq	r0, r0, r8, ror #6
     c34:	2c183202 	lfmcs	f3, 4, [r8], {2}
     c38:	03000000 	movweq	r0, #0
     c3c:	000007b5 			; <UNDEFINED> instruction: 0x000007b5
     c40:	02006826 	andeq	r6, r0, #2490368	; 0x260000
     c44:	02352932 	eorseq	r2, r5, #819200	; 0xc8000
     c48:	27000000 	strcs	r0, [r0, -r0]
     c4c:	00000372 	andeq	r0, r0, r2, ror r3
     c50:	00000372 	andeq	r0, r0, r2, ror r3
     c54:	27071e06 	strcs	r1, [r7, -r6, lsl #28]
     c58:	00000262 	andeq	r0, r0, r2, ror #4
     c5c:	00000262 	andeq	r0, r0, r2, ror #4
     c60:	2707f204 	strcs	pc, [r7, -r4, lsl #4]
     c64:	00000644 	andeq	r0, r0, r4, asr #12
     c68:	00000644 	andeq	r0, r0, r4, asr #12
     c6c:	27062804 	strcs	r2, [r6, -r4, lsl #16]
     c70:	000002d6 	ldrdeq	r0, [r0], -r6
     c74:	000002d6 	ldrdeq	r0, [r0], -r6
     c78:	27050407 	strcs	r0, [r5, -r7, lsl #8]
     c7c:	000000af 	andeq	r0, r0, pc, lsr #1
     c80:	000000af 	andeq	r0, r0, pc, lsr #1
     c84:	00066e04 	andeq	r6, r6, r4, lsl #28
     c88:	000002ec 	andeq	r0, r0, ip, ror #5
     c8c:	04440004 	strbeq	r0, [r4], #-4
     c90:	01040000 	mrseq	r0, (UNDEF: 4)
     c94:	000000e2 	andeq	r0, r0, r2, ror #1
     c98:	0003a40c 	andeq	sl, r3, ip, lsl #8
     c9c:	00022e00 	andeq	r2, r2, r0, lsl #28
     ca0:	0085bc00 	addeq	fp, r5, r0, lsl #24
     ca4:	00020000 	andeq	r0, r2, r0
     ca8:	0005d200 	andeq	sp, r5, r0, lsl #4
     cac:	05040200 	streq	r0, [r4, #-512]	; 0xfffffe00
     cb0:	00746e69 	rsbseq	r6, r4, r9, ror #28
     cb4:	d5070403 	strle	r0, [r7, #-1027]	; 0xfffffbfd
     cb8:	03000001 	movweq	r0, #1
     cbc:	00cb0601 	sbceq	r0, fp, r1, lsl #12
     cc0:	02030000 	andeq	r0, r3, #0, 0
     cc4:	00002205 	andeq	r2, r0, r5, lsl #4
     cc8:	05040300 	streq	r0, [r4, #-768]	; 0xfffffd00
     ccc:	00000057 	andeq	r0, r0, r7, asr r0
     cd0:	52050803 	andpl	r0, r5, #196608	; 0x30000
     cd4:	03000000 	movweq	r0, #0
     cd8:	00c90801 	sbceq	r0, r9, r1, lsl #16
     cdc:	02030000 	andeq	r0, r3, #0, 0
     ce0:	00020a07 	andeq	r0, r2, r7, lsl #20
     ce4:	07040300 	streq	r0, [r4, -r0, lsl #6]
     ce8:	000001d0 	ldrdeq	r0, [r0], -r0	; <UNPREDICTABLE>
     cec:	cb070803 	blgt	1c2d00 <__bss_end__+0x1b7b60>
     cf0:	04000001 	streq	r0, [r0], #-1
     cf4:	00000025 	andeq	r0, r0, r5, lsr #32
     cf8:	0000007a 	andeq	r0, r0, sl, ror r0
     cfc:	00002505 	andeq	r2, r0, r5, lsl #10
     d00:	2c060000 	stccs	0, cr0, [r6], {-0}
     d04:	02000000 	andeq	r0, r0, #0, 0
     d08:	00860e1c 	addeq	r0, r6, ip, lsl lr
     d0c:	04070000 	streq	r0, [r7], #-0
     d10:	0000006b 	andeq	r0, r0, fp, rrx
     d14:	00002504 	andeq	r2, r0, r4, lsl #10
     d18:	00009b00 	andeq	r9, r0, r0, lsl #22
     d1c:	009b0500 	addseq	r0, fp, r0, lsl #10
     d20:	07000000 	streq	r0, [r0, -r0]
     d24:	0000a804 	andeq	sl, r0, r4, lsl #16
     d28:	08010300 	stmdaeq	r1, {r8, r9}
     d2c:	000000d2 	ldrdeq	r0, [r0], -r2
     d30:	0000a108 	andeq	sl, r0, r8, lsl #2
     d34:	06820600 	streq	r0, [r2], r0, lsl #12
     d38:	21020000 	mrscs	r0, (UNDEF: 2)
     d3c:	0000b90e 	andeq	fp, r0, lr, lsl #18
     d40:	8c040700 	stchi	7, cr0, [r4], {-0}
     d44:	09000000 	stmdbeq	r0, {}	; <UNPREDICTABLE>
     d48:	00000389 	andeq	r0, r0, r9, lsl #7
     d4c:	07050108 	streq	r0, [r5, -r8, lsl #2]
     d50:	000000ec 	andeq	r0, r0, ip, ror #1
     d54:	0100640a 	tsteq	r0, sl, lsl #8
     d58:	00ec0907 	rsceq	r0, ip, r7, lsl #18
     d5c:	700a0000 	andvc	r0, sl, r0
     d60:	08080100 	stmdaeq	r8, {r8}
     d64:	000000f3 	strdeq	r0, [r0], -r3
     d68:	0070660a 	rsbseq	r6, r0, sl, lsl #12
     d6c:	f6090901 			; <UNDEFINED> instruction: 0xf6090901
     d70:	00000000 	andeq	r0, r0, r0
     d74:	b0040803 	andlt	r0, r4, r3, lsl #16
     d78:	0b000003 	bleq	d8c <__code_start__-0x7274>
     d7c:	04070c04 	streq	r0, [r7], #-3076	; 0xfffff3fc
     d80:	000000f5 	strdeq	r0, [r0], -r5
     d84:	0e01080d 	cdpeq	8, 0, cr0, cr1, cr13, {0}
     d88:	00012002 	andeq	r2, r1, r2
     d8c:	74700e00 	ldrbtvc	r0, [r0], #-3584	; 0xfffff200
     d90:	10010072 	andne	r0, r1, r2, ror r0
     d94:	00014211 	andeq	r4, r1, r1, lsl r2
     d98:	ca0f0000 	bgt	3c0da0 <__bss_end__+0x3b5c00>
     d9c:	01000003 	tsteq	r0, r3
     da0:	002c0c11 	eoreq	r0, ip, r1, lsl ip
     da4:	00040000 	andeq	r0, r4, r0
     da8:	00037c09 	andeq	r7, r3, r9, lsl #24
     dac:	0c010800 	stceq	8, cr0, [r1], {-0}
     db0:	0001420f 	andeq	r4, r1, pc, lsl #4
     db4:	00730a00 	rsbseq	r0, r3, r0, lsl #20
     db8:	fc041201 	stc2	2, cr1, [r4], {1}
     dbc:	0a000000 	beq	dc4 <__code_start__-0x723c>
     dc0:	13010078 	movwne	r0, #4216	; 0x1078
     dc4:	0000bf0e 	andeq	fp, r0, lr, lsl #30
     dc8:	04070000 	streq	r0, [r7], #-0
     dcc:	00000120 	andeq	r0, r0, r0, lsr #2
     dd0:	0003cf10 	andeq	ip, r3, r0, lsl pc
     dd4:	03140100 	tsteq	r4, #0
     dd8:	00000120 	andeq	r0, r0, r0, lsr #2
     ddc:	0003b711 	andeq	fp, r3, r1, lsl r7
     de0:	0f180100 	svceq	0x00180100
     de4:	00000148 	andeq	r0, r0, r8, asr #2
     de8:	ad800305 	stcge	3, cr0, [r0, #20]
     dec:	97110000 	ldrls	r0, [r1, -r0]
     df0:	01000003 	tsteq	r0, r3
     df4:	01781019 	cmneq	r8, r9, lsl r0
     df8:	03050000 	movweq	r0, #20480	; 0x5000
     dfc:	0000ad78 	andeq	sl, r0, r8, ror sp
     e00:	01480407 	cmpeq	r8, r7, lsl #8
     e04:	8f120000 	svchi	0x00120000
     e08:	01000003 	tsteq	r0, r3
     e0c:	85c80653 	strbhi	r0, [r8, #1619]	; 0x653
     e10:	00c40000 	sbceq	r0, r4, r0
     e14:	9c010000 	stcls	0, cr0, [r1], {-0}
     e18:	000001c7 	andeq	r0, r0, r7, asr #3
     e1c:	00706113 	rsbseq	r6, r0, r3, lsl r1
     e20:	f3145301 	vcgt.u16	d5, d4, d1
     e24:	01000000 	mrseq	r0, (UNDEF: 0)
     e28:	70621450 	rsbvc	r1, r2, r0, asr r4
     e2c:	0a550100 	beq	1541234 <__bss_end__+0x1536094>
     e30:	00000178 	andeq	r0, r0, r8, ror r1
     e34:	000004ac 	andeq	r0, r0, ip, lsr #9
     e38:	000004a4 	andeq	r0, r0, r4, lsr #9
     e3c:	01007014 	tsteq	r0, r4, lsl r0
     e40:	01780f55 	cmneq	r8, r5, asr pc
     e44:	04e80000 	strbteq	r0, [r8], #0
     e48:	04e40000 	strbteq	r0, [r4], #0
     e4c:	15000000 	strne	r0, [r0, #-0]
     e50:	00000372 	andeq	r0, r0, r2, ror r3
     e54:	f3072b01 	vqrdmulh.s<illegal width 8>	d2, d7, d1
     e58:	08000000 	stmdaeq	r0, {}	; <UNPREDICTABLE>
     e5c:	b4000087 	strlt	r0, [r0], #-135	; 0xffffff79
     e60:	01000000 	mrseq	r0, (UNDEF: 0)
     e64:	0002419c 	muleq	r2, ip, r1
     e68:	036b1600 	cmneq	fp, #0, 12
     e6c:	2b010000 	blcs	40e74 <__bss_end__+0x35cd4>
     e70:	00002c1a 	andeq	r2, r0, sl, lsl ip
     e74:	00050e00 	andeq	r0, r5, r0, lsl #28
     e78:	00050600 	andeq	r0, r5, r0, lsl #12
     e7c:	00701400 	rsbseq	r1, r0, r0, lsl #8
     e80:	780a2d01 	stmdavc	sl, {r0, r8, sl, fp, sp}
     e84:	56000001 	strpl	r0, [r0], -r1
     e88:	48000005 	stmdami	r0, {r0, r2}
     e8c:	17000005 	strne	r0, [r0, -r5]
     e90:	00000383 	andeq	r0, r0, r3, lsl #7
     e94:	780e2d01 	stmdavc	lr, {r0, r8, sl, fp, sp}
     e98:	b8000001 	stmdalt	r0, {r0}
     e9c:	ae000005 	cdpge	0, 0, cr0, cr0, cr5, {0}
     ea0:	17000005 	strne	r0, [r0, -r5]
     ea4:	0000039d 	muleq	r0, sp, r3
     ea8:	2c0b2e01 	stccs	14, cr2, [fp], {1}
     eac:	fe000000 	cdp2	0, 0, cr0, cr0, cr0, {0}
     eb0:	fc000005 	stc2	0, cr0, [r0], {5}
     eb4:	18000005 	stmdane	r0, {r0, r2}
     eb8:	000087ac 	andeq	r8, r0, ip, lsr #15
     ebc:	00000241 	andeq	r0, r0, r1, asr #4
     ec0:	03500119 	cmpeq	r0, #1073741830	; 0x40000006
     ec4:	0080000a 	addeq	r0, r0, sl
     ec8:	03c11a00 	biceq	r1, r1, #0, 20
     ecc:	1c010000 	stcne	0, cr0, [r1], {-0}
     ed0:	00017810 	andeq	r7, r1, r0, lsl r8
     ed4:	00869c00 	addeq	r9, r6, r0, lsl #24
     ed8:	00005c00 	andeq	r5, r0, r0, lsl #24
     edc:	d19c0100 	orrsle	r0, ip, r0, lsl #2
     ee0:	1b000002 	blne	ef0 <__code_start__-0x7110>
     ee4:	0100756e 	tsteq	r0, lr, ror #10
     ee8:	002c221c 	eoreq	r2, ip, ip, lsl r2
     eec:	06150000 	ldreq	r0, [r5], -r0
     ef0:	06110000 	ldreq	r0, [r1], -r0
     ef4:	63140000 	tstvs	r4, #0, 0
     ef8:	21010070 	tstcs	r1, r0, ror r0
     efc:	0002d108 	andeq	sp, r2, r8, lsl #2
     f00:	00063900 	andeq	r3, r6, r0, lsl #18
     f04:	00063300 	andeq	r3, r6, r0, lsl #6
     f08:	70751400 	rsbsvc	r1, r5, r0, lsl #8
     f0c:	0a240100 	beq	901314 <__bss_end__+0x8f6174>
     f10:	00000178 	andeq	r0, r0, r8, ror r1
     f14:	00000668 	andeq	r0, r0, r8, ror #12
     f18:	00000664 	andeq	r0, r0, r4, ror #12
     f1c:	0086c01c 	addeq	ip, r6, ip, lsl r0
     f20:	0002d700 	andeq	sp, r2, r0, lsl #14
     f24:	0002b100 	andeq	fp, r2, r0, lsl #2
     f28:	50011900 	andpl	r1, r1, r0, lsl #18
     f2c:	a6800305 	strge	r0, [r0], r5, lsl #6
     f30:	01190000 	tsteq	r9, r0
     f34:	00740251 	rsbseq	r0, r4, r1, asr r2
     f38:	86c81c00 	strbhi	r1, [r8], r0, lsl #24
     f3c:	02e30000 	rsceq	r0, r3, #0, 0
     f40:	02c70000 	sbceq	r0, r7, #0, 0
     f44:	01190000 	tsteq	r9, r0
     f48:	00740450 	rsbseq	r0, r4, r0, asr r4
     f4c:	1d002433 	cfstrsne	mvf2, [r0, #-204]	; 0xffffff34
     f50:	000086dc 	ldrdeq	r8, [r0], -ip
     f54:	0000017e 	andeq	r0, r0, lr, ror r1
     f58:	a1040700 	tstge	r4, r0, lsl #14
     f5c:	1e000000 	cdpne	0, 0, cr0, cr0, cr0, {0}
     f60:	00000644 	andeq	r0, r0, r4, asr #12
     f64:	00000644 	andeq	r0, r0, r4, asr #12
     f68:	1e062802 	cdpne	8, 0, cr2, cr6, cr2, {0}
     f6c:	000003bc 			; <UNDEFINED> instruction: 0x000003bc
     f70:	000003bc 			; <UNDEFINED> instruction: 0x000003bc
     f74:	000b1a03 	andeq	r1, fp, r3, lsl #20
     f78:	00000cbe 			; <UNDEFINED> instruction: 0x00000cbe
     f7c:	061b0004 	ldreq	r0, [fp], -r4
     f80:	01040000 	mrseq	r0, (UNDEF: 4)
     f84:	000000e2 	andeq	r0, r0, r2, ror #1
     f88:	0004900c 	andeq	r9, r4, ip
     f8c:	00022e00 	andeq	r2, r2, r0, lsl #28
     f90:	0087bc00 	addeq	fp, r7, r0, lsl #24
     f94:	0006a800 	andeq	sl, r6, r0, lsl #16
     f98:	0007fe00 	andeq	pc, r7, r0, lsl #28
     f9c:	05040200 	streq	r0, [r4, #-512]	; 0xfffffe00
     fa0:	00746e69 	rsbseq	r6, r4, r9, ror #28
     fa4:	d5070403 	strle	r0, [r7, #-1027]	; 0xfffffbfd
     fa8:	03000001 	movweq	r0, #1
     fac:	00cb0601 	sbceq	r0, fp, r1, lsl #12
     fb0:	02030000 	andeq	r0, r3, #0, 0
     fb4:	00002205 	andeq	r2, r0, r5, lsl #4
     fb8:	05040300 	streq	r0, [r4, #-768]	; 0xfffffd00
     fbc:	00000057 	andeq	r0, r0, r7, asr r0
     fc0:	52050803 	andpl	r0, r5, #196608	; 0x30000
     fc4:	04000000 	streq	r0, [r0], #-0
     fc8:	00000045 	andeq	r0, r0, r5, asr #32
     fcc:	5b182e03 	blpl	60c7e0 <__bss_end__+0x601640>
     fd0:	03000000 	movweq	r0, #0
     fd4:	00c90801 	sbceq	r0, r9, r1, lsl #16
     fd8:	eb040000 	bl	100fe0 <__bss_end__+0xf5e40>
     fdc:	03000001 	movweq	r0, #1
     fe0:	006e1931 	rsbeq	r1, lr, r1, lsr r9
     fe4:	02030000 	andeq	r0, r3, #0, 0
     fe8:	00020a07 	andeq	r0, r2, r7, lsl #20
     fec:	01e20400 	mvneq	r0, r0, lsl #8
     ff0:	34030000 	strcc	r0, [r3], #-0
     ff4:	00008119 	andeq	r8, r0, r9, lsl r1
     ff8:	07040300 	streq	r0, [r4, -r0, lsl #6]
     ffc:	000001d0 	ldrdeq	r0, [r0], -r0	; <UNPREDICTABLE>
    1000:	cb070803 	blgt	1c3014 <__bss_end__+0x1b7e74>
    1004:	05000001 	streq	r0, [r0, #-1]
    1008:	00000025 	andeq	r0, r0, r5, lsr #32
    100c:	0000009e 	muleq	r0, lr, r0
    1010:	00002506 	andeq	r2, r0, r6, lsl #10
    1014:	2c070000 	stccs	0, cr0, [r7], {-0}
    1018:	04000000 	streq	r0, [r0], #-0
    101c:	00aa0e1c 	adceq	r0, sl, ip, lsl lr
    1020:	04080000 	streq	r0, [r8], #-0
    1024:	0000008f 	andeq	r0, r0, pc, lsl #1
    1028:	00002505 	andeq	r2, r0, r5, lsl #10
    102c:	0000bf00 	andeq	fp, r0, r0, lsl #30
    1030:	00bf0600 	adcseq	r0, pc, r0, lsl #12
    1034:	08000000 	stmdaeq	r0, {}	; <UNPREDICTABLE>
    1038:	0000cc04 	andeq	ip, r0, r4, lsl #24
    103c:	08010300 	stmdaeq	r1, {r8, r9}
    1040:	000000d2 	ldrdeq	r0, [r0], -r2
    1044:	0000c509 	andeq	ip, r0, r9, lsl #10
    1048:	06820700 	streq	r0, [r2], r0, lsl #14
    104c:	21040000 	mrscs	r0, (UNDEF: 4)
    1050:	0000dd0e 	andeq	sp, r0, lr, lsl #26
    1054:	b0040800 	andlt	r0, r4, r0, lsl #16
    1058:	0a000000 	beq	1060 <__code_start__-0x6fa0>
    105c:	0905020c 	stmdbeq	r5, {r2, r3, r9}
    1060:	00000114 	andeq	r0, r0, r4, lsl r1
    1064:	0000400b 	andeq	r4, r0, fp
    1068:	11070200 	mrsne	r0, (UNDEF: 39)
    106c:	000000bf 	strheq	r0, [r0], -pc	; <UNPREDICTABLE>
    1070:	004d0b00 	subeq	r0, sp, r0, lsl #22
    1074:	08020000 	stmdaeq	r2, {}	; <UNPREDICTABLE>
    1078:	0000bf11 	andeq	fp, r0, r1, lsl pc
    107c:	c40b0400 	strgt	r0, [fp], #-1024	; 0xfffffc00
    1080:	02000001 	andeq	r0, r0, #1, 0
    1084:	002c0e09 	eoreq	r0, ip, r9, lsl #28
    1088:	00080000 	andeq	r0, r8, r0
    108c:	00028704 	andeq	r8, r2, r4, lsl #14
    1090:	030a0200 	movweq	r0, #41472	; 0xa200
    1094:	000000e3 	andeq	r0, r0, r3, ror #1
    1098:	5b01070c 	blpl	42cd0 <__bss_end__+0x37b30>
    109c:	05000000 	streq	r0, [r0, #-0]
    10a0:	013b0e09 	teqeq	fp, r9, lsl #28
    10a4:	3f0d0000 	svccc	0x000d0000
    10a8:	0b000003 	bleq	10bc <__code_start__-0x6f44>
    10ac:	0002a10d 	andeq	sl, r2, sp, lsl #2
    10b0:	0c000c00 	stceq	12, cr0, [r0], {-0}
    10b4:	005b0107 	subseq	r0, fp, r7, lsl #2
    10b8:	0a050000 	beq	1410c0 <__bss_end__+0x135f20>
    10bc:	00015606 	andeq	r5, r1, r6, lsl #12
    10c0:	02b30d00 	adcseq	r0, r3, #0, 26
    10c4:	0d800000 	stceq	0, cr0, [r0]
    10c8:	000002a7 	andeq	r0, r0, r7, lsr #5
    10cc:	910e00fe 	strdls	r0, [lr, -lr]
    10d0:	b8000000 	stmdalt	r0, {}	; <UNPREDICTABLE>
    10d4:	f3100d05 	vpadd.f16	d0, d0, d5
    10d8:	0b000001 	bleq	10e4 <__code_start__-0x6f1c>
    10dc:	00000282 	andeq	r0, r0, r2, lsl #5
    10e0:	f3140e05 	vcge.f16	d0, d4, d5
    10e4:	00000001 	andeq	r0, r0, r1
    10e8:	0000600b 	andeq	r6, r0, fp
    10ec:	0e0f0500 	cfsh32eq	mvfx0, mvfx15, #0
    10f0:	00000075 	andeq	r0, r0, r5, ror r0
    10f4:	00150b04 	andseq	r0, r5, r4, lsl #22
    10f8:	10050000 	andne	r0, r5, r0
    10fc:	0000750e 	andeq	r7, r0, lr, lsl #10
    1100:	0f0b0800 	svceq	0x000b0800
    1104:	05000000 	streq	r0, [r0, #-0]
    1108:	00750e11 	rsbseq	r0, r5, r1, lsl lr
    110c:	0b0c0000 	bleq	301114 <__bss_end__+0x2f5f74>
    1110:	00000006 	andeq	r0, r0, r6
    1114:	750e1505 	strvc	r1, [lr, #-1285]	; 0xfffffafb
    1118:	10000000 	andne	r0, r0, r0
    111c:	0000a50b 	andeq	sl, r0, fp, lsl #10
    1120:	0f170500 	svceq	0x00170500
    1124:	00000114 	andeq	r0, r0, r4, lsl r1
    1128:	026e0b14 	rsbeq	r0, lr, #20, 22	; 0x5000
    112c:	18050000 	stmdane	r5, {}	; <UNPREDICTABLE>
    1130:	0001140f 	andeq	r1, r1, pc, lsl #8
    1134:	d70b2000 	strle	r2, [fp, -r0]
    1138:	05000000 	streq	r0, [r0, #-0]
    113c:	00750e1b 	rsbseq	r0, r5, fp, lsl lr
    1140:	0b2c0000 	bleq	b01148 <__bss_end__+0xaf5fa8>
    1144:	00000222 	andeq	r0, r0, r2, lsr #4
    1148:	750e1c05 	strvc	r1, [lr, #-3077]	; 0xfffff3fb
    114c:	30000000 	andcc	r0, r0, r0
    1150:	0004260b 	andeq	r2, r4, fp, lsl #12
    1154:	0e1e0500 	cfmul32eq	mvfx0, mvfx14, mvfx0
    1158:	00000062 	andeq	r0, r0, r2, rrx
    115c:	7a720f34 	bvc	1c84e34 <__bss_end__+0x1c79c94>
    1160:	20050031 	andcs	r0, r5, r1, lsr r0
    1164:	0001f90d 	andeq	pc, r1, sp, lsl #18
    1168:	08003600 	stmdaeq	r0, {r9, sl, ip, sp}
    116c:	00015604 	andeq	r5, r1, r4, lsl #12
    1170:	004f1000 	subeq	r1, pc, r0
    1174:	02090000 	andeq	r0, r9, #0, 0
    1178:	2c110000 	ldccs	0, cr0, [r1], {-0}
    117c:	7f000000 	svcvc	0x00000000
    1180:	00000400 	andeq	r0, r0, r0, lsl #8
    1184:	21050000 	mrscs	r0, (UNDEF: 5)
    1188:	00015603 	andeq	r5, r1, r3, lsl #12
    118c:	07041200 	streq	r1, [r4, -r0, lsl #4]
    1190:	000000bc 	strheq	r0, [r0], -ip
    1194:	2c11a905 			; <UNDEFINED> instruction: 0x2c11a905
    1198:	13000000 	movwne	r0, #0
    119c:	00000af0 	strdeq	r0, [r0], -r0	; <UNPREDICTABLE>
    11a0:	150e1001 	strne	r1, [lr, #-1]
    11a4:	05000002 	streq	r0, [r0, #-2]
    11a8:	00ad8803 	adceq	r8, sp, r3, lsl #16
    11ac:	0b4b1300 	bleq	12c5db4 <__bss_end__+0x12bac14>
    11b0:	11010000 	mrsne	r0, (UNDEF: 1)
    11b4:	0002150e 	andeq	r1, r2, lr, lsl #10
    11b8:	8c030500 	cfstr32hi	mvfx0, [r3], {-0}
    11bc:	140000ad 	strne	r0, [r0], #-173	; 0xffffff53
    11c0:	000003e9 	andeq	r0, r0, r9, ror #7
    11c4:	06011901 	streq	r1, [r1], -r1, lsl #18
    11c8:	00008e30 	andeq	r8, r0, r0, lsr lr
    11cc:	00000034 	andeq	r0, r0, r4, lsr r0
    11d0:	02a79c01 	adceq	r9, r7, #256	; 0x100
    11d4:	98150000 	ldmdals	r5, {}	; <UNPREDICTABLE>
    11d8:	b7000000 	strlt	r0, [r0, -r0]
    11dc:	05000002 	streq	r0, [r0, #-2]
    11e0:	00a9b003 	adceq	fp, r9, r3
    11e4:	8e501600 	cdphi	6, 5, cr1, cr0, cr0, {0}
    11e8:	0c460000 	mareq	acc0, r0, r6
    11ec:	029d0000 	addseq	r0, sp, #0, 0
    11f0:	01170000 	tsteq	r7, r0
    11f4:	40030550 	andmi	r0, r3, r0, asr r5
    11f8:	170000a9 	strne	r0, [r0, -r9, lsr #1]
    11fc:	03055101 	movweq	r5, #20737	; 0x5101
    1200:	0000a6a4 	andeq	sl, r0, r4, lsr #13
    1204:	05520117 	ldrbeq	r0, [r2, #-279]	; 0xfffffee9
    1208:	00a9b003 	adceq	fp, r9, r3
    120c:	53011700 	movwpl	r1, #5888	; 0x1700
    1210:	011b0a03 	tsteq	fp, r3, lsl #20
    1214:	8e541800 	cdphi	8, 5, cr1, cr4, cr0, {0}
    1218:	0c520000 	mraeq	r0, r2, acc0
    121c:	10000000 	andne	r0, r0, r0
    1220:	000000cc 	andeq	r0, r0, ip, asr #1
    1224:	000002b7 			; <UNDEFINED> instruction: 0x000002b7
    1228:	00002c11 	andeq	r2, r0, r1, lsl ip
    122c:	09000e00 	stmdbeq	r0, {r9, sl, fp}
    1230:	000002a7 	andeq	r0, r0, r7, lsr #5
    1234:	00045019 	andeq	r5, r4, r9, lsl r0
    1238:	010f0100 	mrseq	r0, (UNDEF: 31)
    123c:	00002c0a 	andeq	r2, r0, sl, lsl #24
    1240:	008e0400 	addeq	r0, lr, r0, lsl #8
    1244:	00001800 	andeq	r1, r0, r0, lsl #16
    1248:	ff9c0100 			; <UNDEFINED> instruction: 0xff9c0100
    124c:	1a000002 	bne	125c <__code_start__-0x6da4>
    1250:	0000036b 	andeq	r0, r0, fp, ror #6
    1254:	0e011201 	cdpeq	2, 0, cr1, cr1, cr1, {0}
    1258:	0000002c 	andeq	r0, r0, ip, lsr #32
    125c:	0000068a 	andeq	r0, r0, sl, lsl #13
    1260:	00000688 	andeq	r0, r0, r8, lsl #13
    1264:	008e1418 	addeq	r1, lr, r8, lsl r4
    1268:	0007a300 	andeq	sl, r7, r0, lsl #6
    126c:	8e181800 	cdphi	8, 1, cr1, cr8, cr0, {0}
    1270:	02ff0000 	rscseq	r0, pc, #0, 0
    1274:	1b000000 	blne	127c <__code_start__-0x6d84>
    1278:	000004ef 	andeq	r0, r0, pc, ror #9
    127c:	2c11f701 	ldccs	7, cr15, [r1], {1}
    1280:	54000000 	strpl	r0, [r0], #-0
    1284:	f000008b 			; <UNDEFINED> instruction: 0xf000008b
    1288:	01000000 	mrseq	r0, (UNDEF: 0)
    128c:	0004699c 	muleq	r4, ip, r9
    1290:	04061c00 	streq	r1, [r6], #-3072	; 0xfffff400
    1294:	f9010000 			; <UNDEFINED> instruction: 0xf9010000
    1298:	00002c0e 	andeq	r2, r0, lr, lsl #24
    129c:	0006a100 	andeq	sl, r6, r0, lsl #2
    12a0:	00069d00 	andeq	r9, r6, r0, lsl #26
    12a4:	047b1c00 	ldrbteq	r1, [fp], #-3072	; 0xfffff400
    12a8:	f9010000 			; <UNDEFINED> instruction: 0xf9010000
    12ac:	00002c1b 	andeq	r2, r0, fp, lsl ip
    12b0:	0006c400 	andeq	ip, r6, r0, lsl #8
    12b4:	0006c000 	andeq	ip, r6, r0
    12b8:	04151c00 	ldreq	r1, [r5], #-3072	; 0xfffff400
    12bc:	f9010000 			; <UNDEFINED> instruction: 0xf9010000
    12c0:	00002c27 	andeq	r2, r0, r7, lsr #24
    12c4:	0006e900 	andeq	lr, r6, r0, lsl #18
    12c8:	0006e300 	andeq	lr, r6, r0, lsl #6
    12cc:	00981500 	addseq	r1, r8, r0, lsl #10
    12d0:	04790000 	ldrbteq	r0, [r9], #-0
    12d4:	03050000 	movweq	r0, #20480	; 0x5000
    12d8:	0000a978 	andeq	sl, r0, r8, ror r9
    12dc:	0000981d 	andeq	r9, r0, sp, lsl r8
    12e0:	00040c00 	andeq	r0, r4, r0, lsl #24
    12e4:	00681e00 	rsbeq	r1, r8, r0, lsl #28
    12e8:	7e11fe01 	cdpvc	14, 1, cr15, cr1, cr1, {0}
    12ec:	1b000004 	blne	1304 <__code_start__-0x6cfc>
    12f0:	13000007 	movwne	r0, #7
    12f4:	1f000007 	svcne	0x00000007
    12f8:	00000c10 	andeq	r0, r0, r0, lsl ip
    12fc:	00008ba0 	andeq	r8, r0, r0, lsr #23
    1300:	008ba000 	addeq	sl, fp, r0
    1304:	00001800 	andeq	r1, r0, r0, lsl #16
    1308:	01050100 	mrseq	r0, (UNDEF: 21)
    130c:	0003c10d 	andeq	ip, r3, sp, lsl #2
    1310:	0c392000 	ldceq	0, cr2, [r9], #-0
    1314:	07510000 	ldrbeq	r0, [r1, -r0]
    1318:	074f0000 	strbeq	r0, [pc, -r0]
    131c:	2d200000 	stccs	0, cr0, [r0, #-0]
    1320:	6900000c 	stmdbvs	r0, {r2, r3}
    1324:	67000007 	strvs	r0, [r0, -r7]
    1328:	20000007 	andcs	r0, r0, r7
    132c:	00000c21 	andeq	r0, r0, r1, lsr #24
    1330:	00000783 	andeq	r0, r0, r3, lsl #15
    1334:	00000781 	andeq	r0, r0, r1, lsl #15
    1338:	8b7c1800 	blhi	1f07340 <__bss_end__+0x1efc1a0>
    133c:	0c6d0000 	stcleq	0, cr0, [sp], #-0
    1340:	c8160000 	ldmdagt	r6, {}	; <UNPREDICTABLE>
    1344:	7900008b 	stmdbvc	r0, {r0, r1, r3, r7}
    1348:	de00000c 	cdple	0, 0, cr0, cr0, cr12, {0}
    134c:	17000003 	strne	r0, [r0, -r3]
    1350:	78025001 	stmdavc	r2, {r0, ip, lr}
    1354:	d4160000 	ldrle	r0, [r6], #-0
    1358:	4600008b 	strmi	r0, [r0], -fp, lsl #1
    135c:	fb00000c 	blx	1396 <__code_start__-0x6c6a>
    1360:	17000003 	strne	r0, [r0, -r3]
    1364:	03055001 	movweq	r5, #20481	; 0x5001
    1368:	0000a834 	andeq	sl, r0, r4, lsr r8
    136c:	02510117 	subseq	r0, r1, #-1073741819	; 0xc0000005
    1370:	21000078 	tstcs	r0, r8, ror r0
    1374:	00008bdc 	ldrdeq	r8, [r0], -ip
    1378:	00000c85 	andeq	r0, r0, r5, lsl #25
    137c:	02500117 	subseq	r0, r0, #-1073741819	; 0xc0000005
    1380:	00000074 	andeq	r0, r0, r4, ror r0
    1384:	008b6c16 	addeq	r6, fp, r6, lsl ip
    1388:	000c4600 	andeq	r4, ip, r0, lsl #12
    138c:	00042300 	andeq	r2, r4, r0, lsl #6
    1390:	50011700 	andpl	r1, r1, r0, lsl #14
    1394:	a6f00305 	ldrbtge	r0, [r0], r5, lsl #6
    1398:	16000000 	strne	r0, [r0], -r0
    139c:	00008b74 	andeq	r8, r0, r4, ror fp
    13a0:	00000c46 	andeq	r0, r0, r6, asr #24
    13a4:	0000043a 	andeq	r0, r0, sl, lsr r4
    13a8:	05500117 	ldrbeq	r0, [r0, #-279]	; 0xfffffee9
    13ac:	00a82403 	adceq	r2, r8, r3, lsl #8
    13b0:	78180000 	ldmdavc	r8, {}	; <UNPREDICTABLE>
    13b4:	a300008b 	movwge	r0, #139	; 0x8b
    13b8:	21000007 	tstcs	r0, r7
    13bc:	00008c1c 	andeq	r8, r0, ip, lsl ip
    13c0:	00000c46 	andeq	r0, r0, r6, asr #24
    13c4:	05500117 	ldrbeq	r0, [r0, #-279]	; 0xfffffee9
    13c8:	00a84403 	adceq	r4, r8, r3, lsl #8
    13cc:	51011700 	tstpl	r1, r0, lsl #14
    13d0:	17007502 	strne	r7, [r0, -r2, lsl #10]
    13d4:	77025201 	strvc	r5, [r2, -r1, lsl #4]
    13d8:	53011700 	movwpl	r1, #5888	; 0x1700
    13dc:	00007602 	andeq	r7, r0, r2, lsl #12
    13e0:	00cc1000 	sbceq	r1, ip, r0
    13e4:	04790000 	ldrbteq	r0, [r9], #-0
    13e8:	2c110000 	ldccs	0, cr0, [r1], {-0}
    13ec:	0a000000 	beq	13f4 <__code_start__-0x6c0c>
    13f0:	04690900 	strbteq	r0, [r9], #-2304	; 0xfffff700
    13f4:	04080000 	streq	r0, [r8], #-0
    13f8:	00000209 	andeq	r0, r0, r9, lsl #4
    13fc:	00049822 	andeq	r9, r4, r2, lsr #16
    1400:	0ae70100 	beq	ff9c1808 <__bss_end__+0xff9b6668>
    1404:	0000002c 	andeq	r0, r0, ip, lsr #32
    1408:	00008da0 	andeq	r8, r0, r0, lsr #27
    140c:	00000058 	andeq	r0, r0, r8, asr r0
    1410:	052a9c01 	streq	r9, [sl, #-3073]!	; 0xfffff3ff
    1414:	601c0000 	andsvs	r0, ip, r0
    1418:	01000004 	tsteq	r0, r4
    141c:	002c0eed 	eoreq	r0, ip, sp, ror #29
    1420:	07a10000 	streq	r0, [r1, r0]!
    1424:	079b0000 	ldreq	r0, [fp, r0]
    1428:	98150000 	ldmdals	r5, {}	; <UNPREDICTABLE>
    142c:	3a000000 	bcc	1434 <__code_start__-0x6bcc>
    1430:	05000005 	streq	r0, [r0, #-5]
    1434:	00a99c03 	adceq	r9, r9, r3, lsl #24
    1438:	8db41600 	ldchi	6, cr1, [r4]
    143c:	05dc0000 	ldrbeq	r0, [ip]
    1440:	04d40000 	ldrbeq	r0, [r4], #0
    1444:	01170000 	tsteq	r7, r0
    1448:	00310150 	eorseq	r0, r1, r0, asr r1
    144c:	008dc816 	addeq	ip, sp, r6, lsl r8
    1450:	000c4600 	andeq	r4, ip, r0, lsl #12
    1454:	0004f100 	andeq	pc, r4, r0, lsl #2
    1458:	50011700 	andpl	r1, r1, r0, lsl #14
    145c:	a91c0305 	ldmdbge	ip, {r0, r2, r8, r9}
    1460:	01170000 	tsteq	r7, r0
    1464:	00740251 	rsbseq	r0, r4, r1, asr r2
    1468:	8de41600 	stclhi	6, cr1, [r4]
    146c:	0c460000 	mareq	acc0, r0, r6
    1470:	05200000 	streq	r0, [r0, #-0]!
    1474:	01170000 	tsteq	r7, r0
    1478:	f4030550 	vst3.16	{d0,d2,d4}, [r3 :64], r0
    147c:	170000a8 	strne	r0, [r0, -r8, lsr #1]
    1480:	03055101 	movweq	r5, #20737	; 0x5101
    1484:	0000a6a4 	andeq	sl, r0, r4, lsr #13
    1488:	05520117 	ldrbeq	r0, [r2, #-279]	; 0xfffffee9
    148c:	00a99c03 	adceq	r9, r9, r3, lsl #24
    1490:	53011700 	movwpl	r1, #5888	; 0x1700
    1494:	00ef0802 	rsceq	r0, pc, r2, lsl #16
    1498:	008de818 	addeq	lr, sp, r8, lsl r8
    149c:	000c5200 	andeq	r5, ip, r0, lsl #4
    14a0:	cc100000 	ldcgt	0, cr0, [r0], {-0}
    14a4:	3a000000 	bcc	14ac <__code_start__-0x6b54>
    14a8:	11000005 	tstne	r0, r5
    14ac:	0000002c 	andeq	r0, r0, ip, lsr #32
    14b0:	2a090011 	bcs	2414fc <__bss_end__+0x23635c>
    14b4:	23000005 	movwcs	r0, #5
    14b8:	000001f4 	strdeq	r0, [r0], -r4
    14bc:	3806d901 	stmdacc	r6, {r0, r8, fp, ip, lr, pc}
    14c0:	5000008d 	andpl	r0, r0, sp, lsl #1
    14c4:	01000000 	mrseq	r0, (UNDEF: 0)
    14c8:	0005c79c 	muleq	r5, ip, r7
    14cc:	00981500 	addseq	r1, r8, r0, lsl #10
    14d0:	05d70000 	ldrbeq	r0, [r7]
    14d4:	03050000 	movweq	r0, #20480	; 0x5000
    14d8:	0000a98c 	andeq	sl, r0, ip, lsl #19
    14dc:	008d4c16 	addeq	r4, sp, r6, lsl ip
    14e0:	0005dc00 	andeq	sp, r5, r0, lsl #24
    14e4:	00057700 	andeq	r7, r5, r0, lsl #14
    14e8:	50011700 	andpl	r1, r1, r0, lsl #14
    14ec:	16003101 	strne	r3, [r0], -r1, lsl #2
    14f0:	00008d5c 	andeq	r8, r0, ip, asr sp
    14f4:	00000c46 	andeq	r0, r0, r6, asr #24
    14f8:	0000058e 	andeq	r0, r0, lr, lsl #11
    14fc:	05500117 	ldrbeq	r0, [r0, #-279]	; 0xfffffee9
    1500:	00a8d403 	adceq	sp, r8, r3, lsl #8
    1504:	74160000 	ldrvc	r0, [r6], #-0
    1508:	4600008d 	strmi	r0, [r0], -sp, lsl #1
    150c:	bd00000c 	stclt	0, cr0, [r0, #-48]	; 0xffffffd0
    1510:	17000005 	strne	r0, [r0, -r5]
    1514:	03055001 	movweq	r5, #20481	; 0x5001
    1518:	0000a8a8 	andeq	sl, r0, r8, lsr #17
    151c:	05510117 	ldrbeq	r0, [r1, #-279]	; 0xfffffee9
    1520:	00a6a403 	adceq	sl, r6, r3, lsl #8
    1524:	52011700 	andpl	r1, r1, #0, 14
    1528:	a98c0305 	stmibge	ip, {r0, r2, r8, r9}
    152c:	01170000 	tsteq	r7, r0
    1530:	e0080253 	and	r0, r8, r3, asr r2
    1534:	8d781800 	ldclhi	8, cr1, [r8, #-0]
    1538:	0c520000 	mraeq	r0, r2, acc0
    153c:	10000000 	andne	r0, r0, r0
    1540:	000000cc 	andeq	r0, r0, ip, asr #1
    1544:	000005d7 	ldrdeq	r0, [r0], -r7
    1548:	00002c11 	andeq	r2, r0, r1, lsl ip
    154c:	09000d00 	stmdbeq	r0, {r8, sl, fp}
    1550:	000005c7 	andeq	r0, r0, r7, asr #11
    1554:	00043522 	andeq	r3, r4, r2, lsr #10
    1558:	0ad20100 	beq	ff481960 <__bss_end__+0xff4767c0>
    155c:	0000002c 	andeq	r0, r0, ip, lsr #32
    1560:	00008d10 	andeq	r8, r0, r0, lsl sp
    1564:	00000014 	andeq	r0, r0, r4, lsl r0
    1568:	061c9c01 	ldreq	r9, [ip], -r1, lsl #24
    156c:	fa240000 	blx	901574 <__bss_end__+0x8f63d4>
    1570:	01000004 	tsteq	r0, r4
    1574:	00251cd2 	ldrdeq	r1, [r5], -r2	; <UNPREDICTABLE>
    1578:	07ce0000 	strbeq	r0, [lr, r0]
    157c:	07ca0000 	strbeq	r0, [sl, r0]
    1580:	20210000 	eorcs	r0, r1, r0
    1584:	1c00008d 	stcne	0, cr0, [r0], {141}	; 0x8d
    1588:	17000006 	strne	r0, [r0, -r6]
    158c:	f3035001 	vhadd.u8	d5, d3, d1
    1590:	00005001 	andeq	r5, r0, r1
    1594:	0004d51b 	andeq	sp, r4, fp, lsl r5
    1598:	11a50100 			; <UNDEFINED> instruction: 0x11a50100
    159c:	0000002c 	andeq	r0, r0, ip, lsr #32
    15a0:	00008a3c 	andeq	r8, r0, ip, lsr sl
    15a4:	00000108 	andeq	r0, r0, r8, lsl #2
    15a8:	07a39c01 	streq	r9, [r3, r1, lsl #24]!
    15ac:	fa240000 	blx	9015b4 <__bss_end__+0x8f6414>
    15b0:	01000004 	tsteq	r0, r4
    15b4:	002520a5 	eoreq	r2, r5, r5, lsr #1
    15b8:	07f30000 	ldrbeq	r0, [r3, r0]!
    15bc:	07ef0000 	strbeq	r0, [pc, r0]!
    15c0:	061c0000 	ldreq	r0, [ip], -r0
    15c4:	01000004 	tsteq	r0, r4
    15c8:	002c0ea7 	eoreq	r0, ip, r7, lsr #29
    15cc:	08150000 	ldmdaeq	r5, {}	; <UNPREDICTABLE>
    15d0:	08110000 	ldmdaeq	r1, {}	; <UNPREDICTABLE>
    15d4:	491c0000 	ldmdbmi	ip, {}	; <UNPREDICTABLE>
    15d8:	01000004 	tsteq	r0, r4
    15dc:	002c1ba7 	eoreq	r1, ip, r7, lsr #23
    15e0:	083a0000 	ldmdaeq	sl!, {}	; <UNPREDICTABLE>
    15e4:	08340000 	ldmdaeq	r4!, {}	; <UNPREDICTABLE>
    15e8:	431c0000 	tstmi	ip, #0, 0
    15ec:	01000004 	tsteq	r0, r4
    15f0:	002c27a7 	eoreq	r2, ip, r7, lsr #15
    15f4:	08680000 	stmdaeq	r8!, {}^	; <UNPREDICTABLE>
    15f8:	08640000 	stmdaeq	r4!, {}^	; <UNPREDICTABLE>
    15fc:	801d0000 	andshi	r0, sp, r0
    1600:	01000000 	mrseq	r0, (UNDEF: 0)
    1604:	1e000007 	cdpne	0, 0, cr0, cr0, cr7, {0}
    1608:	ac010068 	stcge	0, cr0, [r1], {104}	; 0x68
    160c:	00047e11 	andeq	r7, r4, r1, lsl lr
    1610:	00089500 	andeq	r9, r8, r0, lsl #10
    1614:	00088700 	andeq	r8, r8, r0, lsl #14
    1618:	8a641800 	bhi	1907620 <__bss_end__+0x18fc480>
    161c:	0c6d0000 	stcleq	0, cr0, [sp], #-0
    1620:	8c160000 	ldchi	0, cr0, [r6], {-0}
    1624:	4600008a 	strmi	r0, [r0], -sl, lsl #1
    1628:	cd00000c 	stcgt	0, cr0, [r0, #-48]	; 0xffffffd0
    162c:	17000006 	strne	r0, [r0, -r6]
    1630:	03055001 	movweq	r5, #20481	; 0x5001
    1634:	0000a744 	andeq	sl, r0, r4, asr #14
    1638:	02510117 	subseq	r0, r1, #-1073741819	; 0xc0000005
    163c:	01170075 	tsteq	r7, r5, ror r0
    1640:	00740252 	rsbseq	r0, r4, r2, asr r2
    1644:	8a941600 	bhi	fe506e4c <__bss_end__+0xfe4fbcac>
    1648:	0c850000 	stceq	0, cr0, [r5], {0}
    164c:	06e10000 	strbteq	r0, [r1], r0
    1650:	01170000 	tsteq	r7, r0
    1654:	00740250 	rsbseq	r0, r4, r0, asr r2
    1658:	8ad82100 	bhi	ff609a60 <__bss_end__+0xff5fe8c0>
    165c:	0c460000 	mareq	acc0, r0, r6
    1660:	01170000 	tsteq	r7, r0
    1664:	58030550 	stmdapl	r3, {r4, r6, r8, sl}
    1668:	170000a7 	strne	r0, [r0, -r7, lsr #1]
    166c:	75025101 	strvc	r5, [r2, #-257]	; 0xfffffeff
    1670:	52011700 	andpl	r1, r1, #0, 14
    1674:	00007402 	andeq	r7, r0, r2, lsl #8
    1678:	8a541600 	bhi	1506e80 <__bss_end__+0x14fbce0>
    167c:	0c460000 	mareq	acc0, r0, r6
    1680:	07180000 	ldreq	r0, [r8, -r0]
    1684:	01170000 	tsteq	r7, r0
    1688:	f0030550 			; <UNDEFINED> instruction: 0xf0030550
    168c:	000000a6 	andeq	r0, r0, r6, lsr #1
    1690:	008a5c16 	addeq	r5, sl, r6, lsl ip
    1694:	000c4600 	andeq	r4, ip, r0, lsl #12
    1698:	00072f00 	andeq	r2, r7, r0, lsl #30
    169c:	50011700 	andpl	r1, r1, r0, lsl #14
    16a0:	a72c0305 	strge	r0, [ip, -r5, lsl #6]!
    16a4:	18000000 	stmdane	r0, {}	; <UNPREDICTABLE>
    16a8:	00008a60 	andeq	r8, r0, r0, ror #20
    16ac:	000007a3 	andeq	r0, r0, r3, lsr #15
    16b0:	008ae816 	addeq	lr, sl, r6, lsl r8
    16b4:	000c4600 	andeq	r4, ip, r0, lsl #12
    16b8:	00075500 	andeq	r5, r7, r0, lsl #10
    16bc:	50011700 	andpl	r1, r1, r0, lsl #14
    16c0:	a7700305 	ldrbge	r0, [r0, -r5, lsl #6]!
    16c4:	01170000 	tsteq	r7, r0
    16c8:	00750251 	rsbseq	r0, r5, r1, asr r2
    16cc:	8af81600 	bhi	ffe06ed4 <__bss_end__+0xffdfbd34>
    16d0:	0c460000 	mareq	acc0, r0, r6
    16d4:	076c0000 	strbeq	r0, [ip, -r0]!
    16d8:	01170000 	tsteq	r7, r0
    16dc:	90030550 	andls	r0, r3, r0, asr r5
    16e0:	000000a7 	andeq	r0, r0, r7, lsr #1
    16e4:	008b0016 	addeq	r0, fp, r6, lsl r0
    16e8:	000c4600 	andeq	r4, ip, r0, lsl #12
    16ec:	00078300 	andeq	r8, r7, r0, lsl #6
    16f0:	50011700 	andpl	r1, r1, r0, lsl #14
    16f4:	a7e80305 	strbge	r0, [r8, r5, lsl #6]!
    16f8:	21000000 	mrscs	r0, (UNDEF: 0)
    16fc:	00008b20 	andeq	r8, r0, r0, lsr #22
    1700:	00000c46 	andeq	r0, r0, r6, asr #24
    1704:	05500117 	ldrbeq	r0, [r0, #-279]	; 0xfffffee9
    1708:	00a7b803 	adceq	fp, r7, r3, lsl #16
    170c:	51011700 	tstpl	r1, r0, lsl #14
    1710:	17007602 	strne	r7, [r0, -r2, lsl #12]
    1714:	78025201 	stmdavc	r2, {r0, r9, ip, lr}
    1718:	25000000 	strcs	r0, [r0, #-0]
    171c:	000003e0 	andeq	r0, r0, r0, ror #7
    1720:	800d7901 	andhi	r7, sp, r1, lsl #18
    1724:	ac000089 	stcge	0, cr0, [r0], {137}	; 0x89
    1728:	01000000 	mrseq	r0, (UNDEF: 0)
    172c:	0008b19c 	muleq	r8, ip, r1
    1730:	045b1300 	ldrbeq	r1, [fp], #-768	; 0xfffffd00
    1734:	85010000 	strhi	r0, [r1, #-0]
    1738:	0008b10e 	andeq	fp, r8, lr, lsl #2
    173c:	b0910300 	addslt	r0, r1, r0, lsl #6
    1740:	03d6267f 	bicseq	r2, r6, #133169152	; 0x7f00000
    1744:	96010000 	strls	r0, [r1], -r0
    1748:	0008c10f 	andeq	ip, r8, pc, lsl #2
    174c:	00000000 	andeq	r0, r0, r0
    1750:	03f80708 	mvnseq	r0, #8, 14	; 0x200000
    1754:	9b010000 	blls	4175c <__bss_end__+0x365bc>
    1758:	00007515 	andeq	r7, r0, r5, lsl r5
    175c:	04aa0700 	strteq	r0, [sl], #1792	; 0x700
    1760:	9b010000 	blls	41768 <__bss_end__+0x365c8>
    1764:	00007524 	andeq	r7, r0, r4, lsr #10
    1768:	04e00700 	strbteq	r0, [r0], #1792	; 0x700
    176c:	9e010000 	cdpls	0, 0, cr0, cr1, cr0, {0}
    1770:	00007515 	andeq	r7, r0, r5, lsl r5
    1774:	04670700 	strbteq	r0, [r7], #-1792	; 0xfffff900
    1778:	9e010000 	cdpls	0, 0, cr0, cr1, cr0, {0}
    177c:	00007525 	andeq	r7, r0, r5, lsr #10
    1780:	89902700 	ldmibhi	r0, {r8, r9, sl, sp}
    1784:	00240000 	eoreq	r0, r4, r0
    1788:	083b0000 	ldmdaeq	fp!, {}	; <UNPREDICTABLE>
    178c:	681e0000 	ldmdavs	lr, {}	; <UNPREDICTABLE>
    1790:	117e0100 	cmnne	lr, r0, lsl #2
    1794:	0000047e 	andeq	r0, r0, lr, ror r4
    1798:	000008ee 	andeq	r0, r0, lr, ror #17
    179c:	000008ea 	andeq	r0, r0, sl, ror #17
    17a0:	00899418 	addeq	r9, r9, r8, lsl r4
    17a4:	000c6d00 	andeq	r6, ip, r0, lsl #26
    17a8:	89b01800 	ldmibhi	r0!, {fp, ip}
    17ac:	0c850000 	stceq	0, cr0, [r5], {0}
    17b0:	16000000 	strne	r0, [r0], -r0
    17b4:	000089bc 			; <UNDEFINED> instruction: 0x000089bc
    17b8:	00000c91 	muleq	r0, r1, ip
    17bc:	00000850 	andeq	r0, r0, r0, asr r8
    17c0:	03500117 	cmpeq	r0, #-1073741819	; 0xc0000005
    17c4:	007fb47b 	rsbseq	fp, pc, fp, ror r4	; <UNPREDICTABLE>
    17c8:	0089dc16 	addeq	sp, r9, r6, lsl ip
    17cc:	0008c700 	andeq	ip, r8, r0, lsl #14
    17d0:	00086b00 	andeq	r6, r8, r0, lsl #22
    17d4:	50011700 	andpl	r1, r1, r0, lsl #14
    17d8:	7fb47b03 	svcvc	0x00b47b03
    17dc:	02510117 	subseq	r0, r1, #-1073741819	; 0xc0000005
    17e0:	16006c7b 			; <UNDEFINED> instruction: 0x16006c7b
    17e4:	000089ec 	andeq	r8, r0, ip, ror #19
    17e8:	00000c46 	andeq	r0, r0, r6, asr #24
    17ec:	00000889 	andeq	r0, r0, r9, lsl #17
    17f0:	05500117 	ldrbeq	r0, [r0, #-279]	; 0xfffffee9
    17f4:	00a6d403 	adceq	sp, r6, r3, lsl #8
    17f8:	52011700 	andpl	r1, r1, #0, 14
    17fc:	24474003 	strbcs	r4, [r7], #-3
    1800:	89f81600 	ldmibhi	r8!, {r9, sl, ip}^
    1804:	08c70000 	stmiaeq	r7, {}^	; <UNPREDICTABLE>
    1808:	089e0000 	ldmeq	lr, {}	; <UNPREDICTABLE>
    180c:	01170000 	tsteq	r7, r0
    1810:	47400351 	smlsldmi	r0, r0, r1, r3	; <UNPREDICTABLE>
    1814:	04180024 	ldreq	r0, [r8], #-36	; 0xffffffdc
    1818:	c700008a 	strgt	r0, [r0, -sl, lsl #1]
    181c:	18000008 	stmdane	r0, {r3}
    1820:	00008a10 	andeq	r8, r0, r0, lsl sl
    1824:	000008c7 	andeq	r0, r0, r7, asr #17
    1828:	00751000 	rsbseq	r1, r5, r0
    182c:	08c10000 	stmiaeq	r1, {}^	; <UNPREDICTABLE>
    1830:	2c110000 	ldccs	0, cr0, [r1], {-0}
    1834:	0f000000 	svceq	0x00000000
    1838:	75040800 	strvc	r0, [r4, #-2048]	; 0xfffff800
    183c:	25000000 	strcs	r0, [r0, #-0]
    1840:	00000426 	andeq	r0, r0, r6, lsr #8
    1844:	580d5001 	stmdapl	sp, {r0, ip, lr}
    1848:	18000088 	stmdane	r0, {r3, r7}
    184c:	01000001 	tsteq	r0, r1
    1850:	000a539c 	muleq	sl, ip, r3
    1854:	00702800 	rsbseq	r2, r0, r0, lsl #16
    1858:	c11c5001 	tstgt	ip, r1
    185c:	1a000008 	bne	1884 <__code_start__-0x677c>
    1860:	0c000009 	stceq	0, cr0, [r0], {9}
    1864:	28000009 	stmdacs	r0, {r0, r3}
    1868:	50010065 	andpl	r0, r1, r5, rrx
    186c:	0008c129 	andeq	ip, r8, r9, lsr #2
    1870:	00098300 	andeq	r8, r9, r0, lsl #6
    1874:	00097500 	andeq	r7, r9, r0, lsl #10
    1878:	00981500 	addseq	r1, r8, r0, lsl #10
    187c:	0a630000 	beq	18c1884 <__bss_end__+0x18b66e4>
    1880:	03050000 	movweq	r0, #20480	; 0x5000
    1884:	0000a970 	andeq	sl, r0, r0, ror r9
    1888:	0088e827 	addeq	lr, r8, r7, lsr #16
    188c:	00006800 	andeq	r6, r0, r0, lsl #16
    1890:	00098c00 	andeq	r8, r9, r0, lsl #24
    1894:	00691e00 	rsbeq	r1, r9, r0, lsl #28
    1898:	c1145801 	tstgt	r4, r1, lsl #16
    189c:	e0000008 	and	r0, r0, r8
    18a0:	de000009 	cdple	0, 0, cr0, cr0, cr9, {0}
    18a4:	29000009 	stmdbcs	r0, {r0, r3}
    18a8:	00000050 	andeq	r0, r0, r0, asr r0
    18ac:	0100621e 	tsteq	r0, lr, lsl r2
    18b0:	047e105a 	ldrbteq	r1, [lr], #-90	; 0xffffffa6
    18b4:	09f90000 	ldmibeq	r9!, {}^	; <UNPREDICTABLE>
    18b8:	09f30000 	ldmibeq	r3!, {}^	; <UNPREDICTABLE>
    18bc:	681d0000 	ldmdavs	sp, {}	; <UNPREDICTABLE>
    18c0:	81000000 	mrshi	r0, (UNDEF: 0)
    18c4:	1e000009 	cdpne	0, 0, cr0, cr0, cr9, {0}
    18c8:	00707865 	rsbseq	r7, r0, r5, ror #16
    18cc:	75165d01 	ldrvc	r5, [r6, #-3329]	; 0xfffff2ff
    18d0:	2e000000 	cdpcs	0, 0, cr0, cr0, cr0, {0}
    18d4:	2400000a 	strcs	r0, [r0], #-10
    18d8:	1c00000a 	stcne	0, cr0, [r0], {10}
    18dc:	00000422 	andeq	r0, r0, r2, lsr #8
    18e0:	62165e01 	andsvs	r5, r6, #1, 28
    18e4:	7a000000 	bvc	18ec <__code_start__-0x6714>
    18e8:	7600000a 	strvc	r0, [r0], -sl
    18ec:	1800000a 	stmdane	r0, {r1, r3}
    18f0:	0000894c 	andeq	r8, r0, ip, asr #18
    18f4:	000008c7 	andeq	r0, r0, r7, asr #17
    18f8:	890c1800 	stmdbhi	ip, {fp, ip}
    18fc:	0a680000 	beq	1a01904 <__bss_end__+0x19f6764>
    1900:	00000000 	andeq	r0, r0, r0
    1904:	0088a416 	addeq	sl, r8, r6, lsl r4
    1908:	000c4600 	andeq	r4, ip, r0, lsl #12
    190c:	0009c500 	andeq	ip, r9, r0, lsl #10
    1910:	50011700 	andpl	r1, r1, r0, lsl #14
    1914:	a5300305 	ldrge	r0, [r0, #-773]!	; 0xfffffcfb
    1918:	01170000 	tsteq	r7, r0
    191c:	a4030551 	strge	r0, [r3], #-1361	; 0xfffffaaf
    1920:	170000a6 	strne	r0, [r0, -r6, lsr #1]
    1924:	03055201 	movweq	r5, #20993	; 0x5201
    1928:	0000a970 	andeq	sl, r0, r0, ror r9
    192c:	02530117 	subseq	r0, r3, #-1073741819	; 0xc0000005
    1930:	02175608 	andseq	r5, r7, #8, 12	; 0x800000
    1934:	0305007d 	movweq	r0, #20605	; 0x507d
    1938:	0000a6c4 	andeq	sl, r0, r4, asr #13
    193c:	88a81800 	stmiahi	r8!, {fp, ip}
    1940:	0c520000 	mraeq	r0, r2, acc0
    1944:	c4160000 	ldrgt	r0, [r6], #-0
    1948:	46000088 	strmi	r0, [r0], -r8, lsl #1
    194c:	0700000c 	streq	r0, [r0, -ip]
    1950:	1700000a 	strne	r0, [r0, -sl]
    1954:	03055001 	movweq	r5, #20481	; 0x5001
    1958:	0000a530 	andeq	sl, r0, r0, lsr r5
    195c:	05510117 	ldrbeq	r0, [r1, #-279]	; 0xfffffee9
    1960:	00a6a403 	adceq	sl, r6, r3, lsl #8
    1964:	52011700 	andpl	r1, r1, #0, 14
    1968:	a9700305 	ldmdbge	r0!, {r0, r2, r8, r9}^
    196c:	01170000 	tsteq	r7, r0
    1970:	52080253 	andpl	r0, r8, #805306373	; 0x30000005
    1974:	007d0217 	rsbseq	r0, sp, r7, lsl r2
    1978:	a6ac0305 	strtge	r0, [ip], r5, lsl #6
    197c:	18000000 	stmdane	r0, {}	; <UNPREDICTABLE>
    1980:	000088c8 	andeq	r8, r0, r8, asr #17
    1984:	00000c52 	andeq	r0, r0, r2, asr ip
    1988:	0088e416 	addeq	lr, r8, r6, lsl r4
    198c:	000c4600 	andeq	r4, ip, r0, lsl #12
    1990:	000a4900 	andeq	r4, sl, r0, lsl #18
    1994:	50011700 	andpl	r1, r1, r0, lsl #14
    1998:	a5300305 	ldrge	r0, [r0, #-773]!	; 0xfffffcfb
    199c:	01170000 	tsteq	r7, r0
    19a0:	a4030551 	strge	r0, [r3], #-1361	; 0xfffffaaf
    19a4:	170000a6 	strne	r0, [r0, -r6, lsr #1]
    19a8:	03055201 	movweq	r5, #20993	; 0x5201
    19ac:	0000a970 	andeq	sl, r0, r0, ror r9
    19b0:	02530117 	subseq	r0, r3, #-1073741819	; 0xc0000005
    19b4:	02175508 	andseq	r5, r7, #8, 10	; 0x2000000
    19b8:	0305007d 	movweq	r0, #20605	; 0x507d
    19bc:	0000a6b4 			; <UNDEFINED> instruction: 0x0000a6b4
    19c0:	88e81800 	stmiahi	r8!, {fp, ip}^
    19c4:	0c520000 	mraeq	r0, r2, acc0
    19c8:	10000000 	andne	r0, r0, r0
    19cc:	000000cc 	andeq	r0, r0, ip, asr #1
    19d0:	00000a63 	andeq	r0, r0, r3, ror #20
    19d4:	00002c11 	andeq	r2, r0, r1, lsl ip
    19d8:	09000400 	stmdbeq	r0, {sl}
    19dc:	00000a53 	andeq	r0, r0, r3, asr sl
    19e0:	0004741b 	andeq	r7, r4, fp, lsl r4
    19e4:	0f3c0100 	svceq	0x003c0100
    19e8:	0000047e 	andeq	r0, r0, lr, ror r4
    19ec:	0000881c 	andeq	r8, r0, ip, lsl r8
    19f0:	00000030 	andeq	r0, r0, r0, lsr r0
    19f4:	0acd9c01 	beq	ff368a00 <__bss_end__+0xff35d860>
    19f8:	dd240000 	stcle	0, cr0, [r4, #-0]
    19fc:	01000005 	tsteq	r0, r5
    1a00:	00751f3c 	rsbseq	r1, r5, ip, lsr pc
    1a04:	0a9c0000 	beq	fe701a0c <__bss_end__+0xfe6f686c>
    1a08:	0a980000 	beq	fe601a10 <__bss_end__+0xfe5f6870>
    1a0c:	701e0000 	andsvc	r0, lr, r0
    1a10:	0b3e0100 	bleq	f81e18 <__bss_end__+0xf76c78>
    1a14:	00000215 	andeq	r0, r0, r5, lsl r2
    1a18:	00000abe 			; <UNDEFINED> instruction: 0x00000abe
    1a1c:	00000aba 			; <UNDEFINED> instruction: 0x00000aba
    1a20:	00883016 	addeq	r3, r8, r6, lsl r0
    1a24:	000acd00 	andeq	ip, sl, r0, lsl #26
    1a28:	000abc00 	andeq	fp, sl, r0, lsl #24
    1a2c:	50011700 	andpl	r1, r1, r0, lsl #14
    1a30:	00007402 	andeq	r7, r0, r2, lsl #8
    1a34:	00884021 	addeq	r4, r8, r1, lsr #32
    1a38:	000c9d00 	andeq	r9, ip, r0, lsl #26
    1a3c:	50011700 	andpl	r1, r1, r0, lsl #14
    1a40:	00007402 	andeq	r7, r0, r2, lsl #8
    1a44:	04821b00 	streq	r1, [r2], #2816	; 0xb00
    1a48:	2b010000 	blcs	41a50 <__bss_end__+0x368b0>
    1a4c:	0000250c 	andeq	r2, r0, ip, lsl #10
    1a50:	0087c800 	addeq	ip, r7, r0, lsl #16
    1a54:	00004800 	andeq	r4, r0, r0, lsl #16
    1a58:	fa9c0100 	blx	fe701e60 <__bss_end__+0xfe6f6cc0>
    1a5c:	2800000a 	stmdacs	r0, {r1, r3}
    1a60:	2b010070 	blcs	41c28 <__bss_end__+0x36a88>
    1a64:	0002151a 	andeq	r1, r2, sl, lsl r5
    1a68:	000ae800 	andeq	lr, sl, r0, lsl #16
    1a6c:	000adc00 	andeq	sp, sl, r0, lsl #24
    1a70:	bc220000 	stclt	0, cr0, [r2], #-0
    1a74:	01000003 	tsteq	r0, r3
    1a78:	02150713 	andseq	r0, r5, #4980736	; 0x4c0000
    1a7c:	8c500000 	mrahi	r0, r0, acc0
    1a80:	00ac0000 	adceq	r0, ip, r0
    1a84:	9c010000 	stcls	0, cr0, [r1], {-0}
    1a88:	00000c10 	andeq	r0, r0, r0, lsl ip
    1a8c:	00042b24 	andeq	r2, r4, r4, lsr #22
    1a90:	11130100 	tstne	r3, r0, lsl #2
    1a94:	00000041 	andeq	r0, r0, r1, asr #32
    1a98:	00000b47 	andeq	r0, r0, r7, asr #22
    1a9c:	00000b3b 	andeq	r0, r0, fp, lsr fp
    1aa0:	00040e13 	andeq	r0, r4, r3, lsl lr
    1aa4:	10150100 	andsne	r0, r5, r0, lsl #2
    1aa8:	00000025 	andeq	r0, r0, r5, lsr #32
    1aac:	ad900305 	ldcge	3, cr0, [r0, #20]
    1ab0:	98150000 	ldmdals	r5, {}	; <UNPREDICTABLE>
    1ab4:	63000000 	movwvs	r0, #0
    1ab8:	0500000a 	streq	r0, [r0, #-10]
    1abc:	00a98403 	adceq	r8, r9, r3, lsl #8
    1ac0:	8c782700 	ldclhi	7, cr2, [r8], #-0
    1ac4:	00240000 	eoreq	r0, r4, r0
    1ac8:	0b830000 	bleq	fe0c1ad0 <__bss_end__+0xfe0b6930>
    1acc:	8a1c0000 	bhi	701ad4 <__bss_end__+0x6f6934>
    1ad0:	01000004 	tsteq	r0, r4
    1ad4:	002c121c 	eoreq	r1, ip, ip, lsl r2
    1ad8:	0b930000 	bleq	fe4c1ae0 <__bss_end__+0xfe4b6940>
    1adc:	0b910000 	bleq	fe441ae4 <__bss_end__+0xfe436944>
    1ae0:	94210000 	strtls	r0, [r1], #-0
    1ae4:	a900008c 	stmdbge	r0, {r2, r3, r7}
    1ae8:	1700000c 	strne	r0, [r0, -ip]
    1aec:	40035001 	andmi	r5, r3, r1
    1af0:	01172440 	tsteq	r7, r0, asr #8
    1af4:	40400351 	submi	r0, r0, r1, asr r3
    1af8:	16000024 	strne	r0, [r0], -r4, lsr #32
    1afc:	00008ca4 	andeq	r8, r0, r4, lsr #25
    1b00:	00000cb5 			; <UNDEFINED> instruction: 0x00000cb5
    1b04:	00000b97 	muleq	r0, r7, fp
    1b08:	02500117 	subseq	r0, r0, #-1073741819	; 0xc0000005
    1b0c:	16000074 			; <UNDEFINED> instruction: 0x16000074
    1b10:	00008cc8 	andeq	r8, r0, r8, asr #25
    1b14:	00000c46 	andeq	r0, r0, r6, asr #24
    1b18:	00000bcf 	andeq	r0, r0, pc, asr #23
    1b1c:	05500117 	ldrbeq	r0, [r0, #-279]	; 0xfffffee9
    1b20:	00a53003 	adceq	r3, r5, r3
    1b24:	51011700 	tstpl	r1, r0, lsl #14
    1b28:	a6a40305 	strtge	r0, [r4], r5, lsl #6
    1b2c:	01170000 	tsteq	r7, r0
    1b30:	84030552 	strhi	r0, [r3], #-1362	; 0xfffffaae
    1b34:	170000a9 	strne	r0, [r0, -r9, lsr #1]
    1b38:	47015301 	strmi	r5, [r1, -r1, lsl #6]
    1b3c:	007d0217 	rsbseq	r0, sp, r7, lsl r2
    1b40:	a8780305 	ldmdage	r8!, {r0, r2, r8, r9}^
    1b44:	18000000 	stmdane	r0, {}	; <UNPREDICTABLE>
    1b48:	00008ccc 	andeq	r8, r0, ip, asr #25
    1b4c:	00000c52 	andeq	r0, r0, r2, asr ip
    1b50:	008ce016 	addeq	lr, ip, r6, lsl r0
    1b54:	000c4600 	andeq	r4, ip, r0, lsl #12
    1b58:	000c0600 	andeq	r0, ip, r0, lsl #12
    1b5c:	50011700 	andpl	r1, r1, r0, lsl #14
    1b60:	a8880305 	stmge	r8, {r0, r2, r8, r9}
    1b64:	01170000 	tsteq	r7, r0
    1b68:	a4030551 	strge	r0, [r3], #-1361	; 0xfffffaaf
    1b6c:	170000a6 	strne	r0, [r0, -r6, lsr #1]
    1b70:	03055201 	movweq	r5, #20993	; 0x5201
    1b74:	0000a984 	andeq	sl, r0, r4, lsl #19
    1b78:	01530117 	cmpeq	r3, r7, lsl r1
    1b7c:	e4180049 	ldr	r0, [r8], #-73	; 0xffffffb7
    1b80:	5200008c 	andpl	r0, r0, #140, 0	; 0x8c
    1b84:	0000000c 	andeq	r0, r0, ip
    1b88:	0002772a 	andeq	r7, r2, sl, lsr #14
    1b8c:	0b0d0200 	bleq	342394 <__bss_end__+0x3371f4>
    1b90:	00000114 	andeq	r0, r0, r4, lsl r1
    1b94:	000c4603 	andeq	r4, ip, r3, lsl #12
    1b98:	00402b00 	subeq	r2, r0, r0, lsl #22
    1b9c:	0d020000 	stceq	0, cr0, [r2, #-0]
    1ba0:	0000bf22 	andeq	fp, r0, r2, lsr #30
    1ba4:	004d2b00 	subeq	r2, sp, r0, lsl #22
    1ba8:	0d020000 	stceq	0, cr0, [r2, #-0]
    1bac:	0000bf34 	andeq	fp, r0, r4, lsr pc
    1bb0:	01c42b00 	biceq	r2, r4, r0, lsl #22
    1bb4:	0d020000 	stceq	0, cr0, [r2, #-0]
    1bb8:	00002c43 	andeq	r2, r0, r3, asr #24
    1bbc:	442c0000 	strtmi	r0, [ip], #-0
    1bc0:	44000006 	strmi	r0, [r0], #-6
    1bc4:	04000006 	streq	r0, [r0], #-6
    1bc8:	af2c0628 	svcge	0x002c0628
    1bcc:	af000000 	svcge	0x00000000
    1bd0:	04000000 	streq	r0, [r0], #-0
    1bd4:	0d2d066e 	stceq	6, cr0, [sp, #-440]!	; 0xfffffe48
    1bd8:	77730b9e 			; <UNDEFINED> instruction: 0x77730b9e
    1bdc:	5f706565 	svcpl	0x00706565
    1be0:	65657266 	strbvs	r7, [r5, #-614]!	; 0xfffffd9a
    1be4:	02c22c00 	sbceq	r2, r2, #0, 24
    1be8:	02c20000 	sbceq	r0, r2, #0, 0
    1bec:	2a050000 	bcs	141bf4 <__bss_end__+0x136a54>
    1bf0:	02cf2c08 	sbceq	r2, pc, #8, 24	; 0x800
    1bf4:	02cf0000 	sbceq	r0, pc, #0, 0
    1bf8:	4e050000 	cdpmi	0, 0, cr0, cr5, cr0, {0}
    1bfc:	03292c07 			; <UNDEFINED> instruction: 0x03292c07
    1c00:	03290000 			; <UNDEFINED> instruction: 0x03290000
    1c04:	2d050000 	stccs	0, cr0, [r5, #-0]
    1c08:	04562c08 	ldrbeq	r2, [r6], #-3080	; 0xfffff3f8
    1c0c:	04560000 	ldrbeq	r0, [r6], #-0
    1c10:	76010000 	strvc	r0, [r1], -r0
    1c14:	030a2c06 	movweq	r2, #44038	; 0xac06
    1c18:	030a0000 	movweq	r0, #40960	; 0xa000
    1c1c:	49050000 	stmdbmi	r5, {}	; <UNPREDICTABLE>
    1c20:	04be2c08 	ldrteq	r2, [lr], #3080	; 0xc08
    1c24:	04be0000 	ldrteq	r0, [lr], #0
    1c28:	82040000 	andhi	r0, r4, #0, 0
    1c2c:	04b62c06 	ldrteq	r2, [r6], #3078	; 0xc06
    1c30:	04b60000 	ldrteq	r0, [r6], #0
    1c34:	7b040000 	blvc	101c3c <__bss_end__+0xf6a9c>
    1c38:	02160007 	andseq	r0, r6, #7, 0
    1c3c:	00040000 	andeq	r0, r4, r0
    1c40:	000008e9 	andeq	r0, r0, r9, ror #17
    1c44:	051c0104 	ldreq	r0, [ip, #-260]	; 0xfffffefc
    1c48:	040c0000 	streq	r0, [ip], #-0
    1c4c:	e2000006 	and	r0, r0, #6, 0
    1c50:	6c000005 	stcvs	0, cr0, [r0], {5}
    1c54:	a000008e 	andge	r0, r0, lr, lsl #1
    1c58:	3a000000 	bcc	1c60 <__code_start__-0x63a0>
    1c5c:	0200000d 	andeq	r0, r0, #13, 0
    1c60:	6e690504 	cdpvs	5, 6, cr0, cr9, cr4, {0}
    1c64:	04030074 	streq	r0, [r3], #-116	; 0xffffff8c
    1c68:	0001d507 	andeq	sp, r1, r7, lsl #10
    1c6c:	06010300 	streq	r0, [r1], -r0, lsl #6
    1c70:	000000cb 	andeq	r0, r0, fp, asr #1
    1c74:	22050203 	andcs	r0, r5, #805306368	; 0x30000000
    1c78:	03000000 	movweq	r0, #0
    1c7c:	00570504 	subseq	r0, r7, r4, lsl #10
    1c80:	08030000 	stmdaeq	r3, {}	; <UNPREDICTABLE>
    1c84:	00005205 	andeq	r5, r0, r5, lsl #4
    1c88:	08010300 	stmdaeq	r1, {r8, r9}
    1c8c:	000000c9 	andeq	r0, r0, r9, asr #1
    1c90:	0a070203 	beq	1c24a4 <__bss_end__+0x1b7304>
    1c94:	03000002 	movweq	r0, #2
    1c98:	01d00704 	bicseq	r0, r0, r4, lsl #14
    1c9c:	08030000 	stmdaeq	r3, {}	; <UNPREDICTABLE>
    1ca0:	0001cb07 	andeq	ip, r1, r7, lsl #22
    1ca4:	00250400 	eoreq	r0, r5, r0, lsl #8
    1ca8:	007a0000 	rsbseq	r0, sl, r0
    1cac:	25050000 	strcs	r0, [r5, #-0]
    1cb0:	00000000 	andeq	r0, r0, r0
    1cb4:	00002c06 	andeq	r2, r0, r6, lsl #24
    1cb8:	0e1c0200 	cdpeq	2, 1, cr0, cr12, cr0, {0}
    1cbc:	00000086 	andeq	r0, r0, r6, lsl #1
    1cc0:	006b0407 	rsbeq	r0, fp, r7, lsl #8
    1cc4:	25040000 	strcs	r0, [r4, #-0]
    1cc8:	9b000000 	blls	1cd0 <__code_start__-0x6330>
    1ccc:	05000000 	streq	r0, [r0, #-0]
    1cd0:	0000009b 	muleq	r0, fp, r0
    1cd4:	a8040700 	stmdage	r4, {r8, r9, sl}
    1cd8:	03000000 	movweq	r0, #0
    1cdc:	00d20801 	sbcseq	r0, r2, r1, lsl #16
    1ce0:	a1080000 	mrsge	r0, (UNDEF: 8)
    1ce4:	06000000 	streq	r0, [r0], -r0
    1ce8:	00000682 	andeq	r0, r0, r2, lsl #13
    1cec:	b90e2102 	stmdblt	lr, {r1, r8, sp}
    1cf0:	07000000 	streq	r0, [r0, -r0]
    1cf4:	00008c04 	andeq	r8, r0, r4, lsl #24
    1cf8:	061d0900 	ldreq	r0, [sp], -r0, lsl #18
    1cfc:	42010000 	andmi	r0, r1, #0, 0
    1d00:	00009b0d 	andeq	r9, r0, sp, lsl #22
    1d04:	00f70100 	rscseq	r0, r7, r0, lsl #2
    1d08:	d40a0000 	strle	r0, [sl], #-0
    1d0c:	01000005 	tsteq	r0, r5
    1d10:	002c1e42 	eoreq	r1, ip, r2, asr #28
    1d14:	0e0b0000 	cdpeq	0, 0, cr0, cr11, cr0, {0}
    1d18:	01000005 	tsteq	r0, r5
    1d1c:	002c0e43 	eoreq	r0, ip, r3, asr #28
    1d20:	0b0c0000 	bleq	301d28 <__bss_end__+0x2f6b88>
    1d24:	00000513 	andeq	r0, r0, r3, lsl r5
    1d28:	2c124501 	cfldr32cs	mvfx4, [r2], {1}
    1d2c:	00000000 	andeq	r0, r0, r0
    1d30:	02d60d00 	sbcseq	r0, r6, #0, 26
    1d34:	1d010000 	stcne	0, cr0, [r1, #-0]
    1d38:	00002505 	andeq	r2, r0, r5, lsl #10
    1d3c:	008e6c00 	addeq	r6, lr, r0, lsl #24
    1d40:	00008000 	andeq	r8, r0, r0
    1d44:	be9c0100 	fmllte	f0, f4, f0
    1d48:	0e000001 	cdpeq	0, 0, cr0, cr0, cr1, {0}
    1d4c:	00000616 	andeq	r0, r0, r6, lsl r6
    1d50:	be0f1e01 	cdplt	14, 0, cr1, cr15, cr1, {0}
    1d54:	ab000001 	blge	1d60 <__code_start__-0x62a0>
    1d58:	a900000b 	stmdbge	r0, {r0, r1, r3}
    1d5c:	0f00000b 	svceq	0x0000000b
    1d60:	00008e74 	andeq	r8, r0, r4, ror lr
    1d64:	0000005c 	andeq	r0, r0, ip, asr r0
    1d68:	01006910 	tsteq	r0, r0, lsl r9
    1d6c:	00250e21 	eoreq	r0, r5, r1, lsr #28
    1d70:	0bc20000 	bleq	ff081d78 <__bss_end__+0xff076bd8>
    1d74:	0bbe0000 	bleq	fef81d7c <__bss_end__+0xfef76bdc>
    1d78:	b0110000 	andslt	r0, r1, r0
    1d7c:	10000000 	andne	r0, r0, r0
    1d80:	01006370 	tsteq	r0, r0, ror r3
    1d84:	002c1222 	eoreq	r1, ip, r2, lsr #4
    1d88:	0be30000 	bleq	ff8c1d90 <__bss_end__+0xff8b6bf0>
    1d8c:	0be10000 	bleq	ff841d94 <__bss_end__+0xff836bf4>
    1d90:	bf120000 	svclt	0x00120000
    1d94:	a8000000 	stmdage	r0, {}	; <UNPREDICTABLE>
    1d98:	0100008e 	smlabbeq	r0, lr, r0, r0
    1d9c:	000000d0 	ldrdeq	r0, [r0], -r0	; <UNPREDICTABLE>
    1da0:	a5092301 	strge	r2, [r9, #-769]	; 0xfffffcff
    1da4:	13000001 	movwne	r0, #1
    1da8:	000000d0 	ldrdeq	r0, [r0], -r0	; <UNPREDICTABLE>
    1dac:	00000bf8 	strdeq	r0, [r0], -r8
    1db0:	00000bf6 	strdeq	r0, [r0], -r6
    1db4:	0000d011 	andeq	sp, r0, r1, lsl r0
    1db8:	00dc1400 	sbcseq	r1, ip, r0, lsl #8
    1dbc:	0c0f0000 	stceq	0, cr0, [pc], {-0}
    1dc0:	0c0b0000 	stceq	0, cr0, [fp], {-0}
    1dc4:	e8150000 	ldmda	r5, {}	; <UNPREDICTABLE>
    1dc8:	f8000000 			; <UNDEFINED> instruction: 0xf8000000
    1dcc:	14000000 	strne	r0, [r0], #-0
    1dd0:	000000e9 	andeq	r0, r0, r9, ror #1
    1dd4:	00000c34 	andeq	r0, r0, r4, lsr ip
    1dd8:	00000c2e 	andeq	r0, r0, lr, lsr #24
    1ddc:	16000000 	strne	r0, [r0], -r0
    1de0:	00008ec4 	andeq	r8, r0, r4, asr #29
    1de4:	0000020d 	andeq	r0, r0, sp, lsl #4
    1de8:	02500117 	subseq	r0, r0, #-1073741819	; 0xc0000005
    1dec:	01170075 	tsteq	r7, r5, ror r0
    1df0:	00770251 	rsbseq	r0, r7, r1, asr r2
    1df4:	00000000 	andeq	r0, r0, r0
    1df8:	002c0407 	eoreq	r0, ip, r7, lsl #8
    1dfc:	bf180000 	svclt	0x00180000
    1e00:	ec000000 	stc	0, cr0, [r0], {-0}
    1e04:	2000008e 	andcs	r0, r0, lr, lsl #1
    1e08:	01000000 	mrseq	r0, (UNDEF: 0)
    1e0c:	00020d9c 	muleq	r2, ip, sp
    1e10:	00d01300 	sbcseq	r1, r0, r0, lsl #6
    1e14:	0c740000 	ldcleq	0, cr0, [r4], #-0
    1e18:	0c6e0000 	stcleq	0, cr0, [lr], #-0
    1e1c:	dc140000 	ldcle	0, cr0, [r4], {-0}
    1e20:	a8000000 	stmdage	r0, {}	; <UNPREDICTABLE>
    1e24:	a200000c 	andge	r0, r0, #12, 0
    1e28:	1900000c 	stmdbne	r0, {r2, r3}
    1e2c:	000000e8 	andeq	r0, r0, r8, ror #1
    1e30:	00008ef8 	strdeq	r8, [r0], -r8	; <UNPREDICTABLE>
    1e34:	00000008 	andeq	r0, r0, r8
    1e38:	0000e914 	andeq	lr, r0, r4, lsl r9
    1e3c:	000cdc00 	andeq	sp, ip, r0, lsl #24
    1e40:	000cd600 	andeq	sp, ip, r0, lsl #12
    1e44:	1a000000 	bne	1e4c <__code_start__-0x61b4>
    1e48:	00000644 	andeq	r0, r0, r4, asr #12
    1e4c:	00000644 	andeq	r0, r0, r4, asr #12
    1e50:	00062802 	andeq	r2, r6, r2, lsl #16
    1e54:	00000140 	andeq	r0, r0, r0, asr #2
    1e58:	0a540004 	beq	1501e70 <__bss_end__+0x14f6cd0>
    1e5c:	01040000 	mrseq	r0, (UNDEF: 4)
    1e60:	0000051c 	andeq	r0, r0, ip, lsl r5
    1e64:	00062c0c 	andeq	r2, r6, ip, lsl #24
    1e68:	0005e200 	andeq	lr, r5, r0, lsl #4
    1e6c:	008f0c00 	addeq	r0, pc, r0, lsl #24
    1e70:	00007800 	andeq	r7, r0, r0, lsl #16
    1e74:	000e7400 	andeq	r7, lr, r0, lsl #8
    1e78:	05040200 	streq	r0, [r4, #-512]	; 0xfffffe00
    1e7c:	00746e69 	rsbseq	r6, r4, r9, ror #28
    1e80:	00062503 	andeq	r2, r6, r3, lsl #10
    1e84:	17d10300 	ldrbne	r0, [r1, r0, lsl #6]
    1e88:	00000038 	andeq	r0, r0, r8, lsr r0
    1e8c:	d5070404 	strle	r0, [r7, #-1028]	; 0xfffffbfc
    1e90:	04000001 	streq	r0, [r0], #-1
    1e94:	00cb0601 	sbceq	r0, fp, r1, lsl #12
    1e98:	02040000 	andeq	r0, r4, #0, 0
    1e9c:	00002205 	andeq	r2, r0, r5, lsl #4
    1ea0:	05040400 	streq	r0, [r4, #-1024]	; 0xfffffc00
    1ea4:	00000057 	andeq	r0, r0, r7, asr r0
    1ea8:	52050804 	andpl	r0, r5, #4, 16	; 0x40000
    1eac:	04000000 	streq	r0, [r0], #-0
    1eb0:	00c90801 	sbceq	r0, r9, r1, lsl #16
    1eb4:	02040000 	andeq	r0, r4, #0, 0
    1eb8:	00020a07 	andeq	r0, r2, r7, lsl #20
    1ebc:	07040400 	streq	r0, [r4, -r0, lsl #8]
    1ec0:	000001d0 	ldrdeq	r0, [r0], -r0	; <UNPREDICTABLE>
    1ec4:	cb070804 	blgt	1c3edc <__bss_end__+0x1b8d3c>
    1ec8:	05000001 	streq	r0, [r0, #-1]
    1ecc:	00000025 	andeq	r0, r0, r5, lsr #32
    1ed0:	00000086 	andeq	r0, r0, r6, lsl #1
    1ed4:	00002506 	andeq	r2, r0, r6, lsl #10
    1ed8:	2c070000 	stccs	0, cr0, [r7], {-0}
    1edc:	02000000 	andeq	r0, r0, #0, 0
    1ee0:	00920e1c 	addseq	r0, r2, ip, lsl lr
    1ee4:	04080000 	streq	r0, [r8], #-0
    1ee8:	00000077 	andeq	r0, r0, r7, ror r0
    1eec:	00002505 	andeq	r2, r0, r5, lsl #10
    1ef0:	0000a700 	andeq	sl, r0, r0, lsl #14
    1ef4:	00a70600 	adceq	r0, r7, r0, lsl #12
    1ef8:	08000000 	stmdaeq	r0, {}	; <UNPREDICTABLE>
    1efc:	0000b404 	andeq	fp, r0, r4, lsl #8
    1f00:	08010400 	stmdaeq	r1, {sl}
    1f04:	000000d2 	ldrdeq	r0, [r0], -r2
    1f08:	0000ad09 	andeq	sl, r0, r9, lsl #26
    1f0c:	06820700 	streq	r0, [r2], r0, lsl #14
    1f10:	21020000 	mrscs	r0, (UNDEF: 2)
    1f14:	0000c50e 	andeq	ip, r0, lr, lsl #10
    1f18:	98040800 	stmdals	r4, {fp}
    1f1c:	0a000000 	beq	1f24 <__code_start__-0x60dc>
    1f20:	00000262 	andeq	r0, r0, r2, ror #4
    1f24:	3b070401 	blcc	1c2f30 <__bss_end__+0x1b7d90>
    1f28:	0c000001 	stceq	0, cr0, [r0], {1}
    1f2c:	7800008f 	stmdavc	r0, {r0, r1, r2, r3, r7}
    1f30:	01000000 	mrseq	r0, (UNDEF: 0)
    1f34:	00013b9c 	muleq	r1, ip, fp
    1f38:	705f0b00 	subsvc	r0, pc, r0, lsl #22
    1f3c:	14040100 	strne	r0, [r4], #-256	; 0xffffff00
    1f40:	0000013b 	andeq	r0, r0, fp, lsr r1
    1f44:	630c5001 	movwvs	r5, #49153	; 0xc001
    1f48:	1c040100 	stfnes	f0, [r4], {-0}
    1f4c:	00000025 	andeq	r0, r0, r5, lsr #32
    1f50:	00000d26 	andeq	r0, r0, r6, lsr #26
    1f54:	00000d22 	andeq	r0, r0, r2, lsr #26
    1f58:	01006e0c 	tsteq	r0, ip, lsl #28
    1f5c:	002c2604 	eoreq	r2, ip, r4, lsl #12
    1f60:	0d4b0000 	stcleq	0, cr0, [fp, #-0]
    1f64:	0d470000 	stcleq	0, cr0, [r7, #-0]
    1f68:	700d0000 	andvc	r0, sp, r0
    1f6c:	0b050100 	bleq	142374 <__bss_end__+0x1371d4>
    1f70:	0000013d 	andeq	r0, r0, sp, lsr r1
    1f74:	00000d7a 	andeq	r0, r0, sl, ror sp
    1f78:	00000d6c 	andeq	r0, r0, ip, ror #26
    1f7c:	0100650d 	tsteq	r0, sp, lsl #10
    1f80:	013d1405 	teqeq	sp, r5, lsl #8
    1f84:	0dd70000 	ldcleq	0, cr0, [r7]
    1f88:	0dd50000 	ldcleq	0, cr0, [r5]
    1f8c:	0e000000 	cdpeq	0, 0, cr0, cr0, cr0, {0}
    1f90:	ad040804 	stcge	8, cr0, [r4, #-16]
    1f94:	00000000 	andeq	r0, r0, r0
    1f98:	0000019d 	muleq	r0, sp, r1
    1f9c:	0b200004 	bleq	801fb4 <__bss_end__+0x7f6e14>
    1fa0:	01040000 	mrseq	r0, (UNDEF: 4)
    1fa4:	0000051c 	andeq	r0, r0, ip, lsl r5
    1fa8:	00065f0c 	andeq	r5, r6, ip, lsl #30
    1fac:	0005e200 	andeq	lr, r5, r0, lsl #4
    1fb0:	008f8400 	addeq	r8, pc, r0, lsl #8
    1fb4:	00005800 	andeq	r5, r0, r0, lsl #16
    1fb8:	000f9900 	andeq	r9, pc, r0, lsl #18
    1fbc:	064b0200 	strbeq	r0, [fp], -r0, lsl #4
    1fc0:	28020000 	stmdacs	r2, {}	; <UNPREDICTABLE>
    1fc4:	0000311b 	andeq	r3, r0, fp, lsl r1
    1fc8:	066f0300 	strbteq	r0, [pc], -r0, lsl #6
    1fcc:	04040000 	streq	r0, [r4], #-0
    1fd0:	00004800 	andeq	r4, r0, r0, lsl #16
    1fd4:	065a0400 	ldrbeq	r0, [sl], -r0, lsl #8
    1fd8:	00480000 	subeq	r0, r8, r0
    1fdc:	00000000 	andeq	r0, r0, r0
    1fe0:	71020405 	tstvc	r2, r5, lsl #8
    1fe4:	02000006 	andeq	r0, r0, #6, 0
    1fe8:	00251863 	eoreq	r1, r5, r3, ror #16
    1fec:	04060000 	streq	r0, [r6], #-0
    1ff0:	746e6905 	strbtvc	r6, [lr], #-2309	; 0xfffff6fb
    1ff4:	07040700 	streq	r0, [r4, -r0, lsl #14]
    1ff8:	000001d5 	ldrdeq	r0, [r0], -r5
    1ffc:	cb060107 	blgt	182420 <__bss_end__+0x177280>
    2000:	07000000 	streq	r0, [r0, -r0]
    2004:	00220502 	eoreq	r0, r2, r2, lsl #10
    2008:	04070000 	streq	r0, [r7], #-0
    200c:	00005705 	andeq	r5, r0, r5, lsl #14
    2010:	05080700 	streq	r0, [r8, #-1792]	; 0xfffff900
    2014:	00000052 	andeq	r0, r0, r2, asr r0
    2018:	c9080107 	stmdbgt	r8, {r0, r1, r2, r8}
    201c:	07000000 	streq	r0, [r0, -r0]
    2020:	020a0702 	andeq	r0, sl, #524288	; 0x80000
    2024:	04070000 	streq	r0, [r7], #-0
    2028:	0001d007 	andeq	sp, r1, r7
    202c:	07080700 	streq	r0, [r8, -r0, lsl #14]
    2030:	000001cb 	andeq	r0, r0, fp, asr #3
    2034:	00005608 	andeq	r5, r0, r8, lsl #12
    2038:	0000ab00 	andeq	sl, r0, r0, lsl #22
    203c:	00560900 	subseq	r0, r6, r0, lsl #18
    2040:	0a000000 	beq	2048 <__code_start__-0x5fb8>
    2044:	0000002c 	andeq	r0, r0, ip, lsr #32
    2048:	b70e1c03 	strlt	r1, [lr, -r3, lsl #24]
    204c:	0b000000 	bleq	2054 <__code_start__-0x5fac>
    2050:	00009c04 	andeq	r9, r0, r4, lsl #24
    2054:	00560800 	subseq	r0, r6, r0, lsl #16
    2058:	00cc0000 	sbceq	r0, ip, r0
    205c:	cc090000 	stcgt	0, cr0, [r9], {-0}
    2060:	00000000 	andeq	r0, r0, r0
    2064:	00d9040b 	sbcseq	r0, r9, fp, lsl #8
    2068:	01070000 	mrseq	r0, (UNDEF: 7)
    206c:	0000d208 	andeq	sp, r0, r8, lsl #4
    2070:	00d20c00 	sbcseq	r0, r2, r0, lsl #24
    2074:	820a0000 	andhi	r0, sl, #0, 0
    2078:	03000006 	movweq	r0, #6
    207c:	00ea0e21 	rsceq	r0, sl, r1, lsr #28
    2080:	040b0000 	streq	r0, [fp], #-0
    2084:	000000bd 	strheq	r0, [r0], -sp
    2088:	0006440d 	andeq	r4, r6, sp, lsl #8
    208c:	05060100 	streq	r0, [r6, #-256]	; 0xffffff00
    2090:	00000056 	andeq	r0, r0, r6, asr r0
    2094:	00008f84 	andeq	r8, r0, r4, lsl #31
    2098:	00000058 	andeq	r0, r0, r8, asr r0
    209c:	01839c01 	orreq	r9, r3, r1, lsl #24
    20a0:	660e0000 	strvs	r0, [lr], -r0
    20a4:	0100746d 	tsteq	r0, sp, ror #8
    20a8:	00cc1806 	sbceq	r1, ip, r6, lsl #16
    20ac:	91020000 	mrsls	r0, (UNDEF: 2)
    20b0:	62100f70 	andsvs	r0, r0, #112, 30	; 0x1c0
    20b4:	01006675 	tsteq	r0, r5, ror r6
    20b8:	01831108 	orreq	r1, r3, r8, lsl #2
    20bc:	03050000 	movweq	r0, #20480	; 0x5000
    20c0:	0000ad94 	muleq	r0, r4, sp
    20c4:	00063c11 	andeq	r3, r6, r1, lsl ip
    20c8:	0d090100 	stfeqs	f0, [r9, #-0]
    20cc:	0000004a 	andeq	r0, r0, sl, asr #32
    20d0:	125c9102 	subsne	r9, ip, #-2147483648	; 0x80000000
    20d4:	01007a73 	tsteq	r0, r3, ror sl
    20d8:	00560d0c 	subseq	r0, r6, ip, lsl #26
    20dc:	0df00000 	ldcleq	0, cr0, [r0]
    20e0:	0dea0000 	stcleq	0, cr0, [sl]
    20e4:	ac130000 	ldcge	0, cr0, [r3], {-0}
    20e8:	9400008f 	strls	r0, [r0], #-143	; 0xffffff71
    20ec:	76000001 	strvc	r0, [r0], -r1
    20f0:	14000001 	strne	r0, [r0], #-1
    20f4:	75025001 	strvc	r5, [r2, #-1]
    20f8:	51011400 	tstpl	r1, r0, lsl #8
    20fc:	04000a03 	streq	r0, [r0], #-2563	; 0xfffff5fd
    2100:	03520114 	cmpeq	r2, #5
    2104:	14064891 	strne	r4, [r6], #-2193	; 0xfffff76f
    2108:	91025301 	tstls	r2, r1, lsl #6
    210c:	c015004c 	andsgt	r0, r5, ip, asr #32
    2110:	1400008f 	strne	r0, [r0], #-143	; 0xffffff71
    2114:	75025001 	strvc	r5, [r2, #-1]
    2118:	16000000 	strne	r0, [r0], -r0
    211c:	000000d2 	ldrdeq	r0, [r0], -r2
    2120:	00000194 	muleq	r0, r4, r1
    2124:	00005d17 	andeq	r5, r0, r7, lsl sp
    2128:	0003ff00 	andeq	pc, r3, r0, lsl #30
    212c:	00064118 	andeq	r4, r6, r8, lsl r1
    2130:	00064100 	andeq	r4, r6, r0, lsl #2
    2134:	05020500 	streq	r0, [r2, #-1280]	; 0xfffffb00
    2138:	0000f300 	andeq	pc, r0, r0, lsl #6
    213c:	62000400 	andvs	r0, r0, #0, 8
    2140:	0400000c 	streq	r0, [r0], #-12
    2144:	00051c01 	andeq	r1, r5, r1, lsl #24
    2148:	06870c00 	streq	r0, [r7], r0, lsl #24
    214c:	05e20000 	strbeq	r0, [r2, #0]!
    2150:	8fdc0000 	svchi	0x00dc0000
    2154:	00380000 	eorseq	r0, r8, r0
    2158:	10bd0000 	adcsne	r0, sp, r0
    215c:	04020000 	streq	r0, [r2], #-0
    2160:	746e6905 	strbtvc	r6, [lr], #-2309	; 0xfffff6fb
    2164:	07040300 	streq	r0, [r4, -r0, lsl #6]
    2168:	000001d5 	ldrdeq	r0, [r0], -r5
    216c:	cb060103 	blgt	182580 <__bss_end__+0x1773e0>
    2170:	03000000 	movweq	r0, #0
    2174:	00220502 	eoreq	r0, r2, r2, lsl #10
    2178:	04030000 	streq	r0, [r3], #-0
    217c:	00005705 	andeq	r5, r0, r5, lsl #14
    2180:	05080300 	streq	r0, [r8, #-768]	; 0xfffffd00
    2184:	00000052 	andeq	r0, r0, r2, asr r0
    2188:	c9080103 	stmdbgt	r8, {r0, r1, r8}
    218c:	03000000 	movweq	r0, #0
    2190:	020a0702 	andeq	r0, sl, #524288	; 0x80000
    2194:	04030000 	streq	r0, [r3], #-0
    2198:	0001d007 	andeq	sp, r1, r7
    219c:	07080300 	streq	r0, [r8, -r0, lsl #6]
    21a0:	000001cb 	andeq	r0, r0, fp, asr #3
    21a4:	00002504 	andeq	r2, r0, r4, lsl #10
    21a8:	00007a00 	andeq	r7, r0, r0, lsl #20
    21ac:	00250500 	eoreq	r0, r5, r0, lsl #10
    21b0:	06000000 	streq	r0, [r0], -r0
    21b4:	0000002c 	andeq	r0, r0, ip, lsr #32
    21b8:	860e1c02 	strhi	r1, [lr], -r2, lsl #24
    21bc:	07000000 	streq	r0, [r0, -r0]
    21c0:	00006b04 	andeq	r6, r0, r4, lsl #22
    21c4:	00250400 	eoreq	r0, r5, r0, lsl #8
    21c8:	009b0000 	addseq	r0, fp, r0
    21cc:	9b050000 	blls	1421d4 <__bss_end__+0x137034>
    21d0:	00000000 	andeq	r0, r0, r0
    21d4:	00a80407 	adceq	r0, r8, r7, lsl #8
    21d8:	01030000 	mrseq	r0, (UNDEF: 3)
    21dc:	0000d208 	andeq	sp, r0, r8, lsl #4
    21e0:	00a10800 	adceq	r0, r1, r0, lsl #16
    21e4:	82060000 	andhi	r0, r6, #0, 0
    21e8:	02000006 	andeq	r0, r0, #6, 0
    21ec:	00b90e21 	adcseq	r0, r9, r1, lsr #28
    21f0:	04070000 	streq	r0, [r7], #-0
    21f4:	0000008c 	andeq	r0, r0, ip, lsl #1
    21f8:	0000ad09 	andeq	sl, r0, r9, lsl #26
    21fc:	070c0100 	streq	r0, [ip, -r0, lsl #2]
    2200:	ad5c0305 	ldclge	3, cr0, [ip, #-20]	; 0xffffffec
    2204:	790a0000 	stmdbvc	sl, {}	; <UNPREDICTABLE>
    2208:	01000006 	tsteq	r0, r6
    220c:	00250504 	eoreq	r0, r5, r4, lsl #10
    2210:	8fdc0000 	svchi	0x00dc0000
    2214:	00380000 	eorseq	r0, r8, r0
    2218:	9c010000 	stcls	0, cr0, [r1], {-0}
    221c:	0100700b 	tsteq	r0, fp
    2220:	009b1f04 	addseq	r1, fp, r4, lsl #30
    2224:	0e210000 	cdpeq	0, 2, cr0, cr1, cr0, {0}
    2228:	0e190000 	cdpeq	0, 1, cr0, cr9, cr0, {0}
    222c:	00000000 	andeq	r0, r0, r0
    2230:	00000c7f 	andeq	r0, r0, pc, ror ip
    2234:	0d000004 	stceq	0, cr0, [r0, #-16]
    2238:	01040000 	mrseq	r0, (UNDEF: 4)
    223c:	0000051c 	andeq	r0, r0, ip, lsl r5
    2240:	0006a60c 	andeq	sl, r6, ip, lsl #12
    2244:	0005e200 	andeq	lr, r5, r0, lsl #4
    2248:	00901400 	addseq	r1, r0, r0, lsl #8
    224c:	0009b400 	andeq	fp, r9, r0, lsl #8
    2250:	00116100 	andseq	r6, r1, r0, lsl #2
    2254:	07080200 	streq	r0, [r8, -r0, lsl #4]
    2258:	000001cb 	andeq	r0, r0, fp, asr #3
    225c:	d5070402 	strle	r0, [r7, #-1026]	; 0xfffffbfe
    2260:	03000001 	movweq	r0, #1
    2264:	6e690504 	cdpvs	5, 6, cr0, cr9, cr4, {0}
    2268:	01020074 	tsteq	r2, r4, ror r0
    226c:	0000cb06 	andeq	ip, r0, r6, lsl #22
    2270:	05020200 	streq	r0, [r2, #-512]	; 0xfffffe00
    2274:	00000022 	andeq	r0, r0, r2, lsr #32
    2278:	57050402 	strpl	r0, [r5, -r2, lsl #8]
    227c:	02000000 	andeq	r0, r0, #0, 0
    2280:	00520508 	subseq	r0, r2, r8, lsl #10
    2284:	01020000 	mrseq	r0, (UNDEF: 2)
    2288:	0000c908 	andeq	ip, r0, r8, lsl #18
    228c:	07020200 	streq	r0, [r2, -r0, lsl #4]
    2290:	0000020a 	andeq	r0, r0, sl, lsl #4
    2294:	0001e204 	andeq	lr, r1, r4, lsl #4
    2298:	19340200 	ldmdbne	r4!, {r9}
    229c:	00000070 	andeq	r0, r0, r0, ror r0
    22a0:	d0070402 	andle	r0, r7, r2, lsl #8
    22a4:	04000001 	streq	r0, [r0], #-1
    22a8:	0000069d 	muleq	r0, sp, r6
    22ac:	25193702 	ldrcs	r3, [r9, #-1794]	; 0xfffff8fe
    22b0:	05000000 	streq	r0, [r0, #-0]
    22b4:	00000033 	andeq	r0, r0, r3, lsr r0
    22b8:	00000092 	muleq	r0, r2, r0
    22bc:	00003306 	andeq	r3, r0, r6, lsl #6
    22c0:	2c070000 	stccs	0, cr0, [r7], {-0}
    22c4:	03000000 	movweq	r0, #0
    22c8:	009e0e1c 	addseq	r0, lr, ip, lsl lr
    22cc:	04080000 	streq	r0, [r8], #-0
    22d0:	00000083 	andeq	r0, r0, r3, lsl #1
    22d4:	00003305 	andeq	r3, r0, r5, lsl #6
    22d8:	0000b300 	andeq	fp, r0, r0, lsl #6
    22dc:	00b30600 	adcseq	r0, r3, r0, lsl #12
    22e0:	08000000 	stmdaeq	r0, {}	; <UNPREDICTABLE>
    22e4:	0000c004 	andeq	ip, r0, r4
    22e8:	08010200 	stmdaeq	r1, {r9}
    22ec:	000000d2 	ldrdeq	r0, [r0], -r2
    22f0:	0000b909 	andeq	fp, r0, r9, lsl #18
    22f4:	06820700 	streq	r0, [r2], r0, lsl #14
    22f8:	21030000 	mrscs	r0, (UNDEF: 3)
    22fc:	0000d10e 	andeq	sp, r0, lr, lsl #2
    2300:	a4040800 	strge	r0, [r4], #-2048	; 0xfffff800
    2304:	07000000 	streq	r0, [r0, -r0]
    2308:	000006b9 			; <UNDEFINED> instruction: 0x000006b9
    230c:	b90d0b04 	stmdblt	sp, {r2, r8, r9, fp}
    2310:	07000000 	streq	r0, [r0, -r0]
    2314:	00000703 	andeq	r0, r0, r3, lsl #14
    2318:	b90d0c04 	stmdblt	sp, {r2, sl, fp}
    231c:	07000000 	streq	r0, [r0, -r0]
    2320:	000003f8 	strdeq	r0, [r0], -r8
    2324:	b90d0d04 	stmdblt	sp, {r2, r8, sl, fp}
    2328:	07000000 	streq	r0, [r0, -r0]
    232c:	000004aa 	andeq	r0, r0, sl, lsr #9
    2330:	b90d0e04 	stmdblt	sp, {r2, r9, sl, fp}
    2334:	07000000 	streq	r0, [r0, -r0]
    2338:	000004e0 	andeq	r0, r0, r0, ror #9
    233c:	b90d0f04 	stmdblt	sp, {r2, r8, r9, sl, fp}
    2340:	07000000 	streq	r0, [r0, -r0]
    2344:	00000467 	andeq	r0, r0, r7, ror #8
    2348:	b90d1004 	stmdblt	sp, {r2, ip}
    234c:	07000000 	streq	r0, [r0, -r0]
    2350:	0000072c 	andeq	r0, r0, ip, lsr #14
    2354:	b90d1104 	stmdblt	sp, {r2, r8, ip}
    2358:	07000000 	streq	r0, [r0, -r0]
    235c:	000002fb 	strdeq	r0, [r0], -fp
    2360:	b90d1204 	stmdblt	sp, {r2, r9, ip}
    2364:	04000000 	streq	r0, [r0], #-0
    2368:	0000064b 	andeq	r0, r0, fp, asr #12
    236c:	431b2805 	tstmi	fp, #327680	; 0x50000
    2370:	0a000001 	beq	237c <__code_start__-0x5c84>
    2374:	0000066f 	andeq	r0, r0, pc, ror #12
    2378:	5a000604 	bpl	3b90 <__code_start__-0x4470>
    237c:	0b000001 	bleq	2388 <__code_start__-0x5c78>
    2380:	0000065a 	andeq	r0, r0, sl, asr r6
    2384:	0000015a 	andeq	r0, r0, sl, asr r1
    2388:	040c0000 	streq	r0, [ip], #-0
    238c:	00067104 	andeq	r7, r6, r4, lsl #2
    2390:	18630500 	stmdane	r3!, {r8, sl}^
    2394:	00000137 	andeq	r0, r0, r7, lsr r1
    2398:	0006410d 	andeq	r4, r6, sp, lsl #2
    239c:	05810100 	streq	r0, [r1, #256]	; 0x100
    23a0:	00000033 	andeq	r0, r0, r3, lsr r0
    23a4:	0000939c 	muleq	r0, ip, r3
    23a8:	0000062c 	andeq	r0, r0, ip, lsr #12
    23ac:	086a9c01 	stmdaeq	sl!, {r0, sl, fp, ip, pc}^
    23b0:	620e0000 	andvs	r0, lr, #0, 0
    23b4:	01006675 	tsteq	r0, r5, ror r6
    23b8:	086a1581 	stmdaeq	sl!, {r0, r7, r8, sl, ip}^
    23bc:	0e610000 	cdpeq	0, 6, cr0, cr1, cr0, {0}
    23c0:	0e570000 	cdpeq	0, 5, cr0, cr7, cr0, {0}
    23c4:	6e0e0000 	cdpvs	0, 0, cr0, cr14, cr0, {0}
    23c8:	1e810100 	rmfnes	f0, f1, f0
    23cc:	00000033 	andeq	r0, r0, r3, lsr r0
    23d0:	00000eae 	andeq	r0, r0, lr, lsr #29
    23d4:	00000ea6 	andeq	r0, r0, r6, lsr #29
    23d8:	746d660e 	strbtvc	r6, [sp], #-1550	; 0xfffff9f2
    23dc:	2d810100 	stfcss	f0, [r1]
    23e0:	000000b3 	strheq	r0, [r0], -r3
    23e4:	00000f00 	andeq	r0, r0, r0, lsl #30
    23e8:	00000ee8 	andeq	r0, r0, r8, ror #29
    23ec:	00063c0f 	andeq	r3, r6, pc, lsl #24
    23f0:	3a810100 	bcc	fe0427f8 <__bss_end__+0xfe037658>
    23f4:	0000015c 	andeq	r0, r0, ip, asr r1
    23f8:	00000fc2 	andeq	r0, r0, r2, asr #31
    23fc:	00000f94 	muleq	r0, r4, pc	; <UNPREDICTABLE>
    2400:	01007010 	tsteq	r0, r0, lsl r0
    2404:	086a0882 	stmdaeq	sl!, {r1, r7, fp}^
    2408:	11150000 	tstne	r5, r0
    240c:	10ff0000 	rscsne	r0, pc, r0
    2410:	65100000 	ldrvs	r0, [r0, #-0]
    2414:	12820100 	addne	r0, r2, #0
    2418:	0000086a 	andeq	r0, r0, sl, ror #16
    241c:	0000119e 	muleq	r0, lr, r1
    2420:	0000119c 	muleq	r0, ip, r1
    2424:	00307810 	eorseq	r7, r0, r0, lsl r8
    2428:	640e8301 	strvs	r8, [lr], #-769	; 0xfffffcff
    242c:	b7000000 	strlt	r0, [r0, -r0]
    2430:	b1000011 	tstlt	r0, r1, lsl r0
    2434:	10000011 	andne	r0, r0, r1, lsl r0
    2438:	01003178 	tsteq	r0, r8, ror r1
    243c:	00641183 	rsbeq	r1, r4, r3, lsl #3
    2440:	11e60000 	mvnne	r0, r0
    2444:	11e00000 	mvnne	r0, r0
    2448:	e5110000 	ldr	r0, [r1, #-0]
    244c:	01000006 	tsteq	r0, r6
    2450:	00b31186 	adcseq	r1, r3, r6, lsl #3
    2454:	12170000 	andsne	r0, r7, #0, 0
    2458:	120f0000 	andne	r0, pc, #0, 0
    245c:	98120000 	ldmdals	r2, {}	; <UNPREDICTABLE>
    2460:	80000000 	andhi	r0, r0, r0
    2464:	05000008 	streq	r0, [r0, #-8]
    2468:	00ab2c03 	adceq	r2, fp, r3, lsl #24
    246c:	01801300 	orreq	r1, r0, r0, lsl #6
    2470:	73100000 	tstvc	r0, #0, 0
    2474:	0a910100 	beq	fe44287c <__bss_end__+0xfe4376dc>
    2478:	0000086a 	andeq	r0, r0, sl, ror #16
    247c:	0000125d 	andeq	r1, r0, sp, asr r2
    2480:	00001251 	andeq	r1, r0, r1, asr r2
    2484:	6d756e14 	ldclvs	14, cr6, [r5, #-80]!	; 0xffffffb0
    2488:	0d910100 	ldfeqs	f0, [r1]
    248c:	00000885 	andeq	r0, r0, r5, lsl #17
    2490:	7dd89103 	ldfvcp	f1, [r8, #12]
    2494:	00073915 	andeq	r3, r7, r5, lsl r9
    2498:	17910100 	ldrne	r0, [r1, r0, lsl #2]
    249c:	00000885 	andeq	r0, r0, r5, lsl #17
    24a0:	7ed89103 	atnvce	f1, f3
    24a4:	0006c811 	andeq	ip, r6, r1, lsl r8
    24a8:	0d920100 	ldfeqs	f0, [r2]
    24ac:	0000002c 	andeq	r0, r0, ip, lsr #32
    24b0:	000012af 	andeq	r1, r0, pc, lsr #5
    24b4:	000012a7 	andeq	r1, r0, r7, lsr #5
    24b8:	0001a816 	andeq	sl, r1, r6, lsl r8
    24bc:	0004f100 	andeq	pc, r4, r0, lsl #2
    24c0:	79741000 	ldmdbvc	r4!, {ip}^
    24c4:	1d9e0100 	ldfnes	f0, [lr]
    24c8:	000000b3 	strheq	r0, [r0], -r3
    24cc:	000012f0 	strdeq	r1, [r0], -r0
    24d0:	000012e4 	andeq	r1, r0, r4, ror #5
    24d4:	00787814 	rsbseq	r7, r8, r4, lsl r8
    24d8:	771aa201 	ldrvc	sl, [sl, -r1, lsl #4]
    24dc:	06000000 	streq	r0, [r0], -r0
    24e0:	5b049359 	blpl	12724c <__bss_end__+0x11c0ac>
    24e4:	28170493 	ldmdacs	r7, {r0, r1, r4, r7, sl}
    24e8:	3a000095 	bcc	2744 <__code_start__-0x58bc>
    24ec:	d800000c 	stmdale	r0, {r2, r3}
    24f0:	18000002 	stmdane	r0, {r1}
    24f4:	76025001 	strvc	r5, [r2], -r1
    24f8:	51011800 	tstpl	r1, r0, lsl #16
    24fc:	aa200305 	bge	803118 <__bss_end__+0x7f7f78>
    2500:	01180000 	tsteq	r8, r0
    2504:	00330152 	eorseq	r0, r3, r2, asr r1
    2508:	00954017 	addseq	r4, r5, r7, lsl r0
    250c:	000c3a00 	andeq	r3, ip, r0, lsl #20
    2510:	0002fa00 	andeq	pc, r2, r0, lsl #20
    2514:	50011800 	andpl	r1, r1, r0, lsl #16
    2518:	18007602 	stmdane	r0, {r1, r9, sl, ip, sp, lr}
    251c:	03055101 	movweq	r5, #20737	; 0x5101
    2520:	0000aa34 	andeq	sl, r0, r4, lsr sl
    2524:	01520118 	cmpeq	r2, r8, lsl r1
    2528:	64170033 	ldrvs	r0, [r7], #-51	; 0xffffffcd
    252c:	46000095 			; <UNDEFINED> instruction: 0x46000095
    2530:	1700000c 	strne	r0, [r0, -ip]
    2534:	18000003 	stmdane	r0, {r0, r1}
    2538:	03055001 	movweq	r5, #20481	; 0x5001
    253c:	0000aa24 	andeq	sl, r0, r4, lsr #20
    2540:	02510118 	subseq	r0, r1, #6
    2544:	1700007b 	smlsdxne	r0, fp, r0, r0
    2548:	00009570 	andeq	r9, r0, r0, ror r5
    254c:	00000c46 	andeq	r0, r0, r6, asr #24
    2550:	00000334 	andeq	r0, r0, r4, lsr r3
    2554:	05500118 	ldrbeq	r0, [r0, #-280]	; 0xfffffee8
    2558:	00aa2c03 	adceq	r2, sl, r3, lsl #24
    255c:	51011800 	tstpl	r1, r0, lsl #16
    2560:	00007902 	andeq	r7, r0, r2, lsl #18
    2564:	00958017 	addseq	r8, r5, r7, lsl r0
    2568:	000c3a00 	andeq	r3, ip, r0, lsl #20
    256c:	00035600 	andeq	r5, r3, r0, lsl #12
    2570:	50011800 	andpl	r1, r1, r0, lsl #16
    2574:	18007602 	stmdane	r0, {r1, r9, sl, ip, sp, lr}
    2578:	03055101 	movweq	r5, #20737	; 0x5101
    257c:	0000aa20 	andeq	sl, r0, r0, lsr #20
    2580:	01520118 	cmpeq	r2, r8, lsl r1
    2584:	b0170033 	andslt	r0, r7, r3, lsr r0
    2588:	a4000095 	strge	r0, [r0], #-149	; 0xffffff6b
    258c:	8300000a 	movwhi	r0, #10
    2590:	18000003 	stmdane	r0, {r0, r1}
    2594:	40015001 	andmi	r5, r1, r1
    2598:	03510118 	cmpeq	r1, #6
    259c:	187dd091 	ldmdane	sp!, {r0, r4, r7, ip, lr, pc}^
    25a0:	7b025201 	blvc	96dac <__bss_end__+0x8bc0c>
    25a4:	53011800 	movwpl	r1, #6144	; 0x1800
    25a8:	18007502 	stmdane	r0, {r1, r8, sl, ip, sp, lr}
    25ac:	02007d02 	andeq	r7, r0, #128	; 0x80
    25b0:	17000076 	smlsdxne	r0, r6, r0, r0
    25b4:	000095d0 	ldrdeq	r9, [r0], -r0
    25b8:	00000aa4 	andeq	r0, r0, r4, lsr #21
    25bc:	000003aa 	andeq	r0, r0, sl, lsr #7
    25c0:	01500118 	cmpeq	r0, r8, lsl r1
    25c4:	51011840 	tstpl	r1, r0, asr #16
    25c8:	7ed09103 	atnvcs	f1, f3
    25cc:	02520118 	subseq	r0, r2, #6
    25d0:	02180079 	andseq	r0, r8, #121, 0	; 0x79
    25d4:	7602007d 			; <UNDEFINED> instruction: 0x7602007d
    25d8:	e0170000 	ands	r0, r7, r0
    25dc:	52000095 	andpl	r0, r0, #149, 0	; 0x95
    25e0:	c600000c 	strgt	r0, [r0], -ip
    25e4:	18000003 	stmdane	r0, {r0, r1}
    25e8:	91035001 	tstls	r3, r1
    25ec:	01187dd0 			; <UNDEFINED> instruction: 0x01187dd0
    25f0:	d2910351 	addsle	r0, r1, #1140850689	; 0x44000001
    25f4:	2417007e 	ldrcs	r0, [r7], #-126	; 0xffffff82
    25f8:	3a000098 	bcc	2860 <__code_start__-0x57a0>
    25fc:	e800000c 	stmda	r0, {r2, r3}
    2600:	18000003 	stmdane	r0, {r0, r1}
    2604:	76025001 	strvc	r5, [r2], -r1
    2608:	51011800 	tstpl	r1, r0, lsl #16
    260c:	aa340305 	bge	d03228 <__bss_end__+0xcf8088>
    2610:	01180000 	tsteq	r8, r0
    2614:	00330152 	eorseq	r0, r3, r2, asr r1
    2618:	00984817 	addseq	r4, r8, r7, lsl r8
    261c:	000aa400 	andeq	sl, sl, r0, lsl #8
    2620:	00041500 	andeq	r1, r4, r0, lsl #10
    2624:	50011800 	andpl	r1, r1, r0, lsl #16
    2628:	01183a01 	tsteq	r8, r1, lsl #20
    262c:	d0910351 	addsle	r0, r1, r1, asr r3
    2630:	5201187d 	andpl	r1, r1, #8192000	; 0x7d0000
    2634:	18007b02 	stmdane	r0, {r1, r8, r9, fp, ip, sp, lr}
    2638:	75025301 	strvc	r5, [r2, #-769]	; 0xfffffcff
    263c:	7d021800 	stcvc	8, cr1, [r2, #-0]
    2640:	00760200 	rsbseq	r0, r6, r0, lsl #4
    2644:	98681700 	stmdals	r8!, {r8, r9, sl, ip}^
    2648:	0aa40000 	beq	fe902650 <__bss_end__+0xfe8f74b0>
    264c:	043c0000 	ldrteq	r0, [ip], #-0
    2650:	01180000 	tsteq	r8, r0
    2654:	183a0150 	ldmdane	sl!, {r4, r6, r8}
    2658:	91035101 	tstls	r3, r1, lsl #2
    265c:	01187ed0 			; <UNDEFINED> instruction: 0x01187ed0
    2660:	00790252 	rsbseq	r0, r9, r2, asr r2
    2664:	007d0218 	rsbseq	r0, sp, r8, lsl r2
    2668:	00007602 	andeq	r7, r0, r2, lsl #12
    266c:	00987417 	addseq	r7, r8, r7, lsl r4
    2670:	000c5e00 	andeq	r5, ip, r0, lsl #28
    2674:	00045a00 	andeq	r5, r4, r0, lsl #20
    2678:	50011800 	andpl	r1, r1, r0, lsl #16
    267c:	7dd09103 	ldfvcp	f1, [r0, #12]
    2680:	05510118 	ldrbeq	r0, [r1, #-280]	; 0xfffffee8
    2684:	00a88403 	adceq	r8, r8, r3, lsl #8
    2688:	88170000 	ldmdahi	r7, {}	; <UNPREDICTABLE>
    268c:	6a000098 	bvs	28f4 <__code_start__-0x570c>
    2690:	7600000c 	strvc	r0, [r0], -ip
    2694:	18000004 	stmdane	r0, {r2}
    2698:	91035001 	tstls	r3, r1
    269c:	01187dd0 			; <UNDEFINED> instruction: 0x01187dd0
    26a0:	d0910351 	addsle	r0, r1, r1, asr r3
    26a4:	9419007e 	ldrls	r0, [r9], #-126	; 0xffffff82
    26a8:	52000098 	andpl	r0, r0, #152, 0	; 0x98
    26ac:	1700000c 	strne	r0, [r0, -ip]
    26b0:	00009958 	andeq	r9, r0, r8, asr r9
    26b4:	00000c46 	andeq	r0, r0, r6, asr #24
    26b8:	000004a8 	andeq	r0, r0, r8, lsr #9
    26bc:	05500118 	ldrbeq	r0, [r0, #-280]	; 0xfffffee8
    26c0:	00a53003 	adceq	r3, r5, r3
    26c4:	51011800 	tstpl	r1, r0, lsl #16
    26c8:	a9d40305 	ldmibge	r4, {r0, r2, r8, r9}^
    26cc:	01180000 	tsteq	r8, r0
    26d0:	2c030552 	cfstr32cs	mvfx0, [r3], {82}	; 0x52
    26d4:	000000ab 	andeq	r0, r0, fp, lsr #1
    26d8:	00995c19 	addseq	r5, r9, r9, lsl ip
    26dc:	000c7600 	andeq	r7, ip, r0, lsl #12
    26e0:	99741700 	ldmdbls	r4!, {r8, r9, sl, ip}^
    26e4:	0c460000 	mareq	acc0, r0, r6
    26e8:	04e70000 	strbteq	r0, [r7], #0
    26ec:	01180000 	tsteq	r8, r0
    26f0:	74030550 	strvc	r0, [r3], #-1360	; 0xfffffab0
    26f4:	180000aa 	stmdane	r0, {r1, r3, r5, r7}
    26f8:	03055101 	movweq	r5, #20737	; 0x5101
    26fc:	0000a9d4 	ldrdeq	sl, [r0], -r4
    2700:	05520118 	ldrbeq	r0, [r2, #-280]	; 0xfffffee8
    2704:	00ab2c03 	adceq	r2, fp, r3, lsl #24
    2708:	53011800 	movwpl	r1, #6144	; 0x1800
    270c:	18b60802 	ldmne	r6!, {r1, fp}
    2710:	02007d02 	andeq	r7, r0, #128	; 0x80
    2714:	19000076 	stmdbne	r0, {r1, r2, r4, r5, r6}
    2718:	00009978 	andeq	r9, r0, r8, ror r9
    271c:	00000c76 	andeq	r0, r0, r6, ror ip
    2720:	09e31a00 	stmibeq	r3!, {r9, fp, ip}^
    2724:	94280000 	strtls	r0, [r8], #-0
    2728:	00040000 	andeq	r0, r4, r0
    272c:	000001d0 	ldrdeq	r0, [r0], -r0	; <UNPREDICTABLE>
    2730:	150a9401 	strne	r9, [sl, #-1025]	; 0xfffffbff
    2734:	1b000005 	blne	2750 <__code_start__-0x58b0>
    2738:	000009f4 	strdeq	r0, [r0], -r4
    273c:	0000134c 	andeq	r1, r0, ip, asr #6
    2740:	00001348 	andeq	r1, r0, r8, asr #6
    2744:	08951a00 	ldmeq	r5, {r9, fp, ip}
    2748:	96100000 	ldrls	r0, [r0], -r0
    274c:	00010000 	andeq	r0, r1, r0
    2750:	000001f0 	strdeq	r0, [r0], -r0	; <UNPREDICTABLE>
    2754:	4b09dc01 	blmi	279760 <__bss_end__+0x26e5c0>
    2758:	1b000006 	blne	2778 <__code_start__-0x5888>
    275c:	000008be 			; <UNDEFINED> instruction: 0x000008be
    2760:	0000137a 	andeq	r1, r0, sl, ror r3
    2764:	00001374 	andeq	r1, r0, r4, ror r3
    2768:	0008e01b 	andeq	lr, r8, fp, lsl r0
    276c:	0013af00 	andseq	sl, r3, r0, lsl #30
    2770:	0013a900 	andseq	sl, r3, r0, lsl #18
    2774:	08d41b00 	ldmeq	r4, {r8, r9, fp, ip}^
    2778:	13e10000 	mvnne	r0, #0, 0
    277c:	13db0000 	bicsne	r0, fp, #0, 0
    2780:	c81c0000 	ldmdagt	ip, {}	; <UNPREDICTABLE>
    2784:	1b000008 	blne	27ac <__code_start__-0x5854>
    2788:	000008b2 			; <UNDEFINED> instruction: 0x000008b2
    278c:	00001412 	andeq	r1, r0, r2, lsl r4
    2790:	0000140a 	andeq	r1, r0, sl, lsl #8
    2794:	0008a61b 	andeq	sl, r8, fp, lsl r6
    2798:	00145500 	andseq	r5, r4, r0, lsl #10
    279c:	00144f00 	andseq	r4, r4, r0, lsl #30
    27a0:	01f01300 	mvnseq	r1, r0, lsl #6
    27a4:	ec1d0000 	ldc	0, cr0, [sp], {-0}
    27a8:	03000008 	movweq	r0, #8
    27ac:	1e7ed891 	mrcne	8, 3, sp, cr14, cr1, {4}
    27b0:	000008f8 	strdeq	r0, [r0], -r8
    27b4:	0000148f 	andeq	r1, r0, pc, lsl #9
    27b8:	00001481 	andeq	r1, r0, r1, lsl #9
    27bc:	0009021f 	andeq	r0, r9, pc, lsl r2
    27c0:	09a31a00 	stmibeq	r3!, {r9, fp, ip}
    27c4:	961c0000 	ldrls	r0, [ip], -r0
    27c8:	00040000 	andeq	r0, r4, r0
    27cc:	00000220 	andeq	r0, r0, r0, lsr #4
    27d0:	e2097c01 	and	r7, r9, #256	; 0x100
    27d4:	1b000005 	blne	27f0 <__code_start__-0x5810>
    27d8:	000009ca 	andeq	r0, r0, sl, asr #19
    27dc:	000014f9 	strdeq	r1, [r0], -r9
    27e0:	000014f3 	strdeq	r1, [r0], -r3
    27e4:	0009be1b 	andeq	fp, r9, fp, lsl lr
    27e8:	00152e00 	andseq	r2, r5, r0, lsl #28
    27ec:	00152200 	andseq	r2, r5, r0, lsl #4
    27f0:	09b41b00 	ldmibeq	r4!, {r8, r9, fp, ip}
    27f4:	15940000 	ldrne	r0, [r4]
    27f8:	15840000 	strne	r0, [r4]
    27fc:	20130000 	andscs	r0, r3, r0
    2800:	1e000002 	cdpne	0, 0, cr0, cr0, cr2, {0}
    2804:	000009d6 	ldrdeq	r0, [r0], -r6
    2808:	00001611 	andeq	r1, r0, r1, lsl r6
    280c:	00001603 	andeq	r1, r0, r3, lsl #12
    2810:	4f200000 	svcmi	0x00200000
    2814:	e4000009 	str	r0, [r0], #-9
    2818:	02000096 	andeq	r0, r0, #150, 0	; 0x96
    281c:	00025000 	andeq	r5, r2, r0
    2820:	097c0100 	ldmdbeq	ip!, {r8}^
    2824:	0009801b 	andeq	r8, r9, fp, lsl r0
    2828:	00167100 	andseq	r7, r6, r0, lsl #2
    282c:	00166b00 	andseq	r6, r6, r0, lsl #22
    2830:	09761b00 	ldmdbeq	r6!, {r8, r9, fp, ip}^
    2834:	16a70000 	strtne	r0, [r7], r0
    2838:	169d0000 	ldrne	r0, [sp], r0
    283c:	6c1b0000 	ldcvs	0, cr0, [fp], {-0}
    2840:	f6000009 			; <UNDEFINED> instruction: 0xf6000009
    2844:	f2000016 	vqadd.s8	d0, d0, d6
    2848:	1b000016 	blne	28a8 <__code_start__-0x5758>
    284c:	00000960 	andeq	r0, r0, r0, ror #18
    2850:	00001726 	andeq	r1, r0, r6, lsr #14
    2854:	00001718 	andeq	r1, r0, r8, lsl r7
    2858:	00025013 	andeq	r5, r2, r3, lsl r0
    285c:	098c1e00 	stmibeq	ip, {r9, sl, fp, ip}
    2860:	178b0000 	strne	r0, [fp, r0]
    2864:	17890000 	strne	r0, [r9, r0]
    2868:	981e0000 	ldmdals	lr, {}	; <UNPREDICTABLE>
    286c:	a5000009 	strge	r0, [r0, #-9]
    2870:	9f000017 	svcls	0x00000017
    2874:	00000017 	andeq	r0, r0, r7, lsl r0
    2878:	1a000000 	bne	2880 <__code_start__-0x5780>
    287c:	00000895 	muleq	r0, r5, r8
    2880:	00009720 	andeq	r9, r0, r0, lsr #14
    2884:	02800000 	addeq	r0, r0, #0, 0
    2888:	d6010000 	strle	r0, [r1], -r0
    288c:	00078909 	andeq	r8, r7, r9, lsl #18
    2890:	08be1b00 	ldmeq	lr!, {r8, r9, fp, ip}
    2894:	17d80000 	ldrbne	r0, [r8, r0]
    2898:	17d40000 	ldrbne	r0, [r4, r0]
    289c:	e01b0000 	ands	r0, fp, r0
    28a0:	fe000008 	cdp2	0, 0, cr0, cr0, cr8, {0}
    28a4:	fa000017 	blx	2908 <__code_start__-0x56f8>
    28a8:	1b000017 	blne	290c <__code_start__-0x56f4>
    28ac:	000008d4 	ldrdeq	r0, [r0], -r4
    28b0:	00001822 	andeq	r1, r0, r2, lsr #16
    28b4:	0000181e 	andeq	r1, r0, lr, lsl r8
    28b8:	0008c81c 	andeq	ip, r8, ip, lsl r8
    28bc:	08b21b00 	ldmeq	r2!, {r8, r9, fp, ip}
    28c0:	18460000 	stmdane	r6, {}^	; <UNPREDICTABLE>
    28c4:	18400000 	stmdane	r0, {}^	; <UNPREDICTABLE>
    28c8:	a61b0000 	ldrge	r0, [fp], -r0
    28cc:	79000008 	stmdbvc	r0, {r3}
    28d0:	75000018 	strvc	r0, [r0, #-24]	; 0xffffffe8
    28d4:	13000018 	movwne	r0, #24
    28d8:	00000280 	andeq	r0, r0, r0, lsl #5
    28dc:	0008ec1d 	andeq	lr, r8, sp, lsl ip
    28e0:	d8910300 	ldmle	r1, {r8, r9}
    28e4:	08f81e7e 	ldmeq	r8!, {r1, r2, r3, r4, r5, r6, r9, sl, fp, ip}^
    28e8:	18a30000 	stmiane	r3!, {}	; <UNPREDICTABLE>
    28ec:	18990000 	ldmne	r9, {}	; <UNPREDICTABLE>
    28f0:	021e0000 	andseq	r0, lr, #0, 0
    28f4:	e8000009 	stmda	r0, {r0, r3}
    28f8:	e4000018 	str	r0, [r0], #-24	; 0xffffffe8
    28fc:	1a000018 	bne	2964 <__code_start__-0x569c>
    2900:	000009a3 	andeq	r0, r0, r3, lsr #19
    2904:	0000973c 	andeq	r9, r0, ip, lsr r7
    2908:	02a00003 	adceq	r0, r0, #3, 0
    290c:	7c010000 	stcvc	0, cr0, [r1], {-0}
    2910:	00072009 	andeq	r2, r7, r9
    2914:	09ca1b00 	stmibeq	sl, {r8, r9, fp, ip}^
    2918:	190a0000 	stmdbne	sl, {}	; <UNPREDICTABLE>
    291c:	19060000 	stmdbne	r6, {}	; <UNPREDICTABLE>
    2920:	be1b0000 	cdplt	0, 1, cr0, cr11, cr0, {0}
    2924:	2c000009 	stccs	0, cr0, [r0], {9}
    2928:	28000019 	stmdacs	r0, {r0, r3, r4}
    292c:	1b000019 	blne	2998 <__code_start__-0x5668>
    2930:	000009b4 			; <UNDEFINED> instruction: 0x000009b4
    2934:	00001956 	andeq	r1, r0, r6, asr r9
    2938:	0000194a 	andeq	r1, r0, sl, asr #18
    293c:	0002a013 	andeq	sl, r2, r3, lsl r0
    2940:	09d61e00 	ldmibeq	r6, {r9, sl, fp, ip}^
    2944:	19b20000 	ldmibne	r2!, {}	; <UNPREDICTABLE>
    2948:	19a60000 	stmibne	r6!, {}	; <UNPREDICTABLE>
    294c:	00000000 	andeq	r0, r0, r0
    2950:	00094f20 	andeq	r4, r9, r0, lsr #30
    2954:	0097c400 	addseq	ip, r7, r0, lsl #8
    2958:	c8000200 	stmdagt	r0, {r9}
    295c:	01000002 	tsteq	r0, r2
    2960:	801b097c 	andshi	r0, fp, ip, ror r9
    2964:	02000009 	andeq	r0, r0, #9, 0
    2968:	fe00001a 	mcr2	0, 0, r0, cr0, cr10, {0}
    296c:	1b000019 	blne	29d8 <__code_start__-0x5628>
    2970:	00000976 	andeq	r0, r0, r6, ror r9
    2974:	00001a2a 	andeq	r1, r0, sl, lsr #20
    2978:	00001a20 	andeq	r1, r0, r0, lsr #20
    297c:	00096c1b 	andeq	r6, r9, fp, lsl ip
    2980:	001a7600 	andseq	r7, sl, r0, lsl #12
    2984:	001a7200 	andseq	r7, sl, r0, lsl #4
    2988:	09601b00 	stmdbeq	r0!, {r8, r9, fp, ip}^
    298c:	1aa40000 	bne	fe902994 <__bss_end__+0xfe8f77f4>
    2990:	1a980000 	bne	fe602998 <__bss_end__+0xfe5f77f8>
    2994:	c8130000 	ldmdagt	r3, {}	; <UNPREDICTABLE>
    2998:	1e000002 	cdpne	0, 0, cr0, cr0, cr2, {0}
    299c:	0000098c 	andeq	r0, r0, ip, lsl #19
    29a0:	00001afe 	strdeq	r1, [r0], -lr
    29a4:	00001afa 	strdeq	r1, [r0], -sl
    29a8:	0009981e 	andeq	r9, r9, lr, lsl r8
    29ac:	001b2400 	andseq	r2, fp, r0, lsl #8
    29b0:	001b2000 	andseq	r2, fp, r0
    29b4:	00000000 	andeq	r0, r0, r0
    29b8:	94f01700 	ldrbtls	r1, [r0], #1792	; 0x700
    29bc:	0aa40000 	beq	fe9029c4 <__bss_end__+0xfe8f7824>
    29c0:	07af0000 	streq	r0, [pc, r0]!
    29c4:	01180000 	tsteq	r8, r0
    29c8:	18400150 	stmdane	r0, {r4, r6, r8}^
    29cc:	91035101 	tstls	r3, r1, lsl #2
    29d0:	01187dd0 			; <UNDEFINED> instruction: 0x01187dd0
    29d4:	00750253 	rsbseq	r0, r5, r3, asr r2
    29d8:	007d0218 	rsbseq	r0, sp, r8, lsl r2
    29dc:	17003001 	strne	r3, [r0, -r1]
    29e0:	00009600 	andeq	r9, r0, r0, lsl #12
    29e4:	00000aa4 	andeq	r0, r0, r4, lsr #21
    29e8:	000007cf 	andeq	r0, r0, pc, asr #15
    29ec:	01500118 	cmpeq	r0, r8, lsl r1
    29f0:	5101183a 	tstpl	r1, sl, lsr r8
    29f4:	7dd09103 	ldfvcp	f1, [r0, #12]
    29f8:	02530118 	subseq	r0, r3, #6
    29fc:	17000075 	smlsdxne	r0, r5, r0, r0
    2a00:	000098e4 	andeq	r9, r0, r4, ror #17
    2a04:	00000c46 	andeq	r0, r0, r6, asr #24
    2a08:	000007e6 	andeq	r0, r0, r6, ror #15
    2a0c:	05500118 	ldrbeq	r0, [r0, #-280]	; 0xfffffee8
    2a10:	00aac403 	adceq	ip, sl, r3, lsl #8
    2a14:	f4210000 	vld4.8	{d0-d3}, [r1], r0
    2a18:	f8000098 			; <UNDEFINED> instruction: 0xf8000098
    2a1c:	18000007 	stmdane	r0, {r0, r1, r2}
    2a20:	91045001 	tstls	r4, r1
    2a24:	00067dc8 	andeq	r7, r6, r8, asr #27
    2a28:	00990817 	addseq	r0, r9, r7, lsl r8
    2a2c:	000c4600 	andeq	r4, ip, r0, lsl #12
    2a30:	00082700 	andeq	r2, r8, r0, lsl #14
    2a34:	50011800 	andpl	r1, r1, r0, lsl #16
    2a38:	aaf40305 	bge	ffd03654 <__bss_end__+0xffcf84b4>
    2a3c:	01180000 	tsteq	r8, r0
    2a40:	d4030551 	strle	r0, [r3], #-1361	; 0xfffffaaf
    2a44:	180000a9 	stmdane	r0, {r0, r3, r5, r7}
    2a48:	03055201 	movweq	r5, #20993	; 0x5201
    2a4c:	0000ab2c 	andeq	sl, r0, ip, lsr #22
    2a50:	02530118 	subseq	r0, r3, #6
    2a54:	1900e208 	stmdbne	r0, {r3, r9, sp, lr, pc}
    2a58:	0000990c 	andeq	r9, r0, ip, lsl #18
    2a5c:	00000c76 	andeq	r0, r0, r6, ror ip
    2a60:	00992017 	addseq	r2, r9, r7, lsl r0
    2a64:	000c4600 	andeq	r4, ip, r0, lsl #12
    2a68:	00085f00 	andeq	r5, r8, r0, lsl #30
    2a6c:	50011800 	andpl	r1, r1, r0, lsl #16
    2a70:	aa9c0305 	bge	fe70368c <__bss_end__+0xfe6f84ec>
    2a74:	01180000 	tsteq	r8, r0
    2a78:	d4030551 	strle	r0, [r3], #-1361	; 0xfffffaaf
    2a7c:	180000a9 	stmdane	r0, {r0, r3, r5, r7}
    2a80:	03055201 	movweq	r5, #20993	; 0x5201
    2a84:	0000ab2c 	andeq	sl, r0, ip, lsr #22
    2a88:	02530118 	subseq	r0, r3, #6
    2a8c:	1900be08 	stmdbne	r0, {r3, r9, sl, fp, ip, sp, pc}
    2a90:	00009924 	andeq	r9, r0, r4, lsr #18
    2a94:	00000c76 	andeq	r0, r0, r6, ror ip
    2a98:	04080000 	streq	r0, [r8], #-0
    2a9c:	000000b9 	strheq	r0, [r0], -r9
    2aa0:	0000c022 	andeq	ip, r0, r2, lsr #32
    2aa4:	00088000 	andeq	r8, r8, r0
    2aa8:	002c2300 	eoreq	r2, ip, r0, lsl #6
    2aac:	00090000 	andeq	r0, r9, r0
    2ab0:	00087009 	andeq	r7, r8, r9
    2ab4:	00b92200 	adcseq	r2, r9, r0, lsl #4
    2ab8:	08950000 	ldmeq	r5, {}	; <UNPREDICTABLE>
    2abc:	2c230000 	stccs	0, cr0, [r3], #-0
    2ac0:	7f000000 	svcvc	0x00000000
    2ac4:	07102400 	ldreq	r2, [r0, -r0, lsl #8]
    2ac8:	49010000 	stmdbmi	r1, {}	; <UNPREDICTABLE>
    2acc:	00086a01 	andeq	r6, r8, r1, lsl #20
    2ad0:	092a0100 	stmdbeq	sl!, {r8}
    2ad4:	b7250000 	strlt	r0, [r5, -r0]!
    2ad8:	01000003 	tsteq	r0, r3
    2adc:	002c0f49 	eoreq	r0, ip, r9, asr #30
    2ae0:	64260000 	strtvs	r0, [r6], #-0
    2ae4:	01007473 	tsteq	r0, r3, ror r4
    2ae8:	086a1b49 	stmdaeq	sl!, {r0, r3, r6, r8, r9, fp, ip}^
    2aec:	6e260000 	cdpvs	0, 2, cr0, cr6, cr0, {0}
    2af0:	24490100 	strbcs	r0, [r9], #-256	; 0xffffff00
    2af4:	00000033 	andeq	r0, r0, r3, lsr r0
    2af8:	6c617626 	stclvs	6, cr7, [r1], #-152	; 0xffffff68
    2afc:	2b490100 	blcs	1242f04 <__bss_end__+0x1237d64>
    2b00:	00000033 	andeq	r0, r0, r3, lsr r0
    2b04:	0006c825 	andeq	ip, r6, r5, lsr #16
    2b08:	34490100 	strbcc	r0, [r9], #-256	; 0xffffff00
    2b0c:	00000033 	andeq	r0, r0, r3, lsr r0
    2b10:	00074625 	andeq	r4, r7, r5, lsr #12
    2b14:	3f490100 	svccc	0x00490100
    2b18:	00000033 	andeq	r0, r0, r3, lsr r0
    2b1c:	66756227 	ldrbtvs	r6, [r5], -r7, lsr #4
    2b20:	074e0100 	strbeq	r0, [lr, -r0, lsl #2]
    2b24:	0000092a 	andeq	r0, r0, sl, lsr #18
    2b28:	01007027 	tsteq	r0, r7, lsr #32
    2b2c:	086a114e 	stmdaeq	sl!, {r1, r2, r3, r6, r8, ip}^
    2b30:	75270000 	strvc	r0, [r7, #-0]!
    2b34:	0b4f0100 	bleq	13c2f3c <__bss_end__+0x13b7d9c>
    2b38:	0000002c 	andeq	r0, r0, ip, lsr #32
    2b3c:	00009812 	andeq	r9, r0, r2, lsl r8
    2b40:	00094a00 	andeq	r4, r9, r0, lsl #20
    2b44:	14030500 	strne	r0, [r3], #-1280	; 0xfffffb00
    2b48:	280000ab 	stmdacs	r0, {r0, r1, r3, r5, r7}
    2b4c:	0006fd29 	andeq	pc, r6, r9, lsr #26
    2b50:	0d540100 	ldfeqe	f0, [r4, #-0]
    2b54:	0000002c 	andeq	r0, r0, ip, lsr #32
    2b58:	b9220000 	stmdblt	r2!, {}	; <UNPREDICTABLE>
    2b5c:	3a000000 	bcc	2b64 <__code_start__-0x549c>
    2b60:	23000009 	movwcs	r0, #9
    2b64:	0000002c 	andeq	r0, r0, ip, lsr #32
    2b68:	c022003f 	eorgt	r0, r2, pc, lsr r0
    2b6c:	4a000000 	bmi	2b74 <__code_start__-0x548c>
    2b70:	23000009 	movwcs	r0, #9
    2b74:	0000002c 	andeq	r0, r0, ip, lsr #32
    2b78:	3a090004 	bcc	242b90 <__bss_end__+0x2379f0>
    2b7c:	24000009 	strcs	r0, [r0], #-9
    2b80:	00000715 	andeq	r0, r0, r5, lsl r7
    2b84:	6a0e3801 	bvs	390b90 <__bss_end__+0x3859f0>
    2b88:	01000008 	tsteq	r0, r8
    2b8c:	000009a3 	andeq	r0, r0, r3, lsr #19
    2b90:	74736426 	ldrbtvc	r6, [r3], #-1062	; 0xfffffbda
    2b94:	1c380100 	ldfnes	f0, [r8], #-0
    2b98:	0000086a 	andeq	r0, r0, sl, ror #16
    2b9c:	01006e26 	tsteq	r0, r6, lsr #28
    2ba0:	00332538 	eorseq	r2, r3, r8, lsr r5
    2ba4:	70260000 	eorvc	r0, r6, r0
    2ba8:	2e380100 	rsfcse	f0, f0, f0
    2bac:	0000086a 	andeq	r0, r0, sl, ror #16
    2bb0:	000af525 	andeq	pc, sl, r5, lsr #10
    2bb4:	37380100 	ldrcc	r0, [r8, -r0, lsl #2]!
    2bb8:	0000086a 	andeq	r0, r0, sl, ror #16
    2bbc:	6e656c27 	cdpvs	12, 6, cr6, cr5, cr7, {1}
    2bc0:	063a0100 	ldrteq	r0, [sl], -r0, lsl #2
    2bc4:	00000033 	andeq	r0, r0, r3, lsr r0
    2bc8:	01007327 	tsteq	r0, r7, lsr #6
    2bcc:	086a083e 	stmdaeq	sl!, {r1, r2, r3, r4, r5, fp}^
    2bd0:	2a000000 	bcs	2bd8 <__code_start__-0x5428>
    2bd4:	00646170 	rsbeq	r6, r4, r0, ror r1
    2bd8:	6a0e2e01 	bvs	38e3e4 <__bss_end__+0x383244>
    2bdc:	01000008 	tsteq	r0, r8
    2be0:	000009e3 	andeq	r0, r0, r3, ror #19
    2be4:	01007026 	tsteq	r0, r6, lsr #32
    2be8:	086a182e 	stmdaeq	sl!, {r1, r2, r3, r5, fp, ip}^
    2bec:	b7250000 	strlt	r0, [r5, -r0]!
    2bf0:	01000003 	tsteq	r0, r3
    2bf4:	086a222e 	stmdaeq	sl!, {r1, r2, r3, r5, r9, sp}^
    2bf8:	c8250000 	stmdagt	r5!, {}	; <UNPREDICTABLE>
    2bfc:	01000006 	tsteq	r0, r6
    2c00:	00332c2e 	eorseq	r2, r3, lr, lsr #24
    2c04:	6c270000 	stcvs	0, cr0, [r7], #-0
    2c08:	01006e65 	tsteq	r0, r5, ror #28
    2c0c:	0033062f 	eorseq	r0, r3, pc, lsr #12
    2c10:	24000000 	strcs	r0, [r0], #-0
    2c14:	00000695 	muleq	r0, r5, r6
    2c18:	330c2701 	movwcc	r2, #50945	; 0xc701
    2c1c:	01000000 	mrseq	r0, (UNDEF: 0)
    2c20:	000009ff 	strdeq	r0, [r0], -pc	; <UNPREDICTABLE>
    2c24:	01006326 	tsteq	r0, r6, lsr #6
    2c28:	00331827 	eorseq	r1, r3, r7, lsr #16
    2c2c:	2b000000 	blcs	2c34 <__code_start__-0x53cc>
    2c30:	000006d6 	ldrdeq	r0, [r0], -r6
    2c34:	3c061f01 	stccc	15, cr1, [r6], {1}
    2c38:	60000093 	mulvs	r0, r3, r0
    2c3c:	01000000 	mrseq	r0, (UNDEF: 0)
    2c40:	000a8f9c 	muleq	sl, ip, pc	; <UNPREDICTABLE>
    2c44:	06ce0f00 	strbeq	r0, [lr], r0, lsl #30
    2c48:	1f010000 	svcne	0x00010000
    2c4c:	00009e1b 	andeq	r9, r0, fp, lsl lr
    2c50:	001b4900 	andseq	r4, fp, r0, lsl #18
    2c54:	001b4500 	andseq	r4, fp, r0, lsl #10
    2c58:	07240f00 	streq	r0, [r4, -r0, lsl #30]!
    2c5c:	1f010000 	svcne	0x00010000
    2c60:	0000d130 	andeq	sp, r0, r0, lsr r1
    2c64:	001b6e00 	andseq	r6, fp, r0, lsl #28
    2c68:	001b6a00 	andseq	r6, fp, r0, lsl #20
    2c6c:	00981200 	addseq	r1, r8, r0, lsl #4
    2c70:	0a9f0000 	beq	fe7c2c78 <__bss_end__+0xfe7b7ad8>
    2c74:	03050000 	movweq	r0, #20480	; 0x5000
    2c78:	0000ab1c 	andeq	sl, r0, ip, lsl fp
    2c7c:	00938017 	addseq	r8, r3, r7, lsl r0
    2c80:	000c4600 	andeq	r4, ip, r0, lsl #12
    2c84:	000a8500 	andeq	r8, sl, r0, lsl #10
    2c88:	50011800 	andpl	r1, r1, r0, lsl #16
    2c8c:	a5300305 	ldrge	r0, [r0, #-773]!	; 0xfffffcfb
    2c90:	01180000 	tsteq	r8, r0
    2c94:	d4030551 	strle	r0, [r3], #-1361	; 0xfffffaaf
    2c98:	180000a9 	stmdane	r0, {r0, r3, r5, r7}
    2c9c:	03055201 	movweq	r5, #20993	; 0x5201
    2ca0:	0000ab1c 	andeq	sl, r0, ip, lsl fp
    2ca4:	02530118 	subseq	r0, r3, #6
    2ca8:	02182008 	andseq	r2, r8, #8, 0
    2cac:	0305007d 	movweq	r0, #20605	; 0x507d
    2cb0:	0000aa0c 	andeq	sl, r0, ip, lsl #20
    2cb4:	93841900 	orrls	r1, r4, #0, 18
    2cb8:	0c760000 	ldcleq	0, cr0, [r6], #-0
    2cbc:	22000000 	andcs	r0, r0, #0, 0
    2cc0:	000000c0 	andeq	r0, r0, r0, asr #1
    2cc4:	00000a9f 	muleq	r0, pc, sl	; <UNPREDICTABLE>
    2cc8:	00002c23 	andeq	r2, r0, r3, lsr #24
    2ccc:	09000e00 	stmdbeq	r0, {r9, sl, fp}
    2cd0:	00000a8f 	andeq	r0, r0, pc, lsl #21
    2cd4:	0008952c 	andeq	r9, r8, ip, lsr #10
    2cd8:	00901400 	addseq	r1, r0, r0, lsl #8
    2cdc:	00032800 	andeq	r2, r3, r0, lsl #16
    2ce0:	3a9c0100 	bcc	fe7030e8 <__bss_end__+0xfe6f7f48>
    2ce4:	1b00000c 	blne	2d1c <__code_start__-0x52e4>
    2ce8:	000008a6 	andeq	r0, r0, r6, lsr #17
    2cec:	00001ba7 	andeq	r1, r0, r7, lsr #23
    2cf0:	00001b8f 	andeq	r1, r0, pc, lsl #23
    2cf4:	0008b21b 	andeq	fp, r8, fp, lsl r2
    2cf8:	001c5100 	andseq	r5, ip, r0, lsl #2
    2cfc:	001c4900 	andseq	r4, ip, r0, lsl #18
    2d00:	08c81b00 	stmiaeq	r8, {r8, r9, fp, ip}^
    2d04:	1ca80000 	stcne	0, cr0, [r8]
    2d08:	1c880000 	stcne	0, cr0, [r8], {0}
    2d0c:	d41b0000 	ldrle	r0, [fp], #-0
    2d10:	7e000008 	cdpvc	0, 0, cr0, cr0, cr8, {0}
    2d14:	7000001d 	andvc	r0, r0, sp, lsl r0
    2d18:	2d00001d 	stccs	0, cr0, [r0, #-116]	; 0xffffff8c
    2d1c:	000008e0 	andeq	r0, r0, r0, ror #17
    2d20:	1d009102 	stfned	f1, [r0, #-8]
    2d24:	000008ec 	andeq	r0, r0, ip, ror #17
    2d28:	7fa89103 	svcvc	0x00a89103
    2d2c:	0008f81e 	andeq	pc, r8, lr, lsl r8	; <UNPREDICTABLE>
    2d30:	001e1200 	andseq	r1, lr, r0, lsl #4
    2d34:	001dde00 	andseq	sp, sp, r0, lsl #28
    2d38:	09021e00 	stmdbeq	r2, {r9, sl, fp, ip}
    2d3c:	1f790000 	svcne	0x00790000
    2d40:	1f570000 	svcne	0x00570000
    2d44:	be2e0000 	cdplt	0, 2, cr0, cr14, cr0, {0}
    2d48:	80000008 	andhi	r0, r0, r8
    2d4c:	0009a31a 	andeq	sl, r9, sl, lsl r3
    2d50:	0090b800 	addseq	fp, r0, r0, lsl #16
    2d54:	18000400 	stmdane	r0, {sl}
    2d58:	01000001 	tsteq	r0, r1
    2d5c:	0b6d097c 	bleq	1b45354 <__bss_end__+0x1b3a1b4>
    2d60:	ca1b0000 	bgt	6c2d68 <__bss_end__+0x6b7bc8>
    2d64:	61000009 	tstvs	r0, r9
    2d68:	57000020 	strpl	r0, [r0, -r0, lsr #32]
    2d6c:	1b000020 	blne	2df4 <__code_start__-0x520c>
    2d70:	000009be 			; <UNDEFINED> instruction: 0x000009be
    2d74:	000020b5 	strheq	r2, [r0], -r5
    2d78:	000020a5 	andeq	r2, r0, r5, lsr #1
    2d7c:	0009b41b 	andeq	fp, r9, fp, lsl r4
    2d80:	00213500 	eoreq	r3, r1, r0, lsl #10
    2d84:	00212100 	eoreq	r2, r1, r0, lsl #2
    2d88:	01181300 	tsteq	r8, r0, lsl #6
    2d8c:	d61e0000 	ldrle	r0, [lr], -r0
    2d90:	c7000009 	strgt	r0, [r0, -r9]
    2d94:	b7000021 	strlt	r0, [r0, -r1, lsr #32]
    2d98:	00000021 	andeq	r0, r0, r1, lsr #32
    2d9c:	094f1a00 	stmdbeq	pc, {r9, fp, ip}^	; <UNPREDICTABLE>
    2da0:	91700000 	cmnls	r0, r0
    2da4:	00020000 	andeq	r0, r2, r0
    2da8:	00000160 	andeq	r0, r0, r0, ror #2
    2dac:	d8097c01 	stmdale	r9, {r0, sl, fp, ip, sp, lr}
    2db0:	1b00000b 	blne	2de4 <__code_start__-0x521c>
    2db4:	00000980 	andeq	r0, r0, r0, lsl #19
    2db8:	00002233 	andeq	r2, r0, r3, lsr r2
    2dbc:	0000222b 	andeq	r2, r0, fp, lsr #4
    2dc0:	0009761b 	andeq	r7, r9, fp, lsl r6
    2dc4:	00227200 	eoreq	r7, r2, r0, lsl #4
    2dc8:	00226a00 	eoreq	r6, r2, r0, lsl #20
    2dcc:	096c1b00 	stmdbeq	ip!, {r8, r9, fp, ip}^
    2dd0:	22b10000 	adcscs	r0, r1, #0, 0
    2dd4:	22ad0000 	adccs	r0, sp, #0, 0
    2dd8:	601b0000 	andsvs	r0, fp, r0
    2ddc:	e1000009 	tst	r0, r9
    2de0:	d3000022 	movwle	r0, #34	; 0x22
    2de4:	13000022 	movwne	r0, #34	; 0x22
    2de8:	00000160 	andeq	r0, r0, r0, ror #2
    2dec:	00098c1e 	andeq	r8, r9, lr, lsl ip
    2df0:	00234600 	eoreq	r4, r3, r0, lsl #12
    2df4:	00234000 	eoreq	r4, r3, r0
    2df8:	09981e00 	ldmibeq	r8, {r9, sl, fp, ip}
    2dfc:	23780000 	cmncs	r8, #0, 0
    2e00:	23740000 	cmncs	r4, #0, 0
    2e04:	00000000 	andeq	r0, r0, r0
    2e08:	00091b2f 	andeq	r1, r9, pc, lsr #22
    2e0c:	00922800 	addseq	r2, r2, r0, lsl #16
    2e10:	00006000 	andeq	r6, r0, r0
    2e14:	000bf700 	andeq	pc, fp, r0, lsl #14
    2e18:	091c1e00 	ldmdbeq	ip, {r9, sl, fp, ip}
    2e1c:	239a0000 	orrscs	r0, sl, #0, 0
    2e20:	23960000 	orrscs	r0, r6, #0, 0
    2e24:	17000000 	strne	r0, [r0, -r0]
    2e28:	000092fc 	strdeq	r9, [r0], -ip
    2e2c:	00000c46 	andeq	r0, r0, r6, asr #24
    2e30:	00000c30 	andeq	r0, r0, r0, lsr ip
    2e34:	05500118 	ldrbeq	r0, [r0, #-280]	; 0xfffffee8
    2e38:	00a53003 	adceq	r3, r5, r3
    2e3c:	51011800 	tstpl	r1, r0, lsl #16
    2e40:	a9d40305 	ldmibge	r4, {r0, r2, r8, r9}^
    2e44:	01180000 	tsteq	r8, r0
    2e48:	14030552 	strne	r0, [r3], #-1362	; 0xfffffaae
    2e4c:	180000ab 	stmdane	r0, {r0, r1, r3, r5, r7}
    2e50:	08025301 	stmdaeq	r2, {r0, r8, r9, ip, lr}
    2e54:	7d021879 	stcvc	8, cr1, [r2, #-484]	; 0xfffffe1c
    2e58:	84030500 	strhi	r0, [r3], #-1280	; 0xfffffb00
    2e5c:	000000a8 	andeq	r0, r0, r8, lsr #1
    2e60:	00930019 	addseq	r0, r3, r9, lsl r0
    2e64:	000c7600 	andeq	r7, ip, r0, lsl #12
    2e68:	3e300000 	cdpcc	0, 3, cr0, cr0, cr0, {0}
    2e6c:	3e000007 	cdpcc	0, 0, cr0, cr0, cr7, {0}
    2e70:	03000007 	movweq	r0, #7
    2e74:	443005eb 	ldrtmi	r0, [r0], #-1515	; 0xfffffa15
    2e78:	44000006 	strmi	r0, [r0], #-6
    2e7c:	03000006 	movweq	r0, #6
    2e80:	ef300628 	svc	0x00300628
    2e84:	ef000006 	svc	0x00000006
    2e88:	03000006 	movweq	r0, #6
    2e8c:	1d3007ee 	ldcne	7, cr0, [r0, #-952]!	; 0xfffffc48
    2e90:	1d000007 	stcne	0, cr0, [r0, #-28]	; 0xffffffe4
    2e94:	03000007 	movweq	r0, #7
    2e98:	f63005ea 			; <UNDEFINED> instruction: 0xf63005ea
    2e9c:	f6000006 			; <UNDEFINED> instruction: 0xf6000006
    2ea0:	03000006 	movweq	r0, #6
    2ea4:	af3007ed 	svcge	0x003007ed
    2ea8:	af000000 	svcge	0x00000000
    2eac:	03000000 	movweq	r0, #0
    2eb0:	2f00066e 	svccs	0x0000066e
    2eb4:	04000001 	streq	r0, [r0], #-1
    2eb8:	000fa300 	andeq	sl, pc, r0, lsl #6
    2ebc:	1c010400 	cfstrsne	mvf0, [r1], {-0}
    2ec0:	0c000005 	stceq	0, cr0, [r0], {5}
    2ec4:	00000763 	andeq	r0, r0, r3, ror #14
    2ec8:	000005e2 	andeq	r0, r0, r2, ror #11
    2ecc:	000099c8 	andeq	r9, r0, r8, asr #19
    2ed0:	0000002c 	andeq	r0, r0, ip, lsr #32
    2ed4:	00001a5f 	andeq	r1, r0, pc, asr sl
    2ed8:	69050402 	stmdbvs	r5, {r1, sl}
    2edc:	0300746e 	movweq	r7, #1134	; 0x46e
    2ee0:	01d50704 	bicseq	r0, r5, r4, lsl #14
    2ee4:	01030000 	mrseq	r0, (UNDEF: 3)
    2ee8:	0000cb06 	andeq	ip, r0, r6, lsl #22
    2eec:	05020300 	streq	r0, [r2, #-768]	; 0xfffffd00
    2ef0:	00000022 	andeq	r0, r0, r2, lsr #32
    2ef4:	57050403 	strpl	r0, [r5, -r3, lsl #8]
    2ef8:	03000000 	movweq	r0, #0
    2efc:	00520508 	subseq	r0, r2, r8, lsl #10
    2f00:	01030000 	mrseq	r0, (UNDEF: 3)
    2f04:	0000c908 	andeq	ip, r0, r8, lsl #18
    2f08:	07020300 	streq	r0, [r2, -r0, lsl #6]
    2f0c:	0000020a 	andeq	r0, r0, sl, lsl #4
    2f10:	d0070403 	andle	r0, r7, r3, lsl #8
    2f14:	03000001 	movweq	r0, #1
    2f18:	01cb0708 	biceq	r0, fp, r8, lsl #14
    2f1c:	25040000 	strcs	r0, [r4, #-0]
    2f20:	7a000000 	bvc	2f28 <__code_start__-0x50d8>
    2f24:	05000000 	streq	r0, [r0, #-0]
    2f28:	00000025 	andeq	r0, r0, r5, lsr #32
    2f2c:	002c0600 	eoreq	r0, ip, r0, lsl #12
    2f30:	1c020000 	stcne	0, cr0, [r2], {-0}
    2f34:	0000860e 	andeq	r8, r0, lr, lsl #12
    2f38:	6b040700 	blvs	104b40 <__bss_end__+0xf99a0>
    2f3c:	04000000 	streq	r0, [r0], #-0
    2f40:	00000025 	andeq	r0, r0, r5, lsr #32
    2f44:	0000009b 	muleq	r0, fp, r0
    2f48:	00009b05 	andeq	r9, r0, r5, lsl #22
    2f4c:	04070000 	streq	r0, [r7], #-0
    2f50:	000000a8 	andeq	r0, r0, r8, lsr #1
    2f54:	d2080103 	andle	r0, r8, #-1073741824	; 0xc0000000
    2f58:	08000000 	stmdaeq	r0, {}	; <UNPREDICTABLE>
    2f5c:	000000a1 	andeq	r0, r0, r1, lsr #1
    2f60:	00068206 	andeq	r8, r6, r6, lsl #4
    2f64:	0e210200 	cdpeq	2, 2, cr0, cr1, cr0, {0}
    2f68:	000000b9 	strheq	r0, [r0], -r9
    2f6c:	008c0407 	addeq	r0, ip, r7, lsl #8
    2f70:	af090000 	svcge	0x00090000
    2f74:	01000000 	mrseq	r0, (UNDEF: 0)
    2f78:	99c80604 	stmibls	r8, {r2, r9, sl}^
    2f7c:	002c0000 	eoreq	r0, ip, r0
    2f80:	9c010000 	stcls	0, cr0, [r1], {-0}
    2f84:	0000010e 	andeq	r0, r0, lr, lsl #2
    2f88:	0099dc0a 	addseq	sp, r9, sl, lsl #24
    2f8c:	0000e800 	andeq	lr, r0, r0, lsl #16
    2f90:	50010b00 	andpl	r0, r1, r0, lsl #22
    2f94:	ab380305 	blge	e03bb0 <__bss_end__+0xdf8a10>
    2f98:	0c000000 	stceq	0, cr0, [r0], {-0}
    2f9c:	000099e0 	andeq	r9, r0, r0, ror #19
    2fa0:	0000010e 	andeq	r0, r0, lr, lsl #2
    2fa4:	0099e80d 	addseq	lr, r9, sp, lsl #16
    2fa8:	00011a00 	andeq	r1, r1, r0, lsl #20
    2fac:	00010400 	andeq	r0, r1, r0, lsl #8
    2fb0:	50010b00 	andpl	r0, r1, r0, lsl #22
    2fb4:	0c003a01 			; <UNDEFINED> instruction: 0x0c003a01
    2fb8:	000099ec 	andeq	r9, r0, ip, ror #19
    2fbc:	00000126 	andeq	r0, r0, r6, lsr #2
    2fc0:	077e0e00 	ldrbeq	r0, [lr, -r0, lsl #28]!
    2fc4:	077e0000 	ldrbeq	r0, [lr, -r0]!
    2fc8:	4d020000 	stcmi	0, cr0, [r2, #-0]
    2fcc:	075a0e06 	ldrbeq	r0, [sl, -r6, lsl #28]
    2fd0:	075a0000 	ldrbeq	r0, [sl, -r0]
    2fd4:	58020000 	stmdapl	r2, {}	; <UNPREDICTABLE>
    2fd8:	074f0e06 	strbeq	r0, [pc, -r6, lsl #28]
    2fdc:	074f0000 	strbeq	r0, [pc, -r0]
    2fe0:	6b020000 	blvs	82fe8 <__bss_end__+0x77e48>
    2fe4:	02b10006 	adcseq	r0, r1, #6, 0
    2fe8:	00040000 	andeq	r0, r4, r0
    2fec:	00001063 	andeq	r1, r0, r3, rrx
    2ff0:	051c0104 	ldreq	r0, [ip, #-260]	; 0xfffffefc
    2ff4:	b40c0000 	strlt	r0, [ip], #-0
    2ff8:	e2000007 	and	r0, r0, #7, 0
    2ffc:	f4000005 	vst4.8	{d0-d3}, [r0], r5
    3000:	28000099 	stmdacs	r0, {r0, r3, r4, r7}
    3004:	ea000001 	b	3010 <__code_start__-0x4ff0>
    3008:	0200001a 	andeq	r0, r0, #26, 0
    300c:	6e690504 	cdpvs	5, 6, cr0, cr9, cr4, {0}
    3010:	04030074 	streq	r0, [r3], #-116	; 0xffffff8c
    3014:	0001d507 	andeq	sp, r1, r7, lsl #10
    3018:	06010300 	streq	r0, [r1], -r0, lsl #6
    301c:	000000cb 	andeq	r0, r0, fp, asr #1
    3020:	22050203 	andcs	r0, r5, #805306368	; 0x30000000
    3024:	03000000 	movweq	r0, #0
    3028:	00570504 	subseq	r0, r7, r4, lsl #10
    302c:	08030000 	stmdaeq	r3, {}	; <UNPREDICTABLE>
    3030:	00005205 	andeq	r5, r0, r5, lsl #4
    3034:	08010300 	stmdaeq	r1, {r8, r9}
    3038:	000000c9 	andeq	r0, r0, r9, asr #1
    303c:	0a070203 	beq	1c3850 <__bss_end__+0x1b86b0>
    3040:	03000002 	movweq	r0, #2
    3044:	01d00704 	bicseq	r0, r0, r4, lsl #14
    3048:	08030000 	stmdaeq	r3, {}	; <UNPREDICTABLE>
    304c:	0001cb07 	andeq	ip, r1, r7, lsl #22
    3050:	00250400 	eoreq	r0, r5, r0, lsl #8
    3054:	007a0000 	rsbseq	r0, sl, r0
    3058:	25050000 	strcs	r0, [r5, #-0]
    305c:	00000000 	andeq	r0, r0, r0
    3060:	00002c06 	andeq	r2, r0, r6, lsl #24
    3064:	0e1c0200 	cdpeq	2, 1, cr0, cr12, cr0, {0}
    3068:	00000086 	andeq	r0, r0, r6, lsl #1
    306c:	006b0407 	rsbeq	r0, fp, r7, lsl #8
    3070:	25040000 	strcs	r0, [r4, #-0]
    3074:	9b000000 	blls	307c <__code_start__-0x4f84>
    3078:	05000000 	streq	r0, [r0, #-0]
    307c:	0000009b 	muleq	r0, fp, r0
    3080:	a8040700 	stmdage	r4, {r8, r9, sl}
    3084:	03000000 	movweq	r0, #0
    3088:	00d20801 	sbcseq	r0, r2, r1, lsl #16
    308c:	a1080000 	mrsge	r0, (UNDEF: 8)
    3090:	06000000 	streq	r0, [r0], -r0
    3094:	00000682 	andeq	r0, r0, r2, lsl #13
    3098:	b90e2102 	stmdblt	lr, {r1, r8, sp}
    309c:	07000000 	streq	r0, [r0, -r0]
    30a0:	00008c04 	andeq	r8, r0, r4, lsl #24
    30a4:	078c0900 	streq	r0, [ip, r0, lsl #18]
    30a8:	11010000 	mrsne	r0, (UNDEF: 1)
    30ac:	0099f406 	addseq	pc, r9, r6, lsl #8
    30b0:	00012800 	andeq	r2, r1, r0, lsl #16
    30b4:	269c0100 	ldrcs	r0, [ip], r0, lsl #2
    30b8:	06000002 	streq	r0, [r0], -r2
    30bc:	000003f8 	strdeq	r0, [r0], -r8
    30c0:	25101201 	ldrcs	r1, [r0, #-513]	; 0xfffffdff
    30c4:	06000000 	streq	r0, [r0], -r0
    30c8:	000004aa 	andeq	r0, r0, sl, lsr #9
    30cc:	251f1201 	ldrcs	r1, [pc, #-513]	; 2ed3 <__code_start__-0x512d>
    30d0:	0a000000 	beq	30d8 <__code_start__-0x4f28>
    30d4:	00000202 	andeq	r0, r0, r2, lsl #4
    30d8:	0b071301 	bleq	1c7ce4 <__bss_end__+0x1bcb44>
    30dc:	00737362 	rsbseq	r7, r3, r2, ror #6
    30e0:	260a1701 	strcs	r1, [sl], -r1, lsl #14
    30e4:	d2000002 	andle	r0, r0, #2, 0
    30e8:	ba000023 	blt	317c <__code_start__-0x4e84>
    30ec:	0c000023 	stceq	0, cr0, [r0], {35}	; 0x23
    30f0:	00000794 	muleq	r0, r4, r7
    30f4:	260a1801 	strcs	r1, [sl], -r1, lsl #16
    30f8:	0d000002 	stceq	0, cr0, [r0, #-8]
    30fc:	000007d4 	ldrdeq	r0, [r0], -r4
    3100:	2c0e2501 	cfstr32cs	mvfx2, [lr], {1}
    3104:	6c000000 	stcvs	0, cr0, [r0], {-0}
    3108:	6a000024 	bvs	31a0 <__code_start__-0x4e60>
    310c:	0e000024 	cdpeq	0, 0, cr0, cr0, cr4, {1}
    3110:	00009acc 	andeq	r9, r0, ip, asr #21
    3114:	00000008 	andeq	r0, r0, r8
    3118:	0000014a 	andeq	r0, r0, sl, asr #2
    311c:	006e690b 	rsbeq	r6, lr, fp, lsl #18
    3120:	2c052101 	stfcss	f2, [r5], {1}
    3124:	81000000 	mrshi	r0, (UNDEF: 0)
    3128:	7f000024 	svcvc	0x00000024
    312c:	00000024 	andeq	r0, r0, r4, lsr #32
    3130:	00022c0f 	andeq	r2, r2, pc, lsl #24
    3134:	009ad400 	addseq	sp, sl, r0, lsl #8
    3138:	9ad40200 	bls	ff503940 <__bss_end__+0xff4f87a0>
    313c:	000c0000 	andeq	r0, ip, r0
    3140:	23010000 	movwcs	r0, #4096	; 0x1000
    3144:	00019905 	andeq	r9, r1, r5, lsl #18
    3148:	024f1000 	subeq	r1, pc, #0, 0
    314c:	24970000 	ldrcs	r0, [r7], #0
    3150:	24950000 	ldrcs	r0, [r5], #0
    3154:	5b100000 	blpl	40315c <__bss_end__+0x3f7fbc>
    3158:	ad000002 	stcge	0, cr0, [r0, #-8]
    315c:	ab000024 	blge	31f4 <__code_start__-0x4e0c>
    3160:	11000024 	tstne	r0, r4, lsr #32
    3164:	00000267 	andeq	r0, r0, r7, ror #4
    3168:	00009ad4 	ldrdeq	r9, [r0], -r4
    316c:	00000004 	andeq	r0, r0, r4
    3170:	00026810 	andeq	r6, r2, r0, lsl r8
    3174:	0024c200 	eoreq	ip, r4, r0, lsl #4
    3178:	0024c000 	eoreq	ip, r4, r0
    317c:	12000000 	andne	r0, r0, #0, 0
    3180:	0000022c 	andeq	r0, r0, ip, lsr #4
    3184:	00009ae4 	andeq	r9, r0, r4, ror #21
    3188:	0002f001 	andeq	pc, r2, r1
    318c:	15250100 	strne	r0, [r5, #-256]!	; 0xffffff00
    3190:	000001ea 	andeq	r0, r0, sl, ror #3
    3194:	0002f013 	andeq	pc, r2, r3, lsl r0	; <UNPREDICTABLE>
    3198:	024f1000 	subeq	r1, pc, #0, 0
    319c:	24d90000 	ldrbcs	r0, [r9], #0
    31a0:	24d50000 	ldrbcs	r0, [r5], #0
    31a4:	5b100000 	blpl	4031ac <__bss_end__+0x3f800c>
    31a8:	fa000002 	blx	31b8 <__code_start__-0x4e48>
    31ac:	f8000024 			; <UNDEFINED> instruction: 0xf8000024
    31b0:	11000024 	tstne	r0, r4, lsr #32
    31b4:	00000267 	andeq	r0, r0, r7, ror #4
    31b8:	00009ae4 	andeq	r9, r0, r4, ror #21
    31bc:	00000004 	andeq	r0, r0, r4
    31c0:	00026810 	andeq	r6, r2, r0, lsl r8
    31c4:	00250f00 	eoreq	r0, r5, r0, lsl #30
    31c8:	00250d00 	eoreq	r0, r5, r0, lsl #26
    31cc:	00000000 	andeq	r0, r0, r0
    31d0:	0099fc14 	addseq	pc, r9, r4, lsl ip	; <UNPREDICTABLE>
    31d4:	00027600 	andeq	r7, r2, r0, lsl #12
    31d8:	9acc1400 	bls	ff3081e0 <__bss_end__+0xff2fd040>
    31dc:	02830000 	addeq	r0, r3, #0, 0
    31e0:	e4140000 	ldr	r0, [r4], #-0
    31e4:	8f00009a 	svchi	0x0000009a
    31e8:	15000002 	strne	r0, [r0, #-2]
    31ec:	00009b00 	andeq	r9, r0, r0, lsl #22
    31f0:	0000029c 	muleq	r0, ip, r2
    31f4:	0000021c 	andeq	r0, r0, ip, lsl r2
    31f8:	05500116 	ldrbeq	r0, [r0, #-278]	; 0xfffffeea
    31fc:	00ab4403 	adceq	r4, fp, r3, lsl #8
    3200:	04140000 	ldreq	r0, [r4], #-0
    3204:	a800009b 	stmdage	r0, {r0, r1, r3, r4, r7}
    3208:	00000002 	andeq	r0, r0, r2
    320c:	00250407 	eoreq	r0, r5, r7, lsl #8
    3210:	ce170000 	cdpgt	0, 1, cr0, cr7, cr0, {0}
    3214:	01000007 	tsteq	r0, r7
    3218:	002c1104 	eoreq	r1, ip, r4, lsl #2
    321c:	76010000 	strvc	r0, [r1], -r0
    3220:	18000002 	stmdane	r0, {r1}
    3224:	000007d9 	ldrdeq	r0, [r0], -r9
    3228:	2c150501 	cfldr32cs	mvfx0, [r5], {1}
    322c:	05000000 	streq	r0, [r0, #-0]
    3230:	00b19403 	adcseq	r9, r1, r3, lsl #8
    3234:	07d40c00 	ldrbeq	r0, [r4, r0, lsl #24]
    3238:	07010000 	streq	r0, [r1, -r0]
    323c:	00002c0e 	andeq	r2, r0, lr, lsl #24
    3240:	75631900 	strbvc	r1, [r3, #-2304]!	; 0xfffff700
    3244:	09010072 	stmdbeq	r1, {r1, r4, r5, r6}
    3248:	00002c0e 	andeq	r2, r0, lr, lsl #24
    324c:	c90c1a00 	stmdbgt	ip, {r9, fp, ip}
    3250:	01000007 	tsteq	r0, r7
    3254:	002c1409 	eoreq	r1, ip, r9, lsl #8
    3258:	00000000 	andeq	r0, r0, r0
    325c:	0007a61b 	andeq	sl, r7, fp, lsl r6
    3260:	0007a600 	andeq	sl, r7, r0, lsl #12
    3264:	01310200 	teqeq	r1, r0, lsl #4
    3268:	079c1c06 	ldreq	r1, [ip, r6, lsl #24]
    326c:	079c0000 	ldreq	r0, [ip, r0]
    3270:	3b020000 	blcc	83278 <__bss_end__+0x780d8>
    3274:	02021b06 	andeq	r1, r2, #6144	; 0x1800
    3278:	02020000 	andeq	r0, r2, #0, 0
    327c:	05020000 	streq	r0, [r2, #-0]
    3280:	441c0601 	ldrmi	r0, [ip], #-1537	; 0xfffff9ff
    3284:	44000006 	strmi	r0, [r0], #-6
    3288:	02000006 	andeq	r0, r0, #6, 0
    328c:	af1c0628 	svcge	0x001c0628
    3290:	af000000 	svcge	0x00000000
    3294:	02000000 	andeq	r0, r0, #0, 0
    3298:	ce00066e 	cfmadd32gt	mvax3, mvfx0, mvfx0, mvfx14
    329c:	04000000 	streq	r0, [r0], #-0
    32a0:	00120100 	andseq	r0, r2, r0, lsl #2
    32a4:	1c010400 	cfstrsne	mvf0, [r1], {-0}
    32a8:	0c000005 	stceq	0, cr0, [r0], {5}
    32ac:	000007de 	ldrdeq	r0, [r0], -lr
    32b0:	000005e2 	andeq	r0, r0, r2, ror #11
    32b4:	00009b1c 	andeq	r9, r0, ip, lsl fp
    32b8:	00000004 	andeq	r0, r0, r4
    32bc:	00001c64 	andeq	r1, r0, r4, ror #24
    32c0:	69050402 	stmdbvs	r5, {r1, sl}
    32c4:	0300746e 	movweq	r7, #1134	; 0x46e
    32c8:	01d50704 	bicseq	r0, r5, r4, lsl #14
    32cc:	01030000 	mrseq	r0, (UNDEF: 3)
    32d0:	0000cb06 	andeq	ip, r0, r6, lsl #22
    32d4:	05020300 	streq	r0, [r2, #-768]	; 0xfffffd00
    32d8:	00000022 	andeq	r0, r0, r2, lsr #32
    32dc:	57050403 	strpl	r0, [r5, -r3, lsl #8]
    32e0:	03000000 	movweq	r0, #0
    32e4:	00520508 	subseq	r0, r2, r8, lsl #10
    32e8:	01030000 	mrseq	r0, (UNDEF: 3)
    32ec:	0000c908 	andeq	ip, r0, r8, lsl #18
    32f0:	07020300 	streq	r0, [r2, -r0, lsl #6]
    32f4:	0000020a 	andeq	r0, r0, sl, lsl #4
    32f8:	d0070403 	andle	r0, r7, r3, lsl #8
    32fc:	03000001 	movweq	r0, #1
    3300:	01cb0708 	biceq	r0, fp, r8, lsl #14
    3304:	25040000 	strcs	r0, [r4, #-0]
    3308:	7a000000 	bvc	3310 <__code_start__-0x4cf0>
    330c:	05000000 	streq	r0, [r0, #-0]
    3310:	00000025 	andeq	r0, r0, r5, lsr #32
    3314:	002c0600 	eoreq	r0, ip, r0, lsl #12
    3318:	1c020000 	stcne	0, cr0, [r2], {-0}
    331c:	0000860e 	andeq	r8, r0, lr, lsl #12
    3320:	6b040700 	blvs	104f28 <__bss_end__+0xf9d88>
    3324:	04000000 	streq	r0, [r0], #-0
    3328:	00000025 	andeq	r0, r0, r5, lsr #32
    332c:	0000009b 	muleq	r0, fp, r0
    3330:	00009b05 	andeq	r9, r0, r5, lsl #22
    3334:	04070000 	streq	r0, [r7], #-0
    3338:	000000a8 	andeq	r0, r0, r8, lsr #1
    333c:	d2080103 	andle	r0, r8, #-1073741824	; 0xc0000000
    3340:	08000000 	stmdaeq	r0, {}	; <UNPREDICTABLE>
    3344:	000000a1 	andeq	r0, r0, r1, lsr #1
    3348:	00068206 	andeq	r8, r6, r6, lsl #4
    334c:	0e210200 	cdpeq	2, 2, cr0, cr1, cr0, {0}
    3350:	000000b9 	strheq	r0, [r0], -r9
    3354:	008c0407 	addeq	r0, ip, r7, lsl #8
    3358:	a6090000 	strge	r0, [r9], -r0
    335c:	01000007 	tsteq	r0, r7
    3360:	9b1c0604 	blls	704b78 <__bss_end__+0x6f99d8>
    3364:	00040000 	andeq	r0, r4, r0
    3368:	9c010000 	stcls	0, cr0, [r1], {-0}
    336c:	00027d00 	andeq	r7, r2, r0, lsl #26
    3370:	7a000400 	bvc	4378 <__code_start__-0x3c88>
    3374:	04000012 	streq	r0, [r0], #-18	; 0xffffffee
    3378:	00051c01 	andeq	r1, r5, r1, lsl #24
    337c:	08260c00 	stmdaeq	r6!, {sl, fp}
    3380:	05e20000 	strbeq	r0, [r2, #0]!
    3384:	03200000 	nopeq	{0}	; <UNPREDICTABLE>
    3388:	00000000 	andeq	r0, r0, r0
    338c:	1ce50000 	stclne	0, cr0, [r5]
    3390:	04020000 	streq	r0, [r2], #-0
    3394:	746e6905 	strbtvc	r6, [lr], #-2309	; 0xfffff6fb
    3398:	00250300 	eoreq	r0, r5, r0, lsl #6
    339c:	04040000 	streq	r0, [r4], #-0
    33a0:	0001d507 	andeq	sp, r1, r7, lsl #10
    33a4:	06010400 	streq	r0, [r1], -r0, lsl #8
    33a8:	000000cb 	andeq	r0, r0, fp, asr #1
    33ac:	22050204 	andcs	r0, r5, #4, 4	; 0x40000000
    33b0:	04000000 	streq	r0, [r0], #-0
    33b4:	00570504 	subseq	r0, r7, r4, lsl #10
    33b8:	08040000 	stmdaeq	r4, {}	; <UNPREDICTABLE>
    33bc:	00005205 	andeq	r5, r0, r5, lsl #4
    33c0:	08010400 	stmdaeq	r1, {sl}
    33c4:	000000c9 	andeq	r0, r0, r9, asr #1
    33c8:	0a070204 	beq	1c3be0 <__bss_end__+0x1b8a40>
    33cc:	04000002 	streq	r0, [r0], #-2
    33d0:	01d00704 	bicseq	r0, r0, r4, lsl #14
    33d4:	08040000 	stmdaeq	r4, {}	; <UNPREDICTABLE>
    33d8:	0001cb07 	andeq	ip, r1, r7, lsl #22
    33dc:	00250500 	eoreq	r0, r5, r0, lsl #10
    33e0:	007f0000 	rsbseq	r0, pc, r0
    33e4:	25060000 	strcs	r0, [r6, #-0]
    33e8:	00000000 	andeq	r0, r0, r0
    33ec:	00002c07 	andeq	r2, r0, r7, lsl #24
    33f0:	0e1c0200 	cdpeq	2, 1, cr0, cr12, cr0, {0}
    33f4:	0000008b 	andeq	r0, r0, fp, lsl #1
    33f8:	00700408 	rsbseq	r0, r0, r8, lsl #8
    33fc:	25050000 	strcs	r0, [r5, #-0]
    3400:	a0000000 	andge	r0, r0, r0
    3404:	06000000 	streq	r0, [r0], -r0
    3408:	000000a0 	andeq	r0, r0, r0, lsr #1
    340c:	ad040800 	stcge	8, cr0, [r4, #-0]
    3410:	04000000 	streq	r0, [r0], #-0
    3414:	00d20801 	sbcseq	r0, r2, r1, lsl #16
    3418:	a6030000 	strge	r0, [r3], -r0
    341c:	07000000 	streq	r0, [r0, -r0]
    3420:	00000682 	andeq	r0, r0, r2, lsl #13
    3424:	be0e2102 	adflte	f2, f6, f2
    3428:	08000000 	stmdaeq	r0, {}	; <UNPREDICTABLE>
    342c:	00009104 	andeq	r9, r0, r4, lsl #2
    3430:	084a0900 	stmdaeq	sl, {r8, fp}^
    3434:	0d010000 	stceq	0, cr0, [r1, #-0]
    3438:	00003111 	andeq	r3, r0, r1, lsl r1
    343c:	074f0a00 	strbeq	r0, [pc, -r0, lsl #20]
    3440:	1f010000 	svcne	0x00010000
    3444:	009b4c06 	addseq	r4, fp, r6, lsl #24
    3448:	00006000 	andeq	r6, r0, r0
    344c:	d59c0100 	ldrle	r0, [ip, #256]	; 0x100
    3450:	0b000001 	bleq	345c <__code_start__-0x4ba4>
    3454:	0000086e 	andeq	r0, r0, lr, ror #16
    3458:	2c0f2c01 	stccs	12, cr2, [pc], {1}
    345c:	1c000000 	stcne	0, cr0, [r0], {-0}
    3460:	0b201000 	bleq	807468 <__bss_end__+0x7fc2c8>
    3464:	00000809 	andeq	r0, r0, r9, lsl #16
    3468:	2c0f2d01 	stccs	13, cr2, [pc], {1}
    346c:	24000000 	strcs	r0, [r0], #-0
    3470:	0b201000 	bleq	807478 <__bss_end__+0x7fc2d8>
    3474:	0000083b 	andeq	r0, r0, fp, lsr r8
    3478:	2c0f2e01 	stccs	14, cr2, [pc], {1}
    347c:	00000000 	andeq	r0, r0, r0
    3480:	0c5a0000 	mraeq	r0, sl, acc0
    3484:	00000855 	andeq	r0, r0, r5, asr r8
    3488:	2c0f2f01 	stccs	15, cr2, [pc], {1}
    348c:	20000000 	andcs	r0, r0, r0
    3490:	0001ef0d 	andeq	lr, r1, sp, lsl #30
    3494:	009b4c00 	addseq	r4, fp, r0, lsl #24
    3498:	03080200 	movweq	r0, #33280	; 0x8200
    349c:	20010000 	andcs	r0, r1, r0
    34a0:	00014c08 	andeq	r4, r1, r8, lsl #24
    34a4:	03080e00 	movweq	r0, #36352	; 0x8e00
    34a8:	000f0000 	andeq	r0, pc, r0
    34ac:	26000002 	strcs	r0, [r0], -r2
    34b0:	22000025 	andcs	r0, r0, #37, 0	; 0x25
    34b4:	00000025 	andeq	r0, r0, r5, lsr #32
    34b8:	01d51000 	bicseq	r1, r5, r0
    34bc:	9b600000 	blls	18034c4 <__bss_end__+0x17f8324>
    34c0:	60010000 	andvs	r0, r1, r0
    34c4:	1000009b 	mulne	r0, fp, r0
    34c8:	01000000 	mrseq	r0, (UNDEF: 0)
    34cc:	01730921 	cmneq	r3, r1, lsr #18
    34d0:	e20f0000 	and	r0, pc, #0, 0
    34d4:	4d000001 	stcmi	0, cr0, [r0, #-4]
    34d8:	45000025 	strmi	r0, [r0, #-37]	; 0xffffffdb
    34dc:	00000025 	andeq	r0, r0, r5, lsr #32
    34e0:	009b7411 	addseq	r7, fp, r1, lsl r4
    34e4:	00024f00 	andeq	r4, r2, r0, lsl #30
    34e8:	9b781100 	blls	1e078f0 <__bss_end__+0x1dfc750>
    34ec:	025c0000 	subseq	r0, ip, #0, 0
    34f0:	80120000 	andshi	r0, r2, r0
    34f4:	6800009b 	stmdavs	r0, {r0, r1, r3, r4, r7}
    34f8:	98000002 	stmdals	r0, {r1}
    34fc:	13000001 	movwne	r0, #1
    3500:	3a015001 	bcc	5750c <__bss_end__+0x4c36c>
    3504:	9b8c1200 	blls	fe307d0c <__bss_end__+0xfe2fcb6c>
    3508:	02740000 	rsbseq	r0, r4, #0, 0
    350c:	01b80000 			; <UNDEFINED> instruction: 0x01b80000
    3510:	01130000 	tsteq	r3, r0
    3514:	240c0550 	strcs	r0, [ip], #-1360	; 0xfffffab0
    3518:	13201000 	nopne	{0}	; <UNPREDICTABLE>
    351c:	0c055101 	stfeqs	f5, [r5], {1}
    3520:	5a000001 	bpl	352c <__code_start__-0x4ad4>
    3524:	9b981400 	blls	fe60852c <__bss_end__+0xfe5fd38c>
    3528:	02740000 	rsbseq	r0, r4, #0, 0
    352c:	01130000 	tsteq	r3, r0
    3530:	1c0c0550 	cfstr32ne	mvfx0, [ip], {80}	; 0x50
    3534:	13201000 	nopne	{0}	; <UNPREDICTABLE>
    3538:	0c055101 	stfeqs	f5, [r5], {1}
    353c:	5a000020 	bpl	35c4 <__code_start__-0x4a3c>
    3540:	17150000 	ldrne	r0, [r5, -r0]
    3544:	01000008 	tsteq	r0, r8
    3548:	ef010617 	svc	0x00010617
    354c:	09000001 	stmdbeq	r0, {r0}
    3550:	00000876 	andeq	r0, r0, r6, ror r8
    3554:	310e1801 	tstcc	lr, r1, lsl #16
    3558:	00000000 	andeq	r0, r0, r0
    355c:	00084716 	andeq	r4, r8, r6, lsl r7
    3560:	050e0100 	streq	r0, [lr, #-256]	; 0xffffff00
    3564:	00000025 	andeq	r0, r0, r5, lsr #32
    3568:	00020d01 	andeq	r0, r2, r1, lsl #26
    356c:	08760900 	ldmdaeq	r6!, {r8, fp}^
    3570:	0f010000 	svceq	0x00010000
    3574:	0000310e 	andeq	r3, r0, lr, lsl #2
    3578:	ef170000 	svc	0x00170000
    357c:	20000001 	andcs	r0, r0, r1
    3580:	1800009b 	stmdane	r0, {r0, r1, r3, r4, r7}
    3584:	01000000 	mrseq	r0, (UNDEF: 0)
    3588:	00022e9c 	muleq	r2, ip, lr
    358c:	02000f00 	andeq	r0, r0, #0, 30
    3590:	258a0000 	strcs	r0, [sl]
    3594:	25860000 	strcs	r0, [r6]
    3598:	17000000 	strne	r0, [r0, -r0]
    359c:	000001d5 	ldrdeq	r0, [r0], -r5
    35a0:	00009b38 	andeq	r9, r0, r8, lsr fp
    35a4:	00000014 	andeq	r0, r0, r4, lsl r0
    35a8:	024f9c01 	subeq	r9, pc, #256	; 0x100
    35ac:	e20f0000 	and	r0, pc, #0, 0
    35b0:	b1000001 	tstlt	r0, r1
    35b4:	a9000025 	stmdbge	r0, {r0, r2, r5}
    35b8:	00000025 	andeq	r0, r0, r5, lsr #32
    35bc:	0007fa18 	andeq	pc, r7, r8, lsl sl	; <UNPREDICTABLE>
    35c0:	0007fa00 	andeq	pc, r7, r0, lsl #20
    35c4:	01360200 	teqeq	r6, r0, lsl #4
    35c8:	077e1906 	ldrbeq	r1, [lr, -r6, lsl #18]!
    35cc:	077e0000 	ldrbeq	r0, [lr, -r0]!
    35d0:	4d020000 	stcmi	0, cr0, [r2, #-0]
    35d4:	075a1906 	ldrbeq	r1, [sl, -r6, lsl #18]
    35d8:	075a0000 	ldrbeq	r0, [sl, -r0]
    35dc:	58020000 	stmdapl	r2, {}	; <UNPREDICTABLE>
    35e0:	08111906 	ldmdaeq	r1, {r1, r2, r8, fp, ip}
    35e4:	08110000 	ldmdaeq	r1, {}	; <UNPREDICTABLE>
    35e8:	ad020000 	stcge	0, cr0, [r2, #-0]
    35ec:	053f0006 	ldreq	r0, [pc, #-6]!	; 35ee <__code_start__-0x4a12>
    35f0:	00040000 	andeq	r0, r4, r0
    35f4:	000013fd 	strdeq	r1, [r0], -sp
    35f8:	051c0104 	ldreq	r0, [ip, #-260]	; 0xfffffefc
    35fc:	910c0000 	mrsls	r0, (UNDEF: 12)
    3600:	e2000008 	and	r0, r0, #8, 0
    3604:	ac000005 	stcge	0, cr0, [r0], {5}
    3608:	1c00009b 	stcne	0, cr0, [r0], {155}	; 0x9b
    360c:	fd000001 	stc2	0, cr0, [r0, #-4]
    3610:	0200001d 	andeq	r0, r0, #29, 0
    3614:	6e690504 	cdpvs	5, 6, cr0, cr9, cr4, {0}
    3618:	04030074 	streq	r0, [r3], #-116	; 0xffffff8c
    361c:	0001d507 	andeq	sp, r1, r7, lsl #10
    3620:	06010300 	streq	r0, [r1], -r0, lsl #6
    3624:	000000cb 	andeq	r0, r0, fp, asr #1
    3628:	22050203 	andcs	r0, r5, #805306368	; 0x30000000
    362c:	03000000 	movweq	r0, #0
    3630:	00570504 	subseq	r0, r7, r4, lsl #10
    3634:	08030000 	stmdaeq	r3, {}	; <UNPREDICTABLE>
    3638:	00005205 	andeq	r5, r0, r5, lsl #4
    363c:	08010300 	stmdaeq	r1, {r8, r9}
    3640:	000000c9 	andeq	r0, r0, r9, asr #1
    3644:	0a070203 	beq	1c3e58 <__bss_end__+0x1b8cb8>
    3648:	03000002 	movweq	r0, #2
    364c:	01d00704 	bicseq	r0, r0, r4, lsl #14
    3650:	08030000 	stmdaeq	r3, {}	; <UNPREDICTABLE>
    3654:	0001cb07 	andeq	ip, r1, r7, lsl #22
    3658:	00250400 	eoreq	r0, r5, r0, lsl #8
    365c:	007a0000 	rsbseq	r0, sl, r0
    3660:	25050000 	strcs	r0, [r5, #-0]
    3664:	00000000 	andeq	r0, r0, r0
    3668:	00002c06 	andeq	r2, r0, r6, lsl #24
    366c:	0e1c0200 	cdpeq	2, 1, cr0, cr12, cr0, {0}
    3670:	00000086 	andeq	r0, r0, r6, lsl #1
    3674:	006b0407 	rsbeq	r0, fp, r7, lsl #8
    3678:	25040000 	strcs	r0, [r4, #-0]
    367c:	9b000000 	blls	3684 <__code_start__-0x497c>
    3680:	05000000 	streq	r0, [r0, #-0]
    3684:	0000009b 	muleq	r0, fp, r0
    3688:	a8040700 	stmdage	r4, {r8, r9, sl}
    368c:	03000000 	movweq	r0, #0
    3690:	00d20801 	sbcseq	r0, r2, r1, lsl #16
    3694:	a1080000 	mrsge	r0, (UNDEF: 8)
    3698:	06000000 	streq	r0, [r0], -r0
    369c:	00000682 	andeq	r0, r0, r2, lsl #13
    36a0:	b90e2102 	stmdblt	lr, {r1, r8, sp}
    36a4:	07000000 	streq	r0, [r0, -r0]
    36a8:	00008c04 	andeq	r8, r0, r4, lsl #24
    36ac:	08870900 	stmeq	r7, {r8, fp}
    36b0:	1e010000 	cdpne	0, 0, cr0, cr1, cr0, {0}
    36b4:	009c7406 	addseq	r7, ip, r6, lsl #8
    36b8:	00005400 	andeq	r5, r0, r0, lsl #8
    36bc:	0b9c0100 	bleq	fe703ac4 <__bss_end__+0xfe6f8924>
    36c0:	0a000002 	beq	36d0 <__code_start__-0x4930>
    36c4:	00636573 	rsbeq	r6, r3, r3, ror r5
    36c8:	2c191e01 	ldccs	14, cr1, [r9], {1}
    36cc:	ee000000 	cdp	0, 0, cr0, cr0, cr0, {0}
    36d0:	ea000025 	b	376c <__code_start__-0x4894>
    36d4:	0b000025 	bleq	3770 <__code_start__-0x4890>
    36d8:	0000020b 	andeq	r0, r0, fp, lsl #4
    36dc:	00009c74 	andeq	r9, r0, r4, ror ip
    36e0:	0003e802 	andeq	lr, r3, r2, lsl #16
    36e4:	051f0100 	ldreq	r0, [pc, #-256]	; 35ec <__code_start__-0x4a14>
    36e8:	0002180c 	andeq	r1, r2, ip, lsl #16
    36ec:	00261300 	eoreq	r1, r6, r0, lsl #6
    36f0:	00260f00 	eoreq	r0, r6, r0, lsl #30
    36f4:	02240d00 	eoreq	r0, r4, #0, 26
    36f8:	9c880000 	stcls	0, cr0, [r8], {0}
    36fc:	88000000 	stmdahi	r0, {}	; <UNPREDICTABLE>
    3700:	4000009c 	mulmi	r0, ip, r0
    3704:	01000000 	mrseq	r0, (UNDEF: 0)
    3708:	310c051c 	tstcc	ip, ip, lsl r5
    370c:	40000002 	andmi	r0, r0, r2
    3710:	3e000026 	cdpcc	0, 0, cr0, cr0, cr6, {1}
    3714:	0e000026 	cdpeq	0, 0, cr0, cr0, cr6, {1}
    3718:	0000023c 	andeq	r0, r0, ip, lsr r2
    371c:	00002655 	andeq	r2, r0, r5, asr r6
    3720:	00002653 	andeq	r2, r0, r3, asr r6
    3724:	0002550f 	andeq	r5, r2, pc, lsl #10
    3728:	009c8800 	addseq	r8, ip, r0, lsl #16
    372c:	9c880200 	sfmls	f0, 4, [r8], {0}
    3730:	00140000 	andseq	r0, r4, r0
    3734:	13010000 	movwne	r0, #4096	; 0x1000
    3738:	00019c13 	andeq	r9, r1, r3, lsl ip
    373c:	02660e00 	rsbeq	r0, r6, #0, 28
    3740:	266c0000 	strbtcs	r0, [ip], -r0
    3744:	26680000 	strbtcs	r0, [r8], -r0
    3748:	710f0000 	mrsvc	r0, CPSR
    374c:	8c000002 	stchi	0, cr0, [r0], {2}
    3750:	0100009c 	swpeq	r0, ip, [r0]	; <UNPREDICTABLE>
    3754:	00009c8c 	andeq	r9, r0, ip, lsl #25
    3758:	0000000c 	andeq	r0, r0, ip
    375c:	89120d01 	ldmdbhi	r2, {r0, r8, sl, fp}
    3760:	10000001 	andne	r0, r0, r1
    3764:	00009c94 	muleq	r0, r4, ip
    3768:	0000052a 	andeq	r0, r0, sl, lsr #10
    376c:	05500111 	ldrbeq	r0, [r0, #-273]	; 0xfffffeef
    3770:	0030040c 	eorseq	r0, r0, ip, lsl #8
    3774:	12000020 	andne	r0, r0, #32, 0
    3778:	00009c8c 	andeq	r9, r0, ip, lsl #25
    377c:	00000536 	andeq	r0, r0, r6, lsr r5
    3780:	009c9c12 	addseq	r9, ip, r2, lsl ip
    3784:	00053600 	andeq	r3, r5, r0, lsl #12
    3788:	47130000 	ldrmi	r0, [r3, -r0]
    378c:	00000002 	andeq	r0, r0, r2
    3790:	14000004 	strne	r0, [r0], #-4
    3794:	00000248 	andeq	r0, r0, r8, asr #4
    3798:	0002550b 	andeq	r5, r2, fp, lsl #10
    379c:	009ca000 	addseq	sl, ip, r0
    37a0:	04180200 	ldreq	r0, [r8], #-512	; 0xfffffe00
    37a4:	15010000 	strne	r0, [r1, #-0]
    37a8:	04181517 	ldreq	r1, [r8], #-1303	; 0xfffffae9
    37ac:	660e0000 	strvs	r0, [lr], -r0
    37b0:	8c000002 	stchi	0, cr0, [r0], {2}
    37b4:	8a000026 	bhi	3854 <__code_start__-0x47ac>
    37b8:	16000026 	strne	r0, [r0], -r6, lsr #32
    37bc:	00000271 	andeq	r0, r0, r1, ror r2
    37c0:	00009ca4 	andeq	r9, r0, r4, lsr #25
    37c4:	00043801 	andeq	r3, r4, r1, lsl #16
    37c8:	120d0100 	andne	r0, sp, #0
    37cc:	000001f3 	strdeq	r0, [r0], -r3
    37d0:	009cac10 	addseq	sl, ip, r0, lsl ip
    37d4:	00052a00 	andeq	r2, r5, r0, lsl #20
    37d8:	50011100 	andpl	r1, r1, r0, lsl #2
    37dc:	00007702 	andeq	r7, r0, r2, lsl #14
    37e0:	9ca41200 	sfmls	f1, 4, [r4]
    37e4:	05360000 	ldreq	r0, [r6, #-0]!
    37e8:	b8120000 	ldmdalt	r2, {}	; <UNPREDICTABLE>
    37ec:	3600009c 			; <UNDEFINED> instruction: 0x3600009c
    37f0:	00000005 	andeq	r0, r0, r5
    37f4:	00000000 	andeq	r0, r0, r0
    37f8:	075a1700 	ldrbeq	r1, [sl, -r0, lsl #14]
    37fc:	1b010000 	blne	43804 <__bss_end__+0x38664>
    3800:	02240106 	eoreq	r0, r4, #-2147483647	; 0x80000001
    3804:	6d180000 	ldcvs	0, cr0, [r8, #-0]
    3808:	1b010073 	blne	439dc <__bss_end__+0x3883c>
    380c:	00002c18 	andeq	r2, r0, r8, lsl ip
    3810:	ba170000 	blt	5c3818 <__bss_end__+0x5b8678>
    3814:	01000008 	tsteq	r0, r8
    3818:	55010612 	strpl	r0, [r1, #-1554]	; 0xfffff9ee
    381c:	18000002 	stmdane	r0, {r1}
    3820:	01007375 	tsteq	r0, r5, ror r3
    3824:	002c1812 	eoreq	r1, ip, r2, lsl r8
    3828:	72190000 	andsvc	r0, r9, #0, 0
    382c:	13010062 	movwne	r0, #4194	; 0x1062
    3830:	00002c0e 	andeq	r2, r0, lr, lsl #24
    3834:	72191a00 	andsvc	r1, r9, #0, 20
    3838:	15010061 	strne	r0, [r1, #-97]	; 0xffffff9f
    383c:	00002c12 	andeq	r2, r0, r2, lsl ip
    3840:	1b000000 	blne	3848 <__code_start__-0x47b8>
    3844:	000008ab 	andeq	r0, r0, fp, lsr #17
    3848:	2c0a0901 			; <UNDEFINED> instruction: 0x2c0a0901
    384c:	01000000 	mrseq	r0, (UNDEF: 0)
    3850:	00000271 	andeq	r0, r0, r1, ror r2
    3854:	01007519 	tsteq	r0, r9, lsl r5
    3858:	002c0e0d 	eoreq	r0, ip, sp, lsl #28
    385c:	1c000000 	stcne	0, cr0, [r0], {-0}
    3860:	000008c3 	andeq	r0, r0, r3, asr #17
    3864:	2c0a0401 	cfstrscs	mvf0, [sl], {1}
    3868:	01000000 	mrseq	r0, (UNDEF: 0)
    386c:	0002711d 	andeq	r7, r2, sp, lsl r1
    3870:	009bac00 	addseq	sl, fp, r0, lsl #24
    3874:	00000c00 	andeq	r0, r0, r0, lsl #24
    3878:	a59c0100 	ldrge	r0, [ip, #256]	; 0x100
    387c:	1e000002 	cdpne	0, 0, cr0, cr0, cr2, {0}
    3880:	00009bb4 			; <UNDEFINED> instruction: 0x00009bb4
    3884:	0000052a 	andeq	r0, r0, sl, lsr #10
    3888:	05500111 	ldrbeq	r0, [r0, #-273]	; 0xfffffeef
    388c:	0030040c 	eorseq	r0, r0, ip, lsl #8
    3890:	1d000020 	stcne	0, cr0, [r0, #-128]	; 0xffffff80
    3894:	00000255 	andeq	r0, r0, r5, asr r2
    3898:	00009bb8 			; <UNDEFINED> instruction: 0x00009bb8
    389c:	00000024 	andeq	r0, r0, r4, lsr #32
    38a0:	03059c01 	movweq	r9, #23553	; 0x5c01
    38a4:	660e0000 	strvs	r0, [lr], -r0
    38a8:	a3000002 	movwge	r0, #2
    38ac:	9f000026 	svcls	0x00000026
    38b0:	0f000026 	svceq	0x00000026
    38b4:	00000271 	andeq	r0, r0, r1, ror r2
    38b8:	00009bc0 	andeq	r9, r0, r0, asr #23
    38bc:	009bc001 	addseq	ip, fp, r1
    38c0:	00000c00 	andeq	r0, r0, r0, lsl #24
    38c4:	120d0100 	andne	r0, sp, #0
    38c8:	000002f2 	strdeq	r0, [r0], -r2
    38cc:	009bc810 	addseq	ip, fp, r0, lsl r8
    38d0:	00052a00 	andeq	r2, r5, r0, lsl #20
    38d4:	50011100 	andpl	r1, r1, r0, lsl #2
    38d8:	30040c05 	andcc	r0, r4, r5, lsl #24
    38dc:	00002000 	andeq	r2, r0, r0
    38e0:	009bc012 	addseq	ip, fp, r2, lsl r0
    38e4:	00053600 	andeq	r3, r5, r0, lsl #12
    38e8:	9bd01200 	blls	ff4080f0 <__bss_end__+0xff3fcf50>
    38ec:	05360000 	ldreq	r0, [r6, #-0]!
    38f0:	1d000000 	stcne	0, cr0, [r0, #-0]
    38f4:	00000224 	andeq	r0, r0, r4, lsr #4
    38f8:	00009bdc 	ldrdeq	r9, [r0], -ip
    38fc:	00000048 	andeq	r0, r0, r8, asr #32
    3900:	04079c01 	streq	r9, [r7], #-3073	; 0xfffff3ff
    3904:	310c0000 	mrscc	r0, (UNDEF: 12)
    3908:	c5000002 	strgt	r0, [r0, #-2]
    390c:	c1000026 	tstgt	r0, r6, lsr #32
    3910:	0e000026 	cdpeq	0, 0, cr0, cr0, cr6, {1}
    3914:	0000023c 	andeq	r0, r0, ip, lsr r2
    3918:	000026e5 	andeq	r2, r0, r5, ror #13
    391c:	000026e3 	andeq	r2, r0, r3, ror #13
    3920:	00025516 	andeq	r5, r2, r6, lsl r5
    3924:	009bdc00 	addseq	sp, fp, r0, lsl #24
    3928:	03300200 	teqeq	r0, #0, 4
    392c:	13010000 	movwne	r0, #4096	; 0x1000
    3930:	00039a13 	andeq	r9, r3, r3, lsl sl
    3934:	03301500 	teqeq	r0, #0, 10
    3938:	660e0000 	strvs	r0, [lr], -r0
    393c:	fc000002 	stc2	0, cr0, [r0], {2}
    3940:	f8000026 			; <UNDEFINED> instruction: 0xf8000026
    3944:	0f000026 	svceq	0x00000026
    3948:	00000271 	andeq	r0, r0, r1, ror r2
    394c:	00009be8 	andeq	r9, r0, r8, ror #23
    3950:	009be801 	addseq	lr, fp, r1, lsl #16
    3954:	00000c00 	andeq	r0, r0, r0, lsl #24
    3958:	120d0100 	andne	r0, sp, #0
    395c:	00000386 	andeq	r0, r0, r6, lsl #7
    3960:	009bf010 	addseq	pc, fp, r0, lsl r0	; <UNPREDICTABLE>
    3964:	00052a00 	andeq	r2, r5, r0, lsl #20
    3968:	50011100 	andpl	r1, r1, r0, lsl #2
    396c:	30040c05 	andcc	r0, r4, r5, lsl #24
    3970:	00002000 	andeq	r2, r0, r0
    3974:	009be812 	addseq	lr, fp, r2, lsl r8
    3978:	00053600 	andeq	r3, r5, r0, lsl #12
    397c:	9bf81200 	blls	ffe08184 <__bss_end__+0xffdfcfe4>
    3980:	05360000 	ldreq	r0, [r6, #-0]!
    3984:	00000000 	andeq	r0, r0, r0
    3988:	00024713 	andeq	r4, r2, r3, lsl r7
    398c:	00034800 	andeq	r4, r3, r0, lsl #16
    3990:	02481400 	subeq	r1, r8, #0, 8
    3994:	550b0000 	strpl	r0, [fp, #-0]
    3998:	fc000002 	stc2	0, cr0, [r0], {2}
    399c:	0200009b 	andeq	r0, r0, #155, 0	; 0x9b
    39a0:	00000360 	andeq	r0, r0, r0, ror #6
    39a4:	15171501 	ldrne	r1, [r7, #-1281]	; 0xfffffaff
    39a8:	00000360 	andeq	r0, r0, r0, ror #6
    39ac:	0002660e 	andeq	r6, r2, lr, lsl #12
    39b0:	00271c00 	eoreq	r1, r7, r0, lsl #24
    39b4:	00271a00 	eoreq	r1, r7, r0, lsl #20
    39b8:	02711600 	rsbseq	r1, r1, #0, 12
    39bc:	9c000000 	stcls	0, cr0, [r0], {-0}
    39c0:	80010000 	andhi	r0, r1, r0
    39c4:	01000003 	tsteq	r0, r3
    39c8:	03f1120d 	mvnseq	r1, #-805306368	; 0xd0000000
    39cc:	08100000 	ldmdaeq	r0, {}	; <UNPREDICTABLE>
    39d0:	2a00009c 	bcs	3c48 <__code_start__-0x43b8>
    39d4:	11000005 	tstne	r0, r5
    39d8:	77025001 	strvc	r5, [r2, -r1]
    39dc:	12000000 	andne	r0, r0, #0, 0
    39e0:	00009c00 	andeq	r9, r0, r0, lsl #24
    39e4:	00000536 	andeq	r0, r0, r6, lsr r5
    39e8:	009c1412 	addseq	r1, ip, r2, lsl r4
    39ec:	00053600 	andeq	r3, r5, r0, lsl #12
    39f0:	00000000 	andeq	r0, r0, r0
    39f4:	020b1d00 	andeq	r1, fp, #0, 26
    39f8:	9c240000 	stcls	0, cr0, [r4], #-0
    39fc:	00500000 	subseq	r0, r0, r0
    3a00:	9c010000 	stcls	0, cr0, [r1], {-0}
    3a04:	0000052a 	andeq	r0, r0, sl, lsr #10
    3a08:	0002180c 	andeq	r1, r2, ip, lsl #16
    3a0c:	00273300 	eoreq	r3, r7, r0, lsl #6
    3a10:	00272f00 	eoreq	r2, r7, r0, lsl #30
    3a14:	02240d00 	eoreq	r0, r4, #0, 26
    3a18:	9c340000 	ldcls	0, cr0, [r4], #-0
    3a1c:	34000000 	strcc	r0, [r0], #-0
    3a20:	4000009c 	mulmi	r0, ip, r0
    3a24:	01000000 	mrseq	r0, (UNDEF: 0)
    3a28:	310c051c 	tstcc	ip, ip, lsl r5
    3a2c:	56000002 	strpl	r0, [r0], -r2
    3a30:	54000027 	strpl	r0, [r0], #-39	; 0xffffffd9
    3a34:	0e000027 	cdpeq	0, 0, cr0, cr0, cr7, {1}
    3a38:	0000023c 	andeq	r0, r0, ip, lsr r2
    3a3c:	0000276b 	andeq	r2, r0, fp, ror #14
    3a40:	00002769 	andeq	r2, r0, r9, ror #14
    3a44:	0002550f 	andeq	r5, r2, pc, lsl #10
    3a48:	009c3400 	addseq	r3, ip, r0, lsl #8
    3a4c:	9c340200 	lfmls	f0, 4, [r4], #-0
    3a50:	00140000 	andseq	r0, r4, r0
    3a54:	13010000 	movwne	r0, #4096	; 0x1000
    3a58:	0004bc13 	andeq	fp, r4, r3, lsl ip
    3a5c:	02660e00 	rsbeq	r0, r6, #0, 28
    3a60:	27820000 	strcs	r0, [r2, r0]
    3a64:	277e0000 	ldrbcs	r0, [lr, -r0]!
    3a68:	710f0000 	mrsvc	r0, CPSR
    3a6c:	38000002 	stmdacc	r0, {r1}
    3a70:	0100009c 	swpeq	r0, ip, [r0]	; <UNPREDICTABLE>
    3a74:	00009c38 	andeq	r9, r0, r8, lsr ip
    3a78:	0000000c 	andeq	r0, r0, ip
    3a7c:	a9120d01 	ldmdbge	r2, {r0, r8, sl, fp}
    3a80:	10000004 	andne	r0, r0, r4
    3a84:	00009c40 	andeq	r9, r0, r0, asr #24
    3a88:	0000052a 	andeq	r0, r0, sl, lsr #10
    3a8c:	05500111 	ldrbeq	r0, [r0, #-273]	; 0xfffffeef
    3a90:	0030040c 	eorseq	r0, r0, ip, lsl #8
    3a94:	12000020 	andne	r0, r0, #32, 0
    3a98:	00009c38 	andeq	r9, r0, r8, lsr ip
    3a9c:	00000536 	andeq	r0, r0, r6, lsr r5
    3aa0:	009c4812 	addseq	r4, ip, r2, lsl r8
    3aa4:	00053600 	andeq	r3, r5, r0, lsl #12
    3aa8:	47130000 	ldrmi	r0, [r3, -r0]
    3aac:	98000002 	stmdals	r0, {r1}
    3ab0:	14000003 	strne	r0, [r0], #-3
    3ab4:	00000248 	andeq	r0, r0, r8, asr #4
    3ab8:	0002550b 	andeq	r5, r2, fp, lsl #10
    3abc:	009c4c00 	addseq	r4, ip, r0, lsl #24
    3ac0:	03b00200 	movseq	r0, #0, 4
    3ac4:	15010000 	strne	r0, [r1, #-0]
    3ac8:	03b01517 	movseq	r1, #96468992	; 0x5c00000
    3acc:	660e0000 	strvs	r0, [lr], -r0
    3ad0:	a2000002 	andge	r0, r0, #2, 0
    3ad4:	a0000027 	andge	r0, r0, r7, lsr #32
    3ad8:	16000027 	strne	r0, [r0], -r7, lsr #32
    3adc:	00000271 	andeq	r0, r0, r1, ror r2
    3ae0:	00009c50 	andeq	r9, r0, r0, asr ip
    3ae4:	0003d001 	andeq	sp, r3, r1
    3ae8:	120d0100 	andne	r0, sp, #0
    3aec:	00000513 	andeq	r0, r0, r3, lsl r5
    3af0:	009c5810 	addseq	r5, ip, r0, lsl r8
    3af4:	00052a00 	andeq	r2, r5, r0, lsl #20
    3af8:	50011100 	andpl	r1, r1, r0, lsl #2
    3afc:	00007702 	andeq	r7, r0, r2, lsl #14
    3b00:	9c501200 	lfmls	f1, 2, [r0], {-0}
    3b04:	05360000 	ldreq	r0, [r6, #-0]!
    3b08:	64120000 	ldrvs	r0, [r2], #-0
    3b0c:	3600009c 			; <UNDEFINED> instruction: 0x3600009c
    3b10:	00000005 	andeq	r0, r0, r5
    3b14:	00000000 	andeq	r0, r0, r0
    3b18:	0008a51f 	andeq	sl, r8, pc, lsl r5
    3b1c:	0008a500 	andeq	sl, r8, r0, lsl #10
    3b20:	0ac20200 	beq	ff084328 <__bss_end__+0xff079188>
    3b24:	00087b1f 	andeq	r7, r8, pc, lsl fp
    3b28:	00087b00 	andeq	r7, r8, r0, lsl #22
    3b2c:	069c0200 	ldreq	r0, [ip], r0, lsl #4
    3b30:	0005cd00 	andeq	ip, r5, r0, lsl #26
    3b34:	cc000400 	cfstrsgt	mvf0, [r0], {-0}
    3b38:	04000015 	streq	r0, [r0], #-21	; 0xffffffeb
    3b3c:	0009d601 	andeq	sp, r9, r1, lsl #12
    3b40:	09150c00 	ldmdbeq	r5, {sl, fp}
    3b44:	09860000 	stmibeq	r6, {}	; <UNPREDICTABLE>
    3b48:	9cc80000 	stclls	0, cr0, [r8], {0}
    3b4c:	01f00000 	mvnseq	r0, r0
    3b50:	1ffb0000 	svcne	0x00fb0000
    3b54:	04020000 	streq	r0, [r2], #-0
    3b58:	746e6905 	strbtvc	r6, [lr], #-2309	; 0xfffff6fb
    3b5c:	07040300 	streq	r0, [r4, -r0, lsl #6]
    3b60:	000001d5 	ldrdeq	r0, [r0], -r5
    3b64:	00002c04 	andeq	r2, r0, r4, lsl #24
    3b68:	06010300 	streq	r0, [r1], -r0, lsl #6
    3b6c:	000000cb 	andeq	r0, r0, fp, asr #1
    3b70:	22050203 	andcs	r0, r5, #805306368	; 0x30000000
    3b74:	03000000 	movweq	r0, #0
    3b78:	00570504 	subseq	r0, r7, r4, lsl #10
    3b7c:	08030000 	stmdaeq	r3, {}	; <UNPREDICTABLE>
    3b80:	00005205 	andeq	r5, r0, r5, lsl #4
    3b84:	08010300 	stmdaeq	r1, {r8, r9}
    3b88:	000000c9 	andeq	r0, r0, r9, asr #1
    3b8c:	0a070203 	beq	1c43a0 <__bss_end__+0x1b9200>
    3b90:	05000002 	streq	r0, [r0, #-2]
    3b94:	000001e2 	andeq	r0, r0, r2, ror #3
    3b98:	6e193405 	cfmulsvs	mvf3, mvf9, mvf5
    3b9c:	03000000 	movweq	r0, #0
    3ba0:	01d00704 	bicseq	r0, r0, r4, lsl #14
    3ba4:	08030000 	stmdaeq	r3, {}	; <UNPREDICTABLE>
    3ba8:	0001cb07 	andeq	ip, r1, r7, lsl #22
    3bac:	08010300 	stmdaeq	r1, {r8, r9}
    3bb0:	000000d2 	ldrdeq	r0, [r0], -r2
    3bb4:	54010706 	strpl	r0, [r1], #-1798	; 0xfffff8fa
    3bb8:	04000000 	streq	r0, [r0], #-0
    3bbc:	00c20e0c 	sbceq	r0, r2, ip, lsl #28
    3bc0:	c0070000 	andgt	r0, r7, r0
    3bc4:	0000000a 	andeq	r0, r0, sl
    3bc8:	0008f807 	andeq	pc, r8, r7, lsl #16
    3bcc:	3b070100 	blcc	1c3fd4 <__bss_end__+0x1b8e34>
    3bd0:	04000009 	streq	r0, [r0], #-9
    3bd4:	00094a07 	andeq	r4, r9, r7, lsl #20
    3bd8:	59070500 	stmdbpl	r7, {r8, sl}
    3bdc:	06000009 	streq	r0, [r0], -r9
    3be0:	00096807 	andeq	r6, r9, r7, lsl #16
    3be4:	89070700 	stmdbhi	r7, {r8, r9, sl}
    3be8:	0300000a 	movweq	r0, #10
    3bec:	00097707 	andeq	r7, r9, r7, lsl #14
    3bf0:	08000200 	stmdaeq	r0, {r9}
    3bf4:	00000909 	andeq	r0, r0, r9, lsl #18
    3bf8:	0806022c 	stmdaeq	r6, {r2, r3, r5, r9}
    3bfc:	0000015e 	andeq	r0, r0, lr, asr r1
    3c00:	006f6909 	rsbeq	r6, pc, r9, lsl #18
    3c04:	33090902 	movwcc	r0, #39170	; 0x9902
    3c08:	00000000 	andeq	r0, r0, r0
    3c0c:	72656909 	rsbvc	r6, r5, #147456	; 0x24000
    3c10:	090a0200 	stmdbeq	sl, {r9}
    3c14:	00000033 	andeq	r0, r0, r3, lsr r0
    3c18:	69690904 	stmdbvs	r9!, {r2, r8, fp}^
    3c1c:	11020072 	tstne	r2, r2, ror r0
    3c20:	00003309 	andeq	r3, r0, r9, lsl #6
    3c24:	6c090800 	stcvs	8, cr0, [r9], {-0}
    3c28:	02007263 	andeq	r7, r0, #805306374	; 0x30000006
    3c2c:	00330913 	eorseq	r0, r3, r3, lsl r9
    3c30:	090c0000 	stmdbeq	ip, {}	; <UNPREDICTABLE>
    3c34:	0072636d 	rsbseq	r6, r2, sp, ror #6
    3c38:	33091402 	movwcc	r1, #37890	; 0x9402
    3c3c:	10000000 	andne	r0, r0, r0
    3c40:	72736c09 	rsbsvc	r6, r3, #2304	; 0x900
    3c44:	09150200 	ldmdbeq	r5, {r9}
    3c48:	00000033 	andeq	r0, r0, r3, lsr r0
    3c4c:	736d0914 	cmnvc	sp, #20, 18	; 0x50000
    3c50:	16020072 			; <UNDEFINED> instruction: 0x16020072
    3c54:	00003309 	andeq	r3, r0, r9, lsl #6
    3c58:	a00a1800 	andge	r1, sl, r0, lsl #16
    3c5c:	0200000a 	andeq	r0, r0, #10, 0
    3c60:	00330917 	eorseq	r0, r3, r7, lsl r9
    3c64:	0a1c0000 	beq	703c6c <__bss_end__+0x6f8acc>
    3c68:	00000a69 	andeq	r0, r0, r9, ror #20
    3c6c:	33091b02 	movwcc	r1, #39682	; 0x9b02
    3c70:	20000000 	andcs	r0, r0, r0
    3c74:	0008e50a 	andeq	lr, r8, sl, lsl #10
    3c78:	091d0200 	ldmdbeq	sp, {r9}
    3c7c:	00000033 	andeq	r0, r0, r3, lsr r0
    3c80:	09bb0a24 	ldmibeq	fp!, {r2, r5, r9, fp}
    3c84:	1e020000 	cdpne	0, 0, cr0, cr2, cr0, {0}
    3c88:	00003309 	andeq	r3, r0, r9, lsl #6
    3c8c:	0b002800 	bleq	dc94 <__bss_end__+0x2af4>
    3c90:	000009c0 	andeq	r0, r0, r0, asr #19
    3c94:	74090801 	strvc	r0, [r9], #-2049	; 0xfffff7ff
    3c98:	04000001 	streq	r0, [r0], #-1
    3c9c:	0c202150 	stfeqs	f2, [r0], #-320	; 0xfffffec0
    3ca0:	00003304 	andeq	r3, r0, r4, lsl #6
    3ca4:	016e0d00 	cmneq	lr, r0, lsl #26
    3ca8:	a80b0000 	stmdage	fp, {}	; <UNPREDICTABLE>
    3cac:	0100000a 	tsteq	r0, sl
    3cb0:	018f2329 	orreq	r2, pc, r9, lsr #6
    3cb4:	50400000 	subpl	r0, r0, r0
    3cb8:	040c2021 	streq	r2, [ip], #-33	; 0xffffffdf
    3cbc:	000000c2 	andeq	r0, r0, r2, asr #1
    3cc0:	0001890d 	andeq	r8, r1, sp, lsl #18
    3cc4:	077e0e00 	ldrbeq	r0, [lr, -r0, lsl #28]!
    3cc8:	cc010000 	stcgt	0, cr0, [r1], {-0}
    3ccc:	009e8006 	addseq	r8, lr, r6
    3cd0:	00001400 	andeq	r1, r0, r0, lsl #8
    3cd4:	b49c0100 	ldrlt	r0, [ip], #256	; 0x100
    3cd8:	0f000001 	svceq	0x00000001
    3cdc:	00009e88 	andeq	r9, r0, r8, lsl #29
    3ce0:	000001b4 			; <UNDEFINED> instruction: 0x000001b4
    3ce4:	092a1000 	stmdbeq	sl!, {ip}
    3ce8:	b6010000 	strlt	r0, [r1], -r0
    3cec:	00002505 	andeq	r2, r0, r5, lsl #10
    3cf0:	009e6000 	addseq	r6, lr, r0
    3cf4:	00002000 	andeq	r2, r0, r0
    3cf8:	eb9c0100 	bl	fe704100 <__bss_end__+0xfe6f8f60>
    3cfc:	0f000001 	svceq	0x00000001
    3d00:	00009e68 	andeq	r9, r0, r8, ror #28
    3d04:	000005a0 	andeq	r0, r0, r0, lsr #11
    3d08:	009e7011 	addseq	r7, lr, r1, lsl r0
    3d0c:	0005ac00 	andeq	sl, r5, r0, lsl #24
    3d10:	50011200 	andpl	r1, r1, r0, lsl #4
    3d14:	50640c05 	rsbpl	r0, r4, r5, lsl #24
    3d18:	00002021 	andeq	r2, r0, r1, lsr #32
    3d1c:	000a7b10 	andeq	r7, sl, r0, lsl fp
    3d20:	05b30100 	ldreq	r0, [r3, #256]!	; 0x100
    3d24:	00000025 	andeq	r0, r0, r5, lsr #32
    3d28:	00009e50 	andeq	r9, r0, r0, asr lr
    3d2c:	00000010 	andeq	r0, r0, r0, lsl r0
    3d30:	02189c01 	andseq	r9, r8, #256	; 0x100
    3d34:	580f0000 	stmdapl	pc, {}	; <UNPREDICTABLE>
    3d38:	a000009e 	mulge	r0, lr, r0
    3d3c:	0f000005 	svceq	0x00000005
    3d40:	00009e5c 	andeq	r9, r0, ip, asr lr
    3d44:	00000309 	andeq	r0, r0, r9, lsl #6
    3d48:	0ab60e00 	beq	fed87550 <__bss_end__+0xfed7c3b0>
    3d4c:	ab010000 	blge	43d54 <__bss_end__+0x38bb4>
    3d50:	009e2006 	addseq	r2, lr, r6
    3d54:	00003000 	andeq	r3, r0, r0
    3d58:	7c9c0100 	ldfvcs	f0, [ip], {0}
    3d5c:	13000002 	movwne	r0, #2
    3d60:	ab010063 	blge	43ef4 <__bss_end__+0x38d54>
    3d64:	00002c19 	andeq	r2, r0, r9, lsl ip
    3d68:	0027b900 	eoreq	fp, r7, r0, lsl #18
    3d6c:	0027b500 	eoreq	fp, r7, r0, lsl #10
    3d70:	9e2c0f00 	cdpls	15, 2, cr0, cr12, cr0, {0}
    3d74:	05a00000 	streq	r0, [r0, #0]!
    3d78:	300f0000 	andcc	r0, pc, r0
    3d7c:	db00009e 	blle	3ffc <__code_start__-0x4004>
    3d80:	14000002 	strne	r0, [r0], #-2
    3d84:	00009e44 	andeq	r9, r0, r4, asr #28
    3d88:	000005b8 			; <UNDEFINED> instruction: 0x000005b8
    3d8c:	00000272 	andeq	r0, r0, r2, ror r2
    3d90:	05500112 	ldrbeq	r0, [r0, #-274]	; 0xfffffeee
    3d94:	2150400c 	cmpcs	r0, ip
    3d98:	51011220 	tstpl	r1, r0, lsr #4
    3d9c:	08007405 	stmdaeq	r0, {r0, r2, sl, ip, sp, lr}
    3da0:	0f001aff 	svceq	0x00001aff
    3da4:	00009e48 	andeq	r9, r0, r8, asr #28
    3da8:	000005a0 	andeq	r0, r0, r0, lsr #11
    3dac:	09cc1000 	stmibeq	ip, {ip}^
    3db0:	a3010000 	movwge	r0, #4096	; 0x1000
    3db4:	00002505 	andeq	r2, r0, r5, lsl #10
    3db8:	009df000 	addseq	pc, sp, r0
    3dbc:	00003000 	andeq	r3, r0, r0
    3dc0:	db9c0100 	blle	fe7041c8 <__bss_end__+0xfe6f9028>
    3dc4:	15000002 	strne	r0, [r0, #-2]
    3dc8:	a7010063 	strge	r0, [r1, -r3, rrx]
    3dcc:	00002509 	andeq	r2, r0, r9, lsl #10
    3dd0:	0027d900 	eoreq	sp, r7, r0, lsl #18
    3dd4:	0027d700 	eoreq	sp, r7, r0, lsl #14
    3dd8:	9df80f00 	ldclls	15, cr0, [r8]
    3ddc:	05a00000 	streq	r0, [r0, #0]!
    3de0:	fc0f0000 	stc2	0, cr0, [pc], {-0}
    3de4:	0900009d 	stmdbeq	r0, {r0, r2, r3, r4, r7}
    3de8:	14000003 	strne	r0, [r0], #-3
    3dec:	00009e0c 	andeq	r9, r0, ip, lsl #28
    3df0:	000005ac 	andeq	r0, r0, ip, lsr #11
    3df4:	000002d1 	ldrdeq	r0, [r0], -r1
    3df8:	05500112 	ldrbeq	r0, [r0, #-274]	; 0xfffffeee
    3dfc:	2150400c 	cmpcs	r0, ip
    3e00:	140f0020 	strne	r0, [pc], #-32	; 3e08 <__code_start__-0x41f8>
    3e04:	a000009e 	mulge	r0, lr, r0
    3e08:	00000005 	andeq	r0, r0, r5
    3e0c:	00091c10 	andeq	r1, r9, r0, lsl ip
    3e10:	05940100 	ldreq	r0, [r4, #256]	; 0x100
    3e14:	00000025 	andeq	r0, r0, r5, lsr #32
    3e18:	00009dd0 	ldrdeq	r9, [r0], -r0
    3e1c:	00000020 	andeq	r0, r0, r0, lsr #32
    3e20:	03099c01 	movweq	r9, #39937	; 0x9c01
    3e24:	dc110000 	ldcle	0, cr0, [r1], {-0}
    3e28:	ac00009d 	stcge	0, cr0, [r0], {157}	; 0x9d
    3e2c:	12000005 	andne	r0, r0, #5, 0
    3e30:	0c055001 	stceq	0, cr5, [r5], {1}
    3e34:	20215064 	eorcs	r5, r1, r4, rrx
    3e38:	ea100000 	b	403e40 <__bss_end__+0x3f8ca0>
    3e3c:	01000008 	tsteq	r0, r8
    3e40:	0025058b 	eoreq	r0, r5, fp, lsl #11
    3e44:	9db80000 	ldcls	0, cr0, [r8]
    3e48:	00180000 	andseq	r0, r8, r0
    3e4c:	9c010000 	stcls	0, cr0, [r1], {-0}
    3e50:	00000337 	andeq	r0, r0, r7, lsr r3
    3e54:	009dc411 	addseq	ip, sp, r1, lsl r4
    3e58:	0005ac00 	andeq	sl, r5, r0, lsl #24
    3e5c:	50011200 	andpl	r1, r1, r0, lsl #4
    3e60:	50640c05 	rsbpl	r0, r4, r5, lsl #24
    3e64:	00002021 	andeq	r2, r0, r1, lsr #32
    3e68:	00079c0e 	andeq	r9, r7, lr, lsl #24
    3e6c:	06450100 	strbeq	r0, [r5], -r0, lsl #2
    3e70:	00009d08 	andeq	r9, r0, r8, lsl #26
    3e74:	000000b0 	strheq	r0, [r0], -r0	; <UNPREDICTABLE>
    3e78:	04849c01 	streq	r9, [r4], #3073	; 0xc01
    3e7c:	dc160000 	ldcle	0, cr0, [r6], {-0}
    3e80:	01000008 	tsteq	r0, r8
    3e84:	00620e7e 	rsbeq	r0, r2, lr, ror lr
    3e88:	010e0000 	mrseq	r0, (UNDEF: 14)
    3e8c:	009d1814 	addseq	r1, sp, r4, lsl r8
    3e90:	0005c400 	andeq	ip, r5, r0, lsl #8
    3e94:	00037300 	andeq	r7, r3, r0, lsl #6
    3e98:	50011200 	andpl	r1, r1, r0, lsl #4
    3e9c:	01123e01 	tsteq	r2, r1, lsl #28
    3ea0:	00320151 	eorseq	r0, r2, r1, asr r1
    3ea4:	009d2414 	addseq	r2, sp, r4, lsl r4
    3ea8:	0005c400 	andeq	ip, r5, r0, lsl #8
    3eac:	00038b00 	andeq	r8, r3, r0, lsl #22
    3eb0:	50011200 	andpl	r1, r1, r0, lsl #4
    3eb4:	01123f01 	tsteq	r2, r1, lsl #30
    3eb8:	00320151 	eorseq	r0, r2, r1, asr r1
    3ebc:	009d280f 	addseq	r2, sp, pc, lsl #16
    3ec0:	0005a000 	andeq	sl, r5, r0
    3ec4:	9d341400 	cfldrsls	mvf1, [r4, #-0]
    3ec8:	053d0000 	ldreq	r0, [sp, #-0]!
    3ecc:	03b00000 	movseq	r0, #0, 0
    3ed0:	01120000 	tsteq	r2, r0
    3ed4:	040c0550 	streq	r0, [ip], #-1360	; 0xfffffab0
    3ed8:	12202150 	eorne	r2, r0, #20
    3edc:	31015101 	tstcc	r1, r1, lsl #2
    3ee0:	9d380f00 	ldcls	15, cr0, [r8, #-0]
    3ee4:	05a00000 	streq	r0, [r0, #0]!
    3ee8:	48140000 	ldmdami	r4, {}	; <UNPREDICTABLE>
    3eec:	b800009d 	stmdalt	r0, {r0, r2, r3, r4, r7}
    3ef0:	d2000005 	andle	r0, r0, #5, 0
    3ef4:	12000003 	andne	r0, r0, #3, 0
    3ef8:	74025001 	strvc	r5, [r2], #-1
    3efc:	51011200 	mrspl	r1, R9_usr
    3f00:	14003001 	strne	r3, [r0], #-1
    3f04:	00009d54 	andeq	r9, r0, r4, asr sp
    3f08:	000005b8 			; <UNDEFINED> instruction: 0x000005b8
    3f0c:	000003ee 	andeq	r0, r0, lr, ror #7
    3f10:	05500112 	ldrbeq	r0, [r0, #-274]	; 0xfffffeee
    3f14:	2150440c 	cmpcs	r0, ip, lsl #8
    3f18:	51011220 	tstpl	r1, r0, lsr #4
    3f1c:	14003001 	strne	r3, [r0], #-1
    3f20:	00009d60 	andeq	r9, r0, r0, ror #26
    3f24:	000005b8 			; <UNDEFINED> instruction: 0x000005b8
    3f28:	0000040a 	andeq	r0, r0, sl, lsl #8
    3f2c:	05500112 	ldrbeq	r0, [r0, #-274]	; 0xfffffeee
    3f30:	21504c0c 	cmpcs	r0, ip, lsl #24
    3f34:	51011220 	tstpl	r1, r0, lsr #4
    3f38:	14003301 	strne	r3, [r0], #-769	; 0xfffffcff
    3f3c:	00009d6c 	andeq	r9, r0, ip, ror #26
    3f40:	000005b8 			; <UNDEFINED> instruction: 0x000005b8
    3f44:	00000426 	andeq	r0, r0, r6, lsr #8
    3f48:	05500112 	ldrbeq	r0, [r0, #-274]	; 0xfffffeee
    3f4c:	2150500c 	cmpcs	r0, ip
    3f50:	51011220 	tstpl	r1, r0, lsr #4
    3f54:	14003001 	strne	r3, [r0], #-1
    3f58:	00009d78 	andeq	r9, r0, r8, ror sp
    3f5c:	000005b8 			; <UNDEFINED> instruction: 0x000005b8
    3f60:	00000443 	andeq	r0, r0, r3, asr #8
    3f64:	05500112 	ldrbeq	r0, [r0, #-274]	; 0xfffffeee
    3f68:	2150480c 	cmpcs	r0, ip, lsl #16
    3f6c:	51011220 	tstpl	r1, r0, lsr #4
    3f70:	00c70802 	sbceq	r0, r7, r2, lsl #16
    3f74:	009d8414 	addseq	r8, sp, r4, lsl r4
    3f78:	0005b800 	andeq	fp, r5, r0, lsl #16
    3f7c:	00046100 	andeq	r6, r4, r0, lsl #2
    3f80:	50011200 	andpl	r1, r1, r0, lsl #4
    3f84:	50680c05 	rsbpl	r0, r8, r5, lsl #24
    3f88:	01122021 	tsteq	r2, r1, lsr #32
    3f8c:	0e0a0351 	mcreq	3, 0, r0, cr10, cr1, {2}
    3f90:	90140001 	andsls	r0, r4, r1
    3f94:	b800009d 	stmdalt	r0, {r0, r2, r3, r4, r7}
    3f98:	7a000005 	bvc	3fb4 <__code_start__-0x404c>
    3f9c:	12000004 	andne	r0, r0, #4, 0
    3fa0:	74025001 	strvc	r5, [r2], #-1
    3fa4:	51011200 	mrspl	r1, R9_usr
    3fa8:	0f003301 	svceq	0x00003301
    3fac:	00009d94 	muleq	r0, r4, sp
    3fb0:	000005a0 	andeq	r0, r0, r0, lsr #11
    3fb4:	0a6e0e00 	beq	1b877bc <__bss_end__+0x1b7c61c>
    3fb8:	35010000 	strcc	r0, [r1, #-0]
    3fbc:	009e9406 	addseq	r9, lr, r6, lsl #8
    3fc0:	00002400 	andeq	r2, r0, r0, lsl #8
    3fc4:	d39c0100 	orrsle	r0, ip, #0
    3fc8:	0f000004 	svceq	0x00000004
    3fcc:	00009e9c 	muleq	r0, ip, lr
    3fd0:	00000194 	muleq	r0, r4, r1
    3fd4:	009ea00f 	addseq	sl, lr, pc
    3fd8:	0005a000 	andeq	sl, r5, r0
    3fdc:	9eac1400 	cdpls	4, 10, cr1, cr12, cr0, {0}
    3fe0:	04d30000 	ldrbeq	r0, [r3], #0
    3fe4:	04c90000 	strbeq	r0, [r9], #0
    3fe8:	01120000 	tsteq	r2, r0
    3fec:	040c0550 	streq	r0, [ip], #-1360	; 0xfffffab0
    3ff0:	12202150 	eorne	r2, r0, #20
    3ff4:	09025101 	stmdbeq	r2, {r0, r8, ip, lr}
    3ff8:	b00f00fe 	strdlt	r0, [pc], -lr
    3ffc:	a000009e 	mulge	r0, lr, r0
    4000:	00000005 	andeq	r0, r0, r5
    4004:	000aad17 	andeq	sl, sl, r7, lsl sp
    4008:	0d310100 	ldfeqs	f0, [r1, #-0]
    400c:	00009cc8 	andeq	r9, r0, r8, asr #25
    4010:	00000020 	andeq	r0, r0, r0, lsr #32
    4014:	05369c01 	ldreq	r9, [r6, #-3073]!	; 0xfffff3ff
    4018:	dd180000 	ldcle	0, cr0, [r8, #-0]
    401c:	01000005 	tsteq	r0, r5
    4020:	05362531 	ldreq	r2, [r6, #-1329]!	; 0xfffffacf
    4024:	27f00000 	ldrbcs	r0, [r0, r0]!
    4028:	27ec0000 	strbcs	r0, [ip, r0]!
    402c:	76130000 	ldrvc	r0, [r3], -r0
    4030:	01006c61 	tsteq	r0, r1, ror #24
    4034:	002c3431 	eoreq	r3, ip, r1, lsr r4
    4038:	28120000 	ldmdacs	r2, {}	; <UNPREDICTABLE>
    403c:	280e0000 	stmdacs	lr, {}	; <UNPREDICTABLE>
    4040:	d8140000 	ldmdale	r4, {}	; <UNPREDICTABLE>
    4044:	ac00009c 	stcge	0, cr0, [r0], {156}	; 0x9c
    4048:	25000005 	strcs	r0, [r0, #-5]
    404c:	12000005 	andne	r0, r0, #5, 0
    4050:	74025001 	strvc	r5, [r2], #-1
    4054:	e4110000 	ldr	r0, [r1], #-0
    4058:	b800009c 	stmdalt	r0, {r2, r3, r4, r7}
    405c:	12000005 	andne	r0, r0, #5, 0
    4060:	74025001 	strvc	r5, [r2], #-1
    4064:	0c000000 	stceq	0, cr0, [r0], {-0}
    4068:	00053c04 	andeq	r3, r5, r4, lsl #24
    406c:	98171900 	ldmdals	r7, {r8, fp, ip}
    4070:	0100000a 	tsteq	r0, sl
    4074:	9ce80d2e 	stclls	13, cr0, [r8], #184	; 0xb8
    4078:	00200000 	eoreq	r0, r0, r0
    407c:	9c010000 	stcls	0, cr0, [r1], {-0}
    4080:	000005a0 	andeq	r0, r0, r0, lsr #11
    4084:	0005dd18 	andeq	sp, r5, r8, lsl sp
    4088:	242e0100 	strtcs	r0, [lr], #-256	; 0xffffff00
    408c:	00000536 	andeq	r0, r0, r6, lsr r5
    4090:	00002834 	andeq	r2, r0, r4, lsr r8
    4094:	00002830 	andeq	r2, r0, r0, lsr r8
    4098:	6c617613 	stclvs	6, cr7, [r1], #-76	; 0xffffffb4
    409c:	332e0100 			; <UNDEFINED> instruction: 0x332e0100
    40a0:	0000002c 	andeq	r0, r0, ip, lsr #32
    40a4:	00002856 	andeq	r2, r0, r6, asr r8
    40a8:	00002852 	andeq	r2, r0, r2, asr r8
    40ac:	009cf814 	addseq	pc, ip, r4, lsl r8	; <UNPREDICTABLE>
    40b0:	0005ac00 	andeq	sl, r5, r0, lsl #24
    40b4:	00058f00 	andeq	r8, r5, r0, lsl #30
    40b8:	50011200 	andpl	r1, r1, r0, lsl #4
    40bc:	00007402 	andeq	r7, r0, r2, lsl #8
    40c0:	009d0411 	addseq	r0, sp, r1, lsl r4
    40c4:	0005b800 	andeq	fp, r5, r0, lsl #16
    40c8:	50011200 	andpl	r1, r1, r0, lsl #4
    40cc:	00007402 	andeq	r7, r0, r2, lsl #8
    40d0:	087b1a00 	ldmdaeq	fp!, {r9, fp, ip}^
    40d4:	087b0000 	ldmdaeq	fp!, {}^	; <UNPREDICTABLE>
    40d8:	9c030000 	stcls	0, cr0, [r3], {-0}
    40dc:	0ae21a06 	beq	ff88a8fc <__bss_end__+0xff87f75c>
    40e0:	0ae20000 	beq	ff8840e8 <__bss_end__+0xff878f48>
    40e4:	c3030000 	movwgt	r0, #12288	; 0x3000
    40e8:	08d61a0b 	ldmeq	r6, {r0, r1, r3, r9, fp, ip}^
    40ec:	08d60000 	ldmeq	r6, {}^	; <UNPREDICTABLE>
    40f0:	ae030000 	cdpge	0, 0, cr0, cr3, cr0, {0}
    40f4:	0ad01a06 	beq	ff40a914 <__bss_end__+0xff3ff774>
    40f8:	0ad00000 	beq	ff404100 <__bss_end__+0xff3f8f60>
    40fc:	19040000 	stmdbne	r4, {}	; <UNPREDICTABLE>
    4100:	08e90006 	stmiaeq	r9!, {r1, r2}^
    4104:	00040000 	andeq	r0, r4, r0
    4108:	00001764 	andeq	r1, r0, r4, ror #14
    410c:	09d60104 	ldmibeq	r6, {r2, r8}^
    4110:	6c0c0000 	stcvs	0, cr0, [ip], {-0}
    4114:	8600000b 	strhi	r0, [r0], -fp
    4118:	b8000009 	stmdalt	r0, {r0, r3}
    411c:	b000009e 	mullt	r0, lr, r0
    4120:	03000003 	movweq	r0, #3
    4124:	02000022 	andeq	r0, r0, #34, 0	; 0x22
    4128:	6e690504 	cdpvs	5, 6, cr0, cr9, cr4, {0}
    412c:	04030074 	streq	r0, [r3], #-116	; 0xffffff8c
    4130:	0001d507 	andeq	sp, r1, r7, lsl #10
    4134:	06010300 	streq	r0, [r1], -r0, lsl #6
    4138:	000000cb 	andeq	r0, r0, fp, asr #1
    413c:	22050203 	andcs	r0, r5, #805306368	; 0x30000000
    4140:	03000000 	movweq	r0, #0
    4144:	00570504 	subseq	r0, r7, r4, lsl #10
    4148:	08030000 	stmdaeq	r3, {}	; <UNPREDICTABLE>
    414c:	00005205 	andeq	r5, r0, r5, lsl #4
    4150:	08010300 	stmdaeq	r1, {r8, r9}
    4154:	000000c9 	andeq	r0, r0, r9, asr #1
    4158:	0a070203 	beq	1c496c <__bss_end__+0x1b97cc>
    415c:	04000002 	streq	r0, [r0], #-2
    4160:	000001e2 	andeq	r0, r0, r2, ror #3
    4164:	69193403 	ldmdbvs	r9, {r0, r1, sl, ip, sp}
    4168:	03000000 	movweq	r0, #0
    416c:	01d00704 	bicseq	r0, r0, r4, lsl #14
    4170:	08030000 	stmdaeq	r3, {}	; <UNPREDICTABLE>
    4174:	0001cb07 	andeq	ip, r1, r7, lsl #22
    4178:	08010300 	stmdaeq	r1, {r8, r9}
    417c:	000000d2 	ldrdeq	r0, [r0], -r2
    4180:	00007705 	andeq	r7, r0, r5, lsl #14
    4184:	04080300 	streq	r0, [r8], #-768	; 0xfffffd00
    4188:	000003b0 			; <UNDEFINED> instruction: 0x000003b0
    418c:	07070406 	streq	r0, [r7, -r6, lsl #8]
    4190:	00002c04 	andeq	r2, r0, r4, lsl #24
    4194:	061f0100 	ldreq	r0, [pc], -r0, lsl #2
    4198:	000000a4 	andeq	r0, r0, r4, lsr #1
    419c:	000b0608 	andeq	r0, fp, r8, lsl #12
    41a0:	20000000 	andcs	r0, r0, r0
    41a4:	fb090000 	blx	2441ae <__bss_end__+0x23900e>
    41a8:	01000002 	tsteq	r0, r2
    41ac:	00770d22 	rsbseq	r0, r7, r2, lsr #26
    41b0:	850a0000 	strhi	r0, [sl, #-0]
    41b4:	01000004 	tsteq	r0, r4
    41b8:	00c20e23 	sbceq	r0, r2, r3, lsr #28
    41bc:	03050000 	movweq	r0, #20480	; 0x5000
    41c0:	0000ad60 	andeq	sl, r0, r0, ror #26
    41c4:	0077040b 	rsbseq	r0, r7, fp, lsl #8
    41c8:	f00a0000 			; <UNDEFINED> instruction: 0xf00a0000
    41cc:	0100000a 	tsteq	r0, sl
    41d0:	00c20e24 	sbceq	r0, r2, r4, lsr #28
    41d4:	03050000 	movweq	r0, #20480	; 0x5000
    41d8:	0000ad64 	andeq	sl, r0, r4, ror #26
    41dc:	000b4b0a 	andeq	r4, fp, sl, lsl #22
    41e0:	0e250100 	sufeqs	f0, f5, f0
    41e4:	000000c2 	andeq	r0, r0, r2, asr #1
    41e8:	ad680305 	stclge	3, cr0, [r8, #-20]!	; 0xffffffec
    41ec:	210c0000 	mrscs	r0, (UNDEF: 12)
    41f0:	0100000b 	tsteq	r0, fp
    41f4:	a2080675 	andge	r0, r8, #122683392	; 0x7500000
    41f8:	00600000 	rsbeq	r0, r0, r0
    41fc:	9c010000 	stcls	0, cr0, [r1], {-0}
    4200:	00000164 	andeq	r0, r0, r4, ror #2
    4204:	0100700d 	tsteq	r0, sp
    4208:	008a1675 	addeq	r1, sl, r5, ror r6
    420c:	287a0000 	ldmdacs	sl!, {}^	; <UNPREDICTABLE>
    4210:	28740000 	ldmdacs	r4!, {}^	; <UNPREDICTABLE>
    4214:	980e0000 	stmdals	lr, {}	; <UNPREDICTABLE>
    4218:	74000000 	strvc	r0, [r0], #-0
    421c:	05000001 	streq	r0, [r0, #-1]
    4220:	00ad5003 	adceq	r5, sp, r3
    4224:	a2540f00 	subsge	r0, r4, #0, 30
    4228:	08bc0000 	ldmeq	ip!, {}	; <UNPREDICTABLE>
    422c:	015a0000 	cmpeq	sl, r0
    4230:	01100000 	tsteq	r0, r0
    4234:	c8030550 	stmdagt	r3, {r4, r6, r8, sl}
    4238:	100000ac 	andne	r0, r0, ip, lsr #1
    423c:	03055101 	movweq	r5, #20737	; 0x5101
    4240:	0000ab60 	andeq	sl, r0, r0, ror #22
    4244:	05520110 	ldrbeq	r0, [r2, #-272]	; 0xfffffef0
    4248:	00ad5003 	adceq	r5, sp, r3
    424c:	53011000 	movwpl	r1, #4096	; 0x1000
    4250:	10770802 	rsbsne	r0, r7, r2, lsl #16
    4254:	03007d02 	movweq	r7, #3330	; 0xd02
    4258:	005001f3 	ldrsheq	r0, [r0], #-19	; 0xffffffed
    425c:	00a25811 	adceq	r5, r2, r1, lsl r8
    4260:	0008c800 	andeq	ip, r8, r0, lsl #16
    4264:	7e120000 	cdpvc	0, 1, cr0, cr2, cr0, {0}
    4268:	74000000 	strvc	r0, [r0], #-0
    426c:	13000001 	movwne	r0, #1
    4270:	0000002c 	andeq	r0, r0, ip, lsr #32
    4274:	64050009 	strvs	r0, [r5], #-9
    4278:	14000001 	strne	r0, [r0], #-1
    427c:	00000b0f 	andeq	r0, r0, pc, lsl #22
    4280:	f4067201 	vst1.8	{d7-d10}, [r6], r1
    4284:	140000a1 	strne	r0, [r0], #-161	; 0xffffff5f
    4288:	01000000 	mrseq	r0, (UNDEF: 0)
    428c:	02d00c9c 	sbcseq	r0, r0, #156, 24	; 0x9c00
    4290:	6f010000 	svcvs	0x00010000
    4294:	00a1f006 	adceq	pc, r1, r6
    4298:	00000400 	andeq	r0, r0, r0, lsl #8
    429c:	ae9c0100 	fmlgee	f0, f4, f0
    42a0:	15000001 	strne	r0, [r0, #-1]
    42a4:	6f010070 	svcvs	0x00010070
    42a8:	00008a12 	andeq	r8, r0, r2, lsl sl
    42ac:	00500100 	subseq	r0, r0, r0, lsl #2
    42b0:	000bae16 	andeq	sl, fp, r6, lsl lr
    42b4:	075e0100 	ldrbeq	r0, [lr, -r0, lsl #2]
    42b8:	0000008a 	andeq	r0, r0, sl, lsl #1
    42bc:	0000a0d8 	ldrdeq	sl, [r0], -r8
    42c0:	00000118 	andeq	r0, r0, r8, lsl r1
    42c4:	042c9c01 	strteq	r9, [ip], #-3073	; 0xfffff3ff
    42c8:	6b170000 	blvs	5c42d0 <__bss_end__+0x5b9130>
    42cc:	01000003 	tsteq	r0, r3
    42d0:	002c205e 	eoreq	r2, ip, lr, asr r0
    42d4:	28bb0000 	ldmcs	fp!, {}	; <UNPREDICTABLE>
    42d8:	28a70000 	stmiacs	r7!, {}	; <UNPREDICTABLE>
    42dc:	2b170000 	blcs	5c42e4 <__bss_end__+0x5b9144>
    42e0:	0100000b 	tsteq	r0, fp
    42e4:	002c315e 	eoreq	r3, ip, lr, asr r1
    42e8:	29540000 	ldmdbcs	r4, {}^	; <UNPREDICTABLE>
    42ec:	29400000 	stmdbcs	r0, {}^	; <UNPREDICTABLE>
    42f0:	980e0000 	stmdals	lr, {}	; <UNPREDICTABLE>
    42f4:	3c000000 	stccc	0, cr0, [r0], {-0}
    42f8:	05000004 	streq	r0, [r0, #-4]
    42fc:	00ad3803 	adceq	r3, sp, r3, lsl #16
    4300:	00681800 	rsbeq	r1, r8, r0, lsl #16
    4304:	2c0e6601 	stccs	6, cr6, [lr], {1}
    4308:	0a000000 	beq	4310 <__code_start__-0x3cf0>
    430c:	fe00002a 	cdp2	0, 0, cr0, cr0, cr10, {1}
    4310:	19000029 	stmdbne	r0, {r0, r3, r5}
    4314:	00000854 	andeq	r0, r0, r4, asr r8
    4318:	0000a0e8 	andeq	sl, r0, r8, ror #1
    431c:	00a0e804 	adceq	lr, r0, r4, lsl #16
    4320:	00000400 	andeq	r0, r0, r0, lsl #8
    4324:	05600100 	strbeq	r0, [r0, #-256]!	; 0xffffff00
    4328:	00000238 	andeq	r0, r0, r8, lsr r2
    432c:	0008651a 	andeq	r6, r8, sl, lsl r5
    4330:	002a5e00 	eoreq	r5, sl, r0, lsl #28
    4334:	002a5c00 	eoreq	r5, sl, r0, lsl #24
    4338:	96190000 	ldrls	r0, [r9], -r0
    433c:	f4000008 	vst4.8	{d0-d3}, [r0], r8
    4340:	020000a0 	andeq	r0, r0, #160, 0	; 0xa0
    4344:	0000a0f4 	strdeq	sl, [r0], -r4
    4348:	00000008 	andeq	r0, r0, r8
    434c:	6c116101 	ldfvss	f6, [r1], {1}
    4350:	1a000002 	bne	4360 <__code_start__-0x3ca0>
    4354:	000008b1 			; <UNDEFINED> instruction: 0x000008b1
    4358:	00002a73 	andeq	r2, r0, r3, ror sl
    435c:	00002a71 	andeq	r2, r0, r1, ror sl
    4360:	0008a71a 	andeq	sl, r8, sl, lsl r7
    4364:	002a8900 	eoreq	r8, sl, r0, lsl #18
    4368:	002a8700 	eoreq	r8, sl, r0, lsl #14
    436c:	1f1b0000 	svcne	0x001b0000
    4370:	04000008 	streq	r0, [r0], #-8
    4374:	010000a1 	smlatbeq	r0, r1, r0, r0
    4378:	00000468 	andeq	r0, r0, r8, ror #8
    437c:	0a096701 	beq	25df88 <__bss_end__+0x252de8>
    4380:	1a000003 	bne	4394 <__code_start__-0x3c6c>
    4384:	0000083a 	andeq	r0, r0, sl, lsr r8
    4388:	00002aa2 	andeq	r2, r0, r2, lsr #21
    438c:	00002a9c 	muleq	r0, ip, sl
    4390:	0008301a 	andeq	r3, r8, sl, lsl r0
    4394:	002ae900 	eoreq	lr, sl, r0, lsl #18
    4398:	002ae100 	eoreq	lr, sl, r0, lsl #2
    439c:	04681c00 	strbteq	r1, [r8], #-3072	; 0xfffff400
    43a0:	54190000 	ldrpl	r0, [r9], #-0
    43a4:	04000008 	streq	r0, [r0], #-8
    43a8:	040000a1 	streq	r0, [r0], #-161	; 0xffffff5f
    43ac:	0000a104 	andeq	sl, r0, r4, lsl #2
    43b0:	00000004 	andeq	r0, r0, r4
    43b4:	c7051101 	strgt	r1, [r5, -r1, lsl #2]
    43b8:	1a000002 	bne	43c8 <__code_start__-0x3c38>
    43bc:	00000865 	andeq	r0, r0, r5, ror #16
    43c0:	00002b27 	andeq	r2, r0, r7, lsr #22
    43c4:	00002b25 	andeq	r2, r0, r5, lsr #22
    43c8:	a19c0f00 	orrsge	r0, ip, r0, lsl #30
    43cc:	08bc0000 	ldmeq	ip!, {}	; <UNPREDICTABLE>
    43d0:	02ff0000 	rscseq	r0, pc, #0, 0
    43d4:	01100000 	tsteq	r0, r0
    43d8:	30030550 	andcc	r0, r3, r0, asr r5
    43dc:	100000a5 	andne	r0, r0, r5, lsr #1
    43e0:	03055101 	movweq	r5, #20737	; 0x5101
    43e4:	0000ab60 	andeq	sl, r0, r0, ror #22
    43e8:	05520110 	ldrbeq	r0, [r2, #-272]	; 0xfffffef0
    43ec:	00ad4803 	adceq	r4, sp, r3, lsl #16
    43f0:	53011000 	movwpl	r1, #4096	; 0x1000
    43f4:	02104101 	andseq	r4, r0, #1073741824	; 0x40000000
    43f8:	0305007d 	movweq	r0, #20605	; 0x507d
    43fc:	0000ac74 	andeq	sl, r0, r4, ror ip
    4400:	a1a01100 	lslge	r1, r0, #2
    4404:	08c80000 	stmiaeq	r8, {}^	; <UNPREDICTABLE>
    4408:	00000000 	andeq	r0, r0, r0
    440c:	00087019 	andeq	r7, r8, r9, lsl r0
    4410:	00a11c00 	adceq	r1, r1, r0, lsl #24
    4414:	a11c0300 	tstge	ip, r0, lsl #6
    4418:	00040000 	andeq	r0, r4, r0
    441c:	68010000 	stmdavs	r1, {}	; <UNPREDICTABLE>
    4420:	00033e05 	andeq	r3, r3, r5, lsl #28
    4424:	088b1a00 	stmeq	fp, {r9, fp, ip}
    4428:	2b3c0000 	blcs	f04430 <__bss_end__+0xef9290>
    442c:	2b3a0000 	blcs	e84434 <__bss_end__+0xe79294>
    4430:	811a0000 	tsthi	sl, r0
    4434:	51000008 	tstpl	r0, r8
    4438:	4f00002b 	svcmi	0x0000002b
    443c:	0000002b 	andeq	r0, r0, fp, lsr #32
    4440:	00a1340f 	adceq	r3, r1, pc, lsl #8
    4444:	00044100 	andeq	r4, r4, r0, lsl #2
    4448:	00035300 	andeq	r5, r3, r0, lsl #6
    444c:	50011000 	andpl	r1, r1, r0
    4450:	5001f303 	andpl	pc, r1, r3, lsl #6
    4454:	a1580f00 	cmpge	r8, r0, lsl #30
    4458:	08bc0000 	ldmeq	ip!, {}	; <UNPREDICTABLE>
    445c:	038c0000 	orreq	r0, ip, #0, 0
    4460:	01100000 	tsteq	r0, r0
    4464:	30030550 	andcc	r0, r3, r0, asr r5
    4468:	100000a5 	andne	r0, r0, r5, lsr #1
    446c:	03055101 	movweq	r5, #20737	; 0x5101
    4470:	0000ab60 	andeq	sl, r0, r0, ror #22
    4474:	05520110 	ldrbeq	r0, [r2, #-272]	; 0xfffffef0
    4478:	00ad3803 	adceq	r3, sp, r3, lsl #16
    447c:	53011000 	movwpl	r1, #4096	; 0x1000
    4480:	105f0802 	subsne	r0, pc, r2, lsl #16
    4484:	05007d02 	streq	r7, [r0, #-3330]	; 0xfffff2fe
    4488:	00ab7003 	adceq	r7, fp, r3
    448c:	5c110000 	ldcpl	0, cr0, [r1], {-0}
    4490:	c80000a1 	stmdagt	r0, {r0, r5, r7}
    4494:	11000008 	tstne	r0, r8
    4498:	0000a160 	andeq	sl, r0, r0, ror #2
    449c:	000008d4 	ldrdeq	r0, [r0], -r4
    44a0:	00a17c0f 	adceq	r7, r1, pc, lsl #24
    44a4:	0008bc00 	andeq	fp, r8, r0, lsl #24
    44a8:	0003d700 	andeq	sp, r3, r0, lsl #14
    44ac:	50011000 	andpl	r1, r1, r0
    44b0:	ac2c0305 	stcge	3, cr0, [ip], #-20	; 0xffffffec
    44b4:	01100000 	tsteq	r0, r0
    44b8:	60030551 	andvs	r0, r3, r1, asr r5
    44bc:	100000ab 	andne	r0, r0, fp, lsr #1
    44c0:	03055201 	movweq	r5, #20993	; 0x5201
    44c4:	0000ad38 	andeq	sl, r0, r8, lsr sp
    44c8:	02530110 	subseq	r0, r3, #4
    44cc:	02106008 	andseq	r6, r0, #8, 0
    44d0:	0305007d 	movweq	r0, #20605	; 0x507d
    44d4:	0000ac60 	andeq	sl, r0, r0, ror #24
    44d8:	a1801100 	orrge	r1, r0, r0, lsl #2
    44dc:	08c80000 	stmiaeq	r8, {}^	; <UNPREDICTABLE>
    44e0:	a4110000 	ldrge	r0, [r1], #-0
    44e4:	d40000a1 	strle	r0, [r0], #-161	; 0xffffff5f
    44e8:	0f000008 	svceq	0x00000008
    44ec:	0000a1c0 	andeq	sl, r0, r0, asr #3
    44f0:	000008bc 			; <UNDEFINED> instruction: 0x000008bc
    44f4:	00000422 	andeq	r0, r0, r2, lsr #8
    44f8:	05500110 	ldrbeq	r0, [r0, #-272]	; 0xfffffef0
    44fc:	00ac8003 	adceq	r8, ip, r3
    4500:	51011000 	mrspl	r1, (UNDEF: 1)
    4504:	ab600305 	blge	1805120 <__bss_end__+0x17f9f80>
    4508:	01100000 	tsteq	r0, r0
    450c:	38030552 	stmdacc	r3, {r1, r4, r6, r8, sl}
    4510:	100000ad 	andne	r0, r0, sp, lsr #1
    4514:	08025301 	stmdaeq	r2, {r0, r8, r9, ip, lr}
    4518:	7d021068 	stcvc	0, cr1, [r2, #-416]	; 0xfffffe60
    451c:	ac030500 	cfstr32ge	mvfx0, [r3], {-0}
    4520:	000000ac 	andeq	r0, r0, ip, lsr #1
    4524:	00a1c411 	adceq	ip, r1, r1, lsl r4
    4528:	0008c800 	andeq	ip, r8, r0, lsl #16
    452c:	7e120000 	cdpvc	0, 1, cr0, cr2, cr0, {0}
    4530:	3c000000 	stccc	0, cr0, [r0], {-0}
    4534:	13000004 	movwne	r0, #4
    4538:	0000002c 	andeq	r0, r0, ip, lsr #32
    453c:	2c05000f 	stccs	0, cr0, [r5], {15}
    4540:	16000004 	strne	r0, [r0], -r4
    4544:	000004b6 			; <UNDEFINED> instruction: 0x000004b6
    4548:	8a075301 	bhi	1d9154 <__bss_end__+0x1cdfb4>
    454c:	74000000 	strvc	r0, [r0], #-0
    4550:	640000a0 	strvs	r0, [r0], #-160	; 0xffffff60
    4554:	01000000 	mrseq	r0, (UNDEF: 0)
    4558:	0005089c 	muleq	r5, ip, r8
    455c:	036b1700 	cmneq	fp, #0, 14
    4560:	53010000 	movwpl	r0, #4096	; 0x1000
    4564:	00002c18 	andeq	r2, r0, r8, lsl ip
    4568:	002b6c00 	eoreq	r6, fp, r0, lsl #24
    456c:	002b6400 	eoreq	r6, fp, r0, lsl #8
    4570:	00980e00 	addseq	r0, r8, r0, lsl #28
    4574:	05180000 	ldreq	r0, [r8, #-0]
    4578:	03050000 	movweq	r0, #20480	; 0x5000
    457c:	0000ad30 	andeq	sl, r0, r0, lsr sp
    4580:	0005dd1d 	andeq	sp, r5, sp, lsl sp
    4584:	0b550100 	bleq	154498c <__bss_end__+0x15397ec>
    4588:	0000008a 	andeq	r0, r0, sl, lsl #1
    458c:	00002ba4 	andeq	r2, r0, r4, lsr #23
    4590:	00002ba0 	andeq	r2, r0, r0, lsr #23
    4594:	00a08c0f 	adceq	r8, r0, pc, lsl #24
    4598:	00051d00 	andeq	r1, r5, r0, lsl #26
    459c:	0004a600 	andeq	sl, r4, r0, lsl #12
    45a0:	50011000 	andpl	r1, r1, r0
    45a4:	00007402 	andeq	r7, r0, r2, lsl #8
    45a8:	00a09c0f 	adceq	r9, r0, pc, lsl #24
    45ac:	0008e000 	andeq	lr, r8, r0
    45b0:	0004c500 	andeq	ip, r4, r0, lsl #10
    45b4:	50011000 	andpl	r1, r1, r0
    45b8:	10007502 	andne	r7, r0, r2, lsl #10
    45bc:	30015101 	andcc	r5, r1, r1, lsl #2
    45c0:	02520110 	subseq	r0, r2, #4
    45c4:	0f000074 	svceq	0x00000074
    45c8:	0000a0c4 	andeq	sl, r0, r4, asr #1
    45cc:	000008bc 			; <UNDEFINED> instruction: 0x000008bc
    45d0:	000004fe 	strdeq	r0, [r0], -lr
    45d4:	05500110 	ldrbeq	r0, [r0, #-272]	; 0xfffffef0
    45d8:	00a53003 	adceq	r3, r5, r3
    45dc:	51011000 	mrspl	r1, (UNDEF: 1)
    45e0:	ab600305 	blge	18051fc <__bss_end__+0x17fa05c>
    45e4:	01100000 	tsteq	r0, r0
    45e8:	30030552 	andcc	r0, r3, r2, asr r5
    45ec:	100000ad 	andne	r0, r0, sp, lsr #1
    45f0:	08025301 	stmdaeq	r2, {r0, r8, r9, ip, lr}
    45f4:	7d021054 	stcvc	0, cr1, [r2, #-336]	; 0xfffffeb0
    45f8:	70030500 	andvc	r0, r3, r0, lsl #10
    45fc:	000000ab 	andeq	r0, r0, fp, lsr #1
    4600:	00a0c811 	adceq	ip, r0, r1, lsl r8
    4604:	0008c800 	andeq	ip, r8, r0, lsl #16
    4608:	7e120000 	cdpvc	0, 1, cr0, cr2, cr0, {0}
    460c:	18000000 	stmdane	r0, {}	; <UNPREDICTABLE>
    4610:	13000005 	movwne	r0, #5
    4614:	0000002c 	andeq	r0, r0, ip, lsr #32
    4618:	08050007 	stmdaeq	r5, {r0, r1, r2}
    461c:	16000005 	strne	r0, [r0], -r5
    4620:	00000b54 	andeq	r0, r0, r4, asr fp
    4624:	8a074701 	bhi	1d6230 <__bss_end__+0x1cb090>
    4628:	dc000000 	stcle	0, cr0, [r0], {-0}
    462c:	9800009f 	stmdals	r0, {r0, r1, r2, r3, r4, r7}
    4630:	01000000 	mrseq	r0, (UNDEF: 0)
    4634:	00062b9c 	muleq	r6, ip, fp
    4638:	036b1700 	cmneq	fp, #0, 14
    463c:	47010000 	strmi	r0, [r1, -r0]
    4640:	00002c20 	andeq	r2, r0, r0, lsr #24
    4644:	002bd200 	eoreq	sp, fp, r0, lsl #4
    4648:	002bc200 	eoreq	ip, fp, r0, lsl #4
    464c:	00980e00 	addseq	r0, r8, r0, lsl #28
    4650:	043c0000 	ldrteq	r0, [ip], #-0
    4654:	03050000 	movweq	r0, #20480	; 0x5000
    4658:	0000ad20 	andeq	sl, r0, r0, lsr #26
    465c:	0005dd1d 	andeq	sp, r5, sp, lsl sp
    4660:	0b4b0100 	bleq	12c4a68 <__bss_end__+0x12b98c8>
    4664:	0000008a 	andeq	r0, r0, sl, lsl #1
    4668:	00002c44 	andeq	r2, r0, r4, asr #24
    466c:	00002c40 	andeq	r2, r0, r0, asr #24
    4670:	00081f1b 	andeq	r1, r8, fp, lsl pc
    4674:	009fec00 	addseq	lr, pc, r0, lsl #24
    4678:	04500300 	ldrbeq	r0, [r0], #-768	; 0xfffffd00
    467c:	49010000 	stmdbmi	r1, {}	; <UNPREDICTABLE>
    4680:	0005a30e 	andeq	sl, r5, lr, lsl #6
    4684:	083a1a00 	ldmdaeq	sl!, {r9, fp, ip}
    4688:	2c640000 	stclcs	0, cr0, [r4], #-0
    468c:	2c620000 	stclcs	0, cr0, [r2], #-0
    4690:	301a0000 	andscc	r0, sl, r0
    4694:	7c000008 	stcvc	0, cr0, [r0], {8}
    4698:	7800002c 	stmdavc	r0, {r2, r3, r5}
    469c:	1e00002c 	cdpne	0, 0, cr0, cr0, cr12, {1}
    46a0:	00000450 	andeq	r0, r0, r0, asr r4
    46a4:	a0340f00 	eorsge	r0, r4, r0, lsl #30
    46a8:	08bc0000 	ldmeq	ip!, {}	; <UNPREDICTABLE>
    46ac:	05dc0000 	ldrbeq	r0, [ip]
    46b0:	01100000 	tsteq	r0, r0
    46b4:	30030550 	andcc	r0, r3, r0, asr r5
    46b8:	100000a5 	andne	r0, r0, r5, lsr #1
    46bc:	03055101 	movweq	r5, #20737	; 0x5101
    46c0:	0000ab60 	andeq	sl, r0, r0, ror #22
    46c4:	05520110 	ldrbeq	r0, [r2, #-272]	; 0xfffffef0
    46c8:	00ad2003 	adceq	r2, sp, r3
    46cc:	53011000 	movwpl	r1, #4096	; 0x1000
    46d0:	10480802 	subne	r0, r8, r2, lsl #16
    46d4:	05007d02 	streq	r7, [r0, #-3330]	; 0xfffff2fe
    46d8:	00ab7003 	adceq	r7, fp, r3
    46dc:	38110000 	ldmdacc	r1, {}	; <UNPREDICTABLE>
    46e0:	c80000a0 	stmdagt	r0, {r5, r7}
    46e4:	0f000008 	svceq	0x00000008
    46e8:	0000a058 	andeq	sl, r0, r8, asr r0
    46ec:	000008bc 			; <UNDEFINED> instruction: 0x000008bc
    46f0:	00000621 	andeq	r0, r0, r1, lsr #12
    46f4:	05500110 	ldrbeq	r0, [r0, #-272]	; 0xfffffef0
    46f8:	00abec03 	adceq	lr, fp, r3, lsl #24
    46fc:	51011000 	mrspl	r1, (UNDEF: 1)
    4700:	ab600305 	blge	180531c <__bss_end__+0x17fa17c>
    4704:	01100000 	tsteq	r0, r0
    4708:	20030552 	andcs	r0, r3, r2, asr r5
    470c:	100000ad 	andne	r0, r0, sp, lsr #1
    4710:	08025301 	stmdaeq	r2, {r0, r8, r9, ip, lr}
    4714:	7d02104e 	stcvc	0, cr1, [r2, #-312]	; 0xfffffec8
    4718:	01f30800 	mvnseq	r0, r0, lsl #16
    471c:	09072350 	stmdbeq	r7, {r4, r6, r8, r9, sp}
    4720:	11001af8 	strdne	r1, [r0, -r8]
    4724:	0000a05c 	andeq	sl, r0, ip, asr r0
    4728:	000008c8 	andeq	r0, r0, r8, asr #17
    472c:	0b760c00 	bleq	1d87734 <__bss_end__+0x1d7c594>
    4730:	3c010000 	stccc	0, cr0, [r1], {-0}
    4734:	009f8406 	addseq	r8, pc, r6, lsl #8
    4738:	00005800 	andeq	r5, r0, r0, lsl #16
    473c:	cf9c0100 	svcgt	0x009c0100
    4740:	0a000006 	beq	4760 <__code_start__-0x38a0>
    4744:	0000040e 	andeq	r0, r0, lr, lsl #8
    4748:	25103d01 	ldrcs	r3, [r0, #-3329]	; 0xfffff2ff
    474c:	05000000 	streq	r0, [r0, #-0]
    4750:	00b19803 	adcseq	r9, r1, r3, lsl #16
    4754:	00980e00 	addseq	r0, r8, r0, lsl #28
    4758:	06df0000 	ldrbeq	r0, [pc], r0
    475c:	03050000 	movweq	r0, #20480	; 0x5000
    4760:	0000ad10 	andeq	sl, r0, r0, lsl sp
    4764:	2c040707 	stccs	7, cr0, [r4], {7}
    4768:	01000000 	mrseq	r0, (UNDEF: 0)
    476c:	067a0a42 	ldrbteq	r0, [sl], -r2, asr #20
    4770:	3d080000 	stccc	0, cr0, [r8, #-0]
    4774:	0000000b 	andeq	r0, r0, fp
    4778:	00001000 	andeq	r1, r0, r0
    477c:	009fb00f 	addseq	fp, pc, pc
    4780:	0006e400 	andeq	lr, r6, r0, lsl #8
    4784:	00069600 	andeq	r9, r6, r0, lsl #12
    4788:	50011000 	andpl	r1, r1, r0
    478c:	24404003 	strbcs	r4, [r0], #-3
    4790:	03510110 	cmpeq	r1, #4
    4794:	00244840 	eoreq	r4, r4, r0, asr #16
    4798:	009fc80f 	addseq	ip, pc, pc, lsl #16
    479c:	0008bc00 	andeq	fp, r8, r0, lsl #24
    47a0:	0006c500 	andeq	ip, r6, r0, lsl #10
    47a4:	50011000 	andpl	r1, r1, r0
    47a8:	abbc0305 	blge	fef053c4 <__bss_end__+0xfeefa224>
    47ac:	01100000 	tsteq	r0, r0
    47b0:	60030551 	andvs	r0, r3, r1, asr r5
    47b4:	100000ab 	andne	r0, r0, fp, lsr #1
    47b8:	03055201 	movweq	r5, #20993	; 0x5201
    47bc:	0000ad10 	andeq	sl, r0, r0, lsl sp
    47c0:	02530110 	subseq	r0, r3, #4
    47c4:	11004008 	tstne	r0, r8
    47c8:	00009fcc 	andeq	r9, r0, ip, asr #31
    47cc:	000008c8 	andeq	r0, r0, r8, asr #17
    47d0:	007e1200 	rsbseq	r1, lr, r0, lsl #4
    47d4:	06df0000 	ldrbeq	r0, [pc], r0
    47d8:	2c130000 	ldccs	0, cr0, [r3], {-0}
    47dc:	0c000000 	stceq	0, cr0, [r0], {-0}
    47e0:	06cf0500 	strbeq	r0, [pc], r0, lsl #10
    47e4:	be0c0000 	cdplt	0, 0, cr0, cr12, cr0, {0}
    47e8:	01000004 	tsteq	r0, r4
    47ec:	9ee8062d 	cdpls	6, 14, cr0, cr8, cr13, {1}
    47f0:	009c0000 	addseq	r0, ip, r0
    47f4:	9c010000 	stcls	0, cr0, [r1], {-0}
    47f8:	000007c8 	andeq	r0, r0, r8, asr #15
    47fc:	0005dc17 	andeq	sp, r5, r7, lsl ip
    4800:	262d0100 	strtcs	r0, [sp], -r0, lsl #2
    4804:	0000002c 	andeq	r0, r0, ip, lsr #32
    4808:	00002caa 	andeq	r2, r0, sl, lsr #25
    480c:	00002c9c 	muleq	r0, ip, ip
    4810:	000afb17 	andeq	pc, sl, r7, lsl fp	; <UNPREDICTABLE>
    4814:	362d0100 	strtcc	r0, [sp], -r0, lsl #2
    4818:	0000002c 	andeq	r0, r0, ip, lsr #32
    481c:	00002d12 	andeq	r2, r0, r2, lsl sp
    4820:	00002d0a 	andeq	r2, r0, sl, lsl #26
    4824:	0005dd1d 	andeq	sp, r5, sp, lsl sp
    4828:	0b2e0100 	bleq	b84c30 <__bss_end__+0xb79a90>
    482c:	000000c2 	andeq	r0, r0, r2, asr #1
    4830:	00002d5a 	andeq	r2, r0, sl, asr sp
    4834:	00002d4c 	andeq	r2, r0, ip, asr #26
    4838:	0000980e 	andeq	r9, r0, lr, lsl #16
    483c:	0007d800 	andeq	sp, r7, r0, lsl #16
    4840:	f8030500 			; <UNDEFINED> instruction: 0xf8030500
    4844:	0f0000ac 	svceq	0x000000ac
    4848:	00009f40 	andeq	r9, r0, r0, asr #30
    484c:	000008bc 			; <UNDEFINED> instruction: 0x000008bc
    4850:	0000077e 	andeq	r0, r0, lr, ror r7
    4854:	05500110 	ldrbeq	r0, [r0, #-272]	; 0xfffffef0
    4858:	00a53003 	adceq	r3, r5, r3
    485c:	51011000 	mrspl	r1, (UNDEF: 1)
    4860:	ab600305 	blge	180547c <__bss_end__+0x17fa2dc>
    4864:	01100000 	tsteq	r0, r0
    4868:	f8030552 			; <UNDEFINED> instruction: 0xf8030552
    486c:	100000ac 	andne	r0, r0, ip, lsr #1
    4870:	08025301 	stmdaeq	r2, {r0, r8, r9, ip, lr}
    4874:	7d021030 	stcvc	0, cr1, [r2, #-192]	; 0xffffff40
    4878:	6c030500 	cfstr32vs	mvfx0, [r3], {-0}
    487c:	000000ab 	andeq	r0, r0, fp, lsr #1
    4880:	009f4411 	addseq	r4, pc, r1, lsl r4	; <UNPREDICTABLE>
    4884:	0008c800 	andeq	ip, r8, r0, lsl #16
    4888:	9f680f00 	svcls	0x00680f00
    488c:	08bc0000 	ldmeq	ip!, {}	; <UNPREDICTABLE>
    4890:	07be0000 	ldreq	r0, [lr, r0]!
    4894:	01100000 	tsteq	r0, r0
    4898:	78030550 	stmdavc	r3, {r4, r6, r8, sl}
    489c:	100000ab 	andne	r0, r0, fp, lsr #1
    48a0:	03055101 	movweq	r5, #20737	; 0x5101
    48a4:	0000ab60 	andeq	sl, r0, r0, ror #22
    48a8:	05520110 	ldrbeq	r0, [r2, #-272]	; 0xfffffef0
    48ac:	00acf803 	adceq	pc, ip, r3, lsl #16
    48b0:	53011000 	movwpl	r1, #4096	; 0x1000
    48b4:	10340802 	eorsne	r0, r4, r2, lsl #16
    48b8:	03007d02 	movweq	r7, #3330	; 0xd02
    48bc:	005001f3 	ldrsheq	r0, [r0], #-19	; 0xffffffed
    48c0:	009f6c11 	addseq	r6, pc, r1, lsl ip	; <UNPREDICTABLE>
    48c4:	0008c800 	andeq	ip, r8, r0, lsl #16
    48c8:	7e120000 	cdpvc	0, 1, cr0, cr2, cr0, {0}
    48cc:	d8000000 	stmdale	r0, {}	; <UNPREDICTABLE>
    48d0:	13000007 	movwne	r0, #7
    48d4:	0000002c 	andeq	r0, r0, ip, lsr #32
    48d8:	c8050016 	stmdagt	r5, {r1, r2, r4}
    48dc:	1f000007 	svcne	0x00000007
    48e0:	00000b8e 	andeq	r0, r0, lr, lsl #23
    48e4:	8a072a01 	bhi	1cf0f0 <__bss_end__+0x1c3f50>
    48e8:	d8000000 	stmdale	r0, {}	; <UNPREDICTABLE>
    48ec:	1000009e 	mulne	r0, lr, r0
    48f0:	01000000 	mrseq	r0, (UNDEF: 0)
    48f4:	0ae81f9c 	beq	ffa0c76c <__bss_end__+0xffa015cc>
    48f8:	29010000 	stmdbcs	r1, {}	; <UNPREDICTABLE>
    48fc:	00008a07 	andeq	r8, r0, r7, lsl #20
    4900:	009ec800 	addseq	ip, lr, r0, lsl #16
    4904:	00001000 	andeq	r1, r0, r0
    4908:	1f9c0100 	svcne	0x009c0100
    490c:	00000b43 	andeq	r0, r0, r3, asr #22
    4910:	8a072801 	bhi	1ce91c <__bss_end__+0x1c377c>
    4914:	b8000000 	stmdalt	r0, {}	; <UNPREDICTABLE>
    4918:	1000009e 	mulne	r0, lr, r0
    491c:	01000000 	mrseq	r0, (UNDEF: 0)
    4920:	0b19209c 	bleq	64cb98 <__bss_end__+0x6419f8>
    4924:	10010000 	andne	r0, r1, r0
    4928:	00002c18 	andeq	r2, r0, r8, lsl ip
    492c:	08540300 	ldmdaeq	r4, {r8, r9}^
    4930:	78210000 	stmdavc	r1!, {}	; <UNPREDICTABLE>
    4934:	29100100 	ldmdbcs	r0, {r8}
    4938:	0000002c 	andeq	r0, r0, ip, lsr #32
    493c:	01006e21 	tsteq	r0, r1, lsr #28
    4940:	002c3510 	eoreq	r3, ip, r0, lsl r5
    4944:	980e0000 	stmdals	lr, {}	; <UNPREDICTABLE>
    4948:	18000000 	stmdane	r0, {}	; <UNPREDICTABLE>
    494c:	05000005 	streq	r0, [r0, #-5]
    4950:	00ad4803 	adceq	r4, sp, r3, lsl #16
    4954:	64200000 	strtvs	r0, [r0], #-0
    4958:	0100000b 	tsteq	r0, fp
    495c:	002c180d 	eoreq	r1, ip, sp, lsl #16
    4960:	70030000 	andvc	r0, r3, r0
    4964:	21000008 	tstcs	r0, r8
    4968:	0d010078 	stceq	0, cr0, [r1, #-480]	; 0xfffffe20
    496c:	00002c29 	andeq	r2, r0, r9, lsr #24
    4970:	83200000 	nophi	{0}	; <UNPREDICTABLE>
    4974:	0100000b 	tsteq	r0, fp
    4978:	002c1807 	eoreq	r1, ip, r7, lsl #16
    497c:	96030000 	strls	r0, [r3], -r0
    4980:	21000008 	tstcs	r0, r8
    4984:	07010078 	smlsdxeq	r1, r8, r0, r0
    4988:	00002c2c 	andeq	r2, r0, ip, lsr #24
    498c:	006e2100 	rsbeq	r2, lr, r0, lsl #2
    4990:	2c380701 	ldccs	7, cr0, [r8], #-4
    4994:	00000000 	andeq	r0, r0, r0
    4998:	000b3520 	andeq	r3, fp, r0, lsr #10
    499c:	18040100 	stmdane	r4, {r8}
    49a0:	0000005d 	andeq	r0, r0, sp, asr r0
    49a4:	0008bc03 	andeq	fp, r8, r3, lsl #24
    49a8:	00782100 	rsbseq	r2, r8, r0, lsl #2
    49ac:	5d290401 	cfstrspl	mvf0, [r9, #-4]!
    49b0:	21000000 	mrscs	r0, (UNDEF: 0)
    49b4:	04010079 	streq	r0, [r1], #-121	; 0xffffff87
    49b8:	00005d35 	andeq	r5, r0, r5, lsr sp
    49bc:	44220000 	strtmi	r0, [r2], #-0
    49c0:	44000006 	strmi	r0, [r0], #-6
    49c4:	02000006 	andeq	r0, r0, #6, 0
    49c8:	af220628 	svcge	0x00220628
    49cc:	af000000 	svcge	0x00000000
    49d0:	02000000 	andeq	r0, r0, #0, 0
    49d4:	9f22066e 	svcls	0x0022066e
    49d8:	9f00000b 	svcls	0x0000000b
    49dc:	0200000b 	andeq	r0, r0, #11, 0
    49e0:	6222061d 	eorvs	r0, r2, #30408704	; 0x1d00000
    49e4:	62000002 	andvs	r0, r0, #2, 0
    49e8:	02000002 	andeq	r0, r0, #2, 0
    49ec:	730007f2 	movwvc	r0, #2034	; 0x7f2
    49f0:	04000006 	streq	r0, [r0], #-6
    49f4:	00198700 	andseq	r8, r9, r0, lsl #14
    49f8:	1c010400 	cfstrsne	mvf0, [r1], {-0}
    49fc:	0c000005 	stceq	0, cr0, [r0], {5}
    4a00:	00000bf1 	strdeq	r0, [r0], -r1
    4a04:	000005e2 	andeq	r0, r0, r2, ror #11
    4a08:	0000a268 	andeq	sl, r0, r8, ror #4
    4a0c:	00000198 	muleq	r0, r8, r1
    4a10:	00002599 	muleq	r0, r9, r5
    4a14:	cb070802 	blgt	1c6a24 <__bss_end__+0x1bb884>
    4a18:	02000001 	andeq	r0, r0, #1, 0
    4a1c:	01d50704 	bicseq	r0, r5, r4, lsl #14
    4a20:	04030000 	streq	r0, [r3], #-0
    4a24:	746e6905 	strbtvc	r6, [lr], #-2309	; 0xfffff6fb
    4a28:	002c0400 	eoreq	r0, ip, r0, lsl #8
    4a2c:	01020000 	mrseq	r0, (UNDEF: 2)
    4a30:	0000cb06 	andeq	ip, r0, r6, lsl #22
    4a34:	05020200 	streq	r0, [r2, #-512]	; 0xfffffe00
    4a38:	00000022 	andeq	r0, r0, r2, lsr #32
    4a3c:	57050402 	strpl	r0, [r5, -r2, lsl #8]
    4a40:	02000000 	andeq	r0, r0, #0, 0
    4a44:	00520508 	subseq	r0, r2, r8, lsl #10
    4a48:	01020000 	mrseq	r0, (UNDEF: 2)
    4a4c:	0000c908 	andeq	ip, r0, r8, lsl #18
    4a50:	07020200 	streq	r0, [r2, -r0, lsl #4]
    4a54:	0000020a 	andeq	r0, r0, sl, lsl #4
    4a58:	0001e205 	andeq	lr, r1, r5, lsl #4
    4a5c:	19340300 	ldmdbne	r4!, {r8, r9}
    4a60:	00000075 	andeq	r0, r0, r5, ror r0
    4a64:	d0070402 	andle	r0, r7, r2, lsl #8
    4a68:	06000001 	streq	r0, [r0], -r1
    4a6c:	00000033 	andeq	r0, r0, r3, lsr r0
    4a70:	0000008b 	andeq	r0, r0, fp, lsl #1
    4a74:	00003307 	andeq	r3, r0, r7, lsl #6
    4a78:	2c080000 	stccs	0, cr0, [r8], {-0}
    4a7c:	02000000 	andeq	r0, r0, #0, 0
    4a80:	00970e1c 	addseq	r0, r7, ip, lsl lr
    4a84:	04090000 	streq	r0, [r9], #-0
    4a88:	0000007c 	andeq	r0, r0, ip, ror r0
    4a8c:	00003306 	andeq	r3, r0, r6, lsl #6
    4a90:	0000ac00 	andeq	sl, r0, r0, lsl #24
    4a94:	00ac0700 	adceq	r0, ip, r0, lsl #14
    4a98:	09000000 	stmdbeq	r0, {}	; <UNPREDICTABLE>
    4a9c:	0000b904 	andeq	fp, r0, r4, lsl #18
    4aa0:	08010200 	stmdaeq	r1, {r9}
    4aa4:	000000d2 	ldrdeq	r0, [r0], -r2
    4aa8:	0000b204 	andeq	fp, r0, r4, lsl #4
    4aac:	06820800 	streq	r0, [r2], r0, lsl #16
    4ab0:	21020000 	mrscs	r0, (UNDEF: 2)
    4ab4:	0000ca0e 	andeq	ip, r0, lr, lsl #20
    4ab8:	9d040900 	vstrls.16	s0, [r4, #-0]	; <UNPREDICTABLE>
    4abc:	0a000000 	beq	4ac4 <__code_start__-0x353c>
    4ac0:	005b0107 	subseq	r0, fp, r7, lsl #2
    4ac4:	0c040000 	stceq	0, cr0, [r4], {-0}
    4ac8:	00010f0e 	andeq	r0, r1, lr, lsl #30
    4acc:	0ac00b00 	beq	ff0076d4 <__bss_end__+0xfeffc534>
    4ad0:	0b000000 	bleq	4ad8 <__code_start__-0x3528>
    4ad4:	000008f8 	strdeq	r0, [r0], -r8
    4ad8:	093b0b01 	ldmdbeq	fp!, {r0, r8, r9, fp}
    4adc:	0b040000 	bleq	104ae4 <__bss_end__+0xf9944>
    4ae0:	0000094a 	andeq	r0, r0, sl, asr #18
    4ae4:	09590b05 	ldmdbeq	r9, {r0, r2, r8, r9, fp}^
    4ae8:	0b060000 	bleq	184af0 <__bss_end__+0x179950>
    4aec:	00000968 	andeq	r0, r0, r8, ror #18
    4af0:	0a890b07 	beq	fe247714 <__bss_end__+0xfe23c574>
    4af4:	0b030000 	bleq	c4afc <__bss_end__+0xb995c>
    4af8:	00000977 	andeq	r0, r0, r7, ror r9
    4afc:	2a050002 	bcs	144b0c <__bss_end__+0x13996c>
    4b00:	0400000c 	streq	r0, [r0], #-12
    4b04:	00d00315 	sbcseq	r0, r0, r5, lsl r3
    4b08:	c80c0000 	stmdagt	ip, {}	; <UNPREDICTABLE>
    4b0c:	0100000b 	tsteq	r0, fp
    4b10:	003a171d 	eorseq	r1, sl, sp, lsl r7
    4b14:	001c0000 	andseq	r0, ip, r0
    4b18:	be0c2020 	cdplt	0, 0, cr2, cr12, cr0, {1}
    4b1c:	0100000b 	tsteq	r0, fp
    4b20:	003a171e 	eorseq	r1, sl, lr, lsl r7
    4b24:	00280000 	eoreq	r0, r8, r0
    4b28:	360c2020 	strcc	r2, [ip], -r0, lsr #32
    4b2c:	0100000c 	tsteq	r0, ip
    4b30:	003a171f 	eorseq	r1, sl, pc, lsl r7
    4b34:	00340000 	eorseq	r0, r4, r0
    4b38:	e70d2020 	str	r2, [sp, -r0, lsr #32]
    4b3c:	0100000b 	tsteq	r0, fp
    4b40:	00330551 	eorseq	r0, r3, r1, asr r5
    4b44:	a3d80000 	bicsge	r0, r8, #0, 0
    4b48:	00280000 	eoreq	r0, r8, r0
    4b4c:	9c010000 	stcls	0, cr0, [r1], {-0}
    4b50:	000001ba 			; <UNDEFINED> instruction: 0x000001ba
    4b54:	6e69700e 	cdpvs	0, 6, cr7, cr9, cr14, {0}
    4b58:	18510100 	ldmdane	r1, {r8}^
    4b5c:	0000002c 	andeq	r0, r0, ip, lsr #32
    4b60:	00002dc0 	andeq	r2, r0, r0, asr #27
    4b64:	00002dba 			; <UNDEFINED> instruction: 0x00002dba
    4b68:	000c400f 	andeq	r4, ip, pc
    4b6c:	0e520100 	rdfeqs	f0, f2, f0
    4b70:	0000002c 	andeq	r0, r0, ip, lsr #32
    4b74:	00002df6 	strdeq	r2, [r0], -r6
    4b78:	00002dec 	andeq	r2, r0, ip, ror #27
    4b7c:	66666f10 	uqadd16vs	r6, r6, r0
    4b80:	0e530100 	rdfeqs	f0, f3, f0
    4b84:	0000002c 	andeq	r0, r0, ip, lsr #32
    4b88:	00002e64 	andeq	r2, r0, r4, ror #28
    4b8c:	00002e5e 	andeq	r2, r0, lr, asr lr
    4b90:	00a3ec11 	adceq	lr, r3, r1, lsl ip
    4b94:	00065e00 	andeq	r5, r6, r0, lsl #28
    4b98:	50011200 	andpl	r1, r1, r0, lsl #4
    4b9c:	3500740a 	strcc	r7, [r0, #-1034]	; 0xfffffbf6
    4ba0:	80b42325 	adcshi	r2, r4, r5, lsr #6
    4ba4:	00028180 	andeq	r8, r2, r0, lsl #3
    4ba8:	0bd21300 	bleq	ff4897b0 <__bss_end__+0xff47e610>
    4bac:	4a010000 	bmi	44bb4 <__bss_end__+0x39a14>
    4bb0:	00a3a806 	adceq	sl, r3, r6, lsl #16
    4bb4:	00003000 	andeq	r3, r0, r0
    4bb8:	759c0100 	ldrvc	r0, [ip, #256]	; 0x100
    4bbc:	0e000002 	cdpeq	0, 0, cr0, cr0, cr2, {0}
    4bc0:	006e6970 	rsbeq	r6, lr, r0, ror r9
    4bc4:	2c1a4a01 			; <UNDEFINED> instruction: 0x2c1a4a01
    4bc8:	a1000000 	mrsge	r0, (UNDEF: 0)
    4bcc:	9500002e 	strls	r0, [r0, #-46]	; 0xffffffd2
    4bd0:	0e00002e 	cdpeq	0, 0, cr0, cr0, cr14, {1}
    4bd4:	4a010076 	bmi	44db4 <__bss_end__+0x39c14>
    4bd8:	00002c28 	andeq	r2, r0, r8, lsr #24
    4bdc:	002ef500 	eoreq	pc, lr, r0, lsl #10
    4be0:	002ef100 	eoreq	pc, lr, r0, lsl #2
    4be4:	038d1400 	orreq	r1, sp, #0, 8
    4be8:	a3b80000 			; <UNDEFINED> instruction: 0xa3b80000
    4bec:	20010000 	andcs	r0, r1, r0
    4bf0:	01000005 	tsteq	r0, r5
    4bf4:	0235094c 	eorseq	r0, r5, #76, 18	; 0x130000
    4bf8:	9a150000 	bls	544c00 <__bss_end__+0x539a60>
    4bfc:	1c000003 	stcne	0, cr0, [r0], {3}
    4c00:	1600002f 	strne	r0, [r0], -pc, lsr #32
    4c04:	1600002f 	strne	r0, [r0], -pc, lsr #32
    4c08:	0000a3c4 	andeq	sl, r0, r4, asr #7
    4c0c:	0000066a 	andeq	r0, r0, sl, ror #12
    4c10:	05500112 	ldrbeq	r0, [r0, #-274]	; 0xfffffeee
    4c14:	20001c0c 	andcs	r1, r0, ip, lsl #24
    4c18:	51011220 	tstpl	r1, r0, lsr #4
    4c1c:	01f33105 	mvnseq	r3, r5, lsl #2
    4c20:	00002450 	andeq	r2, r0, r0, asr r4
    4c24:	00037317 	andeq	r7, r3, r7, lsl r3
    4c28:	00a3c400 	adceq	ip, r3, r0, lsl #8
    4c2c:	a3c40200 	bicge	r0, r4, #0, 4
    4c30:	00140000 	andseq	r0, r4, r0
    4c34:	4e010000 	cdpmi	0, 0, cr0, cr1, cr0, {0}
    4c38:	03801509 	orreq	r1, r0, #37748736	; 0x2400000
    4c3c:	2f4e0000 	svccs	0x004e0000
    4c40:	2f480000 	svccs	0x00480000
    4c44:	d0160000 	andsle	r0, r6, r0
    4c48:	6a0000a3 	bvs	4edc <__code_start__-0x3124>
    4c4c:	12000006 	andne	r0, r0, #6, 0
    4c50:	0c055001 	stceq	0, cr5, [r5], {1}
    4c54:	20200028 	eorcs	r0, r0, r8, lsr #32
    4c58:	05510112 	ldrbeq	r0, [r1, #-274]	; 0xfffffeee
    4c5c:	5001f331 	andpl	pc, r1, r1, lsr r3	; <UNPREDICTABLE>
    4c60:	00000024 	andeq	r0, r0, r4, lsr #32
    4c64:	000bfe13 	andeq	pc, fp, r3, lsl lr	; <UNPREDICTABLE>
    4c68:	06450100 	strbeq	r0, [r5], -r0, lsl #2
    4c6c:	0000a350 	andeq	sl, r0, r0, asr r3
    4c70:	00000058 	andeq	r0, r0, r8, asr r0
    4c74:	03739c01 	cmneq	r3, #256	; 0x100
    4c78:	700e0000 	andvc	r0, lr, r0
    4c7c:	01006e69 	tsteq	r0, r9, ror #28
    4c80:	002c1e45 	eoreq	r1, ip, r5, asr #28
    4c84:	2f800000 	svccs	0x00800000
    4c88:	2f7a0000 	svccs	0x007a0000
    4c8c:	a5180000 	ldrge	r0, [r8, #-0]
    4c90:	50000004 	andpl	r0, r0, r4
    4c94:	020000a3 	andeq	r0, r0, #163, 0	; 0xa3
    4c98:	000004e0 	andeq	r0, r0, r0, ror #9
    4c9c:	19054601 	stmdbne	r5, {r0, r9, sl, lr}
    4ca0:	000004be 			; <UNDEFINED> instruction: 0x000004be
    4ca4:	04b21500 	ldrteq	r1, [r2], #1280	; 0x500
    4ca8:	2fb20000 	svccs	0x00b20000
    4cac:	2fac0000 	svccs	0x00ac0000
    4cb0:	e01a0000 	ands	r0, sl, r0
    4cb4:	1b000004 	blne	4ccc <__code_start__-0x3334>
    4cb8:	000004ca 	andeq	r0, r0, sl, asr #9
    4cbc:	0004d61b 	andeq	sp, r4, fp, lsl r6
    4cc0:	04e01b00 	strbteq	r1, [r0], #2816	; 0xb00
    4cc4:	a5180000 	ldrge	r0, [r8, #-0]
    4cc8:	58000004 	stmdapl	r0, {r2}
    4ccc:	000000a3 	andeq	r0, r0, r3, lsr #1
    4cd0:	00000500 	andeq	r0, r0, r0, lsl #10
    4cd4:	19062801 	stmdbne	r6, {r0, fp, sp}
    4cd8:	000004be 			; <UNDEFINED> instruction: 0x000004be
    4cdc:	04b21500 	ldrteq	r1, [r2], #1280	; 0x500
    4ce0:	2fe40000 	svccs	0x00e40000
    4ce4:	2fde0000 	svccs	0x00de0000
    4ce8:	001a0000 	andseq	r0, sl, r0
    4cec:	1c000005 	stcne	0, cr0, [r0], {5}
    4cf0:	000004ca 	andeq	r0, r0, sl, asr #9
    4cf4:	00003016 	andeq	r3, r0, r6, lsl r0
    4cf8:	00003010 	andeq	r3, r0, r0, lsl r0
    4cfc:	0004d61c 	andeq	sp, r4, ip, lsl r6
    4d00:	00305800 	eorseq	r5, r0, r0, lsl #16
    4d04:	00305200 	eorseq	r5, r0, r0, lsl #4
    4d08:	04e01c00 	strbteq	r1, [r0], #3072	; 0xc00
    4d0c:	30ae0000 	adccc	r0, lr, r0
    4d10:	30a60000 	adccc	r0, r6, r0
    4d14:	801d0000 	andshi	r0, sp, r0
    4d18:	5e0000a3 	cdppl	0, 0, cr0, cr0, cr3, {5}
    4d1c:	3b000006 	blcc	4d3c <__code_start__-0x32c4>
    4d20:	12000003 	andne	r0, r0, #3, 0
    4d24:	76025001 	strvc	r5, [r2], -r1
    4d28:	a4160000 	ldrge	r0, [r6], #-0
    4d2c:	6a0000a3 	bvs	4fc0 <__code_start__-0x3040>
    4d30:	12000006 	andne	r0, r0, #6, 0
    4d34:	f3255001 	vhadd.u32	d5, d5, d1
    4d38:	2cf75001 	ldclcs	0, cr5, [r7], #4
    4d3c:	25f425f7 	ldrbcs	r2, [r4, #1527]!	; 0x5f7
    4d40:	cccccd08 	stclgt	13, cr12, [ip], {8}
    4d44:	000000cc 	andeq	r0, r0, ip, asr #1
    4d48:	20081e00 	andcs	r1, r8, r0, lsl #28
    4d4c:	f72525f7 			; <UNDEFINED> instruction: 0xf72525f7
    4d50:	3300f72c 	movwcc	pc, #1836	; 0x72c	; <UNPREDICTABLE>
    4d54:	80802325 	addhi	r2, r0, r5, lsr #6
    4d58:	243240a0 	ldrtcs	r4, [r2], #-160	; 0xffffff60
    4d5c:	00000000 	andeq	r0, r0, r0
    4d60:	0d1e0000 	ldceq	0, cr0, [lr, #-0]
    4d64:	0100000c 	tsteq	r0, ip
    4d68:	8d030d40 	stchi	13, cr0, [r3, #-256]	; 0xffffff00
    4d6c:	1f000003 	svcne	0x00000003
    4d70:	006e6970 	rsbeq	r6, lr, r0, ror r9
    4d74:	2c234001 	stccs	0, cr4, [r3], #-4
    4d78:	00000000 	andeq	r0, r0, r0
    4d7c:	000c451e 	andeq	r4, ip, lr, lsl r5
    4d80:	0d3b0100 	ldfeqs	f0, [fp, #-0]
    4d84:	0003a703 	andeq	sl, r3, r3, lsl #14
    4d88:	69701f00 	ldmdbvs	r0!, {r8, r9, sl, fp, ip}^
    4d8c:	3b01006e 	blcc	44f4c <__bss_end__+0x39dac>
    4d90:	00002c22 	andeq	r2, r0, r2, lsr #24
    4d94:	1a130000 	bne	4c4d9c <__bss_end__+0x4b9bfc>
    4d98:	0100000c 	tsteq	r0, ip
    4d9c:	a2c80636 	sbcge	r0, r8, #56623104	; 0x3600000
    4da0:	00580000 	subseq	r0, r8, r0
    4da4:	9c010000 	stcls	0, cr0, [r1], {-0}
    4da8:	000004a5 	andeq	r0, r0, r5, lsr #9
    4dac:	6e69700e 	cdpvs	0, 6, cr7, cr9, cr14, {0}
    4db0:	1f360100 	svcne	0x00360100
    4db4:	0000002c 	andeq	r0, r0, ip, lsr #32
    4db8:	0000310c 	andeq	r3, r0, ip, lsl #2
    4dbc:	00003108 	andeq	r3, r0, r8, lsl #2
    4dc0:	0004a518 	andeq	sl, r4, r8, lsl r5
    4dc4:	00a2c800 	adceq	ip, r2, r0, lsl #16
    4dc8:	04a00200 	strteq	r0, [r0], #512	; 0x200
    4dcc:	37010000 	strcc	r0, [r1, -r0]
    4dd0:	04be1905 	ldrteq	r1, [lr], #2309	; 0x905
    4dd4:	15010000 	strne	r0, [r1, #-0]
    4dd8:	000004b2 			; <UNDEFINED> instruction: 0x000004b2
    4ddc:	00003131 	andeq	r3, r0, r1, lsr r1
    4de0:	0000312d 	andeq	r3, r0, sp, lsr #2
    4de4:	0004a01a 	andeq	sl, r4, sl, lsl r0
    4de8:	04ca1b00 	strbeq	r1, [sl], #2816	; 0xb00
    4dec:	d61b0000 	ldrle	r0, [fp], -r0
    4df0:	1b000004 	blne	4e08 <__code_start__-0x31f8>
    4df4:	000004e0 	andeq	r0, r0, r0, ror #9
    4df8:	0004a518 	andeq	sl, r4, r8, lsl r5
    4dfc:	00a2d000 	adceq	sp, r2, r0
    4e00:	04c00000 	strbeq	r0, [r0], #0
    4e04:	28010000 	stmdacs	r1, {}	; <UNPREDICTABLE>
    4e08:	04be1906 	ldrteq	r1, [lr], #2310	; 0x906
    4e0c:	15010000 	strne	r0, [r1, #-0]
    4e10:	000004b2 			; <UNDEFINED> instruction: 0x000004b2
    4e14:	00003156 	andeq	r3, r0, r6, asr r1
    4e18:	00003152 	andeq	r3, r0, r2, asr r1
    4e1c:	0004c01a 	andeq	ip, r4, sl, lsl r0
    4e20:	04ca1c00 	strbeq	r1, [sl], #3072	; 0xc00
    4e24:	317b0000 	cmncc	fp, r0
    4e28:	31770000 	cmncc	r7, r0
    4e2c:	d61c0000 	ldrle	r0, [ip], -r0
    4e30:	c7000004 	strgt	r0, [r0, -r4]
    4e34:	c1000031 	tstgt	r0, r1, lsr r0
    4e38:	1c000031 	stcne	0, cr0, [r0], {49}	; 0x31
    4e3c:	000004e0 	andeq	r0, r0, r0, ror #9
    4e40:	0000321d 	andeq	r3, r0, sp, lsl r2
    4e44:	00003215 	andeq	r3, r0, r5, lsl r2
    4e48:	00a2fc1d 	adceq	pc, r2, sp, lsl ip	; <UNPREDICTABLE>
    4e4c:	00065e00 	andeq	r5, r6, r0, lsl #28
    4e50:	00046d00 	andeq	r6, r4, r0, lsl #26
    4e54:	50011200 	andpl	r1, r1, r0, lsl #4
    4e58:	00007502 	andeq	r7, r0, r2, lsl #10
    4e5c:	00a31c16 	adceq	r1, r3, r6, lsl ip
    4e60:	00066a00 	andeq	r6, r6, r0, lsl #20
    4e64:	50011200 	andpl	r1, r1, r0, lsl #4
    4e68:	5001f325 	andpl	pc, r1, r5, lsr #6
    4e6c:	25f72cf7 	ldrbcs	r2, [r7, #3319]!	; 0xcf7
    4e70:	cd0825f4 	cfstr32gt	mvfx2, [r8, #-976]	; 0xfffffc30
    4e74:	00cccccc 	sbceq	ip, ip, ip, asr #25
    4e78:	1e000000 	cdpne	0, 0, cr0, cr0, cr0, {0}
    4e7c:	25f72008 	ldrbcs	r2, [r7, #8]!
    4e80:	f72cf725 			; <UNDEFINED> instruction: 0xf72cf725
    4e84:	23253300 			; <UNDEFINED> instruction: 0x23253300
    4e88:	40a08080 	adcmi	r8, r0, r0, lsl #1
    4e8c:	00002432 	andeq	r2, r0, r2, lsr r4
    4e90:	00000000 	andeq	r0, r0, r0
    4e94:	000ad01e 	andeq	sp, sl, lr, lsl r0
    4e98:	06280100 	strteq	r0, [r8], -r0, lsl #2
    4e9c:	0004eb01 	andeq	lr, r4, r1, lsl #22
    4ea0:	69701f00 	ldmdbvs	r0!, {r8, r9, sl, fp, ip}^
    4ea4:	2801006e 	stmdacs	r1, {r1, r2, r3, r5, r6}
    4ea8:	00002c21 	andeq	r2, r0, r1, lsr #24
    4eac:	004d2000 	subeq	r2, sp, r0
    4eb0:	28010000 	stmdacs	r1, {}	; <UNPREDICTABLE>
    4eb4:	00010f32 	andeq	r0, r1, r2, lsr pc
    4eb8:	666f2100 	strbtvs	r2, [pc], -r0, lsl #2
    4ebc:	2d010066 	stccs	0, cr0, [r1, #-408]	; 0xfffffe68
    4ec0:	00002c0e 	andeq	r2, r0, lr, lsl #24
    4ec4:	00672100 	rsbeq	r2, r7, r0, lsl #2
    4ec8:	2c0e2e01 	stccs	14, cr2, [lr], {1}
    4ecc:	21000000 	mrscs	r0, (UNDEF: 0)
    4ed0:	30010076 	andcc	r0, r1, r6, ror r0
    4ed4:	00002c0e 	andeq	r2, r0, lr, lsl #24
    4ed8:	dd220000 	stcle	0, cr0, [r2, #-0]
    4edc:	0200000b 	andeq	r0, r0, #11, 0
    4ee0:	006918b1 	strhteq	r1, [r9], #-129	; 0xffffff7f
    4ee4:	07030000 	streq	r0, [r3, -r0]
    4ee8:	1f000005 	svcne	0x00000005
    4eec:	b1020078 	tstlt	r2, r8, ror r0
    4ef0:	0000692b 	andeq	r6, r0, fp, lsr #18
    4ef4:	a5230000 	strge	r0, [r3, #-0]!
    4ef8:	68000004 	stmdavs	r0, {r2}
    4efc:	600000a2 	andvs	r0, r0, r2, lsr #1
    4f00:	01000000 	mrseq	r0, (UNDEF: 0)
    4f04:	0005e49c 	muleq	r5, ip, r4
    4f08:	04b21500 	ldrteq	r1, [r2], #1280	; 0x500
    4f0c:	325c0000 	subscc	r0, ip, #0, 0
    4f10:	32580000 	subscc	r0, r8, #0, 0
    4f14:	be150000 	cdplt	0, 1, cr0, cr5, cr0, {0}
    4f18:	81000004 	tsthi	r0, r4
    4f1c:	7d000032 	stcvc	0, cr0, [r0, #-200]	; 0xffffff38
    4f20:	1b000032 	blne	4ff0 <__code_start__-0x3010>
    4f24:	000004ca 	andeq	r0, r0, sl, asr #9
    4f28:	0004d61b 	andeq	sp, r4, fp, lsl r6
    4f2c:	04e01b00 	strbteq	r1, [r0], #2816	; 0xb00
    4f30:	a5180000 	ldrge	r0, [r8, #-0]
    4f34:	70000004 	andvc	r0, r0, r4
    4f38:	000000a2 	andeq	r0, r0, r2, lsr #1
    4f3c:	00000480 	andeq	r0, r0, r0, lsl #9
    4f40:	15062801 	strne	r2, [r6, #-2049]	; 0xfffff7ff
    4f44:	000004be 			; <UNDEFINED> instruction: 0x000004be
    4f48:	000032a6 	andeq	r3, r0, r6, lsr #5
    4f4c:	000032a2 	andeq	r3, r0, r2, lsr #5
    4f50:	0004b215 	andeq	fp, r4, r5, lsl r2
    4f54:	0032cb00 	eorseq	ip, r2, r0, lsl #22
    4f58:	0032c700 	eorseq	ip, r2, r0, lsl #14
    4f5c:	04801a00 	streq	r1, [r0], #2560	; 0xa00
    4f60:	ca1c0000 	bgt	704f68 <__bss_end__+0x6f9dc8>
    4f64:	f0000004 			; <UNDEFINED> instruction: 0xf0000004
    4f68:	ec000032 	stc	0, cr0, [r0], {50}	; 0x32
    4f6c:	1c000032 	stcne	0, cr0, [r0], {50}	; 0x32
    4f70:	000004d6 	ldrdeq	r0, [r0], -r6
    4f74:	0000333c 	andeq	r3, r0, ip, lsr r3
    4f78:	00003336 	andeq	r3, r0, r6, lsr r3
    4f7c:	0004e01c 	andeq	lr, r4, ip, lsl r0
    4f80:	00339200 	eorseq	r9, r3, r0, lsl #4
    4f84:	00338a00 	eorseq	r8, r3, r0, lsl #20
    4f88:	a2a81d00 	adcge	r1, r8, #0, 26
    4f8c:	065e0000 	ldrbeq	r0, [lr], -r0
    4f90:	05ae0000 	streq	r0, [lr, #0]!
    4f94:	01120000 	tsteq	r2, r0
    4f98:	00760250 	rsbseq	r0, r6, r0, asr r2
    4f9c:	a2c41600 	sbcge	r1, r4, #0, 12
    4fa0:	066a0000 	strbteq	r0, [sl], -r0
    4fa4:	01120000 	tsteq	r2, r0
    4fa8:	01f32550 	mvnseq	r2, r0, asr r5
    4fac:	f72cf750 			; <UNDEFINED> instruction: 0xf72cf750
    4fb0:	0825f425 	stmdaeq	r5!, {r0, r2, r5, sl, ip, sp, lr, pc}
    4fb4:	cccccccd 	stclgt	12, cr12, [ip], {205}	; 0xcd
    4fb8:	00000000 	andeq	r0, r0, r0
    4fbc:	f720081e 			; <UNDEFINED> instruction: 0xf720081e
    4fc0:	2cf72525 	cfldr64cs	mvdx2, [r7], #148	; 0x94
    4fc4:	253300f7 	ldrcs	r0, [r3, #-247]!	; 0xffffff09
    4fc8:	a0808023 	addge	r8, r0, r3, lsr #32
    4fcc:	00243240 	eoreq	r3, r4, r0, asr #4
    4fd0:	23000000 	movwcs	r0, #0
    4fd4:	0000038d 	andeq	r0, r0, sp, lsl #7
    4fd8:	0000a320 	andeq	sl, r0, r0, lsr #6
    4fdc:	00000018 	andeq	r0, r0, r8, lsl r0
    4fe0:	06219c01 	strteq	r9, [r1], -r1, lsl #24
    4fe4:	9a150000 	bls	544fec <__bss_end__+0x539e4c>
    4fe8:	e8000003 	stmda	r0, {r0, r1}
    4fec:	e2000033 	and	r0, r0, #51, 0	; 0x33
    4ff0:	16000033 			; <UNDEFINED> instruction: 0x16000033
    4ff4:	0000a334 	andeq	sl, r0, r4, lsr r3
    4ff8:	0000066a 	andeq	r0, r0, sl, ror #12
    4ffc:	05500112 	ldrbeq	r0, [r0, #-274]	; 0xfffffeee
    5000:	20001c0c 	andcs	r1, r0, ip, lsl #24
    5004:	51011220 	tstpl	r1, r0, lsr #4
    5008:	01f33105 	mvnseq	r3, r5, lsl #2
    500c:	00002450 	andeq	r2, r0, r0, asr r4
    5010:	00037323 	andeq	r7, r3, r3, lsr #6
    5014:	00a33800 	adceq	r3, r3, r0, lsl #16
    5018:	00001800 	andeq	r1, r0, r0, lsl #16
    501c:	5e9c0100 	fmlple	f0, f4, f0
    5020:	15000006 	strne	r0, [r0, #-6]
    5024:	00000380 	andeq	r0, r0, r0, lsl #7
    5028:	0000341a 	andeq	r3, r0, sl, lsl r4
    502c:	00003414 	andeq	r3, r0, r4, lsl r4
    5030:	00a34c16 	adceq	r4, r3, r6, lsl ip
    5034:	00066a00 	andeq	r6, r6, r0, lsl #20
    5038:	50011200 	andpl	r1, r1, r0, lsl #4
    503c:	00280c05 	eoreq	r0, r8, r5, lsl #24
    5040:	01122020 	tsteq	r2, r0, lsr #32
    5044:	f3310551 	vqrshl.u64	q0, <illegal reg q0.5>, <illegal reg q0.5>
    5048:	00245001 	eoreq	r5, r4, r1
    504c:	08a52400 	stmiaeq	r5!, {sl, sp}
    5050:	08a50000 	stmiaeq	r5!, {}	; <UNPREDICTABLE>
    5054:	c2020000 	andgt	r0, r2, #0, 0
    5058:	0811240a 	ldmdaeq	r1, {r1, r3, sl, sp}
    505c:	08110000 	ldmdaeq	r1, {}	; <UNPREDICTABLE>
    5060:	ad020000 	stcge	0, cr0, [r2, #-0]
    5064:	01490006 	cmpeq	r9, r6
    5068:	00040000 	andeq	r0, r4, r0
    506c:	00001bb5 			; <UNDEFINED> instruction: 0x00001bb5
    5070:	051c0104 	ldreq	r0, [ip, #-260]	; 0xfffffefc
    5074:	6f0c0000 	svcvs	0x000c0000
    5078:	e200000c 	and	r0, r0, #12, 0
    507c:	00000005 	andeq	r0, r0, r5
    5080:	3c0000a4 	stccc	0, cr0, [r0], {164}	; 0xa4
    5084:	26000000 	strcs	r0, [r0], -r0
    5088:	02000028 	andeq	r0, r0, #40, 0	; 0x28
    508c:	6e690504 	cdpvs	5, 6, cr0, cr9, cr4, {0}
    5090:	04030074 	streq	r0, [r3], #-116	; 0xffffff8c
    5094:	0001d507 	andeq	sp, r1, r7, lsl #10
    5098:	06010300 	streq	r0, [r1], -r0, lsl #6
    509c:	000000cb 	andeq	r0, r0, fp, asr #1
    50a0:	22050203 	andcs	r0, r5, #805306368	; 0x30000000
    50a4:	03000000 	movweq	r0, #0
    50a8:	00570504 	subseq	r0, r7, r4, lsl #10
    50ac:	08030000 	stmdaeq	r3, {}	; <UNPREDICTABLE>
    50b0:	00005205 	andeq	r5, r0, r5, lsl #4
    50b4:	08010300 	stmdaeq	r1, {r8, r9}
    50b8:	000000c9 	andeq	r0, r0, r9, asr #1
    50bc:	0a070203 	beq	1c58d0 <__bss_end__+0x1ba730>
    50c0:	03000002 	movweq	r0, #2
    50c4:	01d00704 	bicseq	r0, r0, r4, lsl #14
    50c8:	08030000 	stmdaeq	r3, {}	; <UNPREDICTABLE>
    50cc:	0001cb07 	andeq	ip, r1, r7, lsl #22
    50d0:	00250400 	eoreq	r0, r5, r0, lsl #8
    50d4:	007a0000 	rsbseq	r0, sl, r0
    50d8:	25050000 	strcs	r0, [r5, #-0]
    50dc:	00000000 	andeq	r0, r0, r0
    50e0:	00002c06 	andeq	r2, r0, r6, lsl #24
    50e4:	0e1c0200 	cdpeq	2, 1, cr0, cr12, cr0, {0}
    50e8:	00000086 	andeq	r0, r0, r6, lsl #1
    50ec:	006b0407 	rsbeq	r0, fp, r7, lsl #8
    50f0:	25040000 	strcs	r0, [r4, #-0]
    50f4:	9b000000 	blls	50fc <__code_start__-0x2f04>
    50f8:	05000000 	streq	r0, [r0, #-0]
    50fc:	0000009b 	muleq	r0, fp, r0
    5100:	a8040700 	stmdage	r4, {r8, r9, sl}
    5104:	03000000 	movweq	r0, #0
    5108:	00d20801 	sbcseq	r0, r2, r1, lsl #16
    510c:	a1080000 	mrsge	r0, (UNDEF: 8)
    5110:	06000000 	streq	r0, [r0], -r0
    5114:	00000682 	andeq	r0, r0, r2, lsl #13
    5118:	b90e2102 	stmdblt	lr, {r1, r8, sp}
    511c:	07000000 	streq	r0, [r0, -r0]
    5120:	00008c04 	andeq	r8, r0, r4, lsl #24
    5124:	007a0900 	rsbseq	r0, sl, r0, lsl #18
    5128:	06010000 	streq	r0, [r1], -r0
    512c:	6c030507 	cfstr32vs	mvfx0, [r3], {7}
    5130:	0a0000ad 	beq	53ec <__code_start__-0x2c14>
    5134:	00000c62 	andeq	r0, r0, r2, ror #24
    5138:	2c060b01 			; <UNDEFINED> instruction: 0x2c060b01
    513c:	100000a4 	andne	r0, r0, r4, lsr #1
    5140:	01000000 	mrseq	r0, (UNDEF: 0)
    5144:	0000f19c 	muleq	r0, ip, r1
    5148:	70660b00 	rsbvc	r0, r6, r0, lsl #22
    514c:	190b0100 	stmdbne	fp, {r8}
    5150:	00000086 	andeq	r0, r0, r6, lsl #1
    5154:	0c005001 	stceq	0, cr5, [r0], {1}
    5158:	00000b9f 	muleq	r0, pc, fp	; <UNPREDICTABLE>
    515c:	14060801 	strne	r0, [r6], #-2049	; 0xfffff7ff
    5160:	180000a4 	stmdane	r0, {r2, r5, r7}
    5164:	01000000 	mrseq	r0, (UNDEF: 0)
    5168:	0c510d9c 	mrrceq	13, 9, r0, r1, cr12
    516c:	03010000 	movweq	r0, #4096	; 0x1000
    5170:	0000250c 	andeq	r2, r0, ip, lsl #10
    5174:	00a40000 	adceq	r0, r4, r0
    5178:	00001400 	andeq	r1, r0, r0, lsl #8
    517c:	409c0100 	addsmi	r0, ip, r0, lsl #2
    5180:	0e000001 	cdpeq	0, 0, cr0, cr0, cr1, {0}
    5184:	03010063 	movweq	r0, #4195	; 0x1063
    5188:	00002521 	andeq	r2, r0, r1, lsr #10
    518c:	00344a00 	eorseq	r4, r4, r0, lsl #20
    5190:	00344600 	eorseq	r4, r4, r0, lsl #12
    5194:	a40c0f00 	strge	r0, [ip], #-3840	; 0xfffff100
    5198:	01400000 	mrseq	r0, (UNDEF: 64)
    519c:	01100000 	tsteq	r0, r0
    51a0:	00740250 	rsbseq	r0, r4, r0, asr r2
    51a4:	b6110000 	ldrlt	r0, [r1], -r0
    51a8:	b600000a 	strlt	r0, [r0], -sl
    51ac:	0200000a 	andeq	r0, r0, #10, 0
    51b0:	37000642 	strcc	r0, [r0, -r2, asr #12]
    51b4:	04000001 	streq	r0, [r0], #-1
    51b8:	001cc400 	andseq	ip, ip, r0, lsl #8
    51bc:	1c010400 	cfstrsne	mvf0, [r1], {-0}
    51c0:	0c000005 	stceq	0, cr0, [r0], {5}
    51c4:	00000c80 	andeq	r0, r0, r0, lsl #25
    51c8:	000005e2 	andeq	r0, r0, r2, ror #11
    51cc:	0000a43c 	andeq	sl, r0, ip, lsr r4
    51d0:	0000002c 	andeq	r0, r0, ip, lsr #32
    51d4:	000028c8 	andeq	r2, r0, r8, asr #17
    51d8:	69050402 	stmdbvs	r5, {r1, sl}
    51dc:	0300746e 	movweq	r7, #1134	; 0x46e
    51e0:	01d50704 	bicseq	r0, r5, r4, lsl #14
    51e4:	01030000 	mrseq	r0, (UNDEF: 3)
    51e8:	0000cb06 	andeq	ip, r0, r6, lsl #22
    51ec:	05020300 	streq	r0, [r2, #-768]	; 0xfffffd00
    51f0:	00000022 	andeq	r0, r0, r2, lsr #32
    51f4:	57050403 	strpl	r0, [r5, -r3, lsl #8]
    51f8:	03000000 	movweq	r0, #0
    51fc:	00520508 	subseq	r0, r2, r8, lsl #10
    5200:	01030000 	mrseq	r0, (UNDEF: 3)
    5204:	0000c908 	andeq	ip, r0, r8, lsl #18
    5208:	07020300 	streq	r0, [r2, -r0, lsl #6]
    520c:	0000020a 	andeq	r0, r0, sl, lsl #4
    5210:	d0070403 	andle	r0, r7, r3, lsl #8
    5214:	03000001 	movweq	r0, #1
    5218:	01cb0708 	biceq	r0, fp, r8, lsl #14
    521c:	25040000 	strcs	r0, [r4, #-0]
    5220:	7a000000 	bvc	5228 <__code_start__-0x2dd8>
    5224:	05000000 	streq	r0, [r0, #-0]
    5228:	00000025 	andeq	r0, r0, r5, lsr #32
    522c:	002c0600 	eoreq	r0, ip, r0, lsl #12
    5230:	1c020000 	stcne	0, cr0, [r2], {-0}
    5234:	0000860e 	andeq	r8, r0, lr, lsl #12
    5238:	6b040700 	blvs	106e40 <__bss_end__+0xfbca0>
    523c:	04000000 	streq	r0, [r0], #-0
    5240:	00000025 	andeq	r0, r0, r5, lsr #32
    5244:	0000009b 	muleq	r0, fp, r0
    5248:	00009b05 	andeq	r9, r0, r5, lsl #22
    524c:	04070000 	streq	r0, [r7], #-0
    5250:	000000a8 	andeq	r0, r0, r8, lsr #1
    5254:	d2080103 	andle	r0, r8, #-1073741824	; 0xc0000000
    5258:	08000000 	stmdaeq	r0, {}	; <UNPREDICTABLE>
    525c:	000000a1 	andeq	r0, r0, r1, lsr #1
    5260:	00068206 	andeq	r8, r6, r6, lsl #4
    5264:	0e210200 	cdpeq	2, 2, cr0, cr1, cr0, {0}
    5268:	000000b9 	strheq	r0, [r0], -r9
    526c:	008c0407 	addeq	r0, ip, r7, lsl #8
    5270:	ef090000 	svc	0x00090000
    5274:	01000006 	tsteq	r0, r6
    5278:	01340704 	teqeq	r4, r4, lsl #14
    527c:	a43c0000 	ldrtge	r0, [ip], #-0
    5280:	002c0000 	eoreq	r0, ip, r0
    5284:	9c010000 	stcls	0, cr0, [r1], {-0}
    5288:	00000134 	andeq	r0, r0, r4, lsr r1
    528c:	000c900a 	andeq	r9, ip, sl
    5290:	15040100 	strne	r0, [r4, #-256]	; 0xffffff00
    5294:	00000134 	andeq	r0, r0, r4, lsr r1
    5298:	730b5001 	movwvc	r5, #45057	; 0xb001
    529c:	01006372 	tsteq	r0, r2, ror r3
    52a0:	009b2704 	addseq	r2, fp, r4, lsl #14
    52a4:	346c0000 	strbtcc	r0, [ip], #-0
    52a8:	34680000 	strbtcc	r0, [r8], #-0
    52ac:	730c0000 	movwvc	r0, #49152	; 0xc000
    52b0:	05010031 	streq	r0, [r1, #-49]	; 0xffffffcf
    52b4:	0001340b 	andeq	r3, r1, fp, lsl #8
    52b8:	00349b00 	eorseq	r9, r4, r0, lsl #22
    52bc:	00348d00 	eorseq	r8, r4, r0, lsl #26
    52c0:	32730c00 	rsbscc	r0, r3, #0, 24
    52c4:	11060100 	mrsne	r0, (UNDEF: 22)
    52c8:	0000009b 	muleq	r0, fp, r0
    52cc:	000034fa 	strdeq	r3, [r0], -sl
    52d0:	000034f4 	strdeq	r3, [r0], -r4
    52d4:	0100630c 	tsteq	r0, ip, lsl #6
    52d8:	00a10a07 	adceq	r0, r1, r7, lsl #20
    52dc:	352b0000 	strcc	r0, [fp, #-0]!
    52e0:	35250000 	strcc	r0, [r5, #-0]!
    52e4:	07000000 	streq	r0, [r0, -r0]
    52e8:	0000a104 	andeq	sl, r0, r4, lsl #2
    52ec:	00f70000 	rscseq	r0, r7, r0
    52f0:	00040000 	andeq	r0, r4, r0
    52f4:	00001d7a 	andeq	r1, r0, sl, ror sp
    52f8:	051c0104 	ldreq	r0, [ip, #-260]	; 0xfffffefc
    52fc:	950c0000 	strls	r0, [ip, #-0]
    5300:	e200000c 	and	r0, r0, #12, 0
    5304:	68000005 	stmdavs	r0, {r0, r2}
    5308:	440000a4 	strmi	r0, [r0], #-164	; 0xffffff5c
    530c:	ae000000 	cdpge	0, 0, cr0, cr0, cr0, {0}
    5310:	02000029 	andeq	r0, r0, #41, 0	; 0x29
    5314:	6e690504 	cdpvs	5, 6, cr0, cr9, cr4, {0}
    5318:	04030074 	streq	r0, [r3], #-116	; 0xffffff8c
    531c:	0001d507 	andeq	sp, r1, r7, lsl #10
    5320:	06010300 	streq	r0, [r1], -r0, lsl #6
    5324:	000000cb 	andeq	r0, r0, fp, asr #1
    5328:	22050203 	andcs	r0, r5, #805306368	; 0x30000000
    532c:	03000000 	movweq	r0, #0
    5330:	00570504 	subseq	r0, r7, r4, lsl #10
    5334:	08030000 	stmdaeq	r3, {}	; <UNPREDICTABLE>
    5338:	00005205 	andeq	r5, r0, r5, lsl #4
    533c:	08010300 	stmdaeq	r1, {r8, r9}
    5340:	000000c9 	andeq	r0, r0, r9, asr #1
    5344:	0a070203 	beq	1c5b58 <__bss_end__+0x1ba9b8>
    5348:	03000002 	movweq	r0, #2
    534c:	01d00704 	bicseq	r0, r0, r4, lsl #14
    5350:	08030000 	stmdaeq	r3, {}	; <UNPREDICTABLE>
    5354:	0001cb07 	andeq	ip, r1, r7, lsl #22
    5358:	00250400 	eoreq	r0, r5, r0, lsl #8
    535c:	007a0000 	rsbseq	r0, sl, r0
    5360:	25050000 	strcs	r0, [r5, #-0]
    5364:	00000000 	andeq	r0, r0, r0
    5368:	00002c06 	andeq	r2, r0, r6, lsl #24
    536c:	0e1c0200 	cdpeq	2, 1, cr0, cr12, cr0, {0}
    5370:	00000086 	andeq	r0, r0, r6, lsl #1
    5374:	006b0407 	rsbeq	r0, fp, r7, lsl #8
    5378:	25040000 	strcs	r0, [r4, #-0]
    537c:	9b000000 	blls	5384 <__code_start__-0x2c7c>
    5380:	05000000 	streq	r0, [r0, #-0]
    5384:	0000009b 	muleq	r0, fp, r0
    5388:	a8040700 	stmdage	r4, {r8, r9, sl}
    538c:	03000000 	movweq	r0, #0
    5390:	00d20801 	sbcseq	r0, r2, r1, lsl #16
    5394:	a1080000 	mrsge	r0, (UNDEF: 8)
    5398:	06000000 	streq	r0, [r0], -r0
    539c:	00000682 	andeq	r0, r0, r2, lsl #13
    53a0:	b90e2102 	stmdblt	lr, {r1, r8, sp}
    53a4:	07000000 	streq	r0, [r0, -r0]
    53a8:	00008c04 	andeq	r8, r0, r4, lsl #24
    53ac:	071d0900 	ldreq	r0, [sp, -r0, lsl #18]
    53b0:	03010000 	movweq	r0, #4096	; 0x1000
    53b4:	00002505 	andeq	r2, r0, r5, lsl #10
    53b8:	00a46800 	adceq	r6, r4, r0, lsl #16
    53bc:	00004400 	andeq	r4, r0, r0, lsl #8
    53c0:	0a9c0100 	beq	fe7057c8 <__bss_end__+0xfe6fa628>
    53c4:	03010061 	movweq	r0, #4193	; 0x1061
    53c8:	00009b18 	andeq	r9, r0, r8, lsl fp
    53cc:	00356200 	eorseq	r6, r5, r0, lsl #4
    53d0:	00355600 	eorseq	r5, r5, r0, lsl #12
    53d4:	00620a00 	rsbeq	r0, r2, r0, lsl #20
    53d8:	9b270301 	blls	9c5fe4 <__bss_end__+0x9bae44>
    53dc:	b6000000 	strlt	r0, [r0], -r0
    53e0:	b0000035 	andlt	r0, r0, r5, lsr r0
    53e4:	00000035 	andeq	r0, r0, r5, lsr r0
    53e8:	00010f00 	andeq	r0, r1, r0, lsl #30
    53ec:	09000400 	stmdbeq	r0, {sl}
    53f0:	0400001e 	streq	r0, [r0], #-30	; 0xffffffe2
    53f4:	00051c01 	andeq	r1, r5, r1, lsl #24
    53f8:	0ca50c00 	stceq	12, cr0, [r5]
    53fc:	05e20000 	strbeq	r0, [r2, #0]!
    5400:	a4ac0000 	strtge	r0, [ip], #0
    5404:	00180000 	andseq	r0, r8, r0
    5408:	2a640000 	bcs	1905410 <__bss_end__+0x18fa270>
    540c:	04020000 	streq	r0, [r2], #-0
    5410:	746e6905 	strbtvc	r6, [lr], #-2309	; 0xfffff6fb
    5414:	07040300 	streq	r0, [r4, -r0, lsl #6]
    5418:	000001d5 	ldrdeq	r0, [r0], -r5
    541c:	cb060103 	blgt	185830 <__bss_end__+0x17a690>
    5420:	03000000 	movweq	r0, #0
    5424:	00220502 	eoreq	r0, r2, r2, lsl #10
    5428:	04030000 	streq	r0, [r3], #-0
    542c:	00005705 	andeq	r5, r0, r5, lsl #14
    5430:	05080300 	streq	r0, [r8, #-768]	; 0xfffffd00
    5434:	00000052 	andeq	r0, r0, r2, asr r0
    5438:	c9080103 	stmdbgt	r8, {r0, r1, r8}
    543c:	03000000 	movweq	r0, #0
    5440:	020a0702 	andeq	r0, sl, #524288	; 0x80000
    5444:	04030000 	streq	r0, [r3], #-0
    5448:	0001d007 	andeq	sp, r1, r7
    544c:	07080300 	streq	r0, [r8, -r0, lsl #6]
    5450:	000001cb 	andeq	r0, r0, fp, asr #3
    5454:	00002504 	andeq	r2, r0, r4, lsl #10
    5458:	00007a00 	andeq	r7, r0, r0, lsl #20
    545c:	00250500 	eoreq	r0, r5, r0, lsl #10
    5460:	06000000 	streq	r0, [r0], -r0
    5464:	0000002c 	andeq	r0, r0, ip, lsr #32
    5468:	860e1c02 	strhi	r1, [lr], -r2, lsl #24
    546c:	07000000 	streq	r0, [r0, -r0]
    5470:	00006b04 	andeq	r6, r0, r4, lsl #22
    5474:	00250400 	eoreq	r0, r5, r0, lsl #8
    5478:	009b0000 	addseq	r0, fp, r0
    547c:	9b050000 	blls	145484 <__bss_end__+0x13a2e4>
    5480:	00000000 	andeq	r0, r0, r0
    5484:	00a80407 	adceq	r0, r8, r7, lsl #8
    5488:	01030000 	mrseq	r0, (UNDEF: 3)
    548c:	0000d208 	andeq	sp, r0, r8, lsl #4
    5490:	00a10800 	adceq	r0, r1, r0, lsl #16
    5494:	82060000 	andhi	r0, r6, #0, 0
    5498:	02000006 	andeq	r0, r0, #6, 0
    549c:	00b90e21 	adcseq	r0, r9, r1, lsr #28
    54a0:	04070000 	streq	r0, [r7], #-0
    54a4:	0000008c 	andeq	r0, r0, ip, lsl #1
    54a8:	0006f609 	andeq	pc, r6, r9, lsl #12
    54ac:	07030100 	streq	r0, [r3, -r0, lsl #2]
    54b0:	0000010c 	andeq	r0, r0, ip, lsl #2
    54b4:	0000a4ac 	andeq	sl, r0, ip, lsr #9
    54b8:	00000018 	andeq	r0, r0, r8, lsl r0
    54bc:	010c9c01 	tsteq	ip, r1, lsl #24
    54c0:	730a0000 	movwvc	r0, #40960	; 0xa000
    54c4:	03010031 	movweq	r0, #4145	; 0x1031
    54c8:	00010c15 	andeq	r0, r1, r5, lsl ip
    54cc:	0b500100 	bleq	14058d4 <__bss_end__+0x13fa734>
    54d0:	01003273 	tsteq	r0, r3, ror r2
    54d4:	009b2603 	addseq	r2, fp, r3, lsl #12
    54d8:	35e50000 	strbcc	r0, [r5, #0]!
    54dc:	35df0000 	ldrbcc	r0, [pc]	; 54e4 <__code_start__-0x2b1c>
    54e0:	730c0000 	movwvc	r0, #49152	; 0xc000
    54e4:	14040100 	strne	r0, [r4], #-256	; 0xffffff00
    54e8:	0000010c 	andeq	r0, r0, ip, lsl #2
    54ec:	00003612 	andeq	r3, r0, r2, lsl r6
    54f0:	00003610 	andeq	r3, r0, r0, lsl r6
    54f4:	a1040700 	tstge	r4, r0, lsl #14
    54f8:	00000000 	andeq	r0, r0, r0
    54fc:	0000014e 	andeq	r0, r0, lr, asr #2
    5500:	1ebf0004 	cdpne	0, 11, cr0, cr15, cr4, {0}
    5504:	01040000 	mrseq	r0, (UNDEF: 4)
    5508:	0000051c 	andeq	r0, r0, ip, lsl r5
    550c:	000cb50c 	andeq	fp, ip, ip, lsl #10
    5510:	0005e200 	andeq	lr, r5, r0, lsl #4
    5514:	00a4c400 	adceq	ip, r4, r0, lsl #8
    5518:	00003000 	andeq	r3, r0, r0
    551c:	002b0500 	eoreq	r0, fp, r0, lsl #10
    5520:	05040200 	streq	r0, [r4, #-512]	; 0xfffffe00
    5524:	00746e69 	rsbseq	r6, r4, r9, ror #28
    5528:	00062503 	andeq	r2, r6, r3, lsl #10
    552c:	17d10300 	ldrbne	r0, [r1, r0, lsl #6]
    5530:	00000038 	andeq	r0, r0, r8, lsr r0
    5534:	d5070404 	strle	r0, [r7, #-1028]	; 0xfffffbfc
    5538:	04000001 	streq	r0, [r0], #-1
    553c:	00cb0601 	sbceq	r0, fp, r1, lsl #12
    5540:	02040000 	andeq	r0, r4, #0, 0
    5544:	00002205 	andeq	r2, r0, r5, lsl #4
    5548:	05040400 	streq	r0, [r4, #-1024]	; 0xfffffc00
    554c:	00000057 	andeq	r0, r0, r7, asr r0
    5550:	52050804 	andpl	r0, r5, #4, 16	; 0x40000
    5554:	04000000 	streq	r0, [r0], #-0
    5558:	00c90801 	sbceq	r0, r9, r1, lsl #16
    555c:	5b050000 	blpl	145564 <__bss_end__+0x13a3c4>
    5560:	04000000 	streq	r0, [r0], #-0
    5564:	020a0702 	andeq	r0, sl, #524288	; 0x80000
    5568:	04040000 	streq	r0, [r4], #-0
    556c:	0001d007 	andeq	sp, r1, r7
    5570:	07080400 	streq	r0, [r8, -r0, lsl #8]
    5574:	000001cb 	andeq	r0, r0, fp, asr #3
    5578:	00002506 	andeq	r2, r0, r6, lsl #10
    557c:	00008b00 	andeq	r8, r0, r0, lsl #22
    5580:	00250700 	eoreq	r0, r5, r0, lsl #14
    5584:	08000000 	stmdaeq	r0, {}	; <UNPREDICTABLE>
    5588:	0000002c 	andeq	r0, r0, ip, lsr #32
    558c:	970e1c02 	strls	r1, [lr, -r2, lsl #24]
    5590:	09000000 	stmdbeq	r0, {}	; <UNPREDICTABLE>
    5594:	00007c04 	andeq	r7, r0, r4, lsl #24
    5598:	00250600 	eoreq	r0, r5, r0, lsl #12
    559c:	00ac0000 	adceq	r0, ip, r0
    55a0:	ac070000 	stcge	0, cr0, [r7], {-0}
    55a4:	00000000 	andeq	r0, r0, r0
    55a8:	00b90409 	adcseq	r0, r9, r9, lsl #8
    55ac:	01040000 	mrseq	r0, (UNDEF: 4)
    55b0:	0000d208 	andeq	sp, r0, r8, lsl #4
    55b4:	00b20500 	adcseq	r0, r2, r0, lsl #10
    55b8:	82080000 	andhi	r0, r8, #0, 0
    55bc:	02000006 	andeq	r0, r0, #6, 0
    55c0:	00ca0e21 	sbceq	r0, sl, r1, lsr #28
    55c4:	04090000 	streq	r0, [r9], #-0
    55c8:	0000009d 	muleq	r0, sp, r0
    55cc:	00073e0a 	andeq	r3, r7, sl, lsl #28
    55d0:	05040100 	streq	r0, [r4, #-256]	; 0xffffff00
    55d4:	00000025 	andeq	r0, r0, r5, lsr #32
    55d8:	0000a4c4 	andeq	sl, r0, r4, asr #9
    55dc:	00000030 	andeq	r0, r0, r0, lsr r0
    55e0:	014b9c01 	cmpeq	fp, r1, lsl #24
    55e4:	5f0b0000 	svcpl	0x000b0000
    55e8:	01003173 	tsteq	r0, r3, ror r1
    55ec:	00ac1904 	adceq	r1, ip, r4, lsl #18
    55f0:	36290000 	strtcc	r0, [r9], -r0
    55f4:	36250000 	strtcc	r0, [r5], -r0
    55f8:	5f0b0000 	svcpl	0x000b0000
    55fc:	01003273 	tsteq	r0, r3, ror r2
    5600:	00ac2a04 	adceq	r2, ip, r4, lsl #20
    5604:	364e0000 	strbcc	r0, [lr], -r0
    5608:	364a0000 	strbcc	r0, [sl], -r0
    560c:	6e0b0000 	cdpvs	0, 0, cr0, cr11, cr0, {0}
    5610:	36040100 	strcc	r0, [r4], -r0, lsl #2
    5614:	0000002c 	andeq	r0, r0, ip, lsr #32
    5618:	00003679 	andeq	r3, r0, r9, ror r6
    561c:	0000366f 	andeq	r3, r0, pc, ror #12
    5620:	0031730c 	eorseq	r7, r1, ip, lsl #6
    5624:	4b1a0501 	blmi	686a30 <__bss_end__+0x67b890>
    5628:	d0000001 	andle	r0, r0, r1
    562c:	c8000036 	stmdagt	r0, {r1, r2, r4, r5}
    5630:	0c000036 	stceq	0, cr0, [r0], {54}	; 0x36
    5634:	01003273 	tsteq	r0, r3, ror r2
    5638:	014b2c05 	cmpeq	fp, r5, lsl #24
    563c:	370e0000 	strcc	r0, [lr, -r0]
    5640:	37080000 	strcc	r0, [r8, -r0]
    5644:	09000000 	stmdbeq	r0, {}	; <UNPREDICTABLE>
    5648:	00006204 	andeq	r6, r0, r4, lsl #4
    564c:	00ce0000 	sbceq	r0, lr, r0
    5650:	00040000 	andeq	r0, r4, r0
    5654:	00001f73 	andeq	r1, r0, r3, ror pc
    5658:	051c0104 	ldreq	r0, [ip, #-260]	; 0xfffffefc
    565c:	c60c0000 	strgt	r0, [ip], -r0
    5660:	e200000c 	and	r0, r0, #12, 0
    5664:	f4000005 	vst4.8	{d0-d3}, [r0], r5
    5668:	040000a4 	streq	r0, [r0], #-164	; 0xffffff5c
    566c:	06000000 	streq	r0, [r0], -r0
    5670:	0200002c 	andeq	r0, r0, #44, 0	; 0x2c
    5674:	6e690504 	cdpvs	5, 6, cr0, cr9, cr4, {0}
    5678:	04030074 	streq	r0, [r3], #-116	; 0xffffff8c
    567c:	0001d507 	andeq	sp, r1, r7, lsl #10
    5680:	06010300 	streq	r0, [r1], -r0, lsl #6
    5684:	000000cb 	andeq	r0, r0, fp, asr #1
    5688:	22050203 	andcs	r0, r5, #805306368	; 0x30000000
    568c:	03000000 	movweq	r0, #0
    5690:	00570504 	subseq	r0, r7, r4, lsl #10
    5694:	08030000 	stmdaeq	r3, {}	; <UNPREDICTABLE>
    5698:	00005205 	andeq	r5, r0, r5, lsl #4
    569c:	08010300 	stmdaeq	r1, {r8, r9}
    56a0:	000000c9 	andeq	r0, r0, r9, asr #1
    56a4:	0a070203 	beq	1c5eb8 <__bss_end__+0x1bad18>
    56a8:	03000002 	movweq	r0, #2
    56ac:	01d00704 	bicseq	r0, r0, r4, lsl #14
    56b0:	08030000 	stmdaeq	r3, {}	; <UNPREDICTABLE>
    56b4:	0001cb07 	andeq	ip, r1, r7, lsl #22
    56b8:	00250400 	eoreq	r0, r5, r0, lsl #8
    56bc:	007a0000 	rsbseq	r0, sl, r0
    56c0:	25050000 	strcs	r0, [r5, #-0]
    56c4:	00000000 	andeq	r0, r0, r0
    56c8:	00002c06 	andeq	r2, r0, r6, lsl #24
    56cc:	0e1c0200 	cdpeq	2, 1, cr0, cr12, cr0, {0}
    56d0:	00000086 	andeq	r0, r0, r6, lsl #1
    56d4:	006b0407 	rsbeq	r0, fp, r7, lsl #8
    56d8:	25040000 	strcs	r0, [r4, #-0]
    56dc:	9b000000 	blls	56e4 <__code_start__-0x291c>
    56e0:	05000000 	streq	r0, [r0, #-0]
    56e4:	0000009b 	muleq	r0, fp, r0
    56e8:	a8040700 	stmdage	r4, {r8, r9, sl}
    56ec:	03000000 	movweq	r0, #0
    56f0:	00d20801 	sbcseq	r0, r2, r1, lsl #16
    56f4:	a1080000 	mrsge	r0, (UNDEF: 8)
    56f8:	06000000 	streq	r0, [r0], -r0
    56fc:	00000682 	andeq	r0, r0, r2, lsl #13
    5700:	b90e2102 	stmdblt	lr, {r1, r8, sp}
    5704:	07000000 	streq	r0, [r0, -r0]
    5708:	00008c04 	andeq	r8, r0, r4, lsl #24
    570c:	07fa0900 	ldrbeq	r0, [sl, r0, lsl #18]!
    5710:	03010000 	movweq	r0, #4096	; 0x1000
    5714:	00a4f406 	adceq	pc, r4, r6, lsl #8
    5718:	00000400 	andeq	r0, r0, r0, lsl #8
    571c:	009c0100 	addseq	r0, ip, r0, lsl #2

Disassembly of section .debug_abbrev:

00000000 <.debug_abbrev>:
       0:	25011101 	strcs	r1, [r1, #-257]	; 0xfffffeff
       4:	030b130e 	movweq	r1, #45838	; 0xb30e
       8:	110e1b0e 	tstne	lr, lr, lsl #22
       c:	10061201 	andne	r1, r6, r1, lsl #4
      10:	02000017 	andeq	r0, r0, #23, 0
      14:	0b0b0024 	bleq	2c00ac <__bss_end__+0x2b4f0c>
      18:	08030b3e 	stmdaeq	r3, {r1, r2, r3, r4, r5, r8, r9, fp}
      1c:	24030000 	strcs	r0, [r3], #-0
      20:	3e0b0b00 	vmlacc.f64	d0, d11, d0
      24:	000e030b 	andeq	r0, lr, fp, lsl #6
      28:	00160400 	andseq	r0, r6, r0, lsl #8
      2c:	0b3a0e03 	bleq	e83840 <__bss_end__+0xe786a0>
      30:	0b390b3b 	bleq	e42d24 <__bss_end__+0xe37b84>
      34:	00001349 	andeq	r1, r0, r9, asr #6
      38:	27011505 	strcs	r1, [r1, -r5, lsl #10]
      3c:	01134919 	tsteq	r3, r9, lsl r9
      40:	06000013 			; <UNDEFINED> instruction: 0x06000013
      44:	13490005 	movtne	r0, #36869	; 0x9005
      48:	34070000 	strcc	r0, [r7], #-0
      4c:	3a0e0300 	bcc	380c54 <__bss_end__+0x375ab4>
      50:	390b3b0b 	stmdbcc	fp, {r0, r1, r3, r8, r9, fp, ip, sp}
      54:	3f13490b 	svccc	0x0013490b
      58:	00193c19 	andseq	r3, r9, r9, lsl ip
      5c:	000f0800 	andeq	r0, pc, r0, lsl #16
      60:	13490b0b 	movtne	r0, #39691	; 0x9b0b
      64:	26090000 	strcs	r0, [r9], -r0
      68:	00134900 	andseq	r4, r3, r0, lsl #18
      6c:	01130a00 	tsteq	r3, r0, lsl #20
      70:	0b3a0b0b 	bleq	e82ca4 <__bss_end__+0xe77b04>
      74:	0b390b3b 	bleq	e42d68 <__bss_end__+0xe37bc8>
      78:	00001301 	andeq	r1, r0, r1, lsl #6
      7c:	03000d0b 	movweq	r0, #3339	; 0xd0b
      80:	3b0b3a0e 	blcc	2ce8c0 <__bss_end__+0x2c3720>
      84:	490b390b 	stmdbmi	fp, {r0, r1, r3, r8, fp, ip, sp}
      88:	000b3813 	andeq	r3, fp, r3, lsl r8
      8c:	01130c00 	tsteq	r3, r0, lsl #24
      90:	0b0b0e03 	bleq	2c38a4 <__bss_end__+0x2b8704>
      94:	0b3b0b3a 	bleq	ec2d84 <__bss_end__+0xeb7be4>
      98:	13010b39 	movwne	r0, #6969	; 0x1b39
      9c:	0d0d0000 	stceq	0, cr0, [sp, #-0]
      a0:	3a080300 	bcc	200ca8 <__bss_end__+0x1f5b08>
      a4:	390b3b0b 	stmdbcc	fp, {r0, r1, r3, r8, r9, fp, ip, sp}
      a8:	3813490b 	ldmdacc	r3, {r0, r1, r3, r8, fp, lr}
      ac:	0e00000b 	cdpeq	0, 0, cr0, cr0, cr11, {0}
      b0:	13490101 	movtne	r0, #37121	; 0x9101
      b4:	00001301 	andeq	r1, r0, r1, lsl #6
      b8:	4900210f 	stmdbmi	r0, {r0, r1, r2, r3, r8, sp}
      bc:	000b2f13 	andeq	r2, fp, r3, lsl pc
      c0:	000f1000 	andeq	r1, pc, r0
      c4:	00000b0b 	andeq	r0, r0, fp, lsl #22
      c8:	3f012e11 	svccc	0x00012e11
      cc:	3a0e0319 	bcc	380d38 <__bss_end__+0x375b98>
      d0:	390b3b0b 	stmdbcc	fp, {r0, r1, r3, r8, r9, fp, ip, sp}
      d4:	1119270b 	tstne	r9, fp, lsl #14
      d8:	40061201 	andmi	r1, r6, r1, lsl #4
      dc:	19429718 	stmdbne	r2, {r3, r4, r8, r9, sl, ip, pc}^
      e0:	00001301 	andeq	r1, r0, r1, lsl #6
      e4:	03003412 	movweq	r3, #1042	; 0x412
      e8:	3b0b3a08 	blcc	2ce910 <__bss_end__+0x2c3770>
      ec:	490b390b 	stmdbmi	fp, {r0, r1, r3, r8, fp, ip, sp}
      f0:	b7170213 			; <UNDEFINED> instruction: 0xb7170213
      f4:	00001742 	andeq	r1, r0, r2, asr #14
      f8:	01828913 	orreq	r8, r2, r3, lsl r9
      fc:	31011101 	tstcc	r1, r1, lsl #2
     100:	00130113 	andseq	r0, r3, r3, lsl r1
     104:	828a1400 	addhi	r1, sl, #0, 8
     108:	18020001 	stmdane	r2, {r0}
     10c:	00184291 	mulseq	r8, r1, r2
     110:	82891500 	addhi	r1, r9, #0, 10
     114:	01110001 	tsteq	r1, r1
     118:	00001331 	andeq	r1, r0, r1, lsr r3
     11c:	01828916 	orreq	r8, r2, r6, lsl r9
     120:	31011101 	tstcc	r1, r1, lsl #2
     124:	17000013 	smladne	r0, r3, r0, r0
     128:	193f012e 	ldmdbne	pc!, {r1, r2, r3, r5, r8}	; <UNPREDICTABLE>
     12c:	0b3a0e03 	bleq	e83940 <__bss_end__+0xe787a0>
     130:	0b390b3b 	bleq	e42e24 <__bss_end__+0xe37c84>
     134:	13491927 	movtne	r1, #39207	; 0x9927
     138:	06120111 			; <UNDEFINED> instruction: 0x06120111
     13c:	42971840 	addsmi	r1, r7, #64, 16	; 0x400000
     140:	00130119 	andseq	r0, r3, r9, lsl r1
     144:	00341800 	eorseq	r1, r4, r0, lsl #16
     148:	13490e03 	movtne	r0, #40451	; 0x9e03
     14c:	18021934 	stmdane	r2, {r2, r4, r5, r8, fp, ip}
     150:	0b190000 	bleq	640158 <__bss_end__+0x634fb8>
     154:	01175501 	tsteq	r7, r1, lsl #10
     158:	1a000013 	bne	1ac <__code_start__-0x7e54>
     15c:	1755010b 	ldrbne	r0, [r5, -fp, lsl #2]
     160:	1d1b0000 	ldcne	0, cr0, [fp, #-0]
     164:	52133101 	andspl	r3, r3, #1073741824	; 0x40000000
     168:	0b42b801 	bleq	10ae174 <__bss_end__+0x10a2fd4>
     16c:	06120111 			; <UNDEFINED> instruction: 0x06120111
     170:	0b590b58 	bleq	1642ed8 <__bss_end__+0x1637d38>
     174:	13010b57 	movwne	r0, #6999	; 0x1b57
     178:	051c0000 	ldreq	r0, [ip, #-0]
     17c:	02133100 	andseq	r3, r3, #0
     180:	1742b717 	smlaldne	fp, r2, r7, r7
     184:	2e1d0000 	cdpcs	0, 1, cr0, cr13, cr0, {0}
     188:	3a0e0301 	bcc	380d94 <__bss_end__+0x375bf4>
     18c:	390b3b0b 	stmdbcc	fp, {r0, r1, r3, r8, r9, fp, ip, sp}
     190:	4919270b 	ldmdbmi	r9, {r0, r1, r3, r8, r9, sl, sp}
     194:	12011113 	andne	r1, r1, #-1073741820	; 0xc0000004
     198:	97184006 	ldrls	r4, [r8, -r6]
     19c:	13011942 	movwne	r1, #6466	; 0x1942
     1a0:	051e0000 	ldreq	r0, [lr, #-0]
     1a4:	3a080300 	bcc	200dac <__bss_end__+0x1f5c0c>
     1a8:	390b3b0b 	stmdbcc	fp, {r0, r1, r3, r8, r9, fp, ip, sp}
     1ac:	0213490b 	andseq	r4, r3, #180224	; 0x2c000
     1b0:	1742b717 	smlaldne	fp, r2, r7, r7
     1b4:	2e1f0000 	cdpcs	0, 1, cr0, cr15, cr0, {0}
     1b8:	3a0e0301 	bcc	380dc4 <__bss_end__+0x375c24>
     1bc:	390b3b0b 	stmdbcc	fp, {r0, r1, r3, r8, r9, fp, ip, sp}
     1c0:	4919270b 	ldmdbmi	r9, {r0, r1, r3, r8, r9, sl, sp}
     1c4:	010b2013 	tsteq	fp, r3, lsl r0
     1c8:	20000013 	andcs	r0, r0, r3, lsl r0
     1cc:	0e030005 	cdpeq	0, 0, cr0, cr3, cr5, {0}
     1d0:	0b3b0b3a 	bleq	ec2ec0 <__bss_end__+0xeb7d20>
     1d4:	13490b39 	movtne	r0, #39737	; 0x9b39
     1d8:	2e210000 	cdpcs	0, 2, cr0, cr1, cr0, {0}
     1dc:	3c193f00 	ldccc	15, cr3, [r9], {-0}
     1e0:	030e6e19 	movweq	r6, #60953	; 0xee19
     1e4:	3b0b3a0e 	blcc	2cea24 <__bss_end__+0x2c3884>
     1e8:	000b390b 	andeq	r3, fp, fp, lsl #18
     1ec:	00362200 	eorseq	r2, r6, r0, lsl #4
     1f0:	00001802 	andeq	r1, r0, r2, lsl #16
     1f4:	01110100 	tsteq	r1, r0, lsl #2
     1f8:	0b130e25 	bleq	4c3a94 <__bss_end__+0x4b88f4>
     1fc:	0e1b0e03 	cdpeq	14, 1, cr0, cr11, cr3, {0}
     200:	06120111 			; <UNDEFINED> instruction: 0x06120111
     204:	00001710 	andeq	r1, r0, r0, lsl r7
     208:	0b002402 	bleq	9218 <emit.constprop.0+0x204>
     20c:	030b3e0b 	movweq	r3, #48651	; 0xbe0b
     210:	03000008 	movweq	r0, #8
     214:	0b0b0024 	bleq	2c02ac <__bss_end__+0x2b510c>
     218:	0e030b3e 	vmoveq.16	d3[0], r0
     21c:	16040000 	strne	r0, [r4], -r0
     220:	3a0e0300 	bcc	380e28 <__bss_end__+0x375c88>
     224:	390b3b0b 	stmdbcc	fp, {r0, r1, r3, r8, r9, fp, ip, sp}
     228:	0013490b 	andseq	r4, r3, fp, lsl #18
     22c:	01150500 	tsteq	r5, r0, lsl #10
     230:	13491927 	movtne	r1, #39207	; 0x9927
     234:	00001301 	andeq	r1, r0, r1, lsl #6
     238:	49000506 	stmdbmi	r0, {r1, r2, r8, sl}
     23c:	07000013 	smladeq	r0, r3, r0, r0
     240:	0e030034 	mcreq	0, 0, r0, cr3, cr4, {1}
     244:	0b3b0b3a 	bleq	ec2f34 <__bss_end__+0xeb7d94>
     248:	13490b39 	movtne	r0, #39737	; 0x9b39
     24c:	193c193f 	ldmdbne	ip!, {r0, r1, r2, r3, r4, r5, r8, fp, ip}
     250:	0f080000 	svceq	0x00080000
     254:	490b0b00 	stmdbmi	fp, {r8, r9, fp}
     258:	09000013 	stmdbeq	r0, {r0, r1, r4}
     25c:	13490026 	movtne	r0, #36902	; 0x9026
     260:	130a0000 	movwne	r0, #40960	; 0xa000
     264:	3a0b0b01 	bcc	2c2e70 <__bss_end__+0x2b7cd0>
     268:	390b3b0b 	stmdbcc	fp, {r0, r1, r3, r8, r9, fp, ip, sp}
     26c:	0013010b 	andseq	r0, r3, fp, lsl #2
     270:	000d0b00 	andeq	r0, sp, r0, lsl #22
     274:	0b3a0e03 	bleq	e83a88 <__bss_end__+0xe788e8>
     278:	0b390b3b 	bleq	e42f6c <__bss_end__+0xe37dcc>
     27c:	0b381349 	bleq	e04fa8 <__bss_end__+0xdf9e08>
     280:	040c0000 	streq	r0, [ip], #-0
     284:	0b0b3e01 	bleq	2cfa90 <__bss_end__+0x2c48f0>
     288:	3a13490b 	bcc	4d26bc <__bss_end__+0x4c751c>
     28c:	390b3b0b 	stmdbcc	fp, {r0, r1, r3, r8, r9, fp, ip, sp}
     290:	0013010b 	andseq	r0, r3, fp, lsl #2
     294:	00280d00 	eoreq	r0, r8, r0, lsl #26
     298:	0b1c0e03 	bleq	703aac <__bss_end__+0x6f890c>
     29c:	130e0000 	movwne	r0, #57344	; 0xe000
     2a0:	0b0e0301 	bleq	380eac <__bss_end__+0x375d0c>
     2a4:	3b0b3a0b 	blcc	2cead8 <__bss_end__+0x2c3938>
     2a8:	010b390b 	tsteq	fp, fp, lsl #18
     2ac:	0f000013 	svceq	0x00000013
     2b0:	0803000d 	stmdaeq	r3, {r0, r2, r3}
     2b4:	0b3b0b3a 	bleq	ec2fa4 <__bss_end__+0xeb7e04>
     2b8:	13490b39 	movtne	r0, #39737	; 0x9b39
     2bc:	00000b38 	andeq	r0, r0, r8, lsr fp
     2c0:	49010110 	stmdbmi	r1, {r4, r8}
     2c4:	00130113 	andseq	r0, r3, r3, lsl r1
     2c8:	00211100 	eoreq	r1, r1, r0, lsl #2
     2cc:	0b2f1349 	bleq	bc4ff8 <__bss_end__+0xbb9e58>
     2d0:	0f120000 	svceq	0x00120000
     2d4:	000b0b00 	andeq	r0, fp, r0, lsl #22
     2d8:	00341300 	eorseq	r1, r4, r0, lsl #6
     2dc:	0b3a0e03 	bleq	e83af0 <__bss_end__+0xe78950>
     2e0:	0b390b3b 	bleq	e42fd4 <__bss_end__+0xe37e34>
     2e4:	18021349 	stmdane	r2, {r0, r3, r6, r8, r9, ip}
     2e8:	34140000 	ldrcc	r0, [r4], #-0
     2ec:	3a0e0300 	bcc	380ef4 <__bss_end__+0x375d54>
     2f0:	390b3b0b 	stmdbcc	fp, {r0, r1, r3, r8, r9, fp, ip, sp}
     2f4:	0013490b 	andseq	r4, r3, fp, lsl #18
     2f8:	012e1500 			; <UNDEFINED> instruction: 0x012e1500
     2fc:	0e03193f 			; <UNDEFINED> instruction: 0x0e03193f
     300:	0b3b0b3a 	bleq	ec2ff0 <__bss_end__+0xeb7e50>
     304:	19270b39 	stmdbne	r7!, {r0, r3, r4, r5, r8, r9, fp}
     308:	01111349 	tsteq	r1, r9, asr #6
     30c:	18400612 	stmdane	r0, {r1, r4, r9, sl}^
     310:	01194297 			; <UNDEFINED> instruction: 0x01194297
     314:	16000013 			; <UNDEFINED> instruction: 0x16000013
     318:	0e030005 	cdpeq	0, 0, cr0, cr3, cr5, {0}
     31c:	0b3b0b3a 	bleq	ec300c <__bss_end__+0xeb7e6c>
     320:	13490b39 	movtne	r0, #39737	; 0x9b39
     324:	42b71702 	adcsmi	r1, r7, #524288	; 0x80000
     328:	17000017 	smladne	r0, r7, r0, r0
     32c:	08030005 	stmdaeq	r3, {r0, r2}
     330:	0b3b0b3a 	bleq	ec3020 <__bss_end__+0xeb7e80>
     334:	13490b39 	movtne	r0, #39737	; 0x9b39
     338:	00001802 	andeq	r1, r0, r2, lsl #16
     33c:	03003418 	movweq	r3, #1048	; 0x418
     340:	3b0b3a08 	blcc	2ceb68 <__bss_end__+0x2c39c8>
     344:	490b390b 	stmdbmi	fp, {r0, r1, r3, r8, fp, ip, sp}
     348:	b7170213 			; <UNDEFINED> instruction: 0xb7170213
     34c:	00001742 	andeq	r1, r0, r2, asr #14
     350:	11010b19 	tstne	r1, r9, lsl fp
     354:	01061201 	tsteq	r6, r1, lsl #4
     358:	1a000013 	bne	3ac <__code_start__-0x7c54>
     35c:	0111010b 	tsteq	r1, fp, lsl #2
     360:	00000612 	andeq	r0, r0, r2, lsl r6
     364:	0182891b 	orreq	r8, r2, fp, lsl r9
     368:	31011101 	tstcc	r1, r1, lsl #2
     36c:	1c000013 	stcne	0, cr0, [r0], {19}
     370:	0001828a 	andeq	r8, r1, sl, lsl #5
     374:	42911802 	addsmi	r1, r1, #131072	; 0x20000
     378:	1d000018 	stcne	0, cr0, [r0, #-96]	; 0xffffffa0
     37c:	01018289 	smlabbeq	r1, r9, r2, r8
     380:	13310111 	teqne	r1, #1073741828	; 0x40000004
     384:	00001301 	andeq	r1, r0, r1, lsl #6
     388:	3f012e1e 	svccc	0x00012e1e
     38c:	3a0e0319 	bcc	380ff8 <__bss_end__+0x375e58>
     390:	390b3b0b 	stmdbcc	fp, {r0, r1, r3, r8, r9, fp, ip, sp}
     394:	1119270b 	tstne	r9, fp, lsl #14
     398:	40061201 	andmi	r1, r6, r1, lsl #4
     39c:	19429718 	stmdbne	r2, {r3, r4, r8, r9, sl, ip, pc}^
     3a0:	00001301 	andeq	r1, r0, r1, lsl #6
     3a4:	55010b1f 	strpl	r0, [r1, #-2847]	; 0xfffff4e1
     3a8:	00130117 	andseq	r0, r3, r7, lsl r1
     3ac:	82892000 	addhi	r2, r9, #0, 0
     3b0:	01110001 	tsteq	r1, r1
     3b4:	00001331 	andeq	r1, r0, r1, lsr r3
     3b8:	03000521 	movweq	r0, #1313	; 0x521
     3bc:	3b0b3a08 	blcc	2cebe4 <__bss_end__+0x2c3a44>
     3c0:	490b390b 	stmdbmi	fp, {r0, r1, r3, r8, fp, ip, sp}
     3c4:	b7170213 			; <UNDEFINED> instruction: 0xb7170213
     3c8:	00001742 	andeq	r1, r0, r2, asr #14
     3cc:	31011d22 	tstcc	r1, r2, lsr #26
     3d0:	b8015213 	stmdalt	r1, {r0, r1, r4, r9, ip, lr}
     3d4:	01110b42 	tsteq	r1, r2, asr #22
     3d8:	0b580612 	bleq	1601c28 <__bss_end__+0x15f6a88>
     3dc:	0b570b59 	bleq	15c3148 <__bss_end__+0x15b7fa8>
     3e0:	00001301 	andeq	r1, r0, r1, lsl #6
     3e4:	31000523 	tstcc	r0, r3, lsr #10
     3e8:	b7170213 			; <UNDEFINED> instruction: 0xb7170213
     3ec:	00001742 	andeq	r1, r0, r2, asr #14
     3f0:	3f002e24 	svccc	0x00002e24
     3f4:	3a0e0319 	bcc	381060 <__bss_end__+0x375ec0>
     3f8:	390b3b0b 	stmdbcc	fp, {r0, r1, r3, r8, r9, fp, ip, sp}
     3fc:	4919270b 	ldmdbmi	r9, {r0, r1, r3, r8, r9, sl, sp}
     400:	12011113 	andne	r1, r1, #-1073741820	; 0xc0000004
     404:	97184006 	ldrls	r4, [r8, -r6]
     408:	00001942 	andeq	r1, r0, r2, asr #18
     40c:	03012e25 	movweq	r2, #7717	; 0x1e25
     410:	3b0b3a0e 	blcc	2cec50 <__bss_end__+0x2c3ab0>
     414:	270b390b 	strcs	r3, [fp, -fp, lsl #18]
     418:	20134919 	andscs	r4, r3, r9, lsl r9
     41c:	0013010b 	andseq	r0, r3, fp, lsl #2
     420:	00052600 	andeq	r2, r5, r0, lsl #12
     424:	0b3a0803 	bleq	e82438 <__bss_end__+0xe77298>
     428:	0b390b3b 	bleq	e4311c <__bss_end__+0xe37f7c>
     42c:	00001349 	andeq	r1, r0, r9, asr #6
     430:	3f002e27 	svccc	0x00002e27
     434:	6e193c19 	mrcvs	12, 0, r3, cr9, cr9, {0}
     438:	3a0e030e 	bcc	381078 <__bss_end__+0x375ed8>
     43c:	390b3b0b 	stmdbcc	fp, {r0, r1, r3, r8, r9, fp, ip, sp}
     440:	0000000b 	andeq	r0, r0, fp
     444:	25011101 	strcs	r1, [r1, #-257]	; 0xfffffeff
     448:	030b130e 	movweq	r1, #45838	; 0xb30e
     44c:	110e1b0e 	tstne	lr, lr, lsl #22
     450:	10061201 	andne	r1, r6, r1, lsl #4
     454:	02000017 	andeq	r0, r0, #23, 0
     458:	0b0b0024 	bleq	2c04f0 <__bss_end__+0x2b5350>
     45c:	08030b3e 	stmdaeq	r3, {r1, r2, r3, r4, r5, r8, r9, fp}
     460:	24030000 	strcs	r0, [r3], #-0
     464:	3e0b0b00 	vmlacc.f64	d0, d11, d0
     468:	000e030b 	andeq	r0, lr, fp, lsl #6
     46c:	01150400 	tsteq	r5, r0, lsl #8
     470:	13491927 	movtne	r1, #39207	; 0x9927
     474:	00001301 	andeq	r1, r0, r1, lsl #6
     478:	49000505 	stmdbmi	r0, {r0, r2, r8, sl}
     47c:	06000013 			; <UNDEFINED> instruction: 0x06000013
     480:	0e030034 	mcreq	0, 0, r0, cr3, cr4, {1}
     484:	0b3b0b3a 	bleq	ec3174 <__bss_end__+0xeb7fd4>
     488:	13490b39 	movtne	r0, #39737	; 0x9b39
     48c:	193c193f 	ldmdbne	ip!, {r0, r1, r2, r3, r4, r5, r8, fp, ip}
     490:	0f070000 	svceq	0x00070000
     494:	490b0b00 	stmdbmi	fp, {r8, r9, fp}
     498:	08000013 	stmdaeq	r0, {r0, r1, r4}
     49c:	13490026 	movtne	r0, #36902	; 0x9026
     4a0:	17090000 	strne	r0, [r9, -r0]
     4a4:	0b0e0301 	bleq	3810b0 <__bss_end__+0x375f10>
     4a8:	3b0b3a0b 	blcc	2cecdc <__bss_end__+0x2c3b3c>
     4ac:	010b390b 	tsteq	fp, fp, lsl #18
     4b0:	0a000013 	beq	504 <__code_start__-0x7afc>
     4b4:	0803000d 	stmdaeq	r3, {r0, r2, r3}
     4b8:	0b3b0b3a 	bleq	ec31a8 <__bss_end__+0xeb8008>
     4bc:	13490b39 	movtne	r0, #39737	; 0x9b39
     4c0:	0f0b0000 	svceq	0x000b0000
     4c4:	000b0b00 	andeq	r0, fp, r0, lsl #22
     4c8:	00150c00 	andseq	r0, r5, r0, lsl #24
     4cc:	00001927 	andeq	r1, r0, r7, lsr #18
     4d0:	0b01130d 	bleq	4510c <__bss_end__+0x39f6c>
     4d4:	3b0b3a0b 	blcc	2ced08 <__bss_end__+0x2c3b68>
     4d8:	010b390b 	tsteq	fp, fp, lsl #18
     4dc:	0e000013 	mcreq	0, 0, r0, cr0, cr3, {0}
     4e0:	0803000d 	stmdaeq	r3, {r0, r2, r3}
     4e4:	0b3b0b3a 	bleq	ec31d4 <__bss_end__+0xeb8034>
     4e8:	13490b39 	movtne	r0, #39737	; 0x9b39
     4ec:	00000b38 	andeq	r0, r0, r8, lsr fp
     4f0:	03000d0f 	movweq	r0, #3343	; 0xd0f
     4f4:	3b0b3a0e 	blcc	2ced34 <__bss_end__+0x2c3b94>
     4f8:	490b390b 	stmdbmi	fp, {r0, r1, r3, r8, fp, ip, sp}
     4fc:	000b3813 	andeq	r3, fp, r3, lsl r8
     500:	00161000 	andseq	r1, r6, r0
     504:	0b3a0e03 	bleq	e83d18 <__bss_end__+0xe78b78>
     508:	0b390b3b 	bleq	e431fc <__bss_end__+0xe3805c>
     50c:	00001349 	andeq	r1, r0, r9, asr #6
     510:	03003411 	movweq	r3, #1041	; 0x411
     514:	3b0b3a0e 	blcc	2ced54 <__bss_end__+0x2c3bb4>
     518:	490b390b 	stmdbmi	fp, {r0, r1, r3, r8, fp, ip, sp}
     51c:	00180213 	andseq	r0, r8, r3, lsl r2
     520:	012e1200 			; <UNDEFINED> instruction: 0x012e1200
     524:	0e03193f 			; <UNDEFINED> instruction: 0x0e03193f
     528:	0b3b0b3a 	bleq	ec3218 <__bss_end__+0xeb8078>
     52c:	19270b39 	stmdbne	r7!, {r0, r3, r4, r5, r8, r9, fp}
     530:	06120111 			; <UNDEFINED> instruction: 0x06120111
     534:	42971840 	addsmi	r1, r7, #64, 16	; 0x400000
     538:	00130119 	andseq	r0, r3, r9, lsl r1
     53c:	00051300 	andeq	r1, r5, r0, lsl #6
     540:	0b3a0803 	bleq	e82554 <__bss_end__+0xe773b4>
     544:	0b390b3b 	bleq	e43238 <__bss_end__+0xe38098>
     548:	18021349 	stmdane	r2, {r0, r3, r6, r8, r9, ip}
     54c:	34140000 	ldrcc	r0, [r4], #-0
     550:	3a080300 	bcc	201158 <__bss_end__+0x1f5fb8>
     554:	390b3b0b 	stmdbcc	fp, {r0, r1, r3, r8, r9, fp, ip, sp}
     558:	0213490b 	andseq	r4, r3, #180224	; 0x2c000
     55c:	1742b717 	smlaldne	fp, r2, r7, r7
     560:	2e150000 	cdpcs	0, 1, cr0, cr5, cr0, {0}
     564:	03193f01 	tsteq	r9, #1, 30
     568:	3b0b3a0e 	blcc	2ceda8 <__bss_end__+0x2c3c08>
     56c:	270b390b 	strcs	r3, [fp, -fp, lsl #18]
     570:	11134919 	tstne	r3, r9, lsl r9
     574:	40061201 	andmi	r1, r6, r1, lsl #4
     578:	19429718 	stmdbne	r2, {r3, r4, r8, r9, sl, ip, pc}^
     57c:	00001301 	andeq	r1, r0, r1, lsl #6
     580:	03000516 	movweq	r0, #1302	; 0x516
     584:	3b0b3a0e 	blcc	2cedc4 <__bss_end__+0x2c3c24>
     588:	490b390b 	stmdbmi	fp, {r0, r1, r3, r8, fp, ip, sp}
     58c:	b7170213 			; <UNDEFINED> instruction: 0xb7170213
     590:	00001742 	andeq	r1, r0, r2, asr #14
     594:	03003417 	movweq	r3, #1047	; 0x417
     598:	3b0b3a0e 	blcc	2cedd8 <__bss_end__+0x2c3c38>
     59c:	490b390b 	stmdbmi	fp, {r0, r1, r3, r8, fp, ip, sp}
     5a0:	b7170213 			; <UNDEFINED> instruction: 0xb7170213
     5a4:	00001742 	andeq	r1, r0, r2, asr #14
     5a8:	01828918 	orreq	r8, r2, r8, lsl r9
     5ac:	31011101 	tstcc	r1, r1, lsl #2
     5b0:	19000013 	stmdbne	r0, {r0, r1, r4}
     5b4:	0001828a 	andeq	r8, r1, sl, lsl #5
     5b8:	42911802 	addsmi	r1, r1, #131072	; 0x20000
     5bc:	1a000018 	bne	624 <__code_start__-0x79dc>
     5c0:	0e03012e 	adfeqsp	f0, f3, #0.5
     5c4:	0b3b0b3a 	bleq	ec32b4 <__bss_end__+0xeb8114>
     5c8:	19270b39 	stmdbne	r7!, {r0, r3, r4, r5, r8, r9, fp}
     5cc:	01111349 	tsteq	r1, r9, asr #6
     5d0:	18400612 	stmdane	r0, {r1, r4, r9, sl}^
     5d4:	01194297 			; <UNDEFINED> instruction: 0x01194297
     5d8:	1b000013 	blne	62c <__code_start__-0x79d4>
     5dc:	08030005 	stmdaeq	r3, {r0, r2}
     5e0:	0b3b0b3a 	bleq	ec32d0 <__bss_end__+0xeb8130>
     5e4:	13490b39 	movtne	r0, #39737	; 0x9b39
     5e8:	42b71702 	adcsmi	r1, r7, #524288	; 0x80000
     5ec:	1c000017 	stcne	0, cr0, [r0], {23}
     5f0:	01018289 	smlabbeq	r1, r9, r2, r8
     5f4:	13310111 	teqne	r1, #1073741828	; 0x40000004
     5f8:	00001301 	andeq	r1, r0, r1, lsl #6
     5fc:	0182891d 	orreq	r8, r2, sp, lsl r9
     600:	31011100 	mrscc	r1, (UNDEF: 17)
     604:	1e000013 	mcrne	0, 0, r0, cr0, cr3, {0}
     608:	193f002e 	ldmdbne	pc!, {r1, r2, r3, r5}	; <UNPREDICTABLE>
     60c:	0e6e193c 			; <UNDEFINED> instruction: 0x0e6e193c
     610:	0b3a0e03 	bleq	e83e24 <__bss_end__+0xe78c84>
     614:	0b390b3b 	bleq	e43308 <__bss_end__+0xe38168>
     618:	01000000 	mrseq	r0, (UNDEF: 0)
     61c:	0e250111 	mcreq	1, 1, r0, cr5, cr1, {0}
     620:	0e030b13 	vmoveq.32	d3[0], r0
     624:	01110e1b 	tsteq	r1, fp, lsl lr
     628:	17100612 			; <UNDEFINED> instruction: 0x17100612
     62c:	24020000 	strcs	r0, [r2], #-0
     630:	3e0b0b00 	vmlacc.f64	d0, d11, d0
     634:	0008030b 	andeq	r0, r8, fp, lsl #6
     638:	00240300 	eoreq	r0, r4, r0, lsl #6
     63c:	0b3e0b0b 	bleq	f83270 <__bss_end__+0xf780d0>
     640:	00000e03 	andeq	r0, r0, r3, lsl #28
     644:	03001604 	movweq	r1, #1540	; 0x604
     648:	3b0b3a0e 	blcc	2cee88 <__bss_end__+0x2c3ce8>
     64c:	490b390b 	stmdbmi	fp, {r0, r1, r3, r8, fp, ip, sp}
     650:	05000013 	streq	r0, [r0, #-19]	; 0xffffffed
     654:	19270115 	stmdbne	r7!, {r0, r2, r4, r8}
     658:	13011349 	movwne	r1, #4937	; 0x1349
     65c:	05060000 	streq	r0, [r6, #-0]
     660:	00134900 	andseq	r4, r3, r0, lsl #18
     664:	00340700 	eorseq	r0, r4, r0, lsl #14
     668:	0b3a0e03 	bleq	e83e7c <__bss_end__+0xe78cdc>
     66c:	0b390b3b 	bleq	e43360 <__bss_end__+0xe381c0>
     670:	193f1349 	ldmdbne	pc!, {r0, r3, r6, r8, r9, ip}	; <UNPREDICTABLE>
     674:	0000193c 	andeq	r1, r0, ip, lsr r9
     678:	0b000f08 	bleq	42a0 <__code_start__-0x3d60>
     67c:	0013490b 	andseq	r4, r3, fp, lsl #18
     680:	00260900 	eoreq	r0, r6, r0, lsl #18
     684:	00001349 	andeq	r1, r0, r9, asr #6
     688:	0b01130a 	bleq	452b8 <__bss_end__+0x3a118>
     68c:	3b0b3a0b 	blcc	2ceec0 <__bss_end__+0x2c3d20>
     690:	010b390b 	tsteq	fp, fp, lsl #18
     694:	0b000013 	bleq	6e8 <__code_start__-0x7918>
     698:	0e03000d 	cdpeq	0, 0, cr0, cr3, cr13, {0}
     69c:	0b3b0b3a 	bleq	ec338c <__bss_end__+0xeb81ec>
     6a0:	13490b39 	movtne	r0, #39737	; 0x9b39
     6a4:	00000b38 	andeq	r0, r0, r8, lsr fp
     6a8:	3e01040c 	cdpcc	4, 0, cr0, cr1, cr12, {0}
     6ac:	490b0b0b 	stmdbmi	fp, {r0, r1, r3, r8, r9, fp}
     6b0:	3b0b3a13 	blcc	2cef04 <__bss_end__+0x2c3d64>
     6b4:	010b390b 	tsteq	fp, fp, lsl #18
     6b8:	0d000013 	stceq	0, cr0, [r0, #-76]	; 0xffffffb4
     6bc:	0e030028 	cdpeq	0, 0, cr0, cr3, cr8, {1}
     6c0:	00000b1c 	andeq	r0, r0, ip, lsl fp
     6c4:	0301130e 	movweq	r1, #4878	; 0x130e
     6c8:	3a0b0b0e 	bcc	2c3308 <__bss_end__+0x2b8168>
     6cc:	390b3b0b 	stmdbcc	fp, {r0, r1, r3, r8, r9, fp, ip, sp}
     6d0:	0013010b 	andseq	r0, r3, fp, lsl #2
     6d4:	000d0f00 	andeq	r0, sp, r0, lsl #30
     6d8:	0b3a0803 	bleq	e826ec <__bss_end__+0xe7754c>
     6dc:	0b390b3b 	bleq	e433d0 <__bss_end__+0xe38230>
     6e0:	0b381349 	bleq	e0540c <__bss_end__+0xdfa26c>
     6e4:	01100000 	tsteq	r0, r0
     6e8:	01134901 	tsteq	r3, r1, lsl #18
     6ec:	11000013 	tstne	r0, r3, lsl r0
     6f0:	13490021 	movtne	r0, #36897	; 0x9021
     6f4:	00000b2f 	andeq	r0, r0, pc, lsr #22
     6f8:	0b000f12 	bleq	4348 <__code_start__-0x3cb8>
     6fc:	1300000b 	movwne	r0, #11
     700:	0e030034 	mcreq	0, 0, r0, cr3, cr4, {1}
     704:	0b3b0b3a 	bleq	ec33f4 <__bss_end__+0xeb8254>
     708:	13490b39 	movtne	r0, #39737	; 0x9b39
     70c:	00001802 	andeq	r1, r0, r2, lsl #16
     710:	3f012e14 	svccc	0x00012e14
     714:	3a0e0319 	bcc	381380 <__bss_end__+0x3761e0>
     718:	39053b0b 	stmdbcc	r5, {r0, r1, r3, r8, r9, fp, ip, sp}
     71c:	1119270b 	tstne	r9, fp, lsl #14
     720:	40061201 	andmi	r1, r6, r1, lsl #4
     724:	19429718 	stmdbne	r2, {r3, r4, r8, r9, sl, ip, pc}^
     728:	00001301 	andeq	r1, r0, r1, lsl #6
     72c:	03003415 	movweq	r3, #1045	; 0x415
     730:	3413490e 	ldrcc	r4, [r3], #-2318	; 0xfffff6f2
     734:	00180219 	andseq	r0, r8, r9, lsl r2
     738:	82891600 	addhi	r1, r9, #0, 12
     73c:	01110101 	tsteq	r1, r1, lsl #2
     740:	13011331 	movwne	r1, #4913	; 0x1331
     744:	8a170000 	bhi	5c074c <__bss_end__+0x5b55ac>
     748:	02000182 	andeq	r0, r0, #-2147483616	; 0x80000020
     74c:	18429118 	stmdane	r2, {r3, r4, r8, ip, pc}^
     750:	89180000 	ldmdbhi	r8, {}	; <UNPREDICTABLE>
     754:	11000182 	smlabbne	r0, r2, r1, r0
     758:	00133101 	andseq	r3, r3, r1, lsl #2
     75c:	012e1900 			; <UNDEFINED> instruction: 0x012e1900
     760:	0e03193f 			; <UNDEFINED> instruction: 0x0e03193f
     764:	053b0b3a 	ldreq	r0, [fp, #-2874]!	; 0xfffff4c6
     768:	19270b39 	stmdbne	r7!, {r0, r3, r4, r5, r8, r9, fp}
     76c:	01111349 	tsteq	r1, r9, asr #6
     770:	18400612 	stmdane	r0, {r1, r4, r9, sl}^
     774:	01194297 			; <UNDEFINED> instruction: 0x01194297
     778:	1a000013 	bne	7cc <__code_start__-0x7834>
     77c:	0e030034 	mcreq	0, 0, r0, cr3, cr4, {1}
     780:	053b0b3a 	ldreq	r0, [fp, #-2874]!	; 0xfffff4c6
     784:	13490b39 	movtne	r0, #39737	; 0x9b39
     788:	42b71702 	adcsmi	r1, r7, #524288	; 0x80000
     78c:	1b000017 	blne	7f0 <__code_start__-0x7810>
     790:	0e03012e 	adfeqsp	f0, f3, #0.5
     794:	0b3b0b3a 	bleq	ec3484 <__bss_end__+0xeb82e4>
     798:	19270b39 	stmdbne	r7!, {r0, r3, r4, r5, r8, r9, fp}
     79c:	01111349 	tsteq	r1, r9, asr #6
     7a0:	18400612 	stmdane	r0, {r1, r4, r9, sl}^
     7a4:	01194297 			; <UNDEFINED> instruction: 0x01194297
     7a8:	1c000013 	stcne	0, cr0, [r0], {19}
     7ac:	0e030034 	mcreq	0, 0, r0, cr3, cr4, {1}
     7b0:	0b3b0b3a 	bleq	ec34a0 <__bss_end__+0xeb8300>
     7b4:	13490b39 	movtne	r0, #39737	; 0x9b39
     7b8:	42b71702 	adcsmi	r1, r7, #524288	; 0x80000
     7bc:	1d000017 	stcne	0, cr0, [r0, #-92]	; 0xffffffa4
     7c0:	1755010b 	ldrbne	r0, [r5, -fp, lsl #2]
     7c4:	00001301 	andeq	r1, r0, r1, lsl #6
     7c8:	0300341e 	movweq	r3, #1054	; 0x41e
     7cc:	3b0b3a08 	blcc	2ceff4 <__bss_end__+0x2c3e54>
     7d0:	490b390b 	stmdbmi	fp, {r0, r1, r3, r8, fp, ip, sp}
     7d4:	b7170213 			; <UNDEFINED> instruction: 0xb7170213
     7d8:	00001742 	andeq	r1, r0, r2, asr #14
     7dc:	31011d1f 	tstcc	r1, pc, lsl sp
     7e0:	b8015213 	stmdalt	r1, {r0, r1, r4, r9, ip, lr}
     7e4:	01110b42 	tsteq	r1, r2, asr #22
     7e8:	0b580612 	bleq	1602038 <__bss_end__+0x15f6e98>
     7ec:	0b570559 	bleq	15c1d58 <__bss_end__+0x15b6bb8>
     7f0:	00001301 	andeq	r1, r0, r1, lsl #6
     7f4:	31000520 	tstcc	r0, r0, lsr #10
     7f8:	b7170213 			; <UNDEFINED> instruction: 0xb7170213
     7fc:	00001742 	andeq	r1, r0, r2, asr #14
     800:	01828921 	orreq	r8, r2, r1, lsr #18
     804:	31011101 	tstcc	r1, r1, lsl #2
     808:	22000013 	andcs	r0, r0, #19, 0
     80c:	193f012e 	ldmdbne	pc!, {r1, r2, r3, r5, r8}	; <UNPREDICTABLE>
     810:	0b3a0e03 	bleq	e84024 <__bss_end__+0xe78e84>
     814:	0b390b3b 	bleq	e43508 <__bss_end__+0xe38368>
     818:	13491927 	movtne	r1, #39207	; 0x9927
     81c:	06120111 			; <UNDEFINED> instruction: 0x06120111
     820:	42971840 	addsmi	r1, r7, #64, 16	; 0x400000
     824:	00130119 	andseq	r0, r3, r9, lsl r1
     828:	012e2300 			; <UNDEFINED> instruction: 0x012e2300
     82c:	0e03193f 			; <UNDEFINED> instruction: 0x0e03193f
     830:	0b3b0b3a 	bleq	ec3520 <__bss_end__+0xeb8380>
     834:	19270b39 	stmdbne	r7!, {r0, r3, r4, r5, r8, r9, fp}
     838:	06120111 			; <UNDEFINED> instruction: 0x06120111
     83c:	42971840 	addsmi	r1, r7, #64, 16	; 0x400000
     840:	00130119 	andseq	r0, r3, r9, lsl r1
     844:	00052400 	andeq	r2, r5, r0, lsl #8
     848:	0b3a0e03 	bleq	e8405c <__bss_end__+0xe78ebc>
     84c:	0b390b3b 	bleq	e43540 <__bss_end__+0xe383a0>
     850:	17021349 	strne	r1, [r2, -r9, asr #6]
     854:	001742b7 			; <UNDEFINED> instruction: 0x001742b7
     858:	012e2500 			; <UNDEFINED> instruction: 0x012e2500
     85c:	0b3a0e03 	bleq	e84070 <__bss_end__+0xe78ed0>
     860:	0b390b3b 	bleq	e43554 <__bss_end__+0xe383b4>
     864:	01111927 	tsteq	r1, r7, lsr #18
     868:	18400612 	stmdane	r0, {r1, r4, r9, sl}^
     86c:	01194297 			; <UNDEFINED> instruction: 0x01194297
     870:	26000013 			; <UNDEFINED> instruction: 0x26000013
     874:	0e030034 	mcreq	0, 0, r0, cr3, cr4, {1}
     878:	0b3b0b3a 	bleq	ec3568 <__bss_end__+0xeb83c8>
     87c:	13490b39 	movtne	r0, #39737	; 0x9b39
     880:	0000061c 	andeq	r0, r0, ip, lsl r6
     884:	11010b27 	tstne	r1, r7, lsr #22
     888:	01061201 	tsteq	r6, r1, lsl #4
     88c:	28000013 	stmdacs	r0, {r0, r1, r4}
     890:	08030005 	stmdaeq	r3, {r0, r2}
     894:	0b3b0b3a 	bleq	ec3584 <__bss_end__+0xeb83e4>
     898:	13490b39 	movtne	r0, #39737	; 0x9b39
     89c:	42b71702 	adcsmi	r1, r7, #524288	; 0x80000
     8a0:	29000017 	stmdbcs	r0, {r0, r1, r2, r4}
     8a4:	1755010b 	ldrbne	r0, [r5, -fp, lsl #2]
     8a8:	2e2a0000 	cdpcs	0, 2, cr0, cr10, cr0, {0}
     8ac:	3a0e0301 	bcc	3814b8 <__bss_end__+0x376318>
     8b0:	390b3b0b 	stmdbcc	fp, {r0, r1, r3, r8, r9, fp, ip, sp}
     8b4:	4919270b 	ldmdbmi	r9, {r0, r1, r3, r8, r9, sl, sp}
     8b8:	010b2013 	tsteq	fp, r3, lsl r0
     8bc:	2b000013 	blcs	910 <__code_start__-0x76f0>
     8c0:	0e030005 	cdpeq	0, 0, cr0, cr3, cr5, {0}
     8c4:	0b3b0b3a 	bleq	ec35b4 <__bss_end__+0xeb8414>
     8c8:	13490b39 	movtne	r0, #39737	; 0x9b39
     8cc:	2e2c0000 	cdpcs	0, 2, cr0, cr12, cr0, {0}
     8d0:	3c193f00 	ldccc	15, cr3, [r9], {-0}
     8d4:	030e6e19 	movweq	r6, #60953	; 0xee19
     8d8:	3b0b3a0e 	blcc	2cf118 <__bss_end__+0x2c3f78>
     8dc:	000b390b 	andeq	r3, fp, fp, lsl #18
     8e0:	00362d00 	eorseq	r2, r6, r0, lsl #26
     8e4:	00001802 	andeq	r1, r0, r2, lsl #16
     8e8:	01110100 	tsteq	r1, r0, lsl #2
     8ec:	0b130e25 	bleq	4c4188 <__bss_end__+0x4b8fe8>
     8f0:	0e1b0e03 	cdpeq	14, 1, cr0, cr11, cr3, {0}
     8f4:	06120111 			; <UNDEFINED> instruction: 0x06120111
     8f8:	00001710 	andeq	r1, r0, r0, lsl r7
     8fc:	0b002402 	bleq	990c <va_printk+0x570>
     900:	030b3e0b 	movweq	r3, #48651	; 0xbe0b
     904:	03000008 	movweq	r0, #8
     908:	0b0b0024 	bleq	2c09a0 <__bss_end__+0x2b5800>
     90c:	0e030b3e 	vmoveq.16	d3[0], r0
     910:	15040000 	strne	r0, [r4, #-0]
     914:	49192701 	ldmdbmi	r9, {r0, r8, r9, sl, sp}
     918:	00130113 	andseq	r0, r3, r3, lsl r1
     91c:	00050500 	andeq	r0, r5, r0, lsl #10
     920:	00001349 	andeq	r1, r0, r9, asr #6
     924:	03003406 	movweq	r3, #1030	; 0x406
     928:	3b0b3a0e 	blcc	2cf168 <__bss_end__+0x2c3fc8>
     92c:	490b390b 	stmdbmi	fp, {r0, r1, r3, r8, fp, ip, sp}
     930:	3c193f13 	ldccc	15, cr3, [r9], {19}
     934:	07000019 	smladeq	r0, r9, r0, r0
     938:	0b0b000f 	bleq	2c097c <__bss_end__+0x2b57dc>
     93c:	00001349 	andeq	r1, r0, r9, asr #6
     940:	49002608 	stmdbmi	r0, {r3, r9, sl, sp}
     944:	09000013 	stmdbeq	r0, {r0, r1, r4}
     948:	193f012e 	ldmdbne	pc!, {r1, r2, r3, r5, r8}	; <UNPREDICTABLE>
     94c:	0b3a0e03 	bleq	e84160 <__bss_end__+0xe78fc0>
     950:	0b390b3b 	bleq	e43644 <__bss_end__+0xe384a4>
     954:	13491927 	movtne	r1, #39207	; 0x9927
     958:	13010b20 	movwne	r0, #6944	; 0x1b20
     95c:	050a0000 	streq	r0, [sl, #-0]
     960:	3a0e0300 	bcc	381568 <__bss_end__+0x3763c8>
     964:	390b3b0b 	stmdbcc	fp, {r0, r1, r3, r8, r9, fp, ip, sp}
     968:	0013490b 	andseq	r4, r3, fp, lsl #18
     96c:	00340b00 	eorseq	r0, r4, r0, lsl #22
     970:	0b3a0e03 	bleq	e84184 <__bss_end__+0xe78fe4>
     974:	0b390b3b 	bleq	e43668 <__bss_end__+0xe384c8>
     978:	00001349 	andeq	r1, r0, r9, asr #6
     97c:	00010b0c 	andeq	r0, r1, ip, lsl #22
     980:	012e0d00 			; <UNDEFINED> instruction: 0x012e0d00
     984:	0e03193f 			; <UNDEFINED> instruction: 0x0e03193f
     988:	0b3b0b3a 	bleq	ec3678 <__bss_end__+0xeb84d8>
     98c:	13490b39 	movtne	r0, #39737	; 0x9b39
     990:	06120111 			; <UNDEFINED> instruction: 0x06120111
     994:	42971840 	addsmi	r1, r7, #64, 16	; 0x400000
     998:	00130119 	andseq	r0, r3, r9, lsl r1
     99c:	00340e00 	eorseq	r0, r4, r0, lsl #28
     9a0:	0b3a0e03 	bleq	e841b4 <__bss_end__+0xe79014>
     9a4:	0b390b3b 	bleq	e43698 <__bss_end__+0xe384f8>
     9a8:	17021349 	strne	r1, [r2, -r9, asr #6]
     9ac:	001742b7 			; <UNDEFINED> instruction: 0x001742b7
     9b0:	010b0f00 	tsteq	fp, r0, lsl #30
     9b4:	06120111 			; <UNDEFINED> instruction: 0x06120111
     9b8:	34100000 	ldrcc	r0, [r0], #-0
     9bc:	3a080300 	bcc	2015c4 <__bss_end__+0x1f6424>
     9c0:	390b3b0b 	stmdbcc	fp, {r0, r1, r3, r8, r9, fp, ip, sp}
     9c4:	0213490b 	andseq	r4, r3, #180224	; 0x2c000
     9c8:	1742b717 	smlaldne	fp, r2, r7, r7
     9cc:	0b110000 	bleq	4409d4 <__bss_end__+0x435834>
     9d0:	00175501 	andseq	r5, r7, r1, lsl #10
     9d4:	011d1200 	tsteq	sp, r0, lsl #4
     9d8:	01521331 	cmpeq	r2, r1, lsr r3
     9dc:	550b42b8 	strpl	r4, [fp, #-696]	; 0xfffffd48
     9e0:	590b5817 	stmdbpl	fp, {r0, r1, r2, r4, fp, ip, lr}
     9e4:	010b570b 	tsteq	fp, fp, lsl #14
     9e8:	13000013 	movwne	r0, #19
     9ec:	13310005 	teqne	r1, #5, 0
     9f0:	42b71702 	adcsmi	r1, r7, #524288	; 0x80000
     9f4:	14000017 	strne	r0, [r0], #-23	; 0xffffffe9
     9f8:	13310034 	teqne	r1, #52, 0	; 0x34
     9fc:	42b71702 	adcsmi	r1, r7, #524288	; 0x80000
     a00:	15000017 	strne	r0, [r0, #-23]	; 0xffffffe9
     a04:	1331010b 	teqne	r1, #-1073741822	; 0xc0000002
     a08:	00001755 	andeq	r1, r0, r5, asr r7
     a0c:	01828916 	orreq	r8, r2, r6, lsl r9
     a10:	31011101 	tstcc	r1, r1, lsl #2
     a14:	17000013 	smladne	r0, r3, r0, r0
     a18:	0001828a 	andeq	r8, r1, sl, lsl #5
     a1c:	42911802 	addsmi	r1, r1, #131072	; 0x20000
     a20:	18000018 	stmdane	r0, {r3, r4}
     a24:	1331012e 	teqne	r1, #-2147483637	; 0x8000000b
     a28:	06120111 			; <UNDEFINED> instruction: 0x06120111
     a2c:	42971840 	addsmi	r1, r7, #64, 16	; 0x400000
     a30:	00130119 	andseq	r0, r3, r9, lsl r1
     a34:	010b1900 	tsteq	fp, r0, lsl #18
     a38:	01111331 	tsteq	r1, r1, lsr r3
     a3c:	00000612 	andeq	r0, r0, r2, lsl r6
     a40:	3f002e1a 	svccc	0x00002e1a
     a44:	6e193c19 	mrcvs	12, 0, r3, cr9, cr9, {0}
     a48:	3a0e030e 	bcc	381688 <__bss_end__+0x3764e8>
     a4c:	390b3b0b 	stmdbcc	fp, {r0, r1, r3, r8, r9, fp, ip, sp}
     a50:	0000000b 	andeq	r0, r0, fp
     a54:	25011101 	strcs	r1, [r1, #-257]	; 0xfffffeff
     a58:	030b130e 	movweq	r1, #45838	; 0xb30e
     a5c:	110e1b0e 	tstne	lr, lr, lsl #22
     a60:	10061201 	andne	r1, r6, r1, lsl #4
     a64:	02000017 	andeq	r0, r0, #23, 0
     a68:	0b0b0024 	bleq	2c0b00 <__bss_end__+0x2b5960>
     a6c:	08030b3e 	stmdaeq	r3, {r1, r2, r3, r4, r5, r8, r9, fp}
     a70:	16030000 	strne	r0, [r3], -r0
     a74:	3a0e0300 	bcc	38167c <__bss_end__+0x3764dc>
     a78:	390b3b0b 	stmdbcc	fp, {r0, r1, r3, r8, r9, fp, ip, sp}
     a7c:	0013490b 	andseq	r4, r3, fp, lsl #18
     a80:	00240400 	eoreq	r0, r4, r0, lsl #8
     a84:	0b3e0b0b 	bleq	f836b8 <__bss_end__+0xf78518>
     a88:	00000e03 	andeq	r0, r0, r3, lsl #28
     a8c:	27011505 	strcs	r1, [r1, -r5, lsl #10]
     a90:	01134919 	tsteq	r3, r9, lsl r9
     a94:	06000013 			; <UNDEFINED> instruction: 0x06000013
     a98:	13490005 	movtne	r0, #36869	; 0x9005
     a9c:	34070000 	strcc	r0, [r7], #-0
     aa0:	3a0e0300 	bcc	3816a8 <__bss_end__+0x376508>
     aa4:	390b3b0b 	stmdbcc	fp, {r0, r1, r3, r8, r9, fp, ip, sp}
     aa8:	3f13490b 	svccc	0x0013490b
     aac:	00193c19 	andseq	r3, r9, r9, lsl ip
     ab0:	000f0800 	andeq	r0, pc, r0, lsl #16
     ab4:	13490b0b 	movtne	r0, #39691	; 0x9b0b
     ab8:	26090000 	strcs	r0, [r9], -r0
     abc:	00134900 	andseq	r4, r3, r0, lsl #18
     ac0:	012e0a00 			; <UNDEFINED> instruction: 0x012e0a00
     ac4:	0e03193f 			; <UNDEFINED> instruction: 0x0e03193f
     ac8:	0b3b0b3a 	bleq	ec37b8 <__bss_end__+0xeb8618>
     acc:	19270b39 	stmdbne	r7!, {r0, r3, r4, r5, r8, r9, fp}
     ad0:	01111349 	tsteq	r1, r9, asr #6
     ad4:	18400612 	stmdane	r0, {r1, r4, r9, sl}^
     ad8:	01194297 			; <UNDEFINED> instruction: 0x01194297
     adc:	0b000013 	bleq	b30 <__code_start__-0x74d0>
     ae0:	08030005 	stmdaeq	r3, {r0, r2}
     ae4:	0b3b0b3a 	bleq	ec37d4 <__bss_end__+0xeb8634>
     ae8:	13490b39 	movtne	r0, #39737	; 0x9b39
     aec:	00001802 	andeq	r1, r0, r2, lsl #16
     af0:	0300050c 	movweq	r0, #1292	; 0x50c
     af4:	3b0b3a08 	blcc	2cf31c <__bss_end__+0x2c417c>
     af8:	490b390b 	stmdbmi	fp, {r0, r1, r3, r8, fp, ip, sp}
     afc:	b7170213 			; <UNDEFINED> instruction: 0xb7170213
     b00:	00001742 	andeq	r1, r0, r2, asr #14
     b04:	0300340d 	movweq	r3, #1037	; 0x40d
     b08:	3b0b3a08 	blcc	2cf330 <__bss_end__+0x2c4190>
     b0c:	490b390b 	stmdbmi	fp, {r0, r1, r3, r8, fp, ip, sp}
     b10:	b7170213 			; <UNDEFINED> instruction: 0xb7170213
     b14:	00001742 	andeq	r1, r0, r2, asr #14
     b18:	0b000f0e 	bleq	4758 <__code_start__-0x38a8>
     b1c:	0000000b 	andeq	r0, r0, fp
     b20:	25011101 	strcs	r1, [r1, #-257]	; 0xfffffeff
     b24:	030b130e 	movweq	r1, #45838	; 0xb30e
     b28:	110e1b0e 	tstne	lr, lr, lsl #22
     b2c:	10061201 	andne	r1, r6, r1, lsl #4
     b30:	02000017 	andeq	r0, r0, #23, 0
     b34:	0e030016 	mcreq	0, 0, r0, cr3, cr6, {0}
     b38:	0b3b0b3a 	bleq	ec3828 <__bss_end__+0xeb8688>
     b3c:	13490b39 	movtne	r0, #39737	; 0x9b39
     b40:	13030000 	movwne	r0, #12288	; 0x3000
     b44:	0b0e0301 	bleq	381750 <__bss_end__+0x3765b0>
     b48:	3b0b3a0b 	blcc	2cf37c <__bss_end__+0x2c41dc>
     b4c:	0013010b 	andseq	r0, r3, fp, lsl #2
     b50:	000d0400 	andeq	r0, sp, r0, lsl #8
     b54:	13490e03 	movtne	r0, #40451	; 0x9e03
     b58:	19340b38 	ldmdbne	r4!, {r3, r4, r5, r8, r9, fp}
     b5c:	0f050000 	svceq	0x00050000
     b60:	000b0b00 	andeq	r0, fp, r0, lsl #22
     b64:	00240600 	eoreq	r0, r4, r0, lsl #12
     b68:	0b3e0b0b 	bleq	f8379c <__bss_end__+0xf785fc>
     b6c:	00000803 	andeq	r0, r0, r3, lsl #16
     b70:	0b002407 	bleq	9b94 <rpi_reboot+0x48>
     b74:	030b3e0b 	movweq	r3, #48651	; 0xbe0b
     b78:	0800000e 	stmdaeq	r0, {r1, r2, r3}
     b7c:	19270115 	stmdbne	r7!, {r0, r2, r4, r8}
     b80:	13011349 	movwne	r1, #4937	; 0x1349
     b84:	05090000 	streq	r0, [r9, #-0]
     b88:	00134900 	andseq	r4, r3, r0, lsl #18
     b8c:	00340a00 	eorseq	r0, r4, r0, lsl #20
     b90:	0b3a0e03 	bleq	e843a4 <__bss_end__+0xe79204>
     b94:	0b390b3b 	bleq	e43888 <__bss_end__+0xe386e8>
     b98:	193f1349 	ldmdbne	pc!, {r0, r3, r6, r8, r9, ip}	; <UNPREDICTABLE>
     b9c:	0000193c 	andeq	r1, r0, ip, lsr r9
     ba0:	0b000f0b 	bleq	47d4 <__code_start__-0x382c>
     ba4:	0013490b 	andseq	r4, r3, fp, lsl #18
     ba8:	00260c00 	eoreq	r0, r6, r0, lsl #24
     bac:	00001349 	andeq	r1, r0, r9, asr #6
     bb0:	3f012e0d 	svccc	0x00012e0d
     bb4:	3a0e0319 	bcc	381820 <__bss_end__+0x376680>
     bb8:	390b3b0b 	stmdbcc	fp, {r0, r1, r3, r8, r9, fp, ip, sp}
     bbc:	4919270b 	ldmdbmi	r9, {r0, r1, r3, r8, r9, sl, sp}
     bc0:	12011113 	andne	r1, r1, #-1073741820	; 0xc0000004
     bc4:	97184006 	ldrls	r4, [r8, -r6]
     bc8:	13011942 	movwne	r1, #6466	; 0x1942
     bcc:	050e0000 	streq	r0, [lr, #-0]
     bd0:	3a080300 	bcc	2017d8 <__bss_end__+0x1f6638>
     bd4:	390b3b0b 	stmdbcc	fp, {r0, r1, r3, r8, r9, fp, ip, sp}
     bd8:	0213490b 	andseq	r4, r3, #180224	; 0x2c000
     bdc:	0f000018 	svceq	0x00000018
     be0:	00000018 	andeq	r0, r0, r8, lsl r0
     be4:	03003410 	movweq	r3, #1040	; 0x410
     be8:	3b0b3a08 	blcc	2cf410 <__bss_end__+0x2c4270>
     bec:	490b390b 	stmdbmi	fp, {r0, r1, r3, r8, fp, ip, sp}
     bf0:	00180213 	andseq	r0, r8, r3, lsl r2
     bf4:	00341100 	eorseq	r1, r4, r0, lsl #2
     bf8:	0b3a0e03 	bleq	e8440c <__bss_end__+0xe7926c>
     bfc:	0b390b3b 	bleq	e438f0 <__bss_end__+0xe38750>
     c00:	18021349 	stmdane	r2, {r0, r3, r6, r8, r9, ip}
     c04:	34120000 	ldrcc	r0, [r2], #-0
     c08:	3a080300 	bcc	201810 <__bss_end__+0x1f6670>
     c0c:	390b3b0b 	stmdbcc	fp, {r0, r1, r3, r8, r9, fp, ip, sp}
     c10:	0213490b 	andseq	r4, r3, #180224	; 0x2c000
     c14:	1742b717 	smlaldne	fp, r2, r7, r7
     c18:	89130000 	ldmdbhi	r3, {}	; <UNPREDICTABLE>
     c1c:	11010182 	smlabbne	r1, r2, r1, r0
     c20:	01133101 	tsteq	r3, r1, lsl #2
     c24:	14000013 	strne	r0, [r0], #-19	; 0xffffffed
     c28:	0001828a 	andeq	r8, r1, sl, lsl #5
     c2c:	42911802 	addsmi	r1, r1, #131072	; 0x20000
     c30:	15000018 	strne	r0, [r0, #-24]	; 0xffffffe8
     c34:	01018289 	smlabbeq	r1, r9, r2, r8
     c38:	00000111 	andeq	r0, r0, r1, lsl r1
     c3c:	49010116 	stmdbmi	r1, {r1, r2, r4, r8}
     c40:	00130113 	andseq	r0, r3, r3, lsl r1
     c44:	00211700 	eoreq	r1, r1, r0, lsl #14
     c48:	052f1349 	streq	r1, [pc, #-841]!	; 907 <__code_start__-0x76f9>
     c4c:	2e180000 	cdpcs	0, 1, cr0, cr8, cr0, {0}
     c50:	3c193f00 	ldccc	15, cr3, [r9], {-0}
     c54:	030e6e19 	movweq	r6, #60953	; 0xee19
     c58:	3b0b3a0e 	blcc	2cf498 <__bss_end__+0x2c42f8>
     c5c:	000b390b 	andeq	r3, fp, fp, lsl #18
     c60:	11010000 	mrsne	r0, (UNDEF: 1)
     c64:	130e2501 	movwne	r2, #58625	; 0xe501
     c68:	1b0e030b 	blne	38189c <__bss_end__+0x3766fc>
     c6c:	1201110e 	andne	r1, r1, #-2147483645	; 0x80000003
     c70:	00171006 	andseq	r1, r7, r6
     c74:	00240200 	eoreq	r0, r4, r0, lsl #4
     c78:	0b3e0b0b 	bleq	f838ac <__bss_end__+0xf7870c>
     c7c:	00000803 	andeq	r0, r0, r3, lsl #16
     c80:	0b002403 	bleq	9c94 <delay_sec+0x20>
     c84:	030b3e0b 	movweq	r3, #48651	; 0xbe0b
     c88:	0400000e 	streq	r0, [r0], #-14
     c8c:	19270115 	stmdbne	r7!, {r0, r2, r4, r8}
     c90:	13011349 	movwne	r1, #4937	; 0x1349
     c94:	05050000 	streq	r0, [r5, #-0]
     c98:	00134900 	andseq	r4, r3, r0, lsl #18
     c9c:	00340600 	eorseq	r0, r4, r0, lsl #12
     ca0:	0b3a0e03 	bleq	e844b4 <__bss_end__+0xe79314>
     ca4:	0b390b3b 	bleq	e43998 <__bss_end__+0xe387f8>
     ca8:	193f1349 	ldmdbne	pc!, {r0, r3, r6, r8, r9, ip}	; <UNPREDICTABLE>
     cac:	0000193c 	andeq	r1, r0, ip, lsr r9
     cb0:	0b000f07 	bleq	48d4 <__code_start__-0x372c>
     cb4:	0013490b 	andseq	r4, r3, fp, lsl #18
     cb8:	00260800 	eoreq	r0, r6, r0, lsl #16
     cbc:	00001349 	andeq	r1, r0, r9, asr #6
     cc0:	47003409 	strmi	r3, [r0, -r9, lsl #8]
     cc4:	3b0b3a13 	blcc	2cf518 <__bss_end__+0x2c4378>
     cc8:	020b390b 	andeq	r3, fp, #180224	; 0x2c000
     ccc:	0a000018 	beq	d34 <__code_start__-0x72cc>
     cd0:	193f012e 	ldmdbne	pc!, {r1, r2, r3, r5, r8}	; <UNPREDICTABLE>
     cd4:	0b3a0e03 	bleq	e844e8 <__bss_end__+0xe79348>
     cd8:	0b390b3b 	bleq	e439cc <__bss_end__+0xe3882c>
     cdc:	13491927 	movtne	r1, #39207	; 0x9927
     ce0:	06120111 			; <UNDEFINED> instruction: 0x06120111
     ce4:	42961840 	addsmi	r1, r6, #64, 16	; 0x400000
     ce8:	0b000019 	bleq	d54 <__code_start__-0x72ac>
     cec:	08030005 	stmdaeq	r3, {r0, r2}
     cf0:	0b3b0b3a 	bleq	ec39e0 <__bss_end__+0xeb8840>
     cf4:	13490b39 	movtne	r0, #39737	; 0x9b39
     cf8:	42b71702 	adcsmi	r1, r7, #524288	; 0x80000
     cfc:	00000017 	andeq	r0, r0, r7, lsl r0
     d00:	25011101 	strcs	r1, [r1, #-257]	; 0xfffffeff
     d04:	030b130e 	movweq	r1, #45838	; 0xb30e
     d08:	110e1b0e 	tstne	lr, lr, lsl #22
     d0c:	10061201 	andne	r1, r6, r1, lsl #4
     d10:	02000017 	andeq	r0, r0, #23, 0
     d14:	0b0b0024 	bleq	2c0dac <__bss_end__+0x2b5c0c>
     d18:	0e030b3e 	vmoveq.16	d3[0], r0
     d1c:	24030000 	strcs	r0, [r3], #-0
     d20:	3e0b0b00 	vmlacc.f64	d0, d11, d0
     d24:	0008030b 	andeq	r0, r8, fp, lsl #6
     d28:	00160400 	andseq	r0, r6, r0, lsl #8
     d2c:	0b3a0e03 	bleq	e84540 <__bss_end__+0xe793a0>
     d30:	0b390b3b 	bleq	e43a24 <__bss_end__+0xe38884>
     d34:	00001349 	andeq	r1, r0, r9, asr #6
     d38:	27011505 	strcs	r1, [r1, -r5, lsl #10]
     d3c:	01134919 	tsteq	r3, r9, lsl r9
     d40:	06000013 			; <UNDEFINED> instruction: 0x06000013
     d44:	13490005 	movtne	r0, #36869	; 0x9005
     d48:	34070000 	strcc	r0, [r7], #-0
     d4c:	3a0e0300 	bcc	381954 <__bss_end__+0x3767b4>
     d50:	390b3b0b 	stmdbcc	fp, {r0, r1, r3, r8, r9, fp, ip, sp}
     d54:	3f13490b 	svccc	0x0013490b
     d58:	00193c19 	andseq	r3, r9, r9, lsl ip
     d5c:	000f0800 	andeq	r0, pc, r0, lsl #16
     d60:	13490b0b 	movtne	r0, #39691	; 0x9b0b
     d64:	26090000 	strcs	r0, [r9], -r0
     d68:	00134900 	andseq	r4, r3, r0, lsl #18
     d6c:	01130a00 	tsteq	r3, r0, lsl #20
     d70:	0b0b0e03 	bleq	2c4584 <__bss_end__+0x2b93e4>
     d74:	0b3b0b3a 	bleq	ec3a64 <__bss_end__+0xeb88c4>
     d78:	00001301 	andeq	r1, r0, r1, lsl #6
     d7c:	03000d0b 	movweq	r0, #3339	; 0xd0b
     d80:	3813490e 	ldmdacc	r3, {r1, r2, r3, r8, fp, lr}
     d84:	0019340b 	andseq	r3, r9, fp, lsl #8
     d88:	000f0c00 	andeq	r0, pc, r0, lsl #24
     d8c:	00000b0b 	andeq	r0, r0, fp, lsl #22
     d90:	3f012e0d 	svccc	0x00012e0d
     d94:	3a0e0319 	bcc	381a00 <__bss_end__+0x376860>
     d98:	390b3b0b 	stmdbcc	fp, {r0, r1, r3, r8, r9, fp, ip, sp}
     d9c:	4919270b 	ldmdbmi	r9, {r0, r1, r3, r8, r9, sl, sp}
     da0:	12011113 	andne	r1, r1, #-1073741820	; 0xc0000004
     da4:	97184006 	ldrls	r4, [r8, -r6]
     da8:	13011942 	movwne	r1, #6466	; 0x1942
     dac:	050e0000 	streq	r0, [lr, #-0]
     db0:	3a080300 	bcc	2019b8 <__bss_end__+0x1f6818>
     db4:	390b3b0b 	stmdbcc	fp, {r0, r1, r3, r8, r9, fp, ip, sp}
     db8:	0213490b 	andseq	r4, r3, #180224	; 0x2c000
     dbc:	1742b717 	smlaldne	fp, r2, r7, r7
     dc0:	050f0000 	streq	r0, [pc, #-0]	; dc8 <__code_start__-0x7238>
     dc4:	3a0e0300 	bcc	3819cc <__bss_end__+0x37682c>
     dc8:	390b3b0b 	stmdbcc	fp, {r0, r1, r3, r8, r9, fp, ip, sp}
     dcc:	0213490b 	andseq	r4, r3, #180224	; 0x2c000
     dd0:	1742b717 	smlaldne	fp, r2, r7, r7
     dd4:	34100000 	ldrcc	r0, [r0], #-0
     dd8:	3a080300 	bcc	2019e0 <__bss_end__+0x1f6840>
     ddc:	390b3b0b 	stmdbcc	fp, {r0, r1, r3, r8, r9, fp, ip, sp}
     de0:	0213490b 	andseq	r4, r3, #180224	; 0x2c000
     de4:	1742b717 	smlaldne	fp, r2, r7, r7
     de8:	34110000 	ldrcc	r0, [r1], #-0
     dec:	3a0e0300 	bcc	3819f4 <__bss_end__+0x376854>
     df0:	390b3b0b 	stmdbcc	fp, {r0, r1, r3, r8, r9, fp, ip, sp}
     df4:	0213490b 	andseq	r4, r3, #180224	; 0x2c000
     df8:	1742b717 	smlaldne	fp, r2, r7, r7
     dfc:	34120000 	ldrcc	r0, [r2], #-0
     e00:	490e0300 	stmdbmi	lr, {r8, r9}
     e04:	02193413 	andseq	r3, r9, #318767104	; 0x13000000
     e08:	13000018 	movwne	r0, #24
     e0c:	1755010b 	ldrbne	r0, [r5, -fp, lsl #2]
     e10:	34140000 	ldrcc	r0, [r4], #-0
     e14:	3a080300 	bcc	201a1c <__bss_end__+0x1f687c>
     e18:	390b3b0b 	stmdbcc	fp, {r0, r1, r3, r8, r9, fp, ip, sp}
     e1c:	0213490b 	andseq	r4, r3, #180224	; 0x2c000
     e20:	15000018 	strne	r0, [r0, #-24]	; 0xffffffe8
     e24:	0e030034 	mcreq	0, 0, r0, cr3, cr4, {1}
     e28:	0b3b0b3a 	bleq	ec3b18 <__bss_end__+0xeb8978>
     e2c:	13490b39 	movtne	r0, #39737	; 0x9b39
     e30:	00001802 	andeq	r1, r0, r2, lsl #16
     e34:	55010b16 	strpl	r0, [r1, #-2838]	; 0xfffff4ea
     e38:	00130117 	andseq	r0, r3, r7, lsl r1
     e3c:	82891700 	addhi	r1, r9, #0, 14
     e40:	01110101 	tsteq	r1, r1, lsl #2
     e44:	13011331 	movwne	r1, #4913	; 0x1331
     e48:	8a180000 	bhi	600e50 <__bss_end__+0x5f5cb0>
     e4c:	02000182 	andeq	r0, r0, #-2147483616	; 0x80000020
     e50:	18429118 	stmdane	r2, {r3, r4, r8, ip, pc}^
     e54:	89190000 	ldmdbhi	r9, {}	; <UNPREDICTABLE>
     e58:	11000182 	smlabbne	r0, r2, r1, r0
     e5c:	00133101 	andseq	r3, r3, r1, lsl #2
     e60:	011d1a00 	tsteq	sp, r0, lsl #20
     e64:	01521331 	cmpeq	r2, r1, lsr r3
     e68:	550542b8 	strpl	r4, [r5, #-696]	; 0xfffffd48
     e6c:	590b5817 	stmdbpl	fp, {r0, r1, r2, r4, fp, ip, lr}
     e70:	010b570b 	tsteq	fp, fp, lsl #14
     e74:	1b000013 	blne	ec8 <__code_start__-0x7138>
     e78:	13310005 	teqne	r1, #5, 0
     e7c:	42b71702 	adcsmi	r1, r7, #524288	; 0x80000
     e80:	1c000017 	stcne	0, cr0, [r0], {23}
     e84:	13310005 	teqne	r1, #5, 0
     e88:	341d0000 	ldrcc	r0, [sp], #-0
     e8c:	02133100 	andseq	r3, r3, #0
     e90:	1e000018 	mcrne	0, 0, r0, cr0, cr8, {0}
     e94:	13310034 	teqne	r1, #52, 0	; 0x34
     e98:	42b71702 	adcsmi	r1, r7, #524288	; 0x80000
     e9c:	1f000017 	svcne	0x00000017
     ea0:	13310034 	teqne	r1, #52, 0	; 0x34
     ea4:	1d200000 	stcne	0, cr0, [r0, #-0]
     ea8:	52133101 	andspl	r3, r3, #1073741824	; 0x40000000
     eac:	0542b801 	strbeq	fp, [r2, #-2049]	; 0xfffff7ff
     eb0:	0b581755 	bleq	1606c0c <__bss_end__+0x15fba6c>
     eb4:	0b570b59 	bleq	15c3c20 <__bss_end__+0x15b8a80>
     eb8:	89210000 	stmdbhi	r1!, {}	; <UNPREDICTABLE>
     ebc:	11010182 	smlabbne	r1, r2, r1, r0
     ec0:	00130101 	andseq	r0, r3, r1, lsl #2
     ec4:	01012200 	mrseq	r2, R9_usr
     ec8:	13011349 	movwne	r1, #4937	; 0x1349
     ecc:	21230000 			; <UNDEFINED> instruction: 0x21230000
     ed0:	2f134900 	svccs	0x00134900
     ed4:	2400000b 	strcs	r0, [r0], #-11
     ed8:	0e03012e 	adfeqsp	f0, f3, #0.5
     edc:	0b3b0b3a 	bleq	ec3bcc <__bss_end__+0xeb8a2c>
     ee0:	19270b39 	stmdbne	r7!, {r0, r3, r4, r5, r8, r9, fp}
     ee4:	0b201349 	bleq	805c10 <__bss_end__+0x7faa70>
     ee8:	00001301 	andeq	r1, r0, r1, lsl #6
     eec:	03000525 	movweq	r0, #1317	; 0x525
     ef0:	3b0b3a0e 	blcc	2cf730 <__bss_end__+0x2c4590>
     ef4:	490b390b 	stmdbmi	fp, {r0, r1, r3, r8, fp, ip, sp}
     ef8:	26000013 			; <UNDEFINED> instruction: 0x26000013
     efc:	08030005 	stmdaeq	r3, {r0, r2}
     f00:	0b3b0b3a 	bleq	ec3bf0 <__bss_end__+0xeb8a50>
     f04:	13490b39 	movtne	r0, #39737	; 0x9b39
     f08:	34270000 	strtcc	r0, [r7], #-0
     f0c:	3a080300 	bcc	201b14 <__bss_end__+0x1f6974>
     f10:	390b3b0b 	stmdbcc	fp, {r0, r1, r3, r8, r9, fp, ip, sp}
     f14:	0013490b 	andseq	r4, r3, fp, lsl #18
     f18:	010b2800 	tsteq	fp, r0, lsl #16
     f1c:	34290000 	strtcc	r0, [r9], #-0
     f20:	3a0e0300 	bcc	381b28 <__bss_end__+0x376988>
     f24:	390b3b0b 	stmdbcc	fp, {r0, r1, r3, r8, r9, fp, ip, sp}
     f28:	0013490b 	andseq	r4, r3, fp, lsl #18
     f2c:	012e2a00 			; <UNDEFINED> instruction: 0x012e2a00
     f30:	0b3a0803 	bleq	e82f44 <__bss_end__+0xe77da4>
     f34:	0b390b3b 	bleq	e43c28 <__bss_end__+0xe38a88>
     f38:	13491927 	movtne	r1, #39207	; 0x9927
     f3c:	13010b20 	movwne	r0, #6944	; 0x1b20
     f40:	2e2b0000 	cdpcs	0, 2, cr0, cr11, cr0, {0}
     f44:	03193f01 	tsteq	r9, #1, 30
     f48:	3b0b3a0e 	blcc	2cf788 <__bss_end__+0x2c45e8>
     f4c:	270b390b 	strcs	r3, [fp, -fp, lsl #18]
     f50:	12011119 	andne	r1, r1, #1073741830	; 0x40000006
     f54:	97184006 	ldrls	r4, [r8, -r6]
     f58:	13011942 	movwne	r1, #6466	; 0x1942
     f5c:	2e2c0000 	cdpcs	0, 2, cr0, cr12, cr0, {0}
     f60:	11133101 	tstne	r3, r1, lsl #2
     f64:	40061201 	andmi	r1, r6, r1, lsl #4
     f68:	19429718 	stmdbne	r2, {r3, r4, r8, r9, sl, ip, pc}^
     f6c:	00001301 	andeq	r1, r0, r1, lsl #6
     f70:	3100052d 	tstcc	r0, sp, lsr #10
     f74:	00180213 	andseq	r0, r8, r3, lsl r2
     f78:	00052e00 	andeq	r2, r5, r0, lsl #28
     f7c:	0b1c1331 	bleq	705c48 <__bss_end__+0x6faaa8>
     f80:	0b2f0000 	bleq	bc0f88 <__bss_end__+0xbb5de8>
     f84:	11133101 	tstne	r3, r1, lsl #2
     f88:	01061201 	tsteq	r6, r1, lsl #4
     f8c:	30000013 	andcc	r0, r0, r3, lsl r0
     f90:	193f002e 	ldmdbne	pc!, {r1, r2, r3, r5}	; <UNPREDICTABLE>
     f94:	0e6e193c 			; <UNDEFINED> instruction: 0x0e6e193c
     f98:	0b3a0e03 	bleq	e847ac <__bss_end__+0xe7960c>
     f9c:	0b390b3b 	bleq	e43c90 <__bss_end__+0xe38af0>
     fa0:	01000000 	mrseq	r0, (UNDEF: 0)
     fa4:	0e250111 	mcreq	1, 1, r0, cr5, cr1, {0}
     fa8:	0e030b13 	vmoveq.32	d3[0], r0
     fac:	01110e1b 	tsteq	r1, fp, lsl lr
     fb0:	17100612 			; <UNDEFINED> instruction: 0x17100612
     fb4:	24020000 	strcs	r0, [r2], #-0
     fb8:	3e0b0b00 	vmlacc.f64	d0, d11, d0
     fbc:	0008030b 	andeq	r0, r8, fp, lsl #6
     fc0:	00240300 	eoreq	r0, r4, r0, lsl #6
     fc4:	0b3e0b0b 	bleq	f83bf8 <__bss_end__+0xf78a58>
     fc8:	00000e03 	andeq	r0, r0, r3, lsl #28
     fcc:	27011504 	strcs	r1, [r1, -r4, lsl #10]
     fd0:	01134919 	tsteq	r3, r9, lsl r9
     fd4:	05000013 	streq	r0, [r0, #-19]	; 0xffffffed
     fd8:	13490005 	movtne	r0, #36869	; 0x9005
     fdc:	34060000 	strcc	r0, [r6], #-0
     fe0:	3a0e0300 	bcc	381be8 <__bss_end__+0x376a48>
     fe4:	390b3b0b 	stmdbcc	fp, {r0, r1, r3, r8, r9, fp, ip, sp}
     fe8:	3f13490b 	svccc	0x0013490b
     fec:	00193c19 	andseq	r3, r9, r9, lsl ip
     ff0:	000f0700 	andeq	r0, pc, r0, lsl #14
     ff4:	13490b0b 	movtne	r0, #39691	; 0x9b0b
     ff8:	26080000 	strcs	r0, [r8], -r0
     ffc:	00134900 	andseq	r4, r3, r0, lsl #18
    1000:	012e0900 			; <UNDEFINED> instruction: 0x012e0900
    1004:	0e03193f 			; <UNDEFINED> instruction: 0x0e03193f
    1008:	0b3b0b3a 	bleq	ec3cf8 <__bss_end__+0xeb8b58>
    100c:	19270b39 	stmdbne	r7!, {r0, r3, r4, r5, r8, r9, fp}
    1010:	11190187 	tstne	r9, r7, lsl #3
    1014:	40061201 	andmi	r1, r6, r1, lsl #4
    1018:	19429718 	stmdbne	r2, {r3, r4, r8, r9, sl, ip, pc}^
    101c:	00001301 	andeq	r1, r0, r1, lsl #6
    1020:	0182890a 	orreq	r8, r2, sl, lsl #18
    1024:	01011101 	tsteq	r1, r1, lsl #2
    1028:	0b000013 	bleq	107c <__code_start__-0x6f84>
    102c:	0001828a 	andeq	r8, r1, sl, lsl #5
    1030:	42911802 	addsmi	r1, r1, #131072	; 0x20000
    1034:	0c000018 	stceq	0, cr0, [r0], {24}
    1038:	00018289 	andeq	r8, r1, r9, lsl #5
    103c:	13310111 	teqne	r1, #1073741828	; 0x40000004
    1040:	890d0000 	stmdbhi	sp, {}	; <UNPREDICTABLE>
    1044:	11010182 	smlabbne	r1, r2, r1, r0
    1048:	01133101 	tsteq	r3, r1, lsl #2
    104c:	0e000013 	mcreq	0, 0, r0, cr0, cr3, {0}
    1050:	193f002e 	ldmdbne	pc!, {r1, r2, r3, r5}	; <UNPREDICTABLE>
    1054:	0e6e193c 			; <UNDEFINED> instruction: 0x0e6e193c
    1058:	0b3a0e03 	bleq	e8486c <__bss_end__+0xe796cc>
    105c:	0b390b3b 	bleq	e43d50 <__bss_end__+0xe38bb0>
    1060:	01000000 	mrseq	r0, (UNDEF: 0)
    1064:	0e250111 	mcreq	1, 1, r0, cr5, cr1, {0}
    1068:	0e030b13 	vmoveq.32	d3[0], r0
    106c:	01110e1b 	tsteq	r1, fp, lsl lr
    1070:	17100612 			; <UNDEFINED> instruction: 0x17100612
    1074:	24020000 	strcs	r0, [r2], #-0
    1078:	3e0b0b00 	vmlacc.f64	d0, d11, d0
    107c:	0008030b 	andeq	r0, r8, fp, lsl #6
    1080:	00240300 	eoreq	r0, r4, r0, lsl #6
    1084:	0b3e0b0b 	bleq	f83cb8 <__bss_end__+0xf78b18>
    1088:	00000e03 	andeq	r0, r0, r3, lsl #28
    108c:	27011504 	strcs	r1, [r1, -r4, lsl #10]
    1090:	01134919 	tsteq	r3, r9, lsl r9
    1094:	05000013 	streq	r0, [r0, #-19]	; 0xffffffed
    1098:	13490005 	movtne	r0, #36869	; 0x9005
    109c:	34060000 	strcc	r0, [r6], #-0
    10a0:	3a0e0300 	bcc	381ca8 <__bss_end__+0x376b08>
    10a4:	390b3b0b 	stmdbcc	fp, {r0, r1, r3, r8, r9, fp, ip, sp}
    10a8:	3f13490b 	svccc	0x0013490b
    10ac:	00193c19 	andseq	r3, r9, r9, lsl ip
    10b0:	000f0700 	andeq	r0, pc, r0, lsl #14
    10b4:	13490b0b 	movtne	r0, #39691	; 0x9b0b
    10b8:	26080000 	strcs	r0, [r8], -r0
    10bc:	00134900 	andseq	r4, r3, r0, lsl #18
    10c0:	012e0900 			; <UNDEFINED> instruction: 0x012e0900
    10c4:	0e03193f 			; <UNDEFINED> instruction: 0x0e03193f
    10c8:	0b3b0b3a 	bleq	ec3db8 <__bss_end__+0xeb8c18>
    10cc:	01110b39 	tsteq	r1, r9, lsr fp
    10d0:	18400612 	stmdane	r0, {r1, r4, r9, sl}^
    10d4:	01194297 			; <UNDEFINED> instruction: 0x01194297
    10d8:	0a000013 	beq	112c <__code_start__-0x6ed4>
    10dc:	193f002e 	ldmdbne	pc!, {r1, r2, r3, r5}	; <UNPREDICTABLE>
    10e0:	0b3a0e03 	bleq	e848f4 <__bss_end__+0xe79754>
    10e4:	0b390b3b 	bleq	e43dd8 <__bss_end__+0xe38c38>
    10e8:	193c1927 	ldmdbne	ip!, {r0, r1, r2, r5, r8, fp, ip}
    10ec:	340b0000 	strcc	r0, [fp], #-0
    10f0:	3a080300 	bcc	201cf8 <__bss_end__+0x1f6b58>
    10f4:	390b3b0b 	stmdbcc	fp, {r0, r1, r3, r8, r9, fp, ip, sp}
    10f8:	0213490b 	andseq	r4, r3, #180224	; 0x2c000
    10fc:	1742b717 	smlaldne	fp, r2, r7, r7
    1100:	340c0000 	strcc	r0, [ip], #-0
    1104:	3a0e0300 	bcc	381d0c <__bss_end__+0x376b6c>
    1108:	390b3b0b 	stmdbcc	fp, {r0, r1, r3, r8, r9, fp, ip, sp}
    110c:	0013490b 	andseq	r4, r3, fp, lsl #18
    1110:	00340d00 	eorseq	r0, r4, r0, lsl #26
    1114:	0b3a0e03 	bleq	e84928 <__bss_end__+0xe79788>
    1118:	0b390b3b 	bleq	e43e0c <__bss_end__+0xe38c6c>
    111c:	17021349 	strne	r1, [r2, -r9, asr #6]
    1120:	001742b7 			; <UNDEFINED> instruction: 0x001742b7
    1124:	010b0e00 	tsteq	fp, r0, lsl #28
    1128:	06120111 			; <UNDEFINED> instruction: 0x06120111
    112c:	00001301 	andeq	r1, r0, r1, lsl #6
    1130:	31011d0f 	tstcc	r1, pc, lsl #26
    1134:	b8015213 	stmdalt	r1, {r0, r1, r4, r9, ip, lr}
    1138:	01110b42 	tsteq	r1, r2, asr #22
    113c:	0b580612 	bleq	160298c <__bss_end__+0x15f77ec>
    1140:	0b570b59 	bleq	15c3eac <__bss_end__+0x15b8d0c>
    1144:	00001301 	andeq	r1, r0, r1, lsl #6
    1148:	31003410 	tstcc	r0, r0, lsl r4
    114c:	b7170213 			; <UNDEFINED> instruction: 0xb7170213
    1150:	00001742 	andeq	r1, r0, r2, asr #14
    1154:	31010b11 	tstcc	r1, r1, lsl fp
    1158:	12011113 	andne	r1, r1, #-1073741820	; 0xc0000004
    115c:	12000006 	andne	r0, r0, #6, 0
    1160:	1331011d 	teqne	r1, #1073741831	; 0x40000007
    1164:	42b80152 	adcsmi	r0, r8, #-2147483628	; 0x80000014
    1168:	5817550b 	ldmdapl	r7, {r0, r1, r3, r8, sl, ip, lr}
    116c:	570b590b 	strpl	r5, [fp, -fp, lsl #18]
    1170:	0013010b 	andseq	r0, r3, fp, lsl #2
    1174:	010b1300 	mrseq	r1, (UNDEF: 59)
    1178:	00001755 	andeq	r1, r0, r5, asr r7
    117c:	01828914 	orreq	r8, r2, r4, lsl r9
    1180:	31011100 	mrscc	r1, (UNDEF: 17)
    1184:	15000013 	strne	r0, [r0, #-19]	; 0xffffffed
    1188:	01018289 	smlabbeq	r1, r9, r2, r8
    118c:	13310111 	teqne	r1, #1073741828	; 0x40000004
    1190:	00001301 	andeq	r1, r0, r1, lsl #6
    1194:	01828a16 	orreq	r8, r2, r6, lsl sl
    1198:	91180200 	tstls	r8, r0, lsl #4
    119c:	00001842 	andeq	r1, r0, r2, asr #16
    11a0:	03012e17 	movweq	r2, #7703	; 0x1e17
    11a4:	3b0b3a0e 	blcc	2cf9e4 <__bss_end__+0x2c4844>
    11a8:	270b390b 	strcs	r3, [fp, -fp, lsl #18]
    11ac:	20134919 	andscs	r4, r3, r9, lsl r9
    11b0:	0013010b 	andseq	r0, r3, fp, lsl #2
    11b4:	00341800 	eorseq	r1, r4, r0, lsl #16
    11b8:	0b3a0e03 	bleq	e849cc <__bss_end__+0xe7982c>
    11bc:	0b390b3b 	bleq	e43eb0 <__bss_end__+0xe38d10>
    11c0:	18021349 	stmdane	r2, {r0, r3, r6, r8, r9, ip}
    11c4:	34190000 	ldrcc	r0, [r9], #-0
    11c8:	3a080300 	bcc	201dd0 <__bss_end__+0x1f6c30>
    11cc:	390b3b0b 	stmdbcc	fp, {r0, r1, r3, r8, r9, fp, ip, sp}
    11d0:	0013490b 	andseq	r4, r3, fp, lsl #18
    11d4:	010b1a00 	tsteq	fp, r0, lsl #20
    11d8:	2e1b0000 	cdpcs	0, 1, cr0, cr11, cr0, {0}
    11dc:	3c193f00 	ldccc	15, cr3, [r9], {-0}
    11e0:	030e6e19 	movweq	r6, #60953	; 0xee19
    11e4:	3b0b3a0e 	blcc	2cfa24 <__bss_end__+0x2c4884>
    11e8:	000b3905 	andeq	r3, fp, r5, lsl #18
    11ec:	002e1c00 	eoreq	r1, lr, r0, lsl #24
    11f0:	193c193f 	ldmdbne	ip!, {r0, r1, r2, r3, r4, r5, r8, fp, ip}
    11f4:	0e030e6e 	cdpeq	14, 0, cr0, cr3, cr14, {3}
    11f8:	0b3b0b3a 	bleq	ec3ee8 <__bss_end__+0xeb8d48>
    11fc:	00000b39 	andeq	r0, r0, r9, lsr fp
    1200:	01110100 	tsteq	r1, r0, lsl #2
    1204:	0b130e25 	bleq	4c4aa0 <__bss_end__+0x4b9900>
    1208:	0e1b0e03 	cdpeq	14, 1, cr0, cr11, cr3, {0}
    120c:	06120111 			; <UNDEFINED> instruction: 0x06120111
    1210:	00001710 	andeq	r1, r0, r0, lsl r7
    1214:	0b002402 	bleq	a224 <kfree_pop+0x1c>
    1218:	030b3e0b 	movweq	r3, #48651	; 0xbe0b
    121c:	03000008 	movweq	r0, #8
    1220:	0b0b0024 	bleq	2c12b8 <__bss_end__+0x2b6118>
    1224:	0e030b3e 	vmoveq.16	d3[0], r0
    1228:	15040000 	strne	r0, [r4, #-0]
    122c:	49192701 	ldmdbmi	r9, {r0, r8, r9, sl, sp}
    1230:	00130113 	andseq	r0, r3, r3, lsl r1
    1234:	00050500 	andeq	r0, r5, r0, lsl #10
    1238:	00001349 	andeq	r1, r0, r9, asr #6
    123c:	03003406 	movweq	r3, #1030	; 0x406
    1240:	3b0b3a0e 	blcc	2cfa80 <__bss_end__+0x2c48e0>
    1244:	490b390b 	stmdbmi	fp, {r0, r1, r3, r8, fp, ip, sp}
    1248:	3c193f13 	ldccc	15, cr3, [r9], {19}
    124c:	07000019 	smladeq	r0, r9, r0, r0
    1250:	0b0b000f 	bleq	2c1294 <__bss_end__+0x2b60f4>
    1254:	00001349 	andeq	r1, r0, r9, asr #6
    1258:	49002608 	stmdbmi	r0, {r3, r9, sl, sp}
    125c:	09000013 	stmdbeq	r0, {r0, r1, r4}
    1260:	193f002e 	ldmdbne	pc!, {r1, r2, r3, r5}	; <UNPREDICTABLE>
    1264:	0b3a0e03 	bleq	e84a78 <__bss_end__+0xe798d8>
    1268:	0b390b3b 	bleq	e43f5c <__bss_end__+0xe38dbc>
    126c:	01111927 	tsteq	r1, r7, lsr #18
    1270:	18400612 	stmdane	r0, {r1, r4, r9, sl}^
    1274:	00194297 	mulseq	r9, r7, r2
    1278:	11010000 	mrsne	r0, (UNDEF: 1)
    127c:	130e2501 	movwne	r2, #58625	; 0xe501
    1280:	1b0e030b 	blne	381eb4 <__bss_end__+0x376d14>
    1284:	1117550e 	tstne	r7, lr, lsl #10
    1288:	00171001 	andseq	r1, r7, r1
    128c:	00240200 	eoreq	r0, r4, r0, lsl #4
    1290:	0b3e0b0b 	bleq	f83ec4 <__bss_end__+0xf78d24>
    1294:	00000803 	andeq	r0, r0, r3, lsl #16
    1298:	49002603 	stmdbmi	r0, {r0, r1, r9, sl, sp}
    129c:	04000013 	streq	r0, [r0], #-19	; 0xffffffed
    12a0:	0b0b0024 	bleq	2c1338 <__bss_end__+0x2b6198>
    12a4:	0e030b3e 	vmoveq.16	d3[0], r0
    12a8:	15050000 	strne	r0, [r5, #-0]
    12ac:	49192701 	ldmdbmi	r9, {r0, r8, r9, sl, sp}
    12b0:	00130113 	andseq	r0, r3, r3, lsl r1
    12b4:	00050600 	andeq	r0, r5, r0, lsl #12
    12b8:	00001349 	andeq	r1, r0, r9, asr #6
    12bc:	03003407 	movweq	r3, #1031	; 0x407
    12c0:	3b0b3a0e 	blcc	2cfb00 <__bss_end__+0x2c4960>
    12c4:	490b390b 	stmdbmi	fp, {r0, r1, r3, r8, fp, ip, sp}
    12c8:	3c193f13 	ldccc	15, cr3, [r9], {19}
    12cc:	08000019 	stmdaeq	r0, {r0, r3, r4}
    12d0:	0b0b000f 	bleq	2c1314 <__bss_end__+0x2b6174>
    12d4:	00001349 	andeq	r1, r0, r9, asr #6
    12d8:	03003409 	movweq	r3, #1033	; 0x409
    12dc:	3b0b3a0e 	blcc	2cfb1c <__bss_end__+0x2c497c>
    12e0:	490b390b 	stmdbmi	fp, {r0, r1, r3, r8, fp, ip, sp}
    12e4:	0a000013 	beq	1338 <__code_start__-0x6cc8>
    12e8:	193f012e 	ldmdbne	pc!, {r1, r2, r3, r5, r8}	; <UNPREDICTABLE>
    12ec:	0b3a0e03 	bleq	e84b00 <__bss_end__+0xe79960>
    12f0:	0b390b3b 	bleq	e43fe4 <__bss_end__+0xe38e44>
    12f4:	01871927 	orreq	r1, r7, r7, lsr #18
    12f8:	12011119 	andne	r1, r1, #1073741830	; 0x40000006
    12fc:	97184006 	ldrls	r4, [r8, -r6]
    1300:	13011942 	movwne	r1, #6466	; 0x1942
    1304:	340b0000 	strcc	r0, [fp], #-0
    1308:	3a0e0300 	bcc	381f10 <__bss_end__+0x376d70>
    130c:	390b3b0b 	stmdbcc	fp, {r0, r1, r3, r8, r9, fp, ip, sp}
    1310:	1c13490b 			; <UNDEFINED> instruction: 0x1c13490b
    1314:	0c000006 	stceq	0, cr0, [r0], {6}
    1318:	0e030034 	mcreq	0, 0, r0, cr3, cr4, {1}
    131c:	0b3b0b3a 	bleq	ec400c <__bss_end__+0xeb8e6c>
    1320:	13490b39 	movtne	r0, #39737	; 0x9b39
    1324:	00000b1c 	andeq	r0, r0, ip, lsl fp
    1328:	31011d0d 	tstcc	r1, sp, lsl #26
    132c:	b8015213 	stmdalt	r1, {r0, r1, r4, r9, ip, lr}
    1330:	17550b42 	ldrbne	r0, [r5, -r2, asr #22]
    1334:	0b590b58 	bleq	164409c <__bss_end__+0x1638efc>
    1338:	13010b57 	movwne	r0, #6999	; 0x1b57
    133c:	0b0e0000 	bleq	381344 <__bss_end__+0x3761a4>
    1340:	00175501 	andseq	r5, r7, r1, lsl #10
    1344:	00340f00 	eorseq	r0, r4, r0, lsl #30
    1348:	17021331 	smladxne	r2, r1, r3, r1
    134c:	001742b7 			; <UNDEFINED> instruction: 0x001742b7
    1350:	011d1000 	tsteq	sp, r0
    1354:	01521331 	cmpeq	r2, r1, lsr r3
    1358:	110b42b8 			; <UNDEFINED> instruction: 0x110b42b8
    135c:	58061201 	stmdapl	r6, {r0, r9, ip}
    1360:	570b590b 	strpl	r5, [fp, -fp, lsl #18]
    1364:	0013010b 	andseq	r0, r3, fp, lsl #2
    1368:	82891100 	addhi	r1, r9, #0
    136c:	01110001 	tsteq	r1, r1
    1370:	00001331 	andeq	r1, r0, r1, lsr r3
    1374:	01828912 	orreq	r8, r2, r2, lsl r9
    1378:	31011101 	tstcc	r1, r1, lsl #2
    137c:	00130113 	andseq	r0, r3, r3, lsl r1
    1380:	828a1300 	addhi	r1, sl, #0, 6
    1384:	18020001 	stmdane	r2, {r0}
    1388:	00184291 	mulseq	r8, r1, r2
    138c:	82891400 	addhi	r1, r9, #0, 8
    1390:	01110101 	tsteq	r1, r1, lsl #2
    1394:	00001331 	andeq	r1, r0, r1, lsr r3
    1398:	3f012e15 	svccc	0x00012e15
    139c:	3a0e0319 	bcc	382008 <__bss_end__+0x376e68>
    13a0:	390b3b0b 	stmdbcc	fp, {r0, r1, r3, r8, r9, fp, ip, sp}
    13a4:	2019270b 	andscs	r2, r9, fp, lsl #14
    13a8:	0013010b 	andseq	r0, r3, fp, lsl #2
    13ac:	012e1600 			; <UNDEFINED> instruction: 0x012e1600
    13b0:	0e03193f 			; <UNDEFINED> instruction: 0x0e03193f
    13b4:	0b3b0b3a 	bleq	ec40a4 <__bss_end__+0xeb8f04>
    13b8:	19270b39 	stmdbne	r7!, {r0, r3, r4, r5, r8, r9, fp}
    13bc:	0b201349 	bleq	8060e8 <__bss_end__+0x7faf48>
    13c0:	00001301 	andeq	r1, r0, r1, lsl #6
    13c4:	31012e17 	tstcc	r1, r7, lsl lr
    13c8:	12011113 	andne	r1, r1, #-1073741820	; 0xc0000004
    13cc:	97184006 	ldrls	r4, [r8, -r6]
    13d0:	13011942 	movwne	r1, #6466	; 0x1942
    13d4:	2e180000 	cdpcs	0, 1, cr0, cr8, cr0, {0}
    13d8:	3c193f00 	ldccc	15, cr3, [r9], {-0}
    13dc:	030e6e19 	movweq	r6, #60953	; 0xee19
    13e0:	3b0b3a0e 	blcc	2cfc20 <__bss_end__+0x2c4a80>
    13e4:	000b3905 	andeq	r3, fp, r5, lsl #18
    13e8:	002e1900 	eoreq	r1, lr, r0, lsl #18
    13ec:	193c193f 	ldmdbne	ip!, {r0, r1, r2, r3, r4, r5, r8, fp, ip}
    13f0:	0e030e6e 	cdpeq	14, 0, cr0, cr3, cr14, {3}
    13f4:	0b3b0b3a 	bleq	ec40e4 <__bss_end__+0xeb8f44>
    13f8:	00000b39 	andeq	r0, r0, r9, lsr fp
    13fc:	01110100 	tsteq	r1, r0, lsl #2
    1400:	0b130e25 	bleq	4c4c9c <__bss_end__+0x4b9afc>
    1404:	0e1b0e03 	cdpeq	14, 1, cr0, cr11, cr3, {0}
    1408:	06120111 			; <UNDEFINED> instruction: 0x06120111
    140c:	00001710 	andeq	r1, r0, r0, lsl r7
    1410:	0b002402 	bleq	a420 <rpi_reset_putc+0xc>
    1414:	030b3e0b 	movweq	r3, #48651	; 0xbe0b
    1418:	03000008 	movweq	r0, #8
    141c:	0b0b0024 	bleq	2c14b4 <__bss_end__+0x2b6314>
    1420:	0e030b3e 	vmoveq.16	d3[0], r0
    1424:	15040000 	strne	r0, [r4, #-0]
    1428:	49192701 	ldmdbmi	r9, {r0, r8, r9, sl, sp}
    142c:	00130113 	andseq	r0, r3, r3, lsl r1
    1430:	00050500 	andeq	r0, r5, r0, lsl #10
    1434:	00001349 	andeq	r1, r0, r9, asr #6
    1438:	03003406 	movweq	r3, #1030	; 0x406
    143c:	3b0b3a0e 	blcc	2cfc7c <__bss_end__+0x2c4adc>
    1440:	490b390b 	stmdbmi	fp, {r0, r1, r3, r8, fp, ip, sp}
    1444:	3c193f13 	ldccc	15, cr3, [r9], {19}
    1448:	07000019 	smladeq	r0, r9, r0, r0
    144c:	0b0b000f 	bleq	2c1490 <__bss_end__+0x2b62f0>
    1450:	00001349 	andeq	r1, r0, r9, asr #6
    1454:	49002608 	stmdbmi	r0, {r3, r9, sl, sp}
    1458:	09000013 	stmdbeq	r0, {r0, r1, r4}
    145c:	193f012e 	ldmdbne	pc!, {r1, r2, r3, r5, r8}	; <UNPREDICTABLE>
    1460:	0b3a0e03 	bleq	e84c74 <__bss_end__+0xe79ad4>
    1464:	0b390b3b 	bleq	e44158 <__bss_end__+0xe38fb8>
    1468:	01111927 	tsteq	r1, r7, lsr #18
    146c:	18400612 	stmdane	r0, {r1, r4, r9, sl}^
    1470:	01194297 			; <UNDEFINED> instruction: 0x01194297
    1474:	0a000013 	beq	14c8 <__code_start__-0x6b38>
    1478:	08030005 	stmdaeq	r3, {r0, r2}
    147c:	0b3b0b3a 	bleq	ec416c <__bss_end__+0xeb8fcc>
    1480:	13490b39 	movtne	r0, #39737	; 0x9b39
    1484:	42b71702 	adcsmi	r1, r7, #524288	; 0x80000
    1488:	0b000017 	bleq	14ec <__code_start__-0x6b14>
    148c:	1331011d 	teqne	r1, #1073741831	; 0x40000007
    1490:	42b80152 	adcsmi	r0, r8, #-2147483628	; 0x80000014
    1494:	5817550b 	ldmdapl	r7, {r0, r1, r3, r8, sl, ip, lr}
    1498:	570b590b 	strpl	r5, [fp, -fp, lsl #18]
    149c:	0c00000b 	stceq	0, cr0, [r0], {11}
    14a0:	13310005 	teqne	r1, #5, 0
    14a4:	42b71702 	adcsmi	r1, r7, #524288	; 0x80000
    14a8:	0d000017 	stceq	0, cr0, [r0, #-92]	; 0xffffffa4
    14ac:	1331011d 	teqne	r1, #1073741831	; 0x40000007
    14b0:	42b80152 	adcsmi	r0, r8, #-2147483628	; 0x80000014
    14b4:	1201110b 	andne	r1, r1, #-1073741822	; 0xc0000002
    14b8:	590b5806 	stmdbpl	fp, {r1, r2, fp, ip, lr}
    14bc:	000b570b 	andeq	r5, fp, fp, lsl #14
    14c0:	00340e00 	eorseq	r0, r4, r0, lsl #28
    14c4:	17021331 	smladxne	r2, r1, r3, r1
    14c8:	001742b7 			; <UNDEFINED> instruction: 0x001742b7
    14cc:	011d0f00 	tsteq	sp, r0, lsl #30
    14d0:	01521331 	cmpeq	r2, r1, lsr r3
    14d4:	110b42b8 			; <UNDEFINED> instruction: 0x110b42b8
    14d8:	58061201 	stmdapl	r6, {r0, r9, ip}
    14dc:	570b590b 	strpl	r5, [fp, -fp, lsl #18]
    14e0:	0013010b 	andseq	r0, r3, fp, lsl #2
    14e4:	82891000 	addhi	r1, r9, #0, 0
    14e8:	01110101 	tsteq	r1, r1, lsl #2
    14ec:	00001331 	andeq	r1, r0, r1, lsr r3
    14f0:	01828a11 	orreq	r8, r2, r1, lsl sl
    14f4:	91180200 	tstls	r8, r0, lsl #4
    14f8:	00001842 	andeq	r1, r0, r2, asr #16
    14fc:	01828912 	orreq	r8, r2, r2, lsl r9
    1500:	31011100 	mrscc	r1, (UNDEF: 17)
    1504:	13000013 	movwne	r0, #19
    1508:	1331010b 	teqne	r1, #-1073741822	; 0xc0000002
    150c:	00001755 	andeq	r1, r0, r5, asr r7
    1510:	31003414 	tstcc	r0, r4, lsl r4
    1514:	15000013 	strne	r0, [r0, #-19]	; 0xffffffed
    1518:	1755010b 	ldrbne	r0, [r5, -fp, lsl #2]
    151c:	1d160000 	ldcne	0, cr0, [r6, #-0]
    1520:	52133101 	andspl	r3, r3, #1073741824	; 0x40000000
    1524:	0b42b801 	bleq	10af530 <__bss_end__+0x10a4390>
    1528:	0b581755 	bleq	1607284 <__bss_end__+0x15fc0e4>
    152c:	0b570b59 	bleq	15c4298 <__bss_end__+0x15b90f8>
    1530:	00001301 	andeq	r1, r0, r1, lsl #6
    1534:	3f012e17 	svccc	0x00012e17
    1538:	3a0e0319 	bcc	3821a4 <__bss_end__+0x377004>
    153c:	390b3b0b 	stmdbcc	fp, {r0, r1, r3, r8, r9, fp, ip, sp}
    1540:	2019270b 	andscs	r2, r9, fp, lsl #14
    1544:	0013010b 	andseq	r0, r3, fp, lsl #2
    1548:	00051800 	andeq	r1, r5, r0, lsl #16
    154c:	0b3a0803 	bleq	e83560 <__bss_end__+0xe783c0>
    1550:	0b390b3b 	bleq	e44244 <__bss_end__+0xe390a4>
    1554:	00001349 	andeq	r1, r0, r9, asr #6
    1558:	03003419 	movweq	r3, #1049	; 0x419
    155c:	3b0b3a08 	blcc	2cfd84 <__bss_end__+0x2c4be4>
    1560:	490b390b 	stmdbmi	fp, {r0, r1, r3, r8, fp, ip, sp}
    1564:	1a000013 	bne	15b8 <__code_start__-0x6a48>
    1568:	0000010b 	andeq	r0, r0, fp, lsl #2
    156c:	3f012e1b 	svccc	0x00012e1b
    1570:	3a0e0319 	bcc	3821dc <__bss_end__+0x37703c>
    1574:	390b3b0b 	stmdbcc	fp, {r0, r1, r3, r8, r9, fp, ip, sp}
    1578:	4919270b 	ldmdbmi	r9, {r0, r1, r3, r8, r9, sl, sp}
    157c:	010b2013 	tsteq	fp, r3, lsl r0
    1580:	1c000013 	stcne	0, cr0, [r0], {19}
    1584:	193f002e 	ldmdbne	pc!, {r1, r2, r3, r5}	; <UNPREDICTABLE>
    1588:	0b3a0e03 	bleq	e84d9c <__bss_end__+0xe79bfc>
    158c:	0b390b3b 	bleq	e44280 <__bss_end__+0xe390e0>
    1590:	13491927 	movtne	r1, #39207	; 0x9927
    1594:	00000b20 	andeq	r0, r0, r0, lsr #22
    1598:	31012e1d 	tstcc	r1, sp, lsl lr
    159c:	12011113 	andne	r1, r1, #-1073741820	; 0xc0000004
    15a0:	97184006 	ldrls	r4, [r8, -r6]
    15a4:	13011942 	movwne	r1, #6466	; 0x1942
    15a8:	891e0000 	ldmdbhi	lr, {}	; <UNPREDICTABLE>
    15ac:	11010182 	smlabbne	r1, r2, r1, r0
    15b0:	19429501 	stmdbne	r2, {r0, r8, sl, ip, pc}^
    15b4:	00001331 	andeq	r1, r0, r1, lsr r3
    15b8:	3f002e1f 	svccc	0x00002e1f
    15bc:	6e193c19 	mrcvs	12, 0, r3, cr9, cr9, {0}
    15c0:	3a0e030e 	bcc	382200 <__bss_end__+0x377060>
    15c4:	390b3b0b 	stmdbcc	fp, {r0, r1, r3, r8, r9, fp, ip, sp}
    15c8:	0000000b 	andeq	r0, r0, fp
    15cc:	25011101 	strcs	r1, [r1, #-257]	; 0xfffffeff
    15d0:	030b130e 	movweq	r1, #45838	; 0xb30e
    15d4:	110e1b0e 	tstne	lr, lr, lsl #22
    15d8:	10061201 	andne	r1, r6, r1, lsl #4
    15dc:	02000017 	andeq	r0, r0, #23, 0
    15e0:	0b0b0024 	bleq	2c1678 <__bss_end__+0x2b64d8>
    15e4:	08030b3e 	stmdaeq	r3, {r1, r2, r3, r4, r5, r8, r9, fp}
    15e8:	24030000 	strcs	r0, [r3], #-0
    15ec:	3e0b0b00 	vmlacc.f64	d0, d11, d0
    15f0:	000e030b 	andeq	r0, lr, fp, lsl #6
    15f4:	00350400 	eorseq	r0, r5, r0, lsl #8
    15f8:	00001349 	andeq	r1, r0, r9, asr #6
    15fc:	03001605 	movweq	r1, #1541	; 0x605
    1600:	3b0b3a0e 	blcc	2cfe40 <__bss_end__+0x2c4ca0>
    1604:	490b390b 	stmdbmi	fp, {r0, r1, r3, r8, fp, ip, sp}
    1608:	06000013 			; <UNDEFINED> instruction: 0x06000013
    160c:	0b3e0104 	bleq	f81a24 <__bss_end__+0xf76884>
    1610:	13490b0b 	movtne	r0, #39691	; 0x9b0b
    1614:	0b3b0b3a 	bleq	ec4304 <__bss_end__+0xeb9164>
    1618:	13010b39 	movwne	r0, #6969	; 0x1b39
    161c:	28070000 	stmdacs	r7, {}	; <UNPREDICTABLE>
    1620:	1c0e0300 	stcne	3, cr0, [lr], {-0}
    1624:	0800000b 	stmdaeq	r0, {r0, r1, r3}
    1628:	0e030113 	mcreq	1, 0, r0, cr3, cr3, {0}
    162c:	0b3a0b0b 	bleq	e84260 <__bss_end__+0xe790c0>
    1630:	0b390b3b 	bleq	e44324 <__bss_end__+0xe39184>
    1634:	00001301 	andeq	r1, r0, r1, lsl #6
    1638:	03000d09 	movweq	r0, #3337	; 0xd09
    163c:	3b0b3a08 	blcc	2cfe64 <__bss_end__+0x2c4cc4>
    1640:	490b390b 	stmdbmi	fp, {r0, r1, r3, r8, fp, ip, sp}
    1644:	000b3813 	andeq	r3, fp, r3, lsl r8
    1648:	000d0a00 	andeq	r0, sp, r0, lsl #20
    164c:	0b3a0e03 	bleq	e84e60 <__bss_end__+0xe79cc0>
    1650:	0b390b3b 	bleq	e44344 <__bss_end__+0xe391a4>
    1654:	0b381349 	bleq	e06380 <__bss_end__+0xdfb1e0>
    1658:	340b0000 	strcc	r0, [fp], #-0
    165c:	3a0e0300 	bcc	382264 <__bss_end__+0x3770c4>
    1660:	390b3b0b 	stmdbcc	fp, {r0, r1, r3, r8, r9, fp, ip, sp}
    1664:	1c13490b 			; <UNDEFINED> instruction: 0x1c13490b
    1668:	0c000006 	stceq	0, cr0, [r0], {6}
    166c:	0b0b000f 	bleq	2c16b0 <__bss_end__+0x2b6510>
    1670:	00001349 	andeq	r1, r0, r9, asr #6
    1674:	4900260d 	stmdbmi	r0, {r0, r2, r3, r9, sl, sp}
    1678:	0e000013 	mcreq	0, 0, r0, cr0, cr3, {0}
    167c:	193f012e 	ldmdbne	pc!, {r1, r2, r3, r5, r8}	; <UNPREDICTABLE>
    1680:	0b3a0e03 	bleq	e84e94 <__bss_end__+0xe79cf4>
    1684:	0b390b3b 	bleq	e44378 <__bss_end__+0xe391d8>
    1688:	01111927 	tsteq	r1, r7, lsr #18
    168c:	18400612 	stmdane	r0, {r1, r4, r9, sl}^
    1690:	01194297 			; <UNDEFINED> instruction: 0x01194297
    1694:	0f000013 	svceq	0x00000013
    1698:	00018289 	andeq	r8, r1, r9, lsl #5
    169c:	13310111 	teqne	r1, #1073741828	; 0x40000004
    16a0:	2e100000 	cdpcs	0, 1, cr0, cr0, cr0, {0}
    16a4:	03193f01 	tsteq	r9, #1, 30
    16a8:	3b0b3a0e 	blcc	2cfee8 <__bss_end__+0x2c4d48>
    16ac:	270b390b 	strcs	r3, [fp, -fp, lsl #18]
    16b0:	11134919 	tstne	r3, r9, lsl r9
    16b4:	40061201 	andmi	r1, r6, r1, lsl #4
    16b8:	19429718 	stmdbne	r2, {r3, r4, r8, r9, sl, ip, pc}^
    16bc:	00001301 	andeq	r1, r0, r1, lsl #6
    16c0:	01828911 	orreq	r8, r2, r1, lsl r9
    16c4:	31011101 	tstcc	r1, r1, lsl #2
    16c8:	12000013 	andne	r0, r0, #19, 0
    16cc:	0001828a 	andeq	r8, r1, sl, lsl #5
    16d0:	42911802 	addsmi	r1, r1, #131072	; 0x20000
    16d4:	13000018 	movwne	r0, #24
    16d8:	08030005 	stmdaeq	r3, {r0, r2}
    16dc:	0b3b0b3a 	bleq	ec43cc <__bss_end__+0xeb922c>
    16e0:	13490b39 	movtne	r0, #39737	; 0x9b39
    16e4:	42b71702 	adcsmi	r1, r7, #524288	; 0x80000
    16e8:	14000017 	strne	r0, [r0], #-23	; 0xffffffe9
    16ec:	01018289 	smlabbeq	r1, r9, r2, r8
    16f0:	13310111 	teqne	r1, #1073741828	; 0x40000004
    16f4:	00001301 	andeq	r1, r0, r1, lsl #6
    16f8:	03003415 	movweq	r3, #1045	; 0x415
    16fc:	3b0b3a08 	blcc	2cff24 <__bss_end__+0x2c4d84>
    1700:	490b390b 	stmdbmi	fp, {r0, r1, r3, r8, fp, ip, sp}
    1704:	b7170213 			; <UNDEFINED> instruction: 0xb7170213
    1708:	00001742 	andeq	r1, r0, r2, asr #14
    170c:	03003416 	movweq	r3, #1046	; 0x416
    1710:	3b0b3a0e 	blcc	2cff50 <__bss_end__+0x2c4db0>
    1714:	490b390b 	stmdbmi	fp, {r0, r1, r3, r8, fp, ip, sp}
    1718:	00051c13 	andeq	r1, r5, r3, lsl ip
    171c:	012e1700 			; <UNDEFINED> instruction: 0x012e1700
    1720:	0b3a0e03 	bleq	e84f34 <__bss_end__+0xe79d94>
    1724:	0b390b3b 	bleq	e44418 <__bss_end__+0xe39278>
    1728:	01111927 	tsteq	r1, r7, lsr #18
    172c:	18400612 	stmdane	r0, {r1, r4, r9, sl}^
    1730:	01194297 			; <UNDEFINED> instruction: 0x01194297
    1734:	18000013 	stmdane	r0, {r0, r1, r4}
    1738:	0e030005 	cdpeq	0, 0, cr0, cr3, cr5, {0}
    173c:	0b3b0b3a 	bleq	ec442c <__bss_end__+0xeb928c>
    1740:	13490b39 	movtne	r0, #39737	; 0x9b39
    1744:	42b71702 	adcsmi	r1, r7, #524288	; 0x80000
    1748:	19000017 	stmdbne	r0, {r0, r1, r2, r4}
    174c:	00000035 	andeq	r0, r0, r5, lsr r0
    1750:	3f002e1a 	svccc	0x00002e1a
    1754:	6e193c19 	mrcvs	12, 0, r3, cr9, cr9, {0}
    1758:	3a0e030e 	bcc	382398 <__bss_end__+0x3771f8>
    175c:	390b3b0b 	stmdbcc	fp, {r0, r1, r3, r8, r9, fp, ip, sp}
    1760:	0000000b 	andeq	r0, r0, fp
    1764:	25011101 	strcs	r1, [r1, #-257]	; 0xfffffeff
    1768:	030b130e 	movweq	r1, #45838	; 0xb30e
    176c:	110e1b0e 	tstne	lr, lr, lsl #22
    1770:	10061201 	andne	r1, r6, r1, lsl #4
    1774:	02000017 	andeq	r0, r0, #23, 0
    1778:	0b0b0024 	bleq	2c1810 <__bss_end__+0x2b6670>
    177c:	08030b3e 	stmdaeq	r3, {r1, r2, r3, r4, r5, r8, r9, fp}
    1780:	24030000 	strcs	r0, [r3], #-0
    1784:	3e0b0b00 	vmlacc.f64	d0, d11, d0
    1788:	000e030b 	andeq	r0, lr, fp, lsl #6
    178c:	00160400 	andseq	r0, r6, r0, lsl #8
    1790:	0b3a0e03 	bleq	e84fa4 <__bss_end__+0xe79e04>
    1794:	0b390b3b 	bleq	e44488 <__bss_end__+0xe392e8>
    1798:	00001349 	andeq	r1, r0, r9, asr #6
    179c:	49002605 	stmdbmi	r0, {r0, r2, r9, sl, sp}
    17a0:	06000013 			; <UNDEFINED> instruction: 0x06000013
    17a4:	0b0b000f 	bleq	2c17e8 <__bss_end__+0x2b6648>
    17a8:	04070000 	streq	r0, [r7], #-0
    17ac:	0b0b3e01 	bleq	2d0fb8 <__bss_end__+0x2c5e18>
    17b0:	3a13490b 	bcc	4d3be4 <__bss_end__+0x4c8a44>
    17b4:	390b3b0b 	stmdbcc	fp, {r0, r1, r3, r8, r9, fp, ip, sp}
    17b8:	0013010b 	andseq	r0, r3, fp, lsl #2
    17bc:	00280800 	eoreq	r0, r8, r0, lsl #16
    17c0:	061c0e03 	ldreq	r0, [ip], -r3, lsl #28
    17c4:	34090000 	strcc	r0, [r9], #-0
    17c8:	3a0e0300 	bcc	3823d0 <__bss_end__+0x377230>
    17cc:	390b3b0b 	stmdbcc	fp, {r0, r1, r3, r8, r9, fp, ip, sp}
    17d0:	3f13490b 	svccc	0x0013490b
    17d4:	00193c19 	andseq	r3, r9, r9, lsl ip
    17d8:	00340a00 	eorseq	r0, r4, r0, lsl #20
    17dc:	0b3a0e03 	bleq	e84ff0 <__bss_end__+0xe79e50>
    17e0:	0b390b3b 	bleq	e444d4 <__bss_end__+0xe39334>
    17e4:	18021349 	stmdane	r2, {r0, r3, r6, r8, r9, ip}
    17e8:	0f0b0000 	svceq	0x000b0000
    17ec:	490b0b00 	stmdbmi	fp, {r8, r9, fp}
    17f0:	0c000013 	stceq	0, cr0, [r0], {19}
    17f4:	193f012e 	ldmdbne	pc!, {r1, r2, r3, r5, r8}	; <UNPREDICTABLE>
    17f8:	0b3a0e03 	bleq	e8500c <__bss_end__+0xe79e6c>
    17fc:	0b390b3b 	bleq	e444f0 <__bss_end__+0xe39350>
    1800:	01111927 	tsteq	r1, r7, lsr #18
    1804:	18400612 	stmdane	r0, {r1, r4, r9, sl}^
    1808:	01194297 			; <UNDEFINED> instruction: 0x01194297
    180c:	0d000013 	stceq	0, cr0, [r0, #-76]	; 0xffffffb4
    1810:	08030005 	stmdaeq	r3, {r0, r2}
    1814:	0b3b0b3a 	bleq	ec4504 <__bss_end__+0xeb9364>
    1818:	13490b39 	movtne	r0, #39737	; 0x9b39
    181c:	42b71702 	adcsmi	r1, r7, #524288	; 0x80000
    1820:	0e000017 	mcreq	0, 0, r0, cr0, cr7, {0}
    1824:	0e030034 	mcreq	0, 0, r0, cr3, cr4, {1}
    1828:	19341349 	ldmdbne	r4!, {r0, r3, r6, r8, r9, ip}
    182c:	00001802 	andeq	r1, r0, r2, lsl #16
    1830:	0182890f 	orreq	r8, r2, pc, lsl #18
    1834:	31011101 	tstcc	r1, r1, lsl #2
    1838:	00130113 	andseq	r0, r3, r3, lsl r1
    183c:	828a1000 	addhi	r1, sl, #0, 0
    1840:	18020001 	stmdane	r2, {r0}
    1844:	00184291 	mulseq	r8, r1, r2
    1848:	82891100 	addhi	r1, r9, #0
    184c:	01110001 	tsteq	r1, r1
    1850:	00001331 	andeq	r1, r0, r1, lsr r3
    1854:	49010112 	stmdbmi	r1, {r1, r4, r8}
    1858:	00130113 	andseq	r0, r3, r3, lsl r1
    185c:	00211300 	eoreq	r1, r1, r0, lsl #6
    1860:	0b2f1349 	bleq	bc658c <__bss_end__+0xbbb3ec>
    1864:	2e140000 	cdpcs	0, 1, cr0, cr4, cr0, {0}
    1868:	03193f00 	tsteq	r9, #0, 30
    186c:	3b0b3a0e 	blcc	2d00ac <__bss_end__+0x2c4f0c>
    1870:	270b390b 	strcs	r3, [fp, -fp, lsl #18]
    1874:	12011119 	andne	r1, r1, #1073741830	; 0x40000006
    1878:	97184006 	ldrls	r4, [r8, -r6]
    187c:	00001942 	andeq	r1, r0, r2, asr #18
    1880:	03000515 	movweq	r0, #1301	; 0x515
    1884:	3b0b3a08 	blcc	2d00ac <__bss_end__+0x2c4f0c>
    1888:	490b390b 	stmdbmi	fp, {r0, r1, r3, r8, fp, ip, sp}
    188c:	00180213 	andseq	r0, r8, r3, lsl r2
    1890:	012e1600 			; <UNDEFINED> instruction: 0x012e1600
    1894:	0e03193f 			; <UNDEFINED> instruction: 0x0e03193f
    1898:	0b3b0b3a 	bleq	ec4588 <__bss_end__+0xeb93e8>
    189c:	19270b39 	stmdbne	r7!, {r0, r3, r4, r5, r8, r9, fp}
    18a0:	01111349 	tsteq	r1, r9, asr #6
    18a4:	18400612 	stmdane	r0, {r1, r4, r9, sl}^
    18a8:	01194297 			; <UNDEFINED> instruction: 0x01194297
    18ac:	17000013 	smladne	r0, r3, r0, r0
    18b0:	0e030005 	cdpeq	0, 0, cr0, cr3, cr5, {0}
    18b4:	0b3b0b3a 	bleq	ec45a4 <__bss_end__+0xeb9404>
    18b8:	13490b39 	movtne	r0, #39737	; 0x9b39
    18bc:	42b71702 	adcsmi	r1, r7, #524288	; 0x80000
    18c0:	18000017 	stmdane	r0, {r0, r1, r2, r4}
    18c4:	08030034 	stmdaeq	r3, {r2, r4, r5}
    18c8:	0b3b0b3a 	bleq	ec45b8 <__bss_end__+0xeb9418>
    18cc:	13490b39 	movtne	r0, #39737	; 0x9b39
    18d0:	42b71702 	adcsmi	r1, r7, #524288	; 0x80000
    18d4:	19000017 	stmdbne	r0, {r0, r1, r2, r4}
    18d8:	1331011d 	teqne	r1, #1073741831	; 0x40000007
    18dc:	42b80152 	adcsmi	r0, r8, #-2147483628	; 0x80000014
    18e0:	1201110b 	andne	r1, r1, #-1073741822	; 0xc0000002
    18e4:	590b5806 	stmdbpl	fp, {r1, r2, fp, ip, lr}
    18e8:	010b570b 	tsteq	fp, fp, lsl #14
    18ec:	1a000013 	bne	1940 <__code_start__-0x66c0>
    18f0:	13310005 	teqne	r1, #5, 0
    18f4:	42b71702 	adcsmi	r1, r7, #524288	; 0x80000
    18f8:	1b000017 	blne	195c <__code_start__-0x66a4>
    18fc:	1331011d 	teqne	r1, #1073741831	; 0x40000007
    1900:	42b80152 	adcsmi	r0, r8, #-2147483628	; 0x80000014
    1904:	5817550b 	ldmdapl	r7, {r0, r1, r3, r8, sl, ip, lr}
    1908:	570b590b 	strpl	r5, [fp, -fp, lsl #18]
    190c:	0013010b 	andseq	r0, r3, fp, lsl #2
    1910:	010b1c00 	tsteq	fp, r0, lsl #24
    1914:	00001755 	andeq	r1, r0, r5, asr r7
    1918:	0300341d 	movweq	r3, #1053	; 0x41d
    191c:	3b0b3a0e 	blcc	2d015c <__bss_end__+0x2c4fbc>
    1920:	490b390b 	stmdbmi	fp, {r0, r1, r3, r8, fp, ip, sp}
    1924:	b7170213 			; <UNDEFINED> instruction: 0xb7170213
    1928:	00001742 	andeq	r1, r0, r2, asr #14
    192c:	55000b1e 	strpl	r0, [r0, #-2846]	; 0xfffff4e2
    1930:	1f000017 	svcne	0x00000017
    1934:	193f002e 	ldmdbne	pc!, {r1, r2, r3, r5}	; <UNPREDICTABLE>
    1938:	0b3a0e03 	bleq	e8514c <__bss_end__+0xe79fac>
    193c:	0b390b3b 	bleq	e44630 <__bss_end__+0xe39490>
    1940:	13491927 	movtne	r1, #39207	; 0x9927
    1944:	06120111 			; <UNDEFINED> instruction: 0x06120111
    1948:	42971840 	addsmi	r1, r7, #64, 16	; 0x400000
    194c:	20000019 	andcs	r0, r0, r9, lsl r0
    1950:	0e03012e 	adfeqsp	f0, f3, #0.5
    1954:	0b3b0b3a 	bleq	ec4644 <__bss_end__+0xeb94a4>
    1958:	19270b39 	stmdbne	r7!, {r0, r3, r4, r5, r8, r9, fp}
    195c:	0b201349 	bleq	806688 <__bss_end__+0x7fb4e8>
    1960:	00001301 	andeq	r1, r0, r1, lsl #6
    1964:	03000521 	movweq	r0, #1313	; 0x521
    1968:	3b0b3a08 	blcc	2d0190 <__bss_end__+0x2c4ff0>
    196c:	490b390b 	stmdbmi	fp, {r0, r1, r3, r8, fp, ip, sp}
    1970:	22000013 	andcs	r0, r0, #19, 0
    1974:	193f002e 	ldmdbne	pc!, {r1, r2, r3, r5}	; <UNPREDICTABLE>
    1978:	0e6e193c 			; <UNDEFINED> instruction: 0x0e6e193c
    197c:	0b3a0e03 	bleq	e85190 <__bss_end__+0xe79ff0>
    1980:	0b390b3b 	bleq	e44674 <__bss_end__+0xe394d4>
    1984:	01000000 	mrseq	r0, (UNDEF: 0)
    1988:	0e250111 	mcreq	1, 1, r0, cr5, cr1, {0}
    198c:	0e030b13 	vmoveq.32	d3[0], r0
    1990:	01110e1b 	tsteq	r1, fp, lsl lr
    1994:	17100612 			; <UNDEFINED> instruction: 0x17100612
    1998:	24020000 	strcs	r0, [r2], #-0
    199c:	3e0b0b00 	vmlacc.f64	d0, d11, d0
    19a0:	000e030b 	andeq	r0, lr, fp, lsl #6
    19a4:	00240300 	eoreq	r0, r4, r0, lsl #6
    19a8:	0b3e0b0b 	bleq	f845dc <__bss_end__+0xf7943c>
    19ac:	00000803 	andeq	r0, r0, r3, lsl #16
    19b0:	49002604 	stmdbmi	r0, {r2, r9, sl, sp}
    19b4:	05000013 	streq	r0, [r0, #-19]	; 0xffffffed
    19b8:	0e030016 	mcreq	0, 0, r0, cr3, cr6, {0}
    19bc:	0b3b0b3a 	bleq	ec46ac <__bss_end__+0xeb950c>
    19c0:	13490b39 	movtne	r0, #39737	; 0x9b39
    19c4:	15060000 	strne	r0, [r6, #-0]
    19c8:	49192701 	ldmdbmi	r9, {r0, r8, r9, sl, sp}
    19cc:	00130113 	andseq	r0, r3, r3, lsl r1
    19d0:	00050700 	andeq	r0, r5, r0, lsl #14
    19d4:	00001349 	andeq	r1, r0, r9, asr #6
    19d8:	03003408 	movweq	r3, #1032	; 0x408
    19dc:	3b0b3a0e 	blcc	2d021c <__bss_end__+0x2c507c>
    19e0:	490b390b 	stmdbmi	fp, {r0, r1, r3, r8, fp, ip, sp}
    19e4:	3c193f13 	ldccc	15, cr3, [r9], {19}
    19e8:	09000019 	stmdbeq	r0, {r0, r3, r4}
    19ec:	0b0b000f 	bleq	2c1a30 <__bss_end__+0x2b6890>
    19f0:	00001349 	andeq	r1, r0, r9, asr #6
    19f4:	3e01040a 	cdpcc	4, 0, cr0, cr1, cr10, {0}
    19f8:	490b0b0b 	stmdbmi	fp, {r0, r1, r3, r8, r9, fp}
    19fc:	3b0b3a13 	blcc	2d0250 <__bss_end__+0x2c50b0>
    1a00:	010b390b 	tsteq	fp, fp, lsl #18
    1a04:	0b000013 	bleq	1a58 <__code_start__-0x65a8>
    1a08:	0e030028 	cdpeq	0, 0, cr0, cr3, cr8, {1}
    1a0c:	00000b1c 	andeq	r0, r0, ip, lsl fp
    1a10:	0300340c 	movweq	r3, #1036	; 0x40c
    1a14:	3b0b3a0e 	blcc	2d0254 <__bss_end__+0x2c50b4>
    1a18:	490b390b 	stmdbmi	fp, {r0, r1, r3, r8, fp, ip, sp}
    1a1c:	00061c13 	andeq	r1, r6, r3, lsl ip
    1a20:	012e0d00 			; <UNDEFINED> instruction: 0x012e0d00
    1a24:	0e03193f 			; <UNDEFINED> instruction: 0x0e03193f
    1a28:	0b3b0b3a 	bleq	ec4718 <__bss_end__+0xeb9578>
    1a2c:	19270b39 	stmdbne	r7!, {r0, r3, r4, r5, r8, r9, fp}
    1a30:	01111349 	tsteq	r1, r9, asr #6
    1a34:	18400612 	stmdane	r0, {r1, r4, r9, sl}^
    1a38:	01194297 			; <UNDEFINED> instruction: 0x01194297
    1a3c:	0e000013 	mcreq	0, 0, r0, cr0, cr3, {0}
    1a40:	08030005 	stmdaeq	r3, {r0, r2}
    1a44:	0b3b0b3a 	bleq	ec4734 <__bss_end__+0xeb9594>
    1a48:	13490b39 	movtne	r0, #39737	; 0x9b39
    1a4c:	42b71702 	adcsmi	r1, r7, #524288	; 0x80000
    1a50:	0f000017 	svceq	0x00000017
    1a54:	0e030034 	mcreq	0, 0, r0, cr3, cr4, {1}
    1a58:	0b3b0b3a 	bleq	ec4748 <__bss_end__+0xeb95a8>
    1a5c:	13490b39 	movtne	r0, #39737	; 0x9b39
    1a60:	42b71702 	adcsmi	r1, r7, #524288	; 0x80000
    1a64:	10000017 	andne	r0, r0, r7, lsl r0
    1a68:	08030034 	stmdaeq	r3, {r2, r4, r5}
    1a6c:	0b3b0b3a 	bleq	ec475c <__bss_end__+0xeb95bc>
    1a70:	13490b39 	movtne	r0, #39737	; 0x9b39
    1a74:	42b71702 	adcsmi	r1, r7, #524288	; 0x80000
    1a78:	11000017 	tstne	r0, r7, lsl r0
    1a7c:	01018289 	smlabbeq	r1, r9, r2, r8
    1a80:	13310111 	teqne	r1, #1073741828	; 0x40000004
    1a84:	8a120000 	bhi	481a8c <__bss_end__+0x4768ec>
    1a88:	02000182 	andeq	r0, r0, #-2147483616	; 0x80000020
    1a8c:	18429118 	stmdane	r2, {r3, r4, r8, ip, pc}^
    1a90:	2e130000 	cdpcs	0, 1, cr0, cr3, cr0, {0}
    1a94:	03193f01 	tsteq	r9, #1, 30
    1a98:	3b0b3a0e 	blcc	2d02d8 <__bss_end__+0x2c5138>
    1a9c:	270b390b 	strcs	r3, [fp, -fp, lsl #18]
    1aa0:	12011119 	andne	r1, r1, #1073741830	; 0x40000006
    1aa4:	97184006 	ldrls	r4, [r8, -r6]
    1aa8:	13011942 	movwne	r1, #6466	; 0x1942
    1aac:	1d140000 	ldcne	0, cr0, [r4, #-0]
    1ab0:	52133101 	andspl	r3, r3, #1073741824	; 0x40000000
    1ab4:	0b42b801 	bleq	10afac0 <__bss_end__+0x10a4920>
    1ab8:	0b581755 	bleq	1607814 <__bss_end__+0x15fc674>
    1abc:	0b570b59 	bleq	15c4828 <__bss_end__+0x15b9688>
    1ac0:	00001301 	andeq	r1, r0, r1, lsl #6
    1ac4:	31000515 	tstcc	r0, r5, lsl r5
    1ac8:	b7170213 			; <UNDEFINED> instruction: 0xb7170213
    1acc:	00001742 	andeq	r1, r0, r2, asr #14
    1ad0:	01828916 	orreq	r8, r2, r6, lsl r9
    1ad4:	95011101 	strls	r1, [r1, #-257]	; 0xfffffeff
    1ad8:	13311942 	teqne	r1, #1081344	; 0x108000
    1adc:	1d170000 	ldcne	0, cr0, [r7, #-0]
    1ae0:	52133101 	andspl	r3, r3, #1073741824	; 0x40000000
    1ae4:	0b42b801 	bleq	10afaf0 <__bss_end__+0x10a4950>
    1ae8:	06120111 			; <UNDEFINED> instruction: 0x06120111
    1aec:	0b590b58 	bleq	1644854 <__bss_end__+0x16396b4>
    1af0:	00000b57 	andeq	r0, r0, r7, asr fp
    1af4:	31011d18 	tstcc	r1, r8, lsl sp
    1af8:	b8015213 	stmdalt	r1, {r0, r1, r4, r9, ip, lr}
    1afc:	17550b42 	ldrbne	r0, [r5, -r2, asr #22]
    1b00:	0b590b58 	bleq	1644868 <__bss_end__+0x16396c8>
    1b04:	00000b57 	andeq	r0, r0, r7, asr fp
    1b08:	31000519 	tstcc	r0, r9, lsl r5
    1b0c:	000b1c13 	andeq	r1, fp, r3, lsl ip
    1b10:	010b1a00 	tsteq	fp, r0, lsl #20
    1b14:	00001755 	andeq	r1, r0, r5, asr r7
    1b18:	3100341b 	tstcc	r0, fp, lsl r4
    1b1c:	1c000013 	stcne	0, cr0, [r0], {19}
    1b20:	13310034 	teqne	r1, #52, 0	; 0x34
    1b24:	42b71702 	adcsmi	r1, r7, #524288	; 0x80000
    1b28:	1d000017 	stcne	0, cr0, [r0, #-92]	; 0xffffffa4
    1b2c:	01018289 	smlabbeq	r1, r9, r2, r8
    1b30:	13310111 	teqne	r1, #1073741828	; 0x40000004
    1b34:	00001301 	andeq	r1, r0, r1, lsl #6
    1b38:	3f012e1e 	svccc	0x00012e1e
    1b3c:	3a0e0319 	bcc	3827a8 <__bss_end__+0x377608>
    1b40:	390b3b0b 	stmdbcc	fp, {r0, r1, r3, r8, r9, fp, ip, sp}
    1b44:	2019270b 	andscs	r2, r9, fp, lsl #14
    1b48:	0013010b 	andseq	r0, r3, fp, lsl #2
    1b4c:	00051f00 	andeq	r1, r5, r0, lsl #30
    1b50:	0b3a0803 	bleq	e83b64 <__bss_end__+0xe789c4>
    1b54:	0b390b3b 	bleq	e44848 <__bss_end__+0xe396a8>
    1b58:	00001349 	andeq	r1, r0, r9, asr #6
    1b5c:	03000520 	movweq	r0, #1312	; 0x520
    1b60:	3b0b3a0e 	blcc	2d03a0 <__bss_end__+0x2c5200>
    1b64:	490b390b 	stmdbmi	fp, {r0, r1, r3, r8, fp, ip, sp}
    1b68:	21000013 	tstcs	r0, r3, lsl r0
    1b6c:	08030034 	stmdaeq	r3, {r2, r4, r5}
    1b70:	0b3b0b3a 	bleq	ec4860 <__bss_end__+0xeb96c0>
    1b74:	13490b39 	movtne	r0, #39737	; 0x9b39
    1b78:	2e220000 	cdpcs	0, 2, cr0, cr2, cr0, {0}
    1b7c:	3a0e0301 	bcc	382788 <__bss_end__+0x3775e8>
    1b80:	390b3b0b 	stmdbcc	fp, {r0, r1, r3, r8, r9, fp, ip, sp}
    1b84:	4919270b 	ldmdbmi	r9, {r0, r1, r3, r8, r9, sl, sp}
    1b88:	010b2013 	tsteq	fp, r3, lsl r0
    1b8c:	23000013 	movwcs	r0, #19
    1b90:	1331012e 	teqne	r1, #-2147483637	; 0x8000000b
    1b94:	06120111 			; <UNDEFINED> instruction: 0x06120111
    1b98:	42971840 	addsmi	r1, r7, #64, 16	; 0x400000
    1b9c:	00130119 	andseq	r0, r3, r9, lsl r1
    1ba0:	002e2400 	eoreq	r2, lr, r0, lsl #8
    1ba4:	193c193f 	ldmdbne	ip!, {r0, r1, r2, r3, r4, r5, r8, fp, ip}
    1ba8:	0e030e6e 	cdpeq	14, 0, cr0, cr3, cr14, {3}
    1bac:	0b3b0b3a 	bleq	ec489c <__bss_end__+0xeb96fc>
    1bb0:	00000b39 	andeq	r0, r0, r9, lsr fp
    1bb4:	01110100 	tsteq	r1, r0, lsl #2
    1bb8:	0b130e25 	bleq	4c5454 <__bss_end__+0x4ba2b4>
    1bbc:	0e1b0e03 	cdpeq	14, 1, cr0, cr11, cr3, {0}
    1bc0:	06120111 			; <UNDEFINED> instruction: 0x06120111
    1bc4:	00001710 	andeq	r1, r0, r0, lsl r7
    1bc8:	0b002402 	bleq	abd8 <__FUNCTION__.4030+0xac>
    1bcc:	030b3e0b 	movweq	r3, #48651	; 0xbe0b
    1bd0:	03000008 	movweq	r0, #8
    1bd4:	0b0b0024 	bleq	2c1c6c <__bss_end__+0x2b6acc>
    1bd8:	0e030b3e 	vmoveq.16	d3[0], r0
    1bdc:	15040000 	strne	r0, [r4, #-0]
    1be0:	49192701 	ldmdbmi	r9, {r0, r8, r9, sl, sp}
    1be4:	00130113 	andseq	r0, r3, r3, lsl r1
    1be8:	00050500 	andeq	r0, r5, r0, lsl #10
    1bec:	00001349 	andeq	r1, r0, r9, asr #6
    1bf0:	03003406 	movweq	r3, #1030	; 0x406
    1bf4:	3b0b3a0e 	blcc	2d0434 <__bss_end__+0x2c5294>
    1bf8:	490b390b 	stmdbmi	fp, {r0, r1, r3, r8, fp, ip, sp}
    1bfc:	3c193f13 	ldccc	15, cr3, [r9], {19}
    1c00:	07000019 	smladeq	r0, r9, r0, r0
    1c04:	0b0b000f 	bleq	2c1c48 <__bss_end__+0x2b6aa8>
    1c08:	00001349 	andeq	r1, r0, r9, asr #6
    1c0c:	49002608 	stmdbmi	r0, {r3, r9, sl, sp}
    1c10:	09000013 	stmdbeq	r0, {r0, r1, r4}
    1c14:	13470034 	movtne	r0, #28724	; 0x7034
    1c18:	0b3b0b3a 	bleq	ec4908 <__bss_end__+0xeb9768>
    1c1c:	18020b39 	stmdane	r2, {r0, r3, r4, r5, r8, r9, fp}
    1c20:	2e0a0000 	cdpcs	0, 0, cr0, cr10, cr0, {0}
    1c24:	03193f01 	tsteq	r9, #1, 30
    1c28:	3b0b3a0e 	blcc	2d0468 <__bss_end__+0x2c52c8>
    1c2c:	270b390b 	strcs	r3, [fp, -fp, lsl #18]
    1c30:	12011119 	andne	r1, r1, #1073741830	; 0x40000006
    1c34:	97184006 	ldrls	r4, [r8, -r6]
    1c38:	13011942 	movwne	r1, #6466	; 0x1942
    1c3c:	050b0000 	streq	r0, [fp, #-0]
    1c40:	3a080300 	bcc	202848 <__bss_end__+0x1f76a8>
    1c44:	390b3b0b 	stmdbcc	fp, {r0, r1, r3, r8, r9, fp, ip, sp}
    1c48:	0213490b 	andseq	r4, r3, #180224	; 0x2c000
    1c4c:	0c000018 	stceq	0, cr0, [r0], {24}
    1c50:	193f002e 	ldmdbne	pc!, {r1, r2, r3, r5}	; <UNPREDICTABLE>
    1c54:	0b3a0e03 	bleq	e85468 <__bss_end__+0xe7a2c8>
    1c58:	0b390b3b 	bleq	e4494c <__bss_end__+0xe397ac>
    1c5c:	01111927 	tsteq	r1, r7, lsr #18
    1c60:	18400612 	stmdane	r0, {r1, r4, r9, sl}^
    1c64:	00194297 	mulseq	r9, r7, r2
    1c68:	012e0d00 			; <UNDEFINED> instruction: 0x012e0d00
    1c6c:	0b3a0e03 	bleq	e85480 <__bss_end__+0xe7a2e0>
    1c70:	0b390b3b 	bleq	e44964 <__bss_end__+0xe397c4>
    1c74:	13491927 	movtne	r1, #39207	; 0x9927
    1c78:	06120111 			; <UNDEFINED> instruction: 0x06120111
    1c7c:	42971840 	addsmi	r1, r7, #64, 16	; 0x400000
    1c80:	00130119 	andseq	r0, r3, r9, lsl r1
    1c84:	00050e00 	andeq	r0, r5, r0, lsl #28
    1c88:	0b3a0803 	bleq	e83c9c <__bss_end__+0xe78afc>
    1c8c:	0b390b3b 	bleq	e44980 <__bss_end__+0xe397e0>
    1c90:	17021349 	strne	r1, [r2, -r9, asr #6]
    1c94:	001742b7 			; <UNDEFINED> instruction: 0x001742b7
    1c98:	82890f00 	addhi	r0, r9, #0, 30
    1c9c:	01110101 	tsteq	r1, r1, lsl #2
    1ca0:	00001331 	andeq	r1, r0, r1, lsr r3
    1ca4:	01828a10 	orreq	r8, r2, r0, lsl sl
    1ca8:	91180200 	tstls	r8, r0, lsl #4
    1cac:	00001842 	andeq	r1, r0, r2, asr #16
    1cb0:	3f002e11 	svccc	0x00002e11
    1cb4:	6e193c19 	mrcvs	12, 0, r3, cr9, cr9, {0}
    1cb8:	3a0e030e 	bcc	3828f8 <__bss_end__+0x377758>
    1cbc:	390b3b0b 	stmdbcc	fp, {r0, r1, r3, r8, r9, fp, ip, sp}
    1cc0:	0000000b 	andeq	r0, r0, fp
    1cc4:	25011101 	strcs	r1, [r1, #-257]	; 0xfffffeff
    1cc8:	030b130e 	movweq	r1, #45838	; 0xb30e
    1ccc:	110e1b0e 	tstne	lr, lr, lsl #22
    1cd0:	10061201 	andne	r1, r6, r1, lsl #4
    1cd4:	02000017 	andeq	r0, r0, #23, 0
    1cd8:	0b0b0024 	bleq	2c1d70 <__bss_end__+0x2b6bd0>
    1cdc:	08030b3e 	stmdaeq	r3, {r1, r2, r3, r4, r5, r8, r9, fp}
    1ce0:	24030000 	strcs	r0, [r3], #-0
    1ce4:	3e0b0b00 	vmlacc.f64	d0, d11, d0
    1ce8:	000e030b 	andeq	r0, lr, fp, lsl #6
    1cec:	01150400 	tsteq	r5, r0, lsl #8
    1cf0:	13491927 	movtne	r1, #39207	; 0x9927
    1cf4:	00001301 	andeq	r1, r0, r1, lsl #6
    1cf8:	49000505 	stmdbmi	r0, {r0, r2, r8, sl}
    1cfc:	06000013 			; <UNDEFINED> instruction: 0x06000013
    1d00:	0e030034 	mcreq	0, 0, r0, cr3, cr4, {1}
    1d04:	0b3b0b3a 	bleq	ec49f4 <__bss_end__+0xeb9854>
    1d08:	13490b39 	movtne	r0, #39737	; 0x9b39
    1d0c:	193c193f 	ldmdbne	ip!, {r0, r1, r2, r3, r4, r5, r8, fp, ip}
    1d10:	0f070000 	svceq	0x00070000
    1d14:	490b0b00 	stmdbmi	fp, {r8, r9, fp}
    1d18:	08000013 	stmdaeq	r0, {r0, r1, r4}
    1d1c:	13490026 	movtne	r0, #36902	; 0x9026
    1d20:	2e090000 	cdpcs	0, 0, cr0, cr9, cr0, {0}
    1d24:	03193f01 	tsteq	r9, #1, 30
    1d28:	3b0b3a0e 	blcc	2d0568 <__bss_end__+0x2c53c8>
    1d2c:	270b390b 	strcs	r3, [fp, -fp, lsl #18]
    1d30:	11134919 	tstne	r3, r9, lsl r9
    1d34:	40061201 	andmi	r1, r6, r1, lsl #4
    1d38:	19429718 	stmdbne	r2, {r3, r4, r8, r9, sl, ip, pc}^
    1d3c:	00001301 	andeq	r1, r0, r1, lsl #6
    1d40:	0300050a 	movweq	r0, #1290	; 0x50a
    1d44:	3b0b3a0e 	blcc	2d0584 <__bss_end__+0x2c53e4>
    1d48:	490b390b 	stmdbmi	fp, {r0, r1, r3, r8, fp, ip, sp}
    1d4c:	00180213 	andseq	r0, r8, r3, lsl r2
    1d50:	00050b00 	andeq	r0, r5, r0, lsl #22
    1d54:	0b3a0803 	bleq	e83d68 <__bss_end__+0xe78bc8>
    1d58:	0b390b3b 	bleq	e44a4c <__bss_end__+0xe398ac>
    1d5c:	17021349 	strne	r1, [r2, -r9, asr #6]
    1d60:	001742b7 			; <UNDEFINED> instruction: 0x001742b7
    1d64:	00340c00 	eorseq	r0, r4, r0, lsl #24
    1d68:	0b3a0803 	bleq	e83d7c <__bss_end__+0xe78bdc>
    1d6c:	0b390b3b 	bleq	e44a60 <__bss_end__+0xe398c0>
    1d70:	17021349 	strne	r1, [r2, -r9, asr #6]
    1d74:	001742b7 			; <UNDEFINED> instruction: 0x001742b7
    1d78:	11010000 	mrsne	r0, (UNDEF: 1)
    1d7c:	130e2501 	movwne	r2, #58625	; 0xe501
    1d80:	1b0e030b 	blne	3829b4 <__bss_end__+0x377814>
    1d84:	1201110e 	andne	r1, r1, #-2147483645	; 0x80000003
    1d88:	00171006 	andseq	r1, r7, r6
    1d8c:	00240200 	eoreq	r0, r4, r0, lsl #4
    1d90:	0b3e0b0b 	bleq	f849c4 <__bss_end__+0xf79824>
    1d94:	00000803 	andeq	r0, r0, r3, lsl #16
    1d98:	0b002403 	bleq	adac <buf.3944+0x18>
    1d9c:	030b3e0b 	movweq	r3, #48651	; 0xbe0b
    1da0:	0400000e 	streq	r0, [r0], #-14
    1da4:	19270115 	stmdbne	r7!, {r0, r2, r4, r8}
    1da8:	13011349 	movwne	r1, #4937	; 0x1349
    1dac:	05050000 	streq	r0, [r5, #-0]
    1db0:	00134900 	andseq	r4, r3, r0, lsl #18
    1db4:	00340600 	eorseq	r0, r4, r0, lsl #12
    1db8:	0b3a0e03 	bleq	e855cc <__bss_end__+0xe7a42c>
    1dbc:	0b390b3b 	bleq	e44ab0 <__bss_end__+0xe39910>
    1dc0:	193f1349 	ldmdbne	pc!, {r0, r3, r6, r8, r9, ip}	; <UNPREDICTABLE>
    1dc4:	0000193c 	andeq	r1, r0, ip, lsr r9
    1dc8:	0b000f07 	bleq	59ec <__code_start__-0x2614>
    1dcc:	0013490b 	andseq	r4, r3, fp, lsl #18
    1dd0:	00260800 	eoreq	r0, r6, r0, lsl #16
    1dd4:	00001349 	andeq	r1, r0, r9, asr #6
    1dd8:	3f012e09 	svccc	0x00012e09
    1ddc:	3a0e0319 	bcc	382a48 <__bss_end__+0x3778a8>
    1de0:	390b3b0b 	stmdbcc	fp, {r0, r1, r3, r8, r9, fp, ip, sp}
    1de4:	4919270b 	ldmdbmi	r9, {r0, r1, r3, r8, r9, sl, sp}
    1de8:	12011113 	andne	r1, r1, #-1073741820	; 0xc0000004
    1dec:	97184006 	ldrls	r4, [r8, -r6]
    1df0:	00001942 	andeq	r1, r0, r2, asr #18
    1df4:	0300050a 	movweq	r0, #1290	; 0x50a
    1df8:	3b0b3a08 	blcc	2d0620 <__bss_end__+0x2c5480>
    1dfc:	490b390b 	stmdbmi	fp, {r0, r1, r3, r8, fp, ip, sp}
    1e00:	b7170213 			; <UNDEFINED> instruction: 0xb7170213
    1e04:	00001742 	andeq	r1, r0, r2, asr #14
    1e08:	01110100 	tsteq	r1, r0, lsl #2
    1e0c:	0b130e25 	bleq	4c56a8 <__bss_end__+0x4ba508>
    1e10:	0e1b0e03 	cdpeq	14, 1, cr0, cr11, cr3, {0}
    1e14:	06120111 			; <UNDEFINED> instruction: 0x06120111
    1e18:	00001710 	andeq	r1, r0, r0, lsl r7
    1e1c:	0b002402 	bleq	ae2c <buf.3944+0x98>
    1e20:	030b3e0b 	movweq	r3, #48651	; 0xbe0b
    1e24:	03000008 	movweq	r0, #8
    1e28:	0b0b0024 	bleq	2c1ec0 <__bss_end__+0x2b6d20>
    1e2c:	0e030b3e 	vmoveq.16	d3[0], r0
    1e30:	15040000 	strne	r0, [r4, #-0]
    1e34:	49192701 	ldmdbmi	r9, {r0, r8, r9, sl, sp}
    1e38:	00130113 	andseq	r0, r3, r3, lsl r1
    1e3c:	00050500 	andeq	r0, r5, r0, lsl #10
    1e40:	00001349 	andeq	r1, r0, r9, asr #6
    1e44:	03003406 	movweq	r3, #1030	; 0x406
    1e48:	3b0b3a0e 	blcc	2d0688 <__bss_end__+0x2c54e8>
    1e4c:	490b390b 	stmdbmi	fp, {r0, r1, r3, r8, fp, ip, sp}
    1e50:	3c193f13 	ldccc	15, cr3, [r9], {19}
    1e54:	07000019 	smladeq	r0, r9, r0, r0
    1e58:	0b0b000f 	bleq	2c1e9c <__bss_end__+0x2b6cfc>
    1e5c:	00001349 	andeq	r1, r0, r9, asr #6
    1e60:	49002608 	stmdbmi	r0, {r3, r9, sl, sp}
    1e64:	09000013 	stmdbeq	r0, {r0, r1, r4}
    1e68:	193f012e 	ldmdbne	pc!, {r1, r2, r3, r5, r8}	; <UNPREDICTABLE>
    1e6c:	0b3a0e03 	bleq	e85680 <__bss_end__+0xe7a4e0>
    1e70:	0b390b3b 	bleq	e44b64 <__bss_end__+0xe399c4>
    1e74:	13491927 	movtne	r1, #39207	; 0x9927
    1e78:	06120111 			; <UNDEFINED> instruction: 0x06120111
    1e7c:	42971840 	addsmi	r1, r7, #64, 16	; 0x400000
    1e80:	00130119 	andseq	r0, r3, r9, lsl r1
    1e84:	00050a00 	andeq	r0, r5, r0, lsl #20
    1e88:	0b3a0803 	bleq	e83e9c <__bss_end__+0xe78cfc>
    1e8c:	0b390b3b 	bleq	e44b80 <__bss_end__+0xe399e0>
    1e90:	18021349 	stmdane	r2, {r0, r3, r6, r8, r9, ip}
    1e94:	050b0000 	streq	r0, [fp, #-0]
    1e98:	3a080300 	bcc	202aa0 <__bss_end__+0x1f7900>
    1e9c:	390b3b0b 	stmdbcc	fp, {r0, r1, r3, r8, r9, fp, ip, sp}
    1ea0:	0213490b 	andseq	r4, r3, #180224	; 0x2c000
    1ea4:	1742b717 	smlaldne	fp, r2, r7, r7
    1ea8:	340c0000 	strcc	r0, [ip], #-0
    1eac:	3a080300 	bcc	202ab4 <__bss_end__+0x1f7914>
    1eb0:	390b3b0b 	stmdbcc	fp, {r0, r1, r3, r8, r9, fp, ip, sp}
    1eb4:	0213490b 	andseq	r4, r3, #180224	; 0x2c000
    1eb8:	1742b717 	smlaldne	fp, r2, r7, r7
    1ebc:	01000000 	mrseq	r0, (UNDEF: 0)
    1ec0:	0e250111 	mcreq	1, 1, r0, cr5, cr1, {0}
    1ec4:	0e030b13 	vmoveq.32	d3[0], r0
    1ec8:	01110e1b 	tsteq	r1, fp, lsl lr
    1ecc:	17100612 			; <UNDEFINED> instruction: 0x17100612
    1ed0:	24020000 	strcs	r0, [r2], #-0
    1ed4:	3e0b0b00 	vmlacc.f64	d0, d11, d0
    1ed8:	0008030b 	andeq	r0, r8, fp, lsl #6
    1edc:	00160300 	andseq	r0, r6, r0, lsl #6
    1ee0:	0b3a0e03 	bleq	e856f4 <__bss_end__+0xe7a554>
    1ee4:	0b390b3b 	bleq	e44bd8 <__bss_end__+0xe39a38>
    1ee8:	00001349 	andeq	r1, r0, r9, asr #6
    1eec:	0b002404 	bleq	af04 <buf.3944+0x170>
    1ef0:	030b3e0b 	movweq	r3, #48651	; 0xbe0b
    1ef4:	0500000e 	streq	r0, [r0, #-14]
    1ef8:	13490026 	movtne	r0, #36902	; 0x9026
    1efc:	15060000 	strne	r0, [r6, #-0]
    1f00:	49192701 	ldmdbmi	r9, {r0, r8, r9, sl, sp}
    1f04:	00130113 	andseq	r0, r3, r3, lsl r1
    1f08:	00050700 	andeq	r0, r5, r0, lsl #14
    1f0c:	00001349 	andeq	r1, r0, r9, asr #6
    1f10:	03003408 	movweq	r3, #1032	; 0x408
    1f14:	3b0b3a0e 	blcc	2d0754 <__bss_end__+0x2c55b4>
    1f18:	490b390b 	stmdbmi	fp, {r0, r1, r3, r8, fp, ip, sp}
    1f1c:	3c193f13 	ldccc	15, cr3, [r9], {19}
    1f20:	09000019 	stmdbeq	r0, {r0, r3, r4}
    1f24:	0b0b000f 	bleq	2c1f68 <__bss_end__+0x2b6dc8>
    1f28:	00001349 	andeq	r1, r0, r9, asr #6
    1f2c:	3f012e0a 	svccc	0x00012e0a
    1f30:	3a0e0319 	bcc	382b9c <__bss_end__+0x3779fc>
    1f34:	390b3b0b 	stmdbcc	fp, {r0, r1, r3, r8, r9, fp, ip, sp}
    1f38:	4919270b 	ldmdbmi	r9, {r0, r1, r3, r8, r9, sl, sp}
    1f3c:	12011113 	andne	r1, r1, #-1073741820	; 0xc0000004
    1f40:	97184006 	ldrls	r4, [r8, -r6]
    1f44:	13011942 	movwne	r1, #6466	; 0x1942
    1f48:	050b0000 	streq	r0, [fp, #-0]
    1f4c:	3a080300 	bcc	202b54 <__bss_end__+0x1f79b4>
    1f50:	390b3b0b 	stmdbcc	fp, {r0, r1, r3, r8, r9, fp, ip, sp}
    1f54:	0213490b 	andseq	r4, r3, #180224	; 0x2c000
    1f58:	1742b717 	smlaldne	fp, r2, r7, r7
    1f5c:	340c0000 	strcc	r0, [ip], #-0
    1f60:	3a080300 	bcc	202b68 <__bss_end__+0x1f79c8>
    1f64:	390b3b0b 	stmdbcc	fp, {r0, r1, r3, r8, r9, fp, ip, sp}
    1f68:	0213490b 	andseq	r4, r3, #180224	; 0x2c000
    1f6c:	1742b717 	smlaldne	fp, r2, r7, r7
    1f70:	01000000 	mrseq	r0, (UNDEF: 0)
    1f74:	0e250111 	mcreq	1, 1, r0, cr5, cr1, {0}
    1f78:	0e030b13 	vmoveq.32	d3[0], r0
    1f7c:	01110e1b 	tsteq	r1, fp, lsl lr
    1f80:	17100612 			; <UNDEFINED> instruction: 0x17100612
    1f84:	24020000 	strcs	r0, [r2], #-0
    1f88:	3e0b0b00 	vmlacc.f64	d0, d11, d0
    1f8c:	0008030b 	andeq	r0, r8, fp, lsl #6
    1f90:	00240300 	eoreq	r0, r4, r0, lsl #6
    1f94:	0b3e0b0b 	bleq	f84bc8 <__bss_end__+0xf79a28>
    1f98:	00000e03 	andeq	r0, r0, r3, lsl #28
    1f9c:	27011504 	strcs	r1, [r1, -r4, lsl #10]
    1fa0:	01134919 	tsteq	r3, r9, lsl r9
    1fa4:	05000013 	streq	r0, [r0, #-19]	; 0xffffffed
    1fa8:	13490005 	movtne	r0, #36869	; 0x9005
    1fac:	34060000 	strcc	r0, [r6], #-0
    1fb0:	3a0e0300 	bcc	382bb8 <__bss_end__+0x377a18>
    1fb4:	390b3b0b 	stmdbcc	fp, {r0, r1, r3, r8, r9, fp, ip, sp}
    1fb8:	3f13490b 	svccc	0x0013490b
    1fbc:	00193c19 	andseq	r3, r9, r9, lsl ip
    1fc0:	000f0700 	andeq	r0, pc, r0, lsl #14
    1fc4:	13490b0b 	movtne	r0, #39691	; 0x9b0b
    1fc8:	26080000 	strcs	r0, [r8], -r0
    1fcc:	00134900 	andseq	r4, r3, r0, lsl #18
    1fd0:	002e0900 	eoreq	r0, lr, r0, lsl #18
    1fd4:	0e03193f 			; <UNDEFINED> instruction: 0x0e03193f
    1fd8:	0b3b0b3a 	bleq	ec4cc8 <__bss_end__+0xeb9b28>
    1fdc:	19270b39 	stmdbne	r7!, {r0, r3, r4, r5, r8, r9, fp}
    1fe0:	06120111 			; <UNDEFINED> instruction: 0x06120111
    1fe4:	42971840 	addsmi	r1, r7, #64, 16	; 0x400000
    1fe8:	00000019 	andeq	r0, r0, r9, lsl r0

Disassembly of section .debug_loc:

00000000 <.debug_loc>:
       0:	00000000 	andeq	r0, r0, r0
       4:	00000124 	andeq	r0, r0, r4, lsr #2
       8:	00000127 	andeq	r0, r0, r7, lsr #2
       c:	27500001 	ldrbcs	r0, [r0, -r1]
      10:	44000001 	strmi	r0, [r0], #-1
      14:	01000001 	tsteq	r0, r1
      18:	00005400 	andeq	r5, r0, r0, lsl #8
      1c:	00000000 	andeq	r0, r0, r0
      20:	00010000 	andeq	r0, r1, r0
      24:	00010100 	andeq	r0, r1, r0, lsl #2
      28:	00000000 	andeq	r0, r0, r0
      2c:	00000040 	andeq	r0, r0, r0, asr #32
      30:	0000004c 	andeq	r0, r0, ip, asr #32
      34:	9f300002 	svcls	0x00300002
      38:	0000004c 	andeq	r0, r0, ip, asr #32
      3c:	0000006c 	andeq	r0, r0, ip, rrx
      40:	6c550001 	mrrcvs	0, 0, r0, r5, cr1
      44:	74000000 	strvc	r0, [r0], #-0
      48:	01000000 	mrseq	r0, (UNDEF: 0)
      4c:	00745400 	rsbseq	r5, r4, r0, lsl #8
      50:	00ec0000 	rsceq	r0, ip, r0
      54:	00010000 	andeq	r0, r1, r0
      58:	0000ec55 	andeq	lr, r0, r5, asr ip
      5c:	0000fc00 	andeq	pc, r0, r0, lsl #24
      60:	50000100 	andpl	r0, r0, r0, lsl #2
	...
      6c:	00000003 	andeq	r0, r0, r3
      70:	00000040 	andeq	r0, r0, r0, asr #32
      74:	0000004c 	andeq	r0, r0, ip, asr #32
      78:	9f300002 	svcls	0x00300002
      7c:	0000004c 	andeq	r0, r0, ip, asr #32
      80:	000000ec 	andeq	r0, r0, ip, ror #1
      84:	00560001 	subseq	r0, r6, r1
	...
      94:	00004c00 	andeq	r4, r0, r0, lsl #24
      98:	00007400 	andeq	r7, r0, r0, lsl #8
      9c:	54000100 	strpl	r0, [r0], #-256	; 0xffffff00
      a0:	000000a8 	andeq	r0, r0, r8, lsr #1
      a4:	000000b3 	strheq	r0, [r0], -r3
      a8:	b3500001 	cmplt	r0, #1, 0
      ac:	dc000000 	stcle	0, cr0, [r0], {-0}
      b0:	01000000 	mrseq	r0, (UNDEF: 0)
      b4:	00005400 	andeq	r5, r0, r0, lsl #8
      b8:	00000000 	andeq	r0, r0, r0
      bc:	00010000 	andeq	r0, r1, r0
      c0:	0000007c 	andeq	r0, r0, ip, ror r0
      c4:	00000094 	muleq	r0, r4, r0
      c8:	9f400002 	svcls	0x00400002
	...
      d4:	007c0001 	rsbseq	r0, ip, r1
      d8:	00940000 	addseq	r0, r4, r0
      dc:	00060000 	andeq	r0, r6, r0
      e0:	00045cf2 	strdeq	r5, [r4], -r2
	...
      ec:	00010000 	andeq	r0, r1, r0
      f0:	0000007c 	andeq	r0, r0, ip, ror r0
      f4:	00000094 	muleq	r0, r4, r0
      f8:	10030006 	andne	r0, r3, r6
      fc:	9f0000a5 	svcls	0x000000a5
	...
     10c:	00000010 	andeq	r0, r0, r0, lsl r0
     110:	00000020 	andeq	r0, r0, r0, lsr #32
     114:	20500001 	subscs	r0, r0, r1
     118:	24000000 	strcs	r0, [r0], #-0
     11c:	04000000 	streq	r0, [r0], #-0
     120:	5001f300 	andpl	pc, r1, r0, lsl #6
     124:	0000009f 	muleq	r0, pc, r0	; <UNPREDICTABLE>
     128:	00000000 	andeq	r0, r0, r0
     12c:	00000100 	andeq	r0, r0, r0, lsl #2
     130:	00001c00 	andeq	r1, r0, r0, lsl #24
     134:	00002000 	andeq	r2, r0, r0
     138:	50000100 	andpl	r0, r0, r0, lsl #2
     13c:	00000020 	andeq	r0, r0, r0, lsr #32
     140:	00000024 	andeq	r0, r0, r4, lsr #32
     144:	01f30004 	mvnseq	r0, r4
     148:	00009f50 	andeq	r9, r0, r0, asr pc
	...
     158:	00000344 	andeq	r0, r0, r4, asr #6
     15c:	0000035c 	andeq	r0, r0, ip, asr r3
     160:	5c500001 	mrrcpl	0, 0, r0, r0, cr1	; <UNPREDICTABLE>
     164:	30000003 	andcc	r0, r0, r3
     168:	01000004 	tsteq	r0, r4
     16c:	04305500 	ldrteq	r5, [r0], #-1280	; 0xfffffb00
     170:	04400000 	strbeq	r0, [r0], #-0
     174:	00040000 	andeq	r0, r4, r0
     178:	9f5001f3 	svcls	0x005001f3
	...
     188:	036c0000 	cmneq	ip, #0, 0
     18c:	03770000 	cmneq	r7, #0, 0
     190:	00010000 	andeq	r0, r1, r0
     194:	00037750 	andeq	r7, r3, r0, asr r7
     198:	00043000 	andeq	r3, r4, r0
     19c:	54000100 	strpl	r0, [r0], #-256	; 0xffffff00
     1a0:	00000430 	andeq	r0, r0, r0, lsr r4
     1a4:	00000440 	andeq	r0, r0, r0, asr #8
     1a8:	c8700004 	ldmdagt	r0!, {r2}^
     1ac:	00009f7e 	andeq	r9, r0, lr, ror pc
     1b0:	00000000 	andeq	r0, r0, r0
     1b4:	00020000 	andeq	r0, r2, r0
     1b8:	03780000 	cmneq	r8, #0, 0
     1bc:	037c0000 	cmneq	ip, #0, 0
     1c0:	00020000 	andeq	r0, r2, r0
     1c4:	037c9f30 	cmneq	ip, #48, 30	; 0xc0
     1c8:	03ac0000 			; <UNDEFINED> instruction: 0x03ac0000
     1cc:	00010000 	andeq	r0, r1, r0
     1d0:	00000053 	andeq	r0, r0, r3, asr r0
     1d4:	00000000 	andeq	r0, r0, r0
     1d8:	00000300 	andeq	r0, r0, r0, lsl #6
     1dc:	0003f000 	andeq	pc, r3, r0
     1e0:	0003f400 	andeq	pc, r3, r0, lsl #8
     1e4:	30000200 	andcc	r0, r0, r0, lsl #4
     1e8:	0003f49f 	muleq	r3, pc, r4	; <UNPREDICTABLE>
     1ec:	00043000 	andeq	r3, r4, r0
     1f0:	56000100 	strpl	r0, [r0], -r0, lsl #2
	...
     1fc:	04080000 	streq	r0, [r8], #-0
     200:	04140000 	ldreq	r0, [r4], #-0
     204:	00010000 	andeq	r0, r1, r0
     208:	00000050 	andeq	r0, r0, r0, asr r0
	...
     21c:	0002f400 	andeq	pc, r2, r0, lsl #8
     220:	00031c00 	andeq	r1, r3, r0, lsl #24
     224:	50000100 	andpl	r0, r0, r0, lsl #2
     228:	0000031c 	andeq	r0, r0, ip, lsl r3
     22c:	00000324 	andeq	r0, r0, r4, lsr #6
     230:	01f30004 	mvnseq	r0, r4
     234:	03249f50 			; <UNDEFINED> instruction: 0x03249f50
     238:	03280000 			; <UNDEFINED> instruction: 0x03280000
     23c:	00010000 	andeq	r0, r1, r0
     240:	00032850 	andeq	r2, r3, r0, asr r8
     244:	00032c00 	andeq	r2, r3, r0, lsl #24
     248:	f3000400 	vshl.u8	d0, d0, d0
     24c:	2c9f5001 	ldccs	0, cr5, [pc], {1}
     250:	30000003 	andcc	r0, r0, r3
     254:	01000003 	tsteq	r0, r3
     258:	03305000 	teqeq	r0, #0, 0
     25c:	03380000 	teqeq	r8, #0, 0
     260:	00040000 	andeq	r0, r4, r0
     264:	9f5001f3 	svcls	0x005001f3
	...
     278:	00000184 	andeq	r0, r0, r4, lsl #3
     27c:	0000019c 	muleq	r0, ip, r1
     280:	9c500001 	mrrcls	0, 0, r0, r0, cr1	; <UNPREDICTABLE>
     284:	b4000001 	strlt	r0, [r0], #-1
     288:	01000002 	tsteq	r0, r2
     28c:	02b45400 	adcseq	r5, r4, #0, 8
     290:	02c80000 	sbceq	r0, r8, #0, 0
     294:	00040000 	andeq	r0, r4, r0
     298:	9f019874 	svcls	0x00019874
     29c:	000002c8 	andeq	r0, r0, r8, asr #5
     2a0:	000002e0 	andeq	r0, r0, r0, ror #5
     2a4:	01f30004 	mvnseq	r0, r4
     2a8:	00009f50 	andeq	r9, r0, r0, asr pc
     2ac:	00000000 	andeq	r0, r0, r0
     2b0:	02010000 	andeq	r0, r1, #0, 0
     2b4:	00000002 	andeq	r0, r0, r2
     2b8:	01a00000 	moveq	r0, r0
     2bc:	01a00000 	moveq	r0, r0
     2c0:	00010000 	andeq	r0, r1, r0
     2c4:	0001a054 	andeq	sl, r1, r4, asr r0
     2c8:	0002b400 	andeq	fp, r2, r0, lsl #8
     2cc:	74000400 	strvc	r0, [r0], #-1024	; 0xfffffc00
     2d0:	b49f7ec8 	ldrlt	r7, [pc], #3784	; 2d8 <__code_start__-0x7d28>
     2d4:	c8000002 	stmdagt	r0, {r1}
     2d8:	03000002 	movweq	r0, #2
     2dc:	9f607400 	svcls	0x00607400
     2e0:	000002c8 	andeq	r0, r0, r8, asr #5
     2e4:	000002e0 	andeq	r0, r0, r0, ror #5
     2e8:	01f30007 	mvnseq	r0, r7
     2ec:	1cb80850 	ldcne	8, cr0, [r8], #320	; 0x140
     2f0:	0000009f 	muleq	r0, pc, r0	; <UNPREDICTABLE>
	...
     300:	0001e800 	andeq	lr, r1, r0, lsl #16
     304:	00021c00 	andeq	r1, r2, r0, lsl #24
     308:	53000100 	movwpl	r0, #256	; 0x100
     30c:	00000244 	andeq	r0, r0, r4, asr #4
     310:	00000247 	andeq	r0, r0, r7, asr #4
     314:	68530001 	ldmdavs	r3, {r0}^
     318:	6b000002 	blvs	328 <__code_start__-0x7cd8>
     31c:	01000002 	tsteq	r0, r2
     320:	028c5300 	addeq	r5, ip, #0, 6
     324:	02900000 	addseq	r0, r0, #0, 0
     328:	00010000 	andeq	r0, r1, r0
     32c:	00000053 	andeq	r0, r0, r3, asr r0
     330:	00000000 	andeq	r0, r0, r0
     334:	90000000 	andls	r0, r0, r0
     338:	ac000002 	stcge	0, cr0, [r0], {2}
     33c:	01000002 	tsteq	r0, r2
     340:	00005300 	andeq	r5, r0, r0, lsl #6
	...
     34c:	01180000 	tsteq	r8, r0
     350:	012b0000 			; <UNDEFINED> instruction: 0x012b0000
     354:	00010000 	andeq	r0, r1, r0
     358:	00012b50 	andeq	r2, r1, r0, asr fp
     35c:	00017800 	andeq	r7, r1, r0, lsl #16
     360:	55000100 	strpl	r0, [r0, #-256]	; 0xffffff00
	...
     374:	00000130 	andeq	r0, r0, r0, lsr r1
     378:	00000143 	andeq	r0, r0, r3, asr #2
     37c:	43500001 	cmpmi	r0, #1, 0
     380:	58000001 	stmdapl	r0, {r0}
     384:	01000001 	tsteq	r0, r1
     388:	01585400 	cmpeq	r8, r0, lsl #8
     38c:	015c0000 	cmpeq	ip, r0
     390:	00010000 	andeq	r0, r1, r0
     394:	00015c50 	andeq	r5, r1, r0, asr ip
     398:	00017800 	andeq	r7, r1, r0, lsl #16
     39c:	54000100 	strpl	r0, [r0], #-256	; 0xffffff00
	...
     3ac:	000000c8 	andeq	r0, r0, r8, asr #1
     3b0:	000000df 	ldrdeq	r0, [r0], -pc	; <UNPREDICTABLE>
     3b4:	df500001 	svcle	0x00500001
     3b8:	00000000 	andeq	r0, r0, r0
     3bc:	01000001 	tsteq	r0, r1
     3c0:	00005600 	andeq	r5, r0, r0, lsl #12
	...
     3cc:	00c80000 	sbceq	r0, r8, r0
     3d0:	00df0000 	sbcseq	r0, pc, r0
     3d4:	00010000 	andeq	r0, r1, r0
     3d8:	0000df51 	andeq	sp, r0, r1, asr pc
     3dc:	00010000 	andeq	r0, r1, r0
     3e0:	54000100 	strpl	r0, [r0], #-256	; 0xffffff00
	...
     3f0:	000000e4 	andeq	r0, r0, r4, ror #1
     3f4:	000000e8 	andeq	r0, r0, r8, ror #1
     3f8:	e8500001 	ldmda	r0, {r0}^
     3fc:	00000000 	andeq	r0, r0, r0
     400:	01000001 	tsteq	r0, r1
     404:	00005500 	andeq	r5, r0, r0, lsl #10
	...
     410:	000000ec 	andeq	r0, r0, ip, ror #1
     414:	000000f8 	strdeq	r0, [r0], -r8
     418:	00500001 	subseq	r0, r0, r1
	...
     424:	94000000 	strls	r0, [r0], #-0
     428:	a7000000 	strge	r0, [r0, -r0]
     42c:	01000000 	mrseq	r0, (UNDEF: 0)
     430:	00a75000 	adceq	r5, r7, r0
     434:	00b40000 	adcseq	r0, r4, r0
     438:	00010000 	andeq	r0, r1, r0
     43c:	00000054 	andeq	r0, r0, r4, asr r0
     440:	00000000 	andeq	r0, r0, r0
     444:	a8000000 	stmdage	r0, {}	; <UNPREDICTABLE>
     448:	ac000000 	stcge	0, cr0, [r0], {-0}
     44c:	01000000 	mrseq	r0, (UNDEF: 0)
     450:	00005400 	andeq	r5, r0, r0, lsl #8
	...
     45c:	00700000 	rsbseq	r0, r0, r0
     460:	00800000 	addeq	r0, r0, r0
     464:	00010000 	andeq	r0, r1, r0
     468:	00008050 	andeq	r8, r0, r0, asr r0
     46c:	00008400 	andeq	r8, r0, r0, lsl #8
     470:	70000400 	andvc	r0, r0, r0, lsl #8
     474:	009f7ec8 	addseq	r7, pc, r8, asr #29
	...
     480:	40000000 	andmi	r0, r0, r0
     484:	58000000 	stmdapl	r0, {}	; <UNPREDICTABLE>
     488:	01000000 	mrseq	r0, (UNDEF: 0)
     48c:	00585000 	subseq	r5, r8, r0
     490:	005c0000 	subseq	r0, ip, r0
     494:	00040000 	andeq	r0, r4, r0
     498:	9f5001f3 	svcls	0x005001f3
	...
     4ac:	0000001c 	andeq	r0, r0, ip, lsl r0
     4b0:	0000008c 	andeq	r0, r0, ip, lsl #1
     4b4:	8c510001 	mrrchi	0, 0, r0, r1, cr1
     4b8:	98000000 	stmdals	r0, {}	; <UNPREDICTABLE>
     4bc:	03000000 	movweq	r0, #0
     4c0:	9f787000 	svcls	0x00787000
     4c4:	00000098 	muleq	r0, r8, r0
     4c8:	000000b8 	strheq	r0, [r0], -r8
     4cc:	b8510001 	ldmdalt	r1, {r0}^
     4d0:	d0000000 	andle	r0, r0, r0
     4d4:	03000000 	movweq	r0, #0
     4d8:	9f787000 	svcls	0x00787000
	...
     4e8:	00000024 	andeq	r0, r0, r4, lsr #32
     4ec:	0000005c 	andeq	r0, r0, ip, asr r0
     4f0:	60530001 	subsvs	r0, r3, r1
     4f4:	d0000000 	andle	r0, r0, r0
     4f8:	01000000 	mrseq	r0, (UNDEF: 0)
     4fc:	00005300 	andeq	r5, r0, r0, lsl #6
	...
     50c:	014c0000 	mrseq	r0, (UNDEF: 76)
     510:	01780000 	cmneq	r8, r0
     514:	00010000 	andeq	r0, r1, r0
     518:	00017850 	andeq	r7, r1, r0, asr r8
     51c:	00017c00 	andeq	r7, r1, r0, lsl #24
     520:	f3000400 	vshl.u8	d0, d0, d0
     524:	7c9f5001 	ldcvc	0, cr5, [pc], {1}
     528:	94000001 	strls	r0, [r0], #-1
     52c:	01000001 	tsteq	r0, r1
     530:	01945000 	orrseq	r5, r4, r0
     534:	02000000 	andeq	r0, r0, #0, 0
     538:	00040000 	andeq	r0, r4, r0
     53c:	9f5001f3 	svcls	0x005001f3
	...
     54c:	01000000 	mrseq	r0, (UNDEF: 0)
     550:	00000001 	andeq	r0, r0, r1
     554:	01780000 	cmneq	r8, r0
     558:	017c0000 	cmneq	ip, r0
     55c:	00010000 	andeq	r0, r1, r0
     560:	00019450 	andeq	r9, r1, r0, asr r4
     564:	0001b400 	andeq	fp, r1, r0, lsl #8
     568:	50000100 	andpl	r0, r0, r0, lsl #2
     56c:	000001b4 			; <UNDEFINED> instruction: 0x000001b4
     570:	000001b8 			; <UNDEFINED> instruction: 0x000001b8
     574:	78700003 	ldmdavc	r0!, {r0, r1}^
     578:	0001b89f 	muleq	r1, pc, r8	; <UNPREDICTABLE>
     57c:	0001c400 	andeq	ip, r1, r0, lsl #8
     580:	50000100 	andpl	r0, r0, r0, lsl #2
     584:	000001c4 	andeq	r0, r0, r4, asr #3
     588:	000001cc 	andeq	r0, r0, ip, asr #3
     58c:	00700002 	rsbseq	r0, r0, r2
     590:	000001cc 	andeq	r0, r0, ip, asr #3
     594:	000001ec 	andeq	r0, r0, ip, ror #3
     598:	f0500001 			; <UNDEFINED> instruction: 0xf0500001
     59c:	00000001 	andeq	r0, r0, r1
     5a0:	01000002 	tsteq	r0, r2
     5a4:	00005000 	andeq	r5, r0, r0
     5a8:	00000000 	andeq	r0, r0, r0
     5ac:	01000000 	mrseq	r0, (UNDEF: 0)
     5b0:	00000001 	andeq	r0, r0, r1
     5b4:	00000001 	andeq	r0, r0, r1
     5b8:	0000016c 	andeq	r0, r0, ip, ror #2
     5bc:	0000017c 	andeq	r0, r0, ip, ror r1
     5c0:	7c520001 	mrrcvc	0, 0, r0, r2, cr1
     5c4:	94000001 	strls	r0, [r0], #-1
     5c8:	06000001 	streq	r0, [r0], -r1
     5cc:	ad800300 	stcge	3, cr0, [r0]
     5d0:	949f0000 	ldrls	r0, [pc], #0	; 5d8 <__code_start__-0x7a28>
     5d4:	c4000001 	strgt	r0, [r0], #-1
     5d8:	01000001 	tsteq	r0, r1
     5dc:	01c45200 	biceq	r5, r4, r0, lsl #4
     5e0:	01cc0000 	biceq	r0, ip, r0
     5e4:	00010000 	andeq	r0, r1, r0
     5e8:	0001cc50 	andeq	ip, r1, r0, asr ip
     5ec:	0001ef00 	andeq	lr, r1, r0, lsl #30
     5f0:	52000100 	andpl	r0, r0, #0
	...
     5fc:	01640000 	cmneq	r4, r0
     600:	02000000 	andeq	r0, r0, #0, 0
     604:	00010000 	andeq	r0, r1, r0
     608:	00000054 	andeq	r0, r0, r4, asr r0
	...
     614:	0000e000 	andeq	lr, r0, r0
     618:	0000f800 	andeq	pc, r0, r0, lsl #16
     61c:	50000100 	andpl	r0, r0, r0, lsl #2
     620:	000000f8 	strdeq	r0, [r0], -r8
     624:	0000013c 	andeq	r0, r0, ip, lsr r1
     628:	00540001 	subseq	r0, r4, r1
	...
     638:	00010c00 	andeq	r0, r1, r0, lsl #24
     63c:	00011c00 	andeq	r1, r1, r0, lsl #24
     640:	50000100 	andpl	r0, r0, r0, lsl #2
     644:	0000011c 	andeq	r0, r0, ip, lsl r1
     648:	0000011f 	andeq	r0, r0, pc, lsl r1
     64c:	78700003 	ldmdavc	r0!, {r0, r1}^
     650:	00012c9f 	muleq	r1, pc, ip	; <UNPREDICTABLE>
     654:	00013000 	andeq	r3, r1, r0
     658:	50000100 	andpl	r0, r0, r0, lsl #2
	...
     664:	00000001 	andeq	r0, r0, r1
     668:	00000114 	andeq	r0, r0, r4, lsl r1
     66c:	0000011c 	andeq	r0, r0, ip, lsl r1
     670:	1c500001 	mrrcne	0, 0, r0, r0, cr1	; <UNPREDICTABLE>
     674:	1f000001 	svcne	0x00000001
     678:	03000001 	movweq	r0, #1
     67c:	9f787000 	svcls	0x00787000
	...
     688:	065c0000 	ldrbeq	r0, [ip], -r0
     68c:	06600000 	strbteq	r0, [r0], -r0
     690:	00010000 	andeq	r0, r1, r0
     694:	00000050 	andeq	r0, r0, r0, asr r0
     698:	00000000 	andeq	r0, r0, r0
     69c:	00000100 	andeq	r0, r0, r0, lsl #2
     6a0:	0003a800 	andeq	sl, r3, r0, lsl #16
     6a4:	0003d400 	andeq	sp, r3, r0, lsl #8
     6a8:	30000200 	andcc	r0, r0, r0, lsl #4
     6ac:	0003d49f 	muleq	r3, pc, r4	; <UNPREDICTABLE>
     6b0:	00046c00 	andeq	r6, r4, r0, lsl #24
     6b4:	55000100 	strpl	r0, [r0, #-256]	; 0xffffff00
	...
     6c0:	00000001 	andeq	r0, r0, r1
     6c4:	000003a8 	andeq	r0, r0, r8, lsr #7
     6c8:	000003d4 	ldrdeq	r0, [r0], -r4
     6cc:	9f300002 	svcls	0x00300002
     6d0:	000003d4 	ldrdeq	r0, [r0], -r4
     6d4:	0000046c 	andeq	r0, r0, ip, ror #8
     6d8:	00570001 	subseq	r0, r7, r1
     6dc:	00000000 	andeq	r0, r0, r0
     6e0:	01000000 	mrseq	r0, (UNDEF: 0)
     6e4:	00000000 	andeq	r0, r0, r0
     6e8:	0003a800 	andeq	sl, r3, r0, lsl #16
     6ec:	0003d400 	andeq	sp, r3, r0, lsl #8
     6f0:	30000200 	andcc	r0, r0, r0, lsl #4
     6f4:	0003d49f 	muleq	r3, pc, r4	; <UNPREDICTABLE>
     6f8:	00046c00 	andeq	r6, r4, r0, lsl #24
     6fc:	56000100 	strpl	r0, [r0], -r0, lsl #2
     700:	0000046c 	andeq	r0, r0, ip, ror #8
     704:	00000488 	andeq	r0, r0, r8, lsl #9
     708:	00500001 	subseq	r0, r0, r1
	...
     718:	c4000000 	strgt	r0, [r0], #-0
     71c:	08000003 	stmdaeq	r0, {r0, r1}
     720:	01000004 	tsteq	r0, r4
     724:	04085000 	streq	r5, [r8], #-0
     728:	04240000 	strteq	r0, [r4], #-0
     72c:	00010000 	andeq	r0, r1, r0
     730:	00042454 	andeq	r2, r4, r4, asr r4
     734:	00045c00 	andeq	r5, r4, r0, lsl #24
     738:	50000100 	andpl	r0, r0, r0, lsl #2
     73c:	0000045c 	andeq	r0, r0, ip, asr r4
     740:	0000046c 	andeq	r0, r0, ip, ror #8
     744:	00540001 	subseq	r0, r4, r1
	...
     750:	0003e400 	andeq	lr, r3, r0, lsl #8
     754:	0003fc00 	andeq	pc, r3, r0, lsl #24
     758:	0a000400 	beq	1760 <__code_start__-0x68a0>
     75c:	009f0105 	addseq	r0, pc, r5, lsl #2
	...
     768:	0003e400 	andeq	lr, r3, r0, lsl #8
     76c:	0003fc00 	andeq	pc, r3, r0, lsl #24
     770:	f2000600 	vmax.s8	d0, d0, d0
     774:	00001bd6 	ldrdeq	r1, [r0], -r6
	...
     780:	e4000000 	str	r0, [r0], #-0
     784:	fc000003 	stc2	0, cr0, [r0], {3}
     788:	06000003 	streq	r0, [r0], -r3
     78c:	a6a40300 	strtge	r0, [r4], r0, lsl #6
     790:	009f0000 	addseq	r0, pc, r0
	...
     7a0:	0005f800 	andeq	pc, r5, r0, lsl #16
     7a4:	00060800 	andeq	r0, r6, r0, lsl #16
     7a8:	50000100 	andpl	r0, r0, r0, lsl #2
     7ac:	00000608 	andeq	r0, r0, r8, lsl #12
     7b0:	0000060b 	andeq	r0, r0, fp, lsl #12
     7b4:	0b510001 	bleq	14407c0 <__bss_end__+0x1435620>
     7b8:	3c000006 	stccc	0, cr0, [r0], {6}
     7bc:	01000006 	tsteq	r0, r6
     7c0:	00005400 	andeq	r5, r0, r0, lsl #8
	...
     7cc:	05540000 	ldrbeq	r0, [r4, #-0]
     7d0:	05630000 	strbeq	r0, [r3, #-0]!
     7d4:	00010000 	andeq	r0, r1, r0
     7d8:	00056350 	andeq	r6, r5, r0, asr r3
     7dc:	00056800 	andeq	r6, r5, r0, lsl #16
     7e0:	f3000400 	vshl.u8	d0, d0, d0
     7e4:	009f5001 	addseq	r5, pc, r1
	...
     7f0:	80000000 	andhi	r0, r0, r0
     7f4:	94000002 	strls	r0, [r0], #-2
     7f8:	01000002 	tsteq	r0, r2
     7fc:	02945000 	addseq	r5, r4, #0, 0
     800:	03880000 	orreq	r0, r8, #0, 0
     804:	00010000 	andeq	r0, r1, r0
     808:	00000057 	andeq	r0, r0, r7, asr r0
     80c:	00000000 	andeq	r0, r0, r0
     810:	00000100 	andeq	r0, r0, r0, lsl #2
     814:	00029000 	andeq	r9, r2, r0
     818:	0002bc00 	andeq	fp, r2, r0, lsl #24
     81c:	30000200 	andcc	r0, r0, r0, lsl #4
     820:	0002bc9f 	muleq	r2, pc, ip	; <UNPREDICTABLE>
     824:	00038800 	andeq	r8, r3, r0, lsl #16
     828:	55000100 	strpl	r0, [r0, #-256]	; 0xffffff00
	...
     834:	00000001 	andeq	r0, r0, r1
     838:	02900000 	addseq	r0, r0, #0, 0
     83c:	02bc0000 	adcseq	r0, ip, #0, 0
     840:	00020000 	andeq	r0, r2, r0
     844:	02bc9f30 	adcseq	r9, ip, #48, 30	; 0xc0
     848:	034c0000 	movteq	r0, #49152	; 0xc000
     84c:	00010000 	andeq	r0, r1, r0
     850:	00035456 	andeq	r5, r3, r6, asr r4
     854:	00038800 	andeq	r8, r3, r0, lsl #16
     858:	56000100 	strpl	r0, [r0], -r0, lsl #2
	...
     864:	00000001 	andeq	r0, r0, r1
     868:	00000290 	muleq	r0, r0, r2
     86c:	000002bc 			; <UNDEFINED> instruction: 0x000002bc
     870:	9f300002 	svcls	0x00300002
     874:	000002bc 			; <UNDEFINED> instruction: 0x000002bc
     878:	00000388 	andeq	r0, r0, r8, lsl #7
     87c:	00580001 	subseq	r0, r8, r1
	...
     894:	0002ac00 	andeq	sl, r2, r0, lsl #24
     898:	0002cc00 	andeq	ip, r2, r0, lsl #24
     89c:	50000100 	andpl	r0, r0, r0, lsl #2
     8a0:	000002cc 	andeq	r0, r0, ip, asr #5
     8a4:	000002dc 	ldrdeq	r0, [r0], -ip
     8a8:	dc540001 	mrrcle	0, 0, r0, r4, cr1
     8ac:	18000002 	stmdane	r0, {r1}
     8b0:	01000003 	tsteq	r0, r3
     8b4:	03185000 	tsteq	r8, #0, 0
     8b8:	031b0000 	tsteq	fp, #0, 0
     8bc:	00010000 	andeq	r0, r1, r0
     8c0:	00031b52 	andeq	r1, r3, r2, asr fp
     8c4:	00032000 	andeq	r2, r3, r0
     8c8:	54000100 	strpl	r0, [r0], #-256	; 0xffffff00
     8cc:	00000320 	andeq	r0, r0, r0, lsr #6
     8d0:	00000328 	andeq	r0, r0, r8, lsr #6
     8d4:	28500001 	ldmdacs	r0, {r0}^
     8d8:	88000003 	stmdahi	r0, {r0, r1}
     8dc:	01000003 	tsteq	r0, r3
     8e0:	00005400 	andeq	r5, r0, r0, lsl #8
	...
     8ec:	01d80000 	bicseq	r0, r8, r0
     8f0:	01f30000 	mvnseq	r0, r0
     8f4:	00010000 	andeq	r0, r1, r0
     8f8:	0001f450 	andeq	pc, r1, r0, asr r4	; <UNPREDICTABLE>
     8fc:	0001fc00 	andeq	pc, r1, r0, lsl #24
     900:	50000100 	andpl	r0, r0, r0, lsl #2
	...
     918:	009c0000 	addseq	r0, ip, r0
     91c:	00e40000 	rsceq	r0, r4, r0
     920:	00010000 	andeq	r0, r1, r0
     924:	0000e450 	andeq	lr, r0, r0, asr r4
     928:	0000ec00 	andeq	lr, r0, r0, lsl #24
     92c:	54000100 	strpl	r0, [r0], #-256	; 0xffffff00
     930:	000000ec 	andeq	r0, r0, ip, ror #1
     934:	00000104 	andeq	r0, r0, r4, lsl #2
     938:	04500001 	ldrbeq	r0, [r0], #-1
     93c:	0c000001 	stceq	0, cr0, [r0], {1}
     940:	04000001 	streq	r0, [r0], #-1
     944:	5001f300 	andpl	pc, r1, r0, lsl #6
     948:	00010c9f 	muleq	r1, pc, ip	; <UNPREDICTABLE>
     94c:	00012400 	andeq	r2, r1, r0, lsl #8
     950:	50000100 	andpl	r0, r0, r0, lsl #2
     954:	00000124 	andeq	r0, r0, r4, lsr #2
     958:	0000012c 	andeq	r0, r0, ip, lsr #2
     95c:	2c540001 	mrrccs	0, 0, r0, r4, cr1
     960:	b4000001 	strlt	r0, [r0], #-1
     964:	04000001 	streq	r0, [r0], #-1
     968:	5001f300 	andpl	pc, r1, r0, lsl #6
     96c:	0000009f 	muleq	r0, pc, r0	; <UNPREDICTABLE>
	...
     980:	9c000000 	stcls	0, cr0, [r0], {-0}
     984:	e0000000 	and	r0, r0, r0
     988:	01000000 	mrseq	r0, (UNDEF: 0)
     98c:	00e05100 	rsceq	r5, r0, r0, lsl #2
     990:	00ec0000 	rsceq	r0, ip, r0
     994:	00010000 	andeq	r0, r1, r0
     998:	0000ec55 	andeq	lr, r0, r5, asr ip
     99c:	00010000 	andeq	r0, r1, r0
     9a0:	51000100 	mrspl	r0, (UNDEF: 16)
     9a4:	00000100 	andeq	r0, r0, r0, lsl #2
     9a8:	0000010c 	andeq	r0, r0, ip, lsl #2
     9ac:	01f30004 	mvnseq	r0, r4
     9b0:	010c9f51 	tsteq	ip, r1, asr pc
     9b4:	01200000 			; <UNDEFINED> instruction: 0x01200000
     9b8:	00010000 	andeq	r0, r1, r0
     9bc:	00012051 	andeq	r2, r1, r1, asr r0
     9c0:	00019c00 	andeq	r9, r1, r0, lsl #24
     9c4:	55000100 	strpl	r0, [r0, #-256]	; 0xffffff00
     9c8:	0000019c 	muleq	r0, ip, r1
     9cc:	000001b4 			; <UNDEFINED> instruction: 0x000001b4
     9d0:	01f30004 	mvnseq	r0, r4
     9d4:	00009f51 	andeq	r9, r0, r1, asr pc
	...
     9e0:	0000012c 	andeq	r0, r0, ip, lsr #2
     9e4:	0000019c 	muleq	r0, ip, r1
     9e8:	00540001 	subseq	r0, r4, r1
	...
     9f8:	00012c00 	andeq	r2, r1, r0, lsl #24
     9fc:	00013c00 	andeq	r3, r1, r0, lsl #24
     a00:	50000100 	andpl	r0, r0, r0, lsl #2
     a04:	00000150 	andeq	r0, r0, r0, asr r1
     a08:	0000018c 	andeq	r0, r0, ip, lsl #3
     a0c:	8c500001 	mrrchi	0, 0, r0, r0, cr1	; <UNPREDICTABLE>
     a10:	8f000001 	svchi	0x00000001
     a14:	03000001 	movweq	r0, #1
     a18:	9f7c7000 	svcls	0x007c7000
	...
     a2c:	012c0000 			; <UNDEFINED> instruction: 0x012c0000
     a30:	01300000 	teqeq	r0, r0
     a34:	00010000 	andeq	r0, r1, r0
     a38:	00013051 	andeq	r3, r1, r1, asr r0
     a3c:	00013c00 	andeq	r3, r1, r0, lsl #24
     a40:	70000400 	andvc	r0, r0, r0, lsl #8
     a44:	5c9f01b8 	ldfpls	f0, [pc], {184}	; 0xb8
     a48:	78000001 	stmdavc	r0, {r0}
     a4c:	01000001 	tsteq	r0, r1
     a50:	01785100 	cmneq	r8, r0, lsl #2
     a54:	018c0000 	orreq	r0, ip, r0
     a58:	00040000 	andeq	r0, r4, r0
     a5c:	9f01b870 	svcls	0x0001b870
     a60:	0000018c 	andeq	r0, r0, ip, lsl #3
     a64:	0000018f 	andeq	r0, r0, pc, lsl #3
     a68:	b4700004 	ldrbtlt	r0, [r0], #-4
     a6c:	00009f01 	andeq	r9, r0, r1, lsl #30
	...
     a78:	012c0000 			; <UNDEFINED> instruction: 0x012c0000
     a7c:	013c0000 	teqeq	ip, r0
     a80:	00010000 	andeq	r0, r1, r0
     a84:	00016052 	andeq	r6, r1, r2, asr r0
     a88:	00018f00 	andeq	r8, r1, r0, lsl #30
     a8c:	52000100 	andpl	r0, r0, #0
	...
     a9c:	00000060 	andeq	r0, r0, r0, rrx
     aa0:	00000073 	andeq	r0, r0, r3, ror r0
     aa4:	73500001 	cmpvc	r0, #1, 0
     aa8:	90000000 	andls	r0, r0, r0
     aac:	01000000 	mrseq	r0, (UNDEF: 0)
     ab0:	00005400 	andeq	r5, r0, r0, lsl #8
     ab4:	00000000 	andeq	r0, r0, r0
     ab8:	00010000 	andeq	r0, r1, r0
     abc:	00700000 	rsbseq	r0, r0, r0
     ac0:	00730000 	rsbseq	r0, r3, r0
     ac4:	00010000 	andeq	r0, r1, r0
     ac8:	00007350 	andeq	r7, r0, r0, asr r3
     acc:	00009000 	andeq	r9, r0, r0
     ad0:	54000100 	strpl	r0, [r0], #-256	; 0xffffff00
	...
     ae8:	0000000c 	andeq	r0, r0, ip
     aec:	0000003c 	andeq	r0, r0, ip, lsr r0
     af0:	3c500001 	mrrccc	0, 0, r0, r0, cr1	; <UNPREDICTABLE>
     af4:	40000000 	andmi	r0, r0, r0
     af8:	04000000 	streq	r0, [r0], #-0
     afc:	5001f300 	andpl	pc, r1, r0, lsl #6
     b00:	0000409f 	muleq	r0, pc, r0	; <UNPREDICTABLE>
     b04:	00004400 	andeq	r4, r0, r0, lsl #8
     b08:	50000100 	andpl	r0, r0, r0, lsl #2
     b0c:	00000044 	andeq	r0, r0, r4, asr #32
     b10:	00000048 	andeq	r0, r0, r8, asr #32
     b14:	01f30004 	mvnseq	r0, r4
     b18:	00489f50 	subeq	r9, r8, r0, asr pc
     b1c:	004c0000 	subeq	r0, ip, r0
     b20:	00010000 	andeq	r0, r1, r0
     b24:	00004c50 	andeq	r4, r0, r0, asr ip
     b28:	00005400 	andeq	r5, r0, r0, lsl #8
     b2c:	f3000400 	vshl.u8	d0, d0, d0
     b30:	009f5001 	addseq	r5, pc, r1
	...
     b44:	94000000 	strls	r0, [r0], #-0
     b48:	c4000004 	strgt	r0, [r0], #-4
     b4c:	01000004 	tsteq	r0, r4
     b50:	04c45000 	strbeq	r5, [r4], #0
     b54:	04f00000 	ldrbteq	r0, [r0], #0
     b58:	00010000 	andeq	r0, r1, r0
     b5c:	0004f054 	andeq	pc, r4, r4, asr r0	; <UNPREDICTABLE>
     b60:	00050800 	andeq	r0, r5, r0, lsl #16
     b64:	50000100 	andpl	r0, r0, r0, lsl #2
     b68:	00000508 	andeq	r0, r0, r8, lsl #10
     b6c:	00000510 	andeq	r0, r0, r0, lsl r5
     b70:	10540001 	subsne	r0, r4, r1
     b74:	20000005 	andcs	r0, r0, r5
     b78:	01000005 	tsteq	r0, r5
     b7c:	05205000 	streq	r5, [r0, #-0]!
     b80:	05400000 	strbeq	r0, [r0, #-0]
     b84:	00010000 	andeq	r0, r1, r0
     b88:	00000054 	andeq	r0, r0, r4, asr r0
     b8c:	00000000 	andeq	r0, r0, r0
     b90:	bc000200 	sfmlt	f0, 4, [r0], {-0}
     b94:	f0000004 			; <UNDEFINED> instruction: 0xf0000004
     b98:	04000004 	streq	r0, [r0], #-4
     b9c:	24404000 	strbcs	r4, [r0], #-0
     ba0:	0000009f 	muleq	r0, pc, r0	; <UNPREDICTABLE>
     ba4:	00000000 	andeq	r0, r0, r0
     ba8:	08000000 	stmdaeq	r0, {}	; <UNPREDICTABLE>
     bac:	80000000 	andhi	r0, r0, r0
     bb0:	01000000 	mrseq	r0, (UNDEF: 0)
     bb4:	00005400 	andeq	r5, r0, r0, lsl #8
     bb8:	00000000 	andeq	r0, r0, r0
     bbc:	00020000 	andeq	r0, r2, r0
     bc0:	00080000 	andeq	r0, r8, r0
     bc4:	00200000 	eoreq	r0, r0, r0
     bc8:	00020000 	andeq	r0, r2, r0
     bcc:	00209f30 	eoreq	r9, r0, r0, lsr pc
     bd0:	006c0000 	rsbeq	r0, ip, r0
     bd4:	00010000 	andeq	r0, r1, r0
     bd8:	00000057 	andeq	r0, r0, r7, asr r0
     bdc:	00000000 	andeq	r0, r0, r0
     be0:	3c000000 	stccc	0, cr0, [r0], {-0}
     be4:	57000000 	strpl	r0, [r0, -r0]
     be8:	01000000 	mrseq	r0, (UNDEF: 0)
     bec:	00005200 	andeq	r5, r0, r0, lsl #4
     bf0:	00000000 	andeq	r0, r0, r0
     bf4:	00010000 	andeq	r0, r1, r0
     bf8:	0000003c 	andeq	r0, r0, ip, lsr r0
     bfc:	00000050 	andeq	r0, r0, r0, asr r0
     c00:	00520001 	subseq	r0, r2, r1
     c04:	00000000 	andeq	r0, r0, r0
     c08:	03000000 	movweq	r0, #0
     c0c:	3c000000 	stccc	0, cr0, [r0], {-0}
     c10:	48000000 	stmdami	r0, {}	; <UNPREDICTABLE>
     c14:	01000000 	mrseq	r0, (UNDEF: 0)
     c18:	00485300 	subeq	r5, r8, r0, lsl #6
     c1c:	00500000 	subseq	r0, r0, r0
     c20:	00020000 	andeq	r0, r2, r0
     c24:	00000070 	andeq	r0, r0, r0, ror r0
	...
     c34:	00000038 	andeq	r0, r0, r8, lsr r0
     c38:	00000048 	andeq	r0, r0, r8, asr #32
     c3c:	00730009 	rsbseq	r0, r3, r9
     c40:	ffffff0c 			; <UNDEFINED> instruction: 0xffffff0c
     c44:	489f1a00 	ldmmi	pc, {r9, fp, ip}	; <UNPREDICTABLE>
     c48:	4c000000 	stcmi	0, cr0, [r0], {-0}
     c4c:	01000000 	mrseq	r0, (UNDEF: 0)
     c50:	004c5300 	subeq	r5, ip, r0, lsl #6
     c54:	00500000 	subseq	r0, r0, r0
     c58:	000a0000 	andeq	r0, sl, r0
     c5c:	0c060070 	stceq	0, cr0, [r6], {112}	; 0x70
     c60:	00ffffff 	ldrshteq	pc, [pc], #255	; <UNPREDICTABLE>
     c64:	00009f1a 	andeq	r9, r0, sl, lsl pc
	...
     c74:	00000080 	andeq	r0, r0, r0, lsl #1
     c78:	00000088 	andeq	r0, r0, r8, lsl #1
     c7c:	88500001 	ldmdahi	r0, {r0}^
     c80:	94000000 	strls	r0, [r0], #-0
     c84:	03000000 	movweq	r0, #0
     c88:	9f047000 	svcls	0x00047000
     c8c:	00000094 	muleq	r0, r4, r0
     c90:	000000a0 	andeq	r0, r0, r0, lsr #1
     c94:	01f30004 	mvnseq	r0, r4
     c98:	00009f50 	andeq	r9, r0, r0, asr pc
	...
     ca8:	00000084 	andeq	r0, r0, r4, lsl #1
     cac:	00000090 	muleq	r0, r0, r0
     cb0:	90530001 	subsls	r0, r3, r1
     cb4:	94000000 	strls	r0, [r0], #-0
     cb8:	02000000 	andeq	r0, r0, #0, 0
     cbc:	94007000 	strls	r7, [r0], #-0
     cc0:	a0000000 	andge	r0, r0, r0
     cc4:	05000000 	streq	r0, [r0, #-0]
     cc8:	5001f300 	andpl	pc, r1, r0, lsl #6
     ccc:	00001c34 	andeq	r1, r0, r4, lsr ip
     cd0:	00000000 	andeq	r0, r0, r0
     cd4:	00010000 	andeq	r0, r1, r0
     cd8:	00000000 	andeq	r0, r0, r0
     cdc:	0000008c 	andeq	r0, r0, ip, lsl #1
     ce0:	00000090 	muleq	r0, r0, r0
     ce4:	00730009 	rsbseq	r0, r3, r9
     ce8:	ffffff0c 			; <UNDEFINED> instruction: 0xffffff0c
     cec:	909f1a00 	addsls	r1, pc, r0, lsl #20
     cf0:	94000000 	strls	r0, [r0], #-0
     cf4:	0a000000 	beq	cfc <__code_start__-0x7304>
     cf8:	06007000 	streq	r7, [r0], -r0
     cfc:	ffffff0c 			; <UNDEFINED> instruction: 0xffffff0c
     d00:	949f1a00 	ldrls	r1, [pc], #2560	; d08 <__code_start__-0x72f8>
     d04:	a0000000 	andge	r0, r0, r0
     d08:	0d000000 	stceq	0, cr0, [r0, #-0]
     d0c:	5001f300 	andpl	pc, r1, r0, lsl #6
     d10:	0c061c34 	stceq	12, cr1, [r6], {52}	; 0x34
     d14:	00ffffff 	ldrshteq	pc, [pc], #255	; <UNPREDICTABLE>
     d18:	00009f1a 	andeq	r9, r0, sl, lsl pc
	...
     d28:	001c0000 	andseq	r0, ip, r0
     d2c:	00010000 	andeq	r0, r1, r0
     d30:	00001c51 	andeq	r1, r0, r1, asr ip
     d34:	00007800 	andeq	r7, r0, r0, lsl #16
     d38:	f3000400 	vshl.u8	d0, d0, d0
     d3c:	009f5101 	addseq	r5, pc, r1, lsl #2
	...
     d4c:	58000000 	stmdapl	r0, {}	; <UNPREDICTABLE>
     d50:	01000000 	mrseq	r0, (UNDEF: 0)
     d54:	00585200 	subseq	r5, r8, r0, lsl #4
     d58:	00780000 	rsbseq	r0, r8, r0
     d5c:	00040000 	andeq	r0, r4, r0
     d60:	9f5201f3 	svcls	0x005201f3
	...
     d6c:	01000002 	tsteq	r0, r2
     d70:	01000001 	tsteq	r0, r1
     d74:	01000001 	tsteq	r0, r1
     d78:	00000001 	andeq	r0, r0, r1
     d7c:	00380000 	eorseq	r0, r8, r0
     d80:	00010000 	andeq	r0, r1, r0
     d84:	00005450 	andeq	r5, r0, r0, asr r4
     d88:	00005400 	andeq	r5, r0, r0, lsl #8
     d8c:	53000100 	movwpl	r0, #256	; 0x100
     d90:	00000054 	andeq	r0, r0, r4, asr r0
     d94:	0000005c 	andeq	r0, r0, ip, asr r0
     d98:	01730003 	cmneq	r3, r3
     d9c:	00005c9f 	muleq	r0, pc, ip	; <UNPREDICTABLE>
     da0:	00006400 	andeq	r6, r0, r0, lsl #8
     da4:	52000100 	andpl	r0, r0, #0
     da8:	00000064 	andeq	r0, r0, r4, rrx
     dac:	00000068 	andeq	r0, r0, r8, rrx
     db0:	02730003 	rsbseq	r0, r3, #3, 0
     db4:	0000689f 	muleq	r0, pc, r8	; <UNPREDICTABLE>
     db8:	00007400 	andeq	r7, r0, r0, lsl #8
     dbc:	52000100 	andpl	r0, r0, #0
     dc0:	00000074 	andeq	r0, r0, r4, ror r0
     dc4:	00000078 	andeq	r0, r0, r8, ror r0
     dc8:	01720003 	cmneq	r2, r3
     dcc:	0000009f 	muleq	r0, pc, r0	; <UNPREDICTABLE>
     dd0:	00000000 	andeq	r0, r0, r0
     dd4:	08000000 	stmdaeq	r0, {}	; <UNPREDICTABLE>
     dd8:	78000000 	stmdavc	r0, {}	; <UNPREDICTABLE>
     ddc:	01000000 	mrseq	r0, (UNDEF: 0)
     de0:	00005400 	andeq	r5, r0, r0, lsl #8
	...
     df0:	0000002c 	andeq	r0, r0, ip, lsr #32
     df4:	00000034 	andeq	r0, r0, r4, lsr r0
     df8:	34500001 	ldrbcc	r0, [r0], #-1
     dfc:	48000000 	stmdami	r0, {}	; <UNPREDICTABLE>
     e00:	01000000 	mrseq	r0, (UNDEF: 0)
     e04:	00485400 	subeq	r5, r8, r0, lsl #8
     e08:	00580000 	subseq	r0, r8, r0
     e0c:	00010000 	andeq	r0, r1, r0
     e10:	00000050 	andeq	r0, r0, r0, asr r0
	...
     e1c:	00000101 	andeq	r0, r0, r1, lsl #2
     e20:	00000000 	andeq	r0, r0, r0
     e24:	00000c00 	andeq	r0, r0, r0, lsl #24
     e28:	50000100 	andpl	r0, r0, r0, lsl #2
     e2c:	0000000c 	andeq	r0, r0, ip
     e30:	00000020 	andeq	r0, r0, r0, lsr #32
     e34:	20540001 	subscs	r0, r4, r1
     e38:	24000000 	strcs	r0, [r0], #-0
     e3c:	03000000 	movweq	r0, #0
     e40:	9f017400 	svcls	0x00017400
     e44:	00000024 	andeq	r0, r0, r4, lsr #32
     e48:	00000038 	andeq	r0, r0, r8, lsr r0
     e4c:	00540001 	subseq	r0, r4, r1
	...
     e60:	00038800 	andeq	r8, r3, r0, lsl #16
     e64:	00039400 	andeq	r9, r3, r0, lsl #8
     e68:	50000100 	andpl	r0, r0, r0, lsl #2
     e6c:	00000394 	muleq	r0, r4, r3
     e70:	000003d0 	ldrdeq	r0, [r0], -r0	; <UNPREDICTABLE>
     e74:	d05b0001 	subsle	r0, fp, r1
     e78:	20000003 	andcs	r0, r0, r3
     e7c:	04000009 	streq	r0, [r0], #-9
     e80:	5001f300 	andpl	pc, r1, r0, lsl #6
     e84:	0009209f 	muleq	r9, pc, r0	; <UNPREDICTABLE>
     e88:	00092800 	andeq	r2, r9, r0, lsl #16
     e8c:	5b000100 	blpl	1294 <__code_start__-0x6d6c>
     e90:	00000928 	andeq	r0, r0, r8, lsr #18
     e94:	000009b4 			; <UNDEFINED> instruction: 0x000009b4
     e98:	01f30004 	mvnseq	r0, r4
     e9c:	00009f50 	andeq	r9, r0, r0, asr pc
	...
     eac:	03880000 	orreq	r0, r8, #0, 0
     eb0:	03d00000 	bicseq	r0, r0, #0, 0
     eb4:	00010000 	andeq	r0, r1, r0
     eb8:	0003d051 	andeq	sp, r3, r1, asr r0
     ebc:	00092000 	andeq	r2, r9, r0
     ec0:	f3000400 	vshl.u8	d0, d0, d0
     ec4:	209f5101 	addscs	r5, pc, r1, lsl #2
     ec8:	28000009 	stmdacs	r0, {r0, r3}
     ecc:	01000009 	tsteq	r0, r9
     ed0:	09285100 	stmdbeq	r8!, {r8, ip, lr}
     ed4:	09b40000 	ldmibeq	r4!, {}	; <UNPREDICTABLE>
     ed8:	00040000 	andeq	r0, r4, r0
     edc:	9f5101f3 	svcls	0x005101f3
	...
     eec:	01000000 	mrseq	r0, (UNDEF: 0)
     ef0:	00010000 	andeq	r0, r1, r0
	...
     f00:	00000388 	andeq	r0, r0, r8, lsl #7
     f04:	000003d0 	ldrdeq	r0, [r0], -r0	; <UNPREDICTABLE>
     f08:	d0520001 	subsle	r0, r2, r1
     f0c:	00000003 	andeq	r0, r0, r3
     f10:	01000004 	tsteq	r0, r4
     f14:	04145600 	ldreq	r5, [r4], #-1536	; 0xfffffa00
     f18:	04240000 	strteq	r0, [r4], #-0
     f1c:	00010000 	andeq	r0, r1, r0
     f20:	00042456 	andeq	r2, r4, r6, asr r4
     f24:	00042800 	andeq	r2, r4, r0, lsl #16
     f28:	76000300 	strvc	r0, [r0], -r0, lsl #6
     f2c:	04a89f7f 	strteq	r9, [r8], #3967	; 0xf7f
     f30:	04ac0000 	strteq	r0, [ip], #0
     f34:	00010000 	andeq	r0, r1, r0
     f38:	0004e056 	andeq	lr, r4, r6, asr r0
     f3c:	00050400 	andeq	r0, r5, r0, lsl #8
     f40:	56000100 	strpl	r0, [r0], -r0, lsl #2
     f44:	0000057c 	andeq	r0, r0, ip, ror r5
     f48:	00000588 	andeq	r0, r0, r8, lsl #11
     f4c:	88530001 	ldmdahi	r3, {r0}^
     f50:	d0000005 	andle	r0, r0, r5
     f54:	03000005 	movweq	r0, #5
     f58:	7dcc9100 	stfvcp	f1, [ip]
     f5c:	00000800 	andeq	r0, r0, r0, lsl #16
     f60:	0000080f 	andeq	r0, r0, pc, lsl #16
     f64:	0f530001 	svceq	0x00530001
     f68:	88000008 	stmdahi	r0, {r3}
     f6c:	03000008 	movweq	r0, #8
     f70:	7dcc9100 	stfvcp	f1, [ip]
     f74:	00000920 	andeq	r0, r0, r0, lsr #18
     f78:	00000928 	andeq	r0, r0, r8, lsr #18
     f7c:	48520001 	ldmdami	r2, {r0}^
     f80:	64000009 	strvs	r0, [r0], #-9
     f84:	03000009 	movweq	r0, #9
     f88:	7dcc9100 	stfvcp	f1, [ip]
	...
     f9c:	00010100 	andeq	r0, r1, r0, lsl #2
     fa0:	00010100 	andeq	r0, r1, r0, lsl #2
     fa4:	02000000 	andeq	r0, r0, #0, 0
     fa8:	02000002 	andeq	r0, r0, #2, 0
     fac:	01000002 	tsteq	r0, r2
     fb0:	02000001 	andeq	r0, r0, #1, 0
     fb4:	01000002 	tsteq	r0, r2
     fb8:	00000001 	andeq	r0, r0, r1
     fbc:	00000000 	andeq	r0, r0, r0
     fc0:	03880000 	orreq	r0, r8, #0, 0
     fc4:	03ac0000 			; <UNDEFINED> instruction: 0x03ac0000
     fc8:	00010000 	andeq	r0, r1, r0
     fcc:	0003ac53 	andeq	sl, r3, r3, asr ip
     fd0:	0003c000 	andeq	ip, r3, r0
     fd4:	53000300 	movwpl	r0, #768	; 0x300
     fd8:	03d00493 	bicseq	r0, r0, #-1828716544	; 0x93000000
     fdc:	03e80000 	mvneq	r0, #0, 0
     fe0:	00030000 	andeq	r0, r3, r0
     fe4:	e8049358 	stmda	r4, {r3, r4, r6, r8, r9, ip, pc}
     fe8:	ac000003 	stcge	0, cr0, [r0], {3}
     fec:	03000004 	movweq	r0, #4
     ff0:	04935800 	ldreq	r5, [r3], #2048	; 0x800
     ff4:	000004c0 	andeq	r0, r0, r0, asr #9
     ff8:	000004c0 	andeq	r0, r0, r0, asr #9
     ffc:	93580003 	cmpls	r8, #3, 0
    1000:	0004c004 	andeq	ip, r4, r4
    1004:	0004cc00 	andeq	ip, r4, r0, lsl #24
    1008:	78000500 	stmdavc	r0, {r8, sl}
    100c:	04939f04 	ldreq	r9, [r3], #3844	; 0xf04
    1010:	000004cc 	andeq	r0, r0, ip, asr #9
    1014:	000004e0 	andeq	r0, r0, r0, ror #9
    1018:	93580003 	cmpls	r8, #3, 0
    101c:	0004e004 	andeq	lr, r4, r4
    1020:	00053800 	andeq	r3, r5, r0, lsl #16
    1024:	58000300 	stmdapl	r0, {r8, r9}
    1028:	05380493 	ldreq	r0, [r8, #-1171]!	; 0xfffffb6d
    102c:	053c0000 	ldreq	r0, [ip, #-0]!
    1030:	00050000 	andeq	r0, r5, r0
    1034:	939f7978 	orrsls	r7, pc, #120, 18	; 0x1e0000
    1038:	0005d004 	andeq	sp, r5, r4
    103c:	0005d000 	andeq	sp, r5, r0
    1040:	58000300 	stmdapl	r0, {r8, r9}
    1044:	05d00493 	ldrbeq	r0, [r0, #1171]	; 0x493
    1048:	05d40000 	ldrbeq	r0, [r4]
    104c:	00050000 	andeq	r0, r5, r0
    1050:	939f0478 	orrsls	r0, pc, #120, 8	; 0x78000000
    1054:	0005f404 	andeq	pc, r5, r4, lsl #8
    1058:	0005f400 	andeq	pc, r5, r0, lsl #8
    105c:	58000300 	stmdapl	r0, {r8, r9}
    1060:	05f40493 	ldrbeq	r0, [r4, #1171]!	; 0x493
    1064:	05fc0000 	ldrbeq	r0, [ip, #0]!
    1068:	00050000 	andeq	r0, r5, r0
    106c:	939f0478 	orrsls	r0, pc, #120, 8	; 0x78000000
    1070:	0005fc04 	andeq	pc, r5, r4, lsl #24
    1074:	0005fc00 	andeq	pc, r5, r0, lsl #24
    1078:	58000300 	stmdapl	r0, {r8, r9}
    107c:	05fc0493 	ldrbeq	r0, [ip, #1171]!	; 0x493
    1080:	06000000 	streq	r0, [r0], -r0
    1084:	00050000 	andeq	r0, r5, r0
    1088:	939f0478 	orrsls	r0, pc, #120, 8	; 0x78000000
    108c:	00060004 	andeq	r0, r6, r4
    1090:	00070000 	andeq	r0, r7, r0
    1094:	58000300 	stmdapl	r0, {r8, r9}
    1098:	07000493 			; <UNDEFINED> instruction: 0x07000493
    109c:	070c0000 	streq	r0, [ip, -r0]
    10a0:	00050000 	andeq	r0, r5, r0
    10a4:	939f0478 	orrsls	r0, pc, #120, 8	; 0x78000000
    10a8:	00070c04 	andeq	r0, r7, r4, lsl #24
    10ac:	0007f800 	andeq	pc, r7, r0, lsl #16
    10b0:	58000300 	stmdapl	r0, {r8, r9}
    10b4:	07f80493 			; <UNDEFINED> instruction: 0x07f80493
    10b8:	07fc0000 	ldrbeq	r0, [ip, r0]!
    10bc:	00050000 	andeq	r0, r5, r0
    10c0:	939f0478 	orrsls	r0, pc, #120, 8	; 0x78000000
    10c4:	0007fc04 	andeq	pc, r7, r4, lsl #24
    10c8:	00080000 	andeq	r0, r8, r0
    10cc:	58000300 	stmdapl	r0, {r8, r9}
    10d0:	08880493 	stmeq	r8, {r0, r1, r4, r7, sl}
    10d4:	09200000 	stmdbeq	r0!, {}	; <UNPREDICTABLE>
    10d8:	00030000 	andeq	r0, r3, r0
    10dc:	20049358 	andcs	r9, r4, r8, asr r3
    10e0:	28000009 	stmdacs	r0, {r0, r3}
    10e4:	01000009 	tsteq	r0, r9
    10e8:	09645300 	stmdbeq	r4!, {r8, r9, ip, lr}^
    10ec:	09b40000 	ldmibeq	r4!, {}	; <UNPREDICTABLE>
    10f0:	00030000 	andeq	r0, r3, r0
    10f4:	00049358 	andeq	r9, r4, r8, asr r3
    10f8:	00000000 	andeq	r0, r0, r0
    10fc:	01000000 	mrseq	r0, (UNDEF: 0)
	...
    1108:	00000202 	andeq	r0, r0, r2, lsl #4
    110c:	01010100 	mrseq	r0, (UNDEF: 17)
    1110:	00000000 	andeq	r0, r0, r0
    1114:	0003ac00 	andeq	sl, r3, r0, lsl #24
    1118:	0003d000 	andeq	sp, r3, r0
    111c:	5b000100 	blpl	1524 <__code_start__-0x6adc>
    1120:	000003d0 	ldrdeq	r0, [r0], -r0	; <UNPREDICTABLE>
    1124:	000003d4 	ldrdeq	r0, [r0], -r4
    1128:	d4540001 	ldrble	r0, [r4], #-1
    112c:	d8000003 	stmdale	r0, {r0, r1}
    1130:	03000003 	movweq	r0, #3
    1134:	9f7f7400 	svcls	0x007f7400
    1138:	000003d8 	ldrdeq	r0, [r0], -r8
    113c:	000003fc 	strdeq	r0, [r0], -ip
    1140:	a8540001 	ldmdage	r4, {r0}^
    1144:	ac000004 	stcge	0, cr0, [r0], {4}
    1148:	01000004 	tsteq	r0, r4
    114c:	04ac5400 	strteq	r5, [ip], #1024	; 0x400
    1150:	04b40000 	ldrteq	r0, [r4], #0
    1154:	00030000 	andeq	r0, r3, r0
    1158:	b49f0174 	ldrlt	r0, [pc], #372	; 1160 <__code_start__-0x6ea0>
    115c:	c0000004 	andgt	r0, r0, r4
    1160:	01000004 	tsteq	r0, r4
    1164:	04e45400 	strbteq	r5, [r4], #1024	; 0x400
    1168:	04f40000 	ldrbteq	r0, [r4], #0
    116c:	00010000 	andeq	r0, r1, r0
    1170:	0004f454 	andeq	pc, r4, r4, asr r4	; <UNPREDICTABLE>
    1174:	0004f800 	andeq	pc, r4, r0, lsl #16
    1178:	74000300 	strvc	r0, [r0], #-768	; 0xfffffd00
    117c:	04f89f01 	ldrbteq	r9, [r8], #3841	; 0xf01
    1180:	05040000 	streq	r0, [r4, #-0]
    1184:	00010000 	andeq	r0, r1, r0
    1188:	00092054 	andeq	r2, r9, r4, asr r0
    118c:	00092800 	andeq	r2, r9, r0, lsl #16
    1190:	5b000100 	blpl	1598 <__code_start__-0x6a68>
	...
    119c:	03ac0001 			; <UNDEFINED> instruction: 0x03ac0001
    11a0:	09b40000 	ldmibeq	r4!, {}	; <UNPREDICTABLE>
    11a4:	00010000 	andeq	r0, r1, r0
    11a8:	00000057 	andeq	r0, r0, r7, asr r0
    11ac:	00000000 	andeq	r0, r0, r0
    11b0:	00000200 	andeq	r0, r0, r0, lsl #4
    11b4:	7c000000 	stcvc	0, cr0, [r0], {-0}
    11b8:	d0000005 	andle	r0, r0, r5
    11bc:	01000005 	tsteq	r0, r5
    11c0:	08005b00 	stmdaeq	r0, {r8, r9, fp, ip, lr}
    11c4:	08880000 	stmeq	r8, {}	; <UNPREDICTABLE>
    11c8:	00010000 	andeq	r0, r1, r0
    11cc:	0009485b 	andeq	r4, r9, fp, asr r8
    11d0:	00096400 	andeq	r6, r9, r0, lsl #8
    11d4:	5b000100 	blpl	15dc <__code_start__-0x6a24>
	...
    11e0:	00000003 	andeq	r0, r0, r3
    11e4:	057c0000 	ldrbeq	r0, [ip, #-0]!
    11e8:	05d00000 	ldrbeq	r0, [r0]
    11ec:	00010000 	andeq	r0, r1, r0
    11f0:	00080059 	andeq	r0, r8, r9, asr r0
    11f4:	00088800 	andeq	r8, r8, r0, lsl #16
    11f8:	59000100 	stmdbpl	r0, {r8}
    11fc:	00000948 	andeq	r0, r0, r8, asr #18
    1200:	00000964 	andeq	r0, r0, r4, ror #18
    1204:	00590001 	subseq	r0, r9, r1
    1208:	00000000 	andeq	r0, r0, r0
    120c:	04000000 	streq	r0, [r0], #-0
    1210:	00000000 	andeq	r0, r0, r0
    1214:	ac000000 	stcge	0, cr0, [r0], {-0}
    1218:	d0000003 	andle	r0, r0, r3
    121c:	01000003 	tsteq	r0, r3
    1220:	03d05200 	bicseq	r5, r0, #0, 4
    1224:	09200000 	stmdbeq	r0!, {}	; <UNPREDICTABLE>
    1228:	00040000 	andeq	r0, r4, r0
    122c:	9f5201f3 	svcls	0x005201f3
    1230:	00000920 	andeq	r0, r0, r0, lsr #18
    1234:	00000928 	andeq	r0, r0, r8, lsr #18
    1238:	28520001 	ldmdacs	r2, {r0}^
    123c:	b4000009 	strlt	r0, [r0], #-9
    1240:	04000009 	streq	r0, [r0], #-9
    1244:	5201f300 	andpl	pc, r1, #0, 6
    1248:	0000009f 	muleq	r0, pc, r0	; <UNPREDICTABLE>
    124c:	00000000 	andeq	r0, r0, r0
    1250:	01010000 	mrseq	r0, (UNDEF: 1)
    1254:	00000000 	andeq	r0, r0, r0
    1258:	00000100 	andeq	r0, r0, r0, lsl #2
    125c:	0004e000 	andeq	lr, r4, r0
    1260:	0004e000 	andeq	lr, r4, r0
    1264:	50000100 	andpl	r0, r0, r0, lsl #2
    1268:	000004e0 	andeq	r0, r0, r0, ror #9
    126c:	000004e8 	andeq	r0, r0, r8, ror #9
    1270:	b8550001 	ldmdalt	r5, {r0}^
    1274:	d0000005 	andle	r0, r0, r5
    1278:	01000005 	tsteq	r0, r5
    127c:	05f05500 	ldrbeq	r5, [r0, #1280]!	; 0x500
    1280:	05f40000 	ldrbeq	r0, [r4, #0]!
    1284:	00010000 	andeq	r0, r1, r0
    1288:	0007f450 	andeq	pc, r7, r0, asr r4	; <UNPREDICTABLE>
    128c:	0007f800 	andeq	pc, r7, r0, lsl #16
    1290:	55000100 	strpl	r0, [r0, #-256]	; 0xffffff00
    1294:	00000850 	andeq	r0, r0, r0, asr r8
    1298:	00000888 	andeq	r0, r0, r8, lsl #17
    129c:	00550001 	subseq	r0, r5, r1
    12a0:	00000000 	andeq	r0, r0, r0
    12a4:	02000000 	andeq	r0, r0, #0, 0
    12a8:	00000000 	andeq	r0, r0, r0
    12ac:	14000000 	strne	r0, [r0], #-0
    12b0:	18000004 	stmdane	r0, {r2}
    12b4:	02000004 	andeq	r0, r0, #4, 0
    12b8:	189f3000 	ldmne	pc, {ip, sp}	; <UNPREDICTABLE>
    12bc:	1c000004 	stcne	0, cr0, [r0], {4}
    12c0:	01000004 	tsteq	r0, r4
    12c4:	04285500 	strteq	r5, [r8], #-1280	; 0xfffffb00
    12c8:	043c0000 	ldrteq	r0, [ip], #-0
    12cc:	00010000 	andeq	r0, r1, r0
    12d0:	00092855 	andeq	r2, r9, r5, asr r8
    12d4:	00093000 	andeq	r3, r9, r0
    12d8:	55000100 	strpl	r0, [r0, #-256]	; 0xffffff00
	...
    12e4:	00000001 	andeq	r0, r0, r1
	...
    12f0:	00000504 	andeq	r0, r0, r4, lsl #10
    12f4:	00000584 	andeq	r0, r0, r4, lsl #11
    12f8:	84560001 	ldrbhi	r0, [r6], #-1
    12fc:	88000005 	stmdahi	r0, {r0, r2}
    1300:	03000005 	movweq	r0, #5
    1304:	9f7e7300 	svcls	0x007e7300
    1308:	00000588 	andeq	r0, r0, r8, lsl #11
    130c:	000005d0 	ldrdeq	r0, [r0], -r0	; <UNPREDICTABLE>
    1310:	cc910007 	ldcgt	0, cr0, [r1], {7}
    1314:	1c32067d 	ldcne	6, cr0, [r2], #-500	; 0xfffffe0c
    1318:	0008009f 	muleq	r8, pc, r0	; <UNPREDICTABLE>
    131c:	00081c00 	andeq	r1, r8, r0, lsl #24
    1320:	56000100 	strpl	r0, [r0], -r0, lsl #2
    1324:	0000081c 	andeq	r0, r0, ip, lsl r8
    1328:	00000888 	andeq	r0, r0, r8, lsl #17
    132c:	cc910007 	ldcgt	0, cr0, [r1], {7}
    1330:	1c32067d 	ldcne	6, cr0, [r2], #-500	; 0xfffffe0c
    1334:	0009489f 	muleq	r9, pc, r8	; <UNPREDICTABLE>
    1338:	0009b400 	andeq	fp, r9, r0, lsl #8
    133c:	56000100 	strpl	r0, [r0], -r0, lsl #2
	...
    1348:	04020604 	streq	r0, [r2], #-1540	; 0xfffff9fc
    134c:	00000414 	andeq	r0, r0, r4, lsl r4
    1350:	00000414 	andeq	r0, r0, r4, lsl r4
    1354:	00720006 	rsbseq	r0, r2, r6
    1358:	9f1aff08 	svcls	0x001aff08
    135c:	00000428 	andeq	r0, r0, r8, lsr #8
    1360:	00000428 	andeq	r0, r0, r8, lsr #8
    1364:	00720006 	rsbseq	r0, r2, r6
    1368:	9f1aff08 	svcls	0x001aff08
	...
    1374:	00000002 	andeq	r0, r0, r2
    1378:	05fc0000 	ldrbeq	r0, [ip, #0]!
    137c:	07000000 	streq	r0, [r0, -r0]
    1380:	00030000 	andeq	r0, r3, r0
    1384:	a89f8008 	ldmge	pc, {r3, pc}	; <UNPREDICTABLE>
    1388:	bc000008 	stclt	0, cr0, [r0], {8}
    138c:	03000008 	movweq	r0, #8
    1390:	9f800800 	svcls	0x00800800
    1394:	00000910 	andeq	r0, r0, r0, lsl r9
    1398:	00000920 	andeq	r0, r0, r0, lsr #18
    139c:	80080003 	andhi	r0, r8, r3
    13a0:	0000009f 	muleq	r0, pc, r0	; <UNPREDICTABLE>
    13a4:	00000000 	andeq	r0, r0, r0
    13a8:	00000100 	andeq	r0, r0, r0, lsl #2
    13ac:	fc000000 	stc2	0, cr0, [r0], {-0}
    13b0:	00000005 	andeq	r0, r0, r5
    13b4:	02000007 	andeq	r0, r0, #7, 0
    13b8:	a89f3000 	ldmge	pc, {ip, sp}	; <UNPREDICTABLE>
    13bc:	bc000008 	stclt	0, cr0, [r0], {8}
    13c0:	02000008 	andeq	r0, r0, #8, 0
    13c4:	109f3000 	addsne	r3, pc, r0
    13c8:	20000009 	andcs	r0, r0, r9
    13cc:	02000009 	andeq	r0, r0, #9, 0
    13d0:	009f3000 	addseq	r3, pc, r0
    13d4:	00000000 	andeq	r0, r0, r0
    13d8:	01000000 	mrseq	r0, (UNDEF: 0)
    13dc:	00000000 	andeq	r0, r0, r0
    13e0:	0005fc00 	andeq	pc, r5, r0, lsl #24
    13e4:	0006e000 	andeq	lr, r6, r0
    13e8:	55000100 	strpl	r0, [r0, #-256]	; 0xffffff00
    13ec:	000008a8 	andeq	r0, r0, r8, lsr #17
    13f0:	000008bc 			; <UNDEFINED> instruction: 0x000008bc
    13f4:	10550001 	subsne	r0, r5, r1
    13f8:	20000009 	andcs	r0, r0, r9
    13fc:	01000009 	tsteq	r0, r9
    1400:	00005500 	andeq	r5, r0, r0, lsl #10
    1404:	00000000 	andeq	r0, r0, r0
    1408:	00010000 	andeq	r0, r1, r0
    140c:	00000000 	andeq	r0, r0, r0
    1410:	05fc0000 	ldrbeq	r0, [ip, #0]!
    1414:	06e00000 	strbteq	r0, [r0], r0
    1418:	00040000 	andeq	r0, r4, r0
    141c:	9f7dd091 	svcls	0x007dd091
    1420:	000006e0 	andeq	r0, r0, r0, ror #13
    1424:	00000700 	andeq	r0, r0, r0, lsl #14
    1428:	a8550001 	ldmdage	r5, {r0}^
    142c:	bc000008 	stclt	0, cr0, [r0], {8}
    1430:	04000008 	streq	r0, [r0], #-8
    1434:	7dd09100 	ldfvcp	f1, [r0]
    1438:	0009109f 	muleq	r9, pc, r0	; <UNPREDICTABLE>
    143c:	00092000 	andeq	r2, r9, r0
    1440:	91000400 	tstls	r0, r0, lsl #8
    1444:	009f7dd0 			; <UNDEFINED> instruction: 0x009f7dd0
    1448:	00000000 	andeq	r0, r0, r0
    144c:	01000000 	mrseq	r0, (UNDEF: 0)
    1450:	00000000 	andeq	r0, r0, r0
    1454:	0005fc00 	andeq	pc, r5, r0, lsl #24
    1458:	00070000 	andeq	r0, r7, r0
    145c:	38000200 	stmdacc	r0, {r9}
    1460:	0008a89f 	muleq	r8, pc, r8	; <UNPREDICTABLE>
    1464:	0008bc00 	andeq	fp, r8, r0, lsl #24
    1468:	38000200 	stmdacc	r0, {r9}
    146c:	0009109f 	muleq	r9, pc, r0	; <UNPREDICTABLE>
    1470:	00092000 	andeq	r2, r9, r0
    1474:	38000200 	stmdacc	r0, {r9}
    1478:	0000009f 	muleq	r0, pc, r0	; <UNPREDICTABLE>
    147c:	00000000 	andeq	r0, r0, r0
    1480:	07070400 	streq	r0, [r7, -r0, lsl #8]
	...
    148c:	fc000000 	stc2	0, cr0, [r0], {-0}
    1490:	fc000005 	stc2	0, cr0, [r0], {5}
    1494:	04000005 	streq	r0, [r0], #-5
    1498:	7ed09100 	atnvcs	f1, f0
    149c:	0005fc9f 	muleq	r5, pc, ip	; <UNPREDICTABLE>
    14a0:	00067800 	andeq	r7, r6, r0, lsl #16
    14a4:	91000400 	tstls	r0, r0, lsl #8
    14a8:	789f7ed1 	ldmvc	pc, {r0, r4, r6, r7, r9, sl, fp, ip, sp, lr}	; <UNPREDICTABLE>
    14ac:	d4000006 	strle	r0, [r0], #-6
    14b0:	01000006 	tsteq	r0, r6
    14b4:	06d45c00 	ldrbeq	r5, [r4], r0, lsl #24
    14b8:	07000000 	streq	r0, [r0, -r0]
    14bc:	00040000 	andeq	r0, r4, r0
    14c0:	9f7ed191 	svcls	0x007ed191
    14c4:	000008a8 	andeq	r0, r0, r8, lsr #17
    14c8:	000008bc 			; <UNDEFINED> instruction: 0x000008bc
    14cc:	d1910004 	orrsle	r0, r1, r4
    14d0:	09109f7e 	ldmdbeq	r0, {r1, r2, r3, r4, r5, r6, r8, r9, sl, fp, ip, pc}
    14d4:	09140000 	ldmdbeq	r4, {}	; <UNPREDICTABLE>
    14d8:	00040000 	andeq	r0, r4, r0
    14dc:	9f7ed191 	svcls	0x007ed191
    14e0:	00000914 	andeq	r0, r0, r4, lsl r9
    14e4:	00000920 	andeq	r0, r0, r0, lsr #18
    14e8:	005c0001 	subseq	r0, ip, r1
    14ec:	00000000 	andeq	r0, r0, r0
    14f0:	04000000 	streq	r0, [r0], #-0
    14f4:	00010001 	andeq	r0, r1, r1
    14f8:	00060800 	andeq	r0, r6, r0, lsl #16
    14fc:	0006d000 	andeq	sp, r6, r0
    1500:	55000100 	strpl	r0, [r0, #-256]	; 0xffffff00
    1504:	000008a8 	andeq	r0, r0, r8, lsr #17
    1508:	000008b8 			; <UNDEFINED> instruction: 0x000008b8
    150c:	10550001 	subsne	r0, r5, r1
    1510:	20000009 	andcs	r0, r0, r9
    1514:	01000009 	tsteq	r0, r9
    1518:	00005500 	andeq	r5, r0, r0, lsl #10
    151c:	00000000 	andeq	r0, r0, r0
    1520:	00040000 	andeq	r0, r4, r0
    1524:	01000000 	mrseq	r0, (UNDEF: 0)
    1528:	01000000 	mrseq	r0, (UNDEF: 0)
    152c:	06080000 	streq	r0, [r8], -r0
    1530:	06b00000 	ldrteq	r0, [r0], r0
    1534:	00040000 	andeq	r0, r4, r0
    1538:	9f7ed091 	svcls	0x007ed091
    153c:	000006b0 			; <UNDEFINED> instruction: 0x000006b0
    1540:	000006c8 	andeq	r0, r0, r8, asr #13
    1544:	c8500001 	ldmdagt	r0, {r0}^
    1548:	d0000006 	andle	r0, r0, r6
    154c:	04000006 	streq	r0, [r0], #-6
    1550:	7ed09100 	atnvcs	f1, f0
    1554:	0008a89f 	muleq	r8, pc, r8	; <UNPREDICTABLE>
    1558:	0008b000 	andeq	fp, r8, r0
    155c:	91000400 	tstls	r0, r0, lsl #8
    1560:	b09f7ed0 			; <UNDEFINED> instruction: 0xb09f7ed0
    1564:	b8000008 	stmdalt	r0, {r3}
    1568:	01000008 	tsteq	r0, r8
    156c:	09105300 	ldmdbeq	r0, {r8, r9, ip, lr}
    1570:	09200000 	stmdbeq	r0!, {}	; <UNPREDICTABLE>
    1574:	00040000 	andeq	r0, r4, r0
    1578:	9f7ed091 	svcls	0x007ed091
	...
    1584:	01000004 	tsteq	r0, r4
    1588:	03010101 	movweq	r0, #4353	; 0x1101
    158c:	01000203 	tsteq	r0, r3, lsl #4
    1590:	00000000 	andeq	r0, r0, r0
    1594:	00000608 	andeq	r0, r0, r8, lsl #12
    1598:	00000624 	andeq	r0, r0, r4, lsr #12
    159c:	d1910004 	orrsle	r0, r1, r4
    15a0:	06849f7e 			; <UNDEFINED> instruction: 0x06849f7e
    15a4:	06840000 	streq	r0, [r4], r0
    15a8:	00010000 	andeq	r0, r1, r0
    15ac:	00068450 	andeq	r8, r6, r0, asr r4
    15b0:	00069800 	andeq	r9, r6, r0, lsl #16
    15b4:	70000300 	andvc	r0, r0, r0, lsl #6
    15b8:	06989f01 	ldreq	r9, [r8], r1, lsl #30
    15bc:	06a40000 	strteq	r0, [r4], r0
    15c0:	00030000 	andeq	r0, r3, r0
    15c4:	a49f0270 	ldrge	r0, [pc], #624	; 15cc <__code_start__-0x6a34>
    15c8:	a8000006 	stmdage	r0, {r1, r2}
    15cc:	03000006 	movweq	r0, #6
    15d0:	9f037000 	svcls	0x00037000
    15d4:	000008a8 	andeq	r0, r0, r8, lsr #17
    15d8:	000008b8 			; <UNDEFINED> instruction: 0x000008b8
    15dc:	d1910004 	orrsle	r0, r1, r4
    15e0:	09109f7e 	ldmdbeq	r0, {r1, r2, r3, r4, r5, r6, r8, r9, sl, fp, ip, pc}
    15e4:	09140000 	ldmdbeq	r4, {}	; <UNPREDICTABLE>
    15e8:	00040000 	andeq	r0, r4, r0
    15ec:	9f7ed191 	svcls	0x007ed191
    15f0:	00000914 	andeq	r0, r0, r4, lsl r9
    15f4:	00000920 	andeq	r0, r0, r0, lsr #18
    15f8:	005c0001 	subseq	r0, ip, r1
    15fc:	00000000 	andeq	r0, r0, r0
    1600:	06000000 	streq	r0, [r0], -r0
    1604:	01010000 	mrseq	r0, (UNDEF: 1)
    1608:	01010101 	tsteq	r1, r1, lsl #2
    160c:	00010002 	andeq	r0, r1, r2
    1610:	00060800 	andeq	r0, r6, r0, lsl #16
    1614:	00062400 	andeq	r2, r6, r0, lsl #8
    1618:	31000200 	mrscc	r0, R8_usr
    161c:	0006849f 	muleq	r6, pc, r4	; <UNPREDICTABLE>
    1620:	00069400 	andeq	r9, r6, r0, lsl #8
    1624:	52000100 	andpl	r0, r0, #0
    1628:	00000694 	muleq	r0, r4, r6
    162c:	000006a4 	andeq	r0, r0, r4, lsr #13
    1630:	a4590001 	ldrbge	r0, [r9], #-1
    1634:	a8000006 	stmdage	r0, {r1, r2}
    1638:	01000006 	tsteq	r0, r6
    163c:	06a85200 	strteq	r5, [r8], r0, lsl #4
    1640:	06a80000 	strteq	r0, [r8], r0
    1644:	00030000 	andeq	r0, r3, r0
    1648:	a89f0172 	ldmge	pc, {r1, r4, r5, r6, r8}	; <UNPREDICTABLE>
    164c:	b8000008 	stmdalt	r0, {r3}
    1650:	02000008 	andeq	r0, r0, #8, 0
    1654:	109f3100 	addsne	r3, pc, r0, lsl #2
    1658:	20000009 	andcs	r0, r0, r9
    165c:	02000009 	andeq	r0, r0, #9, 0
    1660:	009f3100 	addseq	r3, pc, r0, lsl #2
    1664:	00000000 	andeq	r0, r0, r0
    1668:	01000000 	mrseq	r0, (UNDEF: 0)
    166c:	01000606 	tsteq	r0, r6, lsl #12
    1670:	0006d000 	andeq	sp, r6, r0
    1674:	0006d000 	andeq	sp, r6, r0
    1678:	91000400 	tstls	r0, r0, lsl #8
    167c:	d09f7ed0 			; <UNDEFINED> instruction: 0xd09f7ed0
    1680:	00000006 	andeq	r0, r0, r6
    1684:	01000007 	tsteq	r0, r7
    1688:	08b85000 	ldmeq	r8!, {ip, lr}
    168c:	08bc0000 	ldmeq	ip!, {}	; <UNPREDICTABLE>
    1690:	00010000 	andeq	r0, r1, r0
    1694:	00000053 	andeq	r0, r0, r3, asr r0
    1698:	00000000 	andeq	r0, r0, r0
    169c:	00080100 	andeq	r0, r8, r0, lsl #2
    16a0:	01010000 	mrseq	r0, (UNDEF: 1)
    16a4:	d0070100 	andle	r0, r7, r0, lsl #2
    16a8:	d0000006 	andle	r0, r0, r6
    16ac:	06000006 	streq	r0, [r0], -r6
    16b0:	71007c00 	tstvc	r0, r0, lsl #24
    16b4:	e49f2200 	ldr	r2, [pc], #512	; 16bc <__code_start__-0x6944>
    16b8:	e8000006 	stmda	r0, {r1, r2}
    16bc:	03000006 	movweq	r0, #6
    16c0:	9f7f7300 	svcls	0x007f7300
    16c4:	000006e8 	andeq	r0, r0, r8, ror #13
    16c8:	000006f0 	strdeq	r0, [r0], -r0	; <UNPREDICTABLE>
    16cc:	f0530001 			; <UNDEFINED> instruction: 0xf0530001
    16d0:	f8000006 			; <UNDEFINED> instruction: 0xf8000006
    16d4:	03000006 	movweq	r0, #6
    16d8:	9f7f7300 	svcls	0x007f7300
    16dc:	000008b8 			; <UNDEFINED> instruction: 0x000008b8
    16e0:	000008b8 			; <UNDEFINED> instruction: 0x000008b8
    16e4:	d1910004 	orrsle	r0, r1, r4
    16e8:	00009f7e 	andeq	r9, r0, lr, ror pc
    16ec:	00000000 	andeq	r0, r0, r0
    16f0:	00010000 	andeq	r0, r1, r0
    16f4:	06d00001 	ldrbeq	r0, [r0], r1
    16f8:	07000000 	streq	r0, [r0, -r0]
    16fc:	00030000 	andeq	r0, r3, r0
    1700:	b89f8008 	ldmlt	pc, {r3, pc}	; <UNPREDICTABLE>
    1704:	bc000008 	stclt	0, cr0, [r0], {8}
    1708:	03000008 	movweq	r0, #8
    170c:	9f800800 	svcls	0x00800800
	...
    1718:	00000001 	andeq	r0, r0, r1
    171c:	00010100 	andeq	r0, r1, r0, lsl #2
    1720:	01020000 	mrseq	r0, (UNDEF: 2)
    1724:	06d00001 	ldrbeq	r0, [r0], r1
    1728:	06e00000 	strbteq	r0, [r0], r0
    172c:	00040000 	andeq	r0, r4, r0
    1730:	9f7dd091 	svcls	0x007dd091
    1734:	000006e0 	andeq	r0, r0, r0, ror #13
    1738:	000006e4 	andeq	r0, r0, r4, ror #13
    173c:	e4550001 	ldrb	r0, [r5], #-1
    1740:	e4000006 	str	r0, [r0], #-6
    1744:	03000006 	movweq	r0, #6
    1748:	9f017200 	svcls	0x00017200
    174c:	000006e4 	andeq	r0, r0, r4, ror #13
    1750:	000006f0 	strdeq	r0, [r0], -r0	; <UNPREDICTABLE>
    1754:	02720003 	rsbseq	r0, r2, #3, 0
    1758:	0006f09f 	muleq	r6, pc, r0	; <UNPREDICTABLE>
    175c:	00070000 	andeq	r0, r7, r0
    1760:	72000300 	andvc	r0, r0, #0, 6
    1764:	07ec9f01 	strbeq	r9, [ip, r1, lsl #30]!
    1768:	07f40000 	ldrbeq	r0, [r4, r0]!
    176c:	00030000 	andeq	r0, r3, r0
    1770:	b89f0173 	ldmlt	pc, {r0, r1, r4, r5, r6, r8}	; <UNPREDICTABLE>
    1774:	bc000008 	stclt	0, cr0, [r0], {8}
    1778:	04000008 	streq	r0, [r0], #-8
    177c:	7dd09100 	ldfvcp	f1, [r0]
    1780:	0000009f 	muleq	r0, pc, r0	; <UNPREDICTABLE>
    1784:	00000000 	andeq	r0, r0, r0
    1788:	b8000400 	stmdalt	r0, {sl}
    178c:	bc000008 	stclt	0, cr0, [r0], {8}
    1790:	02000008 	andeq	r0, r0, #8, 0
    1794:	009f3200 	addseq	r3, pc, r0, lsl #4
    1798:	00000000 	andeq	r0, r0, r0
    179c:	07000000 	streq	r0, [r0, -r0]
    17a0:	06000000 	streq	r0, [r0], -r0
    17a4:	0006d000 	andeq	sp, r6, r0
    17a8:	0006e000 	andeq	lr, r6, r0
    17ac:	91000400 	tstls	r0, r0, lsl #8
    17b0:	e09f7dd0 			; <UNDEFINED> instruction: 0xe09f7dd0
    17b4:	00000006 	andeq	r0, r0, r6
    17b8:	01000007 	tsteq	r0, r7
    17bc:	08b85500 	ldmeq	r8!, {r8, sl, ip, lr}
    17c0:	08bc0000 	ldmeq	ip!, {}	; <UNPREDICTABLE>
    17c4:	00040000 	andeq	r0, r4, r0
    17c8:	9f7dd091 	svcls	0x007dd091
	...
    17d4:	00000001 	andeq	r0, r0, r1
    17d8:	0000070c 	andeq	r0, r0, ip, lsl #14
    17dc:	000007ec 	andeq	r0, r0, ip, ror #15
    17e0:	80080003 	andhi	r0, r8, r3
    17e4:	0008949f 	muleq	r8, pc, r4	; <UNPREDICTABLE>
    17e8:	0008a800 	andeq	sl, r8, r0, lsl #16
    17ec:	08000300 	stmdaeq	r0, {r8, r9}
    17f0:	00009f80 	andeq	r9, r0, r0, lsl #31
	...
    17fc:	070c0000 	streq	r0, [ip, -r0]
    1800:	07ec0000 	strbeq	r0, [ip, r0]!
    1804:	00020000 	andeq	r0, r2, r0
    1808:	08949f30 	ldmeq	r4, {r4, r5, r8, r9, sl, fp, ip, pc}
    180c:	08a80000 	stmiaeq	r8!, {}	; <UNPREDICTABLE>
    1810:	00020000 	andeq	r0, r2, r0
    1814:	00009f30 	andeq	r9, r0, r0, lsr pc
	...
    1820:	070c0000 	streq	r0, [ip, -r0]
    1824:	07d00000 	ldrbeq	r0, [r0, r0]
    1828:	00010000 	andeq	r0, r1, r0
    182c:	00089455 	andeq	r9, r8, r5, asr r4
    1830:	0008a800 	andeq	sl, r8, r0, lsl #16
    1834:	55000100 	strpl	r0, [r0, #-256]	; 0xffffff00
	...
    1844:	070c0000 	streq	r0, [ip, -r0]
    1848:	07d00000 	ldrbeq	r0, [r0, r0]
    184c:	00040000 	andeq	r0, r4, r0
    1850:	9f7dd091 	svcls	0x007dd091
    1854:	000007d0 	ldrdeq	r0, [r0], -r0	; <UNPREDICTABLE>
    1858:	000007ec 	andeq	r0, r0, ip, ror #15
    185c:	94550001 	ldrbls	r0, [r5], #-1
    1860:	a8000008 	stmdage	r0, {r3}
    1864:	04000008 	streq	r0, [r0], #-8
    1868:	7dd09100 	ldfvcp	f1, [r0]
    186c:	0000009f 	muleq	r0, pc, r0	; <UNPREDICTABLE>
	...
    1878:	00070c00 	andeq	r0, r7, r0, lsl #24
    187c:	0007ec00 	andeq	lr, r7, r0, lsl #24
    1880:	32000200 	andcc	r0, r0, #0, 4
    1884:	0008949f 	muleq	r8, pc, r4	; <UNPREDICTABLE>
    1888:	0008a800 	andeq	sl, r8, r0, lsl #16
    188c:	32000200 	andcc	r0, r0, #0, 4
    1890:	0000009f 	muleq	r0, pc, r0	; <UNPREDICTABLE>
    1894:	00000000 	andeq	r0, r0, r0
    1898:	05050300 	streq	r0, [r5, #-768]	; 0xfffffd00
    189c:	00000000 	andeq	r0, r0, r0
    18a0:	0c000000 	stceq	0, cr0, [r0], {-0}
    18a4:	0c000007 	stceq	0, cr0, [r0], {7}
    18a8:	01000007 	tsteq	r0, r7
    18ac:	070c5100 	streq	r5, [ip, -r0, lsl #2]
    18b0:	071c0000 	ldreq	r0, [ip, -r0]
    18b4:	00010000 	andeq	r0, r1, r0
    18b8:	00071c53 	andeq	r1, r7, r3, asr ip
    18bc:	00072400 	andeq	r2, r7, r0, lsl #8
    18c0:	72000300 	andvc	r0, r0, #0, 6
    18c4:	07249f01 	streq	r9, [r4, -r1, lsl #30]!
    18c8:	07cc0000 	strbeq	r0, [ip, r0]
    18cc:	00010000 	andeq	r0, r1, r0
    18d0:	00089453 	andeq	r9, r8, r3, asr r4
    18d4:	0008a800 	andeq	sl, r8, r0, lsl #16
    18d8:	53000100 	movwpl	r0, #256	; 0x100
	...
    18e4:	00010005 	andeq	r0, r1, r5
    18e8:	0000070c 	andeq	r0, r0, ip, lsl #14
    18ec:	00000720 	andeq	r0, r0, r0, lsr #14
    18f0:	24500001 	ldrbcs	r0, [r0], #-1
    18f4:	2c000007 	stccs	0, cr0, [r0], {7}
    18f8:	01000007 	tsteq	r0, r7
    18fc:	00005000 	andeq	r5, r0, r0
    1900:	00000000 	andeq	r0, r0, r0
    1904:	01030000 	mrseq	r0, (UNDEF: 3)
    1908:	07280100 	streq	r0, [r8, -r0, lsl #2]!
    190c:	07b00000 	ldreq	r0, [r0, r0]!
    1910:	00010000 	andeq	r0, r1, r0
    1914:	00089455 	andeq	r9, r8, r5, asr r4
    1918:	0008a000 	andeq	sl, r8, r0
    191c:	55000100 	strpl	r0, [r0, #-256]	; 0xffffff00
	...
    1928:	01000103 	tsteq	r0, r3, lsl #2
    192c:	00000728 	andeq	r0, r0, r8, lsr #14
    1930:	000007b0 			; <UNDEFINED> instruction: 0x000007b0
    1934:	94510001 	ldrbls	r0, [r1], #-1
    1938:	a0000008 	andge	r0, r0, r8
    193c:	01000008 	tsteq	r0, r8
    1940:	00005100 	andeq	r5, r0, r0, lsl #2
    1944:	00000000 	andeq	r0, r0, r0
    1948:	00030000 	andeq	r0, r3, r0
    194c:	01010100 	mrseq	r0, (UNDEF: 17)
    1950:	02030301 	andeq	r0, r3, #67108864	; 0x4000000
    1954:	07280100 	streq	r0, [r8, -r0, lsl #2]!
    1958:	07500000 	ldrbeq	r0, [r0, -r0]
    195c:	00010000 	andeq	r0, r1, r0
    1960:	00077453 	andeq	r7, r7, r3, asr r4
    1964:	00077400 	andeq	r7, r7, r0, lsl #8
    1968:	5e000100 	adfpls	f0, f0, f0
    196c:	00000774 	andeq	r0, r0, r4, ror r7
    1970:	00000788 	andeq	r0, r0, r8, lsl #15
    1974:	017e0003 	cmneq	lr, r3
    1978:	0007889f 	muleq	r7, pc, r8	; <UNPREDICTABLE>
    197c:	00079400 	andeq	r9, r7, r0, lsl #8
    1980:	7e000300 	cdpvc	3, 0, cr0, cr0, cr0, {0}
    1984:	07949f02 	ldreq	r9, [r4, r2, lsl #30]
    1988:	07980000 	ldreq	r0, [r8, r0]
    198c:	00030000 	andeq	r0, r3, r0
    1990:	949f037e 	ldrls	r0, [pc], #894	; 1998 <__code_start__-0x6668>
    1994:	a0000008 	andge	r0, r0, r8
    1998:	01000008 	tsteq	r0, r8
    199c:	00005300 	andeq	r5, r0, r0, lsl #6
	...
    19a8:	01010100 	mrseq	r0, (UNDEF: 17)
    19ac:	02010101 	andeq	r0, r1, #1073741824	; 0x40000000
    19b0:	072c0100 	streq	r0, [ip, -r0, lsl #2]!
    19b4:	07500000 	ldrbeq	r0, [r0, -r0]
    19b8:	00010000 	andeq	r0, r1, r0
    19bc:	00077450 	andeq	r7, r7, r0, asr r4
    19c0:	00078400 	andeq	r8, r7, r0, lsl #8
    19c4:	50000100 	andpl	r0, r0, r0, lsl #2
    19c8:	00000784 	andeq	r0, r0, r4, lsl #15
    19cc:	00000794 	muleq	r0, r4, r7
    19d0:	945b0001 	ldrbls	r0, [fp], #-1
    19d4:	98000007 	stmdals	r0, {r0, r1, r2}
    19d8:	01000007 	tsteq	r0, r7
    19dc:	07985000 	ldreq	r5, [r8, r0]
    19e0:	07980000 	ldreq	r0, [r8, r0]
    19e4:	00030000 	andeq	r0, r3, r0
    19e8:	949f0170 	ldrls	r0, [pc], #368	; 19f0 <__code_start__-0x6610>
    19ec:	a0000008 	andge	r0, r0, r8
    19f0:	01000008 	tsteq	r0, r8
    19f4:	00005000 	andeq	r5, r0, r0
    19f8:	00000000 	andeq	r0, r0, r0
    19fc:	00010000 	andeq	r0, r1, r0
    1a00:	07b00001 	ldreq	r0, [r0, r1]!
    1a04:	07ec0000 	strbeq	r0, [ip, r0]!
    1a08:	00010000 	andeq	r0, r1, r0
    1a0c:	0008a051 	andeq	sl, r8, r1, asr r0
    1a10:	0008a800 	andeq	sl, r8, r0, lsl #16
    1a14:	51000100 	mrspl	r0, (UNDEF: 16)
	...
    1a20:	00000001 	andeq	r0, r0, r1
    1a24:	00010100 	andeq	r0, r1, r0, lsl #2
    1a28:	07b00001 	ldreq	r0, [r0, r1]!
    1a2c:	07b40000 	ldreq	r0, [r4, r0]!
    1a30:	00060000 	andeq	r0, r6, r0
    1a34:	007c0073 	rsbseq	r0, ip, r3, ror r0
    1a38:	07d49f22 	ldrbeq	r9, [r4, r2, lsr #30]
    1a3c:	07d80000 	ldrbeq	r0, [r8, r0]
    1a40:	00030000 	andeq	r0, r3, r0
    1a44:	d89f7f73 	ldmle	pc, {r0, r1, r4, r5, r6, r8, r9, sl, fp, ip, sp, lr}	; <UNPREDICTABLE>
    1a48:	e0000007 	and	r0, r0, r7
    1a4c:	01000007 	tsteq	r0, r7
    1a50:	07e05300 	strbeq	r5, [r0, r0, lsl #6]!
    1a54:	07e80000 	strbeq	r0, [r8, r0]!
    1a58:	00030000 	andeq	r0, r3, r0
    1a5c:	a09f7f73 	addsge	r7, pc, r3, ror pc	; <UNPREDICTABLE>
    1a60:	a8000008 	stmdage	r0, {r3}
    1a64:	01000008 	tsteq	r0, r8
    1a68:	00005300 	andeq	r5, r0, r0, lsl #6
    1a6c:	00000000 	andeq	r0, r0, r0
    1a70:	00010000 	andeq	r0, r1, r0
    1a74:	07b00001 	ldreq	r0, [r0, r1]!
    1a78:	07ec0000 	strbeq	r0, [ip, r0]!
    1a7c:	00030000 	andeq	r0, r3, r0
    1a80:	a09f8008 	addsge	r8, pc, r8
    1a84:	a8000008 	stmdage	r0, {r3}
    1a88:	03000008 	movweq	r0, #8
    1a8c:	9f800800 	svcls	0x00800800
	...
    1a98:	00000001 	andeq	r0, r0, r1
    1a9c:	00010100 	andeq	r0, r1, r0, lsl #2
    1aa0:	00010000 	andeq	r0, r1, r0
    1aa4:	000007b0 			; <UNDEFINED> instruction: 0x000007b0
    1aa8:	000007d0 	ldrdeq	r0, [r0], -r0	; <UNPREDICTABLE>
    1aac:	d0910004 	addsle	r0, r1, r4
    1ab0:	07d09f7d 			; <UNDEFINED> instruction: 0x07d09f7d
    1ab4:	07d40000 	ldrbeq	r0, [r4, r0]
    1ab8:	00010000 	andeq	r0, r1, r0
    1abc:	0007d455 	andeq	sp, r7, r5, asr r4
    1ac0:	0007d400 	andeq	sp, r7, r0, lsl #8
    1ac4:	7c000300 	stcvc	3, cr0, [r0], {-0}
    1ac8:	07d49f01 	ldrbeq	r9, [r4, r1, lsl #30]
    1acc:	07e00000 	strbeq	r0, [r0, r0]!
    1ad0:	00030000 	andeq	r0, r3, r0
    1ad4:	e09f027c 	adds	r0, pc, ip, ror r2	; <UNPREDICTABLE>
    1ad8:	ec000007 	stc	0, cr0, [r0], {7}
    1adc:	03000007 	movweq	r0, #7
    1ae0:	9f017c00 	svcls	0x00017c00
    1ae4:	000008a0 	andeq	r0, r0, r0, lsr #17
    1ae8:	000008a8 	andeq	r0, r0, r8, lsr #17
    1aec:	d0910004 	addsle	r0, r1, r4
    1af0:	00009f7d 	andeq	r9, r0, sp, ror pc
    1af4:	00000000 	andeq	r0, r0, r0
    1af8:	00040000 	andeq	r0, r4, r0
    1afc:	07b00004 	ldreq	r0, [r0, r4]!
    1b00:	07b40000 	ldreq	r0, [r4, r0]!
    1b04:	00030000 	andeq	r0, r3, r0
    1b08:	a09f0170 	addsge	r0, pc, r0, ror r1	; <UNPREDICTABLE>
    1b0c:	a8000008 	stmdage	r0, {r3}
    1b10:	03000008 	movweq	r0, #8
    1b14:	9f017000 	svcls	0x00017000
	...
    1b20:	00000001 	andeq	r0, r0, r1
    1b24:	000007bc 			; <UNDEFINED> instruction: 0x000007bc
    1b28:	000007d0 	ldrdeq	r0, [r0], -r0	; <UNPREDICTABLE>
    1b2c:	d0910004 	addsle	r0, r1, r4
    1b30:	07d09f7d 			; <UNDEFINED> instruction: 0x07d09f7d
    1b34:	07ec0000 	strbeq	r0, [ip, r0]!
    1b38:	00010000 	andeq	r0, r1, r0
    1b3c:	00000055 	andeq	r0, r0, r5, asr r0
	...
    1b48:	00032800 	andeq	r2, r3, r0, lsl #16
    1b4c:	00036400 	andeq	r6, r3, r0, lsl #8
    1b50:	50000100 	andpl	r0, r0, r0, lsl #2
    1b54:	00000364 	andeq	r0, r0, r4, ror #6
    1b58:	00000388 	andeq	r0, r0, r8, lsl #7
    1b5c:	01f30004 	mvnseq	r0, r4
    1b60:	00009f50 	andeq	r9, r0, r0, asr pc
	...
    1b6c:	03280000 			; <UNDEFINED> instruction: 0x03280000
    1b70:	035c0000 	cmpeq	ip, #0, 0
    1b74:	00010000 	andeq	r0, r1, r0
    1b78:	00035c51 	andeq	r5, r3, r1, asr ip
    1b7c:	00038800 	andeq	r8, r3, r0, lsl #16
    1b80:	f3000400 	vshl.u8	d0, d0, d0
    1b84:	009f5101 	addseq	r5, pc, r1, lsl #2
	...
    1ba8:	14000000 	strne	r0, [r0], #-0
    1bac:	01000000 	mrseq	r0, (UNDEF: 0)
    1bb0:	00145000 	andseq	r5, r4, r0
    1bb4:	00200000 	eoreq	r0, r0, r0
    1bb8:	00010000 	andeq	r0, r1, r0
    1bbc:	0000205c 	andeq	r2, r0, ip, asr r0
    1bc0:	00006800 	andeq	r6, r0, r0, lsl #16
    1bc4:	71000300 	mrsvc	r0, LR_irq
    1bc8:	00689f02 	rsbeq	r9, r8, r2, lsl #30
    1bcc:	006c0000 	rsbeq	r0, ip, r0
    1bd0:	00030000 	andeq	r0, r3, r0
    1bd4:	6c9f0273 	lfmvs	f0, 4, [pc], {115}	; 0x73
    1bd8:	94000000 	strls	r0, [r0], #-0
    1bdc:	04000001 	streq	r0, [r0], #-1
    1be0:	5001f300 	andpl	pc, r1, r0, lsl #6
    1be4:	0001949f 	muleq	r1, pc, r4	; <UNPREDICTABLE>
    1be8:	00019800 	andeq	r9, r1, r0, lsl #16
    1bec:	73000300 	movwvc	r0, #768	; 0x300
    1bf0:	01989f02 	orrseq	r9, r8, r2, lsl #30
    1bf4:	01c00000 	biceq	r0, r0, r0
    1bf8:	00040000 	andeq	r0, r4, r0
    1bfc:	9f5001f3 	svcls	0x005001f3
    1c00:	000001c0 	andeq	r0, r0, r0, asr #3
    1c04:	000001c8 	andeq	r0, r0, r8, asr #3
    1c08:	c85c0001 	ldmdagt	ip, {r0}^
    1c0c:	14000001 	strne	r0, [r0], #-1
    1c10:	03000002 	movweq	r0, #2
    1c14:	9f027300 	svcls	0x00027300
    1c18:	00000214 	andeq	r0, r0, r4, lsl r2
    1c1c:	000002ec 	andeq	r0, r0, ip, ror #5
    1c20:	01f30004 	mvnseq	r0, r4
    1c24:	02ec9f50 	rsceq	r9, ip, #80, 30	; 0x140
    1c28:	02f40000 	rscseq	r0, r4, #0, 0
    1c2c:	00030000 	andeq	r0, r3, r0
    1c30:	f49f0273 			; <UNDEFINED> instruction: 0xf49f0273
    1c34:	28000002 	stmdacs	r0, {r1}
    1c38:	04000003 	streq	r0, [r0], #-3
    1c3c:	5001f300 	andpl	pc, r1, r0, lsl #6
    1c40:	0000009f 	muleq	r0, pc, r0	; <UNPREDICTABLE>
	...
    1c54:	00001c00 	andeq	r1, r0, r0, lsl #24
    1c58:	51000100 	mrspl	r0, (UNDEF: 16)
    1c5c:	0000001c 	andeq	r0, r0, ip, lsl r0
    1c60:	000002e0 	andeq	r0, r0, r0, ror #5
    1c64:	e0500001 	subs	r0, r0, r1
    1c68:	ec000002 	stc	0, cr0, [r0], {2}
    1c6c:	04000002 	streq	r0, [r0], #-2
    1c70:	5101f300 	mrspl	pc, SP_irq	; <UNPREDICTABLE>
    1c74:	0002ec9f 	muleq	r2, pc, ip	; <UNPREDICTABLE>
    1c78:	00032800 	andeq	r2, r3, r0, lsl #16
    1c7c:	50000100 	andpl	r0, r0, r0, lsl #2
	...
    1c8c:	00000100 	andeq	r0, r0, r0, lsl #2
    1c90:	00000000 	andeq	r0, r0, r0
    1c94:	00020200 	andeq	r0, r2, r0, lsl #4
	...
    1cac:	00000070 	andeq	r0, r0, r0, ror r0
    1cb0:	70520001 	subsvc	r0, r2, r1
    1cb4:	78000000 	stmdavc	r0, {}	; <UNPREDICTABLE>
    1cb8:	01000000 	mrseq	r0, (UNDEF: 0)
    1cbc:	00785c00 	rsbseq	r5, r8, r0, lsl #24
    1cc0:	00a40000 	adceq	r0, r4, r0
    1cc4:	00040000 	andeq	r0, r4, r0
    1cc8:	9f5201f3 	svcls	0x005201f3
    1ccc:	00000194 	muleq	r0, r4, r1
    1cd0:	0000019c 	muleq	r0, ip, r1
    1cd4:	9c520001 	mrrcls	0, 0, r0, r2, cr1
    1cd8:	a4000001 	strge	r0, [r0], #-1
    1cdc:	01000001 	tsteq	r0, r1
    1ce0:	01a45c00 			; <UNDEFINED> instruction: 0x01a45c00
    1ce4:	01c00000 	biceq	r0, r0, r0
    1ce8:	00040000 	andeq	r0, r4, r0
    1cec:	9f5201f3 	svcls	0x005201f3
    1cf0:	000001c0 	andeq	r0, r0, r0, asr #3
    1cf4:	00000220 	andeq	r0, r0, r0, lsr #4
    1cf8:	20520001 	subscs	r0, r2, r1
    1cfc:	28000002 	stmdacs	r0, {r1}
    1d00:	04000002 	streq	r0, [r0], #-2
    1d04:	1f007200 	svcne	0x00007200
    1d08:	0002289f 	muleq	r2, pc, r8	; <UNPREDICTABLE>
    1d0c:	00027400 	andeq	r7, r2, r0, lsl #8
    1d10:	f3000500 	vrshl.u8	d0, d0, d0
    1d14:	9f1f5201 	svcls	0x001f5201
    1d18:	00000274 	andeq	r0, r0, r4, ror r2
    1d1c:	00000288 	andeq	r0, r0, r8, lsl #5
    1d20:	88520001 	ldmdahi	r2, {r0}^
    1d24:	a0000002 	andge	r0, r0, r2
    1d28:	01000002 	tsteq	r0, r2
    1d2c:	02cc5c00 	sbceq	r5, ip, #0, 24
    1d30:	02d00000 	sbcseq	r0, r0, #0, 0
    1d34:	00010000 	andeq	r0, r1, r0
    1d38:	0002d052 	andeq	sp, r2, r2, asr r0
    1d3c:	0002e700 	andeq	lr, r2, r0, lsl #14
    1d40:	5c000100 	stfpls	f0, [r0], {-0}
    1d44:	000002e7 	andeq	r0, r0, r7, ror #5
    1d48:	000002ec 	andeq	r0, r0, ip, ror #5
    1d4c:	01f30004 	mvnseq	r0, r4
    1d50:	02ec9f52 	rsceq	r9, ip, #328	; 0x148
    1d54:	03000000 	movweq	r0, #0
    1d58:	00010000 	andeq	r0, r1, r0
    1d5c:	00030052 	andeq	r0, r3, r2, asr r0
    1d60:	00032800 	andeq	r2, r3, r0, lsl #16
    1d64:	5c000100 	stfpls	f0, [r0], {-0}
	...
    1d80:	00680000 	rsbeq	r0, r8, r0
    1d84:	00010000 	andeq	r0, r1, r0
    1d88:	00006853 	andeq	r6, r0, r3, asr r8
    1d8c:	00006c00 	andeq	r6, r0, r0, lsl #24
    1d90:	08000300 	stmdaeq	r0, {r8, r9}
    1d94:	01949f7f 	orrseq	r9, r4, pc, ror pc
    1d98:	01980000 	orrseq	r0, r8, r0
    1d9c:	00030000 	andeq	r0, r3, r0
    1da0:	c09f7f08 	addsgt	r7, pc, r8, lsl #30
    1da4:	14000001 	strne	r0, [r0], #-1
    1da8:	03000002 	movweq	r0, #2
    1dac:	9f7f0800 	svcls	0x007f0800
    1db0:	00000274 	andeq	r0, r0, r4, ror r2
    1db4:	00000290 	muleq	r0, r0, r2
    1db8:	90530001 	subsls	r0, r3, r1
    1dbc:	a0000002 	andge	r0, r0, r2
    1dc0:	04000002 	streq	r0, [r0], #-2
    1dc4:	5301f300 	movwpl	pc, #4864	; 0x1300	; <UNPREDICTABLE>
    1dc8:	0002ec9f 	muleq	r2, pc, ip	; <UNPREDICTABLE>
    1dcc:	00032800 	andeq	r2, r3, r0, lsl #16
    1dd0:	08000300 	stmdaeq	r0, {r8, r9}
    1dd4:	00009f7f 	andeq	r9, r0, pc, ror pc
    1dd8:	00000000 	andeq	r0, r0, r0
    1ddc:	00010000 	andeq	r0, r1, r0
    1de0:	02000000 	andeq	r0, r0, #0, 0
    1de4:	01000002 	tsteq	r0, r2
    1de8:	00000001 	andeq	r0, r0, r1
    1dec:	00000000 	andeq	r0, r0, r0
    1df0:	00020200 	andeq	r0, r2, r0, lsl #4
    1df4:	00010000 	andeq	r0, r1, r0
    1df8:	00000000 	andeq	r0, r0, r0
    1dfc:	01000000 	mrseq	r0, (UNDEF: 0)
    1e00:	00000001 	andeq	r0, r0, r1
    1e04:	00020200 	andeq	r0, r2, r0, lsl #4
    1e08:	00000000 	andeq	r0, r0, r0
    1e0c:	00010100 	andeq	r0, r1, r0, lsl #2
    1e10:	00180000 	andseq	r0, r8, r0
    1e14:	00700000 	rsbseq	r0, r0, r0
    1e18:	00040000 	andeq	r0, r4, r0
    1e1c:	9f7fa091 	svcls	0x007fa091
    1e20:	00000070 	andeq	r0, r0, r0, ror r0
    1e24:	00000078 	andeq	r0, r0, r8, ror r0
    1e28:	78520001 	ldmdavc	r2, {r0}^
    1e2c:	78000000 	stmdavc	r0, {}	; <UNPREDICTABLE>
    1e30:	01000000 	mrseq	r0, (UNDEF: 0)
    1e34:	00785400 	rsbseq	r5, r8, r0, lsl #8
    1e38:	00880000 	addeq	r0, r8, r0
    1e3c:	00030000 	andeq	r0, r3, r0
    1e40:	889f0174 	ldmhi	pc, {r2, r4, r5, r6, r8}	; <UNPREDICTABLE>
    1e44:	90000000 	andls	r0, r0, r0
    1e48:	01000000 	mrseq	r0, (UNDEF: 0)
    1e4c:	00905400 	addseq	r5, r0, r0, lsl #8
    1e50:	00a00000 	adceq	r0, r0, r0
    1e54:	00030000 	andeq	r0, r3, r0
    1e58:	a09f0274 	addsge	r0, pc, r4, ror r2	; <UNPREDICTABLE>
    1e5c:	b0000000 	andlt	r0, r0, r0
    1e60:	01000000 	mrseq	r0, (UNDEF: 0)
    1e64:	01945e00 	orrseq	r5, r4, r0, lsl #28
    1e68:	019c0000 	orrseq	r0, ip, r0
    1e6c:	00040000 	andeq	r0, r4, r0
    1e70:	9f7fa091 	svcls	0x007fa091
    1e74:	0000019c 	muleq	r0, ip, r1
    1e78:	000001a4 	andeq	r0, r0, r4, lsr #3
    1e7c:	a4520001 	ldrbge	r0, [r2], #-1
    1e80:	a4000001 	strge	r0, [r0], #-1
    1e84:	01000001 	tsteq	r0, r1
    1e88:	01a45e00 			; <UNDEFINED> instruction: 0x01a45e00
    1e8c:	01b40000 			; <UNDEFINED> instruction: 0x01b40000
    1e90:	00030000 	andeq	r0, r3, r0
    1e94:	b49f017e 	ldrlt	r0, [pc], #382	; 1e9c <__code_start__-0x6164>
    1e98:	c0000001 	andgt	r0, r0, r1
    1e9c:	01000001 	tsteq	r0, r1
    1ea0:	01c05e00 	biceq	r5, r0, r0, lsl #28
    1ea4:	02280000 	eoreq	r0, r8, #0, 0
    1ea8:	00040000 	andeq	r0, r4, r0
    1eac:	9f7fa091 	svcls	0x007fa091
    1eb0:	00000228 	andeq	r0, r0, r8, lsr #4
    1eb4:	00000234 	andeq	r0, r0, r4, lsr r2
    1eb8:	34520001 	ldrbcc	r0, [r2], #-1
    1ebc:	58000002 	stmdapl	r0, {r1}
    1ec0:	01000002 	tsteq	r0, r2
    1ec4:	02585e00 	subseq	r5, r8, #0, 28
    1ec8:	025c0000 	subseq	r0, ip, #0, 0
    1ecc:	00030000 	andeq	r0, r3, r0
    1ed0:	5c9f017e 	ldfpls	f0, [pc], {126}	; 0x7e
    1ed4:	64000002 	strvs	r0, [r0], #-2
    1ed8:	01000002 	tsteq	r0, r2
    1edc:	02645e00 	rsbeq	r5, r4, #0, 28
    1ee0:	02700000 	rsbseq	r0, r0, #0, 0
    1ee4:	00030000 	andeq	r0, r3, r0
    1ee8:	709f0271 	addsvc	r0, pc, r1, ror r2	; <UNPREDICTABLE>
    1eec:	74000002 	strvc	r0, [r0], #-2
    1ef0:	01000002 	tsteq	r0, r2
    1ef4:	02745e00 	rsbseq	r5, r4, #0, 28
    1ef8:	02740000 	rsbseq	r0, r4, #0, 0
    1efc:	00040000 	andeq	r0, r4, r0
    1f00:	9f7fa091 	svcls	0x007fa091
    1f04:	00000274 	andeq	r0, r0, r4, ror r2
    1f08:	000002a0 	andeq	r0, r0, r0, lsr #5
    1f0c:	a1910004 	orrsge	r0, r1, r4
    1f10:	02c09f7f 	sbceq	r9, r0, #508	; 0x1fc
    1f14:	02c80000 	sbceq	r0, r8, #0, 0
    1f18:	00010000 	andeq	r0, r1, r0
    1f1c:	0002c85e 	andeq	ip, r2, lr, asr r8
    1f20:	0002cc00 	andeq	ip, r2, r0, lsl #24
    1f24:	56000100 	strpl	r0, [r0], -r0, lsl #2
    1f28:	000002cc 	andeq	r0, r0, ip, asr #5
    1f2c:	000002ec 	andeq	r0, r0, ip, ror #5
    1f30:	a0910004 	addsge	r0, r1, r4
    1f34:	02ec9f7f 	rsceq	r9, ip, #508	; 0x1fc
    1f38:	02fc0000 	rscseq	r0, ip, #0, 0
    1f3c:	00040000 	andeq	r0, r4, r0
    1f40:	9f7fa191 	svcls	0x007fa191
    1f44:	000002fc 	strdeq	r0, [r0], -ip
    1f48:	00000328 	andeq	r0, r0, r8, lsr #6
    1f4c:	005e0001 	subseq	r0, lr, r1
	...
    1f64:	01010000 	mrseq	r0, (UNDEF: 1)
	...
    1f78:	00002000 	andeq	r2, r0, r0
    1f7c:	00007000 	andeq	r7, r0, r0
    1f80:	52000100 	andpl	r0, r0, #0
    1f84:	00000070 	andeq	r0, r0, r0, ror r0
    1f88:	00000094 	muleq	r0, r4, r0
    1f8c:	945c0001 	ldrbls	r0, [ip], #-1
    1f90:	9c000001 	stcls	0, cr0, [r0], {1}
    1f94:	01000001 	tsteq	r0, r1
    1f98:	019c5200 	orrseq	r5, ip, r0, lsl #4
    1f9c:	01c00000 	biceq	r0, r0, r0
    1fa0:	00010000 	andeq	r0, r1, r0
    1fa4:	0001c85c 	andeq	ip, r1, ip, asr r8
    1fa8:	00021000 	andeq	r1, r2, r0
    1fac:	5c000100 	stfpls	f0, [r0], {-0}
    1fb0:	00000210 	andeq	r0, r0, r0, lsl r2
    1fb4:	00000224 	andeq	r0, r0, r4, lsr #4
    1fb8:	24520001 	ldrbcs	r0, [r2], #-1
    1fbc:	48000002 	stmdami	r0, {r1}
    1fc0:	01000002 	tsteq	r0, r2
    1fc4:	02485c00 	subeq	r5, r8, #0, 24
    1fc8:	025c0000 	subseq	r0, ip, #0, 0
    1fcc:	00010000 	andeq	r0, r1, r0
    1fd0:	00025c55 	andeq	r5, r2, r5, asr ip
    1fd4:	00026800 	andeq	r6, r2, r0, lsl #16
    1fd8:	5c000100 	stfpls	f0, [r0], {-0}
    1fdc:	00000268 	andeq	r0, r0, r8, ror #4
    1fe0:	00000274 	andeq	r0, r0, r4, ror r2
    1fe4:	00750019 	rsbseq	r0, r5, r9, lsl r0
    1fe8:	25f72cf7 	ldrbcs	r2, [r7, #3319]!	; 0xcf7
    1fec:	2cf70076 	ldclcs	0, cr0, [r7], #472	; 0x1d8
    1ff0:	081e25f7 	ldmdaeq	lr, {r0, r1, r2, r4, r5, r6, r7, r8, sl, sp}
    1ff4:	2525f720 	strcs	pc, [r5, #-1824]!	; 0xfffff8e0
    1ff8:	00f72cf7 	ldrshteq	r2, [r7], #199	; 0xc7
    1ffc:	749f2533 	ldrvc	r2, [pc], #1331	; 2004 <__code_start__-0x5ffc>
    2000:	88000002 	stmdahi	r0, {r1}
    2004:	01000002 	tsteq	r0, r2
    2008:	02885200 	addeq	r5, r8, #0, 4
    200c:	02a00000 	adceq	r0, r0, #0, 0
    2010:	00010000 	andeq	r0, r1, r0
    2014:	0002cc5c 	andeq	ip, r2, ip, asr ip
    2018:	0002d000 	andeq	sp, r2, r0
    201c:	52000100 	andpl	r0, r0, #0
    2020:	000002d0 	ldrdeq	r0, [r0], -r0	; <UNPREDICTABLE>
    2024:	000002e7 	andeq	r0, r0, r7, ror #5
    2028:	e75c0001 	ldrb	r0, [ip, -r1]
    202c:	ec000002 	stc	0, cr0, [r0], {2}
    2030:	04000002 	streq	r0, [r0], #-2
    2034:	5201f300 	andpl	pc, r1, #0, 6
    2038:	0002ec9f 	muleq	r2, pc, ip	; <UNPREDICTABLE>
    203c:	00030000 	andeq	r0, r3, r0
    2040:	52000100 	andpl	r0, r0, #0
    2044:	00000300 	andeq	r0, r0, r0, lsl #6
    2048:	00000328 	andeq	r0, r0, r8, lsr #6
    204c:	005c0001 	subseq	r0, ip, r1
    2050:	00000000 	andeq	r0, r0, r0
    2054:	04000000 	streq	r0, [r0], #-0
    2058:	00000400 	andeq	r0, r0, r0, lsl #8
    205c:	04000001 	streq	r0, [r0], #-1
    2060:	0000a400 	andeq	sl, r0, r0, lsl #8
    2064:	0000b000 	andeq	fp, r0, r0
    2068:	53000100 	movwpl	r0, #256	; 0x100
    206c:	0000027c 	andeq	r0, r0, ip, ror r2
    2070:	00000290 	muleq	r0, r0, r2
    2074:	90530001 	subsls	r0, r3, r1
    2078:	9c000002 	stcls	0, cr0, [r0], {2}
    207c:	04000002 	streq	r0, [r0], #-2
    2080:	5301f300 	movwpl	pc, #4864	; 0x1300	; <UNPREDICTABLE>
    2084:	0002c09f 	muleq	r2, pc, r0	; <UNPREDICTABLE>
    2088:	0002cc00 	andeq	ip, r2, r0, lsl #24
    208c:	53000100 	movwpl	r0, #256	; 0x100
    2090:	000002f0 	strdeq	r0, [r0], -r0	; <UNPREDICTABLE>
    2094:	00000328 	andeq	r0, r0, r8, lsr #6
    2098:	7f080003 	svcvc	0x00080003
    209c:	0000009f 	muleq	r0, pc, r0	; <UNPREDICTABLE>
    20a0:	00000000 	andeq	r0, r0, r0
    20a4:	00000400 	andeq	r0, r0, r0, lsl #8
    20a8:	00000401 	andeq	r0, r0, r1, lsl #8
    20ac:	00000001 	andeq	r0, r0, r1
    20b0:	00000400 	andeq	r0, r0, r0, lsl #8
    20b4:	0000a400 	andeq	sl, r0, r0, lsl #8
    20b8:	0000b000 	andeq	fp, r0, r0
    20bc:	52000100 	andpl	r0, r0, #0
    20c0:	000000b0 	strheq	r0, [r0], -r0	; <UNPREDICTABLE>
    20c4:	0000015c 	andeq	r0, r0, ip, asr r1
    20c8:	a0910004 	addsge	r0, r1, r4
    20cc:	027c9f7f 	rsbseq	r9, ip, #508	; 0x1fc
    20d0:	02940000 	addseq	r0, r4, #0, 0
    20d4:	00040000 	andeq	r0, r4, r0
    20d8:	9f7fa091 	svcls	0x007fa091
    20dc:	00000294 	muleq	r0, r4, r2
    20e0:	0000029c 	muleq	r0, ip, r2
    20e4:	b45e0001 	ldrblt	r0, [lr], #-1
    20e8:	c0000002 	andgt	r0, r0, r2
    20ec:	04000002 	streq	r0, [r0], #-2
    20f0:	7fa09100 	svcvc	0x00a09100
    20f4:	0002c09f 	muleq	r2, pc, r0	; <UNPREDICTABLE>
    20f8:	0002cc00 	andeq	ip, r2, r0, lsl #24
    20fc:	52000100 	andpl	r0, r0, #0
    2100:	000002f0 	strdeq	r0, [r0], -r0	; <UNPREDICTABLE>
    2104:	00000300 	andeq	r0, r0, r0, lsl #6
    2108:	a0910004 	addsge	r0, r1, r4
    210c:	03009f7f 	movweq	r9, #3967	; 0xf7f
    2110:	03280000 			; <UNDEFINED> instruction: 0x03280000
    2114:	00010000 	andeq	r0, r1, r0
    2118:	00000052 	andeq	r0, r0, r2, asr r0
    211c:	00000000 	andeq	r0, r0, r0
    2120:	00000400 	andeq	r0, r0, r0, lsl #8
    2124:	01010101 	tsteq	r1, r1, lsl #2
    2128:	04020303 	streq	r0, [r2], #-771	; 0xfffffcfd
    212c:	00000001 	andeq	r0, r0, r1
    2130:	00000400 	andeq	r0, r0, r0, lsl #8
    2134:	0000a400 	andeq	sl, r0, r0, lsl #8
    2138:	0000b000 	andeq	fp, r0, r0
    213c:	5e000100 	adfpls	f0, f0, f0
    2140:	0000010c 	andeq	r0, r0, ip, lsl #2
    2144:	0000010c 	andeq	r0, r0, ip, lsl #2
    2148:	0c550001 	mrrceq	0, 0, r0, r5, cr1
    214c:	20000001 	andcs	r0, r0, r1
    2150:	03000001 	movweq	r0, #1
    2154:	9f017500 	svcls	0x00017500
    2158:	00000120 	andeq	r0, r0, r0, lsr #2
    215c:	0000012c 	andeq	r0, r0, ip, lsr #2
    2160:	02750003 	rsbseq	r0, r5, #3, 0
    2164:	00012c9f 	muleq	r1, pc, ip	; <UNPREDICTABLE>
    2168:	00013000 	andeq	r3, r1, r0
    216c:	75000300 	strvc	r0, [r0, #-768]	; 0xfffffd00
    2170:	027c9f03 	rsbseq	r9, ip, #3, 30
    2174:	029c0000 	addseq	r0, ip, #0, 0
    2178:	00040000 	andeq	r0, r4, r0
    217c:	9f7fa191 	svcls	0x007fa191
    2180:	000002c0 	andeq	r0, r0, r0, asr #5
    2184:	000002c8 	andeq	r0, r0, r8, asr #5
    2188:	c85e0001 	ldmdagt	lr, {r0}^
    218c:	cc000002 	stcgt	0, cr0, [r0], {2}
    2190:	01000002 	tsteq	r0, r2
    2194:	02f05600 	rscseq	r5, r0, #0, 12
    2198:	02fc0000 	rscseq	r0, ip, #0, 0
    219c:	00040000 	andeq	r0, r4, r0
    21a0:	9f7fa191 	svcls	0x007fa191
    21a4:	000002fc 	strdeq	r0, [r0], -ip
    21a8:	00000328 	andeq	r0, r0, r8, lsr #6
    21ac:	005e0001 	subseq	r0, lr, r1
	...
    21b8:	01010000 	mrseq	r0, (UNDEF: 1)
    21bc:	01010101 	tsteq	r1, r1, lsl #2
    21c0:	00010602 	andeq	r0, r1, r2, lsl #12
    21c4:	a8000600 	stmdage	r0, {r9, sl}
    21c8:	b0000000 	andlt	r0, r0, r0
    21cc:	01000000 	mrseq	r0, (UNDEF: 0)
    21d0:	010c5100 	mrseq	r5, (UNDEF: 28)
    21d4:	011c0000 	tsteq	ip, r0
    21d8:	00010000 	andeq	r0, r1, r0
    21dc:	00011c5c 	andeq	r1, r1, ip, asr ip
    21e0:	00012c00 	andeq	r2, r1, r0, lsl #24
    21e4:	58000100 	stmdapl	r0, {r8}
    21e8:	0000012c 	andeq	r0, r0, ip, lsr #2
    21ec:	00000130 	andeq	r0, r0, r0, lsr r1
    21f0:	305c0001 	subscc	r0, ip, r1
    21f4:	30000001 	andcc	r0, r0, r1
    21f8:	03000001 	movweq	r0, #1
    21fc:	9f017c00 	svcls	0x00017c00
    2200:	0000027c 	andeq	r0, r0, ip, ror r2
    2204:	0000029c 	muleq	r0, ip, r2
    2208:	9f310002 	svcls	0x00310002
    220c:	000002c0 	andeq	r0, r0, r0, asr #5
    2210:	000002cc 	andeq	r0, r0, ip, asr #5
    2214:	f0510001 			; <UNDEFINED> instruction: 0xf0510001
    2218:	28000002 	stmdacs	r0, {r1}
    221c:	02000003 	andeq	r0, r0, #3, 0
    2220:	009f3100 	addseq	r3, pc, r0, lsl #2
    2224:	00000000 	andeq	r0, r0, r0
    2228:	01000000 	mrseq	r0, (UNDEF: 0)
    222c:	01010606 	tsteq	r1, r6, lsl #12
    2230:	5c010000 	stcpl	0, cr0, [r1], {-0}
    2234:	5c000001 	stcpl	0, cr0, [r0], {1}
    2238:	04000001 	streq	r0, [r0], #-1
    223c:	7fa09100 	svcvc	0x00a09100
    2240:	00015c9f 	muleq	r1, pc, ip	; <UNPREDICTABLE>
    2244:	00018c00 	andeq	r8, r1, r0, lsl #24
    2248:	52000100 	andpl	r0, r0, #0
    224c:	0000029c 	muleq	r0, ip, r2
    2250:	000002a0 	andeq	r0, r0, r0, lsr #5
    2254:	a05e0001 	subsge	r0, lr, r1
    2258:	ac000002 	stcge	0, cr0, [r0], {2}
    225c:	01000002 	tsteq	r0, r2
    2260:	00005200 	andeq	r5, r0, r0, lsl #4
	...
    226c:	00010100 	andeq	r0, r1, r0, lsl #2
    2270:	016c0701 	cmneq	ip, r1, lsl #14
    2274:	01700000 	cmneq	r0, r0
    2278:	00030000 	andeq	r0, r3, r0
    227c:	709f7f73 	addsvc	r7, pc, r3, ror pc	; <UNPREDICTABLE>
    2280:	78000001 	stmdavc	r0, {r0}
    2284:	01000001 	tsteq	r0, r1
    2288:	01785300 	cmneq	r8, r0, lsl #6
    228c:	01840000 	orreq	r0, r4, r0
    2290:	00030000 	andeq	r0, r3, r0
    2294:	9c9f7f73 	ldcls	15, cr7, [pc], {115}	; 0x73
    2298:	9c000002 	stcls	0, cr0, [r0], {2}
    229c:	04000002 	streq	r0, [r0], #-2
    22a0:	7fa19100 	svcvc	0x00a19100
    22a4:	0000009f 	muleq	r0, pc, r0	; <UNPREDICTABLE>
    22a8:	00000000 	andeq	r0, r0, r0
    22ac:	01010100 	mrseq	r0, (UNDEF: 17)
    22b0:	00015c01 	andeq	r5, r1, r1, lsl #24
    22b4:	00018c00 	andeq	r8, r1, r0, lsl #24
    22b8:	08000300 	stmdaeq	r0, {r8, r9}
    22bc:	029c9f80 	addseq	r9, ip, #128, 30	; 0x200
    22c0:	02ac0000 	adceq	r0, ip, #0, 0
    22c4:	00030000 	andeq	r0, r3, r0
    22c8:	009f8008 	addseq	r8, pc, r8
    22cc:	00000000 	andeq	r0, r0, r0
    22d0:	01000000 	mrseq	r0, (UNDEF: 0)
    22d4:	01010000 	mrseq	r0, (UNDEF: 1)
    22d8:	01010000 	mrseq	r0, (UNDEF: 1)
    22dc:	01010101 	tsteq	r1, r1, lsl #2
    22e0:	00015c01 	andeq	r5, r1, r1, lsl #24
    22e4:	00016c00 	andeq	r6, r1, r0, lsl #24
    22e8:	50000100 	andpl	r0, r0, r0, lsl #2
    22ec:	0000016c 	andeq	r0, r0, ip, ror #2
    22f0:	0000016c 	andeq	r0, r0, ip, ror #2
    22f4:	017c0003 	cmneq	ip, r3
    22f8:	00016c9f 	muleq	r1, pc, ip	; <UNPREDICTABLE>
    22fc:	00017800 	andeq	r7, r1, r0, lsl #16
    2300:	7c000300 	stcvc	3, cr0, [r0], {-0}
    2304:	01789f02 	cmneq	r8, r2, lsl #30
    2308:	01880000 	orreq	r0, r8, r0
    230c:	00030000 	andeq	r0, r3, r0
    2310:	889f017c 	ldmhi	pc, {r2, r3, r4, r5, r6, r8}	; <UNPREDICTABLE>
    2314:	8c000001 	stchi	0, cr0, [r0], {1}
    2318:	03000001 	movweq	r0, #1
    231c:	9f017e00 	svcls	0x00017e00
    2320:	0000029c 	muleq	r0, ip, r2
    2324:	000002a4 	andeq	r0, r0, r4, lsr #5
    2328:	a4500001 	ldrbge	r0, [r0], #-1
    232c:	ac000002 	stcge	0, cr0, [r0], {2}
    2330:	03000002 	movweq	r0, #2
    2334:	9f017e00 	svcls	0x00017e00
	...
    2340:	00040004 	andeq	r0, r4, r4
    2344:	015c0100 	cmpeq	ip, r0, lsl #2
    2348:	01600000 	cmneq	r0, r0
    234c:	00030000 	andeq	r0, r3, r0
    2350:	9c9f0171 	ldflss	f0, [pc], {113}	; 0x71
    2354:	a0000002 	andge	r0, r0, r2
    2358:	02000002 	andeq	r0, r0, #2, 0
    235c:	a09f3200 	addsge	r3, pc, r0, lsl #4
    2360:	ac000002 	stcge	0, cr0, [r0], {2}
    2364:	03000002 	movweq	r0, #2
    2368:	9f017100 	svcls	0x00017100
	...
    2374:	00060007 	andeq	r0, r6, r7
    2378:	0000015c 	andeq	r0, r0, ip, asr r1
    237c:	00000194 	muleq	r0, r4, r1
    2380:	9c500001 	mrrcls	0, 0, r0, r0, cr1	; <UNPREDICTABLE>
    2384:	b4000002 	strlt	r0, [r0], #-2
    2388:	01000002 	tsteq	r0, r2
    238c:	00005000 	andeq	r5, r0, r0
    2390:	00000000 	andeq	r0, r0, r0
    2394:	01010000 	mrseq	r0, (UNDEF: 1)
    2398:	02140001 	andseq	r0, r4, #1, 0
    239c:	02200000 	eoreq	r0, r0, #0, 0
    23a0:	00020000 	andeq	r0, r2, r0
    23a4:	02209f30 	eoreq	r9, r0, #48, 30	; 0xc0
    23a8:	02340000 	eorseq	r0, r4, #0, 0
    23ac:	00020000 	andeq	r0, r2, r0
    23b0:	00009f31 	andeq	r9, r0, r1, lsr pc
    23b4:	00000000 	andeq	r0, r0, r0
    23b8:	01000000 	mrseq	r0, (UNDEF: 0)
    23bc:	01000001 	tsteq	r0, r1
    23c0:	01000001 	tsteq	r0, r1
    23c4:	01000001 	tsteq	r0, r1
    23c8:	01000001 	tsteq	r0, r1
    23cc:	02000001 	andeq	r0, r0, #1, 0
    23d0:	00800102 	addeq	r0, r0, r2, lsl #2
    23d4:	00800000 	addeq	r0, r0, r0
    23d8:	00010000 	andeq	r0, r1, r0
    23dc:	00008053 	andeq	r8, r0, r3, asr r0
    23e0:	00008c00 	andeq	r8, r0, r0, lsl #24
    23e4:	73000300 	movwvc	r0, #768	; 0x300
    23e8:	008c9f04 	addeq	r9, ip, r4, lsl #30
    23ec:	00940000 	addseq	r0, r4, r0
    23f0:	00010000 	andeq	r0, r1, r0
    23f4:	00009451 	andeq	r9, r0, r1, asr r4
    23f8:	00009800 	andeq	r9, r0, r0, lsl #16
    23fc:	73000300 	movwvc	r0, #768	; 0x300
    2400:	00989f08 	addseq	r9, r8, r8, lsl #30
    2404:	00a40000 	adceq	r0, r4, r0
    2408:	00010000 	andeq	r0, r1, r0
    240c:	0000a451 	andeq	sl, r0, r1, asr r4
    2410:	0000a800 	andeq	sl, r0, r0, lsl #16
    2414:	73000300 	movwvc	r0, #768	; 0x300
    2418:	00a89f0c 	adceq	r9, r8, ip, lsl #30
    241c:	00b40000 	adcseq	r0, r4, r0
    2420:	00010000 	andeq	r0, r1, r0
    2424:	0000b451 	andeq	fp, r0, r1, asr r4
    2428:	0000b800 	andeq	fp, r0, r0, lsl #16
    242c:	73000300 	movwvc	r0, #768	; 0x300
    2430:	00b89f10 	adcseq	r9, r8, r0, lsl pc
    2434:	00c40000 	sbceq	r0, r4, r0
    2438:	00010000 	andeq	r0, r1, r0
    243c:	0000c451 	andeq	ip, r0, r1, asr r4
    2440:	0000c800 	andeq	ip, r0, r0, lsl #16
    2444:	73000300 	movwvc	r0, #768	; 0x300
    2448:	00c89f14 	sbceq	r9, r8, r4, lsl pc
    244c:	00d00000 	sbcseq	r0, r0, r0
    2450:	00010000 	andeq	r0, r1, r0
    2454:	0000d051 	andeq	sp, r0, r1, asr r0
    2458:	0000d400 	andeq	sp, r0, r0, lsl #8
    245c:	71000300 	mrsvc	r0, LR_irq
    2460:	00009f04 	andeq	r9, r0, r4, lsl #30
    2464:	00000000 	andeq	r0, r0, r0
    2468:	00010000 	andeq	r0, r1, r0
    246c:	00000108 	andeq	r0, r0, r8, lsl #2
    2470:	0000010b 	andeq	r0, r0, fp, lsl #2
    2474:	00510001 	subseq	r0, r1, r1
    2478:	00000000 	andeq	r0, r0, r0
    247c:	02000000 	andeq	r0, r0, #0, 0
    2480:	0000d800 	andeq	sp, r0, r0, lsl #16
    2484:	00011000 	andeq	r1, r1, r0
    2488:	31000200 	mrscc	r0, R8_usr
    248c:	0000009f 	muleq	r0, pc, r0	; <UNPREDICTABLE>
    2490:	00000000 	andeq	r0, r0, r0
    2494:	e0030500 	and	r0, r3, r0, lsl #10
    2498:	e4000000 	str	r0, [r0], #-0
    249c:	02000000 	andeq	r0, r0, #0, 0
    24a0:	009f3000 	addseq	r3, pc, r0
    24a4:	00000000 	andeq	r0, r0, r0
    24a8:	01000000 	mrseq	r0, (UNDEF: 0)
    24ac:	0000e400 	andeq	lr, r0, r0, lsl #8
    24b0:	0000ef00 	andeq	lr, r0, r0, lsl #30
    24b4:	53000100 	movwpl	r0, #256	; 0x100
	...
    24c0:	00e40100 	rsceq	r0, r4, r0, lsl #2
    24c4:	00ec0000 	rsceq	r0, ip, r0
    24c8:	00010000 	andeq	r0, r1, r0
    24cc:	00000053 	andeq	r0, r0, r3, asr r0
    24d0:	00000000 	andeq	r0, r0, r0
    24d4:	00000400 	andeq	r0, r0, r0, lsl #8
    24d8:	0000f001 	andeq	pc, r0, r1
    24dc:	00010400 	andeq	r0, r1, r0, lsl #8
    24e0:	30000200 	andcc	r0, r0, r0, lsl #4
    24e4:	0001049f 	muleq	r1, pc, r4	; <UNPREDICTABLE>
    24e8:	00010800 	andeq	r0, r1, r0, lsl #16
    24ec:	51000100 	mrspl	r0, (UNDEF: 16)
	...
    24f8:	00f40001 	rscseq	r0, r4, r1
    24fc:	010b0000 	mrseq	r0, (UNDEF: 11)
    2500:	00010000 	andeq	r0, r1, r0
    2504:	00000053 	andeq	r0, r0, r3, asr r0
    2508:	00000000 	andeq	r0, r0, r0
    250c:	f4010000 	vst4.8	{d0-d3}, [r1], r0
    2510:	08000000 	stmdaeq	r0, {}	; <UNPREDICTABLE>
    2514:	01000001 	tsteq	r0, r1
    2518:	00005300 	andeq	r5, r0, r0, lsl #6
    251c:	00000000 	andeq	r0, r0, r0
    2520:	00040000 	andeq	r0, r4, r0
    2524:	9b4c0100 	blls	130292c <__bss_end__+0x12f778c>
    2528:	9b540000 	blls	1502530 <__bss_end__+0x14f7390>
    252c:	00020000 	andeq	r0, r2, r0
    2530:	9b549f30 	blls	152a1f8 <__bss_end__+0x151f058>
    2534:	9b540000 	blls	150253c <__bss_end__+0x14f739c>
    2538:	00010000 	andeq	r0, r1, r0
    253c:	00000053 	andeq	r0, r0, r3, asr r0
    2540:	00000000 	andeq	r0, r0, r0
    2544:	00000300 	andeq	r0, r0, r0, lsl #6
    2548:	00000000 	andeq	r0, r0, r0
    254c:	009b6000 	addseq	r6, fp, r0
    2550:	009b6400 	addseq	r6, fp, r0, lsl #8
    2554:	30000200 	andcc	r0, r0, r0, lsl #4
    2558:	009b649f 	umullseq	r6, fp, pc, r4	; <UNPREDICTABLE>
    255c:	009b6800 	addseq	r6, fp, r0, lsl #16
    2560:	53000100 	movwpl	r0, #256	; 0x100
    2564:	00009b68 	andeq	r9, r0, r8, ror #22
    2568:	00009b6c 	andeq	r9, r0, ip, ror #22
    256c:	00730005 	rsbseq	r0, r3, r5
    2570:	6c9f2140 	ldfvss	f2, [pc], {64}	; 0x40
    2574:	7000009b 	mulvc	r0, fp, r0
    2578:	0100009b 	swpeq	r0, fp, [r0]	; <UNPREDICTABLE>
    257c:	00005300 	andeq	r5, r0, r0, lsl #6
    2580:	00000000 	andeq	r0, r0, r0
    2584:	00020000 	andeq	r0, r2, r0
    2588:	9b200000 	blls	802590 <__bss_end__+0x7f73f0>
    258c:	9b240000 	blls	902594 <__bss_end__+0x8f73f4>
    2590:	00020000 	andeq	r0, r2, r0
    2594:	9b249f30 	blls	92a25c <__bss_end__+0x91f0bc>
    2598:	9b280000 	blls	a025a0 <__bss_end__+0x9f7400>
    259c:	00010000 	andeq	r0, r1, r0
    25a0:	00000050 	andeq	r0, r0, r0, asr r0
    25a4:	00000000 	andeq	r0, r0, r0
    25a8:	00000200 	andeq	r0, r0, r0, lsl #4
    25ac:	00000000 	andeq	r0, r0, r0
    25b0:	009b3800 	addseq	r3, fp, r0, lsl #16
    25b4:	009b3c00 	addseq	r3, fp, r0, lsl #24
    25b8:	30000200 	andcc	r0, r0, r0, lsl #4
    25bc:	009b3c9f 	umullseq	r3, fp, pc, ip	; <UNPREDICTABLE>
    25c0:	009b4000 	addseq	r4, fp, r0
    25c4:	53000100 	movwpl	r0, #256	; 0x100
    25c8:	00009b40 	andeq	r9, r0, r0, asr #22
    25cc:	00009b44 	andeq	r9, r0, r4, asr #22
    25d0:	00730005 	rsbseq	r0, r3, r5
    25d4:	449f2140 	ldrmi	r2, [pc], #320	; 25dc <__code_start__-0x5a24>
    25d8:	4c00009b 	stcmi	0, cr0, [r0], {155}	; 0x9b
    25dc:	0100009b 	swpeq	r0, fp, [r0]	; <UNPREDICTABLE>
    25e0:	00005300 	andeq	r5, r0, r0, lsl #6
	...
    25ec:	00c80000 	sbceq	r0, r8, r0
    25f0:	00d80000 	sbcseq	r0, r8, r0
    25f4:	00010000 	andeq	r0, r1, r0
    25f8:	0000d850 	andeq	sp, r0, r0, asr r8
    25fc:	00011c00 	andeq	r1, r1, r0, lsl #24
    2600:	f3000400 	vshl.u8	d0, d0, d0
    2604:	009f5001 	addseq	r5, pc, r1
    2608:	00000000 	andeq	r0, r0, r0
    260c:	02000000 	andeq	r0, r0, #0, 0
    2610:	c8000000 	stmdagt	r0, {}	; <UNPREDICTABLE>
    2614:	d8000000 	stmdale	r0, {}	; <UNPREDICTABLE>
    2618:	07000000 	streq	r0, [r0, -r0]
    261c:	0a007000 	beq	1e624 <__bss_end__+0x13484>
    2620:	9f1e03e8 	svcls	0x001e03e8
    2624:	000000d8 	ldrdeq	r0, [r0], -r8
    2628:	0000011c 	andeq	r0, r0, ip, lsl r1
    262c:	01f30008 	mvnseq	r0, r8
    2630:	03e80a50 	mvneq	r0, #80, 20	; 0x50000
    2634:	00009f1e 	andeq	r9, r0, lr, lsl pc
	...
    2640:	000000dc 	ldrdeq	r0, [r0], -ip
    2644:	0000011c 	andeq	r0, r0, ip, lsl r1
    2648:	00540001 	subseq	r0, r4, r1
    264c:	00000000 	andeq	r0, r0, r0
    2650:	01000000 	mrseq	r0, (UNDEF: 0)
    2654:	0000f000 	andeq	pc, r0, r0
    2658:	00011c00 	andeq	r1, r1, r0, lsl #24
    265c:	56000100 	strpl	r0, [r0], -r0, lsl #2
	...
    266c:	000000ec 	andeq	r0, r0, ip, ror #1
    2670:	000000ef 	andeq	r0, r0, pc, ror #1
    2674:	ef500001 	svc	0x00500001
    2678:	1c000000 	stcne	0, cr0, [r0], {-0}
    267c:	01000001 	tsteq	r0, r1
    2680:	00005600 	andeq	r5, r0, r0, lsl #12
	...
    268c:	00000104 	andeq	r0, r0, r4, lsl #2
    2690:	0000010b 	andeq	r0, r0, fp, lsl #2
    2694:	00500001 	subseq	r0, r0, r1
	...
    26a0:	20000000 	andcs	r0, r0, r0
    26a4:	23000000 	movwcs	r0, #0
    26a8:	01000000 	mrseq	r0, (UNDEF: 0)
    26ac:	00235000 	eoreq	r5, r3, r0
    26b0:	00300000 	eorseq	r0, r0, r0
    26b4:	00010000 	andeq	r0, r1, r0
    26b8:	00000054 	andeq	r0, r0, r4, asr r0
	...
    26c4:	00003000 	andeq	r3, r0, r0
    26c8:	00003b00 	andeq	r3, r0, r0, lsl #22
    26cc:	50000100 	andpl	r0, r0, r0, lsl #2
    26d0:	0000003b 	andeq	r0, r0, fp, lsr r0
    26d4:	00000078 	andeq	r0, r0, r8, ror r0
    26d8:	00560001 	subseq	r0, r6, r1
    26dc:	00000000 	andeq	r0, r0, r0
    26e0:	01000000 	mrseq	r0, (UNDEF: 0)
    26e4:	00004c00 	andeq	r4, r0, r0, lsl #24
    26e8:	00007800 	andeq	r7, r0, r0, lsl #16
    26ec:	55000100 	strpl	r0, [r0, #-256]	; 0xffffff00
	...
    26fc:	00000048 	andeq	r0, r0, r8, asr #32
    2700:	0000004b 	andeq	r0, r0, fp, asr #32
    2704:	4b500001 	blmi	1402710 <__bss_end__+0x13f7570>
    2708:	78000000 	stmdavc	r0, {}	; <UNPREDICTABLE>
    270c:	01000000 	mrseq	r0, (UNDEF: 0)
    2710:	00005500 	andeq	r5, r0, r0, lsl #10
	...
    271c:	00000060 	andeq	r0, r0, r0, rrx
    2720:	00000067 	andeq	r0, r0, r7, rrx
    2724:	00500001 	subseq	r0, r0, r1
	...
    2730:	78000000 	stmdavc	r0, {}	; <UNPREDICTABLE>
    2734:	84000000 	strhi	r0, [r0], #-0
    2738:	01000000 	mrseq	r0, (UNDEF: 0)
    273c:	00845000 	addeq	r5, r4, r0
    2740:	00c80000 	sbceq	r0, r8, r0
    2744:	00040000 	andeq	r0, r4, r0
    2748:	9f5001f3 	svcls	0x005001f3
	...
    2754:	00880000 	addeq	r0, r8, r0
    2758:	00c80000 	sbceq	r0, r8, r0
    275c:	00010000 	andeq	r0, r1, r0
    2760:	00000054 	andeq	r0, r0, r4, asr r0
    2764:	00000000 	andeq	r0, r0, r0
    2768:	9c000100 	stflss	f0, [r0], {-0}
    276c:	c8000000 	stmdagt	r0, {}	; <UNPREDICTABLE>
    2770:	01000000 	mrseq	r0, (UNDEF: 0)
    2774:	00005600 	andeq	r5, r0, r0, lsl #12
	...
    2780:	00980000 	addseq	r0, r8, r0
    2784:	009b0000 	addseq	r0, fp, r0
    2788:	00010000 	andeq	r0, r1, r0
    278c:	00009b50 	andeq	r9, r0, r0, asr fp
    2790:	0000c800 	andeq	ip, r0, r0, lsl #16
    2794:	56000100 	strpl	r0, [r0], -r0, lsl #2
	...
    27a0:	00b00000 	adcseq	r0, r0, r0
    27a4:	00b70000 	adcseq	r0, r7, r0
    27a8:	00010000 	andeq	r0, r1, r0
    27ac:	00000050 	andeq	r0, r0, r0, asr r0
	...
    27b8:	00015800 	andeq	r5, r1, r0, lsl #16
    27bc:	00016300 	andeq	r6, r1, r0, lsl #6
    27c0:	50000100 	andpl	r0, r0, r0, lsl #2
    27c4:	00000163 	andeq	r0, r0, r3, ror #2
    27c8:	00000188 	andeq	r0, r0, r8, lsl #3
    27cc:	00540001 	subseq	r0, r4, r1
	...
    27d8:	00014800 	andeq	r4, r1, r0, lsl #16
    27dc:	00015800 	andeq	r5, r1, r0, lsl #16
    27e0:	54000100 	strpl	r0, [r0], #-256	; 0xffffff00
	...
    27f4:	0000000f 	andeq	r0, r0, pc
    27f8:	0f500001 	svceq	0x00500001
    27fc:	20000000 	andcs	r0, r0, r0
    2800:	01000000 	mrseq	r0, (UNDEF: 0)
    2804:	00005400 	andeq	r5, r0, r0, lsl #8
	...
    2814:	000f0000 	andeq	r0, pc, r0
    2818:	00010000 	andeq	r0, r1, r0
    281c:	00000f51 	andeq	r0, r0, r1, asr pc
    2820:	00002000 	andeq	r2, r0, r0
    2824:	55000100 	strpl	r0, [r0, #-256]	; 0xffffff00
	...
    2834:	00000020 	andeq	r0, r0, r0, lsr #32
    2838:	0000002f 	andeq	r0, r0, pc, lsr #32
    283c:	2f500001 	svccs	0x00500001
    2840:	40000000 	andmi	r0, r0, r0
    2844:	01000000 	mrseq	r0, (UNDEF: 0)
    2848:	00005400 	andeq	r5, r0, r0, lsl #8
	...
    2854:	00200000 	eoreq	r0, r0, r0
    2858:	002f0000 	eoreq	r0, pc, r0
    285c:	00010000 	andeq	r0, r1, r0
    2860:	00002f51 	andeq	r2, r0, r1, asr pc
    2864:	00004000 	andeq	r4, r0, r0
    2868:	55000100 	strpl	r0, [r0, #-256]	; 0xffffff00
	...
    2878:	03500000 	cmpeq	r0, #0, 0
    287c:	03980000 	orrseq	r0, r8, #0, 0
    2880:	00010000 	andeq	r0, r1, r0
    2884:	00039850 	andeq	r9, r3, r0, asr r8
    2888:	00039b00 	andeq	r9, r3, r0, lsl #22
    288c:	91000200 	mrsls	r0, R8_usr
    2890:	00039b68 	andeq	r9, r3, r8, ror #22
    2894:	0003b000 	andeq	fp, r3, r0
    2898:	f3000400 	vshl.u8	d0, d0, d0
    289c:	009f5001 	addseq	r5, pc, r1
	...
    28b8:	20000000 	andcs	r0, r0, r0
    28bc:	7b000002 	blvc	28cc <__code_start__-0x5734>
    28c0:	01000002 	tsteq	r0, r2
    28c4:	027b5000 	rsbseq	r5, fp, #0, 0
    28c8:	02840000 	addeq	r0, r4, #0, 0
    28cc:	00040000 	andeq	r0, r4, r0
    28d0:	9f5001f3 	svcls	0x005001f3
    28d4:	00000284 	andeq	r0, r0, r4, lsl #5
    28d8:	0000029c 	muleq	r0, ip, r2
    28dc:	9c500001 	mrrcls	0, 0, r0, r0, cr1	; <UNPREDICTABLE>
    28e0:	a4000002 	strge	r0, [r0], #-2
    28e4:	04000002 	streq	r0, [r0], #-2
    28e8:	5001f300 	andpl	pc, r1, r0, lsl #6
    28ec:	0002a49f 	muleq	r2, pc, r4	; <UNPREDICTABLE>
    28f0:	0002a700 	andeq	sl, r2, r0, lsl #14
    28f4:	50000100 	andpl	r0, r0, r0, lsl #2
    28f8:	000002a7 	andeq	r0, r0, r7, lsr #5
    28fc:	000002c8 	andeq	r0, r0, r8, asr #5
    2900:	01f30004 	mvnseq	r0, r4
    2904:	02c89f50 	sbceq	r9, r8, #80, 30	; 0x140
    2908:	02e00000 	rsceq	r0, r0, #0, 0
    290c:	00010000 	andeq	r0, r1, r0
    2910:	0002e050 	andeq	lr, r2, r0, asr r0
    2914:	0002e800 	andeq	lr, r2, r0, lsl #16
    2918:	f3000400 	vshl.u8	d0, d0, d0
    291c:	e89f5001 	ldm	pc, {r0, ip, lr}	; <UNPREDICTABLE>
    2920:	eb000002 	bl	2930 <__code_start__-0x56d0>
    2924:	01000002 	tsteq	r0, r2
    2928:	02eb5000 	rsceq	r5, fp, #0, 0
    292c:	03380000 	teqeq	r8, #0, 0
    2930:	00040000 	andeq	r0, r4, r0
    2934:	9f5001f3 	svcls	0x005001f3
	...
    2954:	00000220 	andeq	r0, r0, r0, lsr #4
    2958:	00000244 	andeq	r0, r0, r4, asr #4
    295c:	44510001 	ldrbmi	r0, [r1], #-1
    2960:	68000002 	stmdavs	r0, {r1}
    2964:	01000002 	tsteq	r0, r2
    2968:	02685100 	rsbeq	r5, r8, #0
    296c:	027b0000 	rsbseq	r0, fp, #0, 0
    2970:	00030000 	andeq	r0, r3, r0
    2974:	7b9f0171 	blvc	fe7c2f40 <__bss_end__+0xfe7b7da0>
    2978:	84000002 	strhi	r0, [r0], #-2
    297c:	17000002 	strne	r0, [r0, -r2]
    2980:	01f33800 	mvnseq	r3, r0, lsl #16
    2984:	5101f351 	tstpl	r1, r1, asr r3	; <UNPREDICTABLE>
    2988:	22244b40 	eorcs	r4, r4, #64, 22	; 0x10000
    298c:	0000080c 	andeq	r0, r0, ip, lsl #16
    2990:	01282d80 	smlawbeq	r8, r0, sp, r2
    2994:	9f131600 	svcls	0x00131600
    2998:	00000284 	andeq	r0, r0, r4, lsl #5
    299c:	00000298 	muleq	r0, r8, r2
    29a0:	98510001 	ldmdals	r1, {r0}^
    29a4:	a4000002 	strge	r0, [r0], #-2
    29a8:	04000002 	streq	r0, [r0], #-2
    29ac:	5101f300 	mrspl	pc, SP_irq	; <UNPREDICTABLE>
    29b0:	0002a49f 	muleq	r2, pc, r4	; <UNPREDICTABLE>
    29b4:	0002a700 	andeq	sl, r2, r0, lsl #14
    29b8:	51000100 	mrspl	r0, (UNDEF: 16)
    29bc:	000002a7 	andeq	r0, r0, r7, lsr #5
    29c0:	000002c8 	andeq	r0, r0, r8, asr #5
    29c4:	01f30004 	mvnseq	r0, r4
    29c8:	02c89f51 	sbceq	r9, r8, #324	; 0x144
    29cc:	02dc0000 	sbcseq	r0, ip, #0, 0
    29d0:	00010000 	andeq	r0, r1, r0
    29d4:	0002dc51 	andeq	sp, r2, r1, asr ip
    29d8:	00033800 	andeq	r3, r3, r0, lsl #16
    29dc:	38001700 	stmdacc	r0, {r8, r9, sl, ip}
    29e0:	f35101f3 	vbsl	q8, <illegal reg q8.5>, <illegal reg q9.5>
    29e4:	4b405101 	blmi	1016df0 <__bss_end__+0x100bc50>
    29e8:	080c2224 	stmdaeq	ip, {r2, r5, r9, sp}
    29ec:	2d800000 	stccs	0, cr0, [r0]
    29f0:	16000128 	strne	r0, [r0], -r8, lsr #2
    29f4:	00009f13 	andeq	r9, r0, r3, lsl pc
	...
    2a08:	024c0000 	subeq	r0, ip, #0, 0
    2a0c:	025c0000 	subseq	r0, ip, #0, 0
    2a10:	00010000 	andeq	r0, r1, r0
    2a14:	00025c52 	andeq	r5, r2, r2, asr ip
    2a18:	00026400 	andeq	r6, r2, r0, lsl #8
    2a1c:	03000500 	movweq	r0, #1280	; 0x500
    2a20:	0000ad60 	andeq	sl, r0, r0, ror #26
    2a24:	00000264 	andeq	r0, r0, r4, ror #4
    2a28:	0000027b 	andeq	r0, r0, fp, ror r2
    2a2c:	c8530001 	ldmdagt	r3, {r0}^
    2a30:	d8000002 	stmdale	r0, {r1}
    2a34:	01000002 	tsteq	r0, r2
    2a38:	02d85200 	sbcseq	r5, r8, #0, 4
    2a3c:	02e30000 	rsceq	r0, r3, #0, 0
    2a40:	00050000 	andeq	r0, r5, r0
    2a44:	00ad6003 	adceq	r6, sp, r3
    2a48:	0002e800 	andeq	lr, r2, r0, lsl #16
    2a4c:	0002eb00 	andeq	lr, r2, r0, lsl #22
    2a50:	53000100 	movwpl	r0, #256	; 0x100
	...
    2a5c:	02300004 	eorseq	r0, r0, #4, 0
    2a60:	02340000 	eorseq	r0, r4, #0, 0
    2a64:	00010000 	andeq	r0, r1, r0
    2a68:	00000051 	andeq	r0, r0, r1, asr r0
    2a6c:	00000000 	andeq	r0, r0, r0
    2a70:	3c000200 	sfmcc	f0, 4, [r0], {-0}
    2a74:	44000002 	strmi	r0, [r0], #-2
    2a78:	02000002 	andeq	r0, r0, #2, 0
    2a7c:	009f3800 	addseq	r3, pc, r0, lsl #16
    2a80:	00000000 	andeq	r0, r0, r0
    2a84:	02000000 	andeq	r0, r0, #0, 0
    2a88:	00023c00 	andeq	r3, r2, r0, lsl #24
    2a8c:	00024400 	andeq	r4, r2, r0, lsl #8
    2a90:	51000100 	mrspl	r0, (UNDEF: 16)
	...
    2a9c:	00000001 	andeq	r0, r0, r1
    2aa0:	024c0000 	subeq	r0, ip, #0, 0
    2aa4:	02640000 	rsbeq	r0, r4, #0, 0
    2aa8:	00010000 	andeq	r0, r1, r0
    2aac:	0002c851 	andeq	ip, r2, r1, asr r8
    2ab0:	0002dc00 	andeq	sp, r2, r0, lsl #24
    2ab4:	51000100 	mrspl	r0, (UNDEF: 16)
    2ab8:	000002dc 	ldrdeq	r0, [r0], -ip
    2abc:	000002e8 	andeq	r0, r0, r8, ror #5
    2ac0:	f3380017 	vqadd.u64	d0, d8, d7
    2ac4:	01f35101 	mvnseq	r5, r1, lsl #2
    2ac8:	244b4051 	strbcs	r4, [fp], #-81	; 0xffffffaf
    2acc:	00080c22 	andeq	r0, r8, r2, lsr #24
    2ad0:	282d8000 	stmdacs	sp!, {pc}
    2ad4:	13160001 	tstne	r6, #1, 0
    2ad8:	0000009f 	muleq	r0, pc, r0	; <UNPREDICTABLE>
    2adc:	00000000 	andeq	r0, r0, r0
    2ae0:	00000100 	andeq	r0, r0, r0, lsl #2
    2ae4:	00000000 	andeq	r0, r0, r0
    2ae8:	00024c00 	andeq	r4, r2, r0, lsl #24
    2aec:	00025c00 	andeq	r5, r2, r0, lsl #24
    2af0:	52000100 	andpl	r0, r0, #0
    2af4:	0000025c 	andeq	r0, r0, ip, asr r2
    2af8:	00000264 	andeq	r0, r0, r4, ror #4
    2afc:	60030005 	andvs	r0, r3, r5
    2b00:	c80000ad 	stmdagt	r0, {r0, r2, r3, r5, r7}
    2b04:	d8000002 	stmdale	r0, {r1}
    2b08:	01000002 	tsteq	r0, r2
    2b0c:	02d85200 	sbcseq	r5, r8, #0, 4
    2b10:	02e30000 	rsceq	r0, r3, #0, 0
    2b14:	00050000 	andeq	r0, r5, r0
    2b18:	00ad6003 	adceq	r6, sp, r3
	...
    2b24:	4c000400 	cfstrsmi	mvf0, [r0], {-0}
    2b28:	50000002 	andpl	r0, r0, r2
    2b2c:	01000002 	tsteq	r0, r2
    2b30:	00005100 	andeq	r5, r0, r0, lsl #2
    2b34:	00000000 	andeq	r0, r0, r0
    2b38:	00030000 	andeq	r0, r3, r0
    2b3c:	00000264 	andeq	r0, r0, r4, ror #4
    2b40:	00000268 	andeq	r0, r0, r8, ror #4
    2b44:	00510001 	subseq	r0, r1, r1
    2b48:	00000000 	andeq	r0, r0, r0
    2b4c:	03000000 	movweq	r0, #0
    2b50:	00026400 	andeq	r6, r2, r0, lsl #8
    2b54:	00026800 	andeq	r6, r2, r0, lsl #16
    2b58:	53000100 	movwpl	r0, #256	; 0x100
	...
    2b6c:	000001bc 			; <UNDEFINED> instruction: 0x000001bc
    2b70:	000001d3 	ldrdeq	r0, [r0], -r3
    2b74:	d3500001 	cmple	r0, #1, 0
    2b78:	f0000001 			; <UNDEFINED> instruction: 0xf0000001
    2b7c:	01000001 	tsteq	r0, r1
    2b80:	01f05400 	mvnseq	r5, r0, lsl #8
    2b84:	02080000 	andeq	r0, r8, #0, 0
    2b88:	00010000 	andeq	r0, r1, r0
    2b8c:	00020850 	andeq	r0, r2, r0, asr r8
    2b90:	00022000 	andeq	r2, r2, r0
    2b94:	54000100 	strpl	r0, [r0], #-256	; 0xffffff00
	...
    2ba4:	000001d8 	ldrdeq	r0, [r0], -r8
    2ba8:	000001e3 	andeq	r0, r0, r3, ror #3
    2bac:	e3500001 	cmp	r0, #1, 0
    2bb0:	f0000001 			; <UNDEFINED> instruction: 0xf0000001
    2bb4:	01000001 	tsteq	r0, r1
    2bb8:	00005500 	andeq	r5, r0, r0, lsl #10
	...
    2bd0:	01240000 			; <UNDEFINED> instruction: 0x01240000
    2bd4:	01380000 	teqeq	r8, r0
    2bd8:	00010000 	andeq	r0, r1, r0
    2bdc:	00013850 	andeq	r3, r1, r0, asr r8
    2be0:	00013c00 	andeq	r3, r1, r0, lsl #24
    2be4:	70000300 	andvc	r0, r0, r0, lsl #6
    2be8:	013c9f79 	teqeq	ip, r9, ror pc
    2bec:	01600000 	cmneq	r0, r0
    2bf0:	00010000 	andeq	r0, r1, r0
    2bf4:	00016053 	andeq	r6, r1, r3, asr r0
    2bf8:	00017800 	andeq	r7, r1, r0, lsl #16
    2bfc:	50000100 	andpl	r0, r0, r0, lsl #2
    2c00:	00000178 	andeq	r0, r0, r8, ror r1
    2c04:	00000180 	andeq	r0, r0, r0, lsl #3
    2c08:	01f30004 	mvnseq	r0, r4
    2c0c:	01809f50 	orreq	r9, r0, r0, asr pc
    2c10:	01900000 	orrseq	r0, r0, r0
    2c14:	00010000 	andeq	r0, r1, r0
    2c18:	00019053 	andeq	r9, r1, r3, asr r0
    2c1c:	00019f00 	andeq	r9, r1, r0, lsl #30
    2c20:	91000200 	mrsls	r0, R8_usr
    2c24:	00019f68 	andeq	r9, r1, r8, ror #30
    2c28:	0001bc00 	andeq	fp, r1, r0, lsl #24
    2c2c:	f3000900 	vmls.i8	d0, d0, d0
    2c30:	07235001 	streq	r5, [r3, -r1]!
    2c34:	9f1af809 	svcls	0x001af809
	...
    2c44:	00000144 	andeq	r0, r0, r4, asr #2
    2c48:	00000160 	andeq	r0, r0, r0, ror #2
    2c4c:	80500001 	subshi	r0, r0, r1
    2c50:	9c000001 	stcls	0, cr0, [r0], {1}
    2c54:	01000001 	tsteq	r0, r1
    2c58:	00005000 	andeq	r5, r0, r0
    2c5c:	00000000 	andeq	r0, r0, r0
    2c60:	00030000 	andeq	r0, r3, r0
    2c64:	00000134 	andeq	r0, r0, r4, lsr r1
    2c68:	0000013c 	andeq	r0, r0, ip, lsr r1
    2c6c:	9f380002 	svcls	0x00380002
	...
    2c78:	00000003 	andeq	r0, r0, r3
    2c7c:	00000134 	andeq	r0, r0, r4, lsr r1
    2c80:	00000138 	andeq	r0, r0, r8, lsr r1
    2c84:	38500001 	ldmdacc	r0, {r0}^
    2c88:	3c000001 	stccc	0, cr0, [r0], {1}
    2c8c:	03000001 	movweq	r0, #1
    2c90:	9f797000 	svcls	0x00797000
	...
    2ca8:	00300000 	eorseq	r0, r0, r0
    2cac:	00600000 	rsbeq	r0, r0, r0
    2cb0:	00010000 	andeq	r0, r1, r0
    2cb4:	00006050 	andeq	r6, r0, r0, asr r0
    2cb8:	00006c00 	andeq	r6, r0, r0, lsl #24
    2cbc:	03000500 	movweq	r0, #1280	; 0x500
    2cc0:	0000ad60 	andeq	sl, r0, r0, ror #26
    2cc4:	0000006c 	andeq	r0, r0, ip, rrx
    2cc8:	00000084 	andeq	r0, r0, r4, lsl #1
    2ccc:	84500001 	ldrbhi	r0, [r0], #-1
    2cd0:	8c000000 	stchi	0, cr0, [r0], {-0}
    2cd4:	04000000 	streq	r0, [r0], #-0
    2cd8:	5001f300 	andpl	pc, r1, r0, lsl #6
    2cdc:	00008c9f 	muleq	r0, pc, ip	; <UNPREDICTABLE>
    2ce0:	0000ac00 	andeq	sl, r0, r0, lsl #24
    2ce4:	50000100 	andpl	r0, r0, r0, lsl #2
    2ce8:	000000ac 	andeq	r0, r0, ip, lsr #1
    2cec:	000000af 	andeq	r0, r0, pc, lsr #1
    2cf0:	68910002 	ldmvs	r1, {r1}
    2cf4:	000000af 	andeq	r0, r0, pc, lsr #1
    2cf8:	000000cc 	andeq	r0, r0, ip, asr #1
    2cfc:	01f30004 	mvnseq	r0, r4
    2d00:	00009f50 	andeq	r9, r0, r0, asr pc
	...
    2d10:	00300000 	eorseq	r0, r0, r0
    2d14:	00800000 	addeq	r0, r0, r0
    2d18:	00010000 	andeq	r0, r1, r0
    2d1c:	00008051 	andeq	r8, r0, r1, asr r0
    2d20:	00008c00 	andeq	r8, r0, r0, lsl #24
    2d24:	f3000400 	vshl.u8	d0, d0, d0
    2d28:	8c9f5101 	ldfhis	f5, [pc], {1}
    2d2c:	a8000000 	stmdage	r0, {}	; <UNPREDICTABLE>
    2d30:	01000000 	mrseq	r0, (UNDEF: 0)
    2d34:	00a85100 	adceq	r5, r8, r0, lsl #2
    2d38:	00cc0000 	sbceq	r0, ip, r0
    2d3c:	00040000 	andeq	r0, r4, r0
    2d40:	9f5101f3 	svcls	0x005101f3
	...
    2d4c:	00000001 	andeq	r0, r0, r1
	...
    2d58:	00380000 	eorseq	r0, r8, r0
    2d5c:	00600000 	rsbeq	r0, r0, r0
    2d60:	00010000 	andeq	r0, r1, r0
    2d64:	00006050 	andeq	r6, r0, r0, asr r0
    2d68:	00006c00 	andeq	r6, r0, r0, lsl #24
    2d6c:	03000500 	movweq	r0, #1280	; 0x500
    2d70:	0000ad60 	andeq	sl, r0, r0, ror #26
    2d74:	0000006c 	andeq	r0, r0, ip, rrx
    2d78:	00000084 	andeq	r0, r0, r4, lsl #1
    2d7c:	84500001 	ldrbhi	r0, [r0], #-1
    2d80:	8c000000 	stchi	0, cr0, [r0], {-0}
    2d84:	04000000 	streq	r0, [r0], #-0
    2d88:	5001f300 	andpl	pc, r1, r0, lsl #6
    2d8c:	00008c9f 	muleq	r0, pc, ip	; <UNPREDICTABLE>
    2d90:	0000ac00 	andeq	sl, r0, r0, lsl #24
    2d94:	50000100 	andpl	r0, r0, r0, lsl #2
    2d98:	000000ac 	andeq	r0, r0, ip, lsr #1
    2d9c:	000000af 	andeq	r0, r0, pc, lsr #1
    2da0:	68910002 	ldmvs	r1, {r1}
    2da4:	000000af 	andeq	r0, r0, pc, lsr #1
    2da8:	000000cc 	andeq	r0, r0, ip, asr #1
    2dac:	01f30004 	mvnseq	r0, r4
    2db0:	00009f50 	andeq	r9, r0, r0, asr pc
	...
    2dc0:	00000170 	andeq	r0, r0, r0, ror r1
    2dc4:	0000017c 	andeq	r0, r0, ip, ror r1
    2dc8:	7c500001 	mrrcvc	0, 0, r0, r0, cr1	; <UNPREDICTABLE>
    2dcc:	88000001 	stmdahi	r0, {r0}
    2dd0:	01000001 	tsteq	r0, r1
    2dd4:	01885400 	orreq	r5, r8, r0, lsl #8
    2dd8:	01980000 	orrseq	r0, r8, r0
    2ddc:	00040000 	andeq	r0, r4, r0
    2de0:	9f5001f3 	svcls	0x005001f3
	...
    2df4:	01780000 	cmneq	r8, r0
    2df8:	017c0000 	cmneq	ip, r0
    2dfc:	000b0000 	andeq	r0, fp, r0
    2e00:	25350070 	ldrcs	r0, [r5, #-112]!	; 0xffffff90
    2e04:	8080b423 	addhi	fp, r0, r3, lsr #8
    2e08:	7c9f0281 	lfmvc	f0, 4, [pc], {129}	; 0x81
    2e0c:	80000001 	andhi	r0, r0, r1
    2e10:	0b000001 	bleq	2e1c <__code_start__-0x51e4>
    2e14:	35007400 	strcc	r7, [r0, #-1024]	; 0xfffffc00
    2e18:	80b42325 	adcshi	r2, r4, r5, lsr #6
    2e1c:	9f028180 	svcls	0x00028180
    2e20:	00000180 	andeq	r0, r0, r0, lsl #3
    2e24:	00000183 	andeq	r0, r0, r3, lsl #3
    2e28:	83500001 	cmphi	r0, #1, 0
    2e2c:	88000001 	stmdahi	r0, {r0}
    2e30:	0b000001 	bleq	2e3c <__code_start__-0x51c4>
    2e34:	35007400 	strcc	r7, [r0, #-1024]	; 0xfffffc00
    2e38:	80b42325 	adcshi	r2, r4, r5, lsr #6
    2e3c:	9f028180 	svcls	0x00028180
    2e40:	00000188 	andeq	r0, r0, r8, lsl #3
    2e44:	00000198 	muleq	r0, r8, r1
    2e48:	01f3000c 	mvnseq	r0, ip
    2e4c:	23253550 			; <UNDEFINED> instruction: 0x23253550
    2e50:	818080b4 	strhhi	r8, [r0, r4]
    2e54:	00009f02 	andeq	r9, r0, r2, lsl #30
    2e58:	00000000 	andeq	r0, r0, r0
    2e5c:	00010000 	andeq	r0, r1, r0
    2e60:	00000000 	andeq	r0, r0, r0
    2e64:	00000178 	andeq	r0, r0, r8, ror r1
    2e68:	0000017c 	andeq	r0, r0, ip, ror r1
    2e6c:	00700005 	rsbseq	r0, r0, r5
    2e70:	7c9f1a4f 	vldmiavc	pc, {s2-s80}
    2e74:	88000001 	stmdahi	r0, {r0}
    2e78:	05000001 	streq	r0, [r0, #-1]
    2e7c:	4f007400 	svcmi	0x00007400
    2e80:	01889f1a 	orreq	r9, r8, sl, lsl pc
    2e84:	01980000 	orrseq	r0, r8, r0
    2e88:	00010000 	andeq	r0, r1, r0
    2e8c:	00000054 	andeq	r0, r0, r4, asr r0
	...
    2ea0:	00014000 	andeq	r4, r1, r0
    2ea4:	00015400 	andeq	r5, r1, r0, lsl #8
    2ea8:	50000100 	andpl	r0, r0, r0, lsl #2
    2eac:	00000154 	andeq	r0, r0, r4, asr r1
    2eb0:	00000158 	andeq	r0, r0, r8, asr r1
    2eb4:	58510001 	ldmdapl	r1, {r0}^
    2eb8:	5c000001 	stcpl	0, cr0, [r0], {1}
    2ebc:	04000001 	streq	r0, [r0], #-1
    2ec0:	5001f300 	andpl	pc, r1, r0, lsl #6
    2ec4:	00015c9f 	muleq	r1, pc, ip	; <UNPREDICTABLE>
    2ec8:	00016000 	andeq	r6, r1, r0
    2ecc:	50000100 	andpl	r0, r0, r0, lsl #2
    2ed0:	00000160 	andeq	r0, r0, r0, ror #2
    2ed4:	00000164 	andeq	r0, r0, r4, ror #2
    2ed8:	64510001 	ldrbvs	r0, [r1], #-1
    2edc:	70000001 	andvc	r0, r0, r1
    2ee0:	04000001 	streq	r0, [r0], #-1
    2ee4:	5001f300 	andpl	pc, r1, r0, lsl #6
    2ee8:	0000009f 	muleq	r0, pc, r0	; <UNPREDICTABLE>
	...
    2ef4:	00014000 	andeq	r4, r1, r0
    2ef8:	00014c00 	andeq	r4, r1, r0, lsl #24
    2efc:	51000100 	mrspl	r0, (UNDEF: 16)
    2f00:	0000014c 	andeq	r0, r0, ip, asr #2
    2f04:	00000170 	andeq	r0, r0, r0, ror r1
    2f08:	01f30004 	mvnseq	r0, r4
    2f0c:	00009f51 	andeq	r9, r0, r1, asr pc
    2f10:	00000000 	andeq	r0, r0, r0
    2f14:	00010000 	andeq	r0, r1, r0
    2f18:	00000000 	andeq	r0, r0, r0
    2f1c:	00000150 	andeq	r0, r0, r0, asr r1
    2f20:	00000154 	andeq	r0, r0, r4, asr r1
    2f24:	54500001 	ldrbpl	r0, [r0], #-1
    2f28:	58000001 	stmdapl	r0, {r0}
    2f2c:	01000001 	tsteq	r0, r1
    2f30:	01585100 	cmpeq	r8, r0, lsl #2
    2f34:	015c0000 	cmpeq	ip, r0
    2f38:	00040000 	andeq	r0, r4, r0
    2f3c:	9f5001f3 	svcls	0x005001f3
	...
    2f48:	00000002 	andeq	r0, r0, r2
    2f4c:	015c0000 	cmpeq	ip, r0
    2f50:	01600000 	cmneq	r0, r0
    2f54:	00010000 	andeq	r0, r1, r0
    2f58:	00016050 	andeq	r6, r1, r0, asr r0
    2f5c:	00016400 	andeq	r6, r1, r0, lsl #8
    2f60:	51000100 	mrspl	r0, (UNDEF: 16)
    2f64:	00000164 	andeq	r0, r0, r4, ror #2
    2f68:	00000170 	andeq	r0, r0, r0, ror r1
    2f6c:	01f30004 	mvnseq	r0, r4
    2f70:	00009f50 	andeq	r9, r0, r0, asr pc
	...
    2f80:	000000e8 	andeq	r0, r0, r8, ror #1
    2f84:	00000108 	andeq	r0, r0, r8, lsl #2
    2f88:	08500001 	ldmdaeq	r0, {r0}^
    2f8c:	28000001 	stmdacs	r0, {r0}
    2f90:	01000001 	tsteq	r0, r1
    2f94:	01285400 			; <UNDEFINED> instruction: 0x01285400
    2f98:	01400000 	mrseq	r0, (UNDEF: 64)
    2f9c:	00040000 	andeq	r0, r4, r0
    2fa0:	9f5001f3 	svcls	0x005001f3
	...
    2fac:	00000002 	andeq	r0, r0, r2
    2fb0:	00e80000 	rsceq	r0, r8, r0
    2fb4:	01080000 	mrseq	r0, (UNDEF: 8)
    2fb8:	00010000 	andeq	r0, r1, r0
    2fbc:	00010850 	andeq	r0, r1, r0, asr r8
    2fc0:	00012800 	andeq	r2, r1, r0, lsl #16
    2fc4:	54000100 	strpl	r0, [r0], #-256	; 0xffffff00
    2fc8:	00000128 	andeq	r0, r0, r8, lsr #2
    2fcc:	00000140 	andeq	r0, r0, r0, asr #2
    2fd0:	01f30004 	mvnseq	r0, r4
    2fd4:	00009f50 	andeq	r9, r0, r0, asr pc
	...
    2fe4:	000000f0 	strdeq	r0, [r0], -r0	; <UNPREDICTABLE>
    2fe8:	00000108 	andeq	r0, r0, r8, lsl #2
    2fec:	08500001 	ldmdaeq	r0, {r0}^
    2ff0:	28000001 	stmdacs	r0, {r0}
    2ff4:	01000001 	tsteq	r0, r1
    2ff8:	01285400 			; <UNDEFINED> instruction: 0x01285400
    2ffc:	01400000 	mrseq	r0, (UNDEF: 64)
    3000:	00040000 	andeq	r0, r4, r0
    3004:	9f5001f3 	svcls	0x005001f3
	...
    3010:	00000003 	andeq	r0, r0, r3
    3014:	00f00000 	rscseq	r0, r0, r0
    3018:	01080000 	mrseq	r0, (UNDEF: 8)
    301c:	00070000 	andeq	r0, r7, r0
    3020:	1d3a0070 	ldcne	0, cr0, [sl, #-448]!	; 0xfffffe40
    3024:	089f1e33 	ldmeq	pc, {r0, r1, r4, r5, r9, sl, fp, ip}	; <UNPREDICTABLE>
    3028:	28000001 	stmdacs	r0, {r0}
    302c:	07000001 	streq	r0, [r0, -r1]
    3030:	3a007400 	bcc	20038 <__bss_end__+0x14e98>
    3034:	9f1e331d 	svcls	0x001e331d
    3038:	00000128 	andeq	r0, r0, r8, lsr #2
    303c:	00000140 	andeq	r0, r0, r0, asr #2
    3040:	01f30008 	mvnseq	r0, r8
    3044:	331d3a50 	tstcc	sp, #80, 20	; 0x50000
    3048:	00009f1e 	andeq	r9, r0, lr, lsl pc
	...
    3058:	00000110 	andeq	r0, r0, r0, lsl r1
    305c:	00000138 	andeq	r0, r0, r8, lsr r1
    3060:	38560001 	ldmdacc	r6, {r0}^
    3064:	3b000001 	blcc	3070 <__code_start__-0x4f90>
    3068:	01000001 	tsteq	r0, r1
    306c:	013b5000 	teqeq	fp, r0
    3070:	01400000 	mrseq	r0, (UNDEF: 64)
    3074:	00260000 	eoreq	r0, r6, r0
    3078:	f75001f3 			; <UNDEFINED> instruction: 0xf75001f3
    307c:	f425f72c 	vld1.8	{d15}, [r5 :128], ip
    3080:	cccd0825 	stclgt	8, cr0, [sp], {37}	; 0x25
    3084:	0000cccc 	andeq	ip, r0, ip, asr #25
    3088:	081e0000 	ldmdaeq	lr, {}	; <UNPREDICTABLE>
    308c:	2525f720 	strcs	pc, [r5, #-1824]!	; 0xfffff8e0
    3090:	00f72cf7 	ldrshteq	r2, [r7], #199	; 0xc7
    3094:	80232533 	eorhi	r2, r3, r3, lsr r5
    3098:	3240a080 	subcc	sl, r0, #128, 0	; 0x80
    309c:	00009f24 	andeq	r9, r0, r4, lsr #30
    30a0:	00000000 	andeq	r0, r0, r0
    30a4:	01000000 	mrseq	r0, (UNDEF: 0)
    30a8:	00000001 	andeq	r0, r0, r1
    30ac:	01200000 			; <UNDEFINED> instruction: 0x01200000
    30b0:	01200000 			; <UNDEFINED> instruction: 0x01200000
    30b4:	00010000 	andeq	r0, r1, r0
    30b8:	00012050 	andeq	r2, r1, r0, asr r0
    30bc:	00012800 	andeq	r2, r1, r0, lsl #16
    30c0:	37000d00 	strcc	r0, [r0, -r0, lsl #26]
    30c4:	1d3a0074 	ldcne	0, cr0, [sl, #-464]!	; 0xfffffe30
    30c8:	20241e33 	eorcs	r1, r4, r3, lsr lr
    30cc:	9f1a0070 	svcls	0x001a0070
    30d0:	00000128 	andeq	r0, r0, r8, lsr #2
    30d4:	00000130 	andeq	r0, r0, r0, lsr r1
    30d8:	f337000e 	vhadd.u<illegal width 64>	d0, d7, d14
    30dc:	1d3a5001 	ldcne	0, cr5, [sl, #-4]!
    30e0:	20241e33 	eorcs	r1, r4, r3, lsr lr
    30e4:	9f1a0070 	svcls	0x001a0070
    30e8:	00000130 	andeq	r0, r0, r0, lsr r1
    30ec:	0000013b 	andeq	r0, r0, fp, lsr r1
    30f0:	f337000e 	vhadd.u<illegal width 64>	d0, d7, d14
    30f4:	1d3a5001 	ldcne	0, cr5, [sl, #-4]!
    30f8:	20241e33 	eorcs	r1, r4, r3, lsr lr
    30fc:	9f1a0073 	svcls	0x001a0073
	...
    310c:	00000060 	andeq	r0, r0, r0, rrx
    3110:	00000090 	muleq	r0, r0, r0
    3114:	90500001 	subsls	r0, r0, r1
    3118:	b8000000 	stmdalt	r0, {}	; <UNPREDICTABLE>
    311c:	04000000 	streq	r0, [r0], #-0
    3120:	5001f300 	andpl	pc, r1, r0, lsl #6
    3124:	0000009f 	muleq	r0, pc, r0	; <UNPREDICTABLE>
    3128:	00000000 	andeq	r0, r0, r0
    312c:	00000200 	andeq	r0, r0, r0, lsl #4
    3130:	00006000 	andeq	r6, r0, r0
    3134:	00009000 	andeq	r9, r0, r0
    3138:	50000100 	andpl	r0, r0, r0, lsl #2
    313c:	00000090 	muleq	r0, r0, r0
    3140:	000000b8 	strheq	r0, [r0], -r8
    3144:	01f30004 	mvnseq	r0, r4
    3148:	00009f50 	andeq	r9, r0, r0, asr pc
	...
    3154:	00680000 	rsbeq	r0, r8, r0
    3158:	00900000 	addseq	r0, r0, r0
    315c:	00010000 	andeq	r0, r1, r0
    3160:	00009050 	andeq	r9, r0, r0, asr r0
    3164:	0000b800 	andeq	fp, r0, r0, lsl #16
    3168:	f3000400 	vshl.u8	d0, d0, d0
    316c:	009f5001 	addseq	r5, pc, r1
	...
    3178:	a0000000 	andge	r0, r0, r0
    317c:	b0000000 	andlt	r0, r0, r0
    3180:	01000000 	mrseq	r0, (UNDEF: 0)
    3184:	00b05400 	adcseq	r5, r0, r0, lsl #8
    3188:	00b80000 	adcseq	r0, r8, r0
    318c:	00290000 	eoreq	r0, r9, r0
    3190:	f35001f3 	vbsl	q8, q8, <illegal reg q9.5>
    3194:	2cf75001 	ldclcs	0, cr5, [r7], #4
    3198:	25f425f7 	ldrbcs	r2, [r4, #1527]!	; 0x5f7
    319c:	cccccd08 	stclgt	13, cr12, [ip], {8}
    31a0:	000000cc 	andeq	r0, r0, ip, asr #1
    31a4:	20081e00 	andcs	r1, r8, r0, lsl #28
    31a8:	f72525f7 			; <UNDEFINED> instruction: 0xf72525f7
    31ac:	3300f72c 	movwcc	pc, #1836	; 0x72c	; <UNPREDICTABLE>
    31b0:	311e3525 	tstcc	lr, r5, lsr #10
    31b4:	1e331c24 	cdpne	12, 3, cr1, cr3, cr4, {1}
    31b8:	0000009f 	muleq	r0, pc, r0	; <UNPREDICTABLE>
    31bc:	00000000 	andeq	r0, r0, r0
    31c0:	00000100 	andeq	r0, r0, r0, lsl #2
    31c4:	a0000000 	andge	r0, r0, r0
    31c8:	b0000000 	andlt	r0, r0, r0
    31cc:	01000000 	mrseq	r0, (UNDEF: 0)
    31d0:	00b05500 	adcseq	r5, r0, r0, lsl #10
    31d4:	00b30000 	adcseq	r0, r3, r0
    31d8:	00010000 	andeq	r0, r1, r0
    31dc:	0000b350 	andeq	fp, r0, r0, asr r3
    31e0:	0000b800 	andeq	fp, r0, r0, lsl #16
    31e4:	f3002600 	vmax.u8	d2, d0, d0
    31e8:	2cf75001 	ldclcs	0, cr5, [r7], #4
    31ec:	25f425f7 	ldrbcs	r2, [r4, #1527]!	; 0x5f7
    31f0:	cccccd08 	stclgt	13, cr12, [ip], {8}
    31f4:	000000cc 	andeq	r0, r0, ip, asr #1
    31f8:	20081e00 	andcs	r1, r8, r0, lsl #28
    31fc:	f72525f7 			; <UNDEFINED> instruction: 0xf72525f7
    3200:	3300f72c 	movwcc	pc, #1836	; 0x72c	; <UNPREDICTABLE>
    3204:	80802325 	addhi	r2, r0, r5, lsr #6
    3208:	243240a0 	ldrtcs	r4, [r2], #-160	; 0xffffff60
    320c:	0000009f 	muleq	r0, pc, r0	; <UNPREDICTABLE>
    3210:	00000000 	andeq	r0, r0, r0
    3214:	00000200 	andeq	r0, r0, r0, lsl #4
    3218:	00000101 	andeq	r0, r0, r1, lsl #2
    321c:	0000a000 	andeq	sl, r0, r0
    3220:	0000a400 	andeq	sl, r0, r0, lsl #8
    3224:	50000100 	andpl	r0, r0, r0, lsl #2
    3228:	000000a4 	andeq	r0, r0, r4, lsr #1
    322c:	000000a4 	andeq	r0, r0, r4, lsr #1
    3230:	a4530001 	ldrbge	r0, [r3], #-1
    3234:	a8000000 	stmdage	r0, {}	; <UNPREDICTABLE>
    3238:	08000000 	stmdaeq	r0, {}	; <UNPREDICTABLE>
    323c:	00743100 	rsbseq	r3, r4, r0, lsl #2
    3240:	21007324 	tstcs	r0, r4, lsr #6
    3244:	0000a89f 	muleq	r0, pc, r8	; <UNPREDICTABLE>
    3248:	0000b300 	andeq	fp, r0, r0, lsl #6
    324c:	51000100 	mrspl	r0, (UNDEF: 16)
	...
    3260:	0000003c 	andeq	r0, r0, ip, lsr r0
    3264:	3c500001 	mrrccc	0, 0, r0, r0, cr1	; <UNPREDICTABLE>
    3268:	60000000 	andvs	r0, r0, r0
    326c:	04000000 	streq	r0, [r0], #-0
    3270:	5001f300 	andpl	pc, r1, r0, lsl #6
    3274:	0000009f 	muleq	r0, pc, r0	; <UNPREDICTABLE>
	...
    3284:	00003f00 	andeq	r3, r0, r0, lsl #30
    3288:	51000100 	mrspl	r0, (UNDEF: 16)
    328c:	0000003f 	andeq	r0, r0, pc, lsr r0
    3290:	00000060 	andeq	r0, r0, r0, rrx
    3294:	01f30004 	mvnseq	r0, r4
    3298:	00009f51 	andeq	r9, r0, r1, asr pc
	...
    32a4:	00080000 	andeq	r0, r8, r0
    32a8:	003f0000 	eorseq	r0, pc, r0
    32ac:	00010000 	andeq	r0, r1, r0
    32b0:	00003f51 	andeq	r3, r0, r1, asr pc
    32b4:	00006000 	andeq	r6, r0, r0
    32b8:	f3000400 	vshl.u8	d0, d0, d0
    32bc:	009f5101 	addseq	r5, pc, r1, lsl #2
	...
    32c8:	08000000 	stmdaeq	r0, {}	; <UNPREDICTABLE>
    32cc:	3c000000 	stccc	0, cr0, [r0], {-0}
    32d0:	01000000 	mrseq	r0, (UNDEF: 0)
    32d4:	003c5000 	eorseq	r5, ip, r0
    32d8:	00600000 	rsbeq	r0, r0, r0
    32dc:	00040000 	andeq	r0, r4, r0
    32e0:	9f5001f3 	svcls	0x005001f3
	...
    32f0:	00000048 	andeq	r0, r0, r8, asr #32
    32f4:	00000058 	andeq	r0, r0, r8, asr r0
    32f8:	58540001 	ldmdapl	r4, {r0}^
    32fc:	60000000 	andvs	r0, r0, r0
    3300:	29000000 	stmdbcs	r0, {}	; <UNPREDICTABLE>
    3304:	5001f300 	andpl	pc, r1, r0, lsl #6
    3308:	f75001f3 			; <UNDEFINED> instruction: 0xf75001f3
    330c:	f425f72c 	vld1.8	{d15}, [r5 :128], ip
    3310:	cccd0825 	stclgt	8, cr0, [sp], {37}	; 0x25
    3314:	0000cccc 	andeq	ip, r0, ip, asr #25
    3318:	081e0000 	ldmdaeq	lr, {}	; <UNPREDICTABLE>
    331c:	2525f720 	strcs	pc, [r5, #-1824]!	; 0xfffff8e0
    3320:	00f72cf7 	ldrshteq	r2, [r7], #199	; 0xc7
    3324:	1e352533 	mrcne	5, 1, r2, cr5, cr3, {1}
    3328:	331c2431 	tstcc	ip, #822083584	; 0x31000000
    332c:	00009f1e 	andeq	r9, r0, lr, lsl pc
    3330:	00000000 	andeq	r0, r0, r0
    3334:	00010000 	andeq	r0, r1, r0
    3338:	00000000 	andeq	r0, r0, r0
    333c:	00000048 	andeq	r0, r0, r8, asr #32
    3340:	00000058 	andeq	r0, r0, r8, asr r0
    3344:	58560001 	ldmdapl	r6, {r0}^
    3348:	5b000000 	blpl	3350 <__code_start__-0x4cb0>
    334c:	01000000 	mrseq	r0, (UNDEF: 0)
    3350:	005b5000 	subseq	r5, fp, r0
    3354:	00600000 	rsbeq	r0, r0, r0
    3358:	00260000 	eoreq	r0, r6, r0
    335c:	f75001f3 			; <UNDEFINED> instruction: 0xf75001f3
    3360:	f425f72c 	vld1.8	{d15}, [r5 :128], ip
    3364:	cccd0825 	stclgt	8, cr0, [sp], {37}	; 0x25
    3368:	0000cccc 	andeq	ip, r0, ip, asr #25
    336c:	081e0000 	ldmdaeq	lr, {}	; <UNPREDICTABLE>
    3370:	2525f720 	strcs	pc, [r5, #-1824]!	; 0xfffff8e0
    3374:	00f72cf7 	ldrshteq	r2, [r7], #199	; 0xc7
    3378:	80232533 	eorhi	r2, r3, r3, lsr r5
    337c:	3240a080 	subcc	sl, r0, #128, 0	; 0x80
    3380:	00009f24 	andeq	r9, r0, r4, lsr #30
    3384:	00000000 	andeq	r0, r0, r0
    3388:	00020000 	andeq	r0, r2, r0
    338c:	00010100 	andeq	r0, r1, r0, lsl #2
    3390:	00480000 	subeq	r0, r8, r0
    3394:	004c0000 	subeq	r0, ip, r0
    3398:	00010000 	andeq	r0, r1, r0
    339c:	00004c50 	andeq	r4, r0, r0, asr ip
    33a0:	00004c00 	andeq	r4, r0, r0, lsl #24
    33a4:	51000100 	mrspl	r0, (UNDEF: 16)
    33a8:	0000004c 	andeq	r0, r0, ip, asr #32
    33ac:	00000050 	andeq	r0, r0, r0, asr r0
    33b0:	0075000c 	rsbseq	r0, r5, ip
    33b4:	741aff08 	ldrvc	pc, [sl], #-3848	; 0xfffff0f8
    33b8:	00712400 	rsbseq	r2, r1, r0, lsl #8
    33bc:	00509f21 	subseq	r9, r0, r1, lsr #30
    33c0:	00540000 	subseq	r0, r4, r0
    33c4:	00120000 	andseq	r0, r2, r0
    33c8:	24007437 	strcs	r7, [r0], #-1079	; 0xfffffbc9
    33cc:	1a007020 	bne	1f454 <__bss_end__+0x142b4>
    33d0:	ff080075 			; <UNDEFINED> instruction: 0xff080075
    33d4:	2400741a 	strcs	r7, [r0], #-1050	; 0xfffffbe6
    33d8:	00009f21 	andeq	r9, r0, r1, lsr #30
	...
    33e8:	000000b8 	strheq	r0, [r0], -r8
    33ec:	000000c4 	andeq	r0, r0, r4, asr #1
    33f0:	c4500001 	ldrbgt	r0, [r0], #-1
    33f4:	cb000000 	blgt	33fc <__code_start__-0x4c04>
    33f8:	01000000 	mrseq	r0, (UNDEF: 0)
    33fc:	00cb5300 	sbceq	r5, fp, r0, lsl #6
    3400:	00d00000 	sbcseq	r0, r0, r0
    3404:	00040000 	andeq	r0, r4, r0
    3408:	9f5001f3 	svcls	0x005001f3
	...
    3418:	00d00000 	sbcseq	r0, r0, r0
    341c:	00dc0000 	sbcseq	r0, ip, r0
    3420:	00010000 	andeq	r0, r1, r0
    3424:	0000dc50 	andeq	sp, r0, r0, asr ip
    3428:	0000e300 	andeq	lr, r0, r0, lsl #6
    342c:	53000100 	movwpl	r0, #256	; 0x100
    3430:	000000e3 	andeq	r0, r0, r3, ror #1
    3434:	000000e8 	andeq	r0, r0, r8, ror #1
    3438:	01f30004 	mvnseq	r0, r4
    343c:	00009f50 	andeq	r9, r0, r0, asr pc
	...
    344c:	000b0000 	andeq	r0, fp, r0
    3450:	00010000 	andeq	r0, r1, r0
    3454:	00000b50 	andeq	r0, r0, r0, asr fp
    3458:	00001400 	andeq	r1, r0, r0, lsl #8
    345c:	54000100 	strpl	r0, [r0], #-256	; 0xffffff00
	...
    3470:	00000018 	andeq	r0, r0, r8, lsl r0
    3474:	18510001 	ldmdane	r1, {r0}^
    3478:	2c000000 	stccs	0, cr0, [r0], {-0}
    347c:	04000000 	streq	r0, [r0], #-0
    3480:	5101f300 	mrspl	pc, SP_irq	; <UNPREDICTABLE>
    3484:	0000009f 	muleq	r0, pc, r0	; <UNPREDICTABLE>
    3488:	00000000 	andeq	r0, r0, r0
    348c:	00000200 	andeq	r0, r0, r0, lsl #4
    3490:	00000000 	andeq	r0, r0, r0
    3494:	01010000 	mrseq	r0, (UNDEF: 1)
    3498:	00000000 	andeq	r0, r0, r0
    349c:	04000000 	streq	r0, [r0], #-0
    34a0:	01000000 	mrseq	r0, (UNDEF: 0)
    34a4:	00045000 	andeq	r5, r4, r0
    34a8:	00080000 	andeq	r0, r8, r0
    34ac:	00010000 	andeq	r0, r1, r0
    34b0:	00000852 	andeq	r0, r0, r2, asr r8
    34b4:	00000c00 	andeq	r0, r0, r0, lsl #24
    34b8:	72000300 	andvc	r0, r0, #0, 6
    34bc:	000c9f01 	andeq	r9, ip, r1, lsl #30
    34c0:	00180000 	andseq	r0, r8, r0
    34c4:	00010000 	andeq	r0, r1, r0
    34c8:	00001852 	andeq	r1, r0, r2, asr r8
    34cc:	00001c00 	andeq	r1, r0, r0, lsl #24
    34d0:	53000100 	movwpl	r0, #256	; 0x100
    34d4:	0000001c 	andeq	r0, r0, ip, lsl r0
    34d8:	00000024 	andeq	r0, r0, r4, lsr #32
    34dc:	01730003 	cmneq	r3, r3
    34e0:	0000249f 	muleq	r0, pc, r4	; <UNPREDICTABLE>
    34e4:	00002c00 	andeq	r2, r0, r0, lsl #24
    34e8:	53000100 	movwpl	r0, #256	; 0x100
	...
    34f4:	00020203 	andeq	r0, r2, r3, lsl #4
    34f8:	00000000 	andeq	r0, r0, r0
    34fc:	00180000 	andseq	r0, r8, r0
    3500:	00010000 	andeq	r0, r1, r0
    3504:	00001851 	andeq	r1, r0, r1, asr r8
    3508:	00001c00 	andeq	r1, r0, r0, lsl #24
    350c:	71000300 	mrsvc	r0, LR_irq
    3510:	001c9f01 	andseq	r9, ip, r1, lsl #30
    3514:	002c0000 	eoreq	r0, ip, r0
    3518:	00010000 	andeq	r0, r1, r0
    351c:	00000051 	andeq	r0, r0, r1, asr r0
	...
    3528:	08000000 	stmdaeq	r0, {}	; <UNPREDICTABLE>
    352c:	0c000000 	stceq	0, cr0, [r0], {-0}
    3530:	02000000 	andeq	r0, r0, #0, 0
    3534:	0c007200 	sfmeq	f7, 4, [r0], {-0}
    3538:	18000000 	stmdane	r0, {}	; <UNPREDICTABLE>
    353c:	02000000 	andeq	r0, r0, #0, 0
    3540:	1c007300 	stcne	3, cr7, [r0], {-0}
    3544:	2c000000 	stccs	0, cr0, [r0], {-0}
    3548:	01000000 	mrseq	r0, (UNDEF: 0)
    354c:	00005200 	andeq	r5, r0, r0, lsl #4
	...
    3564:	00140000 	andseq	r0, r4, r0
    3568:	00010000 	andeq	r0, r1, r0
    356c:	00001450 	andeq	r1, r0, r0, asr r4
    3570:	00001800 	andeq	r1, r0, r0, lsl #16
    3574:	70000300 	andvc	r0, r0, r0, lsl #6
    3578:	00189f01 	andseq	r9, r8, r1, lsl #30
    357c:	00200000 	eoreq	r0, r0, r0
    3580:	00010000 	andeq	r0, r1, r0
    3584:	00002450 	andeq	r2, r0, r0, asr r4
    3588:	00002800 	andeq	r2, r0, r0, lsl #16
    358c:	50000100 	andpl	r0, r0, r0, lsl #2
    3590:	00000028 	andeq	r0, r0, r8, lsr #32
    3594:	00000030 	andeq	r0, r0, r0, lsr r0
    3598:	01700003 	cmneq	r0, r3
    359c:	0000389f 	muleq	r0, pc, r8	; <UNPREDICTABLE>
    35a0:	00004000 	andeq	r4, r0, r0
    35a4:	50000100 	andpl	r0, r0, r0, lsl #2
	...
    35b8:	00240000 	eoreq	r0, r4, r0
    35bc:	00010000 	andeq	r0, r1, r0
    35c0:	00002451 	andeq	r2, r0, r1, asr r4
    35c4:	00002800 	andeq	r2, r0, r0, lsl #16
    35c8:	5c000100 	stfpls	f0, [r0], {-0}
    35cc:	00000028 	andeq	r0, r0, r8, lsr #32
    35d0:	00000044 	andeq	r0, r0, r4, asr #32
    35d4:	00510001 	subseq	r0, r1, r1
	...
    35e0:	00000202 	andeq	r0, r0, r2, lsl #4
    35e4:	00000000 	andeq	r0, r0, r0
    35e8:	00000400 	andeq	r0, r0, r0, lsl #8
    35ec:	51000100 	mrspl	r0, (UNDEF: 16)
    35f0:	00000004 	andeq	r0, r0, r4
    35f4:	00000008 	andeq	r0, r0, r8
    35f8:	01710003 	cmneq	r1, r3
    35fc:	0000089f 	muleq	r0, pc, r8	; <UNPREDICTABLE>
    3600:	00001800 	andeq	r1, r0, r0, lsl #16
    3604:	51000100 	mrspl	r0, (UNDEF: 16)
	...
    3610:	00000002 	andeq	r0, r0, r2
    3614:	00040000 	andeq	r0, r4, r0
    3618:	00010000 	andeq	r0, r1, r0
    361c:	00000050 	andeq	r0, r0, r0, asr r0
	...
    362c:	00000800 	andeq	r0, r0, r0, lsl #16
    3630:	50000100 	andpl	r0, r0, r0, lsl #2
    3634:	00000008 	andeq	r0, r0, r8
    3638:	00000030 	andeq	r0, r0, r0, lsr r0
    363c:	01f30004 	mvnseq	r0, r4
    3640:	00009f50 	andeq	r9, r0, r0, asr pc
	...
    3650:	00080000 	andeq	r0, r8, r0
    3654:	00010000 	andeq	r0, r1, r0
    3658:	00000851 	andeq	r0, r0, r1, asr r8
    365c:	00003000 	andeq	r3, r0, r0
    3660:	f3000400 	vshl.u8	d0, d0, d0
    3664:	009f5101 	addseq	r5, pc, r1, lsl #2
	...
    3674:	02020100 	andeq	r0, r2, #0
    3678:	00000000 	andeq	r0, r0, r0
    367c:	00000400 	andeq	r0, r0, r0, lsl #8
    3680:	52000100 	andpl	r0, r0, #0
    3684:	00000004 	andeq	r0, r0, r4
    3688:	00000008 	andeq	r0, r0, r8
    368c:	01f30004 	mvnseq	r0, r4
    3690:	00089f52 	andeq	r9, r8, r2, asr pc
    3694:	00180000 	andseq	r0, r8, r0
    3698:	00060000 	andeq	r0, r6, r0
    369c:	315201f3 	ldrshcc	r0, [r2, #-19]	; 0xffffffed
    36a0:	00189f1c 	andseq	r9, r8, ip, lsl pc
    36a4:	00180000 	andseq	r0, r8, r0
    36a8:	00040000 	andeq	r0, r4, r0
    36ac:	9f5201f3 	svcls	0x005201f3
    36b0:	00000018 	andeq	r0, r0, r8, lsl r0
    36b4:	00000030 	andeq	r0, r0, r0, lsr r0
    36b8:	01f30006 	mvnseq	r0, r6
    36bc:	9f1c3152 	svcls	0x001c3152
	...
    36c8:	00000002 	andeq	r0, r0, r2
    36cc:	00000001 	andeq	r0, r0, r1
    36d0:	00000000 	andeq	r0, r0, r0
    36d4:	0000000c 	andeq	r0, r0, ip
    36d8:	0c500001 	mrrceq	0, 0, r0, r0, cr1	; <UNPREDICTABLE>
    36dc:	18000000 	stmdane	r0, {}	; <UNPREDICTABLE>
    36e0:	03000000 	movweq	r0, #0
    36e4:	9f7f7000 	svcls	0x007f7000
    36e8:	00000018 	andeq	r0, r0, r8, lsl r0
    36ec:	00000024 	andeq	r0, r0, r4, lsr #32
    36f0:	28500001 	ldmdacs	r0, {r0}^
    36f4:	2c000000 	stccs	0, cr0, [r0], {-0}
    36f8:	03000000 	movweq	r0, #0
    36fc:	9f7f7000 	svcls	0x007f7000
	...
    3708:	00000002 	andeq	r0, r0, r2
    370c:	00000000 	andeq	r0, r0, r0
    3710:	000c0000 	andeq	r0, ip, r0
    3714:	00010000 	andeq	r0, r1, r0
    3718:	00000c51 	andeq	r0, r0, r1, asr ip
    371c:	00001000 	andeq	r1, r0, r0
    3720:	71000300 	mrsvc	r0, LR_irq
    3724:	00109f01 	andseq	r9, r0, r1, lsl #30
    3728:	00300000 	eorseq	r0, r0, r0
    372c:	00010000 	andeq	r0, r1, r0
    3730:	00000051 	andeq	r0, r0, r1, asr r0
    3734:	00000000 	andeq	r0, r0, r0
	...

Disassembly of section .debug_aranges:

00000000 <.debug_aranges>:
   0:	0000001c 	andeq	r0, r0, ip, lsl r0
   4:	00000002 	andeq	r0, r0, r2
   8:	00040000 	andeq	r0, r4, r0
   c:	00000000 	andeq	r0, r0, r0
  10:	00008038 	andeq	r8, r0, r8, lsr r0
  14:	00000144 	andeq	r0, r0, r4, asr #2
	...
  20:	0000001c 	andeq	r0, r0, ip, lsl r0
  24:	04960002 	ldreq	r0, [r6], #2
  28:	00040000 	andeq	r0, r4, r0
  2c:	00000000 	andeq	r0, r0, r0
  30:	0000817c 	andeq	r8, r0, ip, ror r1
  34:	00000440 	andeq	r0, r0, r0, asr #8
	...
  40:	0000001c 	andeq	r0, r0, ip, lsl r0
  44:	0c880002 	stceq	0, cr0, [r8], {2}
  48:	00040000 	andeq	r0, r4, r0
  4c:	00000000 	andeq	r0, r0, r0
  50:	000085bc 			; <UNDEFINED> instruction: 0x000085bc
  54:	00000200 	andeq	r0, r0, r0, lsl #4
	...
  60:	0000001c 	andeq	r0, r0, ip, lsl r0
  64:	0f780002 	svceq	0x00780002
  68:	00040000 	andeq	r0, r4, r0
  6c:	00000000 	andeq	r0, r0, r0
  70:	000087bc 			; <UNDEFINED> instruction: 0x000087bc
  74:	000006a8 	andeq	r0, r0, r8, lsr #13
	...
  80:	0000001c 	andeq	r0, r0, ip, lsl r0
  84:	1c3a0002 	ldcne	0, cr0, [sl], #-8
  88:	00040000 	andeq	r0, r4, r0
  8c:	00000000 	andeq	r0, r0, r0
  90:	00008e6c 	andeq	r8, r0, ip, ror #28
  94:	000000a0 	andeq	r0, r0, r0, lsr #1
	...
  a0:	0000001c 	andeq	r0, r0, ip, lsl r0
  a4:	1e540002 	cdpne	0, 5, cr0, cr4, cr2, {0}
  a8:	00040000 	andeq	r0, r4, r0
  ac:	00000000 	andeq	r0, r0, r0
  b0:	00008f0c 	andeq	r8, r0, ip, lsl #30
  b4:	00000078 	andeq	r0, r0, r8, ror r0
	...
  c0:	0000001c 	andeq	r0, r0, ip, lsl r0
  c4:	1f980002 	svcne	0x00980002
  c8:	00040000 	andeq	r0, r4, r0
  cc:	00000000 	andeq	r0, r0, r0
  d0:	00008f84 	andeq	r8, r0, r4, lsl #31
  d4:	00000058 	andeq	r0, r0, r8, asr r0
	...
  e0:	0000001c 	andeq	r0, r0, ip, lsl r0
  e4:	21390002 	teqcs	r9, r2
  e8:	00040000 	andeq	r0, r4, r0
  ec:	00000000 	andeq	r0, r0, r0
  f0:	00008fdc 	ldrdeq	r8, [r0], -ip
  f4:	00000038 	andeq	r0, r0, r8, lsr r0
	...
 100:	0000001c 	andeq	r0, r0, ip, lsl r0
 104:	22300002 	eorscs	r0, r0, #2, 0
 108:	00040000 	andeq	r0, r4, r0
 10c:	00000000 	andeq	r0, r0, r0
 110:	00009014 	andeq	r9, r0, r4, lsl r0
 114:	000009b4 			; <UNDEFINED> instruction: 0x000009b4
	...
 120:	0000001c 	andeq	r0, r0, ip, lsl r0
 124:	2eb30002 	cdpcs	0, 11, cr0, cr3, cr2, {0}
 128:	00040000 	andeq	r0, r4, r0
 12c:	00000000 	andeq	r0, r0, r0
 130:	000099c8 	andeq	r9, r0, r8, asr #19
 134:	0000002c 	andeq	r0, r0, ip, lsr #32
	...
 140:	0000001c 	andeq	r0, r0, ip, lsl r0
 144:	2fe60002 	svccs	0x00e60002
 148:	00040000 	andeq	r0, r4, r0
 14c:	00000000 	andeq	r0, r0, r0
 150:	000099f4 	strdeq	r9, [r0], -r4
 154:	00000128 	andeq	r0, r0, r8, lsr #2
	...
 160:	0000001c 	andeq	r0, r0, ip, lsl r0
 164:	329b0002 	addscc	r0, fp, #2, 0
 168:	00040000 	andeq	r0, r4, r0
 16c:	00000000 	andeq	r0, r0, r0
 170:	00009b1c 	andeq	r9, r0, ip, lsl fp
 174:	00000004 	andeq	r0, r0, r4
	...
 180:	0000001c 	andeq	r0, r0, ip, lsl r0
 184:	336d0002 	cmncc	sp, #2, 0
 188:	00040000 	andeq	r0, r4, r0
 18c:	00000000 	andeq	r0, r0, r0
 190:	00009b20 	andeq	r9, r0, r0, lsr #22
 194:	0000008c 	andeq	r0, r0, ip, lsl #1
	...
 1a0:	0000001c 	andeq	r0, r0, ip, lsl r0
 1a4:	35ee0002 	strbcc	r0, [lr, #2]!
 1a8:	00040000 	andeq	r0, r4, r0
 1ac:	00000000 	andeq	r0, r0, r0
 1b0:	00009bac 	andeq	r9, r0, ip, lsr #23
 1b4:	0000011c 	andeq	r0, r0, ip, lsl r1
	...
 1c0:	0000001c 	andeq	r0, r0, ip, lsl r0
 1c4:	3b310002 	blcc	c401d4 <__bss_end__+0xc35034>
 1c8:	00040000 	andeq	r0, r4, r0
 1cc:	00000000 	andeq	r0, r0, r0
 1d0:	00009cc8 	andeq	r9, r0, r8, asr #25
 1d4:	000001f0 	strdeq	r0, [r0], -r0	; <UNPREDICTABLE>
	...
 1e0:	0000001c 	andeq	r0, r0, ip, lsl r0
 1e4:	41020002 	tstmi	r2, r2
 1e8:	00040000 	andeq	r0, r4, r0
 1ec:	00000000 	andeq	r0, r0, r0
 1f0:	00009eb8 			; <UNDEFINED> instruction: 0x00009eb8
 1f4:	000003b0 			; <UNDEFINED> instruction: 0x000003b0
	...
 200:	0000001c 	andeq	r0, r0, ip, lsl r0
 204:	49ef0002 	stmibmi	pc!, {r1}^	; <UNPREDICTABLE>
 208:	00040000 	andeq	r0, r4, r0
 20c:	00000000 	andeq	r0, r0, r0
 210:	0000a268 	andeq	sl, r0, r8, ror #4
 214:	00000198 	muleq	r0, r8, r1
	...
 220:	0000001c 	andeq	r0, r0, ip, lsl r0
 224:	50660002 	rsbpl	r0, r6, r2
 228:	00040000 	andeq	r0, r4, r0
 22c:	00000000 	andeq	r0, r0, r0
 230:	0000a400 	andeq	sl, r0, r0, lsl #8
 234:	0000003c 	andeq	r0, r0, ip, lsr r0
	...
 240:	0000001c 	andeq	r0, r0, ip, lsl r0
 244:	51b30002 			; <UNDEFINED> instruction: 0x51b30002
 248:	00040000 	andeq	r0, r4, r0
 24c:	00000000 	andeq	r0, r0, r0
 250:	0000a43c 	andeq	sl, r0, ip, lsr r4
 254:	0000002c 	andeq	r0, r0, ip, lsr #32
	...
 260:	0000001c 	andeq	r0, r0, ip, lsl r0
 264:	52ee0002 	rscpl	r0, lr, #2, 0
 268:	00040000 	andeq	r0, r4, r0
 26c:	00000000 	andeq	r0, r0, r0
 270:	0000a468 	andeq	sl, r0, r8, ror #8
 274:	00000044 	andeq	r0, r0, r4, asr #32
	...
 280:	0000001c 	andeq	r0, r0, ip, lsl r0
 284:	53e90002 	mvnpl	r0, #2, 0
 288:	00040000 	andeq	r0, r4, r0
 28c:	00000000 	andeq	r0, r0, r0
 290:	0000a4ac 	andeq	sl, r0, ip, lsr #9
 294:	00000018 	andeq	r0, r0, r8, lsl r0
	...
 2a0:	0000001c 	andeq	r0, r0, ip, lsl r0
 2a4:	54fc0002 	ldrbtpl	r0, [ip], #2
 2a8:	00040000 	andeq	r0, r4, r0
 2ac:	00000000 	andeq	r0, r0, r0
 2b0:	0000a4c4 	andeq	sl, r0, r4, asr #9
 2b4:	00000030 	andeq	r0, r0, r0, lsr r0
	...
 2c0:	0000001c 	andeq	r0, r0, ip, lsl r0
 2c4:	564e0002 	strbpl	r0, [lr], -r2
 2c8:	00040000 	andeq	r0, r4, r0
 2cc:	00000000 	andeq	r0, r0, r0
 2d0:	0000a4f4 	strdeq	sl, [r0], -r4
 2d4:	00000004 	andeq	r0, r0, r4
	...

Disassembly of section .debug_ranges:

00000000 <.debug_ranges>:
   0:	00000040 	andeq	r0, r0, r0, asr #32
   4:	00000044 	andeq	r0, r0, r4, asr #32
   8:	00000048 	andeq	r0, r0, r8, asr #32
   c:	000000dc 	ldrdeq	r0, [r0], -ip
	...
  18:	0000004c 	andeq	r0, r0, ip, asr #32
  1c:	0000006c 	andeq	r0, r0, ip, rrx
  20:	00000070 	andeq	r0, r0, r0, ror r0
  24:	00000074 	andeq	r0, r0, r4, ror r0
  28:	0000007c 	andeq	r0, r0, ip, ror r0
  2c:	000000dc 	ldrdeq	r0, [r0], -ip
	...
  38:	000001e4 	andeq	r0, r0, r4, ror #3
  3c:	0000021c 	andeq	r0, r0, ip, lsl r2
  40:	00000244 	andeq	r0, r0, r4, asr #4
  44:	0000028c 	andeq	r0, r0, ip, lsl #5
	...
  50:	0000012c 	andeq	r0, r0, ip, lsr #2
  54:	0000013c 	andeq	r0, r0, ip, lsr r1
  58:	00000148 	andeq	r0, r0, r8, asr #2
  5c:	00000194 	muleq	r0, r4, r1
	...
  68:	0000012c 	andeq	r0, r0, ip, lsr #2
  6c:	0000013c 	andeq	r0, r0, ip, lsr r1
  70:	00000158 	andeq	r0, r0, r8, asr r1
  74:	00000194 	muleq	r0, r4, r1
	...
  80:	000002a4 	andeq	r0, r0, r4, lsr #5
  84:	000002ac 	andeq	r0, r0, ip, lsr #5
  88:	000002b8 			; <UNDEFINED> instruction: 0x000002b8
  8c:	00000320 	andeq	r0, r0, r0, lsr #6
	...
  98:	000003bc 			; <UNDEFINED> instruction: 0x000003bc
  9c:	000003c4 	andeq	r0, r0, r4, asr #7
  a0:	000003d0 	ldrdeq	r0, [r0], -r0	; <UNPREDICTABLE>
  a4:	0000044c 	andeq	r0, r0, ip, asr #8
	...
  b0:	00000014 	andeq	r0, r0, r4, lsl r0
  b4:	00000020 	andeq	r0, r0, r0, lsr #32
  b8:	0000002c 	andeq	r0, r0, ip, lsr #32
  bc:	00000058 	andeq	r0, r0, r8, asr r0
  c0:	00000058 	andeq	r0, r0, r8, asr r0
  c4:	00000064 	andeq	r0, r0, r4, rrx
	...
  d0:	00000014 	andeq	r0, r0, r4, lsl r0
  d4:	00000018 	andeq	r0, r0, r8, lsl r0
  d8:	0000002c 	andeq	r0, r0, ip, lsr #32
  dc:	0000002c 	andeq	r0, r0, ip, lsr #32
  e0:	00000034 	andeq	r0, r0, r4, lsr r0
  e4:	00000038 	andeq	r0, r0, r8, lsr r0
  e8:	0000003c 	andeq	r0, r0, ip, lsr r0
  ec:	00000050 	andeq	r0, r0, r0, asr r0
	...
  f8:	0000002c 	andeq	r0, r0, ip, lsr #32
  fc:	0000002c 	andeq	r0, r0, ip, lsr #32
 100:	00000038 	andeq	r0, r0, r8, lsr r0
 104:	00000038 	andeq	r0, r0, r8, lsr r0
 108:	00000044 	andeq	r0, r0, r4, asr #32
 10c:	0000004c 	andeq	r0, r0, ip, asr #32
	...
 118:	000000a4 	andeq	r0, r0, r4, lsr #1
 11c:	00000148 	andeq	r0, r0, r8, asr #2
 120:	00000158 	andeq	r0, r0, r8, asr r1
 124:	0000015c 	andeq	r0, r0, ip, asr r1
 128:	00000274 	andeq	r0, r0, r4, ror r2
 12c:	00000278 	andeq	r0, r0, r8, ror r2
 130:	0000027c 	andeq	r0, r0, ip, ror r2
 134:	00000280 	andeq	r0, r0, r0, lsl #5
 138:	00000288 	andeq	r0, r0, r8, lsl #5
 13c:	0000029c 	muleq	r0, ip, r2
 140:	000002c0 	andeq	r0, r0, r0, asr #5
 144:	000002cc 	andeq	r0, r0, ip, asr #5
 148:	000002f0 	strdeq	r0, [r0], -r0	; <UNPREDICTABLE>
 14c:	000002f0 	strdeq	r0, [r0], -r0	; <UNPREDICTABLE>
 150:	000002f4 	strdeq	r0, [r0], -r4
 154:	000002f8 	strdeq	r0, [r0], -r8
	...
 160:	00000148 	andeq	r0, r0, r8, asr #2
 164:	00000158 	andeq	r0, r0, r8, asr r1
 168:	0000015c 	andeq	r0, r0, ip, asr r1
 16c:	0000018c 	andeq	r0, r0, ip, lsl #3
 170:	0000029c 	muleq	r0, ip, r2
 174:	000002ac 	andeq	r0, r0, ip, lsr #5
	...
 180:	000003c8 	andeq	r0, r0, r8, asr #7
 184:	000003d0 	ldrdeq	r0, [r0], -r0	; <UNPREDICTABLE>
 188:	00000404 	andeq	r0, r0, r4, lsl #8
 18c:	000004ac 	andeq	r0, r0, ip, lsr #9
 190:	000004c0 	andeq	r0, r0, r0, asr #9
 194:	00000920 	andeq	r0, r0, r0, lsr #18
 198:	00000928 	andeq	r0, r0, r8, lsr #18
 19c:	000009b4 			; <UNDEFINED> instruction: 0x000009b4
	...
 1a8:	000003c8 	andeq	r0, r0, r8, asr #7
 1ac:	000003d0 	ldrdeq	r0, [r0], -r0	; <UNPREDICTABLE>
 1b0:	00000504 	andeq	r0, r0, r4, lsl #10
 1b4:	000005d0 	ldrdeq	r0, [r0], -r0	; <UNPREDICTABLE>
 1b8:	00000800 	andeq	r0, r0, r0, lsl #16
 1bc:	00000888 	andeq	r0, r0, r8, lsl #17
 1c0:	00000930 	andeq	r0, r0, r0, lsr r9
 1c4:	000009b4 			; <UNDEFINED> instruction: 0x000009b4
	...
 1d0:	00000404 	andeq	r0, r0, r4, lsl #8
 1d4:	00000408 	andeq	r0, r0, r8, lsl #8
 1d8:	00000414 	andeq	r0, r0, r4, lsl r4
 1dc:	00000414 	andeq	r0, r0, r4, lsl r4
 1e0:	00000428 	andeq	r0, r0, r8, lsr #8
 1e4:	0000042c 	andeq	r0, r0, ip, lsr #8
	...
 1f0:	000005fc 	strdeq	r0, [r0], -ip
 1f4:	00000700 	andeq	r0, r0, r0, lsl #14
 1f8:	000007ec 	andeq	r0, r0, ip, ror #15
 1fc:	000007f4 	strdeq	r0, [r0], -r4
 200:	00000888 	andeq	r0, r0, r8, lsl #17
 204:	00000894 	muleq	r0, r4, r8
 208:	000008a8 	andeq	r0, r0, r8, lsr #17
 20c:	000008bc 			; <UNDEFINED> instruction: 0x000008bc
 210:	00000910 	andeq	r0, r0, r0, lsl r9
 214:	00000920 	andeq	r0, r0, r0, lsr #18
	...
 220:	00000600 	andeq	r0, r0, r0, lsl #12
 224:	00000604 	andeq	r0, r0, r4, lsl #12
 228:	00000608 	andeq	r0, r0, r8, lsl #12
 22c:	000006b4 			; <UNDEFINED> instruction: 0x000006b4
 230:	000006cc 	andeq	r0, r0, ip, asr #13
 234:	000006d0 	ldrdeq	r0, [r0], -r0	; <UNPREDICTABLE>
 238:	000008a8 	andeq	r0, r0, r8, lsr #17
 23c:	000008b8 			; <UNDEFINED> instruction: 0x000008b8
 240:	00000910 	andeq	r0, r0, r0, lsl r9
 244:	00000920 	andeq	r0, r0, r0, lsr #18
	...
 250:	000006b4 			; <UNDEFINED> instruction: 0x000006b4
 254:	000006cc 	andeq	r0, r0, ip, asr #13
 258:	000006d0 	ldrdeq	r0, [r0], -r0	; <UNPREDICTABLE>
 25c:	00000700 	andeq	r0, r0, r0, lsl #14
 260:	000007ec 	andeq	r0, r0, ip, ror #15
 264:	000007f4 	strdeq	r0, [r0], -r4
 268:	00000888 	andeq	r0, r0, r8, lsl #17
 26c:	00000894 	muleq	r0, r4, r8
 270:	000008b8 			; <UNDEFINED> instruction: 0x000008b8
 274:	000008bc 			; <UNDEFINED> instruction: 0x000008bc
	...
 280:	00000700 	andeq	r0, r0, r0, lsl #14
 284:	00000708 	andeq	r0, r0, r8, lsl #14
 288:	0000070c 	andeq	r0, r0, ip, lsl #14
 28c:	000007ec 	andeq	r0, r0, ip, ror #15
 290:	00000894 	muleq	r0, r4, r8
 294:	000008a8 	andeq	r0, r0, r8, lsr #17
	...
 2a0:	00000728 	andeq	r0, r0, r8, lsr #14
 2a4:	000007a4 	andeq	r0, r0, r4, lsr #15
 2a8:	000007ac 	andeq	r0, r0, ip, lsr #15
 2ac:	000007b0 			; <UNDEFINED> instruction: 0x000007b0
 2b0:	00000894 	muleq	r0, r4, r8
 2b4:	00000898 	muleq	r0, r8, r8
 2b8:	0000089c 	muleq	r0, ip, r8
 2bc:	000008a0 	andeq	r0, r0, r0, lsr #17
	...
 2c8:	000007a4 	andeq	r0, r0, r4, lsr #15
 2cc:	000007ac 	andeq	r0, r0, ip, lsr #15
 2d0:	000007b0 			; <UNDEFINED> instruction: 0x000007b0
 2d4:	000007ec 	andeq	r0, r0, ip, ror #15
 2d8:	00000898 	muleq	r0, r8, r8
 2dc:	0000089c 	muleq	r0, ip, r8
 2e0:	000008a0 	andeq	r0, r0, r0, lsr #17
 2e4:	000008a8 	andeq	r0, r0, r8, lsr #17
	...
 2f0:	000000f0 	strdeq	r0, [r0], -r0	; <UNPREDICTABLE>
 2f4:	000000f8 	strdeq	r0, [r0], -r8
 2f8:	000000fc 	strdeq	r0, [r0], -ip
 2fc:	00000108 	andeq	r0, r0, r8, lsl #2
	...
 308:	00009b4c 	andeq	r9, r0, ip, asr #22
 30c:	00009b4c 	andeq	r9, r0, ip, asr #22
 310:	00009b50 	andeq	r9, r0, r0, asr fp
 314:	00009b58 	andeq	r9, r0, r8, asr fp
	...
 320:	00009b20 	andeq	r9, r0, r0, lsr #22
 324:	00009bac 	andeq	r9, r0, ip, lsr #23
	...
 330:	00000030 	andeq	r0, r0, r0, lsr r0
 334:	00000030 	andeq	r0, r0, r0, lsr r0
 338:	00000038 	andeq	r0, r0, r8, lsr r0
 33c:	0000004c 	andeq	r0, r0, ip, asr #32
	...
 348:	0000004c 	andeq	r0, r0, ip, asr #32
 34c:	00000050 	andeq	r0, r0, r0, asr r0
 350:	00000050 	andeq	r0, r0, r0, asr r0
 354:	00000078 	andeq	r0, r0, r8, ror r0
	...
 360:	0000004c 	andeq	r0, r0, ip, asr #32
 364:	00000050 	andeq	r0, r0, r0, asr r0
 368:	00000050 	andeq	r0, r0, r0, asr r0
 36c:	00000060 	andeq	r0, r0, r0, rrx
 370:	00000064 	andeq	r0, r0, r4, rrx
 374:	00000068 	andeq	r0, r0, r8, rrx
	...
 380:	0000004c 	andeq	r0, r0, ip, asr #32
 384:	00000050 	andeq	r0, r0, r0, asr r0
 388:	00000054 	andeq	r0, r0, r4, asr r0
 38c:	00000060 	andeq	r0, r0, r0, rrx
	...
 398:	0000009c 	muleq	r0, ip, r0
 39c:	000000a0 	andeq	r0, r0, r0, lsr #1
 3a0:	000000a0 	andeq	r0, r0, r0, lsr #1
 3a4:	000000c8 	andeq	r0, r0, r8, asr #1
	...
 3b0:	0000009c 	muleq	r0, ip, r0
 3b4:	000000a0 	andeq	r0, r0, r0, lsr #1
 3b8:	000000a0 	andeq	r0, r0, r0, lsr #1
 3bc:	000000b0 	strheq	r0, [r0], -r0	; <UNPREDICTABLE>
 3c0:	000000b4 	strheq	r0, [r0], -r4
 3c4:	000000b8 	strheq	r0, [r0], -r8
	...
 3d0:	0000009c 	muleq	r0, ip, r0
 3d4:	000000a0 	andeq	r0, r0, r0, lsr #1
 3d8:	000000a4 	andeq	r0, r0, r4, lsr #1
 3dc:	000000b0 	strheq	r0, [r0], -r0	; <UNPREDICTABLE>
	...
 3e8:	000000c8 	andeq	r0, r0, r8, asr #1
 3ec:	000000c8 	andeq	r0, r0, r8, asr #1
 3f0:	000000cc 	andeq	r0, r0, ip, asr #1
 3f4:	0000011c 	andeq	r0, r0, ip, lsl r1
	...
 400:	000000f0 	strdeq	r0, [r0], -r0	; <UNPREDICTABLE>
 404:	000000f4 	strdeq	r0, [r0], -r4
 408:	000000f4 	strdeq	r0, [r0], -r4
 40c:	0000011c 	andeq	r0, r0, ip, lsl r1
	...
 418:	000000f0 	strdeq	r0, [r0], -r0	; <UNPREDICTABLE>
 41c:	000000f4 	strdeq	r0, [r0], -r4
 420:	000000f4 	strdeq	r0, [r0], -r4
 424:	00000104 	andeq	r0, r0, r4, lsl #2
 428:	00000108 	andeq	r0, r0, r8, lsl #2
 42c:	0000010c 	andeq	r0, r0, ip, lsl #2
	...
 438:	000000f0 	strdeq	r0, [r0], -r0	; <UNPREDICTABLE>
 43c:	000000f4 	strdeq	r0, [r0], -r4
 440:	000000f8 	strdeq	r0, [r0], -r8
 444:	00000104 	andeq	r0, r0, r4, lsl #2
	...
 450:	00000134 	andeq	r0, r0, r4, lsr r1
 454:	00000134 	andeq	r0, r0, r4, lsr r1
 458:	00000134 	andeq	r0, r0, r4, lsr r1
 45c:	0000013c 	andeq	r0, r0, ip, lsr r1
	...
 468:	0000024c 	andeq	r0, r0, ip, asr #4
 46c:	00000264 	andeq	r0, r0, r4, ror #4
 470:	000002c8 	andeq	r0, r0, r8, asr #5
 474:	000002e8 	andeq	r0, r0, r8, ror #5
	...
 480:	00000008 	andeq	r0, r0, r8
 484:	0000000c 	andeq	r0, r0, ip
 488:	00000014 	andeq	r0, r0, r4, lsl r0
 48c:	00000054 	andeq	r0, r0, r4, asr r0
 490:	00000058 	andeq	r0, r0, r8, asr r0
 494:	00000060 	andeq	r0, r0, r0, rrx
	...
 4a0:	00000060 	andeq	r0, r0, r0, rrx
 4a4:	00000068 	andeq	r0, r0, r8, rrx
 4a8:	0000006c 	andeq	r0, r0, ip, rrx
 4ac:	000000ac 	andeq	r0, r0, ip, lsr #1
 4b0:	000000b0 	strheq	r0, [r0], -r0	; <UNPREDICTABLE>
 4b4:	000000b8 	strheq	r0, [r0], -r8
	...
 4c0:	00000068 	andeq	r0, r0, r8, rrx
 4c4:	00000068 	andeq	r0, r0, r8, rrx
 4c8:	0000006c 	andeq	r0, r0, ip, rrx
 4cc:	000000ac 	andeq	r0, r0, ip, lsr #1
 4d0:	000000b0 	strheq	r0, [r0], -r0	; <UNPREDICTABLE>
 4d4:	000000b8 	strheq	r0, [r0], -r8
	...
 4e0:	000000e8 	andeq	r0, r0, r8, ror #1
 4e4:	000000f0 	strdeq	r0, [r0], -r0	; <UNPREDICTABLE>
 4e8:	000000f4 	strdeq	r0, [r0], -r4
 4ec:	00000134 	andeq	r0, r0, r4, lsr r1
 4f0:	00000138 	andeq	r0, r0, r8, lsr r1
 4f4:	00000140 	andeq	r0, r0, r0, asr #2
	...
 500:	000000f0 	strdeq	r0, [r0], -r0	; <UNPREDICTABLE>
 504:	000000f0 	strdeq	r0, [r0], -r0	; <UNPREDICTABLE>
 508:	000000f4 	strdeq	r0, [r0], -r4
 50c:	00000134 	andeq	r0, r0, r4, lsr r1
 510:	00000138 	andeq	r0, r0, r8, lsr r1
 514:	00000140 	andeq	r0, r0, r0, asr #2
	...
 520:	00000144 	andeq	r0, r0, r4, asr #2
 524:	00000148 	andeq	r0, r0, r8, asr #2
 528:	00000150 	andeq	r0, r0, r0, asr r1
 52c:	0000015c 	andeq	r0, r0, ip, asr r1
	...

Disassembly of section .debug_line:

00000000 <.debug_line>:
       0:	000001f8 	strdeq	r0, [r0], -r8
       4:	00ee0003 	rsceq	r0, lr, r3
       8:	01020000 	mrseq	r0, (UNDEF: 2)
       c:	000d0efb 	strdeq	r0, [sp], -fp
      10:	01010101 	tsteq	r1, r1, lsl #2
      14:	01000000 	mrseq	r0, (UNDEF: 0)
      18:	2e010000 	cdpcs	0, 0, cr0, cr1, cr0, {0}
      1c:	73657400 	cmnvc	r5, #0, 8
      20:	322d7374 	eorcc	r7, sp, #116, 6	; 0xd0000001
      24:	2f00302e 	svccs	0x0000302e
      28:	2f74706f 	svccs	0x0074706f
      2c:	656d6f68 	strbvs	r6, [sp, #-3944]!	; 0xfffff098
      30:	77657262 	strbvc	r7, [r5, -r2, ror #4]!
      34:	6c65432f 	stclvs	3, cr4, [r5], #-188	; 0xffffff44
      38:	2f72616c 	svccs	0x0072616c
      3c:	2d6d7261 	sfmcs	f7, 2, [sp, #-388]!	; 0xfffffe7c
      40:	656e6f6e 	strbvs	r6, [lr, #-3950]!	; 0xfffff092
      44:	6261652d 	rsbvs	r6, r1, #188743680	; 0xb400000
      48:	2f392d69 	svccs	0x00392d69
      4c:	30322d39 	eorscc	r2, r2, r9, lsr sp
      50:	34713931 	ldrbtcc	r3, [r1], #-2353	; 0xfffff6cf
      54:	3173632d 	cmncc	r3, sp, lsr #6
      58:	2f653730 	svccs	0x00653730
      5c:	2f62696c 	svccs	0x0062696c
      60:	2f636367 	svccs	0x00636367
      64:	2d6d7261 	sfmcs	f7, 2, [sp, #-388]!	; 0xfffffe7c
      68:	656e6f6e 	strbvs	r6, [lr, #-3950]!	; 0xfffff092
      6c:	6261652d 	rsbvs	r6, r1, #188743680	; 0xb400000
      70:	2e392f69 	cdpcs	15, 3, cr2, cr9, cr9, {3}
      74:	2f312e32 	svccs	0x00312e32
      78:	6c636e69 	stclvs	14, cr6, [r3], #-420	; 0xfffffe5c
      7c:	00656475 	rsbeq	r6, r5, r5, ror r4
      80:	6573552f 	ldrbvs	r5, [r3, #-1327]!	; 0xfffffad1
      84:	6d2f7372 	stcvs	3, cr7, [pc, #-456]!	; fffffec4 <__bss_end__+0xffff4d24>
      88:	73656c69 	cmnvc	r5, #26880	; 0x6900
      8c:	756f532f 	strbvc	r5, [pc, #-815]!	; fffffd65 <__bss_end__+0xffff4bc5>
      90:	2f656372 	svccs	0x00656372
      94:	34327363 	ldrtcc	r7, [r2], #-867	; 0xfffffc9d
      98:	2f786c30 	svccs	0x00786c30
      9c:	7062696c 	rsbvc	r6, r2, ip, ror #18
      a0:	6e692f69 	cdpvs	15, 6, cr2, cr9, cr9, {3}
      a4:	64756c63 	ldrbtvs	r6, [r5], #-3171	; 0xfffff39d
      a8:	63000065 	movwvs	r0, #101	; 0x65
      ac:	6c6c616b 	stfvse	f6, [ip], #-428	; 0xfffffe54
      b0:	682e636f 	stmdavs	lr!, {r0, r1, r2, r3, r5, r6, r8, r9, sp, lr}
      b4:	00000100 	andeq	r0, r0, r0, lsl #2
      b8:	74726170 	ldrbtvc	r6, [r2], #-368	; 0xfffffe90
      bc:	65742d32 	ldrbvs	r2, [r4, #-3378]!	; 0xfffff2ce
      c0:	2d347473 	cfldrscs	mvf7, [r4, #-460]!	; 0xfffffe34
      c4:	6c2d6f6e 	stcvs	15, cr6, [sp], #-440	; 0xfffffe48
      c8:	2e6b6165 	powcsez	f6, f3, f5
      cc:	00020063 	andeq	r0, r2, r3, rrx
      d0:	63727300 	cmnvs	r2, #0, 6
      d4:	636f6c2d 	cmnvs	pc, #11520	; 0x2d00
      d8:	0100682e 	tsteq	r0, lr, lsr #16
      dc:	74730000 	ldrbtvc	r0, [r3], #-0
      e0:	746e6964 	strbtvc	r6, [lr], #-2404	; 0xfffff69c
      e4:	6363672d 	cmnvs	r3, #11796480	; 0xb40000
      e8:	0300682e 	movweq	r6, #2094	; 0x82e
      ec:	70720000 	rsbsvc	r0, r2, r0
      f0:	00682e69 	rsbeq	r2, r8, r9, ror #28
      f4:	00000004 	andeq	r0, r0, r4
      f8:	05002405 	streq	r2, [r0, #-1029]	; 0xfffffbfb
      fc:	00804802 	addeq	r4, r0, r2, lsl #16
     100:	01230300 			; <UNDEFINED> instruction: 0x01230300
     104:	05050106 	streq	r0, [r5, #-262]	; 0xfffffefa
     108:	05136706 	ldreq	r6, [r3, #-1798]	; 0xfffff8fa
     10c:	2e130601 	cfmsub32cs	mvax0, mvfx0, mvfx3, mvfx1
     110:	12050204 	andne	r0, r5, #4, 4	; 0x40000000
     114:	82610306 	rsbhi	r0, r1, #402653184	; 0x18000000
     118:	18830505 	stmne	r3, {r0, r2, r8, sl}
     11c:	05010905 	streq	r0, [r1, #-2309]	; 0xfffff6fb
     120:	0501060d 	streq	r0, [r1, #-1549]	; 0xfffff9f3
     124:	05052c08 	streq	r2, [r5, #-3080]	; 0xfffff3f8
     128:	000d0530 	andeq	r0, sp, r0, lsr r5
     12c:	06010402 	streq	r0, [r1], -r2, lsl #8
     130:	04020033 	streq	r0, [r2], #-51	; 0xffffffcd
     134:	02000101 	andeq	r0, r0, #1073741824	; 0x40000000
     138:	05d60104 	ldrbeq	r0, [r6, #260]	; 0x104
     13c:	04020009 	streq	r0, [r2], #-9
     140:	02003202 	andeq	r3, r0, #536870912	; 0x20000000
     144:	01060204 	tsteq	r6, r4, lsl #4
     148:	02001d05 	andeq	r1, r0, #320	; 0x140
     14c:	03060204 	movweq	r0, #25092	; 0x6204
     150:	1e050177 	mcrne	1, 0, r0, cr5, cr7, {3}
     154:	02040200 	andeq	r0, r4, #0, 4
     158:	0b050106 	bleq	140578 <__bss_end__+0x1353d8>
     15c:	02040200 	andeq	r0, r4, #0, 4
     160:	002e0903 	eoreq	r0, lr, r3, lsl #18
     164:	2e020402 	cdpcs	4, 0, cr0, cr2, cr2, {0}
     168:	02001405 	andeq	r1, r0, #83886080	; 0x5000000
     16c:	03060104 	movweq	r0, #24836	; 0x6104
     170:	05050177 	streq	r0, [r5, #-375]	; 0xfffffe89
     174:	01040200 	mrseq	r0, R12_usr
     178:	09050106 	stmdbeq	r5, {r1, r2, r8}
     17c:	03044b06 	movweq	r4, #19206	; 0x4b06
     180:	050f0b05 	streq	r0, [pc, #-2821]	; fffff683 <__bss_end__+0xffff44e3>
     184:	0c051305 	stceq	3, cr1, [r5], {5}
     188:	04ba0106 	ldrteq	r0, [sl], #262	; 0x106
     18c:	141a0502 	ldrne	r0, [sl], #-1282	; 0xfffffafe
     190:	9f060905 	svcls	0x00060905
     194:	060e0567 	streq	r0, [lr], -r7, ror #10
     198:	06090501 	streq	r0, [r9], -r1, lsl #10
     19c:	060b054b 	streq	r0, [fp], -fp, asr #10
     1a0:	060d0501 	streq	r0, [sp], -r1, lsl #10
     1a4:	0200014b 	andeq	r0, r0, #-1073741806	; 0xc0000012
     1a8:	00660204 	rsbeq	r0, r6, r4, lsl #4
     1ac:	01020402 	tsteq	r2, r2, lsl #8
     1b0:	02040200 	andeq	r0, r4, #0, 4
     1b4:	00150513 	andseq	r0, r5, r3, lsl r5
     1b8:	06020402 	streq	r0, [r2], -r2, lsl #8
     1bc:	000d0501 	andeq	r0, sp, r1, lsl #10
     1c0:	06020402 	streq	r0, [r2], -r2, lsl #8
     1c4:	0015052f 	andseq	r0, r5, pc, lsr #10
     1c8:	06020402 	streq	r0, [r2], -r2, lsl #8
     1cc:	04020001 	streq	r0, [r2], #-1
     1d0:	05054a02 	streq	r4, [r5, #-2562]	; 0xfffff5fe
     1d4:	01090306 	tsteq	r9, r6, lsl #6
     1d8:	06010530 			; <UNDEFINED> instruction: 0x06010530
     1dc:	14056613 	strne	r6, [r5], #-1555	; 0xfffff9ed
     1e0:	0505d806 	streq	sp, [r5, #-2054]	; 0xfffff7fa
     1e4:	0f054d67 	svceq	0x00054d67
     1e8:	05050106 	streq	r0, [r5, #-262]	; 0xfffffefa
     1ec:	06014b06 	streq	r4, [r1], -r6, lsl #22
     1f0:	0582062e 	streq	r0, [r2, #1582]	; 0x62e
     1f4:	02130601 	andseq	r0, r3, #1048576	; 0x100000
     1f8:	01010006 	tsteq	r1, r6
     1fc:	000003d2 	ldrdeq	r0, [r0], -r2
     200:	00f40003 	rscseq	r0, r4, r3
     204:	01020000 	mrseq	r0, (UNDEF: 2)
     208:	000d0efb 	strdeq	r0, [sp], -fp
     20c:	01010101 	tsteq	r1, r1, lsl #2
     210:	01000000 	mrseq	r0, (UNDEF: 0)
     214:	2f010000 	svccs	0x00010000
     218:	2f74706f 	svccs	0x0074706f
     21c:	656d6f68 	strbvs	r6, [sp, #-3944]!	; 0xfffff098
     220:	77657262 	strbvc	r7, [r5, -r2, ror #4]!
     224:	6c65432f 	stclvs	3, cr4, [r5], #-188	; 0xffffff44
     228:	2f72616c 	svccs	0x0072616c
     22c:	2d6d7261 	sfmcs	f7, 2, [sp, #-388]!	; 0xfffffe7c
     230:	656e6f6e 	strbvs	r6, [lr, #-3950]!	; 0xfffff092
     234:	6261652d 	rsbvs	r6, r1, #188743680	; 0xb400000
     238:	2f392d69 	svccs	0x00392d69
     23c:	30322d39 	eorscc	r2, r2, r9, lsr sp
     240:	34713931 	ldrbtcc	r3, [r1], #-2353	; 0xfffff6cf
     244:	3173632d 	cmncc	r3, sp, lsr #6
     248:	2f653730 	svccs	0x00653730
     24c:	2f62696c 	svccs	0x0062696c
     250:	2f636367 	svccs	0x00636367
     254:	2d6d7261 	sfmcs	f7, 2, [sp, #-388]!	; 0xfffffe7c
     258:	656e6f6e 	strbvs	r6, [lr, #-3950]!	; 0xfffff092
     25c:	6261652d 	rsbvs	r6, r1, #188743680	; 0xb400000
     260:	2e392f69 	cdpcs	15, 3, cr2, cr9, cr9, {3}
     264:	2f312e32 	svccs	0x00312e32
     268:	6c636e69 	stclvs	14, cr6, [r3], #-420	; 0xfffffe5c
     26c:	00656475 	rsbeq	r6, r5, r5, ror r4
     270:	6573552f 	ldrbvs	r5, [r3, #-1327]!	; 0xfffffad1
     274:	6d2f7372 	stcvs	3, cr7, [pc, #-456]!	; b4 <__code_start__-0x7f4c>
     278:	73656c69 	cmnvc	r5, #26880	; 0x6900
     27c:	756f532f 	strbvc	r5, [pc, #-815]!	; ffffff55 <__bss_end__+0xffff4db5>
     280:	2f656372 	svccs	0x00656372
     284:	34327363 	ldrtcc	r7, [r2], #-867	; 0xfffffc9d
     288:	2f786c30 	svccs	0x00786c30
     28c:	7062696c 	rsbvc	r6, r2, ip, ror #18
     290:	6e692f69 	cdpvs	15, 6, cr2, cr9, cr9, {3}
     294:	64756c63 	ldrbtvs	r6, [r5], #-3171	; 0xfffff39d
     298:	63000065 	movwvs	r0, #101	; 0x65
     29c:	6c6c616b 	stfvse	f6, [ip], #-428	; 0xfffffe54
     2a0:	632e636f 			; <UNDEFINED> instruction: 0x632e636f
     2a4:	00000000 	andeq	r0, r0, r0
     2a8:	6c616b63 			; <UNDEFINED> instruction: 0x6c616b63
     2ac:	2e636f6c 	cdpcs	15, 6, cr6, cr3, cr12, {3}
     2b0:	00000068 	andeq	r0, r0, r8, rrx
     2b4:	64747300 	ldrbtvs	r7, [r4], #-768	; 0xfffffd00
     2b8:	2d746e69 	ldclcs	14, cr6, [r4, #-420]!	; 0xfffffe5c
     2bc:	2e636367 	cdpcs	3, 6, cr6, cr3, cr7, {3}
     2c0:	00010068 	andeq	r0, r1, r8, rrx
     2c4:	69707200 	ldmdbvs	r0!, {r9, ip, sp, lr}^
     2c8:	0200682e 	andeq	r6, r0, #3014656	; 0x2e0000
     2cc:	72730000 	rsbsvc	r0, r3, #0, 0
     2d0:	6f6c2d63 	svcvs	0x006c2d63
     2d4:	00682e63 	rsbeq	r2, r8, r3, ror #28
     2d8:	6b000000 	blvs	2e0 <__code_start__-0x7d20>
     2dc:	616d2d72 	smcvs	53970	; 0xd2d2
     2e0:	636f6c6c 	cmnvs	pc, #108, 24	; 0x6c00
     2e4:	0000682e 	andeq	r6, r0, lr, lsr #16
     2e8:	61620000 	cmnvs	r2, r0
     2ec:	72746b63 	rsbsvc	r6, r4, #101376	; 0x18c00
     2f0:	2e656361 	cdpcs	3, 6, cr6, cr5, cr1, {3}
     2f4:	00020068 	andeq	r0, r2, r8, rrx
     2f8:	01050000 	mrseq	r0, (UNDEF: 5)
     2fc:	90020500 	andls	r0, r2, r0, lsl #10
     300:	03000081 	movweq	r0, #129	; 0x81
     304:	05050110 	streq	r0, [r5, #-272]	; 0xfffffef0
     308:	06010567 	streq	r0, [r1], -r7, ror #10
     30c:	06f60613 	usateq	r0, #22, r3, lsl #12
     310:	06050501 	streq	r0, [r5], -r1, lsl #10
     314:	06080567 	streq	r0, [r8], -r7, ror #10
     318:	09052e01 	stmdbeq	r5, {r0, r9, sl, fp, sp}
     31c:	11052f06 	tstne	r5, r6, lsl #30
     320:	01050106 	tsteq	r5, r6, lsl #2
     324:	06bd0630 			; <UNDEFINED> instruction: 0x06bd0630
     328:	06050501 	streq	r0, [r5], -r1, lsl #10
     32c:	06010567 	streq	r0, [r1], -r7, ror #10
     330:	a2062e13 	andge	r2, r6, #304	; 0x130
     334:	05050106 	streq	r0, [r5, #-262]	; 0xfffffefa
     338:	14058306 	strne	r8, [r5], #-774	; 0xfffffcfa
     33c:	02040106 	andeq	r0, r4, #-2147483647	; 0x80000001
     340:	03061805 	movweq	r1, #26629	; 0x6805
     344:	05052e0d 	streq	r2, [r5, #-3597]	; 0xfffff1f3
     348:	060d0513 			; <UNDEFINED> instruction: 0x060d0513
     34c:	01042e01 	tsteq	r4, r1, lsl #28
     350:	73030105 	movwvc	r0, #12549	; 0x3105
     354:	06da0601 	ldrbeq	r0, [sl], r1, lsl #12
     358:	06050501 	streq	r0, [r5], -r1, lsl #10
     35c:	0611059f 			; <UNDEFINED> instruction: 0x0611059f
     360:	05052e01 	streq	r2, [r5, #-3585]	; 0xfffff1ff
     364:	11052f06 	tstne	r5, r6, lsl #30
     368:	052e0106 	streq	r0, [lr, #-262]!	; 0xfffffefa
     36c:	052f0605 	streq	r0, [pc, #-1541]!	; fffffd6f <__bss_end__+0xffff4bcf>
     370:	66130601 	ldrvs	r0, [r3], -r1, lsl #12
     374:	0106f506 	tsteq	r6, r6, lsl #10	; <UNPREDICTABLE>
     378:	03060505 	movweq	r0, #25861	; 0x6505
     37c:	0a05820c 	beq	160bb4 <__bss_end__+0x155a14>
     380:	06150501 	ldreq	r0, [r5], -r1, lsl #10
     384:	25052e01 	strcs	r2, [r5, #-3585]	; 0xfffff1ff
     388:	01040200 	mrseq	r0, R12_usr
     38c:	05052e06 	streq	r2, [r5, #-3590]	; 0xfffff1fa
     390:	01040200 	mrseq	r0, R12_usr
     394:	09050106 	stmdbeq	r5, {r1, r2, r8}
     398:	0d054d06 	stceq	13, cr4, [r5, #-24]	; 0xffffffe8
     39c:	054a0106 	strbeq	r0, [sl, #-262]	; 0xfffffefa
     3a0:	28052e0c 	stmdacs	r5, {r2, r3, r9, sl, fp, sp}
     3a4:	02040200 	andeq	r0, r4, #0, 4
     3a8:	2c054706 	stccs	7, cr4, [r5], {6}
     3ac:	02040200 	andeq	r0, r4, #0, 4
     3b0:	02000106 	andeq	r0, r0, #-2147483647	; 0x80000001
     3b4:	05660204 	strbeq	r0, [r6, #-516]!	; 0xfffffdfc
     3b8:	8333060d 	teqhi	r3, #13631488	; 0xd00000
     3bc:	01050106 	tsteq	r5, r6, lsl #2
     3c0:	1c030616 	stcne	6, cr0, [r3], {22}
     3c4:	ba0106ba 	blt	41eb4 <__bss_end__+0x36d14>
     3c8:	2f060505 	svccs	0x00060505
     3cc:	11051313 	tstne	r5, r3, lsl r3
     3d0:	05050106 	streq	r0, [r5, #-262]	; 0xfffffefa
     3d4:	f2016806 	vadd.i8	d6, d1, d6
     3d8:	0a051366 	beq	145178 <__bss_end__+0x139fd8>
     3dc:	08050106 	stmdaeq	r5, {r1, r2, r8}
     3e0:	4d0e052e 	cfstr32mi	mvfx0, [lr, #-184]	; 0xffffff48
     3e4:	02001505 	andeq	r1, r0, #20971520	; 0x1400000
     3e8:	2e060104 	adfcss	f0, f6, f4
     3ec:	02000505 	andeq	r0, r0, #20971520	; 0x1400000
     3f0:	01060104 	tsteq	r6, r4, lsl #2
     3f4:	4c060905 			; <UNDEFINED> instruction: 0x4c060905
     3f8:	01061305 	tsteq	r6, r5, lsl #6
     3fc:	054a0c05 	strbeq	r0, [sl, #-3077]	; 0xfffff3fb
     400:	054c060d 	strbeq	r0, [ip, #-1549]	; 0xfffff9f3
     404:	22051409 	andcs	r1, r5, #150994944	; 0x9000000
     408:	31050106 	tstcc	r5, r6, lsl #2
     40c:	2e0d052e 	cfsh32cs	mvfx0, mvfx13, #30
     410:	052e0c05 	streq	r0, [lr, #-3077]!	; 0xfffff3fb
     414:	0402000d 	streq	r0, [r2], #-13
     418:	054c0602 	strbeq	r0, [ip, #-1538]	; 0xfffff9fe
     41c:	04020029 	streq	r0, [r2], #-41	; 0xffffffd7
     420:	01780302 	cmneq	r8, r2, lsl #6
     424:	02002a05 	andeq	r2, r0, #20480	; 0x5000
     428:	01060204 	tsteq	r6, r4, lsl #4
     42c:	02040200 	andeq	r0, r4, #0, 4
     430:	0402002e 	streq	r0, [r2], #-46	; 0xffffffd2
     434:	09052e02 	stmdbeq	r5, {r1, r9, sl, fp, sp}
     438:	2e011006 	cdpcs	0, 0, cr1, cr1, cr6, {0}
     43c:	0d05669e 	stceq	6, cr6, [r5, #-632]	; 0xfffffd88
     440:	9e2e0134 	mcrls	1, 1, r0, cr14, cr4, {1}
     444:	2e01324a 	cdpcs	2, 0, cr3, cr1, cr10, {2}
     448:	2e064a9e 			; <UNDEFINED> instruction: 0x2e064a9e
     44c:	05170e05 	ldreq	r0, [r7, #-3589]	; 0xfffff1fb
     450:	04020015 	streq	r0, [r2], #-21	; 0xffffffeb
     454:	052e0601 	streq	r0, [lr, #-1537]!	; 0xfffff9ff
     458:	0402001a 	streq	r0, [r2], #-26	; 0xffffffe6
     45c:	05010601 	streq	r0, [r1, #-1537]	; 0xfffff9ff
     460:	04020005 	streq	r0, [r2], #-5
     464:	09052e01 	stmdbeq	r5, {r0, r9, sl, fp, sp}
     468:	03040200 	movweq	r0, #16896	; 0x4200
     46c:	1d053006 	stcne	0, cr3, [r5, #-24]	; 0xffffffe8
     470:	03040200 	movweq	r0, #16896	; 0x4200
     474:	2a050106 	bcs	140894 <__bss_end__+0x1356f4>
     478:	03040200 	movweq	r0, #16896	; 0x4200
     47c:	2b054806 	blcs	15249c <__bss_end__+0x1472fc>
     480:	03040200 	movweq	r0, #16896	; 0x4200
     484:	02000106 	andeq	r0, r0, #-2147483647	; 0x80000001
     488:	002e0304 	eoreq	r0, lr, r4, lsl #6
     48c:	2e030402 	cdpcs	4, 0, cr0, cr3, cr2, {0}
     490:	17060505 	strne	r0, [r6, -r5, lsl #10]
     494:	01060e05 	tsteq	r6, r5, lsl #28
     498:	0605052e 	streq	r0, [r5], -lr, lsr #10
     49c:	0611052f 	ldreq	r0, [r1], -pc, lsr #10
     4a0:	01052e01 	tsteq	r5, r1, lsl #28
     4a4:	08064a67 	stmdaeq	r6, {r0, r1, r2, r5, r6, r9, fp, lr}
     4a8:	0501065b 	streq	r0, [r1, #-1627]	; 0xfffff9a5
     4ac:	05670605 	strbeq	r0, [r7, #-1541]!	; 0xfffff9fb
     4b0:	05010608 	streq	r0, [r1, #-1544]	; 0xfffff9f8
     4b4:	04020024 	streq	r0, [r2], #-36	; 0xffffffdc
     4b8:	05056601 	streq	r6, [r5, #-1537]	; 0xfffff9ff
     4bc:	2b056a06 	blcs	15acdc <__bss_end__+0x14fb3c>
     4c0:	33050106 	movwcc	r0, #20742	; 0x5106
     4c4:	2e0c052e 	cfsh32cs	mvfx0, mvfx12, #30
     4c8:	2e2c1005 	cdpcs	0, 2, cr1, cr12, cr5, {0}
     4cc:	3101052e 	tstcc	r1, lr, lsr #10
     4d0:	0106a406 	tsteq	r6, r6, lsl #8
     4d4:	060505ba 			; <UNDEFINED> instruction: 0x060505ba
     4d8:	0610052f 	ldreq	r0, [r0], -pc, lsr #10
     4dc:	06050501 	streq	r0, [r5], -r1, lsl #10
     4e0:	0a056969 	beq	15aa8c <__bss_end__+0x14f8ec>
     4e4:	060e0501 	streq	r0, [lr], -r1, lsl #10
     4e8:	00150501 	andseq	r0, r5, r1, lsl #10
     4ec:	06010402 	streq	r0, [r1], -r2, lsl #8
     4f0:	0005052e 	andeq	r0, r5, lr, lsr #10
     4f4:	06010402 	streq	r0, [r1], -r2, lsl #8
     4f8:	00090501 	andeq	r0, r9, r1, lsl #10
     4fc:	06030402 	streq	r0, [r3], -r2, lsl #8
     500:	0013054c 	andseq	r0, r3, ip, asr #10
     504:	06030402 	streq	r0, [r3], -r2, lsl #8
     508:	00090501 	andeq	r0, r9, r1, lsl #10
     50c:	06030402 	streq	r0, [r3], -r2, lsl #8
     510:	00260567 	eoreq	r0, r6, r7, ror #10
     514:	06030402 	streq	r0, [r3], -r2, lsl #8
     518:	002b0501 	eoreq	r0, fp, r1, lsl #10
     51c:	4a030402 	bmi	c152c <__bss_end__+0xb638c>
     520:	02002905 	andeq	r2, r0, #81920	; 0x14000
     524:	2b060304 	blcs	18113c <__bss_end__+0x175f9c>
     528:	02002a05 	andeq	r2, r0, #20480	; 0x5000
     52c:	01060304 	tsteq	r6, r4, lsl #6
     530:	03040200 	movweq	r0, #16896	; 0x4200
     534:	0402002e 	streq	r0, [r2], #-46	; 0xffffffd2
     538:	05052e03 	streq	r2, [r5, #-3587]	; 0xfffff1fd
     53c:	15051806 	strne	r1, [r5, #-2054]	; 0xfffff7fa
     540:	05050106 	streq	r0, [r5, #-262]	; 0xfffffefa
     544:	0e052f06 	cdpeq	15, 0, cr2, cr5, cr6, {0}
     548:	052e0106 	streq	r0, [lr, #-262]!	; 0xfffffefa
     54c:	052f0605 	streq	r0, [pc, #-1541]!	; ffffff4f <__bss_end__+0xffff4daf>
     550:	05010612 	streq	r0, [r1, #-1554]	; 0xfffff9ee
     554:	05830605 	streq	r0, [r3, #1541]	; 0x605
     558:	0501060f 	streq	r0, [r1, #-1551]	; 0xfffff9f1
     55c:	014c0605 	cmpeq	ip, r5, lsl #12
     560:	05149e9e 	ldreq	r9, [r4, #-3742]	; 0xfffff162
     564:	0e05010a 	adfeqs	f0, f5, #2.0
     568:	15050106 	strne	r0, [r5, #-262]	; 0xfffffefa
     56c:	01040200 	mrseq	r0, R12_usr
     570:	05052e06 	streq	r2, [r5, #-3590]	; 0xfffff1fa
     574:	01040200 	mrseq	r0, R12_usr
     578:	09050106 	stmdbeq	r5, {r1, r2, r8}
     57c:	03040200 	movweq	r0, #16896	; 0x4200
     580:	17054c06 	strne	r4, [r5, -r6, lsl #24]
     584:	03040200 	movweq	r0, #16896	; 0x4200
     588:	09050106 	stmdbeq	r5, {r1, r2, r8}
     58c:	03040200 	movweq	r0, #16896	; 0x4200
     590:	0e056706 	cdpeq	7, 0, cr6, cr5, cr6, {0}
     594:	03040200 	movweq	r0, #16896	; 0x4200
     598:	22050106 	andcs	r0, r5, #-2147483647	; 0x80000001
     59c:	03040200 	movweq	r0, #16896	; 0x4200
     5a0:	24052b06 	strcs	r2, [r5], #-2822	; 0xfffff4fa
     5a4:	03040200 	movweq	r0, #16896	; 0x4200
     5a8:	02000106 	andeq	r0, r0, #-2147483647	; 0x80000001
     5ac:	002e0304 	eoreq	r0, lr, r4, lsl #6
     5b0:	2e030402 	cdpcs	4, 0, cr0, cr3, cr2, {0}
     5b4:	18060505 	stmdane	r6, {r0, r2, r8, sl}
     5b8:	01060d05 	tsteq	r6, r5, lsl #26
     5bc:	67060505 	strvs	r0, [r6, -r5, lsl #10]
     5c0:	01061005 	tsteq	r6, r5
     5c4:	30060505 	andcc	r0, r6, r5, lsl #10
     5c8:	14060105 	strne	r0, [r6], #-261	; 0xfffffefb
     5cc:	00080266 	andeq	r0, r8, r6, ror #4
     5d0:	02280101 	eoreq	r0, r8, #1073741824	; 0x40000000
     5d4:	00030000 	andeq	r0, r3, r0
     5d8:	00000064 	andeq	r0, r0, r4, rrx
     5dc:	0efb0102 	cdpeq	1, 15, cr0, cr11, cr2, {0}
     5e0:	0101000d 	tsteq	r1, sp
     5e4:	00000101 	andeq	r0, r0, r1, lsl #2
     5e8:	00000100 	andeq	r0, r0, r0, lsl #2
     5ec:	73552f01 	cmpvc	r5, #1, 30
     5f0:	2f737265 	svccs	0x00737265
     5f4:	656c696d 	strbvs	r6, [ip, #-2413]!	; 0xfffff693
     5f8:	6f532f73 	svcvs	0x00532f73
     5fc:	65637275 	strbvs	r7, [r3, #-629]!	; 0xfffffd8b
     600:	3273632f 	rsbscc	r6, r3, #-1140850688	; 0xbc000000
     604:	786c3034 	stmdavc	ip!, {r2, r4, r5, ip, sp}^
     608:	62696c2f 	rsbvs	r6, r9, #12032	; 0x2f00
     60c:	692f6970 	stmdbvs	pc!, {r4, r5, r6, r8, fp, sp, lr}	; <UNPREDICTABLE>
     610:	756c636e 	strbvc	r6, [ip, #-878]!	; 0xfffffc92
     614:	00006564 	andeq	r6, r0, r4, ror #10
     618:	6d2d726b 	sfmvs	f7, 4, [sp, #-428]!	; 0xfffffe54
     61c:	6f6c6c61 	svcvs	0x006c6c61
     620:	00632e63 	rsbeq	r2, r3, r3, ror #28
     624:	72000000 	andvc	r0, r0, #0, 0
     628:	682e6970 	stmdavs	lr!, {r4, r5, r6, r8, fp, sp, lr}
     62c:	00000100 	andeq	r0, r0, r0, lsl #2
     630:	6d2d726b 	sfmvs	f7, 4, [sp, #-428]!	; 0xfffffe54
     634:	6f6c6c61 	svcvs	0x006c6c61
     638:	00682e63 	rsbeq	r2, r8, r3, ror #28
     63c:	00000000 	andeq	r0, r0, r0
     640:	05000105 	streq	r0, [r0, #-261]	; 0xfffffefb
     644:	0085c802 	addeq	ip, r5, r2, lsl #16
     648:	00d30300 	sbcseq	r0, r3, r0, lsl #6
     64c:	05010601 	streq	r0, [r1, #-1537]	; 0xfffff9ff
     650:	13670602 	cmnne	r7, #2097152	; 0x200000
     654:	01060505 	tsteq	r6, r5, lsl #10
     658:	2f060205 	svccs	0x00060205
     65c:	01060905 	tsteq	r6, r5, lsl #18
     660:	2e4a0205 	cdpcs	2, 4, cr0, cr10, cr5, {0}
     664:	02001205 	andeq	r1, r0, #1342177280	; 0x50000000
     668:	2e060104 	adfcss	f0, f6, f4
     66c:	02000205 	andeq	r0, r0, #1342177280	; 0x50000000
     670:	01060104 	tsteq	r6, r4, lsl #2
     674:	02002705 	andeq	r2, r0, #1310720	; 0x140000
     678:	054a0304 	strbeq	r0, [sl, #-772]	; 0xfffffcfc
     67c:	04020012 	streq	r0, [r2], #-18	; 0xffffffee
     680:	03052e03 	movweq	r2, #24067	; 0x5e03
     684:	10054b06 	andne	r4, r5, r6, lsl #22
     688:	06050106 	streq	r0, [r5], -r6, lsl #2
     68c:	0015052e 	andseq	r0, r5, lr, lsr #10
     690:	4a010402 	bmi	416a0 <__bss_end__+0x36500>
     694:	02002005 	andeq	r2, r0, #5, 0
     698:	004a0204 	subeq	r0, sl, r4, lsl #4
     69c:	4a020402 	bmi	816ac <__bss_end__+0x7650c>
     6a0:	30060205 	andcc	r0, r6, r5, lsl #4
     6a4:	01061005 	tsteq	r6, r5
     6a8:	052e0905 	streq	r0, [lr, #-2309]!	; 0xfffff6fb
     6ac:	05052e1d 	streq	r2, [r5, #-3613]	; 0xfffff1e3
     6b0:	0603052e 	streq	r0, [r3], -lr, lsr #10
     6b4:	060d0550 			; <UNDEFINED> instruction: 0x060d0550
     6b8:	06020501 	streq	r0, [r2], -r1, lsl #10
     6bc:	060e052f 	streq	r0, [lr], -pc, lsr #10
     6c0:	2e080501 	cfsh32cs	mvfx0, mvfx8, #1
     6c4:	052e0505 	streq	r0, [lr, #-1285]!	; 0xfffffafb
     6c8:	05500603 	ldrbeq	r0, [r0, #-1539]	; 0xfffff9fd
     6cc:	0501060c 	streq	r0, [r1, #-1548]	; 0xfffff9f4
     6d0:	052f0602 	streq	r0, [pc, #-1538]!	; d6 <__code_start__-0x7f2a>
     6d4:	05010608 	streq	r0, [r1, #-1544]	; 0xfffff9f8
     6d8:	03054b01 	movweq	r4, #23297	; 0x5b01
     6dc:	2e730306 	cdpcs	3, 7, cr0, cr3, cr6, {0}
     6e0:	01061c05 	tsteq	r6, r5, lsl #24
     6e4:	052e0e05 	streq	r0, [lr, #-3589]!	; 0xfffff1fb
     6e8:	054b0603 	strbeq	r0, [fp, #-1539]	; 0xfffff9fd
     6ec:	05010613 	streq	r0, [r1, #-1555]	; 0xfffff9ed
     6f0:	0d052e1a 	stceq	14, cr2, [r5, #-104]	; 0xffffff98
     6f4:	0603052e 	streq	r0, [r3], -lr, lsr #10
     6f8:	06150550 			; <UNDEFINED> instruction: 0x06150550
     6fc:	2e0d0501 	cfsh32cs	mvfx0, mvfx13, #1
     700:	4b060305 	blmi	18131c <__bss_end__+0x17617c>
     704:	01061305 	tsteq	r6, r5, lsl #6
     708:	052e0c05 	streq	r0, [lr, #-3077]!	; 0xfffff3fb
     70c:	b9030601 	stmdblt	r3, {r0, r9, sl}
     710:	0106d67f 	tsteq	r6, pc, ror r6
     714:	83060205 	movwhi	r0, #25093	; 0x6205
     718:	01060505 	tsteq	r6, r5, lsl #10
     71c:	052f0605 	streq	r0, [pc, #-1541]!	; 11f <__code_start__-0x7ee1>
     720:	672f0602 	strvs	r0, [pc, -r2, lsl #12]!
     724:	01060d05 	tsteq	r6, r5, lsl #26
     728:	4b060205 	blmi	180f44 <__bss_end__+0x175da4>
     72c:	01060505 	tsteq	r6, r5, lsl #10
     730:	4c060205 	sfmmi	f0, 4, [r6], {5}
     734:	060d0513 			; <UNDEFINED> instruction: 0x060d0513
     738:	06020501 	streq	r0, [r2], -r1, lsl #10
     73c:	062e062f 	strteq	r0, [lr], -pc, lsr #12
     740:	0609052f 	streq	r0, [r9], -pc, lsr #10
     744:	620a0501 	andvs	r0, sl, #4194304	; 0x400000
     748:	06330105 	ldrteq	r0, [r3], -r5, lsl #2
     74c:	050106da 	streq	r0, [r1, #-1754]	; 0xfffff926
     750:	13670602 	cmnne	r7, #2097152	; 0x200000
     754:	06240514 			; <UNDEFINED> instruction: 0x06240514
     758:	2e290501 	cfsh64cs	mvdx0, mvdx9, #1
     75c:	052e0905 	streq	r0, [lr, #-2309]!	; 0xfffff6fb
     760:	052f0602 	streq	r0, [pc, #-1538]!	; 166 <__code_start__-0x7e9a>
     764:	0501060d 	streq	r0, [r1, #-1549]	; 0xfffff9f3
     768:	02054a05 	andeq	r4, r5, #20480	; 0x5000
     76c:	09055006 	stmdbeq	r5, {r1, r2, ip, lr}
     770:	052e0106 	streq	r0, [lr, #-262]!	; 0xfffffefa
     774:	052a0603 	streq	r0, [sl, #-1539]!	; 0xfffff9fd
     778:	05010616 	streq	r0, [r1, #-1558]	; 0xfffff9ea
     77c:	03054a0e 	movweq	r4, #23054	; 0x5a0e
     780:	0f052f06 	svceq	0x00052f06
     784:	04050106 	streq	r0, [r5], #-262	; 0xfffffefa
     788:	07056d06 	streq	r6, [r5, -r6, lsl #26]
     78c:	05050106 	streq	r0, [r5, #-262]	; 0xfffffefa
     790:	0f053406 	svceq	0x00053406
     794:	05050106 	streq	r0, [r5, #-262]	; 0xfffffefa
     798:	07054b06 	streq	r4, [r5, -r6, lsl #22]
     79c:	05050106 	streq	r0, [r5, #-262]	; 0xfffffefa
     7a0:	0f052f06 	svceq	0x00052f06
     7a4:	04050106 	streq	r0, [r5], #-262	; 0xfffffefa
     7a8:	0a053006 	beq	14c7c8 <__bss_end__+0x141628>
     7ac:	04050106 	streq	r0, [r5], #-262	; 0xfffffefa
     7b0:	0b054b06 	bleq	1533d0 <__bss_end__+0x148230>
     7b4:	052e0106 	streq	r0, [lr, #-262]!	; 0xfffffefa
     7b8:	77030605 	strvc	r0, [r3, -r5, lsl #12]
     7bc:	0618052e 	ldreq	r0, [r8], -lr, lsr #10
     7c0:	2e120501 	cfmul32cs	mvfx0, mvfx2, mvfx1
     7c4:	03061a05 	movweq	r1, #27141	; 0x6a05
     7c8:	18054a7a 	stmdane	r5, {r1, r3, r4, r5, r6, r9, fp, lr}
     7cc:	06200501 	strteq	r0, [r0], -r1, lsl #10
     7d0:	2e270501 	cfsh64cs	mvdx0, mvdx7, #1
     7d4:	30060305 	andcc	r0, r6, r5, lsl #6
     7d8:	01060b05 	tsteq	r6, r5, lsl #22
     7dc:	052e0605 	streq	r0, [lr, #-1541]!	; 0xfffff9fb
     7e0:	0f030603 	svceq	0x00030603
     7e4:	0609054a 	streq	r0, [r9], -sl, asr #10
     7e8:	4a060501 	bmi	181bf4 <__bss_end__+0x176a54>
     7ec:	4c060405 	cfstrsmi	mvf0, [r6], {5}
     7f0:	01060d05 	tsteq	r6, r5, lsl #26
     7f4:	2e07052e 	cfsh32cs	mvfx0, mvfx7, #30
     7f8:	0006022e 	andeq	r0, r6, lr, lsr #4
     7fc:	05380101 	ldreq	r0, [r8, #-257]!	; 0xfffffeff
     800:	00030000 	andeq	r0, r3, r0
     804:	000000d4 	ldrdeq	r0, [r0], -r4
     808:	0efb0102 	cdpeq	1, 15, cr0, cr11, cr2, {0}
     80c:	0101000d 	tsteq	r1, sp
     810:	00000101 	andeq	r0, r0, r1, lsl #2
     814:	00000100 	andeq	r0, r0, r0, lsl #2
     818:	706f2f01 	rsbvc	r2, pc, r1, lsl #30
     81c:	6f682f74 	svcvs	0x00682f74
     820:	7262656d 	rsbvc	r6, r2, #457179136	; 0x1b400000
     824:	432f7765 			; <UNDEFINED> instruction: 0x432f7765
     828:	616c6c65 	cmnvs	ip, r5, ror #24
     82c:	72612f72 	rsbvc	r2, r1, #456	; 0x1c8
     830:	6f6e2d6d 	svcvs	0x006e2d6d
     834:	652d656e 	strvs	r6, [sp, #-1390]!	; 0xfffffa92
     838:	2d696261 	sfmcs	f6, 2, [r9, #-388]!	; 0xfffffe7c
     83c:	2d392f39 	ldccs	15, cr2, [r9, #-228]!	; 0xffffff1c
     840:	39313032 	ldmdbcc	r1!, {r1, r4, r5, ip, sp}
     844:	632d3471 			; <UNDEFINED> instruction: 0x632d3471
     848:	37303173 			; <UNDEFINED> instruction: 0x37303173
     84c:	696c2f65 	stmdbvs	ip!, {r0, r2, r5, r6, r8, r9, sl, fp, sp}^
     850:	63672f62 	cmnvs	r7, #392	; 0x188
     854:	72612f63 	rsbvc	r2, r1, #396	; 0x18c
     858:	6f6e2d6d 	svcvs	0x006e2d6d
     85c:	652d656e 	strvs	r6, [sp, #-1390]!	; 0xfffffa92
     860:	2f696261 	svccs	0x00696261
     864:	2e322e39 	mrccs	14, 1, r2, cr2, cr9, {1}
     868:	6e692f31 	mcrvs	15, 3, r2, cr9, cr1, {1}
     86c:	64756c63 	ldrbtvs	r6, [r5], #-3171	; 0xfffff39d
     870:	552f0065 	strpl	r0, [pc, #-101]!	; 813 <__code_start__-0x77ed>
     874:	73726573 	cmnvc	r2, #482344960	; 0x1cc00000
     878:	6c696d2f 	stclvs	13, cr6, [r9], #-188	; 0xffffff44
     87c:	532f7365 			; <UNDEFINED> instruction: 0x532f7365
     880:	6372756f 	cmnvs	r2, #465567744	; 0x1bc00000
     884:	73632f65 	cmnvc	r3, #404	; 0x194
     888:	6c303432 	cfldrsvs	mvf3, [r0], #-200	; 0xffffff38
     88c:	696c2f78 	stmdbvs	ip!, {r3, r4, r5, r6, r8, r9, sl, fp, sp}^
     890:	2f697062 	svccs	0x00697062
     894:	6c636e69 	stclvs	14, cr6, [r3], #-420	; 0xfffffe5c
     898:	00656475 	rsbeq	r6, r5, r5, ror r4
     89c:	2d6b6300 	stclcs	3, cr6, [fp, #-0]
     8a0:	632e6367 			; <UNDEFINED> instruction: 0x632e6367
     8a4:	00000000 	andeq	r0, r0, r0
     8a8:	2d637273 	sfmcs	f7, 2, [r3, #-460]!	; 0xfffffe34
     8ac:	2e636f6c 	cdpcs	15, 6, cr6, cr3, cr12, {3}
     8b0:	00000068 	andeq	r0, r0, r8, rrx
     8b4:	64747300 	ldrbtvs	r7, [r4], #-768	; 0xfffffd00
     8b8:	2d746e69 	ldclcs	14, cr6, [r4, #-420]!	; 0xfffffe5c
     8bc:	2e636367 	cdpcs	3, 6, cr6, cr3, cr7, {3}
     8c0:	00010068 	andeq	r0, r1, r8, rrx
     8c4:	69707200 	ldmdbvs	r0!, {r9, ip, sp, lr}^
     8c8:	0200682e 	andeq	r6, r0, #3014656	; 0x2e0000
     8cc:	6b630000 	blvs	18c08d4 <__bss_end__+0x18b5734>
     8d0:	6f6c6c61 	svcvs	0x006c6c61
     8d4:	00682e63 	rsbeq	r2, r8, r3, ror #28
     8d8:	00000000 	andeq	r0, r0, r0
     8dc:	05000105 	streq	r0, [r0, #-261]	; 0xfffffefb
     8e0:	0087c802 	addeq	ip, r7, r2, lsl #16
     8e4:	012b0300 			; <UNDEFINED> instruction: 0x012b0300
     8e8:	05050106 	streq	r0, [r5, #-262]	; 0xfffffefa
     8ec:	0b056806 	bleq	15a90c <__bss_end__+0x14f76c>
     8f0:	08050106 	stmdaeq	r5, {r1, r2, r8}
     8f4:	001d054a 	andseq	r0, sp, sl, asr #10
     8f8:	4a010402 	bmi	41908 <__bss_end__+0x36768>
     8fc:	02001805 	andeq	r1, r0, #327680	; 0x50000
     900:	054a0104 	strbeq	r0, [sl, #-260]	; 0xfffffefc
     904:	052e4d0c 	streq	r4, [lr, #-3340]!	; 0xfffff2f4
     908:	2e2e2c10 	mcrcs	12, 1, r2, cr14, cr0, {0}
     90c:	06310105 	ldrteq	r0, [r1], -r5, lsl #2
     910:	069e0b03 	ldreq	r0, [lr], r3, lsl #22
     914:	06050501 	streq	r0, [r5], -r1, lsl #10
     918:	0a051483 	beq	145b2c <__bss_end__+0x13a98c>
     91c:	08050106 	stmdaeq	r5, {r1, r2, r8}
     920:	0605052e 	streq	r0, [r5], -lr, lsr #10
     924:	060c054c 	streq	r0, [ip], -ip, asr #10
     928:	65100501 	ldrvs	r0, [r0, #-1281]	; 0xfffffaff
     92c:	06300105 	ldrteq	r0, [r0], -r5, lsl #2
     930:	06820e03 	streq	r0, [r2], r3, lsl #28
     934:	06050501 	streq	r0, [r5], -r1, lsl #10
     938:	02000183 	andeq	r0, r0, #-1073741792	; 0xc0000020
     93c:	00820204 	addeq	r0, r2, r4, lsl #4
     940:	01020402 	tsteq	r2, r2, lsl #8
     944:	02040200 	andeq	r0, r4, #0, 4
     948:	04020015 	streq	r0, [r2], #-21	; 0xffffffeb
     94c:	02000102 	andeq	r0, r0, #-2147483648	; 0x80000000
     950:	004a0204 	subeq	r0, sl, r4, lsl #4
     954:	01020402 	tsteq	r2, r2, lsl #8
     958:	02040200 	andeq	r0, r4, #0, 4
     95c:	04020013 	streq	r0, [r2], #-19	; 0xffffffed
     960:	02000102 	andeq	r0, r0, #-2147483648	; 0x80000000
     964:	004a0104 	subeq	r0, sl, r4, lsl #2
     968:	01010402 	tsteq	r1, r2, lsl #8
     96c:	01040200 	mrseq	r0, R12_usr
     970:	02009e06 	andeq	r9, r0, #96	; 0x60
     974:	002e0104 	eoreq	r0, lr, r4, lsl #2
     978:	06010402 	streq	r0, [r1], -r2, lsl #8
     97c:	0402002e 	streq	r0, [r2], #-46	; 0xffffffd2
     980:	02002a01 	andeq	r2, r0, #4096	; 0x1000
     984:	00010104 	andeq	r0, r1, r4, lsl #2
     988:	06010402 	streq	r0, [r1], -r2, lsl #8
     98c:	0402009e 	streq	r0, [r2], #-158	; 0xffffff62
     990:	02002e01 	andeq	r2, r0, #1, 28
     994:	2e060104 	adfcss	f0, f6, f4
     998:	01040200 	mrseq	r0, R12_usr
     99c:	04020031 	streq	r0, [r2], #-49	; 0xffffffcf
     9a0:	02000101 	andeq	r0, r0, #1073741824	; 0x40000000
     9a4:	9e060104 	adflss	f0, f6, f4
     9a8:	01040200 	mrseq	r0, R12_usr
     9ac:	0402002e 	streq	r0, [r2], #-46	; 0xffffffd2
     9b0:	052e0601 	streq	r0, [lr, #-1537]!	; 0xfffff9ff
     9b4:	0d030619 	stceq	6, cr0, [r3, #-100]	; 0xffffff9c
     9b8:	0402002e 	streq	r0, [r2], #-46	; 0xffffffd2
     9bc:	11052e04 	tstne	r5, r4, lsl #28
     9c0:	04040200 	streq	r0, [r4], #-512	; 0xfffffe00
     9c4:	14053206 	strne	r3, [r5], #-518	; 0xfffffdfa
     9c8:	04040200 	streq	r0, [r4], #-512	; 0xfffffe00
     9cc:	0d050106 	stfeqs	f0, [r5, #-24]	; 0xffffffe8
     9d0:	02040200 	andeq	r0, r4, #0, 4
     9d4:	23055206 	movwcs	r5, #20998	; 0x5206
     9d8:	02040200 	andeq	r0, r4, #0, 4
     9dc:	05016a03 	streq	r6, [r1, #-2563]	; 0xfffff5fd
     9e0:	04020024 	streq	r0, [r2], #-36	; 0xffffffdc
     9e4:	05010602 	streq	r0, [r1, #-1538]	; 0xfffff9fe
     9e8:	0402001b 	streq	r0, [r2], #-27	; 0xffffffe5
     9ec:	052e0601 	streq	r0, [lr, #-1537]!	; 0xfffff9ff
     9f0:	04020005 	streq	r0, [r2], #-5
     9f4:	05010601 	streq	r0, [r1, #-1537]	; 0xfffff9ff
     9f8:	054c0609 	strbeq	r0, [ip, #-1545]	; 0xfffff9f7
     9fc:	05010614 	streq	r0, [r1, #-1556]	; 0xfffff9ec
     a00:	054b0609 	strbeq	r0, [fp, #-1545]	; 0xfffff9f7
     a04:	2e01060c 	cfmadd32cs	mvax0, mvfx0, mvfx1, mvfx12
     a08:	30060d05 	andcc	r0, r6, r5, lsl #26
     a0c:	01062905 	tsteq	r6, r5, lsl #18
     a10:	2f060d05 	svccs	0x00060d05
     a14:	01061605 	tsteq	r6, r5, lsl #12
     a18:	30060d05 	andcc	r0, r6, r5, lsl #26
     a1c:	01061005 	tsteq	r6, r5
     a20:	4c061105 	stfmis	f1, [r6], {5}
     a24:	01061c05 	tsteq	r6, r5, lsl #24
     a28:	662e1905 	strtvs	r1, [lr], -r5, lsl #18
     a2c:	34061505 	strcc	r1, [r6], #-1285	; 0xfffffafb
     a30:	01064d05 	tsteq	r6, r5, lsl #26
     a34:	662e1505 	strtvs	r1, [lr], -r5, lsl #10
     a38:	01052e2e 	tsteq	r5, lr, lsr #28
     a3c:	4a010903 	bmi	42e50 <__bss_end__+0x37cb0>
     a40:	08090306 	stmdaeq	r9, {r1, r2, r8, r9}
     a44:	8605053c 			; <UNDEFINED> instruction: 0x8605053c
     a48:	05010a05 	streq	r0, [r1, #-2565]	; 0xfffff5fb
     a4c:	05010615 	streq	r0, [r1, #-1557]	; 0xfffff9eb
     a50:	04020025 	streq	r0, [r2], #-37	; 0xffffffdb
     a54:	052e0601 	streq	r0, [lr, #-1537]!	; 0xfffff9ff
     a58:	04020005 	streq	r0, [r2], #-5
     a5c:	05010601 	streq	r0, [r1, #-1537]	; 0xfffff9ff
     a60:	04020009 	streq	r0, [r2], #-9
     a64:	054c0603 	strbeq	r0, [ip, #-1539]	; 0xfffff9fd
     a68:	04020032 	streq	r0, [r2], #-50	; 0xffffffce
     a6c:	05010603 	streq	r0, [r1, #-1539]	; 0xfffff9fd
     a70:	04020021 	streq	r0, [r2], #-33	; 0xffffffdf
     a74:	11054a03 	tstne	r5, r3, lsl #20
     a78:	03040200 	movweq	r0, #16896	; 0x4200
     a7c:	0028052e 	eoreq	r0, r8, lr, lsr #10
     a80:	06030402 	streq	r0, [r3], -r2, lsl #8
     a84:	002c052c 	eoreq	r0, ip, ip, lsr #10
     a88:	06030402 	streq	r0, [r3], -r2, lsl #8
     a8c:	04020001 	streq	r0, [r2], #-1
     a90:	02002e03 	andeq	r2, r0, #3, 28	; 0x30
     a94:	052e0304 	streq	r0, [lr, #-772]!	; 0xfffffcfc
     a98:	13190605 	tstne	r9, #5242880	; 0x500000
     a9c:	30062e06 	andcc	r2, r6, r6, lsl #28
     aa0:	01060d05 	tsteq	r6, r5, lsl #26
     aa4:	4b060505 	blmi	181ec0 <__bss_end__+0x176d20>
     aa8:	01060d05 	tsteq	r6, r5, lsl #26
     aac:	2f060505 	svccs	0x00060505
     ab0:	01060d05 	tsteq	r6, r5, lsl #26
     ab4:	2f060505 	svccs	0x00060505
     ab8:	01060d05 	tsteq	r6, r5, lsl #26
     abc:	35060505 	strcc	r0, [r6, #-1285]	; 0xfffffafb
     ac0:	6983136a 	stmibvs	r3, {r1, r3, r5, r6, r8, r9, ip}
     ac4:	05136813 	ldreq	r6, [r3, #-2067]	; 0xfffff7ed
     ac8:	06670601 	strbteq	r0, [r7], -r1, lsl #12
     acc:	01065e08 	tsteq	r6, r8, lsl #28
     ad0:	83060505 	movwhi	r0, #25861	; 0x6505
     ad4:	062e0613 			; <UNDEFINED> instruction: 0x062e0613
     ad8:	052f4c2f 	streq	r4, [pc, #-3119]!	; fffffeb1 <__bss_end__+0xffff4d11>
     adc:	1505010a 	strne	r0, [r5, #-266]	; 0xfffffef6
     ae0:	054a0106 	strbeq	r0, [sl, #-262]	; 0xfffffefa
     ae4:	1b050d27 	blne	143f88 <__bss_end__+0x138de8>
     ae8:	2e0e052e 	cfsh32cs	mvfx0, mvfx14, #30
     aec:	05330505 	ldreq	r0, [r3, #-1285]!	; 0xfffffafb
     af0:	0903060d 	stmdbeq	r3, {r0, r2, r3, r9, sl}
     af4:	0613052e 	ldreq	r0, [r3], -lr, lsr #10
     af8:	060d0501 	streq	r0, [sp], -r1, lsl #10
     afc:	0566062f 	strbeq	r0, [r6, #-1583]!	; 0xfffff9d1
     b00:	04020028 	streq	r0, [r2], #-40	; 0xffffffd8
     b04:	76030602 	strvc	r0, [r3], -r2, lsl #12
     b08:	002c052e 	eoreq	r0, ip, lr, lsr #10
     b0c:	06020402 	streq	r0, [r2], -r2, lsl #8
     b10:	00250501 	eoreq	r0, r5, r1, lsl #10
     b14:	06010402 	streq	r0, [r1], -r2, lsl #8
     b18:	00050566 	andeq	r0, r5, r6, ror #10
     b1c:	06010402 	streq	r0, [r1], -r2, lsl #8
     b20:	06090501 	streq	r0, [r9], -r1, lsl #10
     b24:	060e054c 	streq	r0, [lr], -ip, asr #10
     b28:	2e0c0501 	cfsh32cs	mvfx0, mvfx12, #1
     b2c:	4e060905 	vmlami.f16	s0, s12, s10	; <UNPREDICTABLE>
     b30:	01061005 	tsteq	r6, r5
     b34:	2f060905 	svccs	0x00060905
     b38:	01060e05 	tsteq	r6, r5, lsl #28
     b3c:	052e0c05 	streq	r0, [lr, #-3077]!	; 0xfffff3fb
     b40:	054f060e 	strbeq	r0, [pc, #-1550]	; 53a <__code_start__-0x7ac6>
     b44:	05010611 	streq	r0, [r1, #-1553]	; 0xfffff9ef
     b48:	054c060d 	strbeq	r0, [ip, #-1549]	; 0xfffff9f3
     b4c:	05010619 	streq	r0, [r1, #-1561]	; 0xfffff9e7
     b50:	062f060d 	strteq	r0, [pc], -sp, lsl #12
     b54:	052e2e66 	streq	r2, [lr, #-3686]!	; 0xfffff19a
     b58:	01160605 	tsteq	r6, r5, lsl #12
     b5c:	2e064a06 	vmlacs.f32	s8, s12, s12
     b60:	06080513 			; <UNDEFINED> instruction: 0x06080513
     b64:	06090501 	streq	r0, [r9], -r1, lsl #10
     b68:	004a014b 	subeq	r0, sl, fp, asr #2
     b6c:	14010402 	strne	r0, [r1], #-1026	; 0xfffffbfe
     b70:	02000505 	andeq	r0, r0, #20971520	; 0x1400000
     b74:	00140104 	andseq	r0, r4, r4, lsl #2
     b78:	4b010402 	blmi	41b88 <__bss_end__+0x369e8>
     b7c:	02000805 	andeq	r0, r0, #327680	; 0x50000
     b80:	01060104 	tsteq	r6, r4, lsl #2
     b84:	30060905 	andcc	r0, r6, r5, lsl #18
     b88:	01061705 	tsteq	r6, r5, lsl #14
     b8c:	05340105 	ldreq	r0, [r4, #-261]!	; 0xfffffefb
     b90:	75030609 	strvc	r0, [r3, #-1545]	; 0xfffff9f7
     b94:	0105014a 	tsteq	r5, sl, asr #2
     b98:	22023503 	andcs	r3, r2, #12582912	; 0xc00000
     b9c:	83050501 	movwhi	r0, #21761	; 0x5501
     ba0:	2f4c4b13 	svccs	0x004c4b13
     ba4:	05010a05 	streq	r0, [r1, #-2565]	; 0xfffff5fb
     ba8:	4a010615 	bmi	42404 <__bss_end__+0x37264>
     bac:	050d2705 	streq	r2, [sp, #-1797]	; 0xfffff8fb
     bb0:	0e052e1b 	mcreq	14, 0, r2, cr5, cr11, {0}
     bb4:	3305052e 	movwcc	r0, #21806	; 0x552e
     bb8:	33060d05 	movwcc	r0, #27909	; 0x6d05
     bbc:	01061305 	tsteq	r6, r5, lsl #6
     bc0:	2f060d05 	svccs	0x00060d05
     bc4:	01061e05 	tsteq	r6, r5, lsl #28
     bc8:	052e1a05 	streq	r1, [lr, #-2565]!	; 0xfffff5fb
     bcc:	042f060d 	strteq	r0, [pc], #-1549	; bd4 <__code_start__-0x742c>
     bd0:	030b0502 	movweq	r0, #46338	; 0xb502
     bd4:	052e7e88 	streq	r7, [lr, #-3720]!	; 0xfffff178
     bd8:	0c051305 	stceq	3, cr1, [r5], {5}
     bdc:	04ba0106 	ldrteq	r0, [sl], #262	; 0x106
     be0:	030d0501 	movweq	r0, #54529	; 0xd501
     be4:	660101f7 			; <UNDEFINED> instruction: 0x660101f7
     be8:	28052f06 	stmdacs	r5, {r1, r2, r8, r9, sl, fp, sp}
     bec:	02040200 	andeq	r0, r4, #0, 4
     bf0:	05667803 	strbeq	r7, [r6, #-2051]!	; 0xfffff7fd
     bf4:	0402002c 	streq	r0, [r2], #-44	; 0xffffffd4
     bf8:	05010602 	streq	r0, [r1, #-1538]	; 0xfffff9fe
     bfc:	04020025 	streq	r0, [r2], #-37	; 0xffffffdb
     c00:	05660601 	strbeq	r0, [r6, #-1537]!	; 0xfffff9ff
     c04:	04020005 	streq	r0, [r2], #-5
     c08:	05010601 	streq	r0, [r1, #-1537]	; 0xfffff9ff
     c0c:	054c0609 	strbeq	r0, [ip, #-1545]	; 0xfffff9f7
     c10:	05010610 	streq	r0, [r1, #-1552]	; 0xfffff9f0
     c14:	052f0609 	streq	r0, [pc, #-1545]!	; 613 <__code_start__-0x79ed>
     c18:	0501060e 	streq	r0, [r1, #-1550]	; 0xfffff9f2
     c1c:	1e052e0c 	cdpne	14, 0, cr2, cr5, cr12, {0}
     c20:	01040200 	mrseq	r0, R12_usr
     c24:	001a054a 	andseq	r0, sl, sl, asr #10
     c28:	2e010402 	cdpcs	4, 0, cr0, cr1, cr2, {0}
     c2c:	01040200 	mrseq	r0, R12_usr
     c30:	06050566 	streq	r0, [r5], -r6, ror #10
     c34:	01010903 	tsteq	r1, r3, lsl #18
     c38:	2e068206 	cdpcs	2, 0, cr8, cr6, cr6, {0}
     c3c:	06010514 			; <UNDEFINED> instruction: 0x06010514
     c40:	03066613 	movweq	r6, #26131	; 0x6613
     c44:	3c087e87 	stccc	14, cr7, [r8], {135}	; 0x87
     c48:	05050106 	streq	r0, [r5, #-262]	; 0xfffffefa
     c4c:	01148306 	tsteq	r4, r6, lsl #6
     c50:	02040200 	andeq	r0, r4, #0, 4
     c54:	0402004a 	streq	r0, [r2], #-74	; 0xffffffb6
     c58:	02000102 	andeq	r0, r0, #-2147483648	; 0x80000000
     c5c:	05130204 	ldreq	r0, [r3, #-516]	; 0xfffffdfc
     c60:	04020009 	streq	r0, [r2], #-9
     c64:	05010602 	streq	r0, [r1, #-1538]	; 0xfffff9fe
     c68:	04020008 	streq	r0, [r2], #-8
     c6c:	09054a02 	stmdbeq	r5, {r1, r9, fp, lr}
     c70:	13154b06 	tstne	r5, #6144	; 0x1800
     c74:	01061405 	tsteq	r6, r5, lsl #8
     c78:	0609054a 	streq	r0, [r9], -sl, asr #10
     c7c:	0612052f 	ldreq	r0, [r2], -pc, lsr #10
     c80:	06090501 	streq	r0, [r9], -r1, lsl #10
     c84:	10054b4b 	andne	r4, r5, fp, asr #22
     c88:	05050106 	streq	r0, [r5, #-262]	; 0xfffffefa
     c8c:	0c054c06 	stceq	12, cr4, [r5], {6}
     c90:	01050106 	tsteq	r5, r6, lsl #2
     c94:	0005054b 	andeq	r0, r5, fp, asr #10
     c98:	06010402 	streq	r0, [r1], -r2, lsl #8
     c9c:	004a7403 	subeq	r7, sl, r3, lsl #8
     ca0:	01010402 	tsteq	r1, r2, lsl #8
     ca4:	01040200 	mrseq	r0, R12_usr
     ca8:	0200ba06 	andeq	fp, r0, #24576	; 0x6000
     cac:	2e060104 	adfcss	f0, f6, f4
     cb0:	01300905 	teqeq	r0, r5, lsl #18
     cb4:	2e068206 	cdpcs	2, 0, cr8, cr6, cr6, {0}
     cb8:	ba030105 	blt	c10d4 <__bss_end__+0xb5f34>
     cbc:	06740801 	ldrbteq	r0, [r4], -r1, lsl #16
     cc0:	06050501 	streq	r0, [r5], -r1, lsl #10
     cc4:	060c0568 	streq	r0, [ip], -r8, ror #10
     cc8:	2f010501 	svccs	0x00010501
     ccc:	0505be06 	streq	fp, [r5, #-3590]	; 0xfffff1fa
     cd0:	0905136a 	stmdbeq	r5, {r1, r3, r5, r6, r8, r9, ip}
     cd4:	08050106 	stmdaeq	r5, {r1, r2, r8}
     cd8:	0609054a 	streq	r0, [r9], -sl, asr #10
     cdc:	4a01144b 	bmi	45e10 <__bss_end__+0x3ac70>
     ce0:	05130505 	ldreq	r0, [r3, #-1285]	; 0xfffffafb
     ce4:	05130601 	ldreq	r0, [r3, #-1537]	; 0xfffff9ff
     ce8:	012a0609 			; <UNDEFINED> instruction: 0x012a0609
     cec:	0801059e 	stmdaeq	r1, {r1, r2, r3, r4, r7, r8, sl}
     cf0:	6a050560 	bvs	142278 <__bss_end__+0x1370d8>
     cf4:	06170513 			; <UNDEFINED> instruction: 0x06170513
     cf8:	06050501 	streq	r0, [r5], -r1, lsl #10
     cfc:	0608054b 	streq	r0, [r8], -fp, asr #10
     d00:	06090501 	streq	r0, [r9], -r1, lsl #10
     d04:	0601144b 	streq	r1, [r1], -fp, asr #8
     d08:	052e064a 	streq	r0, [lr, #-1610]!	; 0xfffff9b6
     d0c:	05131305 	ldreq	r1, [r3, #-773]	; 0xfffffcfb
     d10:	05130601 	ldreq	r0, [r3, #-1537]	; 0xfffff9ff
     d14:	01450609 	cmpeq	r5, r9, lsl #12
     d18:	0301059e 	movweq	r0, #5534	; 0x159e
     d1c:	0505f221 	streq	pc, [r5, #-545]	; 0xfffffddf
     d20:	17052f67 	strne	r2, [r5, -r7, ror #30]
     d24:	05050106 	streq	r0, [r5, #-262]	; 0xfffffefa
     d28:	01053206 	tsteq	r5, r6, lsl #4
     d2c:	bd061306 	stclt	3, cr1, [r6, #-24]	; 0xffffffe8
     d30:	01670505 	cmneq	r7, r5, lsl #10
     d34:	000a029e 	muleq	sl, lr, r2
     d38:	01360101 	teqeq	r6, r1, lsl #2
     d3c:	00030000 	andeq	r0, r3, r0
     d40:	0000005b 	andeq	r0, r0, fp, asr r0
     d44:	0efb0102 	cdpeq	1, 15, cr0, cr11, cr2, {0}
     d48:	0101000d 	tsteq	r1, sp
     d4c:	00000101 	andeq	r0, r0, r1, lsl #2
     d50:	00000100 	andeq	r0, r0, r0, lsl #2
     d54:	732f2e01 			; <UNDEFINED> instruction: 0x732f2e01
     d58:	2f006372 	svccs	0x00006372
     d5c:	72657355 	rsbvc	r7, r5, #1409286145	; 0x54000001
     d60:	696d2f73 	stmdbvs	sp!, {r0, r1, r4, r5, r6, r8, r9, sl, fp, sp}^
     d64:	2f73656c 	svccs	0x0073656c
     d68:	72756f53 	rsbsvc	r6, r5, #332	; 0x14c
     d6c:	632f6563 			; <UNDEFINED> instruction: 0x632f6563
     d70:	30343273 	eorscc	r3, r4, r3, ror r2
     d74:	6c2f786c 	stcvs	8, cr7, [pc], #-432	; bcc <__code_start__-0x7434>
     d78:	69706269 	ldmdbvs	r0!, {r0, r3, r5, r6, r9, sp, lr}^
     d7c:	636e692f 	cmnvs	lr, #770048	; 0xbc000
     d80:	6564756c 	strbvs	r7, [r4, #-1388]!	; 0xfffffa94
     d84:	61620000 	cmnvs	r2, r0
     d88:	72746b63 	rsbsvc	r6, r4, #101376	; 0x18c00
     d8c:	2e656361 	cdpcs	3, 6, cr6, cr5, cr1, {3}
     d90:	00010063 	andeq	r0, r1, r3, rrx
     d94:	69707200 	ldmdbvs	r0!, {r9, ip, sp, lr}^
     d98:	0200682e 	andeq	r6, r0, #3014656	; 0x2e0000
     d9c:	05000000 	streq	r0, [r0, #-0]
     da0:	02050011 	andeq	r0, r5, #17, 0
     da4:	00008e6c 	andeq	r8, r0, ip, ror #28
     da8:	05011c03 	streq	r1, [r1, #-3075]	; 0xfffff3fd
     dac:	05131305 	ldreq	r1, [r3, #-773]	; 0xfffffcfb
     db0:	05100611 	ldreq	r0, [r0, #-1553]	; 0xfffff9ef
     db4:	30063005 	andcc	r3, r6, r5
     db8:	05010a05 	streq	r0, [r1, #-2565]	; 0xfffff5fb
     dbc:	05050115 	streq	r0, [r5, #-277]	; 0xfffffeeb
     dc0:	0e050106 	adfeqs	f0, f5, f6
     dc4:	0310054a 	tsteq	r0, #310378496	; 0x12800000
     dc8:	09052e27 	stmdbeq	r5, {r0, r1, r2, r5, r9, sl, fp, sp}
     dcc:	4a2e5b03 	bmi	b979e0 <__bss_end__+0xb8c840>
     dd0:	02002f05 	andeq	r2, r0, #5, 30
     dd4:	05100204 	ldreq	r0, [r0, #-516]	; 0xfffffdfc
     dd8:	04020015 	streq	r0, [r2], #-21	; 0xffffffeb
     ddc:	052e0602 	streq	r0, [lr, #-1538]!	; 0xfffff9fe
     de0:	04020005 	streq	r0, [r2], #-5
     de4:	05010602 	streq	r0, [r1, #-1538]	; 0xfffff9fe
     de8:	034b0609 	movteq	r0, #46601	; 0xb609
     dec:	17050123 	strne	r0, [r5, -r3, lsr #2]
     df0:	015d0306 	cmpeq	sp, r6, lsl #6
     df4:	052f0905 	streq	r0, [pc, #-2309]!	; 4f7 <__code_start__-0x7b09>
     df8:	2e20030e 	cdpcs	3, 2, cr0, cr0, cr14, {0}
     dfc:	31060905 	tstcc	r6, r5, lsl #18
     e00:	03061205 	movweq	r1, #25093	; 0x6205
     e04:	0905015c 	stmdbeq	r5, {r2, r3, r4, r6, r8}
     e08:	0d052f06 	stceq	15, cr2, [r5, #-24]	; 0xffffffe8
     e0c:	05011f03 	streq	r1, [r1, #-3843]	; 0xfffff0fd
     e10:	05131305 	ldreq	r1, [r3, #-773]	; 0xfffffcfb
     e14:	05010608 	streq	r0, [r1, #-1544]	; 0xfffff9f8
     e18:	12052d31 	andne	r2, r5, #3136	; 0xc40
     e1c:	2f310530 	svccs	0x00310530
     e20:	1410052e 	ldrne	r0, [r0], #-1326	; 0xfffffad2
     e24:	0309052e 	movweq	r0, #38190	; 0x952e
     e28:	4b06015b 	blmi	18139c <__bss_end__+0x1761fc>
     e2c:	050f2e05 	streq	r2, [pc, #-3589]	; 2f <__code_start__-0x7fd1>
     e30:	0515061f 	ldreq	r0, [r5, #-1567]	; 0xfffff9e1
     e34:	052f0609 	streq	r0, [pc, #-1545]!	; 833 <__code_start__-0x77cd>
     e38:	0501060c 	streq	r0, [r1, #-1548]	; 0xfffff9f4
     e3c:	0c055001 	stceq	0, cr5, [r5], {1}
     e40:	2f010549 	svccs	0x00010549
     e44:	03062d05 	movweq	r2, #27909	; 0x6d05
     e48:	05058217 	streq	r8, [r5, #-535]	; 0xfffffde9
     e4c:	060e0513 			; <UNDEFINED> instruction: 0x060e0513
     e50:	06050501 	streq	r0, [r5], -r1, lsl #10
     e54:	0631052f 	ldrteq	r0, [r1], -pc, lsr #10
     e58:	2f080511 	svccs	0x00080511
     e5c:	2f060905 	svccs	0x00060905
     e60:	06120513 			; <UNDEFINED> instruction: 0x06120513
     e64:	2f310511 	svccs	0x00310511
     e68:	1410052e 	ldrne	r0, [r0], #-1326	; 0xfffffad2
     e6c:	02300105 	eorseq	r0, r0, #1073741825	; 0x40000001
     e70:	01010004 	tsteq	r1, r4
     e74:	00000121 	andeq	r0, r0, r1, lsr #2
     e78:	00be0003 	adcseq	r0, lr, r3
     e7c:	01020000 	mrseq	r0, (UNDEF: 2)
     e80:	000d0efb 	strdeq	r0, [sp], -fp
     e84:	01010101 	tsteq	r1, r1, lsl #2
     e88:	01000000 	mrseq	r0, (UNDEF: 0)
     e8c:	2e010000 	cdpcs	0, 0, cr0, cr1, cr0, {0}
     e90:	62696c2f 	rsbvs	r6, r9, #12032	; 0x2f00
     e94:	552f0063 	strpl	r0, [pc, #-99]!	; e39 <__code_start__-0x71c7>
     e98:	73726573 	cmnvc	r2, #482344960	; 0x1cc00000
     e9c:	6c696d2f 	stclvs	13, cr6, [r9], #-188	; 0xffffff44
     ea0:	532f7365 			; <UNDEFINED> instruction: 0x532f7365
     ea4:	6372756f 	cmnvs	r2, #465567744	; 0x1bc00000
     ea8:	73632f65 	cmnvc	r3, #404	; 0x194
     eac:	6c303432 	cfldrsvs	mvf3, [r0], #-200	; 0xffffff38
     eb0:	696c2f78 	stmdbvs	ip!, {r3, r4, r5, r6, r8, r9, sl, fp, sp}^
     eb4:	2f697062 	svccs	0x00697062
     eb8:	6c636e69 	stclvs	14, cr6, [r3], #-420	; 0xfffffe5c
     ebc:	00656475 	rsbeq	r6, r5, r5, ror r4
     ec0:	74706f2f 	ldrbtvc	r6, [r0], #-3887	; 0xfffff0d1
     ec4:	6d6f682f 	stclvs	8, cr6, [pc, #-188]!	; e10 <__code_start__-0x71f0>
     ec8:	65726265 	ldrbvs	r6, [r2, #-613]!	; 0xfffffd9b
     ecc:	65432f77 	strbvs	r2, [r3, #-3959]	; 0xfffff089
     ed0:	72616c6c 	rsbvc	r6, r1, #108, 24	; 0x6c00
     ed4:	6d72612f 	ldfvse	f6, [r2, #-188]!	; 0xffffff44
     ed8:	6e6f6e2d 	cdpvs	14, 6, cr6, cr15, cr13, {1}
     edc:	61652d65 	cmnvs	r5, r5, ror #26
     ee0:	392d6962 	pushcc	{r1, r5, r6, r8, fp, sp, lr}
     ee4:	322d392f 	eorcc	r3, sp, #770048	; 0xbc000
     ee8:	71393130 	teqvc	r9, r0, lsr r1
     eec:	73632d34 	cmnvc	r3, #52, 26	; 0xd00
     ef0:	65373031 	ldrvs	r3, [r7, #-49]!	; 0xffffffcf
     ef4:	62696c2f 	rsbvs	r6, r9, #12032	; 0x2f00
     ef8:	6363672f 	cmnvs	r3, #12320768	; 0xbc0000
     efc:	6d72612f 	ldfvse	f6, [r2, #-188]!	; 0xffffff44
     f00:	6e6f6e2d 	cdpvs	14, 6, cr6, cr15, cr13, {1}
     f04:	61652d65 	cmnvs	r5, r5, ror #26
     f08:	392f6962 	stmdbcc	pc!, {r1, r5, r6, r8, fp, sp, lr}	; <UNPREDICTABLE>
     f0c:	312e322e 			; <UNDEFINED> instruction: 0x312e322e
     f10:	636e692f 	cmnvs	lr, #770048	; 0xbc000
     f14:	6564756c 	strbvs	r7, [r4, #-1388]!	; 0xfffffa94
     f18:	656d0000 	strbvs	r0, [sp, #-0]!
     f1c:	7465736d 	strbtvc	r7, [r5], #-877	; 0xfffffc93
     f20:	0100632e 	tsteq	r0, lr, lsr #6
     f24:	70720000 	rsbsvc	r0, r2, r0
     f28:	00682e69 	rsbeq	r2, r8, r9, ror #28
     f2c:	73000002 	movwvc	r0, #2
     f30:	65646474 	strbvs	r6, [r4, #-1140]!	; 0xfffffb8c
     f34:	00682e66 	rsbeq	r2, r8, r6, ror #28
     f38:	00000003 	andeq	r0, r0, r3
     f3c:	05002905 	streq	r2, [r0, #-2309]	; 0xfffff6fb
     f40:	008f0c02 	addeq	r0, pc, r2, lsl #24
     f44:	05051500 	streq	r1, [r5, #-1280]	; 0xfffffb00
     f48:	06290513 			; <UNDEFINED> instruction: 0x06290513
     f4c:	2f140511 	svccs	0x00140511
     f50:	30060505 	andcc	r0, r6, r5, lsl #10
     f54:	06010a05 	streq	r0, [r1], -r5, lsl #20
     f58:	0609059e 			; <UNDEFINED> instruction: 0x0609059e
     f5c:	060e05d7 			; <UNDEFINED> instruction: 0x060e05d7
     f60:	060a0501 	streq	r0, [sl], -r1, lsl #10
     f64:	bb09052d 	bllt	242420 <__bss_end__+0x237280>
     f68:	01060e05 	tsteq	r6, r5, lsl #28
     f6c:	060a052e 	streq	r0, [sl], -lr, lsr #10
     f70:	4b09052d 	blmi	24242c <__bss_end__+0x23728c>
     f74:	01060b05 	tsteq	r6, r5, lsl #22
     f78:	052d0a05 	streq	r0, [sp, #-2565]!	; 0xfffff5fb
     f7c:	0a052f0e 	beq	14cbbc <__bss_end__+0x141a1c>
     f80:	0e052d06 	cdpeq	13, 0, cr2, cr5, cr6, {0}
     f84:	09051306 	stmdbeq	r5, {r1, r2, r8, r9, ip}
     f88:	0a052e06 	beq	14c7a8 <__bss_end__+0x141608>
     f8c:	14050511 	strne	r0, [r5], #-1297	; 0xfffffaef
     f90:	13060105 	movwne	r0, #24837	; 0x6105
     f94:	01000202 	tsteq	r0, r2, lsl #4
     f98:	00012001 	andeq	r2, r1, r1
     f9c:	db000300 	blle	1ba4 <__code_start__-0x645c>
     fa0:	02000000 	andeq	r0, r0, #0, 0
     fa4:	0d0efb01 	vstreq	d15, [lr, #-4]
     fa8:	01010100 	mrseq	r0, (UNDEF: 17)
     fac:	00000001 	andeq	r0, r0, r1
     fb0:	01000001 	tsteq	r0, r1
     fb4:	696c2f2e 	stmdbvs	ip!, {r1, r2, r3, r5, r8, r9, sl, fp, sp}^
     fb8:	2f006362 	svccs	0x00006362
     fbc:	2f74706f 	svccs	0x0074706f
     fc0:	656d6f68 	strbvs	r6, [sp, #-3944]!	; 0xfffff098
     fc4:	77657262 	strbvc	r7, [r5, -r2, ror #4]!
     fc8:	6c65432f 	stclvs	3, cr4, [r5], #-188	; 0xffffff44
     fcc:	2f72616c 	svccs	0x0072616c
     fd0:	2d6d7261 	sfmcs	f7, 2, [sp, #-388]!	; 0xfffffe7c
     fd4:	656e6f6e 	strbvs	r6, [lr, #-3950]!	; 0xfffff092
     fd8:	6261652d 	rsbvs	r6, r1, #188743680	; 0xb400000
     fdc:	2f392d69 	svccs	0x00392d69
     fe0:	30322d39 	eorscc	r2, r2, r9, lsr sp
     fe4:	34713931 	ldrbtcc	r3, [r1], #-2353	; 0xfffff6cf
     fe8:	3173632d 	cmncc	r3, sp, lsr #6
     fec:	2f653730 	svccs	0x00653730
     ff0:	2f62696c 	svccs	0x0062696c
     ff4:	2f636367 	svccs	0x00636367
     ff8:	2d6d7261 	sfmcs	f7, 2, [sp, #-388]!	; 0xfffffe7c
     ffc:	656e6f6e 	strbvs	r6, [lr, #-3950]!	; 0xfffff092
    1000:	6261652d 	rsbvs	r6, r1, #188743680	; 0xb400000
    1004:	2e392f69 	cdpcs	15, 3, cr2, cr9, cr9, {3}
    1008:	2f312e32 	svccs	0x00312e32
    100c:	6c636e69 	stclvs	14, cr6, [r3], #-420	; 0xfffffe5c
    1010:	00656475 	rsbeq	r6, r5, r5, ror r4
    1014:	6573552f 	ldrbvs	r5, [r3, #-1327]!	; 0xfffffad1
    1018:	6d2f7372 	stcvs	3, cr7, [pc, #-456]!	; e58 <__code_start__-0x71a8>
    101c:	73656c69 	cmnvc	r5, #26880	; 0x6900
    1020:	756f532f 	strbvc	r5, [pc, #-815]!	; cf9 <__code_start__-0x7307>
    1024:	2f656372 	svccs	0x00656372
    1028:	34327363 	ldrtcc	r7, [r2], #-867	; 0xfffffc9d
    102c:	2f786c30 	svccs	0x00786c30
    1030:	7062696c 	rsbvc	r6, r2, ip, ror #18
    1034:	6e692f69 	cdpvs	15, 6, cr2, cr9, cr9, {3}
    1038:	64756c63 	ldrbtvs	r6, [r5], #-3171	; 0xfffff39d
    103c:	70000065 	andvc	r0, r0, r5, rrx
    1040:	746e6972 	strbtvc	r6, [lr], #-2418	; 0xfffff68e
    1044:	00632e6b 	rsbeq	r2, r3, fp, ror #28
    1048:	73000001 	movwvc	r0, #1
    104c:	72616474 	rsbvc	r6, r1, #116, 8	; 0x74000000
    1050:	00682e67 	rsbeq	r2, r8, r7, ror #28
    1054:	72000002 	andvc	r0, r0, #2, 0
    1058:	682e6970 	stmdavs	lr!, {r4, r5, r6, r8, fp, sp, lr}
    105c:	00000300 	andeq	r0, r0, r0, lsl #6
    1060:	6975623c 	ldmdbvs	r5!, {r2, r3, r4, r5, r9, sp, lr}^
    1064:	692d746c 	pushvs	{r2, r3, r5, r6, sl, ip, sp, lr}
    1068:	00003e6e 	andeq	r3, r0, lr, ror #28
    106c:	61760000 	cmnvs	r6, r0
    1070:	6972702d 	ldmdbvs	r2!, {r0, r2, r3, r5, ip, sp, lr}^
    1074:	2e6b746e 	cdpcs	4, 6, cr7, cr11, cr14, {3}
    1078:	00010068 	andeq	r0, r1, r8, rrx
    107c:	22050000 	andcs	r0, r5, #0, 0
    1080:	84020500 	strhi	r0, [r2], #-1280	; 0xfffffb00
    1084:	1700008f 	strne	r0, [r0, -pc, lsl #1]
    1088:	13140505 	tstne	r4, #20971520	; 0x1400000
    108c:	06220514 			; <UNDEFINED> instruction: 0x06220514
    1090:	5012050d 	andspl	r0, r2, sp, lsl #10
    1094:	7a032205 	bvc	c98b0 <__bss_end__+0xbe710>
    1098:	3305052e 	movwcc	r0, #21806	; 0x552e
    109c:	052f1205 	streq	r1, [pc, #-517]!	; e9f <__code_start__-0x7161>
    10a0:	09056505 	stmdbeq	r5, {r0, r2, r8, sl, sp, lr}
    10a4:	12052f06 	andne	r2, r5, #6, 30
    10a8:	05050106 	streq	r0, [r5, #-262]	; 0xfffffefa
    10ac:	06164b06 	ldreq	r4, [r6], -r6, lsl #22
    10b0:	0550064a 	ldrbeq	r0, [r0, #-1610]	; 0xfffff9b6
    10b4:	66130601 	ldrvs	r0, [r3], -r1, lsl #12
    10b8:	01000802 	tsteq	r0, r2, lsl #16
    10bc:	0000a001 	andeq	sl, r0, r1
    10c0:	57000300 	strpl	r0, [r0, -r0, lsl #6]
    10c4:	02000000 	andeq	r0, r0, #0, 0
    10c8:	0d0efb01 	vstreq	d15, [lr, #-4]
    10cc:	01010100 	mrseq	r0, (UNDEF: 17)
    10d0:	00000001 	andeq	r0, r0, r1
    10d4:	01000001 	tsteq	r0, r1
    10d8:	696c2f2e 	stmdbvs	ip!, {r1, r2, r3, r5, r8, r9, sl, fp, sp}^
    10dc:	2f006362 	svccs	0x00006362
    10e0:	72657355 	rsbvc	r7, r5, #1409286145	; 0x54000001
    10e4:	696d2f73 	stmdbvs	sp!, {r0, r1, r4, r5, r6, r8, r9, sl, fp, sp}^
    10e8:	2f73656c 	svccs	0x0073656c
    10ec:	72756f53 	rsbsvc	r6, r5, #332	; 0x14c
    10f0:	632f6563 			; <UNDEFINED> instruction: 0x632f6563
    10f4:	30343273 	eorscc	r3, r4, r3, ror r2
    10f8:	6c2f786c 	stcvs	8, cr7, [pc], #-432	; f50 <__code_start__-0x70b0>
    10fc:	69706269 	ldmdbvs	r0!, {r0, r3, r5, r6, r9, sp, lr}^
    1100:	636e692f 	cmnvs	lr, #770048	; 0xbc000
    1104:	6564756c 	strbvs	r7, [r4, #-1388]!	; 0xfffffa94
    1108:	75700000 	ldrbvc	r0, [r0, #-0]!
    110c:	632e6b74 			; <UNDEFINED> instruction: 0x632e6b74
    1110:	00000100 	andeq	r0, r0, r0, lsl #2
    1114:	2e697072 	mcrcs	0, 3, r7, cr9, cr2, {3}
    1118:	00020068 	andeq	r0, r2, r8, rrx
    111c:	22050000 	andcs	r0, r5, #0, 0
    1120:	dc020500 	cfstr32le	mvfx0, [r2], {-0}
    1124:	1500008f 	strne	r0, [r0, #-143]	; 0xffffff71
    1128:	05130505 	ldreq	r0, [r3, #-1285]	; 0xfffffafb
    112c:	2e110622 	cfmsub32cs	mvax1, mvfx0, mvfx1, mvfx2
    1130:	2f060b05 	svccs	0x00060b05
    1134:	2e060505 	cfsh32cs	mvfx0, mvfx6, #5
    1138:	02000905 	andeq	r0, r0, #81920	; 0x14000
    113c:	67060204 	strvs	r0, [r6, -r4, lsl #4]
    1140:	02000f05 	andeq	r0, r0, #5, 30
    1144:	05490204 	strbeq	r0, [r9, #-516]	; 0xfffffdfc
    1148:	0402000b 	streq	r0, [r2], #-11
    114c:	05050102 	streq	r0, [r5, #-258]	; 0xfffffefe
    1150:	02040200 	andeq	r0, r4, #0, 4
    1154:	4e062e06 	cdpmi	14, 0, cr2, cr6, cr6, {0}
    1158:	13060105 	movwne	r0, #24837	; 0x6105
    115c:	01000602 	tsteq	r0, r2, lsl #12
    1160:	0008fa01 	andeq	pc, r8, r1, lsl #20
    1164:	f1000300 			; <UNDEFINED> instruction: 0xf1000300
    1168:	02000000 	andeq	r0, r0, #0, 0
    116c:	0d0efb01 	vstreq	d15, [lr, #-4]
    1170:	01010100 	mrseq	r0, (UNDEF: 17)
    1174:	00000001 	andeq	r0, r0, r1
    1178:	01000001 	tsteq	r0, r1
    117c:	696c2f2e 	stmdbvs	ip!, {r1, r2, r3, r5, r8, r9, sl, fp, sp}^
    1180:	2f006362 	svccs	0x00006362
    1184:	2f74706f 	svccs	0x0074706f
    1188:	656d6f68 	strbvs	r6, [sp, #-3944]!	; 0xfffff098
    118c:	77657262 	strbvc	r7, [r5, -r2, ror #4]!
    1190:	6c65432f 	stclvs	3, cr4, [r5], #-188	; 0xffffff44
    1194:	2f72616c 	svccs	0x0072616c
    1198:	2d6d7261 	sfmcs	f7, 2, [sp, #-388]!	; 0xfffffe7c
    119c:	656e6f6e 	strbvs	r6, [lr, #-3950]!	; 0xfffff092
    11a0:	6261652d 	rsbvs	r6, r1, #188743680	; 0xb400000
    11a4:	2f392d69 	svccs	0x00392d69
    11a8:	30322d39 	eorscc	r2, r2, r9, lsr sp
    11ac:	34713931 	ldrbtcc	r3, [r1], #-2353	; 0xfffff6cf
    11b0:	3173632d 	cmncc	r3, sp, lsr #6
    11b4:	2f653730 	svccs	0x00653730
    11b8:	2f62696c 	svccs	0x0062696c
    11bc:	2f636367 	svccs	0x00636367
    11c0:	2d6d7261 	sfmcs	f7, 2, [sp, #-388]!	; 0xfffffe7c
    11c4:	656e6f6e 	strbvs	r6, [lr, #-3950]!	; 0xfffff092
    11c8:	6261652d 	rsbvs	r6, r1, #188743680	; 0xb400000
    11cc:	2e392f69 	cdpcs	15, 3, cr2, cr9, cr9, {3}
    11d0:	2f312e32 	svccs	0x00312e32
    11d4:	6c636e69 	stclvs	14, cr6, [r3], #-420	; 0xfffffe5c
    11d8:	00656475 	rsbeq	r6, r5, r5, ror r4
    11dc:	6573552f 	ldrbvs	r5, [r3, #-1327]!	; 0xfffffad1
    11e0:	6d2f7372 	stcvs	3, cr7, [pc, #-456]!	; 1020 <__code_start__-0x6fe0>
    11e4:	73656c69 	cmnvc	r5, #26880	; 0x6900
    11e8:	756f532f 	strbvc	r5, [pc, #-815]!	; ec1 <__code_start__-0x713f>
    11ec:	2f656372 	svccs	0x00656372
    11f0:	34327363 	ldrtcc	r7, [r2], #-867	; 0xfffffc9d
    11f4:	2f786c30 	svccs	0x00786c30
    11f8:	7062696c 	rsbvc	r6, r2, ip, ror #18
    11fc:	6e692f69 	cdpvs	15, 6, cr2, cr9, cr9, {3}
    1200:	64756c63 	ldrbtvs	r6, [r5], #-3171	; 0xfffff39d
    1204:	76000065 	strvc	r0, [r0], -r5, rrx
    1208:	72702d61 	rsbsvc	r2, r0, #6208	; 0x1840
    120c:	6b746e69 	blvs	1d1cbb8 <__bss_end__+0x1d11a18>
    1210:	0100632e 	tsteq	r0, lr, lsr #6
    1214:	74730000 	ldrbtvc	r0, [r3], #-0
    1218:	746e6964 	strbtvc	r6, [lr], #-2404	; 0xfffff69c
    121c:	6363672d 	cmnvs	r3, #11796480	; 0xb40000
    1220:	0200682e 	andeq	r6, r0, #3014656	; 0x2e0000
    1224:	70720000 	rsbsvc	r0, r2, r0
    1228:	00682e69 	rsbeq	r2, r8, r9, ror #28
    122c:	72000003 	andvc	r0, r0, #3, 0
    1230:	692d6970 	pushvs	{r4, r5, r6, r8, fp, sp, lr}
    1234:	7265746e 	rsbvc	r7, r5, #1845493760	; 0x6e000000
    1238:	2e6c616e 	powcsez	f6, f4, #0.5
    123c:	00030068 	andeq	r0, r3, r8, rrx
    1240:	64747300 	ldrbtvs	r7, [r4], #-768	; 0xfffffd00
    1244:	2e677261 	cdpcs	2, 6, cr7, cr7, cr1, {3}
    1248:	00020068 	andeq	r0, r2, r8, rrx
    124c:	75623c00 	strbvc	r3, [r2, #-3072]!	; 0xfffff400
    1250:	2d746c69 	ldclcs	12, cr6, [r4, #-420]!	; 0xfffffe5c
    1254:	003e6e69 	eorseq	r6, lr, r9, ror #28
    1258:	00000000 	andeq	r0, r0, r0
    125c:	05000105 	streq	r0, [r0, #-261]	; 0xfffffefb
    1260:	00901402 	addseq	r1, r0, r2, lsl #8
    1264:	00c80300 	sbceq	r0, r8, r0, lsl #6
    1268:	14020501 	strne	r0, [r2], #-1281	; 0xfffffaff
    126c:	10060105 	andne	r0, r6, r5, lsl #2
    1270:	05300405 	ldreq	r0, [r0, #-1029]!	; 0xfffffbfb
    1274:	054a2c01 	strbeq	r2, [sl, #-3073]	; 0xfffff3ff
    1278:	02053004 	andeq	r3, r5, #4, 0
    127c:	05133106 	ldreq	r3, [r3, #-262]	; 0xfffffefa
    1280:	052e060b 	streq	r0, [lr, #-1547]!	; 0xfffff9f5
    1284:	05300602 	ldreq	r0, [r0, #-1538]!	; 0xfffff9fe
    1288:	24020609 	strcs	r0, [r2], #-1545	; 0xfffff9f7
    128c:	052e2e0d 	streq	r2, [lr, #-3597]!	; 0xfffff1f3
    1290:	1703060d 	strne	r0, [r3, -sp, lsl #12]
    1294:	1311054a 	tstne	r1, #310378496	; 0x12800000
    1298:	01062d05 	tsteq	r6, r5, lsl #26
    129c:	052e1605 	streq	r1, [lr, #-1541]!	; 0xfffff9fb
    12a0:	16052f0d 	strne	r2, [r5], -sp, lsl #30
    12a4:	0614052d 	ldreq	r0, [r4], -sp, lsr #10
    12a8:	0617052f 	ldreq	r0, [r7], -pc, lsr #10
    12ac:	2e0d0501 	cfsh32cs	mvfx0, mvfx13, #1
    12b0:	12052f06 	andne	r2, r5, #6, 30
    12b4:	2f2e0106 	svccs	0x002e0106
    12b8:	060d052d 	streq	r0, [sp], -sp, lsr #10
    12bc:	0612052f 	ldreq	r0, [r2], -pc, lsr #10
    12c0:	06190501 	ldreq	r0, [r9], -r1, lsl #10
    12c4:	0304052f 	movweq	r0, #17711	; 0x452f
    12c8:	05010111 	streq	r0, [r1, #-273]	; 0xfffffeef
    12cc:	0e051502 	cfsh32eq	mvfx1, mvfx5, #2
    12d0:	017fb203 	cmneq	pc, r3, lsl #4
    12d4:	05130205 	ldreq	r0, [r3, #-517]	; 0xfffffdfb
    12d8:	05010606 	streq	r0, [r1, #-1542]	; 0xfffff9fa
    12dc:	05300602 	ldreq	r0, [r0, #-1538]!	; 0xfffff9fe
    12e0:	02050108 	andeq	r0, r5, #2
    12e4:	054a0106 	strbeq	r0, [sl, #-262]	; 0xfffffefa
    12e8:	05910808 	ldreq	r0, [r1, #2056]	; 0x808
    12ec:	054a0603 	strbeq	r0, [sl, #-1539]	; 0xfffff9fd
    12f0:	05010608 	streq	r0, [r1, #-1544]	; 0xfffff9f8
    12f4:	052d0615 	streq	r0, [sp, #-1557]!	; 0xfffff9eb
    12f8:	03050108 	movweq	r0, #20744	; 0x5108
    12fc:	060805d7 			; <UNDEFINED> instruction: 0x060805d7
    1300:	2d180501 	cfldr32cs	mvfx0, [r8, #-4]
    1304:	052e0205 	streq	r0, [lr, #-517]!	; 0xfffffdfb
    1308:	15052f08 	strne	r2, [r5, #-3848]	; 0xfffff0f8
    130c:	08052d06 	stmdaeq	r5, {r1, r2, r8, sl, fp, sp}
    1310:	06020501 	streq	r0, [r2], -r1, lsl #10
    1314:	06030501 	streq	r0, [r3], -r1, lsl #10
    1318:	0618052f 	ldreq	r0, [r8], -pc, lsr #10
    131c:	2e020511 	mcrcs	5, 0, r0, cr2, cr1, {0}
    1320:	052f0805 	streq	r0, [pc, #-2053]!	; b23 <__code_start__-0x74dd>
    1324:	052d0615 	streq	r0, [sp, #-1557]!	; 0xfffff9eb
    1328:	03050108 	movweq	r0, #20744	; 0x5108
    132c:	06080513 			; <UNDEFINED> instruction: 0x06080513
    1330:	06150501 	ldreq	r0, [r5], -r1, lsl #10
    1334:	0108052d 	tsteq	r8, sp, lsr #10
    1338:	02050106 	andeq	r0, r5, #-2147483647	; 0x80000001
    133c:	0505a006 	streq	sl, [r5, #-6]
    1340:	04050106 	streq	r0, [r5], #-262	; 0xfffffefa
    1344:	2f110536 	svccs	0x00110536
    1348:	052e0905 	streq	r0, [lr, #-2309]!	; 0xfffff6fb
    134c:	05053302 	streq	r3, [r5, #-770]	; 0xfffffcfe
    1350:	052e7203 	streq	r7, [lr, #-515]!	; 0xfffffdfd
    1354:	062f0602 	strteq	r0, [pc], -r2, lsl #12
    1358:	060e0501 	streq	r0, [lr], -r1, lsl #10
    135c:	14020516 	strne	r0, [r2], #-1302	; 0xfffffaea
    1360:	13030513 	movwne	r0, #13587	; 0x3513
    1364:	15140205 	ldrne	r0, [r4, #-517]	; 0xfffffdfb
    1368:	05010b05 	streq	r0, [r1, #-2821]	; 0xfffff4fb
    136c:	2e010602 	cfmadd32cs	mvax0, mvfx0, mvfx1, mvfx2
    1370:	67060305 	strvs	r0, [r6, -r5, lsl #6]
    1374:	01060a05 	tsteq	r6, r5, lsl #20
    1378:	052d0205 	streq	r0, [sp, #-517]!	; 0xfffffdfb
    137c:	17052f0a 	strne	r2, [r5, -sl, lsl #30]
    1380:	0b052d06 	bleq	14c7a0 <__bss_end__+0x141600>
    1384:	06020501 	streq	r0, [r2], -r1, lsl #10
    1388:	4c090501 	cfstr32mi	mvfx0, [r9], {1}
    138c:	0602052e 	streq	r0, [r2], -lr, lsr #10
    1390:	0609052e 	streq	r0, [r9], -lr, lsr #10
    1394:	06020501 	streq	r0, [r2], -r1, lsl #10
    1398:	05010630 	streq	r0, [r1, #-1584]	; 0xfffff9d0
    139c:	01380301 	teqeq	r8, r1, lsl #6
    13a0:	4f030905 	svcmi	0x00030905
    13a4:	052e2e4a 	streq	r2, [lr, #-3658]!	; 0xfffff1b6
    13a8:	27030619 	smladcs	r3, r9, r6, r0
    13ac:	131a054a 	tstne	sl, #310378496	; 0x12800000
    13b0:	01062805 	tsteq	r6, r5, lsl #16
    13b4:	052e1f05 	streq	r1, [lr, #-3845]!	; 0xfffff0fb
    13b8:	1f052f04 	svcne	0x00052f04
    13bc:	060b052d 	streq	r0, [fp], -sp, lsr #10
    13c0:	060e052f 	streq	r0, [lr], -pc, lsr #10
    13c4:	2e040501 	cfsh32cs	mvfx0, mvfx4, #1
    13c8:	03060205 	movweq	r0, #25093	; 0x6205
    13cc:	05134a59 	ldreq	r4, [r3, #-2649]	; 0xfffff5a7
    13d0:	052e060b 	streq	r0, [lr, #-1547]!	; 0xfffff9f5
    13d4:	05300602 	ldreq	r0, [r0, #-1538]!	; 0xfffff9fe
    13d8:	24020609 	strcs	r0, [r2], #-1545	; 0xfffff9f7
    13dc:	0604050d 	streq	r0, [r4], -sp, lsl #10
    13e0:	06051336 			; <UNDEFINED> instruction: 0x06051336
    13e4:	05050106 	streq	r0, [r5, #-262]	; 0xfffffefa
    13e8:	13136706 	tstne	r3, #1572864	; 0x180000
    13ec:	11060905 	tstne	r6, r5, lsl #18
    13f0:	052b0d05 	streq	r0, [fp, #-3333]!	; 0xfffff2fb
    13f4:	0d05300b 	stceq	0, cr3, [r5, #-44]	; 0xffffffd4
    13f8:	351b052c 	ldrcc	r0, [fp, #-1324]	; 0xfffffad4
    13fc:	2d060405 	cfstrscs	mvf0, [r6, #-20]	; 0xffffffec
    1400:	05130505 	ldreq	r0, [r3, #-1285]	; 0xfffffafb
    1404:	052e061b 	streq	r0, [lr, #-1563]!	; 0xfffff9e5
    1408:	0405820a 	streq	r8, [r5], #-522	; 0xfffffdf6
    140c:	2e0e052f 	cfsh32cs	mvfx0, mvfx14, #31
    1410:	05490a05 	strbeq	r0, [r9, #-2565]	; 0xfffff5fb
    1414:	052f060b 	streq	r0, [pc, #-1547]!	; e11 <__code_start__-0x71ef>
    1418:	06010604 	streq	r0, [r1], -r4, lsl #12
    141c:	0606052f 	streq	r0, [r6], -pc, lsr #10
    1420:	06050501 	streq	r0, [r5], -r1, lsl #10
    1424:	060a052f 	streq	r0, [sl], -pc, lsr #10
    1428:	07052e01 	streq	r2, [r5, -r1, lsl #28]
    142c:	052e2e2e 	streq	r2, [lr, #-3630]!	; 0xfffff1d2
    1430:	0d030604 	stceq	6, cr0, [r3, #-16]
    1434:	06020501 	streq	r0, [r2], -r1, lsl #10
    1438:	05014603 	streq	r4, [r1, #-1539]	; 0xfffff9fd
    143c:	2e3a0309 	cdpcs	3, 3, cr0, cr10, cr9, {0}
    1440:	2f060405 	svccs	0x00060405
    1444:	01010d03 	tsteq	r1, r3, lsl #26
    1448:	05150205 	ldreq	r0, [r5, #-517]	; 0xfffffdfb
    144c:	7fb2030e 	svcvc	0x00b2030e
    1450:	13020501 	movwne	r0, #9473	; 0x2501
    1454:	01080514 	tsteq	r8, r4, lsl r5
    1458:	10060605 	andne	r0, r6, r5, lsl #12
    145c:	052e3c03 	streq	r3, [lr, #-3075]!	; 0xfffff3fd
    1460:	4a460302 	bmi	1182070 <__bss_end__+0x1176ed0>
    1464:	05053006 	streq	r3, [r5, #-6]
    1468:	2e2e0106 	sufcse	f0, f6, f6
    146c:	4b060205 	blmi	181c88 <__bss_end__+0x176ae8>
    1470:	0e050106 	adfeqs	f0, f5, f6
    1474:	02051606 	andeq	r1, r5, #6291456	; 0x600000
    1478:	15151314 	ldrne	r1, [r5, #-788]	; 0xfffffcec
    147c:	05010b05 	streq	r0, [r1, #-2821]	; 0xfffff4fb
    1480:	062e0602 	strteq	r0, [lr], -r2, lsl #12
    1484:	06090530 			; <UNDEFINED> instruction: 0x06090530
    1488:	06020501 	streq	r0, [r2], -r1, lsl #10
    148c:	0501064c 	streq	r0, [r1, #-1612]	; 0xfffff9b4
    1490:	01380301 	teqeq	r8, r1, lsl #6
    1494:	6e030605 	cfmadd32vs	mvax0, mvfx0, mvfx3, mvfx5
    1498:	0302054a 	movweq	r0, #9546	; 0x254a
    149c:	2e4a6646 	cdpcs	6, 4, cr6, cr10, cr6, {2}
    14a0:	03060405 	movweq	r0, #25605	; 0x6405
    14a4:	010100c8 	smlabteq	r1, r8, r0, r0
    14a8:	2e060101 	adfcss	f0, f6, f1
    14ac:	034a0682 	movteq	r0, #42626	; 0xa682
    14b0:	09052e72 	stmdbeq	r5, {r1, r4, r5, r6, r9, sl, fp, sp}
    14b4:	04050106 	streq	r0, [r5], #-262	; 0xfffffefa
    14b8:	0d032f06 	stceq	15, cr2, [r3, #-24]	; 0xffffffe8
    14bc:	02050101 	andeq	r0, r5, #1073741824	; 0x40000000
    14c0:	030e0515 	movweq	r0, #58645	; 0xe515
    14c4:	05017fb2 	streq	r7, [r1, #-4018]	; 0xfffff04e
    14c8:	05141302 	ldreq	r1, [r4, #-770]	; 0xfffffcfe
    14cc:	09050108 	stmdbeq	r5, {r3, r8}
    14d0:	011b0306 	tsteq	fp, r6, lsl #6
    14d4:	63030605 	movwvs	r0, #13829	; 0x3605
    14d8:	2e3c032e 	cdpcs	3, 3, cr0, cr12, cr14, {1}
    14dc:	48052e2e 	stmdami	r5, {r1, r2, r3, r5, r9, sl, fp, sp}
    14e0:	7fb40306 	svcvc	0x00b40306
    14e4:	05053c08 	streq	r3, [r5, #-3080]	; 0xfffff3f8
    14e8:	2e060113 	mcrcs	1, 0, r0, cr6, cr3, {0}
    14ec:	02040200 	andeq	r0, r4, #0, 4
    14f0:	02002e06 	andeq	r2, r0, #96	; 0x60
    14f4:	00010204 	andeq	r0, r1, r4, lsl #4
    14f8:	13020402 	movwne	r0, #9218	; 0x2402
    14fc:	02001105 	andeq	r1, r0, #1073741825	; 0x40000001
    1500:	01060204 	tsteq	r6, r4, lsl #4
    1504:	02000705 	andeq	r0, r0, #1310720	; 0x140000
    1508:	052f0204 	streq	r0, [pc, #-516]!	; 130c <__code_start__-0x6cf4>
    150c:	04020011 	streq	r0, [r2], #-17	; 0xffffffef
    1510:	05052d02 	streq	r2, [r5, #-3330]	; 0xfffff2fe
    1514:	02040200 	andeq	r0, r4, #0, 4
    1518:	09052f06 	stmdbeq	r5, {r1, r2, r8, r9, sl, fp, sp}
    151c:	02040200 	andeq	r0, r4, #0, 4
    1520:	000e0513 	andeq	r0, lr, r3, lsl r5
    1524:	06020402 	streq	r0, [r2], -r2, lsl #8
    1528:	00050501 	andeq	r0, r5, r1, lsl #10
    152c:	06010402 	streq	r0, [r1], -r2, lsl #8
    1530:	04020063 	streq	r0, [r2], #-99	; 0xffffff9d
    1534:	48050101 	stmdami	r5, {r0, r8}
    1538:	01040200 	mrseq	r0, R12_usr
    153c:	05051106 	streq	r1, [r5, #-262]	; 0xfffffefa
    1540:	01040200 	mrseq	r0, R12_usr
    1544:	0048052f 	subeq	r0, r8, pc, lsr #10
    1548:	2d010402 	cfstrscs	mvf0, [r1, #-8]
    154c:	02000505 	andeq	r0, r0, #20971520	; 0x1400000
    1550:	002f0104 	eoreq	r0, pc, r4, lsl #2
    1554:	4a010402 	bmi	42564 <__bss_end__+0x373c4>
    1558:	01040200 	mrseq	r0, R12_usr
    155c:	0402004a 	streq	r0, [r2], #-74	; 0xffffffb6
    1560:	054a0601 	strbeq	r0, [sl, #-1537]	; 0xfffff9ff
    1564:	00e10340 	rsceq	r0, r1, r0, asr #6
    1568:	050106d6 	streq	r0, [r1, #-1750]	; 0xfffff92a
    156c:	052e4e09 	streq	r4, [lr, #-3593]!	; 0xfffff1f7
    1570:	1e053008 	cdpne	0, 0, cr3, cr5, cr8, {0}
    1574:	2e120529 	cfmul64cs	mvdx0, mvdx2, mvdx9
    1578:	05330d05 	ldreq	r0, [r3, #-3333]!	; 0xfffff2fb
    157c:	05450602 	strbeq	r0, [r5, #-1538]	; 0xfffff9fe
    1580:	02051305 	andeq	r1, r5, #335544320	; 0x14000000
    1584:	13050514 	movwne	r0, #21780	; 0x5514
    1588:	05130205 	ldreq	r0, [r3, #-517]	; 0xfffffdfb
    158c:	40050108 	andmi	r0, r5, r8, lsl #2
    1590:	017a0306 	cmneq	sl, r6, lsl #6
    1594:	340d052e 	strcc	r0, [sp], #-1326	; 0xfffffad2
    1598:	03110566 	tsteq	r1, #427819008	; 0x19800000
    159c:	054a4a20 	strbeq	r4, [sl, #-2592]	; 0xfffff5e0
    15a0:	62030604 	andvs	r0, r3, #4, 12	; 0x400000
    15a4:	06090501 	streq	r0, [r9], -r1, lsl #10
    15a8:	2e0f0501 	cfsh32cs	mvfx0, mvfx15, #1
    15ac:	2c060805 	stccs	8, cr0, [r6], {5}
    15b0:	2e060d05 	cdpcs	13, 0, cr0, cr6, cr5, {0}
    15b4:	67060305 	strvs	r0, [r6, -r5, lsl #6]
    15b8:	01060505 	tsteq	r6, r5, lsl #10
    15bc:	4d060805 	stcmi	8, cr0, [r6, #-20]	; 0xffffffec
    15c0:	01060e05 	tsteq	r6, r5, lsl #28
    15c4:	052e0a05 	streq	r0, [lr, #-2565]!	; 0xfffff5fb
    15c8:	04052f09 	streq	r2, [r5], #-3849	; 0xfffff0f7
    15cc:	07052f06 	streq	r2, [r5, -r6, lsl #30]
    15d0:	0a050106 	beq	1419f0 <__bss_end__+0x136850>
    15d4:	0604052c 	streq	r0, [r4], -ip, lsr #10
    15d8:	062d0532 			; <UNDEFINED> instruction: 0x062d0532
    15dc:	017f9803 	cmneq	pc, r3, lsl #16
    15e0:	ed030905 	vstr.16	s0, [r3, #-10]
    15e4:	0d052e00 	stceq	14, cr2, [r5, #-0]
    15e8:	2b07052c 	blcs	1c2aa0 <__bss_end__+0x1b7900>
    15ec:	30060405 	andcc	r0, r6, r5, lsl #8
    15f0:	09051413 	stmdbeq	r5, {r0, r1, r4, sl, ip}
    15f4:	030c0501 	movweq	r0, #50433	; 0xc501
    15f8:	05017f93 	streq	r7, [r1, #-3987]	; 0xfffff06d
    15fc:	0106011d 	tsteq	r6, sp, lsl r1
    1600:	ed030905 	vstr.16	s0, [r3, #-10]
    1604:	05050100 	streq	r0, [r5, #-256]	; 0xffffff00
    1608:	12052f06 	andne	r2, r5, #6, 30
    160c:	2d2e0106 	stfcss	f0, [lr, #-24]!	; 0xffffffe8
    1610:	052f0b05 	streq	r0, [pc, #-2821]!	; b13 <__code_start__-0x74ed>
    1614:	052f0605 	streq	r0, [pc, #-1541]!	; 1017 <__code_start__-0x6fe9>
    1618:	0c051009 	stceq	0, cr1, [r5], {9}
    161c:	017f9303 	cmneq	pc, r3, lsl #6
    1620:	05011d05 	streq	r1, [r1, #-3333]	; 0xfffff2fb
    1624:	0501062d 	streq	r0, [r1, #-1581]	; 0xfffff9d3
    1628:	00ed0309 	rsceq	r0, sp, r9, lsl #6
    162c:	0604052e 	streq	r0, [r4], -lr, lsr #10
    1630:	0200014e 	andeq	r0, r0, #-2147483629	; 0x80000013
    1634:	004a0204 	subeq	r0, sl, r4, lsl #4
    1638:	01020402 	tsteq	r2, r2, lsl #8
    163c:	02040200 	andeq	r0, r4, #0, 4
    1640:	04020015 	streq	r0, [r2], #-21	; 0xffffffeb
    1644:	36020602 	strcc	r0, [r2], -r2, lsl #12
    1648:	04020012 	streq	r0, [r2], #-18	; 0xffffffee
    164c:	02052e02 	andeq	r2, r5, #2, 28
    1650:	00d10306 	sbcseq	r0, r1, r6, lsl #6
    1654:	06070501 	streq	r0, [r7], -r1, lsl #10
    1658:	02052e01 	andeq	r2, r5, #1, 28
    165c:	0b052f06 	bleq	14d27c <__bss_end__+0x1420dc>
    1660:	01050106 	tsteq	r5, r6, lsl #2
    1664:	0605052f 	streq	r0, [r5], -pc, lsr #10
    1668:	054a6503 	strbeq	r6, [sl, #-1283]	; 0xfffffafd
    166c:	66010609 	strvs	r0, [r1], -r9, lsl #12
    1670:	9f060505 	svcls	0x00060505
    1674:	11030405 	tstne	r3, r5, lsl #8
    1678:	06070501 	streq	r0, [r7], -r1, lsl #10
    167c:	06040501 	streq	r0, [r4], -r1, lsl #10
    1680:	010a0531 	tsteq	sl, r1, lsr r5
    1684:	02001305 	andeq	r1, r0, #335544320	; 0x14000000
    1688:	2e060104 	adfcss	f0, f6, f4
    168c:	02001005 	andeq	r1, r0, #5, 0
    1690:	052e0104 	streq	r0, [lr, #-260]!	; 0xfffffefc
    1694:	054b0605 	strbeq	r0, [fp, #-1541]	; 0xfffff9fb
    1698:	0601060a 	streq	r0, [r1], -sl, lsl #12
    169c:	0604052d 	streq	r0, [r4], -sp, lsr #10
    16a0:	06110501 	ldreq	r0, [r1], -r1, lsl #10
    16a4:	667fb603 	ldrbtvs	fp, [pc], -r3, lsl #12
    16a8:	02000113 	andeq	r0, r0, #-1073741820	; 0xc0000004
    16ac:	ba060204 	blt	181ec4 <__bss_end__+0x176d24>
    16b0:	1401ba06 	strne	fp, [r1], #-2566	; 0xfffff5fa
    16b4:	13061a05 	movwne	r1, #27141	; 0x6a05
    16b8:	11052e2e 	tstne	r5, lr, lsr #28
    16bc:	1405674e 	strne	r6, [r5], #-1870	; 0xfffff8b2
    16c0:	82130568 	andshi	r0, r3, #104, 10	; 0x1a000000
    16c4:	78031505 	stmdavc	r3, {r0, r2, r8, sl, ip}
    16c8:	0611054a 	ldreq	r0, [r1], -sl, asr #10
    16cc:	1413134b 	ldrne	r1, [r3], #-843	; 0xfffffcb5
    16d0:	13051413 	movwne	r1, #21523	; 0x5413
    16d4:	09050106 	stmdbeq	r5, {r1, r2, r8}
    16d8:	0d052f06 	stceq	15, cr2, [r5, #-24]	; 0xffffffe8
    16dc:	2e2e0106 	sufcse	f0, f6, f6
    16e0:	05bb0905 	ldreq	r0, [fp, #2309]!	; 0x905
    16e4:	09059d0d 	stmdbeq	r5, {r0, r2, r3, r8, sl, fp, ip, pc}
    16e8:	15052f06 	strne	r2, [r5, #-3846]	; 0xfffff0fa
    16ec:	7503062f 	strvc	r0, [r3, #-1583]	; 0xfffff9d1
    16f0:	2e0b034a 	cdpcs	3, 0, cr0, cr11, cr10, {2}
    16f4:	0605054a 	streq	r0, [r5], -sl, asr #10
    16f8:	05012303 	streq	r2, [r1, #-771]	; 0xfffffcfd
    16fc:	2e010609 	cfmadd32cs	mvax0, mvfx0, mvfx1, mvfx9
    1700:	d7060505 	strle	r0, [r6, -r5, lsl #10]
    1704:	032e6e03 			; <UNDEFINED> instruction: 0x032e6e03
    1708:	0905010e 	stmdbeq	r5, {r1, r2, r3, r8}
    170c:	05050106 	streq	r0, [r5, #-262]	; 0xfffffefa
    1710:	4a100306 	bmi	402330 <__bss_end__+0x3f7190>
    1714:	ed030105 	stfs	f0, [r3, #-20]	; 0xffffffec
    1718:	0205017e 	andeq	r0, r5, #-2147483617	; 0x8000001f
    171c:	14131514 	ldrne	r1, [r3], #-1300	; 0xfffffaec
    1720:	1a030405 	bne	c273c <__bss_end__+0xb759c>
    1724:	06090501 	streq	r0, [r9], -r1, lsl #10
    1728:	03020501 	movweq	r0, #9473	; 0x2501
    172c:	09052e46 	stmdbeq	r5, {r1, r2, r6, r9, sl, fp, sp}
    1730:	052e3a03 	streq	r3, [lr, #-2563]!	; 0xfffff5fd
    1734:	032f0604 			; <UNDEFINED> instruction: 0x032f0604
    1738:	0501010d 	streq	r0, [r1, #-269]	; 0xfffffef3
    173c:	0e051502 	cfsh32eq	mvfx1, mvfx5, #2
    1740:	017fb203 	cmneq	pc, r3, lsl #4
    1744:	14130205 	ldrne	r0, [r3], #-517	; 0xfffffdfb
    1748:	05010805 	streq	r0, [r1, #-2053]	; 0xfffff7fb
    174c:	05010602 	streq	r0, [r1, #-1538]	; 0xfffff9fe
    1750:	03059f08 	movweq	r9, #24328	; 0x5f08
    1754:	01064a06 	tsteq	r6, r6, lsl #20
    1758:	052e0805 	streq	r0, [lr, #-2053]!	; 0xfffff7fb
    175c:	052d0615 	streq	r0, [sp, #-1557]!	; 0xfffff9eb
    1760:	03050108 	movweq	r0, #20744	; 0x5108
    1764:	0501062f 	streq	r0, [r1, #-1583]	; 0xfffff9d1
    1768:	15052e08 	strne	r2, [r5, #-3592]	; 0xfffff1f8
    176c:	08052d06 	stmdaeq	r5, {r1, r2, r8, sl, fp, sp}
    1770:	2f030501 	svccs	0x00030501
    1774:	08050106 	stmdaeq	r5, {r1, r2, r8}
    1778:	0615052e 	ldreq	r0, [r5], -lr, lsr #10
    177c:	0108052d 	tsteq	r8, sp, lsr #10
    1780:	062f0305 	strteq	r0, [pc], -r5, lsl #6
    1784:	2e080501 	cfsh32cs	mvfx0, mvfx8, #1
    1788:	2d061505 	cfstr32cs	mvfx1, [r6, #-20]	; 0xffffffec
    178c:	05010805 	streq	r0, [r1, #-2053]	; 0xfffff7fb
    1790:	01062f03 	tsteq	r6, r3, lsl #30
    1794:	052e0805 	streq	r0, [lr, #-2053]!	; 0xfffff7fb
    1798:	052d0615 	streq	r0, [sp, #-1557]!	; 0xfffff9eb
    179c:	03050108 	movweq	r0, #20744	; 0x5108
    17a0:	0501062f 	streq	r0, [r1, #-1583]	; 0xfffff9d1
    17a4:	15052e08 	strne	r2, [r5, #-3592]	; 0xfffff1f8
    17a8:	08052d06 	stmdaeq	r5, {r1, r2, r8, sl, fp, sp}
    17ac:	13030501 	movwne	r0, #13569	; 0x3501
    17b0:	01060805 	tsteq	r6, r5, lsl #16
    17b4:	2d061505 	cfstr32cs	mvfx1, [r6, #-20]	; 0xffffffec
    17b8:	06010805 	streq	r0, [r1], -r5, lsl #16
    17bc:	06030566 	streq	r0, [r3], -r6, ror #10
    17c0:	06080567 	streq	r0, [r8], -r7, ror #10
    17c4:	2d180501 	cfldr32cs	mvfx0, [r8, #-4]
    17c8:	052e0205 	streq	r0, [lr, #-517]!	; 0xfffffdfb
    17cc:	15052f08 	strne	r2, [r5, #-3848]	; 0xfffff0f8
    17d0:	08052d06 	stmdaeq	r5, {r1, r2, r8, sl, fp, sp}
    17d4:	06020501 	streq	r0, [r2], -r1, lsl #10
    17d8:	06030501 	streq	r0, [r3], -r1, lsl #10
    17dc:	0618052f 	ldreq	r0, [r8], -pc, lsr #10
    17e0:	2e020511 	mcrcs	5, 0, r0, cr2, cr1, {0}
    17e4:	052f0805 	streq	r0, [pc, #-2053]!	; fe7 <__code_start__-0x7019>
    17e8:	052d0615 	streq	r0, [sp, #-1557]!	; 0xfffff9eb
    17ec:	03050108 	movweq	r0, #20744	; 0x5108
    17f0:	06080513 			; <UNDEFINED> instruction: 0x06080513
    17f4:	06150501 	ldreq	r0, [r5], -r1, lsl #10
    17f8:	0108052d 	tsteq	r8, sp, lsr #10
    17fc:	14060505 	strne	r0, [r6], #-1285	; 0xfffffafb
    1800:	0602054a 	streq	r0, [r2], -sl, asr #10
    1804:	060e052e 	streq	r0, [lr], -lr, lsr #10
    1808:	2f040519 	svccs	0x00040519
    180c:	052f1105 	streq	r1, [pc, #-261]!	; 170f <__code_start__-0x68f1>
    1810:	02054a09 	andeq	r4, r5, #36864	; 0x9000
    1814:	03050533 	movweq	r0, #21811	; 0x5533
    1818:	02052e72 	andeq	r2, r5, #1824	; 0x720
    181c:	01062f06 	tsteq	r6, r6, lsl #30
    1820:	16060e05 	strne	r0, [r6], -r5, lsl #28
    1824:	13140205 	tstne	r4, #1342177280	; 0x50000000
    1828:	05130305 	ldreq	r0, [r3, #-773]	; 0xfffffcfb
    182c:	05151402 	ldreq	r1, [r5, #-1026]	; 0xfffffbfe
    1830:	0205010b 	andeq	r0, r5, #-1073741822	; 0xc0000002
    1834:	662e0106 	strtvs	r0, [lr], -r6, lsl #2
    1838:	2f060305 	svccs	0x00060305
    183c:	01060a05 	tsteq	r6, r5, lsl #20
    1840:	052d0205 	streq	r0, [sp, #-517]!	; 0xfffffdfb
    1844:	17052f0a 	strne	r2, [r5, -sl, lsl #30]
    1848:	0b052d06 	bleq	14cc68 <__bss_end__+0x141ac8>
    184c:	06020501 	streq	r0, [r2], -r1, lsl #10
    1850:	054a4a01 	strbeq	r4, [sl, #-2561]	; 0xfffff5ff
    1854:	95030605 	strls	r0, [r3, #-1541]	; 0xfffff9fb
    1858:	11050101 	tstne	r5, r1, lsl #2
    185c:	7ef80306 	cdpvc	3, 15, cr0, cr8, cr6, {0}
    1860:	031b0501 	tsteq	fp, #4194304	; 0x400000
    1864:	054a0188 	strbeq	r0, [sl, #-392]	; 0xfffffe78
    1868:	f3030601 	vmax.u8	d0, d3, d1
    186c:	02052e7e 	andeq	r2, r5, #2016	; 0x7e0
    1870:	14131514 	ldrne	r1, [r3], #-1300	; 0xfffffaec
    1874:	22031905 	andcs	r1, r3, #81920	; 0x14000
    1878:	131a0501 	tstne	sl, #4194304	; 0x400000
    187c:	01062805 	tsteq	r6, r5, lsl #16
    1880:	052e1f05 	streq	r1, [lr, #-3845]!	; 0xfffff0fb
    1884:	0e052f04 	cdpeq	15, 0, cr2, cr5, cr4, {0}
    1888:	2d1f054a 	cfldr32cs	mvfx0, [pc, #-296]	; 1768 <__code_start__-0x6898>
    188c:	2f060b05 	svccs	0x00060b05
    1890:	01060405 	tsteq	r6, r5, lsl #8
    1894:	05013206 	streq	r3, [r1, #-518]	; 0xfffffdfa
    1898:	0e051502 	cfsh32eq	mvfx1, mvfx5, #2
    189c:	017fb203 	cmneq	pc, r3, lsl #4
    18a0:	05130205 	ldreq	r0, [r3, #-517]	; 0xfffffdfb
    18a4:	05010606 	streq	r0, [r1, #-1542]	; 0xfffff9fa
    18a8:	05300602 	ldreq	r0, [r0, #-1538]!	; 0xfffff9fe
    18ac:	02050108 	andeq	r0, r5, #2
    18b0:	03050106 	movweq	r0, #20742	; 0x5106
    18b4:	05210806 	streq	r0, [r1, #-2054]!	; 0xfffff7fa
    18b8:	05010608 	streq	r0, [r1, #-1544]	; 0xfffff9f8
    18bc:	05490615 	strbeq	r0, [r9, #-1557]	; 0xfffff9eb
    18c0:	03050108 	movweq	r0, #20744	; 0x5108
    18c4:	060805d7 			; <UNDEFINED> instruction: 0x060805d7
    18c8:	2d180501 	cfldr32cs	mvfx0, [r8, #-4]
    18cc:	052e0205 	streq	r0, [lr, #-517]!	; 0xfffffdfb
    18d0:	15052f08 	strne	r2, [r5, #-3848]	; 0xfffff0f8
    18d4:	08052d06 	stmdaeq	r5, {r1, r2, r8, sl, fp, sp}
    18d8:	06020501 	streq	r0, [r2], -r1, lsl #10
    18dc:	06030501 	streq	r0, [r3], -r1, lsl #10
    18e0:	0618052f 	ldreq	r0, [r8], -pc, lsr #10
    18e4:	2e020511 	mcrcs	5, 0, r0, cr2, cr1, {0}
    18e8:	052f0805 	streq	r0, [pc, #-2053]!	; 10eb <__code_start__-0x6f15>
    18ec:	052d0615 	streq	r0, [sp, #-1557]!	; 0xfffff9eb
    18f0:	03050108 	movweq	r0, #20744	; 0x5108
    18f4:	06080513 			; <UNDEFINED> instruction: 0x06080513
    18f8:	06150501 	ldreq	r0, [r5], -r1, lsl #10
    18fc:	0108052d 	tsteq	r8, sp, lsr #10
    1900:	14060505 	strne	r0, [r6], #-1285	; 0xfffffafb
    1904:	66060205 	strvs	r0, [r6], -r5, lsl #4
    1908:	1a060405 	bne	182924 <__bss_end__+0x177784>
    190c:	78030505 	stmdavc	r3, {r0, r2, r8, sl}
    1910:	0602054a 	streq	r0, [r2], -sl, asr #10
    1914:	0501062f 	streq	r0, [r1, #-1583]	; 0xfffff9d1
    1918:	0516060e 	ldreq	r0, [r6, #-1550]	; 0xfffff9f2
    191c:	05131402 	ldreq	r1, [r3, #-1026]	; 0xfffffbfe
    1920:	05010604 	streq	r0, [r1, #-1540]	; 0xfffff9fc
    1924:	052f0603 	streq	r0, [pc, #-1539]!	; 1329 <__code_start__-0x6cd7>
    1928:	05010611 	streq	r0, [r1, #-1553]	; 0xfffff9ef
    192c:	02052e09 	andeq	r2, r5, #144	; 0x90
    1930:	05153006 	ldreq	r3, [r5, #-6]
    1934:	0205010b 	andeq	r0, r5, #-1073741822	; 0xc0000002
    1938:	4a4a0106 	bmi	1281d58 <__bss_end__+0x1276bb8>
    193c:	0603052e 	streq	r0, [r3], -lr, lsr #10
    1940:	060a052f 	streq	r0, [sl], -pc, lsr #10
    1944:	2d020501 	cfstr32cs	mvfx0, [r2, #-4]
    1948:	052f0a05 	streq	r0, [pc, #-2565]!	; f4b <__code_start__-0x70b5>
    194c:	052d0617 	streq	r0, [sp, #-1559]!	; 0xfffff9e9
    1950:	0205010b 	andeq	r0, r5, #-1073741822	; 0xc0000002
    1954:	2e4a0106 	dvfcse	f0, f2, f6
    1958:	09051406 	stmdbeq	r5, {r1, r2, sl, ip}
    195c:	02050106 	andeq	r0, r5, #-2147483647	; 0x80000001
    1960:	01064c06 	tsteq	r6, r6, lsl #24
    1964:	03060505 	movweq	r0, #25861	; 0x6505
    1968:	2a010198 	bcs	41fd0 <__bss_end__+0x36e30>
    196c:	01060705 	tsteq	r6, r5, lsl #14
    1970:	2f060505 	svccs	0x00060505
    1974:	53031805 	movwpl	r1, #14341	; 0x3805
    1978:	061b052e 	ldreq	r0, [fp], -lr, lsr #10
    197c:	821a0501 	andshi	r0, sl, #4194304	; 0x400000
    1980:	4b060905 	blmi	183d9c <__bss_end__+0x178bfc>
    1984:	01060d05 	tsteq	r6, r5, lsl #26
    1988:	d709052e 	strle	r0, [r9, -lr, lsr #10]
    198c:	059d0d05 	ldreq	r0, [sp, #3333]	; 0xd05
    1990:	052f0609 	streq	r0, [pc, #-1545]!	; 138f <__code_start__-0x6c71>
    1994:	18053015 	stmdane	r5, {r0, r2, r4, ip, sp}
    1998:	17050106 	strne	r0, [r5, -r6, lsl #2]
    199c:	2f190566 	svccs	0x00190566
    19a0:	05491705 	strbeq	r1, [r9, #-1797]	; 0xfffff8fb
    19a4:	052f0619 	streq	r0, [pc, #-1561]!	; 1393 <__code_start__-0x6c6d>
    19a8:	6f030615 	svcvs	0x00030615
    19ac:	0619052e 	ldreq	r0, [r9], -lr, lsr #10
    19b0:	054a1303 	strbeq	r1, [sl, #-771]	; 0xfffffcfd
    19b4:	6d030615 	stcvs	6, cr0, [r3, #-84]	; 0xffffffac
    19b8:	02054a2e 	andeq	r4, r5, #188416	; 0x2e000
    19bc:	017fa003 	cmneq	pc, r3
    19c0:	72030666 	andvc	r0, r3, #106954752	; 0x6600000
    19c4:	06050501 	streq	r0, [r5], -r1, lsl #10
    19c8:	36040501 	strcc	r0, [r4], -r1, lsl #10
    19cc:	78030505 	stmdavc	r3, {r0, r2, r8, sl}
    19d0:	0602052e 	streq	r0, [r2], -lr, lsr #10
    19d4:	0501062f 	streq	r0, [r1, #-1583]	; 0xfffff9d1
    19d8:	0516060e 	ldreq	r0, [r6, #-1550]	; 0xfffff9f2
    19dc:	05131402 	ldreq	r1, [r3, #-1026]	; 0xfffffbfe
    19e0:	4a010604 	bmi	431f8 <__bss_end__+0x38058>
    19e4:	03060205 	movweq	r0, #25093	; 0x6205
    19e8:	05050178 	streq	r0, [r5, #-376]	; 0xfffffe88
    19ec:	054a0106 	strbeq	r0, [sl, #-262]	; 0xfffffefa
    19f0:	064b0602 	strbeq	r0, [fp], -r2, lsl #12
    19f4:	060e0501 	streq	r0, [lr], -r1, lsl #10
    19f8:	14020516 	strne	r0, [r2], #-1302	; 0xfffffaea
    19fc:	05151513 	ldreq	r1, [r5, #-1299]	; 0xfffffaed
    1a00:	2e06010b 	adfcss	f0, f6, #3.0
    1a04:	03061105 	movweq	r1, #24837	; 0x6105
    1a08:	0501019e 	streq	r0, [r1, #-414]	; 0xfffffe62
    1a0c:	05010622 	streq	r0, [r1, #-1570]	; 0xfffff9de
    1a10:	22052f05 	andcs	r2, r5, #5, 30
    1a14:	0605052d 	streq	r0, [r5], -sp, lsr #10
    1a18:	4b11052f 	blmi	442edc <__bss_end__+0x437d3c>
    1a1c:	01830505 	orreq	r0, r3, r5, lsl #10
    1a20:	2e5c039e 	mrccs	3, 2, r0, cr12, cr14, {4}
    1a24:	02059e01 	andeq	r9, r5, #1, 28
    1a28:	7ef30306 	cdpvc	3, 15, cr0, cr3, cr6, {0}
    1a2c:	06052e2e 	streq	r2, [r5], -lr, lsr #28
    1a30:	0d054a2c 	vstreq	s8, [r5, #-176]	; 0xffffff50
    1a34:	0100d803 	tsteq	r0, r3, lsl #16
    1a38:	02000405 	andeq	r0, r0, #83886080	; 0x5000000
    1a3c:	03060104 	movweq	r0, #24836	; 0x6104
    1a40:	02004a11 	andeq	r4, r0, #69632	; 0x11000
    1a44:	05010104 	streq	r0, [r1, #-260]	; 0xfffffefc
    1a48:	06510611 			; <UNDEFINED> instruction: 0x06510611
    1a4c:	0315059e 	tsteq	r5, #662700032	; 0x27800000
    1a50:	ba012e17 	blt	4d2b4 <__bss_end__+0x42114>
    1a54:	69031105 	stmdbvs	r3, {r0, r2, r8, ip}
    1a58:	2802012e 	stmdacs	r2, {r1, r2, r3, r5, r8}
    1a5c:	87010100 	strhi	r0, [r1, -r0, lsl #2]
    1a60:	03000000 	movweq	r0, #0
    1a64:	00006400 	andeq	r6, r0, r0, lsl #8
    1a68:	fb010200 	blx	42272 <__bss_end__+0x370d2>
    1a6c:	01000d0e 	tsteq	r0, lr, lsl #26
    1a70:	00010101 	andeq	r0, r1, r1, lsl #2
    1a74:	00010000 	andeq	r0, r1, r0
    1a78:	2f2e0100 	svccs	0x002e0100
    1a7c:	66617473 			; <UNDEFINED> instruction: 0x66617473
    1a80:	72732d66 	rsbsvc	r2, r3, #6528	; 0x1980
    1a84:	552f0063 	strpl	r0, [pc, #-99]!	; 1a29 <__code_start__-0x65d7>
    1a88:	73726573 	cmnvc	r2, #482344960	; 0x1cc00000
    1a8c:	6c696d2f 	stclvs	13, cr6, [r9], #-188	; 0xffffff44
    1a90:	532f7365 			; <UNDEFINED> instruction: 0x532f7365
    1a94:	6372756f 	cmnvs	r2, #465567744	; 0x1bc00000
    1a98:	73632f65 	cmnvc	r3, #404	; 0x194
    1a9c:	6c303432 	cfldrsvs	mvf3, [r0], #-200	; 0xffffff38
    1aa0:	696c2f78 	stmdbvs	ip!, {r3, r4, r5, r6, r8, r9, sl, fp, sp}^
    1aa4:	2f697062 	svccs	0x00697062
    1aa8:	6c636e69 	stclvs	14, cr6, [r3], #-420	; 0xfffffe5c
    1aac:	00656475 	rsbeq	r6, r5, r5, ror r4
    1ab0:	656c6300 	strbvs	r6, [ip, #-768]!	; 0xfffffd00
    1ab4:	722d6e61 	eorvc	r6, sp, #1552	; 0x610
    1ab8:	6f6f6265 	svcvs	0x006f6265
    1abc:	00632e74 	rsbeq	r2, r3, r4, ror lr
    1ac0:	72000001 	andvc	r0, r0, #1, 0
    1ac4:	682e6970 	stmdavs	lr!, {r4, r5, r6, r8, fp, sp, lr}
    1ac8:	00000200 	andeq	r0, r0, r0, lsl #4
    1acc:	00190500 	andseq	r0, r9, r0, lsl #10
    1ad0:	99c80205 	stmibls	r8, {r0, r2, r9}^
    1ad4:	05150000 	ldreq	r0, [r5, #-0]
    1ad8:	19051305 	stmdbne	r5, {r0, r2, r8, r9, ip}
    1adc:	05052d06 	streq	r2, [r5, #-3334]	; 0xfffff2fa
    1ae0:	2f67062f 	svccs	0x0067062f
    1ae4:	0006024b 	andeq	r0, r6, fp, asr #4
    1ae8:	01760101 	cmneq	r6, r1, lsl #2
    1aec:	00030000 	andeq	r0, r3, r0
    1af0:	0000005e 	andeq	r0, r0, lr, asr r0
    1af4:	0efb0102 	cdpeq	1, 15, cr0, cr11, cr2, {0}
    1af8:	0101000d 	tsteq	r1, sp
    1afc:	00000101 	andeq	r0, r0, r1, lsl #2
    1b00:	00000100 	andeq	r0, r0, r0, lsl #2
    1b04:	732f2e01 			; <UNDEFINED> instruction: 0x732f2e01
    1b08:	66666174 			; <UNDEFINED> instruction: 0x66666174
    1b0c:	6372732d 	cmnvs	r2, #-1275068416	; 0xb4000000
    1b10:	73552f00 	cmpvc	r5, #0, 30
    1b14:	2f737265 	svccs	0x00737265
    1b18:	656c696d 	strbvs	r6, [ip, #-2413]!	; 0xfffff693
    1b1c:	6f532f73 	svcvs	0x00532f73
    1b20:	65637275 	strbvs	r7, [r3, #-629]!	; 0xfffffd8b
    1b24:	3273632f 	rsbscc	r6, r3, #-1140850688	; 0xbc000000
    1b28:	786c3034 	stmdavc	ip!, {r2, r4, r5, ip, sp}^
    1b2c:	62696c2f 	rsbvs	r6, r9, #12032	; 0x2f00
    1b30:	692f6970 	stmdbvs	pc!, {r4, r5, r6, r8, fp, sp, lr}	; <UNPREDICTABLE>
    1b34:	756c636e 	strbvc	r6, [ip, #-878]!	; 0xfffffc92
    1b38:	00006564 	andeq	r6, r0, r4, ror #10
    1b3c:	61747363 	cmnvs	r4, r3, ror #6
    1b40:	632e7472 			; <UNDEFINED> instruction: 0x632e7472
    1b44:	00000100 	andeq	r0, r0, r0, lsl #2
    1b48:	2e697072 	mcrcs	0, 3, r7, cr9, cr2, {3}
    1b4c:	00020068 	andeq	r0, r2, r8, rrx
    1b50:	10050000 	andne	r0, r5, r0
    1b54:	f4020500 	vst3.8	{d0,d2,d4}, [r2], r0
    1b58:	03000099 	movweq	r0, #153	; 0x99
    1b5c:	05050110 	streq	r0, [r5, #-272]	; 0xfffffef0
    1b60:	13020513 	movwne	r0, #9491	; 0x2513
    1b64:	05140505 	ldreq	r0, [r4, #-1285]	; 0xfffffafb
    1b68:	050e0610 	streq	r0, [lr, #-1552]	; 0xfffff9f0
    1b6c:	30063205 	andcc	r3, r6, r5, lsl #4
    1b70:	0a051413 	beq	146bc4 <__bss_end__+0x13ba24>
    1b74:	08090501 	stmdaeq	r9, {r0, r8, sl}
    1b78:	06100591 			; <UNDEFINED> instruction: 0x06100591
    1b7c:	9a0a0501 	bls	282f88 <__bss_end__+0x277de8>
    1b80:	056a1005 	strbeq	r1, [sl, #-5]!
    1b84:	052d060a 	streq	r0, [sp, #-1546]!	; 0xfffff9f6
    1b88:	10052f09 	andne	r2, r5, r9, lsl #30
    1b8c:	0a050106 	beq	141fac <__bss_end__+0x136e0c>
    1b90:	09052d06 	stmdbeq	r5, {r1, r2, r8, sl, fp, sp}
    1b94:	061005bb 			; <UNDEFINED> instruction: 0x061005bb
    1b98:	060a0501 	streq	r0, [sl], -r1, lsl #10
    1b9c:	4b090565 	blmi	243138 <__bss_end__+0x237f98>
    1ba0:	01060d05 	tsteq	r6, r5, lsl #26
    1ba4:	052d0a05 	streq	r0, [sp, #-2565]!	; 0xfffff5fb
    1ba8:	0a052f10 	beq	14d7f0 <__bss_end__+0x142650>
    1bac:	09052d06 	stmdbeq	r5, {r1, r2, r8, sl, fp, sp}
    1bb0:	060d052f 	streq	r0, [sp], -pc, lsr #10
    1bb4:	2d0a0501 	cfstr32cs	mvfx0, [sl, #-4]
    1bb8:	052f1005 	streq	r1, [pc, #-5]!	; 1bbb <__code_start__-0x6445>
    1bbc:	052d060a 	streq	r0, [sp, #-1546]!	; 0xfffff9f6
    1bc0:	0d052f09 	stceq	15, cr2, [r5, #-36]	; 0xffffffdc
    1bc4:	0a050106 	beq	141fe4 <__bss_end__+0x136e44>
    1bc8:	2f10052d 	svccs	0x0010052d
    1bcc:	2d060a05 	vstrcs	s0, [r6, #-20]	; 0xffffffec
    1bd0:	052f0905 	streq	r0, [pc, #-2309]!	; 12d3 <__code_start__-0x6d2d>
    1bd4:	0501060d 	streq	r0, [r1, #-1549]	; 0xfffff9f3
    1bd8:	10052d0a 	andne	r2, r5, sl, lsl #26
    1bdc:	060a052f 	streq	r0, [sl], -pc, lsr #10
    1be0:	1309052d 	movwne	r0, #38189	; 0x952d
    1be4:	01061005 	tsteq	r6, r5
    1be8:	2d060a05 	vstrcs	s0, [r6, #-20]	; 0xffffffec
    1bec:	32150505 	andscc	r0, r5, #20971520	; 0x1400000
    1bf0:	144a0101 	strbne	r0, [sl], #-257	; 0xfffffeff
    1bf4:	61031105 	tstvs	r3, r5, lsl #2
    1bf8:	13050501 	movwne	r0, #21761	; 0x5501
    1bfc:	14051414 	strne	r1, [r5], #-1044	; 0xfffffbec
    1c00:	062e0101 	strteq	r0, [lr], -r1, lsl #2
    1c04:	06050501 	streq	r0, [r5], -r1, lsl #10
    1c08:	0a051513 	beq	14705c <__bss_end__+0x13bebc>
    1c0c:	05050106 	streq	r0, [r5, #-262]	; 0xfffffefa
    1c10:	01064b06 	tsteq	r6, r6, lsl #22
    1c14:	01160306 	tsteq	r6, r6, lsl #6
    1c18:	0311052f 	tsteq	r1, #197132288	; 0xbc00000
    1c1c:	0505015f 	streq	r0, [r5, #-351]	; 0xfffffea1
    1c20:	05141413 	ldreq	r1, [r4, #-1043]	; 0xfffffbed
    1c24:	2e010114 	mcrcs	1, 0, r0, cr1, cr4, {0}
    1c28:	05050106 	streq	r0, [r5, #-262]	; 0xfffffefa
    1c2c:	08051306 	stmdaeq	r5, {r1, r2, r8, r9, ip}
    1c30:	05050106 	streq	r0, [r5, #-262]	; 0xfffffefa
    1c34:	052e1c03 	streq	r1, [lr, #-3075]!	; 0xfffff3fd
    1c38:	2e640307 	cdpcs	3, 6, cr0, cr4, cr7, {0}
    1c3c:	2f060905 	svccs	0x00060905
    1c40:	01060e05 	tsteq	r6, r5, lsl #28
    1c44:	30060505 	andcc	r0, r6, r5, lsl #10
    1c48:	01060a05 	tsteq	r6, r5, lsl #20
    1c4c:	2f060505 	svccs	0x00060505
    1c50:	03060106 	movweq	r0, #24838	; 0x6106
    1c54:	02050118 	andeq	r0, r5, #6
    1c58:	060a0530 			; <UNDEFINED> instruction: 0x060a0530
    1c5c:	022e6f03 	eoreq	r6, lr, #3, 30
    1c60:	0101000c 	tsteq	r1, ip
    1c64:	0000007d 	andeq	r0, r0, sp, ror r0
    1c68:	00650003 	rsbeq	r0, r5, r3
    1c6c:	01020000 	mrseq	r0, (UNDEF: 2)
    1c70:	000d0efb 	strdeq	r0, [sp], -fp
    1c74:	01010101 	tsteq	r1, r1, lsl #2
    1c78:	01000000 	mrseq	r0, (UNDEF: 0)
    1c7c:	2e010000 	cdpcs	0, 0, cr0, cr1, cr0, {0}
    1c80:	6174732f 	cmnvs	r4, pc, lsr #6
    1c84:	732d6666 			; <UNDEFINED> instruction: 0x732d6666
    1c88:	2f006372 	svccs	0x00006372
    1c8c:	72657355 	rsbvc	r7, r5, #1409286145	; 0x54000001
    1c90:	696d2f73 	stmdbvs	sp!, {r0, r1, r4, r5, r6, r8, r9, sl, fp, sp}^
    1c94:	2f73656c 	svccs	0x0073656c
    1c98:	72756f53 	rsbsvc	r6, r5, #332	; 0x14c
    1c9c:	632f6563 			; <UNDEFINED> instruction: 0x632f6563
    1ca0:	30343273 	eorscc	r3, r4, r3, ror r2
    1ca4:	6c2f786c 	stcvs	8, cr7, [pc], #-432	; 1afc <__code_start__-0x6504>
    1ca8:	69706269 	ldmdbvs	r0!, {r0, r3, r5, r6, r9, sp, lr}^
    1cac:	636e692f 	cmnvs	lr, #770048	; 0xbc000
    1cb0:	6564756c 	strbvs	r7, [r4, #-1388]!	; 0xfffffa94
    1cb4:	75630000 	strbvc	r0, [r3, #-0]!
    1cb8:	6d6f7473 	cfstrdvs	mvd7, [pc, #-460]!	; 1af4 <__code_start__-0x650c>
    1cbc:	616f6c2d 	cmnvs	pc, sp, lsr #24
    1cc0:	2e726564 	cdpcs	5, 7, cr6, cr2, cr4, {3}
    1cc4:	00010063 	andeq	r0, r1, r3, rrx
    1cc8:	69707200 	ldmdbvs	r0!, {r9, ip, sp, lr}^
    1ccc:	0200682e 	andeq	r6, r0, #3014656	; 0x2e0000
    1cd0:	05000000 	streq	r0, [r0, #-0]
    1cd4:	0205001a 	andeq	r0, r5, #26, 0
    1cd8:	00009b1c 	andeq	r9, r0, ip, lsl fp
    1cdc:	14010515 	strne	r0, [r1], #-1301	; 0xfffffaeb
    1ce0:	01000202 	tsteq	r0, r2, lsl #4
    1ce4:	00011401 	andeq	r1, r1, r1, lsl #8
    1ce8:	5e000300 	cdppl	3, 0, cr0, cr0, cr0, {0}
    1cec:	02000000 	andeq	r0, r0, #0, 0
    1cf0:	0d0efb01 	vstreq	d15, [lr, #-4]
    1cf4:	01010100 	mrseq	r0, (UNDEF: 17)
    1cf8:	00000001 	andeq	r0, r0, r1
    1cfc:	01000001 	tsteq	r0, r1
    1d00:	74732f2e 	ldrbtvc	r2, [r3], #-3886	; 0xfffff0d2
    1d04:	2d666661 	stclcs	6, cr6, [r6, #-388]!	; 0xfffffe7c
    1d08:	00637273 	rsbeq	r7, r3, r3, ror r2
    1d0c:	6573552f 	ldrbvs	r5, [r3, #-1327]!	; 0xfffffad1
    1d10:	6d2f7372 	stcvs	3, cr7, [pc, #-456]!	; 1b50 <__code_start__-0x64b0>
    1d14:	73656c69 	cmnvc	r5, #26880	; 0x6900
    1d18:	756f532f 	strbvc	r5, [pc, #-815]!	; 19f1 <__code_start__-0x660f>
    1d1c:	2f656372 	svccs	0x00656372
    1d20:	34327363 	ldrtcc	r7, [r2], #-867	; 0xfffffc9d
    1d24:	2f786c30 	svccs	0x00786c30
    1d28:	7062696c 	rsbvc	r6, r2, ip, ror #18
    1d2c:	6e692f69 	cdpvs	15, 6, cr2, cr9, cr9, {3}
    1d30:	64756c63 	ldrbtvs	r6, [r5], #-3171	; 0xfffff39d
    1d34:	72000065 	andvc	r0, r0, #101, 0	; 0x65
    1d38:	6f6f6265 	svcvs	0x006f6265
    1d3c:	00632e74 	rsbeq	r2, r3, r4, ror lr
    1d40:	72000001 	andvc	r0, r0, #1, 0
    1d44:	682e6970 	stmdavs	lr!, {r4, r5, r6, r8, fp, sp, lr}
    1d48:	00000200 	andeq	r0, r0, r0, lsl #4
    1d4c:	00190500 	andseq	r0, r9, r0, lsl #10
    1d50:	9b200205 	blls	80256c <__bss_end__+0x7f73cc>
    1d54:	0d030000 	stceq	0, cr0, [r3, #-0]
    1d58:	13050501 	movwne	r0, #21761	; 0x5501
    1d5c:	13053113 	movwne	r3, #20755	; 0x5113
    1d60:	01050106 	tsteq	r5, r6, lsl #2
    1d64:	061b052f 	ldreq	r0, [fp], -pc, lsr #10
    1d68:	13050585 	movwne	r0, #21893	; 0x5585
    1d6c:	2f090514 	svccs	0x00090514
    1d70:	01061605 	tsteq	r6, r5, lsl #12
    1d74:	2f060505 	svccs	0x00060505
    1d78:	11060e05 	tstne	r6, r5, lsl #28
    1d7c:	052f0505 	streq	r0, [pc, #-1285]!	; 187f <__code_start__-0x6781>
    1d80:	17052f01 	strne	r2, [r5, -r1, lsl #30]
    1d84:	05053006 	streq	r3, [r5, #-6]
    1d88:	016e0313 	cmneq	lr, r3, lsl r3
    1d8c:	17051313 	smladne	r5, r3, r3, r1
    1d90:	010f0306 	tsteq	pc, r6, lsl #6
    1d94:	71030505 	tstvc	r3, r5, lsl #10
    1d98:	0531062e 	ldreq	r0, [r1, #-1582]!	; 0xfffff9d2
    1d9c:	05010613 	streq	r0, [r1, #-1555]	; 0xfffff9ed
    1da0:	2e0d0307 	cdpcs	3, 0, cr0, cr13, cr7, {0}
    1da4:	4b060905 	blmi	1841c0 <__bss_end__+0x179020>
    1da8:	76030605 	strvc	r0, [r3], -r5, lsl #12
    1dac:	13050501 	movwne	r0, #21761	; 0x5501
    1db0:	2f090514 	svccs	0x00090514
    1db4:	01061605 	tsteq	r6, r5, lsl #12
    1db8:	2f060505 	svccs	0x00060505
    1dbc:	11060e05 	tstne	r6, r5, lsl #28
    1dc0:	2e2f0505 	cfsh64cs	mvdx0, mvdx15, #5
    1dc4:	010a0306 	tsteq	sl, r6, lsl #6
    1dc8:	134d2f30 	movtne	r2, #57136	; 0xdf30
    1dcc:	67151313 			; <UNDEFINED> instruction: 0x67151313
    1dd0:	01040200 	mrseq	r0, R12_usr
    1dd4:	000d0567 	andeq	r0, sp, r7, ror #10
    1dd8:	01010402 	tsteq	r1, r2, lsl #8
    1ddc:	02000a05 	andeq	r0, r0, #20480	; 0x5000
    1de0:	05010104 	streq	r0, [r1, #-260]	; 0xfffffefc
    1de4:	04020005 	streq	r0, [r2], #-5
    1de8:	0d050101 	stfeqs	f0, [r5, #-4]
    1dec:	01040200 	mrseq	r0, R12_usr
    1df0:	000a0501 	andeq	r0, sl, r1, lsl #10
    1df4:	01010402 	tsteq	r1, r2, lsl #8
    1df8:	01000a02 	tsteq	r0, r2, lsl #20
    1dfc:	0001fa01 	andeq	pc, r1, r1, lsl #20
    1e00:	5d000300 	stcpl	3, cr0, [r0, #-0]
    1e04:	02000000 	andeq	r0, r0, #0, 0
    1e08:	0d0efb01 	vstreq	d15, [lr, #-4]
    1e0c:	01010100 	mrseq	r0, (UNDEF: 17)
    1e10:	00000001 	andeq	r0, r0, r1
    1e14:	01000001 	tsteq	r0, r1
    1e18:	74732f2e 	ldrbtvc	r2, [r3], #-3886	; 0xfffff0d2
    1e1c:	2d666661 	stclcs	6, cr6, [r6, #-388]!	; 0xfffffe7c
    1e20:	00637273 	rsbeq	r7, r3, r3, ror r2
    1e24:	6573552f 	ldrbvs	r5, [r3, #-1327]!	; 0xfffffad1
    1e28:	6d2f7372 	stcvs	3, cr7, [pc, #-456]!	; 1c68 <__code_start__-0x6398>
    1e2c:	73656c69 	cmnvc	r5, #26880	; 0x6900
    1e30:	756f532f 	strbvc	r5, [pc, #-815]!	; 1b09 <__code_start__-0x64f7>
    1e34:	2f656372 	svccs	0x00656372
    1e38:	34327363 	ldrtcc	r7, [r2], #-867	; 0xfffffc9d
    1e3c:	2f786c30 	svccs	0x00786c30
    1e40:	7062696c 	rsbvc	r6, r2, ip, ror #18
    1e44:	6e692f69 	cdpvs	15, 6, cr2, cr9, cr9, {3}
    1e48:	64756c63 	ldrbtvs	r6, [r5], #-3171	; 0xfffff39d
    1e4c:	74000065 	strvc	r0, [r0], #-101	; 0xffffff9b
    1e50:	72656d69 	rsbvc	r6, r5, #6720	; 0x1a40
    1e54:	0100632e 	tsteq	r0, lr, lsr #6
    1e58:	70720000 	rsbsvc	r0, r2, r0
    1e5c:	00682e69 	rsbeq	r2, r8, r9, ror #28
    1e60:	00000002 	andeq	r0, r0, r2
    1e64:	05002305 	streq	r2, [r0, #-773]	; 0xfffffcfb
    1e68:	009bac02 	addseq	sl, fp, r2, lsl #24
    1e6c:	05051500 	streq	r1, [r5, #-1280]	; 0xfffffb00
    1e70:	060c0513 			; <UNDEFINED> instruction: 0x060c0513
    1e74:	061f0501 	ldreq	r0, [pc], -r1, lsl #10
    1e78:	1505056a 	strne	r0, [r5, #-1386]	; 0xfffffa96
    1e7c:	0f061f05 	svceq	0x00061f05
    1e80:	06310505 	ldrteq	r0, [r1], -r5, lsl #10
    1e84:	030a052f 	movweq	r0, #42287	; 0xa52f
    1e88:	05050177 	streq	r0, [r5, #-375]	; 0xfffffe89
    1e8c:	060c0513 			; <UNDEFINED> instruction: 0x060c0513
    1e90:	05056601 	streq	r6, [r5, #-1537]	; 0xfffff9ff
    1e94:	01090306 	tsteq	r9, r6, lsl #6
    1e98:	0601052f 	streq	r0, [r1], -pc, lsr #10
    1e9c:	061c0513 			; <UNDEFINED> instruction: 0x061c0513
    1ea0:	13050568 	movwne	r0, #21864	; 0x5568
    1ea4:	76030a05 	strvc	r0, [r3], -r5, lsl #20
    1ea8:	15050501 	strne	r0, [r5, #-1281]	; 0xfffffaff
    1eac:	18061c05 	stmdane	r6, {r0, r2, sl, fp, ip}
    1eb0:	0305052e 	movweq	r0, #21806	; 0x552e
    1eb4:	2f062e7a 	svccs	0x00062e7a
    1eb8:	77030a05 	strvc	r0, [r3, -r5, lsl #20]
    1ebc:	13050501 	movwne	r0, #21761	; 0x5501
    1ec0:	01060c05 	tsteq	r6, r5, lsl #24
    1ec4:	06050566 	streq	r0, [r5], -r6, ror #10
    1ec8:	2f010903 	svccs	0x00010903
    1ecc:	0c050106 	stfeqs	f0, [r5], {6}
    1ed0:	05017603 	streq	r7, [r1, #-1539]	; 0xfffff9fd
    1ed4:	0f030605 	svceq	0x00030605
    1ed8:	1309052e 	movwne	r0, #38190	; 0x952e
    1edc:	74030a05 	strvc	r0, [r3], #-2565	; 0xfffff5fb
    1ee0:	15050501 	strne	r0, [r5, #-1281]	; 0xfffffaff
    1ee4:	030a052f 	movweq	r0, #42287	; 0xa52f
    1ee8:	05050177 	streq	r0, [r5, #-375]	; 0xfffffe89
    1eec:	060c0513 			; <UNDEFINED> instruction: 0x060c0513
    1ef0:	05056601 	streq	r6, [r5, #-1537]	; 0xfffff9ff
    1ef4:	01090306 	tsteq	r9, r6, lsl #6
    1ef8:	1a061105 	bne	186314 <__bss_end__+0x17b174>
    1efc:	78030505 	stmdavc	r3, {r0, r2, r8, sl}
    1f00:	052f062e 	streq	r0, [pc, #-1582]!	; 18da <__code_start__-0x6726>
    1f04:	0c051909 			; <UNDEFINED> instruction: 0x0c051909
    1f08:	1c050106 	stfnes	f0, [r5], {6}
    1f0c:	05058706 	streq	r8, [r5, #-1798]	; 0xfffff8fa
    1f10:	061c0513 			; <UNDEFINED> instruction: 0x061c0513
    1f14:	2f050511 	svccs	0x00050511
    1f18:	0606054a 	streq	r0, [r6], -sl, asr #10
    1f1c:	052e7603 	streq	r7, [lr, #-1539]!	; 0xfffff9fd
    1f20:	0a051305 	beq	146b3c <__bss_end__+0x13b99c>
    1f24:	05017603 	streq	r7, [r1, #-1539]	; 0xfffff9fd
    1f28:	052f1505 	streq	r1, [pc, #-1285]!	; 1a2b <__code_start__-0x65d5>
    1f2c:	0177030a 	cmneq	r7, sl, lsl #6
    1f30:	05130505 	ldreq	r0, [r3, #-1285]	; 0xfffffafb
    1f34:	6601060c 	strvs	r0, [r1], -ip, lsl #12
    1f38:	03060505 	movweq	r0, #25861	; 0x6505
    1f3c:	062f0109 	strteq	r0, [pc], -r9, lsl #2
    1f40:	030c0501 	movweq	r0, #50433	; 0xc501
    1f44:	05050176 	streq	r0, [r5, #-374]	; 0xfffffe8a
    1f48:	2e0f0306 	cdpcs	3, 0, cr0, cr15, cr6, {0}
    1f4c:	05130905 	ldreq	r0, [r3, #-2309]	; 0xfffff6fb
    1f50:	0174030a 	cmneq	r4, sl, lsl #6
    1f54:	2f150505 	svccs	0x00150505
    1f58:	77030a05 	strvc	r0, [r3, -r5, lsl #20]
    1f5c:	13050501 	movwne	r0, #21761	; 0x5501
    1f60:	01060c05 	tsteq	r6, r5, lsl #24
    1f64:	06050566 	streq	r0, [r5], -r6, ror #10
    1f68:	05010903 	streq	r0, [r1, #-2307]	; 0xfffff6fd
    1f6c:	051a0611 	ldreq	r0, [sl, #-1553]	; 0xfffff9ef
    1f70:	2e780305 	cdpcs	3, 7, cr0, cr8, cr5, {0}
    1f74:	09052f06 	stmdbeq	r5, {r1, r2, r8, r9, sl, fp, sp}
    1f78:	060c0519 			; <UNDEFINED> instruction: 0x060c0519
    1f7c:	061e0501 	ldreq	r0, [lr], -r1, lsl #10
    1f80:	1305058a 	movwne	r0, #21898	; 0x558a
    1f84:	050e0605 	streq	r0, [lr, #-1541]	; 0xfffff9fb
    1f88:	1e051305 	cdpne	3, 0, cr1, cr5, cr5, {0}
    1f8c:	05051406 	streq	r1, [r5, #-1030]	; 0xfffffbfa
    1f90:	0605662c 	streq	r6, [r5], -ip, lsr #12
    1f94:	2e760306 	cdpcs	3, 7, cr0, cr6, cr6, {0}
    1f98:	05130505 	ldreq	r0, [r3, #-1285]	; 0xfffffafb
    1f9c:	0176030a 	cmneq	r6, sl, lsl #6
    1fa0:	2f150505 	svccs	0x00150505
    1fa4:	77030a05 	strvc	r0, [r3, -r5, lsl #20]
    1fa8:	13050501 	movwne	r0, #21761	; 0x5501
    1fac:	01060c05 	tsteq	r6, r5, lsl #24
    1fb0:	06050566 	streq	r0, [r5], -r6, ror #10
    1fb4:	2f010903 	svccs	0x00010903
    1fb8:	0c050106 	stfeqs	f0, [r5], {6}
    1fbc:	05017603 	streq	r7, [r1, #-1539]	; 0xfffff9fd
    1fc0:	0f030605 	svceq	0x00030605
    1fc4:	1309052e 	movwne	r0, #38190	; 0x952e
    1fc8:	74030a05 	strvc	r0, [r3], #-2565	; 0xfffff5fb
    1fcc:	15050501 	strne	r0, [r5, #-1281]	; 0xfffffaff
    1fd0:	030a052f 	movweq	r0, #42287	; 0xa52f
    1fd4:	05050177 	streq	r0, [r5, #-375]	; 0xfffffe89
    1fd8:	060c0513 			; <UNDEFINED> instruction: 0x060c0513
    1fdc:	05056601 	streq	r6, [r5, #-1537]	; 0xfffff9ff
    1fe0:	01090306 	tsteq	r9, r6, lsl #6
    1fe4:	1a061105 	bne	186400 <__bss_end__+0x17b260>
    1fe8:	78030505 	stmdavc	r3, {r0, r2, r8, sl}
    1fec:	052f062e 	streq	r0, [pc, #-1582]!	; 19c6 <__code_start__-0x663a>
    1ff0:	0c051909 			; <UNDEFINED> instruction: 0x0c051909
    1ff4:	08020106 	stmdaeq	r2, {r1, r2, r8}
    1ff8:	04010100 	streq	r0, [r1], #-256	; 0xffffff00
    1ffc:	03000002 	movweq	r0, #2
    2000:	0000c800 	andeq	ip, r0, r0, lsl #16
    2004:	fb010200 	blx	4280e <__bss_end__+0x3766e>
    2008:	01000d0e 	tsteq	r0, lr, lsl #26
    200c:	00010101 	andeq	r0, r1, r1, lsl #2
    2010:	00010000 	andeq	r0, r1, r0
    2014:	682f0100 	stmdavs	pc!, {r8}	; <UNPREDICTABLE>
    2018:	2f656d6f 	svccs	0x00656d6f
    201c:	6c676e65 	stclvs	14, cr6, [r7], #-404	; 0xfffffe6c
    2020:	632f7265 			; <UNDEFINED> instruction: 0x632f7265
    2024:	7373616c 	cmnvc	r3, #27
    2028:	3173632f 	cmncc	r3, pc, lsr #6
    202c:	2d653034 	stclcs	0, cr3, [r5, #-208]!	; 0xffffff30
    2030:	69773232 	ldmdbvs	r7!, {r1, r4, r5, r9, ip, sp}^
    2034:	6c2f2f6e 	stcvs	15, cr2, [pc], #-440	; 1e84 <__code_start__-0x617c>
    2038:	69706269 	ldmdbvs	r0!, {r0, r3, r5, r6, r9, sp, lr}^
    203c:	636e692f 	cmnvs	lr, #770048	; 0xbc000
    2040:	6564756c 	strbvs	r7, [r4, #-1388]!	; 0xfffffa94
    2044:	73752f00 	cmnvc	r5, #0, 30
    2048:	68732f72 	ldmdavs	r3!, {r1, r4, r5, r6, r8, r9, sl, fp, sp}^
    204c:	2f657261 	svccs	0x00657261
    2050:	2d636367 	stclcs	3, cr6, [r3, #-412]!	; 0xfffffe64
    2054:	2d6d7261 	sfmcs	f7, 2, [sp, #-388]!	; 0xfffffe7c
    2058:	656e6f6e 	strbvs	r6, [lr, #-3950]!	; 0xfffff092
    205c:	6261652d 	rsbvs	r6, r1, #188743680	; 0xb400000
    2060:	30312d69 	eorscc	r2, r1, r9, ror #26
    2064:	322d332e 	eorcc	r3, sp, #-1207959552	; 0xb8000000
    2068:	2e313230 	mrccs	2, 1, r3, cr1, cr0, {1}
    206c:	6c2f3031 	stcvs	0, cr3, [pc], #-196	; 1fb0 <__code_start__-0x6050>
    2070:	672f6269 	strvs	r6, [pc, -r9, ror #4]!
    2074:	612f6363 			; <UNDEFINED> instruction: 0x612f6363
    2078:	6e2d6d72 	mcrvs	13, 1, r6, cr13, cr2, {3}
    207c:	2d656e6f 	stclcs	14, cr6, [r5, #-444]!	; 0xfffffe44
    2080:	69626165 	stmdbvs	r2!, {r0, r2, r5, r6, r8, sp, lr}^
    2084:	2e30312f 	rsfcssp	f3, f0, #10.0
    2088:	2f312e33 	svccs	0x00312e33
    208c:	6c636e69 	stclvs	14, cr6, [r3], #-420	; 0xfffffe5c
    2090:	00656475 	rsbeq	r6, r5, r5, ror r4
    2094:	72617500 	rsbvc	r7, r1, #0, 10
    2098:	00632e74 	rsbeq	r2, r3, r4, ror lr
    209c:	75000000 	strvc	r0, [r0, #-0]
    20a0:	2e747261 	cdpcs	2, 7, cr7, cr4, cr1, {3}
    20a4:	00010068 	andeq	r0, r1, r8, rrx
    20a8:	69707200 	ldmdbvs	r0!, {r9, ip, sp, lr}^
    20ac:	0100682e 	tsteq	r0, lr, lsr #16
    20b0:	70670000 	rsbvc	r0, r7, r0
    20b4:	682e6f69 	stmdavs	lr!, {r0, r3, r5, r6, r8, r9, sl, fp, sp, lr}
    20b8:	00000100 	andeq	r0, r0, r0, lsl #2
    20bc:	69647473 	stmdbvs	r4!, {r0, r1, r4, r5, r6, sl, ip, sp, lr}^
    20c0:	672d746e 	strvs	r7, [sp, -lr, ror #8]!
    20c4:	682e6363 	stmdavs	lr!, {r0, r1, r5, r6, r8, r9, sp, lr}
    20c8:	00000200 	andeq	r0, r0, r0, lsl #4
    20cc:	00390500 	eorseq	r0, r9, r0, lsl #10
    20d0:	9cc80205 	sfmls	f0, 2, [r8], {5}
    20d4:	30030000 	andcc	r0, r3, r0
    20d8:	05010601 	streq	r0, [r1, #-1537]	; 0xfffff9ff
    20dc:	05670605 	strbeq	r0, [r7, #-1541]!	; 0xfffff9fb
    20e0:	05010611 	streq	r0, [r1, #-1553]	; 0xfffff9ef
    20e4:	01052e05 	tsteq	r5, r5, lsl #28
    20e8:	06380567 	ldrteq	r0, [r8], -r7, ror #10
    20ec:	05010629 	streq	r0, [r1, #-1577]	; 0xfffff9d7
    20f0:	05670605 	strbeq	r0, [r7, #-1541]!	; 0xfffff9fb
    20f4:	05010611 	streq	r0, [r1, #-1553]	; 0xfffff9ef
    20f8:	01052e05 	tsteq	r5, r5, lsl #28
    20fc:	06160567 	ldreq	r0, [r6], -r7, ror #10
    2100:	052e1503 	streq	r1, [lr, #-1283]!	; 0xfffffafd
    2104:	68673505 	stmdavs	r7!, {r0, r2, r8, sl, ip, sp}^
    2108:	0c036835 	stceq	8, cr6, [r3], {53}	; 0x35
    210c:	696b852e 	stmdbvs	fp!, {r1, r2, r3, r5, r8, sl, pc}^
    2110:	660c0369 	strvs	r0, [ip], -r9, ror #6
    2114:	05676b13 	strbeq	r6, [r7, #-2835]!	; 0xfffff4ed
    2118:	052f0601 	streq	r0, [pc, #-1537]!	; 1b1f <__code_start__-0x64e1>
    211c:	25080619 	strcs	r0, [r8, #-1561]	; 0xfffff9e7
    2120:	05340505 	ldreq	r0, [r4, #-1285]!	; 0xfffffafb
    2124:	0501060d 	streq	r0, [r1, #-1549]	; 0xfffff9f3
    2128:	19054c01 	stmdbne	r5, {r0, sl, fp, lr}
    212c:	05056706 	streq	r6, [r5, #-1798]	; 0xfffff8fa
    2130:	060d0536 			; <UNDEFINED> instruction: 0x060d0536
    2134:	4a280501 	bmi	a03540 <__bss_end__+0x9f83a0>
    2138:	05300105 	ldreq	r0, [r0, #-261]!	; 0xfffffefb
    213c:	05870615 	streq	r0, [r7, #1557]	; 0x615
    2140:	052f2f05 	streq	r2, [pc, #-3845]!	; 1243 <__code_start__-0x6dbd>
    2144:	04020009 	streq	r0, [r2], #-9
    2148:	0a051301 	beq	146d54 <__bss_end__+0x13bbb4>
    214c:	01040200 	mrseq	r0, R12_usr
    2150:	000c0511 	andeq	r0, ip, r1, lsl r5
    2154:	06010402 	streq	r0, [r1], -r2, lsl #8
    2158:	000a0501 	andeq	r0, sl, r1, lsl #10
    215c:	2e010402 	cdpcs	4, 0, cr0, cr1, cr2, {0}
    2160:	4c060505 	cfstr32mi	mvfx0, [r6], {5}
    2164:	01060e05 	tsteq	r6, r5, lsl #28
    2168:	054a0905 	strbeq	r0, [sl, #-2309]	; 0xfffff6fb
    216c:	2f2f0605 	svccs	0x002f0605
    2170:	13060105 	movwne	r0, #24837	; 0x6105
    2174:	67061c05 	strvs	r1, [r6, -r5, lsl #24]
    2178:	05050106 	streq	r0, [r5, #-262]	; 0xfffffefa
    217c:	052f4b06 	streq	r4, [pc, #-2822]!	; 167e <__code_start__-0x6982>
    2180:	04020009 	streq	r0, [r2], #-9
    2184:	0a051301 	beq	146d90 <__bss_end__+0x13bbf0>
    2188:	01040200 	mrseq	r0, R12_usr
    218c:	000c0511 	andeq	r0, ip, r1, lsl r5
    2190:	06010402 	streq	r0, [r1], -r2, lsl #8
    2194:	000a0501 	andeq	r0, sl, r1, lsl #10
    2198:	2e010402 	cdpcs	4, 0, cr0, cr1, cr2, {0}
    219c:	4c060505 	cfstr32mi	mvfx0, [r6], {5}
    21a0:	06010567 	streq	r0, [r1], -r7, ror #10
    21a4:	0619052f 	ldreq	r0, [r9], -pc, lsr #10
    21a8:	2e1b054c 	cfmac32cs	mvfx0, mvfx11, mvfx12
    21ac:	052e2a05 	streq	r2, [lr, #-2565]!	; 0xfffff5fb
    21b0:	05010631 	streq	r0, [r1, #-1585]	; 0xfffff9cf
    21b4:	1c052e42 	stcne	14, cr2, [r5], {66}	; 0x42
    21b8:	05053106 	streq	r3, [r5, #-262]	; 0xfffffefa
    21bc:	2e09032f 	cdpcs	3, 0, cr0, cr9, cr15, {1}
    21c0:	01060e05 	tsteq	r6, r5, lsl #28
    21c4:	054a2105 	strbeq	r2, [sl, #-261]	; 0xfffffefb
    21c8:	2e0a0301 	cdpcs	3, 0, cr0, cr10, cr1, {0}
    21cc:	68061a05 	stmdavs	r6, {r0, r2, r9, fp, ip}
    21d0:	02000905 	andeq	r0, r0, #81920	; 0x14000
    21d4:	05300104 	ldreq	r0, [r0, #-260]!	; 0xfffffefc
    21d8:	0402000a 	streq	r0, [r2], #-10
    21dc:	0c051101 	stfeqs	f1, [r5], {1}
    21e0:	01040200 	mrseq	r0, R12_usr
    21e4:	0a050106 	beq	142604 <__bss_end__+0x137464>
    21e8:	01040200 	mrseq	r0, R12_usr
    21ec:	0619052e 	ldreq	r0, [r9], -lr, lsr #10
    21f0:	667ee803 	ldrbtvs	lr, [lr], -r3, lsl #16
    21f4:	2f2f0505 	svccs	0x002f0505
    21f8:	0105672f 	tsteq	r5, pc, lsr #14
    21fc:	04022f06 	streq	r2, [r2], #-3846	; 0xfffff0fa
    2200:	92010100 	andls	r0, r1, #0
    2204:	03000003 	movweq	r0, #3
    2208:	0000b700 	andeq	fp, r0, r0, lsl #14
    220c:	fb010200 	blx	42a16 <__bss_end__+0x37876>
    2210:	01000d0e 	tsteq	r0, lr, lsl #26
    2214:	00010101 	andeq	r0, r1, r1, lsl #2
    2218:	00010000 	andeq	r0, r1, r0
    221c:	682f0100 	stmdavs	pc!, {r8}	; <UNPREDICTABLE>
    2220:	2f656d6f 	svccs	0x00656d6f
    2224:	6c676e65 	stclvs	14, cr6, [r7], #-404	; 0xfffffe6c
    2228:	632f7265 			; <UNDEFINED> instruction: 0x632f7265
    222c:	7373616c 	cmnvc	r3, #27
    2230:	3173632f 	cmncc	r3, pc, lsr #6
    2234:	2d653034 	stclcs	0, cr3, [r5, #-208]!	; 0xffffff30
    2238:	69773232 	ldmdbvs	r7!, {r1, r4, r5, r9, ip, sp}^
    223c:	6c2f2f6e 	stcvs	15, cr2, [pc], #-440	; 208c <__code_start__-0x5f74>
    2240:	69706269 	ldmdbvs	r0!, {r0, r3, r5, r6, r9, sp, lr}^
    2244:	636e692f 	cmnvs	lr, #770048	; 0xbc000
    2248:	6564756c 	strbvs	r7, [r4, #-1388]!	; 0xfffffa94
    224c:	73752f00 	cmnvc	r5, #0, 30
    2250:	68732f72 	ldmdavs	r3!, {r1, r4, r5, r6, r8, r9, sl, fp, sp}^
    2254:	2f657261 	svccs	0x00657261
    2258:	2d636367 	stclcs	3, cr6, [r3, #-412]!	; 0xfffffe64
    225c:	2d6d7261 	sfmcs	f7, 2, [sp, #-388]!	; 0xfffffe7c
    2260:	656e6f6e 	strbvs	r6, [lr, #-3950]!	; 0xfffff092
    2264:	6261652d 	rsbvs	r6, r1, #188743680	; 0xb400000
    2268:	30312d69 	eorscc	r2, r1, r9, ror #26
    226c:	322d332e 	eorcc	r3, sp, #-1207959552	; 0xb8000000
    2270:	2e313230 	mrccs	2, 1, r3, cr1, cr0, {1}
    2274:	6c2f3031 	stcvs	0, cr3, [pc], #-196	; 21b8 <__code_start__-0x5e48>
    2278:	672f6269 	strvs	r6, [pc, -r9, ror #4]!
    227c:	612f6363 			; <UNDEFINED> instruction: 0x612f6363
    2280:	6e2d6d72 	mcrvs	13, 1, r6, cr13, cr2, {3}
    2284:	2d656e6f 	stclcs	14, cr6, [r5, #-444]!	; 0xfffffe44
    2288:	69626165 	stmdbvs	r2!, {r0, r2, r5, r6, r8, sp, lr}^
    228c:	2e30312f 	rsfcssp	f3, f0, #10.0
    2290:	2f312e33 	svccs	0x00312e33
    2294:	6c636e69 	stclvs	14, cr6, [r3], #-420	; 0xfffffe5c
    2298:	00656475 	rsbeq	r6, r5, r5, ror r4
    229c:	616d6b00 	cmnvs	sp, r0, lsl #22
    22a0:	636f6c6c 	cmnvs	pc, #108, 24	; 0x6c00
    22a4:	0000632e 	andeq	r6, r0, lr, lsr #6
    22a8:	70720000 	rsbsvc	r0, r2, r0
    22ac:	00682e69 	rsbeq	r2, r8, r9, ror #28
    22b0:	73000001 	movwvc	r0, #1
    22b4:	6e696474 	mcrvs	4, 3, r6, cr9, cr4, {3}
    22b8:	63672d74 	cmnvs	r7, #116, 26	; 0x1d00
    22bc:	00682e63 	rsbeq	r2, r8, r3, ror #28
    22c0:	00000002 	andeq	r0, r0, r2
    22c4:	05001e05 	streq	r1, [r0, #-3589]	; 0xfffff1fb
    22c8:	009eb802 	addseq	fp, lr, r2, lsl #16
    22cc:	01270300 			; <UNDEFINED> instruction: 0x01270300
    22d0:	05012005 	streq	r2, [r1, #-5]
    22d4:	0501062d 	streq	r0, [r1, #-1581]	; 0xfffff9d3
    22d8:	05830620 	streq	r0, [r3, #1568]	; 0x620
    22dc:	35050122 	strcc	r0, [r5, #-290]	; 0xfffffede
    22e0:	1e050106 	adfnes	f0, f5, f6
    22e4:	20058306 	andcs	r8, r5, r6, lsl #6
    22e8:	062d0501 	strteq	r0, [sp], -r1, lsl #10
    22ec:	06420501 	strbeq	r0, [r2], -r1, lsl #10
    22f0:	05010685 	streq	r0, [r1, #-1669]	; 0xfffff97b
    22f4:	144b0605 	strbne	r0, [fp], #-1541	; 0xfffff9fb
    22f8:	002e0601 	eoreq	r0, lr, r1, lsl #12
    22fc:	06020402 	streq	r0, [r2], -r2, lsl #8
    2300:	0402002e 	streq	r0, [r2], #-46	; 0xffffffd2
    2304:	02000102 	andeq	r0, r0, #-2147483648	; 0x80000000
    2308:	05150204 	ldreq	r0, [r5, #-516]	; 0xfffffdfc
    230c:	0402000d 	streq	r0, [r2], #-13
    2310:	05010602 	streq	r0, [r1, #-1538]	; 0xfffff9fe
    2314:	04020007 	streq	r0, [r2], #-7
    2318:	09054a02 	stmdbeq	r5, {r1, r9, fp, lr}
    231c:	05054b06 	streq	r4, [r5, #-2822]	; 0xfffff4fa
    2320:	06170515 			; <UNDEFINED> instruction: 0x06170515
    2324:	4a100501 	bmi	403730 <__bss_end__+0x3f8590>
    2328:	2f060505 	svccs	0x00060505
    232c:	01061b05 	tsteq	r6, r5, lsl #22
    2330:	052e0e05 	streq	r0, [lr, #-3589]!	; 0xfffff1fb
    2334:	05052f01 	streq	r2, [r5, #-3841]	; 0xfffff0ff
    2338:	01040200 	mrseq	r0, R12_usr
    233c:	4a770306 	bmi	1dc2f5c <__bss_end__+0x1db7dbc>
    2340:	01040200 	mrseq	r0, R12_usr
    2344:	04020001 	streq	r0, [r2], #-1
    2348:	009e0601 	addseq	r0, lr, r1, lsl #12
    234c:	2e010402 	cdpcs	4, 0, cr0, cr1, cr2, {0}
    2350:	01040200 	mrseq	r0, R12_usr
    2354:	09052e06 	stmdbeq	r5, {r1, r2, r9, sl, fp, sp}
    2358:	d6060132 			; <UNDEFINED> instruction: 0xd6060132
    235c:	052e062e 	streq	r0, [lr, #-1582]!	; 0xfffff9d2
    2360:	0505de19 	streq	sp, [r5, #-3609]	; 0xfffff1e7
    2364:	0805142f 	stmdaeq	r5, {r0, r1, r2, r3, r5, sl, ip}
    2368:	07050106 	streq	r0, [r5, -r6, lsl #2]
    236c:	0609054a 	streq	r0, [r9], -sl, asr #10
    2370:	1305054b 	movwne	r0, #21835	; 0x554b
    2374:	01060c05 	tsteq	r6, r5, lsl #24
    2378:	67060505 	strvs	r0, [r6, -r5, lsl #10]
    237c:	06010513 			; <UNDEFINED> instruction: 0x06010513
    2380:	06090567 	streq	r0, [r9], -r7, ror #10
    2384:	059e012a 	ldreq	r0, [lr, #298]	; 0x12a
    2388:	0106a528 	tsteq	r6, r8, lsr #10
    238c:	4b060505 	blmi	1837a8 <__bss_end__+0x178608>
    2390:	062e0601 	strteq	r0, [lr], -r1, lsl #12
    2394:	0513012e 	ldreq	r0, [r3, #-302]	; 0xfffffed2
    2398:	01470318 	cmpeq	r7, r8, lsl r3
    239c:	01130505 	tsteq	r3, r5, lsl #10
    23a0:	0f060106 	svceq	0x00060106
    23a4:	05130115 	ldreq	r0, [r3, #-277]	; 0xfffffeeb
    23a8:	0501060e 	streq	r0, [r1, #-1550]	; 0xfffff9f2
    23ac:	052e2e16 	streq	r2, [lr, #-3606]!	; 0xfffff1ea
    23b0:	39030605 	stmdbcc	r3, {r0, r2, r9, sl}
    23b4:	060b0501 	streq	r0, [fp], -r1, lsl #10
    23b8:	06050501 	streq	r0, [r5], -r1, lsl #10
    23bc:	060a054b 	streq	r0, [sl], -fp, asr #10
    23c0:	06050501 	streq	r0, [r5], -r1, lsl #10
    23c4:	060d054b 	streq	r0, [sp], -fp, asr #10
    23c8:	2e070501 	cfsh32cs	mvfx0, mvfx7, #1
    23cc:	054d0105 	strbeq	r0, [sp, #-261]	; 0xfffffefb
    23d0:	04020005 	streq	r0, [r2], #-5
    23d4:	78030601 	stmdavc	r3, {r0, r9, sl}
    23d8:	0402004a 	streq	r0, [r2], #-74	; 0xffffffb6
    23dc:	02000101 	andeq	r0, r0, #1073741824	; 0x40000000
    23e0:	ba060104 	blt	1827f8 <__bss_end__+0x177658>
    23e4:	01040200 	mrseq	r0, R12_usr
    23e8:	09052e06 	stmdbeq	r5, {r1, r2, r9, sl, fp, sp}
    23ec:	82060134 	andhi	r0, r6, #13
    23f0:	052e0666 	streq	r0, [lr, #-1638]!	; 0xfffff99a
    23f4:	0106db20 	tsteq	r6, r0, lsr #22
    23f8:	4b060505 	blmi	183814 <__bss_end__+0x178674>
    23fc:	04020001 	streq	r0, [r2], #-1
    2400:	02004a02 	andeq	r4, r0, #8192	; 0x2000
    2404:	00010204 	andeq	r0, r1, r4, lsl #4
    2408:	13020402 	movwne	r0, #9218	; 0x2402
    240c:	02001205 	andeq	r1, r0, #1342177280	; 0x50000000
    2410:	01060204 	tsteq	r6, r4, lsl #4
    2414:	02040200 	andeq	r0, r4, #0, 4
    2418:	0402002e 	streq	r0, [r2], #-46	; 0xffffffd2
    241c:	05052e02 	streq	r2, [r5, #-3586]	; 0xfffff1fe
    2420:	02040200 	andeq	r0, r4, #0, 4
    2424:	02002f06 	andeq	r2, r0, #6, 30
    2428:	05670204 	strbeq	r0, [r7, #-516]!	; 0xfffffdfc
    242c:	04020001 	streq	r0, [r2], #-1
    2430:	05130602 	ldreq	r0, [r3, #-1538]	; 0xfffff9fe
    2434:	04020005 	streq	r0, [r2], #-5
    2438:	00620601 	rsbeq	r0, r2, r1, lsl #12
    243c:	01010402 	tsteq	r1, r2, lsl #8
    2440:	01040200 	mrseq	r0, R12_usr
    2444:	0200ba06 	andeq	fp, r0, #24576	; 0x6000
    2448:	2e060104 	adfcss	f0, f6, f4
    244c:	0a033c05 	beq	d1468 <__bss_end__+0xc62c8>
    2450:	0501069e 	streq	r0, [r1, #-1694]	; 0xfffff962
    2454:	014b0605 	cmpeq	fp, r5, lsl #12
    2458:	2e062e06 	cdpcs	14, 0, cr2, cr6, cr6, {0}
    245c:	05011301 	streq	r1, [r1, #-769]	; 0xfffffcff
    2460:	7fad0318 	svcvc	0x00ad0318
    2464:	13050501 	movwne	r0, #21761	; 0x5501
    2468:	01061105 	tsteq	r6, r5, lsl #2
    246c:	0305052e 	movweq	r0, #21806	; 0x552e
    2470:	060100d2 			; <UNDEFINED> instruction: 0x060100d2
    2474:	1805134a 	stmdane	r5, {r1, r3, r6, r8, r9, ip}
    2478:	017fa303 	cmneq	pc, r3, lsl #6
    247c:	05130505 	ldreq	r0, [r3, #-1285]	; 0xfffffafb
    2480:	4a010616 	bmi	43ce0 <__bss_end__+0x38b40>
    2484:	03060505 	movweq	r0, #25861	; 0x6505
    2488:	050100e1 	streq	r0, [r1, #-225]	; 0xffffff1f
    248c:	05010612 	streq	r0, [r1, #-1554]	; 0xfffff9ee
    2490:	054b0605 	strbeq	r0, [fp, #-1541]	; 0xfffff9fb
    2494:	7fa90318 	svcvc	0x00a90318
    2498:	13050501 	movwne	r0, #21761	; 0x5501
    249c:	0e180501 	cfmul32eq	mvfx0, mvfx8, mvfx1
    24a0:	05130505 	ldreq	r0, [r3, #-1285]	; 0xfffffafb
    24a4:	2e010611 	mcrcs	6, 0, r0, cr1, cr1, {0}
    24a8:	06150505 	ldreq	r0, [r5], -r5, lsl #10
    24ac:	0513014a 	ldreq	r0, [r3, #-330]	; 0xfffffeb6
    24b0:	2e01060e 	cfmadd32cs	mvax0, mvfx0, mvfx1, mvfx14
    24b4:	2e2e1605 	cfmadda32cs	mvax0, mvax1, mvfx14, mvfx5
    24b8:	03060505 	movweq	r0, #25861	; 0x6505
    24bc:	010100d6 	ldrdeq	r0, [r1, -r6]
    24c0:	9f031805 	svcls	0x00031805
    24c4:	0505017f 	streq	r0, [r5, #-383]	; 0xfffffe81
    24c8:	06190513 			; <UNDEFINED> instruction: 0x06190513
    24cc:	05052e01 	streq	r2, [r5, #-3585]	; 0xfffff1ff
    24d0:	0100e003 	tsteq	r0, r3
    24d4:	02040200 	andeq	r0, r4, #0, 4
    24d8:	02004a06 	andeq	r4, r0, #24576	; 0x6000
    24dc:	05140204 	ldreq	r0, [r4, #-516]	; 0xfffffdfc
    24e0:	0402000a 	streq	r0, [r2], #-10
    24e4:	05010602 	streq	r0, [r1, #-1538]	; 0xfffff9fe
    24e8:	04020005 	streq	r0, [r2], #-5
    24ec:	054b0602 	strbeq	r0, [fp, #-1538]	; 0xfffff9fe
    24f0:	0402000c 	streq	r0, [r2], #-12
    24f4:	05010602 	streq	r0, [r1, #-1538]	; 0xfffff9fe
    24f8:	04020001 	streq	r0, [r2], #-1
    24fc:	05052f02 	streq	r2, [r5, #-3842]	; 0xfffff0fe
    2500:	01040200 	mrseq	r0, R12_usr
    2504:	4a730306 	bmi	1cc3124 <__bss_end__+0x1cb7f84>
    2508:	01040200 	mrseq	r0, R12_usr
    250c:	04020001 	streq	r0, [r2], #-1
    2510:	009e0601 	addseq	r0, lr, r1, lsl #12
    2514:	2e010402 	cdpcs	4, 0, cr0, cr1, cr2, {0}
    2518:	01040200 	mrseq	r0, R12_usr
    251c:	02002e06 	andeq	r2, r0, #96	; 0x60
    2520:	002f0104 	eoreq	r0, pc, r4, lsl #2
    2524:	2e010402 	cdpcs	4, 0, cr0, cr1, cr2, {0}
    2528:	01040200 	mrseq	r0, R12_usr
    252c:	7fb103d6 	svcvc	0x00b103d6
    2530:	8206012e 	andhi	r0, r6, #-2147483637	; 0x8000000b
    2534:	2e062e2e 	cdpcs	14, 0, cr2, cr6, cr14, {1}
    2538:	02002e06 	andeq	r2, r0, #96	; 0x60
    253c:	03060104 	movweq	r0, #24836	; 0x6104
    2540:	000100d7 	ldrdeq	r0, [r1], -r7
    2544:	2e010402 	cdpcs	4, 0, cr0, cr1, cr2, {0}
    2548:	01040200 	mrseq	r0, R12_usr
    254c:	081505d6 	ldmdaeq	r5, {r1, r2, r4, r6, r7, r8, sl}
    2550:	0117057b 	tsteq	r7, fp, ror r5
    2554:	05311605 	ldreq	r1, [r1, #-1541]!	; 0xfffff9fb
    2558:	1d050118 	stfnes	f0, [r5, #-96]	; 0xffffffa0
    255c:	2b050106 	blcs	14297c <__bss_end__+0x1377dc>
    2560:	06190566 	ldreq	r0, [r9], -r6, ror #10
    2564:	1305054d 	movwne	r0, #21837	; 0x554d
    2568:	01060c05 	tsteq	r6, r5, lsl #24
    256c:	054a0705 	strbeq	r0, [sl, #-1797]	; 0xfffff8fb
    2570:	04020025 	streq	r0, [r2], #-37	; 0xffffffdb
    2574:	1e054a01 	vmlane.f32	s8, s10, s2
    2578:	01040200 	mrseq	r0, R12_usr
    257c:	0609054a 	streq	r0, [r9], -sl, asr #10
    2580:	1305054b 	movwne	r0, #21835	; 0x554b
    2584:	01060a05 	tsteq	r6, r5, lsl #20
    2588:	05631905 	strbeq	r1, [r3, #-2309]!	; 0xfffff6fb
    258c:	014c0609 	cmpeq	ip, r9, lsl #12
    2590:	2e069e06 	cdpcs	14, 0, cr9, cr6, cr6, {0}
    2594:	01000a02 	tsteq	r0, r2, lsl #20
    2598:	00028901 	andeq	r8, r2, r1, lsl #18
    259c:	c9000300 	stmdbgt	r0, {r8, r9}
    25a0:	02000000 	andeq	r0, r0, #0, 0
    25a4:	0d0efb01 	vstreq	d15, [lr, #-4]
    25a8:	01010100 	mrseq	r0, (UNDEF: 17)
    25ac:	00000001 	andeq	r0, r0, r1
    25b0:	01000001 	tsteq	r0, r1
    25b4:	72732f2e 	rsbsvc	r2, r3, #184	; 0xb8
    25b8:	552f0063 	strpl	r0, [pc, #-99]!	; 255d <__code_start__-0x5aa3>
    25bc:	73726573 	cmnvc	r2, #482344960	; 0x1cc00000
    25c0:	6c696d2f 	stclvs	13, cr6, [r9], #-188	; 0xffffff44
    25c4:	532f7365 			; <UNDEFINED> instruction: 0x532f7365
    25c8:	6372756f 	cmnvs	r2, #465567744	; 0x1bc00000
    25cc:	73632f65 	cmnvc	r3, #404	; 0x194
    25d0:	6c303432 	cfldrsvs	mvf3, [r0], #-200	; 0xffffff38
    25d4:	696c2f78 	stmdbvs	ip!, {r3, r4, r5, r6, r8, r9, sl, fp, sp}^
    25d8:	2f697062 	svccs	0x00697062
    25dc:	6c636e69 	stclvs	14, cr6, [r3], #-420	; 0xfffffe5c
    25e0:	00656475 	rsbeq	r6, r5, r5, ror r4
    25e4:	74706f2f 	ldrbtvc	r6, [r0], #-3887	; 0xfffff0d1
    25e8:	6d6f682f 	stclvs	8, cr6, [pc, #-188]!	; 2534 <__code_start__-0x5acc>
    25ec:	65726265 	ldrbvs	r6, [r2, #-613]!	; 0xfffffd9b
    25f0:	65432f77 	strbvs	r2, [r3, #-3959]	; 0xfffff089
    25f4:	72616c6c 	rsbvc	r6, r1, #108, 24	; 0x6c00
    25f8:	6d72612f 	ldfvse	f6, [r2, #-188]!	; 0xffffff44
    25fc:	6e6f6e2d 	cdpvs	14, 6, cr6, cr15, cr13, {1}
    2600:	61652d65 	cmnvs	r5, r5, ror #26
    2604:	392d6962 	pushcc	{r1, r5, r6, r8, fp, sp, lr}
    2608:	322d392f 	eorcc	r3, sp, #770048	; 0xbc000
    260c:	71393130 	teqvc	r9, r0, lsr r1
    2610:	73632d34 	cmnvc	r3, #52, 26	; 0xd00
    2614:	65373031 	ldrvs	r3, [r7, #-49]!	; 0xffffffcf
    2618:	62696c2f 	rsbvs	r6, r9, #12032	; 0x2f00
    261c:	6363672f 	cmnvs	r3, #12320768	; 0xbc0000
    2620:	6d72612f 	ldfvse	f6, [r2, #-188]!	; 0xffffff44
    2624:	6e6f6e2d 	cdpvs	14, 6, cr6, cr15, cr13, {1}
    2628:	61652d65 	cmnvs	r5, r5, ror #26
    262c:	392f6962 	stmdbcc	pc!, {r1, r5, r6, r8, fp, sp, lr}	; <UNPREDICTABLE>
    2630:	312e322e 			; <UNDEFINED> instruction: 0x312e322e
    2634:	636e692f 	cmnvs	lr, #770048	; 0xbc000
    2638:	6564756c 	strbvs	r7, [r4, #-1388]!	; 0xfffffa94
    263c:	70670000 	rsbvc	r0, r7, r0
    2640:	632e6f69 			; <UNDEFINED> instruction: 0x632e6f69
    2644:	00000100 	andeq	r0, r0, r0, lsl #2
    2648:	2e697072 	mcrcs	0, 3, r7, cr9, cr2, {3}
    264c:	00020068 	andeq	r0, r2, r8, rrx
    2650:	64747300 	ldrbtvs	r7, [r4], #-768	; 0xfffffd00
    2654:	2d746e69 	ldclcs	14, cr6, [r4, #-420]!	; 0xfffffe5c
    2658:	2e636367 	cdpcs	3, 6, cr6, cr3, cr7, {3}
    265c:	00030068 	andeq	r0, r3, r8, rrx
    2660:	69706700 	ldmdbvs	r0!, {r8, r9, sl, sp, lr}^
    2664:	00682e6f 	rsbeq	r2, r8, pc, ror #28
    2668:	00000002 	andeq	r0, r0, r2
    266c:	05003805 	streq	r3, [r0, #-2053]	; 0xfffff7fb
    2670:	00a26802 	adceq	r6, r2, r2, lsl #16
    2674:	01270300 			; <UNDEFINED> instruction: 0x01270300
    2678:	05130505 	ldreq	r0, [r3, #-1285]	; 0xfffffafb
    267c:	05010607 	streq	r0, [r1, #-1543]	; 0xfffff9f9
    2680:	05490606 	strbeq	r0, [r9, #-1542]	; 0xfffff9fa
    2684:	07051505 	streq	r1, [r5, -r5, lsl #10]
    2688:	38050106 	stmdacc	r5, {r1, r2, r8}
    268c:	4d07052b 	cfstr32mi	mvfx0, [r7, #-172]	; 0xffffff54
    2690:	30060505 	andcc	r0, r6, r5, lsl #10
    2694:	01061805 	tsteq	r6, r5, lsl #16
    2698:	05671c05 	strbeq	r1, [r7, #-3077]!	; 0xfffff3fb
    269c:	18054a0e 	stmdane	r5, {r1, r2, r3, r9, fp, lr}
    26a0:	4d12052d 	cfldr32mi	mvfx0, [r2, #-180]	; 0xffffff4c
    26a4:	0e052f2e 	cdpeq	15, 0, cr2, cr5, cr14, {1}
    26a8:	0605052a 	streq	r0, [r5], -sl, lsr #10
    26ac:	0513142f 	ldreq	r1, [r3, #-1071]	; 0xfffffbd1
    26b0:	05010607 	streq	r0, [r1, #-1543]	; 0xfffff9f9
    26b4:	132f0605 			; <UNDEFINED> instruction: 0x132f0605
    26b8:	052e2e06 	streq	r2, [lr, #-3590]!	; 0xfffff1fa
    26bc:	05051301 	streq	r1, [r5, #-769]	; 0xfffffcff
    26c0:	24052e2d 	strcs	r2, [r5], #-3629	; 0xfffff1d3
    26c4:	02050006 	andeq	r0, r5, #6, 0
    26c8:	0000a2c8 	andeq	sl, r0, r8, asr #5
    26cc:	13050515 	movwne	r0, #21781	; 0x5515
    26d0:	71030605 	tstvc	r3, r5, lsl #12
    26d4:	13050501 	movwne	r0, #21761	; 0x5501
    26d8:	01060705 	tsteq	r6, r5, lsl #14
    26dc:	49060605 	stmdbmi	r6, {r0, r2, r9, sl}
    26e0:	14150505 	ldrne	r0, [r5], #-1285	; 0xfffffafb
    26e4:	03062405 	movweq	r2, #25605	; 0x6405
    26e8:	18050109 	stmdane	r5, {r0, r3, r8}
    26ec:	052e7703 	streq	r7, [lr, #-1795]!	; 0xfffff8fd
    26f0:	0e05671c 	mcreq	7, 0, r6, cr5, cr12, {0}
    26f4:	2d18054a 	cfldr32cs	mvfx0, [r8, #-296]	; 0xfffffed8
    26f8:	2e4d1205 	cdpcs	2, 4, cr1, cr13, cr5, {0}
    26fc:	2f0f052f 	svccs	0x000f052f
    2700:	05290e05 	streq	r0, [r9, #-3589]!	; 0xfffff1fb
    2704:	142f0605 	strtne	r0, [pc], #-1541	; 270c <__code_start__-0x58f4>
    2708:	06070513 			; <UNDEFINED> instruction: 0x06070513
    270c:	06050501 	streq	r0, [r5], -r1, lsl #10
    2710:	2e06132f 	cdpcs	3, 0, cr1, cr6, cr15, {1}
    2714:	05330105 	ldreq	r0, [r3, #-261]!	; 0xfffffefb
    2718:	052e2905 	streq	r2, [lr, #-2309]!	; 0xfffff6fb
    271c:	05000627 	streq	r0, [r0, #-1575]	; 0xfffff9d9
    2720:	00a32002 	adceq	r2, r3, r2
    2724:	05051a00 	streq	r1, [r5, #-2560]	; 0xfffff600
    2728:	06270513 			; <UNDEFINED> instruction: 0x06270513
    272c:	2f180511 	svccs	0x00180511
    2730:	2e2e0505 	cfsh64cs	mvdx0, mvdx14, #5
    2734:	0628054a 	strteq	r0, [r8], -sl, asr #10
    2738:	38020500 	stmdacc	r2, {r8, sl}
    273c:	160000a3 	strne	r0, [r0], -r3, lsr #1
    2740:	05130505 	ldreq	r0, [r3, #-1285]	; 0xfffffafb
    2744:	05110628 	ldreq	r0, [r1, #-1576]	; 0xfffff9d8
    2748:	05052f18 	streq	r2, [r5, #-3864]	; 0xfffff0e8
    274c:	054a2e2e 	strbeq	r2, [sl, #-3630]	; 0xfffff1d2
    2750:	05000623 	streq	r0, [r0, #-1571]	; 0xfffff9dd
    2754:	00a35002 	adceq	r5, r3, r2
    2758:	05051600 	streq	r1, [r5, #-1536]	; 0xfffffa00
    275c:	03060513 	movweq	r0, #25875	; 0x6513
    2760:	05050162 	streq	r0, [r5, #-354]	; 0xfffffe9e
    2764:	06070513 			; <UNDEFINED> instruction: 0x06070513
    2768:	06060501 	streq	r0, [r6], -r1, lsl #10
    276c:	15050549 	strne	r0, [r5, #-1353]	; 0xfffffab7
    2770:	23051314 	movwcs	r1, #21268	; 0x5314
    2774:	01170306 	tsteq	r7, r6, lsl #6
    2778:	69032205 	stmdbvs	r3, {r0, r2, r9, sp}
    277c:	821c052e 	andshi	r0, ip, #192937984	; 0xb800000
    2780:	2e0e052e 	cfsh32cs	mvfx0, mvfx14, #30
    2784:	30060505 	andcc	r0, r6, r5, lsl #10
    2788:	01061205 	tsteq	r6, r5, lsl #4
    278c:	05052d4b 	streq	r2, [r5, #-3403]	; 0xfffff2b5
    2790:	13132f06 	tstne	r3, #6, 30
    2794:	03061805 	movweq	r1, #26629	; 0x6805
    2798:	0e05017a 	mcreq	1, 0, r0, cr5, cr10, {3}
    279c:	3405054a 	strcc	r0, [r5], #-1354	; 0xfffffab6
    27a0:	0301052e 	movweq	r0, #5422	; 0x152e
    27a4:	05052e14 	streq	r2, [r5, #-3604]	; 0xfffff1ec
    27a8:	2e2e6c03 	cdpcs	12, 2, cr6, cr14, cr3, {0}
    27ac:	00062b05 	andeq	r2, r6, r5, lsl #22
    27b0:	a3a80205 			; <UNDEFINED> instruction: 0xa3a80205
    27b4:	17030000 	strne	r0, [r3, -r0]
    27b8:	13050501 	movwne	r0, #21761	; 0x5501
    27bc:	01060705 	tsteq	r6, r5, lsl #14
    27c0:	71031805 	tstvc	r3, r5, lsl #16
    27c4:	032b052e 			; <UNDEFINED> instruction: 0x032b052e
    27c8:	07052e0e 	streq	r2, [r5, -lr, lsl #28]
    27cc:	0609052f 	streq	r0, [r9], -pc, lsr #10
    27d0:	030d052f 	movweq	r0, #54575	; 0xd52f
    27d4:	0505016f 	streq	r0, [r5, #-367]	; 0xfffffe91
    27d8:	2e2e0613 	mcrcs	6, 1, r0, cr14, cr3, {0}
    27dc:	0609052e 	streq	r0, [r9], -lr, lsr #10
    27e0:	05011203 	streq	r1, [r1, #-515]	; 0xfffffdfd
    27e4:	0172030d 	cmneq	r2, sp, lsl #6
    27e8:	06130505 	ldreq	r0, [r3], -r5, lsl #10
    27ec:	1d052e2e 	stcne	14, cr2, [r5, #-184]	; 0xffffff48
    27f0:	66100306 	ldrvs	r0, [r0], -r6, lsl #6
    27f4:	05130505 	ldreq	r0, [r3, #-1285]	; 0xfffffafb
    27f8:	2e11061d 	mrccs	6, 0, r0, cr1, cr13, {0}
    27fc:	30060505 	andcc	r0, r6, r5, lsl #10
    2800:	060e0513 			; <UNDEFINED> instruction: 0x060e0513
    2804:	30170510 	andscc	r0, r7, r0, lsl r5
    2808:	0502042e 	streq	r0, [r2, #-1070]	; 0xfffffbd2
    280c:	dd030630 	stcle	6, cr0, [r3, #-192]	; 0xffffff40
    2810:	01042e00 	tsteq	r4, r0, lsl #28
    2814:	03060e05 	movweq	r0, #28165	; 0x6e05
    2818:	05017fa2 	streq	r7, [r1, #-4002]	; 0xfffff05e
    281c:	01052f23 	tsteq	r5, r3, lsr #30
    2820:	0006022f 	andeq	r0, r6, pc, lsr #4
    2824:	009e0101 	addseq	r0, lr, r1, lsl #2
    2828:	00030000 	andeq	r0, r3, r0
    282c:	0000005a 	andeq	r0, r0, sl, asr r0
    2830:	0efb0102 	cdpeq	1, 15, cr0, cr11, cr2, {0}
    2834:	0101000d 	tsteq	r1, sp
    2838:	00000101 	andeq	r0, r0, r1, lsl #2
    283c:	00000100 	andeq	r0, r0, r0, lsl #2
    2840:	6c2f2e01 	stcvs	14, cr2, [pc], #-4	; 2844 <__code_start__-0x57bc>
    2844:	00636269 	rsbeq	r6, r3, r9, ror #4
    2848:	6573552f 	ldrbvs	r5, [r3, #-1327]!	; 0xfffffad1
    284c:	6d2f7372 	stcvs	3, cr7, [pc, #-456]!	; 268c <__code_start__-0x5974>
    2850:	73656c69 	cmnvc	r5, #26880	; 0x6900
    2854:	756f532f 	strbvc	r5, [pc, #-815]!	; 252d <__code_start__-0x5ad3>
    2858:	2f656372 	svccs	0x00656372
    285c:	34327363 	ldrtcc	r7, [r2], #-867	; 0xfffffc9d
    2860:	2f786c30 	svccs	0x00786c30
    2864:	7062696c 	rsbvc	r6, r2, ip, ror #18
    2868:	6e692f69 	cdpvs	15, 6, cr2, cr9, cr9, {3}
    286c:	64756c63 	ldrbtvs	r6, [r5], #-3171	; 0xfffff39d
    2870:	70000065 	andvc	r0, r0, r5, rrx
    2874:	68637475 	stmdavs	r3!, {r0, r2, r4, r5, r6, sl, ip, sp, lr}^
    2878:	632e7261 			; <UNDEFINED> instruction: 0x632e7261
    287c:	00000100 	andeq	r0, r0, r0, lsl #2
    2880:	2e697072 	mcrcs	0, 3, r7, cr9, cr2, {3}
    2884:	00020068 	andeq	r0, r2, r8, rrx
    2888:	24050000 	strcs	r0, [r5], #-0
    288c:	00020500 	andeq	r0, r2, r0, lsl #10
    2890:	140000a4 	strne	r0, [r0], #-164	; 0xffffff5c
    2894:	05012605 	streq	r2, [r1, #-1541]	; 0xfffff9fb
    2898:	2e010624 	cfmadd32cs	mvax1, mvfx0, mvfx1, mvfx4
    289c:	052e2605 	streq	r2, [lr, #-1541]!	; 0xfffff9fb
    28a0:	052e0634 	streq	r0, [lr, #-1588]!	; 0xfffff9cc
    28a4:	05010601 	streq	r0, [r1, #-1537]	; 0xfffff9ff
    28a8:	054f061b 	strbeq	r0, [pc, #-1563]	; 2295 <__code_start__-0x5d6b>
    28ac:	11051305 	tstne	r5, r5, lsl #6
    28b0:	01050106 	tsteq	r5, r6, lsl #2
    28b4:	06230567 	strteq	r0, [r3], -r7, ror #10
    28b8:	13050567 	movwne	r0, #21863	; 0x5567
    28bc:	01061105 	tsteq	r6, r5, lsl #2
    28c0:	024b0105 	subeq	r0, fp, #1073741825	; 0x40000001
    28c4:	01010004 	tsteq	r1, r4
    28c8:	000000e2 	andeq	r0, r0, r2, ror #1
    28cc:	00590003 	subseq	r0, r9, r3
    28d0:	01020000 	mrseq	r0, (UNDEF: 2)
    28d4:	000d0efb 	strdeq	r0, [sp], -fp
    28d8:	01010101 	tsteq	r1, r1, lsl #2
    28dc:	01000000 	mrseq	r0, (UNDEF: 0)
    28e0:	2e010000 	cdpcs	0, 0, cr0, cr1, cr0, {0}
    28e4:	62696c2f 	rsbvs	r6, r9, #12032	; 0x2f00
    28e8:	552f0063 	strpl	r0, [pc, #-99]!	; 288d <__code_start__-0x5773>
    28ec:	73726573 	cmnvc	r2, #482344960	; 0x1cc00000
    28f0:	6c696d2f 	stclvs	13, cr6, [r9], #-188	; 0xffffff44
    28f4:	532f7365 			; <UNDEFINED> instruction: 0x532f7365
    28f8:	6372756f 	cmnvs	r2, #465567744	; 0x1bc00000
    28fc:	73632f65 	cmnvc	r3, #404	; 0x194
    2900:	6c303432 	cfldrsvs	mvf3, [r0], #-200	; 0xffffff38
    2904:	696c2f78 	stmdbvs	ip!, {r3, r4, r5, r6, r8, r9, sl, fp, sp}^
    2908:	2f697062 	svccs	0x00697062
    290c:	6c636e69 	stclvs	14, cr6, [r3], #-420	; 0xfffffe5c
    2910:	00656475 	rsbeq	r6, r5, r5, ror r4
    2914:	72747300 	rsbsvc	r7, r4, #0, 6
    2918:	2e746163 	rpwcssz	f6, f4, f3
    291c:	00010063 	andeq	r0, r1, r3, rrx
    2920:	69707200 	ldmdbvs	r0!, {r9, ip, sp, lr}^
    2924:	0200682e 	andeq	r6, r0, #3014656	; 0x2e0000
    2928:	05000000 	streq	r0, [r0, #-0]
    292c:	0205002c 	andeq	r0, r5, #44, 0	; 0x2c
    2930:	0000a43c 	andeq	sl, r0, ip, lsr r4
    2934:	13050515 	movwne	r0, #21781	; 0x5515
    2938:	060b0513 			; <UNDEFINED> instruction: 0x060b0513
    293c:	00050511 	andeq	r0, r5, r1, lsl r5
    2940:	06010402 	streq	r0, [r1], -r2, lsl #8
    2944:	04020030 	streq	r0, [r2], #-48	; 0xffffffd0
    2948:	09051501 	stmdbeq	r5, {r0, r8, sl, ip}
    294c:	01040200 	mrseq	r0, R12_usr
    2950:	000b0513 	andeq	r0, fp, r3, lsl r5
    2954:	2f010402 	svccs	0x00010402
    2958:	02000505 	andeq	r0, r0, #20971520	; 0x1400000
    295c:	01060104 	tsteq	r6, r4, lsl #2
    2960:	01040200 	mrseq	r0, R12_usr
    2964:	054e062e 	strbeq	r0, [lr, #-1582]	; 0xfffff9d2
    2968:	05010608 	streq	r0, [r1, #-1544]	; 0xfffff9f8
    296c:	04020005 	streq	r0, [r2], #-5
    2970:	052f0601 	streq	r0, [pc, #-1537]!	; 2377 <__code_start__-0x5c89>
    2974:	04020009 	streq	r0, [r2], #-9
    2978:	0b051301 	bleq	147584 <__bss_end__+0x13c3e4>
    297c:	01040200 	mrseq	r0, R12_usr
    2980:	09050106 	stmdbeq	r5, {r1, r2, r8}
    2984:	01040200 	mrseq	r0, R12_usr
    2988:	05052f06 	streq	r2, [r5, #-3846]	; 0xfffff0fa
    298c:	01040200 	mrseq	r0, R12_usr
    2990:	0f051306 	svceq	0x00051306
    2994:	01040200 	mrseq	r0, R12_usr
    2998:	000d052d 	andeq	r0, sp, sp, lsr #10
    299c:	06010402 	streq	r0, [r1], -r2, lsl #8
    29a0:	0005052f 	andeq	r0, r5, pc, lsr #10
    29a4:	06010402 	streq	r0, [r1], -r2, lsl #8
    29a8:	00040201 	andeq	r0, r4, r1, lsl #4
    29ac:	00b20101 	adcseq	r0, r2, r1, lsl #2
    29b0:	00030000 	andeq	r0, r3, r0
    29b4:	00000059 	andeq	r0, r0, r9, asr r0
    29b8:	0efb0102 	cdpeq	1, 15, cr0, cr11, cr2, {0}
    29bc:	0101000d 	tsteq	r1, sp
    29c0:	00000101 	andeq	r0, r0, r1, lsl #2
    29c4:	00000100 	andeq	r0, r0, r0, lsl #2
    29c8:	6c2f2e01 	stcvs	14, cr2, [pc], #-4	; 29cc <__code_start__-0x5634>
    29cc:	00636269 	rsbeq	r6, r3, r9, ror #4
    29d0:	6573552f 	ldrbvs	r5, [r3, #-1327]!	; 0xfffffad1
    29d4:	6d2f7372 	stcvs	3, cr7, [pc, #-456]!	; 2814 <__code_start__-0x57ec>
    29d8:	73656c69 	cmnvc	r5, #26880	; 0x6900
    29dc:	756f532f 	strbvc	r5, [pc, #-815]!	; 26b5 <__code_start__-0x594b>
    29e0:	2f656372 	svccs	0x00656372
    29e4:	34327363 	ldrtcc	r7, [r2], #-867	; 0xfffffc9d
    29e8:	2f786c30 	svccs	0x00786c30
    29ec:	7062696c 	rsbvc	r6, r2, ip, ror #18
    29f0:	6e692f69 	cdpvs	15, 6, cr2, cr9, cr9, {3}
    29f4:	64756c63 	ldrbtvs	r6, [r5], #-3171	; 0xfffff39d
    29f8:	73000065 	movwvc	r0, #101	; 0x65
    29fc:	6d637274 	sfmvs	f7, 2, [r3, #-464]!	; 0xfffffe30
    2a00:	00632e70 	rsbeq	r2, r3, r0, ror lr
    2a04:	72000001 	andvc	r0, r0, #1, 0
    2a08:	682e6970 	stmdavs	lr!, {r4, r5, r6, r8, fp, sp, lr}
    2a0c:	00000200 	andeq	r0, r0, r0, lsl #4
    2a10:	002a0500 	eoreq	r0, sl, r0, lsl #10
    2a14:	a4680205 	strbtge	r0, [r8], #-517	; 0xfffffdfb
    2a18:	05140000 	ldreq	r0, [r4, #-0]
    2a1c:	10051309 	andne	r1, r5, r9, lsl #6
    2a20:	0f050106 	svceq	0x00050106
    2a24:	10052e06 	andne	r2, r5, r6, lsl #28
    2a28:	0f058206 	svceq	0x00058206
    2a2c:	0011052e 	andseq	r0, r1, lr, lsr #10
    2a30:	06010402 	streq	r0, [r1], -r2, lsl #8
    2a34:	001c054b 	andseq	r0, ip, fp, asr #10
    2a38:	06010402 	streq	r0, [r1], -r2, lsl #8
    2a3c:	000f052d 	andeq	r0, pc, sp, lsr #10
    2a40:	06010402 	streq	r0, [r1], -r2, lsl #8
    2a44:	0013052e 	andseq	r0, r3, lr, lsr #10
    2a48:	06010402 	streq	r0, [r1], -r2, lsl #8
    2a4c:	06090501 	streq	r0, [r9], -r1, lsl #10
    2a50:	0601054c 	streq	r0, [r1], -ip, asr #10
    2a54:	09054a13 	stmdbeq	r5, {r0, r1, r4, r9, fp, lr}
    2a58:	01052d06 	tsteq	r5, r6, lsl #26
    2a5c:	022e1306 	eoreq	r1, lr, #402653184	; 0x18000000
    2a60:	01010002 	tsteq	r1, r2
    2a64:	0000009d 	muleq	r0, sp, r0
    2a68:	00590003 	subseq	r0, r9, r3
    2a6c:	01020000 	mrseq	r0, (UNDEF: 2)
    2a70:	000d0efb 	strdeq	r0, [sp], -fp
    2a74:	01010101 	tsteq	r1, r1, lsl #2
    2a78:	01000000 	mrseq	r0, (UNDEF: 0)
    2a7c:	2e010000 	cdpcs	0, 0, cr0, cr1, cr0, {0}
    2a80:	62696c2f 	rsbvs	r6, r9, #12032	; 0x2f00
    2a84:	552f0063 	strpl	r0, [pc, #-99]!	; 2a29 <__code_start__-0x55d7>
    2a88:	73726573 	cmnvc	r2, #482344960	; 0x1cc00000
    2a8c:	6c696d2f 	stclvs	13, cr6, [r9], #-188	; 0xffffff44
    2a90:	532f7365 			; <UNDEFINED> instruction: 0x532f7365
    2a94:	6372756f 	cmnvs	r2, #465567744	; 0x1bc00000
    2a98:	73632f65 	cmnvc	r3, #404	; 0x194
    2a9c:	6c303432 	cfldrsvs	mvf3, [r0], #-200	; 0xffffff38
    2aa0:	696c2f78 	stmdbvs	ip!, {r3, r4, r5, r6, r8, r9, sl, fp, sp}^
    2aa4:	2f697062 	svccs	0x00697062
    2aa8:	6c636e69 	stclvs	14, cr6, [r3], #-420	; 0xfffffe5c
    2aac:	00656475 	rsbeq	r6, r5, r5, ror r4
    2ab0:	72747300 	rsbsvc	r7, r4, #0, 6
    2ab4:	2e797063 	cdpcs	0, 7, cr7, cr9, cr3, {3}
    2ab8:	00010063 	andeq	r0, r1, r3, rrx
    2abc:	69707200 	ldmdbvs	r0!, {r9, ip, sp, lr}^
    2ac0:	0200682e 	andeq	r6, r0, #3014656	; 0x2e0000
    2ac4:	05000000 	streq	r0, [r0, #-0]
    2ac8:	0205002a 	andeq	r0, r5, #42, 0	; 0x2a
    2acc:	0000a4ac 	andeq	sl, r0, ip, lsr #9
    2ad0:	13050514 	movwne	r0, #21780	; 0x5514
    2ad4:	00220513 	eoreq	r0, r2, r3, lsl r5
    2ad8:	2e010402 	cdpcs	4, 0, cr0, cr1, cr2, {0}
    2adc:	02000b05 	andeq	r0, r0, #5120	; 0x1400
    2ae0:	05010104 	streq	r0, [r1, #-260]	; 0xfffffefc
    2ae4:	04020015 	streq	r0, [r2], #-21	; 0xffffffeb
    2ae8:	05010601 	streq	r0, [r1, #-1537]	; 0xfffff9ff
    2aec:	0402000b 	streq	r0, [r2], #-11
    2af0:	13052e01 	movwne	r2, #24065	; 0x5e01
    2af4:	01040200 	mrseq	r0, R12_usr
    2af8:	000b052e 	andeq	r0, fp, lr, lsr #10
    2afc:	2e010402 	cdpcs	4, 0, cr0, cr1, cr2, {0}
    2b00:	01000402 	tsteq	r0, r2, lsl #8
    2b04:	0000fd01 	andeq	pc, r0, r1, lsl #26
    2b08:	bf000300 	svclt	0x00000300
    2b0c:	02000000 	andeq	r0, r0, #0, 0
    2b10:	0d0efb01 	vstreq	d15, [lr, #-4]
    2b14:	01010100 	mrseq	r0, (UNDEF: 17)
    2b18:	00000001 	andeq	r0, r0, r1
    2b1c:	01000001 	tsteq	r0, r1
    2b20:	696c2f2e 	stmdbvs	ip!, {r1, r2, r3, r5, r8, r9, sl, fp, sp}^
    2b24:	2f006362 	svccs	0x00006362
    2b28:	72657355 	rsbvc	r7, r5, #1409286145	; 0x54000001
    2b2c:	696d2f73 	stmdbvs	sp!, {r0, r1, r4, r5, r6, r8, r9, sl, fp, sp}^
    2b30:	2f73656c 	svccs	0x0073656c
    2b34:	72756f53 	rsbsvc	r6, r5, #332	; 0x14c
    2b38:	632f6563 			; <UNDEFINED> instruction: 0x632f6563
    2b3c:	30343273 	eorscc	r3, r4, r3, ror r2
    2b40:	6c2f786c 	stcvs	8, cr7, [pc], #-432	; 2998 <__code_start__-0x5668>
    2b44:	69706269 	ldmdbvs	r0!, {r0, r3, r5, r6, r9, sp, lr}^
    2b48:	636e692f 	cmnvs	lr, #770048	; 0xbc000
    2b4c:	6564756c 	strbvs	r7, [r4, #-1388]!	; 0xfffffa94
    2b50:	706f2f00 	rsbvc	r2, pc, r0, lsl #30
    2b54:	6f682f74 	svcvs	0x00682f74
    2b58:	7262656d 	rsbvc	r6, r2, #457179136	; 0x1b400000
    2b5c:	432f7765 			; <UNDEFINED> instruction: 0x432f7765
    2b60:	616c6c65 	cmnvs	ip, r5, ror #24
    2b64:	72612f72 	rsbvc	r2, r1, #456	; 0x1c8
    2b68:	6f6e2d6d 	svcvs	0x006e2d6d
    2b6c:	652d656e 	strvs	r6, [sp, #-1390]!	; 0xfffffa92
    2b70:	2d696261 	sfmcs	f6, 2, [r9, #-388]!	; 0xfffffe7c
    2b74:	2d392f39 	ldccs	15, cr2, [r9, #-228]!	; 0xffffff1c
    2b78:	39313032 	ldmdbcc	r1!, {r1, r4, r5, ip, sp}
    2b7c:	632d3471 			; <UNDEFINED> instruction: 0x632d3471
    2b80:	37303173 			; <UNDEFINED> instruction: 0x37303173
    2b84:	696c2f65 	stmdbvs	ip!, {r0, r2, r5, r6, r8, r9, sl, fp, sp}^
    2b88:	63672f62 	cmnvs	r7, #392	; 0x188
    2b8c:	72612f63 	rsbvc	r2, r1, #396	; 0x18c
    2b90:	6f6e2d6d 	svcvs	0x006e2d6d
    2b94:	652d656e 	strvs	r6, [sp, #-1390]!	; 0xfffffa92
    2b98:	2f696261 	svccs	0x00696261
    2b9c:	2e322e39 	mrccs	14, 1, r2, cr2, cr9, {1}
    2ba0:	6e692f31 	mcrvs	15, 3, r2, cr9, cr1, {1}
    2ba4:	64756c63 	ldrbtvs	r6, [r5], #-3171	; 0xfffff39d
    2ba8:	73000065 	movwvc	r0, #101	; 0x65
    2bac:	636e7274 	cmnvs	lr, #116, 4	; 0x40000007
    2bb0:	632e706d 			; <UNDEFINED> instruction: 0x632e706d
    2bb4:	00000100 	andeq	r0, r0, r0, lsl #2
    2bb8:	2e697072 	mcrcs	0, 3, r7, cr9, cr2, {3}
    2bbc:	00020068 	andeq	r0, r2, r8, rrx
    2bc0:	64747300 	ldrbtvs	r7, [r4], #-768	; 0xfffffd00
    2bc4:	2e666564 	cdpcs	5, 6, cr6, cr6, cr4, {3}
    2bc8:	00030068 	andeq	r0, r3, r8, rrx
    2bcc:	39050000 	stmdbcc	r5, {}	; <UNPREDICTABLE>
    2bd0:	c4020500 	strgt	r0, [r2], #-1280	; 0xfffffb00
    2bd4:	150000a4 	strne	r0, [r0, #-164]	; 0xffffff5c
    2bd8:	13130505 	tstne	r3, #20971520	; 0x1400000
    2bdc:	2e060a05 	vmlacs.f32	s0, s12, s10
    2be0:	052f0c05 	streq	r0, [pc, #-3077]!	; 1fe3 <__code_start__-0x601d>
    2be4:	0b052e13 	bleq	14e438 <__bss_end__+0x143298>
    2be8:	0609052e 	streq	r0, [r9], -lr, lsr #10
    2bec:	110a054a 	tstne	sl, sl, asr #10
    2bf0:	0c050106 	stfeqs	f0, [r5], {6}
    2bf4:	2f01054e 	svccs	0x0001054e
    2bf8:	2b060d05 	blcs	186014 <__bss_end__+0x17ae74>
    2bfc:	01061b05 	tsteq	r6, r5, lsl #22
    2c00:	0002022e 	andeq	r0, r2, lr, lsr #4
    2c04:	008a0101 	addeq	r0, sl, r1, lsl #2
    2c08:	00030000 	andeq	r0, r3, r0
    2c0c:	0000006e 	andeq	r0, r0, lr, rrx
    2c10:	0efb0102 	cdpeq	1, 15, cr0, cr11, cr2, {0}
    2c14:	0101000d 	tsteq	r1, sp
    2c18:	00000101 	andeq	r0, r0, r1, lsl #2
    2c1c:	00000100 	andeq	r0, r0, r0, lsl #2
    2c20:	732f2e01 			; <UNDEFINED> instruction: 0x732f2e01
    2c24:	66666174 			; <UNDEFINED> instruction: 0x66666174
    2c28:	6372732d 	cmnvs	r2, #-1275068416	; 0xb4000000
    2c2c:	73552f00 	cmpvc	r5, #0, 30
    2c30:	2f737265 	svccs	0x00737265
    2c34:	656c696d 	strbvs	r6, [ip, #-2413]!	; 0xfffff693
    2c38:	6f532f73 	svcvs	0x00532f73
    2c3c:	65637275 	strbvs	r7, [r3, #-629]!	; 0xfffffd8b
    2c40:	3273632f 	rsbscc	r6, r3, #-1140850688	; 0xbc000000
    2c44:	786c3034 	stmdavc	ip!, {r2, r4, r5, ip, sp}^
    2c48:	62696c2f 	rsbvs	r6, r9, #12032	; 0x2f00
    2c4c:	692f6970 	stmdbvs	pc!, {r4, r5, r6, r8, fp, sp, lr}	; <UNPREDICTABLE>
    2c50:	756c636e 	strbvc	r6, [ip, #-878]!	; 0xfffffc92
    2c54:	00006564 	andeq	r6, r0, r4, ror #10
    2c58:	61666564 	cmnvs	r6, r4, ror #10
    2c5c:	2d746c75 	ldclcs	12, cr6, [r4, #-468]!	; 0xfffffe2c
    2c60:	6f626572 	svcvs	0x00626572
    2c64:	632d746f 			; <UNDEFINED> instruction: 0x632d746f
    2c68:	6f6c6c61 	svcvs	0x006c6c61
    2c6c:	632e7475 			; <UNDEFINED> instruction: 0x632e7475
    2c70:	00000100 	andeq	r0, r0, r0, lsl #2
    2c74:	2e697072 	mcrcs	0, 3, r7, cr9, cr2, {3}
    2c78:	00020068 	andeq	r0, r2, r8, rrx
    2c7c:	1b050000 	blne	142c84 <__bss_end__+0x137ae4>
    2c80:	f4020500 	vst3.8	{d0,d2,d4}, [r2], r0
    2c84:	140000a4 	strne	r0, [r0], #-164	; 0xffffff5c
    2c88:	05011c05 	streq	r1, [r1, #-3077]	; 0xfffff3fb
    2c8c:	02010601 	andeq	r0, r1, #1048576	; 0x100000
    2c90:	01010002 	tsteq	r1, r2

Disassembly of section .debug_str:

00000000 <.debug_str>:
   0:	5f726468 	svcpl	0x00726468
   4:	6c620074 	stclvs	0, cr0, [r2], #-464	; 0xfffffe30
   8:	5f6b636f 	svcpl	0x006b636f
   c:	73006469 	movwvc	r6, #1129	; 0x469
  10:	65746174 	ldrbvs	r6, [r4, #-372]!	; 0xfffffe8c
  14:	79626e00 	stmdbvc	r2!, {r9, sl, fp, sp, lr}^
  18:	5f736574 	svcpl	0x00736574
  1c:	6f6c6c61 	svcvs	0x006c6c61
  20:	68730063 	ldmdavs	r3!, {r0, r1, r5, r6}^
  24:	2074726f 	rsbscs	r7, r4, pc, ror #4
  28:	00746e69 	rsbseq	r6, r4, r9, ror #28
  2c:	5f697072 	svcpl	0x00697072
  30:	63747570 	cmnvs	r4, #112, 10	; 0x1c000000
  34:	00726168 	rsbseq	r6, r2, r8, ror #2
  38:	6c616b63 			; <UNDEFINED> instruction: 0x6c616b63
  3c:	00636f6c 	rsbeq	r6, r3, ip, ror #30
  40:	656c6966 	strbvs	r6, [ip, #-2406]!	; 0xfffff69a
  44:	6e697500 	cdpvs	5, 6, cr7, cr9, cr0, {0}
  48:	745f3874 	ldrbvc	r3, [pc], #-2164	; 50 <__code_start__-0x7fb0>
  4c:	6e756600 	cdpvs	6, 7, cr6, cr5, cr0, {0}
  50:	6f6c0063 	svcvs	0x006c0063
  54:	6c20676e 	stcvs	7, cr6, [r0], #-440	; 0xfffffe48
  58:	20676e6f 	rsbcs	r6, r7, pc, ror #28
  5c:	00746e69 	rsbseq	r6, r4, r9, ror #28
  60:	616e6163 	cmnvs	lr, r3, ror #2
  64:	63007972 	movwvs	r7, #2418	; 0x972
  68:	6c625f6b 	stclvs	15, cr5, [r2], #-428	; 0xfffffe54
  6c:	64695f6b 	strbtvs	r5, [r9], #-3947	; 0xfffff095
  70:	73657400 	cmnvc	r5, #0, 8
  74:	322d7374 	eorcc	r7, sp, #116, 6	; 0xd0000001
  78:	702f302e 	eorvc	r3, pc, lr, lsr #32
  7c:	32747261 	rsbscc	r7, r4, #268435462	; 0x10000006
  80:	7365742d 	cmnvc	r5, #754974720	; 0x2d000000
  84:	6e2d3474 	mcrvs	4, 1, r3, cr13, cr4, {3}
  88:	656c2d6f 	strbvs	r2, [ip, #-3439]!	; 0xfffff291
  8c:	632e6b61 			; <UNDEFINED> instruction: 0x632e6b61
  90:	5f6b6300 	svcpl	0x006b6300
  94:	00726468 	rsbseq	r6, r2, r8, ror #8
  98:	55465f5f 	strbpl	r5, [r6, #-3935]	; 0xfffff0a1
  9c:	4954434e 	ldmdbmi	r4, {r1, r2, r3, r6, r8, r9, lr}^
  a0:	5f5f4e4f 	svcpl	0x005f4e4f
  a4:	6c6c6100 	stfvse	f6, [ip], #-0
  a8:	6c5f636f 	mrrcvs	3, 6, r6, pc, cr15	; <UNPREDICTABLE>
  ac:	6300636f 	movwvs	r6, #879	; 0x36f
  b0:	6e61656c 	cdpvs	5, 6, cr6, cr1, cr12, {3}
  b4:	6265725f 	rsbvs	r7, r5, #-268435451	; 0xf0000005
  b8:	00746f6f 	rsbseq	r6, r4, pc, ror #30
  bc:	765f6b63 	ldrbvc	r6, [pc], -r3, ror #22
  c0:	6f627265 	svcvs	0x00627265
  c4:	705f6573 	subsvc	r6, pc, r3, ror r5	; <UNPREDICTABLE>
  c8:	736e7500 	cmnvc	lr, #0, 10
  cc:	656e6769 	strbvs	r6, [lr, #-1897]!	; 0xfffff897
  d0:	68632064 	stmdavs	r3!, {r2, r5, r6, sp}^
  d4:	72007261 	andvc	r7, r0, #268435462	; 0x10000006
  d8:	5f736665 	svcpl	0x00736665
  dc:	72617473 	rsbvc	r7, r1, #1929379840	; 0x73000000
  e0:	4e470074 	mcrmi	0, 2, r0, cr7, cr4, {3}
  e4:	39432055 	stmdbcc	r3, {r0, r2, r4, r6, sp}^
  e8:	2e392039 	mrccs	0, 1, r2, cr9, cr9, {1}
  ec:	20312e32 	eorscs	r2, r1, r2, lsr lr
  f0:	39313032 	ldmdbcc	r1!, {r1, r4, r5, ip, sp}
  f4:	35323031 	ldrcc	r3, [r2, #-49]!	; 0xffffffcf
  f8:	65722820 	ldrbvs	r2, [r2, #-2080]!	; 0xfffff7e0
  fc:	7361656c 	cmnvc	r1, #108, 10	; 0x1b000000
 100:	5b202965 	blpl	80a69c <__bss_end__+0x7ff4fc>
 104:	2f4d5241 	svccs	0x004d5241
 108:	2d6d7261 	sfmcs	f7, 2, [sp, #-388]!	; 0xfffffe7c
 10c:	72622d39 	rsbvc	r2, r2, #3648	; 0xe40
 110:	68636e61 	stmdavs	r3!, {r0, r5, r6, r9, sl, fp, sp, lr}^
 114:	76657220 	strbtvc	r7, [r5], -r0, lsr #4
 118:	6f697369 	svcvs	0x00697369
 11c:	3732206e 	ldrcc	r2, [r2, -lr, rrx]!
 120:	39393537 	ldmdbcc	r9!, {r0, r1, r2, r4, r5, r8, sl, ip, sp}
 124:	6d2d205d 	stcvs	0, cr2, [sp, #-372]!	; 0xfffffe8c
 128:	3d757063 	ldclcc	0, cr7, [r5, #-396]!	; 0xfffffe74
 12c:	316d7261 	cmncc	sp, r1, ror #4
 130:	6a363731 	bvs	d8ddfc <__bss_end__+0xd82c5c>
 134:	732d667a 			; <UNDEFINED> instruction: 0x732d667a
 138:	746d2d20 	strbtvc	r2, [sp], #-3360	; 0xfffff2e0
 13c:	3d656e75 	stclcc	14, cr6, [r5, #-468]!	; 0xfffffe2c
 140:	316d7261 	cmncc	sp, r1, ror #4
 144:	6a363731 	bvs	d8de10 <__bss_end__+0xd82c70>
 148:	732d667a 			; <UNDEFINED> instruction: 0x732d667a
 14c:	706d2d20 	rsbvc	r2, sp, r0, lsr #26
 150:	2d656b6f 	fstmdbxcs	r5!, {d22-d76}	;@ Deprecated
 154:	636e7566 	cmnvs	lr, #427819008	; 0x19800000
 158:	6e6f6974 			; <UNDEFINED> instruction: 0x6e6f6974
 15c:	6d616e2d 	stclvs	14, cr6, [r1, #-180]!	; 0xffffff4c
 160:	6d2d2065 	stcvs	0, cr2, [sp, #-404]!	; 0xfffffe6c
 164:	616f6c66 	cmnvs	pc, r6, ror #24
 168:	62612d74 	rsbvs	r2, r1, #116, 26	; 0x1d00
 16c:	6f733d69 	svcvs	0x00733d69
 170:	2d207466 	cfstrscs	mvf7, [r0, #-408]!	; 0xfffffe68
 174:	6d72616d 	ldfvse	f6, [r2, #-436]!	; 0xfffffe4c
 178:	616d2d20 	cmnvs	sp, r0, lsr #26
 17c:	3d686372 	stclcc	3, cr6, [r8, #-456]!	; 0xfffffe38
 180:	766d7261 	strbtvc	r7, [sp], -r1, ror #4
 184:	207a6b36 	rsbscs	r6, sl, r6, lsr fp
 188:	6467672d 	strbtvs	r6, [r7], #-1837	; 0xfffff8d3
 18c:	4f2d2062 	svcmi	0x002d2062
 190:	732d2067 			; <UNDEFINED> instruction: 0x732d2067
 194:	673d6474 			; <UNDEFINED> instruction: 0x673d6474
 198:	3939756e 	ldmdbcc	r9!, {r1, r2, r3, r5, r6, r8, sl, ip, sp, lr}
 19c:	66662d20 	strbtvs	r2, [r6], -r0, lsr #26
 1a0:	73656572 	cmnvc	r5, #478150656	; 0x1c800000
 1a4:	646e6174 	strbtvs	r6, [lr], #-372	; 0xfffffe8c
 1a8:	20676e69 	rsbcs	r6, r7, r9, ror #28
 1ac:	6f6e662d 	svcvs	0x006e662d
 1b0:	696d6f2d 	stmdbvs	sp!, {r0, r2, r3, r5, r8, r9, sl, fp, sp, lr}^
 1b4:	72662d74 	rsbvc	r2, r6, #116, 26	; 0x1d00
 1b8:	2d656d61 	stclcs	13, cr6, [r5, #-388]!	; 0xfffffe7c
 1bc:	6e696f70 	mcrvs	15, 3, r6, cr9, cr0, {3}
 1c0:	00726574 	rsbseq	r6, r2, r4, ror r5
 1c4:	656e696c 	strbvs	r6, [lr, #-2412]!	; 0xfffff694
 1c8:	6c006f6e 	stcvs	15, cr6, [r0], {110}	; 0x6e
 1cc:	20676e6f 	rsbcs	r6, r7, pc, ror #28
 1d0:	676e6f6c 	strbvs	r6, [lr, -ip, ror #30]!
 1d4:	736e7520 	cmnvc	lr, #32, 10	; 0x8000000
 1d8:	656e6769 	strbvs	r6, [lr, #-1897]!	; 0xfffff897
 1dc:	6e692064 	cdpvs	0, 6, cr2, cr9, cr4, {3}
 1e0:	69750074 	ldmdbvs	r5!, {r2, r4, r5, r6}^
 1e4:	3233746e 	eorscc	r7, r3, #1845493760	; 0x6e000000
 1e8:	7500745f 	strvc	r7, [r0, #-1119]	; 0xfffffba1
 1ec:	31746e69 	cmncc	r4, r9, ror #28
 1f0:	00745f36 	rsbseq	r5, r4, r6, lsr pc
 1f4:	63656863 	cmnvs	r5, #6488064	; 0x630000
 1f8:	6f6e5f6b 	svcvs	0x006e5f6b
 1fc:	61656c5f 	cmnvs	r5, pc, asr ip
 200:	6f6e006b 	svcvs	0x006e006b
 204:	69616d74 	stmdbvs	r1!, {r2, r4, r5, r6, r8, sl, fp, sp, lr}^
 208:	6873006e 	ldmdavs	r3!, {r1, r2, r3, r5, r6}^
 20c:	2074726f 	rsbscs	r7, r4, pc, ror #4
 210:	69736e75 	ldmdbvs	r3!, {r0, r2, r4, r5, r6, r9, sl, fp, sp, lr}^
 214:	64656e67 	strbtvs	r6, [r5], #-3687	; 0xfffff199
 218:	746e6920 	strbtvc	r6, [lr], #-2336	; 0xfffff6e0
 21c:	73657400 	cmnvc	r5, #0, 8
 220:	65720074 	ldrbvs	r0, [r2, #-116]!	; 0xffffff8c
 224:	6d5f7366 	ldclvs	3, cr7, [pc, #-408]	; 94 <__code_start__-0x7f6c>
 228:	6c646469 	cfstrdvs	mvd6, [r4], #-420	; 0xfffffe5c
 22c:	552f0065 	strpl	r0, [pc, #-101]!	; 1cf <__code_start__-0x7e31>
 230:	73726573 	cmnvc	r2, #482344960	; 0x1cc00000
 234:	6c696d2f 	stclvs	13, cr6, [r9], #-188	; 0xffffff44
 238:	532f7365 			; <UNDEFINED> instruction: 0x532f7365
 23c:	6372756f 	cmnvs	r2, #465567744	; 0x1bc00000
 240:	73632f65 	cmnvc	r3, #404	; 0x194
 244:	6c303432 	cfldrsvs	mvf3, [r0], #-200	; 0xffffff38
 248:	616c2f78 	smcvs	49912	; 0xc2f8
 24c:	362f7362 	strtcc	r7, [pc], -r2, ror #6
 250:	6265642d 	rsbvs	r6, r5, #754974720	; 0x2d000000
 254:	612d6775 			; <UNDEFINED> instruction: 0x612d6775
 258:	636f6c6c 	cmnvs	pc, #108, 24	; 0x6c00
 25c:	646f632f 	strbtvs	r6, [pc], #-815	; 264 <__code_start__-0x7d9c>
 260:	656d0065 	strbvs	r0, [sp, #-101]!	; 0xffffff9b
 264:	7465736d 	strbtvc	r7, [r5], #-877	; 0xfffffc93
 268:	65727000 	ldrbvs	r7, [r2, #-0]!
 26c:	72660076 	rsbvc	r0, r6, #118, 0	; 0x76
 270:	6c5f6565 	cfldr64vs	mvdx6, [pc], {101}	; 0x65
 274:	7300636f 	movwvc	r6, #879	; 0x36f
 278:	6c5f6372 	mrrcvs	3, 7, r6, pc, cr2	; <UNPREDICTABLE>
 27c:	6d5f636f 	ldclvs	3, cr6, [pc, #-444]	; c8 <__code_start__-0x7f38>
 280:	656e006b 	strbvs	r0, [lr, #-107]!	; 0xffffff95
 284:	73007478 	movwvc	r7, #1144	; 0x478
 288:	6c5f6372 	mrrcvs	3, 7, r6, pc, cr2	; <UNPREDICTABLE>
 28c:	745f636f 	ldrbvc	r6, [pc], #-879	; 294 <__code_start__-0x7d6c>
 290:	5f6b6300 	svcpl	0x006b6300
 294:	5f727470 	svcpl	0x00727470
 298:	625f6e69 	subsvs	r6, pc, #1680	; 0x690
 29c:	6b636f6c 	blvs	18dc054 <__bss_end__+0x18d0eb4>
 2a0:	45524600 	ldrbmi	r4, [r2, #-1536]	; 0xfffffa00
 2a4:	52004445 	andpl	r4, r0, #1157627904	; 0x45000000
 2a8:	4f5a4445 	svcmi	0x005a4445
 2ac:	565f454e 	ldrbpl	r4, [pc], -lr, asr #10
 2b0:	52004c41 	andpl	r4, r0, #16640	; 0x4100
 2b4:	4f5a4445 	svcmi	0x005a4445
 2b8:	4e5f454e 	cdpmi	5, 5, cr4, cr15, cr14, {2}
 2bc:	45545942 	ldrbmi	r5, [r4, #-2370]	; 0xfffff6be
 2c0:	6b630053 	blvs	18c0414 <__bss_end__+0x18b5274>
 2c4:	7269665f 	rsbvc	r6, r9, #99614720	; 0x5f00000
 2c8:	685f7473 	ldmdavs	pc, {r0, r1, r4, r5, r6, sl, ip, sp, lr}^	; <UNPREDICTABLE>
 2cc:	63007264 	movwvs	r7, #612	; 0x264
 2d0:	6572666b 	ldrbvs	r6, [r2, #-1643]!	; 0xfffff995
 2d4:	61620065 	cmnvs	r2, r5, rrx
 2d8:	72746b63 	rsbsvc	r6, r4, #101376	; 0x18c00
 2dc:	00656361 	rsbeq	r6, r5, r1, ror #6
 2e0:	6f6c6c61 	svcvs	0x006c6c61
 2e4:	696c5f63 	stmdbvs	ip!, {r0, r1, r5, r6, r8, r9, sl, fp, ip, lr}^
 2e8:	73007473 	movwvc	r7, #1139	; 0x473
 2ec:	6f646168 	svcvs	0x00646168
 2f0:	6f6c5f77 	svcvs	0x006c5f77
 2f4:	69746163 	ldmdbvs	r4!, {r0, r1, r5, r6, r8, sp, lr}^
 2f8:	5f006e6f 	svcpl	0x00006e6f
 2fc:	6165685f 	cmnvs	r5, pc, asr r8
 300:	74735f70 	ldrbtvc	r5, [r3], #-3952	; 0xfffff090
 304:	5f747261 	svcpl	0x00747261
 308:	6b63005f 	blvs	18c048c <__bss_end__+0x18b52ec>
 30c:	7274705f 	rsbsvc	r7, r4, #95, 0	; 0x5f
 310:	5f73695f 	svcpl	0x0073695f
 314:	6f6c6c61 	svcvs	0x006c6c61
 318:	00646563 	rsbeq	r6, r4, r3, ror #10
 31c:	64616873 	strbtvs	r6, [r1], #-2163	; 0xfffff78d
 320:	735f776f 	cmpvc	pc, #29097984	; 0x1bc0000
 324:	74726174 	ldrbtvc	r6, [r2], #-372	; 0xfffffe8c
 328:	5f6b6300 	svcpl	0x006b6300
 32c:	7478656e 	ldrbtvc	r6, [r8], #-1390	; 0xfffffa92
 330:	7264685f 	rsbvc	r6, r4, #6225920	; 0x5f0000
 334:	616b6300 	cmnvs	fp, r0, lsl #6
 338:	636f6c6c 	cmnvs	pc, #108, 24	; 0x6c00
 33c:	4100632e 	tstmi	r0, lr, lsr #6
 340:	434f4c4c 	movtmi	r4, #64588	; 0xfc4c
 344:	63004445 	movwvs	r4, #1093	; 0x445
 348:	64685f6b 	strbtvs	r5, [r8], #-3947	; 0xfffff095
 34c:	74735f72 	ldrbtvc	r5, [r3], #-3954	; 0xfffff08e
 350:	00747261 	rsbseq	r7, r4, r1, ror #4
 354:	6769726f 	strbvs	r7, [r9, -pc, ror #4]!
 358:	6c616e69 	stclvs	14, cr6, [r1], #-420	; 0xfffffe5c
 35c:	5f6b6300 	svcpl	0x006b6300
 360:	5f726468 	svcpl	0x00726468
 364:	00646e65 	rsbeq	r6, r4, r5, ror #28
 368:	6e5f6b63 	vnmlavs.f64	d22, d15, d19
 36c:	65747962 	ldrbvs	r7, [r4, #-2402]!	; 0xfffff69e
 370:	726b0073 	rsbvc	r0, fp, #115, 0	; 0x73
 374:	6c616d5f 	stclvs	13, cr6, [r1], #-380	; 0xfffffe84
 378:	00636f6c 	rsbeq	r6, r3, ip, ror #30
 37c:	64616568 	strbtvs	r6, [r1], #-1384	; 0xfffffa98
 380:	70007265 	andvc	r7, r0, r5, ror #4
 384:	70766572 	rsbsvc	r6, r6, r2, ror r5
 388:	696c6100 	stmdbvs	ip!, {r8, sp, lr}^
 38c:	6b006e67 	blvs	1bd30 <__bss_end__+0x10b90>
 390:	72665f72 	rsbvc	r5, r6, #456	; 0x1c8
 394:	66006565 	strvs	r6, [r0], -r5, ror #10
 398:	70656572 	rsbvc	r6, r5, r2, ror r5
 39c:	6e756e00 	cdpvs	14, 7, cr6, cr5, cr0, {0}
 3a0:	00737469 	rsbseq	r7, r3, r9, ror #8
 3a4:	6d2d726b 	sfmvs	f7, 4, [sp, #-428]!	; 0xfffffe54
 3a8:	6f6c6c61 	svcvs	0x006c6c61
 3ac:	00632e63 	rsbeq	r2, r3, r3, ror #28
 3b0:	62756f64 	rsbsvs	r6, r5, #100, 30	; 0x190
 3b4:	6200656c 	andvs	r6, r0, #108, 10	; 0x1b000000
 3b8:	00657361 	rsbeq	r7, r5, r1, ror #6
 3bc:	6b726273 	blvs	1c98d90 <__bss_end__+0x1c8dbf0>
 3c0:	726f6d00 	rsbvc	r6, pc, #0, 26
 3c4:	726f6365 	rsbvc	r6, pc, #-1811939327	; 0x94000001
 3c8:	69730065 	ldmdbvs	r3!, {r0, r2, r5, r6}^
 3cc:	4800657a 	stmdami	r0, {r1, r3, r4, r5, r6, r8, sl, sp, lr}
 3d0:	65646165 	strbvs	r6, [r4, #-357]!	; 0xfffffe9b
 3d4:	74730072 	ldrbtvc	r0, [r3], #-114	; 0xffffff8e
 3d8:	5f6b6361 	svcpl	0x006b6361
 3dc:	00706f74 	rsbseq	r6, r0, r4, ror pc
 3e0:	6b72616d 	blvs	1c9899c <__bss_end__+0x1c8d7fc>
 3e4:	6c6c615f 	stfvse	f6, [ip], #-380	; 0xfffffe84
 3e8:	706d6900 	rsbvc	r6, sp, r0, lsl #18
 3ec:	656d656c 	strbvs	r6, [sp, #-1388]!	; 0xfffffa94
 3f0:	745f746e 	ldrbvc	r7, [pc], #-1134	; 3f8 <__code_start__-0x7c08>
 3f4:	00736968 	rsbseq	r6, r3, r8, ror #18
 3f8:	73625f5f 	cmnvc	r2, #380	; 0x17c
 3fc:	74735f73 	ldrbtvc	r5, [r3], #-3955	; 0xfffff08d
 400:	5f747261 	svcpl	0x00747261
 404:	626e005f 	rsbvs	r0, lr, #95, 0	; 0x5f
 408:	6b636f6c 	blvs	18dc1c0 <__bss_end__+0x18d1020>
 40c:	6e690073 	mcrvs	0, 3, r0, cr9, cr3, {3}
 410:	705f7469 	subsvc	r7, pc, r9, ror #8
 414:	79626e00 	stmdbvc	r2!, {r9, sl, fp, sp, lr}^
 418:	5f736574 	svcpl	0x00736574
 41c:	65657266 	strbvs	r7, [r5, #-614]!	; 0xfffffd9a
 420:	6c6f0064 	stclvs	0, cr0, [pc], #-400	; 298 <__code_start__-0x7d68>
 424:	616d5f64 	cmnvs	sp, r4, ror #30
 428:	69006b72 	stmdbvs	r0, {r1, r4, r5, r6, r8, r9, fp, sp, lr}
 42c:	6572636e 	ldrbvs	r6, [r2, #-878]!	; 0xfffffc92
 430:	746e656d 	strbtvc	r6, [lr], #-1389	; 0xfffffa93
 434:	5f6b6300 	svcpl	0x006b6300
 438:	646e6966 	strbtvs	r6, [lr], #-2406	; 0xfffff69a
 43c:	61656c5f 	cmnvs	r5, pc, asr ip
 440:	6d00736b 	stcvs	3, cr7, [r0, #-428]	; 0xfffffe54
 444:	65627961 	strbvs	r7, [r2, #-2401]!	; 0xfffff69f
 448:	7272655f 	rsbsvc	r6, r2, #398458880	; 0x17c00000
 44c:	0073726f 	rsbseq	r7, r3, pc, ror #4
 450:	675f6b63 	ldrbvs	r6, [pc, -r3, ror #22]
 454:	75640063 	strbvc	r0, [r4, #-99]!	; 0xffffff9d
 458:	725f706d 	subsvc	r7, pc, #109, 0	; 0x6d
 45c:	00736765 	rsbseq	r6, r3, r5, ror #14
 460:	61656c6e 	cmnvs	r5, lr, ror #24
 464:	5f00736b 	svcpl	0x0000736b
 468:	7461645f 	strbtvc	r6, [r1], #-1119	; 0xfffffba1
 46c:	6e655f61 	cdpvs	15, 6, cr5, cr5, cr1, {3}
 470:	005f5f64 	subseq	r5, pc, r4, ror #30
 474:	705f7369 	subsvc	r7, pc, r9, ror #6
 478:	6e007274 	mcrvs	2, 0, r7, cr0, cr4, {3}
 47c:	65657266 	strbvs	r7, [r5, #-614]!	; 0xfffffd9a
 480:	6e690064 	cdpvs	0, 6, cr0, cr9, cr4, {3}
 484:	6165685f 	cmnvs	r5, pc, asr r8
 488:	6e6f0070 	mcrvs	0, 3, r0, cr15, cr0, {3}
 48c:	00626d65 	rsbeq	r6, r2, r5, ror #26
 490:	672d6b63 	strvs	r6, [sp, -r3, ror #22]!
 494:	00632e63 	rsbeq	r2, r3, r3, ror #28
 498:	63656863 	cmnvs	r5, #6488064	; 0x630000
 49c:	68735f6b 	ldmdavs	r3!, {r0, r1, r3, r5, r6, r8, r9, sl, fp, ip, lr}^
 4a0:	646c756f 	strbtvs	r7, [ip], #-1391	; 0xfffffa91
 4a4:	61656c5f 	cmnvs	r5, pc, asr ip
 4a8:	5f5f006b 	svcpl	0x005f006b
 4ac:	5f737362 	svcpl	0x00737362
 4b0:	5f646e65 	svcpl	0x00646e65
 4b4:	6d6b005f 	stclvs	0, cr0, [fp, #-380]!	; 0xfffffe84
 4b8:	6f6c6c61 	svcvs	0x006c6c61
 4bc:	6d6b0063 	stclvs	0, cr0, [fp, #-396]!	; 0xfffffe74
 4c0:	6f6c6c61 	svcvs	0x006c6c61
 4c4:	6e695f63 	cdpvs	15, 6, cr5, cr9, cr3, {3}
 4c8:	735f7469 	cmpvc	pc, #1761607680	; 0x69000000
 4cc:	735f7465 	cmpvc	pc, #1694498816	; 0x65000000
 4d0:	74726174 	ldrbtvc	r6, [r2], #-372	; 0xfffffe8c
 4d4:	65777300 	ldrbvs	r7, [r7, #-768]!	; 0xfffffd00
 4d8:	6c5f7065 	mrrcvs	0, 6, r7, pc, cr5	; <UNPREDICTABLE>
 4dc:	006b6165 	rsbeq	r6, fp, r5, ror #2
 4e0:	61645f5f 	cmnvs	r4, pc, asr pc
 4e4:	735f6174 	cmpvc	pc, #29
 4e8:	74726174 	ldrbtvc	r6, [r2], #-372	; 0xfffffe8c
 4ec:	73005f5f 	movwvc	r5, #3935	; 0xf5f
 4f0:	70656577 	rsbvc	r6, r5, r7, ror r5
 4f4:	6572665f 	ldrbvs	r6, [r2, #-1631]!	; 0xfffff9a1
 4f8:	61770065 	cmnvs	r7, r5, rrx
 4fc:	6e5f6e72 	mrcvs	14, 2, r6, cr15, cr2, {3}
 500:	74735f6f 	ldrbtvc	r5, [r3], #-3951	; 0xfffff091
 504:	5f747261 	svcpl	0x00747261
 508:	5f666572 	svcpl	0x00666572
 50c:	6f770070 	svcvs	0x00770070
 510:	6e006472 	mcrvs	4, 0, r6, cr0, cr2, {3}
 514:	5f656d61 	svcpl	0x00656d61
 518:	006e656c 	rsbeq	r6, lr, ip, ror #10
 51c:	20554e47 	subscs	r4, r5, r7, asr #28
 520:	20393943 	eorscs	r3, r9, r3, asr #18
 524:	2e322e39 	mrccs	14, 1, r2, cr2, cr9, {1}
 528:	30322031 	eorscc	r2, r2, r1, lsr r0
 52c:	30313931 	eorscc	r3, r1, r1, lsr r9
 530:	28203532 	stmdacs	r0!, {r1, r4, r5, r8, sl, ip, sp}
 534:	656c6572 	strbvs	r6, [ip, #-1394]!	; 0xfffffa8e
 538:	29657361 	stmdbcs	r5!, {r0, r5, r6, r8, r9, ip, sp, lr}^
 53c:	52415b20 	subpl	r5, r1, #32, 22	; 0x8000
 540:	72612f4d 	rsbvc	r2, r1, #308	; 0x134
 544:	2d392d6d 	ldccs	13, cr2, [r9, #-436]!	; 0xfffffe4c
 548:	6e617262 	cdpvs	2, 6, cr7, cr1, cr2, {3}
 54c:	72206863 	eorvc	r6, r0, #6488064	; 0x630000
 550:	73697665 	cmnvc	r9, #105906176	; 0x6500000
 554:	206e6f69 	rsbcs	r6, lr, r9, ror #30
 558:	35373732 	ldrcc	r3, [r7, #-1842]!	; 0xfffff8ce
 55c:	205d3939 	subscs	r3, sp, r9, lsr r9
 560:	70636d2d 	rsbvc	r6, r3, sp, lsr #26
 564:	72613d75 	rsbvc	r3, r1, #7488	; 0x1d40
 568:	3731316d 	ldrcc	r3, [r1, -sp, ror #2]!
 56c:	667a6a36 			; <UNDEFINED> instruction: 0x667a6a36
 570:	2d20732d 	stccs	3, cr7, [r0, #-180]!	; 0xffffff4c
 574:	6e75746d 	cdpvs	4, 7, cr7, cr5, cr13, {3}
 578:	72613d65 	rsbvc	r3, r1, #6464	; 0x1940
 57c:	3731316d 	ldrcc	r3, [r1, -sp, ror #2]!
 580:	667a6a36 			; <UNDEFINED> instruction: 0x667a6a36
 584:	2d20732d 	stccs	3, cr7, [r0, #-180]!	; 0xffffff4c
 588:	6f6c666d 	svcvs	0x006c666d
 58c:	612d7461 			; <UNDEFINED> instruction: 0x612d7461
 590:	733d6962 	teqvc	sp, #1605632	; 0x188000
 594:	2074666f 	rsbscs	r6, r4, pc, ror #12
 598:	72616d2d 	rsbvc	r6, r1, #2880	; 0xb40
 59c:	6d2d206d 	stcvs	0, cr2, [sp, #-436]!	; 0xfffffe4c
 5a0:	68637261 	stmdavs	r3!, {r0, r5, r6, r9, ip, sp, lr}^
 5a4:	6d72613d 	ldfvse	f6, [r2, #-244]!	; 0xffffff0c
 5a8:	7a6b3676 	bvc	1acdf88 <__bss_end__+0x1ac2de8>
 5ac:	67672d20 	strbvs	r2, [r7, -r0, lsr #26]!
 5b0:	2d206264 	sfmcs	f6, 4, [r0, #-400]!	; 0xfffffe70
 5b4:	7361664f 	cmnvc	r1, #82837504	; 0x4f00000
 5b8:	732d2074 			; <UNDEFINED> instruction: 0x732d2074
 5bc:	673d6474 			; <UNDEFINED> instruction: 0x673d6474
 5c0:	3939756e 	ldmdbcc	r9!, {r1, r2, r3, r5, r6, r8, sl, ip, sp, lr}
 5c4:	66662d20 	strbtvs	r2, [r6], -r0, lsr #26
 5c8:	73656572 	cmnvc	r5, #478150656	; 0x1c800000
 5cc:	646e6174 	strbtvs	r6, [lr], #-372	; 0xfffffe8c
 5d0:	00676e69 	rsbeq	r6, r7, r9, ror #28
 5d4:	735f6e66 	cmpvc	pc, #1632	; 0x660
 5d8:	74726174 	ldrbtvc	r6, [r2], #-372	; 0xfffffe8c
 5dc:	6464615f 	strbtvs	r6, [r4], #-351	; 0xfffffea1
 5e0:	552f0072 	strpl	r0, [pc, #-114]!	; 576 <__code_start__-0x7a8a>
 5e4:	73726573 	cmnvc	r2, #482344960	; 0x1cc00000
 5e8:	6c696d2f 	stclvs	13, cr6, [r9], #-188	; 0xffffff44
 5ec:	532f7365 			; <UNDEFINED> instruction: 0x532f7365
 5f0:	6372756f 	cmnvs	r2, #465567744	; 0x1bc00000
 5f4:	73632f65 	cmnvc	r3, #404	; 0x194
 5f8:	6c303432 	cfldrsvs	mvf3, [r0], #-200	; 0xffffff38
 5fc:	696c2f78 	stmdbvs	ip!, {r3, r4, r5, r6, r8, r9, sl, fp, sp}^
 600:	00697062 	rsbeq	r7, r9, r2, rrx
 604:	72732f2e 	rsbsvc	r2, r3, #184	; 0xb8
 608:	61622f63 	cmnvs	r2, r3, ror #30
 60c:	72746b63 	rsbsvc	r6, r4, #101376	; 0x18c00
 610:	2e656361 	cdpcs	3, 6, cr6, cr5, cr1, {3}
 614:	75630063 	strbvc	r0, [r3, #-99]!	; 0xffffff9d
 618:	70665f72 	rsbvc	r5, r6, r2, ror pc
 61c:	6d616e00 	stclvs	14, cr6, [r1, #-0]
 620:	666f5f65 	strbtvs	r5, [pc], -r5, ror #30
 624:	7a697300 	bvc	1a5d22c <__bss_end__+0x1a5208c>
 628:	00745f65 	rsbseq	r5, r4, r5, ror #30
 62c:	696c2f2e 	stmdbvs	ip!, {r1, r2, r3, r5, r8, r9, sl, fp, sp}^
 630:	6d2f6362 	stcvs	3, cr6, [pc, #-392]!	; 4b0 <__code_start__-0x7b50>
 634:	65736d65 	ldrbvs	r6, [r3, #-3429]!	; 0xfffff29b
 638:	00632e74 	rsbeq	r2, r3, r4, ror lr
 63c:	73677261 	cmnvc	r7, #268435462	; 0x10000006
 640:	5f617600 	svcpl	0x00617600
 644:	6e697270 	mcrvs	2, 3, r7, cr9, cr0, {3}
 648:	5f006b74 	svcpl	0x00006b74
 64c:	756e675f 	strbvc	r6, [lr, #-1887]!	; 0xfffff8a1
 650:	61765f63 	cmnvs	r6, r3, ror #30
 654:	73696c5f 	cmnvc	r9, #24320	; 0x5f00
 658:	5f5f0074 	svcpl	0x005f0074
 65c:	2e007061 	cdpcs	0, 0, cr7, cr0, cr1, {3}
 660:	62696c2f 	rsbvs	r6, r9, #12032	; 0x2f00
 664:	72702f63 	rsbsvc	r2, r0, #396	; 0x18c
 668:	6b746e69 	blvs	1d1c014 <__bss_end__+0x1d10e74>
 66c:	5f00632e 	svcpl	0x0000632e
 670:	5f61765f 	svcpl	0x0061765f
 674:	7473696c 	ldrbtvc	r6, [r3], #-2412	; 0xfffff694
 678:	746e6900 	strbtvc	r6, [lr], #-2304	; 0xfffff700
 67c:	616e7265 	cmnvs	lr, r5, ror #4
 680:	75705f6c 	ldrbvc	r5, [r0, #-3948]!	; 0xfffff094
 684:	2e006b74 	vmovcs.16	d0[1], r6
 688:	62696c2f 	rsbvs	r6, r9, #12032	; 0x2f00
 68c:	75702f63 	ldrbvc	r2, [r0, #-3939]!	; 0xfffff09d
 690:	632e6b74 			; <UNDEFINED> instruction: 0x632e6b74
 694:	64736900 	ldrbtvs	r6, [r3], #-2304	; 0xfffff700
 698:	74696769 	strbtvc	r6, [r9], #-1897	; 0xfffff897
 69c:	6e697500 	cdpvs	5, 6, cr7, cr9, cr0, {0}
 6a0:	5f343674 	svcpl	0x00343674
 6a4:	2f2e0074 	svccs	0x002e0074
 6a8:	6362696c 	cmnvs	r2, #108, 18	; 0x1b0000
 6ac:	2d61762f 	stclcs	6, cr7, [r1, #-188]!	; 0xffffff44
 6b0:	6e697270 	mcrvs	2, 3, r7, cr9, cr0, {3}
 6b4:	632e6b74 			; <UNDEFINED> instruction: 0x632e6b74
 6b8:	635f5f00 	cmpvs	pc, #0, 30
 6bc:	5f65646f 	svcpl	0x0065646f
 6c0:	72617473 	rsbvc	r7, r1, #1929379840	; 0x73000000
 6c4:	005f5f74 	subseq	r5, pc, r4, ror pc	; <UNPREDICTABLE>
 6c8:	74646977 	strbtvc	r6, [r4], #-2423	; 0xfffff689
 6cc:	75700068 	ldrbvc	r0, [r0, #-104]!	; 0xffffff98
 6d0:	665f6374 			; <UNDEFINED> instruction: 0x665f6374
 6d4:	70720070 	rsbsvc	r0, r2, r0, ror r0
 6d8:	65735f69 	ldrbvs	r5, [r3, #-3945]!	; 0xfffff097
 6dc:	756f5f74 	strbvc	r5, [pc, #-3956]!	; fffff770 <__bss_end__+0xffff45d0>
 6e0:	74757074 	ldrbtvc	r7, [r5], #-116	; 0xffffff8c
 6e4:	746d6600 	strbtvc	r6, [sp], #-1536	; 0xfffffa00
 6e8:	6174735f 	cmnvs	r4, pc, asr r3
 6ec:	73007472 	movwvc	r7, #1138	; 0x472
 6f0:	61637274 	smcvs	14116	; 0x3724
 6f4:	74730074 	ldrbtvc	r0, [r3], #-116	; 0xffffff8c
 6f8:	79706372 	ldmdbvc	r0!, {r1, r4, r5, r6, r8, r9, sp, lr}^
 6fc:	67656e00 	strbvs	r6, [r5, -r0, lsl #28]!
 700:	5f00705f 	svcpl	0x0000705f
 704:	646f635f 	strbtvs	r6, [pc], #-863	; 70c <__code_start__-0x78f4>
 708:	6e655f65 	cdpvs	15, 6, cr5, cr5, cr5, {3}
 70c:	005f5f64 	subseq	r5, pc, r4, ror #30
 710:	74696d65 	strbtvc	r6, [r9], #-3429	; 0xfffff29b
 714:	76657200 	strbtvc	r7, [r5], -r0, lsl #4
 718:	65737265 	ldrbvs	r7, [r3, #-613]!	; 0xfffffd9b
 71c:	72747300 	rsbsvc	r7, r4, #0, 6
 720:	00706d63 	rsbseq	r6, r0, r3, ror #26
 724:	73747570 	cmnvc	r4, #112, 10	; 0x1c000000
 728:	0070665f 	rsbseq	r6, r0, pc, asr r6
 72c:	72705f5f 	rsbsvc	r5, r0, #380	; 0x17c
 730:	655f676f 	ldrbvs	r6, [pc, #-1903]	; ffffffc9 <__bss_end__+0xffff4e29>
 734:	5f5f646e 	svcpl	0x005f646e
 738:	6d756e00 	ldclvs	14, cr6, [r5, #-0]
 73c:	74730031 	ldrbtvc	r0, [r3], #-49	; 0xffffffcf
 740:	6d636e72 	stclvs	14, cr6, [r3, #-456]!	; 0xfffffe38
 744:	69730070 	ldmdbvs	r3!, {r4, r5, r6}^
 748:	64656e67 	strbtvs	r6, [r5], #-3687	; 0xfffff199
 74c:	7200705f 	andvc	r7, r0, #95, 0	; 0x5f
 750:	725f6970 	subsvc	r6, pc, #112, 18	; 0x1c0000
 754:	6f6f6265 	svcvs	0x006f6265
 758:	65640074 	strbvs	r0, [r4, #-116]!	; 0xffffff8c
 75c:	5f79616c 	svcpl	0x0079616c
 760:	2e00736d 	cdpcs	3, 0, cr7, cr0, cr13, {3}
 764:	6174732f 	cmnvs	r4, pc, lsr #6
 768:	732d6666 			; <UNDEFINED> instruction: 0x732d6666
 76c:	632f6372 			; <UNDEFINED> instruction: 0x632f6372
 770:	6e61656c 	cdpvs	5, 6, cr6, cr1, cr12, {3}
 774:	6265722d 	rsbvs	r7, r5, #-805306366	; 0xd0000002
 778:	2e746f6f 	cdpcs	15, 7, cr6, cr4, cr15, {3}
 77c:	61750063 	cmnvs	r5, r3, rrx
 780:	665f7472 			; <UNDEFINED> instruction: 0x665f7472
 784:	6873756c 	ldmdavs	r3!, {r2, r3, r5, r6, r8, sl, ip, sp, lr}^
 788:	0078745f 	rsbseq	r7, r8, pc, asr r4
 78c:	7473635f 	ldrbtvc	r6, [r3], #-863	; 0xfffffca1
 790:	00747261 	rsbseq	r7, r4, r1, ror #4
 794:	5f737362 	svcpl	0x00737362
 798:	00646e65 	rsbeq	r6, r4, r5, ror #28
 79c:	74726175 	ldrbtvc	r6, [r2], #-373	; 0xfffffe8b
 7a0:	696e695f 	stmdbvs	lr!, {r0, r1, r2, r3, r4, r6, r8, fp, sp, lr}^
 7a4:	75630074 	strbvc	r0, [r3, #-116]!	; 0xffffff8c
 7a8:	6d6f7473 	cfstrdvs	mvd7, [pc, #-460]!	; 5e4 <__code_start__-0x7a1c>
 7ac:	616f6c5f 	cmnvs	pc, pc, asr ip	; <UNPREDICTABLE>
 7b0:	00726564 	rsbseq	r6, r2, r4, ror #10
 7b4:	74732f2e 	ldrbtvc	r2, [r3], #-3886	; 0xfffff0d2
 7b8:	2d666661 	stclcs	6, cr6, [r6, #-388]!	; 0xfffffe7c
 7bc:	2f637273 	svccs	0x00637273
 7c0:	61747363 	cmnvs	r4, r3, ror #6
 7c4:	632e7472 			; <UNDEFINED> instruction: 0x632e7472
 7c8:	756f5f00 	strbvc	r5, [pc, #-3840]!	; fffff8d0 <__bss_end__+0xffff4730>
 7cc:	79630074 	stmdbvc	r3!, {r2, r4, r5, r6}^
 7d0:	5f656c63 	svcpl	0x00656c63
 7d4:	66666964 	strbtvs	r6, [r6], -r4, ror #18
 7d8:	73616c00 	cmnvc	r1, #0, 24
 7dc:	2f2e0074 	svccs	0x002e0074
 7e0:	66617473 			; <UNDEFINED> instruction: 0x66617473
 7e4:	72732d66 	rsbsvc	r2, r3, #6528	; 0x1980
 7e8:	75632f63 	strbvc	r2, [r3, #-3939]!	; 0xfffff09d
 7ec:	6d6f7473 	cfstrdvs	mvd7, [pc, #-460]!	; 628 <__code_start__-0x79d8>
 7f0:	616f6c2d 	cmnvs	pc, sp, lsr #24
 7f4:	2e726564 	cdpcs	5, 7, cr6, cr2, cr4, {3}
 7f8:	65720063 	ldrbvs	r0, [r2, #-99]!	; 0xffffff9d
 7fc:	746f6f62 	strbtvc	r6, [pc], #-3938	; 804 <__code_start__-0x77fc>
 800:	6c61635f 	stclvs	3, cr6, [r1], #-380	; 0xfffffe84
 804:	74756f6c 	ldrbtvc	r6, [r5], #-3948	; 0xfffff094
 808:	5f4d5000 	svcpl	0x004d5000
 80c:	474f4457 	smlsldmi	r4, pc, r7, r4	; <UNPREDICTABLE>
 810:	54555000 	ldrbpl	r5, [r5], #-0
 814:	73003233 	movwvc	r3, #563	; 0x233
 818:	755f7465 	ldrbvc	r7, [pc, #-1125]	; 3bb <__code_start__-0x7c45>
 81c:	5f726573 	svcpl	0x00726573
 820:	6576656c 	ldrbvs	r6, [r6, #-1388]!	; 0xfffffa94
 824:	2f2e006c 	svccs	0x002e006c
 828:	66617473 			; <UNDEFINED> instruction: 0x66617473
 82c:	72732d66 	rsbsvc	r2, r3, #6528	; 0x1980
 830:	65722f63 	ldrbvs	r2, [r2, #-3939]!	; 0xfffff09d
 834:	746f6f62 	strbtvc	r6, [pc], #-3938	; 83c <__code_start__-0x77c4>
 838:	5000632e 	andpl	r6, r0, lr, lsr #6
 83c:	41505f4d 	cmpmi	r0, sp, asr #30
 840:	4f575353 	svcmi	0x00575353
 844:	61004452 	tstvs	r0, r2, asr r4
 848:	73755f74 	cmnvc	r5, #116, 30	; 0x1d0
 84c:	6c5f7265 	lfmvs	f7, 2, [pc], {101}	; 0x65
 850:	6c657665 	stclvs	6, cr7, [r5], #-404	; 0xfffffe6c
 854:	5f4d5000 	svcpl	0x004d5000
 858:	43545352 	cmpmi	r4, #1207959553	; 0x48000001
 85c:	4352575f 	cmpmi	r2, #24903680	; 0x17c0000
 860:	465f4746 	ldrbmi	r4, [pc], -r6, asr #14
 864:	5f4c4c55 	svcpl	0x004c4c55
 868:	45534552 	ldrbmi	r4, [r3, #-1362]	; 0xfffffaae
 86c:	4d500054 	ldclmi	0, cr0, [r0, #-336]	; 0xfffffeb0
 870:	5453525f 	ldrbpl	r5, [r3], #-607	; 0xfffffda1
 874:	70630043 	rsbvc	r0, r3, r3, asr #32
 878:	64007273 	strvs	r7, [r0], #-627	; 0xfffffd8d
 87c:	625f7665 	subsvs	r7, pc, #105906176	; 0x6500000
 880:	69727261 	ldmdbvs	r2!, {r0, r5, r6, r9, ip, sp, lr}^
 884:	64007265 	strvs	r7, [r0], #-613	; 0xfffffd9b
 888:	79616c65 	stmdbvc	r1!, {r0, r2, r5, r6, sl, fp, sp, lr}^
 88c:	6365735f 	cmnvs	r5, #2080374785	; 0x7c000001
 890:	732f2e00 			; <UNDEFINED> instruction: 0x732f2e00
 894:	66666174 			; <UNDEFINED> instruction: 0x66666174
 898:	6372732d 	cmnvs	r2, #-1275068416	; 0xb4000000
 89c:	6d69742f 	cfstrdvs	mvd7, [r9, #-188]!	; 0xffffff44
 8a0:	632e7265 			; <UNDEFINED> instruction: 0x632e7265
 8a4:	54454700 	strbpl	r4, [r5], #-1792	; 0xfffff900
 8a8:	74003233 	strvc	r3, [r0], #-563	; 0xfffffdcd
 8ac:	72656d69 	rsbvc	r6, r5, #6720	; 0x1a40
 8b0:	7465675f 	strbtvc	r6, [r5], #-1887	; 0xfffff8a1
 8b4:	6573755f 	ldrbvs	r7, [r3, #-1375]!	; 0xfffffaa1
 8b8:	65640063 	strbvs	r0, [r4, #-99]!	; 0xffffff9d
 8bc:	5f79616c 	svcpl	0x0079616c
 8c0:	74007375 	strvc	r7, [r0], #-885	; 0xfffffc8b
 8c4:	72656d69 	rsbvc	r6, r5, #6720	; 0x1a40
 8c8:	7465675f 	strbtvc	r6, [r5], #-1887	; 0xfffff8a1
 8cc:	6573755f 	ldrbvs	r7, [r3, #-1375]!	; 0xfffffaa1
 8d0:	61725f63 	cmnvs	r2, r3, ror #30
 8d4:	75700077 	ldrbvc	r0, [r0, #-119]!	; 0xffffff89
 8d8:	00323374 	eorseq	r3, r2, r4, ror r3
 8dc:	64756162 	ldrbtvs	r6, [r5], #-354	; 0xfffffe9e
 8e0:	6c61765f 	stclvs	6, cr7, [r1], #-380	; 0xfffffe84
 8e4:	61747300 	cmnvs	r4, r0, lsl #6
 8e8:	61750074 	cmnvs	r5, r4, ror r0
 8ec:	635f7472 	cmpvs	pc, #1912602624	; 0x72000000
 8f0:	675f6e61 	ldrbvs	r6, [pc, -r1, ror #28]
 8f4:	00637465 	rsbeq	r7, r3, r5, ror #8
 8f8:	4f495047 	svcmi	0x00495047
 8fc:	4e55465f 	mrcmi	6, 2, r4, cr5, cr15, {2}
 900:	554f5f43 	strbpl	r5, [pc, #-3907]	; fffff9c5 <__bss_end__+0xffff4825>
 904:	54555054 	ldrbpl	r5, [r5], #-84	; 0xffffffac
 908:	78756100 	ldmdavc	r5!, {r8, sp, lr}^
 90c:	7265705f 	rsbvc	r7, r5, #95, 0	; 0x5f
 910:	73687069 	cmnvc	r8, #105, 0	; 0x69
 914:	72617500 	rsbvc	r7, r1, #0, 10
 918:	00632e74 	rsbeq	r2, r3, r4, ror lr
 91c:	74726175 	ldrbtvc	r6, [r2], #-373	; 0xfffffe8b
 920:	6e61635f 	mcrvs	3, 3, r6, cr1, cr15, {2}
 924:	7475705f 	ldrbtvc	r7, [r5], #-95	; 0xffffffa1
 928:	61750063 	cmnvs	r5, r3, rrx
 92c:	745f7472 	ldrbvc	r7, [pc], #-1138	; 934 <__code_start__-0x76cc>
 930:	73695f78 	cmnvc	r9, #120, 30	; 0x1e0
 934:	706d655f 	rsbvc	r6, sp, pc, asr r5
 938:	47007974 	smlsdxmi	r0, r4, r9, r7
 93c:	5f4f4950 	svcpl	0x004f4950
 940:	434e5546 	movtmi	r5, #58694	; 0xe546
 944:	544c415f 	strbpl	r4, [ip], #-351	; 0xfffffea1
 948:	50470030 	subpl	r0, r7, r0, lsr r0
 94c:	465f4f49 	ldrbmi	r4, [pc], -r9, asr #30
 950:	5f434e55 	svcpl	0x00434e55
 954:	31544c41 	cmpcc	r4, r1, asr #24
 958:	49504700 	ldmdbmi	r0, {r8, r9, sl, lr}^
 95c:	55465f4f 	strbpl	r5, [r6, #-3919]	; 0xfffff0b1
 960:	415f434e 	cmpmi	pc, lr, asr #6
 964:	0032544c 	eorseq	r5, r2, ip, asr #8
 968:	4f495047 	svcmi	0x00495047
 96c:	4e55465f 	mrcmi	6, 2, r4, cr5, cr15, {2}
 970:	4c415f43 	mcrrmi	15, 4, r5, r1, cr3
 974:	47003354 	smlsdmi	r0, r4, r3, r3
 978:	5f4f4950 	svcpl	0x004f4950
 97c:	434e5546 	movtmi	r5, #58694	; 0xe546
 980:	544c415f 	strbpl	r4, [ip], #-351	; 0xfffffea1
 984:	682f0035 	stmdavs	pc!, {r0, r2, r4, r5}	; <UNPREDICTABLE>
 988:	2f656d6f 	svccs	0x00656d6f
 98c:	6c676e65 	stclvs	14, cr6, [r7], #-404	; 0xfffffe6c
 990:	632f7265 			; <UNDEFINED> instruction: 0x632f7265
 994:	7373616c 	cmnvc	r3, #27
 998:	3273632f 	rsbscc	r6, r3, #-1140850688	; 0xbc000000
 99c:	786c3034 	stmdavc	ip!, {r2, r4, r5, ip, sp}^
 9a0:	7332322d 	teqvc	r2, #-805306366	; 0xd0000002
 9a4:	6c2f7270 	sfmvs	f7, 4, [pc], #-448	; 7ec <__code_start__-0x7814>
 9a8:	69706269 	ldmdbvs	r0!, {r0, r3, r5, r6, r9, sp, lr}^
 9ac:	6174732f 	cmnvs	r4, pc, lsr #6
 9b0:	702d6666 	eorvc	r6, sp, r6, ror #12
 9b4:	61766972 	cmnvs	r6, r2, ror r9
 9b8:	62006574 	andvs	r6, r0, #116, 10	; 0x1d000000
 9bc:	00647561 	rsbeq	r7, r4, r1, ror #10
 9c0:	5f787561 	svcpl	0x00787561
 9c4:	62616e65 	rsbvs	r6, r1, #1616	; 0x650
 9c8:	0073656c 	rsbseq	r6, r3, ip, ror #10
 9cc:	74726175 	ldrbtvc	r6, [r2], #-373	; 0xfffffe8b
 9d0:	7465675f 	strbtvc	r6, [r5], #-1887	; 0xfffff8a1
 9d4:	4e470063 	cdpmi	0, 4, cr0, cr7, cr3, {3}
 9d8:	39432055 	stmdbcc	r3, {r0, r2, r4, r6, sp}^
 9dc:	30312039 	eorscc	r2, r1, r9, lsr r0
 9e0:	312e332e 			; <UNDEFINED> instruction: 0x312e332e
 9e4:	32303220 	eorscc	r3, r0, #32, 4
 9e8:	32383031 	eorscc	r3, r8, #49, 0	; 0x31
 9ec:	72282034 	eorvc	r2, r8, #52, 0	; 0x34
 9f0:	61656c65 	cmnvs	r5, r5, ror #24
 9f4:	20296573 	eorcs	r6, r9, r3, ror r5
 9f8:	70636d2d 	rsbvc	r6, r3, sp, lsr #26
 9fc:	72613d75 	rsbvc	r3, r1, #7488	; 0x1d40
 a00:	3731316d 	ldrcc	r3, [r1, -sp, ror #2]!
 a04:	667a6a36 			; <UNDEFINED> instruction: 0x667a6a36
 a08:	2d20732d 	stccs	3, cr7, [r0, #-180]!	; 0xffffff4c
 a0c:	6e75746d 	cdpvs	4, 7, cr7, cr5, cr13, {3}
 a10:	72613d65 	rsbvc	r3, r1, #6464	; 0x1940
 a14:	3731316d 	ldrcc	r3, [r1, -sp, ror #2]!
 a18:	667a6a36 			; <UNDEFINED> instruction: 0x667a6a36
 a1c:	2d20732d 	stccs	3, cr7, [r0, #-180]!	; 0xffffff4c
 a20:	6f6c666d 	svcvs	0x006c666d
 a24:	612d7461 			; <UNDEFINED> instruction: 0x612d7461
 a28:	733d6962 	teqvc	sp, #1605632	; 0x188000
 a2c:	2074666f 	rsbscs	r6, r4, pc, ror #12
 a30:	72616d2d 	rsbvc	r6, r1, #2880	; 0xb40
 a34:	6d2d206d 	stcvs	0, cr2, [sp, #-436]!	; 0xfffffe4c
 a38:	68637261 	stmdavs	r3!, {r0, r5, r6, r9, ip, sp, lr}^
 a3c:	6d72613d 	ldfvse	f6, [r2, #-244]!	; 0xffffff0c
 a40:	7a6b3676 	bvc	1ace420 <__bss_end__+0x1ac3280>
 a44:	67672d20 	strbvs	r2, [r7, -r0, lsr #26]!
 a48:	2d206264 	sfmcs	f6, 4, [r0, #-400]!	; 0xfffffe70
 a4c:	2d20674f 	stccs	7, cr6, [r0, #-316]!	; 0xfffffec4
 a50:	3d647473 	cfstrdcc	mvd7, [r4, #-460]!	; 0xfffffe34
 a54:	39756e67 	ldmdbcc	r5!, {r0, r1, r2, r5, r6, r9, sl, fp, sp, lr}^
 a58:	662d2039 			; <UNDEFINED> instruction: 0x662d2039
 a5c:	65657266 	strbvs	r7, [r5, #-614]!	; 0xfffffd9a
 a60:	6e617473 	mcrvs	4, 3, r7, cr1, cr3, {3}
 a64:	676e6964 	strbvs	r6, [lr, -r4, ror #18]!
 a68:	746e6300 	strbtvc	r6, [lr], #-768	; 0xfffffd00
 a6c:	6175006c 	cmnvs	r5, ip, rrx
 a70:	645f7472 	ldrbvs	r7, [pc], #-1138	; a78 <__code_start__-0x7588>
 a74:	62617369 	rsbvs	r7, r1, #-1543503871	; 0xa4000001
 a78:	7500656c 	strvc	r6, [r0, #-1388]	; 0xfffffa94
 a7c:	5f747261 	svcpl	0x00747261
 a80:	5f736168 	svcpl	0x00736168
 a84:	61746164 	cmnvs	r4, r4, ror #2
 a88:	49504700 	ldmdbmi	r0, {r8, r9, sl, lr}^
 a8c:	55465f4f 	strbpl	r5, [r6, #-3919]	; 0xfffff0b1
 a90:	415f434e 	cmpmi	pc, lr, asr #6
 a94:	0034544c 	eorseq	r5, r4, ip, asr #8
 a98:	695f726f 	ldmdbvs	pc, {r0, r1, r2, r3, r5, r6, r9, ip, sp, lr}^	; <UNPREDICTABLE>
 a9c:	0032336e 	eorseq	r3, r2, lr, ror #6
 aa0:	61726373 	cmnvs	r2, r3, ror r3
 aa4:	00686374 	rsbeq	r6, r8, r4, ror r3
 aa8:	74726175 	ldrbtvc	r6, [r2], #-373	; 0xfffffe8b
 aac:	646e6100 	strbtvs	r6, [lr], #-256	; 0xffffff00
 ab0:	336e695f 	cmncc	lr, #1556480	; 0x17c000
 ab4:	61750032 	cmnvs	r5, r2, lsr r0
 ab8:	705f7472 	subsvc	r7, pc, r2, ror r4	; <UNPREDICTABLE>
 abc:	00637475 	rsbeq	r7, r3, r5, ror r4
 ac0:	4f495047 	svcmi	0x00495047
 ac4:	4e55465f 	mrcmi	6, 2, r4, cr5, cr15, {2}
 ac8:	4e495f43 	cdpmi	15, 4, cr5, cr9, cr3, {2}
 acc:	00545550 	subseq	r5, r4, r0, asr r5
 ad0:	6f697067 	svcvs	0x00697067
 ad4:	7465735f 	strbtvc	r7, [r5], #-863	; 0xfffffca1
 ad8:	6e75665f 	mrcvs	6, 3, r6, cr5, cr15, {2}
 adc:	6f697463 	svcvs	0x00697463
 ae0:	6567006e 	strbvs	r0, [r7, #-110]!	; 0xffffff92
 ae4:	00323374 	eorseq	r3, r2, r4, ror r3
 ae8:	6c616d6b 	stclvs	13, cr6, [r1], #-428	; 0xfffffe54
 aec:	5f636f6c 	svcpl	0x00636f6c
 af0:	70616568 	rsbvc	r6, r1, r8, ror #10
 af4:	6174735f 	cmnvs	r4, pc, asr r3
 af8:	6d007472 	cfstrsvs	mvf7, [r0, #-456]	; 0xfffffe38
 afc:	6e5f7861 	cdpvs	8, 5, cr7, cr15, cr1, {3}
 b00:	65747962 	ldrbvs	r7, [r4, #-2402]!	; 0xfffff69e
 b04:	65680073 	strbvs	r0, [r8, #-115]!	; 0xffffff8d
 b08:	6d5f7061 	ldclvs	0, cr7, [pc, #-388]	; 98c <__code_start__-0x7674>
 b0c:	6b007861 	blvs	1ec98 <__bss_end__+0x13af8>
 b10:	65657266 	strbvs	r7, [r5, #-614]!	; 0xfffffd9a
 b14:	6c6c615f 	stfvse	f6, [ip], #-380	; 0xfffffe84
 b18:	756f7200 	strbvc	r7, [pc, #-512]!	; 920 <__code_start__-0x76e0>
 b1c:	7075646e 	rsbsvc	r6, r5, lr, ror #8
 b20:	72666b00 	rsbvc	r6, r6, #0, 22
 b24:	705f6565 	subsvc	r6, pc, r5, ror #10
 b28:	6100706f 	tstvs	r0, pc, rrx
 b2c:	6e67696c 	vnmulvs.f16	s13, s14, s25	; <UNPREDICTABLE>
 b30:	746e656d 	strbtvc	r6, [lr], #-1389	; 0xfffffa93
 b34:	78616d00 	stmdavc	r1!, {r8, sl, fp, sp, lr}^
 b38:	3233755f 	eorscc	r7, r3, #398458880	; 0x17c00000
 b3c:	656e4f00 	strbvs	r4, [lr, #-3840]!	; 0xfffff100
 b40:	6b00424d 	blvs	1147c <__bss_end__+0x62dc>
 b44:	6c6c616d 	stfvse	f6, [ip], #-436	; 0xfffffe4c
 b48:	685f636f 	ldmdavs	pc, {r0, r1, r2, r3, r5, r6, r8, r9, sp, lr}^	; <UNPREDICTABLE>
 b4c:	5f706165 	svcpl	0x00706165
 b50:	00646e65 	rsbeq	r6, r4, r5, ror #28
 b54:	6c616d6b 	stclvs	13, cr6, [r1], #-428	; 0xfffffe54
 b58:	5f636f6c 	svcpl	0x00636f6c
 b5c:	7a746f6e 	bvc	1d1c91c <__bss_end__+0x1d1177c>
 b60:	006f7265 	rsbeq	r7, pc, r5, ror #4
 b64:	705f7369 	subsvc	r7, pc, r9, ror #6
 b68:	0032776f 	eorseq	r7, r2, pc, ror #14
 b6c:	6c616d6b 	stclvs	13, cr6, [r1], #-428	; 0xfffffe54
 b70:	2e636f6c 	cdpcs	15, 6, cr6, cr3, cr12, {3}
 b74:	6d6b0063 	stclvs	0, cr0, [fp, #-396]!	; 0xfffffe74
 b78:	6f6c6c61 	svcvs	0x006c6c61
 b7c:	6e695f63 	cdpvs	15, 6, cr5, cr9, cr3, {3}
 b80:	69007469 	stmdbvs	r0, {r0, r3, r5, r6, sl, ip, sp, lr}
 b84:	6c615f73 	stclvs	15, cr5, [r1], #-460	; 0xfffffe34
 b88:	656e6769 	strbvs	r6, [lr, #-1897]!	; 0xfffff897
 b8c:	6d6b0064 	stclvs	0, cr0, [fp, #-400]!	; 0xfffffe70
 b90:	6f6c6c61 	svcvs	0x006c6c61
 b94:	65685f63 	strbvs	r5, [r8, #-3939]!	; 0xfffff09d
 b98:	705f7061 	subsvc	r7, pc, r1, rrx
 b9c:	72007274 	andvc	r7, r0, #116, 4	; 0x40000007
 ba0:	725f6970 	subsvc	r6, pc, #112, 18	; 0x1c0000
 ba4:	74657365 	strbtvc	r7, [r5], #-869	; 0xfffffc9b
 ba8:	7475705f 	ldrbtvc	r7, [r5], #-95	; 0xffffffa1
 bac:	6d6b0063 	stclvs	0, cr0, [fp, #-396]!	; 0xfffffe74
 bb0:	6f6c6c61 	svcvs	0x006c6c61
 bb4:	6c615f63 	stclvs	15, cr5, [r1], #-396	; 0xfffffe74
 bb8:	656e6769 	strbvs	r6, [lr, #-1897]!	; 0xfffff897
 bbc:	70670064 	rsbvc	r0, r7, r4, rrx
 bc0:	635f6f69 	cmpvs	pc, #420	; 0x1a4
 bc4:	0030726c 	eorseq	r7, r0, ip, ror #4
 bc8:	6f697067 	svcvs	0x00697067
 bcc:	7465735f 	strbtvc	r7, [r5], #-863	; 0xfffffca1
 bd0:	70670030 	rsbvc	r0, r7, r0, lsr r0
 bd4:	775f6f69 	ldrbvc	r6, [pc, -r9, ror #30]
 bd8:	65746972 	ldrbvs	r6, [r4, #-2418]!	; 0xfffff68e
 bdc:	56454400 	strbpl	r4, [r5], -r0, lsl #8
 be0:	4c41565f 	mcrrmi	6, 5, r5, r1, cr15
 be4:	67003233 	smladxvs	r0, r3, r2, r3
 be8:	5f6f6970 	svcpl	0x006f6970
 bec:	64616572 	strbtvs	r6, [r1], #-1394	; 0xfffffa8e
 bf0:	732f2e00 			; <UNDEFINED> instruction: 0x732f2e00
 bf4:	672f6372 			; <UNDEFINED> instruction: 0x672f6372
 bf8:	2e6f6970 			; <UNDEFINED> instruction: 0x2e6f6970
 bfc:	70670063 	rsbvc	r0, r7, r3, rrx
 c00:	735f6f69 	cmpvc	pc, #420	; 0x1a4
 c04:	695f7465 	ldmdbvs	pc, {r0, r2, r5, r6, sl, ip, sp, lr}^	; <UNPREDICTABLE>
 c08:	7475706e 	ldrbtvc	r7, [r5], #-110	; 0xffffff92
 c0c:	69706700 	ldmdbvs	r0!, {r8, r9, sl, sp, lr}^
 c10:	65735f6f 	ldrbvs	r5, [r3, #-3951]!	; 0xfffff091
 c14:	666f5f74 	uqsub16vs	r5, pc, r4	; <UNPREDICTABLE>
 c18:	70670066 	rsbvc	r0, r7, r6, rrx
 c1c:	735f6f69 	cmpvc	pc, #420	; 0x1a4
 c20:	6f5f7465 	svcvs	0x005f7465
 c24:	75707475 	ldrbvc	r7, [r0, #-1141]!	; 0xfffffb8b
 c28:	70670074 	rsbvc	r0, r7, r4, ror r0
 c2c:	665f6f69 	ldrbvs	r6, [pc], -r9, ror #30
 c30:	5f636e75 	svcpl	0x00636e75
 c34:	70670074 	rsbvc	r0, r7, r4, ror r0
 c38:	6c5f6f69 	mrrcvs	15, 6, r6, pc, cr9	; <UNPREDICTABLE>
 c3c:	00307665 	eorseq	r7, r0, r5, ror #12
 c40:	6b6e6162 	blvs	1b991d0 <__bss_end__+0x1b8e030>
 c44:	69706700 	ldmdbvs	r0!, {r8, r9, sl, sp, lr}^
 c48:	65735f6f 	ldrbvs	r5, [r3, #-3951]!	; 0xfffff091
 c4c:	6e6f5f74 	mcrvs	15, 3, r5, cr15, cr4, {3}
 c50:	746e6900 	strbtvc	r6, [lr], #-2304	; 0xfffff700
 c54:	616e7265 	cmnvs	lr, r5, ror #4
 c58:	75705f6c 	ldrbvc	r5, [r0, #-3948]!	; 0xfffff094
 c5c:	61686374 	smcvs	34356	; 0x8634
 c60:	70720072 	rsbsvc	r0, r2, r2, ror r0
 c64:	65735f69 	ldrbvs	r5, [r3, #-3945]!	; 0xfffff097
 c68:	75705f74 	ldrbvc	r5, [r0, #-3956]!	; 0xfffff08c
 c6c:	2e006374 	mcrcs	3, 0, r6, cr0, cr4, {3}
 c70:	62696c2f 	rsbvs	r6, r9, #12032	; 0x2f00
 c74:	75702f63 	ldrbvc	r2, [r0, #-3939]!	; 0xfffff09d
 c78:	61686374 	smcvs	34356	; 0x8634
 c7c:	00632e72 	rsbeq	r2, r3, r2, ror lr
 c80:	696c2f2e 	stmdbvs	ip!, {r1, r2, r3, r5, r8, r9, sl, fp, sp}^
 c84:	732f6362 			; <UNDEFINED> instruction: 0x732f6362
 c88:	61637274 	smcvs	14116	; 0x3724
 c8c:	00632e74 	rsbeq	r2, r3, r4, ror lr
 c90:	74736564 	ldrbtvc	r6, [r3], #-1380	; 0xfffffa9c
 c94:	6c2f2e00 	stcvs	14, cr2, [pc], #-0	; c9c <__code_start__-0x7364>
 c98:	2f636269 	svccs	0x00636269
 c9c:	63727473 	cmnvs	r2, #1929379840	; 0x73000000
 ca0:	632e706d 			; <UNDEFINED> instruction: 0x632e706d
 ca4:	6c2f2e00 	stcvs	14, cr2, [pc], #-0	; cac <__code_start__-0x7354>
 ca8:	2f636269 	svccs	0x00636269
 cac:	63727473 	cmnvs	r2, #1929379840	; 0x73000000
 cb0:	632e7970 			; <UNDEFINED> instruction: 0x632e7970
 cb4:	6c2f2e00 	stcvs	14, cr2, [pc], #-0	; cbc <__code_start__-0x7344>
 cb8:	2f636269 	svccs	0x00636269
 cbc:	6e727473 	mrcvs	4, 3, r7, cr2, cr3, {3}
 cc0:	2e706d63 	cdpcs	13, 7, cr6, cr0, cr3, {3}
 cc4:	2f2e0063 	svccs	0x002e0063
 cc8:	66617473 			; <UNDEFINED> instruction: 0x66617473
 ccc:	72732d66 	rsbsvc	r2, r3, #6528	; 0x1980
 cd0:	65642f63 	strbvs	r2, [r4, #-3939]!	; 0xfffff09d
 cd4:	6c756166 	ldfvse	f6, [r5], #-408	; 0xfffffe68
 cd8:	65722d74 	ldrbvs	r2, [r2, #-3444]!	; 0xfffff28c
 cdc:	746f6f62 	strbtvc	r6, [pc], #-3938	; ce4 <__code_start__-0x731c>
 ce0:	6c61632d 	stclvs	3, cr6, [r1], #-180	; 0xffffff4c
 ce4:	74756f6c 	ldrbtvc	r6, [r5], #-3948	; 0xfffff094
 ce8:	Address 0x0000000000000ce8 is out of bounds.


Disassembly of section .debug_frame:

00000000 <.debug_frame>:
   0:	0000000c 	andeq	r0, r0, ip
   4:	ffffffff 			; <UNDEFINED> instruction: 0xffffffff
   8:	7c020001 	stcvc	0, cr0, [r2], {1}
   c:	000d0c0e 	andeq	r0, sp, lr, lsl #24
  10:	0000001c 	andeq	r0, r0, ip, lsl r0
  14:	00000000 	andeq	r0, r0, r0
  18:	00008048 	andeq	r8, r0, r8, asr #32
  1c:	00000014 	andeq	r0, r0, r4, lsl r0
  20:	420c0d42 	andmi	r0, ip, #4224	; 0x1080
  24:	038d048b 	orreq	r0, sp, #-1962934272	; 0x8b000000
  28:	0c42028e 	sfmeq	f0, 2, [r2], {142}	; 0x8e
  2c:	0000040b 	andeq	r0, r0, fp, lsl #8
  30:	00000028 	andeq	r0, r0, r8, lsr #32
  34:	00000000 	andeq	r0, r0, r0
  38:	00008068 	andeq	r8, r0, r8, rrx
  3c:	000000cc 	andeq	r0, r0, ip, asr #1
  40:	420c0d42 	andmi	r0, ip, #4224	; 0x1080
  44:	06850784 	streq	r0, [r5], r4, lsl #15
  48:	048b0586 	streq	r0, [fp], #1414	; 0x586
  4c:	028e038d 	addeq	r0, lr, #872415234	; 0x34000002
  50:	040b0c42 	streq	r0, [fp], #-3138	; 0xfffff3be
  54:	0d0c5602 	stceq	6, cr5, [ip, #-8]
  58:	0000001c 	andeq	r0, r0, ip, lsl r0
  5c:	00000020 	andeq	r0, r0, r0, lsr #32
  60:	00000000 	andeq	r0, r0, r0
  64:	00008140 	andeq	r8, r0, r0, asr #2
  68:	0000003c 	andeq	r0, r0, ip, lsr r0
  6c:	420c0d42 	andmi	r0, ip, #4224	; 0x1080
  70:	05850684 	streq	r0, [r5, #1668]	; 0x684
  74:	038d048b 	orreq	r0, sp, #-1962934272	; 0x8b000000
  78:	0c42028e 	sfmeq	f0, 2, [r2], {142}	; 0x8e
  7c:	0000040b 	andeq	r0, r0, fp, lsl #8
  80:	0000000c 	andeq	r0, r0, ip
  84:	ffffffff 			; <UNDEFINED> instruction: 0xffffffff
  88:	7c020001 	stcvc	0, cr0, [r2], {1}
  8c:	000d0c0e 	andeq	r0, sp, lr, lsl #24
  90:	0000001c 	andeq	r0, r0, ip, lsl r0
  94:	00000080 	andeq	r0, r0, r0, lsl #1
  98:	00008190 	muleq	r0, r0, r1
  9c:	0000001c 	andeq	r0, r0, ip, lsl r0
  a0:	420c0d42 	andmi	r0, ip, #4224	; 0x1080
  a4:	038d048b 	orreq	r0, sp, #-1962934272	; 0x8b000000
  a8:	0c42028e 	sfmeq	f0, 2, [r2], {142}	; 0x8e
  ac:	0000040b 	andeq	r0, r0, fp, lsl #8
  b0:	0000001c 	andeq	r0, r0, ip, lsl r0
  b4:	00000080 	andeq	r0, r0, r0, lsl #1
  b8:	000081bc 			; <UNDEFINED> instruction: 0x000081bc
  bc:	0000001c 	andeq	r0, r0, ip, lsl r0
  c0:	420c0d42 	andmi	r0, ip, #4224	; 0x1080
  c4:	038d048b 	orreq	r0, sp, #-1962934272	; 0x8b000000
  c8:	0c42028e 	sfmeq	f0, 2, [r2], {142}	; 0x8e
  cc:	0000040b 	andeq	r0, r0, fp, lsl #8
  d0:	0000001c 	andeq	r0, r0, ip, lsl r0
  d4:	00000080 	andeq	r0, r0, r0, lsl #1
  d8:	000081ec 	andeq	r8, r0, ip, ror #3
  dc:	00000014 	andeq	r0, r0, r4, lsl r0
  e0:	420c0d42 	andmi	r0, ip, #4224	; 0x1080
  e4:	038d048b 	orreq	r0, sp, #-1962934272	; 0x8b000000
  e8:	0c42028e 	sfmeq	f0, 2, [r2], {142}	; 0x8e
  ec:	0000040b 	andeq	r0, r0, fp, lsl #8
  f0:	00000020 	andeq	r0, r0, r0, lsr #32
  f4:	00000080 	andeq	r0, r0, r0, lsl #1
  f8:	00008210 	andeq	r8, r0, r0, lsl r2
  fc:	00000020 	andeq	r0, r0, r0, lsr #32
 100:	420c0d42 	andmi	r0, ip, #4224	; 0x1080
 104:	05850684 	streq	r0, [r5, #1668]	; 0x684
 108:	038d048b 	orreq	r0, sp, #-1962934272	; 0x8b000000
 10c:	0c42028e 	sfmeq	f0, 2, [r2], {142}	; 0x8e
 110:	0000040b 	andeq	r0, r0, fp, lsl #8
 114:	00000024 	andeq	r0, r0, r4, lsr #32
 118:	00000080 	andeq	r0, r0, r0, lsl #1
 11c:	00008244 	andeq	r8, r0, r4, asr #4
 120:	00000038 	andeq	r0, r0, r8, lsr r0
 124:	420c0d42 	andmi	r0, ip, #4224	; 0x1080
 128:	07850884 	streq	r0, [r5, r4, lsl #17]
 12c:	05870686 	streq	r0, [r7, #1670]	; 0x686
 130:	038d048b 	orreq	r0, sp, #-1962934272	; 0x8b000000
 134:	0c42028e 	sfmeq	f0, 2, [r2], {142}	; 0x8e
 138:	0000040b 	andeq	r0, r0, fp, lsl #8
 13c:	00000020 	andeq	r0, r0, r0, lsr #32
 140:	00000080 	andeq	r0, r0, r0, lsl #1
 144:	00008294 	muleq	r0, r4, r2
 148:	00000060 	andeq	r0, r0, r0, rrx
 14c:	420c0d42 	andmi	r0, ip, #4224	; 0x1080
 150:	05850684 	streq	r0, [r5, #1668]	; 0x684
 154:	038d048b 	orreq	r0, sp, #-1962934272	; 0x8b000000
 158:	0c42028e 	sfmeq	f0, 2, [r2], {142}	; 0x8e
 15c:	0000040b 	andeq	r0, r0, fp, lsl #8
 160:	00000028 	andeq	r0, r0, r8, lsr #32
 164:	00000080 	andeq	r0, r0, r0, lsl #1
 168:	00008300 	andeq	r8, r0, r0, lsl #6
 16c:	0000015c 	andeq	r0, r0, ip, asr r1
 170:	420c0d42 	andmi	r0, ip, #4224	; 0x1080
 174:	07850884 	streq	r0, [r5, r4, lsl #17]
 178:	05870686 	streq	r0, [r7, #1670]	; 0x686
 17c:	038d048b 	orreq	r0, sp, #-1962934272	; 0x8b000000
 180:	0c42028e 	sfmeq	f0, 2, [r2], {142}	; 0x8e
 184:	9a02040b 	bls	811b8 <__bss_end__+0x76018>
 188:	00200d0c 	eoreq	r0, r0, ip, lsl #26
 18c:	0000001c 	andeq	r0, r0, ip, lsl r0
 190:	00000080 	andeq	r0, r0, r0, lsl #1
 194:	00008470 	andeq	r8, r0, r0, ror r4
 198:	00000044 	andeq	r0, r0, r4, asr #32
 19c:	420c0d42 	andmi	r0, ip, #4224	; 0x1080
 1a0:	038d048b 	orreq	r0, sp, #-1962934272	; 0x8b000000
 1a4:	0c42028e 	sfmeq	f0, 2, [r2], {142}	; 0x8e
 1a8:	0000040b 	andeq	r0, r0, fp, lsl #8
 1ac:	00000028 	andeq	r0, r0, r8, lsr #32
 1b0:	00000080 	andeq	r0, r0, r0, lsl #1
 1b4:	000084c0 	andeq	r8, r0, r0, asr #9
 1b8:	000000fc 	strdeq	r0, [r0], -ip
 1bc:	420c0d42 	andmi	r0, ip, #4224	; 0x1080
 1c0:	07850884 	streq	r0, [r5, r4, lsl #17]
 1c4:	05870686 	streq	r0, [r7, #1670]	; 0x686
 1c8:	038d048b 	orreq	r0, sp, #-1962934272	; 0x8b000000
 1cc:	0c42028e 	sfmeq	f0, 2, [r2], {142}	; 0x8e
 1d0:	6e02040b 	cdpvs	4, 0, cr0, cr2, cr11, {0}
 1d4:	00200d0c 	eoreq	r0, r0, ip, lsl #26
 1d8:	0000000c 	andeq	r0, r0, ip
 1dc:	ffffffff 			; <UNDEFINED> instruction: 0xffffffff
 1e0:	7c020001 	stcvc	0, cr0, [r2], {1}
 1e4:	000d0c0e 	andeq	r0, sp, lr, lsl #24
 1e8:	0000001c 	andeq	r0, r0, ip, lsl r0
 1ec:	000001d8 	ldrdeq	r0, [r0], -r8
 1f0:	000085c8 	andeq	r8, r0, r8, asr #11
 1f4:	000000c4 	andeq	r0, r0, r4, asr #1
 1f8:	420c0d42 	andmi	r0, ip, #4224	; 0x1080
 1fc:	038d048b 	orreq	r0, sp, #-1962934272	; 0x8b000000
 200:	0c42028e 	sfmeq	f0, 2, [r2], {142}	; 0x8e
 204:	0000040b 	andeq	r0, r0, fp, lsl #8
 208:	00000020 	andeq	r0, r0, r0, lsr #32
 20c:	000001d8 	ldrdeq	r0, [r0], -r8
 210:	0000869c 	muleq	r0, ip, r6
 214:	0000005c 	andeq	r0, r0, ip, asr r0
 218:	420c0d42 	andmi	r0, ip, #4224	; 0x1080
 21c:	05850684 	streq	r0, [r5, #1668]	; 0x684
 220:	038d048b 	orreq	r0, sp, #-1962934272	; 0x8b000000
 224:	0c42028e 	sfmeq	f0, 2, [r2], {142}	; 0x8e
 228:	0000040b 	andeq	r0, r0, fp, lsl #8
 22c:	00000020 	andeq	r0, r0, r0, lsr #32
 230:	000001d8 	ldrdeq	r0, [r0], -r8
 234:	00008708 	andeq	r8, r0, r8, lsl #14
 238:	000000b4 	strheq	r0, [r0], -r4
 23c:	420c0d42 	andmi	r0, ip, #4224	; 0x1080
 240:	05850684 	streq	r0, [r5, #1668]	; 0x684
 244:	038d048b 	orreq	r0, sp, #-1962934272	; 0x8b000000
 248:	0c42028e 	sfmeq	f0, 2, [r2], {142}	; 0x8e
 24c:	0000040b 	andeq	r0, r0, fp, lsl #8
 250:	0000000c 	andeq	r0, r0, ip
 254:	ffffffff 			; <UNDEFINED> instruction: 0xffffffff
 258:	7c020001 	stcvc	0, cr0, [r2], {1}
 25c:	000d0c0e 	andeq	r0, sp, lr, lsl #24
 260:	0000001c 	andeq	r0, r0, ip, lsl r0
 264:	00000250 	andeq	r0, r0, r0, asr r2
 268:	000087c8 	andeq	r8, r0, r8, asr #15
 26c:	00000048 	andeq	r0, r0, r8, asr #32
 270:	420c0d42 	andmi	r0, ip, #4224	; 0x1080
 274:	038d048b 	orreq	r0, sp, #-1962934272	; 0x8b000000
 278:	0c42028e 	sfmeq	f0, 2, [r2], {142}	; 0x8e
 27c:	0000040b 	andeq	r0, r0, fp, lsl #8
 280:	00000020 	andeq	r0, r0, r0, lsr #32
 284:	00000250 	andeq	r0, r0, r0, asr r2
 288:	0000881c 	andeq	r8, r0, ip, lsl r8
 28c:	00000030 	andeq	r0, r0, r0, lsr r0
 290:	420c0d42 	andmi	r0, ip, #4224	; 0x1080
 294:	05850684 	streq	r0, [r5, #1668]	; 0x684
 298:	038d048b 	orreq	r0, sp, #-1962934272	; 0x8b000000
 29c:	0c42028e 	sfmeq	f0, 2, [r2], {142}	; 0x8e
 2a0:	0000040b 	andeq	r0, r0, fp, lsl #8
 2a4:	00000024 	andeq	r0, r0, r4, lsr #32
 2a8:	00000250 	andeq	r0, r0, r0, asr r2
 2ac:	00008858 	andeq	r8, r0, r8, asr r8
 2b0:	00000118 	andeq	r0, r0, r8, lsl r1
 2b4:	420c0d42 	andmi	r0, ip, #4224	; 0x1080
 2b8:	05850684 	streq	r0, [r5, #1668]	; 0x684
 2bc:	038d048b 	orreq	r0, sp, #-1962934272	; 0x8b000000
 2c0:	0c42028e 	sfmeq	f0, 2, [r2], {142}	; 0x8e
 2c4:	7802040b 	stmdavc	r2, {r0, r1, r3, sl}
 2c8:	00180d0c 	andseq	r0, r8, ip, lsl #26
 2cc:	00000020 	andeq	r0, r0, r0, lsr #32
 2d0:	00000250 	andeq	r0, r0, r0, asr r2
 2d4:	00008980 	andeq	r8, r0, r0, lsl #19
 2d8:	000000ac 	andeq	r0, r0, ip, lsr #1
 2dc:	420c0d42 	andmi	r0, ip, #4224	; 0x1080
 2e0:	038d048b 	orreq	r0, sp, #-1962934272	; 0x8b000000
 2e4:	0c42028e 	sfmeq	f0, 2, [r2], {142}	; 0x8e
 2e8:	4402040b 	strmi	r0, [r2], #-1035	; 0xfffffbf5
 2ec:	00100d0c 	andseq	r0, r0, ip, lsl #26
 2f0:	00000028 	andeq	r0, r0, r8, lsr #32
 2f4:	00000250 	andeq	r0, r0, r0, asr r2
 2f8:	00008a3c 	andeq	r8, r0, ip, lsr sl
 2fc:	00000108 	andeq	r0, r0, r8, lsl #2
 300:	420c0d42 	andmi	r0, ip, #4224	; 0x1080
 304:	09850a84 	stmibeq	r5, {r2, r7, r9, fp}
 308:	07870886 	streq	r0, [r7, r6, lsl #17]
 30c:	05890688 	streq	r0, [r9, #1672]	; 0x688
 310:	038d048b 	orreq	r0, sp, #-1962934272	; 0x8b000000
 314:	0c42028e 	sfmeq	f0, 2, [r2], {142}	; 0x8e
 318:	0000040b 	andeq	r0, r0, fp, lsl #8
 31c:	0000002c 	andeq	r0, r0, ip, lsr #32
 320:	00000250 	andeq	r0, r0, r0, asr r2
 324:	00008b54 	andeq	r8, r0, r4, asr fp
 328:	000000f0 	strdeq	r0, [r0], -r0	; <UNPREDICTABLE>
 32c:	420c0d42 	andmi	r0, ip, #4224	; 0x1080
 330:	08850984 	stmeq	r5, {r2, r7, r8, fp}
 334:	06870786 	streq	r0, [r7], r6, lsl #15
 338:	048b0588 	streq	r0, [fp], #1416	; 0x588
 33c:	028e038d 	addeq	r0, lr, #872415234	; 0x34000002
 340:	040b0c42 	streq	r0, [fp], #-3138	; 0xfffff3be
 344:	0d0c6202 	sfmeq	f6, 4, [ip, #-8]
 348:	00000024 	andeq	r0, r0, r4, lsr #32
 34c:	00000028 	andeq	r0, r0, r8, lsr #32
 350:	00000250 	andeq	r0, r0, r0, asr r2
 354:	00008c50 	andeq	r8, r0, r0, asr ip
 358:	000000ac 	andeq	r0, r0, ip, lsr #1
 35c:	420c0d42 	andmi	r0, ip, #4224	; 0x1080
 360:	05850684 	streq	r0, [r5, #1668]	; 0x684
 364:	038d048b 	orreq	r0, sp, #-1962934272	; 0x8b000000
 368:	0c42028e 	sfmeq	f0, 2, [r2], {142}	; 0x8e
 36c:	0a66040b 	beq	19813a0 <__bss_end__+0x1976200>
 370:	42180d0c 	andsmi	r0, r8, #12, 26	; 0x300
 374:	0000000b 	andeq	r0, r0, fp
 378:	0000001c 	andeq	r0, r0, ip, lsl r0
 37c:	00000250 	andeq	r0, r0, r0, asr r2
 380:	00008d10 	andeq	r8, r0, r0, lsl sp
 384:	00000014 	andeq	r0, r0, r4, lsl r0
 388:	420c0d42 	andmi	r0, ip, #4224	; 0x1080
 38c:	038d048b 	orreq	r0, sp, #-1962934272	; 0x8b000000
 390:	0c42028e 	sfmeq	f0, 2, [r2], {142}	; 0x8e
 394:	0000040b 	andeq	r0, r0, fp, lsl #8
 398:	0000001c 	andeq	r0, r0, ip, lsl r0
 39c:	00000250 	andeq	r0, r0, r0, asr r2
 3a0:	00008d38 	andeq	r8, r0, r8, lsr sp
 3a4:	00000050 	andeq	r0, r0, r0, asr r0
 3a8:	420c0d42 	andmi	r0, ip, #4224	; 0x1080
 3ac:	038d048b 	orreq	r0, sp, #-1962934272	; 0x8b000000
 3b0:	0c42028e 	sfmeq	f0, 2, [r2], {142}	; 0x8e
 3b4:	0000040b 	andeq	r0, r0, fp, lsl #8
 3b8:	00000020 	andeq	r0, r0, r0, lsr #32
 3bc:	00000250 	andeq	r0, r0, r0, asr r2
 3c0:	00008da0 	andeq	r8, r0, r0, lsr #27
 3c4:	00000058 	andeq	r0, r0, r8, asr r0
 3c8:	420c0d42 	andmi	r0, ip, #4224	; 0x1080
 3cc:	05850684 	streq	r0, [r5, #1668]	; 0x684
 3d0:	038d048b 	orreq	r0, sp, #-1962934272	; 0x8b000000
 3d4:	0c42028e 	sfmeq	f0, 2, [r2], {142}	; 0x8e
 3d8:	0000040b 	andeq	r0, r0, fp, lsl #8
 3dc:	0000001c 	andeq	r0, r0, ip, lsl r0
 3e0:	00000250 	andeq	r0, r0, r0, asr r2
 3e4:	00008e04 	andeq	r8, r0, r4, lsl #28
 3e8:	00000018 	andeq	r0, r0, r8, lsl r0
 3ec:	420c0d42 	andmi	r0, ip, #4224	; 0x1080
 3f0:	038d048b 	orreq	r0, sp, #-1962934272	; 0x8b000000
 3f4:	0c42028e 	sfmeq	f0, 2, [r2], {142}	; 0x8e
 3f8:	0000040b 	andeq	r0, r0, fp, lsl #8
 3fc:	0000001c 	andeq	r0, r0, ip, lsl r0
 400:	00000250 	andeq	r0, r0, r0, asr r2
 404:	00008e30 	andeq	r8, r0, r0, lsr lr
 408:	00000034 	andeq	r0, r0, r4, lsr r0
 40c:	420c0d42 	andmi	r0, ip, #4224	; 0x1080
 410:	038d048b 	orreq	r0, sp, #-1962934272	; 0x8b000000
 414:	0c42028e 	sfmeq	f0, 2, [r2], {142}	; 0x8e
 418:	0000040b 	andeq	r0, r0, fp, lsl #8
 41c:	0000000c 	andeq	r0, r0, ip
 420:	ffffffff 			; <UNDEFINED> instruction: 0xffffffff
 424:	7c020001 	stcvc	0, cr0, [r2], {1}
 428:	000d0c0e 	andeq	r0, sp, lr, lsl #24
 42c:	0000001c 	andeq	r0, r0, ip, lsl r0
 430:	0000041c 	andeq	r0, r0, ip, lsl r4
 434:	00008e6c 	andeq	r8, r0, ip, ror #28
 438:	00000080 	andeq	r0, r0, r0, lsl #1
 43c:	84180e42 	ldrhi	r0, [r8], #-3650	; 0xfffff1be
 440:	86058506 	strhi	r8, [r5], -r6, lsl #10
 444:	88038704 	stmdahi	r3, {r2, r8, r9, sl, pc}
 448:	00018e02 	andeq	r8, r1, r2, lsl #28
 44c:	0000000c 	andeq	r0, r0, ip
 450:	0000041c 	andeq	r0, r0, ip, lsl r4
 454:	00008eec 	andeq	r8, r0, ip, ror #29
 458:	00000020 	andeq	r0, r0, r0, lsr #32
 45c:	0000000c 	andeq	r0, r0, ip
 460:	ffffffff 			; <UNDEFINED> instruction: 0xffffffff
 464:	7c020001 	stcvc	0, cr0, [r2], {1}
 468:	000d0c0e 	andeq	r0, sp, lr, lsl #24
 46c:	00000014 	andeq	r0, r0, r4, lsl r0
 470:	0000045c 	andeq	r0, r0, ip, asr r4
 474:	00008f0c 	andeq	r8, r0, ip, lsl #30
 478:	00000078 	andeq	r0, r0, r8, ror r0
 47c:	84080e42 	strhi	r0, [r8], #-3650	; 0xfffff1be
 480:	00018e02 	andeq	r8, r1, r2, lsl #28
 484:	0000000c 	andeq	r0, r0, ip
 488:	ffffffff 			; <UNDEFINED> instruction: 0xffffffff
 48c:	7c020001 	stcvc	0, cr0, [r2], {1}
 490:	000d0c0e 	andeq	r0, sp, lr, lsl #24
 494:	00000034 	andeq	r0, r0, r4, lsr r0
 498:	00000484 	andeq	r0, r0, r4, lsl #9
 49c:	00008f84 	andeq	r8, r0, r4, lsl #31
 4a0:	00000058 	andeq	r0, r0, r8, asr r0
 4a4:	80100e42 	andshi	r0, r0, r2, asr #28
 4a8:	82038104 	andhi	r8, r3, #1
 4ac:	42018302 	andmi	r8, r1, #134217728	; 0x8000000
 4b0:	07841c0e 	streq	r1, [r4, lr, lsl #24]
 4b4:	058e0685 	streq	r0, [lr, #1669]	; 0x685
 4b8:	5a280e44 	bpl	a03dd0 <__bss_end__+0x9f8c30>
 4bc:	ce421c0e 	cdpgt	12, 4, cr1, cr2, cr14, {0}
 4c0:	100ec4c5 	andne	ip, lr, r5, asr #9
 4c4:	c1c2c342 	bicgt	ip, r2, r2, asr #6
 4c8:	00000ec0 	andeq	r0, r0, r0, asr #29
 4cc:	0000000c 	andeq	r0, r0, ip
 4d0:	ffffffff 			; <UNDEFINED> instruction: 0xffffffff
 4d4:	7c020001 	stcvc	0, cr0, [r2], {1}
 4d8:	000d0c0e 	andeq	r0, sp, lr, lsl #24
 4dc:	00000018 	andeq	r0, r0, r8, lsl r0
 4e0:	000004cc 	andeq	r0, r0, ip, asr #9
 4e4:	00008fdc 	ldrdeq	r8, [r0], -ip
 4e8:	00000038 	andeq	r0, r0, r8, lsr r0
 4ec:	84100e42 	ldrhi	r0, [r0], #-3650	; 0xfffff1be
 4f0:	86038504 	strhi	r8, [r3], -r4, lsl #10
 4f4:	00018e02 	andeq	r8, r1, r2, lsl #28
 4f8:	0000000c 	andeq	r0, r0, ip
 4fc:	ffffffff 			; <UNDEFINED> instruction: 0xffffffff
 500:	7c020001 	stcvc	0, cr0, [r2], {1}
 504:	000d0c0e 	andeq	r0, sp, lr, lsl #24
 508:	0000002c 	andeq	r0, r0, ip, lsr #32
 50c:	000004f8 	strdeq	r0, [r0], -r8
 510:	00009014 	andeq	r9, r0, r4, lsl r0
 514:	00000328 	andeq	r0, r0, r8, lsr #6
 518:	84180e42 	ldrhi	r0, [r8], #-3650	; 0xfffff1be
 51c:	86058506 	strhi	r8, [r5], -r6, lsl #10
 520:	88038704 	stmdahi	r3, {r2, r8, r9, sl, pc}
 524:	46018e02 	strmi	r8, [r1], -r2, lsl #28
 528:	c002600e 	andgt	r6, r2, lr
 52c:	42180e0a 	andsmi	r0, r8, #160	; 0xa0
 530:	0a8e020b 	beq	fe380d64 <__bss_end__+0xfe375bc4>
 534:	0b42180e 	bleq	1086574 <__bss_end__+0x107b3d4>
 538:	00000014 	andeq	r0, r0, r4, lsl r0
 53c:	000004f8 	strdeq	r0, [r0], -r8
 540:	0000933c 	andeq	r9, r0, ip, lsr r3
 544:	00000060 	andeq	r0, r0, r0, rrx
 548:	8e040e52 	mcrhi	14, 0, r0, cr4, cr2, {2}
 54c:	100e4401 	andne	r4, lr, r1, lsl #8
 550:	0000002c 	andeq	r0, r0, ip, lsr #32
 554:	000004f8 	strdeq	r0, [r0], -r8
 558:	0000939c 	muleq	r0, ip, r3
 55c:	0000062c 	andeq	r0, r0, ip, lsr #12
 560:	84240e42 	strthi	r0, [r4], #-3650	; 0xfffff1be
 564:	86088509 	strhi	r8, [r8], -r9, lsl #10
 568:	88068707 	stmdahi	r6, {r0, r1, r2, r8, r9, sl, pc}
 56c:	8a048905 	bhi	122988 <__bss_end__+0x1177e8>
 570:	8e028b03 	vmlahi.f64	d8, d2, d3
 574:	c00e5201 	andgt	r5, lr, r1, lsl #4
 578:	0a860202 	beq	fe180d88 <__bss_end__+0xfe175be8>
 57c:	0b42240e 	bleq	10895bc <__bss_end__+0x107e41c>
 580:	0000000c 	andeq	r0, r0, ip
 584:	ffffffff 			; <UNDEFINED> instruction: 0xffffffff
 588:	7c020001 	stcvc	0, cr0, [r2], {1}
 58c:	000d0c0e 	andeq	r0, sp, lr, lsl #24
 590:	00000014 	andeq	r0, r0, r4, lsl r0
 594:	00000580 	andeq	r0, r0, r0, lsl #11
 598:	000099c8 	andeq	r9, r0, r8, asr #19
 59c:	0000002c 	andeq	r0, r0, ip, lsr #32
 5a0:	84080e44 	strhi	r0, [r8], #-3652	; 0xfffff1bc
 5a4:	00018e02 	andeq	r8, r1, r2, lsl #28
 5a8:	0000000c 	andeq	r0, r0, ip
 5ac:	ffffffff 			; <UNDEFINED> instruction: 0xffffffff
 5b0:	7c020001 	stcvc	0, cr0, [r2], {1}
 5b4:	000d0c0e 	andeq	r0, sp, lr, lsl #24
 5b8:	00000018 	andeq	r0, r0, r8, lsl r0
 5bc:	000005a8 	andeq	r0, r0, r8, lsr #11
 5c0:	000099f4 	strdeq	r9, [r0], -r4
 5c4:	00000128 	andeq	r0, r0, r8, lsr #2
 5c8:	84100e42 	ldrhi	r0, [r0], #-3650	; 0xfffff1be
 5cc:	86038504 	strhi	r8, [r3], -r4, lsl #10
 5d0:	00018e02 	andeq	r8, r1, r2, lsl #28
 5d4:	0000000c 	andeq	r0, r0, ip
 5d8:	ffffffff 			; <UNDEFINED> instruction: 0xffffffff
 5dc:	7c020001 	stcvc	0, cr0, [r2], {1}
 5e0:	000d0c0e 	andeq	r0, sp, lr, lsl #24
 5e4:	0000000c 	andeq	r0, r0, ip
 5e8:	000005d4 	ldrdeq	r0, [r0], -r4
 5ec:	00009b1c 	andeq	r9, r0, ip, lsl fp
 5f0:	00000004 	andeq	r0, r0, r4
 5f4:	0000000c 	andeq	r0, r0, ip
 5f8:	ffffffff 			; <UNDEFINED> instruction: 0xffffffff
 5fc:	7c020001 	stcvc	0, cr0, [r2], {1}
 600:	000d0c0e 	andeq	r0, sp, lr, lsl #24
 604:	0000000c 	andeq	r0, r0, ip
 608:	000005f4 	strdeq	r0, [r0], -r4
 60c:	00009b20 	andeq	r9, r0, r0, lsr #22
 610:	00000018 	andeq	r0, r0, r8, lsl r0
 614:	0000000c 	andeq	r0, r0, ip
 618:	000005f4 	strdeq	r0, [r0], -r4
 61c:	00009b38 	andeq	r9, r0, r8, lsr fp
 620:	00000014 	andeq	r0, r0, r4, lsl r0
 624:	00000014 	andeq	r0, r0, r4, lsl r0
 628:	000005f4 	strdeq	r0, [r0], -r4
 62c:	00009b4c 	andeq	r9, r0, ip, asr #22
 630:	00000060 	andeq	r0, r0, r0, rrx
 634:	84080e42 	strhi	r0, [r8], #-3650	; 0xfffff1be
 638:	00018e02 	andeq	r8, r1, r2, lsl #28
 63c:	0000000c 	andeq	r0, r0, ip
 640:	ffffffff 			; <UNDEFINED> instruction: 0xffffffff
 644:	7c020001 	stcvc	0, cr0, [r2], {1}
 648:	000d0c0e 	andeq	r0, sp, lr, lsl #24
 64c:	0000000c 	andeq	r0, r0, ip
 650:	0000063c 	andeq	r0, r0, ip, lsr r6
 654:	00009bac 	andeq	r9, r0, ip, lsr #23
 658:	0000000c 	andeq	r0, r0, ip
 65c:	00000014 	andeq	r0, r0, r4, lsl r0
 660:	0000063c 	andeq	r0, r0, ip, lsr r6
 664:	00009bb8 			; <UNDEFINED> instruction: 0x00009bb8
 668:	00000024 	andeq	r0, r0, r4, lsr #32
 66c:	84080e42 	strhi	r0, [r8], #-3650	; 0xfffff1be
 670:	00018e02 	andeq	r8, r1, r2, lsl #28
 674:	0000001c 	andeq	r0, r0, ip, lsl r0
 678:	0000063c 	andeq	r0, r0, ip, lsr r6
 67c:	00009bdc 	ldrdeq	r9, [r0], -ip
 680:	00000048 	andeq	r0, r0, r8, asr #32
 684:	84180e42 	ldrhi	r0, [r8], #-3650	; 0xfffff1be
 688:	86058506 	strhi	r8, [r5], -r6, lsl #10
 68c:	88038704 	stmdahi	r3, {r2, r8, r9, sl, pc}
 690:	00018e02 	andeq	r8, r1, r2, lsl #28
 694:	0000001c 	andeq	r0, r0, ip, lsl r0
 698:	0000063c 	andeq	r0, r0, ip, lsr r6
 69c:	00009c24 	andeq	r9, r0, r4, lsr #24
 6a0:	00000050 	andeq	r0, r0, r0, asr r0
 6a4:	84180e42 	ldrhi	r0, [r8], #-3650	; 0xfffff1be
 6a8:	86058506 	strhi	r8, [r5], -r6, lsl #10
 6ac:	88038704 	stmdahi	r3, {r2, r8, r9, sl, pc}
 6b0:	00018e02 	andeq	r8, r1, r2, lsl #28
 6b4:	0000001c 	andeq	r0, r0, ip, lsl r0
 6b8:	0000063c 	andeq	r0, r0, ip, lsr r6
 6bc:	00009c74 	andeq	r9, r0, r4, ror ip
 6c0:	00000054 	andeq	r0, r0, r4, asr r0
 6c4:	84180e42 	ldrhi	r0, [r8], #-3650	; 0xfffff1be
 6c8:	86058506 	strhi	r8, [r5], -r6, lsl #10
 6cc:	88038704 	stmdahi	r3, {r2, r8, r9, sl, pc}
 6d0:	00018e02 	andeq	r8, r1, r2, lsl #28
 6d4:	0000000c 	andeq	r0, r0, ip
 6d8:	ffffffff 			; <UNDEFINED> instruction: 0xffffffff
 6dc:	7c020001 	stcvc	0, cr0, [r2], {1}
 6e0:	000d0c0e 	andeq	r0, sp, lr, lsl #24
 6e4:	00000018 	andeq	r0, r0, r8, lsl r0
 6e8:	000006d4 	ldrdeq	r0, [r0], -r4
 6ec:	00009cc8 	andeq	r9, r0, r8, asr #25
 6f0:	00000020 	andeq	r0, r0, r0, lsr #32
 6f4:	84100e42 	ldrhi	r0, [r0], #-3650	; 0xfffff1be
 6f8:	86038504 	strhi	r8, [r3], -r4, lsl #10
 6fc:	00018e02 	andeq	r8, r1, r2, lsl #28
 700:	00000018 	andeq	r0, r0, r8, lsl r0
 704:	000006d4 	ldrdeq	r0, [r0], -r4
 708:	00009ce8 	andeq	r9, r0, r8, ror #25
 70c:	00000020 	andeq	r0, r0, r0, lsr #32
 710:	84100e42 	ldrhi	r0, [r0], #-3650	; 0xfffff1be
 714:	86038504 	strhi	r8, [r3], -r4, lsl #10
 718:	00018e02 	andeq	r8, r1, r2, lsl #28
 71c:	00000014 	andeq	r0, r0, r4, lsl r0
 720:	000006d4 	ldrdeq	r0, [r0], -r4
 724:	00009d08 	andeq	r9, r0, r8, lsl #26
 728:	000000b0 	strheq	r0, [r0], -r0	; <UNPREDICTABLE>
 72c:	84080e42 	strhi	r0, [r8], #-3650	; 0xfffff1be
 730:	00018e02 	andeq	r8, r1, r2, lsl #28
 734:	00000014 	andeq	r0, r0, r4, lsl r0
 738:	000006d4 	ldrdeq	r0, [r0], -r4
 73c:	00009db8 			; <UNDEFINED> instruction: 0x00009db8
 740:	00000018 	andeq	r0, r0, r8, lsl r0
 744:	84080e42 	strhi	r0, [r8], #-3650	; 0xfffff1be
 748:	00018e02 	andeq	r8, r1, r2, lsl #28
 74c:	00000014 	andeq	r0, r0, r4, lsl r0
 750:	000006d4 	ldrdeq	r0, [r0], -r4
 754:	00009dd0 	ldrdeq	r9, [r0], -r0
 758:	00000020 	andeq	r0, r0, r0, lsr #32
 75c:	84080e42 	strhi	r0, [r8], #-3650	; 0xfffff1be
 760:	00018e02 	andeq	r8, r1, r2, lsl #28
 764:	00000014 	andeq	r0, r0, r4, lsl r0
 768:	000006d4 	ldrdeq	r0, [r0], -r4
 76c:	00009df0 	strdeq	r9, [r0], -r0
 770:	00000030 	andeq	r0, r0, r0, lsr r0
 774:	84080e42 	strhi	r0, [r8], #-3650	; 0xfffff1be
 778:	00018e02 	andeq	r8, r1, r2, lsl #28
 77c:	00000014 	andeq	r0, r0, r4, lsl r0
 780:	000006d4 	ldrdeq	r0, [r0], -r4
 784:	00009e20 	andeq	r9, r0, r0, lsr #28
 788:	00000030 	andeq	r0, r0, r0, lsr r0
 78c:	84080e42 	strhi	r0, [r8], #-3650	; 0xfffff1be
 790:	00018e02 	andeq	r8, r1, r2, lsl #28
 794:	00000014 	andeq	r0, r0, r4, lsl r0
 798:	000006d4 	ldrdeq	r0, [r0], -r4
 79c:	00009e50 	andeq	r9, r0, r0, asr lr
 7a0:	00000010 	andeq	r0, r0, r0, lsl r0
 7a4:	84080e42 	strhi	r0, [r8], #-3650	; 0xfffff1be
 7a8:	00018e02 	andeq	r8, r1, r2, lsl #28
 7ac:	00000014 	andeq	r0, r0, r4, lsl r0
 7b0:	000006d4 	ldrdeq	r0, [r0], -r4
 7b4:	00009e60 	andeq	r9, r0, r0, ror #28
 7b8:	00000020 	andeq	r0, r0, r0, lsr #32
 7bc:	84080e42 	strhi	r0, [r8], #-3650	; 0xfffff1be
 7c0:	00018e02 	andeq	r8, r1, r2, lsl #28
 7c4:	00000014 	andeq	r0, r0, r4, lsl r0
 7c8:	000006d4 	ldrdeq	r0, [r0], -r4
 7cc:	00009e80 	andeq	r9, r0, r0, lsl #29
 7d0:	00000014 	andeq	r0, r0, r4, lsl r0
 7d4:	84080e42 	strhi	r0, [r8], #-3650	; 0xfffff1be
 7d8:	00018e02 	andeq	r8, r1, r2, lsl #28
 7dc:	00000014 	andeq	r0, r0, r4, lsl r0
 7e0:	000006d4 	ldrdeq	r0, [r0], -r4
 7e4:	00009e94 	muleq	r0, r4, lr
 7e8:	00000024 	andeq	r0, r0, r4, lsr #32
 7ec:	84080e42 	strhi	r0, [r8], #-3650	; 0xfffff1be
 7f0:	00018e02 	andeq	r8, r1, r2, lsl #28
 7f4:	0000000c 	andeq	r0, r0, ip
 7f8:	ffffffff 			; <UNDEFINED> instruction: 0xffffffff
 7fc:	7c020001 	stcvc	0, cr0, [r2], {1}
 800:	000d0c0e 	andeq	r0, sp, lr, lsl #24
 804:	0000000c 	andeq	r0, r0, ip
 808:	000007f4 	strdeq	r0, [r0], -r4
 80c:	00009eb8 			; <UNDEFINED> instruction: 0x00009eb8
 810:	00000010 	andeq	r0, r0, r0, lsl r0
 814:	0000000c 	andeq	r0, r0, ip
 818:	000007f4 	strdeq	r0, [r0], -r4
 81c:	00009ec8 	andeq	r9, r0, r8, asr #29
 820:	00000010 	andeq	r0, r0, r0, lsl r0
 824:	0000000c 	andeq	r0, r0, ip
 828:	000007f4 	strdeq	r0, [r0], -r4
 82c:	00009ed8 	ldrdeq	r9, [r0], -r8
 830:	00000010 	andeq	r0, r0, r0, lsl r0
 834:	0000001c 	andeq	r0, r0, ip, lsl r0
 838:	000007f4 	strdeq	r0, [r0], -r4
 83c:	00009ee8 	andeq	r9, r0, r8, ror #29
 840:	0000009c 	muleq	r0, ip, r0
 844:	8e040e42 	cdphi	14, 0, cr0, cr4, cr2, {2}
 848:	100e4201 	andne	r4, lr, r1, lsl #4
 84c:	040e0a58 	streq	r0, [lr], #-2648	; 0xfffff5a8
 850:	00000b42 	andeq	r0, r0, r2, asr #22
 854:	00000014 	andeq	r0, r0, r4, lsl r0
 858:	000007f4 	strdeq	r0, [r0], -r4
 85c:	00009f84 	andeq	r9, r0, r4, lsl #31
 860:	00000058 	andeq	r0, r0, r8, asr r0
 864:	84080e42 	strhi	r0, [r8], #-3650	; 0xfffff1be
 868:	00018e02 	andeq	r8, r1, r2, lsl #28
 86c:	0000001c 	andeq	r0, r0, ip, lsl r0
 870:	000007f4 	strdeq	r0, [r0], -r4
 874:	00009fdc 	ldrdeq	r9, [r0], -ip
 878:	00000098 	muleq	r0, r8, r0
 87c:	8e040e42 	cdphi	14, 0, cr0, cr4, cr2, {2}
 880:	100e4201 	andne	r4, lr, r1, lsl #4
 884:	040e0a58 	streq	r0, [lr], #-2648	; 0xfffff5a8
 888:	00000b42 	andeq	r0, r0, r2, asr #22
 88c:	00000020 	andeq	r0, r0, r0, lsr #32
 890:	000007f4 	strdeq	r0, [r0], -r4
 894:	0000a074 	andeq	sl, r0, r4, ror r0
 898:	00000064 	andeq	r0, r0, r4, rrx
 89c:	840c0e42 	strhi	r0, [ip], #-3650	; 0xfffff1be
 8a0:	8e028503 	cfsh32hi	mvfx8, mvfx2, #3
 8a4:	180e4201 	stmdane	lr, {r0, r9, lr}
 8a8:	0c0e0a54 			; <UNDEFINED> instruction: 0x0c0e0a54
 8ac:	00000b42 	andeq	r0, r0, r2, asr #22
 8b0:	0000001c 	andeq	r0, r0, ip, lsl r0
 8b4:	000007f4 	strdeq	r0, [r0], -r4
 8b8:	0000a0d8 	ldrdeq	sl, [r0], -r8
 8bc:	00000118 	andeq	r0, r0, r8, lsl r1
 8c0:	8e040e42 	cdphi	14, 0, cr0, cr4, cr2, {2}
 8c4:	100e4201 	andne	r4, lr, r1, lsl #4
 8c8:	040e0a6c 	streq	r0, [lr], #-2668	; 0xfffff594
 8cc:	00000b42 	andeq	r0, r0, r2, asr #22
 8d0:	0000000c 	andeq	r0, r0, ip
 8d4:	000007f4 	strdeq	r0, [r0], -r4
 8d8:	0000a1f0 	strdeq	sl, [r0], -r0
 8dc:	00000004 	andeq	r0, r0, r4
 8e0:	0000000c 	andeq	r0, r0, ip
 8e4:	000007f4 	strdeq	r0, [r0], -r4
 8e8:	0000a1f4 	strdeq	sl, [r0], -r4
 8ec:	00000014 	andeq	r0, r0, r4, lsl r0
 8f0:	00000014 	andeq	r0, r0, r4, lsl r0
 8f4:	000007f4 	strdeq	r0, [r0], -r4
 8f8:	0000a208 	andeq	sl, r0, r8, lsl #4
 8fc:	00000060 	andeq	r0, r0, r0, rrx
 900:	8e040e58 	mcrhi	14, 0, r0, cr4, cr8, {2}
 904:	100e4201 	andne	r4, lr, r1, lsl #4
 908:	0000000c 	andeq	r0, r0, ip
 90c:	ffffffff 			; <UNDEFINED> instruction: 0xffffffff
 910:	7c020001 	stcvc	0, cr0, [r2], {1}
 914:	000d0c0e 	andeq	r0, sp, lr, lsl #24
 918:	00000020 	andeq	r0, r0, r0, lsr #32
 91c:	00000908 	andeq	r0, r0, r8, lsl #18
 920:	0000a268 	andeq	sl, r0, r8, ror #4
 924:	00000060 	andeq	r0, r0, r0, rrx
 928:	84100e48 	ldrhi	r0, [r0], #-3656	; 0xfffff1b8
 92c:	86038504 	strhi	r8, [r3], -r4, lsl #10
 930:	64018e02 	strvs	r8, [r1], #-3586	; 0xfffff1fe
 934:	c4c5c6ce 	strbgt	ip, [r5], #1742	; 0x6ce
 938:	0000000e 	andeq	r0, r0, lr
 93c:	00000020 	andeq	r0, r0, r0, lsr #32
 940:	00000908 	andeq	r0, r0, r8, lsl #18
 944:	0000a2c8 	andeq	sl, r0, r8, asr #5
 948:	00000058 	andeq	r0, r0, r8, asr r0
 94c:	84100e46 	ldrhi	r0, [r0], #-3654	; 0xfffff1ba
 950:	86038504 	strhi	r8, [r3], -r4, lsl #10
 954:	62018e02 	andvs	r8, r1, #2, 28
 958:	c4c5c6ce 	strbgt	ip, [r5], #1742	; 0x6ce
 95c:	0000000e 	andeq	r0, r0, lr
 960:	0000000c 	andeq	r0, r0, ip
 964:	00000908 	andeq	r0, r0, r8, lsl #18
 968:	0000a320 	andeq	sl, r0, r0, lsr #6
 96c:	00000018 	andeq	r0, r0, r8, lsl r0
 970:	0000000c 	andeq	r0, r0, ip
 974:	00000908 	andeq	r0, r0, r8, lsl #18
 978:	0000a338 	andeq	sl, r0, r8, lsr r3
 97c:	00000018 	andeq	r0, r0, r8, lsl r0
 980:	00000020 	andeq	r0, r0, r0, lsr #32
 984:	00000908 	andeq	r0, r0, r8, lsl #18
 988:	0000a350 	andeq	sl, r0, r0, asr r3
 98c:	00000058 	andeq	r0, r0, r8, asr r0
 990:	84100e46 	ldrhi	r0, [r0], #-3654	; 0xfffff1ba
 994:	86038504 	strhi	r8, [r3], -r4, lsl #10
 998:	62018e02 	andvs	r8, r1, #2, 28
 99c:	c4c5c6ce 	strbgt	ip, [r5], #1742	; 0x6ce
 9a0:	0000000e 	andeq	r0, r0, lr
 9a4:	0000000c 	andeq	r0, r0, ip
 9a8:	00000908 	andeq	r0, r0, r8, lsl #18
 9ac:	0000a3a8 	andeq	sl, r0, r8, lsr #7
 9b0:	00000030 	andeq	r0, r0, r0, lsr r0
 9b4:	00000014 	andeq	r0, r0, r4, lsl r0
 9b8:	00000908 	andeq	r0, r0, r8, lsl #18
 9bc:	0000a3d8 	ldrdeq	sl, [r0], -r8
 9c0:	00000028 	andeq	r0, r0, r8, lsr #32
 9c4:	84080e42 	strhi	r0, [r8], #-3650	; 0xfffff1be
 9c8:	00018e02 	andeq	r8, r1, r2, lsl #28
 9cc:	0000000c 	andeq	r0, r0, ip
 9d0:	ffffffff 			; <UNDEFINED> instruction: 0xffffffff
 9d4:	7c020001 	stcvc	0, cr0, [r2], {1}
 9d8:	000d0c0e 	andeq	r0, sp, lr, lsl #24
 9dc:	00000014 	andeq	r0, r0, r4, lsl r0
 9e0:	000009cc 	andeq	r0, r0, ip, asr #19
 9e4:	0000a400 	andeq	sl, r0, r0, lsl #8
 9e8:	00000014 	andeq	r0, r0, r4, lsl r0
 9ec:	84080e42 	strhi	r0, [r8], #-3650	; 0xfffff1be
 9f0:	00018e02 	andeq	r8, r1, r2, lsl #28
 9f4:	0000000c 	andeq	r0, r0, ip
 9f8:	000009cc 	andeq	r0, r0, ip, asr #19
 9fc:	0000a414 	andeq	sl, r0, r4, lsl r4
 a00:	00000018 	andeq	r0, r0, r8, lsl r0
 a04:	0000000c 	andeq	r0, r0, ip
 a08:	000009cc 	andeq	r0, r0, ip, asr #19
 a0c:	0000a42c 	andeq	sl, r0, ip, lsr #8
 a10:	00000010 	andeq	r0, r0, r0, lsl r0
 a14:	0000000c 	andeq	r0, r0, ip
 a18:	ffffffff 			; <UNDEFINED> instruction: 0xffffffff
 a1c:	7c020001 	stcvc	0, cr0, [r2], {1}
 a20:	000d0c0e 	andeq	r0, sp, lr, lsl #24
 a24:	0000000c 	andeq	r0, r0, ip
 a28:	00000a14 	andeq	r0, r0, r4, lsl sl
 a2c:	0000a43c 	andeq	sl, r0, ip, lsr r4
 a30:	0000002c 	andeq	r0, r0, ip, lsr #32
 a34:	0000000c 	andeq	r0, r0, ip
 a38:	ffffffff 			; <UNDEFINED> instruction: 0xffffffff
 a3c:	7c020001 	stcvc	0, cr0, [r2], {1}
 a40:	000d0c0e 	andeq	r0, sp, lr, lsl #24
 a44:	0000000c 	andeq	r0, r0, ip
 a48:	00000a34 	andeq	r0, r0, r4, lsr sl
 a4c:	0000a468 	andeq	sl, r0, r8, ror #8
 a50:	00000044 	andeq	r0, r0, r4, asr #32
 a54:	0000000c 	andeq	r0, r0, ip
 a58:	ffffffff 			; <UNDEFINED> instruction: 0xffffffff
 a5c:	7c020001 	stcvc	0, cr0, [r2], {1}
 a60:	000d0c0e 	andeq	r0, sp, lr, lsl #24
 a64:	0000000c 	andeq	r0, r0, ip
 a68:	00000a54 	andeq	r0, r0, r4, asr sl
 a6c:	0000a4ac 	andeq	sl, r0, ip, lsr #9
 a70:	00000018 	andeq	r0, r0, r8, lsl r0
 a74:	0000000c 	andeq	r0, r0, ip
 a78:	ffffffff 			; <UNDEFINED> instruction: 0xffffffff
 a7c:	7c020001 	stcvc	0, cr0, [r2], {1}
 a80:	000d0c0e 	andeq	r0, sp, lr, lsl #24
 a84:	0000000c 	andeq	r0, r0, ip
 a88:	00000a74 	andeq	r0, r0, r4, ror sl
 a8c:	0000a4c4 	andeq	sl, r0, r4, asr #9
 a90:	00000030 	andeq	r0, r0, r0, lsr r0
 a94:	0000000c 	andeq	r0, r0, ip
 a98:	ffffffff 			; <UNDEFINED> instruction: 0xffffffff
 a9c:	7c020001 	stcvc	0, cr0, [r2], {1}
 aa0:	000d0c0e 	andeq	r0, sp, lr, lsl #24
 aa4:	0000000c 	andeq	r0, r0, ip
 aa8:	00000a94 	muleq	r0, r4, sl
 aac:	0000a4f4 	strdeq	sl, [r0], -r4
 ab0:	00000004 	andeq	r0, r0, r4
