
tests-2.0/part2-test6-no-leak.elf:     file format elf32-littlearm


Disassembly of section .text:

00008000 <__code_start__>:
    8000:	e3a00013 	mov	r0, #19, 0
    8004:	e3800080 	orr	r0, r0, #128, 0	; 0x80
    8008:	e129f000 	msr	CPSR_fc, r0
    800c:	e3a01000 	mov	r1, #0, 0
    8010:	ee071f95 	mcr	15, 0, r1, cr7, cr5, {4}
    8014:	e3a0d302 	mov	sp, #134217728	; 0x8000000
    8018:	e3a0b000 	mov	fp, #0, 0
    801c:	eb000573 	bl	95f0 <_cstart>
    8020:	eb0005bc 	bl	9718 <rpi_reboot>

00008024 <PUT32>:
    8024:	e5801000 	str	r1, [r0]
    8028:	e12fff1e 	bx	lr

0000802c <GET32>:
    802c:	e5900000 	ldr	r0, [r0]
    8030:	e12fff1e 	bx	lr

00008034 <BRANCHTO>:
    8034:	e12fff10 	bx	r0

00008038 <test1>:
    8038:	e92d4010 	push	{r4, lr}
    803c:	e24dd010 	sub	sp, sp, #16, 0
    8040:	e59f3040 	ldr	r3, [pc, #64]	; 8088 <test1+0x50>
    8044:	e58d3004 	str	r3, [sp, #4]
    8048:	e59f303c 	ldr	r3, [pc, #60]	; 808c <test1+0x54>
    804c:	e58d3008 	str	r3, [sp, #8]
    8050:	e3a0300c 	mov	r3, #12, 0
    8054:	e58d300c 	str	r3, [sp, #12]
    8058:	e28d3010 	add	r3, sp, #16, 0
    805c:	e913000e 	ldmdb	r3, {r1, r2, r3}
    8060:	e3a00004 	mov	r0, #4, 0
    8064:	eb0000b3 	bl	8338 <ckalloc>
    8068:	e1a04000 	mov	r4, r0
    806c:	e1a02000 	mov	r2, r0
    8070:	e510109c 	ldr	r1, [r0, #-156]	; 0xffffff64
    8074:	e59f0014 	ldr	r0, [pc, #20]	; 8090 <test1+0x58>
    8078:	eb0002c0 	bl	8b80 <printk>
    807c:	e2840001 	add	r0, r4, #1, 0
    8080:	e28dd010 	add	sp, sp, #16, 0
    8084:	e8bd8010 	pop	{r4, pc}
    8088:	0000a0e0 	andeq	sl, r0, r0, ror #1
    808c:	0000a1e0 	andeq	sl, r0, r0, ror #3
    8090:	0000a100 	andeq	sl, r0, r0, lsl #2

00008094 <notmain>:
    8094:	e92d4010 	push	{r4, lr}
    8098:	e24dd008 	sub	sp, sp, #8, 0
    809c:	e59f0078 	ldr	r0, [pc, #120]	; 811c <notmain+0x88>
    80a0:	eb0002b6 	bl	8b80 <printk>
    80a4:	ebffffe3 	bl	8038 <test1>
    80a8:	e1a04000 	mov	r4, r0
    80ac:	e1a01000 	mov	r1, r0
    80b0:	e59f0068 	ldr	r0, [pc, #104]	; 8120 <notmain+0x8c>
    80b4:	eb0002b1 	bl	8b80 <printk>
    80b8:	e3a00000 	mov	r0, #0, 0
    80bc:	eb000220 	bl	8944 <ck_find_leaks>
    80c0:	e3500000 	cmp	r0, #0, 0
    80c4:	1a000007 	bne	80e8 <notmain+0x54>
    80c8:	e3a00001 	mov	r0, #1, 0
    80cc:	eb00021c 	bl	8944 <ck_find_leaks>
    80d0:	e3500000 	cmp	r0, #0, 0
    80d4:	0a000009 	beq	8100 <notmain+0x6c>
    80d8:	e59f0044 	ldr	r0, [pc, #68]	; 8124 <notmain+0x90>
    80dc:	eb0002a7 	bl	8b80 <printk>
    80e0:	e28dd008 	add	sp, sp, #8, 0
    80e4:	e8bd8010 	pop	{r4, pc}
    80e8:	e3a0301b 	mov	r3, #27, 0
    80ec:	e59f2034 	ldr	r2, [pc, #52]	; 8128 <notmain+0x94>
    80f0:	e59f1034 	ldr	r1, [pc, #52]	; 812c <notmain+0x98>
    80f4:	e59f0034 	ldr	r0, [pc, #52]	; 8130 <notmain+0x9c>
    80f8:	eb0002a0 	bl	8b80 <printk>
    80fc:	eb000530 	bl	95c4 <clean_reboot>
    8100:	e58d4000 	str	r4, [sp]
    8104:	e3a03020 	mov	r3, #32, 0
    8108:	e59f2018 	ldr	r2, [pc, #24]	; 8128 <notmain+0x94>
    810c:	e59f1018 	ldr	r1, [pc, #24]	; 812c <notmain+0x98>
    8110:	e59f001c 	ldr	r0, [pc, #28]	; 8134 <notmain+0xa0>
    8114:	eb000299 	bl	8b80 <printk>
    8118:	eb000529 	bl	95c4 <clean_reboot>
    811c:	0000a128 	andeq	sl, r0, r8, lsr #2
    8120:	0000a134 	andeq	sl, r0, r4, lsr r1
    8124:	0000a180 	andeq	sl, r0, r0, lsl #3
    8128:	0000a1e8 	andeq	sl, r0, r8, ror #3
    812c:	0000a0e0 	andeq	sl, r0, r0, ror #1
    8130:	0000a150 	andeq	sl, r0, r0, asr r1
    8134:	0000a1a8 	andeq	sl, r0, r8, lsr #3

00008138 <ck_first_hdr>:
    8138:	e59f3004 	ldr	r3, [pc, #4]	; 8144 <ck_first_hdr+0xc>
    813c:	e5930000 	ldr	r0, [r3]
    8140:	e12fff1e 	bx	lr
    8144:	0000aa00 	andeq	sl, r0, r0, lsl #20

00008148 <ck_next_hdr>:
    8148:	e3500000 	cmp	r0, #0, 0
    814c:	15900000 	ldrne	r0, [r0]
    8150:	e12fff1e 	bx	lr

00008154 <ck_hdr_start>:
    8154:	e28000a8 	add	r0, r0, #168, 0	; 0xa8
    8158:	e12fff1e 	bx	lr

0000815c <ck_hdr_end>:
    815c:	e5903004 	ldr	r3, [r0, #4]
    8160:	e28330a8 	add	r3, r3, #168, 0	; 0xa8
    8164:	e0800003 	add	r0, r0, r3
    8168:	e12fff1e 	bx	lr

0000816c <ck_ptr_in_block>:
    816c:	e5902004 	ldr	r2, [r0, #4]
    8170:	e28220a8 	add	r2, r2, #168, 0	; 0xa8
    8174:	e0802002 	add	r2, r0, r2
    8178:	e28000a8 	add	r0, r0, #168, 0	; 0xa8
    817c:	e1500001 	cmp	r0, r1
    8180:	91510002 	cmpls	r1, r2
    8184:	33a00001 	movcc	r0, #1, 0
    8188:	23a00000 	movcs	r0, #0, 0
    818c:	e12fff1e 	bx	lr

00008190 <ck_ptr_is_alloced>:
    8190:	e92d4070 	push	{r4, r5, r6, lr}
    8194:	e1a05000 	mov	r5, r0
    8198:	e59f3044 	ldr	r3, [pc, #68]	; 81e4 <ck_ptr_is_alloced+0x54>
    819c:	e5934000 	ldr	r4, [r3]
    81a0:	e3540000 	cmp	r4, #0, 0
    81a4:	0a00000c 	beq	81dc <ck_ptr_is_alloced+0x4c>
    81a8:	e1a01005 	mov	r1, r5
    81ac:	e1a00004 	mov	r0, r4
    81b0:	ebffffed 	bl	816c <ck_ptr_in_block>
    81b4:	e3500000 	cmp	r0, #0, 0
    81b8:	1a000003 	bne	81cc <ck_ptr_is_alloced+0x3c>
    81bc:	e5944000 	ldr	r4, [r4]
    81c0:	e3540000 	cmp	r4, #0, 0
    81c4:	1afffff7 	bne	81a8 <ck_ptr_is_alloced+0x18>
    81c8:	ea000003 	b	81dc <ck_ptr_is_alloced+0x4c>
    81cc:	e1a02004 	mov	r2, r4
    81d0:	e1a01005 	mov	r1, r5
    81d4:	e59f000c 	ldr	r0, [pc, #12]	; 81e8 <ck_ptr_is_alloced+0x58>
    81d8:	eb000268 	bl	8b80 <printk>
    81dc:	e1a00004 	mov	r0, r4
    81e0:	e8bd8070 	pop	{r4, r5, r6, pc}
    81e4:	0000aa00 	andeq	sl, r0, r0, lsl #20
    81e8:	0000a1f0 	strdeq	sl, [r0], -r0

000081ec <ckfree>:
    81ec:	e92d41f0 	push	{r4, r5, r6, r7, r8, lr}
    81f0:	e24dd018 	sub	sp, sp, #24, 0
    81f4:	e1a04000 	mov	r4, r0
    81f8:	e28d0018 	add	r0, sp, #24, 0
    81fc:	e900000e 	stmdb	r0, {r1, r2, r3}
    8200:	e59d500c 	ldr	r5, [sp, #12]
    8204:	e59d6010 	ldr	r6, [sp, #16]
    8208:	e59d7014 	ldr	r7, [sp, #20]
    820c:	e1a03007 	mov	r3, r7
    8210:	e1a02006 	mov	r2, r6
    8214:	e1a01005 	mov	r1, r5
    8218:	e59f00ec 	ldr	r0, [pc, #236]	; 830c <ckfree+0x120>
    821c:	eb000257 	bl	8b80 <printk>
    8220:	e1a01004 	mov	r1, r4
    8224:	e59f00e4 	ldr	r0, [pc, #228]	; 8310 <ckfree+0x124>
    8228:	eb000254 	bl	8b80 <printk>
    822c:	e51430a0 	ldr	r3, [r4, #-160]	; 0xffffff60
    8230:	e353000b 	cmp	r3, #11, 0
    8234:	1a00000e 	bne	8274 <ckfree+0x88>
    8238:	e24480a8 	sub	r8, r4, #168, 0	; 0xa8
    823c:	e3a0300c 	mov	r3, #12, 0
    8240:	e50430a0 	str	r3, [r4, #-160]	; 0xffffff60
    8244:	e1a00004 	mov	r0, r4
    8248:	ebffffd0 	bl	8190 <ck_ptr_is_alloced>
    824c:	e3500000 	cmp	r0, #0, 0
    8250:	0a000010 	beq	8298 <ckfree+0xac>
    8254:	e59f30b8 	ldr	r3, [pc, #184]	; 8314 <ckfree+0x128>
    8258:	e5933000 	ldr	r3, [r3]
    825c:	e1580003 	cmp	r8, r3
    8260:	1a000020 	bne	82e8 <ckfree+0xfc>
    8264:	e51420a8 	ldr	r2, [r4, #-168]	; 0xffffff58
    8268:	e59f30a4 	ldr	r3, [pc, #164]	; 8314 <ckfree+0x128>
    826c:	e5832000 	str	r2, [r3]
    8270:	ea000012 	b	82c0 <ckfree+0xd4>
    8274:	e1a03007 	mov	r3, r7
    8278:	e1a02006 	mov	r2, r6
    827c:	e1a01005 	mov	r1, r5
    8280:	e59f0090 	ldr	r0, [pc, #144]	; 8318 <ckfree+0x12c>
    8284:	eb00023d 	bl	8b80 <printk>
    8288:	e51410a0 	ldr	r1, [r4, #-160]	; 0xffffff60
    828c:	e59f0088 	ldr	r0, [pc, #136]	; 831c <ckfree+0x130>
    8290:	eb00023a 	bl	8b80 <printk>
    8294:	eb0004ca 	bl	95c4 <clean_reboot>
    8298:	e59f3080 	ldr	r3, [pc, #128]	; 8320 <ckfree+0x134>
    829c:	e58d3000 	str	r3, [sp]
    82a0:	e3a0305d 	mov	r3, #93, 0	; 0x5d
    82a4:	e59f2078 	ldr	r2, [pc, #120]	; 8324 <ckfree+0x138>
    82a8:	e59f1078 	ldr	r1, [pc, #120]	; 8328 <ckfree+0x13c>
    82ac:	e59f0078 	ldr	r0, [pc, #120]	; 832c <ckfree+0x140>
    82b0:	eb000232 	bl	8b80 <printk>
    82b4:	eb0004c2 	bl	95c4 <clean_reboot>
    82b8:	e5922000 	ldr	r2, [r2]
    82bc:	e5832000 	str	r2, [r3]
    82c0:	e1a00008 	mov	r0, r8
    82c4:	eb000040 	bl	83cc <kr_free>
    82c8:	e28dd018 	add	sp, sp, #24, 0
    82cc:	e8bd81f0 	pop	{r4, r5, r6, r7, r8, pc}
    82d0:	e5932000 	ldr	r2, [r3]
    82d4:	e3520000 	cmp	r2, #0, 0
    82d8:	0a000004 	beq	82f0 <ckfree+0x104>
    82dc:	e1580002 	cmp	r8, r2
    82e0:	0afffff4 	beq	82b8 <ckfree+0xcc>
    82e4:	e1a03002 	mov	r3, r2
    82e8:	e3530000 	cmp	r3, #0, 0
    82ec:	1afffff7 	bne	82d0 <ckfree+0xe4>
    82f0:	e58d8000 	str	r8, [sp]
    82f4:	e3a0304f 	mov	r3, #79, 0	; 0x4f
    82f8:	e59f2030 	ldr	r2, [pc, #48]	; 8330 <ckfree+0x144>
    82fc:	e59f1024 	ldr	r1, [pc, #36]	; 8328 <ckfree+0x13c>
    8300:	e59f002c 	ldr	r0, [pc, #44]	; 8334 <ckfree+0x148>
    8304:	eb00021d 	bl	8b80 <printk>
    8308:	eb0004ad 	bl	95c4 <clean_reboot>
    830c:	0000a200 	andeq	sl, r0, r0, lsl #4
    8310:	0000a20c 	andeq	sl, r0, ip, lsl #4
    8314:	0000aa00 	andeq	sl, r0, r0, lsl #20
    8318:	0000a21c 	andeq	sl, r0, ip, lsl r2
    831c:	0000a234 	andeq	sl, r0, r4, lsr r2
    8320:	0000a27c 	andeq	sl, r0, ip, ror r2
    8324:	0000a2dc 	ldrdeq	sl, [r0], -ip
    8328:	0000a25c 	andeq	sl, r0, ip, asr r2
    832c:	0000a268 	andeq	sl, r0, r8, ror #4
    8330:	0000a2e4 	andeq	sl, r0, r4, ror #5
    8334:	0000a294 	muleq	r0, r4, r2

00008338 <ckalloc>:
    8338:	e92d4070 	push	{r4, r5, r6, lr}
    833c:	e24dd010 	sub	sp, sp, #16, 0
    8340:	e1a06000 	mov	r6, r0
    8344:	e28d5004 	add	r5, sp, #4, 0
    8348:	e885000e 	stm	r5, {r1, r2, r3}
    834c:	e28000a8 	add	r0, r0, #168, 0	; 0xa8
    8350:	eb000046 	bl	8470 <kr_malloc>
    8354:	e1a04000 	mov	r4, r0
    8358:	e3a020a8 	mov	r2, #168, 0	; 0xa8
    835c:	e3a01000 	mov	r1, #0, 0
    8360:	eb0001e8 	bl	8b08 <memset>
    8364:	e5846004 	str	r6, [r4, #4]
    8368:	e3a0300b 	mov	r3, #11, 0
    836c:	e5843008 	str	r3, [r4, #8]
    8370:	e2843010 	add	r3, r4, #16, 0
    8374:	e8950007 	ldm	r5, {r0, r1, r2}
    8378:	e8830007 	stm	r3, {r0, r1, r2}
    837c:	e59d300c 	ldr	r3, [sp, #12]
    8380:	e59d2008 	ldr	r2, [sp, #8]
    8384:	e59d1004 	ldr	r1, [sp, #4]
    8388:	e59f0030 	ldr	r0, [pc, #48]	; 83c0 <ckalloc+0x88>
    838c:	eb0001fb 	bl	8b80 <printk>
    8390:	e28450a8 	add	r5, r4, #168, 0	; 0xa8
    8394:	e1a02006 	mov	r2, r6
    8398:	e1a01005 	mov	r1, r5
    839c:	e59f0020 	ldr	r0, [pc, #32]	; 83c4 <ckalloc+0x8c>
    83a0:	eb0001f6 	bl	8b80 <printk>
    83a4:	e59f301c 	ldr	r3, [pc, #28]	; 83c8 <ckalloc+0x90>
    83a8:	e5932000 	ldr	r2, [r3]
    83ac:	e5842000 	str	r2, [r4]
    83b0:	e5834000 	str	r4, [r3]
    83b4:	e1a00005 	mov	r0, r5
    83b8:	e28dd010 	add	sp, sp, #16, 0
    83bc:	e8bd8070 	pop	{r4, r5, r6, pc}
    83c0:	0000a200 	andeq	sl, r0, r0, lsl #4
    83c4:	0000a2c0 	andeq	sl, r0, r0, asr #5
    83c8:	0000aa00 	andeq	sl, r0, r0, lsl #20

000083cc <kr_free>:
    83cc:	e52de004 	push	{lr}		; (str lr, [sp, #-4]!)
    83d0:	e2401008 	sub	r1, r0, #8, 0
    83d4:	e59f3090 	ldr	r3, [pc, #144]	; 846c <kr_free+0xa0>
    83d8:	e5933000 	ldr	r3, [r3]
    83dc:	ea000005 	b	83f8 <kr_free+0x2c>
    83e0:	e5932000 	ldr	r2, [r3]
    83e4:	e1520003 	cmp	r2, r3
    83e8:	8a000001 	bhi	83f4 <kr_free+0x28>
    83ec:	e1520001 	cmp	r2, r1
    83f0:	8a000007 	bhi	8414 <kr_free+0x48>
    83f4:	e1a03002 	mov	r3, r2
    83f8:	e1530001 	cmp	r3, r1
    83fc:	2afffff7 	bcs	83e0 <kr_free+0x14>
    8400:	e5932000 	ldr	r2, [r3]
    8404:	e1520001 	cmp	r2, r1
    8408:	8a000001 	bhi	8414 <kr_free+0x48>
    840c:	e1520003 	cmp	r2, r3
    8410:	8afffff7 	bhi	83f4 <kr_free+0x28>
    8414:	e510c004 	ldr	ip, [r0, #-4]
    8418:	e5932000 	ldr	r2, [r3]
    841c:	e081e18c 	add	lr, r1, ip, lsl #3
    8420:	e152000e 	cmp	r2, lr
    8424:	05922004 	ldreq	r2, [r2, #4]
    8428:	0082c00c 	addeq	ip, r2, ip
    842c:	0500c004 	streq	ip, [r0, #-4]
    8430:	05932000 	ldreq	r2, [r3]
    8434:	05922000 	ldreq	r2, [r2]
    8438:	e5002008 	str	r2, [r0, #-8]
    843c:	e5932004 	ldr	r2, [r3, #4]
    8440:	e083c182 	add	ip, r3, r2, lsl #3
    8444:	e151000c 	cmp	r1, ip
    8448:	05101004 	ldreq	r1, [r0, #-4]
    844c:	00812002 	addeq	r2, r1, r2
    8450:	05832004 	streq	r2, [r3, #4]
    8454:	05102008 	ldreq	r2, [r0, #-8]
    8458:	05832000 	streq	r2, [r3]
    845c:	15831000 	strne	r1, [r3]
    8460:	e59f2004 	ldr	r2, [pc, #4]	; 846c <kr_free+0xa0>
    8464:	e5823000 	str	r3, [r2]
    8468:	e49df004 	pop	{pc}		; (ldr pc, [sp], #4)
    846c:	0000aa08 	andeq	sl, r0, r8, lsl #20

00008470 <kr_malloc>:
    8470:	e92d41f0 	push	{r4, r5, r6, r7, r8, lr}
    8474:	e2804007 	add	r4, r0, #7, 0
    8478:	e1a041a4 	lsr	r4, r4, #3
    847c:	e2844001 	add	r4, r4, #1, 0
    8480:	e59f30cc 	ldr	r3, [pc, #204]	; 8554 <kr_malloc+0xe4>
    8484:	e5930000 	ldr	r0, [r3]
    8488:	e3500000 	cmp	r0, #0, 0
    848c:	0a000007 	beq	84b0 <kr_malloc+0x40>
    8490:	e5903000 	ldr	r3, [r0]
    8494:	e5932004 	ldr	r2, [r3, #4]
    8498:	e1540002 	cmp	r4, r2
    849c:	9a00000a 	bls	84cc <kr_malloc+0x5c>
    84a0:	e59f50ac 	ldr	r5, [pc, #172]	; 8554 <kr_malloc+0xe4>
    84a4:	e59f70ac 	ldr	r7, [pc, #172]	; 8558 <kr_malloc+0xe8>
    84a8:	e3a06902 	mov	r6, #32768	; 0x8000
    84ac:	ea00001b 	b	8520 <kr_malloc+0xb0>
    84b0:	e1a02003 	mov	r2, r3
    84b4:	e2833008 	add	r3, r3, #8, 0
    84b8:	e5823000 	str	r3, [r2]
    84bc:	e5823008 	str	r3, [r2, #8]
    84c0:	e3a01000 	mov	r1, #0, 0
    84c4:	e582100c 	str	r1, [r2, #12]
    84c8:	eafffff4 	b	84a0 <kr_malloc+0x30>
    84cc:	e1540002 	cmp	r4, r2
    84d0:	05932000 	ldreq	r2, [r3]
    84d4:	05802000 	streq	r2, [r0]
    84d8:	10422004 	subne	r2, r2, r4
    84dc:	15832004 	strne	r2, [r3, #4]
    84e0:	10833182 	addne	r3, r3, r2, lsl #3
    84e4:	15834004 	strne	r4, [r3, #4]
    84e8:	e59f2064 	ldr	r2, [pc, #100]	; 8554 <kr_malloc+0xe4>
    84ec:	e5820000 	str	r0, [r2]
    84f0:	e2830008 	add	r0, r3, #8, 0
    84f4:	e8bd81f0 	pop	{r4, r5, r6, r7, r8, pc}
    84f8:	e5806004 	str	r6, [r0, #4]
    84fc:	e2800008 	add	r0, r0, #8, 0
    8500:	ebffffb1 	bl	83cc <kr_free>
    8504:	e5950000 	ldr	r0, [r5]
    8508:	e3500000 	cmp	r0, #0, 0
    850c:	08bd81f0 	popeq	{r4, r5, r6, r7, r8, pc}
    8510:	e5903000 	ldr	r3, [r0]
    8514:	e5932004 	ldr	r2, [r3, #4]
    8518:	e1520004 	cmp	r2, r4
    851c:	2affffea 	bcs	84cc <kr_malloc+0x5c>
    8520:	e5952000 	ldr	r2, [r5]
    8524:	e1520003 	cmp	r2, r3
    8528:	11a00003 	movne	r0, r3
    852c:	1afffff7 	bne	8510 <kr_malloc+0xa0>
    8530:	e1a01006 	mov	r1, r6
    8534:	e1a00007 	mov	r0, r7
    8538:	eb000190 	bl	8b80 <printk>
    853c:	e3a00701 	mov	r0, #262144	; 0x40000
    8540:	eb0000d6 	bl	88a0 <sbrk>
    8544:	e3700001 	cmn	r0, #1, 0
    8548:	1affffea 	bne	84f8 <kr_malloc+0x88>
    854c:	e3a00000 	mov	r0, #0, 0
    8550:	e8bd81f0 	pop	{r4, r5, r6, r7, r8, pc}
    8554:	0000aa08 	andeq	sl, r0, r8, lsl #20
    8558:	0000a2f0 	strdeq	sl, [r0], -r0

0000855c <mark>:
    855c:	e92d4ff0 	push	{r4, r5, r6, r7, r8, r9, sl, fp, lr}
    8560:	e24dd00c 	sub	sp, sp, #12, 0
    8564:	e1500001 	cmp	r0, r1
    8568:	2a00000b 	bcs	859c <mark+0x40>
    856c:	e1a04000 	mov	r4, r0
    8570:	e3100003 	tst	r0, #3, 0
    8574:	1a000010 	bne	85bc <mark+0x60>
    8578:	e3110003 	tst	r1, #3, 0
    857c:	1a000016 	bne	85dc <mark+0x80>
    8580:	e0416000 	sub	r6, r1, r0
    8584:	e3c66003 	bic	r6, r6, #3, 0
    8588:	e2800004 	add	r0, r0, #4, 0
    858c:	e0866000 	add	r6, r6, r0
    8590:	e59f8128 	ldr	r8, [pc, #296]	; 86c0 <mark+0x164>
    8594:	e59fb128 	ldr	fp, [pc, #296]	; 86c4 <mark+0x168>
    8598:	ea00001b 	b	860c <mark+0xb0>
    859c:	e59f3124 	ldr	r3, [pc, #292]	; 86c8 <mark+0x16c>
    85a0:	e58d3000 	str	r3, [sp]
    85a4:	e3a03052 	mov	r3, #82, 0	; 0x52
    85a8:	e59f211c 	ldr	r2, [pc, #284]	; 86cc <mark+0x170>
    85ac:	e59f111c 	ldr	r1, [pc, #284]	; 86d0 <mark+0x174>
    85b0:	e59f011c 	ldr	r0, [pc, #284]	; 86d4 <mark+0x178>
    85b4:	eb000171 	bl	8b80 <printk>
    85b8:	eb000401 	bl	95c4 <clean_reboot>
    85bc:	e59f3114 	ldr	r3, [pc, #276]	; 86d8 <mark+0x17c>
    85c0:	e58d3000 	str	r3, [sp]
    85c4:	e3a03055 	mov	r3, #85, 0	; 0x55
    85c8:	e59f20fc 	ldr	r2, [pc, #252]	; 86cc <mark+0x170>
    85cc:	e59f10fc 	ldr	r1, [pc, #252]	; 86d0 <mark+0x174>
    85d0:	e59f00fc 	ldr	r0, [pc, #252]	; 86d4 <mark+0x178>
    85d4:	eb000169 	bl	8b80 <printk>
    85d8:	eb0003f9 	bl	95c4 <clean_reboot>
    85dc:	e59f30f8 	ldr	r3, [pc, #248]	; 86dc <mark+0x180>
    85e0:	e58d3000 	str	r3, [sp]
    85e4:	e3a03056 	mov	r3, #86, 0	; 0x56
    85e8:	e59f20dc 	ldr	r2, [pc, #220]	; 86cc <mark+0x170>
    85ec:	e59f10dc 	ldr	r1, [pc, #220]	; 86d0 <mark+0x174>
    85f0:	e59f00dc 	ldr	r0, [pc, #220]	; 86d4 <mark+0x178>
    85f4:	eb000161 	bl	8b80 <printk>
    85f8:	eb0003f1 	bl	95c4 <clean_reboot>
    85fc:	e59f00dc 	ldr	r0, [pc, #220]	; 86e0 <mark+0x184>
    8600:	eb00015e 	bl	8b80 <printk>
    8604:	e1540006 	cmp	r4, r6
    8608:	0a00002a 	beq	86b8 <mark+0x15c>
    860c:	e1a07004 	mov	r7, r4
    8610:	e2844004 	add	r4, r4, #4, 0
    8614:	e5970000 	ldr	r0, [r7]
    8618:	e5983000 	ldr	r3, [r8]
    861c:	e1500003 	cmp	r0, r3
    8620:	3afffff7 	bcc	8604 <mark+0xa8>
    8624:	e5983004 	ldr	r3, [r8, #4]
    8628:	e1500003 	cmp	r0, r3
    862c:	2afffff4 	bcs	8604 <mark+0xa8>
    8630:	ebfffed6 	bl	8190 <ck_ptr_is_alloced>
    8634:	e2505000 	subs	r5, r0, #0, 0
    8638:	0afffff1 	beq	8604 <mark+0xa8>
    863c:	e28590a8 	add	r9, r5, #168, 0	; 0xa8
    8640:	e1d5a2b4 	ldrh	sl, [r5, #36]	; 0x24
    8644:	e1a00005 	mov	r0, r5
    8648:	ebfffec1 	bl	8154 <ck_hdr_start>
    864c:	e1a01000 	mov	r1, r0
    8650:	e5143004 	ldr	r3, [r4, #-4]
    8654:	e58d9000 	str	r9, [sp]
    8658:	e1a02007 	mov	r2, r7
    865c:	e1a0000b 	mov	r0, fp
    8660:	eb000146 	bl	8b80 <printk>
    8664:	e35a0001 	cmp	sl, #1, 0
    8668:	8affffe3 	bhi	85fc <mark+0xa0>
    866c:	e5143004 	ldr	r3, [r4, #-4]
    8670:	e1530009 	cmp	r3, r9
    8674:	03a03002 	moveq	r3, #2, 0
    8678:	13a03001 	movne	r3, #1, 0
    867c:	e1c532b4 	strh	r3, [r5, #36]	; 0x24
    8680:	e5141004 	ldr	r1, [r4, #-4]
    8684:	e1510009 	cmp	r1, r9
    8688:	03a01002 	moveq	r1, #2, 0
    868c:	13a01001 	movne	r1, #1, 0
    8690:	e59f004c 	ldr	r0, [pc, #76]	; 86e4 <mark+0x188>
    8694:	eb000139 	bl	8b80 <printk>
    8698:	e35a0000 	cmp	sl, #0, 0
    869c:	1affffd8 	bne	8604 <mark+0xa8>
    86a0:	e5951004 	ldr	r1, [r5, #4]
    86a4:	e28110a8 	add	r1, r1, #168, 0	; 0xa8
    86a8:	e0851001 	add	r1, r5, r1
    86ac:	e2850004 	add	r0, r5, #4, 0
    86b0:	ebffffa9 	bl	855c <mark>
    86b4:	eaffffd2 	b	8604 <mark+0xa8>
    86b8:	e28dd00c 	add	sp, sp, #12, 0
    86bc:	e8bd8ff0 	pop	{r4, r5, r6, r7, r8, r9, sl, fp, pc}
    86c0:	0000aa18 	andeq	sl, r0, r8, lsl sl
    86c4:	0000a344 	andeq	sl, r0, r4, asr #6
    86c8:	0000a31c 	andeq	sl, r0, ip, lsl r3
    86cc:	0000a62c 	andeq	sl, r0, ip, lsr #12
    86d0:	0000a314 	andeq	sl, r0, r4, lsl r3
    86d4:	0000a268 	andeq	sl, r0, r8, ror #4
    86d8:	0000a324 	andeq	sl, r0, r4, lsr #6
    86dc:	0000a334 	andeq	sl, r0, r4, lsr r3
    86e0:	0000a380 	andeq	sl, r0, r0, lsl #7
    86e4:	0000a370 	andeq	sl, r0, r0, ror r3

000086e8 <mark_all>:
    86e8:	e92d4010 	push	{r4, lr}
    86ec:	e24dd040 	sub	sp, sp, #64, 0	; 0x40
    86f0:	ebfffe90 	bl	8138 <ck_first_hdr>
    86f4:	e3500000 	cmp	r0, #0, 0
    86f8:	0a000006 	beq	8718 <mark_all+0x30>
    86fc:	e3a04000 	mov	r4, #0, 0
    8700:	e5804020 	str	r4, [r0, #32]
    8704:	e580401c 	str	r4, [r0, #28]
    8708:	e1c042b4 	strh	r4, [r0, #36]	; 0x24
    870c:	ebfffe8d 	bl	8148 <ck_next_hdr>
    8710:	e3500000 	cmp	r0, #0, 0
    8714:	1afffff9 	bne	8700 <mark_all+0x18>
    8718:	e1a0000d 	mov	r0, sp
    871c:	eb0000f7 	bl	8b00 <dump_regs>
    8720:	e3a03000 	mov	r3, #0, 0
    8724:	e58d3000 	str	r3, [sp]
    8728:	e58d3004 	str	r3, [sp, #4]
    872c:	e58d3008 	str	r3, [sp, #8]
    8730:	e58d300c 	str	r3, [sp, #12]
    8734:	e28d1038 	add	r1, sp, #56, 0	; 0x38
    8738:	e1a0000d 	mov	r0, sp
    873c:	ebffff86 	bl	855c <mark>
    8740:	e3a02302 	mov	r2, #134217728	; 0x8000000
    8744:	e59d1034 	ldr	r1, [sp, #52]	; 0x34
    8748:	e59f002c 	ldr	r0, [pc, #44]	; 877c <mark_all+0x94>
    874c:	eb00010b 	bl	8b80 <printk>
    8750:	e3a01302 	mov	r1, #134217728	; 0x8000000
    8754:	e59d0034 	ldr	r0, [sp, #52]	; 0x34
    8758:	ebffff7f 	bl	855c <mark>
    875c:	e59f101c 	ldr	r1, [pc, #28]	; 8780 <mark_all+0x98>
    8760:	e59f001c 	ldr	r0, [pc, #28]	; 8784 <mark_all+0x9c>
    8764:	ebffff7c 	bl	855c <mark>
    8768:	e59f1018 	ldr	r1, [pc, #24]	; 8788 <mark_all+0xa0>
    876c:	e59f0018 	ldr	r0, [pc, #24]	; 878c <mark_all+0xa4>
    8770:	ebffff79 	bl	855c <mark>
    8774:	e28dd040 	add	sp, sp, #64, 0	; 0x40
    8778:	e8bd8010 	pop	{r4, pc}
    877c:	0000a390 	muleq	r0, r0, r3
    8780:	0000ae28 	andeq	sl, r0, r8, lsr #28
    8784:	0000aa00 	andeq	sl, r0, r0, lsl #20
    8788:	0000a9fc 	strdeq	sl, [r0], -ip
    878c:	0000a9e8 	andeq	sl, r0, r8, ror #19

00008790 <sweep_leak>:
    8790:	e92d47f0 	push	{r4, r5, r6, r7, r8, r9, sl, lr}
    8794:	e1a08000 	mov	r8, r0
    8798:	e59f00e0 	ldr	r0, [pc, #224]	; 8880 <sweep_leak+0xf0>
    879c:	eb0000f7 	bl	8b80 <printk>
    87a0:	e59f00dc 	ldr	r0, [pc, #220]	; 8884 <sweep_leak+0xf4>
    87a4:	eb0000f5 	bl	8b80 <printk>
    87a8:	ebffffce 	bl	86e8 <mark_all>
    87ac:	ebfffe61 	bl	8138 <ck_first_hdr>
    87b0:	e2504000 	subs	r4, r0, #0, 0
    87b4:	0a000024 	beq	884c <sweep_leak+0xbc>
    87b8:	e3a07000 	mov	r7, #0, 0
    87bc:	e1a06007 	mov	r6, r7
    87c0:	e1a05007 	mov	r5, r7
    87c4:	e59fa0bc 	ldr	sl, [pc, #188]	; 8888 <sweep_leak+0xf8>
    87c8:	e59f90bc 	ldr	r9, [pc, #188]	; 888c <sweep_leak+0xfc>
    87cc:	ea000008 	b	87f4 <sweep_leak+0x64>
    87d0:	e2866001 	add	r6, r6, #1, 0
    87d4:	e1a02004 	mov	r2, r4
    87d8:	e1a01005 	mov	r1, r5
    87dc:	e1a00009 	mov	r0, r9
    87e0:	eb0000e6 	bl	8b80 <printk>
    87e4:	e1a00004 	mov	r0, r4
    87e8:	ebfffe56 	bl	8148 <ck_next_hdr>
    87ec:	e2504000 	subs	r4, r0, #0, 0
    87f0:	0a00000b 	beq	8824 <sweep_leak+0x94>
    87f4:	e2855001 	add	r5, r5, #1, 0
    87f8:	e1d432b4 	ldrh	r3, [r4, #36]	; 0x24
    87fc:	e3530000 	cmp	r3, #0, 0
    8800:	0afffff2 	beq	87d0 <sweep_leak+0x40>
    8804:	e3530001 	cmp	r3, #1, 0
    8808:	1afffff5 	bne	87e4 <sweep_leak+0x54>
    880c:	e2877001 	add	r7, r7, #1, 0
    8810:	e1a02004 	mov	r2, r4
    8814:	e1a01005 	mov	r1, r5
    8818:	e1a0000a 	mov	r0, sl
    881c:	eb0000d7 	bl	8b80 <printk>
    8820:	eaffffef 	b	87e4 <sweep_leak+0x54>
    8824:	e1a01005 	mov	r1, r5
    8828:	e59f0060 	ldr	r0, [pc, #96]	; 8890 <sweep_leak+0x100>
    882c:	eb0000d3 	bl	8b80 <printk>
    8830:	e1963007 	orrs	r3, r6, r7
    8834:	0a000009 	beq	8860 <sweep_leak+0xd0>
    8838:	e1a02007 	mov	r2, r7
    883c:	e1a01006 	mov	r1, r6
    8840:	e59f004c 	ldr	r0, [pc, #76]	; 8894 <sweep_leak+0x104>
    8844:	eb0000cd 	bl	8b80 <printk>
    8848:	ea000006 	b	8868 <sweep_leak+0xd8>
    884c:	e3a01000 	mov	r1, #0, 0
    8850:	e59f0038 	ldr	r0, [pc, #56]	; 8890 <sweep_leak+0x100>
    8854:	eb0000c9 	bl	8b80 <printk>
    8858:	e3a07000 	mov	r7, #0, 0
    885c:	e1a06007 	mov	r6, r7
    8860:	e59f0030 	ldr	r0, [pc, #48]	; 8898 <sweep_leak+0x108>
    8864:	eb0000c5 	bl	8b80 <printk>
    8868:	e59f002c 	ldr	r0, [pc, #44]	; 889c <sweep_leak+0x10c>
    886c:	eb0000c3 	bl	8b80 <printk>
    8870:	e3580000 	cmp	r8, #0, 0
    8874:	10866007 	addne	r6, r6, r7
    8878:	e1a00006 	mov	r0, r6
    887c:	e8bd87f0 	pop	{r4, r5, r6, r7, r8, r9, sl, pc}
    8880:	0000a3ac 	andeq	sl, r0, ip, lsr #7
    8884:	0000a3e8 	andeq	sl, r0, r8, ror #7
    8888:	0000a414 	andeq	sl, r0, r4, lsl r4
    888c:	0000a400 	andeq	sl, r0, r0, lsl #8
    8890:	0000a42c 	andeq	sl, r0, ip, lsr #8
    8894:	0000a474 	andeq	sl, r0, r4, ror r4
    8898:	0000a44c 	andeq	sl, r0, ip, asr #8
    889c:	0000a4a4 	andeq	sl, r0, r4, lsr #9

000088a0 <sbrk>:
    88a0:	e92d4030 	push	{r4, r5, lr}
    88a4:	e24dd00c 	sub	sp, sp, #12, 0
    88a8:	e2504000 	subs	r4, r0, #0, 0
    88ac:	da000010 	ble	88f4 <sbrk+0x54>
    88b0:	e59f3074 	ldr	r3, [pc, #116]	; 892c <sbrk+0x8c>
    88b4:	e5933008 	ldr	r3, [r3, #8]
    88b8:	e3530000 	cmp	r3, #0, 0
    88bc:	1a000014 	bne	8914 <sbrk+0x74>
    88c0:	e59f5064 	ldr	r5, [pc, #100]	; 892c <sbrk+0x8c>
    88c4:	e3a00601 	mov	r0, #1048576	; 0x100000
    88c8:	e5850000 	str	r0, [r5]
    88cc:	e3a03602 	mov	r3, #2097152	; 0x200000
    88d0:	e5853004 	str	r3, [r5, #4]
    88d4:	e1a01000 	mov	r1, r0
    88d8:	eb000475 	bl	9ab4 <kmalloc_init_set_start>
    88dc:	e3a03001 	mov	r3, #1, 0
    88e0:	e5853008 	str	r3, [r5, #8]
    88e4:	e1a00004 	mov	r0, r4
    88e8:	eb0004d4 	bl	9c40 <kmalloc>
    88ec:	e28dd00c 	add	sp, sp, #12, 0
    88f0:	e8bd8030 	pop	{r4, r5, pc}
    88f4:	e59f3034 	ldr	r3, [pc, #52]	; 8930 <sbrk+0x90>
    88f8:	e58d3000 	str	r3, [sp]
    88fc:	e3a03017 	mov	r3, #23, 0
    8900:	e59f202c 	ldr	r2, [pc, #44]	; 8934 <sbrk+0x94>
    8904:	e59f102c 	ldr	r1, [pc, #44]	; 8938 <sbrk+0x98>
    8908:	e59f002c 	ldr	r0, [pc, #44]	; 893c <sbrk+0x9c>
    890c:	eb00009b 	bl	8b80 <printk>
    8910:	eb00032b 	bl	95c4 <clean_reboot>
    8914:	e3a03019 	mov	r3, #25, 0
    8918:	e59f2014 	ldr	r2, [pc, #20]	; 8934 <sbrk+0x94>
    891c:	e59f1014 	ldr	r1, [pc, #20]	; 8938 <sbrk+0x98>
    8920:	e59f0018 	ldr	r0, [pc, #24]	; 8940 <sbrk+0xa0>
    8924:	eb000095 	bl	8b80 <printk>
    8928:	eb000325 	bl	95c4 <clean_reboot>
    892c:	0000aa18 	andeq	sl, r0, r8, lsl sl
    8930:	0000a4e0 	andeq	sl, r0, r0, ror #9
    8934:	0000a634 	andeq	sl, r0, r4, lsr r6
    8938:	0000a314 	andeq	sl, r0, r4, lsl r3
    893c:	0000a268 	andeq	sl, r0, r8, ror #4
    8940:	0000a4f0 	strdeq	sl, [r0], -r0

00008944 <ck_find_leaks>:
    8944:	e92d4010 	push	{r4, lr}
    8948:	ebffff90 	bl	8790 <sweep_leak>
    894c:	e8bd8010 	pop	{r4, pc}

00008950 <check_no_leak>:
    8950:	e92d4010 	push	{r4, lr}
    8954:	e3a00001 	mov	r0, #1, 0
    8958:	ebffff8c 	bl	8790 <sweep_leak>
    895c:	e3500000 	cmp	r0, #0, 0
    8960:	1a000002 	bne	8970 <check_no_leak+0x20>
    8964:	e59f001c 	ldr	r0, [pc, #28]	; 8988 <check_no_leak+0x38>
    8968:	eb000084 	bl	8b80 <printk>
    896c:	e8bd8010 	pop	{r4, pc}
    8970:	e3a030dc 	mov	r3, #220, 0	; 0xdc
    8974:	e59f2010 	ldr	r2, [pc, #16]	; 898c <check_no_leak+0x3c>
    8978:	e59f1010 	ldr	r1, [pc, #16]	; 8990 <check_no_leak+0x40>
    897c:	e59f0010 	ldr	r0, [pc, #16]	; 8994 <check_no_leak+0x44>
    8980:	eb00007e 	bl	8b80 <printk>
    8984:	eb00030e 	bl	95c4 <clean_reboot>
    8988:	0000a53c 	andeq	sl, r0, ip, lsr r5
    898c:	0000a63c 	andeq	sl, r0, ip, lsr r6
    8990:	0000a314 	andeq	sl, r0, r4, lsl r3
    8994:	0000a510 	andeq	sl, r0, r0, lsl r5

00008998 <check_should_leak>:
    8998:	e92d4010 	push	{r4, lr}
    899c:	e3a00001 	mov	r0, #1, 0
    89a0:	ebffff7a 	bl	8790 <sweep_leak>
    89a4:	e2504000 	subs	r4, r0, #0, 0
    89a8:	0a000004 	beq	89c0 <check_should_leak+0x28>
    89ac:	e1a01004 	mov	r1, r4
    89b0:	e59f0020 	ldr	r0, [pc, #32]	; 89d8 <check_should_leak+0x40>
    89b4:	eb000071 	bl	8b80 <printk>
    89b8:	e1a00004 	mov	r0, r4
    89bc:	e8bd8010 	pop	{r4, pc}
    89c0:	e3a030eb 	mov	r3, #235, 0	; 0xeb
    89c4:	e59f2010 	ldr	r2, [pc, #16]	; 89dc <check_should_leak+0x44>
    89c8:	e59f1010 	ldr	r1, [pc, #16]	; 89e0 <check_should_leak+0x48>
    89cc:	e59f0010 	ldr	r0, [pc, #16]	; 89e4 <check_should_leak+0x4c>
    89d0:	eb00006a 	bl	8b80 <printk>
    89d4:	eb0002fa 	bl	95c4 <clean_reboot>
    89d8:	0000a584 	andeq	sl, r0, r4, lsl #11
    89dc:	0000a64c 	andeq	sl, r0, ip, asr #12
    89e0:	0000a314 	andeq	sl, r0, r4, lsl r3
    89e4:	0000a55c 	andeq	sl, r0, ip, asr r5

000089e8 <ck_gc>:
    89e8:	e92d4ff0 	push	{r4, r5, r6, r7, r8, r9, sl, fp, lr}
    89ec:	e24dd014 	sub	sp, sp, #20, 0
    89f0:	ebffff3c 	bl	86e8 <mark_all>
    89f4:	e59f00bc 	ldr	r0, [pc, #188]	; 8ab8 <ck_gc+0xd0>
    89f8:	eb000060 	bl	8b80 <printk>
    89fc:	e59f00b8 	ldr	r0, [pc, #184]	; 8abc <ck_gc+0xd4>
    8a00:	eb00005e 	bl	8b80 <printk>
    8a04:	ebffff37 	bl	86e8 <mark_all>
    8a08:	ebfffdca 	bl	8138 <ck_first_hdr>
    8a0c:	e2504000 	subs	r4, r0, #0, 0
    8a10:	0a00001d 	beq	8a8c <ck_gc+0xa4>
    8a14:	e3a05000 	mov	r5, #0, 0
    8a18:	e1a08005 	mov	r8, r5
    8a1c:	e1a07005 	mov	r7, r5
    8a20:	e59fb098 	ldr	fp, [pc, #152]	; 8ac0 <ck_gc+0xd8>
    8a24:	e59fa098 	ldr	sl, [pc, #152]	; 8ac4 <ck_gc+0xdc>
    8a28:	e28d9004 	add	r9, sp, #4, 0
    8a2c:	ea000011 	b	8a78 <ck_gc+0x90>
    8a30:	e2888001 	add	r8, r8, #1, 0
    8a34:	e5943004 	ldr	r3, [r4, #4]
    8a38:	e0855003 	add	r5, r5, r3
    8a3c:	e28460a8 	add	r6, r4, #168, 0	; 0xa8
    8a40:	e58db004 	str	fp, [sp, #4]
    8a44:	e58da008 	str	sl, [sp, #8]
    8a48:	e59f3078 	ldr	r3, [pc, #120]	; 8ac8 <ck_gc+0xe0>
    8a4c:	e58d300c 	str	r3, [sp, #12]
    8a50:	e899000e 	ldm	r9, {r1, r2, r3}
    8a54:	e1a00006 	mov	r0, r6
    8a58:	ebfffde3 	bl	81ec <ckfree>
    8a5c:	e1a01006 	mov	r1, r6
    8a60:	e59f0064 	ldr	r0, [pc, #100]	; 8acc <ck_gc+0xe4>
    8a64:	eb000045 	bl	8b80 <printk>
    8a68:	e1a00004 	mov	r0, r4
    8a6c:	ebfffdb5 	bl	8148 <ck_next_hdr>
    8a70:	e2504000 	subs	r4, r0, #0, 0
    8a74:	0a000007 	beq	8a98 <ck_gc+0xb0>
    8a78:	e2877001 	add	r7, r7, #1, 0
    8a7c:	e1d432b4 	ldrh	r3, [r4, #36]	; 0x24
    8a80:	e3530000 	cmp	r3, #0, 0
    8a84:	1afffff7 	bne	8a68 <ck_gc+0x80>
    8a88:	eaffffe8 	b	8a30 <ck_gc+0x48>
    8a8c:	e3a05000 	mov	r5, #0, 0
    8a90:	e1a08005 	mov	r8, r5
    8a94:	e1a07005 	mov	r7, r5
    8a98:	e1a03005 	mov	r3, r5
    8a9c:	e1a02008 	mov	r2, r8
    8aa0:	e1a01007 	mov	r1, r7
    8aa4:	e59f0024 	ldr	r0, [pc, #36]	; 8ad0 <ck_gc+0xe8>
    8aa8:	eb000034 	bl	8b80 <printk>
    8aac:	e1a00005 	mov	r0, r5
    8ab0:	e28dd014 	add	sp, sp, #20, 0
    8ab4:	e8bd8ff0 	pop	{r4, r5, r6, r7, r8, r9, sl, fp, pc}
    8ab8:	0000a3ac 	andeq	sl, r0, ip, lsr #7
    8abc:	0000a5a8 	andeq	sl, r0, r8, lsr #11
    8ac0:	0000a314 	andeq	sl, r0, r4, lsl r3
    8ac4:	0000a660 	andeq	sl, r0, r0, ror #12
    8ac8:	00000101 	andeq	r0, r0, r1, lsl #2
    8acc:	0000a5b8 			; <UNDEFINED> instruction: 0x0000a5b8
    8ad0:	0000a5c8 	andeq	sl, r0, r8, asr #11

00008ad4 <implement_this>:
    8ad4:	e92d4010 	push	{r4, lr}
    8ad8:	e59f3010 	ldr	r3, [pc, #16]	; 8af0 <implement_this+0x1c>
    8adc:	e59f2010 	ldr	r2, [pc, #16]	; 8af4 <implement_this+0x20>
    8ae0:	e59f1010 	ldr	r1, [pc, #16]	; 8af8 <implement_this+0x24>
    8ae4:	e59f0010 	ldr	r0, [pc, #16]	; 8afc <implement_this+0x28>
    8ae8:	eb000024 	bl	8b80 <printk>
    8aec:	eb0002b4 	bl	95c4 <clean_reboot>
    8af0:	00000117 	andeq	r0, r0, r7, lsl r1
    8af4:	0000a66c 	andeq	sl, r0, ip, ror #12
    8af8:	0000a314 	andeq	sl, r0, r4, lsl r3
    8afc:	0000a5fc 	strdeq	sl, [r0], -ip

00008b00 <dump_regs>:
    8b00:	e8a0ffff 	stmia	r0!, {r0, r1, r2, r3, r4, r5, r6, r7, r8, r9, sl, fp, ip, sp, lr, pc}
    8b04:	e12fff1e 	bx	lr

00008b08 <memset>:
    8b08:	e92d4010 	push	{r4, lr}
    8b0c:	e0804002 	add	r4, r0, r2
    8b10:	e1500004 	cmp	r0, r4
    8b14:	28bd8010 	popcs	{r4, pc}
    8b18:	e2423001 	sub	r3, r2, #1, 0
    8b1c:	e3530002 	cmp	r3, #2, 0
    8b20:	e6ef1071 	uxtb	r1, r1
    8b24:	e1a03000 	mov	r3, r0
    8b28:	9a00000b 	bls	8b5c <memset+0x54>
    8b2c:	e181e401 	orr	lr, r1, r1, lsl #8
    8b30:	e18ee801 	orr	lr, lr, r1, lsl #16
    8b34:	e3c2c003 	bic	ip, r2, #3, 0
    8b38:	e18eec01 	orr	lr, lr, r1, lsl #24
    8b3c:	e08cc000 	add	ip, ip, r0
    8b40:	e483e004 	str	lr, [r3], #4
    8b44:	e153000c 	cmp	r3, ip
    8b48:	1afffffc 	bne	8b40 <memset+0x38>
    8b4c:	e3c23003 	bic	r3, r2, #3, 0
    8b50:	e1520003 	cmp	r2, r3
    8b54:	e0803003 	add	r3, r0, r3
    8b58:	08bd8010 	popeq	{r4, pc}
    8b5c:	e1a02003 	mov	r2, r3
    8b60:	e4c21001 	strb	r1, [r2], #1
    8b64:	e1540002 	cmp	r4, r2
    8b68:	98bd8010 	popls	{r4, pc}
    8b6c:	e2832002 	add	r2, r3, #2, 0
    8b70:	e1540002 	cmp	r4, r2
    8b74:	e5c31001 	strb	r1, [r3, #1]
    8b78:	85c31002 	strbhi	r1, [r3, #2]
    8b7c:	e8bd8010 	pop	{r4, pc}

00008b80 <printk>:
    8b80:	e92d000f 	push	{r0, r1, r2, r3}
    8b84:	e92d4030 	push	{r4, r5, lr}
    8b88:	e59f5040 	ldr	r5, [pc, #64]	; 8bd0 <printk+0x50>
    8b8c:	e24dd00c 	sub	sp, sp, #12, 0
    8b90:	e28d301c 	add	r3, sp, #28, 0
    8b94:	e3a01b01 	mov	r1, #1024	; 0x400
    8b98:	e59d2018 	ldr	r2, [sp, #24]
    8b9c:	e1a00005 	mov	r0, r5
    8ba0:	e58d3004 	str	r3, [sp, #4]
    8ba4:	eb0000fb 	bl	8f98 <va_printk>
    8ba8:	e1a04000 	mov	r4, r0
    8bac:	e59f3020 	ldr	r3, [pc, #32]	; 8bd4 <printk+0x54>
    8bb0:	e1a00005 	mov	r0, r5
    8bb4:	e5933000 	ldr	r3, [r3]
    8bb8:	e12fff33 	blx	r3
    8bbc:	e1a00004 	mov	r0, r4
    8bc0:	e28dd00c 	add	sp, sp, #12, 0
    8bc4:	e8bd4030 	pop	{r4, r5, lr}
    8bc8:	e28dd010 	add	sp, sp, #16, 0
    8bcc:	e12fff1e 	bx	lr
    8bd0:	0000aa24 	andeq	sl, r0, r4, lsr #20
    8bd4:	0000a9e8 	andeq	sl, r0, r8, ror #19

00008bd8 <internal_putk>:
    8bd8:	e92d4070 	push	{r4, r5, r6, lr}
    8bdc:	e1a04000 	mov	r4, r0
    8be0:	e5d00000 	ldrb	r0, [r0]
    8be4:	e3500000 	cmp	r0, #0, 0
    8be8:	0a000005 	beq	8c04 <internal_putk+0x2c>
    8bec:	e59f5018 	ldr	r5, [pc, #24]	; 8c0c <internal_putk+0x34>
    8bf0:	e5953000 	ldr	r3, [r5]
    8bf4:	e12fff33 	blx	r3
    8bf8:	e5f40001 	ldrb	r0, [r4, #1]!
    8bfc:	e3500000 	cmp	r0, #0, 0
    8c00:	1afffffa 	bne	8bf0 <internal_putk+0x18>
    8c04:	e3a00001 	mov	r0, #1, 0
    8c08:	e8bd8070 	pop	{r4, r5, r6, pc}
    8c0c:	0000a9f8 	strdeq	sl, [r0], -r8

00008c10 <emit.constprop.0>:
    8c10:	e92d41f0 	push	{r4, r5, r6, r7, r8, lr}
    8c14:	e3530080 	cmp	r3, #128, 0	; 0x80
    8c18:	e1a0c000 	mov	ip, r0
    8c1c:	e24dd048 	sub	sp, sp, #72, 0	; 0x48
    8c20:	e1a00001 	mov	r0, r1
    8c24:	ca000069 	bgt	8dd0 <emit.constprop.0+0x1c0>
    8c28:	e24c1002 	sub	r1, ip, #2, 0
    8c2c:	e1a0c002 	mov	ip, r2
    8c30:	e351000e 	cmp	r1, #14, 0
    8c34:	979ff101 	ldrls	pc, [pc, r1, lsl #2]
    8c38:	ea0000a7 	b	8edc <emit.constprop.0+0x2cc>
    8c3c:	00008da8 	andeq	r8, r0, r8, lsr #27
    8c40:	00008edc 	ldrdeq	r8, [r0], -ip
    8c44:	00008edc 	ldrdeq	r8, [r0], -ip
    8c48:	00008edc 	ldrdeq	r8, [r0], -ip
    8c4c:	00008edc 	ldrdeq	r8, [r0], -ip
    8c50:	00008edc 	ldrdeq	r8, [r0], -ip
    8c54:	00008e84 	andeq	r8, r0, r4, lsl #29
    8c58:	00008edc 	ldrdeq	r8, [r0], -ip
    8c5c:	00008e24 	andeq	r8, r0, r4, lsr #28
    8c60:	00008edc 	ldrdeq	r8, [r0], -ip
    8c64:	00008edc 	ldrdeq	r8, [r0], -ip
    8c68:	00008edc 	ldrdeq	r8, [r0], -ip
    8c6c:	00008edc 	ldrdeq	r8, [r0], -ip
    8c70:	00008edc 	ldrdeq	r8, [r0], -ip
    8c74:	00008c7c 	andeq	r8, r0, ip, ror ip
    8c78:	e3a0307f 	mov	r3, #127, 0	; 0x7f
    8c7c:	e28d2008 	add	r2, sp, #8, 0
    8c80:	e1a04002 	mov	r4, r2
    8c84:	e59f1288 	ldr	r1, [pc, #648]	; 8f14 <emit.constprop.0+0x304>
    8c88:	e20ce00f 	and	lr, ip, #15, 0
    8c8c:	e7d1e00e 	ldrb	lr, [r1, lr]
    8c90:	e35c000f 	cmp	ip, #15, 0
    8c94:	e4c4e001 	strb	lr, [r4], #1
    8c98:	e1a0c22c 	lsr	ip, ip, #4
    8c9c:	8afffff9 	bhi	8c88 <emit.constprop.0+0x78>
    8ca0:	e3a0c078 	mov	ip, #120, 0	; 0x78
    8ca4:	e1a0e004 	mov	lr, r4
    8ca8:	e3a01030 	mov	r1, #48, 0	; 0x30
    8cac:	e4cec002 	strb	ip, [lr], #2
    8cb0:	e5c41001 	strb	r1, [r4, #1]
    8cb4:	e04e1002 	sub	r1, lr, r2
    8cb8:	e1510003 	cmp	r1, r3
    8cbc:	aa000083 	bge	8ed0 <emit.constprop.0+0x2c0>
    8cc0:	e1510003 	cmp	r1, r3
    8cc4:	a3a0c001 	movge	ip, #1, 0
    8cc8:	b3a0c000 	movlt	ip, #0, 0
    8ccc:	e2434001 	sub	r4, r3, #1, 0
    8cd0:	e0444001 	sub	r4, r4, r1
    8cd4:	b0436001 	sublt	r6, r3, r1
    8cd8:	a3a06001 	movge	r6, #1, 0
    8cdc:	e3540002 	cmp	r4, #2, 0
    8ce0:	938cc001 	orrls	ip, ip, #1, 0
    8ce4:	e35c0000 	cmp	ip, #0, 0
    8ce8:	1a000075 	bne	8ec4 <emit.constprop.0+0x2b4>
    8cec:	e1a0c00e 	mov	ip, lr
    8cf0:	e3c65003 	bic	r5, r6, #3, 0
    8cf4:	e59f721c 	ldr	r7, [pc, #540]	; 8f18 <emit.constprop.0+0x308>
    8cf8:	e085500e 	add	r5, r5, lr
    8cfc:	e48c7004 	str	r7, [ip], #4
    8d00:	e15c0005 	cmp	ip, r5
    8d04:	1afffffc 	bne	8cfc <emit.constprop.0+0xec>
    8d08:	e3c6c003 	bic	ip, r6, #3, 0
    8d0c:	e156000c 	cmp	r6, ip
    8d10:	e08e500c 	add	r5, lr, ip
    8d14:	e08cc001 	add	ip, ip, r1
    8d18:	0a000008 	beq	8d40 <emit.constprop.0+0x130>
    8d1c:	e3a07020 	mov	r7, #32, 0
    8d20:	e28c8001 	add	r8, ip, #1, 0
    8d24:	e1580003 	cmp	r8, r3
    8d28:	e5c57000 	strb	r7, [r5]
    8d2c:	aa000003 	bge	8d40 <emit.constprop.0+0x130>
    8d30:	e28cc002 	add	ip, ip, #2, 0
    8d34:	e15c0003 	cmp	ip, r3
    8d38:	e5c57001 	strb	r7, [r5, #1]
    8d3c:	b5c57002 	strblt	r7, [r5, #2]
    8d40:	e1510003 	cmp	r1, r3
    8d44:	a3a04000 	movge	r4, #0, 0
    8d48:	e08e6006 	add	r6, lr, r6
    8d4c:	e0461002 	sub	r1, r6, r2
    8d50:	e08ee004 	add	lr, lr, r4
    8d54:	e3a03000 	mov	r3, #0, 0
    8d58:	e351007f 	cmp	r1, #127, 0	; 0x7f
    8d5c:	c241407f 	subgt	r4, r1, #127, 0	; 0x7f
    8d60:	c0822004 	addgt	r2, r2, r4
    8d64:	e152000e 	cmp	r2, lr
    8d68:	e5c63000 	strb	r3, [r6]
    8d6c:	8a00004f 	bhi	8eb0 <emit.constprop.0+0x2a0>
    8d70:	e28ee001 	add	lr, lr, #1, 0
    8d74:	e1a0300e 	mov	r3, lr
    8d78:	e240c001 	sub	ip, r0, #1, 0
    8d7c:	e5734001 	ldrb	r4, [r3, #-1]!
    8d80:	e1530002 	cmp	r3, r2
    8d84:	e5ec4001 	strb	r4, [ip, #1]!
    8d88:	1afffffb 	bne	8d7c <emit.constprop.0+0x16c>
    8d8c:	e04ee003 	sub	lr, lr, r3
    8d90:	e3a03000 	mov	r3, #0, 0
    8d94:	e080e00e 	add	lr, r0, lr
    8d98:	e5ce3000 	strb	r3, [lr]
    8d9c:	e28dd048 	add	sp, sp, #72, 0	; 0x48
    8da0:	e8bd81f0 	pop	{r4, r5, r6, r7, r8, pc}
    8da4:	e3a0307f 	mov	r3, #127, 0	; 0x7f
    8da8:	e28d2008 	add	r2, sp, #8, 0
    8dac:	e1a0e002 	mov	lr, r2
    8db0:	e59f1164 	ldr	r1, [pc, #356]	; 8f1c <emit.constprop.0+0x30c>
    8db4:	e20c4001 	and	r4, ip, #1, 0
    8db8:	e7d14004 	ldrb	r4, [r1, r4]
    8dbc:	e35c0001 	cmp	ip, #1, 0
    8dc0:	e4ce4001 	strb	r4, [lr], #1
    8dc4:	e1a0c0ac 	lsr	ip, ip, #1
    8dc8:	8afffff9 	bhi	8db4 <emit.constprop.0+0x1a4>
    8dcc:	eaffffb8 	b	8cb4 <emit.constprop.0+0xa4>
    8dd0:	e24c3002 	sub	r3, ip, #2, 0
    8dd4:	e1a0c002 	mov	ip, r2
    8dd8:	e353000e 	cmp	r3, #14, 0
    8ddc:	979ff103 	ldrls	pc, [pc, r3, lsl #2]
    8de0:	ea00003d 	b	8edc <emit.constprop.0+0x2cc>
    8de4:	00008da4 	andeq	r8, r0, r4, lsr #27
    8de8:	00008edc 	ldrdeq	r8, [r0], -ip
    8dec:	00008edc 	ldrdeq	r8, [r0], -ip
    8df0:	00008edc 	ldrdeq	r8, [r0], -ip
    8df4:	00008edc 	ldrdeq	r8, [r0], -ip
    8df8:	00008edc 	ldrdeq	r8, [r0], -ip
    8dfc:	00008efc 	strdeq	r8, [r0], -ip
    8e00:	00008edc 	ldrdeq	r8, [r0], -ip
    8e04:	00008e20 	andeq	r8, r0, r0, lsr #28
    8e08:	00008edc 	ldrdeq	r8, [r0], -ip
    8e0c:	00008edc 	ldrdeq	r8, [r0], -ip
    8e10:	00008edc 	ldrdeq	r8, [r0], -ip
    8e14:	00008edc 	ldrdeq	r8, [r0], -ip
    8e18:	00008edc 	ldrdeq	r8, [r0], -ip
    8e1c:	00008c78 	andeq	r8, r0, r8, ror ip
    8e20:	e3a0307f 	mov	r3, #127, 0	; 0x7f
    8e24:	e59d1060 	ldr	r1, [sp, #96]	; 0x60
    8e28:	e59f70f0 	ldr	r7, [pc, #240]	; 8f20 <emit.constprop.0+0x310>
    8e2c:	e0118fa2 	ands	r8, r1, r2, lsr #31
    8e30:	1262c000 	rsbne	ip, r2, #0, 0
    8e34:	e28d2008 	add	r2, sp, #8, 0
    8e38:	13a08001 	movne	r8, #1, 0
    8e3c:	e1a0e002 	mov	lr, r2
    8e40:	e59f60dc 	ldr	r6, [pc, #220]	; 8f24 <emit.constprop.0+0x314>
    8e44:	e1a0500c 	mov	r5, ip
    8e48:	e0814c96 	umull	r4, r1, r6, ip
    8e4c:	e1a011a1 	lsr	r1, r1, #3
    8e50:	e0814101 	add	r4, r1, r1, lsl #2
    8e54:	e04cc084 	sub	ip, ip, r4, lsl #1
    8e58:	e7d7400c 	ldrb	r4, [r7, ip]
    8e5c:	e3550009 	cmp	r5, #9, 0
    8e60:	e1a0c001 	mov	ip, r1
    8e64:	e1a0100e 	mov	r1, lr
    8e68:	e4ce4001 	strb	r4, [lr], #1
    8e6c:	8afffff4 	bhi	8e44 <emit.constprop.0+0x234>
    8e70:	e3580000 	cmp	r8, #0, 0
    8e74:	13a0c02d 	movne	ip, #45, 0	; 0x2d
    8e78:	15cec000 	strbne	ip, [lr]
    8e7c:	1281e002 	addne	lr, r1, #2, 0
    8e80:	eaffff8b 	b	8cb4 <emit.constprop.0+0xa4>
    8e84:	e3530001 	cmp	r3, #1, 0
    8e88:	e5cd2008 	strb	r2, [sp, #8]
    8e8c:	c3a01001 	movgt	r1, #1, 0
    8e90:	c28de009 	addgt	lr, sp, #9, 0
    8e94:	c28d2008 	addgt	r2, sp, #8, 0
    8e98:	caffff88 	bgt	8cc0 <emit.constprop.0+0xb0>
    8e9c:	e3a03000 	mov	r3, #0, 0
    8ea0:	e28de008 	add	lr, sp, #8, 0
    8ea4:	e1a0200e 	mov	r2, lr
    8ea8:	e5cd3009 	strb	r3, [sp, #9]
    8eac:	eaffffaf 	b	8d70 <emit.constprop.0+0x160>
    8eb0:	e1a0e000 	mov	lr, r0
    8eb4:	e3a03000 	mov	r3, #0, 0
    8eb8:	e5ce3000 	strb	r3, [lr]
    8ebc:	e28dd048 	add	sp, sp, #72, 0	; 0x48
    8ec0:	e8bd81f0 	pop	{r4, r5, r6, r7, r8, pc}
    8ec4:	e1a0c001 	mov	ip, r1
    8ec8:	e1a0500e 	mov	r5, lr
    8ecc:	eaffff92 	b	8d1c <emit.constprop.0+0x10c>
    8ed0:	e1a0600e 	mov	r6, lr
    8ed4:	e24ee001 	sub	lr, lr, #1, 0
    8ed8:	eaffff9d 	b	8d54 <emit.constprop.0+0x144>
    8edc:	e59f2044 	ldr	r2, [pc, #68]	; 8f28 <emit.constprop.0+0x318>
    8ee0:	e3a03079 	mov	r3, #121, 0	; 0x79
    8ee4:	e59f1040 	ldr	r1, [pc, #64]	; 8f2c <emit.constprop.0+0x31c>
    8ee8:	e58d2000 	str	r2, [sp]
    8eec:	e59f003c 	ldr	r0, [pc, #60]	; 8f30 <emit.constprop.0+0x320>
    8ef0:	e59f203c 	ldr	r2, [pc, #60]	; 8f34 <emit.constprop.0+0x324>
    8ef4:	ebffff21 	bl	8b80 <printk>
    8ef8:	eb0001b1 	bl	95c4 <clean_reboot>
    8efc:	e5cd2008 	strb	r2, [sp, #8]
    8f00:	e3a0307f 	mov	r3, #127, 0	; 0x7f
    8f04:	e3a01001 	mov	r1, #1, 0
    8f08:	e28de009 	add	lr, sp, #9, 0
    8f0c:	e28d2008 	add	r2, sp, #8, 0
    8f10:	eaffff6a 	b	8cc0 <emit.constprop.0+0xb0>
    8f14:	0000a690 	muleq	r0, r0, r6
    8f18:	20202020 	eorcs	r2, r0, r0, lsr #32
    8f1c:	0000a6a4 	andeq	sl, r0, r4, lsr #13
    8f20:	0000a6a8 	andeq	sl, r0, r8, lsr #13
    8f24:	cccccccd 	stclgt	12, cr12, [ip], {205}	; 0xcd
    8f28:	0000a4ec 	andeq	sl, r0, ip, ror #9
    8f2c:	0000a67c 	andeq	sl, r0, ip, ror r6
    8f30:	0000a268 	andeq	sl, r0, r8, ror #4
    8f34:	0000a7bc 			; <UNDEFINED> instruction: 0x0000a7bc

00008f38 <rpi_set_output>:
    8f38:	e3500000 	cmp	r0, #0, 0
    8f3c:	0a000005 	beq	8f58 <rpi_set_output+0x20>
    8f40:	e59f3038 	ldr	r3, [pc, #56]	; 8f80 <rpi_set_output+0x48>
    8f44:	e3510000 	cmp	r1, #0, 0
    8f48:	e5830000 	str	r0, [r3]
    8f4c:	159f3030 	ldrne	r3, [pc, #48]	; 8f84 <rpi_set_output+0x4c>
    8f50:	15831000 	strne	r1, [r3]
    8f54:	e12fff1e 	bx	lr
    8f58:	e52de004 	push	{lr}		; (str lr, [sp, #-4]!)
    8f5c:	e59f2024 	ldr	r2, [pc, #36]	; 8f88 <rpi_set_output+0x50>
    8f60:	e24dd00c 	sub	sp, sp, #12, 0
    8f64:	e3a03020 	mov	r3, #32, 0
    8f68:	e59f101c 	ldr	r1, [pc, #28]	; 8f8c <rpi_set_output+0x54>
    8f6c:	e58d2000 	str	r2, [sp]
    8f70:	e59f0018 	ldr	r0, [pc, #24]	; 8f90 <rpi_set_output+0x58>
    8f74:	e59f2018 	ldr	r2, [pc, #24]	; 8f94 <rpi_set_output+0x5c>
    8f78:	ebffff00 	bl	8b80 <printk>
    8f7c:	eb000190 	bl	95c4 <clean_reboot>
    8f80:	0000a9f8 	strdeq	sl, [r0], -r8
    8f84:	0000a9e8 	andeq	sl, r0, r8, ror #19
    8f88:	0000a6b4 			; <UNDEFINED> instruction: 0x0000a6b4
    8f8c:	0000a67c 	andeq	sl, r0, ip, ror r6
    8f90:	0000a268 	andeq	sl, r0, r8, ror #4
    8f94:	0000a7c4 	andeq	sl, r0, r4, asr #15

00008f98 <va_printk>:
    8f98:	e92d4ff0 	push	{r4, r5, r6, r7, r8, r9, sl, fp, lr}
    8f9c:	e1a0b000 	mov	fp, r0
    8fa0:	e3a00000 	mov	r0, #0, 0
    8fa4:	e5cb0000 	strb	r0, [fp]
    8fa8:	e5d2c000 	ldrb	ip, [r2]
    8fac:	e2417001 	sub	r7, r1, #1, 0
    8fb0:	e08b7007 	add	r7, fp, r7
    8fb4:	e15c0000 	cmp	ip, r0
    8fb8:	115b0007 	cmpne	fp, r7
    8fbc:	e24ddf47 	sub	sp, sp, #284	; 0x11c
    8fc0:	e58d2010 	str	r2, [sp, #16]
    8fc4:	2a000159 	bcs	9530 <va_printk+0x598>
    8fc8:	e1a06002 	mov	r6, r2
    8fcc:	e1a08003 	mov	r8, r3
    8fd0:	e1a0400b 	mov	r4, fp
    8fd4:	e59fa5a4 	ldr	sl, [pc, #1444]	; 9580 <va_printk+0x5e8>
    8fd8:	e58db00c 	str	fp, [sp, #12]
    8fdc:	ea000005 	b	8ff8 <va_printk+0x60>
    8fe0:	e4c4c001 	strb	ip, [r4], #1
    8fe4:	e2866001 	add	r6, r6, #1, 0
    8fe8:	e5d6c000 	ldrb	ip, [r6]
    8fec:	e35c0000 	cmp	ip, #0, 0
    8ff0:	11570004 	cmpne	r7, r4
    8ff4:	9a00002f 	bls	90b8 <va_printk+0x120>
    8ff8:	e35c0025 	cmp	ip, #37, 0	; 0x25
    8ffc:	1afffff7 	bne	8fe0 <va_printk+0x48>
    9000:	e5d62001 	ldrb	r2, [r6, #1]
    9004:	e3520025 	cmp	r2, #37, 0	; 0x25
    9008:	04c4c001 	strbeq	ip, [r4], #1
    900c:	02866002 	addeq	r6, r6, #2, 0
    9010:	0afffff4 	beq	8fe8 <va_printk+0x50>
    9014:	e2423030 	sub	r3, r2, #48, 0	; 0x30
    9018:	e3530009 	cmp	r3, #9, 0
    901c:	e3a05000 	mov	r5, #0, 0
    9020:	e2866001 	add	r6, r6, #1, 0
    9024:	8a000008 	bhi	904c <va_printk+0xb4>
    9028:	e0855105 	add	r5, r5, r5, lsl #2
    902c:	e0825085 	add	r5, r2, r5, lsl #1
    9030:	e5f62001 	ldrb	r2, [r6, #1]!
    9034:	e2455030 	sub	r5, r5, #48, 0	; 0x30
    9038:	e2423030 	sub	r3, r2, #48, 0	; 0x30
    903c:	e3530009 	cmp	r3, #9, 0
    9040:	9afffff8 	bls	9028 <va_printk+0x90>
    9044:	e355001f 	cmp	r5, #31, 0
    9048:	8a00013a 	bhi	9538 <va_printk+0x5a0>
    904c:	e2423062 	sub	r3, r2, #98, 0	; 0x62
    9050:	e3530016 	cmp	r3, #22, 0
    9054:	979ff103 	ldrls	pc, [pc, r3, lsl #2]
    9058:	ea00011b 	b	94cc <va_printk+0x534>
    905c:	00009310 	andeq	r9, r0, r0, lsl r3
    9060:	0000920c 	andeq	r9, r0, ip, lsl #4
    9064:	00009204 	andeq	r9, r0, r4, lsl #4
    9068:	000094cc 	andeq	r9, r0, ip, asr #9
    906c:	00009508 	andeq	r9, r0, r8, lsl #10
    9070:	000094cc 	andeq	r9, r0, ip, asr #9
    9074:	000094cc 	andeq	r9, r0, ip, asr #9
    9078:	000094cc 	andeq	r9, r0, ip, asr #9
    907c:	000094cc 	andeq	r9, r0, ip, asr #9
    9080:	000094cc 	andeq	r9, r0, ip, asr #9
    9084:	00009114 	andeq	r9, r0, r4, lsl r1
    9088:	000094cc 	andeq	r9, r0, ip, asr #9
    908c:	000094cc 	andeq	r9, r0, ip, asr #9
    9090:	000094cc 	andeq	r9, r0, ip, asr #9
    9094:	000090d0 	ldrdeq	r9, [r0], -r0
    9098:	000094cc 	andeq	r9, r0, ip, asr #9
    909c:	000094cc 	andeq	r9, r0, ip, asr #9
    90a0:	00009408 	andeq	r9, r0, r8, lsl #8
    90a4:	000094cc 	andeq	r9, r0, ip, asr #9
    90a8:	000091e0 	andeq	r9, r0, r0, ror #3
    90ac:	000094cc 	andeq	r9, r0, ip, asr #9
    90b0:	000094cc 	andeq	r9, r0, ip, asr #9
    90b4:	000090d0 	ldrdeq	r9, [r0], -r0
    90b8:	e59db00c 	ldr	fp, [sp, #12]
    90bc:	e3a03000 	mov	r3, #0, 0
    90c0:	e4c43001 	strb	r3, [r4], #1
    90c4:	e044000b 	sub	r0, r4, fp
    90c8:	e28ddf47 	add	sp, sp, #284	; 0x11c
    90cc:	e8bd8ff0 	pop	{r4, r5, r6, r7, r8, r9, sl, fp, pc}
    90d0:	e3a01000 	mov	r1, #0, 0
    90d4:	e1a03005 	mov	r3, r5
    90d8:	e4982004 	ldr	r2, [r8], #4
    90dc:	e3a00010 	mov	r0, #16, 0
    90e0:	e58d1000 	str	r1, [sp]
    90e4:	e28d1018 	add	r1, sp, #24, 0
    90e8:	ebfffec8 	bl	8c10 <emit.constprop.0>
    90ec:	e1a05000 	mov	r5, r0
    90f0:	e2866001 	add	r6, r6, #1, 0
    90f4:	e2455001 	sub	r5, r5, #1, 0
    90f8:	e5f53001 	ldrb	r3, [r5, #1]!
    90fc:	e3530000 	cmp	r3, #0, 0
    9100:	0affffb8 	beq	8fe8 <va_printk+0x50>
    9104:	e4c43001 	strb	r3, [r4], #1
    9108:	e1570004 	cmp	r7, r4
    910c:	8afffff9 	bhi	90f8 <va_printk+0x160>
    9110:	eaffffb4 	b	8fe8 <va_printk+0x50>
    9114:	e3a02003 	mov	r2, #3, 0
    9118:	e1a00006 	mov	r0, r6
    911c:	e59f1460 	ldr	r1, [pc, #1120]	; 9584 <va_printk+0x5ec>
    9120:	eb0003da 	bl	a090 <strncmp>
    9124:	e3500000 	cmp	r0, #0, 0
    9128:	0a000005 	beq	9144 <va_printk+0x1ac>
    912c:	e3a02003 	mov	r2, #3, 0
    9130:	e1a00006 	mov	r0, r6
    9134:	e59f144c 	ldr	r1, [pc, #1100]	; 9588 <va_printk+0x5f0>
    9138:	eb0003d4 	bl	a090 <strncmp>
    913c:	e3500000 	cmp	r0, #0, 0
    9140:	1a00010b 	bne	9574 <va_printk+0x5dc>
    9144:	e2888007 	add	r8, r8, #7, 0
    9148:	e3c88007 	bic	r8, r8, #7, 0
    914c:	e598b004 	ldr	fp, [r8, #4]
    9150:	e4989008 	ldr	r9, [r8], #8
    9154:	e1a0100b 	mov	r1, fp
    9158:	e59f042c 	ldr	r0, [pc, #1068]	; 958c <va_printk+0x5f4>
    915c:	ebfffe87 	bl	8b80 <printk>
    9160:	e1a01009 	mov	r1, r9
    9164:	e59f0424 	ldr	r0, [pc, #1060]	; 9590 <va_printk+0x5f8>
    9168:	ebfffe84 	bl	8b80 <printk>
    916c:	e3a02003 	mov	r2, #3, 0
    9170:	e1a00006 	mov	r0, r6
    9174:	e59f1408 	ldr	r1, [pc, #1032]	; 9584 <va_printk+0x5ec>
    9178:	eb0003c4 	bl	a090 <strncmp>
    917c:	e2503000 	subs	r3, r0, #0, 0
    9180:	e1a02003 	mov	r2, r3
    9184:	e2863002 	add	r3, r6, #2, 0
    9188:	e58d3014 	str	r3, [sp, #20]
    918c:	1a00009f 	bne	9410 <va_printk+0x478>
    9190:	e1a06002 	mov	r6, r2
    9194:	e1a03005 	mov	r3, r5
    9198:	e58d2000 	str	r2, [sp]
    919c:	e28d1018 	add	r1, sp, #24, 0
    91a0:	e1a0200b 	mov	r2, fp
    91a4:	e3a00010 	mov	r0, #16, 0
    91a8:	ebfffe98 	bl	8c10 <emit.constprop.0>
    91ac:	e1a0c000 	mov	ip, r0
    91b0:	e1a03005 	mov	r3, r5
    91b4:	e58d6000 	str	r6, [sp]
    91b8:	e28d1098 	add	r1, sp, #152, 0	; 0x98
    91bc:	e1a02009 	mov	r2, r9
    91c0:	e3a00010 	mov	r0, #16, 0
    91c4:	e1a0500c 	mov	r5, ip
    91c8:	ebfffe90 	bl	8c10 <emit.constprop.0>
    91cc:	e28d0018 	add	r0, sp, #24, 0
    91d0:	e28d109a 	add	r1, sp, #154, 0	; 0x9a
    91d4:	e59d6014 	ldr	r6, [sp, #20]
    91d8:	eb00038a 	bl	a008 <strcat>
    91dc:	eaffffc3 	b	90f0 <va_printk+0x158>
    91e0:	e3a01000 	mov	r1, #0, 0
    91e4:	e1a03005 	mov	r3, r5
    91e8:	e4982004 	ldr	r2, [r8], #4
    91ec:	e3a0000a 	mov	r0, #10, 0
    91f0:	e58d1000 	str	r1, [sp]
    91f4:	e28d1018 	add	r1, sp, #24, 0
    91f8:	ebfffe84 	bl	8c10 <emit.constprop.0>
    91fc:	e1a05000 	mov	r5, r0
    9200:	eaffffba 	b	90f0 <va_printk+0x158>
    9204:	e3a01001 	mov	r1, #1, 0
    9208:	eafffff5 	b	91e4 <va_printk+0x24c>
    920c:	e4983004 	ldr	r3, [r8], #4
    9210:	e3550001 	cmp	r5, #1, 0
    9214:	e5cd3098 	strb	r3, [sp, #152]	; 0x98
    9218:	9a0000a6 	bls	94b8 <va_printk+0x520>
    921c:	e2453002 	sub	r3, r5, #2, 0
    9220:	e3530002 	cmp	r3, #2, 0
    9224:	e2451001 	sub	r1, r5, #1, 0
    9228:	9a0000bc 	bls	9520 <va_printk+0x588>
    922c:	e59f0360 	ldr	r0, [pc, #864]	; 9594 <va_printk+0x5fc>
    9230:	e1a02121 	lsr	r2, r1, #2
    9234:	e3520001 	cmp	r2, #1, 0
    9238:	e58d0099 	str	r0, [sp, #153]	; 0x99
    923c:	0a00000e 	beq	927c <va_printk+0x2e4>
    9240:	e3520002 	cmp	r2, #2, 0
    9244:	e58d009d 	str	r0, [sp, #157]	; 0x9d
    9248:	0a00000b 	beq	927c <va_printk+0x2e4>
    924c:	e3520003 	cmp	r2, #3, 0
    9250:	e58d00a1 	str	r0, [sp, #161]	; 0xa1
    9254:	0a000008 	beq	927c <va_printk+0x2e4>
    9258:	e3520004 	cmp	r2, #4, 0
    925c:	e58d00a5 	str	r0, [sp, #165]	; 0xa5
    9260:	0a000005 	beq	927c <va_printk+0x2e4>
    9264:	e3520005 	cmp	r2, #5, 0
    9268:	e58d00a9 	str	r0, [sp, #169]	; 0xa9
    926c:	0a000002 	beq	927c <va_printk+0x2e4>
    9270:	e3520007 	cmp	r2, #7, 0
    9274:	e58d00ad 	str	r0, [sp, #173]	; 0xad
    9278:	058d00b1 	streq	r0, [sp, #177]	; 0xb1
    927c:	e3c12003 	bic	r2, r1, #3, 0
    9280:	e1510002 	cmp	r1, r2
    9284:	e28dc099 	add	ip, sp, #153, 0	; 0x99
    9288:	e08c0002 	add	r0, ip, r2
    928c:	e2822001 	add	r2, r2, #1, 0
    9290:	0a000008 	beq	92b8 <va_printk+0x320>
    9294:	e3a0e020 	mov	lr, #32, 0
    9298:	e2829001 	add	r9, r2, #1, 0
    929c:	e1550009 	cmp	r5, r9
    92a0:	e5c0e000 	strb	lr, [r0]
    92a4:	da000003 	ble	92b8 <va_printk+0x320>
    92a8:	e2822002 	add	r2, r2, #2, 0
    92ac:	e1550002 	cmp	r5, r2
    92b0:	e5c0e001 	strb	lr, [r0, #1]
    92b4:	c5c0e002 	strbgt	lr, [r0, #2]
    92b8:	e3a0e000 	mov	lr, #0, 0
    92bc:	e28d0098 	add	r0, sp, #152, 0	; 0x98
    92c0:	e08c2001 	add	r2, ip, r1
    92c4:	e0422000 	sub	r2, r2, r0
    92c8:	e352007f 	cmp	r2, #127, 0	; 0x7f
    92cc:	c242207f 	subgt	r2, r2, #127, 0	; 0x7f
    92d0:	e08c3003 	add	r3, ip, r3
    92d4:	c0800002 	addgt	r0, r0, r2
    92d8:	e1530000 	cmp	r3, r0
    92dc:	e7cce001 	strb	lr, [ip, r1]
    92e0:	3a00006c 	bcc	9498 <va_printk+0x500>
    92e4:	e283c001 	add	ip, r3, #1, 0
    92e8:	e1a0300c 	mov	r3, ip
    92ec:	e28d5018 	add	r5, sp, #24, 0
    92f0:	e2452001 	sub	r2, r5, #1, 0
    92f4:	e5731001 	ldrb	r1, [r3, #-1]!
    92f8:	e1500003 	cmp	r0, r3
    92fc:	e5e21001 	strb	r1, [r2, #1]!
    9300:	1afffffb 	bne	92f4 <va_printk+0x35c>
    9304:	e04c3000 	sub	r3, ip, r0
    9308:	e0853003 	add	r3, r5, r3
    930c:	ea00003a 	b	93fc <va_printk+0x464>
    9310:	e28d1098 	add	r1, sp, #152, 0	; 0x98
    9314:	e1a03001 	mov	r3, r1
    9318:	e4980004 	ldr	r0, [r8], #4
    931c:	e200c001 	and	ip, r0, #1, 0
    9320:	e7dac00c 	ldrb	ip, [sl, ip]
    9324:	e3500001 	cmp	r0, #1, 0
    9328:	e1a02003 	mov	r2, r3
    932c:	e1a000a0 	lsr	r0, r0, #1
    9330:	e4c3c001 	strb	ip, [r3], #1
    9334:	8afffff8 	bhi	931c <va_printk+0x384>
    9338:	e0430001 	sub	r0, r3, r1
    933c:	e1550000 	cmp	r5, r0
    9340:	da000057 	ble	94a4 <va_printk+0x50c>
    9344:	e045c000 	sub	ip, r5, r0
    9348:	e24ce001 	sub	lr, ip, #1, 0
    934c:	e35e0002 	cmp	lr, #2, 0
    9350:	e1a0e003 	mov	lr, r3
    9354:	9a00000a 	bls	9384 <va_printk+0x3ec>
    9358:	e3cc9003 	bic	r9, ip, #3, 0
    935c:	e0899003 	add	r9, r9, r3
    9360:	e59fb22c 	ldr	fp, [pc, #556]	; 9594 <va_printk+0x5fc>
    9364:	e48eb004 	str	fp, [lr], #4
    9368:	e15e0009 	cmp	lr, r9
    936c:	1afffffb 	bne	9360 <va_printk+0x3c8>
    9370:	e3cce003 	bic	lr, ip, #3, 0
    9374:	e15e000c 	cmp	lr, ip
    9378:	e080000e 	add	r0, r0, lr
    937c:	e083e00e 	add	lr, r3, lr
    9380:	0a000008 	beq	93a8 <va_printk+0x410>
    9384:	e3a09020 	mov	r9, #32, 0
    9388:	e280b001 	add	fp, r0, #1, 0
    938c:	e155000b 	cmp	r5, fp
    9390:	e5ce9000 	strb	r9, [lr]
    9394:	da000003 	ble	93a8 <va_printk+0x410>
    9398:	e2800002 	add	r0, r0, #2, 0
    939c:	e1550000 	cmp	r5, r0
    93a0:	e5ce9001 	strb	r9, [lr, #1]
    93a4:	c5ce9002 	strbgt	r9, [lr, #2]
    93a8:	e3a0e000 	mov	lr, #0, 0
    93ac:	e083000c 	add	r0, r3, ip
    93b0:	e0400001 	sub	r0, r0, r1
    93b4:	e350007f 	cmp	r0, #127, 0	; 0x7f
    93b8:	e082200c 	add	r2, r2, ip
    93bc:	e7c3e00c 	strb	lr, [r3, ip]
    93c0:	da000001 	ble	93cc <va_printk+0x434>
    93c4:	e240007f 	sub	r0, r0, #127, 0	; 0x7f
    93c8:	e0811000 	add	r1, r1, r0
    93cc:	e1510002 	cmp	r1, r2
    93d0:	8a000030 	bhi	9498 <va_printk+0x500>
    93d4:	e2822001 	add	r2, r2, #1, 0
    93d8:	e1a03002 	mov	r3, r2
    93dc:	e28d5018 	add	r5, sp, #24, 0
    93e0:	e245c001 	sub	ip, r5, #1, 0
    93e4:	e5730001 	ldrb	r0, [r3, #-1]!
    93e8:	e1530001 	cmp	r3, r1
    93ec:	e5ec0001 	strb	r0, [ip, #1]!
    93f0:	1afffffb 	bne	93e4 <va_printk+0x44c>
    93f4:	e0423003 	sub	r3, r2, r3
    93f8:	e0853003 	add	r3, r5, r3
    93fc:	e3a02000 	mov	r2, #0, 0
    9400:	e5c32000 	strb	r2, [r3]
    9404:	eaffff39 	b	90f0 <va_printk+0x158>
    9408:	e4985004 	ldr	r5, [r8], #4
    940c:	eaffff37 	b	90f0 <va_printk+0x158>
    9410:	e3a02003 	mov	r2, #3, 0
    9414:	e1a00006 	mov	r0, r6
    9418:	e59f1168 	ldr	r1, [pc, #360]	; 9588 <va_printk+0x5f0>
    941c:	eb00031b 	bl	a090 <strncmp>
    9420:	e2503000 	subs	r3, r0, #0, 0
    9424:	1a00004b 	bne	9558 <va_printk+0x5c0>
    9428:	e1a06003 	mov	r6, r3
    942c:	e1a0200b 	mov	r2, fp
    9430:	e58d3000 	str	r3, [sp]
    9434:	e28d1018 	add	r1, sp, #24, 0
    9438:	e1a03005 	mov	r3, r5
    943c:	e3a0000a 	mov	r0, #10, 0
    9440:	ebfffdf2 	bl	8c10 <emit.constprop.0>
    9444:	e1a0c000 	mov	ip, r0
    9448:	e1a03005 	mov	r3, r5
    944c:	e1a02009 	mov	r2, r9
    9450:	e28d1098 	add	r1, sp, #152, 0	; 0x98
    9454:	e3a0000a 	mov	r0, #10, 0
    9458:	e58d6000 	str	r6, [sp]
    945c:	e1a0500c 	mov	r5, ip
    9460:	ebfffdea 	bl	8c10 <emit.constprop.0>
    9464:	e59f112c 	ldr	r1, [pc, #300]	; 9598 <va_printk+0x600>
    9468:	e28d0018 	add	r0, sp, #24, 0
    946c:	eb0002f0 	bl	a034 <strcmp>
    9470:	e3500000 	cmp	r0, #0, 0
    9474:	e28d1098 	add	r1, sp, #152, 0	; 0x98
    9478:	e28d0018 	add	r0, sp, #24, 0
    947c:	1a000002 	bne	948c <va_printk+0x4f4>
    9480:	eb0002fc 	bl	a078 <strcpy>
    9484:	e59d6014 	ldr	r6, [sp, #20]
    9488:	eaffff18 	b	90f0 <va_printk+0x158>
    948c:	eb0002dd 	bl	a008 <strcat>
    9490:	e59d6014 	ldr	r6, [sp, #20]
    9494:	eaffff15 	b	90f0 <va_printk+0x158>
    9498:	e28d5018 	add	r5, sp, #24, 0
    949c:	e1a03005 	mov	r3, r5
    94a0:	eaffffd5 	b	93fc <va_printk+0x464>
    94a4:	e3a0c000 	mov	ip, #0, 0
    94a8:	e350007f 	cmp	r0, #127, 0	; 0x7f
    94ac:	e5c3c000 	strb	ip, [r3]
    94b0:	caffffc3 	bgt	93c4 <va_printk+0x42c>
    94b4:	eaffffc6 	b	93d4 <va_printk+0x43c>
    94b8:	e3a02000 	mov	r2, #0, 0
    94bc:	e28d3098 	add	r3, sp, #152, 0	; 0x98
    94c0:	e1a00003 	mov	r0, r3
    94c4:	e5cd2099 	strb	r2, [sp, #153]	; 0x99
    94c8:	eaffff85 	b	92e4 <va_printk+0x34c>
    94cc:	e3a03000 	mov	r3, #0, 0
    94d0:	e1a01002 	mov	r1, r2
    94d4:	e5c63001 	strb	r3, [r6, #1]
    94d8:	e59f00bc 	ldr	r0, [pc, #188]	; 959c <va_printk+0x604>
    94dc:	ebfffda7 	bl	8b80 <printk>
    94e0:	e59f30b8 	ldr	r3, [pc, #184]	; 95a0 <va_printk+0x608>
    94e4:	e59d0010 	ldr	r0, [sp, #16]
    94e8:	e5933000 	ldr	r3, [r3]
    94ec:	e12fff33 	blx	r3
    94f0:	e3a030e2 	mov	r3, #226, 0	; 0xe2
    94f4:	e59f20a8 	ldr	r2, [pc, #168]	; 95a4 <va_printk+0x60c>
    94f8:	e59f10a8 	ldr	r1, [pc, #168]	; 95a8 <va_printk+0x610>
    94fc:	e59f00a8 	ldr	r0, [pc, #168]	; 95ac <va_printk+0x614>
    9500:	ebfffd9e 	bl	8b80 <printk>
    9504:	eb00002e 	bl	95c4 <clean_reboot>
    9508:	e3a030be 	mov	r3, #190, 0	; 0xbe
    950c:	e59f2090 	ldr	r2, [pc, #144]	; 95a4 <va_printk+0x60c>
    9510:	e59f1090 	ldr	r1, [pc, #144]	; 95a8 <va_printk+0x610>
    9514:	e59f0094 	ldr	r0, [pc, #148]	; 95b0 <va_printk+0x618>
    9518:	ebfffd98 	bl	8b80 <printk>
    951c:	eb000028 	bl	95c4 <clean_reboot>
    9520:	e28dc099 	add	ip, sp, #153, 0	; 0x99
    9524:	e1a0000c 	mov	r0, ip
    9528:	e3a02001 	mov	r2, #1, 0
    952c:	eaffff58 	b	9294 <va_printk+0x2fc>
    9530:	e1a0400b 	mov	r4, fp
    9534:	eafffee0 	b	90bc <va_printk+0x124>
    9538:	e3a03098 	mov	r3, #152, 0	; 0x98
    953c:	e59f2070 	ldr	r2, [pc, #112]	; 95b4 <va_printk+0x61c>
    9540:	e59f1060 	ldr	r1, [pc, #96]	; 95a8 <va_printk+0x610>
    9544:	e58d2000 	str	r2, [sp]
    9548:	e59f0068 	ldr	r0, [pc, #104]	; 95b8 <va_printk+0x620>
    954c:	e59f2050 	ldr	r2, [pc, #80]	; 95a4 <va_printk+0x60c>
    9550:	ebfffd8a 	bl	8b80 <printk>
    9554:	eb00001a 	bl	95c4 <clean_reboot>
    9558:	e3a030b6 	mov	r3, #182, 0	; 0xb6
    955c:	e59f2040 	ldr	r2, [pc, #64]	; 95a4 <va_printk+0x60c>
    9560:	e59f1040 	ldr	r1, [pc, #64]	; 95a8 <va_printk+0x610>
    9564:	e59f0050 	ldr	r0, [pc, #80]	; 95bc <va_printk+0x624>
    9568:	e58d6000 	str	r6, [sp]
    956c:	ebfffd83 	bl	8b80 <printk>
    9570:	eb000013 	bl	95c4 <clean_reboot>
    9574:	e3a0309f 	mov	r3, #159, 0	; 0x9f
    9578:	e59f2040 	ldr	r2, [pc, #64]	; 95c0 <va_printk+0x628>
    957c:	eaffffef 	b	9540 <va_printk+0x5a8>
    9580:	0000a6a4 	andeq	sl, r0, r4, lsr #13
    9584:	0000a6c8 	andeq	sl, r0, r8, asr #13
    9588:	0000a6dc 	ldrdeq	sl, [r0], -ip
    958c:	0000a6cc 	andeq	sl, r0, ip, asr #13
    9590:	0000a6d4 	ldrdeq	sl, [r0], -r4
    9594:	20202020 	eorcs	r2, r0, r0, lsr #32
    9598:	0000a4ec 	andeq	sl, r0, ip, ror #9
    959c:	0000a76c 	andeq	sl, r0, ip, ror #14
    95a0:	0000a9e8 	andeq	sl, r0, r8, ror #19
    95a4:	0000a7d4 	ldrdeq	sl, [r0], -r4
    95a8:	0000a67c 	andeq	sl, r0, ip, ror r6
    95ac:	0000a79c 	muleq	r0, ip, r7
    95b0:	0000a744 	andeq	sl, r0, r4, asr #14
    95b4:	0000a6bc 			; <UNDEFINED> instruction: 0x0000a6bc
    95b8:	0000a268 	andeq	sl, r0, r8, ror #4
    95bc:	0000a71c 	andeq	sl, r0, ip, lsl r7
    95c0:	0000a6e0 	andeq	sl, r0, r0, ror #13

000095c4 <clean_reboot>:
    95c4:	e59f301c 	ldr	r3, [pc, #28]	; 95e8 <clean_reboot+0x24>
    95c8:	e92d4010 	push	{r4, lr}
    95cc:	e5933000 	ldr	r3, [r3]
    95d0:	e59f0014 	ldr	r0, [pc, #20]	; 95ec <clean_reboot+0x28>
    95d4:	e12fff33 	blx	r3
    95d8:	eb00011b 	bl	9a4c <uart_flush_tx>
    95dc:	e3a0000a 	mov	r0, #10, 0
    95e0:	eb000082 	bl	97f0 <delay_ms>
    95e4:	eb00004b 	bl	9718 <rpi_reboot>
    95e8:	0000a9e8 	andeq	sl, r0, r8, ror #19
    95ec:	0000a7e0 	andeq	sl, r0, r0, ror #15

000095f0 <_cstart>:
    95f0:	e92d4070 	push	{r4, r5, r6, lr}
    95f4:	eb00003b 	bl	96e8 <custom_loader>
    95f8:	e59f20e0 	ldr	r2, [pc, #224]	; 96e0 <_cstart+0xf0>
    95fc:	e59fc0e0 	ldr	ip, [pc, #224]	; 96e4 <_cstart+0xf4>
    9600:	e152000c 	cmp	r2, ip
    9604:	2a00002e 	bcs	96c4 <_cstart+0xd4>
    9608:	e24c1001 	sub	r1, ip, #1, 0
    960c:	e0411002 	sub	r1, r1, r2
    9610:	e3510017 	cmp	r1, #23, 0
    9614:	e1a03122 	lsr	r3, r2, #2
    9618:	e1a01121 	lsr	r1, r1, #2
    961c:	e2811001 	add	r1, r1, #1, 0
    9620:	e2033001 	and	r3, r3, #1, 0
    9624:	9a00002b 	bls	96d8 <_cstart+0xe8>
    9628:	e3530000 	cmp	r3, #0, 0
    962c:	11a00002 	movne	r0, r2
    9630:	13a0e000 	movne	lr, #0, 0
    9634:	e3a04000 	mov	r4, #0, 0
    9638:	e3a05000 	mov	r5, #0, 0
    963c:	e0411003 	sub	r1, r1, r3
    9640:	01a00002 	moveq	r0, r2
    9644:	e0823103 	add	r3, r2, r3, lsl #2
    9648:	e1a020a1 	lsr	r2, r1, #1
    964c:	1480e004 	strne	lr, [r0], #4
    9650:	e0832182 	add	r2, r3, r2, lsl #3
    9654:	e0c340f8 	strd	r4, [r3], #8
    9658:	e1520003 	cmp	r2, r3
    965c:	1afffffc 	bne	9654 <_cstart+0x64>
    9660:	e3c13001 	bic	r3, r1, #1, 0
    9664:	e1510003 	cmp	r1, r3
    9668:	e0803103 	add	r3, r0, r3, lsl #2
    966c:	0a000014 	beq	96c4 <_cstart+0xd4>
    9670:	e1a01003 	mov	r1, r3
    9674:	e3a02000 	mov	r2, #0, 0
    9678:	e4812004 	str	r2, [r1], #4
    967c:	e151000c 	cmp	r1, ip
    9680:	2a00000f 	bcs	96c4 <_cstart+0xd4>
    9684:	e2831008 	add	r1, r3, #8, 0
    9688:	e151000c 	cmp	r1, ip
    968c:	e5832004 	str	r2, [r3, #4]
    9690:	2a00000b 	bcs	96c4 <_cstart+0xd4>
    9694:	e283100c 	add	r1, r3, #12, 0
    9698:	e151000c 	cmp	r1, ip
    969c:	e5832008 	str	r2, [r3, #8]
    96a0:	2a000007 	bcs	96c4 <_cstart+0xd4>
    96a4:	e2831010 	add	r1, r3, #16, 0
    96a8:	e151000c 	cmp	r1, ip
    96ac:	e583200c 	str	r2, [r3, #12]
    96b0:	2a000003 	bcs	96c4 <_cstart+0xd4>
    96b4:	e2831014 	add	r1, r3, #20, 0
    96b8:	e151000c 	cmp	r1, ip
    96bc:	e5832010 	str	r2, [r3, #16]
    96c0:	35832014 	strcc	r2, [r3, #20]
    96c4:	eb000082 	bl	98d4 <uart_init>
    96c8:	e3a03001 	mov	r3, #1, 0
    96cc:	ee0f3f1c 	mcr	15, 0, r3, cr15, cr12, {0}
    96d0:	ebfffa6f 	bl	8094 <notmain>
    96d4:	ebffffba 	bl	95c4 <clean_reboot>
    96d8:	e1a03002 	mov	r3, r2
    96dc:	eaffffe3 	b	9670 <_cstart+0x80>
    96e0:	0000aa00 	andeq	sl, r0, r0, lsl #20
    96e4:	0000ae28 	andeq	sl, r0, r8, lsr #28

000096e8 <custom_loader>:
    96e8:	e12fff1e 	bx	lr

000096ec <at_user_level>:
    96ec:	e10f0000 	mrs	r0, CPSR
    96f0:	e200001f 	and	r0, r0, #31, 0
    96f4:	e2400010 	sub	r0, r0, #16, 0
    96f8:	e16f0f10 	clz	r0, r0
    96fc:	e1a002a0 	lsr	r0, r0, #5
    9700:	e12fff1e 	bx	lr

00009704 <set_user_level>:
    9704:	e10f3000 	mrs	r3, CPSR
    9708:	e3c3301f 	bic	r3, r3, #31, 0
    970c:	e3833010 	orr	r3, r3, #16, 0
    9710:	e129f003 	msr	CPSR_fc, r3
    9714:	e12fff1e 	bx	lr

00009718 <rpi_reboot>:
    9718:	e92d4010 	push	{r4, lr}
    971c:	e10f3000 	mrs	r3, CPSR
    9720:	e203301f 	and	r3, r3, #31, 0
    9724:	e3530010 	cmp	r3, #16, 0
    9728:	1a000003 	bne	973c <rpi_reboot+0x24>
    972c:	e10f3000 	mrs	r3, CPSR
    9730:	e3c3301f 	bic	r3, r3, #31, 0
    9734:	e3833010 	orr	r3, r3, #16, 0
    9738:	e129f003 	msr	CPSR_fc, r3
    973c:	eb00025f 	bl	a0c0 <reboot_callout>
    9740:	eb0000c1 	bl	9a4c <uart_flush_tx>
    9744:	e3a0000a 	mov	r0, #10, 0
    9748:	eb000028 	bl	97f0 <delay_ms>
    974c:	e59f1014 	ldr	r1, [pc, #20]	; 9768 <rpi_reboot+0x50>
    9750:	e59f0014 	ldr	r0, [pc, #20]	; 976c <rpi_reboot+0x54>
    9754:	ebfffa32 	bl	8024 <PUT32>
    9758:	e59f1010 	ldr	r1, [pc, #16]	; 9770 <rpi_reboot+0x58>
    975c:	e59f0010 	ldr	r0, [pc, #16]	; 9774 <rpi_reboot+0x5c>
    9760:	ebfffa2f 	bl	8024 <PUT32>
    9764:	eafffffe 	b	9764 <rpi_reboot+0x4c>
    9768:	5a000001 	bpl	9774 <rpi_reboot+0x5c>
    976c:	20100024 	andscs	r0, r0, r4, lsr #32
    9770:	5a000020 	bpl	97f8 <delay_ms+0x8>
    9774:	2010001c 	andscs	r0, r0, ip, lsl r0

00009778 <timer_get_usec_raw>:
    9778:	e59f0000 	ldr	r0, [pc]	; 9780 <timer_get_usec_raw+0x8>
    977c:	eafffa2a 	b	802c <GET32>
    9780:	20003004 	andcs	r3, r0, r4

00009784 <timer_get_usec>:
    9784:	e92d4010 	push	{r4, lr}
    9788:	eb00024d 	bl	a0c4 <dev_barrier>
    978c:	e59f0010 	ldr	r0, [pc, #16]	; 97a4 <timer_get_usec+0x20>
    9790:	ebfffa25 	bl	802c <GET32>
    9794:	e1a04000 	mov	r4, r0
    9798:	eb000249 	bl	a0c4 <dev_barrier>
    979c:	e1a00004 	mov	r0, r4
    97a0:	e8bd8010 	pop	{r4, pc}
    97a4:	20003004 	andcs	r3, r0, r4

000097a8 <delay_us>:
    97a8:	e92d41f0 	push	{r4, r5, r6, r7, r8, lr}
    97ac:	e1a06000 	mov	r6, r0
    97b0:	eb000243 	bl	a0c4 <dev_barrier>
    97b4:	e59f0030 	ldr	r0, [pc, #48]	; 97ec <delay_us+0x44>
    97b8:	ebfffa1b 	bl	802c <GET32>
    97bc:	e1a05000 	mov	r5, r0
    97c0:	eb00023f 	bl	a0c4 <dev_barrier>
    97c4:	e59f7020 	ldr	r7, [pc, #32]	; 97ec <delay_us+0x44>
    97c8:	eb00023d 	bl	a0c4 <dev_barrier>
    97cc:	e1a00007 	mov	r0, r7
    97d0:	ebfffa15 	bl	802c <GET32>
    97d4:	e1a04000 	mov	r4, r0
    97d8:	e0444005 	sub	r4, r4, r5
    97dc:	eb000238 	bl	a0c4 <dev_barrier>
    97e0:	e1540006 	cmp	r4, r6
    97e4:	3afffff7 	bcc	97c8 <delay_us+0x20>
    97e8:	e8bd81f0 	pop	{r4, r5, r6, r7, r8, pc}
    97ec:	20003004 	andcs	r3, r0, r4

000097f0 <delay_ms>:
    97f0:	e92d41f0 	push	{r4, r5, r6, r7, r8, lr}
    97f4:	e0604280 	rsb	r4, r0, r0, lsl #5
    97f8:	e0800104 	add	r0, r0, r4, lsl #2
    97fc:	e1a04180 	lsl	r4, r0, #3
    9800:	eb00022f 	bl	a0c4 <dev_barrier>
    9804:	e59f0030 	ldr	r0, [pc, #48]	; 983c <delay_ms+0x4c>
    9808:	ebfffa07 	bl	802c <GET32>
    980c:	e1a06000 	mov	r6, r0
    9810:	eb00022b 	bl	a0c4 <dev_barrier>
    9814:	e59f7020 	ldr	r7, [pc, #32]	; 983c <delay_ms+0x4c>
    9818:	eb000229 	bl	a0c4 <dev_barrier>
    981c:	e1a00007 	mov	r0, r7
    9820:	ebfffa01 	bl	802c <GET32>
    9824:	e1a05000 	mov	r5, r0
    9828:	e0455006 	sub	r5, r5, r6
    982c:	eb000224 	bl	a0c4 <dev_barrier>
    9830:	e1540005 	cmp	r4, r5
    9834:	8afffff7 	bhi	9818 <delay_ms+0x28>
    9838:	e8bd81f0 	pop	{r4, r5, r6, r7, r8, pc}
    983c:	20003004 	andcs	r3, r0, r4

00009840 <delay_sec>:
    9840:	e92d41f0 	push	{r4, r5, r6, r7, r8, lr}
    9844:	e0604280 	rsb	r4, r0, r0, lsl #5
    9848:	e0644304 	rsb	r4, r4, r4, lsl #6
    984c:	e0800184 	add	r0, r0, r4, lsl #3
    9850:	e1a04300 	lsl	r4, r0, #6
    9854:	eb00021a 	bl	a0c4 <dev_barrier>
    9858:	e59f0030 	ldr	r0, [pc, #48]	; 9890 <delay_sec+0x50>
    985c:	ebfff9f2 	bl	802c <GET32>
    9860:	e1a06000 	mov	r6, r0
    9864:	eb000216 	bl	a0c4 <dev_barrier>
    9868:	e59f7020 	ldr	r7, [pc, #32]	; 9890 <delay_sec+0x50>
    986c:	eb000214 	bl	a0c4 <dev_barrier>
    9870:	e1a00007 	mov	r0, r7
    9874:	ebfff9ec 	bl	802c <GET32>
    9878:	e1a05000 	mov	r5, r0
    987c:	e0455006 	sub	r5, r5, r6
    9880:	eb00020f 	bl	a0c4 <dev_barrier>
    9884:	e1540005 	cmp	r4, r5
    9888:	8afffff7 	bhi	986c <delay_sec+0x2c>
    988c:	e8bd81f0 	pop	{r4, r5, r6, r7, r8, pc}
    9890:	20003004 	andcs	r3, r0, r4

00009894 <and_in32>:
    9894:	e92d4070 	push	{r4, r5, r6, lr}
    9898:	e1a04000 	mov	r4, r0
    989c:	e1a05001 	mov	r5, r1
    98a0:	ebfff9e1 	bl	802c <GET32>
    98a4:	e0001005 	and	r1, r0, r5
    98a8:	e1a00004 	mov	r0, r4
    98ac:	ebfff9dc 	bl	8024 <PUT32>
    98b0:	e8bd8070 	pop	{r4, r5, r6, pc}

000098b4 <or_in32>:
    98b4:	e92d4070 	push	{r4, r5, r6, lr}
    98b8:	e1a04000 	mov	r4, r0
    98bc:	e1a05001 	mov	r5, r1
    98c0:	ebfff9d9 	bl	802c <GET32>
    98c4:	e1801005 	orr	r1, r0, r5
    98c8:	e1a00004 	mov	r0, r4
    98cc:	ebfff9d4 	bl	8024 <PUT32>
    98d0:	e8bd8070 	pop	{r4, r5, r6, pc}

000098d4 <uart_init>:
    98d4:	e92d4010 	push	{r4, lr}
    98d8:	e3a01002 	mov	r1, #2, 0
    98dc:	e3a0000e 	mov	r0, #14, 0
    98e0:	eb000153 	bl	9e34 <gpio_set_function>
    98e4:	e3a01002 	mov	r1, #2, 0
    98e8:	e3a0000f 	mov	r0, #15, 0
    98ec:	eb000150 	bl	9e34 <gpio_set_function>
    98f0:	eb0001f3 	bl	a0c4 <dev_barrier>
    98f4:	e3a01001 	mov	r1, #1, 0
    98f8:	e59f0064 	ldr	r0, [pc, #100]	; 9964 <uart_init+0x90>
    98fc:	ebffffec 	bl	98b4 <or_in32>
    9900:	eb0001ef 	bl	a0c4 <dev_barrier>
    9904:	e59f405c 	ldr	r4, [pc, #92]	; 9968 <uart_init+0x94>
    9908:	e3a01000 	mov	r1, #0, 0
    990c:	e1a00004 	mov	r0, r4
    9910:	ebfff9c3 	bl	8024 <PUT32>
    9914:	e3a01000 	mov	r1, #0, 0
    9918:	e59f004c 	ldr	r0, [pc, #76]	; 996c <uart_init+0x98>
    991c:	ebfff9c0 	bl	8024 <PUT32>
    9920:	e3a01003 	mov	r1, #3, 0
    9924:	e59f0044 	ldr	r0, [pc, #68]	; 9970 <uart_init+0x9c>
    9928:	ebfff9bd 	bl	8024 <PUT32>
    992c:	e3a01000 	mov	r1, #0, 0
    9930:	e59f003c 	ldr	r0, [pc, #60]	; 9974 <uart_init+0xa0>
    9934:	ebfff9ba 	bl	8024 <PUT32>
    9938:	e3a010c7 	mov	r1, #199, 0	; 0xc7
    993c:	e59f0034 	ldr	r0, [pc, #52]	; 9978 <uart_init+0xa4>
    9940:	ebfff9b7 	bl	8024 <PUT32>
    9944:	e59f1030 	ldr	r1, [pc, #48]	; 997c <uart_init+0xa8>
    9948:	e59f0030 	ldr	r0, [pc, #48]	; 9980 <uart_init+0xac>
    994c:	ebfff9b4 	bl	8024 <PUT32>
    9950:	e3a01003 	mov	r1, #3, 0
    9954:	e1a00004 	mov	r0, r4
    9958:	ebfff9b1 	bl	8024 <PUT32>
    995c:	eb0001d8 	bl	a0c4 <dev_barrier>
    9960:	e8bd8010 	pop	{r4, pc}
    9964:	20215004 	eorcs	r5, r1, r4
    9968:	20215060 	eorcs	r5, r1, r0, rrx
    996c:	20215044 	eorcs	r5, r1, r4, asr #32
    9970:	2021504c 	eorcs	r5, r1, ip, asr #32
    9974:	20215050 	eorcs	r5, r1, r0, asr r0
    9978:	20215048 	eorcs	r5, r1, r8, asr #32
    997c:	0000010e 	andeq	r0, r0, lr, lsl #2
    9980:	20215068 	eorcs	r5, r1, r8, rrx

00009984 <uart_can_getc>:
    9984:	e92d4010 	push	{r4, lr}
    9988:	e59f0008 	ldr	r0, [pc, #8]	; 9998 <uart_can_getc+0x14>
    998c:	ebfff9a6 	bl	802c <GET32>
    9990:	e2000001 	and	r0, r0, #1, 0
    9994:	e8bd8010 	pop	{r4, pc}
    9998:	20215064 	eorcs	r5, r1, r4, rrx

0000999c <uart_can_putc>:
    999c:	e92d4010 	push	{r4, lr}
    99a0:	e59f0010 	ldr	r0, [pc, #16]	; 99b8 <uart_can_putc+0x1c>
    99a4:	ebfff9a0 	bl	802c <GET32>
    99a8:	e3100002 	tst	r0, #2, 0
    99ac:	13a00001 	movne	r0, #1, 0
    99b0:	03a00000 	moveq	r0, #0, 0
    99b4:	e8bd8010 	pop	{r4, pc}
    99b8:	20215064 	eorcs	r5, r1, r4, rrx

000099bc <uart_getc>:
    99bc:	e92d4010 	push	{r4, lr}
    99c0:	eb0001bf 	bl	a0c4 <dev_barrier>
    99c4:	ebffffee 	bl	9984 <uart_can_getc>
    99c8:	e3500000 	cmp	r0, #0, 0
    99cc:	0afffffc 	beq	99c4 <uart_getc+0x8>
    99d0:	e59f0010 	ldr	r0, [pc, #16]	; 99e8 <uart_getc+0x2c>
    99d4:	ebfff994 	bl	802c <GET32>
    99d8:	e6ef4070 	uxtb	r4, r0
    99dc:	eb0001b8 	bl	a0c4 <dev_barrier>
    99e0:	e1a00004 	mov	r0, r4
    99e4:	e8bd8010 	pop	{r4, pc}
    99e8:	20215040 	eorcs	r5, r1, r0, asr #32

000099ec <uart_putc>:
    99ec:	e92d4010 	push	{r4, lr}
    99f0:	e1a04000 	mov	r4, r0
    99f4:	eb0001b2 	bl	a0c4 <dev_barrier>
    99f8:	ebffffe7 	bl	999c <uart_can_putc>
    99fc:	e3500000 	cmp	r0, #0, 0
    9a00:	0afffffc 	beq	99f8 <uart_putc+0xc>
    9a04:	e6ef1074 	uxtb	r1, r4
    9a08:	e59f0008 	ldr	r0, [pc, #8]	; 9a18 <uart_putc+0x2c>
    9a0c:	ebfff984 	bl	8024 <PUT32>
    9a10:	eb0001ab 	bl	a0c4 <dev_barrier>
    9a14:	e8bd8010 	pop	{r4, pc}
    9a18:	20215040 	eorcs	r5, r1, r0, asr #32

00009a1c <uart_has_data>:
    9a1c:	e92d4010 	push	{r4, lr}
    9a20:	eb0001a7 	bl	a0c4 <dev_barrier>
    9a24:	ebffffd6 	bl	9984 <uart_can_getc>
    9a28:	e8bd8010 	pop	{r4, pc}

00009a2c <uart_tx_is_empty>:
    9a2c:	e92d4010 	push	{r4, lr}
    9a30:	eb0001a3 	bl	a0c4 <dev_barrier>
    9a34:	e59f000c 	ldr	r0, [pc, #12]	; 9a48 <uart_tx_is_empty+0x1c>
    9a38:	ebfff97b 	bl	802c <GET32>
    9a3c:	e1a004a0 	lsr	r0, r0, #9
    9a40:	e2000001 	and	r0, r0, #1, 0
    9a44:	e8bd8010 	pop	{r4, pc}
    9a48:	20215064 	eorcs	r5, r1, r4, rrx

00009a4c <uart_flush_tx>:
    9a4c:	e92d4010 	push	{r4, lr}
    9a50:	ebfffff5 	bl	9a2c <uart_tx_is_empty>
    9a54:	e3500000 	cmp	r0, #0, 0
    9a58:	0afffffc 	beq	9a50 <uart_flush_tx+0x4>
    9a5c:	e8bd8010 	pop	{r4, pc}

00009a60 <uart_disable>:
    9a60:	e92d4010 	push	{r4, lr}
    9a64:	ebfffff8 	bl	9a4c <uart_flush_tx>
    9a68:	eb000195 	bl	a0c4 <dev_barrier>
    9a6c:	e3e01001 	mvn	r1, #1, 0
    9a70:	e59f0008 	ldr	r0, [pc, #8]	; 9a80 <uart_disable+0x20>
    9a74:	ebffff86 	bl	9894 <and_in32>
    9a78:	eb000191 	bl	a0c4 <dev_barrier>
    9a7c:	e8bd8010 	pop	{r4, pc}
    9a80:	20215004 	eorcs	r5, r1, r4

00009a84 <kmalloc_heap_end>:
    9a84:	e59f3004 	ldr	r3, [pc, #4]	; 9a90 <kmalloc_heap_end+0xc>
    9a88:	e5930000 	ldr	r0, [r3]
    9a8c:	e12fff1e 	bx	lr
    9a90:	0000a9ec 	andeq	sl, r0, ip, ror #19

00009a94 <kmalloc_heap_start>:
    9a94:	e59f3004 	ldr	r3, [pc, #4]	; 9aa0 <kmalloc_heap_start+0xc>
    9a98:	e5930004 	ldr	r0, [r3, #4]
    9a9c:	e12fff1e 	bx	lr
    9aa0:	0000a9ec 	andeq	sl, r0, ip, ror #19

00009aa4 <kmalloc_heap_ptr>:
    9aa4:	e59f3004 	ldr	r3, [pc, #4]	; 9ab0 <kmalloc_heap_ptr+0xc>
    9aa8:	e5930000 	ldr	r0, [r3]
    9aac:	e12fff1e 	bx	lr
    9ab0:	0000a9ec 	andeq	sl, r0, ip, ror #19

00009ab4 <kmalloc_init_set_start>:
    9ab4:	e52de004 	push	{lr}		; (str lr, [sp, #-4]!)
    9ab8:	e24dd00c 	sub	sp, sp, #12, 0
    9abc:	e3510000 	cmp	r1, #0, 0
    9ac0:	0a00000a 	beq	9af0 <kmalloc_init_set_start+0x3c>
    9ac4:	e59f306c 	ldr	r3, [pc, #108]	; 9b38 <kmalloc_init_set_start+0x84>
    9ac8:	e5933000 	ldr	r3, [r3]
    9acc:	e1530000 	cmp	r3, r0
    9ad0:	8a00000e 	bhi	9b10 <kmalloc_init_set_start+0x5c>
    9ad4:	e59f305c 	ldr	r3, [pc, #92]	; 9b38 <kmalloc_init_set_start+0x84>
    9ad8:	e5830000 	str	r0, [r3]
    9adc:	e5830004 	str	r0, [r3, #4]
    9ae0:	e0800001 	add	r0, r0, r1
    9ae4:	e5830008 	str	r0, [r3, #8]
    9ae8:	e28dd00c 	add	sp, sp, #12, 0
    9aec:	e49df004 	pop	{pc}		; (ldr pc, [sp], #4)
    9af0:	e59f3044 	ldr	r3, [pc, #68]	; 9b3c <kmalloc_init_set_start+0x88>
    9af4:	e58d3000 	str	r3, [sp]
    9af8:	e3a03030 	mov	r3, #48, 0	; 0x30
    9afc:	e59f203c 	ldr	r2, [pc, #60]	; 9b40 <kmalloc_init_set_start+0x8c>
    9b00:	e59f103c 	ldr	r1, [pc, #60]	; 9b44 <kmalloc_init_set_start+0x90>
    9b04:	e59f003c 	ldr	r0, [pc, #60]	; 9b48 <kmalloc_init_set_start+0x94>
    9b08:	ebfffc1c 	bl	8b80 <printk>
    9b0c:	ebfffeac 	bl	95c4 <clean_reboot>
    9b10:	e59f3020 	ldr	r3, [pc, #32]	; 9b38 <kmalloc_init_set_start+0x84>
    9b14:	e5933008 	ldr	r3, [r3, #8]
    9b18:	e58d3004 	str	r3, [sp, #4]
    9b1c:	e58d0000 	str	r0, [sp]
    9b20:	e3a03034 	mov	r3, #52, 0	; 0x34
    9b24:	e59f2014 	ldr	r2, [pc, #20]	; 9b40 <kmalloc_init_set_start+0x8c>
    9b28:	e59f1014 	ldr	r1, [pc, #20]	; 9b44 <kmalloc_init_set_start+0x90>
    9b2c:	e59f0018 	ldr	r0, [pc, #24]	; 9b4c <kmalloc_init_set_start+0x98>
    9b30:	ebfffc12 	bl	8b80 <printk>
    9b34:	ebfffea2 	bl	95c4 <clean_reboot>
    9b38:	0000a9ec 	andeq	sl, r0, ip, ror #19
    9b3c:	0000a7f8 	strdeq	sl, [r0], -r8
    9b40:	0000a984 	andeq	sl, r0, r4, lsl #19
    9b44:	0000a7ec 	andeq	sl, r0, ip, ror #15
    9b48:	0000a268 	andeq	sl, r0, r8, ror #4
    9b4c:	0000a804 	andeq	sl, r0, r4, lsl #16

00009b50 <kmalloc_init>:
    9b50:	e92d4010 	push	{r4, lr}
    9b54:	e59f303c 	ldr	r3, [pc, #60]	; 9b98 <kmalloc_init+0x48>
    9b58:	e5933000 	ldr	r3, [r3]
    9b5c:	e3530000 	cmp	r3, #0, 0
    9b60:	1a000006 	bne	9b80 <kmalloc_init+0x30>
    9b64:	e59f302c 	ldr	r3, [pc, #44]	; 9b98 <kmalloc_init+0x48>
    9b68:	e3a02001 	mov	r2, #1, 0
    9b6c:	e5832000 	str	r2, [r3]
    9b70:	e3a01201 	mov	r1, #268435456	; 0x10000000
    9b74:	e3a00601 	mov	r0, #1048576	; 0x100000
    9b78:	ebffffcd 	bl	9ab4 <kmalloc_init_set_start>
    9b7c:	e8bd8010 	pop	{r4, pc}
    9b80:	e3a03040 	mov	r3, #64, 0	; 0x40
    9b84:	e59f2010 	ldr	r2, [pc, #16]	; 9b9c <kmalloc_init+0x4c>
    9b88:	e59f1010 	ldr	r1, [pc, #16]	; 9ba0 <kmalloc_init+0x50>
    9b8c:	e59f0010 	ldr	r0, [pc, #16]	; 9ba4 <kmalloc_init+0x54>
    9b90:	ebfffbfa 	bl	8b80 <printk>
    9b94:	ebfffe8a 	bl	95c4 <clean_reboot>
    9b98:	0000ae24 	andeq	sl, r0, r4, lsr #28
    9b9c:	0000a99c 	muleq	r0, ip, r9
    9ba0:	0000a7ec 	andeq	sl, r0, ip, ror #15
    9ba4:	0000a848 	andeq	sl, r0, r8, asr #16

00009ba8 <kmalloc_notzero>:
    9ba8:	e52de004 	push	{lr}		; (str lr, [sp, #-4]!)
    9bac:	e24dd00c 	sub	sp, sp, #12, 0
    9bb0:	e3500000 	cmp	r0, #0, 0
    9bb4:	0a00000a 	beq	9be4 <kmalloc_notzero+0x3c>
    9bb8:	e2800007 	add	r0, r0, #7, 0
    9bbc:	e3c03007 	bic	r3, r0, #7, 0
    9bc0:	e59f2060 	ldr	r2, [pc, #96]	; 9c28 <kmalloc_notzero+0x80>
    9bc4:	e5920000 	ldr	r0, [r2]
    9bc8:	e0801003 	add	r1, r0, r3
    9bcc:	e5821000 	str	r1, [r2]
    9bd0:	e5922008 	ldr	r2, [r2, #8]
    9bd4:	e1510002 	cmp	r1, r2
    9bd8:	8a000009 	bhi	9c04 <kmalloc_notzero+0x5c>
    9bdc:	e28dd00c 	add	sp, sp, #12, 0
    9be0:	e49df004 	pop	{pc}		; (ldr pc, [sp], #4)
    9be4:	e59f3040 	ldr	r3, [pc, #64]	; 9c2c <kmalloc_notzero+0x84>
    9be8:	e58d3000 	str	r3, [sp]
    9bec:	e3a03048 	mov	r3, #72, 0	; 0x48
    9bf0:	e59f2038 	ldr	r2, [pc, #56]	; 9c30 <kmalloc_notzero+0x88>
    9bf4:	e59f1038 	ldr	r1, [pc, #56]	; 9c34 <kmalloc_notzero+0x8c>
    9bf8:	e59f0038 	ldr	r0, [pc, #56]	; 9c38 <kmalloc_notzero+0x90>
    9bfc:	ebfffbdf 	bl	8b80 <printk>
    9c00:	ebfffe6f 	bl	95c4 <clean_reboot>
    9c04:	e0422000 	sub	r2, r2, r0
    9c08:	e58d2004 	str	r2, [sp, #4]
    9c0c:	e58d3000 	str	r3, [sp]
    9c10:	e3a0304e 	mov	r3, #78, 0	; 0x4e
    9c14:	e59f2014 	ldr	r2, [pc, #20]	; 9c30 <kmalloc_notzero+0x88>
    9c18:	e59f1014 	ldr	r1, [pc, #20]	; 9c34 <kmalloc_notzero+0x8c>
    9c1c:	e59f0018 	ldr	r0, [pc, #24]	; 9c3c <kmalloc_notzero+0x94>
    9c20:	ebfffbd6 	bl	8b80 <printk>
    9c24:	ebfffe66 	bl	95c4 <clean_reboot>
    9c28:	0000a9ec 	andeq	sl, r0, ip, ror #19
    9c2c:	0000a7fc 	strdeq	sl, [r0], -ip
    9c30:	0000a9ac 	andeq	sl, r0, ip, lsr #19
    9c34:	0000a7ec 	andeq	sl, r0, ip, ror #15
    9c38:	0000a268 	andeq	sl, r0, r8, ror #4
    9c3c:	0000a878 	andeq	sl, r0, r8, ror r8

00009c40 <kmalloc>:
    9c40:	e92d4030 	push	{r4, r5, lr}
    9c44:	e24dd00c 	sub	sp, sp, #12, 0
    9c48:	e2504000 	subs	r4, r0, #0, 0
    9c4c:	0a000008 	beq	9c74 <kmalloc+0x34>
    9c50:	e1a00004 	mov	r0, r4
    9c54:	ebffffd3 	bl	9ba8 <kmalloc_notzero>
    9c58:	e1a05000 	mov	r5, r0
    9c5c:	e1a02004 	mov	r2, r4
    9c60:	e3a01000 	mov	r1, #0, 0
    9c64:	ebfffba7 	bl	8b08 <memset>
    9c68:	e1a00005 	mov	r0, r5
    9c6c:	e28dd00c 	add	sp, sp, #12, 0
    9c70:	e8bd8030 	pop	{r4, r5, pc}
    9c74:	e59f3018 	ldr	r3, [pc, #24]	; 9c94 <kmalloc+0x54>
    9c78:	e58d3000 	str	r3, [sp]
    9c7c:	e3a03054 	mov	r3, #84, 0	; 0x54
    9c80:	e59f2010 	ldr	r2, [pc, #16]	; 9c98 <kmalloc+0x58>
    9c84:	e59f1010 	ldr	r1, [pc, #16]	; 9c9c <kmalloc+0x5c>
    9c88:	e59f0010 	ldr	r0, [pc, #16]	; 9ca0 <kmalloc+0x60>
    9c8c:	ebfffbbb 	bl	8b80 <printk>
    9c90:	ebfffe4b 	bl	95c4 <clean_reboot>
    9c94:	0000a7fc 	strdeq	sl, [r0], -ip
    9c98:	0000a9bc 			; <UNDEFINED> instruction: 0x0000a9bc
    9c9c:	0000a7ec 	andeq	sl, r0, ip, ror #15
    9ca0:	0000a268 	andeq	sl, r0, r8, ror #4

00009ca4 <kmalloc_aligned>:
    9ca4:	e52de004 	push	{lr}		; (str lr, [sp, #-4]!)
    9ca8:	e24dd00c 	sub	sp, sp, #12, 0
    9cac:	e3500000 	cmp	r0, #0, 0
    9cb0:	0a000014 	beq	9d08 <kmalloc_aligned+0x64>
    9cb4:	e2613000 	rsb	r3, r1, #0, 0
    9cb8:	e1d13003 	bics	r3, r1, r3
    9cbc:	1a000019 	bne	9d28 <kmalloc_aligned+0x84>
    9cc0:	e3510008 	cmp	r1, #8, 0
    9cc4:	33a01008 	movcc	r1, #8, 0
    9cc8:	e59f30c0 	ldr	r3, [pc, #192]	; 9d90 <kmalloc_aligned+0xec>
    9ccc:	e5932000 	ldr	r2, [r3]
    9cd0:	e2613000 	rsb	r3, r1, #0, 0
    9cd4:	e1d1c003 	bics	ip, r1, r3
    9cd8:	1a00001b 	bne	9d4c <kmalloc_aligned+0xa8>
    9cdc:	e0822001 	add	r2, r2, r1
    9ce0:	e2422001 	sub	r2, r2, #1, 0
    9ce4:	e0033002 	and	r3, r3, r2
    9ce8:	e2411001 	sub	r1, r1, #1, 0
    9cec:	e1110003 	tst	r1, r3
    9cf0:	1a00001d 	bne	9d6c <kmalloc_aligned+0xc8>
    9cf4:	e59f2094 	ldr	r2, [pc, #148]	; 9d90 <kmalloc_aligned+0xec>
    9cf8:	e5823000 	str	r3, [r2]
    9cfc:	ebffffcf 	bl	9c40 <kmalloc>
    9d00:	e28dd00c 	add	sp, sp, #12, 0
    9d04:	e49df004 	pop	{pc}		; (ldr pc, [sp], #4)
    9d08:	e59f3084 	ldr	r3, [pc, #132]	; 9d94 <kmalloc_aligned+0xf0>
    9d0c:	e58d3000 	str	r3, [sp]
    9d10:	e3a0305f 	mov	r3, #95, 0	; 0x5f
    9d14:	e59f207c 	ldr	r2, [pc, #124]	; 9d98 <kmalloc_aligned+0xf4>
    9d18:	e59f107c 	ldr	r1, [pc, #124]	; 9d9c <kmalloc_aligned+0xf8>
    9d1c:	e59f007c 	ldr	r0, [pc, #124]	; 9da0 <kmalloc_aligned+0xfc>
    9d20:	ebfffb96 	bl	8b80 <printk>
    9d24:	ebfffe26 	bl	95c4 <clean_reboot>
    9d28:	eb0000ac 	bl	9fe0 <rpi_reset_putc>
    9d2c:	e59f3070 	ldr	r3, [pc, #112]	; 9da4 <kmalloc_aligned+0x100>
    9d30:	e58d3000 	str	r3, [sp]
    9d34:	e3a03060 	mov	r3, #96, 0	; 0x60
    9d38:	e59f2058 	ldr	r2, [pc, #88]	; 9d98 <kmalloc_aligned+0xf4>
    9d3c:	e59f1058 	ldr	r1, [pc, #88]	; 9d9c <kmalloc_aligned+0xf8>
    9d40:	e59f0060 	ldr	r0, [pc, #96]	; 9da8 <kmalloc_aligned+0x104>
    9d44:	ebfffb8d 	bl	8b80 <printk>
    9d48:	ebfffe1d 	bl	95c4 <clean_reboot>
    9d4c:	e59f3058 	ldr	r3, [pc, #88]	; 9dac <kmalloc_aligned+0x108>
    9d50:	e58d3000 	str	r3, [sp]
    9d54:	e3a03011 	mov	r3, #17, 0
    9d58:	e59f2050 	ldr	r2, [pc, #80]	; 9db0 <kmalloc_aligned+0x10c>
    9d5c:	e59f1038 	ldr	r1, [pc, #56]	; 9d9c <kmalloc_aligned+0xf8>
    9d60:	e59f0038 	ldr	r0, [pc, #56]	; 9da0 <kmalloc_aligned+0xfc>
    9d64:	ebfffb85 	bl	8b80 <printk>
    9d68:	ebfffe15 	bl	95c4 <clean_reboot>
    9d6c:	eb00009b 	bl	9fe0 <rpi_reset_putc>
    9d70:	e59f303c 	ldr	r3, [pc, #60]	; 9db4 <kmalloc_aligned+0x110>
    9d74:	e58d3000 	str	r3, [sp]
    9d78:	e3a03068 	mov	r3, #104, 0	; 0x68
    9d7c:	e59f2014 	ldr	r2, [pc, #20]	; 9d98 <kmalloc_aligned+0xf4>
    9d80:	e59f1014 	ldr	r1, [pc, #20]	; 9d9c <kmalloc_aligned+0xf8>
    9d84:	e59f002c 	ldr	r0, [pc, #44]	; 9db8 <kmalloc_aligned+0x114>
    9d88:	ebfffb7c 	bl	8b80 <printk>
    9d8c:	ebfffe0c 	bl	95c4 <clean_reboot>
    9d90:	0000a9ec 	andeq	sl, r0, ip, ror #19
    9d94:	0000a7fc 	strdeq	sl, [r0], -ip
    9d98:	0000a9c4 	andeq	sl, r0, r4, asr #19
    9d9c:	0000a7ec 	andeq	sl, r0, ip, ror #15
    9da0:	0000a268 	andeq	sl, r0, r8, ror #4
    9da4:	0000a8ec 	andeq	sl, r0, ip, ror #17
    9da8:	0000a8b8 			; <UNDEFINED> instruction: 0x0000a8b8
    9dac:	0000a900 	andeq	sl, r0, r0, lsl #18
    9db0:	0000a9d4 	ldrdeq	sl, [r0], -r4
    9db4:	0000a938 	andeq	sl, r0, r8, lsr r9
    9db8:	0000a90c 	andeq	sl, r0, ip, lsl #18

00009dbc <kfree>:
    9dbc:	e12fff1e 	bx	lr

00009dc0 <kfree_all>:
    9dc0:	e59f3008 	ldr	r3, [pc, #8]	; 9dd0 <kfree_all+0x10>
    9dc4:	e5932004 	ldr	r2, [r3, #4]
    9dc8:	e5832000 	str	r2, [r3]
    9dcc:	e12fff1e 	bx	lr
    9dd0:	0000a9ec 	andeq	sl, r0, ip, ror #19

00009dd4 <kfree_pop>:
    9dd4:	e59f3048 	ldr	r3, [pc, #72]	; 9e24 <kfree_pop+0x50>
    9dd8:	e5933004 	ldr	r3, [r3, #4]
    9ddc:	e1530000 	cmp	r3, r0
    9de0:	8a000006 	bhi	9e00 <kfree_pop+0x2c>
    9de4:	e59f3038 	ldr	r3, [pc, #56]	; 9e24 <kfree_pop+0x50>
    9de8:	e5933008 	ldr	r3, [r3, #8]
    9dec:	e1530000 	cmp	r3, r0
    9df0:	3a000002 	bcc	9e00 <kfree_pop+0x2c>
    9df4:	e59f3028 	ldr	r3, [pc, #40]	; 9e24 <kfree_pop+0x50>
    9df8:	e5830000 	str	r0, [r3]
    9dfc:	e12fff1e 	bx	lr
    9e00:	e52de004 	push	{lr}		; (str lr, [sp, #-4]!)
    9e04:	e24dd00c 	sub	sp, sp, #12, 0
    9e08:	e58d0000 	str	r0, [sp]
    9e0c:	e3a03077 	mov	r3, #119, 0	; 0x77
    9e10:	e59f2010 	ldr	r2, [pc, #16]	; 9e28 <kfree_pop+0x54>
    9e14:	e59f1010 	ldr	r1, [pc, #16]	; 9e2c <kfree_pop+0x58>
    9e18:	e59f0010 	ldr	r0, [pc, #16]	; 9e30 <kfree_pop+0x5c>
    9e1c:	ebfffb57 	bl	8b80 <printk>
    9e20:	ebfffde7 	bl	95c4 <clean_reboot>
    9e24:	0000a9ec 	andeq	sl, r0, ip, ror #19
    9e28:	0000a9dc 	ldrdeq	sl, [r0], -ip
    9e2c:	0000a7ec 	andeq	sl, r0, ip, ror #15
    9e30:	0000a954 	andeq	sl, r0, r4, asr r9

00009e34 <gpio_set_function>:
    9e34:	e350001f 	cmp	r0, #31, 0
    9e38:	812fff1e 	bxhi	lr
    9e3c:	e3d13007 	bics	r3, r1, #7, 0
    9e40:	e92d4070 	push	{r4, r5, r6, lr}
    9e44:	e1a05001 	mov	r5, r1
    9e48:	18bd8070 	popne	{r4, r5, r6, pc}
    9e4c:	e59f403c 	ldr	r4, [pc, #60]	; 9e90 <gpio_set_function+0x5c>
    9e50:	e0843094 	umull	r3, r4, r4, r0
    9e54:	e1a041a4 	lsr	r4, r4, #3
    9e58:	e2843302 	add	r3, r4, #134217728	; 0x8000000
    9e5c:	e2833702 	add	r3, r3, #524288	; 0x80000
    9e60:	e1a06103 	lsl	r6, r3, #2
    9e64:	e0844104 	add	r4, r4, r4, lsl #2
    9e68:	e0404084 	sub	r4, r0, r4, lsl #1
    9e6c:	e1a00006 	mov	r0, r6
    9e70:	ebfff86d 	bl	802c <GET32>
    9e74:	e3a01007 	mov	r1, #7, 0
    9e78:	e0844084 	add	r4, r4, r4, lsl #1
    9e7c:	e1c01411 	bic	r1, r0, r1, lsl r4
    9e80:	e1811415 	orr	r1, r1, r5, lsl r4
    9e84:	e1a00006 	mov	r0, r6
    9e88:	e8bd4070 	pop	{r4, r5, r6, lr}
    9e8c:	eafff864 	b	8024 <PUT32>
    9e90:	cccccccd 	stclgt	12, cr12, [ip], {205}	; 0xcd

00009e94 <gpio_set_output>:
    9e94:	e350001f 	cmp	r0, #31, 0
    9e98:	812fff1e 	bxhi	lr
    9e9c:	e92d4070 	push	{r4, r5, r6, lr}
    9ea0:	e59f4040 	ldr	r4, [pc, #64]	; 9ee8 <gpio_set_output+0x54>
    9ea4:	e0843094 	umull	r3, r4, r4, r0
    9ea8:	e1a041a4 	lsr	r4, r4, #3
    9eac:	e2843302 	add	r3, r4, #134217728	; 0x8000000
    9eb0:	e2833702 	add	r3, r3, #524288	; 0x80000
    9eb4:	e1a05103 	lsl	r5, r3, #2
    9eb8:	e0844104 	add	r4, r4, r4, lsl #2
    9ebc:	e0404084 	sub	r4, r0, r4, lsl #1
    9ec0:	e1a00005 	mov	r0, r5
    9ec4:	ebfff858 	bl	802c <GET32>
    9ec8:	e3a03007 	mov	r3, #7, 0
    9ecc:	e3a01001 	mov	r1, #1, 0
    9ed0:	e0844084 	add	r4, r4, r4, lsl #1
    9ed4:	e1c03413 	bic	r3, r0, r3, lsl r4
    9ed8:	e1831411 	orr	r1, r3, r1, lsl r4
    9edc:	e1a00005 	mov	r0, r5
    9ee0:	e8bd4070 	pop	{r4, r5, r6, lr}
    9ee4:	eafff84e 	b	8024 <PUT32>
    9ee8:	cccccccd 	stclgt	12, cr12, [ip], {205}	; 0xcd

00009eec <gpio_set_on>:
    9eec:	e1a03000 	mov	r3, r0
    9ef0:	e3a01001 	mov	r1, #1, 0
    9ef4:	e59f0004 	ldr	r0, [pc, #4]	; 9f00 <gpio_set_on+0x14>
    9ef8:	e1a01311 	lsl	r1, r1, r3
    9efc:	eafff848 	b	8024 <PUT32>
    9f00:	2020001c 	eorcs	r0, r0, ip, lsl r0

00009f04 <gpio_set_off>:
    9f04:	e1a03000 	mov	r3, r0
    9f08:	e3a01001 	mov	r1, #1, 0
    9f0c:	e59f0004 	ldr	r0, [pc, #4]	; 9f18 <gpio_set_off+0x14>
    9f10:	e1a01311 	lsl	r1, r1, r3
    9f14:	eafff842 	b	8024 <PUT32>
    9f18:	20200028 	eorcs	r0, r0, r8, lsr #32

00009f1c <gpio_set_input>:
    9f1c:	e350001f 	cmp	r0, #31, 0
    9f20:	812fff1e 	bxhi	lr
    9f24:	e92d4070 	push	{r4, r5, r6, lr}
    9f28:	e59f5040 	ldr	r5, [pc, #64]	; 9f70 <gpio_set_input+0x54>
    9f2c:	e1a04000 	mov	r4, r0
    9f30:	e0853095 	umull	r3, r5, r5, r0
    9f34:	e1a051a5 	lsr	r5, r5, #3
    9f38:	e2850302 	add	r0, r5, #134217728	; 0x8000000
    9f3c:	e2800702 	add	r0, r0, #524288	; 0x80000
    9f40:	e1a06100 	lsl	r6, r0, #2
    9f44:	e1a00006 	mov	r0, r6
    9f48:	ebfff837 	bl	802c <GET32>
    9f4c:	e3a01007 	mov	r1, #7, 0
    9f50:	e1a03000 	mov	r3, r0
    9f54:	e0855105 	add	r5, r5, r5, lsl #2
    9f58:	e0444085 	sub	r4, r4, r5, lsl #1
    9f5c:	e0844084 	add	r4, r4, r4, lsl #1
    9f60:	e1a00006 	mov	r0, r6
    9f64:	e1c31411 	bic	r1, r3, r1, lsl r4
    9f68:	e8bd4070 	pop	{r4, r5, r6, lr}
    9f6c:	eafff82c 	b	8024 <PUT32>
    9f70:	cccccccd 	stclgt	12, cr12, [ip], {205}	; 0xcd

00009f74 <gpio_write>:
    9f74:	e3510000 	cmp	r1, #0, 0
    9f78:	e3a03001 	mov	r3, #1, 0
    9f7c:	e1a01000 	mov	r1, r0
    9f80:	0a000002 	beq	9f90 <gpio_write+0x1c>
    9f84:	e59f0010 	ldr	r0, [pc, #16]	; 9f9c <gpio_write+0x28>
    9f88:	e1a01113 	lsl	r1, r3, r1
    9f8c:	eafff824 	b	8024 <PUT32>
    9f90:	e59f0008 	ldr	r0, [pc, #8]	; 9fa0 <gpio_write+0x2c>
    9f94:	e1a01113 	lsl	r1, r3, r1
    9f98:	eafff821 	b	8024 <PUT32>
    9f9c:	2020001c 	eorcs	r0, r0, ip, lsl r0
    9fa0:	20200028 	eorcs	r0, r0, r8, lsr #32

00009fa4 <gpio_read>:
    9fa4:	e92d4010 	push	{r4, lr}
    9fa8:	e1a04000 	mov	r4, r0
    9fac:	e59f0014 	ldr	r0, [pc, #20]	; 9fc8 <gpio_read+0x24>
    9fb0:	e08002a4 	add	r0, r0, r4, lsr #5
    9fb4:	ebfff81c 	bl	802c <GET32>
    9fb8:	e204401f 	and	r4, r4, #31, 0
    9fbc:	e1a00430 	lsr	r0, r0, r4
    9fc0:	e2000001 	and	r0, r0, #1, 0
    9fc4:	e8bd8010 	pop	{r4, pc}
    9fc8:	20200034 	eorcs	r0, r0, r4, lsr r0

00009fcc <internal_putchar>:
    9fcc:	e92d4010 	push	{r4, lr}
    9fd0:	e1a04000 	mov	r4, r0
    9fd4:	ebfffe84 	bl	99ec <uart_putc>
    9fd8:	e1a00004 	mov	r0, r4
    9fdc:	e8bd8010 	pop	{r4, pc}

00009fe0 <rpi_reset_putc>:
    9fe0:	e59f3008 	ldr	r3, [pc, #8]	; 9ff0 <rpi_reset_putc+0x10>
    9fe4:	e59f2008 	ldr	r2, [pc, #8]	; 9ff4 <rpi_reset_putc+0x14>
    9fe8:	e5832000 	str	r2, [r3]
    9fec:	e12fff1e 	bx	lr
    9ff0:	0000a9f8 	strdeq	sl, [r0], -r8
    9ff4:	00009fcc 	andeq	r9, r0, ip, asr #31

00009ff8 <rpi_set_putc>:
    9ff8:	e59f3004 	ldr	r3, [pc, #4]	; a004 <rpi_set_putc+0xc>
    9ffc:	e5830000 	str	r0, [r3]
    a000:	e12fff1e 	bx	lr
    a004:	0000a9f8 	strdeq	sl, [r0], -r8

0000a008 <strcat>:
    a008:	e1a02000 	mov	r2, r0
    a00c:	e1a03002 	mov	r3, r2
    a010:	e4d2c001 	ldrb	ip, [r2], #1
    a014:	e35c0000 	cmp	ip, #0, 0
    a018:	1afffffb 	bne	a00c <strcat+0x4>
    a01c:	e2433001 	sub	r3, r3, #1, 0
    a020:	e4d12001 	ldrb	r2, [r1], #1
    a024:	e3520000 	cmp	r2, #0, 0
    a028:	e5e32001 	strb	r2, [r3, #1]!
    a02c:	1afffffb 	bne	a020 <strcat+0x18>
    a030:	e12fff1e 	bx	lr

0000a034 <strcmp>:
    a034:	e5d03000 	ldrb	r3, [r0]
    a038:	e3530000 	cmp	r3, #0, 0
    a03c:	05d12000 	ldrbeq	r2, [r1]
    a040:	1a000003 	bne	a054 <strcmp+0x20>
    a044:	ea000006 	b	a064 <strcmp+0x30>
    a048:	e5f03001 	ldrb	r3, [r0, #1]!
    a04c:	e3530000 	cmp	r3, #0, 0
    a050:	0a000005 	beq	a06c <strcmp+0x38>
    a054:	e1a0c001 	mov	ip, r1
    a058:	e4d12001 	ldrb	r2, [r1], #1
    a05c:	e1520003 	cmp	r2, r3
    a060:	0afffff8 	beq	a048 <strcmp+0x14>
    a064:	e0430002 	sub	r0, r3, r2
    a068:	e12fff1e 	bx	lr
    a06c:	e5dc2001 	ldrb	r2, [ip, #1]
    a070:	e0430002 	sub	r0, r3, r2
    a074:	e12fff1e 	bx	lr

0000a078 <strcpy>:
    a078:	e2402001 	sub	r2, r0, #1, 0
    a07c:	e4d13001 	ldrb	r3, [r1], #1
    a080:	e3530000 	cmp	r3, #0, 0
    a084:	e5e23001 	strb	r3, [r2, #1]!
    a088:	1afffffb 	bne	a07c <strcpy+0x4>
    a08c:	e12fff1e 	bx	lr

0000a090 <strncmp>:
    a090:	e0802002 	add	r2, r0, r2
    a094:	ea000003 	b	a0a8 <strncmp+0x18>
    a098:	e4d03001 	ldrb	r3, [r0], #1
    a09c:	e4d1c001 	ldrb	ip, [r1], #1
    a0a0:	e153000c 	cmp	r3, ip
    a0a4:	1a000003 	bne	a0b8 <strncmp+0x28>
    a0a8:	e1500002 	cmp	r0, r2
    a0ac:	1afffff9 	bne	a098 <strncmp+0x8>
    a0b0:	e3a00000 	mov	r0, #0, 0
    a0b4:	e12fff1e 	bx	lr
    a0b8:	e043000c 	sub	r0, r3, ip
    a0bc:	e12fff1e 	bx	lr

0000a0c0 <reboot_callout>:
    a0c0:	e12fff1e 	bx	lr

0000a0c4 <dev_barrier>:
    a0c4:	ea000002 	b	a0d4 <dsb>

0000a0c8 <dmb>:
    a0c8:	e3a00000 	mov	r0, #0, 0
    a0cc:	ee070fba 	mcr	15, 0, r0, cr7, cr10, {5}
    a0d0:	e12fff1e 	bx	lr

0000a0d4 <dsb>:
    a0d4:	ee070f9a 	mcr	15, 0, r0, cr7, cr10, {4}
    a0d8:	e12fff1e 	bx	lr

0000a0dc <__code_end__>:
    a0dc:	00000000 	andeq	r0, r0, r0

Disassembly of section .rodata:

0000a0e0 <__FUNCTION__.4024-0x100>:
    a0e0:	74736574 	ldrbtvc	r6, [r3], #-1396	; 0xfffffa8c
    a0e4:	2e322d73 	mrccs	13, 1, r2, cr2, cr3, {3}
    a0e8:	61702f30 	cmnvs	r0, r0, lsr pc
    a0ec:	2d327472 	cfldrscs	mvf7, [r2, #-456]!	; 0xfffffe38
    a0f0:	74736574 	ldrbtvc	r6, [r3], #-1396	; 0xfffffa8c
    a0f4:	6f6e2d36 	svcvs	0x006e2d36
    a0f8:	61656c2d 	cmnvs	r5, sp, lsr #24
    a0fc:	00632e6b 	rsbeq	r2, r3, fp, ror #28
    a100:	43415254 	movtmi	r5, #4692	; 0x1254
    a104:	6c613a45 			; <UNDEFINED> instruction: 0x6c613a45
    a108:	20636f6c 	rsbcs	r6, r3, ip, ror #30
    a10c:	75746572 	ldrbvc	r6, [r4, #-1394]!	; 0xfffffa8e
    a110:	64656e72 	strbtvs	r6, [r5], #-3698	; 0xfffff18e
    a114:	6f6c6220 	svcvs	0x006c6220
    a118:	69206b63 	stmdbvs	r0!, {r0, r1, r5, r6, r8, r9, fp, sp, lr}
    a11c:	75253d64 	strvc	r3, [r5, #-3428]!	; 0xfffff29c
    a120:	70255b20 	eorvc	r5, r5, r0, lsr #22
    a124:	00000a5d 	andeq	r0, r0, sp, asr sl
    a128:	74204347 	strtvc	r4, [r0], #-839	; 0xfffffcb9
    a12c:	36747365 	ldrbtcc	r7, [r4], -r5, ror #6
    a130:	0000000a 	andeq	r0, r0, sl
    a134:	43415254 	movtmi	r5, #4692	; 0x1254
    a138:	65743a45 	ldrbvs	r3, [r4, #-2629]!	; 0xfffff5bb
    a13c:	20317473 	eorscs	r7, r1, r3, ror r4
    a140:	75746572 	ldrbvc	r6, [r4, #-1394]!	; 0xfffffa8e
    a144:	64656e72 	strbtvs	r6, [r5], #-3698	; 0xfffff18e
    a148:	70255b20 	eorvc	r5, r5, r0, lsr #22
    a14c:	00000a5d 	andeq	r0, r0, sp, asr sl
    a150:	494e4150 	stmdbmi	lr, {r4, r6, r8, lr}^
    a154:	73253a43 			; <UNDEFINED> instruction: 0x73253a43
    a158:	3a73253a 	bcc	1cd3648 <__bss_end__+0x1cc8820>
    a15c:	733a6425 	teqvc	sl, #620756992	; 0x25000000
    a160:	6c756f68 	ldclvs	15, cr6, [r5], #-416	; 0xfffffe60
    a164:	61682064 	cmnvs	r8, r4, rrx
    a168:	6e206576 	mcrvs	5, 1, r6, cr0, cr6, {3}
    a16c:	6564206f 	strbvs	r2, [r4, #-111]!	; 0xffffff91
    a170:	696e6966 	stmdbvs	lr!, {r1, r2, r5, r6, r8, fp, sp, lr}^
    a174:	6c206574 	cfstr32vs	mvfx6, [r0], #-464	; 0xfffffe30
    a178:	736b6165 	cmnvc	fp, #1073741849	; 0x40000019
    a17c:	000a0a21 	andeq	r0, sl, r1, lsr #20
    a180:	43415254 	movtmi	r5, #4692	; 0x1254
    a184:	55533a45 	ldrbpl	r3, [r3, #-2629]	; 0xfffff5bb
    a188:	53454343 	movtpl	r4, #21315	; 0x5343
    a18c:	64203a53 	strtvs	r3, [r0], #-2643	; 0xfffff5ad
    a190:	63657465 	cmnvs	r5, #1694498816	; 0x65000000
    a194:	20646574 	rsbcs	r6, r4, r4, ror r5
    a198:	616d2061 	cmnvs	sp, r1, rrx
    a19c:	20656279 	rsbcs	r6, r5, r9, ror r2
    a1a0:	6b61656c 	blvs	1863758 <__bss_end__+0x1858930>
    a1a4:	00000a21 	andeq	r0, r0, r1, lsr #20
    a1a8:	494e4150 	stmdbmi	lr, {r4, r6, r8, lr}^
    a1ac:	73253a43 			; <UNDEFINED> instruction: 0x73253a43
    a1b0:	3a73253a 	bcc	1cd36a0 <__bss_end__+0x1cc8878>
    a1b4:	733a6425 	teqvc	sl, #620756992	; 0x25000000
    a1b8:	6c756f68 	ldclvs	15, cr6, [r5], #-416	; 0xfffffe60
    a1bc:	61682064 	cmnvs	r8, r4, rrx
    a1c0:	66206576 			; <UNDEFINED> instruction: 0x66206576
    a1c4:	646e756f 	strbtvs	r7, [lr], #-1391	; 0xfffffa91
    a1c8:	6d206120 	stfvss	f6, [r0, #-128]!	; 0xffffff80
    a1cc:	65627961 	strbvs	r7, [r2, #-2401]!	; 0xfffff69f
    a1d0:	61656c20 	cmnvs	r5, r0, lsr #24
    a1d4:	666f206b 	strbtvs	r2, [pc], -fp, rrx
    a1d8:	7025203a 	eorvc	r2, r5, sl, lsr r0
    a1dc:	000a0a21 	andeq	r0, sl, r1, lsr #20

0000a1e0 <__FUNCTION__.4024>:
    a1e0:	74736574 	ldrbtvc	r6, [r3], #-1396	; 0xfffffa8c
    a1e4:	00000031 	andeq	r0, r0, r1, lsr r0

0000a1e8 <__FUNCTION__.4029>:
    a1e8:	6d746f6e 	ldclvs	15, cr6, [r4, #-440]!	; 0xfffffe48
    a1ec:	006e6961 	rsbeq	r6, lr, r1, ror #18
    a1f0:	6e756f66 	cdpvs	15, 7, cr6, cr5, cr6, {3}
    a1f4:	70252064 	eorvc	r2, r5, r4, rrx
    a1f8:	206e6920 	rsbcs	r6, lr, r0, lsr #18
    a1fc:	000a7025 	andeq	r7, sl, r5, lsr #32
    a200:	253a7325 	ldrcs	r7, [sl, #-805]!	; 0xfffffcdb
    a204:	64253a73 	strtvs	r3, [r5], #-2675	; 0xfffff58d
    a208:	0000003a 	andeq	r0, r0, sl, lsr r0
    a20c:	65657266 	strbvs	r7, [r5, #-614]!	; 0xfffffd9a
    a210:	20676e69 	rsbcs	r6, r7, r9, ror #28
    a214:	0a702509 	beq	1c13640 <__bss_end__+0x1c08818>
    a218:	00000000 	andeq	r0, r0, r0
    a21c:	5f434f4c 	svcpl	0x00434f4c
    a220:	494e4150 	stmdbmi	lr, {r4, r6, r8, lr}^
    a224:	25203a43 	strcs	r3, [r0, #-2627]!	; 0xfffff5bd
    a228:	73253a73 			; <UNDEFINED> instruction: 0x73253a73
    a22c:	3a64253a 	bcc	191371c <__bss_end__+0x19088f4>
    a230:	00000000 	andeq	r0, r0, r0
    a234:	65657266 	strbvs	r7, [r5, #-614]!	; 0xfffffd9a
    a238:	20676e69 	rsbcs	r6, r7, r9, ror #28
    a23c:	6c616e75 	stclvs	14, cr6, [r1], #-468	; 0xfffffe2c
    a240:	61636f6c 	cmnvs	r3, ip, ror #30
    a244:	20646574 	rsbcs	r6, r4, r4, ror r5
    a248:	6f6d656d 	svcvs	0x006d656d
    a24c:	203a7972 	eorscs	r7, sl, r2, ror r9
    a250:	74617473 	strbtvc	r7, [r1], #-1139	; 0xfffffb8d
    a254:	64253d65 	strtvs	r3, [r5], #-3429	; 0xfffff29b
    a258:	0000000a 	andeq	r0, r0, sl
    a25c:	6c616b63 			; <UNDEFINED> instruction: 0x6c616b63
    a260:	2e636f6c 	cdpcs	15, 6, cr6, cr3, cr12, {3}
    a264:	00000063 	andeq	r0, r0, r3, rrx
    a268:	494e4150 	stmdbmi	lr, {r4, r6, r8, lr}^
    a26c:	73253a43 			; <UNDEFINED> instruction: 0x73253a43
    a270:	3a73253a 	bcc	1cd3760 <__bss_end__+0x1cc8938>
    a274:	253a6425 	ldrcs	r6, [sl, #-1061]!	; 0xfffffbdb
    a278:	00000a73 	andeq	r0, r0, r3, ror sl
    a27c:	705f6b63 	subsvc	r6, pc, r3, ror #22
    a280:	695f7274 	ldmdbvs	pc, {r2, r4, r5, r6, r9, ip, sp, lr}^	; <UNPREDICTABLE>
    a284:	6c615f73 	stclvs	15, cr5, [r1], #-460	; 0xfffffe34
    a288:	65636f6c 	strbvs	r6, [r3, #-3948]!	; 0xfffff094
    a28c:	64612864 	strbtvs	r2, [r1], #-2148	; 0xfffff79c
    a290:	00297264 	eoreq	r7, r9, r4, ror #4
    a294:	494e4150 	stmdbmi	lr, {r4, r6, r8, lr}^
    a298:	73253a43 			; <UNDEFINED> instruction: 0x73253a43
    a29c:	3a73253a 	bcc	1cd378c <__bss_end__+0x1cc8964>
    a2a0:	643a6425 	ldrtvs	r6, [sl], #-1061	; 0xfffffbdb
    a2a4:	6e206469 	cdpvs	4, 2, cr6, cr0, cr9, {3}
    a2a8:	6620746f 	strtvs	r7, [r0], -pc, ror #8
    a2ac:	20646e69 	rsbcs	r6, r4, r9, ror #28
    a2b0:	69207025 	stmdbvs	r0!, {r0, r2, r5, ip, sp, lr}
    a2b4:	696c206e 	stmdbvs	ip!, {r1, r2, r3, r5, r6, sp}^
    a2b8:	0a0a7473 	beq	2a748c <__bss_end__+0x29c664>
    a2bc:	00000000 	andeq	r0, r0, r0
    a2c0:	6f6c6c61 	svcvs	0x006c6c61
    a2c4:	69746163 	ldmdbvs	r4!, {r0, r1, r5, r6, r8, sp, lr}^
    a2c8:	2520676e 	strcs	r6, [r0, #-1902]!	; 0xfffff892
    a2cc:	25282070 	strcs	r2, [r8, #-112]!	; 0xffffff90
    a2d0:	79622064 	stmdbvc	r2!, {r2, r5, r6, sp}^
    a2d4:	29736574 	ldmdbcs	r3!, {r2, r4, r5, r6, r8, sl, sp, lr}^
    a2d8:	0000000a 	andeq	r0, r0, sl

0000a2dc <__FUNCTION__.4069>:
    a2dc:	72666b63 	rsbvc	r6, r6, #101376	; 0x18c00
    a2e0:	00006565 	andeq	r6, r0, r5, ror #10

0000a2e4 <__FUNCTION__.4058>:
    a2e4:	7473696c 	ldrbtvc	r6, [r3], #-2412	; 0xfffff694
    a2e8:	6d65725f 	sfmvs	f7, 2, [r5, #-380]!	; 0xfffffe84
    a2ec:	0065766f 	rsbeq	r7, r5, pc, ror #12
    a2f0:	75716552 	ldrbvc	r6, [r1, #-1362]!	; 0xfffffaae
    a2f4:	74737265 	ldrbtvc	r7, [r3], #-613	; 0xfffffd9b
    a2f8:	20676e69 	rsbcs	r6, r7, r9, ror #28
    a2fc:	65726f6d 	ldrbvs	r6, [r2, #-3949]!	; 0xfffff093
    a300:	6d656d20 	stclvs	13, cr6, [r5, #-128]!	; 0xffffff80
    a304:	2079726f 	rsbscs	r7, r9, pc, ror #4
    a308:	29642528 	stmdbcs	r4!, {r3, r5, r8, sl, sp}^
    a30c:	0a2e2e2e 	beq	b95bcc <__bss_end__+0xb8ada4>
    a310:	00000000 	andeq	r0, r0, r0
    a314:	672d6b63 	strvs	r6, [sp, -r3, ror #22]!
    a318:	00632e63 	rsbeq	r2, r3, r3, ror #28
    a31c:	203c2070 	eorscs	r2, ip, r0, ror r0
    a320:	00000065 	andeq	r0, r0, r5, rrx
    a324:	67696c61 	strbvs	r6, [r9, -r1, ror #24]!
    a328:	2864656e 	stmdacs	r4!, {r1, r2, r3, r5, r6, r8, sl, sp, lr}^
    a32c:	34202c70 	strtcc	r2, [r0], #-3184	; 0xfffff390
    a330:	00000029 	andeq	r0, r0, r9, lsr #32
    a334:	67696c61 	strbvs	r6, [r9, -r1, ror #24]!
    a338:	2864656e 	stmdacs	r4!, {r1, r2, r3, r5, r6, r8, sl, sp, lr}^
    a33c:	34202c65 	strtcc	r2, [r0], #-3173	; 0xfffff39b
    a340:	00000029 	andeq	r0, r0, r9, lsr #32
    a344:	6e696f67 	cdpvs	15, 6, cr6, cr9, cr7, {3}
    a348:	6f742067 	svcvs	0x00742067
    a34c:	72616d20 	rsbvc	r6, r1, #32, 26	; 0x800
    a350:	7025206b 	eorvc	r2, r5, fp, rrx
    a354:	20692820 	rsbcs	r2, r9, r0, lsr #16
    a358:	70252040 	eorvc	r2, r5, r0, asr #32
    a35c:	25203d20 	strcs	r3, [r0, #-3360]!	; 0xfffff2e0
    a360:	202c2970 	eorcs	r2, ip, r0, ror r9
    a364:	20707865 	rsbscs	r7, r0, r5, ror #16
    a368:	7025203d 	eorvc	r2, r5, sp, lsr r0
    a36c:	0000000a 	andeq	r0, r0, sl
    a370:	6b72616d 	blvs	1ca292c <__bss_end__+0x1c97b04>
    a374:	20676e69 	rsbcs	r6, r7, r9, ror #28
    a378:	25207361 	strcs	r7, [r0, #-865]!	; 0xfffffc9f
    a37c:	00000a64 	andeq	r0, r0, r4, ror #20
    a380:	20746f6e 	rsbscs	r6, r4, lr, ror #30
    a384:	6b72616d 	blvs	1ca2940 <__bss_end__+0x1c97b18>
    a388:	21676e69 	cmncs	r7, r9, ror #28
    a38c:	0000000a 	andeq	r0, r0, sl
    a390:	63656863 	cmnvs	r5, #6488064	; 0x630000
    a394:	676e696b 	strbvs	r6, [lr, -fp, ror #18]!
    a398:	61747320 	cmnvs	r4, r0, lsr #6
    a39c:	203a6b63 	eorscs	r6, sl, r3, ror #22
    a3a0:	74207025 	strtvc	r7, [r0], #-37	; 0xffffffdb
    a3a4:	7025206f 	eorvc	r2, r5, pc, rrx
    a3a8:	0000000a 	andeq	r0, r0, sl
    a3ac:	2d2d2d2d 	stccs	13, cr2, [sp, #-180]!	; 0xffffff4c
    a3b0:	2d2d2d2d 	stccs	13, cr2, [sp, #-180]!	; 0xffffff4c
    a3b4:	2d2d2d2d 	stccs	13, cr2, [sp, #-180]!	; 0xffffff4c
    a3b8:	2d2d2d2d 	stccs	13, cr2, [sp, #-180]!	; 0xffffff4c
    a3bc:	2d2d2d2d 	stccs	13, cr2, [sp, #-180]!	; 0xffffff4c
    a3c0:	2d2d2d2d 	stccs	13, cr2, [sp, #-180]!	; 0xffffff4c
    a3c4:	2d2d2d2d 	stccs	13, cr2, [sp, #-180]!	; 0xffffff4c
    a3c8:	2d2d2d2d 	stccs	13, cr2, [sp, #-180]!	; 0xffffff4c
    a3cc:	2d2d2d2d 	stccs	13, cr2, [sp, #-180]!	; 0xffffff4c
    a3d0:	2d2d2d2d 	stccs	13, cr2, [sp, #-180]!	; 0xffffff4c
    a3d4:	2d2d2d2d 	stccs	13, cr2, [sp, #-180]!	; 0xffffff4c
    a3d8:	2d2d2d2d 	stccs	13, cr2, [sp, #-180]!	; 0xffffff4c
    a3dc:	2d2d2d2d 	stccs	13, cr2, [sp, #-180]!	; 0xffffff4c
    a3e0:	2d2d2d2d 	stccs	13, cr2, [sp, #-180]!	; 0xffffff4c
    a3e4:	00000a2d 	andeq	r0, r0, sp, lsr #20
    a3e8:	63656863 	cmnvs	r5, #6488064	; 0x630000
    a3ec:	676e696b 	strbvs	r6, [lr, -fp, ror #18]!
    a3f0:	726f6620 	rsbvc	r6, pc, #32, 12	; 0x2000000
    a3f4:	61656c20 	cmnvs	r5, r0, lsr #24
    a3f8:	0a3a736b 	beq	ea71ac <__bss_end__+0xe9c384>
    a3fc:	00000000 	andeq	r0, r0, r0
    a400:	4c3a4347 	ldcmi	3, cr4, [sl], #-284	; 0xfffffee4
    a404:	2054534f 	subscs	r5, r4, pc, asr #6
    a408:	2d206425 	cfstrscs	mvf6, [r0, #-148]!	; 0xffffff6c
    a40c:	7025203e 	eorvc	r2, r5, lr, lsr r0
    a410:	0000000a 	andeq	r0, r0, sl
    a414:	4d3a4347 	ldcmi	3, cr4, [sl, #-284]!	; 0xfffffee4
    a418:	45425941 	strbmi	r5, [r2, #-2369]	; 0xfffff6bf
    a41c:	534f4c20 	movtpl	r4, #64544	; 0xfc20
    a420:	64252054 	strtvs	r2, [r5], #-84	; 0xffffffac
    a424:	203e2d20 	eorscs	r2, lr, r0, lsr #26
    a428:	000a7025 	andeq	r7, sl, r5, lsr #32
    a42c:	43415254 	movtmi	r5, #4692	; 0x1254
    a430:	47093a45 	strmi	r3, [r9, -r5, asr #20]
    a434:	68433a43 	stmdavs	r3, {r0, r1, r6, r9, fp, ip, sp}^
    a438:	656b6365 	strbvs	r6, [fp, #-869]!	; 0xfffffc9b
    a43c:	64252064 	strtvs	r2, [r5], #-100	; 0xffffff9c
    a440:	6f6c6220 	svcvs	0x006c6220
    a444:	2e736b63 	vsubcs.f64	d22, d3, d19
    a448:	0000000a 	andeq	r0, r0, sl
    a44c:	43415254 	movtmi	r5, #4692	; 0x1254
    a450:	09093a45 	stmdbeq	r9, {r0, r2, r6, r9, fp, ip, sp}
    a454:	533a4347 	teqpl	sl, #469762049	; 0x1c000001
    a458:	45434355 	strbmi	r4, [r3, #-853]	; 0xfffffcab
    a45c:	203a5353 	eorscs	r5, sl, r3, asr r3
    a460:	6c206f4e 	stcvs	15, cr6, [r0], #-312	; 0xfffffec8
    a464:	736b6165 	cmnvc	fp, #1073741849	; 0x40000019
    a468:	756f6620 	strbvc	r6, [pc, #-1568]!	; 9e50 <gpio_set_function+0x1c>
    a46c:	0a21646e 	beq	86362c <__bss_end__+0x858804>
    a470:	00000000 	andeq	r0, r0, r0
    a474:	43415254 	movtmi	r5, #4692	; 0x1254
    a478:	09093a45 	stmdbeq	r9, {r0, r2, r6, r9, fp, ip, sp}
    a47c:	453a4347 	ldrmi	r4, [sl, #-839]!	; 0xfffffcb9
    a480:	524f5252 	subpl	r5, pc, #536870917	; 0x20000005
    a484:	25203a53 	strcs	r3, [r0, #-2643]!	; 0xfffff5ad
    a488:	72652064 	rsbvc	r2, r5, #100, 0	; 0x64
    a48c:	73726f72 	cmnvc	r2, #456	; 0x1c8
    a490:	6425202c 	strtvs	r2, [r5], #-44	; 0xffffffd4
    a494:	79616d20 	stmdbvc	r1!, {r5, r8, sl, fp, sp, lr}^
    a498:	655f6562 	ldrbvs	r6, [pc, #-1378]	; 9f3e <gpio_set_input+0x22>
    a49c:	726f7272 	rsbvc	r7, pc, #536870919	; 0x20000007
    a4a0:	00000a73 	andeq	r0, r0, r3, ror sl
    a4a4:	2d2d2d2d 	stccs	13, cr2, [sp, #-180]!	; 0xffffff4c
    a4a8:	2d2d2d2d 	stccs	13, cr2, [sp, #-180]!	; 0xffffff4c
    a4ac:	2d2d2d2d 	stccs	13, cr2, [sp, #-180]!	; 0xffffff4c
    a4b0:	2d2d2d2d 	stccs	13, cr2, [sp, #-180]!	; 0xffffff4c
    a4b4:	2d2d2d2d 	stccs	13, cr2, [sp, #-180]!	; 0xffffff4c
    a4b8:	2d2d2d2d 	stccs	13, cr2, [sp, #-180]!	; 0xffffff4c
    a4bc:	2d2d2d2d 	stccs	13, cr2, [sp, #-180]!	; 0xffffff4c
    a4c0:	2d2d2d2d 	stccs	13, cr2, [sp, #-180]!	; 0xffffff4c
    a4c4:	2d2d2d2d 	stccs	13, cr2, [sp, #-180]!	; 0xffffff4c
    a4c8:	2d2d2d2d 	stccs	13, cr2, [sp, #-180]!	; 0xffffff4c
    a4cc:	2d2d2d2d 	stccs	13, cr2, [sp, #-180]!	; 0xffffff4c
    a4d0:	2d2d2d2d 	stccs	13, cr2, [sp, #-180]!	; 0xffffff4c
    a4d4:	2d2d2d2d 	stccs	13, cr2, [sp, #-180]!	; 0xffffff4c
    a4d8:	2d2d2d2d 	stccs	13, cr2, [sp, #-180]!	; 0xffffff4c
    a4dc:	000a2d2d 	andeq	r2, sl, sp, lsr #26
    a4e0:	72636e69 	rsbvc	r6, r3, #1680	; 0x690
    a4e4:	6e656d65 	cdpvs	13, 6, cr6, cr5, cr5, {3}
    a4e8:	203e2074 	eorscs	r2, lr, r4, ror r0
    a4ec:	00000030 	andeq	r0, r0, r0, lsr r0
    a4f0:	494e4150 	stmdbmi	lr, {r4, r6, r8, lr}^
    a4f4:	73253a43 			; <UNDEFINED> instruction: 0x73253a43
    a4f8:	3a73253a 	bcc	1cd39e8 <__bss_end__+0x1cc8bc0>
    a4fc:	6e3a6425 	cdpvs	4, 3, cr6, cr10, cr5, {1}
    a500:	6820746f 	stmdavs	r0!, {r0, r1, r2, r3, r5, r6, sl, ip, sp, lr}
    a504:	6c646e61 	stclvs	14, cr6, [r4], #-388	; 0xfffffe7c
    a508:	0a676e69 	beq	19e5eb4 <__bss_end__+0x19db08c>
    a50c:	0000000a 	andeq	r0, r0, sl
    a510:	494e4150 	stmdbmi	lr, {r4, r6, r8, lr}^
    a514:	73253a43 			; <UNDEFINED> instruction: 0x73253a43
    a518:	3a73253a 	bcc	1cd3a08 <__bss_end__+0x1cc8be0>
    a51c:	473a6425 	ldrmi	r6, [sl, -r5, lsr #8]!
    a520:	73203a43 			; <UNDEFINED> instruction: 0x73203a43
    a524:	6c756f68 	ldclvs	15, cr6, [r5], #-416	; 0xfffffe60
    a528:	61682064 	cmnvs	r8, r4, rrx
    a52c:	6e206576 	mcrvs	5, 1, r6, cr0, cr6, {3}
    a530:	656c206f 	strbvs	r2, [ip, #-111]!	; 0xffffff91
    a534:	21736b61 	cmncs	r3, r1, ror #22
    a538:	00000a0a 	andeq	r0, r0, sl, lsl #20
    a53c:	43415254 	movtmi	r5, #4692	; 0x1254
    a540:	43473a45 	movtmi	r3, #31301	; 0x7a45
    a544:	5553203a 	ldrbpl	r2, [r3, #-58]	; 0xffffffc6
    a548:	53454343 	movtpl	r4, #21315	; 0x5343
    a54c:	6e203a53 			; <UNDEFINED> instruction: 0x6e203a53
    a550:	656c206f 	strbvs	r2, [ip, #-111]!	; 0xffffff91
    a554:	21736b61 	cmncs	r3, r1, ror #22
    a558:	0000000a 	andeq	r0, r0, sl
    a55c:	494e4150 	stmdbmi	lr, {r4, r6, r8, lr}^
    a560:	73253a43 			; <UNDEFINED> instruction: 0x73253a43
    a564:	3a73253a 	bcc	1cd3a54 <__bss_end__+0x1cc8c2c>
    a568:	473a6425 	ldrmi	r6, [sl, -r5, lsr #8]!
    a56c:	73203a43 			; <UNDEFINED> instruction: 0x73203a43
    a570:	6c756f68 	ldclvs	15, cr6, [r5], #-416	; 0xfffffe60
    a574:	61682064 	cmnvs	r8, r4, rrx
    a578:	6c206576 	cfstr32vs	mvfx6, [r0], #-472	; 0xfffffe28
    a57c:	736b6165 	cmnvc	fp, #1073741849	; 0x40000019
    a580:	000a0a21 	andeq	r0, sl, r1, lsr #20
    a584:	43415254 	movtmi	r5, #4692	; 0x1254
    a588:	43473a45 	movtmi	r3, #31301	; 0x7a45
    a58c:	5553203a 	ldrbpl	r2, [r3, #-58]	; 0xffffffc6
    a590:	53454343 	movtpl	r4, #21315	; 0x5343
    a594:	66203a53 			; <UNDEFINED> instruction: 0x66203a53
    a598:	646e756f 	strbtvs	r7, [lr], #-1391	; 0xfffffa91
    a59c:	20642520 	rsbcs	r2, r4, r0, lsr #10
    a5a0:	6b61656c 	blvs	1863b58 <__bss_end__+0x1858d30>
    a5a4:	000a2173 	andeq	r2, sl, r3, ror r1
    a5a8:	706d6f63 	rsbvc	r6, sp, r3, ror #30
    a5ac:	69746361 	ldmdbvs	r4!, {r0, r5, r6, r8, r9, sp, lr}^
    a5b0:	0a3a676e 	beq	ea4370 <__bss_end__+0xe99548>
    a5b4:	00000000 	andeq	r0, r0, r0
    a5b8:	463a4347 	ldrtmi	r4, [sl], -r7, asr #6
    a5bc:	44454552 	strbmi	r4, [r5], #-1362	; 0xfffffaae
    a5c0:	0a702520 	beq	1c13a48 <__bss_end__+0x1c08c20>
    a5c4:	00000000 	andeq	r0, r0, r0
    a5c8:	43415254 	movtmi	r5, #4692	; 0x1254
    a5cc:	47093a45 	strmi	r3, [r9, -r5, asr #20]
    a5d0:	68433a43 	stmdavs	r3, {r0, r1, r6, r9, fp, ip, sp}^
    a5d4:	656b6365 	strbvs	r6, [fp, #-869]!	; 0xfffffc9b
    a5d8:	64252064 	strtvs	r2, [r5], #-100	; 0xffffff9c
    a5dc:	6f6c6220 	svcvs	0x006c6220
    a5e0:	2c736b63 			; <UNDEFINED> instruction: 0x2c736b63
    a5e4:	65726620 	ldrbvs	r6, [r2, #-1568]!	; 0xfffff9e0
    a5e8:	25206465 	strcs	r6, [r0, #-1125]!	; 0xfffffb9b
    a5ec:	25202c64 	strcs	r2, [r0, #-3172]!	; 0xfffff39c
    a5f0:	79622064 	stmdbvc	r2!, {r2, r5, r6, sp}^
    a5f4:	0a736574 	beq	1ce3bcc <__bss_end__+0x1cd8da4>
    a5f8:	00000000 	andeq	r0, r0, r0
    a5fc:	494e4150 	stmdbmi	lr, {r4, r6, r8, lr}^
    a600:	73253a43 			; <UNDEFINED> instruction: 0x73253a43
    a604:	3a73253a 	bcc	1cd3af4 <__bss_end__+0x1cc8ccc>
    a608:	643a6425 	ldrtvs	r6, [sl], #-1061	; 0xfffffbdb
    a60c:	6e206469 	cdpvs	4, 2, cr6, cr0, cr9, {3}
    a610:	6920746f 	stmdbvs	r0!, {r0, r1, r2, r3, r5, r6, sl, ip, sp, lr}
    a614:	656c706d 	strbvs	r7, [ip, #-109]!	; 0xffffff93
    a618:	746e656d 	strbtvc	r6, [lr], #-1389	; 0xfffffa93
    a61c:	6d756420 	cfldrdvs	mvd6, [r5, #-128]!	; 0xffffff80
    a620:	65725f70 	ldrbvs	r5, [r2, #-3952]!	; 0xfffff090
    a624:	0a217367 	beq	8673c8 <__bss_end__+0x85c5a0>
    a628:	0000000a 	andeq	r0, r0, sl

0000a62c <__FUNCTION__.4045>:
    a62c:	6b72616d 	blvs	1ca2be8 <__bss_end__+0x1c97dc0>
    a630:	00000000 	andeq	r0, r0, r0

0000a634 <__FUNCTION__.4032>:
    a634:	6b726273 	blvs	1ca3008 <__bss_end__+0x1c981e0>
    a638:	00000000 	andeq	r0, r0, r0

0000a63c <__FUNCTION__.4088>:
    a63c:	63656863 	cmnvs	r5, #6488064	; 0x630000
    a640:	6f6e5f6b 	svcvs	0x006e5f6b
    a644:	61656c5f 	cmnvs	r5, pc, asr ip
    a648:	0000006b 	andeq	r0, r0, fp, rrx

0000a64c <__FUNCTION__.4093>:
    a64c:	63656863 	cmnvs	r5, #6488064	; 0x630000
    a650:	68735f6b 	ldmdavs	r3!, {r0, r1, r3, r5, r6, r8, r9, sl, fp, ip, lr}^
    a654:	646c756f 	strbtvs	r7, [ip], #-1391	; 0xfffffa91
    a658:	61656c5f 	cmnvs	r5, pc, asr ip
    a65c:	0000006b 	andeq	r0, r0, fp, rrx

0000a660 <__FUNCTION__.4101>:
    a660:	65657773 	strbvs	r7, [r5, #-1907]!	; 0xfffff88d
    a664:	72665f70 	rsbvc	r5, r6, #112, 30	; 0x1c0
    a668:	00006565 	andeq	r6, r0, r5, ror #10

0000a66c <__FUNCTION__.4112>:
    a66c:	6c706d69 	ldclvs	13, cr6, [r0], #-420	; 0xfffffe5c
    a670:	6e656d65 	cdpvs	13, 6, cr6, cr5, cr5, {3}
    a674:	68745f74 	ldmdavs	r4!, {r2, r4, r5, r6, r8, r9, sl, fp, ip, lr}^
    a678:	00007369 	andeq	r7, r0, r9, ror #6
    a67c:	696c2f2e 	stmdbvs	ip!, {r1, r2, r3, r5, r8, r9, sl, fp, sp}^
    a680:	762f6362 	strtvc	r6, [pc], -r2, ror #6
    a684:	72702d61 	rsbsvc	r2, r0, #6208	; 0x1840
    a688:	6b746e69 	blvs	1d26034 <__bss_end__+0x1d1b20c>
    a68c:	0000632e 	andeq	r6, r0, lr, lsr #6
    a690:	33323130 	teqcc	r2, #12
    a694:	37363534 			; <UNDEFINED> instruction: 0x37363534
    a698:	62613938 	rsbvs	r3, r1, #56, 18	; 0xe0000
    a69c:	66656463 	strbtvs	r6, [r5], -r3, ror #8
    a6a0:	00000000 	andeq	r0, r0, r0
    a6a4:	00003130 	andeq	r3, r0, r0, lsr r1
    a6a8:	33323130 	teqcc	r2, #12
    a6ac:	37363534 			; <UNDEFINED> instruction: 0x37363534
    a6b0:	00003938 	andeq	r3, r0, r8, lsr r9
    a6b4:	63747570 	cmnvs	r4, #112, 10	; 0x1c000000
    a6b8:	0070665f 	rsbseq	r6, r0, pc, asr r6
    a6bc:	74646977 	strbtvc	r6, [r4], #-2423	; 0xfffff689
    a6c0:	203c2068 	eorscs	r2, ip, r8, rrx
    a6c4:	00003233 	andeq	r3, r0, r3, lsr r2
    a6c8:	00786c6c 	rsbseq	r6, r8, ip, ror #24
    a6cc:	253d3078 	ldrcs	r3, [sp, #-120]!	; 0xffffff88
    a6d0:	00000a78 	andeq	r0, r0, r8, ror sl
    a6d4:	253d3178 	ldrcs	r3, [sp, #-376]!	; 0xfffffe88
    a6d8:	00000a78 	andeq	r0, r0, r8, ror sl
    a6dc:	00646c6c 	rsbeq	r6, r4, ip, ror #24
    a6e0:	6e727473 	mrcvs	4, 3, r7, cr2, cr3, {3}
    a6e4:	28706d63 	ldmdacs	r0!, {r0, r1, r5, r6, r8, sl, fp, sp, lr}^
    a6e8:	202c7974 	eorcs	r7, ip, r4, ror r9
    a6ec:	786c6c22 	stmdavc	ip!, {r1, r5, sl, fp, sp, lr}^
    a6f0:	33202c22 			; <UNDEFINED> instruction: 0x33202c22
    a6f4:	3d3d2029 	ldccc	0, cr2, [sp, #-164]!	; 0xffffff5c
    a6f8:	7c203020 	stcvc	0, cr3, [r0], #-128	; 0xffffff80
    a6fc:	7473207c 	ldrbtvc	r2, [r3], #-124	; 0xffffff84
    a700:	6d636e72 	stclvs	14, cr6, [r3, #-456]!	; 0xfffffe38
    a704:	79742870 	ldmdbvc	r4!, {r4, r5, r6, fp, sp}^
    a708:	6c22202c 	stcvs	0, cr2, [r2], #-176	; 0xffffff50
    a70c:	2c22646c 	cfstrscs	mvf6, [r2], #-432	; 0xfffffe50
    a710:	20293320 	eorcs	r3, r9, r0, lsr #6
    a714:	30203d3d 	eorcc	r3, r0, sp, lsr sp
    a718:	00000000 	andeq	r0, r0, r0
    a71c:	494e4150 	stmdbmi	lr, {r4, r6, r8, lr}^
    a720:	73253a43 			; <UNDEFINED> instruction: 0x73253a43
    a724:	3a73253a 	bcc	1cd3c14 <__bss_end__+0x1cc8dec>
    a728:	693a6425 	ldmdbvs	sl!, {r0, r2, r5, sl, sp, lr}
    a72c:	736f706d 	cmnvc	pc, #109, 0	; 0x6d
    a730:	6c626973 			; <UNDEFINED> instruction: 0x6c626973
    a734:	66203a65 	strtvs	r3, [r0], -r5, ror #20
    a738:	3c3d746d 	cfldrscc	mvf7, [sp], #-436	; 0xfffffe4c
    a73c:	0a3e7325 	beq	fa73d8 <__bss_end__+0xf9c5b0>
    a740:	0000000a 	andeq	r0, r0, sl
    a744:	494e4150 	stmdbmi	lr, {r4, r6, r8, lr}^
    a748:	73253a43 			; <UNDEFINED> instruction: 0x73253a43
    a74c:	3a73253a 	bcc	1cd3c3c <__bss_end__+0x1cc8e14>
    a750:	663a6425 	ldrtvs	r6, [sl], -r5, lsr #8
    a754:	74616f6c 	strbtvc	r6, [r1], #-3948	; 0xfffff094
    a758:	746f6e20 	strbtvc	r6, [pc], #-3616	; a760 <__FUNCTION__.4112+0xf4>
    a75c:	616e6520 	cmnvs	lr, r0, lsr #10
    a760:	64656c62 	strbtvs	r6, [r5], #-3170	; 0xfffff39e
    a764:	0a212121 	beq	852bf0 <__bss_end__+0x847dc8>
    a768:	00000000 	andeq	r0, r0, r0
    a76c:	6e697270 	mcrvs	2, 3, r7, cr9, cr0, {3}
    a770:	203a6b74 	eorscs	r6, sl, r4, ror fp
    a774:	20746f6e 	rsbscs	r6, r4, lr, ror #30
    a778:	646e6168 	strbtvs	r6, [lr], #-360	; 0xfffffe98
    a77c:	676e696c 	strbvs	r6, [lr, -ip, ror #18]!
    a780:	65707320 	ldrbvs	r7, [r0, #-800]!	; 0xfffffce0
    a784:	69666963 	stmdbvs	r6!, {r0, r1, r5, r6, r8, fp, sp, lr}^
    a788:	27207265 	strcs	r7, [r0, -r5, ror #4]!
    a78c:	20276325 	eorcs	r6, r7, r5, lsr #6
    a790:	63736128 	cmnvs	r3, #10
    a794:	253d6969 	ldrcs	r6, [sp, #-2409]!	; 0xfffff697
    a798:	000a2964 	andeq	r2, sl, r4, ror #18
    a79c:	494e4150 	stmdbmi	lr, {r4, r6, r8, lr}^
    a7a0:	73253a43 			; <UNDEFINED> instruction: 0x73253a43
    a7a4:	3a73253a 	bcc	1cd3c94 <__bss_end__+0x1cc8e6c>
    a7a8:	703a6425 	eorsvc	r6, sl, r5, lsr #8
    a7ac:	746e6972 	strbtvc	r6, [lr], #-2418	; 0xfffff68e
    a7b0:	7265206b 	rsbvc	r2, r5, #107, 0	; 0x6b
    a7b4:	0a726f72 	beq	1ca6584 <__bss_end__+0x1c9b75c>
    a7b8:	0000000a 	andeq	r0, r0, sl

0000a7bc <__FUNCTION__.4004>:
    a7bc:	74696d65 	strbtvc	r6, [r9], #-3429	; 0xfffff29b
    a7c0:	00000000 	andeq	r0, r0, r0

0000a7c4 <__FUNCTION__.3952>:
    a7c4:	5f697072 	svcpl	0x00697072
    a7c8:	5f746573 	svcpl	0x00746573
    a7cc:	7074756f 	rsbsvc	r7, r4, pc, ror #10
    a7d0:	00007475 	andeq	r7, r0, r5, ror r4

0000a7d4 <__FUNCTION__.4030>:
    a7d4:	705f6176 	subsvc	r6, pc, r6, ror r1	; <UNPREDICTABLE>
    a7d8:	746e6972 	strbtvc	r6, [lr], #-2418	; 0xfffff68e
    a7dc:	0000006b 	andeq	r0, r0, fp, rrx
    a7e0:	454e4f44 	strbmi	r4, [lr, #-3908]	; 0xfffff0bc
    a7e4:	0a212121 	beq	852c70 <__bss_end__+0x847e48>
    a7e8:	00000000 	andeq	r0, r0, r0
    a7ec:	6c616d6b 	stclvs	13, cr6, [r1], #-428	; 0xfffffe54
    a7f0:	2e636f6c 	cdpcs	15, 6, cr6, cr3, cr12, {3}
    a7f4:	00000063 	andeq	r0, r0, r3, rrx
    a7f8:	5f78616d 	svcpl	0x0078616d
    a7fc:	7479626e 	ldrbtvc	r6, [r9], #-622	; 0xfffffd92
    a800:	00007365 	andeq	r7, r0, r5, ror #6
    a804:	494e4150 	stmdbmi	lr, {r4, r6, r8, lr}^
    a808:	73253a43 			; <UNDEFINED> instruction: 0x73253a43
    a80c:	3a73253a 	bcc	1cd3cfc <__bss_end__+0x1cc8ed4>
    a810:	733a6425 	teqvc	sl, #620756992	; 0x25000000
    a814:	69747465 	ldmdbvs	r4!, {r0, r2, r5, r6, sl, ip, sp, lr}^
    a818:	6820676e 	stmdavs	r0!, {r1, r2, r3, r5, r6, r8, r9, sl, sp, lr}
    a81c:	20706165 	rsbscs	r6, r0, r5, ror #2
    a820:	25206f74 	strcs	r6, [r0, #-3956]!	; 0xfffff08c
    a824:	77203a70 			; <UNDEFINED> instruction: 0x77203a70
    a828:	206c6c69 	rsbcs	r6, ip, r9, ror #24
    a82c:	20746968 	rsbscs	r6, r4, r8, ror #18
    a830:	20656874 	rsbcs	r6, r5, r4, ror r8
    a834:	20646c6f 	rsbcs	r6, r4, pc, ror #24
    a838:	70616568 	rsbvc	r6, r1, r8, ror #10
    a83c:	20746120 	rsbscs	r6, r4, r0, lsr #2
    a840:	0a0a7025 	beq	2a68dc <__bss_end__+0x29bab4>
    a844:	00000000 	andeq	r0, r0, r0
    a848:	494e4150 	stmdbmi	lr, {r4, r6, r8, lr}^
    a84c:	73253a43 			; <UNDEFINED> instruction: 0x73253a43
    a850:	3a73253a 	bcc	1cd3d40 <__bss_end__+0x1cc8f18>
    a854:	613a6425 	teqvs	sl, r5, lsr #8
    a858:	6165726c 	cmnvs	r5, ip, ror #4
    a85c:	63207964 			; <UNDEFINED> instruction: 0x63207964
    a860:	656c6c61 	strbvs	r6, [ip, #-3169]!	; 0xfffff39f
    a864:	6d6b2064 	stclvs	0, cr2, [fp, #-400]!	; 0xfffffe70
    a868:	6f6c6c61 	svcvs	0x006c6c61
    a86c:	6e695f63 	cdpvs	15, 6, cr5, cr9, cr3, {3}
    a870:	0a0a7469 	beq	2a7a1c <__bss_end__+0x29cbf4>
    a874:	00000000 	andeq	r0, r0, r0
    a878:	494e4150 	stmdbmi	lr, {r4, r6, r8, lr}^
    a87c:	73253a43 			; <UNDEFINED> instruction: 0x73253a43
    a880:	3a73253a 	bcc	1cd3d70 <__bss_end__+0x1cc8f48>
    a884:	253a6425 	ldrcs	r6, [sl, #-1061]!	; 0xfffffbdb
    a888:	626e2064 	rsbvs	r2, lr, #100, 0	; 0x64
    a88c:	73657479 	cmnvc	r5, #2030043136	; 0x79000000
    a890:	63786520 	cmnvs	r8, #32, 10	; 0x8000000
    a894:	65646565 	strbvs	r6, [r4, #-1381]!	; 0xfffffa9b
    a898:	69732064 	ldmdbvs	r3!, {r2, r5, r6, sp}^
    a89c:	6f20657a 	svcvs	0x0020657a
    a8a0:	65682066 	strbvs	r2, [r8, #-102]!	; 0xffffff9a
    a8a4:	62207061 	eorvs	r7, r0, #97, 0	; 0x61
    a8a8:	75252079 	strvc	r2, [r5, #-121]!	; 0xffffff87
    a8ac:	79626e20 	stmdbvc	r2!, {r5, r9, sl, fp, sp, lr}^
    a8b0:	0a736574 	beq	1ce3e88 <__bss_end__+0x1cd9060>
    a8b4:	0000000a 	andeq	r0, r0, sl
    a8b8:	4f525245 	svcmi	0x00525245
    a8bc:	73253a52 			; <UNDEFINED> instruction: 0x73253a52
    a8c0:	3a73253a 	bcc	1cd3db0 <__bss_end__+0x1cc8f88>
    a8c4:	203a6425 	eorscs	r6, sl, r5, lsr #8
    a8c8:	534c4146 	movtpl	r4, #49478	; 0xc146
    a8cc:	253c2845 	ldrcs	r2, [ip, #-2117]!	; 0xfffff7bb
    a8d0:	3a293e73 	bcc	a5a2a4 <__bss_end__+0xa4f47c>
    a8d4:	73736120 	cmnvc	r3, #8
    a8d8:	6e696d75 	mcrvs	13, 3, r6, cr9, cr5, {3}
    a8dc:	6f702067 	svcvs	0x00702067
    a8e0:	20726577 	rsbscs	r6, r2, r7, ror r5
    a8e4:	7420666f 	strtvc	r6, [r0], #-1647	; 0xfffff991
    a8e8:	000a6f77 	andeq	r6, sl, r7, ror pc
    a8ec:	705f7369 	subsvc	r7, pc, r9, ror #6
    a8f0:	2832776f 	ldmdacs	r2!, {r0, r1, r2, r3, r5, r6, r8, r9, sl, ip, sp, lr}
    a8f4:	67696c61 	strbvs	r6, [r9, -r1, ror #24]!
    a8f8:	6e656d6e 	cdpvs	13, 6, cr6, cr5, cr14, {3}
    a8fc:	00002974 	andeq	r2, r0, r4, ror r9
    a900:	705f7369 	subsvc	r7, pc, r9, ror #6
    a904:	2832776f 	ldmdacs	r2!, {r0, r1, r2, r3, r5, r6, r8, r9, sl, ip, sp, lr}
    a908:	0000296e 	andeq	r2, r0, lr, ror #18
    a90c:	4f525245 	svcmi	0x00525245
    a910:	73253a52 			; <UNDEFINED> instruction: 0x73253a52
    a914:	3a73253a 	bcc	1cd3e04 <__bss_end__+0x1cc8fdc>
    a918:	203a6425 	eorscs	r6, sl, r5, lsr #8
    a91c:	534c4146 	movtpl	r4, #49478	; 0xc146
    a920:	253c2845 	ldrcs	r2, [ip, #-2117]!	; 0xfffff7bb
    a924:	3a293e73 	bcc	a5a2f8 <__bss_end__+0xa4f4d0>
    a928:	706d6920 	rsbvc	r6, sp, r0, lsr #18
    a92c:	6973736f 	ldmdbvs	r3!, {r0, r1, r2, r3, r5, r6, r8, r9, ip, sp, lr}^
    a930:	0a656c62 	beq	1965ac0 <__bss_end__+0x195ac98>
    a934:	00000000 	andeq	r0, r0, r0
    a938:	615f7369 	cmpvs	pc, r9, ror #6
    a93c:	6e67696c 	vnmulvs.f16	s13, s14, s25	; <UNPREDICTABLE>
    a940:	68286465 	stmdavs	r8!, {r0, r2, r5, r6, sl, sp, lr}
    a944:	6c61202c 	stclvs	0, cr2, [r1], #-176	; 0xffffff50
    a948:	6d6e6769 	stclvs	7, cr6, [lr, #-420]!	; 0xfffffe5c
    a94c:	29746e65 	ldmdbcs	r4!, {r0, r2, r5, r6, r9, sl, fp, sp, lr}^
    a950:	00000000 	andeq	r0, r0, r0
    a954:	494e4150 	stmdbmi	lr, {r4, r6, r8, lr}^
    a958:	73253a43 			; <UNDEFINED> instruction: 0x73253a43
    a95c:	3a73253a 	bcc	1cd3e4c <__bss_end__+0x1cc9024>
    a960:	703a6425 	eorsvc	r6, sl, r5, lsr #8
    a964:	746e696f 	strbtvc	r6, [lr], #-2415	; 0xfffff691
    a968:	25207265 	strcs	r7, [r0, #-613]!	; 0xfffffd9b
    a96c:	61772070 	cmnvs	r7, r0, ror r0
    a970:	656e2073 	strbvs	r2, [lr, #-115]!	; 0xffffff8d
    a974:	20726576 	rsbscs	r6, r2, r6, ror r5
    a978:	6f6c6c61 	svcvs	0x006c6c61
    a97c:	65746163 	ldrbvs	r6, [r4, #-355]!	; 0xfffffe9d
    a980:	000a0a64 	andeq	r0, sl, r4, ror #20

0000a984 <__FUNCTION__.7>:
    a984:	6c616d6b 	stclvs	13, cr6, [r1], #-428	; 0xfffffe54
    a988:	5f636f6c 	svcpl	0x00636f6c
    a98c:	74696e69 	strbtvc	r6, [r9], #-3689	; 0xfffff197
    a990:	7465735f 	strbtvc	r7, [r5], #-863	; 0xfffffca1
    a994:	6174735f 	cmnvs	r4, pc, asr r3
    a998:	00007472 	andeq	r7, r0, r2, ror r4

0000a99c <__FUNCTION__.5>:
    a99c:	6c616d6b 	stclvs	13, cr6, [r1], #-428	; 0xfffffe54
    a9a0:	5f636f6c 	svcpl	0x00636f6c
    a9a4:	74696e69 	strbtvc	r6, [r9], #-3689	; 0xfffff197
    a9a8:	00000000 	andeq	r0, r0, r0

0000a9ac <__FUNCTION__.4>:
    a9ac:	6c616d6b 	stclvs	13, cr6, [r1], #-428	; 0xfffffe54
    a9b0:	5f636f6c 	svcpl	0x00636f6c
    a9b4:	7a746f6e 	bvc	1d26774 <__bss_end__+0x1d1b94c>
    a9b8:	006f7265 	rsbeq	r7, pc, r5, ror #4

0000a9bc <__FUNCTION__.2>:
    a9bc:	6c616d6b 	stclvs	13, cr6, [r1], #-428	; 0xfffffe54
    a9c0:	00636f6c 	rsbeq	r6, r3, ip, ror #30

0000a9c4 <__FUNCTION__.1>:
    a9c4:	6c616d6b 	stclvs	13, cr6, [r1], #-428	; 0xfffffe54
    a9c8:	5f636f6c 	svcpl	0x00636f6c
    a9cc:	67696c61 	strbvs	r6, [r9, -r1, ror #24]!
    a9d0:	0064656e 	rsbeq	r6, r4, lr, ror #10

0000a9d4 <__FUNCTION__.3>:
    a9d4:	6e756f72 	mrcvs	15, 3, r6, cr5, cr2, {3}
    a9d8:	00707564 	rsbseq	r7, r0, r4, ror #10

0000a9dc <__FUNCTION__.0>:
    a9dc:	6572666b 	ldrbvs	r6, [r2, #-1643]!	; 0xfffff995
    a9e0:	6f705f65 	svcvs	0x00705f65
    a9e4:	Address 0x000000000000a9e4 is out of bounds.


Disassembly of section .data:

0000a9e8 <putk>:
    a9e8:	00008bd8 	ldrdeq	r8, [r0], -r8	; <UNPREDICTABLE>

0000a9ec <heap>:
    a9ec:	0000ae28 	andeq	sl, r0, r8, lsr #28

0000a9f0 <heap_start>:
    a9f0:	0000ae28 	andeq	sl, r0, r8, lsr #28

0000a9f4 <heap_end>:
    a9f4:	0020ae28 	eoreq	sl, r0, r8, lsr #28

0000a9f8 <rpi_putchar>:
    a9f8:	00009fcc 	andeq	r9, r0, ip, asr #31

Disassembly of section .bss:

0000aa00 <__bss_start__>:
	...

0000aa08 <freep>:
	...

0000aa10 <base>:
	...

0000aa18 <heap_start>:
    aa18:	00000000 	andeq	r0, r0, r0

0000aa1c <heap_end>:
    aa1c:	00000000 	andeq	r0, r0, r0

0000aa20 <init_p.4031>:
    aa20:	00000000 	andeq	r0, r0, r0

0000aa24 <buf.3944>:
	...

0000ae24 <init_p.6>:
    ae24:	00000000 	andeq	r0, r0, r0

Disassembly of section .ARM.attributes:

00000000 <.ARM.attributes>:
   0:	00002a41 	andeq	r2, r0, r1, asr #20
   4:	61656100 	cmnvs	r5, r0, lsl #2
   8:	01006962 	tsteq	r0, r2, ror #18
   c:	00000020 	andeq	r0, r0, r0, lsr #32
  10:	4b5a3605 	blmi	168d82c <__bss_end__+0x1682a04>
  14:	08070600 	stmdaeq	r7, {r9, sl}
  18:	12010901 	andne	r0, r1, #16384	; 0x4000
  1c:	15011404 	strne	r1, [r1, #-1028]	; 0xfffffbfc
  20:	18031701 	stmdane	r3, {r0, r8, r9, sl, ip}
  24:	22011a01 	andcs	r1, r1, #4096	; 0x1000
  28:	Address 0x0000000000000028 is out of bounds.


Disassembly of section .comment:

00000000 <.comment>:
   0:	3a434347 	bcc	10d0d24 <__bss_end__+0x10c5efc>
   4:	4e472820 	cdpmi	8, 4, cr2, cr7, cr0, {1}
   8:	6f542055 	svcvs	0x00542055
   c:	20736c6f 	rsbscs	r6, r3, pc, ror #24
  10:	20726f66 	rsbscs	r6, r2, r6, ror #30
  14:	206d7241 	rsbcs	r7, sp, r1, asr #4
  18:	65626d45 	strbvs	r6, [r2, #-3397]!	; 0xfffff2bb
  1c:	64656464 	strbtvs	r6, [r5], #-1124	; 0xfffffb9c
  20:	6f725020 	svcvs	0x00725020
  24:	73736563 	cmnvc	r3, #415236096	; 0x18c00000
  28:	2073726f 	rsbscs	r7, r3, pc, ror #4
  2c:	30322d39 	eorscc	r2, r2, r9, lsr sp
  30:	712d3931 			; <UNDEFINED> instruction: 0x712d3931
  34:	616d2d34 	cmnvs	sp, r4, lsr sp
  38:	29726f6a 	ldmdbcs	r2!, {r1, r3, r5, r6, r8, r9, sl, fp, sp, lr}^
  3c:	322e3920 	eorcc	r3, lr, #32, 18	; 0x80000
  40:	3220312e 	eorcc	r3, r0, #-2147483637	; 0x8000000b
  44:	31393130 	teqcc	r9, r0, lsr r1
  48:	20353230 	eorscs	r3, r5, r0, lsr r2
  4c:	6c657228 	sfmvs	f7, 2, [r5], #-160	; 0xffffff60
  50:	65736165 	ldrbvs	r6, [r3, #-357]!	; 0xfffffe9b
  54:	415b2029 	cmpmi	fp, r9, lsr #32
  58:	612f4d52 			; <UNDEFINED> instruction: 0x612f4d52
  5c:	392d6d72 	pushcc	{r1, r4, r5, r6, r8, sl, fp, sp, lr}
  60:	6172622d 	cmnvs	r2, sp, lsr #4
  64:	2068636e 	rsbcs	r6, r8, lr, ror #6
  68:	69766572 	ldmdbvs	r6!, {r1, r4, r5, r6, r8, sl, sp, lr}^
  6c:	6e6f6973 			; <UNDEFINED> instruction: 0x6e6f6973
  70:	37373220 	ldrcc	r3, [r7, -r0, lsr #4]!
  74:	5d393935 			; <UNDEFINED> instruction: 0x5d393935
  78:	43434700 	movtmi	r4, #14080	; 0x3700
  7c:	4728203a 			; <UNDEFINED> instruction: 0x4728203a
  80:	4120554e 			; <UNDEFINED> instruction: 0x4120554e
  84:	45206d72 	strmi	r6, [r0, #-3442]!	; 0xfffff28e
  88:	6465626d 	strbtvs	r6, [r5], #-621	; 0xfffffd93
  8c:	20646564 	rsbcs	r6, r4, r4, ror #10
  90:	6c6f6f54 	stclvs	15, cr6, [pc], #-336	; ffffff48 <__bss_end__+0xffff5120>
  94:	69616863 	stmdbvs	r1!, {r0, r1, r5, r6, fp, sp, lr}^
  98:	3031206e 	eorscc	r2, r1, lr, rrx
  9c:	322d332e 	eorcc	r3, sp, #-1207959552	; 0xb8000000
  a0:	2e313230 	mrccs	2, 1, r3, cr1, cr0, {1}
  a4:	20293031 	eorcs	r3, r9, r1, lsr r0
  a8:	332e3031 			; <UNDEFINED> instruction: 0x332e3031
  ac:	3220312e 	eorcc	r3, r0, #-2147483637	; 0x8000000b
  b0:	30313230 	eorscc	r3, r1, r0, lsr r2
  b4:	20343238 	eorscs	r3, r4, r8, lsr r2
  b8:	6c657228 	sfmvs	f7, 2, [r5], #-160	; 0xffffff60
  bc:	65736165 	ldrbvs	r6, [r3, #-357]!	; 0xfffffe9b
  c0:	Address 0x00000000000000c0 is out of bounds.


Disassembly of section .debug_info:

00000000 <.debug_info>:
       0:	000004a1 	andeq	r0, r0, r1, lsr #9
       4:	00000004 	andeq	r0, r0, r4
       8:	01040000 	mrseq	r0, (UNDEF: 4)
       c:	00000149 	andeq	r0, r0, r9, asr #2
      10:	0000260c 	andeq	r2, r0, ip, lsl #12
      14:	00011700 	andeq	r1, r1, r0, lsl #14
      18:	00803800 	addeq	r3, r0, r0, lsl #16
      1c:	00010000 	andeq	r0, r1, r0
      20:	00000000 	andeq	r0, r0, r0
      24:	05040200 	streq	r0, [r4, #-512]	; 0xfffffe00
      28:	00746e69 	rsbseq	r6, r4, r9, ror #28
      2c:	ea070403 	b	1c1040 <__bss_end__+0x1b6218>
      30:	03000000 	movweq	r0, #0
      34:	00770601 	rsbseq	r0, r7, r1, lsl #12
      38:	02030000 	andeq	r0, r3, #0, 0
      3c:	0001fd05 	andeq	pc, r1, r5, lsl #26
      40:	05040300 	streq	r0, [r4, #-768]	; 0xfffffd00
      44:	0000010e 	andeq	r0, r0, lr, lsl #2
      48:	09050803 	stmdbeq	r5, {r0, r1, fp}
      4c:	04000001 	streq	r0, [r0], #-1
      50:	000000f7 	strdeq	r0, [r0], -r7
      54:	5b182e04 	blpl	60b86c <__bss_end__+0x600a44>
      58:	03000000 	movweq	r0, #0
      5c:	00750801 	rsbseq	r0, r5, r1, lsl #16
      60:	11040000 	mrsne	r0, (UNDEF: 4)
      64:	04000002 	streq	r0, [r0], #-2
      68:	006e1931 	rsbeq	r1, lr, r1, lsr r9
      6c:	02030000 	andeq	r0, r3, #0, 0
      70:	00009007 	andeq	r9, r0, r7
      74:	021a0400 	andseq	r0, sl, #0, 8
      78:	34040000 	strcc	r0, [r4], #-0
      7c:	00008119 	andeq	r8, r0, r9, lsl r1
      80:	07040300 	streq	r0, [r4, -r0, lsl #6]
      84:	000000e5 	andeq	r0, r0, r5, ror #1
      88:	e0070803 	and	r0, r7, r3, lsl #16
      8c:	05000000 	streq	r0, [r0, #-0]
      90:	00000025 	andeq	r0, r0, r5, lsr #32
      94:	0000009e 	muleq	r0, lr, r0
      98:	00002506 	andeq	r2, r0, r6, lsl #10
      9c:	23070000 	movwcs	r0, #28672	; 0x7000
      a0:	05000002 	streq	r0, [r0, #-2]
      a4:	00aa0e1c 	adceq	r0, sl, ip, lsl lr
      a8:	04080000 	streq	r0, [r8], #-0
      ac:	0000008f 	andeq	r0, r0, pc, lsl #1
      b0:	00002505 	andeq	r2, r0, r5, lsl #10
      b4:	0000bf00 	andeq	fp, r0, r0, lsl #30
      b8:	00bf0600 	adcseq	r0, pc, r0, lsl #12
      bc:	08000000 	stmdaeq	r0, {}	; <UNPREDICTABLE>
      c0:	0000cc04 	andeq	ip, r0, r4, lsl #24
      c4:	08010300 	stmdaeq	r1, {r8, r9}
      c8:	0000007e 	andeq	r0, r0, lr, ror r0
      cc:	0000c509 	andeq	ip, r0, r9, lsl #10
      d0:	05d30700 	ldrbeq	r0, [r3, #1792]	; 0x700
      d4:	21050000 	mrscs	r0, (UNDEF: 5)
      d8:	0000dd0e 	andeq	sp, r0, lr, lsl #26
      dc:	b0040800 	andlt	r0, r4, r0, lsl #16
      e0:	0a000000 	beq	e8 <__code_start__-0x7f18>
      e4:	0904020c 	stmdbeq	r4, {r2, r3, r9}
      e8:	00000114 	andeq	r0, r0, r4, lsl r1
      ec:	0000700b 	andeq	r7, r0, fp
      f0:	11060200 	mrsne	r0, LR_usr
      f4:	000000bf 	strheq	r0, [r0], -pc	; <UNPREDICTABLE>
      f8:	00bf0b00 	adcseq	r0, pc, r0, lsl #22
      fc:	07020000 	streq	r0, [r2, -r0]
     100:	0000bf11 	andeq	fp, r0, r1, lsl pc
     104:	460b0400 	strmi	r0, [fp], -r0, lsl #8
     108:	02000000 	andeq	r0, r0, #0, 0
     10c:	002c0e08 	eoreq	r0, ip, r8, lsl #28
     110:	00080000 	andeq	r0, r8, r0
     114:	00020704 	andeq	r0, r2, r4, lsl #14
     118:	03090200 	movweq	r0, #37376	; 0x9200
     11c:	000000e3 	andeq	r0, r0, r3, ror #1
     120:	0000a30c 	andeq	sl, r0, ip, lsl #6
     124:	0d03a800 	stceq	8, cr10, [r3, #-0]
     128:	0001a310 	andeq	sl, r1, r0, lsl r3
     12c:	00130b00 	andseq	r0, r3, r0, lsl #22
     130:	0e030000 	cdpeq	0, 0, cr0, cr3, cr0, {0}
     134:	0001a314 	andeq	sl, r1, r4, lsl r3
     138:	630b0000 	movwvs	r0, #45056	; 0xb000
     13c:	03000000 	movweq	r0, #0
     140:	00750e0f 	rsbseq	r0, r5, pc, lsl #28
     144:	0b040000 	bleq	10014c <__bss_end__+0xf5324>
     148:	00000020 	andeq	r0, r0, r0, lsr #32
     14c:	750e1003 	strvc	r1, [lr, #-3]
     150:	08000000 	stmdaeq	r0, {}	; <UNPREDICTABLE>
     154:	0000d70b 	andeq	sp, r0, fp, lsl #14
     158:	0e140300 	cdpeq	3, 1, cr0, cr4, cr0, {0}
     15c:	00000075 	andeq	r0, r0, r5, ror r0
     160:	00ff0b0c 	rscseq	r0, pc, ip, lsl #22
     164:	16030000 	strne	r0, [r3], -r0
     168:	0001140f 	andeq	r1, r1, pc, lsl #8
     16c:	2f0b1000 	svccs	0x000b1000
     170:	03000002 	movweq	r0, #2
     174:	00750e19 	rsbseq	r0, r5, r9, lsl lr
     178:	0b1c0000 	bleq	700180 <__bss_end__+0x6f5358>
     17c:	0000023a 	andeq	r0, r0, sl, lsr r2
     180:	750e1a03 	strvc	r1, [lr, #-2563]	; 0xfffff5fd
     184:	20000000 	andcs	r0, r0, r0
     188:	0003b40b 	andeq	fp, r3, fp, lsl #8
     18c:	0e1c0300 	cdpeq	3, 1, cr0, cr12, cr0, {0}
     190:	00000062 	andeq	r0, r0, r2, rrx
     194:	7a720d24 	bvc	1c8362c <__bss_end__+0x1c78804>
     198:	1e030031 	mcrne	0, 0, r0, cr3, cr1, {1}
     19c:	0001a90d 	andeq	sl, r1, sp, lsl #18
     1a0:	08002600 	stmdaeq	r0, {r9, sl, sp}
     1a4:	00012004 	andeq	r2, r1, r4
     1a8:	004f0e00 	subeq	r0, pc, r0, lsl #28
     1ac:	01b90000 			; <UNDEFINED> instruction: 0x01b90000
     1b0:	2c0f0000 	stccs	0, cr0, [pc], {-0}
     1b4:	7f000000 	svcvc	0x00000000
     1b8:	000d0400 	andeq	r0, sp, r0, lsl #8
     1bc:	1f030000 	svcne	0x00030000
     1c0:	00012003 	andeq	r2, r1, r3
     1c4:	07041000 	streq	r1, [r4, -r0]
     1c8:	00000000 	andeq	r0, r0, r0
     1cc:	2c11a503 	cfldr32cs	mvfx10, [r1], {3}
     1d0:	11000000 	mrsne	r0, (UNDEF: 0)
     1d4:	0000005b 	andeq	r0, r0, fp, asr r0
     1d8:	94061101 	strls	r1, [r6], #-257	; 0xfffffeff
     1dc:	a4000080 	strge	r0, [r0], #-128	; 0xffffff80
     1e0:	01000000 	mrseq	r0, (UNDEF: 0)
     1e4:	0002fb9c 	muleq	r2, ip, fp
     1e8:	00701200 	rsbseq	r1, r0, r0, lsl #4
     1ec:	fb0b1501 	blx	2c55fa <__bss_end__+0x2ba7d2>
     1f0:	06000002 	streq	r0, [r0], -r2
     1f4:	00000000 	andeq	r0, r0, r0
     1f8:	13000000 	movwne	r0, #0
     1fc:	000000c4 	andeq	r0, r0, r4, asr #1
     200:	00000311 	andeq	r0, r0, r1, lsl r3
     204:	a1e80305 	mvnge	r0, r5, lsl #6
     208:	a4140000 	ldrge	r0, [r4], #-0
     20c:	6a000080 	bvs	414 <__code_start__-0x7bec>
     210:	21000004 	tstcs	r0, r4
     214:	15000002 	strne	r0, [r0, #-2]
     218:	03055001 	movweq	r5, #20481	; 0x5001
     21c:	0000a128 	andeq	sl, r0, r8, lsr #2
     220:	80a81600 	adchi	r1, r8, r0, lsl #12
     224:	03160000 	tsteq	r6, #0, 0
     228:	b8140000 	ldmdalt	r4, {}	; <UNPREDICTABLE>
     22c:	6a000080 	bvs	434 <__code_start__-0x7bcc>
     230:	47000004 	strmi	r0, [r0, -r4]
     234:	15000002 	strne	r0, [r0, #-2]
     238:	03055001 	movweq	r5, #20481	; 0x5001
     23c:	0000a134 	andeq	sl, r0, r4, lsr r1
     240:	02510115 	subseq	r0, r1, #1073741829	; 0x40000005
     244:	14000074 	strne	r0, [r0], #-116	; 0xffffff8c
     248:	000080c0 	andeq	r8, r0, r0, asr #1
     24c:	00000476 	andeq	r0, r0, r6, ror r4
     250:	0000025a 	andeq	r0, r0, sl, asr r2
     254:	01500115 	cmpeq	r0, r5, lsl r1
     258:	d0140030 	andsle	r0, r4, r0, lsr r0
     25c:	76000080 	strvc	r0, [r0], -r0, lsl #1
     260:	6d000004 	stcvs	0, cr0, [r0, #-16]
     264:	15000002 	strne	r0, [r0, #-2]
     268:	31015001 	tstcc	r1, r1
     26c:	80e01400 	rschi	r1, r0, r0, lsl #8
     270:	046a0000 	strbteq	r0, [sl], #-0
     274:	02840000 	addeq	r0, r4, #0, 0
     278:	01150000 	tsteq	r5, r0
     27c:	80030550 	andhi	r0, r3, r0, asr r5
     280:	000000a1 	andeq	r0, r0, r1, lsr #1
     284:	0080fc14 	addeq	pc, r0, r4, lsl ip	; <UNPREDICTABLE>
     288:	00046a00 	andeq	r6, r4, r0, lsl #20
     28c:	0002b200 	andeq	fp, r2, r0, lsl #4
     290:	50011500 	andpl	r1, r1, r0, lsl #10
     294:	a1500305 	cmpge	r0, r5, lsl #6
     298:	01150000 	tsteq	r5, r0
     29c:	e0030551 	and	r0, r3, r1, asr r5
     2a0:	150000a0 	strne	r0, [r0, #-160]	; 0xffffff60
     2a4:	03055201 	movweq	r5, #20993	; 0x5201
     2a8:	0000a1e8 	andeq	sl, r0, r8, ror #3
     2ac:	01530115 	cmpeq	r3, r5, lsl r1
     2b0:	0016004b 	andseq	r0, r6, fp, asr #32
     2b4:	82000081 	andhi	r0, r0, #129, 0	; 0x81
     2b8:	14000004 	strne	r0, [r0], #-4
     2bc:	00008118 	andeq	r8, r0, r8, lsl r1
     2c0:	0000046a 	andeq	r0, r0, sl, ror #8
     2c4:	000002f1 	strdeq	r0, [r0], -r1
     2c8:	05500115 	ldrbeq	r0, [r0, #-277]	; 0xfffffeeb
     2cc:	00a1a803 	adceq	sl, r1, r3, lsl #16
     2d0:	51011500 	tstpl	r1, r0, lsl #10
     2d4:	a0e00305 	rscge	r0, r0, r5, lsl #6
     2d8:	01150000 	tsteq	r5, r0
     2dc:	e8030552 	stmda	r3, {r1, r4, r6, r8, sl}
     2e0:	150000a1 	strne	r0, [r0, #-161]	; 0xffffff5f
     2e4:	08025301 	stmdaeq	r2, {r0, r8, r9, ip, lr}
     2e8:	7d021520 	cfstr32vc	mvfx1, [r2, #-128]	; 0xffffff80
     2ec:	00740200 	rsbseq	r0, r4, r0, lsl #4
     2f0:	811c1600 	tsthi	ip, r0, lsl #12
     2f4:	04820000 	streq	r0, [r2], #0
     2f8:	08000000 	stmdaeq	r0, {}	; <UNPREDICTABLE>
     2fc:	0000c504 	andeq	ip, r0, r4, lsl #10
     300:	00cc0e00 	sbceq	r0, ip, r0, lsl #28
     304:	03110000 	tsteq	r1, #0, 0
     308:	2c0f0000 	stccs	0, cr0, [pc], {-0}
     30c:	07000000 	streq	r0, [r0, -r0]
     310:	03010900 	movweq	r0, #6400	; 0x1900
     314:	d1170000 	tstle	r7, r0
     318:	01000000 	mrseq	r0, (UNDEF: 0)
     31c:	02fb070a 	rscseq	r0, fp, #2621440	; 0x280000
     320:	80380000 	eorshi	r0, r8, r0
     324:	005c0000 	subseq	r0, ip, r0
     328:	9c010000 	stcls	0, cr0, [r1], {-0}
     32c:	000003f3 	strdeq	r0, [r0], -r3
     330:	01007012 	tsteq	r0, r2, lsl r0
     334:	02fb0b0c 	rscseq	r0, fp, #12, 22	; 0x3000
     338:	00370000 	eorseq	r0, r7, r0
     33c:	002f0000 	eoreq	r0, pc, r0
     340:	c4130000 	ldrgt	r0, [r3], #-0
     344:	03000000 	movweq	r0, #0
     348:	05000004 	streq	r0, [r0, #-4]
     34c:	00a1e003 	adceq	lr, r1, r3
     350:	04341800 	ldrteq	r1, [r4], #-2048	; 0xfffff800
     354:	80400000 	subhi	r0, r0, r0
     358:	40010000 	andmi	r0, r1, r0
     35c:	18000080 	stmdane	r0, {r7}
     360:	01000000 	mrseq	r0, (UNDEF: 0)
     364:	03920f0c 	orrseq	r0, r2, #12, 30	; 0x30
     368:	5d190000 	ldcpl	0, cr0, [r9, #-0]
     36c:	6f000004 	svcvs	0x00000004
     370:	6d000000 	stcvs	0, cr0, [r0, #-0]
     374:	19000000 	stmdbne	r0, {}	; <UNPREDICTABLE>
     378:	00000451 	andeq	r0, r0, r1, asr r4
     37c:	00000085 	andeq	r0, r0, r5, lsl #1
     380:	00000083 	andeq	r0, r0, r3, lsl #1
     384:	00044519 	andeq	r4, r4, r9, lsl r5
     388:	00009f00 	andeq	r9, r0, r0, lsl #30
     38c:	00009d00 	andeq	r9, r0, r0, lsl #26
     390:	08180000 	ldmdaeq	r8, {}	; <UNPREDICTABLE>
     394:	6c000004 	stcvs	0, cr0, [r0], {4}
     398:	02000080 	andeq	r0, r0, #128, 0	; 0x80
     39c:	0000806c 	andeq	r8, r0, ip, rrx
     3a0:	00000000 	andeq	r0, r0, r0
     3a4:	c6050d01 	strgt	r0, [r5], -r1, lsl #26
     3a8:	19000003 	stmdbne	r0, {r0, r1}
     3ac:	00000419 	andeq	r0, r0, r9, lsl r4
     3b0:	000000b9 	strheq	r0, [r0], -r9
     3b4:	000000b7 	strheq	r0, [r0], -r7
     3b8:	0004231a 	andeq	r2, r4, sl, lsl r3
     3bc:	0000d400 	andeq	sp, r0, r0, lsl #8
     3c0:	0000cc00 	andeq	ip, r0, r0, lsl #24
     3c4:	68140000 	ldmdavs	r4, {}	; <UNPREDICTABLE>
     3c8:	98000080 	stmdals	r0, {r7}
     3cc:	d9000004 	stmdble	r0, {r2}
     3d0:	15000003 	strne	r0, [r0, #-3]
     3d4:	34015001 	strcc	r5, [r1], #-1
     3d8:	807c1b00 	rsbshi	r1, ip, r0, lsl #22
     3dc:	046a0000 	strbteq	r0, [sl], #-0
     3e0:	01150000 	tsteq	r5, r0
     3e4:	00030550 	andeq	r0, r3, r0, asr r5
     3e8:	150000a1 	strne	r0, [r0, #-161]	; 0xffffff5f
     3ec:	74025201 	strvc	r5, [r2], #-513	; 0xfffffdff
     3f0:	0e000000 	cdpeq	0, 0, cr0, cr0, cr0, {0}
     3f4:	000000cc 	andeq	r0, r0, ip, asr #1
     3f8:	00000403 	andeq	r0, r0, r3, lsl #8
     3fc:	00002c0f 	andeq	r2, r0, pc, lsl #24
     400:	09000500 	stmdbeq	r0, {r8, sl}
     404:	000003f3 	strdeq	r0, [r0], -r3
     408:	0000b51c 	andeq	fp, r0, ip, lsl r5
     40c:	11220300 			; <UNDEFINED> instruction: 0x11220300
     410:	0000002c 	andeq	r0, r0, ip, lsr #32
     414:	00042e01 	andeq	r2, r4, r1, lsl #28
     418:	00701d00 	rsbseq	r1, r0, r0, lsl #26
     41c:	c5212203 	strgt	r2, [r1, #-515]!	; 0xfffffdfd
     420:	1e000001 	cdpne	0, 0, cr0, cr0, cr1, {0}
     424:	23030068 	movwcs	r0, #12392	; 0x3068
     428:	00042e0c 	andeq	r2, r4, ip, lsl #28
     42c:	04080000 	streq	r0, [r8], #-0
     430:	000001b9 			; <UNDEFINED> instruction: 0x000001b9
     434:	0000aa1c 	andeq	sl, r0, ip, lsl sl
     438:	0b0c0200 	bleq	300c40 <__bss_end__+0x2f5e18>
     43c:	00000114 	andeq	r0, r0, r4, lsl r1
     440:	00046a03 	andeq	r6, r4, r3, lsl #20
     444:	00701f00 	rsbseq	r1, r0, r0, lsl #30
     448:	0c020000 	stceq	0, cr0, [r2], {-0}
     44c:	0000bf22 	andeq	fp, r0, r2, lsr #30
     450:	00bf1f00 	adcseq	r1, pc, r0, lsl #30
     454:	0c020000 	stceq	0, cr0, [r2], {-0}
     458:	0000bf34 	andeq	fp, r0, r4, lsr pc
     45c:	00461f00 	subeq	r1, r6, r0, lsl #30
     460:	0c020000 	stceq	0, cr0, [r2], {-0}
     464:	00002c43 	andeq	r2, r0, r3, asr #24
     468:	95200000 	strls	r0, [r0, #-0]!
     46c:	95000005 	strls	r0, [r0, #-5]
     470:	05000005 	streq	r0, [r0, #-5]
     474:	4d200628 	stcmi	6, cr0, [r0, #-160]!	; 0xffffff60
     478:	4d000000 	stcmi	0, cr0, [r0, #-0]
     47c:	03000000 	movweq	r0, #0
     480:	83200a5e 			; <UNDEFINED> instruction: 0x83200a5e
     484:	83000000 	movwhi	r0, #0
     488:	05000000 	streq	r0, [r0, #-0]
     48c:	0821066e 	stmdaeq	r1!, {r1, r2, r3, r5, r6, r9, sl}
     490:	6574069e 	ldrbvs	r0, [r4, #-1694]!	; 0xfffff962
     494:	00317473 	eorseq	r7, r1, r3, ror r4
     498:	00001820 	andeq	r1, r0, r0, lsr #16
     49c:	00001800 	andeq	r1, r0, r0, lsl #16
     4a0:	08490300 	stmdaeq	r9, {r8, r9}^
     4a4:	00083d00 	andeq	r3, r8, r0, lsl #26
     4a8:	df000400 	svcle	0x00000400
     4ac:	04000001 	streq	r0, [r0], #-1
     4b0:	00014901 	andeq	r4, r1, r1, lsl #18
     4b4:	02cf0c00 	sbceq	r0, pc, #0, 24
     4b8:	01170000 	tsteq	r7, r0
     4bc:	81380000 	teqhi	r8, r0
     4c0:	02940000 	addseq	r0, r4, #0, 0
     4c4:	01860000 	orreq	r0, r6, r0
     4c8:	04020000 	streq	r0, [r2], #-0
     4cc:	746e6905 	strbtvc	r6, [lr], #-2309	; 0xfffff6fb
     4d0:	07040300 	streq	r0, [r4, -r0, lsl #6]
     4d4:	000000ea 	andeq	r0, r0, sl, ror #1
     4d8:	77060103 	strvc	r0, [r6, -r3, lsl #2]
     4dc:	03000000 	movweq	r0, #0
     4e0:	01fd0502 	mvnseq	r0, r2, lsl #10
     4e4:	04030000 	streq	r0, [r3], #-0
     4e8:	00010e05 	andeq	r0, r1, r5, lsl #28
     4ec:	05080300 	streq	r0, [r8, #-768]	; 0xfffffd00
     4f0:	00000109 	andeq	r0, r0, r9, lsl #2
     4f4:	0000f704 	andeq	pc, r0, r4, lsl #14
     4f8:	182e0300 	stmdane	lr!, {r8, r9}
     4fc:	0000005b 	andeq	r0, r0, fp, asr r0
     500:	75080103 	strvc	r0, [r8, #-259]	; 0xfffffefd
     504:	04000000 	streq	r0, [r0], #-0
     508:	00000211 	andeq	r0, r0, r1, lsl r2
     50c:	6e193103 	mufvse	f3, f1, f3
     510:	03000000 	movweq	r0, #0
     514:	00900702 	addseq	r0, r0, r2, lsl #14
     518:	1a040000 	bne	100520 <__bss_end__+0xf56f8>
     51c:	03000002 	movweq	r0, #2
     520:	00811934 	addeq	r1, r1, r4, lsr r9
     524:	04030000 	streq	r0, [r3], #-0
     528:	0000e507 	andeq	lr, r0, r7, lsl #10
     52c:	07080300 	streq	r0, [r8, -r0, lsl #6]
     530:	000000e0 	andeq	r0, r0, r0, ror #1
     534:	00002505 	andeq	r2, r0, r5, lsl #10
     538:	00009e00 	andeq	r9, r0, r0, lsl #28
     53c:	00250600 	eoreq	r0, r5, r0, lsl #12
     540:	07000000 	streq	r0, [r0, -r0]
     544:	00000223 	andeq	r0, r0, r3, lsr #4
     548:	aa0e1c04 	bge	387560 <__bss_end__+0x37c738>
     54c:	08000000 	stmdaeq	r0, {}	; <UNPREDICTABLE>
     550:	00008f04 	andeq	r8, r0, r4, lsl #30
     554:	00250500 	eoreq	r0, r5, r0, lsl #10
     558:	00bf0000 	adcseq	r0, pc, r0
     55c:	bf060000 	svclt	0x00060000
     560:	00000000 	andeq	r0, r0, r0
     564:	00cc0408 	sbceq	r0, ip, r8, lsl #8
     568:	01030000 	mrseq	r0, (UNDEF: 3)
     56c:	00007e08 	andeq	r7, r0, r8, lsl #28
     570:	00c50900 	sbceq	r0, r5, r0, lsl #18
     574:	d3070000 	movwle	r0, #28672	; 0x7000
     578:	04000005 	streq	r0, [r0], #-5
     57c:	00dd0e21 	sbcseq	r0, sp, r1, lsr #28
     580:	04080000 	streq	r0, [r8], #-0
     584:	000000b0 	strheq	r0, [r0], -r0	; <UNPREDICTABLE>
     588:	04050c0a 	streq	r0, [r5], #-3082	; 0xfffff3f6
     58c:	00011409 	andeq	r1, r1, r9, lsl #8
     590:	00700b00 	rsbseq	r0, r0, r0, lsl #22
     594:	06050000 	streq	r0, [r5], -r0
     598:	0000bf11 	andeq	fp, r0, r1, lsl pc
     59c:	bf0b0000 	svclt	0x000b0000
     5a0:	05000000 	streq	r0, [r0, #-0]
     5a4:	00bf1107 	adcseq	r1, pc, r7, lsl #2
     5a8:	0b040000 	bleq	1005b0 <__bss_end__+0xf5788>
     5ac:	00000046 	andeq	r0, r0, r6, asr #32
     5b0:	2c0e0805 	stccs	8, cr0, [lr], {5}
     5b4:	08000000 	stmdaeq	r0, {}	; <UNPREDICTABLE>
     5b8:	02070400 	andeq	r0, r7, #0, 8
     5bc:	09050000 	stmdbeq	r5, {}	; <UNPREDICTABLE>
     5c0:	0000e303 	andeq	lr, r0, r3, lsl #6
     5c4:	01070c00 	tsteq	r7, r0, lsl #24
     5c8:	0000005b 	andeq	r0, r0, fp, asr r0
     5cc:	3b0e0902 	blcc	3829dc <__bss_end__+0x377bb4>
     5d0:	0d000001 	stceq	0, cr0, [r0, #-4]
     5d4:	000002d9 	ldrdeq	r0, [r0], -r9
     5d8:	02560d0b 	subseq	r0, r6, #704	; 0x2c0
     5dc:	000c0000 	andeq	r0, ip, r0
     5e0:	5b01070c 	blpl	42218 <__bss_end__+0x373f0>
     5e4:	02000000 	andeq	r0, r0, #0, 0
     5e8:	0156060a 	cmpeq	r6, sl, lsl #12
     5ec:	700d0000 	andvc	r0, sp, r0
     5f0:	80000002 	andhi	r0, r0, r2
     5f4:	00025c0d 	andeq	r5, r2, sp, lsl #24
     5f8:	0e00fe00 	cdpeq	14, 0, cr15, cr0, cr0, {0}
     5fc:	000000a3 	andeq	r0, r0, r3, lsr #1
     600:	100d02a8 	andne	r0, sp, r8, lsr #5
     604:	000001d9 	ldrdeq	r0, [r0], -r9
     608:	0000130b 	andeq	r1, r0, fp, lsl #6
     60c:	140e0200 	strne	r0, [lr], #-512	; 0xfffffe00
     610:	000001d9 	ldrdeq	r0, [r0], -r9
     614:	00630b00 	rsbeq	r0, r3, r0, lsl #22
     618:	0f020000 	svceq	0x00020000
     61c:	0000750e 	andeq	r7, r0, lr, lsl #10
     620:	200b0400 	andcs	r0, fp, r0, lsl #8
     624:	02000000 	andeq	r0, r0, #0, 0
     628:	00750e10 	rsbseq	r0, r5, r0, lsl lr
     62c:	0b080000 	bleq	200634 <__bss_end__+0x1f580c>
     630:	000000d7 	ldrdeq	r0, [r0], -r7
     634:	750e1402 	strvc	r1, [lr, #-1026]	; 0xfffffbfe
     638:	0c000000 	stceq	0, cr0, [r0], {-0}
     63c:	0000ff0b 	andeq	pc, r0, fp, lsl #30
     640:	0f160200 	svceq	0x00160200
     644:	00000114 	andeq	r0, r0, r4, lsl r1
     648:	022f0b10 	eoreq	r0, pc, #16, 22	; 0x4000
     64c:	19020000 	stmdbne	r2, {}	; <UNPREDICTABLE>
     650:	0000750e 	andeq	r7, r0, lr, lsl #10
     654:	3a0b1c00 	bcc	2c765c <__bss_end__+0x2bc834>
     658:	02000002 	andeq	r0, r0, #2, 0
     65c:	00750e1a 	rsbseq	r0, r5, sl, lsl lr
     660:	0b200000 	bleq	800668 <__bss_end__+0x7f5840>
     664:	000003b4 			; <UNDEFINED> instruction: 0x000003b4
     668:	620e1c02 	andvs	r1, lr, #512	; 0x200
     66c:	24000000 	strcs	r0, [r0], #-0
     670:	317a720f 	cmncc	sl, pc, lsl #4
     674:	0d1e0200 	lfmeq	f0, 4, [lr, #-0]
     678:	000001df 	ldrdeq	r0, [r0], -pc	; <UNPREDICTABLE>
     67c:	04080026 	streq	r0, [r8], #-38	; 0xffffffda
     680:	00000156 	andeq	r0, r0, r6, asr r1
     684:	00004f10 	andeq	r4, r0, r0, lsl pc
     688:	0001ef00 	andeq	lr, r1, r0, lsl #30
     68c:	002c1100 	eoreq	r1, ip, r0, lsl #2
     690:	007f0000 	rsbseq	r0, pc, r0
     694:	00000d04 	andeq	r0, r0, r4, lsl #26
     698:	031f0200 	tsteq	pc, #0, 4
     69c:	00000156 	andeq	r0, r0, r6, asr r1
     6a0:	00070412 	andeq	r0, r7, r2, lsl r4
     6a4:	02000000 	andeq	r0, r0, #0, 0
     6a8:	002c11a5 	eoreq	r1, ip, r5, lsr #3
     6ac:	93130000 	tstls	r3, #0, 0
     6b0:	01000002 	tsteq	r0, r2
     6b4:	021b0f08 	andseq	r0, fp, #8, 30
     6b8:	03050000 	movweq	r0, #20480	; 0x5000
     6bc:	0000aa00 	andeq	sl, r0, r0, lsl #20
     6c0:	01ef0408 	mvneq	r0, r8, lsl #8
     6c4:	18140000 	ldmdane	r4, {}	; <UNPREDICTABLE>
     6c8:	01000000 	mrseq	r0, (UNDEF: 0)
     6cc:	01fb0866 	mvnseq	r0, r6, ror #16
     6d0:	83380000 	teqhi	r8, #0, 0
     6d4:	00940000 	addseq	r0, r4, r0
     6d8:	9c010000 	stcls	0, cr0, [r1], {-0}
     6dc:	000002ee 	andeq	r0, r0, lr, ror #5
     6e0:	00030115 	andeq	r0, r3, r5, lsl r1
     6e4:	1a660100 	bne	1980aec <__bss_end__+0x1975cc4>
     6e8:	00000075 	andeq	r0, r0, r5, ror r0
     6ec:	00000110 	andeq	r0, r0, r0, lsl r1
     6f0:	0000010a 	andeq	r0, r0, sl, lsl #2
     6f4:	01006c16 	tsteq	r0, r6, lsl ip
     6f8:	01142c66 	tsteq	r4, r6, ror #24
     6fc:	91020000 	mrsls	r0, (UNDEF: 2)
     700:	00681764 	rsbeq	r1, r8, r4, ror #14
     704:	1b0c6801 	blne	31a710 <__bss_end__+0x30f8e8>
     708:	42000002 	andmi	r0, r0, #2, 0
     70c:	3c000001 	stccc	0, cr0, [r0], {1}
     710:	18000001 	stmdane	r0, {r0}
     714:	00008354 	andeq	r8, r0, r4, asr r3
     718:	00000804 	andeq	r0, r0, r4, lsl #16
     71c:	00000283 	andeq	r0, r0, r3, lsl #5
     720:	03500119 	cmpeq	r0, #1073741830	; 0x40000006
     724:	0001a876 	andeq	sl, r1, r6, ror r8
     728:	00836418 	addeq	r6, r3, r8, lsl r4
     72c:	00081000 	andeq	r1, r8, r0
     730:	0002a200 	andeq	sl, r2, r0, lsl #4
     734:	50011900 	andpl	r1, r1, r0, lsl #18
     738:	19007402 	stmdbne	r0, {r1, sl, ip, sp, lr}
     73c:	30015101 	andcc	r5, r1, r1, lsl #2
     740:	02520119 	subseq	r0, r2, #1073741830	; 0x40000006
     744:	1800a808 	stmdane	r0, {r3, fp, sp, pc}
     748:	00008390 	muleq	r0, r0, r3
     74c:	0000081c 	andeq	r0, r0, ip, lsl r8
     750:	000002ce 	andeq	r0, r0, lr, asr #5
     754:	05500119 	ldrbeq	r0, [r0, #-281]	; 0xfffffee7
     758:	00a20003 	adceq	r0, r2, r3
     75c:	51011900 	tstpl	r1, r0, lsl #18
     760:	06007503 	streq	r7, [r0], -r3, lsl #10
     764:	03520119 	cmpeq	r2, #1073741830	; 0x40000006
     768:	19066091 	stmdbne	r6, {r0, r4, r7, sp, lr}
     76c:	91035301 	tstls	r3, r1, lsl #6
     770:	1a000664 	bne	2108 <__code_start__-0x5ef8>
     774:	000083a4 	andeq	r8, r0, r4, lsr #7
     778:	0000081c 	andeq	r0, r0, ip, lsl r8
     77c:	05500119 	ldrbeq	r0, [r0, #-281]	; 0xfffffee7
     780:	00a2c003 	adceq	ip, r2, r3
     784:	51011900 	tstpl	r1, r0, lsl #18
     788:	19007502 	stmdbne	r0, {r1, r8, sl, ip, sp, lr}
     78c:	76025201 	strvc	r5, [r2], -r1, lsl #4
     790:	1b000000 	blne	798 <__code_start__-0x7868>
     794:	0000028c 	andeq	r0, r0, ip, lsl #5
     798:	ec065301 	stc	3, cr5, [r6], {1}
     79c:	4c000081 	stcmi	0, cr0, [r0], {129}	; 0x81
     7a0:	01000001 	tsteq	r0, r1
     7a4:	0004f39c 	muleq	r4, ip, r3
     7a8:	0a521500 	beq	1485bb0 <__bss_end__+0x147ad88>
     7ac:	53010000 	movwpl	r0, #4096	; 0x1000
     7b0:	0001fb14 	andeq	pc, r1, r4, lsl fp	; <UNPREDICTABLE>
     7b4:	00017300 	andeq	r7, r1, r0, lsl #6
     7b8:	00016f00 	andeq	r6, r1, r0, lsl #30
     7bc:	006c1c00 	rsbeq	r1, ip, r0, lsl #24
     7c0:	14245301 	strtne	r5, [r4], #-769	; 0xfffffcff
     7c4:	99000001 	stmdbls	r0, {r0}
     7c8:	91000001 	tstls	r0, r1
     7cc:	17000001 	strne	r0, [r0, -r1]
     7d0:	55010068 	strpl	r0, [r1, #-104]	; 0xffffff98
     7d4:	00021b0c 	andeq	r1, r2, ip, lsl #22
     7d8:	0001f200 	andeq	pc, r1, r0, lsl #4
     7dc:	0001e800 	andeq	lr, r1, r0, lsl #16
     7e0:	00c41d00 	sbceq	r1, r4, r0, lsl #26
     7e4:	05030000 	streq	r0, [r3, #-0]
     7e8:	03050000 	movweq	r0, #20480	; 0x5000
     7ec:	0000a2dc 	ldrdeq	sl, [r0], -ip
     7f0:	0005081e 	andeq	r0, r5, lr, lsl r8
     7f4:	00825400 	addeq	r5, r2, r0, lsl #8
     7f8:	00380300 	eorseq	r0, r8, r0, lsl #6
     7fc:	5f010000 	svcpl	0x00010000
     800:	0003fd05 	andeq	pc, r3, r5, lsl #26
     804:	051f1f00 	ldreq	r1, [pc, #-3840]	; fffff90c <__bss_end__+0xffff4ae4>
     808:	023d0000 	eorseq	r0, sp, #0, 0
     80c:	02370000 	eorseq	r0, r7, #0, 0
     810:	151f0000 	ldrne	r0, [pc, #-0]	; 818 <__code_start__-0x77e8>
     814:	6c000005 	stcvs	0, cr0, [r0], {5}
     818:	66000002 	strvs	r0, [r0], -r2
     81c:	20000002 	andcs	r0, r0, r2
     820:	00000038 	andeq	r0, r0, r8, lsr r0
     824:	00053821 	andeq	r3, r5, r1, lsr #16
     828:	0002ac00 	andeq	sl, r2, r0, lsl #24
     82c:	0002a400 	andeq	sl, r2, r0, lsl #8
     830:	05442100 	strbeq	r2, [r4, #-256]	; 0xffffff00
     834:	02ea0000 	rsceq	r0, sl, #0, 0
     838:	02e40000 	rsceq	r0, r4, #0, 0
     83c:	2a1e0000 	bcs	780844 <__bss_end__+0x775a1c>
     840:	e8000007 	stmda	r0, {r0, r1, r2}
     844:	02000082 	andeq	r0, r0, #130, 0	; 0x82
     848:	00000058 	andeq	r0, r0, r8, asr r0
     84c:	bc114601 	ldclt	6, cr4, [r1], {1}
     850:	1f000003 	svcne	0x00000003
     854:	0000073b 	andeq	r0, r0, fp, lsr r7
     858:	00000318 	andeq	r0, r0, r8, lsl r3
     85c:	00000314 	andeq	r0, r0, r4, lsl r3
     860:	83081800 	movwhi	r1, #34816	; 0x8800
     864:	081c0000 	ldmdaeq	ip, {}	; <UNPREDICTABLE>
     868:	03f20000 	mvnseq	r0, #0, 0
     86c:	01190000 	tsteq	r9, r0
     870:	94030550 	strls	r0, [r3], #-1360	; 0xfffffab0
     874:	190000a2 	stmdbne	r0, {r1, r5, r7}
     878:	03055101 	movweq	r5, #20737	; 0x5101
     87c:	0000a25c 	andeq	sl, r0, ip, asr r2
     880:	05520119 	ldrbeq	r0, [r2, #-281]	; 0xfffffee7
     884:	00a2e403 	adceq	lr, r2, r3, lsl #8
     888:	53011900 	movwpl	r1, #6400	; 0x1900
     88c:	194f0802 	stmdbne	pc, {r1, fp}^	; <UNPREDICTABLE>
     890:	02007d02 	andeq	r7, r0, #128	; 0x80
     894:	22000078 	andcs	r0, r0, #120, 0	; 0x78
     898:	0000830c 	andeq	r8, r0, ip, lsl #6
     89c:	00000828 	andeq	r0, r0, r8, lsr #16
     8a0:	20180000 	andscs	r0, r8, r0
     8a4:	1c000082 	stcne	0, cr0, [r0], {130}	; 0x82
     8a8:	26000008 	strcs	r0, [r0], -r8
     8ac:	19000004 	stmdbne	r0, {r2}
     8b0:	03055001 	movweq	r5, #20481	; 0x5001
     8b4:	0000a200 	andeq	sl, r0, r0, lsl #4
     8b8:	02510119 	subseq	r0, r1, #1073741830	; 0x40000006
     8bc:	01190075 	tsteq	r9, r5, ror r0
     8c0:	00760252 	rsbseq	r0, r6, r2, asr r2
     8c4:	02530119 	subseq	r0, r3, #1073741830	; 0x40000006
     8c8:	18000077 	stmdane	r0, {r0, r1, r2, r4, r5, r6}
     8cc:	0000822c 	andeq	r8, r0, ip, lsr #4
     8d0:	0000081c 	andeq	r0, r0, ip, lsl r8
     8d4:	00000443 	andeq	r0, r0, r3, asr #8
     8d8:	05500119 	ldrbeq	r0, [r0, #-281]	; 0xfffffee7
     8dc:	00a20c03 	adceq	r0, r2, r3, lsl #24
     8e0:	51011900 	tstpl	r1, r0, lsl #18
     8e4:	00007402 	andeq	r7, r0, r2, lsl #8
     8e8:	00824c18 	addeq	r4, r2, r8, lsl ip
     8ec:	00056a00 	andeq	r6, r5, r0, lsl #20
     8f0:	00045700 	andeq	r5, r4, r0, lsl #14
     8f4:	50011900 	andpl	r1, r1, r0, lsl #18
     8f8:	00007402 	andeq	r7, r0, r2, lsl #8
     8fc:	00828818 	addeq	r8, r2, r8, lsl r8
     900:	00081c00 	andeq	r1, r8, r0, lsl #24
     904:	00048000 	andeq	r8, r4, r0
     908:	50011900 	andpl	r1, r1, r0, lsl #18
     90c:	a21c0305 	andsge	r0, ip, #335544320	; 0x14000000
     910:	01190000 	tsteq	r9, r0
     914:	00750251 	rsbseq	r0, r5, r1, asr r2
     918:	02520119 	subseq	r0, r2, #1073741830	; 0x40000006
     91c:	01190076 	tsteq	r9, r6, ror r0
     920:	00770253 	rsbseq	r0, r7, r3, asr r2
     924:	82941800 	addshi	r1, r4, #0, 16
     928:	081c0000 	ldmdaeq	ip, {}	; <UNPREDICTABLE>
     92c:	04970000 	ldreq	r0, [r7], #0
     930:	01190000 	tsteq	r9, r0
     934:	34030550 	strcc	r0, [r3], #-1360	; 0xfffffab0
     938:	000000a2 	andeq	r0, r0, r2, lsr #1
     93c:	00829822 	addeq	r9, r2, r2, lsr #16
     940:	00082800 	andeq	r2, r8, r0, lsl #16
     944:	82b41800 	adcshi	r1, r4, #0, 16
     948:	081c0000 	ldmdaeq	ip, {}	; <UNPREDICTABLE>
     94c:	04d90000 	ldrbeq	r0, [r9], #0
     950:	01190000 	tsteq	r9, r0
     954:	68030550 	stmdavs	r3, {r4, r6, r8, sl}
     958:	190000a2 	stmdbne	r0, {r1, r5, r7}
     95c:	03055101 	movweq	r5, #20737	; 0x5101
     960:	0000a25c 	andeq	sl, r0, ip, asr r2
     964:	05520119 	ldrbeq	r0, [r2, #-281]	; 0xfffffee7
     968:	00a2dc03 	adceq	sp, r2, r3, lsl #24
     96c:	53011900 	movwpl	r1, #6400	; 0x1900
     970:	195d0802 	ldmdbne	sp, {r1, fp}^
     974:	05007d02 	streq	r7, [r0, #-3330]	; 0xfffff2fe
     978:	00a27c03 	adceq	r7, r2, r3, lsl #24
     97c:	b8220000 	stmdalt	r2!, {}	; <UNPREDICTABLE>
     980:	28000082 	stmdacs	r0, {r1, r7}
     984:	1a000008 	bne	9ac <__code_start__-0x7654>
     988:	000082c8 	andeq	r8, r0, r8, asr #5
     98c:	00000834 	andeq	r0, r0, r4, lsr r8
     990:	02500119 	subseq	r0, r0, #1073741830	; 0x40000006
     994:	00000078 	andeq	r0, r0, r8, ror r0
     998:	0000cc10 	andeq	ip, r0, r0, lsl ip
     99c:	00050300 	andeq	r0, r5, r0, lsl #6
     9a0:	002c1100 	eoreq	r1, ip, r0, lsl #2
     9a4:	00060000 	andeq	r0, r6, r0
     9a8:	0004f309 	andeq	pc, r4, r9, lsl #6
     9ac:	02a52300 	adceq	r2, r5, #0, 6
     9b0:	3a010000 	bcc	409b8 <__bss_end__+0x35b90>
     9b4:	054f010d 	strbeq	r0, [pc, #-269]	; 8af <__code_start__-0x7751>
     9b8:	6c240000 	stcvs	0, cr0, [r4], #-0
     9bc:	213a0100 	teqcs	sl, r0, lsl #2
     9c0:	0000054f 	andeq	r0, r0, pc, asr #10
     9c4:	01006824 	tsteq	r0, r4, lsr #16
     9c8:	021b2b3a 	andseq	r2, fp, #59392	; 0xe800
     9cc:	c41d0000 	ldrgt	r0, [sp], #-0
     9d0:	65000000 	strvs	r0, [r0, #-0]
     9d4:	05000005 	streq	r0, [r0, #-5]
     9d8:	00a2e403 	adceq	lr, r2, r3, lsl #8
     9dc:	02f92500 	rscseq	r2, r9, #0, 10
     9e0:	3d010000 	stccc	0, cr0, [r1, #-0]
     9e4:	00021b0c 	andeq	r1, r2, ip, lsl #22
     9e8:	00702600 	rsbseq	r2, r0, r0, lsl #12
     9ec:	1b0c4501 	blne	311df8 <__bss_end__+0x306fd0>
     9f0:	00000002 	andeq	r0, r0, r2
     9f4:	021b0408 	andseq	r0, fp, #8, 8	; 0x8000000
     9f8:	cc100000 	ldcgt	0, cr0, [r0], {-0}
     9fc:	65000000 	strvs	r0, [r0, #-0]
     a00:	11000005 	tstne	r0, r5
     a04:	0000002c 	andeq	r0, r0, ip, lsr #32
     a08:	5509000b 	strpl	r0, [r9, #-11]
     a0c:	14000005 	strne	r0, [r0], #-5
     a10:	000002b1 			; <UNDEFINED> instruction: 0x000002b1
     a14:	1b082b01 	blne	20b620 <__bss_end__+0x2007f8>
     a18:	90000002 	andls	r0, r0, r2
     a1c:	5c000081 	stcpl	0, cr0, [r0], {129}	; 0x81
     a20:	01000000 	mrseq	r0, (UNDEF: 0)
     a24:	00062a9c 	muleq	r6, ip, sl
     a28:	74701c00 	ldrbtvc	r1, [r0], #-3072	; 0xfffff400
     a2c:	2b010072 	blcs	40bfc <__bss_end__+0x35dd4>
     a30:	0001fb20 	andeq	pc, r1, r0, lsr #22
     a34:	00033a00 	andeq	r3, r3, r0, lsl #20
     a38:	00033600 	andeq	r3, r3, r0, lsl #12
     a3c:	81982700 	orrshi	r2, r8, r0, lsl #14
     a40:	00440000 	subeq	r0, r4, r0
     a44:	68170000 	ldmdavs	r7, {}	; <UNPREDICTABLE>
     a48:	112e0100 			; <UNDEFINED> instruction: 0x112e0100
     a4c:	0000021b 	andeq	r0, r0, fp, lsl r2
     a50:	0000035a 	andeq	r0, r0, sl, asr r3
     a54:	00000358 	andeq	r0, r0, r8, asr r3
     a58:	00074628 	andeq	r4, r7, r8, lsr #12
     a5c:	00819800 	addeq	r9, r1, r0, lsl #16
     a60:	81980200 	orrshi	r0, r8, r0, lsl #4
     a64:	00080000 	andeq	r0, r8, r0
     a68:	2e010000 	cdpcs	0, 0, cr0, cr1, cr0, {0}
     a6c:	072a2915 			; <UNDEFINED> instruction: 0x072a2915
     a70:	81bc0000 			; <UNDEFINED> instruction: 0x81bc0000
     a74:	bc010000 	stclt	0, cr0, [r1], {-0}
     a78:	04000081 	streq	r0, [r0], #-129	; 0xffffff7f
     a7c:	01000000 	mrseq	r0, (UNDEF: 0)
     a80:	05ef2c2e 	strbeq	r2, [pc, #3118]!	; 16b6 <__code_start__-0x694a>
     a84:	3b1f0000 	blcc	7c0a8c <__bss_end__+0x7b5c64>
     a88:	6f000007 	svcvs	0x00000007
     a8c:	6d000003 	stcvs	0, cr0, [r0, #-12]
     a90:	00000003 	andeq	r0, r0, r3
     a94:	0081b418 	addeq	fp, r1, r8, lsl r4
     a98:	00062a00 	andeq	r2, r6, r0, lsl #20
     a9c:	00060900 	andeq	r0, r6, r0, lsl #18
     aa0:	50011900 	andpl	r1, r1, r0, lsl #18
     aa4:	19007402 	stmdbne	r0, {r1, sl, ip, sp, lr}
     aa8:	75025101 	strvc	r5, [r2, #-257]	; 0xfffffeff
     aac:	dc1a0000 	ldcle	0, cr0, [sl], {-0}
     ab0:	1c000081 	stcne	0, cr0, [r0], {129}	; 0x81
     ab4:	19000008 	stmdbne	r0, {r3}
     ab8:	03055001 	movweq	r5, #20481	; 0x5001
     abc:	0000a1f0 	strdeq	sl, [r0], -r0
     ac0:	02510119 	subseq	r0, r1, #1073741830	; 0x40000006
     ac4:	01190075 	tsteq	r9, r5, ror r0
     ac8:	00740252 	rsbseq	r0, r4, r2, asr r2
     acc:	14000000 	strne	r0, [r0], #-0
     ad0:	00000246 	andeq	r0, r0, r6, asr #4
     ad4:	2c0a2401 	cfstrscs	mvf2, [sl], {1}
     ad8:	6c000000 	stcvs	0, cr0, [r0], {-0}
     adc:	24000081 	strcs	r0, [r0], #-129	; 0xffffff7f
     ae0:	01000000 	mrseq	r0, (UNDEF: 0)
     ae4:	0006f29c 	muleq	r6, ip, r2
     ae8:	00681c00 	rsbeq	r1, r8, r0, lsl #24
     aec:	1b212401 	blne	849af8 <__bss_end__+0x83ecd0>
     af0:	88000002 	stmdahi	r0, {r1}
     af4:	82000003 	andhi	r0, r0, #3, 0
     af8:	16000003 	strne	r0, [r0], -r3
     afc:	00727470 	rsbseq	r7, r2, r0, ror r4
     b00:	fb2a2401 	blx	a89b0e <__bss_end__+0xa7ece6>
     b04:	01000001 	tsteq	r0, r1
     b08:	696d1751 	stmdbvs	sp!, {r0, r4, r6, r8, r9, sl, ip}^
     b0c:	2601006e 	strcs	r0, [r1], -lr, rrx
     b10:	0001fb0b 	andeq	pc, r1, fp, lsl #22
     b14:	0003bd00 	andeq	fp, r3, r0, lsl #26
     b18:	0003b700 	andeq	fp, r3, r0, lsl #14
     b1c:	616d1700 	cmnvs	sp, r0, lsl #14
     b20:	27010078 	smlsdxcs	r1, r8, r0, r0
     b24:	0001fb0b 	andeq	pc, r1, fp, lsl #22
     b28:	0003f500 	andeq	pc, r3, r0, lsl #10
     b2c:	0003ef00 	andeq	lr, r3, r0, lsl #30
     b30:	070e1e00 	streq	r1, [lr, -r0, lsl #28]
     b34:	816c0000 	cmnhi	ip, r0
     b38:	00020000 	andeq	r0, r2, r0
     b3c:	01000000 	mrseq	r0, (UNDEF: 0)
     b40:	06af1126 	strteq	r1, [pc], r6, lsr #2
     b44:	1f1f0000 	svcne	0x001f0000
     b48:	3d000007 	stccc	0, cr0, [r0, #-28]	; 0xffffffe4
     b4c:	3b000004 	blcc	b64 <__code_start__-0x749c>
     b50:	00000004 	andeq	r0, r0, r4
     b54:	0006f22a 	andeq	pc, r6, sl, lsr #4
     b58:	00816c00 	addeq	r6, r1, r0, lsl #24
     b5c:	00180600 	andseq	r0, r8, r0, lsl #12
     b60:	27010000 	strcs	r0, [r1, -r0]
     b64:	07031f11 	smladeq	r3, r1, pc, r1	; <UNPREDICTABLE>
     b68:	04520000 	ldrbeq	r0, [r2], #-0
     b6c:	04500000 	ldrbeq	r0, [r0], #-0
     b70:	532b0000 			; <UNDEFINED> instruction: 0x532b0000
     b74:	6c000007 	stcvs	0, cr0, [r0], {7}
     b78:	0a000081 	beq	d84 <__code_start__-0x727c>
     b7c:	0000816c 	andeq	r8, r0, ip, ror #2
     b80:	00000000 	andeq	r0, r0, r0
     b84:	1f262001 	svcne	0x00262001
     b88:	00000764 	andeq	r0, r0, r4, ror #14
     b8c:	00000467 	andeq	r0, r0, r7, ror #8
     b90:	00000465 	andeq	r0, r0, r5, ror #8
     b94:	2c000000 	stccs	0, cr0, [r0], {-0}
     b98:	000002ee 	andeq	r0, r0, lr, ror #5
     b9c:	fb071e01 	blx	1c83aa <__bss_end__+0x1bd582>
     ba0:	01000001 	tsteq	r0, r1
     ba4:	0000070e 	andeq	r0, r0, lr, lsl #14
     ba8:	01006824 	tsteq	r0, r4, lsr #16
     bac:	021b191e 	andseq	r1, fp, #491520	; 0x78000
     bb0:	2c000000 	stccs	0, cr0, [r0], {-0}
     bb4:	000002e1 	andeq	r0, r0, r1, ror #5
     bb8:	fb071801 	blx	1c6bc6 <__bss_end__+0x1bbd9e>
     bbc:	01000001 	tsteq	r0, r1
     bc0:	0000072a 	andeq	r0, r0, sl, lsr #14
     bc4:	01006824 	tsteq	r0, r4, lsr #16
     bc8:	021b1b18 	andseq	r1, fp, #24, 22	; 0x6000
     bcc:	2c000000 	stccs	0, cr0, [r0], {-0}
     bd0:	000002c3 	andeq	r0, r0, r3, asr #5
     bd4:	1b081101 	blne	204fe0 <__bss_end__+0x1fa1b8>
     bd8:	01000002 	tsteq	r0, r2
     bdc:	00000746 	andeq	r0, r0, r6, asr #14
     be0:	01007024 	tsteq	r0, r4, lsr #32
     be4:	021b1b11 	andseq	r1, fp, #17408	; 0x4400
     be8:	2d000000 	stccs	0, cr0, [r0, #-0]
     bec:	0000027f 	andeq	r0, r0, pc, ror r2
     bf0:	1b080b01 	blne	2037fc <__bss_end__+0x1f89d4>
     bf4:	01000002 	tsteq	r0, r2
     bf8:	0002fe2e 	andeq	pc, r2, lr, lsr #28
     bfc:	182e0200 	stmdane	lr!, {r9}
     c00:	0000002c 	andeq	r0, r0, ip, lsr #32
     c04:	00076f03 	andeq	r6, r7, r3, lsl #30
     c08:	00682400 	rsbeq	r2, r8, r0, lsl #8
     c0c:	1b292e02 	blne	a4c41c <__bss_end__+0xa415f4>
     c10:	00000002 	andeq	r0, r0, r2
     c14:	0007462f 	andeq	r4, r7, pc, lsr #12
     c18:	00813800 	addeq	r3, r1, r0, lsl #16
     c1c:	00001000 	andeq	r1, r0, r0
     c20:	309c0100 	addscc	r0, ip, r0, lsl #2
     c24:	0000072a 	andeq	r0, r0, sl, lsr #14
     c28:	00008148 	andeq	r8, r0, r8, asr #2
     c2c:	0000000c 	andeq	r0, r0, ip
     c30:	079f9c01 	ldreq	r9, [pc, r1, lsl #24]
     c34:	3b1f0000 	blcc	7c0c3c <__bss_end__+0x7b5e14>
     c38:	7e000007 	cdpvc	0, 0, cr0, cr0, cr7, {0}
     c3c:	7a000004 	bvc	c54 <__code_start__-0x73ac>
     c40:	00000004 	andeq	r0, r0, r4
     c44:	00070e30 	andeq	r0, r7, r0, lsr lr
     c48:	00815400 	addeq	r5, r1, r0, lsl #8
     c4c:	00000800 	andeq	r0, r0, r0, lsl #16
     c50:	c09c0100 	addsgt	r0, ip, r0, lsl #2
     c54:	1f000007 	svcne	0x00000007
     c58:	0000071f 	andeq	r0, r0, pc, lsl r7
     c5c:	000004a3 	andeq	r0, r0, r3, lsr #9
     c60:	0000049f 	muleq	r0, pc, r4	; <UNPREDICTABLE>
     c64:	06f23000 	ldrbteq	r3, [r2], r0
     c68:	815c0000 	cmphi	ip, r0
     c6c:	00100000 	andseq	r0, r0, r0
     c70:	9c010000 	stcls	0, cr0, [r1], {-0}
     c74:	00000804 	andeq	r0, r0, r4, lsl #16
     c78:	0007031f 	andeq	r0, r7, pc, lsl r3
     c7c:	0004c800 	andeq	ip, r4, r0, lsl #16
     c80:	0004c400 	andeq	ip, r4, r0, lsl #8
     c84:	07532b00 	ldrbeq	r2, [r3, -r0, lsl #22]
     c88:	815c0000 	cmphi	ip, r0
     c8c:	5c030000 	stcpl	0, cr0, [r3], {-0}
     c90:	00000081 	andeq	r0, r0, r1, lsl #1
     c94:	01000000 	mrseq	r0, (UNDEF: 0)
     c98:	641f2620 	ldrvs	r2, [pc], #-1568	; ca0 <__code_start__-0x7360>
     c9c:	eb000007 	bl	cc0 <__code_start__-0x7340>
     ca0:	e9000004 	stmdb	r0, {r2}
     ca4:	00000004 	andeq	r0, r0, r4
     ca8:	03083100 	movweq	r3, #33024	; 0x8100
     cac:	03080000 	movweq	r0, #32768	; 0x8000
     cb0:	1e060000 	cdpne	0, 0, cr0, cr6, cr0, {0}
     cb4:	029e3107 	addseq	r3, lr, #-1073741823	; 0xc0000001
     cb8:	029e0000 	addseq	r0, lr, #0, 0
     cbc:	f2040000 	vhadd.s8	d0, d4, d0
     cc0:	05953107 	ldreq	r3, [r5, #263]	; 0x107
     cc4:	05950000 	ldreq	r0, [r5]
     cc8:	28040000 	stmdacs	r4, {}	; <UNPREDICTABLE>
     ccc:	00833106 	addeq	r3, r3, r6, lsl #2
     cd0:	00830000 	addeq	r0, r3, r0
     cd4:	6e040000 	cdpvs	0, 0, cr0, cr4, cr0, {0}
     cd8:	02683106 	rsbeq	r3, r8, #-2147483647	; 0x80000001
     cdc:	02680000 	rsbeq	r0, r8, #0, 0
     ce0:	1f060000 	svcne	0x00060000
     ce4:	02f10006 	rscseq	r0, r1, #6, 0
     ce8:	00040000 	andeq	r0, r4, r0
     cec:	000004e4 	andeq	r0, r0, r4, ror #9
     cf0:	01490104 	cmpeq	r9, r4, lsl #2
     cf4:	320c0000 	andcc	r0, ip, #0, 0
     cf8:	17000003 	strne	r0, [r0, -r3]
     cfc:	cc000001 	stcgt	0, cr0, [r0], {1}
     d00:	90000083 	andls	r0, r0, r3, lsl #1
     d04:	71000001 	tstvc	r0, r1
     d08:	02000004 	andeq	r0, r0, #4, 0
     d0c:	6e690504 	cdpvs	5, 6, cr0, cr9, cr4, {0}
     d10:	04030074 	streq	r0, [r3], #-116	; 0xffffff8c
     d14:	0000ea07 	andeq	lr, r0, r7, lsl #20
     d18:	06010300 	streq	r0, [r1], -r0, lsl #6
     d1c:	00000077 	andeq	r0, r0, r7, ror r0
     d20:	fd050203 	stc2	2, cr0, [r5, #-12]
     d24:	03000001 	movweq	r0, #1
     d28:	010e0504 	tsteq	lr, r4, lsl #10
     d2c:	08030000 	stmdaeq	r3, {}	; <UNPREDICTABLE>
     d30:	00010905 	andeq	r0, r1, r5, lsl #18
     d34:	08010300 	stmdaeq	r1, {r8, r9}
     d38:	00000075 	andeq	r0, r0, r5, ror r0
     d3c:	90070203 	andls	r0, r7, r3, lsl #4
     d40:	03000000 	movweq	r0, #0
     d44:	00e50704 	rsceq	r0, r5, r4, lsl #14
     d48:	08030000 	stmdaeq	r3, {}	; <UNPREDICTABLE>
     d4c:	0000e007 	andeq	lr, r0, r7
     d50:	00250400 	eoreq	r0, r5, r0, lsl #8
     d54:	007a0000 	rsbseq	r0, sl, r0
     d58:	25050000 	strcs	r0, [r5, #-0]
     d5c:	00000000 	andeq	r0, r0, r0
     d60:	00022306 	andeq	r2, r2, r6, lsl #6
     d64:	0e1c0200 	cdpeq	2, 1, cr0, cr12, cr0, {0}
     d68:	00000086 	andeq	r0, r0, r6, lsl #1
     d6c:	006b0407 	rsbeq	r0, fp, r7, lsl #8
     d70:	25040000 	strcs	r0, [r4, #-0]
     d74:	9b000000 	blls	d7c <__code_start__-0x7284>
     d78:	05000000 	streq	r0, [r0, #-0]
     d7c:	0000009b 	muleq	r0, fp, r0
     d80:	a8040700 	stmdage	r4, {r8, r9, sl}
     d84:	03000000 	movweq	r0, #0
     d88:	007e0801 	rsbseq	r0, lr, r1, lsl #16
     d8c:	a1080000 	mrsge	r0, (UNDEF: 8)
     d90:	06000000 	streq	r0, [r0], -r0
     d94:	000005d3 	ldrdeq	r0, [r0], -r3
     d98:	b90e2102 	stmdblt	lr, {r1, r8, sp}
     d9c:	07000000 	streq	r0, [r0, -r0]
     da0:	00008c04 	andeq	r8, r0, r4, lsl #24
     da4:	031f0900 	tsteq	pc, #0, 18
     da8:	01080000 	mrseq	r0, (UNDEF: 8)
     dac:	00ec0705 	rsceq	r0, ip, r5, lsl #14
     db0:	640a0000 	strvs	r0, [sl], #-0
     db4:	09070100 	stmdbeq	r7, {r8}
     db8:	000000ec 	andeq	r0, r0, ip, ror #1
     dbc:	0100700a 	tsteq	r0, sl
     dc0:	00f30808 	rscseq	r0, r3, r8, lsl #16
     dc4:	660a0000 	strvs	r0, [sl], -r0
     dc8:	09010070 	stmdbeq	r1, {r4, r5, r6}
     dcc:	0000f609 	andeq	pc, r0, r9, lsl #12
     dd0:	08030000 	stmdaeq	r3, {}	; <UNPREDICTABLE>
     dd4:	00033e04 	andeq	r3, r3, r4, lsl #28
     dd8:	0c040b00 			; <UNDEFINED> instruction: 0x0c040b00
     ddc:	00f50407 	rscseq	r0, r5, r7, lsl #8
     de0:	080d0000 	stmdaeq	sp, {}	; <UNPREDICTABLE>
     de4:	20020e01 	andcs	r0, r2, r1, lsl #28
     de8:	0e000001 	cdpeq	0, 0, cr0, cr0, cr1, {0}
     dec:	00727470 	rsbseq	r7, r2, r0, ror r4
     df0:	42111001 	andsmi	r1, r1, #1, 0
     df4:	00000001 	andeq	r0, r0, r1
     df8:	0003580f 	andeq	r5, r3, pc, lsl #16
     dfc:	0c110100 	ldfeqs	f0, [r1], {-0}
     e00:	0000002c 	andeq	r0, r0, ip, lsr #32
     e04:	12090004 	andne	r0, r9, #4, 0
     e08:	08000003 	stmdaeq	r0, {r0, r1}
     e0c:	420f0c01 	andmi	r0, pc, #256	; 0x100
     e10:	0a000001 	beq	e1c <__code_start__-0x71e4>
     e14:	12010073 	andne	r0, r1, #115, 0	; 0x73
     e18:	0000fc04 	andeq	pc, r0, r4, lsl #24
     e1c:	00780a00 	rsbseq	r0, r8, r0, lsl #20
     e20:	bf0e1301 	svclt	0x000e1301
     e24:	00000000 	andeq	r0, r0, r0
     e28:	01200407 			; <UNDEFINED> instruction: 0x01200407
     e2c:	5d100000 	ldcpl	0, cr0, [r0, #-0]
     e30:	01000003 	tsteq	r0, r3
     e34:	01200314 			; <UNDEFINED> instruction: 0x01200314
     e38:	45110000 	ldrmi	r0, [r1, #-0]
     e3c:	01000003 	tsteq	r0, r3
     e40:	01480f18 	cmpeq	r8, r8, lsl pc
     e44:	03050000 	movweq	r0, #20480	; 0x5000
     e48:	0000aa10 	andeq	sl, r0, r0, lsl sl
     e4c:	00032511 	andeq	r2, r3, r1, lsl r5
     e50:	10190100 	andsne	r0, r9, r0, lsl #2
     e54:	00000178 	andeq	r0, r0, r8, ror r1
     e58:	aa080305 	bge	201a74 <__bss_end__+0x1f6c4c>
     e5c:	04070000 	streq	r0, [r7], #-0
     e60:	00000148 	andeq	r0, r0, r8, asr #2
     e64:	00026812 	andeq	r6, r2, r2, lsl r8
     e68:	06530100 	ldrbeq	r0, [r3], -r0, lsl #2
     e6c:	000083cc 	andeq	r8, r0, ip, asr #7
     e70:	000000a4 	andeq	r0, r0, r4, lsr #1
     e74:	01c79c01 	biceq	r9, r7, r1, lsl #24
     e78:	61130000 	tstvs	r3, r0
     e7c:	53010070 	movwpl	r0, #4208	; 0x1070
     e80:	0000f314 	andeq	pc, r0, r4, lsl r3	; <UNPREDICTABLE>
     e84:	14500100 	ldrbne	r0, [r0], #-256	; 0xffffff00
     e88:	01007062 	tsteq	r0, r2, rrx
     e8c:	01780a55 	cmneq	r8, r5, asr sl
     e90:	05020000 	streq	r0, [r2, #-0]
     e94:	04fe0000 	ldrbteq	r0, [lr], #0
     e98:	70140000 	andsvc	r0, r4, r0
     e9c:	0f550100 	svceq	0x00550100
     ea0:	00000178 	andeq	r0, r0, r8, ror r1
     ea4:	00000524 	andeq	r0, r0, r4, lsr #10
     ea8:	00000522 	andeq	r0, r0, r2, lsr #10
     eac:	03081500 	movweq	r1, #34048	; 0x8500
     eb0:	2b010000 	blcs	40eb8 <__bss_end__+0x36090>
     eb4:	0000f307 	andeq	pc, r0, r7, lsl #6
     eb8:	00847000 	addeq	r7, r4, r0
     ebc:	0000ec00 	andeq	lr, r0, r0, lsl #24
     ec0:	a39c0100 	orrsge	r0, ip, #0
     ec4:	16000002 	strne	r0, [r0], -r2
     ec8:	00000301 	andeq	r0, r0, r1, lsl #6
     ecc:	2c1a2b01 			; <UNDEFINED> instruction: 0x2c1a2b01
     ed0:	3b000000 	blcc	ed8 <__code_start__-0x7128>
     ed4:	37000005 	strcc	r0, [r0, -r5]
     ed8:	14000005 	strne	r0, [r0], #-5
     edc:	2d010070 	stccs	0, cr0, [r1, #-448]	; 0xfffffe40
     ee0:	0001780a 	andeq	r7, r1, sl, lsl #16
     ee4:	00056800 	andeq	r6, r5, r0, lsl #16
     ee8:	00055c00 	andeq	r5, r5, r0, lsl #24
     eec:	03191700 	tsteq	r9, #0, 14
     ef0:	2d010000 	stccs	0, cr0, [r1, #-0]
     ef4:	0001780e 	andeq	r7, r1, lr, lsl #16
     ef8:	0005c600 	andeq	ip, r5, r0, lsl #12
     efc:	0005be00 	andeq	fp, r5, r0, lsl #28
     f00:	032b1700 			; <UNDEFINED> instruction: 0x032b1700
     f04:	2e010000 	cdpcs	0, 0, cr0, cr1, cr0, {0}
     f08:	00002c0b 	andeq	r2, r0, fp, lsl #24
     f0c:	00060100 	andeq	r0, r6, r0, lsl #2
     f10:	0005ff00 	andeq	pc, r5, r0, lsl #30
     f14:	02a31800 	adceq	r1, r3, #0, 16
     f18:	85300000 	ldrhi	r0, [r0, #-0]!
     f1c:	78010000 	stmdavc	r1, {}	; <UNPREDICTABLE>
     f20:	01000000 	mrseq	r0, (UNDEF: 0)
     f24:	b4190d4a 	ldrlt	r0, [r9], #-3402	; 0xfffff2b6
     f28:	18000002 	stmdane	r0, {r1}
     f2c:	14000006 	strne	r0, [r0], #-6
     f30:	1a000006 	bne	f50 <__code_start__-0x70b0>
     f34:	00000078 	andeq	r0, r0, r8, ror r0
     f38:	0002bf1b 	andeq	fp, r2, fp, lsl pc
     f3c:	00064200 	andeq	r4, r6, r0, lsl #4
     f40:	00063c00 	andeq	r3, r6, r0, lsl #24
     f44:	02ca1b00 	sbceq	r1, sl, #0, 22
     f48:	06710000 	ldrbteq	r0, [r1], -r0
     f4c:	066d0000 	strbteq	r0, [sp], -r0
     f50:	041c0000 	ldreq	r0, [ip], #-0
     f54:	7e000085 	cdpvc	0, 0, cr0, cr0, cr5, {4}
     f58:	1d000001 	stcne	0, cr0, [r0, #-4]
     f5c:	0000853c 	andeq	r8, r0, ip, lsr r5
     f60:	000002dc 	ldrdeq	r0, [r0], -ip
     f64:	0000028f 	andeq	r0, r0, pc, lsl #5
     f68:	0250011e 	subseq	r0, r0, #-2147483641	; 0x80000007
     f6c:	011e0077 	tsteq	lr, r7, ror r0
     f70:	00760251 	rsbseq	r0, r6, r1, asr r2
     f74:	85441f00 	strbhi	r1, [r4, #-3840]	; 0xfffff100
     f78:	02e80000 	rsceq	r0, r8, #0, 0
     f7c:	011e0000 	tsteq	lr, r0
     f80:	3e400350 	mcrcc	3, 2, r0, cr0, cr0, {2}
     f84:	00000024 	andeq	r0, r0, r4, lsr #32
     f88:	034f2000 	movteq	r2, #61440	; 0xf000
     f8c:	1c010000 	stcne	0, cr0, [r1], {-0}
     f90:	00017810 	andeq	r7, r1, r0, lsl r8
     f94:	02d60100 	sbcseq	r0, r6, #0
     f98:	6e210000 	cdpvs	0, 2, cr0, cr1, cr0, {0}
     f9c:	1c010075 	stcne	0, cr0, [r1], {117}	; 0x75
     fa0:	00002c22 	andeq	r2, r0, r2, lsr #24
     fa4:	70632200 	rsbvc	r2, r3, r0, lsl #4
     fa8:	08210100 	stmdaeq	r1!, {r8}
     fac:	000002d6 	ldrdeq	r0, [r0], -r6
     fb0:	00707522 	rsbseq	r7, r0, r2, lsr #10
     fb4:	780a2401 	stmdavc	sl, {r0, sl, sp}
     fb8:	00000001 	andeq	r0, r0, r1
     fbc:	00a10407 	adceq	r0, r1, r7, lsl #8
     fc0:	95230000 	strls	r0, [r3, #-0]!
     fc4:	95000005 	strls	r0, [r0, #-5]
     fc8:	02000005 	andeq	r0, r0, #5, 0
     fcc:	4a230628 	bmi	8c2874 <__bss_end__+0x8b7a4c>
     fd0:	4a000003 	bmi	fe4 <__code_start__-0x701c>
     fd4:	03000003 	movweq	r0, #3
     fd8:	8b000b1a 	blhi	3c48 <__code_start__-0x43b8>
     fdc:	0400000d 	streq	r0, [r0], #-13
     fe0:	0006f100 	andeq	pc, r6, r0, lsl #2
     fe4:	49010400 	stmdbmi	r1, {sl}
     fe8:	0c000001 	stceq	0, cr0, [r0], {1}
     fec:	0000041e 	andeq	r0, r0, lr, lsl r4
     ff0:	00000117 	andeq	r0, r0, r7, lsl r1
     ff4:	0000855c 	andeq	r8, r0, ip, asr r5
     ff8:	000005a4 	andeq	r0, r0, r4, lsr #11
     ffc:	0000069b 	muleq	r0, fp, r6
    1000:	69050402 	stmdbvs	r5, {r1, sl}
    1004:	0300746e 	movweq	r7, #1134	; 0x46e
    1008:	00ea0704 	rsceq	r0, sl, r4, lsl #14
    100c:	01030000 	mrseq	r0, (UNDEF: 3)
    1010:	00007706 	andeq	r7, r0, r6, lsl #14
    1014:	05020300 	streq	r0, [r2, #-768]	; 0xfffffd00
    1018:	000001fd 	strdeq	r0, [r0], -sp
    101c:	0e050403 	cdpeq	4, 0, cr0, cr5, cr3, {0}
    1020:	03000001 	movweq	r0, #1
    1024:	01090508 	tsteq	r9, r8, lsl #10
    1028:	f7040000 			; <UNDEFINED> instruction: 0xf7040000
    102c:	03000000 	movweq	r0, #0
    1030:	005b182e 	subseq	r1, fp, lr, lsr #16
    1034:	01030000 	mrseq	r0, (UNDEF: 3)
    1038:	00007508 	andeq	r7, r0, r8, lsl #10
    103c:	02110400 	andseq	r0, r1, #0, 8
    1040:	31030000 	mrscc	r0, (UNDEF: 3)
    1044:	00006e19 	andeq	r6, r0, r9, lsl lr
    1048:	07020300 	streq	r0, [r2, -r0, lsl #6]
    104c:	00000090 	muleq	r0, r0, r0
    1050:	00021a04 	andeq	r1, r2, r4, lsl #20
    1054:	19340300 	ldmdbne	r4!, {r8, r9}
    1058:	00000081 	andeq	r0, r0, r1, lsl #1
    105c:	e5070403 	str	r0, [r7, #-1027]	; 0xfffffbfd
    1060:	03000000 	movweq	r0, #0
    1064:	00e00708 	rsceq	r0, r0, r8, lsl #14
    1068:	25050000 	strcs	r0, [r5, #-0]
    106c:	9e000000 	cdpls	0, 0, cr0, cr0, cr0, {0}
    1070:	06000000 	streq	r0, [r0], -r0
    1074:	00000025 	andeq	r0, r0, r5, lsr #32
    1078:	02230700 	eoreq	r0, r3, #0, 14
    107c:	1c040000 	stcne	0, cr0, [r4], {-0}
    1080:	0000aa0e 	andeq	sl, r0, lr, lsl #20
    1084:	8f040800 	svchi	0x00040800
    1088:	05000000 	streq	r0, [r0, #-0]
    108c:	00000025 	andeq	r0, r0, r5, lsr #32
    1090:	000000bf 	strheq	r0, [r0], -pc	; <UNPREDICTABLE>
    1094:	0000bf06 	andeq	fp, r0, r6, lsl #30
    1098:	04080000 	streq	r0, [r8], #-0
    109c:	000000cc 	andeq	r0, r0, ip, asr #1
    10a0:	7e080103 	adfvce	f0, f0, f3
    10a4:	09000000 	stmdbeq	r0, {}	; <UNPREDICTABLE>
    10a8:	000000c5 	andeq	r0, r0, r5, asr #1
    10ac:	0005d307 	andeq	sp, r5, r7, lsl #6
    10b0:	0e210400 	cdpeq	4, 2, cr0, cr1, cr0, {0}
    10b4:	000000dd 	ldrdeq	r0, [r0], -sp
    10b8:	00b00408 	adcseq	r0, r0, r8, lsl #8
    10bc:	0c0a0000 	stceq	0, cr0, [sl], {-0}
    10c0:	14090402 	strne	r0, [r9], #-1026	; 0xfffffbfe
    10c4:	0b000001 	bleq	10d0 <__code_start__-0x6f30>
    10c8:	00000070 	andeq	r0, r0, r0, ror r0
    10cc:	bf110602 	svclt	0x00110602
    10d0:	00000000 	andeq	r0, r0, r0
    10d4:	0000bf0b 	andeq	fp, r0, fp, lsl #30
    10d8:	11070200 	mrsne	r0, (UNDEF: 39)
    10dc:	000000bf 	strheq	r0, [r0], -pc	; <UNPREDICTABLE>
    10e0:	00460b04 	subeq	r0, r6, r4, lsl #22
    10e4:	08020000 	stmdaeq	r2, {}	; <UNPREDICTABLE>
    10e8:	00002c0e 	andeq	r2, r0, lr, lsl #24
    10ec:	04000800 	streq	r0, [r0], #-2048	; 0xfffff800
    10f0:	00000207 	andeq	r0, r0, r7, lsl #4
    10f4:	e3030902 	movw	r0, #14594	; 0x3902
    10f8:	0c000000 	stceq	0, cr0, [r0], {-0}
    10fc:	005b0107 	subseq	r0, fp, r7, lsl #2
    1100:	0a050000 	beq	141108 <__bss_end__+0x1362e0>
    1104:	00013b06 	andeq	r3, r1, r6, lsl #22
    1108:	02700d00 	rsbseq	r0, r0, #0, 26
    110c:	0d800000 	stceq	0, cr0, [r0]
    1110:	0000025c 	andeq	r0, r0, ip, asr r2
    1114:	a30e00fe 	movwge	r0, #57598	; 0xe0fe
    1118:	a8000000 	stmdage	r0, {}	; <UNPREDICTABLE>
    111c:	be100d05 	cdplt	13, 1, cr0, cr0, cr5, {0}
    1120:	0b000001 	bleq	112c <__code_start__-0x6ed4>
    1124:	00000013 	andeq	r0, r0, r3, lsl r0
    1128:	be140e05 	cdplt	14, 1, cr0, cr4, cr5, {0}
    112c:	00000001 	andeq	r0, r0, r1
    1130:	0000630b 	andeq	r6, r0, fp, lsl #6
    1134:	0e0f0500 	cfsh32eq	mvfx0, mvfx15, #0
    1138:	00000075 	andeq	r0, r0, r5, ror r0
    113c:	00200b04 	eoreq	r0, r0, r4, lsl #22
    1140:	10050000 	andne	r0, r5, r0
    1144:	0000750e 	andeq	r7, r0, lr, lsl #10
    1148:	d70b0800 	strle	r0, [fp, -r0, lsl #16]
    114c:	05000000 	streq	r0, [r0, #-0]
    1150:	00750e14 	rsbseq	r0, r5, r4, lsl lr
    1154:	0b0c0000 	bleq	30115c <__bss_end__+0x2f6334>
    1158:	000000ff 	strdeq	r0, [r0], -pc	; <UNPREDICTABLE>
    115c:	140f1605 	strne	r1, [pc], #-1541	; 1164 <__code_start__-0x6e9c>
    1160:	10000001 	andne	r0, r0, r1
    1164:	00022f0b 	andeq	r2, r2, fp, lsl #30
    1168:	0e190500 	cfmul32eq	mvfx0, mvfx9, mvfx0
    116c:	00000075 	andeq	r0, r0, r5, ror r0
    1170:	023a0b1c 	eorseq	r0, sl, #28, 22	; 0x7000
    1174:	1a050000 	bne	14117c <__bss_end__+0x136354>
    1178:	0000750e 	andeq	r7, r0, lr, lsl #10
    117c:	b40b2000 	strlt	r2, [fp], #-0
    1180:	05000003 	streq	r0, [r0, #-3]
    1184:	00620e1c 	rsbeq	r0, r2, ip, lsl lr
    1188:	0f240000 	svceq	0x00240000
    118c:	00317a72 	eorseq	r7, r1, r2, ror sl
    1190:	c40d1e05 	strgt	r1, [sp], #-3589	; 0xfffff1fb
    1194:	26000001 	strcs	r0, [r0], -r1
    1198:	3b040800 	blcc	1031a0 <__bss_end__+0xf8378>
    119c:	10000001 	andne	r0, r0, r1
    11a0:	0000004f 	andeq	r0, r0, pc, asr #32
    11a4:	000001d4 	ldrdeq	r0, [r0], -r4
    11a8:	00002c11 	andeq	r2, r0, r1, lsl ip
    11ac:	04007f00 	streq	r7, [r0], #-3840	; 0xfffff100
    11b0:	0000000d 	andeq	r0, r0, sp
    11b4:	3b031f05 	blcc	c8dd0 <__bss_end__+0xbdfa8>
    11b8:	12000001 	andne	r0, r0, #1, 0
    11bc:	00000704 	andeq	r0, r0, r4, lsl #14
    11c0:	a5050000 	strge	r0, [r5, #-0]
    11c4:	00002c11 	andeq	r2, r0, r1, lsl ip
    11c8:	0a3b1300 	beq	ec5dd0 <__bss_end__+0xebafa8>
    11cc:	10010000 	andne	r0, r1, r0
    11d0:	0001e00e 	andeq	lr, r1, lr
    11d4:	18030500 	stmdane	r3, {r8, sl}
    11d8:	130000aa 	movwne	r0, #170	; 0xaa
    11dc:	00000a9c 	muleq	r0, ip, sl
    11e0:	e00e1101 	and	r1, lr, r1, lsl #2
    11e4:	05000001 	streq	r0, [r0, #-1]
    11e8:	00aa1c03 	adceq	r1, sl, r3, lsl #24
    11ec:	03771400 	cmneq	r7, #0, 8
    11f0:	15010000 	strne	r0, [r1, #-0]
    11f4:	8ad40601 	bhi	ff502a00 <__bss_end__+0xff4f7bd8>
    11f8:	002c0000 	eoreq	r0, ip, r0
    11fc:	9c010000 	stcls	0, cr0, [r1], {-0}
    1200:	00000272 	andeq	r0, r0, r2, ror r2
    1204:	0000c415 	andeq	ip, r0, r5, lsl r4
    1208:	00028200 	andeq	r8, r2, r0, lsl #4
    120c:	6c030500 	cfstr32vs	mvfx0, [r3], {-0}
    1210:	160000a6 	strne	r0, [r0], -r6, lsr #1
    1214:	00008aec 	andeq	r8, r0, ip, ror #21
    1218:	00000d07 	andeq	r0, r0, r7, lsl #26
    121c:	00000268 	andeq	r0, r0, r8, ror #4
    1220:	05500117 	ldrbeq	r0, [r0, #-279]	; 0xfffffee9
    1224:	00a5fc03 	adceq	pc, r5, r3, lsl #24
    1228:	51011700 	tstpl	r1, r0, lsl #14
    122c:	a3140305 	tstge	r4, #335544320	; 0x14000000
    1230:	01170000 	tsteq	r7, r0
    1234:	6c030552 	cfstr32vs	mvfx0, [r3], {82}	; 0x52
    1238:	170000a6 	strne	r0, [r0, -r6, lsr #1]
    123c:	0a035301 	beq	d5e48 <__bss_end__+0xcb020>
    1240:	18000117 	stmdane	r0, {r0, r1, r2, r4, r8}
    1244:	00008af0 	strdeq	r8, [r0], -r0
    1248:	00000d13 	andeq	r0, r0, r3, lsl sp
    124c:	00cc1000 	sbceq	r1, ip, r0
    1250:	02820000 	addeq	r0, r2, #0, 0
    1254:	2c110000 	ldccs	0, cr0, [r1], {-0}
    1258:	0e000000 	cdpeq	0, 0, cr0, cr0, cr0, {0}
    125c:	02720900 	rsbseq	r0, r2, #0, 18
    1260:	c6190000 	ldrgt	r0, [r9], -r0
    1264:	01000003 	tsteq	r0, r3
    1268:	2c0a010b 	stfcss	f0, [sl], {11}
    126c:	e8000000 	stmda	r0, {}	; <UNPREDICTABLE>
    1270:	ec000089 	stc	0, cr0, [r0], {137}	; 0x89
    1274:	01000000 	mrseq	r0, (UNDEF: 0)
    1278:	0004029c 	muleq	r4, ip, r2
    127c:	03011a00 	movweq	r1, #6656	; 0x1a00
    1280:	0e010000 	cdpeq	0, 0, cr0, cr1, cr0, {0}
    1284:	002c0e01 	eoreq	r0, ip, r1, lsl #28
    1288:	06950000 	ldreq	r0, [r5], r0
    128c:	06910000 	ldreq	r0, [r1], r0
    1290:	021b0000 	andseq	r0, fp, #0, 0
    1294:	f4000004 	vst4.8	{d0-d3}, [r0], r4
    1298:	01000089 	smlabbeq	r0, r9, r0, r0
    129c:	000089f4 	strdeq	r8, [r0], -r4
    12a0:	000000b8 	strheq	r0, [r0], -r8
    12a4:	17010e01 	strne	r0, [r1, -r1, lsl #28]
    12a8:	000003f8 	strdeq	r0, [r0], -r8
    12ac:	0004131c 	andeq	r1, r4, ip, lsl r3
    12b0:	0006b900 	andeq	fp, r6, r0, lsl #18
    12b4:	0006b300 	andeq	fp, r6, r0, lsl #6
    12b8:	041f1c00 	ldreq	r1, [pc], #-3072	; 12c0 <__code_start__-0x6d40>
    12bc:	06ea0000 	strbteq	r0, [sl], r0
    12c0:	06e40000 	strbteq	r0, [r4], r0
    12c4:	2b1c0000 	blcs	7012cc <__bss_end__+0x6f64a4>
    12c8:	1b000004 	blne	12e0 <__code_start__-0x6d20>
    12cc:	15000007 	strne	r0, [r0, #-7]
    12d0:	1d000007 	stcne	0, cr0, [r0, #-28]	; 0xffffffe4
    12d4:	00000446 	andeq	r0, r0, r6, asr #8
    12d8:	00000138 	andeq	r0, r0, r8, lsr r1
    12dc:	0000039b 	muleq	r0, fp, r3
    12e0:	0004471c 	andeq	r4, r4, ip, lsl r7
    12e4:	00074e00 	andeq	r4, r7, r0, lsl #28
    12e8:	00074600 	andeq	r4, r7, r0, lsl #12
    12ec:	0c9f1e00 	ldceq	14, cr1, [pc], {0}
    12f0:	8a400000 	bhi	10012f8 <__bss_end__+0xff64d0>
    12f4:	50000000 	andpl	r0, r0, r0
    12f8:	01000001 	tsteq	r0, r1
    12fc:	500d0101 	andpl	r0, sp, r1, lsl #2
    1300:	1f000003 	svcne	0x00000003
    1304:	00000cc8 	andeq	r0, r0, r8, asr #25
    1308:	00000784 	andeq	r0, r0, r4, lsl #15
    130c:	00000782 	andeq	r0, r0, r2, lsl #15
    1310:	000cbc1f 	andeq	fp, ip, pc, lsl ip
    1314:	00079c00 	andeq	r9, r7, r0, lsl #24
    1318:	00079a00 	andeq	r9, r7, r0, lsl #20
    131c:	0cb01f00 	ldceq	15, cr1, [r0]
    1320:	07b60000 	ldreq	r0, [r6, r0]!
    1324:	07b40000 	ldreq	r0, [r4, r0]!
    1328:	18000000 	stmdane	r0, {}	; <UNPREDICTABLE>
    132c:	00008a0c 	andeq	r8, r0, ip, lsl #20
    1330:	00000d2e 	andeq	r0, r0, lr, lsr #26
    1334:	008a5c16 	addeq	r5, sl, r6, lsl ip
    1338:	000d3a00 	andeq	r3, sp, r0, lsl #20
    133c:	00036d00 	andeq	r6, r3, r0, lsl #26
    1340:	50011700 	andpl	r1, r1, r0, lsl #14
    1344:	00007602 	andeq	r7, r0, r2, lsl #12
    1348:	008a6816 	addeq	r6, sl, r6, lsl r8
    134c:	000d0700 	andeq	r0, sp, r0, lsl #14
    1350:	00038a00 	andeq	r8, r3, r0, lsl #20
    1354:	50011700 	andpl	r1, r1, r0, lsl #14
    1358:	a5b80305 	ldrge	r0, [r8, #773]!	; 0x305
    135c:	01170000 	tsteq	r7, r0
    1360:	00760251 	rsbseq	r0, r6, r1, asr r2
    1364:	8a702000 	bhi	1c0936c <__bss_end__+0x1bfe544>
    1368:	0d460000 	stcleq	0, cr0, [r6, #-0]
    136c:	01170000 	tsteq	r7, r0
    1370:	00740250 	rsbseq	r0, r4, r0, asr r2
    1374:	fc160000 	ldc2	0, cr0, [r6], {-0}
    1378:	07000089 	streq	r0, [r0, -r9, lsl #1]
    137c:	b200000d 	andlt	r0, r0, #13, 0
    1380:	17000003 	strne	r0, [r0, -r3]
    1384:	03055001 	movweq	r5, #20481	; 0x5001
    1388:	0000a3ac 	andeq	sl, r0, ip, lsr #7
    138c:	8a041600 	bhi	106b94 <__bss_end__+0xfbd6c>
    1390:	0d070000 	stceq	0, cr0, [r7, #-0]
    1394:	03c90000 	biceq	r0, r9, #0, 0
    1398:	01170000 	tsteq	r7, r0
    139c:	a8030550 	stmdage	r3, {r4, r6, r8, sl}
    13a0:	000000a5 	andeq	r0, r0, r5, lsr #1
    13a4:	008a0818 	addeq	r0, sl, r8, lsl r8
    13a8:	0007c700 	andeq	ip, r7, r0, lsl #14
    13ac:	8aac2000 	bhi	feb093b4 <__bss_end__+0xfeafe58c>
    13b0:	0d070000 	stceq	0, cr0, [r7, #-0]
    13b4:	01170000 	tsteq	r7, r0
    13b8:	c8030550 	stmdagt	r3, {r4, r6, r8, sl}
    13bc:	170000a5 	strne	r0, [r0, -r5, lsr #1]
    13c0:	77025101 	strvc	r5, [r2, -r1, lsl #2]
    13c4:	52011700 	andpl	r1, r1, #0, 14
    13c8:	17007802 	strne	r7, [r0, -r2, lsl #16]
    13cc:	75025301 	strvc	r5, [r2, #-769]	; 0xfffffcff
    13d0:	18000000 	stmdane	r0, {}	; <UNPREDICTABLE>
    13d4:	000089f4 	strdeq	r8, [r0], -r4
    13d8:	000007c7 	andeq	r0, r0, r7, asr #15
    13dc:	047d2100 	ldrbteq	r2, [sp], #-256	; 0xffffff00
    13e0:	f3010000 	vhadd.u8	d0, d1, d0
    13e4:	00002c11 	andeq	r2, r0, r1, lsl ip
    13e8:	04530100 	ldrbeq	r0, [r3], #-256	; 0xffffff00
    13ec:	94220000 	strtls	r0, [r2], #-0
    13f0:	01000003 	tsteq	r0, r3
    13f4:	002c0ef5 	strdeq	r0, [ip], -r5	; <UNPREDICTABLE>
    13f8:	09220000 	stmdbeq	r2!, {}	; <UNPREDICTABLE>
    13fc:	01000004 	tsteq	r0, r4
    1400:	002c1bf5 	strdeq	r1, [ip], -r5	; <UNPREDICTABLE>
    1404:	a3220000 			; <UNDEFINED> instruction: 0xa3220000
    1408:	01000003 	tsteq	r0, r3
    140c:	002c27f5 	strdeq	r2, [ip], -r5	; <UNPREDICTABLE>
    1410:	c4150000 	ldrgt	r0, [r5], #-0
    1414:	63000000 	movwvs	r0, #0
    1418:	05000004 	streq	r0, [r0, #-4]
    141c:	00a66003 	adceq	r6, r6, r3
    1420:	68242300 	stmdavs	r4!, {r8, r9, sp}
    1424:	11fa0100 	mvnsne	r0, r0, lsl #2
    1428:	00000468 	andeq	r0, r0, r8, ror #8
    142c:	cc100000 	ldcgt	0, cr0, [r0], {-0}
    1430:	63000000 	movwvs	r0, #0
    1434:	11000004 	tstne	r0, r4
    1438:	0000002c 	andeq	r0, r0, ip, lsr #32
    143c:	5309000a 	movwpl	r0, #36874	; 0x900a
    1440:	08000004 	stmdaeq	r0, {r2}
    1444:	0001d404 	andeq	sp, r1, r4, lsl #8
    1448:	04262500 	strteq	r2, [r6], #-1280	; 0xfffffb00
    144c:	e3010000 	movw	r0, #4096	; 0x1000
    1450:	00002c0a 	andeq	r2, r0, sl, lsl #24
    1454:	00899800 	addeq	r9, r9, r0, lsl #16
    1458:	00005000 	andeq	r5, r0, r0
    145c:	379c0100 	ldrcc	r0, [ip, r0, lsl #2]
    1460:	26000005 	strcs	r0, [r0], -r5
    1464:	000003d6 	ldrdeq	r0, [r0], -r6
    1468:	2c0ee901 			; <UNDEFINED> instruction: 0x2c0ee901
    146c:	d4000000 	strle	r0, [r0], #-0
    1470:	ce000007 	cdpgt	0, 0, cr0, cr0, cr7, {0}
    1474:	15000007 	strne	r0, [r0, #-7]
    1478:	000000c4 	andeq	r0, r0, r4, asr #1
    147c:	00000547 	andeq	r0, r0, r7, asr #10
    1480:	a64c0305 	strbge	r0, [ip], -r5, lsl #6
    1484:	0c270000 	stceq	0, cr0, [r7], #-0
    1488:	9c000006 	stcls	0, cr0, [r0], {6}
    148c:	02000089 	andeq	r0, r0, #137, 0	; 0x89
    1490:	0000899c 	muleq	r0, ip, r9
    1494:	00000008 	andeq	r0, r0, r8
    1498:	e117e901 	tst	r7, r1, lsl #18
    149c:	1f000004 	svcne	0x00000004
    14a0:	0000061d 	andeq	r0, r0, sp, lsl r6
    14a4:	000007ff 	strdeq	r0, [r0], -pc	; <UNPREDICTABLE>
    14a8:	000007fd 	strdeq	r0, [r0], -sp
    14ac:	0089a420 	addeq	sl, r9, r0, lsr #8
    14b0:	00062a00 	andeq	r2, r6, r0, lsl #20
    14b4:	50011700 	andpl	r1, r1, r0, lsl #14
    14b8:	00003101 	andeq	r3, r0, r1, lsl #2
    14bc:	0089b816 	addeq	fp, r9, r6, lsl r8
    14c0:	000d0700 	andeq	r0, sp, r0, lsl #14
    14c4:	0004fe00 	andeq	pc, r4, r0, lsl #28
    14c8:	50011700 	andpl	r1, r1, r0, lsl #14
    14cc:	a5840305 	strge	r0, [r4, #773]	; 0x305
    14d0:	01170000 	tsteq	r7, r0
    14d4:	00740251 	rsbseq	r0, r4, r1, asr r2
    14d8:	89d41600 	ldmibhi	r4, {r9, sl, ip}^
    14dc:	0d070000 	stceq	0, cr0, [r7, #-0]
    14e0:	052d0000 	streq	r0, [sp, #-0]!
    14e4:	01170000 	tsteq	r7, r0
    14e8:	5c030550 	cfstr32pl	mvfx0, [r3], {80}	; 0x50
    14ec:	170000a5 	strne	r0, [r0, -r5, lsr #1]
    14f0:	03055101 	movweq	r5, #20737	; 0x5101
    14f4:	0000a314 	andeq	sl, r0, r4, lsl r3
    14f8:	05520117 	ldrbeq	r0, [r2, #-279]	; 0xfffffee9
    14fc:	00a64c03 	adceq	r4, r6, r3, lsl #24
    1500:	53011700 	movwpl	r1, #5888	; 0x1700
    1504:	00eb0802 	rsceq	r0, fp, r2, lsl #16
    1508:	0089d818 	addeq	sp, r9, r8, lsl r8
    150c:	000d1300 	andeq	r1, sp, r0, lsl #6
    1510:	cc100000 	ldcgt	0, cr0, [r0], {-0}
    1514:	47000000 	strmi	r0, [r0, -r0]
    1518:	11000005 	tstne	r0, r5
    151c:	0000002c 	andeq	r0, r0, ip, lsr #32
    1520:	37090011 	smladcc	r9, r1, r0, r0
    1524:	28000005 	stmdacs	r0, {r0, r2}
    1528:	000003fb 	strdeq	r0, [r0], -fp
    152c:	5006d501 	andpl	sp, r6, r1, lsl #10
    1530:	48000089 	stmdami	r0, {r0, r3, r7}
    1534:	01000000 	mrseq	r0, (UNDEF: 0)
    1538:	0005f79c 	muleq	r5, ip, r7
    153c:	00c41500 	sbceq	r1, r4, r0, lsl #10
    1540:	06070000 	streq	r0, [r7], -r0
    1544:	03050000 	movweq	r0, #20480	; 0x5000
    1548:	0000a63c 	andeq	sl, r0, ip, lsr r6
    154c:	00060c27 	andeq	r0, r6, r7, lsr #24
    1550:	00895400 	addeq	r5, r9, r0, lsl #8
    1554:	89540200 	ldmdbhi	r4, {r9}^
    1558:	00080000 	andeq	r0, r8, r0
    155c:	db010000 	blle	41564 <__bss_end__+0x3673c>
    1560:	0005a709 	andeq	sl, r5, r9, lsl #14
    1564:	061d1f00 	ldreq	r1, [sp], -r0, lsl #30
    1568:	08150000 	ldmdaeq	r5, {}	; <UNPREDICTABLE>
    156c:	08130000 	ldmdaeq	r3, {}	; <UNPREDICTABLE>
    1570:	5c200000 	stcpl	0, cr0, [r0], #-0
    1574:	2a000089 	bcs	17a0 <__code_start__-0x6860>
    1578:	17000006 	strne	r0, [r0, -r6]
    157c:	31015001 	tstcc	r1, r1
    1580:	6c160000 	ldcvs	0, cr0, [r6], {-0}
    1584:	07000089 	streq	r0, [r0, -r9, lsl #1]
    1588:	be00000d 	cdplt	0, 0, cr0, cr0, cr13, {0}
    158c:	17000005 	strne	r0, [r0, -r5]
    1590:	03055001 	movweq	r5, #20481	; 0x5001
    1594:	0000a53c 	andeq	sl, r0, ip, lsr r5
    1598:	89841600 	stmibhi	r4, {r9, sl, ip}
    159c:	0d070000 	stceq	0, cr0, [r7, #-0]
    15a0:	05ed0000 	strbeq	r0, [sp, #0]!
    15a4:	01170000 	tsteq	r7, r0
    15a8:	10030550 	andne	r0, r3, r0, asr r5
    15ac:	170000a5 	strne	r0, [r0, -r5, lsr #1]
    15b0:	03055101 	movweq	r5, #20737	; 0x5101
    15b4:	0000a314 	andeq	sl, r0, r4, lsl r3
    15b8:	05520117 	ldrbeq	r0, [r2, #-279]	; 0xfffffee9
    15bc:	00a63c03 	adceq	r3, r6, r3, lsl #24
    15c0:	53011700 	movwpl	r1, #5888	; 0x1700
    15c4:	00dc0802 	sbcseq	r0, ip, r2, lsl #16
    15c8:	00898818 	addeq	r8, r9, r8, lsl r8
    15cc:	000d1300 	andeq	r1, sp, r0, lsl #6
    15d0:	cc100000 	ldcgt	0, cr0, [r0], {-0}
    15d4:	07000000 	streq	r0, [r0, -r0]
    15d8:	11000006 	tstne	r0, r6
    15dc:	0000002c 	andeq	r0, r0, ip, lsr #32
    15e0:	f709000d 			; <UNDEFINED> instruction: 0xf709000d
    15e4:	29000005 	stmdbcs	r0, {r0, r2}
    15e8:	0000004d 	andeq	r0, r0, sp, asr #32
    15ec:	2c0ace01 	stccs	14, cr12, [sl], {1}
    15f0:	01000000 	mrseq	r0, (UNDEF: 0)
    15f4:	0000062a 	andeq	r0, r0, sl, lsr #12
    15f8:	0004882a 	andeq	r8, r4, sl, lsr #16
    15fc:	1cce0100 	stfnee	f0, [lr], {0}
    1600:	00000025 	andeq	r0, r0, r5, lsr #32
    1604:	04632b00 	strbteq	r2, [r3], #-2816	; 0xfffff500
    1608:	a5010000 	strge	r0, [r1, #-0]
    160c:	00002c11 	andeq	r2, r0, r1, lsl ip
    1610:	00879000 	addeq	r9, r7, r0
    1614:	00011000 	andeq	r1, r1, r0
    1618:	c79c0100 	ldrgt	r0, [ip, r0, lsl #2]
    161c:	2c000007 	stccs	0, cr0, [r0], {7}
    1620:	00000488 	andeq	r0, r0, r8, lsl #9
    1624:	2520a501 	strcs	sl, [r0, #-1281]!	; 0xfffffaff
    1628:	2d000000 	stccs	0, cr0, [r0, #-0]
    162c:	29000008 	stmdbcs	r0, {r3}
    1630:	26000008 	strcs	r0, [r0], -r8
    1634:	00000394 	muleq	r0, r4, r3
    1638:	2c0ea701 	stccs	7, cr10, [lr], {1}
    163c:	51000000 	mrspl	r0, (UNDEF: 0)
    1640:	4b000008 	blmi	1668 <__code_start__-0x6998>
    1644:	26000008 	strcs	r0, [r0], -r8
    1648:	000003bf 			; <UNDEFINED> instruction: 0x000003bf
    164c:	2c1ba701 	ldccs	7, cr10, [fp], {1}
    1650:	82000000 	andhi	r0, r0, #0, 0
    1654:	7c000008 	stcvc	0, cr0, [r0], {8}
    1658:	26000008 	strcs	r0, [r0], -r8
    165c:	000003b9 			; <UNDEFINED> instruction: 0x000003b9
    1660:	2c27a701 	stccs	7, cr10, [r7], #-4
    1664:	b3000000 	movwlt	r0, #0
    1668:	ad000008 	stcge	0, cr0, [r0, #-32]	; 0xffffffe0
    166c:	2d000008 	stccs	0, cr0, [r0, #-32]	; 0xffffffe0
    1670:	00000120 	andeq	r0, r0, r0, lsr #2
    1674:	00000709 	andeq	r0, r0, r9, lsl #14
    1678:	0100682e 	tsteq	r0, lr, lsr #16
    167c:	046811ac 	strbteq	r1, [r8], #-428	; 0xfffffe54
    1680:	08f00000 	ldmeq	r0!, {}^	; <UNPREDICTABLE>
    1684:	08de0000 	ldmeq	lr, {}^	; <UNPREDICTABLE>
    1688:	b0180000 	andslt	r0, r8, r0
    168c:	2e000087 	cdpcs	0, 0, cr0, cr0, cr7, {4}
    1690:	1600000d 	strne	r0, [r0], -sp
    1694:	000087e4 	andeq	r8, r0, r4, ror #15
    1698:	00000d07 	andeq	r0, r0, r7, lsl #26
    169c:	000006d8 	ldrdeq	r0, [r0], -r8
    16a0:	02500117 	subseq	r0, r0, #-1073741819	; 0xc0000005
    16a4:	01170079 	tsteq	r7, r9, ror r0
    16a8:	00750251 	rsbseq	r0, r5, r1, asr r2
    16ac:	02520117 	subseq	r0, r2, #-1073741819	; 0xc0000005
    16b0:	16000074 			; <UNDEFINED> instruction: 0x16000074
    16b4:	000087ec 	andeq	r8, r0, ip, ror #15
    16b8:	00000d46 	andeq	r0, r0, r6, asr #26
    16bc:	000006ec 	andeq	r0, r0, ip, ror #13
    16c0:	02500117 	subseq	r0, r0, #-1073741819	; 0xc0000005
    16c4:	20000074 	andcs	r0, r0, r4, ror r0
    16c8:	00008820 	andeq	r8, r0, r0, lsr #16
    16cc:	00000d07 	andeq	r0, r0, r7, lsl #26
    16d0:	02500117 	subseq	r0, r0, #-1073741819	; 0xc0000005
    16d4:	0117007a 	tsteq	r7, sl, ror r0
    16d8:	00750251 	rsbseq	r0, r5, r1, asr r2
    16dc:	02520117 	subseq	r0, r2, #-1073741819	; 0xc0000005
    16e0:	00000074 	andeq	r0, r0, r4, ror r0
    16e4:	0087a016 	addeq	sl, r7, r6, lsl r0
    16e8:	000d0700 	andeq	r0, sp, r0, lsl #14
    16ec:	00072000 	andeq	r2, r7, r0
    16f0:	50011700 	andpl	r1, r1, r0, lsl #14
    16f4:	a3ac0305 			; <UNDEFINED> instruction: 0xa3ac0305
    16f8:	16000000 	strne	r0, [r0], -r0
    16fc:	000087a8 	andeq	r8, r0, r8, lsr #15
    1700:	00000d07 	andeq	r0, r0, r7, lsl #26
    1704:	00000737 	andeq	r0, r0, r7, lsr r7
    1708:	05500117 	ldrbeq	r0, [r0, #-279]	; 0xfffffee9
    170c:	00a3e803 	adceq	lr, r3, r3, lsl #16
    1710:	ac180000 	ldcge	0, cr0, [r8], {-0}
    1714:	c7000087 	strgt	r0, [r0, -r7, lsl #1]
    1718:	16000007 	strne	r0, [r0], -r7
    171c:	00008830 	andeq	r8, r0, r0, lsr r8
    1720:	00000d07 	andeq	r0, r0, r7, lsl #26
    1724:	0000075d 	andeq	r0, r0, sp, asr r7
    1728:	05500117 	ldrbeq	r0, [r0, #-279]	; 0xfffffee9
    172c:	00a42c03 	adceq	r2, r4, r3, lsl #24
    1730:	51011700 	tstpl	r1, r0, lsl #14
    1734:	00007502 	andeq	r7, r0, r2, lsl #10
    1738:	00884816 	addeq	r4, r8, r6, lsl r8
    173c:	000d0700 	andeq	r0, sp, r0, lsl #14
    1740:	00078000 	andeq	r8, r7, r0
    1744:	50011700 	andpl	r1, r1, r0, lsl #14
    1748:	a4740305 	ldrbtge	r0, [r4], #-773	; 0xfffffcfb
    174c:	01170000 	tsteq	r7, r0
    1750:	00760251 	rsbseq	r0, r6, r1, asr r2
    1754:	02520117 	subseq	r0, r2, #-1073741819	; 0xc0000005
    1758:	16000077 			; <UNDEFINED> instruction: 0x16000077
    175c:	00008858 	andeq	r8, r0, r8, asr r8
    1760:	00000d07 	andeq	r0, r0, r7, lsl #26
    1764:	0000079c 	muleq	r0, ip, r7
    1768:	05500117 	ldrbeq	r0, [r0, #-279]	; 0xfffffee9
    176c:	00a42c03 	adceq	r2, r4, r3, lsl #24
    1770:	51011700 	tstpl	r1, r0, lsl #14
    1774:	16003001 	strne	r3, [r0], -r1
    1778:	00008868 	andeq	r8, r0, r8, ror #16
    177c:	00000d07 	andeq	r0, r0, r7, lsl #26
    1780:	000007b3 			; <UNDEFINED> instruction: 0x000007b3
    1784:	05500117 	ldrbeq	r0, [r0, #-279]	; 0xfffffee9
    1788:	00a44c03 	adceq	r4, r4, r3, lsl #24
    178c:	70200000 	eorvc	r0, r0, r0
    1790:	07000088 	streq	r0, [r0, -r8, lsl #1]
    1794:	1700000d 	strne	r0, [r0, -sp]
    1798:	03055001 	movweq	r5, #20481	; 0x5001
    179c:	0000a4a4 	andeq	sl, r0, r4, lsr #9
    17a0:	6e2f0000 	cdpvs	0, 2, cr0, cr15, cr0, {0}
    17a4:	01000003 	tsteq	r0, r3
    17a8:	86e80d79 			; <UNDEFINED> instruction: 0x86e80d79
    17ac:	00a80000 	adceq	r0, r8, r0
    17b0:	9c010000 	stcls	0, cr0, [r1], {-0}
    17b4:	000008d3 	ldrdeq	r0, [r0], -r3
    17b8:	0003d113 	andeq	sp, r3, r3, lsl r1
    17bc:	0e850100 	rmfeqs	f0, f5, f0
    17c0:	000008d3 	ldrdeq	r0, [r0], -r3
    17c4:	7fb89103 	svcvc	0x00b89103
    17c8:	00036430 	andeq	r6, r3, r0, lsr r4
    17cc:	0f960100 	svceq	0x00960100
    17d0:	000008e3 	andeq	r0, r0, r3, ror #17
    17d4:	08000000 	stmdaeq	r0, {}	; <UNPREDICTABLE>
    17d8:	00038607 	andeq	r8, r3, r7, lsl #12
    17dc:	159b0100 	ldrne	r0, [fp, #256]	; 0x100
    17e0:	00000075 	andeq	r0, r0, r5, ror r0
    17e4:	00043807 	andeq	r3, r4, r7, lsl #16
    17e8:	249b0100 	ldrcs	r0, [fp], #256	; 0x100
    17ec:	00000075 	andeq	r0, r0, r5, ror r0
    17f0:	00046e07 	andeq	r6, r4, r7, lsl #28
    17f4:	159e0100 	ldrne	r0, [lr, #256]	; 0x100
    17f8:	00000075 	andeq	r0, r0, r5, ror r0
    17fc:	0003e707 	andeq	lr, r3, r7, lsl #14
    1800:	259e0100 	ldrcs	r0, [lr, #256]	; 0x100
    1804:	00000075 	andeq	r0, r0, r5, ror r0
    1808:	0086f031 	addeq	pc, r6, r1, lsr r0	; <UNPREDICTABLE>
    180c:	00002800 	andeq	r2, r0, r0, lsl #16
    1810:	00085f00 	andeq	r5, r8, r0, lsl #30
    1814:	00682e00 	rsbeq	r2, r8, r0, lsl #28
    1818:	68117e01 	ldmdavs	r1, {r0, r9, sl, fp, ip, sp, lr}
    181c:	5f000004 	svcpl	0x00000004
    1820:	5b000009 	blpl	184c <__code_start__-0x67b4>
    1824:	18000009 	stmdane	r0, {r0, r3}
    1828:	000086f4 	strdeq	r8, [r0], -r4
    182c:	00000d2e 	andeq	r0, r0, lr, lsr #26
    1830:	00871018 	addeq	r1, r7, r8, lsl r0
    1834:	000d4600 	andeq	r4, sp, r0, lsl #12
    1838:	20160000 	andscs	r0, r6, r0
    183c:	52000087 	andpl	r0, r0, #135, 0	; 0x87
    1840:	7300000d 	movwvc	r0, #13
    1844:	17000008 	strne	r0, [r0, -r8]
    1848:	7d025001 	stcvc	0, cr5, [r2, #-4]
    184c:	40160000 	andsmi	r0, r6, r0
    1850:	e9000087 	stmdb	r0, {r0, r1, r2, r7}
    1854:	8d000008 	stchi	0, cr0, [r0, #-32]	; 0xffffffe0
    1858:	17000008 	strne	r0, [r0, -r8]
    185c:	7d025001 	stcvc	0, cr5, [r2, #-4]
    1860:	51011700 	tstpl	r1, r0, lsl #14
    1864:	00689102 	rsbeq	r9, r8, r2, lsl #2
    1868:	00875016 	addeq	r5, r7, r6, lsl r0
    186c:	000d0700 	andeq	r0, sp, r0, lsl #14
    1870:	0008ab00 	andeq	sl, r8, r0, lsl #22
    1874:	50011700 	andpl	r1, r1, r0, lsl #14
    1878:	a3900305 	orrsge	r0, r0, #335544320	; 0x14000000
    187c:	01170000 	tsteq	r7, r0
    1880:	47400352 	smlsldmi	r0, r0, r2, r3	; <UNPREDICTABLE>
    1884:	5c160024 	ldcpl	0, cr0, [r6], {36}	; 0x24
    1888:	e9000087 	stmdb	r0, {r0, r1, r2, r7}
    188c:	c0000008 	andgt	r0, r0, r8
    1890:	17000008 	strne	r0, [r0, -r8]
    1894:	40035101 	andmi	r5, r3, r1, lsl #2
    1898:	18002447 	stmdane	r0, {r0, r1, r2, r6, sl, sp}
    189c:	00008768 	andeq	r8, r0, r8, ror #14
    18a0:	000008e9 	andeq	r0, r0, r9, ror #17
    18a4:	00877418 	addeq	r7, r7, r8, lsl r4
    18a8:	0008e900 	andeq	lr, r8, r0, lsl #18
    18ac:	75100000 	ldrvc	r0, [r0, #-0]
    18b0:	e3000000 	movw	r0, #0
    18b4:	11000008 	tstne	r0, r8
    18b8:	0000002c 	andeq	r0, r0, ip, lsr #32
    18bc:	0408000f 	streq	r0, [r8], #-15
    18c0:	00000075 	andeq	r0, r0, r5, ror r0
    18c4:	0003b42f 	andeq	fp, r3, pc, lsr #8
    18c8:	0d500100 	ldfeqe	f0, [r0, #-0]
    18cc:	0000855c 	andeq	r8, r0, ip, asr r5
    18d0:	0000018c 	andeq	r0, r0, ip, lsl #3
    18d4:	0b309c01 	bleq	c288e0 <__bss_end__+0xc1dab8>
    18d8:	70320000 	eorsvc	r0, r2, r0
    18dc:	1c500100 	ldfnee	f0, [r0], {-0}
    18e0:	000008e3 	andeq	r0, r0, r3, ror #17
    18e4:	0000098f 	andeq	r0, r0, pc, lsl #19
    18e8:	0000097d 	andeq	r0, r0, sp, ror r9
    18ec:	01006532 	tsteq	r0, r2, lsr r5
    18f0:	08e32950 	stmiaeq	r3!, {r4, r6, r8, fp, sp}^
    18f4:	0a0c0000 	beq	3018fc <__bss_end__+0x2f6ad4>
    18f8:	0a000000 	beq	1900 <__code_start__-0x6700>
    18fc:	c4150000 	ldrgt	r0, [r5], #-0
    1900:	40000000 	andmi	r0, r0, r0
    1904:	0500000b 	streq	r0, [r0, #-11]
    1908:	00a62c03 	adceq	r2, r6, r3, lsl #24
    190c:	00982d00 	addseq	r2, r8, r0, lsl #26
    1910:	0a690000 	beq	1a41918 <__bss_end__+0x1a36af0>
    1914:	692e0000 	stmdbvs	lr!, {}	; <UNPREDICTABLE>
    1918:	14580100 	ldrbne	r0, [r8], #-256	; 0xffffff00
    191c:	000008e3 	andeq	r0, r0, r3, ror #17
    1920:	00000a69 	andeq	r0, r0, r9, ror #20
    1924:	00000a5f 	andeq	r0, r0, pc, asr sl
    1928:	0000b033 	andeq	fp, r0, r3, lsr r0
    192c:	00622e00 	rsbeq	r2, r2, r0, lsl #28
    1930:	68105a01 	ldmdavs	r0, {r0, r9, fp, ip, lr}
    1934:	ae000004 	cdpge	0, 0, cr0, cr0, cr4, {0}
    1938:	a800000a 	stmdage	r0, {r1, r3}
    193c:	2d00000a 	stccs	0, cr0, [r0, #-40]	; 0xffffffd8
    1940:	00000100 	andeq	r0, r0, r0, lsl #2
    1944:	00000a09 	andeq	r0, r0, r9, lsl #20
    1948:	7078652e 	rsbsvc	r6, r8, lr, lsr #10
    194c:	165d0100 	ldrbne	r0, [sp], -r0, lsl #2
    1950:	00000075 	andeq	r0, r0, r5, ror r0
    1954:	00000adb 	ldrdeq	r0, [r0], -fp
    1958:	00000ad7 	ldrdeq	r0, [r0], -r7
    195c:	0003b026 	andeq	fp, r3, r6, lsr #32
    1960:	165e0100 	ldrbne	r0, [lr], -r0, lsl #2
    1964:	00000062 	andeq	r0, r0, r2, rrx
    1968:	00000afd 	strdeq	r0, [r0], -sp
    196c:	00000af9 	strdeq	r0, [r0], -r9
    1970:	00860416 	addeq	r0, r6, r6, lsl r4
    1974:	000d0700 	andeq	r0, sp, r0, lsl #14
    1978:	0009ac00 	andeq	sl, r9, r0, lsl #24
    197c:	50011700 	andpl	r1, r1, r0, lsl #14
    1980:	a3800305 	orrge	r0, r0, #335544320	; 0x14000000
    1984:	16000000 	strne	r0, [r0], -r0
    1988:	0000864c 	andeq	r8, r0, ip, asr #12
    198c:	00000d5e 	andeq	r0, r0, lr, asr sp
    1990:	000009c0 	andeq	r0, r0, r0, asr #19
    1994:	02500117 	subseq	r0, r0, #-1073741819	; 0xc0000005
    1998:	16000075 			; <UNDEFINED> instruction: 0x16000075
    199c:	00008664 	andeq	r8, r0, r4, ror #12
    19a0:	00000d07 	andeq	r0, r0, r7, lsl #26
    19a4:	000009e1 	andeq	r0, r0, r1, ror #19
    19a8:	02500117 	subseq	r0, r0, #-1073741819	; 0xc0000005
    19ac:	0117007b 	tsteq	r7, fp, ror r0
    19b0:	00770252 	rsbseq	r0, r7, r2, asr r2
    19b4:	007d0217 	rsbseq	r0, sp, r7, lsl r2
    19b8:	00007902 	andeq	r7, r0, r2, lsl #18
    19bc:	00869816 	addeq	r9, r6, r6, lsl r8
    19c0:	000d0700 	andeq	r0, sp, r0, lsl #14
    19c4:	0009f800 	andeq	pc, r9, r0, lsl #16
    19c8:	50011700 	andpl	r1, r1, r0, lsl #14
    19cc:	a3700305 	cmnge	r0, #335544320	; 0x14000000
    19d0:	20000000 	andcs	r0, r0, r0
    19d4:	000086b4 			; <UNDEFINED> instruction: 0x000086b4
    19d8:	000008e9 	andeq	r0, r0, r9, ror #17
    19dc:	02500117 	subseq	r0, r0, #-1073741819	; 0xc0000005
    19e0:	00000475 	andeq	r0, r0, r5, ror r4
    19e4:	000b4534 	andeq	r4, fp, r4, lsr r5
    19e8:	00861400 	addeq	r1, r6, r0, lsl #8
    19ec:	00d00000 	sbcseq	r0, r0, r0
    19f0:	5a010000 	bpl	419f8 <__bss_end__+0x36bd0>
    19f4:	0b561f14 	bleq	158964c <__bss_end__+0x157e824>
    19f8:	0b1d0000 	bleq	741a00 <__bss_end__+0x736bd8>
    19fc:	0b1b0000 	bleq	6c1a04 <__bss_end__+0x6b6bdc>
    1a00:	d0330000 	eorsle	r0, r3, r0
    1a04:	1c000000 	stcne	0, cr0, [r0], {-0}
    1a08:	00000b62 	andeq	r0, r0, r2, ror #22
    1a0c:	00000b33 	andeq	r0, r0, r3, lsr fp
    1a10:	00000b31 	andeq	r0, r0, r1, lsr fp
    1a14:	000b6d35 	andeq	r6, fp, r5, lsr sp
    1a18:	00861800 	addeq	r1, r6, r0, lsl #16
    1a1c:	00e80100 	rsceq	r0, r8, r0, lsl #2
    1a20:	40010000 	andmi	r0, r1, r0
    1a24:	000a5c0a 	andeq	r5, sl, sl, lsl #24
    1a28:	0b7e1f00 	bleq	1f89630 <__bss_end__+0x1f7e808>
    1a2c:	0b490000 	bleq	1241a34 <__bss_end__+0x1236c0c>
    1a30:	0b470000 	bleq	11c1a38 <__bss_end__+0x11b6c10>
    1a34:	18000000 	stmdane	r0, {}	; <UNPREDICTABLE>
    1a38:	00008634 	andeq	r8, r0, r4, lsr r6
    1a3c:	00000d6a 	andeq	r0, r0, sl, ror #26
    1a40:	00000000 	andeq	r0, r0, r0
    1a44:	0085b816 	addeq	fp, r5, r6, lsl r8
    1a48:	000d0700 	andeq	r0, sp, r0, lsl #14
    1a4c:	000aa200 	andeq	sl, sl, r0, lsl #4
    1a50:	50011700 	andpl	r1, r1, r0, lsl #14
    1a54:	a2680305 	rsbge	r0, r8, #335544320	; 0x14000000
    1a58:	01170000 	tsteq	r7, r0
    1a5c:	14030551 	strne	r0, [r3], #-1361	; 0xfffffaaf
    1a60:	170000a3 	strne	r0, [r0, -r3, lsr #1]
    1a64:	03055201 	movweq	r5, #20993	; 0x5201
    1a68:	0000a62c 	andeq	sl, r0, ip, lsr #12
    1a6c:	02530117 	subseq	r0, r3, #-1073741819	; 0xc0000005
    1a70:	02175208 	andseq	r5, r7, #8, 4	; 0x80000000
    1a74:	0305007d 	movweq	r0, #20605	; 0x507d
    1a78:	0000a31c 	andeq	sl, r0, ip, lsl r3
    1a7c:	85bc1800 	ldrhi	r1, [ip, #2048]!	; 0x800
    1a80:	0d130000 	ldceq	0, cr0, [r3, #-0]
    1a84:	d8160000 	ldmdale	r6, {}	; <UNPREDICTABLE>
    1a88:	07000085 	streq	r0, [r0, -r5, lsl #1]
    1a8c:	e400000d 	str	r0, [r0], #-13
    1a90:	1700000a 	strne	r0, [r0, -sl]
    1a94:	03055001 	movweq	r5, #20481	; 0x5001
    1a98:	0000a268 	andeq	sl, r0, r8, ror #4
    1a9c:	05510117 	ldrbeq	r0, [r1, #-279]	; 0xfffffee9
    1aa0:	00a31403 	adceq	r1, r3, r3, lsl #8
    1aa4:	52011700 	andpl	r1, r1, #0, 14
    1aa8:	a62c0305 	strtge	r0, [ip], -r5, lsl #6
    1aac:	01170000 	tsteq	r7, r0
    1ab0:	55080253 	strpl	r0, [r8, #-595]	; 0xfffffdad
    1ab4:	007d0217 	rsbseq	r0, sp, r7, lsl r2
    1ab8:	a3240305 			; <UNDEFINED> instruction: 0xa3240305
    1abc:	18000000 	stmdane	r0, {}	; <UNPREDICTABLE>
    1ac0:	000085dc 	ldrdeq	r8, [r0], -ip
    1ac4:	00000d13 	andeq	r0, r0, r3, lsl sp
    1ac8:	0085f816 	addeq	pc, r5, r6, lsl r8	; <UNPREDICTABLE>
    1acc:	000d0700 	andeq	r0, sp, r0, lsl #14
    1ad0:	000b2600 	andeq	r2, fp, r0, lsl #12
    1ad4:	50011700 	andpl	r1, r1, r0, lsl #14
    1ad8:	a2680305 	rsbge	r0, r8, #335544320	; 0x14000000
    1adc:	01170000 	tsteq	r7, r0
    1ae0:	14030551 	strne	r0, [r3], #-1361	; 0xfffffaaf
    1ae4:	170000a3 	strne	r0, [r0, -r3, lsr #1]
    1ae8:	03055201 	movweq	r5, #20993	; 0x5201
    1aec:	0000a62c 	andeq	sl, r0, ip, lsr #12
    1af0:	02530117 	subseq	r0, r3, #-1073741819	; 0xc0000005
    1af4:	02175608 	andseq	r5, r7, #8, 12	; 0x800000
    1af8:	0305007d 	movweq	r0, #20605	; 0x507d
    1afc:	0000a334 	andeq	sl, r0, r4, lsr r3
    1b00:	85fc1800 	ldrbhi	r1, [ip, #2048]!	; 0x800
    1b04:	0d130000 	ldceq	0, cr0, [r3, #-0]
    1b08:	10000000 	andne	r0, r0, r0
    1b0c:	000000cc 	andeq	r0, r0, ip, asr #1
    1b10:	00000b40 	andeq	r0, r0, r0, asr #22
    1b14:	00002c11 	andeq	r2, r0, r1, lsl ip
    1b18:	09000400 	stmdbeq	r0, {sl}
    1b1c:	00000b30 	andeq	r0, r0, r0, lsr fp
    1b20:	0003f421 	andeq	pc, r3, r1, lsr #8
    1b24:	0f3c0100 	svceq	0x003c0100
    1b28:	00000468 	andeq	r0, r0, r8, ror #8
    1b2c:	000b6d01 	andeq	r6, fp, r1, lsl #26
    1b30:	0a522a00 	beq	148c338 <__bss_end__+0x1481510>
    1b34:	3c010000 	stccc	0, cr0, [r1], {-0}
    1b38:	0000751f 	andeq	r7, r0, pc, lsl r5
    1b3c:	00702400 	rsbseq	r2, r0, r0, lsl #8
    1b40:	e00b3e01 	and	r3, fp, r1, lsl #28
    1b44:	00000001 	andeq	r0, r0, r1
    1b48:	00041021 	andeq	r1, r4, r1, lsr #32
    1b4c:	0c2b0100 	stfeqs	f0, [fp], #-0
    1b50:	00000025 	andeq	r0, r0, r5, lsr #32
    1b54:	000b8901 	andeq	r8, fp, r1, lsl #18
    1b58:	00703600 	rsbseq	r3, r0, r0, lsl #12
    1b5c:	e01a2b01 	ands	r2, sl, r1, lsl #22
    1b60:	00000001 	andeq	r0, r0, r1
    1b64:	00034a25 	andeq	r4, r3, r5, lsr #20
    1b68:	07130100 	ldreq	r0, [r3, -r0, lsl #2]
    1b6c:	000001e0 	andeq	r0, r0, r0, ror #3
    1b70:	000088a0 	andeq	r8, r0, r0, lsr #17
    1b74:	000000a4 	andeq	r0, r0, r4, lsr #1
    1b78:	0c9f9c01 	ldceq	12, cr9, [pc], {1}
    1b7c:	dd2c0000 	stcle	0, cr0, [ip, #-0]
    1b80:	01000003 	tsteq	r0, r3
    1b84:	00411113 	subeq	r1, r1, r3, lsl r1
    1b88:	0b690000 	bleq	1a41b90 <__bss_end__+0x1a36d68>
    1b8c:	0b5d0000 	bleq	1741b94 <__bss_end__+0x1736d6c>
    1b90:	9c130000 	ldcls	0, cr0, [r3], {-0}
    1b94:	01000003 	tsteq	r0, r3
    1b98:	00251015 	eoreq	r1, r5, r5, lsl r0
    1b9c:	03050000 	movweq	r0, #20480	; 0x5000
    1ba0:	0000aa20 	andeq	sl, r0, r0, lsr #20
    1ba4:	0000c415 	andeq	ip, r0, r5, lsl r4
    1ba8:	000b4000 	andeq	r4, fp, r0
    1bac:	34030500 	strcc	r0, [r3], #-1280	; 0xfffffb00
    1bb0:	310000a6 	smlatbcc	r0, r6, r0, r0
    1bb4:	000088c0 	andeq	r8, r0, r0, asr #17
    1bb8:	00000024 	andeq	r0, r0, r4, lsr #32
    1bbc:	00000c12 	andeq	r0, r0, r2, lsl ip
    1bc0:	00041826 	andeq	r1, r4, r6, lsr #16
    1bc4:	121c0100 	andsne	r0, ip, #0
    1bc8:	0000002c 	andeq	r0, r0, ip, lsr #32
    1bcc:	00000bb5 			; <UNDEFINED> instruction: 0x00000bb5
    1bd0:	00000bb3 			; <UNDEFINED> instruction: 0x00000bb3
    1bd4:	0088dc20 	addeq	sp, r8, r0, lsr #24
    1bd8:	000d7600 	andeq	r7, sp, r0, lsl #12
    1bdc:	50011700 	andpl	r1, r1, r0, lsl #14
    1be0:	24404003 	strbcs	r4, [r0], #-3
    1be4:	03510117 	cmpeq	r1, #-1073741819	; 0xc0000005
    1be8:	00244040 	eoreq	r4, r4, r0, asr #32
    1bec:	88ec1600 	stmiahi	ip!, {r9, sl, ip}^
    1bf0:	0d820000 	stceq	0, cr0, [r2]
    1bf4:	0c260000 	stceq	0, cr0, [r6], #-0
    1bf8:	01170000 	tsteq	r7, r0
    1bfc:	00740250 	rsbseq	r0, r4, r0, asr r2
    1c00:	89101600 	ldmdbhi	r0, {r9, sl, ip}
    1c04:	0d070000 	stceq	0, cr0, [r7, #-0]
    1c08:	0c5e0000 	mraeq	r0, lr, acc0
    1c0c:	01170000 	tsteq	r7, r0
    1c10:	68030550 	stmdavs	r3, {r4, r6, r8, sl}
    1c14:	170000a2 	strne	r0, [r0, -r2, lsr #1]
    1c18:	03055101 	movweq	r5, #20737	; 0x5101
    1c1c:	0000a314 	andeq	sl, r0, r4, lsl r3
    1c20:	05520117 	ldrbeq	r0, [r2, #-279]	; 0xfffffee9
    1c24:	00a63403 	adceq	r3, r6, r3, lsl #8
    1c28:	53011700 	movwpl	r1, #5888	; 0x1700
    1c2c:	02174701 	andseq	r4, r7, #262144	; 0x40000
    1c30:	0305007d 	movweq	r0, #20605	; 0x507d
    1c34:	0000a4e0 	andeq	sl, r0, r0, ror #9
    1c38:	89141800 	ldmdbhi	r4, {fp, ip}
    1c3c:	0d130000 	ldceq	0, cr0, [r3, #-0]
    1c40:	28160000 	ldmdacs	r6, {}	; <UNPREDICTABLE>
    1c44:	07000089 	streq	r0, [r0, -r9, lsl #1]
    1c48:	9500000d 	strls	r0, [r0, #-13]
    1c4c:	1700000c 	strne	r0, [r0, -ip]
    1c50:	03055001 	movweq	r5, #20481	; 0x5001
    1c54:	0000a4f0 	strdeq	sl, [r0], -r0
    1c58:	05510117 	ldrbeq	r0, [r1, #-279]	; 0xfffffee9
    1c5c:	00a31403 	adceq	r1, r3, r3, lsl #8
    1c60:	52011700 	andpl	r1, r1, #0, 14
    1c64:	a6340305 	ldrtge	r0, [r4], -r5, lsl #6
    1c68:	01170000 	tsteq	r7, r0
    1c6c:	00490153 	subeq	r0, r9, r3, asr r1
    1c70:	00892c18 	addeq	r2, r9, r8, lsl ip
    1c74:	000d1300 	andeq	r1, sp, r0, lsl #6
    1c78:	aa210000 	bge	841c80 <__bss_end__+0x836e58>
    1c7c:	02000000 	andeq	r0, r0, #0, 0
    1c80:	01140b0c 	tsteq	r4, ip, lsl #22
    1c84:	d5030000 	strle	r0, [r3, #-0]
    1c88:	2a00000c 	bcs	1cc0 <__code_start__-0x6340>
    1c8c:	00000070 	andeq	r0, r0, r0, ror r0
    1c90:	bf220c02 	svclt	0x00220c02
    1c94:	2a000000 	bcs	1c9c <__code_start__-0x6364>
    1c98:	000000bf 	strheq	r0, [r0], -pc	; <UNPREDICTABLE>
    1c9c:	bf340c02 	svclt	0x00340c02
    1ca0:	2a000000 	bcs	1ca8 <__code_start__-0x6358>
    1ca4:	00000046 	andeq	r0, r0, r6, asr #32
    1ca8:	2c430c02 	mcrrcs	12, 0, r0, r3, cr2
    1cac:	00000000 	andeq	r0, r0, r0
    1cb0:	00060c37 	andeq	r0, r6, r7, lsr ip
    1cb4:	00894400 	addeq	r4, r9, r0, lsl #8
    1cb8:	00000c00 	andeq	r0, r0, r0, lsl #24
    1cbc:	079c0100 	ldreq	r0, [ip, r0, lsl #2]
    1cc0:	1f00000d 	svcne	0x0000000d
    1cc4:	0000061d 	andeq	r0, r0, sp, lsl r6
    1cc8:	00000bcf 	andeq	r0, r0, pc, asr #23
    1ccc:	00000bcb 	andeq	r0, r0, fp, asr #23
    1cd0:	00894c20 	addeq	r4, r9, r0, lsr #24
    1cd4:	00062a00 	andeq	r2, r6, r0, lsl #20
    1cd8:	50011700 	andpl	r1, r1, r0, lsl #14
    1cdc:	5001f303 	andpl	pc, r1, r3, lsl #6
    1ce0:	95380000 	ldrls	r0, [r8, #-0]!
    1ce4:	95000005 	strls	r0, [r0, #-5]
    1ce8:	04000005 	streq	r0, [r0], #-5
    1cec:	83380628 	teqhi	r8, #40, 12	; 0x2800000
    1cf0:	83000000 	movwhi	r0, #0
    1cf4:	04000000 	streq	r0, [r0], #-0
    1cf8:	0d39066e 	ldceq	6, cr0, [r9, #-440]!	; 0xfffffe48
    1cfc:	77730b9e 			; <UNDEFINED> instruction: 0x77730b9e
    1d00:	5f706565 	svcpl	0x00706565
    1d04:	65657266 	strbvs	r7, [r5, #-614]!	; 0xfffffd9a
    1d08:	027f3800 	rsbseq	r3, pc, #0, 16
    1d0c:	027f0000 	rsbseq	r0, pc, #0, 0
    1d10:	28050000 	stmdacs	r5, {}	; <UNPREDICTABLE>
    1d14:	028c3808 	addeq	r3, ip, #8, 16	; 0x80000
    1d18:	028c0000 	addeq	r0, ip, #0, 0
    1d1c:	4a050000 	bmi	141d24 <__bss_end__+0x136efc>
    1d20:	02c33807 	sbceq	r3, r3, #458752	; 0x70000
    1d24:	02c30000 	sbceq	r0, r3, #0, 0
    1d28:	2b050000 	blcs	141d30 <__bss_end__+0x136f08>
    1d2c:	03cc3808 	biceq	r3, ip, #8, 16	; 0x80000
    1d30:	03cc0000 	biceq	r0, ip, #0, 0
    1d34:	76010000 	strvc	r0, [r1], -r0
    1d38:	02e13806 	rsceq	r3, r1, #393216	; 0x60000
    1d3c:	02e10000 	rsceq	r0, r1, #0, 0
    1d40:	32050000 	andcc	r0, r5, #0, 0
    1d44:	02b13807 	adcseq	r3, r1, #458752	; 0x70000
    1d48:	02b10000 	adcseq	r0, r1, #0, 0
    1d4c:	45050000 	strmi	r0, [r5, #-0]
    1d50:	044c3808 	strbeq	r3, [ip], #-2056	; 0xfffff7f8
    1d54:	044c0000 	strbeq	r0, [ip], #-0
    1d58:	82040000 	andhi	r0, r4, #0, 0
    1d5c:	04443806 	strbeq	r3, [r4], #-2054	; 0xfffff7fa
    1d60:	04440000 	strbeq	r0, [r4], #-0
    1d64:	7b040000 	blvc	101d6c <__bss_end__+0xf6f44>
    1d68:	01400007 	cmpeq	r0, r7
    1d6c:	00040000 	andeq	r0, r4, r0
    1d70:	00000a89 	andeq	r0, r0, r9, lsl #21
    1d74:	04b30104 	ldrteq	r0, [r3], #260	; 0x104
    1d78:	a30c0000 	movwge	r0, #49152	; 0xc000
    1d7c:	6b000004 	blvs	1d94 <__code_start__-0x626c>
    1d80:	08000005 	stmdaeq	r0, {r0, r2}
    1d84:	7800008b 	stmdavc	r0, {r0, r1, r3, r7}
    1d88:	d6000000 	strle	r0, [r0], -r0
    1d8c:	0200000b 	andeq	r0, r0, #11, 0
    1d90:	6e690504 	cdpvs	5, 6, cr0, cr9, cr4, {0}
    1d94:	9c030074 	stcls	0, cr0, [r3], {116}	; 0x74
    1d98:	03000004 	movweq	r0, #4
    1d9c:	003817d1 	ldrsbteq	r1, [r8], -r1
    1da0:	04040000 	streq	r0, [r4], #-0
    1da4:	0000ea07 	andeq	lr, r0, r7, lsl #20
    1da8:	06010400 	streq	r0, [r1], -r0, lsl #8
    1dac:	00000077 	andeq	r0, r0, r7, ror r0
    1db0:	fd050204 	stc2	2, cr0, [r5, #-16]
    1db4:	04000001 	streq	r0, [r0], #-1
    1db8:	010e0504 	tsteq	lr, r4, lsl #10
    1dbc:	08040000 	stmdaeq	r4, {}	; <UNPREDICTABLE>
    1dc0:	00010905 	andeq	r0, r1, r5, lsl #18
    1dc4:	08010400 	stmdaeq	r1, {sl}
    1dc8:	00000075 	andeq	r0, r0, r5, ror r0
    1dcc:	90070204 	andls	r0, r7, r4, lsl #4
    1dd0:	04000000 	streq	r0, [r0], #-0
    1dd4:	00e50704 	rsceq	r0, r5, r4, lsl #14
    1dd8:	08040000 	stmdaeq	r4, {}	; <UNPREDICTABLE>
    1ddc:	0000e007 	andeq	lr, r0, r7
    1de0:	00250500 	eoreq	r0, r5, r0, lsl #10
    1de4:	00860000 	addeq	r0, r6, r0
    1de8:	25060000 	strcs	r0, [r6, #-0]
    1dec:	00000000 	andeq	r0, r0, r0
    1df0:	00022307 	andeq	r2, r2, r7, lsl #6
    1df4:	0e1c0200 	cdpeq	2, 1, cr0, cr12, cr0, {0}
    1df8:	00000092 	muleq	r0, r2, r0
    1dfc:	00770408 	rsbseq	r0, r7, r8, lsl #8
    1e00:	25050000 	strcs	r0, [r5, #-0]
    1e04:	a7000000 	strge	r0, [r0, -r0]
    1e08:	06000000 	streq	r0, [r0], -r0
    1e0c:	000000a7 	andeq	r0, r0, r7, lsr #1
    1e10:	b4040800 	strlt	r0, [r4], #-2048	; 0xfffff800
    1e14:	04000000 	streq	r0, [r0], #-0
    1e18:	007e0801 	rsbseq	r0, lr, r1, lsl #16
    1e1c:	ad090000 	stcge	0, cr0, [r9, #-0]
    1e20:	07000000 	streq	r0, [r0, -r0]
    1e24:	000005d3 	ldrdeq	r0, [r0], -r3
    1e28:	c50e2102 	strgt	r2, [lr, #-258]	; 0xfffffefe
    1e2c:	08000000 	stmdaeq	r0, {}	; <UNPREDICTABLE>
    1e30:	00009804 	andeq	r9, r0, r4, lsl #16
    1e34:	029e0a00 	addseq	r0, lr, #0, 20
    1e38:	04010000 	streq	r0, [r1], #-0
    1e3c:	00013b07 	andeq	r3, r1, r7, lsl #22
    1e40:	008b0800 	addeq	r0, fp, r0, lsl #16
    1e44:	00007800 	andeq	r7, r0, r0, lsl #16
    1e48:	3b9c0100 	blcc	fe702250 <__bss_end__+0xfe6f7428>
    1e4c:	0b000001 	bleq	1e58 <__code_start__-0x61a8>
    1e50:	0100705f 	qaddeq	r7, pc, r0	; <UNPREDICTABLE>
    1e54:	013b1404 	teqeq	fp, r4, lsl #8
    1e58:	50010000 	andpl	r0, r1, r0
    1e5c:	0100630c 	tsteq	r0, ip, lsl #6
    1e60:	00251c04 	eoreq	r1, r5, r4, lsl #24
    1e64:	0bf40000 	bleq	ffd01e6c <__bss_end__+0xffcf7044>
    1e68:	0bf00000 	bleq	ffc01e70 <__bss_end__+0xffbf7048>
    1e6c:	6e0c0000 	cdpvs	0, 0, cr0, cr12, cr0, {0}
    1e70:	26040100 	strcs	r0, [r4], -r0, lsl #2
    1e74:	0000002c 	andeq	r0, r0, ip, lsr #32
    1e78:	00000c19 	andeq	r0, r0, r9, lsl ip
    1e7c:	00000c15 	andeq	r0, r0, r5, lsl ip
    1e80:	0100700d 	tsteq	r0, sp
    1e84:	013d0b05 	teqeq	sp, r5, lsl #22
    1e88:	0c480000 	mareq	acc0, r0, r8
    1e8c:	0c3a0000 	ldceq	0, cr0, [sl], #-0
    1e90:	650d0000 	strvs	r0, [sp, #-0]
    1e94:	14050100 	strne	r0, [r5], #-256	; 0xffffff00
    1e98:	0000013d 	andeq	r0, r0, sp, lsr r1
    1e9c:	00000ca5 	andeq	r0, r0, r5, lsr #25
    1ea0:	00000ca3 	andeq	r0, r0, r3, lsr #25
    1ea4:	08040e00 	stmdaeq	r4, {r9, sl, fp}
    1ea8:	0000ad04 	andeq	sl, r0, r4, lsl #26
    1eac:	019d0000 	orrseq	r0, sp, r0
    1eb0:	00040000 	andeq	r0, r4, r0
    1eb4:	00000b55 	andeq	r0, r0, r5, asr fp
    1eb8:	04b30104 	ldrteq	r0, [r3], #260	; 0x104
    1ebc:	b00c0000 	andlt	r0, ip, r0
    1ec0:	6b000005 	blvs	1edc <__code_start__-0x6124>
    1ec4:	80000005 	andhi	r0, r0, r5
    1ec8:	5800008b 	stmdapl	r0, {r0, r1, r3, r7}
    1ecc:	fb000000 	blx	1ed6 <__code_start__-0x612a>
    1ed0:	0200000c 	andeq	r0, r0, #12, 0
    1ed4:	0000059c 	muleq	r0, ip, r5
    1ed8:	311b2802 	tstcc	fp, r2, lsl #16
    1edc:	03000000 	movweq	r0, #0
    1ee0:	000005c0 	andeq	r0, r0, r0, asr #11
    1ee4:	48000404 	stmdami	r0, {r2, sl}
    1ee8:	04000000 	streq	r0, [r0], #-0
    1eec:	000005ab 	andeq	r0, r0, fp, lsr #11
    1ef0:	00000048 	andeq	r0, r0, r8, asr #32
    1ef4:	04050000 	streq	r0, [r5], #-0
    1ef8:	0005c202 	andeq	ip, r5, r2, lsl #4
    1efc:	18630200 	stmdane	r3!, {r9}^
    1f00:	00000025 	andeq	r0, r0, r5, lsr #32
    1f04:	69050406 	stmdbvs	r5, {r1, r2, sl}
    1f08:	0700746e 	streq	r7, [r0, -lr, ror #8]
    1f0c:	00ea0704 	rsceq	r0, sl, r4, lsl #14
    1f10:	01070000 	mrseq	r0, (UNDEF: 7)
    1f14:	00007706 	andeq	r7, r0, r6, lsl #14
    1f18:	05020700 	streq	r0, [r2, #-1792]	; 0xfffff900
    1f1c:	000001fd 	strdeq	r0, [r0], -sp
    1f20:	0e050407 	cdpeq	4, 0, cr0, cr5, cr7, {0}
    1f24:	07000001 	streq	r0, [r0, -r1]
    1f28:	01090508 	tsteq	r9, r8, lsl #10
    1f2c:	01070000 	mrseq	r0, (UNDEF: 7)
    1f30:	00007508 	andeq	r7, r0, r8, lsl #10
    1f34:	07020700 	streq	r0, [r2, -r0, lsl #14]
    1f38:	00000090 	muleq	r0, r0, r0
    1f3c:	e5070407 	str	r0, [r7, #-1031]	; 0xfffffbf9
    1f40:	07000000 	streq	r0, [r0, -r0]
    1f44:	00e00708 	rsceq	r0, r0, r8, lsl #14
    1f48:	56080000 	strpl	r0, [r8], -r0
    1f4c:	ab000000 	blge	1f54 <__code_start__-0x60ac>
    1f50:	09000000 	stmdbeq	r0, {}	; <UNPREDICTABLE>
    1f54:	00000056 	andeq	r0, r0, r6, asr r0
    1f58:	02230a00 	eoreq	r0, r3, #0, 20
    1f5c:	1c030000 	stcne	0, cr0, [r3], {-0}
    1f60:	0000b70e 	andeq	fp, r0, lr, lsl #14
    1f64:	9c040b00 			; <UNDEFINED> instruction: 0x9c040b00
    1f68:	08000000 	stmdaeq	r0, {}	; <UNPREDICTABLE>
    1f6c:	00000056 	andeq	r0, r0, r6, asr r0
    1f70:	000000cc 	andeq	r0, r0, ip, asr #1
    1f74:	0000cc09 	andeq	ip, r0, r9, lsl #24
    1f78:	040b0000 	streq	r0, [fp], #-0
    1f7c:	000000d9 	ldrdeq	r0, [r0], -r9
    1f80:	7e080107 	adfvce	f0, f0, f7
    1f84:	0c000000 	stceq	0, cr0, [r0], {-0}
    1f88:	000000d2 	ldrdeq	r0, [r0], -r2
    1f8c:	0005d30a 	andeq	sp, r5, sl, lsl #6
    1f90:	0e210300 	cdpeq	3, 2, cr0, cr1, cr0, {0}
    1f94:	000000ea 	andeq	r0, r0, sl, ror #1
    1f98:	00bd040b 	adcseq	r0, sp, fp, lsl #8
    1f9c:	950d0000 	strls	r0, [sp, #-0]
    1fa0:	01000005 	tsteq	r0, r5
    1fa4:	00560506 	subseq	r0, r6, r6, lsl #10
    1fa8:	8b800000 	blhi	fe001fb0 <__bss_end__+0xfdff7188>
    1fac:	00580000 	subseq	r0, r8, r0
    1fb0:	9c010000 	stcls	0, cr0, [r1], {-0}
    1fb4:	00000183 	andeq	r0, r0, r3, lsl #3
    1fb8:	746d660e 	strbtvc	r6, [sp], #-1550	; 0xfffff9f2
    1fbc:	18060100 	stmdane	r6, {r8}
    1fc0:	000000cc 	andeq	r0, r0, ip, asr #1
    1fc4:	0f709102 	svceq	0x00709102
    1fc8:	66756210 			; <UNDEFINED> instruction: 0x66756210
    1fcc:	11080100 	mrsne	r0, (UNDEF: 24)
    1fd0:	00000183 	andeq	r0, r0, r3, lsl #3
    1fd4:	aa240305 	bge	902bf0 <__bss_end__+0x8f7dc8>
    1fd8:	8d110000 	ldchi	0, cr0, [r1, #-0]
    1fdc:	01000005 	tsteq	r0, r5
    1fe0:	004a0d09 	subeq	r0, sl, r9, lsl #26
    1fe4:	91020000 	mrsls	r0, (UNDEF: 2)
    1fe8:	7a73125c 	bvc	1cc6960 <__bss_end__+0x1cbbb38>
    1fec:	0d0c0100 	stfeqs	f0, [ip, #-0]
    1ff0:	00000056 	andeq	r0, r0, r6, asr r0
    1ff4:	00000cbe 			; <UNDEFINED> instruction: 0x00000cbe
    1ff8:	00000cb8 			; <UNDEFINED> instruction: 0x00000cb8
    1ffc:	008ba813 	addeq	sl, fp, r3, lsl r8
    2000:	00019400 	andeq	r9, r1, r0, lsl #8
    2004:	00017600 	andeq	r7, r1, r0, lsl #12
    2008:	50011400 	andpl	r1, r1, r0, lsl #8
    200c:	14007502 	strne	r7, [r0], #-1282	; 0xfffffafe
    2010:	0a035101 	beq	d641c <__bss_end__+0xcb5f4>
    2014:	01140400 	tsteq	r4, r0, lsl #8
    2018:	48910352 	ldmmi	r1, {r1, r4, r6, r8, r9}
    201c:	53011406 	movwpl	r1, #5126	; 0x1406
    2020:	004c9102 	subeq	r9, ip, r2, lsl #2
    2024:	008bbc15 	addeq	fp, fp, r5, lsl ip
    2028:	50011400 	andpl	r1, r1, r0, lsl #8
    202c:	00007502 	andeq	r7, r0, r2, lsl #10
    2030:	00d21600 	sbcseq	r1, r2, r0, lsl #12
    2034:	01940000 	orrseq	r0, r4, r0
    2038:	5d170000 	ldcpl	0, cr0, [r7, #-0]
    203c:	ff000000 			; <UNDEFINED> instruction: 0xff000000
    2040:	92180003 	andsls	r0, r8, #3, 0
    2044:	92000005 	andls	r0, r0, #5, 0
    2048:	05000005 	streq	r0, [r0, #-5]
    204c:	f3000502 	vrshl.u8	d0, d2, d0
    2050:	04000000 	streq	r0, [r0], #-0
    2054:	000c9700 	andeq	r9, ip, r0, lsl #14
    2058:	b3010400 	movwlt	r0, #5120	; 0x1400
    205c:	0c000004 	stceq	0, cr0, [r0], {4}
    2060:	000005d8 	ldrdeq	r0, [r0], -r8
    2064:	0000056b 	andeq	r0, r0, fp, ror #10
    2068:	00008bd8 	ldrdeq	r8, [r0], -r8	; <UNPREDICTABLE>
    206c:	00000038 	andeq	r0, r0, r8, lsr r0
    2070:	00000e1f 	andeq	r0, r0, pc, lsl lr
    2074:	69050402 	stmdbvs	r5, {r1, sl}
    2078:	0300746e 	movweq	r7, #1134	; 0x46e
    207c:	00ea0704 	rsceq	r0, sl, r4, lsl #14
    2080:	01030000 	mrseq	r0, (UNDEF: 3)
    2084:	00007706 	andeq	r7, r0, r6, lsl #14
    2088:	05020300 	streq	r0, [r2, #-768]	; 0xfffffd00
    208c:	000001fd 	strdeq	r0, [r0], -sp
    2090:	0e050403 	cdpeq	4, 0, cr0, cr5, cr3, {0}
    2094:	03000001 	movweq	r0, #1
    2098:	01090508 	tsteq	r9, r8, lsl #10
    209c:	01030000 	mrseq	r0, (UNDEF: 3)
    20a0:	00007508 	andeq	r7, r0, r8, lsl #10
    20a4:	07020300 	streq	r0, [r2, -r0, lsl #6]
    20a8:	00000090 	muleq	r0, r0, r0
    20ac:	e5070403 	str	r0, [r7, #-1027]	; 0xfffffbfd
    20b0:	03000000 	movweq	r0, #0
    20b4:	00e00708 	rsceq	r0, r0, r8, lsl #14
    20b8:	25040000 	strcs	r0, [r4, #-0]
    20bc:	7a000000 	bvc	20c4 <__code_start__-0x5f3c>
    20c0:	05000000 	streq	r0, [r0, #-0]
    20c4:	00000025 	andeq	r0, r0, r5, lsr #32
    20c8:	02230600 	eoreq	r0, r3, #0, 12
    20cc:	1c020000 	stcne	0, cr0, [r2], {-0}
    20d0:	0000860e 	andeq	r8, r0, lr, lsl #12
    20d4:	6b040700 	blvs	103cdc <__bss_end__+0xf8eb4>
    20d8:	04000000 	streq	r0, [r0], #-0
    20dc:	00000025 	andeq	r0, r0, r5, lsr #32
    20e0:	0000009b 	muleq	r0, fp, r0
    20e4:	00009b05 	andeq	r9, r0, r5, lsl #22
    20e8:	04070000 	streq	r0, [r7], #-0
    20ec:	000000a8 	andeq	r0, r0, r8, lsr #1
    20f0:	7e080103 	adfvce	f0, f0, f3
    20f4:	08000000 	stmdaeq	r0, {}	; <UNPREDICTABLE>
    20f8:	000000a1 	andeq	r0, r0, r1, lsr #1
    20fc:	0005d306 	andeq	sp, r5, r6, lsl #6
    2100:	0e210200 	cdpeq	2, 2, cr0, cr1, cr0, {0}
    2104:	000000b9 	strheq	r0, [r0], -r9
    2108:	008c0407 	addeq	r0, ip, r7, lsl #8
    210c:	ad090000 	stcge	0, cr0, [r9, #-0]
    2110:	01000000 	mrseq	r0, (UNDEF: 0)
    2114:	0305070c 	movweq	r0, #22284	; 0x570c
    2118:	0000a9e8 	andeq	sl, r0, r8, ror #19
    211c:	0005ca0a 	andeq	ip, r5, sl, lsl #20
    2120:	05040100 	streq	r0, [r4, #-256]	; 0xffffff00
    2124:	00000025 	andeq	r0, r0, r5, lsr #32
    2128:	00008bd8 	ldrdeq	r8, [r0], -r8	; <UNPREDICTABLE>
    212c:	00000038 	andeq	r0, r0, r8, lsr r0
    2130:	700b9c01 	andvc	r9, fp, r1, lsl #24
    2134:	1f040100 	svcne	0x00040100
    2138:	0000009b 	muleq	r0, fp, r0
    213c:	00000cef 	andeq	r0, r0, pc, ror #25
    2140:	00000ce7 	andeq	r0, r0, r7, ror #25
    2144:	0c7f0000 	ldcleq	0, cr0, [pc], #-0	; 214c <__code_start__-0x5eb4>
    2148:	00040000 	andeq	r0, r4, r0
    214c:	00000d35 	andeq	r0, r0, r5, lsr sp
    2150:	04b30104 	ldrteq	r0, [r3], #260	; 0x104
    2154:	f70c0000 			; <UNDEFINED> instruction: 0xf70c0000
    2158:	6b000005 	blvs	2174 <__code_start__-0x5e8c>
    215c:	10000005 	andne	r0, r0, r5
    2160:	b400008c 	strlt	r0, [r0], #-140	; 0xffffff74
    2164:	c3000009 	movwgt	r0, #9
    2168:	0200000e 	andeq	r0, r0, #14, 0
    216c:	00e00708 	rsceq	r0, r0, r8, lsl #14
    2170:	04020000 	streq	r0, [r2], #-0
    2174:	0000ea07 	andeq	lr, r0, r7, lsl #20
    2178:	05040300 	streq	r0, [r4, #-768]	; 0xfffffd00
    217c:	00746e69 	rsbseq	r6, r4, r9, ror #28
    2180:	77060102 	strvc	r0, [r6, -r2, lsl #2]
    2184:	02000000 	andeq	r0, r0, #0, 0
    2188:	01fd0502 	mvnseq	r0, r2, lsl #10
    218c:	04020000 	streq	r0, [r2], #-0
    2190:	00010e05 	andeq	r0, r1, r5, lsl #28
    2194:	05080200 	streq	r0, [r8, #-512]	; 0xfffffe00
    2198:	00000109 	andeq	r0, r0, r9, lsl #2
    219c:	75080102 	strvc	r0, [r8, #-258]	; 0xfffffefe
    21a0:	02000000 	andeq	r0, r0, #0, 0
    21a4:	00900702 	addseq	r0, r0, r2, lsl #14
    21a8:	1a040000 	bne	1021b0 <__bss_end__+0xf7388>
    21ac:	02000002 	andeq	r0, r0, #2, 0
    21b0:	00701934 	rsbseq	r1, r0, r4, lsr r9
    21b4:	04020000 	streq	r0, [r2], #-0
    21b8:	0000e507 	andeq	lr, r0, r7, lsl #10
    21bc:	05ee0400 	strbeq	r0, [lr, #1024]!	; 0x400
    21c0:	37020000 	strcc	r0, [r2, -r0]
    21c4:	00002519 	andeq	r2, r0, r9, lsl r5
    21c8:	00330500 	eorseq	r0, r3, r0, lsl #10
    21cc:	00920000 	addseq	r0, r2, r0
    21d0:	33060000 	movwcc	r0, #24576	; 0x6000
    21d4:	00000000 	andeq	r0, r0, r0
    21d8:	00022307 	andeq	r2, r2, r7, lsl #6
    21dc:	0e1c0300 	cdpeq	3, 1, cr0, cr12, cr0, {0}
    21e0:	0000009e 	muleq	r0, lr, r0
    21e4:	00830408 	addeq	r0, r3, r8, lsl #8
    21e8:	33050000 	movwcc	r0, #20480	; 0x5000
    21ec:	b3000000 	movwlt	r0, #0
    21f0:	06000000 	streq	r0, [r0], -r0
    21f4:	000000b3 	strheq	r0, [r0], -r3
    21f8:	c0040800 	andgt	r0, r4, r0, lsl #16
    21fc:	02000000 	andeq	r0, r0, #0, 0
    2200:	007e0801 	rsbseq	r0, lr, r1, lsl #16
    2204:	b9090000 	stmdblt	r9, {}	; <UNPREDICTABLE>
    2208:	07000000 	streq	r0, [r0, -r0]
    220c:	000005d3 	ldrdeq	r0, [r0], -r3
    2210:	d10e2103 	tstle	lr, r3, lsl #2
    2214:	08000000 	stmdaeq	r0, {}	; <UNPREDICTABLE>
    2218:	0000a404 	andeq	sl, r0, r4, lsl #8
    221c:	060a0700 	streq	r0, [sl], -r0, lsl #14
    2220:	0b040000 	bleq	102228 <__bss_end__+0xf7400>
    2224:	0000b90d 	andeq	fp, r0, sp, lsl #18
    2228:	06630700 	strbteq	r0, [r3], -r0, lsl #14
    222c:	0c040000 	stceq	0, cr0, [r4], {-0}
    2230:	0000b90d 	andeq	fp, r0, sp, lsl #18
    2234:	03860700 	orreq	r0, r6, #0, 14
    2238:	0d040000 	stceq	0, cr0, [r4, #-0]
    223c:	0000b90d 	andeq	fp, r0, sp, lsl #18
    2240:	04380700 	ldrteq	r0, [r8], #-1792	; 0xfffff900
    2244:	0e040000 	cdpeq	0, 0, cr0, cr4, cr0, {0}
    2248:	0000b90d 	andeq	fp, r0, sp, lsl #18
    224c:	046e0700 	strbteq	r0, [lr], #-1792	; 0xfffff900
    2250:	0f040000 	svceq	0x00040000
    2254:	0000b90d 	andeq	fp, r0, sp, lsl #18
    2258:	03e70700 	mvneq	r0, #0, 14
    225c:	10040000 	andne	r0, r4, r0
    2260:	0000b90d 	andeq	fp, r0, sp, lsl #18
    2264:	068c0700 	streq	r0, [ip], r0, lsl #14
    2268:	11040000 	mrsne	r0, (UNDEF: 4)
    226c:	0000b90d 	andeq	fp, r0, sp, lsl #18
    2270:	06270700 	strteq	r0, [r7], -r0, lsl #14
    2274:	12040000 	andne	r0, r4, #0, 0
    2278:	0000b90d 	andeq	fp, r0, sp, lsl #18
    227c:	059c0400 	ldreq	r0, [ip, #1024]	; 0x400
    2280:	28050000 	stmdacs	r5, {}	; <UNPREDICTABLE>
    2284:	0001431b 	andeq	r4, r1, fp, lsl r3
    2288:	05c00a00 	strbeq	r0, [r0, #2560]	; 0xa00
    228c:	06040000 	streq	r0, [r4], -r0
    2290:	00015a00 	andeq	r5, r1, r0, lsl #20
    2294:	05ab0b00 	streq	r0, [fp, #2816]!	; 0xb00
    2298:	015a0000 	cmpeq	sl, r0
    229c:	00000000 	andeq	r0, r0, r0
    22a0:	c204040c 	andgt	r0, r4, #12, 8	; 0xc000000
    22a4:	05000005 	streq	r0, [r0, #-5]
    22a8:	01371863 	teqeq	r7, r3, ror #16
    22ac:	920d0000 	andls	r0, sp, #0, 0
    22b0:	01000005 	tsteq	r0, r5
    22b4:	00330581 	eorseq	r0, r3, r1, lsl #11
    22b8:	8f980000 	svchi	0x00980000
    22bc:	062c0000 	strteq	r0, [ip], -r0
    22c0:	9c010000 	stcls	0, cr0, [r1], {-0}
    22c4:	0000086a 	andeq	r0, r0, sl, ror #16
    22c8:	6675620e 	ldrbtvs	r6, [r5], -lr, lsl #4
    22cc:	15810100 	strne	r0, [r1, #256]	; 0x100
    22d0:	0000086a 	andeq	r0, r0, sl, ror #16
    22d4:	00000d2f 	andeq	r0, r0, pc, lsr #26
    22d8:	00000d25 	andeq	r0, r0, r5, lsr #26
    22dc:	01006e0e 	tsteq	r0, lr, lsl #28
    22e0:	00331e81 	eorseq	r1, r3, r1, lsl #29
    22e4:	0d7c0000 	ldcleq	0, cr0, [ip, #-0]
    22e8:	0d740000 	ldcleq	0, cr0, [r4, #-0]
    22ec:	660e0000 	strvs	r0, [lr], -r0
    22f0:	0100746d 	tsteq	r0, sp, ror #8
    22f4:	00b32d81 	adcseq	r2, r3, r1, lsl #27
    22f8:	0dce0000 	stcleq	0, cr0, [lr]
    22fc:	0db60000 	ldceq	0, cr0, [r6]
    2300:	8d0f0000 	stchi	0, cr0, [pc, #-0]	; 2308 <__code_start__-0x5cf8>
    2304:	01000005 	tsteq	r0, r5
    2308:	015c3a81 	cmpeq	ip, r1, lsl #21
    230c:	0e900000 	cdpeq	0, 9, cr0, cr0, cr0, {0}
    2310:	0e620000 	cdpeq	0, 6, cr0, cr2, cr0, {0}
    2314:	70100000 	andsvc	r0, r0, r0
    2318:	08820100 	stmeq	r2, {r8}
    231c:	0000086a 	andeq	r0, r0, sl, ror #16
    2320:	00000fe3 	andeq	r0, r0, r3, ror #31
    2324:	00000fcd 	andeq	r0, r0, sp, asr #31
    2328:	01006510 	tsteq	r0, r0, lsl r5
    232c:	086a1282 	stmdaeq	sl!, {r1, r7, r9, ip}^
    2330:	106c0000 	rsbne	r0, ip, r0
    2334:	106a0000 	rsbne	r0, sl, r0
    2338:	78100000 	ldmdavc	r0, {}	; <UNPREDICTABLE>
    233c:	83010030 	movwhi	r0, #4144	; 0x1030
    2340:	0000640e 	andeq	r6, r0, lr, lsl #8
    2344:	00108500 	andseq	r8, r0, r0, lsl #10
    2348:	00107f00 	andseq	r7, r0, r0, lsl #30
    234c:	31781000 	cmncc	r8, r0
    2350:	11830100 	orrne	r0, r3, r0, lsl #2
    2354:	00000064 	andeq	r0, r0, r4, rrx
    2358:	000010b4 	strheq	r1, [r0], -r4
    235c:	000010ae 	andeq	r1, r0, lr, lsr #1
    2360:	00064511 	andeq	r4, r6, r1, lsl r5
    2364:	11860100 	orrne	r0, r6, r0, lsl #2
    2368:	000000b3 	strheq	r0, [r0], -r3
    236c:	000010e5 	andeq	r1, r0, r5, ror #1
    2370:	000010dd 	ldrdeq	r1, [r0], -sp
    2374:	0000c412 	andeq	ip, r0, r2, lsl r4
    2378:	00088000 	andeq	r8, r8, r0
    237c:	d4030500 	strle	r0, [r3], #-1280	; 0xfffffb00
    2380:	130000a7 	movwne	r0, #167	; 0xa7
    2384:	000001d0 	ldrdeq	r0, [r0], -r0	; <UNPREDICTABLE>
    2388:	01007310 	tsteq	r0, r0, lsl r3
    238c:	086a0a91 	stmdaeq	sl!, {r0, r4, r7, r9, fp}^
    2390:	112b0000 			; <UNDEFINED> instruction: 0x112b0000
    2394:	111f0000 	tstne	pc, r0
    2398:	6e140000 	cdpvs	0, 1, cr0, cr4, cr0, {0}
    239c:	01006d75 	tsteq	r0, r5, ror sp
    23a0:	08850d91 	stmeq	r5, {r0, r4, r7, r8, sl, fp}
    23a4:	91030000 	mrsls	r0, (UNDEF: 3)
    23a8:	99157dd8 	ldmdbls	r5, {r3, r4, r6, r7, r8, sl, fp, ip, sp, lr}
    23ac:	01000006 	tsteq	r0, r6
    23b0:	08851791 	stmeq	r5, {r0, r4, r7, r8, r9, sl, ip}
    23b4:	91030000 	mrsls	r0, (UNDEF: 3)
    23b8:	19117ed8 	ldmdbne	r1, {r3, r4, r6, r7, r9, sl, fp, ip, sp, lr}
    23bc:	01000006 	tsteq	r0, r6
    23c0:	002c0d92 	mlaeq	ip, r2, sp, r0
    23c4:	117d0000 	cmnne	sp, r0
    23c8:	11750000 	cmnne	r5, r0
    23cc:	f8160000 			; <UNDEFINED> instruction: 0xf8160000
    23d0:	f1000001 	cps	#1
    23d4:	10000004 	andne	r0, r0, r4
    23d8:	01007974 	tsteq	r0, r4, ror r9
    23dc:	00b31d9e 	umlalseq	r1, r3, lr, sp
    23e0:	11be0000 			; <UNDEFINED> instruction: 0x11be0000
    23e4:	11b20000 			; <UNDEFINED> instruction: 0x11b20000
    23e8:	78140000 	ldmdavc	r4, {}	; <UNPREDICTABLE>
    23ec:	a2010078 	andge	r0, r1, #120, 0	; 0x78
    23f0:	0000771a 	andeq	r7, r0, sl, lsl r7
    23f4:	93590600 	cmpls	r9, #0, 12
    23f8:	04935b04 	ldreq	r5, [r3], #2820	; 0xb04
    23fc:	00912417 	addseq	r2, r1, r7, lsl r4
    2400:	000c3a00 	andeq	r3, ip, r0, lsl #20
    2404:	0002d800 	andeq	sp, r2, r0, lsl #16
    2408:	50011800 	andpl	r1, r1, r0, lsl #16
    240c:	18007602 	stmdane	r0, {r1, r9, sl, ip, sp, lr}
    2410:	03055101 	movweq	r5, #20737	; 0x5101
    2414:	0000a6c8 	andeq	sl, r0, r8, asr #13
    2418:	01520118 	cmpeq	r2, r8, lsl r1
    241c:	3c170033 	ldccc	0, cr0, [r7], {51}	; 0x33
    2420:	3a000091 	bcc	266c <__code_start__-0x5994>
    2424:	fa00000c 	blx	245c <__code_start__-0x5ba4>
    2428:	18000002 	stmdane	r0, {r1}
    242c:	76025001 	strvc	r5, [r2], -r1
    2430:	51011800 	tstpl	r1, r0, lsl #16
    2434:	a6dc0305 	ldrbge	r0, [ip], r5, lsl #6
    2438:	01180000 	tsteq	r8, r0
    243c:	00330152 	eorseq	r0, r3, r2, asr r1
    2440:	00916017 	addseq	r6, r1, r7, lsl r0
    2444:	000c4600 	andeq	r4, ip, r0, lsl #12
    2448:	00031700 	andeq	r1, r3, r0, lsl #14
    244c:	50011800 	andpl	r1, r1, r0, lsl #16
    2450:	a6cc0305 	strbge	r0, [ip], r5, lsl #6
    2454:	01180000 	tsteq	r8, r0
    2458:	007b0251 	rsbseq	r0, fp, r1, asr r2
    245c:	916c1700 	cmnls	ip, r0, lsl #14
    2460:	0c460000 	mareq	acc0, r0, r6
    2464:	03340000 	teqeq	r4, #0, 0
    2468:	01180000 	tsteq	r8, r0
    246c:	d4030550 	strle	r0, [r3], #-1360	; 0xfffffab0
    2470:	180000a6 	stmdane	r0, {r1, r2, r5, r7}
    2474:	79025101 	stmdbvc	r2, {r0, r8, ip, lr}
    2478:	7c170000 	ldcvc	0, cr0, [r7], {-0}
    247c:	3a000091 	bcc	26c8 <__code_start__-0x5938>
    2480:	5600000c 	strpl	r0, [r0], -ip
    2484:	18000003 	stmdane	r0, {r0, r1}
    2488:	76025001 	strvc	r5, [r2], -r1
    248c:	51011800 	tstpl	r1, r0, lsl #16
    2490:	a6c80305 	strbge	r0, [r8], r5, lsl #6
    2494:	01180000 	tsteq	r8, r0
    2498:	00330152 	eorseq	r0, r3, r2, asr r1
    249c:	0091ac17 	addseq	sl, r1, r7, lsl ip
    24a0:	000aa400 	andeq	sl, sl, r0, lsl #8
    24a4:	00038300 	andeq	r8, r3, r0, lsl #6
    24a8:	50011800 	andpl	r1, r1, r0, lsl #16
    24ac:	01184001 	tsteq	r8, r1
    24b0:	d0910351 	addsle	r0, r1, r1, asr r3
    24b4:	5201187d 	andpl	r1, r1, #8192000	; 0x7d0000
    24b8:	18007b02 	stmdane	r0, {r1, r8, r9, fp, ip, sp, lr}
    24bc:	75025301 	strvc	r5, [r2, #-769]	; 0xfffffcff
    24c0:	7d021800 	stcvc	8, cr1, [r2, #-0]
    24c4:	00760200 	rsbseq	r0, r6, r0, lsl #4
    24c8:	91cc1700 	bicls	r1, ip, r0, lsl #14
    24cc:	0aa40000 	beq	fe9024d4 <__bss_end__+0xfe8f76ac>
    24d0:	03aa0000 			; <UNDEFINED> instruction: 0x03aa0000
    24d4:	01180000 	tsteq	r8, r0
    24d8:	18400150 	stmdane	r0, {r4, r6, r8}^
    24dc:	91035101 	tstls	r3, r1, lsl #2
    24e0:	01187ed0 			; <UNDEFINED> instruction: 0x01187ed0
    24e4:	00790252 	rsbseq	r0, r9, r2, asr r2
    24e8:	007d0218 	rsbseq	r0, sp, r8, lsl r2
    24ec:	00007602 	andeq	r7, r0, r2, lsl #12
    24f0:	0091dc17 	addseq	sp, r1, r7, lsl ip
    24f4:	000c5200 	andeq	r5, ip, r0, lsl #4
    24f8:	0003c600 	andeq	ip, r3, r0, lsl #12
    24fc:	50011800 	andpl	r1, r1, r0, lsl #16
    2500:	7dd09103 	ldfvcp	f1, [r0, #12]
    2504:	03510118 	cmpeq	r1, #6
    2508:	007ed291 			; <UNDEFINED> instruction: 0x007ed291
    250c:	00942017 	addseq	r2, r4, r7, lsl r0
    2510:	000c3a00 	andeq	r3, ip, r0, lsl #20
    2514:	0003e800 	andeq	lr, r3, r0, lsl #16
    2518:	50011800 	andpl	r1, r1, r0, lsl #16
    251c:	18007602 	stmdane	r0, {r1, r9, sl, ip, sp, lr}
    2520:	03055101 	movweq	r5, #20737	; 0x5101
    2524:	0000a6dc 	ldrdeq	sl, [r0], -ip
    2528:	01520118 	cmpeq	r2, r8, lsl r1
    252c:	44170033 	ldrmi	r0, [r7], #-51	; 0xffffffcd
    2530:	a4000094 	strge	r0, [r0], #-148	; 0xffffff6c
    2534:	1500000a 	strne	r0, [r0, #-10]
    2538:	18000004 	stmdane	r0, {r2}
    253c:	3a015001 	bcc	56548 <__bss_end__+0x4b720>
    2540:	03510118 	cmpeq	r1, #6
    2544:	187dd091 	ldmdane	sp!, {r0, r4, r7, ip, lr, pc}^
    2548:	7b025201 	blvc	96d54 <__bss_end__+0x8bf2c>
    254c:	53011800 	movwpl	r1, #6144	; 0x1800
    2550:	18007502 	stmdane	r0, {r1, r8, sl, ip, sp, lr}
    2554:	02007d02 	andeq	r7, r0, #128	; 0x80
    2558:	17000076 	smlsdxne	r0, r6, r0, r0
    255c:	00009464 	andeq	r9, r0, r4, ror #8
    2560:	00000aa4 	andeq	r0, r0, r4, lsr #21
    2564:	0000043c 	andeq	r0, r0, ip, lsr r4
    2568:	01500118 	cmpeq	r0, r8, lsl r1
    256c:	5101183a 	tstpl	r1, sl, lsr r8
    2570:	7ed09103 	atnvcs	f1, f3
    2574:	02520118 	subseq	r0, r2, #6
    2578:	02180079 	andseq	r0, r8, #121, 0	; 0x79
    257c:	7602007d 			; <UNDEFINED> instruction: 0x7602007d
    2580:	70170000 	andsvc	r0, r7, r0
    2584:	5e000094 	mcrpl	0, 0, r0, cr0, cr4, {4}
    2588:	5a00000c 	bpl	25c0 <__code_start__-0x5a40>
    258c:	18000004 	stmdane	r0, {r2}
    2590:	91035001 	tstls	r3, r1
    2594:	01187dd0 			; <UNDEFINED> instruction: 0x01187dd0
    2598:	ec030551 	cfstr32	mvfx0, [r3], {81}	; 0x51
    259c:	000000a4 	andeq	r0, r0, r4, lsr #1
    25a0:	00948417 	addseq	r8, r4, r7, lsl r4
    25a4:	000c6a00 	andeq	r6, ip, r0, lsl #20
    25a8:	00047600 	andeq	r7, r4, r0, lsl #12
    25ac:	50011800 	andpl	r1, r1, r0, lsl #16
    25b0:	7dd09103 	ldfvcp	f1, [r0, #12]
    25b4:	03510118 	cmpeq	r1, #6
    25b8:	007ed091 			; <UNDEFINED> instruction: 0x007ed091
    25bc:	00949019 	addseq	r9, r4, r9, lsl r0
    25c0:	000c5200 	andeq	r5, ip, r0, lsl #4
    25c4:	95541700 	ldrbls	r1, [r4, #-1792]	; 0xfffff900
    25c8:	0c460000 	mareq	acc0, r0, r6
    25cc:	04a80000 	strteq	r0, [r8], #0
    25d0:	01180000 	tsteq	r8, r0
    25d4:	68030550 	stmdavs	r3, {r4, r6, r8, sl}
    25d8:	180000a2 	stmdane	r0, {r1, r5, r7}
    25dc:	03055101 	movweq	r5, #20737	; 0x5101
    25e0:	0000a67c 	andeq	sl, r0, ip, ror r6
    25e4:	05520118 	ldrbeq	r0, [r2, #-280]	; 0xfffffee8
    25e8:	00a7d403 	adceq	sp, r7, r3, lsl #8
    25ec:	58190000 	ldmdapl	r9, {}	; <UNPREDICTABLE>
    25f0:	76000095 			; <UNDEFINED> instruction: 0x76000095
    25f4:	1700000c 	strne	r0, [r0, -ip]
    25f8:	00009570 	andeq	r9, r0, r0, ror r5
    25fc:	00000c46 	andeq	r0, r0, r6, asr #24
    2600:	000004e7 	andeq	r0, r0, r7, ror #9
    2604:	05500118 	ldrbeq	r0, [r0, #-280]	; 0xfffffee8
    2608:	00a71c03 	adceq	r1, r7, r3, lsl #24
    260c:	51011800 	tstpl	r1, r0, lsl #16
    2610:	a67c0305 	ldrbtge	r0, [ip], -r5, lsl #6
    2614:	01180000 	tsteq	r8, r0
    2618:	d4030552 	strle	r0, [r3], #-1362	; 0xfffffaae
    261c:	180000a7 	stmdane	r0, {r0, r1, r2, r5, r7}
    2620:	08025301 	stmdaeq	r2, {r0, r8, r9, ip, lr}
    2624:	7d0218b6 	stcvc	8, cr1, [r2, #-728]	; 0xfffffd28
    2628:	00760200 	rsbseq	r0, r6, r0, lsl #4
    262c:	95741900 	ldrbls	r1, [r4, #-2304]!	; 0xfffff700
    2630:	0c760000 	ldcleq	0, cr0, [r6], #-0
    2634:	1a000000 	bne	263c <__code_start__-0x59c4>
    2638:	000009e3 	andeq	r0, r0, r3, ror #19
    263c:	00009024 	andeq	r9, r0, r4, lsr #32
    2640:	02200004 	eoreq	r0, r0, #4, 0
    2644:	94010000 	strls	r0, [r1], #-0
    2648:	0005150a 	andeq	r1, r5, sl, lsl #10
    264c:	09f41b00 	ldmibeq	r4!, {r8, r9, fp, ip}^
    2650:	121a0000 	andsne	r0, sl, #0, 0
    2654:	12160000 	andsne	r0, r6, #0, 0
    2658:	1a000000 	bne	2660 <__code_start__-0x59a0>
    265c:	00000895 	muleq	r0, r5, r8
    2660:	0000920c 	andeq	r9, r0, ip, lsl #4
    2664:	02400001 	subeq	r0, r0, #1, 0
    2668:	dc010000 	stcle	0, cr0, [r1], {-0}
    266c:	00064b09 	andeq	r4, r6, r9, lsl #22
    2670:	08be1b00 	ldmeq	lr!, {r8, r9, fp, ip}
    2674:	12480000 	subne	r0, r8, #0, 0
    2678:	12420000 	subne	r0, r2, #0, 0
    267c:	e01b0000 	ands	r0, fp, r0
    2680:	7d000008 	stcvc	0, cr0, [r0, #-32]	; 0xffffffe0
    2684:	77000012 	smladvc	r0, r2, r0, r0
    2688:	1b000012 	blne	26d8 <__code_start__-0x5928>
    268c:	000008d4 	ldrdeq	r0, [r0], -r4
    2690:	000012af 	andeq	r1, r0, pc, lsr #5
    2694:	000012a9 	andeq	r1, r0, r9, lsr #5
    2698:	0008c81c 	andeq	ip, r8, ip, lsl r8
    269c:	08b21b00 	ldmeq	r2!, {r8, r9, fp, ip}
    26a0:	12e00000 	rscne	r0, r0, #0, 0
    26a4:	12d80000 	sbcsne	r0, r8, #0, 0
    26a8:	a61b0000 	ldrge	r0, [fp], -r0
    26ac:	23000008 	movwcs	r0, #8
    26b0:	1d000013 	stcne	0, cr0, [r0, #-76]	; 0xffffffb4
    26b4:	13000013 	movwne	r0, #19
    26b8:	00000240 	andeq	r0, r0, r0, asr #4
    26bc:	0008ec1d 	andeq	lr, r8, sp, lsl ip
    26c0:	d8910300 	ldmle	r1, {r8, r9}
    26c4:	08f81e7e 	ldmeq	r8!, {r1, r2, r3, r4, r5, r6, r9, sl, fp, ip}^
    26c8:	135d0000 	cmpne	sp, #0, 0
    26cc:	134f0000 	movtne	r0, #61440	; 0xf000
    26d0:	021f0000 	andseq	r0, pc, #0, 0
    26d4:	1a000009 	bne	2700 <__code_start__-0x5900>
    26d8:	000009a3 	andeq	r0, r0, r3, lsr #19
    26dc:	00009218 	andeq	r9, r0, r8, lsl r2
    26e0:	02700004 	rsbseq	r0, r0, #4, 0
    26e4:	7c010000 	stcvc	0, cr0, [r1], {-0}
    26e8:	0005e209 	andeq	lr, r5, r9, lsl #4
    26ec:	09ca1b00 	stmibeq	sl, {r8, r9, fp, ip}^
    26f0:	13c70000 	bicne	r0, r7, #0, 0
    26f4:	13c10000 	bicne	r0, r1, #0, 0
    26f8:	be1b0000 	cdplt	0, 1, cr0, cr11, cr0, {0}
    26fc:	fc000009 	stc2	0, cr0, [r0], {9}
    2700:	f0000013 			; <UNDEFINED> instruction: 0xf0000013
    2704:	1b000013 	blne	2758 <__code_start__-0x58a8>
    2708:	000009b4 			; <UNDEFINED> instruction: 0x000009b4
    270c:	00001462 	andeq	r1, r0, r2, ror #8
    2710:	00001452 	andeq	r1, r0, r2, asr r4
    2714:	00027013 	andeq	r7, r2, r3, lsl r0
    2718:	09d61e00 	ldmibeq	r6, {r9, sl, fp, ip}^
    271c:	14df0000 	ldrbne	r0, [pc], #0	; 2724 <__code_start__-0x58dc>
    2720:	14d10000 	ldrbne	r0, [r1], #0
    2724:	00000000 	andeq	r0, r0, r0
    2728:	00094f20 	andeq	r4, r9, r0, lsr #30
    272c:	0092e000 	addseq	lr, r2, r0
    2730:	a0000200 	andge	r0, r0, r0, lsl #4
    2734:	01000002 	tsteq	r0, r2
    2738:	801b097c 	andshi	r0, fp, ip, ror r9
    273c:	3f000009 	svccc	0x00000009
    2740:	39000015 	stmdbcc	r0, {r0, r2, r4}
    2744:	1b000015 	blne	27a0 <__code_start__-0x5860>
    2748:	00000976 	andeq	r0, r0, r6, ror r9
    274c:	00001575 	andeq	r1, r0, r5, ror r5
    2750:	0000156b 	andeq	r1, r0, fp, ror #10
    2754:	00096c1b 	andeq	r6, r9, fp, lsl ip
    2758:	0015c400 	andseq	ip, r5, r0, lsl #8
    275c:	0015c000 	andseq	ip, r5, r0
    2760:	09601b00 	stmdbeq	r0!, {r8, r9, fp, ip}^
    2764:	15f40000 	ldrbne	r0, [r4, #0]!
    2768:	15e60000 	strbne	r0, [r6, #0]!
    276c:	a0130000 	andsge	r0, r3, r0
    2770:	1e000002 	cdpne	0, 0, cr0, cr0, cr2, {0}
    2774:	0000098c 	andeq	r0, r0, ip, lsl #19
    2778:	00001659 	andeq	r1, r0, r9, asr r6
    277c:	00001657 	andeq	r1, r0, r7, asr r6
    2780:	0009981e 	andeq	r9, r9, lr, lsl r8
    2784:	00167300 	andseq	r7, r6, r0, lsl #6
    2788:	00166d00 	andseq	r6, r6, r0, lsl #26
    278c:	00000000 	andeq	r0, r0, r0
    2790:	08951a00 	ldmeq	r5, {r9, fp, ip}
    2794:	931c0000 	tstls	ip, #0, 0
    2798:	00000000 	andeq	r0, r0, r0
    279c:	000002d0 	ldrdeq	r0, [r0], -r0	; <UNPREDICTABLE>
    27a0:	8909d601 	stmdbhi	r9, {r0, r9, sl, ip, lr, pc}
    27a4:	1b000007 	blne	27c8 <__code_start__-0x5838>
    27a8:	000008be 			; <UNDEFINED> instruction: 0x000008be
    27ac:	000016a6 	andeq	r1, r0, r6, lsr #13
    27b0:	000016a2 	andeq	r1, r0, r2, lsr #13
    27b4:	0008e01b 	andeq	lr, r8, fp, lsl r0
    27b8:	0016cc00 	andseq	ip, r6, r0, lsl #24
    27bc:	0016c800 	andseq	ip, r6, r0, lsl #16
    27c0:	08d41b00 	ldmeq	r4, {r8, r9, fp, ip}^
    27c4:	16f00000 	ldrbtne	r0, [r0], r0
    27c8:	16ec0000 	strbtne	r0, [ip], r0
    27cc:	c81c0000 	ldmdagt	ip, {}	; <UNPREDICTABLE>
    27d0:	1b000008 	blne	27f8 <__code_start__-0x5808>
    27d4:	000008b2 			; <UNDEFINED> instruction: 0x000008b2
    27d8:	00001714 	andeq	r1, r0, r4, lsl r7
    27dc:	0000170e 	andeq	r1, r0, lr, lsl #14
    27e0:	0008a61b 	andeq	sl, r8, fp, lsl r6
    27e4:	00174700 	andseq	r4, r7, r0, lsl #14
    27e8:	00174300 	andseq	r4, r7, r0, lsl #6
    27ec:	02d01300 	sbcseq	r1, r0, #0, 6
    27f0:	ec1d0000 	ldc	0, cr0, [sp], {-0}
    27f4:	03000008 	movweq	r0, #8
    27f8:	1e7ed891 	mrcne	8, 3, sp, cr14, cr1, {4}
    27fc:	000008f8 	strdeq	r0, [r0], -r8
    2800:	00001771 	andeq	r1, r0, r1, ror r7
    2804:	00001767 	andeq	r1, r0, r7, ror #14
    2808:	0009021e 	andeq	r0, r9, lr, lsl r2
    280c:	0017b600 	andseq	fp, r7, r0, lsl #12
    2810:	0017b200 	andseq	fp, r7, r0, lsl #4
    2814:	09a31a00 	stmibeq	r3!, {r9, fp, ip}
    2818:	93380000 	teqls	r8, #0, 0
    281c:	00030000 	andeq	r0, r3, r0
    2820:	000002f0 	strdeq	r0, [r0], -r0	; <UNPREDICTABLE>
    2824:	20097c01 	andcs	r7, r9, r1, lsl #24
    2828:	1b000007 	blne	284c <__code_start__-0x57b4>
    282c:	000009ca 	andeq	r0, r0, sl, asr #19
    2830:	000017d8 	ldrdeq	r1, [r0], -r8
    2834:	000017d4 	ldrdeq	r1, [r0], -r4
    2838:	0009be1b 	andeq	fp, r9, fp, lsl lr
    283c:	0017fa00 	andseq	pc, r7, r0, lsl #20
    2840:	0017f600 	andseq	pc, r7, r0, lsl #12
    2844:	09b41b00 	ldmibeq	r4!, {r8, r9, fp, ip}
    2848:	18240000 	stmdane	r4!, {}	; <UNPREDICTABLE>
    284c:	18180000 	ldmdane	r8, {}	; <UNPREDICTABLE>
    2850:	f0130000 			; <UNDEFINED> instruction: 0xf0130000
    2854:	1e000002 	cdpne	0, 0, cr0, cr0, cr2, {0}
    2858:	000009d6 	ldrdeq	r0, [r0], -r6
    285c:	00001880 	andeq	r1, r0, r0, lsl #17
    2860:	00001874 	andeq	r1, r0, r4, ror r8
    2864:	4f200000 	svcmi	0x00200000
    2868:	c0000009 	andgt	r0, r0, r9
    286c:	02000093 	andeq	r0, r0, #147, 0	; 0x93
    2870:	00031800 	andeq	r1, r3, r0, lsl #16
    2874:	097c0100 	ldmdbeq	ip!, {r8}^
    2878:	0009801b 	andeq	r8, r9, fp, lsl r0
    287c:	0018d000 	andseq	sp, r8, r0
    2880:	0018cc00 	andseq	ip, r8, r0, lsl #24
    2884:	09761b00 	ldmdbeq	r6!, {r8, r9, fp, ip}^
    2888:	18f80000 	ldmne	r8!, {}^	; <UNPREDICTABLE>
    288c:	18ee0000 	stmiane	lr!, {}^	; <UNPREDICTABLE>
    2890:	6c1b0000 	ldcvs	0, cr0, [fp], {-0}
    2894:	44000009 	strmi	r0, [r0], #-9
    2898:	40000019 	andmi	r0, r0, r9, lsl r0
    289c:	1b000019 	blne	2908 <__code_start__-0x56f8>
    28a0:	00000960 	andeq	r0, r0, r0, ror #18
    28a4:	00001972 	andeq	r1, r0, r2, ror r9
    28a8:	00001966 	andeq	r1, r0, r6, ror #18
    28ac:	00031813 	andeq	r1, r3, r3, lsl r8
    28b0:	098c1e00 	stmibeq	ip, {r9, sl, fp, ip}
    28b4:	19cc0000 	stmibne	ip, {}^	; <UNPREDICTABLE>
    28b8:	19c80000 	stmibne	r8, {}^	; <UNPREDICTABLE>
    28bc:	981e0000 	ldmdals	lr, {}	; <UNPREDICTABLE>
    28c0:	f2000009 	vhadd.s8	d0, d0, d9
    28c4:	ee000019 	mcr	0, 0, r0, cr0, cr9, {0}
    28c8:	00000019 	andeq	r0, r0, r9, lsl r0
    28cc:	17000000 	strne	r0, [r0, -r0]
    28d0:	000090ec 	andeq	r9, r0, ip, ror #1
    28d4:	00000aa4 	andeq	r0, r0, r4, lsr #21
    28d8:	000007af 	andeq	r0, r0, pc, lsr #15
    28dc:	01500118 	cmpeq	r0, r8, lsl r1
    28e0:	51011840 	tstpl	r1, r0, asr #16
    28e4:	7dd09103 	ldfvcp	f1, [r0, #12]
    28e8:	02530118 	subseq	r0, r3, #6
    28ec:	02180075 	andseq	r0, r8, #117, 0	; 0x75
    28f0:	3001007d 	andcc	r0, r1, sp, ror r0
    28f4:	91fc1700 	mvnsls	r1, r0, lsl #14
    28f8:	0aa40000 	beq	fe902900 <__bss_end__+0xfe8f7ad8>
    28fc:	07cf0000 	strbeq	r0, [pc, r0]
    2900:	01180000 	tsteq	r8, r0
    2904:	183a0150 	ldmdane	sl!, {r4, r6, r8}
    2908:	91035101 	tstls	r3, r1, lsl #2
    290c:	01187dd0 			; <UNDEFINED> instruction: 0x01187dd0
    2910:	00750253 	rsbseq	r0, r5, r3, asr r2
    2914:	94e01700 	strbtls	r1, [r0], #1792	; 0x700
    2918:	0c460000 	mareq	acc0, r0, r6
    291c:	07e60000 	strbeq	r0, [r6, r0]!
    2920:	01180000 	tsteq	r8, r0
    2924:	6c030550 	cfstr32vs	mvfx0, [r3], {80}	; 0x50
    2928:	000000a7 	andeq	r0, r0, r7, lsr #1
    292c:	0094f021 	addseq	pc, r4, r1, lsr #32
    2930:	0007f800 	andeq	pc, r7, r0, lsl #16
    2934:	50011800 	andpl	r1, r1, r0, lsl #16
    2938:	7dc89104 	stfvcp	f1, [r8, #16]
    293c:	04170006 	ldreq	r0, [r7], #-6
    2940:	46000095 			; <UNDEFINED> instruction: 0x46000095
    2944:	2700000c 	strcs	r0, [r0, -ip]
    2948:	18000008 	stmdane	r0, {r3}
    294c:	03055001 	movweq	r5, #20481	; 0x5001
    2950:	0000a79c 	muleq	r0, ip, r7
    2954:	05510118 	ldrbeq	r0, [r1, #-280]	; 0xfffffee8
    2958:	00a67c03 	adceq	r7, r6, r3, lsl #24
    295c:	52011800 	andpl	r1, r1, #0, 16
    2960:	a7d40305 	ldrbge	r0, [r4, r5, lsl #6]
    2964:	01180000 	tsteq	r8, r0
    2968:	e2080253 	and	r0, r8, #805306373	; 0x30000005
    296c:	95081900 	strls	r1, [r8, #-2304]	; 0xfffff700
    2970:	0c760000 	ldcleq	0, cr0, [r6], #-0
    2974:	1c170000 	ldcne	0, cr0, [r7], {-0}
    2978:	46000095 			; <UNDEFINED> instruction: 0x46000095
    297c:	5f00000c 	svcpl	0x0000000c
    2980:	18000008 	stmdane	r0, {r3}
    2984:	03055001 	movweq	r5, #20481	; 0x5001
    2988:	0000a744 	andeq	sl, r0, r4, asr #14
    298c:	05510118 	ldrbeq	r0, [r1, #-280]	; 0xfffffee8
    2990:	00a67c03 	adceq	r7, r6, r3, lsl #24
    2994:	52011800 	andpl	r1, r1, #0, 16
    2998:	a7d40305 	ldrbge	r0, [r4, r5, lsl #6]
    299c:	01180000 	tsteq	r8, r0
    29a0:	be080253 	mcrlt	2, 0, r0, cr8, cr3, {2}
    29a4:	95201900 	strls	r1, [r0, #-2304]!	; 0xfffff700
    29a8:	0c760000 	ldcleq	0, cr0, [r6], #-0
    29ac:	00000000 	andeq	r0, r0, r0
    29b0:	00b90408 	adcseq	r0, r9, r8, lsl #8
    29b4:	c0220000 	eorgt	r0, r2, r0
    29b8:	80000000 	andhi	r0, r0, r0
    29bc:	23000008 	movwcs	r0, #8
    29c0:	0000002c 	andeq	r0, r0, ip, lsr #32
    29c4:	70090009 	andvc	r0, r9, r9
    29c8:	22000008 	andcs	r0, r0, #8, 0
    29cc:	000000b9 	strheq	r0, [r0], -r9
    29d0:	00000895 	muleq	r0, r5, r8
    29d4:	00002c23 	andeq	r2, r0, r3, lsr #24
    29d8:	24007f00 	strcs	r7, [r0], #-3840	; 0xfffff100
    29dc:	00000670 	andeq	r0, r0, r0, ror r6
    29e0:	6a014901 	bvs	54dec <__bss_end__+0x49fc4>
    29e4:	01000008 	tsteq	r0, r8
    29e8:	0000092a 	andeq	r0, r0, sl, lsr #18
    29ec:	00034525 	andeq	r4, r3, r5, lsr #10
    29f0:	0f490100 	svceq	0x00490100
    29f4:	0000002c 	andeq	r0, r0, ip, lsr #32
    29f8:	74736426 	ldrbtvc	r6, [r3], #-1062	; 0xfffffbda
    29fc:	1b490100 	blne	1242e04 <__bss_end__+0x1237fdc>
    2a00:	0000086a 	andeq	r0, r0, sl, ror #16
    2a04:	01006e26 	tsteq	r0, r6, lsr #28
    2a08:	00332449 	eorseq	r2, r3, r9, asr #8
    2a0c:	76260000 	strtvc	r0, [r6], -r0
    2a10:	01006c61 	tsteq	r0, r1, ror #24
    2a14:	00332b49 	eorseq	r2, r3, r9, asr #22
    2a18:	19250000 	stmdbne	r5!, {}	; <UNPREDICTABLE>
    2a1c:	01000006 	tsteq	r0, r6
    2a20:	00333449 	eorseq	r3, r3, r9, asr #8
    2a24:	a6250000 	strtge	r0, [r5], -r0
    2a28:	01000006 	tsteq	r0, r6
    2a2c:	00333f49 	eorseq	r3, r3, r9, asr #30
    2a30:	62270000 	eorvs	r0, r7, #0, 0
    2a34:	01006675 	tsteq	r0, r5, ror r6
    2a38:	092a074e 	stmdbeq	sl!, {r1, r2, r3, r6, r8, r9, sl}
    2a3c:	70270000 	eorvc	r0, r7, r0
    2a40:	114e0100 	mrsne	r0, (UNDEF: 94)
    2a44:	0000086a 	andeq	r0, r0, sl, ror #16
    2a48:	01007527 	tsteq	r0, r7, lsr #10
    2a4c:	002c0b4f 	eoreq	r0, ip, pc, asr #22
    2a50:	c4120000 	ldrgt	r0, [r2], #-0
    2a54:	4a000000 	bmi	2a5c <__code_start__-0x55a4>
    2a58:	05000009 	streq	r0, [r0, #-9]
    2a5c:	00a7bc03 	adceq	fp, r7, r3, lsl #24
    2a60:	5d292800 	stcpl	8, cr2, [r9, #-0]
    2a64:	01000006 	tsteq	r0, r6
    2a68:	002c0d54 	eoreq	r0, ip, r4, asr sp
    2a6c:	00000000 	andeq	r0, r0, r0
    2a70:	0000b922 	andeq	fp, r0, r2, lsr #18
    2a74:	00093a00 	andeq	r3, r9, r0, lsl #20
    2a78:	002c2300 	eoreq	r2, ip, r0, lsl #6
    2a7c:	003f0000 	eorseq	r0, pc, r0
    2a80:	0000c022 	andeq	ip, r0, r2, lsr #32
    2a84:	00094a00 	andeq	r4, r9, r0, lsl #20
    2a88:	002c2300 	eoreq	r2, ip, r0, lsl #6
    2a8c:	00040000 	andeq	r0, r4, r0
    2a90:	00093a09 	andeq	r3, r9, r9, lsl #20
    2a94:	06752400 	ldrbteq	r2, [r5], -r0, lsl #8
    2a98:	38010000 	stmdacc	r1, {}	; <UNPREDICTABLE>
    2a9c:	00086a0e 	andeq	r6, r8, lr, lsl #20
    2aa0:	09a30100 	stmibeq	r3!, {r8}
    2aa4:	64260000 	strtvs	r0, [r6], #-0
    2aa8:	01007473 	tsteq	r0, r3, ror r4
    2aac:	086a1c38 	stmdaeq	sl!, {r3, r4, r5, sl, fp, ip}^
    2ab0:	6e260000 	cdpvs	0, 2, cr0, cr6, cr0, {0}
    2ab4:	25380100 	ldrcs	r0, [r8, #-256]!	; 0xffffff00
    2ab8:	00000033 	andeq	r0, r0, r3, lsr r0
    2abc:	01007026 	tsteq	r0, r6, lsr #32
    2ac0:	086a2e38 	stmdaeq	sl!, {r3, r4, r5, r9, sl, fp, sp}^
    2ac4:	40250000 	eormi	r0, r5, r0
    2ac8:	0100000a 	tsteq	r0, sl
    2acc:	086a3738 	stmdaeq	sl!, {r3, r4, r5, r8, r9, sl, ip, sp}^
    2ad0:	6c270000 	stcvs	0, cr0, [r7], #-0
    2ad4:	01006e65 	tsteq	r0, r5, ror #28
    2ad8:	0033063a 	eorseq	r0, r3, sl, lsr r6
    2adc:	73270000 			; <UNDEFINED> instruction: 0x73270000
    2ae0:	083e0100 	ldmdaeq	lr!, {r8}
    2ae4:	0000086a 	andeq	r0, r0, sl, ror #16
    2ae8:	61702a00 	cmnvs	r0, r0, lsl #20
    2aec:	2e010064 	cdpcs	0, 0, cr0, cr1, cr4, {3}
    2af0:	00086a0e 	andeq	r6, r8, lr, lsl #20
    2af4:	09e30100 	stmibeq	r3!, {r8}^
    2af8:	70260000 	eorvc	r0, r6, r0
    2afc:	182e0100 	stmdane	lr!, {r8}
    2b00:	0000086a 	andeq	r0, r0, sl, ror #16
    2b04:	00034525 	andeq	r4, r3, r5, lsr #10
    2b08:	222e0100 	eorcs	r0, lr, #0
    2b0c:	0000086a 	andeq	r0, r0, sl, ror #16
    2b10:	00061925 	andeq	r1, r6, r5, lsr #18
    2b14:	2c2e0100 	stfcss	f0, [lr], #-0
    2b18:	00000033 	andeq	r0, r0, r3, lsr r0
    2b1c:	6e656c27 	cdpvs	12, 6, cr6, cr5, cr7, {1}
    2b20:	062f0100 	strteq	r0, [pc], -r0, lsl #2
    2b24:	00000033 	andeq	r0, r0, r3, lsr r0
    2b28:	05e62400 	strbeq	r2, [r6, #1024]!	; 0x400
    2b2c:	27010000 	strcs	r0, [r1, -r0]
    2b30:	0000330c 	andeq	r3, r0, ip, lsl #6
    2b34:	09ff0100 	ldmibeq	pc!, {r8}^	; <UNPREDICTABLE>
    2b38:	63260000 			; <UNDEFINED> instruction: 0x63260000
    2b3c:	18270100 	stmdane	r7!, {r8}
    2b40:	00000033 	andeq	r0, r0, r3, lsr r0
    2b44:	06362b00 	ldrteq	r2, [r6], -r0, lsl #22
    2b48:	1f010000 	svcne	0x00010000
    2b4c:	008f3806 	addeq	r3, pc, r6, lsl #16
    2b50:	00006000 	andeq	r6, r0, r0
    2b54:	8f9c0100 	svchi	0x009c0100
    2b58:	0f00000a 	svceq	0x0000000a
    2b5c:	0000061f 	andeq	r0, r0, pc, lsl r6
    2b60:	9e1b1f01 	cdpls	15, 1, cr1, cr11, cr1, {0}
    2b64:	17000000 	strne	r0, [r0, -r0]
    2b68:	1300001a 	movwne	r0, #26
    2b6c:	0f00001a 	svceq	0x0000001a
    2b70:	00000684 	andeq	r0, r0, r4, lsl #13
    2b74:	d1301f01 	teqle	r0, r1, lsl #30
    2b78:	3c000000 	stccc	0, cr0, [r0], {-0}
    2b7c:	3800001a 	stmdacc	r0, {r1, r3, r4}
    2b80:	1200001a 	andne	r0, r0, #26, 0
    2b84:	000000c4 	andeq	r0, r0, r4, asr #1
    2b88:	00000a9f 	muleq	r0, pc, sl	; <UNPREDICTABLE>
    2b8c:	a7c40305 	strbge	r0, [r4, r5, lsl #6]
    2b90:	7c170000 	ldcvc	0, cr0, [r7], {-0}
    2b94:	4600008f 	strmi	r0, [r0], -pc, lsl #1
    2b98:	8500000c 	strhi	r0, [r0, #-12]
    2b9c:	1800000a 	stmdane	r0, {r1, r3}
    2ba0:	03055001 	movweq	r5, #20481	; 0x5001
    2ba4:	0000a268 	andeq	sl, r0, r8, ror #4
    2ba8:	05510118 	ldrbeq	r0, [r1, #-280]	; 0xfffffee8
    2bac:	00a67c03 	adceq	r7, r6, r3, lsl #24
    2bb0:	52011800 	andpl	r1, r1, #0, 16
    2bb4:	a7c40305 	strbge	r0, [r4, r5, lsl #6]
    2bb8:	01180000 	tsteq	r8, r0
    2bbc:	20080253 	andcs	r0, r8, r3, asr r2
    2bc0:	007d0218 	rsbseq	r0, sp, r8, lsl r2
    2bc4:	a6b40305 	ldrtge	r0, [r4], r5, lsl #6
    2bc8:	19000000 	stmdbne	r0, {}	; <UNPREDICTABLE>
    2bcc:	00008f80 	andeq	r8, r0, r0, lsl #31
    2bd0:	00000c76 	andeq	r0, r0, r6, ror ip
    2bd4:	00c02200 	sbceq	r2, r0, r0, lsl #4
    2bd8:	0a9f0000 	beq	fe7c2be0 <__bss_end__+0xfe7b7db8>
    2bdc:	2c230000 	stccs	0, cr0, [r3], #-0
    2be0:	0e000000 	cdpeq	0, 0, cr0, cr0, cr0, {0}
    2be4:	0a8f0900 	beq	fe3c4fec <__bss_end__+0xfe3ba1c4>
    2be8:	952c0000 	strls	r0, [ip, #-0]!
    2bec:	10000008 	andne	r0, r0, r8
    2bf0:	2800008c 	stmdacs	r0, {r2, r3, r7}
    2bf4:	01000003 	tsteq	r0, r3
    2bf8:	000c3a9c 	muleq	ip, ip, sl
    2bfc:	08a61b00 	stmiaeq	r6!, {r8, r9, fp, ip}
    2c00:	1a750000 	bne	1d42c08 <__bss_end__+0x1d37de0>
    2c04:	1a5d0000 	bne	1742c0c <__bss_end__+0x1737de4>
    2c08:	b21b0000 	andslt	r0, fp, #0, 0
    2c0c:	1f000008 	svcne	0x00000008
    2c10:	1700001b 	smladne	r0, fp, r0, r0
    2c14:	1b00001b 	blne	2c88 <__code_start__-0x5378>
    2c18:	000008c8 	andeq	r0, r0, r8, asr #17
    2c1c:	00001b76 	andeq	r1, r0, r6, ror fp
    2c20:	00001b56 	andeq	r1, r0, r6, asr fp
    2c24:	0008d41b 	andeq	sp, r8, fp, lsl r4
    2c28:	001c4c00 	andseq	r4, ip, r0, lsl #24
    2c2c:	001c3e00 	andseq	r3, ip, r0, lsl #28
    2c30:	08e02d00 	stmiaeq	r0!, {r8, sl, fp, sp}^
    2c34:	91020000 	mrsls	r0, (UNDEF: 2)
    2c38:	08ec1d00 	stmiaeq	ip!, {r8, sl, fp, ip}^
    2c3c:	91030000 	mrsls	r0, (UNDEF: 3)
    2c40:	f81e7fa8 			; <UNDEFINED> instruction: 0xf81e7fa8
    2c44:	e0000008 	and	r0, r0, r8
    2c48:	ac00001c 	stcge	0, cr0, [r0], {28}
    2c4c:	1e00001c 	mcrne	0, 0, r0, cr0, cr12, {0}
    2c50:	00000902 	andeq	r0, r0, r2, lsl #18
    2c54:	00001e47 	andeq	r1, r0, r7, asr #28
    2c58:	00001e25 	andeq	r1, r0, r5, lsr #28
    2c5c:	0008be2e 	andeq	fp, r8, lr, lsr #28
    2c60:	a31a8000 	tstge	sl, #0, 0
    2c64:	b4000009 	strlt	r0, [r0], #-9
    2c68:	0400008c 	streq	r0, [r0], #-140	; 0xffffff74
    2c6c:	00016800 	andeq	r6, r1, r0, lsl #16
    2c70:	097c0100 	ldmdbeq	ip!, {r8}^
    2c74:	00000b6d 	andeq	r0, r0, sp, ror #22
    2c78:	0009ca1b 	andeq	ip, r9, fp, lsl sl
    2c7c:	001f2f00 	andseq	r2, pc, r0, lsl #30
    2c80:	001f2500 	andseq	r2, pc, r0, lsl #10
    2c84:	09be1b00 	ldmibeq	lr!, {r8, r9, fp, ip}
    2c88:	1f830000 	svcne	0x00830000
    2c8c:	1f730000 	svcne	0x00730000
    2c90:	b41b0000 	ldrlt	r0, [fp], #-0
    2c94:	03000009 	movweq	r0, #9
    2c98:	ef000020 	svc	0x00000020
    2c9c:	1300001f 	movwne	r0, #31
    2ca0:	00000168 	andeq	r0, r0, r8, ror #2
    2ca4:	0009d61e 	andeq	sp, r9, lr, lsl r6
    2ca8:	00209500 	eoreq	r9, r0, r0, lsl #10
    2cac:	00208500 	eoreq	r8, r0, r0, lsl #10
    2cb0:	1a000000 	bne	2cb8 <__code_start__-0x5348>
    2cb4:	0000094f 	andeq	r0, r0, pc, asr #18
    2cb8:	00008d6c 	andeq	r8, r0, ip, ror #26
    2cbc:	01b00002 	movseq	r0, r2
    2cc0:	7c010000 	stcvc	0, cr0, [r1], {-0}
    2cc4:	000bd809 	andeq	sp, fp, r9, lsl #16
    2cc8:	09801b00 	stmibeq	r0, {r8, r9, fp, ip}
    2ccc:	21010000 	mrscs	r0, (UNDEF: 1)
    2cd0:	20f90000 	rscscs	r0, r9, r0
    2cd4:	761b0000 	ldrvc	r0, [fp], -r0
    2cd8:	40000009 	andmi	r0, r0, r9
    2cdc:	38000021 	stmdacc	r0, {r0, r5}
    2ce0:	1b000021 	blne	2d6c <__code_start__-0x5294>
    2ce4:	0000096c 	andeq	r0, r0, ip, ror #18
    2ce8:	0000217f 	andeq	r2, r0, pc, ror r1
    2cec:	0000217b 	andeq	r2, r0, fp, ror r1
    2cf0:	0009601b 	andeq	r6, r9, fp, lsl r0
    2cf4:	0021af00 	eoreq	sl, r1, r0, lsl #30
    2cf8:	0021a100 	eoreq	sl, r1, r0, lsl #2
    2cfc:	01b01300 	lslseq	r1, r0, #6
    2d00:	8c1e0000 	ldchi	0, cr0, [lr], {-0}
    2d04:	14000009 	strne	r0, [r0], #-9
    2d08:	0e000022 	cdpeq	0, 0, cr0, cr0, cr2, {1}
    2d0c:	1e000022 	cdpne	0, 0, cr0, cr0, cr2, {1}
    2d10:	00000998 	muleq	r0, r8, r9
    2d14:	00002246 	andeq	r2, r0, r6, asr #4
    2d18:	00002242 	andeq	r2, r0, r2, asr #4
    2d1c:	1b2f0000 	blne	bc2d24 <__bss_end__+0xbb7efc>
    2d20:	24000009 	strcs	r0, [r0], #-9
    2d24:	6000008e 	andvs	r0, r0, lr, lsl #1
    2d28:	f7000000 			; <UNDEFINED> instruction: 0xf7000000
    2d2c:	1e00000b 	cdpne	0, 0, cr0, cr0, cr11, {0}
    2d30:	0000091c 	andeq	r0, r0, ip, lsl r9
    2d34:	00002268 	andeq	r2, r0, r8, ror #4
    2d38:	00002264 	andeq	r2, r0, r4, ror #4
    2d3c:	8ef81700 	cdphi	7, 15, cr1, cr8, cr0, {0}
    2d40:	0c460000 	mareq	acc0, r0, r6
    2d44:	0c300000 	ldceq	0, cr0, [r0], #-0
    2d48:	01180000 	tsteq	r8, r0
    2d4c:	68030550 	stmdavs	r3, {r4, r6, r8, sl}
    2d50:	180000a2 	stmdane	r0, {r1, r5, r7}
    2d54:	03055101 	movweq	r5, #20737	; 0x5101
    2d58:	0000a67c 	andeq	sl, r0, ip, ror r6
    2d5c:	05520118 	ldrbeq	r0, [r2, #-280]	; 0xfffffee8
    2d60:	00a7bc03 	adceq	fp, r7, r3, lsl #24
    2d64:	53011800 	movwpl	r1, #6144	; 0x1800
    2d68:	18790802 	ldmdane	r9!, {r1, fp}^
    2d6c:	05007d02 	streq	r7, [r0, #-3330]	; 0xfffff2fe
    2d70:	00a4ec03 	adceq	lr, r4, r3, lsl #24
    2d74:	fc190000 	ldc2	0, cr0, [r9], {-0}
    2d78:	7600008e 	strvc	r0, [r0], -lr, lsl #1
    2d7c:	0000000c 	andeq	r0, r0, ip
    2d80:	00069e30 	andeq	r9, r6, r0, lsr lr
    2d84:	00069e00 	andeq	r9, r6, r0, lsl #28
    2d88:	05eb0300 	strbeq	r0, [fp, #768]!	; 0x300
    2d8c:	00059530 	andeq	r9, r5, r0, lsr r5
    2d90:	00059500 	andeq	r9, r5, r0, lsl #10
    2d94:	06280300 	strteq	r0, [r8], -r0, lsl #6
    2d98:	00064f30 	andeq	r4, r6, r0, lsr pc
    2d9c:	00064f00 	andeq	r4, r6, r0, lsl #30
    2da0:	07ee0300 	strbeq	r0, [lr, r0, lsl #6]!
    2da4:	00067d30 	andeq	r7, r6, r0, lsr sp
    2da8:	00067d00 	andeq	r7, r6, r0, lsl #26
    2dac:	05ea0300 	strbeq	r0, [sl, #768]!	; 0x300
    2db0:	00065630 	andeq	r5, r6, r0, lsr r6
    2db4:	00065600 	andeq	r5, r6, r0, lsl #12
    2db8:	07ed0300 	strbeq	r0, [sp, r0, lsl #6]!
    2dbc:	00008330 	andeq	r8, r0, r0, lsr r3
    2dc0:	00008300 	andeq	r8, r0, r0, lsl #6
    2dc4:	066e0300 	strbteq	r0, [lr], -r0, lsl #6
    2dc8:	00012f00 	andeq	r2, r1, r0, lsl #30
    2dcc:	d8000400 	stmdale	r0, {sl}
    2dd0:	0400000f 	streq	r0, [r0], #-15
    2dd4:	0004b301 	andeq	fp, r4, r1, lsl #6
    2dd8:	06c30c00 	strbeq	r0, [r3], r0, lsl #24
    2ddc:	056b0000 	strbeq	r0, [fp, #-0]!
    2de0:	95c40000 	strbls	r0, [r4]
    2de4:	002c0000 	eoreq	r0, ip, r0
    2de8:	17c10000 	strbne	r0, [r1, r0]
    2dec:	04020000 	streq	r0, [r2], #-0
    2df0:	746e6905 	strbtvc	r6, [lr], #-2309	; 0xfffff6fb
    2df4:	07040300 	streq	r0, [r4, -r0, lsl #6]
    2df8:	000000ea 	andeq	r0, r0, sl, ror #1
    2dfc:	77060103 	strvc	r0, [r6, -r3, lsl #2]
    2e00:	03000000 	movweq	r0, #0
    2e04:	01fd0502 	mvnseq	r0, r2, lsl #10
    2e08:	04030000 	streq	r0, [r3], #-0
    2e0c:	00010e05 	andeq	r0, r1, r5, lsl #28
    2e10:	05080300 	streq	r0, [r8, #-768]	; 0xfffffd00
    2e14:	00000109 	andeq	r0, r0, r9, lsl #2
    2e18:	75080103 	strvc	r0, [r8, #-259]	; 0xfffffefd
    2e1c:	03000000 	movweq	r0, #0
    2e20:	00900702 	addseq	r0, r0, r2, lsl #14
    2e24:	04030000 	streq	r0, [r3], #-0
    2e28:	0000e507 	andeq	lr, r0, r7, lsl #10
    2e2c:	07080300 	streq	r0, [r8, -r0, lsl #6]
    2e30:	000000e0 	andeq	r0, r0, r0, ror #1
    2e34:	00002504 	andeq	r2, r0, r4, lsl #10
    2e38:	00007a00 	andeq	r7, r0, r0, lsl #20
    2e3c:	00250500 	eoreq	r0, r5, r0, lsl #10
    2e40:	06000000 	streq	r0, [r0], -r0
    2e44:	00000223 	andeq	r0, r0, r3, lsr #4
    2e48:	860e1c02 	strhi	r1, [lr], -r2, lsl #24
    2e4c:	07000000 	streq	r0, [r0, -r0]
    2e50:	00006b04 	andeq	r6, r0, r4, lsl #22
    2e54:	00250400 	eoreq	r0, r5, r0, lsl #8
    2e58:	009b0000 	addseq	r0, fp, r0
    2e5c:	9b050000 	blls	142e64 <__bss_end__+0x13803c>
    2e60:	00000000 	andeq	r0, r0, r0
    2e64:	00a80407 	adceq	r0, r8, r7, lsl #8
    2e68:	01030000 	mrseq	r0, (UNDEF: 3)
    2e6c:	00007e08 	andeq	r7, r0, r8, lsl #28
    2e70:	00a10800 	adceq	r0, r1, r0, lsl #16
    2e74:	d3060000 	movwle	r0, #24576	; 0x6000
    2e78:	02000005 	andeq	r0, r0, #5, 0
    2e7c:	00b90e21 	adcseq	r0, r9, r1, lsr #28
    2e80:	04070000 	streq	r0, [r7], #-0
    2e84:	0000008c 	andeq	r0, r0, ip, lsl #1
    2e88:	00008309 	andeq	r8, r0, r9, lsl #6
    2e8c:	06040100 	streq	r0, [r4], -r0, lsl #2
    2e90:	000095c4 	andeq	r9, r0, r4, asr #11
    2e94:	0000002c 	andeq	r0, r0, ip, lsr #32
    2e98:	010e9c01 	tsteq	lr, r1, lsl #24
    2e9c:	d80a0000 	stmdale	sl, {}	; <UNPREDICTABLE>
    2ea0:	e8000095 	stmda	r0, {r0, r2, r4, r7}
    2ea4:	0b000000 	bleq	2eac <__code_start__-0x5154>
    2ea8:	03055001 	movweq	r5, #20481	; 0x5001
    2eac:	0000a7e0 	andeq	sl, r0, r0, ror #15
    2eb0:	95dc0c00 	ldrbls	r0, [ip, #3072]	; 0xc00
    2eb4:	010e0000 	mrseq	r0, (UNDEF: 14)
    2eb8:	e40d0000 	str	r0, [sp], #-0
    2ebc:	1a000095 	bne	3118 <__code_start__-0x4ee8>
    2ec0:	04000001 	streq	r0, [r0], #-1
    2ec4:	0b000001 	bleq	2ed0 <__code_start__-0x5130>
    2ec8:	3a015001 	bcc	56ed4 <__bss_end__+0x4c0ac>
    2ecc:	95e80c00 	strbls	r0, [r8, #3072]!	; 0xc00
    2ed0:	01260000 			; <UNDEFINED> instruction: 0x01260000
    2ed4:	0e000000 	cdpeq	0, 0, cr0, cr0, cr0, {0}
    2ed8:	000006de 	ldrdeq	r0, [r0], -lr
    2edc:	000006de 	ldrdeq	r0, [r0], -lr
    2ee0:	0e064d02 	cdpeq	13, 0, cr4, cr6, cr2, {0}
    2ee4:	000006ba 			; <UNDEFINED> instruction: 0x000006ba
    2ee8:	000006ba 			; <UNDEFINED> instruction: 0x000006ba
    2eec:	0e065802 	cdpeq	8, 0, cr5, cr6, cr2, {0}
    2ef0:	000006af 	andeq	r0, r0, pc, lsr #13
    2ef4:	000006af 	andeq	r0, r0, pc, lsr #13
    2ef8:	00066b02 	andeq	r6, r6, r2, lsl #22
    2efc:	00000190 	muleq	r0, r0, r1
    2f00:	10980004 	addsne	r0, r8, r4
    2f04:	01040000 	mrseq	r0, (UNDEF: 4)
    2f08:	000004b3 			; <UNDEFINED> instruction: 0x000004b3
    2f0c:	0007140c 	andeq	r1, r7, ip, lsl #8
    2f10:	00056b00 	andeq	r6, r5, r0, lsl #22
    2f14:	0095f000 	addseq	pc, r5, r0
    2f18:	0000f800 	andeq	pc, r0, r0, lsl #16
    2f1c:	00184c00 	andseq	r4, r8, r0, lsl #24
    2f20:	05040200 	streq	r0, [r4, #-512]	; 0xfffffe00
    2f24:	00746e69 	rsbseq	r6, r4, r9, ror #28
    2f28:	ea070403 	b	1c3f3c <__bss_end__+0x1b9114>
    2f2c:	03000000 	movweq	r0, #0
    2f30:	00770601 	rsbseq	r0, r7, r1, lsl #12
    2f34:	02030000 	andeq	r0, r3, #0, 0
    2f38:	0001fd05 	andeq	pc, r1, r5, lsl #26
    2f3c:	05040300 	streq	r0, [r4, #-768]	; 0xfffffd00
    2f40:	0000010e 	andeq	r0, r0, lr, lsl #2
    2f44:	09050803 	stmdbeq	r5, {r0, r1, fp}
    2f48:	03000001 	movweq	r0, #1
    2f4c:	00750801 	rsbseq	r0, r5, r1, lsl #16
    2f50:	02030000 	andeq	r0, r3, #0, 0
    2f54:	00009007 	andeq	r9, r0, r7
    2f58:	07040300 	streq	r0, [r4, -r0, lsl #6]
    2f5c:	000000e5 	andeq	r0, r0, r5, ror #1
    2f60:	e0070803 	and	r0, r7, r3, lsl #16
    2f64:	04000000 	streq	r0, [r0], #-0
    2f68:	00000025 	andeq	r0, r0, r5, lsr #32
    2f6c:	0000007a 	andeq	r0, r0, sl, ror r0
    2f70:	00002505 	andeq	r2, r0, r5, lsl #10
    2f74:	23060000 	movwcs	r0, #24576	; 0x6000
    2f78:	02000002 	andeq	r0, r0, #2, 0
    2f7c:	00860e1c 	addeq	r0, r6, ip, lsl lr
    2f80:	04070000 	streq	r0, [r7], #-0
    2f84:	0000006b 	andeq	r0, r0, fp, rrx
    2f88:	00002504 	andeq	r2, r0, r4, lsl #10
    2f8c:	00009b00 	andeq	r9, r0, r0, lsl #22
    2f90:	009b0500 	addseq	r0, fp, r0, lsl #10
    2f94:	07000000 	streq	r0, [r0, -r0]
    2f98:	0000a804 	andeq	sl, r0, r4, lsl #16
    2f9c:	08010300 	stmdaeq	r1, {r8, r9}
    2fa0:	0000007e 	andeq	r0, r0, lr, ror r0
    2fa4:	0000a108 	andeq	sl, r0, r8, lsl #2
    2fa8:	05d30600 	ldrbeq	r0, [r3, #1536]	; 0x600
    2fac:	21020000 	mrscs	r0, (UNDEF: 2)
    2fb0:	0000b90e 	andeq	fp, r0, lr, lsl #18
    2fb4:	8c040700 	stchi	7, cr0, [r4], {-0}
    2fb8:	09000000 	stmdbeq	r0, {}	; <UNPREDICTABLE>
    2fbc:	000006ec 	andeq	r0, r0, ip, ror #13
    2fc0:	f0060401 			; <UNDEFINED> instruction: 0xf0060401
    2fc4:	f8000095 			; <UNDEFINED> instruction: 0xf8000095
    2fc8:	01000000 	mrseq	r0, (UNDEF: 0)
    2fcc:	00015b9c 	muleq	r1, ip, fp
    2fd0:	03860600 	orreq	r0, r6, #0, 12
    2fd4:	05010000 	streq	r0, [r1, #-0]
    2fd8:	00002510 	andeq	r2, r0, r0, lsl r5
    2fdc:	04380600 	ldrteq	r0, [r8], #-1536	; 0xfffffa00
    2fe0:	05010000 	streq	r0, [r1, #-0]
    2fe4:	0000251f 	andeq	r2, r0, pc, lsl r5
    2fe8:	005b0a00 	subseq	r0, fp, r0, lsl #20
    2fec:	06010000 	streq	r0, [r1], -r0
    2ff0:	73620b07 	cmnvc	r2, #7168	; 0x1c00
    2ff4:	0a010073 	beq	431c8 <__bss_end__+0x383a0>
    2ff8:	00015b0a 	andeq	r5, r1, sl, lsl #22
    2ffc:	0022a000 	eoreq	sl, r2, r0
    3000:	00228800 	eoreq	r8, r2, r0, lsl #16
    3004:	06f40c00 	ldrbteq	r0, [r4], r0, lsl #24
    3008:	0b010000 	bleq	43010 <__bss_end__+0x381e8>
    300c:	00015b0a 	andeq	r5, r1, sl, lsl #22
    3010:	96c80d00 	strbls	r0, [r8], r0, lsl #26
    3014:	00080000 	andeq	r0, r8, r0
    3018:	01360000 	teqeq	r6, r0
    301c:	690b0000 	stmdbvs	fp, {}	; <UNPREDICTABLE>
    3020:	1401006e 	strne	r0, [r1], #-110	; 0xffffff92
    3024:	00002c05 	andeq	r2, r0, r5, lsl #24
    3028:	00233a00 	eoreq	r3, r3, r0, lsl #20
    302c:	00233800 	eoreq	r3, r3, r0, lsl #16
    3030:	f80e0000 			; <UNDEFINED> instruction: 0xf80e0000
    3034:	61000095 	swpvs	r0, r5, [r0]	; <UNPREDICTABLE>
    3038:	0e000001 	cdpeq	0, 0, cr0, cr0, cr1, {0}
    303c:	000096c8 	andeq	r9, r0, r8, asr #13
    3040:	0000016e 	andeq	r0, r0, lr, ror #2
    3044:	0096d40e 	addseq	sp, r6, lr, lsl #8
    3048:	00017a00 	andeq	r7, r1, r0, lsl #20
    304c:	96d80e00 	ldrbls	r0, [r8], r0, lsl #28
    3050:	01870000 	orreq	r0, r7, r0
    3054:	07000000 	streq	r0, [r0, -r0]
    3058:	00002504 	andeq	r2, r0, r4, lsl #10
    305c:	07060f00 	streq	r0, [r6, -r0, lsl #30]
    3060:	07060000 	streq	r0, [r6, -r0]
    3064:	31020000 	mrscc	r0, (UNDEF: 2)
    3068:	fc100601 	ldc2	6, cr0, [r0], {1}
    306c:	fc000006 	stc2	0, cr0, [r0], {6}
    3070:	02000006 	andeq	r0, r0, #6, 0
    3074:	5b0f063b 	blpl	3c4968 <__bss_end__+0x3b9b40>
    3078:	5b000000 	blpl	3080 <__code_start__-0x4f80>
    307c:	02000000 	andeq	r0, r0, #0, 0
    3080:	10060105 	andne	r0, r6, r5, lsl #2
    3084:	00000083 	andeq	r0, r0, r3, lsl #1
    3088:	00000083 	andeq	r0, r0, r3, lsl #1
    308c:	00066e02 	andeq	r6, r6, r2, lsl #28
    3090:	000000ce 	andeq	r0, r0, lr, asr #1
    3094:	11830004 	orrne	r0, r3, r4
    3098:	01040000 	mrseq	r0, (UNDEF: 4)
    309c:	000004b3 			; <UNDEFINED> instruction: 0x000004b3
    30a0:	0007290c 	andeq	r2, r7, ip, lsl #18
    30a4:	00056b00 	andeq	r6, r5, r0, lsl #22
    30a8:	0096e800 	addseq	lr, r6, r0, lsl #16
    30ac:	00000400 	andeq	r0, r0, r0, lsl #8
    30b0:	00196200 	andseq	r6, r9, r0, lsl #4
    30b4:	05040200 	streq	r0, [r4, #-512]	; 0xfffffe00
    30b8:	00746e69 	rsbseq	r6, r4, r9, ror #28
    30bc:	ea070403 	b	1c40d0 <__bss_end__+0x1b92a8>
    30c0:	03000000 	movweq	r0, #0
    30c4:	00770601 	rsbseq	r0, r7, r1, lsl #12
    30c8:	02030000 	andeq	r0, r3, #0, 0
    30cc:	0001fd05 	andeq	pc, r1, r5, lsl #26
    30d0:	05040300 	streq	r0, [r4, #-768]	; 0xfffffd00
    30d4:	0000010e 	andeq	r0, r0, lr, lsl #2
    30d8:	09050803 	stmdbeq	r5, {r0, r1, fp}
    30dc:	03000001 	movweq	r0, #1
    30e0:	00750801 	rsbseq	r0, r5, r1, lsl #16
    30e4:	02030000 	andeq	r0, r3, #0, 0
    30e8:	00009007 	andeq	r9, r0, r7
    30ec:	07040300 	streq	r0, [r4, -r0, lsl #6]
    30f0:	000000e5 	andeq	r0, r0, r5, ror #1
    30f4:	e0070803 	and	r0, r7, r3, lsl #16
    30f8:	04000000 	streq	r0, [r0], #-0
    30fc:	00000025 	andeq	r0, r0, r5, lsr #32
    3100:	0000007a 	andeq	r0, r0, sl, ror r0
    3104:	00002505 	andeq	r2, r0, r5, lsl #10
    3108:	23060000 	movwcs	r0, #24576	; 0x6000
    310c:	02000002 	andeq	r0, r0, #2, 0
    3110:	00860e1c 	addeq	r0, r6, ip, lsl lr
    3114:	04070000 	streq	r0, [r7], #-0
    3118:	0000006b 	andeq	r0, r0, fp, rrx
    311c:	00002504 	andeq	r2, r0, r4, lsl #10
    3120:	00009b00 	andeq	r9, r0, r0, lsl #22
    3124:	009b0500 	addseq	r0, fp, r0, lsl #10
    3128:	07000000 	streq	r0, [r0, -r0]
    312c:	0000a804 	andeq	sl, r0, r4, lsl #16
    3130:	08010300 	stmdaeq	r1, {r8, r9}
    3134:	0000007e 	andeq	r0, r0, lr, ror r0
    3138:	0000a108 	andeq	sl, r0, r8, lsl #2
    313c:	05d30600 	ldrbeq	r0, [r3, #1536]	; 0x600
    3140:	21020000 	mrscs	r0, (UNDEF: 2)
    3144:	0000b90e 	andeq	fp, r0, lr, lsl #18
    3148:	8c040700 	stchi	7, cr0, [r4], {-0}
    314c:	09000000 	stmdbeq	r0, {}	; <UNPREDICTABLE>
    3150:	00000706 	andeq	r0, r0, r6, lsl #14
    3154:	e8060401 	stmda	r6, {r0, sl}
    3158:	04000096 	streq	r0, [r0], #-150	; 0xffffff6a
    315c:	01000000 	mrseq	r0, (UNDEF: 0)
    3160:	027d009c 	rsbseq	r0, sp, #156, 0	; 0x9c
    3164:	00040000 	andeq	r0, r4, r0
    3168:	000011fc 	strdeq	r1, [r0], -ip
    316c:	04b30104 	ldrteq	r0, [r3], #260	; 0x104
    3170:	710c0000 	mrsvc	r0, (UNDEF: 12)
    3174:	6b000007 	blvs	3198 <__code_start__-0x4e68>
    3178:	58000005 	stmdapl	r0, {r0, r2}
    317c:	00000003 	andeq	r0, r0, r3
    3180:	e3000000 	movw	r0, #0
    3184:	02000019 	andeq	r0, r0, #25, 0
    3188:	6e690504 	cdpvs	5, 6, cr0, cr9, cr4, {0}
    318c:	25030074 	strcs	r0, [r3, #-116]	; 0xffffff8c
    3190:	04000000 	streq	r0, [r0], #-0
    3194:	00ea0704 	rsceq	r0, sl, r4, lsl #14
    3198:	01040000 	mrseq	r0, (UNDEF: 4)
    319c:	00007706 	andeq	r7, r0, r6, lsl #14
    31a0:	05020400 	streq	r0, [r2, #-1024]	; 0xfffffc00
    31a4:	000001fd 	strdeq	r0, [r0], -sp
    31a8:	0e050404 	cdpeq	4, 0, cr0, cr5, cr4, {0}
    31ac:	04000001 	streq	r0, [r0], #-1
    31b0:	01090508 	tsteq	r9, r8, lsl #10
    31b4:	01040000 	mrseq	r0, (UNDEF: 4)
    31b8:	00007508 	andeq	r7, r0, r8, lsl #10
    31bc:	07020400 	streq	r0, [r2, -r0, lsl #8]
    31c0:	00000090 	muleq	r0, r0, r0
    31c4:	e5070404 	str	r0, [r7, #-1028]	; 0xfffffbfc
    31c8:	04000000 	streq	r0, [r0], #-0
    31cc:	00e00708 	rsceq	r0, r0, r8, lsl #14
    31d0:	25050000 	strcs	r0, [r5, #-0]
    31d4:	7f000000 	svcvc	0x00000000
    31d8:	06000000 	streq	r0, [r0], -r0
    31dc:	00000025 	andeq	r0, r0, r5, lsr #32
    31e0:	02230700 	eoreq	r0, r3, #0, 14
    31e4:	1c020000 	stcne	0, cr0, [r2], {-0}
    31e8:	00008b0e 	andeq	r8, r0, lr, lsl #22
    31ec:	70040800 	andvc	r0, r4, r0, lsl #16
    31f0:	05000000 	streq	r0, [r0, #-0]
    31f4:	00000025 	andeq	r0, r0, r5, lsr #32
    31f8:	000000a0 	andeq	r0, r0, r0, lsr #1
    31fc:	0000a006 	andeq	sl, r0, r6
    3200:	04080000 	streq	r0, [r8], #-0
    3204:	000000ad 	andeq	r0, r0, sp, lsr #1
    3208:	7e080104 	adfvce	f0, f0, f4
    320c:	03000000 	movweq	r0, #0
    3210:	000000a6 	andeq	r0, r0, r6, lsr #1
    3214:	0005d307 	andeq	sp, r5, r7, lsl #6
    3218:	0e210200 	cdpeq	2, 2, cr0, cr1, cr0, {0}
    321c:	000000be 	strheq	r0, [r0], -lr
    3220:	00910408 	addseq	r0, r1, r8, lsl #8
    3224:	95090000 	strls	r0, [r9, #-0]
    3228:	01000007 	tsteq	r0, r7
    322c:	0031110d 	eorseq	r1, r1, sp, lsl #2
    3230:	af0a0000 	svcge	0x000a0000
    3234:	01000006 	tsteq	r0, r6
    3238:	9718061f 			; <UNDEFINED> instruction: 0x9718061f
    323c:	00600000 	rsbeq	r0, r0, r0
    3240:	9c010000 	stcls	0, cr0, [r1], {-0}
    3244:	000001d5 	ldrdeq	r0, [r0], -r5
    3248:	0007b90b 	andeq	fp, r7, fp, lsl #18
    324c:	0f2c0100 	svceq	0x002c0100
    3250:	0000002c 	andeq	r0, r0, ip, lsr #32
    3254:	2010001c 	andscs	r0, r0, ip, lsl r0
    3258:	0007540b 	andeq	r5, r7, fp, lsl #8
    325c:	0f2d0100 	svceq	0x002d0100
    3260:	0000002c 	andeq	r0, r0, ip, lsr #32
    3264:	20100024 	andscs	r0, r0, r4, lsr #32
    3268:	0007860b 	andeq	r8, r7, fp, lsl #12
    326c:	0f2e0100 	svceq	0x002e0100
    3270:	0000002c 	andeq	r0, r0, ip, lsr #32
    3274:	5a000000 	bpl	327c <__code_start__-0x4d84>
    3278:	0007a00c 	andeq	sl, r7, ip
    327c:	0f2f0100 	svceq	0x002f0100
    3280:	0000002c 	andeq	r0, r0, ip, lsr #32
    3284:	01ef0d20 	mvneq	r0, r0, lsr #26
    3288:	97180000 	ldrls	r0, [r8, -r0]
    328c:	40020000 	andmi	r0, r2, r0
    3290:	01000003 	tsteq	r0, r3
    3294:	014c0820 	cmpeq	ip, r0, lsr #16
    3298:	400e0000 	andmi	r0, lr, r0
    329c:	0f000003 	svceq	0x00000003
    32a0:	00000200 	andeq	r0, r0, r0, lsl #4
    32a4:	00002352 	andeq	r2, r0, r2, asr r3
    32a8:	0000234e 	andeq	r2, r0, lr, asr #6
    32ac:	d5100000 	ldrle	r0, [r0, #-0]
    32b0:	2c000001 	stccs	0, cr0, [r0], {1}
    32b4:	01000097 	swpeq	r0, r7, [r0]	; <UNPREDICTABLE>
    32b8:	0000972c 	andeq	r9, r0, ip, lsr #14
    32bc:	00000010 	andeq	r0, r0, r0, lsl r0
    32c0:	73092101 	movwvc	r2, #37121	; 0x9101
    32c4:	0f000001 	svceq	0x00000001
    32c8:	000001e2 	andeq	r0, r0, r2, ror #3
    32cc:	00002379 	andeq	r2, r0, r9, ror r3
    32d0:	00002371 	andeq	r2, r0, r1, ror r3
    32d4:	97401100 	strbls	r1, [r0, -r0, lsl #2]
    32d8:	024f0000 	subeq	r0, pc, #0, 0
    32dc:	44110000 	ldrmi	r0, [r1], #-0
    32e0:	5c000097 	stcpl	0, cr0, [r0], {151}	; 0x97
    32e4:	12000002 	andne	r0, r0, #2, 0
    32e8:	0000974c 	andeq	r9, r0, ip, asr #14
    32ec:	00000268 	andeq	r0, r0, r8, ror #4
    32f0:	00000198 	muleq	r0, r8, r1
    32f4:	01500113 	cmpeq	r0, r3, lsl r1
    32f8:	5812003a 	ldmdapl	r2, {r1, r3, r4, r5}
    32fc:	74000097 	strvc	r0, [r0], #-151	; 0xffffff69
    3300:	b8000002 	stmdalt	r0, {r1}
    3304:	13000001 	movwne	r0, #1
    3308:	0c055001 	stceq	0, cr5, [r5], {1}
    330c:	20100024 	andscs	r0, r0, r4, lsr #32
    3310:	05510113 	ldrbeq	r0, [r1, #-275]	; 0xfffffeed
    3314:	0000010c 	andeq	r0, r0, ip, lsl #2
    3318:	6414005a 	ldrvs	r0, [r4], #-90	; 0xffffffa6
    331c:	74000097 	strvc	r0, [r0], #-151	; 0xffffff69
    3320:	13000002 	movwne	r0, #2
    3324:	0c055001 	stceq	0, cr5, [r5], {1}
    3328:	2010001c 	andscs	r0, r0, ip, lsl r0
    332c:	05510113 	ldrbeq	r0, [r1, #-275]	; 0xfffffeed
    3330:	0000200c 	andeq	r2, r0, ip
    3334:	1500005a 	strne	r0, [r0, #-90]	; 0xffffffa6
    3338:	00000762 	andeq	r0, r0, r2, ror #14
    333c:	01061701 	tsteq	r6, r1, lsl #14
    3340:	000001ef 	andeq	r0, r0, pc, ror #3
    3344:	0007c109 	andeq	ip, r7, r9, lsl #2
    3348:	0e180100 	mufeqe	f0, f0, f0
    334c:	00000031 	andeq	r0, r0, r1, lsr r0
    3350:	07921600 	ldreq	r1, [r2, r0, lsl #12]
    3354:	0e010000 	cdpeq	0, 0, cr0, cr1, cr0, {0}
    3358:	00002505 	andeq	r2, r0, r5, lsl #10
    335c:	020d0100 	andeq	r0, sp, #0
    3360:	c1090000 	mrsgt	r0, (UNDEF: 9)
    3364:	01000007 	tsteq	r0, r7
    3368:	00310e0f 	eorseq	r0, r1, pc, lsl #28
    336c:	17000000 	strne	r0, [r0, -r0]
    3370:	000001ef 	andeq	r0, r0, pc, ror #3
    3374:	000096ec 	andeq	r9, r0, ip, ror #13
    3378:	00000018 	andeq	r0, r0, r8, lsl r0
    337c:	022e9c01 	eoreq	r9, lr, #256	; 0x100
    3380:	000f0000 	andeq	r0, pc, r0
    3384:	b6000002 	strlt	r0, [r0], -r2
    3388:	b2000023 	andlt	r0, r0, #35, 0	; 0x23
    338c:	00000023 	andeq	r0, r0, r3, lsr #32
    3390:	0001d517 	andeq	sp, r1, r7, lsl r5
    3394:	00970400 	addseq	r0, r7, r0, lsl #8
    3398:	00001400 	andeq	r1, r0, r0, lsl #8
    339c:	4f9c0100 	svcmi	0x009c0100
    33a0:	0f000002 	svceq	0x00000002
    33a4:	000001e2 	andeq	r0, r0, r2, ror #3
    33a8:	000023dd 	ldrdeq	r2, [r0], -sp
    33ac:	000023d5 	ldrdeq	r2, [r0], -r5
    33b0:	07451800 	strbeq	r1, [r5, -r0, lsl #16]
    33b4:	07450000 	strbeq	r0, [r5, -r0]
    33b8:	36020000 	strcc	r0, [r2], -r0
    33bc:	de190601 	cfmsub32le	mvax0, mvfx0, mvfx9, mvfx1
    33c0:	de000006 	cdple	0, 0, cr0, cr0, cr6, {0}
    33c4:	02000006 	andeq	r0, r0, #6, 0
    33c8:	ba19064d 	blt	644d04 <__bss_end__+0x639edc>
    33cc:	ba000006 	blt	33ec <__code_start__-0x4c14>
    33d0:	02000006 	andeq	r0, r0, #6, 0
    33d4:	5c190658 	ldcpl	6, cr0, [r9], {88}	; 0x58
    33d8:	5c000007 	stcpl	0, cr0, [r0], {7}
    33dc:	02000007 	andeq	r0, r0, #7, 0
    33e0:	3f0006ad 	svccc	0x000006ad
    33e4:	04000005 	streq	r0, [r0], #-5
    33e8:	00137f00 	andseq	r7, r3, r0, lsl #30
    33ec:	b3010400 	movwlt	r0, #5120	; 0x1400
    33f0:	0c000004 	stceq	0, cr0, [r0], {4}
    33f4:	000007dc 	ldrdeq	r0, [r0], -ip
    33f8:	0000056b 	andeq	r0, r0, fp, ror #10
    33fc:	00009778 	andeq	r9, r0, r8, ror r7
    3400:	0000011c 	andeq	r0, r0, ip, lsl r1
    3404:	00001afb 	strdeq	r1, [r0], -fp
    3408:	69050402 	stmdbvs	r5, {r1, sl}
    340c:	0300746e 	movweq	r7, #1134	; 0x46e
    3410:	00ea0704 	rsceq	r0, sl, r4, lsl #14
    3414:	01030000 	mrseq	r0, (UNDEF: 3)
    3418:	00007706 	andeq	r7, r0, r6, lsl #14
    341c:	05020300 	streq	r0, [r2, #-768]	; 0xfffffd00
    3420:	000001fd 	strdeq	r0, [r0], -sp
    3424:	0e050403 	cdpeq	4, 0, cr0, cr5, cr3, {0}
    3428:	03000001 	movweq	r0, #1
    342c:	01090508 	tsteq	r9, r8, lsl #10
    3430:	01030000 	mrseq	r0, (UNDEF: 3)
    3434:	00007508 	andeq	r7, r0, r8, lsl #10
    3438:	07020300 	streq	r0, [r2, -r0, lsl #6]
    343c:	00000090 	muleq	r0, r0, r0
    3440:	e5070403 	str	r0, [r7, #-1027]	; 0xfffffbfd
    3444:	03000000 	movweq	r0, #0
    3448:	00e00708 	rsceq	r0, r0, r8, lsl #14
    344c:	25040000 	strcs	r0, [r4, #-0]
    3450:	7a000000 	bvc	3458 <__code_start__-0x4ba8>
    3454:	05000000 	streq	r0, [r0, #-0]
    3458:	00000025 	andeq	r0, r0, r5, lsr #32
    345c:	02230600 	eoreq	r0, r3, #0, 12
    3460:	1c020000 	stcne	0, cr0, [r2], {-0}
    3464:	0000860e 	andeq	r8, r0, lr, lsl #12
    3468:	6b040700 	blvs	105070 <__bss_end__+0xfa248>
    346c:	04000000 	streq	r0, [r0], #-0
    3470:	00000025 	andeq	r0, r0, r5, lsr #32
    3474:	0000009b 	muleq	r0, fp, r0
    3478:	00009b05 	andeq	r9, r0, r5, lsl #22
    347c:	04070000 	streq	r0, [r7], #-0
    3480:	000000a8 	andeq	r0, r0, r8, lsr #1
    3484:	7e080103 	adfvce	f0, f0, f3
    3488:	08000000 	stmdaeq	r0, {}	; <UNPREDICTABLE>
    348c:	000000a1 	andeq	r0, r0, r1, lsr #1
    3490:	0005d306 	andeq	sp, r5, r6, lsl #6
    3494:	0e210200 	cdpeq	2, 2, cr0, cr1, cr0, {0}
    3498:	000000b9 	strheq	r0, [r0], -r9
    349c:	008c0407 	addeq	r0, ip, r7, lsl #8
    34a0:	d2090000 	andle	r0, r9, #0, 0
    34a4:	01000007 	tsteq	r0, r7
    34a8:	9840061e 	stmdals	r0, {r1, r2, r3, r4, r9, sl}^
    34ac:	00540000 	subseq	r0, r4, r0
    34b0:	9c010000 	stcls	0, cr0, [r1], {-0}
    34b4:	0000020b 	andeq	r0, r0, fp, lsl #4
    34b8:	6365730a 	cmnvs	r5, #671088640	; 0x28000000
    34bc:	191e0100 	ldmdbne	lr, {r8}
    34c0:	0000002c 	andeq	r0, r0, ip, lsr #32
    34c4:	0000241a 	andeq	r2, r0, sl, lsl r4
    34c8:	00002416 	andeq	r2, r0, r6, lsl r4
    34cc:	00020b0b 	andeq	r0, r2, fp, lsl #22
    34d0:	00984000 	addseq	r4, r8, r0
    34d4:	04200200 	strteq	r0, [r0], #-512	; 0xfffffe00
    34d8:	1f010000 	svcne	0x00010000
    34dc:	02180c05 	andseq	r0, r8, #1280	; 0x500
    34e0:	243f0000 	ldrtcs	r0, [pc], #-0	; 34e8 <__code_start__-0x4b18>
    34e4:	243b0000 	ldrtcs	r0, [fp], #-0
    34e8:	240d0000 	strcs	r0, [sp], #-0
    34ec:	54000002 	strpl	r0, [r0], #-2
    34f0:	00000098 	muleq	r0, r8, r0
    34f4:	00009854 	andeq	r9, r0, r4, asr r8
    34f8:	00000040 	andeq	r0, r0, r0, asr #32
    34fc:	0c051c01 	stceq	12, cr1, [r5], {1}
    3500:	00000231 	andeq	r0, r0, r1, lsr r2
    3504:	0000246c 	andeq	r2, r0, ip, ror #8
    3508:	0000246a 	andeq	r2, r0, sl, ror #8
    350c:	00023c0e 	andeq	r3, r2, lr, lsl #24
    3510:	00248100 	eoreq	r8, r4, r0, lsl #2
    3514:	00247f00 	eoreq	r7, r4, r0, lsl #30
    3518:	02550f00 	subseq	r0, r5, #0, 30
    351c:	98540000 	ldmdals	r4, {}^	; <UNPREDICTABLE>
    3520:	54020000 	strpl	r0, [r2], #-0
    3524:	14000098 	strne	r0, [r0], #-152	; 0xffffff68
    3528:	01000000 	mrseq	r0, (UNDEF: 0)
    352c:	019c1313 	orrseq	r1, ip, r3, lsl r3
    3530:	660e0000 	strvs	r0, [lr], -r0
    3534:	98000002 	stmdals	r0, {r1}
    3538:	94000024 	strls	r0, [r0], #-36	; 0xffffffdc
    353c:	0f000024 	svceq	0x00000024
    3540:	00000271 	andeq	r0, r0, r1, ror r2
    3544:	00009858 	andeq	r9, r0, r8, asr r8
    3548:	00985801 	addseq	r5, r8, r1, lsl #16
    354c:	00000c00 	andeq	r0, r0, r0, lsl #24
    3550:	120d0100 	andne	r0, sp, #0
    3554:	00000189 	andeq	r0, r0, r9, lsl #3
    3558:	00986010 	addseq	r6, r8, r0, lsl r0
    355c:	00052a00 	andeq	r2, r5, r0, lsl #20
    3560:	50011100 	andpl	r1, r1, r0, lsl #2
    3564:	30040c05 	andcc	r0, r4, r5, lsl #24
    3568:	00002000 	andeq	r2, r0, r0
    356c:	00985812 	addseq	r5, r8, r2, lsl r8
    3570:	00053600 	andeq	r3, r5, r0, lsl #12
    3574:	98681200 	stmdals	r8!, {r9, ip}^
    3578:	05360000 	ldreq	r0, [r6, #-0]!
    357c:	13000000 	movwne	r0, #0
    3580:	00000247 	andeq	r0, r0, r7, asr #4
    3584:	00000438 	andeq	r0, r0, r8, lsr r4
    3588:	00024814 	andeq	r4, r2, r4, lsl r8
    358c:	02550b00 	subseq	r0, r5, #0, 22
    3590:	986c0000 	stmdals	ip!, {}^	; <UNPREDICTABLE>
    3594:	50020000 	andpl	r0, r2, r0
    3598:	01000004 	tsteq	r0, r4
    359c:	50151715 	andspl	r1, r5, r5, lsl r7
    35a0:	0e000004 	cdpeq	0, 0, cr0, cr0, cr4, {0}
    35a4:	00000266 	andeq	r0, r0, r6, ror #4
    35a8:	000024b8 			; <UNDEFINED> instruction: 0x000024b8
    35ac:	000024b6 			; <UNDEFINED> instruction: 0x000024b6
    35b0:	00027116 	andeq	r7, r2, r6, lsl r1
    35b4:	00987000 	addseq	r7, r8, r0
    35b8:	04700100 	ldrbteq	r0, [r0], #-256	; 0xffffff00
    35bc:	0d010000 	stceq	0, cr0, [r1, #-0]
    35c0:	0001f312 	andeq	pc, r1, r2, lsl r3	; <UNPREDICTABLE>
    35c4:	98781000 	ldmdals	r8!, {ip}^
    35c8:	052a0000 	streq	r0, [sl, #-0]!
    35cc:	01110000 	tsteq	r1, r0
    35d0:	00770250 	rsbseq	r0, r7, r0, asr r2
    35d4:	70120000 	andsvc	r0, r2, r0
    35d8:	36000098 			; <UNDEFINED> instruction: 0x36000098
    35dc:	12000005 	andne	r0, r0, #5, 0
    35e0:	00009884 	andeq	r9, r0, r4, lsl #17
    35e4:	00000536 	andeq	r0, r0, r6, lsr r5
    35e8:	00000000 	andeq	r0, r0, r0
    35ec:	ba170000 	blt	5c35f4 <__bss_end__+0x5b87cc>
    35f0:	01000006 	tsteq	r0, r6
    35f4:	2401061b 	strcs	r0, [r1], #-1563	; 0xfffff9e5
    35f8:	18000002 	stmdane	r0, {r1}
    35fc:	0100736d 	tsteq	r0, sp, ror #6
    3600:	002c181b 	eoreq	r1, ip, fp, lsl r8
    3604:	17000000 	strne	r0, [r0, -r0]
    3608:	00000805 	andeq	r0, r0, r5, lsl #16
    360c:	01061201 	tsteq	r6, r1, lsl #4
    3610:	00000255 	andeq	r0, r0, r5, asr r2
    3614:	00737518 	rsbseq	r7, r3, r8, lsl r5
    3618:	2c181201 	lfmcs	f1, 4, [r8], {1}
    361c:	19000000 	stmdbne	r0, {}	; <UNPREDICTABLE>
    3620:	01006272 	tsteq	r0, r2, ror r2
    3624:	002c0e13 	eoreq	r0, ip, r3, lsl lr
    3628:	191a0000 	ldmdbne	sl, {}	; <UNPREDICTABLE>
    362c:	01006172 	tsteq	r0, r2, ror r1
    3630:	002c1215 	eoreq	r1, ip, r5, lsl r2
    3634:	00000000 	andeq	r0, r0, r0
    3638:	0007f61b 	andeq	pc, r7, fp, lsl r6	; <UNPREDICTABLE>
    363c:	0a090100 	beq	243a44 <__bss_end__+0x238c1c>
    3640:	0000002c 	andeq	r0, r0, ip, lsr #32
    3644:	00027101 	andeq	r7, r2, r1, lsl #2
    3648:	00751900 	rsbseq	r1, r5, r0, lsl #18
    364c:	2c0e0d01 	stccs	13, cr0, [lr], {1}
    3650:	00000000 	andeq	r0, r0, r0
    3654:	00080e1c 	andeq	r0, r8, ip, lsl lr
    3658:	0a040100 	beq	103a60 <__bss_end__+0xf8c38>
    365c:	0000002c 	andeq	r0, r0, ip, lsr #32
    3660:	02711d01 	rsbseq	r1, r1, #64	; 0x40
    3664:	97780000 	ldrbls	r0, [r8, -r0]!
    3668:	000c0000 	andeq	r0, ip, r0
    366c:	9c010000 	stcls	0, cr0, [r1], {-0}
    3670:	000002a5 	andeq	r0, r0, r5, lsr #5
    3674:	0097801e 	addseq	r8, r7, lr, lsl r0
    3678:	00052a00 	andeq	r2, r5, r0, lsl #20
    367c:	50011100 	andpl	r1, r1, r0, lsl #2
    3680:	30040c05 	andcc	r0, r4, r5, lsl #24
    3684:	00002000 	andeq	r2, r0, r0
    3688:	0002551d 	andeq	r5, r2, sp, lsl r5
    368c:	00978400 	addseq	r8, r7, r0, lsl #8
    3690:	00002400 	andeq	r2, r0, r0, lsl #8
    3694:	059c0100 	ldreq	r0, [ip, #256]	; 0x100
    3698:	0e000003 	cdpeq	0, 0, cr0, cr0, cr3, {0}
    369c:	00000266 	andeq	r0, r0, r6, ror #4
    36a0:	000024cf 	andeq	r2, r0, pc, asr #9
    36a4:	000024cb 	andeq	r2, r0, fp, asr #9
    36a8:	0002710f 	andeq	r7, r2, pc, lsl #2
    36ac:	00978c00 	addseq	r8, r7, r0, lsl #24
    36b0:	978c0100 	strls	r0, [ip, r0, lsl #2]
    36b4:	000c0000 	andeq	r0, ip, r0
    36b8:	0d010000 	stceq	0, cr0, [r1, #-0]
    36bc:	0002f212 	andeq	pc, r2, r2, lsl r2	; <UNPREDICTABLE>
    36c0:	97941000 	ldrls	r1, [r4, r0]
    36c4:	052a0000 	streq	r0, [sl, #-0]!
    36c8:	01110000 	tsteq	r1, r0
    36cc:	040c0550 	streq	r0, [ip], #-1360	; 0xfffffab0
    36d0:	00200030 	eoreq	r0, r0, r0, lsr r0
    36d4:	978c1200 	strls	r1, [ip, r0, lsl #4]
    36d8:	05360000 	ldreq	r0, [r6, #-0]!
    36dc:	9c120000 	ldcls	0, cr0, [r2], {-0}
    36e0:	36000097 			; <UNDEFINED> instruction: 0x36000097
    36e4:	00000005 	andeq	r0, r0, r5
    36e8:	0002241d 	andeq	r2, r2, sp, lsl r4
    36ec:	0097a800 	addseq	sl, r7, r0, lsl #16
    36f0:	00004800 	andeq	r4, r0, r0, lsl #16
    36f4:	079c0100 	ldreq	r0, [ip, r0, lsl #2]
    36f8:	0c000004 	stceq	0, cr0, [r0], {4}
    36fc:	00000231 	andeq	r0, r0, r1, lsr r2
    3700:	000024f1 	strdeq	r2, [r0], -r1
    3704:	000024ed 	andeq	r2, r0, sp, ror #9
    3708:	00023c0e 	andeq	r3, r2, lr, lsl #24
    370c:	00251100 	eoreq	r1, r5, r0, lsl #2
    3710:	00250f00 	eoreq	r0, r5, r0, lsl #30
    3714:	02551600 	subseq	r1, r5, #0, 12
    3718:	97a80000 	strls	r0, [r8, r0]!
    371c:	68020000 	stmdavs	r2, {}	; <UNPREDICTABLE>
    3720:	01000003 	tsteq	r0, r3
    3724:	039a1313 	orrseq	r1, sl, #1275068416	; 0x4c000000
    3728:	68150000 	ldmdavs	r5, {}	; <UNPREDICTABLE>
    372c:	0e000003 	cdpeq	0, 0, cr0, cr0, cr3, {0}
    3730:	00000266 	andeq	r0, r0, r6, ror #4
    3734:	00002528 	andeq	r2, r0, r8, lsr #10
    3738:	00002524 	andeq	r2, r0, r4, lsr #10
    373c:	0002710f 	andeq	r7, r2, pc, lsl #2
    3740:	0097b400 	addseq	fp, r7, r0, lsl #8
    3744:	97b40100 	ldrls	r0, [r4, r0, lsl #2]!
    3748:	000c0000 	andeq	r0, ip, r0
    374c:	0d010000 	stceq	0, cr0, [r1, #-0]
    3750:	00038612 	andeq	r8, r3, r2, lsl r6
    3754:	97bc1000 	ldrls	r1, [ip, r0]!
    3758:	052a0000 	streq	r0, [sl, #-0]!
    375c:	01110000 	tsteq	r1, r0
    3760:	040c0550 	streq	r0, [ip], #-1360	; 0xfffffab0
    3764:	00200030 	eoreq	r0, r0, r0, lsr r0
    3768:	97b41200 	ldrls	r1, [r4, r0, lsl #4]!
    376c:	05360000 	ldreq	r0, [r6, #-0]!
    3770:	c4120000 	ldrgt	r0, [r2], #-0
    3774:	36000097 			; <UNDEFINED> instruction: 0x36000097
    3778:	00000005 	andeq	r0, r0, r5
    377c:	02471300 	subeq	r1, r7, #0, 6
    3780:	03800000 	orreq	r0, r0, #0, 0
    3784:	48140000 	ldmdami	r4, {}	; <UNPREDICTABLE>
    3788:	0b000002 	bleq	3798 <__code_start__-0x4868>
    378c:	00000255 	andeq	r0, r0, r5, asr r2
    3790:	000097c8 	andeq	r9, r0, r8, asr #15
    3794:	00039802 	andeq	r9, r3, r2, lsl #16
    3798:	17150100 	ldrne	r0, [r5, -r0, lsl #2]
    379c:	00039815 	andeq	r9, r3, r5, lsl r8
    37a0:	02660e00 	rsbeq	r0, r6, #0, 28
    37a4:	25480000 	strbcs	r0, [r8, #-0]
    37a8:	25460000 	strbcs	r0, [r6, #-0]
    37ac:	71160000 	tstvc	r6, r0
    37b0:	cc000002 	stcgt	0, cr0, [r0], {2}
    37b4:	01000097 	swpeq	r0, r7, [r0]	; <UNPREDICTABLE>
    37b8:	000003b8 			; <UNDEFINED> instruction: 0x000003b8
    37bc:	f1120d01 			; <UNDEFINED> instruction: 0xf1120d01
    37c0:	10000003 	andne	r0, r0, r3
    37c4:	000097d4 	ldrdeq	r9, [r0], -r4
    37c8:	0000052a 	andeq	r0, r0, sl, lsr #10
    37cc:	02500111 	subseq	r0, r0, #1073741828	; 0x40000004
    37d0:	00000077 	andeq	r0, r0, r7, ror r0
    37d4:	0097cc12 	addseq	ip, r7, r2, lsl ip
    37d8:	00053600 	andeq	r3, r5, r0, lsl #12
    37dc:	97e01200 	strbls	r1, [r0, r0, lsl #4]!
    37e0:	05360000 	ldreq	r0, [r6, #-0]!
    37e4:	00000000 	andeq	r0, r0, r0
    37e8:	0b1d0000 	bleq	7437f0 <__bss_end__+0x7389c8>
    37ec:	f0000002 			; <UNDEFINED> instruction: 0xf0000002
    37f0:	50000097 	mulpl	r0, r7, r0
    37f4:	01000000 	mrseq	r0, (UNDEF: 0)
    37f8:	00052a9c 	muleq	r5, ip, sl
    37fc:	02180c00 	andseq	r0, r8, #0, 24
    3800:	255f0000 	ldrbcs	r0, [pc, #-0]	; 3808 <__code_start__-0x47f8>
    3804:	255b0000 	ldrbcs	r0, [fp, #-0]
    3808:	240d0000 	strcs	r0, [sp], #-0
    380c:	00000002 	andeq	r0, r0, r2
    3810:	00000098 	muleq	r0, r8, r0
    3814:	00009800 	andeq	r9, r0, r0, lsl #16
    3818:	00000040 	andeq	r0, r0, r0, asr #32
    381c:	0c051c01 	stceq	12, cr1, [r5], {1}
    3820:	00000231 	andeq	r0, r0, r1, lsr r2
    3824:	00002582 	andeq	r2, r0, r2, lsl #11
    3828:	00002580 	andeq	r2, r0, r0, lsl #11
    382c:	00023c0e 	andeq	r3, r2, lr, lsl #24
    3830:	00259700 	eoreq	r9, r5, r0, lsl #14
    3834:	00259500 	eoreq	r9, r5, r0, lsl #10
    3838:	02550f00 	subseq	r0, r5, #0, 30
    383c:	98000000 	stmdals	r0, {}	; <UNPREDICTABLE>
    3840:	00020000 	andeq	r0, r2, r0
    3844:	14000098 	strne	r0, [r0], #-152	; 0xffffff68
    3848:	01000000 	mrseq	r0, (UNDEF: 0)
    384c:	04bc1313 	ldrteq	r1, [ip], #787	; 0x313
    3850:	660e0000 	strvs	r0, [lr], -r0
    3854:	ae000002 	cdpge	0, 0, cr0, cr0, cr2, {0}
    3858:	aa000025 	bge	38f4 <__code_start__-0x470c>
    385c:	0f000025 	svceq	0x00000025
    3860:	00000271 	andeq	r0, r0, r1, ror r2
    3864:	00009804 	andeq	r9, r0, r4, lsl #16
    3868:	00980401 	addseq	r0, r8, r1, lsl #8
    386c:	00000c00 	andeq	r0, r0, r0, lsl #24
    3870:	120d0100 	andne	r0, sp, #0
    3874:	000004a9 	andeq	r0, r0, r9, lsr #9
    3878:	00980c10 	addseq	r0, r8, r0, lsl ip
    387c:	00052a00 	andeq	r2, r5, r0, lsl #20
    3880:	50011100 	andpl	r1, r1, r0, lsl #2
    3884:	30040c05 	andcc	r0, r4, r5, lsl #24
    3888:	00002000 	andeq	r2, r0, r0
    388c:	00980412 	addseq	r0, r8, r2, lsl r4
    3890:	00053600 	andeq	r3, r5, r0, lsl #12
    3894:	98141200 	ldmdals	r4, {r9, ip}
    3898:	05360000 	ldreq	r0, [r6, #-0]!
    389c:	13000000 	movwne	r0, #0
    38a0:	00000247 	andeq	r0, r0, r7, asr #4
    38a4:	000003d0 	ldrdeq	r0, [r0], -r0	; <UNPREDICTABLE>
    38a8:	00024814 	andeq	r4, r2, r4, lsl r8
    38ac:	02550b00 	subseq	r0, r5, #0, 22
    38b0:	98180000 	ldmdals	r8, {}	; <UNPREDICTABLE>
    38b4:	e8020000 	stmda	r2, {}	; <UNPREDICTABLE>
    38b8:	01000003 	tsteq	r0, r3
    38bc:	e8151715 	ldmda	r5, {r0, r2, r4, r8, r9, sl, ip}
    38c0:	0e000003 	cdpeq	0, 0, cr0, cr0, cr3, {0}
    38c4:	00000266 	andeq	r0, r0, r6, ror #4
    38c8:	000025ce 	andeq	r2, r0, lr, asr #11
    38cc:	000025cc 	andeq	r2, r0, ip, asr #11
    38d0:	00027116 	andeq	r7, r2, r6, lsl r1
    38d4:	00981c00 	addseq	r1, r8, r0, lsl #24
    38d8:	04080100 	streq	r0, [r8], #-256	; 0xffffff00
    38dc:	0d010000 	stceq	0, cr0, [r1, #-0]
    38e0:	00051312 	andeq	r1, r5, r2, lsl r3
    38e4:	98241000 	stmdals	r4!, {ip}
    38e8:	052a0000 	streq	r0, [sl, #-0]!
    38ec:	01110000 	tsteq	r1, r0
    38f0:	00770250 	rsbseq	r0, r7, r0, asr r2
    38f4:	1c120000 	ldcne	0, cr0, [r2], {-0}
    38f8:	36000098 			; <UNDEFINED> instruction: 0x36000098
    38fc:	12000005 	andne	r0, r0, #5, 0
    3900:	00009830 	andeq	r9, r0, r0, lsr r8
    3904:	00000536 	andeq	r0, r0, r6, lsr r5
    3908:	00000000 	andeq	r0, r0, r0
    390c:	07f01f00 	ldrbeq	r1, [r0, r0, lsl #30]!
    3910:	07f00000 	ldrbeq	r0, [r0, r0]!
    3914:	c2020000 	andgt	r0, r2, #0, 0
    3918:	07c61f0a 	strbeq	r1, [r6, sl, lsl #30]
    391c:	07c60000 	strbeq	r0, [r6, r0]
    3920:	9c020000 	stcls	0, cr0, [r2], {-0}
    3924:	05cd0006 	strbeq	r0, [sp, #6]
    3928:	00040000 	andeq	r0, r4, r0
    392c:	0000154e 	andeq	r1, r0, lr, asr #10
    3930:	09210104 	stmdbeq	r1!, {r2, r8}
    3934:	600c0000 	andvs	r0, ip, r0
    3938:	d1000008 	tstle	r0, r8
    393c:	94000008 	strls	r0, [r0], #-8
    3940:	f0000098 			; <UNDEFINED> instruction: 0xf0000098
    3944:	f9000001 			; <UNDEFINED> instruction: 0xf9000001
    3948:	0200001c 	andeq	r0, r0, #28, 0
    394c:	6e690504 	cdpvs	5, 6, cr0, cr9, cr4, {0}
    3950:	04030074 	streq	r0, [r3], #-116	; 0xffffff8c
    3954:	0000ea07 	andeq	lr, r0, r7, lsl #20
    3958:	002c0400 	eoreq	r0, ip, r0, lsl #8
    395c:	01030000 	mrseq	r0, (UNDEF: 3)
    3960:	00007706 	andeq	r7, r0, r6, lsl #14
    3964:	05020300 	streq	r0, [r2, #-768]	; 0xfffffd00
    3968:	000001fd 	strdeq	r0, [r0], -sp
    396c:	0e050403 	cdpeq	4, 0, cr0, cr5, cr3, {0}
    3970:	03000001 	movweq	r0, #1
    3974:	01090508 	tsteq	r9, r8, lsl #10
    3978:	01030000 	mrseq	r0, (UNDEF: 3)
    397c:	00007508 	andeq	r7, r0, r8, lsl #10
    3980:	07020300 	streq	r0, [r2, -r0, lsl #6]
    3984:	00000090 	muleq	r0, r0, r0
    3988:	00021a05 	andeq	r1, r2, r5, lsl #20
    398c:	19340500 	ldmdbne	r4!, {r8, sl}
    3990:	0000006e 	andeq	r0, r0, lr, rrx
    3994:	e5070403 	str	r0, [r7, #-1027]	; 0xfffffbfd
    3998:	03000000 	movweq	r0, #0
    399c:	00e00708 	rsceq	r0, r0, r8, lsl #14
    39a0:	01030000 	mrseq	r0, (UNDEF: 3)
    39a4:	00007e08 	andeq	r7, r0, r8, lsl #28
    39a8:	01070600 	tsteq	r7, r0, lsl #12
    39ac:	00000054 	andeq	r0, r0, r4, asr r0
    39b0:	c20e0c04 	andgt	r0, lr, #4, 24	; 0x400
    39b4:	07000000 	streq	r0, [r0, -r0]
    39b8:	00000a0b 	andeq	r0, r0, fp, lsl #20
    39bc:	08430700 	stmdaeq	r3, {r8, r9, sl}^
    39c0:	07010000 	streq	r0, [r1, -r0]
    39c4:	00000886 	andeq	r0, r0, r6, lsl #17
    39c8:	08950704 	ldmeq	r5, {r2, r8, r9, sl}
    39cc:	07050000 	streq	r0, [r5, -r0]
    39d0:	000008a4 	andeq	r0, r0, r4, lsr #17
    39d4:	08b30706 	ldmeq	r3!, {r1, r2, r8, r9, sl}
    39d8:	07070000 	streq	r0, [r7, -r0]
    39dc:	000009d4 	ldrdeq	r0, [r0], -r4
    39e0:	08c20703 	stmiaeq	r2, {r0, r1, r8, r9, sl}^
    39e4:	00020000 	andeq	r0, r2, r0
    39e8:	00085408 	andeq	r5, r8, r8, lsl #8
    39ec:	06022c00 	streq	r2, [r2], -r0, lsl #24
    39f0:	00015e08 	andeq	r5, r1, r8, lsl #28
    39f4:	6f690900 	svcvs	0x00690900
    39f8:	09090200 	stmdbeq	r9, {r9}
    39fc:	00000033 	andeq	r0, r0, r3, lsr r0
    3a00:	65690900 	strbvs	r0, [r9, #-2304]!	; 0xfffff700
    3a04:	0a020072 	beq	83bd4 <__bss_end__+0x78dac>
    3a08:	00003309 	andeq	r3, r0, r9, lsl #6
    3a0c:	69090400 	stmdbvs	r9, {sl}
    3a10:	02007269 	andeq	r7, r0, #-1879048186	; 0x90000006
    3a14:	00330911 	eorseq	r0, r3, r1, lsl r9
    3a18:	09080000 	stmdbeq	r8, {}	; <UNPREDICTABLE>
    3a1c:	0072636c 	rsbseq	r6, r2, ip, ror #6
    3a20:	33091302 	movwcc	r1, #37634	; 0x9302
    3a24:	0c000000 	stceq	0, cr0, [r0], {-0}
    3a28:	72636d09 	rsbvc	r6, r3, #576	; 0x240
    3a2c:	09140200 	ldmdbeq	r4, {r9}
    3a30:	00000033 	andeq	r0, r0, r3, lsr r0
    3a34:	736c0910 	cmnvc	ip, #16, 18	; 0x40000
    3a38:	15020072 	strne	r0, [r2, #-114]	; 0xffffff8e
    3a3c:	00003309 	andeq	r3, r0, r9, lsl #6
    3a40:	6d091400 	cfstrsvs	mvf1, [r9, #-0]
    3a44:	02007273 	andeq	r7, r0, #805306375	; 0x30000007
    3a48:	00330916 	eorseq	r0, r3, r6, lsl r9
    3a4c:	0a180000 	beq	603a54 <__bss_end__+0x5f8c2c>
    3a50:	000009eb 	andeq	r0, r0, fp, ror #19
    3a54:	33091702 	movwcc	r1, #38658	; 0x9702
    3a58:	1c000000 	stcne	0, cr0, [r0], {-0}
    3a5c:	0009b40a 	andeq	fp, r9, sl, lsl #8
    3a60:	091b0200 	ldmdbeq	fp, {r9}
    3a64:	00000033 	andeq	r0, r0, r3, lsr r0
    3a68:	08300a20 	ldmdaeq	r0!, {r5, r9, fp}
    3a6c:	1d020000 	stcne	0, cr0, [r2, #-0]
    3a70:	00003309 	andeq	r3, r0, r9, lsl #6
    3a74:	060a2400 	streq	r2, [sl], -r0, lsl #8
    3a78:	02000009 	andeq	r0, r0, #9, 0
    3a7c:	0033091e 	eorseq	r0, r3, lr, lsl r9
    3a80:	00280000 	eoreq	r0, r8, r0
    3a84:	00090b0b 	andeq	r0, r9, fp, lsl #22
    3a88:	09080100 	stmdbeq	r8, {r8}
    3a8c:	00000174 	andeq	r0, r0, r4, ror r1
    3a90:	20215004 	eorcs	r5, r1, r4
    3a94:	0033040c 	eorseq	r0, r3, ip, lsl #8
    3a98:	6e0d0000 	cdpvs	0, 0, cr0, cr13, cr0, {0}
    3a9c:	0b000001 	bleq	3aa8 <__code_start__-0x4558>
    3aa0:	000009f3 	strdeq	r0, [r0], -r3
    3aa4:	8f232901 	svchi	0x00232901
    3aa8:	40000001 	andmi	r0, r0, r1
    3aac:	0c202150 	stfeqs	f2, [r0], #-320	; 0xfffffec0
    3ab0:	0000c204 	andeq	ip, r0, r4, lsl #4
    3ab4:	01890d00 	orreq	r0, r9, r0, lsl #26
    3ab8:	de0e0000 	cdple	0, 0, cr0, cr14, cr0, {0}
    3abc:	01000006 	tsteq	r0, r6
    3ac0:	9a4c06cc 	bls	13055f8 <__bss_end__+0x12fa7d0>
    3ac4:	00140000 	andseq	r0, r4, r0
    3ac8:	9c010000 	stcls	0, cr0, [r1], {-0}
    3acc:	000001b4 			; <UNDEFINED> instruction: 0x000001b4
    3ad0:	009a540f 	addseq	r5, sl, pc, lsl #8
    3ad4:	0001b400 	andeq	fp, r1, r0, lsl #8
    3ad8:	75100000 	ldrvc	r0, [r0, #-0]
    3adc:	01000008 	tsteq	r0, r8
    3ae0:	002505b6 	strhteq	r0, [r5], -r6
    3ae4:	9a2c0000 	bls	b03aec <__bss_end__+0xaf8cc4>
    3ae8:	00200000 	eoreq	r0, r0, r0
    3aec:	9c010000 	stcls	0, cr0, [r1], {-0}
    3af0:	000001eb 	andeq	r0, r0, fp, ror #3
    3af4:	009a340f 	addseq	r3, sl, pc, lsl #8
    3af8:	0005a000 	andeq	sl, r5, r0
    3afc:	9a3c1100 	bls	f07f04 <__bss_end__+0xefd0dc>
    3b00:	05ac0000 	streq	r0, [ip, #0]!
    3b04:	01120000 	tsteq	r2, r0
    3b08:	640c0550 	strvs	r0, [ip], #-1360	; 0xfffffab0
    3b0c:	00202150 	eoreq	r2, r0, r0, asr r1
    3b10:	09c61000 	stmibeq	r6, {ip}^
    3b14:	b3010000 	movwlt	r0, #4096	; 0x1000
    3b18:	00002505 	andeq	r2, r0, r5, lsl #10
    3b1c:	009a1c00 	addseq	r1, sl, r0, lsl #24
    3b20:	00001000 	andeq	r1, r0, r0
    3b24:	189c0100 	ldmne	ip, {r8}
    3b28:	0f000002 	svceq	0x00000002
    3b2c:	00009a24 	andeq	r9, r0, r4, lsr #20
    3b30:	000005a0 	andeq	r0, r0, r0, lsr #11
    3b34:	009a280f 	addseq	r2, sl, pc, lsl #16
    3b38:	00030900 	andeq	r0, r3, r0, lsl #18
    3b3c:	010e0000 	mrseq	r0, (UNDEF: 14)
    3b40:	0100000a 	tsteq	r0, sl
    3b44:	99ec06ab 	stmibls	ip!, {r0, r1, r3, r5, r7, r9, sl}^
    3b48:	00300000 	eorseq	r0, r0, r0
    3b4c:	9c010000 	stcls	0, cr0, [r1], {-0}
    3b50:	0000027c 	andeq	r0, r0, ip, ror r2
    3b54:	01006313 	tsteq	r0, r3, lsl r3
    3b58:	002c19ab 	eoreq	r1, ip, fp, lsr #19
    3b5c:	25e50000 	strbcs	r0, [r5, #0]!
    3b60:	25e10000 	strbcs	r0, [r1, #0]!
    3b64:	f80f0000 			; <UNDEFINED> instruction: 0xf80f0000
    3b68:	a0000099 	mulge	r0, r9, r0
    3b6c:	0f000005 	svceq	0x00000005
    3b70:	000099fc 	strdeq	r9, [r0], -ip
    3b74:	000002db 	ldrdeq	r0, [r0], -fp
    3b78:	009a1014 	addseq	r1, sl, r4, lsl r0
    3b7c:	0005b800 	andeq	fp, r5, r0, lsl #16
    3b80:	00027200 	andeq	r7, r2, r0, lsl #4
    3b84:	50011200 	andpl	r1, r1, r0, lsl #4
    3b88:	50400c05 	subpl	r0, r0, r5, lsl #24
    3b8c:	01122021 	tsteq	r2, r1, lsr #32
    3b90:	00740551 	rsbseq	r0, r4, r1, asr r5
    3b94:	001aff08 	andseq	pc, sl, r8, lsl #30
    3b98:	009a140f 	addseq	r1, sl, pc, lsl #8
    3b9c:	0005a000 	andeq	sl, r5, r0
    3ba0:	17100000 	ldrne	r0, [r0, -r0]
    3ba4:	01000009 	tsteq	r0, r9
    3ba8:	002505a3 	eoreq	r0, r5, r3, lsr #11
    3bac:	99bc0000 	ldmibls	ip!, {}	; <UNPREDICTABLE>
    3bb0:	00300000 	eorseq	r0, r0, r0
    3bb4:	9c010000 	stcls	0, cr0, [r1], {-0}
    3bb8:	000002db 	ldrdeq	r0, [r0], -fp
    3bbc:	01006315 	tsteq	r0, r5, lsl r3
    3bc0:	002509a7 	eoreq	r0, r5, r7, lsr #19
    3bc4:	26050000 	strcs	r0, [r5], -r0
    3bc8:	26030000 	strcs	r0, [r3], -r0
    3bcc:	c40f0000 	strgt	r0, [pc], #-0	; 3bd4 <__code_start__-0x442c>
    3bd0:	a0000099 	mulge	r0, r9, r0
    3bd4:	0f000005 	svceq	0x00000005
    3bd8:	000099c8 	andeq	r9, r0, r8, asr #19
    3bdc:	00000309 	andeq	r0, r0, r9, lsl #6
    3be0:	0099d814 	addseq	sp, r9, r4, lsl r8
    3be4:	0005ac00 	andeq	sl, r5, r0, lsl #24
    3be8:	0002d100 	andeq	sp, r2, r0, lsl #2
    3bec:	50011200 	andpl	r1, r1, r0, lsl #4
    3bf0:	50400c05 	subpl	r0, r0, r5, lsl #24
    3bf4:	0f002021 	svceq	0x00002021
    3bf8:	000099e0 	andeq	r9, r0, r0, ror #19
    3bfc:	000005a0 	andeq	r0, r0, r0, lsr #11
    3c00:	08671000 	stmdaeq	r7!, {ip}^
    3c04:	94010000 	strls	r0, [r1], #-0
    3c08:	00002505 	andeq	r2, r0, r5, lsl #10
    3c0c:	00999c00 	addseq	r9, r9, r0, lsl #24
    3c10:	00002000 	andeq	r2, r0, r0
    3c14:	099c0100 	ldmibeq	ip, {r8}
    3c18:	11000003 	tstne	r0, r3
    3c1c:	000099a8 	andeq	r9, r0, r8, lsr #19
    3c20:	000005ac 	andeq	r0, r0, ip, lsr #11
    3c24:	05500112 	ldrbeq	r0, [r0, #-274]	; 0xfffffeee
    3c28:	2150640c 	cmpcs	r0, ip, lsl #8
    3c2c:	10000020 	andne	r0, r0, r0, lsr #32
    3c30:	00000835 	andeq	r0, r0, r5, lsr r8
    3c34:	25058b01 	strcs	r8, [r5, #-2817]	; 0xfffff4ff
    3c38:	84000000 	strhi	r0, [r0], #-0
    3c3c:	18000099 	stmdane	r0, {r0, r3, r4, r7}
    3c40:	01000000 	mrseq	r0, (UNDEF: 0)
    3c44:	0003379c 	muleq	r3, ip, r7
    3c48:	99901100 	ldmibls	r0, {r8, ip}
    3c4c:	05ac0000 	streq	r0, [ip, #0]!
    3c50:	01120000 	tsteq	r2, r0
    3c54:	640c0550 	strvs	r0, [ip], #-1360	; 0xfffffab0
    3c58:	00202150 	eoreq	r2, r0, r0, asr r1
    3c5c:	06fc0e00 	ldrbteq	r0, [ip], r0, lsl #28
    3c60:	45010000 	strmi	r0, [r1, #-0]
    3c64:	0098d406 	addseq	sp, r8, r6, lsl #8
    3c68:	0000b000 	andeq	fp, r0, r0
    3c6c:	849c0100 	ldrhi	r0, [ip], #256	; 0x100
    3c70:	16000004 	strne	r0, [r0], -r4
    3c74:	00000827 	andeq	r0, r0, r7, lsr #16
    3c78:	620e7e01 	andvs	r7, lr, #1, 28
    3c7c:	0e000000 	cdpeq	0, 0, cr0, cr0, cr0, {0}
    3c80:	98e41401 	stmials	r4!, {r0, sl, ip}^
    3c84:	05c40000 	strbeq	r0, [r4]
    3c88:	03730000 	cmneq	r3, #0, 0
    3c8c:	01120000 	tsteq	r2, r0
    3c90:	123e0150 	eorsne	r0, lr, #20
    3c94:	32015101 	andcc	r5, r1, #1073741824	; 0x40000000
    3c98:	98f01400 	ldmls	r0!, {sl, ip}^
    3c9c:	05c40000 	strbeq	r0, [r4]
    3ca0:	038b0000 	orreq	r0, fp, #0, 0
    3ca4:	01120000 	tsteq	r2, r0
    3ca8:	123f0150 	eorsne	r0, pc, #20
    3cac:	32015101 	andcc	r5, r1, #1073741824	; 0x40000000
    3cb0:	98f40f00 	ldmls	r4!, {r8, r9, sl, fp}^
    3cb4:	05a00000 	streq	r0, [r0, #0]!
    3cb8:	00140000 	andseq	r0, r4, r0
    3cbc:	3d000099 	stccc	0, cr0, [r0, #-612]	; 0xfffffd9c
    3cc0:	b0000005 	andlt	r0, r0, r5
    3cc4:	12000003 	andne	r0, r0, #3, 0
    3cc8:	0c055001 	stceq	0, cr5, [r5], {1}
    3ccc:	20215004 	eorcs	r5, r1, r4
    3cd0:	01510112 	cmpeq	r1, r2, lsl r1
    3cd4:	040f0031 	streq	r0, [pc], #-49	; 3cdc <__code_start__-0x4324>
    3cd8:	a0000099 	mulge	r0, r9, r0
    3cdc:	14000005 	strne	r0, [r0], #-5
    3ce0:	00009914 	andeq	r9, r0, r4, lsl r9
    3ce4:	000005b8 			; <UNDEFINED> instruction: 0x000005b8
    3ce8:	000003d2 	ldrdeq	r0, [r0], -r2
    3cec:	02500112 	subseq	r0, r0, #-2147483644	; 0x80000004
    3cf0:	01120074 	tsteq	r2, r4, ror r0
    3cf4:	00300151 	eorseq	r0, r0, r1, asr r1
    3cf8:	00992014 	addseq	r2, r9, r4, lsl r0
    3cfc:	0005b800 	andeq	fp, r5, r0, lsl #16
    3d00:	0003ee00 	andeq	lr, r3, r0, lsl #28
    3d04:	50011200 	andpl	r1, r1, r0, lsl #4
    3d08:	50440c05 	subpl	r0, r4, r5, lsl #24
    3d0c:	01122021 	tsteq	r2, r1, lsr #32
    3d10:	00300151 	eorseq	r0, r0, r1, asr r1
    3d14:	00992c14 	addseq	r2, r9, r4, lsl ip
    3d18:	0005b800 	andeq	fp, r5, r0, lsl #16
    3d1c:	00040a00 	andeq	r0, r4, r0, lsl #20
    3d20:	50011200 	andpl	r1, r1, r0, lsl #4
    3d24:	504c0c05 	subpl	r0, ip, r5, lsl #24
    3d28:	01122021 	tsteq	r2, r1, lsr #32
    3d2c:	00330151 	eorseq	r0, r3, r1, asr r1
    3d30:	00993814 	addseq	r3, r9, r4, lsl r8
    3d34:	0005b800 	andeq	fp, r5, r0, lsl #16
    3d38:	00042600 	andeq	r2, r4, r0, lsl #12
    3d3c:	50011200 	andpl	r1, r1, r0, lsl #4
    3d40:	50500c05 	subspl	r0, r0, r5, lsl #24
    3d44:	01122021 	tsteq	r2, r1, lsr #32
    3d48:	00300151 	eorseq	r0, r0, r1, asr r1
    3d4c:	00994414 	addseq	r4, r9, r4, lsl r4
    3d50:	0005b800 	andeq	fp, r5, r0, lsl #16
    3d54:	00044300 	andeq	r4, r4, r0, lsl #6
    3d58:	50011200 	andpl	r1, r1, r0, lsl #4
    3d5c:	50480c05 	subpl	r0, r8, r5, lsl #24
    3d60:	01122021 	tsteq	r2, r1, lsr #32
    3d64:	c7080251 	smlsdgt	r8, r1, r2, r0
    3d68:	99501400 	ldmdbls	r0, {sl, ip}^
    3d6c:	05b80000 	ldreq	r0, [r8, #0]!
    3d70:	04610000 	strbteq	r0, [r1], #-0
    3d74:	01120000 	tsteq	r2, r0
    3d78:	680c0550 	stmdavs	ip, {r4, r6, r8, sl}
    3d7c:	12202150 	eorne	r2, r0, #20
    3d80:	0a035101 	beq	d818c <__bss_end__+0xcd364>
    3d84:	1400010e 	strne	r0, [r0], #-270	; 0xfffffef2
    3d88:	0000995c 	andeq	r9, r0, ip, asr r9
    3d8c:	000005b8 			; <UNDEFINED> instruction: 0x000005b8
    3d90:	0000047a 	andeq	r0, r0, sl, ror r4
    3d94:	02500112 	subseq	r0, r0, #-2147483644	; 0x80000004
    3d98:	01120074 	tsteq	r2, r4, ror r0
    3d9c:	00330151 	eorseq	r0, r3, r1, asr r1
    3da0:	0099600f 	addseq	r6, r9, pc
    3da4:	0005a000 	andeq	sl, r5, r0
    3da8:	b90e0000 	stmdblt	lr, {}	; <UNPREDICTABLE>
    3dac:	01000009 	tsteq	r0, r9
    3db0:	9a600635 	bls	180568c <__bss_end__+0x17fa864>
    3db4:	00240000 	eoreq	r0, r4, r0
    3db8:	9c010000 	stcls	0, cr0, [r1], {-0}
    3dbc:	000004d3 	ldrdeq	r0, [r0], -r3
    3dc0:	009a680f 	addseq	r6, sl, pc, lsl #16
    3dc4:	00019400 	andeq	r9, r1, r0, lsl #8
    3dc8:	9a6c0f00 	bls	1b079d0 <__bss_end__+0x1afcba8>
    3dcc:	05a00000 	streq	r0, [r0, #0]!
    3dd0:	78140000 	ldmdavc	r4, {}	; <UNPREDICTABLE>
    3dd4:	d300009a 	movwle	r0, #154	; 0x9a
    3dd8:	c9000004 	stmdbgt	r0, {r2}
    3ddc:	12000004 	andne	r0, r0, #4, 0
    3de0:	0c055001 	stceq	0, cr5, [r5], {1}
    3de4:	20215004 	eorcs	r5, r1, r4
    3de8:	02510112 	subseq	r0, r1, #-2147483644	; 0x80000004
    3dec:	0f00fe09 	svceq	0x0000fe09
    3df0:	00009a7c 	andeq	r9, r0, ip, ror sl
    3df4:	000005a0 	andeq	r0, r0, r0, lsr #11
    3df8:	09f81700 	ldmibeq	r8!, {r8, r9, sl, ip}^
    3dfc:	31010000 	mrscc	r0, (UNDEF: 1)
    3e00:	0098940d 	addseq	r9, r8, sp, lsl #8
    3e04:	00002000 	andeq	r2, r0, r0
    3e08:	369c0100 	ldrcc	r0, [ip], r0, lsl #2
    3e0c:	18000005 	stmdane	r0, {r0, r2}
    3e10:	00000a52 	andeq	r0, r0, r2, asr sl
    3e14:	36253101 	strtcc	r3, [r5], -r1, lsl #2
    3e18:	1c000005 	stcne	0, cr0, [r0], {5}
    3e1c:	18000026 	stmdane	r0, {r1, r2, r5}
    3e20:	13000026 	movwne	r0, #38	; 0x26
    3e24:	006c6176 	rsbeq	r6, ip, r6, ror r1
    3e28:	2c343101 	ldfcss	f3, [r4], #-4
    3e2c:	3e000000 	cdpcc	0, 0, cr0, cr0, cr0, {0}
    3e30:	3a000026 	bcc	3ed0 <__code_start__-0x4130>
    3e34:	14000026 	strne	r0, [r0], #-38	; 0xffffffda
    3e38:	000098a4 	andeq	r9, r0, r4, lsr #17
    3e3c:	000005ac 	andeq	r0, r0, ip, lsr #11
    3e40:	00000525 	andeq	r0, r0, r5, lsr #10
    3e44:	02500112 	subseq	r0, r0, #-2147483644	; 0x80000004
    3e48:	11000074 	tstne	r0, r4, ror r0
    3e4c:	000098b0 			; <UNDEFINED> instruction: 0x000098b0
    3e50:	000005b8 			; <UNDEFINED> instruction: 0x000005b8
    3e54:	02500112 	subseq	r0, r0, #-2147483644	; 0x80000004
    3e58:	00000074 	andeq	r0, r0, r4, ror r0
    3e5c:	053c040c 	ldreq	r0, [ip, #-1036]!	; 0xfffffbf4
    3e60:	17190000 	ldrne	r0, [r9, -r0]
    3e64:	000009e3 	andeq	r0, r0, r3, ror #19
    3e68:	b40d2e01 	strlt	r2, [sp], #-3585	; 0xfffff1ff
    3e6c:	20000098 	mulcs	r0, r8, r0
    3e70:	01000000 	mrseq	r0, (UNDEF: 0)
    3e74:	0005a09c 	muleq	r5, ip, r0
    3e78:	0a521800 	beq	1489e80 <__bss_end__+0x147f058>
    3e7c:	2e010000 	cdpcs	0, 0, cr0, cr1, cr0, {0}
    3e80:	00053624 	andeq	r3, r5, r4, lsr #12
    3e84:	00266000 	eoreq	r6, r6, r0
    3e88:	00265c00 	eoreq	r5, r6, r0, lsl #24
    3e8c:	61761300 	cmnvs	r6, r0, lsl #6
    3e90:	2e01006c 	cdpcs	0, 0, cr0, cr1, cr12, {3}
    3e94:	00002c33 	andeq	r2, r0, r3, lsr ip
    3e98:	00268200 	eoreq	r8, r6, r0, lsl #4
    3e9c:	00267e00 	eoreq	r7, r6, r0, lsl #28
    3ea0:	98c41400 	stmials	r4, {sl, ip}^
    3ea4:	05ac0000 	streq	r0, [ip, #0]!
    3ea8:	058f0000 	streq	r0, [pc]	; 3eb0 <__code_start__-0x4150>
    3eac:	01120000 	tsteq	r2, r0
    3eb0:	00740250 	rsbseq	r0, r4, r0, asr r2
    3eb4:	98d01100 	ldmls	r0, {r8, ip}^
    3eb8:	05b80000 	ldreq	r0, [r8, #0]!
    3ebc:	01120000 	tsteq	r2, r0
    3ec0:	00740250 	rsbseq	r0, r4, r0, asr r2
    3ec4:	c61a0000 	ldrgt	r0, [sl], -r0
    3ec8:	c6000007 	strgt	r0, [r0], -r7
    3ecc:	03000007 	movweq	r0, #7
    3ed0:	2d1a069c 	ldccs	6, cr0, [sl, #-624]	; 0xfffffd90
    3ed4:	2d00000a 	stccs	0, cr0, [r0, #-40]	; 0xffffffd8
    3ed8:	0300000a 	movweq	r0, #10
    3edc:	211a0bc3 	tstcs	sl, r3, asr #23
    3ee0:	21000008 	tstcs	r0, r8
    3ee4:	03000008 	movweq	r0, #8
    3ee8:	1b1a06ae 	blne	6859a8 <__bss_end__+0x67ab80>
    3eec:	1b00000a 	blne	3f1c <__code_start__-0x40e4>
    3ef0:	0400000a 	streq	r0, [r0], #-10
    3ef4:	e9000619 	stmdb	r0, {r0, r3, r4, r9, sl}
    3ef8:	04000008 	streq	r0, [r0], #-8
    3efc:	0016e600 	andseq	lr, r6, r0, lsl #12
    3f00:	21010400 	tstcs	r1, r0, lsl #8
    3f04:	0c000009 	stceq	0, cr0, [r0], {9}
    3f08:	00000abd 			; <UNDEFINED> instruction: 0x00000abd
    3f0c:	000008d1 	ldrdeq	r0, [r0], -r1
    3f10:	00009a84 	andeq	r9, r0, r4, lsl #21
    3f14:	000003b0 			; <UNDEFINED> instruction: 0x000003b0
    3f18:	00001f01 	andeq	r1, r0, r1, lsl #30
    3f1c:	69050402 	stmdbvs	r5, {r1, sl}
    3f20:	0300746e 	movweq	r7, #1134	; 0x46e
    3f24:	00ea0704 	rsceq	r0, sl, r4, lsl #14
    3f28:	01030000 	mrseq	r0, (UNDEF: 3)
    3f2c:	00007706 	andeq	r7, r0, r6, lsl #14
    3f30:	05020300 	streq	r0, [r2, #-768]	; 0xfffffd00
    3f34:	000001fd 	strdeq	r0, [r0], -sp
    3f38:	0e050403 	cdpeq	4, 0, cr0, cr5, cr3, {0}
    3f3c:	03000001 	movweq	r0, #1
    3f40:	01090508 	tsteq	r9, r8, lsl #10
    3f44:	01030000 	mrseq	r0, (UNDEF: 3)
    3f48:	00007508 	andeq	r7, r0, r8, lsl #10
    3f4c:	07020300 	streq	r0, [r2, -r0, lsl #6]
    3f50:	00000090 	muleq	r0, r0, r0
    3f54:	00021a04 	andeq	r1, r2, r4, lsl #20
    3f58:	19340300 	ldmdbne	r4!, {r8, r9}
    3f5c:	00000069 	andeq	r0, r0, r9, rrx
    3f60:	e5070403 	str	r0, [r7, #-1027]	; 0xfffffbfd
    3f64:	03000000 	movweq	r0, #0
    3f68:	00e00708 	rsceq	r0, r0, r8, lsl #14
    3f6c:	01030000 	mrseq	r0, (UNDEF: 3)
    3f70:	00007e08 	andeq	r7, r0, r8, lsl #28
    3f74:	00770500 	rsbseq	r0, r7, r0, lsl #10
    3f78:	08030000 	stmdaeq	r3, {}	; <UNPREDICTABLE>
    3f7c:	00033e04 	andeq	r3, r3, r4, lsl #28
    3f80:	07040600 	streq	r0, [r4, -r0, lsl #12]
    3f84:	002c0407 	eoreq	r0, ip, r7, lsl #8
    3f88:	1f010000 	svcne	0x00010000
    3f8c:	0000a406 	andeq	sl, r0, r6, lsl #8
    3f90:	0a570800 	beq	15c5f98 <__bss_end__+0x15bb170>
    3f94:	00000000 	andeq	r0, r0, r0
    3f98:	09000020 	stmdbeq	r0, {r5}
    3f9c:	00000627 	andeq	r0, r0, r7, lsr #12
    3fa0:	770d2201 	strvc	r2, [sp, -r1, lsl #4]
    3fa4:	0a000000 	beq	3fac <__code_start__-0x4054>
    3fa8:	00000413 	andeq	r0, r0, r3, lsl r4
    3fac:	c20e2301 	andgt	r2, lr, #67108864	; 0x4000000
    3fb0:	05000000 	streq	r0, [r0, #-0]
    3fb4:	00a9ec03 	adceq	lr, r9, r3, lsl #24
    3fb8:	77040b00 	strvc	r0, [r4, -r0, lsl #22]
    3fbc:	0a000000 	beq	3fc4 <__code_start__-0x403c>
    3fc0:	00000a3b 	andeq	r0, r0, fp, lsr sl
    3fc4:	c20e2401 	andgt	r2, lr, #16777216	; 0x1000000
    3fc8:	05000000 	streq	r0, [r0, #-0]
    3fcc:	00a9f003 	adceq	pc, r9, r3
    3fd0:	0a9c0a00 	beq	fe7067d8 <__bss_end__+0xfe6fb9b0>
    3fd4:	25010000 	strcs	r0, [r1, #-0]
    3fd8:	0000c20e 	andeq	ip, r0, lr, lsl #4
    3fdc:	f4030500 	vst3.8	{d0,d2,d4}, [r3], r0
    3fe0:	0c0000a9 	stceq	0, cr0, [r0], {169}	; 0xa9
    3fe4:	00000a72 	andeq	r0, r0, r2, ror sl
    3fe8:	d4067501 	strle	r7, [r6], #-1281	; 0xfffffaff
    3fec:	6000009d 	mulvs	r0, sp, r0
    3ff0:	01000000 	mrseq	r0, (UNDEF: 0)
    3ff4:	0001649c 	muleq	r1, ip, r4
    3ff8:	00700d00 	rsbseq	r0, r0, r0, lsl #26
    3ffc:	8a167501 	bhi	5a1408 <__bss_end__+0x5965e0>
    4000:	a6000000 	strge	r0, [r0], -r0
    4004:	a0000026 	andge	r0, r0, r6, lsr #32
    4008:	0e000026 	cdpeq	0, 0, cr0, cr0, cr6, {1}
    400c:	000000c4 	andeq	r0, r0, r4, asr #1
    4010:	00000174 	andeq	r0, r0, r4, ror r1
    4014:	a9dc0305 	ldmibge	ip, {r0, r2, r8, r9}^
    4018:	200f0000 	andcs	r0, pc, r0
    401c:	bc00009e 	stclt	0, cr0, [r0], {158}	; 0x9e
    4020:	5a000008 	bpl	4048 <__code_start__-0x3fb8>
    4024:	10000001 	andne	r0, r0, r1
    4028:	03055001 	movweq	r5, #20481	; 0x5001
    402c:	0000a954 	andeq	sl, r0, r4, asr r9
    4030:	05510110 	ldrbeq	r0, [r1, #-272]	; 0xfffffef0
    4034:	00a7ec03 	adceq	lr, r7, r3, lsl #24
    4038:	52011000 	andpl	r1, r1, #0, 0
    403c:	a9dc0305 	ldmibge	ip, {r0, r2, r8, r9}^
    4040:	01100000 	tsteq	r0, r0
    4044:	77080253 	smlsdvc	r8, r3, r2, r0
    4048:	007d0210 	rsbseq	r0, sp, r0, lsl r2
    404c:	5001f303 	andpl	pc, r1, r3, lsl #6
    4050:	9e241100 	suflss	f1, f4, f0
    4054:	08c80000 	stmiaeq	r8, {}^	; <UNPREDICTABLE>
    4058:	12000000 	andne	r0, r0, #0, 0
    405c:	0000007e 	andeq	r0, r0, lr, ror r0
    4060:	00000174 	andeq	r0, r0, r4, ror r1
    4064:	00002c13 	andeq	r2, r0, r3, lsl ip
    4068:	05000900 	streq	r0, [r0, #-2304]	; 0xfffff700
    406c:	00000164 	andeq	r0, r0, r4, ror #2
    4070:	000a6014 	andeq	r6, sl, r4, lsl r0
    4074:	06720100 	ldrbteq	r0, [r2], -r0, lsl #2
    4078:	00009dc0 	andeq	r9, r0, r0, asr #27
    407c:	00000014 	andeq	r0, r0, r4, lsl r0
    4080:	8d0c9c01 	stchi	12, cr9, [ip, #-4]
    4084:	01000002 	tsteq	r0, r2
    4088:	9dbc066f 	ldcls	6, cr0, [ip, #444]!	; 0x1bc
    408c:	00040000 	andeq	r0, r4, r0
    4090:	9c010000 	stcls	0, cr0, [r1], {-0}
    4094:	000001ae 	andeq	r0, r0, lr, lsr #3
    4098:	01007015 	tsteq	r0, r5, lsl r0
    409c:	008a126f 	addeq	r1, sl, pc, ror #4
    40a0:	50010000 	andpl	r0, r1, r0
    40a4:	0aff1600 	beq	fffc98ac <__bss_end__+0xfffbea84>
    40a8:	5e010000 	cdppl	0, 0, cr0, cr1, cr0, {0}
    40ac:	00008a07 	andeq	r8, r0, r7, lsl #20
    40b0:	009ca400 	addseq	sl, ip, r0, lsl #8
    40b4:	00011800 	andeq	r1, r1, r0, lsl #16
    40b8:	2c9c0100 	ldfcss	f0, [ip], {0}
    40bc:	17000004 	strne	r0, [r0, -r4]
    40c0:	00000301 	andeq	r0, r0, r1, lsl #6
    40c4:	2c205e01 	stccs	14, cr5, [r0], #-4
    40c8:	e7000000 	str	r0, [r0, -r0]
    40cc:	d3000026 	movwle	r0, #38	; 0x26
    40d0:	17000026 	strne	r0, [r0, -r6, lsr #32]
    40d4:	00000a7c 	andeq	r0, r0, ip, ror sl
    40d8:	2c315e01 	ldccs	14, cr5, [r1], #-4
    40dc:	80000000 	andhi	r0, r0, r0
    40e0:	6c000027 	stcvs	0, cr0, [r0], {39}	; 0x27
    40e4:	0e000027 	cdpeq	0, 0, cr0, cr0, cr7, {1}
    40e8:	000000c4 	andeq	r0, r0, r4, asr #1
    40ec:	0000043c 	andeq	r0, r0, ip, lsr r4
    40f0:	a9c40305 	stmibge	r4, {r0, r2, r8, r9}^
    40f4:	68180000 	ldmdavs	r8, {}	; <UNPREDICTABLE>
    40f8:	0e660100 	poweqs	f0, f6, f0
    40fc:	0000002c 	andeq	r0, r0, ip, lsr #32
    4100:	00002836 	andeq	r2, r0, r6, lsr r8
    4104:	0000282a 	andeq	r2, r0, sl, lsr #16
    4108:	00085419 	andeq	r5, r8, r9, lsl r4
    410c:	009cb400 	addseq	fp, ip, r0, lsl #8
    4110:	9cb40400 	cfldrsls	mvf0, [r4]
    4114:	00040000 	andeq	r0, r4, r0
    4118:	60010000 	andvs	r0, r1, r0
    411c:	00023805 	andeq	r3, r2, r5, lsl #16
    4120:	08651a00 	stmdaeq	r5!, {r9, fp, ip}^
    4124:	288a0000 	stmcs	sl, {}	; <UNPREDICTABLE>
    4128:	28880000 	stmcs	r8, {}	; <UNPREDICTABLE>
    412c:	19000000 	stmdbne	r0, {}	; <UNPREDICTABLE>
    4130:	00000896 	muleq	r0, r6, r8
    4134:	00009cc0 	andeq	r9, r0, r0, asr #25
    4138:	009cc002 	addseq	ip, ip, r2
    413c:	00000800 	andeq	r0, r0, r0, lsl #16
    4140:	11610100 	cmnne	r1, r0, lsl #2
    4144:	0000026c 	andeq	r0, r0, ip, ror #4
    4148:	0008b11a 	andeq	fp, r8, sl, lsl r1
    414c:	00289f00 	eoreq	r9, r8, r0, lsl #30
    4150:	00289d00 	eoreq	r9, r8, r0, lsl #26
    4154:	08a71a00 	stmiaeq	r7!, {r9, fp, ip}
    4158:	28b50000 	ldmcs	r5!, {}	; <UNPREDICTABLE>
    415c:	28b30000 	ldmcs	r3!, {}	; <UNPREDICTABLE>
    4160:	1b000000 	blne	4168 <__code_start__-0x3e98>
    4164:	0000081f 	andeq	r0, r0, pc, lsl r8
    4168:	00009cd0 	ldrdeq	r9, [r0], -r0
    416c:	0004a001 	andeq	sl, r4, r1
    4170:	09670100 	stmdbeq	r7!, {r8}^
    4174:	0000030a 	andeq	r0, r0, sl, lsl #6
    4178:	00083a1a 	andeq	r3, r8, sl, lsl sl
    417c:	0028ce00 	eoreq	ip, r8, r0, lsl #28
    4180:	0028c800 	eoreq	ip, r8, r0, lsl #16
    4184:	08301a00 	ldmdaeq	r0!, {r9, fp, ip}
    4188:	29150000 	ldmdbcs	r5, {}	; <UNPREDICTABLE>
    418c:	290d0000 	stmdbcs	sp, {}	; <UNPREDICTABLE>
    4190:	a01c0000 	andsge	r0, ip, r0
    4194:	19000004 	stmdbne	r0, {r2}
    4198:	00000854 	andeq	r0, r0, r4, asr r8
    419c:	00009cd0 	ldrdeq	r9, [r0], -r0
    41a0:	009cd004 	addseq	sp, ip, r4
    41a4:	00000400 	andeq	r0, r0, r0, lsl #8
    41a8:	05110100 	ldreq	r0, [r1, #-256]	; 0xffffff00
    41ac:	000002c7 	andeq	r0, r0, r7, asr #5
    41b0:	0008651a 	andeq	r6, r8, sl, lsl r5
    41b4:	00295300 	eoreq	r5, r9, r0, lsl #6
    41b8:	00295100 	eoreq	r5, r9, r0, lsl #2
    41bc:	680f0000 	stmdavs	pc, {}	; <UNPREDICTABLE>
    41c0:	bc00009d 	stclt	0, cr0, [r0], {157}	; 0x9d
    41c4:	ff000008 			; <UNDEFINED> instruction: 0xff000008
    41c8:	10000002 	andne	r0, r0, r2
    41cc:	03055001 	movweq	r5, #20481	; 0x5001
    41d0:	0000a268 	andeq	sl, r0, r8, ror #4
    41d4:	05510110 	ldrbeq	r0, [r1, #-272]	; 0xfffffef0
    41d8:	00a7ec03 	adceq	lr, r7, r3, lsl #24
    41dc:	52011000 	andpl	r1, r1, #0, 0
    41e0:	a9d40305 	ldmibge	r4, {r0, r2, r8, r9}^
    41e4:	01100000 	tsteq	r0, r0
    41e8:	10410153 	subne	r0, r1, r3, asr r1
    41ec:	05007d02 	streq	r7, [r0, #-3330]	; 0xfffff2fe
    41f0:	00a90003 	adceq	r0, r9, r3
    41f4:	6c110000 	ldcvs	0, cr0, [r1], {-0}
    41f8:	c800009d 	stmdagt	r0, {r0, r2, r3, r4, r7}
    41fc:	00000008 	andeq	r0, r0, r8
    4200:	08701900 	ldmdaeq	r0!, {r8, fp, ip}^
    4204:	9ce80000 	stclls	0, cr0, [r8]
    4208:	e8030000 	stmda	r3, {}	; <UNPREDICTABLE>
    420c:	0400009c 	streq	r0, [r0], #-156	; 0xffffff64
    4210:	01000000 	mrseq	r0, (UNDEF: 0)
    4214:	033e0568 	teqeq	lr, #104, 10	; 0x1a000000
    4218:	8b1a0000 	blhi	684220 <__bss_end__+0x6793f8>
    421c:	68000008 	stmdavs	r0, {r3}
    4220:	66000029 	strvs	r0, [r0], -r9, lsr #32
    4224:	1a000029 	bne	42d0 <__code_start__-0x3d30>
    4228:	00000881 	andeq	r0, r0, r1, lsl #17
    422c:	0000297d 	andeq	r2, r0, sp, ror r9
    4230:	0000297b 	andeq	r2, r0, fp, ror r9
    4234:	9d000f00 	stcls	15, cr0, [r0, #-0]
    4238:	04410000 	strbeq	r0, [r1], #-0
    423c:	03530000 	cmpeq	r3, #0, 0
    4240:	01100000 	tsteq	r0, r0
    4244:	01f30350 	mvnseq	r0, r0, asr r3
    4248:	240f0050 	strcs	r0, [pc], #-80	; 4250 <__code_start__-0x3db0>
    424c:	bc00009d 	stclt	0, cr0, [r0], {157}	; 0x9d
    4250:	8c000008 	stchi	0, cr0, [r0], {8}
    4254:	10000003 	andne	r0, r0, r3
    4258:	03055001 	movweq	r5, #20481	; 0x5001
    425c:	0000a268 	andeq	sl, r0, r8, ror #4
    4260:	05510110 	ldrbeq	r0, [r1, #-272]	; 0xfffffef0
    4264:	00a7ec03 	adceq	lr, r7, r3, lsl #24
    4268:	52011000 	andpl	r1, r1, #0, 0
    426c:	a9c40305 	stmibge	r4, {r0, r2, r8, r9}^
    4270:	01100000 	tsteq	r0, r0
    4274:	5f080253 	svcpl	0x00080253
    4278:	007d0210 	rsbseq	r0, sp, r0, lsl r2
    427c:	a7fc0305 	ldrbge	r0, [ip, r5, lsl #6]!
    4280:	11000000 	mrsne	r0, (UNDEF: 0)
    4284:	00009d28 	andeq	r9, r0, r8, lsr #26
    4288:	000008c8 	andeq	r0, r0, r8, asr #17
    428c:	009d2c11 	addseq	r2, sp, r1, lsl ip
    4290:	0008d400 	andeq	sp, r8, r0, lsl #8
    4294:	9d480f00 	stclls	15, cr0, [r8, #-0]
    4298:	08bc0000 	ldmeq	ip!, {}	; <UNPREDICTABLE>
    429c:	03d70000 	bicseq	r0, r7, #0, 0
    42a0:	01100000 	tsteq	r0, r0
    42a4:	b8030550 	stmdalt	r3, {r4, r6, r8, sl}
    42a8:	100000a8 	andne	r0, r0, r8, lsr #1
    42ac:	03055101 	movweq	r5, #20737	; 0x5101
    42b0:	0000a7ec 	andeq	sl, r0, ip, ror #15
    42b4:	05520110 	ldrbeq	r0, [r2, #-272]	; 0xfffffef0
    42b8:	00a9c403 	adceq	ip, r9, r3, lsl #8
    42bc:	53011000 	movwpl	r1, #4096	; 0x1000
    42c0:	10600802 	rsbne	r0, r0, r2, lsl #16
    42c4:	05007d02 	streq	r7, [r0, #-3330]	; 0xfffff2fe
    42c8:	00a8ec03 	adceq	lr, r8, r3, lsl #24
    42cc:	4c110000 	ldcmi	0, cr0, [r1], {-0}
    42d0:	c800009d 	stmdagt	r0, {r0, r2, r3, r4, r7}
    42d4:	11000008 	tstne	r0, r8
    42d8:	00009d70 	andeq	r9, r0, r0, ror sp
    42dc:	000008d4 	ldrdeq	r0, [r0], -r4
    42e0:	009d8c0f 	addseq	r8, sp, pc, lsl #24
    42e4:	0008bc00 	andeq	fp, r8, r0, lsl #24
    42e8:	00042200 	andeq	r2, r4, r0, lsl #4
    42ec:	50011000 	andpl	r1, r1, r0
    42f0:	a90c0305 	stmdbge	ip, {r0, r2, r8, r9}
    42f4:	01100000 	tsteq	r0, r0
    42f8:	ec030551 	cfstr32	mvfx0, [r3], {81}	; 0x51
    42fc:	100000a7 	andne	r0, r0, r7, lsr #1
    4300:	03055201 	movweq	r5, #20993	; 0x5201
    4304:	0000a9c4 	andeq	sl, r0, r4, asr #19
    4308:	02530110 	subseq	r0, r3, #4
    430c:	02106808 	andseq	r6, r0, #8, 16	; 0x80000
    4310:	0305007d 	movweq	r0, #20605	; 0x507d
    4314:	0000a938 	andeq	sl, r0, r8, lsr r9
    4318:	9d901100 	ldflss	f1, [r0]
    431c:	08c80000 	stmiaeq	r8, {}^	; <UNPREDICTABLE>
    4320:	12000000 	andne	r0, r0, #0, 0
    4324:	0000007e 	andeq	r0, r0, lr, ror r0
    4328:	0000043c 	andeq	r0, r0, ip, lsr r4
    432c:	00002c13 	andeq	r2, r0, r3, lsl ip
    4330:	05000f00 	streq	r0, [r0, #-3840]	; 0xfffff100
    4334:	0000042c 	andeq	r0, r0, ip, lsr #8
    4338:	00044416 	andeq	r4, r4, r6, lsl r4
    433c:	07530100 	ldrbeq	r0, [r3, -r0, lsl #2]
    4340:	0000008a 	andeq	r0, r0, sl, lsl #1
    4344:	00009c40 	andeq	r9, r0, r0, asr #24
    4348:	00000064 	andeq	r0, r0, r4, rrx
    434c:	05089c01 	streq	r9, [r8, #-3073]	; 0xfffff3ff
    4350:	01170000 	tsteq	r7, r0
    4354:	01000003 	tsteq	r0, r3
    4358:	002c1853 	eoreq	r1, ip, r3, asr r8
    435c:	29980000 	ldmibcs	r8, {}	; <UNPREDICTABLE>
    4360:	29900000 	ldmibcs	r0, {}	; <UNPREDICTABLE>
    4364:	c40e0000 	strgt	r0, [lr], #-0
    4368:	18000000 	stmdane	r0, {}	; <UNPREDICTABLE>
    436c:	05000005 	streq	r0, [r0, #-5]
    4370:	00a9bc03 	adceq	fp, r9, r3, lsl #24
    4374:	0a521d00 	beq	148b77c <__bss_end__+0x1480954>
    4378:	55010000 	strpl	r0, [r1, #-0]
    437c:	00008a0b 	andeq	r8, r0, fp, lsl #20
    4380:	0029d000 	eoreq	sp, r9, r0
    4384:	0029cc00 	eoreq	ip, r9, r0, lsl #24
    4388:	9c580f00 	mrrcls	15, 0, r0, r8, cr0
    438c:	051d0000 	ldreq	r0, [sp, #-0]
    4390:	04a60000 	strteq	r0, [r6], #0
    4394:	01100000 	tsteq	r0, r0
    4398:	00740250 	rsbseq	r0, r4, r0, asr r2
    439c:	9c680f00 	stclls	15, cr0, [r8], #-0
    43a0:	08e00000 	stmiaeq	r0!, {}^	; <UNPREDICTABLE>
    43a4:	04c50000 	strbeq	r0, [r5], #0
    43a8:	01100000 	tsteq	r0, r0
    43ac:	00750250 	rsbseq	r0, r5, r0, asr r2
    43b0:	01510110 	cmpeq	r1, r0, lsl r1
    43b4:	52011030 	andpl	r1, r1, #48, 0	; 0x30
    43b8:	00007402 	andeq	r7, r0, r2, lsl #8
    43bc:	009c900f 	addseq	r9, ip, pc
    43c0:	0008bc00 	andeq	fp, r8, r0, lsl #24
    43c4:	0004fe00 	andeq	pc, r4, r0, lsl #28
    43c8:	50011000 	andpl	r1, r1, r0
    43cc:	a2680305 	rsbge	r0, r8, #335544320	; 0x14000000
    43d0:	01100000 	tsteq	r0, r0
    43d4:	ec030551 	cfstr32	mvfx0, [r3], {81}	; 0x51
    43d8:	100000a7 	andne	r0, r0, r7, lsr #1
    43dc:	03055201 	movweq	r5, #20993	; 0x5201
    43e0:	0000a9bc 			; <UNDEFINED> instruction: 0x0000a9bc
    43e4:	02530110 	subseq	r0, r3, #4
    43e8:	02105408 	andseq	r5, r0, #8, 8	; 0x8000000
    43ec:	0305007d 	movweq	r0, #20605	; 0x507d
    43f0:	0000a7fc 	strdeq	sl, [r0], -ip
    43f4:	9c941100 	ldflss	f1, [r4], {0}
    43f8:	08c80000 	stmiaeq	r8, {}^	; <UNPREDICTABLE>
    43fc:	12000000 	andne	r0, r0, #0, 0
    4400:	0000007e 	andeq	r0, r0, lr, ror r0
    4404:	00000518 	andeq	r0, r0, r8, lsl r5
    4408:	00002c13 	andeq	r2, r0, r3, lsl ip
    440c:	05000700 	streq	r0, [r0, #-1792]	; 0xfffff900
    4410:	00000508 	andeq	r0, r0, r8, lsl #10
    4414:	000aa516 	andeq	sl, sl, r6, lsl r5
    4418:	07470100 	strbeq	r0, [r7, -r0, lsl #2]
    441c:	0000008a 	andeq	r0, r0, sl, lsl #1
    4420:	00009ba8 	andeq	r9, r0, r8, lsr #23
    4424:	00000098 	muleq	r0, r8, r0
    4428:	062b9c01 	strteq	r9, [fp], -r1, lsl #24
    442c:	01170000 	tsteq	r7, r0
    4430:	01000003 	tsteq	r0, r3
    4434:	002c2047 	eoreq	r2, ip, r7, asr #32
    4438:	29fe0000 	ldmibcs	lr!, {}^	; <UNPREDICTABLE>
    443c:	29ee0000 	stmibcs	lr!, {}^	; <UNPREDICTABLE>
    4440:	c40e0000 	strgt	r0, [lr], #-0
    4444:	3c000000 	stccc	0, cr0, [r0], {-0}
    4448:	05000004 	streq	r0, [r0, #-4]
    444c:	00a9ac03 	adceq	sl, r9, r3, lsl #24
    4450:	0a521d00 	beq	148b858 <__bss_end__+0x1480a30>
    4454:	4b010000 	blmi	4445c <__bss_end__+0x39634>
    4458:	00008a0b 	andeq	r8, r0, fp, lsl #20
    445c:	002a7000 	eoreq	r7, sl, r0
    4460:	002a6c00 	eoreq	r6, sl, r0, lsl #24
    4464:	081f1b00 	ldmdaeq	pc, {r8, r9, fp, ip}	; <UNPREDICTABLE>
    4468:	9bb80000 	blls	fee04470 <__bss_end__+0xfedf9648>
    446c:	88030000 	stmdahi	r3, {}	; <UNPREDICTABLE>
    4470:	01000004 	tsteq	r0, r4
    4474:	05a30e49 	streq	r0, [r3, #3657]!	; 0xe49
    4478:	3a1a0000 	bcc	684480 <__bss_end__+0x679658>
    447c:	90000008 	andls	r0, r0, r8
    4480:	8e00002a 	cdphi	0, 0, cr0, cr0, cr10, {1}
    4484:	1a00002a 	bne	4534 <__code_start__-0x3acc>
    4488:	00000830 	andeq	r0, r0, r0, lsr r8
    448c:	00002aa8 	andeq	r2, r0, r8, lsr #21
    4490:	00002aa4 	andeq	r2, r0, r4, lsr #21
    4494:	0004881e 	andeq	r8, r4, lr, lsl r8
    4498:	000f0000 	andeq	r0, pc, r0
    449c:	bc00009c 	stclt	0, cr0, [r0], {156}	; 0x9c
    44a0:	dc000008 	stcle	0, cr0, [r0], {8}
    44a4:	10000005 	andne	r0, r0, r5
    44a8:	03055001 	movweq	r5, #20481	; 0x5001
    44ac:	0000a268 	andeq	sl, r0, r8, ror #4
    44b0:	05510110 	ldrbeq	r0, [r1, #-272]	; 0xfffffef0
    44b4:	00a7ec03 	adceq	lr, r7, r3, lsl #24
    44b8:	52011000 	andpl	r1, r1, #0, 0
    44bc:	a9ac0305 	stmibge	ip!, {r0, r2, r8, r9}
    44c0:	01100000 	tsteq	r0, r0
    44c4:	48080253 	stmdami	r8, {r0, r1, r4, r6, r9}
    44c8:	007d0210 	rsbseq	r0, sp, r0, lsl r2
    44cc:	a7fc0305 	ldrbge	r0, [ip, r5, lsl #6]!
    44d0:	11000000 	mrsne	r0, (UNDEF: 0)
    44d4:	00009c04 	andeq	r9, r0, r4, lsl #24
    44d8:	000008c8 	andeq	r0, r0, r8, asr #17
    44dc:	009c240f 	addseq	r2, ip, pc, lsl #8
    44e0:	0008bc00 	andeq	fp, r8, r0, lsl #24
    44e4:	00062100 	andeq	r2, r6, r0, lsl #2
    44e8:	50011000 	andpl	r1, r1, r0
    44ec:	a8780305 	ldmdage	r8!, {r0, r2, r8, r9}^
    44f0:	01100000 	tsteq	r0, r0
    44f4:	ec030551 	cfstr32	mvfx0, [r3], {81}	; 0x51
    44f8:	100000a7 	andne	r0, r0, r7, lsr #1
    44fc:	03055201 	movweq	r5, #20993	; 0x5201
    4500:	0000a9ac 	andeq	sl, r0, ip, lsr #19
    4504:	02530110 	subseq	r0, r3, #4
    4508:	02104e08 	andseq	r4, r0, #8, 28	; 0x80
    450c:	f308007d 	vqadd.u8	q0, q4, <illegal reg q14.5>
    4510:	07235001 	streq	r5, [r3, -r1]!
    4514:	001af809 	andseq	pc, sl, r9, lsl #16
    4518:	009c2811 	addseq	r2, ip, r1, lsl r8
    451c:	0008c800 	andeq	ip, r8, r0, lsl #16
    4520:	c70c0000 	strgt	r0, [ip, -r0]
    4524:	0100000a 	tsteq	r0, sl
    4528:	9b50063c 	blls	1405e20 <__bss_end__+0x13faff8>
    452c:	00580000 	subseq	r0, r8, r0
    4530:	9c010000 	stcls	0, cr0, [r1], {-0}
    4534:	000006cf 	andeq	r0, r0, pc, asr #13
    4538:	00039c0a 	andeq	r9, r3, sl, lsl #24
    453c:	103d0100 	eorsne	r0, sp, r0, lsl #2
    4540:	00000025 	andeq	r0, r0, r5, lsr #32
    4544:	ae240305 	cdpge	3, 2, cr0, cr4, cr5, {0}
    4548:	c40e0000 	strgt	r0, [lr], #-0
    454c:	df000000 	svcle	0x00000000
    4550:	05000006 	streq	r0, [r0, #-6]
    4554:	00a99c03 	adceq	r9, r9, r3, lsl #24
    4558:	04070700 	streq	r0, [r7], #-1792	; 0xfffff900
    455c:	0000002c 	andeq	r0, r0, ip, lsr #32
    4560:	7a0a4201 	bvc	294d6c <__bss_end__+0x289f44>
    4564:	08000006 	stmdaeq	r0, {r1, r2}
    4568:	00000a8e 	andeq	r0, r0, lr, lsl #21
    456c:	00100000 	andseq	r0, r0, r0
    4570:	9b7c0f00 	blls	1f08178 <__bss_end__+0x1efd350>
    4574:	06e40000 	strbteq	r0, [r4], r0
    4578:	06960000 	ldreq	r0, [r6], r0
    457c:	01100000 	tsteq	r0, r0
    4580:	40400350 	submi	r0, r0, r0, asr r3
    4584:	51011024 	tstpl	r1, r4, lsr #32
    4588:	24484003 	strbcs	r4, [r8], #-3
    458c:	9b940f00 	blls	fe508194 <__bss_end__+0xfe4fd36c>
    4590:	08bc0000 	ldmeq	ip!, {}	; <UNPREDICTABLE>
    4594:	06c50000 	strbeq	r0, [r5], r0
    4598:	01100000 	tsteq	r0, r0
    459c:	48030550 	stmdami	r3, {r4, r6, r8, sl}
    45a0:	100000a8 	andne	r0, r0, r8, lsr #1
    45a4:	03055101 	movweq	r5, #20737	; 0x5101
    45a8:	0000a7ec 	andeq	sl, r0, ip, ror #15
    45ac:	05520110 	ldrbeq	r0, [r2, #-272]	; 0xfffffef0
    45b0:	00a99c03 	adceq	r9, r9, r3, lsl #24
    45b4:	53011000 	movwpl	r1, #4096	; 0x1000
    45b8:	00400802 	subeq	r0, r0, r2, lsl #16
    45bc:	009b9811 	addseq	r9, fp, r1, lsl r8
    45c0:	0008c800 	andeq	ip, r8, r0, lsl #16
    45c4:	7e120000 	cdpvc	0, 1, cr0, cr2, cr0, {0}
    45c8:	df000000 	svcle	0x00000000
    45cc:	13000006 	movwne	r0, #6
    45d0:	0000002c 	andeq	r0, r0, ip, lsr #32
    45d4:	cf05000c 	svcgt	0x0005000c
    45d8:	0c000006 	stceq	0, cr0, [r0], {6}
    45dc:	0000044c 	andeq	r0, r0, ip, asr #8
    45e0:	b4062d01 	strlt	r2, [r6], #-3329	; 0xfffff2ff
    45e4:	9c00009a 	stcls	0, cr0, [r0], {154}	; 0x9a
    45e8:	01000000 	mrseq	r0, (UNDEF: 0)
    45ec:	0007c89c 	muleq	r7, ip, r8
    45f0:	0a511700 	beq	144a1f8 <__bss_end__+0x143f3d0>
    45f4:	2d010000 	stccs	0, cr0, [r1, #-0]
    45f8:	00002c26 	andeq	r2, r0, r6, lsr #24
    45fc:	002ad600 	eoreq	sp, sl, r0, lsl #12
    4600:	002ac800 	eoreq	ip, sl, r0, lsl #16
    4604:	0a461700 	beq	118a20c <__bss_end__+0x117f3e4>
    4608:	2d010000 	stccs	0, cr0, [r1, #-0]
    460c:	00002c36 	andeq	r2, r0, r6, lsr ip
    4610:	002b3e00 	eoreq	r3, fp, r0, lsl #28
    4614:	002b3600 	eoreq	r3, fp, r0, lsl #12
    4618:	0a521d00 	beq	148ba20 <__bss_end__+0x1480bf8>
    461c:	2e010000 	cdpcs	0, 0, cr0, cr1, cr0, {0}
    4620:	0000c20b 	andeq	ip, r0, fp, lsl #4
    4624:	002b8600 	eoreq	r8, fp, r0, lsl #12
    4628:	002b7800 	eoreq	r7, fp, r0, lsl #16
    462c:	00c40e00 	sbceq	r0, r4, r0, lsl #28
    4630:	07d80000 	ldrbeq	r0, [r8, r0]
    4634:	03050000 	movweq	r0, #20480	; 0x5000
    4638:	0000a984 	andeq	sl, r0, r4, lsl #19
    463c:	009b0c0f 	addseq	r0, fp, pc, lsl #24
    4640:	0008bc00 	andeq	fp, r8, r0, lsl #24
    4644:	00077e00 	andeq	r7, r7, r0, lsl #28
    4648:	50011000 	andpl	r1, r1, r0
    464c:	a2680305 	rsbge	r0, r8, #335544320	; 0x14000000
    4650:	01100000 	tsteq	r0, r0
    4654:	ec030551 	cfstr32	mvfx0, [r3], {81}	; 0x51
    4658:	100000a7 	andne	r0, r0, r7, lsr #1
    465c:	03055201 	movweq	r5, #20993	; 0x5201
    4660:	0000a984 	andeq	sl, r0, r4, lsl #19
    4664:	02530110 	subseq	r0, r3, #4
    4668:	02103008 	andseq	r3, r0, #8, 0
    466c:	0305007d 	movweq	r0, #20605	; 0x507d
    4670:	0000a7f8 	strdeq	sl, [r0], -r8
    4674:	9b101100 	blls	408a7c <__bss_end__+0x3fdc54>
    4678:	08c80000 	stmiaeq	r8, {}^	; <UNPREDICTABLE>
    467c:	340f0000 	strcc	r0, [pc], #-0	; 4684 <__code_start__-0x397c>
    4680:	bc00009b 	stclt	0, cr0, [r0], {155}	; 0x9b
    4684:	be000008 	cdplt	0, 0, cr0, cr0, cr8, {0}
    4688:	10000007 	andne	r0, r0, r7
    468c:	03055001 	movweq	r5, #20481	; 0x5001
    4690:	0000a804 	andeq	sl, r0, r4, lsl #16
    4694:	05510110 	ldrbeq	r0, [r1, #-272]	; 0xfffffef0
    4698:	00a7ec03 	adceq	lr, r7, r3, lsl #24
    469c:	52011000 	andpl	r1, r1, #0, 0
    46a0:	a9840305 	stmibge	r4, {r0, r2, r8, r9}
    46a4:	01100000 	tsteq	r0, r0
    46a8:	34080253 	strcc	r0, [r8], #-595	; 0xfffffdad
    46ac:	007d0210 	rsbseq	r0, sp, r0, lsl r2
    46b0:	5001f303 	andpl	pc, r1, r3, lsl #6
    46b4:	9b381100 	blls	e08abc <__bss_end__+0xdfdc94>
    46b8:	08c80000 	stmiaeq	r8, {}^	; <UNPREDICTABLE>
    46bc:	12000000 	andne	r0, r0, #0, 0
    46c0:	0000007e 	andeq	r0, r0, lr, ror r0
    46c4:	000007d8 	ldrdeq	r0, [r0], -r8
    46c8:	00002c13 	andeq	r2, r0, r3, lsl ip
    46cc:	05001600 	streq	r1, [r0, #-1536]	; 0xfffffa00
    46d0:	000007c8 	andeq	r0, r0, r8, asr #15
    46d4:	000adf1f 	andeq	sp, sl, pc, lsl pc
    46d8:	072a0100 	streq	r0, [sl, -r0, lsl #2]!
    46dc:	0000008a 	andeq	r0, r0, sl, lsl #1
    46e0:	00009aa4 	andeq	r9, r0, r4, lsr #21
    46e4:	00000010 	andeq	r0, r0, r0, lsl r0
    46e8:	331f9c01 	tstcc	pc, #256	; 0x100
    46ec:	0100000a 	tsteq	r0, sl
    46f0:	008a0729 	addeq	r0, sl, r9, lsr #14
    46f4:	9a940000 	bls	fe5046fc <__bss_end__+0xfe4f98d4>
    46f8:	00100000 	andseq	r0, r0, r0
    46fc:	9c010000 	stcls	0, cr0, [r1], {-0}
    4700:	000a941f 	andeq	r9, sl, pc, lsl r4
    4704:	07280100 	streq	r0, [r8, -r0, lsl #2]!
    4708:	0000008a 	andeq	r0, r0, sl, lsl #1
    470c:	00009a84 	andeq	r9, r0, r4, lsl #21
    4710:	00000010 	andeq	r0, r0, r0, lsl r0
    4714:	6a209c01 	bvs	82b720 <__bss_end__+0x8208f8>
    4718:	0100000a 	tsteq	r0, sl
    471c:	002c1810 	eoreq	r1, ip, r0, lsl r8
    4720:	54030000 	strpl	r0, [r3], #-0
    4724:	21000008 	tstcs	r0, r8
    4728:	10010078 	andne	r0, r1, r8, ror r0
    472c:	00002c29 	andeq	r2, r0, r9, lsr #24
    4730:	006e2100 	rsbeq	r2, lr, r0, lsl #2
    4734:	2c351001 	ldccs	0, cr1, [r5], #-4
    4738:	0e000000 	cdpeq	0, 0, cr0, cr0, cr0, {0}
    473c:	000000c4 	andeq	r0, r0, r4, asr #1
    4740:	00000518 	andeq	r0, r0, r8, lsl r5
    4744:	a9d40305 	ldmibge	r4, {r0, r2, r8, r9}^
    4748:	20000000 	andcs	r0, r0, r0
    474c:	00000ab5 			; <UNDEFINED> instruction: 0x00000ab5
    4750:	2c180d01 	ldccs	13, cr0, [r8], {1}
    4754:	03000000 	movweq	r0, #0
    4758:	00000870 	andeq	r0, r0, r0, ror r8
    475c:	01007821 	tsteq	r0, r1, lsr #16
    4760:	002c290d 	eoreq	r2, ip, sp, lsl #18
    4764:	20000000 	andcs	r0, r0, r0
    4768:	00000ad4 	ldrdeq	r0, [r0], -r4
    476c:	2c180701 	ldccs	7, cr0, [r8], {1}
    4770:	03000000 	movweq	r0, #0
    4774:	00000896 	muleq	r0, r6, r8
    4778:	01007821 	tsteq	r0, r1, lsr #16
    477c:	002c2c07 	eoreq	r2, ip, r7, lsl #24
    4780:	6e210000 	cdpvs	0, 2, cr0, cr1, cr0, {0}
    4784:	38070100 	stmdacc	r7, {r8}
    4788:	0000002c 	andeq	r0, r0, ip, lsr #32
    478c:	0a862000 	beq	fe18c794 <__bss_end__+0xfe18196c>
    4790:	04010000 	streq	r0, [r1], #-0
    4794:	00005d18 	andeq	r5, r0, r8, lsl sp
    4798:	08bc0300 	ldmeq	ip!, {r8, r9}
    479c:	78210000 	stmdavc	r1!, {}	; <UNPREDICTABLE>
    47a0:	29040100 	stmdbcs	r4, {r8}
    47a4:	0000005d 	andeq	r0, r0, sp, asr r0
    47a8:	01007921 	tsteq	r0, r1, lsr #18
    47ac:	005d3504 	subseq	r3, sp, r4, lsl #10
    47b0:	22000000 	andcs	r0, r0, #0, 0
    47b4:	00000595 	muleq	r0, r5, r5
    47b8:	00000595 	muleq	r0, r5, r5
    47bc:	22062802 	andcs	r2, r6, #131072	; 0x20000
    47c0:	00000083 	andeq	r0, r0, r3, lsl #1
    47c4:	00000083 	andeq	r0, r0, r3, lsl #1
    47c8:	22066e02 	andcs	r6, r6, #2, 28
    47cc:	00000af0 	strdeq	r0, [r0], -r0	; <UNPREDICTABLE>
    47d0:	00000af0 	strdeq	r0, [r0], -r0	; <UNPREDICTABLE>
    47d4:	22061d02 	andcs	r1, r6, #128	; 0x80
    47d8:	0000029e 	muleq	r0, lr, r2
    47dc:	0000029e 	muleq	r0, lr, r2
    47e0:	0007f202 	andeq	pc, r7, r2, lsl #4
    47e4:	00000673 	andeq	r0, r0, r3, ror r6
    47e8:	19090004 	stmdbne	r9, {r2}
    47ec:	01040000 	mrseq	r0, (UNDEF: 4)
    47f0:	000004b3 			; <UNDEFINED> instruction: 0x000004b3
    47f4:	000b420c 	andeq	r4, fp, ip, lsl #4
    47f8:	00056b00 	andeq	r6, r5, r0, lsl #22
    47fc:	009e3400 	addseq	r3, lr, r0, lsl #8
    4800:	00019800 	andeq	r9, r1, r0, lsl #16
    4804:	00229700 	eoreq	r9, r2, r0, lsl #14
    4808:	07080200 	streq	r0, [r8, -r0, lsl #4]
    480c:	000000e0 	andeq	r0, r0, r0, ror #1
    4810:	ea070402 	b	1c5820 <__bss_end__+0x1ba9f8>
    4814:	03000000 	movweq	r0, #0
    4818:	6e690504 	cdpvs	5, 6, cr0, cr9, cr4, {0}
    481c:	2c040074 	stccs	0, cr0, [r4], {116}	; 0x74
    4820:	02000000 	andeq	r0, r0, #0, 0
    4824:	00770601 	rsbseq	r0, r7, r1, lsl #12
    4828:	02020000 	andeq	r0, r2, #0, 0
    482c:	0001fd05 	andeq	pc, r1, r5, lsl #26
    4830:	05040200 	streq	r0, [r4, #-512]	; 0xfffffe00
    4834:	0000010e 	andeq	r0, r0, lr, lsl #2
    4838:	09050802 	stmdbeq	r5, {r1, fp}
    483c:	02000001 	andeq	r0, r0, #1, 0
    4840:	00750801 	rsbseq	r0, r5, r1, lsl #16
    4844:	02020000 	andeq	r0, r2, #0, 0
    4848:	00009007 	andeq	r9, r0, r7
    484c:	021a0500 	andseq	r0, sl, #0, 10
    4850:	34030000 	strcc	r0, [r3], #-0
    4854:	00007519 	andeq	r7, r0, r9, lsl r5
    4858:	07040200 	streq	r0, [r4, -r0, lsl #4]
    485c:	000000e5 	andeq	r0, r0, r5, ror #1
    4860:	00003306 	andeq	r3, r0, r6, lsl #6
    4864:	00008b00 	andeq	r8, r0, r0, lsl #22
    4868:	00330700 	eorseq	r0, r3, r0, lsl #14
    486c:	08000000 	stmdaeq	r0, {}	; <UNPREDICTABLE>
    4870:	00000223 	andeq	r0, r0, r3, lsr #4
    4874:	970e1c02 	strls	r1, [lr, -r2, lsl #24]
    4878:	09000000 	stmdbeq	r0, {}	; <UNPREDICTABLE>
    487c:	00007c04 	andeq	r7, r0, r4, lsl #24
    4880:	00330600 	eorseq	r0, r3, r0, lsl #12
    4884:	00ac0000 	adceq	r0, ip, r0
    4888:	ac070000 	stcge	0, cr0, [r7], {-0}
    488c:	00000000 	andeq	r0, r0, r0
    4890:	00b90409 	adcseq	r0, r9, r9, lsl #8
    4894:	01020000 	mrseq	r0, (UNDEF: 2)
    4898:	00007e08 	andeq	r7, r0, r8, lsl #28
    489c:	00b20400 	adcseq	r0, r2, r0, lsl #8
    48a0:	d3080000 	movwle	r0, #32768	; 0x8000
    48a4:	02000005 	andeq	r0, r0, #5, 0
    48a8:	00ca0e21 	sbceq	r0, sl, r1, lsr #28
    48ac:	04090000 	streq	r0, [r9], #-0
    48b0:	0000009d 	muleq	r0, sp, r0
    48b4:	5b01070a 	blpl	464e4 <__bss_end__+0x3b6bc>
    48b8:	04000000 	streq	r0, [r0], #-0
    48bc:	010f0e0c 	tsteq	pc, ip, lsl #28
    48c0:	0b0b0000 	bleq	2c48c8 <__bss_end__+0x2b9aa0>
    48c4:	0000000a 	andeq	r0, r0, sl
    48c8:	0008430b 	andeq	r4, r8, fp, lsl #6
    48cc:	860b0100 	strhi	r0, [fp], -r0, lsl #2
    48d0:	04000008 	streq	r0, [r0], #-8
    48d4:	0008950b 	andeq	r9, r8, fp, lsl #10
    48d8:	a40b0500 	strge	r0, [fp], #-1280	; 0xfffffb00
    48dc:	06000008 	streq	r0, [r0], -r8
    48e0:	0008b30b 	andeq	fp, r8, fp, lsl #6
    48e4:	d40b0700 	strle	r0, [fp], #-1792	; 0xfffff900
    48e8:	03000009 	movweq	r0, #9
    48ec:	0008c20b 	andeq	ip, r8, fp, lsl #4
    48f0:	05000200 	streq	r0, [r0, #-512]	; 0xfffffe00
    48f4:	00000b7b 	andeq	r0, r0, fp, ror fp
    48f8:	d0031504 	andle	r1, r3, r4, lsl #10
    48fc:	0c000000 	stceq	0, cr0, [r0], {-0}
    4900:	00000b19 	andeq	r0, r0, r9, lsl fp
    4904:	3a171d01 	bcc	5cbd10 <__bss_end__+0x5c0ee8>
    4908:	1c000000 	stcne	0, cr0, [r0], {-0}
    490c:	0c202000 	stceq	0, cr2, [r0], #-0
    4910:	00000b0f 	andeq	r0, r0, pc, lsl #22
    4914:	3a171e01 	bcc	5cc120 <__bss_end__+0x5c12f8>
    4918:	28000000 	stmdacs	r0, {}	; <UNPREDICTABLE>
    491c:	0c202000 	stceq	0, cr2, [r0], #-0
    4920:	00000b87 	andeq	r0, r0, r7, lsl #23
    4924:	3a171f01 	bcc	5cc530 <__bss_end__+0x5c1708>
    4928:	34000000 	strcc	r0, [r0], #-0
    492c:	0d202000 	stceq	0, cr2, [r0, #-0]
    4930:	00000b38 	andeq	r0, r0, r8, lsr fp
    4934:	33055101 	movwcc	r5, #20737	; 0x5101
    4938:	a4000000 	strge	r0, [r0], #-0
    493c:	2800009f 	stmdacs	r0, {r0, r1, r2, r3, r4, r7}
    4940:	01000000 	mrseq	r0, (UNDEF: 0)
    4944:	0001ba9c 	muleq	r1, ip, sl
    4948:	69700e00 	ldmdbvs	r0!, {r9, sl, fp}^
    494c:	5101006e 	tstpl	r1, lr, rrx
    4950:	00002c18 	andeq	r2, r0, r8, lsl ip
    4954:	002bec00 	eoreq	lr, fp, r0, lsl #24
    4958:	002be600 	eoreq	lr, fp, r0, lsl #12
    495c:	0b910f00 	bleq	fe448564 <__bss_end__+0xfe43d73c>
    4960:	52010000 	andpl	r0, r1, #0, 0
    4964:	00002c0e 	andeq	r2, r0, lr, lsl #24
    4968:	002c2200 	eoreq	r2, ip, r0, lsl #4
    496c:	002c1800 	eoreq	r1, ip, r0, lsl #16
    4970:	666f1000 	strbtvs	r1, [pc], -r0
    4974:	53010066 	movwpl	r0, #4198	; 0x1066
    4978:	00002c0e 	andeq	r2, r0, lr, lsl #24
    497c:	002c9000 	eoreq	r9, ip, r0
    4980:	002c8a00 	eoreq	r8, ip, r0, lsl #20
    4984:	9fb81100 	svcls	0x00b81100
    4988:	065e0000 	ldrbeq	r0, [lr], -r0
    498c:	01120000 	tsteq	r2, r0
    4990:	00740a50 	rsbseq	r0, r4, r0, asr sl
    4994:	b4232535 	strtlt	r2, [r3], #-1333	; 0xfffffacb
    4998:	02818080 	addeq	r8, r1, #128, 0	; 0x80
    499c:	23130000 	tstcs	r3, #0, 0
    49a0:	0100000b 	tsteq	r0, fp
    49a4:	9f74064a 	svcls	0x0074064a
    49a8:	00300000 	eorseq	r0, r0, r0
    49ac:	9c010000 	stcls	0, cr0, [r1], {-0}
    49b0:	00000275 	andeq	r0, r0, r5, ror r2
    49b4:	6e69700e 	cdpvs	0, 6, cr7, cr9, cr14, {0}
    49b8:	1a4a0100 	bne	1284dc0 <__bss_end__+0x1279f98>
    49bc:	0000002c 	andeq	r0, r0, ip, lsr #32
    49c0:	00002ccd 	andeq	r2, r0, sp, asr #25
    49c4:	00002cc1 	andeq	r2, r0, r1, asr #25
    49c8:	0100760e 	tsteq	r0, lr, lsl #12
    49cc:	002c284a 	eoreq	r2, ip, sl, asr #16
    49d0:	2d210000 	stccs	0, cr0, [r1, #-0]
    49d4:	2d1d0000 	ldccs	0, cr0, [sp, #-0]
    49d8:	8d140000 	ldchi	0, cr0, [r4, #-0]
    49dc:	84000003 	strhi	r0, [r0], #-3
    49e0:	0100009f 	swpeq	r0, pc, [r0]	; <UNPREDICTABLE>
    49e4:	00000558 	andeq	r0, r0, r8, asr r5
    49e8:	35094c01 	strcc	r4, [r9, #-3073]	; 0xfffff3ff
    49ec:	15000002 	strne	r0, [r0, #-2]
    49f0:	0000039a 	muleq	r0, sl, r3
    49f4:	00002d48 	andeq	r2, r0, r8, asr #26
    49f8:	00002d42 	andeq	r2, r0, r2, asr #26
    49fc:	009f9016 	addseq	r9, pc, r6, lsl r0	; <UNPREDICTABLE>
    4a00:	00066a00 	andeq	r6, r6, r0, lsl #20
    4a04:	50011200 	andpl	r1, r1, r0, lsl #4
    4a08:	001c0c05 	andseq	r0, ip, r5, lsl #24
    4a0c:	01122020 	tsteq	r2, r0, lsr #32
    4a10:	f3310551 	vqrshl.u64	q0, <illegal reg q0.5>, <illegal reg q0.5>
    4a14:	00245001 	eoreq	r5, r4, r1
    4a18:	03731700 	cmneq	r3, #0, 14
    4a1c:	9f900000 	svcls	0x00900000
    4a20:	90020000 	andls	r0, r2, r0
    4a24:	1400009f 	strne	r0, [r0], #-159	; 0xffffff61
    4a28:	01000000 	mrseq	r0, (UNDEF: 0)
    4a2c:	8015094e 	andshi	r0, r5, lr, asr #18
    4a30:	7a000003 	bvc	4a44 <__code_start__-0x35bc>
    4a34:	7400002d 	strvc	r0, [r0], #-45	; 0xffffffd3
    4a38:	1600002d 	strne	r0, [r0], -sp, lsr #32
    4a3c:	00009f9c 	muleq	r0, ip, pc	; <UNPREDICTABLE>
    4a40:	0000066a 	andeq	r0, r0, sl, ror #12
    4a44:	05500112 	ldrbeq	r0, [r0, #-274]	; 0xfffffeee
    4a48:	2000280c 	andcs	r2, r0, ip, lsl #16
    4a4c:	51011220 	tstpl	r1, r0, lsr #4
    4a50:	01f33105 	mvnseq	r3, r5, lsl #2
    4a54:	00002450 	andeq	r2, r0, r0, asr r4
    4a58:	0b4f1300 	bleq	13c9660 <__bss_end__+0x13be838>
    4a5c:	45010000 	strmi	r0, [r1, #-0]
    4a60:	009f1c06 	addseq	r1, pc, r6, lsl #24
    4a64:	00005800 	andeq	r5, r0, r0, lsl #16
    4a68:	739c0100 	orrsvc	r0, ip, #0
    4a6c:	0e000003 	cdpeq	0, 0, cr0, cr0, cr3, {0}
    4a70:	006e6970 	rsbeq	r6, lr, r0, ror r9
    4a74:	2c1e4501 	cfldr32cs	mvfx4, [lr], {1}
    4a78:	ac000000 	stcge	0, cr0, [r0], {-0}
    4a7c:	a600002d 	strge	r0, [r0], -sp, lsr #32
    4a80:	1800002d 	stmdane	r0, {r0, r2, r3, r5}
    4a84:	000004a5 	andeq	r0, r0, r5, lsr #9
    4a88:	00009f1c 	andeq	r9, r0, ip, lsl pc
    4a8c:	00051802 	andeq	r1, r5, r2, lsl #16
    4a90:	05460100 	strbeq	r0, [r6, #-256]	; 0xffffff00
    4a94:	0004be19 	andeq	fp, r4, r9, lsl lr
    4a98:	b2150000 	andslt	r0, r5, #0, 0
    4a9c:	de000004 	cdple	0, 0, cr0, cr0, cr4, {0}
    4aa0:	d800002d 	stmdale	r0, {r0, r2, r3, r5}
    4aa4:	1a00002d 	bne	4b60 <__code_start__-0x34a0>
    4aa8:	00000518 	andeq	r0, r0, r8, lsl r5
    4aac:	0004ca1b 	andeq	ip, r4, fp, lsl sl
    4ab0:	04d61b00 	ldrbeq	r1, [r6], #2816	; 0xb00
    4ab4:	e01b0000 	ands	r0, fp, r0
    4ab8:	18000004 	stmdane	r0, {r2}
    4abc:	000004a5 	andeq	r0, r0, r5, lsr #9
    4ac0:	00009f24 	andeq	r9, r0, r4, lsr #30
    4ac4:	00053800 	andeq	r3, r5, r0, lsl #16
    4ac8:	06280100 	strteq	r0, [r8], -r0, lsl #2
    4acc:	0004be19 	andeq	fp, r4, r9, lsl lr
    4ad0:	b2150000 	andslt	r0, r5, #0, 0
    4ad4:	10000004 	andne	r0, r0, r4
    4ad8:	0a00002e 	beq	4b98 <__code_start__-0x3468>
    4adc:	1a00002e 	bne	4b9c <__code_start__-0x3464>
    4ae0:	00000538 	andeq	r0, r0, r8, lsr r5
    4ae4:	0004ca1c 	andeq	ip, r4, ip, lsl sl
    4ae8:	002e4200 	eoreq	r4, lr, r0, lsl #4
    4aec:	002e3c00 	eoreq	r3, lr, r0, lsl #24
    4af0:	04d61c00 	ldrbeq	r1, [r6], #3072	; 0xc00
    4af4:	2e840000 	cdpcs	0, 8, cr0, cr4, cr0, {0}
    4af8:	2e7e0000 	cdpcs	0, 7, cr0, cr14, cr0, {0}
    4afc:	e01c0000 	ands	r0, ip, r0
    4b00:	da000004 	ble	4b18 <__code_start__-0x34e8>
    4b04:	d200002e 	andle	r0, r0, #46, 0	; 0x2e
    4b08:	1d00002e 	stcne	0, cr0, [r0, #-184]	; 0xffffff48
    4b0c:	00009f4c 	andeq	r9, r0, ip, asr #30
    4b10:	0000065e 	andeq	r0, r0, lr, asr r6
    4b14:	0000033b 	andeq	r0, r0, fp, lsr r3
    4b18:	02500112 	subseq	r0, r0, #-2147483644	; 0x80000004
    4b1c:	16000076 			; <UNDEFINED> instruction: 0x16000076
    4b20:	00009f70 	andeq	r9, r0, r0, ror pc
    4b24:	0000066a 	andeq	r0, r0, sl, ror #12
    4b28:	25500112 	ldrbcs	r0, [r0, #-274]	; 0xfffffeee
    4b2c:	f75001f3 			; <UNDEFINED> instruction: 0xf75001f3
    4b30:	f425f72c 	vld1.8	{d15}, [r5 :128], ip
    4b34:	cccd0825 	stclgt	8, cr0, [sp], {37}	; 0x25
    4b38:	0000cccc 	andeq	ip, r0, ip, asr #25
    4b3c:	081e0000 	ldmdaeq	lr, {}	; <UNPREDICTABLE>
    4b40:	2525f720 	strcs	pc, [r5, #-1824]!	; 0xfffff8e0
    4b44:	00f72cf7 	ldrshteq	r2, [r7], #199	; 0xc7
    4b48:	80232533 	eorhi	r2, r3, r3, lsr r5
    4b4c:	3240a080 	subcc	sl, r0, #128, 0	; 0x80
    4b50:	00000024 	andeq	r0, r0, r4, lsr #32
    4b54:	1e000000 	cdpne	0, 0, cr0, cr0, cr0, {0}
    4b58:	00000b5e 	andeq	r0, r0, lr, asr fp
    4b5c:	030d4001 	movweq	r4, #53249	; 0xd001
    4b60:	0000038d 	andeq	r0, r0, sp, lsl #7
    4b64:	6e69701f 	mcrvs	0, 3, r7, cr9, cr15, {0}
    4b68:	23400100 	movtcs	r0, #256	; 0x100
    4b6c:	0000002c 	andeq	r0, r0, ip, lsr #32
    4b70:	0b961e00 	bleq	fe58c378 <__bss_end__+0xfe581550>
    4b74:	3b010000 	blcc	44b7c <__bss_end__+0x39d54>
    4b78:	03a7030d 			; <UNDEFINED> instruction: 0x03a7030d
    4b7c:	701f0000 	andsvc	r0, pc, r0
    4b80:	01006e69 	tsteq	r0, r9, ror #28
    4b84:	002c223b 	eoreq	r2, ip, fp, lsr r2
    4b88:	13000000 	movwne	r0, #0
    4b8c:	00000b6b 	andeq	r0, r0, fp, ror #22
    4b90:	94063601 	strls	r3, [r6], #-1537	; 0xfffff9ff
    4b94:	5800009e 	stmdapl	r0, {r1, r2, r3, r4, r7}
    4b98:	01000000 	mrseq	r0, (UNDEF: 0)
    4b9c:	0004a59c 	muleq	r4, ip, r5
    4ba0:	69700e00 	ldmdbvs	r0!, {r9, sl, fp}^
    4ba4:	3601006e 	strcc	r0, [r1], -lr, rrx
    4ba8:	00002c1f 	andeq	r2, r0, pc, lsl ip
    4bac:	002f3800 	eoreq	r3, pc, r0, lsl #16
    4bb0:	002f3400 	eoreq	r3, pc, r0, lsl #8
    4bb4:	04a51800 	strteq	r1, [r5], #2048	; 0x800
    4bb8:	9e940000 	cdpls	0, 9, cr0, cr4, cr0, {0}
    4bbc:	d8020000 	stmdale	r2, {}	; <UNPREDICTABLE>
    4bc0:	01000004 	tsteq	r0, r4
    4bc4:	be190537 	mrclt	5, 0, r0, cr9, cr7, {1}
    4bc8:	01000004 	tsteq	r0, r4
    4bcc:	0004b215 	andeq	fp, r4, r5, lsl r2
    4bd0:	002f5d00 	eoreq	r5, pc, r0, lsl #26
    4bd4:	002f5900 	eoreq	r5, pc, r0, lsl #18
    4bd8:	04d81a00 	ldrbeq	r1, [r8], #2560	; 0xa00
    4bdc:	ca1b0000 	bgt	6c4be4 <__bss_end__+0x6b9dbc>
    4be0:	1b000004 	blne	4bf8 <__code_start__-0x3408>
    4be4:	000004d6 	ldrdeq	r0, [r0], -r6
    4be8:	0004e01b 	andeq	lr, r4, fp, lsl r0
    4bec:	04a51800 	strteq	r1, [r5], #2048	; 0x800
    4bf0:	9e9c0000 	cdpls	0, 9, cr0, cr12, cr0, {0}
    4bf4:	f8000000 			; <UNDEFINED> instruction: 0xf8000000
    4bf8:	01000004 	tsteq	r0, r4
    4bfc:	be190628 	cfmsub32lt	mvax1, mvfx0, mvfx9, mvfx8
    4c00:	01000004 	tsteq	r0, r4
    4c04:	0004b215 	andeq	fp, r4, r5, lsl r2
    4c08:	002f8200 	eoreq	r8, pc, r0, lsl #4
    4c0c:	002f7e00 	eoreq	r7, pc, r0, lsl #28
    4c10:	04f81a00 	ldrbteq	r1, [r8], #2560	; 0xa00
    4c14:	ca1c0000 	bgt	704c1c <__bss_end__+0x6f9df4>
    4c18:	a7000004 	strge	r0, [r0, -r4]
    4c1c:	a300002f 	movwge	r0, #47	; 0x2f
    4c20:	1c00002f 	stcne	0, cr0, [r0], {47}	; 0x2f
    4c24:	000004d6 	ldrdeq	r0, [r0], -r6
    4c28:	00002ff3 	strdeq	r2, [r0], -r3
    4c2c:	00002fed 	andeq	r2, r0, sp, ror #31
    4c30:	0004e01c 	andeq	lr, r4, ip, lsl r0
    4c34:	00304900 	eorseq	r4, r0, r0, lsl #18
    4c38:	00304100 	eorseq	r4, r0, r0, lsl #2
    4c3c:	9ec81d00 	cdpls	13, 12, cr1, cr8, cr0, {0}
    4c40:	065e0000 	ldrbeq	r0, [lr], -r0
    4c44:	046d0000 	strbteq	r0, [sp], #-0
    4c48:	01120000 	tsteq	r2, r0
    4c4c:	00750250 	rsbseq	r0, r5, r0, asr r2
    4c50:	9ee81600 	cdpls	6, 14, cr1, cr8, cr0, {0}
    4c54:	066a0000 	strbteq	r0, [sl], -r0
    4c58:	01120000 	tsteq	r2, r0
    4c5c:	01f32550 	mvnseq	r2, r0, asr r5
    4c60:	f72cf750 			; <UNDEFINED> instruction: 0xf72cf750
    4c64:	0825f425 	stmdaeq	r5!, {r0, r2, r5, sl, ip, sp, lr, pc}
    4c68:	cccccccd 	stclgt	12, cr12, [ip], {205}	; 0xcd
    4c6c:	00000000 	andeq	r0, r0, r0
    4c70:	f720081e 			; <UNDEFINED> instruction: 0xf720081e
    4c74:	2cf72525 	cfldr64cs	mvdx2, [r7], #148	; 0x94
    4c78:	253300f7 	ldrcs	r0, [r3, #-247]!	; 0xffffff09
    4c7c:	a0808023 	addge	r8, r0, r3, lsr #32
    4c80:	00243240 	eoreq	r3, r4, r0, asr #4
    4c84:	00000000 	andeq	r0, r0, r0
    4c88:	0a1b1e00 	beq	6cc490 <__bss_end__+0x6c1668>
    4c8c:	28010000 	stmdacs	r1, {}	; <UNPREDICTABLE>
    4c90:	04eb0106 	strbteq	r0, [fp], #262	; 0x106
    4c94:	701f0000 	andsvc	r0, pc, r0
    4c98:	01006e69 	tsteq	r0, r9, ror #28
    4c9c:	002c2128 	eoreq	r2, ip, r8, lsr #2
    4ca0:	bf200000 	svclt	0x00200000
    4ca4:	01000000 	mrseq	r0, (UNDEF: 0)
    4ca8:	010f3228 	tsteq	pc, r8, lsr #4
    4cac:	6f210000 	svcvs	0x00210000
    4cb0:	01006666 	tsteq	r0, r6, ror #12
    4cb4:	002c0e2d 	eoreq	r0, ip, sp, lsr #28
    4cb8:	67210000 	strvs	r0, [r1, -r0]!
    4cbc:	0e2e0100 	sufeqe	f0, f6, f0
    4cc0:	0000002c 	andeq	r0, r0, ip, lsr #32
    4cc4:	01007621 	tsteq	r0, r1, lsr #12
    4cc8:	002c0e30 	eoreq	r0, ip, r0, lsr lr
    4ccc:	22000000 	andcs	r0, r0, #0, 0
    4cd0:	00000b2e 	andeq	r0, r0, lr, lsr #22
    4cd4:	6918b102 	ldmdbvs	r8, {r1, r8, ip, sp, pc}
    4cd8:	03000000 	movweq	r0, #0
    4cdc:	00000507 	andeq	r0, r0, r7, lsl #10
    4ce0:	0200781f 	andeq	r7, r0, #2031616	; 0x1f0000
    4ce4:	00692bb1 	strhteq	r2, [r9], #-177	; 0xffffff4f
    4ce8:	23000000 	movwcs	r0, #0
    4cec:	000004a5 	andeq	r0, r0, r5, lsr #9
    4cf0:	00009e34 	andeq	r9, r0, r4, lsr lr
    4cf4:	00000060 	andeq	r0, r0, r0, rrx
    4cf8:	05e49c01 	strbeq	r9, [r4, #3073]!	; 0xc01
    4cfc:	b2150000 	andslt	r0, r5, #0, 0
    4d00:	88000004 	stmdahi	r0, {r2}
    4d04:	84000030 	strhi	r0, [r0], #-48	; 0xffffffd0
    4d08:	15000030 	strne	r0, [r0, #-48]	; 0xffffffd0
    4d0c:	000004be 			; <UNDEFINED> instruction: 0x000004be
    4d10:	000030ad 	andeq	r3, r0, sp, lsr #1
    4d14:	000030a9 	andeq	r3, r0, r9, lsr #1
    4d18:	0004ca1b 	andeq	ip, r4, fp, lsl sl
    4d1c:	04d61b00 	ldrbeq	r1, [r6], #2816	; 0xb00
    4d20:	e01b0000 	ands	r0, fp, r0
    4d24:	18000004 	stmdane	r0, {r2}
    4d28:	000004a5 	andeq	r0, r0, r5, lsr #9
    4d2c:	00009e3c 	andeq	r9, r0, ip, lsr lr
    4d30:	0004b800 	andeq	fp, r4, r0, lsl #16
    4d34:	06280100 	strteq	r0, [r8], -r0, lsl #2
    4d38:	0004be15 	andeq	fp, r4, r5, lsl lr
    4d3c:	0030d200 	eorseq	sp, r0, r0, lsl #4
    4d40:	0030ce00 	eorseq	ip, r0, r0, lsl #28
    4d44:	04b21500 	ldrteq	r1, [r2], #1280	; 0x500
    4d48:	30f70000 	rscscc	r0, r7, r0
    4d4c:	30f30000 	rscscc	r0, r3, r0
    4d50:	b81a0000 	ldmdalt	sl, {}	; <UNPREDICTABLE>
    4d54:	1c000004 	stcne	0, cr0, [r0], {4}
    4d58:	000004ca 	andeq	r0, r0, sl, asr #9
    4d5c:	0000311c 	andeq	r3, r0, ip, lsl r1
    4d60:	00003118 	andeq	r3, r0, r8, lsl r1
    4d64:	0004d61c 	andeq	sp, r4, ip, lsl r6
    4d68:	00316800 	eorseq	r6, r1, r0, lsl #16
    4d6c:	00316200 	eorseq	r6, r1, r0, lsl #4
    4d70:	04e01c00 	strbteq	r1, [r0], #3072	; 0xc00
    4d74:	31be0000 			; <UNDEFINED> instruction: 0x31be0000
    4d78:	31b60000 			; <UNDEFINED> instruction: 0x31b60000
    4d7c:	741d0000 	ldrvc	r0, [sp], #-0
    4d80:	5e00009e 	mcrpl	0, 0, r0, cr0, cr14, {4}
    4d84:	ae000006 	cdpge	0, 0, cr0, cr0, cr6, {0}
    4d88:	12000005 	andne	r0, r0, #5, 0
    4d8c:	76025001 	strvc	r5, [r2], -r1
    4d90:	90160000 	andsls	r0, r6, r0
    4d94:	6a00009e 	bvs	5014 <__code_start__-0x2fec>
    4d98:	12000006 	andne	r0, r0, #6, 0
    4d9c:	f3255001 	vhadd.u32	d5, d5, d1
    4da0:	2cf75001 	ldclcs	0, cr5, [r7], #4
    4da4:	25f425f7 	ldrbcs	r2, [r4, #1527]!	; 0x5f7
    4da8:	cccccd08 	stclgt	13, cr12, [ip], {8}
    4dac:	000000cc 	andeq	r0, r0, ip, asr #1
    4db0:	20081e00 	andcs	r1, r8, r0, lsl #28
    4db4:	f72525f7 			; <UNDEFINED> instruction: 0xf72525f7
    4db8:	3300f72c 	movwcc	pc, #1836	; 0x72c	; <UNPREDICTABLE>
    4dbc:	80802325 	addhi	r2, r0, r5, lsr #6
    4dc0:	243240a0 	ldrtcs	r4, [r2], #-160	; 0xffffff60
    4dc4:	00000000 	andeq	r0, r0, r0
    4dc8:	00038d23 	andeq	r8, r3, r3, lsr #26
    4dcc:	009eec00 	addseq	lr, lr, r0, lsl #24
    4dd0:	00001800 	andeq	r1, r0, r0, lsl #16
    4dd4:	219c0100 	orrscs	r0, ip, r0, lsl #2
    4dd8:	15000006 	strne	r0, [r0, #-6]
    4ddc:	0000039a 	muleq	r0, sl, r3
    4de0:	00003214 	andeq	r3, r0, r4, lsl r2
    4de4:	0000320e 	andeq	r3, r0, lr, lsl #4
    4de8:	009f0016 	addseq	r0, pc, r6, lsl r0	; <UNPREDICTABLE>
    4dec:	00066a00 	andeq	r6, r6, r0, lsl #20
    4df0:	50011200 	andpl	r1, r1, r0, lsl #4
    4df4:	001c0c05 	andseq	r0, ip, r5, lsl #24
    4df8:	01122020 	tsteq	r2, r0, lsr #32
    4dfc:	f3310551 	vqrshl.u64	q0, <illegal reg q0.5>, <illegal reg q0.5>
    4e00:	00245001 	eoreq	r5, r4, r1
    4e04:	03732300 	cmneq	r3, #0, 6
    4e08:	9f040000 	svcls	0x00040000
    4e0c:	00180000 	andseq	r0, r8, r0
    4e10:	9c010000 	stcls	0, cr0, [r1], {-0}
    4e14:	0000065e 	andeq	r0, r0, lr, asr r6
    4e18:	00038015 	andeq	r8, r3, r5, lsl r0
    4e1c:	00324600 	eorseq	r4, r2, r0, lsl #12
    4e20:	00324000 	eorseq	r4, r2, r0
    4e24:	9f181600 	svcls	0x00181600
    4e28:	066a0000 	strbteq	r0, [sl], -r0
    4e2c:	01120000 	tsteq	r2, r0
    4e30:	280c0550 	stmdacs	ip, {r4, r6, r8, sl}
    4e34:	12202000 	eorne	r2, r0, #0, 0
    4e38:	31055101 	tstcc	r5, r1, lsl #2
    4e3c:	245001f3 	ldrbcs	r0, [r0], #-499	; 0xfffffe0d
    4e40:	f0240000 			; <UNDEFINED> instruction: 0xf0240000
    4e44:	f0000007 			; <UNDEFINED> instruction: 0xf0000007
    4e48:	02000007 	andeq	r0, r0, #7, 0
    4e4c:	5c240ac2 			; <UNDEFINED> instruction: 0x5c240ac2
    4e50:	5c000007 	stcpl	0, cr0, [r0], {7}
    4e54:	02000007 	andeq	r0, r0, #7, 0
    4e58:	490006ad 	stmdbmi	r0, {r0, r2, r3, r5, r7, r9, sl}
    4e5c:	04000001 	streq	r0, [r0], #-1
    4e60:	001b3700 	andseq	r3, fp, r0, lsl #14
    4e64:	b3010400 	movwlt	r0, #5120	; 0x1400
    4e68:	0c000004 	stceq	0, cr0, [r0], {4}
    4e6c:	00000bc0 	andeq	r0, r0, r0, asr #23
    4e70:	0000056b 	andeq	r0, r0, fp, ror #10
    4e74:	00009fcc 	andeq	r9, r0, ip, asr #31
    4e78:	0000003c 	andeq	r0, r0, ip, lsr r0
    4e7c:	00002524 	andeq	r2, r0, r4, lsr #10
    4e80:	69050402 	stmdbvs	r5, {r1, sl}
    4e84:	0300746e 	movweq	r7, #1134	; 0x46e
    4e88:	00ea0704 	rsceq	r0, sl, r4, lsl #14
    4e8c:	01030000 	mrseq	r0, (UNDEF: 3)
    4e90:	00007706 	andeq	r7, r0, r6, lsl #14
    4e94:	05020300 	streq	r0, [r2, #-768]	; 0xfffffd00
    4e98:	000001fd 	strdeq	r0, [r0], -sp
    4e9c:	0e050403 	cdpeq	4, 0, cr0, cr5, cr3, {0}
    4ea0:	03000001 	movweq	r0, #1
    4ea4:	01090508 	tsteq	r9, r8, lsl #10
    4ea8:	01030000 	mrseq	r0, (UNDEF: 3)
    4eac:	00007508 	andeq	r7, r0, r8, lsl #10
    4eb0:	07020300 	streq	r0, [r2, -r0, lsl #6]
    4eb4:	00000090 	muleq	r0, r0, r0
    4eb8:	e5070403 	str	r0, [r7, #-1027]	; 0xfffffbfd
    4ebc:	03000000 	movweq	r0, #0
    4ec0:	00e00708 	rsceq	r0, r0, r8, lsl #14
    4ec4:	25040000 	strcs	r0, [r4, #-0]
    4ec8:	7a000000 	bvc	4ed0 <__code_start__-0x3130>
    4ecc:	05000000 	streq	r0, [r0, #-0]
    4ed0:	00000025 	andeq	r0, r0, r5, lsr #32
    4ed4:	02230600 	eoreq	r0, r3, #0, 12
    4ed8:	1c020000 	stcne	0, cr0, [r2], {-0}
    4edc:	0000860e 	andeq	r8, r0, lr, lsl #12
    4ee0:	6b040700 	blvs	106ae8 <__bss_end__+0xfbcc0>
    4ee4:	04000000 	streq	r0, [r0], #-0
    4ee8:	00000025 	andeq	r0, r0, r5, lsr #32
    4eec:	0000009b 	muleq	r0, fp, r0
    4ef0:	00009b05 	andeq	r9, r0, r5, lsl #22
    4ef4:	04070000 	streq	r0, [r7], #-0
    4ef8:	000000a8 	andeq	r0, r0, r8, lsr #1
    4efc:	7e080103 	adfvce	f0, f0, f3
    4f00:	08000000 	stmdaeq	r0, {}	; <UNPREDICTABLE>
    4f04:	000000a1 	andeq	r0, r0, r1, lsr #1
    4f08:	0005d306 	andeq	sp, r5, r6, lsl #6
    4f0c:	0e210200 	cdpeq	2, 2, cr0, cr1, cr0, {0}
    4f10:	000000b9 	strheq	r0, [r0], -r9
    4f14:	008c0407 	addeq	r0, ip, r7, lsl #8
    4f18:	7a090000 	bvc	244f20 <__bss_end__+0x23a0f8>
    4f1c:	01000000 	mrseq	r0, (UNDEF: 0)
    4f20:	03050706 	movweq	r0, #22278	; 0x5706
    4f24:	0000a9f8 	strdeq	sl, [r0], -r8
    4f28:	000bb30a 	andeq	fp, fp, sl, lsl #6
    4f2c:	060b0100 	streq	r0, [fp], -r0, lsl #2
    4f30:	00009ff8 	strdeq	r9, [r0], -r8
    4f34:	00000010 	andeq	r0, r0, r0, lsl r0
    4f38:	00f19c01 	rscseq	r9, r1, r1, lsl #24
    4f3c:	660b0000 	strvs	r0, [fp], -r0
    4f40:	0b010070 	bleq	45108 <__bss_end__+0x3a2e0>
    4f44:	00008619 	andeq	r8, r0, r9, lsl r6
    4f48:	00500100 	subseq	r0, r0, r0, lsl #2
    4f4c:	000af00c 	andeq	pc, sl, ip
    4f50:	06080100 	streq	r0, [r8], -r0, lsl #2
    4f54:	00009fe0 	andeq	r9, r0, r0, ror #31
    4f58:	00000018 	andeq	r0, r0, r8, lsl r0
    4f5c:	a20d9c01 	andge	r9, sp, #256	; 0x100
    4f60:	0100000b 	tsteq	r0, fp
    4f64:	00250c03 	eoreq	r0, r5, r3, lsl #24
    4f68:	9fcc0000 	svcls	0x00cc0000
    4f6c:	00140000 	andseq	r0, r4, r0
    4f70:	9c010000 	stcls	0, cr0, [r1], {-0}
    4f74:	00000140 	andeq	r0, r0, r0, asr #2
    4f78:	0100630e 	tsteq	r0, lr, lsl #6
    4f7c:	00252103 	eoreq	r2, r5, r3, lsl #2
    4f80:	32760000 	rsbscc	r0, r6, #0, 0
    4f84:	32720000 	rsbscc	r0, r2, #0, 0
    4f88:	d80f0000 	stmdale	pc, {}	; <UNPREDICTABLE>
    4f8c:	4000009f 	mulmi	r0, pc, r0	; <UNPREDICTABLE>
    4f90:	10000001 	andne	r0, r0, r1
    4f94:	74025001 	strvc	r5, [r2], #-1
    4f98:	11000000 	mrsne	r0, (UNDEF: 0)
    4f9c:	00000a01 	andeq	r0, r0, r1, lsl #20
    4fa0:	00000a01 	andeq	r0, r0, r1, lsl #20
    4fa4:	00064202 	andeq	r4, r6, r2, lsl #4
    4fa8:	00000137 	andeq	r0, r0, r7, lsr r1
    4fac:	1c460004 	mcrrne	0, 0, r0, r6, cr4
    4fb0:	01040000 	mrseq	r0, (UNDEF: 4)
    4fb4:	000004b3 			; <UNDEFINED> instruction: 0x000004b3
    4fb8:	000bd10c 	andeq	sp, fp, ip, lsl #2
    4fbc:	00056b00 	andeq	r6, r5, r0, lsl #22
    4fc0:	00a00800 	adceq	r0, r0, r0, lsl #16
    4fc4:	00002c00 	andeq	r2, r0, r0, lsl #24
    4fc8:	0025c600 	eoreq	ip, r5, r0, lsl #12
    4fcc:	05040200 	streq	r0, [r4, #-512]	; 0xfffffe00
    4fd0:	00746e69 	rsbseq	r6, r4, r9, ror #28
    4fd4:	ea070403 	b	1c5fe8 <__bss_end__+0x1bb1c0>
    4fd8:	03000000 	movweq	r0, #0
    4fdc:	00770601 	rsbseq	r0, r7, r1, lsl #12
    4fe0:	02030000 	andeq	r0, r3, #0, 0
    4fe4:	0001fd05 	andeq	pc, r1, r5, lsl #26
    4fe8:	05040300 	streq	r0, [r4, #-768]	; 0xfffffd00
    4fec:	0000010e 	andeq	r0, r0, lr, lsl #2
    4ff0:	09050803 	stmdbeq	r5, {r0, r1, fp}
    4ff4:	03000001 	movweq	r0, #1
    4ff8:	00750801 	rsbseq	r0, r5, r1, lsl #16
    4ffc:	02030000 	andeq	r0, r3, #0, 0
    5000:	00009007 	andeq	r9, r0, r7
    5004:	07040300 	streq	r0, [r4, -r0, lsl #6]
    5008:	000000e5 	andeq	r0, r0, r5, ror #1
    500c:	e0070803 	and	r0, r7, r3, lsl #16
    5010:	04000000 	streq	r0, [r0], #-0
    5014:	00000025 	andeq	r0, r0, r5, lsr #32
    5018:	0000007a 	andeq	r0, r0, sl, ror r0
    501c:	00002505 	andeq	r2, r0, r5, lsl #10
    5020:	23060000 	movwcs	r0, #24576	; 0x6000
    5024:	02000002 	andeq	r0, r0, #2, 0
    5028:	00860e1c 	addeq	r0, r6, ip, lsl lr
    502c:	04070000 	streq	r0, [r7], #-0
    5030:	0000006b 	andeq	r0, r0, fp, rrx
    5034:	00002504 	andeq	r2, r0, r4, lsl #10
    5038:	00009b00 	andeq	r9, r0, r0, lsl #22
    503c:	009b0500 	addseq	r0, fp, r0, lsl #10
    5040:	07000000 	streq	r0, [r0, -r0]
    5044:	0000a804 	andeq	sl, r0, r4, lsl #16
    5048:	08010300 	stmdaeq	r1, {r8, r9}
    504c:	0000007e 	andeq	r0, r0, lr, ror r0
    5050:	0000a108 	andeq	sl, r0, r8, lsl #2
    5054:	05d30600 	ldrbeq	r0, [r3, #1536]	; 0x600
    5058:	21020000 	mrscs	r0, (UNDEF: 2)
    505c:	0000b90e 	andeq	fp, r0, lr, lsl #18
    5060:	8c040700 	stchi	7, cr0, [r4], {-0}
    5064:	09000000 	stmdbeq	r0, {}	; <UNPREDICTABLE>
    5068:	0000064f 	andeq	r0, r0, pc, asr #12
    506c:	34070401 	strcc	r0, [r7], #-1025	; 0xfffffbff
    5070:	08000001 	stmdaeq	r0, {r0}
    5074:	2c0000a0 	stccs	0, cr0, [r0], {160}	; 0xa0
    5078:	01000000 	mrseq	r0, (UNDEF: 0)
    507c:	0001349c 	muleq	r1, ip, r4
    5080:	0be10a00 	bleq	ff847888 <__bss_end__+0xff83ca60>
    5084:	04010000 	streq	r0, [r1], #-0
    5088:	00013415 	andeq	r3, r1, r5, lsl r4
    508c:	0b500100 	bleq	1405494 <__bss_end__+0x13fa66c>
    5090:	00637273 	rsbeq	r7, r3, r3, ror r2
    5094:	9b270401 	blls	9c60a0 <__bss_end__+0x9bb278>
    5098:	98000000 	stmdals	r0, {}	; <UNPREDICTABLE>
    509c:	94000032 	strls	r0, [r0], #-50	; 0xffffffce
    50a0:	0c000032 	stceq	0, cr0, [r0], {50}	; 0x32
    50a4:	01003173 	tsteq	r0, r3, ror r1
    50a8:	01340b05 	teqeq	r4, r5, lsl #22
    50ac:	32c70000 	sbccc	r0, r7, #0, 0
    50b0:	32b90000 	adcscc	r0, r9, #0, 0
    50b4:	730c0000 	movwvc	r0, #49152	; 0xc000
    50b8:	06010032 			; <UNDEFINED> instruction: 0x06010032
    50bc:	00009b11 	andeq	r9, r0, r1, lsl fp
    50c0:	00332600 	eorseq	r2, r3, r0, lsl #12
    50c4:	00332000 	eorseq	r2, r3, r0
    50c8:	00630c00 	rsbeq	r0, r3, r0, lsl #24
    50cc:	a10a0701 	tstge	sl, r1, lsl #14
    50d0:	57000000 	strpl	r0, [r0, -r0]
    50d4:	51000033 	tstpl	r0, r3, lsr r0
    50d8:	00000033 	andeq	r0, r0, r3, lsr r0
    50dc:	00a10407 	adceq	r0, r1, r7, lsl #8
    50e0:	f7000000 			; <UNDEFINED> instruction: 0xf7000000
    50e4:	04000000 	streq	r0, [r0], #-0
    50e8:	001cfc00 	andseq	pc, ip, r0, lsl #24
    50ec:	b3010400 	movwlt	r0, #5120	; 0x1400
    50f0:	0c000004 	stceq	0, cr0, [r0], {4}
    50f4:	00000be6 	andeq	r0, r0, r6, ror #23
    50f8:	0000056b 	andeq	r0, r0, fp, ror #10
    50fc:	0000a034 	andeq	sl, r0, r4, lsr r0
    5100:	00000044 	andeq	r0, r0, r4, asr #32
    5104:	000026ac 	andeq	r2, r0, ip, lsr #13
    5108:	69050402 	stmdbvs	r5, {r1, sl}
    510c:	0300746e 	movweq	r7, #1134	; 0x46e
    5110:	00ea0704 	rsceq	r0, sl, r4, lsl #14
    5114:	01030000 	mrseq	r0, (UNDEF: 3)
    5118:	00007706 	andeq	r7, r0, r6, lsl #14
    511c:	05020300 	streq	r0, [r2, #-768]	; 0xfffffd00
    5120:	000001fd 	strdeq	r0, [r0], -sp
    5124:	0e050403 	cdpeq	4, 0, cr0, cr5, cr3, {0}
    5128:	03000001 	movweq	r0, #1
    512c:	01090508 	tsteq	r9, r8, lsl #10
    5130:	01030000 	mrseq	r0, (UNDEF: 3)
    5134:	00007508 	andeq	r7, r0, r8, lsl #10
    5138:	07020300 	streq	r0, [r2, -r0, lsl #6]
    513c:	00000090 	muleq	r0, r0, r0
    5140:	e5070403 	str	r0, [r7, #-1027]	; 0xfffffbfd
    5144:	03000000 	movweq	r0, #0
    5148:	00e00708 	rsceq	r0, r0, r8, lsl #14
    514c:	25040000 	strcs	r0, [r4, #-0]
    5150:	7a000000 	bvc	5158 <__code_start__-0x2ea8>
    5154:	05000000 	streq	r0, [r0, #-0]
    5158:	00000025 	andeq	r0, r0, r5, lsr #32
    515c:	02230600 	eoreq	r0, r3, #0, 12
    5160:	1c020000 	stcne	0, cr0, [r2], {-0}
    5164:	0000860e 	andeq	r8, r0, lr, lsl #12
    5168:	6b040700 	blvs	106d70 <__bss_end__+0xfbf48>
    516c:	04000000 	streq	r0, [r0], #-0
    5170:	00000025 	andeq	r0, r0, r5, lsr #32
    5174:	0000009b 	muleq	r0, fp, r0
    5178:	00009b05 	andeq	r9, r0, r5, lsl #22
    517c:	04070000 	streq	r0, [r7], #-0
    5180:	000000a8 	andeq	r0, r0, r8, lsr #1
    5184:	7e080103 	adfvce	f0, f0, f3
    5188:	08000000 	stmdaeq	r0, {}	; <UNPREDICTABLE>
    518c:	000000a1 	andeq	r0, r0, r1, lsr #1
    5190:	0005d306 	andeq	sp, r5, r6, lsl #6
    5194:	0e210200 	cdpeq	2, 2, cr0, cr1, cr0, {0}
    5198:	000000b9 	strheq	r0, [r0], -r9
    519c:	008c0407 	addeq	r0, ip, r7, lsl #8
    51a0:	7d090000 	stcvc	0, cr0, [r9, #-0]
    51a4:	01000006 	tsteq	r0, r6
    51a8:	00250503 	eoreq	r0, r5, r3, lsl #10
    51ac:	a0340000 	eorsge	r0, r4, r0
    51b0:	00440000 	subeq	r0, r4, r0
    51b4:	9c010000 	stcls	0, cr0, [r1], {-0}
    51b8:	0100610a 	tsteq	r0, sl, lsl #2
    51bc:	009b1803 	addseq	r1, fp, r3, lsl #16
    51c0:	338e0000 	orrcc	r0, lr, #0, 0
    51c4:	33820000 	orrcc	r0, r2, #0, 0
    51c8:	620a0000 	andvs	r0, sl, #0, 0
    51cc:	27030100 	strcs	r0, [r3, -r0, lsl #2]
    51d0:	0000009b 	muleq	r0, fp, r0
    51d4:	000033e2 	andeq	r3, r0, r2, ror #7
    51d8:	000033dc 	ldrdeq	r3, [r0], -ip
    51dc:	010f0000 	mrseq	r0, CPSR
    51e0:	00040000 	andeq	r0, r4, r0
    51e4:	00001d8b 	andeq	r1, r0, fp, lsl #27
    51e8:	04b30104 	ldrteq	r0, [r3], #260	; 0x104
    51ec:	f60c0000 			; <UNDEFINED> instruction: 0xf60c0000
    51f0:	6b00000b 	blvs	5224 <__code_start__-0x2ddc>
    51f4:	78000005 	stmdavc	r0, {r0, r2}
    51f8:	180000a0 	stmdane	r0, {r5, r7}
    51fc:	62000000 	andvs	r0, r0, #0, 0
    5200:	02000027 	andeq	r0, r0, #39, 0	; 0x27
    5204:	6e690504 	cdpvs	5, 6, cr0, cr9, cr4, {0}
    5208:	04030074 	streq	r0, [r3], #-116	; 0xffffff8c
    520c:	0000ea07 	andeq	lr, r0, r7, lsl #20
    5210:	06010300 	streq	r0, [r1], -r0, lsl #6
    5214:	00000077 	andeq	r0, r0, r7, ror r0
    5218:	fd050203 	stc2	2, cr0, [r5, #-12]
    521c:	03000001 	movweq	r0, #1
    5220:	010e0504 	tsteq	lr, r4, lsl #10
    5224:	08030000 	stmdaeq	r3, {}	; <UNPREDICTABLE>
    5228:	00010905 	andeq	r0, r1, r5, lsl #18
    522c:	08010300 	stmdaeq	r1, {r8, r9}
    5230:	00000075 	andeq	r0, r0, r5, ror r0
    5234:	90070203 	andls	r0, r7, r3, lsl #4
    5238:	03000000 	movweq	r0, #0
    523c:	00e50704 	rsceq	r0, r5, r4, lsl #14
    5240:	08030000 	stmdaeq	r3, {}	; <UNPREDICTABLE>
    5244:	0000e007 	andeq	lr, r0, r7
    5248:	00250400 	eoreq	r0, r5, r0, lsl #8
    524c:	007a0000 	rsbseq	r0, sl, r0
    5250:	25050000 	strcs	r0, [r5, #-0]
    5254:	00000000 	andeq	r0, r0, r0
    5258:	00022306 	andeq	r2, r2, r6, lsl #6
    525c:	0e1c0200 	cdpeq	2, 1, cr0, cr12, cr0, {0}
    5260:	00000086 	andeq	r0, r0, r6, lsl #1
    5264:	006b0407 	rsbeq	r0, fp, r7, lsl #8
    5268:	25040000 	strcs	r0, [r4, #-0]
    526c:	9b000000 	blls	5274 <__code_start__-0x2d8c>
    5270:	05000000 	streq	r0, [r0, #-0]
    5274:	0000009b 	muleq	r0, fp, r0
    5278:	a8040700 	stmdage	r4, {r8, r9, sl}
    527c:	03000000 	movweq	r0, #0
    5280:	007e0801 	rsbseq	r0, lr, r1, lsl #16
    5284:	a1080000 	mrsge	r0, (UNDEF: 8)
    5288:	06000000 	streq	r0, [r0], -r0
    528c:	000005d3 	ldrdeq	r0, [r0], -r3
    5290:	b90e2102 	stmdblt	lr, {r1, r8, sp}
    5294:	07000000 	streq	r0, [r0, -r0]
    5298:	00008c04 	andeq	r8, r0, r4, lsl #24
    529c:	06560900 	ldrbeq	r0, [r6], -r0, lsl #18
    52a0:	03010000 	movweq	r0, #4096	; 0x1000
    52a4:	00010c07 	andeq	r0, r1, r7, lsl #24
    52a8:	00a07800 	adceq	r7, r0, r0, lsl #16
    52ac:	00001800 	andeq	r1, r0, r0, lsl #16
    52b0:	0c9c0100 	ldfeqs	f0, [ip], {0}
    52b4:	0a000001 	beq	52c0 <__code_start__-0x2d40>
    52b8:	01003173 	tsteq	r0, r3, ror r1
    52bc:	010c1503 	tsteq	ip, r3, lsl #10
    52c0:	50010000 	andpl	r0, r1, r0
    52c4:	0032730b 	eorseq	r7, r2, fp, lsl #6
    52c8:	9b260301 	blls	985ed4 <__bss_end__+0x97b0ac>
    52cc:	11000000 	mrsne	r0, (UNDEF: 0)
    52d0:	0b000034 	bleq	53a8 <__code_start__-0x2c58>
    52d4:	0c000034 	stceq	0, cr0, [r0], {52}	; 0x34
    52d8:	04010073 	streq	r0, [r1], #-115	; 0xffffff8d
    52dc:	00010c14 	andeq	r0, r1, r4, lsl ip
    52e0:	00343e00 	eorseq	r3, r4, r0, lsl #28
    52e4:	00343c00 	eorseq	r3, r4, r0, lsl #24
    52e8:	04070000 	streq	r0, [r7], #-0
    52ec:	000000a1 	andeq	r0, r0, r1, lsr #1
    52f0:	00014e00 	andeq	r4, r1, r0, lsl #28
    52f4:	41000400 	tstmi	r0, r0, lsl #8
    52f8:	0400001e 	streq	r0, [r0], #-30	; 0xffffffe2
    52fc:	0004b301 	andeq	fp, r4, r1, lsl #6
    5300:	0c060c00 	stceq	12, cr0, [r6], {-0}
    5304:	056b0000 	strbeq	r0, [fp, #-0]!
    5308:	a0900000 	addsge	r0, r0, r0
    530c:	00300000 	eorseq	r0, r0, r0
    5310:	28030000 	stmdacs	r3, {}	; <UNPREDICTABLE>
    5314:	04020000 	streq	r0, [r2], #-0
    5318:	746e6905 	strbtvc	r6, [lr], #-2309	; 0xfffff6fb
    531c:	049c0300 	ldreq	r0, [ip], #768	; 0x300
    5320:	d1030000 	mrsle	r0, (UNDEF: 3)
    5324:	00003817 	andeq	r3, r0, r7, lsl r8
    5328:	07040400 	streq	r0, [r4, -r0, lsl #8]
    532c:	000000ea 	andeq	r0, r0, sl, ror #1
    5330:	77060104 	strvc	r0, [r6, -r4, lsl #2]
    5334:	04000000 	streq	r0, [r0], #-0
    5338:	01fd0502 	mvnseq	r0, r2, lsl #10
    533c:	04040000 	streq	r0, [r4], #-0
    5340:	00010e05 	andeq	r0, r1, r5, lsl #28
    5344:	05080400 	streq	r0, [r8, #-1024]	; 0xfffffc00
    5348:	00000109 	andeq	r0, r0, r9, lsl #2
    534c:	75080104 	strvc	r0, [r8, #-260]	; 0xfffffefc
    5350:	05000000 	streq	r0, [r0, #-0]
    5354:	0000005b 	andeq	r0, r0, fp, asr r0
    5358:	90070204 	andls	r0, r7, r4, lsl #4
    535c:	04000000 	streq	r0, [r0], #-0
    5360:	00e50704 	rsceq	r0, r5, r4, lsl #14
    5364:	08040000 	stmdaeq	r4, {}	; <UNPREDICTABLE>
    5368:	0000e007 	andeq	lr, r0, r7
    536c:	00250600 	eoreq	r0, r5, r0, lsl #12
    5370:	008b0000 	addeq	r0, fp, r0
    5374:	25070000 	strcs	r0, [r7, #-0]
    5378:	00000000 	andeq	r0, r0, r0
    537c:	00022308 	andeq	r2, r2, r8, lsl #6
    5380:	0e1c0200 	cdpeq	2, 1, cr0, cr12, cr0, {0}
    5384:	00000097 	muleq	r0, r7, r0
    5388:	007c0409 	rsbseq	r0, ip, r9, lsl #8
    538c:	25060000 	strcs	r0, [r6, #-0]
    5390:	ac000000 	stcge	0, cr0, [r0], {-0}
    5394:	07000000 	streq	r0, [r0, -r0]
    5398:	000000ac 	andeq	r0, r0, ip, lsr #1
    539c:	b9040900 	stmdblt	r4, {r8, fp}
    53a0:	04000000 	streq	r0, [r0], #-0
    53a4:	007e0801 	rsbseq	r0, lr, r1, lsl #16
    53a8:	b2050000 	andlt	r0, r5, #0, 0
    53ac:	08000000 	stmdaeq	r0, {}	; <UNPREDICTABLE>
    53b0:	000005d3 	ldrdeq	r0, [r0], -r3
    53b4:	ca0e2102 	bgt	38d7c4 <__bss_end__+0x38299c>
    53b8:	09000000 	stmdbeq	r0, {}	; <UNPREDICTABLE>
    53bc:	00009d04 	andeq	r9, r0, r4, lsl #26
    53c0:	069e0a00 	ldreq	r0, [lr], r0, lsl #20
    53c4:	04010000 	streq	r0, [r1], #-0
    53c8:	00002505 	andeq	r2, r0, r5, lsl #10
    53cc:	00a09000 	adceq	r9, r0, r0
    53d0:	00003000 	andeq	r3, r0, r0
    53d4:	4b9c0100 	blmi	fe7057dc <__bss_end__+0xfe6fa9b4>
    53d8:	0b000001 	bleq	53e4 <__code_start__-0x2c1c>
    53dc:	0031735f 	eorseq	r7, r1, pc, asr r3
    53e0:	ac190401 	cfldrsge	mvf0, [r9], {1}
    53e4:	55000000 	strpl	r0, [r0, #-0]
    53e8:	51000034 	tstpl	r0, r4, lsr r0
    53ec:	0b000034 	bleq	54c4 <__code_start__-0x2b3c>
    53f0:	0032735f 	eorseq	r7, r2, pc, asr r3
    53f4:	ac2a0401 	cfstrsge	mvf0, [sl], #-4
    53f8:	7a000000 	bvc	5400 <__code_start__-0x2c00>
    53fc:	76000034 			; <UNDEFINED> instruction: 0x76000034
    5400:	0b000034 	bleq	54d8 <__code_start__-0x2b28>
    5404:	0401006e 	streq	r0, [r1], #-110	; 0xffffff92
    5408:	00002c36 	andeq	r2, r0, r6, lsr ip
    540c:	0034a500 	eorseq	sl, r4, r0, lsl #10
    5410:	00349b00 	eorseq	r9, r4, r0, lsl #22
    5414:	31730c00 	cmncc	r3, r0, lsl #24
    5418:	1a050100 	bne	145820 <__bss_end__+0x13a9f8>
    541c:	0000014b 	andeq	r0, r0, fp, asr #2
    5420:	000034fc 	strdeq	r3, [r0], -ip
    5424:	000034f4 	strdeq	r3, [r0], -r4
    5428:	0032730c 	eorseq	r7, r2, ip, lsl #6
    542c:	4b2c0501 	blmi	b06838 <__bss_end__+0xafba10>
    5430:	3a000001 	bcc	543c <__code_start__-0x2bc4>
    5434:	34000035 	strcc	r0, [r0], #-53	; 0xffffffcb
    5438:	00000035 	andeq	r0, r0, r5, lsr r0
    543c:	00620409 	rsbeq	r0, r2, r9, lsl #8
    5440:	ce000000 	cdpgt	0, 0, cr0, cr0, cr0, {0}
    5444:	04000000 	streq	r0, [r0], #-0
    5448:	001ef500 	andseq	pc, lr, r0, lsl #10
    544c:	b3010400 	movwlt	r0, #5120	; 0x1400
    5450:	0c000004 	stceq	0, cr0, [r0], {4}
    5454:	00000c17 	andeq	r0, r0, r7, lsl ip
    5458:	0000056b 	andeq	r0, r0, fp, ror #10
    545c:	0000a0c0 	andeq	sl, r0, r0, asr #1
    5460:	00000004 	andeq	r0, r0, r4
    5464:	00002904 	andeq	r2, r0, r4, lsl #18
    5468:	69050402 	stmdbvs	r5, {r1, sl}
    546c:	0300746e 	movweq	r7, #1134	; 0x46e
    5470:	00ea0704 	rsceq	r0, sl, r4, lsl #14
    5474:	01030000 	mrseq	r0, (UNDEF: 3)
    5478:	00007706 	andeq	r7, r0, r6, lsl #14
    547c:	05020300 	streq	r0, [r2, #-768]	; 0xfffffd00
    5480:	000001fd 	strdeq	r0, [r0], -sp
    5484:	0e050403 	cdpeq	4, 0, cr0, cr5, cr3, {0}
    5488:	03000001 	movweq	r0, #1
    548c:	01090508 	tsteq	r9, r8, lsl #10
    5490:	01030000 	mrseq	r0, (UNDEF: 3)
    5494:	00007508 	andeq	r7, r0, r8, lsl #10
    5498:	07020300 	streq	r0, [r2, -r0, lsl #6]
    549c:	00000090 	muleq	r0, r0, r0
    54a0:	e5070403 	str	r0, [r7, #-1027]	; 0xfffffbfd
    54a4:	03000000 	movweq	r0, #0
    54a8:	00e00708 	rsceq	r0, r0, r8, lsl #14
    54ac:	25040000 	strcs	r0, [r4, #-0]
    54b0:	7a000000 	bvc	54b8 <__code_start__-0x2b48>
    54b4:	05000000 	streq	r0, [r0, #-0]
    54b8:	00000025 	andeq	r0, r0, r5, lsr #32
    54bc:	02230600 	eoreq	r0, r3, #0, 12
    54c0:	1c020000 	stcne	0, cr0, [r2], {-0}
    54c4:	0000860e 	andeq	r8, r0, lr, lsl #12
    54c8:	6b040700 	blvs	1070d0 <__bss_end__+0xfc2a8>
    54cc:	04000000 	streq	r0, [r0], #-0
    54d0:	00000025 	andeq	r0, r0, r5, lsr #32
    54d4:	0000009b 	muleq	r0, fp, r0
    54d8:	00009b05 	andeq	r9, r0, r5, lsl #22
    54dc:	04070000 	streq	r0, [r7], #-0
    54e0:	000000a8 	andeq	r0, r0, r8, lsr #1
    54e4:	7e080103 	adfvce	f0, f0, f3
    54e8:	08000000 	stmdaeq	r0, {}	; <UNPREDICTABLE>
    54ec:	000000a1 	andeq	r0, r0, r1, lsr #1
    54f0:	0005d306 	andeq	sp, r5, r6, lsl #6
    54f4:	0e210200 	cdpeq	2, 2, cr0, cr1, cr0, {0}
    54f8:	000000b9 	strheq	r0, [r0], -r9
    54fc:	008c0407 	addeq	r0, ip, r7, lsl #8
    5500:	45090000 	strmi	r0, [r9, #-0]
    5504:	01000007 	tsteq	r0, r7
    5508:	a0c00603 	sbcge	r0, r0, r3, lsl #12
    550c:	00040000 	andeq	r0, r4, r0
    5510:	9c010000 	stcls	0, cr0, [r1], {-0}
	...

Disassembly of section .debug_abbrev:

00000000 <.debug_abbrev>:
       0:	25011101 	strcs	r1, [r1, #-257]	; 0xfffffeff
       4:	030b130e 	movweq	r1, #45838	; 0xb30e
       8:	110e1b0e 	tstne	lr, lr, lsl #22
       c:	10061201 	andne	r1, r6, r1, lsl #4
      10:	02000017 	andeq	r0, r0, #23, 0
      14:	0b0b0024 	bleq	2c00ac <__bss_end__+0x2b5284>
      18:	08030b3e 	stmdaeq	r3, {r1, r2, r3, r4, r5, r8, r9, fp}
      1c:	24030000 	strcs	r0, [r3], #-0
      20:	3e0b0b00 	vmlacc.f64	d0, d11, d0
      24:	000e030b 	andeq	r0, lr, fp, lsl #6
      28:	00160400 	andseq	r0, r6, r0, lsl #8
      2c:	0b3a0e03 	bleq	e83840 <__bss_end__+0xe78a18>
      30:	0b390b3b 	bleq	e42d24 <__bss_end__+0xe37efc>
      34:	00001349 	andeq	r1, r0, r9, asr #6
      38:	27011505 	strcs	r1, [r1, -r5, lsl #10]
      3c:	01134919 	tsteq	r3, r9, lsl r9
      40:	06000013 			; <UNDEFINED> instruction: 0x06000013
      44:	13490005 	movtne	r0, #36869	; 0x9005
      48:	34070000 	strcc	r0, [r7], #-0
      4c:	3a0e0300 	bcc	380c54 <__bss_end__+0x375e2c>
      50:	390b3b0b 	stmdbcc	fp, {r0, r1, r3, r8, r9, fp, ip, sp}
      54:	3f13490b 	svccc	0x0013490b
      58:	00193c19 	andseq	r3, r9, r9, lsl ip
      5c:	000f0800 	andeq	r0, pc, r0, lsl #16
      60:	13490b0b 	movtne	r0, #39691	; 0x9b0b
      64:	26090000 	strcs	r0, [r9], -r0
      68:	00134900 	andseq	r4, r3, r0, lsl #18
      6c:	01130a00 	tsteq	r3, r0, lsl #20
      70:	0b3a0b0b 	bleq	e82ca4 <__bss_end__+0xe77e7c>
      74:	0b390b3b 	bleq	e42d68 <__bss_end__+0xe37f40>
      78:	00001301 	andeq	r1, r0, r1, lsl #6
      7c:	03000d0b 	movweq	r0, #3339	; 0xd0b
      80:	3b0b3a0e 	blcc	2ce8c0 <__bss_end__+0x2c3a98>
      84:	490b390b 	stmdbmi	fp, {r0, r1, r3, r8, fp, ip, sp}
      88:	000b3813 	andeq	r3, fp, r3, lsl r8
      8c:	01130c00 	tsteq	r3, r0, lsl #24
      90:	0b0b0e03 	bleq	2c38a4 <__bss_end__+0x2b8a7c>
      94:	0b3b0b3a 	bleq	ec2d84 <__bss_end__+0xeb7f5c>
      98:	13010b39 	movwne	r0, #6969	; 0x1b39
      9c:	0d0d0000 	stceq	0, cr0, [sp, #-0]
      a0:	3a080300 	bcc	200ca8 <__bss_end__+0x1f5e80>
      a4:	390b3b0b 	stmdbcc	fp, {r0, r1, r3, r8, r9, fp, ip, sp}
      a8:	3813490b 	ldmdacc	r3, {r0, r1, r3, r8, fp, lr}
      ac:	0e00000b 	cdpeq	0, 0, cr0, cr0, cr11, {0}
      b0:	13490101 	movtne	r0, #37121	; 0x9101
      b4:	00001301 	andeq	r1, r0, r1, lsl #6
      b8:	4900210f 	stmdbmi	r0, {r0, r1, r2, r3, r8, sp}
      bc:	000b2f13 	andeq	r2, fp, r3, lsl pc
      c0:	000f1000 	andeq	r1, pc, r0
      c4:	00000b0b 	andeq	r0, r0, fp, lsl #22
      c8:	3f012e11 	svccc	0x00012e11
      cc:	3a0e0319 	bcc	380d38 <__bss_end__+0x375f10>
      d0:	390b3b0b 	stmdbcc	fp, {r0, r1, r3, r8, r9, fp, ip, sp}
      d4:	1119270b 	tstne	r9, fp, lsl #14
      d8:	40061201 	andmi	r1, r6, r1, lsl #4
      dc:	19429718 	stmdbne	r2, {r3, r4, r8, r9, sl, ip, pc}^
      e0:	00001301 	andeq	r1, r0, r1, lsl #6
      e4:	03003412 	movweq	r3, #1042	; 0x412
      e8:	3b0b3a08 	blcc	2ce910 <__bss_end__+0x2c3ae8>
      ec:	490b390b 	stmdbmi	fp, {r0, r1, r3, r8, fp, ip, sp}
      f0:	b7170213 			; <UNDEFINED> instruction: 0xb7170213
      f4:	00001742 	andeq	r1, r0, r2, asr #14
      f8:	03003413 	movweq	r3, #1043	; 0x413
      fc:	3413490e 	ldrcc	r4, [r3], #-2318	; 0xfffff6f2
     100:	00180219 	andseq	r0, r8, r9, lsl r2
     104:	82891400 	addhi	r1, r9, #0, 8
     108:	01110101 	tsteq	r1, r1, lsl #2
     10c:	13011331 	movwne	r1, #4913	; 0x1331
     110:	8a150000 	bhi	540118 <__bss_end__+0x5352f0>
     114:	02000182 	andeq	r0, r0, #-2147483616	; 0x80000020
     118:	18429118 	stmdane	r2, {r3, r4, r8, ip, pc}^
     11c:	89160000 	ldmdbhi	r6, {}	; <UNPREDICTABLE>
     120:	11000182 	smlabbne	r0, r2, r1, r0
     124:	00133101 	andseq	r3, r3, r1, lsl #2
     128:	012e1700 			; <UNDEFINED> instruction: 0x012e1700
     12c:	0e03193f 			; <UNDEFINED> instruction: 0x0e03193f
     130:	0b3b0b3a 	bleq	ec2e20 <__bss_end__+0xeb7ff8>
     134:	19270b39 	stmdbne	r7!, {r0, r3, r4, r5, r8, r9, fp}
     138:	01111349 	tsteq	r1, r9, asr #6
     13c:	18400612 	stmdane	r0, {r1, r4, r9, sl}^
     140:	01194297 			; <UNDEFINED> instruction: 0x01194297
     144:	18000013 	stmdane	r0, {r0, r1, r4}
     148:	1331011d 	teqne	r1, #1073741831	; 0x40000007
     14c:	42b80152 	adcsmi	r0, r8, #-2147483628	; 0x80000014
     150:	1201110b 	andne	r1, r1, #-1073741822	; 0xc0000002
     154:	590b5806 	stmdbpl	fp, {r1, r2, fp, ip, lr}
     158:	010b570b 	tsteq	fp, fp, lsl #14
     15c:	19000013 	stmdbne	r0, {r0, r1, r4}
     160:	13310005 	teqne	r1, #5, 0
     164:	42b71702 	adcsmi	r1, r7, #524288	; 0x80000
     168:	1a000017 	bne	1cc <__code_start__-0x7e34>
     16c:	13310034 	teqne	r1, #52, 0	; 0x34
     170:	42b71702 	adcsmi	r1, r7, #524288	; 0x80000
     174:	1b000017 	blne	1d8 <__code_start__-0x7e28>
     178:	01018289 	smlabbeq	r1, r9, r2, r8
     17c:	13310111 	teqne	r1, #1073741828	; 0x40000004
     180:	2e1c0000 	cdpcs	0, 1, cr0, cr12, cr0, {0}
     184:	3a0e0301 	bcc	380d90 <__bss_end__+0x375f68>
     188:	390b3b0b 	stmdbcc	fp, {r0, r1, r3, r8, r9, fp, ip, sp}
     18c:	4919270b 	ldmdbmi	r9, {r0, r1, r3, r8, r9, sl, sp}
     190:	010b2013 	tsteq	fp, r3, lsl r0
     194:	1d000013 	stcne	0, cr0, [r0, #-76]	; 0xffffffb4
     198:	08030005 	stmdaeq	r3, {r0, r2}
     19c:	0b3b0b3a 	bleq	ec2e8c <__bss_end__+0xeb8064>
     1a0:	13490b39 	movtne	r0, #39737	; 0x9b39
     1a4:	341e0000 	ldrcc	r0, [lr], #-0
     1a8:	3a080300 	bcc	200db0 <__bss_end__+0x1f5f88>
     1ac:	390b3b0b 	stmdbcc	fp, {r0, r1, r3, r8, r9, fp, ip, sp}
     1b0:	0013490b 	andseq	r4, r3, fp, lsl #18
     1b4:	00051f00 	andeq	r1, r5, r0, lsl #30
     1b8:	0b3a0e03 	bleq	e839cc <__bss_end__+0xe78ba4>
     1bc:	0b390b3b 	bleq	e42eb0 <__bss_end__+0xe38088>
     1c0:	00001349 	andeq	r1, r0, r9, asr #6
     1c4:	3f002e20 	svccc	0x00002e20
     1c8:	6e193c19 	mrcvs	12, 0, r3, cr9, cr9, {0}
     1cc:	3a0e030e 	bcc	380e0c <__bss_end__+0x375fe4>
     1d0:	390b3b0b 	stmdbcc	fp, {r0, r1, r3, r8, r9, fp, ip, sp}
     1d4:	2100000b 	tstcs	r0, fp
     1d8:	18020036 	stmdane	r2, {r1, r2, r4, r5}
     1dc:	01000000 	mrseq	r0, (UNDEF: 0)
     1e0:	0e250111 	mcreq	1, 1, r0, cr5, cr1, {0}
     1e4:	0e030b13 	vmoveq.32	d3[0], r0
     1e8:	01110e1b 	tsteq	r1, fp, lsl lr
     1ec:	17100612 			; <UNDEFINED> instruction: 0x17100612
     1f0:	24020000 	strcs	r0, [r2], #-0
     1f4:	3e0b0b00 	vmlacc.f64	d0, d11, d0
     1f8:	0008030b 	andeq	r0, r8, fp, lsl #6
     1fc:	00240300 	eoreq	r0, r4, r0, lsl #6
     200:	0b3e0b0b 	bleq	f82e34 <__bss_end__+0xf7800c>
     204:	00000e03 	andeq	r0, r0, r3, lsl #28
     208:	03001604 	movweq	r1, #1540	; 0x604
     20c:	3b0b3a0e 	blcc	2cea4c <__bss_end__+0x2c3c24>
     210:	490b390b 	stmdbmi	fp, {r0, r1, r3, r8, fp, ip, sp}
     214:	05000013 	streq	r0, [r0, #-19]	; 0xffffffed
     218:	19270115 	stmdbne	r7!, {r0, r2, r4, r8}
     21c:	13011349 	movwne	r1, #4937	; 0x1349
     220:	05060000 	streq	r0, [r6, #-0]
     224:	00134900 	andseq	r4, r3, r0, lsl #18
     228:	00340700 	eorseq	r0, r4, r0, lsl #14
     22c:	0b3a0e03 	bleq	e83a40 <__bss_end__+0xe78c18>
     230:	0b390b3b 	bleq	e42f24 <__bss_end__+0xe380fc>
     234:	193f1349 	ldmdbne	pc!, {r0, r3, r6, r8, r9, ip}	; <UNPREDICTABLE>
     238:	0000193c 	andeq	r1, r0, ip, lsr r9
     23c:	0b000f08 	bleq	3e64 <__code_start__-0x419c>
     240:	0013490b 	andseq	r4, r3, fp, lsl #18
     244:	00260900 	eoreq	r0, r6, r0, lsl #18
     248:	00001349 	andeq	r1, r0, r9, asr #6
     24c:	0b01130a 	bleq	44e7c <__bss_end__+0x3a054>
     250:	3b0b3a0b 	blcc	2cea84 <__bss_end__+0x2c3c5c>
     254:	010b390b 	tsteq	fp, fp, lsl #18
     258:	0b000013 	bleq	2ac <__code_start__-0x7d54>
     25c:	0e03000d 	cdpeq	0, 0, cr0, cr3, cr13, {0}
     260:	0b3b0b3a 	bleq	ec2f50 <__bss_end__+0xeb8128>
     264:	13490b39 	movtne	r0, #39737	; 0x9b39
     268:	00000b38 	andeq	r0, r0, r8, lsr fp
     26c:	3e01040c 	cdpcc	4, 0, cr0, cr1, cr12, {0}
     270:	490b0b0b 	stmdbmi	fp, {r0, r1, r3, r8, r9, fp}
     274:	3b0b3a13 	blcc	2ceac8 <__bss_end__+0x2c3ca0>
     278:	010b390b 	tsteq	fp, fp, lsl #18
     27c:	0d000013 	stceq	0, cr0, [r0, #-76]	; 0xffffffb4
     280:	0e030028 	cdpeq	0, 0, cr0, cr3, cr8, {1}
     284:	00000b1c 	andeq	r0, r0, ip, lsl fp
     288:	0301130e 	movweq	r1, #4878	; 0x130e
     28c:	3a0b0b0e 	bcc	2c2ecc <__bss_end__+0x2b80a4>
     290:	390b3b0b 	stmdbcc	fp, {r0, r1, r3, r8, r9, fp, ip, sp}
     294:	0013010b 	andseq	r0, r3, fp, lsl #2
     298:	000d0f00 	andeq	r0, sp, r0, lsl #30
     29c:	0b3a0803 	bleq	e822b0 <__bss_end__+0xe77488>
     2a0:	0b390b3b 	bleq	e42f94 <__bss_end__+0xe3816c>
     2a4:	0b381349 	bleq	e04fd0 <__bss_end__+0xdfa1a8>
     2a8:	01100000 	tsteq	r0, r0
     2ac:	01134901 	tsteq	r3, r1, lsl #18
     2b0:	11000013 	tstne	r0, r3, lsl r0
     2b4:	13490021 	movtne	r0, #36897	; 0x9021
     2b8:	00000b2f 	andeq	r0, r0, pc, lsr #22
     2bc:	0b000f12 	bleq	3f0c <__code_start__-0x40f4>
     2c0:	1300000b 	movwne	r0, #11
     2c4:	0e030034 	mcreq	0, 0, r0, cr3, cr4, {1}
     2c8:	0b3b0b3a 	bleq	ec2fb8 <__bss_end__+0xeb8190>
     2cc:	13490b39 	movtne	r0, #39737	; 0x9b39
     2d0:	00001802 	andeq	r1, r0, r2, lsl #16
     2d4:	3f012e14 	svccc	0x00012e14
     2d8:	3a0e0319 	bcc	380f44 <__bss_end__+0x37611c>
     2dc:	390b3b0b 	stmdbcc	fp, {r0, r1, r3, r8, r9, fp, ip, sp}
     2e0:	4919270b 	ldmdbmi	r9, {r0, r1, r3, r8, r9, sl, sp}
     2e4:	12011113 	andne	r1, r1, #-1073741820	; 0xc0000004
     2e8:	97184006 	ldrls	r4, [r8, -r6]
     2ec:	13011942 	movwne	r1, #6466	; 0x1942
     2f0:	05150000 	ldreq	r0, [r5, #-0]
     2f4:	3a0e0300 	bcc	380efc <__bss_end__+0x3760d4>
     2f8:	390b3b0b 	stmdbcc	fp, {r0, r1, r3, r8, r9, fp, ip, sp}
     2fc:	0213490b 	andseq	r4, r3, #180224	; 0x2c000
     300:	1742b717 	smlaldne	fp, r2, r7, r7
     304:	05160000 	ldreq	r0, [r6, #-0]
     308:	3a080300 	bcc	200f10 <__bss_end__+0x1f60e8>
     30c:	390b3b0b 	stmdbcc	fp, {r0, r1, r3, r8, r9, fp, ip, sp}
     310:	0213490b 	andseq	r4, r3, #180224	; 0x2c000
     314:	17000018 	smladne	r0, r8, r0, r0
     318:	08030034 	stmdaeq	r3, {r2, r4, r5}
     31c:	0b3b0b3a 	bleq	ec300c <__bss_end__+0xeb81e4>
     320:	13490b39 	movtne	r0, #39737	; 0x9b39
     324:	42b71702 	adcsmi	r1, r7, #524288	; 0x80000
     328:	18000017 	stmdane	r0, {r0, r1, r2, r4}
     32c:	01018289 	smlabbeq	r1, r9, r2, r8
     330:	13310111 	teqne	r1, #1073741828	; 0x40000004
     334:	00001301 	andeq	r1, r0, r1, lsl #6
     338:	01828a19 	orreq	r8, r2, r9, lsl sl
     33c:	91180200 	tstls	r8, r0, lsl #4
     340:	00001842 	andeq	r1, r0, r2, asr #16
     344:	0182891a 	orreq	r8, r2, sl, lsl r9
     348:	31011101 	tstcc	r1, r1, lsl #2
     34c:	1b000013 	blne	3a0 <__code_start__-0x7c60>
     350:	193f012e 	ldmdbne	pc!, {r1, r2, r3, r5, r8}	; <UNPREDICTABLE>
     354:	0b3a0e03 	bleq	e83b68 <__bss_end__+0xe78d40>
     358:	0b390b3b 	bleq	e4304c <__bss_end__+0xe38224>
     35c:	01111927 	tsteq	r1, r7, lsr #18
     360:	18400612 	stmdane	r0, {r1, r4, r9, sl}^
     364:	01194297 			; <UNDEFINED> instruction: 0x01194297
     368:	1c000013 	stcne	0, cr0, [r0], {19}
     36c:	08030005 	stmdaeq	r3, {r0, r2}
     370:	0b3b0b3a 	bleq	ec3060 <__bss_end__+0xeb8238>
     374:	13490b39 	movtne	r0, #39737	; 0x9b39
     378:	42b71702 	adcsmi	r1, r7, #524288	; 0x80000
     37c:	1d000017 	stcne	0, cr0, [r0, #-92]	; 0xffffffa4
     380:	0e030034 	mcreq	0, 0, r0, cr3, cr4, {1}
     384:	19341349 	ldmdbne	r4!, {r0, r3, r6, r8, r9, ip}
     388:	00001802 	andeq	r1, r0, r2, lsl #16
     38c:	31011d1e 	tstcc	r1, lr, lsl sp
     390:	b8015213 	stmdalt	r1, {r0, r1, r4, r9, ip, lr}
     394:	17550b42 	ldrbne	r0, [r5, -r2, asr #22]
     398:	0b590b58 	bleq	1643100 <__bss_end__+0x16382d8>
     39c:	13010b57 	movwne	r0, #6999	; 0x1b57
     3a0:	051f0000 	ldreq	r0, [pc, #-0]	; 3a8 <__code_start__-0x7c58>
     3a4:	02133100 	andseq	r3, r3, #0
     3a8:	1742b717 	smlaldne	fp, r2, r7, r7
     3ac:	0b200000 	bleq	8003b4 <__bss_end__+0x7f558c>
     3b0:	00175501 	andseq	r5, r7, r1, lsl #10
     3b4:	00342100 	eorseq	r2, r4, r0, lsl #2
     3b8:	17021331 	smladxne	r2, r1, r3, r1
     3bc:	001742b7 			; <UNDEFINED> instruction: 0x001742b7
     3c0:	82892200 	addhi	r2, r9, #0, 4
     3c4:	01110001 	tsteq	r1, r1
     3c8:	00001331 	andeq	r1, r0, r1, lsr r3
     3cc:	03012e23 	movweq	r2, #7715	; 0x1e23
     3d0:	3b0b3a0e 	blcc	2cec10 <__bss_end__+0x2c3de8>
     3d4:	270b390b 	strcs	r3, [fp, -fp, lsl #18]
     3d8:	010b2019 	tsteq	fp, r9, lsl r0
     3dc:	24000013 	strcs	r0, [r0], #-19	; 0xffffffed
     3e0:	08030005 	stmdaeq	r3, {r0, r2}
     3e4:	0b3b0b3a 	bleq	ec30d4 <__bss_end__+0xeb82ac>
     3e8:	13490b39 	movtne	r0, #39737	; 0x9b39
     3ec:	34250000 	strtcc	r0, [r5], #-0
     3f0:	3a0e0300 	bcc	380ff8 <__bss_end__+0x3761d0>
     3f4:	390b3b0b 	stmdbcc	fp, {r0, r1, r3, r8, r9, fp, ip, sp}
     3f8:	0013490b 	andseq	r4, r3, fp, lsl #18
     3fc:	00342600 	eorseq	r2, r4, r0, lsl #12
     400:	0b3a0803 	bleq	e82414 <__bss_end__+0xe775ec>
     404:	0b390b3b 	bleq	e430f8 <__bss_end__+0xe382d0>
     408:	00001349 	andeq	r1, r0, r9, asr #6
     40c:	11010b27 	tstne	r1, r7, lsr #22
     410:	00061201 	andeq	r1, r6, r1, lsl #4
     414:	001d2800 	andseq	r2, sp, r0, lsl #16
     418:	01521331 	cmpeq	r2, r1, lsr r3
     41c:	110b42b8 			; <UNDEFINED> instruction: 0x110b42b8
     420:	58061201 	stmdapl	r6, {r0, r9, ip}
     424:	570b590b 	strpl	r5, [fp, -fp, lsl #18]
     428:	2900000b 	stmdbcs	r0, {r0, r1, r3}
     42c:	1331011d 	teqne	r1, #1073741831	; 0x40000007
     430:	42b80152 	adcsmi	r0, r8, #-2147483628	; 0x80000014
     434:	1201110b 	andne	r1, r1, #-1073741822	; 0xc0000002
     438:	590b5806 	stmdbpl	fp, {r1, r2, fp, ip, lr}
     43c:	010b570b 	tsteq	fp, fp, lsl #14
     440:	2a000013 	bcs	494 <__code_start__-0x7b6c>
     444:	1331011d 	teqne	r1, #1073741831	; 0x40000007
     448:	42b80152 	adcsmi	r0, r8, #-2147483628	; 0x80000014
     44c:	5817550b 	ldmdapl	r7, {r0, r1, r3, r8, sl, ip, lr}
     450:	570b590b 	strpl	r5, [fp, -fp, lsl #18]
     454:	2b00000b 	blcs	488 <__code_start__-0x7b78>
     458:	1331011d 	teqne	r1, #1073741831	; 0x40000007
     45c:	42b80152 	adcsmi	r0, r8, #-2147483628	; 0x80000014
     460:	1201110b 	andne	r1, r1, #-1073741822	; 0xc0000002
     464:	590b5806 	stmdbpl	fp, {r1, r2, fp, ip, lr}
     468:	000b570b 	andeq	r5, fp, fp, lsl #14
     46c:	012e2c00 			; <UNDEFINED> instruction: 0x012e2c00
     470:	0e03193f 			; <UNDEFINED> instruction: 0x0e03193f
     474:	0b3b0b3a 	bleq	ec3164 <__bss_end__+0xeb833c>
     478:	19270b39 	stmdbne	r7!, {r0, r3, r4, r5, r8, r9, fp}
     47c:	0b201349 	bleq	8051a8 <__bss_end__+0x7fa380>
     480:	00001301 	andeq	r1, r0, r1, lsl #6
     484:	3f002e2d 	svccc	0x00002e2d
     488:	3a0e0319 	bcc	3810f4 <__bss_end__+0x3762cc>
     48c:	390b3b0b 	stmdbcc	fp, {r0, r1, r3, r8, r9, fp, ip, sp}
     490:	4919270b 	ldmdbmi	r9, {r0, r1, r3, r8, r9, sl, sp}
     494:	000b2013 	andeq	r2, fp, r3, lsl r0
     498:	012e2e00 			; <UNDEFINED> instruction: 0x012e2e00
     49c:	0b3a0e03 	bleq	e83cb0 <__bss_end__+0xe78e88>
     4a0:	0b390b3b 	bleq	e43194 <__bss_end__+0xe3836c>
     4a4:	13491927 	movtne	r1, #39207	; 0x9927
     4a8:	13010b20 	movwne	r0, #6944	; 0x1b20
     4ac:	2e2f0000 	cdpcs	0, 2, cr0, cr15, cr0, {0}
     4b0:	11133100 	tstne	r3, r0, lsl #2
     4b4:	40061201 	andmi	r1, r6, r1, lsl #4
     4b8:	19429718 	stmdbne	r2, {r3, r4, r8, r9, sl, ip, pc}^
     4bc:	2e300000 	cdpcs	0, 3, cr0, cr0, cr0, {0}
     4c0:	11133101 	tstne	r3, r1, lsl #2
     4c4:	40061201 	andmi	r1, r6, r1, lsl #4
     4c8:	19429718 	stmdbne	r2, {r3, r4, r8, r9, sl, ip, pc}^
     4cc:	00001301 	andeq	r1, r0, r1, lsl #6
     4d0:	3f002e31 	svccc	0x00002e31
     4d4:	6e193c19 	mrcvs	12, 0, r3, cr9, cr9, {0}
     4d8:	3a0e030e 	bcc	381118 <__bss_end__+0x3762f0>
     4dc:	390b3b0b 	stmdbcc	fp, {r0, r1, r3, r8, r9, fp, ip, sp}
     4e0:	0000000b 	andeq	r0, r0, fp
     4e4:	25011101 	strcs	r1, [r1, #-257]	; 0xfffffeff
     4e8:	030b130e 	movweq	r1, #45838	; 0xb30e
     4ec:	110e1b0e 	tstne	lr, lr, lsl #22
     4f0:	10061201 	andne	r1, r6, r1, lsl #4
     4f4:	02000017 	andeq	r0, r0, #23, 0
     4f8:	0b0b0024 	bleq	2c0590 <__bss_end__+0x2b5768>
     4fc:	08030b3e 	stmdaeq	r3, {r1, r2, r3, r4, r5, r8, r9, fp}
     500:	24030000 	strcs	r0, [r3], #-0
     504:	3e0b0b00 	vmlacc.f64	d0, d11, d0
     508:	000e030b 	andeq	r0, lr, fp, lsl #6
     50c:	01150400 	tsteq	r5, r0, lsl #8
     510:	13491927 	movtne	r1, #39207	; 0x9927
     514:	00001301 	andeq	r1, r0, r1, lsl #6
     518:	49000505 	stmdbmi	r0, {r0, r2, r8, sl}
     51c:	06000013 			; <UNDEFINED> instruction: 0x06000013
     520:	0e030034 	mcreq	0, 0, r0, cr3, cr4, {1}
     524:	0b3b0b3a 	bleq	ec3214 <__bss_end__+0xeb83ec>
     528:	13490b39 	movtne	r0, #39737	; 0x9b39
     52c:	193c193f 	ldmdbne	ip!, {r0, r1, r2, r3, r4, r5, r8, fp, ip}
     530:	0f070000 	svceq	0x00070000
     534:	490b0b00 	stmdbmi	fp, {r8, r9, fp}
     538:	08000013 	stmdaeq	r0, {r0, r1, r4}
     53c:	13490026 	movtne	r0, #36902	; 0x9026
     540:	17090000 	strne	r0, [r9, -r0]
     544:	0b0e0301 	bleq	381150 <__bss_end__+0x376328>
     548:	3b0b3a0b 	blcc	2ced7c <__bss_end__+0x2c3f54>
     54c:	010b390b 	tsteq	fp, fp, lsl #18
     550:	0a000013 	beq	5a4 <__code_start__-0x7a5c>
     554:	0803000d 	stmdaeq	r3, {r0, r2, r3}
     558:	0b3b0b3a 	bleq	ec3248 <__bss_end__+0xeb8420>
     55c:	13490b39 	movtne	r0, #39737	; 0x9b39
     560:	0f0b0000 	svceq	0x000b0000
     564:	000b0b00 	andeq	r0, fp, r0, lsl #22
     568:	00150c00 	andseq	r0, r5, r0, lsl #24
     56c:	00001927 	andeq	r1, r0, r7, lsr #18
     570:	0b01130d 	bleq	451ac <__bss_end__+0x3a384>
     574:	3b0b3a0b 	blcc	2ceda8 <__bss_end__+0x2c3f80>
     578:	010b390b 	tsteq	fp, fp, lsl #18
     57c:	0e000013 	mcreq	0, 0, r0, cr0, cr3, {0}
     580:	0803000d 	stmdaeq	r3, {r0, r2, r3}
     584:	0b3b0b3a 	bleq	ec3274 <__bss_end__+0xeb844c>
     588:	13490b39 	movtne	r0, #39737	; 0x9b39
     58c:	00000b38 	andeq	r0, r0, r8, lsr fp
     590:	03000d0f 	movweq	r0, #3343	; 0xd0f
     594:	3b0b3a0e 	blcc	2cedd4 <__bss_end__+0x2c3fac>
     598:	490b390b 	stmdbmi	fp, {r0, r1, r3, r8, fp, ip, sp}
     59c:	000b3813 	andeq	r3, fp, r3, lsl r8
     5a0:	00161000 	andseq	r1, r6, r0
     5a4:	0b3a0e03 	bleq	e83db8 <__bss_end__+0xe78f90>
     5a8:	0b390b3b 	bleq	e4329c <__bss_end__+0xe38474>
     5ac:	00001349 	andeq	r1, r0, r9, asr #6
     5b0:	03003411 	movweq	r3, #1041	; 0x411
     5b4:	3b0b3a0e 	blcc	2cedf4 <__bss_end__+0x2c3fcc>
     5b8:	490b390b 	stmdbmi	fp, {r0, r1, r3, r8, fp, ip, sp}
     5bc:	00180213 	andseq	r0, r8, r3, lsl r2
     5c0:	012e1200 			; <UNDEFINED> instruction: 0x012e1200
     5c4:	0e03193f 			; <UNDEFINED> instruction: 0x0e03193f
     5c8:	0b3b0b3a 	bleq	ec32b8 <__bss_end__+0xeb8490>
     5cc:	19270b39 	stmdbne	r7!, {r0, r3, r4, r5, r8, r9, fp}
     5d0:	06120111 			; <UNDEFINED> instruction: 0x06120111
     5d4:	42971840 	addsmi	r1, r7, #64, 16	; 0x400000
     5d8:	00130119 	andseq	r0, r3, r9, lsl r1
     5dc:	00051300 	andeq	r1, r5, r0, lsl #6
     5e0:	0b3a0803 	bleq	e825f4 <__bss_end__+0xe777cc>
     5e4:	0b390b3b 	bleq	e432d8 <__bss_end__+0xe384b0>
     5e8:	18021349 	stmdane	r2, {r0, r3, r6, r8, r9, ip}
     5ec:	34140000 	ldrcc	r0, [r4], #-0
     5f0:	3a080300 	bcc	2011f8 <__bss_end__+0x1f63d0>
     5f4:	390b3b0b 	stmdbcc	fp, {r0, r1, r3, r8, r9, fp, ip, sp}
     5f8:	0213490b 	andseq	r4, r3, #180224	; 0x2c000
     5fc:	1742b717 	smlaldne	fp, r2, r7, r7
     600:	2e150000 	cdpcs	0, 1, cr0, cr5, cr0, {0}
     604:	03193f01 	tsteq	r9, #1, 30
     608:	3b0b3a0e 	blcc	2cee48 <__bss_end__+0x2c4020>
     60c:	270b390b 	strcs	r3, [fp, -fp, lsl #18]
     610:	11134919 	tstne	r3, r9, lsl r9
     614:	40061201 	andmi	r1, r6, r1, lsl #4
     618:	19429718 	stmdbne	r2, {r3, r4, r8, r9, sl, ip, pc}^
     61c:	00001301 	andeq	r1, r0, r1, lsl #6
     620:	03000516 	movweq	r0, #1302	; 0x516
     624:	3b0b3a0e 	blcc	2cee64 <__bss_end__+0x2c403c>
     628:	490b390b 	stmdbmi	fp, {r0, r1, r3, r8, fp, ip, sp}
     62c:	b7170213 			; <UNDEFINED> instruction: 0xb7170213
     630:	00001742 	andeq	r1, r0, r2, asr #14
     634:	03003417 	movweq	r3, #1047	; 0x417
     638:	3b0b3a0e 	blcc	2cee78 <__bss_end__+0x2c4050>
     63c:	490b390b 	stmdbmi	fp, {r0, r1, r3, r8, fp, ip, sp}
     640:	b7170213 			; <UNDEFINED> instruction: 0xb7170213
     644:	00001742 	andeq	r1, r0, r2, asr #14
     648:	31011d18 	tstcc	r1, r8, lsl sp
     64c:	b8015213 	stmdalt	r1, {r0, r1, r4, r9, ip, lr}
     650:	17550b42 	ldrbne	r0, [r5, -r2, asr #22]
     654:	0b590b58 	bleq	16433bc <__bss_end__+0x1638594>
     658:	00000b57 	andeq	r0, r0, r7, asr fp
     65c:	31000519 	tstcc	r0, r9, lsl r5
     660:	b7170213 			; <UNDEFINED> instruction: 0xb7170213
     664:	00001742 	andeq	r1, r0, r2, asr #14
     668:	55010b1a 	strpl	r0, [r1, #-2842]	; 0xfffff4e6
     66c:	1b000017 	blne	6d0 <__code_start__-0x7930>
     670:	13310034 	teqne	r1, #52, 0	; 0x34
     674:	42b71702 	adcsmi	r1, r7, #524288	; 0x80000
     678:	1c000017 	stcne	0, cr0, [r0], {23}
     67c:	00018289 	andeq	r8, r1, r9, lsl #5
     680:	13310111 	teqne	r1, #1073741828	; 0x40000004
     684:	891d0000 	ldmdbhi	sp, {}	; <UNPREDICTABLE>
     688:	11010182 	smlabbne	r1, r2, r1, r0
     68c:	01133101 	tsteq	r3, r1, lsl #2
     690:	1e000013 	mcrne	0, 0, r0, cr0, cr3, {0}
     694:	0001828a 	andeq	r8, r1, sl, lsl #5
     698:	42911802 	addsmi	r1, r1, #131072	; 0x20000
     69c:	1f000018 	svcne	0x00000018
     6a0:	01018289 	smlabbeq	r1, r9, r2, r8
     6a4:	13310111 	teqne	r1, #1073741828	; 0x40000004
     6a8:	2e200000 	cdpcs	0, 2, cr0, cr0, cr0, {0}
     6ac:	3a0e0301 	bcc	3812b8 <__bss_end__+0x376490>
     6b0:	390b3b0b 	stmdbcc	fp, {r0, r1, r3, r8, r9, fp, ip, sp}
     6b4:	4919270b 	ldmdbmi	r9, {r0, r1, r3, r8, r9, sl, sp}
     6b8:	010b2013 	tsteq	fp, r3, lsl r0
     6bc:	21000013 	tstcs	r0, r3, lsl r0
     6c0:	08030005 	stmdaeq	r3, {r0, r2}
     6c4:	0b3b0b3a 	bleq	ec33b4 <__bss_end__+0xeb858c>
     6c8:	13490b39 	movtne	r0, #39737	; 0x9b39
     6cc:	34220000 	strtcc	r0, [r2], #-0
     6d0:	3a080300 	bcc	2012d8 <__bss_end__+0x1f64b0>
     6d4:	390b3b0b 	stmdbcc	fp, {r0, r1, r3, r8, r9, fp, ip, sp}
     6d8:	0013490b 	andseq	r4, r3, fp, lsl #18
     6dc:	002e2300 	eoreq	r2, lr, r0, lsl #6
     6e0:	193c193f 	ldmdbne	ip!, {r0, r1, r2, r3, r4, r5, r8, fp, ip}
     6e4:	0e030e6e 	cdpeq	14, 0, cr0, cr3, cr14, {3}
     6e8:	0b3b0b3a 	bleq	ec33d8 <__bss_end__+0xeb85b0>
     6ec:	00000b39 	andeq	r0, r0, r9, lsr fp
     6f0:	01110100 	tsteq	r1, r0, lsl #2
     6f4:	0b130e25 	bleq	4c3f90 <__bss_end__+0x4b9168>
     6f8:	0e1b0e03 	cdpeq	14, 1, cr0, cr11, cr3, {0}
     6fc:	06120111 			; <UNDEFINED> instruction: 0x06120111
     700:	00001710 	andeq	r1, r0, r0, lsl r7
     704:	0b002402 	bleq	9714 <set_user_level+0x10>
     708:	030b3e0b 	movweq	r3, #48651	; 0xbe0b
     70c:	03000008 	movweq	r0, #8
     710:	0b0b0024 	bleq	2c07a8 <__bss_end__+0x2b5980>
     714:	0e030b3e 	vmoveq.16	d3[0], r0
     718:	16040000 	strne	r0, [r4], -r0
     71c:	3a0e0300 	bcc	381324 <__bss_end__+0x3764fc>
     720:	390b3b0b 	stmdbcc	fp, {r0, r1, r3, r8, r9, fp, ip, sp}
     724:	0013490b 	andseq	r4, r3, fp, lsl #18
     728:	01150500 	tsteq	r5, r0, lsl #10
     72c:	13491927 	movtne	r1, #39207	; 0x9927
     730:	00001301 	andeq	r1, r0, r1, lsl #6
     734:	49000506 	stmdbmi	r0, {r1, r2, r8, sl}
     738:	07000013 	smladeq	r0, r3, r0, r0
     73c:	0e030034 	mcreq	0, 0, r0, cr3, cr4, {1}
     740:	0b3b0b3a 	bleq	ec3430 <__bss_end__+0xeb8608>
     744:	13490b39 	movtne	r0, #39737	; 0x9b39
     748:	193c193f 	ldmdbne	ip!, {r0, r1, r2, r3, r4, r5, r8, fp, ip}
     74c:	0f080000 	svceq	0x00080000
     750:	490b0b00 	stmdbmi	fp, {r8, r9, fp}
     754:	09000013 	stmdbeq	r0, {r0, r1, r4}
     758:	13490026 	movtne	r0, #36902	; 0x9026
     75c:	130a0000 	movwne	r0, #40960	; 0xa000
     760:	3a0b0b01 	bcc	2c336c <__bss_end__+0x2b8544>
     764:	390b3b0b 	stmdbcc	fp, {r0, r1, r3, r8, r9, fp, ip, sp}
     768:	0013010b 	andseq	r0, r3, fp, lsl #2
     76c:	000d0b00 	andeq	r0, sp, r0, lsl #22
     770:	0b3a0e03 	bleq	e83f84 <__bss_end__+0xe7915c>
     774:	0b390b3b 	bleq	e43468 <__bss_end__+0xe38640>
     778:	0b381349 	bleq	e054a4 <__bss_end__+0xdfa67c>
     77c:	040c0000 	streq	r0, [ip], #-0
     780:	0b0b3e01 	bleq	2cff8c <__bss_end__+0x2c5164>
     784:	3a13490b 	bcc	4d2bb8 <__bss_end__+0x4c7d90>
     788:	390b3b0b 	stmdbcc	fp, {r0, r1, r3, r8, r9, fp, ip, sp}
     78c:	0013010b 	andseq	r0, r3, fp, lsl #2
     790:	00280d00 	eoreq	r0, r8, r0, lsl #26
     794:	0b1c0e03 	bleq	703fa8 <__bss_end__+0x6f9180>
     798:	130e0000 	movwne	r0, #57344	; 0xe000
     79c:	0b0e0301 	bleq	3813a8 <__bss_end__+0x376580>
     7a0:	3b0b3a0b 	blcc	2cefd4 <__bss_end__+0x2c41ac>
     7a4:	010b390b 	tsteq	fp, fp, lsl #18
     7a8:	0f000013 	svceq	0x00000013
     7ac:	0803000d 	stmdaeq	r3, {r0, r2, r3}
     7b0:	0b3b0b3a 	bleq	ec34a0 <__bss_end__+0xeb8678>
     7b4:	13490b39 	movtne	r0, #39737	; 0x9b39
     7b8:	00000b38 	andeq	r0, r0, r8, lsr fp
     7bc:	49010110 	stmdbmi	r1, {r4, r8}
     7c0:	00130113 	andseq	r0, r3, r3, lsl r1
     7c4:	00211100 	eoreq	r1, r1, r0, lsl #2
     7c8:	0b2f1349 	bleq	bc54f4 <__bss_end__+0xbba6cc>
     7cc:	0f120000 	svceq	0x00120000
     7d0:	000b0b00 	andeq	r0, fp, r0, lsl #22
     7d4:	00341300 	eorseq	r1, r4, r0, lsl #6
     7d8:	0b3a0e03 	bleq	e83fec <__bss_end__+0xe791c4>
     7dc:	0b390b3b 	bleq	e434d0 <__bss_end__+0xe386a8>
     7e0:	18021349 	stmdane	r2, {r0, r3, r6, r8, r9, ip}
     7e4:	2e140000 	cdpcs	0, 1, cr0, cr4, cr0, {0}
     7e8:	03193f01 	tsteq	r9, #1, 30
     7ec:	3b0b3a0e 	blcc	2cf02c <__bss_end__+0x2c4204>
     7f0:	270b3905 	strcs	r3, [fp, -r5, lsl #18]
     7f4:	12011119 	andne	r1, r1, #1073741830	; 0x40000006
     7f8:	97184006 	ldrls	r4, [r8, -r6]
     7fc:	13011942 	movwne	r1, #6466	; 0x1942
     800:	34150000 	ldrcc	r0, [r5], #-0
     804:	490e0300 	stmdbmi	lr, {r8, r9}
     808:	02193413 	andseq	r3, r9, #318767104	; 0x13000000
     80c:	16000018 			; <UNDEFINED> instruction: 0x16000018
     810:	01018289 	smlabbeq	r1, r9, r2, r8
     814:	13310111 	teqne	r1, #1073741828	; 0x40000004
     818:	00001301 	andeq	r1, r0, r1, lsl #6
     81c:	01828a17 	orreq	r8, r2, r7, lsl sl
     820:	91180200 	tstls	r8, r0, lsl #4
     824:	00001842 	andeq	r1, r0, r2, asr #16
     828:	01828918 	orreq	r8, r2, r8, lsl r9
     82c:	31011100 	mrscc	r1, (UNDEF: 17)
     830:	19000013 	stmdbne	r0, {r0, r1, r4}
     834:	193f012e 	ldmdbne	pc!, {r1, r2, r3, r5, r8}	; <UNPREDICTABLE>
     838:	0b3a0e03 	bleq	e8404c <__bss_end__+0xe79224>
     83c:	0b39053b 	bleq	e41d30 <__bss_end__+0xe36f08>
     840:	13491927 	movtne	r1, #39207	; 0x9927
     844:	06120111 			; <UNDEFINED> instruction: 0x06120111
     848:	42971840 	addsmi	r1, r7, #64, 16	; 0x400000
     84c:	00130119 	andseq	r0, r3, r9, lsl r1
     850:	00341a00 	eorseq	r1, r4, r0, lsl #20
     854:	0b3a0e03 	bleq	e84068 <__bss_end__+0xe79240>
     858:	0b39053b 	bleq	e41d4c <__bss_end__+0xe36f24>
     85c:	17021349 	strne	r1, [r2, -r9, asr #6]
     860:	001742b7 			; <UNDEFINED> instruction: 0x001742b7
     864:	011d1b00 	tsteq	sp, r0, lsl #22
     868:	01521331 	cmpeq	r2, r1, lsr r3
     86c:	110b42b8 			; <UNDEFINED> instruction: 0x110b42b8
     870:	58061201 	stmdapl	r6, {r0, r9, ip}
     874:	5705590b 	strpl	r5, [r5, -fp, lsl #18]
     878:	0013010b 	andseq	r0, r3, fp, lsl #2
     87c:	00341c00 	eorseq	r1, r4, r0, lsl #24
     880:	17021331 	smladxne	r2, r1, r3, r1
     884:	001742b7 			; <UNDEFINED> instruction: 0x001742b7
     888:	010b1d00 	tsteq	fp, r0, lsl #26
     88c:	17551331 	smmlarne	r5, r1, r3, r1
     890:	00001301 	andeq	r1, r0, r1, lsl #6
     894:	31011d1e 	tstcc	r1, lr, lsl sp
     898:	b8015213 	stmdalt	r1, {r0, r1, r4, r9, ip, lr}
     89c:	17550b42 	ldrbne	r0, [r5, -r2, asr #22]
     8a0:	05590b58 	ldrbeq	r0, [r9, #-2904]	; 0xfffff4a8
     8a4:	13010b57 	movwne	r0, #6999	; 0x1b57
     8a8:	051f0000 	ldreq	r0, [pc, #-0]	; 8b0 <__code_start__-0x7750>
     8ac:	02133100 	andseq	r3, r3, #0
     8b0:	1742b717 	smlaldne	fp, r2, r7, r7
     8b4:	89200000 	stmdbhi	r0!, {}	; <UNPREDICTABLE>
     8b8:	11010182 	smlabbne	r1, r2, r1, r0
     8bc:	00133101 	andseq	r3, r3, r1, lsl #2
     8c0:	012e2100 			; <UNDEFINED> instruction: 0x012e2100
     8c4:	0b3a0e03 	bleq	e840d8 <__bss_end__+0xe792b0>
     8c8:	0b390b3b 	bleq	e435bc <__bss_end__+0xe38794>
     8cc:	13491927 	movtne	r1, #39207	; 0x9927
     8d0:	13010b20 	movwne	r0, #6944	; 0x1b20
     8d4:	34220000 	strtcc	r0, [r2], #-0
     8d8:	3a0e0300 	bcc	3814e0 <__bss_end__+0x3766b8>
     8dc:	390b3b0b 	stmdbcc	fp, {r0, r1, r3, r8, r9, fp, ip, sp}
     8e0:	0013490b 	andseq	r4, r3, fp, lsl #18
     8e4:	010b2300 	mrseq	r2, (UNDEF: 59)
     8e8:	34240000 	strtcc	r0, [r4], #-0
     8ec:	3a080300 	bcc	2014f4 <__bss_end__+0x1f66cc>
     8f0:	390b3b0b 	stmdbcc	fp, {r0, r1, r3, r8, r9, fp, ip, sp}
     8f4:	0013490b 	andseq	r4, r3, fp, lsl #18
     8f8:	012e2500 			; <UNDEFINED> instruction: 0x012e2500
     8fc:	0e03193f 			; <UNDEFINED> instruction: 0x0e03193f
     900:	0b3b0b3a 	bleq	ec35f0 <__bss_end__+0xeb87c8>
     904:	19270b39 	stmdbne	r7!, {r0, r3, r4, r5, r8, r9, fp}
     908:	01111349 	tsteq	r1, r9, asr #6
     90c:	18400612 	stmdane	r0, {r1, r4, r9, sl}^
     910:	01194297 			; <UNDEFINED> instruction: 0x01194297
     914:	26000013 			; <UNDEFINED> instruction: 0x26000013
     918:	0e030034 	mcreq	0, 0, r0, cr3, cr4, {1}
     91c:	0b3b0b3a 	bleq	ec360c <__bss_end__+0xeb87e4>
     920:	13490b39 	movtne	r0, #39737	; 0x9b39
     924:	42b71702 	adcsmi	r1, r7, #524288	; 0x80000
     928:	27000017 	smladcs	r0, r7, r0, r0
     92c:	1331011d 	teqne	r1, #1073741831	; 0x40000007
     930:	42b80152 	adcsmi	r0, r8, #-2147483628	; 0x80000014
     934:	1201110b 	andne	r1, r1, #-1073741822	; 0xc0000002
     938:	590b5806 	stmdbpl	fp, {r1, r2, fp, ip, lr}
     93c:	010b570b 	tsteq	fp, fp, lsl #14
     940:	28000013 	stmdacs	r0, {r0, r1, r4}
     944:	193f012e 	ldmdbne	pc!, {r1, r2, r3, r5, r8}	; <UNPREDICTABLE>
     948:	0b3a0e03 	bleq	e8415c <__bss_end__+0xe79334>
     94c:	0b390b3b 	bleq	e43640 <__bss_end__+0xe38818>
     950:	01111927 	tsteq	r1, r7, lsr #18
     954:	18400612 	stmdane	r0, {r1, r4, r9, sl}^
     958:	01194297 			; <UNDEFINED> instruction: 0x01194297
     95c:	29000013 	stmdbcs	r0, {r0, r1, r4}
     960:	193f012e 	ldmdbne	pc!, {r1, r2, r3, r5, r8}	; <UNPREDICTABLE>
     964:	0b3a0e03 	bleq	e84178 <__bss_end__+0xe79350>
     968:	0b390b3b 	bleq	e4365c <__bss_end__+0xe38834>
     96c:	13491927 	movtne	r1, #39207	; 0x9927
     970:	13010b20 	movwne	r0, #6944	; 0x1b20
     974:	052a0000 	streq	r0, [sl, #-0]!
     978:	3a0e0300 	bcc	381580 <__bss_end__+0x376758>
     97c:	390b3b0b 	stmdbcc	fp, {r0, r1, r3, r8, r9, fp, ip, sp}
     980:	0013490b 	andseq	r4, r3, fp, lsl #18
     984:	012e2b00 			; <UNDEFINED> instruction: 0x012e2b00
     988:	0b3a0e03 	bleq	e8419c <__bss_end__+0xe79374>
     98c:	0b390b3b 	bleq	e43680 <__bss_end__+0xe38858>
     990:	13491927 	movtne	r1, #39207	; 0x9927
     994:	06120111 			; <UNDEFINED> instruction: 0x06120111
     998:	42971840 	addsmi	r1, r7, #64, 16	; 0x400000
     99c:	00130119 	andseq	r0, r3, r9, lsl r1
     9a0:	00052c00 	andeq	r2, r5, r0, lsl #24
     9a4:	0b3a0e03 	bleq	e841b8 <__bss_end__+0xe79390>
     9a8:	0b390b3b 	bleq	e4369c <__bss_end__+0xe38874>
     9ac:	17021349 	strne	r1, [r2, -r9, asr #6]
     9b0:	001742b7 			; <UNDEFINED> instruction: 0x001742b7
     9b4:	010b2d00 	tsteq	fp, r0, lsl #26
     9b8:	13011755 	movwne	r1, #5973	; 0x1755
     9bc:	342e0000 	strtcc	r0, [lr], #-0
     9c0:	3a080300 	bcc	2015c8 <__bss_end__+0x1f67a0>
     9c4:	390b3b0b 	stmdbcc	fp, {r0, r1, r3, r8, r9, fp, ip, sp}
     9c8:	0213490b 	andseq	r4, r3, #180224	; 0x2c000
     9cc:	1742b717 	smlaldne	fp, r2, r7, r7
     9d0:	2e2f0000 	cdpcs	0, 2, cr0, cr15, cr0, {0}
     9d4:	3a0e0301 	bcc	3815e0 <__bss_end__+0x3767b8>
     9d8:	390b3b0b 	stmdbcc	fp, {r0, r1, r3, r8, r9, fp, ip, sp}
     9dc:	1119270b 	tstne	r9, fp, lsl #14
     9e0:	40061201 	andmi	r1, r6, r1, lsl #4
     9e4:	19429718 	stmdbne	r2, {r3, r4, r8, r9, sl, ip, pc}^
     9e8:	00001301 	andeq	r1, r0, r1, lsl #6
     9ec:	03003430 	movweq	r3, #1072	; 0x430
     9f0:	3b0b3a0e 	blcc	2cf230 <__bss_end__+0x2c4408>
     9f4:	490b390b 	stmdbmi	fp, {r0, r1, r3, r8, fp, ip, sp}
     9f8:	00061c13 	andeq	r1, r6, r3, lsl ip
     9fc:	010b3100 	mrseq	r3, (UNDEF: 27)
     a00:	06120111 			; <UNDEFINED> instruction: 0x06120111
     a04:	00001301 	andeq	r1, r0, r1, lsl #6
     a08:	03000532 	movweq	r0, #1330	; 0x532
     a0c:	3b0b3a08 	blcc	2cf234 <__bss_end__+0x2c440c>
     a10:	490b390b 	stmdbmi	fp, {r0, r1, r3, r8, fp, ip, sp}
     a14:	b7170213 			; <UNDEFINED> instruction: 0xb7170213
     a18:	00001742 	andeq	r1, r0, r2, asr #14
     a1c:	55010b33 	strpl	r0, [r1, #-2867]	; 0xfffff4cd
     a20:	34000017 	strcc	r0, [r0], #-23	; 0xffffffe9
     a24:	1331011d 	teqne	r1, #1073741831	; 0x40000007
     a28:	42b80152 	adcsmi	r0, r8, #-2147483628	; 0x80000014
     a2c:	5817550b 	ldmdapl	r7, {r0, r1, r3, r8, sl, ip, lr}
     a30:	570b590b 	strpl	r5, [fp, -fp, lsl #18]
     a34:	3500000b 	strcc	r0, [r0, #-11]
     a38:	1331011d 	teqne	r1, #1073741831	; 0x40000007
     a3c:	42b80152 	adcsmi	r0, r8, #-2147483628	; 0x80000014
     a40:	5817550b 	ldmdapl	r7, {r0, r1, r3, r8, sl, ip, lr}
     a44:	570b590b 	strpl	r5, [fp, -fp, lsl #18]
     a48:	0013010b 	andseq	r0, r3, fp, lsl #2
     a4c:	00053600 	andeq	r3, r5, r0, lsl #12
     a50:	0b3a0803 	bleq	e82a64 <__bss_end__+0xe77c3c>
     a54:	0b390b3b 	bleq	e43748 <__bss_end__+0xe38920>
     a58:	00001349 	andeq	r1, r0, r9, asr #6
     a5c:	31012e37 	tstcc	r1, r7, lsr lr
     a60:	12011113 	andne	r1, r1, #-1073741820	; 0xc0000004
     a64:	97184006 	ldrls	r4, [r8, -r6]
     a68:	13011942 	movwne	r1, #6466	; 0x1942
     a6c:	2e380000 	cdpcs	0, 3, cr0, cr8, cr0, {0}
     a70:	3c193f00 	ldccc	15, cr3, [r9], {-0}
     a74:	030e6e19 	movweq	r6, #60953	; 0xee19
     a78:	3b0b3a0e 	blcc	2cf2b8 <__bss_end__+0x2c4490>
     a7c:	000b390b 	andeq	r3, fp, fp, lsl #18
     a80:	00363900 	eorseq	r3, r6, r0, lsl #18
     a84:	00001802 	andeq	r1, r0, r2, lsl #16
     a88:	01110100 	tsteq	r1, r0, lsl #2
     a8c:	0b130e25 	bleq	4c4328 <__bss_end__+0x4b9500>
     a90:	0e1b0e03 	cdpeq	14, 1, cr0, cr11, cr3, {0}
     a94:	06120111 			; <UNDEFINED> instruction: 0x06120111
     a98:	00001710 	andeq	r1, r0, r0, lsl r7
     a9c:	0b002402 	bleq	9aac <kmalloc_heap_ptr+0x8>
     aa0:	030b3e0b 	movweq	r3, #48651	; 0xbe0b
     aa4:	03000008 	movweq	r0, #8
     aa8:	0e030016 	mcreq	0, 0, r0, cr3, cr6, {0}
     aac:	0b3b0b3a 	bleq	ec379c <__bss_end__+0xeb8974>
     ab0:	13490b39 	movtne	r0, #39737	; 0x9b39
     ab4:	24040000 	strcs	r0, [r4], #-0
     ab8:	3e0b0b00 	vmlacc.f64	d0, d11, d0
     abc:	000e030b 	andeq	r0, lr, fp, lsl #6
     ac0:	01150500 	tsteq	r5, r0, lsl #10
     ac4:	13491927 	movtne	r1, #39207	; 0x9927
     ac8:	00001301 	andeq	r1, r0, r1, lsl #6
     acc:	49000506 	stmdbmi	r0, {r1, r2, r8, sl}
     ad0:	07000013 	smladeq	r0, r3, r0, r0
     ad4:	0e030034 	mcreq	0, 0, r0, cr3, cr4, {1}
     ad8:	0b3b0b3a 	bleq	ec37c8 <__bss_end__+0xeb89a0>
     adc:	13490b39 	movtne	r0, #39737	; 0x9b39
     ae0:	193c193f 	ldmdbne	ip!, {r0, r1, r2, r3, r4, r5, r8, fp, ip}
     ae4:	0f080000 	svceq	0x00080000
     ae8:	490b0b00 	stmdbmi	fp, {r8, r9, fp}
     aec:	09000013 	stmdbeq	r0, {r0, r1, r4}
     af0:	13490026 	movtne	r0, #36902	; 0x9026
     af4:	2e0a0000 	cdpcs	0, 0, cr0, cr10, cr0, {0}
     af8:	03193f01 	tsteq	r9, #1, 30
     afc:	3b0b3a0e 	blcc	2cf33c <__bss_end__+0x2c4514>
     b00:	270b390b 	strcs	r3, [fp, -fp, lsl #18]
     b04:	11134919 	tstne	r3, r9, lsl r9
     b08:	40061201 	andmi	r1, r6, r1, lsl #4
     b0c:	19429718 	stmdbne	r2, {r3, r4, r8, r9, sl, ip, pc}^
     b10:	00001301 	andeq	r1, r0, r1, lsl #6
     b14:	0300050b 	movweq	r0, #1291	; 0x50b
     b18:	3b0b3a08 	blcc	2cf340 <__bss_end__+0x2c4518>
     b1c:	490b390b 	stmdbmi	fp, {r0, r1, r3, r8, fp, ip, sp}
     b20:	00180213 	andseq	r0, r8, r3, lsl r2
     b24:	00050c00 	andeq	r0, r5, r0, lsl #24
     b28:	0b3a0803 	bleq	e82b3c <__bss_end__+0xe77d14>
     b2c:	0b390b3b 	bleq	e43820 <__bss_end__+0xe389f8>
     b30:	17021349 	strne	r1, [r2, -r9, asr #6]
     b34:	001742b7 			; <UNDEFINED> instruction: 0x001742b7
     b38:	00340d00 	eorseq	r0, r4, r0, lsl #26
     b3c:	0b3a0803 	bleq	e82b50 <__bss_end__+0xe77d28>
     b40:	0b390b3b 	bleq	e43834 <__bss_end__+0xe38a0c>
     b44:	17021349 	strne	r1, [r2, -r9, asr #6]
     b48:	001742b7 			; <UNDEFINED> instruction: 0x001742b7
     b4c:	000f0e00 	andeq	r0, pc, r0, lsl #28
     b50:	00000b0b 	andeq	r0, r0, fp, lsl #22
     b54:	01110100 	tsteq	r1, r0, lsl #2
     b58:	0b130e25 	bleq	4c43f4 <__bss_end__+0x4b95cc>
     b5c:	0e1b0e03 	cdpeq	14, 1, cr0, cr11, cr3, {0}
     b60:	06120111 			; <UNDEFINED> instruction: 0x06120111
     b64:	00001710 	andeq	r1, r0, r0, lsl r7
     b68:	03001602 	movweq	r1, #1538	; 0x602
     b6c:	3b0b3a0e 	blcc	2cf3ac <__bss_end__+0x2c4584>
     b70:	490b390b 	stmdbmi	fp, {r0, r1, r3, r8, fp, ip, sp}
     b74:	03000013 	movweq	r0, #19
     b78:	0e030113 	mcreq	1, 0, r0, cr3, cr3, {0}
     b7c:	0b3a0b0b 	bleq	e837b0 <__bss_end__+0xe78988>
     b80:	13010b3b 	movwne	r0, #6971	; 0x1b3b
     b84:	0d040000 	stceq	0, cr0, [r4, #-0]
     b88:	490e0300 	stmdbmi	lr, {r8, r9}
     b8c:	340b3813 	strcc	r3, [fp], #-2067	; 0xfffff7ed
     b90:	05000019 	streq	r0, [r0, #-25]	; 0xffffffe7
     b94:	0b0b000f 	bleq	2c0bd8 <__bss_end__+0x2b5db0>
     b98:	24060000 	strcs	r0, [r6], #-0
     b9c:	3e0b0b00 	vmlacc.f64	d0, d11, d0
     ba0:	0008030b 	andeq	r0, r8, fp, lsl #6
     ba4:	00240700 	eoreq	r0, r4, r0, lsl #14
     ba8:	0b3e0b0b 	bleq	f837dc <__bss_end__+0xf789b4>
     bac:	00000e03 	andeq	r0, r0, r3, lsl #28
     bb0:	27011508 	strcs	r1, [r1, -r8, lsl #10]
     bb4:	01134919 	tsteq	r3, r9, lsl r9
     bb8:	09000013 	stmdbeq	r0, {r0, r1, r4}
     bbc:	13490005 	movtne	r0, #36869	; 0x9005
     bc0:	340a0000 	strcc	r0, [sl], #-0
     bc4:	3a0e0300 	bcc	3817cc <__bss_end__+0x3769a4>
     bc8:	390b3b0b 	stmdbcc	fp, {r0, r1, r3, r8, r9, fp, ip, sp}
     bcc:	3f13490b 	svccc	0x0013490b
     bd0:	00193c19 	andseq	r3, r9, r9, lsl ip
     bd4:	000f0b00 	andeq	r0, pc, r0, lsl #22
     bd8:	13490b0b 	movtne	r0, #39691	; 0x9b0b
     bdc:	260c0000 	strcs	r0, [ip], -r0
     be0:	00134900 	andseq	r4, r3, r0, lsl #18
     be4:	012e0d00 			; <UNDEFINED> instruction: 0x012e0d00
     be8:	0e03193f 			; <UNDEFINED> instruction: 0x0e03193f
     bec:	0b3b0b3a 	bleq	ec38dc <__bss_end__+0xeb8ab4>
     bf0:	19270b39 	stmdbne	r7!, {r0, r3, r4, r5, r8, r9, fp}
     bf4:	01111349 	tsteq	r1, r9, asr #6
     bf8:	18400612 	stmdane	r0, {r1, r4, r9, sl}^
     bfc:	01194297 			; <UNDEFINED> instruction: 0x01194297
     c00:	0e000013 	mcreq	0, 0, r0, cr0, cr3, {0}
     c04:	08030005 	stmdaeq	r3, {r0, r2}
     c08:	0b3b0b3a 	bleq	ec38f8 <__bss_end__+0xeb8ad0>
     c0c:	13490b39 	movtne	r0, #39737	; 0x9b39
     c10:	00001802 	andeq	r1, r0, r2, lsl #16
     c14:	0000180f 	andeq	r1, r0, pc, lsl #16
     c18:	00341000 	eorseq	r1, r4, r0
     c1c:	0b3a0803 	bleq	e82c30 <__bss_end__+0xe77e08>
     c20:	0b390b3b 	bleq	e43914 <__bss_end__+0xe38aec>
     c24:	18021349 	stmdane	r2, {r0, r3, r6, r8, r9, ip}
     c28:	34110000 	ldrcc	r0, [r1], #-0
     c2c:	3a0e0300 	bcc	381834 <__bss_end__+0x376a0c>
     c30:	390b3b0b 	stmdbcc	fp, {r0, r1, r3, r8, r9, fp, ip, sp}
     c34:	0213490b 	andseq	r4, r3, #180224	; 0x2c000
     c38:	12000018 	andne	r0, r0, #24, 0
     c3c:	08030034 	stmdaeq	r3, {r2, r4, r5}
     c40:	0b3b0b3a 	bleq	ec3930 <__bss_end__+0xeb8b08>
     c44:	13490b39 	movtne	r0, #39737	; 0x9b39
     c48:	42b71702 	adcsmi	r1, r7, #524288	; 0x80000
     c4c:	13000017 	movwne	r0, #23
     c50:	01018289 	smlabbeq	r1, r9, r2, r8
     c54:	13310111 	teqne	r1, #1073741828	; 0x40000004
     c58:	00001301 	andeq	r1, r0, r1, lsl #6
     c5c:	01828a14 	orreq	r8, r2, r4, lsl sl
     c60:	91180200 	tstls	r8, r0, lsl #4
     c64:	00001842 	andeq	r1, r0, r2, asr #16
     c68:	01828915 	orreq	r8, r2, r5, lsl r9
     c6c:	00011101 	andeq	r1, r1, r1, lsl #2
     c70:	01011600 	tsteq	r1, r0, lsl #12
     c74:	13011349 	movwne	r1, #4937	; 0x1349
     c78:	21170000 	tstcs	r7, r0
     c7c:	2f134900 	svccs	0x00134900
     c80:	18000005 	stmdane	r0, {r0, r2}
     c84:	193f002e 	ldmdbne	pc!, {r1, r2, r3, r5}	; <UNPREDICTABLE>
     c88:	0e6e193c 			; <UNDEFINED> instruction: 0x0e6e193c
     c8c:	0b3a0e03 	bleq	e844a0 <__bss_end__+0xe79678>
     c90:	0b390b3b 	bleq	e43984 <__bss_end__+0xe38b5c>
     c94:	01000000 	mrseq	r0, (UNDEF: 0)
     c98:	0e250111 	mcreq	1, 1, r0, cr5, cr1, {0}
     c9c:	0e030b13 	vmoveq.32	d3[0], r0
     ca0:	01110e1b 	tsteq	r1, fp, lsl lr
     ca4:	17100612 			; <UNDEFINED> instruction: 0x17100612
     ca8:	24020000 	strcs	r0, [r2], #-0
     cac:	3e0b0b00 	vmlacc.f64	d0, d11, d0
     cb0:	0008030b 	andeq	r0, r8, fp, lsl #6
     cb4:	00240300 	eoreq	r0, r4, r0, lsl #6
     cb8:	0b3e0b0b 	bleq	f838ec <__bss_end__+0xf78ac4>
     cbc:	00000e03 	andeq	r0, r0, r3, lsl #28
     cc0:	27011504 	strcs	r1, [r1, -r4, lsl #10]
     cc4:	01134919 	tsteq	r3, r9, lsl r9
     cc8:	05000013 	streq	r0, [r0, #-19]	; 0xffffffed
     ccc:	13490005 	movtne	r0, #36869	; 0x9005
     cd0:	34060000 	strcc	r0, [r6], #-0
     cd4:	3a0e0300 	bcc	3818dc <__bss_end__+0x376ab4>
     cd8:	390b3b0b 	stmdbcc	fp, {r0, r1, r3, r8, r9, fp, ip, sp}
     cdc:	3f13490b 	svccc	0x0013490b
     ce0:	00193c19 	andseq	r3, r9, r9, lsl ip
     ce4:	000f0700 	andeq	r0, pc, r0, lsl #14
     ce8:	13490b0b 	movtne	r0, #39691	; 0x9b0b
     cec:	26080000 	strcs	r0, [r8], -r0
     cf0:	00134900 	andseq	r4, r3, r0, lsl #18
     cf4:	00340900 	eorseq	r0, r4, r0, lsl #18
     cf8:	0b3a1347 	bleq	e85a1c <__bss_end__+0xe7abf4>
     cfc:	0b390b3b 	bleq	e439f0 <__bss_end__+0xe38bc8>
     d00:	00001802 	andeq	r1, r0, r2, lsl #16
     d04:	3f012e0a 	svccc	0x00012e0a
     d08:	3a0e0319 	bcc	381974 <__bss_end__+0x376b4c>
     d0c:	390b3b0b 	stmdbcc	fp, {r0, r1, r3, r8, r9, fp, ip, sp}
     d10:	4919270b 	ldmdbmi	r9, {r0, r1, r3, r8, r9, sl, sp}
     d14:	12011113 	andne	r1, r1, #-1073741820	; 0xc0000004
     d18:	96184006 	ldrls	r4, [r8], -r6
     d1c:	00001942 	andeq	r1, r0, r2, asr #18
     d20:	0300050b 	movweq	r0, #1291	; 0x50b
     d24:	3b0b3a08 	blcc	2cf54c <__bss_end__+0x2c4724>
     d28:	490b390b 	stmdbmi	fp, {r0, r1, r3, r8, fp, ip, sp}
     d2c:	b7170213 			; <UNDEFINED> instruction: 0xb7170213
     d30:	00001742 	andeq	r1, r0, r2, asr #14
     d34:	01110100 	tsteq	r1, r0, lsl #2
     d38:	0b130e25 	bleq	4c45d4 <__bss_end__+0x4b97ac>
     d3c:	0e1b0e03 	cdpeq	14, 1, cr0, cr11, cr3, {0}
     d40:	06120111 			; <UNDEFINED> instruction: 0x06120111
     d44:	00001710 	andeq	r1, r0, r0, lsl r7
     d48:	0b002402 	bleq	9d58 <kmalloc_aligned+0xb4>
     d4c:	030b3e0b 	movweq	r3, #48651	; 0xbe0b
     d50:	0300000e 	movweq	r0, #14
     d54:	0b0b0024 	bleq	2c0dec <__bss_end__+0x2b5fc4>
     d58:	08030b3e 	stmdaeq	r3, {r1, r2, r3, r4, r5, r8, r9, fp}
     d5c:	16040000 	strne	r0, [r4], -r0
     d60:	3a0e0300 	bcc	381968 <__bss_end__+0x376b40>
     d64:	390b3b0b 	stmdbcc	fp, {r0, r1, r3, r8, r9, fp, ip, sp}
     d68:	0013490b 	andseq	r4, r3, fp, lsl #18
     d6c:	01150500 	tsteq	r5, r0, lsl #10
     d70:	13491927 	movtne	r1, #39207	; 0x9927
     d74:	00001301 	andeq	r1, r0, r1, lsl #6
     d78:	49000506 	stmdbmi	r0, {r1, r2, r8, sl}
     d7c:	07000013 	smladeq	r0, r3, r0, r0
     d80:	0e030034 	mcreq	0, 0, r0, cr3, cr4, {1}
     d84:	0b3b0b3a 	bleq	ec3a74 <__bss_end__+0xeb8c4c>
     d88:	13490b39 	movtne	r0, #39737	; 0x9b39
     d8c:	193c193f 	ldmdbne	ip!, {r0, r1, r2, r3, r4, r5, r8, fp, ip}
     d90:	0f080000 	svceq	0x00080000
     d94:	490b0b00 	stmdbmi	fp, {r8, r9, fp}
     d98:	09000013 	stmdbeq	r0, {r0, r1, r4}
     d9c:	13490026 	movtne	r0, #36902	; 0x9026
     da0:	130a0000 	movwne	r0, #40960	; 0xa000
     da4:	0b0e0301 	bleq	3819b0 <__bss_end__+0x376b88>
     da8:	3b0b3a0b 	blcc	2cf5dc <__bss_end__+0x2c47b4>
     dac:	0013010b 	andseq	r0, r3, fp, lsl #2
     db0:	000d0b00 	andeq	r0, sp, r0, lsl #22
     db4:	13490e03 	movtne	r0, #40451	; 0x9e03
     db8:	19340b38 	ldmdbne	r4!, {r3, r4, r5, r8, r9, fp}
     dbc:	0f0c0000 	svceq	0x000c0000
     dc0:	000b0b00 	andeq	r0, fp, r0, lsl #22
     dc4:	012e0d00 			; <UNDEFINED> instruction: 0x012e0d00
     dc8:	0e03193f 			; <UNDEFINED> instruction: 0x0e03193f
     dcc:	0b3b0b3a 	bleq	ec3abc <__bss_end__+0xeb8c94>
     dd0:	19270b39 	stmdbne	r7!, {r0, r3, r4, r5, r8, r9, fp}
     dd4:	01111349 	tsteq	r1, r9, asr #6
     dd8:	18400612 	stmdane	r0, {r1, r4, r9, sl}^
     ddc:	01194297 			; <UNDEFINED> instruction: 0x01194297
     de0:	0e000013 	mcreq	0, 0, r0, cr0, cr3, {0}
     de4:	08030005 	stmdaeq	r3, {r0, r2}
     de8:	0b3b0b3a 	bleq	ec3ad8 <__bss_end__+0xeb8cb0>
     dec:	13490b39 	movtne	r0, #39737	; 0x9b39
     df0:	42b71702 	adcsmi	r1, r7, #524288	; 0x80000
     df4:	0f000017 	svceq	0x00000017
     df8:	0e030005 	cdpeq	0, 0, cr0, cr3, cr5, {0}
     dfc:	0b3b0b3a 	bleq	ec3aec <__bss_end__+0xeb8cc4>
     e00:	13490b39 	movtne	r0, #39737	; 0x9b39
     e04:	42b71702 	adcsmi	r1, r7, #524288	; 0x80000
     e08:	10000017 	andne	r0, r0, r7, lsl r0
     e0c:	08030034 	stmdaeq	r3, {r2, r4, r5}
     e10:	0b3b0b3a 	bleq	ec3b00 <__bss_end__+0xeb8cd8>
     e14:	13490b39 	movtne	r0, #39737	; 0x9b39
     e18:	42b71702 	adcsmi	r1, r7, #524288	; 0x80000
     e1c:	11000017 	tstne	r0, r7, lsl r0
     e20:	0e030034 	mcreq	0, 0, r0, cr3, cr4, {1}
     e24:	0b3b0b3a 	bleq	ec3b14 <__bss_end__+0xeb8cec>
     e28:	13490b39 	movtne	r0, #39737	; 0x9b39
     e2c:	42b71702 	adcsmi	r1, r7, #524288	; 0x80000
     e30:	12000017 	andne	r0, r0, #23, 0
     e34:	0e030034 	mcreq	0, 0, r0, cr3, cr4, {1}
     e38:	19341349 	ldmdbne	r4!, {r0, r3, r6, r8, r9, ip}
     e3c:	00001802 	andeq	r1, r0, r2, lsl #16
     e40:	55010b13 	strpl	r0, [r1, #-2835]	; 0xfffff4ed
     e44:	14000017 	strne	r0, [r0], #-23	; 0xffffffe9
     e48:	08030034 	stmdaeq	r3, {r2, r4, r5}
     e4c:	0b3b0b3a 	bleq	ec3b3c <__bss_end__+0xeb8d14>
     e50:	13490b39 	movtne	r0, #39737	; 0x9b39
     e54:	00001802 	andeq	r1, r0, r2, lsl #16
     e58:	03003415 	movweq	r3, #1045	; 0x415
     e5c:	3b0b3a0e 	blcc	2cf69c <__bss_end__+0x2c4874>
     e60:	490b390b 	stmdbmi	fp, {r0, r1, r3, r8, fp, ip, sp}
     e64:	00180213 	andseq	r0, r8, r3, lsl r2
     e68:	010b1600 	tsteq	fp, r0, lsl #12
     e6c:	13011755 	movwne	r1, #5973	; 0x1755
     e70:	89170000 	ldmdbhi	r7, {}	; <UNPREDICTABLE>
     e74:	11010182 	smlabbne	r1, r2, r1, r0
     e78:	01133101 	tsteq	r3, r1, lsl #2
     e7c:	18000013 	stmdane	r0, {r0, r1, r4}
     e80:	0001828a 	andeq	r8, r1, sl, lsl #5
     e84:	42911802 	addsmi	r1, r1, #131072	; 0x20000
     e88:	19000018 	stmdbne	r0, {r3, r4}
     e8c:	00018289 	andeq	r8, r1, r9, lsl #5
     e90:	13310111 	teqne	r1, #1073741828	; 0x40000004
     e94:	1d1a0000 	ldcne	0, cr0, [sl, #-0]
     e98:	52133101 	andspl	r3, r3, #1073741824	; 0x40000000
     e9c:	0542b801 	strbeq	fp, [r2, #-2049]	; 0xfffff7ff
     ea0:	0b581755 	bleq	1606bfc <__bss_end__+0x15fbdd4>
     ea4:	0b570b59 	bleq	15c3c10 <__bss_end__+0x15b8de8>
     ea8:	00001301 	andeq	r1, r0, r1, lsl #6
     eac:	3100051b 	tstcc	r0, fp, lsl r5
     eb0:	b7170213 			; <UNDEFINED> instruction: 0xb7170213
     eb4:	00001742 	andeq	r1, r0, r2, asr #14
     eb8:	3100051c 	tstcc	r0, ip, lsl r5
     ebc:	1d000013 	stcne	0, cr0, [r0, #-76]	; 0xffffffb4
     ec0:	13310034 	teqne	r1, #52, 0	; 0x34
     ec4:	00001802 	andeq	r1, r0, r2, lsl #16
     ec8:	3100341e 	tstcc	r0, lr, lsl r4
     ecc:	b7170213 			; <UNDEFINED> instruction: 0xb7170213
     ed0:	00001742 	andeq	r1, r0, r2, asr #14
     ed4:	3100341f 	tstcc	r0, pc, lsl r4
     ed8:	20000013 	andcs	r0, r0, r3, lsl r0
     edc:	1331011d 	teqne	r1, #1073741831	; 0x40000007
     ee0:	42b80152 	adcsmi	r0, r8, #-2147483628	; 0x80000014
     ee4:	58175505 	ldmdapl	r7, {r0, r2, r8, sl, ip, lr}
     ee8:	570b590b 	strpl	r5, [fp, -fp, lsl #18]
     eec:	2100000b 	tstcs	r0, fp
     ef0:	01018289 	smlabbeq	r1, r9, r2, r8
     ef4:	13010111 	movwne	r0, #4369	; 0x1111
     ef8:	01220000 			; <UNDEFINED> instruction: 0x01220000
     efc:	01134901 	tsteq	r3, r1, lsl #18
     f00:	23000013 	movwcs	r0, #19
     f04:	13490021 	movtne	r0, #36897	; 0x9021
     f08:	00000b2f 	andeq	r0, r0, pc, lsr #22
     f0c:	03012e24 	movweq	r2, #7716	; 0x1e24
     f10:	3b0b3a0e 	blcc	2cf750 <__bss_end__+0x2c4928>
     f14:	270b390b 	strcs	r3, [fp, -fp, lsl #18]
     f18:	20134919 	andscs	r4, r3, r9, lsl r9
     f1c:	0013010b 	andseq	r0, r3, fp, lsl #2
     f20:	00052500 	andeq	r2, r5, r0, lsl #10
     f24:	0b3a0e03 	bleq	e84738 <__bss_end__+0xe79910>
     f28:	0b390b3b 	bleq	e43c1c <__bss_end__+0xe38df4>
     f2c:	00001349 	andeq	r1, r0, r9, asr #6
     f30:	03000526 	movweq	r0, #1318	; 0x526
     f34:	3b0b3a08 	blcc	2cf75c <__bss_end__+0x2c4934>
     f38:	490b390b 	stmdbmi	fp, {r0, r1, r3, r8, fp, ip, sp}
     f3c:	27000013 	smladcs	r0, r3, r0, r0
     f40:	08030034 	stmdaeq	r3, {r2, r4, r5}
     f44:	0b3b0b3a 	bleq	ec3c34 <__bss_end__+0xeb8e0c>
     f48:	13490b39 	movtne	r0, #39737	; 0x9b39
     f4c:	0b280000 	bleq	a00f54 <__bss_end__+0x9f612c>
     f50:	29000001 	stmdbcs	r0, {r0}
     f54:	0e030034 	mcreq	0, 0, r0, cr3, cr4, {1}
     f58:	0b3b0b3a 	bleq	ec3c48 <__bss_end__+0xeb8e20>
     f5c:	13490b39 	movtne	r0, #39737	; 0x9b39
     f60:	2e2a0000 	cdpcs	0, 2, cr0, cr10, cr0, {0}
     f64:	3a080301 	bcc	201b70 <__bss_end__+0x1f6d48>
     f68:	390b3b0b 	stmdbcc	fp, {r0, r1, r3, r8, r9, fp, ip, sp}
     f6c:	4919270b 	ldmdbmi	r9, {r0, r1, r3, r8, r9, sl, sp}
     f70:	010b2013 	tsteq	fp, r3, lsl r0
     f74:	2b000013 	blcs	fc8 <__code_start__-0x7038>
     f78:	193f012e 	ldmdbne	pc!, {r1, r2, r3, r5, r8}	; <UNPREDICTABLE>
     f7c:	0b3a0e03 	bleq	e84790 <__bss_end__+0xe79968>
     f80:	0b390b3b 	bleq	e43c74 <__bss_end__+0xe38e4c>
     f84:	01111927 	tsteq	r1, r7, lsr #18
     f88:	18400612 	stmdane	r0, {r1, r4, r9, sl}^
     f8c:	01194297 			; <UNDEFINED> instruction: 0x01194297
     f90:	2c000013 	stccs	0, cr0, [r0], {19}
     f94:	1331012e 	teqne	r1, #-2147483637	; 0x8000000b
     f98:	06120111 			; <UNDEFINED> instruction: 0x06120111
     f9c:	42971840 	addsmi	r1, r7, #64, 16	; 0x400000
     fa0:	00130119 	andseq	r0, r3, r9, lsl r1
     fa4:	00052d00 	andeq	r2, r5, r0, lsl #26
     fa8:	18021331 	stmdane	r2, {r0, r4, r5, r8, r9, ip}
     fac:	052e0000 	streq	r0, [lr, #-0]!
     fb0:	1c133100 	ldfnes	f3, [r3], {-0}
     fb4:	2f00000b 	svccs	0x0000000b
     fb8:	1331010b 	teqne	r1, #-1073741822	; 0xc0000002
     fbc:	06120111 			; <UNDEFINED> instruction: 0x06120111
     fc0:	00001301 	andeq	r1, r0, r1, lsl #6
     fc4:	3f002e30 	svccc	0x00002e30
     fc8:	6e193c19 	mrcvs	12, 0, r3, cr9, cr9, {0}
     fcc:	3a0e030e 	bcc	381c0c <__bss_end__+0x376de4>
     fd0:	390b3b0b 	stmdbcc	fp, {r0, r1, r3, r8, r9, fp, ip, sp}
     fd4:	0000000b 	andeq	r0, r0, fp
     fd8:	25011101 	strcs	r1, [r1, #-257]	; 0xfffffeff
     fdc:	030b130e 	movweq	r1, #45838	; 0xb30e
     fe0:	110e1b0e 	tstne	lr, lr, lsl #22
     fe4:	10061201 	andne	r1, r6, r1, lsl #4
     fe8:	02000017 	andeq	r0, r0, #23, 0
     fec:	0b0b0024 	bleq	2c1084 <__bss_end__+0x2b625c>
     ff0:	08030b3e 	stmdaeq	r3, {r1, r2, r3, r4, r5, r8, r9, fp}
     ff4:	24030000 	strcs	r0, [r3], #-0
     ff8:	3e0b0b00 	vmlacc.f64	d0, d11, d0
     ffc:	000e030b 	andeq	r0, lr, fp, lsl #6
    1000:	01150400 	tsteq	r5, r0, lsl #8
    1004:	13491927 	movtne	r1, #39207	; 0x9927
    1008:	00001301 	andeq	r1, r0, r1, lsl #6
    100c:	49000505 	stmdbmi	r0, {r0, r2, r8, sl}
    1010:	06000013 			; <UNDEFINED> instruction: 0x06000013
    1014:	0e030034 	mcreq	0, 0, r0, cr3, cr4, {1}
    1018:	0b3b0b3a 	bleq	ec3d08 <__bss_end__+0xeb8ee0>
    101c:	13490b39 	movtne	r0, #39737	; 0x9b39
    1020:	193c193f 	ldmdbne	ip!, {r0, r1, r2, r3, r4, r5, r8, fp, ip}
    1024:	0f070000 	svceq	0x00070000
    1028:	490b0b00 	stmdbmi	fp, {r8, r9, fp}
    102c:	08000013 	stmdaeq	r0, {r0, r1, r4}
    1030:	13490026 	movtne	r0, #36902	; 0x9026
    1034:	2e090000 	cdpcs	0, 0, cr0, cr9, cr0, {0}
    1038:	03193f01 	tsteq	r9, #1, 30
    103c:	3b0b3a0e 	blcc	2cf87c <__bss_end__+0x2c4a54>
    1040:	270b390b 	strcs	r3, [fp, -fp, lsl #18]
    1044:	19018719 	stmdbne	r1, {r0, r3, r4, r8, r9, sl, pc}
    1048:	06120111 			; <UNDEFINED> instruction: 0x06120111
    104c:	42971840 	addsmi	r1, r7, #64, 16	; 0x400000
    1050:	00130119 	andseq	r0, r3, r9, lsl r1
    1054:	82890a00 	addhi	r0, r9, #0, 20
    1058:	01110101 	tsteq	r1, r1, lsl #2
    105c:	00001301 	andeq	r1, r0, r1, lsl #6
    1060:	01828a0b 	orreq	r8, r2, fp, lsl #20
    1064:	91180200 	tstls	r8, r0, lsl #4
    1068:	00001842 	andeq	r1, r0, r2, asr #16
    106c:	0182890c 	orreq	r8, r2, ip, lsl #18
    1070:	31011100 	mrscc	r1, (UNDEF: 17)
    1074:	0d000013 	stceq	0, cr0, [r0, #-76]	; 0xffffffb4
    1078:	01018289 	smlabbeq	r1, r9, r2, r8
    107c:	13310111 	teqne	r1, #1073741828	; 0x40000004
    1080:	00001301 	andeq	r1, r0, r1, lsl #6
    1084:	3f002e0e 	svccc	0x00002e0e
    1088:	6e193c19 	mrcvs	12, 0, r3, cr9, cr9, {0}
    108c:	3a0e030e 	bcc	381ccc <__bss_end__+0x376ea4>
    1090:	390b3b0b 	stmdbcc	fp, {r0, r1, r3, r8, r9, fp, ip, sp}
    1094:	0000000b 	andeq	r0, r0, fp
    1098:	25011101 	strcs	r1, [r1, #-257]	; 0xfffffeff
    109c:	030b130e 	movweq	r1, #45838	; 0xb30e
    10a0:	110e1b0e 	tstne	lr, lr, lsl #22
    10a4:	10061201 	andne	r1, r6, r1, lsl #4
    10a8:	02000017 	andeq	r0, r0, #23, 0
    10ac:	0b0b0024 	bleq	2c1144 <__bss_end__+0x2b631c>
    10b0:	08030b3e 	stmdaeq	r3, {r1, r2, r3, r4, r5, r8, r9, fp}
    10b4:	24030000 	strcs	r0, [r3], #-0
    10b8:	3e0b0b00 	vmlacc.f64	d0, d11, d0
    10bc:	000e030b 	andeq	r0, lr, fp, lsl #6
    10c0:	01150400 	tsteq	r5, r0, lsl #8
    10c4:	13491927 	movtne	r1, #39207	; 0x9927
    10c8:	00001301 	andeq	r1, r0, r1, lsl #6
    10cc:	49000505 	stmdbmi	r0, {r0, r2, r8, sl}
    10d0:	06000013 			; <UNDEFINED> instruction: 0x06000013
    10d4:	0e030034 	mcreq	0, 0, r0, cr3, cr4, {1}
    10d8:	0b3b0b3a 	bleq	ec3dc8 <__bss_end__+0xeb8fa0>
    10dc:	13490b39 	movtne	r0, #39737	; 0x9b39
    10e0:	193c193f 	ldmdbne	ip!, {r0, r1, r2, r3, r4, r5, r8, fp, ip}
    10e4:	0f070000 	svceq	0x00070000
    10e8:	490b0b00 	stmdbmi	fp, {r8, r9, fp}
    10ec:	08000013 	stmdaeq	r0, {r0, r1, r4}
    10f0:	13490026 	movtne	r0, #36902	; 0x9026
    10f4:	2e090000 	cdpcs	0, 0, cr0, cr9, cr0, {0}
    10f8:	03193f01 	tsteq	r9, #1, 30
    10fc:	3b0b3a0e 	blcc	2cf93c <__bss_end__+0x2c4b14>
    1100:	110b390b 	tstne	fp, fp, lsl #18
    1104:	40061201 	andmi	r1, r6, r1, lsl #4
    1108:	19429718 	stmdbne	r2, {r3, r4, r8, r9, sl, ip, pc}^
    110c:	00001301 	andeq	r1, r0, r1, lsl #6
    1110:	3f002e0a 	svccc	0x00002e0a
    1114:	3a0e0319 	bcc	381d80 <__bss_end__+0x376f58>
    1118:	390b3b0b 	stmdbcc	fp, {r0, r1, r3, r8, r9, fp, ip, sp}
    111c:	3c19270b 	ldccc	7, cr2, [r9], {11}
    1120:	0b000019 	bleq	118c <__code_start__-0x6e74>
    1124:	08030034 	stmdaeq	r3, {r2, r4, r5}
    1128:	0b3b0b3a 	bleq	ec3e18 <__bss_end__+0xeb8ff0>
    112c:	13490b39 	movtne	r0, #39737	; 0x9b39
    1130:	42b71702 	adcsmi	r1, r7, #524288	; 0x80000
    1134:	0c000017 	stceq	0, cr0, [r0], {23}
    1138:	0e030034 	mcreq	0, 0, r0, cr3, cr4, {1}
    113c:	0b3b0b3a 	bleq	ec3e2c <__bss_end__+0xeb9004>
    1140:	13490b39 	movtne	r0, #39737	; 0x9b39
    1144:	0b0d0000 	bleq	34114c <__bss_end__+0x336324>
    1148:	12011101 	andne	r1, r1, #1073741824	; 0x40000000
    114c:	00130106 	andseq	r0, r3, r6, lsl #2
    1150:	82890e00 	addhi	r0, r9, #0, 28
    1154:	01110001 	tsteq	r1, r1
    1158:	00001331 	andeq	r1, r0, r1, lsr r3
    115c:	3f002e0f 	svccc	0x00002e0f
    1160:	6e193c19 	mrcvs	12, 0, r3, cr9, cr9, {0}
    1164:	3a0e030e 	bcc	381da4 <__bss_end__+0x376f7c>
    1168:	39053b0b 	stmdbcc	r5, {r0, r1, r3, r8, r9, fp, ip, sp}
    116c:	1000000b 	andne	r0, r0, fp
    1170:	193f002e 	ldmdbne	pc!, {r1, r2, r3, r5}	; <UNPREDICTABLE>
    1174:	0e6e193c 			; <UNDEFINED> instruction: 0x0e6e193c
    1178:	0b3a0e03 	bleq	e8498c <__bss_end__+0xe79b64>
    117c:	0b390b3b 	bleq	e43e70 <__bss_end__+0xe39048>
    1180:	01000000 	mrseq	r0, (UNDEF: 0)
    1184:	0e250111 	mcreq	1, 1, r0, cr5, cr1, {0}
    1188:	0e030b13 	vmoveq.32	d3[0], r0
    118c:	01110e1b 	tsteq	r1, fp, lsl lr
    1190:	17100612 			; <UNDEFINED> instruction: 0x17100612
    1194:	24020000 	strcs	r0, [r2], #-0
    1198:	3e0b0b00 	vmlacc.f64	d0, d11, d0
    119c:	0008030b 	andeq	r0, r8, fp, lsl #6
    11a0:	00240300 	eoreq	r0, r4, r0, lsl #6
    11a4:	0b3e0b0b 	bleq	f83dd8 <__bss_end__+0xf78fb0>
    11a8:	00000e03 	andeq	r0, r0, r3, lsl #28
    11ac:	27011504 	strcs	r1, [r1, -r4, lsl #10]
    11b0:	01134919 	tsteq	r3, r9, lsl r9
    11b4:	05000013 	streq	r0, [r0, #-19]	; 0xffffffed
    11b8:	13490005 	movtne	r0, #36869	; 0x9005
    11bc:	34060000 	strcc	r0, [r6], #-0
    11c0:	3a0e0300 	bcc	381dc8 <__bss_end__+0x376fa0>
    11c4:	390b3b0b 	stmdbcc	fp, {r0, r1, r3, r8, r9, fp, ip, sp}
    11c8:	3f13490b 	svccc	0x0013490b
    11cc:	00193c19 	andseq	r3, r9, r9, lsl ip
    11d0:	000f0700 	andeq	r0, pc, r0, lsl #14
    11d4:	13490b0b 	movtne	r0, #39691	; 0x9b0b
    11d8:	26080000 	strcs	r0, [r8], -r0
    11dc:	00134900 	andseq	r4, r3, r0, lsl #18
    11e0:	002e0900 	eoreq	r0, lr, r0, lsl #18
    11e4:	0e03193f 			; <UNDEFINED> instruction: 0x0e03193f
    11e8:	0b3b0b3a 	bleq	ec3ed8 <__bss_end__+0xeb90b0>
    11ec:	19270b39 	stmdbne	r7!, {r0, r3, r4, r5, r8, r9, fp}
    11f0:	06120111 			; <UNDEFINED> instruction: 0x06120111
    11f4:	42971840 	addsmi	r1, r7, #64, 16	; 0x400000
    11f8:	00000019 	andeq	r0, r0, r9, lsl r0
    11fc:	25011101 	strcs	r1, [r1, #-257]	; 0xfffffeff
    1200:	030b130e 	movweq	r1, #45838	; 0xb30e
    1204:	550e1b0e 	strpl	r1, [lr, #-2830]	; 0xfffff4f2
    1208:	10011117 	andne	r1, r1, r7, lsl r1
    120c:	02000017 	andeq	r0, r0, #23, 0
    1210:	0b0b0024 	bleq	2c12a8 <__bss_end__+0x2b6480>
    1214:	08030b3e 	stmdaeq	r3, {r1, r2, r3, r4, r5, r8, r9, fp}
    1218:	26030000 	strcs	r0, [r3], -r0
    121c:	00134900 	andseq	r4, r3, r0, lsl #18
    1220:	00240400 	eoreq	r0, r4, r0, lsl #8
    1224:	0b3e0b0b 	bleq	f83e58 <__bss_end__+0xf79030>
    1228:	00000e03 	andeq	r0, r0, r3, lsl #28
    122c:	27011505 	strcs	r1, [r1, -r5, lsl #10]
    1230:	01134919 	tsteq	r3, r9, lsl r9
    1234:	06000013 			; <UNDEFINED> instruction: 0x06000013
    1238:	13490005 	movtne	r0, #36869	; 0x9005
    123c:	34070000 	strcc	r0, [r7], #-0
    1240:	3a0e0300 	bcc	381e48 <__bss_end__+0x377020>
    1244:	390b3b0b 	stmdbcc	fp, {r0, r1, r3, r8, r9, fp, ip, sp}
    1248:	3f13490b 	svccc	0x0013490b
    124c:	00193c19 	andseq	r3, r9, r9, lsl ip
    1250:	000f0800 	andeq	r0, pc, r0, lsl #16
    1254:	13490b0b 	movtne	r0, #39691	; 0x9b0b
    1258:	34090000 	strcc	r0, [r9], #-0
    125c:	3a0e0300 	bcc	381e64 <__bss_end__+0x37703c>
    1260:	390b3b0b 	stmdbcc	fp, {r0, r1, r3, r8, r9, fp, ip, sp}
    1264:	0013490b 	andseq	r4, r3, fp, lsl #18
    1268:	012e0a00 			; <UNDEFINED> instruction: 0x012e0a00
    126c:	0e03193f 			; <UNDEFINED> instruction: 0x0e03193f
    1270:	0b3b0b3a 	bleq	ec3f60 <__bss_end__+0xeb9138>
    1274:	19270b39 	stmdbne	r7!, {r0, r3, r4, r5, r8, r9, fp}
    1278:	11190187 	tstne	r9, r7, lsl #3
    127c:	40061201 	andmi	r1, r6, r1, lsl #4
    1280:	19429718 	stmdbne	r2, {r3, r4, r8, r9, sl, ip, pc}^
    1284:	00001301 	andeq	r1, r0, r1, lsl #6
    1288:	0300340b 	movweq	r3, #1035	; 0x40b
    128c:	3b0b3a0e 	blcc	2cfacc <__bss_end__+0x2c4ca4>
    1290:	490b390b 	stmdbmi	fp, {r0, r1, r3, r8, fp, ip, sp}
    1294:	00061c13 	andeq	r1, r6, r3, lsl ip
    1298:	00340c00 	eorseq	r0, r4, r0, lsl #24
    129c:	0b3a0e03 	bleq	e84ab0 <__bss_end__+0xe79c88>
    12a0:	0b390b3b 	bleq	e43f94 <__bss_end__+0xe3916c>
    12a4:	0b1c1349 	bleq	705fd0 <__bss_end__+0x6fb1a8>
    12a8:	1d0d0000 	stcne	0, cr0, [sp, #-0]
    12ac:	52133101 	andspl	r3, r3, #1073741824	; 0x40000000
    12b0:	0b42b801 	bleq	10af2bc <__bss_end__+0x10a4494>
    12b4:	0b581755 	bleq	1607010 <__bss_end__+0x15fc1e8>
    12b8:	0b570b59 	bleq	15c4024 <__bss_end__+0x15b91fc>
    12bc:	00001301 	andeq	r1, r0, r1, lsl #6
    12c0:	55010b0e 	strpl	r0, [r1, #-2830]	; 0xfffff4f2
    12c4:	0f000017 	svceq	0x00000017
    12c8:	13310034 	teqne	r1, #52, 0	; 0x34
    12cc:	42b71702 	adcsmi	r1, r7, #524288	; 0x80000
    12d0:	10000017 	andne	r0, r0, r7, lsl r0
    12d4:	1331011d 	teqne	r1, #1073741831	; 0x40000007
    12d8:	42b80152 	adcsmi	r0, r8, #-2147483628	; 0x80000014
    12dc:	1201110b 	andne	r1, r1, #-1073741822	; 0xc0000002
    12e0:	590b5806 	stmdbpl	fp, {r1, r2, fp, ip, lr}
    12e4:	010b570b 	tsteq	fp, fp, lsl #14
    12e8:	11000013 	tstne	r0, r3, lsl r0
    12ec:	00018289 	andeq	r8, r1, r9, lsl #5
    12f0:	13310111 	teqne	r1, #1073741828	; 0x40000004
    12f4:	89120000 	ldmdbhi	r2, {}	; <UNPREDICTABLE>
    12f8:	11010182 	smlabbne	r1, r2, r1, r0
    12fc:	01133101 	tsteq	r3, r1, lsl #2
    1300:	13000013 	movwne	r0, #19
    1304:	0001828a 	andeq	r8, r1, sl, lsl #5
    1308:	42911802 	addsmi	r1, r1, #131072	; 0x20000
    130c:	14000018 	strne	r0, [r0], #-24	; 0xffffffe8
    1310:	01018289 	smlabbeq	r1, r9, r2, r8
    1314:	13310111 	teqne	r1, #1073741828	; 0x40000004
    1318:	2e150000 	cdpcs	0, 1, cr0, cr5, cr0, {0}
    131c:	03193f01 	tsteq	r9, #1, 30
    1320:	3b0b3a0e 	blcc	2cfb60 <__bss_end__+0x2c4d38>
    1324:	270b390b 	strcs	r3, [fp, -fp, lsl #18]
    1328:	010b2019 	tsteq	fp, r9, lsl r0
    132c:	16000013 			; <UNDEFINED> instruction: 0x16000013
    1330:	193f012e 	ldmdbne	pc!, {r1, r2, r3, r5, r8}	; <UNPREDICTABLE>
    1334:	0b3a0e03 	bleq	e84b48 <__bss_end__+0xe79d20>
    1338:	0b390b3b 	bleq	e4402c <__bss_end__+0xe39204>
    133c:	13491927 	movtne	r1, #39207	; 0x9927
    1340:	13010b20 	movwne	r0, #6944	; 0x1b20
    1344:	2e170000 	cdpcs	0, 1, cr0, cr7, cr0, {0}
    1348:	11133101 	tstne	r3, r1, lsl #2
    134c:	40061201 	andmi	r1, r6, r1, lsl #4
    1350:	19429718 	stmdbne	r2, {r3, r4, r8, r9, sl, ip, pc}^
    1354:	00001301 	andeq	r1, r0, r1, lsl #6
    1358:	3f002e18 	svccc	0x00002e18
    135c:	6e193c19 	mrcvs	12, 0, r3, cr9, cr9, {0}
    1360:	3a0e030e 	bcc	381fa0 <__bss_end__+0x377178>
    1364:	39053b0b 	stmdbcc	r5, {r0, r1, r3, r8, r9, fp, ip, sp}
    1368:	1900000b 	stmdbne	r0, {r0, r1, r3}
    136c:	193f002e 	ldmdbne	pc!, {r1, r2, r3, r5}	; <UNPREDICTABLE>
    1370:	0e6e193c 			; <UNDEFINED> instruction: 0x0e6e193c
    1374:	0b3a0e03 	bleq	e84b88 <__bss_end__+0xe79d60>
    1378:	0b390b3b 	bleq	e4406c <__bss_end__+0xe39244>
    137c:	01000000 	mrseq	r0, (UNDEF: 0)
    1380:	0e250111 	mcreq	1, 1, r0, cr5, cr1, {0}
    1384:	0e030b13 	vmoveq.32	d3[0], r0
    1388:	01110e1b 	tsteq	r1, fp, lsl lr
    138c:	17100612 			; <UNDEFINED> instruction: 0x17100612
    1390:	24020000 	strcs	r0, [r2], #-0
    1394:	3e0b0b00 	vmlacc.f64	d0, d11, d0
    1398:	0008030b 	andeq	r0, r8, fp, lsl #6
    139c:	00240300 	eoreq	r0, r4, r0, lsl #6
    13a0:	0b3e0b0b 	bleq	f83fd4 <__bss_end__+0xf791ac>
    13a4:	00000e03 	andeq	r0, r0, r3, lsl #28
    13a8:	27011504 	strcs	r1, [r1, -r4, lsl #10]
    13ac:	01134919 	tsteq	r3, r9, lsl r9
    13b0:	05000013 	streq	r0, [r0, #-19]	; 0xffffffed
    13b4:	13490005 	movtne	r0, #36869	; 0x9005
    13b8:	34060000 	strcc	r0, [r6], #-0
    13bc:	3a0e0300 	bcc	381fc4 <__bss_end__+0x37719c>
    13c0:	390b3b0b 	stmdbcc	fp, {r0, r1, r3, r8, r9, fp, ip, sp}
    13c4:	3f13490b 	svccc	0x0013490b
    13c8:	00193c19 	andseq	r3, r9, r9, lsl ip
    13cc:	000f0700 	andeq	r0, pc, r0, lsl #14
    13d0:	13490b0b 	movtne	r0, #39691	; 0x9b0b
    13d4:	26080000 	strcs	r0, [r8], -r0
    13d8:	00134900 	andseq	r4, r3, r0, lsl #18
    13dc:	012e0900 			; <UNDEFINED> instruction: 0x012e0900
    13e0:	0e03193f 			; <UNDEFINED> instruction: 0x0e03193f
    13e4:	0b3b0b3a 	bleq	ec40d4 <__bss_end__+0xeb92ac>
    13e8:	19270b39 	stmdbne	r7!, {r0, r3, r4, r5, r8, r9, fp}
    13ec:	06120111 			; <UNDEFINED> instruction: 0x06120111
    13f0:	42971840 	addsmi	r1, r7, #64, 16	; 0x400000
    13f4:	00130119 	andseq	r0, r3, r9, lsl r1
    13f8:	00050a00 	andeq	r0, r5, r0, lsl #20
    13fc:	0b3a0803 	bleq	e83410 <__bss_end__+0xe785e8>
    1400:	0b390b3b 	bleq	e440f4 <__bss_end__+0xe392cc>
    1404:	17021349 	strne	r1, [r2, -r9, asr #6]
    1408:	001742b7 			; <UNDEFINED> instruction: 0x001742b7
    140c:	011d0b00 	tsteq	sp, r0, lsl #22
    1410:	01521331 	cmpeq	r2, r1, lsr r3
    1414:	550b42b8 	strpl	r4, [fp, #-696]	; 0xfffffd48
    1418:	590b5817 	stmdbpl	fp, {r0, r1, r2, r4, fp, ip, lr}
    141c:	000b570b 	andeq	r5, fp, fp, lsl #14
    1420:	00050c00 	andeq	r0, r5, r0, lsl #24
    1424:	17021331 	smladxne	r2, r1, r3, r1
    1428:	001742b7 			; <UNDEFINED> instruction: 0x001742b7
    142c:	011d0d00 	tsteq	sp, r0, lsl #26
    1430:	01521331 	cmpeq	r2, r1, lsr r3
    1434:	110b42b8 			; <UNDEFINED> instruction: 0x110b42b8
    1438:	58061201 	stmdapl	r6, {r0, r9, ip}
    143c:	570b590b 	strpl	r5, [fp, -fp, lsl #18]
    1440:	0e00000b 	cdpeq	0, 0, cr0, cr0, cr11, {0}
    1444:	13310034 	teqne	r1, #52, 0	; 0x34
    1448:	42b71702 	adcsmi	r1, r7, #524288	; 0x80000
    144c:	0f000017 	svceq	0x00000017
    1450:	1331011d 	teqne	r1, #1073741831	; 0x40000007
    1454:	42b80152 	adcsmi	r0, r8, #-2147483628	; 0x80000014
    1458:	1201110b 	andne	r1, r1, #-1073741822	; 0xc0000002
    145c:	590b5806 	stmdbpl	fp, {r1, r2, fp, ip, lr}
    1460:	010b570b 	tsteq	fp, fp, lsl #14
    1464:	10000013 	andne	r0, r0, r3, lsl r0
    1468:	01018289 	smlabbeq	r1, r9, r2, r8
    146c:	13310111 	teqne	r1, #1073741828	; 0x40000004
    1470:	8a110000 	bhi	441478 <__bss_end__+0x436650>
    1474:	02000182 	andeq	r0, r0, #-2147483616	; 0x80000020
    1478:	18429118 	stmdane	r2, {r3, r4, r8, ip, pc}^
    147c:	89120000 	ldmdbhi	r2, {}	; <UNPREDICTABLE>
    1480:	11000182 	smlabbne	r0, r2, r1, r0
    1484:	00133101 	andseq	r3, r3, r1, lsl #2
    1488:	010b1300 	mrseq	r1, (UNDEF: 59)
    148c:	17551331 	smmlarne	r5, r1, r3, r1
    1490:	34140000 	ldrcc	r0, [r4], #-0
    1494:	00133100 	andseq	r3, r3, r0, lsl #2
    1498:	010b1500 	tsteq	fp, r0, lsl #10
    149c:	00001755 	andeq	r1, r0, r5, asr r7
    14a0:	31011d16 	tstcc	r1, r6, lsl sp
    14a4:	b8015213 	stmdalt	r1, {r0, r1, r4, r9, ip, lr}
    14a8:	17550b42 	ldrbne	r0, [r5, -r2, asr #22]
    14ac:	0b590b58 	bleq	1644214 <__bss_end__+0x16393ec>
    14b0:	13010b57 	movwne	r0, #6999	; 0x1b57
    14b4:	2e170000 	cdpcs	0, 1, cr0, cr7, cr0, {0}
    14b8:	03193f01 	tsteq	r9, #1, 30
    14bc:	3b0b3a0e 	blcc	2cfcfc <__bss_end__+0x2c4ed4>
    14c0:	270b390b 	strcs	r3, [fp, -fp, lsl #18]
    14c4:	010b2019 	tsteq	fp, r9, lsl r0
    14c8:	18000013 	stmdane	r0, {r0, r1, r4}
    14cc:	08030005 	stmdaeq	r3, {r0, r2}
    14d0:	0b3b0b3a 	bleq	ec41c0 <__bss_end__+0xeb9398>
    14d4:	13490b39 	movtne	r0, #39737	; 0x9b39
    14d8:	34190000 	ldrcc	r0, [r9], #-0
    14dc:	3a080300 	bcc	2020e4 <__bss_end__+0x1f72bc>
    14e0:	390b3b0b 	stmdbcc	fp, {r0, r1, r3, r8, r9, fp, ip, sp}
    14e4:	0013490b 	andseq	r4, r3, fp, lsl #18
    14e8:	010b1a00 	tsteq	fp, r0, lsl #20
    14ec:	2e1b0000 	cdpcs	0, 1, cr0, cr11, cr0, {0}
    14f0:	03193f01 	tsteq	r9, #1, 30
    14f4:	3b0b3a0e 	blcc	2cfd34 <__bss_end__+0x2c4f0c>
    14f8:	270b390b 	strcs	r3, [fp, -fp, lsl #18]
    14fc:	20134919 	andscs	r4, r3, r9, lsl r9
    1500:	0013010b 	andseq	r0, r3, fp, lsl #2
    1504:	002e1c00 	eoreq	r1, lr, r0, lsl #24
    1508:	0e03193f 			; <UNDEFINED> instruction: 0x0e03193f
    150c:	0b3b0b3a 	bleq	ec41fc <__bss_end__+0xeb93d4>
    1510:	19270b39 	stmdbne	r7!, {r0, r3, r4, r5, r8, r9, fp}
    1514:	0b201349 	bleq	806240 <__bss_end__+0x7fb418>
    1518:	2e1d0000 	cdpcs	0, 1, cr0, cr13, cr0, {0}
    151c:	11133101 	tstne	r3, r1, lsl #2
    1520:	40061201 	andmi	r1, r6, r1, lsl #4
    1524:	19429718 	stmdbne	r2, {r3, r4, r8, r9, sl, ip, pc}^
    1528:	00001301 	andeq	r1, r0, r1, lsl #6
    152c:	0182891e 	orreq	r8, r2, lr, lsl r9
    1530:	95011101 	strls	r1, [r1, #-257]	; 0xfffffeff
    1534:	13311942 	teqne	r1, #1081344	; 0x108000
    1538:	2e1f0000 	cdpcs	0, 1, cr0, cr15, cr0, {0}
    153c:	3c193f00 	ldccc	15, cr3, [r9], {-0}
    1540:	030e6e19 	movweq	r6, #60953	; 0xee19
    1544:	3b0b3a0e 	blcc	2cfd84 <__bss_end__+0x2c4f5c>
    1548:	000b390b 	andeq	r3, fp, fp, lsl #18
    154c:	11010000 	mrsne	r0, (UNDEF: 1)
    1550:	130e2501 	movwne	r2, #58625	; 0xe501
    1554:	1b0e030b 	blne	382188 <__bss_end__+0x377360>
    1558:	1201110e 	andne	r1, r1, #-2147483645	; 0x80000003
    155c:	00171006 	andseq	r1, r7, r6
    1560:	00240200 	eoreq	r0, r4, r0, lsl #4
    1564:	0b3e0b0b 	bleq	f84198 <__bss_end__+0xf79370>
    1568:	00000803 	andeq	r0, r0, r3, lsl #16
    156c:	0b002403 	bleq	a580 <__FUNCTION__.4058+0x29c>
    1570:	030b3e0b 	movweq	r3, #48651	; 0xbe0b
    1574:	0400000e 	streq	r0, [r0], #-14
    1578:	13490035 	movtne	r0, #36917	; 0x9035
    157c:	16050000 	strne	r0, [r5], -r0
    1580:	3a0e0300 	bcc	382188 <__bss_end__+0x377360>
    1584:	390b3b0b 	stmdbcc	fp, {r0, r1, r3, r8, r9, fp, ip, sp}
    1588:	0013490b 	andseq	r4, r3, fp, lsl #18
    158c:	01040600 	tsteq	r4, r0, lsl #12
    1590:	0b0b0b3e 	bleq	2c4290 <__bss_end__+0x2b9468>
    1594:	0b3a1349 	bleq	e862c0 <__bss_end__+0xe7b498>
    1598:	0b390b3b 	bleq	e4428c <__bss_end__+0xe39464>
    159c:	00001301 	andeq	r1, r0, r1, lsl #6
    15a0:	03002807 	movweq	r2, #2055	; 0x807
    15a4:	000b1c0e 	andeq	r1, fp, lr, lsl #24
    15a8:	01130800 	tsteq	r3, r0, lsl #16
    15ac:	0b0b0e03 	bleq	2c4dc0 <__bss_end__+0x2b9f98>
    15b0:	0b3b0b3a 	bleq	ec42a0 <__bss_end__+0xeb9478>
    15b4:	13010b39 	movwne	r0, #6969	; 0x1b39
    15b8:	0d090000 	stceq	0, cr0, [r9, #-0]
    15bc:	3a080300 	bcc	2021c4 <__bss_end__+0x1f739c>
    15c0:	390b3b0b 	stmdbcc	fp, {r0, r1, r3, r8, r9, fp, ip, sp}
    15c4:	3813490b 	ldmdacc	r3, {r0, r1, r3, r8, fp, lr}
    15c8:	0a00000b 	beq	15fc <__code_start__-0x6a04>
    15cc:	0e03000d 	cdpeq	0, 0, cr0, cr3, cr13, {0}
    15d0:	0b3b0b3a 	bleq	ec42c0 <__bss_end__+0xeb9498>
    15d4:	13490b39 	movtne	r0, #39737	; 0x9b39
    15d8:	00000b38 	andeq	r0, r0, r8, lsr fp
    15dc:	0300340b 	movweq	r3, #1035	; 0x40b
    15e0:	3b0b3a0e 	blcc	2cfe20 <__bss_end__+0x2c4ff8>
    15e4:	490b390b 	stmdbmi	fp, {r0, r1, r3, r8, fp, ip, sp}
    15e8:	00061c13 	andeq	r1, r6, r3, lsl ip
    15ec:	000f0c00 	andeq	r0, pc, r0, lsl #24
    15f0:	13490b0b 	movtne	r0, #39691	; 0x9b0b
    15f4:	260d0000 	strcs	r0, [sp], -r0
    15f8:	00134900 	andseq	r4, r3, r0, lsl #18
    15fc:	012e0e00 			; <UNDEFINED> instruction: 0x012e0e00
    1600:	0e03193f 			; <UNDEFINED> instruction: 0x0e03193f
    1604:	0b3b0b3a 	bleq	ec42f4 <__bss_end__+0xeb94cc>
    1608:	19270b39 	stmdbne	r7!, {r0, r3, r4, r5, r8, r9, fp}
    160c:	06120111 			; <UNDEFINED> instruction: 0x06120111
    1610:	42971840 	addsmi	r1, r7, #64, 16	; 0x400000
    1614:	00130119 	andseq	r0, r3, r9, lsl r1
    1618:	82890f00 	addhi	r0, r9, #0, 30
    161c:	01110001 	tsteq	r1, r1
    1620:	00001331 	andeq	r1, r0, r1, lsr r3
    1624:	3f012e10 	svccc	0x00012e10
    1628:	3a0e0319 	bcc	382294 <__bss_end__+0x37746c>
    162c:	390b3b0b 	stmdbcc	fp, {r0, r1, r3, r8, r9, fp, ip, sp}
    1630:	4919270b 	ldmdbmi	r9, {r0, r1, r3, r8, r9, sl, sp}
    1634:	12011113 	andne	r1, r1, #-1073741820	; 0xc0000004
    1638:	97184006 	ldrls	r4, [r8, -r6]
    163c:	13011942 	movwne	r1, #6466	; 0x1942
    1640:	89110000 	ldmdbhi	r1, {}	; <UNPREDICTABLE>
    1644:	11010182 	smlabbne	r1, r2, r1, r0
    1648:	00133101 	andseq	r3, r3, r1, lsl #2
    164c:	828a1200 	addhi	r1, sl, #0, 4
    1650:	18020001 	stmdane	r2, {r0}
    1654:	00184291 	mulseq	r8, r1, r2
    1658:	00051300 	andeq	r1, r5, r0, lsl #6
    165c:	0b3a0803 	bleq	e83670 <__bss_end__+0xe78848>
    1660:	0b390b3b 	bleq	e44354 <__bss_end__+0xe3952c>
    1664:	17021349 	strne	r1, [r2, -r9, asr #6]
    1668:	001742b7 			; <UNDEFINED> instruction: 0x001742b7
    166c:	82891400 	addhi	r1, r9, #0, 8
    1670:	01110101 	tsteq	r1, r1, lsl #2
    1674:	13011331 	movwne	r1, #4913	; 0x1331
    1678:	34150000 	ldrcc	r0, [r5], #-0
    167c:	3a080300 	bcc	202284 <__bss_end__+0x1f745c>
    1680:	390b3b0b 	stmdbcc	fp, {r0, r1, r3, r8, r9, fp, ip, sp}
    1684:	0213490b 	andseq	r4, r3, #180224	; 0x2c000
    1688:	1742b717 	smlaldne	fp, r2, r7, r7
    168c:	34160000 	ldrcc	r0, [r6], #-0
    1690:	3a0e0300 	bcc	382298 <__bss_end__+0x377470>
    1694:	390b3b0b 	stmdbcc	fp, {r0, r1, r3, r8, r9, fp, ip, sp}
    1698:	1c13490b 			; <UNDEFINED> instruction: 0x1c13490b
    169c:	17000005 	strne	r0, [r0, -r5]
    16a0:	0e03012e 	adfeqsp	f0, f3, #0.5
    16a4:	0b3b0b3a 	bleq	ec4394 <__bss_end__+0xeb956c>
    16a8:	19270b39 	stmdbne	r7!, {r0, r3, r4, r5, r8, r9, fp}
    16ac:	06120111 			; <UNDEFINED> instruction: 0x06120111
    16b0:	42971840 	addsmi	r1, r7, #64, 16	; 0x400000
    16b4:	00130119 	andseq	r0, r3, r9, lsl r1
    16b8:	00051800 	andeq	r1, r5, r0, lsl #16
    16bc:	0b3a0e03 	bleq	e84ed0 <__bss_end__+0xe7a0a8>
    16c0:	0b390b3b 	bleq	e443b4 <__bss_end__+0xe3958c>
    16c4:	17021349 	strne	r1, [r2, -r9, asr #6]
    16c8:	001742b7 			; <UNDEFINED> instruction: 0x001742b7
    16cc:	00351900 	eorseq	r1, r5, r0, lsl #18
    16d0:	2e1a0000 	cdpcs	0, 1, cr0, cr10, cr0, {0}
    16d4:	3c193f00 	ldccc	15, cr3, [r9], {-0}
    16d8:	030e6e19 	movweq	r6, #60953	; 0xee19
    16dc:	3b0b3a0e 	blcc	2cff1c <__bss_end__+0x2c50f4>
    16e0:	000b390b 	andeq	r3, fp, fp, lsl #18
    16e4:	11010000 	mrsne	r0, (UNDEF: 1)
    16e8:	130e2501 	movwne	r2, #58625	; 0xe501
    16ec:	1b0e030b 	blne	382320 <__bss_end__+0x3774f8>
    16f0:	1201110e 	andne	r1, r1, #-2147483645	; 0x80000003
    16f4:	00171006 	andseq	r1, r7, r6
    16f8:	00240200 	eoreq	r0, r4, r0, lsl #4
    16fc:	0b3e0b0b 	bleq	f84330 <__bss_end__+0xf79508>
    1700:	00000803 	andeq	r0, r0, r3, lsl #16
    1704:	0b002403 	bleq	a718 <__FUNCTION__.4112+0xac>
    1708:	030b3e0b 	movweq	r3, #48651	; 0xbe0b
    170c:	0400000e 	streq	r0, [r0], #-14
    1710:	0e030016 	mcreq	0, 0, r0, cr3, cr6, {0}
    1714:	0b3b0b3a 	bleq	ec4404 <__bss_end__+0xeb95dc>
    1718:	13490b39 	movtne	r0, #39737	; 0x9b39
    171c:	26050000 	strcs	r0, [r5], -r0
    1720:	00134900 	andseq	r4, r3, r0, lsl #18
    1724:	000f0600 	andeq	r0, pc, r0, lsl #12
    1728:	00000b0b 	andeq	r0, r0, fp, lsl #22
    172c:	3e010407 	cdpcc	4, 0, cr0, cr1, cr7, {0}
    1730:	490b0b0b 	stmdbmi	fp, {r0, r1, r3, r8, r9, fp}
    1734:	3b0b3a13 	blcc	2cff88 <__bss_end__+0x2c5160>
    1738:	010b390b 	tsteq	fp, fp, lsl #18
    173c:	08000013 	stmdaeq	r0, {r0, r1, r4}
    1740:	0e030028 	cdpeq	0, 0, cr0, cr3, cr8, {1}
    1744:	0000061c 	andeq	r0, r0, ip, lsl r6
    1748:	03003409 	movweq	r3, #1033	; 0x409
    174c:	3b0b3a0e 	blcc	2cff8c <__bss_end__+0x2c5164>
    1750:	490b390b 	stmdbmi	fp, {r0, r1, r3, r8, fp, ip, sp}
    1754:	3c193f13 	ldccc	15, cr3, [r9], {19}
    1758:	0a000019 	beq	17c4 <__code_start__-0x683c>
    175c:	0e030034 	mcreq	0, 0, r0, cr3, cr4, {1}
    1760:	0b3b0b3a 	bleq	ec4450 <__bss_end__+0xeb9628>
    1764:	13490b39 	movtne	r0, #39737	; 0x9b39
    1768:	00001802 	andeq	r1, r0, r2, lsl #16
    176c:	0b000f0b 	bleq	53a0 <__code_start__-0x2c60>
    1770:	0013490b 	andseq	r4, r3, fp, lsl #18
    1774:	012e0c00 			; <UNDEFINED> instruction: 0x012e0c00
    1778:	0e03193f 			; <UNDEFINED> instruction: 0x0e03193f
    177c:	0b3b0b3a 	bleq	ec446c <__bss_end__+0xeb9644>
    1780:	19270b39 	stmdbne	r7!, {r0, r3, r4, r5, r8, r9, fp}
    1784:	06120111 			; <UNDEFINED> instruction: 0x06120111
    1788:	42971840 	addsmi	r1, r7, #64, 16	; 0x400000
    178c:	00130119 	andseq	r0, r3, r9, lsl r1
    1790:	00050d00 	andeq	r0, r5, r0, lsl #26
    1794:	0b3a0803 	bleq	e837a8 <__bss_end__+0xe78980>
    1798:	0b390b3b 	bleq	e4448c <__bss_end__+0xe39664>
    179c:	17021349 	strne	r1, [r2, -r9, asr #6]
    17a0:	001742b7 			; <UNDEFINED> instruction: 0x001742b7
    17a4:	00340e00 	eorseq	r0, r4, r0, lsl #28
    17a8:	13490e03 	movtne	r0, #40451	; 0x9e03
    17ac:	18021934 	stmdane	r2, {r2, r4, r5, r8, fp, ip}
    17b0:	890f0000 	stmdbhi	pc, {}	; <UNPREDICTABLE>
    17b4:	11010182 	smlabbne	r1, r2, r1, r0
    17b8:	01133101 	tsteq	r3, r1, lsl #2
    17bc:	10000013 	andne	r0, r0, r3, lsl r0
    17c0:	0001828a 	andeq	r8, r1, sl, lsl #5
    17c4:	42911802 	addsmi	r1, r1, #131072	; 0x20000
    17c8:	11000018 	tstne	r0, r8, lsl r0
    17cc:	00018289 	andeq	r8, r1, r9, lsl #5
    17d0:	13310111 	teqne	r1, #1073741828	; 0x40000004
    17d4:	01120000 	tsteq	r2, r0
    17d8:	01134901 	tsteq	r3, r1, lsl #18
    17dc:	13000013 	movwne	r0, #19
    17e0:	13490021 	movtne	r0, #36897	; 0x9021
    17e4:	00000b2f 	andeq	r0, r0, pc, lsr #22
    17e8:	3f002e14 	svccc	0x00002e14
    17ec:	3a0e0319 	bcc	382458 <__bss_end__+0x377630>
    17f0:	390b3b0b 	stmdbcc	fp, {r0, r1, r3, r8, r9, fp, ip, sp}
    17f4:	1119270b 	tstne	r9, fp, lsl #14
    17f8:	40061201 	andmi	r1, r6, r1, lsl #4
    17fc:	19429718 	stmdbne	r2, {r3, r4, r8, r9, sl, ip, pc}^
    1800:	05150000 	ldreq	r0, [r5, #-0]
    1804:	3a080300 	bcc	20240c <__bss_end__+0x1f75e4>
    1808:	390b3b0b 	stmdbcc	fp, {r0, r1, r3, r8, r9, fp, ip, sp}
    180c:	0213490b 	andseq	r4, r3, #180224	; 0x2c000
    1810:	16000018 			; <UNDEFINED> instruction: 0x16000018
    1814:	193f012e 	ldmdbne	pc!, {r1, r2, r3, r5, r8}	; <UNPREDICTABLE>
    1818:	0b3a0e03 	bleq	e8502c <__bss_end__+0xe7a204>
    181c:	0b390b3b 	bleq	e44510 <__bss_end__+0xe396e8>
    1820:	13491927 	movtne	r1, #39207	; 0x9927
    1824:	06120111 			; <UNDEFINED> instruction: 0x06120111
    1828:	42971840 	addsmi	r1, r7, #64, 16	; 0x400000
    182c:	00130119 	andseq	r0, r3, r9, lsl r1
    1830:	00051700 	andeq	r1, r5, r0, lsl #14
    1834:	0b3a0e03 	bleq	e85048 <__bss_end__+0xe7a220>
    1838:	0b390b3b 	bleq	e4452c <__bss_end__+0xe39704>
    183c:	17021349 	strne	r1, [r2, -r9, asr #6]
    1840:	001742b7 			; <UNDEFINED> instruction: 0x001742b7
    1844:	00341800 	eorseq	r1, r4, r0, lsl #16
    1848:	0b3a0803 	bleq	e8385c <__bss_end__+0xe78a34>
    184c:	0b390b3b 	bleq	e44540 <__bss_end__+0xe39718>
    1850:	17021349 	strne	r1, [r2, -r9, asr #6]
    1854:	001742b7 			; <UNDEFINED> instruction: 0x001742b7
    1858:	011d1900 	tsteq	sp, r0, lsl #18
    185c:	01521331 	cmpeq	r2, r1, lsr r3
    1860:	110b42b8 			; <UNDEFINED> instruction: 0x110b42b8
    1864:	58061201 	stmdapl	r6, {r0, r9, ip}
    1868:	570b590b 	strpl	r5, [fp, -fp, lsl #18]
    186c:	0013010b 	andseq	r0, r3, fp, lsl #2
    1870:	00051a00 	andeq	r1, r5, r0, lsl #20
    1874:	17021331 	smladxne	r2, r1, r3, r1
    1878:	001742b7 			; <UNDEFINED> instruction: 0x001742b7
    187c:	011d1b00 	tsteq	sp, r0, lsl #22
    1880:	01521331 	cmpeq	r2, r1, lsr r3
    1884:	550b42b8 	strpl	r4, [fp, #-696]	; 0xfffffd48
    1888:	590b5817 	stmdbpl	fp, {r0, r1, r2, r4, fp, ip, lr}
    188c:	010b570b 	tsteq	fp, fp, lsl #14
    1890:	1c000013 	stcne	0, cr0, [r0], {19}
    1894:	1755010b 	ldrbne	r0, [r5, -fp, lsl #2]
    1898:	341d0000 	ldrcc	r0, [sp], #-0
    189c:	3a0e0300 	bcc	3824a4 <__bss_end__+0x37767c>
    18a0:	390b3b0b 	stmdbcc	fp, {r0, r1, r3, r8, r9, fp, ip, sp}
    18a4:	0213490b 	andseq	r4, r3, #180224	; 0x2c000
    18a8:	1742b717 	smlaldne	fp, r2, r7, r7
    18ac:	0b1e0000 	bleq	7818b4 <__bss_end__+0x776a8c>
    18b0:	00175500 	andseq	r5, r7, r0, lsl #10
    18b4:	002e1f00 	eoreq	r1, lr, r0, lsl #30
    18b8:	0e03193f 			; <UNDEFINED> instruction: 0x0e03193f
    18bc:	0b3b0b3a 	bleq	ec45ac <__bss_end__+0xeb9784>
    18c0:	19270b39 	stmdbne	r7!, {r0, r3, r4, r5, r8, r9, fp}
    18c4:	01111349 	tsteq	r1, r9, asr #6
    18c8:	18400612 	stmdane	r0, {r1, r4, r9, sl}^
    18cc:	00194297 	mulseq	r9, r7, r2
    18d0:	012e2000 			; <UNDEFINED> instruction: 0x012e2000
    18d4:	0b3a0e03 	bleq	e850e8 <__bss_end__+0xe7a2c0>
    18d8:	0b390b3b 	bleq	e445cc <__bss_end__+0xe397a4>
    18dc:	13491927 	movtne	r1, #39207	; 0x9927
    18e0:	13010b20 	movwne	r0, #6944	; 0x1b20
    18e4:	05210000 	streq	r0, [r1, #-0]!
    18e8:	3a080300 	bcc	2024f0 <__bss_end__+0x1f76c8>
    18ec:	390b3b0b 	stmdbcc	fp, {r0, r1, r3, r8, r9, fp, ip, sp}
    18f0:	0013490b 	andseq	r4, r3, fp, lsl #18
    18f4:	002e2200 	eoreq	r2, lr, r0, lsl #4
    18f8:	193c193f 	ldmdbne	ip!, {r0, r1, r2, r3, r4, r5, r8, fp, ip}
    18fc:	0e030e6e 	cdpeq	14, 0, cr0, cr3, cr14, {3}
    1900:	0b3b0b3a 	bleq	ec45f0 <__bss_end__+0xeb97c8>
    1904:	00000b39 	andeq	r0, r0, r9, lsr fp
    1908:	01110100 	tsteq	r1, r0, lsl #2
    190c:	0b130e25 	bleq	4c51a8 <__bss_end__+0x4ba380>
    1910:	0e1b0e03 	cdpeq	14, 1, cr0, cr11, cr3, {0}
    1914:	06120111 			; <UNDEFINED> instruction: 0x06120111
    1918:	00001710 	andeq	r1, r0, r0, lsl r7
    191c:	0b002402 	bleq	a92c <__FUNCTION__.4030+0x158>
    1920:	030b3e0b 	movweq	r3, #48651	; 0xbe0b
    1924:	0300000e 	movweq	r0, #14
    1928:	0b0b0024 	bleq	2c19c0 <__bss_end__+0x2b6b98>
    192c:	08030b3e 	stmdaeq	r3, {r1, r2, r3, r4, r5, r8, r9, fp}
    1930:	26040000 	strcs	r0, [r4], -r0
    1934:	00134900 	andseq	r4, r3, r0, lsl #18
    1938:	00160500 	andseq	r0, r6, r0, lsl #10
    193c:	0b3a0e03 	bleq	e85150 <__bss_end__+0xe7a328>
    1940:	0b390b3b 	bleq	e44634 <__bss_end__+0xe3980c>
    1944:	00001349 	andeq	r1, r0, r9, asr #6
    1948:	27011506 	strcs	r1, [r1, -r6, lsl #10]
    194c:	01134919 	tsteq	r3, r9, lsl r9
    1950:	07000013 	smladeq	r0, r3, r0, r0
    1954:	13490005 	movtne	r0, #36869	; 0x9005
    1958:	34080000 	strcc	r0, [r8], #-0
    195c:	3a0e0300 	bcc	382564 <__bss_end__+0x37773c>
    1960:	390b3b0b 	stmdbcc	fp, {r0, r1, r3, r8, r9, fp, ip, sp}
    1964:	3f13490b 	svccc	0x0013490b
    1968:	00193c19 	andseq	r3, r9, r9, lsl ip
    196c:	000f0900 	andeq	r0, pc, r0, lsl #18
    1970:	13490b0b 	movtne	r0, #39691	; 0x9b0b
    1974:	040a0000 	streq	r0, [sl], #-0
    1978:	0b0b3e01 	bleq	2d1184 <__bss_end__+0x2c635c>
    197c:	3a13490b 	bcc	4d3db0 <__bss_end__+0x4c8f88>
    1980:	390b3b0b 	stmdbcc	fp, {r0, r1, r3, r8, r9, fp, ip, sp}
    1984:	0013010b 	andseq	r0, r3, fp, lsl #2
    1988:	00280b00 	eoreq	r0, r8, r0, lsl #22
    198c:	0b1c0e03 	bleq	7051a0 <__bss_end__+0x6fa378>
    1990:	340c0000 	strcc	r0, [ip], #-0
    1994:	3a0e0300 	bcc	38259c <__bss_end__+0x377774>
    1998:	390b3b0b 	stmdbcc	fp, {r0, r1, r3, r8, r9, fp, ip, sp}
    199c:	1c13490b 			; <UNDEFINED> instruction: 0x1c13490b
    19a0:	0d000006 	stceq	0, cr0, [r0, #-24]	; 0xffffffe8
    19a4:	193f012e 	ldmdbne	pc!, {r1, r2, r3, r5, r8}	; <UNPREDICTABLE>
    19a8:	0b3a0e03 	bleq	e851bc <__bss_end__+0xe7a394>
    19ac:	0b390b3b 	bleq	e446a0 <__bss_end__+0xe39878>
    19b0:	13491927 	movtne	r1, #39207	; 0x9927
    19b4:	06120111 			; <UNDEFINED> instruction: 0x06120111
    19b8:	42971840 	addsmi	r1, r7, #64, 16	; 0x400000
    19bc:	00130119 	andseq	r0, r3, r9, lsl r1
    19c0:	00050e00 	andeq	r0, r5, r0, lsl #28
    19c4:	0b3a0803 	bleq	e839d8 <__bss_end__+0xe78bb0>
    19c8:	0b390b3b 	bleq	e446bc <__bss_end__+0xe39894>
    19cc:	17021349 	strne	r1, [r2, -r9, asr #6]
    19d0:	001742b7 			; <UNDEFINED> instruction: 0x001742b7
    19d4:	00340f00 	eorseq	r0, r4, r0, lsl #30
    19d8:	0b3a0e03 	bleq	e851ec <__bss_end__+0xe7a3c4>
    19dc:	0b390b3b 	bleq	e446d0 <__bss_end__+0xe398a8>
    19e0:	17021349 	strne	r1, [r2, -r9, asr #6]
    19e4:	001742b7 			; <UNDEFINED> instruction: 0x001742b7
    19e8:	00341000 	eorseq	r1, r4, r0
    19ec:	0b3a0803 	bleq	e83a00 <__bss_end__+0xe78bd8>
    19f0:	0b390b3b 	bleq	e446e4 <__bss_end__+0xe398bc>
    19f4:	17021349 	strne	r1, [r2, -r9, asr #6]
    19f8:	001742b7 			; <UNDEFINED> instruction: 0x001742b7
    19fc:	82891100 	addhi	r1, r9, #0
    1a00:	01110101 	tsteq	r1, r1, lsl #2
    1a04:	00001331 	andeq	r1, r0, r1, lsr r3
    1a08:	01828a12 	orreq	r8, r2, r2, lsl sl
    1a0c:	91180200 	tstls	r8, r0, lsl #4
    1a10:	00001842 	andeq	r1, r0, r2, asr #16
    1a14:	3f012e13 	svccc	0x00012e13
    1a18:	3a0e0319 	bcc	382684 <__bss_end__+0x37785c>
    1a1c:	390b3b0b 	stmdbcc	fp, {r0, r1, r3, r8, r9, fp, ip, sp}
    1a20:	1119270b 	tstne	r9, fp, lsl #14
    1a24:	40061201 	andmi	r1, r6, r1, lsl #4
    1a28:	19429718 	stmdbne	r2, {r3, r4, r8, r9, sl, ip, pc}^
    1a2c:	00001301 	andeq	r1, r0, r1, lsl #6
    1a30:	31011d14 	tstcc	r1, r4, lsl sp
    1a34:	b8015213 	stmdalt	r1, {r0, r1, r4, r9, ip, lr}
    1a38:	17550b42 	ldrbne	r0, [r5, -r2, asr #22]
    1a3c:	0b590b58 	bleq	16447a4 <__bss_end__+0x163997c>
    1a40:	13010b57 	movwne	r0, #6999	; 0x1b57
    1a44:	05150000 	ldreq	r0, [r5, #-0]
    1a48:	02133100 	andseq	r3, r3, #0
    1a4c:	1742b717 	smlaldne	fp, r2, r7, r7
    1a50:	89160000 	ldmdbhi	r6, {}	; <UNPREDICTABLE>
    1a54:	11010182 	smlabbne	r1, r2, r1, r0
    1a58:	19429501 	stmdbne	r2, {r0, r8, sl, ip, pc}^
    1a5c:	00001331 	andeq	r1, r0, r1, lsr r3
    1a60:	31011d17 	tstcc	r1, r7, lsl sp
    1a64:	b8015213 	stmdalt	r1, {r0, r1, r4, r9, ip, lr}
    1a68:	01110b42 	tsteq	r1, r2, asr #22
    1a6c:	0b580612 	bleq	16032bc <__bss_end__+0x15f8494>
    1a70:	0b570b59 	bleq	15c47dc <__bss_end__+0x15b99b4>
    1a74:	1d180000 	ldcne	0, cr0, [r8, #-0]
    1a78:	52133101 	andspl	r3, r3, #1073741824	; 0x40000000
    1a7c:	0b42b801 	bleq	10afa88 <__bss_end__+0x10a4c60>
    1a80:	0b581755 	bleq	16077dc <__bss_end__+0x15fc9b4>
    1a84:	0b570b59 	bleq	15c47f0 <__bss_end__+0x15b99c8>
    1a88:	05190000 	ldreq	r0, [r9, #-0]
    1a8c:	1c133100 	ldfnes	f3, [r3], {-0}
    1a90:	1a00000b 	bne	1ac4 <__code_start__-0x653c>
    1a94:	1755010b 	ldrbne	r0, [r5, -fp, lsl #2]
    1a98:	341b0000 	ldrcc	r0, [fp], #-0
    1a9c:	00133100 	andseq	r3, r3, r0, lsl #2
    1aa0:	00341c00 	eorseq	r1, r4, r0, lsl #24
    1aa4:	17021331 	smladxne	r2, r1, r3, r1
    1aa8:	001742b7 			; <UNDEFINED> instruction: 0x001742b7
    1aac:	82891d00 	addhi	r1, r9, #0, 26
    1ab0:	01110101 	tsteq	r1, r1, lsl #2
    1ab4:	13011331 	movwne	r1, #4913	; 0x1331
    1ab8:	2e1e0000 	cdpcs	0, 1, cr0, cr14, cr0, {0}
    1abc:	03193f01 	tsteq	r9, #1, 30
    1ac0:	3b0b3a0e 	blcc	2d0300 <__bss_end__+0x2c54d8>
    1ac4:	270b390b 	strcs	r3, [fp, -fp, lsl #18]
    1ac8:	010b2019 	tsteq	fp, r9, lsl r0
    1acc:	1f000013 	svcne	0x00000013
    1ad0:	08030005 	stmdaeq	r3, {r0, r2}
    1ad4:	0b3b0b3a 	bleq	ec47c4 <__bss_end__+0xeb999c>
    1ad8:	13490b39 	movtne	r0, #39737	; 0x9b39
    1adc:	05200000 	streq	r0, [r0, #-0]!
    1ae0:	3a0e0300 	bcc	3826e8 <__bss_end__+0x3778c0>
    1ae4:	390b3b0b 	stmdbcc	fp, {r0, r1, r3, r8, r9, fp, ip, sp}
    1ae8:	0013490b 	andseq	r4, r3, fp, lsl #18
    1aec:	00342100 	eorseq	r2, r4, r0, lsl #2
    1af0:	0b3a0803 	bleq	e83b04 <__bss_end__+0xe78cdc>
    1af4:	0b390b3b 	bleq	e447e8 <__bss_end__+0xe399c0>
    1af8:	00001349 	andeq	r1, r0, r9, asr #6
    1afc:	03012e22 	movweq	r2, #7714	; 0x1e22
    1b00:	3b0b3a0e 	blcc	2d0340 <__bss_end__+0x2c5518>
    1b04:	270b390b 	strcs	r3, [fp, -fp, lsl #18]
    1b08:	20134919 	andscs	r4, r3, r9, lsl r9
    1b0c:	0013010b 	andseq	r0, r3, fp, lsl #2
    1b10:	012e2300 			; <UNDEFINED> instruction: 0x012e2300
    1b14:	01111331 	tsteq	r1, r1, lsr r3
    1b18:	18400612 	stmdane	r0, {r1, r4, r9, sl}^
    1b1c:	01194297 			; <UNDEFINED> instruction: 0x01194297
    1b20:	24000013 	strcs	r0, [r0], #-19	; 0xffffffed
    1b24:	193f002e 	ldmdbne	pc!, {r1, r2, r3, r5}	; <UNPREDICTABLE>
    1b28:	0e6e193c 			; <UNDEFINED> instruction: 0x0e6e193c
    1b2c:	0b3a0e03 	bleq	e85340 <__bss_end__+0xe7a518>
    1b30:	0b390b3b 	bleq	e44824 <__bss_end__+0xe399fc>
    1b34:	01000000 	mrseq	r0, (UNDEF: 0)
    1b38:	0e250111 	mcreq	1, 1, r0, cr5, cr1, {0}
    1b3c:	0e030b13 	vmoveq.32	d3[0], r0
    1b40:	01110e1b 	tsteq	r1, fp, lsl lr
    1b44:	17100612 			; <UNDEFINED> instruction: 0x17100612
    1b48:	24020000 	strcs	r0, [r2], #-0
    1b4c:	3e0b0b00 	vmlacc.f64	d0, d11, d0
    1b50:	0008030b 	andeq	r0, r8, fp, lsl #6
    1b54:	00240300 	eoreq	r0, r4, r0, lsl #6
    1b58:	0b3e0b0b 	bleq	f8478c <__bss_end__+0xf79964>
    1b5c:	00000e03 	andeq	r0, r0, r3, lsl #28
    1b60:	27011504 	strcs	r1, [r1, -r4, lsl #10]
    1b64:	01134919 	tsteq	r3, r9, lsl r9
    1b68:	05000013 	streq	r0, [r0, #-19]	; 0xffffffed
    1b6c:	13490005 	movtne	r0, #36869	; 0x9005
    1b70:	34060000 	strcc	r0, [r6], #-0
    1b74:	3a0e0300 	bcc	38277c <__bss_end__+0x377954>
    1b78:	390b3b0b 	stmdbcc	fp, {r0, r1, r3, r8, r9, fp, ip, sp}
    1b7c:	3f13490b 	svccc	0x0013490b
    1b80:	00193c19 	andseq	r3, r9, r9, lsl ip
    1b84:	000f0700 	andeq	r0, pc, r0, lsl #14
    1b88:	13490b0b 	movtne	r0, #39691	; 0x9b0b
    1b8c:	26080000 	strcs	r0, [r8], -r0
    1b90:	00134900 	andseq	r4, r3, r0, lsl #18
    1b94:	00340900 	eorseq	r0, r4, r0, lsl #18
    1b98:	0b3a1347 	bleq	e868bc <__bss_end__+0xe7ba94>
    1b9c:	0b390b3b 	bleq	e44890 <__bss_end__+0xe39a68>
    1ba0:	00001802 	andeq	r1, r0, r2, lsl #16
    1ba4:	3f012e0a 	svccc	0x00012e0a
    1ba8:	3a0e0319 	bcc	382814 <__bss_end__+0x3779ec>
    1bac:	390b3b0b 	stmdbcc	fp, {r0, r1, r3, r8, r9, fp, ip, sp}
    1bb0:	1119270b 	tstne	r9, fp, lsl #14
    1bb4:	40061201 	andmi	r1, r6, r1, lsl #4
    1bb8:	19429718 	stmdbne	r2, {r3, r4, r8, r9, sl, ip, pc}^
    1bbc:	00001301 	andeq	r1, r0, r1, lsl #6
    1bc0:	0300050b 	movweq	r0, #1291	; 0x50b
    1bc4:	3b0b3a08 	blcc	2d03ec <__bss_end__+0x2c55c4>
    1bc8:	490b390b 	stmdbmi	fp, {r0, r1, r3, r8, fp, ip, sp}
    1bcc:	00180213 	andseq	r0, r8, r3, lsl r2
    1bd0:	002e0c00 	eoreq	r0, lr, r0, lsl #24
    1bd4:	0e03193f 			; <UNDEFINED> instruction: 0x0e03193f
    1bd8:	0b3b0b3a 	bleq	ec48c8 <__bss_end__+0xeb9aa0>
    1bdc:	19270b39 	stmdbne	r7!, {r0, r3, r4, r5, r8, r9, fp}
    1be0:	06120111 			; <UNDEFINED> instruction: 0x06120111
    1be4:	42971840 	addsmi	r1, r7, #64, 16	; 0x400000
    1be8:	0d000019 	stceq	0, cr0, [r0, #-100]	; 0xffffff9c
    1bec:	0e03012e 	adfeqsp	f0, f3, #0.5
    1bf0:	0b3b0b3a 	bleq	ec48e0 <__bss_end__+0xeb9ab8>
    1bf4:	19270b39 	stmdbne	r7!, {r0, r3, r4, r5, r8, r9, fp}
    1bf8:	01111349 	tsteq	r1, r9, asr #6
    1bfc:	18400612 	stmdane	r0, {r1, r4, r9, sl}^
    1c00:	01194297 			; <UNDEFINED> instruction: 0x01194297
    1c04:	0e000013 	mcreq	0, 0, r0, cr0, cr3, {0}
    1c08:	08030005 	stmdaeq	r3, {r0, r2}
    1c0c:	0b3b0b3a 	bleq	ec48fc <__bss_end__+0xeb9ad4>
    1c10:	13490b39 	movtne	r0, #39737	; 0x9b39
    1c14:	42b71702 	adcsmi	r1, r7, #524288	; 0x80000
    1c18:	0f000017 	svceq	0x00000017
    1c1c:	01018289 	smlabbeq	r1, r9, r2, r8
    1c20:	13310111 	teqne	r1, #1073741828	; 0x40000004
    1c24:	8a100000 	bhi	401c2c <__bss_end__+0x3f6e04>
    1c28:	02000182 	andeq	r0, r0, #-2147483616	; 0x80000020
    1c2c:	18429118 	stmdane	r2, {r3, r4, r8, ip, pc}^
    1c30:	2e110000 	cdpcs	0, 1, cr0, cr1, cr0, {0}
    1c34:	3c193f00 	ldccc	15, cr3, [r9], {-0}
    1c38:	030e6e19 	movweq	r6, #60953	; 0xee19
    1c3c:	3b0b3a0e 	blcc	2d047c <__bss_end__+0x2c5654>
    1c40:	000b390b 	andeq	r3, fp, fp, lsl #18
    1c44:	11010000 	mrsne	r0, (UNDEF: 1)
    1c48:	130e2501 	movwne	r2, #58625	; 0xe501
    1c4c:	1b0e030b 	blne	382880 <__bss_end__+0x377a58>
    1c50:	1201110e 	andne	r1, r1, #-2147483645	; 0x80000003
    1c54:	00171006 	andseq	r1, r7, r6
    1c58:	00240200 	eoreq	r0, r4, r0, lsl #4
    1c5c:	0b3e0b0b 	bleq	f84890 <__bss_end__+0xf79a68>
    1c60:	00000803 	andeq	r0, r0, r3, lsl #16
    1c64:	0b002403 	bleq	ac78 <buf.3944+0x254>
    1c68:	030b3e0b 	movweq	r3, #48651	; 0xbe0b
    1c6c:	0400000e 	streq	r0, [r0], #-14
    1c70:	19270115 	stmdbne	r7!, {r0, r2, r4, r8}
    1c74:	13011349 	movwne	r1, #4937	; 0x1349
    1c78:	05050000 	streq	r0, [r5, #-0]
    1c7c:	00134900 	andseq	r4, r3, r0, lsl #18
    1c80:	00340600 	eorseq	r0, r4, r0, lsl #12
    1c84:	0b3a0e03 	bleq	e85498 <__bss_end__+0xe7a670>
    1c88:	0b390b3b 	bleq	e4497c <__bss_end__+0xe39b54>
    1c8c:	193f1349 	ldmdbne	pc!, {r0, r3, r6, r8, r9, ip}	; <UNPREDICTABLE>
    1c90:	0000193c 	andeq	r1, r0, ip, lsr r9
    1c94:	0b000f07 	bleq	58b8 <__code_start__-0x2748>
    1c98:	0013490b 	andseq	r4, r3, fp, lsl #18
    1c9c:	00260800 	eoreq	r0, r6, r0, lsl #16
    1ca0:	00001349 	andeq	r1, r0, r9, asr #6
    1ca4:	3f012e09 	svccc	0x00012e09
    1ca8:	3a0e0319 	bcc	382914 <__bss_end__+0x377aec>
    1cac:	390b3b0b 	stmdbcc	fp, {r0, r1, r3, r8, r9, fp, ip, sp}
    1cb0:	4919270b 	ldmdbmi	r9, {r0, r1, r3, r8, r9, sl, sp}
    1cb4:	12011113 	andne	r1, r1, #-1073741820	; 0xc0000004
    1cb8:	97184006 	ldrls	r4, [r8, -r6]
    1cbc:	13011942 	movwne	r1, #6466	; 0x1942
    1cc0:	050a0000 	streq	r0, [sl, #-0]
    1cc4:	3a0e0300 	bcc	3828cc <__bss_end__+0x377aa4>
    1cc8:	390b3b0b 	stmdbcc	fp, {r0, r1, r3, r8, r9, fp, ip, sp}
    1ccc:	0213490b 	andseq	r4, r3, #180224	; 0x2c000
    1cd0:	0b000018 	bleq	1d38 <__code_start__-0x62c8>
    1cd4:	08030005 	stmdaeq	r3, {r0, r2}
    1cd8:	0b3b0b3a 	bleq	ec49c8 <__bss_end__+0xeb9ba0>
    1cdc:	13490b39 	movtne	r0, #39737	; 0x9b39
    1ce0:	42b71702 	adcsmi	r1, r7, #524288	; 0x80000
    1ce4:	0c000017 	stceq	0, cr0, [r0], {23}
    1ce8:	08030034 	stmdaeq	r3, {r2, r4, r5}
    1cec:	0b3b0b3a 	bleq	ec49dc <__bss_end__+0xeb9bb4>
    1cf0:	13490b39 	movtne	r0, #39737	; 0x9b39
    1cf4:	42b71702 	adcsmi	r1, r7, #524288	; 0x80000
    1cf8:	00000017 	andeq	r0, r0, r7, lsl r0
    1cfc:	25011101 	strcs	r1, [r1, #-257]	; 0xfffffeff
    1d00:	030b130e 	movweq	r1, #45838	; 0xb30e
    1d04:	110e1b0e 	tstne	lr, lr, lsl #22
    1d08:	10061201 	andne	r1, r6, r1, lsl #4
    1d0c:	02000017 	andeq	r0, r0, #23, 0
    1d10:	0b0b0024 	bleq	2c1da8 <__bss_end__+0x2b6f80>
    1d14:	08030b3e 	stmdaeq	r3, {r1, r2, r3, r4, r5, r8, r9, fp}
    1d18:	24030000 	strcs	r0, [r3], #-0
    1d1c:	3e0b0b00 	vmlacc.f64	d0, d11, d0
    1d20:	000e030b 	andeq	r0, lr, fp, lsl #6
    1d24:	01150400 	tsteq	r5, r0, lsl #8
    1d28:	13491927 	movtne	r1, #39207	; 0x9927
    1d2c:	00001301 	andeq	r1, r0, r1, lsl #6
    1d30:	49000505 	stmdbmi	r0, {r0, r2, r8, sl}
    1d34:	06000013 			; <UNDEFINED> instruction: 0x06000013
    1d38:	0e030034 	mcreq	0, 0, r0, cr3, cr4, {1}
    1d3c:	0b3b0b3a 	bleq	ec4a2c <__bss_end__+0xeb9c04>
    1d40:	13490b39 	movtne	r0, #39737	; 0x9b39
    1d44:	193c193f 	ldmdbne	ip!, {r0, r1, r2, r3, r4, r5, r8, fp, ip}
    1d48:	0f070000 	svceq	0x00070000
    1d4c:	490b0b00 	stmdbmi	fp, {r8, r9, fp}
    1d50:	08000013 	stmdaeq	r0, {r0, r1, r4}
    1d54:	13490026 	movtne	r0, #36902	; 0x9026
    1d58:	2e090000 	cdpcs	0, 0, cr0, cr9, cr0, {0}
    1d5c:	03193f01 	tsteq	r9, #1, 30
    1d60:	3b0b3a0e 	blcc	2d05a0 <__bss_end__+0x2c5778>
    1d64:	270b390b 	strcs	r3, [fp, -fp, lsl #18]
    1d68:	11134919 	tstne	r3, r9, lsl r9
    1d6c:	40061201 	andmi	r1, r6, r1, lsl #4
    1d70:	19429718 	stmdbne	r2, {r3, r4, r8, r9, sl, ip, pc}^
    1d74:	050a0000 	streq	r0, [sl, #-0]
    1d78:	3a080300 	bcc	202980 <__bss_end__+0x1f7b58>
    1d7c:	390b3b0b 	stmdbcc	fp, {r0, r1, r3, r8, r9, fp, ip, sp}
    1d80:	0213490b 	andseq	r4, r3, #180224	; 0x2c000
    1d84:	1742b717 	smlaldne	fp, r2, r7, r7
    1d88:	01000000 	mrseq	r0, (UNDEF: 0)
    1d8c:	0e250111 	mcreq	1, 1, r0, cr5, cr1, {0}
    1d90:	0e030b13 	vmoveq.32	d3[0], r0
    1d94:	01110e1b 	tsteq	r1, fp, lsl lr
    1d98:	17100612 			; <UNDEFINED> instruction: 0x17100612
    1d9c:	24020000 	strcs	r0, [r2], #-0
    1da0:	3e0b0b00 	vmlacc.f64	d0, d11, d0
    1da4:	0008030b 	andeq	r0, r8, fp, lsl #6
    1da8:	00240300 	eoreq	r0, r4, r0, lsl #6
    1dac:	0b3e0b0b 	bleq	f849e0 <__bss_end__+0xf79bb8>
    1db0:	00000e03 	andeq	r0, r0, r3, lsl #28
    1db4:	27011504 	strcs	r1, [r1, -r4, lsl #10]
    1db8:	01134919 	tsteq	r3, r9, lsl r9
    1dbc:	05000013 	streq	r0, [r0, #-19]	; 0xffffffed
    1dc0:	13490005 	movtne	r0, #36869	; 0x9005
    1dc4:	34060000 	strcc	r0, [r6], #-0
    1dc8:	3a0e0300 	bcc	3829d0 <__bss_end__+0x377ba8>
    1dcc:	390b3b0b 	stmdbcc	fp, {r0, r1, r3, r8, r9, fp, ip, sp}
    1dd0:	3f13490b 	svccc	0x0013490b
    1dd4:	00193c19 	andseq	r3, r9, r9, lsl ip
    1dd8:	000f0700 	andeq	r0, pc, r0, lsl #14
    1ddc:	13490b0b 	movtne	r0, #39691	; 0x9b0b
    1de0:	26080000 	strcs	r0, [r8], -r0
    1de4:	00134900 	andseq	r4, r3, r0, lsl #18
    1de8:	012e0900 			; <UNDEFINED> instruction: 0x012e0900
    1dec:	0e03193f 			; <UNDEFINED> instruction: 0x0e03193f
    1df0:	0b3b0b3a 	bleq	ec4ae0 <__bss_end__+0xeb9cb8>
    1df4:	19270b39 	stmdbne	r7!, {r0, r3, r4, r5, r8, r9, fp}
    1df8:	01111349 	tsteq	r1, r9, asr #6
    1dfc:	18400612 	stmdane	r0, {r1, r4, r9, sl}^
    1e00:	01194297 			; <UNDEFINED> instruction: 0x01194297
    1e04:	0a000013 	beq	1e58 <__code_start__-0x61a8>
    1e08:	08030005 	stmdaeq	r3, {r0, r2}
    1e0c:	0b3b0b3a 	bleq	ec4afc <__bss_end__+0xeb9cd4>
    1e10:	13490b39 	movtne	r0, #39737	; 0x9b39
    1e14:	00001802 	andeq	r1, r0, r2, lsl #16
    1e18:	0300050b 	movweq	r0, #1291	; 0x50b
    1e1c:	3b0b3a08 	blcc	2d0644 <__bss_end__+0x2c581c>
    1e20:	490b390b 	stmdbmi	fp, {r0, r1, r3, r8, fp, ip, sp}
    1e24:	b7170213 			; <UNDEFINED> instruction: 0xb7170213
    1e28:	00001742 	andeq	r1, r0, r2, asr #14
    1e2c:	0300340c 	movweq	r3, #1036	; 0x40c
    1e30:	3b0b3a08 	blcc	2d0658 <__bss_end__+0x2c5830>
    1e34:	490b390b 	stmdbmi	fp, {r0, r1, r3, r8, fp, ip, sp}
    1e38:	b7170213 			; <UNDEFINED> instruction: 0xb7170213
    1e3c:	00001742 	andeq	r1, r0, r2, asr #14
    1e40:	01110100 	tsteq	r1, r0, lsl #2
    1e44:	0b130e25 	bleq	4c56e0 <__bss_end__+0x4ba8b8>
    1e48:	0e1b0e03 	cdpeq	14, 1, cr0, cr11, cr3, {0}
    1e4c:	06120111 			; <UNDEFINED> instruction: 0x06120111
    1e50:	00001710 	andeq	r1, r0, r0, lsl r7
    1e54:	0b002402 	bleq	ae64 <__bss_end__+0x3c>
    1e58:	030b3e0b 	movweq	r3, #48651	; 0xbe0b
    1e5c:	03000008 	movweq	r0, #8
    1e60:	0e030016 	mcreq	0, 0, r0, cr3, cr6, {0}
    1e64:	0b3b0b3a 	bleq	ec4b54 <__bss_end__+0xeb9d2c>
    1e68:	13490b39 	movtne	r0, #39737	; 0x9b39
    1e6c:	24040000 	strcs	r0, [r4], #-0
    1e70:	3e0b0b00 	vmlacc.f64	d0, d11, d0
    1e74:	000e030b 	andeq	r0, lr, fp, lsl #6
    1e78:	00260500 	eoreq	r0, r6, r0, lsl #10
    1e7c:	00001349 	andeq	r1, r0, r9, asr #6
    1e80:	27011506 	strcs	r1, [r1, -r6, lsl #10]
    1e84:	01134919 	tsteq	r3, r9, lsl r9
    1e88:	07000013 	smladeq	r0, r3, r0, r0
    1e8c:	13490005 	movtne	r0, #36869	; 0x9005
    1e90:	34080000 	strcc	r0, [r8], #-0
    1e94:	3a0e0300 	bcc	382a9c <__bss_end__+0x377c74>
    1e98:	390b3b0b 	stmdbcc	fp, {r0, r1, r3, r8, r9, fp, ip, sp}
    1e9c:	3f13490b 	svccc	0x0013490b
    1ea0:	00193c19 	andseq	r3, r9, r9, lsl ip
    1ea4:	000f0900 	andeq	r0, pc, r0, lsl #18
    1ea8:	13490b0b 	movtne	r0, #39691	; 0x9b0b
    1eac:	2e0a0000 	cdpcs	0, 0, cr0, cr10, cr0, {0}
    1eb0:	03193f01 	tsteq	r9, #1, 30
    1eb4:	3b0b3a0e 	blcc	2d06f4 <__bss_end__+0x2c58cc>
    1eb8:	270b390b 	strcs	r3, [fp, -fp, lsl #18]
    1ebc:	11134919 	tstne	r3, r9, lsl r9
    1ec0:	40061201 	andmi	r1, r6, r1, lsl #4
    1ec4:	19429718 	stmdbne	r2, {r3, r4, r8, r9, sl, ip, pc}^
    1ec8:	00001301 	andeq	r1, r0, r1, lsl #6
    1ecc:	0300050b 	movweq	r0, #1291	; 0x50b
    1ed0:	3b0b3a08 	blcc	2d06f8 <__bss_end__+0x2c58d0>
    1ed4:	490b390b 	stmdbmi	fp, {r0, r1, r3, r8, fp, ip, sp}
    1ed8:	b7170213 			; <UNDEFINED> instruction: 0xb7170213
    1edc:	00001742 	andeq	r1, r0, r2, asr #14
    1ee0:	0300340c 	movweq	r3, #1036	; 0x40c
    1ee4:	3b0b3a08 	blcc	2d070c <__bss_end__+0x2c58e4>
    1ee8:	490b390b 	stmdbmi	fp, {r0, r1, r3, r8, fp, ip, sp}
    1eec:	b7170213 			; <UNDEFINED> instruction: 0xb7170213
    1ef0:	00001742 	andeq	r1, r0, r2, asr #14
    1ef4:	01110100 	tsteq	r1, r0, lsl #2
    1ef8:	0b130e25 	bleq	4c5794 <__bss_end__+0x4ba96c>
    1efc:	0e1b0e03 	cdpeq	14, 1, cr0, cr11, cr3, {0}
    1f00:	06120111 			; <UNDEFINED> instruction: 0x06120111
    1f04:	00001710 	andeq	r1, r0, r0, lsl r7
    1f08:	0b002402 	bleq	af18 <__bss_end__+0xf0>
    1f0c:	030b3e0b 	movweq	r3, #48651	; 0xbe0b
    1f10:	03000008 	movweq	r0, #8
    1f14:	0b0b0024 	bleq	2c1fac <__bss_end__+0x2b7184>
    1f18:	0e030b3e 	vmoveq.16	d3[0], r0
    1f1c:	15040000 	strne	r0, [r4, #-0]
    1f20:	49192701 	ldmdbmi	r9, {r0, r8, r9, sl, sp}
    1f24:	00130113 	andseq	r0, r3, r3, lsl r1
    1f28:	00050500 	andeq	r0, r5, r0, lsl #10
    1f2c:	00001349 	andeq	r1, r0, r9, asr #6
    1f30:	03003406 	movweq	r3, #1030	; 0x406
    1f34:	3b0b3a0e 	blcc	2d0774 <__bss_end__+0x2c594c>
    1f38:	490b390b 	stmdbmi	fp, {r0, r1, r3, r8, fp, ip, sp}
    1f3c:	3c193f13 	ldccc	15, cr3, [r9], {19}
    1f40:	07000019 	smladeq	r0, r9, r0, r0
    1f44:	0b0b000f 	bleq	2c1f88 <__bss_end__+0x2b7160>
    1f48:	00001349 	andeq	r1, r0, r9, asr #6
    1f4c:	49002608 	stmdbmi	r0, {r3, r9, sl, sp}
    1f50:	09000013 	stmdbeq	r0, {r0, r1, r4}
    1f54:	193f002e 	ldmdbne	pc!, {r1, r2, r3, r5}	; <UNPREDICTABLE>
    1f58:	0b3a0e03 	bleq	e8576c <__bss_end__+0xe7a944>
    1f5c:	0b390b3b 	bleq	e44c50 <__bss_end__+0xe39e28>
    1f60:	01111927 	tsteq	r1, r7, lsr #18
    1f64:	18400612 	stmdane	r0, {r1, r4, r9, sl}^
    1f68:	00194297 	mulseq	r9, r7, r2
	...

Disassembly of section .debug_loc:

00000000 <.debug_loc>:
       0:	00000000 	andeq	r0, r0, r0
       4:	00740000 	rsbseq	r0, r4, r0
       8:	007c0000 	rsbseq	r0, ip, r0
       c:	00010000 	andeq	r0, r1, r0
      10:	00007c50 	andeq	r7, r0, r0, asr ip
      14:	00007f00 	andeq	r7, r0, r0, lsl #30
      18:	51000100 	mrspl	r0, (UNDEF: 16)
      1c:	0000007f 	andeq	r0, r0, pc, ror r0
      20:	00000100 	andeq	r0, r0, r0, lsl #2
      24:	00540001 	subseq	r0, r4, r1
	...
      34:	34000000 	strcc	r0, [r0], #-0
      38:	40000000 	andmi	r0, r0, r0
      3c:	01000000 	mrseq	r0, (UNDEF: 0)
      40:	00405000 	subeq	r5, r0, r0
      44:	00430000 	subeq	r0, r3, r0
      48:	00010000 	andeq	r0, r1, r0
      4c:	00004352 	andeq	r4, r0, r2, asr r3
      50:	00005000 	andeq	r5, r0, r0
      54:	54000100 	strpl	r0, [r0], #-256	; 0xffffff00
      58:	00000050 	andeq	r0, r0, r0, asr r0
      5c:	0000005c 	andeq	r0, r0, ip, asr r0
      60:	7f700003 	svcvc	0x00700003
      64:	0000009f 	muleq	r0, pc, r0	; <UNPREDICTABLE>
      68:	00000000 	andeq	r0, r0, r0
      6c:	08000100 	stmdaeq	r0, {r8}
      70:	20000000 	andcs	r0, r0, r0
      74:	02000000 	andeq	r0, r0, #0, 0
      78:	009f3c00 	addseq	r3, pc, r0, lsl #24
      7c:	00000000 	andeq	r0, r0, r0
      80:	01000000 	mrseq	r0, (UNDEF: 0)
      84:	00000800 	andeq	r0, r0, r0, lsl #16
      88:	00002000 	andeq	r2, r0, r0
      8c:	f2000600 	vmax.s8	d0, d0, d0
      90:	0000048e 	andeq	r0, r0, lr, lsl #9
	...
      9c:	08000100 	stmdaeq	r0, {r8}
      a0:	20000000 	andcs	r0, r0, r0
      a4:	06000000 	streq	r0, [r0], -r0
      a8:	a0e00300 	rscge	r0, r0, r0, lsl #6
      ac:	009f0000 	addseq	r0, pc, r0
      b0:	00000000 	andeq	r0, r0, r0
      b4:	02000000 	andeq	r0, r0, #0, 0
      b8:	00003405 	andeq	r3, r0, r5, lsl #8
      bc:	00003400 	andeq	r3, r0, r0, lsl #8
      c0:	50000100 	andpl	r0, r0, r0, lsl #2
	...
      cc:	00000004 	andeq	r0, r0, r4
      d0:	00000000 	andeq	r0, r0, r0
      d4:	00000034 	andeq	r0, r0, r4, lsr r0
      d8:	00000040 	andeq	r0, r0, r0, asr #32
      dc:	40500001 	subsmi	r0, r0, r1
      e0:	43000000 	movwmi	r0, #0
      e4:	01000000 	mrseq	r0, (UNDEF: 0)
      e8:	00435200 	subeq	r5, r3, r0, lsl #4
      ec:	00500000 	subseq	r0, r0, r0
      f0:	00010000 	andeq	r0, r1, r0
      f4:	00005054 	andeq	r5, r0, r4, asr r0
      f8:	00005c00 	andeq	r5, r0, r0, lsl #24
      fc:	70000300 	andvc	r0, r0, r0, lsl #6
     100:	00009f7f 	andeq	r9, r0, pc, ror pc
	...
     110:	00000200 	andeq	r0, r0, r0, lsl #4
     114:	00000218 	andeq	r0, r0, r8, lsl r2
     118:	18500001 	ldmdane	r0, {r0}^
     11c:	88000002 	stmdahi	r0, {r1}
     120:	01000002 	tsteq	r0, r2
     124:	02885600 	addeq	r5, r8, #0, 12
     128:	02940000 	addseq	r0, r4, #0, 0
     12c:	00040000 	andeq	r0, r4, r0
     130:	9f5001f3 	svcls	0x005001f3
	...
     140:	02200000 	eoreq	r0, r0, #0, 0
     144:	022b0000 	eoreq	r0, fp, #0, 0
     148:	00010000 	andeq	r0, r1, r0
     14c:	00022b50 	andeq	r2, r2, r0, asr fp
     150:	00028800 	andeq	r8, r2, r0, lsl #16
     154:	54000100 	strpl	r0, [r0], #-256	; 0xffffff00
     158:	00000288 	andeq	r0, r0, r8, lsl #5
     15c:	00000294 	muleq	r0, r4, r2
     160:	00030005 	andeq	r0, r3, r5
     164:	000000aa 	andeq	r0, r0, sl, lsr #1
	...
     170:	b4000000 	strlt	r0, [r0], #-0
     174:	c4000000 	strgt	r0, [r0], #-0
     178:	01000000 	mrseq	r0, (UNDEF: 0)
     17c:	00c45000 	sbceq	r5, r4, r0
     180:	02000000 	andeq	r0, r0, #0, 0
     184:	00010000 	andeq	r0, r1, r0
     188:	00000054 	andeq	r0, r0, r4, asr r0
	...
     198:	0000cc00 	andeq	ip, r0, r0, lsl #24
     19c:	0000d000 	andeq	sp, r0, r0
     1a0:	55000500 	strpl	r0, [r0, #-1280]	; 0xfffffb00
     1a4:	08930493 	ldmeq	r3, {r0, r1, r4, r7, sl}
     1a8:	000000d0 	ldrdeq	r0, [r0], -r0	; <UNPREDICTABLE>
     1ac:	000000d4 	ldrdeq	r0, [r0], -r4
     1b0:	93550008 	cmpls	r5, #8, 0
     1b4:	04935604 	ldreq	r5, [r3], #1540	; 0x604
     1b8:	00d40493 	smullseq	r0, r4, r3, r4
     1bc:	01980000 	orrseq	r0, r8, r0
     1c0:	00090000 	andeq	r0, r9, r0
     1c4:	56049355 			; <UNDEFINED> instruction: 0x56049355
     1c8:	93570493 	cmpls	r7, #-1828716544	; 0x93000000
     1cc:	00019804 	andeq	r9, r1, r4, lsl #16
     1d0:	00020000 	andeq	r0, r2, r0
     1d4:	55000900 	strpl	r0, [r0, #-2304]	; 0xfffff700
     1d8:	93560493 	cmpls	r6, #-1828716544	; 0x93000000
     1dc:	04935704 	ldreq	r5, [r3], #1796	; 0x704
	...
     1e8:	00020201 	andeq	r0, r2, r1, lsl #4
     1ec:	00000000 	andeq	r0, r0, r0
     1f0:	00d40000 	sbcseq	r0, r4, r0
     1f4:	00d40000 	sbcseq	r0, r4, r0
     1f8:	00010000 	andeq	r0, r1, r0
     1fc:	0000d454 	andeq	sp, r0, r4, asr r4
     200:	00010400 	andeq	r0, r1, r0, lsl #8
     204:	74000400 	strvc	r0, [r0], #-1024	; 0xfffffc00
     208:	049f7ed8 	ldreq	r7, [pc], #3800	; 210 <__code_start__-0x7df0>
     20c:	3c000001 	stccc	0, cr0, [r0], {1}
     210:	01000001 	tsteq	r0, r1
     214:	013c5800 	teqeq	ip, r0, lsl #16
     218:	01600000 	cmneq	r0, r0
     21c:	00040000 	andeq	r0, r4, r0
     220:	9f7ed874 	svcls	0x007ed874
     224:	00000160 	andeq	r0, r0, r0, ror #2
     228:	00000200 	andeq	r0, r0, r0, lsl #4
     22c:	00580001 	subseq	r0, r8, r1
     230:	00000000 	andeq	r0, r0, r0
     234:	03000000 	movweq	r0, #0
     238:	00020000 	andeq	r0, r2, r0
     23c:	00011c00 	andeq	r1, r1, r0, lsl #24
     240:	00013c00 	andeq	r3, r1, r0, lsl #24
     244:	58000100 	stmdapl	r0, {r8}
     248:	00000180 	andeq	r0, r0, r0, lsl #3
     24c:	00000188 	andeq	r0, r0, r8, lsl #3
     250:	98580001 	ldmdals	r8, {r0}^
     254:	00000001 	andeq	r0, r0, r1
     258:	01000002 	tsteq	r0, r2
     25c:	00005800 	andeq	r5, r0, r0, lsl #16
     260:	00000000 	andeq	r0, r0, r0
     264:	00030000 	andeq	r0, r3, r0
     268:	00000200 	andeq	r0, r0, r0, lsl #4
     26c:	0000011c 	andeq	r0, r0, ip, lsl r1
     270:	0000013c 	andeq	r0, r0, ip, lsr r1
     274:	00030006 	andeq	r0, r3, r6
     278:	9f0000aa 	svcls	0x000000aa
     27c:	00000180 	andeq	r0, r0, r0, lsl #3
     280:	00000188 	andeq	r0, r0, r8, lsl #3
     284:	00030006 	andeq	r0, r3, r6
     288:	9f0000aa 	svcls	0x000000aa
     28c:	00000198 	muleq	r0, r8, r1
     290:	00000200 	andeq	r0, r0, r0, lsl #4
     294:	00030006 	andeq	r0, r3, r6
     298:	9f0000aa 	svcls	0x000000aa
	...
     2a8:	00000100 	andeq	r0, r0, r0, lsl #2
     2ac:	00000124 	andeq	r0, r0, r4, lsr #2
     2b0:	00000134 	andeq	r0, r0, r4, lsr r1
     2b4:	34530001 	ldrbcc	r0, [r3], #-1
     2b8:	38000001 	stmdacc	r0, {r0}
     2bc:	05000001 	streq	r0, [r0, #-1]
     2c0:	aa000300 	bge	ec8 <__code_start__-0x7138>
     2c4:	01800000 	orreq	r0, r0, r0
     2c8:	01880000 	orreq	r0, r8, r0
     2cc:	00010000 	andeq	r0, r1, r0
     2d0:	00019853 	andeq	r9, r1, r3, asr r8
     2d4:	0001c000 	andeq	ip, r1, r0
     2d8:	53000100 	movwpl	r0, #256	; 0x100
	...
     2e8:	01800000 	orreq	r0, r0, r0
     2ec:	01840000 	orreq	r0, r4, r0
     2f0:	00010000 	andeq	r0, r1, r0
     2f4:	00018452 	andeq	r8, r1, r2, asr r4
     2f8:	00018800 	andeq	r8, r1, r0, lsl #16
     2fc:	73000200 	movwvc	r0, #512	; 0x200
     300:	00019c00 	andeq	r9, r1, r0, lsl #24
     304:	0001b000 	andeq	fp, r1, r0
     308:	52000100 	andpl	r0, r0, #0
	...
     314:	00020000 	andeq	r0, r2, r0
     318:	00000198 	muleq	r0, r8, r1
     31c:	0000019c 	muleq	r0, ip, r1
     320:	b0530001 	subslt	r0, r3, r1
     324:	b8000001 	stmdalt	r0, {r0}
     328:	01000001 	tsteq	r0, r1
     32c:	00005300 	andeq	r5, r0, r0, lsl #6
	...
     338:	00580000 	subseq	r0, r8, r0
     33c:	00700000 	rsbseq	r0, r0, r0
     340:	00010000 	andeq	r0, r1, r0
     344:	00007050 	andeq	r7, r0, r0, asr r0
     348:	0000b400 	andeq	fp, r0, r0, lsl #8
     34c:	55000100 	strpl	r0, [r0, #-256]	; 0xffffff00
	...
     358:	00680000 	rsbeq	r0, r8, r0
     35c:	00b40000 	adcseq	r0, r4, r0
     360:	00010000 	andeq	r0, r1, r0
     364:	00000054 	andeq	r0, r0, r4, asr r0
     368:	00000000 	andeq	r0, r0, r0
     36c:	84000100 	strhi	r0, [r0], #-256	; 0xffffff00
     370:	88000000 	stmdahi	r0, {}	; <UNPREDICTABLE>
     374:	01000000 	mrseq	r0, (UNDEF: 0)
     378:	00005400 	andeq	r5, r0, r0, lsl #8
	...
     388:	00000034 	andeq	r0, r0, r4, lsr r0
     38c:	00000044 	andeq	r0, r0, r4, asr #32
     390:	44500001 	ldrbmi	r0, [r0], #-1
     394:	50000000 	andpl	r0, r0, r0
     398:	04000000 	streq	r0, [r0], #-0
     39c:	7ed87000 	cdpvc	0, 13, cr7, cr8, cr0, {0}
     3a0:	0000509f 	muleq	r0, pc, r0	; <UNPREDICTABLE>
     3a4:	00005800 	andeq	r5, r0, r0, lsl #16
     3a8:	f3000400 	vshl.u8	d0, d0, d0
     3ac:	009f5001 	addseq	r5, pc, r1
     3b0:	00000000 	andeq	r0, r0, r0
     3b4:	04000000 	streq	r0, [r0], #-0
     3b8:	00000000 	andeq	r0, r0, r0
     3bc:	00003400 	andeq	r3, r0, r0, lsl #8
     3c0:	00004400 	andeq	r4, r0, r0, lsl #8
     3c4:	70000400 	andvc	r0, r0, r0, lsl #8
     3c8:	449f01a8 	ldrmi	r0, [pc], #424	; 3d0 <__code_start__-0x7c30>
     3cc:	50000000 	andpl	r0, r0, r0
     3d0:	01000000 	mrseq	r0, (UNDEF: 0)
     3d4:	00505000 	subseq	r5, r0, r0
     3d8:	00580000 	subseq	r0, r8, r0
     3dc:	00070000 	andeq	r0, r7, r0
     3e0:	235001f3 	cmpcs	r0, #-1073741764	; 0xc000003c
     3e4:	009f01a8 	addseq	r0, pc, r8, lsr #3
     3e8:	00000000 	andeq	r0, r0, r0
     3ec:	0c000000 	stceq	0, cr0, [r0], {-0}
     3f0:	00000000 	andeq	r0, r0, r0
     3f4:	00003400 	andeq	r3, r0, r0, lsl #8
     3f8:	00004400 	andeq	r4, r0, r0, lsl #8
     3fc:	70000a00 	andvc	r0, r0, r0, lsl #20
     400:	06047000 	streq	r7, [r4], -r0
     404:	01a82322 			; <UNDEFINED> instruction: 0x01a82322
     408:	0000449f 	muleq	r0, pc, r4	; <UNPREDICTABLE>
     40c:	00005000 	andeq	r5, r0, r0
     410:	70000800 	andvc	r0, r0, r0, lsl #16
     414:	7edc7000 	cdpvc	0, 13, cr7, cr12, cr0, {0}
     418:	509f2206 	addspl	r2, pc, r6, lsl #4
     41c:	58000000 	stmdapl	r0, {}	; <UNPREDICTABLE>
     420:	0e000000 	cdpeq	0, 0, cr0, cr0, cr0, {0}
     424:	5001f300 	andpl	pc, r1, r0, lsl #6
     428:	235001f3 	cmpcs	r0, #-1073741764	; 0xc000003c
     42c:	23220604 			; <UNDEFINED> instruction: 0x23220604
     430:	009f01a8 	addseq	r0, pc, r8, lsr #3
     434:	00000000 	andeq	r0, r0, r0
     438:	02000000 	andeq	r0, r0, #0, 0
     43c:	00003404 	andeq	r3, r0, r4, lsl #8
     440:	00003400 	andeq	r3, r0, r0, lsl #8
     444:	50000100 	andpl	r0, r0, r0, lsl #2
	...
     450:	00340c06 	eorseq	r0, r4, r6, lsl #24
     454:	00340000 	eorseq	r0, r4, r0
     458:	00010000 	andeq	r0, r1, r0
     45c:	00000050 	andeq	r0, r0, r0, asr r0
     460:	00000000 	andeq	r0, r0, r0
     464:	340c0a00 	strcc	r0, [ip], #-2560	; 0xfffff600
     468:	34000000 	strcc	r0, [r0], #-0
     46c:	01000000 	mrseq	r0, (UNDEF: 0)
     470:	00005000 	andeq	r5, r0, r0
	...
     47c:	00100000 	andseq	r0, r0, r0
     480:	00180000 	andseq	r0, r8, r0
     484:	00010000 	andeq	r0, r1, r0
     488:	00001850 	andeq	r1, r0, r0, asr r8
     48c:	00001c00 	andeq	r1, r0, r0, lsl #24
     490:	f3000400 	vshl.u8	d0, d0, d0
     494:	009f5001 	addseq	r5, pc, r1
	...
     4a0:	1c000000 	stcne	0, cr0, [r0], {-0}
     4a4:	20000000 	andcs	r0, r0, r0
     4a8:	01000000 	mrseq	r0, (UNDEF: 0)
     4ac:	00205000 	eoreq	r5, r0, r0
     4b0:	00240000 	eoreq	r0, r4, r0
     4b4:	00040000 	andeq	r0, r4, r0
     4b8:	9f7ed870 	svcls	0x007ed870
	...
     4c8:	00000024 	andeq	r0, r0, r4, lsr #32
     4cc:	00000030 	andeq	r0, r0, r0, lsr r0
     4d0:	30500001 	subscc	r0, r0, r1
     4d4:	34000000 	strcc	r0, [r0], #-0
     4d8:	04000000 	streq	r0, [r0], #-0
     4dc:	5001f300 	andpl	pc, r1, r0, lsl #6
     4e0:	0000009f 	muleq	r0, pc, r0	; <UNPREDICTABLE>
     4e4:	00000000 	andeq	r0, r0, r0
     4e8:	24050300 	strcs	r0, [r5], #-768	; 0xfffffd00
     4ec:	24000000 	strcs	r0, [r0], #-0
     4f0:	01000000 	mrseq	r0, (UNDEF: 0)
     4f4:	00005000 	andeq	r5, r0, r0
	...
     500:	00080000 	andeq	r0, r8, r0
     504:	00800000 	addeq	r0, r0, r0
     508:	00010000 	andeq	r0, r1, r0
     50c:	00008051 	andeq	r8, r0, r1, asr r0
     510:	0000a400 	andeq	sl, r0, r0, lsl #8
     514:	70000300 	andvc	r0, r0, r0, lsl #6
     518:	00009f78 	andeq	r9, r0, r8, ror pc
	...
     524:	00000010 	andeq	r0, r0, r0, lsl r0
     528:	000000a4 	andeq	r0, r0, r4, lsr #1
     52c:	00530001 	subseq	r0, r3, r1
	...
     538:	a4000000 	strge	r0, [r0], #-0
     53c:	bc000000 	stclt	0, cr0, [r0], {-0}
     540:	01000000 	mrseq	r0, (UNDEF: 0)
     544:	00bc5000 	adcseq	r5, ip, r0
     548:	01900000 	orrseq	r0, r0, r0
     54c:	00040000 	andeq	r0, r4, r0
     550:	9f5001f3 	svcls	0x005001f3
	...
     55c:	00010000 	andeq	r0, r1, r0
     560:	00010100 	andeq	r0, r1, r0, lsl #2
     564:	00000000 	andeq	r0, r0, r0
     568:	000000c8 	andeq	r0, r0, r8, asr #1
     56c:	000000d4 	ldrdeq	r0, [r0], -r4
     570:	fc530001 	mrrc2	0, 0, r0, r3, cr1
     574:	00000000 	andeq	r0, r0, r0
     578:	06000001 	streq	r0, [r0], -r1
     57c:	aa100300 	bge	401184 <__bss_end__+0x3f635c>
     580:	009f0000 	addseq	r0, pc, r0
     584:	14000001 	strne	r0, [r0], #-1
     588:	01000001 	tsteq	r0, r1
     58c:	01145300 	tsteq	r4, r0, lsl #6
     590:	01180000 	tsteq	r8, r0
     594:	00080000 	andeq	r0, r8, r0
     598:	24330072 	ldrtcs	r0, [r3], #-114	; 0xffffff8e
     59c:	9f220073 	svcls	0x00220073
     5a0:	0000013c 	andeq	r0, r0, ip, lsr r1
     5a4:	00000148 	andeq	r0, r0, r8, asr #2
     5a8:	48500001 	ldmdami	r0, {r0}^
     5ac:	54000001 	strpl	r0, [r0], #-1
     5b0:	01000001 	tsteq	r0, r1
     5b4:	00005300 	andeq	r5, r0, r0, lsl #6
	...
     5c0:	00020200 	andeq	r0, r2, r0, lsl #4
     5c4:	00bc0001 	adcseq	r0, ip, r1
     5c8:	00d40000 	sbcseq	r0, r4, r0
     5cc:	00010000 	andeq	r0, r1, r0
     5d0:	0000e450 	andeq	lr, r0, r0, asr r4
     5d4:	0000e400 	andeq	lr, r0, r0, lsl #8
     5d8:	50000100 	andpl	r0, r0, r0, lsl #2
     5dc:	000000e4 	andeq	r0, r0, r4, ror #1
     5e0:	00000100 	andeq	r0, r0, r0, lsl #2
     5e4:	10030006 	andne	r0, r3, r6
     5e8:	9f0000aa 	svcls	0x000000aa
     5ec:	00000144 	andeq	r0, r0, r4, asr #2
     5f0:	00000154 	andeq	r0, r0, r4, asr r1
     5f4:	00500001 	subseq	r0, r0, r1
	...
     600:	0000b400 	andeq	fp, r0, r0, lsl #8
     604:	00019000 	andeq	r9, r1, r0
     608:	54000100 	strpl	r0, [r0], #-256	; 0xffffff00
	...
     614:	00010000 	andeq	r0, r1, r0
     618:	0000012c 	andeq	r0, r0, ip, lsr #2
     61c:	0000013c 	andeq	r0, r0, ip, lsr r1
     620:	000a0004 	andeq	r0, sl, r4
     624:	01649f80 	cmneq	r4, r0, lsl #31
     628:	01840000 	orreq	r0, r4, r0
     62c:	00040000 	andeq	r0, r4, r0
     630:	9f80000a 	svcls	0x0080000a
	...
     640:	012c0000 			; <UNDEFINED> instruction: 0x012c0000
     644:	01340000 	teqeq	r4, r0
     648:	00010000 	andeq	r0, r1, r0
     64c:	00013450 	andeq	r3, r1, r0, asr r4
     650:	00013700 	andeq	r3, r1, r0, lsl #14
     654:	70000300 	andvc	r0, r0, r0, lsl #6
     658:	01789f78 	cmneq	r8, r8, ror pc
     65c:	01840000 	orreq	r0, r4, r0
     660:	00010000 	andeq	r0, r1, r0
     664:	00000050 	andeq	r0, r0, r0, asr r0
     668:	00000000 	andeq	r0, r0, r0
     66c:	00000100 	andeq	r0, r0, r0, lsl #2
     670:	00012c00 	andeq	r2, r1, r0, lsl #24
     674:	00013400 	andeq	r3, r1, r0, lsl #8
     678:	50000100 	andpl	r0, r0, r0, lsl #2
     67c:	00000134 	andeq	r0, r0, r4, lsr r1
     680:	00000137 	andeq	r0, r0, r7, lsr r1
     684:	78700003 	ldmdavc	r0!, {r0, r1}^
     688:	0000009f 	muleq	r0, pc, r0	; <UNPREDICTABLE>
     68c:	00000000 	andeq	r0, r0, r0
     690:	00000200 	andeq	r0, r0, r0, lsl #4
     694:	00055000 	andeq	r5, r5, r0
     698:	00055c00 	andeq	r5, r5, r0, lsl #24
     69c:	55000100 	strpl	r0, [r0, #-256]	; 0xffffff00
     6a0:	0000055c 	andeq	r0, r0, ip, asr r5
     6a4:	00000578 	andeq	r0, r0, r8, ror r5
     6a8:	00500001 	subseq	r0, r0, r1
     6ac:	00000000 	andeq	r0, r0, r0
     6b0:	03000000 	movweq	r0, #0
     6b4:	00000000 	andeq	r0, r0, r0
     6b8:	00049800 	andeq	r9, r4, r0, lsl #16
     6bc:	0004d400 	andeq	sp, r4, r0, lsl #8
     6c0:	30000200 	andcc	r0, r0, r0, lsl #4
     6c4:	0004d49f 	muleq	r4, pc, r4	; <UNPREDICTABLE>
     6c8:	00053000 	andeq	r3, r5, r0
     6cc:	57000100 	strpl	r0, [r0, -r0, lsl #2]
     6d0:	00000530 	andeq	r0, r0, r0, lsr r5
     6d4:	0000053c 	andeq	r0, r0, ip, lsr r5
     6d8:	9f300002 	svcls	0x00300002
	...
     6e4:	00000003 	andeq	r0, r0, r3
     6e8:	04980000 	ldreq	r0, [r8], #0
     6ec:	04d40000 	ldrbeq	r0, [r4], #0
     6f0:	00020000 	andeq	r0, r2, r0
     6f4:	04d49f30 	ldrbeq	r9, [r4], #3888	; 0xf30
     6f8:	05300000 	ldreq	r0, [r0, #-0]!
     6fc:	00010000 	andeq	r0, r1, r0
     700:	00053058 	andeq	r3, r5, r8, asr r0
     704:	00053c00 	andeq	r3, r5, r0, lsl #24
     708:	30000200 	andcc	r0, r0, r0, lsl #4
     70c:	0000009f 	muleq	r0, pc, r0	; <UNPREDICTABLE>
     710:	00000000 	andeq	r0, r0, r0
     714:	00000300 	andeq	r0, r0, r0, lsl #6
     718:	98000000 	stmdals	r0, {}	; <UNPREDICTABLE>
     71c:	d4000004 	strle	r0, [r0], #-4
     720:	02000004 	andeq	r0, r0, #4, 0
     724:	d49f3000 	ldrle	r3, [pc], #0	; 72c <__code_start__-0x78d4>
     728:	30000004 	andcc	r0, r0, r4
     72c:	01000005 	tsteq	r0, r5
     730:	05305500 	ldreq	r5, [r0, #-1280]!	; 0xfffffb00
     734:	053c0000 	ldreq	r0, [ip, #-0]!
     738:	00020000 	andeq	r0, r2, r0
     73c:	00009f30 	andeq	r9, r0, r0, lsr pc
	...
     74c:	04b00200 	ldrteq	r0, [r0], #512	; 0x200
     750:	04fc0000 	ldrbteq	r0, [ip], #0
     754:	00010000 	andeq	r0, r1, r0
     758:	0004fc50 	andeq	pc, r4, r0, asr ip	; <UNPREDICTABLE>
     75c:	00051400 	andeq	r1, r5, r0, lsl #8
     760:	54000100 	strpl	r0, [r0], #-256	; 0xffffff00
     764:	00000514 	andeq	r0, r0, r4, lsl r5
     768:	0000054c 	andeq	r0, r0, ip, asr #10
     76c:	4c500001 	mrrcmi	0, 0, r0, r0, cr1	; <UNPREDICTABLE>
     770:	50000005 	andpl	r0, r0, r5
     774:	01000005 	tsteq	r0, r5
     778:	00005400 	andeq	r5, r0, r0, lsl #8
	...
     784:	000004e4 	andeq	r0, r0, r4, ror #9
     788:	000004f4 	strdeq	r0, [r0], -r4
     78c:	010a0004 	tsteq	sl, r4
     790:	00009f01 	andeq	r9, r0, r1, lsl #30
	...
     79c:	000004e4 	andeq	r0, r0, r4, ror #9
     7a0:	000004f4 	strdeq	r0, [r0], -r4
     7a4:	faf20006 	blx	ffc807c4 <__bss_end__+0xffc7599c>
     7a8:	0000001c 	andeq	r0, r0, ip, lsl r0
	...
     7b4:	04e40000 	strbteq	r0, [r4], #0
     7b8:	04f40000 	ldrbteq	r0, [r4], #0
     7bc:	00060000 	andeq	r0, r6, r0
     7c0:	00a31403 	adceq	r1, r3, r3, lsl #8
     7c4:	00009f00 	andeq	r9, r0, r0, lsl #30
	...
     7d4:	00000448 	andeq	r0, r0, r8, asr #8
     7d8:	00000458 	andeq	r0, r0, r8, asr r4
     7dc:	58500001 	ldmdapl	r0, {r0}^
     7e0:	5b000004 	blpl	7f8 <__code_start__-0x7808>
     7e4:	01000004 	tsteq	r0, r4
     7e8:	045b5100 	ldrbeq	r5, [fp], #-256	; 0xffffff00
     7ec:	048c0000 	streq	r0, [ip], #0
     7f0:	00010000 	andeq	r0, r1, r0
     7f4:	00000054 	andeq	r0, r0, r4, asr r0
     7f8:	00000000 	andeq	r0, r0, r0
     7fc:	40000200 	andmi	r0, r0, r0, lsl #4
     800:	48000004 	stmdami	r0, {r2}
     804:	02000004 	andeq	r0, r0, #4, 0
     808:	009f3100 	addseq	r3, pc, r0, lsl #2
     80c:	00000000 	andeq	r0, r0, r0
     810:	02000000 	andeq	r0, r0, #0, 0
     814:	0003f800 	andeq	pc, r3, r0, lsl #16
     818:	00040000 	andeq	r0, r4, r0
     81c:	31000200 	mrscc	r0, R8_usr
     820:	0000009f 	muleq	r0, pc, r0	; <UNPREDICTABLE>
	...
     82c:	00023400 	andeq	r3, r2, r0, lsl #8
     830:	00024000 	andeq	r4, r2, r0
     834:	50000100 	andpl	r0, r0, r0, lsl #2
     838:	00000240 	andeq	r0, r0, r0, asr #4
     83c:	00000344 	andeq	r0, r0, r4, asr #6
     840:	00580001 	subseq	r0, r8, r1
     844:	00000000 	andeq	r0, r0, r0
     848:	01000000 	mrseq	r0, (UNDEF: 0)
     84c:	00000000 	andeq	r0, r0, r0
     850:	00023c00 	andeq	r3, r2, r0, lsl #24
     854:	00027400 	andeq	r7, r2, r0, lsl #8
     858:	30000200 	andcc	r0, r0, r0, lsl #4
     85c:	0002749f 	muleq	r2, pc, r4	; <UNPREDICTABLE>
     860:	0002f000 	andeq	pc, r2, r0
     864:	55000100 	strpl	r0, [r0, #-256]	; 0xffffff00
     868:	000002f0 	strdeq	r0, [r0], -r0	; <UNPREDICTABLE>
     86c:	00000304 	andeq	r0, r0, r4, lsl #6
     870:	9f300002 	svcls	0x00300002
	...
     87c:	00000001 	andeq	r0, r0, r1
     880:	023c0000 	eorseq	r0, ip, #0, 0
     884:	02740000 	rsbseq	r0, r4, #0, 0
     888:	00020000 	andeq	r0, r2, r0
     88c:	02749f30 	rsbseq	r9, r4, #48, 30	; 0xc0
     890:	02f00000 	rscseq	r0, r0, #0, 0
     894:	00010000 	andeq	r0, r1, r0
     898:	0002f056 	andeq	pc, r2, r6, asr r0	; <UNPREDICTABLE>
     89c:	00030400 	andeq	r0, r3, r0, lsl #8
     8a0:	30000200 	andcc	r0, r0, r0, lsl #4
     8a4:	0000009f 	muleq	r0, pc, r0	; <UNPREDICTABLE>
     8a8:	00000000 	andeq	r0, r0, r0
     8ac:	00000100 	andeq	r0, r0, r0, lsl #2
     8b0:	3c000000 	stccc	0, cr0, [r0], {-0}
     8b4:	74000002 	strvc	r0, [r0], #-2
     8b8:	02000002 	andeq	r0, r0, #2, 0
     8bc:	749f3000 	ldrvc	r3, [pc], #0	; 8c4 <__code_start__-0x773c>
     8c0:	f0000002 			; <UNDEFINED> instruction: 0xf0000002
     8c4:	01000002 	tsteq	r0, r2
     8c8:	02f05700 	rscseq	r5, r0, #0, 14
     8cc:	03040000 	movweq	r0, #16384	; 0x4000
     8d0:	00020000 	andeq	r0, r2, r0
     8d4:	00009f30 	andeq	r9, r0, r0, lsr pc
	...
     8f0:	00000254 	andeq	r0, r0, r4, asr r2
     8f4:	00000284 	andeq	r0, r0, r4, lsl #5
     8f8:	84500001 	ldrbhi	r0, [r0], #-1
     8fc:	90000002 	andls	r0, r0, r2
     900:	01000002 	tsteq	r0, r2
     904:	02905400 	addseq	r5, r0, #0, 8
     908:	02c00000 	sbceq	r0, r0, #0, 0
     90c:	00010000 	andeq	r0, r1, r0
     910:	0002c050 	andeq	ip, r2, r0, asr r0
     914:	0002c300 	andeq	ip, r2, r0, lsl #6
     918:	52000100 	andpl	r0, r0, #0
     91c:	000002c3 	andeq	r0, r0, r3, asr #5
     920:	000002c8 	andeq	r0, r0, r8, asr #5
     924:	c8540001 	ldmdagt	r4, {r0}^
     928:	d0000002 	andle	r0, r0, r2
     92c:	01000002 	tsteq	r0, r2
     930:	02d05000 	sbcseq	r5, r0, #0, 0
     934:	02f00000 	rscseq	r0, r0, #0, 0
     938:	00010000 	andeq	r0, r1, r0
     93c:	0002f054 	andeq	pc, r2, r4, asr r0	; <UNPREDICTABLE>
     940:	0002f800 	andeq	pc, r2, r0, lsl #16
     944:	50000100 	andpl	r0, r0, r0, lsl #2
     948:	000002f8 	strdeq	r0, [r0], -r8
     94c:	00000344 	andeq	r0, r0, r4, asr #6
     950:	00540001 	subseq	r0, r4, r1
	...
     95c:	98000000 	stmdals	r0, {}	; <UNPREDICTABLE>
     960:	b3000001 	movwlt	r0, #1
     964:	01000001 	tsteq	r0, r1
     968:	01b45000 			; <UNDEFINED> instruction: 0x01b45000
     96c:	01c00000 	biceq	r0, r0, r0
     970:	00010000 	andeq	r0, r1, r0
     974:	00000050 	andeq	r0, r0, r0, asr r0
	...
     990:	30000000 	andcc	r0, r0, r0
     994:	01000000 	mrseq	r0, (UNDEF: 0)
     998:	00305000 	eorseq	r5, r0, r0
     99c:	00400000 	subeq	r0, r0, r0
     9a0:	00010000 	andeq	r0, r1, r0
     9a4:	00004054 	andeq	r4, r0, r4, asr r0
     9a8:	00005800 	andeq	r5, r0, r0, lsl #16
     9ac:	50000100 	andpl	r0, r0, r0, lsl #2
     9b0:	00000058 	andeq	r0, r0, r8, asr r0
     9b4:	00000060 	andeq	r0, r0, r0, rrx
     9b8:	01f30004 	mvnseq	r0, r4
     9bc:	00609f50 	rsbeq	r9, r0, r0, asr pc
     9c0:	00780000 	rsbseq	r0, r8, r0
     9c4:	00010000 	andeq	r0, r1, r0
     9c8:	00007850 	andeq	r7, r0, r0, asr r8
     9cc:	00008000 	andeq	r8, r0, r0
     9d0:	54000100 	strpl	r0, [r0], #-256	; 0xffffff00
     9d4:	00000080 	andeq	r0, r0, r0, lsl #1
     9d8:	00000098 	muleq	r0, r8, r0
     9dc:	98500001 	ldmdals	r0, {r0}^
     9e0:	a0000000 	andge	r0, r0, r0
     9e4:	01000000 	mrseq	r0, (UNDEF: 0)
     9e8:	00a05400 	adceq	r5, r0, r0, lsl #8
     9ec:	018c0000 	orreq	r0, ip, r0
     9f0:	00040000 	andeq	r0, r4, r0
     9f4:	9f5001f3 	svcls	0x005001f3
	...
     a10:	00000054 	andeq	r0, r0, r4, asr r0
     a14:	54510001 	ldrbpl	r0, [r1], #-1
     a18:	60000000 	andvs	r0, r0, r0
     a1c:	04000000 	streq	r0, [r0], #-0
     a20:	5101f300 	mrspl	pc, SP_irq	; <UNPREDICTABLE>
     a24:	0000609f 	muleq	r0, pc, r0	; <UNPREDICTABLE>
     a28:	00007400 	andeq	r7, r0, r0, lsl #8
     a2c:	51000100 	mrspl	r0, (UNDEF: 16)
     a30:	00000074 	andeq	r0, r0, r4, ror r0
     a34:	00000080 	andeq	r0, r0, r0, lsl #1
     a38:	01f30004 	mvnseq	r0, r4
     a3c:	00809f51 	addeq	r9, r0, r1, asr pc
     a40:	00940000 	addseq	r0, r4, r0
     a44:	00010000 	andeq	r0, r1, r0
     a48:	00009451 	andeq	r9, r0, r1, asr r4
     a4c:	00018c00 	andeq	r8, r1, r0, lsl #24
     a50:	f3000400 	vshl.u8	d0, d0, d0
     a54:	009f5101 	addseq	r5, pc, r1, lsl #2
	...
     a60:	00000202 	andeq	r0, r0, r2, lsl #4
     a64:	00000000 	andeq	r0, r0, r0
     a68:	0000a000 	andeq	sl, r0, r0
     a6c:	0000a800 	andeq	sl, r0, r0, lsl #16
     a70:	57000100 	strpl	r0, [r0, -r0, lsl #2]
     a74:	000000a8 	andeq	r0, r0, r8, lsr #1
     a78:	000000b0 	strheq	r0, [r0], -r0	; <UNPREDICTABLE>
     a7c:	b4540001 	ldrblt	r0, [r4], #-1
     a80:	b8000000 	stmdalt	r0, {}	; <UNPREDICTABLE>
     a84:	01000000 	mrseq	r0, (UNDEF: 0)
     a88:	00b85400 	adcseq	r5, r8, r0, lsl #8
     a8c:	015c0000 	cmpeq	ip, r0
     a90:	00010000 	andeq	r0, r1, r0
     a94:	00015c57 	andeq	r5, r1, r7, asr ip
     a98:	00016400 	andeq	r6, r1, r0, lsl #8
     a9c:	54000100 	strpl	r0, [r0], #-256	; 0xffffff00
	...
     aac:	00a00000 	adceq	r0, r0, r0
     ab0:	00a80000 	adceq	r0, r8, r0
     ab4:	00010000 	andeq	r0, r1, r0
     ab8:	0000d855 	andeq	sp, r0, r5, asr r8
     abc:	0000ef00 	andeq	lr, r0, r0, lsl #30
     ac0:	50000100 	andpl	r0, r0, r0, lsl #2
     ac4:	000000ef 	andeq	r0, r0, pc, ror #1
     ac8:	0000015c 	andeq	r0, r0, ip, asr r1
     acc:	00550001 	subseq	r0, r5, r1
	...
     ad8:	a0000000 	andge	r0, r0, r0
     adc:	a8000000 	stmdage	r0, {}	; <UNPREDICTABLE>
     ae0:	01000000 	mrseq	r0, (UNDEF: 0)
     ae4:	00e45900 	rsceq	r5, r4, r0, lsl #18
     ae8:	015c0000 	cmpeq	ip, r0
     aec:	00010000 	andeq	r0, r1, r0
     af0:	00000059 	andeq	r0, r0, r9, asr r0
	...
     afc:	0000a000 	andeq	sl, r0, r0
     b00:	0000a800 	andeq	sl, r0, r0, lsl #16
     b04:	5a000100 	bpl	f0c <__code_start__-0x70f4>
     b08:	000000e8 	andeq	r0, r0, r8, ror #1
     b0c:	0000015c 	andeq	r0, r0, ip, asr r1
     b10:	005a0001 	subseq	r0, sl, r1
	...
     b1c:	0000b800 	andeq	fp, r0, r0, lsl #16
     b20:	0000d700 	andeq	sp, r0, r0, lsl #14
     b24:	77000200 	strvc	r0, [r0, -r0, lsl #4]
	...
     b30:	bc000000 	stclt	0, cr0, [r0], {-0}
     b34:	d7000000 	strle	r0, [r0, -r0]
     b38:	02000000 	andeq	r0, r0, #0, 0
     b3c:	00007700 	andeq	r7, r0, r0, lsl #14
     b40:	00000000 	andeq	r0, r0, r0
     b44:	01000000 	mrseq	r0, (UNDEF: 0)
     b48:	0000bc00 	andeq	fp, r0, r0, lsl #24
     b4c:	0000d400 	andeq	sp, r0, r0, lsl #8
     b50:	77000200 	strvc	r0, [r0, -r0, lsl #4]
	...
     b68:	00034400 	andeq	r4, r3, r0, lsl #8
     b6c:	00036c00 	andeq	r6, r3, r0, lsl #24
     b70:	50000100 	andpl	r0, r0, r0, lsl #2
     b74:	0000036c 	andeq	r0, r0, ip, ror #6
     b78:	00000398 	muleq	r0, r8, r3
     b7c:	98540001 	ldmdals	r4, {r0}^
     b80:	b0000003 	andlt	r0, r0, r3
     b84:	01000003 	tsteq	r0, r3
     b88:	03b05000 	movseq	r5, #0, 0
     b8c:	03b80000 			; <UNDEFINED> instruction: 0x03b80000
     b90:	00010000 	andeq	r0, r1, r0
     b94:	0003b854 	andeq	fp, r3, r4, asr r8
     b98:	0003c800 	andeq	ip, r3, r0, lsl #16
     b9c:	50000100 	andpl	r0, r0, r0, lsl #2
     ba0:	000003c8 	andeq	r0, r0, r8, asr #7
     ba4:	000003e8 	andeq	r0, r0, r8, ror #7
     ba8:	00540001 	subseq	r0, r4, r1
     bac:	00000000 	andeq	r0, r0, r0
     bb0:	02000000 	andeq	r0, r0, #0, 0
     bb4:	00036400 	andeq	r6, r3, r0, lsl #8
     bb8:	00039800 	andeq	r9, r3, r0, lsl #16
     bbc:	40000400 	andmi	r0, r0, r0, lsl #8
     bc0:	009f2440 	addseq	r2, pc, r0, asr #8
	...
     bcc:	e8000000 	stmda	r0, {}	; <UNPREDICTABLE>
     bd0:	ef000003 	svc	0x00000003
     bd4:	01000003 	tsteq	r0, r3
     bd8:	03ef5000 	mvneq	r5, #0, 0
     bdc:	03f40000 	mvnseq	r0, #0, 0
     be0:	00040000 	andeq	r0, r4, r0
     be4:	9f5001f3 	svcls	0x005001f3
	...
     bf8:	0000001c 	andeq	r0, r0, ip, lsl r0
     bfc:	1c510001 	mrrcne	0, 0, r0, r1, cr1
     c00:	78000000 	stmdavc	r0, {}	; <UNPREDICTABLE>
     c04:	04000000 	streq	r0, [r0], #-0
     c08:	5101f300 	mrspl	pc, SP_irq	; <UNPREDICTABLE>
     c0c:	0000009f 	muleq	r0, pc, r0	; <UNPREDICTABLE>
	...
     c1c:	00005800 	andeq	r5, r0, r0, lsl #16
     c20:	52000100 	andpl	r0, r0, #0
     c24:	00000058 	andeq	r0, r0, r8, asr r0
     c28:	00000078 	andeq	r0, r0, r8, ror r0
     c2c:	01f30004 	mvnseq	r0, r4
     c30:	00009f52 	andeq	r9, r0, r2, asr pc
     c34:	00000000 	andeq	r0, r0, r0
     c38:	00020000 	andeq	r0, r2, r0
     c3c:	00010100 	andeq	r0, r1, r0, lsl #2
     c40:	00010100 	andeq	r0, r1, r0, lsl #2
     c44:	00010100 	andeq	r0, r1, r0, lsl #2
     c48:	00000000 	andeq	r0, r0, r0
     c4c:	00000038 	andeq	r0, r0, r8, lsr r0
     c50:	54500001 	ldrbpl	r0, [r0], #-1
     c54:	54000000 	strpl	r0, [r0], #-0
     c58:	01000000 	mrseq	r0, (UNDEF: 0)
     c5c:	00545300 	subseq	r5, r4, r0, lsl #6
     c60:	005c0000 	subseq	r0, ip, r0
     c64:	00030000 	andeq	r0, r3, r0
     c68:	5c9f0173 	ldfpls	f0, [pc], {115}	; 0x73
     c6c:	64000000 	strvs	r0, [r0], #-0
     c70:	01000000 	mrseq	r0, (UNDEF: 0)
     c74:	00645200 	rsbeq	r5, r4, r0, lsl #4
     c78:	00680000 	rsbeq	r0, r8, r0
     c7c:	00030000 	andeq	r0, r3, r0
     c80:	689f0273 	ldmvs	pc, {r0, r1, r4, r5, r6, r9}	; <UNPREDICTABLE>
     c84:	74000000 	strvc	r0, [r0], #-0
     c88:	01000000 	mrseq	r0, (UNDEF: 0)
     c8c:	00745200 	rsbseq	r5, r4, r0, lsl #4
     c90:	00780000 	rsbseq	r0, r8, r0
     c94:	00030000 	andeq	r0, r3, r0
     c98:	009f0172 	addseq	r0, pc, r2, ror r1	; <UNPREDICTABLE>
	...
     ca4:	00000800 	andeq	r0, r0, r0, lsl #16
     ca8:	00007800 	andeq	r7, r0, r0, lsl #16
     cac:	54000100 	strpl	r0, [r0], #-256	; 0xffffff00
	...
     cbc:	002c0000 	eoreq	r0, ip, r0
     cc0:	00340000 	eorseq	r0, r4, r0
     cc4:	00010000 	andeq	r0, r1, r0
     cc8:	00003450 	andeq	r3, r0, r0, asr r4
     ccc:	00004800 	andeq	r4, r0, r0, lsl #16
     cd0:	54000100 	strpl	r0, [r0], #-256	; 0xffffff00
     cd4:	00000048 	andeq	r0, r0, r8, asr #32
     cd8:	00000058 	andeq	r0, r0, r8, asr r0
     cdc:	00500001 	subseq	r0, r0, r1
	...
     ce8:	01010000 	mrseq	r0, (UNDEF: 1)
     cec:	00000000 	andeq	r0, r0, r0
     cf0:	0c000000 	stceq	0, cr0, [r0], {-0}
     cf4:	01000000 	mrseq	r0, (UNDEF: 0)
     cf8:	000c5000 	andeq	r5, ip, r0
     cfc:	00200000 	eoreq	r0, r0, r0
     d00:	00010000 	andeq	r0, r1, r0
     d04:	00002054 	andeq	r2, r0, r4, asr r0
     d08:	00002400 	andeq	r2, r0, r0, lsl #8
     d0c:	74000300 	strvc	r0, [r0], #-768	; 0xfffffd00
     d10:	00249f01 	eoreq	r9, r4, r1, lsl #30
     d14:	00380000 	eorseq	r0, r8, r0
     d18:	00010000 	andeq	r0, r1, r0
     d1c:	00000054 	andeq	r0, r0, r4, asr r0
	...
     d2c:	88000000 	stmdahi	r0, {}	; <UNPREDICTABLE>
     d30:	94000003 	strls	r0, [r0], #-3
     d34:	01000003 	tsteq	r0, r3
     d38:	03945000 	orrseq	r5, r4, #0, 0
     d3c:	03d00000 	bicseq	r0, r0, #0, 0
     d40:	00010000 	andeq	r0, r1, r0
     d44:	0003d05b 	andeq	sp, r3, fp, asr r0
     d48:	00092000 	andeq	r2, r9, r0
     d4c:	f3000400 	vshl.u8	d0, d0, d0
     d50:	209f5001 	addscs	r5, pc, r1
     d54:	28000009 	stmdacs	r0, {r0, r3}
     d58:	01000009 	tsteq	r0, r9
     d5c:	09285b00 	stmdbeq	r8!, {r8, r9, fp, ip, lr}
     d60:	09b40000 	ldmibeq	r4!, {}	; <UNPREDICTABLE>
     d64:	00040000 	andeq	r0, r4, r0
     d68:	9f5001f3 	svcls	0x005001f3
	...
     d7c:	00000388 	andeq	r0, r0, r8, lsl #7
     d80:	000003d0 	ldrdeq	r0, [r0], -r0	; <UNPREDICTABLE>
     d84:	d0510001 	subsle	r0, r1, r1
     d88:	20000003 	andcs	r0, r0, r3
     d8c:	04000009 	streq	r0, [r0], #-9
     d90:	5101f300 	mrspl	pc, SP_irq	; <UNPREDICTABLE>
     d94:	0009209f 	muleq	r9, pc, r0	; <UNPREDICTABLE>
     d98:	00092800 	andeq	r2, r9, r0, lsl #16
     d9c:	51000100 	mrspl	r0, (UNDEF: 16)
     da0:	00000928 	andeq	r0, r0, r8, lsr #18
     da4:	000009b4 			; <UNDEFINED> instruction: 0x000009b4
     da8:	01f30004 	mvnseq	r0, r4
     dac:	00009f51 	andeq	r9, r0, r1, asr pc
	...
     dbc:	00000100 	andeq	r0, r0, r0, lsl #2
     dc0:	00000001 	andeq	r0, r0, r1
	...
     dcc:	03880000 	orreq	r0, r8, #0, 0
     dd0:	03d00000 	bicseq	r0, r0, #0, 0
     dd4:	00010000 	andeq	r0, r1, r0
     dd8:	0003d052 	andeq	sp, r3, r2, asr r0
     ddc:	00040000 	andeq	r0, r4, r0
     de0:	56000100 	strpl	r0, [r0], -r0, lsl #2
     de4:	00000414 	andeq	r0, r0, r4, lsl r4
     de8:	00000424 	andeq	r0, r0, r4, lsr #8
     dec:	24560001 	ldrbcs	r0, [r6], #-1
     df0:	28000004 	stmdacs	r0, {r2}
     df4:	03000004 	movweq	r0, #4
     df8:	9f7f7600 	svcls	0x007f7600
     dfc:	000004a8 	andeq	r0, r0, r8, lsr #9
     e00:	000004ac 	andeq	r0, r0, ip, lsr #9
     e04:	e0560001 	subs	r0, r6, r1
     e08:	04000004 	streq	r0, [r0], #-4
     e0c:	01000005 	tsteq	r0, r5
     e10:	057c5600 	ldrbeq	r5, [ip, #-1536]!	; 0xfffffa00
     e14:	05880000 	streq	r0, [r8]
     e18:	00010000 	andeq	r0, r1, r0
     e1c:	00058853 	andeq	r8, r5, r3, asr r8
     e20:	0005d000 	andeq	sp, r5, r0
     e24:	91000300 	mrsls	r0, LR_irq
     e28:	08007dcc 	stmdaeq	r0, {r2, r3, r6, r7, r8, sl, fp, ip, sp, lr}
     e2c:	080f0000 	stmdaeq	pc, {}	; <UNPREDICTABLE>
     e30:	00010000 	andeq	r0, r1, r0
     e34:	00080f53 	andeq	r0, r8, r3, asr pc
     e38:	00088800 	andeq	r8, r8, r0, lsl #16
     e3c:	91000300 	mrsls	r0, LR_irq
     e40:	09207dcc 	stmdbeq	r0!, {r2, r3, r6, r7, r8, sl, fp, ip, sp, lr}
     e44:	09280000 	stmdbeq	r8!, {}	; <UNPREDICTABLE>
     e48:	00010000 	andeq	r0, r1, r0
     e4c:	00094852 	andeq	r4, r9, r2, asr r8
     e50:	00096400 	andeq	r6, r9, r0, lsl #8
     e54:	91000300 	mrsls	r0, LR_irq
     e58:	00007dcc 	andeq	r7, r0, ip, asr #27
	...
     e68:	01000000 	mrseq	r0, (UNDEF: 0)
     e6c:	01000001 	tsteq	r0, r1
     e70:	00000001 	andeq	r0, r0, r1
     e74:	00020200 	andeq	r0, r2, r0, lsl #4
     e78:	00020200 	andeq	r0, r2, r0, lsl #4
     e7c:	00010100 	andeq	r0, r1, r0, lsl #2
     e80:	00020200 	andeq	r0, r2, r0, lsl #4
     e84:	00010100 	andeq	r0, r1, r0, lsl #2
	...
     e90:	00000388 	andeq	r0, r0, r8, lsl #7
     e94:	000003ac 	andeq	r0, r0, ip, lsr #7
     e98:	ac530001 	mrrcge	0, 0, r0, r3, cr1
     e9c:	c0000003 	andgt	r0, r0, r3
     ea0:	03000003 	movweq	r0, #3
     ea4:	04935300 	ldreq	r5, [r3], #768	; 0x300
     ea8:	000003d0 	ldrdeq	r0, [r0], -r0	; <UNPREDICTABLE>
     eac:	000003e8 	andeq	r0, r0, r8, ror #7
     eb0:	93580003 	cmpls	r8, #3, 0
     eb4:	0003e804 	andeq	lr, r3, r4, lsl #16
     eb8:	0004ac00 	andeq	sl, r4, r0, lsl #24
     ebc:	58000300 	stmdapl	r0, {r8, r9}
     ec0:	04c00493 	strbeq	r0, [r0], #1171	; 0x493
     ec4:	04c00000 	strbeq	r0, [r0], #0
     ec8:	00030000 	andeq	r0, r3, r0
     ecc:	c0049358 	andgt	r9, r4, r8, asr r3
     ed0:	cc000004 	stcgt	0, cr0, [r0], {4}
     ed4:	05000004 	streq	r0, [r0, #-4]
     ed8:	9f047800 	svcls	0x00047800
     edc:	04cc0493 	strbeq	r0, [ip], #1171	; 0x493
     ee0:	04e00000 	strbteq	r0, [r0], #0
     ee4:	00030000 	andeq	r0, r3, r0
     ee8:	e0049358 	and	r9, r4, r8, asr r3
     eec:	38000004 	stmdacc	r0, {r2}
     ef0:	03000005 	movweq	r0, #5
     ef4:	04935800 	ldreq	r5, [r3], #2048	; 0x800
     ef8:	00000538 	andeq	r0, r0, r8, lsr r5
     efc:	0000053c 	andeq	r0, r0, ip, lsr r5
     f00:	79780005 	ldmdbvc	r8!, {r0, r2}^
     f04:	d004939f 	mulle	r4, pc, r3	; <UNPREDICTABLE>
     f08:	d0000005 	andle	r0, r0, r5
     f0c:	03000005 	movweq	r0, #5
     f10:	04935800 	ldreq	r5, [r3], #2048	; 0x800
     f14:	000005d0 	ldrdeq	r0, [r0], -r0	; <UNPREDICTABLE>
     f18:	000005d4 	ldrdeq	r0, [r0], -r4
     f1c:	04780005 	ldrbteq	r0, [r8], #-5
     f20:	f404939f 	vst2.32	{d9-d12}, [r4 :64]
     f24:	f4000005 	vst4.8	{d0-d3}, [r0], r5
     f28:	03000005 	movweq	r0, #5
     f2c:	04935800 	ldreq	r5, [r3], #2048	; 0x800
     f30:	000005f4 	strdeq	r0, [r0], -r4
     f34:	000005fc 	strdeq	r0, [r0], -ip
     f38:	04780005 	ldrbteq	r0, [r8], #-5
     f3c:	fc04939f 	stc2	3, cr9, [r4], {159}	; 0x9f
     f40:	fc000005 	stc2	0, cr0, [r0], {5}
     f44:	03000005 	movweq	r0, #5
     f48:	04935800 	ldreq	r5, [r3], #2048	; 0x800
     f4c:	000005fc 	strdeq	r0, [r0], -ip
     f50:	00000600 	andeq	r0, r0, r0, lsl #12
     f54:	04780005 	ldrbteq	r0, [r8], #-5
     f58:	0004939f 	muleq	r4, pc, r3	; <UNPREDICTABLE>
     f5c:	00000006 	andeq	r0, r0, r6
     f60:	03000007 	movweq	r0, #7
     f64:	04935800 	ldreq	r5, [r3], #2048	; 0x800
     f68:	00000700 	andeq	r0, r0, r0, lsl #14
     f6c:	0000070c 	andeq	r0, r0, ip, lsl #14
     f70:	04780005 	ldrbteq	r0, [r8], #-5
     f74:	0c04939f 	stceq	3, cr9, [r4], {159}	; 0x9f
     f78:	f8000007 			; <UNDEFINED> instruction: 0xf8000007
     f7c:	03000007 	movweq	r0, #7
     f80:	04935800 	ldreq	r5, [r3], #2048	; 0x800
     f84:	000007f8 	strdeq	r0, [r0], -r8
     f88:	000007fc 	strdeq	r0, [r0], -ip
     f8c:	04780005 	ldrbteq	r0, [r8], #-5
     f90:	fc04939f 	stc2	3, cr9, [r4], {159}	; 0x9f
     f94:	00000007 	andeq	r0, r0, r7
     f98:	03000008 	movweq	r0, #8
     f9c:	04935800 	ldreq	r5, [r3], #2048	; 0x800
     fa0:	00000888 	andeq	r0, r0, r8, lsl #17
     fa4:	00000920 	andeq	r0, r0, r0, lsr #18
     fa8:	93580003 	cmpls	r8, #3, 0
     fac:	00092004 	andeq	r2, r9, r4
     fb0:	00092800 	andeq	r2, r9, r0, lsl #16
     fb4:	53000100 	movwpl	r0, #256	; 0x100
     fb8:	00000964 	andeq	r0, r0, r4, ror #18
     fbc:	000009b4 			; <UNDEFINED> instruction: 0x000009b4
     fc0:	93580003 	cmpls	r8, #3, 0
     fc4:	00000004 	andeq	r0, r0, r4
     fc8:	00000000 	andeq	r0, r0, r0
     fcc:	00000100 	andeq	r0, r0, r0, lsl #2
     fd0:	00000000 	andeq	r0, r0, r0
     fd4:	02020000 	andeq	r0, r2, #0, 0
     fd8:	01000000 	mrseq	r0, (UNDEF: 0)
     fdc:	00000101 	andeq	r0, r0, r1, lsl #2
     fe0:	ac000000 	stcge	0, cr0, [r0], {-0}
     fe4:	d0000003 	andle	r0, r0, r3
     fe8:	01000003 	tsteq	r0, r3
     fec:	03d05b00 	bicseq	r5, r0, #0, 22
     ff0:	03d40000 	bicseq	r0, r4, #0, 0
     ff4:	00010000 	andeq	r0, r1, r0
     ff8:	0003d454 	andeq	sp, r3, r4, asr r4
     ffc:	0003d800 	andeq	sp, r3, r0, lsl #16
    1000:	74000300 	strvc	r0, [r0], #-768	; 0xfffffd00
    1004:	03d89f7f 	bicseq	r9, r8, #508	; 0x1fc
    1008:	03fc0000 	mvnseq	r0, #0, 0
    100c:	00010000 	andeq	r0, r1, r0
    1010:	0004a854 	andeq	sl, r4, r4, asr r8
    1014:	0004ac00 	andeq	sl, r4, r0, lsl #24
    1018:	54000100 	strpl	r0, [r0], #-256	; 0xffffff00
    101c:	000004ac 	andeq	r0, r0, ip, lsr #9
    1020:	000004b4 			; <UNDEFINED> instruction: 0x000004b4
    1024:	01740003 	cmneq	r4, r3
    1028:	0004b49f 	muleq	r4, pc, r4	; <UNPREDICTABLE>
    102c:	0004c000 	andeq	ip, r4, r0
    1030:	54000100 	strpl	r0, [r0], #-256	; 0xffffff00
    1034:	000004e4 	andeq	r0, r0, r4, ror #9
    1038:	000004f4 	strdeq	r0, [r0], -r4
    103c:	f4540001 			; <UNDEFINED> instruction: 0xf4540001
    1040:	f8000004 			; <UNDEFINED> instruction: 0xf8000004
    1044:	03000004 	movweq	r0, #4
    1048:	9f017400 	svcls	0x00017400
    104c:	000004f8 	strdeq	r0, [r0], -r8
    1050:	00000504 	andeq	r0, r0, r4, lsl #10
    1054:	20540001 	subscs	r0, r4, r1
    1058:	28000009 	stmdacs	r0, {r0, r3}
    105c:	01000009 	tsteq	r0, r9
    1060:	00005b00 	andeq	r5, r0, r0, lsl #22
    1064:	00000000 	andeq	r0, r0, r0
    1068:	00010000 	andeq	r0, r1, r0
    106c:	000003ac 	andeq	r0, r0, ip, lsr #7
    1070:	000009b4 			; <UNDEFINED> instruction: 0x000009b4
    1074:	00570001 	subseq	r0, r7, r1
    1078:	00000000 	andeq	r0, r0, r0
    107c:	02000000 	andeq	r0, r0, #0, 0
    1080:	00000000 	andeq	r0, r0, r0
    1084:	00057c00 	andeq	r7, r5, r0, lsl #24
    1088:	0005d000 	andeq	sp, r5, r0
    108c:	5b000100 	blpl	1494 <__code_start__-0x6b6c>
    1090:	00000800 	andeq	r0, r0, r0, lsl #16
    1094:	00000888 	andeq	r0, r0, r8, lsl #17
    1098:	485b0001 	ldmdami	fp, {r0}^
    109c:	64000009 	strvs	r0, [r0], #-9
    10a0:	01000009 	tsteq	r0, r9
    10a4:	00005b00 	andeq	r5, r0, r0, lsl #22
    10a8:	00000000 	andeq	r0, r0, r0
    10ac:	00030000 	andeq	r0, r3, r0
    10b0:	00000000 	andeq	r0, r0, r0
    10b4:	0000057c 	andeq	r0, r0, ip, ror r5
    10b8:	000005d0 	ldrdeq	r0, [r0], -r0	; <UNPREDICTABLE>
    10bc:	00590001 	subseq	r0, r9, r1
    10c0:	88000008 	stmdahi	r0, {r3}
    10c4:	01000008 	tsteq	r0, r8
    10c8:	09485900 	stmdbeq	r8, {r8, fp, ip, lr}^
    10cc:	09640000 	stmdbeq	r4!, {}^	; <UNPREDICTABLE>
    10d0:	00010000 	andeq	r0, r1, r0
    10d4:	00000059 	andeq	r0, r0, r9, asr r0
    10d8:	00000000 	andeq	r0, r0, r0
    10dc:	00000400 	andeq	r0, r0, r0, lsl #8
    10e0:	00000000 	andeq	r0, r0, r0
    10e4:	0003ac00 	andeq	sl, r3, r0, lsl #24
    10e8:	0003d000 	andeq	sp, r3, r0
    10ec:	52000100 	andpl	r0, r0, #0
    10f0:	000003d0 	ldrdeq	r0, [r0], -r0	; <UNPREDICTABLE>
    10f4:	00000920 	andeq	r0, r0, r0, lsr #18
    10f8:	01f30004 	mvnseq	r0, r4
    10fc:	09209f52 	stmdbeq	r0!, {r1, r4, r6, r8, r9, sl, fp, ip, pc}
    1100:	09280000 	stmdbeq	r8!, {}	; <UNPREDICTABLE>
    1104:	00010000 	andeq	r0, r1, r0
    1108:	00092852 	andeq	r2, r9, r2, asr r8
    110c:	0009b400 	andeq	fp, r9, r0, lsl #8
    1110:	f3000400 	vshl.u8	d0, d0, d0
    1114:	009f5201 	addseq	r5, pc, r1, lsl #4
	...
    1120:	00000101 	andeq	r0, r0, r1, lsl #2
    1124:	01000000 	mrseq	r0, (UNDEF: 0)
    1128:	e0000000 	and	r0, r0, r0
    112c:	e0000004 	and	r0, r0, r4
    1130:	01000004 	tsteq	r0, r4
    1134:	04e05000 	strbteq	r5, [r0], #0
    1138:	04e80000 	strbteq	r0, [r8], #0
    113c:	00010000 	andeq	r0, r1, r0
    1140:	0005b855 	andeq	fp, r5, r5, asr r8
    1144:	0005d000 	andeq	sp, r5, r0
    1148:	55000100 	strpl	r0, [r0, #-256]	; 0xffffff00
    114c:	000005f0 	strdeq	r0, [r0], -r0	; <UNPREDICTABLE>
    1150:	000005f4 	strdeq	r0, [r0], -r4
    1154:	f4500001 			; <UNDEFINED> instruction: 0xf4500001
    1158:	f8000007 			; <UNDEFINED> instruction: 0xf8000007
    115c:	01000007 	tsteq	r0, r7
    1160:	08505500 	ldmdaeq	r0, {r8, sl, ip, lr}^
    1164:	08880000 	stmeq	r8, {}	; <UNPREDICTABLE>
    1168:	00010000 	andeq	r0, r1, r0
    116c:	00000055 	andeq	r0, r0, r5, asr r0
    1170:	00000000 	andeq	r0, r0, r0
    1174:	00000200 	andeq	r0, r0, r0, lsl #4
    1178:	00000000 	andeq	r0, r0, r0
    117c:	00041400 	andeq	r1, r4, r0, lsl #8
    1180:	00041800 	andeq	r1, r4, r0, lsl #16
    1184:	30000200 	andcc	r0, r0, r0, lsl #4
    1188:	0004189f 	muleq	r4, pc, r8	; <UNPREDICTABLE>
    118c:	00041c00 	andeq	r1, r4, r0, lsl #24
    1190:	55000100 	strpl	r0, [r0, #-256]	; 0xffffff00
    1194:	00000428 	andeq	r0, r0, r8, lsr #8
    1198:	0000043c 	andeq	r0, r0, ip, lsr r4
    119c:	28550001 	ldmdacs	r5, {r0}^
    11a0:	30000009 	andcc	r0, r0, r9
    11a4:	01000009 	tsteq	r0, r9
    11a8:	00005500 	andeq	r5, r0, r0, lsl #10
    11ac:	00000000 	andeq	r0, r0, r0
    11b0:	00010000 	andeq	r0, r1, r0
	...
    11bc:	05040000 	streq	r0, [r4, #-0]
    11c0:	05840000 	streq	r0, [r4]
    11c4:	00010000 	andeq	r0, r1, r0
    11c8:	00058456 	andeq	r8, r5, r6, asr r4
    11cc:	00058800 	andeq	r8, r5, r0, lsl #16
    11d0:	73000300 	movwvc	r0, #768	; 0x300
    11d4:	05889f7e 	streq	r9, [r8, #3966]	; 0xf7e
    11d8:	05d00000 	ldrbeq	r0, [r0]
    11dc:	00070000 	andeq	r0, r7, r0
    11e0:	067dcc91 			; <UNDEFINED> instruction: 0x067dcc91
    11e4:	009f1c32 	addseq	r1, pc, r2, lsr ip	; <UNPREDICTABLE>
    11e8:	1c000008 	stcne	0, cr0, [r0], {8}
    11ec:	01000008 	tsteq	r0, r8
    11f0:	081c5600 	ldmdaeq	ip, {r9, sl, ip, lr}
    11f4:	08880000 	stmeq	r8, {}	; <UNPREDICTABLE>
    11f8:	00070000 	andeq	r0, r7, r0
    11fc:	067dcc91 			; <UNDEFINED> instruction: 0x067dcc91
    1200:	489f1c32 	ldmmi	pc, {r1, r4, r5, sl, fp, ip}	; <UNPREDICTABLE>
    1204:	b4000009 	strlt	r0, [r0], #-9
    1208:	01000009 	tsteq	r0, r9
    120c:	00005600 	andeq	r5, r0, r0, lsl #12
    1210:	00000000 	andeq	r0, r0, r0
    1214:	06040000 	streq	r0, [r4], -r0
    1218:	04140402 	ldreq	r0, [r4], #-1026	; 0xfffffbfe
    121c:	04140000 	ldreq	r0, [r4], #-0
    1220:	00060000 	andeq	r0, r6, r0
    1224:	ff080072 			; <UNDEFINED> instruction: 0xff080072
    1228:	04289f1a 	strteq	r9, [r8], #-3866	; 0xfffff0e6
    122c:	04280000 	strteq	r0, [r8], #-0
    1230:	00060000 	andeq	r0, r6, r0
    1234:	ff080072 			; <UNDEFINED> instruction: 0xff080072
    1238:	00009f1a 	andeq	r9, r0, sl, lsl pc
    123c:	00000000 	andeq	r0, r0, r0
    1240:	00020000 	andeq	r0, r2, r0
    1244:	00000000 	andeq	r0, r0, r0
    1248:	000005fc 	strdeq	r0, [r0], -ip
    124c:	00000700 	andeq	r0, r0, r0, lsl #14
    1250:	80080003 	andhi	r0, r8, r3
    1254:	0008a89f 	muleq	r8, pc, r8	; <UNPREDICTABLE>
    1258:	0008bc00 	andeq	fp, r8, r0, lsl #24
    125c:	08000300 	stmdaeq	r0, {r8, r9}
    1260:	09109f80 	ldmdbeq	r0, {r7, r8, r9, sl, fp, ip, pc}
    1264:	09200000 	stmdbeq	r0!, {}	; <UNPREDICTABLE>
    1268:	00030000 	andeq	r0, r3, r0
    126c:	009f8008 	addseq	r8, pc, r8
    1270:	00000000 	andeq	r0, r0, r0
    1274:	01000000 	mrseq	r0, (UNDEF: 0)
    1278:	00000000 	andeq	r0, r0, r0
    127c:	0005fc00 	andeq	pc, r5, r0, lsl #24
    1280:	00070000 	andeq	r0, r7, r0
    1284:	30000200 	andcc	r0, r0, r0, lsl #4
    1288:	0008a89f 	muleq	r8, pc, r8	; <UNPREDICTABLE>
    128c:	0008bc00 	andeq	fp, r8, r0, lsl #24
    1290:	30000200 	andcc	r0, r0, r0, lsl #4
    1294:	0009109f 	muleq	r9, pc, r0	; <UNPREDICTABLE>
    1298:	00092000 	andeq	r2, r9, r0
    129c:	30000200 	andcc	r0, r0, r0, lsl #4
    12a0:	0000009f 	muleq	r0, pc, r0	; <UNPREDICTABLE>
    12a4:	00000000 	andeq	r0, r0, r0
    12a8:	00000100 	andeq	r0, r0, r0, lsl #2
    12ac:	fc000000 	stc2	0, cr0, [r0], {-0}
    12b0:	e0000005 	and	r0, r0, r5
    12b4:	01000006 	tsteq	r0, r6
    12b8:	08a85500 	stmiaeq	r8!, {r8, sl, ip, lr}
    12bc:	08bc0000 	ldmeq	ip!, {}	; <UNPREDICTABLE>
    12c0:	00010000 	andeq	r0, r1, r0
    12c4:	00091055 	andeq	r1, r9, r5, asr r0
    12c8:	00092000 	andeq	r2, r9, r0
    12cc:	55000100 	strpl	r0, [r0, #-256]	; 0xffffff00
	...
    12d8:	00000001 	andeq	r0, r0, r1
    12dc:	00000000 	andeq	r0, r0, r0
    12e0:	000005fc 	strdeq	r0, [r0], -ip
    12e4:	000006e0 	andeq	r0, r0, r0, ror #13
    12e8:	d0910004 	addsle	r0, r1, r4
    12ec:	06e09f7d 			; <UNDEFINED> instruction: 0x06e09f7d
    12f0:	07000000 	streq	r0, [r0, -r0]
    12f4:	00010000 	andeq	r0, r1, r0
    12f8:	0008a855 	andeq	sl, r8, r5, asr r8
    12fc:	0008bc00 	andeq	fp, r8, r0, lsl #24
    1300:	91000400 	tstls	r0, r0, lsl #8
    1304:	109f7dd0 			; <UNDEFINED> instruction: 0x109f7dd0
    1308:	20000009 	andcs	r0, r0, r9
    130c:	04000009 	streq	r0, [r0], #-9
    1310:	7dd09100 	ldfvcp	f1, [r0]
    1314:	0000009f 	muleq	r0, pc, r0	; <UNPREDICTABLE>
    1318:	00000000 	andeq	r0, r0, r0
    131c:	00000100 	andeq	r0, r0, r0, lsl #2
    1320:	fc000000 	stc2	0, cr0, [r0], {-0}
    1324:	00000005 	andeq	r0, r0, r5
    1328:	02000007 	andeq	r0, r0, #7, 0
    132c:	a89f3800 	ldmge	pc, {fp, ip, sp}	; <UNPREDICTABLE>
    1330:	bc000008 	stclt	0, cr0, [r0], {8}
    1334:	02000008 	andeq	r0, r0, #8, 0
    1338:	109f3800 	addsne	r3, pc, r0, lsl #16
    133c:	20000009 	andcs	r0, r0, r9
    1340:	02000009 	andeq	r0, r0, #9, 0
    1344:	009f3800 	addseq	r3, pc, r0, lsl #16
    1348:	00000000 	andeq	r0, r0, r0
    134c:	04000000 	streq	r0, [r0], #-0
    1350:	00000707 	andeq	r0, r0, r7, lsl #14
	...
    135c:	0005fc00 	andeq	pc, r5, r0, lsl #24
    1360:	0005fc00 	andeq	pc, r5, r0, lsl #24
    1364:	91000400 	tstls	r0, r0, lsl #8
    1368:	fc9f7ed0 	ldc2	14, cr7, [pc], {208}	; 0xd0
    136c:	78000005 	stmdavc	r0, {r0, r2}
    1370:	04000006 	streq	r0, [r0], #-6
    1374:	7ed19100 	atnvcs	f1, f0
    1378:	0006789f 	muleq	r6, pc, r8	; <UNPREDICTABLE>
    137c:	0006d400 	andeq	sp, r6, r0, lsl #8
    1380:	5c000100 	stfpls	f0, [r0], {-0}
    1384:	000006d4 	ldrdeq	r0, [r0], -r4
    1388:	00000700 	andeq	r0, r0, r0, lsl #14
    138c:	d1910004 	orrsle	r0, r1, r4
    1390:	08a89f7e 	stmiaeq	r8!, {r1, r2, r3, r4, r5, r6, r8, r9, sl, fp, ip, pc}
    1394:	08bc0000 	ldmeq	ip!, {}	; <UNPREDICTABLE>
    1398:	00040000 	andeq	r0, r4, r0
    139c:	9f7ed191 	svcls	0x007ed191
    13a0:	00000910 	andeq	r0, r0, r0, lsl r9
    13a4:	00000914 	andeq	r0, r0, r4, lsl r9
    13a8:	d1910004 	orrsle	r0, r1, r4
    13ac:	09149f7e 	ldmdbeq	r4, {r1, r2, r3, r4, r5, r6, r8, r9, sl, fp, ip, pc}
    13b0:	09200000 	stmdbeq	r0!, {}	; <UNPREDICTABLE>
    13b4:	00010000 	andeq	r0, r1, r0
    13b8:	0000005c 	andeq	r0, r0, ip, asr r0
    13bc:	00000000 	andeq	r0, r0, r0
    13c0:	00010400 	andeq	r0, r1, r0, lsl #8
    13c4:	08000001 	stmdaeq	r0, {r0}
    13c8:	d0000006 	andle	r0, r0, r6
    13cc:	01000006 	tsteq	r0, r6
    13d0:	08a85500 	stmiaeq	r8!, {r8, sl, ip, lr}
    13d4:	08b80000 	ldmeq	r8!, {}	; <UNPREDICTABLE>
    13d8:	00010000 	andeq	r0, r1, r0
    13dc:	00091055 	andeq	r1, r9, r5, asr r0
    13e0:	00092000 	andeq	r2, r9, r0
    13e4:	55000100 	strpl	r0, [r0, #-256]	; 0xffffff00
	...
    13f0:	00000004 	andeq	r0, r0, r4
    13f4:	00000100 	andeq	r0, r0, r0, lsl #2
    13f8:	00000100 	andeq	r0, r0, r0, lsl #2
    13fc:	00000608 	andeq	r0, r0, r8, lsl #12
    1400:	000006b0 			; <UNDEFINED> instruction: 0x000006b0
    1404:	d0910004 	addsle	r0, r1, r4
    1408:	06b09f7e 			; <UNDEFINED> instruction: 0x06b09f7e
    140c:	06c80000 	strbeq	r0, [r8], r0
    1410:	00010000 	andeq	r0, r1, r0
    1414:	0006c850 	andeq	ip, r6, r0, asr r8
    1418:	0006d000 	andeq	sp, r6, r0
    141c:	91000400 	tstls	r0, r0, lsl #8
    1420:	a89f7ed0 	ldmge	pc, {r4, r6, r7, r9, sl, fp, ip, sp, lr}	; <UNPREDICTABLE>
    1424:	b0000008 	andlt	r0, r0, r8
    1428:	04000008 	streq	r0, [r0], #-8
    142c:	7ed09100 	atnvcs	f1, f0
    1430:	0008b09f 	muleq	r8, pc, r0	; <UNPREDICTABLE>
    1434:	0008b800 	andeq	fp, r8, r0, lsl #16
    1438:	53000100 	movwpl	r0, #256	; 0x100
    143c:	00000910 	andeq	r0, r0, r0, lsl r9
    1440:	00000920 	andeq	r0, r0, r0, lsr #18
    1444:	d0910004 	addsle	r0, r1, r4
    1448:	00009f7e 	andeq	r9, r0, lr, ror pc
    144c:	00000000 	andeq	r0, r0, r0
    1450:	00040000 	andeq	r0, r4, r0
    1454:	01010100 	mrseq	r0, (UNDEF: 17)
    1458:	02030301 	andeq	r0, r3, #67108864	; 0x4000000
    145c:	00000100 	andeq	r0, r0, r0, lsl #2
    1460:	06080000 	streq	r0, [r8], -r0
    1464:	06240000 	strteq	r0, [r4], -r0
    1468:	00040000 	andeq	r0, r4, r0
    146c:	9f7ed191 	svcls	0x007ed191
    1470:	00000684 	andeq	r0, r0, r4, lsl #13
    1474:	00000684 	andeq	r0, r0, r4, lsl #13
    1478:	84500001 	ldrbhi	r0, [r0], #-1
    147c:	98000006 	stmdals	r0, {r1, r2}
    1480:	03000006 	movweq	r0, #6
    1484:	9f017000 	svcls	0x00017000
    1488:	00000698 	muleq	r0, r8, r6
    148c:	000006a4 	andeq	r0, r0, r4, lsr #13
    1490:	02700003 	rsbseq	r0, r0, #3, 0
    1494:	0006a49f 	muleq	r6, pc, r4	; <UNPREDICTABLE>
    1498:	0006a800 	andeq	sl, r6, r0, lsl #16
    149c:	70000300 	andvc	r0, r0, r0, lsl #6
    14a0:	08a89f03 	stmiaeq	r8!, {r0, r1, r8, r9, sl, fp, ip, pc}
    14a4:	08b80000 	ldmeq	r8!, {}	; <UNPREDICTABLE>
    14a8:	00040000 	andeq	r0, r4, r0
    14ac:	9f7ed191 	svcls	0x007ed191
    14b0:	00000910 	andeq	r0, r0, r0, lsl r9
    14b4:	00000914 	andeq	r0, r0, r4, lsl r9
    14b8:	d1910004 	orrsle	r0, r1, r4
    14bc:	09149f7e 	ldmdbeq	r4, {r1, r2, r3, r4, r5, r6, r8, r9, sl, fp, ip, pc}
    14c0:	09200000 	stmdbeq	r0!, {}	; <UNPREDICTABLE>
    14c4:	00010000 	andeq	r0, r1, r0
    14c8:	0000005c 	andeq	r0, r0, ip, asr r0
    14cc:	00000000 	andeq	r0, r0, r0
    14d0:	00000600 	andeq	r0, r0, r0, lsl #12
    14d4:	01010101 	tsteq	r1, r1, lsl #2
    14d8:	00020101 	andeq	r0, r2, r1, lsl #2
    14dc:	08000001 	stmdaeq	r0, {r0}
    14e0:	24000006 	strcs	r0, [r0], #-6
    14e4:	02000006 	andeq	r0, r0, #6, 0
    14e8:	849f3100 	ldrhi	r3, [pc], #256	; 14f0 <__code_start__-0x6b10>
    14ec:	94000006 	strls	r0, [r0], #-6
    14f0:	01000006 	tsteq	r0, r6
    14f4:	06945200 	ldreq	r5, [r4], r0, lsl #4
    14f8:	06a40000 	strteq	r0, [r4], r0
    14fc:	00010000 	andeq	r0, r1, r0
    1500:	0006a459 	andeq	sl, r6, r9, asr r4
    1504:	0006a800 	andeq	sl, r6, r0, lsl #16
    1508:	52000100 	andpl	r0, r0, #0
    150c:	000006a8 	andeq	r0, r0, r8, lsr #13
    1510:	000006a8 	andeq	r0, r0, r8, lsr #13
    1514:	01720003 	cmneq	r2, r3
    1518:	0008a89f 	muleq	r8, pc, r8	; <UNPREDICTABLE>
    151c:	0008b800 	andeq	fp, r8, r0, lsl #16
    1520:	31000200 	mrscc	r0, R8_usr
    1524:	0009109f 	muleq	r9, pc, r0	; <UNPREDICTABLE>
    1528:	00092000 	andeq	r2, r9, r0
    152c:	31000200 	mrscc	r0, R8_usr
    1530:	0000009f 	muleq	r0, pc, r0	; <UNPREDICTABLE>
    1534:	00000000 	andeq	r0, r0, r0
    1538:	06060100 	streq	r0, [r6], -r0, lsl #2
    153c:	d0000100 	andle	r0, r0, r0, lsl #2
    1540:	d0000006 	andle	r0, r0, r6
    1544:	04000006 	streq	r0, [r0], #-6
    1548:	7ed09100 	atnvcs	f1, f0
    154c:	0006d09f 	muleq	r6, pc, r0	; <UNPREDICTABLE>
    1550:	00070000 	andeq	r0, r7, r0
    1554:	50000100 	andpl	r0, r0, r0, lsl #2
    1558:	000008b8 			; <UNDEFINED> instruction: 0x000008b8
    155c:	000008bc 			; <UNDEFINED> instruction: 0x000008bc
    1560:	00530001 	subseq	r0, r3, r1
    1564:	00000000 	andeq	r0, r0, r0
    1568:	01000000 	mrseq	r0, (UNDEF: 0)
    156c:	00000008 	andeq	r0, r0, r8
    1570:	01000101 	tsteq	r0, r1, lsl #2
    1574:	0006d007 	andeq	sp, r6, r7
    1578:	0006d000 	andeq	sp, r6, r0
    157c:	7c000600 	stcvc	6, cr0, [r0], {-0}
    1580:	22007100 	andcs	r7, r0, #0
    1584:	0006e49f 	muleq	r6, pc, r4	; <UNPREDICTABLE>
    1588:	0006e800 	andeq	lr, r6, r0, lsl #16
    158c:	73000300 	movwvc	r0, #768	; 0x300
    1590:	06e89f7f 			; <UNDEFINED> instruction: 0x06e89f7f
    1594:	06f00000 	ldrbteq	r0, [r0], r0
    1598:	00010000 	andeq	r0, r1, r0
    159c:	0006f053 	andeq	pc, r6, r3, asr r0	; <UNPREDICTABLE>
    15a0:	0006f800 	andeq	pc, r6, r0, lsl #16
    15a4:	73000300 	movwvc	r0, #768	; 0x300
    15a8:	08b89f7f 	ldmeq	r8!, {r0, r1, r2, r3, r4, r5, r6, r8, r9, sl, fp, ip, pc}
    15ac:	08b80000 	ldmeq	r8!, {}	; <UNPREDICTABLE>
    15b0:	00040000 	andeq	r0, r4, r0
    15b4:	9f7ed191 	svcls	0x007ed191
	...
    15c0:	00010001 	andeq	r0, r1, r1
    15c4:	000006d0 	ldrdeq	r0, [r0], -r0	; <UNPREDICTABLE>
    15c8:	00000700 	andeq	r0, r0, r0, lsl #14
    15cc:	80080003 	andhi	r0, r8, r3
    15d0:	0008b89f 	muleq	r8, pc, r8	; <UNPREDICTABLE>
    15d4:	0008bc00 	andeq	fp, r8, r0, lsl #24
    15d8:	08000300 	stmdaeq	r0, {r8, r9}
    15dc:	00009f80 	andeq	r9, r0, r0, lsl #31
    15e0:	00000000 	andeq	r0, r0, r0
    15e4:	00010000 	andeq	r0, r1, r0
    15e8:	01000000 	mrseq	r0, (UNDEF: 0)
    15ec:	00000001 	andeq	r0, r0, r1
    15f0:	00010102 	andeq	r0, r1, r2, lsl #2
    15f4:	000006d0 	ldrdeq	r0, [r0], -r0	; <UNPREDICTABLE>
    15f8:	000006e0 	andeq	r0, r0, r0, ror #13
    15fc:	d0910004 	addsle	r0, r1, r4
    1600:	06e09f7d 			; <UNDEFINED> instruction: 0x06e09f7d
    1604:	06e40000 	strbteq	r0, [r4], r0
    1608:	00010000 	andeq	r0, r1, r0
    160c:	0006e455 	andeq	lr, r6, r5, asr r4
    1610:	0006e400 	andeq	lr, r6, r0, lsl #8
    1614:	72000300 	andvc	r0, r0, #0, 6
    1618:	06e49f01 	strbteq	r9, [r4], r1, lsl #30
    161c:	06f00000 	ldrbteq	r0, [r0], r0
    1620:	00030000 	andeq	r0, r3, r0
    1624:	f09f0272 			; <UNDEFINED> instruction: 0xf09f0272
    1628:	00000006 	andeq	r0, r0, r6
    162c:	03000007 	movweq	r0, #7
    1630:	9f017200 	svcls	0x00017200
    1634:	000007ec 	andeq	r0, r0, ip, ror #15
    1638:	000007f4 	strdeq	r0, [r0], -r4
    163c:	01730003 	cmneq	r3, r3
    1640:	0008b89f 	muleq	r8, pc, r8	; <UNPREDICTABLE>
    1644:	0008bc00 	andeq	fp, r8, r0, lsl #24
    1648:	91000400 	tstls	r0, r0, lsl #8
    164c:	009f7dd0 			; <UNDEFINED> instruction: 0x009f7dd0
    1650:	00000000 	andeq	r0, r0, r0
    1654:	04000000 	streq	r0, [r0], #-0
    1658:	0008b800 	andeq	fp, r8, r0, lsl #16
    165c:	0008bc00 	andeq	fp, r8, r0, lsl #24
    1660:	32000200 	andcc	r0, r0, #0, 4
    1664:	0000009f 	muleq	r0, pc, r0	; <UNPREDICTABLE>
    1668:	00000000 	andeq	r0, r0, r0
    166c:	00000700 	andeq	r0, r0, r0, lsl #14
    1670:	d0000600 	andle	r0, r0, r0, lsl #12
    1674:	e0000006 	and	r0, r0, r6
    1678:	04000006 	streq	r0, [r0], #-6
    167c:	7dd09100 	ldfvcp	f1, [r0]
    1680:	0006e09f 	muleq	r6, pc, r0	; <UNPREDICTABLE>
    1684:	00070000 	andeq	r0, r7, r0
    1688:	55000100 	strpl	r0, [r0, #-256]	; 0xffffff00
    168c:	000008b8 			; <UNDEFINED> instruction: 0x000008b8
    1690:	000008bc 			; <UNDEFINED> instruction: 0x000008bc
    1694:	d0910004 	addsle	r0, r1, r4
    1698:	00009f7d 	andeq	r9, r0, sp, ror pc
    169c:	00000000 	andeq	r0, r0, r0
    16a0:	00010000 	andeq	r0, r1, r0
    16a4:	070c0000 	streq	r0, [ip, -r0]
    16a8:	07ec0000 	strbeq	r0, [ip, r0]!
    16ac:	00030000 	andeq	r0, r3, r0
    16b0:	949f8008 	ldrls	r8, [pc], #8	; 16b8 <__code_start__-0x6948>
    16b4:	a8000008 	stmdage	r0, {r3}
    16b8:	03000008 	movweq	r0, #8
    16bc:	9f800800 	svcls	0x00800800
	...
    16cc:	0000070c 	andeq	r0, r0, ip, lsl #14
    16d0:	000007ec 	andeq	r0, r0, ip, ror #15
    16d4:	9f300002 	svcls	0x00300002
    16d8:	00000894 	muleq	r0, r4, r8
    16dc:	000008a8 	andeq	r0, r0, r8, lsr #17
    16e0:	9f300002 	svcls	0x00300002
	...
    16f0:	0000070c 	andeq	r0, r0, ip, lsl #14
    16f4:	000007d0 	ldrdeq	r0, [r0], -r0	; <UNPREDICTABLE>
    16f8:	94550001 	ldrbls	r0, [r5], #-1
    16fc:	a8000008 	stmdage	r0, {r3}
    1700:	01000008 	tsteq	r0, r8
    1704:	00005500 	andeq	r5, r0, r0, lsl #10
	...
    1714:	0000070c 	andeq	r0, r0, ip, lsl #14
    1718:	000007d0 	ldrdeq	r0, [r0], -r0	; <UNPREDICTABLE>
    171c:	d0910004 	addsle	r0, r1, r4
    1720:	07d09f7d 			; <UNDEFINED> instruction: 0x07d09f7d
    1724:	07ec0000 	strbeq	r0, [ip, r0]!
    1728:	00010000 	andeq	r0, r1, r0
    172c:	00089455 	andeq	r9, r8, r5, asr r4
    1730:	0008a800 	andeq	sl, r8, r0, lsl #16
    1734:	91000400 	tstls	r0, r0, lsl #8
    1738:	009f7dd0 			; <UNDEFINED> instruction: 0x009f7dd0
	...
    1744:	0c000000 	stceq	0, cr0, [r0], {-0}
    1748:	ec000007 	stc	0, cr0, [r0], {7}
    174c:	02000007 	andeq	r0, r0, #7, 0
    1750:	949f3200 	ldrls	r3, [pc], #512	; 1758 <__code_start__-0x68a8>
    1754:	a8000008 	stmdage	r0, {r3}
    1758:	02000008 	andeq	r0, r0, #8, 0
    175c:	009f3200 	addseq	r3, pc, r0, lsl #4
    1760:	00000000 	andeq	r0, r0, r0
    1764:	03000000 	movweq	r0, #0
    1768:	00000505 	andeq	r0, r0, r5, lsl #10
    176c:	00000000 	andeq	r0, r0, r0
    1770:	00070c00 	andeq	r0, r7, r0, lsl #24
    1774:	00070c00 	andeq	r0, r7, r0, lsl #24
    1778:	51000100 	mrspl	r0, (UNDEF: 16)
    177c:	0000070c 	andeq	r0, r0, ip, lsl #14
    1780:	0000071c 	andeq	r0, r0, ip, lsl r7
    1784:	1c530001 	mrrcne	0, 0, r0, r3, cr1
    1788:	24000007 	strcs	r0, [r0], #-7
    178c:	03000007 	movweq	r0, #7
    1790:	9f017200 	svcls	0x00017200
    1794:	00000724 	andeq	r0, r0, r4, lsr #14
    1798:	000007cc 	andeq	r0, r0, ip, asr #15
    179c:	94530001 	ldrbls	r0, [r3], #-1
    17a0:	a8000008 	stmdage	r0, {r3}
    17a4:	01000008 	tsteq	r0, r8
    17a8:	00005300 	andeq	r5, r0, r0, lsl #6
    17ac:	00000000 	andeq	r0, r0, r0
    17b0:	00050000 	andeq	r0, r5, r0
    17b4:	070c0001 	streq	r0, [ip, -r1]
    17b8:	07200000 	streq	r0, [r0, -r0]!
    17bc:	00010000 	andeq	r0, r1, r0
    17c0:	00072450 	andeq	r2, r7, r0, asr r4
    17c4:	00072c00 	andeq	r2, r7, r0, lsl #24
    17c8:	50000100 	andpl	r0, r0, r0, lsl #2
	...
    17d4:	01000103 	tsteq	r0, r3, lsl #2
    17d8:	00000728 	andeq	r0, r0, r8, lsr #14
    17dc:	000007b0 			; <UNDEFINED> instruction: 0x000007b0
    17e0:	94550001 	ldrbls	r0, [r5], #-1
    17e4:	a0000008 	andge	r0, r0, r8
    17e8:	01000008 	tsteq	r0, r8
    17ec:	00005500 	andeq	r5, r0, r0, lsl #10
    17f0:	00000000 	andeq	r0, r0, r0
    17f4:	01030000 	mrseq	r0, (UNDEF: 3)
    17f8:	07280100 	streq	r0, [r8, -r0, lsl #2]!
    17fc:	07b00000 	ldreq	r0, [r0, r0]!
    1800:	00010000 	andeq	r0, r1, r0
    1804:	00089451 	andeq	r9, r8, r1, asr r4
    1808:	0008a000 	andeq	sl, r8, r0
    180c:	51000100 	mrspl	r0, (UNDEF: 16)
	...
    1818:	01000003 	tsteq	r0, r3
    181c:	03010101 	movweq	r0, #4353	; 0x1101
    1820:	01000203 	tsteq	r0, r3, lsl #4
    1824:	00000728 	andeq	r0, r0, r8, lsr #14
    1828:	00000750 	andeq	r0, r0, r0, asr r7
    182c:	74530001 	ldrbvc	r0, [r3], #-1
    1830:	74000007 	strvc	r0, [r0], #-7
    1834:	01000007 	tsteq	r0, r7
    1838:	07745e00 	ldrbeq	r5, [r4, -r0, lsl #28]!
    183c:	07880000 	streq	r0, [r8, r0]
    1840:	00030000 	andeq	r0, r3, r0
    1844:	889f017e 	ldmhi	pc, {r1, r2, r3, r4, r5, r6, r8}	; <UNPREDICTABLE>
    1848:	94000007 	strls	r0, [r0], #-7
    184c:	03000007 	movweq	r0, #7
    1850:	9f027e00 	svcls	0x00027e00
    1854:	00000794 	muleq	r0, r4, r7
    1858:	00000798 	muleq	r0, r8, r7
    185c:	037e0003 	cmneq	lr, #3, 0
    1860:	0008949f 	muleq	r8, pc, r4	; <UNPREDICTABLE>
    1864:	0008a000 	andeq	sl, r8, r0
    1868:	53000100 	movwpl	r0, #256	; 0x100
	...
    1874:	01000000 	mrseq	r0, (UNDEF: 0)
    1878:	01010101 	tsteq	r1, r1, lsl #2
    187c:	01000201 	tsteq	r0, r1, lsl #4
    1880:	0000072c 	andeq	r0, r0, ip, lsr #14
    1884:	00000750 	andeq	r0, r0, r0, asr r7
    1888:	74500001 	ldrbvc	r0, [r0], #-1
    188c:	84000007 	strhi	r0, [r0], #-7
    1890:	01000007 	tsteq	r0, r7
    1894:	07845000 	streq	r5, [r4, r0]
    1898:	07940000 	ldreq	r0, [r4, r0]
    189c:	00010000 	andeq	r0, r1, r0
    18a0:	0007945b 	andeq	r9, r7, fp, asr r4
    18a4:	00079800 	andeq	r9, r7, r0, lsl #16
    18a8:	50000100 	andpl	r0, r0, r0, lsl #2
    18ac:	00000798 	muleq	r0, r8, r7
    18b0:	00000798 	muleq	r0, r8, r7
    18b4:	01700003 	cmneq	r0, r3
    18b8:	0008949f 	muleq	r8, pc, r4	; <UNPREDICTABLE>
    18bc:	0008a000 	andeq	sl, r8, r0
    18c0:	50000100 	andpl	r0, r0, r0, lsl #2
	...
    18cc:	00010001 	andeq	r0, r1, r1
    18d0:	000007b0 			; <UNDEFINED> instruction: 0x000007b0
    18d4:	000007ec 	andeq	r0, r0, ip, ror #15
    18d8:	a0510001 	subsge	r0, r1, r1
    18dc:	a8000008 	stmdage	r0, {r3}
    18e0:	01000008 	tsteq	r0, r8
    18e4:	00005100 	andeq	r5, r0, r0, lsl #2
    18e8:	00000000 	andeq	r0, r0, r0
    18ec:	00010000 	andeq	r0, r1, r0
    18f0:	01000000 	mrseq	r0, (UNDEF: 0)
    18f4:	00010001 	andeq	r0, r1, r1
    18f8:	000007b0 			; <UNDEFINED> instruction: 0x000007b0
    18fc:	000007b4 			; <UNDEFINED> instruction: 0x000007b4
    1900:	00730006 	rsbseq	r0, r3, r6
    1904:	9f22007c 	svcls	0x0022007c
    1908:	000007d4 	ldrdeq	r0, [r0], -r4
    190c:	000007d8 	ldrdeq	r0, [r0], -r8
    1910:	7f730003 	svcvc	0x00730003
    1914:	0007d89f 	muleq	r7, pc, r8	; <UNPREDICTABLE>
    1918:	0007e000 	andeq	lr, r7, r0
    191c:	53000100 	movwpl	r0, #256	; 0x100
    1920:	000007e0 	andeq	r0, r0, r0, ror #15
    1924:	000007e8 	andeq	r0, r0, r8, ror #15
    1928:	7f730003 	svcvc	0x00730003
    192c:	0008a09f 	muleq	r8, pc, r0	; <UNPREDICTABLE>
    1930:	0008a800 	andeq	sl, r8, r0, lsl #16
    1934:	53000100 	movwpl	r0, #256	; 0x100
	...
    1940:	00010001 	andeq	r0, r1, r1
    1944:	000007b0 			; <UNDEFINED> instruction: 0x000007b0
    1948:	000007ec 	andeq	r0, r0, ip, ror #15
    194c:	80080003 	andhi	r0, r8, r3
    1950:	0008a09f 	muleq	r8, pc, r0	; <UNPREDICTABLE>
    1954:	0008a800 	andeq	sl, r8, r0, lsl #16
    1958:	08000300 	stmdaeq	r0, {r8, r9}
    195c:	00009f80 	andeq	r9, r0, r0, lsl #31
    1960:	00000000 	andeq	r0, r0, r0
    1964:	00010000 	andeq	r0, r1, r0
    1968:	01000000 	mrseq	r0, (UNDEF: 0)
    196c:	00000001 	andeq	r0, r0, r1
    1970:	07b00001 	ldreq	r0, [r0, r1]!
    1974:	07d00000 	ldrbeq	r0, [r0, r0]
    1978:	00040000 	andeq	r0, r4, r0
    197c:	9f7dd091 	svcls	0x007dd091
    1980:	000007d0 	ldrdeq	r0, [r0], -r0	; <UNPREDICTABLE>
    1984:	000007d4 	ldrdeq	r0, [r0], -r4
    1988:	d4550001 	ldrble	r0, [r5], #-1
    198c:	d4000007 	strle	r0, [r0], #-7
    1990:	03000007 	movweq	r0, #7
    1994:	9f017c00 	svcls	0x00017c00
    1998:	000007d4 	ldrdeq	r0, [r0], -r4
    199c:	000007e0 	andeq	r0, r0, r0, ror #15
    19a0:	027c0003 	rsbseq	r0, ip, #3, 0
    19a4:	0007e09f 	muleq	r7, pc, r0	; <UNPREDICTABLE>
    19a8:	0007ec00 	andeq	lr, r7, r0, lsl #24
    19ac:	7c000300 	stcvc	3, cr0, [r0], {-0}
    19b0:	08a09f01 	stmiaeq	r0!, {r0, r8, r9, sl, fp, ip, pc}
    19b4:	08a80000 	stmiaeq	r8!, {}	; <UNPREDICTABLE>
    19b8:	00040000 	andeq	r0, r4, r0
    19bc:	9f7dd091 	svcls	0x007dd091
	...
    19c8:	00040004 	andeq	r0, r4, r4
    19cc:	000007b0 			; <UNDEFINED> instruction: 0x000007b0
    19d0:	000007b4 			; <UNDEFINED> instruction: 0x000007b4
    19d4:	01700003 	cmneq	r0, r3
    19d8:	0008a09f 	muleq	r8, pc, r0	; <UNPREDICTABLE>
    19dc:	0008a800 	andeq	sl, r8, r0, lsl #16
    19e0:	70000300 	andvc	r0, r0, r0, lsl #6
    19e4:	00009f01 	andeq	r9, r0, r1, lsl #30
    19e8:	00000000 	andeq	r0, r0, r0
    19ec:	00010000 	andeq	r0, r1, r0
    19f0:	07bc0000 	ldreq	r0, [ip, r0]!
    19f4:	07d00000 	ldrbeq	r0, [r0, r0]
    19f8:	00040000 	andeq	r0, r4, r0
    19fc:	9f7dd091 	svcls	0x007dd091
    1a00:	000007d0 	ldrdeq	r0, [r0], -r0	; <UNPREDICTABLE>
    1a04:	000007ec 	andeq	r0, r0, ip, ror #15
    1a08:	00550001 	subseq	r0, r5, r1
	...
    1a14:	28000000 	stmdacs	r0, {}	; <UNPREDICTABLE>
    1a18:	64000003 	strvs	r0, [r0], #-3
    1a1c:	01000003 	tsteq	r0, r3
    1a20:	03645000 	cmneq	r4, #0, 0
    1a24:	03880000 	orreq	r0, r8, #0, 0
    1a28:	00040000 	andeq	r0, r4, r0
    1a2c:	9f5001f3 	svcls	0x005001f3
	...
    1a3c:	00000328 	andeq	r0, r0, r8, lsr #6
    1a40:	0000035c 	andeq	r0, r0, ip, asr r3
    1a44:	5c510001 	mrrcpl	0, 0, r0, r1, cr1
    1a48:	88000003 	stmdahi	r0, {r0, r1}
    1a4c:	04000003 	streq	r0, [r0], #-3
    1a50:	5101f300 	mrspl	pc, SP_irq	; <UNPREDICTABLE>
    1a54:	0000009f 	muleq	r0, pc, r0	; <UNPREDICTABLE>
	...
    1a78:	00001400 	andeq	r1, r0, r0, lsl #8
    1a7c:	50000100 	andpl	r0, r0, r0, lsl #2
    1a80:	00000014 	andeq	r0, r0, r4, lsl r0
    1a84:	00000020 	andeq	r0, r0, r0, lsr #32
    1a88:	205c0001 	subscs	r0, ip, r1
    1a8c:	68000000 	stmdavs	r0, {}	; <UNPREDICTABLE>
    1a90:	03000000 	movweq	r0, #0
    1a94:	9f027100 	svcls	0x00027100
    1a98:	00000068 	andeq	r0, r0, r8, rrx
    1a9c:	0000006c 	andeq	r0, r0, ip, rrx
    1aa0:	02730003 	rsbseq	r0, r3, #3, 0
    1aa4:	00006c9f 	muleq	r0, pc, ip	; <UNPREDICTABLE>
    1aa8:	00019400 	andeq	r9, r1, r0, lsl #8
    1aac:	f3000400 	vshl.u8	d0, d0, d0
    1ab0:	949f5001 	ldrls	r5, [pc], #1	; 1ab8 <__code_start__-0x6548>
    1ab4:	98000001 	stmdals	r0, {r0}
    1ab8:	03000001 	movweq	r0, #1
    1abc:	9f027300 	svcls	0x00027300
    1ac0:	00000198 	muleq	r0, r8, r1
    1ac4:	000001c0 	andeq	r0, r0, r0, asr #3
    1ac8:	01f30004 	mvnseq	r0, r4
    1acc:	01c09f50 	biceq	r9, r0, r0, asr pc
    1ad0:	01c80000 	biceq	r0, r8, r0
    1ad4:	00010000 	andeq	r0, r1, r0
    1ad8:	0001c85c 	andeq	ip, r1, ip, asr r8
    1adc:	00021400 	andeq	r1, r2, r0, lsl #8
    1ae0:	73000300 	movwvc	r0, #768	; 0x300
    1ae4:	02149f02 	andseq	r9, r4, #2, 30
    1ae8:	02ec0000 	rsceq	r0, ip, #0, 0
    1aec:	00040000 	andeq	r0, r4, r0
    1af0:	9f5001f3 	svcls	0x005001f3
    1af4:	000002ec 	andeq	r0, r0, ip, ror #5
    1af8:	000002f4 	strdeq	r0, [r0], -r4
    1afc:	02730003 	rsbseq	r0, r3, #3, 0
    1b00:	0002f49f 	muleq	r2, pc, r4	; <UNPREDICTABLE>
    1b04:	00032800 	andeq	r2, r3, r0, lsl #16
    1b08:	f3000400 	vshl.u8	d0, d0, d0
    1b0c:	009f5001 	addseq	r5, pc, r1
	...
    1b20:	1c000000 	stcne	0, cr0, [r0], {-0}
    1b24:	01000000 	mrseq	r0, (UNDEF: 0)
    1b28:	001c5100 	andseq	r5, ip, r0, lsl #2
    1b2c:	02e00000 	rsceq	r0, r0, #0, 0
    1b30:	00010000 	andeq	r0, r1, r0
    1b34:	0002e050 	andeq	lr, r2, r0, asr r0
    1b38:	0002ec00 	andeq	lr, r2, r0, lsl #24
    1b3c:	f3000400 	vshl.u8	d0, d0, d0
    1b40:	ec9f5101 	ldfs	f5, [pc], {1}
    1b44:	28000002 	stmdacs	r0, {r1}
    1b48:	01000003 	tsteq	r0, r3
    1b4c:	00005000 	andeq	r5, r0, r0
	...
    1b58:	01000000 	mrseq	r0, (UNDEF: 0)
    1b5c:	00000000 	andeq	r0, r0, r0
    1b60:	02000000 	andeq	r0, r0, #0, 0
    1b64:	00000002 	andeq	r0, r0, r2
	...
    1b78:	00700000 	rsbseq	r0, r0, r0
    1b7c:	00010000 	andeq	r0, r1, r0
    1b80:	00007052 	andeq	r7, r0, r2, asr r0
    1b84:	00007800 	andeq	r7, r0, r0, lsl #16
    1b88:	5c000100 	stfpls	f0, [r0], {-0}
    1b8c:	00000078 	andeq	r0, r0, r8, ror r0
    1b90:	000000a4 	andeq	r0, r0, r4, lsr #1
    1b94:	01f30004 	mvnseq	r0, r4
    1b98:	01949f52 	orrseq	r9, r4, r2, asr pc
    1b9c:	019c0000 	orrseq	r0, ip, r0
    1ba0:	00010000 	andeq	r0, r1, r0
    1ba4:	00019c52 	andeq	r9, r1, r2, asr ip
    1ba8:	0001a400 	andeq	sl, r1, r0, lsl #8
    1bac:	5c000100 	stfpls	f0, [r0], {-0}
    1bb0:	000001a4 	andeq	r0, r0, r4, lsr #3
    1bb4:	000001c0 	andeq	r0, r0, r0, asr #3
    1bb8:	01f30004 	mvnseq	r0, r4
    1bbc:	01c09f52 	biceq	r9, r0, r2, asr pc
    1bc0:	02200000 	eoreq	r0, r0, #0, 0
    1bc4:	00010000 	andeq	r0, r1, r0
    1bc8:	00022052 	andeq	r2, r2, r2, asr r0
    1bcc:	00022800 	andeq	r2, r2, r0, lsl #16
    1bd0:	72000400 	andvc	r0, r0, #0, 8
    1bd4:	289f1f00 	ldmcs	pc, {r8, r9, sl, fp, ip}	; <UNPREDICTABLE>
    1bd8:	74000002 	strvc	r0, [r0], #-2
    1bdc:	05000002 	streq	r0, [r0, #-2]
    1be0:	5201f300 	andpl	pc, r1, #0, 6
    1be4:	02749f1f 	rsbseq	r9, r4, #124	; 0x7c
    1be8:	02880000 	addeq	r0, r8, #0, 0
    1bec:	00010000 	andeq	r0, r1, r0
    1bf0:	00028852 	andeq	r8, r2, r2, asr r8
    1bf4:	0002a000 	andeq	sl, r2, r0
    1bf8:	5c000100 	stfpls	f0, [r0], {-0}
    1bfc:	000002cc 	andeq	r0, r0, ip, asr #5
    1c00:	000002d0 	ldrdeq	r0, [r0], -r0	; <UNPREDICTABLE>
    1c04:	d0520001 	subsle	r0, r2, r1
    1c08:	e7000002 	str	r0, [r0, -r2]
    1c0c:	01000002 	tsteq	r0, r2
    1c10:	02e75c00 	rsceq	r5, r7, #0, 24
    1c14:	02ec0000 	rsceq	r0, ip, #0, 0
    1c18:	00040000 	andeq	r0, r4, r0
    1c1c:	9f5201f3 	svcls	0x005201f3
    1c20:	000002ec 	andeq	r0, r0, ip, ror #5
    1c24:	00000300 	andeq	r0, r0, r0, lsl #6
    1c28:	00520001 	subseq	r0, r2, r1
    1c2c:	28000003 	stmdacs	r0, {r0, r1}
    1c30:	01000003 	tsteq	r0, r3
    1c34:	00005c00 	andeq	r5, r0, r0, lsl #24
	...
    1c50:	00000068 	andeq	r0, r0, r8, rrx
    1c54:	68530001 	ldmdavs	r3, {r0}^
    1c58:	6c000000 	stcvs	0, cr0, [r0], {-0}
    1c5c:	03000000 	movweq	r0, #0
    1c60:	9f7f0800 	svcls	0x007f0800
    1c64:	00000194 	muleq	r0, r4, r1
    1c68:	00000198 	muleq	r0, r8, r1
    1c6c:	7f080003 	svcvc	0x00080003
    1c70:	0001c09f 	muleq	r1, pc, r0	; <UNPREDICTABLE>
    1c74:	00021400 	andeq	r1, r2, r0, lsl #8
    1c78:	08000300 	stmdaeq	r0, {r8, r9}
    1c7c:	02749f7f 	rsbseq	r9, r4, #508	; 0x1fc
    1c80:	02900000 	addseq	r0, r0, #0, 0
    1c84:	00010000 	andeq	r0, r1, r0
    1c88:	00029053 	andeq	r9, r2, r3, asr r0
    1c8c:	0002a000 	andeq	sl, r2, r0
    1c90:	f3000400 	vshl.u8	d0, d0, d0
    1c94:	ec9f5301 	ldc	3, cr5, [pc], {1}
    1c98:	28000002 	stmdacs	r0, {r1}
    1c9c:	03000003 	movweq	r0, #3
    1ca0:	9f7f0800 	svcls	0x007f0800
	...
    1cac:	00000001 	andeq	r0, r0, r1
    1cb0:	00020200 	andeq	r0, r2, r0, lsl #4
    1cb4:	00010100 	andeq	r0, r1, r0, lsl #2
    1cb8:	00000000 	andeq	r0, r0, r0
    1cbc:	02000000 	andeq	r0, r0, #0, 0
    1cc0:	00000002 	andeq	r0, r0, r2
    1cc4:	00000001 	andeq	r0, r0, r1
    1cc8:	00000000 	andeq	r0, r0, r0
    1ccc:	00010100 	andeq	r0, r1, r0, lsl #2
    1cd0:	02000000 	andeq	r0, r0, #0, 0
    1cd4:	00000002 	andeq	r0, r0, r2
    1cd8:	01000000 	mrseq	r0, (UNDEF: 0)
    1cdc:	00000001 	andeq	r0, r0, r1
    1ce0:	00000018 	andeq	r0, r0, r8, lsl r0
    1ce4:	00000070 	andeq	r0, r0, r0, ror r0
    1ce8:	a0910004 	addsge	r0, r1, r4
    1cec:	00709f7f 	rsbseq	r9, r0, pc, ror pc
    1cf0:	00780000 	rsbseq	r0, r8, r0
    1cf4:	00010000 	andeq	r0, r1, r0
    1cf8:	00007852 	andeq	r7, r0, r2, asr r8
    1cfc:	00007800 	andeq	r7, r0, r0, lsl #16
    1d00:	54000100 	strpl	r0, [r0], #-256	; 0xffffff00
    1d04:	00000078 	andeq	r0, r0, r8, ror r0
    1d08:	00000088 	andeq	r0, r0, r8, lsl #1
    1d0c:	01740003 	cmneq	r4, r3
    1d10:	0000889f 	muleq	r0, pc, r8	; <UNPREDICTABLE>
    1d14:	00009000 	andeq	r9, r0, r0
    1d18:	54000100 	strpl	r0, [r0], #-256	; 0xffffff00
    1d1c:	00000090 	muleq	r0, r0, r0
    1d20:	000000a0 	andeq	r0, r0, r0, lsr #1
    1d24:	02740003 	rsbseq	r0, r4, #3, 0
    1d28:	0000a09f 	muleq	r0, pc, r0	; <UNPREDICTABLE>
    1d2c:	0000b000 	andeq	fp, r0, r0
    1d30:	5e000100 	adfpls	f0, f0, f0
    1d34:	00000194 	muleq	r0, r4, r1
    1d38:	0000019c 	muleq	r0, ip, r1
    1d3c:	a0910004 	addsge	r0, r1, r4
    1d40:	019c9f7f 	orrseq	r9, ip, pc, ror pc
    1d44:	01a40000 			; <UNDEFINED> instruction: 0x01a40000
    1d48:	00010000 	andeq	r0, r1, r0
    1d4c:	0001a452 	andeq	sl, r1, r2, asr r4
    1d50:	0001a400 	andeq	sl, r1, r0, lsl #8
    1d54:	5e000100 	adfpls	f0, f0, f0
    1d58:	000001a4 	andeq	r0, r0, r4, lsr #3
    1d5c:	000001b4 			; <UNDEFINED> instruction: 0x000001b4
    1d60:	017e0003 	cmneq	lr, r3
    1d64:	0001b49f 	muleq	r1, pc, r4	; <UNPREDICTABLE>
    1d68:	0001c000 	andeq	ip, r1, r0
    1d6c:	5e000100 	adfpls	f0, f0, f0
    1d70:	000001c0 	andeq	r0, r0, r0, asr #3
    1d74:	00000228 	andeq	r0, r0, r8, lsr #4
    1d78:	a0910004 	addsge	r0, r1, r4
    1d7c:	02289f7f 	eoreq	r9, r8, #508	; 0x1fc
    1d80:	02340000 	eorseq	r0, r4, #0, 0
    1d84:	00010000 	andeq	r0, r1, r0
    1d88:	00023452 	andeq	r3, r2, r2, asr r4
    1d8c:	00025800 	andeq	r5, r2, r0, lsl #16
    1d90:	5e000100 	adfpls	f0, f0, f0
    1d94:	00000258 	andeq	r0, r0, r8, asr r2
    1d98:	0000025c 	andeq	r0, r0, ip, asr r2
    1d9c:	017e0003 	cmneq	lr, r3
    1da0:	00025c9f 	muleq	r2, pc, ip	; <UNPREDICTABLE>
    1da4:	00026400 	andeq	r6, r2, r0, lsl #8
    1da8:	5e000100 	adfpls	f0, f0, f0
    1dac:	00000264 	andeq	r0, r0, r4, ror #4
    1db0:	00000270 	andeq	r0, r0, r0, ror r2
    1db4:	02710003 	rsbseq	r0, r1, #3, 0
    1db8:	0002709f 	muleq	r2, pc, r0	; <UNPREDICTABLE>
    1dbc:	00027400 	andeq	r7, r2, r0, lsl #8
    1dc0:	5e000100 	adfpls	f0, f0, f0
    1dc4:	00000274 	andeq	r0, r0, r4, ror r2
    1dc8:	00000274 	andeq	r0, r0, r4, ror r2
    1dcc:	a0910004 	addsge	r0, r1, r4
    1dd0:	02749f7f 	rsbseq	r9, r4, #508	; 0x1fc
    1dd4:	02a00000 	adceq	r0, r0, #0, 0
    1dd8:	00040000 	andeq	r0, r4, r0
    1ddc:	9f7fa191 	svcls	0x007fa191
    1de0:	000002c0 	andeq	r0, r0, r0, asr #5
    1de4:	000002c8 	andeq	r0, r0, r8, asr #5
    1de8:	c85e0001 	ldmdagt	lr, {r0}^
    1dec:	cc000002 	stcgt	0, cr0, [r0], {2}
    1df0:	01000002 	tsteq	r0, r2
    1df4:	02cc5600 	sbceq	r5, ip, #0, 12
    1df8:	02ec0000 	rsceq	r0, ip, #0, 0
    1dfc:	00040000 	andeq	r0, r4, r0
    1e00:	9f7fa091 	svcls	0x007fa091
    1e04:	000002ec 	andeq	r0, r0, ip, ror #5
    1e08:	000002fc 	strdeq	r0, [r0], -ip
    1e0c:	a1910004 	orrsge	r0, r1, r4
    1e10:	02fc9f7f 	rscseq	r9, ip, #508	; 0x1fc
    1e14:	03280000 			; <UNDEFINED> instruction: 0x03280000
    1e18:	00010000 	andeq	r0, r1, r0
    1e1c:	0000005e 	andeq	r0, r0, lr, asr r0
	...
    1e34:	00000101 	andeq	r0, r0, r1, lsl #2
	...
    1e44:	20000000 	andcs	r0, r0, r0
    1e48:	70000000 	andvc	r0, r0, r0
    1e4c:	01000000 	mrseq	r0, (UNDEF: 0)
    1e50:	00705200 	rsbseq	r5, r0, r0, lsl #4
    1e54:	00940000 	addseq	r0, r4, r0
    1e58:	00010000 	andeq	r0, r1, r0
    1e5c:	0001945c 	andeq	r9, r1, ip, asr r4
    1e60:	00019c00 	andeq	r9, r1, r0, lsl #24
    1e64:	52000100 	andpl	r0, r0, #0
    1e68:	0000019c 	muleq	r0, ip, r1
    1e6c:	000001c0 	andeq	r0, r0, r0, asr #3
    1e70:	c85c0001 	ldmdagt	ip, {r0}^
    1e74:	10000001 	andne	r0, r0, r1
    1e78:	01000002 	tsteq	r0, r2
    1e7c:	02105c00 	andseq	r5, r0, #0, 24
    1e80:	02240000 	eoreq	r0, r4, #0, 0
    1e84:	00010000 	andeq	r0, r1, r0
    1e88:	00022452 	andeq	r2, r2, r2, asr r4
    1e8c:	00024800 	andeq	r4, r2, r0, lsl #16
    1e90:	5c000100 	stfpls	f0, [r0], {-0}
    1e94:	00000248 	andeq	r0, r0, r8, asr #4
    1e98:	0000025c 	andeq	r0, r0, ip, asr r2
    1e9c:	5c550001 	mrrcpl	0, 0, r0, r5, cr1
    1ea0:	68000002 	stmdavs	r0, {r1}
    1ea4:	01000002 	tsteq	r0, r2
    1ea8:	02685c00 	rsbeq	r5, r8, #0, 24
    1eac:	02740000 	rsbseq	r0, r4, #0, 0
    1eb0:	00190000 	andseq	r0, r9, r0
    1eb4:	2cf70075 	ldclcs	0, cr0, [r7], #468	; 0x1d4
    1eb8:	007625f7 	ldrshteq	r2, [r6], #-87	; 0xffffffa9
    1ebc:	25f72cf7 	ldrbcs	r2, [r7, #3319]!	; 0xcf7
    1ec0:	f720081e 			; <UNDEFINED> instruction: 0xf720081e
    1ec4:	2cf72525 	cfldr64cs	mvdx2, [r7], #148	; 0x94
    1ec8:	253300f7 	ldrcs	r0, [r3, #-247]!	; 0xffffff09
    1ecc:	0002749f 	muleq	r2, pc, r4	; <UNPREDICTABLE>
    1ed0:	00028800 	andeq	r8, r2, r0, lsl #16
    1ed4:	52000100 	andpl	r0, r0, #0
    1ed8:	00000288 	andeq	r0, r0, r8, lsl #5
    1edc:	000002a0 	andeq	r0, r0, r0, lsr #5
    1ee0:	cc5c0001 	mrrcgt	0, 0, r0, ip, cr1
    1ee4:	d0000002 	andle	r0, r0, r2
    1ee8:	01000002 	tsteq	r0, r2
    1eec:	02d05200 	sbcseq	r5, r0, #0, 4
    1ef0:	02e70000 	rsceq	r0, r7, #0, 0
    1ef4:	00010000 	andeq	r0, r1, r0
    1ef8:	0002e75c 	andeq	lr, r2, ip, asr r7
    1efc:	0002ec00 	andeq	lr, r2, r0, lsl #24
    1f00:	f3000400 	vshl.u8	d0, d0, d0
    1f04:	ec9f5201 	lfm	f5, 4, [pc], {1}
    1f08:	00000002 	andeq	r0, r0, r2
    1f0c:	01000003 	tsteq	r0, r3
    1f10:	03005200 	movweq	r5, #512	; 0x200
    1f14:	03280000 			; <UNDEFINED> instruction: 0x03280000
    1f18:	00010000 	andeq	r0, r1, r0
    1f1c:	0000005c 	andeq	r0, r0, ip, asr r0
    1f20:	00000000 	andeq	r0, r0, r0
    1f24:	04000400 	streq	r0, [r0], #-1024	; 0xfffffc00
    1f28:	00010000 	andeq	r0, r1, r0
    1f2c:	a4000400 	strge	r0, [r0], #-1024	; 0xfffffc00
    1f30:	b0000000 	andlt	r0, r0, r0
    1f34:	01000000 	mrseq	r0, (UNDEF: 0)
    1f38:	027c5300 	rsbseq	r5, ip, #0, 6
    1f3c:	02900000 	addseq	r0, r0, #0, 0
    1f40:	00010000 	andeq	r0, r1, r0
    1f44:	00029053 	andeq	r9, r2, r3, asr r0
    1f48:	00029c00 	andeq	r9, r2, r0, lsl #24
    1f4c:	f3000400 	vshl.u8	d0, d0, d0
    1f50:	c09f5301 	addsgt	r5, pc, r1, lsl #6
    1f54:	cc000002 	stcgt	0, cr0, [r0], {2}
    1f58:	01000002 	tsteq	r0, r2
    1f5c:	02f05300 	rscseq	r5, r0, #0, 6
    1f60:	03280000 			; <UNDEFINED> instruction: 0x03280000
    1f64:	00030000 	andeq	r0, r3, r0
    1f68:	009f7f08 	addseq	r7, pc, r8, lsl #30
    1f6c:	00000000 	andeq	r0, r0, r0
    1f70:	04000000 	streq	r0, [r0], #-0
    1f74:	04010000 	streq	r0, [r1], #-0
    1f78:	00010000 	andeq	r0, r1, r0
    1f7c:	04000000 	streq	r0, [r0], #-0
    1f80:	a4000000 	strge	r0, [r0], #-0
    1f84:	b0000000 	andlt	r0, r0, r0
    1f88:	01000000 	mrseq	r0, (UNDEF: 0)
    1f8c:	00b05200 	adcseq	r5, r0, r0, lsl #4
    1f90:	015c0000 	cmpeq	ip, r0
    1f94:	00040000 	andeq	r0, r4, r0
    1f98:	9f7fa091 	svcls	0x007fa091
    1f9c:	0000027c 	andeq	r0, r0, ip, ror r2
    1fa0:	00000294 	muleq	r0, r4, r2
    1fa4:	a0910004 	addsge	r0, r1, r4
    1fa8:	02949f7f 	addseq	r9, r4, #508	; 0x1fc
    1fac:	029c0000 	addseq	r0, ip, #0, 0
    1fb0:	00010000 	andeq	r0, r1, r0
    1fb4:	0002b45e 	andeq	fp, r2, lr, asr r4
    1fb8:	0002c000 	andeq	ip, r2, r0
    1fbc:	91000400 	tstls	r0, r0, lsl #8
    1fc0:	c09f7fa0 	addsgt	r7, pc, r0, lsr #31
    1fc4:	cc000002 	stcgt	0, cr0, [r0], {2}
    1fc8:	01000002 	tsteq	r0, r2
    1fcc:	02f05200 	rscseq	r5, r0, #0, 4
    1fd0:	03000000 	movweq	r0, #0
    1fd4:	00040000 	andeq	r0, r4, r0
    1fd8:	9f7fa091 	svcls	0x007fa091
    1fdc:	00000300 	andeq	r0, r0, r0, lsl #6
    1fe0:	00000328 	andeq	r0, r0, r8, lsr #6
    1fe4:	00520001 	subseq	r0, r2, r1
    1fe8:	00000000 	andeq	r0, r0, r0
    1fec:	04000000 	streq	r0, [r0], #-0
    1ff0:	01010000 	mrseq	r0, (UNDEF: 1)
    1ff4:	03030101 	movweq	r0, #12545	; 0x3101
    1ff8:	00010402 	andeq	r0, r1, r2, lsl #8
    1ffc:	04000000 	streq	r0, [r0], #-0
    2000:	a4000000 	strge	r0, [r0], #-0
    2004:	b0000000 	andlt	r0, r0, r0
    2008:	01000000 	mrseq	r0, (UNDEF: 0)
    200c:	010c5e00 	tsteq	ip, r0, lsl #28
    2010:	010c0000 	mrseq	r0, (UNDEF: 12)
    2014:	00010000 	andeq	r0, r1, r0
    2018:	00010c55 	andeq	r0, r1, r5, asr ip
    201c:	00012000 	andeq	r2, r1, r0
    2020:	75000300 	strvc	r0, [r0, #-768]	; 0xfffffd00
    2024:	01209f01 			; <UNDEFINED> instruction: 0x01209f01
    2028:	012c0000 			; <UNDEFINED> instruction: 0x012c0000
    202c:	00030000 	andeq	r0, r3, r0
    2030:	2c9f0275 	lfmcs	f0, 4, [pc], {117}	; 0x75
    2034:	30000001 	andcc	r0, r0, r1
    2038:	03000001 	movweq	r0, #1
    203c:	9f037500 	svcls	0x00037500
    2040:	0000027c 	andeq	r0, r0, ip, ror r2
    2044:	0000029c 	muleq	r0, ip, r2
    2048:	a1910004 	orrsge	r0, r1, r4
    204c:	02c09f7f 	sbceq	r9, r0, #508	; 0x1fc
    2050:	02c80000 	sbceq	r0, r8, #0, 0
    2054:	00010000 	andeq	r0, r1, r0
    2058:	0002c85e 	andeq	ip, r2, lr, asr r8
    205c:	0002cc00 	andeq	ip, r2, r0, lsl #24
    2060:	56000100 	strpl	r0, [r0], -r0, lsl #2
    2064:	000002f0 	strdeq	r0, [r0], -r0	; <UNPREDICTABLE>
    2068:	000002fc 	strdeq	r0, [r0], -ip
    206c:	a1910004 	orrsge	r0, r1, r4
    2070:	02fc9f7f 	rscseq	r9, ip, #508	; 0x1fc
    2074:	03280000 			; <UNDEFINED> instruction: 0x03280000
    2078:	00010000 	andeq	r0, r1, r0
    207c:	0000005e 	andeq	r0, r0, lr, asr r0
	...
    2088:	01010101 	tsteq	r1, r1, lsl #2
    208c:	06020101 	streq	r0, [r2], -r1, lsl #2
    2090:	06000001 	streq	r0, [r0], -r1
    2094:	0000a800 	andeq	sl, r0, r0, lsl #16
    2098:	0000b000 	andeq	fp, r0, r0
    209c:	51000100 	mrspl	r0, (UNDEF: 16)
    20a0:	0000010c 	andeq	r0, r0, ip, lsl #2
    20a4:	0000011c 	andeq	r0, r0, ip, lsl r1
    20a8:	1c5c0001 	mrrcne	0, 0, r0, ip, cr1
    20ac:	2c000001 	stccs	0, cr0, [r0], {1}
    20b0:	01000001 	tsteq	r0, r1
    20b4:	012c5800 			; <UNDEFINED> instruction: 0x012c5800
    20b8:	01300000 	teqeq	r0, r0
    20bc:	00010000 	andeq	r0, r1, r0
    20c0:	0001305c 	andeq	r3, r1, ip, asr r0
    20c4:	00013000 	andeq	r3, r1, r0
    20c8:	7c000300 	stcvc	3, cr0, [r0], {-0}
    20cc:	027c9f01 	rsbseq	r9, ip, #1, 30
    20d0:	029c0000 	addseq	r0, ip, #0, 0
    20d4:	00020000 	andeq	r0, r2, r0
    20d8:	02c09f31 	sbceq	r9, r0, #196	; 0xc4
    20dc:	02cc0000 	sbceq	r0, ip, #0, 0
    20e0:	00010000 	andeq	r0, r1, r0
    20e4:	0002f051 	andeq	pc, r2, r1, asr r0	; <UNPREDICTABLE>
    20e8:	00032800 	andeq	r2, r3, r0, lsl #16
    20ec:	31000200 	mrscc	r0, R8_usr
    20f0:	0000009f 	muleq	r0, pc, r0	; <UNPREDICTABLE>
    20f4:	00000000 	andeq	r0, r0, r0
    20f8:	06060100 	streq	r0, [r6], -r0, lsl #2
    20fc:	00000101 	andeq	r0, r0, r1, lsl #2
    2100:	00015c01 	andeq	r5, r1, r1, lsl #24
    2104:	00015c00 	andeq	r5, r1, r0, lsl #24
    2108:	91000400 	tstls	r0, r0, lsl #8
    210c:	5c9f7fa0 	ldcpl	15, cr7, [pc], {160}	; 0xa0
    2110:	8c000001 	stchi	0, cr0, [r0], {1}
    2114:	01000001 	tsteq	r0, r1
    2118:	029c5200 	addseq	r5, ip, #0, 4
    211c:	02a00000 	adceq	r0, r0, #0, 0
    2120:	00010000 	andeq	r0, r1, r0
    2124:	0002a05e 	andeq	sl, r2, lr, asr r0
    2128:	0002ac00 	andeq	sl, r2, r0, lsl #24
    212c:	52000100 	andpl	r0, r0, #0
	...
    2138:	01000000 	mrseq	r0, (UNDEF: 0)
    213c:	07010001 	streq	r0, [r1, -r1]
    2140:	0000016c 	andeq	r0, r0, ip, ror #2
    2144:	00000170 	andeq	r0, r0, r0, ror r1
    2148:	7f730003 	svcvc	0x00730003
    214c:	0001709f 	muleq	r1, pc, r0	; <UNPREDICTABLE>
    2150:	00017800 	andeq	r7, r1, r0, lsl #16
    2154:	53000100 	movwpl	r0, #256	; 0x100
    2158:	00000178 	andeq	r0, r0, r8, ror r1
    215c:	00000184 	andeq	r0, r0, r4, lsl #3
    2160:	7f730003 	svcvc	0x00730003
    2164:	00029c9f 	muleq	r2, pc, ip	; <UNPREDICTABLE>
    2168:	00029c00 	andeq	r9, r2, r0, lsl #24
    216c:	91000400 	tstls	r0, r0, lsl #8
    2170:	009f7fa1 	addseq	r7, pc, r1, lsr #31
    2174:	00000000 	andeq	r0, r0, r0
    2178:	01000000 	mrseq	r0, (UNDEF: 0)
    217c:	5c010101 	stfpls	f0, [r1], {1}
    2180:	8c000001 	stchi	0, cr0, [r0], {1}
    2184:	03000001 	movweq	r0, #1
    2188:	9f800800 	svcls	0x00800800
    218c:	0000029c 	muleq	r0, ip, r2
    2190:	000002ac 	andeq	r0, r0, ip, lsr #5
    2194:	80080003 	andhi	r0, r8, r3
    2198:	0000009f 	muleq	r0, pc, r0	; <UNPREDICTABLE>
    219c:	00000000 	andeq	r0, r0, r0
    21a0:	00000100 	andeq	r0, r0, r0, lsl #2
    21a4:	00000101 	andeq	r0, r0, r1, lsl #2
    21a8:	01010101 	tsteq	r1, r1, lsl #2
    21ac:	5c010101 	stfpls	f0, [r1], {1}
    21b0:	6c000001 	stcvs	0, cr0, [r0], {1}
    21b4:	01000001 	tsteq	r0, r1
    21b8:	016c5000 	cmneq	ip, r0
    21bc:	016c0000 	cmneq	ip, r0
    21c0:	00030000 	andeq	r0, r3, r0
    21c4:	6c9f017c 	ldfvss	f0, [pc], {124}	; 0x7c
    21c8:	78000001 	stmdavc	r0, {r0}
    21cc:	03000001 	movweq	r0, #1
    21d0:	9f027c00 	svcls	0x00027c00
    21d4:	00000178 	andeq	r0, r0, r8, ror r1
    21d8:	00000188 	andeq	r0, r0, r8, lsl #3
    21dc:	017c0003 	cmneq	ip, r3
    21e0:	0001889f 	muleq	r1, pc, r8	; <UNPREDICTABLE>
    21e4:	00018c00 	andeq	r8, r1, r0, lsl #24
    21e8:	7e000300 	cdpvc	3, 0, cr0, cr0, cr0, {0}
    21ec:	029c9f01 	addseq	r9, ip, #1, 30
    21f0:	02a40000 	adceq	r0, r4, #0, 0
    21f4:	00010000 	andeq	r0, r1, r0
    21f8:	0002a450 	andeq	sl, r2, r0, asr r4
    21fc:	0002ac00 	andeq	sl, r2, r0, lsl #24
    2200:	7e000300 	cdpvc	3, 0, cr0, cr0, cr0, {0}
    2204:	00009f01 	andeq	r9, r0, r1, lsl #30
    2208:	00000000 	andeq	r0, r0, r0
    220c:	00040000 	andeq	r0, r4, r0
    2210:	01000004 	tsteq	r0, r4
    2214:	0000015c 	andeq	r0, r0, ip, asr r1
    2218:	00000160 	andeq	r0, r0, r0, ror #2
    221c:	01710003 	cmneq	r1, r3
    2220:	00029c9f 	muleq	r2, pc, ip	; <UNPREDICTABLE>
    2224:	0002a000 	andeq	sl, r2, r0
    2228:	32000200 	andcc	r0, r0, #0, 4
    222c:	0002a09f 	muleq	r2, pc, r0	; <UNPREDICTABLE>
    2230:	0002ac00 	andeq	sl, r2, r0, lsl #24
    2234:	71000300 	mrsvc	r0, LR_irq
    2238:	00009f01 	andeq	r9, r0, r1, lsl #30
    223c:	00000000 	andeq	r0, r0, r0
    2240:	00070000 	andeq	r0, r7, r0
    2244:	015c0006 	cmpeq	ip, r6
    2248:	01940000 	orrseq	r0, r4, r0
    224c:	00010000 	andeq	r0, r1, r0
    2250:	00029c50 	andeq	r9, r2, r0, asr ip
    2254:	0002b400 	andeq	fp, r2, r0, lsl #8
    2258:	50000100 	andpl	r0, r0, r0, lsl #2
	...
    2264:	00010101 	andeq	r0, r1, r1, lsl #2
    2268:	00000214 	andeq	r0, r0, r4, lsl r2
    226c:	00000220 	andeq	r0, r0, r0, lsr #4
    2270:	9f300002 	svcls	0x00300002
    2274:	00000220 	andeq	r0, r0, r0, lsr #4
    2278:	00000234 	andeq	r0, r0, r4, lsr r2
    227c:	9f310002 	svcls	0x00310002
	...
    2288:	00010100 	andeq	r0, r1, r0, lsl #2
    228c:	00010100 	andeq	r0, r1, r0, lsl #2
    2290:	00010100 	andeq	r0, r1, r0, lsl #2
    2294:	00010100 	andeq	r0, r1, r0, lsl #2
    2298:	00010100 	andeq	r0, r1, r0, lsl #2
    229c:	01020200 	mrseq	r0, R10_usr
    22a0:	00000080 	andeq	r0, r0, r0, lsl #1
    22a4:	00000080 	andeq	r0, r0, r0, lsl #1
    22a8:	80530001 	subshi	r0, r3, r1
    22ac:	8c000000 	stchi	0, cr0, [r0], {-0}
    22b0:	03000000 	movweq	r0, #0
    22b4:	9f047300 	svcls	0x00047300
    22b8:	0000008c 	andeq	r0, r0, ip, lsl #1
    22bc:	00000094 	muleq	r0, r4, r0
    22c0:	94510001 	ldrbls	r0, [r1], #-1
    22c4:	98000000 	stmdals	r0, {}	; <UNPREDICTABLE>
    22c8:	03000000 	movweq	r0, #0
    22cc:	9f087300 	svcls	0x00087300
    22d0:	00000098 	muleq	r0, r8, r0
    22d4:	000000a4 	andeq	r0, r0, r4, lsr #1
    22d8:	a4510001 	ldrbge	r0, [r1], #-1
    22dc:	a8000000 	stmdage	r0, {}	; <UNPREDICTABLE>
    22e0:	03000000 	movweq	r0, #0
    22e4:	9f0c7300 	svcls	0x000c7300
    22e8:	000000a8 	andeq	r0, r0, r8, lsr #1
    22ec:	000000b4 	strheq	r0, [r0], -r4
    22f0:	b4510001 	ldrblt	r0, [r1], #-1
    22f4:	b8000000 	stmdalt	r0, {}	; <UNPREDICTABLE>
    22f8:	03000000 	movweq	r0, #0
    22fc:	9f107300 	svcls	0x00107300
    2300:	000000b8 	strheq	r0, [r0], -r8
    2304:	000000c4 	andeq	r0, r0, r4, asr #1
    2308:	c4510001 	ldrbgt	r0, [r1], #-1
    230c:	c8000000 	stmdagt	r0, {}	; <UNPREDICTABLE>
    2310:	03000000 	movweq	r0, #0
    2314:	9f147300 	svcls	0x00147300
    2318:	000000c8 	andeq	r0, r0, r8, asr #1
    231c:	000000d0 	ldrdeq	r0, [r0], -r0	; <UNPREDICTABLE>
    2320:	d0510001 	subsle	r0, r1, r1
    2324:	d4000000 	strle	r0, [r0], #-0
    2328:	03000000 	movweq	r0, #0
    232c:	9f047100 	svcls	0x00047100
	...
    2338:	00d80002 	sbcseq	r0, r8, r2
    233c:	00e80000 	rsceq	r0, r8, r0
    2340:	00020000 	andeq	r0, r2, r0
    2344:	00009f31 	andeq	r9, r0, r1, lsr pc
    2348:	00000000 	andeq	r0, r0, r0
    234c:	00040000 	andeq	r0, r4, r0
    2350:	97180100 	ldrls	r0, [r8, -r0, lsl #2]
    2354:	97200000 	strls	r0, [r0, -r0]!
    2358:	00020000 	andeq	r0, r2, r0
    235c:	97209f30 			; <UNDEFINED> instruction: 0x97209f30
    2360:	97200000 	strls	r0, [r0, -r0]!
    2364:	00010000 	andeq	r0, r1, r0
    2368:	00000053 	andeq	r0, r0, r3, asr r0
    236c:	00000000 	andeq	r0, r0, r0
    2370:	00000300 	andeq	r0, r0, r0, lsl #6
    2374:	00000000 	andeq	r0, r0, r0
    2378:	00972c00 	addseq	r2, r7, r0, lsl #24
    237c:	00973000 	addseq	r3, r7, r0
    2380:	30000200 	andcc	r0, r0, r0, lsl #4
    2384:	0097309f 	umullseq	r3, r7, pc, r0	; <UNPREDICTABLE>
    2388:	00973400 	addseq	r3, r7, r0, lsl #8
    238c:	53000100 	movwpl	r0, #256	; 0x100
    2390:	00009734 	andeq	r9, r0, r4, lsr r7
    2394:	00009738 	andeq	r9, r0, r8, lsr r7
    2398:	00730005 	rsbseq	r0, r3, r5
    239c:	389f2140 	ldmcc	pc, {r6, r8, sp}	; <UNPREDICTABLE>
    23a0:	3c000097 	stccc	0, cr0, [r0], {151}	; 0x97
    23a4:	01000097 	swpeq	r0, r7, [r0]	; <UNPREDICTABLE>
    23a8:	00005300 	andeq	r5, r0, r0, lsl #6
    23ac:	00000000 	andeq	r0, r0, r0
    23b0:	00020000 	andeq	r0, r2, r0
    23b4:	96ec0000 	strbtls	r0, [ip], r0
    23b8:	96f00000 	ldrbtls	r0, [r0], r0
    23bc:	00020000 	andeq	r0, r2, r0
    23c0:	96f09f30 			; <UNDEFINED> instruction: 0x96f09f30
    23c4:	96f40000 	ldrbtls	r0, [r4], r0
    23c8:	00010000 	andeq	r0, r1, r0
    23cc:	00000050 	andeq	r0, r0, r0, asr r0
    23d0:	00000000 	andeq	r0, r0, r0
    23d4:	00000200 	andeq	r0, r0, r0, lsl #4
    23d8:	00000000 	andeq	r0, r0, r0
    23dc:	00970400 	addseq	r0, r7, r0, lsl #8
    23e0:	00970800 	addseq	r0, r7, r0, lsl #16
    23e4:	30000200 	andcc	r0, r0, r0, lsl #4
    23e8:	0097089f 	umullseq	r0, r7, pc, r8	; <UNPREDICTABLE>
    23ec:	00970c00 	addseq	r0, r7, r0, lsl #24
    23f0:	53000100 	movwpl	r0, #256	; 0x100
    23f4:	0000970c 	andeq	r9, r0, ip, lsl #14
    23f8:	00009710 	andeq	r9, r0, r0, lsl r7
    23fc:	00730005 	rsbseq	r0, r3, r5
    2400:	109f2140 	addsne	r2, pc, r0, asr #2
    2404:	18000097 	stmdane	r0, {r0, r1, r2, r4, r7}
    2408:	01000097 	swpeq	r0, r7, [r0]	; <UNPREDICTABLE>
    240c:	00005300 	andeq	r5, r0, r0, lsl #6
	...
    2418:	00c80000 	sbceq	r0, r8, r0
    241c:	00d80000 	sbcseq	r0, r8, r0
    2420:	00010000 	andeq	r0, r1, r0
    2424:	0000d850 	andeq	sp, r0, r0, asr r8
    2428:	00011c00 	andeq	r1, r1, r0, lsl #24
    242c:	f3000400 	vshl.u8	d0, d0, d0
    2430:	009f5001 	addseq	r5, pc, r1
    2434:	00000000 	andeq	r0, r0, r0
    2438:	02000000 	andeq	r0, r0, #0, 0
    243c:	c8000000 	stmdagt	r0, {}	; <UNPREDICTABLE>
    2440:	d8000000 	stmdale	r0, {}	; <UNPREDICTABLE>
    2444:	07000000 	streq	r0, [r0, -r0]
    2448:	0a007000 	beq	1e450 <__bss_end__+0x13628>
    244c:	9f1e03e8 	svcls	0x001e03e8
    2450:	000000d8 	ldrdeq	r0, [r0], -r8
    2454:	0000011c 	andeq	r0, r0, ip, lsl r1
    2458:	01f30008 	mvnseq	r0, r8
    245c:	03e80a50 	mvneq	r0, #80, 20	; 0x50000
    2460:	00009f1e 	andeq	r9, r0, lr, lsl pc
	...
    246c:	000000dc 	ldrdeq	r0, [r0], -ip
    2470:	0000011c 	andeq	r0, r0, ip, lsl r1
    2474:	00540001 	subseq	r0, r4, r1
    2478:	00000000 	andeq	r0, r0, r0
    247c:	01000000 	mrseq	r0, (UNDEF: 0)
    2480:	0000f000 	andeq	pc, r0, r0
    2484:	00011c00 	andeq	r1, r1, r0, lsl #24
    2488:	56000100 	strpl	r0, [r0], -r0, lsl #2
	...
    2498:	000000ec 	andeq	r0, r0, ip, ror #1
    249c:	000000ef 	andeq	r0, r0, pc, ror #1
    24a0:	ef500001 	svc	0x00500001
    24a4:	1c000000 	stcne	0, cr0, [r0], {-0}
    24a8:	01000001 	tsteq	r0, r1
    24ac:	00005600 	andeq	r5, r0, r0, lsl #12
	...
    24b8:	00000104 	andeq	r0, r0, r4, lsl #2
    24bc:	0000010b 	andeq	r0, r0, fp, lsl #2
    24c0:	00500001 	subseq	r0, r0, r1
	...
    24cc:	20000000 	andcs	r0, r0, r0
    24d0:	23000000 	movwcs	r0, #0
    24d4:	01000000 	mrseq	r0, (UNDEF: 0)
    24d8:	00235000 	eoreq	r5, r3, r0
    24dc:	00300000 	eorseq	r0, r0, r0
    24e0:	00010000 	andeq	r0, r1, r0
    24e4:	00000054 	andeq	r0, r0, r4, asr r0
	...
    24f0:	00003000 	andeq	r3, r0, r0
    24f4:	00003b00 	andeq	r3, r0, r0, lsl #22
    24f8:	50000100 	andpl	r0, r0, r0, lsl #2
    24fc:	0000003b 	andeq	r0, r0, fp, lsr r0
    2500:	00000078 	andeq	r0, r0, r8, ror r0
    2504:	00560001 	subseq	r0, r6, r1
    2508:	00000000 	andeq	r0, r0, r0
    250c:	01000000 	mrseq	r0, (UNDEF: 0)
    2510:	00004c00 	andeq	r4, r0, r0, lsl #24
    2514:	00007800 	andeq	r7, r0, r0, lsl #16
    2518:	55000100 	strpl	r0, [r0, #-256]	; 0xffffff00
	...
    2528:	00000048 	andeq	r0, r0, r8, asr #32
    252c:	0000004b 	andeq	r0, r0, fp, asr #32
    2530:	4b500001 	blmi	140253c <__bss_end__+0x13f7714>
    2534:	78000000 	stmdavc	r0, {}	; <UNPREDICTABLE>
    2538:	01000000 	mrseq	r0, (UNDEF: 0)
    253c:	00005500 	andeq	r5, r0, r0, lsl #10
	...
    2548:	00000060 	andeq	r0, r0, r0, rrx
    254c:	00000067 	andeq	r0, r0, r7, rrx
    2550:	00500001 	subseq	r0, r0, r1
	...
    255c:	78000000 	stmdavc	r0, {}	; <UNPREDICTABLE>
    2560:	84000000 	strhi	r0, [r0], #-0
    2564:	01000000 	mrseq	r0, (UNDEF: 0)
    2568:	00845000 	addeq	r5, r4, r0
    256c:	00c80000 	sbceq	r0, r8, r0
    2570:	00040000 	andeq	r0, r4, r0
    2574:	9f5001f3 	svcls	0x005001f3
	...
    2580:	00880000 	addeq	r0, r8, r0
    2584:	00c80000 	sbceq	r0, r8, r0
    2588:	00010000 	andeq	r0, r1, r0
    258c:	00000054 	andeq	r0, r0, r4, asr r0
    2590:	00000000 	andeq	r0, r0, r0
    2594:	9c000100 	stflss	f0, [r0], {-0}
    2598:	c8000000 	stmdagt	r0, {}	; <UNPREDICTABLE>
    259c:	01000000 	mrseq	r0, (UNDEF: 0)
    25a0:	00005600 	andeq	r5, r0, r0, lsl #12
	...
    25ac:	00980000 	addseq	r0, r8, r0
    25b0:	009b0000 	addseq	r0, fp, r0
    25b4:	00010000 	andeq	r0, r1, r0
    25b8:	00009b50 	andeq	r9, r0, r0, asr fp
    25bc:	0000c800 	andeq	ip, r0, r0, lsl #16
    25c0:	56000100 	strpl	r0, [r0], -r0, lsl #2
	...
    25cc:	00b00000 	adcseq	r0, r0, r0
    25d0:	00b70000 	adcseq	r0, r7, r0
    25d4:	00010000 	andeq	r0, r1, r0
    25d8:	00000050 	andeq	r0, r0, r0, asr r0
	...
    25e4:	00015800 	andeq	r5, r1, r0, lsl #16
    25e8:	00016300 	andeq	r6, r1, r0, lsl #6
    25ec:	50000100 	andpl	r0, r0, r0, lsl #2
    25f0:	00000163 	andeq	r0, r0, r3, ror #2
    25f4:	00000188 	andeq	r0, r0, r8, lsl #3
    25f8:	00540001 	subseq	r0, r4, r1
	...
    2604:	00014800 	andeq	r4, r1, r0, lsl #16
    2608:	00015800 	andeq	r5, r1, r0, lsl #16
    260c:	54000100 	strpl	r0, [r0], #-256	; 0xffffff00
	...
    2620:	0000000f 	andeq	r0, r0, pc
    2624:	0f500001 	svceq	0x00500001
    2628:	20000000 	andcs	r0, r0, r0
    262c:	01000000 	mrseq	r0, (UNDEF: 0)
    2630:	00005400 	andeq	r5, r0, r0, lsl #8
	...
    2640:	000f0000 	andeq	r0, pc, r0
    2644:	00010000 	andeq	r0, r1, r0
    2648:	00000f51 	andeq	r0, r0, r1, asr pc
    264c:	00002000 	andeq	r2, r0, r0
    2650:	55000100 	strpl	r0, [r0, #-256]	; 0xffffff00
	...
    2660:	00000020 	andeq	r0, r0, r0, lsr #32
    2664:	0000002f 	andeq	r0, r0, pc, lsr #32
    2668:	2f500001 	svccs	0x00500001
    266c:	40000000 	andmi	r0, r0, r0
    2670:	01000000 	mrseq	r0, (UNDEF: 0)
    2674:	00005400 	andeq	r5, r0, r0, lsl #8
	...
    2680:	00200000 	eoreq	r0, r0, r0
    2684:	002f0000 	eoreq	r0, pc, r0
    2688:	00010000 	andeq	r0, r1, r0
    268c:	00002f51 	andeq	r2, r0, r1, asr pc
    2690:	00004000 	andeq	r4, r0, r0
    2694:	55000100 	strpl	r0, [r0, #-256]	; 0xffffff00
	...
    26a4:	03500000 	cmpeq	r0, #0, 0
    26a8:	03980000 	orrseq	r0, r8, #0, 0
    26ac:	00010000 	andeq	r0, r1, r0
    26b0:	00039850 	andeq	r9, r3, r0, asr r8
    26b4:	00039b00 	andeq	r9, r3, r0, lsl #22
    26b8:	91000200 	mrsls	r0, R8_usr
    26bc:	00039b68 	andeq	r9, r3, r8, ror #22
    26c0:	0003b000 	andeq	fp, r3, r0
    26c4:	f3000400 	vshl.u8	d0, d0, d0
    26c8:	009f5001 	addseq	r5, pc, r1
	...
    26e4:	20000000 	andcs	r0, r0, r0
    26e8:	7b000002 	blvc	26f8 <__code_start__-0x5908>
    26ec:	01000002 	tsteq	r0, r2
    26f0:	027b5000 	rsbseq	r5, fp, #0, 0
    26f4:	02840000 	addeq	r0, r4, #0, 0
    26f8:	00040000 	andeq	r0, r4, r0
    26fc:	9f5001f3 	svcls	0x005001f3
    2700:	00000284 	andeq	r0, r0, r4, lsl #5
    2704:	0000029c 	muleq	r0, ip, r2
    2708:	9c500001 	mrrcls	0, 0, r0, r0, cr1	; <UNPREDICTABLE>
    270c:	a4000002 	strge	r0, [r0], #-2
    2710:	04000002 	streq	r0, [r0], #-2
    2714:	5001f300 	andpl	pc, r1, r0, lsl #6
    2718:	0002a49f 	muleq	r2, pc, r4	; <UNPREDICTABLE>
    271c:	0002a700 	andeq	sl, r2, r0, lsl #14
    2720:	50000100 	andpl	r0, r0, r0, lsl #2
    2724:	000002a7 	andeq	r0, r0, r7, lsr #5
    2728:	000002c8 	andeq	r0, r0, r8, asr #5
    272c:	01f30004 	mvnseq	r0, r4
    2730:	02c89f50 	sbceq	r9, r8, #80, 30	; 0x140
    2734:	02e00000 	rsceq	r0, r0, #0, 0
    2738:	00010000 	andeq	r0, r1, r0
    273c:	0002e050 	andeq	lr, r2, r0, asr r0
    2740:	0002e800 	andeq	lr, r2, r0, lsl #16
    2744:	f3000400 	vshl.u8	d0, d0, d0
    2748:	e89f5001 	ldm	pc, {r0, ip, lr}	; <UNPREDICTABLE>
    274c:	eb000002 	bl	275c <__code_start__-0x58a4>
    2750:	01000002 	tsteq	r0, r2
    2754:	02eb5000 	rsceq	r5, fp, #0, 0
    2758:	03380000 	teqeq	r8, #0, 0
    275c:	00040000 	andeq	r0, r4, r0
    2760:	9f5001f3 	svcls	0x005001f3
	...
    2780:	00000220 	andeq	r0, r0, r0, lsr #4
    2784:	00000244 	andeq	r0, r0, r4, asr #4
    2788:	44510001 	ldrbmi	r0, [r1], #-1
    278c:	68000002 	stmdavs	r0, {r1}
    2790:	01000002 	tsteq	r0, r2
    2794:	02685100 	rsbeq	r5, r8, #0
    2798:	027b0000 	rsbseq	r0, fp, #0, 0
    279c:	00030000 	andeq	r0, r3, r0
    27a0:	7b9f0171 	blvc	fe7c2d6c <__bss_end__+0xfe7b7f44>
    27a4:	84000002 	strhi	r0, [r0], #-2
    27a8:	17000002 	strne	r0, [r0, -r2]
    27ac:	01f33800 	mvnseq	r3, r0, lsl #16
    27b0:	5101f351 	tstpl	r1, r1, asr r3	; <UNPREDICTABLE>
    27b4:	22244b40 	eorcs	r4, r4, #64, 22	; 0x10000
    27b8:	0000080c 	andeq	r0, r0, ip, lsl #16
    27bc:	01282d80 	smlawbeq	r8, r0, sp, r2
    27c0:	9f131600 	svcls	0x00131600
    27c4:	00000284 	andeq	r0, r0, r4, lsl #5
    27c8:	00000298 	muleq	r0, r8, r2
    27cc:	98510001 	ldmdals	r1, {r0}^
    27d0:	a4000002 	strge	r0, [r0], #-2
    27d4:	04000002 	streq	r0, [r0], #-2
    27d8:	5101f300 	mrspl	pc, SP_irq	; <UNPREDICTABLE>
    27dc:	0002a49f 	muleq	r2, pc, r4	; <UNPREDICTABLE>
    27e0:	0002a700 	andeq	sl, r2, r0, lsl #14
    27e4:	51000100 	mrspl	r0, (UNDEF: 16)
    27e8:	000002a7 	andeq	r0, r0, r7, lsr #5
    27ec:	000002c8 	andeq	r0, r0, r8, asr #5
    27f0:	01f30004 	mvnseq	r0, r4
    27f4:	02c89f51 	sbceq	r9, r8, #324	; 0x144
    27f8:	02dc0000 	sbcseq	r0, ip, #0, 0
    27fc:	00010000 	andeq	r0, r1, r0
    2800:	0002dc51 	andeq	sp, r2, r1, asr ip
    2804:	00033800 	andeq	r3, r3, r0, lsl #16
    2808:	38001700 	stmdacc	r0, {r8, r9, sl, ip}
    280c:	f35101f3 	vbsl	q8, <illegal reg q8.5>, <illegal reg q9.5>
    2810:	4b405101 	blmi	1016c1c <__bss_end__+0x100bdf4>
    2814:	080c2224 	stmdaeq	ip, {r2, r5, r9, sp}
    2818:	2d800000 	stccs	0, cr0, [r0]
    281c:	16000128 	strne	r0, [r0], -r8, lsr #2
    2820:	00009f13 	andeq	r9, r0, r3, lsl pc
	...
    2834:	024c0000 	subeq	r0, ip, #0, 0
    2838:	025c0000 	subseq	r0, ip, #0, 0
    283c:	00010000 	andeq	r0, r1, r0
    2840:	00025c52 	andeq	r5, r2, r2, asr ip
    2844:	00026400 	andeq	r6, r2, r0, lsl #8
    2848:	03000500 	movweq	r0, #1280	; 0x500
    284c:	0000a9ec 	andeq	sl, r0, ip, ror #19
    2850:	00000264 	andeq	r0, r0, r4, ror #4
    2854:	0000027b 	andeq	r0, r0, fp, ror r2
    2858:	c8530001 	ldmdagt	r3, {r0}^
    285c:	d8000002 	stmdale	r0, {r1}
    2860:	01000002 	tsteq	r0, r2
    2864:	02d85200 	sbcseq	r5, r8, #0, 4
    2868:	02e30000 	rsceq	r0, r3, #0, 0
    286c:	00050000 	andeq	r0, r5, r0
    2870:	00a9ec03 	adceq	lr, r9, r3, lsl #24
    2874:	0002e800 	andeq	lr, r2, r0, lsl #16
    2878:	0002eb00 	andeq	lr, r2, r0, lsl #22
    287c:	53000100 	movwpl	r0, #256	; 0x100
	...
    2888:	02300004 	eorseq	r0, r0, #4, 0
    288c:	02340000 	eorseq	r0, r4, #0, 0
    2890:	00010000 	andeq	r0, r1, r0
    2894:	00000051 	andeq	r0, r0, r1, asr r0
    2898:	00000000 	andeq	r0, r0, r0
    289c:	3c000200 	sfmcc	f0, 4, [r0], {-0}
    28a0:	44000002 	strmi	r0, [r0], #-2
    28a4:	02000002 	andeq	r0, r0, #2, 0
    28a8:	009f3800 	addseq	r3, pc, r0, lsl #16
    28ac:	00000000 	andeq	r0, r0, r0
    28b0:	02000000 	andeq	r0, r0, #0, 0
    28b4:	00023c00 	andeq	r3, r2, r0, lsl #24
    28b8:	00024400 	andeq	r4, r2, r0, lsl #8
    28bc:	51000100 	mrspl	r0, (UNDEF: 16)
	...
    28c8:	00000001 	andeq	r0, r0, r1
    28cc:	024c0000 	subeq	r0, ip, #0, 0
    28d0:	02640000 	rsbeq	r0, r4, #0, 0
    28d4:	00010000 	andeq	r0, r1, r0
    28d8:	0002c851 	andeq	ip, r2, r1, asr r8
    28dc:	0002dc00 	andeq	sp, r2, r0, lsl #24
    28e0:	51000100 	mrspl	r0, (UNDEF: 16)
    28e4:	000002dc 	ldrdeq	r0, [r0], -ip
    28e8:	000002e8 	andeq	r0, r0, r8, ror #5
    28ec:	f3380017 	vqadd.u64	d0, d8, d7
    28f0:	01f35101 	mvnseq	r5, r1, lsl #2
    28f4:	244b4051 	strbcs	r4, [fp], #-81	; 0xffffffaf
    28f8:	00080c22 	andeq	r0, r8, r2, lsr #24
    28fc:	282d8000 	stmdacs	sp!, {pc}
    2900:	13160001 	tstne	r6, #1, 0
    2904:	0000009f 	muleq	r0, pc, r0	; <UNPREDICTABLE>
    2908:	00000000 	andeq	r0, r0, r0
    290c:	00000100 	andeq	r0, r0, r0, lsl #2
    2910:	00000000 	andeq	r0, r0, r0
    2914:	00024c00 	andeq	r4, r2, r0, lsl #24
    2918:	00025c00 	andeq	r5, r2, r0, lsl #24
    291c:	52000100 	andpl	r0, r0, #0
    2920:	0000025c 	andeq	r0, r0, ip, asr r2
    2924:	00000264 	andeq	r0, r0, r4, ror #4
    2928:	ec030005 	stc	0, cr0, [r3], {5}
    292c:	c80000a9 	stmdagt	r0, {r0, r3, r5, r7}
    2930:	d8000002 	stmdale	r0, {r1}
    2934:	01000002 	tsteq	r0, r2
    2938:	02d85200 	sbcseq	r5, r8, #0, 4
    293c:	02e30000 	rsceq	r0, r3, #0, 0
    2940:	00050000 	andeq	r0, r5, r0
    2944:	00a9ec03 	adceq	lr, r9, r3, lsl #24
	...
    2950:	4c000400 	cfstrsmi	mvf0, [r0], {-0}
    2954:	50000002 	andpl	r0, r0, r2
    2958:	01000002 	tsteq	r0, r2
    295c:	00005100 	andeq	r5, r0, r0, lsl #2
    2960:	00000000 	andeq	r0, r0, r0
    2964:	00030000 	andeq	r0, r3, r0
    2968:	00000264 	andeq	r0, r0, r4, ror #4
    296c:	00000268 	andeq	r0, r0, r8, ror #4
    2970:	00510001 	subseq	r0, r1, r1
    2974:	00000000 	andeq	r0, r0, r0
    2978:	03000000 	movweq	r0, #0
    297c:	00026400 	andeq	r6, r2, r0, lsl #8
    2980:	00026800 	andeq	r6, r2, r0, lsl #16
    2984:	53000100 	movwpl	r0, #256	; 0x100
	...
    2998:	000001bc 			; <UNDEFINED> instruction: 0x000001bc
    299c:	000001d3 	ldrdeq	r0, [r0], -r3
    29a0:	d3500001 	cmple	r0, #1, 0
    29a4:	f0000001 			; <UNDEFINED> instruction: 0xf0000001
    29a8:	01000001 	tsteq	r0, r1
    29ac:	01f05400 	mvnseq	r5, r0, lsl #8
    29b0:	02080000 	andeq	r0, r8, #0, 0
    29b4:	00010000 	andeq	r0, r1, r0
    29b8:	00020850 	andeq	r0, r2, r0, asr r8
    29bc:	00022000 	andeq	r2, r2, r0
    29c0:	54000100 	strpl	r0, [r0], #-256	; 0xffffff00
	...
    29d0:	000001d8 	ldrdeq	r0, [r0], -r8
    29d4:	000001e3 	andeq	r0, r0, r3, ror #3
    29d8:	e3500001 	cmp	r0, #1, 0
    29dc:	f0000001 			; <UNDEFINED> instruction: 0xf0000001
    29e0:	01000001 	tsteq	r0, r1
    29e4:	00005500 	andeq	r5, r0, r0, lsl #10
	...
    29fc:	01240000 			; <UNDEFINED> instruction: 0x01240000
    2a00:	01380000 	teqeq	r8, r0
    2a04:	00010000 	andeq	r0, r1, r0
    2a08:	00013850 	andeq	r3, r1, r0, asr r8
    2a0c:	00013c00 	andeq	r3, r1, r0, lsl #24
    2a10:	70000300 	andvc	r0, r0, r0, lsl #6
    2a14:	013c9f79 	teqeq	ip, r9, ror pc
    2a18:	01600000 	cmneq	r0, r0
    2a1c:	00010000 	andeq	r0, r1, r0
    2a20:	00016053 	andeq	r6, r1, r3, asr r0
    2a24:	00017800 	andeq	r7, r1, r0, lsl #16
    2a28:	50000100 	andpl	r0, r0, r0, lsl #2
    2a2c:	00000178 	andeq	r0, r0, r8, ror r1
    2a30:	00000180 	andeq	r0, r0, r0, lsl #3
    2a34:	01f30004 	mvnseq	r0, r4
    2a38:	01809f50 	orreq	r9, r0, r0, asr pc
    2a3c:	01900000 	orrseq	r0, r0, r0
    2a40:	00010000 	andeq	r0, r1, r0
    2a44:	00019053 	andeq	r9, r1, r3, asr r0
    2a48:	00019f00 	andeq	r9, r1, r0, lsl #30
    2a4c:	91000200 	mrsls	r0, R8_usr
    2a50:	00019f68 	andeq	r9, r1, r8, ror #30
    2a54:	0001bc00 	andeq	fp, r1, r0, lsl #24
    2a58:	f3000900 	vmls.i8	d0, d0, d0
    2a5c:	07235001 	streq	r5, [r3, -r1]!
    2a60:	9f1af809 	svcls	0x001af809
	...
    2a70:	00000144 	andeq	r0, r0, r4, asr #2
    2a74:	00000160 	andeq	r0, r0, r0, ror #2
    2a78:	80500001 	subshi	r0, r0, r1
    2a7c:	9c000001 	stcls	0, cr0, [r0], {1}
    2a80:	01000001 	tsteq	r0, r1
    2a84:	00005000 	andeq	r5, r0, r0
    2a88:	00000000 	andeq	r0, r0, r0
    2a8c:	00030000 	andeq	r0, r3, r0
    2a90:	00000134 	andeq	r0, r0, r4, lsr r1
    2a94:	0000013c 	andeq	r0, r0, ip, lsr r1
    2a98:	9f380002 	svcls	0x00380002
	...
    2aa4:	00000003 	andeq	r0, r0, r3
    2aa8:	00000134 	andeq	r0, r0, r4, lsr r1
    2aac:	00000138 	andeq	r0, r0, r8, lsr r1
    2ab0:	38500001 	ldmdacc	r0, {r0}^
    2ab4:	3c000001 	stccc	0, cr0, [r0], {1}
    2ab8:	03000001 	movweq	r0, #1
    2abc:	9f797000 	svcls	0x00797000
	...
    2ad4:	00300000 	eorseq	r0, r0, r0
    2ad8:	00600000 	rsbeq	r0, r0, r0
    2adc:	00010000 	andeq	r0, r1, r0
    2ae0:	00006050 	andeq	r6, r0, r0, asr r0
    2ae4:	00006c00 	andeq	r6, r0, r0, lsl #24
    2ae8:	03000500 	movweq	r0, #1280	; 0x500
    2aec:	0000a9ec 	andeq	sl, r0, ip, ror #19
    2af0:	0000006c 	andeq	r0, r0, ip, rrx
    2af4:	00000084 	andeq	r0, r0, r4, lsl #1
    2af8:	84500001 	ldrbhi	r0, [r0], #-1
    2afc:	8c000000 	stchi	0, cr0, [r0], {-0}
    2b00:	04000000 	streq	r0, [r0], #-0
    2b04:	5001f300 	andpl	pc, r1, r0, lsl #6
    2b08:	00008c9f 	muleq	r0, pc, ip	; <UNPREDICTABLE>
    2b0c:	0000ac00 	andeq	sl, r0, r0, lsl #24
    2b10:	50000100 	andpl	r0, r0, r0, lsl #2
    2b14:	000000ac 	andeq	r0, r0, ip, lsr #1
    2b18:	000000af 	andeq	r0, r0, pc, lsr #1
    2b1c:	68910002 	ldmvs	r1, {r1}
    2b20:	000000af 	andeq	r0, r0, pc, lsr #1
    2b24:	000000cc 	andeq	r0, r0, ip, asr #1
    2b28:	01f30004 	mvnseq	r0, r4
    2b2c:	00009f50 	andeq	r9, r0, r0, asr pc
	...
    2b3c:	00300000 	eorseq	r0, r0, r0
    2b40:	00800000 	addeq	r0, r0, r0
    2b44:	00010000 	andeq	r0, r1, r0
    2b48:	00008051 	andeq	r8, r0, r1, asr r0
    2b4c:	00008c00 	andeq	r8, r0, r0, lsl #24
    2b50:	f3000400 	vshl.u8	d0, d0, d0
    2b54:	8c9f5101 	ldfhis	f5, [pc], {1}
    2b58:	a8000000 	stmdage	r0, {}	; <UNPREDICTABLE>
    2b5c:	01000000 	mrseq	r0, (UNDEF: 0)
    2b60:	00a85100 	adceq	r5, r8, r0, lsl #2
    2b64:	00cc0000 	sbceq	r0, ip, r0
    2b68:	00040000 	andeq	r0, r4, r0
    2b6c:	9f5101f3 	svcls	0x005101f3
	...
    2b78:	00000001 	andeq	r0, r0, r1
	...
    2b84:	00380000 	eorseq	r0, r8, r0
    2b88:	00600000 	rsbeq	r0, r0, r0
    2b8c:	00010000 	andeq	r0, r1, r0
    2b90:	00006050 	andeq	r6, r0, r0, asr r0
    2b94:	00006c00 	andeq	r6, r0, r0, lsl #24
    2b98:	03000500 	movweq	r0, #1280	; 0x500
    2b9c:	0000a9ec 	andeq	sl, r0, ip, ror #19
    2ba0:	0000006c 	andeq	r0, r0, ip, rrx
    2ba4:	00000084 	andeq	r0, r0, r4, lsl #1
    2ba8:	84500001 	ldrbhi	r0, [r0], #-1
    2bac:	8c000000 	stchi	0, cr0, [r0], {-0}
    2bb0:	04000000 	streq	r0, [r0], #-0
    2bb4:	5001f300 	andpl	pc, r1, r0, lsl #6
    2bb8:	00008c9f 	muleq	r0, pc, ip	; <UNPREDICTABLE>
    2bbc:	0000ac00 	andeq	sl, r0, r0, lsl #24
    2bc0:	50000100 	andpl	r0, r0, r0, lsl #2
    2bc4:	000000ac 	andeq	r0, r0, ip, lsr #1
    2bc8:	000000af 	andeq	r0, r0, pc, lsr #1
    2bcc:	68910002 	ldmvs	r1, {r1}
    2bd0:	000000af 	andeq	r0, r0, pc, lsr #1
    2bd4:	000000cc 	andeq	r0, r0, ip, asr #1
    2bd8:	01f30004 	mvnseq	r0, r4
    2bdc:	00009f50 	andeq	r9, r0, r0, asr pc
	...
    2bec:	00000170 	andeq	r0, r0, r0, ror r1
    2bf0:	0000017c 	andeq	r0, r0, ip, ror r1
    2bf4:	7c500001 	mrrcvc	0, 0, r0, r0, cr1	; <UNPREDICTABLE>
    2bf8:	88000001 	stmdahi	r0, {r0}
    2bfc:	01000001 	tsteq	r0, r1
    2c00:	01885400 	orreq	r5, r8, r0, lsl #8
    2c04:	01980000 	orrseq	r0, r8, r0
    2c08:	00040000 	andeq	r0, r4, r0
    2c0c:	9f5001f3 	svcls	0x005001f3
	...
    2c20:	01780000 	cmneq	r8, r0
    2c24:	017c0000 	cmneq	ip, r0
    2c28:	000b0000 	andeq	r0, fp, r0
    2c2c:	25350070 	ldrcs	r0, [r5, #-112]!	; 0xffffff90
    2c30:	8080b423 	addhi	fp, r0, r3, lsr #8
    2c34:	7c9f0281 	lfmvc	f0, 4, [pc], {129}	; 0x81
    2c38:	80000001 	andhi	r0, r0, r1
    2c3c:	0b000001 	bleq	2c48 <__code_start__-0x53b8>
    2c40:	35007400 	strcc	r7, [r0, #-1024]	; 0xfffffc00
    2c44:	80b42325 	adcshi	r2, r4, r5, lsr #6
    2c48:	9f028180 	svcls	0x00028180
    2c4c:	00000180 	andeq	r0, r0, r0, lsl #3
    2c50:	00000183 	andeq	r0, r0, r3, lsl #3
    2c54:	83500001 	cmphi	r0, #1, 0
    2c58:	88000001 	stmdahi	r0, {r0}
    2c5c:	0b000001 	bleq	2c68 <__code_start__-0x5398>
    2c60:	35007400 	strcc	r7, [r0, #-1024]	; 0xfffffc00
    2c64:	80b42325 	adcshi	r2, r4, r5, lsr #6
    2c68:	9f028180 	svcls	0x00028180
    2c6c:	00000188 	andeq	r0, r0, r8, lsl #3
    2c70:	00000198 	muleq	r0, r8, r1
    2c74:	01f3000c 	mvnseq	r0, ip
    2c78:	23253550 			; <UNDEFINED> instruction: 0x23253550
    2c7c:	818080b4 	strhhi	r8, [r0, r4]
    2c80:	00009f02 	andeq	r9, r0, r2, lsl #30
    2c84:	00000000 	andeq	r0, r0, r0
    2c88:	00010000 	andeq	r0, r1, r0
    2c8c:	00000000 	andeq	r0, r0, r0
    2c90:	00000178 	andeq	r0, r0, r8, ror r1
    2c94:	0000017c 	andeq	r0, r0, ip, ror r1
    2c98:	00700005 	rsbseq	r0, r0, r5
    2c9c:	7c9f1a4f 	vldmiavc	pc, {s2-s80}
    2ca0:	88000001 	stmdahi	r0, {r0}
    2ca4:	05000001 	streq	r0, [r0, #-1]
    2ca8:	4f007400 	svcmi	0x00007400
    2cac:	01889f1a 	orreq	r9, r8, sl, lsl pc
    2cb0:	01980000 	orrseq	r0, r8, r0
    2cb4:	00010000 	andeq	r0, r1, r0
    2cb8:	00000054 	andeq	r0, r0, r4, asr r0
	...
    2ccc:	00014000 	andeq	r4, r1, r0
    2cd0:	00015400 	andeq	r5, r1, r0, lsl #8
    2cd4:	50000100 	andpl	r0, r0, r0, lsl #2
    2cd8:	00000154 	andeq	r0, r0, r4, asr r1
    2cdc:	00000158 	andeq	r0, r0, r8, asr r1
    2ce0:	58510001 	ldmdapl	r1, {r0}^
    2ce4:	5c000001 	stcpl	0, cr0, [r0], {1}
    2ce8:	04000001 	streq	r0, [r0], #-1
    2cec:	5001f300 	andpl	pc, r1, r0, lsl #6
    2cf0:	00015c9f 	muleq	r1, pc, ip	; <UNPREDICTABLE>
    2cf4:	00016000 	andeq	r6, r1, r0
    2cf8:	50000100 	andpl	r0, r0, r0, lsl #2
    2cfc:	00000160 	andeq	r0, r0, r0, ror #2
    2d00:	00000164 	andeq	r0, r0, r4, ror #2
    2d04:	64510001 	ldrbvs	r0, [r1], #-1
    2d08:	70000001 	andvc	r0, r0, r1
    2d0c:	04000001 	streq	r0, [r0], #-1
    2d10:	5001f300 	andpl	pc, r1, r0, lsl #6
    2d14:	0000009f 	muleq	r0, pc, r0	; <UNPREDICTABLE>
	...
    2d20:	00014000 	andeq	r4, r1, r0
    2d24:	00014c00 	andeq	r4, r1, r0, lsl #24
    2d28:	51000100 	mrspl	r0, (UNDEF: 16)
    2d2c:	0000014c 	andeq	r0, r0, ip, asr #2
    2d30:	00000170 	andeq	r0, r0, r0, ror r1
    2d34:	01f30004 	mvnseq	r0, r4
    2d38:	00009f51 	andeq	r9, r0, r1, asr pc
    2d3c:	00000000 	andeq	r0, r0, r0
    2d40:	00010000 	andeq	r0, r1, r0
    2d44:	00000000 	andeq	r0, r0, r0
    2d48:	00000150 	andeq	r0, r0, r0, asr r1
    2d4c:	00000154 	andeq	r0, r0, r4, asr r1
    2d50:	54500001 	ldrbpl	r0, [r0], #-1
    2d54:	58000001 	stmdapl	r0, {r0}
    2d58:	01000001 	tsteq	r0, r1
    2d5c:	01585100 	cmpeq	r8, r0, lsl #2
    2d60:	015c0000 	cmpeq	ip, r0
    2d64:	00040000 	andeq	r0, r4, r0
    2d68:	9f5001f3 	svcls	0x005001f3
	...
    2d74:	00000002 	andeq	r0, r0, r2
    2d78:	015c0000 	cmpeq	ip, r0
    2d7c:	01600000 	cmneq	r0, r0
    2d80:	00010000 	andeq	r0, r1, r0
    2d84:	00016050 	andeq	r6, r1, r0, asr r0
    2d88:	00016400 	andeq	r6, r1, r0, lsl #8
    2d8c:	51000100 	mrspl	r0, (UNDEF: 16)
    2d90:	00000164 	andeq	r0, r0, r4, ror #2
    2d94:	00000170 	andeq	r0, r0, r0, ror r1
    2d98:	01f30004 	mvnseq	r0, r4
    2d9c:	00009f50 	andeq	r9, r0, r0, asr pc
	...
    2dac:	000000e8 	andeq	r0, r0, r8, ror #1
    2db0:	00000108 	andeq	r0, r0, r8, lsl #2
    2db4:	08500001 	ldmdaeq	r0, {r0}^
    2db8:	28000001 	stmdacs	r0, {r0}
    2dbc:	01000001 	tsteq	r0, r1
    2dc0:	01285400 			; <UNDEFINED> instruction: 0x01285400
    2dc4:	01400000 	mrseq	r0, (UNDEF: 64)
    2dc8:	00040000 	andeq	r0, r4, r0
    2dcc:	9f5001f3 	svcls	0x005001f3
	...
    2dd8:	00000002 	andeq	r0, r0, r2
    2ddc:	00e80000 	rsceq	r0, r8, r0
    2de0:	01080000 	mrseq	r0, (UNDEF: 8)
    2de4:	00010000 	andeq	r0, r1, r0
    2de8:	00010850 	andeq	r0, r1, r0, asr r8
    2dec:	00012800 	andeq	r2, r1, r0, lsl #16
    2df0:	54000100 	strpl	r0, [r0], #-256	; 0xffffff00
    2df4:	00000128 	andeq	r0, r0, r8, lsr #2
    2df8:	00000140 	andeq	r0, r0, r0, asr #2
    2dfc:	01f30004 	mvnseq	r0, r4
    2e00:	00009f50 	andeq	r9, r0, r0, asr pc
	...
    2e10:	000000f0 	strdeq	r0, [r0], -r0	; <UNPREDICTABLE>
    2e14:	00000108 	andeq	r0, r0, r8, lsl #2
    2e18:	08500001 	ldmdaeq	r0, {r0}^
    2e1c:	28000001 	stmdacs	r0, {r0}
    2e20:	01000001 	tsteq	r0, r1
    2e24:	01285400 			; <UNDEFINED> instruction: 0x01285400
    2e28:	01400000 	mrseq	r0, (UNDEF: 64)
    2e2c:	00040000 	andeq	r0, r4, r0
    2e30:	9f5001f3 	svcls	0x005001f3
	...
    2e3c:	00000003 	andeq	r0, r0, r3
    2e40:	00f00000 	rscseq	r0, r0, r0
    2e44:	01080000 	mrseq	r0, (UNDEF: 8)
    2e48:	00070000 	andeq	r0, r7, r0
    2e4c:	1d3a0070 	ldcne	0, cr0, [sl, #-448]!	; 0xfffffe40
    2e50:	089f1e33 	ldmeq	pc, {r0, r1, r4, r5, r9, sl, fp, ip}	; <UNPREDICTABLE>
    2e54:	28000001 	stmdacs	r0, {r0}
    2e58:	07000001 	streq	r0, [r0, -r1]
    2e5c:	3a007400 	bcc	1fe64 <__bss_end__+0x1503c>
    2e60:	9f1e331d 	svcls	0x001e331d
    2e64:	00000128 	andeq	r0, r0, r8, lsr #2
    2e68:	00000140 	andeq	r0, r0, r0, asr #2
    2e6c:	01f30008 	mvnseq	r0, r8
    2e70:	331d3a50 	tstcc	sp, #80, 20	; 0x50000
    2e74:	00009f1e 	andeq	r9, r0, lr, lsl pc
	...
    2e84:	00000110 	andeq	r0, r0, r0, lsl r1
    2e88:	00000138 	andeq	r0, r0, r8, lsr r1
    2e8c:	38560001 	ldmdacc	r6, {r0}^
    2e90:	3b000001 	blcc	2e9c <__code_start__-0x5164>
    2e94:	01000001 	tsteq	r0, r1
    2e98:	013b5000 	teqeq	fp, r0
    2e9c:	01400000 	mrseq	r0, (UNDEF: 64)
    2ea0:	00260000 	eoreq	r0, r6, r0
    2ea4:	f75001f3 			; <UNDEFINED> instruction: 0xf75001f3
    2ea8:	f425f72c 	vld1.8	{d15}, [r5 :128], ip
    2eac:	cccd0825 	stclgt	8, cr0, [sp], {37}	; 0x25
    2eb0:	0000cccc 	andeq	ip, r0, ip, asr #25
    2eb4:	081e0000 	ldmdaeq	lr, {}	; <UNPREDICTABLE>
    2eb8:	2525f720 	strcs	pc, [r5, #-1824]!	; 0xfffff8e0
    2ebc:	00f72cf7 	ldrshteq	r2, [r7], #199	; 0xc7
    2ec0:	80232533 	eorhi	r2, r3, r3, lsr r5
    2ec4:	3240a080 	subcc	sl, r0, #128, 0	; 0x80
    2ec8:	00009f24 	andeq	r9, r0, r4, lsr #30
    2ecc:	00000000 	andeq	r0, r0, r0
    2ed0:	01000000 	mrseq	r0, (UNDEF: 0)
    2ed4:	00000001 	andeq	r0, r0, r1
    2ed8:	01200000 			; <UNDEFINED> instruction: 0x01200000
    2edc:	01200000 			; <UNDEFINED> instruction: 0x01200000
    2ee0:	00010000 	andeq	r0, r1, r0
    2ee4:	00012050 	andeq	r2, r1, r0, asr r0
    2ee8:	00012800 	andeq	r2, r1, r0, lsl #16
    2eec:	37000d00 	strcc	r0, [r0, -r0, lsl #26]
    2ef0:	1d3a0074 	ldcne	0, cr0, [sl, #-464]!	; 0xfffffe30
    2ef4:	20241e33 	eorcs	r1, r4, r3, lsr lr
    2ef8:	9f1a0070 	svcls	0x001a0070
    2efc:	00000128 	andeq	r0, r0, r8, lsr #2
    2f00:	00000130 	andeq	r0, r0, r0, lsr r1
    2f04:	f337000e 	vhadd.u<illegal width 64>	d0, d7, d14
    2f08:	1d3a5001 	ldcne	0, cr5, [sl, #-4]!
    2f0c:	20241e33 	eorcs	r1, r4, r3, lsr lr
    2f10:	9f1a0070 	svcls	0x001a0070
    2f14:	00000130 	andeq	r0, r0, r0, lsr r1
    2f18:	0000013b 	andeq	r0, r0, fp, lsr r1
    2f1c:	f337000e 	vhadd.u<illegal width 64>	d0, d7, d14
    2f20:	1d3a5001 	ldcne	0, cr5, [sl, #-4]!
    2f24:	20241e33 	eorcs	r1, r4, r3, lsr lr
    2f28:	9f1a0073 	svcls	0x001a0073
	...
    2f38:	00000060 	andeq	r0, r0, r0, rrx
    2f3c:	00000090 	muleq	r0, r0, r0
    2f40:	90500001 	subsls	r0, r0, r1
    2f44:	b8000000 	stmdalt	r0, {}	; <UNPREDICTABLE>
    2f48:	04000000 	streq	r0, [r0], #-0
    2f4c:	5001f300 	andpl	pc, r1, r0, lsl #6
    2f50:	0000009f 	muleq	r0, pc, r0	; <UNPREDICTABLE>
    2f54:	00000000 	andeq	r0, r0, r0
    2f58:	00000200 	andeq	r0, r0, r0, lsl #4
    2f5c:	00006000 	andeq	r6, r0, r0
    2f60:	00009000 	andeq	r9, r0, r0
    2f64:	50000100 	andpl	r0, r0, r0, lsl #2
    2f68:	00000090 	muleq	r0, r0, r0
    2f6c:	000000b8 	strheq	r0, [r0], -r8
    2f70:	01f30004 	mvnseq	r0, r4
    2f74:	00009f50 	andeq	r9, r0, r0, asr pc
	...
    2f80:	00680000 	rsbeq	r0, r8, r0
    2f84:	00900000 	addseq	r0, r0, r0
    2f88:	00010000 	andeq	r0, r1, r0
    2f8c:	00009050 	andeq	r9, r0, r0, asr r0
    2f90:	0000b800 	andeq	fp, r0, r0, lsl #16
    2f94:	f3000400 	vshl.u8	d0, d0, d0
    2f98:	009f5001 	addseq	r5, pc, r1
	...
    2fa4:	a0000000 	andge	r0, r0, r0
    2fa8:	b0000000 	andlt	r0, r0, r0
    2fac:	01000000 	mrseq	r0, (UNDEF: 0)
    2fb0:	00b05400 	adcseq	r5, r0, r0, lsl #8
    2fb4:	00b80000 	adcseq	r0, r8, r0
    2fb8:	00290000 	eoreq	r0, r9, r0
    2fbc:	f35001f3 	vbsl	q8, q8, <illegal reg q9.5>
    2fc0:	2cf75001 	ldclcs	0, cr5, [r7], #4
    2fc4:	25f425f7 	ldrbcs	r2, [r4, #1527]!	; 0x5f7
    2fc8:	cccccd08 	stclgt	13, cr12, [ip], {8}
    2fcc:	000000cc 	andeq	r0, r0, ip, asr #1
    2fd0:	20081e00 	andcs	r1, r8, r0, lsl #28
    2fd4:	f72525f7 			; <UNDEFINED> instruction: 0xf72525f7
    2fd8:	3300f72c 	movwcc	pc, #1836	; 0x72c	; <UNPREDICTABLE>
    2fdc:	311e3525 	tstcc	lr, r5, lsr #10
    2fe0:	1e331c24 	cdpne	12, 3, cr1, cr3, cr4, {1}
    2fe4:	0000009f 	muleq	r0, pc, r0	; <UNPREDICTABLE>
    2fe8:	00000000 	andeq	r0, r0, r0
    2fec:	00000100 	andeq	r0, r0, r0, lsl #2
    2ff0:	a0000000 	andge	r0, r0, r0
    2ff4:	b0000000 	andlt	r0, r0, r0
    2ff8:	01000000 	mrseq	r0, (UNDEF: 0)
    2ffc:	00b05500 	adcseq	r5, r0, r0, lsl #10
    3000:	00b30000 	adcseq	r0, r3, r0
    3004:	00010000 	andeq	r0, r1, r0
    3008:	0000b350 	andeq	fp, r0, r0, asr r3
    300c:	0000b800 	andeq	fp, r0, r0, lsl #16
    3010:	f3002600 	vmax.u8	d2, d0, d0
    3014:	2cf75001 	ldclcs	0, cr5, [r7], #4
    3018:	25f425f7 	ldrbcs	r2, [r4, #1527]!	; 0x5f7
    301c:	cccccd08 	stclgt	13, cr12, [ip], {8}
    3020:	000000cc 	andeq	r0, r0, ip, asr #1
    3024:	20081e00 	andcs	r1, r8, r0, lsl #28
    3028:	f72525f7 			; <UNDEFINED> instruction: 0xf72525f7
    302c:	3300f72c 	movwcc	pc, #1836	; 0x72c	; <UNPREDICTABLE>
    3030:	80802325 	addhi	r2, r0, r5, lsr #6
    3034:	243240a0 	ldrtcs	r4, [r2], #-160	; 0xffffff60
    3038:	0000009f 	muleq	r0, pc, r0	; <UNPREDICTABLE>
    303c:	00000000 	andeq	r0, r0, r0
    3040:	00000200 	andeq	r0, r0, r0, lsl #4
    3044:	00000101 	andeq	r0, r0, r1, lsl #2
    3048:	0000a000 	andeq	sl, r0, r0
    304c:	0000a400 	andeq	sl, r0, r0, lsl #8
    3050:	50000100 	andpl	r0, r0, r0, lsl #2
    3054:	000000a4 	andeq	r0, r0, r4, lsr #1
    3058:	000000a4 	andeq	r0, r0, r4, lsr #1
    305c:	a4530001 	ldrbge	r0, [r3], #-1
    3060:	a8000000 	stmdage	r0, {}	; <UNPREDICTABLE>
    3064:	08000000 	stmdaeq	r0, {}	; <UNPREDICTABLE>
    3068:	00743100 	rsbseq	r3, r4, r0, lsl #2
    306c:	21007324 	tstcs	r0, r4, lsr #6
    3070:	0000a89f 	muleq	r0, pc, r8	; <UNPREDICTABLE>
    3074:	0000b300 	andeq	fp, r0, r0, lsl #6
    3078:	51000100 	mrspl	r0, (UNDEF: 16)
	...
    308c:	0000003c 	andeq	r0, r0, ip, lsr r0
    3090:	3c500001 	mrrccc	0, 0, r0, r0, cr1	; <UNPREDICTABLE>
    3094:	60000000 	andvs	r0, r0, r0
    3098:	04000000 	streq	r0, [r0], #-0
    309c:	5001f300 	andpl	pc, r1, r0, lsl #6
    30a0:	0000009f 	muleq	r0, pc, r0	; <UNPREDICTABLE>
	...
    30b0:	00003f00 	andeq	r3, r0, r0, lsl #30
    30b4:	51000100 	mrspl	r0, (UNDEF: 16)
    30b8:	0000003f 	andeq	r0, r0, pc, lsr r0
    30bc:	00000060 	andeq	r0, r0, r0, rrx
    30c0:	01f30004 	mvnseq	r0, r4
    30c4:	00009f51 	andeq	r9, r0, r1, asr pc
	...
    30d0:	00080000 	andeq	r0, r8, r0
    30d4:	003f0000 	eorseq	r0, pc, r0
    30d8:	00010000 	andeq	r0, r1, r0
    30dc:	00003f51 	andeq	r3, r0, r1, asr pc
    30e0:	00006000 	andeq	r6, r0, r0
    30e4:	f3000400 	vshl.u8	d0, d0, d0
    30e8:	009f5101 	addseq	r5, pc, r1, lsl #2
	...
    30f4:	08000000 	stmdaeq	r0, {}	; <UNPREDICTABLE>
    30f8:	3c000000 	stccc	0, cr0, [r0], {-0}
    30fc:	01000000 	mrseq	r0, (UNDEF: 0)
    3100:	003c5000 	eorseq	r5, ip, r0
    3104:	00600000 	rsbeq	r0, r0, r0
    3108:	00040000 	andeq	r0, r4, r0
    310c:	9f5001f3 	svcls	0x005001f3
	...
    311c:	00000048 	andeq	r0, r0, r8, asr #32
    3120:	00000058 	andeq	r0, r0, r8, asr r0
    3124:	58540001 	ldmdapl	r4, {r0}^
    3128:	60000000 	andvs	r0, r0, r0
    312c:	29000000 	stmdbcs	r0, {}	; <UNPREDICTABLE>
    3130:	5001f300 	andpl	pc, r1, r0, lsl #6
    3134:	f75001f3 			; <UNDEFINED> instruction: 0xf75001f3
    3138:	f425f72c 	vld1.8	{d15}, [r5 :128], ip
    313c:	cccd0825 	stclgt	8, cr0, [sp], {37}	; 0x25
    3140:	0000cccc 	andeq	ip, r0, ip, asr #25
    3144:	081e0000 	ldmdaeq	lr, {}	; <UNPREDICTABLE>
    3148:	2525f720 	strcs	pc, [r5, #-1824]!	; 0xfffff8e0
    314c:	00f72cf7 	ldrshteq	r2, [r7], #199	; 0xc7
    3150:	1e352533 	mrcne	5, 1, r2, cr5, cr3, {1}
    3154:	331c2431 	tstcc	ip, #822083584	; 0x31000000
    3158:	00009f1e 	andeq	r9, r0, lr, lsl pc
    315c:	00000000 	andeq	r0, r0, r0
    3160:	00010000 	andeq	r0, r1, r0
    3164:	00000000 	andeq	r0, r0, r0
    3168:	00000048 	andeq	r0, r0, r8, asr #32
    316c:	00000058 	andeq	r0, r0, r8, asr r0
    3170:	58560001 	ldmdapl	r6, {r0}^
    3174:	5b000000 	blpl	317c <__code_start__-0x4e84>
    3178:	01000000 	mrseq	r0, (UNDEF: 0)
    317c:	005b5000 	subseq	r5, fp, r0
    3180:	00600000 	rsbeq	r0, r0, r0
    3184:	00260000 	eoreq	r0, r6, r0
    3188:	f75001f3 			; <UNDEFINED> instruction: 0xf75001f3
    318c:	f425f72c 	vld1.8	{d15}, [r5 :128], ip
    3190:	cccd0825 	stclgt	8, cr0, [sp], {37}	; 0x25
    3194:	0000cccc 	andeq	ip, r0, ip, asr #25
    3198:	081e0000 	ldmdaeq	lr, {}	; <UNPREDICTABLE>
    319c:	2525f720 	strcs	pc, [r5, #-1824]!	; 0xfffff8e0
    31a0:	00f72cf7 	ldrshteq	r2, [r7], #199	; 0xc7
    31a4:	80232533 	eorhi	r2, r3, r3, lsr r5
    31a8:	3240a080 	subcc	sl, r0, #128, 0	; 0x80
    31ac:	00009f24 	andeq	r9, r0, r4, lsr #30
    31b0:	00000000 	andeq	r0, r0, r0
    31b4:	00020000 	andeq	r0, r2, r0
    31b8:	00010100 	andeq	r0, r1, r0, lsl #2
    31bc:	00480000 	subeq	r0, r8, r0
    31c0:	004c0000 	subeq	r0, ip, r0
    31c4:	00010000 	andeq	r0, r1, r0
    31c8:	00004c50 	andeq	r4, r0, r0, asr ip
    31cc:	00004c00 	andeq	r4, r0, r0, lsl #24
    31d0:	51000100 	mrspl	r0, (UNDEF: 16)
    31d4:	0000004c 	andeq	r0, r0, ip, asr #32
    31d8:	00000050 	andeq	r0, r0, r0, asr r0
    31dc:	0075000c 	rsbseq	r0, r5, ip
    31e0:	741aff08 	ldrvc	pc, [sl], #-3848	; 0xfffff0f8
    31e4:	00712400 	rsbseq	r2, r1, r0, lsl #8
    31e8:	00509f21 	subseq	r9, r0, r1, lsr #30
    31ec:	00540000 	subseq	r0, r4, r0
    31f0:	00120000 	andseq	r0, r2, r0
    31f4:	24007437 	strcs	r7, [r0], #-1079	; 0xfffffbc9
    31f8:	1a007020 	bne	1f280 <__bss_end__+0x14458>
    31fc:	ff080075 			; <UNDEFINED> instruction: 0xff080075
    3200:	2400741a 	strcs	r7, [r0], #-1050	; 0xfffffbe6
    3204:	00009f21 	andeq	r9, r0, r1, lsr #30
	...
    3214:	000000b8 	strheq	r0, [r0], -r8
    3218:	000000c4 	andeq	r0, r0, r4, asr #1
    321c:	c4500001 	ldrbgt	r0, [r0], #-1
    3220:	cb000000 	blgt	3228 <__code_start__-0x4dd8>
    3224:	01000000 	mrseq	r0, (UNDEF: 0)
    3228:	00cb5300 	sbceq	r5, fp, r0, lsl #6
    322c:	00d00000 	sbcseq	r0, r0, r0
    3230:	00040000 	andeq	r0, r4, r0
    3234:	9f5001f3 	svcls	0x005001f3
	...
    3244:	00d00000 	sbcseq	r0, r0, r0
    3248:	00dc0000 	sbcseq	r0, ip, r0
    324c:	00010000 	andeq	r0, r1, r0
    3250:	0000dc50 	andeq	sp, r0, r0, asr ip
    3254:	0000e300 	andeq	lr, r0, r0, lsl #6
    3258:	53000100 	movwpl	r0, #256	; 0x100
    325c:	000000e3 	andeq	r0, r0, r3, ror #1
    3260:	000000e8 	andeq	r0, r0, r8, ror #1
    3264:	01f30004 	mvnseq	r0, r4
    3268:	00009f50 	andeq	r9, r0, r0, asr pc
	...
    3278:	000b0000 	andeq	r0, fp, r0
    327c:	00010000 	andeq	r0, r1, r0
    3280:	00000b50 	andeq	r0, r0, r0, asr fp
    3284:	00001400 	andeq	r1, r0, r0, lsl #8
    3288:	54000100 	strpl	r0, [r0], #-256	; 0xffffff00
	...
    329c:	00000018 	andeq	r0, r0, r8, lsl r0
    32a0:	18510001 	ldmdane	r1, {r0}^
    32a4:	2c000000 	stccs	0, cr0, [r0], {-0}
    32a8:	04000000 	streq	r0, [r0], #-0
    32ac:	5101f300 	mrspl	pc, SP_irq	; <UNPREDICTABLE>
    32b0:	0000009f 	muleq	r0, pc, r0	; <UNPREDICTABLE>
    32b4:	00000000 	andeq	r0, r0, r0
    32b8:	00000200 	andeq	r0, r0, r0, lsl #4
    32bc:	00000000 	andeq	r0, r0, r0
    32c0:	01010000 	mrseq	r0, (UNDEF: 1)
    32c4:	00000000 	andeq	r0, r0, r0
    32c8:	04000000 	streq	r0, [r0], #-0
    32cc:	01000000 	mrseq	r0, (UNDEF: 0)
    32d0:	00045000 	andeq	r5, r4, r0
    32d4:	00080000 	andeq	r0, r8, r0
    32d8:	00010000 	andeq	r0, r1, r0
    32dc:	00000852 	andeq	r0, r0, r2, asr r8
    32e0:	00000c00 	andeq	r0, r0, r0, lsl #24
    32e4:	72000300 	andvc	r0, r0, #0, 6
    32e8:	000c9f01 	andeq	r9, ip, r1, lsl #30
    32ec:	00180000 	andseq	r0, r8, r0
    32f0:	00010000 	andeq	r0, r1, r0
    32f4:	00001852 	andeq	r1, r0, r2, asr r8
    32f8:	00001c00 	andeq	r1, r0, r0, lsl #24
    32fc:	53000100 	movwpl	r0, #256	; 0x100
    3300:	0000001c 	andeq	r0, r0, ip, lsl r0
    3304:	00000024 	andeq	r0, r0, r4, lsr #32
    3308:	01730003 	cmneq	r3, r3
    330c:	0000249f 	muleq	r0, pc, r4	; <UNPREDICTABLE>
    3310:	00002c00 	andeq	r2, r0, r0, lsl #24
    3314:	53000100 	movwpl	r0, #256	; 0x100
	...
    3320:	00020203 	andeq	r0, r2, r3, lsl #4
    3324:	00000000 	andeq	r0, r0, r0
    3328:	00180000 	andseq	r0, r8, r0
    332c:	00010000 	andeq	r0, r1, r0
    3330:	00001851 	andeq	r1, r0, r1, asr r8
    3334:	00001c00 	andeq	r1, r0, r0, lsl #24
    3338:	71000300 	mrsvc	r0, LR_irq
    333c:	001c9f01 	andseq	r9, ip, r1, lsl #30
    3340:	002c0000 	eoreq	r0, ip, r0
    3344:	00010000 	andeq	r0, r1, r0
    3348:	00000051 	andeq	r0, r0, r1, asr r0
	...
    3354:	08000000 	stmdaeq	r0, {}	; <UNPREDICTABLE>
    3358:	0c000000 	stceq	0, cr0, [r0], {-0}
    335c:	02000000 	andeq	r0, r0, #0, 0
    3360:	0c007200 	sfmeq	f7, 4, [r0], {-0}
    3364:	18000000 	stmdane	r0, {}	; <UNPREDICTABLE>
    3368:	02000000 	andeq	r0, r0, #0, 0
    336c:	1c007300 	stcne	3, cr7, [r0], {-0}
    3370:	2c000000 	stccs	0, cr0, [r0], {-0}
    3374:	01000000 	mrseq	r0, (UNDEF: 0)
    3378:	00005200 	andeq	r5, r0, r0, lsl #4
	...
    3390:	00140000 	andseq	r0, r4, r0
    3394:	00010000 	andeq	r0, r1, r0
    3398:	00001450 	andeq	r1, r0, r0, asr r4
    339c:	00001800 	andeq	r1, r0, r0, lsl #16
    33a0:	70000300 	andvc	r0, r0, r0, lsl #6
    33a4:	00189f01 	andseq	r9, r8, r1, lsl #30
    33a8:	00200000 	eoreq	r0, r0, r0
    33ac:	00010000 	andeq	r0, r1, r0
    33b0:	00002450 	andeq	r2, r0, r0, asr r4
    33b4:	00002800 	andeq	r2, r0, r0, lsl #16
    33b8:	50000100 	andpl	r0, r0, r0, lsl #2
    33bc:	00000028 	andeq	r0, r0, r8, lsr #32
    33c0:	00000030 	andeq	r0, r0, r0, lsr r0
    33c4:	01700003 	cmneq	r0, r3
    33c8:	0000389f 	muleq	r0, pc, r8	; <UNPREDICTABLE>
    33cc:	00004000 	andeq	r4, r0, r0
    33d0:	50000100 	andpl	r0, r0, r0, lsl #2
	...
    33e4:	00240000 	eoreq	r0, r4, r0
    33e8:	00010000 	andeq	r0, r1, r0
    33ec:	00002451 	andeq	r2, r0, r1, asr r4
    33f0:	00002800 	andeq	r2, r0, r0, lsl #16
    33f4:	5c000100 	stfpls	f0, [r0], {-0}
    33f8:	00000028 	andeq	r0, r0, r8, lsr #32
    33fc:	00000044 	andeq	r0, r0, r4, asr #32
    3400:	00510001 	subseq	r0, r1, r1
	...
    340c:	00000202 	andeq	r0, r0, r2, lsl #4
    3410:	00000000 	andeq	r0, r0, r0
    3414:	00000400 	andeq	r0, r0, r0, lsl #8
    3418:	51000100 	mrspl	r0, (UNDEF: 16)
    341c:	00000004 	andeq	r0, r0, r4
    3420:	00000008 	andeq	r0, r0, r8
    3424:	01710003 	cmneq	r1, r3
    3428:	0000089f 	muleq	r0, pc, r8	; <UNPREDICTABLE>
    342c:	00001800 	andeq	r1, r0, r0, lsl #16
    3430:	51000100 	mrspl	r0, (UNDEF: 16)
	...
    343c:	00000002 	andeq	r0, r0, r2
    3440:	00040000 	andeq	r0, r4, r0
    3444:	00010000 	andeq	r0, r1, r0
    3448:	00000050 	andeq	r0, r0, r0, asr r0
	...
    3458:	00000800 	andeq	r0, r0, r0, lsl #16
    345c:	50000100 	andpl	r0, r0, r0, lsl #2
    3460:	00000008 	andeq	r0, r0, r8
    3464:	00000030 	andeq	r0, r0, r0, lsr r0
    3468:	01f30004 	mvnseq	r0, r4
    346c:	00009f50 	andeq	r9, r0, r0, asr pc
	...
    347c:	00080000 	andeq	r0, r8, r0
    3480:	00010000 	andeq	r0, r1, r0
    3484:	00000851 	andeq	r0, r0, r1, asr r8
    3488:	00003000 	andeq	r3, r0, r0
    348c:	f3000400 	vshl.u8	d0, d0, d0
    3490:	009f5101 	addseq	r5, pc, r1, lsl #2
	...
    34a0:	02020100 	andeq	r0, r2, #0
    34a4:	00000000 	andeq	r0, r0, r0
    34a8:	00000400 	andeq	r0, r0, r0, lsl #8
    34ac:	52000100 	andpl	r0, r0, #0
    34b0:	00000004 	andeq	r0, r0, r4
    34b4:	00000008 	andeq	r0, r0, r8
    34b8:	01f30004 	mvnseq	r0, r4
    34bc:	00089f52 	andeq	r9, r8, r2, asr pc
    34c0:	00180000 	andseq	r0, r8, r0
    34c4:	00060000 	andeq	r0, r6, r0
    34c8:	315201f3 	ldrshcc	r0, [r2, #-19]	; 0xffffffed
    34cc:	00189f1c 	andseq	r9, r8, ip, lsl pc
    34d0:	00180000 	andseq	r0, r8, r0
    34d4:	00040000 	andeq	r0, r4, r0
    34d8:	9f5201f3 	svcls	0x005201f3
    34dc:	00000018 	andeq	r0, r0, r8, lsl r0
    34e0:	00000030 	andeq	r0, r0, r0, lsr r0
    34e4:	01f30006 	mvnseq	r0, r6
    34e8:	9f1c3152 	svcls	0x001c3152
	...
    34f4:	00000002 	andeq	r0, r0, r2
    34f8:	00000001 	andeq	r0, r0, r1
    34fc:	00000000 	andeq	r0, r0, r0
    3500:	0000000c 	andeq	r0, r0, ip
    3504:	0c500001 	mrrceq	0, 0, r0, r0, cr1	; <UNPREDICTABLE>
    3508:	18000000 	stmdane	r0, {}	; <UNPREDICTABLE>
    350c:	03000000 	movweq	r0, #0
    3510:	9f7f7000 	svcls	0x007f7000
    3514:	00000018 	andeq	r0, r0, r8, lsl r0
    3518:	00000024 	andeq	r0, r0, r4, lsr #32
    351c:	28500001 	ldmdacs	r0, {r0}^
    3520:	2c000000 	stccs	0, cr0, [r0], {-0}
    3524:	03000000 	movweq	r0, #0
    3528:	9f7f7000 	svcls	0x007f7000
	...
    3534:	00000002 	andeq	r0, r0, r2
    3538:	00000000 	andeq	r0, r0, r0
    353c:	000c0000 	andeq	r0, ip, r0
    3540:	00010000 	andeq	r0, r1, r0
    3544:	00000c51 	andeq	r0, r0, r1, asr ip
    3548:	00001000 	andeq	r1, r0, r0
    354c:	71000300 	mrsvc	r0, LR_irq
    3550:	00109f01 	andseq	r9, r0, r1, lsl #30
    3554:	00300000 	eorseq	r0, r0, r0
    3558:	00010000 	andeq	r0, r1, r0
    355c:	00000051 	andeq	r0, r0, r1, asr r0
    3560:	00000000 	andeq	r0, r0, r0
	...

Disassembly of section .debug_aranges:

00000000 <.debug_aranges>:
   0:	0000001c 	andeq	r0, r0, ip, lsl r0
   4:	00000002 	andeq	r0, r0, r2
   8:	00040000 	andeq	r0, r4, r0
   c:	00000000 	andeq	r0, r0, r0
  10:	00008038 	andeq	r8, r0, r8, lsr r0
  14:	00000100 	andeq	r0, r0, r0, lsl #2
	...
  20:	0000001c 	andeq	r0, r0, ip, lsl r0
  24:	04a50002 	strteq	r0, [r5], #2
  28:	00040000 	andeq	r0, r4, r0
  2c:	00000000 	andeq	r0, r0, r0
  30:	00008138 	andeq	r8, r0, r8, lsr r1
  34:	00000294 	muleq	r0, r4, r2
	...
  40:	0000001c 	andeq	r0, r0, ip, lsl r0
  44:	0ce60002 	stcleq	0, cr0, [r6], #8
  48:	00040000 	andeq	r0, r4, r0
  4c:	00000000 	andeq	r0, r0, r0
  50:	000083cc 	andeq	r8, r0, ip, asr #7
  54:	00000190 	muleq	r0, r0, r1
	...
  60:	0000001c 	andeq	r0, r0, ip, lsl r0
  64:	0fdb0002 	svceq	0x00db0002
  68:	00040000 	andeq	r0, r4, r0
  6c:	00000000 	andeq	r0, r0, r0
  70:	0000855c 	andeq	r8, r0, ip, asr r5
  74:	000005a4 	andeq	r0, r0, r4, lsr #11
	...
  80:	0000001c 	andeq	r0, r0, ip, lsl r0
  84:	1d6a0002 	stclne	0, cr0, [sl, #-8]!
  88:	00040000 	andeq	r0, r4, r0
  8c:	00000000 	andeq	r0, r0, r0
  90:	00008b08 	andeq	r8, r0, r8, lsl #22
  94:	00000078 	andeq	r0, r0, r8, ror r0
	...
  a0:	0000001c 	andeq	r0, r0, ip, lsl r0
  a4:	1eae0002 	cdpne	0, 10, cr0, cr14, cr2, {0}
  a8:	00040000 	andeq	r0, r4, r0
  ac:	00000000 	andeq	r0, r0, r0
  b0:	00008b80 	andeq	r8, r0, r0, lsl #23
  b4:	00000058 	andeq	r0, r0, r8, asr r0
	...
  c0:	0000001c 	andeq	r0, r0, ip, lsl r0
  c4:	204f0002 	subcs	r0, pc, r2
  c8:	00040000 	andeq	r0, r4, r0
  cc:	00000000 	andeq	r0, r0, r0
  d0:	00008bd8 	ldrdeq	r8, [r0], -r8	; <UNPREDICTABLE>
  d4:	00000038 	andeq	r0, r0, r8, lsr r0
	...
  e0:	0000001c 	andeq	r0, r0, ip, lsl r0
  e4:	21460002 	cmpcs	r6, r2
  e8:	00040000 	andeq	r0, r4, r0
  ec:	00000000 	andeq	r0, r0, r0
  f0:	00008c10 	andeq	r8, r0, r0, lsl ip
  f4:	000009b4 			; <UNDEFINED> instruction: 0x000009b4
	...
 100:	0000001c 	andeq	r0, r0, ip, lsl r0
 104:	2dc90002 	stclcs	0, cr0, [r9, #8]
 108:	00040000 	andeq	r0, r4, r0
 10c:	00000000 	andeq	r0, r0, r0
 110:	000095c4 	andeq	r9, r0, r4, asr #11
 114:	0000002c 	andeq	r0, r0, ip, lsr #32
	...
 120:	0000001c 	andeq	r0, r0, ip, lsl r0
 124:	2efc0002 	cdpcs	0, 15, cr0, cr12, cr2, {0}
 128:	00040000 	andeq	r0, r4, r0
 12c:	00000000 	andeq	r0, r0, r0
 130:	000095f0 	strdeq	r9, [r0], -r0
 134:	000000f8 	strdeq	r0, [r0], -r8
	...
 140:	0000001c 	andeq	r0, r0, ip, lsl r0
 144:	30900002 	addscc	r0, r0, r2
 148:	00040000 	andeq	r0, r4, r0
 14c:	00000000 	andeq	r0, r0, r0
 150:	000096e8 	andeq	r9, r0, r8, ror #13
 154:	00000004 	andeq	r0, r0, r4
	...
 160:	0000001c 	andeq	r0, r0, ip, lsl r0
 164:	31620002 	cmncc	r2, r2
 168:	00040000 	andeq	r0, r4, r0
 16c:	00000000 	andeq	r0, r0, r0
 170:	000096ec 	andeq	r9, r0, ip, ror #13
 174:	0000008c 	andeq	r0, r0, ip, lsl #1
	...
 180:	0000001c 	andeq	r0, r0, ip, lsl r0
 184:	33e30002 	mvncc	r0, #2, 0
 188:	00040000 	andeq	r0, r4, r0
 18c:	00000000 	andeq	r0, r0, r0
 190:	00009778 	andeq	r9, r0, r8, ror r7
 194:	0000011c 	andeq	r0, r0, ip, lsl r1
	...
 1a0:	0000001c 	andeq	r0, r0, ip, lsl r0
 1a4:	39260002 	stmdbcc	r6!, {r1}
 1a8:	00040000 	andeq	r0, r4, r0
 1ac:	00000000 	andeq	r0, r0, r0
 1b0:	00009894 	muleq	r0, r4, r8
 1b4:	000001f0 	strdeq	r0, [r0], -r0	; <UNPREDICTABLE>
	...
 1c0:	0000001c 	andeq	r0, r0, ip, lsl r0
 1c4:	3ef70002 	cdpcc	0, 15, cr0, cr7, cr2, {0}
 1c8:	00040000 	andeq	r0, r4, r0
 1cc:	00000000 	andeq	r0, r0, r0
 1d0:	00009a84 	andeq	r9, r0, r4, lsl #21
 1d4:	000003b0 			; <UNDEFINED> instruction: 0x000003b0
	...
 1e0:	0000001c 	andeq	r0, r0, ip, lsl r0
 1e4:	47e40002 	strbmi	r0, [r4, r2]!
 1e8:	00040000 	andeq	r0, r4, r0
 1ec:	00000000 	andeq	r0, r0, r0
 1f0:	00009e34 	andeq	r9, r0, r4, lsr lr
 1f4:	00000198 	muleq	r0, r8, r1
	...
 200:	0000001c 	andeq	r0, r0, ip, lsl r0
 204:	4e5b0002 	cdpmi	0, 5, cr0, cr11, cr2, {0}
 208:	00040000 	andeq	r0, r4, r0
 20c:	00000000 	andeq	r0, r0, r0
 210:	00009fcc 	andeq	r9, r0, ip, asr #31
 214:	0000003c 	andeq	r0, r0, ip, lsr r0
	...
 220:	0000001c 	andeq	r0, r0, ip, lsl r0
 224:	4fa80002 	svcmi	0x00a80002
 228:	00040000 	andeq	r0, r4, r0
 22c:	00000000 	andeq	r0, r0, r0
 230:	0000a008 	andeq	sl, r0, r8
 234:	0000002c 	andeq	r0, r0, ip, lsr #32
	...
 240:	0000001c 	andeq	r0, r0, ip, lsl r0
 244:	50e30002 	rscpl	r0, r3, r2
 248:	00040000 	andeq	r0, r4, r0
 24c:	00000000 	andeq	r0, r0, r0
 250:	0000a034 	andeq	sl, r0, r4, lsr r0
 254:	00000044 	andeq	r0, r0, r4, asr #32
	...
 260:	0000001c 	andeq	r0, r0, ip, lsl r0
 264:	51de0002 	bicspl	r0, lr, r2
 268:	00040000 	andeq	r0, r4, r0
 26c:	00000000 	andeq	r0, r0, r0
 270:	0000a078 	andeq	sl, r0, r8, ror r0
 274:	00000018 	andeq	r0, r0, r8, lsl r0
	...
 280:	0000001c 	andeq	r0, r0, ip, lsl r0
 284:	52f10002 	rscspl	r0, r1, #2, 0
 288:	00040000 	andeq	r0, r4, r0
 28c:	00000000 	andeq	r0, r0, r0
 290:	0000a090 	muleq	r0, r0, r0
 294:	00000030 	andeq	r0, r0, r0, lsr r0
	...
 2a0:	0000001c 	andeq	r0, r0, ip, lsl r0
 2a4:	54430002 	strbpl	r0, [r3], #-2
 2a8:	00040000 	andeq	r0, r4, r0
 2ac:	00000000 	andeq	r0, r0, r0
 2b0:	0000a0c0 	andeq	sl, r0, r0, asr #1
 2b4:	00000004 	andeq	r0, r0, r4
	...

Disassembly of section .debug_line:

00000000 <.debug_line>:
       0:	00000182 	andeq	r0, r0, r2, lsl #3
       4:	00ee0003 	rsceq	r0, lr, r3
       8:	01020000 	mrseq	r0, (UNDEF: 2)
       c:	000d0efb 	strdeq	r0, [sp], -fp
      10:	01010101 	tsteq	r1, r1, lsl #2
      14:	01000000 	mrseq	r0, (UNDEF: 0)
      18:	74010000 	strvc	r0, [r1], #-0
      1c:	73747365 	cmnvc	r4, #-1811939327	; 0x94000001
      20:	302e322d 	eorcc	r3, lr, sp, lsr #4
      24:	2f002e00 	svccs	0x00002e00
      28:	2f74706f 	svccs	0x0074706f
      2c:	656d6f68 	strbvs	r6, [sp, #-3944]!	; 0xfffff098
      30:	77657262 	strbvc	r7, [r5, -r2, ror #4]!
      34:	6c65432f 	stclvs	3, cr4, [r5], #-188	; 0xffffff44
      38:	2f72616c 	svccs	0x0072616c
      3c:	2d6d7261 	sfmcs	f7, 2, [sp, #-388]!	; 0xfffffe7c
      40:	656e6f6e 	strbvs	r6, [lr, #-3950]!	; 0xfffff092
      44:	6261652d 	rsbvs	r6, r1, #188743680	; 0xb400000
      48:	2f392d69 	svccs	0x00392d69
      4c:	30322d39 	eorscc	r2, r2, r9, lsr sp
      50:	34713931 	ldrbtcc	r3, [r1], #-2353	; 0xfffff6cf
      54:	3173632d 	cmncc	r3, sp, lsr #6
      58:	2f653730 	svccs	0x00653730
      5c:	2f62696c 	svccs	0x0062696c
      60:	2f636367 	svccs	0x00636367
      64:	2d6d7261 	sfmcs	f7, 2, [sp, #-388]!	; 0xfffffe7c
      68:	656e6f6e 	strbvs	r6, [lr, #-3950]!	; 0xfffff092
      6c:	6261652d 	rsbvs	r6, r1, #188743680	; 0xb400000
      70:	2e392f69 	cdpcs	15, 3, cr2, cr9, cr9, {3}
      74:	2f312e32 	svccs	0x00312e32
      78:	6c636e69 	stclvs	14, cr6, [r3], #-420	; 0xfffffe5c
      7c:	00656475 	rsbeq	r6, r5, r5, ror r4
      80:	6573552f 	ldrbvs	r5, [r3, #-1327]!	; 0xfffffad1
      84:	6d2f7372 	stcvs	3, cr7, [pc, #-456]!	; fffffec4 <__bss_end__+0xffff509c>
      88:	73656c69 	cmnvc	r5, #26880	; 0x6900
      8c:	756f532f 	strbvc	r5, [pc, #-815]!	; fffffd65 <__bss_end__+0xffff4f3d>
      90:	2f656372 	svccs	0x00656372
      94:	34327363 	ldrtcc	r7, [r2], #-867	; 0xfffffc9d
      98:	2f786c30 	svccs	0x00786c30
      9c:	7062696c 	rsbvc	r6, r2, ip, ror #18
      a0:	6e692f69 	cdpvs	15, 6, cr2, cr9, cr9, {3}
      a4:	64756c63 	ldrbtvs	r6, [r5], #-3171	; 0xfffff39d
      a8:	70000065 	andvc	r0, r0, r5, rrx
      ac:	32747261 	rsbscc	r7, r4, #268435462	; 0x10000006
      b0:	7365742d 	cmnvc	r5, #754974720	; 0x2d000000
      b4:	6e2d3674 	mcrvs	6, 1, r3, cr13, cr4, {3}
      b8:	656c2d6f 	strbvs	r2, [ip, #-3439]!	; 0xfffff291
      bc:	632e6b61 			; <UNDEFINED> instruction: 0x632e6b61
      c0:	00000100 	andeq	r0, r0, r0, lsl #2
      c4:	2d637273 	sfmcs	f7, 2, [r3, #-460]!	; 0xfffffe34
      c8:	2e636f6c 	cdpcs	15, 6, cr6, cr3, cr12, {3}
      cc:	00020068 	andeq	r0, r2, r8, rrx
      d0:	616b6300 	cmnvs	fp, r0, lsl #6
      d4:	636f6c6c 	cmnvs	pc, #108, 24	; 0x6c00
      d8:	0200682e 	andeq	r6, r0, #3014656	; 0x2e0000
      dc:	74730000 	ldrbtvc	r0, [r3], #-0
      e0:	746e6964 	strbtvc	r6, [lr], #-2404	; 0xfffff69c
      e4:	6363672d 	cmnvs	r3, #11796480	; 0xb40000
      e8:	0300682e 	movweq	r6, #2094	; 0x82e
      ec:	70720000 	rsbsvc	r0, r2, r0
      f0:	00682e69 	rsbeq	r2, r8, r9, ror #28
      f4:	00000004 	andeq	r0, r0, r4
      f8:	05001305 	streq	r1, [r0, #-773]	; 0xfffffcfb
      fc:	00803802 	addeq	r3, r0, r2, lsl #16
     100:	01090300 	mrseq	r0, (UNDEF: 57)
     104:	044c0505 	strbeq	r0, [ip], #-1285	; 0xfffffafb
     108:	010b0502 	tsteq	fp, r2, lsl #10
     10c:	05130505 	ldreq	r0, [r3, #-1285]	; 0xfffffafb
     110:	ba01060c 	blt	41948 <__bss_end__+0x36b20>
     114:	0f050104 	svceq	0x00050104
     118:	06050511 			; <UNDEFINED> instruction: 0x06050511
     11c:	0304019f 	movweq	r0, #16799	; 0x419f
     120:	15031105 	strne	r1, [r3, #-261]	; 0xfffffefb
     124:	13050501 	movwne	r0, #21761	; 0x5501
     128:	04010613 	streq	r0, [r1], #-1555	; 0xfffff9ed
     12c:	01690301 	cmneq	r9, r1, lsl #6
     130:	132e0666 			; <UNDEFINED> instruction: 0x132e0666
     134:	13060105 	movwne	r0, #24837	; 0x6105
     138:	06140566 	ldreq	r0, [r4], -r6, ror #10
     13c:	94020500 	strls	r0, [r2], #-1280	; 0xfffffb00
     140:	14000080 	strne	r0, [r0], #-128	; 0xffffff80
     144:	4d4b0505 	cfstr64mi	mvdx0, [fp, #-20]	; 0xffffffec
     148:	01060f05 	tsteq	r6, r5, lsl #30
     14c:	4c060505 	cfstr32mi	mvfx0, [r6], {5}
     150:	064a0601 	strbeq	r0, [sl], -r1, lsl #12
     154:	0805152e 	stmdaeq	r5, {r1, r2, r3, r5, r8, sl, ip}
     158:	07050106 	streq	r0, [r5, -r6, lsl #2]
     15c:	0609054a 	streq	r0, [r9], -sl, asr #10
     160:	1405054b 	strne	r0, [r5], #-1355	; 0xfffffab5
     164:	01060805 	tsteq	r6, r5, lsl #16
     168:	054a0705 	strbeq	r0, [sl, #-1797]	; 0xfffff8fb
     16c:	014b0609 	cmpeq	fp, r9, lsl #12
     170:	0105144a 	tsteq	r5, sl, asr #8
     174:	09051306 	stmdbeq	r5, {r1, r2, r8, r9, ip}
     178:	4a7a0306 	bmi	1e80d98 <__bss_end__+0x1e75f70>
     17c:	01339e01 	teqeq	r3, r1, lsl #28
     180:	001002ba 			; <UNDEFINED> instruction: 0x001002ba
     184:	02e70101 	rsceq	r0, r7, #1073741824	; 0x40000000
     188:	00030000 	andeq	r0, r3, r0
     18c:	000000e5 	andeq	r0, r0, r5, ror #1
     190:	0efb0102 	cdpeq	1, 15, cr0, cr11, cr2, {0}
     194:	0101000d 	tsteq	r1, sp
     198:	00000101 	andeq	r0, r0, r1, lsl #2
     19c:	00000100 	andeq	r0, r0, r0, lsl #2
     1a0:	706f2f01 	rsbvc	r2, pc, r1, lsl #30
     1a4:	6f682f74 	svcvs	0x00682f74
     1a8:	7262656d 	rsbvc	r6, r2, #457179136	; 0x1b400000
     1ac:	432f7765 			; <UNDEFINED> instruction: 0x432f7765
     1b0:	616c6c65 	cmnvs	ip, r5, ror #24
     1b4:	72612f72 	rsbvc	r2, r1, #456	; 0x1c8
     1b8:	6f6e2d6d 	svcvs	0x006e2d6d
     1bc:	652d656e 	strvs	r6, [sp, #-1390]!	; 0xfffffa92
     1c0:	2d696261 	sfmcs	f6, 2, [r9, #-388]!	; 0xfffffe7c
     1c4:	2d392f39 	ldccs	15, cr2, [r9, #-228]!	; 0xffffff1c
     1c8:	39313032 	ldmdbcc	r1!, {r1, r4, r5, ip, sp}
     1cc:	632d3471 			; <UNDEFINED> instruction: 0x632d3471
     1d0:	37303173 			; <UNDEFINED> instruction: 0x37303173
     1d4:	696c2f65 	stmdbvs	ip!, {r0, r2, r5, r6, r8, r9, sl, fp, sp}^
     1d8:	63672f62 	cmnvs	r7, #392	; 0x188
     1dc:	72612f63 	rsbvc	r2, r1, #396	; 0x18c
     1e0:	6f6e2d6d 	svcvs	0x006e2d6d
     1e4:	652d656e 	strvs	r6, [sp, #-1390]!	; 0xfffffa92
     1e8:	2f696261 	svccs	0x00696261
     1ec:	2e322e39 	mrccs	14, 1, r2, cr2, cr9, {1}
     1f0:	6e692f31 	mcrvs	15, 3, r2, cr9, cr1, {1}
     1f4:	64756c63 	ldrbtvs	r6, [r5], #-3171	; 0xfffff39d
     1f8:	552f0065 	strpl	r0, [pc, #-101]!	; 19b <__code_start__-0x7e65>
     1fc:	73726573 	cmnvc	r2, #482344960	; 0x1cc00000
     200:	6c696d2f 	stclvs	13, cr6, [r9], #-188	; 0xffffff44
     204:	532f7365 			; <UNDEFINED> instruction: 0x532f7365
     208:	6372756f 	cmnvs	r2, #465567744	; 0x1bc00000
     20c:	73632f65 	cmnvc	r3, #404	; 0x194
     210:	6c303432 	cfldrsvs	mvf3, [r0], #-200	; 0xffffff38
     214:	696c2f78 	stmdbvs	ip!, {r3, r4, r5, r6, r8, r9, sl, fp, sp}^
     218:	2f697062 	svccs	0x00697062
     21c:	6c636e69 	stclvs	14, cr6, [r3], #-420	; 0xfffffe5c
     220:	00656475 	rsbeq	r6, r5, r5, ror r4
     224:	616b6300 	cmnvs	fp, r0, lsl #6
     228:	636f6c6c 	cmnvs	pc, #108, 24	; 0x6c00
     22c:	0000632e 	andeq	r6, r0, lr, lsr #6
     230:	6b630000 	blvs	18c0238 <__bss_end__+0x18b5410>
     234:	6f6c6c61 	svcvs	0x006c6c61
     238:	00682e63 	rsbeq	r2, r8, r3, ror #28
     23c:	73000000 	movwvc	r0, #0
     240:	6e696474 	mcrvs	4, 3, r6, cr9, cr4, {3}
     244:	63672d74 	cmnvs	r7, #116, 26	; 0x1d00
     248:	00682e63 	rsbeq	r2, r8, r3, ror #28
     24c:	72000001 	andvc	r0, r0, #1, 0
     250:	682e6970 	stmdavs	lr!, {r4, r5, r6, r8, fp, sp, lr}
     254:	00000200 	andeq	r0, r0, r0, lsl #4
     258:	2d637273 	sfmcs	f7, 2, [r3, #-460]!	; 0xfffffe34
     25c:	2e636f6c 	cdpcs	15, 6, cr6, cr3, cr12, {3}
     260:	00000068 	andeq	r0, r0, r8, rrx
     264:	2d726b00 	vldmdbcs	r2!, {d22-d21}
     268:	6c6c616d 	stfvse	f6, [ip], #-436	; 0xfffffe4c
     26c:	682e636f 	stmdavs	lr!, {r0, r1, r2, r3, r5, r6, r8, r9, sp, lr}
     270:	00000000 	andeq	r0, r0, r0
     274:	00010500 	andeq	r0, r1, r0, lsl #10
     278:	81380205 	teqhi	r8, r5, lsl #4
     27c:	0b030000 	bleq	c0284 <__bss_end__+0xb545c>
     280:	13050501 	movwne	r0, #21761	; 0x5501
     284:	13060105 	movwne	r0, #24837	; 0x6105
     288:	05058606 	streq	r8, [r5, #-1542]	; 0xfffff9fa
     28c:	06080513 			; <UNDEFINED> instruction: 0x06080513
     290:	06090501 	streq	r0, [r9], -r1, lsl #10
     294:	0611052f 	ldreq	r0, [r1], -pc, lsr #10
     298:	30010501 	andcc	r0, r1, r1, lsl #10
     29c:	05053106 	streq	r3, [r5, #-262]	; 0xfffffefa
     2a0:	06010513 			; <UNDEFINED> instruction: 0x06010513
     2a4:	32062e13 	andcc	r2, r6, #304	; 0x130
     2a8:	03130505 	tsteq	r3, #20971520	; 0x1400000
     2ac:	0204017a 	andeq	r0, r4, #-2147483618	; 0x8000001e
     2b0:	14031805 	strne	r1, [r3], #-2053	; 0xfffff7fb
     2b4:	13050501 	movwne	r0, #21761	; 0x5501
     2b8:	01040106 	tsteq	r4, r6, lsl #2
     2bc:	71032405 	tstvc	r3, r5, lsl #8
     2c0:	4b010501 	blmi	416cc <__bss_end__+0x368a4>
     2c4:	0532062e 	ldreq	r0, [r2, #-1582]!	; 0xfffff9d2
     2c8:	07051305 	streq	r1, [r5, -r5, lsl #6]
     2cc:	05017203 	streq	r7, [r1, #-515]	; 0xfffffdfd
     2d0:	01061405 	tsteq	r6, r5, lsl #8
     2d4:	010d0306 	tsteq	sp, r6, lsl #6
     2d8:	77030705 	strvc	r0, [r3, -r5, lsl #14]
     2dc:	14050501 	strne	r0, [r5], #-1281	; 0xfffffaff
     2e0:	03060106 	movweq	r0, #24838	; 0x6106
     2e4:	0204017a 	andeq	r0, r4, #-2147483618	; 0x8000001e
     2e8:	14031805 	strne	r1, [r3], #-2053	; 0xfffff7fb
     2ec:	13050501 	movwne	r0, #21761	; 0x5501
     2f0:	01040106 	tsteq	r4, r6, lsl #2
     2f4:	01790306 	cmneq	r9, r6, lsl #6
     2f8:	03062405 	movweq	r2, #25605	; 0x6405
     2fc:	0c050178 	stfeqs	f0, [r5], {120}	; 0x78
     300:	2e667a03 	vmulcs.f32	s15, s12, s6
     304:	0f030105 	svceq	0x00030105
     308:	4d066601 	stcmi	6, cr6, [r6, #-4]
     30c:	05050106 	streq	r0, [r5, #-262]	; 0xfffffefa
     310:	0a054c06 	beq	153330 <__bss_end__+0x148508>
     314:	03080501 	movweq	r0, #34049	; 0x8501
     318:	0505015d 	streq	r0, [r5, #-349]	; 0xfffffea3
     31c:	060c0514 			; <UNDEFINED> instruction: 0x060c0514
     320:	25054a01 	strcs	r4, [r5, #-2561]	; 0xfffff5ff
     324:	01210306 			; <UNDEFINED> instruction: 0x01210306
     328:	01060505 	tsteq	r6, r5, lsl #10
     32c:	4d060905 	vstrmi.16	s0, [r6, #-10]	; <UNPREDICTABLE>
     330:	01060d05 	tsteq	r6, r5, lsl #26
     334:	05660c05 	strbeq	r0, [r6, #-3077]!	; 0xfffff3fb
     338:	05470628 	strbeq	r0, [r7, #-1576]	; 0xfffff9d8
     33c:	01630308 	cmneq	r3, r8, lsl #6
     340:	05140505 	ldreq	r0, [r4, #-1285]	; 0xfffffafb
     344:	11051309 	tstne	r5, r9, lsl #6
     348:	052e0106 	streq	r0, [lr, #-262]!	; 0xfffffefa
     34c:	1a030625 	bne	c1be8 <__bss_end__+0xb6dc0>
     350:	06050501 	streq	r0, [r5], -r1, lsl #10
     354:	060d0501 	streq	r0, [sp], -r1, lsl #10
     358:	0106836b 	tsteq	r6, fp, ror #6
     35c:	06160105 	ldreq	r0, [r6], -r5, lsl #2
     360:	06821c03 	streq	r1, [r2], r3, lsl #24
     364:	2e4a8201 	cdpcs	2, 4, cr8, cr10, cr1, {0}
     368:	2f060505 	svccs	0x00060505
     36c:	9e011413 	cfmvdlrls	mvd1, r1
     370:	08051366 	stmdaeq	r5, {r1, r2, r5, r6, r8, r9, ip}
     374:	09050106 	stmdbeq	r5, {r1, r2, r8}
     378:	05058306 	streq	r8, [r5, #-774]	; 0xfffffcfa
     37c:	060e0514 			; <UNDEFINED> instruction: 0x060e0514
     380:	06050501 	streq	r0, [r5], -r1, lsl #10
     384:	0182014b 	orreq	r0, r2, fp, asr #2
     388:	030d0514 	movweq	r0, #54548	; 0xd514
     38c:	0505015b 	streq	r0, [r5, #-347]	; 0xfffffea5
     390:	01010114 	tsteq	r1, r4, lsl r1
     394:	060c0513 			; <UNDEFINED> instruction: 0x060c0513
     398:	06050501 	streq	r0, [r5], -r1, lsl #10
     39c:	0608054c 	streq	r0, [r8], -ip, asr #10
     3a0:	06090501 	streq	r0, [r9], -r1, lsl #10
     3a4:	060f054c 	streq	r0, [pc], -ip, asr #10
     3a8:	2e0c0501 	cfsh32cs	mvfx0, mvfx12, #1
     3ac:	0609052e 	streq	r0, [r9], -lr, lsr #10
     3b0:	062e062f 	strteq	r0, [lr], -pc, lsr #12
     3b4:	01011803 	tsteq	r1, r3, lsl #16
     3b8:	0505669e 	streq	r6, [r5, #-1694]	; 0xfffff962
     3bc:	01040200 	mrseq	r0, R12_usr
     3c0:	04020031 	streq	r0, [r2], #-49	; 0xffffffcf
     3c4:	02000101 	andeq	r0, r0, #1073741824	; 0x40000000
     3c8:	05d60104 	ldrbeq	r0, [r6, #260]	; 0x104
     3cc:	2e6d030d 	cdpcs	3, 6, cr0, cr13, cr13, {0}
     3d0:	01061b05 	tsteq	r6, r5, lsl #22
     3d4:	052e1805 	streq	r1, [lr, #-2053]!	; 0xfffff7fb
     3d8:	052f060d 	streq	r0, [pc, #-1549]!	; fffffdd3 <__bss_end__+0xffff4fab>
     3dc:	01061605 	tsteq	r6, r5, lsl #12
     3e0:	01110306 	tsteq	r1, r6, lsl #6
     3e4:	4b060105 	blmi	180800 <__bss_end__+0x1759d8>
     3e8:	03060905 	movweq	r0, #26885	; 0x6905
     3ec:	054a7fb3 	strbeq	r7, [sl, #-4019]	; 0xfffff04d
     3f0:	2e010611 	mcrcs	6, 0, r0, cr1, cr1, {0}
     3f4:	32030b05 	andcc	r0, r3, #5120	; 0x1400
     3f8:	06090501 	streq	r0, [r9], -r1, lsl #10
     3fc:	060c054c 	streq	r0, [ip], -ip, asr #10
     400:	03110501 	tsteq	r1, #4194304	; 0x400000
     404:	052e4a4c 	streq	r4, [lr, #-2636]!	; 0xfffff5b4
     408:	3203060b 	andcc	r0, r3, #11534336	; 0xb00000
     40c:	03080501 	movweq	r0, #34049	; 0x8501
     410:	0505014b 	streq	r0, [r5, #-331]	; 0xfffffeb5
     414:	06080514 			; <UNDEFINED> instruction: 0x06080514
     418:	05054a01 	streq	r4, [r5, #-2561]	; 0xfffff5ff
     41c:	013c0306 	teqeq	ip, r6, lsl #6
     420:	064a0601 	strbeq	r0, [sl], -r1, lsl #12
     424:	03010582 	movweq	r0, #5506	; 0x1582
     428:	06740818 			; <UNDEFINED> instruction: 0x06740818
     42c:	06050501 	streq	r0, [r5], -r1, lsl #10
     430:	0610059f 			; <UNDEFINED> instruction: 0x0610059f
     434:	05052e01 	streq	r2, [r5, #-3585]	; 0xfffff1ff
     438:	05684b06 	strbeq	r4, [r8, #-2822]!	; 0xfffff4fa
     43c:	05010615 	streq	r0, [r1, #-1557]	; 0xfffff9eb
     440:	052f0605 	streq	r0, [pc, #-1541]!	; fffffe43 <__bss_end__+0xffff501b>
     444:	0501060e 	streq	r0, [r1, #-1550]	; 0xfffff9f2
     448:	054b0605 	strbeq	r0, [fp, #-1541]	; 0xfffff9fb
     44c:	05010612 	streq	r0, [r1, #-1554]	; 0xfffff9ee
     450:	01680605 	cmneq	r8, r5, lsl #12
     454:	05149e9e 	ldreq	r9, [r4, #-3742]	; 0xfffff162
     458:	0501060d 	streq	r0, [r1, #-1549]	; 0xfffff9f3
     45c:	05670605 	strbeq	r0, [r7, #-1541]!	; 0xfffff9fb
     460:	05010610 	streq	r0, [r1, #-1552]	; 0xfffff9f0
     464:	05300605 	ldreq	r0, [r0, #-1541]!	; 0xfffff9fb
     468:	66130601 	ldrvs	r0, [r3], -r1, lsl #12
     46c:	01000602 	tsteq	r0, r2, lsl #12
     470:	00022601 	andeq	r2, r2, r1, lsl #12
     474:	64000300 	strvs	r0, [r0], #-768	; 0xfffffd00
     478:	02000000 	andeq	r0, r0, #0, 0
     47c:	0d0efb01 	vstreq	d15, [lr, #-4]
     480:	01010100 	mrseq	r0, (UNDEF: 17)
     484:	00000001 	andeq	r0, r0, r1
     488:	01000001 	tsteq	r0, r1
     48c:	6573552f 	ldrbvs	r5, [r3, #-1327]!	; 0xfffffad1
     490:	6d2f7372 	stcvs	3, cr7, [pc, #-456]!	; 2d0 <__code_start__-0x7d30>
     494:	73656c69 	cmnvc	r5, #26880	; 0x6900
     498:	756f532f 	strbvc	r5, [pc, #-815]!	; 171 <__code_start__-0x7e8f>
     49c:	2f656372 	svccs	0x00656372
     4a0:	34327363 	ldrtcc	r7, [r2], #-867	; 0xfffffc9d
     4a4:	2f786c30 	svccs	0x00786c30
     4a8:	7062696c 	rsbvc	r6, r2, ip, ror #18
     4ac:	6e692f69 	cdpvs	15, 6, cr2, cr9, cr9, {3}
     4b0:	64756c63 	ldrbtvs	r6, [r5], #-3171	; 0xfffff39d
     4b4:	6b000065 	blvs	650 <__code_start__-0x79b0>
     4b8:	616d2d72 	smcvs	53970	; 0xd2d2
     4bc:	636f6c6c 	cmnvs	pc, #108, 24	; 0x6c00
     4c0:	0000632e 	andeq	r6, r0, lr, lsr #6
     4c4:	70720000 	rsbsvc	r0, r2, r0
     4c8:	00682e69 	rsbeq	r2, r8, r9, ror #28
     4cc:	6b000001 	blvs	4d8 <__code_start__-0x7b28>
     4d0:	616d2d72 	smcvs	53970	; 0xd2d2
     4d4:	636f6c6c 	cmnvs	pc, #108, 24	; 0x6c00
     4d8:	0000682e 	andeq	r6, r0, lr, lsr #16
     4dc:	05000000 	streq	r0, [r0, #-0]
     4e0:	02050001 	andeq	r0, r5, #1, 0
     4e4:	000083cc 	andeq	r8, r0, ip, asr #7
     4e8:	0100d303 	tsteq	r0, r3, lsl #6
     4ec:	02050106 	andeq	r0, r5, #-2147483647	; 0x80000001
     4f0:	05132f06 	ldreq	r2, [r3, #-3846]	; 0xfffff0fa
     4f4:	05010605 	streq	r0, [r1, #-1541]	; 0xfffff9fb
     4f8:	052f0602 	streq	r0, [pc, #-1538]!	; fffffefe <__bss_end__+0xffff50d6>
     4fc:	05010609 	streq	r0, [r1, #-1545]	; 0xfffff9f7
     500:	03054a02 	movweq	r4, #23042	; 0x5a02
     504:	10052f06 	andne	r2, r5, r6, lsl #30
     508:	06050106 	streq	r0, [r5], -r6, lsl #2
     50c:	0020052e 	eoreq	r0, r0, lr, lsr #10
     510:	4a020402 	bmi	81520 <__bss_end__+0x766f8>
     514:	02000105 	andeq	r0, r0, #1073741825	; 0x40000001
     518:	05460104 	strbeq	r0, [r6, #-260]	; 0xfffffefc
     51c:	04020012 	streq	r0, [r2], #-18	; 0xffffffee
     520:	05310601 	ldreq	r0, [r1, #-1537]!	; 0xfffff9ff
     524:	04020002 	streq	r0, [r2], #-2
     528:	05010601 	streq	r0, [r1, #-1537]	; 0xfffff9ff
     52c:	04020027 	streq	r0, [r2], #-39	; 0xffffffd9
     530:	12054a03 	andne	r4, r5, #12288	; 0x3000
     534:	03040200 	movweq	r0, #16896	; 0x4200
     538:	0603052e 	streq	r0, [r3], -lr, lsr #10
     53c:	0606054b 	streq	r0, [r6], -fp, asr #10
     540:	06020501 	streq	r0, [r2], -r1, lsl #10
     544:	0610054c 	ldreq	r0, [r0], -ip, asr #10
     548:	2e1d0501 	cfmul32cs	mvfx0, mvfx13, mvfx1
     54c:	052e0905 	streq	r0, [lr, #-2309]!	; 0xfffff6fb
     550:	03052e05 	movweq	r2, #24069	; 0x5e05
     554:	0e053006 	cdpeq	0, 0, cr3, cr5, cr6, {0}
     558:	03050106 	movweq	r0, #20742	; 0x5106
     55c:	1a056706 	bne	15a17c <__bss_end__+0x14f354>
     560:	03050106 	movweq	r0, #20742	; 0x5106
     564:	0d054d06 	stceq	13, cr4, [r5, #-24]	; 0xffffffe8
     568:	02050106 	andeq	r0, r5, #-2147483647	; 0x80000001
     56c:	0e052f06 	cdpeq	15, 0, cr2, cr5, cr6, {0}
     570:	08050106 	stmdaeq	r5, {r1, r2, r8}
     574:	2e05052e 	cfsh32cs	mvfx0, mvfx5, #30
     578:	30060305 	andcc	r0, r6, r5, lsl #6
     57c:	01060d05 	tsteq	r6, r5, lsl #26
     580:	0603052e 	streq	r0, [r3], -lr, lsr #10
     584:	0613054b 	ldreq	r0, [r3], -fp, asr #10
     588:	2e0c0501 	cfsh32cs	mvfx0, mvfx12, #1
     58c:	31060305 	tstcc	r6, r5, lsl #6
     590:	01060c05 	tsteq	r6, r5, lsl #24
     594:	2f060205 	svccs	0x00060205
     598:	01060805 	tsteq	r6, r5, lsl #16
     59c:	064b0105 	strbeq	r0, [fp], -r5, lsl #2
     5a0:	064a4303 	strbeq	r4, [sl], -r3, lsl #6
     5a4:	06020501 	streq	r0, [r2], -r1, lsl #10
     5a8:	0514132f 	ldreq	r1, [r4, #-815]	; 0xfffffcd1
     5ac:	05010624 	streq	r0, [r1, #-1572]	; 0xfffff9dc
     5b0:	09052e29 	stmdbeq	r5, {r0, r3, r5, r9, sl, fp, sp}
     5b4:	0602052e 	streq	r0, [r2], -lr, lsr #10
     5b8:	060d052f 	streq	r0, [sp], -pc, lsr #10
     5bc:	4a050501 	bmi	1419c8 <__bss_end__+0x136ba0>
     5c0:	50060205 	andpl	r0, r6, r5, lsl #4
     5c4:	01060905 	tsteq	r6, r5, lsl #18
     5c8:	30060305 	andcc	r0, r6, r5, lsl #6
     5cc:	01060b05 	tsteq	r6, r5, lsl #22
     5d0:	052e0605 	streq	r0, [lr, #-1541]!	; 0xfffff9fb
     5d4:	4a0f0309 	bmi	3c1200 <__bss_end__+0x3b63d8>
     5d8:	58030205 	stmdapl	r3, {r0, r2, r9}
     5dc:	0305662e 	movweq	r6, #22062	; 0x562e
     5e0:	01130306 	tsteq	r3, r6, lsl #6
     5e4:	01061605 	tsteq	r6, r5, lsl #12
     5e8:	05660e05 	strbeq	r0, [r6, #-3589]!	; 0xfffff1fb
     5ec:	052f0603 	streq	r0, [pc, #-1539]!	; fffffff1 <__bss_end__+0xffff51c9>
     5f0:	0501060f 	streq	r0, [r1, #-1551]	; 0xfffff9f1
     5f4:	054d0602 	strbeq	r0, [sp, #-1538]	; 0xfffff9fe
     5f8:	04051403 	streq	r1, [r5], #-1027	; 0xfffffbfd
     5fc:	06070530 			; <UNDEFINED> instruction: 0x06070530
     600:	06050501 	streq	r0, [r5], -r1, lsl #10
     604:	06180530 			; <UNDEFINED> instruction: 0x06180530
     608:	2e120501 	cfmul32cs	mvfx0, mvfx2, mvfx1
     60c:	32060505 	andcc	r0, r6, #20971520	; 0x1400000
     610:	01060f05 	tsteq	r6, r5, lsl #30
     614:	4b060505 	blmi	181a30 <__bss_end__+0x176c08>
     618:	01060705 	tsteq	r6, r5, lsl #14
     61c:	2f060505 	svccs	0x00060505
     620:	01060f05 	tsteq	r6, r5, lsl #30
     624:	30060405 	andcc	r0, r6, r5, lsl #8
     628:	01060a05 	tsteq	r6, r5, lsl #20
     62c:	0604052e 	streq	r0, [r4], -lr, lsr #10
     630:	060b052f 	streq	r0, [fp], -pc, lsr #10
     634:	06020501 	streq	r0, [r2], -r1, lsl #10
     638:	134a5e03 	movtne	r5, #44547	; 0xae03
     63c:	01060d05 	tsteq	r6, r5, lsl #26
     640:	2f060205 	svccs	0x00060205
     644:	2f062e06 	svccs	0x00062e06
     648:	01060905 	tsteq	r6, r5, lsl #18
     64c:	0307052e 	movweq	r0, #29998	; 0x752e
     650:	1a050123 	bne	140ae4 <__bss_end__+0x135cbc>
     654:	4a6d0306 	bmi	1b41274 <__bss_end__+0x1b3644c>
     658:	01062705 	tsteq	r6, r5, lsl #14
     65c:	2e061805 	cdpcs	8, 0, cr1, cr6, cr5, {0}
     660:	05140305 	ldreq	r0, [r4, #-773]	; 0xfffffcfb
     664:	0501060b 	streq	r0, [r1, #-1547]	; 0xfffff9f5
     668:	03052e06 	movweq	r2, #24070	; 0x5e06
     66c:	4a0f0306 	bmi	3c128c <__bss_end__+0x3b6464>
     670:	01060605 	tsteq	r6, r5, lsl #12
     674:	84060405 	strhi	r0, [r6], #-1029	; 0xfffffbfb
     678:	52031005 	andpl	r1, r3, #5, 0
     67c:	14020501 	strne	r0, [r2], #-1281	; 0xfffffaff
     680:	0d056714 	stceq	7, cr6, [r5, #-80]	; 0xffffffb0
     684:	02050106 	andeq	r0, r5, #-2147483647	; 0x80000001
     688:	05054b06 	streq	r4, [r5, #-2822]	; 0xfffff4fa
     68c:	0c050106 	stfeqs	f0, [r5], {6}
     690:	054a2a03 	strbeq	r2, [sl, #-2563]	; 0xfffff5fd
     694:	06023201 	streq	r3, [r2], -r1, lsl #4
     698:	37010100 	strcc	r0, [r1, -r0, lsl #2]
     69c:	03000005 	movweq	r0, #5
     6a0:	0000d400 	andeq	sp, r0, r0, lsl #8
     6a4:	fb010200 	blx	40eae <__bss_end__+0x36086>
     6a8:	01000d0e 	tsteq	r0, lr, lsl #26
     6ac:	00010101 	andeq	r0, r1, r1, lsl #2
     6b0:	00010000 	andeq	r0, r1, r0
     6b4:	6f2f0100 	svcvs	0x002f0100
     6b8:	682f7470 	stmdavs	pc!, {r4, r5, r6, sl, ip, sp, lr}	; <UNPREDICTABLE>
     6bc:	62656d6f 	rsbvs	r6, r5, #7104	; 0x1bc0
     6c0:	2f776572 	svccs	0x00776572
     6c4:	6c6c6543 	cfstr64vs	mvdx6, [ip], #-268	; 0xfffffef4
     6c8:	612f7261 			; <UNDEFINED> instruction: 0x612f7261
     6cc:	6e2d6d72 	mcrvs	13, 1, r6, cr13, cr2, {3}
     6d0:	2d656e6f 	stclcs	14, cr6, [r5, #-444]!	; 0xfffffe44
     6d4:	69626165 	stmdbvs	r2!, {r0, r2, r5, r6, r8, sp, lr}^
     6d8:	392f392d 	stmdbcc	pc!, {r0, r2, r3, r5, r8, fp, ip, sp}	; <UNPREDICTABLE>
     6dc:	3130322d 	teqcc	r0, sp, lsr #4
     6e0:	2d347139 	ldfcss	f7, [r4, #-228]!	; 0xffffff1c
     6e4:	30317363 	eorscc	r7, r1, r3, ror #6
     6e8:	6c2f6537 	cfstr32vs	mvfx6, [pc], #-220	; 614 <__code_start__-0x79ec>
     6ec:	672f6269 	strvs	r6, [pc, -r9, ror #4]!
     6f0:	612f6363 			; <UNDEFINED> instruction: 0x612f6363
     6f4:	6e2d6d72 	mcrvs	13, 1, r6, cr13, cr2, {3}
     6f8:	2d656e6f 	stclcs	14, cr6, [r5, #-444]!	; 0xfffffe44
     6fc:	69626165 	stmdbvs	r2!, {r0, r2, r5, r6, r8, sp, lr}^
     700:	322e392f 	eorcc	r3, lr, #770048	; 0xbc000
     704:	692f312e 	stmdbvs	pc!, {r1, r2, r3, r5, r8, ip, sp}	; <UNPREDICTABLE>
     708:	756c636e 	strbvc	r6, [ip, #-878]!	; 0xfffffc92
     70c:	2f006564 	svccs	0x00006564
     710:	72657355 	rsbvc	r7, r5, #1409286145	; 0x54000001
     714:	696d2f73 	stmdbvs	sp!, {r0, r1, r4, r5, r6, r8, r9, sl, fp, sp}^
     718:	2f73656c 	svccs	0x0073656c
     71c:	72756f53 	rsbsvc	r6, r5, #332	; 0x14c
     720:	632f6563 			; <UNDEFINED> instruction: 0x632f6563
     724:	30343273 	eorscc	r3, r4, r3, ror r2
     728:	6c2f786c 	stcvs	8, cr7, [pc], #-432	; 580 <__code_start__-0x7a80>
     72c:	69706269 	ldmdbvs	r0!, {r0, r3, r5, r6, r9, sp, lr}^
     730:	636e692f 	cmnvs	lr, #770048	; 0xbc000
     734:	6564756c 	strbvs	r7, [r4, #-1388]!	; 0xfffffa94
     738:	6b630000 	blvs	18c0740 <__bss_end__+0x18b5918>
     73c:	2e63672d 	cdpcs	7, 6, cr6, cr3, cr13, {1}
     740:	00000063 	andeq	r0, r0, r3, rrx
     744:	63727300 	cmnvs	r2, #0, 6
     748:	636f6c2d 	cmnvs	pc, #11520	; 0x2d00
     74c:	0000682e 	andeq	r6, r0, lr, lsr #16
     750:	74730000 	ldrbtvc	r0, [r3], #-0
     754:	746e6964 	strbtvc	r6, [lr], #-2404	; 0xfffff69c
     758:	6363672d 	cmnvs	r3, #11796480	; 0xb40000
     75c:	0100682e 	tsteq	r0, lr, lsr #16
     760:	70720000 	rsbsvc	r0, r2, r0
     764:	00682e69 	rsbeq	r2, r8, r9, ror #28
     768:	63000002 	movwvs	r0, #2
     76c:	6c6c616b 	stfvse	f6, [ip], #-428	; 0xfffffe54
     770:	682e636f 	stmdavs	lr!, {r0, r1, r2, r3, r5, r6, r8, r9, sp, lr}
     774:	00000000 	andeq	r0, r0, r0
     778:	00010500 	andeq	r0, r1, r0, lsl #10
     77c:	855c0205 	ldrbhi	r0, [ip, #-517]	; 0xfffffdfb
     780:	d0030000 	andle	r0, r3, r0
     784:	01060100 	mrseq	r0, (UNDEF: 22)
     788:	4b060505 	blmi	181ba4 <__bss_end__+0x176d7c>
     78c:	04020001 	streq	r0, [r2], #-1
     790:	02004a02 	andeq	r4, r0, #8192	; 0x2000
     794:	00010204 	andeq	r0, r1, r4, lsl #4
     798:	15020402 	strne	r0, [r2, #-1026]	; 0xfffffbfe
     79c:	02040200 	andeq	r0, r4, #0, 4
     7a0:	04020001 	streq	r0, [r2], #-1
     7a4:	02006602 	andeq	r6, r0, #2097152	; 0x200000
     7a8:	00010204 	andeq	r0, r1, r4, lsl #4
     7ac:	13020402 	movwne	r0, #9218	; 0x2402
     7b0:	02040200 	andeq	r0, r4, #0, 4
     7b4:	04020001 	streq	r0, [r2], #-1
     7b8:	059e0602 	ldreq	r0, [lr, #1538]	; 0x602
     7bc:	2e58030b 	cdpcs	3, 5, cr0, cr8, cr11, {0}
     7c0:	31030d05 	tstcc	r3, r5, lsl #26
     7c4:	05054a2e 	streq	r4, [r5, #-2606]	; 0xfffff5d2
     7c8:	01040200 	mrseq	r0, R12_usr
     7cc:	01730306 	cmneq	r3, r6, lsl #6
     7d0:	01040200 	mrseq	r0, R12_usr
     7d4:	04020001 	streq	r0, [r2], #-1
     7d8:	009e0601 	addseq	r0, lr, r1, lsl #12
     7dc:	2e010402 	cdpcs	4, 0, cr0, cr1, cr2, {0}
     7e0:	01040200 	mrseq	r0, R12_usr
     7e4:	02002e06 	andeq	r2, r0, #96	; 0x60
     7e8:	00310104 	eorseq	r0, r1, r4, lsl #2
     7ec:	01010402 	tsteq	r1, r2, lsl #8
     7f0:	01040200 	mrseq	r0, R12_usr
     7f4:	02009e06 	andeq	r9, r0, #96	; 0x60
     7f8:	002e0104 	eoreq	r0, lr, r4, lsl #2
     7fc:	06010402 	streq	r0, [r1], -r2, lsl #8
     800:	0402002e 	streq	r0, [r2], #-46	; 0xffffffd2
     804:	02002f01 	andeq	r2, r0, #1, 30
     808:	00010104 	andeq	r0, r1, r4, lsl #2
     80c:	06010402 	streq	r0, [r1], -r2, lsl #8
     810:	0402009e 	streq	r0, [r2], #-158	; 0xffffff62
     814:	02002e01 	andeq	r2, r0, #1, 28
     818:	2e060104 	adfcss	f0, f6, f4
     81c:	17031105 	strne	r1, [r3, -r5, lsl #2]
     820:	054a062e 	strbeq	r0, [sl, #-1582]	; 0xfffff9d2
     824:	04020023 	streq	r0, [r2], #-35	; 0xffffffdd
     828:	6b030602 	blvs	c2038 <__bss_end__+0xb7210>
     82c:	001b0501 	andseq	r0, fp, r1, lsl #10
     830:	01020402 	tsteq	r2, r2, lsl #8
     834:	02000505 	andeq	r0, r0, #20971520	; 0x1400000
     838:	01060204 	tsteq	r6, r4, lsl #4
     83c:	02040200 	andeq	r0, r4, #0, 4
     840:	0609054a 	streq	r0, [r9], -sl, asr #10
     844:	030f0530 	movweq	r0, #62768	; 0xf530
     848:	05052e62 	streq	r2, [r5, #-3682]	; 0xfffff19e
     84c:	060b0514 			; <UNDEFINED> instruction: 0x060b0514
     850:	06050501 	streq	r0, [r5], -r1, lsl #10
     854:	030c0530 	movweq	r0, #50480	; 0xc530
     858:	0505016b 	streq	r0, [r5, #-363]	; 0xfffffe95
     85c:	06080515 			; <UNDEFINED> instruction: 0x06080515
     860:	66180501 	ldrvs	r0, [r8], -r1, lsl #10
     864:	06050566 	streq	r0, [r5], -r6, ror #10
     868:	05011403 	streq	r1, [r1, #-1027]	; 0xfffffbfd
     86c:	2e01060c 	cfmadd32cs	mvax0, mvfx0, mvfx1, mvfx12
     870:	03060905 	movweq	r0, #26885	; 0x6905
     874:	0c050119 	stfeqs	f0, [r5], {25}
     878:	0d050106 	stfeqs	f0, [r5, #-24]	; 0xffffffe8
     87c:	29054c06 	stmdbcs	r5, {r1, r2, sl, fp, lr}
     880:	0d050106 	stfeqs	f0, [r5, #-24]	; 0xffffffe8
     884:	16052f06 	strne	r2, [r5], -r6, lsl #30
     888:	0d050106 	stfeqs	f0, [r5, #-24]	; 0xffffffe8
     88c:	2e062f06 	cdpcs	15, 0, cr2, cr6, cr6, {0}
     890:	05bb062e 	ldreq	r0, [fp, #1582]!	; 0x62e
     894:	05010610 	streq	r0, [r1, #-1552]	; 0xfffff9f0
     898:	054c0611 	strbeq	r0, [ip, #-1553]	; 0xfffff9ef
     89c:	05010619 	streq	r0, [r1, #-1561]	; 0xfffff9e7
     8a0:	bd9f0611 	ldclt	6, cr0, [pc, #68]	; 8ec <__code_start__-0x7714>
     8a4:	01061405 	tsteq	r6, r5, lsl #8
     8a8:	4c061505 	cfstr32mi	mvfx1, [r6], {5}
     8ac:	0105ba06 	tsteq	r5, r6, lsl #20
     8b0:	4a010903 	bmi	42cc4 <__bss_end__+0x37e9c>
     8b4:	02050006 	andeq	r0, r5, #6, 0
     8b8:	000086e8 	andeq	r8, r0, r8, ror #13
     8bc:	05010903 	streq	r0, [r1, #-2307]	; 0xfffff6fd
     8c0:	0a054e05 	beq	1540dc <__bss_end__+0x1492b4>
     8c4:	06150501 	ldreq	r0, [r5], -r1, lsl #10
     8c8:	06250501 	strteq	r0, [r5], -r1, lsl #10
     8cc:	0605052e 	streq	r0, [r5], -lr, lsr #10
     8d0:	32052e01 	andcc	r2, r5, #1, 28
     8d4:	00090530 	andeq	r0, r9, r0, lsr r5
     8d8:	06030402 	streq	r0, [r3], -r2, lsl #8
     8dc:	0032052e 	eorseq	r0, r2, lr, lsr #10
     8e0:	06030402 	streq	r0, [r3], -r2, lsl #8
     8e4:	00210501 	eoreq	r0, r1, r1, lsl #10
     8e8:	2e030402 	cdpcs	4, 0, cr0, cr3, cr2, {0}
     8ec:	02001105 	andeq	r1, r0, #1073741825	; 0x40000001
     8f0:	052e0304 	streq	r0, [lr, #-772]!	; 0xfffffcfc
     8f4:	04020028 	streq	r0, [r2], #-40	; 0xffffffd8
     8f8:	052c0603 	streq	r0, [ip, #-1539]!	; 0xfffff9fd
     8fc:	0402002c 	streq	r0, [r2], #-44	; 0xffffffd4
     900:	05010603 	streq	r0, [r1, #-1539]	; 0xfffff9fd
     904:	04020025 	streq	r0, [r2], #-37	; 0xffffffdb
     908:	052e0603 	streq	r0, [lr, #-1539]!	; 0xfffff9fd
     90c:	04020005 	streq	r0, [r2], #-5
     910:	00010603 	andeq	r0, r1, r3, lsl #12
     914:	2e030402 	cdpcs	4, 0, cr0, cr3, cr2, {0}
     918:	03040200 	movweq	r0, #16896	; 0x4200
     91c:	1319062e 	tstne	r9, #48234496	; 0x2e00000
     920:	30062e06 	andcc	r2, r6, r6, lsl #28
     924:	01060d05 	tsteq	r6, r5, lsl #26
     928:	4b060505 	blmi	181d44 <__bss_end__+0x176f1c>
     92c:	01060d05 	tsteq	r6, r5, lsl #26
     930:	2f060505 	svccs	0x00060505
     934:	01060d05 	tsteq	r6, r5, lsl #26
     938:	2f060505 	svccs	0x00060505
     93c:	01060d05 	tsteq	r6, r5, lsl #26
     940:	35060505 	strcc	r0, [r6, #-1285]	; 0xfffffafb
     944:	6983136a 	stmibvs	r3, {r1, r3, r5, r6, r8, r9, ip}
     948:	05136813 	ldreq	r6, [r3, #-2067]	; 0xfffff7ed
     94c:	06670601 	strbteq	r0, [r7], -r1, lsl #12
     950:	050106dc 	streq	r0, [r1, #-1756]	; 0xfffff924
     954:	134b0605 	movtne	r0, #46597	; 0xb605
     958:	2f062e06 	svccs	0x00062e06
     95c:	0a052f4c 	beq	14c694 <__bss_end__+0x14186c>
     960:	06150501 	ldreq	r0, [r5], -r1, lsl #10
     964:	06250501 	strteq	r0, [r5], -r1, lsl #10
     968:	0605052e 	streq	r0, [r5], -lr, lsr #10
     96c:	45270501 	strmi	r0, [r7, #-1281]!	; 0xfffffaff
     970:	052e1b05 	streq	r1, [lr, #-2821]!	; 0xfffff4fb
     974:	0d052e0e 	stceq	14, cr2, [r5, #-56]	; 0xffffffc8
     978:	292e1003 	stmdbcs	lr!, {r0, r1, ip}
     97c:	13054906 	movwne	r4, #22790	; 0x5906
     980:	0d050106 	stfeqs	f0, [r5, #-24]	; 0xffffffe8
     984:	66062f06 	strvs	r2, [r6], -r6, lsl #30
     988:	02002805 	andeq	r2, r0, #327680	; 0x50000
     98c:	03060204 	movweq	r0, #25092	; 0x6204
     990:	2c052e7a 	stccs	14, cr2, [r5], {122}	; 0x7a
     994:	02040200 	andeq	r0, r4, #0, 4
     998:	25050106 	strcs	r0, [r5, #-262]	; 0xfffffefa
     99c:	02040200 	andeq	r0, r4, #0, 4
     9a0:	05054a06 	streq	r4, [r5, #-2566]	; 0xfffff5fa
     9a4:	02040200 	andeq	r0, r4, #0, 4
     9a8:	09050106 	stmdbeq	r5, {r1, r2, r8}
     9ac:	10054c06 	andne	r4, r5, r6, lsl #24
     9b0:	09050106 	stmdbeq	r5, {r1, r2, r8}
     9b4:	0e052f06 	cdpeq	15, 0, cr2, cr5, cr6, {0}
     9b8:	0c050106 	stfeqs	f0, [r5], {6}
     9bc:	060e052e 	streq	r0, [lr], -lr, lsr #10
     9c0:	0611054f 	ldreq	r0, [r1], -pc, asr #10
     9c4:	060d0501 	streq	r0, [sp], -r1, lsl #10
     9c8:	0619054c 	ldreq	r0, [r9], -ip, asr #10
     9cc:	060d0501 	streq	r0, [sp], -r1, lsl #10
     9d0:	2e66062f 	cdpcs	6, 6, cr0, cr6, cr15, {1}
     9d4:	0605052e 	streq	r0, [r5], -lr, lsr #10
     9d8:	4a060116 	bmi	180e38 <__bss_end__+0x176010>
     9dc:	05132e06 	ldreq	r2, [r3, #-3590]	; 0xfffff1fa
     9e0:	05010608 	streq	r0, [r1, #-1544]	; 0xfffff9f8
     9e4:	014d0609 	cmpeq	sp, r9, lsl #12
     9e8:	019a0505 	orrseq	r0, sl, r5, lsl #10
     9ec:	2e064a06 	vmlacs.f32	s8, s12, s12
     9f0:	06270513 			; <UNDEFINED> instruction: 0x06270513
     9f4:	05016b03 	streq	r6, [r1, #-2819]	; 0xfffff4fd
     9f8:	09052e1b 	stmdbeq	r5, {r0, r1, r3, r4, r9, sl, fp, sp}
     9fc:	2e160306 	cdpcs	3, 1, cr0, cr6, cr6, {0}
     a00:	02004a01 	andeq	r4, r0, #4096	; 0x1000
     a04:	05140104 	ldreq	r0, [r4, #-260]	; 0xfffffefc
     a08:	04020005 	streq	r0, [r2], #-5
     a0c:	02001401 	andeq	r1, r0, #16777216	; 0x1000000
     a10:	054b0104 	strbeq	r0, [fp, #-260]	; 0xfffffefc
     a14:	04020008 	streq	r0, [r2], #-8
     a18:	05010601 	streq	r0, [r1, #-1537]	; 0xfffff9ff
     a1c:	04020017 	streq	r0, [r2], #-23	; 0xffffffe9
     a20:	01053001 	tsteq	r5, r1
     a24:	01040200 	mrseq	r0, R12_usr
     a28:	ca030634 	bgt	c2300 <__bss_end__+0xb74d8>
     a2c:	063c087e 			; <UNDEFINED> instruction: 0x063c087e
     a30:	06050501 	streq	r0, [r5], -r1, lsl #10
     a34:	0001144b 	andeq	r1, r1, fp, asr #8
     a38:	4a020402 	bmi	81a48 <__bss_end__+0x76c20>
     a3c:	02040200 	andeq	r0, r4, #0, 4
     a40:	04020001 	streq	r0, [r2], #-1
     a44:	09051302 	stmdbeq	r5, {r1, r8, r9, ip}
     a48:	02040200 	andeq	r0, r4, #0, 4
     a4c:	08050106 	stmdaeq	r5, {r1, r2, r8}
     a50:	02040200 	andeq	r0, r4, #0, 4
     a54:	0609052e 	streq	r0, [r9], -lr, lsr #10
     a58:	05131567 	ldreq	r1, [r3, #-1383]	; 0xfffffa99
     a5c:	4a010614 	bmi	422b4 <__bss_end__+0x3748c>
     a60:	2f060905 	svccs	0x00060905
     a64:	01061205 	tsteq	r6, r5, lsl #4
     a68:	4b060905 	blmi	182e84 <__bss_end__+0x17805c>
     a6c:	0610054b 	ldreq	r0, [r0], -fp, asr #10
     a70:	06050501 	streq	r0, [r5], -r1, lsl #10
     a74:	060c054c 	streq	r0, [ip], -ip, asr #10
     a78:	4b010501 	blmi	41e84 <__bss_end__+0x3705c>
     a7c:	02000505 	andeq	r0, r0, #20971520	; 0x1400000
     a80:	03060104 	movweq	r0, #24836	; 0x6104
     a84:	02004a74 	andeq	r4, r0, #116, 20	; 0x74000
     a88:	00010104 	andeq	r0, r1, r4, lsl #2
     a8c:	06010402 	streq	r0, [r1], -r2, lsl #8
     a90:	040200ba 	streq	r0, [r2], #-186	; 0xffffff46
     a94:	052e0601 	streq	r0, [lr, #-1537]!	; 0xfffff9ff
     a98:	06013009 	streq	r3, [r1], -r9
     a9c:	052e0682 	streq	r0, [lr, #-1666]!	; 0xfffff97e
     aa0:	01b60301 			; <UNDEFINED> instruction: 0x01b60301
     aa4:	050106d6 	streq	r0, [r1, #-1750]	; 0xfffff92a
     aa8:	05300605 	ldreq	r0, [r0, #-1541]!	; 0xfffff9fb
     aac:	0501060c 	streq	r0, [r1, #-1548]	; 0xfffff9f4
     ab0:	32062f01 	andcc	r2, r6, #1, 30
     ab4:	13320505 	teqne	r2, #20971520	; 0x1400000
     ab8:	73030a05 	movwvc	r0, #14853	; 0x3a05
     abc:	15050501 	strne	r0, [r5, #-1281]	; 0xfffffaff
     ac0:	01060c05 	tsteq	r6, r5, lsl #24
     ac4:	0308054a 	movweq	r0, #34122	; 0x854a
     ac8:	0905010a 	stmdbeq	r5, {r1, r3, r8}
     acc:	01144b06 	tsteq	r4, r6, lsl #22
     ad0:	1305054a 	movwne	r0, #21834	; 0x554a
     ad4:	13060105 	movwne	r0, #24837	; 0x6105
     ad8:	2a060905 	bcs	182ef4 <__bss_end__+0x1780cc>
     adc:	01059e01 	tsteq	r5, r1, lsl #28
     ae0:	320505a6 	andcc	r0, r5, #696254464	; 0x29800000
     ae4:	030a0513 	movweq	r0, #42259	; 0xa513
     ae8:	05050165 	streq	r0, [r5, #-357]	; 0xfffffe9b
     aec:	060c0515 			; <UNDEFINED> instruction: 0x060c0515
     af0:	05054a01 	streq	r4, [r5, #-2561]	; 0xfffff5ff
     af4:	01190306 	tsteq	r9, r6, lsl #6
     af8:	01060805 	tsteq	r6, r5, lsl #16
     afc:	4b060905 	blmi	182f18 <__bss_end__+0x1780f0>
     b00:	4a060114 	bmi	180f58 <__bss_end__+0x176130>
     b04:	05052e06 	streq	r2, [r5, #-3590]	; 0xfffff1fa
     b08:	01051313 	tsteq	r5, r3, lsl r3
     b0c:	09051306 	stmdbeq	r5, {r1, r2, r8, r9, ip}
     b10:	9e014506 	cfsh32ls	mvfx4, mvfx1, #6
     b14:	21030105 	tstcs	r3, r5, lsl #2
     b18:	4b05059e 	blmi	142198 <__bss_end__+0x137370>
     b1c:	0311052f 	tsteq	r1, #197132288	; 0xbc00000
     b20:	05050165 	streq	r0, [r5, #-357]	; 0xfffffe9b
     b24:	4c4b1314 	mcrrmi	3, 1, r1, fp, cr4
     b28:	010a052f 	tsteq	sl, pc, lsr #10
     b2c:	01061505 	tsteq	r6, r5, lsl #10
     b30:	2e062505 	cfsh32cs	mvfx2, mvfx6, #5
     b34:	01060505 	tsteq	r6, r5, lsl #10
     b38:	05452705 	strbeq	r2, [r5, #-1797]	; 0xfffff8fb
     b3c:	0e052e1b 	mcreq	14, 0, r2, cr5, cr11, {0}
     b40:	0502042e 	streq	r0, [r2, #-1070]	; 0xfffffbd2
     b44:	7e98030c 	cdpvc	3, 9, cr0, cr8, cr12, {0}
     b48:	0501042e 	streq	r0, [r1, #-1070]	; 0xfffffbd2
     b4c:	01f4030d 	mvnseq	r0, sp, lsl #6
     b50:	0548064a 	strbeq	r0, [r8, #-1610]	; 0xfffff9b6
     b54:	05010613 	streq	r0, [r1, #-1555]	; 0xfffff9ed
     b58:	052f060d 	streq	r0, [pc, #-1549]!	; 553 <__code_start__-0x7aad>
     b5c:	0501061a 	streq	r0, [r1, #-1562]	; 0xfffff9e6
     b60:	044b060d 	strbeq	r0, [fp], #-1549	; 0xfffff9f3
     b64:	030b0502 	movweq	r0, #46338	; 0xb502
     b68:	052e7e8b 	streq	r7, [lr, #-3723]!	; 0xfffff175
     b6c:	0c051305 	stceq	3, cr1, [r5], {5}
     b70:	04820106 	streq	r0, [r2], #262	; 0x106
     b74:	030d0501 	movweq	r0, #54529	; 0xd501
     b78:	4a0101f4 	bmi	41350 <__bss_end__+0x36528>
     b7c:	28052f06 	stmdacs	r5, {r1, r2, r8, r9, sl, fp, sp}
     b80:	05667803 	strbeq	r7, [r6, #-2051]!	; 0xfffff7fd
     b84:	0501062c 	streq	r0, [r1, #-1580]	; 0xfffff9d4
     b88:	054a0625 	strbeq	r0, [sl, #-1573]	; 0xfffff9db
     b8c:	05010605 	streq	r0, [r1, #-1541]	; 0xfffff9fb
     b90:	054c0609 	strbeq	r0, [ip, #-1545]	; 0xfffff9f7
     b94:	05010610 	streq	r0, [r1, #-1552]	; 0xfffff9f0
     b98:	052f0609 	streq	r0, [pc, #-1545]!	; 597 <__code_start__-0x7a69>
     b9c:	6601060c 	strvs	r0, [r1], -ip, lsl #12
     ba0:	0327052e 			; <UNDEFINED> instruction: 0x0327052e
     ba4:	1b050178 	blne	14118c <__bss_end__+0x136364>
     ba8:	2e0e052e 	cfsh32cs	mvfx0, mvfx14, #30
     bac:	03060505 	movweq	r0, #25861	; 0x6505
     bb0:	06012e11 			; <UNDEFINED> instruction: 0x06012e11
     bb4:	142e0682 	strtne	r0, [lr], #-1666	; 0xfffff97e
     bb8:	03060106 	movweq	r0, #24838	; 0x6106
     bbc:	0105010a 	tsteq	r5, sl, lsl #2
     bc0:	06661306 	strbteq	r1, [r6], -r6, lsl #6
     bc4:	d4020500 	strle	r0, [r2], #-1280	; 0xfffffb00
     bc8:	1500008a 	strne	r0, [r0, #-138]	; 0xffffff76
     bcc:	012f0505 			; <UNDEFINED> instruction: 0x012f0505
     bd0:	000a029e 	muleq	sl, lr, r2
     bd4:	01210101 			; <UNDEFINED> instruction: 0x01210101
     bd8:	00030000 	andeq	r0, r3, r0
     bdc:	000000be 	strheq	r0, [r0], -lr
     be0:	0efb0102 	cdpeq	1, 15, cr0, cr11, cr2, {0}
     be4:	0101000d 	tsteq	r1, sp
     be8:	00000101 	andeq	r0, r0, r1, lsl #2
     bec:	00000100 	andeq	r0, r0, r0, lsl #2
     bf0:	6c2f2e01 	stcvs	14, cr2, [pc], #-4	; bf4 <__code_start__-0x740c>
     bf4:	00636269 	rsbeq	r6, r3, r9, ror #4
     bf8:	6573552f 	ldrbvs	r5, [r3, #-1327]!	; 0xfffffad1
     bfc:	6d2f7372 	stcvs	3, cr7, [pc, #-456]!	; a3c <__code_start__-0x75c4>
     c00:	73656c69 	cmnvc	r5, #26880	; 0x6900
     c04:	756f532f 	strbvc	r5, [pc, #-815]!	; 8dd <__code_start__-0x7723>
     c08:	2f656372 	svccs	0x00656372
     c0c:	34327363 	ldrtcc	r7, [r2], #-867	; 0xfffffc9d
     c10:	2f786c30 	svccs	0x00786c30
     c14:	7062696c 	rsbvc	r6, r2, ip, ror #18
     c18:	6e692f69 	cdpvs	15, 6, cr2, cr9, cr9, {3}
     c1c:	64756c63 	ldrbtvs	r6, [r5], #-3171	; 0xfffff39d
     c20:	6f2f0065 	svcvs	0x002f0065
     c24:	682f7470 	stmdavs	pc!, {r4, r5, r6, sl, ip, sp, lr}	; <UNPREDICTABLE>
     c28:	62656d6f 	rsbvs	r6, r5, #7104	; 0x1bc0
     c2c:	2f776572 	svccs	0x00776572
     c30:	6c6c6543 	cfstr64vs	mvdx6, [ip], #-268	; 0xfffffef4
     c34:	612f7261 			; <UNDEFINED> instruction: 0x612f7261
     c38:	6e2d6d72 	mcrvs	13, 1, r6, cr13, cr2, {3}
     c3c:	2d656e6f 	stclcs	14, cr6, [r5, #-444]!	; 0xfffffe44
     c40:	69626165 	stmdbvs	r2!, {r0, r2, r5, r6, r8, sp, lr}^
     c44:	392f392d 	stmdbcc	pc!, {r0, r2, r3, r5, r8, fp, ip, sp}	; <UNPREDICTABLE>
     c48:	3130322d 	teqcc	r0, sp, lsr #4
     c4c:	2d347139 	ldfcss	f7, [r4, #-228]!	; 0xffffff1c
     c50:	30317363 	eorscc	r7, r1, r3, ror #6
     c54:	6c2f6537 	cfstr32vs	mvfx6, [pc], #-220	; b80 <__code_start__-0x7480>
     c58:	672f6269 	strvs	r6, [pc, -r9, ror #4]!
     c5c:	612f6363 			; <UNDEFINED> instruction: 0x612f6363
     c60:	6e2d6d72 	mcrvs	13, 1, r6, cr13, cr2, {3}
     c64:	2d656e6f 	stclcs	14, cr6, [r5, #-444]!	; 0xfffffe44
     c68:	69626165 	stmdbvs	r2!, {r0, r2, r5, r6, r8, sp, lr}^
     c6c:	322e392f 	eorcc	r3, lr, #770048	; 0xbc000
     c70:	692f312e 	stmdbvs	pc!, {r1, r2, r3, r5, r8, ip, sp}	; <UNPREDICTABLE>
     c74:	756c636e 	strbvc	r6, [ip, #-878]!	; 0xfffffc92
     c78:	00006564 	andeq	r6, r0, r4, ror #10
     c7c:	736d656d 	cmnvc	sp, #457179136	; 0x1b400000
     c80:	632e7465 			; <UNDEFINED> instruction: 0x632e7465
     c84:	00000100 	andeq	r0, r0, r0, lsl #2
     c88:	2e697072 	mcrcs	0, 3, r7, cr9, cr2, {3}
     c8c:	00020068 	andeq	r0, r2, r8, rrx
     c90:	64747300 	ldrbtvs	r7, [r4], #-768	; 0xfffffd00
     c94:	2e666564 	cdpcs	5, 6, cr6, cr6, cr4, {3}
     c98:	00030068 	andeq	r0, r3, r8, rrx
     c9c:	29050000 	stmdbcs	r5, {}	; <UNPREDICTABLE>
     ca0:	08020500 	stmdaeq	r2, {r8, sl}
     ca4:	1500008b 	strne	r0, [r0, #-139]	; 0xffffff75
     ca8:	05130505 	ldreq	r0, [r3, #-1285]	; 0xfffffafb
     cac:	05110629 	ldreq	r0, [r1, #-1577]	; 0xfffff9d7
     cb0:	05052f14 	streq	r2, [r5, #-3860]	; 0xfffff0ec
     cb4:	0a053006 	beq	14ccd4 <__bss_end__+0x141eac>
     cb8:	059e0601 	ldreq	r0, [lr, #1537]	; 0x601
     cbc:	05d70609 	ldrbeq	r0, [r7, #1545]	; 0x609
     cc0:	0501060e 	streq	r0, [r1, #-1550]	; 0xfffff9f2
     cc4:	052d060a 	streq	r0, [sp, #-1546]!	; 0xfffff9f6
     cc8:	0e05bb09 	vmlaeq.f64	d11, d5, d9
     ccc:	052e0106 	streq	r0, [lr, #-262]!	; 0xfffffefa
     cd0:	052d060a 	streq	r0, [sp, #-1546]!	; 0xfffff9f6
     cd4:	0b054b09 	bleq	153900 <__bss_end__+0x148ad8>
     cd8:	0a050106 	beq	1410f8 <__bss_end__+0x1362d0>
     cdc:	2f0e052d 	svccs	0x000e052d
     ce0:	2d060a05 	vstrcs	s0, [r6, #-20]	; 0xffffffec
     ce4:	13060e05 	movwne	r0, #28165	; 0x6e05
     ce8:	2e060905 	vmlacs.f16	s0, s12, s10	; <UNPREDICTABLE>
     cec:	05110a05 	ldreq	r0, [r1, #-2565]	; 0xfffff5fb
     cf0:	01051405 	tsteq	r5, r5, lsl #8
     cf4:	02021306 	andeq	r1, r2, #402653184	; 0x18000000
     cf8:	20010100 	andcs	r0, r1, r0, lsl #2
     cfc:	03000001 	movweq	r0, #1
     d00:	0000db00 	andeq	sp, r0, r0, lsl #22
     d04:	fb010200 	blx	4150e <__bss_end__+0x366e6>
     d08:	01000d0e 	tsteq	r0, lr, lsl #26
     d0c:	00010101 	andeq	r0, r1, r1, lsl #2
     d10:	00010000 	andeq	r0, r1, r0
     d14:	2f2e0100 	svccs	0x002e0100
     d18:	6362696c 	cmnvs	r2, #108, 18	; 0x1b0000
     d1c:	706f2f00 	rsbvc	r2, pc, r0, lsl #30
     d20:	6f682f74 	svcvs	0x00682f74
     d24:	7262656d 	rsbvc	r6, r2, #457179136	; 0x1b400000
     d28:	432f7765 			; <UNDEFINED> instruction: 0x432f7765
     d2c:	616c6c65 	cmnvs	ip, r5, ror #24
     d30:	72612f72 	rsbvc	r2, r1, #456	; 0x1c8
     d34:	6f6e2d6d 	svcvs	0x006e2d6d
     d38:	652d656e 	strvs	r6, [sp, #-1390]!	; 0xfffffa92
     d3c:	2d696261 	sfmcs	f6, 2, [r9, #-388]!	; 0xfffffe7c
     d40:	2d392f39 	ldccs	15, cr2, [r9, #-228]!	; 0xffffff1c
     d44:	39313032 	ldmdbcc	r1!, {r1, r4, r5, ip, sp}
     d48:	632d3471 			; <UNDEFINED> instruction: 0x632d3471
     d4c:	37303173 			; <UNDEFINED> instruction: 0x37303173
     d50:	696c2f65 	stmdbvs	ip!, {r0, r2, r5, r6, r8, r9, sl, fp, sp}^
     d54:	63672f62 	cmnvs	r7, #392	; 0x188
     d58:	72612f63 	rsbvc	r2, r1, #396	; 0x18c
     d5c:	6f6e2d6d 	svcvs	0x006e2d6d
     d60:	652d656e 	strvs	r6, [sp, #-1390]!	; 0xfffffa92
     d64:	2f696261 	svccs	0x00696261
     d68:	2e322e39 	mrccs	14, 1, r2, cr2, cr9, {1}
     d6c:	6e692f31 	mcrvs	15, 3, r2, cr9, cr1, {1}
     d70:	64756c63 	ldrbtvs	r6, [r5], #-3171	; 0xfffff39d
     d74:	552f0065 	strpl	r0, [pc, #-101]!	; d17 <__code_start__-0x72e9>
     d78:	73726573 	cmnvc	r2, #482344960	; 0x1cc00000
     d7c:	6c696d2f 	stclvs	13, cr6, [r9], #-188	; 0xffffff44
     d80:	532f7365 			; <UNDEFINED> instruction: 0x532f7365
     d84:	6372756f 	cmnvs	r2, #465567744	; 0x1bc00000
     d88:	73632f65 	cmnvc	r3, #404	; 0x194
     d8c:	6c303432 	cfldrsvs	mvf3, [r0], #-200	; 0xffffff38
     d90:	696c2f78 	stmdbvs	ip!, {r3, r4, r5, r6, r8, r9, sl, fp, sp}^
     d94:	2f697062 	svccs	0x00697062
     d98:	6c636e69 	stclvs	14, cr6, [r3], #-420	; 0xfffffe5c
     d9c:	00656475 	rsbeq	r6, r5, r5, ror r4
     da0:	69727000 	ldmdbvs	r2!, {ip, sp, lr}^
     da4:	2e6b746e 	cdpcs	4, 6, cr7, cr11, cr14, {3}
     da8:	00010063 	andeq	r0, r1, r3, rrx
     dac:	64747300 	ldrbtvs	r7, [r4], #-768	; 0xfffffd00
     db0:	2e677261 	cdpcs	2, 6, cr7, cr7, cr1, {3}
     db4:	00020068 	andeq	r0, r2, r8, rrx
     db8:	69707200 	ldmdbvs	r0!, {r9, ip, sp, lr}^
     dbc:	0300682e 	movweq	r6, #2094	; 0x82e
     dc0:	623c0000 	eorsvs	r0, ip, #0, 0
     dc4:	746c6975 	strbtvc	r6, [ip], #-2421	; 0xfffff68b
     dc8:	3e6e692d 	vmulcc.f16	s13, s28, s27	; <UNPREDICTABLE>
     dcc:	00000000 	andeq	r0, r0, r0
     dd0:	702d6176 	eorvc	r6, sp, r6, ror r1
     dd4:	746e6972 	strbtvc	r6, [lr], #-2418	; 0xfffff68e
     dd8:	00682e6b 	rsbeq	r2, r8, fp, ror #28
     ddc:	00000001 	andeq	r0, r0, r1
     de0:	05002205 	streq	r2, [r0, #-517]	; 0xfffffdfb
     de4:	008b8002 	addeq	r8, fp, r2
     de8:	05051700 	streq	r1, [r5, #-1792]	; 0xfffff900
     dec:	05141314 	ldreq	r1, [r4, #-788]	; 0xfffffcec
     df0:	050d0622 	streq	r0, [sp, #-1570]	; 0xfffff9de
     df4:	22055012 	andcs	r5, r5, #18, 0
     df8:	052e7a03 	streq	r7, [lr, #-2563]!	; 0xfffff5fd
     dfc:	12053305 	andne	r3, r5, #335544320	; 0x14000000
     e00:	6505052f 	strvs	r0, [r5, #-1327]	; 0xfffffad1
     e04:	2f060905 	svccs	0x00060905
     e08:	01061205 	tsteq	r6, r5, lsl #4
     e0c:	4b060505 	blmi	182228 <__bss_end__+0x177400>
     e10:	064a0616 			; <UNDEFINED> instruction: 0x064a0616
     e14:	06010550 			; <UNDEFINED> instruction: 0x06010550
     e18:	08026613 	stmdaeq	r2, {r0, r1, r4, r9, sl, sp, lr}
     e1c:	a0010100 	andge	r0, r1, r0, lsl #2
     e20:	03000000 	movweq	r0, #0
     e24:	00005700 	andeq	r5, r0, r0, lsl #14
     e28:	fb010200 	blx	41632 <__bss_end__+0x3680a>
     e2c:	01000d0e 	tsteq	r0, lr, lsl #26
     e30:	00010101 	andeq	r0, r1, r1, lsl #2
     e34:	00010000 	andeq	r0, r1, r0
     e38:	2f2e0100 	svccs	0x002e0100
     e3c:	6362696c 	cmnvs	r2, #108, 18	; 0x1b0000
     e40:	73552f00 	cmpvc	r5, #0, 30
     e44:	2f737265 	svccs	0x00737265
     e48:	656c696d 	strbvs	r6, [ip, #-2413]!	; 0xfffff693
     e4c:	6f532f73 	svcvs	0x00532f73
     e50:	65637275 	strbvs	r7, [r3, #-629]!	; 0xfffffd8b
     e54:	3273632f 	rsbscc	r6, r3, #-1140850688	; 0xbc000000
     e58:	786c3034 	stmdavc	ip!, {r2, r4, r5, ip, sp}^
     e5c:	62696c2f 	rsbvs	r6, r9, #12032	; 0x2f00
     e60:	692f6970 	stmdbvs	pc!, {r4, r5, r6, r8, fp, sp, lr}	; <UNPREDICTABLE>
     e64:	756c636e 	strbvc	r6, [ip, #-878]!	; 0xfffffc92
     e68:	00006564 	andeq	r6, r0, r4, ror #10
     e6c:	6b747570 	blvs	1d1e434 <__bss_end__+0x1d1360c>
     e70:	0100632e 	tsteq	r0, lr, lsr #6
     e74:	70720000 	rsbsvc	r0, r2, r0
     e78:	00682e69 	rsbeq	r2, r8, r9, ror #28
     e7c:	00000002 	andeq	r0, r0, r2
     e80:	05002205 	streq	r2, [r0, #-517]	; 0xfffffdfb
     e84:	008bd802 	addeq	sp, fp, r2, lsl #16
     e88:	05051500 	streq	r1, [r5, #-1280]	; 0xfffffb00
     e8c:	06220513 			; <UNDEFINED> instruction: 0x06220513
     e90:	0b052e11 	bleq	14c6dc <__bss_end__+0x1418b4>
     e94:	05052f06 	streq	r2, [r5, #-3846]	; 0xfffff0fa
     e98:	09052e06 	stmdbeq	r5, {r1, r2, r9, sl, fp, sp}
     e9c:	02040200 	andeq	r0, r4, #0, 4
     ea0:	0f056706 	svceq	0x00056706
     ea4:	02040200 	andeq	r0, r4, #0, 4
     ea8:	000b0549 	andeq	r0, fp, r9, asr #10
     eac:	01020402 	tsteq	r2, r2, lsl #8
     eb0:	02000505 	andeq	r0, r0, #20971520	; 0x1400000
     eb4:	2e060204 	cdpcs	2, 0, cr0, cr6, cr4, {0}
     eb8:	01054e06 	tsteq	r5, r6, lsl #28
     ebc:	06021306 	streq	r1, [r2], -r6, lsl #6
     ec0:	fa010100 	blx	412c8 <__bss_end__+0x364a0>
     ec4:	03000008 	movweq	r0, #8
     ec8:	0000f100 	andeq	pc, r0, r0, lsl #2
     ecc:	fb010200 	blx	416d6 <__bss_end__+0x368ae>
     ed0:	01000d0e 	tsteq	r0, lr, lsl #26
     ed4:	00010101 	andeq	r0, r1, r1, lsl #2
     ed8:	00010000 	andeq	r0, r1, r0
     edc:	2f2e0100 	svccs	0x002e0100
     ee0:	6362696c 	cmnvs	r2, #108, 18	; 0x1b0000
     ee4:	706f2f00 	rsbvc	r2, pc, r0, lsl #30
     ee8:	6f682f74 	svcvs	0x00682f74
     eec:	7262656d 	rsbvc	r6, r2, #457179136	; 0x1b400000
     ef0:	432f7765 			; <UNDEFINED> instruction: 0x432f7765
     ef4:	616c6c65 	cmnvs	ip, r5, ror #24
     ef8:	72612f72 	rsbvc	r2, r1, #456	; 0x1c8
     efc:	6f6e2d6d 	svcvs	0x006e2d6d
     f00:	652d656e 	strvs	r6, [sp, #-1390]!	; 0xfffffa92
     f04:	2d696261 	sfmcs	f6, 2, [r9, #-388]!	; 0xfffffe7c
     f08:	2d392f39 	ldccs	15, cr2, [r9, #-228]!	; 0xffffff1c
     f0c:	39313032 	ldmdbcc	r1!, {r1, r4, r5, ip, sp}
     f10:	632d3471 			; <UNDEFINED> instruction: 0x632d3471
     f14:	37303173 			; <UNDEFINED> instruction: 0x37303173
     f18:	696c2f65 	stmdbvs	ip!, {r0, r2, r5, r6, r8, r9, sl, fp, sp}^
     f1c:	63672f62 	cmnvs	r7, #392	; 0x188
     f20:	72612f63 	rsbvc	r2, r1, #396	; 0x18c
     f24:	6f6e2d6d 	svcvs	0x006e2d6d
     f28:	652d656e 	strvs	r6, [sp, #-1390]!	; 0xfffffa92
     f2c:	2f696261 	svccs	0x00696261
     f30:	2e322e39 	mrccs	14, 1, r2, cr2, cr9, {1}
     f34:	6e692f31 	mcrvs	15, 3, r2, cr9, cr1, {1}
     f38:	64756c63 	ldrbtvs	r6, [r5], #-3171	; 0xfffff39d
     f3c:	552f0065 	strpl	r0, [pc, #-101]!	; edf <__code_start__-0x7121>
     f40:	73726573 	cmnvc	r2, #482344960	; 0x1cc00000
     f44:	6c696d2f 	stclvs	13, cr6, [r9], #-188	; 0xffffff44
     f48:	532f7365 			; <UNDEFINED> instruction: 0x532f7365
     f4c:	6372756f 	cmnvs	r2, #465567744	; 0x1bc00000
     f50:	73632f65 	cmnvc	r3, #404	; 0x194
     f54:	6c303432 	cfldrsvs	mvf3, [r0], #-200	; 0xffffff38
     f58:	696c2f78 	stmdbvs	ip!, {r3, r4, r5, r6, r8, r9, sl, fp, sp}^
     f5c:	2f697062 	svccs	0x00697062
     f60:	6c636e69 	stclvs	14, cr6, [r3], #-420	; 0xfffffe5c
     f64:	00656475 	rsbeq	r6, r5, r5, ror r4
     f68:	2d617600 	stclcs	6, cr7, [r1, #-0]
     f6c:	6e697270 	mcrvs	2, 3, r7, cr9, cr0, {3}
     f70:	632e6b74 			; <UNDEFINED> instruction: 0x632e6b74
     f74:	00000100 	andeq	r0, r0, r0, lsl #2
     f78:	69647473 	stmdbvs	r4!, {r0, r1, r4, r5, r6, sl, ip, sp, lr}^
     f7c:	672d746e 	strvs	r7, [sp, -lr, ror #8]!
     f80:	682e6363 	stmdavs	lr!, {r0, r1, r5, r6, r8, r9, sp, lr}
     f84:	00000200 	andeq	r0, r0, r0, lsl #4
     f88:	2e697072 	mcrcs	0, 3, r7, cr9, cr2, {3}
     f8c:	00030068 	andeq	r0, r3, r8, rrx
     f90:	69707200 	ldmdbvs	r0!, {r9, ip, sp, lr}^
     f94:	746e692d 	strbtvc	r6, [lr], #-2349	; 0xfffff6d3
     f98:	616e7265 	cmnvs	lr, r5, ror #4
     f9c:	00682e6c 	rsbeq	r2, r8, ip, ror #28
     fa0:	73000003 	movwvc	r0, #3
     fa4:	72616474 	rsbvc	r6, r1, #116, 8	; 0x74000000
     fa8:	00682e67 	rsbeq	r2, r8, r7, ror #28
     fac:	3c000002 	stccc	0, cr0, [r0], {2}
     fb0:	6c697562 	cfstr64vs	mvdx7, [r9], #-392	; 0xfffffe78
     fb4:	6e692d74 	mcrvs	13, 3, r2, cr9, cr4, {3}
     fb8:	0000003e 	andeq	r0, r0, lr, lsr r0
     fbc:	01050000 	mrseq	r0, (UNDEF: 5)
     fc0:	10020500 	andne	r0, r2, r0, lsl #10
     fc4:	0300008c 	movweq	r0, #140	; 0x8c
     fc8:	050100c8 	streq	r0, [r1, #-200]	; 0xffffff38
     fcc:	01051402 	tsteq	r5, r2, lsl #8
     fd0:	04051006 	streq	r1, [r5], #-6
     fd4:	2c010530 	cfstr32cs	mvfx0, [r1], {48}	; 0x30
     fd8:	3004054a 	andcc	r0, r4, sl, asr #10
     fdc:	31060205 	tstcc	r6, r5, lsl #4
     fe0:	060b0513 			; <UNDEFINED> instruction: 0x060b0513
     fe4:	0602052e 	streq	r0, [r2], -lr, lsr #10
     fe8:	06090530 			; <UNDEFINED> instruction: 0x06090530
     fec:	2e0d2402 	cdpcs	4, 0, cr2, cr13, cr2, {0}
     ff0:	060d052e 	streq	r0, [sp], -lr, lsr #10
     ff4:	054a1703 	strbeq	r1, [sl, #-1795]	; 0xfffff8fd
     ff8:	2d051311 	stccs	3, cr1, [r5, #-68]	; 0xffffffbc
     ffc:	16050106 	strne	r0, [r5], -r6, lsl #2
    1000:	2f0d052e 	svccs	0x000d052e
    1004:	052d1605 	streq	r1, [sp, #-1541]!	; 0xfffff9fb
    1008:	052f0614 	streq	r0, [pc, #-1556]!	; 9fc <__code_start__-0x7604>
    100c:	05010617 	streq	r0, [r1, #-1559]	; 0xfffff9e9
    1010:	2f062e0d 	svccs	0x00062e0d
    1014:	01061205 	tsteq	r6, r5, lsl #4
    1018:	052d2f2e 	streq	r2, [sp, #-3886]!	; 0xfffff0d2
    101c:	052f060d 	streq	r0, [pc, #-1549]!	; a17 <__code_start__-0x75e9>
    1020:	05010612 	streq	r0, [r1, #-1554]	; 0xfffff9ee
    1024:	052f0619 	streq	r0, [pc, #-1561]!	; a13 <__code_start__-0x75ed>
    1028:	01110304 	tsteq	r1, r4, lsl #6
    102c:	15020501 	strne	r0, [r2, #-1281]	; 0xfffffaff
    1030:	b2030e05 	andlt	r0, r3, #80	; 0x50
    1034:	0205017f 	andeq	r0, r5, #-1073741793	; 0xc000001f
    1038:	06060513 			; <UNDEFINED> instruction: 0x06060513
    103c:	06020501 	streq	r0, [r2], -r1, lsl #10
    1040:	01080530 	tsteq	r8, r0, lsr r5
    1044:	01060205 	tsteq	r6, r5, lsl #4
    1048:	0808054a 	stmdaeq	r8, {r1, r3, r6, r8, sl}
    104c:	06030591 			; <UNDEFINED> instruction: 0x06030591
    1050:	0608054a 	streq	r0, [r8], -sl, asr #10
    1054:	06150501 	ldreq	r0, [r5], -r1, lsl #10
    1058:	0108052d 	tsteq	r8, sp, lsr #10
    105c:	05d70305 	ldrbeq	r0, [r7, #773]	; 0x305
    1060:	05010608 	streq	r0, [r1, #-1544]	; 0xfffff9f8
    1064:	02052d18 	andeq	r2, r5, #24, 26	; 0x600
    1068:	2f08052e 	svccs	0x0008052e
    106c:	2d061505 	cfstr32cs	mvfx1, [r6, #-20]	; 0xffffffec
    1070:	05010805 	streq	r0, [r1, #-2053]	; 0xfffff7fb
    1074:	05010602 	streq	r0, [r1, #-1538]	; 0xfffff9fe
    1078:	052f0603 	streq	r0, [pc, #-1539]!	; a7d <__code_start__-0x7583>
    107c:	05110618 	ldreq	r0, [r1, #-1560]	; 0xfffff9e8
    1080:	08052e02 	stmdaeq	r5, {r1, r9, sl, fp, sp}
    1084:	0615052f 	ldreq	r0, [r5], -pc, lsr #10
    1088:	0108052d 	tsteq	r8, sp, lsr #10
    108c:	05130305 	ldreq	r0, [r3, #-773]	; 0xfffffcfb
    1090:	05010608 	streq	r0, [r1, #-1544]	; 0xfffff9f8
    1094:	052d0615 	streq	r0, [sp, #-1557]!	; 0xfffff9eb
    1098:	01060108 	tsteq	r6, r8, lsl #2
    109c:	a0060205 	andge	r0, r6, r5, lsl #4
    10a0:	01060505 	tsteq	r6, r5, lsl #10
    10a4:	05360405 	ldreq	r0, [r6, #-1029]!	; 0xfffffbfb
    10a8:	09052f11 	stmdbeq	r5, {r0, r4, r8, r9, sl, fp, sp}
    10ac:	3302052e 	movwcc	r0, #9518	; 0x252e
    10b0:	72030505 	andvc	r0, r3, #20971520	; 0x1400000
    10b4:	0602052e 	streq	r0, [r2], -lr, lsr #10
    10b8:	0501062f 	streq	r0, [r1, #-1583]	; 0xfffff9d1
    10bc:	0516060e 	ldreq	r0, [r6, #-1550]	; 0xfffff9f2
    10c0:	05131402 	ldreq	r1, [r3, #-1026]	; 0xfffffbfe
    10c4:	02051303 	andeq	r1, r5, #201326592	; 0xc000000
    10c8:	0b051514 	bleq	146520 <__bss_end__+0x13b6f8>
    10cc:	06020501 	streq	r0, [r2], -r1, lsl #10
    10d0:	03052e01 	movweq	r2, #24065	; 0x5e01
    10d4:	0a056706 	beq	15acf4 <__bss_end__+0x14fecc>
    10d8:	02050106 	andeq	r0, r5, #-2147483647	; 0x80000001
    10dc:	2f0a052d 	svccs	0x000a052d
    10e0:	2d061705 	stccs	7, cr1, [r6, #-20]	; 0xffffffec
    10e4:	05010b05 	streq	r0, [r1, #-2821]	; 0xfffff4fb
    10e8:	05010602 	streq	r0, [r1, #-1538]	; 0xfffff9fe
    10ec:	052e4c09 	streq	r4, [lr, #-3081]!	; 0xfffff3f7
    10f0:	052e0602 	streq	r0, [lr, #-1538]!	; 0xfffff9fe
    10f4:	05010609 	streq	r0, [r1, #-1545]	; 0xfffff9f7
    10f8:	06300602 	ldrteq	r0, [r0], -r2, lsl #12
    10fc:	03010501 	movweq	r0, #5377	; 0x1501
    1100:	09050138 	stmdbeq	r5, {r3, r4, r5, r8}
    1104:	2e4a4f03 	cdpcs	15, 4, cr4, cr10, cr3, {0}
    1108:	0619052e 	ldreq	r0, [r9], -lr, lsr #10
    110c:	054a2703 	strbeq	r2, [sl, #-1795]	; 0xfffff8fd
    1110:	2805131a 	stmdacs	r5, {r1, r3, r4, r8, r9, ip}
    1114:	1f050106 	svcne	0x00050106
    1118:	2f04052e 	svccs	0x0004052e
    111c:	052d1f05 	streq	r1, [sp, #-3845]!	; 0xfffff0fb
    1120:	052f060b 	streq	r0, [pc, #-1547]!	; b1d <__code_start__-0x74e3>
    1124:	0501060e 	streq	r0, [r1, #-1550]	; 0xfffff9f2
    1128:	02052e04 	andeq	r2, r5, #4, 28	; 0x40
    112c:	4a590306 	bmi	1641d4c <__bss_end__+0x1636f24>
    1130:	060b0513 			; <UNDEFINED> instruction: 0x060b0513
    1134:	0602052e 	streq	r0, [r2], -lr, lsr #10
    1138:	06090530 			; <UNDEFINED> instruction: 0x06090530
    113c:	050d2402 	streq	r2, [sp, #-1026]	; 0xfffffbfe
    1140:	13360604 	teqne	r6, #4, 12	; 0x400000
    1144:	01060605 	tsteq	r6, r5, lsl #12
    1148:	67060505 	strvs	r0, [r6, -r5, lsl #10]
    114c:	09051313 	stmdbeq	r5, {r0, r1, r4, r8, r9, ip}
    1150:	0d051106 	stfeqs	f1, [r5, #-24]	; 0xffffffe8
    1154:	300b052b 	andcc	r0, fp, fp, lsr #10
    1158:	052c0d05 	streq	r0, [ip, #-3333]!	; 0xfffff2fb
    115c:	0405351b 	streq	r3, [r5], #-1307	; 0xfffffae5
    1160:	05052d06 	streq	r2, [r5, #-3334]	; 0xfffff2fa
    1164:	061b0513 			; <UNDEFINED> instruction: 0x061b0513
    1168:	820a052e 	andhi	r0, sl, #192937984	; 0xb800000
    116c:	052f0405 	streq	r0, [pc, #-1029]!	; d6f <__code_start__-0x7291>
    1170:	0a052e0e 	beq	14c9b0 <__bss_end__+0x141b88>
    1174:	060b0549 	streq	r0, [fp], -r9, asr #10
    1178:	0604052f 	streq	r0, [r4], -pc, lsr #10
    117c:	052f0601 	streq	r0, [pc, #-1537]!	; b83 <__code_start__-0x747d>
    1180:	05010606 	streq	r0, [r1, #-1542]	; 0xfffff9fa
    1184:	052f0605 	streq	r0, [pc, #-1541]!	; b87 <__code_start__-0x7479>
    1188:	2e01060a 	cfmadd32cs	mvax0, mvfx0, mvfx1, mvfx10
    118c:	2e2e0705 	cdpcs	7, 2, cr0, cr14, cr5, {0}
    1190:	0604052e 	streq	r0, [r4], -lr, lsr #10
    1194:	05010d03 	streq	r0, [r1, #-3331]	; 0xfffff2fd
    1198:	46030602 	strmi	r0, [r3], -r2, lsl #12
    119c:	03090501 	movweq	r0, #38145	; 0x9501
    11a0:	04052e3a 	streq	r2, [r5], #-3642	; 0xfffff1c6
    11a4:	0d032f06 	stceq	15, cr2, [r3, #-24]	; 0xffffffe8
    11a8:	02050101 	andeq	r0, r5, #1073741824	; 0x40000000
    11ac:	030e0515 	movweq	r0, #58645	; 0xe515
    11b0:	05017fb2 	streq	r7, [r1, #-4018]	; 0xfffff04e
    11b4:	05141302 	ldreq	r1, [r4, #-770]	; 0xfffffcfe
    11b8:	06050108 	streq	r0, [r5], -r8, lsl #2
    11bc:	3c031006 	stccc	0, cr1, [r3], {6}
    11c0:	0302052e 	movweq	r0, #9518	; 0x252e
    11c4:	30064a46 	andcc	r4, r6, r6, asr #20
    11c8:	01060505 	tsteq	r6, r5, lsl #10
    11cc:	02052e2e 	andeq	r2, r5, #736	; 0x2e0
    11d0:	01064b06 	tsteq	r6, r6, lsl #22
    11d4:	16060e05 	strne	r0, [r6], -r5, lsl #28
    11d8:	13140205 	tstne	r4, #1342177280	; 0x50000000
    11dc:	0b051515 	bleq	146638 <__bss_end__+0x13b810>
    11e0:	06020501 	streq	r0, [r2], -r1, lsl #10
    11e4:	0530062e 	ldreq	r0, [r0, #-1582]!	; 0xfffff9d2
    11e8:	05010609 	streq	r0, [r1, #-1545]	; 0xfffff9f7
    11ec:	064c0602 	strbeq	r0, [ip], -r2, lsl #12
    11f0:	03010501 	movweq	r0, #5377	; 0x1501
    11f4:	06050138 			; <UNDEFINED> instruction: 0x06050138
    11f8:	054a6e03 	strbeq	r6, [sl, #-3587]	; 0xfffff1fd
    11fc:	66460302 	strbvs	r0, [r6], -r2, lsl #6
    1200:	04052e4a 	streq	r2, [r5], #-3658	; 0xfffff1b6
    1204:	00c80306 	sbceq	r0, r8, r6, lsl #6
    1208:	01010101 	tsteq	r1, r1, lsl #2
    120c:	06822e06 	streq	r2, [r2], r6, lsl #28
    1210:	2e72034a 	cdpcs	3, 7, cr0, cr2, cr10, {2}
    1214:	01060905 	tsteq	r6, r5, lsl #18
    1218:	2f060405 	svccs	0x00060405
    121c:	01010d03 	tsteq	r1, r3, lsl #26
    1220:	05150205 	ldreq	r0, [r5, #-517]	; 0xfffffdfb
    1224:	7fb2030e 	svcvc	0x00b2030e
    1228:	13020501 	movwne	r0, #9473	; 0x2501
    122c:	01080514 	tsteq	r8, r4, lsl r5
    1230:	03060905 	movweq	r0, #26885	; 0x6905
    1234:	0605011b 			; <UNDEFINED> instruction: 0x0605011b
    1238:	032e6303 			; <UNDEFINED> instruction: 0x032e6303
    123c:	2e2e2e3c 	mcrcs	14, 1, r2, cr14, cr12, {1}
    1240:	03064805 	movweq	r4, #26629	; 0x6805
    1244:	3c087fb4 	stccc	15, cr7, [r8], {180}	; 0xb4
    1248:	01130505 	tsteq	r3, r5, lsl #10
    124c:	02002e06 	andeq	r2, r0, #96	; 0x60
    1250:	2e060204 	cdpcs	2, 0, cr0, cr6, cr4, {0}
    1254:	02040200 	andeq	r0, r4, #0, 4
    1258:	04020001 	streq	r0, [r2], #-1
    125c:	11051302 	tstne	r5, r2, lsl #6
    1260:	02040200 	andeq	r0, r4, #0, 4
    1264:	07050106 	streq	r0, [r5, -r6, lsl #2]
    1268:	02040200 	andeq	r0, r4, #0, 4
    126c:	0011052f 	andseq	r0, r1, pc, lsr #10
    1270:	2d020402 	cfstrscs	mvf0, [r2, #-8]
    1274:	02000505 	andeq	r0, r0, #20971520	; 0x1400000
    1278:	2f060204 	svccs	0x00060204
    127c:	02000905 	andeq	r0, r0, #81920	; 0x14000
    1280:	05130204 	ldreq	r0, [r3, #-516]	; 0xfffffdfc
    1284:	0402000e 	streq	r0, [r2], #-14
    1288:	05010602 	streq	r0, [r1, #-1538]	; 0xfffff9fe
    128c:	04020005 	streq	r0, [r2], #-5
    1290:	00630601 	rsbeq	r0, r3, r1, lsl #12
    1294:	01010402 	tsteq	r1, r2, lsl #8
    1298:	02004805 	andeq	r4, r0, #327680	; 0x50000
    129c:	11060104 	tstne	r6, r4, lsl #2
    12a0:	02000505 	andeq	r0, r0, #20971520	; 0x1400000
    12a4:	052f0104 	streq	r0, [pc, #-260]!	; 11a8 <__code_start__-0x6e58>
    12a8:	04020048 	streq	r0, [r2], #-72	; 0xffffffb8
    12ac:	05052d01 	streq	r2, [r5, #-3329]	; 0xfffff2ff
    12b0:	01040200 	mrseq	r0, R12_usr
    12b4:	0402002f 	streq	r0, [r2], #-47	; 0xffffffd1
    12b8:	02004a01 	andeq	r4, r0, #4096	; 0x1000
    12bc:	004a0104 	subeq	r0, sl, r4, lsl #2
    12c0:	06010402 	streq	r0, [r1], -r2, lsl #8
    12c4:	0340054a 	movteq	r0, #1354	; 0x54a
    12c8:	06d600e1 	ldrbeq	r0, [r6], r1, ror #1
    12cc:	4e090501 	cfsh32mi	mvfx0, mvfx9, #1
    12d0:	3008052e 	andcc	r0, r8, lr, lsr #10
    12d4:	05291e05 	streq	r1, [r9, #-3589]!	; 0xfffff1fb
    12d8:	0d052e12 	stceq	14, cr2, [r5, #-72]	; 0xffffffb8
    12dc:	06020533 			; <UNDEFINED> instruction: 0x06020533
    12e0:	13050545 	movwne	r0, #21829	; 0x5545
    12e4:	05140205 	ldreq	r0, [r4, #-517]	; 0xfffffdfb
    12e8:	02051305 	andeq	r1, r5, #335544320	; 0x14000000
    12ec:	01080513 	tsteq	r8, r3, lsl r5
    12f0:	03064005 	movweq	r4, #24581	; 0x6005
    12f4:	052e017a 	streq	r0, [lr, #-378]!	; 0xfffffe86
    12f8:	0566340d 	strbeq	r3, [r6, #-1037]!	; 0xfffffbf3
    12fc:	4a200311 	bmi	801f48 <__bss_end__+0x7f7120>
    1300:	0604054a 	streq	r0, [r4], -sl, asr #10
    1304:	05016203 	streq	r6, [r1, #-515]	; 0xfffffdfd
    1308:	05010609 	streq	r0, [r1, #-1545]	; 0xfffff9f7
    130c:	08052e0f 	stmdaeq	r5, {r0, r1, r2, r3, r9, sl, fp, sp}
    1310:	0d052c06 	stceq	12, cr2, [r5, #-24]	; 0xffffffe8
    1314:	03052e06 	movweq	r2, #24070	; 0x5e06
    1318:	05056706 	streq	r6, [r5, #-1798]	; 0xfffff8fa
    131c:	08050106 	stmdaeq	r5, {r1, r2, r8}
    1320:	0e054d06 	cdpeq	13, 0, cr4, cr5, cr6, {0}
    1324:	0a050106 	beq	141744 <__bss_end__+0x13691c>
    1328:	2f09052e 	svccs	0x0009052e
    132c:	2f060405 	svccs	0x00060405
    1330:	01060705 	tsteq	r6, r5, lsl #14
    1334:	052c0a05 	streq	r0, [ip, #-2565]!	; 0xfffff5fb
    1338:	05320604 	ldreq	r0, [r2, #-1540]!	; 0xfffff9fc
    133c:	9803062d 	stmdals	r3, {r0, r2, r3, r5, r9, sl}
    1340:	0905017f 	stmdbeq	r5, {r0, r1, r2, r3, r4, r5, r6, r8}
    1344:	2e00ed03 	cdpcs	13, 0, cr14, cr0, cr3, {0}
    1348:	052c0d05 	streq	r0, [ip, #-3333]!	; 0xfffff2fb
    134c:	04052b07 	streq	r2, [r5], #-2823	; 0xfffff4f9
    1350:	14133006 	ldrne	r3, [r3], #-6
    1354:	05010905 	streq	r0, [r1, #-2309]	; 0xfffff6fb
    1358:	7f93030c 	svcvc	0x0093030c
    135c:	011d0501 	tsteq	sp, r1, lsl #10
    1360:	09050106 	stmdbeq	r5, {r1, r2, r8}
    1364:	0100ed03 	tsteq	r0, r3, lsl #26
    1368:	2f060505 	svccs	0x00060505
    136c:	01061205 	tsteq	r6, r5, lsl #4
    1370:	0b052d2e 	bleq	14c830 <__bss_end__+0x141a08>
    1374:	0605052f 	streq	r0, [r5], -pc, lsr #10
    1378:	1009052f 	andne	r0, r9, pc, lsr #10
    137c:	93030c05 	movwls	r0, #15365	; 0x3c05
    1380:	1d05017f 	stfnes	f0, [r5, #-508]	; 0xfffffe04
    1384:	062d0501 	strteq	r0, [sp], -r1, lsl #10
    1388:	03090501 	movweq	r0, #38145	; 0x9501
    138c:	052e00ed 	streq	r0, [lr, #-237]!	; 0xffffff13
    1390:	014e0604 	cmpeq	lr, r4, lsl #12
    1394:	02040200 	andeq	r0, r4, #0, 4
    1398:	0402004a 	streq	r0, [r2], #-74	; 0xffffffb6
    139c:	02000102 	andeq	r0, r0, #-2147483648	; 0x80000000
    13a0:	00150204 	andseq	r0, r5, r4, lsl #4
    13a4:	06020402 	streq	r0, [r2], -r2, lsl #8
    13a8:	00123602 	andseq	r3, r2, r2, lsl #12
    13ac:	2e020402 	cdpcs	4, 0, cr0, cr2, cr2, {0}
    13b0:	03060205 	movweq	r0, #25093	; 0x6205
    13b4:	050100d1 	streq	r0, [r1, #-209]	; 0xffffff2f
    13b8:	2e010607 	cfmadd32cs	mvax0, mvfx0, mvfx1, mvfx7
    13bc:	2f060205 	svccs	0x00060205
    13c0:	01060b05 	tsteq	r6, r5, lsl #22
    13c4:	052f0105 	streq	r0, [pc, #-261]!	; 12c7 <__code_start__-0x6d39>
    13c8:	65030605 	strvs	r0, [r3, #-1541]	; 0xfffff9fb
    13cc:	0609054a 	streq	r0, [r9], -sl, asr #10
    13d0:	05056601 	streq	r6, [r5, #-1537]	; 0xfffff9ff
    13d4:	04059f06 	streq	r9, [r5], #-3846	; 0xfffff0fa
    13d8:	05011103 	streq	r1, [r1, #-259]	; 0xfffffefd
    13dc:	05010607 	streq	r0, [r1, #-1543]	; 0xfffff9f9
    13e0:	05310604 	ldreq	r0, [r1, #-1540]!	; 0xfffff9fc
    13e4:	1305010a 	movwne	r0, #20746	; 0x510a
    13e8:	01040200 	mrseq	r0, R12_usr
    13ec:	10052e06 	andne	r2, r5, r6, lsl #28
    13f0:	01040200 	mrseq	r0, R12_usr
    13f4:	0605052e 	streq	r0, [r5], -lr, lsr #10
    13f8:	060a054b 	streq	r0, [sl], -fp, asr #10
    13fc:	052d0601 	streq	r0, [sp, #-1537]!	; 0xfffff9ff
    1400:	05010604 	streq	r0, [r1, #-1540]	; 0xfffff9fc
    1404:	b6030611 			; <UNDEFINED> instruction: 0xb6030611
    1408:	0113667f 	tsteq	r3, pc, ror r6
    140c:	02040200 	andeq	r0, r4, #0, 4
    1410:	ba06ba06 	blt	1afc30 <__bss_end__+0x1a4e08>
    1414:	1a051401 	bne	146420 <__bss_end__+0x13b5f8>
    1418:	2e2e1306 	cdpcs	3, 2, cr1, cr14, cr6, {0}
    141c:	674e1105 	strbvs	r1, [lr, -r5, lsl #2]
    1420:	05681405 	strbeq	r1, [r8, #-1029]!	; 0xfffffbfb
    1424:	15058213 	strne	r8, [r5, #-531]	; 0xfffffded
    1428:	054a7803 	strbeq	r7, [sl, #-2051]	; 0xfffff7fd
    142c:	134b0611 	movtne	r0, #46609	; 0xb611
    1430:	14131413 	ldrne	r1, [r3], #-1043	; 0xfffffbed
    1434:	01061305 	tsteq	r6, r5, lsl #6
    1438:	2f060905 	svccs	0x00060905
    143c:	01060d05 	tsteq	r6, r5, lsl #26
    1440:	09052e2e 	stmdbeq	r5, {r1, r2, r3, r5, r9, sl, fp, sp}
    1444:	9d0d05bb 	cfstr32ls	mvfx0, [sp, #-748]	; 0xfffffd14
    1448:	2f060905 	svccs	0x00060905
    144c:	062f1505 	strteq	r1, [pc], -r5, lsl #10
    1450:	034a7503 	movteq	r7, #42243	; 0xa503
    1454:	054a2e0b 	strbeq	r2, [sl, #-3595]	; 0xfffff1f5
    1458:	23030605 	movwcs	r0, #13829	; 0x3605
    145c:	06090501 	streq	r0, [r9], -r1, lsl #10
    1460:	05052e01 	streq	r2, [r5, #-3585]	; 0xfffff1ff
    1464:	6e03d706 	cdpvs	7, 0, cr13, cr3, cr6, {0}
    1468:	010e032e 	tsteq	lr, lr, lsr #6
    146c:	01060905 	tsteq	r6, r5, lsl #18
    1470:	03060505 	movweq	r0, #25861	; 0x6505
    1474:	01054a10 	tsteq	r5, r0, lsl sl
    1478:	017eed03 	cmneq	lr, r3, lsl #26
    147c:	15140205 	ldrne	r0, [r4, #-517]	; 0xfffffdfb
    1480:	04051413 	streq	r1, [r5], #-1043	; 0xfffffbed
    1484:	05011a03 	streq	r1, [r1, #-2563]	; 0xfffff5fd
    1488:	05010609 	streq	r0, [r1, #-1545]	; 0xfffff9f7
    148c:	2e460302 	cdpcs	3, 4, cr0, cr6, cr2, {0}
    1490:	3a030905 	bcc	c38ac <__bss_end__+0xb8a84>
    1494:	0604052e 	streq	r0, [r4], -lr, lsr #10
    1498:	010d032f 	tsteq	sp, pc, lsr #6
    149c:	15020501 	strne	r0, [r2, #-1281]	; 0xfffffaff
    14a0:	b2030e05 	andlt	r0, r3, #80	; 0x50
    14a4:	0205017f 	andeq	r0, r5, #-1073741793	; 0xc000001f
    14a8:	08051413 	stmdaeq	r5, {r0, r1, r4, sl, ip}
    14ac:	06020501 	streq	r0, [r2], -r1, lsl #10
    14b0:	9f080501 	svcls	0x00080501
    14b4:	4a060305 	bmi	1820d0 <__bss_end__+0x1772a8>
    14b8:	08050106 	stmdaeq	r5, {r1, r2, r8}
    14bc:	0615052e 	ldreq	r0, [r5], -lr, lsr #10
    14c0:	0108052d 	tsteq	r8, sp, lsr #10
    14c4:	062f0305 	strteq	r0, [pc], -r5, lsl #6
    14c8:	2e080501 	cfsh32cs	mvfx0, mvfx8, #1
    14cc:	2d061505 	cfstr32cs	mvfx1, [r6, #-20]	; 0xffffffec
    14d0:	05010805 	streq	r0, [r1, #-2053]	; 0xfffff7fb
    14d4:	01062f03 	tsteq	r6, r3, lsl #30
    14d8:	052e0805 	streq	r0, [lr, #-2053]!	; 0xfffff7fb
    14dc:	052d0615 	streq	r0, [sp, #-1557]!	; 0xfffff9eb
    14e0:	03050108 	movweq	r0, #20744	; 0x5108
    14e4:	0501062f 	streq	r0, [r1, #-1583]	; 0xfffff9d1
    14e8:	15052e08 	strne	r2, [r5, #-3592]	; 0xfffff1f8
    14ec:	08052d06 	stmdaeq	r5, {r1, r2, r8, sl, fp, sp}
    14f0:	2f030501 	svccs	0x00030501
    14f4:	08050106 	stmdaeq	r5, {r1, r2, r8}
    14f8:	0615052e 	ldreq	r0, [r5], -lr, lsr #10
    14fc:	0108052d 	tsteq	r8, sp, lsr #10
    1500:	062f0305 	strteq	r0, [pc], -r5, lsl #6
    1504:	2e080501 	cfsh32cs	mvfx0, mvfx8, #1
    1508:	2d061505 	cfstr32cs	mvfx1, [r6, #-20]	; 0xffffffec
    150c:	05010805 	streq	r0, [r1, #-2053]	; 0xfffff7fb
    1510:	08051303 	stmdaeq	r5, {r0, r1, r8, r9, ip}
    1514:	15050106 	strne	r0, [r5, #-262]	; 0xfffffefa
    1518:	08052d06 	stmdaeq	r5, {r1, r2, r8, sl, fp, sp}
    151c:	05660601 	strbeq	r0, [r6, #-1537]!	; 0xfffff9ff
    1520:	05670603 	strbeq	r0, [r7, #-1539]!	; 0xfffff9fd
    1524:	05010608 	streq	r0, [r1, #-1544]	; 0xfffff9f8
    1528:	02052d18 	andeq	r2, r5, #24, 26	; 0x600
    152c:	2f08052e 	svccs	0x0008052e
    1530:	2d061505 	cfstr32cs	mvfx1, [r6, #-20]	; 0xffffffec
    1534:	05010805 	streq	r0, [r1, #-2053]	; 0xfffff7fb
    1538:	05010602 	streq	r0, [r1, #-1538]	; 0xfffff9fe
    153c:	052f0603 	streq	r0, [pc, #-1539]!	; f41 <__code_start__-0x70bf>
    1540:	05110618 	ldreq	r0, [r1, #-1560]	; 0xfffff9e8
    1544:	08052e02 	stmdaeq	r5, {r1, r9, sl, fp, sp}
    1548:	0615052f 	ldreq	r0, [r5], -pc, lsr #10
    154c:	0108052d 	tsteq	r8, sp, lsr #10
    1550:	05130305 	ldreq	r0, [r3, #-773]	; 0xfffffcfb
    1554:	05010608 	streq	r0, [r1, #-1544]	; 0xfffff9f8
    1558:	052d0615 	streq	r0, [sp, #-1557]!	; 0xfffff9eb
    155c:	05050108 	streq	r0, [r5, #-264]	; 0xfffffef8
    1560:	054a1406 	strbeq	r1, [sl, #-1030]	; 0xfffffbfa
    1564:	052e0602 	streq	r0, [lr, #-1538]!	; 0xfffff9fe
    1568:	0519060e 	ldreq	r0, [r9, #-1550]	; 0xfffff9f2
    156c:	11052f04 	tstne	r5, r4, lsl #30
    1570:	4a09052f 	bmi	242a34 <__bss_end__+0x237c0c>
    1574:	05330205 	ldreq	r0, [r3, #-517]!	; 0xfffffdfb
    1578:	2e720305 	cdpcs	3, 7, cr0, cr2, cr5, {0}
    157c:	2f060205 	svccs	0x00060205
    1580:	0e050106 	adfeqs	f0, f5, f6
    1584:	02051606 	andeq	r1, r5, #6291456	; 0x600000
    1588:	03051314 	movweq	r1, #21268	; 0x5314
    158c:	14020513 	strne	r0, [r2], #-1299	; 0xfffffaed
    1590:	010b0515 	tsteq	fp, r5, lsl r5
    1594:	01060205 	tsteq	r6, r5, lsl #4
    1598:	0305662e 	movweq	r6, #22062	; 0x562e
    159c:	0a052f06 	beq	14d1bc <__bss_end__+0x142394>
    15a0:	02050106 	andeq	r0, r5, #-2147483647	; 0x80000001
    15a4:	2f0a052d 	svccs	0x000a052d
    15a8:	2d061705 	stccs	7, cr1, [r6, #-20]	; 0xffffffec
    15ac:	05010b05 	streq	r0, [r1, #-2821]	; 0xfffff4fb
    15b0:	4a010602 	bmi	42dc0 <__bss_end__+0x37f98>
    15b4:	0605054a 	streq	r0, [r5], -sl, asr #10
    15b8:	01019503 	tsteq	r1, r3, lsl #10
    15bc:	03061105 	movweq	r1, #24837	; 0x6105
    15c0:	05017ef8 	streq	r7, [r1, #-3832]	; 0xfffff108
    15c4:	0188031b 	orreq	r0, r8, fp, lsl r3
    15c8:	0601054a 	streq	r0, [r1], -sl, asr #10
    15cc:	2e7ef303 	cdpcs	3, 7, cr15, cr14, cr3, {0}
    15d0:	15140205 	ldrne	r0, [r4, #-517]	; 0xfffffdfb
    15d4:	19051413 	stmdbne	r5, {r0, r1, r4, sl, ip}
    15d8:	05012203 	streq	r2, [r1, #-515]	; 0xfffffdfd
    15dc:	2805131a 	stmdacs	r5, {r1, r3, r4, r8, r9, ip}
    15e0:	1f050106 	svcne	0x00050106
    15e4:	2f04052e 	svccs	0x0004052e
    15e8:	054a0e05 	strbeq	r0, [sl, #-3589]	; 0xfffff1fb
    15ec:	0b052d1f 	bleq	14ca70 <__bss_end__+0x141c48>
    15f0:	04052f06 	streq	r2, [r5], #-3846	; 0xfffff0fa
    15f4:	32060106 	andcc	r0, r6, #-2147483647	; 0x80000001
    15f8:	15020501 	strne	r0, [r2, #-1281]	; 0xfffffaff
    15fc:	b2030e05 	andlt	r0, r3, #80	; 0x50
    1600:	0205017f 	andeq	r0, r5, #-1073741793	; 0xc000001f
    1604:	06060513 			; <UNDEFINED> instruction: 0x06060513
    1608:	06020501 	streq	r0, [r2], -r1, lsl #10
    160c:	01080530 	tsteq	r8, r0, lsr r5
    1610:	01060205 	tsteq	r6, r5, lsl #4
    1614:	08060305 	stmdaeq	r6, {r0, r2, r8, r9}
    1618:	06080521 	streq	r0, [r8], -r1, lsr #10
    161c:	06150501 	ldreq	r0, [r5], -r1, lsl #10
    1620:	01080549 	tsteq	r8, r9, asr #10
    1624:	05d70305 	ldrbeq	r0, [r7, #773]	; 0x305
    1628:	05010608 	streq	r0, [r1, #-1544]	; 0xfffff9f8
    162c:	02052d18 	andeq	r2, r5, #24, 26	; 0x600
    1630:	2f08052e 	svccs	0x0008052e
    1634:	2d061505 	cfstr32cs	mvfx1, [r6, #-20]	; 0xffffffec
    1638:	05010805 	streq	r0, [r1, #-2053]	; 0xfffff7fb
    163c:	05010602 	streq	r0, [r1, #-1538]	; 0xfffff9fe
    1640:	052f0603 	streq	r0, [pc, #-1539]!	; 1045 <__code_start__-0x6fbb>
    1644:	05110618 	ldreq	r0, [r1, #-1560]	; 0xfffff9e8
    1648:	08052e02 	stmdaeq	r5, {r1, r9, sl, fp, sp}
    164c:	0615052f 	ldreq	r0, [r5], -pc, lsr #10
    1650:	0108052d 	tsteq	r8, sp, lsr #10
    1654:	05130305 	ldreq	r0, [r3, #-773]	; 0xfffffcfb
    1658:	05010608 	streq	r0, [r1, #-1544]	; 0xfffff9f8
    165c:	052d0615 	streq	r0, [sp, #-1557]!	; 0xfffff9eb
    1660:	05050108 	streq	r0, [r5, #-264]	; 0xfffffef8
    1664:	02051406 	andeq	r1, r5, #100663296	; 0x6000000
    1668:	04056606 	streq	r6, [r5], #-1542	; 0xfffff9fa
    166c:	05051a06 	streq	r1, [r5, #-2566]	; 0xfffff5fa
    1670:	054a7803 	strbeq	r7, [sl, #-2051]	; 0xfffff7fd
    1674:	062f0602 	strteq	r0, [pc], -r2, lsl #12
    1678:	060e0501 	streq	r0, [lr], -r1, lsl #10
    167c:	14020516 	strne	r0, [r2], #-1302	; 0xfffffaea
    1680:	06040513 			; <UNDEFINED> instruction: 0x06040513
    1684:	06030501 	streq	r0, [r3], -r1, lsl #10
    1688:	0611052f 	ldreq	r0, [r1], -pc, lsr #10
    168c:	2e090501 	cfsh32cs	mvfx0, mvfx9, #1
    1690:	30060205 	andcc	r0, r6, r5, lsl #4
    1694:	010b0515 	tsteq	fp, r5, lsl r5
    1698:	01060205 	tsteq	r6, r5, lsl #4
    169c:	052e4a4a 	streq	r4, [lr, #-2634]!	; 0xfffff5b6
    16a0:	052f0603 	streq	r0, [pc, #-1539]!	; 10a5 <__code_start__-0x6f5b>
    16a4:	0501060a 	streq	r0, [r1, #-1546]	; 0xfffff9f6
    16a8:	0a052d02 	beq	14cab8 <__bss_end__+0x141c90>
    16ac:	0617052f 	ldreq	r0, [r7], -pc, lsr #10
    16b0:	010b052d 	tsteq	fp, sp, lsr #10
    16b4:	01060205 	tsteq	r6, r5, lsl #4
    16b8:	14062e4a 	strne	r2, [r6], #-3658	; 0xfffff1b6
    16bc:	01060905 	tsteq	r6, r5, lsl #18
    16c0:	4c060205 	sfmmi	f0, 4, [r6], {5}
    16c4:	05050106 	streq	r0, [r5, #-262]	; 0xfffffefa
    16c8:	01980306 	orrseq	r0, r8, r6, lsl #6
    16cc:	07052a01 	streq	r2, [r5, -r1, lsl #20]
    16d0:	05050106 	streq	r0, [r5, #-262]	; 0xfffffefa
    16d4:	18052f06 	stmdane	r5, {r1, r2, r8, r9, sl, fp, sp}
    16d8:	052e5303 	streq	r5, [lr, #-771]!	; 0xfffffcfd
    16dc:	0501061b 	streq	r0, [r1, #-1563]	; 0xfffff9e5
    16e0:	0905821a 	stmdbeq	r5, {r1, r3, r4, r9, pc}
    16e4:	0d054b06 	vstreq	d4, [r5, #-24]	; 0xffffffe8
    16e8:	052e0106 	streq	r0, [lr, #-262]!	; 0xfffffefa
    16ec:	0d05d709 	stceq	7, cr13, [r5, #-36]	; 0xffffffdc
    16f0:	0609059d 			; <UNDEFINED> instruction: 0x0609059d
    16f4:	3015052f 	andscc	r0, r5, pc, lsr #10
    16f8:	01061805 	tsteq	r6, r5, lsl #16
    16fc:	05661705 	strbeq	r1, [r6, #-1797]!	; 0xfffff8fb
    1700:	17052f19 	smladne	r5, r9, pc, r2	; <UNPREDICTABLE>
    1704:	06190549 	ldreq	r0, [r9], -r9, asr #10
    1708:	0615052f 	ldreq	r0, [r5], -pc, lsr #10
    170c:	052e6f03 	streq	r6, [lr, #-3843]!	; 0xfffff0fd
    1710:	13030619 	movwne	r0, #13849	; 0x3619
    1714:	0615054a 	ldreq	r0, [r5], -sl, asr #10
    1718:	4a2e6d03 	bmi	b9cb2c <__bss_end__+0xb91d04>
    171c:	a0030205 	andge	r0, r3, r5, lsl #4
    1720:	0666017f 			; <UNDEFINED> instruction: 0x0666017f
    1724:	05017203 	streq	r7, [r1, #-515]	; 0xfffffdfd
    1728:	05010605 	streq	r0, [r1, #-1541]	; 0xfffff9fb
    172c:	05053604 	streq	r3, [r5, #-1540]	; 0xfffff9fc
    1730:	052e7803 	streq	r7, [lr, #-2051]!	; 0xfffff7fd
    1734:	062f0602 	strteq	r0, [pc], -r2, lsl #12
    1738:	060e0501 	streq	r0, [lr], -r1, lsl #10
    173c:	14020516 	strne	r0, [r2], #-1302	; 0xfffffaea
    1740:	06040513 			; <UNDEFINED> instruction: 0x06040513
    1744:	02054a01 	andeq	r4, r5, #4096	; 0x1000
    1748:	01780306 	cmneq	r8, r6, lsl #6
    174c:	01060505 	tsteq	r6, r5, lsl #10
    1750:	0602054a 	streq	r0, [r2], -sl, asr #10
    1754:	0501064b 	streq	r0, [r1, #-1611]	; 0xfffff9b5
    1758:	0516060e 	ldreq	r0, [r6, #-1550]	; 0xfffff9f2
    175c:	15131402 	ldrne	r1, [r3, #-1026]	; 0xfffffbfe
    1760:	010b0515 	tsteq	fp, r5, lsl r5
    1764:	11052e06 	tstne	r5, r6, lsl #28
    1768:	019e0306 	orrseq	r0, lr, r6, lsl #6
    176c:	06220501 	strteq	r0, [r2], -r1, lsl #10
    1770:	2f050501 	svccs	0x00050501
    1774:	052d2205 	streq	r2, [sp, #-517]!	; 0xfffffdfb
    1778:	052f0605 	streq	r0, [pc, #-1541]!	; 117b <__code_start__-0x6e85>
    177c:	05054b11 	streq	r4, [r5, #-2833]	; 0xfffff4ef
    1780:	039e0183 	orrseq	r0, lr, #-1073741792	; 0xc0000020
    1784:	9e012e5c 	mcrls	14, 0, r2, cr1, cr12, {2}
    1788:	03060205 	movweq	r0, #25093	; 0x6205
    178c:	2e2e7ef3 	mcrcs	14, 1, r7, cr14, cr3, {7}
    1790:	4a2c0605 	bmi	b02fac <__bss_end__+0xaf8184>
    1794:	d8030d05 	stmdale	r3, {r0, r2, r8, sl, fp}
    1798:	04050100 	streq	r0, [r5], #-256	; 0xffffff00
    179c:	01040200 	mrseq	r0, R12_usr
    17a0:	4a110306 	bmi	4423c0 <__bss_end__+0x437598>
    17a4:	01040200 	mrseq	r0, R12_usr
    17a8:	06110501 	ldreq	r0, [r1], -r1, lsl #10
    17ac:	059e0651 	ldreq	r0, [lr, #1617]	; 0x651
    17b0:	2e170315 	mrccs	3, 0, r0, cr7, cr5, {0}
    17b4:	1105ba01 	tstne	r5, r1, lsl #20
    17b8:	012e6903 			; <UNDEFINED> instruction: 0x012e6903
    17bc:	01002802 	tsteq	r0, r2, lsl #16
    17c0:	00008701 	andeq	r8, r0, r1, lsl #14
    17c4:	64000300 	strvs	r0, [r0], #-768	; 0xfffffd00
    17c8:	02000000 	andeq	r0, r0, #0, 0
    17cc:	0d0efb01 	vstreq	d15, [lr, #-4]
    17d0:	01010100 	mrseq	r0, (UNDEF: 17)
    17d4:	00000001 	andeq	r0, r0, r1
    17d8:	01000001 	tsteq	r0, r1
    17dc:	74732f2e 	ldrbtvc	r2, [r3], #-3886	; 0xfffff0d2
    17e0:	2d666661 	stclcs	6, cr6, [r6, #-388]!	; 0xfffffe7c
    17e4:	00637273 	rsbeq	r7, r3, r3, ror r2
    17e8:	6573552f 	ldrbvs	r5, [r3, #-1327]!	; 0xfffffad1
    17ec:	6d2f7372 	stcvs	3, cr7, [pc, #-456]!	; 162c <__code_start__-0x69d4>
    17f0:	73656c69 	cmnvc	r5, #26880	; 0x6900
    17f4:	756f532f 	strbvc	r5, [pc, #-815]!	; 14cd <__code_start__-0x6b33>
    17f8:	2f656372 	svccs	0x00656372
    17fc:	34327363 	ldrtcc	r7, [r2], #-867	; 0xfffffc9d
    1800:	2f786c30 	svccs	0x00786c30
    1804:	7062696c 	rsbvc	r6, r2, ip, ror #18
    1808:	6e692f69 	cdpvs	15, 6, cr2, cr9, cr9, {3}
    180c:	64756c63 	ldrbtvs	r6, [r5], #-3171	; 0xfffff39d
    1810:	63000065 	movwvs	r0, #101	; 0x65
    1814:	6e61656c 	cdpvs	5, 6, cr6, cr1, cr12, {3}
    1818:	6265722d 	rsbvs	r7, r5, #-805306366	; 0xd0000002
    181c:	2e746f6f 	cdpcs	15, 7, cr6, cr4, cr15, {3}
    1820:	00010063 	andeq	r0, r1, r3, rrx
    1824:	69707200 	ldmdbvs	r0!, {r9, ip, sp, lr}^
    1828:	0200682e 	andeq	r6, r0, #3014656	; 0x2e0000
    182c:	05000000 	streq	r0, [r0, #-0]
    1830:	02050019 	andeq	r0, r5, #25, 0
    1834:	000095c4 	andeq	r9, r0, r4, asr #11
    1838:	13050515 	movwne	r0, #21781	; 0x5515
    183c:	2d061905 	vstrcs.16	s2, [r6, #-10]	; <UNPREDICTABLE>
    1840:	062f0505 	strteq	r0, [pc], -r5, lsl #10
    1844:	024b2f67 	subeq	r2, fp, #412	; 0x19c
    1848:	01010006 	tsteq	r1, r6
    184c:	00000112 	andeq	r0, r0, r2, lsl r1
    1850:	005e0003 	subseq	r0, lr, r3
    1854:	01020000 	mrseq	r0, (UNDEF: 2)
    1858:	000d0efb 	strdeq	r0, [sp], -fp
    185c:	01010101 	tsteq	r1, r1, lsl #2
    1860:	01000000 	mrseq	r0, (UNDEF: 0)
    1864:	2e010000 	cdpcs	0, 0, cr0, cr1, cr0, {0}
    1868:	6174732f 	cmnvs	r4, pc, lsr #6
    186c:	732d6666 			; <UNDEFINED> instruction: 0x732d6666
    1870:	2f006372 	svccs	0x00006372
    1874:	72657355 	rsbvc	r7, r5, #1409286145	; 0x54000001
    1878:	696d2f73 	stmdbvs	sp!, {r0, r1, r4, r5, r6, r8, r9, sl, fp, sp}^
    187c:	2f73656c 	svccs	0x0073656c
    1880:	72756f53 	rsbsvc	r6, r5, #332	; 0x14c
    1884:	632f6563 			; <UNDEFINED> instruction: 0x632f6563
    1888:	30343273 	eorscc	r3, r4, r3, ror r2
    188c:	6c2f786c 	stcvs	8, cr7, [pc], #-432	; 16e4 <__code_start__-0x691c>
    1890:	69706269 	ldmdbvs	r0!, {r0, r3, r5, r6, r9, sp, lr}^
    1894:	636e692f 	cmnvs	lr, #770048	; 0xbc000
    1898:	6564756c 	strbvs	r7, [r4, #-1388]!	; 0xfffffa94
    189c:	73630000 	cmnvc	r3, #0, 0
    18a0:	74726174 	ldrbtvc	r6, [r2], #-372	; 0xfffffe8c
    18a4:	0100632e 	tsteq	r0, lr, lsr #6
    18a8:	70720000 	rsbsvc	r0, r2, r0
    18ac:	00682e69 	rsbeq	r2, r8, r9, ror #28
    18b0:	00000002 	andeq	r0, r0, r2
    18b4:	05001005 	streq	r1, [r0, #-5]
    18b8:	0095f002 	addseq	pc, r5, r2
    18bc:	05051500 	streq	r1, [r5, #-1280]	; 0xfffffb00
    18c0:	13020513 	movwne	r0, #9491	; 0x2513
    18c4:	05140505 	ldreq	r0, [r4, #-1285]	; 0xfffffafb
    18c8:	050e0610 	streq	r0, [lr, #-1552]	; 0xfffff9f0
    18cc:	30063205 	andcc	r3, r6, r5, lsl #4
    18d0:	0a051413 	beq	146924 <__bss_end__+0x13bafc>
    18d4:	08090501 	stmdaeq	r9, {r0, r8, sl}
    18d8:	06100591 			; <UNDEFINED> instruction: 0x06100591
    18dc:	9a0a0501 	bls	282ce8 <__bss_end__+0x277ec0>
    18e0:	056a1005 	strbeq	r1, [sl, #-5]!
    18e4:	052d060a 	streq	r0, [sp, #-1546]!	; 0xfffff9f6
    18e8:	10052f09 	andne	r2, r5, r9, lsl #30
    18ec:	0a050106 	beq	141d0c <__bss_end__+0x136ee4>
    18f0:	09052d06 	stmdbeq	r5, {r1, r2, r8, sl, fp, sp}
    18f4:	061005bb 			; <UNDEFINED> instruction: 0x061005bb
    18f8:	060a0501 	streq	r0, [sl], -r1, lsl #10
    18fc:	4b090565 	blmi	242e98 <__bss_end__+0x238070>
    1900:	01060d05 	tsteq	r6, r5, lsl #26
    1904:	052d0a05 	streq	r0, [sp, #-2565]!	; 0xfffff5fb
    1908:	0a052f10 	beq	14d550 <__bss_end__+0x142728>
    190c:	09052d06 	stmdbeq	r5, {r1, r2, r8, sl, fp, sp}
    1910:	060d052f 	streq	r0, [sp], -pc, lsr #10
    1914:	2d0a0501 	cfstr32cs	mvfx0, [sl, #-4]
    1918:	052f1005 	streq	r1, [pc, #-5]!	; 191b <__code_start__-0x66e5>
    191c:	052d060a 	streq	r0, [sp, #-1546]!	; 0xfffff9f6
    1920:	0d052f09 	stceq	15, cr2, [r5, #-36]	; 0xffffffdc
    1924:	0a050106 	beq	141d44 <__bss_end__+0x136f1c>
    1928:	2f10052d 	svccs	0x0010052d
    192c:	2d060a05 	vstrcs	s0, [r6, #-20]	; 0xffffffec
    1930:	052f0905 	streq	r0, [pc, #-2309]!	; 1033 <__code_start__-0x6fcd>
    1934:	0501060d 	streq	r0, [r1, #-1549]	; 0xfffff9f3
    1938:	10052d0a 	andne	r2, r5, sl, lsl #26
    193c:	060a052f 	streq	r0, [sl], -pc, lsr #10
    1940:	1309052d 	movwne	r0, #38189	; 0x952d
    1944:	01061005 	tsteq	r6, r5
    1948:	2d060a05 	vstrcs	s0, [r6, #-20]	; 0xffffffec
    194c:	32150505 	andscc	r0, r5, #20971520	; 0x1400000
    1950:	144a0101 	strbne	r0, [sl], #-257	; 0xfffffeff
    1954:	052f0205 	streq	r0, [pc, #-517]!	; 1757 <__code_start__-0x68a9>
    1958:	7303060a 	movwvc	r0, #13834	; 0x360a
    195c:	0008022e 	andeq	r0, r8, lr, lsr #4
    1960:	007d0101 	rsbseq	r0, sp, r1, lsl #2
    1964:	00030000 	andeq	r0, r3, r0
    1968:	00000065 	andeq	r0, r0, r5, rrx
    196c:	0efb0102 	cdpeq	1, 15, cr0, cr11, cr2, {0}
    1970:	0101000d 	tsteq	r1, sp
    1974:	00000101 	andeq	r0, r0, r1, lsl #2
    1978:	00000100 	andeq	r0, r0, r0, lsl #2
    197c:	732f2e01 			; <UNDEFINED> instruction: 0x732f2e01
    1980:	66666174 			; <UNDEFINED> instruction: 0x66666174
    1984:	6372732d 	cmnvs	r2, #-1275068416	; 0xb4000000
    1988:	73552f00 	cmpvc	r5, #0, 30
    198c:	2f737265 	svccs	0x00737265
    1990:	656c696d 	strbvs	r6, [ip, #-2413]!	; 0xfffff693
    1994:	6f532f73 	svcvs	0x00532f73
    1998:	65637275 	strbvs	r7, [r3, #-629]!	; 0xfffffd8b
    199c:	3273632f 	rsbscc	r6, r3, #-1140850688	; 0xbc000000
    19a0:	786c3034 	stmdavc	ip!, {r2, r4, r5, ip, sp}^
    19a4:	62696c2f 	rsbvs	r6, r9, #12032	; 0x2f00
    19a8:	692f6970 	stmdbvs	pc!, {r4, r5, r6, r8, fp, sp, lr}	; <UNPREDICTABLE>
    19ac:	756c636e 	strbvc	r6, [ip, #-878]!	; 0xfffffc92
    19b0:	00006564 	andeq	r6, r0, r4, ror #10
    19b4:	74737563 	ldrbtvc	r7, [r3], #-1379	; 0xfffffa9d
    19b8:	6c2d6d6f 	stcvs	13, cr6, [sp], #-444	; 0xfffffe44
    19bc:	6564616f 	strbvs	r6, [r4, #-367]!	; 0xfffffe91
    19c0:	00632e72 	rsbeq	r2, r3, r2, ror lr
    19c4:	72000001 	andvc	r0, r0, #1, 0
    19c8:	682e6970 	stmdavs	lr!, {r4, r5, r6, r8, fp, sp, lr}
    19cc:	00000200 	andeq	r0, r0, r0, lsl #4
    19d0:	001a0500 	andseq	r0, sl, r0, lsl #10
    19d4:	96e80205 	strbtls	r0, [r8], r5, lsl #4
    19d8:	05150000 	ldreq	r0, [r5, #-0]
    19dc:	02021401 	andeq	r1, r2, #16777216	; 0x1000000
    19e0:	14010100 	strne	r0, [r1], #-256	; 0xffffff00
    19e4:	03000001 	movweq	r0, #1
    19e8:	00005e00 	andeq	r5, r0, r0, lsl #28
    19ec:	fb010200 	blx	421f6 <__bss_end__+0x373ce>
    19f0:	01000d0e 	tsteq	r0, lr, lsl #26
    19f4:	00010101 	andeq	r0, r1, r1, lsl #2
    19f8:	00010000 	andeq	r0, r1, r0
    19fc:	2f2e0100 	svccs	0x002e0100
    1a00:	66617473 			; <UNDEFINED> instruction: 0x66617473
    1a04:	72732d66 	rsbsvc	r2, r3, #6528	; 0x1980
    1a08:	552f0063 	strpl	r0, [pc, #-99]!	; 19ad <__code_start__-0x6653>
    1a0c:	73726573 	cmnvc	r2, #482344960	; 0x1cc00000
    1a10:	6c696d2f 	stclvs	13, cr6, [r9], #-188	; 0xffffff44
    1a14:	532f7365 			; <UNDEFINED> instruction: 0x532f7365
    1a18:	6372756f 	cmnvs	r2, #465567744	; 0x1bc00000
    1a1c:	73632f65 	cmnvc	r3, #404	; 0x194
    1a20:	6c303432 	cfldrsvs	mvf3, [r0], #-200	; 0xffffff38
    1a24:	696c2f78 	stmdbvs	ip!, {r3, r4, r5, r6, r8, r9, sl, fp, sp}^
    1a28:	2f697062 	svccs	0x00697062
    1a2c:	6c636e69 	stclvs	14, cr6, [r3], #-420	; 0xfffffe5c
    1a30:	00656475 	rsbeq	r6, r5, r5, ror r4
    1a34:	62657200 	rsbvs	r7, r5, #0, 4
    1a38:	2e746f6f 	cdpcs	15, 7, cr6, cr4, cr15, {3}
    1a3c:	00010063 	andeq	r0, r1, r3, rrx
    1a40:	69707200 	ldmdbvs	r0!, {r9, ip, sp, lr}^
    1a44:	0200682e 	andeq	r6, r0, #3014656	; 0x2e0000
    1a48:	05000000 	streq	r0, [r0, #-0]
    1a4c:	02050019 	andeq	r0, r5, #25, 0
    1a50:	000096ec 	andeq	r9, r0, ip, ror #13
    1a54:	05010d03 	streq	r0, [r1, #-3331]	; 0xfffff2fd
    1a58:	31131305 	tstcc	r3, r5, lsl #6
    1a5c:	01061305 	tsteq	r6, r5, lsl #6
    1a60:	052f0105 	streq	r0, [pc, #-261]!	; 1963 <__code_start__-0x669d>
    1a64:	0585061b 	streq	r0, [r5, #1563]	; 0x61b
    1a68:	05141305 	ldreq	r1, [r4, #-773]	; 0xfffffcfb
    1a6c:	16052f09 	strne	r2, [r5], -r9, lsl #30
    1a70:	05050106 	streq	r0, [r5, #-262]	; 0xfffffefa
    1a74:	0e052f06 	cdpeq	15, 0, cr2, cr5, cr6, {0}
    1a78:	05051106 	streq	r1, [r5, #-262]	; 0xfffffefa
    1a7c:	2f01052f 	svccs	0x0001052f
    1a80:	30061705 	andcc	r1, r6, r5, lsl #14
    1a84:	03130505 	tsteq	r3, #20971520	; 0x1400000
    1a88:	1313016e 	tstne	r3, #-2147483621	; 0x8000001b
    1a8c:	03061705 	movweq	r1, #26373	; 0x6705
    1a90:	0505010f 	streq	r0, [r5, #-271]	; 0xfffffef1
    1a94:	062e7103 	strteq	r7, [lr], -r3, lsl #2
    1a98:	06130531 			; <UNDEFINED> instruction: 0x06130531
    1a9c:	03070501 	movweq	r0, #29953	; 0x7501
    1aa0:	09052e0d 	stmdbeq	r5, {r0, r2, r3, r9, sl, fp, sp}
    1aa4:	06054b06 	streq	r4, [r5], -r6, lsl #22
    1aa8:	05017603 	streq	r7, [r1, #-1539]	; 0xfffff9fd
    1aac:	05141305 	ldreq	r1, [r4, #-773]	; 0xfffffcfb
    1ab0:	16052f09 	strne	r2, [r5], -r9, lsl #30
    1ab4:	05050106 	streq	r0, [r5, #-262]	; 0xfffffefa
    1ab8:	0e052f06 	cdpeq	15, 0, cr2, cr5, cr6, {0}
    1abc:	05051106 	streq	r1, [r5, #-262]	; 0xfffffefa
    1ac0:	03062e2f 	movweq	r2, #28207	; 0x6e2f
    1ac4:	2f30010a 	svccs	0x0030010a
    1ac8:	1313134d 	tstne	r3, #872415233	; 0x34000001
    1acc:	02006715 	andeq	r6, r0, #5505024	; 0x540000
    1ad0:	05670104 	strbeq	r0, [r7, #-260]!	; 0xfffffefc
    1ad4:	0402000d 	streq	r0, [r2], #-13
    1ad8:	0a050101 	beq	141ee4 <__bss_end__+0x1370bc>
    1adc:	01040200 	mrseq	r0, R12_usr
    1ae0:	00050501 	andeq	r0, r5, r1, lsl #10
    1ae4:	01010402 	tsteq	r1, r2, lsl #8
    1ae8:	02000d05 	andeq	r0, r0, #320	; 0x140
    1aec:	05010104 	streq	r0, [r1, #-260]	; 0xfffffefc
    1af0:	0402000a 	streq	r0, [r2], #-10
    1af4:	0a020101 	beq	81f00 <__bss_end__+0x770d8>
    1af8:	fa010100 	blx	41f00 <__bss_end__+0x370d8>
    1afc:	03000001 	movweq	r0, #1
    1b00:	00005d00 	andeq	r5, r0, r0, lsl #26
    1b04:	fb010200 	blx	4230e <__bss_end__+0x374e6>
    1b08:	01000d0e 	tsteq	r0, lr, lsl #26
    1b0c:	00010101 	andeq	r0, r1, r1, lsl #2
    1b10:	00010000 	andeq	r0, r1, r0
    1b14:	2f2e0100 	svccs	0x002e0100
    1b18:	66617473 			; <UNDEFINED> instruction: 0x66617473
    1b1c:	72732d66 	rsbsvc	r2, r3, #6528	; 0x1980
    1b20:	552f0063 	strpl	r0, [pc, #-99]!	; 1ac5 <__code_start__-0x653b>
    1b24:	73726573 	cmnvc	r2, #482344960	; 0x1cc00000
    1b28:	6c696d2f 	stclvs	13, cr6, [r9], #-188	; 0xffffff44
    1b2c:	532f7365 			; <UNDEFINED> instruction: 0x532f7365
    1b30:	6372756f 	cmnvs	r2, #465567744	; 0x1bc00000
    1b34:	73632f65 	cmnvc	r3, #404	; 0x194
    1b38:	6c303432 	cfldrsvs	mvf3, [r0], #-200	; 0xffffff38
    1b3c:	696c2f78 	stmdbvs	ip!, {r3, r4, r5, r6, r8, r9, sl, fp, sp}^
    1b40:	2f697062 	svccs	0x00697062
    1b44:	6c636e69 	stclvs	14, cr6, [r3], #-420	; 0xfffffe5c
    1b48:	00656475 	rsbeq	r6, r5, r5, ror r4
    1b4c:	6d697400 	cfstrdvs	mvd7, [r9, #-0]
    1b50:	632e7265 			; <UNDEFINED> instruction: 0x632e7265
    1b54:	00000100 	andeq	r0, r0, r0, lsl #2
    1b58:	2e697072 	mcrcs	0, 3, r7, cr9, cr2, {3}
    1b5c:	00020068 	andeq	r0, r2, r8, rrx
    1b60:	23050000 	movwcs	r0, #20480	; 0x5000
    1b64:	78020500 	stmdavc	r2, {r8, sl}
    1b68:	15000097 	strne	r0, [r0, #-151]	; 0xffffff69
    1b6c:	05130505 	ldreq	r0, [r3, #-1285]	; 0xfffffafb
    1b70:	0501060c 	streq	r0, [r1, #-1548]	; 0xfffff9f4
    1b74:	056a061f 	strbeq	r0, [sl, #-1567]!	; 0xfffff9e1
    1b78:	1f051505 	svcne	0x00051505
    1b7c:	05050f06 	streq	r0, [r5, #-3846]	; 0xfffff0fa
    1b80:	052f0631 	streq	r0, [pc, #-1585]!	; 1557 <__code_start__-0x6aa9>
    1b84:	0177030a 	cmneq	r7, sl, lsl #6
    1b88:	05130505 	ldreq	r0, [r3, #-1285]	; 0xfffffafb
    1b8c:	6601060c 	strvs	r0, [r1], -ip, lsl #12
    1b90:	03060505 	movweq	r0, #25861	; 0x6505
    1b94:	052f0109 	streq	r0, [pc, #-265]!	; 1a93 <__code_start__-0x656d>
    1b98:	05130601 	ldreq	r0, [r3, #-1537]	; 0xfffff9ff
    1b9c:	0568061c 	strbeq	r0, [r8, #-1564]!	; 0xfffff9e4
    1ba0:	0a051305 	beq	1467bc <__bss_end__+0x13b994>
    1ba4:	05017603 	streq	r7, [r1, #-1539]	; 0xfffff9fd
    1ba8:	1c051505 	cfstr32ne	mvfx1, [r5], {5}
    1bac:	052e1806 	streq	r1, [lr, #-2054]!	; 0xfffff7fa
    1bb0:	2e7a0305 	cdpcs	3, 7, cr0, cr10, cr5, {0}
    1bb4:	0a052f06 	beq	14d7d4 <__bss_end__+0x1429ac>
    1bb8:	05017703 	streq	r7, [r1, #-1795]	; 0xfffff8fd
    1bbc:	0c051305 	stceq	3, cr1, [r5], {5}
    1bc0:	05660106 	strbeq	r0, [r6, #-262]!	; 0xfffffefa
    1bc4:	09030605 	stmdbeq	r3, {r0, r2, r9, sl}
    1bc8:	01062f01 	tsteq	r6, r1, lsl #30
    1bcc:	76030c05 	strvc	r0, [r3], -r5, lsl #24
    1bd0:	06050501 	streq	r0, [r5], -r1, lsl #10
    1bd4:	052e0f03 	streq	r0, [lr, #-3843]!	; 0xfffff0fd
    1bd8:	0a051309 	beq	146804 <__bss_end__+0x13b9dc>
    1bdc:	05017403 	streq	r7, [r1, #-1027]	; 0xfffffbfd
    1be0:	052f1505 	streq	r1, [pc, #-1285]!	; 16e3 <__code_start__-0x691d>
    1be4:	0177030a 	cmneq	r7, sl, lsl #6
    1be8:	05130505 	ldreq	r0, [r3, #-1285]	; 0xfffffafb
    1bec:	6601060c 	strvs	r0, [r1], -ip, lsl #12
    1bf0:	03060505 	movweq	r0, #25861	; 0x6505
    1bf4:	11050109 	tstne	r5, r9, lsl #2
    1bf8:	05051a06 	streq	r1, [r5, #-2566]	; 0xfffff5fa
    1bfc:	062e7803 	strteq	r7, [lr], -r3, lsl #16
    1c00:	1909052f 	stmdbne	r9, {r0, r1, r2, r3, r5, r8, sl}
    1c04:	01060c05 	tsteq	r6, r5, lsl #24
    1c08:	87061c05 	strhi	r1, [r6, -r5, lsl #24]
    1c0c:	05130505 	ldreq	r0, [r3, #-1285]	; 0xfffffafb
    1c10:	0511061c 	ldreq	r0, [r1, #-1564]	; 0xfffff9e4
    1c14:	054a2f05 	strbeq	r2, [sl, #-3845]	; 0xfffff0fb
    1c18:	76030606 	strvc	r0, [r3], -r6, lsl #12
    1c1c:	1305052e 	movwne	r0, #21806	; 0x552e
    1c20:	76030a05 	strvc	r0, [r3], -r5, lsl #20
    1c24:	15050501 	strne	r0, [r5, #-1281]	; 0xfffffaff
    1c28:	030a052f 	movweq	r0, #42287	; 0xa52f
    1c2c:	05050177 	streq	r0, [r5, #-375]	; 0xfffffe89
    1c30:	060c0513 			; <UNDEFINED> instruction: 0x060c0513
    1c34:	05056601 	streq	r6, [r5, #-1537]	; 0xfffff9ff
    1c38:	01090306 	tsteq	r9, r6, lsl #6
    1c3c:	0501062f 	streq	r0, [r1, #-1583]	; 0xfffff9d1
    1c40:	0176030c 	cmneq	r6, ip, lsl #6
    1c44:	03060505 	movweq	r0, #25861	; 0x6505
    1c48:	09052e0f 	stmdbeq	r5, {r0, r1, r2, r3, r9, sl, fp, sp}
    1c4c:	030a0513 	movweq	r0, #42259	; 0xa513
    1c50:	05050174 	streq	r0, [r5, #-372]	; 0xfffffe8c
    1c54:	0a052f15 	beq	14d8b0 <__bss_end__+0x142a88>
    1c58:	05017703 	streq	r7, [r1, #-1795]	; 0xfffff8fd
    1c5c:	0c051305 	stceq	3, cr1, [r5], {5}
    1c60:	05660106 	strbeq	r0, [r6, #-262]!	; 0xfffffefa
    1c64:	09030605 	stmdbeq	r3, {r0, r2, r9, sl}
    1c68:	06110501 	ldreq	r0, [r1], -r1, lsl #10
    1c6c:	0305051a 	movweq	r0, #21786	; 0x551a
    1c70:	2f062e78 	svccs	0x00062e78
    1c74:	05190905 	ldreq	r0, [r9, #-2309]	; 0xfffff6fb
    1c78:	0501060c 	streq	r0, [r1, #-1548]	; 0xfffff9f4
    1c7c:	058a061e 	streq	r0, [sl, #1566]	; 0x61e
    1c80:	06051305 	streq	r1, [r5], -r5, lsl #6
    1c84:	1305050e 	movwne	r0, #21774	; 0x550e
    1c88:	14061e05 	strne	r1, [r6], #-3589	; 0xfffff1fb
    1c8c:	662c0505 	strtvs	r0, [ip], -r5, lsl #10
    1c90:	03060605 	movweq	r0, #26117	; 0x6605
    1c94:	05052e76 	streq	r2, [r5, #-3702]	; 0xfffff18a
    1c98:	030a0513 	movweq	r0, #42259	; 0xa513
    1c9c:	05050176 	streq	r0, [r5, #-374]	; 0xfffffe8a
    1ca0:	0a052f15 	beq	14d8fc <__bss_end__+0x142ad4>
    1ca4:	05017703 	streq	r7, [r1, #-1795]	; 0xfffff8fd
    1ca8:	0c051305 	stceq	3, cr1, [r5], {5}
    1cac:	05660106 	strbeq	r0, [r6, #-262]!	; 0xfffffefa
    1cb0:	09030605 	stmdbeq	r3, {r0, r2, r9, sl}
    1cb4:	01062f01 	tsteq	r6, r1, lsl #30
    1cb8:	76030c05 	strvc	r0, [r3], -r5, lsl #24
    1cbc:	06050501 	streq	r0, [r5], -r1, lsl #10
    1cc0:	052e0f03 	streq	r0, [lr, #-3843]!	; 0xfffff0fd
    1cc4:	0a051309 	beq	1468f0 <__bss_end__+0x13bac8>
    1cc8:	05017403 	streq	r7, [r1, #-1027]	; 0xfffffbfd
    1ccc:	052f1505 	streq	r1, [pc, #-1285]!	; 17cf <__code_start__-0x6831>
    1cd0:	0177030a 	cmneq	r7, sl, lsl #6
    1cd4:	05130505 	ldreq	r0, [r3, #-1285]	; 0xfffffafb
    1cd8:	6601060c 	strvs	r0, [r1], -ip, lsl #12
    1cdc:	03060505 	movweq	r0, #25861	; 0x6505
    1ce0:	11050109 	tstne	r5, r9, lsl #2
    1ce4:	05051a06 	streq	r1, [r5, #-2566]	; 0xfffff5fa
    1ce8:	062e7803 	strteq	r7, [lr], -r3, lsl #16
    1cec:	1909052f 	stmdbne	r9, {r0, r1, r2, r3, r5, r8, sl}
    1cf0:	01060c05 	tsteq	r6, r5, lsl #24
    1cf4:	01000802 	tsteq	r0, r2, lsl #16
    1cf8:	00020401 	andeq	r0, r2, r1, lsl #8
    1cfc:	c8000300 	stmdagt	r0, {r8, r9}
    1d00:	02000000 	andeq	r0, r0, #0, 0
    1d04:	0d0efb01 	vstreq	d15, [lr, #-4]
    1d08:	01010100 	mrseq	r0, (UNDEF: 17)
    1d0c:	00000001 	andeq	r0, r0, r1
    1d10:	01000001 	tsteq	r0, r1
    1d14:	6d6f682f 	stclvs	8, cr6, [pc, #-188]!	; 1c60 <__code_start__-0x63a0>
    1d18:	6e652f65 	cdpvs	15, 6, cr2, cr5, cr5, {3}
    1d1c:	72656c67 	rsbvc	r6, r5, #26368	; 0x6700
    1d20:	616c632f 	cmnvs	ip, pc, lsr #6
    1d24:	632f7373 			; <UNDEFINED> instruction: 0x632f7373
    1d28:	30343173 	eorscc	r3, r4, r3, ror r1
    1d2c:	32322d65 	eorscc	r2, r2, #6464	; 0x1940
    1d30:	2f6e6977 	svccs	0x006e6977
    1d34:	62696c2f 	rsbvs	r6, r9, #12032	; 0x2f00
    1d38:	692f6970 	stmdbvs	pc!, {r4, r5, r6, r8, fp, sp, lr}	; <UNPREDICTABLE>
    1d3c:	756c636e 	strbvc	r6, [ip, #-878]!	; 0xfffffc92
    1d40:	2f006564 	svccs	0x00006564
    1d44:	2f727375 	svccs	0x00727375
    1d48:	72616873 	rsbvc	r6, r1, #7536640	; 0x730000
    1d4c:	63672f65 	cmnvs	r7, #404	; 0x194
    1d50:	72612d63 	rsbvc	r2, r1, #6336	; 0x18c0
    1d54:	6f6e2d6d 	svcvs	0x006e2d6d
    1d58:	652d656e 	strvs	r6, [sp, #-1390]!	; 0xfffffa92
    1d5c:	2d696261 	sfmcs	f6, 2, [r9, #-388]!	; 0xfffffe7c
    1d60:	332e3031 			; <UNDEFINED> instruction: 0x332e3031
    1d64:	3230322d 	eorscc	r3, r0, #-805306366	; 0xd0000002
    1d68:	30312e31 	eorscc	r2, r1, r1, lsr lr
    1d6c:	62696c2f 	rsbvs	r6, r9, #12032	; 0x2f00
    1d70:	6363672f 	cmnvs	r3, #12320768	; 0xbc0000
    1d74:	6d72612f 	ldfvse	f6, [r2, #-188]!	; 0xffffff44
    1d78:	6e6f6e2d 	cdpvs	14, 6, cr6, cr15, cr13, {1}
    1d7c:	61652d65 	cmnvs	r5, r5, ror #26
    1d80:	312f6962 			; <UNDEFINED> instruction: 0x312f6962
    1d84:	2e332e30 	mrccs	14, 1, r2, cr3, cr0, {1}
    1d88:	6e692f31 	mcrvs	15, 3, r2, cr9, cr1, {1}
    1d8c:	64756c63 	ldrbtvs	r6, [r5], #-3171	; 0xfffff39d
    1d90:	75000065 	strvc	r0, [r0, #-101]	; 0xffffff9b
    1d94:	2e747261 	cdpcs	2, 7, cr7, cr4, cr1, {3}
    1d98:	00000063 	andeq	r0, r0, r3, rrx
    1d9c:	72617500 	rsbvc	r7, r1, #0, 10
    1da0:	00682e74 	rsbeq	r2, r8, r4, ror lr
    1da4:	72000001 	andvc	r0, r0, #1, 0
    1da8:	682e6970 	stmdavs	lr!, {r4, r5, r6, r8, fp, sp, lr}
    1dac:	00000100 	andeq	r0, r0, r0, lsl #2
    1db0:	6f697067 	svcvs	0x00697067
    1db4:	0100682e 	tsteq	r0, lr, lsr #16
    1db8:	74730000 	ldrbtvc	r0, [r3], #-0
    1dbc:	746e6964 	strbtvc	r6, [lr], #-2404	; 0xfffff69c
    1dc0:	6363672d 	cmnvs	r3, #11796480	; 0xb40000
    1dc4:	0200682e 	andeq	r6, r0, #3014656	; 0x2e0000
    1dc8:	05000000 	streq	r0, [r0, #-0]
    1dcc:	02050039 	andeq	r0, r5, #57, 0	; 0x39
    1dd0:	00009894 	muleq	r0, r4, r8
    1dd4:	06013003 	streq	r3, [r1], -r3
    1dd8:	06050501 	streq	r0, [r5], -r1, lsl #10
    1ddc:	06110567 	ldreq	r0, [r1], -r7, ror #10
    1de0:	2e050501 	cfsh32cs	mvfx0, mvfx5, #1
    1de4:	05670105 	strbeq	r0, [r7, #-261]!	; 0xfffffefb
    1de8:	06290638 			; <UNDEFINED> instruction: 0x06290638
    1dec:	06050501 	streq	r0, [r5], -r1, lsl #10
    1df0:	06110567 	ldreq	r0, [r1], -r7, ror #10
    1df4:	2e050501 	cfsh32cs	mvfx0, mvfx5, #1
    1df8:	05670105 	strbeq	r0, [r7, #-261]!	; 0xfffffefb
    1dfc:	15030616 	strne	r0, [r3, #-1558]	; 0xfffff9ea
    1e00:	3505052e 	strcc	r0, [r5, #-1326]	; 0xfffffad2
    1e04:	68356867 	ldmdavs	r5!, {r0, r1, r2, r5, r6, fp, sp, lr}
    1e08:	852e0c03 	strhi	r0, [lr, #-3075]!	; 0xfffff3fd
    1e0c:	0369696b 	cmneq	r9, #1753088	; 0x1ac000
    1e10:	6b13660c 	blvs	4db648 <__bss_end__+0x4d0820>
    1e14:	06010567 	streq	r0, [r1], -r7, ror #10
    1e18:	0619052f 	ldreq	r0, [r9], -pc, lsr #10
    1e1c:	05052508 	streq	r2, [r5, #-1288]	; 0xfffffaf8
    1e20:	060d0534 			; <UNDEFINED> instruction: 0x060d0534
    1e24:	4c010501 	cfstr32mi	mvfx0, [r1], {1}
    1e28:	67061905 	strvs	r1, [r6, -r5, lsl #18]
    1e2c:	05360505 	ldreq	r0, [r6, #-1285]!	; 0xfffffafb
    1e30:	0501060d 	streq	r0, [r1, #-1549]	; 0xfffff9f3
    1e34:	01054a28 	tsteq	r5, r8, lsr #20
    1e38:	06150530 			; <UNDEFINED> instruction: 0x06150530
    1e3c:	2f050587 	svccs	0x00050587
    1e40:	0009052f 	andeq	r0, r9, pc, lsr #10
    1e44:	13010402 	movwne	r0, #5122	; 0x1402
    1e48:	02000a05 	andeq	r0, r0, #20480	; 0x5000
    1e4c:	05110104 	ldreq	r0, [r1, #-260]	; 0xfffffefc
    1e50:	0402000c 	streq	r0, [r2], #-12
    1e54:	05010601 	streq	r0, [r1, #-1537]	; 0xfffff9ff
    1e58:	0402000a 	streq	r0, [r2], #-10
    1e5c:	05052e01 	streq	r2, [r5, #-3585]	; 0xfffff1ff
    1e60:	0e054c06 	cdpeq	12, 0, cr4, cr5, cr6, {0}
    1e64:	09050106 	stmdbeq	r5, {r1, r2, r8}
    1e68:	0605054a 	streq	r0, [r5], -sl, asr #10
    1e6c:	01052f2f 	tsteq	r5, pc, lsr #30
    1e70:	1c051306 	stcne	3, cr1, [r5], {6}
    1e74:	01066706 	tsteq	r6, r6, lsl #14
    1e78:	4b060505 	blmi	183294 <__bss_end__+0x17846c>
    1e7c:	0009052f 	andeq	r0, r9, pc, lsr #10
    1e80:	13010402 	movwne	r0, #5122	; 0x1402
    1e84:	02000a05 	andeq	r0, r0, #20480	; 0x5000
    1e88:	05110104 	ldreq	r0, [r1, #-260]	; 0xfffffefc
    1e8c:	0402000c 	streq	r0, [r2], #-12
    1e90:	05010601 	streq	r0, [r1, #-1537]	; 0xfffff9ff
    1e94:	0402000a 	streq	r0, [r2], #-10
    1e98:	05052e01 	streq	r2, [r5, #-3585]	; 0xfffff1ff
    1e9c:	05674c06 	strbeq	r4, [r7, #-3078]!	; 0xfffff3fa
    1ea0:	052f0601 	streq	r0, [pc, #-1537]!	; 18a7 <__code_start__-0x6759>
    1ea4:	054c0619 	strbeq	r0, [ip, #-1561]	; 0xfffff9e7
    1ea8:	2a052e1b 	bcs	14d71c <__bss_end__+0x1428f4>
    1eac:	0631052e 	ldrteq	r0, [r1], -lr, lsr #10
    1eb0:	2e420501 	cdpcs	5, 4, cr0, cr2, cr1, {0}
    1eb4:	31061c05 	tstcc	r6, r5, lsl #24
    1eb8:	032f0505 			; <UNDEFINED> instruction: 0x032f0505
    1ebc:	0e052e09 	cdpeq	14, 0, cr2, cr5, cr9, {0}
    1ec0:	21050106 	tstcs	r5, r6, lsl #2
    1ec4:	0301054a 	movweq	r0, #5450	; 0x154a
    1ec8:	1a052e0a 	bne	14d6f8 <__bss_end__+0x1428d0>
    1ecc:	09056806 	stmdbeq	r5, {r1, r2, fp, sp, lr}
    1ed0:	01040200 	mrseq	r0, R12_usr
    1ed4:	000a0530 	andeq	r0, sl, r0, lsr r5
    1ed8:	11010402 	tstne	r1, r2, lsl #8
    1edc:	02000c05 	andeq	r0, r0, #1280	; 0x500
    1ee0:	01060104 	tsteq	r6, r4, lsl #2
    1ee4:	02000a05 	andeq	r0, r0, #20480	; 0x5000
    1ee8:	052e0104 	streq	r0, [lr, #-260]!	; 0xfffffefc
    1eec:	e8030619 	stmda	r3, {r0, r3, r4, r9, sl}
    1ef0:	0505667e 	streq	r6, [r5, #-1662]	; 0xfffff982
    1ef4:	672f2f2f 	strvs	r2, [pc, -pc, lsr #30]!
    1ef8:	2f060105 	svccs	0x00060105
    1efc:	01000402 	tsteq	r0, r2, lsl #8
    1f00:	00039201 	andeq	r9, r3, r1, lsl #4
    1f04:	b7000300 	strlt	r0, [r0, -r0, lsl #6]
    1f08:	02000000 	andeq	r0, r0, #0, 0
    1f0c:	0d0efb01 	vstreq	d15, [lr, #-4]
    1f10:	01010100 	mrseq	r0, (UNDEF: 17)
    1f14:	00000001 	andeq	r0, r0, r1
    1f18:	01000001 	tsteq	r0, r1
    1f1c:	6d6f682f 	stclvs	8, cr6, [pc, #-188]!	; 1e68 <__code_start__-0x6198>
    1f20:	6e652f65 	cdpvs	15, 6, cr2, cr5, cr5, {3}
    1f24:	72656c67 	rsbvc	r6, r5, #26368	; 0x6700
    1f28:	616c632f 	cmnvs	ip, pc, lsr #6
    1f2c:	632f7373 			; <UNDEFINED> instruction: 0x632f7373
    1f30:	30343173 	eorscc	r3, r4, r3, ror r1
    1f34:	32322d65 	eorscc	r2, r2, #6464	; 0x1940
    1f38:	2f6e6977 	svccs	0x006e6977
    1f3c:	62696c2f 	rsbvs	r6, r9, #12032	; 0x2f00
    1f40:	692f6970 	stmdbvs	pc!, {r4, r5, r6, r8, fp, sp, lr}	; <UNPREDICTABLE>
    1f44:	756c636e 	strbvc	r6, [ip, #-878]!	; 0xfffffc92
    1f48:	2f006564 	svccs	0x00006564
    1f4c:	2f727375 	svccs	0x00727375
    1f50:	72616873 	rsbvc	r6, r1, #7536640	; 0x730000
    1f54:	63672f65 	cmnvs	r7, #404	; 0x194
    1f58:	72612d63 	rsbvc	r2, r1, #6336	; 0x18c0
    1f5c:	6f6e2d6d 	svcvs	0x006e2d6d
    1f60:	652d656e 	strvs	r6, [sp, #-1390]!	; 0xfffffa92
    1f64:	2d696261 	sfmcs	f6, 2, [r9, #-388]!	; 0xfffffe7c
    1f68:	332e3031 			; <UNDEFINED> instruction: 0x332e3031
    1f6c:	3230322d 	eorscc	r3, r0, #-805306366	; 0xd0000002
    1f70:	30312e31 	eorscc	r2, r1, r1, lsr lr
    1f74:	62696c2f 	rsbvs	r6, r9, #12032	; 0x2f00
    1f78:	6363672f 	cmnvs	r3, #12320768	; 0xbc0000
    1f7c:	6d72612f 	ldfvse	f6, [r2, #-188]!	; 0xffffff44
    1f80:	6e6f6e2d 	cdpvs	14, 6, cr6, cr15, cr13, {1}
    1f84:	61652d65 	cmnvs	r5, r5, ror #26
    1f88:	312f6962 			; <UNDEFINED> instruction: 0x312f6962
    1f8c:	2e332e30 	mrccs	14, 1, r2, cr3, cr0, {1}
    1f90:	6e692f31 	mcrvs	15, 3, r2, cr9, cr1, {1}
    1f94:	64756c63 	ldrbtvs	r6, [r5], #-3171	; 0xfffff39d
    1f98:	6b000065 	blvs	2134 <__code_start__-0x5ecc>
    1f9c:	6c6c616d 	stfvse	f6, [ip], #-436	; 0xfffffe4c
    1fa0:	632e636f 			; <UNDEFINED> instruction: 0x632e636f
    1fa4:	00000000 	andeq	r0, r0, r0
    1fa8:	2e697072 	mcrcs	0, 3, r7, cr9, cr2, {3}
    1fac:	00010068 	andeq	r0, r1, r8, rrx
    1fb0:	64747300 	ldrbtvs	r7, [r4], #-768	; 0xfffffd00
    1fb4:	2d746e69 	ldclcs	14, cr6, [r4, #-420]!	; 0xfffffe5c
    1fb8:	2e636367 	cdpcs	3, 6, cr6, cr3, cr7, {3}
    1fbc:	00020068 	andeq	r0, r2, r8, rrx
    1fc0:	1e050000 	cdpne	0, 0, cr0, cr5, cr0, {0}
    1fc4:	84020500 	strhi	r0, [r2], #-1280	; 0xfffffb00
    1fc8:	0300009a 	movweq	r0, #154	; 0x9a
    1fcc:	20050127 	andcs	r0, r5, r7, lsr #2
    1fd0:	062d0501 	strteq	r0, [sp], -r1, lsl #10
    1fd4:	06200501 	strteq	r0, [r0], -r1, lsl #10
    1fd8:	01220583 	smlawbeq	r2, r3, r5, r0
    1fdc:	01063505 	tsteq	r6, r5, lsl #10
    1fe0:	83061e05 	movwhi	r1, #28165	; 0x6e05
    1fe4:	05012005 	streq	r2, [r1, #-5]
    1fe8:	0501062d 	streq	r0, [r1, #-1581]	; 0xfffff9d3
    1fec:	06850642 	streq	r0, [r5], r2, asr #12
    1ff0:	06050501 	streq	r0, [r5], -r1, lsl #10
    1ff4:	0601144b 	streq	r1, [r1], -fp, asr #8
    1ff8:	0402002e 	streq	r0, [r2], #-46	; 0xffffffd2
    1ffc:	002e0602 	eoreq	r0, lr, r2, lsl #12
    2000:	01020402 	tsteq	r2, r2, lsl #8
    2004:	02040200 	andeq	r0, r4, #0, 4
    2008:	000d0515 	andeq	r0, sp, r5, lsl r5
    200c:	06020402 	streq	r0, [r2], -r2, lsl #8
    2010:	00070501 	andeq	r0, r7, r1, lsl #10
    2014:	4a020402 	bmi	83024 <__bss_end__+0x781fc>
    2018:	4b060905 	blmi	184434 <__bss_end__+0x17960c>
    201c:	05150505 	ldreq	r0, [r5, #-1285]	; 0xfffffafb
    2020:	05010617 	streq	r0, [r1, #-1559]	; 0xfffff9e9
    2024:	05054a10 	streq	r4, [r5, #-2576]	; 0xfffff5f0
    2028:	1b052f06 	blne	14dc48 <__bss_end__+0x142e20>
    202c:	0e050106 	adfeqs	f0, f5, f6
    2030:	2f01052e 	svccs	0x0001052e
    2034:	02000505 	andeq	r0, r0, #20971520	; 0x1400000
    2038:	03060104 	movweq	r0, #24836	; 0x6104
    203c:	02004a77 	andeq	r4, r0, #487424	; 0x77000
    2040:	00010104 	andeq	r0, r1, r4, lsl #2
    2044:	06010402 	streq	r0, [r1], -r2, lsl #8
    2048:	0402009e 	streq	r0, [r2], #-158	; 0xffffff62
    204c:	02002e01 	andeq	r2, r0, #1, 28
    2050:	2e060104 	adfcss	f0, f6, f4
    2054:	01320905 	teqeq	r2, r5, lsl #18
    2058:	062ed606 	strteq	sp, [lr], -r6, lsl #12
    205c:	de19052e 	cfmul64le	mvdx0, mvdx9, mvdx14
    2060:	142f0505 	strtne	r0, [pc], #-1285	; 2068 <__code_start__-0x5f98>
    2064:	01060805 	tsteq	r6, r5, lsl #16
    2068:	054a0705 	strbeq	r0, [sl, #-1797]	; 0xfffff8fb
    206c:	054b0609 	strbeq	r0, [fp, #-1545]	; 0xfffff9f7
    2070:	0c051305 	stceq	3, cr1, [r5], {5}
    2074:	05050106 	streq	r0, [r5, #-262]	; 0xfffffefa
    2078:	05136706 	ldreq	r6, [r3, #-1798]	; 0xfffff8fa
    207c:	05670601 	strbeq	r0, [r7, #-1537]!	; 0xfffff9ff
    2080:	012a0609 			; <UNDEFINED> instruction: 0x012a0609
    2084:	a528059e 	strge	r0, [r8, #-1438]!	; 0xfffffa62
    2088:	05050106 	streq	r0, [r5, #-262]	; 0xfffffefa
    208c:	06014b06 	streq	r4, [r1], -r6, lsl #22
    2090:	012e062e 			; <UNDEFINED> instruction: 0x012e062e
    2094:	03180513 	tsteq	r8, #79691776	; 0x4c00000
    2098:	05050147 	streq	r0, [r5, #-327]	; 0xfffffeb9
    209c:	01060113 	tsteq	r6, r3, lsl r1
    20a0:	01150f06 	tsteq	r5, r6, lsl #30
    20a4:	060e0513 			; <UNDEFINED> instruction: 0x060e0513
    20a8:	2e160501 	cfmul32cs	mvfx0, mvfx6, mvfx1
    20ac:	0605052e 	streq	r0, [r5], -lr, lsr #10
    20b0:	05013903 	streq	r3, [r1, #-2307]	; 0xfffff6fd
    20b4:	0501060b 	streq	r0, [r1, #-1547]	; 0xfffff9f5
    20b8:	054b0605 	strbeq	r0, [fp, #-1541]	; 0xfffff9fb
    20bc:	0501060a 	streq	r0, [r1, #-1546]	; 0xfffff9f6
    20c0:	054b0605 	strbeq	r0, [fp, #-1541]	; 0xfffff9fb
    20c4:	0501060d 	streq	r0, [r1, #-1549]	; 0xfffff9f3
    20c8:	01052e07 	tsteq	r5, r7, lsl #28
    20cc:	0005054d 	andeq	r0, r5, sp, asr #10
    20d0:	06010402 	streq	r0, [r1], -r2, lsl #8
    20d4:	004a7803 	subeq	r7, sl, r3, lsl #16
    20d8:	01010402 	tsteq	r1, r2, lsl #8
    20dc:	01040200 	mrseq	r0, R12_usr
    20e0:	0200ba06 	andeq	fp, r0, #24576	; 0x6000
    20e4:	2e060104 	adfcss	f0, f6, f4
    20e8:	01340905 	teqeq	r4, r5, lsl #18
    20ec:	06668206 	strbteq	r8, [r6], -r6, lsl #4
    20f0:	db20052e 	blle	8035b0 <__bss_end__+0x7f8788>
    20f4:	05050106 	streq	r0, [r5, #-262]	; 0xfffffefa
    20f8:	00014b06 	andeq	r4, r1, r6, lsl #22
    20fc:	4a020402 	bmi	8310c <__bss_end__+0x782e4>
    2100:	02040200 	andeq	r0, r4, #0, 4
    2104:	04020001 	streq	r0, [r2], #-1
    2108:	12051302 	andne	r1, r5, #134217728	; 0x8000000
    210c:	02040200 	andeq	r0, r4, #0, 4
    2110:	02000106 	andeq	r0, r0, #-2147483647	; 0x80000001
    2114:	002e0204 	eoreq	r0, lr, r4, lsl #4
    2118:	2e020402 	cdpcs	4, 0, cr0, cr2, cr2, {0}
    211c:	02000505 	andeq	r0, r0, #20971520	; 0x1400000
    2120:	2f060204 	svccs	0x00060204
    2124:	02040200 	andeq	r0, r4, #0, 4
    2128:	00010567 	andeq	r0, r1, r7, ror #10
    212c:	06020402 	streq	r0, [r2], -r2, lsl #8
    2130:	00050513 	andeq	r0, r5, r3, lsl r5
    2134:	06010402 	streq	r0, [r1], -r2, lsl #8
    2138:	04020062 	streq	r0, [r2], #-98	; 0xffffff9e
    213c:	02000101 	andeq	r0, r0, #1073741824	; 0x40000000
    2140:	ba060104 	blt	182558 <__bss_end__+0x177730>
    2144:	01040200 	mrseq	r0, R12_usr
    2148:	3c052e06 	stccc	14, cr2, [r5], {6}
    214c:	069e0a03 	ldreq	r0, [lr], r3, lsl #20
    2150:	06050501 	streq	r0, [r5], -r1, lsl #10
    2154:	2e06014b 	adfcssm	f0, f6, #3.0
    2158:	13012e06 	movwne	r2, #7686	; 0x1e06
    215c:	03180501 	tsteq	r8, #4194304	; 0x400000
    2160:	05017fad 	streq	r7, [r1, #-4013]	; 0xfffff053
    2164:	11051305 	tstne	r5, r5, lsl #6
    2168:	052e0106 	streq	r0, [lr, #-262]!	; 0xfffffefa
    216c:	00d20305 	sbcseq	r0, r2, r5, lsl #6
    2170:	134a0601 	movtne	r0, #42497	; 0xa601
    2174:	a3031805 	movwge	r1, #14341	; 0x3805
    2178:	0505017f 	streq	r0, [r5, #-383]	; 0xfffffe81
    217c:	06160513 			; <UNDEFINED> instruction: 0x06160513
    2180:	05054a01 	streq	r4, [r5, #-2561]	; 0xfffff5ff
    2184:	00e10306 	rsceq	r0, r1, r6, lsl #6
    2188:	06120501 	ldreq	r0, [r2], -r1, lsl #10
    218c:	06050501 	streq	r0, [r5], -r1, lsl #10
    2190:	0318054b 	tsteq	r8, #314572800	; 0x12c00000
    2194:	05017fa9 	streq	r7, [r1, #-4009]	; 0xfffff057
    2198:	05011305 	streq	r1, [r1, #-773]	; 0xfffffcfb
    219c:	05050e18 	streq	r0, [r5, #-3608]	; 0xfffff1e8
    21a0:	06110513 			; <UNDEFINED> instruction: 0x06110513
    21a4:	05052e01 	streq	r2, [r5, #-3585]	; 0xfffff1ff
    21a8:	014a0615 	cmpeq	sl, r5, lsl r6
    21ac:	060e0513 			; <UNDEFINED> instruction: 0x060e0513
    21b0:	16052e01 	strne	r2, [r5], -r1, lsl #28
    21b4:	05052e2e 	streq	r2, [r5, #-3630]	; 0xfffff1d2
    21b8:	00d60306 	sbcseq	r0, r6, r6, lsl #6
    21bc:	18050101 	stmdane	r5, {r0, r8}
    21c0:	017f9f03 	cmneq	pc, r3, lsl #30
    21c4:	05130505 	ldreq	r0, [r3, #-1285]	; 0xfffffafb
    21c8:	2e010619 	mcrcs	6, 0, r0, cr1, cr9, {0}
    21cc:	e0030505 	and	r0, r3, r5, lsl #10
    21d0:	02000100 	andeq	r0, r0, #0
    21d4:	4a060204 	bmi	1829ec <__bss_end__+0x177bc4>
    21d8:	02040200 	andeq	r0, r4, #0, 4
    21dc:	000a0514 	andeq	r0, sl, r4, lsl r5
    21e0:	06020402 	streq	r0, [r2], -r2, lsl #8
    21e4:	00050501 	andeq	r0, r5, r1, lsl #10
    21e8:	06020402 	streq	r0, [r2], -r2, lsl #8
    21ec:	000c054b 	andeq	r0, ip, fp, asr #10
    21f0:	06020402 	streq	r0, [r2], -r2, lsl #8
    21f4:	00010501 	andeq	r0, r1, r1, lsl #10
    21f8:	2f020402 	svccs	0x00020402
    21fc:	02000505 	andeq	r0, r0, #20971520	; 0x1400000
    2200:	03060104 	movweq	r0, #24836	; 0x6104
    2204:	02004a73 	andeq	r4, r0, #471040	; 0x73000
    2208:	00010104 	andeq	r0, r1, r4, lsl #2
    220c:	06010402 	streq	r0, [r1], -r2, lsl #8
    2210:	0402009e 	streq	r0, [r2], #-158	; 0xffffff62
    2214:	02002e01 	andeq	r2, r0, #1, 28
    2218:	2e060104 	adfcss	f0, f6, f4
    221c:	01040200 	mrseq	r0, R12_usr
    2220:	0402002f 	streq	r0, [r2], #-47	; 0xffffffd1
    2224:	02002e01 	andeq	r2, r0, #1, 28
    2228:	03d60104 	bicseq	r0, r6, #1
    222c:	012e7fb1 			; <UNDEFINED> instruction: 0x012e7fb1
    2230:	2e2e8206 	cdpcs	2, 2, cr8, cr14, cr6, {0}
    2234:	2e062e06 	cdpcs	14, 0, cr2, cr6, cr6, {0}
    2238:	01040200 	mrseq	r0, R12_usr
    223c:	00d70306 	sbcseq	r0, r7, r6, lsl #6
    2240:	04020001 	streq	r0, [r2], #-1
    2244:	02002e01 	andeq	r2, r0, #1, 28
    2248:	05d60104 	ldrbeq	r0, [r6, #260]	; 0x104
    224c:	057b0815 	ldrbeq	r0, [fp, #-2069]!	; 0xfffff7eb
    2250:	16050117 			; <UNDEFINED> instruction: 0x16050117
    2254:	01180531 	tsteq	r8, r1, lsr r5
    2258:	01061d05 	tsteq	r6, r5, lsl #26
    225c:	05662b05 	strbeq	r2, [r6, #-2821]!	; 0xfffff4fb
    2260:	054d0619 	strbeq	r0, [sp, #-1561]	; 0xfffff9e7
    2264:	0c051305 	stceq	3, cr1, [r5], {5}
    2268:	07050106 	streq	r0, [r5, -r6, lsl #2]
    226c:	0025054a 	eoreq	r0, r5, sl, asr #10
    2270:	4a010402 	bmi	43280 <__bss_end__+0x38458>
    2274:	02001e05 	andeq	r1, r0, #80	; 0x50
    2278:	054a0104 	strbeq	r0, [sl, #-260]	; 0xfffffefc
    227c:	054b0609 	strbeq	r0, [fp, #-1545]	; 0xfffff9f7
    2280:	0a051305 	beq	146e9c <__bss_end__+0x13c074>
    2284:	19050106 	stmdbne	r5, {r1, r2, r8}
    2288:	06090563 	streq	r0, [r9], -r3, ror #10
    228c:	9e06014c 	adflssm	f0, f6, #4.0
    2290:	0a022e06 	beq	8dab0 <__bss_end__+0x82c88>
    2294:	89010100 	stmdbhi	r1, {r8}
    2298:	03000002 	movweq	r0, #2
    229c:	0000c900 	andeq	ip, r0, r0, lsl #18
    22a0:	fb010200 	blx	42aaa <__bss_end__+0x37c82>
    22a4:	01000d0e 	tsteq	r0, lr, lsl #26
    22a8:	00010101 	andeq	r0, r1, r1, lsl #2
    22ac:	00010000 	andeq	r0, r1, r0
    22b0:	2f2e0100 	svccs	0x002e0100
    22b4:	00637273 	rsbeq	r7, r3, r3, ror r2
    22b8:	6573552f 	ldrbvs	r5, [r3, #-1327]!	; 0xfffffad1
    22bc:	6d2f7372 	stcvs	3, cr7, [pc, #-456]!	; 20fc <__code_start__-0x5f04>
    22c0:	73656c69 	cmnvc	r5, #26880	; 0x6900
    22c4:	756f532f 	strbvc	r5, [pc, #-815]!	; 1f9d <__code_start__-0x6063>
    22c8:	2f656372 	svccs	0x00656372
    22cc:	34327363 	ldrtcc	r7, [r2], #-867	; 0xfffffc9d
    22d0:	2f786c30 	svccs	0x00786c30
    22d4:	7062696c 	rsbvc	r6, r2, ip, ror #18
    22d8:	6e692f69 	cdpvs	15, 6, cr2, cr9, cr9, {3}
    22dc:	64756c63 	ldrbtvs	r6, [r5], #-3171	; 0xfffff39d
    22e0:	6f2f0065 	svcvs	0x002f0065
    22e4:	682f7470 	stmdavs	pc!, {r4, r5, r6, sl, ip, sp, lr}	; <UNPREDICTABLE>
    22e8:	62656d6f 	rsbvs	r6, r5, #7104	; 0x1bc0
    22ec:	2f776572 	svccs	0x00776572
    22f0:	6c6c6543 	cfstr64vs	mvdx6, [ip], #-268	; 0xfffffef4
    22f4:	612f7261 			; <UNDEFINED> instruction: 0x612f7261
    22f8:	6e2d6d72 	mcrvs	13, 1, r6, cr13, cr2, {3}
    22fc:	2d656e6f 	stclcs	14, cr6, [r5, #-444]!	; 0xfffffe44
    2300:	69626165 	stmdbvs	r2!, {r0, r2, r5, r6, r8, sp, lr}^
    2304:	392f392d 	stmdbcc	pc!, {r0, r2, r3, r5, r8, fp, ip, sp}	; <UNPREDICTABLE>
    2308:	3130322d 	teqcc	r0, sp, lsr #4
    230c:	2d347139 	ldfcss	f7, [r4, #-228]!	; 0xffffff1c
    2310:	30317363 	eorscc	r7, r1, r3, ror #6
    2314:	6c2f6537 	cfstr32vs	mvfx6, [pc], #-220	; 2240 <__code_start__-0x5dc0>
    2318:	672f6269 	strvs	r6, [pc, -r9, ror #4]!
    231c:	612f6363 			; <UNDEFINED> instruction: 0x612f6363
    2320:	6e2d6d72 	mcrvs	13, 1, r6, cr13, cr2, {3}
    2324:	2d656e6f 	stclcs	14, cr6, [r5, #-444]!	; 0xfffffe44
    2328:	69626165 	stmdbvs	r2!, {r0, r2, r5, r6, r8, sp, lr}^
    232c:	322e392f 	eorcc	r3, lr, #770048	; 0xbc000
    2330:	692f312e 	stmdbvs	pc!, {r1, r2, r3, r5, r8, ip, sp}	; <UNPREDICTABLE>
    2334:	756c636e 	strbvc	r6, [ip, #-878]!	; 0xfffffc92
    2338:	00006564 	andeq	r6, r0, r4, ror #10
    233c:	6f697067 	svcvs	0x00697067
    2340:	0100632e 	tsteq	r0, lr, lsr #6
    2344:	70720000 	rsbsvc	r0, r2, r0
    2348:	00682e69 	rsbeq	r2, r8, r9, ror #28
    234c:	73000002 	movwvc	r0, #2
    2350:	6e696474 	mcrvs	4, 3, r6, cr9, cr4, {3}
    2354:	63672d74 	cmnvs	r7, #116, 26	; 0x1d00
    2358:	00682e63 	rsbeq	r2, r8, r3, ror #28
    235c:	67000003 	strvs	r0, [r0, -r3]
    2360:	2e6f6970 			; <UNDEFINED> instruction: 0x2e6f6970
    2364:	00020068 	andeq	r0, r2, r8, rrx
    2368:	38050000 	stmdacc	r5, {}	; <UNPREDICTABLE>
    236c:	34020500 	strcc	r0, [r2], #-1280	; 0xfffffb00
    2370:	0300009e 	movweq	r0, #158	; 0x9e
    2374:	05050127 	streq	r0, [r5, #-295]	; 0xfffffed9
    2378:	06070513 			; <UNDEFINED> instruction: 0x06070513
    237c:	06060501 	streq	r0, [r6], -r1, lsl #10
    2380:	15050549 	strne	r0, [r5, #-1353]	; 0xfffffab7
    2384:	01060705 	tsteq	r6, r5, lsl #14
    2388:	052b3805 	streq	r3, [fp, #-2053]!	; 0xfffff7fb
    238c:	05054d07 	streq	r4, [r5, #-3335]	; 0xfffff2f9
    2390:	18053006 	stmdane	r5, {r1, r2, ip, sp}
    2394:	1c050106 	stfnes	f0, [r5], {6}
    2398:	4a0e0567 	bmi	38393c <__bss_end__+0x378b14>
    239c:	052d1805 	streq	r1, [sp, #-2053]!	; 0xfffff7fb
    23a0:	2f2e4d12 	svccs	0x002e4d12
    23a4:	052a0e05 	streq	r0, [sl, #-3589]!	; 0xfffff1fb
    23a8:	142f0605 	strtne	r0, [pc], #-1541	; 23b0 <__code_start__-0x5c50>
    23ac:	06070513 			; <UNDEFINED> instruction: 0x06070513
    23b0:	06050501 	streq	r0, [r5], -r1, lsl #10
    23b4:	2e06132f 	cdpcs	3, 0, cr1, cr6, cr15, {1}
    23b8:	1301052e 	movwne	r0, #5422	; 0x152e
    23bc:	2e2d0505 	cfsh64cs	mvdx0, mvdx13, #5
    23c0:	00062405 	andeq	r2, r6, r5, lsl #8
    23c4:	9e940205 	cdpls	2, 9, cr0, cr4, cr5, {0}
    23c8:	05150000 	ldreq	r0, [r5, #-0]
    23cc:	06051305 	streq	r1, [r5], -r5, lsl #6
    23d0:	05017103 	streq	r7, [r1, #-259]	; 0xfffffefd
    23d4:	07051305 	streq	r1, [r5, -r5, lsl #6]
    23d8:	06050106 	streq	r0, [r5], -r6, lsl #2
    23dc:	05054906 	streq	r4, [r5, #-2310]	; 0xfffff6fa
    23e0:	24051415 	strcs	r1, [r5], #-1045	; 0xfffffbeb
    23e4:	01090306 	tsteq	r9, r6, lsl #6
    23e8:	77031805 	strvc	r1, [r3, -r5, lsl #16]
    23ec:	671c052e 	ldrvs	r0, [ip, -lr, lsr #10]
    23f0:	054a0e05 	strbeq	r0, [sl, #-3589]	; 0xfffff1fb
    23f4:	12052d18 	andne	r2, r5, #24, 26	; 0x600
    23f8:	052f2e4d 	streq	r2, [pc, #-3661]!	; 15b3 <__code_start__-0x6a4d>
    23fc:	0e052f0f 	cdpeq	15, 0, cr2, cr5, cr15, {0}
    2400:	06050529 	streq	r0, [r5], -r9, lsr #10
    2404:	0513142f 	ldreq	r1, [r3, #-1071]	; 0xfffffbd1
    2408:	05010607 	streq	r0, [r1, #-1543]	; 0xfffff9f9
    240c:	132f0605 			; <UNDEFINED> instruction: 0x132f0605
    2410:	01052e06 	tsteq	r5, r6, lsl #28
    2414:	29050533 	stmdbcs	r5, {r0, r1, r4, r5, r8, sl}
    2418:	0627052e 	strteq	r0, [r7], -lr, lsr #10
    241c:	ec020500 	cfstr32	mvfx0, [r2], {-0}
    2420:	1a00009e 	bne	26a0 <__code_start__-0x5960>
    2424:	05130505 	ldreq	r0, [r3, #-1285]	; 0xfffffafb
    2428:	05110627 	ldreq	r0, [r1, #-1575]	; 0xfffff9d9
    242c:	05052f18 	streq	r2, [r5, #-3864]	; 0xfffff0e8
    2430:	054a2e2e 	strbeq	r2, [sl, #-3630]	; 0xfffff1d2
    2434:	05000628 	streq	r0, [r0, #-1576]	; 0xfffff9d8
    2438:	009f0402 	addseq	r0, pc, r2, lsl #8
    243c:	05051600 	streq	r1, [r5, #-1536]	; 0xfffffa00
    2440:	06280513 			; <UNDEFINED> instruction: 0x06280513
    2444:	2f180511 	svccs	0x00180511
    2448:	2e2e0505 	cfsh64cs	mvdx0, mvdx14, #5
    244c:	0623054a 	strteq	r0, [r3], -sl, asr #10
    2450:	1c020500 	cfstr32ne	mvfx0, [r2], {-0}
    2454:	1600009f 			; <UNDEFINED> instruction: 0x1600009f
    2458:	05130505 	ldreq	r0, [r3, #-1285]	; 0xfffffafb
    245c:	01620306 	cmneq	r2, r6, lsl #6
    2460:	05130505 	ldreq	r0, [r3, #-1285]	; 0xfffffafb
    2464:	05010607 	streq	r0, [r1, #-1543]	; 0xfffff9f9
    2468:	05490606 	strbeq	r0, [r9, #-1542]	; 0xfffff9fa
    246c:	13141505 	tstne	r4, #20971520	; 0x1400000
    2470:	03062305 	movweq	r2, #25349	; 0x6305
    2474:	22050117 	andcs	r0, r5, #-1073741819	; 0xc0000005
    2478:	052e6903 	streq	r6, [lr, #-2307]!	; 0xfffff6fd
    247c:	052e821c 	streq	r8, [lr, #-540]!	; 0xfffffde4
    2480:	05052e0e 	streq	r2, [r5, #-3598]	; 0xfffff1f2
    2484:	12053006 	andne	r3, r5, #6, 0
    2488:	2d4b0106 	stfcse	f0, [fp, #-24]	; 0xffffffe8
    248c:	2f060505 	svccs	0x00060505
    2490:	18051313 	stmdane	r5, {r0, r1, r4, r8, r9, ip}
    2494:	017a0306 	cmneq	sl, r6, lsl #6
    2498:	054a0e05 	strbeq	r0, [sl, #-3589]	; 0xfffff1fb
    249c:	052e3405 	streq	r3, [lr, #-1029]!	; 0xfffffbfb
    24a0:	2e140301 	cdpcs	3, 1, cr0, cr4, cr1, {0}
    24a4:	6c030505 	cfstr32vs	mvfx0, [r3], {5}
    24a8:	2b052e2e 	blcs	14dd68 <__bss_end__+0x142f40>
    24ac:	02050006 	andeq	r0, r5, #6, 0
    24b0:	00009f74 	andeq	r9, r0, r4, ror pc
    24b4:	05011703 	streq	r1, [r1, #-1795]	; 0xfffff8fd
    24b8:	07051305 	streq	r1, [r5, -r5, lsl #6]
    24bc:	18050106 	stmdane	r5, {r1, r2, r8}
    24c0:	052e7103 	streq	r7, [lr, #-259]!	; 0xfffffefd
    24c4:	2e0e032b 	cdpcs	3, 0, cr0, cr14, cr11, {1}
    24c8:	052f0705 	streq	r0, [pc, #-1797]!	; 1dcb <__code_start__-0x6235>
    24cc:	052f0609 	streq	r0, [pc, #-1545]!	; 1ecb <__code_start__-0x6135>
    24d0:	016f030d 	cmneq	pc, sp, lsl #6
    24d4:	06130505 	ldreq	r0, [r3], -r5, lsl #10
    24d8:	052e2e2e 	streq	r2, [lr, #-3630]!	; 0xfffff1d2
    24dc:	12030609 	andne	r0, r3, #9437184	; 0x900000
    24e0:	030d0501 	movweq	r0, #54529	; 0xd501
    24e4:	05050172 	streq	r0, [r5, #-370]	; 0xfffffe8e
    24e8:	2e2e0613 	mcrcs	6, 1, r0, cr14, cr3, {0}
    24ec:	03061d05 	movweq	r1, #27909	; 0x6d05
    24f0:	05056610 	streq	r6, [r5, #-1552]	; 0xfffff9f0
    24f4:	061d0513 			; <UNDEFINED> instruction: 0x061d0513
    24f8:	05052e11 	streq	r2, [r5, #-3601]	; 0xfffff1ef
    24fc:	05133006 	ldreq	r3, [r3, #-6]
    2500:	0510060e 	ldreq	r0, [r0, #-1550]	; 0xfffff9f2
    2504:	042e3017 	strteq	r3, [lr], #-23	; 0xffffffe9
    2508:	06300502 	ldrteq	r0, [r0], -r2, lsl #10
    250c:	2e00dd03 	cdpcs	13, 0, cr13, cr0, cr3, {0}
    2510:	0e050104 	adfeqs	f0, f5, f4
    2514:	7fa20306 	svcvc	0x00a20306
    2518:	2f230501 	svccs	0x00230501
    251c:	022f0105 	eoreq	r0, pc, #1073741825	; 0x40000001
    2520:	01010006 	tsteq	r1, r6
    2524:	0000009e 	muleq	r0, lr, r0
    2528:	005a0003 	subseq	r0, sl, r3
    252c:	01020000 	mrseq	r0, (UNDEF: 2)
    2530:	000d0efb 	strdeq	r0, [sp], -fp
    2534:	01010101 	tsteq	r1, r1, lsl #2
    2538:	01000000 	mrseq	r0, (UNDEF: 0)
    253c:	2e010000 	cdpcs	0, 0, cr0, cr1, cr0, {0}
    2540:	62696c2f 	rsbvs	r6, r9, #12032	; 0x2f00
    2544:	552f0063 	strpl	r0, [pc, #-99]!	; 24e9 <__code_start__-0x5b17>
    2548:	73726573 	cmnvc	r2, #482344960	; 0x1cc00000
    254c:	6c696d2f 	stclvs	13, cr6, [r9], #-188	; 0xffffff44
    2550:	532f7365 			; <UNDEFINED> instruction: 0x532f7365
    2554:	6372756f 	cmnvs	r2, #465567744	; 0x1bc00000
    2558:	73632f65 	cmnvc	r3, #404	; 0x194
    255c:	6c303432 	cfldrsvs	mvf3, [r0], #-200	; 0xffffff38
    2560:	696c2f78 	stmdbvs	ip!, {r3, r4, r5, r6, r8, r9, sl, fp, sp}^
    2564:	2f697062 	svccs	0x00697062
    2568:	6c636e69 	stclvs	14, cr6, [r3], #-420	; 0xfffffe5c
    256c:	00656475 	rsbeq	r6, r5, r5, ror r4
    2570:	74757000 	ldrbtvc	r7, [r5], #-0
    2574:	72616863 	rsbvc	r6, r1, #6488064	; 0x630000
    2578:	0100632e 	tsteq	r0, lr, lsr #6
    257c:	70720000 	rsbsvc	r0, r2, r0
    2580:	00682e69 	rsbeq	r2, r8, r9, ror #28
    2584:	00000002 	andeq	r0, r0, r2
    2588:	05002405 	streq	r2, [r0, #-1029]	; 0xfffffbfb
    258c:	009fcc02 	addseq	ip, pc, r2, lsl #24
    2590:	26051400 	strcs	r1, [r5], -r0, lsl #8
    2594:	06240501 	strteq	r0, [r4], -r1, lsl #10
    2598:	26052e01 	strcs	r2, [r5], -r1, lsl #28
    259c:	0634052e 	ldrteq	r0, [r4], -lr, lsr #10
    25a0:	0601052e 	streq	r0, [r1], -lr, lsr #10
    25a4:	061b0501 	ldreq	r0, [fp], -r1, lsl #10
    25a8:	1305054f 	movwne	r0, #21839	; 0x554f
    25ac:	01061105 	tsteq	r6, r5, lsl #2
    25b0:	05670105 	strbeq	r0, [r7, #-261]!	; 0xfffffefb
    25b4:	05670623 	strbeq	r0, [r7, #-1571]!	; 0xfffff9dd
    25b8:	11051305 	tstne	r5, r5, lsl #6
    25bc:	01050106 	tsteq	r5, r6, lsl #2
    25c0:	0004024b 	andeq	r0, r4, fp, asr #4
    25c4:	00e20101 	rsceq	r0, r2, r1, lsl #2
    25c8:	00030000 	andeq	r0, r3, r0
    25cc:	00000059 	andeq	r0, r0, r9, asr r0
    25d0:	0efb0102 	cdpeq	1, 15, cr0, cr11, cr2, {0}
    25d4:	0101000d 	tsteq	r1, sp
    25d8:	00000101 	andeq	r0, r0, r1, lsl #2
    25dc:	00000100 	andeq	r0, r0, r0, lsl #2
    25e0:	6c2f2e01 	stcvs	14, cr2, [pc], #-4	; 25e4 <__code_start__-0x5a1c>
    25e4:	00636269 	rsbeq	r6, r3, r9, ror #4
    25e8:	6573552f 	ldrbvs	r5, [r3, #-1327]!	; 0xfffffad1
    25ec:	6d2f7372 	stcvs	3, cr7, [pc, #-456]!	; 242c <__code_start__-0x5bd4>
    25f0:	73656c69 	cmnvc	r5, #26880	; 0x6900
    25f4:	756f532f 	strbvc	r5, [pc, #-815]!	; 22cd <__code_start__-0x5d33>
    25f8:	2f656372 	svccs	0x00656372
    25fc:	34327363 	ldrtcc	r7, [r2], #-867	; 0xfffffc9d
    2600:	2f786c30 	svccs	0x00786c30
    2604:	7062696c 	rsbvc	r6, r2, ip, ror #18
    2608:	6e692f69 	cdpvs	15, 6, cr2, cr9, cr9, {3}
    260c:	64756c63 	ldrbtvs	r6, [r5], #-3171	; 0xfffff39d
    2610:	73000065 	movwvc	r0, #101	; 0x65
    2614:	61637274 	smcvs	14116	; 0x3724
    2618:	00632e74 	rsbeq	r2, r3, r4, ror lr
    261c:	72000001 	andvc	r0, r0, #1, 0
    2620:	682e6970 	stmdavs	lr!, {r4, r5, r6, r8, fp, sp, lr}
    2624:	00000200 	andeq	r0, r0, r0, lsl #4
    2628:	002c0500 	eoreq	r0, ip, r0, lsl #10
    262c:	a0080205 	andge	r0, r8, r5, lsl #4
    2630:	05150000 	ldreq	r0, [r5, #-0]
    2634:	05131305 	ldreq	r1, [r3, #-773]	; 0xfffffcfb
    2638:	0511060b 	ldreq	r0, [r1, #-1547]	; 0xfffff9f5
    263c:	04020005 	streq	r0, [r2], #-5
    2640:	00300601 	eorseq	r0, r0, r1, lsl #12
    2644:	15010402 	strne	r0, [r1, #-1026]	; 0xfffffbfe
    2648:	02000905 	andeq	r0, r0, #81920	; 0x14000
    264c:	05130104 	ldreq	r0, [r3, #-260]	; 0xfffffefc
    2650:	0402000b 	streq	r0, [r2], #-11
    2654:	05052f01 	streq	r2, [r5, #-3841]	; 0xfffff0ff
    2658:	01040200 	mrseq	r0, R12_usr
    265c:	02000106 	andeq	r0, r0, #-2147483647	; 0x80000001
    2660:	062e0104 	strteq	r0, [lr], -r4, lsl #2
    2664:	0608054e 	streq	r0, [r8], -lr, asr #10
    2668:	00050501 	andeq	r0, r5, r1, lsl #10
    266c:	06010402 	streq	r0, [r1], -r2, lsl #8
    2670:	0009052f 	andeq	r0, r9, pc, lsr #10
    2674:	13010402 	movwne	r0, #5122	; 0x1402
    2678:	02000b05 	andeq	r0, r0, #5120	; 0x1400
    267c:	01060104 	tsteq	r6, r4, lsl #2
    2680:	02000905 	andeq	r0, r0, #81920	; 0x14000
    2684:	2f060104 	svccs	0x00060104
    2688:	02000505 	andeq	r0, r0, #20971520	; 0x1400000
    268c:	13060104 	movwne	r0, #24836	; 0x6104
    2690:	02000f05 	andeq	r0, r0, #5, 30
    2694:	052d0104 	streq	r0, [sp, #-260]!	; 0xfffffefc
    2698:	0402000d 	streq	r0, [r2], #-13
    269c:	052f0601 	streq	r0, [pc, #-1537]!	; 20a3 <__code_start__-0x5f5d>
    26a0:	04020005 	streq	r0, [r2], #-5
    26a4:	02010601 	andeq	r0, r1, #1048576	; 0x100000
    26a8:	01010004 	tsteq	r1, r4
    26ac:	000000b2 	strheq	r0, [r0], -r2
    26b0:	00590003 	subseq	r0, r9, r3
    26b4:	01020000 	mrseq	r0, (UNDEF: 2)
    26b8:	000d0efb 	strdeq	r0, [sp], -fp
    26bc:	01010101 	tsteq	r1, r1, lsl #2
    26c0:	01000000 	mrseq	r0, (UNDEF: 0)
    26c4:	2e010000 	cdpcs	0, 0, cr0, cr1, cr0, {0}
    26c8:	62696c2f 	rsbvs	r6, r9, #12032	; 0x2f00
    26cc:	552f0063 	strpl	r0, [pc, #-99]!	; 2671 <__code_start__-0x598f>
    26d0:	73726573 	cmnvc	r2, #482344960	; 0x1cc00000
    26d4:	6c696d2f 	stclvs	13, cr6, [r9], #-188	; 0xffffff44
    26d8:	532f7365 			; <UNDEFINED> instruction: 0x532f7365
    26dc:	6372756f 	cmnvs	r2, #465567744	; 0x1bc00000
    26e0:	73632f65 	cmnvc	r3, #404	; 0x194
    26e4:	6c303432 	cfldrsvs	mvf3, [r0], #-200	; 0xffffff38
    26e8:	696c2f78 	stmdbvs	ip!, {r3, r4, r5, r6, r8, r9, sl, fp, sp}^
    26ec:	2f697062 	svccs	0x00697062
    26f0:	6c636e69 	stclvs	14, cr6, [r3], #-420	; 0xfffffe5c
    26f4:	00656475 	rsbeq	r6, r5, r5, ror r4
    26f8:	72747300 	rsbsvc	r7, r4, #0, 6
    26fc:	2e706d63 	cdpcs	13, 7, cr6, cr0, cr3, {3}
    2700:	00010063 	andeq	r0, r1, r3, rrx
    2704:	69707200 	ldmdbvs	r0!, {r9, ip, sp, lr}^
    2708:	0200682e 	andeq	r6, r0, #3014656	; 0x2e0000
    270c:	05000000 	streq	r0, [r0, #-0]
    2710:	0205002a 	andeq	r0, r5, #42, 0	; 0x2a
    2714:	0000a034 	andeq	sl, r0, r4, lsr r0
    2718:	13090514 	movwne	r0, #38164	; 0x9514
    271c:	01061005 	tsteq	r6, r5
    2720:	2e060f05 	cdpcs	15, 0, cr0, cr6, cr5, {0}
    2724:	82061005 	andhi	r1, r6, #5, 0
    2728:	052e0f05 	streq	r0, [lr, #-3845]!	; 0xfffff0fb
    272c:	04020011 	streq	r0, [r2], #-17	; 0xffffffef
    2730:	054b0601 	strbeq	r0, [fp, #-1537]	; 0xfffff9ff
    2734:	0402001c 	streq	r0, [r2], #-28	; 0xffffffe4
    2738:	052d0601 	streq	r0, [sp, #-1537]!	; 0xfffff9ff
    273c:	0402000f 	streq	r0, [r2], #-15
    2740:	052e0601 	streq	r0, [lr, #-1537]!	; 0xfffff9ff
    2744:	04020013 	streq	r0, [r2], #-19	; 0xffffffed
    2748:	05010601 	streq	r0, [r1, #-1537]	; 0xfffff9ff
    274c:	054c0609 	strbeq	r0, [ip, #-1545]	; 0xfffff9f7
    2750:	4a130601 	bmi	4c3f5c <__bss_end__+0x4b9134>
    2754:	2d060905 	vstrcs.16	s0, [r6, #-10]	; <UNPREDICTABLE>
    2758:	13060105 	movwne	r0, #24837	; 0x6105
    275c:	0002022e 	andeq	r0, r2, lr, lsr #4
    2760:	009d0101 	addseq	r0, sp, r1, lsl #2
    2764:	00030000 	andeq	r0, r3, r0
    2768:	00000059 	andeq	r0, r0, r9, asr r0
    276c:	0efb0102 	cdpeq	1, 15, cr0, cr11, cr2, {0}
    2770:	0101000d 	tsteq	r1, sp
    2774:	00000101 	andeq	r0, r0, r1, lsl #2
    2778:	00000100 	andeq	r0, r0, r0, lsl #2
    277c:	6c2f2e01 	stcvs	14, cr2, [pc], #-4	; 2780 <__code_start__-0x5880>
    2780:	00636269 	rsbeq	r6, r3, r9, ror #4
    2784:	6573552f 	ldrbvs	r5, [r3, #-1327]!	; 0xfffffad1
    2788:	6d2f7372 	stcvs	3, cr7, [pc, #-456]!	; 25c8 <__code_start__-0x5a38>
    278c:	73656c69 	cmnvc	r5, #26880	; 0x6900
    2790:	756f532f 	strbvc	r5, [pc, #-815]!	; 2469 <__code_start__-0x5b97>
    2794:	2f656372 	svccs	0x00656372
    2798:	34327363 	ldrtcc	r7, [r2], #-867	; 0xfffffc9d
    279c:	2f786c30 	svccs	0x00786c30
    27a0:	7062696c 	rsbvc	r6, r2, ip, ror #18
    27a4:	6e692f69 	cdpvs	15, 6, cr2, cr9, cr9, {3}
    27a8:	64756c63 	ldrbtvs	r6, [r5], #-3171	; 0xfffff39d
    27ac:	73000065 	movwvc	r0, #101	; 0x65
    27b0:	70637274 	rsbvc	r7, r3, r4, ror r2
    27b4:	00632e79 	rsbeq	r2, r3, r9, ror lr
    27b8:	72000001 	andvc	r0, r0, #1, 0
    27bc:	682e6970 	stmdavs	lr!, {r4, r5, r6, r8, fp, sp, lr}
    27c0:	00000200 	andeq	r0, r0, r0, lsl #4
    27c4:	002a0500 	eoreq	r0, sl, r0, lsl #10
    27c8:	a0780205 	rsbsge	r0, r8, r5, lsl #4
    27cc:	05140000 	ldreq	r0, [r4, #-0]
    27d0:	05131305 	ldreq	r1, [r3, #-773]	; 0xfffffcfb
    27d4:	04020022 	streq	r0, [r2], #-34	; 0xffffffde
    27d8:	0b052e01 	bleq	14dfe4 <__bss_end__+0x1431bc>
    27dc:	01040200 	mrseq	r0, R12_usr
    27e0:	00150501 	andseq	r0, r5, r1, lsl #10
    27e4:	06010402 	streq	r0, [r1], -r2, lsl #8
    27e8:	000b0501 	andeq	r0, fp, r1, lsl #10
    27ec:	2e010402 	cdpcs	4, 0, cr0, cr1, cr2, {0}
    27f0:	02001305 	andeq	r1, r0, #335544320	; 0x14000000
    27f4:	052e0104 	streq	r0, [lr, #-260]!	; 0xfffffefc
    27f8:	0402000b 	streq	r0, [r2], #-11
    27fc:	04022e01 	streq	r2, [r2], #-3585	; 0xfffff1ff
    2800:	fd010100 	stc2	1, cr0, [r1, #-0]
    2804:	03000000 	movweq	r0, #0
    2808:	0000bf00 	andeq	fp, r0, r0, lsl #30
    280c:	fb010200 	blx	43016 <__bss_end__+0x381ee>
    2810:	01000d0e 	tsteq	r0, lr, lsl #26
    2814:	00010101 	andeq	r0, r1, r1, lsl #2
    2818:	00010000 	andeq	r0, r1, r0
    281c:	2f2e0100 	svccs	0x002e0100
    2820:	6362696c 	cmnvs	r2, #108, 18	; 0x1b0000
    2824:	73552f00 	cmpvc	r5, #0, 30
    2828:	2f737265 	svccs	0x00737265
    282c:	656c696d 	strbvs	r6, [ip, #-2413]!	; 0xfffff693
    2830:	6f532f73 	svcvs	0x00532f73
    2834:	65637275 	strbvs	r7, [r3, #-629]!	; 0xfffffd8b
    2838:	3273632f 	rsbscc	r6, r3, #-1140850688	; 0xbc000000
    283c:	786c3034 	stmdavc	ip!, {r2, r4, r5, ip, sp}^
    2840:	62696c2f 	rsbvs	r6, r9, #12032	; 0x2f00
    2844:	692f6970 	stmdbvs	pc!, {r4, r5, r6, r8, fp, sp, lr}	; <UNPREDICTABLE>
    2848:	756c636e 	strbvc	r6, [ip, #-878]!	; 0xfffffc92
    284c:	2f006564 	svccs	0x00006564
    2850:	2f74706f 	svccs	0x0074706f
    2854:	656d6f68 	strbvs	r6, [sp, #-3944]!	; 0xfffff098
    2858:	77657262 	strbvc	r7, [r5, -r2, ror #4]!
    285c:	6c65432f 	stclvs	3, cr4, [r5], #-188	; 0xffffff44
    2860:	2f72616c 	svccs	0x0072616c
    2864:	2d6d7261 	sfmcs	f7, 2, [sp, #-388]!	; 0xfffffe7c
    2868:	656e6f6e 	strbvs	r6, [lr, #-3950]!	; 0xfffff092
    286c:	6261652d 	rsbvs	r6, r1, #188743680	; 0xb400000
    2870:	2f392d69 	svccs	0x00392d69
    2874:	30322d39 	eorscc	r2, r2, r9, lsr sp
    2878:	34713931 	ldrbtcc	r3, [r1], #-2353	; 0xfffff6cf
    287c:	3173632d 	cmncc	r3, sp, lsr #6
    2880:	2f653730 	svccs	0x00653730
    2884:	2f62696c 	svccs	0x0062696c
    2888:	2f636367 	svccs	0x00636367
    288c:	2d6d7261 	sfmcs	f7, 2, [sp, #-388]!	; 0xfffffe7c
    2890:	656e6f6e 	strbvs	r6, [lr, #-3950]!	; 0xfffff092
    2894:	6261652d 	rsbvs	r6, r1, #188743680	; 0xb400000
    2898:	2e392f69 	cdpcs	15, 3, cr2, cr9, cr9, {3}
    289c:	2f312e32 	svccs	0x00312e32
    28a0:	6c636e69 	stclvs	14, cr6, [r3], #-420	; 0xfffffe5c
    28a4:	00656475 	rsbeq	r6, r5, r5, ror r4
    28a8:	72747300 	rsbsvc	r7, r4, #0, 6
    28ac:	706d636e 	rsbvc	r6, sp, lr, ror #6
    28b0:	0100632e 	tsteq	r0, lr, lsr #6
    28b4:	70720000 	rsbsvc	r0, r2, r0
    28b8:	00682e69 	rsbeq	r2, r8, r9, ror #28
    28bc:	73000002 	movwvc	r0, #2
    28c0:	65646474 	strbvs	r6, [r4, #-1140]!	; 0xfffffb8c
    28c4:	00682e66 	rsbeq	r2, r8, r6, ror #28
    28c8:	00000003 	andeq	r0, r0, r3
    28cc:	05003905 	streq	r3, [r0, #-2309]	; 0xfffff6fb
    28d0:	00a09002 	adceq	r9, r0, r2
    28d4:	05051500 	streq	r1, [r5, #-1280]	; 0xfffffb00
    28d8:	0a051313 	beq	14752c <__bss_end__+0x13c704>
    28dc:	0c052e06 	stceq	14, cr2, [r5], {6}
    28e0:	2e13052f 	cfmul64cs	mvdx0, mvdx3, mvdx15
    28e4:	052e0b05 	streq	r0, [lr, #-2821]!	; 0xfffff4fb
    28e8:	054a0609 	strbeq	r0, [sl, #-1545]	; 0xfffff9f7
    28ec:	0106110a 	tsteq	r6, sl, lsl #2
    28f0:	054e0c05 	strbeq	r0, [lr, #-3077]	; 0xfffff3fb
    28f4:	0d052f01 	stceq	15, cr2, [r5, #-4]
    28f8:	1b052b06 	blne	14d518 <__bss_end__+0x1426f0>
    28fc:	022e0106 	eoreq	r0, lr, #-2147483647	; 0x80000001
    2900:	01010002 	tsteq	r1, r2
    2904:	0000008a 	andeq	r0, r0, sl, lsl #1
    2908:	006e0003 	rsbeq	r0, lr, r3
    290c:	01020000 	mrseq	r0, (UNDEF: 2)
    2910:	000d0efb 	strdeq	r0, [sp], -fp
    2914:	01010101 	tsteq	r1, r1, lsl #2
    2918:	01000000 	mrseq	r0, (UNDEF: 0)
    291c:	2e010000 	cdpcs	0, 0, cr0, cr1, cr0, {0}
    2920:	6174732f 	cmnvs	r4, pc, lsr #6
    2924:	732d6666 			; <UNDEFINED> instruction: 0x732d6666
    2928:	2f006372 	svccs	0x00006372
    292c:	72657355 	rsbvc	r7, r5, #1409286145	; 0x54000001
    2930:	696d2f73 	stmdbvs	sp!, {r0, r1, r4, r5, r6, r8, r9, sl, fp, sp}^
    2934:	2f73656c 	svccs	0x0073656c
    2938:	72756f53 	rsbsvc	r6, r5, #332	; 0x14c
    293c:	632f6563 			; <UNDEFINED> instruction: 0x632f6563
    2940:	30343273 	eorscc	r3, r4, r3, ror r2
    2944:	6c2f786c 	stcvs	8, cr7, [pc], #-432	; 279c <__code_start__-0x5864>
    2948:	69706269 	ldmdbvs	r0!, {r0, r3, r5, r6, r9, sp, lr}^
    294c:	636e692f 	cmnvs	lr, #770048	; 0xbc000
    2950:	6564756c 	strbvs	r7, [r4, #-1388]!	; 0xfffffa94
    2954:	65640000 	strbvs	r0, [r4, #-0]!
    2958:	6c756166 	ldfvse	f6, [r5], #-408	; 0xfffffe68
    295c:	65722d74 	ldrbvs	r2, [r2, #-3444]!	; 0xfffff28c
    2960:	746f6f62 	strbtvc	r6, [pc], #-3938	; 2968 <__code_start__-0x5698>
    2964:	6c61632d 	stclvs	3, cr6, [r1], #-180	; 0xffffff4c
    2968:	74756f6c 	ldrbtvc	r6, [r5], #-3948	; 0xfffff094
    296c:	0100632e 	tsteq	r0, lr, lsr #6
    2970:	70720000 	rsbsvc	r0, r2, r0
    2974:	00682e69 	rsbeq	r2, r8, r9, ror #28
    2978:	00000002 	andeq	r0, r0, r2
    297c:	05001b05 	streq	r1, [r0, #-2821]	; 0xfffff4fb
    2980:	00a0c002 	adceq	ip, r0, r2
    2984:	1c051400 	cfstrsne	mvf1, [r5], {-0}
    2988:	06010501 	streq	r0, [r1], -r1, lsl #10
    298c:	00020201 	andeq	r0, r2, r1, lsl #4
    2990:	Address 0x0000000000002990 is out of bounds.


Disassembly of section .debug_str:

00000000 <.debug_str>:
   0:	765f6b63 	ldrbvc	r6, [pc], -r3, ror #22
   4:	6f627265 	svcvs	0x00627265
   8:	705f6573 	subsvc	r6, pc, r3, ror r5	; <UNPREDICTABLE>
   c:	72646800 	rsbvc	r6, r4, #0, 16
  10:	6e00745f 	cfmvsrvs	mvf0, r7
  14:	00747865 	rsbseq	r7, r4, r5, ror #16
  18:	6c616b63 			; <UNDEFINED> instruction: 0x6c616b63
  1c:	00636f6c 	rsbeq	r6, r3, ip, ror #30
  20:	74617473 	strbtvc	r7, [r1], #-1139	; 0xfffffb8d
  24:	65740065 	ldrbvs	r0, [r4, #-101]!	; 0xffffff9b
  28:	2d737473 	cfldrdcs	mvd7, [r3, #-460]!	; 0xfffffe34
  2c:	2f302e32 	svccs	0x00302e32
  30:	74726170 	ldrbtvc	r6, [r2], #-368	; 0xfffffe90
  34:	65742d32 	ldrbvs	r2, [r4, #-3378]!	; 0xfffff2ce
  38:	2d367473 	cfldrscs	mvf7, [r6, #-460]!	; 0xfffffe34
  3c:	6c2d6f6e 	stcvs	15, cr6, [sp], #-440	; 0xfffffe48
  40:	2e6b6165 	powcsez	f6, f3, f5
  44:	696c0063 	stmdbvs	ip!, {r0, r1, r5, r6}^
  48:	6f6e656e 	svcvs	0x006e656e
  4c:	5f6b6300 	svcpl	0x006b6300
  50:	646e6966 	strbtvs	r6, [lr], #-2406	; 0xfffff69a
  54:	61656c5f 	cmnvs	r5, pc, asr ip
  58:	6e00736b 	cdpvs	3, 0, cr7, cr0, cr11, {3}
  5c:	616d746f 	cmnvs	sp, pc, ror #8
  60:	6e006e69 	cdpvs	14, 0, cr6, cr0, cr9, {3}
  64:	65747962 	ldrbvs	r7, [r4, #-2402]!	; 0xfffff69e
  68:	6c615f73 	stclvs	15, cr5, [r1], #-460	; 0xfffffe34
  6c:	00636f6c 	rsbeq	r6, r3, ip, ror #30
  70:	656c6966 	strbvs	r6, [ip, #-2406]!	; 0xfffff69a
  74:	736e7500 	cmnvc	lr, #0, 10
  78:	656e6769 	strbvs	r6, [lr, #-1897]!	; 0xfffff897
  7c:	68632064 	stmdavs	r3!, {r2, r5, r6, sp}^
  80:	63007261 	movwvs	r7, #609	; 0x261
  84:	6e61656c 	cdpvs	5, 6, cr6, cr1, cr12, {3}
  88:	6265725f 	rsbvs	r7, r5, #-268435451	; 0xf0000005
  8c:	00746f6f 	rsbseq	r6, r4, pc, ror #30
  90:	726f6873 	rsbvc	r6, pc, #7536640	; 0x730000
  94:	6e752074 	mrcvs	0, 3, r2, cr5, cr4, {3}
  98:	6e676973 			; <UNDEFINED> instruction: 0x6e676973
  9c:	69206465 	stmdbvs	r0!, {r0, r2, r5, r6, sl, sp, lr}
  a0:	6300746e 	movwvs	r7, #1134	; 0x46e
  a4:	64685f6b 	strbtvs	r5, [r8], #-3947	; 0xfffff095
  a8:	72730072 	rsbsvc	r0, r3, #114, 0	; 0x72
  ac:	6f6c5f63 	svcvs	0x006c5f63
  b0:	6b6d5f63 	blvs	1b57e44 <__bss_end__+0x1b4d01c>
  b4:	5f6b6300 	svcpl	0x006b6300
  b8:	5f6b6c62 	svcpl	0x006b6c62
  bc:	66006469 	strvs	r6, [r0], -r9, ror #8
  c0:	00636e75 	rsbeq	r6, r3, r5, ror lr
  c4:	55465f5f 	strbpl	r5, [r6, #-3935]	; 0xfffff0a1
  c8:	4954434e 	ldmdbmi	r4, {r1, r2, r3, r6, r8, r9, lr}^
  cc:	5f5f4e4f 	svcpl	0x005f4e4f
  d0:	73657400 	cmnvc	r5, #0, 8
  d4:	62003174 	andvs	r3, r0, #29
  d8:	6b636f6c 	blvs	18dbe90 <__bss_end__+0x18d1068>
  dc:	0064695f 	rsbeq	r6, r4, pc, asr r9
  e0:	676e6f6c 	strbvs	r6, [lr, -ip, ror #30]!
  e4:	6e6f6c20 	cdpvs	12, 6, cr6, cr15, cr0, {1}
  e8:	6e752067 	cdpvs	0, 7, cr2, cr5, cr7, {3}
  ec:	6e676973 			; <UNDEFINED> instruction: 0x6e676973
  f0:	69206465 	stmdbvs	r0!, {r0, r2, r5, r6, sl, sp, lr}
  f4:	7500746e 	strvc	r7, [r0, #-1134]	; 0xfffffb92
  f8:	38746e69 	ldmdacc	r4!, {r0, r3, r5, r6, r9, sl, fp, sp, lr}^
  fc:	6100745f 	tstvs	r0, pc, asr r4
 100:	636f6c6c 	cmnvs	pc, #108, 24	; 0x6c00
 104:	636f6c5f 	cmnvs	pc, #24320	; 0x5f00
 108:	6e6f6c00 	cdpvs	12, 6, cr6, cr15, cr0, {0}
 10c:	6f6c2067 	svcvs	0x006c2067
 110:	6920676e 	stmdbvs	r0!, {r1, r2, r3, r5, r6, r8, r9, sl, sp, lr}
 114:	2f00746e 	svccs	0x0000746e
 118:	72657355 	rsbvc	r7, r5, #1409286145	; 0x54000001
 11c:	696d2f73 	stmdbvs	sp!, {r0, r1, r4, r5, r6, r8, r9, sl, fp, sp}^
 120:	2f73656c 	svccs	0x0073656c
 124:	72756f53 	rsbsvc	r6, r5, #332	; 0x14c
 128:	632f6563 			; <UNDEFINED> instruction: 0x632f6563
 12c:	30343273 	eorscc	r3, r4, r3, ror r2
 130:	6c2f786c 	stcvs	8, cr7, [pc], #-432	; ffffff88 <__bss_end__+0xffff5160>
 134:	2f736261 	svccs	0x00736261
 138:	616d2d35 	cmnvs	sp, r5, lsr sp
 13c:	636f6c6c 	cmnvs	pc, #108, 24	; 0x6c00
 140:	2f63672b 	svccs	0x0063672b
 144:	65646f63 	strbvs	r6, [r4, #-3939]!	; 0xfffff09d
 148:	554e4700 	strbpl	r4, [lr, #-1792]	; 0xfffff900
 14c:	39394320 	ldmdbcc	r9!, {r5, r8, r9, lr}
 150:	322e3920 	eorcc	r3, lr, #32, 18	; 0x80000
 154:	3220312e 	eorcc	r3, r0, #-2147483637	; 0x8000000b
 158:	31393130 	teqcc	r9, r0, lsr r1
 15c:	20353230 	eorscs	r3, r5, r0, lsr r2
 160:	6c657228 	sfmvs	f7, 2, [r5], #-160	; 0xffffff60
 164:	65736165 	ldrbvs	r6, [r3, #-357]!	; 0xfffffe9b
 168:	415b2029 	cmpmi	fp, r9, lsr #32
 16c:	612f4d52 			; <UNDEFINED> instruction: 0x612f4d52
 170:	392d6d72 	pushcc	{r1, r4, r5, r6, r8, sl, fp, sp, lr}
 174:	6172622d 	cmnvs	r2, sp, lsr #4
 178:	2068636e 	rsbcs	r6, r8, lr, ror #6
 17c:	69766572 	ldmdbvs	r6!, {r1, r4, r5, r6, r8, sl, sp, lr}^
 180:	6e6f6973 			; <UNDEFINED> instruction: 0x6e6f6973
 184:	37373220 	ldrcc	r3, [r7, -r0, lsr #4]!
 188:	5d393935 			; <UNDEFINED> instruction: 0x5d393935
 18c:	636d2d20 	cmnvs	sp, #32, 26	; 0x800
 190:	613d7570 	teqvs	sp, r0, ror r5
 194:	31316d72 	teqcc	r1, r2, ror sp
 198:	7a6a3637 	bvc	1a8da7c <__bss_end__+0x1a82c54>
 19c:	20732d66 	rsbscs	r2, r3, r6, ror #26
 1a0:	75746d2d 	ldrbvc	r6, [r4, #-3373]!	; 0xfffff2d3
 1a4:	613d656e 	teqvs	sp, lr, ror #10
 1a8:	31316d72 	teqcc	r1, r2, ror sp
 1ac:	7a6a3637 	bvc	1a8da90 <__bss_end__+0x1a82c68>
 1b0:	20732d66 	rsbscs	r2, r3, r6, ror #26
 1b4:	6c666d2d 	stclvs	13, cr6, [r6], #-180	; 0xffffff4c
 1b8:	2d74616f 	ldfcse	f6, [r4, #-444]!	; 0xfffffe44
 1bc:	3d696261 	sfmcc	f6, 2, [r9, #-388]!	; 0xfffffe7c
 1c0:	74666f73 	strbtvc	r6, [r6], #-3955	; 0xfffff08d
 1c4:	616d2d20 	cmnvs	sp, r0, lsr #26
 1c8:	2d206d72 	stccs	13, cr6, [r0, #-456]!	; 0xfffffe38
 1cc:	6372616d 	cmnvs	r2, #1073741851	; 0x4000001b
 1d0:	72613d68 	rsbvc	r3, r1, #104, 26	; 0x1a00
 1d4:	6b36766d 	blvs	d9db90 <__bss_end__+0xd92d68>
 1d8:	672d207a 			; <UNDEFINED> instruction: 0x672d207a
 1dc:	20626467 	rsbcs	r6, r2, r7, ror #8
 1e0:	2d204f2d 	stccs	15, cr4, [r0, #-180]!	; 0xffffff4c
 1e4:	3d647473 	cfstrdcc	mvd7, [r4, #-460]!	; 0xfffffe34
 1e8:	39756e67 	ldmdbcc	r5!, {r0, r1, r2, r5, r6, r9, sl, fp, sp, lr}^
 1ec:	662d2039 			; <UNDEFINED> instruction: 0x662d2039
 1f0:	65657266 	strbvs	r7, [r5, #-614]!	; 0xfffffd9a
 1f4:	6e617473 	mcrvs	4, 3, r7, cr1, cr3, {3}
 1f8:	676e6964 	strbvs	r6, [lr, -r4, ror #18]!
 1fc:	6f687300 	svcvs	0x00687300
 200:	69207472 	stmdbvs	r0!, {r1, r4, r5, r6, sl, ip, sp, lr}
 204:	7300746e 	movwvc	r7, #1134	; 0x46e
 208:	6c5f6372 	mrrcvs	3, 7, r6, pc, cr2	; <UNPREDICTABLE>
 20c:	745f636f 	ldrbvc	r6, [pc], #-879	; 214 <__code_start__-0x7dec>
 210:	6e697500 	cdpvs	5, 6, cr7, cr9, cr0, {0}
 214:	5f363174 	svcpl	0x00363174
 218:	69750074 	ldmdbvs	r5!, {r2, r4, r5, r6}^
 21c:	3233746e 	eorscc	r7, r3, #1845493760	; 0x6e000000
 220:	7200745f 	andvc	r7, r0, #1593835520	; 0x5f000000
 224:	705f6970 	subsvc	r6, pc, r0, ror r9	; <UNPREDICTABLE>
 228:	68637475 	stmdavs	r3!, {r0, r2, r4, r5, r6, sl, ip, sp, lr}^
 22c:	72007261 	andvc	r7, r0, #268435462	; 0x10000006
 230:	5f736665 	svcpl	0x00736665
 234:	72617473 	rsbvc	r7, r1, #1929379840	; 0x73000000
 238:	65720074 	ldrbvs	r0, [r2, #-116]!	; 0xffffff8c
 23c:	6d5f7366 	ldclvs	3, cr7, [pc, #-408]	; ac <__code_start__-0x7f54>
 240:	6c646469 	cfstrdvs	mvd6, [r4], #-420	; 0xfffffe5c
 244:	6b630065 	blvs	18c03e0 <__bss_end__+0x18b55b8>
 248:	7274705f 	rsbsvc	r7, r4, #95, 0	; 0x5f
 24c:	5f6e695f 	svcpl	0x006e695f
 250:	636f6c62 	cmnvs	pc, #25088	; 0x6200
 254:	5246006b 	subpl	r0, r6, #107, 0	; 0x6b
 258:	00444545 	subeq	r4, r4, r5, asr #10
 25c:	5a444552 	bpl	11117ac <__bss_end__+0x1106984>
 260:	5f454e4f 	svcpl	0x00454e4f
 264:	004c4156 	subeq	r4, ip, r6, asr r1
 268:	665f726b 	ldrbvs	r7, [pc], -fp, ror #4
 26c:	00656572 	rsbeq	r6, r5, r2, ror r5
 270:	5a444552 	bpl	11117c0 <__bss_end__+0x1106998>
 274:	5f454e4f 	svcpl	0x00454e4f
 278:	5459424e 	ldrbpl	r4, [r9], #-590	; 0xfffffdb2
 27c:	63005345 	movwvs	r5, #837	; 0x345
 280:	69665f6b 	stmdbvs	r6!, {r0, r1, r3, r5, r6, r8, r9, sl, fp, ip, lr}^
 284:	5f747372 	svcpl	0x00747372
 288:	00726468 	rsbseq	r6, r2, r8, ror #8
 28c:	72666b63 	rsbvc	r6, r6, #101376	; 0x18c00
 290:	61006565 	tstvs	r0, r5, ror #10
 294:	636f6c6c 	cmnvs	pc, #108, 24	; 0x6c00
 298:	73696c5f 	cmnvc	r9, #24320	; 0x5f00
 29c:	656d0074 	strbvs	r0, [sp, #-116]!	; 0xffffff8c
 2a0:	7465736d 	strbtvc	r7, [r5], #-877	; 0xfffffc93
 2a4:	73696c00 	cmnvc	r9, #0, 24
 2a8:	65725f74 	ldrbvs	r5, [r2, #-3956]!	; 0xfffff08c
 2ac:	65766f6d 	ldrbvs	r6, [r6, #-3949]!	; 0xfffff093
 2b0:	5f6b6300 	svcpl	0x006b6300
 2b4:	5f727470 	svcpl	0x00727470
 2b8:	615f7369 	cmpvs	pc, r9, ror #6
 2bc:	636f6c6c 	cmnvs	pc, #108, 24	; 0x6c00
 2c0:	63006465 	movwvs	r6, #1125	; 0x465
 2c4:	656e5f6b 	strbvs	r5, [lr, #-3947]!	; 0xfffff095
 2c8:	685f7478 	ldmdavs	pc, {r3, r4, r5, r6, sl, ip, sp, lr}^	; <UNPREDICTABLE>
 2cc:	63007264 	movwvs	r7, #612	; 0x264
 2d0:	6c6c616b 	stfvse	f6, [ip], #-428	; 0xfffffe54
 2d4:	632e636f 			; <UNDEFINED> instruction: 0x632e636f
 2d8:	4c4c4100 	stfmie	f4, [ip], {-0}
 2dc:	4445434f 	strbmi	r4, [r5], #-847	; 0xfffffcb1
 2e0:	5f6b6300 	svcpl	0x006b6300
 2e4:	5f726468 	svcpl	0x00726468
 2e8:	72617473 	rsbvc	r7, r1, #1929379840	; 0x73000000
 2ec:	6b630074 	blvs	18c04c4 <__bss_end__+0x18b569c>
 2f0:	7264685f 	rsbvc	r6, r4, #6225920	; 0x5f0000
 2f4:	646e655f 	strbtvs	r6, [lr], #-1375	; 0xfffffaa1
 2f8:	65727000 	ldrbvs	r7, [r2, #-0]!
 2fc:	6b630076 	blvs	18c04dc <__bss_end__+0x18b56b4>
 300:	79626e5f 	stmdbvc	r2!, {r0, r1, r2, r3, r4, r6, r9, sl, fp, sp, lr}^
 304:	00736574 	rsbseq	r6, r3, r4, ror r5
 308:	6d5f726b 	lfmvs	f7, 2, [pc, #-428]	; 164 <__code_start__-0x7e9c>
 30c:	6f6c6c61 	svcvs	0x006c6c61
 310:	65680063 	strbvs	r0, [r8, #-99]!	; 0xffffff9d
 314:	72656461 	rsbvc	r6, r5, #1627389952	; 0x61000000
 318:	65727000 	ldrbvs	r7, [r2, #-0]!
 31c:	61007076 	tstvs	r0, r6, ror r0
 320:	6e67696c 	vnmulvs.f16	s13, s14, s25	; <UNPREDICTABLE>
 324:	65726600 	ldrbvs	r6, [r2, #-1536]!	; 0xfffffa00
 328:	6e007065 	cdpvs	0, 0, cr7, cr0, cr5, {3}
 32c:	74696e75 	strbtvc	r6, [r9], #-3701	; 0xfffff18b
 330:	726b0073 	rsbvc	r0, fp, #115, 0	; 0x73
 334:	6c616d2d 	stclvs	13, cr6, [r1], #-180	; 0xffffff4c
 338:	2e636f6c 	cdpcs	15, 6, cr6, cr3, cr12, {3}
 33c:	6f640063 	svcvs	0x00640063
 340:	656c6275 	strbvs	r6, [ip, #-629]!	; 0xfffffd8b
 344:	73616200 	cmnvc	r1, #0, 4
 348:	62730065 	rsbsvs	r0, r3, #101, 0	; 0x65
 34c:	6d006b72 	vstrvs	d6, [r0, #-456]	; 0xfffffe38
 350:	6365726f 	cmnvs	r5, #-268435450	; 0xf0000006
 354:	0065726f 	rsbeq	r7, r5, pc, ror #4
 358:	657a6973 	ldrbvs	r6, [sl, #-2419]!	; 0xfffff68d
 35c:	61654800 	cmnvs	r5, r0, lsl #16
 360:	00726564 	rsbseq	r6, r2, r4, ror #10
 364:	63617473 	cmnvs	r1, #1929379840	; 0x73000000
 368:	6f745f6b 	svcvs	0x00745f6b
 36c:	616d0070 	smcvs	53248	; 0xd000
 370:	615f6b72 	cmpvs	pc, r2, ror fp	; <UNPREDICTABLE>
 374:	69006c6c 	stmdbvs	r0, {r2, r3, r5, r6, sl, fp, sp, lr}
 378:	656c706d 	strbvs	r7, [ip, #-109]!	; 0xffffff93
 37c:	746e656d 	strbtvc	r6, [lr], #-1389	; 0xfffffa93
 380:	6968745f 	stmdbvs	r8!, {r0, r1, r2, r3, r4, r6, sl, ip, sp, lr}^
 384:	5f5f0073 	svcpl	0x005f0073
 388:	5f737362 	svcpl	0x00737362
 38c:	72617473 	rsbvc	r7, r1, #1929379840	; 0x73000000
 390:	005f5f74 	subseq	r5, pc, r4, ror pc	; <UNPREDICTABLE>
 394:	6f6c626e 	svcvs	0x006c626e
 398:	00736b63 	rsbseq	r6, r3, r3, ror #22
 39c:	74696e69 	strbtvc	r6, [r9], #-3689	; 0xfffff197
 3a0:	6e00705f 	mcrvs	0, 0, r7, cr0, cr15, {2}
 3a4:	65747962 	ldrbvs	r7, [r4, #-2402]!	; 0xfffff69e
 3a8:	72665f73 	rsbvc	r5, r6, #460	; 0x1cc
 3ac:	00646565 	rsbeq	r6, r4, r5, ror #10
 3b0:	5f646c6f 	svcpl	0x00646c6f
 3b4:	6b72616d 	blvs	1c98970 <__bss_end__+0x1c8db48>
 3b8:	79616d00 	stmdbvc	r1!, {r8, sl, fp, sp, lr}^
 3bc:	655f6562 	ldrbvs	r6, [pc, #-1378]	; fffffe62 <__bss_end__+0xffff503a>
 3c0:	726f7272 	rsbvc	r7, pc, #536870919	; 0x20000007
 3c4:	6b630073 	blvs	18c0598 <__bss_end__+0x18b5770>
 3c8:	0063675f 	rsbeq	r6, r3, pc, asr r7
 3cc:	706d7564 	rsbvc	r7, sp, r4, ror #10
 3d0:	6765725f 			; <UNDEFINED> instruction: 0x6765725f
 3d4:	6c6e0073 	stclvs	0, cr0, [lr], #-460	; 0xfffffe34
 3d8:	736b6165 	cmnvc	fp, #1073741849	; 0x40000019
 3dc:	636e6900 	cmnvs	lr, #0, 18
 3e0:	656d6572 	strbvs	r6, [sp, #-1394]!	; 0xfffffa8e
 3e4:	5f00746e 	svcpl	0x0000746e
 3e8:	7461645f 	strbtvc	r6, [r1], #-1119	; 0xfffffba1
 3ec:	6e655f61 	cdpvs	15, 6, cr5, cr5, cr1, {3}
 3f0:	005f5f64 	subseq	r5, pc, r4, ror #30
 3f4:	705f7369 	subsvc	r7, pc, r9, ror #6
 3f8:	63007274 	movwvs	r7, #628	; 0x274
 3fc:	6b636568 	blvs	18d99a4 <__bss_end__+0x18ceb7c>
 400:	5f6f6e5f 	svcpl	0x006f6e5f
 404:	6b61656c 	blvs	18599bc <__bss_end__+0x184eb94>
 408:	72666e00 	rsbvc	r6, r6, #0, 28
 40c:	00646565 	rsbeq	r6, r4, r5, ror #10
 410:	685f6e69 	ldmdavs	pc, {r0, r3, r5, r6, r9, sl, fp, sp, lr}^	; <UNPREDICTABLE>
 414:	00706165 	rsbseq	r6, r0, r5, ror #2
 418:	6d656e6f 	stclvs	14, cr6, [r5, #-444]!	; 0xfffffe44
 41c:	6b630062 	blvs	18c05ac <__bss_end__+0x18b5784>
 420:	2e63672d 	cdpcs	7, 6, cr6, cr3, cr13, {1}
 424:	68630063 	stmdavs	r3!, {r0, r1, r5, r6}^
 428:	5f6b6365 	svcpl	0x006b6365
 42c:	756f6873 	strbvc	r6, [pc, #-2163]!	; fffffbc1 <__bss_end__+0xffff4d99>
 430:	6c5f646c 	cfldrdvs	mvd6, [pc], {108}	; 0x6c
 434:	006b6165 	rsbeq	r6, fp, r5, ror #2
 438:	73625f5f 	cmnvc	r2, #380	; 0x17c
 43c:	6e655f73 	mcrvs	15, 3, r5, cr5, cr3, {3}
 440:	005f5f64 	subseq	r5, pc, r4, ror #30
 444:	6c616d6b 	stclvs	13, cr6, [r1], #-428	; 0xfffffe54
 448:	00636f6c 	rsbeq	r6, r3, ip, ror #30
 44c:	6c616d6b 	stclvs	13, cr6, [r1], #-428	; 0xfffffe54
 450:	5f636f6c 	svcpl	0x00636f6c
 454:	74696e69 	strbtvc	r6, [r9], #-3689	; 0xfffff197
 458:	7465735f 	strbtvc	r7, [r5], #-863	; 0xfffffca1
 45c:	6174735f 	cmnvs	r4, pc, asr r3
 460:	73007472 	movwvc	r7, #1138	; 0x472
 464:	70656577 	rsbvc	r6, r5, r7, ror r5
 468:	61656c5f 	cmnvs	r5, pc, asr ip
 46c:	5f5f006b 	svcpl	0x005f006b
 470:	61746164 	cmnvs	r4, r4, ror #2
 474:	6174735f 	cmnvs	r4, pc, asr r3
 478:	5f5f7472 	svcpl	0x005f7472
 47c:	65777300 	ldrbvs	r7, [r7, #-768]!	; 0xfffffd00
 480:	665f7065 	ldrbvs	r7, [pc], -r5, rrx
 484:	00656572 	rsbeq	r6, r5, r2, ror r5
 488:	6e726177 	mrcvs	1, 3, r6, cr2, cr7, {3}
 48c:	5f6f6e5f 	svcpl	0x006f6e5f
 490:	72617473 	rsbvc	r7, r1, #1929379840	; 0x73000000
 494:	65725f74 	ldrbvs	r5, [r2, #-3956]!	; 0xfffff08c
 498:	00705f66 	rsbseq	r5, r0, r6, ror #30
 49c:	657a6973 	ldrbvs	r6, [sl, #-2419]!	; 0xfffff68d
 4a0:	2e00745f 	cfmvsrcs	mvf0, r7
 4a4:	62696c2f 	rsbvs	r6, r9, #12032	; 0x2f00
 4a8:	656d2f63 	strbvs	r2, [sp, #-3939]!	; 0xfffff09d
 4ac:	7465736d 	strbtvc	r7, [r5], #-877	; 0xfffffc93
 4b0:	4700632e 	strmi	r6, [r0, -lr, lsr #6]
 4b4:	4320554e 			; <UNDEFINED> instruction: 0x4320554e
 4b8:	39203939 	stmdbcc	r0!, {r0, r3, r4, r5, r8, fp, ip, sp}
 4bc:	312e322e 			; <UNDEFINED> instruction: 0x312e322e
 4c0:	31303220 	teqcc	r0, r0, lsr #4
 4c4:	32303139 	eorscc	r3, r0, #1073741838	; 0x4000000e
 4c8:	72282035 	eorvc	r2, r8, #53, 0	; 0x35
 4cc:	61656c65 	cmnvs	r5, r5, ror #24
 4d0:	20296573 	eorcs	r6, r9, r3, ror r5
 4d4:	4d52415b 	ldfmie	f4, [r2, #-364]	; 0xfffffe94
 4d8:	6d72612f 	ldfvse	f6, [r2, #-188]!	; 0xffffff44
 4dc:	622d392d 	eorvs	r3, sp, #737280	; 0xb4000
 4e0:	636e6172 	cmnvs	lr, #-2147483620	; 0x8000001c
 4e4:	65722068 	ldrbvs	r2, [r2, #-104]!	; 0xffffff98
 4e8:	69736976 	ldmdbvs	r3!, {r1, r2, r4, r5, r6, r8, fp, sp, lr}^
 4ec:	32206e6f 	eorcc	r6, r0, #1776	; 0x6f0
 4f0:	39353737 	ldmdbcc	r5!, {r0, r1, r2, r4, r5, r8, r9, sl, ip, sp}
 4f4:	2d205d39 	stccs	13, cr5, [r0, #-228]!	; 0xffffff1c
 4f8:	7570636d 	ldrbvc	r6, [r0, #-877]!	; 0xfffffc93
 4fc:	6d72613d 	ldfvse	f6, [r2, #-244]!	; 0xffffff0c
 500:	36373131 			; <UNDEFINED> instruction: 0x36373131
 504:	2d667a6a 	vstmdbcs	r6!, {s15-s120}
 508:	6d2d2073 	stcvs	0, cr2, [sp, #-460]!	; 0xfffffe34
 50c:	656e7574 	strbvs	r7, [lr, #-1396]!	; 0xfffffa8c
 510:	6d72613d 	ldfvse	f6, [r2, #-244]!	; 0xffffff0c
 514:	36373131 			; <UNDEFINED> instruction: 0x36373131
 518:	2d667a6a 	vstmdbcs	r6!, {s15-s120}
 51c:	6d2d2073 	stcvs	0, cr2, [sp, #-460]!	; 0xfffffe34
 520:	616f6c66 	cmnvs	pc, r6, ror #24
 524:	62612d74 	rsbvs	r2, r1, #116, 26	; 0x1d00
 528:	6f733d69 	svcvs	0x00733d69
 52c:	2d207466 	cfstrscs	mvf7, [r0, #-408]!	; 0xfffffe68
 530:	6d72616d 	ldfvse	f6, [r2, #-436]!	; 0xfffffe4c
 534:	616d2d20 	cmnvs	sp, r0, lsr #26
 538:	3d686372 	stclcc	3, cr6, [r8, #-456]!	; 0xfffffe38
 53c:	766d7261 	strbtvc	r7, [sp], -r1, ror #4
 540:	207a6b36 	rsbscs	r6, sl, r6, lsr fp
 544:	6467672d 	strbtvs	r6, [r7], #-1837	; 0xfffff8d3
 548:	4f2d2062 	svcmi	0x002d2062
 54c:	74736166 	ldrbtvc	r6, [r3], #-358	; 0xfffffe9a
 550:	74732d20 	ldrbtvc	r2, [r3], #-3360	; 0xfffff2e0
 554:	6e673d64 	cdpvs	13, 6, cr3, cr7, cr4, {3}
 558:	20393975 	eorscs	r3, r9, r5, ror r9
 55c:	7266662d 	rsbvc	r6, r6, #47185920	; 0x2d00000
 560:	74736565 	ldrbtvc	r6, [r3], #-1381	; 0xfffffa9b
 564:	69646e61 	stmdbvs	r4!, {r0, r5, r6, r9, sl, fp, sp, lr}^
 568:	2f00676e 	svccs	0x0000676e
 56c:	72657355 	rsbvc	r7, r5, #1409286145	; 0x54000001
 570:	696d2f73 	stmdbvs	sp!, {r0, r1, r4, r5, r6, r8, r9, sl, fp, sp}^
 574:	2f73656c 	svccs	0x0073656c
 578:	72756f53 	rsbsvc	r6, r5, #332	; 0x14c
 57c:	632f6563 			; <UNDEFINED> instruction: 0x632f6563
 580:	30343273 	eorscc	r3, r4, r3, ror r2
 584:	6c2f786c 	stcvs	8, cr7, [pc], #-432	; 3dc <__code_start__-0x7c24>
 588:	69706269 	ldmdbvs	r0!, {r0, r3, r5, r6, r9, sp, lr}^
 58c:	67726100 	ldrbvs	r6, [r2, -r0, lsl #2]!
 590:	61760073 	cmnvs	r6, r3, ror r0
 594:	6972705f 	ldmdbvs	r2!, {r0, r1, r2, r3, r4, r6, ip, sp, lr}^
 598:	006b746e 	rsbeq	r7, fp, lr, ror #8
 59c:	6e675f5f 	mcrvs	15, 3, r5, cr7, cr15, {2}
 5a0:	765f6375 			; <UNDEFINED> instruction: 0x765f6375
 5a4:	696c5f61 	stmdbvs	ip!, {r0, r5, r6, r8, r9, sl, fp, ip, lr}^
 5a8:	5f007473 	svcpl	0x00007473
 5ac:	0070615f 	rsbseq	r6, r0, pc, asr r1
 5b0:	696c2f2e 	stmdbvs	ip!, {r1, r2, r3, r5, r8, r9, sl, fp, sp}^
 5b4:	702f6362 	eorvc	r6, pc, r2, ror #6
 5b8:	746e6972 	strbtvc	r6, [lr], #-2418	; 0xfffff68e
 5bc:	00632e6b 	rsbeq	r2, r3, fp, ror #28
 5c0:	61765f5f 	cmnvs	r6, pc, asr pc
 5c4:	73696c5f 	cmnvc	r9, #24320	; 0x5f00
 5c8:	6e690074 	mcrvs	0, 3, r0, cr9, cr4, {3}
 5cc:	6e726574 	mrcvs	5, 3, r6, cr2, cr4, {3}
 5d0:	705f6c61 	subsvc	r6, pc, r1, ror #24
 5d4:	006b7475 	rsbeq	r7, fp, r5, ror r4
 5d8:	696c2f2e 	stmdbvs	ip!, {r1, r2, r3, r5, r8, r9, sl, fp, sp}^
 5dc:	702f6362 	eorvc	r6, pc, r2, ror #6
 5e0:	2e6b7475 	mcrcs	4, 3, r7, cr11, cr5, {3}
 5e4:	73690063 	cmnvc	r9, #99, 0	; 0x63
 5e8:	69676964 	stmdbvs	r7!, {r2, r5, r6, r8, fp, sp, lr}^
 5ec:	69750074 	ldmdbvs	r5!, {r2, r4, r5, r6}^
 5f0:	3436746e 	ldrtcc	r7, [r6], #-1134	; 0xfffffb92
 5f4:	2e00745f 	cfmvsrcs	mvf0, r7
 5f8:	62696c2f 	rsbvs	r6, r9, #12032	; 0x2f00
 5fc:	61762f63 	cmnvs	r6, r3, ror #30
 600:	6972702d 	ldmdbvs	r2!, {r0, r2, r3, r5, ip, sp, lr}^
 604:	2e6b746e 	cdpcs	4, 6, cr7, cr11, cr14, {3}
 608:	5f5f0063 	svcpl	0x005f0063
 60c:	65646f63 	strbvs	r6, [r4, #-3939]!	; 0xfffff09d
 610:	6174735f 	cmnvs	r4, pc, asr r3
 614:	5f5f7472 	svcpl	0x005f7472
 618:	64697700 	strbtvs	r7, [r9], #-1792	; 0xfffff900
 61c:	70006874 	andvc	r6, r0, r4, ror r8
 620:	5f637475 	svcpl	0x00637475
 624:	5f007066 	svcpl	0x00007066
 628:	6165685f 	cmnvs	r5, pc, asr r8
 62c:	74735f70 	ldrbtvc	r5, [r3], #-3952	; 0xfffff090
 630:	5f747261 	svcpl	0x00747261
 634:	7072005f 	rsbsvc	r0, r2, pc, asr r0
 638:	65735f69 	ldrbvs	r5, [r3, #-3945]!	; 0xfffff097
 63c:	756f5f74 	strbvc	r5, [pc, #-3956]!	; fffff6d0 <__bss_end__+0xffff48a8>
 640:	74757074 	ldrbtvc	r7, [r5], #-116	; 0xffffff8c
 644:	746d6600 	strbtvc	r6, [sp], #-1536	; 0xfffffa00
 648:	6174735f 	cmnvs	r4, pc, asr r3
 64c:	73007472 	movwvc	r7, #1138	; 0x472
 650:	61637274 	smcvs	14116	; 0x3724
 654:	74730074 	ldrbtvc	r0, [r3], #-116	; 0xffffff8c
 658:	79706372 	ldmdbvc	r0!, {r1, r4, r5, r6, r8, r9, sp, lr}^
 65c:	67656e00 	strbvs	r6, [r5, -r0, lsl #28]!
 660:	5f00705f 	svcpl	0x0000705f
 664:	646f635f 	strbtvs	r6, [pc], #-863	; 66c <__code_start__-0x7994>
 668:	6e655f65 	cdpvs	15, 6, cr5, cr5, cr5, {3}
 66c:	005f5f64 	subseq	r5, pc, r4, ror #30
 670:	74696d65 	strbtvc	r6, [r9], #-3429	; 0xfffff29b
 674:	76657200 	strbtvc	r7, [r5], -r0, lsl #4
 678:	65737265 	ldrbvs	r7, [r3, #-613]!	; 0xfffffd9b
 67c:	72747300 	rsbsvc	r7, r4, #0, 6
 680:	00706d63 	rsbseq	r6, r0, r3, ror #26
 684:	73747570 	cmnvc	r4, #112, 10	; 0x1c000000
 688:	0070665f 	rsbseq	r6, r0, pc, asr r6
 68c:	72705f5f 	rsbsvc	r5, r0, #380	; 0x17c
 690:	655f676f 	ldrbvs	r6, [pc, #-1903]	; ffffff29 <__bss_end__+0xffff5101>
 694:	5f5f646e 	svcpl	0x005f646e
 698:	6d756e00 	ldclvs	14, cr6, [r5, #-0]
 69c:	74730031 	ldrbtvc	r0, [r3], #-49	; 0xffffffcf
 6a0:	6d636e72 	stclvs	14, cr6, [r3, #-456]!	; 0xfffffe38
 6a4:	69730070 	ldmdbvs	r3!, {r4, r5, r6}^
 6a8:	64656e67 	strbtvs	r6, [r5], #-3687	; 0xfffff199
 6ac:	7200705f 	andvc	r7, r0, #95, 0	; 0x5f
 6b0:	725f6970 	subsvc	r6, pc, #112, 18	; 0x1c0000
 6b4:	6f6f6265 	svcvs	0x006f6265
 6b8:	65640074 	strbvs	r0, [r4, #-116]!	; 0xffffff8c
 6bc:	5f79616c 	svcpl	0x0079616c
 6c0:	2e00736d 	cdpcs	3, 0, cr7, cr0, cr13, {3}
 6c4:	6174732f 	cmnvs	r4, pc, lsr #6
 6c8:	732d6666 			; <UNDEFINED> instruction: 0x732d6666
 6cc:	632f6372 			; <UNDEFINED> instruction: 0x632f6372
 6d0:	6e61656c 	cdpvs	5, 6, cr6, cr1, cr12, {3}
 6d4:	6265722d 	rsbvs	r7, r5, #-805306366	; 0xd0000002
 6d8:	2e746f6f 	cdpcs	15, 7, cr6, cr4, cr15, {3}
 6dc:	61750063 	cmnvs	r5, r3, rrx
 6e0:	665f7472 			; <UNDEFINED> instruction: 0x665f7472
 6e4:	6873756c 	ldmdavs	r3!, {r2, r3, r5, r6, r8, sl, ip, sp, lr}^
 6e8:	0078745f 	rsbseq	r7, r8, pc, asr r4
 6ec:	7473635f 	ldrbtvc	r6, [r3], #-863	; 0xfffffca1
 6f0:	00747261 	rsbseq	r7, r4, r1, ror #4
 6f4:	5f737362 	svcpl	0x00737362
 6f8:	00646e65 	rsbeq	r6, r4, r5, ror #28
 6fc:	74726175 	ldrbtvc	r6, [r2], #-373	; 0xfffffe8b
 700:	696e695f 	stmdbvs	lr!, {r0, r1, r2, r3, r4, r6, r8, fp, sp, lr}^
 704:	75630074 	strbvc	r0, [r3, #-116]!	; 0xffffff8c
 708:	6d6f7473 	cfstrdvs	mvd7, [pc, #-460]!	; 544 <__code_start__-0x7abc>
 70c:	616f6c5f 	cmnvs	pc, pc, asr ip	; <UNPREDICTABLE>
 710:	00726564 	rsbseq	r6, r2, r4, ror #10
 714:	74732f2e 	ldrbtvc	r2, [r3], #-3886	; 0xfffff0d2
 718:	2d666661 	stclcs	6, cr6, [r6, #-388]!	; 0xfffffe7c
 71c:	2f637273 	svccs	0x00637273
 720:	61747363 	cmnvs	r4, r3, ror #6
 724:	632e7472 			; <UNDEFINED> instruction: 0x632e7472
 728:	732f2e00 			; <UNDEFINED> instruction: 0x732f2e00
 72c:	66666174 			; <UNDEFINED> instruction: 0x66666174
 730:	6372732d 	cmnvs	r2, #-1275068416	; 0xb4000000
 734:	7375632f 	cmnvc	r5, #-1140850688	; 0xbc000000
 738:	2d6d6f74 	stclcs	15, cr6, [sp, #-464]!	; 0xfffffe30
 73c:	64616f6c 	strbtvs	r6, [r1], #-3948	; 0xfffff094
 740:	632e7265 			; <UNDEFINED> instruction: 0x632e7265
 744:	62657200 	rsbvs	r7, r5, #0, 4
 748:	5f746f6f 	svcpl	0x00746f6f
 74c:	6c6c6163 	stfvse	f6, [ip], #-396	; 0xfffffe74
 750:	0074756f 	rsbseq	r7, r4, pc, ror #10
 754:	575f4d50 			; <UNDEFINED> instruction: 0x575f4d50
 758:	00474f44 	subeq	r4, r7, r4, asr #30
 75c:	33545550 	cmpcc	r4, #80, 10	; 0x14000000
 760:	65730032 	ldrbvs	r0, [r3, #-50]!	; 0xffffffce
 764:	73755f74 	cmnvc	r5, #116, 30	; 0x1d0
 768:	6c5f7265 	lfmvs	f7, 2, [pc], {101}	; 0x65
 76c:	6c657665 	stclvs	6, cr7, [r5], #-404	; 0xfffffe6c
 770:	732f2e00 			; <UNDEFINED> instruction: 0x732f2e00
 774:	66666174 			; <UNDEFINED> instruction: 0x66666174
 778:	6372732d 	cmnvs	r2, #-1275068416	; 0xb4000000
 77c:	6265722f 	rsbvs	r7, r5, #-268435454	; 0xf0000002
 780:	2e746f6f 	cdpcs	15, 7, cr6, cr4, cr15, {3}
 784:	4d500063 	ldclmi	0, cr0, [r0, #-396]	; 0xfffffe74
 788:	5341505f 	movtpl	r5, #4191	; 0x105f
 78c:	524f5753 	subpl	r5, pc, #21757952	; 0x14c0000
 790:	74610044 	strbtvc	r0, [r1], #-68	; 0xffffffbc
 794:	6573755f 	ldrbvs	r7, [r3, #-1375]!	; 0xfffffaa1
 798:	656c5f72 	strbvs	r5, [ip, #-3954]!	; 0xfffff08e
 79c:	006c6576 	rsbeq	r6, ip, r6, ror r5
 7a0:	525f4d50 	subspl	r4, pc, #80, 26	; 0x1400
 7a4:	5f435453 	svcpl	0x00435453
 7a8:	46435257 			; <UNDEFINED> instruction: 0x46435257
 7ac:	55465f47 	strbpl	r5, [r6, #-3911]	; 0xfffff0b9
 7b0:	525f4c4c 	subspl	r4, pc, #76, 24	; 0x4c00
 7b4:	54455345 	strbpl	r5, [r5], #-837	; 0xfffffcbb
 7b8:	5f4d5000 	svcpl	0x004d5000
 7bc:	43545352 	cmpmi	r4, #1207959553	; 0x48000001
 7c0:	73706300 	cmnvc	r0, #0, 6
 7c4:	65640072 	strbvs	r0, [r4, #-114]!	; 0xffffff8e
 7c8:	61625f76 	smcvs	9718	; 0x25f6
 7cc:	65697272 	strbvs	r7, [r9, #-626]!	; 0xfffffd8e
 7d0:	65640072 	strbvs	r0, [r4, #-114]!	; 0xffffff8e
 7d4:	5f79616c 	svcpl	0x0079616c
 7d8:	00636573 	rsbeq	r6, r3, r3, ror r5
 7dc:	74732f2e 	ldrbtvc	r2, [r3], #-3886	; 0xfffff0d2
 7e0:	2d666661 	stclcs	6, cr6, [r6, #-388]!	; 0xfffffe7c
 7e4:	2f637273 	svccs	0x00637273
 7e8:	656d6974 	strbvs	r6, [sp, #-2420]!	; 0xfffff68c
 7ec:	00632e72 	rsbeq	r2, r3, r2, ror lr
 7f0:	33544547 	cmpcc	r4, #297795584	; 0x11c00000
 7f4:	69740032 	ldmdbvs	r4!, {r1, r4, r5}^
 7f8:	5f72656d 	svcpl	0x0072656d
 7fc:	5f746567 	svcpl	0x00746567
 800:	63657375 	cmnvs	r5, #-738197503	; 0xd4000001
 804:	6c656400 	cfstrdvs	mvd6, [r5], #-0
 808:	755f7961 	ldrbvc	r7, [pc, #-2401]	; fffffeaf <__bss_end__+0xffff5087>
 80c:	69740073 	ldmdbvs	r4!, {r0, r1, r4, r5, r6}^
 810:	5f72656d 	svcpl	0x0072656d
 814:	5f746567 	svcpl	0x00746567
 818:	63657375 	cmnvs	r5, #-738197503	; 0xd4000001
 81c:	7761725f 			; <UNDEFINED> instruction: 0x7761725f
 820:	74757000 	ldrbtvc	r7, [r5], #-0
 824:	62003233 	andvs	r3, r0, #805306371	; 0x30000003
 828:	5f647561 	svcpl	0x00647561
 82c:	006c6176 	rsbeq	r6, ip, r6, ror r1
 830:	74617473 	strbtvc	r7, [r1], #-1139	; 0xfffffb8d
 834:	72617500 	rsbvc	r7, r1, #0, 10
 838:	61635f74 	smcvs	13812	; 0x35f4
 83c:	65675f6e 	strbvs	r5, [r7, #-3950]!	; 0xfffff092
 840:	47006374 	smlsdxmi	r0, r4, r3, r6
 844:	5f4f4950 	svcpl	0x004f4950
 848:	434e5546 	movtmi	r5, #58694	; 0xe546
 84c:	54554f5f 	ldrbpl	r4, [r5], #-3935	; 0xfffff0a1
 850:	00545550 	subseq	r5, r4, r0, asr r5
 854:	5f787561 	svcpl	0x00787561
 858:	69726570 	ldmdbvs	r2!, {r4, r5, r6, r8, sl, sp, lr}^
 85c:	00736870 	rsbseq	r6, r3, r0, ror r8
 860:	74726175 	ldrbtvc	r6, [r2], #-373	; 0xfffffe8b
 864:	7500632e 	strvc	r6, [r0, #-814]	; 0xfffffcd2
 868:	5f747261 	svcpl	0x00747261
 86c:	5f6e6163 	svcpl	0x006e6163
 870:	63747570 	cmnvs	r4, #112, 10	; 0x1c000000
 874:	72617500 	rsbvc	r7, r1, #0, 10
 878:	78745f74 	ldmdavc	r4!, {r2, r4, r5, r6, r8, r9, sl, fp, ip, lr}^
 87c:	5f73695f 	svcpl	0x0073695f
 880:	74706d65 	ldrbtvc	r6, [r0], #-3429	; 0xfffff29b
 884:	50470079 	subpl	r0, r7, r9, ror r0
 888:	465f4f49 	ldrbmi	r4, [pc], -r9, asr #30
 88c:	5f434e55 	svcpl	0x00434e55
 890:	30544c41 	subscc	r4, r4, r1, asr #24
 894:	49504700 	ldmdbmi	r0, {r8, r9, sl, lr}^
 898:	55465f4f 	strbpl	r5, [r6, #-3919]	; 0xfffff0b1
 89c:	415f434e 	cmpmi	pc, lr, asr #6
 8a0:	0031544c 	eorseq	r5, r1, ip, asr #8
 8a4:	4f495047 	svcmi	0x00495047
 8a8:	4e55465f 	mrcmi	6, 2, r4, cr5, cr15, {2}
 8ac:	4c415f43 	mcrrmi	15, 4, r5, r1, cr3
 8b0:	47003254 	smlsdmi	r0, r4, r2, r3
 8b4:	5f4f4950 	svcpl	0x004f4950
 8b8:	434e5546 	movtmi	r5, #58694	; 0xe546
 8bc:	544c415f 	strbpl	r4, [ip], #-351	; 0xfffffea1
 8c0:	50470033 	subpl	r0, r7, r3, lsr r0
 8c4:	465f4f49 	ldrbmi	r4, [pc], -r9, asr #30
 8c8:	5f434e55 	svcpl	0x00434e55
 8cc:	35544c41 	ldrbcc	r4, [r4, #-3137]	; 0xfffff3bf
 8d0:	6f682f00 	svcvs	0x00682f00
 8d4:	652f656d 	strvs	r6, [pc, #-1389]!	; 36f <__code_start__-0x7c91>
 8d8:	656c676e 	strbvs	r6, [ip, #-1902]!	; 0xfffff892
 8dc:	6c632f72 	stclvs	15, cr2, [r3], #-456	; 0xfffffe38
 8e0:	2f737361 	svccs	0x00737361
 8e4:	34327363 	ldrtcc	r7, [r2], #-867	; 0xfffffc9d
 8e8:	2d786c30 	ldclcs	12, cr6, [r8, #-192]!	; 0xffffff40
 8ec:	70733232 	rsbsvc	r3, r3, r2, lsr r2
 8f0:	696c2f72 	stmdbvs	ip!, {r1, r4, r5, r6, r8, r9, sl, fp, sp}^
 8f4:	2f697062 	svccs	0x00697062
 8f8:	66617473 			; <UNDEFINED> instruction: 0x66617473
 8fc:	72702d66 	rsbsvc	r2, r0, #6528	; 0x1980
 900:	74617669 	strbtvc	r7, [r1], #-1641	; 0xfffff997
 904:	61620065 	cmnvs	r2, r5, rrx
 908:	61006475 	tstvs	r0, r5, ror r4
 90c:	655f7875 	ldrbvs	r7, [pc, #-2165]	; 9f <__code_start__-0x7f61>
 910:	6c62616e 	stfvse	f6, [r2], #-440	; 0xfffffe48
 914:	75007365 	strvc	r7, [r0, #-869]	; 0xfffffc9b
 918:	5f747261 	svcpl	0x00747261
 91c:	63746567 	cmnvs	r4, #432013312	; 0x19c00000
 920:	554e4700 	strbpl	r4, [lr, #-1792]	; 0xfffff900
 924:	39394320 	ldmdbcc	r9!, {r5, r8, r9, lr}
 928:	2e303120 	rsfcssp	f3, f0, f0
 92c:	20312e33 	eorscs	r2, r1, r3, lsr lr
 930:	31323032 	teqcc	r2, r2, lsr r0
 934:	34323830 	ldrtcc	r3, [r2], #-2096	; 0xfffff7d0
 938:	65722820 	ldrbvs	r2, [r2, #-2080]!	; 0xfffff7e0
 93c:	7361656c 	cmnvc	r1, #108, 10	; 0x1b000000
 940:	2d202965 			; <UNDEFINED> instruction: 0x2d202965
 944:	7570636d 	ldrbvc	r6, [r0, #-877]!	; 0xfffffc93
 948:	6d72613d 	ldfvse	f6, [r2, #-244]!	; 0xffffff0c
 94c:	36373131 			; <UNDEFINED> instruction: 0x36373131
 950:	2d667a6a 	vstmdbcs	r6!, {s15-s120}
 954:	6d2d2073 	stcvs	0, cr2, [sp, #-460]!	; 0xfffffe34
 958:	656e7574 	strbvs	r7, [lr, #-1396]!	; 0xfffffa8c
 95c:	6d72613d 	ldfvse	f6, [r2, #-244]!	; 0xffffff0c
 960:	36373131 			; <UNDEFINED> instruction: 0x36373131
 964:	2d667a6a 	vstmdbcs	r6!, {s15-s120}
 968:	6d2d2073 	stcvs	0, cr2, [sp, #-460]!	; 0xfffffe34
 96c:	616f6c66 	cmnvs	pc, r6, ror #24
 970:	62612d74 	rsbvs	r2, r1, #116, 26	; 0x1d00
 974:	6f733d69 	svcvs	0x00733d69
 978:	2d207466 	cfstrscs	mvf7, [r0, #-408]!	; 0xfffffe68
 97c:	6d72616d 	ldfvse	f6, [r2, #-436]!	; 0xfffffe4c
 980:	616d2d20 	cmnvs	sp, r0, lsr #26
 984:	3d686372 	stclcc	3, cr6, [r8, #-456]!	; 0xfffffe38
 988:	766d7261 	strbtvc	r7, [sp], -r1, ror #4
 98c:	207a6b36 	rsbscs	r6, sl, r6, lsr fp
 990:	6467672d 	strbtvs	r6, [r7], #-1837	; 0xfffff8d3
 994:	4f2d2062 	svcmi	0x002d2062
 998:	732d2067 			; <UNDEFINED> instruction: 0x732d2067
 99c:	673d6474 			; <UNDEFINED> instruction: 0x673d6474
 9a0:	3939756e 	ldmdbcc	r9!, {r1, r2, r3, r5, r6, r8, sl, ip, sp, lr}
 9a4:	66662d20 	strbtvs	r2, [r6], -r0, lsr #26
 9a8:	73656572 	cmnvc	r5, #478150656	; 0x1c800000
 9ac:	646e6174 	strbtvs	r6, [lr], #-372	; 0xfffffe8c
 9b0:	00676e69 	rsbeq	r6, r7, r9, ror #28
 9b4:	6c746e63 	ldclvs	14, cr6, [r4], #-396	; 0xfffffe74
 9b8:	72617500 	rsbvc	r7, r1, #0, 10
 9bc:	69645f74 	stmdbvs	r4!, {r2, r4, r5, r6, r8, r9, sl, fp, ip, lr}^
 9c0:	6c626173 	stfvse	f6, [r2], #-460	; 0xfffffe34
 9c4:	61750065 	cmnvs	r5, r5, rrx
 9c8:	685f7472 	ldmdavs	pc, {r1, r4, r5, r6, sl, ip, sp, lr}^	; <UNPREDICTABLE>
 9cc:	645f7361 	ldrbvs	r7, [pc], #-865	; 9d4 <__code_start__-0x762c>
 9d0:	00617461 	rsbeq	r7, r1, r1, ror #8
 9d4:	4f495047 	svcmi	0x00495047
 9d8:	4e55465f 	mrcmi	6, 2, r4, cr5, cr15, {2}
 9dc:	4c415f43 	mcrrmi	15, 4, r5, r1, cr3
 9e0:	6f003454 	svcvs	0x00003454
 9e4:	6e695f72 	mcrvs	15, 3, r5, cr9, cr2, {3}
 9e8:	73003233 	movwvc	r3, #563	; 0x233
 9ec:	74617263 	strbtvc	r7, [r1], #-611	; 0xfffffd9d
 9f0:	75006863 	strvc	r6, [r0, #-2147]	; 0xfffff79d
 9f4:	00747261 	rsbseq	r7, r4, r1, ror #4
 9f8:	5f646e61 	svcpl	0x00646e61
 9fc:	32336e69 	eorscc	r6, r3, #1680	; 0x690
 a00:	72617500 	rsbvc	r7, r1, #0, 10
 a04:	75705f74 	ldrbvc	r5, [r0, #-3956]!	; 0xfffff08c
 a08:	47006374 	smlsdxmi	r0, r4, r3, r6
 a0c:	5f4f4950 	svcpl	0x004f4950
 a10:	434e5546 	movtmi	r5, #58694	; 0xe546
 a14:	504e495f 	subpl	r4, lr, pc, asr r9
 a18:	67005455 	smlsdvs	r0, r5, r4, r5
 a1c:	5f6f6970 	svcpl	0x006f6970
 a20:	5f746573 	svcpl	0x00746573
 a24:	636e7566 	cmnvs	lr, #427819008	; 0x19800000
 a28:	6e6f6974 			; <UNDEFINED> instruction: 0x6e6f6974
 a2c:	74656700 	strbtvc	r6, [r5], #-1792	; 0xfffff900
 a30:	6b003233 	blvs	d304 <__bss_end__+0x24dc>
 a34:	6c6c616d 	stfvse	f6, [ip], #-436	; 0xfffffe4c
 a38:	685f636f 	ldmdavs	pc, {r0, r1, r2, r3, r5, r6, r8, r9, sp, lr}^	; <UNPREDICTABLE>
 a3c:	5f706165 	svcpl	0x00706165
 a40:	72617473 	rsbvc	r7, r1, #1929379840	; 0x73000000
 a44:	616d0074 	smcvs	53252	; 0xd004
 a48:	626e5f78 	rsbvs	r5, lr, #120, 30	; 0x1e0
 a4c:	73657479 	cmnvc	r5, #2030043136	; 0x79000000
 a50:	64615f00 	strbtvs	r5, [r1], #-3840	; 0xfffff100
 a54:	68007264 	stmdavs	r0, {r2, r5, r6, r9, ip, sp, lr}
 a58:	5f706165 	svcpl	0x00706165
 a5c:	0078616d 	rsbseq	r6, r8, sp, ror #2
 a60:	6572666b 	ldrbvs	r6, [r2, #-1643]!	; 0xfffff995
 a64:	6c615f65 	stclvs	15, cr5, [r1], #-404	; 0xfffffe6c
 a68:	6f72006c 	svcvs	0x0072006c
 a6c:	75646e75 	strbvc	r6, [r4, #-3701]!	; 0xfffff18b
 a70:	666b0070 			; <UNDEFINED> instruction: 0x666b0070
 a74:	5f656572 	svcpl	0x00656572
 a78:	00706f70 	rsbseq	r6, r0, r0, ror pc
 a7c:	67696c61 	strbvs	r6, [r9, -r1, ror #24]!
 a80:	6e656d6e 	cdpvs	13, 6, cr6, cr5, cr14, {3}
 a84:	616d0074 	smcvs	53252	; 0xd004
 a88:	33755f78 	cmncc	r5, #120, 30	; 0x1e0
 a8c:	6e4f0032 	mcrvs	0, 2, r0, cr15, cr2, {1}
 a90:	00424d65 	subeq	r4, r2, r5, ror #26
 a94:	6c616d6b 	stclvs	13, cr6, [r1], #-428	; 0xfffffe54
 a98:	5f636f6c 	svcpl	0x00636f6c
 a9c:	70616568 	rsbvc	r6, r1, r8, ror #10
 aa0:	646e655f 	strbtvs	r6, [lr], #-1375	; 0xfffffaa1
 aa4:	616d6b00 	cmnvs	sp, r0, lsl #22
 aa8:	636f6c6c 	cmnvs	pc, #108, 24	; 0x6c00
 aac:	746f6e5f 	strbtvc	r6, [pc], #-3679	; ab4 <__code_start__-0x754c>
 ab0:	6f72657a 	svcvs	0x0072657a
 ab4:	5f736900 	svcpl	0x00736900
 ab8:	32776f70 	rsbscc	r6, r7, #112, 30	; 0x1c0
 abc:	616d6b00 	cmnvs	sp, r0, lsl #22
 ac0:	636f6c6c 	cmnvs	pc, #108, 24	; 0x6c00
 ac4:	6b00632e 	blvs	19784 <__bss_end__+0xe95c>
 ac8:	6c6c616d 	stfvse	f6, [ip], #-436	; 0xfffffe4c
 acc:	695f636f 	ldmdbvs	pc, {r0, r1, r2, r3, r5, r6, r8, r9, sp, lr}^	; <UNPREDICTABLE>
 ad0:	0074696e 	rsbseq	r6, r4, lr, ror #18
 ad4:	615f7369 	cmpvs	pc, r9, ror #6
 ad8:	6e67696c 	vnmulvs.f16	s13, s14, s25	; <UNPREDICTABLE>
 adc:	6b006465 	blvs	19c78 <__bss_end__+0xee50>
 ae0:	6c6c616d 	stfvse	f6, [ip], #-436	; 0xfffffe4c
 ae4:	685f636f 	ldmdavs	pc, {r0, r1, r2, r3, r5, r6, r8, r9, sp, lr}^	; <UNPREDICTABLE>
 ae8:	5f706165 	svcpl	0x00706165
 aec:	00727470 	rsbseq	r7, r2, r0, ror r4
 af0:	5f697072 	svcpl	0x00697072
 af4:	65736572 	ldrbvs	r6, [r3, #-1394]!	; 0xfffffa8e
 af8:	75705f74 	ldrbvc	r5, [r0, #-3956]!	; 0xfffff08c
 afc:	6b006374 	blvs	198d4 <__bss_end__+0xeaac>
 b00:	6c6c616d 	stfvse	f6, [ip], #-436	; 0xfffffe4c
 b04:	615f636f 	cmpvs	pc, pc, ror #6
 b08:	6e67696c 	vnmulvs.f16	s13, s14, s25	; <UNPREDICTABLE>
 b0c:	67006465 	strvs	r6, [r0, -r5, ror #8]
 b10:	5f6f6970 	svcpl	0x006f6970
 b14:	30726c63 	rsbscc	r6, r2, r3, ror #24
 b18:	69706700 	ldmdbvs	r0!, {r8, r9, sl, sp, lr}^
 b1c:	65735f6f 	ldrbvs	r5, [r3, #-3951]!	; 0xfffff091
 b20:	67003074 	smlsdxvs	r0, r4, r0, r3
 b24:	5f6f6970 	svcpl	0x006f6970
 b28:	74697277 	strbtvc	r7, [r9], #-631	; 0xfffffd89
 b2c:	45440065 	strbmi	r0, [r4, #-101]	; 0xffffff9b
 b30:	41565f56 	cmpmi	r6, r6, asr pc
 b34:	0032334c 	eorseq	r3, r2, ip, asr #6
 b38:	6f697067 	svcvs	0x00697067
 b3c:	6165725f 	cmnvs	r5, pc, asr r2
 b40:	2f2e0064 	svccs	0x002e0064
 b44:	2f637273 	svccs	0x00637273
 b48:	6f697067 	svcvs	0x00697067
 b4c:	6700632e 	strvs	r6, [r0, -lr, lsr #6]
 b50:	5f6f6970 	svcpl	0x006f6970
 b54:	5f746573 	svcpl	0x00746573
 b58:	75706e69 	ldrbvc	r6, [r0, #-3689]!	; 0xfffff197
 b5c:	70670074 	rsbvc	r0, r7, r4, ror r0
 b60:	735f6f69 	cmpvc	pc, #420	; 0x1a4
 b64:	6f5f7465 	svcvs	0x005f7465
 b68:	67006666 	strvs	r6, [r0, -r6, ror #12]
 b6c:	5f6f6970 	svcpl	0x006f6970
 b70:	5f746573 	svcpl	0x00746573
 b74:	7074756f 	rsbsvc	r7, r4, pc, ror #10
 b78:	67007475 	smlsdxvs	r0, r5, r4, r7
 b7c:	5f6f6970 	svcpl	0x006f6970
 b80:	636e7566 	cmnvs	lr, #427819008	; 0x19800000
 b84:	6700745f 	smlsdvs	r0, pc, r4, r7	; <UNPREDICTABLE>
 b88:	5f6f6970 	svcpl	0x006f6970
 b8c:	3076656c 	rsbscc	r6, r6, ip, ror #10
 b90:	6e616200 	cdpvs	2, 6, cr6, cr1, cr0, {0}
 b94:	7067006b 	rsbvc	r0, r7, fp, rrx
 b98:	735f6f69 	cmpvc	pc, #420	; 0x1a4
 b9c:	6f5f7465 	svcvs	0x005f7465
 ba0:	6e69006e 	cdpvs	0, 6, cr0, cr9, cr14, {3}
 ba4:	6e726574 	mrcvs	5, 3, r6, cr2, cr4, {3}
 ba8:	705f6c61 	subsvc	r6, pc, r1, ror #24
 bac:	68637475 	stmdavs	r3!, {r0, r2, r4, r5, r6, sl, ip, sp, lr}^
 bb0:	72007261 	andvc	r7, r0, #268435462	; 0x10000006
 bb4:	735f6970 	cmpvc	pc, #112, 18	; 0x1c0000
 bb8:	705f7465 	subsvc	r7, pc, r5, ror #8
 bbc:	00637475 	rsbeq	r7, r3, r5, ror r4
 bc0:	696c2f2e 	stmdbvs	ip!, {r1, r2, r3, r5, r8, r9, sl, fp, sp}^
 bc4:	702f6362 	eorvc	r6, pc, r2, ror #6
 bc8:	68637475 	stmdavs	r3!, {r0, r2, r4, r5, r6, sl, ip, sp, lr}^
 bcc:	632e7261 			; <UNDEFINED> instruction: 0x632e7261
 bd0:	6c2f2e00 	stcvs	14, cr2, [pc], #-0	; bd8 <__code_start__-0x7428>
 bd4:	2f636269 	svccs	0x00636269
 bd8:	63727473 	cmnvs	r2, #1929379840	; 0x73000000
 bdc:	632e7461 			; <UNDEFINED> instruction: 0x632e7461
 be0:	73656400 	cmnvc	r5, #0, 8
 be4:	2f2e0074 	svccs	0x002e0074
 be8:	6362696c 	cmnvs	r2, #108, 18	; 0x1b0000
 bec:	7274732f 	rsbsvc	r7, r4, #-1140850688	; 0xbc000000
 bf0:	2e706d63 	cdpcs	13, 7, cr6, cr0, cr3, {3}
 bf4:	2f2e0063 	svccs	0x002e0063
 bf8:	6362696c 	cmnvs	r2, #108, 18	; 0x1b0000
 bfc:	7274732f 	rsbsvc	r7, r4, #-1140850688	; 0xbc000000
 c00:	2e797063 	cdpcs	0, 7, cr7, cr9, cr3, {3}
 c04:	2f2e0063 	svccs	0x002e0063
 c08:	6362696c 	cmnvs	r2, #108, 18	; 0x1b0000
 c0c:	7274732f 	rsbsvc	r7, r4, #-1140850688	; 0xbc000000
 c10:	706d636e 	rsbvc	r6, sp, lr, ror #6
 c14:	2e00632e 	cdpcs	3, 0, cr6, cr0, cr14, {1}
 c18:	6174732f 	cmnvs	r4, pc, lsr #6
 c1c:	732d6666 			; <UNDEFINED> instruction: 0x732d6666
 c20:	642f6372 	strtvs	r6, [pc], #-882	; c28 <__code_start__-0x73d8>
 c24:	75616665 	strbvc	r6, [r1, #-1637]!	; 0xfffff99b
 c28:	722d746c 	eorvc	r7, sp, #108, 8	; 0x6c000000
 c2c:	6f6f6265 	svcvs	0x006f6265
 c30:	61632d74 	smcvs	13012	; 0x32d4
 c34:	756f6c6c 	strbvc	r6, [pc, #-3180]!	; ffffffd0 <__bss_end__+0xffff51a8>
 c38:	00632e74 	rsbeq	r2, r3, r4, ror lr

Disassembly of section .debug_frame:

00000000 <.debug_frame>:
   0:	0000000c 	andeq	r0, r0, ip
   4:	ffffffff 			; <UNDEFINED> instruction: 0xffffffff
   8:	7c020001 	stcvc	0, cr0, [r2], {1}
   c:	000d0c0e 	andeq	r0, sp, lr, lsl #24
  10:	0000001c 	andeq	r0, r0, ip, lsl r0
  14:	00000000 	andeq	r0, r0, r0
  18:	00008038 	andeq	r8, r0, r8, lsr r0
  1c:	0000005c 	andeq	r0, r0, ip, asr r0
  20:	84080e42 	strhi	r0, [r8], #-3650	; 0xfffff1be
  24:	42018e02 	andmi	r8, r1, #2, 28
  28:	0e62180e 	cdpeq	8, 6, cr1, cr2, cr14, {0}
  2c:	00000008 	andeq	r0, r0, r8
  30:	0000001c 	andeq	r0, r0, ip, lsl r0
  34:	00000000 	andeq	r0, r0, r0
  38:	00008094 	muleq	r0, r4, r0
  3c:	000000a4 	andeq	r0, r0, r4, lsr #1
  40:	84080e42 	strhi	r0, [r8], #-3650	; 0xfffff1be
  44:	42018e02 	andmi	r8, r1, #2, 28
  48:	0a64100e 	beq	1904088 <__bss_end__+0x18f9260>
  4c:	0b42080e 	bleq	108208c <__bss_end__+0x1077264>
  50:	0000000c 	andeq	r0, r0, ip
  54:	ffffffff 			; <UNDEFINED> instruction: 0xffffffff
  58:	7c020001 	stcvc	0, cr0, [r2], {1}
  5c:	000d0c0e 	andeq	r0, sp, lr, lsl #24
  60:	0000000c 	andeq	r0, r0, ip
  64:	00000050 	andeq	r0, r0, r0, asr r0
  68:	00008138 	andeq	r8, r0, r8, lsr r1
  6c:	00000010 	andeq	r0, r0, r0, lsl r0
  70:	0000000c 	andeq	r0, r0, ip
  74:	00000050 	andeq	r0, r0, r0, asr r0
  78:	00008148 	andeq	r8, r0, r8, asr #2
  7c:	0000000c 	andeq	r0, r0, ip
  80:	0000000c 	andeq	r0, r0, ip
  84:	00000050 	andeq	r0, r0, r0, asr r0
  88:	00008154 	andeq	r8, r0, r4, asr r1
  8c:	00000008 	andeq	r0, r0, r8
  90:	0000000c 	andeq	r0, r0, ip
  94:	00000050 	andeq	r0, r0, r0, asr r0
  98:	0000815c 	andeq	r8, r0, ip, asr r1
  9c:	00000010 	andeq	r0, r0, r0, lsl r0
  a0:	0000000c 	andeq	r0, r0, ip
  a4:	00000050 	andeq	r0, r0, r0, asr r0
  a8:	0000816c 	andeq	r8, r0, ip, ror #2
  ac:	00000024 	andeq	r0, r0, r4, lsr #32
  b0:	00000018 	andeq	r0, r0, r8, lsl r0
  b4:	00000050 	andeq	r0, r0, r0, asr r0
  b8:	00008190 	muleq	r0, r0, r1
  bc:	0000005c 	andeq	r0, r0, ip, asr r0
  c0:	84100e42 	ldrhi	r0, [r0], #-3650	; 0xfffff1be
  c4:	86038504 	strhi	r8, [r3], -r4, lsl #10
  c8:	00018e02 	andeq	r8, r1, r2, lsl #28
  cc:	00000028 	andeq	r0, r0, r8, lsr #32
  d0:	00000050 	andeq	r0, r0, r0, asr r0
  d4:	000081ec 	andeq	r8, r0, ip, ror #3
  d8:	0000014c 	andeq	r0, r0, ip, asr #2
  dc:	84180e42 	ldrhi	r0, [r8], #-3650	; 0xfffff1be
  e0:	86058506 	strhi	r8, [r5], -r6, lsl #10
  e4:	88038704 	stmdahi	r3, {r2, r8, r9, sl, pc}
  e8:	42018e02 	andmi	r8, r1, #2, 28
  ec:	6c02300e 	stcvs	0, cr3, [r2], {14}
  f0:	42180e0a 	andsmi	r0, r8, #160	; 0xa0
  f4:	0000000b 	andeq	r0, r0, fp
  f8:	00000020 	andeq	r0, r0, r0, lsr #32
  fc:	00000050 	andeq	r0, r0, r0, asr r0
 100:	00008338 	andeq	r8, r0, r8, lsr r3
 104:	00000094 	muleq	r0, r4, r0
 108:	84100e42 	ldrhi	r0, [r0], #-3650	; 0xfffff1be
 10c:	86038504 	strhi	r8, [r3], -r4, lsl #10
 110:	42018e02 	andmi	r8, r1, #2, 28
 114:	0e7e200e 	cdpeq	0, 7, cr2, cr14, cr14, {0}
 118:	00000010 	andeq	r0, r0, r0, lsl r0
 11c:	0000000c 	andeq	r0, r0, ip
 120:	ffffffff 			; <UNDEFINED> instruction: 0xffffffff
 124:	7c020001 	stcvc	0, cr0, [r2], {1}
 128:	000d0c0e 	andeq	r0, sp, lr, lsl #24
 12c:	00000014 	andeq	r0, r0, r4, lsl r0
 130:	0000011c 	andeq	r0, r0, ip, lsl r1
 134:	000083cc 	andeq	r8, r0, ip, asr #7
 138:	000000a4 	andeq	r0, r0, r4, lsr #1
 13c:	8e040e42 	cdphi	14, 0, cr0, cr4, cr2, {2}
 140:	00000001 	andeq	r0, r0, r1
 144:	0000001c 	andeq	r0, r0, ip, lsl r0
 148:	0000011c 	andeq	r0, r0, ip, lsl r1
 14c:	00008470 	andeq	r8, r0, r0, ror r4
 150:	000000ec 	andeq	r0, r0, ip, ror #1
 154:	84180e42 	ldrhi	r0, [r8], #-3650	; 0xfffff1be
 158:	86058506 	strhi	r8, [r5], -r6, lsl #10
 15c:	88038704 	stmdahi	r3, {r2, r8, r9, sl, pc}
 160:	00018e02 	andeq	r8, r1, r2, lsl #28
 164:	0000000c 	andeq	r0, r0, ip
 168:	ffffffff 			; <UNDEFINED> instruction: 0xffffffff
 16c:	7c020001 	stcvc	0, cr0, [r2], {1}
 170:	000d0c0e 	andeq	r0, sp, lr, lsl #24
 174:	00000028 	andeq	r0, r0, r8, lsr #32
 178:	00000164 	andeq	r0, r0, r4, ror #2
 17c:	0000855c 	andeq	r8, r0, ip, asr r5
 180:	0000018c 	andeq	r0, r0, ip, lsl #3
 184:	84240e42 	strthi	r0, [r4], #-3650	; 0xfffff1be
 188:	86088509 	strhi	r8, [r8], -r9, lsl #10
 18c:	88068707 	stmdahi	r6, {r0, r1, r2, r8, r9, sl, pc}
 190:	8a048905 	bhi	1225ac <__bss_end__+0x117784>
 194:	8e028b03 	vmlahi.f64	d8, d2, d3
 198:	300e4201 	andcc	r4, lr, r1, lsl #4
 19c:	240eac02 	strcs	sl, [lr], #-3074	; 0xfffff3fe
 1a0:	0000001c 	andeq	r0, r0, ip, lsl r0
 1a4:	00000164 	andeq	r0, r0, r4, ror #2
 1a8:	000086e8 	andeq	r8, r0, r8, ror #13
 1ac:	000000a8 	andeq	r0, r0, r8, lsr #1
 1b0:	84080e42 	strhi	r0, [r8], #-3650	; 0xfffff1be
 1b4:	42018e02 	andmi	r8, r1, #2, 28
 1b8:	4402480e 	strmi	r4, [r2], #-2062	; 0xfffff7f2
 1bc:	0000080e 	andeq	r0, r0, lr, lsl #16
 1c0:	00000020 	andeq	r0, r0, r0, lsr #32
 1c4:	00000164 	andeq	r0, r0, r4, ror #2
 1c8:	00008790 	muleq	r0, r0, r7
 1cc:	00000110 	andeq	r0, r0, r0, lsl r1
 1d0:	84200e42 	strthi	r0, [r0], #-3650	; 0xfffff1be
 1d4:	86078508 	strhi	r8, [r7], -r8, lsl #10
 1d8:	88058706 	stmdahi	r5, {r1, r2, r8, r9, sl, pc}
 1dc:	8a038904 	bhi	e25f4 <__bss_end__+0xd77cc>
 1e0:	00018e02 	andeq	r8, r1, r2, lsl #28
 1e4:	00000020 	andeq	r0, r0, r0, lsr #32
 1e8:	00000164 	andeq	r0, r0, r4, ror #2
 1ec:	000088a0 	andeq	r8, r0, r0, lsr #17
 1f0:	000000a4 	andeq	r0, r0, r4, lsr #1
 1f4:	840c0e42 	strhi	r0, [ip], #-3650	; 0xfffff1be
 1f8:	8e028503 	cfsh32hi	mvfx8, mvfx2, #3
 1fc:	180e4201 	stmdane	lr, {r0, r9, lr}
 200:	0c0e0a64 			; <UNDEFINED> instruction: 0x0c0e0a64
 204:	00000b42 	andeq	r0, r0, r2, asr #22
 208:	00000014 	andeq	r0, r0, r4, lsl r0
 20c:	00000164 	andeq	r0, r0, r4, ror #2
 210:	00008944 	andeq	r8, r0, r4, asr #18
 214:	0000000c 	andeq	r0, r0, ip
 218:	84080e42 	strhi	r0, [r8], #-3650	; 0xfffff1be
 21c:	00018e02 	andeq	r8, r1, r2, lsl #28
 220:	00000014 	andeq	r0, r0, r4, lsl r0
 224:	00000164 	andeq	r0, r0, r4, ror #2
 228:	00008950 	andeq	r8, r0, r0, asr r9
 22c:	00000048 	andeq	r0, r0, r8, asr #32
 230:	84080e42 	strhi	r0, [r8], #-3650	; 0xfffff1be
 234:	00018e02 	andeq	r8, r1, r2, lsl #28
 238:	00000014 	andeq	r0, r0, r4, lsl r0
 23c:	00000164 	andeq	r0, r0, r4, ror #2
 240:	00008998 	muleq	r0, r8, r9
 244:	00000050 	andeq	r0, r0, r0, asr r0
 248:	84080e42 	strhi	r0, [r8], #-3650	; 0xfffff1be
 24c:	00018e02 	andeq	r8, r1, r2, lsl #28
 250:	00000028 	andeq	r0, r0, r8, lsr #32
 254:	00000164 	andeq	r0, r0, r4, ror #2
 258:	000089e8 	andeq	r8, r0, r8, ror #19
 25c:	000000ec 	andeq	r0, r0, ip, ror #1
 260:	84240e42 	strthi	r0, [r4], #-3650	; 0xfffff1be
 264:	86088509 	strhi	r8, [r8], -r9, lsl #10
 268:	88068707 	stmdahi	r6, {r0, r1, r2, r8, r9, sl, pc}
 26c:	8a048905 	bhi	122688 <__bss_end__+0x117860>
 270:	8e028b03 	vmlahi.f64	d8, d2, d3
 274:	380e4201 	stmdacc	lr, {r0, r9, lr}
 278:	240e6202 	strcs	r6, [lr], #-514	; 0xfffffdfe
 27c:	00000014 	andeq	r0, r0, r4, lsl r0
 280:	00000164 	andeq	r0, r0, r4, ror #2
 284:	00008ad4 	ldrdeq	r8, [r0], -r4
 288:	0000002c 	andeq	r0, r0, ip, lsr #32
 28c:	84080e42 	strhi	r0, [r8], #-3650	; 0xfffff1be
 290:	00018e02 	andeq	r8, r1, r2, lsl #28
 294:	0000000c 	andeq	r0, r0, ip
 298:	ffffffff 			; <UNDEFINED> instruction: 0xffffffff
 29c:	7c020001 	stcvc	0, cr0, [r2], {1}
 2a0:	000d0c0e 	andeq	r0, sp, lr, lsl #24
 2a4:	00000014 	andeq	r0, r0, r4, lsl r0
 2a8:	00000294 	muleq	r0, r4, r2
 2ac:	00008b08 	andeq	r8, r0, r8, lsl #22
 2b0:	00000078 	andeq	r0, r0, r8, ror r0
 2b4:	84080e42 	strhi	r0, [r8], #-3650	; 0xfffff1be
 2b8:	00018e02 	andeq	r8, r1, r2, lsl #28
 2bc:	0000000c 	andeq	r0, r0, ip
 2c0:	ffffffff 			; <UNDEFINED> instruction: 0xffffffff
 2c4:	7c020001 	stcvc	0, cr0, [r2], {1}
 2c8:	000d0c0e 	andeq	r0, sp, lr, lsl #24
 2cc:	00000034 	andeq	r0, r0, r4, lsr r0
 2d0:	000002bc 			; <UNDEFINED> instruction: 0x000002bc
 2d4:	00008b80 	andeq	r8, r0, r0, lsl #23
 2d8:	00000058 	andeq	r0, r0, r8, asr r0
 2dc:	80100e42 	andshi	r0, r0, r2, asr #28
 2e0:	82038104 	andhi	r8, r3, #1
 2e4:	42018302 	andmi	r8, r1, #134217728	; 0x8000000
 2e8:	07841c0e 	streq	r1, [r4, lr, lsl #24]
 2ec:	058e0685 	streq	r0, [lr, #1669]	; 0x685
 2f0:	5a280e44 	bpl	a03c08 <__bss_end__+0x9f8de0>
 2f4:	ce421c0e 	cdpgt	12, 4, cr1, cr2, cr14, {0}
 2f8:	100ec4c5 	andne	ip, lr, r5, asr #9
 2fc:	c1c2c342 	bicgt	ip, r2, r2, asr #6
 300:	00000ec0 	andeq	r0, r0, r0, asr #29
 304:	0000000c 	andeq	r0, r0, ip
 308:	ffffffff 			; <UNDEFINED> instruction: 0xffffffff
 30c:	7c020001 	stcvc	0, cr0, [r2], {1}
 310:	000d0c0e 	andeq	r0, sp, lr, lsl #24
 314:	00000018 	andeq	r0, r0, r8, lsl r0
 318:	00000304 	andeq	r0, r0, r4, lsl #6
 31c:	00008bd8 	ldrdeq	r8, [r0], -r8	; <UNPREDICTABLE>
 320:	00000038 	andeq	r0, r0, r8, lsr r0
 324:	84100e42 	ldrhi	r0, [r0], #-3650	; 0xfffff1be
 328:	86038504 	strhi	r8, [r3], -r4, lsl #10
 32c:	00018e02 	andeq	r8, r1, r2, lsl #28
 330:	0000000c 	andeq	r0, r0, ip
 334:	ffffffff 			; <UNDEFINED> instruction: 0xffffffff
 338:	7c020001 	stcvc	0, cr0, [r2], {1}
 33c:	000d0c0e 	andeq	r0, sp, lr, lsl #24
 340:	0000002c 	andeq	r0, r0, ip, lsr #32
 344:	00000330 	andeq	r0, r0, r0, lsr r3
 348:	00008c10 	andeq	r8, r0, r0, lsl ip
 34c:	00000328 	andeq	r0, r0, r8, lsr #6
 350:	84180e42 	ldrhi	r0, [r8], #-3650	; 0xfffff1be
 354:	86058506 	strhi	r8, [r5], -r6, lsl #10
 358:	88038704 	stmdahi	r3, {r2, r8, r9, sl, pc}
 35c:	46018e02 	strmi	r8, [r1], -r2, lsl #28
 360:	c002600e 	andgt	r6, r2, lr
 364:	42180e0a 	andsmi	r0, r8, #160	; 0xa0
 368:	0a8e020b 	beq	fe380b9c <__bss_end__+0xfe375d74>
 36c:	0b42180e 	bleq	10863ac <__bss_end__+0x107b584>
 370:	00000014 	andeq	r0, r0, r4, lsl r0
 374:	00000330 	andeq	r0, r0, r0, lsr r3
 378:	00008f38 	andeq	r8, r0, r8, lsr pc
 37c:	00000060 	andeq	r0, r0, r0, rrx
 380:	8e040e52 	mcrhi	14, 0, r0, cr4, cr2, {2}
 384:	100e4401 	andne	r4, lr, r1, lsl #8
 388:	0000002c 	andeq	r0, r0, ip, lsr #32
 38c:	00000330 	andeq	r0, r0, r0, lsr r3
 390:	00008f98 	muleq	r0, r8, pc	; <UNPREDICTABLE>
 394:	0000062c 	andeq	r0, r0, ip, lsr #12
 398:	84240e42 	strthi	r0, [r4], #-3650	; 0xfffff1be
 39c:	86088509 	strhi	r8, [r8], -r9, lsl #10
 3a0:	88068707 	stmdahi	r6, {r0, r1, r2, r8, r9, sl, pc}
 3a4:	8a048905 	bhi	1227c0 <__bss_end__+0x117998>
 3a8:	8e028b03 	vmlahi.f64	d8, d2, d3
 3ac:	c00e5201 	andgt	r5, lr, r1, lsl #4
 3b0:	0a860202 	beq	fe180bc0 <__bss_end__+0xfe175d98>
 3b4:	0b42240e 	bleq	10893f4 <__bss_end__+0x107e5cc>
 3b8:	0000000c 	andeq	r0, r0, ip
 3bc:	ffffffff 			; <UNDEFINED> instruction: 0xffffffff
 3c0:	7c020001 	stcvc	0, cr0, [r2], {1}
 3c4:	000d0c0e 	andeq	r0, sp, lr, lsl #24
 3c8:	00000014 	andeq	r0, r0, r4, lsl r0
 3cc:	000003b8 			; <UNDEFINED> instruction: 0x000003b8
 3d0:	000095c4 	andeq	r9, r0, r4, asr #11
 3d4:	0000002c 	andeq	r0, r0, ip, lsr #32
 3d8:	84080e44 	strhi	r0, [r8], #-3652	; 0xfffff1bc
 3dc:	00018e02 	andeq	r8, r1, r2, lsl #28
 3e0:	0000000c 	andeq	r0, r0, ip
 3e4:	ffffffff 			; <UNDEFINED> instruction: 0xffffffff
 3e8:	7c020001 	stcvc	0, cr0, [r2], {1}
 3ec:	000d0c0e 	andeq	r0, sp, lr, lsl #24
 3f0:	00000018 	andeq	r0, r0, r8, lsl r0
 3f4:	000003e0 	andeq	r0, r0, r0, ror #7
 3f8:	000095f0 	strdeq	r9, [r0], -r0
 3fc:	000000f8 	strdeq	r0, [r0], -r8
 400:	84100e42 	ldrhi	r0, [r0], #-3650	; 0xfffff1be
 404:	86038504 	strhi	r8, [r3], -r4, lsl #10
 408:	00018e02 	andeq	r8, r1, r2, lsl #28
 40c:	0000000c 	andeq	r0, r0, ip
 410:	ffffffff 			; <UNDEFINED> instruction: 0xffffffff
 414:	7c020001 	stcvc	0, cr0, [r2], {1}
 418:	000d0c0e 	andeq	r0, sp, lr, lsl #24
 41c:	0000000c 	andeq	r0, r0, ip
 420:	0000040c 	andeq	r0, r0, ip, lsl #8
 424:	000096e8 	andeq	r9, r0, r8, ror #13
 428:	00000004 	andeq	r0, r0, r4
 42c:	0000000c 	andeq	r0, r0, ip
 430:	ffffffff 			; <UNDEFINED> instruction: 0xffffffff
 434:	7c020001 	stcvc	0, cr0, [r2], {1}
 438:	000d0c0e 	andeq	r0, sp, lr, lsl #24
 43c:	0000000c 	andeq	r0, r0, ip
 440:	0000042c 	andeq	r0, r0, ip, lsr #8
 444:	000096ec 	andeq	r9, r0, ip, ror #13
 448:	00000018 	andeq	r0, r0, r8, lsl r0
 44c:	0000000c 	andeq	r0, r0, ip
 450:	0000042c 	andeq	r0, r0, ip, lsr #8
 454:	00009704 	andeq	r9, r0, r4, lsl #14
 458:	00000014 	andeq	r0, r0, r4, lsl r0
 45c:	00000014 	andeq	r0, r0, r4, lsl r0
 460:	0000042c 	andeq	r0, r0, ip, lsr #8
 464:	00009718 	andeq	r9, r0, r8, lsl r7
 468:	00000060 	andeq	r0, r0, r0, rrx
 46c:	84080e42 	strhi	r0, [r8], #-3650	; 0xfffff1be
 470:	00018e02 	andeq	r8, r1, r2, lsl #28
 474:	0000000c 	andeq	r0, r0, ip
 478:	ffffffff 			; <UNDEFINED> instruction: 0xffffffff
 47c:	7c020001 	stcvc	0, cr0, [r2], {1}
 480:	000d0c0e 	andeq	r0, sp, lr, lsl #24
 484:	0000000c 	andeq	r0, r0, ip
 488:	00000474 	andeq	r0, r0, r4, ror r4
 48c:	00009778 	andeq	r9, r0, r8, ror r7
 490:	0000000c 	andeq	r0, r0, ip
 494:	00000014 	andeq	r0, r0, r4, lsl r0
 498:	00000474 	andeq	r0, r0, r4, ror r4
 49c:	00009784 	andeq	r9, r0, r4, lsl #15
 4a0:	00000024 	andeq	r0, r0, r4, lsr #32
 4a4:	84080e42 	strhi	r0, [r8], #-3650	; 0xfffff1be
 4a8:	00018e02 	andeq	r8, r1, r2, lsl #28
 4ac:	0000001c 	andeq	r0, r0, ip, lsl r0
 4b0:	00000474 	andeq	r0, r0, r4, ror r4
 4b4:	000097a8 	andeq	r9, r0, r8, lsr #15
 4b8:	00000048 	andeq	r0, r0, r8, asr #32
 4bc:	84180e42 	ldrhi	r0, [r8], #-3650	; 0xfffff1be
 4c0:	86058506 	strhi	r8, [r5], -r6, lsl #10
 4c4:	88038704 	stmdahi	r3, {r2, r8, r9, sl, pc}
 4c8:	00018e02 	andeq	r8, r1, r2, lsl #28
 4cc:	0000001c 	andeq	r0, r0, ip, lsl r0
 4d0:	00000474 	andeq	r0, r0, r4, ror r4
 4d4:	000097f0 	strdeq	r9, [r0], -r0
 4d8:	00000050 	andeq	r0, r0, r0, asr r0
 4dc:	84180e42 	ldrhi	r0, [r8], #-3650	; 0xfffff1be
 4e0:	86058506 	strhi	r8, [r5], -r6, lsl #10
 4e4:	88038704 	stmdahi	r3, {r2, r8, r9, sl, pc}
 4e8:	00018e02 	andeq	r8, r1, r2, lsl #28
 4ec:	0000001c 	andeq	r0, r0, ip, lsl r0
 4f0:	00000474 	andeq	r0, r0, r4, ror r4
 4f4:	00009840 	andeq	r9, r0, r0, asr #16
 4f8:	00000054 	andeq	r0, r0, r4, asr r0
 4fc:	84180e42 	ldrhi	r0, [r8], #-3650	; 0xfffff1be
 500:	86058506 	strhi	r8, [r5], -r6, lsl #10
 504:	88038704 	stmdahi	r3, {r2, r8, r9, sl, pc}
 508:	00018e02 	andeq	r8, r1, r2, lsl #28
 50c:	0000000c 	andeq	r0, r0, ip
 510:	ffffffff 			; <UNDEFINED> instruction: 0xffffffff
 514:	7c020001 	stcvc	0, cr0, [r2], {1}
 518:	000d0c0e 	andeq	r0, sp, lr, lsl #24
 51c:	00000018 	andeq	r0, r0, r8, lsl r0
 520:	0000050c 	andeq	r0, r0, ip, lsl #10
 524:	00009894 	muleq	r0, r4, r8
 528:	00000020 	andeq	r0, r0, r0, lsr #32
 52c:	84100e42 	ldrhi	r0, [r0], #-3650	; 0xfffff1be
 530:	86038504 	strhi	r8, [r3], -r4, lsl #10
 534:	00018e02 	andeq	r8, r1, r2, lsl #28
 538:	00000018 	andeq	r0, r0, r8, lsl r0
 53c:	0000050c 	andeq	r0, r0, ip, lsl #10
 540:	000098b4 			; <UNDEFINED> instruction: 0x000098b4
 544:	00000020 	andeq	r0, r0, r0, lsr #32
 548:	84100e42 	ldrhi	r0, [r0], #-3650	; 0xfffff1be
 54c:	86038504 	strhi	r8, [r3], -r4, lsl #10
 550:	00018e02 	andeq	r8, r1, r2, lsl #28
 554:	00000014 	andeq	r0, r0, r4, lsl r0
 558:	0000050c 	andeq	r0, r0, ip, lsl #10
 55c:	000098d4 	ldrdeq	r9, [r0], -r4
 560:	000000b0 	strheq	r0, [r0], -r0	; <UNPREDICTABLE>
 564:	84080e42 	strhi	r0, [r8], #-3650	; 0xfffff1be
 568:	00018e02 	andeq	r8, r1, r2, lsl #28
 56c:	00000014 	andeq	r0, r0, r4, lsl r0
 570:	0000050c 	andeq	r0, r0, ip, lsl #10
 574:	00009984 	andeq	r9, r0, r4, lsl #19
 578:	00000018 	andeq	r0, r0, r8, lsl r0
 57c:	84080e42 	strhi	r0, [r8], #-3650	; 0xfffff1be
 580:	00018e02 	andeq	r8, r1, r2, lsl #28
 584:	00000014 	andeq	r0, r0, r4, lsl r0
 588:	0000050c 	andeq	r0, r0, ip, lsl #10
 58c:	0000999c 	muleq	r0, ip, r9
 590:	00000020 	andeq	r0, r0, r0, lsr #32
 594:	84080e42 	strhi	r0, [r8], #-3650	; 0xfffff1be
 598:	00018e02 	andeq	r8, r1, r2, lsl #28
 59c:	00000014 	andeq	r0, r0, r4, lsl r0
 5a0:	0000050c 	andeq	r0, r0, ip, lsl #10
 5a4:	000099bc 			; <UNDEFINED> instruction: 0x000099bc
 5a8:	00000030 	andeq	r0, r0, r0, lsr r0
 5ac:	84080e42 	strhi	r0, [r8], #-3650	; 0xfffff1be
 5b0:	00018e02 	andeq	r8, r1, r2, lsl #28
 5b4:	00000014 	andeq	r0, r0, r4, lsl r0
 5b8:	0000050c 	andeq	r0, r0, ip, lsl #10
 5bc:	000099ec 	andeq	r9, r0, ip, ror #19
 5c0:	00000030 	andeq	r0, r0, r0, lsr r0
 5c4:	84080e42 	strhi	r0, [r8], #-3650	; 0xfffff1be
 5c8:	00018e02 	andeq	r8, r1, r2, lsl #28
 5cc:	00000014 	andeq	r0, r0, r4, lsl r0
 5d0:	0000050c 	andeq	r0, r0, ip, lsl #10
 5d4:	00009a1c 	andeq	r9, r0, ip, lsl sl
 5d8:	00000010 	andeq	r0, r0, r0, lsl r0
 5dc:	84080e42 	strhi	r0, [r8], #-3650	; 0xfffff1be
 5e0:	00018e02 	andeq	r8, r1, r2, lsl #28
 5e4:	00000014 	andeq	r0, r0, r4, lsl r0
 5e8:	0000050c 	andeq	r0, r0, ip, lsl #10
 5ec:	00009a2c 	andeq	r9, r0, ip, lsr #20
 5f0:	00000020 	andeq	r0, r0, r0, lsr #32
 5f4:	84080e42 	strhi	r0, [r8], #-3650	; 0xfffff1be
 5f8:	00018e02 	andeq	r8, r1, r2, lsl #28
 5fc:	00000014 	andeq	r0, r0, r4, lsl r0
 600:	0000050c 	andeq	r0, r0, ip, lsl #10
 604:	00009a4c 	andeq	r9, r0, ip, asr #20
 608:	00000014 	andeq	r0, r0, r4, lsl r0
 60c:	84080e42 	strhi	r0, [r8], #-3650	; 0xfffff1be
 610:	00018e02 	andeq	r8, r1, r2, lsl #28
 614:	00000014 	andeq	r0, r0, r4, lsl r0
 618:	0000050c 	andeq	r0, r0, ip, lsl #10
 61c:	00009a60 	andeq	r9, r0, r0, ror #20
 620:	00000024 	andeq	r0, r0, r4, lsr #32
 624:	84080e42 	strhi	r0, [r8], #-3650	; 0xfffff1be
 628:	00018e02 	andeq	r8, r1, r2, lsl #28
 62c:	0000000c 	andeq	r0, r0, ip
 630:	ffffffff 			; <UNDEFINED> instruction: 0xffffffff
 634:	7c020001 	stcvc	0, cr0, [r2], {1}
 638:	000d0c0e 	andeq	r0, sp, lr, lsl #24
 63c:	0000000c 	andeq	r0, r0, ip
 640:	0000062c 	andeq	r0, r0, ip, lsr #12
 644:	00009a84 	andeq	r9, r0, r4, lsl #21
 648:	00000010 	andeq	r0, r0, r0, lsl r0
 64c:	0000000c 	andeq	r0, r0, ip
 650:	0000062c 	andeq	r0, r0, ip, lsr #12
 654:	00009a94 	muleq	r0, r4, sl
 658:	00000010 	andeq	r0, r0, r0, lsl r0
 65c:	0000000c 	andeq	r0, r0, ip
 660:	0000062c 	andeq	r0, r0, ip, lsr #12
 664:	00009aa4 	andeq	r9, r0, r4, lsr #21
 668:	00000010 	andeq	r0, r0, r0, lsl r0
 66c:	0000001c 	andeq	r0, r0, ip, lsl r0
 670:	0000062c 	andeq	r0, r0, ip, lsr #12
 674:	00009ab4 			; <UNDEFINED> instruction: 0x00009ab4
 678:	0000009c 	muleq	r0, ip, r0
 67c:	8e040e42 	cdphi	14, 0, cr0, cr4, cr2, {2}
 680:	100e4201 	andne	r4, lr, r1, lsl #4
 684:	040e0a58 	streq	r0, [lr], #-2648	; 0xfffff5a8
 688:	00000b42 	andeq	r0, r0, r2, asr #22
 68c:	00000014 	andeq	r0, r0, r4, lsl r0
 690:	0000062c 	andeq	r0, r0, ip, lsr #12
 694:	00009b50 	andeq	r9, r0, r0, asr fp
 698:	00000058 	andeq	r0, r0, r8, asr r0
 69c:	84080e42 	strhi	r0, [r8], #-3650	; 0xfffff1be
 6a0:	00018e02 	andeq	r8, r1, r2, lsl #28
 6a4:	0000001c 	andeq	r0, r0, ip, lsl r0
 6a8:	0000062c 	andeq	r0, r0, ip, lsr #12
 6ac:	00009ba8 	andeq	r9, r0, r8, lsr #23
 6b0:	00000098 	muleq	r0, r8, r0
 6b4:	8e040e42 	cdphi	14, 0, cr0, cr4, cr2, {2}
 6b8:	100e4201 	andne	r4, lr, r1, lsl #4
 6bc:	040e0a58 	streq	r0, [lr], #-2648	; 0xfffff5a8
 6c0:	00000b42 	andeq	r0, r0, r2, asr #22
 6c4:	00000020 	andeq	r0, r0, r0, lsr #32
 6c8:	0000062c 	andeq	r0, r0, ip, lsr #12
 6cc:	00009c40 	andeq	r9, r0, r0, asr #24
 6d0:	00000064 	andeq	r0, r0, r4, rrx
 6d4:	840c0e42 	strhi	r0, [ip], #-3650	; 0xfffff1be
 6d8:	8e028503 	cfsh32hi	mvfx8, mvfx2, #3
 6dc:	180e4201 	stmdane	lr, {r0, r9, lr}
 6e0:	0c0e0a54 			; <UNDEFINED> instruction: 0x0c0e0a54
 6e4:	00000b42 	andeq	r0, r0, r2, asr #22
 6e8:	0000001c 	andeq	r0, r0, ip, lsl r0
 6ec:	0000062c 	andeq	r0, r0, ip, lsr #12
 6f0:	00009ca4 	andeq	r9, r0, r4, lsr #25
 6f4:	00000118 	andeq	r0, r0, r8, lsl r1
 6f8:	8e040e42 	cdphi	14, 0, cr0, cr4, cr2, {2}
 6fc:	100e4201 	andne	r4, lr, r1, lsl #4
 700:	040e0a6c 	streq	r0, [lr], #-2668	; 0xfffff594
 704:	00000b42 	andeq	r0, r0, r2, asr #22
 708:	0000000c 	andeq	r0, r0, ip
 70c:	0000062c 	andeq	r0, r0, ip, lsr #12
 710:	00009dbc 			; <UNDEFINED> instruction: 0x00009dbc
 714:	00000004 	andeq	r0, r0, r4
 718:	0000000c 	andeq	r0, r0, ip
 71c:	0000062c 	andeq	r0, r0, ip, lsr #12
 720:	00009dc0 	andeq	r9, r0, r0, asr #27
 724:	00000014 	andeq	r0, r0, r4, lsl r0
 728:	00000014 	andeq	r0, r0, r4, lsl r0
 72c:	0000062c 	andeq	r0, r0, ip, lsr #12
 730:	00009dd4 	ldrdeq	r9, [r0], -r4
 734:	00000060 	andeq	r0, r0, r0, rrx
 738:	8e040e58 	mcrhi	14, 0, r0, cr4, cr8, {2}
 73c:	100e4201 	andne	r4, lr, r1, lsl #4
 740:	0000000c 	andeq	r0, r0, ip
 744:	ffffffff 			; <UNDEFINED> instruction: 0xffffffff
 748:	7c020001 	stcvc	0, cr0, [r2], {1}
 74c:	000d0c0e 	andeq	r0, sp, lr, lsl #24
 750:	00000020 	andeq	r0, r0, r0, lsr #32
 754:	00000740 	andeq	r0, r0, r0, asr #14
 758:	00009e34 	andeq	r9, r0, r4, lsr lr
 75c:	00000060 	andeq	r0, r0, r0, rrx
 760:	84100e48 	ldrhi	r0, [r0], #-3656	; 0xfffff1b8
 764:	86038504 	strhi	r8, [r3], -r4, lsl #10
 768:	64018e02 	strvs	r8, [r1], #-3586	; 0xfffff1fe
 76c:	c4c5c6ce 	strbgt	ip, [r5], #1742	; 0x6ce
 770:	0000000e 	andeq	r0, r0, lr
 774:	00000020 	andeq	r0, r0, r0, lsr #32
 778:	00000740 	andeq	r0, r0, r0, asr #14
 77c:	00009e94 	muleq	r0, r4, lr
 780:	00000058 	andeq	r0, r0, r8, asr r0
 784:	84100e46 	ldrhi	r0, [r0], #-3654	; 0xfffff1ba
 788:	86038504 	strhi	r8, [r3], -r4, lsl #10
 78c:	62018e02 	andvs	r8, r1, #2, 28
 790:	c4c5c6ce 	strbgt	ip, [r5], #1742	; 0x6ce
 794:	0000000e 	andeq	r0, r0, lr
 798:	0000000c 	andeq	r0, r0, ip
 79c:	00000740 	andeq	r0, r0, r0, asr #14
 7a0:	00009eec 	andeq	r9, r0, ip, ror #29
 7a4:	00000018 	andeq	r0, r0, r8, lsl r0
 7a8:	0000000c 	andeq	r0, r0, ip
 7ac:	00000740 	andeq	r0, r0, r0, asr #14
 7b0:	00009f04 	andeq	r9, r0, r4, lsl #30
 7b4:	00000018 	andeq	r0, r0, r8, lsl r0
 7b8:	00000020 	andeq	r0, r0, r0, lsr #32
 7bc:	00000740 	andeq	r0, r0, r0, asr #14
 7c0:	00009f1c 	andeq	r9, r0, ip, lsl pc
 7c4:	00000058 	andeq	r0, r0, r8, asr r0
 7c8:	84100e46 	ldrhi	r0, [r0], #-3654	; 0xfffff1ba
 7cc:	86038504 	strhi	r8, [r3], -r4, lsl #10
 7d0:	62018e02 	andvs	r8, r1, #2, 28
 7d4:	c4c5c6ce 	strbgt	ip, [r5], #1742	; 0x6ce
 7d8:	0000000e 	andeq	r0, r0, lr
 7dc:	0000000c 	andeq	r0, r0, ip
 7e0:	00000740 	andeq	r0, r0, r0, asr #14
 7e4:	00009f74 	andeq	r9, r0, r4, ror pc
 7e8:	00000030 	andeq	r0, r0, r0, lsr r0
 7ec:	00000014 	andeq	r0, r0, r4, lsl r0
 7f0:	00000740 	andeq	r0, r0, r0, asr #14
 7f4:	00009fa4 	andeq	r9, r0, r4, lsr #31
 7f8:	00000028 	andeq	r0, r0, r8, lsr #32
 7fc:	84080e42 	strhi	r0, [r8], #-3650	; 0xfffff1be
 800:	00018e02 	andeq	r8, r1, r2, lsl #28
 804:	0000000c 	andeq	r0, r0, ip
 808:	ffffffff 			; <UNDEFINED> instruction: 0xffffffff
 80c:	7c020001 	stcvc	0, cr0, [r2], {1}
 810:	000d0c0e 	andeq	r0, sp, lr, lsl #24
 814:	00000014 	andeq	r0, r0, r4, lsl r0
 818:	00000804 	andeq	r0, r0, r4, lsl #16
 81c:	00009fcc 	andeq	r9, r0, ip, asr #31
 820:	00000014 	andeq	r0, r0, r4, lsl r0
 824:	84080e42 	strhi	r0, [r8], #-3650	; 0xfffff1be
 828:	00018e02 	andeq	r8, r1, r2, lsl #28
 82c:	0000000c 	andeq	r0, r0, ip
 830:	00000804 	andeq	r0, r0, r4, lsl #16
 834:	00009fe0 	andeq	r9, r0, r0, ror #31
 838:	00000018 	andeq	r0, r0, r8, lsl r0
 83c:	0000000c 	andeq	r0, r0, ip
 840:	00000804 	andeq	r0, r0, r4, lsl #16
 844:	00009ff8 	strdeq	r9, [r0], -r8
 848:	00000010 	andeq	r0, r0, r0, lsl r0
 84c:	0000000c 	andeq	r0, r0, ip
 850:	ffffffff 			; <UNDEFINED> instruction: 0xffffffff
 854:	7c020001 	stcvc	0, cr0, [r2], {1}
 858:	000d0c0e 	andeq	r0, sp, lr, lsl #24
 85c:	0000000c 	andeq	r0, r0, ip
 860:	0000084c 	andeq	r0, r0, ip, asr #16
 864:	0000a008 	andeq	sl, r0, r8
 868:	0000002c 	andeq	r0, r0, ip, lsr #32
 86c:	0000000c 	andeq	r0, r0, ip
 870:	ffffffff 			; <UNDEFINED> instruction: 0xffffffff
 874:	7c020001 	stcvc	0, cr0, [r2], {1}
 878:	000d0c0e 	andeq	r0, sp, lr, lsl #24
 87c:	0000000c 	andeq	r0, r0, ip
 880:	0000086c 	andeq	r0, r0, ip, ror #16
 884:	0000a034 	andeq	sl, r0, r4, lsr r0
 888:	00000044 	andeq	r0, r0, r4, asr #32
 88c:	0000000c 	andeq	r0, r0, ip
 890:	ffffffff 			; <UNDEFINED> instruction: 0xffffffff
 894:	7c020001 	stcvc	0, cr0, [r2], {1}
 898:	000d0c0e 	andeq	r0, sp, lr, lsl #24
 89c:	0000000c 	andeq	r0, r0, ip
 8a0:	0000088c 	andeq	r0, r0, ip, lsl #17
 8a4:	0000a078 	andeq	sl, r0, r8, ror r0
 8a8:	00000018 	andeq	r0, r0, r8, lsl r0
 8ac:	0000000c 	andeq	r0, r0, ip
 8b0:	ffffffff 			; <UNDEFINED> instruction: 0xffffffff
 8b4:	7c020001 	stcvc	0, cr0, [r2], {1}
 8b8:	000d0c0e 	andeq	r0, sp, lr, lsl #24
 8bc:	0000000c 	andeq	r0, r0, ip
 8c0:	000008ac 	andeq	r0, r0, ip, lsr #17
 8c4:	0000a090 	muleq	r0, r0, r0
 8c8:	00000030 	andeq	r0, r0, r0, lsr r0
 8cc:	0000000c 	andeq	r0, r0, ip
 8d0:	ffffffff 			; <UNDEFINED> instruction: 0xffffffff
 8d4:	7c020001 	stcvc	0, cr0, [r2], {1}
 8d8:	000d0c0e 	andeq	r0, sp, lr, lsl #24
 8dc:	0000000c 	andeq	r0, r0, ip
 8e0:	000008cc 	andeq	r0, r0, ip, asr #17
 8e4:	0000a0c0 	andeq	sl, r0, r0, asr #1
 8e8:	00000004 	andeq	r0, r0, r4

Disassembly of section .debug_ranges:

00000000 <.debug_ranges>:
   0:	00000034 	andeq	r0, r0, r4, lsr r0
   4:	00000034 	andeq	r0, r0, r4, lsr r0
   8:	00000040 	andeq	r0, r0, r0, asr #32
   c:	00000044 	andeq	r0, r0, r4, asr #32
	...
  18:	00000034 	andeq	r0, r0, r4, lsr r0
  1c:	00000034 	andeq	r0, r0, r4, lsr r0
  20:	00000034 	andeq	r0, r0, r4, lsr r0
  24:	00000034 	andeq	r0, r0, r4, lsr r0
  28:	00000034 	andeq	r0, r0, r4, lsr r0
  2c:	00000040 	andeq	r0, r0, r0, asr #32
	...
  38:	0000011c 	andeq	r0, r0, ip, lsl r1
  3c:	0000013c 	andeq	r0, r0, ip, lsr r1
  40:	00000180 	andeq	r0, r0, r0, lsl #3
  44:	00000188 	andeq	r0, r0, r8, lsl #3
  48:	00000198 	muleq	r0, r8, r1
  4c:	00000200 	andeq	r0, r0, r0, lsl #4
	...
  58:	00000198 	muleq	r0, r8, r1
  5c:	0000019c 	muleq	r0, ip, r1
  60:	000001ac 	andeq	r0, r0, ip, lsr #3
  64:	000001b0 			; <UNDEFINED> instruction: 0x000001b0
  68:	000001b0 			; <UNDEFINED> instruction: 0x000001b0
  6c:	000001b8 			; <UNDEFINED> instruction: 0x000001b8
	...
  78:	000000d8 	ldrdeq	r0, [r0], -r8
  7c:	000000e4 	andeq	r0, r0, r4, ror #1
  80:	0000012c 	andeq	r0, r0, ip, lsr #2
  84:	0000013c 	andeq	r0, r0, ip, lsr r1
  88:	00000164 	andeq	r0, r0, r4, ror #2
  8c:	00000180 	andeq	r0, r0, r0, lsl #3
	...
  98:	00000034 	andeq	r0, r0, r4, lsr r0
  9c:	00000040 	andeq	r0, r0, r0, asr #32
  a0:	000000a0 	andeq	r0, r0, r0, lsr #1
  a4:	0000015c 	andeq	r0, r0, ip, asr r1
	...
  b0:	00000034 	andeq	r0, r0, r4, lsr r0
  b4:	00000040 	andeq	r0, r0, r0, asr #32
  b8:	000000a0 	andeq	r0, r0, r0, lsr #1
  bc:	000000a8 	andeq	r0, r0, r8, lsr #1
  c0:	000000b4 	strheq	r0, [r0], -r4
  c4:	0000015c 	andeq	r0, r0, ip, asr r1
	...
  d0:	00000034 	andeq	r0, r0, r4, lsr r0
  d4:	00000038 	andeq	r0, r0, r8, lsr r0
  d8:	000000b8 	strheq	r0, [r0], -r8
  dc:	000000d8 	ldrdeq	r0, [r0], -r8
	...
  e8:	00000034 	andeq	r0, r0, r4, lsr r0
  ec:	00000038 	andeq	r0, r0, r8, lsr r0
  f0:	000000bc 	strheq	r0, [r0], -ip
  f4:	000000d4 	ldrdeq	r0, [r0], -r4
	...
 100:	00000038 	andeq	r0, r0, r8, lsr r0
 104:	00000040 	andeq	r0, r0, r0, asr #32
 108:	000000a0 	andeq	r0, r0, r0, lsr #1
 10c:	000000a8 	andeq	r0, r0, r8, lsr #1
 110:	000000e0 	andeq	r0, r0, r0, ror #1
 114:	0000015c 	andeq	r0, r0, ip, asr r1
	...
 120:	00000250 	andeq	r0, r0, r0, asr r2
 124:	0000025c 	andeq	r0, r0, ip, asr r2
 128:	00000268 	andeq	r0, r0, r8, ror #4
 12c:	000002c8 	andeq	r0, r0, r8, asr #5
	...
 138:	000004ac 	andeq	r0, r0, ip, lsr #9
 13c:	000004b8 			; <UNDEFINED> instruction: 0x000004b8
 140:	000004c4 	andeq	r0, r0, r4, asr #9
 144:	00000530 	andeq	r0, r0, r0, lsr r5
	...
 150:	000004c4 	andeq	r0, r0, r4, asr #9
 154:	000004cc 	andeq	r0, r0, ip, asr #9
 158:	000004e4 	andeq	r0, r0, r4, ror #9
 15c:	000004f4 	strdeq	r0, [r0], -r4
	...
 168:	000000a4 	andeq	r0, r0, r4, lsr #1
 16c:	00000148 	andeq	r0, r0, r8, asr #2
 170:	00000158 	andeq	r0, r0, r8, asr r1
 174:	0000015c 	andeq	r0, r0, ip, asr r1
 178:	00000274 	andeq	r0, r0, r4, ror r2
 17c:	00000278 	andeq	r0, r0, r8, ror r2
 180:	0000027c 	andeq	r0, r0, ip, ror r2
 184:	00000280 	andeq	r0, r0, r0, lsl #5
 188:	00000288 	andeq	r0, r0, r8, lsl #5
 18c:	0000029c 	muleq	r0, ip, r2
 190:	000002c0 	andeq	r0, r0, r0, asr #5
 194:	000002cc 	andeq	r0, r0, ip, asr #5
 198:	000002f0 	strdeq	r0, [r0], -r0	; <UNPREDICTABLE>
 19c:	000002f0 	strdeq	r0, [r0], -r0	; <UNPREDICTABLE>
 1a0:	000002f4 	strdeq	r0, [r0], -r4
 1a4:	000002f8 	strdeq	r0, [r0], -r8
	...
 1b0:	00000148 	andeq	r0, r0, r8, asr #2
 1b4:	00000158 	andeq	r0, r0, r8, asr r1
 1b8:	0000015c 	andeq	r0, r0, ip, asr r1
 1bc:	0000018c 	andeq	r0, r0, ip, lsl #3
 1c0:	0000029c 	muleq	r0, ip, r2
 1c4:	000002ac 	andeq	r0, r0, ip, lsr #5
	...
 1d0:	000003c8 	andeq	r0, r0, r8, asr #7
 1d4:	000003d0 	ldrdeq	r0, [r0], -r0	; <UNPREDICTABLE>
 1d8:	00000404 	andeq	r0, r0, r4, lsl #8
 1dc:	000004ac 	andeq	r0, r0, ip, lsr #9
 1e0:	000004c0 	andeq	r0, r0, r0, asr #9
 1e4:	00000920 	andeq	r0, r0, r0, lsr #18
 1e8:	00000928 	andeq	r0, r0, r8, lsr #18
 1ec:	000009b4 			; <UNDEFINED> instruction: 0x000009b4
	...
 1f8:	000003c8 	andeq	r0, r0, r8, asr #7
 1fc:	000003d0 	ldrdeq	r0, [r0], -r0	; <UNPREDICTABLE>
 200:	00000504 	andeq	r0, r0, r4, lsl #10
 204:	000005d0 	ldrdeq	r0, [r0], -r0	; <UNPREDICTABLE>
 208:	00000800 	andeq	r0, r0, r0, lsl #16
 20c:	00000888 	andeq	r0, r0, r8, lsl #17
 210:	00000930 	andeq	r0, r0, r0, lsr r9
 214:	000009b4 			; <UNDEFINED> instruction: 0x000009b4
	...
 220:	00000404 	andeq	r0, r0, r4, lsl #8
 224:	00000408 	andeq	r0, r0, r8, lsl #8
 228:	00000414 	andeq	r0, r0, r4, lsl r4
 22c:	00000414 	andeq	r0, r0, r4, lsl r4
 230:	00000428 	andeq	r0, r0, r8, lsr #8
 234:	0000042c 	andeq	r0, r0, ip, lsr #8
	...
 240:	000005fc 	strdeq	r0, [r0], -ip
 244:	00000700 	andeq	r0, r0, r0, lsl #14
 248:	000007ec 	andeq	r0, r0, ip, ror #15
 24c:	000007f4 	strdeq	r0, [r0], -r4
 250:	00000888 	andeq	r0, r0, r8, lsl #17
 254:	00000894 	muleq	r0, r4, r8
 258:	000008a8 	andeq	r0, r0, r8, lsr #17
 25c:	000008bc 			; <UNDEFINED> instruction: 0x000008bc
 260:	00000910 	andeq	r0, r0, r0, lsl r9
 264:	00000920 	andeq	r0, r0, r0, lsr #18
	...
 270:	00000600 	andeq	r0, r0, r0, lsl #12
 274:	00000604 	andeq	r0, r0, r4, lsl #12
 278:	00000608 	andeq	r0, r0, r8, lsl #12
 27c:	000006b4 			; <UNDEFINED> instruction: 0x000006b4
 280:	000006cc 	andeq	r0, r0, ip, asr #13
 284:	000006d0 	ldrdeq	r0, [r0], -r0	; <UNPREDICTABLE>
 288:	000008a8 	andeq	r0, r0, r8, lsr #17
 28c:	000008b8 			; <UNDEFINED> instruction: 0x000008b8
 290:	00000910 	andeq	r0, r0, r0, lsl r9
 294:	00000920 	andeq	r0, r0, r0, lsr #18
	...
 2a0:	000006b4 			; <UNDEFINED> instruction: 0x000006b4
 2a4:	000006cc 	andeq	r0, r0, ip, asr #13
 2a8:	000006d0 	ldrdeq	r0, [r0], -r0	; <UNPREDICTABLE>
 2ac:	00000700 	andeq	r0, r0, r0, lsl #14
 2b0:	000007ec 	andeq	r0, r0, ip, ror #15
 2b4:	000007f4 	strdeq	r0, [r0], -r4
 2b8:	00000888 	andeq	r0, r0, r8, lsl #17
 2bc:	00000894 	muleq	r0, r4, r8
 2c0:	000008b8 			; <UNDEFINED> instruction: 0x000008b8
 2c4:	000008bc 			; <UNDEFINED> instruction: 0x000008bc
	...
 2d0:	00000700 	andeq	r0, r0, r0, lsl #14
 2d4:	00000708 	andeq	r0, r0, r8, lsl #14
 2d8:	0000070c 	andeq	r0, r0, ip, lsl #14
 2dc:	000007ec 	andeq	r0, r0, ip, ror #15
 2e0:	00000894 	muleq	r0, r4, r8
 2e4:	000008a8 	andeq	r0, r0, r8, lsr #17
	...
 2f0:	00000728 	andeq	r0, r0, r8, lsr #14
 2f4:	000007a4 	andeq	r0, r0, r4, lsr #15
 2f8:	000007ac 	andeq	r0, r0, ip, lsr #15
 2fc:	000007b0 			; <UNDEFINED> instruction: 0x000007b0
 300:	00000894 	muleq	r0, r4, r8
 304:	00000898 	muleq	r0, r8, r8
 308:	0000089c 	muleq	r0, ip, r8
 30c:	000008a0 	andeq	r0, r0, r0, lsr #17
	...
 318:	000007a4 	andeq	r0, r0, r4, lsr #15
 31c:	000007ac 	andeq	r0, r0, ip, lsr #15
 320:	000007b0 			; <UNDEFINED> instruction: 0x000007b0
 324:	000007ec 	andeq	r0, r0, ip, ror #15
 328:	00000898 	muleq	r0, r8, r8
 32c:	0000089c 	muleq	r0, ip, r8
 330:	000008a0 	andeq	r0, r0, r0, lsr #17
 334:	000008a8 	andeq	r0, r0, r8, lsr #17
	...
 340:	00009718 	andeq	r9, r0, r8, lsl r7
 344:	00009718 	andeq	r9, r0, r8, lsl r7
 348:	0000971c 	andeq	r9, r0, ip, lsl r7
 34c:	00009724 	andeq	r9, r0, r4, lsr #14
	...
 358:	000096ec 	andeq	r9, r0, ip, ror #13
 35c:	00009778 	andeq	r9, r0, r8, ror r7
	...
 368:	00000030 	andeq	r0, r0, r0, lsr r0
 36c:	00000030 	andeq	r0, r0, r0, lsr r0
 370:	00000038 	andeq	r0, r0, r8, lsr r0
 374:	0000004c 	andeq	r0, r0, ip, asr #32
	...
 380:	0000004c 	andeq	r0, r0, ip, asr #32
 384:	00000050 	andeq	r0, r0, r0, asr r0
 388:	00000050 	andeq	r0, r0, r0, asr r0
 38c:	00000078 	andeq	r0, r0, r8, ror r0
	...
 398:	0000004c 	andeq	r0, r0, ip, asr #32
 39c:	00000050 	andeq	r0, r0, r0, asr r0
 3a0:	00000050 	andeq	r0, r0, r0, asr r0
 3a4:	00000060 	andeq	r0, r0, r0, rrx
 3a8:	00000064 	andeq	r0, r0, r4, rrx
 3ac:	00000068 	andeq	r0, r0, r8, rrx
	...
 3b8:	0000004c 	andeq	r0, r0, ip, asr #32
 3bc:	00000050 	andeq	r0, r0, r0, asr r0
 3c0:	00000054 	andeq	r0, r0, r4, asr r0
 3c4:	00000060 	andeq	r0, r0, r0, rrx
	...
 3d0:	0000009c 	muleq	r0, ip, r0
 3d4:	000000a0 	andeq	r0, r0, r0, lsr #1
 3d8:	000000a0 	andeq	r0, r0, r0, lsr #1
 3dc:	000000c8 	andeq	r0, r0, r8, asr #1
	...
 3e8:	0000009c 	muleq	r0, ip, r0
 3ec:	000000a0 	andeq	r0, r0, r0, lsr #1
 3f0:	000000a0 	andeq	r0, r0, r0, lsr #1
 3f4:	000000b0 	strheq	r0, [r0], -r0	; <UNPREDICTABLE>
 3f8:	000000b4 	strheq	r0, [r0], -r4
 3fc:	000000b8 	strheq	r0, [r0], -r8
	...
 408:	0000009c 	muleq	r0, ip, r0
 40c:	000000a0 	andeq	r0, r0, r0, lsr #1
 410:	000000a4 	andeq	r0, r0, r4, lsr #1
 414:	000000b0 	strheq	r0, [r0], -r0	; <UNPREDICTABLE>
	...
 420:	000000c8 	andeq	r0, r0, r8, asr #1
 424:	000000c8 	andeq	r0, r0, r8, asr #1
 428:	000000cc 	andeq	r0, r0, ip, asr #1
 42c:	0000011c 	andeq	r0, r0, ip, lsl r1
	...
 438:	000000f0 	strdeq	r0, [r0], -r0	; <UNPREDICTABLE>
 43c:	000000f4 	strdeq	r0, [r0], -r4
 440:	000000f4 	strdeq	r0, [r0], -r4
 444:	0000011c 	andeq	r0, r0, ip, lsl r1
	...
 450:	000000f0 	strdeq	r0, [r0], -r0	; <UNPREDICTABLE>
 454:	000000f4 	strdeq	r0, [r0], -r4
 458:	000000f4 	strdeq	r0, [r0], -r4
 45c:	00000104 	andeq	r0, r0, r4, lsl #2
 460:	00000108 	andeq	r0, r0, r8, lsl #2
 464:	0000010c 	andeq	r0, r0, ip, lsl #2
	...
 470:	000000f0 	strdeq	r0, [r0], -r0	; <UNPREDICTABLE>
 474:	000000f4 	strdeq	r0, [r0], -r4
 478:	000000f8 	strdeq	r0, [r0], -r8
 47c:	00000104 	andeq	r0, r0, r4, lsl #2
	...
 488:	00000134 	andeq	r0, r0, r4, lsr r1
 48c:	00000134 	andeq	r0, r0, r4, lsr r1
 490:	00000134 	andeq	r0, r0, r4, lsr r1
 494:	0000013c 	andeq	r0, r0, ip, lsr r1
	...
 4a0:	0000024c 	andeq	r0, r0, ip, asr #4
 4a4:	00000264 	andeq	r0, r0, r4, ror #4
 4a8:	000002c8 	andeq	r0, r0, r8, asr #5
 4ac:	000002e8 	andeq	r0, r0, r8, ror #5
	...
 4b8:	00000008 	andeq	r0, r0, r8
 4bc:	0000000c 	andeq	r0, r0, ip
 4c0:	00000014 	andeq	r0, r0, r4, lsl r0
 4c4:	00000054 	andeq	r0, r0, r4, asr r0
 4c8:	00000058 	andeq	r0, r0, r8, asr r0
 4cc:	00000060 	andeq	r0, r0, r0, rrx
	...
 4d8:	00000060 	andeq	r0, r0, r0, rrx
 4dc:	00000068 	andeq	r0, r0, r8, rrx
 4e0:	0000006c 	andeq	r0, r0, ip, rrx
 4e4:	000000ac 	andeq	r0, r0, ip, lsr #1
 4e8:	000000b0 	strheq	r0, [r0], -r0	; <UNPREDICTABLE>
 4ec:	000000b8 	strheq	r0, [r0], -r8
	...
 4f8:	00000068 	andeq	r0, r0, r8, rrx
 4fc:	00000068 	andeq	r0, r0, r8, rrx
 500:	0000006c 	andeq	r0, r0, ip, rrx
 504:	000000ac 	andeq	r0, r0, ip, lsr #1
 508:	000000b0 	strheq	r0, [r0], -r0	; <UNPREDICTABLE>
 50c:	000000b8 	strheq	r0, [r0], -r8
	...
 518:	000000e8 	andeq	r0, r0, r8, ror #1
 51c:	000000f0 	strdeq	r0, [r0], -r0	; <UNPREDICTABLE>
 520:	000000f4 	strdeq	r0, [r0], -r4
 524:	00000134 	andeq	r0, r0, r4, lsr r1
 528:	00000138 	andeq	r0, r0, r8, lsr r1
 52c:	00000140 	andeq	r0, r0, r0, asr #2
	...
 538:	000000f0 	strdeq	r0, [r0], -r0	; <UNPREDICTABLE>
 53c:	000000f0 	strdeq	r0, [r0], -r0	; <UNPREDICTABLE>
 540:	000000f4 	strdeq	r0, [r0], -r4
 544:	00000134 	andeq	r0, r0, r4, lsr r1
 548:	00000138 	andeq	r0, r0, r8, lsr r1
 54c:	00000140 	andeq	r0, r0, r0, asr #2
	...
 558:	00000144 	andeq	r0, r0, r4, asr #2
 55c:	00000148 	andeq	r0, r0, r8, asr #2
 560:	00000150 	andeq	r0, r0, r0, asr r1
 564:	0000015c 	andeq	r0, r0, ip, asr r1
	...
