
tests-2.0/part2-test6-no-leak.elf:     file format elf32-littlearm


Disassembly of section .text:

00008000 <__code_start__>:
    8000:	e3a00013 	mov	r0, #19, 0
    8004:	e3800080 	orr	r0, r0, #128, 0	; 0x80
    8008:	e129f000 	msr	CPSR_fc, r0
    800c:	e3a01000 	mov	r1, #0, 0
    8010:	ee071f95 	mcr	15, 0, r1, cr7, cr5, {4}
    8014:	e3a0d302 	mov	sp, #134217728	; 0x8000000
    8018:	e3a0b000 	mov	fp, #0, 0
    801c:	eb00059f 	bl	96a0 <_cstart>
    8020:	eb0005e8 	bl	97c8 <rpi_reboot>

00008024 <PUT32>:
    8024:	e5801000 	str	r1, [r0]
    8028:	e12fff1e 	bx	lr

0000802c <GET32>:
    802c:	e5900000 	ldr	r0, [r0]
    8030:	e12fff1e 	bx	lr

00008034 <BRANCHTO>:
    8034:	e12fff10 	bx	r0

00008038 <ck_blk_id>:
    8038:	e510009c 	ldr	r0, [r0, #-156]	; 0xffffff64
    803c:	e12fff1e 	bx	lr

00008040 <test1>:
    8040:	e92d4010 	push	{r4, lr}
    8044:	e24dd010 	sub	sp, sp, #16, 0
    8048:	e59f3044 	ldr	r3, [pc, #68]	; 8094 <test1+0x54>
    804c:	e58d3004 	str	r3, [sp, #4]
    8050:	e59f3040 	ldr	r3, [pc, #64]	; 8098 <test1+0x58>
    8054:	e58d3008 	str	r3, [sp, #8]
    8058:	e3a0300c 	mov	r3, #12, 0
    805c:	e58d300c 	str	r3, [sp, #12]
    8060:	e28d3010 	add	r3, sp, #16, 0
    8064:	e913000e 	ldmdb	r3, {r1, r2, r3}
    8068:	e3a00004 	mov	r0, #4, 0
    806c:	eb0000ca 	bl	839c <ckalloc>
    8070:	e1a04000 	mov	r4, r0
    8074:	ebffffef 	bl	8038 <ck_blk_id>
    8078:	e1a01000 	mov	r1, r0
    807c:	e1a02004 	mov	r2, r4
    8080:	e59f0014 	ldr	r0, [pc, #20]	; 809c <test1+0x5c>
    8084:	eb0002e9 	bl	8c30 <printk>
    8088:	e2840001 	add	r0, r4, #1, 0
    808c:	e28dd010 	add	sp, sp, #16, 0
    8090:	e8bd8010 	pop	{r4, pc}
    8094:	0000a190 	muleq	r0, r0, r1
    8098:	0000a290 	muleq	r0, r0, r2
    809c:	0000a1b0 			; <UNDEFINED> instruction: 0x0000a1b0

000080a0 <notmain>:
    80a0:	e92d4010 	push	{r4, lr}
    80a4:	e24dd008 	sub	sp, sp, #8, 0
    80a8:	e59f0078 	ldr	r0, [pc, #120]	; 8128 <notmain+0x88>
    80ac:	eb0002df 	bl	8c30 <printk>
    80b0:	ebffffe2 	bl	8040 <test1>
    80b4:	e1a04000 	mov	r4, r0
    80b8:	e1a01000 	mov	r1, r0
    80bc:	e59f0068 	ldr	r0, [pc, #104]	; 812c <notmain+0x8c>
    80c0:	eb0002da 	bl	8c30 <printk>
    80c4:	e3a00000 	mov	r0, #0, 0
    80c8:	eb000280 	bl	8ad0 <ck_find_leaks>
    80cc:	e3500000 	cmp	r0, #0, 0
    80d0:	1a000007 	bne	80f4 <notmain+0x54>
    80d4:	e3a00001 	mov	r0, #1, 0
    80d8:	eb00027c 	bl	8ad0 <ck_find_leaks>
    80dc:	e3500000 	cmp	r0, #0, 0
    80e0:	0a000009 	beq	810c <notmain+0x6c>
    80e4:	e59f0044 	ldr	r0, [pc, #68]	; 8130 <notmain+0x90>
    80e8:	eb0002d0 	bl	8c30 <printk>
    80ec:	e28dd008 	add	sp, sp, #8, 0
    80f0:	e8bd8010 	pop	{r4, pc}
    80f4:	e3a0301b 	mov	r3, #27, 0
    80f8:	e59f2034 	ldr	r2, [pc, #52]	; 8134 <notmain+0x94>
    80fc:	e59f1034 	ldr	r1, [pc, #52]	; 8138 <notmain+0x98>
    8100:	e59f0034 	ldr	r0, [pc, #52]	; 813c <notmain+0x9c>
    8104:	eb0002c9 	bl	8c30 <printk>
    8108:	eb000559 	bl	9674 <clean_reboot>
    810c:	e58d4000 	str	r4, [sp]
    8110:	e3a03020 	mov	r3, #32, 0
    8114:	e59f2018 	ldr	r2, [pc, #24]	; 8134 <notmain+0x94>
    8118:	e59f1018 	ldr	r1, [pc, #24]	; 8138 <notmain+0x98>
    811c:	e59f001c 	ldr	r0, [pc, #28]	; 8140 <notmain+0xa0>
    8120:	eb0002c2 	bl	8c30 <printk>
    8124:	eb000552 	bl	9674 <clean_reboot>
    8128:	0000a1d8 	ldrdeq	sl, [r0], -r8
    812c:	0000a1e4 	andeq	sl, r0, r4, ror #3
    8130:	0000a230 	andeq	sl, r0, r0, lsr r2
    8134:	0000a298 	muleq	r0, r8, r2
    8138:	0000a190 	muleq	r0, r0, r1
    813c:	0000a200 	andeq	sl, r0, r0, lsl #4
    8140:	0000a258 	andeq	sl, r0, r8, asr r2

00008144 <ck_first_hdr>:
    8144:	e59f3004 	ldr	r3, [pc, #4]	; 8150 <ck_first_hdr+0xc>
    8148:	e5930000 	ldr	r0, [r3]
    814c:	e12fff1e 	bx	lr
    8150:	0000aab0 			; <UNDEFINED> instruction: 0x0000aab0

00008154 <ck_next_hdr>:
    8154:	e3500000 	cmp	r0, #0, 0
    8158:	012fff1e 	bxeq	lr
    815c:	e5900000 	ldr	r0, [r0]
    8160:	e12fff1e 	bx	lr

00008164 <list_remove>:
    8164:	e92d4030 	push	{r4, r5, lr}
    8168:	e24dd00c 	sub	sp, sp, #12, 0
    816c:	e2503000 	subs	r3, r0, #0, 0
    8170:	0a00000d 	beq	81ac <list_remove+0x48>
    8174:	e1a04001 	mov	r4, r1
    8178:	e5930000 	ldr	r0, [r3]
    817c:	e1500001 	cmp	r0, r1
    8180:	0a000011 	beq	81cc <list_remove+0x68>
    8184:	e1a05000 	mov	r5, r0
    8188:	ebfffff1 	bl	8154 <ck_next_hdr>
    818c:	e3500000 	cmp	r0, #0, 0
    8190:	0a000010 	beq	81d8 <list_remove+0x74>
    8194:	e1540000 	cmp	r4, r0
    8198:	1afffff9 	bne	8184 <list_remove+0x20>
    819c:	e5903000 	ldr	r3, [r0]
    81a0:	e5853000 	str	r3, [r5]
    81a4:	e28dd00c 	add	sp, sp, #12, 0
    81a8:	e8bd8030 	pop	{r4, r5, pc}
    81ac:	e59f3040 	ldr	r3, [pc, #64]	; 81f4 <list_remove+0x90>
    81b0:	e58d3000 	str	r3, [sp]
    81b4:	e3a0303c 	mov	r3, #60, 0	; 0x3c
    81b8:	e59f2038 	ldr	r2, [pc, #56]	; 81f8 <list_remove+0x94>
    81bc:	e59f1038 	ldr	r1, [pc, #56]	; 81fc <list_remove+0x98>
    81c0:	e59f0038 	ldr	r0, [pc, #56]	; 8200 <list_remove+0x9c>
    81c4:	eb000299 	bl	8c30 <printk>
    81c8:	eb000529 	bl	9674 <clean_reboot>
    81cc:	e5912000 	ldr	r2, [r1]
    81d0:	e5832000 	str	r2, [r3]
    81d4:	eafffff2 	b	81a4 <list_remove+0x40>
    81d8:	e58d4000 	str	r4, [sp]
    81dc:	e3a0304f 	mov	r3, #79, 0	; 0x4f
    81e0:	e59f2010 	ldr	r2, [pc, #16]	; 81f8 <list_remove+0x94>
    81e4:	e59f1010 	ldr	r1, [pc, #16]	; 81fc <list_remove+0x98>
    81e8:	e59f0014 	ldr	r0, [pc, #20]	; 8204 <list_remove+0xa0>
    81ec:	eb00028f 	bl	8c30 <printk>
    81f0:	eb00051f 	bl	9674 <clean_reboot>
    81f4:	0000a2c0 	andeq	sl, r0, r0, asr #5
    81f8:	0000a390 	muleq	r0, r0, r3
    81fc:	0000a2a0 	andeq	sl, r0, r0, lsr #5
    8200:	0000a2ac 	andeq	sl, r0, ip, lsr #5
    8204:	0000a2c4 	andeq	sl, r0, r4, asr #5

00008208 <ck_hdr_start>:
    8208:	e28000a8 	add	r0, r0, #168, 0	; 0xa8
    820c:	e12fff1e 	bx	lr

00008210 <ck_hdr_end>:
    8210:	e92d4010 	push	{r4, lr}
    8214:	e1a04000 	mov	r4, r0
    8218:	ebfffffa 	bl	8208 <ck_hdr_start>
    821c:	e5943004 	ldr	r3, [r4, #4]
    8220:	e0800003 	add	r0, r0, r3
    8224:	e8bd8010 	pop	{r4, pc}

00008228 <ck_ptr_in_block>:
    8228:	e92d4070 	push	{r4, r5, r6, lr}
    822c:	e1a06000 	mov	r6, r0
    8230:	e1a04001 	mov	r4, r1
    8234:	ebfffff3 	bl	8208 <ck_hdr_start>
    8238:	e1a05000 	mov	r5, r0
    823c:	e1a00006 	mov	r0, r6
    8240:	ebfffff2 	bl	8210 <ck_hdr_end>
    8244:	e1550004 	cmp	r5, r4
    8248:	91540000 	cmpls	r4, r0
    824c:	33a00001 	movcc	r0, #1, 0
    8250:	23a00000 	movcs	r0, #0, 0
    8254:	e8bd8070 	pop	{r4, r5, r6, pc}

00008258 <ck_ptr_is_alloced>:
    8258:	e92d4070 	push	{r4, r5, r6, lr}
    825c:	e1a05000 	mov	r5, r0
    8260:	ebffffb7 	bl	8144 <ck_first_hdr>
    8264:	e1a04000 	mov	r4, r0
    8268:	e3540000 	cmp	r4, #0, 0
    826c:	0a00000c 	beq	82a4 <ck_ptr_is_alloced+0x4c>
    8270:	e1a01005 	mov	r1, r5
    8274:	e1a00004 	mov	r0, r4
    8278:	ebffffea 	bl	8228 <ck_ptr_in_block>
    827c:	e3500000 	cmp	r0, #0, 0
    8280:	1a000003 	bne	8294 <ck_ptr_is_alloced+0x3c>
    8284:	e1a00004 	mov	r0, r4
    8288:	ebffffb1 	bl	8154 <ck_next_hdr>
    828c:	e1a04000 	mov	r4, r0
    8290:	eafffff4 	b	8268 <ck_ptr_is_alloced+0x10>
    8294:	e1a02004 	mov	r2, r4
    8298:	e1a01005 	mov	r1, r5
    829c:	e59f0008 	ldr	r0, [pc, #8]	; 82ac <ck_ptr_is_alloced+0x54>
    82a0:	eb000262 	bl	8c30 <printk>
    82a4:	e1a00004 	mov	r0, r4
    82a8:	e8bd8070 	pop	{r4, r5, r6, pc}
    82ac:	0000a2f0 	strdeq	sl, [r0], -r0

000082b0 <ckfree>:
    82b0:	e92d41f0 	push	{r4, r5, r6, r7, r8, lr}
    82b4:	e24dd018 	sub	sp, sp, #24, 0
    82b8:	e1a04000 	mov	r4, r0
    82bc:	e28d0018 	add	r0, sp, #24, 0
    82c0:	e900000e 	stmdb	r0, {r1, r2, r3}
    82c4:	e59d600c 	ldr	r6, [sp, #12]
    82c8:	e59d7010 	ldr	r7, [sp, #16]
    82cc:	e59d8014 	ldr	r8, [sp, #20]
    82d0:	e1a03008 	mov	r3, r8
    82d4:	e1a02007 	mov	r2, r7
    82d8:	e1a01006 	mov	r1, r6
    82dc:	e59f0094 	ldr	r0, [pc, #148]	; 8378 <ckfree+0xc8>
    82e0:	eb000252 	bl	8c30 <printk>
    82e4:	e1a01004 	mov	r1, r4
    82e8:	e59f008c 	ldr	r0, [pc, #140]	; 837c <ckfree+0xcc>
    82ec:	eb00024f 	bl	8c30 <printk>
    82f0:	e51430a0 	ldr	r3, [r4, #-160]	; 0xffffff60
    82f4:	e353000b 	cmp	r3, #11, 0
    82f8:	1a00000d 	bne	8334 <ckfree+0x84>
    82fc:	e24450a8 	sub	r5, r4, #168, 0	; 0xa8
    8300:	e3a0300c 	mov	r3, #12, 0
    8304:	e50430a0 	str	r3, [r4, #-160]	; 0xffffff60
    8308:	e1a00004 	mov	r0, r4
    830c:	ebffffd1 	bl	8258 <ck_ptr_is_alloced>
    8310:	e3500000 	cmp	r0, #0, 0
    8314:	0a00000f 	beq	8358 <ckfree+0xa8>
    8318:	e1a01005 	mov	r1, r5
    831c:	e59f005c 	ldr	r0, [pc, #92]	; 8380 <ckfree+0xd0>
    8320:	ebffff8f 	bl	8164 <list_remove>
    8324:	e1a00005 	mov	r0, r5
    8328:	eb000040 	bl	8430 <kr_free>
    832c:	e28dd018 	add	sp, sp, #24, 0
    8330:	e8bd81f0 	pop	{r4, r5, r6, r7, r8, pc}
    8334:	e1a03008 	mov	r3, r8
    8338:	e1a02007 	mov	r2, r7
    833c:	e1a01006 	mov	r1, r6
    8340:	e59f003c 	ldr	r0, [pc, #60]	; 8384 <ckfree+0xd4>
    8344:	eb000239 	bl	8c30 <printk>
    8348:	e51410a0 	ldr	r1, [r4, #-160]	; 0xffffff60
    834c:	e59f0034 	ldr	r0, [pc, #52]	; 8388 <ckfree+0xd8>
    8350:	eb000236 	bl	8c30 <printk>
    8354:	eb0004c6 	bl	9674 <clean_reboot>
    8358:	e59f302c 	ldr	r3, [pc, #44]	; 838c <ckfree+0xdc>
    835c:	e58d3000 	str	r3, [sp]
    8360:	e3a0305d 	mov	r3, #93, 0	; 0x5d
    8364:	e59f2024 	ldr	r2, [pc, #36]	; 8390 <ckfree+0xe0>
    8368:	e59f1024 	ldr	r1, [pc, #36]	; 8394 <ckfree+0xe4>
    836c:	e59f0024 	ldr	r0, [pc, #36]	; 8398 <ckfree+0xe8>
    8370:	eb00022e 	bl	8c30 <printk>
    8374:	eb0004be 	bl	9674 <clean_reboot>
    8378:	0000a300 	andeq	sl, r0, r0, lsl #6
    837c:	0000a30c 	andeq	sl, r0, ip, lsl #6
    8380:	0000aab0 			; <UNDEFINED> instruction: 0x0000aab0
    8384:	0000a31c 	andeq	sl, r0, ip, lsl r3
    8388:	0000a334 	andeq	sl, r0, r4, lsr r3
    838c:	0000a35c 	andeq	sl, r0, ip, asr r3
    8390:	0000a39c 	muleq	r0, ip, r3
    8394:	0000a2a0 	andeq	sl, r0, r0, lsr #5
    8398:	0000a2ac 	andeq	sl, r0, ip, lsr #5

0000839c <ckalloc>:
    839c:	e92d4070 	push	{r4, r5, r6, lr}
    83a0:	e24dd010 	sub	sp, sp, #16, 0
    83a4:	e1a06000 	mov	r6, r0
    83a8:	e28d5004 	add	r5, sp, #4, 0
    83ac:	e885000e 	stm	r5, {r1, r2, r3}
    83b0:	e28000a8 	add	r0, r0, #168, 0	; 0xa8
    83b4:	eb000061 	bl	8540 <kr_malloc>
    83b8:	e1a04000 	mov	r4, r0
    83bc:	e3a020a8 	mov	r2, #168, 0	; 0xa8
    83c0:	e3a01000 	mov	r1, #0, 0
    83c4:	eb0001fb 	bl	8bb8 <memset>
    83c8:	e5846004 	str	r6, [r4, #4]
    83cc:	e3a0300b 	mov	r3, #11, 0
    83d0:	e5843008 	str	r3, [r4, #8]
    83d4:	e2843010 	add	r3, r4, #16, 0
    83d8:	e8950007 	ldm	r5, {r0, r1, r2}
    83dc:	e8830007 	stm	r3, {r0, r1, r2}
    83e0:	e59d300c 	ldr	r3, [sp, #12]
    83e4:	e59d2008 	ldr	r2, [sp, #8]
    83e8:	e59d1004 	ldr	r1, [sp, #4]
    83ec:	e59f0030 	ldr	r0, [pc, #48]	; 8424 <ckalloc+0x88>
    83f0:	eb00020e 	bl	8c30 <printk>
    83f4:	e28450a8 	add	r5, r4, #168, 0	; 0xa8
    83f8:	e1a02006 	mov	r2, r6
    83fc:	e1a01005 	mov	r1, r5
    8400:	e59f0020 	ldr	r0, [pc, #32]	; 8428 <ckalloc+0x8c>
    8404:	eb000209 	bl	8c30 <printk>
    8408:	e59f301c 	ldr	r3, [pc, #28]	; 842c <ckalloc+0x90>
    840c:	e5932000 	ldr	r2, [r3]
    8410:	e5842000 	str	r2, [r4]
    8414:	e5834000 	str	r4, [r3]
    8418:	e1a00005 	mov	r0, r5
    841c:	e28dd010 	add	sp, sp, #16, 0
    8420:	e8bd8070 	pop	{r4, r5, r6, pc}
    8424:	0000a300 	andeq	sl, r0, r0, lsl #6
    8428:	0000a374 	andeq	sl, r0, r4, ror r3
    842c:	0000aab0 			; <UNDEFINED> instruction: 0x0000aab0

00008430 <kr_free>:
    8430:	e52de004 	push	{lr}		; (str lr, [sp, #-4]!)
    8434:	e2401008 	sub	r1, r0, #8, 0
    8438:	e59f30a8 	ldr	r3, [pc, #168]	; 84e8 <kr_free+0xb8>
    843c:	e5933000 	ldr	r3, [r3]
    8440:	ea000000 	b	8448 <kr_free+0x18>
    8444:	e1a03002 	mov	r3, r2
    8448:	e1530001 	cmp	r3, r1
    844c:	2a000002 	bcs	845c <kr_free+0x2c>
    8450:	e5932000 	ldr	r2, [r3]
    8454:	e1520001 	cmp	r2, r1
    8458:	8a000007 	bhi	847c <kr_free+0x4c>
    845c:	e5932000 	ldr	r2, [r3]
    8460:	e1520003 	cmp	r2, r3
    8464:	8afffff6 	bhi	8444 <kr_free+0x14>
    8468:	e1530001 	cmp	r3, r1
    846c:	3a000002 	bcc	847c <kr_free+0x4c>
    8470:	e1520001 	cmp	r2, r1
    8474:	91a03002 	movls	r3, r2
    8478:	9afffff2 	bls	8448 <kr_free+0x18>
    847c:	e510c004 	ldr	ip, [r0, #-4]
    8480:	e081e18c 	add	lr, r1, ip, lsl #3
    8484:	e5932000 	ldr	r2, [r3]
    8488:	e15e0002 	cmp	lr, r2
    848c:	0a000008 	beq	84b4 <kr_free+0x84>
    8490:	e5002008 	str	r2, [r0, #-8]
    8494:	e5932004 	ldr	r2, [r3, #4]
    8498:	e083c182 	add	ip, r3, r2, lsl #3
    849c:	e15c0001 	cmp	ip, r1
    84a0:	0a00000a 	beq	84d0 <kr_free+0xa0>
    84a4:	e5831000 	str	r1, [r3]
    84a8:	e59f2038 	ldr	r2, [pc, #56]	; 84e8 <kr_free+0xb8>
    84ac:	e5823000 	str	r3, [r2]
    84b0:	e49df004 	pop	{pc}		; (ldr pc, [sp], #4)
    84b4:	e5922004 	ldr	r2, [r2, #4]
    84b8:	e08cc002 	add	ip, ip, r2
    84bc:	e500c004 	str	ip, [r0, #-4]
    84c0:	e5932000 	ldr	r2, [r3]
    84c4:	e5922000 	ldr	r2, [r2]
    84c8:	e5002008 	str	r2, [r0, #-8]
    84cc:	eafffff0 	b	8494 <kr_free+0x64>
    84d0:	e5101004 	ldr	r1, [r0, #-4]
    84d4:	e0822001 	add	r2, r2, r1
    84d8:	e5832004 	str	r2, [r3, #4]
    84dc:	e5102008 	ldr	r2, [r0, #-8]
    84e0:	e5832000 	str	r2, [r3]
    84e4:	eaffffef 	b	84a8 <kr_free+0x78>
    84e8:	0000aab8 			; <UNDEFINED> instruction: 0x0000aab8

000084ec <morecore>:
    84ec:	e92d4010 	push	{r4, lr}
    84f0:	e1a04000 	mov	r4, r0
    84f4:	e3500b01 	cmp	r0, #1024	; 0x400
    84f8:	33a04b01 	movcc	r4, #1024	; 0x400
    84fc:	e1a01004 	mov	r1, r4
    8500:	e59f0030 	ldr	r0, [pc, #48]	; 8538 <morecore+0x4c>
    8504:	eb0001c9 	bl	8c30 <printk>
    8508:	e1a00184 	lsl	r0, r4, #3
    850c:	eb000146 	bl	8a2c <sbrk>
    8510:	e3700001 	cmn	r0, #1, 0
    8514:	0a000005 	beq	8530 <morecore+0x44>
    8518:	e5804004 	str	r4, [r0, #4]
    851c:	e2800008 	add	r0, r0, #8, 0
    8520:	ebffffc2 	bl	8430 <kr_free>
    8524:	e59f3010 	ldr	r3, [pc, #16]	; 853c <morecore+0x50>
    8528:	e5930000 	ldr	r0, [r3]
    852c:	e8bd8010 	pop	{r4, pc}
    8530:	e3a00000 	mov	r0, #0, 0
    8534:	e8bd8010 	pop	{r4, pc}
    8538:	0000a3a4 	andeq	sl, r0, r4, lsr #7
    853c:	0000aab8 			; <UNDEFINED> instruction: 0x0000aab8

00008540 <kr_malloc>:
    8540:	e92d4010 	push	{r4, lr}
    8544:	e2804007 	add	r4, r0, #7, 0
    8548:	e1a041a4 	lsr	r4, r4, #3
    854c:	e2844001 	add	r4, r4, #1, 0
    8550:	e59f3090 	ldr	r3, [pc, #144]	; 85e8 <kr_malloc+0xa8>
    8554:	e5932000 	ldr	r2, [r3]
    8558:	e3520000 	cmp	r2, #0, 0
    855c:	0a000001 	beq	8568 <kr_malloc+0x28>
    8560:	e5920000 	ldr	r0, [r2]
    8564:	ea000013 	b	85b8 <kr_malloc+0x78>
    8568:	e2832008 	add	r2, r3, #8, 0
    856c:	e5832000 	str	r2, [r3]
    8570:	e5832008 	str	r2, [r3, #8]
    8574:	e3a01000 	mov	r1, #0, 0
    8578:	e583100c 	str	r1, [r3, #12]
    857c:	eafffff7 	b	8560 <kr_malloc+0x20>
    8580:	0a000007 	beq	85a4 <kr_malloc+0x64>
    8584:	e0433004 	sub	r3, r3, r4
    8588:	e5803004 	str	r3, [r0, #4]
    858c:	e0800183 	add	r0, r0, r3, lsl #3
    8590:	e5804004 	str	r4, [r0, #4]
    8594:	e59f304c 	ldr	r3, [pc, #76]	; 85e8 <kr_malloc+0xa8>
    8598:	e5832000 	str	r2, [r3]
    859c:	e2800008 	add	r0, r0, #8, 0
    85a0:	e8bd8010 	pop	{r4, pc}
    85a4:	e5903000 	ldr	r3, [r0]
    85a8:	e5823000 	str	r3, [r2]
    85ac:	eafffff8 	b	8594 <kr_malloc+0x54>
    85b0:	e1a02000 	mov	r2, r0
    85b4:	e5900000 	ldr	r0, [r0]
    85b8:	e5903004 	ldr	r3, [r0, #4]
    85bc:	e1530004 	cmp	r3, r4
    85c0:	2affffee 	bcs	8580 <kr_malloc+0x40>
    85c4:	e59f301c 	ldr	r3, [pc, #28]	; 85e8 <kr_malloc+0xa8>
    85c8:	e5933000 	ldr	r3, [r3]
    85cc:	e1530000 	cmp	r3, r0
    85d0:	1afffff6 	bne	85b0 <kr_malloc+0x70>
    85d4:	e3a00902 	mov	r0, #32768	; 0x8000
    85d8:	ebffffc3 	bl	84ec <morecore>
    85dc:	e3500000 	cmp	r0, #0, 0
    85e0:	1afffff2 	bne	85b0 <kr_malloc+0x70>
    85e4:	e8bd8010 	pop	{r4, pc}
    85e8:	0000aab8 			; <UNDEFINED> instruction: 0x0000aab8

000085ec <in_heap>:
    85ec:	e59f3030 	ldr	r3, [pc, #48]	; 8624 <in_heap+0x38>
    85f0:	e5933000 	ldr	r3, [r3]
    85f4:	e1530000 	cmp	r3, r0
    85f8:	8a000005 	bhi	8614 <in_heap+0x28>
    85fc:	e59f3020 	ldr	r3, [pc, #32]	; 8624 <in_heap+0x38>
    8600:	e5933004 	ldr	r3, [r3, #4]
    8604:	e1530000 	cmp	r3, r0
    8608:	9a000003 	bls	861c <in_heap+0x30>
    860c:	e3a00001 	mov	r0, #1, 0
    8610:	e12fff1e 	bx	lr
    8614:	e3a00000 	mov	r0, #0, 0
    8618:	e12fff1e 	bx	lr
    861c:	e3a00000 	mov	r0, #0, 0
    8620:	e12fff1e 	bx	lr
    8624:	0000aac8 	andeq	sl, r0, r8, asr #21

00008628 <is_ptr>:
    8628:	e92d4010 	push	{r4, lr}
    862c:	e1a04000 	mov	r4, r0
    8630:	ebffffed 	bl	85ec <in_heap>
    8634:	e3500000 	cmp	r0, #0, 0
    8638:	0a000002 	beq	8648 <is_ptr+0x20>
    863c:	e1a00004 	mov	r0, r4
    8640:	ebffff04 	bl	8258 <ck_ptr_is_alloced>
    8644:	e8bd8010 	pop	{r4, pc}
    8648:	e3a00000 	mov	r0, #0, 0
    864c:	e8bd8010 	pop	{r4, pc}

00008650 <mark>:
    8650:	e92d41f0 	push	{r4, r5, r6, r7, r8, lr}
    8654:	e24dd008 	sub	sp, sp, #8, 0
    8658:	e1500001 	cmp	r0, r1
    865c:	2a00000d 	bcs	8698 <mark+0x48>
    8660:	e1a04000 	mov	r4, r0
    8664:	e1a06001 	mov	r6, r1
    8668:	e3100003 	tst	r0, #3, 0
    866c:	1a000011 	bne	86b8 <mark+0x68>
    8670:	e3110003 	tst	r1, #3, 0
    8674:	0a00001f 	beq	86f8 <mark+0xa8>
    8678:	e59f3114 	ldr	r3, [pc, #276]	; 8794 <mark+0x144>
    867c:	e58d3000 	str	r3, [sp]
    8680:	e3a03056 	mov	r3, #86, 0	; 0x56
    8684:	e59f210c 	ldr	r2, [pc, #268]	; 8798 <mark+0x148>
    8688:	e59f110c 	ldr	r1, [pc, #268]	; 879c <mark+0x14c>
    868c:	e59f010c 	ldr	r0, [pc, #268]	; 87a0 <mark+0x150>
    8690:	eb000166 	bl	8c30 <printk>
    8694:	eb0003f6 	bl	9674 <clean_reboot>
    8698:	e59f3104 	ldr	r3, [pc, #260]	; 87a4 <mark+0x154>
    869c:	e58d3000 	str	r3, [sp]
    86a0:	e3a03052 	mov	r3, #82, 0	; 0x52
    86a4:	e59f20ec 	ldr	r2, [pc, #236]	; 8798 <mark+0x148>
    86a8:	e59f10ec 	ldr	r1, [pc, #236]	; 879c <mark+0x14c>
    86ac:	e59f00ec 	ldr	r0, [pc, #236]	; 87a0 <mark+0x150>
    86b0:	eb00015e 	bl	8c30 <printk>
    86b4:	eb0003ee 	bl	9674 <clean_reboot>
    86b8:	e59f30e8 	ldr	r3, [pc, #232]	; 87a8 <mark+0x158>
    86bc:	e58d3000 	str	r3, [sp]
    86c0:	e3a03055 	mov	r3, #85, 0	; 0x55
    86c4:	e59f20cc 	ldr	r2, [pc, #204]	; 8798 <mark+0x148>
    86c8:	e59f10cc 	ldr	r1, [pc, #204]	; 879c <mark+0x14c>
    86cc:	e59f00cc 	ldr	r0, [pc, #204]	; 87a0 <mark+0x150>
    86d0:	eb000156 	bl	8c30 <printk>
    86d4:	eb0003e6 	bl	9674 <clean_reboot>
    86d8:	e3a03002 	mov	r3, #2, 0
    86dc:	ea00001b 	b	8750 <mark+0x100>
    86e0:	e3a01002 	mov	r1, #2, 0
    86e4:	e59f00c0 	ldr	r0, [pc, #192]	; 87ac <mark+0x15c>
    86e8:	eb000150 	bl	8c30 <printk>
    86ec:	e3580000 	cmp	r8, #0, 0
    86f0:	0a00001c 	beq	8768 <mark+0x118>
    86f4:	e2844004 	add	r4, r4, #4, 0
    86f8:	e1540006 	cmp	r4, r6
    86fc:	8a000022 	bhi	878c <mark+0x13c>
    8700:	e5940000 	ldr	r0, [r4]
    8704:	ebffffc7 	bl	8628 <is_ptr>
    8708:	e2505000 	subs	r5, r0, #0, 0
    870c:	0afffff8 	beq	86f4 <mark+0xa4>
    8710:	e28570a8 	add	r7, r5, #168, 0	; 0xa8
    8714:	e1d582b4 	ldrh	r8, [r5, #36]	; 0x24
    8718:	e1a00005 	mov	r0, r5
    871c:	ebfffeb9 	bl	8208 <ck_hdr_start>
    8720:	e1a01000 	mov	r1, r0
    8724:	e58d7000 	str	r7, [sp]
    8728:	e5943000 	ldr	r3, [r4]
    872c:	e1a02004 	mov	r2, r4
    8730:	e59f0078 	ldr	r0, [pc, #120]	; 87b0 <mark+0x160>
    8734:	eb00013d 	bl	8c30 <printk>
    8738:	e3580001 	cmp	r8, #1, 0
    873c:	8a00000f 	bhi	8780 <mark+0x130>
    8740:	e5943000 	ldr	r3, [r4]
    8744:	e1530007 	cmp	r3, r7
    8748:	0affffe2 	beq	86d8 <mark+0x88>
    874c:	e3a03001 	mov	r3, #1, 0
    8750:	e1c532b4 	strh	r3, [r5, #36]	; 0x24
    8754:	e5943000 	ldr	r3, [r4]
    8758:	e1530007 	cmp	r3, r7
    875c:	0affffdf 	beq	86e0 <mark+0x90>
    8760:	e3a01001 	mov	r1, #1, 0
    8764:	eaffffde 	b	86e4 <mark+0x94>
    8768:	e5951004 	ldr	r1, [r5, #4]
    876c:	e28110a8 	add	r1, r1, #168, 0	; 0xa8
    8770:	e0851001 	add	r1, r5, r1
    8774:	e2850004 	add	r0, r5, #4, 0
    8778:	ebffffb4 	bl	8650 <mark>
    877c:	eaffffdc 	b	86f4 <mark+0xa4>
    8780:	e59f002c 	ldr	r0, [pc, #44]	; 87b4 <mark+0x164>
    8784:	eb000129 	bl	8c30 <printk>
    8788:	eaffffd9 	b	86f4 <mark+0xa4>
    878c:	e28dd008 	add	sp, sp, #8, 0
    8790:	e8bd81f0 	pop	{r4, r5, r6, r7, r8, pc}
    8794:	0000a3e8 	andeq	sl, r0, r8, ror #7
    8798:	0000a6e0 	andeq	sl, r0, r0, ror #13
    879c:	0000a3c8 	andeq	sl, r0, r8, asr #7
    87a0:	0000a2ac 	andeq	sl, r0, ip, lsr #5
    87a4:	0000a3d0 	ldrdeq	sl, [r0], -r0
    87a8:	0000a3d8 	ldrdeq	sl, [r0], -r8
    87ac:	0000a424 	andeq	sl, r0, r4, lsr #8
    87b0:	0000a3f8 	strdeq	sl, [r0], -r8
    87b4:	0000a434 	andeq	sl, r0, r4, lsr r4

000087b8 <mark_all>:
    87b8:	e52de004 	push	{lr}		; (str lr, [sp, #-4]!)
    87bc:	e24dd044 	sub	sp, sp, #68, 0	; 0x44
    87c0:	ebfffe5f 	bl	8144 <ck_first_hdr>
    87c4:	e3500000 	cmp	r0, #0, 0
    87c8:	0a000005 	beq	87e4 <mark_all+0x2c>
    87cc:	e3a03000 	mov	r3, #0, 0
    87d0:	e5803020 	str	r3, [r0, #32]
    87d4:	e580301c 	str	r3, [r0, #28]
    87d8:	e1c032b4 	strh	r3, [r0, #36]	; 0x24
    87dc:	ebfffe5c 	bl	8154 <ck_next_hdr>
    87e0:	eafffff7 	b	87c4 <mark_all+0xc>
    87e4:	e1a0000d 	mov	r0, sp
    87e8:	eb0000f0 	bl	8bb0 <dump_regs>
    87ec:	e3a03000 	mov	r3, #0, 0
    87f0:	e58d3000 	str	r3, [sp]
    87f4:	e58d3004 	str	r3, [sp, #4]
    87f8:	e58d3008 	str	r3, [sp, #8]
    87fc:	e58d300c 	str	r3, [sp, #12]
    8800:	e28d1038 	add	r1, sp, #56, 0	; 0x38
    8804:	e1a0000d 	mov	r0, sp
    8808:	ebffff90 	bl	8650 <mark>
    880c:	e3a02302 	mov	r2, #134217728	; 0x8000000
    8810:	e59d1034 	ldr	r1, [sp, #52]	; 0x34
    8814:	e59f002c 	ldr	r0, [pc, #44]	; 8848 <mark_all+0x90>
    8818:	eb000104 	bl	8c30 <printk>
    881c:	e3a01302 	mov	r1, #134217728	; 0x8000000
    8820:	e59d0034 	ldr	r0, [sp, #52]	; 0x34
    8824:	ebffff89 	bl	8650 <mark>
    8828:	e59f101c 	ldr	r1, [pc, #28]	; 884c <mark_all+0x94>
    882c:	e59f001c 	ldr	r0, [pc, #28]	; 8850 <mark_all+0x98>
    8830:	ebffff86 	bl	8650 <mark>
    8834:	e59f1018 	ldr	r1, [pc, #24]	; 8854 <mark_all+0x9c>
    8838:	e59f0018 	ldr	r0, [pc, #24]	; 8858 <mark_all+0xa0>
    883c:	ebffff83 	bl	8650 <mark>
    8840:	e28dd044 	add	sp, sp, #68, 0	; 0x44
    8844:	e49df004 	pop	{pc}		; (ldr pc, [sp], #4)
    8848:	0000a444 	andeq	sl, r0, r4, asr #8
    884c:	0000aed8 	ldrdeq	sl, [r0], -r8
    8850:	0000aab0 			; <UNDEFINED> instruction: 0x0000aab0
    8854:	0000aab0 			; <UNDEFINED> instruction: 0x0000aab0
    8858:	0000aa9c 	muleq	r0, ip, sl

0000885c <sweep_leak>:
    885c:	e92d41f0 	push	{r4, r5, r6, r7, r8, lr}
    8860:	e1a08000 	mov	r8, r0
    8864:	e59f00c4 	ldr	r0, [pc, #196]	; 8930 <sweep_leak+0xd4>
    8868:	eb0000f0 	bl	8c30 <printk>
    886c:	e59f00c0 	ldr	r0, [pc, #192]	; 8934 <sweep_leak+0xd8>
    8870:	eb0000ee 	bl	8c30 <printk>
    8874:	ebffffcf 	bl	87b8 <mark_all>
    8878:	ebfffe31 	bl	8144 <ck_first_hdr>
    887c:	e1a04000 	mov	r4, r0
    8880:	e3a07000 	mov	r7, #0, 0
    8884:	e1a06007 	mov	r6, r7
    8888:	e1a05007 	mov	r5, r7
    888c:	ea000007 	b	88b0 <sweep_leak+0x54>
    8890:	e2866001 	add	r6, r6, #1, 0
    8894:	e1a02004 	mov	r2, r4
    8898:	e1a01005 	mov	r1, r5
    889c:	e59f0094 	ldr	r0, [pc, #148]	; 8938 <sweep_leak+0xdc>
    88a0:	eb0000e2 	bl	8c30 <printk>
    88a4:	e1a00004 	mov	r0, r4
    88a8:	ebfffe29 	bl	8154 <ck_next_hdr>
    88ac:	e1a04000 	mov	r4, r0
    88b0:	e3540000 	cmp	r4, #0, 0
    88b4:	0a00000b 	beq	88e8 <sweep_leak+0x8c>
    88b8:	e2855001 	add	r5, r5, #1, 0
    88bc:	e1d432b4 	ldrh	r3, [r4, #36]	; 0x24
    88c0:	e3530000 	cmp	r3, #0, 0
    88c4:	0afffff1 	beq	8890 <sweep_leak+0x34>
    88c8:	e3530001 	cmp	r3, #1, 0
    88cc:	1afffff4 	bne	88a4 <sweep_leak+0x48>
    88d0:	e2877001 	add	r7, r7, #1, 0
    88d4:	e1a02004 	mov	r2, r4
    88d8:	e1a01005 	mov	r1, r5
    88dc:	e59f0058 	ldr	r0, [pc, #88]	; 893c <sweep_leak+0xe0>
    88e0:	eb0000d2 	bl	8c30 <printk>
    88e4:	eaffffee 	b	88a4 <sweep_leak+0x48>
    88e8:	e1a01005 	mov	r1, r5
    88ec:	e59f004c 	ldr	r0, [pc, #76]	; 8940 <sweep_leak+0xe4>
    88f0:	eb0000ce 	bl	8c30 <printk>
    88f4:	e1963007 	orrs	r3, r6, r7
    88f8:	1a000007 	bne	891c <sweep_leak+0xc0>
    88fc:	e59f0040 	ldr	r0, [pc, #64]	; 8944 <sweep_leak+0xe8>
    8900:	eb0000ca 	bl	8c30 <printk>
    8904:	e59f003c 	ldr	r0, [pc, #60]	; 8948 <sweep_leak+0xec>
    8908:	eb0000c8 	bl	8c30 <printk>
    890c:	e3580000 	cmp	r8, #0, 0
    8910:	10866007 	addne	r6, r6, r7
    8914:	e1a00006 	mov	r0, r6
    8918:	e8bd81f0 	pop	{r4, r5, r6, r7, r8, pc}
    891c:	e1a02007 	mov	r2, r7
    8920:	e1a01006 	mov	r1, r6
    8924:	e59f0020 	ldr	r0, [pc, #32]	; 894c <sweep_leak+0xf0>
    8928:	eb0000c0 	bl	8c30 <printk>
    892c:	eafffff4 	b	8904 <sweep_leak+0xa8>
    8930:	0000a460 	andeq	sl, r0, r0, ror #8
    8934:	0000a49c 	muleq	r0, ip, r4
    8938:	0000a4b4 			; <UNDEFINED> instruction: 0x0000a4b4
    893c:	0000a4c8 	andeq	sl, r0, r8, asr #9
    8940:	0000a4e0 	andeq	sl, r0, r0, ror #9
    8944:	0000a500 	andeq	sl, r0, r0, lsl #10
    8948:	0000a558 	andeq	sl, r0, r8, asr r5
    894c:	0000a528 	andeq	sl, r0, r8, lsr #10

00008950 <sweep_free>:
    8950:	e92d41f0 	push	{r4, r5, r6, r7, r8, lr}
    8954:	e24dd010 	sub	sp, sp, #16, 0
    8958:	e59f00b0 	ldr	r0, [pc, #176]	; 8a10 <sweep_free+0xc0>
    895c:	eb0000b3 	bl	8c30 <printk>
    8960:	e59f00ac 	ldr	r0, [pc, #172]	; 8a14 <sweep_free+0xc4>
    8964:	eb0000b1 	bl	8c30 <printk>
    8968:	ebffff92 	bl	87b8 <mark_all>
    896c:	ebfffdf4 	bl	8144 <ck_first_hdr>
    8970:	e1a04000 	mov	r4, r0
    8974:	e3a07000 	mov	r7, #0, 0
    8978:	e1a08007 	mov	r8, r7
    897c:	e1a05007 	mov	r5, r7
    8980:	ea000013 	b	89d4 <sweep_free+0x84>
    8984:	e2888001 	add	r8, r8, #1, 0
    8988:	e5943004 	ldr	r3, [r4, #4]
    898c:	e0877003 	add	r7, r7, r3
    8990:	e28460a8 	add	r6, r4, #168, 0	; 0xa8
    8994:	e59f307c 	ldr	r3, [pc, #124]	; 8a18 <sweep_free+0xc8>
    8998:	e58d3004 	str	r3, [sp, #4]
    899c:	e59f3078 	ldr	r3, [pc, #120]	; 8a1c <sweep_free+0xcc>
    89a0:	e58d3008 	str	r3, [sp, #8]
    89a4:	e59f3074 	ldr	r3, [pc, #116]	; 8a20 <sweep_free+0xd0>
    89a8:	e58d300c 	str	r3, [sp, #12]
    89ac:	e28d3010 	add	r3, sp, #16, 0
    89b0:	e913000e 	ldmdb	r3, {r1, r2, r3}
    89b4:	e1a00006 	mov	r0, r6
    89b8:	ebfffe3c 	bl	82b0 <ckfree>
    89bc:	e1a01006 	mov	r1, r6
    89c0:	e59f005c 	ldr	r0, [pc, #92]	; 8a24 <sweep_free+0xd4>
    89c4:	eb000099 	bl	8c30 <printk>
    89c8:	e1a00004 	mov	r0, r4
    89cc:	ebfffde0 	bl	8154 <ck_next_hdr>
    89d0:	e1a04000 	mov	r4, r0
    89d4:	e3540000 	cmp	r4, #0, 0
    89d8:	0a000004 	beq	89f0 <sweep_free+0xa0>
    89dc:	e2855001 	add	r5, r5, #1, 0
    89e0:	e1d432b4 	ldrh	r3, [r4, #36]	; 0x24
    89e4:	e3530000 	cmp	r3, #0, 0
    89e8:	1afffff6 	bne	89c8 <sweep_free+0x78>
    89ec:	eaffffe4 	b	8984 <sweep_free+0x34>
    89f0:	e1a03007 	mov	r3, r7
    89f4:	e1a02008 	mov	r2, r8
    89f8:	e1a01005 	mov	r1, r5
    89fc:	e59f0024 	ldr	r0, [pc, #36]	; 8a28 <sweep_free+0xd8>
    8a00:	eb00008a 	bl	8c30 <printk>
    8a04:	e1a00007 	mov	r0, r7
    8a08:	e28dd010 	add	sp, sp, #16, 0
    8a0c:	e8bd81f0 	pop	{r4, r5, r6, r7, r8, pc}
    8a10:	0000a460 	andeq	sl, r0, r0, ror #8
    8a14:	0000a594 	muleq	r0, r4, r5
    8a18:	0000a3c8 	andeq	sl, r0, r8, asr #7
    8a1c:	0000a6e8 	andeq	sl, r0, r8, ror #13
    8a20:	00000101 	andeq	r0, r0, r1, lsl #2
    8a24:	0000a5a4 	andeq	sl, r0, r4, lsr #11
    8a28:	0000a5b4 			; <UNDEFINED> instruction: 0x0000a5b4

00008a2c <sbrk>:
    8a2c:	e92d4030 	push	{r4, r5, lr}
    8a30:	e24dd00c 	sub	sp, sp, #12, 0
    8a34:	e2504000 	subs	r4, r0, #0, 0
    8a38:	da000010 	ble	8a80 <sbrk+0x54>
    8a3c:	e59f3074 	ldr	r3, [pc, #116]	; 8ab8 <sbrk+0x8c>
    8a40:	e5933008 	ldr	r3, [r3, #8]
    8a44:	e3530000 	cmp	r3, #0, 0
    8a48:	1a000014 	bne	8aa0 <sbrk+0x74>
    8a4c:	e59f5064 	ldr	r5, [pc, #100]	; 8ab8 <sbrk+0x8c>
    8a50:	e3a00601 	mov	r0, #1048576	; 0x100000
    8a54:	e5850000 	str	r0, [r5]
    8a58:	e3a03602 	mov	r3, #2097152	; 0x200000
    8a5c:	e5853004 	str	r3, [r5, #4]
    8a60:	e1a01000 	mov	r1, r0
    8a64:	eb00043e 	bl	9b64 <kmalloc_init_set_start>
    8a68:	e3a03001 	mov	r3, #1, 0
    8a6c:	e5853008 	str	r3, [r5, #8]
    8a70:	e1a00004 	mov	r0, r4
    8a74:	eb00049d 	bl	9cf0 <kmalloc>
    8a78:	e28dd00c 	add	sp, sp, #12, 0
    8a7c:	e8bd8030 	pop	{r4, r5, pc}
    8a80:	e59f3034 	ldr	r3, [pc, #52]	; 8abc <sbrk+0x90>
    8a84:	e58d3000 	str	r3, [sp]
    8a88:	e3a03017 	mov	r3, #23, 0
    8a8c:	e59f202c 	ldr	r2, [pc, #44]	; 8ac0 <sbrk+0x94>
    8a90:	e59f102c 	ldr	r1, [pc, #44]	; 8ac4 <sbrk+0x98>
    8a94:	e59f002c 	ldr	r0, [pc, #44]	; 8ac8 <sbrk+0x9c>
    8a98:	eb000064 	bl	8c30 <printk>
    8a9c:	eb0002f4 	bl	9674 <clean_reboot>
    8aa0:	e3a03019 	mov	r3, #25, 0
    8aa4:	e59f2014 	ldr	r2, [pc, #20]	; 8ac0 <sbrk+0x94>
    8aa8:	e59f1014 	ldr	r1, [pc, #20]	; 8ac4 <sbrk+0x98>
    8aac:	e59f0018 	ldr	r0, [pc, #24]	; 8acc <sbrk+0xa0>
    8ab0:	eb00005e 	bl	8c30 <printk>
    8ab4:	eb0002ee 	bl	9674 <clean_reboot>
    8ab8:	0000aac8 	andeq	sl, r0, r8, asr #21
    8abc:	0000a5e8 	andeq	sl, r0, r8, ror #11
    8ac0:	0000a6f4 	strdeq	sl, [r0], -r4
    8ac4:	0000a3c8 	andeq	sl, r0, r8, asr #7
    8ac8:	0000a2ac 	andeq	sl, r0, ip, lsr #5
    8acc:	0000a5f8 	strdeq	sl, [r0], -r8

00008ad0 <ck_find_leaks>:
    8ad0:	e92d4010 	push	{r4, lr}
    8ad4:	ebffff60 	bl	885c <sweep_leak>
    8ad8:	e8bd8010 	pop	{r4, pc}

00008adc <check_no_leak>:
    8adc:	e92d4010 	push	{r4, lr}
    8ae0:	e3a00001 	mov	r0, #1, 0
    8ae4:	ebfffff9 	bl	8ad0 <ck_find_leaks>
    8ae8:	e3500000 	cmp	r0, #0, 0
    8aec:	1a000002 	bne	8afc <check_no_leak+0x20>
    8af0:	e59f001c 	ldr	r0, [pc, #28]	; 8b14 <check_no_leak+0x38>
    8af4:	eb00004d 	bl	8c30 <printk>
    8af8:	e8bd8010 	pop	{r4, pc}
    8afc:	e3a030dc 	mov	r3, #220, 0	; 0xdc
    8b00:	e59f2010 	ldr	r2, [pc, #16]	; 8b18 <check_no_leak+0x3c>
    8b04:	e59f1010 	ldr	r1, [pc, #16]	; 8b1c <check_no_leak+0x40>
    8b08:	e59f0010 	ldr	r0, [pc, #16]	; 8b20 <check_no_leak+0x44>
    8b0c:	eb000047 	bl	8c30 <printk>
    8b10:	eb0002d7 	bl	9674 <clean_reboot>
    8b14:	0000a644 	andeq	sl, r0, r4, asr #12
    8b18:	0000a6fc 	strdeq	sl, [r0], -ip
    8b1c:	0000a3c8 	andeq	sl, r0, r8, asr #7
    8b20:	0000a618 	andeq	sl, r0, r8, lsl r6

00008b24 <check_should_leak>:
    8b24:	e92d4010 	push	{r4, lr}
    8b28:	e3a00001 	mov	r0, #1, 0
    8b2c:	ebffffe7 	bl	8ad0 <ck_find_leaks>
    8b30:	e2504000 	subs	r4, r0, #0, 0
    8b34:	0a000004 	beq	8b4c <check_should_leak+0x28>
    8b38:	e1a01004 	mov	r1, r4
    8b3c:	e59f0020 	ldr	r0, [pc, #32]	; 8b64 <check_should_leak+0x40>
    8b40:	eb00003a 	bl	8c30 <printk>
    8b44:	e1a00004 	mov	r0, r4
    8b48:	e8bd8010 	pop	{r4, pc}
    8b4c:	e3a030eb 	mov	r3, #235, 0	; 0xeb
    8b50:	e59f2010 	ldr	r2, [pc, #16]	; 8b68 <check_should_leak+0x44>
    8b54:	e59f1010 	ldr	r1, [pc, #16]	; 8b6c <check_should_leak+0x48>
    8b58:	e59f0010 	ldr	r0, [pc, #16]	; 8b70 <check_should_leak+0x4c>
    8b5c:	eb000033 	bl	8c30 <printk>
    8b60:	eb0002c3 	bl	9674 <clean_reboot>
    8b64:	0000a68c 	andeq	sl, r0, ip, lsl #13
    8b68:	0000a70c 	andeq	sl, r0, ip, lsl #14
    8b6c:	0000a3c8 	andeq	sl, r0, r8, asr #7
    8b70:	0000a664 	andeq	sl, r0, r4, ror #12

00008b74 <ck_gc>:
    8b74:	e92d4010 	push	{r4, lr}
    8b78:	ebffff0e 	bl	87b8 <mark_all>
    8b7c:	ebffff73 	bl	8950 <sweep_free>
    8b80:	e8bd8010 	pop	{r4, pc}

00008b84 <implement_this>:
    8b84:	e92d4010 	push	{r4, lr}
    8b88:	e59f3010 	ldr	r3, [pc, #16]	; 8ba0 <implement_this+0x1c>
    8b8c:	e59f2010 	ldr	r2, [pc, #16]	; 8ba4 <implement_this+0x20>
    8b90:	e59f1010 	ldr	r1, [pc, #16]	; 8ba8 <implement_this+0x24>
    8b94:	e59f0010 	ldr	r0, [pc, #16]	; 8bac <implement_this+0x28>
    8b98:	eb000024 	bl	8c30 <printk>
    8b9c:	eb0002b4 	bl	9674 <clean_reboot>
    8ba0:	00000117 	andeq	r0, r0, r7, lsl r1
    8ba4:	0000a720 	andeq	sl, r0, r0, lsr #14
    8ba8:	0000a3c8 	andeq	sl, r0, r8, asr #7
    8bac:	0000a6b0 			; <UNDEFINED> instruction: 0x0000a6b0

00008bb0 <dump_regs>:
    8bb0:	e8a0ffff 	stmia	r0!, {r0, r1, r2, r3, r4, r5, r6, r7, r8, r9, sl, fp, ip, sp, lr, pc}
    8bb4:	e12fff1e 	bx	lr

00008bb8 <memset>:
    8bb8:	e92d4010 	push	{r4, lr}
    8bbc:	e0804002 	add	r4, r0, r2
    8bc0:	e1500004 	cmp	r0, r4
    8bc4:	28bd8010 	popcs	{r4, pc}
    8bc8:	e2423001 	sub	r3, r2, #1, 0
    8bcc:	e3530002 	cmp	r3, #2, 0
    8bd0:	e6ef1071 	uxtb	r1, r1
    8bd4:	e1a03000 	mov	r3, r0
    8bd8:	9a00000b 	bls	8c0c <memset+0x54>
    8bdc:	e181e401 	orr	lr, r1, r1, lsl #8
    8be0:	e18ee801 	orr	lr, lr, r1, lsl #16
    8be4:	e3c2c003 	bic	ip, r2, #3, 0
    8be8:	e18eec01 	orr	lr, lr, r1, lsl #24
    8bec:	e08cc000 	add	ip, ip, r0
    8bf0:	e483e004 	str	lr, [r3], #4
    8bf4:	e153000c 	cmp	r3, ip
    8bf8:	1afffffc 	bne	8bf0 <memset+0x38>
    8bfc:	e3c23003 	bic	r3, r2, #3, 0
    8c00:	e1520003 	cmp	r2, r3
    8c04:	e0803003 	add	r3, r0, r3
    8c08:	08bd8010 	popeq	{r4, pc}
    8c0c:	e1a02003 	mov	r2, r3
    8c10:	e4c21001 	strb	r1, [r2], #1
    8c14:	e1540002 	cmp	r4, r2
    8c18:	98bd8010 	popls	{r4, pc}
    8c1c:	e2832002 	add	r2, r3, #2, 0
    8c20:	e1540002 	cmp	r4, r2
    8c24:	e5c31001 	strb	r1, [r3, #1]
    8c28:	85c31002 	strbhi	r1, [r3, #2]
    8c2c:	e8bd8010 	pop	{r4, pc}

00008c30 <printk>:
    8c30:	e92d000f 	push	{r0, r1, r2, r3}
    8c34:	e92d4030 	push	{r4, r5, lr}
    8c38:	e59f5040 	ldr	r5, [pc, #64]	; 8c80 <printk+0x50>
    8c3c:	e24dd00c 	sub	sp, sp, #12, 0
    8c40:	e28d301c 	add	r3, sp, #28, 0
    8c44:	e3a01b01 	mov	r1, #1024	; 0x400
    8c48:	e59d2018 	ldr	r2, [sp, #24]
    8c4c:	e1a00005 	mov	r0, r5
    8c50:	e58d3004 	str	r3, [sp, #4]
    8c54:	eb0000fb 	bl	9048 <va_printk>
    8c58:	e1a04000 	mov	r4, r0
    8c5c:	e59f3020 	ldr	r3, [pc, #32]	; 8c84 <printk+0x54>
    8c60:	e1a00005 	mov	r0, r5
    8c64:	e5933000 	ldr	r3, [r3]
    8c68:	e12fff33 	blx	r3
    8c6c:	e1a00004 	mov	r0, r4
    8c70:	e28dd00c 	add	sp, sp, #12, 0
    8c74:	e8bd4030 	pop	{r4, r5, lr}
    8c78:	e28dd010 	add	sp, sp, #16, 0
    8c7c:	e12fff1e 	bx	lr
    8c80:	0000aad4 	ldrdeq	sl, [r0], -r4
    8c84:	0000aa9c 	muleq	r0, ip, sl

00008c88 <internal_putk>:
    8c88:	e92d4070 	push	{r4, r5, r6, lr}
    8c8c:	e1a04000 	mov	r4, r0
    8c90:	e5d00000 	ldrb	r0, [r0]
    8c94:	e3500000 	cmp	r0, #0, 0
    8c98:	0a000005 	beq	8cb4 <internal_putk+0x2c>
    8c9c:	e59f5018 	ldr	r5, [pc, #24]	; 8cbc <internal_putk+0x34>
    8ca0:	e5953000 	ldr	r3, [r5]
    8ca4:	e12fff33 	blx	r3
    8ca8:	e5f40001 	ldrb	r0, [r4, #1]!
    8cac:	e3500000 	cmp	r0, #0, 0
    8cb0:	1afffffa 	bne	8ca0 <internal_putk+0x18>
    8cb4:	e3a00001 	mov	r0, #1, 0
    8cb8:	e8bd8070 	pop	{r4, r5, r6, pc}
    8cbc:	0000aaac 	andeq	sl, r0, ip, lsr #21

00008cc0 <emit.constprop.0>:
    8cc0:	e92d41f0 	push	{r4, r5, r6, r7, r8, lr}
    8cc4:	e3530080 	cmp	r3, #128, 0	; 0x80
    8cc8:	e1a0c000 	mov	ip, r0
    8ccc:	e24dd048 	sub	sp, sp, #72, 0	; 0x48
    8cd0:	e1a00001 	mov	r0, r1
    8cd4:	ca000069 	bgt	8e80 <emit.constprop.0+0x1c0>
    8cd8:	e24c1002 	sub	r1, ip, #2, 0
    8cdc:	e1a0c002 	mov	ip, r2
    8ce0:	e351000e 	cmp	r1, #14, 0
    8ce4:	979ff101 	ldrls	pc, [pc, r1, lsl #2]
    8ce8:	ea0000a7 	b	8f8c <emit.constprop.0+0x2cc>
    8cec:	00008e58 	andeq	r8, r0, r8, asr lr
    8cf0:	00008f8c 	andeq	r8, r0, ip, lsl #31
    8cf4:	00008f8c 	andeq	r8, r0, ip, lsl #31
    8cf8:	00008f8c 	andeq	r8, r0, ip, lsl #31
    8cfc:	00008f8c 	andeq	r8, r0, ip, lsl #31
    8d00:	00008f8c 	andeq	r8, r0, ip, lsl #31
    8d04:	00008f34 	andeq	r8, r0, r4, lsr pc
    8d08:	00008f8c 	andeq	r8, r0, ip, lsl #31
    8d0c:	00008ed4 	ldrdeq	r8, [r0], -r4
    8d10:	00008f8c 	andeq	r8, r0, ip, lsl #31
    8d14:	00008f8c 	andeq	r8, r0, ip, lsl #31
    8d18:	00008f8c 	andeq	r8, r0, ip, lsl #31
    8d1c:	00008f8c 	andeq	r8, r0, ip, lsl #31
    8d20:	00008f8c 	andeq	r8, r0, ip, lsl #31
    8d24:	00008d2c 	andeq	r8, r0, ip, lsr #26
    8d28:	e3a0307f 	mov	r3, #127, 0	; 0x7f
    8d2c:	e28d2008 	add	r2, sp, #8, 0
    8d30:	e1a04002 	mov	r4, r2
    8d34:	e59f1288 	ldr	r1, [pc, #648]	; 8fc4 <emit.constprop.0+0x304>
    8d38:	e20ce00f 	and	lr, ip, #15, 0
    8d3c:	e7d1e00e 	ldrb	lr, [r1, lr]
    8d40:	e35c000f 	cmp	ip, #15, 0
    8d44:	e4c4e001 	strb	lr, [r4], #1
    8d48:	e1a0c22c 	lsr	ip, ip, #4
    8d4c:	8afffff9 	bhi	8d38 <emit.constprop.0+0x78>
    8d50:	e3a0c078 	mov	ip, #120, 0	; 0x78
    8d54:	e1a0e004 	mov	lr, r4
    8d58:	e3a01030 	mov	r1, #48, 0	; 0x30
    8d5c:	e4cec002 	strb	ip, [lr], #2
    8d60:	e5c41001 	strb	r1, [r4, #1]
    8d64:	e04e1002 	sub	r1, lr, r2
    8d68:	e1510003 	cmp	r1, r3
    8d6c:	aa000083 	bge	8f80 <emit.constprop.0+0x2c0>
    8d70:	e1510003 	cmp	r1, r3
    8d74:	a3a0c001 	movge	ip, #1, 0
    8d78:	b3a0c000 	movlt	ip, #0, 0
    8d7c:	e2434001 	sub	r4, r3, #1, 0
    8d80:	e0444001 	sub	r4, r4, r1
    8d84:	b0436001 	sublt	r6, r3, r1
    8d88:	a3a06001 	movge	r6, #1, 0
    8d8c:	e3540002 	cmp	r4, #2, 0
    8d90:	938cc001 	orrls	ip, ip, #1, 0
    8d94:	e35c0000 	cmp	ip, #0, 0
    8d98:	1a000075 	bne	8f74 <emit.constprop.0+0x2b4>
    8d9c:	e1a0c00e 	mov	ip, lr
    8da0:	e3c65003 	bic	r5, r6, #3, 0
    8da4:	e59f721c 	ldr	r7, [pc, #540]	; 8fc8 <emit.constprop.0+0x308>
    8da8:	e085500e 	add	r5, r5, lr
    8dac:	e48c7004 	str	r7, [ip], #4
    8db0:	e15c0005 	cmp	ip, r5
    8db4:	1afffffc 	bne	8dac <emit.constprop.0+0xec>
    8db8:	e3c6c003 	bic	ip, r6, #3, 0
    8dbc:	e156000c 	cmp	r6, ip
    8dc0:	e08e500c 	add	r5, lr, ip
    8dc4:	e08cc001 	add	ip, ip, r1
    8dc8:	0a000008 	beq	8df0 <emit.constprop.0+0x130>
    8dcc:	e3a07020 	mov	r7, #32, 0
    8dd0:	e28c8001 	add	r8, ip, #1, 0
    8dd4:	e1580003 	cmp	r8, r3
    8dd8:	e5c57000 	strb	r7, [r5]
    8ddc:	aa000003 	bge	8df0 <emit.constprop.0+0x130>
    8de0:	e28cc002 	add	ip, ip, #2, 0
    8de4:	e15c0003 	cmp	ip, r3
    8de8:	e5c57001 	strb	r7, [r5, #1]
    8dec:	b5c57002 	strblt	r7, [r5, #2]
    8df0:	e1510003 	cmp	r1, r3
    8df4:	a3a04000 	movge	r4, #0, 0
    8df8:	e08e6006 	add	r6, lr, r6
    8dfc:	e0461002 	sub	r1, r6, r2
    8e00:	e08ee004 	add	lr, lr, r4
    8e04:	e3a03000 	mov	r3, #0, 0
    8e08:	e351007f 	cmp	r1, #127, 0	; 0x7f
    8e0c:	c241407f 	subgt	r4, r1, #127, 0	; 0x7f
    8e10:	c0822004 	addgt	r2, r2, r4
    8e14:	e152000e 	cmp	r2, lr
    8e18:	e5c63000 	strb	r3, [r6]
    8e1c:	8a00004f 	bhi	8f60 <emit.constprop.0+0x2a0>
    8e20:	e28ee001 	add	lr, lr, #1, 0
    8e24:	e1a0300e 	mov	r3, lr
    8e28:	e240c001 	sub	ip, r0, #1, 0
    8e2c:	e5734001 	ldrb	r4, [r3, #-1]!
    8e30:	e1530002 	cmp	r3, r2
    8e34:	e5ec4001 	strb	r4, [ip, #1]!
    8e38:	1afffffb 	bne	8e2c <emit.constprop.0+0x16c>
    8e3c:	e04ee003 	sub	lr, lr, r3
    8e40:	e3a03000 	mov	r3, #0, 0
    8e44:	e080e00e 	add	lr, r0, lr
    8e48:	e5ce3000 	strb	r3, [lr]
    8e4c:	e28dd048 	add	sp, sp, #72, 0	; 0x48
    8e50:	e8bd81f0 	pop	{r4, r5, r6, r7, r8, pc}
    8e54:	e3a0307f 	mov	r3, #127, 0	; 0x7f
    8e58:	e28d2008 	add	r2, sp, #8, 0
    8e5c:	e1a0e002 	mov	lr, r2
    8e60:	e59f1164 	ldr	r1, [pc, #356]	; 8fcc <emit.constprop.0+0x30c>
    8e64:	e20c4001 	and	r4, ip, #1, 0
    8e68:	e7d14004 	ldrb	r4, [r1, r4]
    8e6c:	e35c0001 	cmp	ip, #1, 0
    8e70:	e4ce4001 	strb	r4, [lr], #1
    8e74:	e1a0c0ac 	lsr	ip, ip, #1
    8e78:	8afffff9 	bhi	8e64 <emit.constprop.0+0x1a4>
    8e7c:	eaffffb8 	b	8d64 <emit.constprop.0+0xa4>
    8e80:	e24c3002 	sub	r3, ip, #2, 0
    8e84:	e1a0c002 	mov	ip, r2
    8e88:	e353000e 	cmp	r3, #14, 0
    8e8c:	979ff103 	ldrls	pc, [pc, r3, lsl #2]
    8e90:	ea00003d 	b	8f8c <emit.constprop.0+0x2cc>
    8e94:	00008e54 	andeq	r8, r0, r4, asr lr
    8e98:	00008f8c 	andeq	r8, r0, ip, lsl #31
    8e9c:	00008f8c 	andeq	r8, r0, ip, lsl #31
    8ea0:	00008f8c 	andeq	r8, r0, ip, lsl #31
    8ea4:	00008f8c 	andeq	r8, r0, ip, lsl #31
    8ea8:	00008f8c 	andeq	r8, r0, ip, lsl #31
    8eac:	00008fac 	andeq	r8, r0, ip, lsr #31
    8eb0:	00008f8c 	andeq	r8, r0, ip, lsl #31
    8eb4:	00008ed0 	ldrdeq	r8, [r0], -r0
    8eb8:	00008f8c 	andeq	r8, r0, ip, lsl #31
    8ebc:	00008f8c 	andeq	r8, r0, ip, lsl #31
    8ec0:	00008f8c 	andeq	r8, r0, ip, lsl #31
    8ec4:	00008f8c 	andeq	r8, r0, ip, lsl #31
    8ec8:	00008f8c 	andeq	r8, r0, ip, lsl #31
    8ecc:	00008d28 	andeq	r8, r0, r8, lsr #26
    8ed0:	e3a0307f 	mov	r3, #127, 0	; 0x7f
    8ed4:	e59d1060 	ldr	r1, [sp, #96]	; 0x60
    8ed8:	e59f70f0 	ldr	r7, [pc, #240]	; 8fd0 <emit.constprop.0+0x310>
    8edc:	e0118fa2 	ands	r8, r1, r2, lsr #31
    8ee0:	1262c000 	rsbne	ip, r2, #0, 0
    8ee4:	e28d2008 	add	r2, sp, #8, 0
    8ee8:	13a08001 	movne	r8, #1, 0
    8eec:	e1a0e002 	mov	lr, r2
    8ef0:	e59f60dc 	ldr	r6, [pc, #220]	; 8fd4 <emit.constprop.0+0x314>
    8ef4:	e1a0500c 	mov	r5, ip
    8ef8:	e0814c96 	umull	r4, r1, r6, ip
    8efc:	e1a011a1 	lsr	r1, r1, #3
    8f00:	e0814101 	add	r4, r1, r1, lsl #2
    8f04:	e04cc084 	sub	ip, ip, r4, lsl #1
    8f08:	e7d7400c 	ldrb	r4, [r7, ip]
    8f0c:	e3550009 	cmp	r5, #9, 0
    8f10:	e1a0c001 	mov	ip, r1
    8f14:	e1a0100e 	mov	r1, lr
    8f18:	e4ce4001 	strb	r4, [lr], #1
    8f1c:	8afffff4 	bhi	8ef4 <emit.constprop.0+0x234>
    8f20:	e3580000 	cmp	r8, #0, 0
    8f24:	13a0c02d 	movne	ip, #45, 0	; 0x2d
    8f28:	15cec000 	strbne	ip, [lr]
    8f2c:	1281e002 	addne	lr, r1, #2, 0
    8f30:	eaffff8b 	b	8d64 <emit.constprop.0+0xa4>
    8f34:	e3530001 	cmp	r3, #1, 0
    8f38:	e5cd2008 	strb	r2, [sp, #8]
    8f3c:	c3a01001 	movgt	r1, #1, 0
    8f40:	c28de009 	addgt	lr, sp, #9, 0
    8f44:	c28d2008 	addgt	r2, sp, #8, 0
    8f48:	caffff88 	bgt	8d70 <emit.constprop.0+0xb0>
    8f4c:	e3a03000 	mov	r3, #0, 0
    8f50:	e28de008 	add	lr, sp, #8, 0
    8f54:	e1a0200e 	mov	r2, lr
    8f58:	e5cd3009 	strb	r3, [sp, #9]
    8f5c:	eaffffaf 	b	8e20 <emit.constprop.0+0x160>
    8f60:	e1a0e000 	mov	lr, r0
    8f64:	e3a03000 	mov	r3, #0, 0
    8f68:	e5ce3000 	strb	r3, [lr]
    8f6c:	e28dd048 	add	sp, sp, #72, 0	; 0x48
    8f70:	e8bd81f0 	pop	{r4, r5, r6, r7, r8, pc}
    8f74:	e1a0c001 	mov	ip, r1
    8f78:	e1a0500e 	mov	r5, lr
    8f7c:	eaffff92 	b	8dcc <emit.constprop.0+0x10c>
    8f80:	e1a0600e 	mov	r6, lr
    8f84:	e24ee001 	sub	lr, lr, #1, 0
    8f88:	eaffff9d 	b	8e04 <emit.constprop.0+0x144>
    8f8c:	e59f2044 	ldr	r2, [pc, #68]	; 8fd8 <emit.constprop.0+0x318>
    8f90:	e3a03079 	mov	r3, #121, 0	; 0x79
    8f94:	e59f1040 	ldr	r1, [pc, #64]	; 8fdc <emit.constprop.0+0x31c>
    8f98:	e58d2000 	str	r2, [sp]
    8f9c:	e59f003c 	ldr	r0, [pc, #60]	; 8fe0 <emit.constprop.0+0x320>
    8fa0:	e59f203c 	ldr	r2, [pc, #60]	; 8fe4 <emit.constprop.0+0x324>
    8fa4:	ebffff21 	bl	8c30 <printk>
    8fa8:	eb0001b1 	bl	9674 <clean_reboot>
    8fac:	e5cd2008 	strb	r2, [sp, #8]
    8fb0:	e3a0307f 	mov	r3, #127, 0	; 0x7f
    8fb4:	e3a01001 	mov	r1, #1, 0
    8fb8:	e28de009 	add	lr, sp, #9, 0
    8fbc:	e28d2008 	add	r2, sp, #8, 0
    8fc0:	eaffff6a 	b	8d70 <emit.constprop.0+0xb0>
    8fc4:	0000a744 	andeq	sl, r0, r4, asr #14
    8fc8:	20202020 	eorcs	r2, r0, r0, lsr #32
    8fcc:	0000a758 	andeq	sl, r0, r8, asr r7
    8fd0:	0000a75c 	andeq	sl, r0, ip, asr r7
    8fd4:	cccccccd 	stclgt	12, cr12, [ip], {205}	; 0xcd
    8fd8:	0000a5f4 	strdeq	sl, [r0], -r4
    8fdc:	0000a730 	andeq	sl, r0, r0, lsr r7
    8fe0:	0000a2ac 	andeq	sl, r0, ip, lsr #5
    8fe4:	0000a870 	andeq	sl, r0, r0, ror r8

00008fe8 <rpi_set_output>:
    8fe8:	e3500000 	cmp	r0, #0, 0
    8fec:	0a000005 	beq	9008 <rpi_set_output+0x20>
    8ff0:	e59f3038 	ldr	r3, [pc, #56]	; 9030 <rpi_set_output+0x48>
    8ff4:	e3510000 	cmp	r1, #0, 0
    8ff8:	e5830000 	str	r0, [r3]
    8ffc:	159f3030 	ldrne	r3, [pc, #48]	; 9034 <rpi_set_output+0x4c>
    9000:	15831000 	strne	r1, [r3]
    9004:	e12fff1e 	bx	lr
    9008:	e52de004 	push	{lr}		; (str lr, [sp, #-4]!)
    900c:	e59f2024 	ldr	r2, [pc, #36]	; 9038 <rpi_set_output+0x50>
    9010:	e24dd00c 	sub	sp, sp, #12, 0
    9014:	e3a03020 	mov	r3, #32, 0
    9018:	e59f101c 	ldr	r1, [pc, #28]	; 903c <rpi_set_output+0x54>
    901c:	e58d2000 	str	r2, [sp]
    9020:	e59f0018 	ldr	r0, [pc, #24]	; 9040 <rpi_set_output+0x58>
    9024:	e59f2018 	ldr	r2, [pc, #24]	; 9044 <rpi_set_output+0x5c>
    9028:	ebffff00 	bl	8c30 <printk>
    902c:	eb000190 	bl	9674 <clean_reboot>
    9030:	0000aaac 	andeq	sl, r0, ip, lsr #21
    9034:	0000aa9c 	muleq	r0, ip, sl
    9038:	0000a768 	andeq	sl, r0, r8, ror #14
    903c:	0000a730 	andeq	sl, r0, r0, lsr r7
    9040:	0000a2ac 	andeq	sl, r0, ip, lsr #5
    9044:	0000a878 	andeq	sl, r0, r8, ror r8

00009048 <va_printk>:
    9048:	e92d4ff0 	push	{r4, r5, r6, r7, r8, r9, sl, fp, lr}
    904c:	e1a0b000 	mov	fp, r0
    9050:	e3a00000 	mov	r0, #0, 0
    9054:	e5cb0000 	strb	r0, [fp]
    9058:	e5d2c000 	ldrb	ip, [r2]
    905c:	e2417001 	sub	r7, r1, #1, 0
    9060:	e08b7007 	add	r7, fp, r7
    9064:	e15c0000 	cmp	ip, r0
    9068:	115b0007 	cmpne	fp, r7
    906c:	e24ddf47 	sub	sp, sp, #284	; 0x11c
    9070:	e58d2010 	str	r2, [sp, #16]
    9074:	2a000159 	bcs	95e0 <va_printk+0x598>
    9078:	e1a06002 	mov	r6, r2
    907c:	e1a08003 	mov	r8, r3
    9080:	e1a0400b 	mov	r4, fp
    9084:	e59fa5a4 	ldr	sl, [pc, #1444]	; 9630 <va_printk+0x5e8>
    9088:	e58db00c 	str	fp, [sp, #12]
    908c:	ea000005 	b	90a8 <va_printk+0x60>
    9090:	e4c4c001 	strb	ip, [r4], #1
    9094:	e2866001 	add	r6, r6, #1, 0
    9098:	e5d6c000 	ldrb	ip, [r6]
    909c:	e35c0000 	cmp	ip, #0, 0
    90a0:	11570004 	cmpne	r7, r4
    90a4:	9a00002f 	bls	9168 <va_printk+0x120>
    90a8:	e35c0025 	cmp	ip, #37, 0	; 0x25
    90ac:	1afffff7 	bne	9090 <va_printk+0x48>
    90b0:	e5d62001 	ldrb	r2, [r6, #1]
    90b4:	e3520025 	cmp	r2, #37, 0	; 0x25
    90b8:	04c4c001 	strbeq	ip, [r4], #1
    90bc:	02866002 	addeq	r6, r6, #2, 0
    90c0:	0afffff4 	beq	9098 <va_printk+0x50>
    90c4:	e2423030 	sub	r3, r2, #48, 0	; 0x30
    90c8:	e3530009 	cmp	r3, #9, 0
    90cc:	e3a05000 	mov	r5, #0, 0
    90d0:	e2866001 	add	r6, r6, #1, 0
    90d4:	8a000008 	bhi	90fc <va_printk+0xb4>
    90d8:	e0855105 	add	r5, r5, r5, lsl #2
    90dc:	e0825085 	add	r5, r2, r5, lsl #1
    90e0:	e5f62001 	ldrb	r2, [r6, #1]!
    90e4:	e2455030 	sub	r5, r5, #48, 0	; 0x30
    90e8:	e2423030 	sub	r3, r2, #48, 0	; 0x30
    90ec:	e3530009 	cmp	r3, #9, 0
    90f0:	9afffff8 	bls	90d8 <va_printk+0x90>
    90f4:	e355001f 	cmp	r5, #31, 0
    90f8:	8a00013a 	bhi	95e8 <va_printk+0x5a0>
    90fc:	e2423062 	sub	r3, r2, #98, 0	; 0x62
    9100:	e3530016 	cmp	r3, #22, 0
    9104:	979ff103 	ldrls	pc, [pc, r3, lsl #2]
    9108:	ea00011b 	b	957c <va_printk+0x534>
    910c:	000093c0 	andeq	r9, r0, r0, asr #7
    9110:	000092bc 			; <UNDEFINED> instruction: 0x000092bc
    9114:	000092b4 			; <UNDEFINED> instruction: 0x000092b4
    9118:	0000957c 	andeq	r9, r0, ip, ror r5
    911c:	000095b8 			; <UNDEFINED> instruction: 0x000095b8
    9120:	0000957c 	andeq	r9, r0, ip, ror r5
    9124:	0000957c 	andeq	r9, r0, ip, ror r5
    9128:	0000957c 	andeq	r9, r0, ip, ror r5
    912c:	0000957c 	andeq	r9, r0, ip, ror r5
    9130:	0000957c 	andeq	r9, r0, ip, ror r5
    9134:	000091c4 	andeq	r9, r0, r4, asr #3
    9138:	0000957c 	andeq	r9, r0, ip, ror r5
    913c:	0000957c 	andeq	r9, r0, ip, ror r5
    9140:	0000957c 	andeq	r9, r0, ip, ror r5
    9144:	00009180 	andeq	r9, r0, r0, lsl #3
    9148:	0000957c 	andeq	r9, r0, ip, ror r5
    914c:	0000957c 	andeq	r9, r0, ip, ror r5
    9150:	000094b8 			; <UNDEFINED> instruction: 0x000094b8
    9154:	0000957c 	andeq	r9, r0, ip, ror r5
    9158:	00009290 	muleq	r0, r0, r2
    915c:	0000957c 	andeq	r9, r0, ip, ror r5
    9160:	0000957c 	andeq	r9, r0, ip, ror r5
    9164:	00009180 	andeq	r9, r0, r0, lsl #3
    9168:	e59db00c 	ldr	fp, [sp, #12]
    916c:	e3a03000 	mov	r3, #0, 0
    9170:	e4c43001 	strb	r3, [r4], #1
    9174:	e044000b 	sub	r0, r4, fp
    9178:	e28ddf47 	add	sp, sp, #284	; 0x11c
    917c:	e8bd8ff0 	pop	{r4, r5, r6, r7, r8, r9, sl, fp, pc}
    9180:	e3a01000 	mov	r1, #0, 0
    9184:	e1a03005 	mov	r3, r5
    9188:	e4982004 	ldr	r2, [r8], #4
    918c:	e3a00010 	mov	r0, #16, 0
    9190:	e58d1000 	str	r1, [sp]
    9194:	e28d1018 	add	r1, sp, #24, 0
    9198:	ebfffec8 	bl	8cc0 <emit.constprop.0>
    919c:	e1a05000 	mov	r5, r0
    91a0:	e2866001 	add	r6, r6, #1, 0
    91a4:	e2455001 	sub	r5, r5, #1, 0
    91a8:	e5f53001 	ldrb	r3, [r5, #1]!
    91ac:	e3530000 	cmp	r3, #0, 0
    91b0:	0affffb8 	beq	9098 <va_printk+0x50>
    91b4:	e4c43001 	strb	r3, [r4], #1
    91b8:	e1570004 	cmp	r7, r4
    91bc:	8afffff9 	bhi	91a8 <va_printk+0x160>
    91c0:	eaffffb4 	b	9098 <va_printk+0x50>
    91c4:	e3a02003 	mov	r2, #3, 0
    91c8:	e1a00006 	mov	r0, r6
    91cc:	e59f1460 	ldr	r1, [pc, #1120]	; 9634 <va_printk+0x5ec>
    91d0:	eb0003da 	bl	a140 <strncmp>
    91d4:	e3500000 	cmp	r0, #0, 0
    91d8:	0a000005 	beq	91f4 <va_printk+0x1ac>
    91dc:	e3a02003 	mov	r2, #3, 0
    91e0:	e1a00006 	mov	r0, r6
    91e4:	e59f144c 	ldr	r1, [pc, #1100]	; 9638 <va_printk+0x5f0>
    91e8:	eb0003d4 	bl	a140 <strncmp>
    91ec:	e3500000 	cmp	r0, #0, 0
    91f0:	1a00010b 	bne	9624 <va_printk+0x5dc>
    91f4:	e2888007 	add	r8, r8, #7, 0
    91f8:	e3c88007 	bic	r8, r8, #7, 0
    91fc:	e598b004 	ldr	fp, [r8, #4]
    9200:	e4989008 	ldr	r9, [r8], #8
    9204:	e1a0100b 	mov	r1, fp
    9208:	e59f042c 	ldr	r0, [pc, #1068]	; 963c <va_printk+0x5f4>
    920c:	ebfffe87 	bl	8c30 <printk>
    9210:	e1a01009 	mov	r1, r9
    9214:	e59f0424 	ldr	r0, [pc, #1060]	; 9640 <va_printk+0x5f8>
    9218:	ebfffe84 	bl	8c30 <printk>
    921c:	e3a02003 	mov	r2, #3, 0
    9220:	e1a00006 	mov	r0, r6
    9224:	e59f1408 	ldr	r1, [pc, #1032]	; 9634 <va_printk+0x5ec>
    9228:	eb0003c4 	bl	a140 <strncmp>
    922c:	e2503000 	subs	r3, r0, #0, 0
    9230:	e1a02003 	mov	r2, r3
    9234:	e2863002 	add	r3, r6, #2, 0
    9238:	e58d3014 	str	r3, [sp, #20]
    923c:	1a00009f 	bne	94c0 <va_printk+0x478>
    9240:	e1a06002 	mov	r6, r2
    9244:	e1a03005 	mov	r3, r5
    9248:	e58d2000 	str	r2, [sp]
    924c:	e28d1018 	add	r1, sp, #24, 0
    9250:	e1a0200b 	mov	r2, fp
    9254:	e3a00010 	mov	r0, #16, 0
    9258:	ebfffe98 	bl	8cc0 <emit.constprop.0>
    925c:	e1a0c000 	mov	ip, r0
    9260:	e1a03005 	mov	r3, r5
    9264:	e58d6000 	str	r6, [sp]
    9268:	e28d1098 	add	r1, sp, #152, 0	; 0x98
    926c:	e1a02009 	mov	r2, r9
    9270:	e3a00010 	mov	r0, #16, 0
    9274:	e1a0500c 	mov	r5, ip
    9278:	ebfffe90 	bl	8cc0 <emit.constprop.0>
    927c:	e28d0018 	add	r0, sp, #24, 0
    9280:	e28d109a 	add	r1, sp, #154, 0	; 0x9a
    9284:	e59d6014 	ldr	r6, [sp, #20]
    9288:	eb00038a 	bl	a0b8 <strcat>
    928c:	eaffffc3 	b	91a0 <va_printk+0x158>
    9290:	e3a01000 	mov	r1, #0, 0
    9294:	e1a03005 	mov	r3, r5
    9298:	e4982004 	ldr	r2, [r8], #4
    929c:	e3a0000a 	mov	r0, #10, 0
    92a0:	e58d1000 	str	r1, [sp]
    92a4:	e28d1018 	add	r1, sp, #24, 0
    92a8:	ebfffe84 	bl	8cc0 <emit.constprop.0>
    92ac:	e1a05000 	mov	r5, r0
    92b0:	eaffffba 	b	91a0 <va_printk+0x158>
    92b4:	e3a01001 	mov	r1, #1, 0
    92b8:	eafffff5 	b	9294 <va_printk+0x24c>
    92bc:	e4983004 	ldr	r3, [r8], #4
    92c0:	e3550001 	cmp	r5, #1, 0
    92c4:	e5cd3098 	strb	r3, [sp, #152]	; 0x98
    92c8:	9a0000a6 	bls	9568 <va_printk+0x520>
    92cc:	e2453002 	sub	r3, r5, #2, 0
    92d0:	e3530002 	cmp	r3, #2, 0
    92d4:	e2451001 	sub	r1, r5, #1, 0
    92d8:	9a0000bc 	bls	95d0 <va_printk+0x588>
    92dc:	e59f0360 	ldr	r0, [pc, #864]	; 9644 <va_printk+0x5fc>
    92e0:	e1a02121 	lsr	r2, r1, #2
    92e4:	e3520001 	cmp	r2, #1, 0
    92e8:	e58d0099 	str	r0, [sp, #153]	; 0x99
    92ec:	0a00000e 	beq	932c <va_printk+0x2e4>
    92f0:	e3520002 	cmp	r2, #2, 0
    92f4:	e58d009d 	str	r0, [sp, #157]	; 0x9d
    92f8:	0a00000b 	beq	932c <va_printk+0x2e4>
    92fc:	e3520003 	cmp	r2, #3, 0
    9300:	e58d00a1 	str	r0, [sp, #161]	; 0xa1
    9304:	0a000008 	beq	932c <va_printk+0x2e4>
    9308:	e3520004 	cmp	r2, #4, 0
    930c:	e58d00a5 	str	r0, [sp, #165]	; 0xa5
    9310:	0a000005 	beq	932c <va_printk+0x2e4>
    9314:	e3520005 	cmp	r2, #5, 0
    9318:	e58d00a9 	str	r0, [sp, #169]	; 0xa9
    931c:	0a000002 	beq	932c <va_printk+0x2e4>
    9320:	e3520007 	cmp	r2, #7, 0
    9324:	e58d00ad 	str	r0, [sp, #173]	; 0xad
    9328:	058d00b1 	streq	r0, [sp, #177]	; 0xb1
    932c:	e3c12003 	bic	r2, r1, #3, 0
    9330:	e1510002 	cmp	r1, r2
    9334:	e28dc099 	add	ip, sp, #153, 0	; 0x99
    9338:	e08c0002 	add	r0, ip, r2
    933c:	e2822001 	add	r2, r2, #1, 0
    9340:	0a000008 	beq	9368 <va_printk+0x320>
    9344:	e3a0e020 	mov	lr, #32, 0
    9348:	e2829001 	add	r9, r2, #1, 0
    934c:	e1550009 	cmp	r5, r9
    9350:	e5c0e000 	strb	lr, [r0]
    9354:	da000003 	ble	9368 <va_printk+0x320>
    9358:	e2822002 	add	r2, r2, #2, 0
    935c:	e1550002 	cmp	r5, r2
    9360:	e5c0e001 	strb	lr, [r0, #1]
    9364:	c5c0e002 	strbgt	lr, [r0, #2]
    9368:	e3a0e000 	mov	lr, #0, 0
    936c:	e28d0098 	add	r0, sp, #152, 0	; 0x98
    9370:	e08c2001 	add	r2, ip, r1
    9374:	e0422000 	sub	r2, r2, r0
    9378:	e352007f 	cmp	r2, #127, 0	; 0x7f
    937c:	c242207f 	subgt	r2, r2, #127, 0	; 0x7f
    9380:	e08c3003 	add	r3, ip, r3
    9384:	c0800002 	addgt	r0, r0, r2
    9388:	e1530000 	cmp	r3, r0
    938c:	e7cce001 	strb	lr, [ip, r1]
    9390:	3a00006c 	bcc	9548 <va_printk+0x500>
    9394:	e283c001 	add	ip, r3, #1, 0
    9398:	e1a0300c 	mov	r3, ip
    939c:	e28d5018 	add	r5, sp, #24, 0
    93a0:	e2452001 	sub	r2, r5, #1, 0
    93a4:	e5731001 	ldrb	r1, [r3, #-1]!
    93a8:	e1500003 	cmp	r0, r3
    93ac:	e5e21001 	strb	r1, [r2, #1]!
    93b0:	1afffffb 	bne	93a4 <va_printk+0x35c>
    93b4:	e04c3000 	sub	r3, ip, r0
    93b8:	e0853003 	add	r3, r5, r3
    93bc:	ea00003a 	b	94ac <va_printk+0x464>
    93c0:	e28d1098 	add	r1, sp, #152, 0	; 0x98
    93c4:	e1a03001 	mov	r3, r1
    93c8:	e4980004 	ldr	r0, [r8], #4
    93cc:	e200c001 	and	ip, r0, #1, 0
    93d0:	e7dac00c 	ldrb	ip, [sl, ip]
    93d4:	e3500001 	cmp	r0, #1, 0
    93d8:	e1a02003 	mov	r2, r3
    93dc:	e1a000a0 	lsr	r0, r0, #1
    93e0:	e4c3c001 	strb	ip, [r3], #1
    93e4:	8afffff8 	bhi	93cc <va_printk+0x384>
    93e8:	e0430001 	sub	r0, r3, r1
    93ec:	e1550000 	cmp	r5, r0
    93f0:	da000057 	ble	9554 <va_printk+0x50c>
    93f4:	e045c000 	sub	ip, r5, r0
    93f8:	e24ce001 	sub	lr, ip, #1, 0
    93fc:	e35e0002 	cmp	lr, #2, 0
    9400:	e1a0e003 	mov	lr, r3
    9404:	9a00000a 	bls	9434 <va_printk+0x3ec>
    9408:	e3cc9003 	bic	r9, ip, #3, 0
    940c:	e0899003 	add	r9, r9, r3
    9410:	e59fb22c 	ldr	fp, [pc, #556]	; 9644 <va_printk+0x5fc>
    9414:	e48eb004 	str	fp, [lr], #4
    9418:	e15e0009 	cmp	lr, r9
    941c:	1afffffb 	bne	9410 <va_printk+0x3c8>
    9420:	e3cce003 	bic	lr, ip, #3, 0
    9424:	e15e000c 	cmp	lr, ip
    9428:	e080000e 	add	r0, r0, lr
    942c:	e083e00e 	add	lr, r3, lr
    9430:	0a000008 	beq	9458 <va_printk+0x410>
    9434:	e3a09020 	mov	r9, #32, 0
    9438:	e280b001 	add	fp, r0, #1, 0
    943c:	e155000b 	cmp	r5, fp
    9440:	e5ce9000 	strb	r9, [lr]
    9444:	da000003 	ble	9458 <va_printk+0x410>
    9448:	e2800002 	add	r0, r0, #2, 0
    944c:	e1550000 	cmp	r5, r0
    9450:	e5ce9001 	strb	r9, [lr, #1]
    9454:	c5ce9002 	strbgt	r9, [lr, #2]
    9458:	e3a0e000 	mov	lr, #0, 0
    945c:	e083000c 	add	r0, r3, ip
    9460:	e0400001 	sub	r0, r0, r1
    9464:	e350007f 	cmp	r0, #127, 0	; 0x7f
    9468:	e082200c 	add	r2, r2, ip
    946c:	e7c3e00c 	strb	lr, [r3, ip]
    9470:	da000001 	ble	947c <va_printk+0x434>
    9474:	e240007f 	sub	r0, r0, #127, 0	; 0x7f
    9478:	e0811000 	add	r1, r1, r0
    947c:	e1510002 	cmp	r1, r2
    9480:	8a000030 	bhi	9548 <va_printk+0x500>
    9484:	e2822001 	add	r2, r2, #1, 0
    9488:	e1a03002 	mov	r3, r2
    948c:	e28d5018 	add	r5, sp, #24, 0
    9490:	e245c001 	sub	ip, r5, #1, 0
    9494:	e5730001 	ldrb	r0, [r3, #-1]!
    9498:	e1530001 	cmp	r3, r1
    949c:	e5ec0001 	strb	r0, [ip, #1]!
    94a0:	1afffffb 	bne	9494 <va_printk+0x44c>
    94a4:	e0423003 	sub	r3, r2, r3
    94a8:	e0853003 	add	r3, r5, r3
    94ac:	e3a02000 	mov	r2, #0, 0
    94b0:	e5c32000 	strb	r2, [r3]
    94b4:	eaffff39 	b	91a0 <va_printk+0x158>
    94b8:	e4985004 	ldr	r5, [r8], #4
    94bc:	eaffff37 	b	91a0 <va_printk+0x158>
    94c0:	e3a02003 	mov	r2, #3, 0
    94c4:	e1a00006 	mov	r0, r6
    94c8:	e59f1168 	ldr	r1, [pc, #360]	; 9638 <va_printk+0x5f0>
    94cc:	eb00031b 	bl	a140 <strncmp>
    94d0:	e2503000 	subs	r3, r0, #0, 0
    94d4:	1a00004b 	bne	9608 <va_printk+0x5c0>
    94d8:	e1a06003 	mov	r6, r3
    94dc:	e1a0200b 	mov	r2, fp
    94e0:	e58d3000 	str	r3, [sp]
    94e4:	e28d1018 	add	r1, sp, #24, 0
    94e8:	e1a03005 	mov	r3, r5
    94ec:	e3a0000a 	mov	r0, #10, 0
    94f0:	ebfffdf2 	bl	8cc0 <emit.constprop.0>
    94f4:	e1a0c000 	mov	ip, r0
    94f8:	e1a03005 	mov	r3, r5
    94fc:	e1a02009 	mov	r2, r9
    9500:	e28d1098 	add	r1, sp, #152, 0	; 0x98
    9504:	e3a0000a 	mov	r0, #10, 0
    9508:	e58d6000 	str	r6, [sp]
    950c:	e1a0500c 	mov	r5, ip
    9510:	ebfffdea 	bl	8cc0 <emit.constprop.0>
    9514:	e59f112c 	ldr	r1, [pc, #300]	; 9648 <va_printk+0x600>
    9518:	e28d0018 	add	r0, sp, #24, 0
    951c:	eb0002f0 	bl	a0e4 <strcmp>
    9520:	e3500000 	cmp	r0, #0, 0
    9524:	e28d1098 	add	r1, sp, #152, 0	; 0x98
    9528:	e28d0018 	add	r0, sp, #24, 0
    952c:	1a000002 	bne	953c <va_printk+0x4f4>
    9530:	eb0002fc 	bl	a128 <strcpy>
    9534:	e59d6014 	ldr	r6, [sp, #20]
    9538:	eaffff18 	b	91a0 <va_printk+0x158>
    953c:	eb0002dd 	bl	a0b8 <strcat>
    9540:	e59d6014 	ldr	r6, [sp, #20]
    9544:	eaffff15 	b	91a0 <va_printk+0x158>
    9548:	e28d5018 	add	r5, sp, #24, 0
    954c:	e1a03005 	mov	r3, r5
    9550:	eaffffd5 	b	94ac <va_printk+0x464>
    9554:	e3a0c000 	mov	ip, #0, 0
    9558:	e350007f 	cmp	r0, #127, 0	; 0x7f
    955c:	e5c3c000 	strb	ip, [r3]
    9560:	caffffc3 	bgt	9474 <va_printk+0x42c>
    9564:	eaffffc6 	b	9484 <va_printk+0x43c>
    9568:	e3a02000 	mov	r2, #0, 0
    956c:	e28d3098 	add	r3, sp, #152, 0	; 0x98
    9570:	e1a00003 	mov	r0, r3
    9574:	e5cd2099 	strb	r2, [sp, #153]	; 0x99
    9578:	eaffff85 	b	9394 <va_printk+0x34c>
    957c:	e3a03000 	mov	r3, #0, 0
    9580:	e1a01002 	mov	r1, r2
    9584:	e5c63001 	strb	r3, [r6, #1]
    9588:	e59f00bc 	ldr	r0, [pc, #188]	; 964c <va_printk+0x604>
    958c:	ebfffda7 	bl	8c30 <printk>
    9590:	e59f30b8 	ldr	r3, [pc, #184]	; 9650 <va_printk+0x608>
    9594:	e59d0010 	ldr	r0, [sp, #16]
    9598:	e5933000 	ldr	r3, [r3]
    959c:	e12fff33 	blx	r3
    95a0:	e3a030e2 	mov	r3, #226, 0	; 0xe2
    95a4:	e59f20a8 	ldr	r2, [pc, #168]	; 9654 <va_printk+0x60c>
    95a8:	e59f10a8 	ldr	r1, [pc, #168]	; 9658 <va_printk+0x610>
    95ac:	e59f00a8 	ldr	r0, [pc, #168]	; 965c <va_printk+0x614>
    95b0:	ebfffd9e 	bl	8c30 <printk>
    95b4:	eb00002e 	bl	9674 <clean_reboot>
    95b8:	e3a030be 	mov	r3, #190, 0	; 0xbe
    95bc:	e59f2090 	ldr	r2, [pc, #144]	; 9654 <va_printk+0x60c>
    95c0:	e59f1090 	ldr	r1, [pc, #144]	; 9658 <va_printk+0x610>
    95c4:	e59f0094 	ldr	r0, [pc, #148]	; 9660 <va_printk+0x618>
    95c8:	ebfffd98 	bl	8c30 <printk>
    95cc:	eb000028 	bl	9674 <clean_reboot>
    95d0:	e28dc099 	add	ip, sp, #153, 0	; 0x99
    95d4:	e1a0000c 	mov	r0, ip
    95d8:	e3a02001 	mov	r2, #1, 0
    95dc:	eaffff58 	b	9344 <va_printk+0x2fc>
    95e0:	e1a0400b 	mov	r4, fp
    95e4:	eafffee0 	b	916c <va_printk+0x124>
    95e8:	e3a03098 	mov	r3, #152, 0	; 0x98
    95ec:	e59f2070 	ldr	r2, [pc, #112]	; 9664 <va_printk+0x61c>
    95f0:	e59f1060 	ldr	r1, [pc, #96]	; 9658 <va_printk+0x610>
    95f4:	e58d2000 	str	r2, [sp]
    95f8:	e59f0068 	ldr	r0, [pc, #104]	; 9668 <va_printk+0x620>
    95fc:	e59f2050 	ldr	r2, [pc, #80]	; 9654 <va_printk+0x60c>
    9600:	ebfffd8a 	bl	8c30 <printk>
    9604:	eb00001a 	bl	9674 <clean_reboot>
    9608:	e3a030b6 	mov	r3, #182, 0	; 0xb6
    960c:	e59f2040 	ldr	r2, [pc, #64]	; 9654 <va_printk+0x60c>
    9610:	e59f1040 	ldr	r1, [pc, #64]	; 9658 <va_printk+0x610>
    9614:	e59f0050 	ldr	r0, [pc, #80]	; 966c <va_printk+0x624>
    9618:	e58d6000 	str	r6, [sp]
    961c:	ebfffd83 	bl	8c30 <printk>
    9620:	eb000013 	bl	9674 <clean_reboot>
    9624:	e3a0309f 	mov	r3, #159, 0	; 0x9f
    9628:	e59f2040 	ldr	r2, [pc, #64]	; 9670 <va_printk+0x628>
    962c:	eaffffef 	b	95f0 <va_printk+0x5a8>
    9630:	0000a758 	andeq	sl, r0, r8, asr r7
    9634:	0000a77c 	andeq	sl, r0, ip, ror r7
    9638:	0000a790 	muleq	r0, r0, r7
    963c:	0000a780 	andeq	sl, r0, r0, lsl #15
    9640:	0000a788 	andeq	sl, r0, r8, lsl #15
    9644:	20202020 	eorcs	r2, r0, r0, lsr #32
    9648:	0000a5f4 	strdeq	sl, [r0], -r4
    964c:	0000a820 	andeq	sl, r0, r0, lsr #16
    9650:	0000aa9c 	muleq	r0, ip, sl
    9654:	0000a888 	andeq	sl, r0, r8, lsl #17
    9658:	0000a730 	andeq	sl, r0, r0, lsr r7
    965c:	0000a850 	andeq	sl, r0, r0, asr r8
    9660:	0000a7f8 	strdeq	sl, [r0], -r8
    9664:	0000a770 	andeq	sl, r0, r0, ror r7
    9668:	0000a2ac 	andeq	sl, r0, ip, lsr #5
    966c:	0000a7d0 	ldrdeq	sl, [r0], -r0
    9670:	0000a794 	muleq	r0, r4, r7

00009674 <clean_reboot>:
    9674:	e59f301c 	ldr	r3, [pc, #28]	; 9698 <clean_reboot+0x24>
    9678:	e92d4010 	push	{r4, lr}
    967c:	e5933000 	ldr	r3, [r3]
    9680:	e59f0014 	ldr	r0, [pc, #20]	; 969c <clean_reboot+0x28>
    9684:	e12fff33 	blx	r3
    9688:	eb00011b 	bl	9afc <uart_flush_tx>
    968c:	e3a0000a 	mov	r0, #10, 0
    9690:	eb000082 	bl	98a0 <delay_ms>
    9694:	eb00004b 	bl	97c8 <rpi_reboot>
    9698:	0000aa9c 	muleq	r0, ip, sl
    969c:	0000a894 	muleq	r0, r4, r8

000096a0 <_cstart>:
    96a0:	e92d4070 	push	{r4, r5, r6, lr}
    96a4:	eb00003b 	bl	9798 <custom_loader>
    96a8:	e59f20e0 	ldr	r2, [pc, #224]	; 9790 <_cstart+0xf0>
    96ac:	e59fc0e0 	ldr	ip, [pc, #224]	; 9794 <_cstart+0xf4>
    96b0:	e152000c 	cmp	r2, ip
    96b4:	2a00002e 	bcs	9774 <_cstart+0xd4>
    96b8:	e24c1001 	sub	r1, ip, #1, 0
    96bc:	e0411002 	sub	r1, r1, r2
    96c0:	e3510017 	cmp	r1, #23, 0
    96c4:	e1a03122 	lsr	r3, r2, #2
    96c8:	e1a01121 	lsr	r1, r1, #2
    96cc:	e2811001 	add	r1, r1, #1, 0
    96d0:	e2033001 	and	r3, r3, #1, 0
    96d4:	9a00002b 	bls	9788 <_cstart+0xe8>
    96d8:	e3530000 	cmp	r3, #0, 0
    96dc:	11a00002 	movne	r0, r2
    96e0:	13a0e000 	movne	lr, #0, 0
    96e4:	e3a04000 	mov	r4, #0, 0
    96e8:	e3a05000 	mov	r5, #0, 0
    96ec:	e0411003 	sub	r1, r1, r3
    96f0:	01a00002 	moveq	r0, r2
    96f4:	e0823103 	add	r3, r2, r3, lsl #2
    96f8:	e1a020a1 	lsr	r2, r1, #1
    96fc:	1480e004 	strne	lr, [r0], #4
    9700:	e0832182 	add	r2, r3, r2, lsl #3
    9704:	e0c340f8 	strd	r4, [r3], #8
    9708:	e1520003 	cmp	r2, r3
    970c:	1afffffc 	bne	9704 <_cstart+0x64>
    9710:	e3c13001 	bic	r3, r1, #1, 0
    9714:	e1510003 	cmp	r1, r3
    9718:	e0803103 	add	r3, r0, r3, lsl #2
    971c:	0a000014 	beq	9774 <_cstart+0xd4>
    9720:	e1a01003 	mov	r1, r3
    9724:	e3a02000 	mov	r2, #0, 0
    9728:	e4812004 	str	r2, [r1], #4
    972c:	e151000c 	cmp	r1, ip
    9730:	2a00000f 	bcs	9774 <_cstart+0xd4>
    9734:	e2831008 	add	r1, r3, #8, 0
    9738:	e151000c 	cmp	r1, ip
    973c:	e5832004 	str	r2, [r3, #4]
    9740:	2a00000b 	bcs	9774 <_cstart+0xd4>
    9744:	e283100c 	add	r1, r3, #12, 0
    9748:	e151000c 	cmp	r1, ip
    974c:	e5832008 	str	r2, [r3, #8]
    9750:	2a000007 	bcs	9774 <_cstart+0xd4>
    9754:	e2831010 	add	r1, r3, #16, 0
    9758:	e151000c 	cmp	r1, ip
    975c:	e583200c 	str	r2, [r3, #12]
    9760:	2a000003 	bcs	9774 <_cstart+0xd4>
    9764:	e2831014 	add	r1, r3, #20, 0
    9768:	e151000c 	cmp	r1, ip
    976c:	e5832010 	str	r2, [r3, #16]
    9770:	35832014 	strcc	r2, [r3, #20]
    9774:	eb000082 	bl	9984 <uart_init>
    9778:	e3a03001 	mov	r3, #1, 0
    977c:	ee0f3f1c 	mcr	15, 0, r3, cr15, cr12, {0}
    9780:	ebfffa46 	bl	80a0 <notmain>
    9784:	ebffffba 	bl	9674 <clean_reboot>
    9788:	e1a03002 	mov	r3, r2
    978c:	eaffffe3 	b	9720 <_cstart+0x80>
    9790:	0000aab0 			; <UNDEFINED> instruction: 0x0000aab0
    9794:	0000aed8 	ldrdeq	sl, [r0], -r8

00009798 <custom_loader>:
    9798:	e12fff1e 	bx	lr

0000979c <at_user_level>:
    979c:	e10f0000 	mrs	r0, CPSR
    97a0:	e200001f 	and	r0, r0, #31, 0
    97a4:	e2400010 	sub	r0, r0, #16, 0
    97a8:	e16f0f10 	clz	r0, r0
    97ac:	e1a002a0 	lsr	r0, r0, #5
    97b0:	e12fff1e 	bx	lr

000097b4 <set_user_level>:
    97b4:	e10f3000 	mrs	r3, CPSR
    97b8:	e3c3301f 	bic	r3, r3, #31, 0
    97bc:	e3833010 	orr	r3, r3, #16, 0
    97c0:	e129f003 	msr	CPSR_fc, r3
    97c4:	e12fff1e 	bx	lr

000097c8 <rpi_reboot>:
    97c8:	e92d4010 	push	{r4, lr}
    97cc:	e10f3000 	mrs	r3, CPSR
    97d0:	e203301f 	and	r3, r3, #31, 0
    97d4:	e3530010 	cmp	r3, #16, 0
    97d8:	1a000003 	bne	97ec <rpi_reboot+0x24>
    97dc:	e10f3000 	mrs	r3, CPSR
    97e0:	e3c3301f 	bic	r3, r3, #31, 0
    97e4:	e3833010 	orr	r3, r3, #16, 0
    97e8:	e129f003 	msr	CPSR_fc, r3
    97ec:	eb00025f 	bl	a170 <reboot_callout>
    97f0:	eb0000c1 	bl	9afc <uart_flush_tx>
    97f4:	e3a0000a 	mov	r0, #10, 0
    97f8:	eb000028 	bl	98a0 <delay_ms>
    97fc:	e59f1014 	ldr	r1, [pc, #20]	; 9818 <rpi_reboot+0x50>
    9800:	e59f0014 	ldr	r0, [pc, #20]	; 981c <rpi_reboot+0x54>
    9804:	ebfffa06 	bl	8024 <PUT32>
    9808:	e59f1010 	ldr	r1, [pc, #16]	; 9820 <rpi_reboot+0x58>
    980c:	e59f0010 	ldr	r0, [pc, #16]	; 9824 <rpi_reboot+0x5c>
    9810:	ebfffa03 	bl	8024 <PUT32>
    9814:	eafffffe 	b	9814 <rpi_reboot+0x4c>
    9818:	5a000001 	bpl	9824 <rpi_reboot+0x5c>
    981c:	20100024 	andscs	r0, r0, r4, lsr #32
    9820:	5a000020 	bpl	98a8 <delay_ms+0x8>
    9824:	2010001c 	andscs	r0, r0, ip, lsl r0

00009828 <timer_get_usec_raw>:
    9828:	e59f0000 	ldr	r0, [pc]	; 9830 <timer_get_usec_raw+0x8>
    982c:	eafff9fe 	b	802c <GET32>
    9830:	20003004 	andcs	r3, r0, r4

00009834 <timer_get_usec>:
    9834:	e92d4010 	push	{r4, lr}
    9838:	eb00024d 	bl	a174 <dev_barrier>
    983c:	e59f0010 	ldr	r0, [pc, #16]	; 9854 <timer_get_usec+0x20>
    9840:	ebfff9f9 	bl	802c <GET32>
    9844:	e1a04000 	mov	r4, r0
    9848:	eb000249 	bl	a174 <dev_barrier>
    984c:	e1a00004 	mov	r0, r4
    9850:	e8bd8010 	pop	{r4, pc}
    9854:	20003004 	andcs	r3, r0, r4

00009858 <delay_us>:
    9858:	e92d41f0 	push	{r4, r5, r6, r7, r8, lr}
    985c:	e1a06000 	mov	r6, r0
    9860:	eb000243 	bl	a174 <dev_barrier>
    9864:	e59f0030 	ldr	r0, [pc, #48]	; 989c <delay_us+0x44>
    9868:	ebfff9ef 	bl	802c <GET32>
    986c:	e1a05000 	mov	r5, r0
    9870:	eb00023f 	bl	a174 <dev_barrier>
    9874:	e59f7020 	ldr	r7, [pc, #32]	; 989c <delay_us+0x44>
    9878:	eb00023d 	bl	a174 <dev_barrier>
    987c:	e1a00007 	mov	r0, r7
    9880:	ebfff9e9 	bl	802c <GET32>
    9884:	e1a04000 	mov	r4, r0
    9888:	e0444005 	sub	r4, r4, r5
    988c:	eb000238 	bl	a174 <dev_barrier>
    9890:	e1540006 	cmp	r4, r6
    9894:	3afffff7 	bcc	9878 <delay_us+0x20>
    9898:	e8bd81f0 	pop	{r4, r5, r6, r7, r8, pc}
    989c:	20003004 	andcs	r3, r0, r4

000098a0 <delay_ms>:
    98a0:	e92d41f0 	push	{r4, r5, r6, r7, r8, lr}
    98a4:	e0604280 	rsb	r4, r0, r0, lsl #5
    98a8:	e0800104 	add	r0, r0, r4, lsl #2
    98ac:	e1a04180 	lsl	r4, r0, #3
    98b0:	eb00022f 	bl	a174 <dev_barrier>
    98b4:	e59f0030 	ldr	r0, [pc, #48]	; 98ec <delay_ms+0x4c>
    98b8:	ebfff9db 	bl	802c <GET32>
    98bc:	e1a06000 	mov	r6, r0
    98c0:	eb00022b 	bl	a174 <dev_barrier>
    98c4:	e59f7020 	ldr	r7, [pc, #32]	; 98ec <delay_ms+0x4c>
    98c8:	eb000229 	bl	a174 <dev_barrier>
    98cc:	e1a00007 	mov	r0, r7
    98d0:	ebfff9d5 	bl	802c <GET32>
    98d4:	e1a05000 	mov	r5, r0
    98d8:	e0455006 	sub	r5, r5, r6
    98dc:	eb000224 	bl	a174 <dev_barrier>
    98e0:	e1540005 	cmp	r4, r5
    98e4:	8afffff7 	bhi	98c8 <delay_ms+0x28>
    98e8:	e8bd81f0 	pop	{r4, r5, r6, r7, r8, pc}
    98ec:	20003004 	andcs	r3, r0, r4

000098f0 <delay_sec>:
    98f0:	e92d41f0 	push	{r4, r5, r6, r7, r8, lr}
    98f4:	e0604280 	rsb	r4, r0, r0, lsl #5
    98f8:	e0644304 	rsb	r4, r4, r4, lsl #6
    98fc:	e0800184 	add	r0, r0, r4, lsl #3
    9900:	e1a04300 	lsl	r4, r0, #6
    9904:	eb00021a 	bl	a174 <dev_barrier>
    9908:	e59f0030 	ldr	r0, [pc, #48]	; 9940 <delay_sec+0x50>
    990c:	ebfff9c6 	bl	802c <GET32>
    9910:	e1a06000 	mov	r6, r0
    9914:	eb000216 	bl	a174 <dev_barrier>
    9918:	e59f7020 	ldr	r7, [pc, #32]	; 9940 <delay_sec+0x50>
    991c:	eb000214 	bl	a174 <dev_barrier>
    9920:	e1a00007 	mov	r0, r7
    9924:	ebfff9c0 	bl	802c <GET32>
    9928:	e1a05000 	mov	r5, r0
    992c:	e0455006 	sub	r5, r5, r6
    9930:	eb00020f 	bl	a174 <dev_barrier>
    9934:	e1540005 	cmp	r4, r5
    9938:	8afffff7 	bhi	991c <delay_sec+0x2c>
    993c:	e8bd81f0 	pop	{r4, r5, r6, r7, r8, pc}
    9940:	20003004 	andcs	r3, r0, r4

00009944 <and_in32>:
    9944:	e92d4070 	push	{r4, r5, r6, lr}
    9948:	e1a04000 	mov	r4, r0
    994c:	e1a05001 	mov	r5, r1
    9950:	ebfff9b5 	bl	802c <GET32>
    9954:	e0001005 	and	r1, r0, r5
    9958:	e1a00004 	mov	r0, r4
    995c:	ebfff9b0 	bl	8024 <PUT32>
    9960:	e8bd8070 	pop	{r4, r5, r6, pc}

00009964 <or_in32>:
    9964:	e92d4070 	push	{r4, r5, r6, lr}
    9968:	e1a04000 	mov	r4, r0
    996c:	e1a05001 	mov	r5, r1
    9970:	ebfff9ad 	bl	802c <GET32>
    9974:	e1801005 	orr	r1, r0, r5
    9978:	e1a00004 	mov	r0, r4
    997c:	ebfff9a8 	bl	8024 <PUT32>
    9980:	e8bd8070 	pop	{r4, r5, r6, pc}

00009984 <uart_init>:
    9984:	e92d4010 	push	{r4, lr}
    9988:	e3a01002 	mov	r1, #2, 0
    998c:	e3a0000e 	mov	r0, #14, 0
    9990:	eb000153 	bl	9ee4 <gpio_set_function>
    9994:	e3a01002 	mov	r1, #2, 0
    9998:	e3a0000f 	mov	r0, #15, 0
    999c:	eb000150 	bl	9ee4 <gpio_set_function>
    99a0:	eb0001f3 	bl	a174 <dev_barrier>
    99a4:	e3a01001 	mov	r1, #1, 0
    99a8:	e59f0064 	ldr	r0, [pc, #100]	; 9a14 <uart_init+0x90>
    99ac:	ebffffec 	bl	9964 <or_in32>
    99b0:	eb0001ef 	bl	a174 <dev_barrier>
    99b4:	e59f405c 	ldr	r4, [pc, #92]	; 9a18 <uart_init+0x94>
    99b8:	e3a01000 	mov	r1, #0, 0
    99bc:	e1a00004 	mov	r0, r4
    99c0:	ebfff997 	bl	8024 <PUT32>
    99c4:	e3a01000 	mov	r1, #0, 0
    99c8:	e59f004c 	ldr	r0, [pc, #76]	; 9a1c <uart_init+0x98>
    99cc:	ebfff994 	bl	8024 <PUT32>
    99d0:	e3a01003 	mov	r1, #3, 0
    99d4:	e59f0044 	ldr	r0, [pc, #68]	; 9a20 <uart_init+0x9c>
    99d8:	ebfff991 	bl	8024 <PUT32>
    99dc:	e3a01000 	mov	r1, #0, 0
    99e0:	e59f003c 	ldr	r0, [pc, #60]	; 9a24 <uart_init+0xa0>
    99e4:	ebfff98e 	bl	8024 <PUT32>
    99e8:	e3a010c7 	mov	r1, #199, 0	; 0xc7
    99ec:	e59f0034 	ldr	r0, [pc, #52]	; 9a28 <uart_init+0xa4>
    99f0:	ebfff98b 	bl	8024 <PUT32>
    99f4:	e59f1030 	ldr	r1, [pc, #48]	; 9a2c <uart_init+0xa8>
    99f8:	e59f0030 	ldr	r0, [pc, #48]	; 9a30 <uart_init+0xac>
    99fc:	ebfff988 	bl	8024 <PUT32>
    9a00:	e3a01003 	mov	r1, #3, 0
    9a04:	e1a00004 	mov	r0, r4
    9a08:	ebfff985 	bl	8024 <PUT32>
    9a0c:	eb0001d8 	bl	a174 <dev_barrier>
    9a10:	e8bd8010 	pop	{r4, pc}
    9a14:	20215004 	eorcs	r5, r1, r4
    9a18:	20215060 	eorcs	r5, r1, r0, rrx
    9a1c:	20215044 	eorcs	r5, r1, r4, asr #32
    9a20:	2021504c 	eorcs	r5, r1, ip, asr #32
    9a24:	20215050 	eorcs	r5, r1, r0, asr r0
    9a28:	20215048 	eorcs	r5, r1, r8, asr #32
    9a2c:	0000010e 	andeq	r0, r0, lr, lsl #2
    9a30:	20215068 	eorcs	r5, r1, r8, rrx

00009a34 <uart_can_getc>:
    9a34:	e92d4010 	push	{r4, lr}
    9a38:	e59f0008 	ldr	r0, [pc, #8]	; 9a48 <uart_can_getc+0x14>
    9a3c:	ebfff97a 	bl	802c <GET32>
    9a40:	e2000001 	and	r0, r0, #1, 0
    9a44:	e8bd8010 	pop	{r4, pc}
    9a48:	20215064 	eorcs	r5, r1, r4, rrx

00009a4c <uart_can_putc>:
    9a4c:	e92d4010 	push	{r4, lr}
    9a50:	e59f0010 	ldr	r0, [pc, #16]	; 9a68 <uart_can_putc+0x1c>
    9a54:	ebfff974 	bl	802c <GET32>
    9a58:	e3100002 	tst	r0, #2, 0
    9a5c:	13a00001 	movne	r0, #1, 0
    9a60:	03a00000 	moveq	r0, #0, 0
    9a64:	e8bd8010 	pop	{r4, pc}
    9a68:	20215064 	eorcs	r5, r1, r4, rrx

00009a6c <uart_getc>:
    9a6c:	e92d4010 	push	{r4, lr}
    9a70:	eb0001bf 	bl	a174 <dev_barrier>
    9a74:	ebffffee 	bl	9a34 <uart_can_getc>
    9a78:	e3500000 	cmp	r0, #0, 0
    9a7c:	0afffffc 	beq	9a74 <uart_getc+0x8>
    9a80:	e59f0010 	ldr	r0, [pc, #16]	; 9a98 <uart_getc+0x2c>
    9a84:	ebfff968 	bl	802c <GET32>
    9a88:	e6ef4070 	uxtb	r4, r0
    9a8c:	eb0001b8 	bl	a174 <dev_barrier>
    9a90:	e1a00004 	mov	r0, r4
    9a94:	e8bd8010 	pop	{r4, pc}
    9a98:	20215040 	eorcs	r5, r1, r0, asr #32

00009a9c <uart_putc>:
    9a9c:	e92d4010 	push	{r4, lr}
    9aa0:	e1a04000 	mov	r4, r0
    9aa4:	eb0001b2 	bl	a174 <dev_barrier>
    9aa8:	ebffffe7 	bl	9a4c <uart_can_putc>
    9aac:	e3500000 	cmp	r0, #0, 0
    9ab0:	0afffffc 	beq	9aa8 <uart_putc+0xc>
    9ab4:	e6ef1074 	uxtb	r1, r4
    9ab8:	e59f0008 	ldr	r0, [pc, #8]	; 9ac8 <uart_putc+0x2c>
    9abc:	ebfff958 	bl	8024 <PUT32>
    9ac0:	eb0001ab 	bl	a174 <dev_barrier>
    9ac4:	e8bd8010 	pop	{r4, pc}
    9ac8:	20215040 	eorcs	r5, r1, r0, asr #32

00009acc <uart_has_data>:
    9acc:	e92d4010 	push	{r4, lr}
    9ad0:	eb0001a7 	bl	a174 <dev_barrier>
    9ad4:	ebffffd6 	bl	9a34 <uart_can_getc>
    9ad8:	e8bd8010 	pop	{r4, pc}

00009adc <uart_tx_is_empty>:
    9adc:	e92d4010 	push	{r4, lr}
    9ae0:	eb0001a3 	bl	a174 <dev_barrier>
    9ae4:	e59f000c 	ldr	r0, [pc, #12]	; 9af8 <uart_tx_is_empty+0x1c>
    9ae8:	ebfff94f 	bl	802c <GET32>
    9aec:	e1a004a0 	lsr	r0, r0, #9
    9af0:	e2000001 	and	r0, r0, #1, 0
    9af4:	e8bd8010 	pop	{r4, pc}
    9af8:	20215064 	eorcs	r5, r1, r4, rrx

00009afc <uart_flush_tx>:
    9afc:	e92d4010 	push	{r4, lr}
    9b00:	ebfffff5 	bl	9adc <uart_tx_is_empty>
    9b04:	e3500000 	cmp	r0, #0, 0
    9b08:	0afffffc 	beq	9b00 <uart_flush_tx+0x4>
    9b0c:	e8bd8010 	pop	{r4, pc}

00009b10 <uart_disable>:
    9b10:	e92d4010 	push	{r4, lr}
    9b14:	ebfffff8 	bl	9afc <uart_flush_tx>
    9b18:	eb000195 	bl	a174 <dev_barrier>
    9b1c:	e3e01001 	mvn	r1, #1, 0
    9b20:	e59f0008 	ldr	r0, [pc, #8]	; 9b30 <uart_disable+0x20>
    9b24:	ebffff86 	bl	9944 <and_in32>
    9b28:	eb000191 	bl	a174 <dev_barrier>
    9b2c:	e8bd8010 	pop	{r4, pc}
    9b30:	20215004 	eorcs	r5, r1, r4

00009b34 <kmalloc_heap_end>:
    9b34:	e59f3004 	ldr	r3, [pc, #4]	; 9b40 <kmalloc_heap_end+0xc>
    9b38:	e5930000 	ldr	r0, [r3]
    9b3c:	e12fff1e 	bx	lr
    9b40:	0000aaa0 	andeq	sl, r0, r0, lsr #21

00009b44 <kmalloc_heap_start>:
    9b44:	e59f3004 	ldr	r3, [pc, #4]	; 9b50 <kmalloc_heap_start+0xc>
    9b48:	e5930004 	ldr	r0, [r3, #4]
    9b4c:	e12fff1e 	bx	lr
    9b50:	0000aaa0 	andeq	sl, r0, r0, lsr #21

00009b54 <kmalloc_heap_ptr>:
    9b54:	e59f3004 	ldr	r3, [pc, #4]	; 9b60 <kmalloc_heap_ptr+0xc>
    9b58:	e5930000 	ldr	r0, [r3]
    9b5c:	e12fff1e 	bx	lr
    9b60:	0000aaa0 	andeq	sl, r0, r0, lsr #21

00009b64 <kmalloc_init_set_start>:
    9b64:	e52de004 	push	{lr}		; (str lr, [sp, #-4]!)
    9b68:	e24dd00c 	sub	sp, sp, #12, 0
    9b6c:	e3510000 	cmp	r1, #0, 0
    9b70:	0a00000a 	beq	9ba0 <kmalloc_init_set_start+0x3c>
    9b74:	e59f306c 	ldr	r3, [pc, #108]	; 9be8 <kmalloc_init_set_start+0x84>
    9b78:	e5933000 	ldr	r3, [r3]
    9b7c:	e1530000 	cmp	r3, r0
    9b80:	8a00000e 	bhi	9bc0 <kmalloc_init_set_start+0x5c>
    9b84:	e59f305c 	ldr	r3, [pc, #92]	; 9be8 <kmalloc_init_set_start+0x84>
    9b88:	e5830000 	str	r0, [r3]
    9b8c:	e5830004 	str	r0, [r3, #4]
    9b90:	e0800001 	add	r0, r0, r1
    9b94:	e5830008 	str	r0, [r3, #8]
    9b98:	e28dd00c 	add	sp, sp, #12, 0
    9b9c:	e49df004 	pop	{pc}		; (ldr pc, [sp], #4)
    9ba0:	e59f3044 	ldr	r3, [pc, #68]	; 9bec <kmalloc_init_set_start+0x88>
    9ba4:	e58d3000 	str	r3, [sp]
    9ba8:	e3a03030 	mov	r3, #48, 0	; 0x30
    9bac:	e59f203c 	ldr	r2, [pc, #60]	; 9bf0 <kmalloc_init_set_start+0x8c>
    9bb0:	e59f103c 	ldr	r1, [pc, #60]	; 9bf4 <kmalloc_init_set_start+0x90>
    9bb4:	e59f003c 	ldr	r0, [pc, #60]	; 9bf8 <kmalloc_init_set_start+0x94>
    9bb8:	ebfffc1c 	bl	8c30 <printk>
    9bbc:	ebfffeac 	bl	9674 <clean_reboot>
    9bc0:	e59f3020 	ldr	r3, [pc, #32]	; 9be8 <kmalloc_init_set_start+0x84>
    9bc4:	e5933008 	ldr	r3, [r3, #8]
    9bc8:	e58d3004 	str	r3, [sp, #4]
    9bcc:	e58d0000 	str	r0, [sp]
    9bd0:	e3a03034 	mov	r3, #52, 0	; 0x34
    9bd4:	e59f2014 	ldr	r2, [pc, #20]	; 9bf0 <kmalloc_init_set_start+0x8c>
    9bd8:	e59f1014 	ldr	r1, [pc, #20]	; 9bf4 <kmalloc_init_set_start+0x90>
    9bdc:	e59f0018 	ldr	r0, [pc, #24]	; 9bfc <kmalloc_init_set_start+0x98>
    9be0:	ebfffc12 	bl	8c30 <printk>
    9be4:	ebfffea2 	bl	9674 <clean_reboot>
    9be8:	0000aaa0 	andeq	sl, r0, r0, lsr #21
    9bec:	0000a8ac 	andeq	sl, r0, ip, lsr #17
    9bf0:	0000aa38 	andeq	sl, r0, r8, lsr sl
    9bf4:	0000a8a0 	andeq	sl, r0, r0, lsr #17
    9bf8:	0000a2ac 	andeq	sl, r0, ip, lsr #5
    9bfc:	0000a8b8 			; <UNDEFINED> instruction: 0x0000a8b8

00009c00 <kmalloc_init>:
    9c00:	e92d4010 	push	{r4, lr}
    9c04:	e59f303c 	ldr	r3, [pc, #60]	; 9c48 <kmalloc_init+0x48>
    9c08:	e5933000 	ldr	r3, [r3]
    9c0c:	e3530000 	cmp	r3, #0, 0
    9c10:	1a000006 	bne	9c30 <kmalloc_init+0x30>
    9c14:	e59f302c 	ldr	r3, [pc, #44]	; 9c48 <kmalloc_init+0x48>
    9c18:	e3a02001 	mov	r2, #1, 0
    9c1c:	e5832000 	str	r2, [r3]
    9c20:	e3a01201 	mov	r1, #268435456	; 0x10000000
    9c24:	e3a00601 	mov	r0, #1048576	; 0x100000
    9c28:	ebffffcd 	bl	9b64 <kmalloc_init_set_start>
    9c2c:	e8bd8010 	pop	{r4, pc}
    9c30:	e3a03040 	mov	r3, #64, 0	; 0x40
    9c34:	e59f2010 	ldr	r2, [pc, #16]	; 9c4c <kmalloc_init+0x4c>
    9c38:	e59f1010 	ldr	r1, [pc, #16]	; 9c50 <kmalloc_init+0x50>
    9c3c:	e59f0010 	ldr	r0, [pc, #16]	; 9c54 <kmalloc_init+0x54>
    9c40:	ebfffbfa 	bl	8c30 <printk>
    9c44:	ebfffe8a 	bl	9674 <clean_reboot>
    9c48:	0000aed4 	ldrdeq	sl, [r0], -r4
    9c4c:	0000aa50 	andeq	sl, r0, r0, asr sl
    9c50:	0000a8a0 	andeq	sl, r0, r0, lsr #17
    9c54:	0000a8fc 	strdeq	sl, [r0], -ip

00009c58 <kmalloc_notzero>:
    9c58:	e52de004 	push	{lr}		; (str lr, [sp, #-4]!)
    9c5c:	e24dd00c 	sub	sp, sp, #12, 0
    9c60:	e3500000 	cmp	r0, #0, 0
    9c64:	0a00000a 	beq	9c94 <kmalloc_notzero+0x3c>
    9c68:	e2800007 	add	r0, r0, #7, 0
    9c6c:	e3c03007 	bic	r3, r0, #7, 0
    9c70:	e59f2060 	ldr	r2, [pc, #96]	; 9cd8 <kmalloc_notzero+0x80>
    9c74:	e5920000 	ldr	r0, [r2]
    9c78:	e0801003 	add	r1, r0, r3
    9c7c:	e5821000 	str	r1, [r2]
    9c80:	e5922008 	ldr	r2, [r2, #8]
    9c84:	e1510002 	cmp	r1, r2
    9c88:	8a000009 	bhi	9cb4 <kmalloc_notzero+0x5c>
    9c8c:	e28dd00c 	add	sp, sp, #12, 0
    9c90:	e49df004 	pop	{pc}		; (ldr pc, [sp], #4)
    9c94:	e59f3040 	ldr	r3, [pc, #64]	; 9cdc <kmalloc_notzero+0x84>
    9c98:	e58d3000 	str	r3, [sp]
    9c9c:	e3a03048 	mov	r3, #72, 0	; 0x48
    9ca0:	e59f2038 	ldr	r2, [pc, #56]	; 9ce0 <kmalloc_notzero+0x88>
    9ca4:	e59f1038 	ldr	r1, [pc, #56]	; 9ce4 <kmalloc_notzero+0x8c>
    9ca8:	e59f0038 	ldr	r0, [pc, #56]	; 9ce8 <kmalloc_notzero+0x90>
    9cac:	ebfffbdf 	bl	8c30 <printk>
    9cb0:	ebfffe6f 	bl	9674 <clean_reboot>
    9cb4:	e0422000 	sub	r2, r2, r0
    9cb8:	e58d2004 	str	r2, [sp, #4]
    9cbc:	e58d3000 	str	r3, [sp]
    9cc0:	e3a0304e 	mov	r3, #78, 0	; 0x4e
    9cc4:	e59f2014 	ldr	r2, [pc, #20]	; 9ce0 <kmalloc_notzero+0x88>
    9cc8:	e59f1014 	ldr	r1, [pc, #20]	; 9ce4 <kmalloc_notzero+0x8c>
    9ccc:	e59f0018 	ldr	r0, [pc, #24]	; 9cec <kmalloc_notzero+0x94>
    9cd0:	ebfffbd6 	bl	8c30 <printk>
    9cd4:	ebfffe66 	bl	9674 <clean_reboot>
    9cd8:	0000aaa0 	andeq	sl, r0, r0, lsr #21
    9cdc:	0000a8b0 			; <UNDEFINED> instruction: 0x0000a8b0
    9ce0:	0000aa60 	andeq	sl, r0, r0, ror #20
    9ce4:	0000a8a0 	andeq	sl, r0, r0, lsr #17
    9ce8:	0000a2ac 	andeq	sl, r0, ip, lsr #5
    9cec:	0000a92c 	andeq	sl, r0, ip, lsr #18

00009cf0 <kmalloc>:
    9cf0:	e92d4030 	push	{r4, r5, lr}
    9cf4:	e24dd00c 	sub	sp, sp, #12, 0
    9cf8:	e2504000 	subs	r4, r0, #0, 0
    9cfc:	0a000008 	beq	9d24 <kmalloc+0x34>
    9d00:	e1a00004 	mov	r0, r4
    9d04:	ebffffd3 	bl	9c58 <kmalloc_notzero>
    9d08:	e1a05000 	mov	r5, r0
    9d0c:	e1a02004 	mov	r2, r4
    9d10:	e3a01000 	mov	r1, #0, 0
    9d14:	ebfffba7 	bl	8bb8 <memset>
    9d18:	e1a00005 	mov	r0, r5
    9d1c:	e28dd00c 	add	sp, sp, #12, 0
    9d20:	e8bd8030 	pop	{r4, r5, pc}
    9d24:	e59f3018 	ldr	r3, [pc, #24]	; 9d44 <kmalloc+0x54>
    9d28:	e58d3000 	str	r3, [sp]
    9d2c:	e3a03054 	mov	r3, #84, 0	; 0x54
    9d30:	e59f2010 	ldr	r2, [pc, #16]	; 9d48 <kmalloc+0x58>
    9d34:	e59f1010 	ldr	r1, [pc, #16]	; 9d4c <kmalloc+0x5c>
    9d38:	e59f0010 	ldr	r0, [pc, #16]	; 9d50 <kmalloc+0x60>
    9d3c:	ebfffbbb 	bl	8c30 <printk>
    9d40:	ebfffe4b 	bl	9674 <clean_reboot>
    9d44:	0000a8b0 			; <UNDEFINED> instruction: 0x0000a8b0
    9d48:	0000aa70 	andeq	sl, r0, r0, ror sl
    9d4c:	0000a8a0 	andeq	sl, r0, r0, lsr #17
    9d50:	0000a2ac 	andeq	sl, r0, ip, lsr #5

00009d54 <kmalloc_aligned>:
    9d54:	e52de004 	push	{lr}		; (str lr, [sp, #-4]!)
    9d58:	e24dd00c 	sub	sp, sp, #12, 0
    9d5c:	e3500000 	cmp	r0, #0, 0
    9d60:	0a000014 	beq	9db8 <kmalloc_aligned+0x64>
    9d64:	e2613000 	rsb	r3, r1, #0, 0
    9d68:	e1d13003 	bics	r3, r1, r3
    9d6c:	1a000019 	bne	9dd8 <kmalloc_aligned+0x84>
    9d70:	e3510008 	cmp	r1, #8, 0
    9d74:	33a01008 	movcc	r1, #8, 0
    9d78:	e59f30c0 	ldr	r3, [pc, #192]	; 9e40 <kmalloc_aligned+0xec>
    9d7c:	e5932000 	ldr	r2, [r3]
    9d80:	e2613000 	rsb	r3, r1, #0, 0
    9d84:	e1d1c003 	bics	ip, r1, r3
    9d88:	1a00001b 	bne	9dfc <kmalloc_aligned+0xa8>
    9d8c:	e0822001 	add	r2, r2, r1
    9d90:	e2422001 	sub	r2, r2, #1, 0
    9d94:	e0033002 	and	r3, r3, r2
    9d98:	e2411001 	sub	r1, r1, #1, 0
    9d9c:	e1110003 	tst	r1, r3
    9da0:	1a00001d 	bne	9e1c <kmalloc_aligned+0xc8>
    9da4:	e59f2094 	ldr	r2, [pc, #148]	; 9e40 <kmalloc_aligned+0xec>
    9da8:	e5823000 	str	r3, [r2]
    9dac:	ebffffcf 	bl	9cf0 <kmalloc>
    9db0:	e28dd00c 	add	sp, sp, #12, 0
    9db4:	e49df004 	pop	{pc}		; (ldr pc, [sp], #4)
    9db8:	e59f3084 	ldr	r3, [pc, #132]	; 9e44 <kmalloc_aligned+0xf0>
    9dbc:	e58d3000 	str	r3, [sp]
    9dc0:	e3a0305f 	mov	r3, #95, 0	; 0x5f
    9dc4:	e59f207c 	ldr	r2, [pc, #124]	; 9e48 <kmalloc_aligned+0xf4>
    9dc8:	e59f107c 	ldr	r1, [pc, #124]	; 9e4c <kmalloc_aligned+0xf8>
    9dcc:	e59f007c 	ldr	r0, [pc, #124]	; 9e50 <kmalloc_aligned+0xfc>
    9dd0:	ebfffb96 	bl	8c30 <printk>
    9dd4:	ebfffe26 	bl	9674 <clean_reboot>
    9dd8:	eb0000ac 	bl	a090 <rpi_reset_putc>
    9ddc:	e59f3070 	ldr	r3, [pc, #112]	; 9e54 <kmalloc_aligned+0x100>
    9de0:	e58d3000 	str	r3, [sp]
    9de4:	e3a03060 	mov	r3, #96, 0	; 0x60
    9de8:	e59f2058 	ldr	r2, [pc, #88]	; 9e48 <kmalloc_aligned+0xf4>
    9dec:	e59f1058 	ldr	r1, [pc, #88]	; 9e4c <kmalloc_aligned+0xf8>
    9df0:	e59f0060 	ldr	r0, [pc, #96]	; 9e58 <kmalloc_aligned+0x104>
    9df4:	ebfffb8d 	bl	8c30 <printk>
    9df8:	ebfffe1d 	bl	9674 <clean_reboot>
    9dfc:	e59f3058 	ldr	r3, [pc, #88]	; 9e5c <kmalloc_aligned+0x108>
    9e00:	e58d3000 	str	r3, [sp]
    9e04:	e3a03011 	mov	r3, #17, 0
    9e08:	e59f2050 	ldr	r2, [pc, #80]	; 9e60 <kmalloc_aligned+0x10c>
    9e0c:	e59f1038 	ldr	r1, [pc, #56]	; 9e4c <kmalloc_aligned+0xf8>
    9e10:	e59f0038 	ldr	r0, [pc, #56]	; 9e50 <kmalloc_aligned+0xfc>
    9e14:	ebfffb85 	bl	8c30 <printk>
    9e18:	ebfffe15 	bl	9674 <clean_reboot>
    9e1c:	eb00009b 	bl	a090 <rpi_reset_putc>
    9e20:	e59f303c 	ldr	r3, [pc, #60]	; 9e64 <kmalloc_aligned+0x110>
    9e24:	e58d3000 	str	r3, [sp]
    9e28:	e3a03068 	mov	r3, #104, 0	; 0x68
    9e2c:	e59f2014 	ldr	r2, [pc, #20]	; 9e48 <kmalloc_aligned+0xf4>
    9e30:	e59f1014 	ldr	r1, [pc, #20]	; 9e4c <kmalloc_aligned+0xf8>
    9e34:	e59f002c 	ldr	r0, [pc, #44]	; 9e68 <kmalloc_aligned+0x114>
    9e38:	ebfffb7c 	bl	8c30 <printk>
    9e3c:	ebfffe0c 	bl	9674 <clean_reboot>
    9e40:	0000aaa0 	andeq	sl, r0, r0, lsr #21
    9e44:	0000a8b0 			; <UNDEFINED> instruction: 0x0000a8b0
    9e48:	0000aa78 	andeq	sl, r0, r8, ror sl
    9e4c:	0000a8a0 	andeq	sl, r0, r0, lsr #17
    9e50:	0000a2ac 	andeq	sl, r0, ip, lsr #5
    9e54:	0000a9a0 	andeq	sl, r0, r0, lsr #19
    9e58:	0000a96c 	andeq	sl, r0, ip, ror #18
    9e5c:	0000a9b4 			; <UNDEFINED> instruction: 0x0000a9b4
    9e60:	0000aa88 	andeq	sl, r0, r8, lsl #21
    9e64:	0000a9ec 	andeq	sl, r0, ip, ror #19
    9e68:	0000a9c0 	andeq	sl, r0, r0, asr #19

00009e6c <kfree>:
    9e6c:	e12fff1e 	bx	lr

00009e70 <kfree_all>:
    9e70:	e59f3008 	ldr	r3, [pc, #8]	; 9e80 <kfree_all+0x10>
    9e74:	e5932004 	ldr	r2, [r3, #4]
    9e78:	e5832000 	str	r2, [r3]
    9e7c:	e12fff1e 	bx	lr
    9e80:	0000aaa0 	andeq	sl, r0, r0, lsr #21

00009e84 <kfree_pop>:
    9e84:	e59f3048 	ldr	r3, [pc, #72]	; 9ed4 <kfree_pop+0x50>
    9e88:	e5933004 	ldr	r3, [r3, #4]
    9e8c:	e1530000 	cmp	r3, r0
    9e90:	8a000006 	bhi	9eb0 <kfree_pop+0x2c>
    9e94:	e59f3038 	ldr	r3, [pc, #56]	; 9ed4 <kfree_pop+0x50>
    9e98:	e5933008 	ldr	r3, [r3, #8]
    9e9c:	e1530000 	cmp	r3, r0
    9ea0:	3a000002 	bcc	9eb0 <kfree_pop+0x2c>
    9ea4:	e59f3028 	ldr	r3, [pc, #40]	; 9ed4 <kfree_pop+0x50>
    9ea8:	e5830000 	str	r0, [r3]
    9eac:	e12fff1e 	bx	lr
    9eb0:	e52de004 	push	{lr}		; (str lr, [sp, #-4]!)
    9eb4:	e24dd00c 	sub	sp, sp, #12, 0
    9eb8:	e58d0000 	str	r0, [sp]
    9ebc:	e3a03077 	mov	r3, #119, 0	; 0x77
    9ec0:	e59f2010 	ldr	r2, [pc, #16]	; 9ed8 <kfree_pop+0x54>
    9ec4:	e59f1010 	ldr	r1, [pc, #16]	; 9edc <kfree_pop+0x58>
    9ec8:	e59f0010 	ldr	r0, [pc, #16]	; 9ee0 <kfree_pop+0x5c>
    9ecc:	ebfffb57 	bl	8c30 <printk>
    9ed0:	ebfffde7 	bl	9674 <clean_reboot>
    9ed4:	0000aaa0 	andeq	sl, r0, r0, lsr #21
    9ed8:	0000aa90 	muleq	r0, r0, sl
    9edc:	0000a8a0 	andeq	sl, r0, r0, lsr #17
    9ee0:	0000aa08 	andeq	sl, r0, r8, lsl #20

00009ee4 <gpio_set_function>:
    9ee4:	e350001f 	cmp	r0, #31, 0
    9ee8:	812fff1e 	bxhi	lr
    9eec:	e3d13007 	bics	r3, r1, #7, 0
    9ef0:	e92d4070 	push	{r4, r5, r6, lr}
    9ef4:	e1a05001 	mov	r5, r1
    9ef8:	18bd8070 	popne	{r4, r5, r6, pc}
    9efc:	e59f403c 	ldr	r4, [pc, #60]	; 9f40 <gpio_set_function+0x5c>
    9f00:	e0843094 	umull	r3, r4, r4, r0
    9f04:	e1a041a4 	lsr	r4, r4, #3
    9f08:	e2843302 	add	r3, r4, #134217728	; 0x8000000
    9f0c:	e2833702 	add	r3, r3, #524288	; 0x80000
    9f10:	e1a06103 	lsl	r6, r3, #2
    9f14:	e0844104 	add	r4, r4, r4, lsl #2
    9f18:	e0404084 	sub	r4, r0, r4, lsl #1
    9f1c:	e1a00006 	mov	r0, r6
    9f20:	ebfff841 	bl	802c <GET32>
    9f24:	e3a01007 	mov	r1, #7, 0
    9f28:	e0844084 	add	r4, r4, r4, lsl #1
    9f2c:	e1c01411 	bic	r1, r0, r1, lsl r4
    9f30:	e1811415 	orr	r1, r1, r5, lsl r4
    9f34:	e1a00006 	mov	r0, r6
    9f38:	e8bd4070 	pop	{r4, r5, r6, lr}
    9f3c:	eafff838 	b	8024 <PUT32>
    9f40:	cccccccd 	stclgt	12, cr12, [ip], {205}	; 0xcd

00009f44 <gpio_set_output>:
    9f44:	e350001f 	cmp	r0, #31, 0
    9f48:	812fff1e 	bxhi	lr
    9f4c:	e92d4070 	push	{r4, r5, r6, lr}
    9f50:	e59f4040 	ldr	r4, [pc, #64]	; 9f98 <gpio_set_output+0x54>
    9f54:	e0843094 	umull	r3, r4, r4, r0
    9f58:	e1a041a4 	lsr	r4, r4, #3
    9f5c:	e2843302 	add	r3, r4, #134217728	; 0x8000000
    9f60:	e2833702 	add	r3, r3, #524288	; 0x80000
    9f64:	e1a05103 	lsl	r5, r3, #2
    9f68:	e0844104 	add	r4, r4, r4, lsl #2
    9f6c:	e0404084 	sub	r4, r0, r4, lsl #1
    9f70:	e1a00005 	mov	r0, r5
    9f74:	ebfff82c 	bl	802c <GET32>
    9f78:	e3a03007 	mov	r3, #7, 0
    9f7c:	e3a01001 	mov	r1, #1, 0
    9f80:	e0844084 	add	r4, r4, r4, lsl #1
    9f84:	e1c03413 	bic	r3, r0, r3, lsl r4
    9f88:	e1831411 	orr	r1, r3, r1, lsl r4
    9f8c:	e1a00005 	mov	r0, r5
    9f90:	e8bd4070 	pop	{r4, r5, r6, lr}
    9f94:	eafff822 	b	8024 <PUT32>
    9f98:	cccccccd 	stclgt	12, cr12, [ip], {205}	; 0xcd

00009f9c <gpio_set_on>:
    9f9c:	e1a03000 	mov	r3, r0
    9fa0:	e3a01001 	mov	r1, #1, 0
    9fa4:	e59f0004 	ldr	r0, [pc, #4]	; 9fb0 <gpio_set_on+0x14>
    9fa8:	e1a01311 	lsl	r1, r1, r3
    9fac:	eafff81c 	b	8024 <PUT32>
    9fb0:	2020001c 	eorcs	r0, r0, ip, lsl r0

00009fb4 <gpio_set_off>:
    9fb4:	e1a03000 	mov	r3, r0
    9fb8:	e3a01001 	mov	r1, #1, 0
    9fbc:	e59f0004 	ldr	r0, [pc, #4]	; 9fc8 <gpio_set_off+0x14>
    9fc0:	e1a01311 	lsl	r1, r1, r3
    9fc4:	eafff816 	b	8024 <PUT32>
    9fc8:	20200028 	eorcs	r0, r0, r8, lsr #32

00009fcc <gpio_set_input>:
    9fcc:	e350001f 	cmp	r0, #31, 0
    9fd0:	812fff1e 	bxhi	lr
    9fd4:	e92d4070 	push	{r4, r5, r6, lr}
    9fd8:	e59f5040 	ldr	r5, [pc, #64]	; a020 <gpio_set_input+0x54>
    9fdc:	e1a04000 	mov	r4, r0
    9fe0:	e0853095 	umull	r3, r5, r5, r0
    9fe4:	e1a051a5 	lsr	r5, r5, #3
    9fe8:	e2850302 	add	r0, r5, #134217728	; 0x8000000
    9fec:	e2800702 	add	r0, r0, #524288	; 0x80000
    9ff0:	e1a06100 	lsl	r6, r0, #2
    9ff4:	e1a00006 	mov	r0, r6
    9ff8:	ebfff80b 	bl	802c <GET32>
    9ffc:	e3a01007 	mov	r1, #7, 0
    a000:	e1a03000 	mov	r3, r0
    a004:	e0855105 	add	r5, r5, r5, lsl #2
    a008:	e0444085 	sub	r4, r4, r5, lsl #1
    a00c:	e0844084 	add	r4, r4, r4, lsl #1
    a010:	e1a00006 	mov	r0, r6
    a014:	e1c31411 	bic	r1, r3, r1, lsl r4
    a018:	e8bd4070 	pop	{r4, r5, r6, lr}
    a01c:	eafff800 	b	8024 <PUT32>
    a020:	cccccccd 	stclgt	12, cr12, [ip], {205}	; 0xcd

0000a024 <gpio_write>:
    a024:	e3510000 	cmp	r1, #0, 0
    a028:	e3a03001 	mov	r3, #1, 0
    a02c:	e1a01000 	mov	r1, r0
    a030:	0a000002 	beq	a040 <gpio_write+0x1c>
    a034:	e59f0010 	ldr	r0, [pc, #16]	; a04c <gpio_write+0x28>
    a038:	e1a01113 	lsl	r1, r3, r1
    a03c:	eafff7f8 	b	8024 <PUT32>
    a040:	e59f0008 	ldr	r0, [pc, #8]	; a050 <gpio_write+0x2c>
    a044:	e1a01113 	lsl	r1, r3, r1
    a048:	eafff7f5 	b	8024 <PUT32>
    a04c:	2020001c 	eorcs	r0, r0, ip, lsl r0
    a050:	20200028 	eorcs	r0, r0, r8, lsr #32

0000a054 <gpio_read>:
    a054:	e92d4010 	push	{r4, lr}
    a058:	e1a04000 	mov	r4, r0
    a05c:	e59f0014 	ldr	r0, [pc, #20]	; a078 <gpio_read+0x24>
    a060:	e08002a4 	add	r0, r0, r4, lsr #5
    a064:	ebfff7f0 	bl	802c <GET32>
    a068:	e204401f 	and	r4, r4, #31, 0
    a06c:	e1a00430 	lsr	r0, r0, r4
    a070:	e2000001 	and	r0, r0, #1, 0
    a074:	e8bd8010 	pop	{r4, pc}
    a078:	20200034 	eorcs	r0, r0, r4, lsr r0

0000a07c <internal_putchar>:
    a07c:	e92d4010 	push	{r4, lr}
    a080:	e1a04000 	mov	r4, r0
    a084:	ebfffe84 	bl	9a9c <uart_putc>
    a088:	e1a00004 	mov	r0, r4
    a08c:	e8bd8010 	pop	{r4, pc}

0000a090 <rpi_reset_putc>:
    a090:	e59f3008 	ldr	r3, [pc, #8]	; a0a0 <rpi_reset_putc+0x10>
    a094:	e59f2008 	ldr	r2, [pc, #8]	; a0a4 <rpi_reset_putc+0x14>
    a098:	e5832000 	str	r2, [r3]
    a09c:	e12fff1e 	bx	lr
    a0a0:	0000aaac 	andeq	sl, r0, ip, lsr #21
    a0a4:	0000a07c 	andeq	sl, r0, ip, ror r0

0000a0a8 <rpi_set_putc>:
    a0a8:	e59f3004 	ldr	r3, [pc, #4]	; a0b4 <rpi_set_putc+0xc>
    a0ac:	e5830000 	str	r0, [r3]
    a0b0:	e12fff1e 	bx	lr
    a0b4:	0000aaac 	andeq	sl, r0, ip, lsr #21

0000a0b8 <strcat>:
    a0b8:	e1a02000 	mov	r2, r0
    a0bc:	e1a03002 	mov	r3, r2
    a0c0:	e4d2c001 	ldrb	ip, [r2], #1
    a0c4:	e35c0000 	cmp	ip, #0, 0
    a0c8:	1afffffb 	bne	a0bc <strcat+0x4>
    a0cc:	e2433001 	sub	r3, r3, #1, 0
    a0d0:	e4d12001 	ldrb	r2, [r1], #1
    a0d4:	e3520000 	cmp	r2, #0, 0
    a0d8:	e5e32001 	strb	r2, [r3, #1]!
    a0dc:	1afffffb 	bne	a0d0 <strcat+0x18>
    a0e0:	e12fff1e 	bx	lr

0000a0e4 <strcmp>:
    a0e4:	e5d03000 	ldrb	r3, [r0]
    a0e8:	e3530000 	cmp	r3, #0, 0
    a0ec:	05d12000 	ldrbeq	r2, [r1]
    a0f0:	1a000003 	bne	a104 <strcmp+0x20>
    a0f4:	ea000006 	b	a114 <strcmp+0x30>
    a0f8:	e5f03001 	ldrb	r3, [r0, #1]!
    a0fc:	e3530000 	cmp	r3, #0, 0
    a100:	0a000005 	beq	a11c <strcmp+0x38>
    a104:	e1a0c001 	mov	ip, r1
    a108:	e4d12001 	ldrb	r2, [r1], #1
    a10c:	e1520003 	cmp	r2, r3
    a110:	0afffff8 	beq	a0f8 <strcmp+0x14>
    a114:	e0430002 	sub	r0, r3, r2
    a118:	e12fff1e 	bx	lr
    a11c:	e5dc2001 	ldrb	r2, [ip, #1]
    a120:	e0430002 	sub	r0, r3, r2
    a124:	e12fff1e 	bx	lr

0000a128 <strcpy>:
    a128:	e2402001 	sub	r2, r0, #1, 0
    a12c:	e4d13001 	ldrb	r3, [r1], #1
    a130:	e3530000 	cmp	r3, #0, 0
    a134:	e5e23001 	strb	r3, [r2, #1]!
    a138:	1afffffb 	bne	a12c <strcpy+0x4>
    a13c:	e12fff1e 	bx	lr

0000a140 <strncmp>:
    a140:	e0802002 	add	r2, r0, r2
    a144:	ea000003 	b	a158 <strncmp+0x18>
    a148:	e4d03001 	ldrb	r3, [r0], #1
    a14c:	e4d1c001 	ldrb	ip, [r1], #1
    a150:	e153000c 	cmp	r3, ip
    a154:	1a000003 	bne	a168 <strncmp+0x28>
    a158:	e1500002 	cmp	r0, r2
    a15c:	1afffff9 	bne	a148 <strncmp+0x8>
    a160:	e3a00000 	mov	r0, #0, 0
    a164:	e12fff1e 	bx	lr
    a168:	e043000c 	sub	r0, r3, ip
    a16c:	e12fff1e 	bx	lr

0000a170 <reboot_callout>:
    a170:	e12fff1e 	bx	lr

0000a174 <dev_barrier>:
    a174:	ea000002 	b	a184 <dsb>

0000a178 <dmb>:
    a178:	e3a00000 	mov	r0, #0, 0
    a17c:	ee070fba 	mcr	15, 0, r0, cr7, cr10, {5}
    a180:	e12fff1e 	bx	lr

0000a184 <dsb>:
    a184:	ee070f9a 	mcr	15, 0, r0, cr7, cr10, {4}
    a188:	e12fff1e 	bx	lr

0000a18c <__code_end__>:
    a18c:	00000000 	andeq	r0, r0, r0

Disassembly of section .rodata:

0000a190 <__FUNCTION__.4024-0x100>:
    a190:	74736574 	ldrbtvc	r6, [r3], #-1396	; 0xfffffa8c
    a194:	2e322d73 	mrccs	13, 1, r2, cr2, cr3, {3}
    a198:	61702f30 	cmnvs	r0, r0, lsr pc
    a19c:	2d327472 	cfldrscs	mvf7, [r2, #-456]!	; 0xfffffe38
    a1a0:	74736574 	ldrbtvc	r6, [r3], #-1396	; 0xfffffa8c
    a1a4:	6f6e2d36 	svcvs	0x006e2d36
    a1a8:	61656c2d 	cmnvs	r5, sp, lsr #24
    a1ac:	00632e6b 	rsbeq	r2, r3, fp, ror #28
    a1b0:	43415254 	movtmi	r5, #4692	; 0x1254
    a1b4:	6c613a45 			; <UNDEFINED> instruction: 0x6c613a45
    a1b8:	20636f6c 	rsbcs	r6, r3, ip, ror #30
    a1bc:	75746572 	ldrbvc	r6, [r4, #-1394]!	; 0xfffffa8e
    a1c0:	64656e72 	strbtvs	r6, [r5], #-3698	; 0xfffff18e
    a1c4:	6f6c6220 	svcvs	0x006c6220
    a1c8:	69206b63 	stmdbvs	r0!, {r0, r1, r5, r6, r8, r9, fp, sp, lr}
    a1cc:	75253d64 	strvc	r3, [r5, #-3428]!	; 0xfffff29c
    a1d0:	70255b20 	eorvc	r5, r5, r0, lsr #22
    a1d4:	00000a5d 	andeq	r0, r0, sp, asr sl
    a1d8:	74204347 	strtvc	r4, [r0], #-839	; 0xfffffcb9
    a1dc:	36747365 	ldrbtcc	r7, [r4], -r5, ror #6
    a1e0:	0000000a 	andeq	r0, r0, sl
    a1e4:	43415254 	movtmi	r5, #4692	; 0x1254
    a1e8:	65743a45 	ldrbvs	r3, [r4, #-2629]!	; 0xfffff5bb
    a1ec:	20317473 	eorscs	r7, r1, r3, ror r4
    a1f0:	75746572 	ldrbvc	r6, [r4, #-1394]!	; 0xfffffa8e
    a1f4:	64656e72 	strbtvs	r6, [r5], #-3698	; 0xfffff18e
    a1f8:	70255b20 	eorvc	r5, r5, r0, lsr #22
    a1fc:	00000a5d 	andeq	r0, r0, sp, asr sl
    a200:	494e4150 	stmdbmi	lr, {r4, r6, r8, lr}^
    a204:	73253a43 			; <UNDEFINED> instruction: 0x73253a43
    a208:	3a73253a 	bcc	1cd36f8 <__bss_end__+0x1cc8820>
    a20c:	733a6425 	teqvc	sl, #620756992	; 0x25000000
    a210:	6c756f68 	ldclvs	15, cr6, [r5], #-416	; 0xfffffe60
    a214:	61682064 	cmnvs	r8, r4, rrx
    a218:	6e206576 	mcrvs	5, 1, r6, cr0, cr6, {3}
    a21c:	6564206f 	strbvs	r2, [r4, #-111]!	; 0xffffff91
    a220:	696e6966 	stmdbvs	lr!, {r1, r2, r5, r6, r8, fp, sp, lr}^
    a224:	6c206574 	cfstr32vs	mvfx6, [r0], #-464	; 0xfffffe30
    a228:	736b6165 	cmnvc	fp, #1073741849	; 0x40000019
    a22c:	000a0a21 	andeq	r0, sl, r1, lsr #20
    a230:	43415254 	movtmi	r5, #4692	; 0x1254
    a234:	55533a45 	ldrbpl	r3, [r3, #-2629]	; 0xfffff5bb
    a238:	53454343 	movtpl	r4, #21315	; 0x5343
    a23c:	64203a53 	strtvs	r3, [r0], #-2643	; 0xfffff5ad
    a240:	63657465 	cmnvs	r5, #1694498816	; 0x65000000
    a244:	20646574 	rsbcs	r6, r4, r4, ror r5
    a248:	616d2061 	cmnvs	sp, r1, rrx
    a24c:	20656279 	rsbcs	r6, r5, r9, ror r2
    a250:	6b61656c 	blvs	1863808 <__bss_end__+0x1858930>
    a254:	00000a21 	andeq	r0, r0, r1, lsr #20
    a258:	494e4150 	stmdbmi	lr, {r4, r6, r8, lr}^
    a25c:	73253a43 			; <UNDEFINED> instruction: 0x73253a43
    a260:	3a73253a 	bcc	1cd3750 <__bss_end__+0x1cc8878>
    a264:	733a6425 	teqvc	sl, #620756992	; 0x25000000
    a268:	6c756f68 	ldclvs	15, cr6, [r5], #-416	; 0xfffffe60
    a26c:	61682064 	cmnvs	r8, r4, rrx
    a270:	66206576 			; <UNDEFINED> instruction: 0x66206576
    a274:	646e756f 	strbtvs	r7, [lr], #-1391	; 0xfffffa91
    a278:	6d206120 	stfvss	f6, [r0, #-128]!	; 0xffffff80
    a27c:	65627961 	strbvs	r7, [r2, #-2401]!	; 0xfffff69f
    a280:	61656c20 	cmnvs	r5, r0, lsr #24
    a284:	666f206b 	strbtvs	r2, [pc], -fp, rrx
    a288:	7025203a 	eorvc	r2, r5, sl, lsr r0
    a28c:	000a0a21 	andeq	r0, sl, r1, lsr #20

0000a290 <__FUNCTION__.4024>:
    a290:	74736574 	ldrbtvc	r6, [r3], #-1396	; 0xfffffa8c
    a294:	00000031 	andeq	r0, r0, r1, lsr r0

0000a298 <__FUNCTION__.4029>:
    a298:	6d746f6e 	ldclvs	15, cr6, [r4, #-440]!	; 0xfffffe48
    a29c:	006e6961 	rsbeq	r6, lr, r1, ror #18
    a2a0:	6c616b63 			; <UNDEFINED> instruction: 0x6c616b63
    a2a4:	2e636f6c 	cdpcs	15, 6, cr6, cr3, cr12, {3}
    a2a8:	00000063 	andeq	r0, r0, r3, rrx
    a2ac:	494e4150 	stmdbmi	lr, {r4, r6, r8, lr}^
    a2b0:	73253a43 			; <UNDEFINED> instruction: 0x73253a43
    a2b4:	3a73253a 	bcc	1cd37a4 <__bss_end__+0x1cc88cc>
    a2b8:	253a6425 	ldrcs	r6, [sl, #-1061]!	; 0xfffffbdb
    a2bc:	00000a73 	andeq	r0, r0, r3, ror sl
    a2c0:	0000006c 	andeq	r0, r0, ip, rrx
    a2c4:	494e4150 	stmdbmi	lr, {r4, r6, r8, lr}^
    a2c8:	73253a43 			; <UNDEFINED> instruction: 0x73253a43
    a2cc:	3a73253a 	bcc	1cd37bc <__bss_end__+0x1cc88e4>
    a2d0:	643a6425 	ldrtvs	r6, [sl], #-1061	; 0xfffffbdb
    a2d4:	6e206469 	cdpvs	4, 2, cr6, cr0, cr9, {3}
    a2d8:	6620746f 	strtvs	r7, [r0], -pc, ror #8
    a2dc:	20646e69 	rsbcs	r6, r4, r9, ror #28
    a2e0:	69207025 	stmdbvs	r0!, {r0, r2, r5, ip, sp, lr}
    a2e4:	696c206e 	stmdbvs	ip!, {r1, r2, r3, r5, r6, sp}^
    a2e8:	0a0a7473 	beq	2a74bc <__bss_end__+0x29c5e4>
    a2ec:	00000000 	andeq	r0, r0, r0
    a2f0:	6e756f66 	cdpvs	15, 7, cr6, cr5, cr6, {3}
    a2f4:	70252064 	eorvc	r2, r5, r4, rrx
    a2f8:	206e6920 	rsbcs	r6, lr, r0, lsr #18
    a2fc:	000a7025 	andeq	r7, sl, r5, lsr #32
    a300:	253a7325 	ldrcs	r7, [sl, #-805]!	; 0xfffffcdb
    a304:	64253a73 	strtvs	r3, [r5], #-2675	; 0xfffff58d
    a308:	0000003a 	andeq	r0, r0, sl, lsr r0
    a30c:	65657266 	strbvs	r7, [r5, #-614]!	; 0xfffffd9a
    a310:	20676e69 	rsbcs	r6, r7, r9, ror #28
    a314:	0a702509 	beq	1c13740 <__bss_end__+0x1c08868>
    a318:	00000000 	andeq	r0, r0, r0
    a31c:	5f434f4c 	svcpl	0x00434f4c
    a320:	494e4150 	stmdbmi	lr, {r4, r6, r8, lr}^
    a324:	25203a43 	strcs	r3, [r0, #-2627]!	; 0xfffff5bd
    a328:	73253a73 			; <UNDEFINED> instruction: 0x73253a73
    a32c:	3a64253a 	bcc	191381c <__bss_end__+0x1908944>
    a330:	00000000 	andeq	r0, r0, r0
    a334:	65657266 	strbvs	r7, [r5, #-614]!	; 0xfffffd9a
    a338:	20676e69 	rsbcs	r6, r7, r9, ror #28
    a33c:	6c616e75 	stclvs	14, cr6, [r1], #-468	; 0xfffffe2c
    a340:	61636f6c 	cmnvs	r3, ip, ror #30
    a344:	20646574 	rsbcs	r6, r4, r4, ror r5
    a348:	6f6d656d 	svcvs	0x006d656d
    a34c:	203a7972 	eorscs	r7, sl, r2, ror r9
    a350:	74617473 	strbtvc	r7, [r1], #-1139	; 0xfffffb8d
    a354:	64253d65 	strtvs	r3, [r5], #-3429	; 0xfffff29b
    a358:	0000000a 	andeq	r0, r0, sl
    a35c:	705f6b63 	subsvc	r6, pc, r3, ror #22
    a360:	695f7274 	ldmdbvs	pc, {r2, r4, r5, r6, r9, ip, sp, lr}^	; <UNPREDICTABLE>
    a364:	6c615f73 	stclvs	15, cr5, [r1], #-460	; 0xfffffe34
    a368:	65636f6c 	strbvs	r6, [r3, #-3948]!	; 0xfffff094
    a36c:	64612864 	strbtvs	r2, [r1], #-2148	; 0xfffff79c
    a370:	00297264 	eoreq	r7, r9, r4, ror #4
    a374:	6f6c6c61 	svcvs	0x006c6c61
    a378:	69746163 	ldmdbvs	r4!, {r0, r1, r5, r6, r8, sp, lr}^
    a37c:	2520676e 	strcs	r6, [r0, #-1902]!	; 0xfffff892
    a380:	25282070 	strcs	r2, [r8, #-112]!	; 0xffffff90
    a384:	79622064 	stmdbvc	r2!, {r2, r5, r6, sp}^
    a388:	29736574 	ldmdbcs	r3!, {r2, r4, r5, r6, r8, sl, sp, lr}^
    a38c:	0000000a 	andeq	r0, r0, sl

0000a390 <__FUNCTION__.4058>:
    a390:	7473696c 	ldrbtvc	r6, [r3], #-2412	; 0xfffff694
    a394:	6d65725f 	sfmvs	f7, 2, [r5, #-380]!	; 0xfffffe84
    a398:	0065766f 	rsbeq	r7, r5, pc, ror #12

0000a39c <__FUNCTION__.4069>:
    a39c:	72666b63 	rsbvc	r6, r6, #101376	; 0x18c00
    a3a0:	00006565 	andeq	r6, r0, r5, ror #10
    a3a4:	75716552 	ldrbvc	r6, [r1, #-1362]!	; 0xfffffaae
    a3a8:	74737265 	ldrbtvc	r7, [r3], #-613	; 0xfffffd9b
    a3ac:	20676e69 	rsbcs	r6, r7, r9, ror #28
    a3b0:	65726f6d 	ldrbvs	r6, [r2, #-3949]!	; 0xfffff093
    a3b4:	6d656d20 	stclvs	13, cr6, [r5, #-128]!	; 0xffffff80
    a3b8:	2079726f 	rsbscs	r7, r9, pc, ror #4
    a3bc:	29642528 	stmdbcs	r4!, {r3, r5, r8, sl, sp}^
    a3c0:	0a2e2e2e 	beq	b95c80 <__bss_end__+0xb8ada8>
    a3c4:	00000000 	andeq	r0, r0, r0
    a3c8:	672d6b63 	strvs	r6, [sp, -r3, ror #22]!
    a3cc:	00632e63 	rsbeq	r2, r3, r3, ror #28
    a3d0:	203c2070 	eorscs	r2, ip, r0, ror r0
    a3d4:	00000065 	andeq	r0, r0, r5, rrx
    a3d8:	67696c61 	strbvs	r6, [r9, -r1, ror #24]!
    a3dc:	2864656e 	stmdacs	r4!, {r1, r2, r3, r5, r6, r8, sl, sp, lr}^
    a3e0:	34202c70 	strtcc	r2, [r0], #-3184	; 0xfffff390
    a3e4:	00000029 	andeq	r0, r0, r9, lsr #32
    a3e8:	67696c61 	strbvs	r6, [r9, -r1, ror #24]!
    a3ec:	2864656e 	stmdacs	r4!, {r1, r2, r3, r5, r6, r8, sl, sp, lr}^
    a3f0:	34202c65 	strtcc	r2, [r0], #-3173	; 0xfffff39b
    a3f4:	00000029 	andeq	r0, r0, r9, lsr #32
    a3f8:	6e696f67 	cdpvs	15, 6, cr6, cr9, cr7, {3}
    a3fc:	6f742067 	svcvs	0x00742067
    a400:	72616d20 	rsbvc	r6, r1, #32, 26	; 0x800
    a404:	7025206b 	eorvc	r2, r5, fp, rrx
    a408:	20692820 	rsbcs	r2, r9, r0, lsr #16
    a40c:	70252040 	eorvc	r2, r5, r0, asr #32
    a410:	25203d20 	strcs	r3, [r0, #-3360]!	; 0xfffff2e0
    a414:	202c2970 	eorcs	r2, ip, r0, ror r9
    a418:	20707865 	rsbscs	r7, r0, r5, ror #16
    a41c:	7025203d 	eorvc	r2, r5, sp, lsr r0
    a420:	0000000a 	andeq	r0, r0, sl
    a424:	6b72616d 	blvs	1ca29e0 <__bss_end__+0x1c97b08>
    a428:	20676e69 	rsbcs	r6, r7, r9, ror #28
    a42c:	25207361 	strcs	r7, [r0, #-865]!	; 0xfffffc9f
    a430:	00000a64 	andeq	r0, r0, r4, ror #20
    a434:	20746f6e 	rsbscs	r6, r4, lr, ror #30
    a438:	6b72616d 	blvs	1ca29f4 <__bss_end__+0x1c97b1c>
    a43c:	21676e69 	cmncs	r7, r9, ror #28
    a440:	0000000a 	andeq	r0, r0, sl
    a444:	63656863 	cmnvs	r5, #6488064	; 0x630000
    a448:	676e696b 	strbvs	r6, [lr, -fp, ror #18]!
    a44c:	61747320 	cmnvs	r4, r0, lsr #6
    a450:	203a6b63 	eorscs	r6, sl, r3, ror #22
    a454:	74207025 	strtvc	r7, [r0], #-37	; 0xffffffdb
    a458:	7025206f 	eorvc	r2, r5, pc, rrx
    a45c:	0000000a 	andeq	r0, r0, sl
    a460:	2d2d2d2d 	stccs	13, cr2, [sp, #-180]!	; 0xffffff4c
    a464:	2d2d2d2d 	stccs	13, cr2, [sp, #-180]!	; 0xffffff4c
    a468:	2d2d2d2d 	stccs	13, cr2, [sp, #-180]!	; 0xffffff4c
    a46c:	2d2d2d2d 	stccs	13, cr2, [sp, #-180]!	; 0xffffff4c
    a470:	2d2d2d2d 	stccs	13, cr2, [sp, #-180]!	; 0xffffff4c
    a474:	2d2d2d2d 	stccs	13, cr2, [sp, #-180]!	; 0xffffff4c
    a478:	2d2d2d2d 	stccs	13, cr2, [sp, #-180]!	; 0xffffff4c
    a47c:	2d2d2d2d 	stccs	13, cr2, [sp, #-180]!	; 0xffffff4c
    a480:	2d2d2d2d 	stccs	13, cr2, [sp, #-180]!	; 0xffffff4c
    a484:	2d2d2d2d 	stccs	13, cr2, [sp, #-180]!	; 0xffffff4c
    a488:	2d2d2d2d 	stccs	13, cr2, [sp, #-180]!	; 0xffffff4c
    a48c:	2d2d2d2d 	stccs	13, cr2, [sp, #-180]!	; 0xffffff4c
    a490:	2d2d2d2d 	stccs	13, cr2, [sp, #-180]!	; 0xffffff4c
    a494:	2d2d2d2d 	stccs	13, cr2, [sp, #-180]!	; 0xffffff4c
    a498:	00000a2d 	andeq	r0, r0, sp, lsr #20
    a49c:	63656863 	cmnvs	r5, #6488064	; 0x630000
    a4a0:	676e696b 	strbvs	r6, [lr, -fp, ror #18]!
    a4a4:	726f6620 	rsbvc	r6, pc, #32, 12	; 0x2000000
    a4a8:	61656c20 	cmnvs	r5, r0, lsr #24
    a4ac:	0a3a736b 	beq	ea7260 <__bss_end__+0xe9c388>
    a4b0:	00000000 	andeq	r0, r0, r0
    a4b4:	4c3a4347 	ldcmi	3, cr4, [sl], #-284	; 0xfffffee4
    a4b8:	2054534f 	subscs	r5, r4, pc, asr #6
    a4bc:	2d206425 	cfstrscs	mvf6, [r0, #-148]!	; 0xffffff6c
    a4c0:	7025203e 	eorvc	r2, r5, lr, lsr r0
    a4c4:	0000000a 	andeq	r0, r0, sl
    a4c8:	4d3a4347 	ldcmi	3, cr4, [sl, #-284]!	; 0xfffffee4
    a4cc:	45425941 	strbmi	r5, [r2, #-2369]	; 0xfffff6bf
    a4d0:	534f4c20 	movtpl	r4, #64544	; 0xfc20
    a4d4:	64252054 	strtvs	r2, [r5], #-84	; 0xffffffac
    a4d8:	203e2d20 	eorscs	r2, lr, r0, lsr #26
    a4dc:	000a7025 	andeq	r7, sl, r5, lsr #32
    a4e0:	43415254 	movtmi	r5, #4692	; 0x1254
    a4e4:	47093a45 	strmi	r3, [r9, -r5, asr #20]
    a4e8:	68433a43 	stmdavs	r3, {r0, r1, r6, r9, fp, ip, sp}^
    a4ec:	656b6365 	strbvs	r6, [fp, #-869]!	; 0xfffffc9b
    a4f0:	64252064 	strtvs	r2, [r5], #-100	; 0xffffff9c
    a4f4:	6f6c6220 	svcvs	0x006c6220
    a4f8:	2e736b63 	vsubcs.f64	d22, d3, d19
    a4fc:	0000000a 	andeq	r0, r0, sl
    a500:	43415254 	movtmi	r5, #4692	; 0x1254
    a504:	09093a45 	stmdbeq	r9, {r0, r2, r6, r9, fp, ip, sp}
    a508:	533a4347 	teqpl	sl, #469762049	; 0x1c000001
    a50c:	45434355 	strbmi	r4, [r3, #-853]	; 0xfffffcab
    a510:	203a5353 	eorscs	r5, sl, r3, asr r3
    a514:	6c206f4e 	stcvs	15, cr6, [r0], #-312	; 0xfffffec8
    a518:	736b6165 	cmnvc	fp, #1073741849	; 0x40000019
    a51c:	756f6620 	strbvc	r6, [pc, #-1568]!	; 9f04 <gpio_set_function+0x20>
    a520:	0a21646e 	beq	8636e0 <__bss_end__+0x858808>
    a524:	00000000 	andeq	r0, r0, r0
    a528:	43415254 	movtmi	r5, #4692	; 0x1254
    a52c:	09093a45 	stmdbeq	r9, {r0, r2, r6, r9, fp, ip, sp}
    a530:	453a4347 	ldrmi	r4, [sl, #-839]!	; 0xfffffcb9
    a534:	524f5252 	subpl	r5, pc, #536870917	; 0x20000005
    a538:	25203a53 	strcs	r3, [r0, #-2643]!	; 0xfffff5ad
    a53c:	72652064 	rsbvc	r2, r5, #100, 0	; 0x64
    a540:	73726f72 	cmnvc	r2, #456	; 0x1c8
    a544:	6425202c 	strtvs	r2, [r5], #-44	; 0xffffffd4
    a548:	79616d20 	stmdbvc	r1!, {r5, r8, sl, fp, sp, lr}^
    a54c:	655f6562 	ldrbvs	r6, [pc, #-1378]	; 9ff2 <gpio_set_input+0x26>
    a550:	726f7272 	rsbvc	r7, pc, #536870919	; 0x20000007
    a554:	00000a73 	andeq	r0, r0, r3, ror sl
    a558:	2d2d2d2d 	stccs	13, cr2, [sp, #-180]!	; 0xffffff4c
    a55c:	2d2d2d2d 	stccs	13, cr2, [sp, #-180]!	; 0xffffff4c
    a560:	2d2d2d2d 	stccs	13, cr2, [sp, #-180]!	; 0xffffff4c
    a564:	2d2d2d2d 	stccs	13, cr2, [sp, #-180]!	; 0xffffff4c
    a568:	2d2d2d2d 	stccs	13, cr2, [sp, #-180]!	; 0xffffff4c
    a56c:	2d2d2d2d 	stccs	13, cr2, [sp, #-180]!	; 0xffffff4c
    a570:	2d2d2d2d 	stccs	13, cr2, [sp, #-180]!	; 0xffffff4c
    a574:	2d2d2d2d 	stccs	13, cr2, [sp, #-180]!	; 0xffffff4c
    a578:	2d2d2d2d 	stccs	13, cr2, [sp, #-180]!	; 0xffffff4c
    a57c:	2d2d2d2d 	stccs	13, cr2, [sp, #-180]!	; 0xffffff4c
    a580:	2d2d2d2d 	stccs	13, cr2, [sp, #-180]!	; 0xffffff4c
    a584:	2d2d2d2d 	stccs	13, cr2, [sp, #-180]!	; 0xffffff4c
    a588:	2d2d2d2d 	stccs	13, cr2, [sp, #-180]!	; 0xffffff4c
    a58c:	2d2d2d2d 	stccs	13, cr2, [sp, #-180]!	; 0xffffff4c
    a590:	000a2d2d 	andeq	r2, sl, sp, lsr #26
    a594:	706d6f63 	rsbvc	r6, sp, r3, ror #30
    a598:	69746361 	ldmdbvs	r4!, {r0, r5, r6, r8, r9, sp, lr}^
    a59c:	0a3a676e 	beq	ea435c <__bss_end__+0xe99484>
    a5a0:	00000000 	andeq	r0, r0, r0
    a5a4:	463a4347 	ldrtmi	r4, [sl], -r7, asr #6
    a5a8:	44454552 	strbmi	r4, [r5], #-1362	; 0xfffffaae
    a5ac:	0a702520 	beq	1c13a34 <__bss_end__+0x1c08b5c>
    a5b0:	00000000 	andeq	r0, r0, r0
    a5b4:	43415254 	movtmi	r5, #4692	; 0x1254
    a5b8:	47093a45 	strmi	r3, [r9, -r5, asr #20]
    a5bc:	68433a43 	stmdavs	r3, {r0, r1, r6, r9, fp, ip, sp}^
    a5c0:	656b6365 	strbvs	r6, [fp, #-869]!	; 0xfffffc9b
    a5c4:	64252064 	strtvs	r2, [r5], #-100	; 0xffffff9c
    a5c8:	6f6c6220 	svcvs	0x006c6220
    a5cc:	2c736b63 			; <UNDEFINED> instruction: 0x2c736b63
    a5d0:	65726620 	ldrbvs	r6, [r2, #-1568]!	; 0xfffff9e0
    a5d4:	25206465 	strcs	r6, [r0, #-1125]!	; 0xfffffb9b
    a5d8:	25202c64 	strcs	r2, [r0, #-3172]!	; 0xfffff39c
    a5dc:	79622064 	stmdbvc	r2!, {r2, r5, r6, sp}^
    a5e0:	0a736574 	beq	1ce3bb8 <__bss_end__+0x1cd8ce0>
    a5e4:	00000000 	andeq	r0, r0, r0
    a5e8:	72636e69 	rsbvc	r6, r3, #1680	; 0x690
    a5ec:	6e656d65 	cdpvs	13, 6, cr6, cr5, cr5, {3}
    a5f0:	203e2074 	eorscs	r2, lr, r4, ror r0
    a5f4:	00000030 	andeq	r0, r0, r0, lsr r0
    a5f8:	494e4150 	stmdbmi	lr, {r4, r6, r8, lr}^
    a5fc:	73253a43 			; <UNDEFINED> instruction: 0x73253a43
    a600:	3a73253a 	bcc	1cd3af0 <__bss_end__+0x1cc8c18>
    a604:	6e3a6425 	cdpvs	4, 3, cr6, cr10, cr5, {1}
    a608:	6820746f 	stmdavs	r0!, {r0, r1, r2, r3, r5, r6, sl, ip, sp, lr}
    a60c:	6c646e61 	stclvs	14, cr6, [r4], #-388	; 0xfffffe7c
    a610:	0a676e69 	beq	19e5fbc <__bss_end__+0x19db0e4>
    a614:	0000000a 	andeq	r0, r0, sl
    a618:	494e4150 	stmdbmi	lr, {r4, r6, r8, lr}^
    a61c:	73253a43 			; <UNDEFINED> instruction: 0x73253a43
    a620:	3a73253a 	bcc	1cd3b10 <__bss_end__+0x1cc8c38>
    a624:	473a6425 	ldrmi	r6, [sl, -r5, lsr #8]!
    a628:	73203a43 			; <UNDEFINED> instruction: 0x73203a43
    a62c:	6c756f68 	ldclvs	15, cr6, [r5], #-416	; 0xfffffe60
    a630:	61682064 	cmnvs	r8, r4, rrx
    a634:	6e206576 	mcrvs	5, 1, r6, cr0, cr6, {3}
    a638:	656c206f 	strbvs	r2, [ip, #-111]!	; 0xffffff91
    a63c:	21736b61 	cmncs	r3, r1, ror #22
    a640:	00000a0a 	andeq	r0, r0, sl, lsl #20
    a644:	43415254 	movtmi	r5, #4692	; 0x1254
    a648:	43473a45 	movtmi	r3, #31301	; 0x7a45
    a64c:	5553203a 	ldrbpl	r2, [r3, #-58]	; 0xffffffc6
    a650:	53454343 	movtpl	r4, #21315	; 0x5343
    a654:	6e203a53 			; <UNDEFINED> instruction: 0x6e203a53
    a658:	656c206f 	strbvs	r2, [ip, #-111]!	; 0xffffff91
    a65c:	21736b61 	cmncs	r3, r1, ror #22
    a660:	0000000a 	andeq	r0, r0, sl
    a664:	494e4150 	stmdbmi	lr, {r4, r6, r8, lr}^
    a668:	73253a43 			; <UNDEFINED> instruction: 0x73253a43
    a66c:	3a73253a 	bcc	1cd3b5c <__bss_end__+0x1cc8c84>
    a670:	473a6425 	ldrmi	r6, [sl, -r5, lsr #8]!
    a674:	73203a43 			; <UNDEFINED> instruction: 0x73203a43
    a678:	6c756f68 	ldclvs	15, cr6, [r5], #-416	; 0xfffffe60
    a67c:	61682064 	cmnvs	r8, r4, rrx
    a680:	6c206576 	cfstr32vs	mvfx6, [r0], #-472	; 0xfffffe28
    a684:	736b6165 	cmnvc	fp, #1073741849	; 0x40000019
    a688:	000a0a21 	andeq	r0, sl, r1, lsr #20
    a68c:	43415254 	movtmi	r5, #4692	; 0x1254
    a690:	43473a45 	movtmi	r3, #31301	; 0x7a45
    a694:	5553203a 	ldrbpl	r2, [r3, #-58]	; 0xffffffc6
    a698:	53454343 	movtpl	r4, #21315	; 0x5343
    a69c:	66203a53 			; <UNDEFINED> instruction: 0x66203a53
    a6a0:	646e756f 	strbtvs	r7, [lr], #-1391	; 0xfffffa91
    a6a4:	20642520 	rsbcs	r2, r4, r0, lsr #10
    a6a8:	6b61656c 	blvs	1863c60 <__bss_end__+0x1858d88>
    a6ac:	000a2173 	andeq	r2, sl, r3, ror r1
    a6b0:	494e4150 	stmdbmi	lr, {r4, r6, r8, lr}^
    a6b4:	73253a43 			; <UNDEFINED> instruction: 0x73253a43
    a6b8:	3a73253a 	bcc	1cd3ba8 <__bss_end__+0x1cc8cd0>
    a6bc:	643a6425 	ldrtvs	r6, [sl], #-1061	; 0xfffffbdb
    a6c0:	6e206469 	cdpvs	4, 2, cr6, cr0, cr9, {3}
    a6c4:	6920746f 	stmdbvs	r0!, {r0, r1, r2, r3, r5, r6, sl, ip, sp, lr}
    a6c8:	656c706d 	strbvs	r7, [ip, #-109]!	; 0xffffff93
    a6cc:	746e656d 	strbtvc	r6, [lr], #-1389	; 0xfffffa93
    a6d0:	6d756420 	cfldrdvs	mvd6, [r5, #-128]!	; 0xffffff80
    a6d4:	65725f70 	ldrbvs	r5, [r2, #-3952]!	; 0xfffff090
    a6d8:	0a217367 	beq	86747c <__bss_end__+0x85c5a4>
    a6dc:	0000000a 	andeq	r0, r0, sl

0000a6e0 <__FUNCTION__.4045>:
    a6e0:	6b72616d 	blvs	1ca2c9c <__bss_end__+0x1c97dc4>
    a6e4:	00000000 	andeq	r0, r0, r0

0000a6e8 <__FUNCTION__.4101>:
    a6e8:	65657773 	strbvs	r7, [r5, #-1907]!	; 0xfffff88d
    a6ec:	72665f70 	rsbvc	r5, r6, #112, 30	; 0x1c0
    a6f0:	00006565 	andeq	r6, r0, r5, ror #10

0000a6f4 <__FUNCTION__.4032>:
    a6f4:	6b726273 	blvs	1ca30c8 <__bss_end__+0x1c981f0>
    a6f8:	00000000 	andeq	r0, r0, r0

0000a6fc <__FUNCTION__.4088>:
    a6fc:	63656863 	cmnvs	r5, #6488064	; 0x630000
    a700:	6f6e5f6b 	svcvs	0x006e5f6b
    a704:	61656c5f 	cmnvs	r5, pc, asr ip
    a708:	0000006b 	andeq	r0, r0, fp, rrx

0000a70c <__FUNCTION__.4093>:
    a70c:	63656863 	cmnvs	r5, #6488064	; 0x630000
    a710:	68735f6b 	ldmdavs	r3!, {r0, r1, r3, r5, r6, r8, r9, sl, fp, ip, lr}^
    a714:	646c756f 	strbtvs	r7, [ip], #-1391	; 0xfffffa91
    a718:	61656c5f 	cmnvs	r5, pc, asr ip
    a71c:	0000006b 	andeq	r0, r0, fp, rrx

0000a720 <__FUNCTION__.4112>:
    a720:	6c706d69 	ldclvs	13, cr6, [r0], #-420	; 0xfffffe5c
    a724:	6e656d65 	cdpvs	13, 6, cr6, cr5, cr5, {3}
    a728:	68745f74 	ldmdavs	r4!, {r2, r4, r5, r6, r8, r9, sl, fp, ip, lr}^
    a72c:	00007369 	andeq	r7, r0, r9, ror #6
    a730:	696c2f2e 	stmdbvs	ip!, {r1, r2, r3, r5, r8, r9, sl, fp, sp}^
    a734:	762f6362 	strtvc	r6, [pc], -r2, ror #6
    a738:	72702d61 	rsbsvc	r2, r0, #6208	; 0x1840
    a73c:	6b746e69 	blvs	1d260e8 <__bss_end__+0x1d1b210>
    a740:	0000632e 	andeq	r6, r0, lr, lsr #6
    a744:	33323130 	teqcc	r2, #12
    a748:	37363534 			; <UNDEFINED> instruction: 0x37363534
    a74c:	62613938 	rsbvs	r3, r1, #56, 18	; 0xe0000
    a750:	66656463 	strbtvs	r6, [r5], -r3, ror #8
    a754:	00000000 	andeq	r0, r0, r0
    a758:	00003130 	andeq	r3, r0, r0, lsr r1
    a75c:	33323130 	teqcc	r2, #12
    a760:	37363534 			; <UNDEFINED> instruction: 0x37363534
    a764:	00003938 	andeq	r3, r0, r8, lsr r9
    a768:	63747570 	cmnvs	r4, #112, 10	; 0x1c000000
    a76c:	0070665f 	rsbseq	r6, r0, pc, asr r6
    a770:	74646977 	strbtvc	r6, [r4], #-2423	; 0xfffff689
    a774:	203c2068 	eorscs	r2, ip, r8, rrx
    a778:	00003233 	andeq	r3, r0, r3, lsr r2
    a77c:	00786c6c 	rsbseq	r6, r8, ip, ror #24
    a780:	253d3078 	ldrcs	r3, [sp, #-120]!	; 0xffffff88
    a784:	00000a78 	andeq	r0, r0, r8, ror sl
    a788:	253d3178 	ldrcs	r3, [sp, #-376]!	; 0xfffffe88
    a78c:	00000a78 	andeq	r0, r0, r8, ror sl
    a790:	00646c6c 	rsbeq	r6, r4, ip, ror #24
    a794:	6e727473 	mrcvs	4, 3, r7, cr2, cr3, {3}
    a798:	28706d63 	ldmdacs	r0!, {r0, r1, r5, r6, r8, sl, fp, sp, lr}^
    a79c:	202c7974 	eorcs	r7, ip, r4, ror r9
    a7a0:	786c6c22 	stmdavc	ip!, {r1, r5, sl, fp, sp, lr}^
    a7a4:	33202c22 			; <UNDEFINED> instruction: 0x33202c22
    a7a8:	3d3d2029 	ldccc	0, cr2, [sp, #-164]!	; 0xffffff5c
    a7ac:	7c203020 	stcvc	0, cr3, [r0], #-128	; 0xffffff80
    a7b0:	7473207c 	ldrbtvc	r2, [r3], #-124	; 0xffffff84
    a7b4:	6d636e72 	stclvs	14, cr6, [r3, #-456]!	; 0xfffffe38
    a7b8:	79742870 	ldmdbvc	r4!, {r4, r5, r6, fp, sp}^
    a7bc:	6c22202c 	stcvs	0, cr2, [r2], #-176	; 0xffffff50
    a7c0:	2c22646c 	cfstrscs	mvf6, [r2], #-432	; 0xfffffe50
    a7c4:	20293320 	eorcs	r3, r9, r0, lsr #6
    a7c8:	30203d3d 	eorcc	r3, r0, sp, lsr sp
    a7cc:	00000000 	andeq	r0, r0, r0
    a7d0:	494e4150 	stmdbmi	lr, {r4, r6, r8, lr}^
    a7d4:	73253a43 			; <UNDEFINED> instruction: 0x73253a43
    a7d8:	3a73253a 	bcc	1cd3cc8 <__bss_end__+0x1cc8df0>
    a7dc:	693a6425 	ldmdbvs	sl!, {r0, r2, r5, sl, sp, lr}
    a7e0:	736f706d 	cmnvc	pc, #109, 0	; 0x6d
    a7e4:	6c626973 			; <UNDEFINED> instruction: 0x6c626973
    a7e8:	66203a65 	strtvs	r3, [r0], -r5, ror #20
    a7ec:	3c3d746d 	cfldrscc	mvf7, [sp], #-436	; 0xfffffe4c
    a7f0:	0a3e7325 	beq	fa748c <__bss_end__+0xf9c5b4>
    a7f4:	0000000a 	andeq	r0, r0, sl
    a7f8:	494e4150 	stmdbmi	lr, {r4, r6, r8, lr}^
    a7fc:	73253a43 			; <UNDEFINED> instruction: 0x73253a43
    a800:	3a73253a 	bcc	1cd3cf0 <__bss_end__+0x1cc8e18>
    a804:	663a6425 	ldrtvs	r6, [sl], -r5, lsr #8
    a808:	74616f6c 	strbtvc	r6, [r1], #-3948	; 0xfffff094
    a80c:	746f6e20 	strbtvc	r6, [pc], #-3616	; a814 <__FUNCTION__.4112+0xf4>
    a810:	616e6520 	cmnvs	lr, r0, lsr #10
    a814:	64656c62 	strbtvs	r6, [r5], #-3170	; 0xfffff39e
    a818:	0a212121 	beq	852ca4 <__bss_end__+0x847dcc>
    a81c:	00000000 	andeq	r0, r0, r0
    a820:	6e697270 	mcrvs	2, 3, r7, cr9, cr0, {3}
    a824:	203a6b74 	eorscs	r6, sl, r4, ror fp
    a828:	20746f6e 	rsbscs	r6, r4, lr, ror #30
    a82c:	646e6168 	strbtvs	r6, [lr], #-360	; 0xfffffe98
    a830:	676e696c 	strbvs	r6, [lr, -ip, ror #18]!
    a834:	65707320 	ldrbvs	r7, [r0, #-800]!	; 0xfffffce0
    a838:	69666963 	stmdbvs	r6!, {r0, r1, r5, r6, r8, fp, sp, lr}^
    a83c:	27207265 	strcs	r7, [r0, -r5, ror #4]!
    a840:	20276325 	eorcs	r6, r7, r5, lsr #6
    a844:	63736128 	cmnvs	r3, #10
    a848:	253d6969 	ldrcs	r6, [sp, #-2409]!	; 0xfffff697
    a84c:	000a2964 	andeq	r2, sl, r4, ror #18
    a850:	494e4150 	stmdbmi	lr, {r4, r6, r8, lr}^
    a854:	73253a43 			; <UNDEFINED> instruction: 0x73253a43
    a858:	3a73253a 	bcc	1cd3d48 <__bss_end__+0x1cc8e70>
    a85c:	703a6425 	eorsvc	r6, sl, r5, lsr #8
    a860:	746e6972 	strbtvc	r6, [lr], #-2418	; 0xfffff68e
    a864:	7265206b 	rsbvc	r2, r5, #107, 0	; 0x6b
    a868:	0a726f72 	beq	1ca6638 <__bss_end__+0x1c9b760>
    a86c:	0000000a 	andeq	r0, r0, sl

0000a870 <__FUNCTION__.4004>:
    a870:	74696d65 	strbtvc	r6, [r9], #-3429	; 0xfffff29b
    a874:	00000000 	andeq	r0, r0, r0

0000a878 <__FUNCTION__.3952>:
    a878:	5f697072 	svcpl	0x00697072
    a87c:	5f746573 	svcpl	0x00746573
    a880:	7074756f 	rsbsvc	r7, r4, pc, ror #10
    a884:	00007475 	andeq	r7, r0, r5, ror r4

0000a888 <__FUNCTION__.4030>:
    a888:	705f6176 	subsvc	r6, pc, r6, ror r1	; <UNPREDICTABLE>
    a88c:	746e6972 	strbtvc	r6, [lr], #-2418	; 0xfffff68e
    a890:	0000006b 	andeq	r0, r0, fp, rrx
    a894:	454e4f44 	strbmi	r4, [lr, #-3908]	; 0xfffff0bc
    a898:	0a212121 	beq	852d24 <__bss_end__+0x847e4c>
    a89c:	00000000 	andeq	r0, r0, r0
    a8a0:	6c616d6b 	stclvs	13, cr6, [r1], #-428	; 0xfffffe54
    a8a4:	2e636f6c 	cdpcs	15, 6, cr6, cr3, cr12, {3}
    a8a8:	00000063 	andeq	r0, r0, r3, rrx
    a8ac:	5f78616d 	svcpl	0x0078616d
    a8b0:	7479626e 	ldrbtvc	r6, [r9], #-622	; 0xfffffd92
    a8b4:	00007365 	andeq	r7, r0, r5, ror #6
    a8b8:	494e4150 	stmdbmi	lr, {r4, r6, r8, lr}^
    a8bc:	73253a43 			; <UNDEFINED> instruction: 0x73253a43
    a8c0:	3a73253a 	bcc	1cd3db0 <__bss_end__+0x1cc8ed8>
    a8c4:	733a6425 	teqvc	sl, #620756992	; 0x25000000
    a8c8:	69747465 	ldmdbvs	r4!, {r0, r2, r5, r6, sl, ip, sp, lr}^
    a8cc:	6820676e 	stmdavs	r0!, {r1, r2, r3, r5, r6, r8, r9, sl, sp, lr}
    a8d0:	20706165 	rsbscs	r6, r0, r5, ror #2
    a8d4:	25206f74 	strcs	r6, [r0, #-3956]!	; 0xfffff08c
    a8d8:	77203a70 			; <UNDEFINED> instruction: 0x77203a70
    a8dc:	206c6c69 	rsbcs	r6, ip, r9, ror #24
    a8e0:	20746968 	rsbscs	r6, r4, r8, ror #18
    a8e4:	20656874 	rsbcs	r6, r5, r4, ror r8
    a8e8:	20646c6f 	rsbcs	r6, r4, pc, ror #24
    a8ec:	70616568 	rsbvc	r6, r1, r8, ror #10
    a8f0:	20746120 	rsbscs	r6, r4, r0, lsr #2
    a8f4:	0a0a7025 	beq	2a6990 <__bss_end__+0x29bab8>
    a8f8:	00000000 	andeq	r0, r0, r0
    a8fc:	494e4150 	stmdbmi	lr, {r4, r6, r8, lr}^
    a900:	73253a43 			; <UNDEFINED> instruction: 0x73253a43
    a904:	3a73253a 	bcc	1cd3df4 <__bss_end__+0x1cc8f1c>
    a908:	613a6425 	teqvs	sl, r5, lsr #8
    a90c:	6165726c 	cmnvs	r5, ip, ror #4
    a910:	63207964 			; <UNDEFINED> instruction: 0x63207964
    a914:	656c6c61 	strbvs	r6, [ip, #-3169]!	; 0xfffff39f
    a918:	6d6b2064 	stclvs	0, cr2, [fp, #-400]!	; 0xfffffe70
    a91c:	6f6c6c61 	svcvs	0x006c6c61
    a920:	6e695f63 	cdpvs	15, 6, cr5, cr9, cr3, {3}
    a924:	0a0a7469 	beq	2a7ad0 <__bss_end__+0x29cbf8>
    a928:	00000000 	andeq	r0, r0, r0
    a92c:	494e4150 	stmdbmi	lr, {r4, r6, r8, lr}^
    a930:	73253a43 			; <UNDEFINED> instruction: 0x73253a43
    a934:	3a73253a 	bcc	1cd3e24 <__bss_end__+0x1cc8f4c>
    a938:	253a6425 	ldrcs	r6, [sl, #-1061]!	; 0xfffffbdb
    a93c:	626e2064 	rsbvs	r2, lr, #100, 0	; 0x64
    a940:	73657479 	cmnvc	r5, #2030043136	; 0x79000000
    a944:	63786520 	cmnvs	r8, #32, 10	; 0x8000000
    a948:	65646565 	strbvs	r6, [r4, #-1381]!	; 0xfffffa9b
    a94c:	69732064 	ldmdbvs	r3!, {r2, r5, r6, sp}^
    a950:	6f20657a 	svcvs	0x0020657a
    a954:	65682066 	strbvs	r2, [r8, #-102]!	; 0xffffff9a
    a958:	62207061 	eorvs	r7, r0, #97, 0	; 0x61
    a95c:	75252079 	strvc	r2, [r5, #-121]!	; 0xffffff87
    a960:	79626e20 	stmdbvc	r2!, {r5, r9, sl, fp, sp, lr}^
    a964:	0a736574 	beq	1ce3f3c <__bss_end__+0x1cd9064>
    a968:	0000000a 	andeq	r0, r0, sl
    a96c:	4f525245 	svcmi	0x00525245
    a970:	73253a52 			; <UNDEFINED> instruction: 0x73253a52
    a974:	3a73253a 	bcc	1cd3e64 <__bss_end__+0x1cc8f8c>
    a978:	203a6425 	eorscs	r6, sl, r5, lsr #8
    a97c:	534c4146 	movtpl	r4, #49478	; 0xc146
    a980:	253c2845 	ldrcs	r2, [ip, #-2117]!	; 0xfffff7bb
    a984:	3a293e73 	bcc	a5a358 <__bss_end__+0xa4f480>
    a988:	73736120 	cmnvc	r3, #8
    a98c:	6e696d75 	mcrvs	13, 3, r6, cr9, cr5, {3}
    a990:	6f702067 	svcvs	0x00702067
    a994:	20726577 	rsbscs	r6, r2, r7, ror r5
    a998:	7420666f 	strtvc	r6, [r0], #-1647	; 0xfffff991
    a99c:	000a6f77 	andeq	r6, sl, r7, ror pc
    a9a0:	705f7369 	subsvc	r7, pc, r9, ror #6
    a9a4:	2832776f 	ldmdacs	r2!, {r0, r1, r2, r3, r5, r6, r8, r9, sl, ip, sp, lr}
    a9a8:	67696c61 	strbvs	r6, [r9, -r1, ror #24]!
    a9ac:	6e656d6e 	cdpvs	13, 6, cr6, cr5, cr14, {3}
    a9b0:	00002974 	andeq	r2, r0, r4, ror r9
    a9b4:	705f7369 	subsvc	r7, pc, r9, ror #6
    a9b8:	2832776f 	ldmdacs	r2!, {r0, r1, r2, r3, r5, r6, r8, r9, sl, ip, sp, lr}
    a9bc:	0000296e 	andeq	r2, r0, lr, ror #18
    a9c0:	4f525245 	svcmi	0x00525245
    a9c4:	73253a52 			; <UNDEFINED> instruction: 0x73253a52
    a9c8:	3a73253a 	bcc	1cd3eb8 <__bss_end__+0x1cc8fe0>
    a9cc:	203a6425 	eorscs	r6, sl, r5, lsr #8
    a9d0:	534c4146 	movtpl	r4, #49478	; 0xc146
    a9d4:	253c2845 	ldrcs	r2, [ip, #-2117]!	; 0xfffff7bb
    a9d8:	3a293e73 	bcc	a5a3ac <__bss_end__+0xa4f4d4>
    a9dc:	706d6920 	rsbvc	r6, sp, r0, lsr #18
    a9e0:	6973736f 	ldmdbvs	r3!, {r0, r1, r2, r3, r5, r6, r8, r9, ip, sp, lr}^
    a9e4:	0a656c62 	beq	1965b74 <__bss_end__+0x195ac9c>
    a9e8:	00000000 	andeq	r0, r0, r0
    a9ec:	615f7369 	cmpvs	pc, r9, ror #6
    a9f0:	6e67696c 	vnmulvs.f16	s13, s14, s25	; <UNPREDICTABLE>
    a9f4:	68286465 	stmdavs	r8!, {r0, r2, r5, r6, sl, sp, lr}
    a9f8:	6c61202c 	stclvs	0, cr2, [r1], #-176	; 0xffffff50
    a9fc:	6d6e6769 	stclvs	7, cr6, [lr, #-420]!	; 0xfffffe5c
    aa00:	29746e65 	ldmdbcs	r4!, {r0, r2, r5, r6, r9, sl, fp, sp, lr}^
    aa04:	00000000 	andeq	r0, r0, r0
    aa08:	494e4150 	stmdbmi	lr, {r4, r6, r8, lr}^
    aa0c:	73253a43 			; <UNDEFINED> instruction: 0x73253a43
    aa10:	3a73253a 	bcc	1cd3f00 <__bss_end__+0x1cc9028>
    aa14:	703a6425 	eorsvc	r6, sl, r5, lsr #8
    aa18:	746e696f 	strbtvc	r6, [lr], #-2415	; 0xfffff691
    aa1c:	25207265 	strcs	r7, [r0, #-613]!	; 0xfffffd9b
    aa20:	61772070 	cmnvs	r7, r0, ror r0
    aa24:	656e2073 	strbvs	r2, [lr, #-115]!	; 0xffffff8d
    aa28:	20726576 	rsbscs	r6, r2, r6, ror r5
    aa2c:	6f6c6c61 	svcvs	0x006c6c61
    aa30:	65746163 	ldrbvs	r6, [r4, #-355]!	; 0xfffffe9d
    aa34:	000a0a64 	andeq	r0, sl, r4, ror #20

0000aa38 <__FUNCTION__.7>:
    aa38:	6c616d6b 	stclvs	13, cr6, [r1], #-428	; 0xfffffe54
    aa3c:	5f636f6c 	svcpl	0x00636f6c
    aa40:	74696e69 	strbtvc	r6, [r9], #-3689	; 0xfffff197
    aa44:	7465735f 	strbtvc	r7, [r5], #-863	; 0xfffffca1
    aa48:	6174735f 	cmnvs	r4, pc, asr r3
    aa4c:	00007472 	andeq	r7, r0, r2, ror r4

0000aa50 <__FUNCTION__.5>:
    aa50:	6c616d6b 	stclvs	13, cr6, [r1], #-428	; 0xfffffe54
    aa54:	5f636f6c 	svcpl	0x00636f6c
    aa58:	74696e69 	strbtvc	r6, [r9], #-3689	; 0xfffff197
    aa5c:	00000000 	andeq	r0, r0, r0

0000aa60 <__FUNCTION__.4>:
    aa60:	6c616d6b 	stclvs	13, cr6, [r1], #-428	; 0xfffffe54
    aa64:	5f636f6c 	svcpl	0x00636f6c
    aa68:	7a746f6e 	bvc	1d26828 <__bss_end__+0x1d1b950>
    aa6c:	006f7265 	rsbeq	r7, pc, r5, ror #4

0000aa70 <__FUNCTION__.2>:
    aa70:	6c616d6b 	stclvs	13, cr6, [r1], #-428	; 0xfffffe54
    aa74:	00636f6c 	rsbeq	r6, r3, ip, ror #30

0000aa78 <__FUNCTION__.1>:
    aa78:	6c616d6b 	stclvs	13, cr6, [r1], #-428	; 0xfffffe54
    aa7c:	5f636f6c 	svcpl	0x00636f6c
    aa80:	67696c61 	strbvs	r6, [r9, -r1, ror #24]!
    aa84:	0064656e 	rsbeq	r6, r4, lr, ror #10

0000aa88 <__FUNCTION__.3>:
    aa88:	6e756f72 	mrcvs	15, 3, r6, cr5, cr2, {3}
    aa8c:	00707564 	rsbseq	r7, r0, r4, ror #10

0000aa90 <__FUNCTION__.0>:
    aa90:	6572666b 	ldrbvs	r6, [r2, #-1643]!	; 0xfffff995
    aa94:	6f705f65 	svcvs	0x00705f65
    aa98:	Address 0x000000000000aa98 is out of bounds.


Disassembly of section .data:

0000aa9c <putk>:
    aa9c:	00008c88 	andeq	r8, r0, r8, lsl #25

0000aaa0 <heap>:
    aaa0:	0000aed8 	ldrdeq	sl, [r0], -r8

0000aaa4 <heap_start>:
    aaa4:	0000aed8 	ldrdeq	sl, [r0], -r8

0000aaa8 <heap_end>:
    aaa8:	0020aed8 	ldrdeq	sl, [r0], -r8	; <UNPREDICTABLE>

0000aaac <rpi_putchar>:
    aaac:	0000a07c 	andeq	sl, r0, ip, ror r0

Disassembly of section .bss:

0000aab0 <__bss_start__>:
	...

0000aab8 <freep>:
	...

0000aac0 <base>:
	...

0000aac8 <heap_start>:
    aac8:	00000000 	andeq	r0, r0, r0

0000aacc <heap_end>:
    aacc:	00000000 	andeq	r0, r0, r0

0000aad0 <init_p.4031>:
    aad0:	00000000 	andeq	r0, r0, r0

0000aad4 <buf.3944>:
	...

0000aed4 <init_p.6>:
    aed4:	00000000 	andeq	r0, r0, r0

Disassembly of section .ARM.attributes:

00000000 <.ARM.attributes>:
   0:	00002a41 	andeq	r2, r0, r1, asr #20
   4:	61656100 	cmnvs	r5, r0, lsl #2
   8:	01006962 	tsteq	r0, r2, ror #18
   c:	00000020 	andeq	r0, r0, r0, lsr #32
  10:	4b5a3605 	blmi	168d82c <__bss_end__+0x1682954>
  14:	08070600 	stmdaeq	r7, {r9, sl}
  18:	12010901 	andne	r0, r1, #16384	; 0x4000
  1c:	15011404 	strne	r1, [r1, #-1028]	; 0xfffffbfc
  20:	18031701 	stmdane	r3, {r0, r8, r9, sl, ip}
  24:	22011a01 	andcs	r1, r1, #4096	; 0x1000
  28:	Address 0x0000000000000028 is out of bounds.


Disassembly of section .comment:

00000000 <.comment>:
   0:	3a434347 	bcc	10d0d24 <__bss_end__+0x10c5e4c>
   4:	4e472820 	cdpmi	8, 4, cr2, cr7, cr0, {1}
   8:	6f542055 	svcvs	0x00542055
   c:	20736c6f 	rsbscs	r6, r3, pc, ror #24
  10:	20726f66 	rsbscs	r6, r2, r6, ror #30
  14:	206d7241 	rsbcs	r7, sp, r1, asr #4
  18:	65626d45 	strbvs	r6, [r2, #-3397]!	; 0xfffff2bb
  1c:	64656464 	strbtvs	r6, [r5], #-1124	; 0xfffffb9c
  20:	6f725020 	svcvs	0x00725020
  24:	73736563 	cmnvc	r3, #415236096	; 0x18c00000
  28:	2073726f 	rsbscs	r7, r3, pc, ror #4
  2c:	30322d39 	eorscc	r2, r2, r9, lsr sp
  30:	712d3931 			; <UNDEFINED> instruction: 0x712d3931
  34:	616d2d34 	cmnvs	sp, r4, lsr sp
  38:	29726f6a 	ldmdbcs	r2!, {r1, r3, r5, r6, r8, r9, sl, fp, sp, lr}^
  3c:	322e3920 	eorcc	r3, lr, #32, 18	; 0x80000
  40:	3220312e 	eorcc	r3, r0, #-2147483637	; 0x8000000b
  44:	31393130 	teqcc	r9, r0, lsr r1
  48:	20353230 	eorscs	r3, r5, r0, lsr r2
  4c:	6c657228 	sfmvs	f7, 2, [r5], #-160	; 0xffffff60
  50:	65736165 	ldrbvs	r6, [r3, #-357]!	; 0xfffffe9b
  54:	415b2029 	cmpmi	fp, r9, lsr #32
  58:	612f4d52 			; <UNDEFINED> instruction: 0x612f4d52
  5c:	392d6d72 	pushcc	{r1, r4, r5, r6, r8, sl, fp, sp, lr}
  60:	6172622d 	cmnvs	r2, sp, lsr #4
  64:	2068636e 	rsbcs	r6, r8, lr, ror #6
  68:	69766572 	ldmdbvs	r6!, {r1, r4, r5, r6, r8, sl, sp, lr}^
  6c:	6e6f6973 			; <UNDEFINED> instruction: 0x6e6f6973
  70:	37373220 	ldrcc	r3, [r7, -r0, lsr #4]!
  74:	5d393935 			; <UNDEFINED> instruction: 0x5d393935
  78:	43434700 	movtmi	r4, #14080	; 0x3700
  7c:	4728203a 			; <UNDEFINED> instruction: 0x4728203a
  80:	4120554e 			; <UNDEFINED> instruction: 0x4120554e
  84:	45206d72 	strmi	r6, [r0, #-3442]!	; 0xfffff28e
  88:	6465626d 	strbtvs	r6, [r5], #-621	; 0xfffffd93
  8c:	20646564 	rsbcs	r6, r4, r4, ror #10
  90:	6c6f6f54 	stclvs	15, cr6, [pc], #-336	; ffffff48 <__bss_end__+0xffff5070>
  94:	69616863 	stmdbvs	r1!, {r0, r1, r5, r6, fp, sp, lr}^
  98:	3031206e 	eorscc	r2, r1, lr, rrx
  9c:	322d332e 	eorcc	r3, sp, #-1207959552	; 0xb8000000
  a0:	2e313230 	mrccs	2, 1, r3, cr1, cr0, {1}
  a4:	20293031 	eorcs	r3, r9, r1, lsr r0
  a8:	332e3031 			; <UNDEFINED> instruction: 0x332e3031
  ac:	3220312e 	eorcc	r3, r0, #-2147483637	; 0x8000000b
  b0:	30313230 	eorscc	r3, r1, r0, lsr r2
  b4:	20343238 	eorscs	r3, r4, r8, lsr r2
  b8:	6c657228 	sfmvs	f7, 2, [r5], #-160	; 0xffffff60
  bc:	65736165 	ldrbvs	r6, [r3, #-357]!	; 0xfffffe9b
  c0:	Address 0x00000000000000c0 is out of bounds.


Disassembly of section .debug_info:

00000000 <.debug_info>:
       0:	0000049a 	muleq	r0, sl, r4
       4:	00000004 	andeq	r0, r0, r4
       8:	01040000 	mrseq	r0, (UNDEF: 4)
       c:	0000017b 	andeq	r0, r0, fp, ror r1
      10:	0000260c 	andeq	r2, r0, ip, lsl #12
      14:	00011700 	andeq	r1, r1, r0, lsl #14
      18:	00803800 	addeq	r3, r0, r0, lsl #16
      1c:	00010c00 	andeq	r0, r1, r0, lsl #24
      20:	00000000 	andeq	r0, r0, r0
      24:	05040200 	streq	r0, [r4, #-512]	; 0xfffffe00
      28:	00746e69 	rsbseq	r6, r4, r9, ror #28
      2c:	ea070403 	b	1c1040 <__bss_end__+0x1b6168>
      30:	03000000 	movweq	r0, #0
      34:	00770601 	rsbseq	r0, r7, r1, lsl #12
      38:	02030000 	andeq	r0, r3, #0, 0
      3c:	00014905 	andeq	r4, r1, r5, lsl #18
      40:	05040300 	streq	r0, [r4, #-768]	; 0xfffffd00
      44:	0000010e 	andeq	r0, r0, lr, lsl #2
      48:	09050803 	stmdbeq	r5, {r0, r1, fp}
      4c:	04000001 	streq	r0, [r0], #-1
      50:	000000f7 	strdeq	r0, [r0], -r7
      54:	5b182e04 	blpl	60b86c <__bss_end__+0x600994>
      58:	03000000 	movweq	r0, #0
      5c:	00750801 	rsbseq	r0, r5, r1, lsl #16
      60:	5d040000 	stcpl	0, cr0, [r4, #-0]
      64:	04000001 	streq	r0, [r0], #-1
      68:	006e1931 	rsbeq	r1, lr, r1, lsr r9
      6c:	02030000 	andeq	r0, r3, #0, 0
      70:	00009007 	andeq	r9, r0, r7
      74:	01660400 	cmneq	r6, r0, lsl #8
      78:	34040000 	strcc	r0, [r4], #-0
      7c:	00008119 	andeq	r8, r0, r9, lsl r1
      80:	07040300 	streq	r0, [r4, -r0, lsl #6]
      84:	000000e5 	andeq	r0, r0, r5, ror #1
      88:	e0070803 	and	r0, r7, r3, lsl #16
      8c:	05000000 	streq	r0, [r0, #-0]
      90:	00000025 	andeq	r0, r0, r5, lsr #32
      94:	0000009e 	muleq	r0, lr, r0
      98:	00002506 	andeq	r2, r0, r6, lsl #10
      9c:	6f070000 	svcvs	0x00070000
      a0:	05000001 	streq	r0, [r0, #-1]
      a4:	00aa0e1c 	adceq	r0, sl, ip, lsl lr
      a8:	04080000 	streq	r0, [r8], #-0
      ac:	0000008f 	andeq	r0, r0, pc, lsl #1
      b0:	00002505 	andeq	r2, r0, r5, lsl #10
      b4:	0000bf00 	andeq	fp, r0, r0, lsl #30
      b8:	00bf0600 	adcseq	r0, pc, r0, lsl #12
      bc:	08000000 	stmdaeq	r0, {}	; <UNPREDICTABLE>
      c0:	0000cc04 	andeq	ip, r0, r4, lsl #24
      c4:	08010300 	stmdaeq	r1, {r8, r9}
      c8:	0000007e 	andeq	r0, r0, lr, ror r0
      cc:	0000c509 	andeq	ip, r0, r9, lsl #10
      d0:	05d40700 	ldrbeq	r0, [r4, #1792]	; 0x700
      d4:	21050000 	mrscs	r0, (UNDEF: 5)
      d8:	0000dd0e 	andeq	sp, r0, lr, lsl #26
      dc:	b0040800 	andlt	r0, r4, r0, lsl #16
      e0:	0a000000 	beq	e8 <__code_start__-0x7f18>
      e4:	0904030c 	stmdbeq	r4, {r2, r3, r8, r9}
      e8:	00000114 	andeq	r0, r0, r4, lsl r1
      ec:	0000700b 	andeq	r7, r0, fp
      f0:	11060300 	mrsne	r0, LR_und
      f4:	000000bf 	strheq	r0, [r0], -pc	; <UNPREDICTABLE>
      f8:	00bf0b00 	adcseq	r0, pc, r0, lsl #22
      fc:	07030000 	streq	r0, [r3, -r0]
     100:	0000bf11 	andeq	fp, r0, r1, lsl pc
     104:	460b0400 	strmi	r0, [fp], -r0, lsl #8
     108:	03000000 	movweq	r0, #0
     10c:	002c0e08 	eoreq	r0, ip, r8, lsl #28
     110:	00080000 	andeq	r0, r8, r0
     114:	00015304 	andeq	r5, r1, r4, lsl #6
     118:	03090300 	movweq	r0, #37632	; 0x9300
     11c:	000000e3 	andeq	r0, r0, r3, ror #1
     120:	0000a30c 	andeq	sl, r0, ip, lsl #6
     124:	0d01a800 	stceq	8, cr10, [r1, #-0]
     128:	0001a310 	andeq	sl, r1, r0, lsl r3
     12c:	00130b00 	andseq	r0, r3, r0, lsl #22
     130:	0e010000 	cdpeq	0, 0, cr0, cr1, cr0, {0}
     134:	0001a314 	andeq	sl, r1, r4, lsl r3
     138:	630b0000 	movwvs	r0, #45056	; 0xb000
     13c:	01000000 	mrseq	r0, (UNDEF: 0)
     140:	00750e0f 	rsbseq	r0, r5, pc, lsl #28
     144:	0b040000 	bleq	10014c <__bss_end__+0xf5274>
     148:	00000020 	andeq	r0, r0, r0, lsr #32
     14c:	750e1001 	strvc	r1, [lr, #-1]
     150:	08000000 	stmdaeq	r0, {}	; <UNPREDICTABLE>
     154:	0000d70b 	andeq	sp, r0, fp, lsl #14
     158:	0e140100 	mufeqs	f0, f4, f0
     15c:	00000075 	andeq	r0, r0, r5, ror r0
     160:	00ff0b0c 	rscseq	r0, pc, ip, lsl #22
     164:	16010000 	strne	r0, [r1], -r0
     168:	0001140f 	andeq	r1, r1, pc, lsl #8
     16c:	300b1000 	andcc	r1, fp, r0
     170:	01000002 	tsteq	r0, r2
     174:	00750e19 	rsbseq	r0, r5, r9, lsl lr
     178:	0b1c0000 	bleq	700180 <__bss_end__+0x6f52a8>
     17c:	0000023b 	andeq	r0, r0, fp, lsr r2
     180:	750e1a01 	strvc	r1, [lr, #-2561]	; 0xfffff5ff
     184:	20000000 	andcs	r0, r0, r0
     188:	0003b50b 	andeq	fp, r3, fp, lsl #10
     18c:	0e1c0100 	mufeqe	f0, f4, f0
     190:	00000062 	andeq	r0, r0, r2, rrx
     194:	7a720d24 	bvc	1c8362c <__bss_end__+0x1c78754>
     198:	1e010031 	mcrne	0, 0, r0, cr1, cr1, {1}
     19c:	0001a90d 	andeq	sl, r1, sp, lsl #18
     1a0:	08002600 	stmdaeq	r0, {r9, sl, sp}
     1a4:	00012004 	andeq	r2, r1, r4
     1a8:	004f0e00 	subeq	r0, pc, r0, lsl #28
     1ac:	01b90000 			; <UNDEFINED> instruction: 0x01b90000
     1b0:	2c0f0000 	stccs	0, cr0, [pc], {-0}
     1b4:	7f000000 	svcvc	0x00000000
     1b8:	000d0400 	andeq	r0, sp, r0, lsl #8
     1bc:	1f010000 	svcne	0x00010000
     1c0:	00012003 	andeq	r2, r1, r3
     1c4:	07041000 	streq	r1, [r4, -r0]
     1c8:	00000000 	andeq	r0, r0, r0
     1cc:	2c11a501 	cfldr32cs	mvfx10, [r1], {1}
     1d0:	11000000 	mrsne	r0, (UNDEF: 0)
     1d4:	0000005b 	andeq	r0, r0, fp, asr r0
     1d8:	a0061102 	andge	r1, r6, r2, lsl #2
     1dc:	a4000080 	strge	r0, [r0], #-128	; 0xffffff80
     1e0:	01000000 	mrseq	r0, (UNDEF: 0)
     1e4:	0002fb9c 	muleq	r2, ip, fp
     1e8:	00701200 	rsbseq	r1, r0, r0, lsl #4
     1ec:	fb0b1502 	blx	2c55fe <__bss_end__+0x2ba726>
     1f0:	06000002 	streq	r0, [r0], -r2
     1f4:	00000000 	andeq	r0, r0, r0
     1f8:	13000000 	movwne	r0, #0
     1fc:	000000c4 	andeq	r0, r0, r4, asr #1
     200:	00000311 	andeq	r0, r0, r1, lsl r3
     204:	a2980305 	addsge	r0, r8, #335544320	; 0x14000000
     208:	b0140000 	andslt	r0, r4, r0
     20c:	63000080 	movwvs	r0, #128	; 0x80
     210:	21000004 	tstcs	r0, r4
     214:	15000002 	strne	r0, [r0, #-2]
     218:	03055001 	movweq	r5, #20481	; 0x5001
     21c:	0000a1d8 	ldrdeq	sl, [r0], -r8
     220:	80b41600 	adcshi	r1, r4, r0, lsl #12
     224:	03160000 	tsteq	r6, #0, 0
     228:	c4140000 	ldrgt	r0, [r4], #-0
     22c:	63000080 	movwvs	r0, #128	; 0x80
     230:	47000004 	strmi	r0, [r0, -r4]
     234:	15000002 	strne	r0, [r0, #-2]
     238:	03055001 	movweq	r5, #20481	; 0x5001
     23c:	0000a1e4 	andeq	sl, r0, r4, ror #3
     240:	02510115 	subseq	r0, r1, #1073741829	; 0x40000005
     244:	14000074 	strne	r0, [r0], #-116	; 0xffffff8c
     248:	000080cc 	andeq	r8, r0, ip, asr #1
     24c:	0000046f 	andeq	r0, r0, pc, ror #8
     250:	0000025a 	andeq	r0, r0, sl, asr r2
     254:	01500115 	cmpeq	r0, r5, lsl r1
     258:	dc140030 	ldcle	0, cr0, [r4], {48}	; 0x30
     25c:	6f000080 	svcvs	0x00000080
     260:	6d000004 	stcvs	0, cr0, [r0, #-16]
     264:	15000002 	strne	r0, [r0, #-2]
     268:	31015001 	tstcc	r1, r1
     26c:	80ec1400 	rschi	r1, ip, r0, lsl #8
     270:	04630000 	strbteq	r0, [r3], #-0
     274:	02840000 	addeq	r0, r4, #0, 0
     278:	01150000 	tsteq	r5, r0
     27c:	30030550 	andcc	r0, r3, r0, asr r5
     280:	000000a2 	andeq	r0, r0, r2, lsr #1
     284:	00810814 	addeq	r0, r1, r4, lsl r8
     288:	00046300 	andeq	r6, r4, r0, lsl #6
     28c:	0002b200 	andeq	fp, r2, r0, lsl #4
     290:	50011500 	andpl	r1, r1, r0, lsl #10
     294:	a2000305 	andge	r0, r0, #335544320	; 0x14000000
     298:	01150000 	tsteq	r5, r0
     29c:	90030551 	andls	r0, r3, r1, asr r5
     2a0:	150000a1 	strne	r0, [r0, #-161]	; 0xffffff5f
     2a4:	03055201 	movweq	r5, #20993	; 0x5201
     2a8:	0000a298 	muleq	r0, r8, r2
     2ac:	01530115 	cmpeq	r3, r5, lsl r1
     2b0:	0c16004b 	ldceq	0, cr0, [r6], {75}	; 0x4b
     2b4:	7b000081 	blvc	4c0 <__code_start__-0x7b40>
     2b8:	14000004 	strne	r0, [r0], #-4
     2bc:	00008124 	andeq	r8, r0, r4, lsr #2
     2c0:	00000463 	andeq	r0, r0, r3, ror #8
     2c4:	000002f1 	strdeq	r0, [r0], -r1
     2c8:	05500115 	ldrbeq	r0, [r0, #-277]	; 0xfffffeeb
     2cc:	00a25803 	adceq	r5, r2, r3, lsl #16
     2d0:	51011500 	tstpl	r1, r0, lsl #10
     2d4:	a1900305 	orrsge	r0, r0, r5, lsl #6
     2d8:	01150000 	tsteq	r5, r0
     2dc:	98030552 	stmdals	r3, {r1, r4, r6, r8, sl}
     2e0:	150000a2 	strne	r0, [r0, #-162]	; 0xffffff5e
     2e4:	08025301 	stmdaeq	r2, {r0, r8, r9, ip, lr}
     2e8:	7d021520 	cfstr32vc	mvfx1, [r2, #-128]	; 0xffffff80
     2ec:	00740200 	rsbseq	r0, r4, r0, lsl #4
     2f0:	81281600 			; <UNDEFINED> instruction: 0x81281600
     2f4:	047b0000 	ldrbteq	r0, [fp], #-0
     2f8:	08000000 	stmdaeq	r0, {}	; <UNPREDICTABLE>
     2fc:	0000c504 	andeq	ip, r0, r4, lsl #10
     300:	00cc0e00 	sbceq	r0, ip, r0, lsl #28
     304:	03110000 	tsteq	r1, #0, 0
     308:	2c0f0000 	stccs	0, cr0, [pc], {-0}
     30c:	07000000 	streq	r0, [r0, -r0]
     310:	03010900 	movweq	r0, #6400	; 0x1900
     314:	d1170000 	tstle	r7, r0
     318:	02000000 	andeq	r0, r0, #0, 0
     31c:	02fb070a 	rscseq	r0, fp, #2621440	; 0x280000
     320:	80400000 	subhi	r0, r0, r0
     324:	00600000 	rsbeq	r0, r0, r0
     328:	9c010000 	stcls	0, cr0, [r1], {-0}
     32c:	000003d3 	ldrdeq	r0, [r0], -r3
     330:	02007012 	andeq	r7, r0, #18, 0
     334:	02fb0b0c 	rscseq	r0, fp, #12, 22	; 0x3000
     338:	00350000 	eorseq	r0, r5, r0
     33c:	002f0000 	eoreq	r0, pc, r0
     340:	c4130000 	ldrgt	r0, [r3], #-0
     344:	e3000000 	movw	r0, #0
     348:	05000003 	streq	r0, [r0, #-3]
     34c:	00a29003 	adceq	r9, r2, r3
     350:	042d1800 	strteq	r1, [sp], #-2048	; 0xfffff800
     354:	80480000 	subhi	r0, r8, r0
     358:	48010000 	stmdami	r1, {}	; <UNPREDICTABLE>
     35c:	18000080 	stmdane	r0, {r7}
     360:	02000000 	andeq	r0, r0, #0, 0
     364:	03920f0c 	orrseq	r0, r2, #12, 30	; 0x30
     368:	56190000 	ldrpl	r0, [r9], -r0
     36c:	62000004 	andvs	r0, r0, #4, 0
     370:	60000000 	andvs	r0, r0, r0
     374:	19000000 	stmdbne	r0, {}	; <UNPREDICTABLE>
     378:	0000044a 	andeq	r0, r0, sl, asr #8
     37c:	00000078 	andeq	r0, r0, r8, ror r0
     380:	00000076 	andeq	r0, r0, r6, ror r0
     384:	00043e19 	andeq	r3, r4, r9, lsl lr
     388:	00009200 	andeq	r9, r0, r0, lsl #4
     38c:	00009000 	andeq	r9, r0, r0
     390:	70140000 	andsvc	r0, r4, r0
     394:	91000080 	smlabbls	r0, r0, r0, r0
     398:	a5000004 	strge	r0, [r0, #-4]
     39c:	15000003 	strne	r0, [r0, #-3]
     3a0:	34015001 	strcc	r5, [r1], #-1
     3a4:	80781400 	rsbshi	r1, r8, r0, lsl #8
     3a8:	03e80000 	mvneq	r0, #0, 0
     3ac:	03b90000 			; <UNDEFINED> instruction: 0x03b90000
     3b0:	01150000 	tsteq	r5, r0
     3b4:	00740250 	rsbseq	r0, r4, r0, asr r2
     3b8:	80881a00 	addhi	r1, r8, r0, lsl #20
     3bc:	04630000 	strbteq	r0, [r3], #-0
     3c0:	01150000 	tsteq	r5, r0
     3c4:	b0030550 	andlt	r0, r3, r0, asr r5
     3c8:	150000a1 	strne	r0, [r0, #-161]	; 0xffffff5f
     3cc:	74025201 	strvc	r5, [r2], #-513	; 0xfffffdff
     3d0:	0e000000 	cdpeq	0, 0, cr0, cr0, cr0, {0}
     3d4:	000000cc 	andeq	r0, r0, ip, asr #1
     3d8:	000003e3 	andeq	r0, r0, r3, ror #7
     3dc:	00002c0f 	andeq	r2, r0, pc, lsl #24
     3e0:	09000500 	stmdbeq	r0, {r8, sl}
     3e4:	000003d3 	ldrdeq	r0, [r0], -r3
     3e8:	0000b51b 	andeq	fp, r0, fp, lsl r5
     3ec:	11220100 			; <UNDEFINED> instruction: 0x11220100
     3f0:	0000002c 	andeq	r0, r0, ip, lsr #32
     3f4:	00008038 	andeq	r8, r0, r8, lsr r0
     3f8:	00000008 	andeq	r0, r0, r8
     3fc:	04279c01 	strteq	r9, [r7], #-3073	; 0xfffff3ff
     400:	701c0000 	andsvc	r0, ip, r0
     404:	21220100 			; <UNDEFINED> instruction: 0x21220100
     408:	000001c5 	andeq	r0, r0, r5, asr #3
     40c:	000000ae 	andeq	r0, r0, lr, lsr #1
     410:	000000aa 	andeq	r0, r0, sl, lsr #1
     414:	01006812 	tsteq	r0, r2, lsl r8
     418:	04270c23 	strteq	r0, [r7], #-3107	; 0xfffff3dd
     41c:	00d30000 	sbcseq	r0, r3, r0
     420:	00cf0000 	sbceq	r0, pc, r0
     424:	08000000 	stmdaeq	r0, {}	; <UNPREDICTABLE>
     428:	0001b904 	andeq	fp, r1, r4, lsl #18
     42c:	00aa1d00 	adceq	r1, sl, r0, lsl #26
     430:	0c030000 	stceq	0, cr0, [r3], {-0}
     434:	0001140b 	andeq	r1, r1, fp, lsl #8
     438:	04630300 	strbteq	r0, [r3], #-768	; 0xfffffd00
     43c:	701e0000 	andsvc	r0, lr, r0
     440:	03000000 	movweq	r0, #0
     444:	00bf220c 	adcseq	r2, pc, ip, lsl #4
     448:	bf1e0000 	svclt	0x001e0000
     44c:	03000000 	movweq	r0, #0
     450:	00bf340c 	adcseq	r3, pc, ip, lsl #8
     454:	461e0000 	ldrmi	r0, [lr], -r0
     458:	03000000 	movweq	r0, #0
     45c:	002c430c 	eoreq	r4, ip, ip, lsl #6
     460:	1f000000 	svcne	0x00000000
     464:	00000596 	muleq	r0, r6, r5
     468:	00000596 	muleq	r0, r6, r5
     46c:	1f062805 	svcne	0x00062805
     470:	0000004d 	andeq	r0, r0, sp, asr #32
     474:	0000004d 	andeq	r0, r0, sp, asr #32
     478:	1f0a5e01 	svcne	0x000a5e01
     47c:	00000083 	andeq	r0, r0, r3, lsl #1
     480:	00000083 	andeq	r0, r0, r3, lsl #1
     484:	20066e05 	andcs	r6, r6, r5, lsl #28
     488:	74069e08 	strvc	r9, [r6], #-3592	; 0xfffff1f8
     48c:	31747365 	cmncc	r4, r5, ror #6
     490:	00181f00 	andseq	r1, r8, r0, lsl #30
     494:	00180000 	andseq	r0, r8, r0
     498:	49010000 	stmdbmi	r1, {}	; <UNPREDICTABLE>
     49c:	07e90008 	strbeq	r0, [r9, r8]!
     4a0:	00040000 	andeq	r0, r4, r0
     4a4:	000001e5 	andeq	r0, r0, r5, ror #3
     4a8:	017b0104 	cmneq	fp, r4, lsl #2
     4ac:	d00c0000 	andle	r0, ip, r0
     4b0:	17000002 	strne	r0, [r0, -r2]
     4b4:	44000001 	strmi	r0, [r0], #-1
     4b8:	ec000081 	stc	0, cr0, [r0], {129}	; 0x81
     4bc:	86000002 	strhi	r0, [r0], -r2
     4c0:	02000001 	andeq	r0, r0, #1, 0
     4c4:	6e690504 	cdpvs	5, 6, cr0, cr9, cr4, {0}
     4c8:	04030074 	streq	r0, [r3], #-116	; 0xffffff8c
     4cc:	0000ea07 	andeq	lr, r0, r7, lsl #20
     4d0:	06010300 	streq	r0, [r1], -r0, lsl #6
     4d4:	00000077 	andeq	r0, r0, r7, ror r0
     4d8:	49050203 	stmdbmi	r5, {r0, r1, r9}
     4dc:	03000001 	movweq	r0, #1
     4e0:	010e0504 	tsteq	lr, r4, lsl #10
     4e4:	08030000 	stmdaeq	r3, {}	; <UNPREDICTABLE>
     4e8:	00010905 	andeq	r0, r1, r5, lsl #18
     4ec:	00f70400 	rscseq	r0, r7, r0, lsl #8
     4f0:	2e030000 	cdpcs	0, 0, cr0, cr3, cr0, {0}
     4f4:	00005b18 	andeq	r5, r0, r8, lsl fp
     4f8:	08010300 	stmdaeq	r1, {r8, r9}
     4fc:	00000075 	andeq	r0, r0, r5, ror r0
     500:	00015d04 	andeq	r5, r1, r4, lsl #26
     504:	19310300 	ldmdbne	r1!, {r8, r9}
     508:	0000006e 	andeq	r0, r0, lr, rrx
     50c:	90070203 	andls	r0, r7, r3, lsl #4
     510:	04000000 	streq	r0, [r0], #-0
     514:	00000166 	andeq	r0, r0, r6, ror #2
     518:	81193403 	tsthi	r9, r3, lsl #8
     51c:	03000000 	movweq	r0, #0
     520:	00e50704 	rsceq	r0, r5, r4, lsl #14
     524:	08030000 	stmdaeq	r3, {}	; <UNPREDICTABLE>
     528:	0000e007 	andeq	lr, r0, r7
     52c:	00250500 	eoreq	r0, r5, r0, lsl #10
     530:	009e0000 	addseq	r0, lr, r0
     534:	25060000 	strcs	r0, [r6, #-0]
     538:	00000000 	andeq	r0, r0, r0
     53c:	00016f07 	andeq	r6, r1, r7, lsl #30
     540:	0e1c0400 	cfmulseq	mvf0, mvf12, mvf0
     544:	000000aa 	andeq	r0, r0, sl, lsr #1
     548:	008f0408 	addeq	r0, pc, r8, lsl #8
     54c:	25050000 	strcs	r0, [r5, #-0]
     550:	bf000000 	svclt	0x00000000
     554:	06000000 	streq	r0, [r0], -r0
     558:	000000bf 	strheq	r0, [r0], -pc	; <UNPREDICTABLE>
     55c:	cc040800 	stcgt	8, cr0, [r4], {-0}
     560:	03000000 	movweq	r0, #0
     564:	007e0801 	rsbseq	r0, lr, r1, lsl #16
     568:	c5090000 	strgt	r0, [r9, #-0]
     56c:	07000000 	streq	r0, [r0, -r0]
     570:	000005d4 	ldrdeq	r0, [r0], -r4
     574:	dd0e2104 	stfles	f2, [lr, #-16]
     578:	08000000 	stmdaeq	r0, {}	; <UNPREDICTABLE>
     57c:	0000b004 	andeq	fp, r0, r4
     580:	050c0a00 	streq	r0, [ip, #-2560]	; 0xfffff600
     584:	01140904 	tsteq	r4, r4, lsl #18
     588:	700b0000 	andvc	r0, fp, r0
     58c:	05000000 	streq	r0, [r0, #-0]
     590:	00bf1106 	adcseq	r1, pc, r6, lsl #2
     594:	0b000000 	bleq	59c <__code_start__-0x7a64>
     598:	000000bf 	strheq	r0, [r0], -pc	; <UNPREDICTABLE>
     59c:	bf110705 	svclt	0x00110705
     5a0:	04000000 	streq	r0, [r0], #-0
     5a4:	0000460b 	andeq	r4, r0, fp, lsl #12
     5a8:	0e080500 	cfsh32eq	mvfx0, mvfx8, #0
     5ac:	0000002c 	andeq	r0, r0, ip, lsr #32
     5b0:	53040008 	movwpl	r0, #16392	; 0x4008
     5b4:	05000001 	streq	r0, [r0, #-1]
     5b8:	00e30309 	rsceq	r0, r3, r9, lsl #6
     5bc:	070c0000 	streq	r0, [ip, -r0]
     5c0:	00005b01 	andeq	r5, r0, r1, lsl #22
     5c4:	0e090200 	cdpeq	2, 0, cr0, cr9, cr0, {0}
     5c8:	0000013b 	andeq	r0, r0, fp, lsr r1
     5cc:	0002da0d 	andeq	sp, r2, sp, lsl #20
     5d0:	570d0b00 	strpl	r0, [sp, -r0, lsl #22]
     5d4:	0c000002 	stceq	0, cr0, [r0], {2}
     5d8:	01070c00 	tsteq	r7, r0, lsl #24
     5dc:	0000005b 	andeq	r0, r0, fp, asr r0
     5e0:	56060a02 	strpl	r0, [r6], -r2, lsl #20
     5e4:	0d000001 	stceq	0, cr0, [r0, #-4]
     5e8:	00000271 	andeq	r0, r0, r1, ror r2
     5ec:	025d0d80 	subseq	r0, sp, #128, 26	; 0x2000
     5f0:	00fe0000 	rscseq	r0, lr, r0
     5f4:	0000a30e 	andeq	sl, r0, lr, lsl #6
     5f8:	0d02a800 	stceq	8, cr10, [r2, #-0]
     5fc:	0001d910 	andeq	sp, r1, r0, lsl r9
     600:	00130b00 	andseq	r0, r3, r0, lsl #22
     604:	0e020000 	cdpeq	0, 0, cr0, cr2, cr0, {0}
     608:	0001d914 	andeq	sp, r1, r4, lsl r9
     60c:	630b0000 	movwvs	r0, #45056	; 0xb000
     610:	02000000 	andeq	r0, r0, #0, 0
     614:	00750e0f 	rsbseq	r0, r5, pc, lsl #28
     618:	0b040000 	bleq	100620 <__bss_end__+0xf5748>
     61c:	00000020 	andeq	r0, r0, r0, lsr #32
     620:	750e1002 	strvc	r1, [lr, #-2]
     624:	08000000 	stmdaeq	r0, {}	; <UNPREDICTABLE>
     628:	0000d70b 	andeq	sp, r0, fp, lsl #14
     62c:	0e140200 	cdpeq	2, 1, cr0, cr4, cr0, {0}
     630:	00000075 	andeq	r0, r0, r5, ror r0
     634:	00ff0b0c 	rscseq	r0, pc, ip, lsl #22
     638:	16020000 	strne	r0, [r2], -r0
     63c:	0001140f 	andeq	r1, r1, pc, lsl #8
     640:	300b1000 	andcc	r1, fp, r0
     644:	02000002 	andeq	r0, r0, #2, 0
     648:	00750e19 	rsbseq	r0, r5, r9, lsl lr
     64c:	0b1c0000 	bleq	700654 <__bss_end__+0x6f577c>
     650:	0000023b 	andeq	r0, r0, fp, lsr r2
     654:	750e1a02 	strvc	r1, [lr, #-2562]	; 0xfffff5fe
     658:	20000000 	andcs	r0, r0, r0
     65c:	0003b50b 	andeq	fp, r3, fp, lsl #10
     660:	0e1c0200 	cdpeq	2, 1, cr0, cr12, cr0, {0}
     664:	00000062 	andeq	r0, r0, r2, rrx
     668:	7a720f24 	bvc	1c84300 <__bss_end__+0x1c79428>
     66c:	1e020031 	mcrne	0, 0, r0, cr2, cr1, {1}
     670:	0001df0d 	andeq	sp, r1, sp, lsl #30
     674:	08002600 	stmdaeq	r0, {r9, sl, sp}
     678:	00015604 	andeq	r5, r1, r4, lsl #12
     67c:	004f1000 	subeq	r1, pc, r0
     680:	01ef0000 	mvneq	r0, r0
     684:	2c110000 	ldccs	0, cr0, [r1], {-0}
     688:	7f000000 	svcvc	0x00000000
     68c:	000d0400 	andeq	r0, sp, r0, lsl #8
     690:	1f020000 	svcne	0x00020000
     694:	00015603 	andeq	r5, r1, r3, lsl #12
     698:	07041200 	streq	r1, [r4, -r0, lsl #4]
     69c:	00000000 	andeq	r0, r0, r0
     6a0:	2c11a502 	cfldr32cs	mvfx10, [r1], {2}
     6a4:	13000000 	movwne	r0, #0
     6a8:	00000294 	muleq	r0, r4, r2
     6ac:	1b0f0801 	blne	3c26b8 <__bss_end__+0x3b77e0>
     6b0:	05000002 	streq	r0, [r0, #-2]
     6b4:	00aab003 	adceq	fp, sl, r3
     6b8:	ef040800 	svc	0x00040800
     6bc:	14000001 	strne	r0, [r0], #-1
     6c0:	00000018 	andeq	r0, r0, r8, lsl r0
     6c4:	fb086601 	blx	219ed2 <__bss_end__+0x20effa>
     6c8:	9c000001 	stcls	0, cr0, [r0], {1}
     6cc:	94000083 	strls	r0, [r0], #-131	; 0xffffff7d
     6d0:	01000000 	mrseq	r0, (UNDEF: 0)
     6d4:	0002ee9c 	muleq	r2, ip, lr
     6d8:	03021500 	movweq	r1, #9472	; 0x2500
     6dc:	66010000 	strvs	r0, [r1], -r0
     6e0:	0000751a 	andeq	r7, r0, sl, lsl r5
     6e4:	0000fa00 	andeq	pc, r0, r0, lsl #20
     6e8:	0000f400 	andeq	pc, r0, r0, lsl #8
     6ec:	006c1600 	rsbeq	r1, ip, r0, lsl #12
     6f0:	142c6601 	strtne	r6, [ip], #-1537	; 0xfffff9ff
     6f4:	02000001 	andeq	r0, r0, #1, 0
     6f8:	68176491 	ldmdavs	r7, {r0, r4, r7, sl, sp, lr}
     6fc:	0c680100 	stfeqe	f0, [r8], #-0
     700:	0000021b 	andeq	r0, r0, fp, lsl r2
     704:	0000012c 	andeq	r0, r0, ip, lsr #2
     708:	00000126 	andeq	r0, r0, r6, lsr #2
     70c:	0083b818 	addeq	fp, r3, r8, lsl r8
     710:	0007b000 	andeq	fp, r7, r0
     714:	00028300 	andeq	r8, r2, r0, lsl #6
     718:	50011900 	andpl	r1, r1, r0, lsl #18
     71c:	01a87603 			; <UNDEFINED> instruction: 0x01a87603
     720:	83c81800 	bichi	r1, r8, #0, 16
     724:	07bc0000 	ldreq	r0, [ip, r0]!
     728:	02a20000 	adceq	r0, r2, #0, 0
     72c:	01190000 	tsteq	r9, r0
     730:	00740250 	rsbseq	r0, r4, r0, asr r2
     734:	01510119 	cmpeq	r1, r9, lsl r1
     738:	52011930 	andpl	r1, r1, #48, 18	; 0xc0000
     73c:	00a80802 	adceq	r0, r8, r2, lsl #16
     740:	0083f418 	addeq	pc, r3, r8, lsl r4	; <UNPREDICTABLE>
     744:	0007c800 	andeq	ip, r7, r0, lsl #16
     748:	0002ce00 	andeq	ip, r2, r0, lsl #28
     74c:	50011900 	andpl	r1, r1, r0, lsl #18
     750:	a3000305 	movwge	r0, #773	; 0x305
     754:	01190000 	tsteq	r9, r0
     758:	00750351 	rsbseq	r0, r5, r1, asr r3
     75c:	52011906 	andpl	r1, r1, #98304	; 0x18000
     760:	06609103 	strbteq	r9, [r0], -r3, lsl #2
     764:	03530119 	cmpeq	r3, #1073741830	; 0x40000006
     768:	00066491 	muleq	r6, r1, r4
     76c:	0084081a 	addeq	r0, r4, sl, lsl r8
     770:	0007c800 	andeq	ip, r7, r0, lsl #16
     774:	50011900 	andpl	r1, r1, r0, lsl #18
     778:	a3740305 	cmnge	r4, #335544320	; 0x14000000
     77c:	01190000 	tsteq	r9, r0
     780:	00750251 	rsbseq	r0, r5, r1, asr r2
     784:	02520119 	subseq	r0, r2, #1073741830	; 0x40000006
     788:	00000076 	andeq	r0, r0, r6, ror r0
     78c:	00028d1b 	andeq	r8, r2, fp, lsl sp
     790:	06530100 	ldrbeq	r0, [r3], -r0, lsl #2
     794:	000082b0 			; <UNDEFINED> instruction: 0x000082b0
     798:	000000ec 	andeq	r0, r0, ip, ror #1
     79c:	045d9c01 	ldrbeq	r9, [sp], #-3073	; 0xfffff3ff
     7a0:	53150000 	tstpl	r5, #0, 0
     7a4:	0100000a 	tsteq	r0, sl
     7a8:	01fb1453 	mvnseq	r1, r3, asr r4
     7ac:	015d0000 	cmpeq	sp, r0
     7b0:	01590000 	cmpeq	r9, r0
     7b4:	6c160000 	ldcvs	0, cr0, [r6], {-0}
     7b8:	24530100 	ldrbcs	r0, [r3], #-256	; 0xffffff00
     7bc:	00000114 	andeq	r0, r0, r4, lsl r1
     7c0:	175c9102 	ldrbne	r9, [ip, -r2, lsl #2]
     7c4:	55010068 	strpl	r0, [r1, #-104]	; 0xffffff98
     7c8:	00021b0c 	andeq	r1, r2, ip, lsl #22
     7cc:	00018500 	andeq	r8, r1, r0, lsl #10
     7d0:	00017b00 	andeq	r7, r1, r0, lsl #22
     7d4:	00c41c00 	sbceq	r1, r4, r0, lsl #24
     7d8:	046d0000 	strbteq	r0, [sp], #-0
     7dc:	03050000 	movweq	r0, #20480	; 0x5000
     7e0:	0000a39c 	muleq	r0, ip, r3
     7e4:	0082e418 	addeq	lr, r2, r8, lsl r4
     7e8:	0007c800 	andeq	ip, r7, r0, lsl #16
     7ec:	00036f00 	andeq	r6, r3, r0, lsl #30
     7f0:	50011900 	andpl	r1, r1, r0, lsl #18
     7f4:	a3000305 	movwge	r0, #773	; 0x305
     7f8:	01190000 	tsteq	r9, r0
     7fc:	00760251 	rsbseq	r0, r6, r1, asr r2
     800:	02520119 	subseq	r0, r2, #1073741830	; 0x40000006
     804:	01190077 	tsteq	r9, r7, ror r0
     808:	00780253 	rsbseq	r0, r8, r3, asr r2
     80c:	82f01800 	rscshi	r1, r0, #0, 16
     810:	07c80000 	strbeq	r0, [r8, r0]
     814:	038c0000 	orreq	r0, ip, #0, 0
     818:	01190000 	tsteq	r9, r0
     81c:	0c030550 	cfstr32eq	mvfx0, [r3], {80}	; 0x50
     820:	190000a3 	stmdbne	r0, {r0, r1, r5, r7}
     824:	74025101 	strvc	r5, [r2], #-257	; 0xfffffeff
     828:	10180000 	andsne	r0, r8, r0
     82c:	92000083 	andls	r0, r0, #131, 0	; 0x83
     830:	a0000005 	andge	r0, r0, r5
     834:	19000003 	stmdbne	r0, {r0, r1}
     838:	74025001 	strvc	r5, [r2], #-1
     83c:	24180000 	ldrcs	r0, [r8], #-0
     840:	72000083 	andvc	r0, r0, #131, 0	; 0x83
     844:	bd000004 	stclt	0, cr0, [r0, #-16]
     848:	19000003 	stmdbne	r0, {r0, r1}
     84c:	03055001 	movweq	r5, #20481	; 0x5001
     850:	0000aab0 			; <UNDEFINED> instruction: 0x0000aab0
     854:	02510119 	subseq	r0, r1, #1073741830	; 0x40000006
     858:	18000075 	stmdane	r0, {r0, r2, r4, r5, r6}
     85c:	0000832c 	andeq	r8, r0, ip, lsr #6
     860:	000007d4 	ldrdeq	r0, [r0], -r4
     864:	000003d1 	ldrdeq	r0, [r0], -r1
     868:	02500119 	subseq	r0, r0, #1073741830	; 0x40000006
     86c:	18000075 	stmdane	r0, {r0, r2, r4, r5, r6}
     870:	00008348 	andeq	r8, r0, r8, asr #6
     874:	000007c8 	andeq	r0, r0, r8, asr #15
     878:	000003fa 	strdeq	r0, [r0], -sl
     87c:	05500119 	ldrbeq	r0, [r0, #-281]	; 0xfffffee7
     880:	00a31c03 	adceq	r1, r3, r3, lsl #24
     884:	51011900 	tstpl	r1, r0, lsl #18
     888:	19007602 	stmdbne	r0, {r1, r9, sl, ip, sp, lr}
     88c:	77025201 	strvc	r5, [r2, -r1, lsl #4]
     890:	53011900 	movwpl	r1, #6400	; 0x1900
     894:	00007802 	andeq	r7, r0, r2, lsl #16
     898:	00835418 	addeq	r5, r3, r8, lsl r4
     89c:	0007c800 	andeq	ip, r7, r0, lsl #16
     8a0:	00041100 	andeq	r1, r4, r0, lsl #2
     8a4:	50011900 	andpl	r1, r1, r0, lsl #18
     8a8:	a3340305 	teqge	r4, #335544320	; 0x14000000
     8ac:	1d000000 	stcne	0, cr0, [r0, #-0]
     8b0:	00008358 	andeq	r8, r0, r8, asr r3
     8b4:	000007e0 	andeq	r0, r0, r0, ror #15
     8b8:	00837418 	addeq	r7, r3, r8, lsl r4
     8bc:	0007c800 	andeq	ip, r7, r0, lsl #16
     8c0:	00045300 	andeq	r5, r4, r0, lsl #6
     8c4:	50011900 	andpl	r1, r1, r0, lsl #18
     8c8:	a2ac0305 	adcge	r0, ip, #335544320	; 0x14000000
     8cc:	01190000 	tsteq	r9, r0
     8d0:	a0030551 	andge	r0, r3, r1, asr r5
     8d4:	190000a2 	stmdbne	r0, {r1, r5, r7}
     8d8:	03055201 	movweq	r5, #20993	; 0x5201
     8dc:	0000a39c 	muleq	r0, ip, r3
     8e0:	02530119 	subseq	r0, r3, #1073741830	; 0x40000006
     8e4:	02195d08 	andseq	r5, r9, #8, 26	; 0x200
     8e8:	0305007d 	movweq	r0, #20605	; 0x507d
     8ec:	0000a35c 	andeq	sl, r0, ip, asr r3
     8f0:	83781d00 	cmnhi	r8, #0, 26
     8f4:	07e00000 	strbeq	r0, [r0, r0]!
     8f8:	10000000 	andne	r0, r0, r0
     8fc:	000000cc 	andeq	r0, r0, ip, asr #1
     900:	0000046d 	andeq	r0, r0, sp, ror #8
     904:	00002c11 	andeq	r2, r0, r1, lsl ip
     908:	09000600 	stmdbeq	r0, {r9, sl}
     90c:	0000045d 	andeq	r0, r0, sp, asr r4
     910:	0002a61e 	andeq	sl, r2, lr, lsl r6
     914:	0d3a0100 	ldfeqs	f0, [sl, #-0]
     918:	00008164 	andeq	r8, r0, r4, ror #2
     91c:	000000a4 	andeq	r0, r0, r4, lsr #1
     920:	05779c01 	ldrbeq	r9, [r7, #-3073]!	; 0xfffff3ff
     924:	6c1f0000 	ldcvs	0, cr0, [pc], {-0}
     928:	213a0100 	teqcs	sl, r0, lsl #2
     92c:	00000577 	andeq	r0, r0, r7, ror r5
     930:	000001d8 	ldrdeq	r0, [r0], -r8
     934:	000001ca 	andeq	r0, r0, sl, asr #3
     938:	0100681f 	tsteq	r0, pc, lsl r8
     93c:	021b2b3a 	andseq	r2, fp, #59392	; 0xe800
     940:	02420000 	subeq	r0, r2, #0, 0
     944:	02360000 	eorseq	r0, r6, #0, 0
     948:	c41c0000 	ldrgt	r0, [ip], #-0
     94c:	8d000000 	stchi	0, cr0, [r0, #-0]
     950:	05000005 	streq	r0, [r0, #-5]
     954:	00a39003 	adceq	r9, r3, r3
     958:	02fa2000 	rscseq	r2, sl, #0, 0
     95c:	3d010000 	stccc	0, cr0, [r1, #-0]
     960:	00021b0c 	andeq	r1, r2, ip, lsl #22
     964:	00029700 	andeq	r9, r2, r0, lsl #14
     968:	00028f00 	andeq	r8, r2, r0, lsl #30
     96c:	00701700 	rsbseq	r1, r0, r0, lsl #14
     970:	1b0c4501 	blne	311d7c <__bss_end__+0x306ea4>
     974:	cf000002 	svcgt	0x00000002
     978:	cb000002 	blgt	988 <__code_start__-0x7678>
     97c:	18000002 	stmdane	r0, {r1}
     980:	0000818c 	andeq	r8, r0, ip, lsl #3
     984:	00000751 	andeq	r0, r0, r1, asr r7
     988:	000004f5 	strdeq	r0, [r0], -r5
     98c:	02500119 	subseq	r0, r0, #1073741830	; 0x40000006
     990:	18000075 	stmdane	r0, {r0, r2, r4, r5, r6}
     994:	000081c8 	andeq	r8, r0, r8, asr #3
     998:	000007c8 	andeq	r0, r0, r8, asr #15
     99c:	0000052e 	andeq	r0, r0, lr, lsr #10
     9a0:	05500119 	ldrbeq	r0, [r0, #-281]	; 0xfffffee7
     9a4:	00a2ac03 	adceq	sl, r2, r3, lsl #24
     9a8:	51011900 	tstpl	r1, r0, lsl #18
     9ac:	a2a00305 	adcge	r0, r0, #335544320	; 0x14000000
     9b0:	01190000 	tsteq	r9, r0
     9b4:	90030552 	andls	r0, r3, r2, asr r5
     9b8:	190000a3 	stmdbne	r0, {r0, r1, r5, r7}
     9bc:	08025301 	stmdaeq	r2, {r0, r8, r9, ip, lr}
     9c0:	7d02193c 	vstrvc.16	s2, [r2, #-120]	; 0xffffff88	; <UNPREDICTABLE>
     9c4:	c0030500 	andgt	r0, r3, r0, lsl #10
     9c8:	000000a2 	andeq	r0, r0, r2, lsr #1
     9cc:	0081cc1d 	addeq	ip, r1, sp, lsl ip
     9d0:	0007e000 	andeq	lr, r7, r0
     9d4:	81f01800 	mvnshi	r1, r0, lsl #16
     9d8:	07c80000 	strbeq	r0, [r8, r0]
     9dc:	056d0000 	strbeq	r0, [sp, #-0]!
     9e0:	01190000 	tsteq	r9, r0
     9e4:	c4030550 	strgt	r0, [r3], #-1360	; 0xfffffab0
     9e8:	190000a2 	stmdbne	r0, {r1, r5, r7}
     9ec:	03055101 	movweq	r5, #20737	; 0x5101
     9f0:	0000a2a0 	andeq	sl, r0, r0, lsr #5
     9f4:	05520119 	ldrbeq	r0, [r2, #-281]	; 0xfffffee7
     9f8:	00a39003 	adceq	r9, r3, r3
     9fc:	53011900 	movwpl	r1, #6400	; 0x1900
     a00:	194f0802 	stmdbne	pc, {r1, fp}^	; <UNPREDICTABLE>
     a04:	02007d02 	andeq	r7, r0, #128	; 0x80
     a08:	1d000074 	stcne	0, cr0, [r0, #-464]	; 0xfffffe30
     a0c:	000081f4 	strdeq	r8, [r0], -r4
     a10:	000007e0 	andeq	r0, r0, r0, ror #15
     a14:	1b040800 	blne	102a1c <__bss_end__+0xf7b44>
     a18:	10000002 	andne	r0, r0, r2
     a1c:	000000cc 	andeq	r0, r0, ip, asr #1
     a20:	0000058d 	andeq	r0, r0, sp, lsl #11
     a24:	00002c11 	andeq	r2, r0, r1, lsl ip
     a28:	09000b00 	stmdbeq	r0, {r8, r9, fp}
     a2c:	0000057d 	andeq	r0, r0, sp, ror r5
     a30:	0002b214 	andeq	fp, r2, r4, lsl r2
     a34:	082b0100 	stmdaeq	fp!, {r8}
     a38:	0000021b 	andeq	r0, r0, fp, lsl r2
     a3c:	00008258 	andeq	r8, r0, r8, asr r2
     a40:	00000058 	andeq	r0, r0, r8, asr r0
     a44:	06339c01 	ldrteq	r9, [r3], -r1, lsl #24
     a48:	701f0000 	andsvc	r0, pc, r0
     a4c:	01007274 	tsteq	r0, r4, ror r2
     a50:	01fb202b 	mvnseq	r2, fp, lsr #32
     a54:	02f10000 	rscseq	r0, r1, #0, 0
     a58:	02ed0000 	rsceq	r0, sp, #0, 0
     a5c:	60210000 	eorvs	r0, r1, r0
     a60:	44000082 	strmi	r0, [r0], #-130	; 0xffffff7e
     a64:	17000000 	strne	r0, [r0, -r0]
     a68:	2e010068 	cdpcs	0, 0, cr0, cr1, cr8, {3}
     a6c:	00021b11 	andeq	r1, r2, r1, lsl fp
     a70:	00031700 	andeq	r1, r3, r0, lsl #14
     a74:	00030f00 	andeq	r0, r3, r0, lsl #30
     a78:	82641d00 	rsbhi	r1, r4, #0, 26
     a7c:	077e0000 	ldrbeq	r0, [lr, -r0]!
     a80:	7c180000 	ldcvc	0, cr0, [r8], {-0}
     a84:	33000082 	movwcc	r0, #130	; 0x82
     a88:	fe000006 	cdp2	0, 0, cr0, cr0, cr6, {0}
     a8c:	19000005 	stmdbne	r0, {r0, r2}
     a90:	74025001 	strvc	r5, [r2], #-1
     a94:	51011900 	tstpl	r1, r0, lsl #18
     a98:	00007502 	andeq	r7, r0, r2, lsl #10
     a9c:	00828c18 	addeq	r8, r2, r8, lsl ip
     aa0:	00075100 	andeq	r5, r7, r0, lsl #2
     aa4:	00061200 	andeq	r1, r6, r0, lsl #4
     aa8:	50011900 	andpl	r1, r1, r0, lsl #18
     aac:	00007402 	andeq	r7, r0, r2, lsl #8
     ab0:	0082a41a 	addeq	sl, r2, sl, lsl r4
     ab4:	0007c800 	andeq	ip, r7, r0, lsl #16
     ab8:	50011900 	andpl	r1, r1, r0, lsl #18
     abc:	a2f00305 	rscsge	r0, r0, #335544320	; 0x14000000
     ac0:	01190000 	tsteq	r9, r0
     ac4:	00750251 	rsbseq	r0, r5, r1, asr r2
     ac8:	02520119 	subseq	r0, r2, #1073741830	; 0x40000006
     acc:	00000074 	andeq	r0, r0, r4, ror r0
     ad0:	02471400 	subeq	r1, r7, #0, 8
     ad4:	24010000 	strcs	r0, [r1], #-0
     ad8:	00002c0a 	andeq	r2, r0, sl, lsl #24
     adc:	00822800 	addeq	r2, r2, r0, lsl #16
     ae0:	00003000 	andeq	r3, r0, r0
     ae4:	c09c0100 	addsgt	r0, ip, r0, lsl #2
     ae8:	1f000006 	svcne	0x00000006
     aec:	24010068 	strcs	r0, [r1], #-104	; 0xffffff98
     af0:	00021b21 	andeq	r1, r2, r1, lsr #22
     af4:	00034f00 	andeq	r4, r3, r0, lsl #30
     af8:	00034b00 	andeq	r4, r3, r0, lsl #22
     afc:	74701f00 	ldrbtvc	r1, [r0], #-3840	; 0xfffff100
     b00:	24010072 	strcs	r0, [r1], #-114	; 0xffffff8e
     b04:	0001fb2a 	andeq	pc, r1, sl, lsr #22
     b08:	00037100 	andeq	r7, r3, r0, lsl #2
     b0c:	00036d00 	andeq	r6, r3, r0, lsl #26
     b10:	696d1700 	stmdbvs	sp!, {r8, r9, sl, ip}^
     b14:	2601006e 	strcs	r0, [r1], -lr, rrx
     b18:	0001fb0b 	andeq	pc, r1, fp, lsl #22
     b1c:	00039300 	andeq	r9, r3, r0, lsl #6
     b20:	00038f00 	andeq	r8, r3, r0, lsl #30
     b24:	616d1700 	cmnvs	sp, r0, lsl #14
     b28:	27010078 	smlsdxcs	r1, r8, r0, r0
     b2c:	0001fb0b 	andeq	pc, r1, fp, lsl #22
     b30:	0003b300 	andeq	fp, r3, r0, lsl #6
     b34:	0003b100 	andeq	fp, r3, r0, lsl #2
     b38:	82381800 	eorshi	r1, r8, #0, 16
     b3c:	07240000 	streq	r0, [r4, -r0]!
     b40:	06af0000 	strteq	r0, [pc], r0
     b44:	01190000 	tsteq	r9, r0
     b48:	00760250 	rsbseq	r0, r6, r0, asr r2
     b4c:	82441a00 	subhi	r1, r4, #0, 20
     b50:	06c00000 	strbeq	r0, [r0], r0
     b54:	01190000 	tsteq	r9, r0
     b58:	00760250 	rsbseq	r0, r6, r0, asr r2
     b5c:	ef140000 	svc	0x00140000
     b60:	01000002 	tsteq	r0, r2
     b64:	01fb071e 	mvnseq	r0, lr, lsl r7
     b68:	82100000 	andshi	r0, r0, #0, 0
     b6c:	00180000 	andseq	r0, r8, r0
     b70:	9c010000 	stcls	0, cr0, [r1], {-0}
     b74:	00000724 	andeq	r0, r0, r4, lsr #14
     b78:	0100681f 	tsteq	r0, pc, lsl r8
     b7c:	021b191e 	andseq	r1, fp, #491520	; 0x78000
     b80:	03ca0000 	biceq	r0, sl, #0, 0
     b84:	03c60000 	biceq	r0, r6, #0, 0
     b88:	94220000 	strtls	r0, [r2], #-0
     b8c:	1c000007 	stcne	0, cr0, [r0], {7}
     b90:	00000082 	andeq	r0, r0, r2, lsl #1
     b94:	0000821c 	andeq	r8, r0, ip, lsl r2
     b98:	00000004 	andeq	r0, r0, r4
     b9c:	13262001 			; <UNDEFINED> instruction: 0x13262001
     ba0:	23000007 	movwcs	r0, #7
     ba4:	000007a5 	andeq	r0, r0, r5, lsr #15
     ba8:	000003ea 	andeq	r0, r0, sl, ror #7
     bac:	000003e8 	andeq	r0, r0, r8, ror #7
     bb0:	821c1a00 	andshi	r1, ip, #0, 20
     bb4:	07240000 	streq	r0, [r4, -r0]!
     bb8:	01190000 	tsteq	r9, r0
     bbc:	00740250 	rsbseq	r0, r4, r0, asr r2
     bc0:	e2140000 	ands	r0, r4, #0, 0
     bc4:	01000002 	tsteq	r0, r2
     bc8:	01fb0718 	mvnseq	r0, r8, lsl r7
     bcc:	82080000 	andhi	r0, r8, #0, 0
     bd0:	00080000 	andeq	r0, r8, r0
     bd4:	9c010000 	stcls	0, cr0, [r1], {-0}
     bd8:	00000751 	andeq	r0, r0, r1, asr r7
     bdc:	0100681f 	tsteq	r0, pc, lsl r8
     be0:	021b1b18 	andseq	r1, fp, #24, 22	; 0x6000
     be4:	04010000 	streq	r0, [r1], #-0
     be8:	03fd0000 	mvnseq	r0, #0, 0
     bec:	14000000 	strne	r0, [r0], #-0
     bf0:	000002c4 	andeq	r0, r0, r4, asr #5
     bf4:	1b081101 	blne	205000 <__bss_end__+0x1fa128>
     bf8:	54000002 	strpl	r0, [r0], #-2
     bfc:	10000081 	andne	r0, r0, r1, lsl #1
     c00:	01000000 	mrseq	r0, (UNDEF: 0)
     c04:	00077e9c 	muleq	r7, ip, lr
     c08:	00701f00 	rsbseq	r1, r0, r0, lsl #30
     c0c:	1b1b1101 	blne	6c5018 <__bss_end__+0x6ba140>
     c10:	26000002 	strcs	r0, [r0], -r2
     c14:	22000004 	andcs	r0, r0, #4, 0
     c18:	00000004 	andeq	r0, r0, r4
     c1c:	00028024 	andeq	r8, r2, r4, lsr #32
     c20:	080b0100 	stmdaeq	fp, {r8}
     c24:	0000021b 	andeq	r0, r0, fp, lsl r2
     c28:	00008144 	andeq	r8, r0, r4, asr #2
     c2c:	00000010 	andeq	r0, r0, r0, lsl r0
     c30:	ff259c01 			; <UNDEFINED> instruction: 0xff259c01
     c34:	02000002 	andeq	r0, r0, #2, 0
     c38:	002c182e 	eoreq	r1, ip, lr, lsr #16
     c3c:	b0030000 	andlt	r0, r3, r0
     c40:	26000007 	strcs	r0, [r0], -r7
     c44:	2e020068 	cdpcs	0, 0, cr0, cr2, cr8, {3}
     c48:	00021b29 	andeq	r1, r2, r9, lsr #22
     c4c:	09270000 	stmdbeq	r7!, {}	; <UNPREDICTABLE>
     c50:	09000003 	stmdbeq	r0, {r0, r1}
     c54:	06000003 	streq	r0, [r0], -r3
     c58:	9f27071e 	svcls	0x0027071e
     c5c:	9f000002 	svcls	0x00000002
     c60:	04000002 	streq	r0, [r0], #-2
     c64:	962707f2 			; <UNDEFINED> instruction: 0x962707f2
     c68:	96000005 	strls	r0, [r0], -r5
     c6c:	04000005 	streq	r0, [r0], #-5
     c70:	69270628 	stmdbvs	r7!, {r3, r5, r9, sl}
     c74:	69000002 	stmdbvs	r0, {r1}
     c78:	06000002 	streq	r0, [r0], -r2
     c7c:	8327061f 			; <UNDEFINED> instruction: 0x8327061f
     c80:	83000000 	movwhi	r0, #0
     c84:	04000000 	streq	r0, [r0], #-0
     c88:	ec00066e 	stc	6, cr0, [r0], {110}	; 0x6e
     c8c:	04000002 	streq	r0, [r0], #-2
     c90:	00044c00 	andeq	r4, r4, r0, lsl #24
     c94:	7b010400 	blvc	41c9c <__bss_end__+0x36dc4>
     c98:	0c000001 	stceq	0, cr0, [r0], {1}
     c9c:	00000333 	andeq	r0, r0, r3, lsr r3
     ca0:	00000117 	andeq	r0, r0, r7, lsl r1
     ca4:	00008430 	andeq	r8, r0, r0, lsr r4
     ca8:	000001bc 			; <UNDEFINED> instruction: 0x000001bc
     cac:	00000472 	andeq	r0, r0, r2, ror r4
     cb0:	69050402 	stmdbvs	r5, {r1, sl}
     cb4:	0300746e 	movweq	r7, #1134	; 0x46e
     cb8:	00ea0704 	rsceq	r0, sl, r4, lsl #14
     cbc:	01030000 	mrseq	r0, (UNDEF: 3)
     cc0:	00007706 	andeq	r7, r0, r6, lsl #14
     cc4:	05020300 	streq	r0, [r2, #-768]	; 0xfffffd00
     cc8:	00000149 	andeq	r0, r0, r9, asr #2
     ccc:	0e050403 	cdpeq	4, 0, cr0, cr5, cr3, {0}
     cd0:	03000001 	movweq	r0, #1
     cd4:	01090508 	tsteq	r9, r8, lsl #10
     cd8:	01030000 	mrseq	r0, (UNDEF: 3)
     cdc:	00007508 	andeq	r7, r0, r8, lsl #10
     ce0:	07020300 	streq	r0, [r2, -r0, lsl #6]
     ce4:	00000090 	muleq	r0, r0, r0
     ce8:	e5070403 	str	r0, [r7, #-1027]	; 0xfffffbfd
     cec:	03000000 	movweq	r0, #0
     cf0:	00e00708 	rsceq	r0, r0, r8, lsl #14
     cf4:	25040000 	strcs	r0, [r4, #-0]
     cf8:	7a000000 	bvc	d00 <__code_start__-0x7300>
     cfc:	05000000 	streq	r0, [r0, #-0]
     d00:	00000025 	andeq	r0, r0, r5, lsr #32
     d04:	016f0600 	cmneq	pc, r0, lsl #12
     d08:	1c020000 	stcne	0, cr0, [r2], {-0}
     d0c:	0000860e 	andeq	r8, r0, lr, lsl #12
     d10:	6b040700 	blvs	102918 <__bss_end__+0xf7a40>
     d14:	04000000 	streq	r0, [r0], #-0
     d18:	00000025 	andeq	r0, r0, r5, lsr #32
     d1c:	0000009b 	muleq	r0, fp, r0
     d20:	00009b05 	andeq	r9, r0, r5, lsl #22
     d24:	04070000 	streq	r0, [r7], #-0
     d28:	000000a8 	andeq	r0, r0, r8, lsr #1
     d2c:	7e080103 	adfvce	f0, f0, f3
     d30:	08000000 	stmdaeq	r0, {}	; <UNPREDICTABLE>
     d34:	000000a1 	andeq	r0, r0, r1, lsr #1
     d38:	0005d406 	andeq	sp, r5, r6, lsl #8
     d3c:	0e210200 	cdpeq	2, 2, cr0, cr1, cr0, {0}
     d40:	000000b9 	strheq	r0, [r0], -r9
     d44:	008c0407 	addeq	r0, ip, r7, lsl #8
     d48:	20090000 	andcs	r0, r9, r0
     d4c:	08000003 	stmdaeq	r0, {r0, r1}
     d50:	ec070501 	cfstr32	mvfx0, [r7], {1}
     d54:	0a000000 	beq	d5c <__code_start__-0x72a4>
     d58:	07010064 	streq	r0, [r1, -r4, rrx]
     d5c:	0000ec09 	andeq	lr, r0, r9, lsl #24
     d60:	00700a00 	rsbseq	r0, r0, r0, lsl #20
     d64:	f3080801 	vsub.i8	d0, d8, d1
     d68:	0a000000 	beq	d70 <__code_start__-0x7290>
     d6c:	01007066 	tsteq	r0, r6, rrx
     d70:	00f60909 	rscseq	r0, r6, r9, lsl #18
     d74:	03000000 	movweq	r0, #0
     d78:	033f0408 	teqeq	pc, #8, 8	; 0x8000000
     d7c:	040b0000 	streq	r0, [fp], #-0
     d80:	f504070c 			; <UNDEFINED> instruction: 0xf504070c
     d84:	0d000000 	stceq	0, cr0, [r0, #-0]
     d88:	020e0108 	andeq	r0, lr, #2
     d8c:	00000120 	andeq	r0, r0, r0, lsr #2
     d90:	7274700e 	rsbsvc	r7, r4, #14, 0
     d94:	11100100 	tstne	r0, r0, lsl #2
     d98:	00000142 	andeq	r0, r0, r2, asr #2
     d9c:	03590f00 	cmpeq	r9, #0, 30
     da0:	11010000 	mrsne	r0, (UNDEF: 1)
     da4:	00002c0c 	andeq	r2, r0, ip, lsl #24
     da8:	09000400 	stmdbeq	r0, {sl}
     dac:	00000313 	andeq	r0, r0, r3, lsl r3
     db0:	0f0c0108 	svceq	0x000c0108
     db4:	00000142 	andeq	r0, r0, r2, asr #2
     db8:	0100730a 	tsteq	r0, sl, lsl #6
     dbc:	00fc0412 	rscseq	r0, ip, r2, lsl r4
     dc0:	780a0000 	stmdavc	sl, {}	; <UNPREDICTABLE>
     dc4:	0e130100 	mufeqs	f0, f3, f0
     dc8:	000000bf 	strheq	r0, [r0], -pc	; <UNPREDICTABLE>
     dcc:	20040700 	andcs	r0, r4, r0, lsl #14
     dd0:	10000001 	andne	r0, r0, r1
     dd4:	0000035e 	andeq	r0, r0, lr, asr r3
     dd8:	20031401 	andcs	r1, r3, r1, lsl #8
     ddc:	11000001 	tstne	r0, r1
     de0:	00000346 	andeq	r0, r0, r6, asr #6
     de4:	480f1801 	stmdami	pc, {r0, fp, ip}	; <UNPREDICTABLE>
     de8:	05000001 	streq	r0, [r0, #-1]
     dec:	00aac003 	adceq	ip, sl, r3
     df0:	03261100 			; <UNDEFINED> instruction: 0x03261100
     df4:	19010000 	stmdbne	r1, {}	; <UNPREDICTABLE>
     df8:	00017810 	andeq	r7, r1, r0, lsl r8
     dfc:	b8030500 	stmdalt	r3, {r8, sl}
     e00:	070000aa 	streq	r0, [r0, -sl, lsr #1]
     e04:	00014804 	andeq	r4, r1, r4, lsl #16
     e08:	02691200 	rsbeq	r1, r9, #0, 4
     e0c:	53010000 	movwpl	r0, #4096	; 0x1000
     e10:	00843006 	addeq	r3, r4, r6
     e14:	0000bc00 	andeq	fp, r0, r0, lsl #24
     e18:	c79c0100 	ldrgt	r0, [ip, r0, lsl #2]
     e1c:	13000001 	movwne	r0, #1
     e20:	01007061 	tsteq	r0, r1, rrx
     e24:	00f31453 	rscseq	r1, r3, r3, asr r4
     e28:	50010000 	andpl	r0, r1, r0
     e2c:	00706214 	rsbseq	r6, r0, r4, lsl r2
     e30:	780a5501 	stmdavc	sl, {r0, r8, sl, ip, lr}
     e34:	4f000001 	svcmi	0x00000001
     e38:	47000004 	strmi	r0, [r0, -r4]
     e3c:	14000004 	strne	r0, [r0], #-4
     e40:	55010070 	strpl	r0, [r1, #-112]	; 0xffffff90
     e44:	0001780f 	andeq	r7, r1, pc, lsl #16
     e48:	00048b00 	andeq	r8, r4, r0, lsl #22
     e4c:	00048700 	andeq	r8, r4, r0, lsl #14
     e50:	09150000 	ldmdbeq	r5, {}	; <UNPREDICTABLE>
     e54:	01000003 	tsteq	r0, r3
     e58:	00f3072b 	rscseq	r0, r3, fp, lsr #14
     e5c:	85400000 	strbhi	r0, [r0, #-0]
     e60:	00ac0000 	adceq	r0, ip, r0
     e64:	9c010000 	stcls	0, cr0, [r1], {-0}
     e68:	00000241 	andeq	r0, r0, r1, asr #4
     e6c:	00030216 	andeq	r0, r3, r6, lsl r2
     e70:	1a2b0100 	bne	ac1278 <__bss_end__+0xab63a0>
     e74:	0000002c 	andeq	r0, r0, ip, lsr #32
     e78:	000004b1 			; <UNDEFINED> instruction: 0x000004b1
     e7c:	000004a9 	andeq	r0, r0, r9, lsr #9
     e80:	01007014 	tsteq	r0, r4, lsl r0
     e84:	01780a2d 	cmneq	r8, sp, lsr #20
     e88:	04f90000 	ldrbteq	r0, [r9], #0
     e8c:	04eb0000 	strbteq	r0, [fp], #0
     e90:	1a170000 	bne	5c0e98 <__bss_end__+0x5b5fc0>
     e94:	01000003 	tsteq	r0, r3
     e98:	01780e2d 	cmneq	r8, sp, lsr #28
     e9c:	055b0000 	ldrbeq	r0, [fp, #-0]
     ea0:	05510000 	ldrbeq	r0, [r1, #-0]
     ea4:	2c170000 	ldccs	0, cr0, [r7], {-0}
     ea8:	01000003 	tsteq	r0, r3
     eac:	002c0b2e 	eoreq	r0, ip, lr, lsr #22
     eb0:	05a10000 	streq	r0, [r1, #0]!
     eb4:	059f0000 	ldreq	r0, [pc]	; ebc <__code_start__-0x7144>
     eb8:	dc180000 	ldcle	0, cr0, [r8], {-0}
     ebc:	41000085 	smlabbmi	r0, r5, r0, r0
     ec0:	19000002 	stmdbne	r0, {r1}
     ec4:	0a035001 	beq	d4ed0 <__bss_end__+0xc9ff8>
     ec8:	00008000 	andeq	r8, r0, r0
     ecc:	0003501a 	andeq	r5, r3, sl, lsl r0
     ed0:	101c0100 	andsne	r0, ip, r0, lsl #2
     ed4:	00000178 	andeq	r0, r0, r8, ror r1
     ed8:	000084ec 	andeq	r8, r0, ip, ror #9
     edc:	00000054 	andeq	r0, r0, r4, asr r0
     ee0:	02d19c01 	sbcseq	r9, r1, #256	; 0x100
     ee4:	6e1b0000 	cdpvs	0, 1, cr0, cr11, cr0, {0}
     ee8:	1c010075 	stcne	0, cr0, [r1], {117}	; 0x75
     eec:	00002c22 	andeq	r2, r0, r2, lsr #24
     ef0:	0005b800 	andeq	fp, r5, r0, lsl #16
     ef4:	0005b400 	andeq	fp, r5, r0, lsl #8
     ef8:	70631400 	rsbvc	r1, r3, r0, lsl #8
     efc:	08210100 	stmdaeq	r1!, {r8}
     f00:	000002d1 	ldrdeq	r0, [r0], -r1
     f04:	000005dc 	ldrdeq	r0, [r0], -ip
     f08:	000005d6 	ldrdeq	r0, [r0], -r6
     f0c:	00707514 	rsbseq	r7, r0, r4, lsl r5
     f10:	780a2401 	stmdavc	sl, {r0, sl, sp}
     f14:	0b000001 	bleq	f20 <__code_start__-0x70e0>
     f18:	07000006 	streq	r0, [r0, -r6]
     f1c:	1c000006 	stcne	0, cr0, [r0], {6}
     f20:	00008508 	andeq	r8, r0, r8, lsl #10
     f24:	000002d7 	ldrdeq	r0, [r0], -r7
     f28:	000002b1 			; <UNDEFINED> instruction: 0x000002b1
     f2c:	05500119 	ldrbeq	r0, [r0, #-281]	; 0xfffffee7
     f30:	00a3a403 	adceq	sl, r3, r3, lsl #8
     f34:	51011900 	tstpl	r1, r0, lsl #18
     f38:	00007402 	andeq	r7, r0, r2, lsl #8
     f3c:	0085101c 	addeq	r1, r5, ip, lsl r0
     f40:	0002e300 	andeq	lr, r2, r0, lsl #6
     f44:	0002c700 	andeq	ip, r2, r0, lsl #14
     f48:	50011900 	andpl	r1, r1, r0, lsl #18
     f4c:	33007404 	movwcc	r7, #1028	; 0x404
     f50:	241d0024 	ldrcs	r0, [sp], #-36	; 0xffffffdc
     f54:	7e000085 	cdpvc	0, 0, cr0, cr0, cr5, {4}
     f58:	00000001 	andeq	r0, r0, r1
     f5c:	00a10407 	adceq	r0, r1, r7, lsl #8
     f60:	961e0000 	ldrls	r0, [lr], -r0
     f64:	96000005 	strls	r0, [r0], -r5
     f68:	02000005 	andeq	r0, r0, #5, 0
     f6c:	4b1e0628 	blmi	782814 <__bss_end__+0x77793c>
     f70:	4b000003 	blmi	f84 <__code_start__-0x707c>
     f74:	03000003 	movweq	r0, #3
     f78:	00000b1a 	andeq	r0, r0, sl, lsl fp
     f7c:	0400000d 	streq	r0, [r0], #-13
     f80:	00062300 	andeq	r2, r6, r0, lsl #6
     f84:	7b010400 	blvc	41f8c <__bss_end__+0x370b4>
     f88:	0c000001 	stceq	0, cr0, [r0], {1}
     f8c:	0000041f 	andeq	r0, r0, pc, lsl r4
     f90:	00000117 	andeq	r0, r0, r7, lsl r1
     f94:	000085ec 	andeq	r8, r0, ip, ror #11
     f98:	000005c4 	andeq	r0, r0, r4, asr #11
     f9c:	0000069e 	muleq	r0, lr, r6
     fa0:	69050402 	stmdbvs	r5, {r1, sl}
     fa4:	0300746e 	movweq	r7, #1134	; 0x46e
     fa8:	00ea0704 	rsceq	r0, sl, r4, lsl #14
     fac:	01030000 	mrseq	r0, (UNDEF: 3)
     fb0:	00007706 	andeq	r7, r0, r6, lsl #14
     fb4:	05020300 	streq	r0, [r2, #-768]	; 0xfffffd00
     fb8:	00000149 	andeq	r0, r0, r9, asr #2
     fbc:	0e050403 	cdpeq	4, 0, cr0, cr5, cr3, {0}
     fc0:	03000001 	movweq	r0, #1
     fc4:	01090508 	tsteq	r9, r8, lsl #10
     fc8:	f7040000 			; <UNDEFINED> instruction: 0xf7040000
     fcc:	03000000 	movweq	r0, #0
     fd0:	005b182e 	subseq	r1, fp, lr, lsr #16
     fd4:	01030000 	mrseq	r0, (UNDEF: 3)
     fd8:	00007508 	andeq	r7, r0, r8, lsl #10
     fdc:	015d0400 	cmpeq	sp, r0, lsl #8
     fe0:	31030000 	mrscc	r0, (UNDEF: 3)
     fe4:	00006e19 	andeq	r6, r0, r9, lsl lr
     fe8:	07020300 	streq	r0, [r2, -r0, lsl #6]
     fec:	00000090 	muleq	r0, r0, r0
     ff0:	00016604 	andeq	r6, r1, r4, lsl #12
     ff4:	19340300 	ldmdbne	r4!, {r8, r9}
     ff8:	00000081 	andeq	r0, r0, r1, lsl #1
     ffc:	e5070403 	str	r0, [r7, #-1027]	; 0xfffffbfd
    1000:	03000000 	movweq	r0, #0
    1004:	00e00708 	rsceq	r0, r0, r8, lsl #14
    1008:	25050000 	strcs	r0, [r5, #-0]
    100c:	9e000000 	cdpls	0, 0, cr0, cr0, cr0, {0}
    1010:	06000000 	streq	r0, [r0], -r0
    1014:	00000025 	andeq	r0, r0, r5, lsr #32
    1018:	016f0700 	cmneq	pc, r0, lsl #14
    101c:	1c040000 	stcne	0, cr0, [r4], {-0}
    1020:	0000aa0e 	andeq	sl, r0, lr, lsl #20
    1024:	8f040800 	svchi	0x00040800
    1028:	05000000 	streq	r0, [r0, #-0]
    102c:	00000025 	andeq	r0, r0, r5, lsr #32
    1030:	000000bf 	strheq	r0, [r0], -pc	; <UNPREDICTABLE>
    1034:	0000bf06 	andeq	fp, r0, r6, lsl #30
    1038:	04080000 	streq	r0, [r8], #-0
    103c:	000000cc 	andeq	r0, r0, ip, asr #1
    1040:	7e080103 	adfvce	f0, f0, f3
    1044:	09000000 	stmdbeq	r0, {}	; <UNPREDICTABLE>
    1048:	000000c5 	andeq	r0, r0, r5, asr #1
    104c:	0005d407 	andeq	sp, r5, r7, lsl #8
    1050:	0e210400 	cdpeq	4, 2, cr0, cr1, cr0, {0}
    1054:	000000dd 	ldrdeq	r0, [r0], -sp
    1058:	00b00408 	adcseq	r0, r0, r8, lsl #8
    105c:	0c0a0000 	stceq	0, cr0, [sl], {-0}
    1060:	14090402 	strne	r0, [r9], #-1026	; 0xfffffbfe
    1064:	0b000001 	bleq	1070 <__code_start__-0x6f90>
    1068:	00000070 	andeq	r0, r0, r0, ror r0
    106c:	bf110602 	svclt	0x00110602
    1070:	00000000 	andeq	r0, r0, r0
    1074:	0000bf0b 	andeq	fp, r0, fp, lsl #30
    1078:	11070200 	mrsne	r0, (UNDEF: 39)
    107c:	000000bf 	strheq	r0, [r0], -pc	; <UNPREDICTABLE>
    1080:	00460b04 	subeq	r0, r6, r4, lsl #22
    1084:	08020000 	stmdaeq	r2, {}	; <UNPREDICTABLE>
    1088:	00002c0e 	andeq	r2, r0, lr, lsl #24
    108c:	04000800 	streq	r0, [r0], #-2048	; 0xfffff800
    1090:	00000153 	andeq	r0, r0, r3, asr r1
    1094:	e3030902 	movw	r0, #14594	; 0x3902
    1098:	0c000000 	stceq	0, cr0, [r0], {-0}
    109c:	005b0107 	subseq	r0, fp, r7, lsl #2
    10a0:	0a050000 	beq	1410a8 <__bss_end__+0x1361d0>
    10a4:	00013b06 	andeq	r3, r1, r6, lsl #22
    10a8:	02710d00 	rsbseq	r0, r1, #0, 26
    10ac:	0d800000 	stceq	0, cr0, [r0]
    10b0:	0000025d 	andeq	r0, r0, sp, asr r2
    10b4:	a30e00fe 	movwge	r0, #57598	; 0xe0fe
    10b8:	a8000000 	stmdage	r0, {}	; <UNPREDICTABLE>
    10bc:	be100d05 	cdplt	13, 1, cr0, cr0, cr5, {0}
    10c0:	0b000001 	bleq	10cc <__code_start__-0x6f34>
    10c4:	00000013 	andeq	r0, r0, r3, lsl r0
    10c8:	be140e05 	cdplt	14, 1, cr0, cr4, cr5, {0}
    10cc:	00000001 	andeq	r0, r0, r1
    10d0:	0000630b 	andeq	r6, r0, fp, lsl #6
    10d4:	0e0f0500 	cfsh32eq	mvfx0, mvfx15, #0
    10d8:	00000075 	andeq	r0, r0, r5, ror r0
    10dc:	00200b04 	eoreq	r0, r0, r4, lsl #22
    10e0:	10050000 	andne	r0, r5, r0
    10e4:	0000750e 	andeq	r7, r0, lr, lsl #10
    10e8:	d70b0800 	strle	r0, [fp, -r0, lsl #16]
    10ec:	05000000 	streq	r0, [r0, #-0]
    10f0:	00750e14 	rsbseq	r0, r5, r4, lsl lr
    10f4:	0b0c0000 	bleq	3010fc <__bss_end__+0x2f6224>
    10f8:	000000ff 	strdeq	r0, [r0], -pc	; <UNPREDICTABLE>
    10fc:	140f1605 	strne	r1, [pc], #-1541	; 1104 <__code_start__-0x6efc>
    1100:	10000001 	andne	r0, r0, r1
    1104:	0002300b 	andeq	r3, r2, fp
    1108:	0e190500 	cfmul32eq	mvfx0, mvfx9, mvfx0
    110c:	00000075 	andeq	r0, r0, r5, ror r0
    1110:	023b0b1c 	eorseq	r0, fp, #28, 22	; 0x7000
    1114:	1a050000 	bne	14111c <__bss_end__+0x136244>
    1118:	0000750e 	andeq	r7, r0, lr, lsl #10
    111c:	b50b2000 	strlt	r2, [fp, #-0]
    1120:	05000003 	streq	r0, [r0, #-3]
    1124:	00620e1c 	rsbeq	r0, r2, ip, lsl lr
    1128:	0f240000 	svceq	0x00240000
    112c:	00317a72 	eorseq	r7, r1, r2, ror sl
    1130:	c40d1e05 	strgt	r1, [sp], #-3589	; 0xfffff1fb
    1134:	26000001 	strcs	r0, [r0], -r1
    1138:	3b040800 	blcc	103140 <__bss_end__+0xf8268>
    113c:	10000001 	andne	r0, r0, r1
    1140:	0000004f 	andeq	r0, r0, pc, asr #32
    1144:	000001d4 	ldrdeq	r0, [r0], -r4
    1148:	00002c11 	andeq	r2, r0, r1, lsl ip
    114c:	04007f00 	streq	r7, [r0], #-3840	; 0xfffff100
    1150:	0000000d 	andeq	r0, r0, sp
    1154:	3b031f05 	blcc	c8d70 <__bss_end__+0xbde98>
    1158:	12000001 	andne	r0, r0, #1, 0
    115c:	00000704 	andeq	r0, r0, r4, lsl #14
    1160:	a5050000 	strge	r0, [r5, #-0]
    1164:	00002c11 	andeq	r2, r0, r1, lsl ip
    1168:	0a3c1300 	beq	f05d70 <__bss_end__+0xefae98>
    116c:	10010000 	andne	r0, r1, r0
    1170:	0001e00e 	andeq	lr, r1, lr
    1174:	c8030500 	stmdagt	r3, {r8, sl}
    1178:	130000aa 	movwne	r0, #170	; 0xaa
    117c:	00000a9d 	muleq	r0, sp, sl
    1180:	e00e1101 	and	r1, lr, r1, lsl #2
    1184:	05000001 	streq	r0, [r0, #-1]
    1188:	00aacc03 	adceq	ip, sl, r3, lsl #24
    118c:	03781400 	cmneq	r8, #0, 8
    1190:	15010000 	strne	r0, [r1, #-0]
    1194:	8b840601 	blhi	fe1029a0 <__bss_end__+0xfe0f7ac8>
    1198:	002c0000 	eoreq	r0, ip, r0
    119c:	9c010000 	stcls	0, cr0, [r1], {-0}
    11a0:	00000272 	andeq	r0, r0, r2, ror r2
    11a4:	0000c415 	andeq	ip, r0, r5, lsl r4
    11a8:	00028200 	andeq	r8, r2, r0, lsl #4
    11ac:	20030500 	andcs	r0, r3, r0, lsl #10
    11b0:	160000a7 	strne	r0, [r0], -r7, lsr #1
    11b4:	00008b9c 	muleq	r0, ip, fp
    11b8:	00000c7c 	andeq	r0, r0, ip, ror ip
    11bc:	00000268 	andeq	r0, r0, r8, ror #4
    11c0:	05500117 	ldrbeq	r0, [r0, #-279]	; 0xfffffee9
    11c4:	00a6b003 	adceq	fp, r6, r3
    11c8:	51011700 	tstpl	r1, r0, lsl #14
    11cc:	a3c80305 	bicge	r0, r8, #335544320	; 0x14000000
    11d0:	01170000 	tsteq	r7, r0
    11d4:	20030552 	andcs	r0, r3, r2, asr r5
    11d8:	170000a7 	strne	r0, [r0, -r7, lsr #1]
    11dc:	0a035301 	beq	d5de8 <__bss_end__+0xcaf10>
    11e0:	18000117 	stmdane	r0, {r0, r1, r2, r4, r8}
    11e4:	00008ba0 	andeq	r8, r0, r0, lsr #23
    11e8:	00000c88 	andeq	r0, r0, r8, lsl #25
    11ec:	00cc1000 	sbceq	r1, ip, r0
    11f0:	02820000 	addeq	r0, r2, #0, 0
    11f4:	2c110000 	ldccs	0, cr0, [r1], {-0}
    11f8:	0e000000 	cdpeq	0, 0, cr0, cr0, cr0, {0}
    11fc:	02720900 	rsbseq	r0, r2, #0, 18
    1200:	c7190000 	ldrgt	r0, [r9, -r0]
    1204:	01000003 	tsteq	r0, r3
    1208:	2c0a010b 	stfcss	f0, [sl], {11}
    120c:	74000000 	strvc	r0, [r0], #-0
    1210:	1000008b 	andne	r0, r0, fp, lsl #1
    1214:	01000000 	mrseq	r0, (UNDEF: 0)
    1218:	0002ca9c 	muleq	r2, ip, sl
    121c:	03021a00 	movweq	r1, #10752	; 0x2a00
    1220:	0e010000 	cdpeq	0, 0, cr0, cr1, cr0, {0}
    1224:	002c0e01 	eoreq	r0, ip, r1, lsl #28
    1228:	062d0000 	strteq	r0, [sp], -r0
    122c:	062b0000 	strteq	r0, [fp], -r0
    1230:	7c180000 	ldcvc	0, cr0, [r8], {-0}
    1234:	6e00008b 	cdpvs	0, 0, cr0, cr0, cr11, {4}
    1238:	18000007 	stmdane	r0, {r0, r1, r2}
    123c:	00008b80 	andeq	r8, r0, r0, lsl #23
    1240:	000002ca 	andeq	r0, r0, sl, asr #5
    1244:	047e1b00 	ldrbteq	r1, [lr], #-2816	; 0xfffff500
    1248:	f3010000 	vhadd.u8	d0, d1, d0
    124c:	00002c11 	andeq	r2, r0, r1, lsl ip
    1250:	00895000 	addeq	r5, r9, r0
    1254:	0000dc00 	andeq	sp, r0, r0, lsl #24
    1258:	349c0100 	ldrcc	r0, [ip], #256	; 0x100
    125c:	1c000004 	stcne	0, cr0, [r0], {4}
    1260:	00000395 	muleq	r0, r5, r3
    1264:	2c0ef501 	cfstr32cs	mvfx15, [lr], {1}
    1268:	44000000 	strmi	r0, [r0], #-0
    126c:	40000006 	andmi	r0, r0, r6
    1270:	1c000006 	stcne	0, cr0, [r0], {6}
    1274:	0000040a 	andeq	r0, r0, sl, lsl #8
    1278:	2c1bf501 	cfldr32cs	mvfx15, [fp], {1}
    127c:	67000000 	strvs	r0, [r0, -r0]
    1280:	63000006 	movwvs	r0, #6
    1284:	1c000006 	stcne	0, cr0, [r0], {6}
    1288:	000003a4 	andeq	r0, r0, r4, lsr #7
    128c:	2c27f501 	cfstr32cs	mvfx15, [r7], #-4
    1290:	8c000000 	stchi	0, cr0, [r0], {-0}
    1294:	86000006 	strhi	r0, [r0], -r6
    1298:	15000006 	strne	r0, [r0, #-6]
    129c:	000000c4 	andeq	r0, r0, r4, asr #1
    12a0:	00000444 	andeq	r0, r0, r4, asr #8
    12a4:	a6e80305 	strbtge	r0, [r8], r5, lsl #6
    12a8:	481d0000 	ldmdami	sp, {}	; <UNPREDICTABLE>
    12ac:	d7000000 	strle	r0, [r0, -r0]
    12b0:	1e000003 	cdpne	0, 0, cr0, cr0, cr3, {0}
    12b4:	fa010068 	blx	4145c <__bss_end__+0x36584>
    12b8:	00044911 	andeq	r4, r4, r1, lsl r9
    12bc:	0006be00 	andeq	fp, r6, r0, lsl #28
    12c0:	0006b600 	andeq	fp, r6, r0, lsl #12
    12c4:	0c461f00 	mcrreq	15, 0, r1, r6, cr0
    12c8:	89940000 	ldmibhi	r4, {}	; <UNPREDICTABLE>
    12cc:	94000000 	strls	r0, [r0], #-0
    12d0:	18000089 	stmdane	r0, {r0, r3, r7}
    12d4:	01000000 	mrseq	r0, (UNDEF: 0)
    12d8:	8c0d0101 	stfhis	f0, [sp], {1}
    12dc:	20000003 	andcs	r0, r0, r3
    12e0:	00000c6f 	andeq	r0, r0, pc, ror #24
    12e4:	000006f4 	strdeq	r0, [r0], -r4
    12e8:	000006f2 	strdeq	r0, [r0], -r2
    12ec:	000c6320 	andeq	r6, ip, r0, lsr #6
    12f0:	00070c00 	andeq	r0, r7, r0, lsl #24
    12f4:	00070a00 	andeq	r0, r7, r0, lsl #20
    12f8:	0c572000 	mraeq	r2, r7, acc0
    12fc:	07260000 	streq	r0, [r6, -r0]!
    1300:	07240000 	streq	r0, [r4, -r0]!
    1304:	18000000 	stmdane	r0, {}	; <UNPREDICTABLE>
    1308:	00008970 	andeq	r8, r0, r0, ror r9
    130c:	00000ca3 	andeq	r0, r0, r3, lsr #25
    1310:	0089bc16 	addeq	fp, r9, r6, lsl ip
    1314:	000caf00 	andeq	sl, ip, r0, lsl #30
    1318:	0003a900 	andeq	sl, r3, r0, lsl #18
    131c:	50011700 	andpl	r1, r1, r0, lsl #14
    1320:	00007602 	andeq	r7, r0, r2, lsl #12
    1324:	0089c816 	addeq	ip, r9, r6, lsl r8
    1328:	000c7c00 	andeq	r7, ip, r0, lsl #24
    132c:	0003c600 	andeq	ip, r3, r0, lsl #12
    1330:	50011700 	andpl	r1, r1, r0, lsl #14
    1334:	a5a40305 	strge	r0, [r4, #773]!	; 0x305
    1338:	01170000 	tsteq	r7, r0
    133c:	00760251 	rsbseq	r0, r6, r1, asr r2
    1340:	89d02100 	ldmibhi	r0, {r8, sp}^
    1344:	0cbb0000 	ldceq	0, cr0, [fp]
    1348:	01170000 	tsteq	r7, r0
    134c:	00740250 	rsbseq	r0, r4, r0, asr r2
    1350:	60160000 	andsvs	r0, r6, r0
    1354:	7c000089 	stcvc	0, cr0, [r0], {137}	; 0x89
    1358:	ee00000c 	cdp	0, 0, cr0, cr0, cr12, {0}
    135c:	17000003 	strne	r0, [r0, -r3]
    1360:	03055001 	movweq	r5, #20481	; 0x5001
    1364:	0000a460 	andeq	sl, r0, r0, ror #8
    1368:	89681600 	stmdbhi	r8!, {r9, sl, ip}^
    136c:	0c7c0000 	ldcleq	0, cr0, [ip], #-0
    1370:	04050000 	streq	r0, [r5], #-0
    1374:	01170000 	tsteq	r7, r0
    1378:	94030550 	strls	r0, [r3], #-1360	; 0xfffffab0
    137c:	000000a5 	andeq	r0, r0, r5, lsr #1
    1380:	00896c18 	addeq	r6, r9, r8, lsl ip
    1384:	00076e00 	andeq	r6, r7, r0, lsl #28
    1388:	8a042100 	bhi	109790 <__bss_end__+0xfe8b8>
    138c:	0c7c0000 	ldcleq	0, cr0, [ip], #-0
    1390:	01170000 	tsteq	r7, r0
    1394:	b4030550 	strlt	r0, [r3], #-1360	; 0xfffffab0
    1398:	170000a5 	strne	r0, [r0, -r5, lsr #1]
    139c:	75025101 	strvc	r5, [r2, #-257]	; 0xfffffeff
    13a0:	52011700 	andpl	r1, r1, #0, 14
    13a4:	17007802 	strne	r7, [r0, -r2, lsl #16]
    13a8:	77025301 	strvc	r5, [r2, -r1, lsl #6]
    13ac:	10000000 	andne	r0, r0, r0
    13b0:	000000cc 	andeq	r0, r0, ip, asr #1
    13b4:	00000444 	andeq	r0, r0, r4, asr #8
    13b8:	00002c11 	andeq	r2, r0, r1, lsl ip
    13bc:	09000a00 	stmdbeq	r0, {r9, fp}
    13c0:	00000434 	andeq	r0, r0, r4, lsr r4
    13c4:	01d40408 	bicseq	r0, r4, r8, lsl #8
    13c8:	27220000 	strcs	r0, [r2, -r0]!
    13cc:	01000004 	tsteq	r0, r4
    13d0:	002c0ae3 	eoreq	r0, ip, r3, ror #21
    13d4:	8b240000 	blhi	9013dc <__bss_end__+0x8f6504>
    13d8:	00500000 	subseq	r0, r0, r0
    13dc:	9c010000 	stcls	0, cr0, [r1], {-0}
    13e0:	000004f5 	strdeq	r0, [r0], -r5
    13e4:	0003d71c 	andeq	sp, r3, ip, lsl r7
    13e8:	0ee90100 	cdpeq	1, 14, cr0, cr9, cr0, {0}
    13ec:	0000002c 	andeq	r0, r0, ip, lsr #32
    13f0:	00000744 	andeq	r0, r0, r4, asr #14
    13f4:	0000073e 	andeq	r0, r0, lr, lsr r7
    13f8:	0000c415 	andeq	ip, r0, r5, lsl r4
    13fc:	00050500 	andeq	r0, r5, r0, lsl #10
    1400:	0c030500 	cfstr32eq	mvfx0, [r3], {-0}
    1404:	160000a7 	strne	r0, [r0], -r7, lsr #1
    1408:	00008b30 	andeq	r8, r0, r0, lsr fp
    140c:	000005a7 	andeq	r0, r0, r7, lsr #11
    1410:	0000049f 	muleq	r0, pc, r4	; <UNPREDICTABLE>
    1414:	01500117 	cmpeq	r0, r7, lsl r1
    1418:	44160031 	ldrmi	r0, [r6], #-49	; 0xffffffcf
    141c:	7c00008b 	stcvc	0, cr0, [r0], {139}	; 0x8b
    1420:	bc00000c 	stclt	0, cr0, [r0], {12}
    1424:	17000004 	strne	r0, [r0, -r4]
    1428:	03055001 	movweq	r5, #20481	; 0x5001
    142c:	0000a68c 	andeq	sl, r0, ip, lsl #13
    1430:	02510117 	subseq	r0, r1, #-1073741819	; 0xc0000005
    1434:	16000074 			; <UNDEFINED> instruction: 0x16000074
    1438:	00008b60 	andeq	r8, r0, r0, ror #22
    143c:	00000c7c 	andeq	r0, r0, ip, ror ip
    1440:	000004eb 	andeq	r0, r0, fp, ror #9
    1444:	05500117 	ldrbeq	r0, [r0, #-279]	; 0xfffffee9
    1448:	00a66403 	adceq	r6, r6, r3, lsl #8
    144c:	51011700 	tstpl	r1, r0, lsl #14
    1450:	a3c80305 	bicge	r0, r8, #335544320	; 0x14000000
    1454:	01170000 	tsteq	r7, r0
    1458:	0c030552 	cfstr32eq	mvfx0, [r3], {82}	; 0x52
    145c:	170000a7 	strne	r0, [r0, -r7, lsr #1]
    1460:	08025301 	stmdaeq	r2, {r0, r8, r9, ip, lr}
    1464:	641800eb 	ldrvs	r0, [r8], #-235	; 0xffffff15
    1468:	8800008b 	stmdahi	r0, {r0, r1, r3, r7}
    146c:	0000000c 	andeq	r0, r0, ip
    1470:	0000cc10 	andeq	ip, r0, r0, lsl ip
    1474:	00050500 	andeq	r0, r5, r0, lsl #10
    1478:	002c1100 	eoreq	r1, ip, r0, lsl #2
    147c:	00110000 	andseq	r0, r1, r0
    1480:	0004f509 	andeq	pc, r4, r9, lsl #10
    1484:	03fc2300 	mvnseq	r2, #0, 6
    1488:	d5010000 	strle	r0, [r1, #-0]
    148c:	008adc06 	addeq	sp, sl, r6, lsl #24
    1490:	00004800 	andeq	r4, r0, r0, lsl #16
    1494:	929c0100 	addsls	r0, ip, #0
    1498:	15000005 	strne	r0, [r0, #-5]
    149c:	000000c4 	andeq	r0, r0, r4, asr #1
    14a0:	000005a2 	andeq	r0, r0, r2, lsr #11
    14a4:	a6fc0305 	ldrbtge	r0, [ip], r5, lsl #6
    14a8:	e8160000 	ldmda	r6, {}	; <UNPREDICTABLE>
    14ac:	a700008a 	strge	r0, [r0, -sl, lsl #1]
    14b0:	42000005 	andmi	r0, r0, #5, 0
    14b4:	17000005 	strne	r0, [r0, -r5]
    14b8:	31015001 	tstcc	r1, r1
    14bc:	8af81600 	bhi	ffe06cc4 <__bss_end__+0xffdfbdec>
    14c0:	0c7c0000 	ldcleq	0, cr0, [ip], #-0
    14c4:	05590000 	ldrbeq	r0, [r9, #-0]
    14c8:	01170000 	tsteq	r7, r0
    14cc:	44030550 	strmi	r0, [r3], #-1360	; 0xfffffab0
    14d0:	000000a6 	andeq	r0, r0, r6, lsr #1
    14d4:	008b1016 	addeq	r1, fp, r6, lsl r0
    14d8:	000c7c00 	andeq	r7, ip, r0, lsl #24
    14dc:	00058800 	andeq	r8, r5, r0, lsl #16
    14e0:	50011700 	andpl	r1, r1, r0, lsl #14
    14e4:	a6180305 	ldrge	r0, [r8], -r5, lsl #6
    14e8:	01170000 	tsteq	r7, r0
    14ec:	c8030551 	stmdagt	r3, {r0, r4, r6, r8, sl}
    14f0:	170000a3 	strne	r0, [r0, -r3, lsr #1]
    14f4:	03055201 	movweq	r5, #20993	; 0x5201
    14f8:	0000a6fc 	strdeq	sl, [r0], -ip
    14fc:	02530117 	subseq	r0, r3, #-1073741819	; 0xc0000005
    1500:	1800dc08 	stmdane	r0, {r3, sl, fp, ip, lr, pc}
    1504:	00008b14 	andeq	r8, r0, r4, lsl fp
    1508:	00000c88 	andeq	r0, r0, r8, lsl #25
    150c:	00cc1000 	sbceq	r1, ip, r0
    1510:	05a20000 	streq	r0, [r2, #0]!
    1514:	2c110000 	ldccs	0, cr0, [r1], {-0}
    1518:	0d000000 	stceq	0, cr0, [r0, #-0]
    151c:	05920900 	ldreq	r0, [r2, #2304]	; 0x900
    1520:	4d220000 	stcmi	0, cr0, [r2, #-0]
    1524:	01000000 	mrseq	r0, (UNDEF: 0)
    1528:	002c0ace 	eoreq	r0, ip, lr, asr #21
    152c:	8ad00000 	bhi	ff401534 <__bss_end__+0xff3f665c>
    1530:	000c0000 	andeq	r0, ip, r0
    1534:	9c010000 	stcls	0, cr0, [r1], {-0}
    1538:	000005e7 	andeq	r0, r0, r7, ror #11
    153c:	00048924 	andeq	r8, r4, r4, lsr #18
    1540:	1cce0100 	stfnee	f0, [lr], {0}
    1544:	00000025 	andeq	r0, r0, r5, lsr #32
    1548:	00000771 	andeq	r0, r0, r1, ror r7
    154c:	0000076d 	andeq	r0, r0, sp, ror #14
    1550:	008ad821 	addeq	sp, sl, r1, lsr #16
    1554:	0005e700 	andeq	lr, r5, r0, lsl #14
    1558:	50011700 	andpl	r1, r1, r0, lsl #14
    155c:	5001f303 	andpl	pc, r1, r3, lsl #6
    1560:	641b0000 	ldrvs	r0, [fp], #-0
    1564:	01000004 	tsteq	r0, r4
    1568:	002c11a5 	eoreq	r1, ip, r5, lsr #3
    156c:	885c0000 	ldmdahi	ip, {}^	; <UNPREDICTABLE>
    1570:	00f40000 	rscseq	r0, r4, r0
    1574:	9c010000 	stcls	0, cr0, [r1], {-0}
    1578:	0000076e 	andeq	r0, r0, lr, ror #14
    157c:	00048924 	andeq	r8, r4, r4, lsr #18
    1580:	20a50100 	adccs	r0, r5, r0, lsl #2
    1584:	00000025 	andeq	r0, r0, r5, lsr #32
    1588:	00000796 	muleq	r0, r6, r7
    158c:	00000792 	muleq	r0, r2, r7
    1590:	0003951c 	andeq	r9, r3, ip, lsl r5
    1594:	0ea70100 	fdveqs	f0, f7, f0
    1598:	0000002c 	andeq	r0, r0, ip, lsr #32
    159c:	000007b8 			; <UNDEFINED> instruction: 0x000007b8
    15a0:	000007b4 			; <UNDEFINED> instruction: 0x000007b4
    15a4:	0003c01c 	andeq	ip, r3, ip, lsl r0
    15a8:	1ba70100 	blne	fe9c19b0 <__bss_end__+0xfe9b6ad8>
    15ac:	0000002c 	andeq	r0, r0, ip, lsr #32
    15b0:	000007dd 	ldrdeq	r0, [r0], -sp
    15b4:	000007d7 	ldrdeq	r0, [r0], -r7
    15b8:	0003ba1c 	andeq	fp, r3, ip, lsl sl
    15bc:	27a70100 	strcs	r0, [r7, r0, lsl #2]!
    15c0:	0000002c 	andeq	r0, r0, ip, lsr #32
    15c4:	0000080b 	andeq	r0, r0, fp, lsl #16
    15c8:	00000807 	andeq	r0, r0, r7, lsl #16
    15cc:	0000301d 	andeq	r3, r0, sp, lsl r0
    15d0:	0006cc00 	andeq	ip, r6, r0, lsl #24
    15d4:	00681e00 	rsbeq	r1, r8, r0, lsl #28
    15d8:	4911ac01 	ldmdbmi	r1, {r0, sl, fp, sp, pc}
    15dc:	38000004 	stmdacc	r0, {r2}
    15e0:	2a000008 	bcs	1608 <__code_start__-0x69f8>
    15e4:	18000008 	stmdane	r0, {r3}
    15e8:	0000887c 	andeq	r8, r0, ip, ror r8
    15ec:	00000ca3 	andeq	r0, r0, r3, lsr #25
    15f0:	0088a416 	addeq	sl, r8, r6, lsl r4
    15f4:	000c7c00 	andeq	r7, ip, r0, lsl #24
    15f8:	00069800 	andeq	r9, r6, r0, lsl #16
    15fc:	50011700 	andpl	r1, r1, r0, lsl #14
    1600:	a4b40305 	ldrtge	r0, [r4], #773	; 0x305
    1604:	01170000 	tsteq	r7, r0
    1608:	00750251 	rsbseq	r0, r5, r1, asr r2
    160c:	02520117 	subseq	r0, r2, #-1073741819	; 0xc0000005
    1610:	16000074 			; <UNDEFINED> instruction: 0x16000074
    1614:	000088ac 	andeq	r8, r0, ip, lsr #17
    1618:	00000cbb 			; <UNDEFINED> instruction: 0x00000cbb
    161c:	000006ac 	andeq	r0, r0, ip, lsr #13
    1620:	02500117 	subseq	r0, r0, #-1073741819	; 0xc0000005
    1624:	21000074 	tstcs	r0, r4, ror r0
    1628:	000088e4 	andeq	r8, r0, r4, ror #17
    162c:	00000c7c 	andeq	r0, r0, ip, ror ip
    1630:	05500117 	ldrbeq	r0, [r0, #-279]	; 0xfffffee9
    1634:	00a4c803 	adceq	ip, r4, r3, lsl #16
    1638:	51011700 	tstpl	r1, r0, lsl #14
    163c:	17007502 	strne	r7, [r0, -r2, lsl #10]
    1640:	74025201 	strvc	r5, [r2], #-513	; 0xfffffdff
    1644:	16000000 	strne	r0, [r0], -r0
    1648:	0000886c 	andeq	r8, r0, ip, ror #16
    164c:	00000c7c 	andeq	r0, r0, ip, ror ip
    1650:	000006e3 	andeq	r0, r0, r3, ror #13
    1654:	05500117 	ldrbeq	r0, [r0, #-279]	; 0xfffffee9
    1658:	00a46003 	adceq	r6, r4, r3
    165c:	74160000 	ldrvc	r0, [r6], #-0
    1660:	7c000088 	stcvc	0, cr0, [r0], {136}	; 0x88
    1664:	fa00000c 	blx	169c <__code_start__-0x6964>
    1668:	17000006 	strne	r0, [r0, -r6]
    166c:	03055001 	movweq	r5, #20481	; 0x5001
    1670:	0000a49c 	muleq	r0, ip, r4
    1674:	88781800 	ldmdahi	r8!, {fp, ip}^
    1678:	076e0000 	strbeq	r0, [lr, -r0]!
    167c:	f4160000 			; <UNDEFINED> instruction: 0xf4160000
    1680:	7c000088 	stcvc	0, cr0, [r0], {136}	; 0x88
    1684:	2000000c 	andcs	r0, r0, ip
    1688:	17000007 	strne	r0, [r0, -r7]
    168c:	03055001 	movweq	r5, #20481	; 0x5001
    1690:	0000a4e0 	andeq	sl, r0, r0, ror #9
    1694:	02510117 	subseq	r0, r1, #-1073741819	; 0xc0000005
    1698:	16000075 			; <UNDEFINED> instruction: 0x16000075
    169c:	00008904 	andeq	r8, r0, r4, lsl #18
    16a0:	00000c7c 	andeq	r0, r0, ip, ror ip
    16a4:	00000737 	andeq	r0, r0, r7, lsr r7
    16a8:	05500117 	ldrbeq	r0, [r0, #-279]	; 0xfffffee9
    16ac:	00a50003 	adceq	r0, r5, r3
    16b0:	0c160000 	ldceq	0, cr0, [r6], {-0}
    16b4:	7c000089 	stcvc	0, cr0, [r0], {137}	; 0x89
    16b8:	4e00000c 	cdpmi	0, 0, cr0, cr0, cr12, {0}
    16bc:	17000007 	strne	r0, [r0, -r7]
    16c0:	03055001 	movweq	r5, #20481	; 0x5001
    16c4:	0000a558 	andeq	sl, r0, r8, asr r5
    16c8:	892c2100 	stmdbhi	ip!, {r8, sp}
    16cc:	0c7c0000 	ldcleq	0, cr0, [ip], #-0
    16d0:	01170000 	tsteq	r7, r0
    16d4:	28030550 	stmdacs	r3, {r4, r6, r8, sl}
    16d8:	170000a5 	strne	r0, [r0, -r5, lsr #1]
    16dc:	76025101 	strvc	r5, [r2], -r1, lsl #2
    16e0:	52011700 	andpl	r1, r1, #0, 14
    16e4:	00007702 	andeq	r7, r0, r2, lsl #14
    16e8:	036f2500 	cmneq	pc, #0, 10
    16ec:	79010000 	stmdbvc	r1, {}	; <UNPREDICTABLE>
    16f0:	0087b80d 	addeq	fp, r7, sp, lsl #16
    16f4:	0000a400 	andeq	sl, r0, r0, lsl #8
    16f8:	7a9c0100 	bvc	fe701b00 <__bss_end__+0xfe6f6c28>
    16fc:	13000008 	movwne	r0, #8
    1700:	000003d2 	ldrdeq	r0, [r0], -r2
    1704:	7a0e8501 	bvc	3a2b10 <__bss_end__+0x397c38>
    1708:	03000008 	movweq	r0, #8
    170c:	267fb891 			; <UNDEFINED> instruction: 0x267fb891
    1710:	00000365 	andeq	r0, r0, r5, ror #6
    1714:	8a0f9601 	bhi	3e6f20 <__bss_end__+0x3dc048>
    1718:	00000008 	andeq	r0, r0, r8
    171c:	07080000 	streq	r0, [r8, -r0]
    1720:	00000387 	andeq	r0, r0, r7, lsl #7
    1724:	75159b01 	ldrvc	r9, [r5, #-2817]	; 0xfffff4ff
    1728:	07000000 	streq	r0, [r0, -r0]
    172c:	00000439 	andeq	r0, r0, r9, lsr r4
    1730:	75249b01 	strvc	r9, [r4, #-2817]!	; 0xfffff4ff
    1734:	07000000 	streq	r0, [r0, -r0]
    1738:	0000046f 	andeq	r0, r0, pc, ror #8
    173c:	75159e01 	ldrvc	r9, [r5, #-3585]	; 0xfffff1ff
    1740:	07000000 	streq	r0, [r0, -r0]
    1744:	000003e8 	andeq	r0, r0, r8, ror #7
    1748:	75259e01 	strvc	r9, [r5, #-3585]!	; 0xfffff1ff
    174c:	27000000 	strcs	r0, [r0, -r0]
    1750:	000087c0 	andeq	r8, r0, r0, asr #15
    1754:	00000024 	andeq	r0, r0, r4, lsr #32
    1758:	00000806 	andeq	r0, r0, r6, lsl #16
    175c:	0100681e 	tsteq	r0, lr, lsl r8
    1760:	0449117e 	strbeq	r1, [r9], #-382	; 0xfffffe82
    1764:	08910000 	ldmeq	r1, {}	; <UNPREDICTABLE>
    1768:	088d0000 	stmeq	sp, {}	; <UNPREDICTABLE>
    176c:	c4180000 	ldrgt	r0, [r8], #-0
    1770:	a3000087 	movwge	r0, #135	; 0x87
    1774:	1800000c 	stmdane	r0, {r2, r3}
    1778:	000087e0 	andeq	r8, r0, r0, ror #15
    177c:	00000cbb 			; <UNDEFINED> instruction: 0x00000cbb
    1780:	87ec1600 	strbhi	r1, [ip, r0, lsl #12]!
    1784:	0cc70000 	stcleq	0, cr0, [r7], {0}
    1788:	081a0000 	ldmdaeq	sl, {}	; <UNPREDICTABLE>
    178c:	01170000 	tsteq	r7, r0
    1790:	007d0250 	rsbseq	r0, sp, r0, asr r2
    1794:	880c1600 	stmdahi	ip, {r9, sl, ip}
    1798:	08900000 	ldmeq	r0, {}	; <UNPREDICTABLE>
    179c:	08340000 	ldmdaeq	r4!, {}	; <UNPREDICTABLE>
    17a0:	01170000 	tsteq	r7, r0
    17a4:	007d0250 	rsbseq	r0, sp, r0, asr r2
    17a8:	02510117 	subseq	r0, r1, #-1073741819	; 0xc0000005
    17ac:	16006891 			; <UNDEFINED> instruction: 0x16006891
    17b0:	0000881c 	andeq	r8, r0, ip, lsl r8
    17b4:	00000c7c 	andeq	r0, r0, ip, ror ip
    17b8:	00000852 	andeq	r0, r0, r2, asr r8
    17bc:	05500117 	ldrbeq	r0, [r0, #-279]	; 0xfffffee9
    17c0:	00a44403 	adceq	r4, r4, r3, lsl #8
    17c4:	52011700 	andpl	r1, r1, #0, 14
    17c8:	24474003 	strbcs	r4, [r7], #-3
    17cc:	88281600 	stmdahi	r8!, {r9, sl, ip}
    17d0:	08900000 	ldmeq	r0, {}	; <UNPREDICTABLE>
    17d4:	08670000 	stmdaeq	r7!, {}^	; <UNPREDICTABLE>
    17d8:	01170000 	tsteq	r7, r0
    17dc:	47400351 	smlsldmi	r0, r0, r1, r3	; <UNPREDICTABLE>
    17e0:	34180024 	ldrcc	r0, [r8], #-36	; 0xffffffdc
    17e4:	90000088 	andls	r0, r0, r8, lsl #1
    17e8:	18000008 	stmdane	r0, {r3}
    17ec:	00008840 	andeq	r8, r0, r0, asr #16
    17f0:	00000890 	muleq	r0, r0, r8
    17f4:	00751000 	rsbseq	r1, r5, r0
    17f8:	088a0000 	stmeq	sl, {}	; <UNPREDICTABLE>
    17fc:	2c110000 	ldccs	0, cr0, [r1], {-0}
    1800:	0f000000 	svceq	0x00000000
    1804:	75040800 	strvc	r0, [r4, #-2048]	; 0xfffff800
    1808:	25000000 	strcs	r0, [r0, #-0]
    180c:	000003b5 			; <UNDEFINED> instruction: 0x000003b5
    1810:	500d5001 	andpl	r5, sp, r1
    1814:	68000086 	stmdavs	r0, {r1, r2, r7}
    1818:	01000001 	tsteq	r0, r1
    181c:	000a899c 	muleq	sl, ip, r9
    1820:	00702800 	rsbseq	r2, r0, r0, lsl #16
    1824:	8a1c5001 	bhi	715830 <__bss_end__+0x70a958>
    1828:	bd000008 	stclt	0, cr0, [r0, #-32]	; 0xffffffe0
    182c:	af000008 	svcge	0x00000008
    1830:	28000008 	stmdacs	r0, {r3}
    1834:	50010065 	andpl	r0, r1, r5, rrx
    1838:	00088a29 	andeq	r8, r8, r9, lsr #20
    183c:	00092600 	andeq	r2, r9, r0, lsl #12
    1840:	00091800 	andeq	r1, r9, r0, lsl #16
    1844:	00c41500 	sbceq	r1, r4, r0, lsl #10
    1848:	0a990000 	beq	fe641850 <__bss_end__+0xfe636978>
    184c:	03050000 	movweq	r0, #20480	; 0x5000
    1850:	0000a6e0 	andeq	sl, r0, r0, ror #13
    1854:	0086d827 	addeq	sp, r6, r7, lsr #16
    1858:	0000b400 	andeq	fp, r0, r0, lsl #8
    185c:	0009c200 	andeq	ip, r9, r0, lsl #4
    1860:	00691e00 	rsbeq	r1, r9, r0, lsl #28
    1864:	8a145801 	bhi	517870 <__bss_end__+0x50c998>
    1868:	83000008 	movwhi	r0, #8
    186c:	81000009 	tsthi	r0, r9
    1870:	29000009 	stmdbcs	r0, {r0, r3}
    1874:	00000000 	andeq	r0, r0, r0
    1878:	0100621e 	tsteq	r0, lr, lsl r2
    187c:	0449105a 	strbeq	r1, [r9], #-90	; 0xffffffa6
    1880:	099c0000 	ldmibeq	ip, {}	; <UNPREDICTABLE>
    1884:	09960000 	ldmibeq	r6, {}	; <UNPREDICTABLE>
    1888:	181d0000 	ldmdane	sp, {}	; <UNPREDICTABLE>
    188c:	b7000000 	strlt	r0, [r0, -r0]
    1890:	1e000009 	cdpne	0, 0, cr0, cr0, cr9, {0}
    1894:	00707865 	rsbseq	r7, r0, r5, ror #16
    1898:	75165d01 	ldrvc	r5, [r6, #-3329]	; 0xfffff2ff
    189c:	c9000000 	stmdbgt	r0, {}	; <UNPREDICTABLE>
    18a0:	c5000009 	strgt	r0, [r0, #-9]
    18a4:	1c000009 	stcne	0, cr0, [r0], {9}
    18a8:	000003b1 			; <UNDEFINED> instruction: 0x000003b1
    18ac:	62165e01 	andsvs	r5, r6, #1, 28
    18b0:	eb000000 	bl	18b8 <__code_start__-0x6748>
    18b4:	e7000009 	str	r0, [r0, -r9]
    18b8:	16000009 	strne	r0, [r0], -r9
    18bc:	000086ec 	andeq	r8, r0, ip, ror #13
    18c0:	00000c7c 	andeq	r0, r0, ip, ror ip
    18c4:	00000957 	andeq	r0, r0, r7, asr r9
    18c8:	05500117 	ldrbeq	r0, [r0, #-279]	; 0xfffffee9
    18cc:	00a42403 	adceq	r2, r4, r3, lsl #8
    18d0:	20160000 	andscs	r0, r6, r0
    18d4:	d3000087 	movwle	r0, #135	; 0x87
    18d8:	6b00000c 	blvs	1910 <__code_start__-0x66f0>
    18dc:	17000009 	strne	r0, [r0, -r9]
    18e0:	75025001 	strvc	r5, [r2, #-1]
    18e4:	38160000 	ldmdacc	r6, {}	; <UNPREDICTABLE>
    18e8:	7c000087 	stcvc	0, cr0, [r0], {135}	; 0x87
    18ec:	8f00000c 	svchi	0x0000000c
    18f0:	17000009 	strne	r0, [r0, -r9]
    18f4:	03055001 	movweq	r5, #20481	; 0x5001
    18f8:	0000a3f8 	strdeq	sl, [r0], -r8
    18fc:	02520117 	subseq	r0, r2, #-1073741819	; 0xc0000005
    1900:	02170074 	andseq	r0, r7, #116, 0	; 0x74
    1904:	7702007d 	smlsdxvc	r2, sp, r0, r0
    1908:	7c160000 	ldcvc	0, cr0, [r6], {-0}
    190c:	90000087 	andls	r0, r0, r7, lsl #1
    1910:	a3000008 	movwge	r0, #8
    1914:	17000009 	strne	r0, [r0, -r9]
    1918:	75025001 	strvc	r5, [r2, #-1]
    191c:	88210004 	stmdahi	r1!, {r2}
    1920:	7c000087 	stcvc	0, cr0, [r0], {135}	; 0x87
    1924:	1700000c 	strne	r0, [r0, -ip]
    1928:	03055001 	movweq	r5, #20481	; 0x5001
    192c:	0000a434 	andeq	sl, r0, r4, lsr r4
    1930:	08180000 	ldmdaeq	r8, {}	; <UNPREDICTABLE>
    1934:	9e000087 	cdpls	0, 0, cr0, cr0, cr7, {4}
    1938:	0000000a 	andeq	r0, r0, sl
    193c:	86941600 	ldrhi	r1, [r4], r0, lsl #12
    1940:	0c7c0000 	ldcleq	0, cr0, [ip], #-0
    1944:	09fb0000 	ldmibeq	fp!, {}^	; <UNPREDICTABLE>
    1948:	01170000 	tsteq	r7, r0
    194c:	ac030550 	cfstr32ge	mvfx0, [r3], {80}	; 0x50
    1950:	170000a2 	strne	r0, [r0, -r2, lsr #1]
    1954:	03055101 	movweq	r5, #20737	; 0x5101
    1958:	0000a3c8 	andeq	sl, r0, r8, asr #7
    195c:	05520117 	ldrbeq	r0, [r2, #-279]	; 0xfffffee9
    1960:	00a6e003 	adceq	lr, r6, r3
    1964:	53011700 	movwpl	r1, #5888	; 0x1700
    1968:	17560802 	ldrbne	r0, [r6, -r2, lsl #16]
    196c:	05007d02 	streq	r7, [r0, #-3330]	; 0xfffff2fe
    1970:	00a3e803 	adceq	lr, r3, r3, lsl #16
    1974:	98180000 	ldmdals	r8, {}	; <UNPREDICTABLE>
    1978:	88000086 	stmdahi	r0, {r1, r2, r7}
    197c:	1600000c 	strne	r0, [r0], -ip
    1980:	000086b4 			; <UNDEFINED> instruction: 0x000086b4
    1984:	00000c7c 	andeq	r0, r0, ip, ror ip
    1988:	00000a3d 	andeq	r0, r0, sp, lsr sl
    198c:	05500117 	ldrbeq	r0, [r0, #-279]	; 0xfffffee9
    1990:	00a2ac03 	adceq	sl, r2, r3, lsl #24
    1994:	51011700 	tstpl	r1, r0, lsl #14
    1998:	a3c80305 	bicge	r0, r8, #335544320	; 0x14000000
    199c:	01170000 	tsteq	r7, r0
    19a0:	e0030552 	and	r0, r3, r2, asr r5
    19a4:	170000a6 	strne	r0, [r0, -r6, lsr #1]
    19a8:	08025301 	stmdaeq	r2, {r0, r8, r9, ip, lr}
    19ac:	7d021752 	stcvc	7, cr1, [r2, #-328]	; 0xfffffeb8
    19b0:	d0030500 	andle	r0, r3, r0, lsl #10
    19b4:	000000a3 	andeq	r0, r0, r3, lsr #1
    19b8:	0086b818 	addeq	fp, r6, r8, lsl r8
    19bc:	000c8800 	andeq	r8, ip, r0, lsl #16
    19c0:	86d41600 	ldrbhi	r1, [r4], r0, lsl #12
    19c4:	0c7c0000 	ldcleq	0, cr0, [ip], #-0
    19c8:	0a7f0000 	beq	1fc19d0 <__bss_end__+0x1fb6af8>
    19cc:	01170000 	tsteq	r7, r0
    19d0:	ac030550 	cfstr32ge	mvfx0, [r3], {80}	; 0x50
    19d4:	170000a2 	strne	r0, [r0, -r2, lsr #1]
    19d8:	03055101 	movweq	r5, #20737	; 0x5101
    19dc:	0000a3c8 	andeq	sl, r0, r8, asr #7
    19e0:	05520117 	ldrbeq	r0, [r2, #-279]	; 0xfffffee9
    19e4:	00a6e003 	adceq	lr, r6, r3
    19e8:	53011700 	movwpl	r1, #5888	; 0x1700
    19ec:	17550802 	ldrbne	r0, [r5, -r2, lsl #16]
    19f0:	05007d02 	streq	r7, [r0, #-3330]	; 0xfffff2fe
    19f4:	00a3d803 	adceq	sp, r3, r3, lsl #16
    19f8:	d8180000 	ldmdale	r8, {}	; <UNPREDICTABLE>
    19fc:	88000086 	stmdahi	r0, {r1, r2, r7}
    1a00:	0000000c 	andeq	r0, r0, ip
    1a04:	0000cc10 	andeq	ip, r0, r0, lsl ip
    1a08:	000a9900 	andeq	r9, sl, r0, lsl #18
    1a0c:	002c1100 	eoreq	r1, ip, r0, lsl #2
    1a10:	00040000 	andeq	r0, r4, r0
    1a14:	000a8909 	andeq	r8, sl, r9, lsl #18
    1a18:	03f51b00 	mvnseq	r1, #0, 22
    1a1c:	3c010000 	stccc	0, cr0, [r1], {-0}
    1a20:	0004490f 	andeq	r4, r4, pc, lsl #18
    1a24:	00862800 	addeq	r2, r6, r0, lsl #16
    1a28:	00002800 	andeq	r2, r0, r0, lsl #16
    1a2c:	039c0100 	orrseq	r0, ip, #0
    1a30:	2400000b 	strcs	r0, [r0], #-11
    1a34:	00000a53 	andeq	r0, r0, r3, asr sl
    1a38:	751f3c01 	ldrvc	r3, [pc, #-3073]	; e3f <__code_start__-0x71c1>
    1a3c:	0d000000 	stceq	0, cr0, [r0, #-0]
    1a40:	0900000a 	stmdbeq	r0, {r1, r3}
    1a44:	1e00000a 	cdpne	0, 0, cr0, cr0, cr10, {0}
    1a48:	3e010070 	mcrcc	0, 0, r0, cr1, cr0, {3}
    1a4c:	0001e00b 	andeq	lr, r1, fp
    1a50:	000a2f00 	andeq	r2, sl, r0, lsl #30
    1a54:	000a2b00 	andeq	r2, sl, r0, lsl #22
    1a58:	86341600 	ldrthi	r1, [r4], -r0, lsl #12
    1a5c:	0b030000 	bleq	c1a64 <__bss_end__+0xb6b8c>
    1a60:	0af20000 	beq	ffc81a68 <__bss_end__+0xffc76b90>
    1a64:	01170000 	tsteq	r7, r0
    1a68:	00740250 	rsbseq	r0, r4, r0, asr r2
    1a6c:	86442100 	strbhi	r2, [r4], -r0, lsl #2
    1a70:	0cdf0000 	ldcleq	0, cr0, [pc], {0}
    1a74:	01170000 	tsteq	r7, r0
    1a78:	00740250 	rsbseq	r0, r4, r0, asr r2
    1a7c:	111b0000 	tstne	fp, r0
    1a80:	01000004 	tsteq	r0, r4
    1a84:	00250c2b 	eoreq	r0, r5, fp, lsr #24
    1a88:	85ec0000 	strbhi	r0, [ip, #0]!
    1a8c:	003c0000 	eorseq	r0, ip, r0
    1a90:	9c010000 	stcls	0, cr0, [r1], {-0}
    1a94:	00000b30 	andeq	r0, r0, r0, lsr fp
    1a98:	01007028 	tsteq	r0, r8, lsr #32
    1a9c:	01e01a2b 	mvneq	r1, fp, lsr #20
    1aa0:	0a590000 	beq	1641aa8 <__bss_end__+0x1636bd0>
    1aa4:	0a4d0000 	beq	1341aac <__bss_end__+0x1336bd4>
    1aa8:	22000000 	andcs	r0, r0, #0, 0
    1aac:	0000034b 	andeq	r0, r0, fp, asr #6
    1ab0:	e0071301 	and	r1, r7, r1, lsl #6
    1ab4:	2c000001 	stccs	0, cr0, [r0], {1}
    1ab8:	a400008a 	strge	r0, [r0], #-138	; 0xffffff76
    1abc:	01000000 	mrseq	r0, (UNDEF: 0)
    1ac0:	000c469c 	muleq	ip, ip, r6
    1ac4:	03de2400 	bicseq	r2, lr, #0, 8
    1ac8:	13010000 	movwne	r0, #4096	; 0x1000
    1acc:	00004111 	andeq	r4, r0, r1, lsl r1
    1ad0:	000ab800 	andeq	fp, sl, r0, lsl #16
    1ad4:	000aac00 	andeq	sl, sl, r0, lsl #24
    1ad8:	039d1300 	orrseq	r1, sp, #0, 6
    1adc:	15010000 	strne	r0, [r1, #-0]
    1ae0:	00002510 	andeq	r2, r0, r0, lsl r5
    1ae4:	d0030500 	andle	r0, r3, r0, lsl #10
    1ae8:	150000aa 	strne	r0, [r0, #-170]	; 0xffffff56
    1aec:	000000c4 	andeq	r0, r0, r4, asr #1
    1af0:	00000a99 	muleq	r0, r9, sl
    1af4:	a6f40305 	ldrbtge	r0, [r4], r5, lsl #6
    1af8:	4c270000 	stcmi	0, cr0, [r7], #-0
    1afc:	2400008a 	strcs	r0, [r0], #-138	; 0xffffff76
    1b00:	b9000000 	stmdblt	r0, {}	; <UNPREDICTABLE>
    1b04:	1c00000b 	stcne	0, cr0, [r0], {11}
    1b08:	00000419 	andeq	r0, r0, r9, lsl r4
    1b0c:	2c121c01 	ldccs	12, cr1, [r2], {1}
    1b10:	04000000 	streq	r0, [r0], #-0
    1b14:	0200000b 	andeq	r0, r0, #11, 0
    1b18:	2100000b 	tstcs	r0, fp
    1b1c:	00008a68 	andeq	r8, r0, r8, ror #20
    1b20:	00000ceb 	andeq	r0, r0, fp, ror #25
    1b24:	03500117 	cmpeq	r0, #-1073741819	; 0xc0000005
    1b28:	17244040 	strne	r4, [r4, -r0, asr #32]!
    1b2c:	40035101 	andmi	r5, r3, r1, lsl #2
    1b30:	00002440 	andeq	r2, r0, r0, asr #8
    1b34:	008a7816 	addeq	r7, sl, r6, lsl r8
    1b38:	000cf700 	andeq	pc, ip, r0, lsl #14
    1b3c:	000bcd00 	andeq	ip, fp, r0, lsl #26
    1b40:	50011700 	andpl	r1, r1, r0, lsl #14
    1b44:	00007402 	andeq	r7, r0, r2, lsl #8
    1b48:	008a9c16 	addeq	r9, sl, r6, lsl ip
    1b4c:	000c7c00 	andeq	r7, ip, r0, lsl #24
    1b50:	000c0500 	andeq	r0, ip, r0, lsl #10
    1b54:	50011700 	andpl	r1, r1, r0, lsl #14
    1b58:	a2ac0305 	adcge	r0, ip, #335544320	; 0x14000000
    1b5c:	01170000 	tsteq	r7, r0
    1b60:	c8030551 	stmdagt	r3, {r0, r4, r6, r8, sl}
    1b64:	170000a3 	strne	r0, [r0, -r3, lsr #1]
    1b68:	03055201 	movweq	r5, #20993	; 0x5201
    1b6c:	0000a6f4 	strdeq	sl, [r0], -r4
    1b70:	01530117 	cmpeq	r3, r7, lsl r1
    1b74:	7d021747 	stcvc	7, cr1, [r2, #-284]	; 0xfffffee4
    1b78:	e8030500 	stmda	r3, {r8, sl}
    1b7c:	000000a5 	andeq	r0, r0, r5, lsr #1
    1b80:	008aa018 	addeq	sl, sl, r8, lsl r0
    1b84:	000c8800 	andeq	r8, ip, r0, lsl #16
    1b88:	8ab41600 	bhi	fed07390 <__bss_end__+0xfecfc4b8>
    1b8c:	0c7c0000 	ldcleq	0, cr0, [ip], #-0
    1b90:	0c3c0000 	ldceq	0, cr0, [ip], #-0
    1b94:	01170000 	tsteq	r7, r0
    1b98:	f8030550 			; <UNDEFINED> instruction: 0xf8030550
    1b9c:	170000a5 	strne	r0, [r0, -r5, lsr #1]
    1ba0:	03055101 	movweq	r5, #20737	; 0x5101
    1ba4:	0000a3c8 	andeq	sl, r0, r8, asr #7
    1ba8:	05520117 	ldrbeq	r0, [r2, #-279]	; 0xfffffee9
    1bac:	00a6f403 	adceq	pc, r6, r3, lsl #8
    1bb0:	53011700 	movwpl	r1, #5888	; 0x1700
    1bb4:	18004901 	stmdane	r0, {r0, r8, fp, lr}
    1bb8:	00008ab8 			; <UNDEFINED> instruction: 0x00008ab8
    1bbc:	00000c88 	andeq	r0, r0, r8, lsl #25
    1bc0:	00aa2a00 	adceq	r2, sl, r0, lsl #20
    1bc4:	0c020000 	stceq	0, cr0, [r2], {-0}
    1bc8:	0001140b 	andeq	r1, r1, fp, lsl #8
    1bcc:	0c7c0300 	ldcleq	3, cr0, [ip], #-0
    1bd0:	702b0000 	eorvc	r0, fp, r0
    1bd4:	02000000 	andeq	r0, r0, #0, 0
    1bd8:	00bf220c 	adcseq	r2, pc, ip, lsl #4
    1bdc:	bf2b0000 	svclt	0x002b0000
    1be0:	02000000 	andeq	r0, r0, #0, 0
    1be4:	00bf340c 	adcseq	r3, pc, ip, lsl #8
    1be8:	462b0000 	strtmi	r0, [fp], -r0
    1bec:	02000000 	andeq	r0, r0, #0, 0
    1bf0:	002c430c 	eoreq	r4, ip, ip, lsl #6
    1bf4:	2c000000 	stccs	0, cr0, [r0], {-0}
    1bf8:	00000596 	muleq	r0, r6, r5
    1bfc:	00000596 	muleq	r0, r6, r5
    1c00:	2c062804 	stccs	8, cr2, [r6], {4}
    1c04:	00000083 	andeq	r0, r0, r3, lsl #1
    1c08:	00000083 	andeq	r0, r0, r3, lsl #1
    1c0c:	2d066e04 	stccs	14, cr6, [r6, #-16]
    1c10:	730b9e0d 	movwvc	r9, #48653	; 0xbe0d
    1c14:	70656577 	rsbvc	r6, r5, r7, ror r5
    1c18:	6572665f 	ldrbvs	r6, [r2, #-1631]!	; 0xfffff9a1
    1c1c:	802c0065 	eorhi	r0, ip, r5, rrx
    1c20:	80000002 	andhi	r0, r0, r2
    1c24:	05000002 	streq	r0, [r0, #-2]
    1c28:	8d2c0828 	stchi	8, cr0, [ip, #-160]!	; 0xffffff60
    1c2c:	8d000002 	stchi	0, cr0, [r0, #-8]
    1c30:	05000002 	streq	r0, [r0, #-2]
    1c34:	c42c074a 	strtgt	r0, [ip], #-1866	; 0xfffff8b6
    1c38:	c4000002 	strgt	r0, [r0], #-2
    1c3c:	05000002 	streq	r0, [r0, #-2]
    1c40:	cd2c082b 	stcgt	8, cr0, [ip, #-172]!	; 0xffffff54
    1c44:	cd000003 	stcgt	0, cr0, [r0, #-12]
    1c48:	01000003 	tsteq	r0, r3
    1c4c:	e22c0676 	eor	r0, ip, #123731968	; 0x7600000
    1c50:	e2000002 	and	r0, r0, #2, 0
    1c54:	05000002 	streq	r0, [r0, #-2]
    1c58:	b22c0732 	eorlt	r0, ip, #13107200	; 0xc80000
    1c5c:	b2000002 	andlt	r0, r0, #2, 0
    1c60:	05000002 	streq	r0, [r0, #-2]
    1c64:	4d2c0845 	stcmi	8, cr0, [ip, #-276]!	; 0xfffffeec
    1c68:	4d000004 	stcmi	0, cr0, [r0, #-16]
    1c6c:	04000004 	streq	r0, [r0], #-4
    1c70:	452c0682 	strmi	r0, [ip, #-1666]!	; 0xfffff97e
    1c74:	45000004 	strmi	r0, [r0, #-4]
    1c78:	04000004 	streq	r0, [r0], #-4
    1c7c:	4000077b 	andmi	r0, r0, fp, ror r7
    1c80:	04000001 	streq	r0, [r0], #-1
    1c84:	0008f100 	andeq	pc, r8, r0, lsl #2
    1c88:	b4010400 	strlt	r0, [r1], #-1024	; 0xfffffc00
    1c8c:	0c000004 	stceq	0, cr0, [r0], {4}
    1c90:	000004a4 	andeq	r0, r0, r4, lsr #9
    1c94:	0000056c 	andeq	r0, r0, ip, ror #10
    1c98:	00008bb8 			; <UNDEFINED> instruction: 0x00008bb8
    1c9c:	00000078 	andeq	r0, r0, r8, ror r0
    1ca0:	00000be0 	andeq	r0, r0, r0, ror #23
    1ca4:	69050402 	stmdbvs	r5, {r1, sl}
    1ca8:	0300746e 	movweq	r7, #1134	; 0x46e
    1cac:	0000049d 	muleq	r0, sp, r4
    1cb0:	3817d103 	ldmdacc	r7, {r0, r1, r8, ip, lr, pc}
    1cb4:	04000000 	streq	r0, [r0], #-0
    1cb8:	00ea0704 	rsceq	r0, sl, r4, lsl #14
    1cbc:	01040000 	mrseq	r0, (UNDEF: 4)
    1cc0:	00007706 	andeq	r7, r0, r6, lsl #14
    1cc4:	05020400 	streq	r0, [r2, #-1024]	; 0xfffffc00
    1cc8:	00000149 	andeq	r0, r0, r9, asr #2
    1ccc:	0e050404 	cdpeq	4, 0, cr0, cr5, cr4, {0}
    1cd0:	04000001 	streq	r0, [r0], #-1
    1cd4:	01090508 	tsteq	r9, r8, lsl #10
    1cd8:	01040000 	mrseq	r0, (UNDEF: 4)
    1cdc:	00007508 	andeq	r7, r0, r8, lsl #10
    1ce0:	07020400 	streq	r0, [r2, -r0, lsl #8]
    1ce4:	00000090 	muleq	r0, r0, r0
    1ce8:	e5070404 	str	r0, [r7, #-1028]	; 0xfffffbfc
    1cec:	04000000 	streq	r0, [r0], #-0
    1cf0:	00e00708 	rsceq	r0, r0, r8, lsl #14
    1cf4:	25050000 	strcs	r0, [r5, #-0]
    1cf8:	86000000 	strhi	r0, [r0], -r0
    1cfc:	06000000 	streq	r0, [r0], -r0
    1d00:	00000025 	andeq	r0, r0, r5, lsr #32
    1d04:	016f0700 	cmneq	pc, r0, lsl #14
    1d08:	1c020000 	stcne	0, cr0, [r2], {-0}
    1d0c:	0000920e 	andeq	r9, r0, lr, lsl #4
    1d10:	77040800 	strvc	r0, [r4, -r0, lsl #16]
    1d14:	05000000 	streq	r0, [r0, #-0]
    1d18:	00000025 	andeq	r0, r0, r5, lsr #32
    1d1c:	000000a7 	andeq	r0, r0, r7, lsr #1
    1d20:	0000a706 	andeq	sl, r0, r6, lsl #14
    1d24:	04080000 	streq	r0, [r8], #-0
    1d28:	000000b4 	strheq	r0, [r0], -r4
    1d2c:	7e080104 	adfvce	f0, f0, f4
    1d30:	09000000 	stmdbeq	r0, {}	; <UNPREDICTABLE>
    1d34:	000000ad 	andeq	r0, r0, sp, lsr #1
    1d38:	0005d407 	andeq	sp, r5, r7, lsl #8
    1d3c:	0e210200 	cdpeq	2, 2, cr0, cr1, cr0, {0}
    1d40:	000000c5 	andeq	r0, r0, r5, asr #1
    1d44:	00980408 	addseq	r0, r8, r8, lsl #8
    1d48:	9f0a0000 	svcls	0x000a0000
    1d4c:	01000002 	tsteq	r0, r2
    1d50:	013b0704 	teqeq	fp, r4, lsl #14
    1d54:	8bb80000 	blhi	fee01d5c <__bss_end__+0xfedf6e84>
    1d58:	00780000 	rsbseq	r0, r8, r0
    1d5c:	9c010000 	stcls	0, cr0, [r1], {-0}
    1d60:	0000013b 	andeq	r0, r0, fp, lsr r1
    1d64:	00705f0b 	rsbseq	r5, r0, fp, lsl #30
    1d68:	3b140401 	blcc	502d74 <__bss_end__+0x4f7e9c>
    1d6c:	01000001 	tsteq	r0, r1
    1d70:	00630c50 	rsbeq	r0, r3, r0, asr ip
    1d74:	251c0401 	ldrcs	r0, [ip, #-1025]	; 0xfffffbff
    1d78:	1e000000 	cdpne	0, 0, cr0, cr0, cr0, {0}
    1d7c:	1a00000b 	bne	1db0 <__code_start__-0x6250>
    1d80:	0c00000b 	stceq	0, cr0, [r0], {11}
    1d84:	0401006e 	streq	r0, [r1], #-110	; 0xffffff92
    1d88:	00002c26 	andeq	r2, r0, r6, lsr #24
    1d8c:	000b4300 	andeq	r4, fp, r0, lsl #6
    1d90:	000b3f00 	andeq	r3, fp, r0, lsl #30
    1d94:	00700d00 	rsbseq	r0, r0, r0, lsl #26
    1d98:	3d0b0501 	cfstr32cc	mvfx0, [fp, #-4]
    1d9c:	72000001 	andvc	r0, r0, #1, 0
    1da0:	6400000b 	strvs	r0, [r0], #-11
    1da4:	0d00000b 	stceq	0, cr0, [r0, #-44]	; 0xffffffd4
    1da8:	05010065 	streq	r0, [r1, #-101]	; 0xffffff9b
    1dac:	00013d14 	andeq	r3, r1, r4, lsl sp
    1db0:	000bcf00 	andeq	ip, fp, r0, lsl #30
    1db4:	000bcd00 	andeq	ip, fp, r0, lsl #26
    1db8:	040e0000 	streq	r0, [lr], #-0
    1dbc:	00ad0408 	adceq	r0, sp, r8, lsl #8
    1dc0:	9d000000 	stcls	0, cr0, [r0, #-0]
    1dc4:	04000001 	streq	r0, [r0], #-1
    1dc8:	0009bd00 	andeq	fp, r9, r0, lsl #26
    1dcc:	b4010400 	strlt	r0, [r1], #-1024	; 0xfffffc00
    1dd0:	0c000004 	stceq	0, cr0, [r0], {4}
    1dd4:	000005b1 			; <UNDEFINED> instruction: 0x000005b1
    1dd8:	0000056c 	andeq	r0, r0, ip, ror #10
    1ddc:	00008c30 	andeq	r8, r0, r0, lsr ip
    1de0:	00000058 	andeq	r0, r0, r8, asr r0
    1de4:	00000d05 	andeq	r0, r0, r5, lsl #26
    1de8:	00059d02 	andeq	r9, r5, r2, lsl #26
    1dec:	1b280200 	blne	a025f4 <__bss_end__+0x9f771c>
    1df0:	00000031 	andeq	r0, r0, r1, lsr r0
    1df4:	0005c103 	andeq	ip, r5, r3, lsl #2
    1df8:	00040400 	andeq	r0, r4, r0, lsl #8
    1dfc:	00000048 	andeq	r0, r0, r8, asr #32
    1e00:	0005ac04 	andeq	sl, r5, r4, lsl #24
    1e04:	00004800 	andeq	r4, r0, r0, lsl #16
    1e08:	05000000 	streq	r0, [r0, #-0]
    1e0c:	05c30204 	strbeq	r0, [r3, #516]	; 0x204
    1e10:	63020000 	movwvs	r0, #8192	; 0x2000
    1e14:	00002518 	andeq	r2, r0, r8, lsl r5
    1e18:	05040600 	streq	r0, [r4, #-1536]	; 0xfffffa00
    1e1c:	00746e69 	rsbseq	r6, r4, r9, ror #28
    1e20:	ea070407 	b	1c2e44 <__bss_end__+0x1b7f6c>
    1e24:	07000000 	streq	r0, [r0, -r0]
    1e28:	00770601 	rsbseq	r0, r7, r1, lsl #12
    1e2c:	02070000 	andeq	r0, r7, #0, 0
    1e30:	00014905 	andeq	r4, r1, r5, lsl #18
    1e34:	05040700 	streq	r0, [r4, #-1792]	; 0xfffff900
    1e38:	0000010e 	andeq	r0, r0, lr, lsl #2
    1e3c:	09050807 	stmdbeq	r5, {r0, r1, r2, fp}
    1e40:	07000001 	streq	r0, [r0, -r1]
    1e44:	00750801 	rsbseq	r0, r5, r1, lsl #16
    1e48:	02070000 	andeq	r0, r7, #0, 0
    1e4c:	00009007 	andeq	r9, r0, r7
    1e50:	07040700 	streq	r0, [r4, -r0, lsl #14]
    1e54:	000000e5 	andeq	r0, r0, r5, ror #1
    1e58:	e0070807 	and	r0, r7, r7, lsl #16
    1e5c:	08000000 	stmdaeq	r0, {}	; <UNPREDICTABLE>
    1e60:	00000056 	andeq	r0, r0, r6, asr r0
    1e64:	000000ab 	andeq	r0, r0, fp, lsr #1
    1e68:	00005609 	andeq	r5, r0, r9, lsl #12
    1e6c:	6f0a0000 	svcvs	0x000a0000
    1e70:	03000001 	movweq	r0, #1
    1e74:	00b70e1c 	adcseq	r0, r7, ip, lsl lr
    1e78:	040b0000 	streq	r0, [fp], #-0
    1e7c:	0000009c 	muleq	r0, ip, r0
    1e80:	00005608 	andeq	r5, r0, r8, lsl #12
    1e84:	0000cc00 	andeq	ip, r0, r0, lsl #24
    1e88:	00cc0900 	sbceq	r0, ip, r0, lsl #18
    1e8c:	0b000000 	bleq	1e94 <__code_start__-0x616c>
    1e90:	0000d904 	andeq	sp, r0, r4, lsl #18
    1e94:	08010700 	stmdaeq	r1, {r8, r9, sl}
    1e98:	0000007e 	andeq	r0, r0, lr, ror r0
    1e9c:	0000d20c 	andeq	sp, r0, ip, lsl #4
    1ea0:	05d40a00 	ldrbeq	r0, [r4, #2560]	; 0xa00
    1ea4:	21030000 	mrscs	r0, (UNDEF: 3)
    1ea8:	0000ea0e 	andeq	lr, r0, lr, lsl #20
    1eac:	bd040b00 	vstrlt	d0, [r4, #-0]
    1eb0:	0d000000 	stceq	0, cr0, [r0, #-0]
    1eb4:	00000596 	muleq	r0, r6, r5
    1eb8:	56050601 	strpl	r0, [r5], -r1, lsl #12
    1ebc:	30000000 	andcc	r0, r0, r0
    1ec0:	5800008c 	stmdapl	r0, {r2, r3, r7}
    1ec4:	01000000 	mrseq	r0, (UNDEF: 0)
    1ec8:	0001839c 	muleq	r1, ip, r3
    1ecc:	6d660e00 	stclvs	14, cr0, [r6, #-0]
    1ed0:	06010074 			; <UNDEFINED> instruction: 0x06010074
    1ed4:	0000cc18 	andeq	ip, r0, r8, lsl ip
    1ed8:	70910200 	addsvc	r0, r1, r0, lsl #4
    1edc:	7562100f 	strbvc	r1, [r2, #-15]!
    1ee0:	08010066 	stmdaeq	r1, {r1, r2, r5, r6}
    1ee4:	00018311 	andeq	r8, r1, r1, lsl r3
    1ee8:	d4030500 	strle	r0, [r3], #-1280	; 0xfffffb00
    1eec:	110000aa 	smlatbne	r0, sl, r0, r0
    1ef0:	0000058e 	andeq	r0, r0, lr, lsl #11
    1ef4:	4a0d0901 	bmi	344300 <__bss_end__+0x339428>
    1ef8:	02000000 	andeq	r0, r0, #0, 0
    1efc:	73125c91 	tstvc	r2, #37120	; 0x9100
    1f00:	0c01007a 	stceq	0, cr0, [r1], {122}	; 0x7a
    1f04:	0000560d 	andeq	r5, r0, sp, lsl #12
    1f08:	000be800 	andeq	lr, fp, r0, lsl #16
    1f0c:	000be200 	andeq	lr, fp, r0, lsl #4
    1f10:	8c581300 	mrrchi	3, 0, r1, r8, cr0
    1f14:	01940000 	orrseq	r0, r4, r0
    1f18:	01760000 	cmneq	r6, r0
    1f1c:	01140000 	tsteq	r4, r0
    1f20:	00750250 	rsbseq	r0, r5, r0, asr r2
    1f24:	03510114 	cmpeq	r1, #5
    1f28:	1404000a 	strne	r0, [r4], #-10
    1f2c:	91035201 	tstls	r3, r1, lsl #4
    1f30:	01140648 	tsteq	r4, r8, asr #12
    1f34:	4c910253 	lfmmi	f0, 4, [r1], {83}	; 0x53
    1f38:	8c6c1500 	cfstr64hi	mvdx1, [ip], #-0
    1f3c:	01140000 	tsteq	r4, r0
    1f40:	00750250 	rsbseq	r0, r5, r0, asr r2
    1f44:	d2160000 	andsle	r0, r6, #0, 0
    1f48:	94000000 	strls	r0, [r0], #-0
    1f4c:	17000001 	strne	r0, [r0, -r1]
    1f50:	0000005d 	andeq	r0, r0, sp, asr r0
    1f54:	180003ff 	stmdane	r0, {r0, r1, r2, r3, r4, r5, r6, r7, r8, r9}
    1f58:	00000593 	muleq	r0, r3, r5
    1f5c:	00000593 	muleq	r0, r3, r5
    1f60:	00050205 	andeq	r0, r5, r5, lsl #4
    1f64:	000000f3 	strdeq	r0, [r0], -r3
    1f68:	0aff0004 	beq	fffc1f80 <__bss_end__+0xfffb70a8>
    1f6c:	01040000 	mrseq	r0, (UNDEF: 4)
    1f70:	000004b4 			; <UNDEFINED> instruction: 0x000004b4
    1f74:	0005d90c 	andeq	sp, r5, ip, lsl #18
    1f78:	00056c00 	andeq	r6, r5, r0, lsl #24
    1f7c:	008c8800 	addeq	r8, ip, r0, lsl #16
    1f80:	00003800 	andeq	r3, r0, r0, lsl #16
    1f84:	000e2900 	andeq	r2, lr, r0, lsl #18
    1f88:	05040200 	streq	r0, [r4, #-512]	; 0xfffffe00
    1f8c:	00746e69 	rsbseq	r6, r4, r9, ror #28
    1f90:	ea070403 	b	1c2fa4 <__bss_end__+0x1b80cc>
    1f94:	03000000 	movweq	r0, #0
    1f98:	00770601 	rsbseq	r0, r7, r1, lsl #12
    1f9c:	02030000 	andeq	r0, r3, #0, 0
    1fa0:	00014905 	andeq	r4, r1, r5, lsl #18
    1fa4:	05040300 	streq	r0, [r4, #-768]	; 0xfffffd00
    1fa8:	0000010e 	andeq	r0, r0, lr, lsl #2
    1fac:	09050803 	stmdbeq	r5, {r0, r1, fp}
    1fb0:	03000001 	movweq	r0, #1
    1fb4:	00750801 	rsbseq	r0, r5, r1, lsl #16
    1fb8:	02030000 	andeq	r0, r3, #0, 0
    1fbc:	00009007 	andeq	r9, r0, r7
    1fc0:	07040300 	streq	r0, [r4, -r0, lsl #6]
    1fc4:	000000e5 	andeq	r0, r0, r5, ror #1
    1fc8:	e0070803 	and	r0, r7, r3, lsl #16
    1fcc:	04000000 	streq	r0, [r0], #-0
    1fd0:	00000025 	andeq	r0, r0, r5, lsr #32
    1fd4:	0000007a 	andeq	r0, r0, sl, ror r0
    1fd8:	00002505 	andeq	r2, r0, r5, lsl #10
    1fdc:	6f060000 	svcvs	0x00060000
    1fe0:	02000001 	andeq	r0, r0, #1, 0
    1fe4:	00860e1c 	addeq	r0, r6, ip, lsl lr
    1fe8:	04070000 	streq	r0, [r7], #-0
    1fec:	0000006b 	andeq	r0, r0, fp, rrx
    1ff0:	00002504 	andeq	r2, r0, r4, lsl #10
    1ff4:	00009b00 	andeq	r9, r0, r0, lsl #22
    1ff8:	009b0500 	addseq	r0, fp, r0, lsl #10
    1ffc:	07000000 	streq	r0, [r0, -r0]
    2000:	0000a804 	andeq	sl, r0, r4, lsl #16
    2004:	08010300 	stmdaeq	r1, {r8, r9}
    2008:	0000007e 	andeq	r0, r0, lr, ror r0
    200c:	0000a108 	andeq	sl, r0, r8, lsl #2
    2010:	05d40600 	ldrbeq	r0, [r4, #1536]	; 0x600
    2014:	21020000 	mrscs	r0, (UNDEF: 2)
    2018:	0000b90e 	andeq	fp, r0, lr, lsl #18
    201c:	8c040700 	stchi	7, cr0, [r4], {-0}
    2020:	09000000 	stmdbeq	r0, {}	; <UNPREDICTABLE>
    2024:	000000ad 	andeq	r0, r0, sp, lsr #1
    2028:	05070c01 	streq	r0, [r7, #-3073]	; 0xfffff3ff
    202c:	00aa9c03 	adceq	r9, sl, r3, lsl #24
    2030:	05cb0a00 	strbeq	r0, [fp, #2560]	; 0xa00
    2034:	04010000 	streq	r0, [r1], #-0
    2038:	00002505 	andeq	r2, r0, r5, lsl #10
    203c:	008c8800 	addeq	r8, ip, r0, lsl #16
    2040:	00003800 	andeq	r3, r0, r0, lsl #16
    2044:	0b9c0100 	bleq	fe70244c <__bss_end__+0xfe6f7574>
    2048:	04010070 	streq	r0, [r1], #-112	; 0xffffff90
    204c:	00009b1f 	andeq	r9, r0, pc, lsl fp
    2050:	000c1900 	andeq	r1, ip, r0, lsl #18
    2054:	000c1100 	andeq	r1, ip, r0, lsl #2
    2058:	7f000000 	svcvc	0x00000000
    205c:	0400000c 	streq	r0, [r0], #-12
    2060:	000b9d00 	andeq	r9, fp, r0, lsl #26
    2064:	b4010400 	strlt	r0, [r1], #-1024	; 0xfffffc00
    2068:	0c000004 	stceq	0, cr0, [r0], {4}
    206c:	000005f8 	strdeq	r0, [r0], -r8
    2070:	0000056c 	andeq	r0, r0, ip, ror #10
    2074:	00008cc0 	andeq	r8, r0, r0, asr #25
    2078:	000009b4 			; <UNDEFINED> instruction: 0x000009b4
    207c:	00000ecd 	andeq	r0, r0, sp, asr #29
    2080:	e0070802 	and	r0, r7, r2, lsl #16
    2084:	02000000 	andeq	r0, r0, #0, 0
    2088:	00ea0704 	rsceq	r0, sl, r4, lsl #14
    208c:	04030000 	streq	r0, [r3], #-0
    2090:	746e6905 	strbtvc	r6, [lr], #-2309	; 0xfffff6fb
    2094:	06010200 	streq	r0, [r1], -r0, lsl #4
    2098:	00000077 	andeq	r0, r0, r7, ror r0
    209c:	49050202 	stmdbmi	r5, {r1, r9}
    20a0:	02000001 	andeq	r0, r0, #1, 0
    20a4:	010e0504 	tsteq	lr, r4, lsl #10
    20a8:	08020000 	stmdaeq	r2, {}	; <UNPREDICTABLE>
    20ac:	00010905 	andeq	r0, r1, r5, lsl #18
    20b0:	08010200 	stmdaeq	r1, {r9}
    20b4:	00000075 	andeq	r0, r0, r5, ror r0
    20b8:	90070202 	andls	r0, r7, r2, lsl #4
    20bc:	04000000 	streq	r0, [r0], #-0
    20c0:	00000166 	andeq	r0, r0, r6, ror #2
    20c4:	70193402 	andsvc	r3, r9, r2, lsl #8
    20c8:	02000000 	andeq	r0, r0, #0, 0
    20cc:	00e50704 	rsceq	r0, r5, r4, lsl #14
    20d0:	ef040000 	svc	0x00040000
    20d4:	02000005 	andeq	r0, r0, #5, 0
    20d8:	00251937 	eoreq	r1, r5, r7, lsr r9
    20dc:	33050000 	movwcc	r0, #20480	; 0x5000
    20e0:	92000000 	andls	r0, r0, #0, 0
    20e4:	06000000 	streq	r0, [r0], -r0
    20e8:	00000033 	andeq	r0, r0, r3, lsr r0
    20ec:	016f0700 	cmneq	pc, r0, lsl #14
    20f0:	1c030000 	stcne	0, cr0, [r3], {-0}
    20f4:	00009e0e 	andeq	r9, r0, lr, lsl #28
    20f8:	83040800 	movwhi	r0, #18432	; 0x4800
    20fc:	05000000 	streq	r0, [r0, #-0]
    2100:	00000033 	andeq	r0, r0, r3, lsr r0
    2104:	000000b3 	strheq	r0, [r0], -r3
    2108:	0000b306 	andeq	fp, r0, r6, lsl #6
    210c:	04080000 	streq	r0, [r8], #-0
    2110:	000000c0 	andeq	r0, r0, r0, asr #1
    2114:	7e080102 	adfvce	f0, f0, f2
    2118:	09000000 	stmdbeq	r0, {}	; <UNPREDICTABLE>
    211c:	000000b9 	strheq	r0, [r0], -r9
    2120:	0005d407 	andeq	sp, r5, r7, lsl #8
    2124:	0e210300 	cdpeq	3, 2, cr0, cr1, cr0, {0}
    2128:	000000d1 	ldrdeq	r0, [r0], -r1
    212c:	00a40408 	adceq	r0, r4, r8, lsl #8
    2130:	0b070000 	bleq	1c2138 <__bss_end__+0x1b7260>
    2134:	04000006 	streq	r0, [r0], #-6
    2138:	00b90d0b 	adcseq	r0, r9, fp, lsl #26
    213c:	64070000 	strvs	r0, [r7], #-0
    2140:	04000006 	streq	r0, [r0], #-6
    2144:	00b90d0c 	adcseq	r0, r9, ip, lsl #26
    2148:	87070000 	strhi	r0, [r7, -r0]
    214c:	04000003 	streq	r0, [r0], #-3
    2150:	00b90d0d 	adcseq	r0, r9, sp, lsl #26
    2154:	39070000 	stmdbcc	r7, {}	; <UNPREDICTABLE>
    2158:	04000004 	streq	r0, [r0], #-4
    215c:	00b90d0e 	adcseq	r0, r9, lr, lsl #26
    2160:	6f070000 	svcvs	0x00070000
    2164:	04000004 	streq	r0, [r0], #-4
    2168:	00b90d0f 	adcseq	r0, r9, pc, lsl #26
    216c:	e8070000 	stmda	r7, {}	; <UNPREDICTABLE>
    2170:	04000003 	streq	r0, [r0], #-3
    2174:	00b90d10 	adcseq	r0, r9, r0, lsl sp
    2178:	8d070000 	stchi	0, cr0, [r7, #-0]
    217c:	04000006 	streq	r0, [r0], #-6
    2180:	00b90d11 	adcseq	r0, r9, r1, lsl sp
    2184:	28070000 	stmdacs	r7, {}	; <UNPREDICTABLE>
    2188:	04000006 	streq	r0, [r0], #-6
    218c:	00b90d12 	adcseq	r0, r9, r2, lsl sp
    2190:	9d040000 	stcls	0, cr0, [r4, #-0]
    2194:	05000005 	streq	r0, [r0, #-5]
    2198:	01431b28 	cmpeq	r3, r8, lsr #22
    219c:	c10a0000 	mrsgt	r0, (UNDEF: 10)
    21a0:	04000005 	streq	r0, [r0], #-5
    21a4:	015a0006 	cmpeq	sl, r6
    21a8:	ac0b0000 	stcge	0, cr0, [fp], {-0}
    21ac:	5a000005 	bpl	21c8 <__code_start__-0x5e38>
    21b0:	00000001 	andeq	r0, r0, r1
    21b4:	04040c00 	streq	r0, [r4], #-3072	; 0xfffff400
    21b8:	000005c3 	andeq	r0, r0, r3, asr #11
    21bc:	37186305 	ldrcc	r6, [r8, -r5, lsl #6]
    21c0:	0d000001 	stceq	0, cr0, [r0, #-4]
    21c4:	00000593 	muleq	r0, r3, r5
    21c8:	33058101 	movwcc	r8, #20737	; 0x5101
    21cc:	48000000 	stmdami	r0, {}	; <UNPREDICTABLE>
    21d0:	2c000090 	stccs	0, cr0, [r0], {144}	; 0x90
    21d4:	01000006 	tsteq	r0, r6
    21d8:	00086a9c 	muleq	r8, ip, sl
    21dc:	75620e00 	strbvc	r0, [r2, #-3584]!	; 0xfffff200
    21e0:	81010066 	tsthi	r1, r6, rrx
    21e4:	00086a15 	andeq	r6, r8, r5, lsl sl
    21e8:	000c5900 	andeq	r5, ip, r0, lsl #18
    21ec:	000c4f00 	andeq	r4, ip, r0, lsl #30
    21f0:	006e0e00 	rsbeq	r0, lr, r0, lsl #28
    21f4:	331e8101 	tstcc	lr, #1073741824	; 0x40000000
    21f8:	a6000000 	strge	r0, [r0], -r0
    21fc:	9e00000c 	cdpls	0, 0, cr0, cr0, cr12, {0}
    2200:	0e00000c 	cdpeq	0, 0, cr0, cr0, cr12, {0}
    2204:	00746d66 	rsbseq	r6, r4, r6, ror #26
    2208:	b32d8101 			; <UNDEFINED> instruction: 0xb32d8101
    220c:	f8000000 			; <UNDEFINED> instruction: 0xf8000000
    2210:	e000000c 	and	r0, r0, ip
    2214:	0f00000c 	svceq	0x0000000c
    2218:	0000058e 	andeq	r0, r0, lr, lsl #11
    221c:	5c3a8101 	ldfpld	f0, [sl], #-4
    2220:	ba000001 	blt	222c <__code_start__-0x5dd4>
    2224:	8c00000d 	stchi	0, cr0, [r0], {13}
    2228:	1000000d 	andne	r0, r0, sp
    222c:	82010070 	andhi	r0, r1, #112, 0	; 0x70
    2230:	00086a08 	andeq	r6, r8, r8, lsl #20
    2234:	000f0d00 	andeq	r0, pc, r0, lsl #26
    2238:	000ef700 	andeq	pc, lr, r0, lsl #14
    223c:	00651000 	rsbeq	r1, r5, r0
    2240:	6a128201 	bvs	4a2a4c <__bss_end__+0x497b74>
    2244:	96000008 	strls	r0, [r0], -r8
    2248:	9400000f 	strls	r0, [r0], #-15
    224c:	1000000f 	andne	r0, r0, pc
    2250:	01003078 	tsteq	r0, r8, ror r0
    2254:	00640e83 	rsbeq	r0, r4, r3, lsl #29
    2258:	0faf0000 	svceq	0x00af0000
    225c:	0fa90000 	svceq	0x00a90000
    2260:	78100000 	ldmdavc	r0, {}	; <UNPREDICTABLE>
    2264:	83010031 	movwhi	r0, #4145	; 0x1031
    2268:	00006411 	andeq	r6, r0, r1, lsl r4
    226c:	000fde00 	andeq	sp, pc, r0, lsl #28
    2270:	000fd800 	andeq	sp, pc, r0, lsl #16
    2274:	06461100 	strbeq	r1, [r6], -r0, lsl #2
    2278:	86010000 	strhi	r0, [r1], -r0
    227c:	0000b311 	andeq	fp, r0, r1, lsl r3
    2280:	00100f00 	andseq	r0, r0, r0, lsl #30
    2284:	00100700 	andseq	r0, r0, r0, lsl #14
    2288:	00c41200 	sbceq	r1, r4, r0, lsl #4
    228c:	08800000 	stmeq	r0, {}	; <UNPREDICTABLE>
    2290:	03050000 	movweq	r0, #20480	; 0x5000
    2294:	0000a888 	andeq	sl, r0, r8, lsl #17
    2298:	0000c813 	andeq	ip, r0, r3, lsl r8
    229c:	00731000 	rsbseq	r1, r3, r0
    22a0:	6a0a9101 	bvs	2a66ac <__bss_end__+0x29b7d4>
    22a4:	55000008 	strpl	r0, [r0, #-8]
    22a8:	49000010 	stmdbmi	r0, {r4}
    22ac:	14000010 	strne	r0, [r0], #-16
    22b0:	006d756e 	rsbeq	r7, sp, lr, ror #10
    22b4:	850d9101 	strhi	r9, [sp, #-257]	; 0xfffffeff
    22b8:	03000008 	movweq	r0, #8
    22bc:	157dd891 	ldrbne	sp, [sp, #-2193]!	; 0xfffff76f
    22c0:	0000069a 	muleq	r0, sl, r6
    22c4:	85179101 	ldrhi	r9, [r7, #-257]	; 0xfffffeff
    22c8:	03000008 	movweq	r0, #8
    22cc:	117ed891 			; <UNDEFINED> instruction: 0x117ed891
    22d0:	0000061a 	andeq	r0, r0, sl, lsl r6
    22d4:	2c0d9201 	sfmcs	f1, 1, [sp], {1}
    22d8:	a7000000 	strge	r0, [r0, -r0]
    22dc:	9f000010 	svcls	0x00000010
    22e0:	16000010 			; <UNDEFINED> instruction: 0x16000010
    22e4:	000000f0 	strdeq	r0, [r0], -r0	; <UNPREDICTABLE>
    22e8:	000004f1 	strdeq	r0, [r0], -r1
    22ec:	00797410 	rsbseq	r7, r9, r0, lsl r4
    22f0:	b31d9e01 	tstlt	sp, #1, 28
    22f4:	e8000000 	stmda	r0, {}	; <UNPREDICTABLE>
    22f8:	dc000010 	stcle	0, cr0, [r0], {16}
    22fc:	14000010 	strne	r0, [r0], #-16
    2300:	01007878 	tsteq	r0, r8, ror r8
    2304:	00771aa2 	rsbseq	r1, r7, r2, lsr #21
    2308:	59060000 	stmdbpl	r6, {}	; <UNPREDICTABLE>
    230c:	935b0493 	cmpls	fp, #-1828716544	; 0x93000000
    2310:	91d41704 	bicsls	r1, r4, r4, lsl #14
    2314:	0c3a0000 	ldceq	0, cr0, [sl], #-0
    2318:	02d80000 	sbcseq	r0, r8, #0, 0
    231c:	01180000 	tsteq	r8, r0
    2320:	00760250 	rsbseq	r0, r6, r0, asr r2
    2324:	05510118 	ldrbeq	r0, [r1, #-280]	; 0xfffffee8
    2328:	00a77c03 	adceq	r7, r7, r3, lsl #24
    232c:	52011800 	andpl	r1, r1, #0, 16
    2330:	17003301 	strne	r3, [r0, -r1, lsl #6]
    2334:	000091ec 	andeq	r9, r0, ip, ror #3
    2338:	00000c3a 	andeq	r0, r0, sl, lsr ip
    233c:	000002fa 	strdeq	r0, [r0], -sl
    2340:	02500118 	subseq	r0, r0, #6
    2344:	01180076 	tsteq	r8, r6, ror r0
    2348:	90030551 	andls	r0, r3, r1, asr r5
    234c:	180000a7 	stmdane	r0, {r0, r1, r2, r5, r7}
    2350:	33015201 	movwcc	r5, #4609	; 0x1201
    2354:	92101700 	andsls	r1, r0, #0, 14
    2358:	0c460000 	mareq	acc0, r0, r6
    235c:	03170000 	tsteq	r7, #0, 0
    2360:	01180000 	tsteq	r8, r0
    2364:	80030550 	andhi	r0, r3, r0, asr r5
    2368:	180000a7 	stmdane	r0, {r0, r1, r2, r5, r7}
    236c:	7b025101 	blvc	96778 <__bss_end__+0x8b8a0>
    2370:	1c170000 	ldcne	0, cr0, [r7], {-0}
    2374:	46000092 			; <UNDEFINED> instruction: 0x46000092
    2378:	3400000c 	strcc	r0, [r0], #-12
    237c:	18000003 	stmdane	r0, {r0, r1}
    2380:	03055001 	movweq	r5, #20481	; 0x5001
    2384:	0000a788 	andeq	sl, r0, r8, lsl #15
    2388:	02510118 	subseq	r0, r1, #6
    238c:	17000079 	smlsdxne	r0, r9, r0, r0
    2390:	0000922c 	andeq	r9, r0, ip, lsr #4
    2394:	00000c3a 	andeq	r0, r0, sl, lsr ip
    2398:	00000356 	andeq	r0, r0, r6, asr r3
    239c:	02500118 	subseq	r0, r0, #6
    23a0:	01180076 	tsteq	r8, r6, ror r0
    23a4:	7c030551 	cfstr32vc	mvfx0, [r3], {81}	; 0x51
    23a8:	180000a7 	stmdane	r0, {r0, r1, r2, r5, r7}
    23ac:	33015201 	movwcc	r5, #4609	; 0x1201
    23b0:	925c1700 	subsls	r1, ip, #0, 14
    23b4:	0aa40000 	beq	fe9023bc <__bss_end__+0xfe8f74e4>
    23b8:	03830000 	orreq	r0, r3, #0, 0
    23bc:	01180000 	tsteq	r8, r0
    23c0:	18400150 	stmdane	r0, {r4, r6, r8}^
    23c4:	91035101 	tstls	r3, r1, lsl #2
    23c8:	01187dd0 			; <UNDEFINED> instruction: 0x01187dd0
    23cc:	007b0252 	rsbseq	r0, fp, r2, asr r2
    23d0:	02530118 	subseq	r0, r3, #6
    23d4:	02180075 	andseq	r0, r8, #117, 0	; 0x75
    23d8:	7602007d 			; <UNDEFINED> instruction: 0x7602007d
    23dc:	7c170000 	ldcvc	0, cr0, [r7], {-0}
    23e0:	a4000092 	strge	r0, [r0], #-146	; 0xffffff6e
    23e4:	aa00000a 	bge	2414 <__code_start__-0x5bec>
    23e8:	18000003 	stmdane	r0, {r0, r1}
    23ec:	40015001 	andmi	r5, r1, r1
    23f0:	03510118 	cmpeq	r1, #6
    23f4:	187ed091 	ldmdane	lr!, {r0, r4, r7, ip, lr, pc}^
    23f8:	79025201 	stmdbvc	r2, {r0, r9, ip, lr}
    23fc:	7d021800 	stcvc	8, cr1, [r2, #-0]
    2400:	00760200 	rsbseq	r0, r6, r0, lsl #4
    2404:	928c1700 	addls	r1, ip, #0, 14
    2408:	0c520000 	mraeq	r0, r2, acc0
    240c:	03c60000 	biceq	r0, r6, #0, 0
    2410:	01180000 	tsteq	r8, r0
    2414:	d0910350 	addsle	r0, r1, r0, asr r3
    2418:	5101187d 	tstpl	r1, sp, ror r8
    241c:	7ed29103 	atnvcs	f1, f3
    2420:	94d01700 	ldrbls	r1, [r0], #1792	; 0x700
    2424:	0c3a0000 	ldceq	0, cr0, [sl], #-0
    2428:	03e80000 	mvneq	r0, #0, 0
    242c:	01180000 	tsteq	r8, r0
    2430:	00760250 	rsbseq	r0, r6, r0, asr r2
    2434:	05510118 	ldrbeq	r0, [r1, #-280]	; 0xfffffee8
    2438:	00a79003 	adceq	r9, r7, r3
    243c:	52011800 	andpl	r1, r1, #0, 16
    2440:	17003301 	strne	r3, [r0, -r1, lsl #6]
    2444:	000094f4 	strdeq	r9, [r0], -r4
    2448:	00000aa4 	andeq	r0, r0, r4, lsr #21
    244c:	00000415 	andeq	r0, r0, r5, lsl r4
    2450:	01500118 	cmpeq	r0, r8, lsl r1
    2454:	5101183a 	tstpl	r1, sl, lsr r8
    2458:	7dd09103 	ldfvcp	f1, [r0, #12]
    245c:	02520118 	subseq	r0, r2, #6
    2460:	0118007b 	tsteq	r8, fp, ror r0
    2464:	00750253 	rsbseq	r0, r5, r3, asr r2
    2468:	007d0218 	rsbseq	r0, sp, r8, lsl r2
    246c:	00007602 	andeq	r7, r0, r2, lsl #12
    2470:	00951417 	addseq	r1, r5, r7, lsl r4
    2474:	000aa400 	andeq	sl, sl, r0, lsl #8
    2478:	00043c00 	andeq	r3, r4, r0, lsl #24
    247c:	50011800 	andpl	r1, r1, r0, lsl #16
    2480:	01183a01 	tsteq	r8, r1, lsl #20
    2484:	d0910351 	addsle	r0, r1, r1, asr r3
    2488:	5201187e 	andpl	r1, r1, #8257536	; 0x7e0000
    248c:	18007902 	stmdane	r0, {r1, r8, fp, ip, sp, lr}
    2490:	02007d02 	andeq	r7, r0, #128	; 0x80
    2494:	17000076 	smlsdxne	r0, r6, r0, r0
    2498:	00009520 	andeq	r9, r0, r0, lsr #10
    249c:	00000c5e 	andeq	r0, r0, lr, asr ip
    24a0:	0000045a 	andeq	r0, r0, sl, asr r4
    24a4:	03500118 	cmpeq	r0, #6
    24a8:	187dd091 	ldmdane	sp!, {r0, r4, r7, ip, lr, pc}^
    24ac:	03055101 	movweq	r5, #20737	; 0x5101
    24b0:	0000a5f4 	strdeq	sl, [r0], -r4
    24b4:	95341700 	ldrls	r1, [r4, #-1792]!	; 0xfffff900
    24b8:	0c6a0000 	stcleq	0, cr0, [sl], #-0
    24bc:	04760000 	ldrbteq	r0, [r6], #-0
    24c0:	01180000 	tsteq	r8, r0
    24c4:	d0910350 	addsle	r0, r1, r0, asr r3
    24c8:	5101187d 	tstpl	r1, sp, ror r8
    24cc:	7ed09103 	atnvcs	f1, f3
    24d0:	95401900 	strbls	r1, [r0, #-2304]	; 0xfffff700
    24d4:	0c520000 	mraeq	r0, r2, acc0
    24d8:	04170000 	ldreq	r0, [r7], #-0
    24dc:	46000096 			; <UNDEFINED> instruction: 0x46000096
    24e0:	a800000c 	stmdage	r0, {r2, r3}
    24e4:	18000004 	stmdane	r0, {r2}
    24e8:	03055001 	movweq	r5, #20481	; 0x5001
    24ec:	0000a2ac 	andeq	sl, r0, ip, lsr #5
    24f0:	05510118 	ldrbeq	r0, [r1, #-280]	; 0xfffffee8
    24f4:	00a73003 	adceq	r3, r7, r3
    24f8:	52011800 	andpl	r1, r1, #0, 16
    24fc:	a8880305 	stmge	r8, {r0, r2, r8, r9}
    2500:	19000000 	stmdbne	r0, {}	; <UNPREDICTABLE>
    2504:	00009608 	andeq	r9, r0, r8, lsl #12
    2508:	00000c76 	andeq	r0, r0, r6, ror ip
    250c:	00962017 	addseq	r2, r6, r7, lsl r0
    2510:	000c4600 	andeq	r4, ip, r0, lsl #12
    2514:	0004e700 	andeq	lr, r4, r0, lsl #14
    2518:	50011800 	andpl	r1, r1, r0, lsl #16
    251c:	a7d00305 	ldrbge	r0, [r0, r5, lsl #6]
    2520:	01180000 	tsteq	r8, r0
    2524:	30030551 	andcc	r0, r3, r1, asr r5
    2528:	180000a7 	stmdane	r0, {r0, r1, r2, r5, r7}
    252c:	03055201 	movweq	r5, #20993	; 0x5201
    2530:	0000a888 	andeq	sl, r0, r8, lsl #17
    2534:	02530118 	subseq	r0, r3, #6
    2538:	0218b608 	andseq	fp, r8, #8, 12	; 0x800000
    253c:	7602007d 			; <UNDEFINED> instruction: 0x7602007d
    2540:	24190000 	ldrcs	r0, [r9], #-0
    2544:	76000096 			; <UNDEFINED> instruction: 0x76000096
    2548:	0000000c 	andeq	r0, r0, ip
    254c:	0009e31a 	andeq	lr, r9, sl, lsl r3
    2550:	0090d400 	addseq	sp, r0, r0, lsl #8
    2554:	18000400 	stmdane	r0, {sl}
    2558:	01000001 	tsteq	r0, r1
    255c:	05150a94 	ldreq	r0, [r5, #-2708]	; 0xfffff56c
    2560:	f41b0000 			; <UNDEFINED> instruction: 0xf41b0000
    2564:	44000009 	strmi	r0, [r0], #-9
    2568:	40000011 	andmi	r0, r0, r1, lsl r0
    256c:	00000011 	andeq	r0, r0, r1, lsl r0
    2570:	0008951a 	andeq	r9, r8, sl, lsl r5
    2574:	0092bc00 	addseq	fp, r2, r0, lsl #24
    2578:	38000100 	stmdacc	r0, {r8}
    257c:	01000001 	tsteq	r0, r1
    2580:	064b09dc 			; <UNDEFINED> instruction: 0x064b09dc
    2584:	be1b0000 	cdplt	0, 1, cr0, cr11, cr0, {0}
    2588:	72000008 	andvc	r0, r0, #8, 0
    258c:	6c000011 	stcvs	0, cr0, [r0], {17}
    2590:	1b000011 	blne	25dc <__code_start__-0x5a24>
    2594:	000008e0 	andeq	r0, r0, r0, ror #17
    2598:	000011a7 	andeq	r1, r0, r7, lsr #3
    259c:	000011a1 	andeq	r1, r0, r1, lsr #3
    25a0:	0008d41b 	andeq	sp, r8, fp, lsl r4
    25a4:	0011d900 	andseq	sp, r1, r0, lsl #18
    25a8:	0011d300 	andseq	sp, r1, r0, lsl #6
    25ac:	08c81c00 	stmiaeq	r8, {sl, fp, ip}^
    25b0:	b21b0000 	andslt	r0, fp, #0, 0
    25b4:	0a000008 	beq	25dc <__code_start__-0x5a24>
    25b8:	02000012 	andeq	r0, r0, #18, 0
    25bc:	1b000012 	blne	260c <__code_start__-0x59f4>
    25c0:	000008a6 	andeq	r0, r0, r6, lsr #17
    25c4:	0000124d 	andeq	r1, r0, sp, asr #4
    25c8:	00001247 	andeq	r1, r0, r7, asr #4
    25cc:	00013813 	andeq	r3, r1, r3, lsl r8
    25d0:	08ec1d00 	stmiaeq	ip!, {r8, sl, fp, ip}^
    25d4:	91030000 	mrsls	r0, (UNDEF: 3)
    25d8:	f81e7ed8 			; <UNDEFINED> instruction: 0xf81e7ed8
    25dc:	87000008 	strhi	r0, [r0, -r8]
    25e0:	79000012 	stmdbvc	r0, {r1, r4}
    25e4:	1f000012 	svcne	0x00000012
    25e8:	00000902 	andeq	r0, r0, r2, lsl #18
    25ec:	0009a31a 	andeq	sl, r9, sl, lsl r3
    25f0:	0092c800 	addseq	ip, r2, r0, lsl #16
    25f4:	68000400 	stmdavs	r0, {sl}
    25f8:	01000001 	tsteq	r0, r1
    25fc:	05e2097c 	strbeq	r0, [r2, #2428]!	; 0x97c
    2600:	ca1b0000 	bgt	6c2608 <__bss_end__+0x6b7730>
    2604:	f1000009 	cps	#9
    2608:	eb000012 	bl	2658 <__code_start__-0x59a8>
    260c:	1b000012 	blne	265c <__code_start__-0x59a4>
    2610:	000009be 			; <UNDEFINED> instruction: 0x000009be
    2614:	00001326 	andeq	r1, r0, r6, lsr #6
    2618:	0000131a 	andeq	r1, r0, sl, lsl r3
    261c:	0009b41b 	andeq	fp, r9, fp, lsl r4
    2620:	00138c00 	andseq	r8, r3, r0, lsl #24
    2624:	00137c00 	andseq	r7, r3, r0, lsl #24
    2628:	01681300 	cmneq	r8, r0, lsl #6
    262c:	d61e0000 	ldrle	r0, [lr], -r0
    2630:	09000009 	stmdbeq	r0, {r0, r3}
    2634:	fb000014 	blx	268e <__code_start__-0x5972>
    2638:	00000013 	andeq	r0, r0, r3, lsl r0
    263c:	094f2000 	stmdbeq	pc, {sp}^	; <UNPREDICTABLE>
    2640:	93900000 	orrsls	r0, r0, #0, 0
    2644:	00020000 	andeq	r0, r2, r0
    2648:	00000198 	muleq	r0, r8, r1
    264c:	1b097c01 	blne	261658 <__bss_end__+0x256780>
    2650:	00000980 	andeq	r0, r0, r0, lsl #19
    2654:	00001469 	andeq	r1, r0, r9, ror #8
    2658:	00001463 	andeq	r1, r0, r3, ror #8
    265c:	0009761b 	andeq	r7, r9, fp, lsl r6
    2660:	00149f00 	andseq	r9, r4, r0, lsl #30
    2664:	00149500 	andseq	r9, r4, r0, lsl #10
    2668:	096c1b00 	stmdbeq	ip!, {r8, r9, fp, ip}^
    266c:	14ee0000 	strbtne	r0, [lr], #0
    2670:	14ea0000 	strbtne	r0, [sl], #0
    2674:	601b0000 	andsvs	r0, fp, r0
    2678:	1e000009 	cdpne	0, 0, cr0, cr0, cr9, {0}
    267c:	10000015 	andne	r0, r0, r5, lsl r0
    2680:	13000015 	movwne	r0, #21
    2684:	00000198 	muleq	r0, r8, r1
    2688:	00098c1e 	andeq	r8, r9, lr, lsl ip
    268c:	00158300 	andseq	r8, r5, r0, lsl #6
    2690:	00158100 	andseq	r8, r5, r0, lsl #2
    2694:	09981e00 	ldmibeq	r8, {r9, sl, fp, ip}
    2698:	159d0000 	ldrne	r0, [sp]
    269c:	15970000 	ldrne	r0, [r7]
    26a0:	00000000 	andeq	r0, r0, r0
    26a4:	951a0000 	ldrls	r0, [sl, #-0]
    26a8:	cc000008 	stcgt	0, cr0, [r0], {8}
    26ac:	00000093 	muleq	r0, r3, r0
    26b0:	0001c800 	andeq	ip, r1, r0, lsl #16
    26b4:	09d60100 	ldmibeq	r6, {r8}^
    26b8:	00000789 	andeq	r0, r0, r9, lsl #15
    26bc:	0008be1b 	andeq	fp, r8, fp, lsl lr
    26c0:	0015d000 	andseq	sp, r5, r0
    26c4:	0015cc00 	andseq	ip, r5, r0, lsl #24
    26c8:	08e01b00 	stmiaeq	r0!, {r8, r9, fp, ip}^
    26cc:	15f60000 	ldrbne	r0, [r6, #0]!
    26d0:	15f20000 	ldrbne	r0, [r2, #0]!
    26d4:	d41b0000 	ldrle	r0, [fp], #-0
    26d8:	1a000008 	bne	2700 <__code_start__-0x5900>
    26dc:	16000016 			; <UNDEFINED> instruction: 0x16000016
    26e0:	1c000016 	stcne	0, cr0, [r0], {22}
    26e4:	000008c8 	andeq	r0, r0, r8, asr #17
    26e8:	0008b21b 	andeq	fp, r8, fp, lsl r2
    26ec:	00163e00 	andseq	r3, r6, r0, lsl #28
    26f0:	00163800 	andseq	r3, r6, r0, lsl #16
    26f4:	08a61b00 	stmiaeq	r6!, {r8, r9, fp, ip}
    26f8:	16710000 	ldrbtne	r0, [r1], -r0
    26fc:	166d0000 	strbtne	r0, [sp], -r0
    2700:	c8130000 	ldmdagt	r3, {}	; <UNPREDICTABLE>
    2704:	1d000001 	stcne	0, cr0, [r0, #-4]
    2708:	000008ec 	andeq	r0, r0, ip, ror #17
    270c:	7ed89103 	atnvce	f1, f3
    2710:	0008f81e 	andeq	pc, r8, lr, lsl r8	; <UNPREDICTABLE>
    2714:	00169b00 	andseq	r9, r6, r0, lsl #22
    2718:	00169100 	andseq	r9, r6, r0, lsl #2
    271c:	09021e00 	stmdbeq	r2, {r9, sl, fp, ip}
    2720:	16e00000 	strbtne	r0, [r0], r0
    2724:	16dc0000 	ldrbne	r0, [ip], r0
    2728:	a31a0000 	tstge	sl, #0, 0
    272c:	e8000009 	stmda	r0, {r0, r3}
    2730:	03000093 	movweq	r0, #147	; 0x93
    2734:	0001e800 	andeq	lr, r1, r0, lsl #16
    2738:	097c0100 	ldmdbeq	ip!, {r8}^
    273c:	00000720 	andeq	r0, r0, r0, lsr #14
    2740:	0009ca1b 	andeq	ip, r9, fp, lsl sl
    2744:	00170200 	andseq	r0, r7, r0, lsl #4
    2748:	0016fe00 	andseq	pc, r6, r0, lsl #28
    274c:	09be1b00 	ldmibeq	lr!, {r8, r9, fp, ip}
    2750:	17240000 	strne	r0, [r4, -r0]!
    2754:	17200000 	strne	r0, [r0, -r0]!
    2758:	b41b0000 	ldrlt	r0, [fp], #-0
    275c:	4e000009 	cdpmi	0, 0, cr0, cr0, cr9, {0}
    2760:	42000017 	andmi	r0, r0, #23, 0
    2764:	13000017 	movwne	r0, #23
    2768:	000001e8 	andeq	r0, r0, r8, ror #3
    276c:	0009d61e 	andeq	sp, r9, lr, lsl r6
    2770:	0017aa00 	andseq	sl, r7, r0, lsl #20
    2774:	00179e00 	andseq	r9, r7, r0, lsl #28
    2778:	20000000 	andcs	r0, r0, r0
    277c:	0000094f 	andeq	r0, r0, pc, asr #18
    2780:	00009470 	andeq	r9, r0, r0, ror r4
    2784:	02100002 	andseq	r0, r0, #2, 0
    2788:	7c010000 	stcvc	0, cr0, [r1], {-0}
    278c:	09801b09 	stmibeq	r0, {r0, r3, r8, r9, fp, ip}
    2790:	17fa0000 	ldrbne	r0, [sl, r0]!
    2794:	17f60000 	ldrbne	r0, [r6, r0]!
    2798:	761b0000 	ldrvc	r0, [fp], -r0
    279c:	22000009 	andcs	r0, r0, #9, 0
    27a0:	18000018 	stmdane	r0, {r3, r4}
    27a4:	1b000018 	blne	280c <__code_start__-0x57f4>
    27a8:	0000096c 	andeq	r0, r0, ip, ror #18
    27ac:	0000186e 	andeq	r1, r0, lr, ror #16
    27b0:	0000186a 	andeq	r1, r0, sl, ror #16
    27b4:	0009601b 	andeq	r6, r9, fp, lsl r0
    27b8:	00189c00 	andseq	r9, r8, r0, lsl #24
    27bc:	00189000 	andseq	r9, r8, r0
    27c0:	02101300 	andseq	r1, r0, #0, 6
    27c4:	8c1e0000 	ldchi	0, cr0, [lr], {-0}
    27c8:	f6000009 			; <UNDEFINED> instruction: 0xf6000009
    27cc:	f2000018 	vqadd.s8	d0, d0, d8
    27d0:	1e000018 	mcrne	0, 0, r0, cr0, cr8, {0}
    27d4:	00000998 	muleq	r0, r8, r9
    27d8:	0000191c 	andeq	r1, r0, ip, lsl r9
    27dc:	00001918 	andeq	r1, r0, r8, lsl r9
    27e0:	00000000 	andeq	r0, r0, r0
    27e4:	00919c17 	addseq	r9, r1, r7, lsl ip
    27e8:	000aa400 	andeq	sl, sl, r0, lsl #8
    27ec:	0007af00 	andeq	sl, r7, r0, lsl #30
    27f0:	50011800 	andpl	r1, r1, r0, lsl #16
    27f4:	01184001 	tsteq	r8, r1
    27f8:	d0910351 	addsle	r0, r1, r1, asr r3
    27fc:	5301187d 	movwpl	r1, #6269	; 0x187d
    2800:	18007502 	stmdane	r0, {r1, r8, sl, ip, sp, lr}
    2804:	01007d02 	tsteq	r0, r2, lsl #26
    2808:	ac170030 	ldcge	0, cr0, [r7], {48}	; 0x30
    280c:	a4000092 	strge	r0, [r0], #-146	; 0xffffff6e
    2810:	cf00000a 	svcgt	0x0000000a
    2814:	18000007 	stmdane	r0, {r0, r1, r2}
    2818:	3a015001 	bcc	56824 <__bss_end__+0x4b94c>
    281c:	03510118 	cmpeq	r1, #6
    2820:	187dd091 	ldmdane	sp!, {r0, r4, r7, ip, lr, pc}^
    2824:	75025301 	strvc	r5, [r2, #-769]	; 0xfffffcff
    2828:	90170000 	andsls	r0, r7, r0
    282c:	46000095 			; <UNDEFINED> instruction: 0x46000095
    2830:	e600000c 	str	r0, [r0], -ip
    2834:	18000007 	stmdane	r0, {r0, r1, r2}
    2838:	03055001 	movweq	r5, #20481	; 0x5001
    283c:	0000a820 	andeq	sl, r0, r0, lsr #16
    2840:	95a02100 	strls	r2, [r0, #256]!	; 0x100
    2844:	07f80000 	ldrbeq	r0, [r8, r0]!
    2848:	01180000 	tsteq	r8, r0
    284c:	c8910450 	ldmgt	r1, {r4, r6, sl}
    2850:	1700067d 	smlsdxne	r0, sp, r6, r0
    2854:	000095b4 			; <UNDEFINED> instruction: 0x000095b4
    2858:	00000c46 	andeq	r0, r0, r6, asr #24
    285c:	00000827 	andeq	r0, r0, r7, lsr #16
    2860:	05500118 	ldrbeq	r0, [r0, #-280]	; 0xfffffee8
    2864:	00a85003 	adceq	r5, r8, r3
    2868:	51011800 	tstpl	r1, r0, lsl #16
    286c:	a7300305 	ldrge	r0, [r0, -r5, lsl #6]!
    2870:	01180000 	tsteq	r8, r0
    2874:	88030552 	stmdahi	r3, {r1, r4, r6, r8, sl}
    2878:	180000a8 	stmdane	r0, {r3, r5, r7}
    287c:	08025301 	stmdaeq	r2, {r0, r8, r9, ip, lr}
    2880:	b81900e2 	ldmdalt	r9, {r1, r5, r6, r7}
    2884:	76000095 			; <UNDEFINED> instruction: 0x76000095
    2888:	1700000c 	strne	r0, [r0, -ip]
    288c:	000095cc 	andeq	r9, r0, ip, asr #11
    2890:	00000c46 	andeq	r0, r0, r6, asr #24
    2894:	0000085f 	andeq	r0, r0, pc, asr r8
    2898:	05500118 	ldrbeq	r0, [r0, #-280]	; 0xfffffee8
    289c:	00a7f803 	adceq	pc, r7, r3, lsl #16
    28a0:	51011800 	tstpl	r1, r0, lsl #16
    28a4:	a7300305 	ldrge	r0, [r0, -r5, lsl #6]!
    28a8:	01180000 	tsteq	r8, r0
    28ac:	88030552 	stmdahi	r3, {r1, r4, r6, r8, sl}
    28b0:	180000a8 	stmdane	r0, {r3, r5, r7}
    28b4:	08025301 	stmdaeq	r2, {r0, r8, r9, ip, lr}
    28b8:	d01900be 	ldrhle	r0, [r9], -lr
    28bc:	76000095 			; <UNDEFINED> instruction: 0x76000095
    28c0:	0000000c 	andeq	r0, r0, ip
    28c4:	b9040800 	stmdblt	r4, {fp}
    28c8:	22000000 	andcs	r0, r0, #0, 0
    28cc:	000000c0 	andeq	r0, r0, r0, asr #1
    28d0:	00000880 	andeq	r0, r0, r0, lsl #17
    28d4:	00002c23 	andeq	r2, r0, r3, lsr #24
    28d8:	09000900 	stmdbeq	r0, {r8, fp}
    28dc:	00000870 	andeq	r0, r0, r0, ror r8
    28e0:	0000b922 	andeq	fp, r0, r2, lsr #18
    28e4:	00089500 	andeq	r9, r8, r0, lsl #10
    28e8:	002c2300 	eoreq	r2, ip, r0, lsl #6
    28ec:	007f0000 	rsbseq	r0, pc, r0
    28f0:	00067124 	andeq	r7, r6, r4, lsr #2
    28f4:	01490100 	mrseq	r0, (UNDEF: 89)
    28f8:	0000086a 	andeq	r0, r0, sl, ror #16
    28fc:	00092a01 	andeq	r2, r9, r1, lsl #20
    2900:	03462500 	movteq	r2, #25856	; 0x6500
    2904:	49010000 	stmdbmi	r1, {}	; <UNPREDICTABLE>
    2908:	00002c0f 	andeq	r2, r0, pc, lsl #24
    290c:	73642600 	cmnvc	r4, #0, 12
    2910:	49010074 	stmdbmi	r1, {r2, r4, r5, r6}
    2914:	00086a1b 	andeq	r6, r8, fp, lsl sl
    2918:	006e2600 	rsbeq	r2, lr, r0, lsl #12
    291c:	33244901 			; <UNDEFINED> instruction: 0x33244901
    2920:	26000000 	strcs	r0, [r0], -r0
    2924:	006c6176 	rsbeq	r6, ip, r6, ror r1
    2928:	332b4901 			; <UNDEFINED> instruction: 0x332b4901
    292c:	25000000 	strcs	r0, [r0, #-0]
    2930:	0000061a 	andeq	r0, r0, sl, lsl r6
    2934:	33344901 	teqcc	r4, #16384	; 0x4000
    2938:	25000000 	strcs	r0, [r0, #-0]
    293c:	000006a7 	andeq	r0, r0, r7, lsr #13
    2940:	333f4901 	teqcc	pc, #16384	; 0x4000
    2944:	27000000 	strcs	r0, [r0, -r0]
    2948:	00667562 	rsbeq	r7, r6, r2, ror #10
    294c:	2a074e01 	bcs	1d6158 <__bss_end__+0x1cb280>
    2950:	27000009 	strcs	r0, [r0, -r9]
    2954:	4e010070 	mcrmi	0, 0, r0, cr1, cr0, {3}
    2958:	00086a11 	andeq	r6, r8, r1, lsl sl
    295c:	00752700 	rsbseq	r2, r5, r0, lsl #14
    2960:	2c0b4f01 	stccs	15, cr4, [fp], {1}
    2964:	12000000 	andne	r0, r0, #0, 0
    2968:	000000c4 	andeq	r0, r0, r4, asr #1
    296c:	0000094a 	andeq	r0, r0, sl, asr #18
    2970:	a8700305 	ldmdage	r0!, {r0, r2, r8, r9}^
    2974:	29280000 	stmdbcs	r8!, {}	; <UNPREDICTABLE>
    2978:	0000065e 	andeq	r0, r0, lr, asr r6
    297c:	2c0d5401 	cfstrscs	mvf5, [sp], {1}
    2980:	00000000 	andeq	r0, r0, r0
    2984:	00b92200 	adcseq	r2, r9, r0, lsl #4
    2988:	093a0000 	ldmdbeq	sl!, {}	; <UNPREDICTABLE>
    298c:	2c230000 	stccs	0, cr0, [r3], #-0
    2990:	3f000000 	svccc	0x00000000
    2994:	00c02200 	sbceq	r2, r0, r0, lsl #4
    2998:	094a0000 	stmdbeq	sl, {}^	; <UNPREDICTABLE>
    299c:	2c230000 	stccs	0, cr0, [r3], #-0
    29a0:	04000000 	streq	r0, [r0], #-0
    29a4:	093a0900 	ldmdbeq	sl!, {r8, fp}
    29a8:	76240000 	strtvc	r0, [r4], -r0
    29ac:	01000006 	tsteq	r0, r6
    29b0:	086a0e38 	stmdaeq	sl!, {r3, r4, r5, r9, sl, fp}^
    29b4:	a3010000 	movwge	r0, #4096	; 0x1000
    29b8:	26000009 	strcs	r0, [r0], -r9
    29bc:	00747364 	rsbseq	r7, r4, r4, ror #6
    29c0:	6a1c3801 	bvs	7109cc <__bss_end__+0x705af4>
    29c4:	26000008 	strcs	r0, [r0], -r8
    29c8:	3801006e 	stmdacc	r1, {r1, r2, r3, r5, r6}
    29cc:	00003325 	andeq	r3, r0, r5, lsr #6
    29d0:	00702600 	rsbseq	r2, r0, r0, lsl #12
    29d4:	6a2e3801 	bvs	b909e0 <__bss_end__+0xb85b08>
    29d8:	25000008 	strcs	r0, [r0, #-8]
    29dc:	00000a41 	andeq	r0, r0, r1, asr #20
    29e0:	6a373801 	bvs	dd09ec <__bss_end__+0xdc5b14>
    29e4:	27000008 	strcs	r0, [r0, -r8]
    29e8:	006e656c 	rsbeq	r6, lr, ip, ror #10
    29ec:	33063a01 	movwcc	r3, #27137	; 0x6a01
    29f0:	27000000 	strcs	r0, [r0, -r0]
    29f4:	3e010073 	mcrcc	0, 0, r0, cr1, cr3, {3}
    29f8:	00086a08 	andeq	r6, r8, r8, lsl #20
    29fc:	702a0000 	eorvc	r0, sl, r0
    2a00:	01006461 	tsteq	r0, r1, ror #8
    2a04:	086a0e2e 	stmdaeq	sl!, {r1, r2, r3, r5, r9, sl, fp}^
    2a08:	e3010000 	movw	r0, #4096	; 0x1000
    2a0c:	26000009 	strcs	r0, [r0], -r9
    2a10:	2e010070 	mcrcs	0, 0, r0, cr1, cr0, {3}
    2a14:	00086a18 	andeq	r6, r8, r8, lsl sl
    2a18:	03462500 	movteq	r2, #25856	; 0x6500
    2a1c:	2e010000 	cdpcs	0, 0, cr0, cr1, cr0, {0}
    2a20:	00086a22 	andeq	r6, r8, r2, lsr #20
    2a24:	061a2500 	ldreq	r2, [sl], -r0, lsl #10
    2a28:	2e010000 	cdpcs	0, 0, cr0, cr1, cr0, {0}
    2a2c:	0000332c 	andeq	r3, r0, ip, lsr #6
    2a30:	656c2700 	strbvs	r2, [ip, #-1792]!	; 0xfffff900
    2a34:	2f01006e 	svccs	0x0001006e
    2a38:	00003306 	andeq	r3, r0, r6, lsl #6
    2a3c:	e7240000 	str	r0, [r4, -r0]!
    2a40:	01000005 	tsteq	r0, r5
    2a44:	00330c27 	eorseq	r0, r3, r7, lsr #24
    2a48:	ff010000 			; <UNDEFINED> instruction: 0xff010000
    2a4c:	26000009 	strcs	r0, [r0], -r9
    2a50:	27010063 	strcs	r0, [r1, -r3, rrx]
    2a54:	00003318 	andeq	r3, r0, r8, lsl r3
    2a58:	372b0000 	strcc	r0, [fp, -r0]!
    2a5c:	01000006 	tsteq	r0, r6
    2a60:	8fe8061f 	svchi	0x00e8061f
    2a64:	00600000 	rsbeq	r0, r0, r0
    2a68:	9c010000 	stcls	0, cr0, [r1], {-0}
    2a6c:	00000a8f 	andeq	r0, r0, pc, lsl #21
    2a70:	0006200f 	andeq	r2, r6, pc
    2a74:	1b1f0100 	blne	7c2e7c <__bss_end__+0x7b7fa4>
    2a78:	0000009e 	muleq	r0, lr, r0
    2a7c:	00001941 	andeq	r1, r0, r1, asr #18
    2a80:	0000193d 	andeq	r1, r0, sp, lsr r9
    2a84:	0006850f 	andeq	r8, r6, pc, lsl #10
    2a88:	301f0100 	andscc	r0, pc, r0, lsl #2
    2a8c:	000000d1 	ldrdeq	r0, [r0], -r1
    2a90:	00001966 	andeq	r1, r0, r6, ror #18
    2a94:	00001962 	andeq	r1, r0, r2, ror #18
    2a98:	0000c412 	andeq	ip, r0, r2, lsl r4
    2a9c:	000a9f00 	andeq	r9, sl, r0, lsl #30
    2aa0:	78030500 	stmdavc	r3, {r8, sl}
    2aa4:	170000a8 	strne	r0, [r0, -r8, lsr #1]
    2aa8:	0000902c 	andeq	r9, r0, ip, lsr #32
    2aac:	00000c46 	andeq	r0, r0, r6, asr #24
    2ab0:	00000a85 	andeq	r0, r0, r5, lsl #21
    2ab4:	05500118 	ldrbeq	r0, [r0, #-280]	; 0xfffffee8
    2ab8:	00a2ac03 	adceq	sl, r2, r3, lsl #24
    2abc:	51011800 	tstpl	r1, r0, lsl #16
    2ac0:	a7300305 	ldrge	r0, [r0, -r5, lsl #6]!
    2ac4:	01180000 	tsteq	r8, r0
    2ac8:	78030552 	stmdavc	r3, {r1, r4, r6, r8, sl}
    2acc:	180000a8 	stmdane	r0, {r3, r5, r7}
    2ad0:	08025301 	stmdaeq	r2, {r0, r8, r9, ip, lr}
    2ad4:	7d021820 	stcvc	8, cr1, [r2, #-128]	; 0xffffff80
    2ad8:	68030500 	stmdavs	r3, {r8, sl}
    2adc:	000000a7 	andeq	r0, r0, r7, lsr #1
    2ae0:	00903019 	addseq	r3, r0, r9, lsl r0
    2ae4:	000c7600 	andeq	r7, ip, r0, lsl #12
    2ae8:	c0220000 	eorgt	r0, r2, r0
    2aec:	9f000000 	svcls	0x00000000
    2af0:	2300000a 	movwcs	r0, #10
    2af4:	0000002c 	andeq	r0, r0, ip, lsr #32
    2af8:	8f09000e 	svchi	0x0009000e
    2afc:	2c00000a 	stccs	0, cr0, [r0], {10}
    2b00:	00000895 	muleq	r0, r5, r8
    2b04:	00008cc0 	andeq	r8, r0, r0, asr #25
    2b08:	00000328 	andeq	r0, r0, r8, lsr #6
    2b0c:	0c3a9c01 	ldceq	12, cr9, [sl], #-4
    2b10:	a61b0000 	ldrge	r0, [fp], -r0
    2b14:	9f000008 	svcls	0x00000008
    2b18:	87000019 	smladhi	r0, r9, r0, r0
    2b1c:	1b000019 	blne	2b88 <__code_start__-0x5478>
    2b20:	000008b2 			; <UNDEFINED> instruction: 0x000008b2
    2b24:	00001a49 	andeq	r1, r0, r9, asr #20
    2b28:	00001a41 	andeq	r1, r0, r1, asr #20
    2b2c:	0008c81b 	andeq	ip, r8, fp, lsl r8
    2b30:	001aa000 	andseq	sl, sl, r0
    2b34:	001a8000 	andseq	r8, sl, r0
    2b38:	08d41b00 	ldmeq	r4, {r8, r9, fp, ip}^
    2b3c:	1b760000 	blne	1d82b44 <__bss_end__+0x1d77c6c>
    2b40:	1b680000 	blne	1a02b48 <__bss_end__+0x19f7c70>
    2b44:	e02d0000 	eor	r0, sp, r0
    2b48:	02000008 	andeq	r0, r0, #8, 0
    2b4c:	ec1d0091 	ldc	0, cr0, [sp], {145}	; 0x91
    2b50:	03000008 	movweq	r0, #8
    2b54:	1e7fa891 	mrcne	8, 3, sl, cr15, cr1, {4}
    2b58:	000008f8 	strdeq	r0, [r0], -r8
    2b5c:	00001c0a 	andeq	r1, r0, sl, lsl #24
    2b60:	00001bd6 	ldrdeq	r1, [r0], -r6
    2b64:	0009021e 	andeq	r0, r9, lr, lsl r2
    2b68:	001d7100 	andseq	r7, sp, r0, lsl #2
    2b6c:	001d4f00 	andseq	r4, sp, r0, lsl #30
    2b70:	08be2e00 	ldmeq	lr!, {r9, sl, fp, sp}
    2b74:	1a800000 	bne	fe002b7c <__bss_end__+0xfdff7ca4>
    2b78:	000009a3 	andeq	r0, r0, r3, lsr #19
    2b7c:	00008d64 	andeq	r8, r0, r4, ror #26
    2b80:	00600004 	rsbeq	r0, r0, r4
    2b84:	7c010000 	stcvc	0, cr0, [r1], {-0}
    2b88:	000b6d09 	andeq	r6, fp, r9, lsl #26
    2b8c:	09ca1b00 	stmibeq	sl, {r8, r9, fp, ip}^
    2b90:	1e590000 	cdpne	0, 5, cr0, cr9, cr0, {0}
    2b94:	1e4f0000 	cdpne	0, 4, cr0, cr15, cr0, {0}
    2b98:	be1b0000 	cdplt	0, 1, cr0, cr11, cr0, {0}
    2b9c:	ad000009 	stcge	0, cr0, [r0, #-36]	; 0xffffffdc
    2ba0:	9d00001e 	stcls	0, cr0, [r0, #-120]	; 0xffffff88
    2ba4:	1b00001e 	blne	2c24 <__code_start__-0x53dc>
    2ba8:	000009b4 			; <UNDEFINED> instruction: 0x000009b4
    2bac:	00001f2d 	andeq	r1, r0, sp, lsr #30
    2bb0:	00001f19 	andeq	r1, r0, r9, lsl pc
    2bb4:	00006013 	andeq	r6, r0, r3, lsl r0
    2bb8:	09d61e00 	ldmibeq	r6, {r9, sl, fp, ip}^
    2bbc:	1fbf0000 	svcne	0x00bf0000
    2bc0:	1faf0000 	svcne	0x00af0000
    2bc4:	00000000 	andeq	r0, r0, r0
    2bc8:	00094f1a 	andeq	r4, r9, sl, lsl pc
    2bcc:	008e1c00 	addeq	r1, lr, r0, lsl #24
    2bd0:	a8000200 	stmdage	r0, {r9}
    2bd4:	01000000 	mrseq	r0, (UNDEF: 0)
    2bd8:	0bd8097c 	bleq	ff6051d0 <__bss_end__+0xff5fa2f8>
    2bdc:	801b0000 	andshi	r0, fp, r0
    2be0:	2b000009 	blcs	2c0c <__code_start__-0x53f4>
    2be4:	23000020 	movwcs	r0, #32
    2be8:	1b000020 	blne	2c70 <__code_start__-0x5390>
    2bec:	00000976 	andeq	r0, r0, r6, ror r9
    2bf0:	0000206a 	andeq	r2, r0, sl, rrx
    2bf4:	00002062 	andeq	r2, r0, r2, rrx
    2bf8:	00096c1b 	andeq	r6, r9, fp, lsl ip
    2bfc:	0020a900 	eoreq	sl, r0, r0, lsl #18
    2c00:	0020a500 	eoreq	sl, r0, r0, lsl #10
    2c04:	09601b00 	stmdbeq	r0!, {r8, r9, fp, ip}^
    2c08:	20d90000 	sbcscs	r0, r9, r0
    2c0c:	20cb0000 	sbccs	r0, fp, r0
    2c10:	a8130000 	ldmdage	r3, {}	; <UNPREDICTABLE>
    2c14:	1e000000 	cdpne	0, 0, cr0, cr0, cr0, {0}
    2c18:	0000098c 	andeq	r0, r0, ip, lsl #19
    2c1c:	0000213e 	andeq	r2, r0, lr, lsr r1
    2c20:	00002138 	andeq	r2, r0, r8, lsr r1
    2c24:	0009981e 	andeq	r9, r9, lr, lsl r8
    2c28:	00217000 	eoreq	r7, r1, r0
    2c2c:	00216c00 	eoreq	r6, r1, r0, lsl #24
    2c30:	2f000000 	svccs	0x00000000
    2c34:	0000091b 	andeq	r0, r0, fp, lsl r9
    2c38:	00008ed4 	ldrdeq	r8, [r0], -r4
    2c3c:	00000060 	andeq	r0, r0, r0, rrx
    2c40:	00000bf7 	strdeq	r0, [r0], -r7
    2c44:	00091c1e 	andeq	r1, r9, lr, lsl ip
    2c48:	00219200 	eoreq	r9, r1, r0, lsl #4
    2c4c:	00218e00 	eoreq	r8, r1, r0, lsl #28
    2c50:	a8170000 	ldmdage	r7, {}	; <UNPREDICTABLE>
    2c54:	4600008f 	strmi	r0, [r0], -pc, lsl #1
    2c58:	3000000c 	andcc	r0, r0, ip
    2c5c:	1800000c 	stmdane	r0, {r2, r3}
    2c60:	03055001 	movweq	r5, #20481	; 0x5001
    2c64:	0000a2ac 	andeq	sl, r0, ip, lsr #5
    2c68:	05510118 	ldrbeq	r0, [r1, #-280]	; 0xfffffee8
    2c6c:	00a73003 	adceq	r3, r7, r3
    2c70:	52011800 	andpl	r1, r1, #0, 16
    2c74:	a8700305 	ldmdage	r0!, {r0, r2, r8, r9}^
    2c78:	01180000 	tsteq	r8, r0
    2c7c:	79080253 	stmdbvc	r8, {r0, r1, r4, r6, r9}
    2c80:	007d0218 	rsbseq	r0, sp, r8, lsl r2
    2c84:	a5f40305 	ldrbge	r0, [r4, #773]!	; 0x305
    2c88:	19000000 	stmdbne	r0, {}	; <UNPREDICTABLE>
    2c8c:	00008fac 	andeq	r8, r0, ip, lsr #31
    2c90:	00000c76 	andeq	r0, r0, r6, ror ip
    2c94:	069f3000 	ldreq	r3, [pc], r0
    2c98:	069f0000 	ldreq	r0, [pc], r0
    2c9c:	eb030000 	bl	c2ca4 <__bss_end__+0xb7dcc>
    2ca0:	05963005 	ldreq	r3, [r6, #5]
    2ca4:	05960000 	ldreq	r0, [r6]
    2ca8:	28030000 	stmdacs	r3, {}	; <UNPREDICTABLE>
    2cac:	06503006 	ldrbeq	r3, [r0], -r6
    2cb0:	06500000 	ldrbeq	r0, [r0], -r0
    2cb4:	ee030000 	cdp	0, 0, cr0, cr3, cr0, {0}
    2cb8:	067e3007 	ldrbteq	r3, [lr], -r7
    2cbc:	067e0000 	ldrbteq	r0, [lr], -r0
    2cc0:	ea030000 	b	c2cc8 <__bss_end__+0xb7df0>
    2cc4:	06573005 	ldrbeq	r3, [r7], -r5
    2cc8:	06570000 	ldrbeq	r0, [r7], -r0
    2ccc:	ed030000 	stc	0, cr0, [r3, #-0]
    2cd0:	00833007 	addeq	r3, r3, r7
    2cd4:	00830000 	addeq	r0, r3, r0
    2cd8:	6e030000 	cdpvs	0, 0, cr0, cr3, cr0, {0}
    2cdc:	012f0006 			; <UNDEFINED> instruction: 0x012f0006
    2ce0:	00040000 	andeq	r0, r4, r0
    2ce4:	00000e40 	andeq	r0, r0, r0, asr #28
    2ce8:	04b40104 	ldrteq	r0, [r4], #260	; 0x104
    2cec:	c40c0000 	strgt	r0, [ip], #-0
    2cf0:	6c000006 	stcvs	0, cr0, [r0], {6}
    2cf4:	74000005 	strvc	r0, [r0], #-5
    2cf8:	2c000096 	stccs	0, cr0, [r0], {150}	; 0x96
    2cfc:	cb000000 	blgt	2d04 <__code_start__-0x52fc>
    2d00:	02000017 	andeq	r0, r0, #23, 0
    2d04:	6e690504 	cdpvs	5, 6, cr0, cr9, cr4, {0}
    2d08:	04030074 	streq	r0, [r3], #-116	; 0xffffff8c
    2d0c:	0000ea07 	andeq	lr, r0, r7, lsl #20
    2d10:	06010300 	streq	r0, [r1], -r0, lsl #6
    2d14:	00000077 	andeq	r0, r0, r7, ror r0
    2d18:	49050203 	stmdbmi	r5, {r0, r1, r9}
    2d1c:	03000001 	movweq	r0, #1
    2d20:	010e0504 	tsteq	lr, r4, lsl #10
    2d24:	08030000 	stmdaeq	r3, {}	; <UNPREDICTABLE>
    2d28:	00010905 	andeq	r0, r1, r5, lsl #18
    2d2c:	08010300 	stmdaeq	r1, {r8, r9}
    2d30:	00000075 	andeq	r0, r0, r5, ror r0
    2d34:	90070203 	andls	r0, r7, r3, lsl #4
    2d38:	03000000 	movweq	r0, #0
    2d3c:	00e50704 	rsceq	r0, r5, r4, lsl #14
    2d40:	08030000 	stmdaeq	r3, {}	; <UNPREDICTABLE>
    2d44:	0000e007 	andeq	lr, r0, r7
    2d48:	00250400 	eoreq	r0, r5, r0, lsl #8
    2d4c:	007a0000 	rsbseq	r0, sl, r0
    2d50:	25050000 	strcs	r0, [r5, #-0]
    2d54:	00000000 	andeq	r0, r0, r0
    2d58:	00016f06 	andeq	r6, r1, r6, lsl #30
    2d5c:	0e1c0200 	cdpeq	2, 1, cr0, cr12, cr0, {0}
    2d60:	00000086 	andeq	r0, r0, r6, lsl #1
    2d64:	006b0407 	rsbeq	r0, fp, r7, lsl #8
    2d68:	25040000 	strcs	r0, [r4, #-0]
    2d6c:	9b000000 	blls	2d74 <__code_start__-0x528c>
    2d70:	05000000 	streq	r0, [r0, #-0]
    2d74:	0000009b 	muleq	r0, fp, r0
    2d78:	a8040700 	stmdage	r4, {r8, r9, sl}
    2d7c:	03000000 	movweq	r0, #0
    2d80:	007e0801 	rsbseq	r0, lr, r1, lsl #16
    2d84:	a1080000 	mrsge	r0, (UNDEF: 8)
    2d88:	06000000 	streq	r0, [r0], -r0
    2d8c:	000005d4 	ldrdeq	r0, [r0], -r4
    2d90:	b90e2102 	stmdblt	lr, {r1, r8, sp}
    2d94:	07000000 	streq	r0, [r0, -r0]
    2d98:	00008c04 	andeq	r8, r0, r4, lsl #24
    2d9c:	00830900 	addeq	r0, r3, r0, lsl #18
    2da0:	04010000 	streq	r0, [r1], #-0
    2da4:	00967406 	addseq	r7, r6, r6, lsl #8
    2da8:	00002c00 	andeq	r2, r0, r0, lsl #24
    2dac:	0e9c0100 	fmleqe	f0, f4, f0
    2db0:	0a000001 	beq	2dbc <__code_start__-0x5244>
    2db4:	00009688 	andeq	r9, r0, r8, lsl #13
    2db8:	000000e8 	andeq	r0, r0, r8, ror #1
    2dbc:	0550010b 	ldrbeq	r0, [r0, #-267]	; 0xfffffef5
    2dc0:	00a89403 	adceq	r9, r8, r3, lsl #8
    2dc4:	8c0c0000 	stchi	0, cr0, [ip], {-0}
    2dc8:	0e000096 	mcreq	0, 0, r0, cr0, cr6, {4}
    2dcc:	0d000001 	stceq	0, cr0, [r0, #-4]
    2dd0:	00009694 	muleq	r0, r4, r6
    2dd4:	0000011a 	andeq	r0, r0, sl, lsl r1
    2dd8:	00000104 	andeq	r0, r0, r4, lsl #2
    2ddc:	0150010b 	cmpeq	r0, fp, lsl #2
    2de0:	980c003a 	stmdals	ip, {r1, r3, r4, r5}
    2de4:	26000096 			; <UNDEFINED> instruction: 0x26000096
    2de8:	00000001 	andeq	r0, r0, r1
    2dec:	0006df0e 	andeq	sp, r6, lr, lsl #30
    2df0:	0006df00 	andeq	sp, r6, r0, lsl #30
    2df4:	064d0200 	strbeq	r0, [sp], -r0, lsl #4
    2df8:	0006bb0e 	andeq	fp, r6, lr, lsl #22
    2dfc:	0006bb00 	andeq	fp, r6, r0, lsl #22
    2e00:	06580200 	ldrbeq	r0, [r8], -r0, lsl #4
    2e04:	0006b00e 	andeq	fp, r6, lr
    2e08:	0006b000 	andeq	fp, r6, r0
    2e0c:	066b0200 	strbteq	r0, [fp], -r0, lsl #4
    2e10:	00019000 	andeq	r9, r1, r0
    2e14:	00000400 	andeq	r0, r0, r0, lsl #8
    2e18:	0400000f 	streq	r0, [r0], #-15
    2e1c:	0004b401 	andeq	fp, r4, r1, lsl #8
    2e20:	07150c00 	ldreq	r0, [r5, -r0, lsl #24]
    2e24:	056c0000 	strbeq	r0, [ip, #-0]!
    2e28:	96a00000 	strtls	r0, [r0], r0
    2e2c:	00f80000 	rscseq	r0, r8, r0
    2e30:	18560000 	ldmdane	r6, {}^	; <UNPREDICTABLE>
    2e34:	04020000 	streq	r0, [r2], #-0
    2e38:	746e6905 	strbtvc	r6, [lr], #-2309	; 0xfffff6fb
    2e3c:	07040300 	streq	r0, [r4, -r0, lsl #6]
    2e40:	000000ea 	andeq	r0, r0, sl, ror #1
    2e44:	77060103 	strvc	r0, [r6, -r3, lsl #2]
    2e48:	03000000 	movweq	r0, #0
    2e4c:	01490502 	cmpeq	r9, r2, lsl #10
    2e50:	04030000 	streq	r0, [r3], #-0
    2e54:	00010e05 	andeq	r0, r1, r5, lsl #28
    2e58:	05080300 	streq	r0, [r8, #-768]	; 0xfffffd00
    2e5c:	00000109 	andeq	r0, r0, r9, lsl #2
    2e60:	75080103 	strvc	r0, [r8, #-259]	; 0xfffffefd
    2e64:	03000000 	movweq	r0, #0
    2e68:	00900702 	addseq	r0, r0, r2, lsl #14
    2e6c:	04030000 	streq	r0, [r3], #-0
    2e70:	0000e507 	andeq	lr, r0, r7, lsl #10
    2e74:	07080300 	streq	r0, [r8, -r0, lsl #6]
    2e78:	000000e0 	andeq	r0, r0, r0, ror #1
    2e7c:	00002504 	andeq	r2, r0, r4, lsl #10
    2e80:	00007a00 	andeq	r7, r0, r0, lsl #20
    2e84:	00250500 	eoreq	r0, r5, r0, lsl #10
    2e88:	06000000 	streq	r0, [r0], -r0
    2e8c:	0000016f 	andeq	r0, r0, pc, ror #2
    2e90:	860e1c02 	strhi	r1, [lr], -r2, lsl #24
    2e94:	07000000 	streq	r0, [r0, -r0]
    2e98:	00006b04 	andeq	r6, r0, r4, lsl #22
    2e9c:	00250400 	eoreq	r0, r5, r0, lsl #8
    2ea0:	009b0000 	addseq	r0, fp, r0
    2ea4:	9b050000 	blls	142eac <__bss_end__+0x137fd4>
    2ea8:	00000000 	andeq	r0, r0, r0
    2eac:	00a80407 	adceq	r0, r8, r7, lsl #8
    2eb0:	01030000 	mrseq	r0, (UNDEF: 3)
    2eb4:	00007e08 	andeq	r7, r0, r8, lsl #28
    2eb8:	00a10800 	adceq	r0, r1, r0, lsl #16
    2ebc:	d4060000 	strle	r0, [r6], #-0
    2ec0:	02000005 	andeq	r0, r0, #5, 0
    2ec4:	00b90e21 	adcseq	r0, r9, r1, lsr #28
    2ec8:	04070000 	streq	r0, [r7], #-0
    2ecc:	0000008c 	andeq	r0, r0, ip, lsl #1
    2ed0:	0006ed09 	andeq	lr, r6, r9, lsl #26
    2ed4:	06040100 	streq	r0, [r4], -r0, lsl #2
    2ed8:	000096a0 	andeq	r9, r0, r0, lsr #13
    2edc:	000000f8 	strdeq	r0, [r0], -r8
    2ee0:	015b9c01 	cmpeq	fp, r1, lsl #24
    2ee4:	87060000 	strhi	r0, [r6, -r0]
    2ee8:	01000003 	tsteq	r0, r3
    2eec:	00251005 	eoreq	r1, r5, r5
    2ef0:	39060000 	stmdbcc	r6, {}	; <UNPREDICTABLE>
    2ef4:	01000004 	tsteq	r0, r4
    2ef8:	00251f05 	eoreq	r1, r5, r5, lsl #30
    2efc:	5b0a0000 	blpl	282f04 <__bss_end__+0x27802c>
    2f00:	01000000 	mrseq	r0, (UNDEF: 0)
    2f04:	620b0706 	andvs	r0, fp, #1572864	; 0x180000
    2f08:	01007373 	tsteq	r0, r3, ror r3
    2f0c:	015b0a0a 	cmpeq	fp, sl, lsl #20
    2f10:	21ca0000 	biccs	r0, sl, r0
    2f14:	21b20000 			; <UNDEFINED> instruction: 0x21b20000
    2f18:	f50c0000 			; <UNDEFINED> instruction: 0xf50c0000
    2f1c:	01000006 	tsteq	r0, r6
    2f20:	015b0a0b 	cmpeq	fp, fp, lsl #20
    2f24:	780d0000 	stmdavc	sp, {}	; <UNPREDICTABLE>
    2f28:	08000097 	stmdaeq	r0, {r0, r1, r2, r4, r7}
    2f2c:	36000000 	strcc	r0, [r0], -r0
    2f30:	0b000001 	bleq	2f3c <__code_start__-0x50c4>
    2f34:	01006e69 	tsteq	r0, r9, ror #28
    2f38:	002c0514 	eoreq	r0, ip, r4, lsl r5
    2f3c:	22640000 	rsbcs	r0, r4, #0, 0
    2f40:	22620000 	rsbcs	r0, r2, #0, 0
    2f44:	0e000000 	cdpeq	0, 0, cr0, cr0, cr0, {0}
    2f48:	000096a8 	andeq	r9, r0, r8, lsr #13
    2f4c:	00000161 	andeq	r0, r0, r1, ror #2
    2f50:	0097780e 	addseq	r7, r7, lr, lsl #16
    2f54:	00016e00 	andeq	r6, r1, r0, lsl #28
    2f58:	97840e00 	strls	r0, [r4, r0, lsl #28]
    2f5c:	017a0000 	cmneq	sl, r0
    2f60:	880e0000 	stmdahi	lr, {}	; <UNPREDICTABLE>
    2f64:	87000097 			; <UNDEFINED> instruction: 0x87000097
    2f68:	00000001 	andeq	r0, r0, r1
    2f6c:	00250407 	eoreq	r0, r5, r7, lsl #8
    2f70:	070f0000 	streq	r0, [pc, -r0]
    2f74:	07000007 	streq	r0, [r0, -r7]
    2f78:	02000007 	andeq	r0, r0, #7, 0
    2f7c:	10060131 	andne	r0, r6, r1, lsr r1
    2f80:	000006fd 	strdeq	r0, [r0], -sp
    2f84:	000006fd 	strdeq	r0, [r0], -sp
    2f88:	0f063b02 	svceq	0x00063b02
    2f8c:	0000005b 	andeq	r0, r0, fp, asr r0
    2f90:	0000005b 	andeq	r0, r0, fp, asr r0
    2f94:	06010502 	streq	r0, [r1], -r2, lsl #10
    2f98:	00008310 	andeq	r8, r0, r0, lsl r3
    2f9c:	00008300 	andeq	r8, r0, r0, lsl #6
    2fa0:	066e0200 	strbteq	r0, [lr], -r0, lsl #4
    2fa4:	0000ce00 	andeq	ip, r0, r0, lsl #28
    2fa8:	eb000400 	bl	3fb0 <__code_start__-0x4050>
    2fac:	0400000f 	streq	r0, [r0], #-15
    2fb0:	0004b401 	andeq	fp, r4, r1, lsl #8
    2fb4:	072a0c00 	streq	r0, [sl, -r0, lsl #24]!
    2fb8:	056c0000 	strbeq	r0, [ip, #-0]!
    2fbc:	97980000 	ldrls	r0, [r8, r0]
    2fc0:	00040000 	andeq	r0, r4, r0
    2fc4:	196c0000 	stmdbne	ip!, {}^	; <UNPREDICTABLE>
    2fc8:	04020000 	streq	r0, [r2], #-0
    2fcc:	746e6905 	strbtvc	r6, [lr], #-2309	; 0xfffff6fb
    2fd0:	07040300 	streq	r0, [r4, -r0, lsl #6]
    2fd4:	000000ea 	andeq	r0, r0, sl, ror #1
    2fd8:	77060103 	strvc	r0, [r6, -r3, lsl #2]
    2fdc:	03000000 	movweq	r0, #0
    2fe0:	01490502 	cmpeq	r9, r2, lsl #10
    2fe4:	04030000 	streq	r0, [r3], #-0
    2fe8:	00010e05 	andeq	r0, r1, r5, lsl #28
    2fec:	05080300 	streq	r0, [r8, #-768]	; 0xfffffd00
    2ff0:	00000109 	andeq	r0, r0, r9, lsl #2
    2ff4:	75080103 	strvc	r0, [r8, #-259]	; 0xfffffefd
    2ff8:	03000000 	movweq	r0, #0
    2ffc:	00900702 	addseq	r0, r0, r2, lsl #14
    3000:	04030000 	streq	r0, [r3], #-0
    3004:	0000e507 	andeq	lr, r0, r7, lsl #10
    3008:	07080300 	streq	r0, [r8, -r0, lsl #6]
    300c:	000000e0 	andeq	r0, r0, r0, ror #1
    3010:	00002504 	andeq	r2, r0, r4, lsl #10
    3014:	00007a00 	andeq	r7, r0, r0, lsl #20
    3018:	00250500 	eoreq	r0, r5, r0, lsl #10
    301c:	06000000 	streq	r0, [r0], -r0
    3020:	0000016f 	andeq	r0, r0, pc, ror #2
    3024:	860e1c02 	strhi	r1, [lr], -r2, lsl #24
    3028:	07000000 	streq	r0, [r0, -r0]
    302c:	00006b04 	andeq	r6, r0, r4, lsl #22
    3030:	00250400 	eoreq	r0, r5, r0, lsl #8
    3034:	009b0000 	addseq	r0, fp, r0
    3038:	9b050000 	blls	143040 <__bss_end__+0x138168>
    303c:	00000000 	andeq	r0, r0, r0
    3040:	00a80407 	adceq	r0, r8, r7, lsl #8
    3044:	01030000 	mrseq	r0, (UNDEF: 3)
    3048:	00007e08 	andeq	r7, r0, r8, lsl #28
    304c:	00a10800 	adceq	r0, r1, r0, lsl #16
    3050:	d4060000 	strle	r0, [r6], #-0
    3054:	02000005 	andeq	r0, r0, #5, 0
    3058:	00b90e21 	adcseq	r0, r9, r1, lsr #28
    305c:	04070000 	streq	r0, [r7], #-0
    3060:	0000008c 	andeq	r0, r0, ip, lsl #1
    3064:	00070709 	andeq	r0, r7, r9, lsl #14
    3068:	06040100 	streq	r0, [r4], -r0, lsl #2
    306c:	00009798 	muleq	r0, r8, r7
    3070:	00000004 	andeq	r0, r0, r4
    3074:	7d009c01 	stcvc	12, cr9, [r0, #-4]
    3078:	04000002 	streq	r0, [r0], #-2
    307c:	00106400 	andseq	r6, r0, r0, lsl #8
    3080:	b4010400 	strlt	r0, [r1], #-1024	; 0xfffffc00
    3084:	0c000004 	stceq	0, cr0, [r0], {4}
    3088:	00000772 	andeq	r0, r0, r2, ror r7
    308c:	0000056c 	andeq	r0, r0, ip, ror #10
    3090:	00000250 	andeq	r0, r0, r0, asr r2
    3094:	00000000 	andeq	r0, r0, r0
    3098:	000019ed 	andeq	r1, r0, sp, ror #19
    309c:	69050402 	stmdbvs	r5, {r1, sl}
    30a0:	0300746e 	movweq	r7, #1134	; 0x46e
    30a4:	00000025 	andeq	r0, r0, r5, lsr #32
    30a8:	ea070404 	b	1c40c0 <__bss_end__+0x1b91e8>
    30ac:	04000000 	streq	r0, [r0], #-0
    30b0:	00770601 	rsbseq	r0, r7, r1, lsl #12
    30b4:	02040000 	andeq	r0, r4, #0, 0
    30b8:	00014905 	andeq	r4, r1, r5, lsl #18
    30bc:	05040400 	streq	r0, [r4, #-1024]	; 0xfffffc00
    30c0:	0000010e 	andeq	r0, r0, lr, lsl #2
    30c4:	09050804 	stmdbeq	r5, {r2, fp}
    30c8:	04000001 	streq	r0, [r0], #-1
    30cc:	00750801 	rsbseq	r0, r5, r1, lsl #16
    30d0:	02040000 	andeq	r0, r4, #0, 0
    30d4:	00009007 	andeq	r9, r0, r7
    30d8:	07040400 	streq	r0, [r4, -r0, lsl #8]
    30dc:	000000e5 	andeq	r0, r0, r5, ror #1
    30e0:	e0070804 	and	r0, r7, r4, lsl #16
    30e4:	05000000 	streq	r0, [r0, #-0]
    30e8:	00000025 	andeq	r0, r0, r5, lsr #32
    30ec:	0000007f 	andeq	r0, r0, pc, ror r0
    30f0:	00002506 	andeq	r2, r0, r6, lsl #10
    30f4:	6f070000 	svcvs	0x00070000
    30f8:	02000001 	andeq	r0, r0, #1, 0
    30fc:	008b0e1c 	addeq	r0, fp, ip, lsl lr
    3100:	04080000 	streq	r0, [r8], #-0
    3104:	00000070 	andeq	r0, r0, r0, ror r0
    3108:	00002505 	andeq	r2, r0, r5, lsl #10
    310c:	0000a000 	andeq	sl, r0, r0
    3110:	00a00600 	adceq	r0, r0, r0, lsl #12
    3114:	08000000 	stmdaeq	r0, {}	; <UNPREDICTABLE>
    3118:	0000ad04 	andeq	sl, r0, r4, lsl #26
    311c:	08010400 	stmdaeq	r1, {sl}
    3120:	0000007e 	andeq	r0, r0, lr, ror r0
    3124:	0000a603 	andeq	sl, r0, r3, lsl #12
    3128:	05d40700 	ldrbeq	r0, [r4, #1792]	; 0x700
    312c:	21020000 	mrscs	r0, (UNDEF: 2)
    3130:	0000be0e 	andeq	fp, r0, lr, lsl #28
    3134:	91040800 	tstls	r4, r0, lsl #16
    3138:	09000000 	stmdbeq	r0, {}	; <UNPREDICTABLE>
    313c:	00000796 	muleq	r0, r6, r7
    3140:	31110d01 	tstcc	r1, r1, lsl #26
    3144:	0a000000 	beq	314c <__code_start__-0x4eb4>
    3148:	000006b0 			; <UNDEFINED> instruction: 0x000006b0
    314c:	c8061f01 	stmdagt	r6, {r0, r8, r9, sl, fp, ip}
    3150:	60000097 	mulvs	r0, r7, r0
    3154:	01000000 	mrseq	r0, (UNDEF: 0)
    3158:	0001d59c 	muleq	r1, ip, r5
    315c:	07ba0b00 	ldreq	r0, [sl, r0, lsl #22]!
    3160:	2c010000 	stccs	0, cr0, [r1], {-0}
    3164:	00002c0f 	andeq	r2, r0, pc, lsl #24
    3168:	10001c00 	andne	r1, r0, r0, lsl #24
    316c:	07550b20 	ldrbeq	r0, [r5, -r0, lsr #22]
    3170:	2d010000 	stccs	0, cr0, [r1, #-0]
    3174:	00002c0f 	andeq	r2, r0, pc, lsl #24
    3178:	10002400 	andne	r2, r0, r0, lsl #8
    317c:	07870b20 	streq	r0, [r7, r0, lsr #22]
    3180:	2e010000 	cdpcs	0, 0, cr0, cr1, cr0, {0}
    3184:	00002c0f 	andeq	r2, r0, pc, lsl #24
    3188:	00000000 	andeq	r0, r0, r0
    318c:	07a10c5a 	sbfxeq	r0, sl, #24, #2
    3190:	2f010000 	svccs	0x00010000
    3194:	00002c0f 	andeq	r2, r0, pc, lsl #24
    3198:	ef0d2000 	svc	0x000d2000
    319c:	c8000001 	stmdagt	r0, {r0}
    31a0:	02000097 	andeq	r0, r0, #151, 0	; 0x97
    31a4:	00000238 	andeq	r0, r0, r8, lsr r2
    31a8:	4c082001 	stcmi	0, cr2, [r8], {1}
    31ac:	0e000001 	cdpeq	0, 0, cr0, cr0, cr1, {0}
    31b0:	00000238 	andeq	r0, r0, r8, lsr r2
    31b4:	0002000f 	andeq	r0, r2, pc
    31b8:	00227c00 	eoreq	r7, r2, r0, lsl #24
    31bc:	00227800 	eoreq	r7, r2, r0, lsl #16
    31c0:	10000000 	andne	r0, r0, r0
    31c4:	000001d5 	ldrdeq	r0, [r0], -r5
    31c8:	000097dc 	ldrdeq	r9, [r0], -ip
    31cc:	0097dc01 	addseq	sp, r7, r1, lsl #24
    31d0:	00001000 	andeq	r1, r0, r0
    31d4:	09210100 	stmdbeq	r1!, {r8}
    31d8:	00000173 	andeq	r0, r0, r3, ror r1
    31dc:	0001e20f 	andeq	lr, r1, pc, lsl #4
    31e0:	0022a300 	eoreq	sl, r2, r0, lsl #6
    31e4:	00229b00 	eoreq	r9, r2, r0, lsl #22
    31e8:	f0110000 			; <UNDEFINED> instruction: 0xf0110000
    31ec:	4f000097 	svcmi	0x00000097
    31f0:	11000002 	tstne	r0, r2
    31f4:	000097f4 	strdeq	r9, [r0], -r4
    31f8:	0000025c 	andeq	r0, r0, ip, asr r2
    31fc:	0097fc12 	addseq	pc, r7, r2, lsl ip	; <UNPREDICTABLE>
    3200:	00026800 	andeq	r6, r2, r0, lsl #16
    3204:	00019800 	andeq	r9, r1, r0, lsl #16
    3208:	50011300 	andpl	r1, r1, r0, lsl #6
    320c:	12003a01 	andne	r3, r0, #4096	; 0x1000
    3210:	00009808 	andeq	r9, r0, r8, lsl #16
    3214:	00000274 	andeq	r0, r0, r4, ror r2
    3218:	000001b8 			; <UNDEFINED> instruction: 0x000001b8
    321c:	05500113 	ldrbeq	r0, [r0, #-275]	; 0xfffffeed
    3220:	1000240c 	andne	r2, r0, ip, lsl #8
    3224:	51011320 	tstpl	r1, r0, lsr #6
    3228:	00010c05 	andeq	r0, r1, r5, lsl #24
    322c:	14005a00 	strne	r5, [r0], #-2560	; 0xfffff600
    3230:	00009814 	andeq	r9, r0, r4, lsl r8
    3234:	00000274 	andeq	r0, r0, r4, ror r2
    3238:	05500113 	ldrbeq	r0, [r0, #-275]	; 0xfffffeed
    323c:	10001c0c 	andne	r1, r0, ip, lsl #24
    3240:	51011320 	tstpl	r1, r0, lsr #6
    3244:	00200c05 	eoreq	r0, r0, r5, lsl #24
    3248:	00005a00 	andeq	r5, r0, r0, lsl #20
    324c:	00076315 	andeq	r6, r7, r5, lsl r3
    3250:	06170100 	ldreq	r0, [r7], -r0, lsl #2
    3254:	0001ef01 	andeq	lr, r1, r1, lsl #30
    3258:	07c20900 	strbeq	r0, [r2, r0, lsl #18]
    325c:	18010000 	stmdane	r1, {}	; <UNPREDICTABLE>
    3260:	0000310e 	andeq	r3, r0, lr, lsl #2
    3264:	93160000 	tstls	r6, #0, 0
    3268:	01000007 	tsteq	r0, r7
    326c:	0025050e 	eoreq	r0, r5, lr, lsl #10
    3270:	0d010000 	stceq	0, cr0, [r1, #-0]
    3274:	09000002 	stmdbeq	r0, {r1}
    3278:	000007c2 	andeq	r0, r0, r2, asr #15
    327c:	310e0f01 	tstcc	lr, r1, lsl #30
    3280:	00000000 	andeq	r0, r0, r0
    3284:	0001ef17 	andeq	lr, r1, r7, lsl pc
    3288:	00979c00 	addseq	r9, r7, r0, lsl #24
    328c:	00001800 	andeq	r1, r0, r0, lsl #16
    3290:	2e9c0100 	fmlcse	f0, f4, f0
    3294:	0f000002 	svceq	0x00000002
    3298:	00000200 	andeq	r0, r0, r0, lsl #4
    329c:	000022e0 	andeq	r2, r0, r0, ror #5
    32a0:	000022dc 	ldrdeq	r2, [r0], -ip
    32a4:	01d51700 	bicseq	r1, r5, r0, lsl #14
    32a8:	97b40000 	ldrls	r0, [r4, r0]!
    32ac:	00140000 	andseq	r0, r4, r0
    32b0:	9c010000 	stcls	0, cr0, [r1], {-0}
    32b4:	0000024f 	andeq	r0, r0, pc, asr #4
    32b8:	0001e20f 	andeq	lr, r1, pc, lsl #4
    32bc:	00230700 	eoreq	r0, r3, r0, lsl #14
    32c0:	0022ff00 	eoreq	pc, r2, r0, lsl #30
    32c4:	46180000 	ldrmi	r0, [r8], -r0
    32c8:	46000007 	strmi	r0, [r0], -r7
    32cc:	02000007 	andeq	r0, r0, #7, 0
    32d0:	19060136 	stmdbne	r6, {r1, r2, r4, r5, r8}
    32d4:	000006df 	ldrdeq	r0, [r0], -pc	; <UNPREDICTABLE>
    32d8:	000006df 	ldrdeq	r0, [r0], -pc	; <UNPREDICTABLE>
    32dc:	19064d02 	stmdbne	r6, {r1, r8, sl, fp, lr}
    32e0:	000006bb 			; <UNDEFINED> instruction: 0x000006bb
    32e4:	000006bb 			; <UNDEFINED> instruction: 0x000006bb
    32e8:	19065802 	stmdbne	r6, {r1, fp, ip, lr}
    32ec:	0000075d 	andeq	r0, r0, sp, asr r7
    32f0:	0000075d 	andeq	r0, r0, sp, asr r7
    32f4:	0006ad02 	andeq	sl, r6, r2, lsl #26
    32f8:	0000053f 	andeq	r0, r0, pc, lsr r5
    32fc:	11e70004 	mvnne	r0, r4
    3300:	01040000 	mrseq	r0, (UNDEF: 4)
    3304:	000004b4 			; <UNDEFINED> instruction: 0x000004b4
    3308:	0007dd0c 	andeq	sp, r7, ip, lsl #26
    330c:	00056c00 	andeq	r6, r5, r0, lsl #24
    3310:	00982800 	addseq	r2, r8, r0, lsl #16
    3314:	00011c00 	andeq	r1, r1, r0, lsl #24
    3318:	001b0500 	andseq	r0, fp, r0, lsl #10
    331c:	05040200 	streq	r0, [r4, #-512]	; 0xfffffe00
    3320:	00746e69 	rsbseq	r6, r4, r9, ror #28
    3324:	ea070403 	b	1c4338 <__bss_end__+0x1b9460>
    3328:	03000000 	movweq	r0, #0
    332c:	00770601 	rsbseq	r0, r7, r1, lsl #12
    3330:	02030000 	andeq	r0, r3, #0, 0
    3334:	00014905 	andeq	r4, r1, r5, lsl #18
    3338:	05040300 	streq	r0, [r4, #-768]	; 0xfffffd00
    333c:	0000010e 	andeq	r0, r0, lr, lsl #2
    3340:	09050803 	stmdbeq	r5, {r0, r1, fp}
    3344:	03000001 	movweq	r0, #1
    3348:	00750801 	rsbseq	r0, r5, r1, lsl #16
    334c:	02030000 	andeq	r0, r3, #0, 0
    3350:	00009007 	andeq	r9, r0, r7
    3354:	07040300 	streq	r0, [r4, -r0, lsl #6]
    3358:	000000e5 	andeq	r0, r0, r5, ror #1
    335c:	e0070803 	and	r0, r7, r3, lsl #16
    3360:	04000000 	streq	r0, [r0], #-0
    3364:	00000025 	andeq	r0, r0, r5, lsr #32
    3368:	0000007a 	andeq	r0, r0, sl, ror r0
    336c:	00002505 	andeq	r2, r0, r5, lsl #10
    3370:	6f060000 	svcvs	0x00060000
    3374:	02000001 	andeq	r0, r0, #1, 0
    3378:	00860e1c 	addeq	r0, r6, ip, lsl lr
    337c:	04070000 	streq	r0, [r7], #-0
    3380:	0000006b 	andeq	r0, r0, fp, rrx
    3384:	00002504 	andeq	r2, r0, r4, lsl #10
    3388:	00009b00 	andeq	r9, r0, r0, lsl #22
    338c:	009b0500 	addseq	r0, fp, r0, lsl #10
    3390:	07000000 	streq	r0, [r0, -r0]
    3394:	0000a804 	andeq	sl, r0, r4, lsl #16
    3398:	08010300 	stmdaeq	r1, {r8, r9}
    339c:	0000007e 	andeq	r0, r0, lr, ror r0
    33a0:	0000a108 	andeq	sl, r0, r8, lsl #2
    33a4:	05d40600 	ldrbeq	r0, [r4, #1536]	; 0x600
    33a8:	21020000 	mrscs	r0, (UNDEF: 2)
    33ac:	0000b90e 	andeq	fp, r0, lr, lsl #18
    33b0:	8c040700 	stchi	7, cr0, [r4], {-0}
    33b4:	09000000 	stmdbeq	r0, {}	; <UNPREDICTABLE>
    33b8:	000007d3 	ldrdeq	r0, [r0], -r3
    33bc:	f0061e01 			; <UNDEFINED> instruction: 0xf0061e01
    33c0:	54000098 	strpl	r0, [r0], #-152	; 0xffffff68
    33c4:	01000000 	mrseq	r0, (UNDEF: 0)
    33c8:	00020b9c 	muleq	r2, ip, fp
    33cc:	65730a00 	ldrbvs	r0, [r3, #-2560]!	; 0xfffff600
    33d0:	1e010063 	cdpne	0, 0, cr0, cr1, cr3, {3}
    33d4:	00002c19 	andeq	r2, r0, r9, lsl ip
    33d8:	00234400 	eoreq	r4, r3, r0, lsl #8
    33dc:	00234000 	eoreq	r4, r3, r0
    33e0:	020b0b00 	andeq	r0, fp, #0, 22
    33e4:	98f00000 	ldmls	r0!, {}^	; <UNPREDICTABLE>
    33e8:	18020000 	stmdane	r2, {}	; <UNPREDICTABLE>
    33ec:	01000003 	tsteq	r0, r3
    33f0:	180c051f 	stmdane	ip, {r0, r1, r2, r3, r4, r8, sl}
    33f4:	69000002 	stmdbvs	r0, {r1}
    33f8:	65000023 	strvs	r0, [r0, #-35]	; 0xffffffdd
    33fc:	0d000023 	stceq	0, cr0, [r0, #-140]	; 0xffffff74
    3400:	00000224 	andeq	r0, r0, r4, lsr #4
    3404:	00009904 	andeq	r9, r0, r4, lsl #18
    3408:	00990400 	addseq	r0, r9, r0, lsl #8
    340c:	00004000 	andeq	r4, r0, r0
    3410:	051c0100 	ldreq	r0, [ip, #-256]	; 0xffffff00
    3414:	0002310c 	andeq	r3, r2, ip, lsl #2
    3418:	00239600 	eoreq	r9, r3, r0, lsl #12
    341c:	00239400 	eoreq	r9, r3, r0, lsl #8
    3420:	023c0e00 	eorseq	r0, ip, #0, 28
    3424:	23ab0000 			; <UNDEFINED> instruction: 0x23ab0000
    3428:	23a90000 			; <UNDEFINED> instruction: 0x23a90000
    342c:	550f0000 	strpl	r0, [pc, #-0]	; 3434 <__code_start__-0x4bcc>
    3430:	04000002 	streq	r0, [r0], #-2
    3434:	02000099 	andeq	r0, r0, #153, 0	; 0x99
    3438:	00009904 	andeq	r9, r0, r4, lsl #18
    343c:	00000014 	andeq	r0, r0, r4, lsl r0
    3440:	9c131301 	ldcls	3, cr1, [r3], {1}
    3444:	0e000001 	cdpeq	0, 0, cr0, cr0, cr1, {0}
    3448:	00000266 	andeq	r0, r0, r6, ror #4
    344c:	000023c2 	andeq	r2, r0, r2, asr #7
    3450:	000023be 			; <UNDEFINED> instruction: 0x000023be
    3454:	0002710f 	andeq	r7, r2, pc, lsl #2
    3458:	00990800 	addseq	r0, r9, r0, lsl #16
    345c:	99080100 	stmdbls	r8, {r8}
    3460:	000c0000 	andeq	r0, ip, r0
    3464:	0d010000 	stceq	0, cr0, [r1, #-0]
    3468:	00018912 	andeq	r8, r1, r2, lsl r9
    346c:	99101000 	ldmdbls	r0, {ip}
    3470:	052a0000 	streq	r0, [sl, #-0]!
    3474:	01110000 	tsteq	r1, r0
    3478:	040c0550 	streq	r0, [ip], #-1360	; 0xfffffab0
    347c:	00200030 	eoreq	r0, r0, r0, lsr r0
    3480:	99081200 	stmdbls	r8, {r9, ip}
    3484:	05360000 	ldreq	r0, [r6, #-0]!
    3488:	18120000 	ldmdane	r2, {}	; <UNPREDICTABLE>
    348c:	36000099 			; <UNDEFINED> instruction: 0x36000099
    3490:	00000005 	andeq	r0, r0, r5
    3494:	00024713 	andeq	r4, r2, r3, lsl r7
    3498:	00033000 	andeq	r3, r3, r0
    349c:	02481400 	subeq	r1, r8, #0, 8
    34a0:	550b0000 	strpl	r0, [fp, #-0]
    34a4:	1c000002 	stcne	0, cr0, [r0], {2}
    34a8:	02000099 	andeq	r0, r0, #153, 0	; 0x99
    34ac:	00000348 	andeq	r0, r0, r8, asr #6
    34b0:	15171501 	ldrne	r1, [r7, #-1281]	; 0xfffffaff
    34b4:	00000348 	andeq	r0, r0, r8, asr #6
    34b8:	0002660e 	andeq	r6, r2, lr, lsl #12
    34bc:	0023e200 	eoreq	lr, r3, r0, lsl #4
    34c0:	0023e000 	eoreq	lr, r3, r0
    34c4:	02711600 	rsbseq	r1, r1, #0, 12
    34c8:	99200000 	stmdbls	r0!, {}	; <UNPREDICTABLE>
    34cc:	68010000 	stmdavs	r1, {}	; <UNPREDICTABLE>
    34d0:	01000003 	tsteq	r0, r3
    34d4:	01f3120d 	mvnseq	r1, sp, lsl #4
    34d8:	28100000 	ldmdacs	r0, {}	; <UNPREDICTABLE>
    34dc:	2a000099 	bcs	3748 <__code_start__-0x48b8>
    34e0:	11000005 	tstne	r0, r5
    34e4:	77025001 	strvc	r5, [r2, -r1]
    34e8:	12000000 	andne	r0, r0, #0, 0
    34ec:	00009920 	andeq	r9, r0, r0, lsr #18
    34f0:	00000536 	andeq	r0, r0, r6, lsr r5
    34f4:	00993412 	addseq	r3, r9, r2, lsl r4
    34f8:	00053600 	andeq	r3, r5, r0, lsl #12
    34fc:	00000000 	andeq	r0, r0, r0
    3500:	17000000 	strne	r0, [r0, -r0]
    3504:	000006bb 			; <UNDEFINED> instruction: 0x000006bb
    3508:	01061b01 	tsteq	r6, r1, lsl #22
    350c:	00000224 	andeq	r0, r0, r4, lsr #4
    3510:	00736d18 	rsbseq	r6, r3, r8, lsl sp
    3514:	2c181b01 			; <UNDEFINED> instruction: 0x2c181b01
    3518:	00000000 	andeq	r0, r0, r0
    351c:	00080617 	andeq	r0, r8, r7, lsl r6
    3520:	06120100 	ldreq	r0, [r2], -r0, lsl #2
    3524:	00025501 	andeq	r5, r2, r1, lsl #10
    3528:	73751800 	cmnvc	r5, #0, 16
    352c:	18120100 	ldmdane	r2, {r8}
    3530:	0000002c 	andeq	r0, r0, ip, lsr #32
    3534:	00627219 	rsbeq	r7, r2, r9, lsl r2
    3538:	2c0e1301 	stccs	3, cr1, [lr], {1}
    353c:	1a000000 	bne	3544 <__code_start__-0x4abc>
    3540:	00617219 	rsbeq	r7, r1, r9, lsl r2
    3544:	2c121501 	cfldr32cs	mvfx1, [r2], {1}
    3548:	00000000 	andeq	r0, r0, r0
    354c:	07f71b00 	ldrbeq	r1, [r7, r0, lsl #22]!
    3550:	09010000 	stmdbeq	r1, {}	; <UNPREDICTABLE>
    3554:	00002c0a 	andeq	r2, r0, sl, lsl #24
    3558:	02710100 	rsbseq	r0, r1, #0
    355c:	75190000 	ldrvc	r0, [r9, #-0]
    3560:	0e0d0100 	adfeqe	f0, f5, f0
    3564:	0000002c 	andeq	r0, r0, ip, lsr #32
    3568:	080f1c00 	stmdaeq	pc, {sl, fp, ip}	; <UNPREDICTABLE>
    356c:	04010000 	streq	r0, [r1], #-0
    3570:	00002c0a 	andeq	r2, r0, sl, lsl #24
    3574:	711d0100 	tstvc	sp, r0, lsl #2
    3578:	28000002 	stmdacs	r0, {r1}
    357c:	0c000098 	stceq	0, cr0, [r0], {152}	; 0x98
    3580:	01000000 	mrseq	r0, (UNDEF: 0)
    3584:	0002a59c 	muleq	r2, ip, r5
    3588:	98301e00 	ldmdals	r0!, {r9, sl, fp, ip}
    358c:	052a0000 	streq	r0, [sl, #-0]!
    3590:	01110000 	tsteq	r1, r0
    3594:	040c0550 	streq	r0, [ip], #-1360	; 0xfffffab0
    3598:	00200030 	eoreq	r0, r0, r0, lsr r0
    359c:	02551d00 	subseq	r1, r5, #0, 26
    35a0:	98340000 	ldmdals	r4!, {}	; <UNPREDICTABLE>
    35a4:	00240000 	eoreq	r0, r4, r0
    35a8:	9c010000 	stcls	0, cr0, [r1], {-0}
    35ac:	00000305 	andeq	r0, r0, r5, lsl #6
    35b0:	0002660e 	andeq	r6, r2, lr, lsl #12
    35b4:	0023f900 	eoreq	pc, r3, r0, lsl #18
    35b8:	0023f500 	eoreq	pc, r3, r0, lsl #10
    35bc:	02710f00 	rsbseq	r0, r1, #0, 30
    35c0:	983c0000 	ldmdals	ip!, {}	; <UNPREDICTABLE>
    35c4:	3c010000 	stccc	0, cr0, [r1], {-0}
    35c8:	0c000098 	stceq	0, cr0, [r0], {152}	; 0x98
    35cc:	01000000 	mrseq	r0, (UNDEF: 0)
    35d0:	02f2120d 	rscseq	r1, r2, #-805306368	; 0xd0000000
    35d4:	44100000 	ldrmi	r0, [r0], #-0
    35d8:	2a000098 	bcs	3840 <__code_start__-0x47c0>
    35dc:	11000005 	tstne	r0, r5
    35e0:	0c055001 	stceq	0, cr5, [r5], {1}
    35e4:	20003004 	andcs	r3, r0, r4
    35e8:	3c120000 	ldccc	0, cr0, [r2], {-0}
    35ec:	36000098 			; <UNDEFINED> instruction: 0x36000098
    35f0:	12000005 	andne	r0, r0, #5, 0
    35f4:	0000984c 	andeq	r9, r0, ip, asr #16
    35f8:	00000536 	andeq	r0, r0, r6, lsr r5
    35fc:	02241d00 	eoreq	r1, r4, #0, 26
    3600:	98580000 	ldmdals	r8, {}^	; <UNPREDICTABLE>
    3604:	00480000 	subeq	r0, r8, r0
    3608:	9c010000 	stcls	0, cr0, [r1], {-0}
    360c:	00000407 	andeq	r0, r0, r7, lsl #8
    3610:	0002310c 	andeq	r3, r2, ip, lsl #2
    3614:	00241b00 	eoreq	r1, r4, r0, lsl #22
    3618:	00241700 	eoreq	r1, r4, r0, lsl #14
    361c:	023c0e00 	eorseq	r0, ip, #0, 28
    3620:	243b0000 	ldrtcs	r0, [fp], #-0
    3624:	24390000 	ldrtcs	r0, [r9], #-0
    3628:	55160000 	ldrpl	r0, [r6, #-0]
    362c:	58000002 	stmdapl	r0, {r1}
    3630:	02000098 	andeq	r0, r0, #152, 0	; 0x98
    3634:	00000260 	andeq	r0, r0, r0, ror #4
    3638:	9a131301 	bls	4c8244 <__bss_end__+0x4bd36c>
    363c:	15000003 	strne	r0, [r0, #-3]
    3640:	00000260 	andeq	r0, r0, r0, ror #4
    3644:	0002660e 	andeq	r6, r2, lr, lsl #12
    3648:	00245200 	eoreq	r5, r4, r0, lsl #4
    364c:	00244e00 	eoreq	r4, r4, r0, lsl #28
    3650:	02710f00 	rsbseq	r0, r1, #0, 30
    3654:	98640000 	stmdals	r4!, {}^	; <UNPREDICTABLE>
    3658:	64010000 	strvs	r0, [r1], #-0
    365c:	0c000098 	stceq	0, cr0, [r0], {152}	; 0x98
    3660:	01000000 	mrseq	r0, (UNDEF: 0)
    3664:	0386120d 	orreq	r1, r6, #-805306368	; 0xd0000000
    3668:	6c100000 	ldcvs	0, cr0, [r0], {-0}
    366c:	2a000098 	bcs	38d4 <__code_start__-0x472c>
    3670:	11000005 	tstne	r0, r5
    3674:	0c055001 	stceq	0, cr5, [r5], {1}
    3678:	20003004 	andcs	r3, r0, r4
    367c:	64120000 	ldrvs	r0, [r2], #-0
    3680:	36000098 			; <UNDEFINED> instruction: 0x36000098
    3684:	12000005 	andne	r0, r0, #5, 0
    3688:	00009874 	andeq	r9, r0, r4, ror r8
    368c:	00000536 	andeq	r0, r0, r6, lsr r5
    3690:	47130000 	ldrmi	r0, [r3, -r0]
    3694:	78000002 	stmdavc	r0, {r1}
    3698:	14000002 	strne	r0, [r0], #-2
    369c:	00000248 	andeq	r0, r0, r8, asr #4
    36a0:	0002550b 	andeq	r5, r2, fp, lsl #10
    36a4:	00987800 	addseq	r7, r8, r0, lsl #16
    36a8:	02900200 	addseq	r0, r0, #0, 4
    36ac:	15010000 	strne	r0, [r1, #-0]
    36b0:	02901517 	addseq	r1, r0, #96468992	; 0x5c00000
    36b4:	660e0000 	strvs	r0, [lr], -r0
    36b8:	72000002 	andvc	r0, r0, #2, 0
    36bc:	70000024 	andvc	r0, r0, r4, lsr #32
    36c0:	16000024 	strne	r0, [r0], -r4, lsr #32
    36c4:	00000271 	andeq	r0, r0, r1, ror r2
    36c8:	0000987c 	andeq	r9, r0, ip, ror r8
    36cc:	0002b001 	andeq	fp, r2, r1
    36d0:	120d0100 	andne	r0, sp, #0
    36d4:	000003f1 	strdeq	r0, [r0], -r1
    36d8:	00988410 	addseq	r8, r8, r0, lsl r4
    36dc:	00052a00 	andeq	r2, r5, r0, lsl #20
    36e0:	50011100 	andpl	r1, r1, r0, lsl #2
    36e4:	00007702 	andeq	r7, r0, r2, lsl #14
    36e8:	987c1200 	ldmdals	ip!, {r9, ip}^
    36ec:	05360000 	ldreq	r0, [r6, #-0]!
    36f0:	90120000 	andsls	r0, r2, r0
    36f4:	36000098 			; <UNDEFINED> instruction: 0x36000098
    36f8:	00000005 	andeq	r0, r0, r5
    36fc:	1d000000 	stcne	0, cr0, [r0, #-0]
    3700:	0000020b 	andeq	r0, r0, fp, lsl #4
    3704:	000098a0 	andeq	r9, r0, r0, lsr #17
    3708:	00000050 	andeq	r0, r0, r0, asr r0
    370c:	052a9c01 	streq	r9, [sl, #-3073]!	; 0xfffff3ff
    3710:	180c0000 	stmdane	ip, {}	; <UNPREDICTABLE>
    3714:	89000002 	stmdbhi	r0, {r1}
    3718:	85000024 	strhi	r0, [r0, #-36]	; 0xffffffdc
    371c:	0d000024 	stceq	0, cr0, [r0, #-144]	; 0xffffff70
    3720:	00000224 	andeq	r0, r0, r4, lsr #4
    3724:	000098b0 			; <UNDEFINED> instruction: 0x000098b0
    3728:	0098b000 	addseq	fp, r8, r0
    372c:	00004000 	andeq	r4, r0, r0
    3730:	051c0100 	ldreq	r0, [ip, #-256]	; 0xffffff00
    3734:	0002310c 	andeq	r3, r2, ip, lsl #2
    3738:	0024ac00 	eoreq	sl, r4, r0, lsl #24
    373c:	0024aa00 	eoreq	sl, r4, r0, lsl #20
    3740:	023c0e00 	eorseq	r0, ip, #0, 28
    3744:	24c10000 	strbcs	r0, [r1], #0
    3748:	24bf0000 	ldrtcs	r0, [pc], #0	; 3750 <__code_start__-0x48b0>
    374c:	550f0000 	strpl	r0, [pc, #-0]	; 3754 <__code_start__-0x48ac>
    3750:	b0000002 	andlt	r0, r0, r2
    3754:	02000098 	andeq	r0, r0, #152, 0	; 0x98
    3758:	000098b0 			; <UNDEFINED> instruction: 0x000098b0
    375c:	00000014 	andeq	r0, r0, r4, lsl r0
    3760:	bc131301 	ldclt	3, cr1, [r3], {1}
    3764:	0e000004 	cdpeq	0, 0, cr0, cr0, cr4, {0}
    3768:	00000266 	andeq	r0, r0, r6, ror #4
    376c:	000024d8 	ldrdeq	r2, [r0], -r8
    3770:	000024d4 	ldrdeq	r2, [r0], -r4
    3774:	0002710f 	andeq	r7, r2, pc, lsl #2
    3778:	0098b400 	addseq	fp, r8, r0, lsl #8
    377c:	98b40100 	ldmls	r4!, {r8}
    3780:	000c0000 	andeq	r0, ip, r0
    3784:	0d010000 	stceq	0, cr0, [r1, #-0]
    3788:	0004a912 	andeq	sl, r4, r2, lsl r9
    378c:	98bc1000 	ldmls	ip!, {ip}
    3790:	052a0000 	streq	r0, [sl, #-0]!
    3794:	01110000 	tsteq	r1, r0
    3798:	040c0550 	streq	r0, [ip], #-1360	; 0xfffffab0
    379c:	00200030 	eoreq	r0, r0, r0, lsr r0
    37a0:	98b41200 	ldmls	r4!, {r9, ip}
    37a4:	05360000 	ldreq	r0, [r6, #-0]!
    37a8:	c4120000 	ldrgt	r0, [r2], #-0
    37ac:	36000098 			; <UNDEFINED> instruction: 0x36000098
    37b0:	00000005 	andeq	r0, r0, r5
    37b4:	00024713 	andeq	r4, r2, r3, lsl r7
    37b8:	0002c800 	andeq	ip, r2, r0, lsl #16
    37bc:	02481400 	subeq	r1, r8, #0, 8
    37c0:	550b0000 	strpl	r0, [fp, #-0]
    37c4:	c8000002 	stmdagt	r0, {r1}
    37c8:	02000098 	andeq	r0, r0, #152, 0	; 0x98
    37cc:	000002e0 	andeq	r0, r0, r0, ror #5
    37d0:	15171501 	ldrne	r1, [r7, #-1281]	; 0xfffffaff
    37d4:	000002e0 	andeq	r0, r0, r0, ror #5
    37d8:	0002660e 	andeq	r6, r2, lr, lsl #12
    37dc:	0024f800 	eoreq	pc, r4, r0, lsl #16
    37e0:	0024f600 	eoreq	pc, r4, r0, lsl #12
    37e4:	02711600 	rsbseq	r1, r1, #0, 12
    37e8:	98cc0000 	stmials	ip, {}^	; <UNPREDICTABLE>
    37ec:	00010000 	andeq	r0, r1, r0
    37f0:	01000003 	tsteq	r0, r3
    37f4:	0513120d 	ldreq	r1, [r3, #-525]	; 0xfffffdf3
    37f8:	d4100000 	ldrle	r0, [r0], #-0
    37fc:	2a000098 	bcs	3a64 <__code_start__-0x459c>
    3800:	11000005 	tstne	r0, r5
    3804:	77025001 	strvc	r5, [r2, -r1]
    3808:	12000000 	andne	r0, r0, #0, 0
    380c:	000098cc 	andeq	r9, r0, ip, asr #17
    3810:	00000536 	andeq	r0, r0, r6, lsr r5
    3814:	0098e012 	addseq	lr, r8, r2, lsl r0
    3818:	00053600 	andeq	r3, r5, r0, lsl #12
    381c:	00000000 	andeq	r0, r0, r0
    3820:	f11f0000 			; <UNDEFINED> instruction: 0xf11f0000
    3824:	f1000007 	cps	#7
    3828:	02000007 	andeq	r0, r0, #7, 0
    382c:	c71f0ac2 	ldrgt	r0, [pc, -r2, asr #21]
    3830:	c7000007 	strgt	r0, [r0, -r7]
    3834:	02000007 	andeq	r0, r0, #7, 0
    3838:	cd00069c 	stcgt	6, cr0, [r0, #-624]	; 0xfffffd90
    383c:	04000005 	streq	r0, [r0], #-5
    3840:	0013b600 	andseq	fp, r3, r0, lsl #12
    3844:	22010400 	andcs	r0, r1, #0, 8
    3848:	0c000009 	stceq	0, cr0, [r0], {9}
    384c:	00000861 	andeq	r0, r0, r1, ror #16
    3850:	000008d2 	ldrdeq	r0, [r0], -r2
    3854:	00009944 	andeq	r9, r0, r4, asr #18
    3858:	000001f0 	strdeq	r0, [r0], -r0	; <UNPREDICTABLE>
    385c:	00001d03 	andeq	r1, r0, r3, lsl #26
    3860:	69050402 	stmdbvs	r5, {r1, sl}
    3864:	0300746e 	movweq	r7, #1134	; 0x46e
    3868:	00ea0704 	rsceq	r0, sl, r4, lsl #14
    386c:	2c040000 	stccs	0, cr0, [r4], {-0}
    3870:	03000000 	movweq	r0, #0
    3874:	00770601 	rsbseq	r0, r7, r1, lsl #12
    3878:	02030000 	andeq	r0, r3, #0, 0
    387c:	00014905 	andeq	r4, r1, r5, lsl #18
    3880:	05040300 	streq	r0, [r4, #-768]	; 0xfffffd00
    3884:	0000010e 	andeq	r0, r0, lr, lsl #2
    3888:	09050803 	stmdbeq	r5, {r0, r1, fp}
    388c:	03000001 	movweq	r0, #1
    3890:	00750801 	rsbseq	r0, r5, r1, lsl #16
    3894:	02030000 	andeq	r0, r3, #0, 0
    3898:	00009007 	andeq	r9, r0, r7
    389c:	01660500 	cmneq	r6, r0, lsl #10
    38a0:	34050000 	strcc	r0, [r5], #-0
    38a4:	00006e19 	andeq	r6, r0, r9, lsl lr
    38a8:	07040300 	streq	r0, [r4, -r0, lsl #6]
    38ac:	000000e5 	andeq	r0, r0, r5, ror #1
    38b0:	e0070803 	and	r0, r7, r3, lsl #16
    38b4:	03000000 	movweq	r0, #0
    38b8:	007e0801 	rsbseq	r0, lr, r1, lsl #16
    38bc:	07060000 	streq	r0, [r6, -r0]
    38c0:	00005401 	andeq	r5, r0, r1, lsl #8
    38c4:	0e0c0400 	cfcpyseq	mvf0, mvf12
    38c8:	000000c2 	andeq	r0, r0, r2, asr #1
    38cc:	000a0c07 	andeq	r0, sl, r7, lsl #24
    38d0:	44070000 	strmi	r0, [r7], #-0
    38d4:	01000008 	tsteq	r0, r8
    38d8:	00088707 	andeq	r8, r8, r7, lsl #14
    38dc:	96070400 	strls	r0, [r7], -r0, lsl #8
    38e0:	05000008 	streq	r0, [r0, #-8]
    38e4:	0008a507 	andeq	sl, r8, r7, lsl #10
    38e8:	b4070600 	strlt	r0, [r7], #-1536	; 0xfffffa00
    38ec:	07000008 	streq	r0, [r0, -r8]
    38f0:	0009d507 	andeq	sp, r9, r7, lsl #10
    38f4:	c3070300 	movwgt	r0, #29440	; 0x7300
    38f8:	02000008 	andeq	r0, r0, #8, 0
    38fc:	08550800 	ldmdaeq	r5, {fp}^
    3900:	022c0000 	eoreq	r0, ip, #0, 0
    3904:	015e0806 	cmpeq	lr, r6, lsl #16
    3908:	69090000 	stmdbvs	r9, {}	; <UNPREDICTABLE>
    390c:	0902006f 	stmdbeq	r2, {r0, r1, r2, r3, r5, r6}
    3910:	00003309 	andeq	r3, r0, r9, lsl #6
    3914:	69090000 	stmdbvs	r9, {}	; <UNPREDICTABLE>
    3918:	02007265 	andeq	r7, r0, #1342177286	; 0x50000006
    391c:	0033090a 	eorseq	r0, r3, sl, lsl #18
    3920:	09040000 	stmdbeq	r4, {}	; <UNPREDICTABLE>
    3924:	00726969 	rsbseq	r6, r2, r9, ror #18
    3928:	33091102 	movwcc	r1, #37122	; 0x9102
    392c:	08000000 	stmdaeq	r0, {}	; <UNPREDICTABLE>
    3930:	72636c09 	rsbvc	r6, r3, #2304	; 0x900
    3934:	09130200 	ldmdbeq	r3, {r9}
    3938:	00000033 	andeq	r0, r0, r3, lsr r0
    393c:	636d090c 	cmnvs	sp, #12, 18	; 0x30000
    3940:	14020072 	strne	r0, [r2], #-114	; 0xffffff8e
    3944:	00003309 	andeq	r3, r0, r9, lsl #6
    3948:	6c091000 	stcvs	0, cr1, [r9], {-0}
    394c:	02007273 	andeq	r7, r0, #805306375	; 0x30000007
    3950:	00330915 	eorseq	r0, r3, r5, lsl r9
    3954:	09140000 	ldmdbeq	r4, {}	; <UNPREDICTABLE>
    3958:	0072736d 	rsbseq	r7, r2, sp, ror #6
    395c:	33091602 	movwcc	r1, #38402	; 0x9602
    3960:	18000000 	stmdane	r0, {}	; <UNPREDICTABLE>
    3964:	0009ec0a 	andeq	lr, r9, sl, lsl #24
    3968:	09170200 	ldmdbeq	r7, {r9}
    396c:	00000033 	andeq	r0, r0, r3, lsr r0
    3970:	09b50a1c 	ldmibeq	r5!, {r2, r3, r4, r9, fp}
    3974:	1b020000 	blne	8397c <__bss_end__+0x78aa4>
    3978:	00003309 	andeq	r3, r0, r9, lsl #6
    397c:	310a2000 	mrscc	r2, (UNDEF: 10)
    3980:	02000008 	andeq	r0, r0, #8, 0
    3984:	0033091d 	eorseq	r0, r3, sp, lsl r9
    3988:	0a240000 	beq	903990 <__bss_end__+0x8f8ab8>
    398c:	00000907 	andeq	r0, r0, r7, lsl #18
    3990:	33091e02 	movwcc	r1, #40450	; 0x9e02
    3994:	28000000 	stmdacs	r0, {}	; <UNPREDICTABLE>
    3998:	090c0b00 	stmdbeq	ip, {r8, r9, fp}
    399c:	08010000 	stmdaeq	r1, {}	; <UNPREDICTABLE>
    39a0:	00017409 	andeq	r7, r1, r9, lsl #8
    39a4:	21500400 	cmpcs	r0, r0, lsl #8
    39a8:	33040c20 	movwcc	r0, #19488	; 0x4c20
    39ac:	0d000000 	stceq	0, cr0, [r0, #-0]
    39b0:	0000016e 	andeq	r0, r0, lr, ror #2
    39b4:	0009f40b 	andeq	pc, r9, fp, lsl #8
    39b8:	23290100 			; <UNDEFINED> instruction: 0x23290100
    39bc:	0000018f 	andeq	r0, r0, pc, lsl #3
    39c0:	20215040 	eorcs	r5, r1, r0, asr #32
    39c4:	00c2040c 	sbceq	r0, r2, ip, lsl #8
    39c8:	890d0000 	stmdbhi	sp, {}	; <UNPREDICTABLE>
    39cc:	0e000001 	cdpeq	0, 0, cr0, cr0, cr1, {0}
    39d0:	000006df 	ldrdeq	r0, [r0], -pc	; <UNPREDICTABLE>
    39d4:	fc06cc01 	stc2	12, cr12, [r6], {1}
    39d8:	1400009a 	strne	r0, [r0], #-154	; 0xffffff66
    39dc:	01000000 	mrseq	r0, (UNDEF: 0)
    39e0:	0001b49c 	muleq	r1, ip, r4
    39e4:	9b040f00 	blls	1075ec <__bss_end__+0xfc714>
    39e8:	01b40000 			; <UNDEFINED> instruction: 0x01b40000
    39ec:	10000000 	andne	r0, r0, r0
    39f0:	00000876 	andeq	r0, r0, r6, ror r8
    39f4:	2505b601 	strcs	fp, [r5, #-1537]	; 0xfffff9ff
    39f8:	dc000000 	stcle	0, cr0, [r0], {-0}
    39fc:	2000009a 	mulcs	r0, sl, r0
    3a00:	01000000 	mrseq	r0, (UNDEF: 0)
    3a04:	0001eb9c 	muleq	r1, ip, fp
    3a08:	9ae40f00 	bls	ff907610 <__bss_end__+0xff8fc738>
    3a0c:	05a00000 	streq	r0, [r0, #0]!
    3a10:	ec110000 	ldc	0, cr0, [r1], {-0}
    3a14:	ac00009a 	stcge	0, cr0, [r0], {154}	; 0x9a
    3a18:	12000005 	andne	r0, r0, #5, 0
    3a1c:	0c055001 	stceq	0, cr5, [r5], {1}
    3a20:	20215064 	eorcs	r5, r1, r4, rrx
    3a24:	c7100000 	ldrgt	r0, [r0, -r0]
    3a28:	01000009 	tsteq	r0, r9
    3a2c:	002505b3 	strhteq	r0, [r5], -r3
    3a30:	9acc0000 	bls	ff303a38 <__bss_end__+0xff2f8b60>
    3a34:	00100000 	andseq	r0, r0, r0
    3a38:	9c010000 	stcls	0, cr0, [r1], {-0}
    3a3c:	00000218 	andeq	r0, r0, r8, lsl r2
    3a40:	009ad40f 	addseq	sp, sl, pc, lsl #8
    3a44:	0005a000 	andeq	sl, r5, r0
    3a48:	9ad80f00 	bls	ff607650 <__bss_end__+0xff5fc778>
    3a4c:	03090000 	movweq	r0, #36864	; 0x9000
    3a50:	0e000000 	cdpeq	0, 0, cr0, cr0, cr0, {0}
    3a54:	00000a02 	andeq	r0, r0, r2, lsl #20
    3a58:	9c06ab01 			; <UNDEFINED> instruction: 0x9c06ab01
    3a5c:	3000009a 	mulcc	r0, sl, r0
    3a60:	01000000 	mrseq	r0, (UNDEF: 0)
    3a64:	00027c9c 	muleq	r2, ip, ip
    3a68:	00631300 	rsbeq	r1, r3, r0, lsl #6
    3a6c:	2c19ab01 			; <UNDEFINED> instruction: 0x2c19ab01
    3a70:	0f000000 	svceq	0x00000000
    3a74:	0b000025 	bleq	3b10 <__code_start__-0x44f0>
    3a78:	0f000025 	svceq	0x00000025
    3a7c:	00009aa8 	andeq	r9, r0, r8, lsr #21
    3a80:	000005a0 	andeq	r0, r0, r0, lsr #11
    3a84:	009aac0f 	addseq	sl, sl, pc, lsl #24
    3a88:	0002db00 	andeq	sp, r2, r0, lsl #22
    3a8c:	9ac01400 	bls	ff008a94 <__bss_end__+0xfeffdbbc>
    3a90:	05b80000 	ldreq	r0, [r8, #0]!
    3a94:	02720000 	rsbseq	r0, r2, #0, 0
    3a98:	01120000 	tsteq	r2, r0
    3a9c:	400c0550 	andmi	r0, ip, r0, asr r5
    3aa0:	12202150 	eorne	r2, r0, #20
    3aa4:	74055101 	strvc	r5, [r5], #-257	; 0xfffffeff
    3aa8:	1aff0800 	bne	fffc5ab0 <__bss_end__+0xfffbabd8>
    3aac:	9ac40f00 	bls	ff1076b4 <__bss_end__+0xff0fc7dc>
    3ab0:	05a00000 	streq	r0, [r0, #0]!
    3ab4:	10000000 	andne	r0, r0, r0
    3ab8:	00000918 	andeq	r0, r0, r8, lsl r9
    3abc:	2505a301 	strcs	sl, [r5, #-769]	; 0xfffffcff
    3ac0:	6c000000 	stcvs	0, cr0, [r0], {-0}
    3ac4:	3000009a 	mulcc	r0, sl, r0
    3ac8:	01000000 	mrseq	r0, (UNDEF: 0)
    3acc:	0002db9c 	muleq	r2, ip, fp
    3ad0:	00631500 	rsbeq	r1, r3, r0, lsl #10
    3ad4:	2509a701 	strcs	sl, [r9, #-1793]	; 0xfffff8ff
    3ad8:	2f000000 	svccs	0x00000000
    3adc:	2d000025 	stccs	0, cr0, [r0, #-148]	; 0xffffff6c
    3ae0:	0f000025 	svceq	0x00000025
    3ae4:	00009a74 	andeq	r9, r0, r4, ror sl
    3ae8:	000005a0 	andeq	r0, r0, r0, lsr #11
    3aec:	009a780f 	addseq	r7, sl, pc, lsl #16
    3af0:	00030900 	andeq	r0, r3, r0, lsl #18
    3af4:	9a881400 	bls	fe208afc <__bss_end__+0xfe1fdc24>
    3af8:	05ac0000 	streq	r0, [ip, #0]!
    3afc:	02d10000 	sbcseq	r0, r1, #0, 0
    3b00:	01120000 	tsteq	r2, r0
    3b04:	400c0550 	andmi	r0, ip, r0, asr r5
    3b08:	00202150 	eoreq	r2, r0, r0, asr r1
    3b0c:	009a900f 	addseq	r9, sl, pc
    3b10:	0005a000 	andeq	sl, r5, r0
    3b14:	68100000 	ldmdavs	r0, {}	; <UNPREDICTABLE>
    3b18:	01000008 	tsteq	r0, r8
    3b1c:	00250594 	mlaeq	r5, r4, r5, r0
    3b20:	9a4c0000 	bls	1303b28 <__bss_end__+0x12f8c50>
    3b24:	00200000 	eoreq	r0, r0, r0
    3b28:	9c010000 	stcls	0, cr0, [r1], {-0}
    3b2c:	00000309 	andeq	r0, r0, r9, lsl #6
    3b30:	009a5811 	addseq	r5, sl, r1, lsl r8
    3b34:	0005ac00 	andeq	sl, r5, r0, lsl #24
    3b38:	50011200 	andpl	r1, r1, r0, lsl #4
    3b3c:	50640c05 	rsbpl	r0, r4, r5, lsl #24
    3b40:	00002021 	andeq	r2, r0, r1, lsr #32
    3b44:	00083610 	andeq	r3, r8, r0, lsl r6
    3b48:	058b0100 	streq	r0, [fp, #256]	; 0x100
    3b4c:	00000025 	andeq	r0, r0, r5, lsr #32
    3b50:	00009a34 	andeq	r9, r0, r4, lsr sl
    3b54:	00000018 	andeq	r0, r0, r8, lsl r0
    3b58:	03379c01 	teqeq	r7, #256	; 0x100
    3b5c:	40110000 	andsmi	r0, r1, r0
    3b60:	ac00009a 	stcge	0, cr0, [r0], {154}	; 0x9a
    3b64:	12000005 	andne	r0, r0, #5, 0
    3b68:	0c055001 	stceq	0, cr5, [r5], {1}
    3b6c:	20215064 	eorcs	r5, r1, r4, rrx
    3b70:	fd0e0000 	stc2	0, cr0, [lr, #-0]
    3b74:	01000006 	tsteq	r0, r6
    3b78:	99840645 	stmibls	r4, {r0, r2, r6, r9, sl}
    3b7c:	00b00000 	adcseq	r0, r0, r0
    3b80:	9c010000 	stcls	0, cr0, [r1], {-0}
    3b84:	00000484 	andeq	r0, r0, r4, lsl #9
    3b88:	00082816 	andeq	r2, r8, r6, lsl r8
    3b8c:	0e7e0100 	rpweqe	f0, f6, f0
    3b90:	00000062 	andeq	r0, r0, r2, rrx
    3b94:	9414010e 	ldrls	r0, [r4], #-270	; 0xfffffef2
    3b98:	c4000099 	strgt	r0, [r0], #-153	; 0xffffff67
    3b9c:	73000005 	movwvc	r0, #5
    3ba0:	12000003 	andne	r0, r0, #3, 0
    3ba4:	3e015001 	cdpcc	0, 0, cr5, cr1, cr1, {0}
    3ba8:	01510112 	cmpeq	r1, r2, lsl r1
    3bac:	a0140032 	andsge	r0, r4, r2, lsr r0
    3bb0:	c4000099 	strgt	r0, [r0], #-153	; 0xffffff67
    3bb4:	8b000005 	blhi	3bd0 <__code_start__-0x4430>
    3bb8:	12000003 	andne	r0, r0, #3, 0
    3bbc:	3f015001 	svccc	0x00015001
    3bc0:	01510112 	cmpeq	r1, r2, lsl r1
    3bc4:	a40f0032 	strge	r0, [pc], #-50	; 3bcc <__code_start__-0x4434>
    3bc8:	a0000099 	mulge	r0, r9, r0
    3bcc:	14000005 	strne	r0, [r0], #-5
    3bd0:	000099b0 			; <UNDEFINED> instruction: 0x000099b0
    3bd4:	0000053d 	andeq	r0, r0, sp, lsr r5
    3bd8:	000003b0 			; <UNDEFINED> instruction: 0x000003b0
    3bdc:	05500112 	ldrbeq	r0, [r0, #-274]	; 0xfffffeee
    3be0:	2150040c 	cmpcs	r0, ip, lsl #8
    3be4:	51011220 	tstpl	r1, r0, lsr #4
    3be8:	0f003101 	svceq	0x00003101
    3bec:	000099b4 			; <UNDEFINED> instruction: 0x000099b4
    3bf0:	000005a0 	andeq	r0, r0, r0, lsr #11
    3bf4:	0099c414 	addseq	ip, r9, r4, lsl r4
    3bf8:	0005b800 	andeq	fp, r5, r0, lsl #16
    3bfc:	0003d200 	andeq	sp, r3, r0, lsl #4
    3c00:	50011200 	andpl	r1, r1, r0, lsl #4
    3c04:	12007402 	andne	r7, r0, #33554432	; 0x2000000
    3c08:	30015101 	andcc	r5, r1, r1, lsl #2
    3c0c:	99d01400 	ldmibls	r0, {sl, ip}^
    3c10:	05b80000 	ldreq	r0, [r8, #0]!
    3c14:	03ee0000 	mvneq	r0, #0, 0
    3c18:	01120000 	tsteq	r2, r0
    3c1c:	440c0550 	strmi	r0, [ip], #-1360	; 0xfffffab0
    3c20:	12202150 	eorne	r2, r0, #20
    3c24:	30015101 	andcc	r5, r1, r1, lsl #2
    3c28:	99dc1400 	ldmibls	ip, {sl, ip}^
    3c2c:	05b80000 	ldreq	r0, [r8, #0]!
    3c30:	040a0000 	streq	r0, [sl], #-0
    3c34:	01120000 	tsteq	r2, r0
    3c38:	4c0c0550 	cfstr32mi	mvfx0, [ip], {80}	; 0x50
    3c3c:	12202150 	eorne	r2, r0, #20
    3c40:	33015101 	movwcc	r5, #4353	; 0x1101
    3c44:	99e81400 	stmibls	r8!, {sl, ip}^
    3c48:	05b80000 	ldreq	r0, [r8, #0]!
    3c4c:	04260000 	strteq	r0, [r6], #-0
    3c50:	01120000 	tsteq	r2, r0
    3c54:	500c0550 	andpl	r0, ip, r0, asr r5
    3c58:	12202150 	eorne	r2, r0, #20
    3c5c:	30015101 	andcc	r5, r1, r1, lsl #2
    3c60:	99f41400 	ldmibls	r4!, {sl, ip}^
    3c64:	05b80000 	ldreq	r0, [r8, #0]!
    3c68:	04430000 	strbeq	r0, [r3], #-0
    3c6c:	01120000 	tsteq	r2, r0
    3c70:	480c0550 	stmdami	ip, {r4, r6, r8, sl}
    3c74:	12202150 	eorne	r2, r0, #20
    3c78:	08025101 	stmdaeq	r2, {r0, r8, ip, lr}
    3c7c:	001400c7 	andseq	r0, r4, r7, asr #1
    3c80:	b800009a 	stmdalt	r0, {r1, r3, r4, r7}
    3c84:	61000005 	tstvs	r0, r5
    3c88:	12000004 	andne	r0, r0, #4, 0
    3c8c:	0c055001 	stceq	0, cr5, [r5], {1}
    3c90:	20215068 	eorcs	r5, r1, r8, rrx
    3c94:	03510112 	cmpeq	r1, #-2147483644	; 0x80000004
    3c98:	00010e0a 	andeq	r0, r1, sl, lsl #28
    3c9c:	009a0c14 	addseq	r0, sl, r4, lsl ip
    3ca0:	0005b800 	andeq	fp, r5, r0, lsl #16
    3ca4:	00047a00 	andeq	r7, r4, r0, lsl #20
    3ca8:	50011200 	andpl	r1, r1, r0, lsl #4
    3cac:	12007402 	andne	r7, r0, #33554432	; 0x2000000
    3cb0:	33015101 	movwcc	r5, #4353	; 0x1101
    3cb4:	9a100f00 	bls	4078bc <__bss_end__+0x3fc9e4>
    3cb8:	05a00000 	streq	r0, [r0, #0]!
    3cbc:	0e000000 	cdpeq	0, 0, cr0, cr0, cr0, {0}
    3cc0:	000009ba 			; <UNDEFINED> instruction: 0x000009ba
    3cc4:	10063501 	andne	r3, r6, r1, lsl #10
    3cc8:	2400009b 	strcs	r0, [r0], #-155	; 0xffffff65
    3ccc:	01000000 	mrseq	r0, (UNDEF: 0)
    3cd0:	0004d39c 	muleq	r4, ip, r3
    3cd4:	9b180f00 	blls	6078dc <__bss_end__+0x5fca04>
    3cd8:	01940000 	orrseq	r0, r4, r0
    3cdc:	1c0f0000 	stcne	0, cr0, [pc], {-0}
    3ce0:	a000009b 	mulge	r0, fp, r0
    3ce4:	14000005 	strne	r0, [r0], #-5
    3ce8:	00009b28 	andeq	r9, r0, r8, lsr #22
    3cec:	000004d3 	ldrdeq	r0, [r0], -r3
    3cf0:	000004c9 	andeq	r0, r0, r9, asr #9
    3cf4:	05500112 	ldrbeq	r0, [r0, #-274]	; 0xfffffeee
    3cf8:	2150040c 	cmpcs	r0, ip, lsl #8
    3cfc:	51011220 	tstpl	r1, r0, lsr #4
    3d00:	00fe0902 	rscseq	r0, lr, r2, lsl #18
    3d04:	009b2c0f 	addseq	r2, fp, pc, lsl #24
    3d08:	0005a000 	andeq	sl, r5, r0
    3d0c:	f9170000 			; <UNDEFINED> instruction: 0xf9170000
    3d10:	01000009 	tsteq	r0, r9
    3d14:	99440d31 	stmdbls	r4, {r0, r4, r5, r8, sl, fp}^
    3d18:	00200000 	eoreq	r0, r0, r0
    3d1c:	9c010000 	stcls	0, cr0, [r1], {-0}
    3d20:	00000536 	andeq	r0, r0, r6, lsr r5
    3d24:	000a5318 	andeq	r5, sl, r8, lsl r3
    3d28:	25310100 	ldrcs	r0, [r1, #-256]!	; 0xffffff00
    3d2c:	00000536 	andeq	r0, r0, r6, lsr r5
    3d30:	00002546 	andeq	r2, r0, r6, asr #10
    3d34:	00002542 	andeq	r2, r0, r2, asr #10
    3d38:	6c617613 	stclvs	6, cr7, [r1], #-76	; 0xffffffb4
    3d3c:	34310100 	ldrtcc	r0, [r1], #-256	; 0xffffff00
    3d40:	0000002c 	andeq	r0, r0, ip, lsr #32
    3d44:	00002568 	andeq	r2, r0, r8, ror #10
    3d48:	00002564 	andeq	r2, r0, r4, ror #10
    3d4c:	00995414 	addseq	r5, r9, r4, lsl r4
    3d50:	0005ac00 	andeq	sl, r5, r0, lsl #24
    3d54:	00052500 	andeq	r2, r5, r0, lsl #10
    3d58:	50011200 	andpl	r1, r1, r0, lsl #4
    3d5c:	00007402 	andeq	r7, r0, r2, lsl #8
    3d60:	00996011 	addseq	r6, r9, r1, lsl r0
    3d64:	0005b800 	andeq	fp, r5, r0, lsl #16
    3d68:	50011200 	andpl	r1, r1, r0, lsl #4
    3d6c:	00007402 	andeq	r7, r0, r2, lsl #8
    3d70:	3c040c00 	stccc	12, cr0, [r4], {-0}
    3d74:	19000005 	stmdbne	r0, {r0, r2}
    3d78:	0009e417 	andeq	lr, r9, r7, lsl r4
    3d7c:	0d2e0100 	stfeqs	f0, [lr, #-0]
    3d80:	00009964 	andeq	r9, r0, r4, ror #18
    3d84:	00000020 	andeq	r0, r0, r0, lsr #32
    3d88:	05a09c01 	streq	r9, [r0, #3073]!	; 0xc01
    3d8c:	53180000 	tstpl	r8, #0, 0
    3d90:	0100000a 	tsteq	r0, sl
    3d94:	0536242e 	ldreq	r2, [r6, #-1070]!	; 0xfffffbd2
    3d98:	258a0000 	strcs	r0, [sl]
    3d9c:	25860000 	strcs	r0, [r6]
    3da0:	76130000 	ldrvc	r0, [r3], -r0
    3da4:	01006c61 	tsteq	r0, r1, ror #24
    3da8:	002c332e 	eoreq	r3, ip, lr, lsr #6
    3dac:	25ac0000 	strcs	r0, [ip, #0]!
    3db0:	25a80000 	strcs	r0, [r8, #0]!
    3db4:	74140000 	ldrvc	r0, [r4], #-0
    3db8:	ac000099 	stcge	0, cr0, [r0], {153}	; 0x99
    3dbc:	8f000005 	svchi	0x00000005
    3dc0:	12000005 	andne	r0, r0, #5, 0
    3dc4:	74025001 	strvc	r5, [r2], #-1
    3dc8:	80110000 	andshi	r0, r1, r0
    3dcc:	b8000099 	stmdalt	r0, {r0, r3, r4, r7}
    3dd0:	12000005 	andne	r0, r0, #5, 0
    3dd4:	74025001 	strvc	r5, [r2], #-1
    3dd8:	1a000000 	bne	3de0 <__code_start__-0x4220>
    3ddc:	000007c7 	andeq	r0, r0, r7, asr #15
    3de0:	000007c7 	andeq	r0, r0, r7, asr #15
    3de4:	1a069c03 	bne	1aadf8 <__bss_end__+0x19ff20>
    3de8:	00000a2e 	andeq	r0, r0, lr, lsr #20
    3dec:	00000a2e 	andeq	r0, r0, lr, lsr #20
    3df0:	1a0bc303 	bne	2f4a04 <__bss_end__+0x2e9b2c>
    3df4:	00000822 	andeq	r0, r0, r2, lsr #16
    3df8:	00000822 	andeq	r0, r0, r2, lsr #16
    3dfc:	1a06ae03 	bne	1af610 <__bss_end__+0x1a4738>
    3e00:	00000a1c 	andeq	r0, r0, ip, lsl sl
    3e04:	00000a1c 	andeq	r0, r0, ip, lsl sl
    3e08:	00061904 	andeq	r1, r6, r4, lsl #18
    3e0c:	000008e9 	andeq	r0, r0, r9, ror #17
    3e10:	154e0004 	strbne	r0, [lr, #-4]
    3e14:	01040000 	mrseq	r0, (UNDEF: 4)
    3e18:	00000922 	andeq	r0, r0, r2, lsr #18
    3e1c:	000abe0c 	andeq	fp, sl, ip, lsl #28
    3e20:	0008d200 	andeq	sp, r8, r0, lsl #4
    3e24:	009b3400 	addseq	r3, fp, r0, lsl #8
    3e28:	0003b000 	andeq	fp, r3, r0
    3e2c:	001f0b00 	andseq	r0, pc, r0, lsl #22
    3e30:	05040200 	streq	r0, [r4, #-512]	; 0xfffffe00
    3e34:	00746e69 	rsbseq	r6, r4, r9, ror #28
    3e38:	ea070403 	b	1c4e4c <__bss_end__+0x1b9f74>
    3e3c:	03000000 	movweq	r0, #0
    3e40:	00770601 	rsbseq	r0, r7, r1, lsl #12
    3e44:	02030000 	andeq	r0, r3, #0, 0
    3e48:	00014905 	andeq	r4, r1, r5, lsl #18
    3e4c:	05040300 	streq	r0, [r4, #-768]	; 0xfffffd00
    3e50:	0000010e 	andeq	r0, r0, lr, lsl #2
    3e54:	09050803 	stmdbeq	r5, {r0, r1, fp}
    3e58:	03000001 	movweq	r0, #1
    3e5c:	00750801 	rsbseq	r0, r5, r1, lsl #16
    3e60:	02030000 	andeq	r0, r3, #0, 0
    3e64:	00009007 	andeq	r9, r0, r7
    3e68:	01660400 	cmneq	r6, r0, lsl #8
    3e6c:	34030000 	strcc	r0, [r3], #-0
    3e70:	00006919 	andeq	r6, r0, r9, lsl r9
    3e74:	07040300 	streq	r0, [r4, -r0, lsl #6]
    3e78:	000000e5 	andeq	r0, r0, r5, ror #1
    3e7c:	e0070803 	and	r0, r7, r3, lsl #16
    3e80:	03000000 	movweq	r0, #0
    3e84:	007e0801 	rsbseq	r0, lr, r1, lsl #16
    3e88:	77050000 	strvc	r0, [r5, -r0]
    3e8c:	03000000 	movweq	r0, #0
    3e90:	033f0408 	teqeq	pc, #8, 8	; 0x8000000
    3e94:	04060000 	streq	r0, [r6], #-0
    3e98:	2c040707 	stccs	7, cr0, [r4], {7}
    3e9c:	01000000 	mrseq	r0, (UNDEF: 0)
    3ea0:	00a4061f 	adceq	r0, r4, pc, lsl r6
    3ea4:	58080000 	stmdapl	r8, {}	; <UNPREDICTABLE>
    3ea8:	0000000a 	andeq	r0, r0, sl
    3eac:	00002000 	andeq	r2, r0, r0
    3eb0:	00062809 	andeq	r2, r6, r9, lsl #16
    3eb4:	0d220100 	stfeqs	f0, [r2, #-0]
    3eb8:	00000077 	andeq	r0, r0, r7, ror r0
    3ebc:	0004140a 	andeq	r1, r4, sl, lsl #8
    3ec0:	0e230100 	sufeqs	f0, f3, f0
    3ec4:	000000c2 	andeq	r0, r0, r2, asr #1
    3ec8:	aaa00305 	bge	fe804ae4 <__bss_end__+0xfe7f9c0c>
    3ecc:	040b0000 	streq	r0, [fp], #-0
    3ed0:	00000077 	andeq	r0, r0, r7, ror r0
    3ed4:	000a3c0a 	andeq	r3, sl, sl, lsl #24
    3ed8:	0e240100 	sufeqs	f0, f4, f0
    3edc:	000000c2 	andeq	r0, r0, r2, asr #1
    3ee0:	aaa40305 	bge	fe904afc <__bss_end__+0xfe8f9c24>
    3ee4:	9d0a0000 	stcls	0, cr0, [sl, #-0]
    3ee8:	0100000a 	tsteq	r0, sl
    3eec:	00c20e25 	sbceq	r0, r2, r5, lsr #28
    3ef0:	03050000 	movweq	r0, #20480	; 0x5000
    3ef4:	0000aaa8 	andeq	sl, r0, r8, lsr #21
    3ef8:	000a730c 	andeq	r7, sl, ip, lsl #6
    3efc:	06750100 	ldrbteq	r0, [r5], -r0, lsl #2
    3f00:	00009e84 	andeq	r9, r0, r4, lsl #29
    3f04:	00000060 	andeq	r0, r0, r0, rrx
    3f08:	01649c01 	cmneq	r4, r1, lsl #24
    3f0c:	700d0000 	andvc	r0, sp, r0
    3f10:	16750100 	ldrbtne	r0, [r5], -r0, lsl #2
    3f14:	0000008a 	andeq	r0, r0, sl, lsl #1
    3f18:	000025d0 	ldrdeq	r2, [r0], -r0
    3f1c:	000025ca 	andeq	r2, r0, sl, asr #11
    3f20:	0000c40e 	andeq	ip, r0, lr, lsl #8
    3f24:	00017400 	andeq	r7, r1, r0, lsl #8
    3f28:	90030500 	andls	r0, r3, r0, lsl #10
    3f2c:	0f0000aa 	svceq	0x000000aa
    3f30:	00009ed0 	ldrdeq	r9, [r0], -r0
    3f34:	000008bc 			; <UNDEFINED> instruction: 0x000008bc
    3f38:	0000015a 	andeq	r0, r0, sl, asr r1
    3f3c:	05500110 	ldrbeq	r0, [r0, #-272]	; 0xfffffef0
    3f40:	00aa0803 	adceq	r0, sl, r3, lsl #16
    3f44:	51011000 	mrspl	r1, (UNDEF: 1)
    3f48:	a8a00305 	stmiage	r0!, {r0, r2, r8, r9}
    3f4c:	01100000 	tsteq	r0, r0
    3f50:	90030552 	andls	r0, r3, r2, asr r5
    3f54:	100000aa 	andne	r0, r0, sl, lsr #1
    3f58:	08025301 	stmdaeq	r2, {r0, r8, r9, ip, lr}
    3f5c:	7d021077 	stcvc	0, cr1, [r2, #-476]	; 0xfffffe24
    3f60:	01f30300 	mvnseq	r0, r0, lsl #6
    3f64:	d4110050 	ldrle	r0, [r1], #-80	; 0xffffffb0
    3f68:	c800009e 	stmdagt	r0, {r1, r2, r3, r4, r7}
    3f6c:	00000008 	andeq	r0, r0, r8
    3f70:	00007e12 	andeq	r7, r0, r2, lsl lr
    3f74:	00017400 	andeq	r7, r1, r0, lsl #8
    3f78:	002c1300 	eoreq	r1, ip, r0, lsl #6
    3f7c:	00090000 	andeq	r0, r9, r0
    3f80:	00016405 	andeq	r6, r1, r5, lsl #8
    3f84:	0a611400 	beq	1848f8c <__bss_end__+0x183e0b4>
    3f88:	72010000 	andvc	r0, r1, #0, 0
    3f8c:	009e7006 	addseq	r7, lr, r6
    3f90:	00001400 	andeq	r1, r0, r0, lsl #8
    3f94:	0c9c0100 	ldfeqs	f0, [ip], {0}
    3f98:	0000028e 	andeq	r0, r0, lr, lsl #5
    3f9c:	6c066f01 	stcvs	15, cr6, [r6], {1}
    3fa0:	0400009e 	streq	r0, [r0], #-158	; 0xffffff62
    3fa4:	01000000 	mrseq	r0, (UNDEF: 0)
    3fa8:	0001ae9c 	muleq	r1, ip, lr
    3fac:	00701500 	rsbseq	r1, r0, r0, lsl #10
    3fb0:	8a126f01 	bhi	49fbbc <__bss_end__+0x494ce4>
    3fb4:	01000000 	mrseq	r0, (UNDEF: 0)
    3fb8:	00160050 	andseq	r0, r6, r0, asr r0
    3fbc:	0100000b 	tsteq	r0, fp
    3fc0:	008a075e 	addeq	r0, sl, lr, asr r7
    3fc4:	9d540000 	ldclls	0, cr0, [r4, #-0]
    3fc8:	01180000 	tsteq	r8, r0
    3fcc:	9c010000 	stcls	0, cr0, [r1], {-0}
    3fd0:	0000042c 	andeq	r0, r0, ip, lsr #8
    3fd4:	00030217 	andeq	r0, r3, r7, lsl r2
    3fd8:	205e0100 	subscs	r0, lr, r0, lsl #2
    3fdc:	0000002c 	andeq	r0, r0, ip, lsr #32
    3fe0:	00002611 	andeq	r2, r0, r1, lsl r6
    3fe4:	000025fd 	strdeq	r2, [r0], -sp
    3fe8:	000a7d17 	andeq	r7, sl, r7, lsl sp
    3fec:	315e0100 	cmpcc	lr, r0, lsl #2
    3ff0:	0000002c 	andeq	r0, r0, ip, lsr #32
    3ff4:	000026aa 	andeq	r2, r0, sl, lsr #13
    3ff8:	00002696 	muleq	r0, r6, r6
    3ffc:	0000c40e 	andeq	ip, r0, lr, lsl #8
    4000:	00043c00 	andeq	r3, r4, r0, lsl #24
    4004:	78030500 	stmdavc	r3, {r8, sl}
    4008:	180000aa 	stmdane	r0, {r1, r3, r5, r7}
    400c:	66010068 	strvs	r0, [r1], -r8, rrx
    4010:	00002c0e 	andeq	r2, r0, lr, lsl #24
    4014:	00276000 	eoreq	r6, r7, r0
    4018:	00275400 	eoreq	r5, r7, r0, lsl #8
    401c:	08541900 	ldmdaeq	r4, {r8, fp, ip}^
    4020:	9d640000 	stclls	0, cr0, [r4, #-0]
    4024:	64040000 	strvs	r0, [r4], #-0
    4028:	0400009d 	streq	r0, [r0], #-157	; 0xffffff63
    402c:	01000000 	mrseq	r0, (UNDEF: 0)
    4030:	02380560 	eorseq	r0, r8, #96, 10	; 0x18000000
    4034:	651a0000 	ldrvs	r0, [sl, #-0]
    4038:	b4000008 	strlt	r0, [r0], #-8
    403c:	b2000027 	andlt	r0, r0, #39, 0	; 0x27
    4040:	00000027 	andeq	r0, r0, r7, lsr #32
    4044:	00089619 	andeq	r9, r8, r9, lsl r6
    4048:	009d7000 	addseq	r7, sp, r0
    404c:	9d700200 	lfmls	f0, 2, [r0, #-0]
    4050:	00080000 	andeq	r0, r8, r0
    4054:	61010000 	mrsvs	r0, (UNDEF: 1)
    4058:	00026c11 	andeq	r6, r2, r1, lsl ip
    405c:	08b11a00 	ldmeq	r1!, {r9, fp, ip}
    4060:	27c90000 	strbcs	r0, [r9, r0]
    4064:	27c70000 	strbcs	r0, [r7, r0]
    4068:	a71a0000 	ldrge	r0, [sl, -r0]
    406c:	df000008 	svcle	0x00000008
    4070:	dd000027 	stcle	0, cr0, [r0, #-156]	; 0xffffff64
    4074:	00000027 	andeq	r0, r0, r7, lsr #32
    4078:	00081f1b 	andeq	r1, r8, fp, lsl pc
    407c:	009d8000 	addseq	r8, sp, r0
    4080:	03980100 	orrseq	r0, r8, #0
    4084:	67010000 	strvs	r0, [r1, -r0]
    4088:	00030a09 	andeq	r0, r3, r9, lsl #20
    408c:	083a1a00 	ldmdaeq	sl!, {r9, fp, ip}
    4090:	27f80000 	ldrbcs	r0, [r8, r0]!
    4094:	27f20000 	ldrbcs	r0, [r2, r0]!
    4098:	301a0000 	andscc	r0, sl, r0
    409c:	3f000008 	svccc	0x00000008
    40a0:	37000028 	strcc	r0, [r0, -r8, lsr #32]
    40a4:	1c000028 	stcne	0, cr0, [r0], {40}	; 0x28
    40a8:	00000398 	muleq	r0, r8, r3
    40ac:	00085419 	andeq	r5, r8, r9, lsl r4
    40b0:	009d8000 	addseq	r8, sp, r0
    40b4:	9d800400 	cfstrsls	mvf0, [r0]
    40b8:	00040000 	andeq	r0, r4, r0
    40bc:	11010000 	mrsne	r0, (UNDEF: 1)
    40c0:	0002c705 	andeq	ip, r2, r5, lsl #14
    40c4:	08651a00 	stmdaeq	r5!, {r9, fp, ip}^
    40c8:	287d0000 	ldmdacs	sp!, {}^	; <UNPREDICTABLE>
    40cc:	287b0000 	ldmdacs	fp!, {}^	; <UNPREDICTABLE>
    40d0:	0f000000 	svceq	0x00000000
    40d4:	00009e18 	andeq	r9, r0, r8, lsl lr
    40d8:	000008bc 			; <UNDEFINED> instruction: 0x000008bc
    40dc:	000002ff 	strdeq	r0, [r0], -pc	; <UNPREDICTABLE>
    40e0:	05500110 	ldrbeq	r0, [r0, #-272]	; 0xfffffef0
    40e4:	00a2ac03 	adceq	sl, r2, r3, lsl #24
    40e8:	51011000 	mrspl	r1, (UNDEF: 1)
    40ec:	a8a00305 	stmiage	r0!, {r0, r2, r8, r9}
    40f0:	01100000 	tsteq	r0, r0
    40f4:	88030552 	stmdahi	r3, {r1, r4, r6, r8, sl}
    40f8:	100000aa 	andne	r0, r0, sl, lsr #1
    40fc:	41015301 	tstmi	r1, r1, lsl #6
    4100:	007d0210 	rsbseq	r0, sp, r0, lsl r2
    4104:	a9b40305 	ldmibge	r4!, {r0, r2, r8, r9}
    4108:	11000000 	mrsne	r0, (UNDEF: 0)
    410c:	00009e1c 	andeq	r9, r0, ip, lsl lr
    4110:	000008c8 	andeq	r0, r0, r8, asr #17
    4114:	70190000 	andsvc	r0, r9, r0
    4118:	98000008 	stmdals	r0, {r3}
    411c:	0300009d 	movweq	r0, #157	; 0x9d
    4120:	00009d98 	muleq	r0, r8, sp
    4124:	00000004 	andeq	r0, r0, r4
    4128:	3e056801 	cdpcc	8, 0, cr6, cr5, cr1, {0}
    412c:	1a000003 	bne	4140 <__code_start__-0x3ec0>
    4130:	0000088b 	andeq	r0, r0, fp, lsl #17
    4134:	00002892 	muleq	r0, r2, r8
    4138:	00002890 	muleq	r0, r0, r8
    413c:	0008811a 	andeq	r8, r8, sl, lsl r1
    4140:	0028a700 	eoreq	sl, r8, r0, lsl #14
    4144:	0028a500 	eoreq	sl, r8, r0, lsl #10
    4148:	b00f0000 	andlt	r0, pc, r0
    414c:	4100009d 	swpmi	r0, sp, [r0]	; <UNPREDICTABLE>
    4150:	53000004 	movwpl	r0, #4
    4154:	10000003 	andne	r0, r0, r3
    4158:	f3035001 	vhadd.u8	d5, d3, d1
    415c:	0f005001 	svceq	0x00005001
    4160:	00009dd4 	ldrdeq	r9, [r0], -r4
    4164:	000008bc 			; <UNDEFINED> instruction: 0x000008bc
    4168:	0000038c 	andeq	r0, r0, ip, lsl #7
    416c:	05500110 	ldrbeq	r0, [r0, #-272]	; 0xfffffef0
    4170:	00a2ac03 	adceq	sl, r2, r3, lsl #24
    4174:	51011000 	mrspl	r1, (UNDEF: 1)
    4178:	a8a00305 	stmiage	r0!, {r0, r2, r8, r9}
    417c:	01100000 	tsteq	r0, r0
    4180:	78030552 	stmdavc	r3, {r1, r4, r6, r8, sl}
    4184:	100000aa 	andne	r0, r0, sl, lsr #1
    4188:	08025301 	stmdaeq	r2, {r0, r8, r9, ip, lr}
    418c:	7d02105f 	stcvc	0, cr1, [r2, #-380]	; 0xfffffe84
    4190:	b0030500 	andlt	r0, r3, r0, lsl #10
    4194:	000000a8 	andeq	r0, r0, r8, lsr #1
    4198:	009dd811 	addseq	sp, sp, r1, lsl r8
    419c:	0008c800 	andeq	ip, r8, r0, lsl #16
    41a0:	9ddc1100 	ldflse	f1, [ip]
    41a4:	08d40000 	ldmeq	r4, {}^	; <UNPREDICTABLE>
    41a8:	f80f0000 			; <UNDEFINED> instruction: 0xf80f0000
    41ac:	bc00009d 	stclt	0, cr0, [r0], {157}	; 0x9d
    41b0:	d7000008 	strle	r0, [r0, -r8]
    41b4:	10000003 	andne	r0, r0, r3
    41b8:	03055001 	movweq	r5, #20481	; 0x5001
    41bc:	0000a96c 	andeq	sl, r0, ip, ror #18
    41c0:	05510110 	ldrbeq	r0, [r1, #-272]	; 0xfffffef0
    41c4:	00a8a003 	adceq	sl, r8, r3
    41c8:	52011000 	andpl	r1, r1, #0, 0
    41cc:	aa780305 	bge	1e04de8 <__bss_end__+0x1df9f10>
    41d0:	01100000 	tsteq	r0, r0
    41d4:	60080253 	andvs	r0, r8, r3, asr r2
    41d8:	007d0210 	rsbseq	r0, sp, r0, lsl r2
    41dc:	a9a00305 	stmibge	r0!, {r0, r2, r8, r9}
    41e0:	11000000 	mrsne	r0, (UNDEF: 0)
    41e4:	00009dfc 	strdeq	r9, [r0], -ip
    41e8:	000008c8 	andeq	r0, r0, r8, asr #17
    41ec:	009e2011 	addseq	r2, lr, r1, lsl r0
    41f0:	0008d400 	andeq	sp, r8, r0, lsl #8
    41f4:	9e3c0f00 	cdpls	15, 3, cr0, cr12, cr0, {0}
    41f8:	08bc0000 	ldmeq	ip!, {}	; <UNPREDICTABLE>
    41fc:	04220000 	strteq	r0, [r2], #-0
    4200:	01100000 	tsteq	r0, r0
    4204:	c0030550 	andgt	r0, r3, r0, asr r5
    4208:	100000a9 	andne	r0, r0, r9, lsr #1
    420c:	03055101 	movweq	r5, #20737	; 0x5101
    4210:	0000a8a0 	andeq	sl, r0, r0, lsr #17
    4214:	05520110 	ldrbeq	r0, [r2, #-272]	; 0xfffffef0
    4218:	00aa7803 	adceq	r7, sl, r3, lsl #16
    421c:	53011000 	movwpl	r1, #4096	; 0x1000
    4220:	10680802 	rsbne	r0, r8, r2, lsl #16
    4224:	05007d02 	streq	r7, [r0, #-3330]	; 0xfffff2fe
    4228:	00a9ec03 	adceq	lr, r9, r3, lsl #24
    422c:	40110000 	andsmi	r0, r1, r0
    4230:	c800009e 	stmdagt	r0, {r1, r2, r3, r4, r7}
    4234:	00000008 	andeq	r0, r0, r8
    4238:	00007e12 	andeq	r7, r0, r2, lsl lr
    423c:	00043c00 	andeq	r3, r4, r0, lsl #24
    4240:	002c1300 	eoreq	r1, ip, r0, lsl #6
    4244:	000f0000 	andeq	r0, pc, r0
    4248:	00042c05 	andeq	r2, r4, r5, lsl #24
    424c:	04451600 	strbeq	r1, [r5], #-1536	; 0xfffffa00
    4250:	53010000 	movwpl	r0, #4096	; 0x1000
    4254:	00008a07 	andeq	r8, r0, r7, lsl #20
    4258:	009cf000 	addseq	pc, ip, r0
    425c:	00006400 	andeq	r6, r0, r0, lsl #8
    4260:	089c0100 	ldmeq	ip, {r8}
    4264:	17000005 	strne	r0, [r0, -r5]
    4268:	00000302 	andeq	r0, r0, r2, lsl #6
    426c:	2c185301 	ldccs	3, cr5, [r8], {1}
    4270:	c2000000 	andgt	r0, r0, #0, 0
    4274:	ba000028 	blt	431c <__code_start__-0x3ce4>
    4278:	0e000028 	cdpeq	0, 0, cr0, cr0, cr8, {1}
    427c:	000000c4 	andeq	r0, r0, r4, asr #1
    4280:	00000518 	andeq	r0, r0, r8, lsl r5
    4284:	aa700305 	bge	1c04ea0 <__bss_end__+0x1bf9fc8>
    4288:	531d0000 	tstpl	sp, #0, 0
    428c:	0100000a 	tsteq	r0, sl
    4290:	008a0b55 	addeq	r0, sl, r5, asr fp
    4294:	28fa0000 	ldmcs	sl!, {}^	; <UNPREDICTABLE>
    4298:	28f60000 	ldmcs	r6!, {}^	; <UNPREDICTABLE>
    429c:	080f0000 	stmdaeq	pc, {}	; <UNPREDICTABLE>
    42a0:	1d00009d 	stcne	0, cr0, [r0, #-628]	; 0xfffffd8c
    42a4:	a6000005 	strge	r0, [r0], -r5
    42a8:	10000004 	andne	r0, r0, r4
    42ac:	74025001 	strvc	r5, [r2], #-1
    42b0:	180f0000 	stmdane	pc, {}	; <UNPREDICTABLE>
    42b4:	e000009d 	mul	r0, sp, r0
    42b8:	c5000008 	strgt	r0, [r0, #-8]
    42bc:	10000004 	andne	r0, r0, r4
    42c0:	75025001 	strvc	r5, [r2, #-1]
    42c4:	51011000 	mrspl	r1, (UNDEF: 1)
    42c8:	01103001 	tsteq	r0, r1
    42cc:	00740252 	rsbseq	r0, r4, r2, asr r2
    42d0:	9d400f00 	stclls	15, cr0, [r0, #-0]
    42d4:	08bc0000 	ldmeq	ip!, {}	; <UNPREDICTABLE>
    42d8:	04fe0000 	ldrbteq	r0, [lr], #0
    42dc:	01100000 	tsteq	r0, r0
    42e0:	ac030550 	cfstr32ge	mvfx0, [r3], {80}	; 0x50
    42e4:	100000a2 	andne	r0, r0, r2, lsr #1
    42e8:	03055101 	movweq	r5, #20737	; 0x5101
    42ec:	0000a8a0 	andeq	sl, r0, r0, lsr #17
    42f0:	05520110 	ldrbeq	r0, [r2, #-272]	; 0xfffffef0
    42f4:	00aa7003 	adceq	r7, sl, r3
    42f8:	53011000 	movwpl	r1, #4096	; 0x1000
    42fc:	10540802 	subsne	r0, r4, r2, lsl #16
    4300:	05007d02 	streq	r7, [r0, #-3330]	; 0xfffff2fe
    4304:	00a8b003 	adceq	fp, r8, r3
    4308:	44110000 	ldrmi	r0, [r1], #-0
    430c:	c800009d 	stmdagt	r0, {r0, r2, r3, r4, r7}
    4310:	00000008 	andeq	r0, r0, r8
    4314:	00007e12 	andeq	r7, r0, r2, lsl lr
    4318:	00051800 	andeq	r1, r5, r0, lsl #16
    431c:	002c1300 	eoreq	r1, ip, r0, lsl #6
    4320:	00070000 	andeq	r0, r7, r0
    4324:	00050805 	andeq	r0, r5, r5, lsl #16
    4328:	0aa61600 	beq	fe989b30 <__bss_end__+0xfe97ec58>
    432c:	47010000 	strmi	r0, [r1, -r0]
    4330:	00008a07 	andeq	r8, r0, r7, lsl #20
    4334:	009c5800 	addseq	r5, ip, r0, lsl #16
    4338:	00009800 	andeq	r9, r0, r0, lsl #16
    433c:	2b9c0100 	blcs	fe704744 <__bss_end__+0xfe6f986c>
    4340:	17000006 	strne	r0, [r0, -r6]
    4344:	00000302 	andeq	r0, r0, r2, lsl #6
    4348:	2c204701 	stccs	7, cr4, [r0], #-4
    434c:	28000000 	stmdacs	r0, {}	; <UNPREDICTABLE>
    4350:	18000029 	stmdane	r0, {r0, r3, r5}
    4354:	0e000029 	cdpeq	0, 0, cr0, cr0, cr9, {1}
    4358:	000000c4 	andeq	r0, r0, r4, asr #1
    435c:	0000043c 	andeq	r0, r0, ip, lsr r4
    4360:	aa600305 	bge	1804f7c <__bss_end__+0x17fa0a4>
    4364:	531d0000 	tstpl	sp, #0, 0
    4368:	0100000a 	tsteq	r0, sl
    436c:	008a0b4b 	addeq	r0, sl, fp, asr #22
    4370:	299a0000 	ldmibcs	sl, {}	; <UNPREDICTABLE>
    4374:	29960000 	ldmibcs	r6, {}	; <UNPREDICTABLE>
    4378:	1f1b0000 	svcne	0x001b0000
    437c:	68000008 	stmdavs	r0, {r3}
    4380:	0300009c 	movweq	r0, #156	; 0x9c
    4384:	00000380 	andeq	r0, r0, r0, lsl #7
    4388:	a30e4901 	movwge	r4, #59649	; 0xe901
    438c:	1a000005 	bne	43a8 <__code_start__-0x3c58>
    4390:	0000083a 	andeq	r0, r0, sl, lsr r8
    4394:	000029ba 			; <UNDEFINED> instruction: 0x000029ba
    4398:	000029b8 			; <UNDEFINED> instruction: 0x000029b8
    439c:	0008301a 	andeq	r3, r8, sl, lsl r0
    43a0:	0029d200 	eoreq	sp, r9, r0, lsl #4
    43a4:	0029ce00 	eoreq	ip, r9, r0, lsl #28
    43a8:	03801e00 	orreq	r1, r0, #0, 28
    43ac:	0f000000 	svceq	0x00000000
    43b0:	00009cb0 			; <UNDEFINED> instruction: 0x00009cb0
    43b4:	000008bc 			; <UNDEFINED> instruction: 0x000008bc
    43b8:	000005dc 	ldrdeq	r0, [r0], -ip
    43bc:	05500110 	ldrbeq	r0, [r0, #-272]	; 0xfffffef0
    43c0:	00a2ac03 	adceq	sl, r2, r3, lsl #24
    43c4:	51011000 	mrspl	r1, (UNDEF: 1)
    43c8:	a8a00305 	stmiage	r0!, {r0, r2, r8, r9}
    43cc:	01100000 	tsteq	r0, r0
    43d0:	60030552 	andvs	r0, r3, r2, asr r5
    43d4:	100000aa 	andne	r0, r0, sl, lsr #1
    43d8:	08025301 	stmdaeq	r2, {r0, r8, r9, ip, lr}
    43dc:	7d021048 	stcvc	0, cr1, [r2, #-288]	; 0xfffffee0
    43e0:	b0030500 	andlt	r0, r3, r0, lsl #10
    43e4:	000000a8 	andeq	r0, r0, r8, lsr #1
    43e8:	009cb411 	addseq	fp, ip, r1, lsl r4
    43ec:	0008c800 	andeq	ip, r8, r0, lsl #16
    43f0:	9cd40f00 	ldclls	15, cr0, [r4], {0}
    43f4:	08bc0000 	ldmeq	ip!, {}	; <UNPREDICTABLE>
    43f8:	06210000 	strteq	r0, [r1], -r0
    43fc:	01100000 	tsteq	r0, r0
    4400:	2c030550 	cfstr32cs	mvfx0, [r3], {80}	; 0x50
    4404:	100000a9 	andne	r0, r0, r9, lsr #1
    4408:	03055101 	movweq	r5, #20737	; 0x5101
    440c:	0000a8a0 	andeq	sl, r0, r0, lsr #17
    4410:	05520110 	ldrbeq	r0, [r2, #-272]	; 0xfffffef0
    4414:	00aa6003 	adceq	r6, sl, r3
    4418:	53011000 	movwpl	r1, #4096	; 0x1000
    441c:	104e0802 	subne	r0, lr, r2, lsl #16
    4420:	08007d02 	stmdaeq	r0, {r1, r8, sl, fp, ip, sp, lr}
    4424:	235001f3 	cmpcs	r0, #-1073741764	; 0xc000003c
    4428:	1af80907 	bne	ffe0684c <__bss_end__+0xffdfb974>
    442c:	9cd81100 	ldflse	f1, [r8], {0}
    4430:	08c80000 	stmiaeq	r8, {}^	; <UNPREDICTABLE>
    4434:	0c000000 	stceq	0, cr0, [r0], {-0}
    4438:	00000ac8 	andeq	r0, r0, r8, asr #21
    443c:	00063c01 	andeq	r3, r6, r1, lsl #24
    4440:	5800009c 	stmdapl	r0, {r2, r3, r4, r7}
    4444:	01000000 	mrseq	r0, (UNDEF: 0)
    4448:	0006cf9c 	muleq	r6, ip, pc	; <UNPREDICTABLE>
    444c:	039d0a00 	orrseq	r0, sp, #0, 20
    4450:	3d010000 	stccc	0, cr0, [r1, #-0]
    4454:	00002510 	andeq	r2, r0, r0, lsl r5
    4458:	d4030500 	strle	r0, [r3], #-1280	; 0xfffffb00
    445c:	0e0000ae 	cdpeq	0, 0, cr0, cr0, cr14, {5}
    4460:	000000c4 	andeq	r0, r0, r4, asr #1
    4464:	000006df 	ldrdeq	r0, [r0], -pc	; <UNPREDICTABLE>
    4468:	aa500305 	bge	1405084 <__bss_end__+0x13fa1ac>
    446c:	07070000 	streq	r0, [r7, -r0]
    4470:	00002c04 	andeq	r2, r0, r4, lsl #24
    4474:	0a420100 	beq	108487c <__bss_end__+0x10799a4>
    4478:	0000067a 	andeq	r0, r0, sl, ror r6
    447c:	000a8f08 	andeq	r8, sl, r8, lsl #30
    4480:	10000000 	andne	r0, r0, r0
    4484:	2c0f0000 	stccs	0, cr0, [pc], {-0}
    4488:	e400009c 	str	r0, [r0], #-156	; 0xffffff64
    448c:	96000006 	strls	r0, [r0], -r6
    4490:	10000006 	andne	r0, r0, r6
    4494:	40035001 	andmi	r5, r3, r1
    4498:	01102440 	tsteq	r0, r0, asr #8
    449c:	48400351 	stmdami	r0, {r0, r4, r6, r8, r9}^
    44a0:	440f0024 	strmi	r0, [pc], #-36	; 44a8 <__code_start__-0x3b58>
    44a4:	bc00009c 	stclt	0, cr0, [r0], {156}	; 0x9c
    44a8:	c5000008 	strgt	r0, [r0, #-8]
    44ac:	10000006 	andne	r0, r0, r6
    44b0:	03055001 	movweq	r5, #20481	; 0x5001
    44b4:	0000a8fc 	strdeq	sl, [r0], -ip
    44b8:	05510110 	ldrbeq	r0, [r1, #-272]	; 0xfffffef0
    44bc:	00a8a003 	adceq	sl, r8, r3
    44c0:	52011000 	andpl	r1, r1, #0, 0
    44c4:	aa500305 	bge	14050e0 <__bss_end__+0x13fa208>
    44c8:	01100000 	tsteq	r0, r0
    44cc:	40080253 	andmi	r0, r8, r3, asr r2
    44d0:	9c481100 	stflse	f1, [r8], {-0}
    44d4:	08c80000 	stmiaeq	r8, {}^	; <UNPREDICTABLE>
    44d8:	12000000 	andne	r0, r0, #0, 0
    44dc:	0000007e 	andeq	r0, r0, lr, ror r0
    44e0:	000006df 	ldrdeq	r0, [r0], -pc	; <UNPREDICTABLE>
    44e4:	00002c13 	andeq	r2, r0, r3, lsl ip
    44e8:	05000c00 	streq	r0, [r0, #-3072]	; 0xfffff400
    44ec:	000006cf 	andeq	r0, r0, pc, asr #13
    44f0:	00044d0c 	andeq	r4, r4, ip, lsl #26
    44f4:	062d0100 	strteq	r0, [sp], -r0, lsl #2
    44f8:	00009b64 	andeq	r9, r0, r4, ror #22
    44fc:	0000009c 	muleq	r0, ip, r0
    4500:	07c89c01 	strbeq	r9, [r8, r1, lsl #24]
    4504:	52170000 	andspl	r0, r7, #0, 0
    4508:	0100000a 	tsteq	r0, sl
    450c:	002c262d 	eoreq	r2, ip, sp, lsr #12
    4510:	2a000000 	bcs	4518 <__code_start__-0x3ae8>
    4514:	29f20000 	ldmibcs	r2!, {}^	; <UNPREDICTABLE>
    4518:	47170000 	ldrmi	r0, [r7, -r0]
    451c:	0100000a 	tsteq	r0, sl
    4520:	002c362d 	eoreq	r3, ip, sp, lsr #12
    4524:	2a680000 	bcs	1a0452c <__bss_end__+0x19f9654>
    4528:	2a600000 	bcs	1804530 <__bss_end__+0x17f9658>
    452c:	531d0000 	tstpl	sp, #0, 0
    4530:	0100000a 	tsteq	r0, sl
    4534:	00c20b2e 	sbceq	r0, r2, lr, lsr #22
    4538:	2ab00000 	bcs	fec04540 <__bss_end__+0xfebf9668>
    453c:	2aa20000 	bcs	fe884544 <__bss_end__+0xfe87966c>
    4540:	c40e0000 	strgt	r0, [lr], #-0
    4544:	d8000000 	stmdale	r0, {}	; <UNPREDICTABLE>
    4548:	05000007 	streq	r0, [r0, #-7]
    454c:	00aa3803 	adceq	r3, sl, r3, lsl #16
    4550:	9bbc0f00 	blls	fef08158 <__bss_end__+0xfeefd280>
    4554:	08bc0000 	ldmeq	ip!, {}	; <UNPREDICTABLE>
    4558:	077e0000 	ldrbeq	r0, [lr, -r0]!
    455c:	01100000 	tsteq	r0, r0
    4560:	ac030550 	cfstr32ge	mvfx0, [r3], {80}	; 0x50
    4564:	100000a2 	andne	r0, r0, r2, lsr #1
    4568:	03055101 	movweq	r5, #20737	; 0x5101
    456c:	0000a8a0 	andeq	sl, r0, r0, lsr #17
    4570:	05520110 	ldrbeq	r0, [r2, #-272]	; 0xfffffef0
    4574:	00aa3803 	adceq	r3, sl, r3, lsl #16
    4578:	53011000 	movwpl	r1, #4096	; 0x1000
    457c:	10300802 	eorsne	r0, r0, r2, lsl #16
    4580:	05007d02 	streq	r7, [r0, #-3330]	; 0xfffff2fe
    4584:	00a8ac03 	adceq	sl, r8, r3, lsl #24
    4588:	c0110000 	andsgt	r0, r1, r0
    458c:	c800009b 	stmdagt	r0, {r0, r1, r3, r4, r7}
    4590:	0f000008 	svceq	0x00000008
    4594:	00009be4 	andeq	r9, r0, r4, ror #23
    4598:	000008bc 			; <UNDEFINED> instruction: 0x000008bc
    459c:	000007be 			; <UNDEFINED> instruction: 0x000007be
    45a0:	05500110 	ldrbeq	r0, [r0, #-272]	; 0xfffffef0
    45a4:	00a8b803 	adceq	fp, r8, r3, lsl #16
    45a8:	51011000 	mrspl	r1, (UNDEF: 1)
    45ac:	a8a00305 	stmiage	r0!, {r0, r2, r8, r9}
    45b0:	01100000 	tsteq	r0, r0
    45b4:	38030552 	stmdacc	r3, {r1, r4, r6, r8, sl}
    45b8:	100000aa 	andne	r0, r0, sl, lsr #1
    45bc:	08025301 	stmdaeq	r2, {r0, r8, r9, ip, lr}
    45c0:	7d021034 	stcvc	0, cr1, [r2, #-208]	; 0xffffff30
    45c4:	01f30300 	mvnseq	r0, r0, lsl #6
    45c8:	e8110050 	ldmda	r1, {r4, r6}
    45cc:	c800009b 	stmdagt	r0, {r0, r1, r3, r4, r7}
    45d0:	00000008 	andeq	r0, r0, r8
    45d4:	00007e12 	andeq	r7, r0, r2, lsl lr
    45d8:	0007d800 	andeq	sp, r7, r0, lsl #16
    45dc:	002c1300 	eoreq	r1, ip, r0, lsl #6
    45e0:	00160000 	andseq	r0, r6, r0
    45e4:	0007c805 	andeq	ip, r7, r5, lsl #16
    45e8:	0ae01f00 	beq	ff80c1f0 <__bss_end__+0xff801318>
    45ec:	2a010000 	bcs	445f4 <__bss_end__+0x3971c>
    45f0:	00008a07 	andeq	r8, r0, r7, lsl #20
    45f4:	009b5400 	addseq	r5, fp, r0, lsl #8
    45f8:	00001000 	andeq	r1, r0, r0
    45fc:	1f9c0100 	svcne	0x009c0100
    4600:	00000a34 	andeq	r0, r0, r4, lsr sl
    4604:	8a072901 	bhi	1cea10 <__bss_end__+0x1c3b38>
    4608:	44000000 	strmi	r0, [r0], #-0
    460c:	1000009b 	mulne	r0, fp, r0
    4610:	01000000 	mrseq	r0, (UNDEF: 0)
    4614:	0a951f9c 	beq	fe54c48c <__bss_end__+0xfe5415b4>
    4618:	28010000 	stmdacs	r1, {}	; <UNPREDICTABLE>
    461c:	00008a07 	andeq	r8, r0, r7, lsl #20
    4620:	009b3400 	addseq	r3, fp, r0, lsl #8
    4624:	00001000 	andeq	r1, r0, r0
    4628:	209c0100 	addscs	r0, ip, r0, lsl #2
    462c:	00000a6b 	andeq	r0, r0, fp, ror #20
    4630:	2c181001 	ldccs	0, cr1, [r8], {1}
    4634:	03000000 	movweq	r0, #0
    4638:	00000854 	andeq	r0, r0, r4, asr r8
    463c:	01007821 	tsteq	r0, r1, lsr #16
    4640:	002c2910 	eoreq	r2, ip, r0, lsl r9
    4644:	6e210000 	cdpvs	0, 2, cr0, cr1, cr0, {0}
    4648:	35100100 	ldrcc	r0, [r0, #-256]	; 0xffffff00
    464c:	0000002c 	andeq	r0, r0, ip, lsr #32
    4650:	0000c40e 	andeq	ip, r0, lr, lsl #8
    4654:	00051800 	andeq	r1, r5, r0, lsl #16
    4658:	88030500 	stmdahi	r3, {r8, sl}
    465c:	000000aa 	andeq	r0, r0, sl, lsr #1
    4660:	000ab620 	andeq	fp, sl, r0, lsr #12
    4664:	180d0100 	stmdane	sp, {r8}
    4668:	0000002c 	andeq	r0, r0, ip, lsr #32
    466c:	00087003 	andeq	r7, r8, r3
    4670:	00782100 	rsbseq	r2, r8, r0, lsl #2
    4674:	2c290d01 	stccs	13, cr0, [r9], #-4
    4678:	00000000 	andeq	r0, r0, r0
    467c:	000ad520 	andeq	sp, sl, r0, lsr #10
    4680:	18070100 	stmdane	r7, {r8}
    4684:	0000002c 	andeq	r0, r0, ip, lsr #32
    4688:	00089603 	andeq	r9, r8, r3, lsl #12
    468c:	00782100 	rsbseq	r2, r8, r0, lsl #2
    4690:	2c2c0701 	stccs	7, cr0, [ip], #-4
    4694:	21000000 	mrscs	r0, (UNDEF: 0)
    4698:	0701006e 	streq	r0, [r1, -lr, rrx]
    469c:	00002c38 	andeq	r2, r0, r8, lsr ip
    46a0:	87200000 	strhi	r0, [r0, -r0]!
    46a4:	0100000a 	tsteq	r0, sl
    46a8:	005d1804 	subseq	r1, sp, r4, lsl #16
    46ac:	bc030000 	stclt	0, cr0, [r3], {-0}
    46b0:	21000008 	tstcs	r0, r8
    46b4:	04010078 	streq	r0, [r1], #-120	; 0xffffff88
    46b8:	00005d29 	andeq	r5, r0, r9, lsr #26
    46bc:	00792100 	rsbseq	r2, r9, r0, lsl #2
    46c0:	5d350401 	cfldrspl	mvf0, [r5, #-4]!
    46c4:	00000000 	andeq	r0, r0, r0
    46c8:	00059622 	andeq	r9, r5, r2, lsr #12
    46cc:	00059600 	andeq	r9, r5, r0, lsl #12
    46d0:	06280200 	strteq	r0, [r8], -r0, lsl #4
    46d4:	00008322 	andeq	r8, r0, r2, lsr #6
    46d8:	00008300 	andeq	r8, r0, r0, lsl #6
    46dc:	066e0200 	strbteq	r0, [lr], -r0, lsl #4
    46e0:	000af122 	andeq	pc, sl, r2, lsr #2
    46e4:	000af100 	andeq	pc, sl, r0, lsl #2
    46e8:	061d0200 	ldreq	r0, [sp], -r0, lsl #4
    46ec:	00029f22 	andeq	r9, r2, r2, lsr #30
    46f0:	00029f00 	andeq	r9, r2, r0, lsl #30
    46f4:	07f20200 	ldrbeq	r0, [r2, r0, lsl #4]!
    46f8:	00067300 	andeq	r7, r6, r0, lsl #6
    46fc:	71000400 	tstvc	r0, r0, lsl #8
    4700:	04000017 	streq	r0, [r0], #-23	; 0xffffffe9
    4704:	0004b401 	andeq	fp, r4, r1, lsl #8
    4708:	0b430c00 	bleq	10c7710 <__bss_end__+0x10bc838>
    470c:	056c0000 	strbeq	r0, [ip, #-0]!
    4710:	9ee40000 	cdpls	0, 14, cr0, cr4, cr0, {0}
    4714:	01980000 	orrseq	r0, r8, r0
    4718:	22a10000 	adccs	r0, r1, #0, 0
    471c:	08020000 	stmdaeq	r2, {}	; <UNPREDICTABLE>
    4720:	0000e007 	andeq	lr, r0, r7
    4724:	07040200 	streq	r0, [r4, -r0, lsl #4]
    4728:	000000ea 	andeq	r0, r0, sl, ror #1
    472c:	69050403 	stmdbvs	r5, {r0, r1, sl}
    4730:	0400746e 	streq	r7, [r0], #-1134	; 0xfffffb92
    4734:	0000002c 	andeq	r0, r0, ip, lsr #32
    4738:	77060102 	strvc	r0, [r6, -r2, lsl #2]
    473c:	02000000 	andeq	r0, r0, #0, 0
    4740:	01490502 	cmpeq	r9, r2, lsl #10
    4744:	04020000 	streq	r0, [r2], #-0
    4748:	00010e05 	andeq	r0, r1, r5, lsl #28
    474c:	05080200 	streq	r0, [r8, #-512]	; 0xfffffe00
    4750:	00000109 	andeq	r0, r0, r9, lsl #2
    4754:	75080102 	strvc	r0, [r8, #-258]	; 0xfffffefe
    4758:	02000000 	andeq	r0, r0, #0, 0
    475c:	00900702 	addseq	r0, r0, r2, lsl #14
    4760:	66050000 	strvs	r0, [r5], -r0
    4764:	03000001 	movweq	r0, #1
    4768:	00751934 	rsbseq	r1, r5, r4, lsr r9
    476c:	04020000 	streq	r0, [r2], #-0
    4770:	0000e507 	andeq	lr, r0, r7, lsl #10
    4774:	00330600 	eorseq	r0, r3, r0, lsl #12
    4778:	008b0000 	addeq	r0, fp, r0
    477c:	33070000 	movwcc	r0, #28672	; 0x7000
    4780:	00000000 	andeq	r0, r0, r0
    4784:	00016f08 	andeq	r6, r1, r8, lsl #30
    4788:	0e1c0200 	cdpeq	2, 1, cr0, cr12, cr0, {0}
    478c:	00000097 	muleq	r0, r7, r0
    4790:	007c0409 	rsbseq	r0, ip, r9, lsl #8
    4794:	33060000 	movwcc	r0, #24576	; 0x6000
    4798:	ac000000 	stcge	0, cr0, [r0], {-0}
    479c:	07000000 	streq	r0, [r0, -r0]
    47a0:	000000ac 	andeq	r0, r0, ip, lsr #1
    47a4:	b9040900 	stmdblt	r4, {r8, fp}
    47a8:	02000000 	andeq	r0, r0, #0, 0
    47ac:	007e0801 	rsbseq	r0, lr, r1, lsl #16
    47b0:	b2040000 	andlt	r0, r4, #0, 0
    47b4:	08000000 	stmdaeq	r0, {}	; <UNPREDICTABLE>
    47b8:	000005d4 	ldrdeq	r0, [r0], -r4
    47bc:	ca0e2102 	bgt	38cbcc <__bss_end__+0x381cf4>
    47c0:	09000000 	stmdbeq	r0, {}	; <UNPREDICTABLE>
    47c4:	00009d04 	andeq	r9, r0, r4, lsl #26
    47c8:	01070a00 	tsteq	r7, r0, lsl #20
    47cc:	0000005b 	andeq	r0, r0, fp, asr r0
    47d0:	0f0e0c04 	svceq	0x000e0c04
    47d4:	0b000001 	bleq	47e0 <__code_start__-0x3820>
    47d8:	00000a0c 	andeq	r0, r0, ip, lsl #20
    47dc:	08440b00 	stmdaeq	r4, {r8, r9, fp}^
    47e0:	0b010000 	bleq	447e8 <__bss_end__+0x39910>
    47e4:	00000887 	andeq	r0, r0, r7, lsl #17
    47e8:	08960b04 	ldmeq	r6, {r2, r8, r9, fp}
    47ec:	0b050000 	bleq	1447f4 <__bss_end__+0x13991c>
    47f0:	000008a5 	andeq	r0, r0, r5, lsr #17
    47f4:	08b40b06 	ldmeq	r4!, {r1, r2, r8, r9, fp}
    47f8:	0b070000 	bleq	1c4800 <__bss_end__+0x1b9928>
    47fc:	000009d5 	ldrdeq	r0, [r0], -r5
    4800:	08c30b03 	stmiaeq	r3, {r0, r1, r8, r9, fp}^
    4804:	00020000 	andeq	r0, r2, r0
    4808:	000b7c05 	andeq	r7, fp, r5, lsl #24
    480c:	03150400 	tsteq	r5, #0, 8
    4810:	000000d0 	ldrdeq	r0, [r0], -r0	; <UNPREDICTABLE>
    4814:	000b1a0c 	andeq	r1, fp, ip, lsl #20
    4818:	171d0100 	ldrne	r0, [sp, -r0, lsl #2]
    481c:	0000003a 	andeq	r0, r0, sl, lsr r0
    4820:	2020001c 	eorcs	r0, r0, ip, lsl r0
    4824:	000b100c 	andeq	r1, fp, ip
    4828:	171e0100 	ldrne	r0, [lr, -r0, lsl #2]
    482c:	0000003a 	andeq	r0, r0, sl, lsr r0
    4830:	20200028 	eorcs	r0, r0, r8, lsr #32
    4834:	000b880c 	andeq	r8, fp, ip, lsl #16
    4838:	171f0100 	ldrne	r0, [pc, -r0, lsl #2]
    483c:	0000003a 	andeq	r0, r0, sl, lsr r0
    4840:	20200034 	eorcs	r0, r0, r4, lsr r0
    4844:	000b390d 	andeq	r3, fp, sp, lsl #18
    4848:	05510100 	ldrbeq	r0, [r1, #-256]	; 0xffffff00
    484c:	00000033 	andeq	r0, r0, r3, lsr r0
    4850:	0000a054 	andeq	sl, r0, r4, asr r0
    4854:	00000028 	andeq	r0, r0, r8, lsr #32
    4858:	01ba9c01 			; <UNDEFINED> instruction: 0x01ba9c01
    485c:	700e0000 	andvc	r0, lr, r0
    4860:	01006e69 	tsteq	r0, r9, ror #28
    4864:	002c1851 	eoreq	r1, ip, r1, asr r8
    4868:	2b160000 	blcs	584870 <__bss_end__+0x579998>
    486c:	2b100000 	blcs	404874 <__bss_end__+0x3f999c>
    4870:	920f0000 	andls	r0, pc, #0, 0
    4874:	0100000b 	tsteq	r0, fp
    4878:	002c0e52 	eoreq	r0, ip, r2, asr lr
    487c:	2b4c0000 	blcs	1304884 <__bss_end__+0x12f99ac>
    4880:	2b420000 	blcs	1084888 <__bss_end__+0x10799b0>
    4884:	6f100000 	svcvs	0x00100000
    4888:	01006666 	tsteq	r0, r6, ror #12
    488c:	002c0e53 	eoreq	r0, ip, r3, asr lr
    4890:	2bba0000 	blcs	fee84898 <__bss_end__+0xfee799c0>
    4894:	2bb40000 	blcs	fed0489c <__bss_end__+0xfecf99c4>
    4898:	68110000 	ldmdavs	r1, {}	; <UNPREDICTABLE>
    489c:	5e0000a0 	cdppl	0, 0, cr0, cr0, cr0, {5}
    48a0:	12000006 	andne	r0, r0, #6, 0
    48a4:	740a5001 	strvc	r5, [sl], #-1
    48a8:	23253500 			; <UNDEFINED> instruction: 0x23253500
    48ac:	818080b4 	strhhi	r8, [r0, r4]
    48b0:	13000002 	movwne	r0, #2
    48b4:	00000b24 	andeq	r0, r0, r4, lsr #22
    48b8:	24064a01 	strcs	r4, [r6], #-2561	; 0xfffff5ff
    48bc:	300000a0 	andcc	r0, r0, r0, lsr #1
    48c0:	01000000 	mrseq	r0, (UNDEF: 0)
    48c4:	0002759c 	muleq	r2, ip, r5
    48c8:	69700e00 	ldmdbvs	r0!, {r9, sl, fp}^
    48cc:	4a01006e 	bmi	44a8c <__bss_end__+0x39bb4>
    48d0:	00002c1a 	andeq	r2, r0, sl, lsl ip
    48d4:	002bf700 	eoreq	pc, fp, r0, lsl #14
    48d8:	002beb00 	eoreq	lr, fp, r0, lsl #22
    48dc:	00760e00 	rsbseq	r0, r6, r0, lsl #28
    48e0:	2c284a01 			; <UNDEFINED> instruction: 0x2c284a01
    48e4:	4b000000 	blmi	48ec <__code_start__-0x3714>
    48e8:	4700002c 	strmi	r0, [r0, -ip, lsr #32]
    48ec:	1400002c 	strne	r0, [r0], #-44	; 0xffffffd4
    48f0:	0000038d 	andeq	r0, r0, sp, lsl #7
    48f4:	0000a034 	andeq	sl, r0, r4, lsr r0
    48f8:	00045001 	andeq	r5, r4, r1
    48fc:	094c0100 	stmdbeq	ip, {r8}^
    4900:	00000235 	andeq	r0, r0, r5, lsr r2
    4904:	00039a15 	andeq	r9, r3, r5, lsl sl
    4908:	002c7200 	eoreq	r7, ip, r0, lsl #4
    490c:	002c6c00 	eoreq	r6, ip, r0, lsl #24
    4910:	a0401600 	subge	r1, r0, r0, lsl #12
    4914:	066a0000 	strbteq	r0, [sl], -r0
    4918:	01120000 	tsteq	r2, r0
    491c:	1c0c0550 	cfstr32ne	mvfx0, [ip], {80}	; 0x50
    4920:	12202000 	eorne	r2, r0, #0, 0
    4924:	31055101 	tstcc	r5, r1, lsl #2
    4928:	245001f3 	ldrbcs	r0, [r0], #-499	; 0xfffffe0d
    492c:	73170000 	tstvc	r7, #0, 0
    4930:	40000003 	andmi	r0, r0, r3
    4934:	020000a0 	andeq	r0, r0, #160, 0	; 0xa0
    4938:	0000a040 	andeq	sl, r0, r0, asr #32
    493c:	00000014 	andeq	r0, r0, r4, lsl r0
    4940:	15094e01 	strne	r4, [r9, #-3585]	; 0xfffff1ff
    4944:	00000380 	andeq	r0, r0, r0, lsl #7
    4948:	00002ca4 	andeq	r2, r0, r4, lsr #25
    494c:	00002c9e 	muleq	r0, lr, ip
    4950:	00a04c16 	adceq	r4, r0, r6, lsl ip
    4954:	00066a00 	andeq	r6, r6, r0, lsl #20
    4958:	50011200 	andpl	r1, r1, r0, lsl #4
    495c:	00280c05 	eoreq	r0, r8, r5, lsl #24
    4960:	01122020 	tsteq	r2, r0, lsr #32
    4964:	f3310551 	vqrshl.u64	q0, <illegal reg q0.5>, <illegal reg q0.5>
    4968:	00245001 	eoreq	r5, r4, r1
    496c:	50130000 	andspl	r0, r3, r0
    4970:	0100000b 	tsteq	r0, fp
    4974:	9fcc0645 	svcls	0x00cc0645
    4978:	00580000 	subseq	r0, r8, r0
    497c:	9c010000 	stcls	0, cr0, [r1], {-0}
    4980:	00000373 	andeq	r0, r0, r3, ror r3
    4984:	6e69700e 	cdpvs	0, 6, cr7, cr9, cr14, {0}
    4988:	1e450100 	dvfnes	f0, f5, f0
    498c:	0000002c 	andeq	r0, r0, ip, lsr #32
    4990:	00002cd6 	ldrdeq	r2, [r0], -r6
    4994:	00002cd0 	ldrdeq	r2, [r0], -r0
    4998:	0004a518 	andeq	sl, r4, r8, lsl r5
    499c:	009fcc00 	addseq	ip, pc, r0, lsl #24
    49a0:	04100200 	ldreq	r0, [r0], #-512	; 0xfffffe00
    49a4:	46010000 	strmi	r0, [r1], -r0
    49a8:	04be1905 	ldrteq	r1, [lr], #2309	; 0x905
    49ac:	15000000 	strne	r0, [r0, #-0]
    49b0:	000004b2 			; <UNDEFINED> instruction: 0x000004b2
    49b4:	00002d08 	andeq	r2, r0, r8, lsl #26
    49b8:	00002d02 	andeq	r2, r0, r2, lsl #26
    49bc:	0004101a 	andeq	r1, r4, sl, lsl r0
    49c0:	04ca1b00 	strbeq	r1, [sl], #2816	; 0xb00
    49c4:	d61b0000 	ldrle	r0, [fp], -r0
    49c8:	1b000004 	blne	49e0 <__code_start__-0x3620>
    49cc:	000004e0 	andeq	r0, r0, r0, ror #9
    49d0:	0004a518 	andeq	sl, r4, r8, lsl r5
    49d4:	009fd400 	addseq	sp, pc, r0, lsl #8
    49d8:	04300000 	ldrteq	r0, [r0], #-0
    49dc:	28010000 	stmdacs	r1, {}	; <UNPREDICTABLE>
    49e0:	04be1906 	ldrteq	r1, [lr], #2310	; 0x906
    49e4:	15000000 	strne	r0, [r0, #-0]
    49e8:	000004b2 			; <UNDEFINED> instruction: 0x000004b2
    49ec:	00002d3a 	andeq	r2, r0, sl, lsr sp
    49f0:	00002d34 	andeq	r2, r0, r4, lsr sp
    49f4:	0004301a 	andeq	r3, r4, sl, lsl r0
    49f8:	04ca1c00 	strbeq	r1, [sl], #3072	; 0xc00
    49fc:	2d6c0000 	stclcs	0, cr0, [ip, #-0]
    4a00:	2d660000 	stclcs	0, cr0, [r6, #-0]
    4a04:	d61c0000 	ldrle	r0, [ip], -r0
    4a08:	ae000004 	cdpge	0, 0, cr0, cr0, cr4, {0}
    4a0c:	a800002d 	stmdage	r0, {r0, r2, r3, r5}
    4a10:	1c00002d 	stcne	0, cr0, [r0], {45}	; 0x2d
    4a14:	000004e0 	andeq	r0, r0, r0, ror #9
    4a18:	00002e04 	andeq	r2, r0, r4, lsl #28
    4a1c:	00002dfc 	strdeq	r2, [r0], -ip
    4a20:	009ffc1d 	addseq	pc, pc, sp, lsl ip	; <UNPREDICTABLE>
    4a24:	00065e00 	andeq	r5, r6, r0, lsl #28
    4a28:	00033b00 	andeq	r3, r3, r0, lsl #22
    4a2c:	50011200 	andpl	r1, r1, r0, lsl #4
    4a30:	00007602 	andeq	r7, r0, r2, lsl #12
    4a34:	00a02016 	adceq	r2, r0, r6, lsl r0
    4a38:	00066a00 	andeq	r6, r6, r0, lsl #20
    4a3c:	50011200 	andpl	r1, r1, r0, lsl #4
    4a40:	5001f325 	andpl	pc, r1, r5, lsr #6
    4a44:	25f72cf7 	ldrbcs	r2, [r7, #3319]!	; 0xcf7
    4a48:	cd0825f4 	cfstr32gt	mvfx2, [r8, #-976]	; 0xfffffc30
    4a4c:	00cccccc 	sbceq	ip, ip, ip, asr #25
    4a50:	1e000000 	cdpne	0, 0, cr0, cr0, cr0, {0}
    4a54:	25f72008 	ldrbcs	r2, [r7, #8]!
    4a58:	f72cf725 			; <UNDEFINED> instruction: 0xf72cf725
    4a5c:	23253300 			; <UNDEFINED> instruction: 0x23253300
    4a60:	40a08080 	adcmi	r8, r0, r0, lsl #1
    4a64:	00002432 	andeq	r2, r0, r2, lsr r4
    4a68:	00000000 	andeq	r0, r0, r0
    4a6c:	000b5f1e 	andeq	r5, fp, lr, lsl pc
    4a70:	0d400100 	stfeqe	f0, [r0, #-0]
    4a74:	00038d03 	andeq	r8, r3, r3, lsl #26
    4a78:	69701f00 	ldmdbvs	r0!, {r8, r9, sl, fp, ip}^
    4a7c:	4001006e 	andmi	r0, r1, lr, rrx
    4a80:	00002c23 	andeq	r2, r0, r3, lsr #24
    4a84:	971e0000 	ldrls	r0, [lr, -r0]
    4a88:	0100000b 	tsteq	r0, fp
    4a8c:	a7030d3b 	smladxge	r3, fp, sp, r0
    4a90:	1f000003 	svcne	0x00000003
    4a94:	006e6970 	rsbeq	r6, lr, r0, ror r9
    4a98:	2c223b01 			; <UNDEFINED> instruction: 0x2c223b01
    4a9c:	00000000 	andeq	r0, r0, r0
    4aa0:	000b6c13 	andeq	r6, fp, r3, lsl ip
    4aa4:	06360100 	ldrteq	r0, [r6], -r0, lsl #2
    4aa8:	00009f44 	andeq	r9, r0, r4, asr #30
    4aac:	00000058 	andeq	r0, r0, r8, asr r0
    4ab0:	04a59c01 	strteq	r9, [r5], #3073	; 0xc01
    4ab4:	700e0000 	andvc	r0, lr, r0
    4ab8:	01006e69 	tsteq	r0, r9, ror #28
    4abc:	002c1f36 	eoreq	r1, ip, r6, lsr pc
    4ac0:	2e620000 	cdpcs	0, 6, cr0, cr2, cr0, {0}
    4ac4:	2e5e0000 	cdpcs	0, 5, cr0, cr14, cr0, {0}
    4ac8:	a5180000 	ldrge	r0, [r8, #-0]
    4acc:	44000004 	strmi	r0, [r0], #-4
    4ad0:	0200009f 	andeq	r0, r0, #159, 0	; 0x9f
    4ad4:	000003d0 	ldrdeq	r0, [r0], -r0	; <UNPREDICTABLE>
    4ad8:	19053701 	stmdbne	r5, {r0, r8, r9, sl, ip, sp}
    4adc:	000004be 			; <UNDEFINED> instruction: 0x000004be
    4ae0:	04b21501 	ldrteq	r1, [r2], #1281	; 0x501
    4ae4:	2e870000 	cdpcs	0, 8, cr0, cr7, cr0, {0}
    4ae8:	2e830000 	cdpcs	0, 8, cr0, cr3, cr0, {0}
    4aec:	d01a0000 	andsle	r0, sl, r0
    4af0:	1b000003 	blne	4b04 <__code_start__-0x34fc>
    4af4:	000004ca 	andeq	r0, r0, sl, asr #9
    4af8:	0004d61b 	andeq	sp, r4, fp, lsl r6
    4afc:	04e01b00 	strbteq	r1, [r0], #2816	; 0xb00
    4b00:	a5180000 	ldrge	r0, [r8, #-0]
    4b04:	4c000004 	stcmi	0, cr0, [r0], {4}
    4b08:	0000009f 	muleq	r0, pc, r0	; <UNPREDICTABLE>
    4b0c:	000003f0 	strdeq	r0, [r0], -r0	; <UNPREDICTABLE>
    4b10:	19062801 	stmdbne	r6, {r0, fp, sp}
    4b14:	000004be 			; <UNDEFINED> instruction: 0x000004be
    4b18:	04b21501 	ldrteq	r1, [r2], #1281	; 0x501
    4b1c:	2eac0000 	cdpcs	0, 10, cr0, cr12, cr0, {0}
    4b20:	2ea80000 	cdpcs	0, 10, cr0, cr8, cr0, {0}
    4b24:	f01a0000 			; <UNDEFINED> instruction: 0xf01a0000
    4b28:	1c000003 	stcne	0, cr0, [r0], {3}
    4b2c:	000004ca 	andeq	r0, r0, sl, asr #9
    4b30:	00002ed1 	ldrdeq	r2, [r0], -r1
    4b34:	00002ecd 	andeq	r2, r0, sp, asr #29
    4b38:	0004d61c 	andeq	sp, r4, ip, lsl r6
    4b3c:	002f1d00 	eoreq	r1, pc, r0, lsl #26
    4b40:	002f1700 	eoreq	r1, pc, r0, lsl #14
    4b44:	04e01c00 	strbteq	r1, [r0], #3072	; 0xc00
    4b48:	2f730000 	svccs	0x00730000
    4b4c:	2f6b0000 	svccs	0x006b0000
    4b50:	781d0000 	ldmdavc	sp, {}	; <UNPREDICTABLE>
    4b54:	5e00009f 	mcrpl	0, 0, r0, cr0, cr15, {4}
    4b58:	6d000006 	stcvs	0, cr0, [r0, #-24]	; 0xffffffe8
    4b5c:	12000004 	andne	r0, r0, #4, 0
    4b60:	75025001 	strvc	r5, [r2, #-1]
    4b64:	98160000 	ldmdals	r6, {}	; <UNPREDICTABLE>
    4b68:	6a00009f 	bvs	4dec <__code_start__-0x3214>
    4b6c:	12000006 	andne	r0, r0, #6, 0
    4b70:	f3255001 	vhadd.u32	d5, d5, d1
    4b74:	2cf75001 	ldclcs	0, cr5, [r7], #4
    4b78:	25f425f7 	ldrbcs	r2, [r4, #1527]!	; 0x5f7
    4b7c:	cccccd08 	stclgt	13, cr12, [ip], {8}
    4b80:	000000cc 	andeq	r0, r0, ip, asr #1
    4b84:	20081e00 	andcs	r1, r8, r0, lsl #28
    4b88:	f72525f7 			; <UNDEFINED> instruction: 0xf72525f7
    4b8c:	3300f72c 	movwcc	pc, #1836	; 0x72c	; <UNPREDICTABLE>
    4b90:	80802325 	addhi	r2, r0, r5, lsr #6
    4b94:	243240a0 	ldrtcs	r4, [r2], #-160	; 0xffffff60
    4b98:	00000000 	andeq	r0, r0, r0
    4b9c:	1c1e0000 	ldcne	0, cr0, [lr], {-0}
    4ba0:	0100000a 	tsteq	r0, sl
    4ba4:	eb010628 	bl	4644c <__bss_end__+0x3b574>
    4ba8:	1f000004 	svcne	0x00000004
    4bac:	006e6970 	rsbeq	r6, lr, r0, ror r9
    4bb0:	2c212801 	stccs	8, cr2, [r1], #-4
    4bb4:	20000000 	andcs	r0, r0, r0
    4bb8:	000000bf 	strheq	r0, [r0], -pc	; <UNPREDICTABLE>
    4bbc:	0f322801 	svceq	0x00322801
    4bc0:	21000001 	tstcs	r0, r1
    4bc4:	0066666f 	rsbeq	r6, r6, pc, ror #12
    4bc8:	2c0e2d01 	stccs	13, cr2, [lr], {1}
    4bcc:	21000000 	mrscs	r0, (UNDEF: 0)
    4bd0:	2e010067 	cdpcs	0, 0, cr0, cr1, cr7, {3}
    4bd4:	00002c0e 	andeq	r2, r0, lr, lsl #24
    4bd8:	00762100 	rsbseq	r2, r6, r0, lsl #2
    4bdc:	2c0e3001 	stccs	0, cr3, [lr], {1}
    4be0:	00000000 	andeq	r0, r0, r0
    4be4:	000b2f22 	andeq	r2, fp, r2, lsr #30
    4be8:	18b10200 	ldmne	r1!, {r9}
    4bec:	00000069 	andeq	r0, r0, r9, rrx
    4bf0:	00050703 	andeq	r0, r5, r3, lsl #14
    4bf4:	00781f00 	rsbseq	r1, r8, r0, lsl #30
    4bf8:	692bb102 	stmdbvs	fp!, {r1, r8, ip, sp, pc}
    4bfc:	00000000 	andeq	r0, r0, r0
    4c00:	0004a523 	andeq	sl, r4, r3, lsr #10
    4c04:	009ee400 	addseq	lr, lr, r0, lsl #8
    4c08:	00006000 	andeq	r6, r0, r0
    4c0c:	e49c0100 	ldr	r0, [ip], #256	; 0x100
    4c10:	15000005 	strne	r0, [r0, #-5]
    4c14:	000004b2 			; <UNDEFINED> instruction: 0x000004b2
    4c18:	00002fb2 			; <UNDEFINED> instruction: 0x00002fb2
    4c1c:	00002fae 	andeq	r2, r0, lr, lsr #31
    4c20:	0004be15 	andeq	fp, r4, r5, lsl lr
    4c24:	002fd700 	eoreq	sp, pc, r0, lsl #14
    4c28:	002fd300 	eoreq	sp, pc, r0, lsl #6
    4c2c:	04ca1b00 	strbeq	r1, [sl], #2816	; 0xb00
    4c30:	d61b0000 	ldrle	r0, [fp], -r0
    4c34:	1b000004 	blne	4c4c <__code_start__-0x33b4>
    4c38:	000004e0 	andeq	r0, r0, r0, ror #9
    4c3c:	0004a518 	andeq	sl, r4, r8, lsl r5
    4c40:	009eec00 	addseq	lr, lr, r0, lsl #24
    4c44:	03b00000 	movseq	r0, #0, 0
    4c48:	28010000 	stmdacs	r1, {}	; <UNPREDICTABLE>
    4c4c:	04be1506 	ldrteq	r1, [lr], #1286	; 0x506
    4c50:	2ffc0000 	svccs	0x00fc0000
    4c54:	2ff80000 	svccs	0x00f80000
    4c58:	b2150000 	andslt	r0, r5, #0, 0
    4c5c:	21000004 	tstcs	r0, r4
    4c60:	1d000030 	stcne	0, cr0, [r0, #-192]	; 0xffffff40
    4c64:	1a000030 	bne	4d2c <__code_start__-0x32d4>
    4c68:	000003b0 			; <UNDEFINED> instruction: 0x000003b0
    4c6c:	0004ca1c 	andeq	ip, r4, ip, lsl sl
    4c70:	00304600 	eorseq	r4, r0, r0, lsl #12
    4c74:	00304200 	eorseq	r4, r0, r0, lsl #4
    4c78:	04d61c00 	ldrbeq	r1, [r6], #3072	; 0xc00
    4c7c:	30920000 	addscc	r0, r2, r0
    4c80:	308c0000 	addcc	r0, ip, r0
    4c84:	e01c0000 	ands	r0, ip, r0
    4c88:	e8000004 	stmda	r0, {r2}
    4c8c:	e0000030 	and	r0, r0, r0, lsr r0
    4c90:	1d000030 	stcne	0, cr0, [r0, #-192]	; 0xffffff40
    4c94:	00009f24 	andeq	r9, r0, r4, lsr #30
    4c98:	0000065e 	andeq	r0, r0, lr, asr r6
    4c9c:	000005ae 	andeq	r0, r0, lr, lsr #11
    4ca0:	02500112 	subseq	r0, r0, #-2147483644	; 0x80000004
    4ca4:	16000076 			; <UNDEFINED> instruction: 0x16000076
    4ca8:	00009f40 	andeq	r9, r0, r0, asr #30
    4cac:	0000066a 	andeq	r0, r0, sl, ror #12
    4cb0:	25500112 	ldrbcs	r0, [r0, #-274]	; 0xfffffeee
    4cb4:	f75001f3 			; <UNDEFINED> instruction: 0xf75001f3
    4cb8:	f425f72c 	vld1.8	{d15}, [r5 :128], ip
    4cbc:	cccd0825 	stclgt	8, cr0, [sp], {37}	; 0x25
    4cc0:	0000cccc 	andeq	ip, r0, ip, asr #25
    4cc4:	081e0000 	ldmdaeq	lr, {}	; <UNPREDICTABLE>
    4cc8:	2525f720 	strcs	pc, [r5, #-1824]!	; 0xfffff8e0
    4ccc:	00f72cf7 	ldrshteq	r2, [r7], #199	; 0xc7
    4cd0:	80232533 	eorhi	r2, r3, r3, lsr r5
    4cd4:	3240a080 	subcc	sl, r0, #128, 0	; 0x80
    4cd8:	00000024 	andeq	r0, r0, r4, lsr #32
    4cdc:	038d2300 	orreq	r2, sp, #0, 6
    4ce0:	9f9c0000 	svcls	0x009c0000
    4ce4:	00180000 	andseq	r0, r8, r0
    4ce8:	9c010000 	stcls	0, cr0, [r1], {-0}
    4cec:	00000621 	andeq	r0, r0, r1, lsr #12
    4cf0:	00039a15 	andeq	r9, r3, r5, lsl sl
    4cf4:	00313e00 	eorseq	r3, r1, r0, lsl #28
    4cf8:	00313800 	eorseq	r3, r1, r0, lsl #16
    4cfc:	9fb01600 	svcls	0x00b01600
    4d00:	066a0000 	strbteq	r0, [sl], -r0
    4d04:	01120000 	tsteq	r2, r0
    4d08:	1c0c0550 	cfstr32ne	mvfx0, [ip], {80}	; 0x50
    4d0c:	12202000 	eorne	r2, r0, #0, 0
    4d10:	31055101 	tstcc	r5, r1, lsl #2
    4d14:	245001f3 	ldrbcs	r0, [r0], #-499	; 0xfffffe0d
    4d18:	73230000 			; <UNDEFINED> instruction: 0x73230000
    4d1c:	b4000003 	strlt	r0, [r0], #-3
    4d20:	1800009f 	stmdane	r0, {r0, r1, r2, r3, r4, r7}
    4d24:	01000000 	mrseq	r0, (UNDEF: 0)
    4d28:	00065e9c 	muleq	r6, ip, lr
    4d2c:	03801500 	orreq	r1, r0, #0, 10
    4d30:	31700000 	cmncc	r0, r0
    4d34:	316a0000 	cmncc	sl, r0
    4d38:	c8160000 	ldmdagt	r6, {}	; <UNPREDICTABLE>
    4d3c:	6a00009f 	bvs	4fc0 <__code_start__-0x3040>
    4d40:	12000006 	andne	r0, r0, #6, 0
    4d44:	0c055001 	stceq	0, cr5, [r5], {1}
    4d48:	20200028 	eorcs	r0, r0, r8, lsr #32
    4d4c:	05510112 	ldrbeq	r0, [r1, #-274]	; 0xfffffeee
    4d50:	5001f331 	andpl	pc, r1, r1, lsr r3	; <UNPREDICTABLE>
    4d54:	24000024 	strcs	r0, [r0], #-36	; 0xffffffdc
    4d58:	000007f1 	strdeq	r0, [r0], -r1
    4d5c:	000007f1 	strdeq	r0, [r0], -r1
    4d60:	240ac202 	strcs	ip, [sl], #-514	; 0xfffffdfe
    4d64:	0000075d 	andeq	r0, r0, sp, asr r7
    4d68:	0000075d 	andeq	r0, r0, sp, asr r7
    4d6c:	0006ad02 	andeq	sl, r6, r2, lsl #26
    4d70:	00000149 	andeq	r0, r0, r9, asr #2
    4d74:	199f0004 	ldmibne	pc, {r2}	; <UNPREDICTABLE>
    4d78:	01040000 	mrseq	r0, (UNDEF: 4)
    4d7c:	000004b4 			; <UNDEFINED> instruction: 0x000004b4
    4d80:	000bc10c 	andeq	ip, fp, ip, lsl #2
    4d84:	00056c00 	andeq	r6, r5, r0, lsl #24
    4d88:	00a07c00 	adceq	r7, r0, r0, lsl #24
    4d8c:	00003c00 	andeq	r3, r0, r0, lsl #24
    4d90:	00252e00 	eoreq	r2, r5, r0, lsl #28
    4d94:	05040200 	streq	r0, [r4, #-512]	; 0xfffffe00
    4d98:	00746e69 	rsbseq	r6, r4, r9, ror #28
    4d9c:	ea070403 	b	1c5db0 <__bss_end__+0x1baed8>
    4da0:	03000000 	movweq	r0, #0
    4da4:	00770601 	rsbseq	r0, r7, r1, lsl #12
    4da8:	02030000 	andeq	r0, r3, #0, 0
    4dac:	00014905 	andeq	r4, r1, r5, lsl #18
    4db0:	05040300 	streq	r0, [r4, #-768]	; 0xfffffd00
    4db4:	0000010e 	andeq	r0, r0, lr, lsl #2
    4db8:	09050803 	stmdbeq	r5, {r0, r1, fp}
    4dbc:	03000001 	movweq	r0, #1
    4dc0:	00750801 	rsbseq	r0, r5, r1, lsl #16
    4dc4:	02030000 	andeq	r0, r3, #0, 0
    4dc8:	00009007 	andeq	r9, r0, r7
    4dcc:	07040300 	streq	r0, [r4, -r0, lsl #6]
    4dd0:	000000e5 	andeq	r0, r0, r5, ror #1
    4dd4:	e0070803 	and	r0, r7, r3, lsl #16
    4dd8:	04000000 	streq	r0, [r0], #-0
    4ddc:	00000025 	andeq	r0, r0, r5, lsr #32
    4de0:	0000007a 	andeq	r0, r0, sl, ror r0
    4de4:	00002505 	andeq	r2, r0, r5, lsl #10
    4de8:	6f060000 	svcvs	0x00060000
    4dec:	02000001 	andeq	r0, r0, #1, 0
    4df0:	00860e1c 	addeq	r0, r6, ip, lsl lr
    4df4:	04070000 	streq	r0, [r7], #-0
    4df8:	0000006b 	andeq	r0, r0, fp, rrx
    4dfc:	00002504 	andeq	r2, r0, r4, lsl #10
    4e00:	00009b00 	andeq	r9, r0, r0, lsl #22
    4e04:	009b0500 	addseq	r0, fp, r0, lsl #10
    4e08:	07000000 	streq	r0, [r0, -r0]
    4e0c:	0000a804 	andeq	sl, r0, r4, lsl #16
    4e10:	08010300 	stmdaeq	r1, {r8, r9}
    4e14:	0000007e 	andeq	r0, r0, lr, ror r0
    4e18:	0000a108 	andeq	sl, r0, r8, lsl #2
    4e1c:	05d40600 	ldrbeq	r0, [r4, #1536]	; 0x600
    4e20:	21020000 	mrscs	r0, (UNDEF: 2)
    4e24:	0000b90e 	andeq	fp, r0, lr, lsl #18
    4e28:	8c040700 	stchi	7, cr0, [r4], {-0}
    4e2c:	09000000 	stmdbeq	r0, {}	; <UNPREDICTABLE>
    4e30:	0000007a 	andeq	r0, r0, sl, ror r0
    4e34:	05070601 	streq	r0, [r7, #-1537]	; 0xfffff9ff
    4e38:	00aaac03 	adceq	sl, sl, r3, lsl #24
    4e3c:	0bb40a00 	bleq	fed07644 <__bss_end__+0xfecfc76c>
    4e40:	0b010000 	bleq	44e48 <__bss_end__+0x39f70>
    4e44:	00a0a806 	adceq	sl, r0, r6, lsl #16
    4e48:	00001000 	andeq	r1, r0, r0
    4e4c:	f19c0100 			; <UNDEFINED> instruction: 0xf19c0100
    4e50:	0b000000 	bleq	4e58 <__code_start__-0x31a8>
    4e54:	01007066 	tsteq	r0, r6, rrx
    4e58:	0086190b 	addeq	r1, r6, fp, lsl #18
    4e5c:	50010000 	andpl	r0, r1, r0
    4e60:	0af10c00 	beq	ffc47e68 <__bss_end__+0xffc3cf90>
    4e64:	08010000 	stmdaeq	r1, {}	; <UNPREDICTABLE>
    4e68:	00a09006 	adceq	r9, r0, r6
    4e6c:	00001800 	andeq	r1, r0, r0, lsl #16
    4e70:	0d9c0100 	ldfeqs	f0, [ip]
    4e74:	00000ba3 	andeq	r0, r0, r3, lsr #23
    4e78:	250c0301 	strcs	r0, [ip, #-769]	; 0xfffffcff
    4e7c:	7c000000 	stcvc	0, cr0, [r0], {-0}
    4e80:	140000a0 	strne	r0, [r0], #-160	; 0xffffff60
    4e84:	01000000 	mrseq	r0, (UNDEF: 0)
    4e88:	0001409c 	muleq	r1, ip, r0
    4e8c:	00630e00 	rsbeq	r0, r3, r0, lsl #28
    4e90:	25210301 	strcs	r0, [r1, #-769]!	; 0xfffffcff
    4e94:	a0000000 	andge	r0, r0, r0
    4e98:	9c000031 	stcls	0, cr0, [r0], {49}	; 0x31
    4e9c:	0f000031 	svceq	0x00000031
    4ea0:	0000a088 	andeq	sl, r0, r8, lsl #1
    4ea4:	00000140 	andeq	r0, r0, r0, asr #2
    4ea8:	02500110 	subseq	r0, r0, #4
    4eac:	00000074 	andeq	r0, r0, r4, ror r0
    4eb0:	000a0211 	andeq	r0, sl, r1, lsl r2
    4eb4:	000a0200 	andeq	r0, sl, r0, lsl #4
    4eb8:	06420200 	strbeq	r0, [r2], -r0, lsl #4
    4ebc:	00013700 	andeq	r3, r1, r0, lsl #14
    4ec0:	ae000400 	cfcpysge	mvf0, mvf0
    4ec4:	0400001a 	streq	r0, [r0], #-26	; 0xffffffe6
    4ec8:	0004b401 	andeq	fp, r4, r1, lsl #8
    4ecc:	0bd20c00 	bleq	ff487ed4 <__bss_end__+0xff47cffc>
    4ed0:	056c0000 	strbeq	r0, [ip, #-0]!
    4ed4:	a0b80000 	adcsge	r0, r8, r0
    4ed8:	002c0000 	eoreq	r0, ip, r0
    4edc:	25d00000 	ldrbcs	r0, [r0]
    4ee0:	04020000 	streq	r0, [r2], #-0
    4ee4:	746e6905 	strbtvc	r6, [lr], #-2309	; 0xfffff6fb
    4ee8:	07040300 	streq	r0, [r4, -r0, lsl #6]
    4eec:	000000ea 	andeq	r0, r0, sl, ror #1
    4ef0:	77060103 	strvc	r0, [r6, -r3, lsl #2]
    4ef4:	03000000 	movweq	r0, #0
    4ef8:	01490502 	cmpeq	r9, r2, lsl #10
    4efc:	04030000 	streq	r0, [r3], #-0
    4f00:	00010e05 	andeq	r0, r1, r5, lsl #28
    4f04:	05080300 	streq	r0, [r8, #-768]	; 0xfffffd00
    4f08:	00000109 	andeq	r0, r0, r9, lsl #2
    4f0c:	75080103 	strvc	r0, [r8, #-259]	; 0xfffffefd
    4f10:	03000000 	movweq	r0, #0
    4f14:	00900702 	addseq	r0, r0, r2, lsl #14
    4f18:	04030000 	streq	r0, [r3], #-0
    4f1c:	0000e507 	andeq	lr, r0, r7, lsl #10
    4f20:	07080300 	streq	r0, [r8, -r0, lsl #6]
    4f24:	000000e0 	andeq	r0, r0, r0, ror #1
    4f28:	00002504 	andeq	r2, r0, r4, lsl #10
    4f2c:	00007a00 	andeq	r7, r0, r0, lsl #20
    4f30:	00250500 	eoreq	r0, r5, r0, lsl #10
    4f34:	06000000 	streq	r0, [r0], -r0
    4f38:	0000016f 	andeq	r0, r0, pc, ror #2
    4f3c:	860e1c02 	strhi	r1, [lr], -r2, lsl #24
    4f40:	07000000 	streq	r0, [r0, -r0]
    4f44:	00006b04 	andeq	r6, r0, r4, lsl #22
    4f48:	00250400 	eoreq	r0, r5, r0, lsl #8
    4f4c:	009b0000 	addseq	r0, fp, r0
    4f50:	9b050000 	blls	144f58 <__bss_end__+0x13a080>
    4f54:	00000000 	andeq	r0, r0, r0
    4f58:	00a80407 	adceq	r0, r8, r7, lsl #8
    4f5c:	01030000 	mrseq	r0, (UNDEF: 3)
    4f60:	00007e08 	andeq	r7, r0, r8, lsl #28
    4f64:	00a10800 	adceq	r0, r1, r0, lsl #16
    4f68:	d4060000 	strle	r0, [r6], #-0
    4f6c:	02000005 	andeq	r0, r0, #5, 0
    4f70:	00b90e21 	adcseq	r0, r9, r1, lsr #28
    4f74:	04070000 	streq	r0, [r7], #-0
    4f78:	0000008c 	andeq	r0, r0, ip, lsl #1
    4f7c:	00065009 	andeq	r5, r6, r9
    4f80:	07040100 	streq	r0, [r4, -r0, lsl #2]
    4f84:	00000134 	andeq	r0, r0, r4, lsr r1
    4f88:	0000a0b8 	strheq	sl, [r0], -r8
    4f8c:	0000002c 	andeq	r0, r0, ip, lsr #32
    4f90:	01349c01 	teqeq	r4, r1, lsl #24
    4f94:	e20a0000 	and	r0, sl, #0, 0
    4f98:	0100000b 	tsteq	r0, fp
    4f9c:	01341504 	teqeq	r4, r4, lsl #10
    4fa0:	50010000 	andpl	r0, r1, r0
    4fa4:	6372730b 	cmnvs	r2, #738197504	; 0x2c000000
    4fa8:	27040100 	strcs	r0, [r4, -r0, lsl #2]
    4fac:	0000009b 	muleq	r0, fp, r0
    4fb0:	000031c2 	andeq	r3, r0, r2, asr #3
    4fb4:	000031be 			; <UNDEFINED> instruction: 0x000031be
    4fb8:	0031730c 	eorseq	r7, r1, ip, lsl #6
    4fbc:	340b0501 	strcc	r0, [fp], #-1281	; 0xfffffaff
    4fc0:	f1000001 	cps	#1
    4fc4:	e3000031 	movw	r0, #49	; 0x31
    4fc8:	0c000031 	stceq	0, cr0, [r0], {49}	; 0x31
    4fcc:	01003273 	tsteq	r0, r3, ror r2
    4fd0:	009b1106 	addseq	r1, fp, r6, lsl #2
    4fd4:	32500000 	subscc	r0, r0, #0, 0
    4fd8:	324a0000 	subcc	r0, sl, #0, 0
    4fdc:	630c0000 	movwvs	r0, #49152	; 0xc000
    4fe0:	0a070100 	beq	1c53e8 <__bss_end__+0x1ba510>
    4fe4:	000000a1 	andeq	r0, r0, r1, lsr #1
    4fe8:	00003281 	andeq	r3, r0, r1, lsl #5
    4fec:	0000327b 	andeq	r3, r0, fp, ror r2
    4ff0:	a1040700 	tstge	r4, r0, lsl #14
    4ff4:	00000000 	andeq	r0, r0, r0
    4ff8:	000000f7 	strdeq	r0, [r0], -r7
    4ffc:	1b640004 	blne	1905014 <__bss_end__+0x18fa13c>
    5000:	01040000 	mrseq	r0, (UNDEF: 4)
    5004:	000004b4 			; <UNDEFINED> instruction: 0x000004b4
    5008:	000be70c 	andeq	lr, fp, ip, lsl #14
    500c:	00056c00 	andeq	r6, r5, r0, lsl #24
    5010:	00a0e400 	adceq	lr, r0, r0, lsl #8
    5014:	00004400 	andeq	r4, r0, r0, lsl #8
    5018:	0026b600 	eoreq	fp, r6, r0, lsl #12
    501c:	05040200 	streq	r0, [r4, #-512]	; 0xfffffe00
    5020:	00746e69 	rsbseq	r6, r4, r9, ror #28
    5024:	ea070403 	b	1c6038 <__bss_end__+0x1bb160>
    5028:	03000000 	movweq	r0, #0
    502c:	00770601 	rsbseq	r0, r7, r1, lsl #12
    5030:	02030000 	andeq	r0, r3, #0, 0
    5034:	00014905 	andeq	r4, r1, r5, lsl #18
    5038:	05040300 	streq	r0, [r4, #-768]	; 0xfffffd00
    503c:	0000010e 	andeq	r0, r0, lr, lsl #2
    5040:	09050803 	stmdbeq	r5, {r0, r1, fp}
    5044:	03000001 	movweq	r0, #1
    5048:	00750801 	rsbseq	r0, r5, r1, lsl #16
    504c:	02030000 	andeq	r0, r3, #0, 0
    5050:	00009007 	andeq	r9, r0, r7
    5054:	07040300 	streq	r0, [r4, -r0, lsl #6]
    5058:	000000e5 	andeq	r0, r0, r5, ror #1
    505c:	e0070803 	and	r0, r7, r3, lsl #16
    5060:	04000000 	streq	r0, [r0], #-0
    5064:	00000025 	andeq	r0, r0, r5, lsr #32
    5068:	0000007a 	andeq	r0, r0, sl, ror r0
    506c:	00002505 	andeq	r2, r0, r5, lsl #10
    5070:	6f060000 	svcvs	0x00060000
    5074:	02000001 	andeq	r0, r0, #1, 0
    5078:	00860e1c 	addeq	r0, r6, ip, lsl lr
    507c:	04070000 	streq	r0, [r7], #-0
    5080:	0000006b 	andeq	r0, r0, fp, rrx
    5084:	00002504 	andeq	r2, r0, r4, lsl #10
    5088:	00009b00 	andeq	r9, r0, r0, lsl #22
    508c:	009b0500 	addseq	r0, fp, r0, lsl #10
    5090:	07000000 	streq	r0, [r0, -r0]
    5094:	0000a804 	andeq	sl, r0, r4, lsl #16
    5098:	08010300 	stmdaeq	r1, {r8, r9}
    509c:	0000007e 	andeq	r0, r0, lr, ror r0
    50a0:	0000a108 	andeq	sl, r0, r8, lsl #2
    50a4:	05d40600 	ldrbeq	r0, [r4, #1536]	; 0x600
    50a8:	21020000 	mrscs	r0, (UNDEF: 2)
    50ac:	0000b90e 	andeq	fp, r0, lr, lsl #18
    50b0:	8c040700 	stchi	7, cr0, [r4], {-0}
    50b4:	09000000 	stmdbeq	r0, {}	; <UNPREDICTABLE>
    50b8:	0000067e 	andeq	r0, r0, lr, ror r6
    50bc:	25050301 	strcs	r0, [r5, #-769]	; 0xfffffcff
    50c0:	e4000000 	str	r0, [r0], #-0
    50c4:	440000a0 	strmi	r0, [r0], #-160	; 0xffffff60
    50c8:	01000000 	mrseq	r0, (UNDEF: 0)
    50cc:	00610a9c 	mlseq	r1, ip, sl, r0
    50d0:	9b180301 	blls	605cdc <__bss_end__+0x5fae04>
    50d4:	b8000000 	stmdalt	r0, {}	; <UNPREDICTABLE>
    50d8:	ac000032 	stcge	0, cr0, [r0], {50}	; 0x32
    50dc:	0a000032 	beq	51ac <__code_start__-0x2e54>
    50e0:	03010062 	movweq	r0, #4194	; 0x1062
    50e4:	00009b27 	andeq	r9, r0, r7, lsr #22
    50e8:	00330c00 	eorseq	r0, r3, r0, lsl #24
    50ec:	00330600 	eorseq	r0, r3, r0, lsl #12
    50f0:	0f000000 	svceq	0x00000000
    50f4:	04000001 	streq	r0, [r0], #-1
    50f8:	001bf300 	andseq	pc, fp, r0, lsl #6
    50fc:	b4010400 	strlt	r0, [r1], #-1024	; 0xfffffc00
    5100:	0c000004 	stceq	0, cr0, [r0], {4}
    5104:	00000bf7 	strdeq	r0, [r0], -r7
    5108:	0000056c 	andeq	r0, r0, ip, ror #10
    510c:	0000a128 	andeq	sl, r0, r8, lsr #2
    5110:	00000018 	andeq	r0, r0, r8, lsl r0
    5114:	0000276c 	andeq	r2, r0, ip, ror #14
    5118:	69050402 	stmdbvs	r5, {r1, sl}
    511c:	0300746e 	movweq	r7, #1134	; 0x46e
    5120:	00ea0704 	rsceq	r0, sl, r4, lsl #14
    5124:	01030000 	mrseq	r0, (UNDEF: 3)
    5128:	00007706 	andeq	r7, r0, r6, lsl #14
    512c:	05020300 	streq	r0, [r2, #-768]	; 0xfffffd00
    5130:	00000149 	andeq	r0, r0, r9, asr #2
    5134:	0e050403 	cdpeq	4, 0, cr0, cr5, cr3, {0}
    5138:	03000001 	movweq	r0, #1
    513c:	01090508 	tsteq	r9, r8, lsl #10
    5140:	01030000 	mrseq	r0, (UNDEF: 3)
    5144:	00007508 	andeq	r7, r0, r8, lsl #10
    5148:	07020300 	streq	r0, [r2, -r0, lsl #6]
    514c:	00000090 	muleq	r0, r0, r0
    5150:	e5070403 	str	r0, [r7, #-1027]	; 0xfffffbfd
    5154:	03000000 	movweq	r0, #0
    5158:	00e00708 	rsceq	r0, r0, r8, lsl #14
    515c:	25040000 	strcs	r0, [r4, #-0]
    5160:	7a000000 	bvc	5168 <__code_start__-0x2e98>
    5164:	05000000 	streq	r0, [r0, #-0]
    5168:	00000025 	andeq	r0, r0, r5, lsr #32
    516c:	016f0600 	cmneq	pc, r0, lsl #12
    5170:	1c020000 	stcne	0, cr0, [r2], {-0}
    5174:	0000860e 	andeq	r8, r0, lr, lsl #12
    5178:	6b040700 	blvs	106d80 <__bss_end__+0xfbea8>
    517c:	04000000 	streq	r0, [r0], #-0
    5180:	00000025 	andeq	r0, r0, r5, lsr #32
    5184:	0000009b 	muleq	r0, fp, r0
    5188:	00009b05 	andeq	r9, r0, r5, lsl #22
    518c:	04070000 	streq	r0, [r7], #-0
    5190:	000000a8 	andeq	r0, r0, r8, lsr #1
    5194:	7e080103 	adfvce	f0, f0, f3
    5198:	08000000 	stmdaeq	r0, {}	; <UNPREDICTABLE>
    519c:	000000a1 	andeq	r0, r0, r1, lsr #1
    51a0:	0005d406 	andeq	sp, r5, r6, lsl #8
    51a4:	0e210200 	cdpeq	2, 2, cr0, cr1, cr0, {0}
    51a8:	000000b9 	strheq	r0, [r0], -r9
    51ac:	008c0407 	addeq	r0, ip, r7, lsl #8
    51b0:	57090000 	strpl	r0, [r9, -r0]
    51b4:	01000006 	tsteq	r0, r6
    51b8:	010c0703 	tsteq	ip, r3, lsl #14
    51bc:	a1280000 			; <UNDEFINED> instruction: 0xa1280000
    51c0:	00180000 	andseq	r0, r8, r0
    51c4:	9c010000 	stcls	0, cr0, [r1], {-0}
    51c8:	0000010c 	andeq	r0, r0, ip, lsl #2
    51cc:	0031730a 	eorseq	r7, r1, sl, lsl #6
    51d0:	0c150301 	ldceq	3, cr0, [r5], {1}
    51d4:	01000001 	tsteq	r0, r1
    51d8:	32730b50 	rsbscc	r0, r3, #80, 22	; 0x14000
    51dc:	26030100 	strcs	r0, [r3], -r0, lsl #2
    51e0:	0000009b 	muleq	r0, fp, r0
    51e4:	0000333b 	andeq	r3, r0, fp, lsr r3
    51e8:	00003335 	andeq	r3, r0, r5, lsr r3
    51ec:	0100730c 	tsteq	r0, ip, lsl #6
    51f0:	010c1404 	tsteq	ip, r4, lsl #8
    51f4:	33680000 	cmncc	r8, #0, 0
    51f8:	33660000 	cmncc	r6, #0, 0
    51fc:	07000000 	streq	r0, [r0, -r0]
    5200:	0000a104 	andeq	sl, r0, r4, lsl #2
    5204:	014e0000 	mrseq	r0, (UNDEF: 78)
    5208:	00040000 	andeq	r0, r4, r0
    520c:	00001ca9 	andeq	r1, r0, r9, lsr #25
    5210:	04b40104 	ldrteq	r0, [r4], #260	; 0x104
    5214:	070c0000 	streq	r0, [ip, -r0]
    5218:	6c00000c 	stcvs	0, cr0, [r0], {12}
    521c:	40000005 	andmi	r0, r0, r5
    5220:	300000a1 	andcc	r0, r0, r1, lsr #1
    5224:	0d000000 	stceq	0, cr0, [r0, #-0]
    5228:	02000028 	andeq	r0, r0, #40, 0	; 0x28
    522c:	6e690504 	cdpvs	5, 6, cr0, cr9, cr4, {0}
    5230:	9d030074 	stcls	0, cr0, [r3, #-464]	; 0xfffffe30
    5234:	03000004 	movweq	r0, #4
    5238:	003817d1 	ldrsbteq	r1, [r8], -r1
    523c:	04040000 	streq	r0, [r4], #-0
    5240:	0000ea07 	andeq	lr, r0, r7, lsl #20
    5244:	06010400 	streq	r0, [r1], -r0, lsl #8
    5248:	00000077 	andeq	r0, r0, r7, ror r0
    524c:	49050204 	stmdbmi	r5, {r2, r9}
    5250:	04000001 	streq	r0, [r0], #-1
    5254:	010e0504 	tsteq	lr, r4, lsl #10
    5258:	08040000 	stmdaeq	r4, {}	; <UNPREDICTABLE>
    525c:	00010905 	andeq	r0, r1, r5, lsl #18
    5260:	08010400 	stmdaeq	r1, {sl}
    5264:	00000075 	andeq	r0, r0, r5, ror r0
    5268:	00005b05 	andeq	r5, r0, r5, lsl #22
    526c:	07020400 	streq	r0, [r2, -r0, lsl #8]
    5270:	00000090 	muleq	r0, r0, r0
    5274:	e5070404 	str	r0, [r7, #-1028]	; 0xfffffbfc
    5278:	04000000 	streq	r0, [r0], #-0
    527c:	00e00708 	rsceq	r0, r0, r8, lsl #14
    5280:	25060000 	strcs	r0, [r6, #-0]
    5284:	8b000000 	blhi	528c <__code_start__-0x2d74>
    5288:	07000000 	streq	r0, [r0, -r0]
    528c:	00000025 	andeq	r0, r0, r5, lsr #32
    5290:	016f0800 	cmneq	pc, r0, lsl #16
    5294:	1c020000 	stcne	0, cr0, [r2], {-0}
    5298:	0000970e 	andeq	r9, r0, lr, lsl #14
    529c:	7c040900 			; <UNDEFINED> instruction: 0x7c040900
    52a0:	06000000 	streq	r0, [r0], -r0
    52a4:	00000025 	andeq	r0, r0, r5, lsr #32
    52a8:	000000ac 	andeq	r0, r0, ip, lsr #1
    52ac:	0000ac07 	andeq	sl, r0, r7, lsl #24
    52b0:	04090000 	streq	r0, [r9], #-0
    52b4:	000000b9 	strheq	r0, [r0], -r9
    52b8:	7e080104 	adfvce	f0, f0, f4
    52bc:	05000000 	streq	r0, [r0, #-0]
    52c0:	000000b2 	strheq	r0, [r0], -r2
    52c4:	0005d408 	andeq	sp, r5, r8, lsl #8
    52c8:	0e210200 	cdpeq	2, 2, cr0, cr1, cr0, {0}
    52cc:	000000ca 	andeq	r0, r0, sl, asr #1
    52d0:	009d0409 	addseq	r0, sp, r9, lsl #8
    52d4:	9f0a0000 	svcls	0x000a0000
    52d8:	01000006 	tsteq	r0, r6
    52dc:	00250504 	eoreq	r0, r5, r4, lsl #10
    52e0:	a1400000 	mrsge	r0, (UNDEF: 64)
    52e4:	00300000 	eorseq	r0, r0, r0
    52e8:	9c010000 	stcls	0, cr0, [r1], {-0}
    52ec:	0000014b 	andeq	r0, r0, fp, asr #2
    52f0:	31735f0b 	cmncc	r3, fp, lsl #30
    52f4:	19040100 	stmdbne	r4, {r8}
    52f8:	000000ac 	andeq	r0, r0, ip, lsr #1
    52fc:	0000337f 	andeq	r3, r0, pc, ror r3
    5300:	0000337b 	andeq	r3, r0, fp, ror r3
    5304:	32735f0b 	rsbscc	r5, r3, #11, 30	; 0x2c
    5308:	2a040100 	bcs	105710 <__bss_end__+0xfa838>
    530c:	000000ac 	andeq	r0, r0, ip, lsr #1
    5310:	000033a4 	andeq	r3, r0, r4, lsr #7
    5314:	000033a0 	andeq	r3, r0, r0, lsr #7
    5318:	01006e0b 	tsteq	r0, fp, lsl #28
    531c:	002c3604 	eoreq	r3, ip, r4, lsl #12
    5320:	33cf0000 	biccc	r0, pc, #0, 0
    5324:	33c50000 	biccc	r0, r5, #0, 0
    5328:	730c0000 	movwvc	r0, #49152	; 0xc000
    532c:	05010031 	streq	r0, [r1, #-49]	; 0xffffffcf
    5330:	00014b1a 	andeq	r4, r1, sl, lsl fp
    5334:	00342600 	eorseq	r2, r4, r0, lsl #12
    5338:	00341e00 	eorseq	r1, r4, r0, lsl #28
    533c:	32730c00 	rsbscc	r0, r3, #0, 24
    5340:	2c050100 	stfcss	f0, [r5], {-0}
    5344:	0000014b 	andeq	r0, r0, fp, asr #2
    5348:	00003464 	andeq	r3, r0, r4, ror #8
    534c:	0000345e 	andeq	r3, r0, lr, asr r4
    5350:	62040900 	andvs	r0, r4, #0, 18
    5354:	00000000 	andeq	r0, r0, r0
    5358:	000000ce 	andeq	r0, r0, lr, asr #1
    535c:	1d5d0004 	ldclne	0, cr0, [sp, #-16]
    5360:	01040000 	mrseq	r0, (UNDEF: 4)
    5364:	000004b4 			; <UNDEFINED> instruction: 0x000004b4
    5368:	000c180c 	andeq	r1, ip, ip, lsl #16
    536c:	00056c00 	andeq	r6, r5, r0, lsl #24
    5370:	00a17000 	adceq	r7, r1, r0
    5374:	00000400 	andeq	r0, r0, r0, lsl #8
    5378:	00290e00 	eoreq	r0, r9, r0, lsl #28
    537c:	05040200 	streq	r0, [r4, #-512]	; 0xfffffe00
    5380:	00746e69 	rsbseq	r6, r4, r9, ror #28
    5384:	ea070403 	b	1c6398 <__bss_end__+0x1bb4c0>
    5388:	03000000 	movweq	r0, #0
    538c:	00770601 	rsbseq	r0, r7, r1, lsl #12
    5390:	02030000 	andeq	r0, r3, #0, 0
    5394:	00014905 	andeq	r4, r1, r5, lsl #18
    5398:	05040300 	streq	r0, [r4, #-768]	; 0xfffffd00
    539c:	0000010e 	andeq	r0, r0, lr, lsl #2
    53a0:	09050803 	stmdbeq	r5, {r0, r1, fp}
    53a4:	03000001 	movweq	r0, #1
    53a8:	00750801 	rsbseq	r0, r5, r1, lsl #16
    53ac:	02030000 	andeq	r0, r3, #0, 0
    53b0:	00009007 	andeq	r9, r0, r7
    53b4:	07040300 	streq	r0, [r4, -r0, lsl #6]
    53b8:	000000e5 	andeq	r0, r0, r5, ror #1
    53bc:	e0070803 	and	r0, r7, r3, lsl #16
    53c0:	04000000 	streq	r0, [r0], #-0
    53c4:	00000025 	andeq	r0, r0, r5, lsr #32
    53c8:	0000007a 	andeq	r0, r0, sl, ror r0
    53cc:	00002505 	andeq	r2, r0, r5, lsl #10
    53d0:	6f060000 	svcvs	0x00060000
    53d4:	02000001 	andeq	r0, r0, #1, 0
    53d8:	00860e1c 	addeq	r0, r6, ip, lsl lr
    53dc:	04070000 	streq	r0, [r7], #-0
    53e0:	0000006b 	andeq	r0, r0, fp, rrx
    53e4:	00002504 	andeq	r2, r0, r4, lsl #10
    53e8:	00009b00 	andeq	r9, r0, r0, lsl #22
    53ec:	009b0500 	addseq	r0, fp, r0, lsl #10
    53f0:	07000000 	streq	r0, [r0, -r0]
    53f4:	0000a804 	andeq	sl, r0, r4, lsl #16
    53f8:	08010300 	stmdaeq	r1, {r8, r9}
    53fc:	0000007e 	andeq	r0, r0, lr, ror r0
    5400:	0000a108 	andeq	sl, r0, r8, lsl #2
    5404:	05d40600 	ldrbeq	r0, [r4, #1536]	; 0x600
    5408:	21020000 	mrscs	r0, (UNDEF: 2)
    540c:	0000b90e 	andeq	fp, r0, lr, lsl #18
    5410:	8c040700 	stchi	7, cr0, [r4], {-0}
    5414:	09000000 	stmdbeq	r0, {}	; <UNPREDICTABLE>
    5418:	00000746 	andeq	r0, r0, r6, asr #14
    541c:	70060301 	andvc	r0, r6, r1, lsl #6
    5420:	040000a1 	streq	r0, [r0], #-161	; 0xffffff5f
    5424:	01000000 	mrseq	r0, (UNDEF: 0)
    5428:	Address 0x0000000000005428 is out of bounds.


Disassembly of section .debug_abbrev:

00000000 <.debug_abbrev>:
       0:	25011101 	strcs	r1, [r1, #-257]	; 0xfffffeff
       4:	030b130e 	movweq	r1, #45838	; 0xb30e
       8:	110e1b0e 	tstne	lr, lr, lsl #22
       c:	10061201 	andne	r1, r6, r1, lsl #4
      10:	02000017 	andeq	r0, r0, #23, 0
      14:	0b0b0024 	bleq	2c00ac <__bss_end__+0x2b51d4>
      18:	08030b3e 	stmdaeq	r3, {r1, r2, r3, r4, r5, r8, r9, fp}
      1c:	24030000 	strcs	r0, [r3], #-0
      20:	3e0b0b00 	vmlacc.f64	d0, d11, d0
      24:	000e030b 	andeq	r0, lr, fp, lsl #6
      28:	00160400 	andseq	r0, r6, r0, lsl #8
      2c:	0b3a0e03 	bleq	e83840 <__bss_end__+0xe78968>
      30:	0b390b3b 	bleq	e42d24 <__bss_end__+0xe37e4c>
      34:	00001349 	andeq	r1, r0, r9, asr #6
      38:	27011505 	strcs	r1, [r1, -r5, lsl #10]
      3c:	01134919 	tsteq	r3, r9, lsl r9
      40:	06000013 			; <UNDEFINED> instruction: 0x06000013
      44:	13490005 	movtne	r0, #36869	; 0x9005
      48:	34070000 	strcc	r0, [r7], #-0
      4c:	3a0e0300 	bcc	380c54 <__bss_end__+0x375d7c>
      50:	390b3b0b 	stmdbcc	fp, {r0, r1, r3, r8, r9, fp, ip, sp}
      54:	3f13490b 	svccc	0x0013490b
      58:	00193c19 	andseq	r3, r9, r9, lsl ip
      5c:	000f0800 	andeq	r0, pc, r0, lsl #16
      60:	13490b0b 	movtne	r0, #39691	; 0x9b0b
      64:	26090000 	strcs	r0, [r9], -r0
      68:	00134900 	andseq	r4, r3, r0, lsl #18
      6c:	01130a00 	tsteq	r3, r0, lsl #20
      70:	0b3a0b0b 	bleq	e82ca4 <__bss_end__+0xe77dcc>
      74:	0b390b3b 	bleq	e42d68 <__bss_end__+0xe37e90>
      78:	00001301 	andeq	r1, r0, r1, lsl #6
      7c:	03000d0b 	movweq	r0, #3339	; 0xd0b
      80:	3b0b3a0e 	blcc	2ce8c0 <__bss_end__+0x2c39e8>
      84:	490b390b 	stmdbmi	fp, {r0, r1, r3, r8, fp, ip, sp}
      88:	000b3813 	andeq	r3, fp, r3, lsl r8
      8c:	01130c00 	tsteq	r3, r0, lsl #24
      90:	0b0b0e03 	bleq	2c38a4 <__bss_end__+0x2b89cc>
      94:	0b3b0b3a 	bleq	ec2d84 <__bss_end__+0xeb7eac>
      98:	13010b39 	movwne	r0, #6969	; 0x1b39
      9c:	0d0d0000 	stceq	0, cr0, [sp, #-0]
      a0:	3a080300 	bcc	200ca8 <__bss_end__+0x1f5dd0>
      a4:	390b3b0b 	stmdbcc	fp, {r0, r1, r3, r8, r9, fp, ip, sp}
      a8:	3813490b 	ldmdacc	r3, {r0, r1, r3, r8, fp, lr}
      ac:	0e00000b 	cdpeq	0, 0, cr0, cr0, cr11, {0}
      b0:	13490101 	movtne	r0, #37121	; 0x9101
      b4:	00001301 	andeq	r1, r0, r1, lsl #6
      b8:	4900210f 	stmdbmi	r0, {r0, r1, r2, r3, r8, sp}
      bc:	000b2f13 	andeq	r2, fp, r3, lsl pc
      c0:	000f1000 	andeq	r1, pc, r0
      c4:	00000b0b 	andeq	r0, r0, fp, lsl #22
      c8:	3f012e11 	svccc	0x00012e11
      cc:	3a0e0319 	bcc	380d38 <__bss_end__+0x375e60>
      d0:	390b3b0b 	stmdbcc	fp, {r0, r1, r3, r8, r9, fp, ip, sp}
      d4:	1119270b 	tstne	r9, fp, lsl #14
      d8:	40061201 	andmi	r1, r6, r1, lsl #4
      dc:	19429718 	stmdbne	r2, {r3, r4, r8, r9, sl, ip, pc}^
      e0:	00001301 	andeq	r1, r0, r1, lsl #6
      e4:	03003412 	movweq	r3, #1042	; 0x412
      e8:	3b0b3a08 	blcc	2ce910 <__bss_end__+0x2c3a38>
      ec:	490b390b 	stmdbmi	fp, {r0, r1, r3, r8, fp, ip, sp}
      f0:	b7170213 			; <UNDEFINED> instruction: 0xb7170213
      f4:	00001742 	andeq	r1, r0, r2, asr #14
      f8:	03003413 	movweq	r3, #1043	; 0x413
      fc:	3413490e 	ldrcc	r4, [r3], #-2318	; 0xfffff6f2
     100:	00180219 	andseq	r0, r8, r9, lsl r2
     104:	82891400 	addhi	r1, r9, #0, 8
     108:	01110101 	tsteq	r1, r1, lsl #2
     10c:	13011331 	movwne	r1, #4913	; 0x1331
     110:	8a150000 	bhi	540118 <__bss_end__+0x535240>
     114:	02000182 	andeq	r0, r0, #-2147483616	; 0x80000020
     118:	18429118 	stmdane	r2, {r3, r4, r8, ip, pc}^
     11c:	89160000 	ldmdbhi	r6, {}	; <UNPREDICTABLE>
     120:	11000182 	smlabbne	r0, r2, r1, r0
     124:	00133101 	andseq	r3, r3, r1, lsl #2
     128:	012e1700 			; <UNDEFINED> instruction: 0x012e1700
     12c:	0e03193f 			; <UNDEFINED> instruction: 0x0e03193f
     130:	0b3b0b3a 	bleq	ec2e20 <__bss_end__+0xeb7f48>
     134:	19270b39 	stmdbne	r7!, {r0, r3, r4, r5, r8, r9, fp}
     138:	01111349 	tsteq	r1, r9, asr #6
     13c:	18400612 	stmdane	r0, {r1, r4, r9, sl}^
     140:	01194297 			; <UNDEFINED> instruction: 0x01194297
     144:	18000013 	stmdane	r0, {r0, r1, r4}
     148:	1331011d 	teqne	r1, #1073741831	; 0x40000007
     14c:	42b80152 	adcsmi	r0, r8, #-2147483628	; 0x80000014
     150:	1201110b 	andne	r1, r1, #-1073741822	; 0xc0000002
     154:	590b5806 	stmdbpl	fp, {r1, r2, fp, ip, lr}
     158:	010b570b 	tsteq	fp, fp, lsl #14
     15c:	19000013 	stmdbne	r0, {r0, r1, r4}
     160:	13310005 	teqne	r1, #5, 0
     164:	42b71702 	adcsmi	r1, r7, #524288	; 0x80000
     168:	1a000017 	bne	1cc <__code_start__-0x7e34>
     16c:	01018289 	smlabbeq	r1, r9, r2, r8
     170:	13310111 	teqne	r1, #1073741828	; 0x40000004
     174:	2e1b0000 	cdpcs	0, 1, cr0, cr11, cr0, {0}
     178:	3a0e0301 	bcc	380d84 <__bss_end__+0x375eac>
     17c:	390b3b0b 	stmdbcc	fp, {r0, r1, r3, r8, r9, fp, ip, sp}
     180:	4919270b 	ldmdbmi	r9, {r0, r1, r3, r8, r9, sl, sp}
     184:	12011113 	andne	r1, r1, #-1073741820	; 0xc0000004
     188:	97184006 	ldrls	r4, [r8, -r6]
     18c:	13011942 	movwne	r1, #6466	; 0x1942
     190:	051c0000 	ldreq	r0, [ip, #-0]
     194:	3a080300 	bcc	200d9c <__bss_end__+0x1f5ec4>
     198:	390b3b0b 	stmdbcc	fp, {r0, r1, r3, r8, r9, fp, ip, sp}
     19c:	0213490b 	andseq	r4, r3, #180224	; 0x2c000
     1a0:	1742b717 	smlaldne	fp, r2, r7, r7
     1a4:	2e1d0000 	cdpcs	0, 1, cr0, cr13, cr0, {0}
     1a8:	3a0e0301 	bcc	380db4 <__bss_end__+0x375edc>
     1ac:	390b3b0b 	stmdbcc	fp, {r0, r1, r3, r8, r9, fp, ip, sp}
     1b0:	4919270b 	ldmdbmi	r9, {r0, r1, r3, r8, r9, sl, sp}
     1b4:	010b2013 	tsteq	fp, r3, lsl r0
     1b8:	1e000013 	mcrne	0, 0, r0, cr0, cr3, {0}
     1bc:	0e030005 	cdpeq	0, 0, cr0, cr3, cr5, {0}
     1c0:	0b3b0b3a 	bleq	ec2eb0 <__bss_end__+0xeb7fd8>
     1c4:	13490b39 	movtne	r0, #39737	; 0x9b39
     1c8:	2e1f0000 	cdpcs	0, 1, cr0, cr15, cr0, {0}
     1cc:	3c193f00 	ldccc	15, cr3, [r9], {-0}
     1d0:	030e6e19 	movweq	r6, #60953	; 0xee19
     1d4:	3b0b3a0e 	blcc	2cea14 <__bss_end__+0x2c3b3c>
     1d8:	000b390b 	andeq	r3, fp, fp, lsl #18
     1dc:	00362000 	eorseq	r2, r6, r0
     1e0:	00001802 	andeq	r1, r0, r2, lsl #16
     1e4:	01110100 	tsteq	r1, r0, lsl #2
     1e8:	0b130e25 	bleq	4c3a84 <__bss_end__+0x4b8bac>
     1ec:	0e1b0e03 	cdpeq	14, 1, cr0, cr11, cr3, {0}
     1f0:	06120111 			; <UNDEFINED> instruction: 0x06120111
     1f4:	00001710 	andeq	r1, r0, r0, lsl r7
     1f8:	0b002402 	bleq	9208 <va_printk+0x1c0>
     1fc:	030b3e0b 	movweq	r3, #48651	; 0xbe0b
     200:	03000008 	movweq	r0, #8
     204:	0b0b0024 	bleq	2c029c <__bss_end__+0x2b53c4>
     208:	0e030b3e 	vmoveq.16	d3[0], r0
     20c:	16040000 	strne	r0, [r4], -r0
     210:	3a0e0300 	bcc	380e18 <__bss_end__+0x375f40>
     214:	390b3b0b 	stmdbcc	fp, {r0, r1, r3, r8, r9, fp, ip, sp}
     218:	0013490b 	andseq	r4, r3, fp, lsl #18
     21c:	01150500 	tsteq	r5, r0, lsl #10
     220:	13491927 	movtne	r1, #39207	; 0x9927
     224:	00001301 	andeq	r1, r0, r1, lsl #6
     228:	49000506 	stmdbmi	r0, {r1, r2, r8, sl}
     22c:	07000013 	smladeq	r0, r3, r0, r0
     230:	0e030034 	mcreq	0, 0, r0, cr3, cr4, {1}
     234:	0b3b0b3a 	bleq	ec2f24 <__bss_end__+0xeb804c>
     238:	13490b39 	movtne	r0, #39737	; 0x9b39
     23c:	193c193f 	ldmdbne	ip!, {r0, r1, r2, r3, r4, r5, r8, fp, ip}
     240:	0f080000 	svceq	0x00080000
     244:	490b0b00 	stmdbmi	fp, {r8, r9, fp}
     248:	09000013 	stmdbeq	r0, {r0, r1, r4}
     24c:	13490026 	movtne	r0, #36902	; 0x9026
     250:	130a0000 	movwne	r0, #40960	; 0xa000
     254:	3a0b0b01 	bcc	2c2e60 <__bss_end__+0x2b7f88>
     258:	390b3b0b 	stmdbcc	fp, {r0, r1, r3, r8, r9, fp, ip, sp}
     25c:	0013010b 	andseq	r0, r3, fp, lsl #2
     260:	000d0b00 	andeq	r0, sp, r0, lsl #22
     264:	0b3a0e03 	bleq	e83a78 <__bss_end__+0xe78ba0>
     268:	0b390b3b 	bleq	e42f5c <__bss_end__+0xe38084>
     26c:	0b381349 	bleq	e04f98 <__bss_end__+0xdfa0c0>
     270:	040c0000 	streq	r0, [ip], #-0
     274:	0b0b3e01 	bleq	2cfa80 <__bss_end__+0x2c4ba8>
     278:	3a13490b 	bcc	4d26ac <__bss_end__+0x4c77d4>
     27c:	390b3b0b 	stmdbcc	fp, {r0, r1, r3, r8, r9, fp, ip, sp}
     280:	0013010b 	andseq	r0, r3, fp, lsl #2
     284:	00280d00 	eoreq	r0, r8, r0, lsl #26
     288:	0b1c0e03 	bleq	703a9c <__bss_end__+0x6f8bc4>
     28c:	130e0000 	movwne	r0, #57344	; 0xe000
     290:	0b0e0301 	bleq	380e9c <__bss_end__+0x375fc4>
     294:	3b0b3a0b 	blcc	2ceac8 <__bss_end__+0x2c3bf0>
     298:	010b390b 	tsteq	fp, fp, lsl #18
     29c:	0f000013 	svceq	0x00000013
     2a0:	0803000d 	stmdaeq	r3, {r0, r2, r3}
     2a4:	0b3b0b3a 	bleq	ec2f94 <__bss_end__+0xeb80bc>
     2a8:	13490b39 	movtne	r0, #39737	; 0x9b39
     2ac:	00000b38 	andeq	r0, r0, r8, lsr fp
     2b0:	49010110 	stmdbmi	r1, {r4, r8}
     2b4:	00130113 	andseq	r0, r3, r3, lsl r1
     2b8:	00211100 	eoreq	r1, r1, r0, lsl #2
     2bc:	0b2f1349 	bleq	bc4fe8 <__bss_end__+0xbba110>
     2c0:	0f120000 	svceq	0x00120000
     2c4:	000b0b00 	andeq	r0, fp, r0, lsl #22
     2c8:	00341300 	eorseq	r1, r4, r0, lsl #6
     2cc:	0b3a0e03 	bleq	e83ae0 <__bss_end__+0xe78c08>
     2d0:	0b390b3b 	bleq	e42fc4 <__bss_end__+0xe380ec>
     2d4:	18021349 	stmdane	r2, {r0, r3, r6, r8, r9, ip}
     2d8:	2e140000 	cdpcs	0, 1, cr0, cr4, cr0, {0}
     2dc:	03193f01 	tsteq	r9, #1, 30
     2e0:	3b0b3a0e 	blcc	2ceb20 <__bss_end__+0x2c3c48>
     2e4:	270b390b 	strcs	r3, [fp, -fp, lsl #18]
     2e8:	11134919 	tstne	r3, r9, lsl r9
     2ec:	40061201 	andmi	r1, r6, r1, lsl #4
     2f0:	19429718 	stmdbne	r2, {r3, r4, r8, r9, sl, ip, pc}^
     2f4:	00001301 	andeq	r1, r0, r1, lsl #6
     2f8:	03000515 	movweq	r0, #1301	; 0x515
     2fc:	3b0b3a0e 	blcc	2ceb3c <__bss_end__+0x2c3c64>
     300:	490b390b 	stmdbmi	fp, {r0, r1, r3, r8, fp, ip, sp}
     304:	b7170213 			; <UNDEFINED> instruction: 0xb7170213
     308:	00001742 	andeq	r1, r0, r2, asr #14
     30c:	03000516 	movweq	r0, #1302	; 0x516
     310:	3b0b3a08 	blcc	2ceb38 <__bss_end__+0x2c3c60>
     314:	490b390b 	stmdbmi	fp, {r0, r1, r3, r8, fp, ip, sp}
     318:	00180213 	andseq	r0, r8, r3, lsl r2
     31c:	00341700 	eorseq	r1, r4, r0, lsl #14
     320:	0b3a0803 	bleq	e82334 <__bss_end__+0xe7745c>
     324:	0b390b3b 	bleq	e43018 <__bss_end__+0xe38140>
     328:	17021349 	strne	r1, [r2, -r9, asr #6]
     32c:	001742b7 			; <UNDEFINED> instruction: 0x001742b7
     330:	82891800 	addhi	r1, r9, #0, 16
     334:	01110101 	tsteq	r1, r1, lsl #2
     338:	13011331 	movwne	r1, #4913	; 0x1331
     33c:	8a190000 	bhi	640344 <__bss_end__+0x63546c>
     340:	02000182 	andeq	r0, r0, #-2147483616	; 0x80000020
     344:	18429118 	stmdane	r2, {r3, r4, r8, ip, pc}^
     348:	891a0000 	ldmdbhi	sl, {}	; <UNPREDICTABLE>
     34c:	11010182 	smlabbne	r1, r2, r1, r0
     350:	00133101 	andseq	r3, r3, r1, lsl #2
     354:	012e1b00 			; <UNDEFINED> instruction: 0x012e1b00
     358:	0e03193f 			; <UNDEFINED> instruction: 0x0e03193f
     35c:	0b3b0b3a 	bleq	ec304c <__bss_end__+0xeb8174>
     360:	19270b39 	stmdbne	r7!, {r0, r3, r4, r5, r8, r9, fp}
     364:	06120111 			; <UNDEFINED> instruction: 0x06120111
     368:	42971840 	addsmi	r1, r7, #64, 16	; 0x400000
     36c:	00130119 	andseq	r0, r3, r9, lsl r1
     370:	00341c00 	eorseq	r1, r4, r0, lsl #24
     374:	13490e03 	movtne	r0, #40451	; 0x9e03
     378:	18021934 	stmdane	r2, {r2, r4, r5, r8, fp, ip}
     37c:	891d0000 	ldmdbhi	sp, {}	; <UNPREDICTABLE>
     380:	11000182 	smlabbne	r0, r2, r1, r0
     384:	00133101 	andseq	r3, r3, r1, lsl #2
     388:	012e1e00 			; <UNDEFINED> instruction: 0x012e1e00
     38c:	0b3a0e03 	bleq	e83ba0 <__bss_end__+0xe78cc8>
     390:	0b390b3b 	bleq	e43084 <__bss_end__+0xe381ac>
     394:	01111927 	tsteq	r1, r7, lsr #18
     398:	18400612 	stmdane	r0, {r1, r4, r9, sl}^
     39c:	01194297 			; <UNDEFINED> instruction: 0x01194297
     3a0:	1f000013 	svcne	0x00000013
     3a4:	08030005 	stmdaeq	r3, {r0, r2}
     3a8:	0b3b0b3a 	bleq	ec3098 <__bss_end__+0xeb81c0>
     3ac:	13490b39 	movtne	r0, #39737	; 0x9b39
     3b0:	42b71702 	adcsmi	r1, r7, #524288	; 0x80000
     3b4:	20000017 	andcs	r0, r0, r7, lsl r0
     3b8:	0e030034 	mcreq	0, 0, r0, cr3, cr4, {1}
     3bc:	0b3b0b3a 	bleq	ec30ac <__bss_end__+0xeb81d4>
     3c0:	13490b39 	movtne	r0, #39737	; 0x9b39
     3c4:	42b71702 	adcsmi	r1, r7, #524288	; 0x80000
     3c8:	21000017 	tstcs	r0, r7, lsl r0
     3cc:	0111010b 	tsteq	r1, fp, lsl #2
     3d0:	00000612 	andeq	r0, r0, r2, lsl r6
     3d4:	31011d22 	tstcc	r1, r2, lsr #26
     3d8:	b8015213 	stmdalt	r1, {r0, r1, r4, r9, ip, lr}
     3dc:	01110b42 	tsteq	r1, r2, asr #22
     3e0:	0b580612 	bleq	1601c30 <__bss_end__+0x15f6d58>
     3e4:	0b570b59 	bleq	15c3150 <__bss_end__+0x15b8278>
     3e8:	00001301 	andeq	r1, r0, r1, lsl #6
     3ec:	31000523 	tstcc	r0, r3, lsr #10
     3f0:	b7170213 			; <UNDEFINED> instruction: 0xb7170213
     3f4:	00001742 	andeq	r1, r0, r2, asr #14
     3f8:	3f002e24 	svccc	0x00002e24
     3fc:	3a0e0319 	bcc	381068 <__bss_end__+0x376190>
     400:	390b3b0b 	stmdbcc	fp, {r0, r1, r3, r8, r9, fp, ip, sp}
     404:	4919270b 	ldmdbmi	r9, {r0, r1, r3, r8, r9, sl, sp}
     408:	12011113 	andne	r1, r1, #-1073741820	; 0xc0000004
     40c:	97184006 	ldrls	r4, [r8, -r6]
     410:	00001942 	andeq	r1, r0, r2, asr #18
     414:	03012e25 	movweq	r2, #7717	; 0x1e25
     418:	3b0b3a0e 	blcc	2cec58 <__bss_end__+0x2c3d80>
     41c:	270b390b 	strcs	r3, [fp, -fp, lsl #18]
     420:	20134919 	andscs	r4, r3, r9, lsl r9
     424:	0013010b 	andseq	r0, r3, fp, lsl #2
     428:	00052600 	andeq	r2, r5, r0, lsl #12
     42c:	0b3a0803 	bleq	e82440 <__bss_end__+0xe77568>
     430:	0b390b3b 	bleq	e43124 <__bss_end__+0xe3824c>
     434:	00001349 	andeq	r1, r0, r9, asr #6
     438:	3f002e27 	svccc	0x00002e27
     43c:	6e193c19 	mrcvs	12, 0, r3, cr9, cr9, {0}
     440:	3a0e030e 	bcc	381080 <__bss_end__+0x3761a8>
     444:	390b3b0b 	stmdbcc	fp, {r0, r1, r3, r8, r9, fp, ip, sp}
     448:	0000000b 	andeq	r0, r0, fp
     44c:	25011101 	strcs	r1, [r1, #-257]	; 0xfffffeff
     450:	030b130e 	movweq	r1, #45838	; 0xb30e
     454:	110e1b0e 	tstne	lr, lr, lsl #22
     458:	10061201 	andne	r1, r6, r1, lsl #4
     45c:	02000017 	andeq	r0, r0, #23, 0
     460:	0b0b0024 	bleq	2c04f8 <__bss_end__+0x2b5620>
     464:	08030b3e 	stmdaeq	r3, {r1, r2, r3, r4, r5, r8, r9, fp}
     468:	24030000 	strcs	r0, [r3], #-0
     46c:	3e0b0b00 	vmlacc.f64	d0, d11, d0
     470:	000e030b 	andeq	r0, lr, fp, lsl #6
     474:	01150400 	tsteq	r5, r0, lsl #8
     478:	13491927 	movtne	r1, #39207	; 0x9927
     47c:	00001301 	andeq	r1, r0, r1, lsl #6
     480:	49000505 	stmdbmi	r0, {r0, r2, r8, sl}
     484:	06000013 			; <UNDEFINED> instruction: 0x06000013
     488:	0e030034 	mcreq	0, 0, r0, cr3, cr4, {1}
     48c:	0b3b0b3a 	bleq	ec317c <__bss_end__+0xeb82a4>
     490:	13490b39 	movtne	r0, #39737	; 0x9b39
     494:	193c193f 	ldmdbne	ip!, {r0, r1, r2, r3, r4, r5, r8, fp, ip}
     498:	0f070000 	svceq	0x00070000
     49c:	490b0b00 	stmdbmi	fp, {r8, r9, fp}
     4a0:	08000013 	stmdaeq	r0, {r0, r1, r4}
     4a4:	13490026 	movtne	r0, #36902	; 0x9026
     4a8:	17090000 	strne	r0, [r9, -r0]
     4ac:	0b0e0301 	bleq	3810b8 <__bss_end__+0x3761e0>
     4b0:	3b0b3a0b 	blcc	2cece4 <__bss_end__+0x2c3e0c>
     4b4:	010b390b 	tsteq	fp, fp, lsl #18
     4b8:	0a000013 	beq	50c <__code_start__-0x7af4>
     4bc:	0803000d 	stmdaeq	r3, {r0, r2, r3}
     4c0:	0b3b0b3a 	bleq	ec31b0 <__bss_end__+0xeb82d8>
     4c4:	13490b39 	movtne	r0, #39737	; 0x9b39
     4c8:	0f0b0000 	svceq	0x000b0000
     4cc:	000b0b00 	andeq	r0, fp, r0, lsl #22
     4d0:	00150c00 	andseq	r0, r5, r0, lsl #24
     4d4:	00001927 	andeq	r1, r0, r7, lsr #18
     4d8:	0b01130d 	bleq	45114 <__bss_end__+0x3a23c>
     4dc:	3b0b3a0b 	blcc	2ced10 <__bss_end__+0x2c3e38>
     4e0:	010b390b 	tsteq	fp, fp, lsl #18
     4e4:	0e000013 	mcreq	0, 0, r0, cr0, cr3, {0}
     4e8:	0803000d 	stmdaeq	r3, {r0, r2, r3}
     4ec:	0b3b0b3a 	bleq	ec31dc <__bss_end__+0xeb8304>
     4f0:	13490b39 	movtne	r0, #39737	; 0x9b39
     4f4:	00000b38 	andeq	r0, r0, r8, lsr fp
     4f8:	03000d0f 	movweq	r0, #3343	; 0xd0f
     4fc:	3b0b3a0e 	blcc	2ced3c <__bss_end__+0x2c3e64>
     500:	490b390b 	stmdbmi	fp, {r0, r1, r3, r8, fp, ip, sp}
     504:	000b3813 	andeq	r3, fp, r3, lsl r8
     508:	00161000 	andseq	r1, r6, r0
     50c:	0b3a0e03 	bleq	e83d20 <__bss_end__+0xe78e48>
     510:	0b390b3b 	bleq	e43204 <__bss_end__+0xe3832c>
     514:	00001349 	andeq	r1, r0, r9, asr #6
     518:	03003411 	movweq	r3, #1041	; 0x411
     51c:	3b0b3a0e 	blcc	2ced5c <__bss_end__+0x2c3e84>
     520:	490b390b 	stmdbmi	fp, {r0, r1, r3, r8, fp, ip, sp}
     524:	00180213 	andseq	r0, r8, r3, lsl r2
     528:	012e1200 			; <UNDEFINED> instruction: 0x012e1200
     52c:	0e03193f 			; <UNDEFINED> instruction: 0x0e03193f
     530:	0b3b0b3a 	bleq	ec3220 <__bss_end__+0xeb8348>
     534:	19270b39 	stmdbne	r7!, {r0, r3, r4, r5, r8, r9, fp}
     538:	06120111 			; <UNDEFINED> instruction: 0x06120111
     53c:	42971840 	addsmi	r1, r7, #64, 16	; 0x400000
     540:	00130119 	andseq	r0, r3, r9, lsl r1
     544:	00051300 	andeq	r1, r5, r0, lsl #6
     548:	0b3a0803 	bleq	e8255c <__bss_end__+0xe77684>
     54c:	0b390b3b 	bleq	e43240 <__bss_end__+0xe38368>
     550:	18021349 	stmdane	r2, {r0, r3, r6, r8, r9, ip}
     554:	34140000 	ldrcc	r0, [r4], #-0
     558:	3a080300 	bcc	201160 <__bss_end__+0x1f6288>
     55c:	390b3b0b 	stmdbcc	fp, {r0, r1, r3, r8, r9, fp, ip, sp}
     560:	0213490b 	andseq	r4, r3, #180224	; 0x2c000
     564:	1742b717 	smlaldne	fp, r2, r7, r7
     568:	2e150000 	cdpcs	0, 1, cr0, cr5, cr0, {0}
     56c:	03193f01 	tsteq	r9, #1, 30
     570:	3b0b3a0e 	blcc	2cedb0 <__bss_end__+0x2c3ed8>
     574:	270b390b 	strcs	r3, [fp, -fp, lsl #18]
     578:	11134919 	tstne	r3, r9, lsl r9
     57c:	40061201 	andmi	r1, r6, r1, lsl #4
     580:	19429718 	stmdbne	r2, {r3, r4, r8, r9, sl, ip, pc}^
     584:	00001301 	andeq	r1, r0, r1, lsl #6
     588:	03000516 	movweq	r0, #1302	; 0x516
     58c:	3b0b3a0e 	blcc	2cedcc <__bss_end__+0x2c3ef4>
     590:	490b390b 	stmdbmi	fp, {r0, r1, r3, r8, fp, ip, sp}
     594:	b7170213 			; <UNDEFINED> instruction: 0xb7170213
     598:	00001742 	andeq	r1, r0, r2, asr #14
     59c:	03003417 	movweq	r3, #1047	; 0x417
     5a0:	3b0b3a0e 	blcc	2cede0 <__bss_end__+0x2c3f08>
     5a4:	490b390b 	stmdbmi	fp, {r0, r1, r3, r8, fp, ip, sp}
     5a8:	b7170213 			; <UNDEFINED> instruction: 0xb7170213
     5ac:	00001742 	andeq	r1, r0, r2, asr #14
     5b0:	01828918 	orreq	r8, r2, r8, lsl r9
     5b4:	31011101 	tstcc	r1, r1, lsl #2
     5b8:	19000013 	stmdbne	r0, {r0, r1, r4}
     5bc:	0001828a 	andeq	r8, r1, sl, lsl #5
     5c0:	42911802 	addsmi	r1, r1, #131072	; 0x20000
     5c4:	1a000018 	bne	62c <__code_start__-0x79d4>
     5c8:	0e03012e 	adfeqsp	f0, f3, #0.5
     5cc:	0b3b0b3a 	bleq	ec32bc <__bss_end__+0xeb83e4>
     5d0:	19270b39 	stmdbne	r7!, {r0, r3, r4, r5, r8, r9, fp}
     5d4:	01111349 	tsteq	r1, r9, asr #6
     5d8:	18400612 	stmdane	r0, {r1, r4, r9, sl}^
     5dc:	01194297 			; <UNDEFINED> instruction: 0x01194297
     5e0:	1b000013 	blne	634 <__code_start__-0x79cc>
     5e4:	08030005 	stmdaeq	r3, {r0, r2}
     5e8:	0b3b0b3a 	bleq	ec32d8 <__bss_end__+0xeb8400>
     5ec:	13490b39 	movtne	r0, #39737	; 0x9b39
     5f0:	42b71702 	adcsmi	r1, r7, #524288	; 0x80000
     5f4:	1c000017 	stcne	0, cr0, [r0], {23}
     5f8:	01018289 	smlabbeq	r1, r9, r2, r8
     5fc:	13310111 	teqne	r1, #1073741828	; 0x40000004
     600:	00001301 	andeq	r1, r0, r1, lsl #6
     604:	0182891d 	orreq	r8, r2, sp, lsl r9
     608:	31011100 	mrscc	r1, (UNDEF: 17)
     60c:	1e000013 	mcrne	0, 0, r0, cr0, cr3, {0}
     610:	193f002e 	ldmdbne	pc!, {r1, r2, r3, r5}	; <UNPREDICTABLE>
     614:	0e6e193c 			; <UNDEFINED> instruction: 0x0e6e193c
     618:	0b3a0e03 	bleq	e83e2c <__bss_end__+0xe78f54>
     61c:	0b390b3b 	bleq	e43310 <__bss_end__+0xe38438>
     620:	01000000 	mrseq	r0, (UNDEF: 0)
     624:	0e250111 	mcreq	1, 1, r0, cr5, cr1, {0}
     628:	0e030b13 	vmoveq.32	d3[0], r0
     62c:	01110e1b 	tsteq	r1, fp, lsl lr
     630:	17100612 			; <UNDEFINED> instruction: 0x17100612
     634:	24020000 	strcs	r0, [r2], #-0
     638:	3e0b0b00 	vmlacc.f64	d0, d11, d0
     63c:	0008030b 	andeq	r0, r8, fp, lsl #6
     640:	00240300 	eoreq	r0, r4, r0, lsl #6
     644:	0b3e0b0b 	bleq	f83278 <__bss_end__+0xf783a0>
     648:	00000e03 	andeq	r0, r0, r3, lsl #28
     64c:	03001604 	movweq	r1, #1540	; 0x604
     650:	3b0b3a0e 	blcc	2cee90 <__bss_end__+0x2c3fb8>
     654:	490b390b 	stmdbmi	fp, {r0, r1, r3, r8, fp, ip, sp}
     658:	05000013 	streq	r0, [r0, #-19]	; 0xffffffed
     65c:	19270115 	stmdbne	r7!, {r0, r2, r4, r8}
     660:	13011349 	movwne	r1, #4937	; 0x1349
     664:	05060000 	streq	r0, [r6, #-0]
     668:	00134900 	andseq	r4, r3, r0, lsl #18
     66c:	00340700 	eorseq	r0, r4, r0, lsl #14
     670:	0b3a0e03 	bleq	e83e84 <__bss_end__+0xe78fac>
     674:	0b390b3b 	bleq	e43368 <__bss_end__+0xe38490>
     678:	193f1349 	ldmdbne	pc!, {r0, r3, r6, r8, r9, ip}	; <UNPREDICTABLE>
     67c:	0000193c 	andeq	r1, r0, ip, lsr r9
     680:	0b000f08 	bleq	42a8 <__code_start__-0x3d58>
     684:	0013490b 	andseq	r4, r3, fp, lsl #18
     688:	00260900 	eoreq	r0, r6, r0, lsl #18
     68c:	00001349 	andeq	r1, r0, r9, asr #6
     690:	0b01130a 	bleq	452c0 <__bss_end__+0x3a3e8>
     694:	3b0b3a0b 	blcc	2ceec8 <__bss_end__+0x2c3ff0>
     698:	010b390b 	tsteq	fp, fp, lsl #18
     69c:	0b000013 	bleq	6f0 <__code_start__-0x7910>
     6a0:	0e03000d 	cdpeq	0, 0, cr0, cr3, cr13, {0}
     6a4:	0b3b0b3a 	bleq	ec3394 <__bss_end__+0xeb84bc>
     6a8:	13490b39 	movtne	r0, #39737	; 0x9b39
     6ac:	00000b38 	andeq	r0, r0, r8, lsr fp
     6b0:	3e01040c 	cdpcc	4, 0, cr0, cr1, cr12, {0}
     6b4:	490b0b0b 	stmdbmi	fp, {r0, r1, r3, r8, r9, fp}
     6b8:	3b0b3a13 	blcc	2cef0c <__bss_end__+0x2c4034>
     6bc:	010b390b 	tsteq	fp, fp, lsl #18
     6c0:	0d000013 	stceq	0, cr0, [r0, #-76]	; 0xffffffb4
     6c4:	0e030028 	cdpeq	0, 0, cr0, cr3, cr8, {1}
     6c8:	00000b1c 	andeq	r0, r0, ip, lsl fp
     6cc:	0301130e 	movweq	r1, #4878	; 0x130e
     6d0:	3a0b0b0e 	bcc	2c3310 <__bss_end__+0x2b8438>
     6d4:	390b3b0b 	stmdbcc	fp, {r0, r1, r3, r8, r9, fp, ip, sp}
     6d8:	0013010b 	andseq	r0, r3, fp, lsl #2
     6dc:	000d0f00 	andeq	r0, sp, r0, lsl #30
     6e0:	0b3a0803 	bleq	e826f4 <__bss_end__+0xe7781c>
     6e4:	0b390b3b 	bleq	e433d8 <__bss_end__+0xe38500>
     6e8:	0b381349 	bleq	e05414 <__bss_end__+0xdfa53c>
     6ec:	01100000 	tsteq	r0, r0
     6f0:	01134901 	tsteq	r3, r1, lsl #18
     6f4:	11000013 	tstne	r0, r3, lsl r0
     6f8:	13490021 	movtne	r0, #36897	; 0x9021
     6fc:	00000b2f 	andeq	r0, r0, pc, lsr #22
     700:	0b000f12 	bleq	4350 <__code_start__-0x3cb0>
     704:	1300000b 	movwne	r0, #11
     708:	0e030034 	mcreq	0, 0, r0, cr3, cr4, {1}
     70c:	0b3b0b3a 	bleq	ec33fc <__bss_end__+0xeb8524>
     710:	13490b39 	movtne	r0, #39737	; 0x9b39
     714:	00001802 	andeq	r1, r0, r2, lsl #16
     718:	3f012e14 	svccc	0x00012e14
     71c:	3a0e0319 	bcc	381388 <__bss_end__+0x3764b0>
     720:	39053b0b 	stmdbcc	r5, {r0, r1, r3, r8, r9, fp, ip, sp}
     724:	1119270b 	tstne	r9, fp, lsl #14
     728:	40061201 	andmi	r1, r6, r1, lsl #4
     72c:	19429718 	stmdbne	r2, {r3, r4, r8, r9, sl, ip, pc}^
     730:	00001301 	andeq	r1, r0, r1, lsl #6
     734:	03003415 	movweq	r3, #1045	; 0x415
     738:	3413490e 	ldrcc	r4, [r3], #-2318	; 0xfffff6f2
     73c:	00180219 	andseq	r0, r8, r9, lsl r2
     740:	82891600 	addhi	r1, r9, #0, 12
     744:	01110101 	tsteq	r1, r1, lsl #2
     748:	13011331 	movwne	r1, #4913	; 0x1331
     74c:	8a170000 	bhi	5c0754 <__bss_end__+0x5b587c>
     750:	02000182 	andeq	r0, r0, #-2147483616	; 0x80000020
     754:	18429118 	stmdane	r2, {r3, r4, r8, ip, pc}^
     758:	89180000 	ldmdbhi	r8, {}	; <UNPREDICTABLE>
     75c:	11000182 	smlabbne	r0, r2, r1, r0
     760:	00133101 	andseq	r3, r3, r1, lsl #2
     764:	012e1900 			; <UNDEFINED> instruction: 0x012e1900
     768:	0e03193f 			; <UNDEFINED> instruction: 0x0e03193f
     76c:	053b0b3a 	ldreq	r0, [fp, #-2874]!	; 0xfffff4c6
     770:	19270b39 	stmdbne	r7!, {r0, r3, r4, r5, r8, r9, fp}
     774:	01111349 	tsteq	r1, r9, asr #6
     778:	18400612 	stmdane	r0, {r1, r4, r9, sl}^
     77c:	01194297 			; <UNDEFINED> instruction: 0x01194297
     780:	1a000013 	bne	7d4 <__code_start__-0x782c>
     784:	0e030034 	mcreq	0, 0, r0, cr3, cr4, {1}
     788:	053b0b3a 	ldreq	r0, [fp, #-2874]!	; 0xfffff4c6
     78c:	13490b39 	movtne	r0, #39737	; 0x9b39
     790:	42b71702 	adcsmi	r1, r7, #524288	; 0x80000
     794:	1b000017 	blne	7f8 <__code_start__-0x7808>
     798:	0e03012e 	adfeqsp	f0, f3, #0.5
     79c:	0b3b0b3a 	bleq	ec348c <__bss_end__+0xeb85b4>
     7a0:	19270b39 	stmdbne	r7!, {r0, r3, r4, r5, r8, r9, fp}
     7a4:	01111349 	tsteq	r1, r9, asr #6
     7a8:	18400612 	stmdane	r0, {r1, r4, r9, sl}^
     7ac:	01194297 			; <UNDEFINED> instruction: 0x01194297
     7b0:	1c000013 	stcne	0, cr0, [r0], {19}
     7b4:	0e030034 	mcreq	0, 0, r0, cr3, cr4, {1}
     7b8:	0b3b0b3a 	bleq	ec34a8 <__bss_end__+0xeb85d0>
     7bc:	13490b39 	movtne	r0, #39737	; 0x9b39
     7c0:	42b71702 	adcsmi	r1, r7, #524288	; 0x80000
     7c4:	1d000017 	stcne	0, cr0, [r0, #-92]	; 0xffffffa4
     7c8:	1755010b 	ldrbne	r0, [r5, -fp, lsl #2]
     7cc:	00001301 	andeq	r1, r0, r1, lsl #6
     7d0:	0300341e 	movweq	r3, #1054	; 0x41e
     7d4:	3b0b3a08 	blcc	2ceffc <__bss_end__+0x2c4124>
     7d8:	490b390b 	stmdbmi	fp, {r0, r1, r3, r8, fp, ip, sp}
     7dc:	b7170213 			; <UNDEFINED> instruction: 0xb7170213
     7e0:	00001742 	andeq	r1, r0, r2, asr #14
     7e4:	31011d1f 	tstcc	r1, pc, lsl sp
     7e8:	b8015213 	stmdalt	r1, {r0, r1, r4, r9, ip, lr}
     7ec:	01110b42 	tsteq	r1, r2, asr #22
     7f0:	0b580612 	bleq	1602040 <__bss_end__+0x15f7168>
     7f4:	0b570559 	bleq	15c1d60 <__bss_end__+0x15b6e88>
     7f8:	00001301 	andeq	r1, r0, r1, lsl #6
     7fc:	31000520 	tstcc	r0, r0, lsr #10
     800:	b7170213 			; <UNDEFINED> instruction: 0xb7170213
     804:	00001742 	andeq	r1, r0, r2, asr #14
     808:	01828921 	orreq	r8, r2, r1, lsr #18
     80c:	31011101 	tstcc	r1, r1, lsl #2
     810:	22000013 	andcs	r0, r0, #19, 0
     814:	193f012e 	ldmdbne	pc!, {r1, r2, r3, r5, r8}	; <UNPREDICTABLE>
     818:	0b3a0e03 	bleq	e8402c <__bss_end__+0xe79154>
     81c:	0b390b3b 	bleq	e43510 <__bss_end__+0xe38638>
     820:	13491927 	movtne	r1, #39207	; 0x9927
     824:	06120111 			; <UNDEFINED> instruction: 0x06120111
     828:	42971840 	addsmi	r1, r7, #64, 16	; 0x400000
     82c:	00130119 	andseq	r0, r3, r9, lsl r1
     830:	012e2300 			; <UNDEFINED> instruction: 0x012e2300
     834:	0e03193f 			; <UNDEFINED> instruction: 0x0e03193f
     838:	0b3b0b3a 	bleq	ec3528 <__bss_end__+0xeb8650>
     83c:	19270b39 	stmdbne	r7!, {r0, r3, r4, r5, r8, r9, fp}
     840:	06120111 			; <UNDEFINED> instruction: 0x06120111
     844:	42971840 	addsmi	r1, r7, #64, 16	; 0x400000
     848:	00130119 	andseq	r0, r3, r9, lsl r1
     84c:	00052400 	andeq	r2, r5, r0, lsl #8
     850:	0b3a0e03 	bleq	e84064 <__bss_end__+0xe7918c>
     854:	0b390b3b 	bleq	e43548 <__bss_end__+0xe38670>
     858:	17021349 	strne	r1, [r2, -r9, asr #6]
     85c:	001742b7 			; <UNDEFINED> instruction: 0x001742b7
     860:	012e2500 			; <UNDEFINED> instruction: 0x012e2500
     864:	0b3a0e03 	bleq	e84078 <__bss_end__+0xe791a0>
     868:	0b390b3b 	bleq	e4355c <__bss_end__+0xe38684>
     86c:	01111927 	tsteq	r1, r7, lsr #18
     870:	18400612 	stmdane	r0, {r1, r4, r9, sl}^
     874:	01194297 			; <UNDEFINED> instruction: 0x01194297
     878:	26000013 			; <UNDEFINED> instruction: 0x26000013
     87c:	0e030034 	mcreq	0, 0, r0, cr3, cr4, {1}
     880:	0b3b0b3a 	bleq	ec3570 <__bss_end__+0xeb8698>
     884:	13490b39 	movtne	r0, #39737	; 0x9b39
     888:	0000061c 	andeq	r0, r0, ip, lsl r6
     88c:	11010b27 	tstne	r1, r7, lsr #22
     890:	01061201 	tsteq	r6, r1, lsl #4
     894:	28000013 	stmdacs	r0, {r0, r1, r4}
     898:	08030005 	stmdaeq	r3, {r0, r2}
     89c:	0b3b0b3a 	bleq	ec358c <__bss_end__+0xeb86b4>
     8a0:	13490b39 	movtne	r0, #39737	; 0x9b39
     8a4:	42b71702 	adcsmi	r1, r7, #524288	; 0x80000
     8a8:	29000017 	stmdbcs	r0, {r0, r1, r2, r4}
     8ac:	1755010b 	ldrbne	r0, [r5, -fp, lsl #2]
     8b0:	2e2a0000 	cdpcs	0, 2, cr0, cr10, cr0, {0}
     8b4:	3a0e0301 	bcc	3814c0 <__bss_end__+0x3765e8>
     8b8:	390b3b0b 	stmdbcc	fp, {r0, r1, r3, r8, r9, fp, ip, sp}
     8bc:	4919270b 	ldmdbmi	r9, {r0, r1, r3, r8, r9, sl, sp}
     8c0:	010b2013 	tsteq	fp, r3, lsl r0
     8c4:	2b000013 	blcs	918 <__code_start__-0x76e8>
     8c8:	0e030005 	cdpeq	0, 0, cr0, cr3, cr5, {0}
     8cc:	0b3b0b3a 	bleq	ec35bc <__bss_end__+0xeb86e4>
     8d0:	13490b39 	movtne	r0, #39737	; 0x9b39
     8d4:	2e2c0000 	cdpcs	0, 2, cr0, cr12, cr0, {0}
     8d8:	3c193f00 	ldccc	15, cr3, [r9], {-0}
     8dc:	030e6e19 	movweq	r6, #60953	; 0xee19
     8e0:	3b0b3a0e 	blcc	2cf120 <__bss_end__+0x2c4248>
     8e4:	000b390b 	andeq	r3, fp, fp, lsl #18
     8e8:	00362d00 	eorseq	r2, r6, r0, lsl #26
     8ec:	00001802 	andeq	r1, r0, r2, lsl #16
     8f0:	01110100 	tsteq	r1, r0, lsl #2
     8f4:	0b130e25 	bleq	4c4190 <__bss_end__+0x4b92b8>
     8f8:	0e1b0e03 	cdpeq	14, 1, cr0, cr11, cr3, {0}
     8fc:	06120111 			; <UNDEFINED> instruction: 0x06120111
     900:	00001710 	andeq	r1, r0, r0, lsl r7
     904:	0b002402 	bleq	9914 <delay_sec+0x24>
     908:	030b3e0b 	movweq	r3, #48651	; 0xbe0b
     90c:	03000008 	movweq	r0, #8
     910:	0e030016 	mcreq	0, 0, r0, cr3, cr6, {0}
     914:	0b3b0b3a 	bleq	ec3604 <__bss_end__+0xeb872c>
     918:	13490b39 	movtne	r0, #39737	; 0x9b39
     91c:	24040000 	strcs	r0, [r4], #-0
     920:	3e0b0b00 	vmlacc.f64	d0, d11, d0
     924:	000e030b 	andeq	r0, lr, fp, lsl #6
     928:	01150500 	tsteq	r5, r0, lsl #10
     92c:	13491927 	movtne	r1, #39207	; 0x9927
     930:	00001301 	andeq	r1, r0, r1, lsl #6
     934:	49000506 	stmdbmi	r0, {r1, r2, r8, sl}
     938:	07000013 	smladeq	r0, r3, r0, r0
     93c:	0e030034 	mcreq	0, 0, r0, cr3, cr4, {1}
     940:	0b3b0b3a 	bleq	ec3630 <__bss_end__+0xeb8758>
     944:	13490b39 	movtne	r0, #39737	; 0x9b39
     948:	193c193f 	ldmdbne	ip!, {r0, r1, r2, r3, r4, r5, r8, fp, ip}
     94c:	0f080000 	svceq	0x00080000
     950:	490b0b00 	stmdbmi	fp, {r8, r9, fp}
     954:	09000013 	stmdbeq	r0, {r0, r1, r4}
     958:	13490026 	movtne	r0, #36902	; 0x9026
     95c:	2e0a0000 	cdpcs	0, 0, cr0, cr10, cr0, {0}
     960:	03193f01 	tsteq	r9, #1, 30
     964:	3b0b3a0e 	blcc	2cf1a4 <__bss_end__+0x2c42cc>
     968:	270b390b 	strcs	r3, [fp, -fp, lsl #18]
     96c:	11134919 	tstne	r3, r9, lsl r9
     970:	40061201 	andmi	r1, r6, r1, lsl #4
     974:	19429718 	stmdbne	r2, {r3, r4, r8, r9, sl, ip, pc}^
     978:	00001301 	andeq	r1, r0, r1, lsl #6
     97c:	0300050b 	movweq	r0, #1291	; 0x50b
     980:	3b0b3a08 	blcc	2cf1a8 <__bss_end__+0x2c42d0>
     984:	490b390b 	stmdbmi	fp, {r0, r1, r3, r8, fp, ip, sp}
     988:	00180213 	andseq	r0, r8, r3, lsl r2
     98c:	00050c00 	andeq	r0, r5, r0, lsl #24
     990:	0b3a0803 	bleq	e829a4 <__bss_end__+0xe77acc>
     994:	0b390b3b 	bleq	e43688 <__bss_end__+0xe387b0>
     998:	17021349 	strne	r1, [r2, -r9, asr #6]
     99c:	001742b7 			; <UNDEFINED> instruction: 0x001742b7
     9a0:	00340d00 	eorseq	r0, r4, r0, lsl #26
     9a4:	0b3a0803 	bleq	e829b8 <__bss_end__+0xe77ae0>
     9a8:	0b390b3b 	bleq	e4369c <__bss_end__+0xe387c4>
     9ac:	17021349 	strne	r1, [r2, -r9, asr #6]
     9b0:	001742b7 			; <UNDEFINED> instruction: 0x001742b7
     9b4:	000f0e00 	andeq	r0, pc, r0, lsl #28
     9b8:	00000b0b 	andeq	r0, r0, fp, lsl #22
     9bc:	01110100 	tsteq	r1, r0, lsl #2
     9c0:	0b130e25 	bleq	4c425c <__bss_end__+0x4b9384>
     9c4:	0e1b0e03 	cdpeq	14, 1, cr0, cr11, cr3, {0}
     9c8:	06120111 			; <UNDEFINED> instruction: 0x06120111
     9cc:	00001710 	andeq	r1, r0, r0, lsl r7
     9d0:	03001602 	movweq	r1, #1538	; 0x602
     9d4:	3b0b3a0e 	blcc	2cf214 <__bss_end__+0x2c433c>
     9d8:	490b390b 	stmdbmi	fp, {r0, r1, r3, r8, fp, ip, sp}
     9dc:	03000013 	movweq	r0, #19
     9e0:	0e030113 	mcreq	1, 0, r0, cr3, cr3, {0}
     9e4:	0b3a0b0b 	bleq	e83618 <__bss_end__+0xe78740>
     9e8:	13010b3b 	movwne	r0, #6971	; 0x1b3b
     9ec:	0d040000 	stceq	0, cr0, [r4, #-0]
     9f0:	490e0300 	stmdbmi	lr, {r8, r9}
     9f4:	340b3813 	strcc	r3, [fp], #-2067	; 0xfffff7ed
     9f8:	05000019 	streq	r0, [r0, #-25]	; 0xffffffe7
     9fc:	0b0b000f 	bleq	2c0a40 <__bss_end__+0x2b5b68>
     a00:	24060000 	strcs	r0, [r6], #-0
     a04:	3e0b0b00 	vmlacc.f64	d0, d11, d0
     a08:	0008030b 	andeq	r0, r8, fp, lsl #6
     a0c:	00240700 	eoreq	r0, r4, r0, lsl #14
     a10:	0b3e0b0b 	bleq	f83644 <__bss_end__+0xf7876c>
     a14:	00000e03 	andeq	r0, r0, r3, lsl #28
     a18:	27011508 	strcs	r1, [r1, -r8, lsl #10]
     a1c:	01134919 	tsteq	r3, r9, lsl r9
     a20:	09000013 	stmdbeq	r0, {r0, r1, r4}
     a24:	13490005 	movtne	r0, #36869	; 0x9005
     a28:	340a0000 	strcc	r0, [sl], #-0
     a2c:	3a0e0300 	bcc	381634 <__bss_end__+0x37675c>
     a30:	390b3b0b 	stmdbcc	fp, {r0, r1, r3, r8, r9, fp, ip, sp}
     a34:	3f13490b 	svccc	0x0013490b
     a38:	00193c19 	andseq	r3, r9, r9, lsl ip
     a3c:	000f0b00 	andeq	r0, pc, r0, lsl #22
     a40:	13490b0b 	movtne	r0, #39691	; 0x9b0b
     a44:	260c0000 	strcs	r0, [ip], -r0
     a48:	00134900 	andseq	r4, r3, r0, lsl #18
     a4c:	012e0d00 			; <UNDEFINED> instruction: 0x012e0d00
     a50:	0e03193f 			; <UNDEFINED> instruction: 0x0e03193f
     a54:	0b3b0b3a 	bleq	ec3744 <__bss_end__+0xeb886c>
     a58:	19270b39 	stmdbne	r7!, {r0, r3, r4, r5, r8, r9, fp}
     a5c:	01111349 	tsteq	r1, r9, asr #6
     a60:	18400612 	stmdane	r0, {r1, r4, r9, sl}^
     a64:	01194297 			; <UNDEFINED> instruction: 0x01194297
     a68:	0e000013 	mcreq	0, 0, r0, cr0, cr3, {0}
     a6c:	08030005 	stmdaeq	r3, {r0, r2}
     a70:	0b3b0b3a 	bleq	ec3760 <__bss_end__+0xeb8888>
     a74:	13490b39 	movtne	r0, #39737	; 0x9b39
     a78:	00001802 	andeq	r1, r0, r2, lsl #16
     a7c:	0000180f 	andeq	r1, r0, pc, lsl #16
     a80:	00341000 	eorseq	r1, r4, r0
     a84:	0b3a0803 	bleq	e82a98 <__bss_end__+0xe77bc0>
     a88:	0b390b3b 	bleq	e4377c <__bss_end__+0xe388a4>
     a8c:	18021349 	stmdane	r2, {r0, r3, r6, r8, r9, ip}
     a90:	34110000 	ldrcc	r0, [r1], #-0
     a94:	3a0e0300 	bcc	38169c <__bss_end__+0x3767c4>
     a98:	390b3b0b 	stmdbcc	fp, {r0, r1, r3, r8, r9, fp, ip, sp}
     a9c:	0213490b 	andseq	r4, r3, #180224	; 0x2c000
     aa0:	12000018 	andne	r0, r0, #24, 0
     aa4:	08030034 	stmdaeq	r3, {r2, r4, r5}
     aa8:	0b3b0b3a 	bleq	ec3798 <__bss_end__+0xeb88c0>
     aac:	13490b39 	movtne	r0, #39737	; 0x9b39
     ab0:	42b71702 	adcsmi	r1, r7, #524288	; 0x80000
     ab4:	13000017 	movwne	r0, #23
     ab8:	01018289 	smlabbeq	r1, r9, r2, r8
     abc:	13310111 	teqne	r1, #1073741828	; 0x40000004
     ac0:	00001301 	andeq	r1, r0, r1, lsl #6
     ac4:	01828a14 	orreq	r8, r2, r4, lsl sl
     ac8:	91180200 	tstls	r8, r0, lsl #4
     acc:	00001842 	andeq	r1, r0, r2, asr #16
     ad0:	01828915 	orreq	r8, r2, r5, lsl r9
     ad4:	00011101 	andeq	r1, r1, r1, lsl #2
     ad8:	01011600 	tsteq	r1, r0, lsl #12
     adc:	13011349 	movwne	r1, #4937	; 0x1349
     ae0:	21170000 	tstcs	r7, r0
     ae4:	2f134900 	svccs	0x00134900
     ae8:	18000005 	stmdane	r0, {r0, r2}
     aec:	193f002e 	ldmdbne	pc!, {r1, r2, r3, r5}	; <UNPREDICTABLE>
     af0:	0e6e193c 			; <UNDEFINED> instruction: 0x0e6e193c
     af4:	0b3a0e03 	bleq	e84308 <__bss_end__+0xe79430>
     af8:	0b390b3b 	bleq	e437ec <__bss_end__+0xe38914>
     afc:	01000000 	mrseq	r0, (UNDEF: 0)
     b00:	0e250111 	mcreq	1, 1, r0, cr5, cr1, {0}
     b04:	0e030b13 	vmoveq.32	d3[0], r0
     b08:	01110e1b 	tsteq	r1, fp, lsl lr
     b0c:	17100612 			; <UNDEFINED> instruction: 0x17100612
     b10:	24020000 	strcs	r0, [r2], #-0
     b14:	3e0b0b00 	vmlacc.f64	d0, d11, d0
     b18:	0008030b 	andeq	r0, r8, fp, lsl #6
     b1c:	00240300 	eoreq	r0, r4, r0, lsl #6
     b20:	0b3e0b0b 	bleq	f83754 <__bss_end__+0xf7887c>
     b24:	00000e03 	andeq	r0, r0, r3, lsl #28
     b28:	27011504 	strcs	r1, [r1, -r4, lsl #10]
     b2c:	01134919 	tsteq	r3, r9, lsl r9
     b30:	05000013 	streq	r0, [r0, #-19]	; 0xffffffed
     b34:	13490005 	movtne	r0, #36869	; 0x9005
     b38:	34060000 	strcc	r0, [r6], #-0
     b3c:	3a0e0300 	bcc	381744 <__bss_end__+0x37686c>
     b40:	390b3b0b 	stmdbcc	fp, {r0, r1, r3, r8, r9, fp, ip, sp}
     b44:	3f13490b 	svccc	0x0013490b
     b48:	00193c19 	andseq	r3, r9, r9, lsl ip
     b4c:	000f0700 	andeq	r0, pc, r0, lsl #14
     b50:	13490b0b 	movtne	r0, #39691	; 0x9b0b
     b54:	26080000 	strcs	r0, [r8], -r0
     b58:	00134900 	andseq	r4, r3, r0, lsl #18
     b5c:	00340900 	eorseq	r0, r4, r0, lsl #18
     b60:	0b3a1347 	bleq	e85884 <__bss_end__+0xe7a9ac>
     b64:	0b390b3b 	bleq	e43858 <__bss_end__+0xe38980>
     b68:	00001802 	andeq	r1, r0, r2, lsl #16
     b6c:	3f012e0a 	svccc	0x00012e0a
     b70:	3a0e0319 	bcc	3817dc <__bss_end__+0x376904>
     b74:	390b3b0b 	stmdbcc	fp, {r0, r1, r3, r8, r9, fp, ip, sp}
     b78:	4919270b 	ldmdbmi	r9, {r0, r1, r3, r8, r9, sl, sp}
     b7c:	12011113 	andne	r1, r1, #-1073741820	; 0xc0000004
     b80:	96184006 	ldrls	r4, [r8], -r6
     b84:	00001942 	andeq	r1, r0, r2, asr #18
     b88:	0300050b 	movweq	r0, #1291	; 0x50b
     b8c:	3b0b3a08 	blcc	2cf3b4 <__bss_end__+0x2c44dc>
     b90:	490b390b 	stmdbmi	fp, {r0, r1, r3, r8, fp, ip, sp}
     b94:	b7170213 			; <UNDEFINED> instruction: 0xb7170213
     b98:	00001742 	andeq	r1, r0, r2, asr #14
     b9c:	01110100 	tsteq	r1, r0, lsl #2
     ba0:	0b130e25 	bleq	4c443c <__bss_end__+0x4b9564>
     ba4:	0e1b0e03 	cdpeq	14, 1, cr0, cr11, cr3, {0}
     ba8:	06120111 			; <UNDEFINED> instruction: 0x06120111
     bac:	00001710 	andeq	r1, r0, r0, lsl r7
     bb0:	0b002402 	bleq	9bc0 <kmalloc_init_set_start+0x5c>
     bb4:	030b3e0b 	movweq	r3, #48651	; 0xbe0b
     bb8:	0300000e 	movweq	r0, #14
     bbc:	0b0b0024 	bleq	2c0c54 <__bss_end__+0x2b5d7c>
     bc0:	08030b3e 	stmdaeq	r3, {r1, r2, r3, r4, r5, r8, r9, fp}
     bc4:	16040000 	strne	r0, [r4], -r0
     bc8:	3a0e0300 	bcc	3817d0 <__bss_end__+0x3768f8>
     bcc:	390b3b0b 	stmdbcc	fp, {r0, r1, r3, r8, r9, fp, ip, sp}
     bd0:	0013490b 	andseq	r4, r3, fp, lsl #18
     bd4:	01150500 	tsteq	r5, r0, lsl #10
     bd8:	13491927 	movtne	r1, #39207	; 0x9927
     bdc:	00001301 	andeq	r1, r0, r1, lsl #6
     be0:	49000506 	stmdbmi	r0, {r1, r2, r8, sl}
     be4:	07000013 	smladeq	r0, r3, r0, r0
     be8:	0e030034 	mcreq	0, 0, r0, cr3, cr4, {1}
     bec:	0b3b0b3a 	bleq	ec38dc <__bss_end__+0xeb8a04>
     bf0:	13490b39 	movtne	r0, #39737	; 0x9b39
     bf4:	193c193f 	ldmdbne	ip!, {r0, r1, r2, r3, r4, r5, r8, fp, ip}
     bf8:	0f080000 	svceq	0x00080000
     bfc:	490b0b00 	stmdbmi	fp, {r8, r9, fp}
     c00:	09000013 	stmdbeq	r0, {r0, r1, r4}
     c04:	13490026 	movtne	r0, #36902	; 0x9026
     c08:	130a0000 	movwne	r0, #40960	; 0xa000
     c0c:	0b0e0301 	bleq	381818 <__bss_end__+0x376940>
     c10:	3b0b3a0b 	blcc	2cf444 <__bss_end__+0x2c456c>
     c14:	0013010b 	andseq	r0, r3, fp, lsl #2
     c18:	000d0b00 	andeq	r0, sp, r0, lsl #22
     c1c:	13490e03 	movtne	r0, #40451	; 0x9e03
     c20:	19340b38 	ldmdbne	r4!, {r3, r4, r5, r8, r9, fp}
     c24:	0f0c0000 	svceq	0x000c0000
     c28:	000b0b00 	andeq	r0, fp, r0, lsl #22
     c2c:	012e0d00 			; <UNDEFINED> instruction: 0x012e0d00
     c30:	0e03193f 			; <UNDEFINED> instruction: 0x0e03193f
     c34:	0b3b0b3a 	bleq	ec3924 <__bss_end__+0xeb8a4c>
     c38:	19270b39 	stmdbne	r7!, {r0, r3, r4, r5, r8, r9, fp}
     c3c:	01111349 	tsteq	r1, r9, asr #6
     c40:	18400612 	stmdane	r0, {r1, r4, r9, sl}^
     c44:	01194297 			; <UNDEFINED> instruction: 0x01194297
     c48:	0e000013 	mcreq	0, 0, r0, cr0, cr3, {0}
     c4c:	08030005 	stmdaeq	r3, {r0, r2}
     c50:	0b3b0b3a 	bleq	ec3940 <__bss_end__+0xeb8a68>
     c54:	13490b39 	movtne	r0, #39737	; 0x9b39
     c58:	42b71702 	adcsmi	r1, r7, #524288	; 0x80000
     c5c:	0f000017 	svceq	0x00000017
     c60:	0e030005 	cdpeq	0, 0, cr0, cr3, cr5, {0}
     c64:	0b3b0b3a 	bleq	ec3954 <__bss_end__+0xeb8a7c>
     c68:	13490b39 	movtne	r0, #39737	; 0x9b39
     c6c:	42b71702 	adcsmi	r1, r7, #524288	; 0x80000
     c70:	10000017 	andne	r0, r0, r7, lsl r0
     c74:	08030034 	stmdaeq	r3, {r2, r4, r5}
     c78:	0b3b0b3a 	bleq	ec3968 <__bss_end__+0xeb8a90>
     c7c:	13490b39 	movtne	r0, #39737	; 0x9b39
     c80:	42b71702 	adcsmi	r1, r7, #524288	; 0x80000
     c84:	11000017 	tstne	r0, r7, lsl r0
     c88:	0e030034 	mcreq	0, 0, r0, cr3, cr4, {1}
     c8c:	0b3b0b3a 	bleq	ec397c <__bss_end__+0xeb8aa4>
     c90:	13490b39 	movtne	r0, #39737	; 0x9b39
     c94:	42b71702 	adcsmi	r1, r7, #524288	; 0x80000
     c98:	12000017 	andne	r0, r0, #23, 0
     c9c:	0e030034 	mcreq	0, 0, r0, cr3, cr4, {1}
     ca0:	19341349 	ldmdbne	r4!, {r0, r3, r6, r8, r9, ip}
     ca4:	00001802 	andeq	r1, r0, r2, lsl #16
     ca8:	55010b13 	strpl	r0, [r1, #-2835]	; 0xfffff4ed
     cac:	14000017 	strne	r0, [r0], #-23	; 0xffffffe9
     cb0:	08030034 	stmdaeq	r3, {r2, r4, r5}
     cb4:	0b3b0b3a 	bleq	ec39a4 <__bss_end__+0xeb8acc>
     cb8:	13490b39 	movtne	r0, #39737	; 0x9b39
     cbc:	00001802 	andeq	r1, r0, r2, lsl #16
     cc0:	03003415 	movweq	r3, #1045	; 0x415
     cc4:	3b0b3a0e 	blcc	2cf504 <__bss_end__+0x2c462c>
     cc8:	490b390b 	stmdbmi	fp, {r0, r1, r3, r8, fp, ip, sp}
     ccc:	00180213 	andseq	r0, r8, r3, lsl r2
     cd0:	010b1600 	tsteq	fp, r0, lsl #12
     cd4:	13011755 	movwne	r1, #5973	; 0x1755
     cd8:	89170000 	ldmdbhi	r7, {}	; <UNPREDICTABLE>
     cdc:	11010182 	smlabbne	r1, r2, r1, r0
     ce0:	01133101 	tsteq	r3, r1, lsl #2
     ce4:	18000013 	stmdane	r0, {r0, r1, r4}
     ce8:	0001828a 	andeq	r8, r1, sl, lsl #5
     cec:	42911802 	addsmi	r1, r1, #131072	; 0x20000
     cf0:	19000018 	stmdbne	r0, {r3, r4}
     cf4:	00018289 	andeq	r8, r1, r9, lsl #5
     cf8:	13310111 	teqne	r1, #1073741828	; 0x40000004
     cfc:	1d1a0000 	ldcne	0, cr0, [sl, #-0]
     d00:	52133101 	andspl	r3, r3, #1073741824	; 0x40000000
     d04:	0542b801 	strbeq	fp, [r2, #-2049]	; 0xfffff7ff
     d08:	0b581755 	bleq	1606a64 <__bss_end__+0x15fbb8c>
     d0c:	0b570b59 	bleq	15c3a78 <__bss_end__+0x15b8ba0>
     d10:	00001301 	andeq	r1, r0, r1, lsl #6
     d14:	3100051b 	tstcc	r0, fp, lsl r5
     d18:	b7170213 			; <UNDEFINED> instruction: 0xb7170213
     d1c:	00001742 	andeq	r1, r0, r2, asr #14
     d20:	3100051c 	tstcc	r0, ip, lsl r5
     d24:	1d000013 	stcne	0, cr0, [r0, #-76]	; 0xffffffb4
     d28:	13310034 	teqne	r1, #52, 0	; 0x34
     d2c:	00001802 	andeq	r1, r0, r2, lsl #16
     d30:	3100341e 	tstcc	r0, lr, lsl r4
     d34:	b7170213 			; <UNDEFINED> instruction: 0xb7170213
     d38:	00001742 	andeq	r1, r0, r2, asr #14
     d3c:	3100341f 	tstcc	r0, pc, lsl r4
     d40:	20000013 	andcs	r0, r0, r3, lsl r0
     d44:	1331011d 	teqne	r1, #1073741831	; 0x40000007
     d48:	42b80152 	adcsmi	r0, r8, #-2147483628	; 0x80000014
     d4c:	58175505 	ldmdapl	r7, {r0, r2, r8, sl, ip, lr}
     d50:	570b590b 	strpl	r5, [fp, -fp, lsl #18]
     d54:	2100000b 	tstcs	r0, fp
     d58:	01018289 	smlabbeq	r1, r9, r2, r8
     d5c:	13010111 	movwne	r0, #4369	; 0x1111
     d60:	01220000 			; <UNDEFINED> instruction: 0x01220000
     d64:	01134901 	tsteq	r3, r1, lsl #18
     d68:	23000013 	movwcs	r0, #19
     d6c:	13490021 	movtne	r0, #36897	; 0x9021
     d70:	00000b2f 	andeq	r0, r0, pc, lsr #22
     d74:	03012e24 	movweq	r2, #7716	; 0x1e24
     d78:	3b0b3a0e 	blcc	2cf5b8 <__bss_end__+0x2c46e0>
     d7c:	270b390b 	strcs	r3, [fp, -fp, lsl #18]
     d80:	20134919 	andscs	r4, r3, r9, lsl r9
     d84:	0013010b 	andseq	r0, r3, fp, lsl #2
     d88:	00052500 	andeq	r2, r5, r0, lsl #10
     d8c:	0b3a0e03 	bleq	e845a0 <__bss_end__+0xe796c8>
     d90:	0b390b3b 	bleq	e43a84 <__bss_end__+0xe38bac>
     d94:	00001349 	andeq	r1, r0, r9, asr #6
     d98:	03000526 	movweq	r0, #1318	; 0x526
     d9c:	3b0b3a08 	blcc	2cf5c4 <__bss_end__+0x2c46ec>
     da0:	490b390b 	stmdbmi	fp, {r0, r1, r3, r8, fp, ip, sp}
     da4:	27000013 	smladcs	r0, r3, r0, r0
     da8:	08030034 	stmdaeq	r3, {r2, r4, r5}
     dac:	0b3b0b3a 	bleq	ec3a9c <__bss_end__+0xeb8bc4>
     db0:	13490b39 	movtne	r0, #39737	; 0x9b39
     db4:	0b280000 	bleq	a00dbc <__bss_end__+0x9f5ee4>
     db8:	29000001 	stmdbcs	r0, {r0}
     dbc:	0e030034 	mcreq	0, 0, r0, cr3, cr4, {1}
     dc0:	0b3b0b3a 	bleq	ec3ab0 <__bss_end__+0xeb8bd8>
     dc4:	13490b39 	movtne	r0, #39737	; 0x9b39
     dc8:	2e2a0000 	cdpcs	0, 2, cr0, cr10, cr0, {0}
     dcc:	3a080301 	bcc	2019d8 <__bss_end__+0x1f6b00>
     dd0:	390b3b0b 	stmdbcc	fp, {r0, r1, r3, r8, r9, fp, ip, sp}
     dd4:	4919270b 	ldmdbmi	r9, {r0, r1, r3, r8, r9, sl, sp}
     dd8:	010b2013 	tsteq	fp, r3, lsl r0
     ddc:	2b000013 	blcs	e30 <__code_start__-0x71d0>
     de0:	193f012e 	ldmdbne	pc!, {r1, r2, r3, r5, r8}	; <UNPREDICTABLE>
     de4:	0b3a0e03 	bleq	e845f8 <__bss_end__+0xe79720>
     de8:	0b390b3b 	bleq	e43adc <__bss_end__+0xe38c04>
     dec:	01111927 	tsteq	r1, r7, lsr #18
     df0:	18400612 	stmdane	r0, {r1, r4, r9, sl}^
     df4:	01194297 			; <UNDEFINED> instruction: 0x01194297
     df8:	2c000013 	stccs	0, cr0, [r0], {19}
     dfc:	1331012e 	teqne	r1, #-2147483637	; 0x8000000b
     e00:	06120111 			; <UNDEFINED> instruction: 0x06120111
     e04:	42971840 	addsmi	r1, r7, #64, 16	; 0x400000
     e08:	00130119 	andseq	r0, r3, r9, lsl r1
     e0c:	00052d00 	andeq	r2, r5, r0, lsl #26
     e10:	18021331 	stmdane	r2, {r0, r4, r5, r8, r9, ip}
     e14:	052e0000 	streq	r0, [lr, #-0]!
     e18:	1c133100 	ldfnes	f3, [r3], {-0}
     e1c:	2f00000b 	svccs	0x0000000b
     e20:	1331010b 	teqne	r1, #-1073741822	; 0xc0000002
     e24:	06120111 			; <UNDEFINED> instruction: 0x06120111
     e28:	00001301 	andeq	r1, r0, r1, lsl #6
     e2c:	3f002e30 	svccc	0x00002e30
     e30:	6e193c19 	mrcvs	12, 0, r3, cr9, cr9, {0}
     e34:	3a0e030e 	bcc	381a74 <__bss_end__+0x376b9c>
     e38:	390b3b0b 	stmdbcc	fp, {r0, r1, r3, r8, r9, fp, ip, sp}
     e3c:	0000000b 	andeq	r0, r0, fp
     e40:	25011101 	strcs	r1, [r1, #-257]	; 0xfffffeff
     e44:	030b130e 	movweq	r1, #45838	; 0xb30e
     e48:	110e1b0e 	tstne	lr, lr, lsl #22
     e4c:	10061201 	andne	r1, r6, r1, lsl #4
     e50:	02000017 	andeq	r0, r0, #23, 0
     e54:	0b0b0024 	bleq	2c0eec <__bss_end__+0x2b6014>
     e58:	08030b3e 	stmdaeq	r3, {r1, r2, r3, r4, r5, r8, r9, fp}
     e5c:	24030000 	strcs	r0, [r3], #-0
     e60:	3e0b0b00 	vmlacc.f64	d0, d11, d0
     e64:	000e030b 	andeq	r0, lr, fp, lsl #6
     e68:	01150400 	tsteq	r5, r0, lsl #8
     e6c:	13491927 	movtne	r1, #39207	; 0x9927
     e70:	00001301 	andeq	r1, r0, r1, lsl #6
     e74:	49000505 	stmdbmi	r0, {r0, r2, r8, sl}
     e78:	06000013 			; <UNDEFINED> instruction: 0x06000013
     e7c:	0e030034 	mcreq	0, 0, r0, cr3, cr4, {1}
     e80:	0b3b0b3a 	bleq	ec3b70 <__bss_end__+0xeb8c98>
     e84:	13490b39 	movtne	r0, #39737	; 0x9b39
     e88:	193c193f 	ldmdbne	ip!, {r0, r1, r2, r3, r4, r5, r8, fp, ip}
     e8c:	0f070000 	svceq	0x00070000
     e90:	490b0b00 	stmdbmi	fp, {r8, r9, fp}
     e94:	08000013 	stmdaeq	r0, {r0, r1, r4}
     e98:	13490026 	movtne	r0, #36902	; 0x9026
     e9c:	2e090000 	cdpcs	0, 0, cr0, cr9, cr0, {0}
     ea0:	03193f01 	tsteq	r9, #1, 30
     ea4:	3b0b3a0e 	blcc	2cf6e4 <__bss_end__+0x2c480c>
     ea8:	270b390b 	strcs	r3, [fp, -fp, lsl #18]
     eac:	19018719 	stmdbne	r1, {r0, r3, r4, r8, r9, sl, pc}
     eb0:	06120111 			; <UNDEFINED> instruction: 0x06120111
     eb4:	42971840 	addsmi	r1, r7, #64, 16	; 0x400000
     eb8:	00130119 	andseq	r0, r3, r9, lsl r1
     ebc:	82890a00 	addhi	r0, r9, #0, 20
     ec0:	01110101 	tsteq	r1, r1, lsl #2
     ec4:	00001301 	andeq	r1, r0, r1, lsl #6
     ec8:	01828a0b 	orreq	r8, r2, fp, lsl #20
     ecc:	91180200 	tstls	r8, r0, lsl #4
     ed0:	00001842 	andeq	r1, r0, r2, asr #16
     ed4:	0182890c 	orreq	r8, r2, ip, lsl #18
     ed8:	31011100 	mrscc	r1, (UNDEF: 17)
     edc:	0d000013 	stceq	0, cr0, [r0, #-76]	; 0xffffffb4
     ee0:	01018289 	smlabbeq	r1, r9, r2, r8
     ee4:	13310111 	teqne	r1, #1073741828	; 0x40000004
     ee8:	00001301 	andeq	r1, r0, r1, lsl #6
     eec:	3f002e0e 	svccc	0x00002e0e
     ef0:	6e193c19 	mrcvs	12, 0, r3, cr9, cr9, {0}
     ef4:	3a0e030e 	bcc	381b34 <__bss_end__+0x376c5c>
     ef8:	390b3b0b 	stmdbcc	fp, {r0, r1, r3, r8, r9, fp, ip, sp}
     efc:	0000000b 	andeq	r0, r0, fp
     f00:	25011101 	strcs	r1, [r1, #-257]	; 0xfffffeff
     f04:	030b130e 	movweq	r1, #45838	; 0xb30e
     f08:	110e1b0e 	tstne	lr, lr, lsl #22
     f0c:	10061201 	andne	r1, r6, r1, lsl #4
     f10:	02000017 	andeq	r0, r0, #23, 0
     f14:	0b0b0024 	bleq	2c0fac <__bss_end__+0x2b60d4>
     f18:	08030b3e 	stmdaeq	r3, {r1, r2, r3, r4, r5, r8, r9, fp}
     f1c:	24030000 	strcs	r0, [r3], #-0
     f20:	3e0b0b00 	vmlacc.f64	d0, d11, d0
     f24:	000e030b 	andeq	r0, lr, fp, lsl #6
     f28:	01150400 	tsteq	r5, r0, lsl #8
     f2c:	13491927 	movtne	r1, #39207	; 0x9927
     f30:	00001301 	andeq	r1, r0, r1, lsl #6
     f34:	49000505 	stmdbmi	r0, {r0, r2, r8, sl}
     f38:	06000013 			; <UNDEFINED> instruction: 0x06000013
     f3c:	0e030034 	mcreq	0, 0, r0, cr3, cr4, {1}
     f40:	0b3b0b3a 	bleq	ec3c30 <__bss_end__+0xeb8d58>
     f44:	13490b39 	movtne	r0, #39737	; 0x9b39
     f48:	193c193f 	ldmdbne	ip!, {r0, r1, r2, r3, r4, r5, r8, fp, ip}
     f4c:	0f070000 	svceq	0x00070000
     f50:	490b0b00 	stmdbmi	fp, {r8, r9, fp}
     f54:	08000013 	stmdaeq	r0, {r0, r1, r4}
     f58:	13490026 	movtne	r0, #36902	; 0x9026
     f5c:	2e090000 	cdpcs	0, 0, cr0, cr9, cr0, {0}
     f60:	03193f01 	tsteq	r9, #1, 30
     f64:	3b0b3a0e 	blcc	2cf7a4 <__bss_end__+0x2c48cc>
     f68:	110b390b 	tstne	fp, fp, lsl #18
     f6c:	40061201 	andmi	r1, r6, r1, lsl #4
     f70:	19429718 	stmdbne	r2, {r3, r4, r8, r9, sl, ip, pc}^
     f74:	00001301 	andeq	r1, r0, r1, lsl #6
     f78:	3f002e0a 	svccc	0x00002e0a
     f7c:	3a0e0319 	bcc	381be8 <__bss_end__+0x376d10>
     f80:	390b3b0b 	stmdbcc	fp, {r0, r1, r3, r8, r9, fp, ip, sp}
     f84:	3c19270b 	ldccc	7, cr2, [r9], {11}
     f88:	0b000019 	bleq	ff4 <__code_start__-0x700c>
     f8c:	08030034 	stmdaeq	r3, {r2, r4, r5}
     f90:	0b3b0b3a 	bleq	ec3c80 <__bss_end__+0xeb8da8>
     f94:	13490b39 	movtne	r0, #39737	; 0x9b39
     f98:	42b71702 	adcsmi	r1, r7, #524288	; 0x80000
     f9c:	0c000017 	stceq	0, cr0, [r0], {23}
     fa0:	0e030034 	mcreq	0, 0, r0, cr3, cr4, {1}
     fa4:	0b3b0b3a 	bleq	ec3c94 <__bss_end__+0xeb8dbc>
     fa8:	13490b39 	movtne	r0, #39737	; 0x9b39
     fac:	0b0d0000 	bleq	340fb4 <__bss_end__+0x3360dc>
     fb0:	12011101 	andne	r1, r1, #1073741824	; 0x40000000
     fb4:	00130106 	andseq	r0, r3, r6, lsl #2
     fb8:	82890e00 	addhi	r0, r9, #0, 28
     fbc:	01110001 	tsteq	r1, r1
     fc0:	00001331 	andeq	r1, r0, r1, lsr r3
     fc4:	3f002e0f 	svccc	0x00002e0f
     fc8:	6e193c19 	mrcvs	12, 0, r3, cr9, cr9, {0}
     fcc:	3a0e030e 	bcc	381c0c <__bss_end__+0x376d34>
     fd0:	39053b0b 	stmdbcc	r5, {r0, r1, r3, r8, r9, fp, ip, sp}
     fd4:	1000000b 	andne	r0, r0, fp
     fd8:	193f002e 	ldmdbne	pc!, {r1, r2, r3, r5}	; <UNPREDICTABLE>
     fdc:	0e6e193c 			; <UNDEFINED> instruction: 0x0e6e193c
     fe0:	0b3a0e03 	bleq	e847f4 <__bss_end__+0xe7991c>
     fe4:	0b390b3b 	bleq	e43cd8 <__bss_end__+0xe38e00>
     fe8:	01000000 	mrseq	r0, (UNDEF: 0)
     fec:	0e250111 	mcreq	1, 1, r0, cr5, cr1, {0}
     ff0:	0e030b13 	vmoveq.32	d3[0], r0
     ff4:	01110e1b 	tsteq	r1, fp, lsl lr
     ff8:	17100612 			; <UNDEFINED> instruction: 0x17100612
     ffc:	24020000 	strcs	r0, [r2], #-0
    1000:	3e0b0b00 	vmlacc.f64	d0, d11, d0
    1004:	0008030b 	andeq	r0, r8, fp, lsl #6
    1008:	00240300 	eoreq	r0, r4, r0, lsl #6
    100c:	0b3e0b0b 	bleq	f83c40 <__bss_end__+0xf78d68>
    1010:	00000e03 	andeq	r0, r0, r3, lsl #28
    1014:	27011504 	strcs	r1, [r1, -r4, lsl #10]
    1018:	01134919 	tsteq	r3, r9, lsl r9
    101c:	05000013 	streq	r0, [r0, #-19]	; 0xffffffed
    1020:	13490005 	movtne	r0, #36869	; 0x9005
    1024:	34060000 	strcc	r0, [r6], #-0
    1028:	3a0e0300 	bcc	381c30 <__bss_end__+0x376d58>
    102c:	390b3b0b 	stmdbcc	fp, {r0, r1, r3, r8, r9, fp, ip, sp}
    1030:	3f13490b 	svccc	0x0013490b
    1034:	00193c19 	andseq	r3, r9, r9, lsl ip
    1038:	000f0700 	andeq	r0, pc, r0, lsl #14
    103c:	13490b0b 	movtne	r0, #39691	; 0x9b0b
    1040:	26080000 	strcs	r0, [r8], -r0
    1044:	00134900 	andseq	r4, r3, r0, lsl #18
    1048:	002e0900 	eoreq	r0, lr, r0, lsl #18
    104c:	0e03193f 			; <UNDEFINED> instruction: 0x0e03193f
    1050:	0b3b0b3a 	bleq	ec3d40 <__bss_end__+0xeb8e68>
    1054:	19270b39 	stmdbne	r7!, {r0, r3, r4, r5, r8, r9, fp}
    1058:	06120111 			; <UNDEFINED> instruction: 0x06120111
    105c:	42971840 	addsmi	r1, r7, #64, 16	; 0x400000
    1060:	00000019 	andeq	r0, r0, r9, lsl r0
    1064:	25011101 	strcs	r1, [r1, #-257]	; 0xfffffeff
    1068:	030b130e 	movweq	r1, #45838	; 0xb30e
    106c:	550e1b0e 	strpl	r1, [lr, #-2830]	; 0xfffff4f2
    1070:	10011117 	andne	r1, r1, r7, lsl r1
    1074:	02000017 	andeq	r0, r0, #23, 0
    1078:	0b0b0024 	bleq	2c1110 <__bss_end__+0x2b6238>
    107c:	08030b3e 	stmdaeq	r3, {r1, r2, r3, r4, r5, r8, r9, fp}
    1080:	26030000 	strcs	r0, [r3], -r0
    1084:	00134900 	andseq	r4, r3, r0, lsl #18
    1088:	00240400 	eoreq	r0, r4, r0, lsl #8
    108c:	0b3e0b0b 	bleq	f83cc0 <__bss_end__+0xf78de8>
    1090:	00000e03 	andeq	r0, r0, r3, lsl #28
    1094:	27011505 	strcs	r1, [r1, -r5, lsl #10]
    1098:	01134919 	tsteq	r3, r9, lsl r9
    109c:	06000013 			; <UNDEFINED> instruction: 0x06000013
    10a0:	13490005 	movtne	r0, #36869	; 0x9005
    10a4:	34070000 	strcc	r0, [r7], #-0
    10a8:	3a0e0300 	bcc	381cb0 <__bss_end__+0x376dd8>
    10ac:	390b3b0b 	stmdbcc	fp, {r0, r1, r3, r8, r9, fp, ip, sp}
    10b0:	3f13490b 	svccc	0x0013490b
    10b4:	00193c19 	andseq	r3, r9, r9, lsl ip
    10b8:	000f0800 	andeq	r0, pc, r0, lsl #16
    10bc:	13490b0b 	movtne	r0, #39691	; 0x9b0b
    10c0:	34090000 	strcc	r0, [r9], #-0
    10c4:	3a0e0300 	bcc	381ccc <__bss_end__+0x376df4>
    10c8:	390b3b0b 	stmdbcc	fp, {r0, r1, r3, r8, r9, fp, ip, sp}
    10cc:	0013490b 	andseq	r4, r3, fp, lsl #18
    10d0:	012e0a00 			; <UNDEFINED> instruction: 0x012e0a00
    10d4:	0e03193f 			; <UNDEFINED> instruction: 0x0e03193f
    10d8:	0b3b0b3a 	bleq	ec3dc8 <__bss_end__+0xeb8ef0>
    10dc:	19270b39 	stmdbne	r7!, {r0, r3, r4, r5, r8, r9, fp}
    10e0:	11190187 	tstne	r9, r7, lsl #3
    10e4:	40061201 	andmi	r1, r6, r1, lsl #4
    10e8:	19429718 	stmdbne	r2, {r3, r4, r8, r9, sl, ip, pc}^
    10ec:	00001301 	andeq	r1, r0, r1, lsl #6
    10f0:	0300340b 	movweq	r3, #1035	; 0x40b
    10f4:	3b0b3a0e 	blcc	2cf934 <__bss_end__+0x2c4a5c>
    10f8:	490b390b 	stmdbmi	fp, {r0, r1, r3, r8, fp, ip, sp}
    10fc:	00061c13 	andeq	r1, r6, r3, lsl ip
    1100:	00340c00 	eorseq	r0, r4, r0, lsl #24
    1104:	0b3a0e03 	bleq	e84918 <__bss_end__+0xe79a40>
    1108:	0b390b3b 	bleq	e43dfc <__bss_end__+0xe38f24>
    110c:	0b1c1349 	bleq	705e38 <__bss_end__+0x6faf60>
    1110:	1d0d0000 	stcne	0, cr0, [sp, #-0]
    1114:	52133101 	andspl	r3, r3, #1073741824	; 0x40000000
    1118:	0b42b801 	bleq	10af124 <__bss_end__+0x10a424c>
    111c:	0b581755 	bleq	1606e78 <__bss_end__+0x15fbfa0>
    1120:	0b570b59 	bleq	15c3e8c <__bss_end__+0x15b8fb4>
    1124:	00001301 	andeq	r1, r0, r1, lsl #6
    1128:	55010b0e 	strpl	r0, [r1, #-2830]	; 0xfffff4f2
    112c:	0f000017 	svceq	0x00000017
    1130:	13310034 	teqne	r1, #52, 0	; 0x34
    1134:	42b71702 	adcsmi	r1, r7, #524288	; 0x80000
    1138:	10000017 	andne	r0, r0, r7, lsl r0
    113c:	1331011d 	teqne	r1, #1073741831	; 0x40000007
    1140:	42b80152 	adcsmi	r0, r8, #-2147483628	; 0x80000014
    1144:	1201110b 	andne	r1, r1, #-1073741822	; 0xc0000002
    1148:	590b5806 	stmdbpl	fp, {r1, r2, fp, ip, lr}
    114c:	010b570b 	tsteq	fp, fp, lsl #14
    1150:	11000013 	tstne	r0, r3, lsl r0
    1154:	00018289 	andeq	r8, r1, r9, lsl #5
    1158:	13310111 	teqne	r1, #1073741828	; 0x40000004
    115c:	89120000 	ldmdbhi	r2, {}	; <UNPREDICTABLE>
    1160:	11010182 	smlabbne	r1, r2, r1, r0
    1164:	01133101 	tsteq	r3, r1, lsl #2
    1168:	13000013 	movwne	r0, #19
    116c:	0001828a 	andeq	r8, r1, sl, lsl #5
    1170:	42911802 	addsmi	r1, r1, #131072	; 0x20000
    1174:	14000018 	strne	r0, [r0], #-24	; 0xffffffe8
    1178:	01018289 	smlabbeq	r1, r9, r2, r8
    117c:	13310111 	teqne	r1, #1073741828	; 0x40000004
    1180:	2e150000 	cdpcs	0, 1, cr0, cr5, cr0, {0}
    1184:	03193f01 	tsteq	r9, #1, 30
    1188:	3b0b3a0e 	blcc	2cf9c8 <__bss_end__+0x2c4af0>
    118c:	270b390b 	strcs	r3, [fp, -fp, lsl #18]
    1190:	010b2019 	tsteq	fp, r9, lsl r0
    1194:	16000013 			; <UNDEFINED> instruction: 0x16000013
    1198:	193f012e 	ldmdbne	pc!, {r1, r2, r3, r5, r8}	; <UNPREDICTABLE>
    119c:	0b3a0e03 	bleq	e849b0 <__bss_end__+0xe79ad8>
    11a0:	0b390b3b 	bleq	e43e94 <__bss_end__+0xe38fbc>
    11a4:	13491927 	movtne	r1, #39207	; 0x9927
    11a8:	13010b20 	movwne	r0, #6944	; 0x1b20
    11ac:	2e170000 	cdpcs	0, 1, cr0, cr7, cr0, {0}
    11b0:	11133101 	tstne	r3, r1, lsl #2
    11b4:	40061201 	andmi	r1, r6, r1, lsl #4
    11b8:	19429718 	stmdbne	r2, {r3, r4, r8, r9, sl, ip, pc}^
    11bc:	00001301 	andeq	r1, r0, r1, lsl #6
    11c0:	3f002e18 	svccc	0x00002e18
    11c4:	6e193c19 	mrcvs	12, 0, r3, cr9, cr9, {0}
    11c8:	3a0e030e 	bcc	381e08 <__bss_end__+0x376f30>
    11cc:	39053b0b 	stmdbcc	r5, {r0, r1, r3, r8, r9, fp, ip, sp}
    11d0:	1900000b 	stmdbne	r0, {r0, r1, r3}
    11d4:	193f002e 	ldmdbne	pc!, {r1, r2, r3, r5}	; <UNPREDICTABLE>
    11d8:	0e6e193c 			; <UNDEFINED> instruction: 0x0e6e193c
    11dc:	0b3a0e03 	bleq	e849f0 <__bss_end__+0xe79b18>
    11e0:	0b390b3b 	bleq	e43ed4 <__bss_end__+0xe38ffc>
    11e4:	01000000 	mrseq	r0, (UNDEF: 0)
    11e8:	0e250111 	mcreq	1, 1, r0, cr5, cr1, {0}
    11ec:	0e030b13 	vmoveq.32	d3[0], r0
    11f0:	01110e1b 	tsteq	r1, fp, lsl lr
    11f4:	17100612 			; <UNDEFINED> instruction: 0x17100612
    11f8:	24020000 	strcs	r0, [r2], #-0
    11fc:	3e0b0b00 	vmlacc.f64	d0, d11, d0
    1200:	0008030b 	andeq	r0, r8, fp, lsl #6
    1204:	00240300 	eoreq	r0, r4, r0, lsl #6
    1208:	0b3e0b0b 	bleq	f83e3c <__bss_end__+0xf78f64>
    120c:	00000e03 	andeq	r0, r0, r3, lsl #28
    1210:	27011504 	strcs	r1, [r1, -r4, lsl #10]
    1214:	01134919 	tsteq	r3, r9, lsl r9
    1218:	05000013 	streq	r0, [r0, #-19]	; 0xffffffed
    121c:	13490005 	movtne	r0, #36869	; 0x9005
    1220:	34060000 	strcc	r0, [r6], #-0
    1224:	3a0e0300 	bcc	381e2c <__bss_end__+0x376f54>
    1228:	390b3b0b 	stmdbcc	fp, {r0, r1, r3, r8, r9, fp, ip, sp}
    122c:	3f13490b 	svccc	0x0013490b
    1230:	00193c19 	andseq	r3, r9, r9, lsl ip
    1234:	000f0700 	andeq	r0, pc, r0, lsl #14
    1238:	13490b0b 	movtne	r0, #39691	; 0x9b0b
    123c:	26080000 	strcs	r0, [r8], -r0
    1240:	00134900 	andseq	r4, r3, r0, lsl #18
    1244:	012e0900 			; <UNDEFINED> instruction: 0x012e0900
    1248:	0e03193f 			; <UNDEFINED> instruction: 0x0e03193f
    124c:	0b3b0b3a 	bleq	ec3f3c <__bss_end__+0xeb9064>
    1250:	19270b39 	stmdbne	r7!, {r0, r3, r4, r5, r8, r9, fp}
    1254:	06120111 			; <UNDEFINED> instruction: 0x06120111
    1258:	42971840 	addsmi	r1, r7, #64, 16	; 0x400000
    125c:	00130119 	andseq	r0, r3, r9, lsl r1
    1260:	00050a00 	andeq	r0, r5, r0, lsl #20
    1264:	0b3a0803 	bleq	e83278 <__bss_end__+0xe783a0>
    1268:	0b390b3b 	bleq	e43f5c <__bss_end__+0xe39084>
    126c:	17021349 	strne	r1, [r2, -r9, asr #6]
    1270:	001742b7 			; <UNDEFINED> instruction: 0x001742b7
    1274:	011d0b00 	tsteq	sp, r0, lsl #22
    1278:	01521331 	cmpeq	r2, r1, lsr r3
    127c:	550b42b8 	strpl	r4, [fp, #-696]	; 0xfffffd48
    1280:	590b5817 	stmdbpl	fp, {r0, r1, r2, r4, fp, ip, lr}
    1284:	000b570b 	andeq	r5, fp, fp, lsl #14
    1288:	00050c00 	andeq	r0, r5, r0, lsl #24
    128c:	17021331 	smladxne	r2, r1, r3, r1
    1290:	001742b7 			; <UNDEFINED> instruction: 0x001742b7
    1294:	011d0d00 	tsteq	sp, r0, lsl #26
    1298:	01521331 	cmpeq	r2, r1, lsr r3
    129c:	110b42b8 			; <UNDEFINED> instruction: 0x110b42b8
    12a0:	58061201 	stmdapl	r6, {r0, r9, ip}
    12a4:	570b590b 	strpl	r5, [fp, -fp, lsl #18]
    12a8:	0e00000b 	cdpeq	0, 0, cr0, cr0, cr11, {0}
    12ac:	13310034 	teqne	r1, #52, 0	; 0x34
    12b0:	42b71702 	adcsmi	r1, r7, #524288	; 0x80000
    12b4:	0f000017 	svceq	0x00000017
    12b8:	1331011d 	teqne	r1, #1073741831	; 0x40000007
    12bc:	42b80152 	adcsmi	r0, r8, #-2147483628	; 0x80000014
    12c0:	1201110b 	andne	r1, r1, #-1073741822	; 0xc0000002
    12c4:	590b5806 	stmdbpl	fp, {r1, r2, fp, ip, lr}
    12c8:	010b570b 	tsteq	fp, fp, lsl #14
    12cc:	10000013 	andne	r0, r0, r3, lsl r0
    12d0:	01018289 	smlabbeq	r1, r9, r2, r8
    12d4:	13310111 	teqne	r1, #1073741828	; 0x40000004
    12d8:	8a110000 	bhi	4412e0 <__bss_end__+0x436408>
    12dc:	02000182 	andeq	r0, r0, #-2147483616	; 0x80000020
    12e0:	18429118 	stmdane	r2, {r3, r4, r8, ip, pc}^
    12e4:	89120000 	ldmdbhi	r2, {}	; <UNPREDICTABLE>
    12e8:	11000182 	smlabbne	r0, r2, r1, r0
    12ec:	00133101 	andseq	r3, r3, r1, lsl #2
    12f0:	010b1300 	mrseq	r1, (UNDEF: 59)
    12f4:	17551331 	smmlarne	r5, r1, r3, r1
    12f8:	34140000 	ldrcc	r0, [r4], #-0
    12fc:	00133100 	andseq	r3, r3, r0, lsl #2
    1300:	010b1500 	tsteq	fp, r0, lsl #10
    1304:	00001755 	andeq	r1, r0, r5, asr r7
    1308:	31011d16 	tstcc	r1, r6, lsl sp
    130c:	b8015213 	stmdalt	r1, {r0, r1, r4, r9, ip, lr}
    1310:	17550b42 	ldrbne	r0, [r5, -r2, asr #22]
    1314:	0b590b58 	bleq	164407c <__bss_end__+0x16391a4>
    1318:	13010b57 	movwne	r0, #6999	; 0x1b57
    131c:	2e170000 	cdpcs	0, 1, cr0, cr7, cr0, {0}
    1320:	03193f01 	tsteq	r9, #1, 30
    1324:	3b0b3a0e 	blcc	2cfb64 <__bss_end__+0x2c4c8c>
    1328:	270b390b 	strcs	r3, [fp, -fp, lsl #18]
    132c:	010b2019 	tsteq	fp, r9, lsl r0
    1330:	18000013 	stmdane	r0, {r0, r1, r4}
    1334:	08030005 	stmdaeq	r3, {r0, r2}
    1338:	0b3b0b3a 	bleq	ec4028 <__bss_end__+0xeb9150>
    133c:	13490b39 	movtne	r0, #39737	; 0x9b39
    1340:	34190000 	ldrcc	r0, [r9], #-0
    1344:	3a080300 	bcc	201f4c <__bss_end__+0x1f7074>
    1348:	390b3b0b 	stmdbcc	fp, {r0, r1, r3, r8, r9, fp, ip, sp}
    134c:	0013490b 	andseq	r4, r3, fp, lsl #18
    1350:	010b1a00 	tsteq	fp, r0, lsl #20
    1354:	2e1b0000 	cdpcs	0, 1, cr0, cr11, cr0, {0}
    1358:	03193f01 	tsteq	r9, #1, 30
    135c:	3b0b3a0e 	blcc	2cfb9c <__bss_end__+0x2c4cc4>
    1360:	270b390b 	strcs	r3, [fp, -fp, lsl #18]
    1364:	20134919 	andscs	r4, r3, r9, lsl r9
    1368:	0013010b 	andseq	r0, r3, fp, lsl #2
    136c:	002e1c00 	eoreq	r1, lr, r0, lsl #24
    1370:	0e03193f 			; <UNDEFINED> instruction: 0x0e03193f
    1374:	0b3b0b3a 	bleq	ec4064 <__bss_end__+0xeb918c>
    1378:	19270b39 	stmdbne	r7!, {r0, r3, r4, r5, r8, r9, fp}
    137c:	0b201349 	bleq	8060a8 <__bss_end__+0x7fb1d0>
    1380:	2e1d0000 	cdpcs	0, 1, cr0, cr13, cr0, {0}
    1384:	11133101 	tstne	r3, r1, lsl #2
    1388:	40061201 	andmi	r1, r6, r1, lsl #4
    138c:	19429718 	stmdbne	r2, {r3, r4, r8, r9, sl, ip, pc}^
    1390:	00001301 	andeq	r1, r0, r1, lsl #6
    1394:	0182891e 	orreq	r8, r2, lr, lsl r9
    1398:	95011101 	strls	r1, [r1, #-257]	; 0xfffffeff
    139c:	13311942 	teqne	r1, #1081344	; 0x108000
    13a0:	2e1f0000 	cdpcs	0, 1, cr0, cr15, cr0, {0}
    13a4:	3c193f00 	ldccc	15, cr3, [r9], {-0}
    13a8:	030e6e19 	movweq	r6, #60953	; 0xee19
    13ac:	3b0b3a0e 	blcc	2cfbec <__bss_end__+0x2c4d14>
    13b0:	000b390b 	andeq	r3, fp, fp, lsl #18
    13b4:	11010000 	mrsne	r0, (UNDEF: 1)
    13b8:	130e2501 	movwne	r2, #58625	; 0xe501
    13bc:	1b0e030b 	blne	381ff0 <__bss_end__+0x377118>
    13c0:	1201110e 	andne	r1, r1, #-2147483645	; 0x80000003
    13c4:	00171006 	andseq	r1, r7, r6
    13c8:	00240200 	eoreq	r0, r4, r0, lsl #4
    13cc:	0b3e0b0b 	bleq	f84000 <__bss_end__+0xf79128>
    13d0:	00000803 	andeq	r0, r0, r3, lsl #16
    13d4:	0b002403 	bleq	a3e8 <__FUNCTION__.4069+0x4c>
    13d8:	030b3e0b 	movweq	r3, #48651	; 0xbe0b
    13dc:	0400000e 	streq	r0, [r0], #-14
    13e0:	13490035 	movtne	r0, #36917	; 0x9035
    13e4:	16050000 	strne	r0, [r5], -r0
    13e8:	3a0e0300 	bcc	381ff0 <__bss_end__+0x377118>
    13ec:	390b3b0b 	stmdbcc	fp, {r0, r1, r3, r8, r9, fp, ip, sp}
    13f0:	0013490b 	andseq	r4, r3, fp, lsl #18
    13f4:	01040600 	tsteq	r4, r0, lsl #12
    13f8:	0b0b0b3e 	bleq	2c40f8 <__bss_end__+0x2b9220>
    13fc:	0b3a1349 	bleq	e86128 <__bss_end__+0xe7b250>
    1400:	0b390b3b 	bleq	e440f4 <__bss_end__+0xe3921c>
    1404:	00001301 	andeq	r1, r0, r1, lsl #6
    1408:	03002807 	movweq	r2, #2055	; 0x807
    140c:	000b1c0e 	andeq	r1, fp, lr, lsl #24
    1410:	01130800 	tsteq	r3, r0, lsl #16
    1414:	0b0b0e03 	bleq	2c4c28 <__bss_end__+0x2b9d50>
    1418:	0b3b0b3a 	bleq	ec4108 <__bss_end__+0xeb9230>
    141c:	13010b39 	movwne	r0, #6969	; 0x1b39
    1420:	0d090000 	stceq	0, cr0, [r9, #-0]
    1424:	3a080300 	bcc	20202c <__bss_end__+0x1f7154>
    1428:	390b3b0b 	stmdbcc	fp, {r0, r1, r3, r8, r9, fp, ip, sp}
    142c:	3813490b 	ldmdacc	r3, {r0, r1, r3, r8, fp, lr}
    1430:	0a00000b 	beq	1464 <__code_start__-0x6b9c>
    1434:	0e03000d 	cdpeq	0, 0, cr0, cr3, cr13, {0}
    1438:	0b3b0b3a 	bleq	ec4128 <__bss_end__+0xeb9250>
    143c:	13490b39 	movtne	r0, #39737	; 0x9b39
    1440:	00000b38 	andeq	r0, r0, r8, lsr fp
    1444:	0300340b 	movweq	r3, #1035	; 0x40b
    1448:	3b0b3a0e 	blcc	2cfc88 <__bss_end__+0x2c4db0>
    144c:	490b390b 	stmdbmi	fp, {r0, r1, r3, r8, fp, ip, sp}
    1450:	00061c13 	andeq	r1, r6, r3, lsl ip
    1454:	000f0c00 	andeq	r0, pc, r0, lsl #24
    1458:	13490b0b 	movtne	r0, #39691	; 0x9b0b
    145c:	260d0000 	strcs	r0, [sp], -r0
    1460:	00134900 	andseq	r4, r3, r0, lsl #18
    1464:	012e0e00 			; <UNDEFINED> instruction: 0x012e0e00
    1468:	0e03193f 			; <UNDEFINED> instruction: 0x0e03193f
    146c:	0b3b0b3a 	bleq	ec415c <__bss_end__+0xeb9284>
    1470:	19270b39 	stmdbne	r7!, {r0, r3, r4, r5, r8, r9, fp}
    1474:	06120111 			; <UNDEFINED> instruction: 0x06120111
    1478:	42971840 	addsmi	r1, r7, #64, 16	; 0x400000
    147c:	00130119 	andseq	r0, r3, r9, lsl r1
    1480:	82890f00 	addhi	r0, r9, #0, 30
    1484:	01110001 	tsteq	r1, r1
    1488:	00001331 	andeq	r1, r0, r1, lsr r3
    148c:	3f012e10 	svccc	0x00012e10
    1490:	3a0e0319 	bcc	3820fc <__bss_end__+0x377224>
    1494:	390b3b0b 	stmdbcc	fp, {r0, r1, r3, r8, r9, fp, ip, sp}
    1498:	4919270b 	ldmdbmi	r9, {r0, r1, r3, r8, r9, sl, sp}
    149c:	12011113 	andne	r1, r1, #-1073741820	; 0xc0000004
    14a0:	97184006 	ldrls	r4, [r8, -r6]
    14a4:	13011942 	movwne	r1, #6466	; 0x1942
    14a8:	89110000 	ldmdbhi	r1, {}	; <UNPREDICTABLE>
    14ac:	11010182 	smlabbne	r1, r2, r1, r0
    14b0:	00133101 	andseq	r3, r3, r1, lsl #2
    14b4:	828a1200 	addhi	r1, sl, #0, 4
    14b8:	18020001 	stmdane	r2, {r0}
    14bc:	00184291 	mulseq	r8, r1, r2
    14c0:	00051300 	andeq	r1, r5, r0, lsl #6
    14c4:	0b3a0803 	bleq	e834d8 <__bss_end__+0xe78600>
    14c8:	0b390b3b 	bleq	e441bc <__bss_end__+0xe392e4>
    14cc:	17021349 	strne	r1, [r2, -r9, asr #6]
    14d0:	001742b7 			; <UNDEFINED> instruction: 0x001742b7
    14d4:	82891400 	addhi	r1, r9, #0, 8
    14d8:	01110101 	tsteq	r1, r1, lsl #2
    14dc:	13011331 	movwne	r1, #4913	; 0x1331
    14e0:	34150000 	ldrcc	r0, [r5], #-0
    14e4:	3a080300 	bcc	2020ec <__bss_end__+0x1f7214>
    14e8:	390b3b0b 	stmdbcc	fp, {r0, r1, r3, r8, r9, fp, ip, sp}
    14ec:	0213490b 	andseq	r4, r3, #180224	; 0x2c000
    14f0:	1742b717 	smlaldne	fp, r2, r7, r7
    14f4:	34160000 	ldrcc	r0, [r6], #-0
    14f8:	3a0e0300 	bcc	382100 <__bss_end__+0x377228>
    14fc:	390b3b0b 	stmdbcc	fp, {r0, r1, r3, r8, r9, fp, ip, sp}
    1500:	1c13490b 			; <UNDEFINED> instruction: 0x1c13490b
    1504:	17000005 	strne	r0, [r0, -r5]
    1508:	0e03012e 	adfeqsp	f0, f3, #0.5
    150c:	0b3b0b3a 	bleq	ec41fc <__bss_end__+0xeb9324>
    1510:	19270b39 	stmdbne	r7!, {r0, r3, r4, r5, r8, r9, fp}
    1514:	06120111 			; <UNDEFINED> instruction: 0x06120111
    1518:	42971840 	addsmi	r1, r7, #64, 16	; 0x400000
    151c:	00130119 	andseq	r0, r3, r9, lsl r1
    1520:	00051800 	andeq	r1, r5, r0, lsl #16
    1524:	0b3a0e03 	bleq	e84d38 <__bss_end__+0xe79e60>
    1528:	0b390b3b 	bleq	e4421c <__bss_end__+0xe39344>
    152c:	17021349 	strne	r1, [r2, -r9, asr #6]
    1530:	001742b7 			; <UNDEFINED> instruction: 0x001742b7
    1534:	00351900 	eorseq	r1, r5, r0, lsl #18
    1538:	2e1a0000 	cdpcs	0, 1, cr0, cr10, cr0, {0}
    153c:	3c193f00 	ldccc	15, cr3, [r9], {-0}
    1540:	030e6e19 	movweq	r6, #60953	; 0xee19
    1544:	3b0b3a0e 	blcc	2cfd84 <__bss_end__+0x2c4eac>
    1548:	000b390b 	andeq	r3, fp, fp, lsl #18
    154c:	11010000 	mrsne	r0, (UNDEF: 1)
    1550:	130e2501 	movwne	r2, #58625	; 0xe501
    1554:	1b0e030b 	blne	382188 <__bss_end__+0x3772b0>
    1558:	1201110e 	andne	r1, r1, #-2147483645	; 0x80000003
    155c:	00171006 	andseq	r1, r7, r6
    1560:	00240200 	eoreq	r0, r4, r0, lsl #4
    1564:	0b3e0b0b 	bleq	f84198 <__bss_end__+0xf792c0>
    1568:	00000803 	andeq	r0, r0, r3, lsl #16
    156c:	0b002403 	bleq	a580 <__FUNCTION__.4069+0x1e4>
    1570:	030b3e0b 	movweq	r3, #48651	; 0xbe0b
    1574:	0400000e 	streq	r0, [r0], #-14
    1578:	0e030016 	mcreq	0, 0, r0, cr3, cr6, {0}
    157c:	0b3b0b3a 	bleq	ec426c <__bss_end__+0xeb9394>
    1580:	13490b39 	movtne	r0, #39737	; 0x9b39
    1584:	26050000 	strcs	r0, [r5], -r0
    1588:	00134900 	andseq	r4, r3, r0, lsl #18
    158c:	000f0600 	andeq	r0, pc, r0, lsl #12
    1590:	00000b0b 	andeq	r0, r0, fp, lsl #22
    1594:	3e010407 	cdpcc	4, 0, cr0, cr1, cr7, {0}
    1598:	490b0b0b 	stmdbmi	fp, {r0, r1, r3, r8, r9, fp}
    159c:	3b0b3a13 	blcc	2cfdf0 <__bss_end__+0x2c4f18>
    15a0:	010b390b 	tsteq	fp, fp, lsl #18
    15a4:	08000013 	stmdaeq	r0, {r0, r1, r4}
    15a8:	0e030028 	cdpeq	0, 0, cr0, cr3, cr8, {1}
    15ac:	0000061c 	andeq	r0, r0, ip, lsl r6
    15b0:	03003409 	movweq	r3, #1033	; 0x409
    15b4:	3b0b3a0e 	blcc	2cfdf4 <__bss_end__+0x2c4f1c>
    15b8:	490b390b 	stmdbmi	fp, {r0, r1, r3, r8, fp, ip, sp}
    15bc:	3c193f13 	ldccc	15, cr3, [r9], {19}
    15c0:	0a000019 	beq	162c <__code_start__-0x69d4>
    15c4:	0e030034 	mcreq	0, 0, r0, cr3, cr4, {1}
    15c8:	0b3b0b3a 	bleq	ec42b8 <__bss_end__+0xeb93e0>
    15cc:	13490b39 	movtne	r0, #39737	; 0x9b39
    15d0:	00001802 	andeq	r1, r0, r2, lsl #16
    15d4:	0b000f0b 	bleq	5208 <__code_start__-0x2df8>
    15d8:	0013490b 	andseq	r4, r3, fp, lsl #18
    15dc:	012e0c00 			; <UNDEFINED> instruction: 0x012e0c00
    15e0:	0e03193f 			; <UNDEFINED> instruction: 0x0e03193f
    15e4:	0b3b0b3a 	bleq	ec42d4 <__bss_end__+0xeb93fc>
    15e8:	19270b39 	stmdbne	r7!, {r0, r3, r4, r5, r8, r9, fp}
    15ec:	06120111 			; <UNDEFINED> instruction: 0x06120111
    15f0:	42971840 	addsmi	r1, r7, #64, 16	; 0x400000
    15f4:	00130119 	andseq	r0, r3, r9, lsl r1
    15f8:	00050d00 	andeq	r0, r5, r0, lsl #26
    15fc:	0b3a0803 	bleq	e83610 <__bss_end__+0xe78738>
    1600:	0b390b3b 	bleq	e442f4 <__bss_end__+0xe3941c>
    1604:	17021349 	strne	r1, [r2, -r9, asr #6]
    1608:	001742b7 			; <UNDEFINED> instruction: 0x001742b7
    160c:	00340e00 	eorseq	r0, r4, r0, lsl #28
    1610:	13490e03 	movtne	r0, #40451	; 0x9e03
    1614:	18021934 	stmdane	r2, {r2, r4, r5, r8, fp, ip}
    1618:	890f0000 	stmdbhi	pc, {}	; <UNPREDICTABLE>
    161c:	11010182 	smlabbne	r1, r2, r1, r0
    1620:	01133101 	tsteq	r3, r1, lsl #2
    1624:	10000013 	andne	r0, r0, r3, lsl r0
    1628:	0001828a 	andeq	r8, r1, sl, lsl #5
    162c:	42911802 	addsmi	r1, r1, #131072	; 0x20000
    1630:	11000018 	tstne	r0, r8, lsl r0
    1634:	00018289 	andeq	r8, r1, r9, lsl #5
    1638:	13310111 	teqne	r1, #1073741828	; 0x40000004
    163c:	01120000 	tsteq	r2, r0
    1640:	01134901 	tsteq	r3, r1, lsl #18
    1644:	13000013 	movwne	r0, #19
    1648:	13490021 	movtne	r0, #36897	; 0x9021
    164c:	00000b2f 	andeq	r0, r0, pc, lsr #22
    1650:	3f002e14 	svccc	0x00002e14
    1654:	3a0e0319 	bcc	3822c0 <__bss_end__+0x3773e8>
    1658:	390b3b0b 	stmdbcc	fp, {r0, r1, r3, r8, r9, fp, ip, sp}
    165c:	1119270b 	tstne	r9, fp, lsl #14
    1660:	40061201 	andmi	r1, r6, r1, lsl #4
    1664:	19429718 	stmdbne	r2, {r3, r4, r8, r9, sl, ip, pc}^
    1668:	05150000 	ldreq	r0, [r5, #-0]
    166c:	3a080300 	bcc	202274 <__bss_end__+0x1f739c>
    1670:	390b3b0b 	stmdbcc	fp, {r0, r1, r3, r8, r9, fp, ip, sp}
    1674:	0213490b 	andseq	r4, r3, #180224	; 0x2c000
    1678:	16000018 			; <UNDEFINED> instruction: 0x16000018
    167c:	193f012e 	ldmdbne	pc!, {r1, r2, r3, r5, r8}	; <UNPREDICTABLE>
    1680:	0b3a0e03 	bleq	e84e94 <__bss_end__+0xe79fbc>
    1684:	0b390b3b 	bleq	e44378 <__bss_end__+0xe394a0>
    1688:	13491927 	movtne	r1, #39207	; 0x9927
    168c:	06120111 			; <UNDEFINED> instruction: 0x06120111
    1690:	42971840 	addsmi	r1, r7, #64, 16	; 0x400000
    1694:	00130119 	andseq	r0, r3, r9, lsl r1
    1698:	00051700 	andeq	r1, r5, r0, lsl #14
    169c:	0b3a0e03 	bleq	e84eb0 <__bss_end__+0xe79fd8>
    16a0:	0b390b3b 	bleq	e44394 <__bss_end__+0xe394bc>
    16a4:	17021349 	strne	r1, [r2, -r9, asr #6]
    16a8:	001742b7 			; <UNDEFINED> instruction: 0x001742b7
    16ac:	00341800 	eorseq	r1, r4, r0, lsl #16
    16b0:	0b3a0803 	bleq	e836c4 <__bss_end__+0xe787ec>
    16b4:	0b390b3b 	bleq	e443a8 <__bss_end__+0xe394d0>
    16b8:	17021349 	strne	r1, [r2, -r9, asr #6]
    16bc:	001742b7 			; <UNDEFINED> instruction: 0x001742b7
    16c0:	011d1900 	tsteq	sp, r0, lsl #18
    16c4:	01521331 	cmpeq	r2, r1, lsr r3
    16c8:	110b42b8 			; <UNDEFINED> instruction: 0x110b42b8
    16cc:	58061201 	stmdapl	r6, {r0, r9, ip}
    16d0:	570b590b 	strpl	r5, [fp, -fp, lsl #18]
    16d4:	0013010b 	andseq	r0, r3, fp, lsl #2
    16d8:	00051a00 	andeq	r1, r5, r0, lsl #20
    16dc:	17021331 	smladxne	r2, r1, r3, r1
    16e0:	001742b7 			; <UNDEFINED> instruction: 0x001742b7
    16e4:	011d1b00 	tsteq	sp, r0, lsl #22
    16e8:	01521331 	cmpeq	r2, r1, lsr r3
    16ec:	550b42b8 	strpl	r4, [fp, #-696]	; 0xfffffd48
    16f0:	590b5817 	stmdbpl	fp, {r0, r1, r2, r4, fp, ip, lr}
    16f4:	010b570b 	tsteq	fp, fp, lsl #14
    16f8:	1c000013 	stcne	0, cr0, [r0], {19}
    16fc:	1755010b 	ldrbne	r0, [r5, -fp, lsl #2]
    1700:	341d0000 	ldrcc	r0, [sp], #-0
    1704:	3a0e0300 	bcc	38230c <__bss_end__+0x377434>
    1708:	390b3b0b 	stmdbcc	fp, {r0, r1, r3, r8, r9, fp, ip, sp}
    170c:	0213490b 	andseq	r4, r3, #180224	; 0x2c000
    1710:	1742b717 	smlaldne	fp, r2, r7, r7
    1714:	0b1e0000 	bleq	78171c <__bss_end__+0x776844>
    1718:	00175500 	andseq	r5, r7, r0, lsl #10
    171c:	002e1f00 	eoreq	r1, lr, r0, lsl #30
    1720:	0e03193f 			; <UNDEFINED> instruction: 0x0e03193f
    1724:	0b3b0b3a 	bleq	ec4414 <__bss_end__+0xeb953c>
    1728:	19270b39 	stmdbne	r7!, {r0, r3, r4, r5, r8, r9, fp}
    172c:	01111349 	tsteq	r1, r9, asr #6
    1730:	18400612 	stmdane	r0, {r1, r4, r9, sl}^
    1734:	00194297 	mulseq	r9, r7, r2
    1738:	012e2000 			; <UNDEFINED> instruction: 0x012e2000
    173c:	0b3a0e03 	bleq	e84f50 <__bss_end__+0xe7a078>
    1740:	0b390b3b 	bleq	e44434 <__bss_end__+0xe3955c>
    1744:	13491927 	movtne	r1, #39207	; 0x9927
    1748:	13010b20 	movwne	r0, #6944	; 0x1b20
    174c:	05210000 	streq	r0, [r1, #-0]!
    1750:	3a080300 	bcc	202358 <__bss_end__+0x1f7480>
    1754:	390b3b0b 	stmdbcc	fp, {r0, r1, r3, r8, r9, fp, ip, sp}
    1758:	0013490b 	andseq	r4, r3, fp, lsl #18
    175c:	002e2200 	eoreq	r2, lr, r0, lsl #4
    1760:	193c193f 	ldmdbne	ip!, {r0, r1, r2, r3, r4, r5, r8, fp, ip}
    1764:	0e030e6e 	cdpeq	14, 0, cr0, cr3, cr14, {3}
    1768:	0b3b0b3a 	bleq	ec4458 <__bss_end__+0xeb9580>
    176c:	00000b39 	andeq	r0, r0, r9, lsr fp
    1770:	01110100 	tsteq	r1, r0, lsl #2
    1774:	0b130e25 	bleq	4c5010 <__bss_end__+0x4ba138>
    1778:	0e1b0e03 	cdpeq	14, 1, cr0, cr11, cr3, {0}
    177c:	06120111 			; <UNDEFINED> instruction: 0x06120111
    1780:	00001710 	andeq	r1, r0, r0, lsl r7
    1784:	0b002402 	bleq	a794 <__FUNCTION__.4112+0x74>
    1788:	030b3e0b 	movweq	r3, #48651	; 0xbe0b
    178c:	0300000e 	movweq	r0, #14
    1790:	0b0b0024 	bleq	2c1828 <__bss_end__+0x2b6950>
    1794:	08030b3e 	stmdaeq	r3, {r1, r2, r3, r4, r5, r8, r9, fp}
    1798:	26040000 	strcs	r0, [r4], -r0
    179c:	00134900 	andseq	r4, r3, r0, lsl #18
    17a0:	00160500 	andseq	r0, r6, r0, lsl #10
    17a4:	0b3a0e03 	bleq	e84fb8 <__bss_end__+0xe7a0e0>
    17a8:	0b390b3b 	bleq	e4449c <__bss_end__+0xe395c4>
    17ac:	00001349 	andeq	r1, r0, r9, asr #6
    17b0:	27011506 	strcs	r1, [r1, -r6, lsl #10]
    17b4:	01134919 	tsteq	r3, r9, lsl r9
    17b8:	07000013 	smladeq	r0, r3, r0, r0
    17bc:	13490005 	movtne	r0, #36869	; 0x9005
    17c0:	34080000 	strcc	r0, [r8], #-0
    17c4:	3a0e0300 	bcc	3823cc <__bss_end__+0x3774f4>
    17c8:	390b3b0b 	stmdbcc	fp, {r0, r1, r3, r8, r9, fp, ip, sp}
    17cc:	3f13490b 	svccc	0x0013490b
    17d0:	00193c19 	andseq	r3, r9, r9, lsl ip
    17d4:	000f0900 	andeq	r0, pc, r0, lsl #18
    17d8:	13490b0b 	movtne	r0, #39691	; 0x9b0b
    17dc:	040a0000 	streq	r0, [sl], #-0
    17e0:	0b0b3e01 	bleq	2d0fec <__bss_end__+0x2c6114>
    17e4:	3a13490b 	bcc	4d3c18 <__bss_end__+0x4c8d40>
    17e8:	390b3b0b 	stmdbcc	fp, {r0, r1, r3, r8, r9, fp, ip, sp}
    17ec:	0013010b 	andseq	r0, r3, fp, lsl #2
    17f0:	00280b00 	eoreq	r0, r8, r0, lsl #22
    17f4:	0b1c0e03 	bleq	705008 <__bss_end__+0x6fa130>
    17f8:	340c0000 	strcc	r0, [ip], #-0
    17fc:	3a0e0300 	bcc	382404 <__bss_end__+0x37752c>
    1800:	390b3b0b 	stmdbcc	fp, {r0, r1, r3, r8, r9, fp, ip, sp}
    1804:	1c13490b 			; <UNDEFINED> instruction: 0x1c13490b
    1808:	0d000006 	stceq	0, cr0, [r0, #-24]	; 0xffffffe8
    180c:	193f012e 	ldmdbne	pc!, {r1, r2, r3, r5, r8}	; <UNPREDICTABLE>
    1810:	0b3a0e03 	bleq	e85024 <__bss_end__+0xe7a14c>
    1814:	0b390b3b 	bleq	e44508 <__bss_end__+0xe39630>
    1818:	13491927 	movtne	r1, #39207	; 0x9927
    181c:	06120111 			; <UNDEFINED> instruction: 0x06120111
    1820:	42971840 	addsmi	r1, r7, #64, 16	; 0x400000
    1824:	00130119 	andseq	r0, r3, r9, lsl r1
    1828:	00050e00 	andeq	r0, r5, r0, lsl #28
    182c:	0b3a0803 	bleq	e83840 <__bss_end__+0xe78968>
    1830:	0b390b3b 	bleq	e44524 <__bss_end__+0xe3964c>
    1834:	17021349 	strne	r1, [r2, -r9, asr #6]
    1838:	001742b7 			; <UNDEFINED> instruction: 0x001742b7
    183c:	00340f00 	eorseq	r0, r4, r0, lsl #30
    1840:	0b3a0e03 	bleq	e85054 <__bss_end__+0xe7a17c>
    1844:	0b390b3b 	bleq	e44538 <__bss_end__+0xe39660>
    1848:	17021349 	strne	r1, [r2, -r9, asr #6]
    184c:	001742b7 			; <UNDEFINED> instruction: 0x001742b7
    1850:	00341000 	eorseq	r1, r4, r0
    1854:	0b3a0803 	bleq	e83868 <__bss_end__+0xe78990>
    1858:	0b390b3b 	bleq	e4454c <__bss_end__+0xe39674>
    185c:	17021349 	strne	r1, [r2, -r9, asr #6]
    1860:	001742b7 			; <UNDEFINED> instruction: 0x001742b7
    1864:	82891100 	addhi	r1, r9, #0
    1868:	01110101 	tsteq	r1, r1, lsl #2
    186c:	00001331 	andeq	r1, r0, r1, lsr r3
    1870:	01828a12 	orreq	r8, r2, r2, lsl sl
    1874:	91180200 	tstls	r8, r0, lsl #4
    1878:	00001842 	andeq	r1, r0, r2, asr #16
    187c:	3f012e13 	svccc	0x00012e13
    1880:	3a0e0319 	bcc	3824ec <__bss_end__+0x377614>
    1884:	390b3b0b 	stmdbcc	fp, {r0, r1, r3, r8, r9, fp, ip, sp}
    1888:	1119270b 	tstne	r9, fp, lsl #14
    188c:	40061201 	andmi	r1, r6, r1, lsl #4
    1890:	19429718 	stmdbne	r2, {r3, r4, r8, r9, sl, ip, pc}^
    1894:	00001301 	andeq	r1, r0, r1, lsl #6
    1898:	31011d14 	tstcc	r1, r4, lsl sp
    189c:	b8015213 	stmdalt	r1, {r0, r1, r4, r9, ip, lr}
    18a0:	17550b42 	ldrbne	r0, [r5, -r2, asr #22]
    18a4:	0b590b58 	bleq	164460c <__bss_end__+0x1639734>
    18a8:	13010b57 	movwne	r0, #6999	; 0x1b57
    18ac:	05150000 	ldreq	r0, [r5, #-0]
    18b0:	02133100 	andseq	r3, r3, #0
    18b4:	1742b717 	smlaldne	fp, r2, r7, r7
    18b8:	89160000 	ldmdbhi	r6, {}	; <UNPREDICTABLE>
    18bc:	11010182 	smlabbne	r1, r2, r1, r0
    18c0:	19429501 	stmdbne	r2, {r0, r8, sl, ip, pc}^
    18c4:	00001331 	andeq	r1, r0, r1, lsr r3
    18c8:	31011d17 	tstcc	r1, r7, lsl sp
    18cc:	b8015213 	stmdalt	r1, {r0, r1, r4, r9, ip, lr}
    18d0:	01110b42 	tsteq	r1, r2, asr #22
    18d4:	0b580612 	bleq	1603124 <__bss_end__+0x15f824c>
    18d8:	0b570b59 	bleq	15c4644 <__bss_end__+0x15b976c>
    18dc:	1d180000 	ldcne	0, cr0, [r8, #-0]
    18e0:	52133101 	andspl	r3, r3, #1073741824	; 0x40000000
    18e4:	0b42b801 	bleq	10af8f0 <__bss_end__+0x10a4a18>
    18e8:	0b581755 	bleq	1607644 <__bss_end__+0x15fc76c>
    18ec:	0b570b59 	bleq	15c4658 <__bss_end__+0x15b9780>
    18f0:	05190000 	ldreq	r0, [r9, #-0]
    18f4:	1c133100 	ldfnes	f3, [r3], {-0}
    18f8:	1a00000b 	bne	192c <__code_start__-0x66d4>
    18fc:	1755010b 	ldrbne	r0, [r5, -fp, lsl #2]
    1900:	341b0000 	ldrcc	r0, [fp], #-0
    1904:	00133100 	andseq	r3, r3, r0, lsl #2
    1908:	00341c00 	eorseq	r1, r4, r0, lsl #24
    190c:	17021331 	smladxne	r2, r1, r3, r1
    1910:	001742b7 			; <UNDEFINED> instruction: 0x001742b7
    1914:	82891d00 	addhi	r1, r9, #0, 26
    1918:	01110101 	tsteq	r1, r1, lsl #2
    191c:	13011331 	movwne	r1, #4913	; 0x1331
    1920:	2e1e0000 	cdpcs	0, 1, cr0, cr14, cr0, {0}
    1924:	03193f01 	tsteq	r9, #1, 30
    1928:	3b0b3a0e 	blcc	2d0168 <__bss_end__+0x2c5290>
    192c:	270b390b 	strcs	r3, [fp, -fp, lsl #18]
    1930:	010b2019 	tsteq	fp, r9, lsl r0
    1934:	1f000013 	svcne	0x00000013
    1938:	08030005 	stmdaeq	r3, {r0, r2}
    193c:	0b3b0b3a 	bleq	ec462c <__bss_end__+0xeb9754>
    1940:	13490b39 	movtne	r0, #39737	; 0x9b39
    1944:	05200000 	streq	r0, [r0, #-0]!
    1948:	3a0e0300 	bcc	382550 <__bss_end__+0x377678>
    194c:	390b3b0b 	stmdbcc	fp, {r0, r1, r3, r8, r9, fp, ip, sp}
    1950:	0013490b 	andseq	r4, r3, fp, lsl #18
    1954:	00342100 	eorseq	r2, r4, r0, lsl #2
    1958:	0b3a0803 	bleq	e8396c <__bss_end__+0xe78a94>
    195c:	0b390b3b 	bleq	e44650 <__bss_end__+0xe39778>
    1960:	00001349 	andeq	r1, r0, r9, asr #6
    1964:	03012e22 	movweq	r2, #7714	; 0x1e22
    1968:	3b0b3a0e 	blcc	2d01a8 <__bss_end__+0x2c52d0>
    196c:	270b390b 	strcs	r3, [fp, -fp, lsl #18]
    1970:	20134919 	andscs	r4, r3, r9, lsl r9
    1974:	0013010b 	andseq	r0, r3, fp, lsl #2
    1978:	012e2300 			; <UNDEFINED> instruction: 0x012e2300
    197c:	01111331 	tsteq	r1, r1, lsr r3
    1980:	18400612 	stmdane	r0, {r1, r4, r9, sl}^
    1984:	01194297 			; <UNDEFINED> instruction: 0x01194297
    1988:	24000013 	strcs	r0, [r0], #-19	; 0xffffffed
    198c:	193f002e 	ldmdbne	pc!, {r1, r2, r3, r5}	; <UNPREDICTABLE>
    1990:	0e6e193c 			; <UNDEFINED> instruction: 0x0e6e193c
    1994:	0b3a0e03 	bleq	e851a8 <__bss_end__+0xe7a2d0>
    1998:	0b390b3b 	bleq	e4468c <__bss_end__+0xe397b4>
    199c:	01000000 	mrseq	r0, (UNDEF: 0)
    19a0:	0e250111 	mcreq	1, 1, r0, cr5, cr1, {0}
    19a4:	0e030b13 	vmoveq.32	d3[0], r0
    19a8:	01110e1b 	tsteq	r1, fp, lsl lr
    19ac:	17100612 			; <UNDEFINED> instruction: 0x17100612
    19b0:	24020000 	strcs	r0, [r2], #-0
    19b4:	3e0b0b00 	vmlacc.f64	d0, d11, d0
    19b8:	0008030b 	andeq	r0, r8, fp, lsl #6
    19bc:	00240300 	eoreq	r0, r4, r0, lsl #6
    19c0:	0b3e0b0b 	bleq	f845f4 <__bss_end__+0xf7971c>
    19c4:	00000e03 	andeq	r0, r0, r3, lsl #28
    19c8:	27011504 	strcs	r1, [r1, -r4, lsl #10]
    19cc:	01134919 	tsteq	r3, r9, lsl r9
    19d0:	05000013 	streq	r0, [r0, #-19]	; 0xffffffed
    19d4:	13490005 	movtne	r0, #36869	; 0x9005
    19d8:	34060000 	strcc	r0, [r6], #-0
    19dc:	3a0e0300 	bcc	3825e4 <__bss_end__+0x37770c>
    19e0:	390b3b0b 	stmdbcc	fp, {r0, r1, r3, r8, r9, fp, ip, sp}
    19e4:	3f13490b 	svccc	0x0013490b
    19e8:	00193c19 	andseq	r3, r9, r9, lsl ip
    19ec:	000f0700 	andeq	r0, pc, r0, lsl #14
    19f0:	13490b0b 	movtne	r0, #39691	; 0x9b0b
    19f4:	26080000 	strcs	r0, [r8], -r0
    19f8:	00134900 	andseq	r4, r3, r0, lsl #18
    19fc:	00340900 	eorseq	r0, r4, r0, lsl #18
    1a00:	0b3a1347 	bleq	e86724 <__bss_end__+0xe7b84c>
    1a04:	0b390b3b 	bleq	e446f8 <__bss_end__+0xe39820>
    1a08:	00001802 	andeq	r1, r0, r2, lsl #16
    1a0c:	3f012e0a 	svccc	0x00012e0a
    1a10:	3a0e0319 	bcc	38267c <__bss_end__+0x3777a4>
    1a14:	390b3b0b 	stmdbcc	fp, {r0, r1, r3, r8, r9, fp, ip, sp}
    1a18:	1119270b 	tstne	r9, fp, lsl #14
    1a1c:	40061201 	andmi	r1, r6, r1, lsl #4
    1a20:	19429718 	stmdbne	r2, {r3, r4, r8, r9, sl, ip, pc}^
    1a24:	00001301 	andeq	r1, r0, r1, lsl #6
    1a28:	0300050b 	movweq	r0, #1291	; 0x50b
    1a2c:	3b0b3a08 	blcc	2d0254 <__bss_end__+0x2c537c>
    1a30:	490b390b 	stmdbmi	fp, {r0, r1, r3, r8, fp, ip, sp}
    1a34:	00180213 	andseq	r0, r8, r3, lsl r2
    1a38:	002e0c00 	eoreq	r0, lr, r0, lsl #24
    1a3c:	0e03193f 			; <UNDEFINED> instruction: 0x0e03193f
    1a40:	0b3b0b3a 	bleq	ec4730 <__bss_end__+0xeb9858>
    1a44:	19270b39 	stmdbne	r7!, {r0, r3, r4, r5, r8, r9, fp}
    1a48:	06120111 			; <UNDEFINED> instruction: 0x06120111
    1a4c:	42971840 	addsmi	r1, r7, #64, 16	; 0x400000
    1a50:	0d000019 	stceq	0, cr0, [r0, #-100]	; 0xffffff9c
    1a54:	0e03012e 	adfeqsp	f0, f3, #0.5
    1a58:	0b3b0b3a 	bleq	ec4748 <__bss_end__+0xeb9870>
    1a5c:	19270b39 	stmdbne	r7!, {r0, r3, r4, r5, r8, r9, fp}
    1a60:	01111349 	tsteq	r1, r9, asr #6
    1a64:	18400612 	stmdane	r0, {r1, r4, r9, sl}^
    1a68:	01194297 			; <UNDEFINED> instruction: 0x01194297
    1a6c:	0e000013 	mcreq	0, 0, r0, cr0, cr3, {0}
    1a70:	08030005 	stmdaeq	r3, {r0, r2}
    1a74:	0b3b0b3a 	bleq	ec4764 <__bss_end__+0xeb988c>
    1a78:	13490b39 	movtne	r0, #39737	; 0x9b39
    1a7c:	42b71702 	adcsmi	r1, r7, #524288	; 0x80000
    1a80:	0f000017 	svceq	0x00000017
    1a84:	01018289 	smlabbeq	r1, r9, r2, r8
    1a88:	13310111 	teqne	r1, #1073741828	; 0x40000004
    1a8c:	8a100000 	bhi	401a94 <__bss_end__+0x3f6bbc>
    1a90:	02000182 	andeq	r0, r0, #-2147483616	; 0x80000020
    1a94:	18429118 	stmdane	r2, {r3, r4, r8, ip, pc}^
    1a98:	2e110000 	cdpcs	0, 1, cr0, cr1, cr0, {0}
    1a9c:	3c193f00 	ldccc	15, cr3, [r9], {-0}
    1aa0:	030e6e19 	movweq	r6, #60953	; 0xee19
    1aa4:	3b0b3a0e 	blcc	2d02e4 <__bss_end__+0x2c540c>
    1aa8:	000b390b 	andeq	r3, fp, fp, lsl #18
    1aac:	11010000 	mrsne	r0, (UNDEF: 1)
    1ab0:	130e2501 	movwne	r2, #58625	; 0xe501
    1ab4:	1b0e030b 	blne	3826e8 <__bss_end__+0x377810>
    1ab8:	1201110e 	andne	r1, r1, #-2147483645	; 0x80000003
    1abc:	00171006 	andseq	r1, r7, r6
    1ac0:	00240200 	eoreq	r0, r4, r0, lsl #4
    1ac4:	0b3e0b0b 	bleq	f846f8 <__bss_end__+0xf79820>
    1ac8:	00000803 	andeq	r0, r0, r3, lsl #16
    1acc:	0b002403 	bleq	aae0 <buf.3944+0xc>
    1ad0:	030b3e0b 	movweq	r3, #48651	; 0xbe0b
    1ad4:	0400000e 	streq	r0, [r0], #-14
    1ad8:	19270115 	stmdbne	r7!, {r0, r2, r4, r8}
    1adc:	13011349 	movwne	r1, #4937	; 0x1349
    1ae0:	05050000 	streq	r0, [r5, #-0]
    1ae4:	00134900 	andseq	r4, r3, r0, lsl #18
    1ae8:	00340600 	eorseq	r0, r4, r0, lsl #12
    1aec:	0b3a0e03 	bleq	e85300 <__bss_end__+0xe7a428>
    1af0:	0b390b3b 	bleq	e447e4 <__bss_end__+0xe3990c>
    1af4:	193f1349 	ldmdbne	pc!, {r0, r3, r6, r8, r9, ip}	; <UNPREDICTABLE>
    1af8:	0000193c 	andeq	r1, r0, ip, lsr r9
    1afc:	0b000f07 	bleq	5720 <__code_start__-0x28e0>
    1b00:	0013490b 	andseq	r4, r3, fp, lsl #18
    1b04:	00260800 	eoreq	r0, r6, r0, lsl #16
    1b08:	00001349 	andeq	r1, r0, r9, asr #6
    1b0c:	3f012e09 	svccc	0x00012e09
    1b10:	3a0e0319 	bcc	38277c <__bss_end__+0x3778a4>
    1b14:	390b3b0b 	stmdbcc	fp, {r0, r1, r3, r8, r9, fp, ip, sp}
    1b18:	4919270b 	ldmdbmi	r9, {r0, r1, r3, r8, r9, sl, sp}
    1b1c:	12011113 	andne	r1, r1, #-1073741820	; 0xc0000004
    1b20:	97184006 	ldrls	r4, [r8, -r6]
    1b24:	13011942 	movwne	r1, #6466	; 0x1942
    1b28:	050a0000 	streq	r0, [sl, #-0]
    1b2c:	3a0e0300 	bcc	382734 <__bss_end__+0x37785c>
    1b30:	390b3b0b 	stmdbcc	fp, {r0, r1, r3, r8, r9, fp, ip, sp}
    1b34:	0213490b 	andseq	r4, r3, #180224	; 0x2c000
    1b38:	0b000018 	bleq	1ba0 <__code_start__-0x6460>
    1b3c:	08030005 	stmdaeq	r3, {r0, r2}
    1b40:	0b3b0b3a 	bleq	ec4830 <__bss_end__+0xeb9958>
    1b44:	13490b39 	movtne	r0, #39737	; 0x9b39
    1b48:	42b71702 	adcsmi	r1, r7, #524288	; 0x80000
    1b4c:	0c000017 	stceq	0, cr0, [r0], {23}
    1b50:	08030034 	stmdaeq	r3, {r2, r4, r5}
    1b54:	0b3b0b3a 	bleq	ec4844 <__bss_end__+0xeb996c>
    1b58:	13490b39 	movtne	r0, #39737	; 0x9b39
    1b5c:	42b71702 	adcsmi	r1, r7, #524288	; 0x80000
    1b60:	00000017 	andeq	r0, r0, r7, lsl r0
    1b64:	25011101 	strcs	r1, [r1, #-257]	; 0xfffffeff
    1b68:	030b130e 	movweq	r1, #45838	; 0xb30e
    1b6c:	110e1b0e 	tstne	lr, lr, lsl #22
    1b70:	10061201 	andne	r1, r6, r1, lsl #4
    1b74:	02000017 	andeq	r0, r0, #23, 0
    1b78:	0b0b0024 	bleq	2c1c10 <__bss_end__+0x2b6d38>
    1b7c:	08030b3e 	stmdaeq	r3, {r1, r2, r3, r4, r5, r8, r9, fp}
    1b80:	24030000 	strcs	r0, [r3], #-0
    1b84:	3e0b0b00 	vmlacc.f64	d0, d11, d0
    1b88:	000e030b 	andeq	r0, lr, fp, lsl #6
    1b8c:	01150400 	tsteq	r5, r0, lsl #8
    1b90:	13491927 	movtne	r1, #39207	; 0x9927
    1b94:	00001301 	andeq	r1, r0, r1, lsl #6
    1b98:	49000505 	stmdbmi	r0, {r0, r2, r8, sl}
    1b9c:	06000013 			; <UNDEFINED> instruction: 0x06000013
    1ba0:	0e030034 	mcreq	0, 0, r0, cr3, cr4, {1}
    1ba4:	0b3b0b3a 	bleq	ec4894 <__bss_end__+0xeb99bc>
    1ba8:	13490b39 	movtne	r0, #39737	; 0x9b39
    1bac:	193c193f 	ldmdbne	ip!, {r0, r1, r2, r3, r4, r5, r8, fp, ip}
    1bb0:	0f070000 	svceq	0x00070000
    1bb4:	490b0b00 	stmdbmi	fp, {r8, r9, fp}
    1bb8:	08000013 	stmdaeq	r0, {r0, r1, r4}
    1bbc:	13490026 	movtne	r0, #36902	; 0x9026
    1bc0:	2e090000 	cdpcs	0, 0, cr0, cr9, cr0, {0}
    1bc4:	03193f01 	tsteq	r9, #1, 30
    1bc8:	3b0b3a0e 	blcc	2d0408 <__bss_end__+0x2c5530>
    1bcc:	270b390b 	strcs	r3, [fp, -fp, lsl #18]
    1bd0:	11134919 	tstne	r3, r9, lsl r9
    1bd4:	40061201 	andmi	r1, r6, r1, lsl #4
    1bd8:	19429718 	stmdbne	r2, {r3, r4, r8, r9, sl, ip, pc}^
    1bdc:	050a0000 	streq	r0, [sl, #-0]
    1be0:	3a080300 	bcc	2027e8 <__bss_end__+0x1f7910>
    1be4:	390b3b0b 	stmdbcc	fp, {r0, r1, r3, r8, r9, fp, ip, sp}
    1be8:	0213490b 	andseq	r4, r3, #180224	; 0x2c000
    1bec:	1742b717 	smlaldne	fp, r2, r7, r7
    1bf0:	01000000 	mrseq	r0, (UNDEF: 0)
    1bf4:	0e250111 	mcreq	1, 1, r0, cr5, cr1, {0}
    1bf8:	0e030b13 	vmoveq.32	d3[0], r0
    1bfc:	01110e1b 	tsteq	r1, fp, lsl lr
    1c00:	17100612 			; <UNDEFINED> instruction: 0x17100612
    1c04:	24020000 	strcs	r0, [r2], #-0
    1c08:	3e0b0b00 	vmlacc.f64	d0, d11, d0
    1c0c:	0008030b 	andeq	r0, r8, fp, lsl #6
    1c10:	00240300 	eoreq	r0, r4, r0, lsl #6
    1c14:	0b3e0b0b 	bleq	f84848 <__bss_end__+0xf79970>
    1c18:	00000e03 	andeq	r0, r0, r3, lsl #28
    1c1c:	27011504 	strcs	r1, [r1, -r4, lsl #10]
    1c20:	01134919 	tsteq	r3, r9, lsl r9
    1c24:	05000013 	streq	r0, [r0, #-19]	; 0xffffffed
    1c28:	13490005 	movtne	r0, #36869	; 0x9005
    1c2c:	34060000 	strcc	r0, [r6], #-0
    1c30:	3a0e0300 	bcc	382838 <__bss_end__+0x377960>
    1c34:	390b3b0b 	stmdbcc	fp, {r0, r1, r3, r8, r9, fp, ip, sp}
    1c38:	3f13490b 	svccc	0x0013490b
    1c3c:	00193c19 	andseq	r3, r9, r9, lsl ip
    1c40:	000f0700 	andeq	r0, pc, r0, lsl #14
    1c44:	13490b0b 	movtne	r0, #39691	; 0x9b0b
    1c48:	26080000 	strcs	r0, [r8], -r0
    1c4c:	00134900 	andseq	r4, r3, r0, lsl #18
    1c50:	012e0900 			; <UNDEFINED> instruction: 0x012e0900
    1c54:	0e03193f 			; <UNDEFINED> instruction: 0x0e03193f
    1c58:	0b3b0b3a 	bleq	ec4948 <__bss_end__+0xeb9a70>
    1c5c:	19270b39 	stmdbne	r7!, {r0, r3, r4, r5, r8, r9, fp}
    1c60:	01111349 	tsteq	r1, r9, asr #6
    1c64:	18400612 	stmdane	r0, {r1, r4, r9, sl}^
    1c68:	01194297 			; <UNDEFINED> instruction: 0x01194297
    1c6c:	0a000013 	beq	1cc0 <__code_start__-0x6340>
    1c70:	08030005 	stmdaeq	r3, {r0, r2}
    1c74:	0b3b0b3a 	bleq	ec4964 <__bss_end__+0xeb9a8c>
    1c78:	13490b39 	movtne	r0, #39737	; 0x9b39
    1c7c:	00001802 	andeq	r1, r0, r2, lsl #16
    1c80:	0300050b 	movweq	r0, #1291	; 0x50b
    1c84:	3b0b3a08 	blcc	2d04ac <__bss_end__+0x2c55d4>
    1c88:	490b390b 	stmdbmi	fp, {r0, r1, r3, r8, fp, ip, sp}
    1c8c:	b7170213 			; <UNDEFINED> instruction: 0xb7170213
    1c90:	00001742 	andeq	r1, r0, r2, asr #14
    1c94:	0300340c 	movweq	r3, #1036	; 0x40c
    1c98:	3b0b3a08 	blcc	2d04c0 <__bss_end__+0x2c55e8>
    1c9c:	490b390b 	stmdbmi	fp, {r0, r1, r3, r8, fp, ip, sp}
    1ca0:	b7170213 			; <UNDEFINED> instruction: 0xb7170213
    1ca4:	00001742 	andeq	r1, r0, r2, asr #14
    1ca8:	01110100 	tsteq	r1, r0, lsl #2
    1cac:	0b130e25 	bleq	4c5548 <__bss_end__+0x4ba670>
    1cb0:	0e1b0e03 	cdpeq	14, 1, cr0, cr11, cr3, {0}
    1cb4:	06120111 			; <UNDEFINED> instruction: 0x06120111
    1cb8:	00001710 	andeq	r1, r0, r0, lsl r7
    1cbc:	0b002402 	bleq	accc <buf.3944+0x1f8>
    1cc0:	030b3e0b 	movweq	r3, #48651	; 0xbe0b
    1cc4:	03000008 	movweq	r0, #8
    1cc8:	0e030016 	mcreq	0, 0, r0, cr3, cr6, {0}
    1ccc:	0b3b0b3a 	bleq	ec49bc <__bss_end__+0xeb9ae4>
    1cd0:	13490b39 	movtne	r0, #39737	; 0x9b39
    1cd4:	24040000 	strcs	r0, [r4], #-0
    1cd8:	3e0b0b00 	vmlacc.f64	d0, d11, d0
    1cdc:	000e030b 	andeq	r0, lr, fp, lsl #6
    1ce0:	00260500 	eoreq	r0, r6, r0, lsl #10
    1ce4:	00001349 	andeq	r1, r0, r9, asr #6
    1ce8:	27011506 	strcs	r1, [r1, -r6, lsl #10]
    1cec:	01134919 	tsteq	r3, r9, lsl r9
    1cf0:	07000013 	smladeq	r0, r3, r0, r0
    1cf4:	13490005 	movtne	r0, #36869	; 0x9005
    1cf8:	34080000 	strcc	r0, [r8], #-0
    1cfc:	3a0e0300 	bcc	382904 <__bss_end__+0x377a2c>
    1d00:	390b3b0b 	stmdbcc	fp, {r0, r1, r3, r8, r9, fp, ip, sp}
    1d04:	3f13490b 	svccc	0x0013490b
    1d08:	00193c19 	andseq	r3, r9, r9, lsl ip
    1d0c:	000f0900 	andeq	r0, pc, r0, lsl #18
    1d10:	13490b0b 	movtne	r0, #39691	; 0x9b0b
    1d14:	2e0a0000 	cdpcs	0, 0, cr0, cr10, cr0, {0}
    1d18:	03193f01 	tsteq	r9, #1, 30
    1d1c:	3b0b3a0e 	blcc	2d055c <__bss_end__+0x2c5684>
    1d20:	270b390b 	strcs	r3, [fp, -fp, lsl #18]
    1d24:	11134919 	tstne	r3, r9, lsl r9
    1d28:	40061201 	andmi	r1, r6, r1, lsl #4
    1d2c:	19429718 	stmdbne	r2, {r3, r4, r8, r9, sl, ip, pc}^
    1d30:	00001301 	andeq	r1, r0, r1, lsl #6
    1d34:	0300050b 	movweq	r0, #1291	; 0x50b
    1d38:	3b0b3a08 	blcc	2d0560 <__bss_end__+0x2c5688>
    1d3c:	490b390b 	stmdbmi	fp, {r0, r1, r3, r8, fp, ip, sp}
    1d40:	b7170213 			; <UNDEFINED> instruction: 0xb7170213
    1d44:	00001742 	andeq	r1, r0, r2, asr #14
    1d48:	0300340c 	movweq	r3, #1036	; 0x40c
    1d4c:	3b0b3a08 	blcc	2d0574 <__bss_end__+0x2c569c>
    1d50:	490b390b 	stmdbmi	fp, {r0, r1, r3, r8, fp, ip, sp}
    1d54:	b7170213 			; <UNDEFINED> instruction: 0xb7170213
    1d58:	00001742 	andeq	r1, r0, r2, asr #14
    1d5c:	01110100 	tsteq	r1, r0, lsl #2
    1d60:	0b130e25 	bleq	4c55fc <__bss_end__+0x4ba724>
    1d64:	0e1b0e03 	cdpeq	14, 1, cr0, cr11, cr3, {0}
    1d68:	06120111 			; <UNDEFINED> instruction: 0x06120111
    1d6c:	00001710 	andeq	r1, r0, r0, lsl r7
    1d70:	0b002402 	bleq	ad80 <buf.3944+0x2ac>
    1d74:	030b3e0b 	movweq	r3, #48651	; 0xbe0b
    1d78:	03000008 	movweq	r0, #8
    1d7c:	0b0b0024 	bleq	2c1e14 <__bss_end__+0x2b6f3c>
    1d80:	0e030b3e 	vmoveq.16	d3[0], r0
    1d84:	15040000 	strne	r0, [r4, #-0]
    1d88:	49192701 	ldmdbmi	r9, {r0, r8, r9, sl, sp}
    1d8c:	00130113 	andseq	r0, r3, r3, lsl r1
    1d90:	00050500 	andeq	r0, r5, r0, lsl #10
    1d94:	00001349 	andeq	r1, r0, r9, asr #6
    1d98:	03003406 	movweq	r3, #1030	; 0x406
    1d9c:	3b0b3a0e 	blcc	2d05dc <__bss_end__+0x2c5704>
    1da0:	490b390b 	stmdbmi	fp, {r0, r1, r3, r8, fp, ip, sp}
    1da4:	3c193f13 	ldccc	15, cr3, [r9], {19}
    1da8:	07000019 	smladeq	r0, r9, r0, r0
    1dac:	0b0b000f 	bleq	2c1df0 <__bss_end__+0x2b6f18>
    1db0:	00001349 	andeq	r1, r0, r9, asr #6
    1db4:	49002608 	stmdbmi	r0, {r3, r9, sl, sp}
    1db8:	09000013 	stmdbeq	r0, {r0, r1, r4}
    1dbc:	193f002e 	ldmdbne	pc!, {r1, r2, r3, r5}	; <UNPREDICTABLE>
    1dc0:	0b3a0e03 	bleq	e855d4 <__bss_end__+0xe7a6fc>
    1dc4:	0b390b3b 	bleq	e44ab8 <__bss_end__+0xe39be0>
    1dc8:	01111927 	tsteq	r1, r7, lsr #18
    1dcc:	18400612 	stmdane	r0, {r1, r4, r9, sl}^
    1dd0:	00194297 	mulseq	r9, r7, r2
	...

Disassembly of section .debug_loc:

00000000 <.debug_loc>:
       0:	00000000 	andeq	r0, r0, r0
       4:	00800000 	addeq	r0, r0, r0
       8:	00880000 	addeq	r0, r8, r0
       c:	00010000 	andeq	r0, r1, r0
      10:	00008850 	andeq	r8, r0, r0, asr r8
      14:	00008b00 	andeq	r8, r0, r0, lsl #22
      18:	51000100 	mrspl	r0, (UNDEF: 16)
      1c:	0000008b 	andeq	r0, r0, fp, lsl #1
      20:	0000010c 	andeq	r0, r0, ip, lsl #2
      24:	00540001 	subseq	r0, r4, r1
	...
      34:	00003c00 	andeq	r3, r0, r0, lsl #24
      38:	00003f00 	andeq	r3, r0, r0, lsl #30
      3c:	50000100 	andpl	r0, r0, r0, lsl #2
      40:	0000003f 	andeq	r0, r0, pc, lsr r0
      44:	0000005c 	andeq	r0, r0, ip, asr r0
      48:	5c540001 	mrrcpl	0, 0, r0, r4, cr1
      4c:	68000000 	stmdavs	r0, {}	; <UNPREDICTABLE>
      50:	03000000 	movweq	r0, #0
      54:	9f7f7000 	svcls	0x007f7000
	...
      60:	00100001 	andseq	r0, r0, r1
      64:	00280000 	eoreq	r0, r8, r0
      68:	00020000 	andeq	r0, r2, r0
      6c:	00009f3c 	andeq	r9, r0, ip, lsr pc
      70:	00000000 	andeq	r0, r0, r0
      74:	00010000 	andeq	r0, r1, r0
      78:	00000010 	andeq	r0, r0, r0, lsl r0
      7c:	00000028 	andeq	r0, r0, r8, lsr #32
      80:	87f20006 	ldrbhi	r0, [r2, r6]!
      84:	00000004 	andeq	r0, r0, r4
	...
      90:	00100001 	andseq	r0, r0, r1
      94:	00280000 	eoreq	r0, r8, r0
      98:	00060000 	andeq	r0, r6, r0
      9c:	00a19003 	adceq	r9, r1, r3
      a0:	00009f00 	andeq	r9, r0, r0, lsl #30
	...
      b0:	00040000 	andeq	r0, r4, r0
      b4:	00010000 	andeq	r0, r1, r0
      b8:	00000450 	andeq	r0, r0, r0, asr r4
      bc:	00000800 	andeq	r0, r0, r0, lsl #16
      c0:	f3000400 	vshl.u8	d0, d0, d0
      c4:	009f5001 	addseq	r5, pc, r1
      c8:	00000000 	andeq	r0, r0, r0
      cc:	02000000 	andeq	r0, r0, #0, 0
      d0:	00000000 	andeq	r0, r0, r0
      d4:	04000000 	streq	r0, [r0], #-0
      d8:	01000000 	mrseq	r0, (UNDEF: 0)
      dc:	00045000 	andeq	r5, r4, r0
      e0:	00080000 	andeq	r0, r8, r0
      e4:	00040000 	andeq	r0, r4, r0
      e8:	9f5001f3 	svcls	0x005001f3
	...
      f8:	02580000 	subseq	r0, r8, #0, 0
      fc:	02700000 	rsbseq	r0, r0, #0, 0
     100:	00010000 	andeq	r0, r1, r0
     104:	00027050 	andeq	r7, r2, r0, asr r0
     108:	0002e000 	andeq	lr, r2, r0
     10c:	56000100 	strpl	r0, [r0], -r0, lsl #2
     110:	000002e0 	andeq	r0, r0, r0, ror #5
     114:	000002ec 	andeq	r0, r0, ip, ror #5
     118:	01f30004 	mvnseq	r0, r4
     11c:	00009f50 	andeq	r9, r0, r0, asr pc
	...
     12c:	00000278 	andeq	r0, r0, r8, ror r2
     130:	00000283 	andeq	r0, r0, r3, lsl #5
     134:	83500001 	cmphi	r0, #1, 0
     138:	e0000002 	and	r0, r0, r2
     13c:	01000002 	tsteq	r0, r2
     140:	02e05400 	rsceq	r5, r0, #0, 8
     144:	02ec0000 	rsceq	r0, ip, #0, 0
     148:	00050000 	andeq	r0, r5, r0
     14c:	00aab003 	adceq	fp, sl, r3
	...
     15c:	00016c00 	andeq	r6, r1, r0, lsl #24
     160:	00017c00 	andeq	r7, r1, r0, lsl #24
     164:	50000100 	andpl	r0, r0, r0, lsl #2
     168:	0000017c 	andeq	r0, r0, ip, ror r1
     16c:	00000258 	andeq	r0, r0, r8, asr r2
     170:	00540001 	subseq	r0, r4, r1
     174:	00000000 	andeq	r0, r0, r0
     178:	01000000 	mrseq	r0, (UNDEF: 0)
     17c:	00000202 	andeq	r0, r0, r2, lsl #4
     180:	00000000 	andeq	r0, r0, r0
     184:	00018000 	andeq	r8, r1, r0
     188:	00018000 	andeq	r8, r1, r0
     18c:	54000100 	strpl	r0, [r0], #-256	; 0xffffff00
     190:	00000180 	andeq	r0, r0, r0, lsl #3
     194:	000001bc 			; <UNDEFINED> instruction: 0x000001bc
     198:	d8740004 	ldmdale	r4!, {r2}^
     19c:	01bc9f7e 			; <UNDEFINED> instruction: 0x01bc9f7e
     1a0:	01f00000 	mvnseq	r0, r0
     1a4:	00010000 	andeq	r0, r1, r0
     1a8:	0001f055 	andeq	pc, r1, r5, asr r0	; <UNPREDICTABLE>
     1ac:	00021400 	andeq	r1, r2, r0, lsl #8
     1b0:	74000400 	strvc	r0, [r0], #-1024	; 0xfffffc00
     1b4:	149f7ed8 	ldrne	r7, [pc], #3800	; 1bc <__code_start__-0x7e44>
     1b8:	58000002 	stmdapl	r0, {r1}
     1bc:	01000002 	tsteq	r0, r2
     1c0:	00005500 	andeq	r5, r0, r0, lsl #10
	...
     1d8:	00000020 	andeq	r0, r0, r0, lsr #32
     1dc:	00000038 	andeq	r0, r0, r8, lsr r0
     1e0:	38500001 	ldmdacc	r0, {r0}^
     1e4:	40000000 	andmi	r0, r0, r0
     1e8:	01000000 	mrseq	r0, (UNDEF: 0)
     1ec:	00405300 	subeq	r5, r0, r0, lsl #6
     1f0:	00680000 	rsbeq	r0, r8, r0
     1f4:	00040000 	andeq	r0, r4, r0
     1f8:	9f5001f3 	svcls	0x005001f3
     1fc:	00000068 	andeq	r0, r0, r8, rrx
     200:	00000080 	andeq	r0, r0, r0, lsl #1
     204:	80500001 	subshi	r0, r0, r1
     208:	88000000 	stmdahi	r0, {}	; <UNPREDICTABLE>
     20c:	04000000 	streq	r0, [r0], #-0
     210:	5001f300 	andpl	pc, r1, r0, lsl #6
     214:	0000889f 	muleq	r0, pc, r8	; <UNPREDICTABLE>
     218:	00009400 	andeq	r9, r0, r0, lsl #8
     21c:	53000100 	movwpl	r0, #256	; 0x100
     220:	00000094 	muleq	r0, r4, r0
     224:	000000c4 	andeq	r0, r0, r4, asr #1
     228:	01f30004 	mvnseq	r0, r4
     22c:	00009f50 	andeq	r9, r0, r0, asr pc
	...
     240:	00200000 	eoreq	r0, r0, r0
     244:	00400000 	subeq	r0, r0, r0
     248:	00010000 	andeq	r0, r1, r0
     24c:	00004051 	andeq	r4, r0, r1, asr r0
     250:	00006800 	andeq	r6, r0, r0, lsl #16
     254:	54000100 	strpl	r0, [r0], #-256	; 0xffffff00
     258:	00000068 	andeq	r0, r0, r8, rrx
     25c:	0000007c 	andeq	r0, r0, ip, ror r0
     260:	7c510001 	mrrcvc	0, 0, r0, r1, cr1
     264:	88000000 	stmdahi	r0, {}	; <UNPREDICTABLE>
     268:	04000000 	streq	r0, [r0], #-0
     26c:	5101f300 	mrspl	pc, SP_irq	; <UNPREDICTABLE>
     270:	0000889f 	muleq	r0, pc, r8	; <UNPREDICTABLE>
     274:	00009400 	andeq	r9, r0, r0, lsl #8
     278:	51000100 	mrspl	r0, (UNDEF: 16)
     27c:	00000094 	muleq	r0, r4, r0
     280:	000000c4 	andeq	r0, r0, r4, asr #1
     284:	00540001 	subseq	r0, r4, r1
	...
     290:	00010000 	andeq	r0, r1, r0
     294:	38000000 	stmdacc	r0, {}	; <UNPREDICTABLE>
     298:	47000000 	strmi	r0, [r0, -r0]
     29c:	01000000 	mrseq	r0, (UNDEF: 0)
     2a0:	00475000 	subeq	r5, r7, r0
     2a4:	00600000 	rsbeq	r0, r0, r0
     2a8:	00010000 	andeq	r0, r1, r0
     2ac:	00008855 	andeq	r8, r0, r5, asr r8
     2b0:	00009400 	andeq	r9, r0, r0, lsl #8
     2b4:	50000100 	andpl	r0, r0, r0, lsl #2
     2b8:	00000094 	muleq	r0, r4, r0
     2bc:	000000c4 	andeq	r0, r0, r4, asr #1
     2c0:	00550001 	subseq	r0, r5, r1
	...
     2cc:	48000001 	stmdami	r0, {r0}
     2d0:	60000000 	andvs	r0, r0, r0
     2d4:	01000000 	mrseq	r0, (UNDEF: 0)
     2d8:	00945000 	addseq	r5, r4, r0
     2dc:	00a80000 	adceq	r0, r8, r0
     2e0:	00010000 	andeq	r0, r1, r0
     2e4:	00000050 	andeq	r0, r0, r0, asr r0
	...
     2f0:	00011400 	andeq	r1, r1, r0, lsl #8
     2f4:	00011f00 	andeq	r1, r1, r0, lsl #30
     2f8:	50000100 	andpl	r0, r0, r0, lsl #2
     2fc:	0000011f 	andeq	r0, r0, pc, lsl r1
     300:	0000016c 	andeq	r0, r0, ip, ror #2
     304:	00550001 	subseq	r0, r5, r1
	...
     314:	24000000 	strcs	r0, [r0], #-0
     318:	37000001 	strcc	r0, [r0, -r1]
     31c:	01000001 	tsteq	r0, r1
     320:	01375000 	teqeq	r7, r0
     324:	014c0000 	mrseq	r0, (UNDEF: 76)
     328:	00010000 	andeq	r0, r1, r0
     32c:	00014c54 	andeq	r4, r1, r4, asr ip
     330:	00015000 	andeq	r5, r1, r0
     334:	50000100 	andpl	r0, r0, r0, lsl #2
     338:	00000150 	andeq	r0, r0, r0, asr r1
     33c:	0000016c 	andeq	r0, r0, ip, ror #2
     340:	00540001 	subseq	r0, r4, r1
	...
     34c:	e4000000 	str	r0, [r0], #-0
     350:	f3000000 	vhadd.u8	d0, d0, d0
     354:	01000000 	mrseq	r0, (UNDEF: 0)
     358:	00f35000 	rscseq	r5, r3, r0
     35c:	01140000 	tsteq	r4, r0
     360:	00010000 	andeq	r0, r1, r0
     364:	00000056 	andeq	r0, r0, r6, asr r0
	...
     370:	0000e400 	andeq	lr, r0, r0, lsl #8
     374:	0000f300 	andeq	pc, r0, r0, lsl #6
     378:	51000100 	mrspl	r0, (UNDEF: 16)
     37c:	000000f3 	strdeq	r0, [r0], -r3
     380:	00000114 	andeq	r0, r0, r4, lsl r1
     384:	00540001 	subseq	r0, r4, r1
	...
     390:	f8000000 			; <UNDEFINED> instruction: 0xf8000000
     394:	fc000000 	stc2	0, cr0, [r0], {-0}
     398:	01000000 	mrseq	r0, (UNDEF: 0)
     39c:	00fc5000 	rscseq	r5, ip, r0
     3a0:	01140000 	tsteq	r4, r0
     3a4:	00010000 	andeq	r0, r1, r0
     3a8:	00000055 	andeq	r0, r0, r5, asr r0
	...
     3b4:	0c000001 	stceq	0, cr0, [r0], {1}
     3b8:	01000001 	tsteq	r0, r1
     3bc:	00005000 	andeq	r5, r0, r0
	...
     3c8:	00cc0000 	sbceq	r0, ip, r0
     3cc:	00d70000 	sbcseq	r0, r7, r0
     3d0:	00010000 	andeq	r0, r1, r0
     3d4:	0000d750 	andeq	sp, r0, r0, asr r7
     3d8:	0000e400 	andeq	lr, r0, r0, lsl #8
     3dc:	54000100 	strpl	r0, [r0], #-256	; 0xffffff00
	...
     3e8:	00d80000 	sbcseq	r0, r8, r0
     3ec:	00dc0000 	sbcseq	r0, ip, r0
     3f0:	00010000 	andeq	r0, r1, r0
     3f4:	00000054 	andeq	r0, r0, r4, asr r0
	...
     400:	0000c400 	andeq	ip, r0, r0, lsl #8
     404:	0000c800 	andeq	ip, r0, r0, lsl #16
     408:	50000100 	andpl	r0, r0, r0, lsl #2
     40c:	000000c8 	andeq	r0, r0, r8, asr #1
     410:	000000cc 	andeq	r0, r0, ip, asr #1
     414:	d8700004 	ldmdale	r0!, {r2}^
     418:	00009f7e 	andeq	r9, r0, lr, ror pc
	...
     424:	00100000 	andseq	r0, r0, r0
     428:	001c0000 	andseq	r0, ip, r0
     42c:	00010000 	andeq	r0, r1, r0
     430:	00001c50 	andeq	r1, r0, r0, asr ip
     434:	00002000 	andeq	r2, r0, r0
     438:	f3000400 	vshl.u8	d0, d0, d0
     43c:	009f5001 	addseq	r5, pc, r1
	...
     44c:	08000000 	stmdaeq	r0, {}	; <UNPREDICTABLE>
     450:	78000000 	stmdavc	r0, {}	; <UNPREDICTABLE>
     454:	01000000 	mrseq	r0, (UNDEF: 0)
     458:	00785100 	rsbseq	r5, r8, r0, lsl #2
     45c:	00840000 	addeq	r0, r4, r0
     460:	00030000 	andeq	r0, r3, r0
     464:	849f7870 	ldrhi	r7, [pc], #2160	; 46c <__code_start__-0x7b94>
     468:	a4000000 	strge	r0, [r0], #-0
     46c:	01000000 	mrseq	r0, (UNDEF: 0)
     470:	00a45100 	adceq	r5, r4, r0, lsl #2
     474:	00bc0000 	adcseq	r0, ip, r0
     478:	00030000 	andeq	r0, r3, r0
     47c:	009f7870 	addseq	r7, pc, r0, ror r8	; <UNPREDICTABLE>
	...
     488:	10000000 	andne	r0, r0, r0
     48c:	48000000 	stmdami	r0, {}	; <UNPREDICTABLE>
     490:	01000000 	mrseq	r0, (UNDEF: 0)
     494:	004c5300 	subeq	r5, ip, r0, lsl #6
     498:	00bc0000 	adcseq	r0, ip, r0
     49c:	00010000 	andeq	r0, r1, r0
     4a0:	00000053 	andeq	r0, r0, r3, asr r0
	...
     4b0:	00011000 	andeq	r1, r1, r0
     4b4:	00013400 	andeq	r3, r1, r0, lsl #8
     4b8:	50000100 	andpl	r0, r0, r0, lsl #2
     4bc:	00000134 	andeq	r0, r0, r4, lsr r1
     4c0:	00000138 	andeq	r0, r0, r8, lsr r1
     4c4:	01f30004 	mvnseq	r0, r4
     4c8:	01389f50 	teqeq	r8, r0, asr pc
     4cc:	01500000 	cmpeq	r0, r0
     4d0:	00010000 	andeq	r0, r1, r0
     4d4:	00015050 	andeq	r5, r1, r0, asr r0
     4d8:	0001bc00 	andeq	fp, r1, r0, lsl #24
     4dc:	f3000400 	vshl.u8	d0, d0, d0
     4e0:	009f5001 	addseq	r5, pc, r1
	...
     4f0:	01010000 	mrseq	r0, (UNDEF: 1)
     4f4:	00000000 	andeq	r0, r0, r0
     4f8:	00013400 	andeq	r3, r1, r0, lsl #8
     4fc:	00013800 	andeq	r3, r1, r0, lsl #16
     500:	50000100 	andpl	r0, r0, r0, lsl #2
     504:	00000150 	andeq	r0, r0, r0, asr r1
     508:	00000170 	andeq	r0, r0, r0, ror r1
     50c:	70500001 	subsvc	r0, r0, r1
     510:	74000001 	strvc	r0, [r0], #-1
     514:	03000001 	movweq	r0, #1
     518:	9f787000 	svcls	0x00787000
     51c:	00000174 	andeq	r0, r0, r4, ror r1
     520:	00000180 	andeq	r0, r0, r0, lsl #3
     524:	80500001 	subshi	r0, r0, r1
     528:	88000001 	stmdahi	r0, {r0}
     52c:	02000001 	andeq	r0, r0, #1, 0
     530:	88007000 	stmdahi	r0, {ip, sp, lr}
     534:	a8000001 	stmdage	r0, {r0}
     538:	01000001 	tsteq	r0, r1
     53c:	01ac5000 			; <UNDEFINED> instruction: 0x01ac5000
     540:	01bc0000 			; <UNDEFINED> instruction: 0x01bc0000
     544:	00010000 	andeq	r0, r1, r0
     548:	00000050 	andeq	r0, r0, r0, asr r0
     54c:	00000000 	andeq	r0, r0, r0
     550:	01010000 	mrseq	r0, (UNDEF: 1)
     554:	01000000 	mrseq	r0, (UNDEF: 0)
     558:	28000000 	stmdacs	r0, {}	; <UNPREDICTABLE>
     55c:	38000001 	stmdacc	r0, {r0}
     560:	01000001 	tsteq	r0, r1
     564:	01385200 	teqeq	r8, r0, lsl #4
     568:	01500000 	cmpeq	r0, r0
     56c:	00060000 	andeq	r0, r6, r0
     570:	00aac003 	adceq	ip, sl, r3
     574:	01509f00 	cmpeq	r0, r0, lsl #30
     578:	01800000 	orreq	r0, r0, r0
     57c:	00010000 	andeq	r0, r1, r0
     580:	00018052 	andeq	r8, r1, r2, asr r0
     584:	00018800 	andeq	r8, r1, r0, lsl #16
     588:	50000100 	andpl	r0, r0, r0, lsl #2
     58c:	00000188 	andeq	r0, r0, r8, lsl #3
     590:	000001ab 	andeq	r0, r0, fp, lsr #3
     594:	00520001 	subseq	r0, r2, r1
	...
     5a0:	00012000 	andeq	r2, r1, r0
     5a4:	0001bc00 	andeq	fp, r1, r0, lsl #24
     5a8:	54000100 	strpl	r0, [r0], #-256	; 0xffffff00
	...
     5b8:	000000bc 	strheq	r0, [r0], -ip
     5bc:	000000cc 	andeq	r0, r0, ip, asr #1
     5c0:	cc500001 	mrrcgt	0, 0, r0, r0, cr1	; <UNPREDICTABLE>
     5c4:	10000000 	andne	r0, r0, r0
     5c8:	01000001 	tsteq	r0, r1
     5cc:	00005400 	andeq	r5, r0, r0, lsl #8
	...
     5dc:	000000e0 	andeq	r0, r0, r0, ror #1
     5e0:	000000f0 	strdeq	r0, [r0], -r0	; <UNPREDICTABLE>
     5e4:	f0500001 			; <UNDEFINED> instruction: 0xf0500001
     5e8:	f3000000 	vhadd.u8	d0, d0, d0
     5ec:	03000000 	movweq	r0, #0
     5f0:	9f787000 	svcls	0x00787000
     5f4:	00000100 	andeq	r0, r0, r0, lsl #2
     5f8:	00000104 	andeq	r0, r0, r4, lsl #2
     5fc:	00500001 	subseq	r0, r0, r1
     600:	00000000 	andeq	r0, r0, r0
     604:	01000000 	mrseq	r0, (UNDEF: 0)
     608:	e8000000 	stmda	r0, {}	; <UNPREDICTABLE>
     60c:	f0000000 			; <UNDEFINED> instruction: 0xf0000000
     610:	01000000 	mrseq	r0, (UNDEF: 0)
     614:	00f05000 	rscseq	r5, r0, r0
     618:	00f30000 	rscseq	r0, r3, r0
     61c:	00030000 	andeq	r0, r3, r0
     620:	009f7870 	addseq	r7, pc, r0, ror r8	; <UNPREDICTABLE>
	...
     62c:	00059400 	andeq	r9, r5, r0, lsl #8
     630:	00059800 	andeq	r9, r5, r0, lsl #16
     634:	50000100 	andpl	r0, r0, r0, lsl #2
	...
     640:	00000001 	andeq	r0, r0, r1
     644:	0000036c 	andeq	r0, r0, ip, ror #6
     648:	00000398 	muleq	r0, r8, r3
     64c:	9f300002 	svcls	0x00300002
     650:	00000398 	muleq	r0, r8, r3
     654:	00000424 	andeq	r0, r0, r4, lsr #8
     658:	00550001 	subseq	r0, r5, r1
     65c:	00000000 	andeq	r0, r0, r0
     660:	01000000 	mrseq	r0, (UNDEF: 0)
     664:	6c000000 	stcvs	0, cr0, [r0], {-0}
     668:	98000003 	stmdals	r0, {r0, r1}
     66c:	02000003 	andeq	r0, r0, #3, 0
     670:	989f3000 	ldmls	pc, {ip, sp}	; <UNPREDICTABLE>
     674:	24000003 	strcs	r0, [r0], #-3
     678:	01000004 	tsteq	r0, r4
     67c:	00005800 	andeq	r5, r0, r0, lsl #16
     680:	00000000 	andeq	r0, r0, r0
     684:	00010000 	andeq	r0, r1, r0
     688:	00000000 	andeq	r0, r0, r0
     68c:	0000036c 	andeq	r0, r0, ip, ror #6
     690:	00000398 	muleq	r0, r8, r3
     694:	9f300002 	svcls	0x00300002
     698:	00000398 	muleq	r0, r8, r3
     69c:	00000424 	andeq	r0, r0, r4, lsr #8
     6a0:	24570001 	ldrbcs	r0, [r7], #-1
     6a4:	40000004 	andmi	r0, r0, r4
     6a8:	01000004 	tsteq	r0, r4
     6ac:	00005000 	andeq	r5, r0, r0
	...
     6bc:	03880000 	orreq	r0, r8, #0, 0
     6c0:	03cc0000 	biceq	r0, ip, #0, 0
     6c4:	00010000 	andeq	r0, r1, r0
     6c8:	0003cc50 	andeq	ip, r3, r0, asr ip
     6cc:	0003e800 	andeq	lr, r3, r0, lsl #16
     6d0:	54000100 	strpl	r0, [r0], #-256	; 0xffffff00
     6d4:	000003e8 	andeq	r0, r0, r8, ror #7
     6d8:	00000414 	andeq	r0, r0, r4, lsl r4
     6dc:	14500001 	ldrbne	r0, [r0], #-1
     6e0:	24000004 	strcs	r0, [r0], #-4
     6e4:	01000004 	tsteq	r0, r4
     6e8:	00005400 	andeq	r5, r0, r0, lsl #8
	...
     6f4:	000003a8 	andeq	r0, r0, r8, lsr #7
     6f8:	000003c0 	andeq	r0, r0, r0, asr #7
     6fc:	010a0004 	tsteq	sl, r4
     700:	00009f01 	andeq	r9, r0, r1, lsl #30
	...
     70c:	000003a8 	andeq	r0, r0, r8, lsr #7
     710:	000003c0 	andeq	r0, r0, r0, asr #7
     714:	0ff20006 	svceq	0x00f20006
     718:	0000001c 	andeq	r0, r0, ip, lsl r0
	...
     724:	03a80000 			; <UNDEFINED> instruction: 0x03a80000
     728:	03c00000 	biceq	r0, r0, #0, 0
     72c:	00060000 	andeq	r0, r6, r0
     730:	00a3c803 	adceq	ip, r3, r3, lsl #16
     734:	00009f00 	andeq	r9, r0, r0, lsl #30
	...
     744:	00000544 	andeq	r0, r0, r4, asr #10
     748:	00000554 	andeq	r0, r0, r4, asr r5
     74c:	54500001 	ldrbpl	r0, [r0], #-1
     750:	57000005 	strpl	r0, [r0, -r5]
     754:	01000005 	tsteq	r0, r5
     758:	05575100 	ldrbeq	r5, [r7, #-256]	; 0xffffff00
     75c:	05880000 	streq	r0, [r8]
     760:	00010000 	andeq	r0, r1, r0
     764:	00000054 	andeq	r0, r0, r4, asr r0
	...
     770:	0004e400 	andeq	lr, r4, r0, lsl #8
     774:	0004eb00 	andeq	lr, r4, r0, lsl #22
     778:	50000100 	andpl	r0, r0, r0, lsl #2
     77c:	000004eb 	andeq	r0, r0, fp, ror #9
     780:	000004f0 	strdeq	r0, [r0], -r0	; <UNPREDICTABLE>
     784:	01f30004 	mvnseq	r0, r4
     788:	00009f50 	andeq	r9, r0, r0, asr pc
	...
     794:	02700000 	rsbseq	r0, r0, #0, 0
     798:	027c0000 	rsbseq	r0, ip, #0, 0
     79c:	00010000 	andeq	r0, r1, r0
     7a0:	00027c50 	andeq	r7, r2, r0, asr ip
     7a4:	00036400 	andeq	r6, r3, r0, lsl #8
     7a8:	58000100 	stmdapl	r0, {r8}
	...
     7b4:	00000001 	andeq	r0, r0, r1
     7b8:	00000278 	andeq	r0, r0, r8, ror r2
     7bc:	000002a4 	andeq	r0, r0, r4, lsr #5
     7c0:	9f300002 	svcls	0x00300002
     7c4:	000002a4 	andeq	r0, r0, r4, lsr #5
     7c8:	00000364 	andeq	r0, r0, r4, ror #6
     7cc:	00550001 	subseq	r0, r5, r1
     7d0:	00000000 	andeq	r0, r0, r0
     7d4:	01000000 	mrseq	r0, (UNDEF: 0)
     7d8:	00000000 	andeq	r0, r0, r0
     7dc:	00027800 	andeq	r7, r2, r0, lsl #16
     7e0:	0002a400 	andeq	sl, r2, r0, lsl #8
     7e4:	30000200 	andcc	r0, r0, r0, lsl #4
     7e8:	0002a49f 	muleq	r2, pc, r4	; <UNPREDICTABLE>
     7ec:	00032800 	andeq	r2, r3, r0, lsl #16
     7f0:	56000100 	strpl	r0, [r0], -r0, lsl #2
     7f4:	00000330 	andeq	r0, r0, r0, lsr r3
     7f8:	00000364 	andeq	r0, r0, r4, ror #6
     7fc:	00560001 	subseq	r0, r6, r1
     800:	00000000 	andeq	r0, r0, r0
     804:	01000000 	mrseq	r0, (UNDEF: 0)
     808:	78000000 	stmdavc	r0, {}	; <UNPREDICTABLE>
     80c:	a4000002 	strge	r0, [r0], #-2
     810:	02000002 	andeq	r0, r0, #2, 0
     814:	a49f3000 	ldrge	r3, [pc], #0	; 81c <__code_start__-0x77e4>
     818:	64000002 	strvs	r0, [r0], #-2
     81c:	01000003 	tsteq	r0, r3
     820:	00005700 	andeq	r5, r0, r0, lsl #14
	...
     838:	00000294 	muleq	r0, r4, r2
     83c:	000002b4 			; <UNDEFINED> instruction: 0x000002b4
     840:	b4500001 	ldrblt	r0, [r0], #-1
     844:	c4000002 	strgt	r0, [r0], #-2
     848:	01000002 	tsteq	r0, r2
     84c:	02c45400 	sbceq	r5, r4, #0, 8
     850:	02f40000 	rscseq	r0, r4, #0, 0
     854:	00010000 	andeq	r0, r1, r0
     858:	0002f450 	andeq	pc, r2, r0, asr r4	; <UNPREDICTABLE>
     85c:	0002f700 	andeq	pc, r2, r0, lsl #14
     860:	52000100 	andpl	r0, r0, #0
     864:	000002f7 	strdeq	r0, [r0], -r7
     868:	000002fc 	strdeq	r0, [r0], -ip
     86c:	fc540001 	mrrc2	0, 0, r0, r4, cr1
     870:	04000002 	streq	r0, [r0], #-2
     874:	01000003 	tsteq	r0, r3
     878:	03045000 	movweq	r5, #16384	; 0x4000
     87c:	03640000 	cmneq	r4, #0, 0
     880:	00010000 	andeq	r0, r1, r0
     884:	00000054 	andeq	r0, r0, r4, asr r0
	...
     890:	0001d800 	andeq	sp, r1, r0, lsl #16
     894:	0001f300 	andeq	pc, r1, r0, lsl #6
     898:	50000100 	andpl	r0, r0, r0, lsl #2
     89c:	000001f4 	strdeq	r0, [r0], -r4
     8a0:	000001fc 	strdeq	r0, [r0], -ip
     8a4:	00500001 	subseq	r0, r0, r1
	...
     8bc:	00006400 	andeq	r6, r0, r0, lsl #8
     8c0:	0000a400 	andeq	sl, r0, r0, lsl #8
     8c4:	50000100 	andpl	r0, r0, r0, lsl #2
     8c8:	000000a4 	andeq	r0, r0, r4, lsr #1
     8cc:	000000ac 	andeq	r0, r0, ip, lsr #1
     8d0:	ac540001 	mrrcge	0, 0, r0, r4, cr1
     8d4:	c4000000 	strgt	r0, [r0], #-0
     8d8:	01000000 	mrseq	r0, (UNDEF: 0)
     8dc:	00c45000 	sbceq	r5, r4, r0
     8e0:	00cc0000 	sbceq	r0, ip, r0
     8e4:	00040000 	andeq	r0, r4, r0
     8e8:	9f5001f3 	svcls	0x005001f3
     8ec:	000000cc 	andeq	r0, r0, ip, asr #1
     8f0:	000000e4 	andeq	r0, r0, r4, ror #1
     8f4:	e4500001 	ldrb	r0, [r0], #-1
     8f8:	ec000000 	stc	0, cr0, [r0], {-0}
     8fc:	01000000 	mrseq	r0, (UNDEF: 0)
     900:	00ec5400 	rsceq	r5, ip, r0, lsl #8
     904:	01cc0000 	biceq	r0, ip, r0
     908:	00040000 	andeq	r0, r4, r0
     90c:	9f5001f3 	svcls	0x005001f3
	...
     924:	00640000 	rsbeq	r0, r4, r0
     928:	00a00000 	adceq	r0, r0, r0
     92c:	00010000 	andeq	r0, r1, r0
     930:	0000a051 	andeq	sl, r0, r1, asr r0
     934:	0000ac00 	andeq	sl, r0, r0, lsl #24
     938:	56000100 	strpl	r0, [r0], -r0, lsl #2
     93c:	000000ac 	andeq	r0, r0, ip, lsr #1
     940:	000000c0 	andeq	r0, r0, r0, asr #1
     944:	c0510001 	subsgt	r0, r1, r1
     948:	cc000000 	stcgt	0, cr0, [r0], {-0}
     94c:	04000000 	streq	r0, [r0], #-0
     950:	5101f300 	mrspl	pc, SP_irq	; <UNPREDICTABLE>
     954:	0000cc9f 	muleq	r0, pc, ip	; <UNPREDICTABLE>
     958:	0000e000 	andeq	lr, r0, r0
     95c:	51000100 	mrspl	r0, (UNDEF: 16)
     960:	000000e0 	andeq	r0, r0, r0, ror #1
     964:	000001a8 	andeq	r0, r0, r8, lsr #3
     968:	a8560001 	ldmdage	r6, {r0}^
     96c:	cc000001 	stcgt	0, cr0, [r0], {1}
     970:	04000001 	streq	r0, [r0], #-1
     974:	5101f300 	mrspl	pc, SP_irq	; <UNPREDICTABLE>
     978:	0000009f 	muleq	r0, pc, r0	; <UNPREDICTABLE>
     97c:	00000000 	andeq	r0, r0, r0
     980:	ec000000 	stc	0, cr0, [r0], {-0}
     984:	a8000000 	stmdage	r0, {}	; <UNPREDICTABLE>
     988:	01000001 	tsteq	r0, r1
     98c:	00005400 	andeq	r5, r0, r0, lsl #8
	...
     99c:	000000ec 	andeq	r0, r0, ip, ror #1
     9a0:	0000010c 	andeq	r0, r0, ip, lsl #2
     9a4:	1c550001 	mrrcne	0, 0, r0, r5, cr1
     9a8:	33000001 	movwcc	r0, #1
     9ac:	01000001 	tsteq	r0, r1
     9b0:	01335000 	teqeq	r3, r0
     9b4:	01a00000 	moveq	r0, r0
     9b8:	00010000 	andeq	r0, r1, r0
     9bc:	00000055 	andeq	r0, r0, r5, asr r0
	...
     9c8:	0000ec00 	andeq	lr, r0, r0, lsl #24
     9cc:	00010800 	andeq	r0, r1, r0, lsl #16
     9d0:	57000100 	strpl	r0, [r0, -r0, lsl #2]
     9d4:	00000128 	andeq	r0, r0, r8, lsr #2
     9d8:	000001a0 	andeq	r0, r0, r0, lsr #3
     9dc:	00570001 	subseq	r0, r7, r1
	...
     9e8:	ec000000 	stc	0, cr0, [r0], {-0}
     9ec:	08000000 	stmdaeq	r0, {}	; <UNPREDICTABLE>
     9f0:	01000001 	tsteq	r0, r1
     9f4:	012c5800 			; <UNDEFINED> instruction: 0x012c5800
     9f8:	01a00000 	moveq	r0, r0
     9fc:	00010000 	andeq	r0, r1, r0
     a00:	00000058 	andeq	r0, r0, r8, asr r0
	...
     a0c:	00003c00 	andeq	r3, r0, r0, lsl #24
     a10:	00004700 	andeq	r4, r0, r0, lsl #14
     a14:	50000100 	andpl	r0, r0, r0, lsl #2
     a18:	00000047 	andeq	r0, r0, r7, asr #32
     a1c:	00000064 	andeq	r0, r0, r4, rrx
     a20:	00540001 	subseq	r0, r4, r1
     a24:	00000000 	andeq	r0, r0, r0
     a28:	01000000 	mrseq	r0, (UNDEF: 0)
     a2c:	44000000 	strmi	r0, [r0], #-0
     a30:	47000000 	strmi	r0, [r0, -r0]
     a34:	01000000 	mrseq	r0, (UNDEF: 0)
     a38:	00475000 	subeq	r5, r7, r0
     a3c:	00640000 	rsbeq	r0, r4, r0
     a40:	00010000 	andeq	r0, r1, r0
     a44:	00000054 	andeq	r0, r0, r4, asr r0
	...
     a5c:	00002400 	andeq	r2, r0, r0, lsl #8
     a60:	50000100 	andpl	r0, r0, r0, lsl #2
     a64:	00000024 	andeq	r0, r0, r4, lsr #32
     a68:	00000028 	andeq	r0, r0, r8, lsr #32
     a6c:	01f30004 	mvnseq	r0, r4
     a70:	00289f50 	eoreq	r9, r8, r0, asr pc
     a74:	002c0000 	eoreq	r0, ip, r0
     a78:	00010000 	andeq	r0, r1, r0
     a7c:	00002c50 	andeq	r2, r0, r0, asr ip
     a80:	00003000 	andeq	r3, r0, r0
     a84:	f3000400 	vshl.u8	d0, d0, d0
     a88:	309f5001 	addscc	r5, pc, r1
     a8c:	34000000 	strcc	r0, [r0], #-0
     a90:	01000000 	mrseq	r0, (UNDEF: 0)
     a94:	00345000 	eorseq	r5, r4, r0
     a98:	003c0000 	eorseq	r0, ip, r0
     a9c:	00040000 	andeq	r0, r4, r0
     aa0:	9f5001f3 	svcls	0x005001f3
	...
     ab8:	00000440 	andeq	r0, r0, r0, asr #8
     abc:	00000468 	andeq	r0, r0, r8, ror #8
     ac0:	68500001 	ldmdavs	r0, {r0}^
     ac4:	94000004 	strls	r0, [r0], #-4
     ac8:	01000004 	tsteq	r0, r4
     acc:	04945400 	ldreq	r5, [r4], #1024	; 0x400
     ad0:	04ac0000 	strteq	r0, [ip], #0
     ad4:	00010000 	andeq	r0, r1, r0
     ad8:	0004ac50 	andeq	sl, r4, r0, asr ip
     adc:	0004b400 	andeq	fp, r4, r0, lsl #8
     ae0:	54000100 	strpl	r0, [r0], #-256	; 0xffffff00
     ae4:	000004b4 			; <UNDEFINED> instruction: 0x000004b4
     ae8:	000004c4 	andeq	r0, r0, r4, asr #9
     aec:	c4500001 	ldrbgt	r0, [r0], #-1
     af0:	e4000004 	str	r0, [r0], #-4
     af4:	01000004 	tsteq	r0, r4
     af8:	00005400 	andeq	r5, r0, r0, lsl #8
     afc:	00000000 	andeq	r0, r0, r0
     b00:	00020000 	andeq	r0, r2, r0
     b04:	00000460 	andeq	r0, r0, r0, ror #8
     b08:	00000494 	muleq	r0, r4, r4
     b0c:	40400004 	submi	r0, r0, r4
     b10:	00009f24 	andeq	r9, r0, r4, lsr #30
	...
     b20:	001c0000 	andseq	r0, ip, r0
     b24:	00010000 	andeq	r0, r1, r0
     b28:	00001c51 	andeq	r1, r0, r1, asr ip
     b2c:	00007800 	andeq	r7, r0, r0, lsl #16
     b30:	f3000400 	vshl.u8	d0, d0, d0
     b34:	009f5101 	addseq	r5, pc, r1, lsl #2
	...
     b44:	58000000 	stmdapl	r0, {}	; <UNPREDICTABLE>
     b48:	01000000 	mrseq	r0, (UNDEF: 0)
     b4c:	00585200 	subseq	r5, r8, r0, lsl #4
     b50:	00780000 	rsbseq	r0, r8, r0
     b54:	00040000 	andeq	r0, r4, r0
     b58:	9f5201f3 	svcls	0x005201f3
	...
     b64:	01000002 	tsteq	r0, r2
     b68:	01000001 	tsteq	r0, r1
     b6c:	01000001 	tsteq	r0, r1
     b70:	00000001 	andeq	r0, r0, r1
     b74:	00380000 	eorseq	r0, r8, r0
     b78:	00010000 	andeq	r0, r1, r0
     b7c:	00005450 	andeq	r5, r0, r0, asr r4
     b80:	00005400 	andeq	r5, r0, r0, lsl #8
     b84:	53000100 	movwpl	r0, #256	; 0x100
     b88:	00000054 	andeq	r0, r0, r4, asr r0
     b8c:	0000005c 	andeq	r0, r0, ip, asr r0
     b90:	01730003 	cmneq	r3, r3
     b94:	00005c9f 	muleq	r0, pc, ip	; <UNPREDICTABLE>
     b98:	00006400 	andeq	r6, r0, r0, lsl #8
     b9c:	52000100 	andpl	r0, r0, #0
     ba0:	00000064 	andeq	r0, r0, r4, rrx
     ba4:	00000068 	andeq	r0, r0, r8, rrx
     ba8:	02730003 	rsbseq	r0, r3, #3, 0
     bac:	0000689f 	muleq	r0, pc, r8	; <UNPREDICTABLE>
     bb0:	00007400 	andeq	r7, r0, r0, lsl #8
     bb4:	52000100 	andpl	r0, r0, #0
     bb8:	00000074 	andeq	r0, r0, r4, ror r0
     bbc:	00000078 	andeq	r0, r0, r8, ror r0
     bc0:	01720003 	cmneq	r2, r3
     bc4:	0000009f 	muleq	r0, pc, r0	; <UNPREDICTABLE>
     bc8:	00000000 	andeq	r0, r0, r0
     bcc:	08000000 	stmdaeq	r0, {}	; <UNPREDICTABLE>
     bd0:	78000000 	stmdavc	r0, {}	; <UNPREDICTABLE>
     bd4:	01000000 	mrseq	r0, (UNDEF: 0)
     bd8:	00005400 	andeq	r5, r0, r0, lsl #8
	...
     be8:	0000002c 	andeq	r0, r0, ip, lsr #32
     bec:	00000034 	andeq	r0, r0, r4, lsr r0
     bf0:	34500001 	ldrbcc	r0, [r0], #-1
     bf4:	48000000 	stmdami	r0, {}	; <UNPREDICTABLE>
     bf8:	01000000 	mrseq	r0, (UNDEF: 0)
     bfc:	00485400 	subeq	r5, r8, r0, lsl #8
     c00:	00580000 	subseq	r0, r8, r0
     c04:	00010000 	andeq	r0, r1, r0
     c08:	00000050 	andeq	r0, r0, r0, asr r0
	...
     c14:	00000101 	andeq	r0, r0, r1, lsl #2
     c18:	00000000 	andeq	r0, r0, r0
     c1c:	00000c00 	andeq	r0, r0, r0, lsl #24
     c20:	50000100 	andpl	r0, r0, r0, lsl #2
     c24:	0000000c 	andeq	r0, r0, ip
     c28:	00000020 	andeq	r0, r0, r0, lsr #32
     c2c:	20540001 	subscs	r0, r4, r1
     c30:	24000000 	strcs	r0, [r0], #-0
     c34:	03000000 	movweq	r0, #0
     c38:	9f017400 	svcls	0x00017400
     c3c:	00000024 	andeq	r0, r0, r4, lsr #32
     c40:	00000038 	andeq	r0, r0, r8, lsr r0
     c44:	00540001 	subseq	r0, r4, r1
	...
     c58:	00038800 	andeq	r8, r3, r0, lsl #16
     c5c:	00039400 	andeq	r9, r3, r0, lsl #8
     c60:	50000100 	andpl	r0, r0, r0, lsl #2
     c64:	00000394 	muleq	r0, r4, r3
     c68:	000003d0 	ldrdeq	r0, [r0], -r0	; <UNPREDICTABLE>
     c6c:	d05b0001 	subsle	r0, fp, r1
     c70:	20000003 	andcs	r0, r0, r3
     c74:	04000009 	streq	r0, [r0], #-9
     c78:	5001f300 	andpl	pc, r1, r0, lsl #6
     c7c:	0009209f 	muleq	r9, pc, r0	; <UNPREDICTABLE>
     c80:	00092800 	andeq	r2, r9, r0, lsl #16
     c84:	5b000100 	blpl	108c <__code_start__-0x6f74>
     c88:	00000928 	andeq	r0, r0, r8, lsr #18
     c8c:	000009b4 			; <UNDEFINED> instruction: 0x000009b4
     c90:	01f30004 	mvnseq	r0, r4
     c94:	00009f50 	andeq	r9, r0, r0, asr pc
	...
     ca4:	03880000 	orreq	r0, r8, #0, 0
     ca8:	03d00000 	bicseq	r0, r0, #0, 0
     cac:	00010000 	andeq	r0, r1, r0
     cb0:	0003d051 	andeq	sp, r3, r1, asr r0
     cb4:	00092000 	andeq	r2, r9, r0
     cb8:	f3000400 	vshl.u8	d0, d0, d0
     cbc:	209f5101 	addscs	r5, pc, r1, lsl #2
     cc0:	28000009 	stmdacs	r0, {r0, r3}
     cc4:	01000009 	tsteq	r0, r9
     cc8:	09285100 	stmdbeq	r8!, {r8, ip, lr}
     ccc:	09b40000 	ldmibeq	r4!, {}	; <UNPREDICTABLE>
     cd0:	00040000 	andeq	r0, r4, r0
     cd4:	9f5101f3 	svcls	0x005101f3
	...
     ce4:	01000000 	mrseq	r0, (UNDEF: 0)
     ce8:	00010000 	andeq	r0, r1, r0
	...
     cf8:	00000388 	andeq	r0, r0, r8, lsl #7
     cfc:	000003d0 	ldrdeq	r0, [r0], -r0	; <UNPREDICTABLE>
     d00:	d0520001 	subsle	r0, r2, r1
     d04:	00000003 	andeq	r0, r0, r3
     d08:	01000004 	tsteq	r0, r4
     d0c:	04145600 	ldreq	r5, [r4], #-1536	; 0xfffffa00
     d10:	04240000 	strteq	r0, [r4], #-0
     d14:	00010000 	andeq	r0, r1, r0
     d18:	00042456 	andeq	r2, r4, r6, asr r4
     d1c:	00042800 	andeq	r2, r4, r0, lsl #16
     d20:	76000300 	strvc	r0, [r0], -r0, lsl #6
     d24:	04a89f7f 	strteq	r9, [r8], #3967	; 0xf7f
     d28:	04ac0000 	strteq	r0, [ip], #0
     d2c:	00010000 	andeq	r0, r1, r0
     d30:	0004e056 	andeq	lr, r4, r6, asr r0
     d34:	00050400 	andeq	r0, r5, r0, lsl #8
     d38:	56000100 	strpl	r0, [r0], -r0, lsl #2
     d3c:	0000057c 	andeq	r0, r0, ip, ror r5
     d40:	00000588 	andeq	r0, r0, r8, lsl #11
     d44:	88530001 	ldmdahi	r3, {r0}^
     d48:	d0000005 	andle	r0, r0, r5
     d4c:	03000005 	movweq	r0, #5
     d50:	7dcc9100 	stfvcp	f1, [ip]
     d54:	00000800 	andeq	r0, r0, r0, lsl #16
     d58:	0000080f 	andeq	r0, r0, pc, lsl #16
     d5c:	0f530001 	svceq	0x00530001
     d60:	88000008 	stmdahi	r0, {r3}
     d64:	03000008 	movweq	r0, #8
     d68:	7dcc9100 	stfvcp	f1, [ip]
     d6c:	00000920 	andeq	r0, r0, r0, lsr #18
     d70:	00000928 	andeq	r0, r0, r8, lsr #18
     d74:	48520001 	ldmdami	r2, {r0}^
     d78:	64000009 	strvs	r0, [r0], #-9
     d7c:	03000009 	movweq	r0, #9
     d80:	7dcc9100 	stfvcp	f1, [ip]
	...
     d94:	00010100 	andeq	r0, r1, r0, lsl #2
     d98:	00010100 	andeq	r0, r1, r0, lsl #2
     d9c:	02000000 	andeq	r0, r0, #0, 0
     da0:	02000002 	andeq	r0, r0, #2, 0
     da4:	01000002 	tsteq	r0, r2
     da8:	02000001 	andeq	r0, r0, #1, 0
     dac:	01000002 	tsteq	r0, r2
     db0:	00000001 	andeq	r0, r0, r1
     db4:	00000000 	andeq	r0, r0, r0
     db8:	03880000 	orreq	r0, r8, #0, 0
     dbc:	03ac0000 			; <UNDEFINED> instruction: 0x03ac0000
     dc0:	00010000 	andeq	r0, r1, r0
     dc4:	0003ac53 	andeq	sl, r3, r3, asr ip
     dc8:	0003c000 	andeq	ip, r3, r0
     dcc:	53000300 	movwpl	r0, #768	; 0x300
     dd0:	03d00493 	bicseq	r0, r0, #-1828716544	; 0x93000000
     dd4:	03e80000 	mvneq	r0, #0, 0
     dd8:	00030000 	andeq	r0, r3, r0
     ddc:	e8049358 	stmda	r4, {r3, r4, r6, r8, r9, ip, pc}
     de0:	ac000003 	stcge	0, cr0, [r0], {3}
     de4:	03000004 	movweq	r0, #4
     de8:	04935800 	ldreq	r5, [r3], #2048	; 0x800
     dec:	000004c0 	andeq	r0, r0, r0, asr #9
     df0:	000004c0 	andeq	r0, r0, r0, asr #9
     df4:	93580003 	cmpls	r8, #3, 0
     df8:	0004c004 	andeq	ip, r4, r4
     dfc:	0004cc00 	andeq	ip, r4, r0, lsl #24
     e00:	78000500 	stmdavc	r0, {r8, sl}
     e04:	04939f04 	ldreq	r9, [r3], #3844	; 0xf04
     e08:	000004cc 	andeq	r0, r0, ip, asr #9
     e0c:	000004e0 	andeq	r0, r0, r0, ror #9
     e10:	93580003 	cmpls	r8, #3, 0
     e14:	0004e004 	andeq	lr, r4, r4
     e18:	00053800 	andeq	r3, r5, r0, lsl #16
     e1c:	58000300 	stmdapl	r0, {r8, r9}
     e20:	05380493 	ldreq	r0, [r8, #-1171]!	; 0xfffffb6d
     e24:	053c0000 	ldreq	r0, [ip, #-0]!
     e28:	00050000 	andeq	r0, r5, r0
     e2c:	939f7978 	orrsls	r7, pc, #120, 18	; 0x1e0000
     e30:	0005d004 	andeq	sp, r5, r4
     e34:	0005d000 	andeq	sp, r5, r0
     e38:	58000300 	stmdapl	r0, {r8, r9}
     e3c:	05d00493 	ldrbeq	r0, [r0, #1171]	; 0x493
     e40:	05d40000 	ldrbeq	r0, [r4]
     e44:	00050000 	andeq	r0, r5, r0
     e48:	939f0478 	orrsls	r0, pc, #120, 8	; 0x78000000
     e4c:	0005f404 	andeq	pc, r5, r4, lsl #8
     e50:	0005f400 	andeq	pc, r5, r0, lsl #8
     e54:	58000300 	stmdapl	r0, {r8, r9}
     e58:	05f40493 	ldrbeq	r0, [r4, #1171]!	; 0x493
     e5c:	05fc0000 	ldrbeq	r0, [ip, #0]!
     e60:	00050000 	andeq	r0, r5, r0
     e64:	939f0478 	orrsls	r0, pc, #120, 8	; 0x78000000
     e68:	0005fc04 	andeq	pc, r5, r4, lsl #24
     e6c:	0005fc00 	andeq	pc, r5, r0, lsl #24
     e70:	58000300 	stmdapl	r0, {r8, r9}
     e74:	05fc0493 	ldrbeq	r0, [ip, #1171]!	; 0x493
     e78:	06000000 	streq	r0, [r0], -r0
     e7c:	00050000 	andeq	r0, r5, r0
     e80:	939f0478 	orrsls	r0, pc, #120, 8	; 0x78000000
     e84:	00060004 	andeq	r0, r6, r4
     e88:	00070000 	andeq	r0, r7, r0
     e8c:	58000300 	stmdapl	r0, {r8, r9}
     e90:	07000493 			; <UNDEFINED> instruction: 0x07000493
     e94:	070c0000 	streq	r0, [ip, -r0]
     e98:	00050000 	andeq	r0, r5, r0
     e9c:	939f0478 	orrsls	r0, pc, #120, 8	; 0x78000000
     ea0:	00070c04 	andeq	r0, r7, r4, lsl #24
     ea4:	0007f800 	andeq	pc, r7, r0, lsl #16
     ea8:	58000300 	stmdapl	r0, {r8, r9}
     eac:	07f80493 			; <UNDEFINED> instruction: 0x07f80493
     eb0:	07fc0000 	ldrbeq	r0, [ip, r0]!
     eb4:	00050000 	andeq	r0, r5, r0
     eb8:	939f0478 	orrsls	r0, pc, #120, 8	; 0x78000000
     ebc:	0007fc04 	andeq	pc, r7, r4, lsl #24
     ec0:	00080000 	andeq	r0, r8, r0
     ec4:	58000300 	stmdapl	r0, {r8, r9}
     ec8:	08880493 	stmeq	r8, {r0, r1, r4, r7, sl}
     ecc:	09200000 	stmdbeq	r0!, {}	; <UNPREDICTABLE>
     ed0:	00030000 	andeq	r0, r3, r0
     ed4:	20049358 	andcs	r9, r4, r8, asr r3
     ed8:	28000009 	stmdacs	r0, {r0, r3}
     edc:	01000009 	tsteq	r0, r9
     ee0:	09645300 	stmdbeq	r4!, {r8, r9, ip, lr}^
     ee4:	09b40000 	ldmibeq	r4!, {}	; <UNPREDICTABLE>
     ee8:	00030000 	andeq	r0, r3, r0
     eec:	00049358 	andeq	r9, r4, r8, asr r3
     ef0:	00000000 	andeq	r0, r0, r0
     ef4:	01000000 	mrseq	r0, (UNDEF: 0)
	...
     f00:	00000202 	andeq	r0, r0, r2, lsl #4
     f04:	01010100 	mrseq	r0, (UNDEF: 17)
     f08:	00000000 	andeq	r0, r0, r0
     f0c:	0003ac00 	andeq	sl, r3, r0, lsl #24
     f10:	0003d000 	andeq	sp, r3, r0
     f14:	5b000100 	blpl	131c <__code_start__-0x6ce4>
     f18:	000003d0 	ldrdeq	r0, [r0], -r0	; <UNPREDICTABLE>
     f1c:	000003d4 	ldrdeq	r0, [r0], -r4
     f20:	d4540001 	ldrble	r0, [r4], #-1
     f24:	d8000003 	stmdale	r0, {r0, r1}
     f28:	03000003 	movweq	r0, #3
     f2c:	9f7f7400 	svcls	0x007f7400
     f30:	000003d8 	ldrdeq	r0, [r0], -r8
     f34:	000003fc 	strdeq	r0, [r0], -ip
     f38:	a8540001 	ldmdage	r4, {r0}^
     f3c:	ac000004 	stcge	0, cr0, [r0], {4}
     f40:	01000004 	tsteq	r0, r4
     f44:	04ac5400 	strteq	r5, [ip], #1024	; 0x400
     f48:	04b40000 	ldrteq	r0, [r4], #0
     f4c:	00030000 	andeq	r0, r3, r0
     f50:	b49f0174 	ldrlt	r0, [pc], #372	; f58 <__code_start__-0x70a8>
     f54:	c0000004 	andgt	r0, r0, r4
     f58:	01000004 	tsteq	r0, r4
     f5c:	04e45400 	strbteq	r5, [r4], #1024	; 0x400
     f60:	04f40000 	ldrbteq	r0, [r4], #0
     f64:	00010000 	andeq	r0, r1, r0
     f68:	0004f454 	andeq	pc, r4, r4, asr r4	; <UNPREDICTABLE>
     f6c:	0004f800 	andeq	pc, r4, r0, lsl #16
     f70:	74000300 	strvc	r0, [r0], #-768	; 0xfffffd00
     f74:	04f89f01 	ldrbteq	r9, [r8], #3841	; 0xf01
     f78:	05040000 	streq	r0, [r4, #-0]
     f7c:	00010000 	andeq	r0, r1, r0
     f80:	00092054 	andeq	r2, r9, r4, asr r0
     f84:	00092800 	andeq	r2, r9, r0, lsl #16
     f88:	5b000100 	blpl	1390 <__code_start__-0x6c70>
	...
     f94:	03ac0001 			; <UNDEFINED> instruction: 0x03ac0001
     f98:	09b40000 	ldmibeq	r4!, {}	; <UNPREDICTABLE>
     f9c:	00010000 	andeq	r0, r1, r0
     fa0:	00000057 	andeq	r0, r0, r7, asr r0
     fa4:	00000000 	andeq	r0, r0, r0
     fa8:	00000200 	andeq	r0, r0, r0, lsl #4
     fac:	7c000000 	stcvc	0, cr0, [r0], {-0}
     fb0:	d0000005 	andle	r0, r0, r5
     fb4:	01000005 	tsteq	r0, r5
     fb8:	08005b00 	stmdaeq	r0, {r8, r9, fp, ip, lr}
     fbc:	08880000 	stmeq	r8, {}	; <UNPREDICTABLE>
     fc0:	00010000 	andeq	r0, r1, r0
     fc4:	0009485b 	andeq	r4, r9, fp, asr r8
     fc8:	00096400 	andeq	r6, r9, r0, lsl #8
     fcc:	5b000100 	blpl	13d4 <__code_start__-0x6c2c>
	...
     fd8:	00000003 	andeq	r0, r0, r3
     fdc:	057c0000 	ldrbeq	r0, [ip, #-0]!
     fe0:	05d00000 	ldrbeq	r0, [r0]
     fe4:	00010000 	andeq	r0, r1, r0
     fe8:	00080059 	andeq	r0, r8, r9, asr r0
     fec:	00088800 	andeq	r8, r8, r0, lsl #16
     ff0:	59000100 	stmdbpl	r0, {r8}
     ff4:	00000948 	andeq	r0, r0, r8, asr #18
     ff8:	00000964 	andeq	r0, r0, r4, ror #18
     ffc:	00590001 	subseq	r0, r9, r1
    1000:	00000000 	andeq	r0, r0, r0
    1004:	04000000 	streq	r0, [r0], #-0
    1008:	00000000 	andeq	r0, r0, r0
    100c:	ac000000 	stcge	0, cr0, [r0], {-0}
    1010:	d0000003 	andle	r0, r0, r3
    1014:	01000003 	tsteq	r0, r3
    1018:	03d05200 	bicseq	r5, r0, #0, 4
    101c:	09200000 	stmdbeq	r0!, {}	; <UNPREDICTABLE>
    1020:	00040000 	andeq	r0, r4, r0
    1024:	9f5201f3 	svcls	0x005201f3
    1028:	00000920 	andeq	r0, r0, r0, lsr #18
    102c:	00000928 	andeq	r0, r0, r8, lsr #18
    1030:	28520001 	ldmdacs	r2, {r0}^
    1034:	b4000009 	strlt	r0, [r0], #-9
    1038:	04000009 	streq	r0, [r0], #-9
    103c:	5201f300 	andpl	pc, r1, #0, 6
    1040:	0000009f 	muleq	r0, pc, r0	; <UNPREDICTABLE>
    1044:	00000000 	andeq	r0, r0, r0
    1048:	01010000 	mrseq	r0, (UNDEF: 1)
    104c:	00000000 	andeq	r0, r0, r0
    1050:	00000100 	andeq	r0, r0, r0, lsl #2
    1054:	0004e000 	andeq	lr, r4, r0
    1058:	0004e000 	andeq	lr, r4, r0
    105c:	50000100 	andpl	r0, r0, r0, lsl #2
    1060:	000004e0 	andeq	r0, r0, r0, ror #9
    1064:	000004e8 	andeq	r0, r0, r8, ror #9
    1068:	b8550001 	ldmdalt	r5, {r0}^
    106c:	d0000005 	andle	r0, r0, r5
    1070:	01000005 	tsteq	r0, r5
    1074:	05f05500 	ldrbeq	r5, [r0, #1280]!	; 0x500
    1078:	05f40000 	ldrbeq	r0, [r4, #0]!
    107c:	00010000 	andeq	r0, r1, r0
    1080:	0007f450 	andeq	pc, r7, r0, asr r4	; <UNPREDICTABLE>
    1084:	0007f800 	andeq	pc, r7, r0, lsl #16
    1088:	55000100 	strpl	r0, [r0, #-256]	; 0xffffff00
    108c:	00000850 	andeq	r0, r0, r0, asr r8
    1090:	00000888 	andeq	r0, r0, r8, lsl #17
    1094:	00550001 	subseq	r0, r5, r1
    1098:	00000000 	andeq	r0, r0, r0
    109c:	02000000 	andeq	r0, r0, #0, 0
    10a0:	00000000 	andeq	r0, r0, r0
    10a4:	14000000 	strne	r0, [r0], #-0
    10a8:	18000004 	stmdane	r0, {r2}
    10ac:	02000004 	andeq	r0, r0, #4, 0
    10b0:	189f3000 	ldmne	pc, {ip, sp}	; <UNPREDICTABLE>
    10b4:	1c000004 	stcne	0, cr0, [r0], {4}
    10b8:	01000004 	tsteq	r0, r4
    10bc:	04285500 	strteq	r5, [r8], #-1280	; 0xfffffb00
    10c0:	043c0000 	ldrteq	r0, [ip], #-0
    10c4:	00010000 	andeq	r0, r1, r0
    10c8:	00092855 	andeq	r2, r9, r5, asr r8
    10cc:	00093000 	andeq	r3, r9, r0
    10d0:	55000100 	strpl	r0, [r0, #-256]	; 0xffffff00
	...
    10dc:	00000001 	andeq	r0, r0, r1
	...
    10e8:	00000504 	andeq	r0, r0, r4, lsl #10
    10ec:	00000584 	andeq	r0, r0, r4, lsl #11
    10f0:	84560001 	ldrbhi	r0, [r6], #-1
    10f4:	88000005 	stmdahi	r0, {r0, r2}
    10f8:	03000005 	movweq	r0, #5
    10fc:	9f7e7300 	svcls	0x007e7300
    1100:	00000588 	andeq	r0, r0, r8, lsl #11
    1104:	000005d0 	ldrdeq	r0, [r0], -r0	; <UNPREDICTABLE>
    1108:	cc910007 	ldcgt	0, cr0, [r1], {7}
    110c:	1c32067d 	ldcne	6, cr0, [r2], #-500	; 0xfffffe0c
    1110:	0008009f 	muleq	r8, pc, r0	; <UNPREDICTABLE>
    1114:	00081c00 	andeq	r1, r8, r0, lsl #24
    1118:	56000100 	strpl	r0, [r0], -r0, lsl #2
    111c:	0000081c 	andeq	r0, r0, ip, lsl r8
    1120:	00000888 	andeq	r0, r0, r8, lsl #17
    1124:	cc910007 	ldcgt	0, cr0, [r1], {7}
    1128:	1c32067d 	ldcne	6, cr0, [r2], #-500	; 0xfffffe0c
    112c:	0009489f 	muleq	r9, pc, r8	; <UNPREDICTABLE>
    1130:	0009b400 	andeq	fp, r9, r0, lsl #8
    1134:	56000100 	strpl	r0, [r0], -r0, lsl #2
	...
    1140:	04020604 	streq	r0, [r2], #-1540	; 0xfffff9fc
    1144:	00000414 	andeq	r0, r0, r4, lsl r4
    1148:	00000414 	andeq	r0, r0, r4, lsl r4
    114c:	00720006 	rsbseq	r0, r2, r6
    1150:	9f1aff08 	svcls	0x001aff08
    1154:	00000428 	andeq	r0, r0, r8, lsr #8
    1158:	00000428 	andeq	r0, r0, r8, lsr #8
    115c:	00720006 	rsbseq	r0, r2, r6
    1160:	9f1aff08 	svcls	0x001aff08
	...
    116c:	00000002 	andeq	r0, r0, r2
    1170:	05fc0000 	ldrbeq	r0, [ip, #0]!
    1174:	07000000 	streq	r0, [r0, -r0]
    1178:	00030000 	andeq	r0, r3, r0
    117c:	a89f8008 	ldmge	pc, {r3, pc}	; <UNPREDICTABLE>
    1180:	bc000008 	stclt	0, cr0, [r0], {8}
    1184:	03000008 	movweq	r0, #8
    1188:	9f800800 	svcls	0x00800800
    118c:	00000910 	andeq	r0, r0, r0, lsl r9
    1190:	00000920 	andeq	r0, r0, r0, lsr #18
    1194:	80080003 	andhi	r0, r8, r3
    1198:	0000009f 	muleq	r0, pc, r0	; <UNPREDICTABLE>
    119c:	00000000 	andeq	r0, r0, r0
    11a0:	00000100 	andeq	r0, r0, r0, lsl #2
    11a4:	fc000000 	stc2	0, cr0, [r0], {-0}
    11a8:	00000005 	andeq	r0, r0, r5
    11ac:	02000007 	andeq	r0, r0, #7, 0
    11b0:	a89f3000 	ldmge	pc, {ip, sp}	; <UNPREDICTABLE>
    11b4:	bc000008 	stclt	0, cr0, [r0], {8}
    11b8:	02000008 	andeq	r0, r0, #8, 0
    11bc:	109f3000 	addsne	r3, pc, r0
    11c0:	20000009 	andcs	r0, r0, r9
    11c4:	02000009 	andeq	r0, r0, #9, 0
    11c8:	009f3000 	addseq	r3, pc, r0
    11cc:	00000000 	andeq	r0, r0, r0
    11d0:	01000000 	mrseq	r0, (UNDEF: 0)
    11d4:	00000000 	andeq	r0, r0, r0
    11d8:	0005fc00 	andeq	pc, r5, r0, lsl #24
    11dc:	0006e000 	andeq	lr, r6, r0
    11e0:	55000100 	strpl	r0, [r0, #-256]	; 0xffffff00
    11e4:	000008a8 	andeq	r0, r0, r8, lsr #17
    11e8:	000008bc 			; <UNDEFINED> instruction: 0x000008bc
    11ec:	10550001 	subsne	r0, r5, r1
    11f0:	20000009 	andcs	r0, r0, r9
    11f4:	01000009 	tsteq	r0, r9
    11f8:	00005500 	andeq	r5, r0, r0, lsl #10
    11fc:	00000000 	andeq	r0, r0, r0
    1200:	00010000 	andeq	r0, r1, r0
    1204:	00000000 	andeq	r0, r0, r0
    1208:	05fc0000 	ldrbeq	r0, [ip, #0]!
    120c:	06e00000 	strbteq	r0, [r0], r0
    1210:	00040000 	andeq	r0, r4, r0
    1214:	9f7dd091 	svcls	0x007dd091
    1218:	000006e0 	andeq	r0, r0, r0, ror #13
    121c:	00000700 	andeq	r0, r0, r0, lsl #14
    1220:	a8550001 	ldmdage	r5, {r0}^
    1224:	bc000008 	stclt	0, cr0, [r0], {8}
    1228:	04000008 	streq	r0, [r0], #-8
    122c:	7dd09100 	ldfvcp	f1, [r0]
    1230:	0009109f 	muleq	r9, pc, r0	; <UNPREDICTABLE>
    1234:	00092000 	andeq	r2, r9, r0
    1238:	91000400 	tstls	r0, r0, lsl #8
    123c:	009f7dd0 			; <UNDEFINED> instruction: 0x009f7dd0
    1240:	00000000 	andeq	r0, r0, r0
    1244:	01000000 	mrseq	r0, (UNDEF: 0)
    1248:	00000000 	andeq	r0, r0, r0
    124c:	0005fc00 	andeq	pc, r5, r0, lsl #24
    1250:	00070000 	andeq	r0, r7, r0
    1254:	38000200 	stmdacc	r0, {r9}
    1258:	0008a89f 	muleq	r8, pc, r8	; <UNPREDICTABLE>
    125c:	0008bc00 	andeq	fp, r8, r0, lsl #24
    1260:	38000200 	stmdacc	r0, {r9}
    1264:	0009109f 	muleq	r9, pc, r0	; <UNPREDICTABLE>
    1268:	00092000 	andeq	r2, r9, r0
    126c:	38000200 	stmdacc	r0, {r9}
    1270:	0000009f 	muleq	r0, pc, r0	; <UNPREDICTABLE>
    1274:	00000000 	andeq	r0, r0, r0
    1278:	07070400 	streq	r0, [r7, -r0, lsl #8]
	...
    1284:	fc000000 	stc2	0, cr0, [r0], {-0}
    1288:	fc000005 	stc2	0, cr0, [r0], {5}
    128c:	04000005 	streq	r0, [r0], #-5
    1290:	7ed09100 	atnvcs	f1, f0
    1294:	0005fc9f 	muleq	r5, pc, ip	; <UNPREDICTABLE>
    1298:	00067800 	andeq	r7, r6, r0, lsl #16
    129c:	91000400 	tstls	r0, r0, lsl #8
    12a0:	789f7ed1 	ldmvc	pc, {r0, r4, r6, r7, r9, sl, fp, ip, sp, lr}	; <UNPREDICTABLE>
    12a4:	d4000006 	strle	r0, [r0], #-6
    12a8:	01000006 	tsteq	r0, r6
    12ac:	06d45c00 	ldrbeq	r5, [r4], r0, lsl #24
    12b0:	07000000 	streq	r0, [r0, -r0]
    12b4:	00040000 	andeq	r0, r4, r0
    12b8:	9f7ed191 	svcls	0x007ed191
    12bc:	000008a8 	andeq	r0, r0, r8, lsr #17
    12c0:	000008bc 			; <UNDEFINED> instruction: 0x000008bc
    12c4:	d1910004 	orrsle	r0, r1, r4
    12c8:	09109f7e 	ldmdbeq	r0, {r1, r2, r3, r4, r5, r6, r8, r9, sl, fp, ip, pc}
    12cc:	09140000 	ldmdbeq	r4, {}	; <UNPREDICTABLE>
    12d0:	00040000 	andeq	r0, r4, r0
    12d4:	9f7ed191 	svcls	0x007ed191
    12d8:	00000914 	andeq	r0, r0, r4, lsl r9
    12dc:	00000920 	andeq	r0, r0, r0, lsr #18
    12e0:	005c0001 	subseq	r0, ip, r1
    12e4:	00000000 	andeq	r0, r0, r0
    12e8:	04000000 	streq	r0, [r0], #-0
    12ec:	00010001 	andeq	r0, r1, r1
    12f0:	00060800 	andeq	r0, r6, r0, lsl #16
    12f4:	0006d000 	andeq	sp, r6, r0
    12f8:	55000100 	strpl	r0, [r0, #-256]	; 0xffffff00
    12fc:	000008a8 	andeq	r0, r0, r8, lsr #17
    1300:	000008b8 			; <UNDEFINED> instruction: 0x000008b8
    1304:	10550001 	subsne	r0, r5, r1
    1308:	20000009 	andcs	r0, r0, r9
    130c:	01000009 	tsteq	r0, r9
    1310:	00005500 	andeq	r5, r0, r0, lsl #10
    1314:	00000000 	andeq	r0, r0, r0
    1318:	00040000 	andeq	r0, r4, r0
    131c:	01000000 	mrseq	r0, (UNDEF: 0)
    1320:	01000000 	mrseq	r0, (UNDEF: 0)
    1324:	06080000 	streq	r0, [r8], -r0
    1328:	06b00000 	ldrteq	r0, [r0], r0
    132c:	00040000 	andeq	r0, r4, r0
    1330:	9f7ed091 	svcls	0x007ed091
    1334:	000006b0 			; <UNDEFINED> instruction: 0x000006b0
    1338:	000006c8 	andeq	r0, r0, r8, asr #13
    133c:	c8500001 	ldmdagt	r0, {r0}^
    1340:	d0000006 	andle	r0, r0, r6
    1344:	04000006 	streq	r0, [r0], #-6
    1348:	7ed09100 	atnvcs	f1, f0
    134c:	0008a89f 	muleq	r8, pc, r8	; <UNPREDICTABLE>
    1350:	0008b000 	andeq	fp, r8, r0
    1354:	91000400 	tstls	r0, r0, lsl #8
    1358:	b09f7ed0 			; <UNDEFINED> instruction: 0xb09f7ed0
    135c:	b8000008 	stmdalt	r0, {r3}
    1360:	01000008 	tsteq	r0, r8
    1364:	09105300 	ldmdbeq	r0, {r8, r9, ip, lr}
    1368:	09200000 	stmdbeq	r0!, {}	; <UNPREDICTABLE>
    136c:	00040000 	andeq	r0, r4, r0
    1370:	9f7ed091 	svcls	0x007ed091
	...
    137c:	01000004 	tsteq	r0, r4
    1380:	03010101 	movweq	r0, #4353	; 0x1101
    1384:	01000203 	tsteq	r0, r3, lsl #4
    1388:	00000000 	andeq	r0, r0, r0
    138c:	00000608 	andeq	r0, r0, r8, lsl #12
    1390:	00000624 	andeq	r0, r0, r4, lsr #12
    1394:	d1910004 	orrsle	r0, r1, r4
    1398:	06849f7e 			; <UNDEFINED> instruction: 0x06849f7e
    139c:	06840000 	streq	r0, [r4], r0
    13a0:	00010000 	andeq	r0, r1, r0
    13a4:	00068450 	andeq	r8, r6, r0, asr r4
    13a8:	00069800 	andeq	r9, r6, r0, lsl #16
    13ac:	70000300 	andvc	r0, r0, r0, lsl #6
    13b0:	06989f01 	ldreq	r9, [r8], r1, lsl #30
    13b4:	06a40000 	strteq	r0, [r4], r0
    13b8:	00030000 	andeq	r0, r3, r0
    13bc:	a49f0270 	ldrge	r0, [pc], #624	; 13c4 <__code_start__-0x6c3c>
    13c0:	a8000006 	stmdage	r0, {r1, r2}
    13c4:	03000006 	movweq	r0, #6
    13c8:	9f037000 	svcls	0x00037000
    13cc:	000008a8 	andeq	r0, r0, r8, lsr #17
    13d0:	000008b8 			; <UNDEFINED> instruction: 0x000008b8
    13d4:	d1910004 	orrsle	r0, r1, r4
    13d8:	09109f7e 	ldmdbeq	r0, {r1, r2, r3, r4, r5, r6, r8, r9, sl, fp, ip, pc}
    13dc:	09140000 	ldmdbeq	r4, {}	; <UNPREDICTABLE>
    13e0:	00040000 	andeq	r0, r4, r0
    13e4:	9f7ed191 	svcls	0x007ed191
    13e8:	00000914 	andeq	r0, r0, r4, lsl r9
    13ec:	00000920 	andeq	r0, r0, r0, lsr #18
    13f0:	005c0001 	subseq	r0, ip, r1
    13f4:	00000000 	andeq	r0, r0, r0
    13f8:	06000000 	streq	r0, [r0], -r0
    13fc:	01010000 	mrseq	r0, (UNDEF: 1)
    1400:	01010101 	tsteq	r1, r1, lsl #2
    1404:	00010002 	andeq	r0, r1, r2
    1408:	00060800 	andeq	r0, r6, r0, lsl #16
    140c:	00062400 	andeq	r2, r6, r0, lsl #8
    1410:	31000200 	mrscc	r0, R8_usr
    1414:	0006849f 	muleq	r6, pc, r4	; <UNPREDICTABLE>
    1418:	00069400 	andeq	r9, r6, r0, lsl #8
    141c:	52000100 	andpl	r0, r0, #0
    1420:	00000694 	muleq	r0, r4, r6
    1424:	000006a4 	andeq	r0, r0, r4, lsr #13
    1428:	a4590001 	ldrbge	r0, [r9], #-1
    142c:	a8000006 	stmdage	r0, {r1, r2}
    1430:	01000006 	tsteq	r0, r6
    1434:	06a85200 	strteq	r5, [r8], r0, lsl #4
    1438:	06a80000 	strteq	r0, [r8], r0
    143c:	00030000 	andeq	r0, r3, r0
    1440:	a89f0172 	ldmge	pc, {r1, r4, r5, r6, r8}	; <UNPREDICTABLE>
    1444:	b8000008 	stmdalt	r0, {r3}
    1448:	02000008 	andeq	r0, r0, #8, 0
    144c:	109f3100 	addsne	r3, pc, r0, lsl #2
    1450:	20000009 	andcs	r0, r0, r9
    1454:	02000009 	andeq	r0, r0, #9, 0
    1458:	009f3100 	addseq	r3, pc, r0, lsl #2
    145c:	00000000 	andeq	r0, r0, r0
    1460:	01000000 	mrseq	r0, (UNDEF: 0)
    1464:	01000606 	tsteq	r0, r6, lsl #12
    1468:	0006d000 	andeq	sp, r6, r0
    146c:	0006d000 	andeq	sp, r6, r0
    1470:	91000400 	tstls	r0, r0, lsl #8
    1474:	d09f7ed0 			; <UNDEFINED> instruction: 0xd09f7ed0
    1478:	00000006 	andeq	r0, r0, r6
    147c:	01000007 	tsteq	r0, r7
    1480:	08b85000 	ldmeq	r8!, {ip, lr}
    1484:	08bc0000 	ldmeq	ip!, {}	; <UNPREDICTABLE>
    1488:	00010000 	andeq	r0, r1, r0
    148c:	00000053 	andeq	r0, r0, r3, asr r0
    1490:	00000000 	andeq	r0, r0, r0
    1494:	00080100 	andeq	r0, r8, r0, lsl #2
    1498:	01010000 	mrseq	r0, (UNDEF: 1)
    149c:	d0070100 	andle	r0, r7, r0, lsl #2
    14a0:	d0000006 	andle	r0, r0, r6
    14a4:	06000006 	streq	r0, [r0], -r6
    14a8:	71007c00 	tstvc	r0, r0, lsl #24
    14ac:	e49f2200 	ldr	r2, [pc], #512	; 14b4 <__code_start__-0x6b4c>
    14b0:	e8000006 	stmda	r0, {r1, r2}
    14b4:	03000006 	movweq	r0, #6
    14b8:	9f7f7300 	svcls	0x007f7300
    14bc:	000006e8 	andeq	r0, r0, r8, ror #13
    14c0:	000006f0 	strdeq	r0, [r0], -r0	; <UNPREDICTABLE>
    14c4:	f0530001 			; <UNDEFINED> instruction: 0xf0530001
    14c8:	f8000006 			; <UNDEFINED> instruction: 0xf8000006
    14cc:	03000006 	movweq	r0, #6
    14d0:	9f7f7300 	svcls	0x007f7300
    14d4:	000008b8 			; <UNDEFINED> instruction: 0x000008b8
    14d8:	000008b8 			; <UNDEFINED> instruction: 0x000008b8
    14dc:	d1910004 	orrsle	r0, r1, r4
    14e0:	00009f7e 	andeq	r9, r0, lr, ror pc
    14e4:	00000000 	andeq	r0, r0, r0
    14e8:	00010000 	andeq	r0, r1, r0
    14ec:	06d00001 	ldrbeq	r0, [r0], r1
    14f0:	07000000 	streq	r0, [r0, -r0]
    14f4:	00030000 	andeq	r0, r3, r0
    14f8:	b89f8008 	ldmlt	pc, {r3, pc}	; <UNPREDICTABLE>
    14fc:	bc000008 	stclt	0, cr0, [r0], {8}
    1500:	03000008 	movweq	r0, #8
    1504:	9f800800 	svcls	0x00800800
	...
    1510:	00000001 	andeq	r0, r0, r1
    1514:	00010100 	andeq	r0, r1, r0, lsl #2
    1518:	01020000 	mrseq	r0, (UNDEF: 2)
    151c:	06d00001 	ldrbeq	r0, [r0], r1
    1520:	06e00000 	strbteq	r0, [r0], r0
    1524:	00040000 	andeq	r0, r4, r0
    1528:	9f7dd091 	svcls	0x007dd091
    152c:	000006e0 	andeq	r0, r0, r0, ror #13
    1530:	000006e4 	andeq	r0, r0, r4, ror #13
    1534:	e4550001 	ldrb	r0, [r5], #-1
    1538:	e4000006 	str	r0, [r0], #-6
    153c:	03000006 	movweq	r0, #6
    1540:	9f017200 	svcls	0x00017200
    1544:	000006e4 	andeq	r0, r0, r4, ror #13
    1548:	000006f0 	strdeq	r0, [r0], -r0	; <UNPREDICTABLE>
    154c:	02720003 	rsbseq	r0, r2, #3, 0
    1550:	0006f09f 	muleq	r6, pc, r0	; <UNPREDICTABLE>
    1554:	00070000 	andeq	r0, r7, r0
    1558:	72000300 	andvc	r0, r0, #0, 6
    155c:	07ec9f01 	strbeq	r9, [ip, r1, lsl #30]!
    1560:	07f40000 	ldrbeq	r0, [r4, r0]!
    1564:	00030000 	andeq	r0, r3, r0
    1568:	b89f0173 	ldmlt	pc, {r0, r1, r4, r5, r6, r8}	; <UNPREDICTABLE>
    156c:	bc000008 	stclt	0, cr0, [r0], {8}
    1570:	04000008 	streq	r0, [r0], #-8
    1574:	7dd09100 	ldfvcp	f1, [r0]
    1578:	0000009f 	muleq	r0, pc, r0	; <UNPREDICTABLE>
    157c:	00000000 	andeq	r0, r0, r0
    1580:	b8000400 	stmdalt	r0, {sl}
    1584:	bc000008 	stclt	0, cr0, [r0], {8}
    1588:	02000008 	andeq	r0, r0, #8, 0
    158c:	009f3200 	addseq	r3, pc, r0, lsl #4
    1590:	00000000 	andeq	r0, r0, r0
    1594:	07000000 	streq	r0, [r0, -r0]
    1598:	06000000 	streq	r0, [r0], -r0
    159c:	0006d000 	andeq	sp, r6, r0
    15a0:	0006e000 	andeq	lr, r6, r0
    15a4:	91000400 	tstls	r0, r0, lsl #8
    15a8:	e09f7dd0 			; <UNDEFINED> instruction: 0xe09f7dd0
    15ac:	00000006 	andeq	r0, r0, r6
    15b0:	01000007 	tsteq	r0, r7
    15b4:	08b85500 	ldmeq	r8!, {r8, sl, ip, lr}
    15b8:	08bc0000 	ldmeq	ip!, {}	; <UNPREDICTABLE>
    15bc:	00040000 	andeq	r0, r4, r0
    15c0:	9f7dd091 	svcls	0x007dd091
	...
    15cc:	00000001 	andeq	r0, r0, r1
    15d0:	0000070c 	andeq	r0, r0, ip, lsl #14
    15d4:	000007ec 	andeq	r0, r0, ip, ror #15
    15d8:	80080003 	andhi	r0, r8, r3
    15dc:	0008949f 	muleq	r8, pc, r4	; <UNPREDICTABLE>
    15e0:	0008a800 	andeq	sl, r8, r0, lsl #16
    15e4:	08000300 	stmdaeq	r0, {r8, r9}
    15e8:	00009f80 	andeq	r9, r0, r0, lsl #31
	...
    15f4:	070c0000 	streq	r0, [ip, -r0]
    15f8:	07ec0000 	strbeq	r0, [ip, r0]!
    15fc:	00020000 	andeq	r0, r2, r0
    1600:	08949f30 	ldmeq	r4, {r4, r5, r8, r9, sl, fp, ip, pc}
    1604:	08a80000 	stmiaeq	r8!, {}	; <UNPREDICTABLE>
    1608:	00020000 	andeq	r0, r2, r0
    160c:	00009f30 	andeq	r9, r0, r0, lsr pc
	...
    1618:	070c0000 	streq	r0, [ip, -r0]
    161c:	07d00000 	ldrbeq	r0, [r0, r0]
    1620:	00010000 	andeq	r0, r1, r0
    1624:	00089455 	andeq	r9, r8, r5, asr r4
    1628:	0008a800 	andeq	sl, r8, r0, lsl #16
    162c:	55000100 	strpl	r0, [r0, #-256]	; 0xffffff00
	...
    163c:	070c0000 	streq	r0, [ip, -r0]
    1640:	07d00000 	ldrbeq	r0, [r0, r0]
    1644:	00040000 	andeq	r0, r4, r0
    1648:	9f7dd091 	svcls	0x007dd091
    164c:	000007d0 	ldrdeq	r0, [r0], -r0	; <UNPREDICTABLE>
    1650:	000007ec 	andeq	r0, r0, ip, ror #15
    1654:	94550001 	ldrbls	r0, [r5], #-1
    1658:	a8000008 	stmdage	r0, {r3}
    165c:	04000008 	streq	r0, [r0], #-8
    1660:	7dd09100 	ldfvcp	f1, [r0]
    1664:	0000009f 	muleq	r0, pc, r0	; <UNPREDICTABLE>
	...
    1670:	00070c00 	andeq	r0, r7, r0, lsl #24
    1674:	0007ec00 	andeq	lr, r7, r0, lsl #24
    1678:	32000200 	andcc	r0, r0, #0, 4
    167c:	0008949f 	muleq	r8, pc, r4	; <UNPREDICTABLE>
    1680:	0008a800 	andeq	sl, r8, r0, lsl #16
    1684:	32000200 	andcc	r0, r0, #0, 4
    1688:	0000009f 	muleq	r0, pc, r0	; <UNPREDICTABLE>
    168c:	00000000 	andeq	r0, r0, r0
    1690:	05050300 	streq	r0, [r5, #-768]	; 0xfffffd00
    1694:	00000000 	andeq	r0, r0, r0
    1698:	0c000000 	stceq	0, cr0, [r0], {-0}
    169c:	0c000007 	stceq	0, cr0, [r0], {7}
    16a0:	01000007 	tsteq	r0, r7
    16a4:	070c5100 	streq	r5, [ip, -r0, lsl #2]
    16a8:	071c0000 	ldreq	r0, [ip, -r0]
    16ac:	00010000 	andeq	r0, r1, r0
    16b0:	00071c53 	andeq	r1, r7, r3, asr ip
    16b4:	00072400 	andeq	r2, r7, r0, lsl #8
    16b8:	72000300 	andvc	r0, r0, #0, 6
    16bc:	07249f01 	streq	r9, [r4, -r1, lsl #30]!
    16c0:	07cc0000 	strbeq	r0, [ip, r0]
    16c4:	00010000 	andeq	r0, r1, r0
    16c8:	00089453 	andeq	r9, r8, r3, asr r4
    16cc:	0008a800 	andeq	sl, r8, r0, lsl #16
    16d0:	53000100 	movwpl	r0, #256	; 0x100
	...
    16dc:	00010005 	andeq	r0, r1, r5
    16e0:	0000070c 	andeq	r0, r0, ip, lsl #14
    16e4:	00000720 	andeq	r0, r0, r0, lsr #14
    16e8:	24500001 	ldrbcs	r0, [r0], #-1
    16ec:	2c000007 	stccs	0, cr0, [r0], {7}
    16f0:	01000007 	tsteq	r0, r7
    16f4:	00005000 	andeq	r5, r0, r0
    16f8:	00000000 	andeq	r0, r0, r0
    16fc:	01030000 	mrseq	r0, (UNDEF: 3)
    1700:	07280100 	streq	r0, [r8, -r0, lsl #2]!
    1704:	07b00000 	ldreq	r0, [r0, r0]!
    1708:	00010000 	andeq	r0, r1, r0
    170c:	00089455 	andeq	r9, r8, r5, asr r4
    1710:	0008a000 	andeq	sl, r8, r0
    1714:	55000100 	strpl	r0, [r0, #-256]	; 0xffffff00
	...
    1720:	01000103 	tsteq	r0, r3, lsl #2
    1724:	00000728 	andeq	r0, r0, r8, lsr #14
    1728:	000007b0 			; <UNDEFINED> instruction: 0x000007b0
    172c:	94510001 	ldrbls	r0, [r1], #-1
    1730:	a0000008 	andge	r0, r0, r8
    1734:	01000008 	tsteq	r0, r8
    1738:	00005100 	andeq	r5, r0, r0, lsl #2
    173c:	00000000 	andeq	r0, r0, r0
    1740:	00030000 	andeq	r0, r3, r0
    1744:	01010100 	mrseq	r0, (UNDEF: 17)
    1748:	02030301 	andeq	r0, r3, #67108864	; 0x4000000
    174c:	07280100 	streq	r0, [r8, -r0, lsl #2]!
    1750:	07500000 	ldrbeq	r0, [r0, -r0]
    1754:	00010000 	andeq	r0, r1, r0
    1758:	00077453 	andeq	r7, r7, r3, asr r4
    175c:	00077400 	andeq	r7, r7, r0, lsl #8
    1760:	5e000100 	adfpls	f0, f0, f0
    1764:	00000774 	andeq	r0, r0, r4, ror r7
    1768:	00000788 	andeq	r0, r0, r8, lsl #15
    176c:	017e0003 	cmneq	lr, r3
    1770:	0007889f 	muleq	r7, pc, r8	; <UNPREDICTABLE>
    1774:	00079400 	andeq	r9, r7, r0, lsl #8
    1778:	7e000300 	cdpvc	3, 0, cr0, cr0, cr0, {0}
    177c:	07949f02 	ldreq	r9, [r4, r2, lsl #30]
    1780:	07980000 	ldreq	r0, [r8, r0]
    1784:	00030000 	andeq	r0, r3, r0
    1788:	949f037e 	ldrls	r0, [pc], #894	; 1790 <__code_start__-0x6870>
    178c:	a0000008 	andge	r0, r0, r8
    1790:	01000008 	tsteq	r0, r8
    1794:	00005300 	andeq	r5, r0, r0, lsl #6
	...
    17a0:	01010100 	mrseq	r0, (UNDEF: 17)
    17a4:	02010101 	andeq	r0, r1, #1073741824	; 0x40000000
    17a8:	072c0100 	streq	r0, [ip, -r0, lsl #2]!
    17ac:	07500000 	ldrbeq	r0, [r0, -r0]
    17b0:	00010000 	andeq	r0, r1, r0
    17b4:	00077450 	andeq	r7, r7, r0, asr r4
    17b8:	00078400 	andeq	r8, r7, r0, lsl #8
    17bc:	50000100 	andpl	r0, r0, r0, lsl #2
    17c0:	00000784 	andeq	r0, r0, r4, lsl #15
    17c4:	00000794 	muleq	r0, r4, r7
    17c8:	945b0001 	ldrbls	r0, [fp], #-1
    17cc:	98000007 	stmdals	r0, {r0, r1, r2}
    17d0:	01000007 	tsteq	r0, r7
    17d4:	07985000 	ldreq	r5, [r8, r0]
    17d8:	07980000 	ldreq	r0, [r8, r0]
    17dc:	00030000 	andeq	r0, r3, r0
    17e0:	949f0170 	ldrls	r0, [pc], #368	; 17e8 <__code_start__-0x6818>
    17e4:	a0000008 	andge	r0, r0, r8
    17e8:	01000008 	tsteq	r0, r8
    17ec:	00005000 	andeq	r5, r0, r0
    17f0:	00000000 	andeq	r0, r0, r0
    17f4:	00010000 	andeq	r0, r1, r0
    17f8:	07b00001 	ldreq	r0, [r0, r1]!
    17fc:	07ec0000 	strbeq	r0, [ip, r0]!
    1800:	00010000 	andeq	r0, r1, r0
    1804:	0008a051 	andeq	sl, r8, r1, asr r0
    1808:	0008a800 	andeq	sl, r8, r0, lsl #16
    180c:	51000100 	mrspl	r0, (UNDEF: 16)
	...
    1818:	00000001 	andeq	r0, r0, r1
    181c:	00010100 	andeq	r0, r1, r0, lsl #2
    1820:	07b00001 	ldreq	r0, [r0, r1]!
    1824:	07b40000 	ldreq	r0, [r4, r0]!
    1828:	00060000 	andeq	r0, r6, r0
    182c:	007c0073 	rsbseq	r0, ip, r3, ror r0
    1830:	07d49f22 	ldrbeq	r9, [r4, r2, lsr #30]
    1834:	07d80000 	ldrbeq	r0, [r8, r0]
    1838:	00030000 	andeq	r0, r3, r0
    183c:	d89f7f73 	ldmle	pc, {r0, r1, r4, r5, r6, r8, r9, sl, fp, ip, sp, lr}	; <UNPREDICTABLE>
    1840:	e0000007 	and	r0, r0, r7
    1844:	01000007 	tsteq	r0, r7
    1848:	07e05300 	strbeq	r5, [r0, r0, lsl #6]!
    184c:	07e80000 	strbeq	r0, [r8, r0]!
    1850:	00030000 	andeq	r0, r3, r0
    1854:	a09f7f73 	addsge	r7, pc, r3, ror pc	; <UNPREDICTABLE>
    1858:	a8000008 	stmdage	r0, {r3}
    185c:	01000008 	tsteq	r0, r8
    1860:	00005300 	andeq	r5, r0, r0, lsl #6
    1864:	00000000 	andeq	r0, r0, r0
    1868:	00010000 	andeq	r0, r1, r0
    186c:	07b00001 	ldreq	r0, [r0, r1]!
    1870:	07ec0000 	strbeq	r0, [ip, r0]!
    1874:	00030000 	andeq	r0, r3, r0
    1878:	a09f8008 	addsge	r8, pc, r8
    187c:	a8000008 	stmdage	r0, {r3}
    1880:	03000008 	movweq	r0, #8
    1884:	9f800800 	svcls	0x00800800
	...
    1890:	00000001 	andeq	r0, r0, r1
    1894:	00010100 	andeq	r0, r1, r0, lsl #2
    1898:	00010000 	andeq	r0, r1, r0
    189c:	000007b0 			; <UNDEFINED> instruction: 0x000007b0
    18a0:	000007d0 	ldrdeq	r0, [r0], -r0	; <UNPREDICTABLE>
    18a4:	d0910004 	addsle	r0, r1, r4
    18a8:	07d09f7d 			; <UNDEFINED> instruction: 0x07d09f7d
    18ac:	07d40000 	ldrbeq	r0, [r4, r0]
    18b0:	00010000 	andeq	r0, r1, r0
    18b4:	0007d455 	andeq	sp, r7, r5, asr r4
    18b8:	0007d400 	andeq	sp, r7, r0, lsl #8
    18bc:	7c000300 	stcvc	3, cr0, [r0], {-0}
    18c0:	07d49f01 	ldrbeq	r9, [r4, r1, lsl #30]
    18c4:	07e00000 	strbeq	r0, [r0, r0]!
    18c8:	00030000 	andeq	r0, r3, r0
    18cc:	e09f027c 	adds	r0, pc, ip, ror r2	; <UNPREDICTABLE>
    18d0:	ec000007 	stc	0, cr0, [r0], {7}
    18d4:	03000007 	movweq	r0, #7
    18d8:	9f017c00 	svcls	0x00017c00
    18dc:	000008a0 	andeq	r0, r0, r0, lsr #17
    18e0:	000008a8 	andeq	r0, r0, r8, lsr #17
    18e4:	d0910004 	addsle	r0, r1, r4
    18e8:	00009f7d 	andeq	r9, r0, sp, ror pc
    18ec:	00000000 	andeq	r0, r0, r0
    18f0:	00040000 	andeq	r0, r4, r0
    18f4:	07b00004 	ldreq	r0, [r0, r4]!
    18f8:	07b40000 	ldreq	r0, [r4, r0]!
    18fc:	00030000 	andeq	r0, r3, r0
    1900:	a09f0170 	addsge	r0, pc, r0, ror r1	; <UNPREDICTABLE>
    1904:	a8000008 	stmdage	r0, {r3}
    1908:	03000008 	movweq	r0, #8
    190c:	9f017000 	svcls	0x00017000
	...
    1918:	00000001 	andeq	r0, r0, r1
    191c:	000007bc 			; <UNDEFINED> instruction: 0x000007bc
    1920:	000007d0 	ldrdeq	r0, [r0], -r0	; <UNPREDICTABLE>
    1924:	d0910004 	addsle	r0, r1, r4
    1928:	07d09f7d 			; <UNDEFINED> instruction: 0x07d09f7d
    192c:	07ec0000 	strbeq	r0, [ip, r0]!
    1930:	00010000 	andeq	r0, r1, r0
    1934:	00000055 	andeq	r0, r0, r5, asr r0
	...
    1940:	00032800 	andeq	r2, r3, r0, lsl #16
    1944:	00036400 	andeq	r6, r3, r0, lsl #8
    1948:	50000100 	andpl	r0, r0, r0, lsl #2
    194c:	00000364 	andeq	r0, r0, r4, ror #6
    1950:	00000388 	andeq	r0, r0, r8, lsl #7
    1954:	01f30004 	mvnseq	r0, r4
    1958:	00009f50 	andeq	r9, r0, r0, asr pc
	...
    1964:	03280000 			; <UNDEFINED> instruction: 0x03280000
    1968:	035c0000 	cmpeq	ip, #0, 0
    196c:	00010000 	andeq	r0, r1, r0
    1970:	00035c51 	andeq	r5, r3, r1, asr ip
    1974:	00038800 	andeq	r8, r3, r0, lsl #16
    1978:	f3000400 	vshl.u8	d0, d0, d0
    197c:	009f5101 	addseq	r5, pc, r1, lsl #2
	...
    19a0:	14000000 	strne	r0, [r0], #-0
    19a4:	01000000 	mrseq	r0, (UNDEF: 0)
    19a8:	00145000 	andseq	r5, r4, r0
    19ac:	00200000 	eoreq	r0, r0, r0
    19b0:	00010000 	andeq	r0, r1, r0
    19b4:	0000205c 	andeq	r2, r0, ip, asr r0
    19b8:	00006800 	andeq	r6, r0, r0, lsl #16
    19bc:	71000300 	mrsvc	r0, LR_irq
    19c0:	00689f02 	rsbeq	r9, r8, r2, lsl #30
    19c4:	006c0000 	rsbeq	r0, ip, r0
    19c8:	00030000 	andeq	r0, r3, r0
    19cc:	6c9f0273 	lfmvs	f0, 4, [pc], {115}	; 0x73
    19d0:	94000000 	strls	r0, [r0], #-0
    19d4:	04000001 	streq	r0, [r0], #-1
    19d8:	5001f300 	andpl	pc, r1, r0, lsl #6
    19dc:	0001949f 	muleq	r1, pc, r4	; <UNPREDICTABLE>
    19e0:	00019800 	andeq	r9, r1, r0, lsl #16
    19e4:	73000300 	movwvc	r0, #768	; 0x300
    19e8:	01989f02 	orrseq	r9, r8, r2, lsl #30
    19ec:	01c00000 	biceq	r0, r0, r0
    19f0:	00040000 	andeq	r0, r4, r0
    19f4:	9f5001f3 	svcls	0x005001f3
    19f8:	000001c0 	andeq	r0, r0, r0, asr #3
    19fc:	000001c8 	andeq	r0, r0, r8, asr #3
    1a00:	c85c0001 	ldmdagt	ip, {r0}^
    1a04:	14000001 	strne	r0, [r0], #-1
    1a08:	03000002 	movweq	r0, #2
    1a0c:	9f027300 	svcls	0x00027300
    1a10:	00000214 	andeq	r0, r0, r4, lsl r2
    1a14:	000002ec 	andeq	r0, r0, ip, ror #5
    1a18:	01f30004 	mvnseq	r0, r4
    1a1c:	02ec9f50 	rsceq	r9, ip, #80, 30	; 0x140
    1a20:	02f40000 	rscseq	r0, r4, #0, 0
    1a24:	00030000 	andeq	r0, r3, r0
    1a28:	f49f0273 			; <UNDEFINED> instruction: 0xf49f0273
    1a2c:	28000002 	stmdacs	r0, {r1}
    1a30:	04000003 	streq	r0, [r0], #-3
    1a34:	5001f300 	andpl	pc, r1, r0, lsl #6
    1a38:	0000009f 	muleq	r0, pc, r0	; <UNPREDICTABLE>
	...
    1a4c:	00001c00 	andeq	r1, r0, r0, lsl #24
    1a50:	51000100 	mrspl	r0, (UNDEF: 16)
    1a54:	0000001c 	andeq	r0, r0, ip, lsl r0
    1a58:	000002e0 	andeq	r0, r0, r0, ror #5
    1a5c:	e0500001 	subs	r0, r0, r1
    1a60:	ec000002 	stc	0, cr0, [r0], {2}
    1a64:	04000002 	streq	r0, [r0], #-2
    1a68:	5101f300 	mrspl	pc, SP_irq	; <UNPREDICTABLE>
    1a6c:	0002ec9f 	muleq	r2, pc, ip	; <UNPREDICTABLE>
    1a70:	00032800 	andeq	r2, r3, r0, lsl #16
    1a74:	50000100 	andpl	r0, r0, r0, lsl #2
	...
    1a84:	00000100 	andeq	r0, r0, r0, lsl #2
    1a88:	00000000 	andeq	r0, r0, r0
    1a8c:	00020200 	andeq	r0, r2, r0, lsl #4
	...
    1aa4:	00000070 	andeq	r0, r0, r0, ror r0
    1aa8:	70520001 	subsvc	r0, r2, r1
    1aac:	78000000 	stmdavc	r0, {}	; <UNPREDICTABLE>
    1ab0:	01000000 	mrseq	r0, (UNDEF: 0)
    1ab4:	00785c00 	rsbseq	r5, r8, r0, lsl #24
    1ab8:	00a40000 	adceq	r0, r4, r0
    1abc:	00040000 	andeq	r0, r4, r0
    1ac0:	9f5201f3 	svcls	0x005201f3
    1ac4:	00000194 	muleq	r0, r4, r1
    1ac8:	0000019c 	muleq	r0, ip, r1
    1acc:	9c520001 	mrrcls	0, 0, r0, r2, cr1
    1ad0:	a4000001 	strge	r0, [r0], #-1
    1ad4:	01000001 	tsteq	r0, r1
    1ad8:	01a45c00 			; <UNDEFINED> instruction: 0x01a45c00
    1adc:	01c00000 	biceq	r0, r0, r0
    1ae0:	00040000 	andeq	r0, r4, r0
    1ae4:	9f5201f3 	svcls	0x005201f3
    1ae8:	000001c0 	andeq	r0, r0, r0, asr #3
    1aec:	00000220 	andeq	r0, r0, r0, lsr #4
    1af0:	20520001 	subscs	r0, r2, r1
    1af4:	28000002 	stmdacs	r0, {r1}
    1af8:	04000002 	streq	r0, [r0], #-2
    1afc:	1f007200 	svcne	0x00007200
    1b00:	0002289f 	muleq	r2, pc, r8	; <UNPREDICTABLE>
    1b04:	00027400 	andeq	r7, r2, r0, lsl #8
    1b08:	f3000500 	vrshl.u8	d0, d0, d0
    1b0c:	9f1f5201 	svcls	0x001f5201
    1b10:	00000274 	andeq	r0, r0, r4, ror r2
    1b14:	00000288 	andeq	r0, r0, r8, lsl #5
    1b18:	88520001 	ldmdahi	r2, {r0}^
    1b1c:	a0000002 	andge	r0, r0, r2
    1b20:	01000002 	tsteq	r0, r2
    1b24:	02cc5c00 	sbceq	r5, ip, #0, 24
    1b28:	02d00000 	sbcseq	r0, r0, #0, 0
    1b2c:	00010000 	andeq	r0, r1, r0
    1b30:	0002d052 	andeq	sp, r2, r2, asr r0
    1b34:	0002e700 	andeq	lr, r2, r0, lsl #14
    1b38:	5c000100 	stfpls	f0, [r0], {-0}
    1b3c:	000002e7 	andeq	r0, r0, r7, ror #5
    1b40:	000002ec 	andeq	r0, r0, ip, ror #5
    1b44:	01f30004 	mvnseq	r0, r4
    1b48:	02ec9f52 	rsceq	r9, ip, #328	; 0x148
    1b4c:	03000000 	movweq	r0, #0
    1b50:	00010000 	andeq	r0, r1, r0
    1b54:	00030052 	andeq	r0, r3, r2, asr r0
    1b58:	00032800 	andeq	r2, r3, r0, lsl #16
    1b5c:	5c000100 	stfpls	f0, [r0], {-0}
	...
    1b78:	00680000 	rsbeq	r0, r8, r0
    1b7c:	00010000 	andeq	r0, r1, r0
    1b80:	00006853 	andeq	r6, r0, r3, asr r8
    1b84:	00006c00 	andeq	r6, r0, r0, lsl #24
    1b88:	08000300 	stmdaeq	r0, {r8, r9}
    1b8c:	01949f7f 	orrseq	r9, r4, pc, ror pc
    1b90:	01980000 	orrseq	r0, r8, r0
    1b94:	00030000 	andeq	r0, r3, r0
    1b98:	c09f7f08 	addsgt	r7, pc, r8, lsl #30
    1b9c:	14000001 	strne	r0, [r0], #-1
    1ba0:	03000002 	movweq	r0, #2
    1ba4:	9f7f0800 	svcls	0x007f0800
    1ba8:	00000274 	andeq	r0, r0, r4, ror r2
    1bac:	00000290 	muleq	r0, r0, r2
    1bb0:	90530001 	subsls	r0, r3, r1
    1bb4:	a0000002 	andge	r0, r0, r2
    1bb8:	04000002 	streq	r0, [r0], #-2
    1bbc:	5301f300 	movwpl	pc, #4864	; 0x1300	; <UNPREDICTABLE>
    1bc0:	0002ec9f 	muleq	r2, pc, ip	; <UNPREDICTABLE>
    1bc4:	00032800 	andeq	r2, r3, r0, lsl #16
    1bc8:	08000300 	stmdaeq	r0, {r8, r9}
    1bcc:	00009f7f 	andeq	r9, r0, pc, ror pc
    1bd0:	00000000 	andeq	r0, r0, r0
    1bd4:	00010000 	andeq	r0, r1, r0
    1bd8:	02000000 	andeq	r0, r0, #0, 0
    1bdc:	01000002 	tsteq	r0, r2
    1be0:	00000001 	andeq	r0, r0, r1
    1be4:	00000000 	andeq	r0, r0, r0
    1be8:	00020200 	andeq	r0, r2, r0, lsl #4
    1bec:	00010000 	andeq	r0, r1, r0
    1bf0:	00000000 	andeq	r0, r0, r0
    1bf4:	01000000 	mrseq	r0, (UNDEF: 0)
    1bf8:	00000001 	andeq	r0, r0, r1
    1bfc:	00020200 	andeq	r0, r2, r0, lsl #4
    1c00:	00000000 	andeq	r0, r0, r0
    1c04:	00010100 	andeq	r0, r1, r0, lsl #2
    1c08:	00180000 	andseq	r0, r8, r0
    1c0c:	00700000 	rsbseq	r0, r0, r0
    1c10:	00040000 	andeq	r0, r4, r0
    1c14:	9f7fa091 	svcls	0x007fa091
    1c18:	00000070 	andeq	r0, r0, r0, ror r0
    1c1c:	00000078 	andeq	r0, r0, r8, ror r0
    1c20:	78520001 	ldmdavc	r2, {r0}^
    1c24:	78000000 	stmdavc	r0, {}	; <UNPREDICTABLE>
    1c28:	01000000 	mrseq	r0, (UNDEF: 0)
    1c2c:	00785400 	rsbseq	r5, r8, r0, lsl #8
    1c30:	00880000 	addeq	r0, r8, r0
    1c34:	00030000 	andeq	r0, r3, r0
    1c38:	889f0174 	ldmhi	pc, {r2, r4, r5, r6, r8}	; <UNPREDICTABLE>
    1c3c:	90000000 	andls	r0, r0, r0
    1c40:	01000000 	mrseq	r0, (UNDEF: 0)
    1c44:	00905400 	addseq	r5, r0, r0, lsl #8
    1c48:	00a00000 	adceq	r0, r0, r0
    1c4c:	00030000 	andeq	r0, r3, r0
    1c50:	a09f0274 	addsge	r0, pc, r4, ror r2	; <UNPREDICTABLE>
    1c54:	b0000000 	andlt	r0, r0, r0
    1c58:	01000000 	mrseq	r0, (UNDEF: 0)
    1c5c:	01945e00 	orrseq	r5, r4, r0, lsl #28
    1c60:	019c0000 	orrseq	r0, ip, r0
    1c64:	00040000 	andeq	r0, r4, r0
    1c68:	9f7fa091 	svcls	0x007fa091
    1c6c:	0000019c 	muleq	r0, ip, r1
    1c70:	000001a4 	andeq	r0, r0, r4, lsr #3
    1c74:	a4520001 	ldrbge	r0, [r2], #-1
    1c78:	a4000001 	strge	r0, [r0], #-1
    1c7c:	01000001 	tsteq	r0, r1
    1c80:	01a45e00 			; <UNDEFINED> instruction: 0x01a45e00
    1c84:	01b40000 			; <UNDEFINED> instruction: 0x01b40000
    1c88:	00030000 	andeq	r0, r3, r0
    1c8c:	b49f017e 	ldrlt	r0, [pc], #382	; 1c94 <__code_start__-0x636c>
    1c90:	c0000001 	andgt	r0, r0, r1
    1c94:	01000001 	tsteq	r0, r1
    1c98:	01c05e00 	biceq	r5, r0, r0, lsl #28
    1c9c:	02280000 	eoreq	r0, r8, #0, 0
    1ca0:	00040000 	andeq	r0, r4, r0
    1ca4:	9f7fa091 	svcls	0x007fa091
    1ca8:	00000228 	andeq	r0, r0, r8, lsr #4
    1cac:	00000234 	andeq	r0, r0, r4, lsr r2
    1cb0:	34520001 	ldrbcc	r0, [r2], #-1
    1cb4:	58000002 	stmdapl	r0, {r1}
    1cb8:	01000002 	tsteq	r0, r2
    1cbc:	02585e00 	subseq	r5, r8, #0, 28
    1cc0:	025c0000 	subseq	r0, ip, #0, 0
    1cc4:	00030000 	andeq	r0, r3, r0
    1cc8:	5c9f017e 	ldfpls	f0, [pc], {126}	; 0x7e
    1ccc:	64000002 	strvs	r0, [r0], #-2
    1cd0:	01000002 	tsteq	r0, r2
    1cd4:	02645e00 	rsbeq	r5, r4, #0, 28
    1cd8:	02700000 	rsbseq	r0, r0, #0, 0
    1cdc:	00030000 	andeq	r0, r3, r0
    1ce0:	709f0271 	addsvc	r0, pc, r1, ror r2	; <UNPREDICTABLE>
    1ce4:	74000002 	strvc	r0, [r0], #-2
    1ce8:	01000002 	tsteq	r0, r2
    1cec:	02745e00 	rsbseq	r5, r4, #0, 28
    1cf0:	02740000 	rsbseq	r0, r4, #0, 0
    1cf4:	00040000 	andeq	r0, r4, r0
    1cf8:	9f7fa091 	svcls	0x007fa091
    1cfc:	00000274 	andeq	r0, r0, r4, ror r2
    1d00:	000002a0 	andeq	r0, r0, r0, lsr #5
    1d04:	a1910004 	orrsge	r0, r1, r4
    1d08:	02c09f7f 	sbceq	r9, r0, #508	; 0x1fc
    1d0c:	02c80000 	sbceq	r0, r8, #0, 0
    1d10:	00010000 	andeq	r0, r1, r0
    1d14:	0002c85e 	andeq	ip, r2, lr, asr r8
    1d18:	0002cc00 	andeq	ip, r2, r0, lsl #24
    1d1c:	56000100 	strpl	r0, [r0], -r0, lsl #2
    1d20:	000002cc 	andeq	r0, r0, ip, asr #5
    1d24:	000002ec 	andeq	r0, r0, ip, ror #5
    1d28:	a0910004 	addsge	r0, r1, r4
    1d2c:	02ec9f7f 	rsceq	r9, ip, #508	; 0x1fc
    1d30:	02fc0000 	rscseq	r0, ip, #0, 0
    1d34:	00040000 	andeq	r0, r4, r0
    1d38:	9f7fa191 	svcls	0x007fa191
    1d3c:	000002fc 	strdeq	r0, [r0], -ip
    1d40:	00000328 	andeq	r0, r0, r8, lsr #6
    1d44:	005e0001 	subseq	r0, lr, r1
	...
    1d5c:	01010000 	mrseq	r0, (UNDEF: 1)
	...
    1d70:	00002000 	andeq	r2, r0, r0
    1d74:	00007000 	andeq	r7, r0, r0
    1d78:	52000100 	andpl	r0, r0, #0
    1d7c:	00000070 	andeq	r0, r0, r0, ror r0
    1d80:	00000094 	muleq	r0, r4, r0
    1d84:	945c0001 	ldrbls	r0, [ip], #-1
    1d88:	9c000001 	stcls	0, cr0, [r0], {1}
    1d8c:	01000001 	tsteq	r0, r1
    1d90:	019c5200 	orrseq	r5, ip, r0, lsl #4
    1d94:	01c00000 	biceq	r0, r0, r0
    1d98:	00010000 	andeq	r0, r1, r0
    1d9c:	0001c85c 	andeq	ip, r1, ip, asr r8
    1da0:	00021000 	andeq	r1, r2, r0
    1da4:	5c000100 	stfpls	f0, [r0], {-0}
    1da8:	00000210 	andeq	r0, r0, r0, lsl r2
    1dac:	00000224 	andeq	r0, r0, r4, lsr #4
    1db0:	24520001 	ldrbcs	r0, [r2], #-1
    1db4:	48000002 	stmdami	r0, {r1}
    1db8:	01000002 	tsteq	r0, r2
    1dbc:	02485c00 	subeq	r5, r8, #0, 24
    1dc0:	025c0000 	subseq	r0, ip, #0, 0
    1dc4:	00010000 	andeq	r0, r1, r0
    1dc8:	00025c55 	andeq	r5, r2, r5, asr ip
    1dcc:	00026800 	andeq	r6, r2, r0, lsl #16
    1dd0:	5c000100 	stfpls	f0, [r0], {-0}
    1dd4:	00000268 	andeq	r0, r0, r8, ror #4
    1dd8:	00000274 	andeq	r0, r0, r4, ror r2
    1ddc:	00750019 	rsbseq	r0, r5, r9, lsl r0
    1de0:	25f72cf7 	ldrbcs	r2, [r7, #3319]!	; 0xcf7
    1de4:	2cf70076 	ldclcs	0, cr0, [r7], #472	; 0x1d8
    1de8:	081e25f7 	ldmdaeq	lr, {r0, r1, r2, r4, r5, r6, r7, r8, sl, sp}
    1dec:	2525f720 	strcs	pc, [r5, #-1824]!	; 0xfffff8e0
    1df0:	00f72cf7 	ldrshteq	r2, [r7], #199	; 0xc7
    1df4:	749f2533 	ldrvc	r2, [pc], #1331	; 1dfc <__code_start__-0x6204>
    1df8:	88000002 	stmdahi	r0, {r1}
    1dfc:	01000002 	tsteq	r0, r2
    1e00:	02885200 	addeq	r5, r8, #0, 4
    1e04:	02a00000 	adceq	r0, r0, #0, 0
    1e08:	00010000 	andeq	r0, r1, r0
    1e0c:	0002cc5c 	andeq	ip, r2, ip, asr ip
    1e10:	0002d000 	andeq	sp, r2, r0
    1e14:	52000100 	andpl	r0, r0, #0
    1e18:	000002d0 	ldrdeq	r0, [r0], -r0	; <UNPREDICTABLE>
    1e1c:	000002e7 	andeq	r0, r0, r7, ror #5
    1e20:	e75c0001 	ldrb	r0, [ip, -r1]
    1e24:	ec000002 	stc	0, cr0, [r0], {2}
    1e28:	04000002 	streq	r0, [r0], #-2
    1e2c:	5201f300 	andpl	pc, r1, #0, 6
    1e30:	0002ec9f 	muleq	r2, pc, ip	; <UNPREDICTABLE>
    1e34:	00030000 	andeq	r0, r3, r0
    1e38:	52000100 	andpl	r0, r0, #0
    1e3c:	00000300 	andeq	r0, r0, r0, lsl #6
    1e40:	00000328 	andeq	r0, r0, r8, lsr #6
    1e44:	005c0001 	subseq	r0, ip, r1
    1e48:	00000000 	andeq	r0, r0, r0
    1e4c:	04000000 	streq	r0, [r0], #-0
    1e50:	00000400 	andeq	r0, r0, r0, lsl #8
    1e54:	04000001 	streq	r0, [r0], #-1
    1e58:	0000a400 	andeq	sl, r0, r0, lsl #8
    1e5c:	0000b000 	andeq	fp, r0, r0
    1e60:	53000100 	movwpl	r0, #256	; 0x100
    1e64:	0000027c 	andeq	r0, r0, ip, ror r2
    1e68:	00000290 	muleq	r0, r0, r2
    1e6c:	90530001 	subsls	r0, r3, r1
    1e70:	9c000002 	stcls	0, cr0, [r0], {2}
    1e74:	04000002 	streq	r0, [r0], #-2
    1e78:	5301f300 	movwpl	pc, #4864	; 0x1300	; <UNPREDICTABLE>
    1e7c:	0002c09f 	muleq	r2, pc, r0	; <UNPREDICTABLE>
    1e80:	0002cc00 	andeq	ip, r2, r0, lsl #24
    1e84:	53000100 	movwpl	r0, #256	; 0x100
    1e88:	000002f0 	strdeq	r0, [r0], -r0	; <UNPREDICTABLE>
    1e8c:	00000328 	andeq	r0, r0, r8, lsr #6
    1e90:	7f080003 	svcvc	0x00080003
    1e94:	0000009f 	muleq	r0, pc, r0	; <UNPREDICTABLE>
    1e98:	00000000 	andeq	r0, r0, r0
    1e9c:	00000400 	andeq	r0, r0, r0, lsl #8
    1ea0:	00000401 	andeq	r0, r0, r1, lsl #8
    1ea4:	00000001 	andeq	r0, r0, r1
    1ea8:	00000400 	andeq	r0, r0, r0, lsl #8
    1eac:	0000a400 	andeq	sl, r0, r0, lsl #8
    1eb0:	0000b000 	andeq	fp, r0, r0
    1eb4:	52000100 	andpl	r0, r0, #0
    1eb8:	000000b0 	strheq	r0, [r0], -r0	; <UNPREDICTABLE>
    1ebc:	0000015c 	andeq	r0, r0, ip, asr r1
    1ec0:	a0910004 	addsge	r0, r1, r4
    1ec4:	027c9f7f 	rsbseq	r9, ip, #508	; 0x1fc
    1ec8:	02940000 	addseq	r0, r4, #0, 0
    1ecc:	00040000 	andeq	r0, r4, r0
    1ed0:	9f7fa091 	svcls	0x007fa091
    1ed4:	00000294 	muleq	r0, r4, r2
    1ed8:	0000029c 	muleq	r0, ip, r2
    1edc:	b45e0001 	ldrblt	r0, [lr], #-1
    1ee0:	c0000002 	andgt	r0, r0, r2
    1ee4:	04000002 	streq	r0, [r0], #-2
    1ee8:	7fa09100 	svcvc	0x00a09100
    1eec:	0002c09f 	muleq	r2, pc, r0	; <UNPREDICTABLE>
    1ef0:	0002cc00 	andeq	ip, r2, r0, lsl #24
    1ef4:	52000100 	andpl	r0, r0, #0
    1ef8:	000002f0 	strdeq	r0, [r0], -r0	; <UNPREDICTABLE>
    1efc:	00000300 	andeq	r0, r0, r0, lsl #6
    1f00:	a0910004 	addsge	r0, r1, r4
    1f04:	03009f7f 	movweq	r9, #3967	; 0xf7f
    1f08:	03280000 			; <UNDEFINED> instruction: 0x03280000
    1f0c:	00010000 	andeq	r0, r1, r0
    1f10:	00000052 	andeq	r0, r0, r2, asr r0
    1f14:	00000000 	andeq	r0, r0, r0
    1f18:	00000400 	andeq	r0, r0, r0, lsl #8
    1f1c:	01010101 	tsteq	r1, r1, lsl #2
    1f20:	04020303 	streq	r0, [r2], #-771	; 0xfffffcfd
    1f24:	00000001 	andeq	r0, r0, r1
    1f28:	00000400 	andeq	r0, r0, r0, lsl #8
    1f2c:	0000a400 	andeq	sl, r0, r0, lsl #8
    1f30:	0000b000 	andeq	fp, r0, r0
    1f34:	5e000100 	adfpls	f0, f0, f0
    1f38:	0000010c 	andeq	r0, r0, ip, lsl #2
    1f3c:	0000010c 	andeq	r0, r0, ip, lsl #2
    1f40:	0c550001 	mrrceq	0, 0, r0, r5, cr1
    1f44:	20000001 	andcs	r0, r0, r1
    1f48:	03000001 	movweq	r0, #1
    1f4c:	9f017500 	svcls	0x00017500
    1f50:	00000120 	andeq	r0, r0, r0, lsr #2
    1f54:	0000012c 	andeq	r0, r0, ip, lsr #2
    1f58:	02750003 	rsbseq	r0, r5, #3, 0
    1f5c:	00012c9f 	muleq	r1, pc, ip	; <UNPREDICTABLE>
    1f60:	00013000 	andeq	r3, r1, r0
    1f64:	75000300 	strvc	r0, [r0, #-768]	; 0xfffffd00
    1f68:	027c9f03 	rsbseq	r9, ip, #3, 30
    1f6c:	029c0000 	addseq	r0, ip, #0, 0
    1f70:	00040000 	andeq	r0, r4, r0
    1f74:	9f7fa191 	svcls	0x007fa191
    1f78:	000002c0 	andeq	r0, r0, r0, asr #5
    1f7c:	000002c8 	andeq	r0, r0, r8, asr #5
    1f80:	c85e0001 	ldmdagt	lr, {r0}^
    1f84:	cc000002 	stcgt	0, cr0, [r0], {2}
    1f88:	01000002 	tsteq	r0, r2
    1f8c:	02f05600 	rscseq	r5, r0, #0, 12
    1f90:	02fc0000 	rscseq	r0, ip, #0, 0
    1f94:	00040000 	andeq	r0, r4, r0
    1f98:	9f7fa191 	svcls	0x007fa191
    1f9c:	000002fc 	strdeq	r0, [r0], -ip
    1fa0:	00000328 	andeq	r0, r0, r8, lsr #6
    1fa4:	005e0001 	subseq	r0, lr, r1
	...
    1fb0:	01010000 	mrseq	r0, (UNDEF: 1)
    1fb4:	01010101 	tsteq	r1, r1, lsl #2
    1fb8:	00010602 	andeq	r0, r1, r2, lsl #12
    1fbc:	a8000600 	stmdage	r0, {r9, sl}
    1fc0:	b0000000 	andlt	r0, r0, r0
    1fc4:	01000000 	mrseq	r0, (UNDEF: 0)
    1fc8:	010c5100 	mrseq	r5, (UNDEF: 28)
    1fcc:	011c0000 	tsteq	ip, r0
    1fd0:	00010000 	andeq	r0, r1, r0
    1fd4:	00011c5c 	andeq	r1, r1, ip, asr ip
    1fd8:	00012c00 	andeq	r2, r1, r0, lsl #24
    1fdc:	58000100 	stmdapl	r0, {r8}
    1fe0:	0000012c 	andeq	r0, r0, ip, lsr #2
    1fe4:	00000130 	andeq	r0, r0, r0, lsr r1
    1fe8:	305c0001 	subscc	r0, ip, r1
    1fec:	30000001 	andcc	r0, r0, r1
    1ff0:	03000001 	movweq	r0, #1
    1ff4:	9f017c00 	svcls	0x00017c00
    1ff8:	0000027c 	andeq	r0, r0, ip, ror r2
    1ffc:	0000029c 	muleq	r0, ip, r2
    2000:	9f310002 	svcls	0x00310002
    2004:	000002c0 	andeq	r0, r0, r0, asr #5
    2008:	000002cc 	andeq	r0, r0, ip, asr #5
    200c:	f0510001 			; <UNDEFINED> instruction: 0xf0510001
    2010:	28000002 	stmdacs	r0, {r1}
    2014:	02000003 	andeq	r0, r0, #3, 0
    2018:	009f3100 	addseq	r3, pc, r0, lsl #2
    201c:	00000000 	andeq	r0, r0, r0
    2020:	01000000 	mrseq	r0, (UNDEF: 0)
    2024:	01010606 	tsteq	r1, r6, lsl #12
    2028:	5c010000 	stcpl	0, cr0, [r1], {-0}
    202c:	5c000001 	stcpl	0, cr0, [r0], {1}
    2030:	04000001 	streq	r0, [r0], #-1
    2034:	7fa09100 	svcvc	0x00a09100
    2038:	00015c9f 	muleq	r1, pc, ip	; <UNPREDICTABLE>
    203c:	00018c00 	andeq	r8, r1, r0, lsl #24
    2040:	52000100 	andpl	r0, r0, #0
    2044:	0000029c 	muleq	r0, ip, r2
    2048:	000002a0 	andeq	r0, r0, r0, lsr #5
    204c:	a05e0001 	subsge	r0, lr, r1
    2050:	ac000002 	stcge	0, cr0, [r0], {2}
    2054:	01000002 	tsteq	r0, r2
    2058:	00005200 	andeq	r5, r0, r0, lsl #4
	...
    2064:	00010100 	andeq	r0, r1, r0, lsl #2
    2068:	016c0701 	cmneq	ip, r1, lsl #14
    206c:	01700000 	cmneq	r0, r0
    2070:	00030000 	andeq	r0, r3, r0
    2074:	709f7f73 	addsvc	r7, pc, r3, ror pc	; <UNPREDICTABLE>
    2078:	78000001 	stmdavc	r0, {r0}
    207c:	01000001 	tsteq	r0, r1
    2080:	01785300 	cmneq	r8, r0, lsl #6
    2084:	01840000 	orreq	r0, r4, r0
    2088:	00030000 	andeq	r0, r3, r0
    208c:	9c9f7f73 	ldcls	15, cr7, [pc], {115}	; 0x73
    2090:	9c000002 	stcls	0, cr0, [r0], {2}
    2094:	04000002 	streq	r0, [r0], #-2
    2098:	7fa19100 	svcvc	0x00a19100
    209c:	0000009f 	muleq	r0, pc, r0	; <UNPREDICTABLE>
    20a0:	00000000 	andeq	r0, r0, r0
    20a4:	01010100 	mrseq	r0, (UNDEF: 17)
    20a8:	00015c01 	andeq	r5, r1, r1, lsl #24
    20ac:	00018c00 	andeq	r8, r1, r0, lsl #24
    20b0:	08000300 	stmdaeq	r0, {r8, r9}
    20b4:	029c9f80 	addseq	r9, ip, #128, 30	; 0x200
    20b8:	02ac0000 	adceq	r0, ip, #0, 0
    20bc:	00030000 	andeq	r0, r3, r0
    20c0:	009f8008 	addseq	r8, pc, r8
    20c4:	00000000 	andeq	r0, r0, r0
    20c8:	01000000 	mrseq	r0, (UNDEF: 0)
    20cc:	01010000 	mrseq	r0, (UNDEF: 1)
    20d0:	01010000 	mrseq	r0, (UNDEF: 1)
    20d4:	01010101 	tsteq	r1, r1, lsl #2
    20d8:	00015c01 	andeq	r5, r1, r1, lsl #24
    20dc:	00016c00 	andeq	r6, r1, r0, lsl #24
    20e0:	50000100 	andpl	r0, r0, r0, lsl #2
    20e4:	0000016c 	andeq	r0, r0, ip, ror #2
    20e8:	0000016c 	andeq	r0, r0, ip, ror #2
    20ec:	017c0003 	cmneq	ip, r3
    20f0:	00016c9f 	muleq	r1, pc, ip	; <UNPREDICTABLE>
    20f4:	00017800 	andeq	r7, r1, r0, lsl #16
    20f8:	7c000300 	stcvc	3, cr0, [r0], {-0}
    20fc:	01789f02 	cmneq	r8, r2, lsl #30
    2100:	01880000 	orreq	r0, r8, r0
    2104:	00030000 	andeq	r0, r3, r0
    2108:	889f017c 	ldmhi	pc, {r2, r3, r4, r5, r6, r8}	; <UNPREDICTABLE>
    210c:	8c000001 	stchi	0, cr0, [r0], {1}
    2110:	03000001 	movweq	r0, #1
    2114:	9f017e00 	svcls	0x00017e00
    2118:	0000029c 	muleq	r0, ip, r2
    211c:	000002a4 	andeq	r0, r0, r4, lsr #5
    2120:	a4500001 	ldrbge	r0, [r0], #-1
    2124:	ac000002 	stcge	0, cr0, [r0], {2}
    2128:	03000002 	movweq	r0, #2
    212c:	9f017e00 	svcls	0x00017e00
	...
    2138:	00040004 	andeq	r0, r4, r4
    213c:	015c0100 	cmpeq	ip, r0, lsl #2
    2140:	01600000 	cmneq	r0, r0
    2144:	00030000 	andeq	r0, r3, r0
    2148:	9c9f0171 	ldflss	f0, [pc], {113}	; 0x71
    214c:	a0000002 	andge	r0, r0, r2
    2150:	02000002 	andeq	r0, r0, #2, 0
    2154:	a09f3200 	addsge	r3, pc, r0, lsl #4
    2158:	ac000002 	stcge	0, cr0, [r0], {2}
    215c:	03000002 	movweq	r0, #2
    2160:	9f017100 	svcls	0x00017100
	...
    216c:	00060007 	andeq	r0, r6, r7
    2170:	0000015c 	andeq	r0, r0, ip, asr r1
    2174:	00000194 	muleq	r0, r4, r1
    2178:	9c500001 	mrrcls	0, 0, r0, r0, cr1	; <UNPREDICTABLE>
    217c:	b4000002 	strlt	r0, [r0], #-2
    2180:	01000002 	tsteq	r0, r2
    2184:	00005000 	andeq	r5, r0, r0
    2188:	00000000 	andeq	r0, r0, r0
    218c:	01010000 	mrseq	r0, (UNDEF: 1)
    2190:	02140001 	andseq	r0, r4, #1, 0
    2194:	02200000 	eoreq	r0, r0, #0, 0
    2198:	00020000 	andeq	r0, r2, r0
    219c:	02209f30 	eoreq	r9, r0, #48, 30	; 0xc0
    21a0:	02340000 	eorseq	r0, r4, #0, 0
    21a4:	00020000 	andeq	r0, r2, r0
    21a8:	00009f31 	andeq	r9, r0, r1, lsr pc
    21ac:	00000000 	andeq	r0, r0, r0
    21b0:	01000000 	mrseq	r0, (UNDEF: 0)
    21b4:	01000001 	tsteq	r0, r1
    21b8:	01000001 	tsteq	r0, r1
    21bc:	01000001 	tsteq	r0, r1
    21c0:	01000001 	tsteq	r0, r1
    21c4:	02000001 	andeq	r0, r0, #1, 0
    21c8:	00800102 	addeq	r0, r0, r2, lsl #2
    21cc:	00800000 	addeq	r0, r0, r0
    21d0:	00010000 	andeq	r0, r1, r0
    21d4:	00008053 	andeq	r8, r0, r3, asr r0
    21d8:	00008c00 	andeq	r8, r0, r0, lsl #24
    21dc:	73000300 	movwvc	r0, #768	; 0x300
    21e0:	008c9f04 	addeq	r9, ip, r4, lsl #30
    21e4:	00940000 	addseq	r0, r4, r0
    21e8:	00010000 	andeq	r0, r1, r0
    21ec:	00009451 	andeq	r9, r0, r1, asr r4
    21f0:	00009800 	andeq	r9, r0, r0, lsl #16
    21f4:	73000300 	movwvc	r0, #768	; 0x300
    21f8:	00989f08 	addseq	r9, r8, r8, lsl #30
    21fc:	00a40000 	adceq	r0, r4, r0
    2200:	00010000 	andeq	r0, r1, r0
    2204:	0000a451 	andeq	sl, r0, r1, asr r4
    2208:	0000a800 	andeq	sl, r0, r0, lsl #16
    220c:	73000300 	movwvc	r0, #768	; 0x300
    2210:	00a89f0c 	adceq	r9, r8, ip, lsl #30
    2214:	00b40000 	adcseq	r0, r4, r0
    2218:	00010000 	andeq	r0, r1, r0
    221c:	0000b451 	andeq	fp, r0, r1, asr r4
    2220:	0000b800 	andeq	fp, r0, r0, lsl #16
    2224:	73000300 	movwvc	r0, #768	; 0x300
    2228:	00b89f10 	adcseq	r9, r8, r0, lsl pc
    222c:	00c40000 	sbceq	r0, r4, r0
    2230:	00010000 	andeq	r0, r1, r0
    2234:	0000c451 	andeq	ip, r0, r1, asr r4
    2238:	0000c800 	andeq	ip, r0, r0, lsl #16
    223c:	73000300 	movwvc	r0, #768	; 0x300
    2240:	00c89f14 	sbceq	r9, r8, r4, lsl pc
    2244:	00d00000 	sbcseq	r0, r0, r0
    2248:	00010000 	andeq	r0, r1, r0
    224c:	0000d051 	andeq	sp, r0, r1, asr r0
    2250:	0000d400 	andeq	sp, r0, r0, lsl #8
    2254:	71000300 	mrsvc	r0, LR_irq
    2258:	00009f04 	andeq	r9, r0, r4, lsl #30
    225c:	00000000 	andeq	r0, r0, r0
    2260:	00020000 	andeq	r0, r2, r0
    2264:	000000d8 	ldrdeq	r0, [r0], -r8
    2268:	000000e8 	andeq	r0, r0, r8, ror #1
    226c:	9f310002 	svcls	0x00310002
	...
    2278:	01000004 	tsteq	r0, r4
    227c:	000097c8 	andeq	r9, r0, r8, asr #15
    2280:	000097d0 	ldrdeq	r9, [r0], -r0
    2284:	9f300002 	svcls	0x00300002
    2288:	000097d0 	ldrdeq	r9, [r0], -r0
    228c:	000097d0 	ldrdeq	r9, [r0], -r0
    2290:	00530001 	subseq	r0, r3, r1
    2294:	00000000 	andeq	r0, r0, r0
    2298:	03000000 	movweq	r0, #0
    229c:	00000000 	andeq	r0, r0, r0
    22a0:	dc000000 	stcle	0, cr0, [r0], {-0}
    22a4:	e0000097 	mul	r0, r7, r0
    22a8:	02000097 	andeq	r0, r0, #151, 0	; 0x97
    22ac:	e09f3000 	adds	r3, pc, r0
    22b0:	e4000097 	str	r0, [r0], #-151	; 0xffffff69
    22b4:	01000097 	swpeq	r0, r7, [r0]	; <UNPREDICTABLE>
    22b8:	97e45300 	strbls	r5, [r4, r0, lsl #6]!
    22bc:	97e80000 	strbls	r0, [r8, r0]!
    22c0:	00050000 	andeq	r0, r5, r0
    22c4:	21400073 	hvccs	3
    22c8:	0097e89f 	umullseq	lr, r7, pc, r8	; <UNPREDICTABLE>
    22cc:	0097ec00 	addseq	lr, r7, r0, lsl #24
    22d0:	53000100 	movwpl	r0, #256	; 0x100
	...
    22dc:	00000002 	andeq	r0, r0, r2
    22e0:	0000979c 	muleq	r0, ip, r7
    22e4:	000097a0 	andeq	r9, r0, r0, lsr #15
    22e8:	9f300002 	svcls	0x00300002
    22ec:	000097a0 	andeq	r9, r0, r0, lsr #15
    22f0:	000097a4 	andeq	r9, r0, r4, lsr #15
    22f4:	00500001 	subseq	r0, r0, r1
    22f8:	00000000 	andeq	r0, r0, r0
    22fc:	02000000 	andeq	r0, r0, #0, 0
    2300:	00000000 	andeq	r0, r0, r0
    2304:	b4000000 	strlt	r0, [r0], #-0
    2308:	b8000097 	stmdalt	r0, {r0, r1, r2, r4, r7}
    230c:	02000097 	andeq	r0, r0, #151, 0	; 0x97
    2310:	b89f3000 	ldmlt	pc, {ip, sp}	; <UNPREDICTABLE>
    2314:	bc000097 	stclt	0, cr0, [r0], {151}	; 0x97
    2318:	01000097 	swpeq	r0, r7, [r0]	; <UNPREDICTABLE>
    231c:	97bc5300 	ldrls	r5, [ip, r0, lsl #6]!
    2320:	97c00000 	strbls	r0, [r0, r0]
    2324:	00050000 	andeq	r0, r5, r0
    2328:	21400073 	hvccs	3
    232c:	0097c09f 	umullseq	ip, r7, pc, r0	; <UNPREDICTABLE>
    2330:	0097c800 	addseq	ip, r7, r0, lsl #16
    2334:	53000100 	movwpl	r0, #256	; 0x100
	...
    2344:	000000c8 	andeq	r0, r0, r8, asr #1
    2348:	000000d8 	ldrdeq	r0, [r0], -r8
    234c:	d8500001 	ldmdale	r0, {r0}^
    2350:	1c000000 	stcne	0, cr0, [r0], {-0}
    2354:	04000001 	streq	r0, [r0], #-1
    2358:	5001f300 	andpl	pc, r1, r0, lsl #6
    235c:	0000009f 	muleq	r0, pc, r0	; <UNPREDICTABLE>
    2360:	00000000 	andeq	r0, r0, r0
    2364:	00000200 	andeq	r0, r0, r0, lsl #4
    2368:	0000c800 	andeq	ip, r0, r0, lsl #16
    236c:	0000d800 	andeq	sp, r0, r0, lsl #16
    2370:	70000700 	andvc	r0, r0, r0, lsl #14
    2374:	03e80a00 	mvneq	r0, #0, 20
    2378:	00d89f1e 	sbcseq	r9, r8, lr, lsl pc
    237c:	011c0000 	tsteq	ip, r0
    2380:	00080000 	andeq	r0, r8, r0
    2384:	0a5001f3 	beq	1402b58 <__bss_end__+0x13f7c80>
    2388:	9f1e03e8 	svcls	0x001e03e8
	...
    2394:	00dc0000 	sbcseq	r0, ip, r0
    2398:	011c0000 	tsteq	ip, r0
    239c:	00010000 	andeq	r0, r1, r0
    23a0:	00000054 	andeq	r0, r0, r4, asr r0
    23a4:	00000000 	andeq	r0, r0, r0
    23a8:	f0000100 			; <UNDEFINED> instruction: 0xf0000100
    23ac:	1c000000 	stcne	0, cr0, [r0], {-0}
    23b0:	01000001 	tsteq	r0, r1
    23b4:	00005600 	andeq	r5, r0, r0, lsl #12
	...
    23c0:	00ec0000 	rsceq	r0, ip, r0
    23c4:	00ef0000 	rsceq	r0, pc, r0
    23c8:	00010000 	andeq	r0, r1, r0
    23cc:	0000ef50 	andeq	lr, r0, r0, asr pc
    23d0:	00011c00 	andeq	r1, r1, r0, lsl #24
    23d4:	56000100 	strpl	r0, [r0], -r0, lsl #2
	...
    23e0:	01040000 	mrseq	r0, (UNDEF: 4)
    23e4:	010b0000 	mrseq	r0, (UNDEF: 11)
    23e8:	00010000 	andeq	r0, r1, r0
    23ec:	00000050 	andeq	r0, r0, r0, asr r0
	...
    23f8:	00002000 	andeq	r2, r0, r0
    23fc:	00002300 	andeq	r2, r0, r0, lsl #6
    2400:	50000100 	andpl	r0, r0, r0, lsl #2
    2404:	00000023 	andeq	r0, r0, r3, lsr #32
    2408:	00000030 	andeq	r0, r0, r0, lsr r0
    240c:	00540001 	subseq	r0, r4, r1
	...
    2418:	30000000 	andcc	r0, r0, r0
    241c:	3b000000 	blcc	2424 <__code_start__-0x5bdc>
    2420:	01000000 	mrseq	r0, (UNDEF: 0)
    2424:	003b5000 	eorseq	r5, fp, r0
    2428:	00780000 	rsbseq	r0, r8, r0
    242c:	00010000 	andeq	r0, r1, r0
    2430:	00000056 	andeq	r0, r0, r6, asr r0
    2434:	00000000 	andeq	r0, r0, r0
    2438:	4c000100 	stfmis	f0, [r0], {-0}
    243c:	78000000 	stmdavc	r0, {}	; <UNPREDICTABLE>
    2440:	01000000 	mrseq	r0, (UNDEF: 0)
    2444:	00005500 	andeq	r5, r0, r0, lsl #10
	...
    2450:	00480000 	subeq	r0, r8, r0
    2454:	004b0000 	subeq	r0, fp, r0
    2458:	00010000 	andeq	r0, r1, r0
    245c:	00004b50 	andeq	r4, r0, r0, asr fp
    2460:	00007800 	andeq	r7, r0, r0, lsl #16
    2464:	55000100 	strpl	r0, [r0, #-256]	; 0xffffff00
	...
    2470:	00600000 	rsbeq	r0, r0, r0
    2474:	00670000 	rsbeq	r0, r7, r0
    2478:	00010000 	andeq	r0, r1, r0
    247c:	00000050 	andeq	r0, r0, r0, asr r0
	...
    2488:	00007800 	andeq	r7, r0, r0, lsl #16
    248c:	00008400 	andeq	r8, r0, r0, lsl #8
    2490:	50000100 	andpl	r0, r0, r0, lsl #2
    2494:	00000084 	andeq	r0, r0, r4, lsl #1
    2498:	000000c8 	andeq	r0, r0, r8, asr #1
    249c:	01f30004 	mvnseq	r0, r4
    24a0:	00009f50 	andeq	r9, r0, r0, asr pc
	...
    24ac:	00000088 	andeq	r0, r0, r8, lsl #1
    24b0:	000000c8 	andeq	r0, r0, r8, asr #1
    24b4:	00540001 	subseq	r0, r4, r1
    24b8:	00000000 	andeq	r0, r0, r0
    24bc:	01000000 	mrseq	r0, (UNDEF: 0)
    24c0:	00009c00 	andeq	r9, r0, r0, lsl #24
    24c4:	0000c800 	andeq	ip, r0, r0, lsl #16
    24c8:	56000100 	strpl	r0, [r0], -r0, lsl #2
	...
    24d8:	00000098 	muleq	r0, r8, r0
    24dc:	0000009b 	muleq	r0, fp, r0
    24e0:	9b500001 	blls	14024ec <__bss_end__+0x13f7614>
    24e4:	c8000000 	stmdagt	r0, {}	; <UNPREDICTABLE>
    24e8:	01000000 	mrseq	r0, (UNDEF: 0)
    24ec:	00005600 	andeq	r5, r0, r0, lsl #12
	...
    24f8:	000000b0 	strheq	r0, [r0], -r0	; <UNPREDICTABLE>
    24fc:	000000b7 	strheq	r0, [r0], -r7
    2500:	00500001 	subseq	r0, r0, r1
	...
    250c:	58000000 	stmdapl	r0, {}	; <UNPREDICTABLE>
    2510:	63000001 	movwvs	r0, #1
    2514:	01000001 	tsteq	r0, r1
    2518:	01635000 	cmneq	r3, r0
    251c:	01880000 	orreq	r0, r8, r0
    2520:	00010000 	andeq	r0, r1, r0
    2524:	00000054 	andeq	r0, r0, r4, asr r0
    2528:	00000000 	andeq	r0, r0, r0
    252c:	48000000 	stmdami	r0, {}	; <UNPREDICTABLE>
    2530:	58000001 	stmdapl	r0, {r0}
    2534:	01000001 	tsteq	r0, r1
    2538:	00005400 	andeq	r5, r0, r0, lsl #8
	...
    2548:	000f0000 	andeq	r0, pc, r0
    254c:	00010000 	andeq	r0, r1, r0
    2550:	00000f50 	andeq	r0, r0, r0, asr pc
    2554:	00002000 	andeq	r2, r0, r0
    2558:	54000100 	strpl	r0, [r0], #-256	; 0xffffff00
	...
    256c:	0000000f 	andeq	r0, r0, pc
    2570:	0f510001 	svceq	0x00510001
    2574:	20000000 	andcs	r0, r0, r0
    2578:	01000000 	mrseq	r0, (UNDEF: 0)
    257c:	00005500 	andeq	r5, r0, r0, lsl #10
	...
    2588:	00200000 	eoreq	r0, r0, r0
    258c:	002f0000 	eoreq	r0, pc, r0
    2590:	00010000 	andeq	r0, r1, r0
    2594:	00002f50 	andeq	r2, r0, r0, asr pc
    2598:	00004000 	andeq	r4, r0, r0
    259c:	54000100 	strpl	r0, [r0], #-256	; 0xffffff00
	...
    25ac:	00000020 	andeq	r0, r0, r0, lsr #32
    25b0:	0000002f 	andeq	r0, r0, pc, lsr #32
    25b4:	2f510001 	svccs	0x00510001
    25b8:	40000000 	andmi	r0, r0, r0
    25bc:	01000000 	mrseq	r0, (UNDEF: 0)
    25c0:	00005500 	andeq	r5, r0, r0, lsl #10
	...
    25d0:	00000350 	andeq	r0, r0, r0, asr r3
    25d4:	00000398 	muleq	r0, r8, r3
    25d8:	98500001 	ldmdals	r0, {r0}^
    25dc:	9b000003 	blls	25f0 <__code_start__-0x5a10>
    25e0:	02000003 	andeq	r0, r0, #3, 0
    25e4:	9b689100 	blls	1a269ec <__bss_end__+0x1a1bb14>
    25e8:	b0000003 	andlt	r0, r0, r3
    25ec:	04000003 	streq	r0, [r0], #-3
    25f0:	5001f300 	andpl	pc, r1, r0, lsl #6
    25f4:	0000009f 	muleq	r0, pc, r0	; <UNPREDICTABLE>
	...
    2610:	00022000 	andeq	r2, r2, r0
    2614:	00027b00 	andeq	r7, r2, r0, lsl #22
    2618:	50000100 	andpl	r0, r0, r0, lsl #2
    261c:	0000027b 	andeq	r0, r0, fp, ror r2
    2620:	00000284 	andeq	r0, r0, r4, lsl #5
    2624:	01f30004 	mvnseq	r0, r4
    2628:	02849f50 	addeq	r9, r4, #80, 30	; 0x140
    262c:	029c0000 	addseq	r0, ip, #0, 0
    2630:	00010000 	andeq	r0, r1, r0
    2634:	00029c50 	andeq	r9, r2, r0, asr ip
    2638:	0002a400 	andeq	sl, r2, r0, lsl #8
    263c:	f3000400 	vshl.u8	d0, d0, d0
    2640:	a49f5001 	ldrge	r5, [pc], #1	; 2648 <__code_start__-0x59b8>
    2644:	a7000002 	strge	r0, [r0, -r2]
    2648:	01000002 	tsteq	r0, r2
    264c:	02a75000 	adceq	r5, r7, #0, 0
    2650:	02c80000 	sbceq	r0, r8, #0, 0
    2654:	00040000 	andeq	r0, r4, r0
    2658:	9f5001f3 	svcls	0x005001f3
    265c:	000002c8 	andeq	r0, r0, r8, asr #5
    2660:	000002e0 	andeq	r0, r0, r0, ror #5
    2664:	e0500001 	subs	r0, r0, r1
    2668:	e8000002 	stmda	r0, {r1}
    266c:	04000002 	streq	r0, [r0], #-2
    2670:	5001f300 	andpl	pc, r1, r0, lsl #6
    2674:	0002e89f 	muleq	r2, pc, r8	; <UNPREDICTABLE>
    2678:	0002eb00 	andeq	lr, r2, r0, lsl #22
    267c:	50000100 	andpl	r0, r0, r0, lsl #2
    2680:	000002eb 	andeq	r0, r0, fp, ror #5
    2684:	00000338 	andeq	r0, r0, r8, lsr r3
    2688:	01f30004 	mvnseq	r0, r4
    268c:	00009f50 	andeq	r9, r0, r0, asr pc
	...
    26a8:	02200000 	eoreq	r0, r0, #0, 0
    26ac:	02440000 	subeq	r0, r4, #0, 0
    26b0:	00010000 	andeq	r0, r1, r0
    26b4:	00024451 	andeq	r4, r2, r1, asr r4
    26b8:	00026800 	andeq	r6, r2, r0, lsl #16
    26bc:	51000100 	mrspl	r0, (UNDEF: 16)
    26c0:	00000268 	andeq	r0, r0, r8, ror #4
    26c4:	0000027b 	andeq	r0, r0, fp, ror r2
    26c8:	01710003 	cmneq	r1, r3
    26cc:	00027b9f 	muleq	r2, pc, fp	; <UNPREDICTABLE>
    26d0:	00028400 	andeq	r8, r2, r0, lsl #8
    26d4:	38001700 	stmdacc	r0, {r8, r9, sl, ip}
    26d8:	f35101f3 	vbsl	q8, <illegal reg q8.5>, <illegal reg q9.5>
    26dc:	4b405101 	blmi	1016ae8 <__bss_end__+0x100bc10>
    26e0:	080c2224 	stmdaeq	ip, {r2, r5, r9, sp}
    26e4:	2d800000 	stccs	0, cr0, [r0]
    26e8:	16000128 	strne	r0, [r0], -r8, lsr #2
    26ec:	02849f13 	addeq	r9, r4, #76	; 0x4c
    26f0:	02980000 	addseq	r0, r8, #0, 0
    26f4:	00010000 	andeq	r0, r1, r0
    26f8:	00029851 	andeq	r9, r2, r1, asr r8
    26fc:	0002a400 	andeq	sl, r2, r0, lsl #8
    2700:	f3000400 	vshl.u8	d0, d0, d0
    2704:	a49f5101 	ldrge	r5, [pc], #257	; 270c <__code_start__-0x58f4>
    2708:	a7000002 	strge	r0, [r0, -r2]
    270c:	01000002 	tsteq	r0, r2
    2710:	02a75100 	adceq	r5, r7, #0
    2714:	02c80000 	sbceq	r0, r8, #0, 0
    2718:	00040000 	andeq	r0, r4, r0
    271c:	9f5101f3 	svcls	0x005101f3
    2720:	000002c8 	andeq	r0, r0, r8, asr #5
    2724:	000002dc 	ldrdeq	r0, [r0], -ip
    2728:	dc510001 	mrrcle	0, 0, r0, r1, cr1
    272c:	38000002 	stmdacc	r0, {r1}
    2730:	17000003 	strne	r0, [r0, -r3]
    2734:	01f33800 	mvnseq	r3, r0, lsl #16
    2738:	5101f351 	tstpl	r1, r1, asr r3	; <UNPREDICTABLE>
    273c:	22244b40 	eorcs	r4, r4, #64, 22	; 0x10000
    2740:	0000080c 	andeq	r0, r0, ip, lsl #16
    2744:	01282d80 	smlawbeq	r8, r0, sp, r2
    2748:	9f131600 	svcls	0x00131600
	...
    2760:	0000024c 	andeq	r0, r0, ip, asr #4
    2764:	0000025c 	andeq	r0, r0, ip, asr r2
    2768:	5c520001 	mrrcpl	0, 0, r0, r2, cr1
    276c:	64000002 	strvs	r0, [r0], #-2
    2770:	05000002 	streq	r0, [r0, #-2]
    2774:	aaa00300 	bge	fe80337c <__bss_end__+0xfe7f84a4>
    2778:	02640000 	rsbeq	r0, r4, #0, 0
    277c:	027b0000 	rsbseq	r0, fp, #0, 0
    2780:	00010000 	andeq	r0, r1, r0
    2784:	0002c853 	andeq	ip, r2, r3, asr r8
    2788:	0002d800 	andeq	sp, r2, r0, lsl #16
    278c:	52000100 	andpl	r0, r0, #0
    2790:	000002d8 	ldrdeq	r0, [r0], -r8
    2794:	000002e3 	andeq	r0, r0, r3, ror #5
    2798:	a0030005 	andge	r0, r3, r5
    279c:	e80000aa 	stmda	r0, {r1, r3, r5, r7}
    27a0:	eb000002 	bl	27b0 <__code_start__-0x5850>
    27a4:	01000002 	tsteq	r0, r2
    27a8:	00005300 	andeq	r5, r0, r0, lsl #6
    27ac:	00000000 	andeq	r0, r0, r0
    27b0:	00040000 	andeq	r0, r4, r0
    27b4:	00000230 	andeq	r0, r0, r0, lsr r2
    27b8:	00000234 	andeq	r0, r0, r4, lsr r2
    27bc:	00510001 	subseq	r0, r1, r1
    27c0:	00000000 	andeq	r0, r0, r0
    27c4:	02000000 	andeq	r0, r0, #0, 0
    27c8:	00023c00 	andeq	r3, r2, r0, lsl #24
    27cc:	00024400 	andeq	r4, r2, r0, lsl #8
    27d0:	38000200 	stmdacc	r0, {r9}
    27d4:	0000009f 	muleq	r0, pc, r0	; <UNPREDICTABLE>
    27d8:	00000000 	andeq	r0, r0, r0
    27dc:	3c000200 	sfmcc	f0, 4, [r0], {-0}
    27e0:	44000002 	strmi	r0, [r0], #-2
    27e4:	01000002 	tsteq	r0, r2
    27e8:	00005100 	andeq	r5, r0, r0, lsl #2
    27ec:	00000000 	andeq	r0, r0, r0
    27f0:	00010000 	andeq	r0, r1, r0
    27f4:	00000000 	andeq	r0, r0, r0
    27f8:	0000024c 	andeq	r0, r0, ip, asr #4
    27fc:	00000264 	andeq	r0, r0, r4, ror #4
    2800:	c8510001 	ldmdagt	r1, {r0}^
    2804:	dc000002 	stcle	0, cr0, [r0], {2}
    2808:	01000002 	tsteq	r0, r2
    280c:	02dc5100 	sbcseq	r5, ip, #0
    2810:	02e80000 	rsceq	r0, r8, #0, 0
    2814:	00170000 	andseq	r0, r7, r0
    2818:	5101f338 	tstpl	r1, r8, lsr r3	; <UNPREDICTABLE>
    281c:	405101f3 	ldrshmi	r0, [r1], #-19	; 0xffffffed
    2820:	0c22244b 	cfstrseq	mvf2, [r2], #-300	; 0xfffffed4
    2824:	80000008 	andhi	r0, r0, r8
    2828:	0001282d 	andeq	r2, r1, sp, lsr #16
    282c:	009f1316 	addseq	r1, pc, r6, lsl r3	; <UNPREDICTABLE>
    2830:	00000000 	andeq	r0, r0, r0
    2834:	01000000 	mrseq	r0, (UNDEF: 0)
    2838:	00000000 	andeq	r0, r0, r0
    283c:	4c000000 	stcmi	0, cr0, [r0], {-0}
    2840:	5c000002 	stcpl	0, cr0, [r0], {2}
    2844:	01000002 	tsteq	r0, r2
    2848:	025c5200 	subseq	r5, ip, #0, 4
    284c:	02640000 	rsbeq	r0, r4, #0, 0
    2850:	00050000 	andeq	r0, r5, r0
    2854:	00aaa003 	adceq	sl, sl, r3
    2858:	0002c800 	andeq	ip, r2, r0, lsl #16
    285c:	0002d800 	andeq	sp, r2, r0, lsl #16
    2860:	52000100 	andpl	r0, r0, #0
    2864:	000002d8 	ldrdeq	r0, [r0], -r8
    2868:	000002e3 	andeq	r0, r0, r3, ror #5
    286c:	a0030005 	andge	r0, r3, r5
    2870:	000000aa 	andeq	r0, r0, sl, lsr #1
    2874:	00000000 	andeq	r0, r0, r0
    2878:	04000000 	streq	r0, [r0], #-0
    287c:	00024c00 	andeq	r4, r2, r0, lsl #24
    2880:	00025000 	andeq	r5, r2, r0
    2884:	51000100 	mrspl	r0, (UNDEF: 16)
	...
    2890:	02640003 	rsbeq	r0, r4, #3, 0
    2894:	02680000 	rsbeq	r0, r8, #0, 0
    2898:	00010000 	andeq	r0, r1, r0
    289c:	00000051 	andeq	r0, r0, r1, asr r0
    28a0:	00000000 	andeq	r0, r0, r0
    28a4:	64000300 	strvs	r0, [r0], #-768	; 0xfffffd00
    28a8:	68000002 	stmdavs	r0, {r1}
    28ac:	01000002 	tsteq	r0, r2
    28b0:	00005300 	andeq	r5, r0, r0, lsl #6
	...
    28c0:	01bc0000 			; <UNDEFINED> instruction: 0x01bc0000
    28c4:	01d30000 	bicseq	r0, r3, r0
    28c8:	00010000 	andeq	r0, r1, r0
    28cc:	0001d350 	andeq	sp, r1, r0, asr r3
    28d0:	0001f000 	andeq	pc, r1, r0
    28d4:	54000100 	strpl	r0, [r0], #-256	; 0xffffff00
    28d8:	000001f0 	strdeq	r0, [r0], -r0	; <UNPREDICTABLE>
    28dc:	00000208 	andeq	r0, r0, r8, lsl #4
    28e0:	08500001 	ldmdaeq	r0, {r0}^
    28e4:	20000002 	andcs	r0, r0, r2
    28e8:	01000002 	tsteq	r0, r2
    28ec:	00005400 	andeq	r5, r0, r0, lsl #8
	...
    28f8:	01d80000 	bicseq	r0, r8, r0
    28fc:	01e30000 	mvneq	r0, r0
    2900:	00010000 	andeq	r0, r1, r0
    2904:	0001e350 	andeq	lr, r1, r0, asr r3
    2908:	0001f000 	andeq	pc, r1, r0
    290c:	55000100 	strpl	r0, [r0, #-256]	; 0xffffff00
	...
    2928:	00000124 	andeq	r0, r0, r4, lsr #2
    292c:	00000138 	andeq	r0, r0, r8, lsr r1
    2930:	38500001 	ldmdacc	r0, {r0}^
    2934:	3c000001 	stccc	0, cr0, [r0], {1}
    2938:	03000001 	movweq	r0, #1
    293c:	9f797000 	svcls	0x00797000
    2940:	0000013c 	andeq	r0, r0, ip, lsr r1
    2944:	00000160 	andeq	r0, r0, r0, ror #2
    2948:	60530001 	subsvs	r0, r3, r1
    294c:	78000001 	stmdavc	r0, {r0}
    2950:	01000001 	tsteq	r0, r1
    2954:	01785000 	cmneq	r8, r0
    2958:	01800000 	orreq	r0, r0, r0
    295c:	00040000 	andeq	r0, r4, r0
    2960:	9f5001f3 	svcls	0x005001f3
    2964:	00000180 	andeq	r0, r0, r0, lsl #3
    2968:	00000190 	muleq	r0, r0, r1
    296c:	90530001 	subsls	r0, r3, r1
    2970:	9f000001 	svcls	0x00000001
    2974:	02000001 	andeq	r0, r0, #1, 0
    2978:	9f689100 	svcls	0x00689100
    297c:	bc000001 	stclt	0, cr0, [r0], {1}
    2980:	09000001 	stmdbeq	r0, {r0}
    2984:	5001f300 	andpl	pc, r1, r0, lsl #6
    2988:	f8090723 			; <UNDEFINED> instruction: 0xf8090723
    298c:	00009f1a 	andeq	r9, r0, sl, lsl pc
	...
    2998:	01440000 	mrseq	r0, (UNDEF: 68)
    299c:	01600000 	cmneq	r0, r0
    29a0:	00010000 	andeq	r0, r1, r0
    29a4:	00018050 	andeq	r8, r1, r0, asr r0
    29a8:	00019c00 	andeq	r9, r1, r0, lsl #24
    29ac:	50000100 	andpl	r0, r0, r0, lsl #2
	...
    29b8:	01340003 	teqeq	r4, r3
    29bc:	013c0000 	teqeq	ip, r0
    29c0:	00020000 	andeq	r0, r2, r0
    29c4:	00009f38 	andeq	r9, r0, r8, lsr pc
    29c8:	00000000 	andeq	r0, r0, r0
    29cc:	00030000 	andeq	r0, r3, r0
    29d0:	01340000 	teqeq	r4, r0
    29d4:	01380000 	teqeq	r8, r0
    29d8:	00010000 	andeq	r0, r1, r0
    29dc:	00013850 	andeq	r3, r1, r0, asr r8
    29e0:	00013c00 	andeq	r3, r1, r0, lsl #24
    29e4:	70000300 	andvc	r0, r0, r0, lsl #6
    29e8:	00009f79 	andeq	r9, r0, r9, ror pc
	...
    2a00:	00000030 	andeq	r0, r0, r0, lsr r0
    2a04:	00000060 	andeq	r0, r0, r0, rrx
    2a08:	60500001 	subsvs	r0, r0, r1
    2a0c:	6c000000 	stcvs	0, cr0, [r0], {-0}
    2a10:	05000000 	streq	r0, [r0, #-0]
    2a14:	aaa00300 	bge	fe80361c <__bss_end__+0xfe7f8744>
    2a18:	006c0000 	rsbeq	r0, ip, r0
    2a1c:	00840000 	addeq	r0, r4, r0
    2a20:	00010000 	andeq	r0, r1, r0
    2a24:	00008450 	andeq	r8, r0, r0, asr r4
    2a28:	00008c00 	andeq	r8, r0, r0, lsl #24
    2a2c:	f3000400 	vshl.u8	d0, d0, d0
    2a30:	8c9f5001 	ldchi	0, cr5, [pc], {1}
    2a34:	ac000000 	stcge	0, cr0, [r0], {-0}
    2a38:	01000000 	mrseq	r0, (UNDEF: 0)
    2a3c:	00ac5000 	adceq	r5, ip, r0
    2a40:	00af0000 	adceq	r0, pc, r0
    2a44:	00020000 	andeq	r0, r2, r0
    2a48:	00af6891 	umlaleq	r6, pc, r1, r8	; <UNPREDICTABLE>
    2a4c:	00cc0000 	sbceq	r0, ip, r0
    2a50:	00040000 	andeq	r0, r4, r0
    2a54:	9f5001f3 	svcls	0x005001f3
	...
    2a68:	00000030 	andeq	r0, r0, r0, lsr r0
    2a6c:	00000080 	andeq	r0, r0, r0, lsl #1
    2a70:	80510001 	subshi	r0, r1, r1
    2a74:	8c000000 	stchi	0, cr0, [r0], {-0}
    2a78:	04000000 	streq	r0, [r0], #-0
    2a7c:	5101f300 	mrspl	pc, SP_irq	; <UNPREDICTABLE>
    2a80:	00008c9f 	muleq	r0, pc, ip	; <UNPREDICTABLE>
    2a84:	0000a800 	andeq	sl, r0, r0, lsl #16
    2a88:	51000100 	mrspl	r0, (UNDEF: 16)
    2a8c:	000000a8 	andeq	r0, r0, r8, lsr #1
    2a90:	000000cc 	andeq	r0, r0, ip, asr #1
    2a94:	01f30004 	mvnseq	r0, r4
    2a98:	00009f51 	andeq	r9, r0, r1, asr pc
    2a9c:	00000000 	andeq	r0, r0, r0
    2aa0:	00010000 	andeq	r0, r1, r0
	...
    2ab0:	00000038 	andeq	r0, r0, r8, lsr r0
    2ab4:	00000060 	andeq	r0, r0, r0, rrx
    2ab8:	60500001 	subsvs	r0, r0, r1
    2abc:	6c000000 	stcvs	0, cr0, [r0], {-0}
    2ac0:	05000000 	streq	r0, [r0, #-0]
    2ac4:	aaa00300 	bge	fe8036cc <__bss_end__+0xfe7f87f4>
    2ac8:	006c0000 	rsbeq	r0, ip, r0
    2acc:	00840000 	addeq	r0, r4, r0
    2ad0:	00010000 	andeq	r0, r1, r0
    2ad4:	00008450 	andeq	r8, r0, r0, asr r4
    2ad8:	00008c00 	andeq	r8, r0, r0, lsl #24
    2adc:	f3000400 	vshl.u8	d0, d0, d0
    2ae0:	8c9f5001 	ldchi	0, cr5, [pc], {1}
    2ae4:	ac000000 	stcge	0, cr0, [r0], {-0}
    2ae8:	01000000 	mrseq	r0, (UNDEF: 0)
    2aec:	00ac5000 	adceq	r5, ip, r0
    2af0:	00af0000 	adceq	r0, pc, r0
    2af4:	00020000 	andeq	r0, r2, r0
    2af8:	00af6891 	umlaleq	r6, pc, r1, r8	; <UNPREDICTABLE>
    2afc:	00cc0000 	sbceq	r0, ip, r0
    2b00:	00040000 	andeq	r0, r4, r0
    2b04:	9f5001f3 	svcls	0x005001f3
	...
    2b14:	01700000 	cmneq	r0, r0
    2b18:	017c0000 	cmneq	ip, r0
    2b1c:	00010000 	andeq	r0, r1, r0
    2b20:	00017c50 	andeq	r7, r1, r0, asr ip
    2b24:	00018800 	andeq	r8, r1, r0, lsl #16
    2b28:	54000100 	strpl	r0, [r0], #-256	; 0xffffff00
    2b2c:	00000188 	andeq	r0, r0, r8, lsl #3
    2b30:	00000198 	muleq	r0, r8, r1
    2b34:	01f30004 	mvnseq	r0, r4
    2b38:	00009f50 	andeq	r9, r0, r0, asr pc
	...
    2b4c:	00000178 	andeq	r0, r0, r8, ror r1
    2b50:	0000017c 	andeq	r0, r0, ip, ror r1
    2b54:	0070000b 	rsbseq	r0, r0, fp
    2b58:	b4232535 	strtlt	r2, [r3], #-1333	; 0xfffffacb
    2b5c:	02818080 	addeq	r8, r1, #128, 0	; 0x80
    2b60:	00017c9f 	muleq	r1, pc, ip	; <UNPREDICTABLE>
    2b64:	00018000 	andeq	r8, r1, r0
    2b68:	74000b00 	strvc	r0, [r0], #-2816	; 0xfffff500
    2b6c:	23253500 			; <UNDEFINED> instruction: 0x23253500
    2b70:	818080b4 	strhhi	r8, [r0, r4]
    2b74:	01809f02 	orreq	r9, r0, r2, lsl #30
    2b78:	01830000 	orreq	r0, r3, r0
    2b7c:	00010000 	andeq	r0, r1, r0
    2b80:	00018350 	andeq	r8, r1, r0, asr r3
    2b84:	00018800 	andeq	r8, r1, r0, lsl #16
    2b88:	74000b00 	strvc	r0, [r0], #-2816	; 0xfffff500
    2b8c:	23253500 			; <UNDEFINED> instruction: 0x23253500
    2b90:	818080b4 	strhhi	r8, [r0, r4]
    2b94:	01889f02 	orreq	r9, r8, r2, lsl #30
    2b98:	01980000 	orrseq	r0, r8, r0
    2b9c:	000c0000 	andeq	r0, ip, r0
    2ba0:	355001f3 	ldrbcc	r0, [r0, #-499]	; 0xfffffe0d
    2ba4:	80b42325 	adcshi	r2, r4, r5, lsr #6
    2ba8:	9f028180 	svcls	0x00028180
	...
    2bb4:	00000001 	andeq	r0, r0, r1
    2bb8:	01780000 	cmneq	r8, r0
    2bbc:	017c0000 	cmneq	ip, r0
    2bc0:	00050000 	andeq	r0, r5, r0
    2bc4:	1a4f0070 	bne	13c2d8c <__bss_end__+0x13b7eb4>
    2bc8:	00017c9f 	muleq	r1, pc, ip	; <UNPREDICTABLE>
    2bcc:	00018800 	andeq	r8, r1, r0, lsl #16
    2bd0:	74000500 	strvc	r0, [r0], #-1280	; 0xfffffb00
    2bd4:	9f1a4f00 	svcls	0x001a4f00
    2bd8:	00000188 	andeq	r0, r0, r8, lsl #3
    2bdc:	00000198 	muleq	r0, r8, r1
    2be0:	00540001 	subseq	r0, r4, r1
	...
    2bf4:	40000000 	andmi	r0, r0, r0
    2bf8:	54000001 	strpl	r0, [r0], #-1
    2bfc:	01000001 	tsteq	r0, r1
    2c00:	01545000 	cmpeq	r4, r0
    2c04:	01580000 	cmpeq	r8, r0
    2c08:	00010000 	andeq	r0, r1, r0
    2c0c:	00015851 	andeq	r5, r1, r1, asr r8
    2c10:	00015c00 	andeq	r5, r1, r0, lsl #24
    2c14:	f3000400 	vshl.u8	d0, d0, d0
    2c18:	5c9f5001 	ldcpl	0, cr5, [pc], {1}
    2c1c:	60000001 	andvs	r0, r0, r1
    2c20:	01000001 	tsteq	r0, r1
    2c24:	01605000 	cmneq	r0, r0
    2c28:	01640000 	cmneq	r4, r0
    2c2c:	00010000 	andeq	r0, r1, r0
    2c30:	00016451 	andeq	r6, r1, r1, asr r4
    2c34:	00017000 	andeq	r7, r1, r0
    2c38:	f3000400 	vshl.u8	d0, d0, d0
    2c3c:	009f5001 	addseq	r5, pc, r1
	...
    2c48:	40000000 	andmi	r0, r0, r0
    2c4c:	4c000001 	stcmi	0, cr0, [r0], {1}
    2c50:	01000001 	tsteq	r0, r1
    2c54:	014c5100 	mrseq	r5, (UNDEF: 92)
    2c58:	01700000 	cmneq	r0, r0
    2c5c:	00040000 	andeq	r0, r4, r0
    2c60:	9f5101f3 	svcls	0x005101f3
	...
    2c6c:	00000001 	andeq	r0, r0, r1
    2c70:	01500000 	cmpeq	r0, r0
    2c74:	01540000 	cmpeq	r4, r0
    2c78:	00010000 	andeq	r0, r1, r0
    2c7c:	00015450 	andeq	r5, r1, r0, asr r4
    2c80:	00015800 	andeq	r5, r1, r0, lsl #16
    2c84:	51000100 	mrspl	r0, (UNDEF: 16)
    2c88:	00000158 	andeq	r0, r0, r8, asr r1
    2c8c:	0000015c 	andeq	r0, r0, ip, asr r1
    2c90:	01f30004 	mvnseq	r0, r4
    2c94:	00009f50 	andeq	r9, r0, r0, asr pc
    2c98:	00000000 	andeq	r0, r0, r0
    2c9c:	00020000 	andeq	r0, r2, r0
    2ca0:	00000000 	andeq	r0, r0, r0
    2ca4:	0000015c 	andeq	r0, r0, ip, asr r1
    2ca8:	00000160 	andeq	r0, r0, r0, ror #2
    2cac:	60500001 	subsvs	r0, r0, r1
    2cb0:	64000001 	strvs	r0, [r0], #-1
    2cb4:	01000001 	tsteq	r0, r1
    2cb8:	01645100 	cmneq	r4, r0, lsl #2
    2cbc:	01700000 	cmneq	r0, r0
    2cc0:	00040000 	andeq	r0, r4, r0
    2cc4:	9f5001f3 	svcls	0x005001f3
	...
    2cd4:	00e80000 	rsceq	r0, r8, r0
    2cd8:	01080000 	mrseq	r0, (UNDEF: 8)
    2cdc:	00010000 	andeq	r0, r1, r0
    2ce0:	00010850 	andeq	r0, r1, r0, asr r8
    2ce4:	00012800 	andeq	r2, r1, r0, lsl #16
    2ce8:	54000100 	strpl	r0, [r0], #-256	; 0xffffff00
    2cec:	00000128 	andeq	r0, r0, r8, lsr #2
    2cf0:	00000140 	andeq	r0, r0, r0, asr #2
    2cf4:	01f30004 	mvnseq	r0, r4
    2cf8:	00009f50 	andeq	r9, r0, r0, asr pc
    2cfc:	00000000 	andeq	r0, r0, r0
    2d00:	00020000 	andeq	r0, r2, r0
    2d04:	00000000 	andeq	r0, r0, r0
    2d08:	000000e8 	andeq	r0, r0, r8, ror #1
    2d0c:	00000108 	andeq	r0, r0, r8, lsl #2
    2d10:	08500001 	ldmdaeq	r0, {r0}^
    2d14:	28000001 	stmdacs	r0, {r0}
    2d18:	01000001 	tsteq	r0, r1
    2d1c:	01285400 			; <UNDEFINED> instruction: 0x01285400
    2d20:	01400000 	mrseq	r0, (UNDEF: 64)
    2d24:	00040000 	andeq	r0, r4, r0
    2d28:	9f5001f3 	svcls	0x005001f3
	...
    2d38:	00f00000 	rscseq	r0, r0, r0
    2d3c:	01080000 	mrseq	r0, (UNDEF: 8)
    2d40:	00010000 	andeq	r0, r1, r0
    2d44:	00010850 	andeq	r0, r1, r0, asr r8
    2d48:	00012800 	andeq	r2, r1, r0, lsl #16
    2d4c:	54000100 	strpl	r0, [r0], #-256	; 0xffffff00
    2d50:	00000128 	andeq	r0, r0, r8, lsr #2
    2d54:	00000140 	andeq	r0, r0, r0, asr #2
    2d58:	01f30004 	mvnseq	r0, r4
    2d5c:	00009f50 	andeq	r9, r0, r0, asr pc
    2d60:	00000000 	andeq	r0, r0, r0
    2d64:	00030000 	andeq	r0, r3, r0
    2d68:	00000000 	andeq	r0, r0, r0
    2d6c:	000000f0 	strdeq	r0, [r0], -r0	; <UNPREDICTABLE>
    2d70:	00000108 	andeq	r0, r0, r8, lsl #2
    2d74:	00700007 	rsbseq	r0, r0, r7
    2d78:	1e331d3a 	mrcne	13, 1, r1, cr3, cr10, {1}
    2d7c:	0001089f 	muleq	r1, pc, r8	; <UNPREDICTABLE>
    2d80:	00012800 	andeq	r2, r1, r0, lsl #16
    2d84:	74000700 	strvc	r0, [r0], #-1792	; 0xfffff900
    2d88:	331d3a00 	tstcc	sp, #0, 20
    2d8c:	01289f1e 			; <UNDEFINED> instruction: 0x01289f1e
    2d90:	01400000 	mrseq	r0, (UNDEF: 64)
    2d94:	00080000 	andeq	r0, r8, r0
    2d98:	3a5001f3 	bcc	140356c <__bss_end__+0x13f8694>
    2d9c:	9f1e331d 	svcls	0x001e331d
	...
    2dac:	01100000 	tsteq	r0, r0
    2db0:	01380000 	teqeq	r8, r0
    2db4:	00010000 	andeq	r0, r1, r0
    2db8:	00013856 	andeq	r3, r1, r6, asr r8
    2dbc:	00013b00 	andeq	r3, r1, r0, lsl #22
    2dc0:	50000100 	andpl	r0, r0, r0, lsl #2
    2dc4:	0000013b 	andeq	r0, r0, fp, lsr r1
    2dc8:	00000140 	andeq	r0, r0, r0, asr #2
    2dcc:	01f30026 	mvnseq	r0, r6, lsr #32
    2dd0:	f72cf750 			; <UNDEFINED> instruction: 0xf72cf750
    2dd4:	0825f425 	stmdaeq	r5!, {r0, r2, r5, sl, ip, sp, lr, pc}
    2dd8:	cccccccd 	stclgt	12, cr12, [ip], {205}	; 0xcd
    2ddc:	00000000 	andeq	r0, r0, r0
    2de0:	f720081e 			; <UNDEFINED> instruction: 0xf720081e
    2de4:	2cf72525 	cfldr64cs	mvdx2, [r7], #148	; 0x94
    2de8:	253300f7 	ldrcs	r0, [r3, #-247]!	; 0xffffff09
    2dec:	a0808023 	addge	r8, r0, r3, lsr #32
    2df0:	9f243240 	svcls	0x00243240
	...
    2dfc:	00010100 	andeq	r0, r1, r0, lsl #2
    2e00:	00000000 	andeq	r0, r0, r0
    2e04:	00000120 	andeq	r0, r0, r0, lsr #2
    2e08:	00000120 	andeq	r0, r0, r0, lsr #2
    2e0c:	20500001 	subscs	r0, r0, r1
    2e10:	28000001 	stmdacs	r0, {r0}
    2e14:	0d000001 	stceq	0, cr0, [r0, #-4]
    2e18:	00743700 	rsbseq	r3, r4, r0, lsl #14
    2e1c:	1e331d3a 	mrcne	13, 1, r1, cr3, cr10, {1}
    2e20:	00702024 	rsbseq	r2, r0, r4, lsr #32
    2e24:	01289f1a 			; <UNDEFINED> instruction: 0x01289f1a
    2e28:	01300000 	teqeq	r0, r0
    2e2c:	000e0000 	andeq	r0, lr, r0
    2e30:	5001f337 	andpl	pc, r1, r7, lsr r3	; <UNPREDICTABLE>
    2e34:	1e331d3a 	mrcne	13, 1, r1, cr3, cr10, {1}
    2e38:	00702024 	rsbseq	r2, r0, r4, lsr #32
    2e3c:	01309f1a 	teqeq	r0, sl, lsl pc
    2e40:	013b0000 	teqeq	fp, r0
    2e44:	000e0000 	andeq	r0, lr, r0
    2e48:	5001f337 	andpl	pc, r1, r7, lsr r3	; <UNPREDICTABLE>
    2e4c:	1e331d3a 	mrcne	13, 1, r1, cr3, cr10, {1}
    2e50:	00732024 	rsbseq	r2, r3, r4, lsr #32
    2e54:	00009f1a 	andeq	r9, r0, sl, lsl pc
	...
    2e60:	00600000 	rsbeq	r0, r0, r0
    2e64:	00900000 	addseq	r0, r0, r0
    2e68:	00010000 	andeq	r0, r1, r0
    2e6c:	00009050 	andeq	r9, r0, r0, asr r0
    2e70:	0000b800 	andeq	fp, r0, r0, lsl #16
    2e74:	f3000400 	vshl.u8	d0, d0, d0
    2e78:	009f5001 	addseq	r5, pc, r1
    2e7c:	00000000 	andeq	r0, r0, r0
    2e80:	02000000 	andeq	r0, r0, #0, 0
    2e84:	60000000 	andvs	r0, r0, r0
    2e88:	90000000 	andls	r0, r0, r0
    2e8c:	01000000 	mrseq	r0, (UNDEF: 0)
    2e90:	00905000 	addseq	r5, r0, r0
    2e94:	00b80000 	adcseq	r0, r8, r0
    2e98:	00040000 	andeq	r0, r4, r0
    2e9c:	9f5001f3 	svcls	0x005001f3
	...
    2eac:	00000068 	andeq	r0, r0, r8, rrx
    2eb0:	00000090 	muleq	r0, r0, r0
    2eb4:	90500001 	subsls	r0, r0, r1
    2eb8:	b8000000 	stmdalt	r0, {}	; <UNPREDICTABLE>
    2ebc:	04000000 	streq	r0, [r0], #-0
    2ec0:	5001f300 	andpl	pc, r1, r0, lsl #6
    2ec4:	0000009f 	muleq	r0, pc, r0	; <UNPREDICTABLE>
	...
    2ed0:	0000a000 	andeq	sl, r0, r0
    2ed4:	0000b000 	andeq	fp, r0, r0
    2ed8:	54000100 	strpl	r0, [r0], #-256	; 0xffffff00
    2edc:	000000b0 	strheq	r0, [r0], -r0	; <UNPREDICTABLE>
    2ee0:	000000b8 	strheq	r0, [r0], -r8
    2ee4:	01f30029 	mvnseq	r0, r9, lsr #32
    2ee8:	5001f350 	andpl	pc, r1, r0, asr r3	; <UNPREDICTABLE>
    2eec:	25f72cf7 	ldrbcs	r2, [r7, #3319]!	; 0xcf7
    2ef0:	cd0825f4 	cfstr32gt	mvfx2, [r8, #-976]	; 0xfffffc30
    2ef4:	00cccccc 	sbceq	ip, ip, ip, asr #25
    2ef8:	1e000000 	cdpne	0, 0, cr0, cr0, cr0, {0}
    2efc:	25f72008 	ldrbcs	r2, [r7, #8]!
    2f00:	f72cf725 			; <UNDEFINED> instruction: 0xf72cf725
    2f04:	35253300 	strcc	r3, [r5, #-768]!	; 0xfffffd00
    2f08:	1c24311e 	stfnes	f3, [r4], #-120	; 0xffffff88
    2f0c:	009f1e33 	addseq	r1, pc, r3, lsr lr	; <UNPREDICTABLE>
    2f10:	00000000 	andeq	r0, r0, r0
    2f14:	01000000 	mrseq	r0, (UNDEF: 0)
    2f18:	00000000 	andeq	r0, r0, r0
    2f1c:	0000a000 	andeq	sl, r0, r0
    2f20:	0000b000 	andeq	fp, r0, r0
    2f24:	55000100 	strpl	r0, [r0, #-256]	; 0xffffff00
    2f28:	000000b0 	strheq	r0, [r0], -r0	; <UNPREDICTABLE>
    2f2c:	000000b3 	strheq	r0, [r0], -r3
    2f30:	b3500001 	cmplt	r0, #1, 0
    2f34:	b8000000 	stmdalt	r0, {}	; <UNPREDICTABLE>
    2f38:	26000000 	strcs	r0, [r0], -r0
    2f3c:	5001f300 	andpl	pc, r1, r0, lsl #6
    2f40:	25f72cf7 	ldrbcs	r2, [r7, #3319]!	; 0xcf7
    2f44:	cd0825f4 	cfstr32gt	mvfx2, [r8, #-976]	; 0xfffffc30
    2f48:	00cccccc 	sbceq	ip, ip, ip, asr #25
    2f4c:	1e000000 	cdpne	0, 0, cr0, cr0, cr0, {0}
    2f50:	25f72008 	ldrbcs	r2, [r7, #8]!
    2f54:	f72cf725 			; <UNDEFINED> instruction: 0xf72cf725
    2f58:	23253300 			; <UNDEFINED> instruction: 0x23253300
    2f5c:	40a08080 	adcmi	r8, r0, r0, lsl #1
    2f60:	009f2432 	addseq	r2, pc, r2, lsr r4	; <UNPREDICTABLE>
    2f64:	00000000 	andeq	r0, r0, r0
    2f68:	02000000 	andeq	r0, r0, #0, 0
    2f6c:	01010000 	mrseq	r0, (UNDEF: 1)
    2f70:	a0000000 	andge	r0, r0, r0
    2f74:	a4000000 	strge	r0, [r0], #-0
    2f78:	01000000 	mrseq	r0, (UNDEF: 0)
    2f7c:	00a45000 	adceq	r5, r4, r0
    2f80:	00a40000 	adceq	r0, r4, r0
    2f84:	00010000 	andeq	r0, r1, r0
    2f88:	0000a453 	andeq	sl, r0, r3, asr r4
    2f8c:	0000a800 	andeq	sl, r0, r0, lsl #16
    2f90:	31000800 	tstcc	r0, r0, lsl #16
    2f94:	73240074 			; <UNDEFINED> instruction: 0x73240074
    2f98:	a89f2100 	ldmge	pc, {r8, sp}	; <UNPREDICTABLE>
    2f9c:	b3000000 	movwlt	r0, #0
    2fa0:	01000000 	mrseq	r0, (UNDEF: 0)
    2fa4:	00005100 	andeq	r5, r0, r0, lsl #2
	...
    2fb4:	003c0000 	eorseq	r0, ip, r0
    2fb8:	00010000 	andeq	r0, r1, r0
    2fbc:	00003c50 	andeq	r3, r0, r0, asr ip
    2fc0:	00006000 	andeq	r6, r0, r0
    2fc4:	f3000400 	vshl.u8	d0, d0, d0
    2fc8:	009f5001 	addseq	r5, pc, r1
	...
    2fd8:	3f000000 	svccc	0x00000000
    2fdc:	01000000 	mrseq	r0, (UNDEF: 0)
    2fe0:	003f5100 	eorseq	r5, pc, r0, lsl #2
    2fe4:	00600000 	rsbeq	r0, r0, r0
    2fe8:	00040000 	andeq	r0, r4, r0
    2fec:	9f5101f3 	svcls	0x005101f3
	...
    2ffc:	00000008 	andeq	r0, r0, r8
    3000:	0000003f 	andeq	r0, r0, pc, lsr r0
    3004:	3f510001 	svccc	0x00510001
    3008:	60000000 	andvs	r0, r0, r0
    300c:	04000000 	streq	r0, [r0], #-0
    3010:	5101f300 	mrspl	pc, SP_irq	; <UNPREDICTABLE>
    3014:	0000009f 	muleq	r0, pc, r0	; <UNPREDICTABLE>
	...
    3020:	00000800 	andeq	r0, r0, r0, lsl #16
    3024:	00003c00 	andeq	r3, r0, r0, lsl #24
    3028:	50000100 	andpl	r0, r0, r0, lsl #2
    302c:	0000003c 	andeq	r0, r0, ip, lsr r0
    3030:	00000060 	andeq	r0, r0, r0, rrx
    3034:	01f30004 	mvnseq	r0, r4
    3038:	00009f50 	andeq	r9, r0, r0, asr pc
	...
    3044:	00480000 	subeq	r0, r8, r0
    3048:	00580000 	subseq	r0, r8, r0
    304c:	00010000 	andeq	r0, r1, r0
    3050:	00005854 	andeq	r5, r0, r4, asr r8
    3054:	00006000 	andeq	r6, r0, r0
    3058:	f3002900 	vmls.i8	d2, d0, d0
    305c:	01f35001 	mvnseq	r5, r1
    3060:	f72cf750 			; <UNDEFINED> instruction: 0xf72cf750
    3064:	0825f425 	stmdaeq	r5!, {r0, r2, r5, sl, ip, sp, lr, pc}
    3068:	cccccccd 	stclgt	12, cr12, [ip], {205}	; 0xcd
    306c:	00000000 	andeq	r0, r0, r0
    3070:	f720081e 			; <UNDEFINED> instruction: 0xf720081e
    3074:	2cf72525 	cfldr64cs	mvdx2, [r7], #148	; 0x94
    3078:	253300f7 	ldrcs	r0, [r3, #-247]!	; 0xffffff09
    307c:	24311e35 	ldrtcs	r1, [r1], #-3637	; 0xfffff1cb
    3080:	9f1e331c 	svcls	0x001e331c
	...
    308c:	00000001 	andeq	r0, r0, r1
    3090:	00480000 	subeq	r0, r8, r0
    3094:	00580000 	subseq	r0, r8, r0
    3098:	00010000 	andeq	r0, r1, r0
    309c:	00005856 	andeq	r5, r0, r6, asr r8
    30a0:	00005b00 	andeq	r5, r0, r0, lsl #22
    30a4:	50000100 	andpl	r0, r0, r0, lsl #2
    30a8:	0000005b 	andeq	r0, r0, fp, asr r0
    30ac:	00000060 	andeq	r0, r0, r0, rrx
    30b0:	01f30026 	mvnseq	r0, r6, lsr #32
    30b4:	f72cf750 			; <UNDEFINED> instruction: 0xf72cf750
    30b8:	0825f425 	stmdaeq	r5!, {r0, r2, r5, sl, ip, sp, lr, pc}
    30bc:	cccccccd 	stclgt	12, cr12, [ip], {205}	; 0xcd
    30c0:	00000000 	andeq	r0, r0, r0
    30c4:	f720081e 			; <UNDEFINED> instruction: 0xf720081e
    30c8:	2cf72525 	cfldr64cs	mvdx2, [r7], #148	; 0x94
    30cc:	253300f7 	ldrcs	r0, [r3, #-247]!	; 0xffffff09
    30d0:	a0808023 	addge	r8, r0, r3, lsr #32
    30d4:	9f243240 	svcls	0x00243240
	...
    30e0:	01000002 	tsteq	r0, r2
    30e4:	00000001 	andeq	r0, r0, r1
    30e8:	00000048 	andeq	r0, r0, r8, asr #32
    30ec:	0000004c 	andeq	r0, r0, ip, asr #32
    30f0:	4c500001 	mrrcmi	0, 0, r0, r0, cr1	; <UNPREDICTABLE>
    30f4:	4c000000 	stcmi	0, cr0, [r0], {-0}
    30f8:	01000000 	mrseq	r0, (UNDEF: 0)
    30fc:	004c5100 	subeq	r5, ip, r0, lsl #2
    3100:	00500000 	subseq	r0, r0, r0
    3104:	000c0000 	andeq	r0, ip, r0
    3108:	ff080075 			; <UNDEFINED> instruction: 0xff080075
    310c:	2400741a 	strcs	r7, [r0], #-1050	; 0xfffffbe6
    3110:	9f210071 	svcls	0x00210071
    3114:	00000050 	andeq	r0, r0, r0, asr r0
    3118:	00000054 	andeq	r0, r0, r4, asr r0
    311c:	74370012 	ldrtvc	r0, [r7], #-18	; 0xffffffee
    3120:	70202400 	eorvc	r2, r0, r0, lsl #8
    3124:	00751a00 	rsbseq	r1, r5, r0, lsl #20
    3128:	741aff08 	ldrvc	pc, [sl], #-3848	; 0xfffff0f8
    312c:	9f212400 	svcls	0x00212400
	...
    313c:	00b80000 	adcseq	r0, r8, r0
    3140:	00c40000 	sbceq	r0, r4, r0
    3144:	00010000 	andeq	r0, r1, r0
    3148:	0000c450 	andeq	ip, r0, r0, asr r4
    314c:	0000cb00 	andeq	ip, r0, r0, lsl #22
    3150:	53000100 	movwpl	r0, #256	; 0x100
    3154:	000000cb 	andeq	r0, r0, fp, asr #1
    3158:	000000d0 	ldrdeq	r0, [r0], -r0	; <UNPREDICTABLE>
    315c:	01f30004 	mvnseq	r0, r4
    3160:	00009f50 	andeq	r9, r0, r0, asr pc
	...
    3170:	000000d0 	ldrdeq	r0, [r0], -r0	; <UNPREDICTABLE>
    3174:	000000dc 	ldrdeq	r0, [r0], -ip
    3178:	dc500001 	mrrcle	0, 0, r0, r0, cr1	; <UNPREDICTABLE>
    317c:	e3000000 	movw	r0, #0
    3180:	01000000 	mrseq	r0, (UNDEF: 0)
    3184:	00e35300 	rsceq	r5, r3, r0, lsl #6
    3188:	00e80000 	rsceq	r0, r8, r0
    318c:	00040000 	andeq	r0, r4, r0
    3190:	9f5001f3 	svcls	0x005001f3
	...
    31a4:	0000000b 	andeq	r0, r0, fp
    31a8:	0b500001 	bleq	14031b4 <__bss_end__+0x13f82dc>
    31ac:	14000000 	strne	r0, [r0], #-0
    31b0:	01000000 	mrseq	r0, (UNDEF: 0)
    31b4:	00005400 	andeq	r5, r0, r0, lsl #8
	...
    31c4:	00180000 	andseq	r0, r8, r0
    31c8:	00010000 	andeq	r0, r1, r0
    31cc:	00001851 	andeq	r1, r0, r1, asr r8
    31d0:	00002c00 	andeq	r2, r0, r0, lsl #24
    31d4:	f3000400 	vshl.u8	d0, d0, d0
    31d8:	009f5101 	addseq	r5, pc, r1, lsl #2
    31dc:	00000000 	andeq	r0, r0, r0
    31e0:	02000000 	andeq	r0, r0, #0, 0
	...
    31ec:	00000101 	andeq	r0, r0, r1, lsl #2
    31f0:	00000000 	andeq	r0, r0, r0
    31f4:	00000400 	andeq	r0, r0, r0, lsl #8
    31f8:	50000100 	andpl	r0, r0, r0, lsl #2
    31fc:	00000004 	andeq	r0, r0, r4
    3200:	00000008 	andeq	r0, r0, r8
    3204:	08520001 	ldmdaeq	r2, {r0}^
    3208:	0c000000 	stceq	0, cr0, [r0], {-0}
    320c:	03000000 	movweq	r0, #0
    3210:	9f017200 	svcls	0x00017200
    3214:	0000000c 	andeq	r0, r0, ip
    3218:	00000018 	andeq	r0, r0, r8, lsl r0
    321c:	18520001 	ldmdane	r2, {r0}^
    3220:	1c000000 	stcne	0, cr0, [r0], {-0}
    3224:	01000000 	mrseq	r0, (UNDEF: 0)
    3228:	001c5300 	andseq	r5, ip, r0, lsl #6
    322c:	00240000 	eoreq	r0, r4, r0
    3230:	00030000 	andeq	r0, r3, r0
    3234:	249f0173 	ldrcs	r0, [pc], #371	; 323c <__code_start__-0x4dc4>
    3238:	2c000000 	stccs	0, cr0, [r0], {-0}
    323c:	01000000 	mrseq	r0, (UNDEF: 0)
    3240:	00005300 	andeq	r5, r0, r0, lsl #6
    3244:	00000000 	andeq	r0, r0, r0
    3248:	02030000 	andeq	r0, r3, #0, 0
    324c:	00000002 	andeq	r0, r0, r2
    3250:	00000000 	andeq	r0, r0, r0
    3254:	00000018 	andeq	r0, r0, r8, lsl r0
    3258:	18510001 	ldmdane	r1, {r0}^
    325c:	1c000000 	stcne	0, cr0, [r0], {-0}
    3260:	03000000 	movweq	r0, #0
    3264:	9f017100 	svcls	0x00017100
    3268:	0000001c 	andeq	r0, r0, ip, lsl r0
    326c:	0000002c 	andeq	r0, r0, ip, lsr #32
    3270:	00510001 	subseq	r0, r1, r1
	...
    3280:	00000800 	andeq	r0, r0, r0, lsl #16
    3284:	00000c00 	andeq	r0, r0, r0, lsl #24
    3288:	72000200 	andvc	r0, r0, #0, 4
    328c:	00000c00 	andeq	r0, r0, r0, lsl #24
    3290:	00001800 	andeq	r1, r0, r0, lsl #16
    3294:	73000200 	movwvc	r0, #512	; 0x200
    3298:	00001c00 	andeq	r1, r0, r0, lsl #24
    329c:	00002c00 	andeq	r2, r0, r0, lsl #24
    32a0:	52000100 	andpl	r0, r0, #0
	...
    32bc:	00000014 	andeq	r0, r0, r4, lsl r0
    32c0:	14500001 	ldrbne	r0, [r0], #-1
    32c4:	18000000 	stmdane	r0, {}	; <UNPREDICTABLE>
    32c8:	03000000 	movweq	r0, #0
    32cc:	9f017000 	svcls	0x00017000
    32d0:	00000018 	andeq	r0, r0, r8, lsl r0
    32d4:	00000020 	andeq	r0, r0, r0, lsr #32
    32d8:	24500001 	ldrbcs	r0, [r0], #-1
    32dc:	28000000 	stmdacs	r0, {}	; <UNPREDICTABLE>
    32e0:	01000000 	mrseq	r0, (UNDEF: 0)
    32e4:	00285000 	eoreq	r5, r8, r0
    32e8:	00300000 	eorseq	r0, r0, r0
    32ec:	00030000 	andeq	r0, r3, r0
    32f0:	389f0170 	ldmcc	pc, {r4, r5, r6, r8}	; <UNPREDICTABLE>
    32f4:	40000000 	andmi	r0, r0, r0
    32f8:	01000000 	mrseq	r0, (UNDEF: 0)
    32fc:	00005000 	andeq	r5, r0, r0
	...
    3310:	00000024 	andeq	r0, r0, r4, lsr #32
    3314:	24510001 	ldrbcs	r0, [r1], #-1
    3318:	28000000 	stmdacs	r0, {}	; <UNPREDICTABLE>
    331c:	01000000 	mrseq	r0, (UNDEF: 0)
    3320:	00285c00 	eoreq	r5, r8, r0, lsl #24
    3324:	00440000 	subeq	r0, r4, r0
    3328:	00010000 	andeq	r0, r1, r0
    332c:	00000051 	andeq	r0, r0, r1, asr r0
    3330:	00000000 	andeq	r0, r0, r0
    3334:	02020000 	andeq	r0, r2, #0, 0
    3338:	00000000 	andeq	r0, r0, r0
    333c:	04000000 	streq	r0, [r0], #-0
    3340:	01000000 	mrseq	r0, (UNDEF: 0)
    3344:	00045100 	andeq	r5, r4, r0, lsl #2
    3348:	00080000 	andeq	r0, r8, r0
    334c:	00030000 	andeq	r0, r3, r0
    3350:	089f0171 	ldmeq	pc, {r0, r4, r5, r6, r8}	; <UNPREDICTABLE>
    3354:	18000000 	stmdane	r0, {}	; <UNPREDICTABLE>
    3358:	01000000 	mrseq	r0, (UNDEF: 0)
    335c:	00005100 	andeq	r5, r0, r0, lsl #2
    3360:	00000000 	andeq	r0, r0, r0
    3364:	00020000 	andeq	r0, r2, r0
    3368:	00000000 	andeq	r0, r0, r0
    336c:	00000004 	andeq	r0, r0, r4
    3370:	00500001 	subseq	r0, r0, r1
	...
    3380:	08000000 	stmdaeq	r0, {}	; <UNPREDICTABLE>
    3384:	01000000 	mrseq	r0, (UNDEF: 0)
    3388:	00085000 	andeq	r5, r8, r0
    338c:	00300000 	eorseq	r0, r0, r0
    3390:	00040000 	andeq	r0, r4, r0
    3394:	9f5001f3 	svcls	0x005001f3
	...
    33a8:	00000008 	andeq	r0, r0, r8
    33ac:	08510001 	ldmdaeq	r1, {r0}^
    33b0:	30000000 	andcc	r0, r0, r0
    33b4:	04000000 	streq	r0, [r0], #-0
    33b8:	5101f300 	mrspl	pc, SP_irq	; <UNPREDICTABLE>
    33bc:	0000009f 	muleq	r0, pc, r0	; <UNPREDICTABLE>
	...
    33c8:	01000000 	mrseq	r0, (UNDEF: 0)
    33cc:	00000202 	andeq	r0, r0, r2, lsl #4
    33d0:	04000000 	streq	r0, [r0], #-0
    33d4:	01000000 	mrseq	r0, (UNDEF: 0)
    33d8:	00045200 	andeq	r5, r4, r0, lsl #4
    33dc:	00080000 	andeq	r0, r8, r0
    33e0:	00040000 	andeq	r0, r4, r0
    33e4:	9f5201f3 	svcls	0x005201f3
    33e8:	00000008 	andeq	r0, r0, r8
    33ec:	00000018 	andeq	r0, r0, r8, lsl r0
    33f0:	01f30006 	mvnseq	r0, r6
    33f4:	9f1c3152 	svcls	0x001c3152
    33f8:	00000018 	andeq	r0, r0, r8, lsl r0
    33fc:	00000018 	andeq	r0, r0, r8, lsl r0
    3400:	01f30004 	mvnseq	r0, r4
    3404:	00189f52 	andseq	r9, r8, r2, asr pc
    3408:	00300000 	eorseq	r0, r0, r0
    340c:	00060000 	andeq	r0, r6, r0
    3410:	315201f3 	ldrshcc	r0, [r2, #-19]	; 0xffffffed
    3414:	00009f1c 	andeq	r9, r0, ip, lsl pc
    3418:	00000000 	andeq	r0, r0, r0
    341c:	00020000 	andeq	r0, r2, r0
    3420:	00010000 	andeq	r0, r1, r0
    3424:	00000000 	andeq	r0, r0, r0
    3428:	000c0000 	andeq	r0, ip, r0
    342c:	00010000 	andeq	r0, r1, r0
    3430:	00000c50 	andeq	r0, r0, r0, asr ip
    3434:	00001800 	andeq	r1, r0, r0, lsl #16
    3438:	70000300 	andvc	r0, r0, r0, lsl #6
    343c:	00189f7f 	andseq	r9, r8, pc, ror pc
    3440:	00240000 	eoreq	r0, r4, r0
    3444:	00010000 	andeq	r0, r1, r0
    3448:	00002850 	andeq	r2, r0, r0, asr r8
    344c:	00002c00 	andeq	r2, r0, r0, lsl #24
    3450:	70000300 	andvc	r0, r0, r0, lsl #6
    3454:	00009f7f 	andeq	r9, r0, pc, ror pc
    3458:	00000000 	andeq	r0, r0, r0
    345c:	00020000 	andeq	r0, r2, r0
	...
    3468:	0000000c 	andeq	r0, r0, ip
    346c:	0c510001 	mrrceq	0, 0, r0, r1, cr1
    3470:	10000000 	andne	r0, r0, r0
    3474:	03000000 	movweq	r0, #0
    3478:	9f017100 	svcls	0x00017100
    347c:	00000010 	andeq	r0, r0, r0, lsl r0
    3480:	00000030 	andeq	r0, r0, r0, lsr r0
    3484:	00510001 	subseq	r0, r1, r1
    3488:	00000000 	andeq	r0, r0, r0
    348c:	Address 0x000000000000348c is out of bounds.


Disassembly of section .debug_aranges:

00000000 <.debug_aranges>:
   0:	0000001c 	andeq	r0, r0, ip, lsl r0
   4:	00000002 	andeq	r0, r0, r2
   8:	00040000 	andeq	r0, r4, r0
   c:	00000000 	andeq	r0, r0, r0
  10:	00008038 	andeq	r8, r0, r8, lsr r0
  14:	0000010c 	andeq	r0, r0, ip, lsl #2
	...
  20:	0000001c 	andeq	r0, r0, ip, lsl r0
  24:	049e0002 	ldreq	r0, [lr], #2
  28:	00040000 	andeq	r0, r4, r0
  2c:	00000000 	andeq	r0, r0, r0
  30:	00008144 	andeq	r8, r0, r4, asr #2
  34:	000002ec 	andeq	r0, r0, ip, ror #5
	...
  40:	0000001c 	andeq	r0, r0, ip, lsl r0
  44:	0c8b0002 	stceq	0, cr0, [fp], {2}
  48:	00040000 	andeq	r0, r4, r0
  4c:	00000000 	andeq	r0, r0, r0
  50:	00008430 	andeq	r8, r0, r0, lsr r4
  54:	000001bc 			; <UNDEFINED> instruction: 0x000001bc
	...
  60:	0000001c 	andeq	r0, r0, ip, lsl r0
  64:	0f7b0002 	svceq	0x007b0002
  68:	00040000 	andeq	r0, r4, r0
  6c:	00000000 	andeq	r0, r0, r0
  70:	000085ec 	andeq	r8, r0, ip, ror #11
  74:	000005c4 	andeq	r0, r0, r4, asr #11
	...
  80:	0000001c 	andeq	r0, r0, ip, lsl r0
  84:	1c7f0002 	ldclne	0, cr0, [pc], #-8	; 84 <__code_start__-0x7f7c>
  88:	00040000 	andeq	r0, r4, r0
  8c:	00000000 	andeq	r0, r0, r0
  90:	00008bb8 			; <UNDEFINED> instruction: 0x00008bb8
  94:	00000078 	andeq	r0, r0, r8, ror r0
	...
  a0:	0000001c 	andeq	r0, r0, ip, lsl r0
  a4:	1dc30002 	stclne	0, cr0, [r3, #8]
  a8:	00040000 	andeq	r0, r4, r0
  ac:	00000000 	andeq	r0, r0, r0
  b0:	00008c30 	andeq	r8, r0, r0, lsr ip
  b4:	00000058 	andeq	r0, r0, r8, asr r0
	...
  c0:	0000001c 	andeq	r0, r0, ip, lsl r0
  c4:	1f640002 	svcne	0x00640002
  c8:	00040000 	andeq	r0, r4, r0
  cc:	00000000 	andeq	r0, r0, r0
  d0:	00008c88 	andeq	r8, r0, r8, lsl #25
  d4:	00000038 	andeq	r0, r0, r8, lsr r0
	...
  e0:	0000001c 	andeq	r0, r0, ip, lsl r0
  e4:	205b0002 	subscs	r0, fp, r2
  e8:	00040000 	andeq	r0, r4, r0
  ec:	00000000 	andeq	r0, r0, r0
  f0:	00008cc0 	andeq	r8, r0, r0, asr #25
  f4:	000009b4 			; <UNDEFINED> instruction: 0x000009b4
	...
 100:	0000001c 	andeq	r0, r0, ip, lsl r0
 104:	2cde0002 	ldclcs	0, cr0, [lr], {2}
 108:	00040000 	andeq	r0, r4, r0
 10c:	00000000 	andeq	r0, r0, r0
 110:	00009674 	andeq	r9, r0, r4, ror r6
 114:	0000002c 	andeq	r0, r0, ip, lsr #32
	...
 120:	0000001c 	andeq	r0, r0, ip, lsl r0
 124:	2e110002 	cdpcs	0, 1, cr0, cr1, cr2, {0}
 128:	00040000 	andeq	r0, r4, r0
 12c:	00000000 	andeq	r0, r0, r0
 130:	000096a0 	andeq	r9, r0, r0, lsr #13
 134:	000000f8 	strdeq	r0, [r0], -r8
	...
 140:	0000001c 	andeq	r0, r0, ip, lsl r0
 144:	2fa50002 	svccs	0x00a50002
 148:	00040000 	andeq	r0, r4, r0
 14c:	00000000 	andeq	r0, r0, r0
 150:	00009798 	muleq	r0, r8, r7
 154:	00000004 	andeq	r0, r0, r4
	...
 160:	0000001c 	andeq	r0, r0, ip, lsl r0
 164:	30770002 	rsbscc	r0, r7, r2
 168:	00040000 	andeq	r0, r4, r0
 16c:	00000000 	andeq	r0, r0, r0
 170:	0000979c 	muleq	r0, ip, r7
 174:	0000008c 	andeq	r0, r0, ip, lsl #1
	...
 180:	0000001c 	andeq	r0, r0, ip, lsl r0
 184:	32f80002 	rscscc	r0, r8, #2, 0
 188:	00040000 	andeq	r0, r4, r0
 18c:	00000000 	andeq	r0, r0, r0
 190:	00009828 	andeq	r9, r0, r8, lsr #16
 194:	0000011c 	andeq	r0, r0, ip, lsl r1
	...
 1a0:	0000001c 	andeq	r0, r0, ip, lsl r0
 1a4:	383b0002 	ldmdacc	fp!, {r1}
 1a8:	00040000 	andeq	r0, r4, r0
 1ac:	00000000 	andeq	r0, r0, r0
 1b0:	00009944 	andeq	r9, r0, r4, asr #18
 1b4:	000001f0 	strdeq	r0, [r0], -r0	; <UNPREDICTABLE>
	...
 1c0:	0000001c 	andeq	r0, r0, ip, lsl r0
 1c4:	3e0c0002 	cdpcc	0, 0, cr0, cr12, cr2, {0}
 1c8:	00040000 	andeq	r0, r4, r0
 1cc:	00000000 	andeq	r0, r0, r0
 1d0:	00009b34 	andeq	r9, r0, r4, lsr fp
 1d4:	000003b0 			; <UNDEFINED> instruction: 0x000003b0
	...
 1e0:	0000001c 	andeq	r0, r0, ip, lsl r0
 1e4:	46f90002 	ldrbtmi	r0, [r9], r2
 1e8:	00040000 	andeq	r0, r4, r0
 1ec:	00000000 	andeq	r0, r0, r0
 1f0:	00009ee4 	andeq	r9, r0, r4, ror #29
 1f4:	00000198 	muleq	r0, r8, r1
	...
 200:	0000001c 	andeq	r0, r0, ip, lsl r0
 204:	4d700002 	ldclmi	0, cr0, [r0, #-8]!
 208:	00040000 	andeq	r0, r4, r0
 20c:	00000000 	andeq	r0, r0, r0
 210:	0000a07c 	andeq	sl, r0, ip, ror r0
 214:	0000003c 	andeq	r0, r0, ip, lsr r0
	...
 220:	0000001c 	andeq	r0, r0, ip, lsl r0
 224:	4ebd0002 	cdpmi	0, 11, cr0, cr13, cr2, {0}
 228:	00040000 	andeq	r0, r4, r0
 22c:	00000000 	andeq	r0, r0, r0
 230:	0000a0b8 	strheq	sl, [r0], -r8
 234:	0000002c 	andeq	r0, r0, ip, lsr #32
	...
 240:	0000001c 	andeq	r0, r0, ip, lsl r0
 244:	4ff80002 	svcmi	0x00f80002
 248:	00040000 	andeq	r0, r4, r0
 24c:	00000000 	andeq	r0, r0, r0
 250:	0000a0e4 	andeq	sl, r0, r4, ror #1
 254:	00000044 	andeq	r0, r0, r4, asr #32
	...
 260:	0000001c 	andeq	r0, r0, ip, lsl r0
 264:	50f30002 	rscspl	r0, r3, r2
 268:	00040000 	andeq	r0, r4, r0
 26c:	00000000 	andeq	r0, r0, r0
 270:	0000a128 	andeq	sl, r0, r8, lsr #2
 274:	00000018 	andeq	r0, r0, r8, lsl r0
	...
 280:	0000001c 	andeq	r0, r0, ip, lsl r0
 284:	52060002 	andpl	r0, r6, #2, 0
 288:	00040000 	andeq	r0, r4, r0
 28c:	00000000 	andeq	r0, r0, r0
 290:	0000a140 	andeq	sl, r0, r0, asr #2
 294:	00000030 	andeq	r0, r0, r0, lsr r0
	...
 2a0:	0000001c 	andeq	r0, r0, ip, lsl r0
 2a4:	53580002 	cmppl	r8, #2, 0
 2a8:	00040000 	andeq	r0, r4, r0
 2ac:	00000000 	andeq	r0, r0, r0
 2b0:	0000a170 	andeq	sl, r0, r0, ror r1
 2b4:	00000004 	andeq	r0, r0, r4
	...

Disassembly of section .debug_line:

00000000 <.debug_line>:
       0:	00000182 	andeq	r0, r0, r2, lsl #3
       4:	00ee0003 	rsceq	r0, lr, r3
       8:	01020000 	mrseq	r0, (UNDEF: 2)
       c:	000d0efb 	strdeq	r0, [sp], -fp
      10:	01010101 	tsteq	r1, r1, lsl #2
      14:	01000000 	mrseq	r0, (UNDEF: 0)
      18:	2e010000 	cdpcs	0, 0, cr0, cr1, cr0, {0}
      1c:	73657400 	cmnvc	r5, #0, 8
      20:	322d7374 	eorcc	r7, sp, #116, 6	; 0xd0000001
      24:	2f00302e 	svccs	0x0000302e
      28:	2f74706f 	svccs	0x0074706f
      2c:	656d6f68 	strbvs	r6, [sp, #-3944]!	; 0xfffff098
      30:	77657262 	strbvc	r7, [r5, -r2, ror #4]!
      34:	6c65432f 	stclvs	3, cr4, [r5], #-188	; 0xffffff44
      38:	2f72616c 	svccs	0x0072616c
      3c:	2d6d7261 	sfmcs	f7, 2, [sp, #-388]!	; 0xfffffe7c
      40:	656e6f6e 	strbvs	r6, [lr, #-3950]!	; 0xfffff092
      44:	6261652d 	rsbvs	r6, r1, #188743680	; 0xb400000
      48:	2f392d69 	svccs	0x00392d69
      4c:	30322d39 	eorscc	r2, r2, r9, lsr sp
      50:	34713931 	ldrbtcc	r3, [r1], #-2353	; 0xfffff6cf
      54:	3173632d 	cmncc	r3, sp, lsr #6
      58:	2f653730 	svccs	0x00653730
      5c:	2f62696c 	svccs	0x0062696c
      60:	2f636367 	svccs	0x00636367
      64:	2d6d7261 	sfmcs	f7, 2, [sp, #-388]!	; 0xfffffe7c
      68:	656e6f6e 	strbvs	r6, [lr, #-3950]!	; 0xfffff092
      6c:	6261652d 	rsbvs	r6, r1, #188743680	; 0xb400000
      70:	2e392f69 	cdpcs	15, 3, cr2, cr9, cr9, {3}
      74:	2f312e32 	svccs	0x00312e32
      78:	6c636e69 	stclvs	14, cr6, [r3], #-420	; 0xfffffe5c
      7c:	00656475 	rsbeq	r6, r5, r5, ror r4
      80:	6573552f 	ldrbvs	r5, [r3, #-1327]!	; 0xfffffad1
      84:	6d2f7372 	stcvs	3, cr7, [pc, #-456]!	; fffffec4 <__bss_end__+0xffff4fec>
      88:	73656c69 	cmnvc	r5, #26880	; 0x6900
      8c:	756f532f 	strbvc	r5, [pc, #-815]!	; fffffd65 <__bss_end__+0xffff4e8d>
      90:	2f656372 	svccs	0x00656372
      94:	34327363 	ldrtcc	r7, [r2], #-867	; 0xfffffc9d
      98:	2f786c30 	svccs	0x00786c30
      9c:	7062696c 	rsbvc	r6, r2, ip, ror #18
      a0:	6e692f69 	cdpvs	15, 6, cr2, cr9, cr9, {3}
      a4:	64756c63 	ldrbtvs	r6, [r5], #-3171	; 0xfffff39d
      a8:	63000065 	movwvs	r0, #101	; 0x65
      ac:	6c6c616b 	stfvse	f6, [ip], #-428	; 0xfffffe54
      b0:	682e636f 	stmdavs	lr!, {r0, r1, r2, r3, r5, r6, r8, r9, sp, lr}
      b4:	00000100 	andeq	r0, r0, r0, lsl #2
      b8:	74726170 	ldrbtvc	r6, [r2], #-368	; 0xfffffe90
      bc:	65742d32 	ldrbvs	r2, [r4, #-3378]!	; 0xfffff2ce
      c0:	2d367473 	cfldrscs	mvf7, [r6, #-460]!	; 0xfffffe34
      c4:	6c2d6f6e 	stcvs	15, cr6, [sp], #-440	; 0xfffffe48
      c8:	2e6b6165 	powcsez	f6, f3, f5
      cc:	00020063 	andeq	r0, r2, r3, rrx
      d0:	63727300 	cmnvs	r2, #0, 6
      d4:	636f6c2d 	cmnvs	pc, #11520	; 0x2d00
      d8:	0100682e 	tsteq	r0, lr, lsr #16
      dc:	74730000 	ldrbtvc	r0, [r3], #-0
      e0:	746e6964 	strbtvc	r6, [lr], #-2404	; 0xfffff69c
      e4:	6363672d 	cmnvs	r3, #11796480	; 0xb40000
      e8:	0300682e 	movweq	r6, #2094	; 0x82e
      ec:	70720000 	rsbsvc	r0, r2, r0
      f0:	00682e69 	rsbeq	r2, r8, r9, ror #28
      f4:	00000004 	andeq	r0, r0, r4
      f8:	05002405 	streq	r2, [r0, #-1029]	; 0xfffffbfb
      fc:	00803802 	addeq	r3, r0, r2, lsl #16
     100:	01210300 			; <UNDEFINED> instruction: 0x01210300
     104:	13130505 	tstne	r3, #20971520	; 0x1400000
     108:	13060105 	movwne	r0, #24837	; 0x6105
     10c:	0502042e 	streq	r0, [r2, #-1070]	; 0xfffffbd2
     110:	65030613 	strvs	r0, [r3, #-1555]	; 0xfffff9ed
     114:	4c05052e 	cfstr32mi	mvfx0, [r5], {46}	; 0x2e
     118:	0b050304 	bleq	140d30 <__bss_end__+0x135e58>
     11c:	13050501 	movwne	r0, #21761	; 0x5501
     120:	01060c05 	tsteq	r6, r5, lsl #24
     124:	050204ba 	streq	r0, [r2, #-1210]	; 0xfffffb46
     128:	0505110f 	streq	r1, [r5, #-271]	; 0xfffffef1
     12c:	06019f06 	streq	r9, [r1], -r6, lsl #30
     130:	1382062e 	orrne	r0, r2, #48234496	; 0x2e00000
     134:	13060105 	movwne	r0, #24837	; 0x6105
     138:	06140566 	ldreq	r0, [r4], -r6, ror #10
     13c:	a0020500 	andge	r0, r2, r0, lsl #10
     140:	14000080 	strne	r0, [r0], #-128	; 0xffffff80
     144:	4d4b0505 	cfstr64mi	mvdx0, [fp, #-20]	; 0xffffffec
     148:	01060f05 	tsteq	r6, r5, lsl #30
     14c:	4c060505 	cfstr32mi	mvfx0, [r6], {5}
     150:	064a0601 	strbeq	r0, [sl], -r1, lsl #12
     154:	0805152e 	stmdaeq	r5, {r1, r2, r3, r5, r8, sl, ip}
     158:	07050106 	streq	r0, [r5, -r6, lsl #2]
     15c:	0609054a 	streq	r0, [r9], -sl, asr #10
     160:	1405054b 	strne	r0, [r5], #-1355	; 0xfffffab5
     164:	01060805 	tsteq	r6, r5, lsl #16
     168:	054a0705 	strbeq	r0, [sl, #-1797]	; 0xfffff8fb
     16c:	014b0609 	cmpeq	fp, r9, lsl #12
     170:	0105144a 	tsteq	r5, sl, asr #8
     174:	09051306 	stmdbeq	r5, {r1, r2, r8, r9, ip}
     178:	4a7a0306 	bmi	1e80d98 <__bss_end__+0x1e75ec0>
     17c:	01339e01 	teqeq	r3, r1, lsl #28
     180:	001002ba 			; <UNDEFINED> instruction: 0x001002ba
     184:	02e80101 	rsceq	r0, r8, #1073741824	; 0x40000000
     188:	00030000 	andeq	r0, r3, r0
     18c:	000000e5 	andeq	r0, r0, r5, ror #1
     190:	0efb0102 	cdpeq	1, 15, cr0, cr11, cr2, {0}
     194:	0101000d 	tsteq	r1, sp
     198:	00000101 	andeq	r0, r0, r1, lsl #2
     19c:	00000100 	andeq	r0, r0, r0, lsl #2
     1a0:	706f2f01 	rsbvc	r2, pc, r1, lsl #30
     1a4:	6f682f74 	svcvs	0x00682f74
     1a8:	7262656d 	rsbvc	r6, r2, #457179136	; 0x1b400000
     1ac:	432f7765 			; <UNDEFINED> instruction: 0x432f7765
     1b0:	616c6c65 	cmnvs	ip, r5, ror #24
     1b4:	72612f72 	rsbvc	r2, r1, #456	; 0x1c8
     1b8:	6f6e2d6d 	svcvs	0x006e2d6d
     1bc:	652d656e 	strvs	r6, [sp, #-1390]!	; 0xfffffa92
     1c0:	2d696261 	sfmcs	f6, 2, [r9, #-388]!	; 0xfffffe7c
     1c4:	2d392f39 	ldccs	15, cr2, [r9, #-228]!	; 0xffffff1c
     1c8:	39313032 	ldmdbcc	r1!, {r1, r4, r5, ip, sp}
     1cc:	632d3471 			; <UNDEFINED> instruction: 0x632d3471
     1d0:	37303173 			; <UNDEFINED> instruction: 0x37303173
     1d4:	696c2f65 	stmdbvs	ip!, {r0, r2, r5, r6, r8, r9, sl, fp, sp}^
     1d8:	63672f62 	cmnvs	r7, #392	; 0x188
     1dc:	72612f63 	rsbvc	r2, r1, #396	; 0x18c
     1e0:	6f6e2d6d 	svcvs	0x006e2d6d
     1e4:	652d656e 	strvs	r6, [sp, #-1390]!	; 0xfffffa92
     1e8:	2f696261 	svccs	0x00696261
     1ec:	2e322e39 	mrccs	14, 1, r2, cr2, cr9, {1}
     1f0:	6e692f31 	mcrvs	15, 3, r2, cr9, cr1, {1}
     1f4:	64756c63 	ldrbtvs	r6, [r5], #-3171	; 0xfffff39d
     1f8:	552f0065 	strpl	r0, [pc, #-101]!	; 19b <__code_start__-0x7e65>
     1fc:	73726573 	cmnvc	r2, #482344960	; 0x1cc00000
     200:	6c696d2f 	stclvs	13, cr6, [r9], #-188	; 0xffffff44
     204:	532f7365 			; <UNDEFINED> instruction: 0x532f7365
     208:	6372756f 	cmnvs	r2, #465567744	; 0x1bc00000
     20c:	73632f65 	cmnvc	r3, #404	; 0x194
     210:	6c303432 	cfldrsvs	mvf3, [r0], #-200	; 0xffffff38
     214:	696c2f78 	stmdbvs	ip!, {r3, r4, r5, r6, r8, r9, sl, fp, sp}^
     218:	2f697062 	svccs	0x00697062
     21c:	6c636e69 	stclvs	14, cr6, [r3], #-420	; 0xfffffe5c
     220:	00656475 	rsbeq	r6, r5, r5, ror r4
     224:	616b6300 	cmnvs	fp, r0, lsl #6
     228:	636f6c6c 	cmnvs	pc, #108, 24	; 0x6c00
     22c:	0000632e 	andeq	r6, r0, lr, lsr #6
     230:	6b630000 	blvs	18c0238 <__bss_end__+0x18b5360>
     234:	6f6c6c61 	svcvs	0x006c6c61
     238:	00682e63 	rsbeq	r2, r8, r3, ror #28
     23c:	73000000 	movwvc	r0, #0
     240:	6e696474 	mcrvs	4, 3, r6, cr9, cr4, {3}
     244:	63672d74 	cmnvs	r7, #116, 26	; 0x1d00
     248:	00682e63 	rsbeq	r2, r8, r3, ror #28
     24c:	72000001 	andvc	r0, r0, #1, 0
     250:	682e6970 	stmdavs	lr!, {r4, r5, r6, r8, fp, sp, lr}
     254:	00000200 	andeq	r0, r0, r0, lsl #4
     258:	2d637273 	sfmcs	f7, 2, [r3, #-460]!	; 0xfffffe34
     25c:	2e636f6c 	cdpcs	15, 6, cr6, cr3, cr12, {3}
     260:	00000068 	andeq	r0, r0, r8, rrx
     264:	2d726b00 	vldmdbcs	r2!, {d22-d21}
     268:	6c6c616d 	stfvse	f6, [ip], #-436	; 0xfffffe4c
     26c:	682e636f 	stmdavs	lr!, {r0, r1, r2, r3, r5, r6, r8, r9, sp, lr}
     270:	00000000 	andeq	r0, r0, r0
     274:	00010500 	andeq	r0, r1, r0, lsl #10
     278:	81440205 	cmphi	r4, r5, lsl #4
     27c:	0b030000 	bleq	c0284 <__bss_end__+0xb53ac>
     280:	13050501 	movwne	r0, #21761	; 0x5501
     284:	13060105 	movwne	r0, #24837	; 0x6105
     288:	05058606 	streq	r8, [r5, #-1542]	; 0xfffff9fa
     28c:	06080513 			; <UNDEFINED> instruction: 0x06080513
     290:	09052e01 	stmdbeq	r5, {r0, r9, sl, fp, sp}
     294:	11052f06 	tstne	r5, r6, lsl #30
     298:	01050106 	tsteq	r5, r6, lsl #2
     29c:	25030630 	strcs	r0, [r3, #-1584]	; 0xfffff9d0
     2a0:	0501062e 	streq	r0, [r1, #-1582]	; 0xfffff9d2
     2a4:	014b0605 	cmpeq	fp, r5, lsl #12
     2a8:	02040200 	andeq	r0, r4, #0, 4
     2ac:	04020066 	streq	r0, [r2], #-102	; 0xffffff9a
     2b0:	02000102 	andeq	r0, r0, #-2147483648	; 0x80000000
     2b4:	05130204 	ldreq	r0, [r3, #-516]	; 0xfffffdfc
     2b8:	0402000c 	streq	r0, [r2], #-12
     2bc:	05010602 	streq	r0, [r1, #-1538]	; 0xfffff9fe
     2c0:	04020005 	streq	r0, [r2], #-5
     2c4:	05300602 	ldreq	r0, [r0, #-1538]!	; 0xfffff9fe
     2c8:	04020008 	streq	r0, [r2], #-8
     2cc:	05010602 	streq	r0, [r1, #-1538]	; 0xfffff9fe
     2d0:	0551060b 	ldrbeq	r0, [r1, #-1547]	; 0xfffff9f5
     2d4:	052e0611 	streq	r0, [lr, #-1553]!	; 0xfffff9ef
     2d8:	052e2e0b 	streq	r2, [lr, #-3595]!	; 0xfffff1f5
     2dc:	05300609 	ldreq	r0, [r0, #-1545]!	; 0xfffff9f7
     2e0:	0501060c 	streq	r0, [r1, #-1548]	; 0xfffff9f4
     2e4:	054c060d 	strbeq	r0, [ip, #-1549]	; 0xfffff9f3
     2e8:	0501061b 	streq	r0, [r1, #-1563]	; 0xfffff9e5
     2ec:	0d052e18 	stceq	14, cr2, [r5, #-96]	; 0xffffffa0
     2f0:	01052f06 	tsteq	r5, r6, lsl #30
     2f4:	05051706 	streq	r1, [r5, #-1798]	; 0xfffff8fa
     2f8:	01040200 	mrseq	r0, R12_usr
     2fc:	4a6c0306 	bmi	1b00f1c <__bss_end__+0x1af6044>
     300:	01040200 	mrseq	r0, R12_usr
     304:	04020001 	streq	r0, [r2], #-1
     308:	009e0601 	addseq	r0, lr, r1, lsl #12
     30c:	2e010402 	cdpcs	4, 0, cr0, cr1, cr2, {0}
     310:	01040200 	mrseq	r0, R12_usr
     314:	09052e06 	stmdbeq	r5, {r1, r2, r9, sl, fp, sp}
     318:	060f0533 			; <UNDEFINED> instruction: 0x060f0533
     31c:	2e0c0501 	cfsh32cs	mvfx0, mvfx12, #1
     320:	2f060905 	svccs	0x00060905
     324:	0d030505 	cfstr32eq	mvfx0, [r3, #-20]	; 0xffffffec
     328:	9e06012e 	adflssp	f0, f6, #0.5
     32c:	01052e06 	tsteq	r5, r6, lsl #28
     330:	05ba4a03 	ldreq	r4, [sl, #2563]!	; 0xa03
     334:	01051305 	tsteq	r5, r5, lsl #6
     338:	062e1306 	strteq	r1, [lr], -r6, lsl #6
     33c:	05010632 	streq	r0, [r1, #-1586]	; 0xfffff9ce
     340:	054b0605 	strbeq	r0, [fp, #-1541]	; 0xfffff9fb
     344:	04010614 	streq	r0, [r1], #-1556	; 0xfffff9ec
     348:	06180502 	ldreq	r0, [r8], -r2, lsl #10
     34c:	052e0e03 	streq	r0, [lr, #-3587]!	; 0xfffff1fd
     350:	0d051305 	stceq	3, cr1, [r5, #-20]	; 0xffffffec
     354:	042e0106 	strteq	r0, [lr], #-262	; 0xfffffefa
     358:	03010501 	movweq	r0, #5377	; 0x1501
     35c:	4e060172 	mcrmi	1, 0, r0, cr6, cr2, {3}
     360:	05050106 	streq	r0, [r5, #-262]	; 0xfffffefa
     364:	11056706 	tstne	r5, r6, lsl #14
     368:	052e0106 	streq	r0, [lr, #-262]!	; 0xfffffefa
     36c:	052f0605 	streq	r0, [pc, #-1541]!	; fffffd6f <__bss_end__+0xffff4e97>
     370:	2e010611 	mcrcs	6, 0, r0, cr1, cr1, {0}
     374:	2f060505 	svccs	0x00060505
     378:	13060105 	movwne	r0, #24837	; 0x6105
     37c:	064d0666 	strbeq	r0, [sp], -r6, ror #12
     380:	06050501 	streq	r0, [r5], -r1, lsl #10
     384:	010a054c 	tsteq	sl, ip, asr #10
     388:	01061505 	tsteq	r6, r5, lsl #10
     38c:	0025052e 	eoreq	r0, r5, lr, lsr #10
     390:	06010402 	streq	r0, [r1], -r2, lsl #8
     394:	0005052e 	andeq	r0, r5, lr, lsr #10
     398:	06010402 	streq	r0, [r1], -r2, lsl #8
     39c:	06090501 	streq	r0, [r9], -r1, lsl #10
     3a0:	060d054d 	streq	r0, [sp], -sp, asr #10
     3a4:	0c054a01 			; <UNDEFINED> instruction: 0x0c054a01
     3a8:	0028052e 	eoreq	r0, r8, lr, lsr #10
     3ac:	06020402 	streq	r0, [r2], -r2, lsl #8
     3b0:	002c0547 	eoreq	r0, ip, r7, asr #10
     3b4:	06020402 	streq	r0, [r2], -r2, lsl #8
     3b8:	04020001 	streq	r0, [r2], #-1
     3bc:	0d056602 	stceq	6, cr6, [r5, #-8]
     3c0:	06833306 	streq	r3, [r3], r6, lsl #6
     3c4:	16010501 	strne	r0, [r1], -r1, lsl #10
     3c8:	661c0306 	ldrvs	r0, [ip], -r6, lsl #6
     3cc:	05820106 	streq	r0, [r2, #262]	; 0x106
     3d0:	132f0605 			; <UNDEFINED> instruction: 0x132f0605
     3d4:	66f20114 	usatvs	r0, #18, r4, lsl #2
     3d8:	060a0513 			; <UNDEFINED> instruction: 0x060a0513
     3dc:	2e080501 	cfsh32cs	mvfx0, mvfx8, #1
     3e0:	67060905 	strvs	r0, [r6, -r5, lsl #18]
     3e4:	05140505 	ldreq	r0, [r4, #-1285]	; 0xfffffafb
     3e8:	0501060e 	streq	r0, [r1, #-1550]	; 0xfffff9f2
     3ec:	014b0605 	cmpeq	fp, r5, lsl #12
     3f0:	02040200 	andeq	r0, r4, #0, 4
     3f4:	04020082 	streq	r0, [r2], #-130	; 0xffffff7e
     3f8:	02000102 	andeq	r0, r0, #-2147483648	; 0x80000000
     3fc:	00140204 	andseq	r0, r4, r4, lsl #4
     400:	67020402 	strvs	r0, [r2, -r2, lsl #8]
     404:	02000105 	andeq	r0, r0, #1073741825	; 0x40000001
     408:	4b060204 	blmi	180c20 <__bss_end__+0x175d48>
     40c:	03060905 	movweq	r0, #26885	; 0x6905
     410:	9e014a79 			; <UNDEFINED> instruction: 0x9e014a79
     414:	00050566 	andeq	r0, r5, r6, ror #10
     418:	31010402 	tstcc	r1, r2, lsl #8
     41c:	01040200 	mrseq	r0, R12_usr
     420:	04020001 	streq	r0, [r2], #-1
     424:	0105d601 	tsteq	r5, r1, lsl #12
     428:	3c080a03 			; <UNDEFINED> instruction: 0x3c080a03
     42c:	05050106 	streq	r0, [r5, #-262]	; 0xfffffefa
     430:	10059f06 	andne	r9, r5, r6, lsl #30
     434:	052e0106 	streq	r0, [lr, #-262]!	; 0xfffffefa
     438:	684b0605 	stmdavs	fp, {r0, r2, r9, sl}^
     43c:	01061505 	tsteq	r6, r5, lsl #10
     440:	2f060505 	svccs	0x00060505
     444:	01060e05 	tsteq	r6, r5, lsl #28
     448:	4b060505 	blmi	181864 <__bss_end__+0x17698c>
     44c:	01061205 	tsteq	r6, r5, lsl #4
     450:	68060505 	stmdavs	r6, {r0, r2, r8, sl}
     454:	149e9e01 	ldrne	r9, [lr], #3585	; 0xe01
     458:	01060d05 	tsteq	r6, r5, lsl #26
     45c:	67060505 	strvs	r0, [r6, -r5, lsl #10]
     460:	01061005 	tsteq	r6, r5
     464:	30060505 	andcc	r0, r6, r5, lsl #10
     468:	13060105 	movwne	r0, #24837	; 0x6105
     46c:	00060266 	andeq	r0, r6, r6, ror #4
     470:	02280101 	eoreq	r0, r8, #1073741824	; 0x40000000
     474:	00030000 	andeq	r0, r3, r0
     478:	00000064 	andeq	r0, r0, r4, rrx
     47c:	0efb0102 	cdpeq	1, 15, cr0, cr11, cr2, {0}
     480:	0101000d 	tsteq	r1, sp
     484:	00000101 	andeq	r0, r0, r1, lsl #2
     488:	00000100 	andeq	r0, r0, r0, lsl #2
     48c:	73552f01 	cmpvc	r5, #1, 30
     490:	2f737265 	svccs	0x00737265
     494:	656c696d 	strbvs	r6, [ip, #-2413]!	; 0xfffff693
     498:	6f532f73 	svcvs	0x00532f73
     49c:	65637275 	strbvs	r7, [r3, #-629]!	; 0xfffffd8b
     4a0:	3273632f 	rsbscc	r6, r3, #-1140850688	; 0xbc000000
     4a4:	786c3034 	stmdavc	ip!, {r2, r4, r5, ip, sp}^
     4a8:	62696c2f 	rsbvs	r6, r9, #12032	; 0x2f00
     4ac:	692f6970 	stmdbvs	pc!, {r4, r5, r6, r8, fp, sp, lr}	; <UNPREDICTABLE>
     4b0:	756c636e 	strbvc	r6, [ip, #-878]!	; 0xfffffc92
     4b4:	00006564 	andeq	r6, r0, r4, ror #10
     4b8:	6d2d726b 	sfmvs	f7, 4, [sp, #-428]!	; 0xfffffe54
     4bc:	6f6c6c61 	svcvs	0x006c6c61
     4c0:	00632e63 	rsbeq	r2, r3, r3, ror #28
     4c4:	72000000 	andvc	r0, r0, #0, 0
     4c8:	682e6970 	stmdavs	lr!, {r4, r5, r6, r8, fp, sp, lr}
     4cc:	00000100 	andeq	r0, r0, r0, lsl #2
     4d0:	6d2d726b 	sfmvs	f7, 4, [sp, #-428]!	; 0xfffffe54
     4d4:	6f6c6c61 	svcvs	0x006c6c61
     4d8:	00682e63 	rsbeq	r2, r8, r3, ror #28
     4dc:	00000000 	andeq	r0, r0, r0
     4e0:	05000105 	streq	r0, [r0, #-261]	; 0xfffffefb
     4e4:	00843002 	addeq	r3, r4, r2
     4e8:	00d30300 	sbcseq	r0, r3, r0, lsl #6
     4ec:	05010601 	streq	r0, [r1, #-1537]	; 0xfffff9ff
     4f0:	132f0602 			; <UNDEFINED> instruction: 0x132f0602
     4f4:	01060505 	tsteq	r6, r5, lsl #10
     4f8:	2f060205 	svccs	0x00060205
     4fc:	01060905 	tsteq	r6, r5, lsl #18
     500:	2e4a0205 	cdpcs	2, 4, cr0, cr10, cr5, {0}
     504:	02001205 	andeq	r1, r0, #1342177280	; 0x50000000
     508:	2e060104 	adfcss	f0, f6, f4
     50c:	02000205 	andeq	r0, r0, #1342177280	; 0x50000000
     510:	01060104 	tsteq	r6, r4, lsl #2
     514:	02002705 	andeq	r2, r0, #1310720	; 0x140000
     518:	054a0304 	strbeq	r0, [sl, #-772]	; 0xfffffcfc
     51c:	04020012 	streq	r0, [r2], #-18	; 0xffffffee
     520:	03052e03 	movweq	r2, #24067	; 0x5e03
     524:	10054b06 	andne	r4, r5, r6, lsl #22
     528:	06050106 	streq	r0, [r5], -r6, lsl #2
     52c:	0015052e 	andseq	r0, r5, lr, lsr #10
     530:	4a010402 	bmi	41540 <__bss_end__+0x36668>
     534:	02002005 	andeq	r2, r0, #5, 0
     538:	004a0204 	subeq	r0, sl, r4, lsl #4
     53c:	4a020402 	bmi	8154c <__bss_end__+0x76674>
     540:	30060205 	andcc	r0, r6, r5, lsl #4
     544:	01061005 	tsteq	r6, r5
     548:	052e0905 	streq	r0, [lr, #-2309]!	; 0xfffff6fb
     54c:	05052e1d 	streq	r2, [r5, #-3613]	; 0xfffff1e3
     550:	0603052e 	streq	r0, [r3], -lr, lsr #10
     554:	060d0550 			; <UNDEFINED> instruction: 0x060d0550
     558:	06020501 	streq	r0, [r2], -r1, lsl #10
     55c:	060e052f 	streq	r0, [lr], -pc, lsr #10
     560:	2e080501 	cfsh32cs	mvfx0, mvfx8, #1
     564:	052e0505 	streq	r0, [lr, #-1285]!	; 0xfffffafb
     568:	05500603 	ldrbeq	r0, [r0, #-1539]	; 0xfffff9fd
     56c:	0501060c 	streq	r0, [r1, #-1548]	; 0xfffff9f4
     570:	052f0602 	streq	r0, [pc, #-1538]!	; ffffff76 <__bss_end__+0xffff509e>
     574:	05010608 	streq	r0, [r1, #-1544]	; 0xfffff9f8
     578:	03054b01 	movweq	r4, #23297	; 0x5b01
     57c:	2e730306 	cdpcs	3, 7, cr0, cr3, cr6, {0}
     580:	01061c05 	tsteq	r6, r5, lsl #24
     584:	052e0e05 	streq	r0, [lr, #-3589]!	; 0xfffff1fb
     588:	054b0603 	strbeq	r0, [fp, #-1539]	; 0xfffff9fd
     58c:	05010613 	streq	r0, [r1, #-1555]	; 0xfffff9ed
     590:	0d052e1a 	stceq	14, cr2, [r5, #-104]	; 0xffffff98
     594:	0603052e 	streq	r0, [r3], -lr, lsr #10
     598:	06150550 			; <UNDEFINED> instruction: 0x06150550
     59c:	2e0d0501 	cfsh32cs	mvfx0, mvfx13, #1
     5a0:	4b060305 	blmi	1811bc <__bss_end__+0x1762e4>
     5a4:	01061305 	tsteq	r6, r5, lsl #6
     5a8:	052e0c05 	streq	r0, [lr, #-3077]!	; 0xfffff3fb
     5ac:	b9030601 	stmdblt	r3, {r0, r9, sl}
     5b0:	0106667f 	tsteq	r6, pc, ror r6
     5b4:	4b060205 	blmi	180dd0 <__bss_end__+0x175ef8>
     5b8:	01060505 	tsteq	r6, r5, lsl #10
     5bc:	052f0605 	streq	r0, [pc, #-1541]!	; ffffffbf <__bss_end__+0xffff50e7>
     5c0:	672f0602 	strvs	r0, [pc, -r2, lsl #12]!
     5c4:	01060d05 	tsteq	r6, r5, lsl #26
     5c8:	4b060205 	blmi	180de4 <__bss_end__+0x175f0c>
     5cc:	01060505 	tsteq	r6, r5, lsl #10
     5d0:	4c060205 	sfmmi	f0, 4, [r6], {5}
     5d4:	060d0513 			; <UNDEFINED> instruction: 0x060d0513
     5d8:	06020501 	streq	r0, [r2], -r1, lsl #10
     5dc:	062e062f 	strteq	r0, [lr], -pc, lsr #12
     5e0:	0609052f 	streq	r0, [r9], -pc, lsr #10
     5e4:	620a0501 	andvs	r0, sl, #4194304	; 0x400000
     5e8:	06330105 	ldrteq	r0, [r3], -r5, lsl #2
     5ec:	0501066a 	streq	r0, [r1, #-1642]	; 0xfffff996
     5f0:	132f0602 			; <UNDEFINED> instruction: 0x132f0602
     5f4:	06240514 			; <UNDEFINED> instruction: 0x06240514
     5f8:	2e290501 	cfsh64cs	mvdx0, mvdx9, #1
     5fc:	052e0905 	streq	r0, [lr, #-2309]!	; 0xfffff6fb
     600:	052f0602 	streq	r0, [pc, #-1538]!	; 6 <__code_start__-0x7ffa>
     604:	0501060d 	streq	r0, [r1, #-1549]	; 0xfffff9f3
     608:	02054a05 	andeq	r4, r5, #20480	; 0x5000
     60c:	09055006 	stmdbeq	r5, {r1, r2, ip, lr}
     610:	052e0106 	streq	r0, [lr, #-262]!	; 0xfffffefa
     614:	052a0603 	streq	r0, [sl, #-1539]!	; 0xfffff9fd
     618:	05010616 	streq	r0, [r1, #-1558]	; 0xfffff9ea
     61c:	03054a0e 	movweq	r4, #23054	; 0x5a0e
     620:	0f052f06 	svceq	0x00052f06
     624:	04050106 	streq	r0, [r5], #-262	; 0xfffffefa
     628:	07056d06 	streq	r6, [r5, -r6, lsl #26]
     62c:	05050106 	streq	r0, [r5, #-262]	; 0xfffffefa
     630:	0f053406 	svceq	0x00053406
     634:	05050106 	streq	r0, [r5, #-262]	; 0xfffffefa
     638:	07054b06 	streq	r4, [r5, -r6, lsl #22]
     63c:	05050106 	streq	r0, [r5, #-262]	; 0xfffffefa
     640:	0f052f06 	svceq	0x00052f06
     644:	04050106 	streq	r0, [r5], #-262	; 0xfffffefa
     648:	0a053006 	beq	14c668 <__bss_end__+0x141790>
     64c:	04050106 	streq	r0, [r5], #-262	; 0xfffffefa
     650:	0b054b06 	bleq	153270 <__bss_end__+0x148398>
     654:	052e0106 	streq	r0, [lr, #-262]!	; 0xfffffefa
     658:	77030605 	strvc	r0, [r3, -r5, lsl #12]
     65c:	0618052e 	ldreq	r0, [r8], -lr, lsr #10
     660:	2e120501 	cfmul32cs	mvfx0, mvfx2, mvfx1
     664:	03061a05 	movweq	r1, #27141	; 0x6a05
     668:	18054a7a 	stmdane	r5, {r1, r3, r4, r5, r6, r9, fp, lr}
     66c:	06200501 	strteq	r0, [r0], -r1, lsl #10
     670:	2e270501 	cfsh64cs	mvdx0, mvdx7, #1
     674:	30060305 	andcc	r0, r6, r5, lsl #6
     678:	01060b05 	tsteq	r6, r5, lsl #22
     67c:	052e0605 	streq	r0, [lr, #-1541]!	; 0xfffff9fb
     680:	0f030603 	svceq	0x00030603
     684:	0609054a 	streq	r0, [r9], -sl, asr #10
     688:	4a060501 	bmi	181a94 <__bss_end__+0x176bbc>
     68c:	4c060405 	cfstrsmi	mvf0, [r6], {5}
     690:	01060d05 	tsteq	r6, r5, lsl #26
     694:	2e07052e 	cfsh32cs	mvfx0, mvfx7, #30
     698:	0006022e 	andeq	r0, r6, lr, lsr #4
     69c:	053e0101 	ldreq	r0, [lr, #-257]!	; 0xfffffeff
     6a0:	00030000 	andeq	r0, r3, r0
     6a4:	000000d4 	ldrdeq	r0, [r0], -r4
     6a8:	0efb0102 	cdpeq	1, 15, cr0, cr11, cr2, {0}
     6ac:	0101000d 	tsteq	r1, sp
     6b0:	00000101 	andeq	r0, r0, r1, lsl #2
     6b4:	00000100 	andeq	r0, r0, r0, lsl #2
     6b8:	706f2f01 	rsbvc	r2, pc, r1, lsl #30
     6bc:	6f682f74 	svcvs	0x00682f74
     6c0:	7262656d 	rsbvc	r6, r2, #457179136	; 0x1b400000
     6c4:	432f7765 			; <UNDEFINED> instruction: 0x432f7765
     6c8:	616c6c65 	cmnvs	ip, r5, ror #24
     6cc:	72612f72 	rsbvc	r2, r1, #456	; 0x1c8
     6d0:	6f6e2d6d 	svcvs	0x006e2d6d
     6d4:	652d656e 	strvs	r6, [sp, #-1390]!	; 0xfffffa92
     6d8:	2d696261 	sfmcs	f6, 2, [r9, #-388]!	; 0xfffffe7c
     6dc:	2d392f39 	ldccs	15, cr2, [r9, #-228]!	; 0xffffff1c
     6e0:	39313032 	ldmdbcc	r1!, {r1, r4, r5, ip, sp}
     6e4:	632d3471 			; <UNDEFINED> instruction: 0x632d3471
     6e8:	37303173 			; <UNDEFINED> instruction: 0x37303173
     6ec:	696c2f65 	stmdbvs	ip!, {r0, r2, r5, r6, r8, r9, sl, fp, sp}^
     6f0:	63672f62 	cmnvs	r7, #392	; 0x188
     6f4:	72612f63 	rsbvc	r2, r1, #396	; 0x18c
     6f8:	6f6e2d6d 	svcvs	0x006e2d6d
     6fc:	652d656e 	strvs	r6, [sp, #-1390]!	; 0xfffffa92
     700:	2f696261 	svccs	0x00696261
     704:	2e322e39 	mrccs	14, 1, r2, cr2, cr9, {1}
     708:	6e692f31 	mcrvs	15, 3, r2, cr9, cr1, {1}
     70c:	64756c63 	ldrbtvs	r6, [r5], #-3171	; 0xfffff39d
     710:	552f0065 	strpl	r0, [pc, #-101]!	; 6b3 <__code_start__-0x794d>
     714:	73726573 	cmnvc	r2, #482344960	; 0x1cc00000
     718:	6c696d2f 	stclvs	13, cr6, [r9], #-188	; 0xffffff44
     71c:	532f7365 			; <UNDEFINED> instruction: 0x532f7365
     720:	6372756f 	cmnvs	r2, #465567744	; 0x1bc00000
     724:	73632f65 	cmnvc	r3, #404	; 0x194
     728:	6c303432 	cfldrsvs	mvf3, [r0], #-200	; 0xffffff38
     72c:	696c2f78 	stmdbvs	ip!, {r3, r4, r5, r6, r8, r9, sl, fp, sp}^
     730:	2f697062 	svccs	0x00697062
     734:	6c636e69 	stclvs	14, cr6, [r3], #-420	; 0xfffffe5c
     738:	00656475 	rsbeq	r6, r5, r5, ror r4
     73c:	2d6b6300 	stclcs	3, cr6, [fp, #-0]
     740:	632e6367 			; <UNDEFINED> instruction: 0x632e6367
     744:	00000000 	andeq	r0, r0, r0
     748:	2d637273 	sfmcs	f7, 2, [r3, #-460]!	; 0xfffffe34
     74c:	2e636f6c 	cdpcs	15, 6, cr6, cr3, cr12, {3}
     750:	00000068 	andeq	r0, r0, r8, rrx
     754:	64747300 	ldrbtvs	r7, [r4], #-768	; 0xfffffd00
     758:	2d746e69 	ldclcs	14, cr6, [r4, #-420]!	; 0xfffffe5c
     75c:	2e636367 	cdpcs	3, 6, cr6, cr3, cr7, {3}
     760:	00010068 	andeq	r0, r1, r8, rrx
     764:	69707200 	ldmdbvs	r0!, {r9, ip, sp, lr}^
     768:	0200682e 	andeq	r6, r0, #3014656	; 0x2e0000
     76c:	6b630000 	blvs	18c0774 <__bss_end__+0x18b589c>
     770:	6f6c6c61 	svcvs	0x006c6c61
     774:	00682e63 	rsbeq	r2, r8, r3, ror #28
     778:	00000000 	andeq	r0, r0, r0
     77c:	05000105 	streq	r0, [r0, #-261]	; 0xfffffefb
     780:	0085ec02 	addeq	lr, r5, r2, lsl #24
     784:	012b0300 			; <UNDEFINED> instruction: 0x012b0300
     788:	05140505 	ldreq	r0, [r4, #-1285]	; 0xfffffafb
     78c:	0501060b 	streq	r0, [r1, #-1547]	; 0xfffff9f5
     790:	1d054a08 	vstrne	s8, [r5, #-32]	; 0xffffffe0
     794:	01040200 	mrseq	r0, R12_usr
     798:	0018054a 	andseq	r0, r8, sl, asr #10
     79c:	4a010402 	bmi	417ac <__bss_end__+0x368d4>
     7a0:	2e4d0c05 	cdpcs	12, 4, cr0, cr13, cr5, {0}
     7a4:	2e2c1005 	cdpcs	0, 2, cr1, cr12, cr5, {0}
     7a8:	3101052e 	tstcc	r1, lr, lsr #10
     7ac:	4a0b0306 	bmi	2c13cc <__bss_end__+0x2b64f4>
     7b0:	05050106 	streq	r0, [r5, #-262]	; 0xfffffefa
     7b4:	05144b06 	ldreq	r4, [r4, #-2822]	; 0xfffff4fa
     7b8:	0501060a 	streq	r0, [r1, #-1546]	; 0xfffff9f6
     7bc:	05052e08 	streq	r2, [r5, #-3592]	; 0xfffff1f8
     7c0:	0c054c06 	stceq	12, cr4, [r5], {6}
     7c4:	10050106 	andne	r0, r5, r6, lsl #2
     7c8:	30010565 	andcc	r0, r1, r5, ror #10
     7cc:	2e0e0306 	cdpcs	3, 0, cr0, cr14, cr6, {0}
     7d0:	05050106 	streq	r0, [r5, #-262]	; 0xfffffefa
     7d4:	00014b06 	andeq	r4, r1, r6, lsl #22
     7d8:	82020402 	andhi	r0, r2, #33554432	; 0x2000000
     7dc:	02040200 	andeq	r0, r4, #0, 4
     7e0:	04020001 	streq	r0, [r2], #-1
     7e4:	02001502 	andeq	r1, r0, #8388608	; 0x800000
     7e8:	00010204 	andeq	r0, r1, r4, lsl #4
     7ec:	4a020402 	bmi	817fc <__bss_end__+0x76924>
     7f0:	02040200 	andeq	r0, r4, #0, 4
     7f4:	04020001 	streq	r0, [r2], #-1
     7f8:	02001302 	andeq	r1, r0, #134217728	; 0x8000000
     7fc:	00010204 	andeq	r0, r1, r4, lsl #4
     800:	4a010402 	bmi	41810 <__bss_end__+0x36938>
     804:	01040200 	mrseq	r0, R12_usr
     808:	04020001 	streq	r0, [r2], #-1
     80c:	009e0601 	addseq	r0, lr, r1, lsl #12
     810:	2e010402 	cdpcs	4, 0, cr0, cr1, cr2, {0}
     814:	01040200 	mrseq	r0, R12_usr
     818:	02002e06 	andeq	r2, r0, #96	; 0x60
     81c:	002a0104 	eoreq	r0, sl, r4, lsl #2
     820:	01010402 	tsteq	r1, r2, lsl #8
     824:	01040200 	mrseq	r0, R12_usr
     828:	02009e06 	andeq	r9, r0, #96	; 0x60
     82c:	002e0104 	eoreq	r0, lr, r4, lsl #2
     830:	06010402 	streq	r0, [r1], -r2, lsl #8
     834:	0402002e 	streq	r0, [r2], #-46	; 0xffffffd2
     838:	02003101 	andeq	r3, r0, #1073741824	; 0x40000000
     83c:	00010104 	andeq	r0, r1, r4, lsl #2
     840:	06010402 	streq	r0, [r1], -r2, lsl #8
     844:	0402009e 	streq	r0, [r2], #-158	; 0xffffff62
     848:	02002e01 	andeq	r2, r0, #1, 28
     84c:	2e060104 	adfcss	f0, f6, f4
     850:	03061905 	movweq	r1, #26885	; 0x6905
     854:	11052e0d 	tstne	r5, sp, lsl #28
     858:	0402004b 	streq	r0, [r2], #-75	; 0xffffffb5
     85c:	02002e04 	andeq	r2, r0, #4, 28	; 0x40
     860:	4d060404 	cfstrsmi	mvf0, [r6, #-16]
     864:	02001405 	andeq	r1, r0, #83886080	; 0x5000000
     868:	01060404 	tsteq	r6, r4, lsl #8
     86c:	04040200 	streq	r0, [r4], #-512	; 0xfffffe00
     870:	0023054a 	eoreq	r0, r3, sl, asr #10
     874:	06020402 	streq	r0, [r2], -r2, lsl #8
     878:	05017203 	streq	r7, [r1, #-515]	; 0xfffffdfd
     87c:	04020024 	streq	r0, [r2], #-36	; 0xffffffdc
     880:	05010602 	streq	r0, [r1, #-1538]	; 0xfffff9fe
     884:	0402001b 	streq	r0, [r2], #-27	; 0xffffffe5
     888:	052e0601 	streq	r0, [lr, #-1537]!	; 0xfffff9ff
     88c:	04020005 	streq	r0, [r2], #-5
     890:	05010601 	streq	r0, [r1, #-1537]	; 0xfffff9ff
     894:	054c0609 	strbeq	r0, [ip, #-1545]	; 0xfffff9f7
     898:	05010614 	streq	r0, [r1, #-1556]	; 0xfffff9ec
     89c:	054b0609 	strbeq	r0, [fp, #-1545]	; 0xfffff9f7
     8a0:	0501060c 	streq	r0, [r1, #-1548]	; 0xfffff9f4
     8a4:	054c060d 	strbeq	r0, [ip, #-1549]	; 0xfffff9f3
     8a8:	05010629 	streq	r0, [r1, #-1577]	; 0xfffff9d7
     8ac:	052f060d 	streq	r0, [pc, #-1549]!	; 2a7 <__code_start__-0x7d59>
     8b0:	05010616 	streq	r0, [r1, #-1558]	; 0xfffff9ea
     8b4:	062f060d 	strteq	r0, [pc], -sp, lsl #12
     8b8:	bb062e2e 	bllt	18c178 <__bss_end__+0x1812a0>
     8bc:	01061005 	tsteq	r6, r5
     8c0:	4c061105 	stfmis	f1, [r6], {5}
     8c4:	01061c05 	tsteq	r6, r5, lsl #24
     8c8:	002e1905 	eoreq	r1, lr, r5, lsl #18
     8cc:	66040402 	strvs	r0, [r4], -r2, lsl #8
     8d0:	02001105 	andeq	r1, r0, #1073741825	; 0x40000001
     8d4:	2f060404 	svccs	0x00060404
     8d8:	02002c05 	andeq	r2, r0, #1280	; 0x500
     8dc:	01060404 	tsteq	r6, r4, lsl #8
     8e0:	02001105 	andeq	r1, r0, #1073741825	; 0x40000001
     8e4:	4a2e0404 	bmi	b818fc <__bss_end__+0xb76a24>
     8e8:	4f061505 	svcmi	0x00061505
     8ec:	01064d05 	tsteq	r6, r5, lsl #26
     8f0:	052e1505 	streq	r1, [lr, #-1285]!	; 0xfffffafb
     8f4:	06a30611 	ssateq	r0, #4, r1, lsl #12
     8f8:	16010566 	strne	r0, [r1], -r6, ror #10
     8fc:	0500064a 	streq	r0, [r0, #-1610]	; 0xfffff9b6
     900:	0087b802 	addeq	fp, r7, r2, lsl #16
     904:	01090300 	mrseq	r0, (UNDEF: 57)
     908:	054e0505 	strbeq	r0, [lr, #-1285]	; 0xfffffafb
     90c:	1505010a 	strne	r0, [r5, #-266]	; 0xfffffef6
     910:	25050106 	strcs	r0, [r5, #-262]	; 0xfffffefa
     914:	01040200 	mrseq	r0, R12_usr
     918:	05052e06 	streq	r2, [r5, #-3590]	; 0xfffff1fa
     91c:	01040200 	mrseq	r0, R12_usr
     920:	09050106 	stmdbeq	r5, {r1, r2, r8}
     924:	03040200 	movweq	r0, #16896	; 0x4200
     928:	32054c06 	andcc	r4, r5, #1536	; 0x600
     92c:	03040200 	movweq	r0, #16896	; 0x4200
     930:	21050106 	tstcs	r5, r6, lsl #2
     934:	03040200 	movweq	r0, #16896	; 0x4200
     938:	0011054a 	andseq	r0, r1, sl, asr #10
     93c:	2e030402 	cdpcs	4, 0, cr0, cr3, cr2, {0}
     940:	02002805 	andeq	r2, r0, #327680	; 0x50000
     944:	2c060304 	stccs	3, cr0, [r6], {4}
     948:	02002c05 	andeq	r2, r0, #1280	; 0x500
     94c:	01060304 	tsteq	r6, r4, lsl #6
     950:	03040200 	movweq	r0, #16896	; 0x4200
     954:	0402002e 	streq	r0, [r2], #-46	; 0xffffffd2
     958:	05052e03 	streq	r2, [r5, #-3587]	; 0xfffff1fd
     95c:	06131906 	ldreq	r1, [r3], -r6, lsl #18
     960:	0530062e 	ldreq	r0, [r0, #-1582]!	; 0xfffff9d2
     964:	0501060d 	streq	r0, [r1, #-1549]	; 0xfffff9f3
     968:	054b0605 	strbeq	r0, [fp, #-1541]	; 0xfffff9fb
     96c:	0501060d 	streq	r0, [r1, #-1549]	; 0xfffff9f3
     970:	052f0605 	streq	r0, [pc, #-1541]!	; 373 <__code_start__-0x7c8d>
     974:	0501060d 	streq	r0, [r1, #-1549]	; 0xfffff9f3
     978:	052f0605 	streq	r0, [pc, #-1541]!	; 37b <__code_start__-0x7c85>
     97c:	0501060d 	streq	r0, [r1, #-1549]	; 0xfffff9f3
     980:	6a350605 	bvs	d4219c <__bss_end__+0xd372c4>
     984:	13698313 	cmnne	r9, #1275068416	; 0x4c000000
     988:	01051368 	tsteq	r5, r8, ror #6
     98c:	dc066706 	stcle	7, cr6, [r6], {6}
     990:	05050106 	streq	r0, [r5, #-262]	; 0xfffffefa
     994:	06134b06 	ldreq	r4, [r3], -r6, lsl #22
     998:	4c2f062e 	stcmi	6, cr0, [pc], #-184	; 8e8 <__code_start__-0x7718>
     99c:	010a052f 	tsteq	sl, pc, lsr #10
     9a0:	01061505 	tsteq	r6, r5, lsl #10
     9a4:	0d27054a 	cfstr32eq	mvfx0, [r7, #-296]!	; 0xfffffed8
     9a8:	052e1b05 	streq	r1, [lr, #-2821]!	; 0xfffff4fb
     9ac:	05052e0e 	streq	r2, [r5, #-3598]	; 0xfffff1f2
     9b0:	060d0533 			; <UNDEFINED> instruction: 0x060d0533
     9b4:	06130533 			; <UNDEFINED> instruction: 0x06130533
     9b8:	060d0501 	streq	r0, [sp], -r1, lsl #10
     9bc:	0566062f 	strbeq	r0, [r6, #-1583]!	; 0xfffff9d1
     9c0:	04020028 	streq	r0, [r2], #-40	; 0xffffffd8
     9c4:	7a030602 	bvc	c21d4 <__bss_end__+0xb72fc>
     9c8:	002c052e 	eoreq	r0, ip, lr, lsr #10
     9cc:	06020402 	streq	r0, [r2], -r2, lsl #8
     9d0:	00250501 	eoreq	r0, r5, r1, lsl #10
     9d4:	06010402 	streq	r0, [r1], -r2, lsl #8
     9d8:	00050566 	andeq	r0, r5, r6, ror #10
     9dc:	06010402 	streq	r0, [r1], -r2, lsl #8
     9e0:	06090501 	streq	r0, [r9], -r1, lsl #10
     9e4:	0610054c 	ldreq	r0, [r0], -ip, asr #10
     9e8:	06090501 	streq	r0, [r9], -r1, lsl #10
     9ec:	060e052f 	streq	r0, [lr], -pc, lsr #10
     9f0:	2e0c0501 	cfsh32cs	mvfx0, mvfx12, #1
     9f4:	4f060e05 	svcmi	0x00060e05
     9f8:	01061105 	tsteq	r6, r5, lsl #2
     9fc:	4c060d05 	stcmi	13, cr0, [r6], {5}
     a00:	01061905 	tsteq	r6, r5, lsl #18
     a04:	2f060d05 	svccs	0x00060d05
     a08:	2e2e6606 	cfmadda32cs	mvax0, mvax6, mvfx14, mvfx6
     a0c:	16060505 	strne	r0, [r6], -r5, lsl #10
     a10:	064a0601 	strbeq	r0, [sl], -r1, lsl #12
     a14:	0805132e 	stmdaeq	r5, {r1, r2, r3, r5, r8, r9, ip}
     a18:	09050106 	stmdbeq	r5, {r1, r2, r8}
     a1c:	4a014b06 	bmi	5363c <__bss_end__+0x48764>
     a20:	01040200 	mrseq	r0, R12_usr
     a24:	00050514 	andeq	r0, r5, r4, lsl r5
     a28:	14010402 	strne	r0, [r1], #-1026	; 0xfffffbfe
     a2c:	01040200 	mrseq	r0, R12_usr
     a30:	0008054b 	andeq	r0, r8, fp, asr #10
     a34:	06010402 	streq	r0, [r1], -r2, lsl #8
     a38:	06090501 	streq	r0, [r9], -r1, lsl #10
     a3c:	06170530 			; <UNDEFINED> instruction: 0x06170530
     a40:	34010501 	strcc	r0, [r1], #-1281	; 0xfffffaff
     a44:	03060905 	movweq	r0, #26885	; 0x6905
     a48:	05014a75 	streq	r4, [r1, #-2677]	; 0xfffff58b
     a4c:	08350301 	ldmdaeq	r5!, {r0, r8, r9}
     a50:	4b050590 	blmi	142098 <__bss_end__+0x1371c0>
     a54:	2f4c4b13 	svccs	0x004c4b13
     a58:	05010a05 	streq	r0, [r1, #-2565]	; 0xfffff5fb
     a5c:	4a010615 	bmi	422b8 <__bss_end__+0x373e0>
     a60:	050d2705 	streq	r2, [sp, #-1797]	; 0xfffff8fb
     a64:	0e052e1b 	mcreq	14, 0, r2, cr5, cr11, {0}
     a68:	3305052e 	movwcc	r0, #21806	; 0x552e
     a6c:	33060d05 	movwcc	r0, #27909	; 0x6d05
     a70:	01061305 	tsteq	r6, r5, lsl #6
     a74:	2f060d05 	svccs	0x00060d05
     a78:	01061e05 	tsteq	r6, r5, lsl #28
     a7c:	052e1a05 	streq	r1, [lr, #-2565]!	; 0xfffff5fb
     a80:	042f060d 	strteq	r0, [pc], #-1549	; a88 <__code_start__-0x7578>
     a84:	030b0502 	movweq	r0, #46338	; 0xb502
     a88:	052e7e8b 	streq	r7, [lr, #-3723]!	; 0xfffff175
     a8c:	0c051305 	stceq	3, cr1, [r5], {5}
     a90:	04ba0106 	ldrteq	r0, [sl], #262	; 0x106
     a94:	030d0501 	movweq	r0, #54529	; 0xd501
     a98:	660101f4 			; <UNDEFINED> instruction: 0x660101f4
     a9c:	28052f06 	stmdacs	r5, {r1, r2, r8, r9, sl, fp, sp}
     aa0:	02040200 	andeq	r0, r4, #0, 4
     aa4:	05667803 	strbeq	r7, [r6, #-2051]!	; 0xfffff7fd
     aa8:	0402002c 	streq	r0, [r2], #-44	; 0xffffffd4
     aac:	05010602 	streq	r0, [r1, #-1538]	; 0xfffff9fe
     ab0:	04020025 	streq	r0, [r2], #-37	; 0xffffffdb
     ab4:	05660601 	strbeq	r0, [r6, #-1537]!	; 0xfffff9ff
     ab8:	04020005 	streq	r0, [r2], #-5
     abc:	05010601 	streq	r0, [r1, #-1537]	; 0xfffff9ff
     ac0:	054c0609 	strbeq	r0, [ip, #-1545]	; 0xfffff9f7
     ac4:	05010610 	streq	r0, [r1, #-1552]	; 0xfffff9f0
     ac8:	052f0609 	streq	r0, [pc, #-1545]!	; 4c7 <__code_start__-0x7b39>
     acc:	0501060e 	streq	r0, [r1, #-1550]	; 0xfffff9f2
     ad0:	05662e0c 	strbeq	r2, [r6, #-3596]!	; 0xfffff1f4
     ad4:	09030605 	stmdbeq	r3, {r0, r2, r9, sl}
     ad8:	82060101 	andhi	r0, r6, #1073741824	; 0x40000000
     adc:	05142e06 	ldreq	r2, [r4, #-3590]	; 0xfffff1fa
     ae0:	66130601 	ldrvs	r0, [r3], -r1, lsl #12
     ae4:	02050006 	andeq	r0, r5, #6, 0
     ae8:	00008a2c 	andeq	r8, r0, ip, lsr #20
     aec:	017e8b03 	cmneq	lr, r3, lsl #22
     af0:	05050106 	streq	r0, [r5, #-262]	; 0xfffffefa
     af4:	01144b06 	tsteq	r4, r6, lsl #22
     af8:	02040200 	andeq	r0, r4, #0, 4
     afc:	0402004a 	streq	r0, [r2], #-74	; 0xffffffb6
     b00:	02000102 	andeq	r0, r0, #-2147483648	; 0x80000000
     b04:	05130204 	ldreq	r0, [r3, #-516]	; 0xfffffdfc
     b08:	04020009 	streq	r0, [r2], #-9
     b0c:	05010602 	streq	r0, [r1, #-1538]	; 0xfffff9fe
     b10:	04020008 	streq	r0, [r2], #-8
     b14:	09054a02 	stmdbeq	r5, {r1, r9, fp, lr}
     b18:	13154b06 	tstne	r5, #6144	; 0x1800
     b1c:	01061405 	tsteq	r6, r5, lsl #8
     b20:	0609054a 	streq	r0, [r9], -sl, asr #10
     b24:	0612052f 	ldreq	r0, [r2], -pc, lsr #10
     b28:	06090501 	streq	r0, [r9], -r1, lsl #10
     b2c:	10054b4b 	andne	r4, r5, fp, asr #22
     b30:	05050106 	streq	r0, [r5, #-262]	; 0xfffffefa
     b34:	0c054c06 	stceq	12, cr4, [r5], {6}
     b38:	01050106 	tsteq	r5, r6, lsl #2
     b3c:	0005054b 	andeq	r0, r5, fp, asr #10
     b40:	06010402 	streq	r0, [r1], -r2, lsl #8
     b44:	004a7403 	subeq	r7, sl, r3, lsl #8
     b48:	01010402 	tsteq	r1, r2, lsl #8
     b4c:	01040200 	mrseq	r0, R12_usr
     b50:	0200ba06 	andeq	fp, r0, #24576	; 0x6000
     b54:	2e060104 	adfcss	f0, f6, f4
     b58:	01300905 	teqeq	r0, r5, lsl #18
     b5c:	2e068206 	cdpcs	2, 0, cr8, cr6, cr6, {0}
     b60:	b6030105 	strlt	r0, [r3], -r5, lsl #2
     b64:	0106d601 	tsteq	r6, r1, lsl #12
     b68:	30060505 	andcc	r0, r6, r5, lsl #10
     b6c:	01060c05 	tsteq	r6, r5, lsl #24
     b70:	062f0105 	strteq	r0, [pc], -r5, lsl #2
     b74:	32050532 	andcc	r0, r5, #209715200	; 0xc800000
     b78:	06090513 			; <UNDEFINED> instruction: 0x06090513
     b7c:	4a080501 	bmi	201f88 <__bss_end__+0x1f70b0>
     b80:	4b060905 	blmi	182f9c <__bss_end__+0x1780c4>
     b84:	054a0114 	strbeq	r0, [sl, #-276]	; 0xfffffeec
     b88:	01051305 	tsteq	r5, r5, lsl #6
     b8c:	09051306 	stmdbeq	r5, {r1, r2, r8, r9, ip}
     b90:	9e012a06 	vmlals.f32	s4, s2, s12
     b94:	05a60105 	streq	r0, [r6, #261]!	; 0x105
     b98:	05133205 	ldreq	r3, [r3, #-517]	; 0xfffffdfb
     b9c:	05010617 	streq	r0, [r1, #-1559]	; 0xfffff9e9
     ba0:	054b0605 	strbeq	r0, [fp, #-1541]	; 0xfffff9fb
     ba4:	05010608 	streq	r0, [r1, #-1544]	; 0xfffff9f8
     ba8:	144b0609 	strbne	r0, [fp], #-1545	; 0xfffff9f7
     bac:	064a0601 	strbeq	r0, [sl], -r1, lsl #12
     bb0:	1305052e 	movwne	r0, #21806	; 0x552e
     bb4:	06010513 			; <UNDEFINED> instruction: 0x06010513
     bb8:	06090513 			; <UNDEFINED> instruction: 0x06090513
     bbc:	059e0145 	ldreq	r0, [lr, #325]	; 0x145
     bc0:	9e210301 	cdpls	3, 2, cr0, cr1, cr1, {0}
     bc4:	2f2f0505 	svccs	0x002f0505
     bc8:	01061705 	tsteq	r6, r5, lsl #14
     bcc:	32060505 	andcc	r0, r6, #20971520	; 0x1400000
     bd0:	13060105 	movwne	r0, #24837	; 0x6105
     bd4:	05053106 	streq	r3, [r5, #-262]	; 0xfffffefa
     bd8:	029e012f 	addseq	r0, lr, #-1073741813	; 0xc000000b
     bdc:	0101000a 	tsteq	r1, sl
     be0:	00000121 	andeq	r0, r0, r1, lsr #2
     be4:	00be0003 	adcseq	r0, lr, r3
     be8:	01020000 	mrseq	r0, (UNDEF: 2)
     bec:	000d0efb 	strdeq	r0, [sp], -fp
     bf0:	01010101 	tsteq	r1, r1, lsl #2
     bf4:	01000000 	mrseq	r0, (UNDEF: 0)
     bf8:	2e010000 	cdpcs	0, 0, cr0, cr1, cr0, {0}
     bfc:	62696c2f 	rsbvs	r6, r9, #12032	; 0x2f00
     c00:	552f0063 	strpl	r0, [pc, #-99]!	; ba5 <__code_start__-0x745b>
     c04:	73726573 	cmnvc	r2, #482344960	; 0x1cc00000
     c08:	6c696d2f 	stclvs	13, cr6, [r9], #-188	; 0xffffff44
     c0c:	532f7365 			; <UNDEFINED> instruction: 0x532f7365
     c10:	6372756f 	cmnvs	r2, #465567744	; 0x1bc00000
     c14:	73632f65 	cmnvc	r3, #404	; 0x194
     c18:	6c303432 	cfldrsvs	mvf3, [r0], #-200	; 0xffffff38
     c1c:	696c2f78 	stmdbvs	ip!, {r3, r4, r5, r6, r8, r9, sl, fp, sp}^
     c20:	2f697062 	svccs	0x00697062
     c24:	6c636e69 	stclvs	14, cr6, [r3], #-420	; 0xfffffe5c
     c28:	00656475 	rsbeq	r6, r5, r5, ror r4
     c2c:	74706f2f 	ldrbtvc	r6, [r0], #-3887	; 0xfffff0d1
     c30:	6d6f682f 	stclvs	8, cr6, [pc, #-188]!	; b7c <__code_start__-0x7484>
     c34:	65726265 	ldrbvs	r6, [r2, #-613]!	; 0xfffffd9b
     c38:	65432f77 	strbvs	r2, [r3, #-3959]	; 0xfffff089
     c3c:	72616c6c 	rsbvc	r6, r1, #108, 24	; 0x6c00
     c40:	6d72612f 	ldfvse	f6, [r2, #-188]!	; 0xffffff44
     c44:	6e6f6e2d 	cdpvs	14, 6, cr6, cr15, cr13, {1}
     c48:	61652d65 	cmnvs	r5, r5, ror #26
     c4c:	392d6962 	pushcc	{r1, r5, r6, r8, fp, sp, lr}
     c50:	322d392f 	eorcc	r3, sp, #770048	; 0xbc000
     c54:	71393130 	teqvc	r9, r0, lsr r1
     c58:	73632d34 	cmnvc	r3, #52, 26	; 0xd00
     c5c:	65373031 	ldrvs	r3, [r7, #-49]!	; 0xffffffcf
     c60:	62696c2f 	rsbvs	r6, r9, #12032	; 0x2f00
     c64:	6363672f 	cmnvs	r3, #12320768	; 0xbc0000
     c68:	6d72612f 	ldfvse	f6, [r2, #-188]!	; 0xffffff44
     c6c:	6e6f6e2d 	cdpvs	14, 6, cr6, cr15, cr13, {1}
     c70:	61652d65 	cmnvs	r5, r5, ror #26
     c74:	392f6962 	stmdbcc	pc!, {r1, r5, r6, r8, fp, sp, lr}	; <UNPREDICTABLE>
     c78:	312e322e 			; <UNDEFINED> instruction: 0x312e322e
     c7c:	636e692f 	cmnvs	lr, #770048	; 0xbc000
     c80:	6564756c 	strbvs	r7, [r4, #-1388]!	; 0xfffffa94
     c84:	656d0000 	strbvs	r0, [sp, #-0]!
     c88:	7465736d 	strbtvc	r7, [r5], #-877	; 0xfffffc93
     c8c:	0100632e 	tsteq	r0, lr, lsr #6
     c90:	70720000 	rsbsvc	r0, r2, r0
     c94:	00682e69 	rsbeq	r2, r8, r9, ror #28
     c98:	73000002 	movwvc	r0, #2
     c9c:	65646474 	strbvs	r6, [r4, #-1140]!	; 0xfffffb8c
     ca0:	00682e66 	rsbeq	r2, r8, r6, ror #28
     ca4:	00000003 	andeq	r0, r0, r3
     ca8:	05002905 	streq	r2, [r0, #-2309]	; 0xfffff6fb
     cac:	008bb802 	addeq	fp, fp, r2, lsl #16
     cb0:	05051500 	streq	r1, [r5, #-1280]	; 0xfffffb00
     cb4:	06290513 			; <UNDEFINED> instruction: 0x06290513
     cb8:	2f140511 	svccs	0x00140511
     cbc:	30060505 	andcc	r0, r6, r5, lsl #10
     cc0:	06010a05 	streq	r0, [r1], -r5, lsl #20
     cc4:	0609059e 			; <UNDEFINED> instruction: 0x0609059e
     cc8:	060e05d7 			; <UNDEFINED> instruction: 0x060e05d7
     ccc:	060a0501 	streq	r0, [sl], -r1, lsl #10
     cd0:	bb09052d 	bllt	24218c <__bss_end__+0x2372b4>
     cd4:	01060e05 	tsteq	r6, r5, lsl #28
     cd8:	060a052e 	streq	r0, [sl], -lr, lsr #10
     cdc:	4b09052d 	blmi	242198 <__bss_end__+0x2372c0>
     ce0:	01060b05 	tsteq	r6, r5, lsl #22
     ce4:	052d0a05 	streq	r0, [sp, #-2565]!	; 0xfffff5fb
     ce8:	0a052f0e 	beq	14c928 <__bss_end__+0x141a50>
     cec:	0e052d06 	cdpeq	13, 0, cr2, cr5, cr6, {0}
     cf0:	09051306 	stmdbeq	r5, {r1, r2, r8, r9, ip}
     cf4:	0a052e06 	beq	14c514 <__bss_end__+0x14163c>
     cf8:	14050511 	strne	r0, [r5], #-1297	; 0xfffffaef
     cfc:	13060105 	movwne	r0, #24837	; 0x6105
     d00:	01000202 	tsteq	r0, r2, lsl #4
     d04:	00012001 	andeq	r2, r1, r1
     d08:	db000300 	blle	1910 <__code_start__-0x66f0>
     d0c:	02000000 	andeq	r0, r0, #0, 0
     d10:	0d0efb01 	vstreq	d15, [lr, #-4]
     d14:	01010100 	mrseq	r0, (UNDEF: 17)
     d18:	00000001 	andeq	r0, r0, r1
     d1c:	01000001 	tsteq	r0, r1
     d20:	696c2f2e 	stmdbvs	ip!, {r1, r2, r3, r5, r8, r9, sl, fp, sp}^
     d24:	2f006362 	svccs	0x00006362
     d28:	2f74706f 	svccs	0x0074706f
     d2c:	656d6f68 	strbvs	r6, [sp, #-3944]!	; 0xfffff098
     d30:	77657262 	strbvc	r7, [r5, -r2, ror #4]!
     d34:	6c65432f 	stclvs	3, cr4, [r5], #-188	; 0xffffff44
     d38:	2f72616c 	svccs	0x0072616c
     d3c:	2d6d7261 	sfmcs	f7, 2, [sp, #-388]!	; 0xfffffe7c
     d40:	656e6f6e 	strbvs	r6, [lr, #-3950]!	; 0xfffff092
     d44:	6261652d 	rsbvs	r6, r1, #188743680	; 0xb400000
     d48:	2f392d69 	svccs	0x00392d69
     d4c:	30322d39 	eorscc	r2, r2, r9, lsr sp
     d50:	34713931 	ldrbtcc	r3, [r1], #-2353	; 0xfffff6cf
     d54:	3173632d 	cmncc	r3, sp, lsr #6
     d58:	2f653730 	svccs	0x00653730
     d5c:	2f62696c 	svccs	0x0062696c
     d60:	2f636367 	svccs	0x00636367
     d64:	2d6d7261 	sfmcs	f7, 2, [sp, #-388]!	; 0xfffffe7c
     d68:	656e6f6e 	strbvs	r6, [lr, #-3950]!	; 0xfffff092
     d6c:	6261652d 	rsbvs	r6, r1, #188743680	; 0xb400000
     d70:	2e392f69 	cdpcs	15, 3, cr2, cr9, cr9, {3}
     d74:	2f312e32 	svccs	0x00312e32
     d78:	6c636e69 	stclvs	14, cr6, [r3], #-420	; 0xfffffe5c
     d7c:	00656475 	rsbeq	r6, r5, r5, ror r4
     d80:	6573552f 	ldrbvs	r5, [r3, #-1327]!	; 0xfffffad1
     d84:	6d2f7372 	stcvs	3, cr7, [pc, #-456]!	; bc4 <__code_start__-0x743c>
     d88:	73656c69 	cmnvc	r5, #26880	; 0x6900
     d8c:	756f532f 	strbvc	r5, [pc, #-815]!	; a65 <__code_start__-0x759b>
     d90:	2f656372 	svccs	0x00656372
     d94:	34327363 	ldrtcc	r7, [r2], #-867	; 0xfffffc9d
     d98:	2f786c30 	svccs	0x00786c30
     d9c:	7062696c 	rsbvc	r6, r2, ip, ror #18
     da0:	6e692f69 	cdpvs	15, 6, cr2, cr9, cr9, {3}
     da4:	64756c63 	ldrbtvs	r6, [r5], #-3171	; 0xfffff39d
     da8:	70000065 	andvc	r0, r0, r5, rrx
     dac:	746e6972 	strbtvc	r6, [lr], #-2418	; 0xfffff68e
     db0:	00632e6b 	rsbeq	r2, r3, fp, ror #28
     db4:	73000001 	movwvc	r0, #1
     db8:	72616474 	rsbvc	r6, r1, #116, 8	; 0x74000000
     dbc:	00682e67 	rsbeq	r2, r8, r7, ror #28
     dc0:	72000002 	andvc	r0, r0, #2, 0
     dc4:	682e6970 	stmdavs	lr!, {r4, r5, r6, r8, fp, sp, lr}
     dc8:	00000300 	andeq	r0, r0, r0, lsl #6
     dcc:	6975623c 	ldmdbvs	r5!, {r2, r3, r4, r5, r9, sp, lr}^
     dd0:	692d746c 	pushvs	{r2, r3, r5, r6, sl, ip, sp, lr}
     dd4:	00003e6e 	andeq	r3, r0, lr, ror #28
     dd8:	61760000 	cmnvs	r6, r0
     ddc:	6972702d 	ldmdbvs	r2!, {r0, r2, r3, r5, ip, sp, lr}^
     de0:	2e6b746e 	cdpcs	4, 6, cr7, cr11, cr14, {3}
     de4:	00010068 	andeq	r0, r1, r8, rrx
     de8:	22050000 	andcs	r0, r5, #0, 0
     dec:	30020500 	andcc	r0, r2, r0, lsl #10
     df0:	1700008c 	strne	r0, [r0, -ip, lsl #1]
     df4:	13140505 	tstne	r4, #20971520	; 0x1400000
     df8:	06220514 			; <UNDEFINED> instruction: 0x06220514
     dfc:	5012050d 	andspl	r0, r2, sp, lsl #10
     e00:	7a032205 	bvc	c961c <__bss_end__+0xbe744>
     e04:	3305052e 	movwcc	r0, #21806	; 0x552e
     e08:	052f1205 	streq	r1, [pc, #-517]!	; c0b <__code_start__-0x73f5>
     e0c:	09056505 	stmdbeq	r5, {r0, r2, r8, sl, sp, lr}
     e10:	12052f06 	andne	r2, r5, #6, 30
     e14:	05050106 	streq	r0, [r5, #-262]	; 0xfffffefa
     e18:	06164b06 	ldreq	r4, [r6], -r6, lsl #22
     e1c:	0550064a 	ldrbeq	r0, [r0, #-1610]	; 0xfffff9b6
     e20:	66130601 	ldrvs	r0, [r3], -r1, lsl #12
     e24:	01000802 	tsteq	r0, r2, lsl #16
     e28:	0000a001 	andeq	sl, r0, r1
     e2c:	57000300 	strpl	r0, [r0, -r0, lsl #6]
     e30:	02000000 	andeq	r0, r0, #0, 0
     e34:	0d0efb01 	vstreq	d15, [lr, #-4]
     e38:	01010100 	mrseq	r0, (UNDEF: 17)
     e3c:	00000001 	andeq	r0, r0, r1
     e40:	01000001 	tsteq	r0, r1
     e44:	696c2f2e 	stmdbvs	ip!, {r1, r2, r3, r5, r8, r9, sl, fp, sp}^
     e48:	2f006362 	svccs	0x00006362
     e4c:	72657355 	rsbvc	r7, r5, #1409286145	; 0x54000001
     e50:	696d2f73 	stmdbvs	sp!, {r0, r1, r4, r5, r6, r8, r9, sl, fp, sp}^
     e54:	2f73656c 	svccs	0x0073656c
     e58:	72756f53 	rsbsvc	r6, r5, #332	; 0x14c
     e5c:	632f6563 			; <UNDEFINED> instruction: 0x632f6563
     e60:	30343273 	eorscc	r3, r4, r3, ror r2
     e64:	6c2f786c 	stcvs	8, cr7, [pc], #-432	; cbc <__code_start__-0x7344>
     e68:	69706269 	ldmdbvs	r0!, {r0, r3, r5, r6, r9, sp, lr}^
     e6c:	636e692f 	cmnvs	lr, #770048	; 0xbc000
     e70:	6564756c 	strbvs	r7, [r4, #-1388]!	; 0xfffffa94
     e74:	75700000 	ldrbvc	r0, [r0, #-0]!
     e78:	632e6b74 			; <UNDEFINED> instruction: 0x632e6b74
     e7c:	00000100 	andeq	r0, r0, r0, lsl #2
     e80:	2e697072 	mcrcs	0, 3, r7, cr9, cr2, {3}
     e84:	00020068 	andeq	r0, r2, r8, rrx
     e88:	22050000 	andcs	r0, r5, #0, 0
     e8c:	88020500 	stmdahi	r2, {r8, sl}
     e90:	1500008c 	strne	r0, [r0, #-140]	; 0xffffff74
     e94:	05130505 	ldreq	r0, [r3, #-1285]	; 0xfffffafb
     e98:	2e110622 	cfmsub32cs	mvax1, mvfx0, mvfx1, mvfx2
     e9c:	2f060b05 	svccs	0x00060b05
     ea0:	2e060505 	cfsh32cs	mvfx0, mvfx6, #5
     ea4:	02000905 	andeq	r0, r0, #81920	; 0x14000
     ea8:	67060204 	strvs	r0, [r6, -r4, lsl #4]
     eac:	02000f05 	andeq	r0, r0, #5, 30
     eb0:	05490204 	strbeq	r0, [r9, #-516]	; 0xfffffdfc
     eb4:	0402000b 	streq	r0, [r2], #-11
     eb8:	05050102 	streq	r0, [r5, #-258]	; 0xfffffefe
     ebc:	02040200 	andeq	r0, r4, #0, 4
     ec0:	4e062e06 	cdpmi	14, 0, cr2, cr6, cr6, {0}
     ec4:	13060105 	movwne	r0, #24837	; 0x6105
     ec8:	01000602 	tsteq	r0, r2, lsl #12
     ecc:	0008fa01 	andeq	pc, r8, r1, lsl #20
     ed0:	f1000300 			; <UNDEFINED> instruction: 0xf1000300
     ed4:	02000000 	andeq	r0, r0, #0, 0
     ed8:	0d0efb01 	vstreq	d15, [lr, #-4]
     edc:	01010100 	mrseq	r0, (UNDEF: 17)
     ee0:	00000001 	andeq	r0, r0, r1
     ee4:	01000001 	tsteq	r0, r1
     ee8:	696c2f2e 	stmdbvs	ip!, {r1, r2, r3, r5, r8, r9, sl, fp, sp}^
     eec:	2f006362 	svccs	0x00006362
     ef0:	2f74706f 	svccs	0x0074706f
     ef4:	656d6f68 	strbvs	r6, [sp, #-3944]!	; 0xfffff098
     ef8:	77657262 	strbvc	r7, [r5, -r2, ror #4]!
     efc:	6c65432f 	stclvs	3, cr4, [r5], #-188	; 0xffffff44
     f00:	2f72616c 	svccs	0x0072616c
     f04:	2d6d7261 	sfmcs	f7, 2, [sp, #-388]!	; 0xfffffe7c
     f08:	656e6f6e 	strbvs	r6, [lr, #-3950]!	; 0xfffff092
     f0c:	6261652d 	rsbvs	r6, r1, #188743680	; 0xb400000
     f10:	2f392d69 	svccs	0x00392d69
     f14:	30322d39 	eorscc	r2, r2, r9, lsr sp
     f18:	34713931 	ldrbtcc	r3, [r1], #-2353	; 0xfffff6cf
     f1c:	3173632d 	cmncc	r3, sp, lsr #6
     f20:	2f653730 	svccs	0x00653730
     f24:	2f62696c 	svccs	0x0062696c
     f28:	2f636367 	svccs	0x00636367
     f2c:	2d6d7261 	sfmcs	f7, 2, [sp, #-388]!	; 0xfffffe7c
     f30:	656e6f6e 	strbvs	r6, [lr, #-3950]!	; 0xfffff092
     f34:	6261652d 	rsbvs	r6, r1, #188743680	; 0xb400000
     f38:	2e392f69 	cdpcs	15, 3, cr2, cr9, cr9, {3}
     f3c:	2f312e32 	svccs	0x00312e32
     f40:	6c636e69 	stclvs	14, cr6, [r3], #-420	; 0xfffffe5c
     f44:	00656475 	rsbeq	r6, r5, r5, ror r4
     f48:	6573552f 	ldrbvs	r5, [r3, #-1327]!	; 0xfffffad1
     f4c:	6d2f7372 	stcvs	3, cr7, [pc, #-456]!	; d8c <__code_start__-0x7274>
     f50:	73656c69 	cmnvc	r5, #26880	; 0x6900
     f54:	756f532f 	strbvc	r5, [pc, #-815]!	; c2d <__code_start__-0x73d3>
     f58:	2f656372 	svccs	0x00656372
     f5c:	34327363 	ldrtcc	r7, [r2], #-867	; 0xfffffc9d
     f60:	2f786c30 	svccs	0x00786c30
     f64:	7062696c 	rsbvc	r6, r2, ip, ror #18
     f68:	6e692f69 	cdpvs	15, 6, cr2, cr9, cr9, {3}
     f6c:	64756c63 	ldrbtvs	r6, [r5], #-3171	; 0xfffff39d
     f70:	76000065 	strvc	r0, [r0], -r5, rrx
     f74:	72702d61 	rsbsvc	r2, r0, #6208	; 0x1840
     f78:	6b746e69 	blvs	1d1c924 <__bss_end__+0x1d11a4c>
     f7c:	0100632e 	tsteq	r0, lr, lsr #6
     f80:	74730000 	ldrbtvc	r0, [r3], #-0
     f84:	746e6964 	strbtvc	r6, [lr], #-2404	; 0xfffff69c
     f88:	6363672d 	cmnvs	r3, #11796480	; 0xb40000
     f8c:	0200682e 	andeq	r6, r0, #3014656	; 0x2e0000
     f90:	70720000 	rsbsvc	r0, r2, r0
     f94:	00682e69 	rsbeq	r2, r8, r9, ror #28
     f98:	72000003 	andvc	r0, r0, #3, 0
     f9c:	692d6970 	pushvs	{r4, r5, r6, r8, fp, sp, lr}
     fa0:	7265746e 	rsbvc	r7, r5, #1845493760	; 0x6e000000
     fa4:	2e6c616e 	powcsez	f6, f4, #0.5
     fa8:	00030068 	andeq	r0, r3, r8, rrx
     fac:	64747300 	ldrbtvs	r7, [r4], #-768	; 0xfffffd00
     fb0:	2e677261 	cdpcs	2, 6, cr7, cr7, cr1, {3}
     fb4:	00020068 	andeq	r0, r2, r8, rrx
     fb8:	75623c00 	strbvc	r3, [r2, #-3072]!	; 0xfffff400
     fbc:	2d746c69 	ldclcs	12, cr6, [r4, #-420]!	; 0xfffffe5c
     fc0:	003e6e69 	eorseq	r6, lr, r9, ror #28
     fc4:	00000000 	andeq	r0, r0, r0
     fc8:	05000105 	streq	r0, [r0, #-261]	; 0xfffffefb
     fcc:	008cc002 	addeq	ip, ip, r2
     fd0:	00c80300 	sbceq	r0, r8, r0, lsl #6
     fd4:	14020501 	strne	r0, [r2], #-1281	; 0xfffffaff
     fd8:	10060105 	andne	r0, r6, r5, lsl #2
     fdc:	05300405 	ldreq	r0, [r0, #-1029]!	; 0xfffffbfb
     fe0:	054a2c01 	strbeq	r2, [sl, #-3073]	; 0xfffff3ff
     fe4:	02053004 	andeq	r3, r5, #4, 0
     fe8:	05133106 	ldreq	r3, [r3, #-262]	; 0xfffffefa
     fec:	052e060b 	streq	r0, [lr, #-1547]!	; 0xfffff9f5
     ff0:	05300602 	ldreq	r0, [r0, #-1538]!	; 0xfffff9fe
     ff4:	24020609 	strcs	r0, [r2], #-1545	; 0xfffff9f7
     ff8:	052e2e0d 	streq	r2, [lr, #-3597]!	; 0xfffff1f3
     ffc:	1703060d 	strne	r0, [r3, -sp, lsl #12]
    1000:	1311054a 	tstne	r1, #310378496	; 0x12800000
    1004:	01062d05 	tsteq	r6, r5, lsl #26
    1008:	052e1605 	streq	r1, [lr, #-1541]!	; 0xfffff9fb
    100c:	16052f0d 	strne	r2, [r5], -sp, lsl #30
    1010:	0614052d 	ldreq	r0, [r4], -sp, lsr #10
    1014:	0617052f 	ldreq	r0, [r7], -pc, lsr #10
    1018:	2e0d0501 	cfsh32cs	mvfx0, mvfx13, #1
    101c:	12052f06 	andne	r2, r5, #6, 30
    1020:	2f2e0106 	svccs	0x002e0106
    1024:	060d052d 	streq	r0, [sp], -sp, lsr #10
    1028:	0612052f 	ldreq	r0, [r2], -pc, lsr #10
    102c:	06190501 	ldreq	r0, [r9], -r1, lsl #10
    1030:	0304052f 	movweq	r0, #17711	; 0x452f
    1034:	05010111 	streq	r0, [r1, #-273]	; 0xfffffeef
    1038:	0e051502 	cfsh32eq	mvfx1, mvfx5, #2
    103c:	017fb203 	cmneq	pc, r3, lsl #4
    1040:	05130205 	ldreq	r0, [r3, #-517]	; 0xfffffdfb
    1044:	05010606 	streq	r0, [r1, #-1542]	; 0xfffff9fa
    1048:	05300602 	ldreq	r0, [r0, #-1538]!	; 0xfffff9fe
    104c:	02050108 	andeq	r0, r5, #2
    1050:	054a0106 	strbeq	r0, [sl, #-262]	; 0xfffffefa
    1054:	05910808 	ldreq	r0, [r1, #2056]	; 0x808
    1058:	054a0603 	strbeq	r0, [sl, #-1539]	; 0xfffff9fd
    105c:	05010608 	streq	r0, [r1, #-1544]	; 0xfffff9f8
    1060:	052d0615 	streq	r0, [sp, #-1557]!	; 0xfffff9eb
    1064:	03050108 	movweq	r0, #20744	; 0x5108
    1068:	060805d7 			; <UNDEFINED> instruction: 0x060805d7
    106c:	2d180501 	cfldr32cs	mvfx0, [r8, #-4]
    1070:	052e0205 	streq	r0, [lr, #-517]!	; 0xfffffdfb
    1074:	15052f08 	strne	r2, [r5, #-3848]	; 0xfffff0f8
    1078:	08052d06 	stmdaeq	r5, {r1, r2, r8, sl, fp, sp}
    107c:	06020501 	streq	r0, [r2], -r1, lsl #10
    1080:	06030501 	streq	r0, [r3], -r1, lsl #10
    1084:	0618052f 	ldreq	r0, [r8], -pc, lsr #10
    1088:	2e020511 	mcrcs	5, 0, r0, cr2, cr1, {0}
    108c:	052f0805 	streq	r0, [pc, #-2053]!	; 88f <__code_start__-0x7771>
    1090:	052d0615 	streq	r0, [sp, #-1557]!	; 0xfffff9eb
    1094:	03050108 	movweq	r0, #20744	; 0x5108
    1098:	06080513 			; <UNDEFINED> instruction: 0x06080513
    109c:	06150501 	ldreq	r0, [r5], -r1, lsl #10
    10a0:	0108052d 	tsteq	r8, sp, lsr #10
    10a4:	02050106 	andeq	r0, r5, #-2147483647	; 0x80000001
    10a8:	0505a006 	streq	sl, [r5, #-6]
    10ac:	04050106 	streq	r0, [r5], #-262	; 0xfffffefa
    10b0:	2f110536 	svccs	0x00110536
    10b4:	052e0905 	streq	r0, [lr, #-2309]!	; 0xfffff6fb
    10b8:	05053302 	streq	r3, [r5, #-770]	; 0xfffffcfe
    10bc:	052e7203 	streq	r7, [lr, #-515]!	; 0xfffffdfd
    10c0:	062f0602 	strteq	r0, [pc], -r2, lsl #12
    10c4:	060e0501 	streq	r0, [lr], -r1, lsl #10
    10c8:	14020516 	strne	r0, [r2], #-1302	; 0xfffffaea
    10cc:	13030513 	movwne	r0, #13587	; 0x3513
    10d0:	15140205 	ldrne	r0, [r4, #-517]	; 0xfffffdfb
    10d4:	05010b05 	streq	r0, [r1, #-2821]	; 0xfffff4fb
    10d8:	2e010602 	cfmadd32cs	mvax0, mvfx0, mvfx1, mvfx2
    10dc:	67060305 	strvs	r0, [r6, -r5, lsl #6]
    10e0:	01060a05 	tsteq	r6, r5, lsl #20
    10e4:	052d0205 	streq	r0, [sp, #-517]!	; 0xfffffdfb
    10e8:	17052f0a 	strne	r2, [r5, -sl, lsl #30]
    10ec:	0b052d06 	bleq	14c50c <__bss_end__+0x141634>
    10f0:	06020501 	streq	r0, [r2], -r1, lsl #10
    10f4:	4c090501 	cfstr32mi	mvfx0, [r9], {1}
    10f8:	0602052e 	streq	r0, [r2], -lr, lsr #10
    10fc:	0609052e 	streq	r0, [r9], -lr, lsr #10
    1100:	06020501 	streq	r0, [r2], -r1, lsl #10
    1104:	05010630 	streq	r0, [r1, #-1584]	; 0xfffff9d0
    1108:	01380301 	teqeq	r8, r1, lsl #6
    110c:	4f030905 	svcmi	0x00030905
    1110:	052e2e4a 	streq	r2, [lr, #-3658]!	; 0xfffff1b6
    1114:	27030619 	smladcs	r3, r9, r6, r0
    1118:	131a054a 	tstne	sl, #310378496	; 0x12800000
    111c:	01062805 	tsteq	r6, r5, lsl #16
    1120:	052e1f05 	streq	r1, [lr, #-3845]!	; 0xfffff0fb
    1124:	1f052f04 	svcne	0x00052f04
    1128:	060b052d 	streq	r0, [fp], -sp, lsr #10
    112c:	060e052f 	streq	r0, [lr], -pc, lsr #10
    1130:	2e040501 	cfsh32cs	mvfx0, mvfx4, #1
    1134:	03060205 	movweq	r0, #25093	; 0x6205
    1138:	05134a59 	ldreq	r4, [r3, #-2649]	; 0xfffff5a7
    113c:	052e060b 	streq	r0, [lr, #-1547]!	; 0xfffff9f5
    1140:	05300602 	ldreq	r0, [r0, #-1538]!	; 0xfffff9fe
    1144:	24020609 	strcs	r0, [r2], #-1545	; 0xfffff9f7
    1148:	0604050d 	streq	r0, [r4], -sp, lsl #10
    114c:	06051336 			; <UNDEFINED> instruction: 0x06051336
    1150:	05050106 	streq	r0, [r5, #-262]	; 0xfffffefa
    1154:	13136706 	tstne	r3, #1572864	; 0x180000
    1158:	11060905 	tstne	r6, r5, lsl #18
    115c:	052b0d05 	streq	r0, [fp, #-3333]!	; 0xfffff2fb
    1160:	0d05300b 	stceq	0, cr3, [r5, #-44]	; 0xffffffd4
    1164:	351b052c 	ldrcc	r0, [fp, #-1324]	; 0xfffffad4
    1168:	2d060405 	cfstrscs	mvf0, [r6, #-20]	; 0xffffffec
    116c:	05130505 	ldreq	r0, [r3, #-1285]	; 0xfffffafb
    1170:	052e061b 	streq	r0, [lr, #-1563]!	; 0xfffff9e5
    1174:	0405820a 	streq	r8, [r5], #-522	; 0xfffffdf6
    1178:	2e0e052f 	cfsh32cs	mvfx0, mvfx14, #31
    117c:	05490a05 	strbeq	r0, [r9, #-2565]	; 0xfffff5fb
    1180:	052f060b 	streq	r0, [pc, #-1547]!	; b7d <__code_start__-0x7483>
    1184:	06010604 	streq	r0, [r1], -r4, lsl #12
    1188:	0606052f 	streq	r0, [r6], -pc, lsr #10
    118c:	06050501 	streq	r0, [r5], -r1, lsl #10
    1190:	060a052f 	streq	r0, [sl], -pc, lsr #10
    1194:	07052e01 	streq	r2, [r5, -r1, lsl #28]
    1198:	052e2e2e 	streq	r2, [lr, #-3630]!	; 0xfffff1d2
    119c:	0d030604 	stceq	6, cr0, [r3, #-16]
    11a0:	06020501 	streq	r0, [r2], -r1, lsl #10
    11a4:	05014603 	streq	r4, [r1, #-1539]	; 0xfffff9fd
    11a8:	2e3a0309 	cdpcs	3, 3, cr0, cr10, cr9, {0}
    11ac:	2f060405 	svccs	0x00060405
    11b0:	01010d03 	tsteq	r1, r3, lsl #26
    11b4:	05150205 	ldreq	r0, [r5, #-517]	; 0xfffffdfb
    11b8:	7fb2030e 	svcvc	0x00b2030e
    11bc:	13020501 	movwne	r0, #9473	; 0x2501
    11c0:	01080514 	tsteq	r8, r4, lsl r5
    11c4:	10060605 	andne	r0, r6, r5, lsl #12
    11c8:	052e3c03 	streq	r3, [lr, #-3075]!	; 0xfffff3fd
    11cc:	4a460302 	bmi	1181ddc <__bss_end__+0x1176f04>
    11d0:	05053006 	streq	r3, [r5, #-6]
    11d4:	2e2e0106 	sufcse	f0, f6, f6
    11d8:	4b060205 	blmi	1819f4 <__bss_end__+0x176b1c>
    11dc:	0e050106 	adfeqs	f0, f5, f6
    11e0:	02051606 	andeq	r1, r5, #6291456	; 0x600000
    11e4:	15151314 	ldrne	r1, [r5, #-788]	; 0xfffffcec
    11e8:	05010b05 	streq	r0, [r1, #-2821]	; 0xfffff4fb
    11ec:	062e0602 	strteq	r0, [lr], -r2, lsl #12
    11f0:	06090530 			; <UNDEFINED> instruction: 0x06090530
    11f4:	06020501 	streq	r0, [r2], -r1, lsl #10
    11f8:	0501064c 	streq	r0, [r1, #-1612]	; 0xfffff9b4
    11fc:	01380301 	teqeq	r8, r1, lsl #6
    1200:	6e030605 	cfmadd32vs	mvax0, mvfx0, mvfx3, mvfx5
    1204:	0302054a 	movweq	r0, #9546	; 0x254a
    1208:	2e4a6646 	cdpcs	6, 4, cr6, cr10, cr6, {2}
    120c:	03060405 	movweq	r0, #25605	; 0x6405
    1210:	010100c8 	smlabteq	r1, r8, r0, r0
    1214:	2e060101 	adfcss	f0, f6, f1
    1218:	034a0682 	movteq	r0, #42626	; 0xa682
    121c:	09052e72 	stmdbeq	r5, {r1, r4, r5, r6, r9, sl, fp, sp}
    1220:	04050106 	streq	r0, [r5], #-262	; 0xfffffefa
    1224:	0d032f06 	stceq	15, cr2, [r3, #-24]	; 0xffffffe8
    1228:	02050101 	andeq	r0, r5, #1073741824	; 0x40000000
    122c:	030e0515 	movweq	r0, #58645	; 0xe515
    1230:	05017fb2 	streq	r7, [r1, #-4018]	; 0xfffff04e
    1234:	05141302 	ldreq	r1, [r4, #-770]	; 0xfffffcfe
    1238:	09050108 	stmdbeq	r5, {r3, r8}
    123c:	011b0306 	tsteq	fp, r6, lsl #6
    1240:	63030605 	movwvs	r0, #13829	; 0x3605
    1244:	2e3c032e 	cdpcs	3, 3, cr0, cr12, cr14, {1}
    1248:	48052e2e 	stmdami	r5, {r1, r2, r3, r5, r9, sl, fp, sp}
    124c:	7fb40306 	svcvc	0x00b40306
    1250:	05053c08 	streq	r3, [r5, #-3080]	; 0xfffff3f8
    1254:	2e060113 	mcrcs	1, 0, r0, cr6, cr3, {0}
    1258:	02040200 	andeq	r0, r4, #0, 4
    125c:	02002e06 	andeq	r2, r0, #96	; 0x60
    1260:	00010204 	andeq	r0, r1, r4, lsl #4
    1264:	13020402 	movwne	r0, #9218	; 0x2402
    1268:	02001105 	andeq	r1, r0, #1073741825	; 0x40000001
    126c:	01060204 	tsteq	r6, r4, lsl #4
    1270:	02000705 	andeq	r0, r0, #1310720	; 0x140000
    1274:	052f0204 	streq	r0, [pc, #-516]!	; 1078 <__code_start__-0x6f88>
    1278:	04020011 	streq	r0, [r2], #-17	; 0xffffffef
    127c:	05052d02 	streq	r2, [r5, #-3330]	; 0xfffff2fe
    1280:	02040200 	andeq	r0, r4, #0, 4
    1284:	09052f06 	stmdbeq	r5, {r1, r2, r8, r9, sl, fp, sp}
    1288:	02040200 	andeq	r0, r4, #0, 4
    128c:	000e0513 	andeq	r0, lr, r3, lsl r5
    1290:	06020402 	streq	r0, [r2], -r2, lsl #8
    1294:	00050501 	andeq	r0, r5, r1, lsl #10
    1298:	06010402 	streq	r0, [r1], -r2, lsl #8
    129c:	04020063 	streq	r0, [r2], #-99	; 0xffffff9d
    12a0:	48050101 	stmdami	r5, {r0, r8}
    12a4:	01040200 	mrseq	r0, R12_usr
    12a8:	05051106 	streq	r1, [r5, #-262]	; 0xfffffefa
    12ac:	01040200 	mrseq	r0, R12_usr
    12b0:	0048052f 	subeq	r0, r8, pc, lsr #10
    12b4:	2d010402 	cfstrscs	mvf0, [r1, #-8]
    12b8:	02000505 	andeq	r0, r0, #20971520	; 0x1400000
    12bc:	002f0104 	eoreq	r0, pc, r4, lsl #2
    12c0:	4a010402 	bmi	422d0 <__bss_end__+0x373f8>
    12c4:	01040200 	mrseq	r0, R12_usr
    12c8:	0402004a 	streq	r0, [r2], #-74	; 0xffffffb6
    12cc:	054a0601 	strbeq	r0, [sl, #-1537]	; 0xfffff9ff
    12d0:	00e10340 	rsceq	r0, r1, r0, asr #6
    12d4:	050106d6 	streq	r0, [r1, #-1750]	; 0xfffff92a
    12d8:	052e4e09 	streq	r4, [lr, #-3593]!	; 0xfffff1f7
    12dc:	1e053008 	cdpne	0, 0, cr3, cr5, cr8, {0}
    12e0:	2e120529 	cfmul64cs	mvdx0, mvdx2, mvdx9
    12e4:	05330d05 	ldreq	r0, [r3, #-3333]!	; 0xfffff2fb
    12e8:	05450602 	strbeq	r0, [r5, #-1538]	; 0xfffff9fe
    12ec:	02051305 	andeq	r1, r5, #335544320	; 0x14000000
    12f0:	13050514 	movwne	r0, #21780	; 0x5514
    12f4:	05130205 	ldreq	r0, [r3, #-517]	; 0xfffffdfb
    12f8:	40050108 	andmi	r0, r5, r8, lsl #2
    12fc:	017a0306 	cmneq	sl, r6, lsl #6
    1300:	340d052e 	strcc	r0, [sp], #-1326	; 0xfffffad2
    1304:	03110566 	tsteq	r1, #427819008	; 0x19800000
    1308:	054a4a20 	strbeq	r4, [sl, #-2592]	; 0xfffff5e0
    130c:	62030604 	andvs	r0, r3, #4, 12	; 0x400000
    1310:	06090501 	streq	r0, [r9], -r1, lsl #10
    1314:	2e0f0501 	cfsh32cs	mvfx0, mvfx15, #1
    1318:	2c060805 	stccs	8, cr0, [r6], {5}
    131c:	2e060d05 	cdpcs	13, 0, cr0, cr6, cr5, {0}
    1320:	67060305 	strvs	r0, [r6, -r5, lsl #6]
    1324:	01060505 	tsteq	r6, r5, lsl #10
    1328:	4d060805 	stcmi	8, cr0, [r6, #-20]	; 0xffffffec
    132c:	01060e05 	tsteq	r6, r5, lsl #28
    1330:	052e0a05 	streq	r0, [lr, #-2565]!	; 0xfffff5fb
    1334:	04052f09 	streq	r2, [r5], #-3849	; 0xfffff0f7
    1338:	07052f06 	streq	r2, [r5, -r6, lsl #30]
    133c:	0a050106 	beq	14175c <__bss_end__+0x136884>
    1340:	0604052c 	streq	r0, [r4], -ip, lsr #10
    1344:	062d0532 			; <UNDEFINED> instruction: 0x062d0532
    1348:	017f9803 	cmneq	pc, r3, lsl #16
    134c:	ed030905 	vstr.16	s0, [r3, #-10]
    1350:	0d052e00 	stceq	14, cr2, [r5, #-0]
    1354:	2b07052c 	blcs	1c280c <__bss_end__+0x1b7934>
    1358:	30060405 	andcc	r0, r6, r5, lsl #8
    135c:	09051413 	stmdbeq	r5, {r0, r1, r4, sl, ip}
    1360:	030c0501 	movweq	r0, #50433	; 0xc501
    1364:	05017f93 	streq	r7, [r1, #-3987]	; 0xfffff06d
    1368:	0106011d 	tsteq	r6, sp, lsl r1
    136c:	ed030905 	vstr.16	s0, [r3, #-10]
    1370:	05050100 	streq	r0, [r5, #-256]	; 0xffffff00
    1374:	12052f06 	andne	r2, r5, #6, 30
    1378:	2d2e0106 	stfcss	f0, [lr, #-24]!	; 0xffffffe8
    137c:	052f0b05 	streq	r0, [pc, #-2821]!	; 87f <__code_start__-0x7781>
    1380:	052f0605 	streq	r0, [pc, #-1541]!	; d83 <__code_start__-0x727d>
    1384:	0c051009 	stceq	0, cr1, [r5], {9}
    1388:	017f9303 	cmneq	pc, r3, lsl #6
    138c:	05011d05 	streq	r1, [r1, #-3333]	; 0xfffff2fb
    1390:	0501062d 	streq	r0, [r1, #-1581]	; 0xfffff9d3
    1394:	00ed0309 	rsceq	r0, sp, r9, lsl #6
    1398:	0604052e 	streq	r0, [r4], -lr, lsr #10
    139c:	0200014e 	andeq	r0, r0, #-2147483629	; 0x80000013
    13a0:	004a0204 	subeq	r0, sl, r4, lsl #4
    13a4:	01020402 	tsteq	r2, r2, lsl #8
    13a8:	02040200 	andeq	r0, r4, #0, 4
    13ac:	04020015 	streq	r0, [r2], #-21	; 0xffffffeb
    13b0:	36020602 	strcc	r0, [r2], -r2, lsl #12
    13b4:	04020012 	streq	r0, [r2], #-18	; 0xffffffee
    13b8:	02052e02 	andeq	r2, r5, #2, 28
    13bc:	00d10306 	sbcseq	r0, r1, r6, lsl #6
    13c0:	06070501 	streq	r0, [r7], -r1, lsl #10
    13c4:	02052e01 	andeq	r2, r5, #1, 28
    13c8:	0b052f06 	bleq	14cfe8 <__bss_end__+0x142110>
    13cc:	01050106 	tsteq	r5, r6, lsl #2
    13d0:	0605052f 	streq	r0, [r5], -pc, lsr #10
    13d4:	054a6503 	strbeq	r6, [sl, #-1283]	; 0xfffffafd
    13d8:	66010609 	strvs	r0, [r1], -r9, lsl #12
    13dc:	9f060505 	svcls	0x00060505
    13e0:	11030405 	tstne	r3, r5, lsl #8
    13e4:	06070501 	streq	r0, [r7], -r1, lsl #10
    13e8:	06040501 	streq	r0, [r4], -r1, lsl #10
    13ec:	010a0531 	tsteq	sl, r1, lsr r5
    13f0:	02001305 	andeq	r1, r0, #335544320	; 0x14000000
    13f4:	2e060104 	adfcss	f0, f6, f4
    13f8:	02001005 	andeq	r1, r0, #5, 0
    13fc:	052e0104 	streq	r0, [lr, #-260]!	; 0xfffffefc
    1400:	054b0605 	strbeq	r0, [fp, #-1541]	; 0xfffff9fb
    1404:	0601060a 	streq	r0, [r1], -sl, lsl #12
    1408:	0604052d 	streq	r0, [r4], -sp, lsr #10
    140c:	06110501 	ldreq	r0, [r1], -r1, lsl #10
    1410:	667fb603 	ldrbtvs	fp, [pc], -r3, lsl #12
    1414:	02000113 	andeq	r0, r0, #-1073741820	; 0xc0000004
    1418:	ba060204 	blt	181c30 <__bss_end__+0x176d58>
    141c:	1401ba06 	strne	fp, [r1], #-2566	; 0xfffff5fa
    1420:	13061a05 	movwne	r1, #27141	; 0x6a05
    1424:	11052e2e 	tstne	r5, lr, lsr #28
    1428:	1405674e 	strne	r6, [r5], #-1870	; 0xfffff8b2
    142c:	82130568 	andshi	r0, r3, #104, 10	; 0x1a000000
    1430:	78031505 	stmdavc	r3, {r0, r2, r8, sl, ip}
    1434:	0611054a 	ldreq	r0, [r1], -sl, asr #10
    1438:	1413134b 	ldrne	r1, [r3], #-843	; 0xfffffcb5
    143c:	13051413 	movwne	r1, #21523	; 0x5413
    1440:	09050106 	stmdbeq	r5, {r1, r2, r8}
    1444:	0d052f06 	stceq	15, cr2, [r5, #-24]	; 0xffffffe8
    1448:	2e2e0106 	sufcse	f0, f6, f6
    144c:	05bb0905 	ldreq	r0, [fp, #2309]!	; 0x905
    1450:	09059d0d 	stmdbeq	r5, {r0, r2, r3, r8, sl, fp, ip, pc}
    1454:	15052f06 	strne	r2, [r5, #-3846]	; 0xfffff0fa
    1458:	7503062f 	strvc	r0, [r3, #-1583]	; 0xfffff9d1
    145c:	2e0b034a 	cdpcs	3, 0, cr0, cr11, cr10, {2}
    1460:	0605054a 	streq	r0, [r5], -sl, asr #10
    1464:	05012303 	streq	r2, [r1, #-771]	; 0xfffffcfd
    1468:	2e010609 	cfmadd32cs	mvax0, mvfx0, mvfx1, mvfx9
    146c:	d7060505 	strle	r0, [r6, -r5, lsl #10]
    1470:	032e6e03 			; <UNDEFINED> instruction: 0x032e6e03
    1474:	0905010e 	stmdbeq	r5, {r1, r2, r3, r8}
    1478:	05050106 	streq	r0, [r5, #-262]	; 0xfffffefa
    147c:	4a100306 	bmi	40209c <__bss_end__+0x3f71c4>
    1480:	ed030105 	stfs	f0, [r3, #-20]	; 0xffffffec
    1484:	0205017e 	andeq	r0, r5, #-2147483617	; 0x8000001f
    1488:	14131514 	ldrne	r1, [r3], #-1300	; 0xfffffaec
    148c:	1a030405 	bne	c24a8 <__bss_end__+0xb75d0>
    1490:	06090501 	streq	r0, [r9], -r1, lsl #10
    1494:	03020501 	movweq	r0, #9473	; 0x2501
    1498:	09052e46 	stmdbeq	r5, {r1, r2, r6, r9, sl, fp, sp}
    149c:	052e3a03 	streq	r3, [lr, #-2563]!	; 0xfffff5fd
    14a0:	032f0604 			; <UNDEFINED> instruction: 0x032f0604
    14a4:	0501010d 	streq	r0, [r1, #-269]	; 0xfffffef3
    14a8:	0e051502 	cfsh32eq	mvfx1, mvfx5, #2
    14ac:	017fb203 	cmneq	pc, r3, lsl #4
    14b0:	14130205 	ldrne	r0, [r3], #-517	; 0xfffffdfb
    14b4:	05010805 	streq	r0, [r1, #-2053]	; 0xfffff7fb
    14b8:	05010602 	streq	r0, [r1, #-1538]	; 0xfffff9fe
    14bc:	03059f08 	movweq	r9, #24328	; 0x5f08
    14c0:	01064a06 	tsteq	r6, r6, lsl #20
    14c4:	052e0805 	streq	r0, [lr, #-2053]!	; 0xfffff7fb
    14c8:	052d0615 	streq	r0, [sp, #-1557]!	; 0xfffff9eb
    14cc:	03050108 	movweq	r0, #20744	; 0x5108
    14d0:	0501062f 	streq	r0, [r1, #-1583]	; 0xfffff9d1
    14d4:	15052e08 	strne	r2, [r5, #-3592]	; 0xfffff1f8
    14d8:	08052d06 	stmdaeq	r5, {r1, r2, r8, sl, fp, sp}
    14dc:	2f030501 	svccs	0x00030501
    14e0:	08050106 	stmdaeq	r5, {r1, r2, r8}
    14e4:	0615052e 	ldreq	r0, [r5], -lr, lsr #10
    14e8:	0108052d 	tsteq	r8, sp, lsr #10
    14ec:	062f0305 	strteq	r0, [pc], -r5, lsl #6
    14f0:	2e080501 	cfsh32cs	mvfx0, mvfx8, #1
    14f4:	2d061505 	cfstr32cs	mvfx1, [r6, #-20]	; 0xffffffec
    14f8:	05010805 	streq	r0, [r1, #-2053]	; 0xfffff7fb
    14fc:	01062f03 	tsteq	r6, r3, lsl #30
    1500:	052e0805 	streq	r0, [lr, #-2053]!	; 0xfffff7fb
    1504:	052d0615 	streq	r0, [sp, #-1557]!	; 0xfffff9eb
    1508:	03050108 	movweq	r0, #20744	; 0x5108
    150c:	0501062f 	streq	r0, [r1, #-1583]	; 0xfffff9d1
    1510:	15052e08 	strne	r2, [r5, #-3592]	; 0xfffff1f8
    1514:	08052d06 	stmdaeq	r5, {r1, r2, r8, sl, fp, sp}
    1518:	13030501 	movwne	r0, #13569	; 0x3501
    151c:	01060805 	tsteq	r6, r5, lsl #16
    1520:	2d061505 	cfstr32cs	mvfx1, [r6, #-20]	; 0xffffffec
    1524:	06010805 	streq	r0, [r1], -r5, lsl #16
    1528:	06030566 	streq	r0, [r3], -r6, ror #10
    152c:	06080567 	streq	r0, [r8], -r7, ror #10
    1530:	2d180501 	cfldr32cs	mvfx0, [r8, #-4]
    1534:	052e0205 	streq	r0, [lr, #-517]!	; 0xfffffdfb
    1538:	15052f08 	strne	r2, [r5, #-3848]	; 0xfffff0f8
    153c:	08052d06 	stmdaeq	r5, {r1, r2, r8, sl, fp, sp}
    1540:	06020501 	streq	r0, [r2], -r1, lsl #10
    1544:	06030501 	streq	r0, [r3], -r1, lsl #10
    1548:	0618052f 	ldreq	r0, [r8], -pc, lsr #10
    154c:	2e020511 	mcrcs	5, 0, r0, cr2, cr1, {0}
    1550:	052f0805 	streq	r0, [pc, #-2053]!	; d53 <__code_start__-0x72ad>
    1554:	052d0615 	streq	r0, [sp, #-1557]!	; 0xfffff9eb
    1558:	03050108 	movweq	r0, #20744	; 0x5108
    155c:	06080513 			; <UNDEFINED> instruction: 0x06080513
    1560:	06150501 	ldreq	r0, [r5], -r1, lsl #10
    1564:	0108052d 	tsteq	r8, sp, lsr #10
    1568:	14060505 	strne	r0, [r6], #-1285	; 0xfffffafb
    156c:	0602054a 	streq	r0, [r2], -sl, asr #10
    1570:	060e052e 	streq	r0, [lr], -lr, lsr #10
    1574:	2f040519 	svccs	0x00040519
    1578:	052f1105 	streq	r1, [pc, #-261]!	; 147b <__code_start__-0x6b85>
    157c:	02054a09 	andeq	r4, r5, #36864	; 0x9000
    1580:	03050533 	movweq	r0, #21811	; 0x5533
    1584:	02052e72 	andeq	r2, r5, #1824	; 0x720
    1588:	01062f06 	tsteq	r6, r6, lsl #30
    158c:	16060e05 	strne	r0, [r6], -r5, lsl #28
    1590:	13140205 	tstne	r4, #1342177280	; 0x50000000
    1594:	05130305 	ldreq	r0, [r3, #-773]	; 0xfffffcfb
    1598:	05151402 	ldreq	r1, [r5, #-1026]	; 0xfffffbfe
    159c:	0205010b 	andeq	r0, r5, #-1073741822	; 0xc0000002
    15a0:	662e0106 	strtvs	r0, [lr], -r6, lsl #2
    15a4:	2f060305 	svccs	0x00060305
    15a8:	01060a05 	tsteq	r6, r5, lsl #20
    15ac:	052d0205 	streq	r0, [sp, #-517]!	; 0xfffffdfb
    15b0:	17052f0a 	strne	r2, [r5, -sl, lsl #30]
    15b4:	0b052d06 	bleq	14c9d4 <__bss_end__+0x141afc>
    15b8:	06020501 	streq	r0, [r2], -r1, lsl #10
    15bc:	054a4a01 	strbeq	r4, [sl, #-2561]	; 0xfffff5ff
    15c0:	95030605 	strls	r0, [r3, #-1541]	; 0xfffff9fb
    15c4:	11050101 	tstne	r5, r1, lsl #2
    15c8:	7ef80306 	cdpvc	3, 15, cr0, cr8, cr6, {0}
    15cc:	031b0501 	tsteq	fp, #4194304	; 0x400000
    15d0:	054a0188 	strbeq	r0, [sl, #-392]	; 0xfffffe78
    15d4:	f3030601 	vmax.u8	d0, d3, d1
    15d8:	02052e7e 	andeq	r2, r5, #2016	; 0x7e0
    15dc:	14131514 	ldrne	r1, [r3], #-1300	; 0xfffffaec
    15e0:	22031905 	andcs	r1, r3, #81920	; 0x14000
    15e4:	131a0501 	tstne	sl, #4194304	; 0x400000
    15e8:	01062805 	tsteq	r6, r5, lsl #16
    15ec:	052e1f05 	streq	r1, [lr, #-3845]!	; 0xfffff0fb
    15f0:	0e052f04 	cdpeq	15, 0, cr2, cr5, cr4, {0}
    15f4:	2d1f054a 	cfldr32cs	mvfx0, [pc, #-296]	; 14d4 <__code_start__-0x6b2c>
    15f8:	2f060b05 	svccs	0x00060b05
    15fc:	01060405 	tsteq	r6, r5, lsl #8
    1600:	05013206 	streq	r3, [r1, #-518]	; 0xfffffdfa
    1604:	0e051502 	cfsh32eq	mvfx1, mvfx5, #2
    1608:	017fb203 	cmneq	pc, r3, lsl #4
    160c:	05130205 	ldreq	r0, [r3, #-517]	; 0xfffffdfb
    1610:	05010606 	streq	r0, [r1, #-1542]	; 0xfffff9fa
    1614:	05300602 	ldreq	r0, [r0, #-1538]!	; 0xfffff9fe
    1618:	02050108 	andeq	r0, r5, #2
    161c:	03050106 	movweq	r0, #20742	; 0x5106
    1620:	05210806 	streq	r0, [r1, #-2054]!	; 0xfffff7fa
    1624:	05010608 	streq	r0, [r1, #-1544]	; 0xfffff9f8
    1628:	05490615 	strbeq	r0, [r9, #-1557]	; 0xfffff9eb
    162c:	03050108 	movweq	r0, #20744	; 0x5108
    1630:	060805d7 			; <UNDEFINED> instruction: 0x060805d7
    1634:	2d180501 	cfldr32cs	mvfx0, [r8, #-4]
    1638:	052e0205 	streq	r0, [lr, #-517]!	; 0xfffffdfb
    163c:	15052f08 	strne	r2, [r5, #-3848]	; 0xfffff0f8
    1640:	08052d06 	stmdaeq	r5, {r1, r2, r8, sl, fp, sp}
    1644:	06020501 	streq	r0, [r2], -r1, lsl #10
    1648:	06030501 	streq	r0, [r3], -r1, lsl #10
    164c:	0618052f 	ldreq	r0, [r8], -pc, lsr #10
    1650:	2e020511 	mcrcs	5, 0, r0, cr2, cr1, {0}
    1654:	052f0805 	streq	r0, [pc, #-2053]!	; e57 <__code_start__-0x71a9>
    1658:	052d0615 	streq	r0, [sp, #-1557]!	; 0xfffff9eb
    165c:	03050108 	movweq	r0, #20744	; 0x5108
    1660:	06080513 			; <UNDEFINED> instruction: 0x06080513
    1664:	06150501 	ldreq	r0, [r5], -r1, lsl #10
    1668:	0108052d 	tsteq	r8, sp, lsr #10
    166c:	14060505 	strne	r0, [r6], #-1285	; 0xfffffafb
    1670:	66060205 	strvs	r0, [r6], -r5, lsl #4
    1674:	1a060405 	bne	182690 <__bss_end__+0x1777b8>
    1678:	78030505 	stmdavc	r3, {r0, r2, r8, sl}
    167c:	0602054a 	streq	r0, [r2], -sl, asr #10
    1680:	0501062f 	streq	r0, [r1, #-1583]	; 0xfffff9d1
    1684:	0516060e 	ldreq	r0, [r6, #-1550]	; 0xfffff9f2
    1688:	05131402 	ldreq	r1, [r3, #-1026]	; 0xfffffbfe
    168c:	05010604 	streq	r0, [r1, #-1540]	; 0xfffff9fc
    1690:	052f0603 	streq	r0, [pc, #-1539]!	; 1095 <__code_start__-0x6f6b>
    1694:	05010611 	streq	r0, [r1, #-1553]	; 0xfffff9ef
    1698:	02052e09 	andeq	r2, r5, #144	; 0x90
    169c:	05153006 	ldreq	r3, [r5, #-6]
    16a0:	0205010b 	andeq	r0, r5, #-1073741822	; 0xc0000002
    16a4:	4a4a0106 	bmi	1281ac4 <__bss_end__+0x1276bec>
    16a8:	0603052e 	streq	r0, [r3], -lr, lsr #10
    16ac:	060a052f 	streq	r0, [sl], -pc, lsr #10
    16b0:	2d020501 	cfstr32cs	mvfx0, [r2, #-4]
    16b4:	052f0a05 	streq	r0, [pc, #-2565]!	; cb7 <__code_start__-0x7349>
    16b8:	052d0617 	streq	r0, [sp, #-1559]!	; 0xfffff9e9
    16bc:	0205010b 	andeq	r0, r5, #-1073741822	; 0xc0000002
    16c0:	2e4a0106 	dvfcse	f0, f2, f6
    16c4:	09051406 	stmdbeq	r5, {r1, r2, sl, ip}
    16c8:	02050106 	andeq	r0, r5, #-2147483647	; 0x80000001
    16cc:	01064c06 	tsteq	r6, r6, lsl #24
    16d0:	03060505 	movweq	r0, #25861	; 0x6505
    16d4:	2a010198 	bcs	41d3c <__bss_end__+0x36e64>
    16d8:	01060705 	tsteq	r6, r5, lsl #14
    16dc:	2f060505 	svccs	0x00060505
    16e0:	53031805 	movwpl	r1, #14341	; 0x3805
    16e4:	061b052e 	ldreq	r0, [fp], -lr, lsr #10
    16e8:	821a0501 	andshi	r0, sl, #4194304	; 0x400000
    16ec:	4b060905 	blmi	183b08 <__bss_end__+0x178c30>
    16f0:	01060d05 	tsteq	r6, r5, lsl #26
    16f4:	d709052e 	strle	r0, [r9, -lr, lsr #10]
    16f8:	059d0d05 	ldreq	r0, [sp, #3333]	; 0xd05
    16fc:	052f0609 	streq	r0, [pc, #-1545]!	; 10fb <__code_start__-0x6f05>
    1700:	18053015 	stmdane	r5, {r0, r2, r4, ip, sp}
    1704:	17050106 	strne	r0, [r5, -r6, lsl #2]
    1708:	2f190566 	svccs	0x00190566
    170c:	05491705 	strbeq	r1, [r9, #-1797]	; 0xfffff8fb
    1710:	052f0619 	streq	r0, [pc, #-1561]!	; 10ff <__code_start__-0x6f01>
    1714:	6f030615 	svcvs	0x00030615
    1718:	0619052e 	ldreq	r0, [r9], -lr, lsr #10
    171c:	054a1303 	strbeq	r1, [sl, #-771]	; 0xfffffcfd
    1720:	6d030615 	stcvs	6, cr0, [r3, #-84]	; 0xffffffac
    1724:	02054a2e 	andeq	r4, r5, #188416	; 0x2e000
    1728:	017fa003 	cmneq	pc, r3
    172c:	72030666 	andvc	r0, r3, #106954752	; 0x6600000
    1730:	06050501 	streq	r0, [r5], -r1, lsl #10
    1734:	36040501 	strcc	r0, [r4], -r1, lsl #10
    1738:	78030505 	stmdavc	r3, {r0, r2, r8, sl}
    173c:	0602052e 	streq	r0, [r2], -lr, lsr #10
    1740:	0501062f 	streq	r0, [r1, #-1583]	; 0xfffff9d1
    1744:	0516060e 	ldreq	r0, [r6, #-1550]	; 0xfffff9f2
    1748:	05131402 	ldreq	r1, [r3, #-1026]	; 0xfffffbfe
    174c:	4a010604 	bmi	42f64 <__bss_end__+0x3808c>
    1750:	03060205 	movweq	r0, #25093	; 0x6205
    1754:	05050178 	streq	r0, [r5, #-376]	; 0xfffffe88
    1758:	054a0106 	strbeq	r0, [sl, #-262]	; 0xfffffefa
    175c:	064b0602 	strbeq	r0, [fp], -r2, lsl #12
    1760:	060e0501 	streq	r0, [lr], -r1, lsl #10
    1764:	14020516 	strne	r0, [r2], #-1302	; 0xfffffaea
    1768:	05151513 	ldreq	r1, [r5, #-1299]	; 0xfffffaed
    176c:	2e06010b 	adfcss	f0, f6, #3.0
    1770:	03061105 	movweq	r1, #24837	; 0x6105
    1774:	0501019e 	streq	r0, [r1, #-414]	; 0xfffffe62
    1778:	05010622 	streq	r0, [r1, #-1570]	; 0xfffff9de
    177c:	22052f05 	andcs	r2, r5, #5, 30
    1780:	0605052d 	streq	r0, [r5], -sp, lsr #10
    1784:	4b11052f 	blmi	442c48 <__bss_end__+0x437d70>
    1788:	01830505 	orreq	r0, r3, r5, lsl #10
    178c:	2e5c039e 	mrccs	3, 2, r0, cr12, cr14, {4}
    1790:	02059e01 	andeq	r9, r5, #1, 28
    1794:	7ef30306 	cdpvc	3, 15, cr0, cr3, cr6, {0}
    1798:	06052e2e 	streq	r2, [r5], -lr, lsr #28
    179c:	0d054a2c 	vstreq	s8, [r5, #-176]	; 0xffffff50
    17a0:	0100d803 	tsteq	r0, r3, lsl #16
    17a4:	02000405 	andeq	r0, r0, #83886080	; 0x5000000
    17a8:	03060104 	movweq	r0, #24836	; 0x6104
    17ac:	02004a11 	andeq	r4, r0, #69632	; 0x11000
    17b0:	05010104 	streq	r0, [r1, #-260]	; 0xfffffefc
    17b4:	06510611 			; <UNDEFINED> instruction: 0x06510611
    17b8:	0315059e 	tsteq	r5, #662700032	; 0x27800000
    17bc:	ba012e17 	blt	4d020 <__bss_end__+0x42148>
    17c0:	69031105 	stmdbvs	r3, {r0, r2, r8, ip}
    17c4:	2802012e 	stmdacs	r2, {r1, r2, r3, r5, r8}
    17c8:	87010100 	strhi	r0, [r1, -r0, lsl #2]
    17cc:	03000000 	movweq	r0, #0
    17d0:	00006400 	andeq	r6, r0, r0, lsl #8
    17d4:	fb010200 	blx	41fde <__bss_end__+0x37106>
    17d8:	01000d0e 	tsteq	r0, lr, lsl #26
    17dc:	00010101 	andeq	r0, r1, r1, lsl #2
    17e0:	00010000 	andeq	r0, r1, r0
    17e4:	2f2e0100 	svccs	0x002e0100
    17e8:	66617473 			; <UNDEFINED> instruction: 0x66617473
    17ec:	72732d66 	rsbsvc	r2, r3, #6528	; 0x1980
    17f0:	552f0063 	strpl	r0, [pc, #-99]!	; 1795 <__code_start__-0x686b>
    17f4:	73726573 	cmnvc	r2, #482344960	; 0x1cc00000
    17f8:	6c696d2f 	stclvs	13, cr6, [r9], #-188	; 0xffffff44
    17fc:	532f7365 			; <UNDEFINED> instruction: 0x532f7365
    1800:	6372756f 	cmnvs	r2, #465567744	; 0x1bc00000
    1804:	73632f65 	cmnvc	r3, #404	; 0x194
    1808:	6c303432 	cfldrsvs	mvf3, [r0], #-200	; 0xffffff38
    180c:	696c2f78 	stmdbvs	ip!, {r3, r4, r5, r6, r8, r9, sl, fp, sp}^
    1810:	2f697062 	svccs	0x00697062
    1814:	6c636e69 	stclvs	14, cr6, [r3], #-420	; 0xfffffe5c
    1818:	00656475 	rsbeq	r6, r5, r5, ror r4
    181c:	656c6300 	strbvs	r6, [ip, #-768]!	; 0xfffffd00
    1820:	722d6e61 	eorvc	r6, sp, #1552	; 0x610
    1824:	6f6f6265 	svcvs	0x006f6265
    1828:	00632e74 	rsbeq	r2, r3, r4, ror lr
    182c:	72000001 	andvc	r0, r0, #1, 0
    1830:	682e6970 	stmdavs	lr!, {r4, r5, r6, r8, fp, sp, lr}
    1834:	00000200 	andeq	r0, r0, r0, lsl #4
    1838:	00190500 	andseq	r0, r9, r0, lsl #10
    183c:	96740205 	ldrbtls	r0, [r4], -r5, lsl #4
    1840:	05150000 	ldreq	r0, [r5, #-0]
    1844:	19051305 	stmdbne	r5, {r0, r2, r8, r9, ip}
    1848:	05052d06 	streq	r2, [r5, #-3334]	; 0xfffff2fa
    184c:	2f67062f 	svccs	0x0067062f
    1850:	0006024b 	andeq	r0, r6, fp, asr #4
    1854:	01120101 	tsteq	r2, r1, lsl #2
    1858:	00030000 	andeq	r0, r3, r0
    185c:	0000005e 	andeq	r0, r0, lr, asr r0
    1860:	0efb0102 	cdpeq	1, 15, cr0, cr11, cr2, {0}
    1864:	0101000d 	tsteq	r1, sp
    1868:	00000101 	andeq	r0, r0, r1, lsl #2
    186c:	00000100 	andeq	r0, r0, r0, lsl #2
    1870:	732f2e01 			; <UNDEFINED> instruction: 0x732f2e01
    1874:	66666174 			; <UNDEFINED> instruction: 0x66666174
    1878:	6372732d 	cmnvs	r2, #-1275068416	; 0xb4000000
    187c:	73552f00 	cmpvc	r5, #0, 30
    1880:	2f737265 	svccs	0x00737265
    1884:	656c696d 	strbvs	r6, [ip, #-2413]!	; 0xfffff693
    1888:	6f532f73 	svcvs	0x00532f73
    188c:	65637275 	strbvs	r7, [r3, #-629]!	; 0xfffffd8b
    1890:	3273632f 	rsbscc	r6, r3, #-1140850688	; 0xbc000000
    1894:	786c3034 	stmdavc	ip!, {r2, r4, r5, ip, sp}^
    1898:	62696c2f 	rsbvs	r6, r9, #12032	; 0x2f00
    189c:	692f6970 	stmdbvs	pc!, {r4, r5, r6, r8, fp, sp, lr}	; <UNPREDICTABLE>
    18a0:	756c636e 	strbvc	r6, [ip, #-878]!	; 0xfffffc92
    18a4:	00006564 	andeq	r6, r0, r4, ror #10
    18a8:	61747363 	cmnvs	r4, r3, ror #6
    18ac:	632e7472 			; <UNDEFINED> instruction: 0x632e7472
    18b0:	00000100 	andeq	r0, r0, r0, lsl #2
    18b4:	2e697072 	mcrcs	0, 3, r7, cr9, cr2, {3}
    18b8:	00020068 	andeq	r0, r2, r8, rrx
    18bc:	10050000 	andne	r0, r5, r0
    18c0:	a0020500 	andge	r0, r2, r0, lsl #10
    18c4:	15000096 	strne	r0, [r0, #-150]	; 0xffffff6a
    18c8:	05130505 	ldreq	r0, [r3, #-1285]	; 0xfffffafb
    18cc:	05051302 	streq	r1, [r5, #-770]	; 0xfffffcfe
    18d0:	06100514 			; <UNDEFINED> instruction: 0x06100514
    18d4:	3205050e 	andcc	r0, r5, #58720256	; 0x3800000
    18d8:	14133006 	ldrne	r3, [r3], #-6
    18dc:	05010a05 	streq	r0, [r1, #-2565]	; 0xfffff5fb
    18e0:	05910809 	ldreq	r0, [r1, #2057]	; 0x809
    18e4:	05010610 	streq	r0, [r1, #-1552]	; 0xfffff9f0
    18e8:	10059a0a 	andne	r9, r5, sl, lsl #20
    18ec:	060a056a 	streq	r0, [sl], -sl, ror #10
    18f0:	2f09052d 	svccs	0x0009052d
    18f4:	01061005 	tsteq	r6, r5
    18f8:	2d060a05 	vstrcs	s0, [r6, #-20]	; 0xffffffec
    18fc:	05bb0905 	ldreq	r0, [fp, #2309]!	; 0x905
    1900:	05010610 	streq	r0, [r1, #-1552]	; 0xfffff9f0
    1904:	0565060a 	strbeq	r0, [r5, #-1546]!	; 0xfffff9f6
    1908:	0d054b09 	vstreq	d4, [r5, #-36]	; 0xffffffdc
    190c:	0a050106 	beq	141d2c <__bss_end__+0x136e54>
    1910:	2f10052d 	svccs	0x0010052d
    1914:	2d060a05 	vstrcs	s0, [r6, #-20]	; 0xffffffec
    1918:	052f0905 	streq	r0, [pc, #-2309]!	; 101b <__code_start__-0x6fe5>
    191c:	0501060d 	streq	r0, [r1, #-1549]	; 0xfffff9f3
    1920:	10052d0a 	andne	r2, r5, sl, lsl #26
    1924:	060a052f 	streq	r0, [sl], -pc, lsr #10
    1928:	2f09052d 	svccs	0x0009052d
    192c:	01060d05 	tsteq	r6, r5, lsl #26
    1930:	052d0a05 	streq	r0, [sp, #-2565]!	; 0xfffff5fb
    1934:	0a052f10 	beq	14d57c <__bss_end__+0x1426a4>
    1938:	09052d06 	stmdbeq	r5, {r1, r2, r8, sl, fp, sp}
    193c:	060d052f 	streq	r0, [sp], -pc, lsr #10
    1940:	2d0a0501 	cfstr32cs	mvfx0, [sl, #-4]
    1944:	052f1005 	streq	r1, [pc, #-5]!	; 1947 <__code_start__-0x66b9>
    1948:	052d060a 	streq	r0, [sp, #-1546]!	; 0xfffff9f6
    194c:	10051309 	andne	r1, r5, r9, lsl #6
    1950:	0a050106 	beq	141d70 <__bss_end__+0x136e98>
    1954:	05052d06 	streq	r2, [r5, #-3334]	; 0xfffff2fa
    1958:	01013215 	tsteq	r1, r5, lsl r2
    195c:	0205144a 	andeq	r1, r5, #1241513984	; 0x4a000000
    1960:	060a052f 	streq	r0, [sl], -pc, lsr #10
    1964:	022e7303 	eoreq	r7, lr, #201326592	; 0xc000000
    1968:	01010008 	tsteq	r1, r8
    196c:	0000007d 	andeq	r0, r0, sp, ror r0
    1970:	00650003 	rsbeq	r0, r5, r3
    1974:	01020000 	mrseq	r0, (UNDEF: 2)
    1978:	000d0efb 	strdeq	r0, [sp], -fp
    197c:	01010101 	tsteq	r1, r1, lsl #2
    1980:	01000000 	mrseq	r0, (UNDEF: 0)
    1984:	2e010000 	cdpcs	0, 0, cr0, cr1, cr0, {0}
    1988:	6174732f 	cmnvs	r4, pc, lsr #6
    198c:	732d6666 			; <UNDEFINED> instruction: 0x732d6666
    1990:	2f006372 	svccs	0x00006372
    1994:	72657355 	rsbvc	r7, r5, #1409286145	; 0x54000001
    1998:	696d2f73 	stmdbvs	sp!, {r0, r1, r4, r5, r6, r8, r9, sl, fp, sp}^
    199c:	2f73656c 	svccs	0x0073656c
    19a0:	72756f53 	rsbsvc	r6, r5, #332	; 0x14c
    19a4:	632f6563 			; <UNDEFINED> instruction: 0x632f6563
    19a8:	30343273 	eorscc	r3, r4, r3, ror r2
    19ac:	6c2f786c 	stcvs	8, cr7, [pc], #-432	; 1804 <__code_start__-0x67fc>
    19b0:	69706269 	ldmdbvs	r0!, {r0, r3, r5, r6, r9, sp, lr}^
    19b4:	636e692f 	cmnvs	lr, #770048	; 0xbc000
    19b8:	6564756c 	strbvs	r7, [r4, #-1388]!	; 0xfffffa94
    19bc:	75630000 	strbvc	r0, [r3, #-0]!
    19c0:	6d6f7473 	cfstrdvs	mvd7, [pc, #-460]!	; 17fc <__code_start__-0x6804>
    19c4:	616f6c2d 	cmnvs	pc, sp, lsr #24
    19c8:	2e726564 	cdpcs	5, 7, cr6, cr2, cr4, {3}
    19cc:	00010063 	andeq	r0, r1, r3, rrx
    19d0:	69707200 	ldmdbvs	r0!, {r9, ip, sp, lr}^
    19d4:	0200682e 	andeq	r6, r0, #3014656	; 0x2e0000
    19d8:	05000000 	streq	r0, [r0, #-0]
    19dc:	0205001a 	andeq	r0, r5, #26, 0
    19e0:	00009798 	muleq	r0, r8, r7
    19e4:	14010515 	strne	r0, [r1], #-1301	; 0xfffffaeb
    19e8:	01000202 	tsteq	r0, r2, lsl #4
    19ec:	00011401 	andeq	r1, r1, r1, lsl #8
    19f0:	5e000300 	cdppl	3, 0, cr0, cr0, cr0, {0}
    19f4:	02000000 	andeq	r0, r0, #0, 0
    19f8:	0d0efb01 	vstreq	d15, [lr, #-4]
    19fc:	01010100 	mrseq	r0, (UNDEF: 17)
    1a00:	00000001 	andeq	r0, r0, r1
    1a04:	01000001 	tsteq	r0, r1
    1a08:	74732f2e 	ldrbtvc	r2, [r3], #-3886	; 0xfffff0d2
    1a0c:	2d666661 	stclcs	6, cr6, [r6, #-388]!	; 0xfffffe7c
    1a10:	00637273 	rsbeq	r7, r3, r3, ror r2
    1a14:	6573552f 	ldrbvs	r5, [r3, #-1327]!	; 0xfffffad1
    1a18:	6d2f7372 	stcvs	3, cr7, [pc, #-456]!	; 1858 <__code_start__-0x67a8>
    1a1c:	73656c69 	cmnvc	r5, #26880	; 0x6900
    1a20:	756f532f 	strbvc	r5, [pc, #-815]!	; 16f9 <__code_start__-0x6907>
    1a24:	2f656372 	svccs	0x00656372
    1a28:	34327363 	ldrtcc	r7, [r2], #-867	; 0xfffffc9d
    1a2c:	2f786c30 	svccs	0x00786c30
    1a30:	7062696c 	rsbvc	r6, r2, ip, ror #18
    1a34:	6e692f69 	cdpvs	15, 6, cr2, cr9, cr9, {3}
    1a38:	64756c63 	ldrbtvs	r6, [r5], #-3171	; 0xfffff39d
    1a3c:	72000065 	andvc	r0, r0, #101, 0	; 0x65
    1a40:	6f6f6265 	svcvs	0x006f6265
    1a44:	00632e74 	rsbeq	r2, r3, r4, ror lr
    1a48:	72000001 	andvc	r0, r0, #1, 0
    1a4c:	682e6970 	stmdavs	lr!, {r4, r5, r6, r8, fp, sp, lr}
    1a50:	00000200 	andeq	r0, r0, r0, lsl #4
    1a54:	00190500 	andseq	r0, r9, r0, lsl #10
    1a58:	979c0205 	ldrls	r0, [ip, r5, lsl #4]
    1a5c:	0d030000 	stceq	0, cr0, [r3, #-0]
    1a60:	13050501 	movwne	r0, #21761	; 0x5501
    1a64:	13053113 	movwne	r3, #20755	; 0x5113
    1a68:	01050106 	tsteq	r5, r6, lsl #2
    1a6c:	061b052f 	ldreq	r0, [fp], -pc, lsr #10
    1a70:	13050585 	movwne	r0, #21893	; 0x5585
    1a74:	2f090514 	svccs	0x00090514
    1a78:	01061605 	tsteq	r6, r5, lsl #12
    1a7c:	2f060505 	svccs	0x00060505
    1a80:	11060e05 	tstne	r6, r5, lsl #28
    1a84:	052f0505 	streq	r0, [pc, #-1285]!	; 1587 <__code_start__-0x6a79>
    1a88:	17052f01 	strne	r2, [r5, -r1, lsl #30]
    1a8c:	05053006 	streq	r3, [r5, #-6]
    1a90:	016e0313 	cmneq	lr, r3, lsl r3
    1a94:	17051313 	smladne	r5, r3, r3, r1
    1a98:	010f0306 	tsteq	pc, r6, lsl #6
    1a9c:	71030505 	tstvc	r3, r5, lsl #10
    1aa0:	0531062e 	ldreq	r0, [r1, #-1582]!	; 0xfffff9d2
    1aa4:	05010613 	streq	r0, [r1, #-1555]	; 0xfffff9ed
    1aa8:	2e0d0307 	cdpcs	3, 0, cr0, cr13, cr7, {0}
    1aac:	4b060905 	blmi	183ec8 <__bss_end__+0x178ff0>
    1ab0:	76030605 	strvc	r0, [r3], -r5, lsl #12
    1ab4:	13050501 	movwne	r0, #21761	; 0x5501
    1ab8:	2f090514 	svccs	0x00090514
    1abc:	01061605 	tsteq	r6, r5, lsl #12
    1ac0:	2f060505 	svccs	0x00060505
    1ac4:	11060e05 	tstne	r6, r5, lsl #28
    1ac8:	2e2f0505 	cfsh64cs	mvdx0, mvdx15, #5
    1acc:	010a0306 	tsteq	sl, r6, lsl #6
    1ad0:	134d2f30 	movtne	r2, #57136	; 0xdf30
    1ad4:	67151313 			; <UNDEFINED> instruction: 0x67151313
    1ad8:	01040200 	mrseq	r0, R12_usr
    1adc:	000d0567 	andeq	r0, sp, r7, ror #10
    1ae0:	01010402 	tsteq	r1, r2, lsl #8
    1ae4:	02000a05 	andeq	r0, r0, #20480	; 0x5000
    1ae8:	05010104 	streq	r0, [r1, #-260]	; 0xfffffefc
    1aec:	04020005 	streq	r0, [r2], #-5
    1af0:	0d050101 	stfeqs	f0, [r5, #-4]
    1af4:	01040200 	mrseq	r0, R12_usr
    1af8:	000a0501 	andeq	r0, sl, r1, lsl #10
    1afc:	01010402 	tsteq	r1, r2, lsl #8
    1b00:	01000a02 	tsteq	r0, r2, lsl #20
    1b04:	0001fa01 	andeq	pc, r1, r1, lsl #20
    1b08:	5d000300 	stcpl	3, cr0, [r0, #-0]
    1b0c:	02000000 	andeq	r0, r0, #0, 0
    1b10:	0d0efb01 	vstreq	d15, [lr, #-4]
    1b14:	01010100 	mrseq	r0, (UNDEF: 17)
    1b18:	00000001 	andeq	r0, r0, r1
    1b1c:	01000001 	tsteq	r0, r1
    1b20:	74732f2e 	ldrbtvc	r2, [r3], #-3886	; 0xfffff0d2
    1b24:	2d666661 	stclcs	6, cr6, [r6, #-388]!	; 0xfffffe7c
    1b28:	00637273 	rsbeq	r7, r3, r3, ror r2
    1b2c:	6573552f 	ldrbvs	r5, [r3, #-1327]!	; 0xfffffad1
    1b30:	6d2f7372 	stcvs	3, cr7, [pc, #-456]!	; 1970 <__code_start__-0x6690>
    1b34:	73656c69 	cmnvc	r5, #26880	; 0x6900
    1b38:	756f532f 	strbvc	r5, [pc, #-815]!	; 1811 <__code_start__-0x67ef>
    1b3c:	2f656372 	svccs	0x00656372
    1b40:	34327363 	ldrtcc	r7, [r2], #-867	; 0xfffffc9d
    1b44:	2f786c30 	svccs	0x00786c30
    1b48:	7062696c 	rsbvc	r6, r2, ip, ror #18
    1b4c:	6e692f69 	cdpvs	15, 6, cr2, cr9, cr9, {3}
    1b50:	64756c63 	ldrbtvs	r6, [r5], #-3171	; 0xfffff39d
    1b54:	74000065 	strvc	r0, [r0], #-101	; 0xffffff9b
    1b58:	72656d69 	rsbvc	r6, r5, #6720	; 0x1a40
    1b5c:	0100632e 	tsteq	r0, lr, lsr #6
    1b60:	70720000 	rsbsvc	r0, r2, r0
    1b64:	00682e69 	rsbeq	r2, r8, r9, ror #28
    1b68:	00000002 	andeq	r0, r0, r2
    1b6c:	05002305 	streq	r2, [r0, #-773]	; 0xfffffcfb
    1b70:	00982802 	addseq	r2, r8, r2, lsl #16
    1b74:	05051500 	streq	r1, [r5, #-1280]	; 0xfffffb00
    1b78:	060c0513 			; <UNDEFINED> instruction: 0x060c0513
    1b7c:	061f0501 	ldreq	r0, [pc], -r1, lsl #10
    1b80:	1505056a 	strne	r0, [r5, #-1386]	; 0xfffffa96
    1b84:	0f061f05 	svceq	0x00061f05
    1b88:	06310505 	ldrteq	r0, [r1], -r5, lsl #10
    1b8c:	030a052f 	movweq	r0, #42287	; 0xa52f
    1b90:	05050177 	streq	r0, [r5, #-375]	; 0xfffffe89
    1b94:	060c0513 			; <UNDEFINED> instruction: 0x060c0513
    1b98:	05056601 	streq	r6, [r5, #-1537]	; 0xfffff9ff
    1b9c:	01090306 	tsteq	r9, r6, lsl #6
    1ba0:	0601052f 	streq	r0, [r1], -pc, lsr #10
    1ba4:	061c0513 			; <UNDEFINED> instruction: 0x061c0513
    1ba8:	13050568 	movwne	r0, #21864	; 0x5568
    1bac:	76030a05 	strvc	r0, [r3], -r5, lsl #20
    1bb0:	15050501 	strne	r0, [r5, #-1281]	; 0xfffffaff
    1bb4:	18061c05 	stmdane	r6, {r0, r2, sl, fp, ip}
    1bb8:	0305052e 	movweq	r0, #21806	; 0x552e
    1bbc:	2f062e7a 	svccs	0x00062e7a
    1bc0:	77030a05 	strvc	r0, [r3, -r5, lsl #20]
    1bc4:	13050501 	movwne	r0, #21761	; 0x5501
    1bc8:	01060c05 	tsteq	r6, r5, lsl #24
    1bcc:	06050566 	streq	r0, [r5], -r6, ror #10
    1bd0:	2f010903 	svccs	0x00010903
    1bd4:	0c050106 	stfeqs	f0, [r5], {6}
    1bd8:	05017603 	streq	r7, [r1, #-1539]	; 0xfffff9fd
    1bdc:	0f030605 	svceq	0x00030605
    1be0:	1309052e 	movwne	r0, #38190	; 0x952e
    1be4:	74030a05 	strvc	r0, [r3], #-2565	; 0xfffff5fb
    1be8:	15050501 	strne	r0, [r5, #-1281]	; 0xfffffaff
    1bec:	030a052f 	movweq	r0, #42287	; 0xa52f
    1bf0:	05050177 	streq	r0, [r5, #-375]	; 0xfffffe89
    1bf4:	060c0513 			; <UNDEFINED> instruction: 0x060c0513
    1bf8:	05056601 	streq	r6, [r5, #-1537]	; 0xfffff9ff
    1bfc:	01090306 	tsteq	r9, r6, lsl #6
    1c00:	1a061105 	bne	18601c <__bss_end__+0x17b144>
    1c04:	78030505 	stmdavc	r3, {r0, r2, r8, sl}
    1c08:	052f062e 	streq	r0, [pc, #-1582]!	; 15e2 <__code_start__-0x6a1e>
    1c0c:	0c051909 			; <UNDEFINED> instruction: 0x0c051909
    1c10:	1c050106 	stfnes	f0, [r5], {6}
    1c14:	05058706 	streq	r8, [r5, #-1798]	; 0xfffff8fa
    1c18:	061c0513 			; <UNDEFINED> instruction: 0x061c0513
    1c1c:	2f050511 	svccs	0x00050511
    1c20:	0606054a 	streq	r0, [r6], -sl, asr #10
    1c24:	052e7603 	streq	r7, [lr, #-1539]!	; 0xfffff9fd
    1c28:	0a051305 	beq	146844 <__bss_end__+0x13b96c>
    1c2c:	05017603 	streq	r7, [r1, #-1539]	; 0xfffff9fd
    1c30:	052f1505 	streq	r1, [pc, #-1285]!	; 1733 <__code_start__-0x68cd>
    1c34:	0177030a 	cmneq	r7, sl, lsl #6
    1c38:	05130505 	ldreq	r0, [r3, #-1285]	; 0xfffffafb
    1c3c:	6601060c 	strvs	r0, [r1], -ip, lsl #12
    1c40:	03060505 	movweq	r0, #25861	; 0x6505
    1c44:	062f0109 	strteq	r0, [pc], -r9, lsl #2
    1c48:	030c0501 	movweq	r0, #50433	; 0xc501
    1c4c:	05050176 	streq	r0, [r5, #-374]	; 0xfffffe8a
    1c50:	2e0f0306 	cdpcs	3, 0, cr0, cr15, cr6, {0}
    1c54:	05130905 	ldreq	r0, [r3, #-2309]	; 0xfffff6fb
    1c58:	0174030a 	cmneq	r4, sl, lsl #6
    1c5c:	2f150505 	svccs	0x00150505
    1c60:	77030a05 	strvc	r0, [r3, -r5, lsl #20]
    1c64:	13050501 	movwne	r0, #21761	; 0x5501
    1c68:	01060c05 	tsteq	r6, r5, lsl #24
    1c6c:	06050566 	streq	r0, [r5], -r6, ror #10
    1c70:	05010903 	streq	r0, [r1, #-2307]	; 0xfffff6fd
    1c74:	051a0611 	ldreq	r0, [sl, #-1553]	; 0xfffff9ef
    1c78:	2e780305 	cdpcs	3, 7, cr0, cr8, cr5, {0}
    1c7c:	09052f06 	stmdbeq	r5, {r1, r2, r8, r9, sl, fp, sp}
    1c80:	060c0519 			; <UNDEFINED> instruction: 0x060c0519
    1c84:	061e0501 	ldreq	r0, [lr], -r1, lsl #10
    1c88:	1305058a 	movwne	r0, #21898	; 0x558a
    1c8c:	050e0605 	streq	r0, [lr, #-1541]	; 0xfffff9fb
    1c90:	1e051305 	cdpne	3, 0, cr1, cr5, cr5, {0}
    1c94:	05051406 	streq	r1, [r5, #-1030]	; 0xfffffbfa
    1c98:	0605662c 	streq	r6, [r5], -ip, lsr #12
    1c9c:	2e760306 	cdpcs	3, 7, cr0, cr6, cr6, {0}
    1ca0:	05130505 	ldreq	r0, [r3, #-1285]	; 0xfffffafb
    1ca4:	0176030a 	cmneq	r6, sl, lsl #6
    1ca8:	2f150505 	svccs	0x00150505
    1cac:	77030a05 	strvc	r0, [r3, -r5, lsl #20]
    1cb0:	13050501 	movwne	r0, #21761	; 0x5501
    1cb4:	01060c05 	tsteq	r6, r5, lsl #24
    1cb8:	06050566 	streq	r0, [r5], -r6, ror #10
    1cbc:	2f010903 	svccs	0x00010903
    1cc0:	0c050106 	stfeqs	f0, [r5], {6}
    1cc4:	05017603 	streq	r7, [r1, #-1539]	; 0xfffff9fd
    1cc8:	0f030605 	svceq	0x00030605
    1ccc:	1309052e 	movwne	r0, #38190	; 0x952e
    1cd0:	74030a05 	strvc	r0, [r3], #-2565	; 0xfffff5fb
    1cd4:	15050501 	strne	r0, [r5, #-1281]	; 0xfffffaff
    1cd8:	030a052f 	movweq	r0, #42287	; 0xa52f
    1cdc:	05050177 	streq	r0, [r5, #-375]	; 0xfffffe89
    1ce0:	060c0513 			; <UNDEFINED> instruction: 0x060c0513
    1ce4:	05056601 	streq	r6, [r5, #-1537]	; 0xfffff9ff
    1ce8:	01090306 	tsteq	r9, r6, lsl #6
    1cec:	1a061105 	bne	186108 <__bss_end__+0x17b230>
    1cf0:	78030505 	stmdavc	r3, {r0, r2, r8, sl}
    1cf4:	052f062e 	streq	r0, [pc, #-1582]!	; 16ce <__code_start__-0x6932>
    1cf8:	0c051909 			; <UNDEFINED> instruction: 0x0c051909
    1cfc:	08020106 	stmdaeq	r2, {r1, r2, r8}
    1d00:	04010100 	streq	r0, [r1], #-256	; 0xffffff00
    1d04:	03000002 	movweq	r0, #2
    1d08:	0000c800 	andeq	ip, r0, r0, lsl #16
    1d0c:	fb010200 	blx	42516 <__bss_end__+0x3763e>
    1d10:	01000d0e 	tsteq	r0, lr, lsl #26
    1d14:	00010101 	andeq	r0, r1, r1, lsl #2
    1d18:	00010000 	andeq	r0, r1, r0
    1d1c:	682f0100 	stmdavs	pc!, {r8}	; <UNPREDICTABLE>
    1d20:	2f656d6f 	svccs	0x00656d6f
    1d24:	6c676e65 	stclvs	14, cr6, [r7], #-404	; 0xfffffe6c
    1d28:	632f7265 			; <UNDEFINED> instruction: 0x632f7265
    1d2c:	7373616c 	cmnvc	r3, #27
    1d30:	3173632f 	cmncc	r3, pc, lsr #6
    1d34:	2d653034 	stclcs	0, cr3, [r5, #-208]!	; 0xffffff30
    1d38:	69773232 	ldmdbvs	r7!, {r1, r4, r5, r9, ip, sp}^
    1d3c:	6c2f2f6e 	stcvs	15, cr2, [pc], #-440	; 1b8c <__code_start__-0x6474>
    1d40:	69706269 	ldmdbvs	r0!, {r0, r3, r5, r6, r9, sp, lr}^
    1d44:	636e692f 	cmnvs	lr, #770048	; 0xbc000
    1d48:	6564756c 	strbvs	r7, [r4, #-1388]!	; 0xfffffa94
    1d4c:	73752f00 	cmnvc	r5, #0, 30
    1d50:	68732f72 	ldmdavs	r3!, {r1, r4, r5, r6, r8, r9, sl, fp, sp}^
    1d54:	2f657261 	svccs	0x00657261
    1d58:	2d636367 	stclcs	3, cr6, [r3, #-412]!	; 0xfffffe64
    1d5c:	2d6d7261 	sfmcs	f7, 2, [sp, #-388]!	; 0xfffffe7c
    1d60:	656e6f6e 	strbvs	r6, [lr, #-3950]!	; 0xfffff092
    1d64:	6261652d 	rsbvs	r6, r1, #188743680	; 0xb400000
    1d68:	30312d69 	eorscc	r2, r1, r9, ror #26
    1d6c:	322d332e 	eorcc	r3, sp, #-1207959552	; 0xb8000000
    1d70:	2e313230 	mrccs	2, 1, r3, cr1, cr0, {1}
    1d74:	6c2f3031 	stcvs	0, cr3, [pc], #-196	; 1cb8 <__code_start__-0x6348>
    1d78:	672f6269 	strvs	r6, [pc, -r9, ror #4]!
    1d7c:	612f6363 			; <UNDEFINED> instruction: 0x612f6363
    1d80:	6e2d6d72 	mcrvs	13, 1, r6, cr13, cr2, {3}
    1d84:	2d656e6f 	stclcs	14, cr6, [r5, #-444]!	; 0xfffffe44
    1d88:	69626165 	stmdbvs	r2!, {r0, r2, r5, r6, r8, sp, lr}^
    1d8c:	2e30312f 	rsfcssp	f3, f0, #10.0
    1d90:	2f312e33 	svccs	0x00312e33
    1d94:	6c636e69 	stclvs	14, cr6, [r3], #-420	; 0xfffffe5c
    1d98:	00656475 	rsbeq	r6, r5, r5, ror r4
    1d9c:	72617500 	rsbvc	r7, r1, #0, 10
    1da0:	00632e74 	rsbeq	r2, r3, r4, ror lr
    1da4:	75000000 	strvc	r0, [r0, #-0]
    1da8:	2e747261 	cdpcs	2, 7, cr7, cr4, cr1, {3}
    1dac:	00010068 	andeq	r0, r1, r8, rrx
    1db0:	69707200 	ldmdbvs	r0!, {r9, ip, sp, lr}^
    1db4:	0100682e 	tsteq	r0, lr, lsr #16
    1db8:	70670000 	rsbvc	r0, r7, r0
    1dbc:	682e6f69 	stmdavs	lr!, {r0, r3, r5, r6, r8, r9, sl, fp, sp, lr}
    1dc0:	00000100 	andeq	r0, r0, r0, lsl #2
    1dc4:	69647473 	stmdbvs	r4!, {r0, r1, r4, r5, r6, sl, ip, sp, lr}^
    1dc8:	672d746e 	strvs	r7, [sp, -lr, ror #8]!
    1dcc:	682e6363 	stmdavs	lr!, {r0, r1, r5, r6, r8, r9, sp, lr}
    1dd0:	00000200 	andeq	r0, r0, r0, lsl #4
    1dd4:	00390500 	eorseq	r0, r9, r0, lsl #10
    1dd8:	99440205 	stmdbls	r4, {r0, r2, r9}^
    1ddc:	30030000 	andcc	r0, r3, r0
    1de0:	05010601 	streq	r0, [r1, #-1537]	; 0xfffff9ff
    1de4:	05670605 	strbeq	r0, [r7, #-1541]!	; 0xfffff9fb
    1de8:	05010611 	streq	r0, [r1, #-1553]	; 0xfffff9ef
    1dec:	01052e05 	tsteq	r5, r5, lsl #28
    1df0:	06380567 	ldrteq	r0, [r8], -r7, ror #10
    1df4:	05010629 	streq	r0, [r1, #-1577]	; 0xfffff9d7
    1df8:	05670605 	strbeq	r0, [r7, #-1541]!	; 0xfffff9fb
    1dfc:	05010611 	streq	r0, [r1, #-1553]	; 0xfffff9ef
    1e00:	01052e05 	tsteq	r5, r5, lsl #28
    1e04:	06160567 	ldreq	r0, [r6], -r7, ror #10
    1e08:	052e1503 	streq	r1, [lr, #-1283]!	; 0xfffffafd
    1e0c:	68673505 	stmdavs	r7!, {r0, r2, r8, sl, ip, sp}^
    1e10:	0c036835 	stceq	8, cr6, [r3], {53}	; 0x35
    1e14:	696b852e 	stmdbvs	fp!, {r1, r2, r3, r5, r8, sl, pc}^
    1e18:	660c0369 	strvs	r0, [ip], -r9, ror #6
    1e1c:	05676b13 	strbeq	r6, [r7, #-2835]!	; 0xfffff4ed
    1e20:	052f0601 	streq	r0, [pc, #-1537]!	; 1827 <__code_start__-0x67d9>
    1e24:	25080619 	strcs	r0, [r8, #-1561]	; 0xfffff9e7
    1e28:	05340505 	ldreq	r0, [r4, #-1285]!	; 0xfffffafb
    1e2c:	0501060d 	streq	r0, [r1, #-1549]	; 0xfffff9f3
    1e30:	19054c01 	stmdbne	r5, {r0, sl, fp, lr}
    1e34:	05056706 	streq	r6, [r5, #-1798]	; 0xfffff8fa
    1e38:	060d0536 			; <UNDEFINED> instruction: 0x060d0536
    1e3c:	4a280501 	bmi	a03248 <__bss_end__+0x9f8370>
    1e40:	05300105 	ldreq	r0, [r0, #-261]!	; 0xfffffefb
    1e44:	05870615 	streq	r0, [r7, #1557]	; 0x615
    1e48:	052f2f05 	streq	r2, [pc, #-3845]!	; f4b <__code_start__-0x70b5>
    1e4c:	04020009 	streq	r0, [r2], #-9
    1e50:	0a051301 	beq	146a5c <__bss_end__+0x13bb84>
    1e54:	01040200 	mrseq	r0, R12_usr
    1e58:	000c0511 	andeq	r0, ip, r1, lsl r5
    1e5c:	06010402 	streq	r0, [r1], -r2, lsl #8
    1e60:	000a0501 	andeq	r0, sl, r1, lsl #10
    1e64:	2e010402 	cdpcs	4, 0, cr0, cr1, cr2, {0}
    1e68:	4c060505 	cfstr32mi	mvfx0, [r6], {5}
    1e6c:	01060e05 	tsteq	r6, r5, lsl #28
    1e70:	054a0905 	strbeq	r0, [sl, #-2309]	; 0xfffff6fb
    1e74:	2f2f0605 	svccs	0x002f0605
    1e78:	13060105 	movwne	r0, #24837	; 0x6105
    1e7c:	67061c05 	strvs	r1, [r6, -r5, lsl #24]
    1e80:	05050106 	streq	r0, [r5, #-262]	; 0xfffffefa
    1e84:	052f4b06 	streq	r4, [pc, #-2822]!	; 1386 <__code_start__-0x6c7a>
    1e88:	04020009 	streq	r0, [r2], #-9
    1e8c:	0a051301 	beq	146a98 <__bss_end__+0x13bbc0>
    1e90:	01040200 	mrseq	r0, R12_usr
    1e94:	000c0511 	andeq	r0, ip, r1, lsl r5
    1e98:	06010402 	streq	r0, [r1], -r2, lsl #8
    1e9c:	000a0501 	andeq	r0, sl, r1, lsl #10
    1ea0:	2e010402 	cdpcs	4, 0, cr0, cr1, cr2, {0}
    1ea4:	4c060505 	cfstr32mi	mvfx0, [r6], {5}
    1ea8:	06010567 	streq	r0, [r1], -r7, ror #10
    1eac:	0619052f 	ldreq	r0, [r9], -pc, lsr #10
    1eb0:	2e1b054c 	cfmac32cs	mvfx0, mvfx11, mvfx12
    1eb4:	052e2a05 	streq	r2, [lr, #-2565]!	; 0xfffff5fb
    1eb8:	05010631 	streq	r0, [r1, #-1585]	; 0xfffff9cf
    1ebc:	1c052e42 	stcne	14, cr2, [r5], {66}	; 0x42
    1ec0:	05053106 	streq	r3, [r5, #-262]	; 0xfffffefa
    1ec4:	2e09032f 	cdpcs	3, 0, cr0, cr9, cr15, {1}
    1ec8:	01060e05 	tsteq	r6, r5, lsl #28
    1ecc:	054a2105 	strbeq	r2, [sl, #-261]	; 0xfffffefb
    1ed0:	2e0a0301 	cdpcs	3, 0, cr0, cr10, cr1, {0}
    1ed4:	68061a05 	stmdavs	r6, {r0, r2, r9, fp, ip}
    1ed8:	02000905 	andeq	r0, r0, #81920	; 0x14000
    1edc:	05300104 	ldreq	r0, [r0, #-260]!	; 0xfffffefc
    1ee0:	0402000a 	streq	r0, [r2], #-10
    1ee4:	0c051101 	stfeqs	f1, [r5], {1}
    1ee8:	01040200 	mrseq	r0, R12_usr
    1eec:	0a050106 	beq	14230c <__bss_end__+0x137434>
    1ef0:	01040200 	mrseq	r0, R12_usr
    1ef4:	0619052e 	ldreq	r0, [r9], -lr, lsr #10
    1ef8:	667ee803 	ldrbtvs	lr, [lr], -r3, lsl #16
    1efc:	2f2f0505 	svccs	0x002f0505
    1f00:	0105672f 	tsteq	r5, pc, lsr #14
    1f04:	04022f06 	streq	r2, [r2], #-3846	; 0xfffff0fa
    1f08:	92010100 	andls	r0, r1, #0
    1f0c:	03000003 	movweq	r0, #3
    1f10:	0000b700 	andeq	fp, r0, r0, lsl #14
    1f14:	fb010200 	blx	4271e <__bss_end__+0x37846>
    1f18:	01000d0e 	tsteq	r0, lr, lsl #26
    1f1c:	00010101 	andeq	r0, r1, r1, lsl #2
    1f20:	00010000 	andeq	r0, r1, r0
    1f24:	682f0100 	stmdavs	pc!, {r8}	; <UNPREDICTABLE>
    1f28:	2f656d6f 	svccs	0x00656d6f
    1f2c:	6c676e65 	stclvs	14, cr6, [r7], #-404	; 0xfffffe6c
    1f30:	632f7265 			; <UNDEFINED> instruction: 0x632f7265
    1f34:	7373616c 	cmnvc	r3, #27
    1f38:	3173632f 	cmncc	r3, pc, lsr #6
    1f3c:	2d653034 	stclcs	0, cr3, [r5, #-208]!	; 0xffffff30
    1f40:	69773232 	ldmdbvs	r7!, {r1, r4, r5, r9, ip, sp}^
    1f44:	6c2f2f6e 	stcvs	15, cr2, [pc], #-440	; 1d94 <__code_start__-0x626c>
    1f48:	69706269 	ldmdbvs	r0!, {r0, r3, r5, r6, r9, sp, lr}^
    1f4c:	636e692f 	cmnvs	lr, #770048	; 0xbc000
    1f50:	6564756c 	strbvs	r7, [r4, #-1388]!	; 0xfffffa94
    1f54:	73752f00 	cmnvc	r5, #0, 30
    1f58:	68732f72 	ldmdavs	r3!, {r1, r4, r5, r6, r8, r9, sl, fp, sp}^
    1f5c:	2f657261 	svccs	0x00657261
    1f60:	2d636367 	stclcs	3, cr6, [r3, #-412]!	; 0xfffffe64
    1f64:	2d6d7261 	sfmcs	f7, 2, [sp, #-388]!	; 0xfffffe7c
    1f68:	656e6f6e 	strbvs	r6, [lr, #-3950]!	; 0xfffff092
    1f6c:	6261652d 	rsbvs	r6, r1, #188743680	; 0xb400000
    1f70:	30312d69 	eorscc	r2, r1, r9, ror #26
    1f74:	322d332e 	eorcc	r3, sp, #-1207959552	; 0xb8000000
    1f78:	2e313230 	mrccs	2, 1, r3, cr1, cr0, {1}
    1f7c:	6c2f3031 	stcvs	0, cr3, [pc], #-196	; 1ec0 <__code_start__-0x6140>
    1f80:	672f6269 	strvs	r6, [pc, -r9, ror #4]!
    1f84:	612f6363 			; <UNDEFINED> instruction: 0x612f6363
    1f88:	6e2d6d72 	mcrvs	13, 1, r6, cr13, cr2, {3}
    1f8c:	2d656e6f 	stclcs	14, cr6, [r5, #-444]!	; 0xfffffe44
    1f90:	69626165 	stmdbvs	r2!, {r0, r2, r5, r6, r8, sp, lr}^
    1f94:	2e30312f 	rsfcssp	f3, f0, #10.0
    1f98:	2f312e33 	svccs	0x00312e33
    1f9c:	6c636e69 	stclvs	14, cr6, [r3], #-420	; 0xfffffe5c
    1fa0:	00656475 	rsbeq	r6, r5, r5, ror r4
    1fa4:	616d6b00 	cmnvs	sp, r0, lsl #22
    1fa8:	636f6c6c 	cmnvs	pc, #108, 24	; 0x6c00
    1fac:	0000632e 	andeq	r6, r0, lr, lsr #6
    1fb0:	70720000 	rsbsvc	r0, r2, r0
    1fb4:	00682e69 	rsbeq	r2, r8, r9, ror #28
    1fb8:	73000001 	movwvc	r0, #1
    1fbc:	6e696474 	mcrvs	4, 3, r6, cr9, cr4, {3}
    1fc0:	63672d74 	cmnvs	r7, #116, 26	; 0x1d00
    1fc4:	00682e63 	rsbeq	r2, r8, r3, ror #28
    1fc8:	00000002 	andeq	r0, r0, r2
    1fcc:	05001e05 	streq	r1, [r0, #-3589]	; 0xfffff1fb
    1fd0:	009b3402 	addseq	r3, fp, r2, lsl #8
    1fd4:	01270300 			; <UNDEFINED> instruction: 0x01270300
    1fd8:	05012005 	streq	r2, [r1, #-5]
    1fdc:	0501062d 	streq	r0, [r1, #-1581]	; 0xfffff9d3
    1fe0:	05830620 	streq	r0, [r3, #1568]	; 0x620
    1fe4:	35050122 	strcc	r0, [r5, #-290]	; 0xfffffede
    1fe8:	1e050106 	adfnes	f0, f5, f6
    1fec:	20058306 	andcs	r8, r5, r6, lsl #6
    1ff0:	062d0501 	strteq	r0, [sp], -r1, lsl #10
    1ff4:	06420501 	strbeq	r0, [r2], -r1, lsl #10
    1ff8:	05010685 	streq	r0, [r1, #-1669]	; 0xfffff97b
    1ffc:	144b0605 	strbne	r0, [fp], #-1541	; 0xfffff9fb
    2000:	002e0601 	eoreq	r0, lr, r1, lsl #12
    2004:	06020402 	streq	r0, [r2], -r2, lsl #8
    2008:	0402002e 	streq	r0, [r2], #-46	; 0xffffffd2
    200c:	02000102 	andeq	r0, r0, #-2147483648	; 0x80000000
    2010:	05150204 	ldreq	r0, [r5, #-516]	; 0xfffffdfc
    2014:	0402000d 	streq	r0, [r2], #-13
    2018:	05010602 	streq	r0, [r1, #-1538]	; 0xfffff9fe
    201c:	04020007 	streq	r0, [r2], #-7
    2020:	09054a02 	stmdbeq	r5, {r1, r9, fp, lr}
    2024:	05054b06 	streq	r4, [r5, #-2822]	; 0xfffff4fa
    2028:	06170515 			; <UNDEFINED> instruction: 0x06170515
    202c:	4a100501 	bmi	403438 <__bss_end__+0x3f8560>
    2030:	2f060505 	svccs	0x00060505
    2034:	01061b05 	tsteq	r6, r5, lsl #22
    2038:	052e0e05 	streq	r0, [lr, #-3589]!	; 0xfffff1fb
    203c:	05052f01 	streq	r2, [r5, #-3841]	; 0xfffff0ff
    2040:	01040200 	mrseq	r0, R12_usr
    2044:	4a770306 	bmi	1dc2c64 <__bss_end__+0x1db7d8c>
    2048:	01040200 	mrseq	r0, R12_usr
    204c:	04020001 	streq	r0, [r2], #-1
    2050:	009e0601 	addseq	r0, lr, r1, lsl #12
    2054:	2e010402 	cdpcs	4, 0, cr0, cr1, cr2, {0}
    2058:	01040200 	mrseq	r0, R12_usr
    205c:	09052e06 	stmdbeq	r5, {r1, r2, r9, sl, fp, sp}
    2060:	d6060132 			; <UNDEFINED> instruction: 0xd6060132
    2064:	052e062e 	streq	r0, [lr, #-1582]!	; 0xfffff9d2
    2068:	0505de19 	streq	sp, [r5, #-3609]	; 0xfffff1e7
    206c:	0805142f 	stmdaeq	r5, {r0, r1, r2, r3, r5, sl, ip}
    2070:	07050106 	streq	r0, [r5, -r6, lsl #2]
    2074:	0609054a 	streq	r0, [r9], -sl, asr #10
    2078:	1305054b 	movwne	r0, #21835	; 0x554b
    207c:	01060c05 	tsteq	r6, r5, lsl #24
    2080:	67060505 	strvs	r0, [r6, -r5, lsl #10]
    2084:	06010513 			; <UNDEFINED> instruction: 0x06010513
    2088:	06090567 	streq	r0, [r9], -r7, ror #10
    208c:	059e012a 	ldreq	r0, [lr, #298]	; 0x12a
    2090:	0106a528 	tsteq	r6, r8, lsr #10
    2094:	4b060505 	blmi	1834b0 <__bss_end__+0x1785d8>
    2098:	062e0601 	strteq	r0, [lr], -r1, lsl #12
    209c:	0513012e 	ldreq	r0, [r3, #-302]	; 0xfffffed2
    20a0:	01470318 	cmpeq	r7, r8, lsl r3
    20a4:	01130505 	tsteq	r3, r5, lsl #10
    20a8:	0f060106 	svceq	0x00060106
    20ac:	05130115 	ldreq	r0, [r3, #-277]	; 0xfffffeeb
    20b0:	0501060e 	streq	r0, [r1, #-1550]	; 0xfffff9f2
    20b4:	052e2e16 	streq	r2, [lr, #-3606]!	; 0xfffff1ea
    20b8:	39030605 	stmdbcc	r3, {r0, r2, r9, sl}
    20bc:	060b0501 	streq	r0, [fp], -r1, lsl #10
    20c0:	06050501 	streq	r0, [r5], -r1, lsl #10
    20c4:	060a054b 	streq	r0, [sl], -fp, asr #10
    20c8:	06050501 	streq	r0, [r5], -r1, lsl #10
    20cc:	060d054b 	streq	r0, [sp], -fp, asr #10
    20d0:	2e070501 	cfsh32cs	mvfx0, mvfx7, #1
    20d4:	054d0105 	strbeq	r0, [sp, #-261]	; 0xfffffefb
    20d8:	04020005 	streq	r0, [r2], #-5
    20dc:	78030601 	stmdavc	r3, {r0, r9, sl}
    20e0:	0402004a 	streq	r0, [r2], #-74	; 0xffffffb6
    20e4:	02000101 	andeq	r0, r0, #1073741824	; 0x40000000
    20e8:	ba060104 	blt	182500 <__bss_end__+0x177628>
    20ec:	01040200 	mrseq	r0, R12_usr
    20f0:	09052e06 	stmdbeq	r5, {r1, r2, r9, sl, fp, sp}
    20f4:	82060134 	andhi	r0, r6, #13
    20f8:	052e0666 	streq	r0, [lr, #-1638]!	; 0xfffff99a
    20fc:	0106db20 	tsteq	r6, r0, lsr #22
    2100:	4b060505 	blmi	18351c <__bss_end__+0x178644>
    2104:	04020001 	streq	r0, [r2], #-1
    2108:	02004a02 	andeq	r4, r0, #8192	; 0x2000
    210c:	00010204 	andeq	r0, r1, r4, lsl #4
    2110:	13020402 	movwne	r0, #9218	; 0x2402
    2114:	02001205 	andeq	r1, r0, #1342177280	; 0x50000000
    2118:	01060204 	tsteq	r6, r4, lsl #4
    211c:	02040200 	andeq	r0, r4, #0, 4
    2120:	0402002e 	streq	r0, [r2], #-46	; 0xffffffd2
    2124:	05052e02 	streq	r2, [r5, #-3586]	; 0xfffff1fe
    2128:	02040200 	andeq	r0, r4, #0, 4
    212c:	02002f06 	andeq	r2, r0, #6, 30
    2130:	05670204 	strbeq	r0, [r7, #-516]!	; 0xfffffdfc
    2134:	04020001 	streq	r0, [r2], #-1
    2138:	05130602 	ldreq	r0, [r3, #-1538]	; 0xfffff9fe
    213c:	04020005 	streq	r0, [r2], #-5
    2140:	00620601 	rsbeq	r0, r2, r1, lsl #12
    2144:	01010402 	tsteq	r1, r2, lsl #8
    2148:	01040200 	mrseq	r0, R12_usr
    214c:	0200ba06 	andeq	fp, r0, #24576	; 0x6000
    2150:	2e060104 	adfcss	f0, f6, f4
    2154:	0a033c05 	beq	d1170 <__bss_end__+0xc6298>
    2158:	0501069e 	streq	r0, [r1, #-1694]	; 0xfffff962
    215c:	014b0605 	cmpeq	fp, r5, lsl #12
    2160:	2e062e06 	cdpcs	14, 0, cr2, cr6, cr6, {0}
    2164:	05011301 	streq	r1, [r1, #-769]	; 0xfffffcff
    2168:	7fad0318 	svcvc	0x00ad0318
    216c:	13050501 	movwne	r0, #21761	; 0x5501
    2170:	01061105 	tsteq	r6, r5, lsl #2
    2174:	0305052e 	movweq	r0, #21806	; 0x552e
    2178:	060100d2 			; <UNDEFINED> instruction: 0x060100d2
    217c:	1805134a 	stmdane	r5, {r1, r3, r6, r8, r9, ip}
    2180:	017fa303 	cmneq	pc, r3, lsl #6
    2184:	05130505 	ldreq	r0, [r3, #-1285]	; 0xfffffafb
    2188:	4a010616 	bmi	439e8 <__bss_end__+0x38b10>
    218c:	03060505 	movweq	r0, #25861	; 0x6505
    2190:	050100e1 	streq	r0, [r1, #-225]	; 0xffffff1f
    2194:	05010612 	streq	r0, [r1, #-1554]	; 0xfffff9ee
    2198:	054b0605 	strbeq	r0, [fp, #-1541]	; 0xfffff9fb
    219c:	7fa90318 	svcvc	0x00a90318
    21a0:	13050501 	movwne	r0, #21761	; 0x5501
    21a4:	0e180501 	cfmul32eq	mvfx0, mvfx8, mvfx1
    21a8:	05130505 	ldreq	r0, [r3, #-1285]	; 0xfffffafb
    21ac:	2e010611 	mcrcs	6, 0, r0, cr1, cr1, {0}
    21b0:	06150505 	ldreq	r0, [r5], -r5, lsl #10
    21b4:	0513014a 	ldreq	r0, [r3, #-330]	; 0xfffffeb6
    21b8:	2e01060e 	cfmadd32cs	mvax0, mvfx0, mvfx1, mvfx14
    21bc:	2e2e1605 	cfmadda32cs	mvax0, mvax1, mvfx14, mvfx5
    21c0:	03060505 	movweq	r0, #25861	; 0x6505
    21c4:	010100d6 	ldrdeq	r0, [r1, -r6]
    21c8:	9f031805 	svcls	0x00031805
    21cc:	0505017f 	streq	r0, [r5, #-383]	; 0xfffffe81
    21d0:	06190513 			; <UNDEFINED> instruction: 0x06190513
    21d4:	05052e01 	streq	r2, [r5, #-3585]	; 0xfffff1ff
    21d8:	0100e003 	tsteq	r0, r3
    21dc:	02040200 	andeq	r0, r4, #0, 4
    21e0:	02004a06 	andeq	r4, r0, #24576	; 0x6000
    21e4:	05140204 	ldreq	r0, [r4, #-516]	; 0xfffffdfc
    21e8:	0402000a 	streq	r0, [r2], #-10
    21ec:	05010602 	streq	r0, [r1, #-1538]	; 0xfffff9fe
    21f0:	04020005 	streq	r0, [r2], #-5
    21f4:	054b0602 	strbeq	r0, [fp, #-1538]	; 0xfffff9fe
    21f8:	0402000c 	streq	r0, [r2], #-12
    21fc:	05010602 	streq	r0, [r1, #-1538]	; 0xfffff9fe
    2200:	04020001 	streq	r0, [r2], #-1
    2204:	05052f02 	streq	r2, [r5, #-3842]	; 0xfffff0fe
    2208:	01040200 	mrseq	r0, R12_usr
    220c:	4a730306 	bmi	1cc2e2c <__bss_end__+0x1cb7f54>
    2210:	01040200 	mrseq	r0, R12_usr
    2214:	04020001 	streq	r0, [r2], #-1
    2218:	009e0601 	addseq	r0, lr, r1, lsl #12
    221c:	2e010402 	cdpcs	4, 0, cr0, cr1, cr2, {0}
    2220:	01040200 	mrseq	r0, R12_usr
    2224:	02002e06 	andeq	r2, r0, #96	; 0x60
    2228:	002f0104 	eoreq	r0, pc, r4, lsl #2
    222c:	2e010402 	cdpcs	4, 0, cr0, cr1, cr2, {0}
    2230:	01040200 	mrseq	r0, R12_usr
    2234:	7fb103d6 	svcvc	0x00b103d6
    2238:	8206012e 	andhi	r0, r6, #-2147483637	; 0x8000000b
    223c:	2e062e2e 	cdpcs	14, 0, cr2, cr6, cr14, {1}
    2240:	02002e06 	andeq	r2, r0, #96	; 0x60
    2244:	03060104 	movweq	r0, #24836	; 0x6104
    2248:	000100d7 	ldrdeq	r0, [r1], -r7
    224c:	2e010402 	cdpcs	4, 0, cr0, cr1, cr2, {0}
    2250:	01040200 	mrseq	r0, R12_usr
    2254:	081505d6 	ldmdaeq	r5, {r1, r2, r4, r6, r7, r8, sl}
    2258:	0117057b 	tsteq	r7, fp, ror r5
    225c:	05311605 	ldreq	r1, [r1, #-1541]!	; 0xfffff9fb
    2260:	1d050118 	stfnes	f0, [r5, #-96]	; 0xffffffa0
    2264:	2b050106 	blcs	142684 <__bss_end__+0x1377ac>
    2268:	06190566 	ldreq	r0, [r9], -r6, ror #10
    226c:	1305054d 	movwne	r0, #21837	; 0x554d
    2270:	01060c05 	tsteq	r6, r5, lsl #24
    2274:	054a0705 	strbeq	r0, [sl, #-1797]	; 0xfffff8fb
    2278:	04020025 	streq	r0, [r2], #-37	; 0xffffffdb
    227c:	1e054a01 	vmlane.f32	s8, s10, s2
    2280:	01040200 	mrseq	r0, R12_usr
    2284:	0609054a 	streq	r0, [r9], -sl, asr #10
    2288:	1305054b 	movwne	r0, #21835	; 0x554b
    228c:	01060a05 	tsteq	r6, r5, lsl #20
    2290:	05631905 	strbeq	r1, [r3, #-2309]!	; 0xfffff6fb
    2294:	014c0609 	cmpeq	ip, r9, lsl #12
    2298:	2e069e06 	cdpcs	14, 0, cr9, cr6, cr6, {0}
    229c:	01000a02 	tsteq	r0, r2, lsl #20
    22a0:	00028901 	andeq	r8, r2, r1, lsl #18
    22a4:	c9000300 	stmdbgt	r0, {r8, r9}
    22a8:	02000000 	andeq	r0, r0, #0, 0
    22ac:	0d0efb01 	vstreq	d15, [lr, #-4]
    22b0:	01010100 	mrseq	r0, (UNDEF: 17)
    22b4:	00000001 	andeq	r0, r0, r1
    22b8:	01000001 	tsteq	r0, r1
    22bc:	72732f2e 	rsbsvc	r2, r3, #184	; 0xb8
    22c0:	552f0063 	strpl	r0, [pc, #-99]!	; 2265 <__code_start__-0x5d9b>
    22c4:	73726573 	cmnvc	r2, #482344960	; 0x1cc00000
    22c8:	6c696d2f 	stclvs	13, cr6, [r9], #-188	; 0xffffff44
    22cc:	532f7365 			; <UNDEFINED> instruction: 0x532f7365
    22d0:	6372756f 	cmnvs	r2, #465567744	; 0x1bc00000
    22d4:	73632f65 	cmnvc	r3, #404	; 0x194
    22d8:	6c303432 	cfldrsvs	mvf3, [r0], #-200	; 0xffffff38
    22dc:	696c2f78 	stmdbvs	ip!, {r3, r4, r5, r6, r8, r9, sl, fp, sp}^
    22e0:	2f697062 	svccs	0x00697062
    22e4:	6c636e69 	stclvs	14, cr6, [r3], #-420	; 0xfffffe5c
    22e8:	00656475 	rsbeq	r6, r5, r5, ror r4
    22ec:	74706f2f 	ldrbtvc	r6, [r0], #-3887	; 0xfffff0d1
    22f0:	6d6f682f 	stclvs	8, cr6, [pc, #-188]!	; 223c <__code_start__-0x5dc4>
    22f4:	65726265 	ldrbvs	r6, [r2, #-613]!	; 0xfffffd9b
    22f8:	65432f77 	strbvs	r2, [r3, #-3959]	; 0xfffff089
    22fc:	72616c6c 	rsbvc	r6, r1, #108, 24	; 0x6c00
    2300:	6d72612f 	ldfvse	f6, [r2, #-188]!	; 0xffffff44
    2304:	6e6f6e2d 	cdpvs	14, 6, cr6, cr15, cr13, {1}
    2308:	61652d65 	cmnvs	r5, r5, ror #26
    230c:	392d6962 	pushcc	{r1, r5, r6, r8, fp, sp, lr}
    2310:	322d392f 	eorcc	r3, sp, #770048	; 0xbc000
    2314:	71393130 	teqvc	r9, r0, lsr r1
    2318:	73632d34 	cmnvc	r3, #52, 26	; 0xd00
    231c:	65373031 	ldrvs	r3, [r7, #-49]!	; 0xffffffcf
    2320:	62696c2f 	rsbvs	r6, r9, #12032	; 0x2f00
    2324:	6363672f 	cmnvs	r3, #12320768	; 0xbc0000
    2328:	6d72612f 	ldfvse	f6, [r2, #-188]!	; 0xffffff44
    232c:	6e6f6e2d 	cdpvs	14, 6, cr6, cr15, cr13, {1}
    2330:	61652d65 	cmnvs	r5, r5, ror #26
    2334:	392f6962 	stmdbcc	pc!, {r1, r5, r6, r8, fp, sp, lr}	; <UNPREDICTABLE>
    2338:	312e322e 			; <UNDEFINED> instruction: 0x312e322e
    233c:	636e692f 	cmnvs	lr, #770048	; 0xbc000
    2340:	6564756c 	strbvs	r7, [r4, #-1388]!	; 0xfffffa94
    2344:	70670000 	rsbvc	r0, r7, r0
    2348:	632e6f69 			; <UNDEFINED> instruction: 0x632e6f69
    234c:	00000100 	andeq	r0, r0, r0, lsl #2
    2350:	2e697072 	mcrcs	0, 3, r7, cr9, cr2, {3}
    2354:	00020068 	andeq	r0, r2, r8, rrx
    2358:	64747300 	ldrbtvs	r7, [r4], #-768	; 0xfffffd00
    235c:	2d746e69 	ldclcs	14, cr6, [r4, #-420]!	; 0xfffffe5c
    2360:	2e636367 	cdpcs	3, 6, cr6, cr3, cr7, {3}
    2364:	00030068 	andeq	r0, r3, r8, rrx
    2368:	69706700 	ldmdbvs	r0!, {r8, r9, sl, sp, lr}^
    236c:	00682e6f 	rsbeq	r2, r8, pc, ror #28
    2370:	00000002 	andeq	r0, r0, r2
    2374:	05003805 	streq	r3, [r0, #-2053]	; 0xfffff7fb
    2378:	009ee402 	addseq	lr, lr, r2, lsl #8
    237c:	01270300 			; <UNDEFINED> instruction: 0x01270300
    2380:	05130505 	ldreq	r0, [r3, #-1285]	; 0xfffffafb
    2384:	05010607 	streq	r0, [r1, #-1543]	; 0xfffff9f9
    2388:	05490606 	strbeq	r0, [r9, #-1542]	; 0xfffff9fa
    238c:	07051505 	streq	r1, [r5, -r5, lsl #10]
    2390:	38050106 	stmdacc	r5, {r1, r2, r8}
    2394:	4d07052b 	cfstr32mi	mvfx0, [r7, #-172]	; 0xffffff54
    2398:	30060505 	andcc	r0, r6, r5, lsl #10
    239c:	01061805 	tsteq	r6, r5, lsl #16
    23a0:	05671c05 	strbeq	r1, [r7, #-3077]!	; 0xfffff3fb
    23a4:	18054a0e 	stmdane	r5, {r1, r2, r3, r9, fp, lr}
    23a8:	4d12052d 	cfldr32mi	mvfx0, [r2, #-180]	; 0xffffff4c
    23ac:	0e052f2e 	cdpeq	15, 0, cr2, cr5, cr14, {1}
    23b0:	0605052a 	streq	r0, [r5], -sl, lsr #10
    23b4:	0513142f 	ldreq	r1, [r3, #-1071]	; 0xfffffbd1
    23b8:	05010607 	streq	r0, [r1, #-1543]	; 0xfffff9f9
    23bc:	132f0605 			; <UNDEFINED> instruction: 0x132f0605
    23c0:	052e2e06 	streq	r2, [lr, #-3590]!	; 0xfffff1fa
    23c4:	05051301 	streq	r1, [r5, #-769]	; 0xfffffcff
    23c8:	24052e2d 	strcs	r2, [r5], #-3629	; 0xfffff1d3
    23cc:	02050006 	andeq	r0, r5, #6, 0
    23d0:	00009f44 	andeq	r9, r0, r4, asr #30
    23d4:	13050515 	movwne	r0, #21781	; 0x5515
    23d8:	71030605 	tstvc	r3, r5, lsl #12
    23dc:	13050501 	movwne	r0, #21761	; 0x5501
    23e0:	01060705 	tsteq	r6, r5, lsl #14
    23e4:	49060605 	stmdbmi	r6, {r0, r2, r9, sl}
    23e8:	14150505 	ldrne	r0, [r5], #-1285	; 0xfffffafb
    23ec:	03062405 	movweq	r2, #25605	; 0x6405
    23f0:	18050109 	stmdane	r5, {r0, r3, r8}
    23f4:	052e7703 	streq	r7, [lr, #-1795]!	; 0xfffff8fd
    23f8:	0e05671c 	mcreq	7, 0, r6, cr5, cr12, {0}
    23fc:	2d18054a 	cfldr32cs	mvfx0, [r8, #-296]	; 0xfffffed8
    2400:	2e4d1205 	cdpcs	2, 4, cr1, cr13, cr5, {0}
    2404:	2f0f052f 	svccs	0x000f052f
    2408:	05290e05 	streq	r0, [r9, #-3589]!	; 0xfffff1fb
    240c:	142f0605 	strtne	r0, [pc], #-1541	; 2414 <__code_start__-0x5bec>
    2410:	06070513 			; <UNDEFINED> instruction: 0x06070513
    2414:	06050501 	streq	r0, [r5], -r1, lsl #10
    2418:	2e06132f 	cdpcs	3, 0, cr1, cr6, cr15, {1}
    241c:	05330105 	ldreq	r0, [r3, #-261]!	; 0xfffffefb
    2420:	052e2905 	streq	r2, [lr, #-2309]!	; 0xfffff6fb
    2424:	05000627 	streq	r0, [r0, #-1575]	; 0xfffff9d9
    2428:	009f9c02 	addseq	r9, pc, r2, lsl #24
    242c:	05051a00 	streq	r1, [r5, #-2560]	; 0xfffff600
    2430:	06270513 			; <UNDEFINED> instruction: 0x06270513
    2434:	2f180511 	svccs	0x00180511
    2438:	2e2e0505 	cfsh64cs	mvdx0, mvdx14, #5
    243c:	0628054a 	strteq	r0, [r8], -sl, asr #10
    2440:	b4020500 	strlt	r0, [r2], #-1280	; 0xfffffb00
    2444:	1600009f 			; <UNDEFINED> instruction: 0x1600009f
    2448:	05130505 	ldreq	r0, [r3, #-1285]	; 0xfffffafb
    244c:	05110628 	ldreq	r0, [r1, #-1576]	; 0xfffff9d8
    2450:	05052f18 	streq	r2, [r5, #-3864]	; 0xfffff0e8
    2454:	054a2e2e 	strbeq	r2, [sl, #-3630]	; 0xfffff1d2
    2458:	05000623 	streq	r0, [r0, #-1571]	; 0xfffff9dd
    245c:	009fcc02 	addseq	ip, pc, r2, lsl #24
    2460:	05051600 	streq	r1, [r5, #-1536]	; 0xfffffa00
    2464:	03060513 	movweq	r0, #25875	; 0x6513
    2468:	05050162 	streq	r0, [r5, #-354]	; 0xfffffe9e
    246c:	06070513 			; <UNDEFINED> instruction: 0x06070513
    2470:	06060501 	streq	r0, [r6], -r1, lsl #10
    2474:	15050549 	strne	r0, [r5, #-1353]	; 0xfffffab7
    2478:	23051314 	movwcs	r1, #21268	; 0x5314
    247c:	01170306 	tsteq	r7, r6, lsl #6
    2480:	69032205 	stmdbvs	r3, {r0, r2, r9, sp}
    2484:	821c052e 	andshi	r0, ip, #192937984	; 0xb800000
    2488:	2e0e052e 	cfsh32cs	mvfx0, mvfx14, #30
    248c:	30060505 	andcc	r0, r6, r5, lsl #10
    2490:	01061205 	tsteq	r6, r5, lsl #4
    2494:	05052d4b 	streq	r2, [r5, #-3403]	; 0xfffff2b5
    2498:	13132f06 	tstne	r3, #6, 30
    249c:	03061805 	movweq	r1, #26629	; 0x6805
    24a0:	0e05017a 	mcreq	1, 0, r0, cr5, cr10, {3}
    24a4:	3405054a 	strcc	r0, [r5], #-1354	; 0xfffffab6
    24a8:	0301052e 	movweq	r0, #5422	; 0x152e
    24ac:	05052e14 	streq	r2, [r5, #-3604]	; 0xfffff1ec
    24b0:	2e2e6c03 	cdpcs	12, 2, cr6, cr14, cr3, {0}
    24b4:	00062b05 	andeq	r2, r6, r5, lsl #22
    24b8:	a0240205 	eorge	r0, r4, r5, lsl #4
    24bc:	17030000 	strne	r0, [r3, -r0]
    24c0:	13050501 	movwne	r0, #21761	; 0x5501
    24c4:	01060705 	tsteq	r6, r5, lsl #14
    24c8:	71031805 	tstvc	r3, r5, lsl #16
    24cc:	032b052e 			; <UNDEFINED> instruction: 0x032b052e
    24d0:	07052e0e 	streq	r2, [r5, -lr, lsl #28]
    24d4:	0609052f 	streq	r0, [r9], -pc, lsr #10
    24d8:	030d052f 	movweq	r0, #54575	; 0xd52f
    24dc:	0505016f 	streq	r0, [r5, #-367]	; 0xfffffe91
    24e0:	2e2e0613 	mcrcs	6, 1, r0, cr14, cr3, {0}
    24e4:	0609052e 	streq	r0, [r9], -lr, lsr #10
    24e8:	05011203 	streq	r1, [r1, #-515]	; 0xfffffdfd
    24ec:	0172030d 	cmneq	r2, sp, lsl #6
    24f0:	06130505 	ldreq	r0, [r3], -r5, lsl #10
    24f4:	1d052e2e 	stcne	14, cr2, [r5, #-184]	; 0xffffff48
    24f8:	66100306 	ldrvs	r0, [r0], -r6, lsl #6
    24fc:	05130505 	ldreq	r0, [r3, #-1285]	; 0xfffffafb
    2500:	2e11061d 	mrccs	6, 0, r0, cr1, cr13, {0}
    2504:	30060505 	andcc	r0, r6, r5, lsl #10
    2508:	060e0513 			; <UNDEFINED> instruction: 0x060e0513
    250c:	30170510 	andscc	r0, r7, r0, lsl r5
    2510:	0502042e 	streq	r0, [r2, #-1070]	; 0xfffffbd2
    2514:	dd030630 	stcle	6, cr0, [r3, #-192]	; 0xffffff40
    2518:	01042e00 	tsteq	r4, r0, lsl #28
    251c:	03060e05 	movweq	r0, #28165	; 0x6e05
    2520:	05017fa2 	streq	r7, [r1, #-4002]	; 0xfffff05e
    2524:	01052f23 	tsteq	r5, r3, lsr #30
    2528:	0006022f 	andeq	r0, r6, pc, lsr #4
    252c:	009e0101 	addseq	r0, lr, r1, lsl #2
    2530:	00030000 	andeq	r0, r3, r0
    2534:	0000005a 	andeq	r0, r0, sl, asr r0
    2538:	0efb0102 	cdpeq	1, 15, cr0, cr11, cr2, {0}
    253c:	0101000d 	tsteq	r1, sp
    2540:	00000101 	andeq	r0, r0, r1, lsl #2
    2544:	00000100 	andeq	r0, r0, r0, lsl #2
    2548:	6c2f2e01 	stcvs	14, cr2, [pc], #-4	; 254c <__code_start__-0x5ab4>
    254c:	00636269 	rsbeq	r6, r3, r9, ror #4
    2550:	6573552f 	ldrbvs	r5, [r3, #-1327]!	; 0xfffffad1
    2554:	6d2f7372 	stcvs	3, cr7, [pc, #-456]!	; 2394 <__code_start__-0x5c6c>
    2558:	73656c69 	cmnvc	r5, #26880	; 0x6900
    255c:	756f532f 	strbvc	r5, [pc, #-815]!	; 2235 <__code_start__-0x5dcb>
    2560:	2f656372 	svccs	0x00656372
    2564:	34327363 	ldrtcc	r7, [r2], #-867	; 0xfffffc9d
    2568:	2f786c30 	svccs	0x00786c30
    256c:	7062696c 	rsbvc	r6, r2, ip, ror #18
    2570:	6e692f69 	cdpvs	15, 6, cr2, cr9, cr9, {3}
    2574:	64756c63 	ldrbtvs	r6, [r5], #-3171	; 0xfffff39d
    2578:	70000065 	andvc	r0, r0, r5, rrx
    257c:	68637475 	stmdavs	r3!, {r0, r2, r4, r5, r6, sl, ip, sp, lr}^
    2580:	632e7261 			; <UNDEFINED> instruction: 0x632e7261
    2584:	00000100 	andeq	r0, r0, r0, lsl #2
    2588:	2e697072 	mcrcs	0, 3, r7, cr9, cr2, {3}
    258c:	00020068 	andeq	r0, r2, r8, rrx
    2590:	24050000 	strcs	r0, [r5], #-0
    2594:	7c020500 	cfstr32vc	mvfx0, [r2], {-0}
    2598:	140000a0 	strne	r0, [r0], #-160	; 0xffffff60
    259c:	05012605 	streq	r2, [r1, #-1541]	; 0xfffff9fb
    25a0:	2e010624 	cfmadd32cs	mvax1, mvfx0, mvfx1, mvfx4
    25a4:	052e2605 	streq	r2, [lr, #-1541]!	; 0xfffff9fb
    25a8:	052e0634 	streq	r0, [lr, #-1588]!	; 0xfffff9cc
    25ac:	05010601 	streq	r0, [r1, #-1537]	; 0xfffff9ff
    25b0:	054f061b 	strbeq	r0, [pc, #-1563]	; 1f9d <__code_start__-0x6063>
    25b4:	11051305 	tstne	r5, r5, lsl #6
    25b8:	01050106 	tsteq	r5, r6, lsl #2
    25bc:	06230567 	strteq	r0, [r3], -r7, ror #10
    25c0:	13050567 	movwne	r0, #21863	; 0x5567
    25c4:	01061105 	tsteq	r6, r5, lsl #2
    25c8:	024b0105 	subeq	r0, fp, #1073741825	; 0x40000001
    25cc:	01010004 	tsteq	r1, r4
    25d0:	000000e2 	andeq	r0, r0, r2, ror #1
    25d4:	00590003 	subseq	r0, r9, r3
    25d8:	01020000 	mrseq	r0, (UNDEF: 2)
    25dc:	000d0efb 	strdeq	r0, [sp], -fp
    25e0:	01010101 	tsteq	r1, r1, lsl #2
    25e4:	01000000 	mrseq	r0, (UNDEF: 0)
    25e8:	2e010000 	cdpcs	0, 0, cr0, cr1, cr0, {0}
    25ec:	62696c2f 	rsbvs	r6, r9, #12032	; 0x2f00
    25f0:	552f0063 	strpl	r0, [pc, #-99]!	; 2595 <__code_start__-0x5a6b>
    25f4:	73726573 	cmnvc	r2, #482344960	; 0x1cc00000
    25f8:	6c696d2f 	stclvs	13, cr6, [r9], #-188	; 0xffffff44
    25fc:	532f7365 			; <UNDEFINED> instruction: 0x532f7365
    2600:	6372756f 	cmnvs	r2, #465567744	; 0x1bc00000
    2604:	73632f65 	cmnvc	r3, #404	; 0x194
    2608:	6c303432 	cfldrsvs	mvf3, [r0], #-200	; 0xffffff38
    260c:	696c2f78 	stmdbvs	ip!, {r3, r4, r5, r6, r8, r9, sl, fp, sp}^
    2610:	2f697062 	svccs	0x00697062
    2614:	6c636e69 	stclvs	14, cr6, [r3], #-420	; 0xfffffe5c
    2618:	00656475 	rsbeq	r6, r5, r5, ror r4
    261c:	72747300 	rsbsvc	r7, r4, #0, 6
    2620:	2e746163 	rpwcssz	f6, f4, f3
    2624:	00010063 	andeq	r0, r1, r3, rrx
    2628:	69707200 	ldmdbvs	r0!, {r9, ip, sp, lr}^
    262c:	0200682e 	andeq	r6, r0, #3014656	; 0x2e0000
    2630:	05000000 	streq	r0, [r0, #-0]
    2634:	0205002c 	andeq	r0, r5, #44, 0	; 0x2c
    2638:	0000a0b8 	strheq	sl, [r0], -r8
    263c:	13050515 	movwne	r0, #21781	; 0x5515
    2640:	060b0513 			; <UNDEFINED> instruction: 0x060b0513
    2644:	00050511 	andeq	r0, r5, r1, lsl r5
    2648:	06010402 	streq	r0, [r1], -r2, lsl #8
    264c:	04020030 	streq	r0, [r2], #-48	; 0xffffffd0
    2650:	09051501 	stmdbeq	r5, {r0, r8, sl, ip}
    2654:	01040200 	mrseq	r0, R12_usr
    2658:	000b0513 	andeq	r0, fp, r3, lsl r5
    265c:	2f010402 	svccs	0x00010402
    2660:	02000505 	andeq	r0, r0, #20971520	; 0x1400000
    2664:	01060104 	tsteq	r6, r4, lsl #2
    2668:	01040200 	mrseq	r0, R12_usr
    266c:	054e062e 	strbeq	r0, [lr, #-1582]	; 0xfffff9d2
    2670:	05010608 	streq	r0, [r1, #-1544]	; 0xfffff9f8
    2674:	04020005 	streq	r0, [r2], #-5
    2678:	052f0601 	streq	r0, [pc, #-1537]!	; 207f <__code_start__-0x5f81>
    267c:	04020009 	streq	r0, [r2], #-9
    2680:	0b051301 	bleq	14728c <__bss_end__+0x13c3b4>
    2684:	01040200 	mrseq	r0, R12_usr
    2688:	09050106 	stmdbeq	r5, {r1, r2, r8}
    268c:	01040200 	mrseq	r0, R12_usr
    2690:	05052f06 	streq	r2, [r5, #-3846]	; 0xfffff0fa
    2694:	01040200 	mrseq	r0, R12_usr
    2698:	0f051306 	svceq	0x00051306
    269c:	01040200 	mrseq	r0, R12_usr
    26a0:	000d052d 	andeq	r0, sp, sp, lsr #10
    26a4:	06010402 	streq	r0, [r1], -r2, lsl #8
    26a8:	0005052f 	andeq	r0, r5, pc, lsr #10
    26ac:	06010402 	streq	r0, [r1], -r2, lsl #8
    26b0:	00040201 	andeq	r0, r4, r1, lsl #4
    26b4:	00b20101 	adcseq	r0, r2, r1, lsl #2
    26b8:	00030000 	andeq	r0, r3, r0
    26bc:	00000059 	andeq	r0, r0, r9, asr r0
    26c0:	0efb0102 	cdpeq	1, 15, cr0, cr11, cr2, {0}
    26c4:	0101000d 	tsteq	r1, sp
    26c8:	00000101 	andeq	r0, r0, r1, lsl #2
    26cc:	00000100 	andeq	r0, r0, r0, lsl #2
    26d0:	6c2f2e01 	stcvs	14, cr2, [pc], #-4	; 26d4 <__code_start__-0x592c>
    26d4:	00636269 	rsbeq	r6, r3, r9, ror #4
    26d8:	6573552f 	ldrbvs	r5, [r3, #-1327]!	; 0xfffffad1
    26dc:	6d2f7372 	stcvs	3, cr7, [pc, #-456]!	; 251c <__code_start__-0x5ae4>
    26e0:	73656c69 	cmnvc	r5, #26880	; 0x6900
    26e4:	756f532f 	strbvc	r5, [pc, #-815]!	; 23bd <__code_start__-0x5c43>
    26e8:	2f656372 	svccs	0x00656372
    26ec:	34327363 	ldrtcc	r7, [r2], #-867	; 0xfffffc9d
    26f0:	2f786c30 	svccs	0x00786c30
    26f4:	7062696c 	rsbvc	r6, r2, ip, ror #18
    26f8:	6e692f69 	cdpvs	15, 6, cr2, cr9, cr9, {3}
    26fc:	64756c63 	ldrbtvs	r6, [r5], #-3171	; 0xfffff39d
    2700:	73000065 	movwvc	r0, #101	; 0x65
    2704:	6d637274 	sfmvs	f7, 2, [r3, #-464]!	; 0xfffffe30
    2708:	00632e70 	rsbeq	r2, r3, r0, ror lr
    270c:	72000001 	andvc	r0, r0, #1, 0
    2710:	682e6970 	stmdavs	lr!, {r4, r5, r6, r8, fp, sp, lr}
    2714:	00000200 	andeq	r0, r0, r0, lsl #4
    2718:	002a0500 	eoreq	r0, sl, r0, lsl #10
    271c:	a0e40205 	rscge	r0, r4, r5, lsl #4
    2720:	05140000 	ldreq	r0, [r4, #-0]
    2724:	10051309 	andne	r1, r5, r9, lsl #6
    2728:	0f050106 	svceq	0x00050106
    272c:	10052e06 	andne	r2, r5, r6, lsl #28
    2730:	0f058206 	svceq	0x00058206
    2734:	0011052e 	andseq	r0, r1, lr, lsr #10
    2738:	06010402 	streq	r0, [r1], -r2, lsl #8
    273c:	001c054b 	andseq	r0, ip, fp, asr #10
    2740:	06010402 	streq	r0, [r1], -r2, lsl #8
    2744:	000f052d 	andeq	r0, pc, sp, lsr #10
    2748:	06010402 	streq	r0, [r1], -r2, lsl #8
    274c:	0013052e 	andseq	r0, r3, lr, lsr #10
    2750:	06010402 	streq	r0, [r1], -r2, lsl #8
    2754:	06090501 	streq	r0, [r9], -r1, lsl #10
    2758:	0601054c 	streq	r0, [r1], -ip, asr #10
    275c:	09054a13 	stmdbeq	r5, {r0, r1, r4, r9, fp, lr}
    2760:	01052d06 	tsteq	r5, r6, lsl #26
    2764:	022e1306 	eoreq	r1, lr, #402653184	; 0x18000000
    2768:	01010002 	tsteq	r1, r2
    276c:	0000009d 	muleq	r0, sp, r0
    2770:	00590003 	subseq	r0, r9, r3
    2774:	01020000 	mrseq	r0, (UNDEF: 2)
    2778:	000d0efb 	strdeq	r0, [sp], -fp
    277c:	01010101 	tsteq	r1, r1, lsl #2
    2780:	01000000 	mrseq	r0, (UNDEF: 0)
    2784:	2e010000 	cdpcs	0, 0, cr0, cr1, cr0, {0}
    2788:	62696c2f 	rsbvs	r6, r9, #12032	; 0x2f00
    278c:	552f0063 	strpl	r0, [pc, #-99]!	; 2731 <__code_start__-0x58cf>
    2790:	73726573 	cmnvc	r2, #482344960	; 0x1cc00000
    2794:	6c696d2f 	stclvs	13, cr6, [r9], #-188	; 0xffffff44
    2798:	532f7365 			; <UNDEFINED> instruction: 0x532f7365
    279c:	6372756f 	cmnvs	r2, #465567744	; 0x1bc00000
    27a0:	73632f65 	cmnvc	r3, #404	; 0x194
    27a4:	6c303432 	cfldrsvs	mvf3, [r0], #-200	; 0xffffff38
    27a8:	696c2f78 	stmdbvs	ip!, {r3, r4, r5, r6, r8, r9, sl, fp, sp}^
    27ac:	2f697062 	svccs	0x00697062
    27b0:	6c636e69 	stclvs	14, cr6, [r3], #-420	; 0xfffffe5c
    27b4:	00656475 	rsbeq	r6, r5, r5, ror r4
    27b8:	72747300 	rsbsvc	r7, r4, #0, 6
    27bc:	2e797063 	cdpcs	0, 7, cr7, cr9, cr3, {3}
    27c0:	00010063 	andeq	r0, r1, r3, rrx
    27c4:	69707200 	ldmdbvs	r0!, {r9, ip, sp, lr}^
    27c8:	0200682e 	andeq	r6, r0, #3014656	; 0x2e0000
    27cc:	05000000 	streq	r0, [r0, #-0]
    27d0:	0205002a 	andeq	r0, r5, #42, 0	; 0x2a
    27d4:	0000a128 	andeq	sl, r0, r8, lsr #2
    27d8:	13050514 	movwne	r0, #21780	; 0x5514
    27dc:	00220513 	eoreq	r0, r2, r3, lsl r5
    27e0:	2e010402 	cdpcs	4, 0, cr0, cr1, cr2, {0}
    27e4:	02000b05 	andeq	r0, r0, #5120	; 0x1400
    27e8:	05010104 	streq	r0, [r1, #-260]	; 0xfffffefc
    27ec:	04020015 	streq	r0, [r2], #-21	; 0xffffffeb
    27f0:	05010601 	streq	r0, [r1, #-1537]	; 0xfffff9ff
    27f4:	0402000b 	streq	r0, [r2], #-11
    27f8:	13052e01 	movwne	r2, #24065	; 0x5e01
    27fc:	01040200 	mrseq	r0, R12_usr
    2800:	000b052e 	andeq	r0, fp, lr, lsr #10
    2804:	2e010402 	cdpcs	4, 0, cr0, cr1, cr2, {0}
    2808:	01000402 	tsteq	r0, r2, lsl #8
    280c:	0000fd01 	andeq	pc, r0, r1, lsl #26
    2810:	bf000300 	svclt	0x00000300
    2814:	02000000 	andeq	r0, r0, #0, 0
    2818:	0d0efb01 	vstreq	d15, [lr, #-4]
    281c:	01010100 	mrseq	r0, (UNDEF: 17)
    2820:	00000001 	andeq	r0, r0, r1
    2824:	01000001 	tsteq	r0, r1
    2828:	696c2f2e 	stmdbvs	ip!, {r1, r2, r3, r5, r8, r9, sl, fp, sp}^
    282c:	2f006362 	svccs	0x00006362
    2830:	72657355 	rsbvc	r7, r5, #1409286145	; 0x54000001
    2834:	696d2f73 	stmdbvs	sp!, {r0, r1, r4, r5, r6, r8, r9, sl, fp, sp}^
    2838:	2f73656c 	svccs	0x0073656c
    283c:	72756f53 	rsbsvc	r6, r5, #332	; 0x14c
    2840:	632f6563 			; <UNDEFINED> instruction: 0x632f6563
    2844:	30343273 	eorscc	r3, r4, r3, ror r2
    2848:	6c2f786c 	stcvs	8, cr7, [pc], #-432	; 26a0 <__code_start__-0x5960>
    284c:	69706269 	ldmdbvs	r0!, {r0, r3, r5, r6, r9, sp, lr}^
    2850:	636e692f 	cmnvs	lr, #770048	; 0xbc000
    2854:	6564756c 	strbvs	r7, [r4, #-1388]!	; 0xfffffa94
    2858:	706f2f00 	rsbvc	r2, pc, r0, lsl #30
    285c:	6f682f74 	svcvs	0x00682f74
    2860:	7262656d 	rsbvc	r6, r2, #457179136	; 0x1b400000
    2864:	432f7765 			; <UNDEFINED> instruction: 0x432f7765
    2868:	616c6c65 	cmnvs	ip, r5, ror #24
    286c:	72612f72 	rsbvc	r2, r1, #456	; 0x1c8
    2870:	6f6e2d6d 	svcvs	0x006e2d6d
    2874:	652d656e 	strvs	r6, [sp, #-1390]!	; 0xfffffa92
    2878:	2d696261 	sfmcs	f6, 2, [r9, #-388]!	; 0xfffffe7c
    287c:	2d392f39 	ldccs	15, cr2, [r9, #-228]!	; 0xffffff1c
    2880:	39313032 	ldmdbcc	r1!, {r1, r4, r5, ip, sp}
    2884:	632d3471 			; <UNDEFINED> instruction: 0x632d3471
    2888:	37303173 			; <UNDEFINED> instruction: 0x37303173
    288c:	696c2f65 	stmdbvs	ip!, {r0, r2, r5, r6, r8, r9, sl, fp, sp}^
    2890:	63672f62 	cmnvs	r7, #392	; 0x188
    2894:	72612f63 	rsbvc	r2, r1, #396	; 0x18c
    2898:	6f6e2d6d 	svcvs	0x006e2d6d
    289c:	652d656e 	strvs	r6, [sp, #-1390]!	; 0xfffffa92
    28a0:	2f696261 	svccs	0x00696261
    28a4:	2e322e39 	mrccs	14, 1, r2, cr2, cr9, {1}
    28a8:	6e692f31 	mcrvs	15, 3, r2, cr9, cr1, {1}
    28ac:	64756c63 	ldrbtvs	r6, [r5], #-3171	; 0xfffff39d
    28b0:	73000065 	movwvc	r0, #101	; 0x65
    28b4:	636e7274 	cmnvs	lr, #116, 4	; 0x40000007
    28b8:	632e706d 			; <UNDEFINED> instruction: 0x632e706d
    28bc:	00000100 	andeq	r0, r0, r0, lsl #2
    28c0:	2e697072 	mcrcs	0, 3, r7, cr9, cr2, {3}
    28c4:	00020068 	andeq	r0, r2, r8, rrx
    28c8:	64747300 	ldrbtvs	r7, [r4], #-768	; 0xfffffd00
    28cc:	2e666564 	cdpcs	5, 6, cr6, cr6, cr4, {3}
    28d0:	00030068 	andeq	r0, r3, r8, rrx
    28d4:	39050000 	stmdbcc	r5, {}	; <UNPREDICTABLE>
    28d8:	40020500 	andmi	r0, r2, r0, lsl #10
    28dc:	150000a1 	strne	r0, [r0, #-161]	; 0xffffff5f
    28e0:	13130505 	tstne	r3, #20971520	; 0x1400000
    28e4:	2e060a05 	vmlacs.f32	s0, s12, s10
    28e8:	052f0c05 	streq	r0, [pc, #-3077]!	; 1ceb <__code_start__-0x6315>
    28ec:	0b052e13 	bleq	14e140 <__bss_end__+0x143268>
    28f0:	0609052e 	streq	r0, [r9], -lr, lsr #10
    28f4:	110a054a 	tstne	sl, sl, asr #10
    28f8:	0c050106 	stfeqs	f0, [r5], {6}
    28fc:	2f01054e 	svccs	0x0001054e
    2900:	2b060d05 	blcs	185d1c <__bss_end__+0x17ae44>
    2904:	01061b05 	tsteq	r6, r5, lsl #22
    2908:	0002022e 	andeq	r0, r2, lr, lsr #4
    290c:	008a0101 	addeq	r0, sl, r1, lsl #2
    2910:	00030000 	andeq	r0, r3, r0
    2914:	0000006e 	andeq	r0, r0, lr, rrx
    2918:	0efb0102 	cdpeq	1, 15, cr0, cr11, cr2, {0}
    291c:	0101000d 	tsteq	r1, sp
    2920:	00000101 	andeq	r0, r0, r1, lsl #2
    2924:	00000100 	andeq	r0, r0, r0, lsl #2
    2928:	732f2e01 			; <UNDEFINED> instruction: 0x732f2e01
    292c:	66666174 			; <UNDEFINED> instruction: 0x66666174
    2930:	6372732d 	cmnvs	r2, #-1275068416	; 0xb4000000
    2934:	73552f00 	cmpvc	r5, #0, 30
    2938:	2f737265 	svccs	0x00737265
    293c:	656c696d 	strbvs	r6, [ip, #-2413]!	; 0xfffff693
    2940:	6f532f73 	svcvs	0x00532f73
    2944:	65637275 	strbvs	r7, [r3, #-629]!	; 0xfffffd8b
    2948:	3273632f 	rsbscc	r6, r3, #-1140850688	; 0xbc000000
    294c:	786c3034 	stmdavc	ip!, {r2, r4, r5, ip, sp}^
    2950:	62696c2f 	rsbvs	r6, r9, #12032	; 0x2f00
    2954:	692f6970 	stmdbvs	pc!, {r4, r5, r6, r8, fp, sp, lr}	; <UNPREDICTABLE>
    2958:	756c636e 	strbvc	r6, [ip, #-878]!	; 0xfffffc92
    295c:	00006564 	andeq	r6, r0, r4, ror #10
    2960:	61666564 	cmnvs	r6, r4, ror #10
    2964:	2d746c75 	ldclcs	12, cr6, [r4, #-468]!	; 0xfffffe2c
    2968:	6f626572 	svcvs	0x00626572
    296c:	632d746f 			; <UNDEFINED> instruction: 0x632d746f
    2970:	6f6c6c61 	svcvs	0x006c6c61
    2974:	632e7475 			; <UNDEFINED> instruction: 0x632e7475
    2978:	00000100 	andeq	r0, r0, r0, lsl #2
    297c:	2e697072 	mcrcs	0, 3, r7, cr9, cr2, {3}
    2980:	00020068 	andeq	r0, r2, r8, rrx
    2984:	1b050000 	blne	14298c <__bss_end__+0x137ab4>
    2988:	70020500 	andvc	r0, r2, r0, lsl #10
    298c:	140000a1 	strne	r0, [r0], #-161	; 0xffffff5f
    2990:	05011c05 	streq	r1, [r1, #-3077]	; 0xfffff3fb
    2994:	02010601 	andeq	r0, r1, #1048576	; 0x100000
    2998:	01010002 	tsteq	r1, r2

Disassembly of section .debug_str:

00000000 <.debug_str>:
   0:	765f6b63 	ldrbvc	r6, [pc], -r3, ror #22
   4:	6f627265 	svcvs	0x00627265
   8:	705f6573 	subsvc	r6, pc, r3, ror r5	; <UNPREDICTABLE>
   c:	72646800 	rsbvc	r6, r4, #0, 16
  10:	6e00745f 	cfmvsrvs	mvf0, r7
  14:	00747865 	rsbseq	r7, r4, r5, ror #16
  18:	6c616b63 			; <UNDEFINED> instruction: 0x6c616b63
  1c:	00636f6c 	rsbeq	r6, r3, ip, ror #30
  20:	74617473 	strbtvc	r7, [r1], #-1139	; 0xfffffb8d
  24:	65740065 	ldrbvs	r0, [r4, #-101]!	; 0xffffff9b
  28:	2d737473 	cfldrdcs	mvd7, [r3, #-460]!	; 0xfffffe34
  2c:	2f302e32 	svccs	0x00302e32
  30:	74726170 	ldrbtvc	r6, [r2], #-368	; 0xfffffe90
  34:	65742d32 	ldrbvs	r2, [r4, #-3378]!	; 0xfffff2ce
  38:	2d367473 	cfldrscs	mvf7, [r6, #-460]!	; 0xfffffe34
  3c:	6c2d6f6e 	stcvs	15, cr6, [sp], #-440	; 0xfffffe48
  40:	2e6b6165 	powcsez	f6, f3, f5
  44:	696c0063 	stmdbvs	ip!, {r0, r1, r5, r6}^
  48:	6f6e656e 	svcvs	0x006e656e
  4c:	5f6b6300 	svcpl	0x006b6300
  50:	646e6966 	strbtvs	r6, [lr], #-2406	; 0xfffff69a
  54:	61656c5f 	cmnvs	r5, pc, asr ip
  58:	6e00736b 	cdpvs	3, 0, cr7, cr0, cr11, {3}
  5c:	616d746f 	cmnvs	sp, pc, ror #8
  60:	6e006e69 	cdpvs	14, 0, cr6, cr0, cr9, {3}
  64:	65747962 	ldrbvs	r7, [r4, #-2402]!	; 0xfffff69e
  68:	6c615f73 	stclvs	15, cr5, [r1], #-460	; 0xfffffe34
  6c:	00636f6c 	rsbeq	r6, r3, ip, ror #30
  70:	656c6966 	strbvs	r6, [ip, #-2406]!	; 0xfffff69a
  74:	736e7500 	cmnvc	lr, #0, 10
  78:	656e6769 	strbvs	r6, [lr, #-1897]!	; 0xfffff897
  7c:	68632064 	stmdavs	r3!, {r2, r5, r6, sp}^
  80:	63007261 	movwvs	r7, #609	; 0x261
  84:	6e61656c 	cdpvs	5, 6, cr6, cr1, cr12, {3}
  88:	6265725f 	rsbvs	r7, r5, #-268435451	; 0xf0000005
  8c:	00746f6f 	rsbseq	r6, r4, pc, ror #30
  90:	726f6873 	rsbvc	r6, pc, #7536640	; 0x730000
  94:	6e752074 	mrcvs	0, 3, r2, cr5, cr4, {3}
  98:	6e676973 			; <UNDEFINED> instruction: 0x6e676973
  9c:	69206465 	stmdbvs	r0!, {r0, r2, r5, r6, sl, sp, lr}
  a0:	6300746e 	movwvs	r7, #1134	; 0x46e
  a4:	64685f6b 	strbtvs	r5, [r8], #-3947	; 0xfffff095
  a8:	72730072 	rsbsvc	r0, r3, #114, 0	; 0x72
  ac:	6f6c5f63 	svcvs	0x006c5f63
  b0:	6b6d5f63 	blvs	1b57e44 <__bss_end__+0x1b4cf6c>
  b4:	5f6b6300 	svcpl	0x006b6300
  b8:	5f6b6c62 	svcpl	0x006b6c62
  bc:	66006469 	strvs	r6, [r0], -r9, ror #8
  c0:	00636e75 	rsbeq	r6, r3, r5, ror lr
  c4:	55465f5f 	strbpl	r5, [r6, #-3935]	; 0xfffff0a1
  c8:	4954434e 	ldmdbmi	r4, {r1, r2, r3, r6, r8, r9, lr}^
  cc:	5f5f4e4f 	svcpl	0x005f4e4f
  d0:	73657400 	cmnvc	r5, #0, 8
  d4:	62003174 	andvs	r3, r0, #29
  d8:	6b636f6c 	blvs	18dbe90 <__bss_end__+0x18d0fb8>
  dc:	0064695f 	rsbeq	r6, r4, pc, asr r9
  e0:	676e6f6c 	strbvs	r6, [lr, -ip, ror #30]!
  e4:	6e6f6c20 	cdpvs	12, 6, cr6, cr15, cr0, {1}
  e8:	6e752067 	cdpvs	0, 7, cr2, cr5, cr7, {3}
  ec:	6e676973 			; <UNDEFINED> instruction: 0x6e676973
  f0:	69206465 	stmdbvs	r0!, {r0, r2, r5, r6, sl, sp, lr}
  f4:	7500746e 	strvc	r7, [r0, #-1134]	; 0xfffffb92
  f8:	38746e69 	ldmdacc	r4!, {r0, r3, r5, r6, r9, sl, fp, sp, lr}^
  fc:	6100745f 	tstvs	r0, pc, asr r4
 100:	636f6c6c 	cmnvs	pc, #108, 24	; 0x6c00
 104:	636f6c5f 	cmnvs	pc, #24320	; 0x5f00
 108:	6e6f6c00 	cdpvs	12, 6, cr6, cr15, cr0, {0}
 10c:	6f6c2067 	svcvs	0x006c2067
 110:	6920676e 	stmdbvs	r0!, {r1, r2, r3, r5, r6, r8, r9, sl, sp, lr}
 114:	2f00746e 	svccs	0x0000746e
 118:	72657355 	rsbvc	r7, r5, #1409286145	; 0x54000001
 11c:	696d2f73 	stmdbvs	sp!, {r0, r1, r4, r5, r6, r8, r9, sl, fp, sp}^
 120:	2f73656c 	svccs	0x0073656c
 124:	72756f53 	rsbsvc	r6, r5, #332	; 0x14c
 128:	632f6563 			; <UNDEFINED> instruction: 0x632f6563
 12c:	30343273 	eorscc	r3, r4, r3, ror r2
 130:	6c2f786c 	stcvs	8, cr7, [pc], #-432	; ffffff88 <__bss_end__+0xffff50b0>
 134:	2f736261 	svccs	0x00736261
 138:	616d2d35 	cmnvs	sp, r5, lsr sp
 13c:	636f6c6c 	cmnvs	pc, #108, 24	; 0x6c00
 140:	2f63672b 	svccs	0x0063672b
 144:	65646f63 	strbvs	r6, [r4, #-3939]!	; 0xfffff09d
 148:	6f687300 	svcvs	0x00687300
 14c:	69207472 	stmdbvs	r0!, {r1, r4, r5, r6, sl, ip, sp, lr}
 150:	7300746e 	movwvc	r7, #1134	; 0x46e
 154:	6c5f6372 	mrrcvs	3, 7, r6, pc, cr2	; <UNPREDICTABLE>
 158:	745f636f 	ldrbvc	r6, [pc], #-879	; 160 <__code_start__-0x7ea0>
 15c:	6e697500 	cdpvs	5, 6, cr7, cr9, cr0, {0}
 160:	5f363174 	svcpl	0x00363174
 164:	69750074 	ldmdbvs	r5!, {r2, r4, r5, r6}^
 168:	3233746e 	eorscc	r7, r3, #1845493760	; 0x6e000000
 16c:	7200745f 	andvc	r7, r0, #1593835520	; 0x5f000000
 170:	705f6970 	subsvc	r6, pc, r0, ror r9	; <UNPREDICTABLE>
 174:	68637475 	stmdavs	r3!, {r0, r2, r4, r5, r6, sl, ip, sp, lr}^
 178:	47007261 	strmi	r7, [r0, -r1, ror #4]
 17c:	4320554e 			; <UNDEFINED> instruction: 0x4320554e
 180:	39203939 	stmdbcc	r0!, {r0, r3, r4, r5, r8, fp, ip, sp}
 184:	312e322e 			; <UNDEFINED> instruction: 0x312e322e
 188:	31303220 	teqcc	r0, r0, lsr #4
 18c:	32303139 	eorscc	r3, r0, #1073741838	; 0x4000000e
 190:	72282035 	eorvc	r2, r8, #53, 0	; 0x35
 194:	61656c65 	cmnvs	r5, r5, ror #24
 198:	20296573 	eorcs	r6, r9, r3, ror r5
 19c:	4d52415b 	ldfmie	f4, [r2, #-364]	; 0xfffffe94
 1a0:	6d72612f 	ldfvse	f6, [r2, #-188]!	; 0xffffff44
 1a4:	622d392d 	eorvs	r3, sp, #737280	; 0xb4000
 1a8:	636e6172 	cmnvs	lr, #-2147483620	; 0x8000001c
 1ac:	65722068 	ldrbvs	r2, [r2, #-104]!	; 0xffffff98
 1b0:	69736976 	ldmdbvs	r3!, {r1, r2, r4, r5, r6, r8, fp, sp, lr}^
 1b4:	32206e6f 	eorcc	r6, r0, #1776	; 0x6f0
 1b8:	39353737 	ldmdbcc	r5!, {r0, r1, r2, r4, r5, r8, r9, sl, ip, sp}
 1bc:	2d205d39 	stccs	13, cr5, [r0, #-228]!	; 0xffffff1c
 1c0:	7570636d 	ldrbvc	r6, [r0, #-877]!	; 0xfffffc93
 1c4:	6d72613d 	ldfvse	f6, [r2, #-244]!	; 0xffffff0c
 1c8:	36373131 			; <UNDEFINED> instruction: 0x36373131
 1cc:	2d667a6a 	vstmdbcs	r6!, {s15-s120}
 1d0:	6d2d2073 	stcvs	0, cr2, [sp, #-460]!	; 0xfffffe34
 1d4:	656e7574 	strbvs	r7, [lr, #-1396]!	; 0xfffffa8c
 1d8:	6d72613d 	ldfvse	f6, [r2, #-244]!	; 0xffffff0c
 1dc:	36373131 			; <UNDEFINED> instruction: 0x36373131
 1e0:	2d667a6a 	vstmdbcs	r6!, {s15-s120}
 1e4:	6d2d2073 	stcvs	0, cr2, [sp, #-460]!	; 0xfffffe34
 1e8:	616f6c66 	cmnvs	pc, r6, ror #24
 1ec:	62612d74 	rsbvs	r2, r1, #116, 26	; 0x1d00
 1f0:	6f733d69 	svcvs	0x00733d69
 1f4:	2d207466 	cfstrscs	mvf7, [r0, #-408]!	; 0xfffffe68
 1f8:	6d72616d 	ldfvse	f6, [r2, #-436]!	; 0xfffffe4c
 1fc:	616d2d20 	cmnvs	sp, r0, lsr #26
 200:	3d686372 	stclcc	3, cr6, [r8, #-456]!	; 0xfffffe38
 204:	766d7261 	strbtvc	r7, [sp], -r1, ror #4
 208:	207a6b36 	rsbscs	r6, sl, r6, lsr fp
 20c:	6467672d 	strbtvs	r6, [r7], #-1837	; 0xfffff8d3
 210:	4f2d2062 	svcmi	0x002d2062
 214:	732d2067 			; <UNDEFINED> instruction: 0x732d2067
 218:	673d6474 			; <UNDEFINED> instruction: 0x673d6474
 21c:	3939756e 	ldmdbcc	r9!, {r1, r2, r3, r5, r6, r8, sl, ip, sp, lr}
 220:	66662d20 	strbtvs	r2, [r6], -r0, lsr #26
 224:	73656572 	cmnvc	r5, #478150656	; 0x1c800000
 228:	646e6174 	strbtvs	r6, [lr], #-372	; 0xfffffe8c
 22c:	00676e69 	rsbeq	r6, r7, r9, ror #28
 230:	73666572 	cmnvc	r6, #478150656	; 0x1c800000
 234:	6174735f 	cmnvs	r4, pc, asr r3
 238:	72007472 	andvc	r7, r0, #1912602624	; 0x72000000
 23c:	5f736665 	svcpl	0x00736665
 240:	6464696d 	strbtvs	r6, [r4], #-2413	; 0xfffff693
 244:	6300656c 	movwvs	r6, #1388	; 0x56c
 248:	74705f6b 	ldrbtvc	r5, [r0], #-3947	; 0xfffff095
 24c:	6e695f72 	mcrvs	15, 3, r5, cr9, cr2, {3}
 250:	6f6c625f 	svcvs	0x006c625f
 254:	46006b63 	strmi	r6, [r0], -r3, ror #22
 258:	44454552 	strbmi	r4, [r5], #-1362	; 0xfffffaae
 25c:	44455200 	strbmi	r5, [r5], #-512	; 0xfffffe00
 260:	454e4f5a 	strbmi	r4, [lr, #-3930]	; 0xfffff0a6
 264:	4c41565f 	mcrrmi	6, 5, r5, r1, cr15
 268:	5f726b00 	svcpl	0x00726b00
 26c:	65657266 	strbvs	r7, [r5, #-614]!	; 0xfffffd9a
 270:	44455200 	strbmi	r5, [r5], #-512	; 0xfffffe00
 274:	454e4f5a 	strbmi	r4, [lr, #-3930]	; 0xfffff0a6
 278:	59424e5f 	stmdbpl	r2, {r0, r1, r2, r3, r4, r6, r9, sl, fp, lr}^
 27c:	00534554 	subseq	r4, r3, r4, asr r5
 280:	665f6b63 	ldrbvs	r6, [pc], -r3, ror #22
 284:	74737269 	ldrbtvc	r7, [r3], #-617	; 0xfffffd97
 288:	7264685f 	rsbvc	r6, r4, #6225920	; 0x5f0000
 28c:	666b6300 	strbtvs	r6, [fp], -r0, lsl #6
 290:	00656572 	rsbeq	r6, r5, r2, ror r5
 294:	6f6c6c61 	svcvs	0x006c6c61
 298:	696c5f63 	stmdbvs	ip!, {r0, r1, r5, r6, r8, r9, sl, fp, ip, lr}^
 29c:	6d007473 	cfstrsvs	mvf7, [r0, #-460]	; 0xfffffe34
 2a0:	65736d65 	ldrbvs	r6, [r3, #-3429]!	; 0xfffff29b
 2a4:	696c0074 	stmdbvs	ip!, {r2, r4, r5, r6}^
 2a8:	725f7473 	subsvc	r7, pc, #1929379840	; 0x73000000
 2ac:	766f6d65 	strbtvc	r6, [pc], -r5, ror #26
 2b0:	6b630065 	blvs	18c044c <__bss_end__+0x18b5574>
 2b4:	7274705f 	rsbsvc	r7, r4, #95, 0	; 0x5f
 2b8:	5f73695f 	svcpl	0x0073695f
 2bc:	6f6c6c61 	svcvs	0x006c6c61
 2c0:	00646563 	rsbeq	r6, r4, r3, ror #10
 2c4:	6e5f6b63 	vnmlavs.f64	d22, d15, d19
 2c8:	5f747865 	svcpl	0x00747865
 2cc:	00726468 	rsbseq	r6, r2, r8, ror #8
 2d0:	6c616b63 			; <UNDEFINED> instruction: 0x6c616b63
 2d4:	2e636f6c 	cdpcs	15, 6, cr6, cr3, cr12, {3}
 2d8:	4c410063 	mcrrmi	0, 6, r0, r1, cr3
 2dc:	45434f4c 	strbmi	r4, [r3, #-3916]	; 0xfffff0b4
 2e0:	6b630044 	blvs	18c03f8 <__bss_end__+0x18b5520>
 2e4:	7264685f 	rsbvc	r6, r4, #6225920	; 0x5f0000
 2e8:	6174735f 	cmnvs	r4, pc, asr r3
 2ec:	63007472 	movwvs	r7, #1138	; 0x472
 2f0:	64685f6b 	strbtvs	r5, [r8], #-3947	; 0xfffff095
 2f4:	6e655f72 	mcrvs	15, 3, r5, cr5, cr2, {3}
 2f8:	72700064 	rsbsvc	r0, r0, #100, 0	; 0x64
 2fc:	63007665 	movwvs	r7, #1637	; 0x665
 300:	626e5f6b 	rsbvs	r5, lr, #428	; 0x1ac
 304:	73657479 	cmnvc	r5, #2030043136	; 0x79000000
 308:	5f726b00 	svcpl	0x00726b00
 30c:	6c6c616d 	stfvse	f6, [ip], #-436	; 0xfffffe4c
 310:	6800636f 	stmdavs	r0, {r0, r1, r2, r3, r5, r6, r8, r9, sp, lr}
 314:	65646165 	strbvs	r6, [r4, #-357]!	; 0xfffffe9b
 318:	72700072 	rsbsvc	r0, r0, #114, 0	; 0x72
 31c:	00707665 	rsbseq	r7, r0, r5, ror #12
 320:	67696c61 	strbvs	r6, [r9, -r1, ror #24]!
 324:	7266006e 	rsbvc	r0, r6, #110, 0	; 0x6e
 328:	00706565 	rsbseq	r6, r0, r5, ror #10
 32c:	696e756e 	stmdbvs	lr!, {r1, r2, r3, r5, r6, r8, sl, ip, sp, lr}^
 330:	6b007374 	blvs	1d108 <__bss_end__+0x12230>
 334:	616d2d72 	smcvs	53970	; 0xd2d2
 338:	636f6c6c 	cmnvs	pc, #108, 24	; 0x6c00
 33c:	6400632e 	strvs	r6, [r0], #-814	; 0xfffffcd2
 340:	6c62756f 	cfstr64vs	mvdx7, [r2], #-444	; 0xfffffe44
 344:	61620065 	cmnvs	r2, r5, rrx
 348:	73006573 	movwvc	r6, #1395	; 0x573
 34c:	006b7262 	rsbeq	r7, fp, r2, ror #4
 350:	65726f6d 	ldrbvs	r6, [r2, #-3949]!	; 0xfffff093
 354:	65726f63 	ldrbvs	r6, [r2, #-3939]!	; 0xfffff09d
 358:	7a697300 	bvc	1a5cf60 <__bss_end__+0x1a52088>
 35c:	65480065 	strbvs	r0, [r8, #-101]	; 0xffffff9b
 360:	72656461 	rsbvc	r6, r5, #1627389952	; 0x61000000
 364:	61747300 	cmnvs	r4, r0, lsl #6
 368:	745f6b63 	ldrbvc	r6, [pc], #-2915	; 370 <__code_start__-0x7c90>
 36c:	6d00706f 	stcvs	0, cr7, [r0, #-444]	; 0xfffffe44
 370:	5f6b7261 	svcpl	0x006b7261
 374:	006c6c61 	rsbeq	r6, ip, r1, ror #24
 378:	6c706d69 	ldclvs	13, cr6, [r0], #-420	; 0xfffffe5c
 37c:	6e656d65 	cdpvs	13, 6, cr6, cr5, cr5, {3}
 380:	68745f74 	ldmdavs	r4!, {r2, r4, r5, r6, r8, r9, sl, fp, ip, lr}^
 384:	5f007369 	svcpl	0x00007369
 388:	7373625f 	cmnvc	r3, #-268435451	; 0xf0000005
 38c:	6174735f 	cmnvs	r4, pc, asr r3
 390:	5f5f7472 	svcpl	0x005f7472
 394:	6c626e00 	stclvs	14, cr6, [r2], #-0
 398:	736b636f 	cmnvc	fp, #-1140850687	; 0xbc000001
 39c:	696e6900 	stmdbvs	lr!, {r8, fp, sp, lr}^
 3a0:	00705f74 	rsbseq	r5, r0, r4, ror pc
 3a4:	7479626e 	ldrbtvc	r6, [r9], #-622	; 0xfffffd92
 3a8:	665f7365 	ldrbvs	r7, [pc], -r5, ror #6
 3ac:	64656572 	strbtvs	r6, [r5], #-1394	; 0xfffffa8e
 3b0:	646c6f00 	strbtvs	r6, [ip], #-3840	; 0xfffff100
 3b4:	72616d5f 	rsbvc	r6, r1, #6080	; 0x17c0
 3b8:	616d006b 	cmnvs	sp, fp, rrx
 3bc:	5f656279 	svcpl	0x00656279
 3c0:	6f727265 	svcvs	0x00727265
 3c4:	63007372 	movwvs	r7, #882	; 0x372
 3c8:	63675f6b 	cmnvs	r7, #428	; 0x1ac
 3cc:	6d756400 	cfldrdvs	mvd6, [r5, #-0]
 3d0:	65725f70 	ldrbvs	r5, [r2, #-3952]!	; 0xfffff090
 3d4:	6e007367 	cdpvs	3, 0, cr7, cr0, cr7, {3}
 3d8:	6b61656c 	blvs	1859990 <__bss_end__+0x184eab8>
 3dc:	6e690073 	mcrvs	0, 3, r0, cr9, cr3, {3}
 3e0:	6d657263 	sfmvs	f7, 2, [r5, #-396]!	; 0xfffffe74
 3e4:	00746e65 	rsbseq	r6, r4, r5, ror #28
 3e8:	61645f5f 	cmnvs	r4, pc, asr pc
 3ec:	655f6174 	ldrbvs	r6, [pc, #-372]	; 280 <__code_start__-0x7d80>
 3f0:	5f5f646e 	svcpl	0x005f646e
 3f4:	5f736900 	svcpl	0x00736900
 3f8:	00727470 	rsbseq	r7, r2, r0, ror r4
 3fc:	63656863 	cmnvs	r5, #6488064	; 0x630000
 400:	6f6e5f6b 	svcvs	0x006e5f6b
 404:	61656c5f 	cmnvs	r5, pc, asr ip
 408:	666e006b 	strbtvs	r0, [lr], -fp, rrx
 40c:	64656572 	strbtvs	r6, [r5], #-1394	; 0xfffffa8e
 410:	5f6e6900 	svcpl	0x006e6900
 414:	70616568 	rsbvc	r6, r1, r8, ror #10
 418:	656e6f00 	strbvs	r6, [lr, #-3840]!	; 0xfffff100
 41c:	6300626d 	movwvs	r6, #621	; 0x26d
 420:	63672d6b 	cmnvs	r7, #6848	; 0x1ac0
 424:	6300632e 	movwvs	r6, #814	; 0x32e
 428:	6b636568 	blvs	18d99d0 <__bss_end__+0x18ceaf8>
 42c:	6f68735f 	svcvs	0x0068735f
 430:	5f646c75 	svcpl	0x00646c75
 434:	6b61656c 	blvs	18599ec <__bss_end__+0x184eb14>
 438:	625f5f00 	subsvs	r5, pc, #0, 30
 43c:	655f7373 	ldrbvs	r7, [pc, #-883]	; d1 <__code_start__-0x7f2f>
 440:	5f5f646e 	svcpl	0x005f646e
 444:	616d6b00 	cmnvs	sp, r0, lsl #22
 448:	636f6c6c 	cmnvs	pc, #108, 24	; 0x6c00
 44c:	616d6b00 	cmnvs	sp, r0, lsl #22
 450:	636f6c6c 	cmnvs	pc, #108, 24	; 0x6c00
 454:	696e695f 	stmdbvs	lr!, {r0, r1, r2, r3, r4, r6, r8, fp, sp, lr}^
 458:	65735f74 	ldrbvs	r5, [r3, #-3956]!	; 0xfffff08c
 45c:	74735f74 	ldrbtvc	r5, [r3], #-3956	; 0xfffff08c
 460:	00747261 	rsbseq	r7, r4, r1, ror #4
 464:	65657773 	strbvs	r7, [r5, #-1907]!	; 0xfffff88d
 468:	656c5f70 	strbvs	r5, [ip, #-3952]!	; 0xfffff090
 46c:	5f006b61 	svcpl	0x00006b61
 470:	7461645f 	strbtvc	r6, [r1], #-1119	; 0xfffffba1
 474:	74735f61 	ldrbtvc	r5, [r3], #-3937	; 0xfffff09f
 478:	5f747261 	svcpl	0x00747261
 47c:	7773005f 			; <UNDEFINED> instruction: 0x7773005f
 480:	5f706565 	svcpl	0x00706565
 484:	65657266 	strbvs	r7, [r5, #-614]!	; 0xfffffd9a
 488:	72617700 	rsbvc	r7, r1, #0, 14
 48c:	6f6e5f6e 	svcvs	0x006e5f6e
 490:	6174735f 	cmnvs	r4, pc, asr r3
 494:	725f7472 	subsvc	r7, pc, #1912602624	; 0x72000000
 498:	705f6665 	subsvc	r6, pc, r5, ror #12
 49c:	7a697300 	bvc	1a5d0a4 <__bss_end__+0x1a521cc>
 4a0:	00745f65 	rsbseq	r5, r4, r5, ror #30
 4a4:	696c2f2e 	stmdbvs	ip!, {r1, r2, r3, r5, r8, r9, sl, fp, sp}^
 4a8:	6d2f6362 	stcvs	3, cr6, [pc, #-392]!	; 328 <__code_start__-0x7cd8>
 4ac:	65736d65 	ldrbvs	r6, [r3, #-3429]!	; 0xfffff29b
 4b0:	00632e74 	rsbeq	r2, r3, r4, ror lr
 4b4:	20554e47 	subscs	r4, r5, r7, asr #28
 4b8:	20393943 	eorscs	r3, r9, r3, asr #18
 4bc:	2e322e39 	mrccs	14, 1, r2, cr2, cr9, {1}
 4c0:	30322031 	eorscc	r2, r2, r1, lsr r0
 4c4:	30313931 	eorscc	r3, r1, r1, lsr r9
 4c8:	28203532 	stmdacs	r0!, {r1, r4, r5, r8, sl, ip, sp}
 4cc:	656c6572 	strbvs	r6, [ip, #-1394]!	; 0xfffffa8e
 4d0:	29657361 	stmdbcs	r5!, {r0, r5, r6, r8, r9, ip, sp, lr}^
 4d4:	52415b20 	subpl	r5, r1, #32, 22	; 0x8000
 4d8:	72612f4d 	rsbvc	r2, r1, #308	; 0x134
 4dc:	2d392d6d 	ldccs	13, cr2, [r9, #-436]!	; 0xfffffe4c
 4e0:	6e617262 	cdpvs	2, 6, cr7, cr1, cr2, {3}
 4e4:	72206863 	eorvc	r6, r0, #6488064	; 0x630000
 4e8:	73697665 	cmnvc	r9, #105906176	; 0x6500000
 4ec:	206e6f69 	rsbcs	r6, lr, r9, ror #30
 4f0:	35373732 	ldrcc	r3, [r7, #-1842]!	; 0xfffff8ce
 4f4:	205d3939 	subscs	r3, sp, r9, lsr r9
 4f8:	70636d2d 	rsbvc	r6, r3, sp, lsr #26
 4fc:	72613d75 	rsbvc	r3, r1, #7488	; 0x1d40
 500:	3731316d 	ldrcc	r3, [r1, -sp, ror #2]!
 504:	667a6a36 			; <UNDEFINED> instruction: 0x667a6a36
 508:	2d20732d 	stccs	3, cr7, [r0, #-180]!	; 0xffffff4c
 50c:	6e75746d 	cdpvs	4, 7, cr7, cr5, cr13, {3}
 510:	72613d65 	rsbvc	r3, r1, #6464	; 0x1940
 514:	3731316d 	ldrcc	r3, [r1, -sp, ror #2]!
 518:	667a6a36 			; <UNDEFINED> instruction: 0x667a6a36
 51c:	2d20732d 	stccs	3, cr7, [r0, #-180]!	; 0xffffff4c
 520:	6f6c666d 	svcvs	0x006c666d
 524:	612d7461 			; <UNDEFINED> instruction: 0x612d7461
 528:	733d6962 	teqvc	sp, #1605632	; 0x188000
 52c:	2074666f 	rsbscs	r6, r4, pc, ror #12
 530:	72616d2d 	rsbvc	r6, r1, #2880	; 0xb40
 534:	6d2d206d 	stcvs	0, cr2, [sp, #-436]!	; 0xfffffe4c
 538:	68637261 	stmdavs	r3!, {r0, r5, r6, r9, ip, sp, lr}^
 53c:	6d72613d 	ldfvse	f6, [r2, #-244]!	; 0xffffff0c
 540:	7a6b3676 	bvc	1acdf20 <__bss_end__+0x1ac3048>
 544:	67672d20 	strbvs	r2, [r7, -r0, lsr #26]!
 548:	2d206264 	sfmcs	f6, 4, [r0, #-400]!	; 0xfffffe70
 54c:	7361664f 	cmnvc	r1, #82837504	; 0x4f00000
 550:	732d2074 			; <UNDEFINED> instruction: 0x732d2074
 554:	673d6474 			; <UNDEFINED> instruction: 0x673d6474
 558:	3939756e 	ldmdbcc	r9!, {r1, r2, r3, r5, r6, r8, sl, ip, sp, lr}
 55c:	66662d20 	strbtvs	r2, [r6], -r0, lsr #26
 560:	73656572 	cmnvc	r5, #478150656	; 0x1c800000
 564:	646e6174 	strbtvs	r6, [lr], #-372	; 0xfffffe8c
 568:	00676e69 	rsbeq	r6, r7, r9, ror #28
 56c:	6573552f 	ldrbvs	r5, [r3, #-1327]!	; 0xfffffad1
 570:	6d2f7372 	stcvs	3, cr7, [pc, #-456]!	; 3b0 <__code_start__-0x7c50>
 574:	73656c69 	cmnvc	r5, #26880	; 0x6900
 578:	756f532f 	strbvc	r5, [pc, #-815]!	; 251 <__code_start__-0x7daf>
 57c:	2f656372 	svccs	0x00656372
 580:	34327363 	ldrtcc	r7, [r2], #-867	; 0xfffffc9d
 584:	2f786c30 	svccs	0x00786c30
 588:	7062696c 	rsbvc	r6, r2, ip, ror #18
 58c:	72610069 	rsbvc	r0, r1, #105, 0	; 0x69
 590:	76007367 	strvc	r7, [r0], -r7, ror #6
 594:	72705f61 	rsbsvc	r5, r0, #388	; 0x184
 598:	6b746e69 	blvs	1d1bf44 <__bss_end__+0x1d1106c>
 59c:	675f5f00 	ldrbvs	r5, [pc, -r0, lsl #30]
 5a0:	5f63756e 	svcpl	0x0063756e
 5a4:	6c5f6176 	ldfvse	f6, [pc], {118}	; 0x76
 5a8:	00747369 	rsbseq	r7, r4, r9, ror #6
 5ac:	70615f5f 	rsbvc	r5, r1, pc, asr pc
 5b0:	6c2f2e00 	stcvs	14, cr2, [pc], #-0	; 5b8 <__code_start__-0x7a48>
 5b4:	2f636269 	svccs	0x00636269
 5b8:	6e697270 	mcrvs	2, 3, r7, cr9, cr0, {3}
 5bc:	632e6b74 			; <UNDEFINED> instruction: 0x632e6b74
 5c0:	765f5f00 	ldrbvc	r5, [pc], -r0, lsl #30
 5c4:	696c5f61 	stmdbvs	ip!, {r0, r5, r6, r8, r9, sl, fp, ip, lr}^
 5c8:	69007473 	stmdbvs	r0, {r0, r1, r4, r5, r6, sl, ip, sp, lr}
 5cc:	7265746e 	rsbvc	r7, r5, #1845493760	; 0x6e000000
 5d0:	5f6c616e 	svcpl	0x006c616e
 5d4:	6b747570 	blvs	1d1db9c <__bss_end__+0x1d12cc4>
 5d8:	6c2f2e00 	stcvs	14, cr2, [pc], #-0	; 5e0 <__code_start__-0x7a20>
 5dc:	2f636269 	svccs	0x00636269
 5e0:	6b747570 	blvs	1d1dba8 <__bss_end__+0x1d12cd0>
 5e4:	6900632e 	stmdbvs	r0, {r1, r2, r3, r5, r8, r9, sp, lr}
 5e8:	67696473 			; <UNDEFINED> instruction: 0x67696473
 5ec:	75007469 	strvc	r7, [r0, #-1129]	; 0xfffffb97
 5f0:	36746e69 	ldrbtcc	r6, [r4], -r9, ror #28
 5f4:	00745f34 	rsbseq	r5, r4, r4, lsr pc
 5f8:	696c2f2e 	stmdbvs	ip!, {r1, r2, r3, r5, r8, r9, sl, fp, sp}^
 5fc:	762f6362 	strtvc	r6, [pc], -r2, ror #6
 600:	72702d61 	rsbsvc	r2, r0, #6208	; 0x1840
 604:	6b746e69 	blvs	1d1bfb0 <__bss_end__+0x1d110d8>
 608:	5f00632e 	svcpl	0x0000632e
 60c:	646f635f 	strbtvs	r6, [pc], #-863	; 614 <__code_start__-0x79ec>
 610:	74735f65 	ldrbtvc	r5, [r3], #-3941	; 0xfffff09b
 614:	5f747261 	svcpl	0x00747261
 618:	6977005f 	ldmdbvs	r7!, {r0, r1, r2, r3, r4, r6}^
 61c:	00687464 	rsbeq	r7, r8, r4, ror #8
 620:	63747570 	cmnvs	r4, #112, 10	; 0x1c000000
 624:	0070665f 	rsbseq	r6, r0, pc, asr r6
 628:	65685f5f 	strbvs	r5, [r8, #-3935]!	; 0xfffff0a1
 62c:	735f7061 	cmpvc	pc, #97, 0	; 0x61
 630:	74726174 	ldrbtvc	r6, [r2], #-372	; 0xfffffe8c
 634:	72005f5f 	andvc	r5, r0, #380	; 0x17c
 638:	735f6970 	cmpvc	pc, #112, 18	; 0x1c0000
 63c:	6f5f7465 	svcvs	0x005f7465
 640:	75707475 	ldrbvc	r7, [r0, #-1141]!	; 0xfffffb8b
 644:	6d660074 	stclvs	0, cr0, [r6, #-464]!	; 0xfffffe30
 648:	74735f74 	ldrbtvc	r5, [r3], #-3956	; 0xfffff08c
 64c:	00747261 	rsbseq	r7, r4, r1, ror #4
 650:	63727473 	cmnvs	r2, #1929379840	; 0x73000000
 654:	73007461 	movwvc	r7, #1121	; 0x461
 658:	70637274 	rsbvc	r7, r3, r4, ror r2
 65c:	656e0079 	strbvs	r0, [lr, #-121]!	; 0xffffff87
 660:	00705f67 	rsbseq	r5, r0, r7, ror #30
 664:	6f635f5f 	svcvs	0x00635f5f
 668:	655f6564 	ldrbvs	r6, [pc, #-1380]	; 10c <__code_start__-0x7ef4>
 66c:	5f5f646e 	svcpl	0x005f646e
 670:	696d6500 	stmdbvs	sp!, {r8, sl, sp, lr}^
 674:	65720074 	ldrbvs	r0, [r2, #-116]!	; 0xffffff8c
 678:	73726576 	cmnvc	r2, #494927872	; 0x1d800000
 67c:	74730065 	ldrbtvc	r0, [r3], #-101	; 0xffffff9b
 680:	706d6372 	rsbvc	r6, sp, r2, ror r3
 684:	74757000 	ldrbtvc	r7, [r5], #-0
 688:	70665f73 	rsbvc	r5, r6, r3, ror pc
 68c:	705f5f00 	subsvc	r5, pc, r0, lsl #30
 690:	5f676f72 	svcpl	0x00676f72
 694:	5f646e65 	svcpl	0x00646e65
 698:	756e005f 	strbvc	r0, [lr, #-95]!	; 0xffffffa1
 69c:	7300316d 	movwvc	r3, #365	; 0x16d
 6a0:	636e7274 	cmnvs	lr, #116, 4	; 0x40000007
 6a4:	7300706d 	movwvc	r7, #109	; 0x6d
 6a8:	656e6769 	strbvs	r6, [lr, #-1897]!	; 0xfffff897
 6ac:	00705f64 	rsbseq	r5, r0, r4, ror #30
 6b0:	5f697072 	svcpl	0x00697072
 6b4:	6f626572 	svcvs	0x00626572
 6b8:	6400746f 	strvs	r7, [r0], #-1135	; 0xfffffb91
 6bc:	79616c65 	stmdbvc	r1!, {r0, r2, r5, r6, sl, fp, sp, lr}^
 6c0:	00736d5f 	rsbseq	r6, r3, pc, asr sp
 6c4:	74732f2e 	ldrbtvc	r2, [r3], #-3886	; 0xfffff0d2
 6c8:	2d666661 	stclcs	6, cr6, [r6, #-388]!	; 0xfffffe7c
 6cc:	2f637273 	svccs	0x00637273
 6d0:	61656c63 	cmnvs	r5, r3, ror #24
 6d4:	65722d6e 	ldrbvs	r2, [r2, #-3438]!	; 0xfffff292
 6d8:	746f6f62 	strbtvc	r6, [pc], #-3938	; 6e0 <__code_start__-0x7920>
 6dc:	7500632e 	strvc	r6, [r0, #-814]	; 0xfffffcd2
 6e0:	5f747261 	svcpl	0x00747261
 6e4:	73756c66 	cmnvc	r5, #26112	; 0x6600
 6e8:	78745f68 	ldmdavc	r4!, {r3, r5, r6, r8, r9, sl, fp, ip, lr}^
 6ec:	73635f00 	cmnvc	r3, #0, 30
 6f0:	74726174 	ldrbtvc	r6, [r2], #-372	; 0xfffffe8c
 6f4:	73736200 	cmnvc	r3, #0, 4
 6f8:	646e655f 	strbtvs	r6, [lr], #-1375	; 0xfffffaa1
 6fc:	72617500 	rsbvc	r7, r1, #0, 10
 700:	6e695f74 	mcrvs	15, 3, r5, cr9, cr4, {3}
 704:	63007469 	movwvs	r7, #1129	; 0x469
 708:	6f747375 	svcvs	0x00747375
 70c:	6f6c5f6d 	svcvs	0x006c5f6d
 710:	72656461 	rsbvc	r6, r5, #1627389952	; 0x61000000
 714:	732f2e00 			; <UNDEFINED> instruction: 0x732f2e00
 718:	66666174 			; <UNDEFINED> instruction: 0x66666174
 71c:	6372732d 	cmnvs	r2, #-1275068416	; 0xb4000000
 720:	7473632f 	ldrbtvc	r6, [r3], #-815	; 0xfffffcd1
 724:	2e747261 	cdpcs	2, 7, cr7, cr4, cr1, {3}
 728:	2f2e0063 	svccs	0x002e0063
 72c:	66617473 			; <UNDEFINED> instruction: 0x66617473
 730:	72732d66 	rsbsvc	r2, r3, #6528	; 0x1980
 734:	75632f63 	strbvc	r2, [r3, #-3939]!	; 0xfffff09d
 738:	6d6f7473 	cfstrdvs	mvd7, [pc, #-460]!	; 574 <__code_start__-0x7a8c>
 73c:	616f6c2d 	cmnvs	pc, sp, lsr #24
 740:	2e726564 	cdpcs	5, 7, cr6, cr2, cr4, {3}
 744:	65720063 	ldrbvs	r0, [r2, #-99]!	; 0xffffff9d
 748:	746f6f62 	strbtvc	r6, [pc], #-3938	; 750 <__code_start__-0x78b0>
 74c:	6c61635f 	stclvs	3, cr6, [r1], #-380	; 0xfffffe84
 750:	74756f6c 	ldrbtvc	r6, [r5], #-3948	; 0xfffff094
 754:	5f4d5000 	svcpl	0x004d5000
 758:	474f4457 	smlsldmi	r4, pc, r7, r4	; <UNPREDICTABLE>
 75c:	54555000 	ldrbpl	r5, [r5], #-0
 760:	73003233 	movwvc	r3, #563	; 0x233
 764:	755f7465 	ldrbvc	r7, [pc, #-1125]	; 307 <__code_start__-0x7cf9>
 768:	5f726573 	svcpl	0x00726573
 76c:	6576656c 	ldrbvs	r6, [r6, #-1388]!	; 0xfffffa94
 770:	2f2e006c 	svccs	0x002e006c
 774:	66617473 			; <UNDEFINED> instruction: 0x66617473
 778:	72732d66 	rsbsvc	r2, r3, #6528	; 0x1980
 77c:	65722f63 	ldrbvs	r2, [r2, #-3939]!	; 0xfffff09d
 780:	746f6f62 	strbtvc	r6, [pc], #-3938	; 788 <__code_start__-0x7878>
 784:	5000632e 	andpl	r6, r0, lr, lsr #6
 788:	41505f4d 	cmpmi	r0, sp, asr #30
 78c:	4f575353 	svcmi	0x00575353
 790:	61004452 	tstvs	r0, r2, asr r4
 794:	73755f74 	cmnvc	r5, #116, 30	; 0x1d0
 798:	6c5f7265 	lfmvs	f7, 2, [pc], {101}	; 0x65
 79c:	6c657665 	stclvs	6, cr7, [r5], #-404	; 0xfffffe6c
 7a0:	5f4d5000 	svcpl	0x004d5000
 7a4:	43545352 	cmpmi	r4, #1207959553	; 0x48000001
 7a8:	4352575f 	cmpmi	r2, #24903680	; 0x17c0000
 7ac:	465f4746 	ldrbmi	r4, [pc], -r6, asr #14
 7b0:	5f4c4c55 	svcpl	0x004c4c55
 7b4:	45534552 	ldrbmi	r4, [r3, #-1362]	; 0xfffffaae
 7b8:	4d500054 	ldclmi	0, cr0, [r0, #-336]	; 0xfffffeb0
 7bc:	5453525f 	ldrbpl	r5, [r3], #-607	; 0xfffffda1
 7c0:	70630043 	rsbvc	r0, r3, r3, asr #32
 7c4:	64007273 	strvs	r7, [r0], #-627	; 0xfffffd8d
 7c8:	625f7665 	subsvs	r7, pc, #105906176	; 0x6500000
 7cc:	69727261 	ldmdbvs	r2!, {r0, r5, r6, r9, ip, sp, lr}^
 7d0:	64007265 	strvs	r7, [r0], #-613	; 0xfffffd9b
 7d4:	79616c65 	stmdbvc	r1!, {r0, r2, r5, r6, sl, fp, sp, lr}^
 7d8:	6365735f 	cmnvs	r5, #2080374785	; 0x7c000001
 7dc:	732f2e00 			; <UNDEFINED> instruction: 0x732f2e00
 7e0:	66666174 			; <UNDEFINED> instruction: 0x66666174
 7e4:	6372732d 	cmnvs	r2, #-1275068416	; 0xb4000000
 7e8:	6d69742f 	cfstrdvs	mvd7, [r9, #-188]!	; 0xffffff44
 7ec:	632e7265 			; <UNDEFINED> instruction: 0x632e7265
 7f0:	54454700 	strbpl	r4, [r5], #-1792	; 0xfffff900
 7f4:	74003233 	strvc	r3, [r0], #-563	; 0xfffffdcd
 7f8:	72656d69 	rsbvc	r6, r5, #6720	; 0x1a40
 7fc:	7465675f 	strbtvc	r6, [r5], #-1887	; 0xfffff8a1
 800:	6573755f 	ldrbvs	r7, [r3, #-1375]!	; 0xfffffaa1
 804:	65640063 	strbvs	r0, [r4, #-99]!	; 0xffffff9d
 808:	5f79616c 	svcpl	0x0079616c
 80c:	74007375 	strvc	r7, [r0], #-885	; 0xfffffc8b
 810:	72656d69 	rsbvc	r6, r5, #6720	; 0x1a40
 814:	7465675f 	strbtvc	r6, [r5], #-1887	; 0xfffff8a1
 818:	6573755f 	ldrbvs	r7, [r3, #-1375]!	; 0xfffffaa1
 81c:	61725f63 	cmnvs	r2, r3, ror #30
 820:	75700077 	ldrbvc	r0, [r0, #-119]!	; 0xffffff89
 824:	00323374 	eorseq	r3, r2, r4, ror r3
 828:	64756162 	ldrbtvs	r6, [r5], #-354	; 0xfffffe9e
 82c:	6c61765f 	stclvs	6, cr7, [r1], #-380	; 0xfffffe84
 830:	61747300 	cmnvs	r4, r0, lsl #6
 834:	61750074 	cmnvs	r5, r4, ror r0
 838:	635f7472 	cmpvs	pc, #1912602624	; 0x72000000
 83c:	675f6e61 	ldrbvs	r6, [pc, -r1, ror #28]
 840:	00637465 	rsbeq	r7, r3, r5, ror #8
 844:	4f495047 	svcmi	0x00495047
 848:	4e55465f 	mrcmi	6, 2, r4, cr5, cr15, {2}
 84c:	554f5f43 	strbpl	r5, [pc, #-3907]	; fffff911 <__bss_end__+0xffff4a39>
 850:	54555054 	ldrbpl	r5, [r5], #-84	; 0xffffffac
 854:	78756100 	ldmdavc	r5!, {r8, sp, lr}^
 858:	7265705f 	rsbvc	r7, r5, #95, 0	; 0x5f
 85c:	73687069 	cmnvc	r8, #105, 0	; 0x69
 860:	72617500 	rsbvc	r7, r1, #0, 10
 864:	00632e74 	rsbeq	r2, r3, r4, ror lr
 868:	74726175 	ldrbtvc	r6, [r2], #-373	; 0xfffffe8b
 86c:	6e61635f 	mcrvs	3, 3, r6, cr1, cr15, {2}
 870:	7475705f 	ldrbtvc	r7, [r5], #-95	; 0xffffffa1
 874:	61750063 	cmnvs	r5, r3, rrx
 878:	745f7472 	ldrbvc	r7, [pc], #-1138	; 880 <__code_start__-0x7780>
 87c:	73695f78 	cmnvc	r9, #120, 30	; 0x1e0
 880:	706d655f 	rsbvc	r6, sp, pc, asr r5
 884:	47007974 	smlsdxmi	r0, r4, r9, r7
 888:	5f4f4950 	svcpl	0x004f4950
 88c:	434e5546 	movtmi	r5, #58694	; 0xe546
 890:	544c415f 	strbpl	r4, [ip], #-351	; 0xfffffea1
 894:	50470030 	subpl	r0, r7, r0, lsr r0
 898:	465f4f49 	ldrbmi	r4, [pc], -r9, asr #30
 89c:	5f434e55 	svcpl	0x00434e55
 8a0:	31544c41 	cmpcc	r4, r1, asr #24
 8a4:	49504700 	ldmdbmi	r0, {r8, r9, sl, lr}^
 8a8:	55465f4f 	strbpl	r5, [r6, #-3919]	; 0xfffff0b1
 8ac:	415f434e 	cmpmi	pc, lr, asr #6
 8b0:	0032544c 	eorseq	r5, r2, ip, asr #8
 8b4:	4f495047 	svcmi	0x00495047
 8b8:	4e55465f 	mrcmi	6, 2, r4, cr5, cr15, {2}
 8bc:	4c415f43 	mcrrmi	15, 4, r5, r1, cr3
 8c0:	47003354 	smlsdmi	r0, r4, r3, r3
 8c4:	5f4f4950 	svcpl	0x004f4950
 8c8:	434e5546 	movtmi	r5, #58694	; 0xe546
 8cc:	544c415f 	strbpl	r4, [ip], #-351	; 0xfffffea1
 8d0:	682f0035 	stmdavs	pc!, {r0, r2, r4, r5}	; <UNPREDICTABLE>
 8d4:	2f656d6f 	svccs	0x00656d6f
 8d8:	6c676e65 	stclvs	14, cr6, [r7], #-404	; 0xfffffe6c
 8dc:	632f7265 			; <UNDEFINED> instruction: 0x632f7265
 8e0:	7373616c 	cmnvc	r3, #27
 8e4:	3273632f 	rsbscc	r6, r3, #-1140850688	; 0xbc000000
 8e8:	786c3034 	stmdavc	ip!, {r2, r4, r5, ip, sp}^
 8ec:	7332322d 	teqvc	r2, #-805306366	; 0xd0000002
 8f0:	6c2f7270 	sfmvs	f7, 4, [pc], #-448	; 738 <__code_start__-0x78c8>
 8f4:	69706269 	ldmdbvs	r0!, {r0, r3, r5, r6, r9, sp, lr}^
 8f8:	6174732f 	cmnvs	r4, pc, lsr #6
 8fc:	702d6666 	eorvc	r6, sp, r6, ror #12
 900:	61766972 	cmnvs	r6, r2, ror r9
 904:	62006574 	andvs	r6, r0, #116, 10	; 0x1d000000
 908:	00647561 	rsbeq	r7, r4, r1, ror #10
 90c:	5f787561 	svcpl	0x00787561
 910:	62616e65 	rsbvs	r6, r1, #1616	; 0x650
 914:	0073656c 	rsbseq	r6, r3, ip, ror #10
 918:	74726175 	ldrbtvc	r6, [r2], #-373	; 0xfffffe8b
 91c:	7465675f 	strbtvc	r6, [r5], #-1887	; 0xfffff8a1
 920:	4e470063 	cdpmi	0, 4, cr0, cr7, cr3, {3}
 924:	39432055 	stmdbcc	r3, {r0, r2, r4, r6, sp}^
 928:	30312039 	eorscc	r2, r1, r9, lsr r0
 92c:	312e332e 			; <UNDEFINED> instruction: 0x312e332e
 930:	32303220 	eorscc	r3, r0, #32, 4
 934:	32383031 	eorscc	r3, r8, #49, 0	; 0x31
 938:	72282034 	eorvc	r2, r8, #52, 0	; 0x34
 93c:	61656c65 	cmnvs	r5, r5, ror #24
 940:	20296573 	eorcs	r6, r9, r3, ror r5
 944:	70636d2d 	rsbvc	r6, r3, sp, lsr #26
 948:	72613d75 	rsbvc	r3, r1, #7488	; 0x1d40
 94c:	3731316d 	ldrcc	r3, [r1, -sp, ror #2]!
 950:	667a6a36 			; <UNDEFINED> instruction: 0x667a6a36
 954:	2d20732d 	stccs	3, cr7, [r0, #-180]!	; 0xffffff4c
 958:	6e75746d 	cdpvs	4, 7, cr7, cr5, cr13, {3}
 95c:	72613d65 	rsbvc	r3, r1, #6464	; 0x1940
 960:	3731316d 	ldrcc	r3, [r1, -sp, ror #2]!
 964:	667a6a36 			; <UNDEFINED> instruction: 0x667a6a36
 968:	2d20732d 	stccs	3, cr7, [r0, #-180]!	; 0xffffff4c
 96c:	6f6c666d 	svcvs	0x006c666d
 970:	612d7461 			; <UNDEFINED> instruction: 0x612d7461
 974:	733d6962 	teqvc	sp, #1605632	; 0x188000
 978:	2074666f 	rsbscs	r6, r4, pc, ror #12
 97c:	72616d2d 	rsbvc	r6, r1, #2880	; 0xb40
 980:	6d2d206d 	stcvs	0, cr2, [sp, #-436]!	; 0xfffffe4c
 984:	68637261 	stmdavs	r3!, {r0, r5, r6, r9, ip, sp, lr}^
 988:	6d72613d 	ldfvse	f6, [r2, #-244]!	; 0xffffff0c
 98c:	7a6b3676 	bvc	1ace36c <__bss_end__+0x1ac3494>
 990:	67672d20 	strbvs	r2, [r7, -r0, lsr #26]!
 994:	2d206264 	sfmcs	f6, 4, [r0, #-400]!	; 0xfffffe70
 998:	2d20674f 	stccs	7, cr6, [r0, #-316]!	; 0xfffffec4
 99c:	3d647473 	cfstrdcc	mvd7, [r4, #-460]!	; 0xfffffe34
 9a0:	39756e67 	ldmdbcc	r5!, {r0, r1, r2, r5, r6, r9, sl, fp, sp, lr}^
 9a4:	662d2039 			; <UNDEFINED> instruction: 0x662d2039
 9a8:	65657266 	strbvs	r7, [r5, #-614]!	; 0xfffffd9a
 9ac:	6e617473 	mcrvs	4, 3, r7, cr1, cr3, {3}
 9b0:	676e6964 	strbvs	r6, [lr, -r4, ror #18]!
 9b4:	746e6300 	strbtvc	r6, [lr], #-768	; 0xfffffd00
 9b8:	6175006c 	cmnvs	r5, ip, rrx
 9bc:	645f7472 	ldrbvs	r7, [pc], #-1138	; 9c4 <__code_start__-0x763c>
 9c0:	62617369 	rsbvs	r7, r1, #-1543503871	; 0xa4000001
 9c4:	7500656c 	strvc	r6, [r0, #-1388]	; 0xfffffa94
 9c8:	5f747261 	svcpl	0x00747261
 9cc:	5f736168 	svcpl	0x00736168
 9d0:	61746164 	cmnvs	r4, r4, ror #2
 9d4:	49504700 	ldmdbmi	r0, {r8, r9, sl, lr}^
 9d8:	55465f4f 	strbpl	r5, [r6, #-3919]	; 0xfffff0b1
 9dc:	415f434e 	cmpmi	pc, lr, asr #6
 9e0:	0034544c 	eorseq	r5, r4, ip, asr #8
 9e4:	695f726f 	ldmdbvs	pc, {r0, r1, r2, r3, r5, r6, r9, ip, sp, lr}^	; <UNPREDICTABLE>
 9e8:	0032336e 	eorseq	r3, r2, lr, ror #6
 9ec:	61726373 	cmnvs	r2, r3, ror r3
 9f0:	00686374 	rsbeq	r6, r8, r4, ror r3
 9f4:	74726175 	ldrbtvc	r6, [r2], #-373	; 0xfffffe8b
 9f8:	646e6100 	strbtvs	r6, [lr], #-256	; 0xffffff00
 9fc:	336e695f 	cmncc	lr, #1556480	; 0x17c000
 a00:	61750032 	cmnvs	r5, r2, lsr r0
 a04:	705f7472 	subsvc	r7, pc, r2, ror r4	; <UNPREDICTABLE>
 a08:	00637475 	rsbeq	r7, r3, r5, ror r4
 a0c:	4f495047 	svcmi	0x00495047
 a10:	4e55465f 	mrcmi	6, 2, r4, cr5, cr15, {2}
 a14:	4e495f43 	cdpmi	15, 4, cr5, cr9, cr3, {2}
 a18:	00545550 	subseq	r5, r4, r0, asr r5
 a1c:	6f697067 	svcvs	0x00697067
 a20:	7465735f 	strbtvc	r7, [r5], #-863	; 0xfffffca1
 a24:	6e75665f 	mrcvs	6, 3, r6, cr5, cr15, {2}
 a28:	6f697463 	svcvs	0x00697463
 a2c:	6567006e 	strbvs	r0, [r7, #-110]!	; 0xffffff92
 a30:	00323374 	eorseq	r3, r2, r4, ror r3
 a34:	6c616d6b 	stclvs	13, cr6, [r1], #-428	; 0xfffffe54
 a38:	5f636f6c 	svcpl	0x00636f6c
 a3c:	70616568 	rsbvc	r6, r1, r8, ror #10
 a40:	6174735f 	cmnvs	r4, pc, asr r3
 a44:	6d007472 	cfstrsvs	mvf7, [r0, #-456]	; 0xfffffe38
 a48:	6e5f7861 	cdpvs	8, 5, cr7, cr15, cr1, {3}
 a4c:	65747962 	ldrbvs	r7, [r4, #-2402]!	; 0xfffff69e
 a50:	615f0073 	cmpvs	pc, r3, ror r0	; <UNPREDICTABLE>
 a54:	00726464 	rsbseq	r6, r2, r4, ror #8
 a58:	70616568 	rsbvc	r6, r1, r8, ror #10
 a5c:	78616d5f 	stmdavc	r1!, {r0, r1, r2, r3, r4, r6, r8, sl, fp, sp, lr}^
 a60:	72666b00 	rsbvc	r6, r6, #0, 22
 a64:	615f6565 	cmpvs	pc, r5, ror #10
 a68:	72006c6c 	andvc	r6, r0, #108, 24	; 0x6c00
 a6c:	646e756f 	strbtvs	r7, [lr], #-1391	; 0xfffffa91
 a70:	6b007075 	blvs	1cc4c <__bss_end__+0x11d74>
 a74:	65657266 	strbvs	r7, [r5, #-614]!	; 0xfffffd9a
 a78:	706f705f 	rsbvc	r7, pc, pc, asr r0	; <UNPREDICTABLE>
 a7c:	696c6100 	stmdbvs	ip!, {r8, sp, lr}^
 a80:	656d6e67 	strbvs	r6, [sp, #-3687]!	; 0xfffff199
 a84:	6d00746e 	cfstrsvs	mvf7, [r0, #-440]	; 0xfffffe48
 a88:	755f7861 	ldrbvc	r7, [pc, #-2145]	; 22f <__code_start__-0x7dd1>
 a8c:	4f003233 	svcmi	0x00003233
 a90:	424d656e 	submi	r6, sp, #461373440	; 0x1b800000
 a94:	616d6b00 	cmnvs	sp, r0, lsl #22
 a98:	636f6c6c 	cmnvs	pc, #108, 24	; 0x6c00
 a9c:	6165685f 	cmnvs	r5, pc, asr r8
 aa0:	6e655f70 	mcrvs	15, 3, r5, cr5, cr0, {3}
 aa4:	6d6b0064 	stclvs	0, cr0, [fp, #-400]!	; 0xfffffe70
 aa8:	6f6c6c61 	svcvs	0x006c6c61
 aac:	6f6e5f63 	svcvs	0x006e5f63
 ab0:	72657a74 	rsbvc	r7, r5, #116, 20	; 0x74000
 ab4:	7369006f 	cmnvc	r9, #111, 0	; 0x6f
 ab8:	776f705f 			; <UNDEFINED> instruction: 0x776f705f
 abc:	6d6b0032 	stclvs	0, cr0, [fp, #-200]!	; 0xffffff38
 ac0:	6f6c6c61 	svcvs	0x006c6c61
 ac4:	00632e63 	rsbeq	r2, r3, r3, ror #28
 ac8:	6c616d6b 	stclvs	13, cr6, [r1], #-428	; 0xfffffe54
 acc:	5f636f6c 	svcpl	0x00636f6c
 ad0:	74696e69 	strbtvc	r6, [r9], #-3689	; 0xfffff197
 ad4:	5f736900 	svcpl	0x00736900
 ad8:	67696c61 	strbvs	r6, [r9, -r1, ror #24]!
 adc:	0064656e 	rsbeq	r6, r4, lr, ror #10
 ae0:	6c616d6b 	stclvs	13, cr6, [r1], #-428	; 0xfffffe54
 ae4:	5f636f6c 	svcpl	0x00636f6c
 ae8:	70616568 	rsbvc	r6, r1, r8, ror #10
 aec:	7274705f 	rsbsvc	r7, r4, #95, 0	; 0x5f
 af0:	69707200 	ldmdbvs	r0!, {r9, ip, sp, lr}^
 af4:	7365725f 	cmnvc	r5, #-268435451	; 0xf0000005
 af8:	705f7465 	subsvc	r7, pc, r5, ror #8
 afc:	00637475 	rsbeq	r7, r3, r5, ror r4
 b00:	6c616d6b 	stclvs	13, cr6, [r1], #-428	; 0xfffffe54
 b04:	5f636f6c 	svcpl	0x00636f6c
 b08:	67696c61 	strbvs	r6, [r9, -r1, ror #24]!
 b0c:	0064656e 	rsbeq	r6, r4, lr, ror #10
 b10:	6f697067 	svcvs	0x00697067
 b14:	726c635f 	rsbvc	r6, ip, #2080374785	; 0x7c000001
 b18:	70670030 	rsbvc	r0, r7, r0, lsr r0
 b1c:	735f6f69 	cmpvc	pc, #420	; 0x1a4
 b20:	00307465 	eorseq	r7, r0, r5, ror #8
 b24:	6f697067 	svcvs	0x00697067
 b28:	6972775f 	ldmdbvs	r2!, {r0, r1, r2, r3, r4, r6, r8, r9, sl, ip, sp, lr}^
 b2c:	44006574 	strmi	r6, [r0], #-1396	; 0xfffffa8c
 b30:	565f5645 	ldrbpl	r5, [pc], -r5, asr #12
 b34:	32334c41 	eorscc	r4, r3, #16640	; 0x4100
 b38:	69706700 	ldmdbvs	r0!, {r8, r9, sl, sp, lr}^
 b3c:	65725f6f 	ldrbvs	r5, [r2, #-3951]!	; 0xfffff091
 b40:	2e006461 	cdpcs	4, 0, cr6, cr0, cr1, {3}
 b44:	6372732f 	cmnvs	r2, #-1140850688	; 0xbc000000
 b48:	6970672f 	ldmdbvs	r0!, {r0, r1, r2, r3, r5, r8, r9, sl, sp, lr}^
 b4c:	00632e6f 	rsbeq	r2, r3, pc, ror #28
 b50:	6f697067 	svcvs	0x00697067
 b54:	7465735f 	strbtvc	r7, [r5], #-863	; 0xfffffca1
 b58:	706e695f 	rsbvc	r6, lr, pc, asr r9
 b5c:	67007475 	smlsdxvs	r0, r5, r4, r7
 b60:	5f6f6970 	svcpl	0x006f6970
 b64:	5f746573 	svcpl	0x00746573
 b68:	0066666f 	rsbeq	r6, r6, pc, ror #12
 b6c:	6f697067 	svcvs	0x00697067
 b70:	7465735f 	strbtvc	r7, [r5], #-863	; 0xfffffca1
 b74:	74756f5f 	ldrbtvc	r6, [r5], #-3935	; 0xfffff0a1
 b78:	00747570 	rsbseq	r7, r4, r0, ror r5
 b7c:	6f697067 	svcvs	0x00697067
 b80:	6e75665f 	mrcvs	6, 3, r6, cr5, cr15, {2}
 b84:	00745f63 	rsbseq	r5, r4, r3, ror #30
 b88:	6f697067 	svcvs	0x00697067
 b8c:	76656c5f 			; <UNDEFINED> instruction: 0x76656c5f
 b90:	61620030 	cmnvs	r2, r0, lsr r0
 b94:	67006b6e 	strvs	r6, [r0, -lr, ror #22]
 b98:	5f6f6970 	svcpl	0x006f6970
 b9c:	5f746573 	svcpl	0x00746573
 ba0:	69006e6f 	stmdbvs	r0, {r0, r1, r2, r3, r5, r6, r9, sl, fp, sp, lr}
 ba4:	7265746e 	rsbvc	r7, r5, #1845493760	; 0x6e000000
 ba8:	5f6c616e 	svcpl	0x006c616e
 bac:	63747570 	cmnvs	r4, #112, 10	; 0x1c000000
 bb0:	00726168 	rsbseq	r6, r2, r8, ror #2
 bb4:	5f697072 	svcpl	0x00697072
 bb8:	5f746573 	svcpl	0x00746573
 bbc:	63747570 	cmnvs	r4, #112, 10	; 0x1c000000
 bc0:	6c2f2e00 	stcvs	14, cr2, [pc], #-0	; bc8 <__code_start__-0x7438>
 bc4:	2f636269 	svccs	0x00636269
 bc8:	63747570 	cmnvs	r4, #112, 10	; 0x1c000000
 bcc:	2e726168 	rpwcssz	f6, f2, #0.0
 bd0:	2f2e0063 	svccs	0x002e0063
 bd4:	6362696c 	cmnvs	r2, #108, 18	; 0x1b0000
 bd8:	7274732f 	rsbsvc	r7, r4, #-1140850688	; 0xbc000000
 bdc:	2e746163 	rpwcssz	f6, f4, f3
 be0:	65640063 	strbvs	r0, [r4, #-99]!	; 0xffffff9d
 be4:	2e007473 	mcrcs	4, 0, r7, cr0, cr3, {3}
 be8:	62696c2f 	rsbvs	r6, r9, #12032	; 0x2f00
 bec:	74732f63 	ldrbtvc	r2, [r3], #-3939	; 0xfffff09d
 bf0:	706d6372 	rsbvc	r6, sp, r2, ror r3
 bf4:	2e00632e 	cdpcs	3, 0, cr6, cr0, cr14, {1}
 bf8:	62696c2f 	rsbvs	r6, r9, #12032	; 0x2f00
 bfc:	74732f63 	ldrbtvc	r2, [r3], #-3939	; 0xfffff09d
 c00:	79706372 	ldmdbvc	r0!, {r1, r4, r5, r6, r8, r9, sp, lr}^
 c04:	2e00632e 	cdpcs	3, 0, cr6, cr0, cr14, {1}
 c08:	62696c2f 	rsbvs	r6, r9, #12032	; 0x2f00
 c0c:	74732f63 	ldrbtvc	r2, [r3], #-3939	; 0xfffff09d
 c10:	6d636e72 	stclvs	14, cr6, [r3, #-456]!	; 0xfffffe38
 c14:	00632e70 	rsbeq	r2, r3, r0, ror lr
 c18:	74732f2e 	ldrbtvc	r2, [r3], #-3886	; 0xfffff0d2
 c1c:	2d666661 	stclcs	6, cr6, [r6, #-388]!	; 0xfffffe7c
 c20:	2f637273 	svccs	0x00637273
 c24:	61666564 	cmnvs	r6, r4, ror #10
 c28:	2d746c75 	ldclcs	12, cr6, [r4, #-468]!	; 0xfffffe2c
 c2c:	6f626572 	svcvs	0x00626572
 c30:	632d746f 			; <UNDEFINED> instruction: 0x632d746f
 c34:	6f6c6c61 	svcvs	0x006c6c61
 c38:	632e7475 			; <UNDEFINED> instruction: 0x632e7475
	...

Disassembly of section .debug_frame:

00000000 <.debug_frame>:
   0:	0000000c 	andeq	r0, r0, ip
   4:	ffffffff 			; <UNDEFINED> instruction: 0xffffffff
   8:	7c020001 	stcvc	0, cr0, [r2], {1}
   c:	000d0c0e 	andeq	r0, sp, lr, lsl #24
  10:	0000000c 	andeq	r0, r0, ip
  14:	00000000 	andeq	r0, r0, r0
  18:	00008038 	andeq	r8, r0, r8, lsr r0
  1c:	00000008 	andeq	r0, r0, r8
  20:	0000001c 	andeq	r0, r0, ip, lsl r0
  24:	00000000 	andeq	r0, r0, r0
  28:	00008040 	andeq	r8, r0, r0, asr #32
  2c:	00000060 	andeq	r0, r0, r0, rrx
  30:	84080e42 	strhi	r0, [r8], #-3650	; 0xfffff1be
  34:	42018e02 	andmi	r8, r1, #2, 28
  38:	0e64180e 	cdpeq	8, 6, cr1, cr4, cr14, {0}
  3c:	00000008 	andeq	r0, r0, r8
  40:	0000001c 	andeq	r0, r0, ip, lsl r0
  44:	00000000 	andeq	r0, r0, r0
  48:	000080a0 	andeq	r8, r0, r0, lsr #1
  4c:	000000a4 	andeq	r0, r0, r4, lsr #1
  50:	84080e42 	strhi	r0, [r8], #-3650	; 0xfffff1be
  54:	42018e02 	andmi	r8, r1, #2, 28
  58:	0a64100e 	beq	1904098 <__bss_end__+0x18f91c0>
  5c:	0b42080e 	bleq	108209c <__bss_end__+0x10771c4>
  60:	0000000c 	andeq	r0, r0, ip
  64:	ffffffff 			; <UNDEFINED> instruction: 0xffffffff
  68:	7c020001 	stcvc	0, cr0, [r2], {1}
  6c:	000d0c0e 	andeq	r0, sp, lr, lsl #24
  70:	0000000c 	andeq	r0, r0, ip
  74:	00000060 	andeq	r0, r0, r0, rrx
  78:	00008144 	andeq	r8, r0, r4, asr #2
  7c:	00000010 	andeq	r0, r0, r0, lsl r0
  80:	0000000c 	andeq	r0, r0, ip
  84:	00000060 	andeq	r0, r0, r0, rrx
  88:	00008154 	andeq	r8, r0, r4, asr r1
  8c:	00000010 	andeq	r0, r0, r0, lsl r0
  90:	00000020 	andeq	r0, r0, r0, lsr #32
  94:	00000060 	andeq	r0, r0, r0, rrx
  98:	00008164 	andeq	r8, r0, r4, ror #2
  9c:	000000a4 	andeq	r0, r0, r4, lsr #1
  a0:	840c0e42 	strhi	r0, [ip], #-3650	; 0xfffff1be
  a4:	8e028503 	cfsh32hi	mvfx8, mvfx2, #3
  a8:	180e4201 	stmdane	lr, {r0, r9, lr}
  ac:	0c0e0a5e 			; <UNDEFINED> instruction: 0x0c0e0a5e
  b0:	00000b42 	andeq	r0, r0, r2, asr #22
  b4:	0000000c 	andeq	r0, r0, ip
  b8:	00000060 	andeq	r0, r0, r0, rrx
  bc:	00008208 	andeq	r8, r0, r8, lsl #4
  c0:	00000008 	andeq	r0, r0, r8
  c4:	00000014 	andeq	r0, r0, r4, lsl r0
  c8:	00000060 	andeq	r0, r0, r0, rrx
  cc:	00008210 	andeq	r8, r0, r0, lsl r2
  d0:	00000018 	andeq	r0, r0, r8, lsl r0
  d4:	84080e42 	strhi	r0, [r8], #-3650	; 0xfffff1be
  d8:	00018e02 	andeq	r8, r1, r2, lsl #28
  dc:	00000018 	andeq	r0, r0, r8, lsl r0
  e0:	00000060 	andeq	r0, r0, r0, rrx
  e4:	00008228 	andeq	r8, r0, r8, lsr #4
  e8:	00000030 	andeq	r0, r0, r0, lsr r0
  ec:	84100e42 	ldrhi	r0, [r0], #-3650	; 0xfffff1be
  f0:	86038504 	strhi	r8, [r3], -r4, lsl #10
  f4:	00018e02 	andeq	r8, r1, r2, lsl #28
  f8:	00000018 	andeq	r0, r0, r8, lsl r0
  fc:	00000060 	andeq	r0, r0, r0, rrx
 100:	00008258 	andeq	r8, r0, r8, asr r2
 104:	00000058 	andeq	r0, r0, r8, asr r0
 108:	84100e42 	ldrhi	r0, [r0], #-3650	; 0xfffff1be
 10c:	86038504 	strhi	r8, [r3], -r4, lsl #10
 110:	00018e02 	andeq	r8, r1, r2, lsl #28
 114:	00000024 	andeq	r0, r0, r4, lsr #32
 118:	00000060 	andeq	r0, r0, r0, rrx
 11c:	000082b0 			; <UNDEFINED> instruction: 0x000082b0
 120:	000000ec 	andeq	r0, r0, ip, ror #1
 124:	84180e42 	ldrhi	r0, [r8], #-3650	; 0xfffff1be
 128:	86058506 	strhi	r8, [r5], -r6, lsl #10
 12c:	88038704 	stmdahi	r3, {r2, r8, r9, sl, pc}
 130:	42018e02 	andmi	r8, r1, #2, 28
 134:	0a7c300e 	beq	1f0c174 <__bss_end__+0x1f0129c>
 138:	0b42180e 	bleq	1086178 <__bss_end__+0x107b2a0>
 13c:	00000020 	andeq	r0, r0, r0, lsr #32
 140:	00000060 	andeq	r0, r0, r0, rrx
 144:	0000839c 	muleq	r0, ip, r3
 148:	00000094 	muleq	r0, r4, r0
 14c:	84100e42 	ldrhi	r0, [r0], #-3650	; 0xfffff1be
 150:	86038504 	strhi	r8, [r3], -r4, lsl #10
 154:	42018e02 	andmi	r8, r1, #2, 28
 158:	0e7e200e 	cdpeq	0, 7, cr2, cr14, cr14, {0}
 15c:	00000010 	andeq	r0, r0, r0, lsl r0
 160:	0000000c 	andeq	r0, r0, ip
 164:	ffffffff 			; <UNDEFINED> instruction: 0xffffffff
 168:	7c020001 	stcvc	0, cr0, [r2], {1}
 16c:	000d0c0e 	andeq	r0, sp, lr, lsl #24
 170:	00000014 	andeq	r0, r0, r4, lsl r0
 174:	00000160 	andeq	r0, r0, r0, ror #2
 178:	00008430 	andeq	r8, r0, r0, lsr r4
 17c:	000000bc 	strheq	r0, [r0], -ip
 180:	8e040e42 	cdphi	14, 0, cr0, cr4, cr2, {2}
 184:	00000001 	andeq	r0, r0, r1
 188:	00000014 	andeq	r0, r0, r4, lsl r0
 18c:	00000160 	andeq	r0, r0, r0, ror #2
 190:	000084ec 	andeq	r8, r0, ip, ror #9
 194:	00000054 	andeq	r0, r0, r4, asr r0
 198:	84080e42 	strhi	r0, [r8], #-3650	; 0xfffff1be
 19c:	00018e02 	andeq	r8, r1, r2, lsl #28
 1a0:	00000014 	andeq	r0, r0, r4, lsl r0
 1a4:	00000160 	andeq	r0, r0, r0, ror #2
 1a8:	00008540 	andeq	r8, r0, r0, asr #10
 1ac:	000000ac 	andeq	r0, r0, ip, lsr #1
 1b0:	84080e42 	strhi	r0, [r8], #-3650	; 0xfffff1be
 1b4:	00018e02 	andeq	r8, r1, r2, lsl #28
 1b8:	0000000c 	andeq	r0, r0, ip
 1bc:	ffffffff 			; <UNDEFINED> instruction: 0xffffffff
 1c0:	7c020001 	stcvc	0, cr0, [r2], {1}
 1c4:	000d0c0e 	andeq	r0, sp, lr, lsl #24
 1c8:	0000000c 	andeq	r0, r0, ip
 1cc:	000001b8 			; <UNDEFINED> instruction: 0x000001b8
 1d0:	000085ec 	andeq	r8, r0, ip, ror #11
 1d4:	0000003c 	andeq	r0, r0, ip, lsr r0
 1d8:	00000014 	andeq	r0, r0, r4, lsl r0
 1dc:	000001b8 			; <UNDEFINED> instruction: 0x000001b8
 1e0:	00008628 	andeq	r8, r0, r8, lsr #12
 1e4:	00000028 	andeq	r0, r0, r8, lsr #32
 1e8:	84080e42 	strhi	r0, [r8], #-3650	; 0xfffff1be
 1ec:	00018e02 	andeq	r8, r1, r2, lsl #28
 1f0:	00000024 	andeq	r0, r0, r4, lsr #32
 1f4:	000001b8 			; <UNDEFINED> instruction: 0x000001b8
 1f8:	00008650 	andeq	r8, r0, r0, asr r6
 1fc:	00000168 	andeq	r0, r0, r8, ror #2
 200:	84180e42 	ldrhi	r0, [r8], #-3650	; 0xfffff1be
 204:	86058506 	strhi	r8, [r5], -r6, lsl #10
 208:	88038704 	stmdahi	r3, {r2, r8, r9, sl, pc}
 20c:	42018e02 	andmi	r8, r1, #2, 28
 210:	9c02200e 	stcls	0, cr2, [r2], {14}
 214:	0000180e 	andeq	r1, r0, lr, lsl #16
 218:	00000018 	andeq	r0, r0, r8, lsl r0
 21c:	000001b8 			; <UNDEFINED> instruction: 0x000001b8
 220:	000087b8 			; <UNDEFINED> instruction: 0x000087b8
 224:	000000a4 	andeq	r0, r0, r4, lsr #1
 228:	8e040e42 	cdphi	14, 0, cr0, cr4, cr2, {2}
 22c:	480e4201 	stmdami	lr, {r0, r9, lr}
 230:	040e4202 	streq	r4, [lr], #-514	; 0xfffffdfe
 234:	0000001c 	andeq	r0, r0, ip, lsl r0
 238:	000001b8 			; <UNDEFINED> instruction: 0x000001b8
 23c:	0000885c 	andeq	r8, r0, ip, asr r8
 240:	000000f4 	strdeq	r0, [r0], -r4
 244:	84180e42 	ldrhi	r0, [r8], #-3650	; 0xfffff1be
 248:	86058506 	strhi	r8, [r5], -r6, lsl #10
 24c:	88038704 	stmdahi	r3, {r2, r8, r9, sl, pc}
 250:	00018e02 	andeq	r8, r1, r2, lsl #28
 254:	00000024 	andeq	r0, r0, r4, lsr #32
 258:	000001b8 			; <UNDEFINED> instruction: 0x000001b8
 25c:	00008950 	andeq	r8, r0, r0, asr r9
 260:	000000dc 	ldrdeq	r0, [r0], -ip
 264:	84180e42 	ldrhi	r0, [r8], #-3650	; 0xfffff1be
 268:	86058506 	strhi	r8, [r5], -r6, lsl #10
 26c:	88038704 	stmdahi	r3, {r2, r8, r9, sl, pc}
 270:	42018e02 	andmi	r8, r1, #2, 28
 274:	5a02280e 	bpl	8a2b4 <__bss_end__+0x7f3dc>
 278:	0000180e 	andeq	r1, r0, lr, lsl #16
 27c:	00000020 	andeq	r0, r0, r0, lsr #32
 280:	000001b8 			; <UNDEFINED> instruction: 0x000001b8
 284:	00008a2c 	andeq	r8, r0, ip, lsr #20
 288:	000000a4 	andeq	r0, r0, r4, lsr #1
 28c:	840c0e42 	strhi	r0, [ip], #-3650	; 0xfffff1be
 290:	8e028503 	cfsh32hi	mvfx8, mvfx2, #3
 294:	180e4201 	stmdane	lr, {r0, r9, lr}
 298:	0c0e0a64 			; <UNDEFINED> instruction: 0x0c0e0a64
 29c:	00000b42 	andeq	r0, r0, r2, asr #22
 2a0:	00000014 	andeq	r0, r0, r4, lsl r0
 2a4:	000001b8 			; <UNDEFINED> instruction: 0x000001b8
 2a8:	00008ad0 	ldrdeq	r8, [r0], -r0
 2ac:	0000000c 	andeq	r0, r0, ip
 2b0:	84080e42 	strhi	r0, [r8], #-3650	; 0xfffff1be
 2b4:	00018e02 	andeq	r8, r1, r2, lsl #28
 2b8:	00000014 	andeq	r0, r0, r4, lsl r0
 2bc:	000001b8 			; <UNDEFINED> instruction: 0x000001b8
 2c0:	00008adc 	ldrdeq	r8, [r0], -ip
 2c4:	00000048 	andeq	r0, r0, r8, asr #32
 2c8:	84080e42 	strhi	r0, [r8], #-3650	; 0xfffff1be
 2cc:	00018e02 	andeq	r8, r1, r2, lsl #28
 2d0:	00000014 	andeq	r0, r0, r4, lsl r0
 2d4:	000001b8 			; <UNDEFINED> instruction: 0x000001b8
 2d8:	00008b24 	andeq	r8, r0, r4, lsr #22
 2dc:	00000050 	andeq	r0, r0, r0, asr r0
 2e0:	84080e42 	strhi	r0, [r8], #-3650	; 0xfffff1be
 2e4:	00018e02 	andeq	r8, r1, r2, lsl #28
 2e8:	00000014 	andeq	r0, r0, r4, lsl r0
 2ec:	000001b8 			; <UNDEFINED> instruction: 0x000001b8
 2f0:	00008b74 	andeq	r8, r0, r4, ror fp
 2f4:	00000010 	andeq	r0, r0, r0, lsl r0
 2f8:	84080e42 	strhi	r0, [r8], #-3650	; 0xfffff1be
 2fc:	00018e02 	andeq	r8, r1, r2, lsl #28
 300:	00000014 	andeq	r0, r0, r4, lsl r0
 304:	000001b8 			; <UNDEFINED> instruction: 0x000001b8
 308:	00008b84 	andeq	r8, r0, r4, lsl #23
 30c:	0000002c 	andeq	r0, r0, ip, lsr #32
 310:	84080e42 	strhi	r0, [r8], #-3650	; 0xfffff1be
 314:	00018e02 	andeq	r8, r1, r2, lsl #28
 318:	0000000c 	andeq	r0, r0, ip
 31c:	ffffffff 			; <UNDEFINED> instruction: 0xffffffff
 320:	7c020001 	stcvc	0, cr0, [r2], {1}
 324:	000d0c0e 	andeq	r0, sp, lr, lsl #24
 328:	00000014 	andeq	r0, r0, r4, lsl r0
 32c:	00000318 	andeq	r0, r0, r8, lsl r3
 330:	00008bb8 			; <UNDEFINED> instruction: 0x00008bb8
 334:	00000078 	andeq	r0, r0, r8, ror r0
 338:	84080e42 	strhi	r0, [r8], #-3650	; 0xfffff1be
 33c:	00018e02 	andeq	r8, r1, r2, lsl #28
 340:	0000000c 	andeq	r0, r0, ip
 344:	ffffffff 			; <UNDEFINED> instruction: 0xffffffff
 348:	7c020001 	stcvc	0, cr0, [r2], {1}
 34c:	000d0c0e 	andeq	r0, sp, lr, lsl #24
 350:	00000034 	andeq	r0, r0, r4, lsr r0
 354:	00000340 	andeq	r0, r0, r0, asr #6
 358:	00008c30 	andeq	r8, r0, r0, lsr ip
 35c:	00000058 	andeq	r0, r0, r8, asr r0
 360:	80100e42 	andshi	r0, r0, r2, asr #28
 364:	82038104 	andhi	r8, r3, #1
 368:	42018302 	andmi	r8, r1, #134217728	; 0x8000000
 36c:	07841c0e 	streq	r1, [r4, lr, lsl #24]
 370:	058e0685 	streq	r0, [lr, #1669]	; 0x685
 374:	5a280e44 	bpl	a03c8c <__bss_end__+0x9f8db4>
 378:	ce421c0e 	cdpgt	12, 4, cr1, cr2, cr14, {0}
 37c:	100ec4c5 	andne	ip, lr, r5, asr #9
 380:	c1c2c342 	bicgt	ip, r2, r2, asr #6
 384:	00000ec0 	andeq	r0, r0, r0, asr #29
 388:	0000000c 	andeq	r0, r0, ip
 38c:	ffffffff 			; <UNDEFINED> instruction: 0xffffffff
 390:	7c020001 	stcvc	0, cr0, [r2], {1}
 394:	000d0c0e 	andeq	r0, sp, lr, lsl #24
 398:	00000018 	andeq	r0, r0, r8, lsl r0
 39c:	00000388 	andeq	r0, r0, r8, lsl #7
 3a0:	00008c88 	andeq	r8, r0, r8, lsl #25
 3a4:	00000038 	andeq	r0, r0, r8, lsr r0
 3a8:	84100e42 	ldrhi	r0, [r0], #-3650	; 0xfffff1be
 3ac:	86038504 	strhi	r8, [r3], -r4, lsl #10
 3b0:	00018e02 	andeq	r8, r1, r2, lsl #28
 3b4:	0000000c 	andeq	r0, r0, ip
 3b8:	ffffffff 			; <UNDEFINED> instruction: 0xffffffff
 3bc:	7c020001 	stcvc	0, cr0, [r2], {1}
 3c0:	000d0c0e 	andeq	r0, sp, lr, lsl #24
 3c4:	0000002c 	andeq	r0, r0, ip, lsr #32
 3c8:	000003b4 			; <UNDEFINED> instruction: 0x000003b4
 3cc:	00008cc0 	andeq	r8, r0, r0, asr #25
 3d0:	00000328 	andeq	r0, r0, r8, lsr #6
 3d4:	84180e42 	ldrhi	r0, [r8], #-3650	; 0xfffff1be
 3d8:	86058506 	strhi	r8, [r5], -r6, lsl #10
 3dc:	88038704 	stmdahi	r3, {r2, r8, r9, sl, pc}
 3e0:	46018e02 	strmi	r8, [r1], -r2, lsl #28
 3e4:	c002600e 	andgt	r6, r2, lr
 3e8:	42180e0a 	andsmi	r0, r8, #160	; 0xa0
 3ec:	0a8e020b 	beq	fe380c20 <__bss_end__+0xfe375d48>
 3f0:	0b42180e 	bleq	1086430 <__bss_end__+0x107b558>
 3f4:	00000014 	andeq	r0, r0, r4, lsl r0
 3f8:	000003b4 			; <UNDEFINED> instruction: 0x000003b4
 3fc:	00008fe8 	andeq	r8, r0, r8, ror #31
 400:	00000060 	andeq	r0, r0, r0, rrx
 404:	8e040e52 	mcrhi	14, 0, r0, cr4, cr2, {2}
 408:	100e4401 	andne	r4, lr, r1, lsl #8
 40c:	0000002c 	andeq	r0, r0, ip, lsr #32
 410:	000003b4 			; <UNDEFINED> instruction: 0x000003b4
 414:	00009048 	andeq	r9, r0, r8, asr #32
 418:	0000062c 	andeq	r0, r0, ip, lsr #12
 41c:	84240e42 	strthi	r0, [r4], #-3650	; 0xfffff1be
 420:	86088509 	strhi	r8, [r8], -r9, lsl #10
 424:	88068707 	stmdahi	r6, {r0, r1, r2, r8, r9, sl, pc}
 428:	8a048905 	bhi	122844 <__bss_end__+0x11796c>
 42c:	8e028b03 	vmlahi.f64	d8, d2, d3
 430:	c00e5201 	andgt	r5, lr, r1, lsl #4
 434:	0a860202 	beq	fe180c44 <__bss_end__+0xfe175d6c>
 438:	0b42240e 	bleq	1089478 <__bss_end__+0x107e5a0>
 43c:	0000000c 	andeq	r0, r0, ip
 440:	ffffffff 			; <UNDEFINED> instruction: 0xffffffff
 444:	7c020001 	stcvc	0, cr0, [r2], {1}
 448:	000d0c0e 	andeq	r0, sp, lr, lsl #24
 44c:	00000014 	andeq	r0, r0, r4, lsl r0
 450:	0000043c 	andeq	r0, r0, ip, lsr r4
 454:	00009674 	andeq	r9, r0, r4, ror r6
 458:	0000002c 	andeq	r0, r0, ip, lsr #32
 45c:	84080e44 	strhi	r0, [r8], #-3652	; 0xfffff1bc
 460:	00018e02 	andeq	r8, r1, r2, lsl #28
 464:	0000000c 	andeq	r0, r0, ip
 468:	ffffffff 			; <UNDEFINED> instruction: 0xffffffff
 46c:	7c020001 	stcvc	0, cr0, [r2], {1}
 470:	000d0c0e 	andeq	r0, sp, lr, lsl #24
 474:	00000018 	andeq	r0, r0, r8, lsl r0
 478:	00000464 	andeq	r0, r0, r4, ror #8
 47c:	000096a0 	andeq	r9, r0, r0, lsr #13
 480:	000000f8 	strdeq	r0, [r0], -r8
 484:	84100e42 	ldrhi	r0, [r0], #-3650	; 0xfffff1be
 488:	86038504 	strhi	r8, [r3], -r4, lsl #10
 48c:	00018e02 	andeq	r8, r1, r2, lsl #28
 490:	0000000c 	andeq	r0, r0, ip
 494:	ffffffff 			; <UNDEFINED> instruction: 0xffffffff
 498:	7c020001 	stcvc	0, cr0, [r2], {1}
 49c:	000d0c0e 	andeq	r0, sp, lr, lsl #24
 4a0:	0000000c 	andeq	r0, r0, ip
 4a4:	00000490 	muleq	r0, r0, r4
 4a8:	00009798 	muleq	r0, r8, r7
 4ac:	00000004 	andeq	r0, r0, r4
 4b0:	0000000c 	andeq	r0, r0, ip
 4b4:	ffffffff 			; <UNDEFINED> instruction: 0xffffffff
 4b8:	7c020001 	stcvc	0, cr0, [r2], {1}
 4bc:	000d0c0e 	andeq	r0, sp, lr, lsl #24
 4c0:	0000000c 	andeq	r0, r0, ip
 4c4:	000004b0 			; <UNDEFINED> instruction: 0x000004b0
 4c8:	0000979c 	muleq	r0, ip, r7
 4cc:	00000018 	andeq	r0, r0, r8, lsl r0
 4d0:	0000000c 	andeq	r0, r0, ip
 4d4:	000004b0 			; <UNDEFINED> instruction: 0x000004b0
 4d8:	000097b4 			; <UNDEFINED> instruction: 0x000097b4
 4dc:	00000014 	andeq	r0, r0, r4, lsl r0
 4e0:	00000014 	andeq	r0, r0, r4, lsl r0
 4e4:	000004b0 			; <UNDEFINED> instruction: 0x000004b0
 4e8:	000097c8 	andeq	r9, r0, r8, asr #15
 4ec:	00000060 	andeq	r0, r0, r0, rrx
 4f0:	84080e42 	strhi	r0, [r8], #-3650	; 0xfffff1be
 4f4:	00018e02 	andeq	r8, r1, r2, lsl #28
 4f8:	0000000c 	andeq	r0, r0, ip
 4fc:	ffffffff 			; <UNDEFINED> instruction: 0xffffffff
 500:	7c020001 	stcvc	0, cr0, [r2], {1}
 504:	000d0c0e 	andeq	r0, sp, lr, lsl #24
 508:	0000000c 	andeq	r0, r0, ip
 50c:	000004f8 	strdeq	r0, [r0], -r8
 510:	00009828 	andeq	r9, r0, r8, lsr #16
 514:	0000000c 	andeq	r0, r0, ip
 518:	00000014 	andeq	r0, r0, r4, lsl r0
 51c:	000004f8 	strdeq	r0, [r0], -r8
 520:	00009834 	andeq	r9, r0, r4, lsr r8
 524:	00000024 	andeq	r0, r0, r4, lsr #32
 528:	84080e42 	strhi	r0, [r8], #-3650	; 0xfffff1be
 52c:	00018e02 	andeq	r8, r1, r2, lsl #28
 530:	0000001c 	andeq	r0, r0, ip, lsl r0
 534:	000004f8 	strdeq	r0, [r0], -r8
 538:	00009858 	andeq	r9, r0, r8, asr r8
 53c:	00000048 	andeq	r0, r0, r8, asr #32
 540:	84180e42 	ldrhi	r0, [r8], #-3650	; 0xfffff1be
 544:	86058506 	strhi	r8, [r5], -r6, lsl #10
 548:	88038704 	stmdahi	r3, {r2, r8, r9, sl, pc}
 54c:	00018e02 	andeq	r8, r1, r2, lsl #28
 550:	0000001c 	andeq	r0, r0, ip, lsl r0
 554:	000004f8 	strdeq	r0, [r0], -r8
 558:	000098a0 	andeq	r9, r0, r0, lsr #17
 55c:	00000050 	andeq	r0, r0, r0, asr r0
 560:	84180e42 	ldrhi	r0, [r8], #-3650	; 0xfffff1be
 564:	86058506 	strhi	r8, [r5], -r6, lsl #10
 568:	88038704 	stmdahi	r3, {r2, r8, r9, sl, pc}
 56c:	00018e02 	andeq	r8, r1, r2, lsl #28
 570:	0000001c 	andeq	r0, r0, ip, lsl r0
 574:	000004f8 	strdeq	r0, [r0], -r8
 578:	000098f0 	strdeq	r9, [r0], -r0
 57c:	00000054 	andeq	r0, r0, r4, asr r0
 580:	84180e42 	ldrhi	r0, [r8], #-3650	; 0xfffff1be
 584:	86058506 	strhi	r8, [r5], -r6, lsl #10
 588:	88038704 	stmdahi	r3, {r2, r8, r9, sl, pc}
 58c:	00018e02 	andeq	r8, r1, r2, lsl #28
 590:	0000000c 	andeq	r0, r0, ip
 594:	ffffffff 			; <UNDEFINED> instruction: 0xffffffff
 598:	7c020001 	stcvc	0, cr0, [r2], {1}
 59c:	000d0c0e 	andeq	r0, sp, lr, lsl #24
 5a0:	00000018 	andeq	r0, r0, r8, lsl r0
 5a4:	00000590 	muleq	r0, r0, r5
 5a8:	00009944 	andeq	r9, r0, r4, asr #18
 5ac:	00000020 	andeq	r0, r0, r0, lsr #32
 5b0:	84100e42 	ldrhi	r0, [r0], #-3650	; 0xfffff1be
 5b4:	86038504 	strhi	r8, [r3], -r4, lsl #10
 5b8:	00018e02 	andeq	r8, r1, r2, lsl #28
 5bc:	00000018 	andeq	r0, r0, r8, lsl r0
 5c0:	00000590 	muleq	r0, r0, r5
 5c4:	00009964 	andeq	r9, r0, r4, ror #18
 5c8:	00000020 	andeq	r0, r0, r0, lsr #32
 5cc:	84100e42 	ldrhi	r0, [r0], #-3650	; 0xfffff1be
 5d0:	86038504 	strhi	r8, [r3], -r4, lsl #10
 5d4:	00018e02 	andeq	r8, r1, r2, lsl #28
 5d8:	00000014 	andeq	r0, r0, r4, lsl r0
 5dc:	00000590 	muleq	r0, r0, r5
 5e0:	00009984 	andeq	r9, r0, r4, lsl #19
 5e4:	000000b0 	strheq	r0, [r0], -r0	; <UNPREDICTABLE>
 5e8:	84080e42 	strhi	r0, [r8], #-3650	; 0xfffff1be
 5ec:	00018e02 	andeq	r8, r1, r2, lsl #28
 5f0:	00000014 	andeq	r0, r0, r4, lsl r0
 5f4:	00000590 	muleq	r0, r0, r5
 5f8:	00009a34 	andeq	r9, r0, r4, lsr sl
 5fc:	00000018 	andeq	r0, r0, r8, lsl r0
 600:	84080e42 	strhi	r0, [r8], #-3650	; 0xfffff1be
 604:	00018e02 	andeq	r8, r1, r2, lsl #28
 608:	00000014 	andeq	r0, r0, r4, lsl r0
 60c:	00000590 	muleq	r0, r0, r5
 610:	00009a4c 	andeq	r9, r0, ip, asr #20
 614:	00000020 	andeq	r0, r0, r0, lsr #32
 618:	84080e42 	strhi	r0, [r8], #-3650	; 0xfffff1be
 61c:	00018e02 	andeq	r8, r1, r2, lsl #28
 620:	00000014 	andeq	r0, r0, r4, lsl r0
 624:	00000590 	muleq	r0, r0, r5
 628:	00009a6c 	andeq	r9, r0, ip, ror #20
 62c:	00000030 	andeq	r0, r0, r0, lsr r0
 630:	84080e42 	strhi	r0, [r8], #-3650	; 0xfffff1be
 634:	00018e02 	andeq	r8, r1, r2, lsl #28
 638:	00000014 	andeq	r0, r0, r4, lsl r0
 63c:	00000590 	muleq	r0, r0, r5
 640:	00009a9c 	muleq	r0, ip, sl
 644:	00000030 	andeq	r0, r0, r0, lsr r0
 648:	84080e42 	strhi	r0, [r8], #-3650	; 0xfffff1be
 64c:	00018e02 	andeq	r8, r1, r2, lsl #28
 650:	00000014 	andeq	r0, r0, r4, lsl r0
 654:	00000590 	muleq	r0, r0, r5
 658:	00009acc 	andeq	r9, r0, ip, asr #21
 65c:	00000010 	andeq	r0, r0, r0, lsl r0
 660:	84080e42 	strhi	r0, [r8], #-3650	; 0xfffff1be
 664:	00018e02 	andeq	r8, r1, r2, lsl #28
 668:	00000014 	andeq	r0, r0, r4, lsl r0
 66c:	00000590 	muleq	r0, r0, r5
 670:	00009adc 	ldrdeq	r9, [r0], -ip
 674:	00000020 	andeq	r0, r0, r0, lsr #32
 678:	84080e42 	strhi	r0, [r8], #-3650	; 0xfffff1be
 67c:	00018e02 	andeq	r8, r1, r2, lsl #28
 680:	00000014 	andeq	r0, r0, r4, lsl r0
 684:	00000590 	muleq	r0, r0, r5
 688:	00009afc 	strdeq	r9, [r0], -ip
 68c:	00000014 	andeq	r0, r0, r4, lsl r0
 690:	84080e42 	strhi	r0, [r8], #-3650	; 0xfffff1be
 694:	00018e02 	andeq	r8, r1, r2, lsl #28
 698:	00000014 	andeq	r0, r0, r4, lsl r0
 69c:	00000590 	muleq	r0, r0, r5
 6a0:	00009b10 	andeq	r9, r0, r0, lsl fp
 6a4:	00000024 	andeq	r0, r0, r4, lsr #32
 6a8:	84080e42 	strhi	r0, [r8], #-3650	; 0xfffff1be
 6ac:	00018e02 	andeq	r8, r1, r2, lsl #28
 6b0:	0000000c 	andeq	r0, r0, ip
 6b4:	ffffffff 			; <UNDEFINED> instruction: 0xffffffff
 6b8:	7c020001 	stcvc	0, cr0, [r2], {1}
 6bc:	000d0c0e 	andeq	r0, sp, lr, lsl #24
 6c0:	0000000c 	andeq	r0, r0, ip
 6c4:	000006b0 			; <UNDEFINED> instruction: 0x000006b0
 6c8:	00009b34 	andeq	r9, r0, r4, lsr fp
 6cc:	00000010 	andeq	r0, r0, r0, lsl r0
 6d0:	0000000c 	andeq	r0, r0, ip
 6d4:	000006b0 			; <UNDEFINED> instruction: 0x000006b0
 6d8:	00009b44 	andeq	r9, r0, r4, asr #22
 6dc:	00000010 	andeq	r0, r0, r0, lsl r0
 6e0:	0000000c 	andeq	r0, r0, ip
 6e4:	000006b0 			; <UNDEFINED> instruction: 0x000006b0
 6e8:	00009b54 	andeq	r9, r0, r4, asr fp
 6ec:	00000010 	andeq	r0, r0, r0, lsl r0
 6f0:	0000001c 	andeq	r0, r0, ip, lsl r0
 6f4:	000006b0 			; <UNDEFINED> instruction: 0x000006b0
 6f8:	00009b64 	andeq	r9, r0, r4, ror #22
 6fc:	0000009c 	muleq	r0, ip, r0
 700:	8e040e42 	cdphi	14, 0, cr0, cr4, cr2, {2}
 704:	100e4201 	andne	r4, lr, r1, lsl #4
 708:	040e0a58 	streq	r0, [lr], #-2648	; 0xfffff5a8
 70c:	00000b42 	andeq	r0, r0, r2, asr #22
 710:	00000014 	andeq	r0, r0, r4, lsl r0
 714:	000006b0 			; <UNDEFINED> instruction: 0x000006b0
 718:	00009c00 	andeq	r9, r0, r0, lsl #24
 71c:	00000058 	andeq	r0, r0, r8, asr r0
 720:	84080e42 	strhi	r0, [r8], #-3650	; 0xfffff1be
 724:	00018e02 	andeq	r8, r1, r2, lsl #28
 728:	0000001c 	andeq	r0, r0, ip, lsl r0
 72c:	000006b0 			; <UNDEFINED> instruction: 0x000006b0
 730:	00009c58 	andeq	r9, r0, r8, asr ip
 734:	00000098 	muleq	r0, r8, r0
 738:	8e040e42 	cdphi	14, 0, cr0, cr4, cr2, {2}
 73c:	100e4201 	andne	r4, lr, r1, lsl #4
 740:	040e0a58 	streq	r0, [lr], #-2648	; 0xfffff5a8
 744:	00000b42 	andeq	r0, r0, r2, asr #22
 748:	00000020 	andeq	r0, r0, r0, lsr #32
 74c:	000006b0 			; <UNDEFINED> instruction: 0x000006b0
 750:	00009cf0 	strdeq	r9, [r0], -r0
 754:	00000064 	andeq	r0, r0, r4, rrx
 758:	840c0e42 	strhi	r0, [ip], #-3650	; 0xfffff1be
 75c:	8e028503 	cfsh32hi	mvfx8, mvfx2, #3
 760:	180e4201 	stmdane	lr, {r0, r9, lr}
 764:	0c0e0a54 			; <UNDEFINED> instruction: 0x0c0e0a54
 768:	00000b42 	andeq	r0, r0, r2, asr #22
 76c:	0000001c 	andeq	r0, r0, ip, lsl r0
 770:	000006b0 			; <UNDEFINED> instruction: 0x000006b0
 774:	00009d54 	andeq	r9, r0, r4, asr sp
 778:	00000118 	andeq	r0, r0, r8, lsl r1
 77c:	8e040e42 	cdphi	14, 0, cr0, cr4, cr2, {2}
 780:	100e4201 	andne	r4, lr, r1, lsl #4
 784:	040e0a6c 	streq	r0, [lr], #-2668	; 0xfffff594
 788:	00000b42 	andeq	r0, r0, r2, asr #22
 78c:	0000000c 	andeq	r0, r0, ip
 790:	000006b0 			; <UNDEFINED> instruction: 0x000006b0
 794:	00009e6c 	andeq	r9, r0, ip, ror #28
 798:	00000004 	andeq	r0, r0, r4
 79c:	0000000c 	andeq	r0, r0, ip
 7a0:	000006b0 			; <UNDEFINED> instruction: 0x000006b0
 7a4:	00009e70 	andeq	r9, r0, r0, ror lr
 7a8:	00000014 	andeq	r0, r0, r4, lsl r0
 7ac:	00000014 	andeq	r0, r0, r4, lsl r0
 7b0:	000006b0 			; <UNDEFINED> instruction: 0x000006b0
 7b4:	00009e84 	andeq	r9, r0, r4, lsl #29
 7b8:	00000060 	andeq	r0, r0, r0, rrx
 7bc:	8e040e58 	mcrhi	14, 0, r0, cr4, cr8, {2}
 7c0:	100e4201 	andne	r4, lr, r1, lsl #4
 7c4:	0000000c 	andeq	r0, r0, ip
 7c8:	ffffffff 			; <UNDEFINED> instruction: 0xffffffff
 7cc:	7c020001 	stcvc	0, cr0, [r2], {1}
 7d0:	000d0c0e 	andeq	r0, sp, lr, lsl #24
 7d4:	00000020 	andeq	r0, r0, r0, lsr #32
 7d8:	000007c4 	andeq	r0, r0, r4, asr #15
 7dc:	00009ee4 	andeq	r9, r0, r4, ror #29
 7e0:	00000060 	andeq	r0, r0, r0, rrx
 7e4:	84100e48 	ldrhi	r0, [r0], #-3656	; 0xfffff1b8
 7e8:	86038504 	strhi	r8, [r3], -r4, lsl #10
 7ec:	64018e02 	strvs	r8, [r1], #-3586	; 0xfffff1fe
 7f0:	c4c5c6ce 	strbgt	ip, [r5], #1742	; 0x6ce
 7f4:	0000000e 	andeq	r0, r0, lr
 7f8:	00000020 	andeq	r0, r0, r0, lsr #32
 7fc:	000007c4 	andeq	r0, r0, r4, asr #15
 800:	00009f44 	andeq	r9, r0, r4, asr #30
 804:	00000058 	andeq	r0, r0, r8, asr r0
 808:	84100e46 	ldrhi	r0, [r0], #-3654	; 0xfffff1ba
 80c:	86038504 	strhi	r8, [r3], -r4, lsl #10
 810:	62018e02 	andvs	r8, r1, #2, 28
 814:	c4c5c6ce 	strbgt	ip, [r5], #1742	; 0x6ce
 818:	0000000e 	andeq	r0, r0, lr
 81c:	0000000c 	andeq	r0, r0, ip
 820:	000007c4 	andeq	r0, r0, r4, asr #15
 824:	00009f9c 	muleq	r0, ip, pc	; <UNPREDICTABLE>
 828:	00000018 	andeq	r0, r0, r8, lsl r0
 82c:	0000000c 	andeq	r0, r0, ip
 830:	000007c4 	andeq	r0, r0, r4, asr #15
 834:	00009fb4 			; <UNDEFINED> instruction: 0x00009fb4
 838:	00000018 	andeq	r0, r0, r8, lsl r0
 83c:	00000020 	andeq	r0, r0, r0, lsr #32
 840:	000007c4 	andeq	r0, r0, r4, asr #15
 844:	00009fcc 	andeq	r9, r0, ip, asr #31
 848:	00000058 	andeq	r0, r0, r8, asr r0
 84c:	84100e46 	ldrhi	r0, [r0], #-3654	; 0xfffff1ba
 850:	86038504 	strhi	r8, [r3], -r4, lsl #10
 854:	62018e02 	andvs	r8, r1, #2, 28
 858:	c4c5c6ce 	strbgt	ip, [r5], #1742	; 0x6ce
 85c:	0000000e 	andeq	r0, r0, lr
 860:	0000000c 	andeq	r0, r0, ip
 864:	000007c4 	andeq	r0, r0, r4, asr #15
 868:	0000a024 	andeq	sl, r0, r4, lsr #32
 86c:	00000030 	andeq	r0, r0, r0, lsr r0
 870:	00000014 	andeq	r0, r0, r4, lsl r0
 874:	000007c4 	andeq	r0, r0, r4, asr #15
 878:	0000a054 	andeq	sl, r0, r4, asr r0
 87c:	00000028 	andeq	r0, r0, r8, lsr #32
 880:	84080e42 	strhi	r0, [r8], #-3650	; 0xfffff1be
 884:	00018e02 	andeq	r8, r1, r2, lsl #28
 888:	0000000c 	andeq	r0, r0, ip
 88c:	ffffffff 			; <UNDEFINED> instruction: 0xffffffff
 890:	7c020001 	stcvc	0, cr0, [r2], {1}
 894:	000d0c0e 	andeq	r0, sp, lr, lsl #24
 898:	00000014 	andeq	r0, r0, r4, lsl r0
 89c:	00000888 	andeq	r0, r0, r8, lsl #17
 8a0:	0000a07c 	andeq	sl, r0, ip, ror r0
 8a4:	00000014 	andeq	r0, r0, r4, lsl r0
 8a8:	84080e42 	strhi	r0, [r8], #-3650	; 0xfffff1be
 8ac:	00018e02 	andeq	r8, r1, r2, lsl #28
 8b0:	0000000c 	andeq	r0, r0, ip
 8b4:	00000888 	andeq	r0, r0, r8, lsl #17
 8b8:	0000a090 	muleq	r0, r0, r0
 8bc:	00000018 	andeq	r0, r0, r8, lsl r0
 8c0:	0000000c 	andeq	r0, r0, ip
 8c4:	00000888 	andeq	r0, r0, r8, lsl #17
 8c8:	0000a0a8 	andeq	sl, r0, r8, lsr #1
 8cc:	00000010 	andeq	r0, r0, r0, lsl r0
 8d0:	0000000c 	andeq	r0, r0, ip
 8d4:	ffffffff 			; <UNDEFINED> instruction: 0xffffffff
 8d8:	7c020001 	stcvc	0, cr0, [r2], {1}
 8dc:	000d0c0e 	andeq	r0, sp, lr, lsl #24
 8e0:	0000000c 	andeq	r0, r0, ip
 8e4:	000008d0 	ldrdeq	r0, [r0], -r0	; <UNPREDICTABLE>
 8e8:	0000a0b8 	strheq	sl, [r0], -r8
 8ec:	0000002c 	andeq	r0, r0, ip, lsr #32
 8f0:	0000000c 	andeq	r0, r0, ip
 8f4:	ffffffff 			; <UNDEFINED> instruction: 0xffffffff
 8f8:	7c020001 	stcvc	0, cr0, [r2], {1}
 8fc:	000d0c0e 	andeq	r0, sp, lr, lsl #24
 900:	0000000c 	andeq	r0, r0, ip
 904:	000008f0 	strdeq	r0, [r0], -r0	; <UNPREDICTABLE>
 908:	0000a0e4 	andeq	sl, r0, r4, ror #1
 90c:	00000044 	andeq	r0, r0, r4, asr #32
 910:	0000000c 	andeq	r0, r0, ip
 914:	ffffffff 			; <UNDEFINED> instruction: 0xffffffff
 918:	7c020001 	stcvc	0, cr0, [r2], {1}
 91c:	000d0c0e 	andeq	r0, sp, lr, lsl #24
 920:	0000000c 	andeq	r0, r0, ip
 924:	00000910 	andeq	r0, r0, r0, lsl r9
 928:	0000a128 	andeq	sl, r0, r8, lsr #2
 92c:	00000018 	andeq	r0, r0, r8, lsl r0
 930:	0000000c 	andeq	r0, r0, ip
 934:	ffffffff 			; <UNDEFINED> instruction: 0xffffffff
 938:	7c020001 	stcvc	0, cr0, [r2], {1}
 93c:	000d0c0e 	andeq	r0, sp, lr, lsl #24
 940:	0000000c 	andeq	r0, r0, ip
 944:	00000930 	andeq	r0, r0, r0, lsr r9
 948:	0000a140 	andeq	sl, r0, r0, asr #2
 94c:	00000030 	andeq	r0, r0, r0, lsr r0
 950:	0000000c 	andeq	r0, r0, ip
 954:	ffffffff 			; <UNDEFINED> instruction: 0xffffffff
 958:	7c020001 	stcvc	0, cr0, [r2], {1}
 95c:	000d0c0e 	andeq	r0, sp, lr, lsl #24
 960:	0000000c 	andeq	r0, r0, ip
 964:	00000950 	andeq	r0, r0, r0, asr r9
 968:	0000a170 	andeq	sl, r0, r0, ror r1
 96c:	00000004 	andeq	r0, r0, r4

Disassembly of section .debug_ranges:

00000000 <.debug_ranges>:
   0:	000000ec 	andeq	r0, r0, ip, ror #1
   4:	00000108 	andeq	r0, r0, r8, lsl #2
   8:	00000114 	andeq	r0, r0, r4, lsl r1
   c:	000001a0 	andeq	r0, r0, r0, lsr #3
	...
  18:	000000ec 	andeq	r0, r0, ip, ror #1
  1c:	00000108 	andeq	r0, r0, r8, lsl #2
  20:	00000124 	andeq	r0, r0, r4, lsr #2
  24:	000001a0 	andeq	r0, r0, r0, lsr #3
	...
  30:	0000028c 	andeq	r0, r0, ip, lsl #5
  34:	00000294 	muleq	r0, r4, r2
  38:	000002a0 	andeq	r0, r0, r0, lsr #5
  3c:	000002fc 	strdeq	r0, [r0], -ip
	...
  48:	00000380 	andeq	r0, r0, r0, lsl #7
  4c:	00000388 	andeq	r0, r0, r8, lsl #7
  50:	00000394 	muleq	r0, r4, r3
  54:	00000404 	andeq	r0, r0, r4, lsl #8
	...
  60:	000000a4 	andeq	r0, r0, r4, lsr #1
  64:	00000148 	andeq	r0, r0, r8, asr #2
  68:	00000158 	andeq	r0, r0, r8, asr r1
  6c:	0000015c 	andeq	r0, r0, ip, asr r1
  70:	00000274 	andeq	r0, r0, r4, ror r2
  74:	00000278 	andeq	r0, r0, r8, ror r2
  78:	0000027c 	andeq	r0, r0, ip, ror r2
  7c:	00000280 	andeq	r0, r0, r0, lsl #5
  80:	00000288 	andeq	r0, r0, r8, lsl #5
  84:	0000029c 	muleq	r0, ip, r2
  88:	000002c0 	andeq	r0, r0, r0, asr #5
  8c:	000002cc 	andeq	r0, r0, ip, asr #5
  90:	000002f0 	strdeq	r0, [r0], -r0	; <UNPREDICTABLE>
  94:	000002f0 	strdeq	r0, [r0], -r0	; <UNPREDICTABLE>
  98:	000002f4 	strdeq	r0, [r0], -r4
  9c:	000002f8 	strdeq	r0, [r0], -r8
	...
  a8:	00000148 	andeq	r0, r0, r8, asr #2
  ac:	00000158 	andeq	r0, r0, r8, asr r1
  b0:	0000015c 	andeq	r0, r0, ip, asr r1
  b4:	0000018c 	andeq	r0, r0, ip, lsl #3
  b8:	0000029c 	muleq	r0, ip, r2
  bc:	000002ac 	andeq	r0, r0, ip, lsr #5
	...
  c8:	000003c8 	andeq	r0, r0, r8, asr #7
  cc:	000003d0 	ldrdeq	r0, [r0], -r0	; <UNPREDICTABLE>
  d0:	00000404 	andeq	r0, r0, r4, lsl #8
  d4:	000004ac 	andeq	r0, r0, ip, lsr #9
  d8:	000004c0 	andeq	r0, r0, r0, asr #9
  dc:	00000920 	andeq	r0, r0, r0, lsr #18
  e0:	00000928 	andeq	r0, r0, r8, lsr #18
  e4:	000009b4 			; <UNDEFINED> instruction: 0x000009b4
	...
  f0:	000003c8 	andeq	r0, r0, r8, asr #7
  f4:	000003d0 	ldrdeq	r0, [r0], -r0	; <UNPREDICTABLE>
  f8:	00000504 	andeq	r0, r0, r4, lsl #10
  fc:	000005d0 	ldrdeq	r0, [r0], -r0	; <UNPREDICTABLE>
 100:	00000800 	andeq	r0, r0, r0, lsl #16
 104:	00000888 	andeq	r0, r0, r8, lsl #17
 108:	00000930 	andeq	r0, r0, r0, lsr r9
 10c:	000009b4 			; <UNDEFINED> instruction: 0x000009b4
	...
 118:	00000404 	andeq	r0, r0, r4, lsl #8
 11c:	00000408 	andeq	r0, r0, r8, lsl #8
 120:	00000414 	andeq	r0, r0, r4, lsl r4
 124:	00000414 	andeq	r0, r0, r4, lsl r4
 128:	00000428 	andeq	r0, r0, r8, lsr #8
 12c:	0000042c 	andeq	r0, r0, ip, lsr #8
	...
 138:	000005fc 	strdeq	r0, [r0], -ip
 13c:	00000700 	andeq	r0, r0, r0, lsl #14
 140:	000007ec 	andeq	r0, r0, ip, ror #15
 144:	000007f4 	strdeq	r0, [r0], -r4
 148:	00000888 	andeq	r0, r0, r8, lsl #17
 14c:	00000894 	muleq	r0, r4, r8
 150:	000008a8 	andeq	r0, r0, r8, lsr #17
 154:	000008bc 			; <UNDEFINED> instruction: 0x000008bc
 158:	00000910 	andeq	r0, r0, r0, lsl r9
 15c:	00000920 	andeq	r0, r0, r0, lsr #18
	...
 168:	00000600 	andeq	r0, r0, r0, lsl #12
 16c:	00000604 	andeq	r0, r0, r4, lsl #12
 170:	00000608 	andeq	r0, r0, r8, lsl #12
 174:	000006b4 			; <UNDEFINED> instruction: 0x000006b4
 178:	000006cc 	andeq	r0, r0, ip, asr #13
 17c:	000006d0 	ldrdeq	r0, [r0], -r0	; <UNPREDICTABLE>
 180:	000008a8 	andeq	r0, r0, r8, lsr #17
 184:	000008b8 			; <UNDEFINED> instruction: 0x000008b8
 188:	00000910 	andeq	r0, r0, r0, lsl r9
 18c:	00000920 	andeq	r0, r0, r0, lsr #18
	...
 198:	000006b4 			; <UNDEFINED> instruction: 0x000006b4
 19c:	000006cc 	andeq	r0, r0, ip, asr #13
 1a0:	000006d0 	ldrdeq	r0, [r0], -r0	; <UNPREDICTABLE>
 1a4:	00000700 	andeq	r0, r0, r0, lsl #14
 1a8:	000007ec 	andeq	r0, r0, ip, ror #15
 1ac:	000007f4 	strdeq	r0, [r0], -r4
 1b0:	00000888 	andeq	r0, r0, r8, lsl #17
 1b4:	00000894 	muleq	r0, r4, r8
 1b8:	000008b8 			; <UNDEFINED> instruction: 0x000008b8
 1bc:	000008bc 			; <UNDEFINED> instruction: 0x000008bc
	...
 1c8:	00000700 	andeq	r0, r0, r0, lsl #14
 1cc:	00000708 	andeq	r0, r0, r8, lsl #14
 1d0:	0000070c 	andeq	r0, r0, ip, lsl #14
 1d4:	000007ec 	andeq	r0, r0, ip, ror #15
 1d8:	00000894 	muleq	r0, r4, r8
 1dc:	000008a8 	andeq	r0, r0, r8, lsr #17
	...
 1e8:	00000728 	andeq	r0, r0, r8, lsr #14
 1ec:	000007a4 	andeq	r0, r0, r4, lsr #15
 1f0:	000007ac 	andeq	r0, r0, ip, lsr #15
 1f4:	000007b0 			; <UNDEFINED> instruction: 0x000007b0
 1f8:	00000894 	muleq	r0, r4, r8
 1fc:	00000898 	muleq	r0, r8, r8
 200:	0000089c 	muleq	r0, ip, r8
 204:	000008a0 	andeq	r0, r0, r0, lsr #17
	...
 210:	000007a4 	andeq	r0, r0, r4, lsr #15
 214:	000007ac 	andeq	r0, r0, ip, lsr #15
 218:	000007b0 			; <UNDEFINED> instruction: 0x000007b0
 21c:	000007ec 	andeq	r0, r0, ip, ror #15
 220:	00000898 	muleq	r0, r8, r8
 224:	0000089c 	muleq	r0, ip, r8
 228:	000008a0 	andeq	r0, r0, r0, lsr #17
 22c:	000008a8 	andeq	r0, r0, r8, lsr #17
	...
 238:	000097c8 	andeq	r9, r0, r8, asr #15
 23c:	000097c8 	andeq	r9, r0, r8, asr #15
 240:	000097cc 	andeq	r9, r0, ip, asr #15
 244:	000097d4 	ldrdeq	r9, [r0], -r4
	...
 250:	0000979c 	muleq	r0, ip, r7
 254:	00009828 	andeq	r9, r0, r8, lsr #16
	...
 260:	00000030 	andeq	r0, r0, r0, lsr r0
 264:	00000030 	andeq	r0, r0, r0, lsr r0
 268:	00000038 	andeq	r0, r0, r8, lsr r0
 26c:	0000004c 	andeq	r0, r0, ip, asr #32
	...
 278:	0000004c 	andeq	r0, r0, ip, asr #32
 27c:	00000050 	andeq	r0, r0, r0, asr r0
 280:	00000050 	andeq	r0, r0, r0, asr r0
 284:	00000078 	andeq	r0, r0, r8, ror r0
	...
 290:	0000004c 	andeq	r0, r0, ip, asr #32
 294:	00000050 	andeq	r0, r0, r0, asr r0
 298:	00000050 	andeq	r0, r0, r0, asr r0
 29c:	00000060 	andeq	r0, r0, r0, rrx
 2a0:	00000064 	andeq	r0, r0, r4, rrx
 2a4:	00000068 	andeq	r0, r0, r8, rrx
	...
 2b0:	0000004c 	andeq	r0, r0, ip, asr #32
 2b4:	00000050 	andeq	r0, r0, r0, asr r0
 2b8:	00000054 	andeq	r0, r0, r4, asr r0
 2bc:	00000060 	andeq	r0, r0, r0, rrx
	...
 2c8:	0000009c 	muleq	r0, ip, r0
 2cc:	000000a0 	andeq	r0, r0, r0, lsr #1
 2d0:	000000a0 	andeq	r0, r0, r0, lsr #1
 2d4:	000000c8 	andeq	r0, r0, r8, asr #1
	...
 2e0:	0000009c 	muleq	r0, ip, r0
 2e4:	000000a0 	andeq	r0, r0, r0, lsr #1
 2e8:	000000a0 	andeq	r0, r0, r0, lsr #1
 2ec:	000000b0 	strheq	r0, [r0], -r0	; <UNPREDICTABLE>
 2f0:	000000b4 	strheq	r0, [r0], -r4
 2f4:	000000b8 	strheq	r0, [r0], -r8
	...
 300:	0000009c 	muleq	r0, ip, r0
 304:	000000a0 	andeq	r0, r0, r0, lsr #1
 308:	000000a4 	andeq	r0, r0, r4, lsr #1
 30c:	000000b0 	strheq	r0, [r0], -r0	; <UNPREDICTABLE>
	...
 318:	000000c8 	andeq	r0, r0, r8, asr #1
 31c:	000000c8 	andeq	r0, r0, r8, asr #1
 320:	000000cc 	andeq	r0, r0, ip, asr #1
 324:	0000011c 	andeq	r0, r0, ip, lsl r1
	...
 330:	000000f0 	strdeq	r0, [r0], -r0	; <UNPREDICTABLE>
 334:	000000f4 	strdeq	r0, [r0], -r4
 338:	000000f4 	strdeq	r0, [r0], -r4
 33c:	0000011c 	andeq	r0, r0, ip, lsl r1
	...
 348:	000000f0 	strdeq	r0, [r0], -r0	; <UNPREDICTABLE>
 34c:	000000f4 	strdeq	r0, [r0], -r4
 350:	000000f4 	strdeq	r0, [r0], -r4
 354:	00000104 	andeq	r0, r0, r4, lsl #2
 358:	00000108 	andeq	r0, r0, r8, lsl #2
 35c:	0000010c 	andeq	r0, r0, ip, lsl #2
	...
 368:	000000f0 	strdeq	r0, [r0], -r0	; <UNPREDICTABLE>
 36c:	000000f4 	strdeq	r0, [r0], -r4
 370:	000000f8 	strdeq	r0, [r0], -r8
 374:	00000104 	andeq	r0, r0, r4, lsl #2
	...
 380:	00000134 	andeq	r0, r0, r4, lsr r1
 384:	00000134 	andeq	r0, r0, r4, lsr r1
 388:	00000134 	andeq	r0, r0, r4, lsr r1
 38c:	0000013c 	andeq	r0, r0, ip, lsr r1
	...
 398:	0000024c 	andeq	r0, r0, ip, asr #4
 39c:	00000264 	andeq	r0, r0, r4, ror #4
 3a0:	000002c8 	andeq	r0, r0, r8, asr #5
 3a4:	000002e8 	andeq	r0, r0, r8, ror #5
	...
 3b0:	00000008 	andeq	r0, r0, r8
 3b4:	0000000c 	andeq	r0, r0, ip
 3b8:	00000014 	andeq	r0, r0, r4, lsl r0
 3bc:	00000054 	andeq	r0, r0, r4, asr r0
 3c0:	00000058 	andeq	r0, r0, r8, asr r0
 3c4:	00000060 	andeq	r0, r0, r0, rrx
	...
 3d0:	00000060 	andeq	r0, r0, r0, rrx
 3d4:	00000068 	andeq	r0, r0, r8, rrx
 3d8:	0000006c 	andeq	r0, r0, ip, rrx
 3dc:	000000ac 	andeq	r0, r0, ip, lsr #1
 3e0:	000000b0 	strheq	r0, [r0], -r0	; <UNPREDICTABLE>
 3e4:	000000b8 	strheq	r0, [r0], -r8
	...
 3f0:	00000068 	andeq	r0, r0, r8, rrx
 3f4:	00000068 	andeq	r0, r0, r8, rrx
 3f8:	0000006c 	andeq	r0, r0, ip, rrx
 3fc:	000000ac 	andeq	r0, r0, ip, lsr #1
 400:	000000b0 	strheq	r0, [r0], -r0	; <UNPREDICTABLE>
 404:	000000b8 	strheq	r0, [r0], -r8
	...
 410:	000000e8 	andeq	r0, r0, r8, ror #1
 414:	000000f0 	strdeq	r0, [r0], -r0	; <UNPREDICTABLE>
 418:	000000f4 	strdeq	r0, [r0], -r4
 41c:	00000134 	andeq	r0, r0, r4, lsr r1
 420:	00000138 	andeq	r0, r0, r8, lsr r1
 424:	00000140 	andeq	r0, r0, r0, asr #2
	...
 430:	000000f0 	strdeq	r0, [r0], -r0	; <UNPREDICTABLE>
 434:	000000f0 	strdeq	r0, [r0], -r0	; <UNPREDICTABLE>
 438:	000000f4 	strdeq	r0, [r0], -r4
 43c:	00000134 	andeq	r0, r0, r4, lsr r1
 440:	00000138 	andeq	r0, r0, r8, lsr r1
 444:	00000140 	andeq	r0, r0, r0, asr #2
	...
 450:	00000144 	andeq	r0, r0, r4, asr #2
 454:	00000148 	andeq	r0, r0, r8, asr #2
 458:	00000150 	andeq	r0, r0, r0, asr r1
 45c:	0000015c 	andeq	r0, r0, ip, asr r1
	...
