
tests-2.0/part2-test4-no-leak.elf:     file format elf32-littlearm


Disassembly of section .text:

00008000 <__code_start__>:
    8000:	e3a00013 	mov	r0, #19, 0
    8004:	e3800080 	orr	r0, r0, #128, 0	; 0x80
    8008:	e129f000 	msr	CPSR_fc, r0
    800c:	e3a01000 	mov	r1, #0, 0
    8010:	ee071f95 	mcr	15, 0, r1, cr7, cr5, {4}
    8014:	e3a0d302 	mov	sp, #134217728	; 0x8000000
    8018:	e3a0b000 	mov	fp, #0, 0
    801c:	eb00057d 	bl	9618 <_cstart>
    8020:	eb0005c6 	bl	9740 <rpi_reboot>

00008024 <PUT32>:
    8024:	e5801000 	str	r1, [r0]
    8028:	e12fff1e 	bx	lr

0000802c <GET32>:
    802c:	e5900000 	ldr	r0, [r0]
    8030:	e12fff1e 	bx	lr

00008034 <BRANCHTO>:
    8034:	e12fff10 	bx	r0

00008038 <test>:
    8038:	e92d43f0 	push	{r4, r5, r6, r7, r8, r9, lr}
    803c:	e24dd01c 	sub	sp, sp, #28, 0
    8040:	e59f30dc 	ldr	r3, [pc, #220]	; 8124 <test+0xec>
    8044:	e58d300c 	str	r3, [sp, #12]
    8048:	e59f30d8 	ldr	r3, [pc, #216]	; 8128 <test+0xf0>
    804c:	e58d3010 	str	r3, [sp, #16]
    8050:	e3a03010 	mov	r3, #16, 0
    8054:	e58d3014 	str	r3, [sp, #20]
    8058:	e28d3018 	add	r3, sp, #24, 0
    805c:	e913000e 	ldmdb	r3, {r1, r2, r3}
    8060:	e3a0000c 	mov	r0, #12, 0
    8064:	eb0000bd 	bl	8360 <ckalloc>
    8068:	e1a05000 	mov	r5, r0
    806c:	e3a0200c 	mov	r2, #12, 0
    8070:	e3a01000 	mov	r1, #0, 0
    8074:	eb0002ad 	bl	8b30 <memset>
    8078:	e3a03000 	mov	r3, #0, 0
    807c:	e5853000 	str	r3, [r5]
    8080:	e3a06064 	mov	r6, #100, 0	; 0x64
    8084:	e59f9098 	ldr	r9, [pc, #152]	; 8124 <test+0xec>
    8088:	e59f8098 	ldr	r8, [pc, #152]	; 8128 <test+0xf0>
    808c:	e3a07010 	mov	r7, #16, 0
    8090:	ea000008 	b	80b8 <test+0x80>
    8094:	e59f3090 	ldr	r3, [pc, #144]	; 812c <test+0xf4>
    8098:	e58d3000 	str	r3, [sp]
    809c:	e3a03014 	mov	r3, #20, 0
    80a0:	e59f2080 	ldr	r2, [pc, #128]	; 8128 <test+0xf0>
    80a4:	e59f1078 	ldr	r1, [pc, #120]	; 8124 <test+0xec>
    80a8:	e59f0080 	ldr	r0, [pc, #128]	; 8130 <test+0xf8>
    80ac:	eb0002bd 	bl	8ba8 <printk>
    80b0:	eb00054d 	bl	95ec <clean_reboot>
    80b4:	e1a05004 	mov	r5, r4
    80b8:	e2566001 	subs	r6, r6, #1, 0
    80bc:	0a000014 	beq	8114 <test+0xdc>
    80c0:	e58d900c 	str	r9, [sp, #12]
    80c4:	e58d8010 	str	r8, [sp, #16]
    80c8:	e58d7014 	str	r7, [sp, #20]
    80cc:	e28d3018 	add	r3, sp, #24, 0
    80d0:	e913000e 	ldmdb	r3, {r1, r2, r3}
    80d4:	e3a0000c 	mov	r0, #12, 0
    80d8:	eb0000a0 	bl	8360 <ckalloc>
    80dc:	e1a04000 	mov	r4, r0
    80e0:	e3a0200c 	mov	r2, #12, 0
    80e4:	e3a01000 	mov	r1, #0, 0
    80e8:	eb000290 	bl	8b30 <memset>
    80ec:	e3a03000 	mov	r3, #0, 0
    80f0:	e5843000 	str	r3, [r4]
    80f4:	e1550003 	cmp	r5, r3
    80f8:	0affffed 	beq	80b4 <test+0x7c>
    80fc:	e5953008 	ldr	r3, [r5, #8]
    8100:	e3530000 	cmp	r3, #0, 0
    8104:	1affffe2 	bne	8094 <test+0x5c>
    8108:	e5854008 	str	r4, [r5, #8]
    810c:	e5845004 	str	r5, [r4, #4]
    8110:	eaffffe7 	b	80b4 <test+0x7c>
    8114:	eb000217 	bl	8978 <check_no_leak>
    8118:	e1a00005 	mov	r0, r5
    811c:	e28dd01c 	add	sp, sp, #28, 0
    8120:	e8bd83f0 	pop	{r4, r5, r6, r7, r8, r9, pc}
    8124:	0000a108 	andeq	sl, r0, r8, lsl #2
    8128:	0000a1b0 			; <UNDEFINED> instruction: 0x0000a1b0
    812c:	0000a13c 	andeq	sl, r0, ip, lsr r1
    8130:	0000a128 	andeq	sl, r0, r8, lsr #2

00008134 <notmain>:
    8134:	e92d4010 	push	{r4, lr}
    8138:	e59f0018 	ldr	r0, [pc, #24]	; 8158 <notmain+0x24>
    813c:	eb000299 	bl	8ba8 <printk>
    8140:	ebffffbc 	bl	8038 <test>
    8144:	e1a02000 	mov	r2, r0
    8148:	e510109c 	ldr	r1, [r0, #-156]	; 0xffffff64
    814c:	e59f0008 	ldr	r0, [pc, #8]	; 815c <notmain+0x28>
    8150:	eb000294 	bl	8ba8 <printk>
    8154:	e8bd8010 	pop	{r4, pc}
    8158:	0000a148 	andeq	sl, r0, r8, asr #2
    815c:	0000a184 	andeq	sl, r0, r4, lsl #3

00008160 <ck_first_hdr>:
    8160:	e59f3004 	ldr	r3, [pc, #4]	; 816c <ck_first_hdr+0xc>
    8164:	e5930000 	ldr	r0, [r3]
    8168:	e12fff1e 	bx	lr
    816c:	0000a9b0 			; <UNDEFINED> instruction: 0x0000a9b0

00008170 <ck_next_hdr>:
    8170:	e3500000 	cmp	r0, #0, 0
    8174:	15900000 	ldrne	r0, [r0]
    8178:	e12fff1e 	bx	lr

0000817c <ck_hdr_start>:
    817c:	e28000a8 	add	r0, r0, #168, 0	; 0xa8
    8180:	e12fff1e 	bx	lr

00008184 <ck_hdr_end>:
    8184:	e5903004 	ldr	r3, [r0, #4]
    8188:	e28330a8 	add	r3, r3, #168, 0	; 0xa8
    818c:	e0800003 	add	r0, r0, r3
    8190:	e12fff1e 	bx	lr

00008194 <ck_ptr_in_block>:
    8194:	e5902004 	ldr	r2, [r0, #4]
    8198:	e28220a8 	add	r2, r2, #168, 0	; 0xa8
    819c:	e0802002 	add	r2, r0, r2
    81a0:	e28000a8 	add	r0, r0, #168, 0	; 0xa8
    81a4:	e1500001 	cmp	r0, r1
    81a8:	91510002 	cmpls	r1, r2
    81ac:	33a00001 	movcc	r0, #1, 0
    81b0:	23a00000 	movcs	r0, #0, 0
    81b4:	e12fff1e 	bx	lr

000081b8 <ck_ptr_is_alloced>:
    81b8:	e92d4070 	push	{r4, r5, r6, lr}
    81bc:	e1a05000 	mov	r5, r0
    81c0:	e59f3044 	ldr	r3, [pc, #68]	; 820c <ck_ptr_is_alloced+0x54>
    81c4:	e5934000 	ldr	r4, [r3]
    81c8:	e3540000 	cmp	r4, #0, 0
    81cc:	0a00000c 	beq	8204 <ck_ptr_is_alloced+0x4c>
    81d0:	e1a01005 	mov	r1, r5
    81d4:	e1a00004 	mov	r0, r4
    81d8:	ebffffed 	bl	8194 <ck_ptr_in_block>
    81dc:	e3500000 	cmp	r0, #0, 0
    81e0:	1a000003 	bne	81f4 <ck_ptr_is_alloced+0x3c>
    81e4:	e5944000 	ldr	r4, [r4]
    81e8:	e3540000 	cmp	r4, #0, 0
    81ec:	1afffff7 	bne	81d0 <ck_ptr_is_alloced+0x18>
    81f0:	ea000003 	b	8204 <ck_ptr_is_alloced+0x4c>
    81f4:	e1a02004 	mov	r2, r4
    81f8:	e1a01005 	mov	r1, r5
    81fc:	e59f000c 	ldr	r0, [pc, #12]	; 8210 <ck_ptr_is_alloced+0x58>
    8200:	eb000268 	bl	8ba8 <printk>
    8204:	e1a00004 	mov	r0, r4
    8208:	e8bd8070 	pop	{r4, r5, r6, pc}
    820c:	0000a9b0 			; <UNDEFINED> instruction: 0x0000a9b0
    8210:	0000a1b8 			; <UNDEFINED> instruction: 0x0000a1b8

00008214 <ckfree>:
    8214:	e92d41f0 	push	{r4, r5, r6, r7, r8, lr}
    8218:	e24dd018 	sub	sp, sp, #24, 0
    821c:	e1a04000 	mov	r4, r0
    8220:	e28d0018 	add	r0, sp, #24, 0
    8224:	e900000e 	stmdb	r0, {r1, r2, r3}
    8228:	e59d500c 	ldr	r5, [sp, #12]
    822c:	e59d6010 	ldr	r6, [sp, #16]
    8230:	e59d7014 	ldr	r7, [sp, #20]
    8234:	e1a03007 	mov	r3, r7
    8238:	e1a02006 	mov	r2, r6
    823c:	e1a01005 	mov	r1, r5
    8240:	e59f00ec 	ldr	r0, [pc, #236]	; 8334 <ckfree+0x120>
    8244:	eb000257 	bl	8ba8 <printk>
    8248:	e1a01004 	mov	r1, r4
    824c:	e59f00e4 	ldr	r0, [pc, #228]	; 8338 <ckfree+0x124>
    8250:	eb000254 	bl	8ba8 <printk>
    8254:	e51430a0 	ldr	r3, [r4, #-160]	; 0xffffff60
    8258:	e353000b 	cmp	r3, #11, 0
    825c:	1a00000e 	bne	829c <ckfree+0x88>
    8260:	e24480a8 	sub	r8, r4, #168, 0	; 0xa8
    8264:	e3a0300c 	mov	r3, #12, 0
    8268:	e50430a0 	str	r3, [r4, #-160]	; 0xffffff60
    826c:	e1a00004 	mov	r0, r4
    8270:	ebffffd0 	bl	81b8 <ck_ptr_is_alloced>
    8274:	e3500000 	cmp	r0, #0, 0
    8278:	0a000010 	beq	82c0 <ckfree+0xac>
    827c:	e59f30b8 	ldr	r3, [pc, #184]	; 833c <ckfree+0x128>
    8280:	e5933000 	ldr	r3, [r3]
    8284:	e1580003 	cmp	r8, r3
    8288:	1a000020 	bne	8310 <ckfree+0xfc>
    828c:	e51420a8 	ldr	r2, [r4, #-168]	; 0xffffff58
    8290:	e59f30a4 	ldr	r3, [pc, #164]	; 833c <ckfree+0x128>
    8294:	e5832000 	str	r2, [r3]
    8298:	ea000012 	b	82e8 <ckfree+0xd4>
    829c:	e1a03007 	mov	r3, r7
    82a0:	e1a02006 	mov	r2, r6
    82a4:	e1a01005 	mov	r1, r5
    82a8:	e59f0090 	ldr	r0, [pc, #144]	; 8340 <ckfree+0x12c>
    82ac:	eb00023d 	bl	8ba8 <printk>
    82b0:	e51410a0 	ldr	r1, [r4, #-160]	; 0xffffff60
    82b4:	e59f0088 	ldr	r0, [pc, #136]	; 8344 <ckfree+0x130>
    82b8:	eb00023a 	bl	8ba8 <printk>
    82bc:	eb0004ca 	bl	95ec <clean_reboot>
    82c0:	e59f3080 	ldr	r3, [pc, #128]	; 8348 <ckfree+0x134>
    82c4:	e58d3000 	str	r3, [sp]
    82c8:	e3a0305d 	mov	r3, #93, 0	; 0x5d
    82cc:	e59f2078 	ldr	r2, [pc, #120]	; 834c <ckfree+0x138>
    82d0:	e59f1078 	ldr	r1, [pc, #120]	; 8350 <ckfree+0x13c>
    82d4:	e59f0078 	ldr	r0, [pc, #120]	; 8354 <ckfree+0x140>
    82d8:	eb000232 	bl	8ba8 <printk>
    82dc:	eb0004c2 	bl	95ec <clean_reboot>
    82e0:	e5922000 	ldr	r2, [r2]
    82e4:	e5832000 	str	r2, [r3]
    82e8:	e1a00008 	mov	r0, r8
    82ec:	eb000040 	bl	83f4 <kr_free>
    82f0:	e28dd018 	add	sp, sp, #24, 0
    82f4:	e8bd81f0 	pop	{r4, r5, r6, r7, r8, pc}
    82f8:	e5932000 	ldr	r2, [r3]
    82fc:	e3520000 	cmp	r2, #0, 0
    8300:	0a000004 	beq	8318 <ckfree+0x104>
    8304:	e1580002 	cmp	r8, r2
    8308:	0afffff4 	beq	82e0 <ckfree+0xcc>
    830c:	e1a03002 	mov	r3, r2
    8310:	e3530000 	cmp	r3, #0, 0
    8314:	1afffff7 	bne	82f8 <ckfree+0xe4>
    8318:	e58d8000 	str	r8, [sp]
    831c:	e3a0304f 	mov	r3, #79, 0	; 0x4f
    8320:	e59f2030 	ldr	r2, [pc, #48]	; 8358 <ckfree+0x144>
    8324:	e59f1024 	ldr	r1, [pc, #36]	; 8350 <ckfree+0x13c>
    8328:	e59f002c 	ldr	r0, [pc, #44]	; 835c <ckfree+0x148>
    832c:	eb00021d 	bl	8ba8 <printk>
    8330:	eb0004ad 	bl	95ec <clean_reboot>
    8334:	0000a1c8 	andeq	sl, r0, r8, asr #3
    8338:	0000a1d4 	ldrdeq	sl, [r0], -r4
    833c:	0000a9b0 			; <UNDEFINED> instruction: 0x0000a9b0
    8340:	0000a1e4 	andeq	sl, r0, r4, ror #3
    8344:	0000a1fc 	strdeq	sl, [r0], -ip
    8348:	0000a230 	andeq	sl, r0, r0, lsr r2
    834c:	0000a290 	muleq	r0, r0, r2
    8350:	0000a224 	andeq	sl, r0, r4, lsr #4
    8354:	0000a128 	andeq	sl, r0, r8, lsr #2
    8358:	0000a298 	muleq	r0, r8, r2
    835c:	0000a248 	andeq	sl, r0, r8, asr #4

00008360 <ckalloc>:
    8360:	e92d4070 	push	{r4, r5, r6, lr}
    8364:	e24dd010 	sub	sp, sp, #16, 0
    8368:	e1a06000 	mov	r6, r0
    836c:	e28d5004 	add	r5, sp, #4, 0
    8370:	e885000e 	stm	r5, {r1, r2, r3}
    8374:	e28000a8 	add	r0, r0, #168, 0	; 0xa8
    8378:	eb000046 	bl	8498 <kr_malloc>
    837c:	e1a04000 	mov	r4, r0
    8380:	e3a020a8 	mov	r2, #168, 0	; 0xa8
    8384:	e3a01000 	mov	r1, #0, 0
    8388:	eb0001e8 	bl	8b30 <memset>
    838c:	e5846004 	str	r6, [r4, #4]
    8390:	e3a0300b 	mov	r3, #11, 0
    8394:	e5843008 	str	r3, [r4, #8]
    8398:	e2843010 	add	r3, r4, #16, 0
    839c:	e8950007 	ldm	r5, {r0, r1, r2}
    83a0:	e8830007 	stm	r3, {r0, r1, r2}
    83a4:	e59d300c 	ldr	r3, [sp, #12]
    83a8:	e59d2008 	ldr	r2, [sp, #8]
    83ac:	e59d1004 	ldr	r1, [sp, #4]
    83b0:	e59f0030 	ldr	r0, [pc, #48]	; 83e8 <ckalloc+0x88>
    83b4:	eb0001fb 	bl	8ba8 <printk>
    83b8:	e28450a8 	add	r5, r4, #168, 0	; 0xa8
    83bc:	e1a02006 	mov	r2, r6
    83c0:	e1a01005 	mov	r1, r5
    83c4:	e59f0020 	ldr	r0, [pc, #32]	; 83ec <ckalloc+0x8c>
    83c8:	eb0001f6 	bl	8ba8 <printk>
    83cc:	e59f301c 	ldr	r3, [pc, #28]	; 83f0 <ckalloc+0x90>
    83d0:	e5932000 	ldr	r2, [r3]
    83d4:	e5842000 	str	r2, [r4]
    83d8:	e5834000 	str	r4, [r3]
    83dc:	e1a00005 	mov	r0, r5
    83e0:	e28dd010 	add	sp, sp, #16, 0
    83e4:	e8bd8070 	pop	{r4, r5, r6, pc}
    83e8:	0000a1c8 	andeq	sl, r0, r8, asr #3
    83ec:	0000a274 	andeq	sl, r0, r4, ror r2
    83f0:	0000a9b0 			; <UNDEFINED> instruction: 0x0000a9b0

000083f4 <kr_free>:
    83f4:	e52de004 	push	{lr}		; (str lr, [sp, #-4]!)
    83f8:	e2401008 	sub	r1, r0, #8, 0
    83fc:	e59f3090 	ldr	r3, [pc, #144]	; 8494 <kr_free+0xa0>
    8400:	e5933000 	ldr	r3, [r3]
    8404:	ea000005 	b	8420 <kr_free+0x2c>
    8408:	e5932000 	ldr	r2, [r3]
    840c:	e1520003 	cmp	r2, r3
    8410:	8a000001 	bhi	841c <kr_free+0x28>
    8414:	e1520001 	cmp	r2, r1
    8418:	8a000007 	bhi	843c <kr_free+0x48>
    841c:	e1a03002 	mov	r3, r2
    8420:	e1530001 	cmp	r3, r1
    8424:	2afffff7 	bcs	8408 <kr_free+0x14>
    8428:	e5932000 	ldr	r2, [r3]
    842c:	e1520001 	cmp	r2, r1
    8430:	8a000001 	bhi	843c <kr_free+0x48>
    8434:	e1520003 	cmp	r2, r3
    8438:	8afffff7 	bhi	841c <kr_free+0x28>
    843c:	e510c004 	ldr	ip, [r0, #-4]
    8440:	e5932000 	ldr	r2, [r3]
    8444:	e081e18c 	add	lr, r1, ip, lsl #3
    8448:	e152000e 	cmp	r2, lr
    844c:	05922004 	ldreq	r2, [r2, #4]
    8450:	0082c00c 	addeq	ip, r2, ip
    8454:	0500c004 	streq	ip, [r0, #-4]
    8458:	05932000 	ldreq	r2, [r3]
    845c:	05922000 	ldreq	r2, [r2]
    8460:	e5002008 	str	r2, [r0, #-8]
    8464:	e5932004 	ldr	r2, [r3, #4]
    8468:	e083c182 	add	ip, r3, r2, lsl #3
    846c:	e151000c 	cmp	r1, ip
    8470:	05101004 	ldreq	r1, [r0, #-4]
    8474:	00812002 	addeq	r2, r1, r2
    8478:	05832004 	streq	r2, [r3, #4]
    847c:	05102008 	ldreq	r2, [r0, #-8]
    8480:	05832000 	streq	r2, [r3]
    8484:	15831000 	strne	r1, [r3]
    8488:	e59f2004 	ldr	r2, [pc, #4]	; 8494 <kr_free+0xa0>
    848c:	e5823000 	str	r3, [r2]
    8490:	e49df004 	pop	{pc}		; (ldr pc, [sp], #4)
    8494:	0000a9b8 			; <UNDEFINED> instruction: 0x0000a9b8

00008498 <kr_malloc>:
    8498:	e92d41f0 	push	{r4, r5, r6, r7, r8, lr}
    849c:	e2804007 	add	r4, r0, #7, 0
    84a0:	e1a041a4 	lsr	r4, r4, #3
    84a4:	e2844001 	add	r4, r4, #1, 0
    84a8:	e59f30cc 	ldr	r3, [pc, #204]	; 857c <kr_malloc+0xe4>
    84ac:	e5930000 	ldr	r0, [r3]
    84b0:	e3500000 	cmp	r0, #0, 0
    84b4:	0a000007 	beq	84d8 <kr_malloc+0x40>
    84b8:	e5903000 	ldr	r3, [r0]
    84bc:	e5932004 	ldr	r2, [r3, #4]
    84c0:	e1540002 	cmp	r4, r2
    84c4:	9a00000a 	bls	84f4 <kr_malloc+0x5c>
    84c8:	e59f50ac 	ldr	r5, [pc, #172]	; 857c <kr_malloc+0xe4>
    84cc:	e59f70ac 	ldr	r7, [pc, #172]	; 8580 <kr_malloc+0xe8>
    84d0:	e3a06902 	mov	r6, #32768	; 0x8000
    84d4:	ea00001b 	b	8548 <kr_malloc+0xb0>
    84d8:	e1a02003 	mov	r2, r3
    84dc:	e2833008 	add	r3, r3, #8, 0
    84e0:	e5823000 	str	r3, [r2]
    84e4:	e5823008 	str	r3, [r2, #8]
    84e8:	e3a01000 	mov	r1, #0, 0
    84ec:	e582100c 	str	r1, [r2, #12]
    84f0:	eafffff4 	b	84c8 <kr_malloc+0x30>
    84f4:	e1540002 	cmp	r4, r2
    84f8:	05932000 	ldreq	r2, [r3]
    84fc:	05802000 	streq	r2, [r0]
    8500:	10422004 	subne	r2, r2, r4
    8504:	15832004 	strne	r2, [r3, #4]
    8508:	10833182 	addne	r3, r3, r2, lsl #3
    850c:	15834004 	strne	r4, [r3, #4]
    8510:	e59f2064 	ldr	r2, [pc, #100]	; 857c <kr_malloc+0xe4>
    8514:	e5820000 	str	r0, [r2]
    8518:	e2830008 	add	r0, r3, #8, 0
    851c:	e8bd81f0 	pop	{r4, r5, r6, r7, r8, pc}
    8520:	e5806004 	str	r6, [r0, #4]
    8524:	e2800008 	add	r0, r0, #8, 0
    8528:	ebffffb1 	bl	83f4 <kr_free>
    852c:	e5950000 	ldr	r0, [r5]
    8530:	e3500000 	cmp	r0, #0, 0
    8534:	08bd81f0 	popeq	{r4, r5, r6, r7, r8, pc}
    8538:	e5903000 	ldr	r3, [r0]
    853c:	e5932004 	ldr	r2, [r3, #4]
    8540:	e1520004 	cmp	r2, r4
    8544:	2affffea 	bcs	84f4 <kr_malloc+0x5c>
    8548:	e5952000 	ldr	r2, [r5]
    854c:	e1520003 	cmp	r2, r3
    8550:	11a00003 	movne	r0, r3
    8554:	1afffff7 	bne	8538 <kr_malloc+0xa0>
    8558:	e1a01006 	mov	r1, r6
    855c:	e1a00007 	mov	r0, r7
    8560:	eb000190 	bl	8ba8 <printk>
    8564:	e3a00701 	mov	r0, #262144	; 0x40000
    8568:	eb0000d6 	bl	88c8 <sbrk>
    856c:	e3700001 	cmn	r0, #1, 0
    8570:	1affffea 	bne	8520 <kr_malloc+0x88>
    8574:	e3a00000 	mov	r0, #0, 0
    8578:	e8bd81f0 	pop	{r4, r5, r6, r7, r8, pc}
    857c:	0000a9b8 			; <UNDEFINED> instruction: 0x0000a9b8
    8580:	0000a2a4 	andeq	sl, r0, r4, lsr #5

00008584 <mark>:
    8584:	e92d4ff0 	push	{r4, r5, r6, r7, r8, r9, sl, fp, lr}
    8588:	e24dd00c 	sub	sp, sp, #12, 0
    858c:	e1500001 	cmp	r0, r1
    8590:	2a00000b 	bcs	85c4 <mark+0x40>
    8594:	e1a04000 	mov	r4, r0
    8598:	e3100003 	tst	r0, #3, 0
    859c:	1a000010 	bne	85e4 <mark+0x60>
    85a0:	e3110003 	tst	r1, #3, 0
    85a4:	1a000016 	bne	8604 <mark+0x80>
    85a8:	e0416000 	sub	r6, r1, r0
    85ac:	e3c66003 	bic	r6, r6, #3, 0
    85b0:	e2800004 	add	r0, r0, #4, 0
    85b4:	e0866000 	add	r6, r6, r0
    85b8:	e59f8128 	ldr	r8, [pc, #296]	; 86e8 <mark+0x164>
    85bc:	e59fb128 	ldr	fp, [pc, #296]	; 86ec <mark+0x168>
    85c0:	ea00001b 	b	8634 <mark+0xb0>
    85c4:	e59f3124 	ldr	r3, [pc, #292]	; 86f0 <mark+0x16c>
    85c8:	e58d3000 	str	r3, [sp]
    85cc:	e3a03052 	mov	r3, #82, 0	; 0x52
    85d0:	e59f211c 	ldr	r2, [pc, #284]	; 86f4 <mark+0x170>
    85d4:	e59f111c 	ldr	r1, [pc, #284]	; 86f8 <mark+0x174>
    85d8:	e59f011c 	ldr	r0, [pc, #284]	; 86fc <mark+0x178>
    85dc:	eb000171 	bl	8ba8 <printk>
    85e0:	eb000401 	bl	95ec <clean_reboot>
    85e4:	e59f3114 	ldr	r3, [pc, #276]	; 8700 <mark+0x17c>
    85e8:	e58d3000 	str	r3, [sp]
    85ec:	e3a03055 	mov	r3, #85, 0	; 0x55
    85f0:	e59f20fc 	ldr	r2, [pc, #252]	; 86f4 <mark+0x170>
    85f4:	e59f10fc 	ldr	r1, [pc, #252]	; 86f8 <mark+0x174>
    85f8:	e59f00fc 	ldr	r0, [pc, #252]	; 86fc <mark+0x178>
    85fc:	eb000169 	bl	8ba8 <printk>
    8600:	eb0003f9 	bl	95ec <clean_reboot>
    8604:	e59f30f8 	ldr	r3, [pc, #248]	; 8704 <mark+0x180>
    8608:	e58d3000 	str	r3, [sp]
    860c:	e3a03056 	mov	r3, #86, 0	; 0x56
    8610:	e59f20dc 	ldr	r2, [pc, #220]	; 86f4 <mark+0x170>
    8614:	e59f10dc 	ldr	r1, [pc, #220]	; 86f8 <mark+0x174>
    8618:	e59f00dc 	ldr	r0, [pc, #220]	; 86fc <mark+0x178>
    861c:	eb000161 	bl	8ba8 <printk>
    8620:	eb0003f1 	bl	95ec <clean_reboot>
    8624:	e59f00dc 	ldr	r0, [pc, #220]	; 8708 <mark+0x184>
    8628:	eb00015e 	bl	8ba8 <printk>
    862c:	e1540006 	cmp	r4, r6
    8630:	0a00002a 	beq	86e0 <mark+0x15c>
    8634:	e1a07004 	mov	r7, r4
    8638:	e2844004 	add	r4, r4, #4, 0
    863c:	e5970000 	ldr	r0, [r7]
    8640:	e5983000 	ldr	r3, [r8]
    8644:	e1500003 	cmp	r0, r3
    8648:	3afffff7 	bcc	862c <mark+0xa8>
    864c:	e5983004 	ldr	r3, [r8, #4]
    8650:	e1500003 	cmp	r0, r3
    8654:	2afffff4 	bcs	862c <mark+0xa8>
    8658:	ebfffed6 	bl	81b8 <ck_ptr_is_alloced>
    865c:	e2505000 	subs	r5, r0, #0, 0
    8660:	0afffff1 	beq	862c <mark+0xa8>
    8664:	e28590a8 	add	r9, r5, #168, 0	; 0xa8
    8668:	e1d5a2b4 	ldrh	sl, [r5, #36]	; 0x24
    866c:	e1a00005 	mov	r0, r5
    8670:	ebfffec1 	bl	817c <ck_hdr_start>
    8674:	e1a01000 	mov	r1, r0
    8678:	e5143004 	ldr	r3, [r4, #-4]
    867c:	e58d9000 	str	r9, [sp]
    8680:	e1a02007 	mov	r2, r7
    8684:	e1a0000b 	mov	r0, fp
    8688:	eb000146 	bl	8ba8 <printk>
    868c:	e35a0001 	cmp	sl, #1, 0
    8690:	8affffe3 	bhi	8624 <mark+0xa0>
    8694:	e5143004 	ldr	r3, [r4, #-4]
    8698:	e1530009 	cmp	r3, r9
    869c:	03a03002 	moveq	r3, #2, 0
    86a0:	13a03001 	movne	r3, #1, 0
    86a4:	e1c532b4 	strh	r3, [r5, #36]	; 0x24
    86a8:	e5141004 	ldr	r1, [r4, #-4]
    86ac:	e1510009 	cmp	r1, r9
    86b0:	03a01002 	moveq	r1, #2, 0
    86b4:	13a01001 	movne	r1, #1, 0
    86b8:	e59f004c 	ldr	r0, [pc, #76]	; 870c <mark+0x188>
    86bc:	eb000139 	bl	8ba8 <printk>
    86c0:	e35a0000 	cmp	sl, #0, 0
    86c4:	1affffd8 	bne	862c <mark+0xa8>
    86c8:	e5951004 	ldr	r1, [r5, #4]
    86cc:	e28110a8 	add	r1, r1, #168, 0	; 0xa8
    86d0:	e0851001 	add	r1, r5, r1
    86d4:	e2850004 	add	r0, r5, #4, 0
    86d8:	ebffffa9 	bl	8584 <mark>
    86dc:	eaffffd2 	b	862c <mark+0xa8>
    86e0:	e28dd00c 	add	sp, sp, #12, 0
    86e4:	e8bd8ff0 	pop	{r4, r5, r6, r7, r8, r9, sl, fp, pc}
    86e8:	0000a9c8 	andeq	sl, r0, r8, asr #19
    86ec:	0000a2f8 	strdeq	sl, [r0], -r8
    86f0:	0000a2d0 	ldrdeq	sl, [r0], -r0
    86f4:	0000a5e0 	andeq	sl, r0, r0, ror #11
    86f8:	0000a2c8 	andeq	sl, r0, r8, asr #5
    86fc:	0000a128 	andeq	sl, r0, r8, lsr #2
    8700:	0000a2d8 	ldrdeq	sl, [r0], -r8
    8704:	0000a2e8 	andeq	sl, r0, r8, ror #5
    8708:	0000a334 	andeq	sl, r0, r4, lsr r3
    870c:	0000a324 	andeq	sl, r0, r4, lsr #6

00008710 <mark_all>:
    8710:	e92d4010 	push	{r4, lr}
    8714:	e24dd040 	sub	sp, sp, #64, 0	; 0x40
    8718:	ebfffe90 	bl	8160 <ck_first_hdr>
    871c:	e3500000 	cmp	r0, #0, 0
    8720:	0a000006 	beq	8740 <mark_all+0x30>
    8724:	e3a04000 	mov	r4, #0, 0
    8728:	e5804020 	str	r4, [r0, #32]
    872c:	e580401c 	str	r4, [r0, #28]
    8730:	e1c042b4 	strh	r4, [r0, #36]	; 0x24
    8734:	ebfffe8d 	bl	8170 <ck_next_hdr>
    8738:	e3500000 	cmp	r0, #0, 0
    873c:	1afffff9 	bne	8728 <mark_all+0x18>
    8740:	e1a0000d 	mov	r0, sp
    8744:	eb0000f7 	bl	8b28 <dump_regs>
    8748:	e3a03000 	mov	r3, #0, 0
    874c:	e58d3000 	str	r3, [sp]
    8750:	e58d3004 	str	r3, [sp, #4]
    8754:	e58d3008 	str	r3, [sp, #8]
    8758:	e58d300c 	str	r3, [sp, #12]
    875c:	e28d1038 	add	r1, sp, #56, 0	; 0x38
    8760:	e1a0000d 	mov	r0, sp
    8764:	ebffff86 	bl	8584 <mark>
    8768:	e3a02302 	mov	r2, #134217728	; 0x8000000
    876c:	e59d1034 	ldr	r1, [sp, #52]	; 0x34
    8770:	e59f002c 	ldr	r0, [pc, #44]	; 87a4 <mark_all+0x94>
    8774:	eb00010b 	bl	8ba8 <printk>
    8778:	e3a01302 	mov	r1, #134217728	; 0x8000000
    877c:	e59d0034 	ldr	r0, [sp, #52]	; 0x34
    8780:	ebffff7f 	bl	8584 <mark>
    8784:	e59f101c 	ldr	r1, [pc, #28]	; 87a8 <mark_all+0x98>
    8788:	e59f001c 	ldr	r0, [pc, #28]	; 87ac <mark_all+0x9c>
    878c:	ebffff7c 	bl	8584 <mark>
    8790:	e59f1018 	ldr	r1, [pc, #24]	; 87b0 <mark_all+0xa0>
    8794:	e59f0018 	ldr	r0, [pc, #24]	; 87b4 <mark_all+0xa4>
    8798:	ebffff79 	bl	8584 <mark>
    879c:	e28dd040 	add	sp, sp, #64, 0	; 0x40
    87a0:	e8bd8010 	pop	{r4, pc}
    87a4:	0000a344 	andeq	sl, r0, r4, asr #6
    87a8:	0000add8 	ldrdeq	sl, [r0], -r8
    87ac:	0000a9b0 			; <UNDEFINED> instruction: 0x0000a9b0
    87b0:	0000a9b0 			; <UNDEFINED> instruction: 0x0000a9b0
    87b4:	0000a99c 	muleq	r0, ip, r9

000087b8 <sweep_leak>:
    87b8:	e92d47f0 	push	{r4, r5, r6, r7, r8, r9, sl, lr}
    87bc:	e1a08000 	mov	r8, r0
    87c0:	e59f00e0 	ldr	r0, [pc, #224]	; 88a8 <sweep_leak+0xf0>
    87c4:	eb0000f7 	bl	8ba8 <printk>
    87c8:	e59f00dc 	ldr	r0, [pc, #220]	; 88ac <sweep_leak+0xf4>
    87cc:	eb0000f5 	bl	8ba8 <printk>
    87d0:	ebffffce 	bl	8710 <mark_all>
    87d4:	ebfffe61 	bl	8160 <ck_first_hdr>
    87d8:	e2504000 	subs	r4, r0, #0, 0
    87dc:	0a000024 	beq	8874 <sweep_leak+0xbc>
    87e0:	e3a07000 	mov	r7, #0, 0
    87e4:	e1a06007 	mov	r6, r7
    87e8:	e1a05007 	mov	r5, r7
    87ec:	e59fa0bc 	ldr	sl, [pc, #188]	; 88b0 <sweep_leak+0xf8>
    87f0:	e59f90bc 	ldr	r9, [pc, #188]	; 88b4 <sweep_leak+0xfc>
    87f4:	ea000008 	b	881c <sweep_leak+0x64>
    87f8:	e2866001 	add	r6, r6, #1, 0
    87fc:	e1a02004 	mov	r2, r4
    8800:	e1a01005 	mov	r1, r5
    8804:	e1a00009 	mov	r0, r9
    8808:	eb0000e6 	bl	8ba8 <printk>
    880c:	e1a00004 	mov	r0, r4
    8810:	ebfffe56 	bl	8170 <ck_next_hdr>
    8814:	e2504000 	subs	r4, r0, #0, 0
    8818:	0a00000b 	beq	884c <sweep_leak+0x94>
    881c:	e2855001 	add	r5, r5, #1, 0
    8820:	e1d432b4 	ldrh	r3, [r4, #36]	; 0x24
    8824:	e3530000 	cmp	r3, #0, 0
    8828:	0afffff2 	beq	87f8 <sweep_leak+0x40>
    882c:	e3530001 	cmp	r3, #1, 0
    8830:	1afffff5 	bne	880c <sweep_leak+0x54>
    8834:	e2877001 	add	r7, r7, #1, 0
    8838:	e1a02004 	mov	r2, r4
    883c:	e1a01005 	mov	r1, r5
    8840:	e1a0000a 	mov	r0, sl
    8844:	eb0000d7 	bl	8ba8 <printk>
    8848:	eaffffef 	b	880c <sweep_leak+0x54>
    884c:	e1a01005 	mov	r1, r5
    8850:	e59f0060 	ldr	r0, [pc, #96]	; 88b8 <sweep_leak+0x100>
    8854:	eb0000d3 	bl	8ba8 <printk>
    8858:	e1963007 	orrs	r3, r6, r7
    885c:	0a000009 	beq	8888 <sweep_leak+0xd0>
    8860:	e1a02007 	mov	r2, r7
    8864:	e1a01006 	mov	r1, r6
    8868:	e59f004c 	ldr	r0, [pc, #76]	; 88bc <sweep_leak+0x104>
    886c:	eb0000cd 	bl	8ba8 <printk>
    8870:	ea000006 	b	8890 <sweep_leak+0xd8>
    8874:	e3a01000 	mov	r1, #0, 0
    8878:	e59f0038 	ldr	r0, [pc, #56]	; 88b8 <sweep_leak+0x100>
    887c:	eb0000c9 	bl	8ba8 <printk>
    8880:	e3a07000 	mov	r7, #0, 0
    8884:	e1a06007 	mov	r6, r7
    8888:	e59f0030 	ldr	r0, [pc, #48]	; 88c0 <sweep_leak+0x108>
    888c:	eb0000c5 	bl	8ba8 <printk>
    8890:	e59f002c 	ldr	r0, [pc, #44]	; 88c4 <sweep_leak+0x10c>
    8894:	eb0000c3 	bl	8ba8 <printk>
    8898:	e3580000 	cmp	r8, #0, 0
    889c:	10866007 	addne	r6, r6, r7
    88a0:	e1a00006 	mov	r0, r6
    88a4:	e8bd87f0 	pop	{r4, r5, r6, r7, r8, r9, sl, pc}
    88a8:	0000a360 	andeq	sl, r0, r0, ror #6
    88ac:	0000a39c 	muleq	r0, ip, r3
    88b0:	0000a3c8 	andeq	sl, r0, r8, asr #7
    88b4:	0000a3b4 			; <UNDEFINED> instruction: 0x0000a3b4
    88b8:	0000a3e0 	andeq	sl, r0, r0, ror #7
    88bc:	0000a428 	andeq	sl, r0, r8, lsr #8
    88c0:	0000a400 	andeq	sl, r0, r0, lsl #8
    88c4:	0000a458 	andeq	sl, r0, r8, asr r4

000088c8 <sbrk>:
    88c8:	e92d4030 	push	{r4, r5, lr}
    88cc:	e24dd00c 	sub	sp, sp, #12, 0
    88d0:	e2504000 	subs	r4, r0, #0, 0
    88d4:	da000010 	ble	891c <sbrk+0x54>
    88d8:	e59f3074 	ldr	r3, [pc, #116]	; 8954 <sbrk+0x8c>
    88dc:	e5933008 	ldr	r3, [r3, #8]
    88e0:	e3530000 	cmp	r3, #0, 0
    88e4:	1a000014 	bne	893c <sbrk+0x74>
    88e8:	e59f5064 	ldr	r5, [pc, #100]	; 8954 <sbrk+0x8c>
    88ec:	e3a00601 	mov	r0, #1048576	; 0x100000
    88f0:	e5850000 	str	r0, [r5]
    88f4:	e3a03602 	mov	r3, #2097152	; 0x200000
    88f8:	e5853004 	str	r3, [r5, #4]
    88fc:	e1a01000 	mov	r1, r0
    8900:	eb000475 	bl	9adc <kmalloc_init_set_start>
    8904:	e3a03001 	mov	r3, #1, 0
    8908:	e5853008 	str	r3, [r5, #8]
    890c:	e1a00004 	mov	r0, r4
    8910:	eb0004d4 	bl	9c68 <kmalloc>
    8914:	e28dd00c 	add	sp, sp, #12, 0
    8918:	e8bd8030 	pop	{r4, r5, pc}
    891c:	e59f3034 	ldr	r3, [pc, #52]	; 8958 <sbrk+0x90>
    8920:	e58d3000 	str	r3, [sp]
    8924:	e3a03017 	mov	r3, #23, 0
    8928:	e59f202c 	ldr	r2, [pc, #44]	; 895c <sbrk+0x94>
    892c:	e59f102c 	ldr	r1, [pc, #44]	; 8960 <sbrk+0x98>
    8930:	e59f002c 	ldr	r0, [pc, #44]	; 8964 <sbrk+0x9c>
    8934:	eb00009b 	bl	8ba8 <printk>
    8938:	eb00032b 	bl	95ec <clean_reboot>
    893c:	e3a03019 	mov	r3, #25, 0
    8940:	e59f2014 	ldr	r2, [pc, #20]	; 895c <sbrk+0x94>
    8944:	e59f1014 	ldr	r1, [pc, #20]	; 8960 <sbrk+0x98>
    8948:	e59f0018 	ldr	r0, [pc, #24]	; 8968 <sbrk+0xa0>
    894c:	eb000095 	bl	8ba8 <printk>
    8950:	eb000325 	bl	95ec <clean_reboot>
    8954:	0000a9c8 	andeq	sl, r0, r8, asr #19
    8958:	0000a494 	muleq	r0, r4, r4
    895c:	0000a5e8 	andeq	sl, r0, r8, ror #11
    8960:	0000a2c8 	andeq	sl, r0, r8, asr #5
    8964:	0000a128 	andeq	sl, r0, r8, lsr #2
    8968:	0000a4a4 	andeq	sl, r0, r4, lsr #9

0000896c <ck_find_leaks>:
    896c:	e92d4010 	push	{r4, lr}
    8970:	ebffff90 	bl	87b8 <sweep_leak>
    8974:	e8bd8010 	pop	{r4, pc}

00008978 <check_no_leak>:
    8978:	e92d4010 	push	{r4, lr}
    897c:	e3a00001 	mov	r0, #1, 0
    8980:	ebffff8c 	bl	87b8 <sweep_leak>
    8984:	e3500000 	cmp	r0, #0, 0
    8988:	1a000002 	bne	8998 <check_no_leak+0x20>
    898c:	e59f001c 	ldr	r0, [pc, #28]	; 89b0 <check_no_leak+0x38>
    8990:	eb000084 	bl	8ba8 <printk>
    8994:	e8bd8010 	pop	{r4, pc}
    8998:	e3a030dc 	mov	r3, #220, 0	; 0xdc
    899c:	e59f2010 	ldr	r2, [pc, #16]	; 89b4 <check_no_leak+0x3c>
    89a0:	e59f1010 	ldr	r1, [pc, #16]	; 89b8 <check_no_leak+0x40>
    89a4:	e59f0010 	ldr	r0, [pc, #16]	; 89bc <check_no_leak+0x44>
    89a8:	eb00007e 	bl	8ba8 <printk>
    89ac:	eb00030e 	bl	95ec <clean_reboot>
    89b0:	0000a4f0 	strdeq	sl, [r0], -r0
    89b4:	0000a5f0 	strdeq	sl, [r0], -r0
    89b8:	0000a2c8 	andeq	sl, r0, r8, asr #5
    89bc:	0000a4c4 	andeq	sl, r0, r4, asr #9

000089c0 <check_should_leak>:
    89c0:	e92d4010 	push	{r4, lr}
    89c4:	e3a00001 	mov	r0, #1, 0
    89c8:	ebffff7a 	bl	87b8 <sweep_leak>
    89cc:	e2504000 	subs	r4, r0, #0, 0
    89d0:	0a000004 	beq	89e8 <check_should_leak+0x28>
    89d4:	e1a01004 	mov	r1, r4
    89d8:	e59f0020 	ldr	r0, [pc, #32]	; 8a00 <check_should_leak+0x40>
    89dc:	eb000071 	bl	8ba8 <printk>
    89e0:	e1a00004 	mov	r0, r4
    89e4:	e8bd8010 	pop	{r4, pc}
    89e8:	e3a030eb 	mov	r3, #235, 0	; 0xeb
    89ec:	e59f2010 	ldr	r2, [pc, #16]	; 8a04 <check_should_leak+0x44>
    89f0:	e59f1010 	ldr	r1, [pc, #16]	; 8a08 <check_should_leak+0x48>
    89f4:	e59f0010 	ldr	r0, [pc, #16]	; 8a0c <check_should_leak+0x4c>
    89f8:	eb00006a 	bl	8ba8 <printk>
    89fc:	eb0002fa 	bl	95ec <clean_reboot>
    8a00:	0000a538 	andeq	sl, r0, r8, lsr r5
    8a04:	0000a600 	andeq	sl, r0, r0, lsl #12
    8a08:	0000a2c8 	andeq	sl, r0, r8, asr #5
    8a0c:	0000a510 	andeq	sl, r0, r0, lsl r5

00008a10 <ck_gc>:
    8a10:	e92d4ff0 	push	{r4, r5, r6, r7, r8, r9, sl, fp, lr}
    8a14:	e24dd014 	sub	sp, sp, #20, 0
    8a18:	ebffff3c 	bl	8710 <mark_all>
    8a1c:	e59f00bc 	ldr	r0, [pc, #188]	; 8ae0 <ck_gc+0xd0>
    8a20:	eb000060 	bl	8ba8 <printk>
    8a24:	e59f00b8 	ldr	r0, [pc, #184]	; 8ae4 <ck_gc+0xd4>
    8a28:	eb00005e 	bl	8ba8 <printk>
    8a2c:	ebffff37 	bl	8710 <mark_all>
    8a30:	ebfffdca 	bl	8160 <ck_first_hdr>
    8a34:	e2504000 	subs	r4, r0, #0, 0
    8a38:	0a00001d 	beq	8ab4 <ck_gc+0xa4>
    8a3c:	e3a05000 	mov	r5, #0, 0
    8a40:	e1a08005 	mov	r8, r5
    8a44:	e1a07005 	mov	r7, r5
    8a48:	e59fb098 	ldr	fp, [pc, #152]	; 8ae8 <ck_gc+0xd8>
    8a4c:	e59fa098 	ldr	sl, [pc, #152]	; 8aec <ck_gc+0xdc>
    8a50:	e28d9004 	add	r9, sp, #4, 0
    8a54:	ea000011 	b	8aa0 <ck_gc+0x90>
    8a58:	e2888001 	add	r8, r8, #1, 0
    8a5c:	e5943004 	ldr	r3, [r4, #4]
    8a60:	e0855003 	add	r5, r5, r3
    8a64:	e28460a8 	add	r6, r4, #168, 0	; 0xa8
    8a68:	e58db004 	str	fp, [sp, #4]
    8a6c:	e58da008 	str	sl, [sp, #8]
    8a70:	e59f3078 	ldr	r3, [pc, #120]	; 8af0 <ck_gc+0xe0>
    8a74:	e58d300c 	str	r3, [sp, #12]
    8a78:	e899000e 	ldm	r9, {r1, r2, r3}
    8a7c:	e1a00006 	mov	r0, r6
    8a80:	ebfffde3 	bl	8214 <ckfree>
    8a84:	e1a01006 	mov	r1, r6
    8a88:	e59f0064 	ldr	r0, [pc, #100]	; 8af4 <ck_gc+0xe4>
    8a8c:	eb000045 	bl	8ba8 <printk>
    8a90:	e1a00004 	mov	r0, r4
    8a94:	ebfffdb5 	bl	8170 <ck_next_hdr>
    8a98:	e2504000 	subs	r4, r0, #0, 0
    8a9c:	0a000007 	beq	8ac0 <ck_gc+0xb0>
    8aa0:	e2877001 	add	r7, r7, #1, 0
    8aa4:	e1d432b4 	ldrh	r3, [r4, #36]	; 0x24
    8aa8:	e3530000 	cmp	r3, #0, 0
    8aac:	1afffff7 	bne	8a90 <ck_gc+0x80>
    8ab0:	eaffffe8 	b	8a58 <ck_gc+0x48>
    8ab4:	e3a05000 	mov	r5, #0, 0
    8ab8:	e1a08005 	mov	r8, r5
    8abc:	e1a07005 	mov	r7, r5
    8ac0:	e1a03005 	mov	r3, r5
    8ac4:	e1a02008 	mov	r2, r8
    8ac8:	e1a01007 	mov	r1, r7
    8acc:	e59f0024 	ldr	r0, [pc, #36]	; 8af8 <ck_gc+0xe8>
    8ad0:	eb000034 	bl	8ba8 <printk>
    8ad4:	e1a00005 	mov	r0, r5
    8ad8:	e28dd014 	add	sp, sp, #20, 0
    8adc:	e8bd8ff0 	pop	{r4, r5, r6, r7, r8, r9, sl, fp, pc}
    8ae0:	0000a360 	andeq	sl, r0, r0, ror #6
    8ae4:	0000a55c 	andeq	sl, r0, ip, asr r5
    8ae8:	0000a2c8 	andeq	sl, r0, r8, asr #5
    8aec:	0000a614 	andeq	sl, r0, r4, lsl r6
    8af0:	00000101 	andeq	r0, r0, r1, lsl #2
    8af4:	0000a56c 	andeq	sl, r0, ip, ror #10
    8af8:	0000a57c 	andeq	sl, r0, ip, ror r5

00008afc <implement_this>:
    8afc:	e92d4010 	push	{r4, lr}
    8b00:	e59f3010 	ldr	r3, [pc, #16]	; 8b18 <implement_this+0x1c>
    8b04:	e59f2010 	ldr	r2, [pc, #16]	; 8b1c <implement_this+0x20>
    8b08:	e59f1010 	ldr	r1, [pc, #16]	; 8b20 <implement_this+0x24>
    8b0c:	e59f0010 	ldr	r0, [pc, #16]	; 8b24 <implement_this+0x28>
    8b10:	eb000024 	bl	8ba8 <printk>
    8b14:	eb0002b4 	bl	95ec <clean_reboot>
    8b18:	00000117 	andeq	r0, r0, r7, lsl r1
    8b1c:	0000a620 	andeq	sl, r0, r0, lsr #12
    8b20:	0000a2c8 	andeq	sl, r0, r8, asr #5
    8b24:	0000a5b0 			; <UNDEFINED> instruction: 0x0000a5b0

00008b28 <dump_regs>:
    8b28:	e8a0ffff 	stmia	r0!, {r0, r1, r2, r3, r4, r5, r6, r7, r8, r9, sl, fp, ip, sp, lr, pc}
    8b2c:	e12fff1e 	bx	lr

00008b30 <memset>:
    8b30:	e92d4010 	push	{r4, lr}
    8b34:	e0804002 	add	r4, r0, r2
    8b38:	e1500004 	cmp	r0, r4
    8b3c:	28bd8010 	popcs	{r4, pc}
    8b40:	e2423001 	sub	r3, r2, #1, 0
    8b44:	e3530002 	cmp	r3, #2, 0
    8b48:	e6ef1071 	uxtb	r1, r1
    8b4c:	e1a03000 	mov	r3, r0
    8b50:	9a00000b 	bls	8b84 <memset+0x54>
    8b54:	e181e401 	orr	lr, r1, r1, lsl #8
    8b58:	e18ee801 	orr	lr, lr, r1, lsl #16
    8b5c:	e3c2c003 	bic	ip, r2, #3, 0
    8b60:	e18eec01 	orr	lr, lr, r1, lsl #24
    8b64:	e08cc000 	add	ip, ip, r0
    8b68:	e483e004 	str	lr, [r3], #4
    8b6c:	e153000c 	cmp	r3, ip
    8b70:	1afffffc 	bne	8b68 <memset+0x38>
    8b74:	e3c23003 	bic	r3, r2, #3, 0
    8b78:	e1520003 	cmp	r2, r3
    8b7c:	e0803003 	add	r3, r0, r3
    8b80:	08bd8010 	popeq	{r4, pc}
    8b84:	e1a02003 	mov	r2, r3
    8b88:	e4c21001 	strb	r1, [r2], #1
    8b8c:	e1540002 	cmp	r4, r2
    8b90:	98bd8010 	popls	{r4, pc}
    8b94:	e2832002 	add	r2, r3, #2, 0
    8b98:	e1540002 	cmp	r4, r2
    8b9c:	e5c31001 	strb	r1, [r3, #1]
    8ba0:	85c31002 	strbhi	r1, [r3, #2]
    8ba4:	e8bd8010 	pop	{r4, pc}

00008ba8 <printk>:
    8ba8:	e92d000f 	push	{r0, r1, r2, r3}
    8bac:	e92d4030 	push	{r4, r5, lr}
    8bb0:	e59f5040 	ldr	r5, [pc, #64]	; 8bf8 <printk+0x50>
    8bb4:	e24dd00c 	sub	sp, sp, #12, 0
    8bb8:	e28d301c 	add	r3, sp, #28, 0
    8bbc:	e3a01b01 	mov	r1, #1024	; 0x400
    8bc0:	e59d2018 	ldr	r2, [sp, #24]
    8bc4:	e1a00005 	mov	r0, r5
    8bc8:	e58d3004 	str	r3, [sp, #4]
    8bcc:	eb0000fb 	bl	8fc0 <va_printk>
    8bd0:	e1a04000 	mov	r4, r0
    8bd4:	e59f3020 	ldr	r3, [pc, #32]	; 8bfc <printk+0x54>
    8bd8:	e1a00005 	mov	r0, r5
    8bdc:	e5933000 	ldr	r3, [r3]
    8be0:	e12fff33 	blx	r3
    8be4:	e1a00004 	mov	r0, r4
    8be8:	e28dd00c 	add	sp, sp, #12, 0
    8bec:	e8bd4030 	pop	{r4, r5, lr}
    8bf0:	e28dd010 	add	sp, sp, #16, 0
    8bf4:	e12fff1e 	bx	lr
    8bf8:	0000a9d4 	ldrdeq	sl, [r0], -r4
    8bfc:	0000a99c 	muleq	r0, ip, r9

00008c00 <internal_putk>:
    8c00:	e92d4070 	push	{r4, r5, r6, lr}
    8c04:	e1a04000 	mov	r4, r0
    8c08:	e5d00000 	ldrb	r0, [r0]
    8c0c:	e3500000 	cmp	r0, #0, 0
    8c10:	0a000005 	beq	8c2c <internal_putk+0x2c>
    8c14:	e59f5018 	ldr	r5, [pc, #24]	; 8c34 <internal_putk+0x34>
    8c18:	e5953000 	ldr	r3, [r5]
    8c1c:	e12fff33 	blx	r3
    8c20:	e5f40001 	ldrb	r0, [r4, #1]!
    8c24:	e3500000 	cmp	r0, #0, 0
    8c28:	1afffffa 	bne	8c18 <internal_putk+0x18>
    8c2c:	e3a00001 	mov	r0, #1, 0
    8c30:	e8bd8070 	pop	{r4, r5, r6, pc}
    8c34:	0000a9ac 	andeq	sl, r0, ip, lsr #19

00008c38 <emit.constprop.0>:
    8c38:	e92d41f0 	push	{r4, r5, r6, r7, r8, lr}
    8c3c:	e3530080 	cmp	r3, #128, 0	; 0x80
    8c40:	e1a0c000 	mov	ip, r0
    8c44:	e24dd048 	sub	sp, sp, #72, 0	; 0x48
    8c48:	e1a00001 	mov	r0, r1
    8c4c:	ca000069 	bgt	8df8 <emit.constprop.0+0x1c0>
    8c50:	e24c1002 	sub	r1, ip, #2, 0
    8c54:	e1a0c002 	mov	ip, r2
    8c58:	e351000e 	cmp	r1, #14, 0
    8c5c:	979ff101 	ldrls	pc, [pc, r1, lsl #2]
    8c60:	ea0000a7 	b	8f04 <emit.constprop.0+0x2cc>
    8c64:	00008dd0 	ldrdeq	r8, [r0], -r0
    8c68:	00008f04 	andeq	r8, r0, r4, lsl #30
    8c6c:	00008f04 	andeq	r8, r0, r4, lsl #30
    8c70:	00008f04 	andeq	r8, r0, r4, lsl #30
    8c74:	00008f04 	andeq	r8, r0, r4, lsl #30
    8c78:	00008f04 	andeq	r8, r0, r4, lsl #30
    8c7c:	00008eac 	andeq	r8, r0, ip, lsr #29
    8c80:	00008f04 	andeq	r8, r0, r4, lsl #30
    8c84:	00008e4c 	andeq	r8, r0, ip, asr #28
    8c88:	00008f04 	andeq	r8, r0, r4, lsl #30
    8c8c:	00008f04 	andeq	r8, r0, r4, lsl #30
    8c90:	00008f04 	andeq	r8, r0, r4, lsl #30
    8c94:	00008f04 	andeq	r8, r0, r4, lsl #30
    8c98:	00008f04 	andeq	r8, r0, r4, lsl #30
    8c9c:	00008ca4 	andeq	r8, r0, r4, lsr #25
    8ca0:	e3a0307f 	mov	r3, #127, 0	; 0x7f
    8ca4:	e28d2008 	add	r2, sp, #8, 0
    8ca8:	e1a04002 	mov	r4, r2
    8cac:	e59f1288 	ldr	r1, [pc, #648]	; 8f3c <emit.constprop.0+0x304>
    8cb0:	e20ce00f 	and	lr, ip, #15, 0
    8cb4:	e7d1e00e 	ldrb	lr, [r1, lr]
    8cb8:	e35c000f 	cmp	ip, #15, 0
    8cbc:	e4c4e001 	strb	lr, [r4], #1
    8cc0:	e1a0c22c 	lsr	ip, ip, #4
    8cc4:	8afffff9 	bhi	8cb0 <emit.constprop.0+0x78>
    8cc8:	e3a0c078 	mov	ip, #120, 0	; 0x78
    8ccc:	e1a0e004 	mov	lr, r4
    8cd0:	e3a01030 	mov	r1, #48, 0	; 0x30
    8cd4:	e4cec002 	strb	ip, [lr], #2
    8cd8:	e5c41001 	strb	r1, [r4, #1]
    8cdc:	e04e1002 	sub	r1, lr, r2
    8ce0:	e1510003 	cmp	r1, r3
    8ce4:	aa000083 	bge	8ef8 <emit.constprop.0+0x2c0>
    8ce8:	e1510003 	cmp	r1, r3
    8cec:	a3a0c001 	movge	ip, #1, 0
    8cf0:	b3a0c000 	movlt	ip, #0, 0
    8cf4:	e2434001 	sub	r4, r3, #1, 0
    8cf8:	e0444001 	sub	r4, r4, r1
    8cfc:	b0436001 	sublt	r6, r3, r1
    8d00:	a3a06001 	movge	r6, #1, 0
    8d04:	e3540002 	cmp	r4, #2, 0
    8d08:	938cc001 	orrls	ip, ip, #1, 0
    8d0c:	e35c0000 	cmp	ip, #0, 0
    8d10:	1a000075 	bne	8eec <emit.constprop.0+0x2b4>
    8d14:	e1a0c00e 	mov	ip, lr
    8d18:	e3c65003 	bic	r5, r6, #3, 0
    8d1c:	e59f721c 	ldr	r7, [pc, #540]	; 8f40 <emit.constprop.0+0x308>
    8d20:	e085500e 	add	r5, r5, lr
    8d24:	e48c7004 	str	r7, [ip], #4
    8d28:	e15c0005 	cmp	ip, r5
    8d2c:	1afffffc 	bne	8d24 <emit.constprop.0+0xec>
    8d30:	e3c6c003 	bic	ip, r6, #3, 0
    8d34:	e156000c 	cmp	r6, ip
    8d38:	e08e500c 	add	r5, lr, ip
    8d3c:	e08cc001 	add	ip, ip, r1
    8d40:	0a000008 	beq	8d68 <emit.constprop.0+0x130>
    8d44:	e3a07020 	mov	r7, #32, 0
    8d48:	e28c8001 	add	r8, ip, #1, 0
    8d4c:	e1580003 	cmp	r8, r3
    8d50:	e5c57000 	strb	r7, [r5]
    8d54:	aa000003 	bge	8d68 <emit.constprop.0+0x130>
    8d58:	e28cc002 	add	ip, ip, #2, 0
    8d5c:	e15c0003 	cmp	ip, r3
    8d60:	e5c57001 	strb	r7, [r5, #1]
    8d64:	b5c57002 	strblt	r7, [r5, #2]
    8d68:	e1510003 	cmp	r1, r3
    8d6c:	a3a04000 	movge	r4, #0, 0
    8d70:	e08e6006 	add	r6, lr, r6
    8d74:	e0461002 	sub	r1, r6, r2
    8d78:	e08ee004 	add	lr, lr, r4
    8d7c:	e3a03000 	mov	r3, #0, 0
    8d80:	e351007f 	cmp	r1, #127, 0	; 0x7f
    8d84:	c241407f 	subgt	r4, r1, #127, 0	; 0x7f
    8d88:	c0822004 	addgt	r2, r2, r4
    8d8c:	e152000e 	cmp	r2, lr
    8d90:	e5c63000 	strb	r3, [r6]
    8d94:	8a00004f 	bhi	8ed8 <emit.constprop.0+0x2a0>
    8d98:	e28ee001 	add	lr, lr, #1, 0
    8d9c:	e1a0300e 	mov	r3, lr
    8da0:	e240c001 	sub	ip, r0, #1, 0
    8da4:	e5734001 	ldrb	r4, [r3, #-1]!
    8da8:	e1530002 	cmp	r3, r2
    8dac:	e5ec4001 	strb	r4, [ip, #1]!
    8db0:	1afffffb 	bne	8da4 <emit.constprop.0+0x16c>
    8db4:	e04ee003 	sub	lr, lr, r3
    8db8:	e3a03000 	mov	r3, #0, 0
    8dbc:	e080e00e 	add	lr, r0, lr
    8dc0:	e5ce3000 	strb	r3, [lr]
    8dc4:	e28dd048 	add	sp, sp, #72, 0	; 0x48
    8dc8:	e8bd81f0 	pop	{r4, r5, r6, r7, r8, pc}
    8dcc:	e3a0307f 	mov	r3, #127, 0	; 0x7f
    8dd0:	e28d2008 	add	r2, sp, #8, 0
    8dd4:	e1a0e002 	mov	lr, r2
    8dd8:	e59f1164 	ldr	r1, [pc, #356]	; 8f44 <emit.constprop.0+0x30c>
    8ddc:	e20c4001 	and	r4, ip, #1, 0
    8de0:	e7d14004 	ldrb	r4, [r1, r4]
    8de4:	e35c0001 	cmp	ip, #1, 0
    8de8:	e4ce4001 	strb	r4, [lr], #1
    8dec:	e1a0c0ac 	lsr	ip, ip, #1
    8df0:	8afffff9 	bhi	8ddc <emit.constprop.0+0x1a4>
    8df4:	eaffffb8 	b	8cdc <emit.constprop.0+0xa4>
    8df8:	e24c3002 	sub	r3, ip, #2, 0
    8dfc:	e1a0c002 	mov	ip, r2
    8e00:	e353000e 	cmp	r3, #14, 0
    8e04:	979ff103 	ldrls	pc, [pc, r3, lsl #2]
    8e08:	ea00003d 	b	8f04 <emit.constprop.0+0x2cc>
    8e0c:	00008dcc 	andeq	r8, r0, ip, asr #27
    8e10:	00008f04 	andeq	r8, r0, r4, lsl #30
    8e14:	00008f04 	andeq	r8, r0, r4, lsl #30
    8e18:	00008f04 	andeq	r8, r0, r4, lsl #30
    8e1c:	00008f04 	andeq	r8, r0, r4, lsl #30
    8e20:	00008f04 	andeq	r8, r0, r4, lsl #30
    8e24:	00008f24 	andeq	r8, r0, r4, lsr #30
    8e28:	00008f04 	andeq	r8, r0, r4, lsl #30
    8e2c:	00008e48 	andeq	r8, r0, r8, asr #28
    8e30:	00008f04 	andeq	r8, r0, r4, lsl #30
    8e34:	00008f04 	andeq	r8, r0, r4, lsl #30
    8e38:	00008f04 	andeq	r8, r0, r4, lsl #30
    8e3c:	00008f04 	andeq	r8, r0, r4, lsl #30
    8e40:	00008f04 	andeq	r8, r0, r4, lsl #30
    8e44:	00008ca0 	andeq	r8, r0, r0, lsr #25
    8e48:	e3a0307f 	mov	r3, #127, 0	; 0x7f
    8e4c:	e59d1060 	ldr	r1, [sp, #96]	; 0x60
    8e50:	e59f70f0 	ldr	r7, [pc, #240]	; 8f48 <emit.constprop.0+0x310>
    8e54:	e0118fa2 	ands	r8, r1, r2, lsr #31
    8e58:	1262c000 	rsbne	ip, r2, #0, 0
    8e5c:	e28d2008 	add	r2, sp, #8, 0
    8e60:	13a08001 	movne	r8, #1, 0
    8e64:	e1a0e002 	mov	lr, r2
    8e68:	e59f60dc 	ldr	r6, [pc, #220]	; 8f4c <emit.constprop.0+0x314>
    8e6c:	e1a0500c 	mov	r5, ip
    8e70:	e0814c96 	umull	r4, r1, r6, ip
    8e74:	e1a011a1 	lsr	r1, r1, #3
    8e78:	e0814101 	add	r4, r1, r1, lsl #2
    8e7c:	e04cc084 	sub	ip, ip, r4, lsl #1
    8e80:	e7d7400c 	ldrb	r4, [r7, ip]
    8e84:	e3550009 	cmp	r5, #9, 0
    8e88:	e1a0c001 	mov	ip, r1
    8e8c:	e1a0100e 	mov	r1, lr
    8e90:	e4ce4001 	strb	r4, [lr], #1
    8e94:	8afffff4 	bhi	8e6c <emit.constprop.0+0x234>
    8e98:	e3580000 	cmp	r8, #0, 0
    8e9c:	13a0c02d 	movne	ip, #45, 0	; 0x2d
    8ea0:	15cec000 	strbne	ip, [lr]
    8ea4:	1281e002 	addne	lr, r1, #2, 0
    8ea8:	eaffff8b 	b	8cdc <emit.constprop.0+0xa4>
    8eac:	e3530001 	cmp	r3, #1, 0
    8eb0:	e5cd2008 	strb	r2, [sp, #8]
    8eb4:	c3a01001 	movgt	r1, #1, 0
    8eb8:	c28de009 	addgt	lr, sp, #9, 0
    8ebc:	c28d2008 	addgt	r2, sp, #8, 0
    8ec0:	caffff88 	bgt	8ce8 <emit.constprop.0+0xb0>
    8ec4:	e3a03000 	mov	r3, #0, 0
    8ec8:	e28de008 	add	lr, sp, #8, 0
    8ecc:	e1a0200e 	mov	r2, lr
    8ed0:	e5cd3009 	strb	r3, [sp, #9]
    8ed4:	eaffffaf 	b	8d98 <emit.constprop.0+0x160>
    8ed8:	e1a0e000 	mov	lr, r0
    8edc:	e3a03000 	mov	r3, #0, 0
    8ee0:	e5ce3000 	strb	r3, [lr]
    8ee4:	e28dd048 	add	sp, sp, #72, 0	; 0x48
    8ee8:	e8bd81f0 	pop	{r4, r5, r6, r7, r8, pc}
    8eec:	e1a0c001 	mov	ip, r1
    8ef0:	e1a0500e 	mov	r5, lr
    8ef4:	eaffff92 	b	8d44 <emit.constprop.0+0x10c>
    8ef8:	e1a0600e 	mov	r6, lr
    8efc:	e24ee001 	sub	lr, lr, #1, 0
    8f00:	eaffff9d 	b	8d7c <emit.constprop.0+0x144>
    8f04:	e59f2044 	ldr	r2, [pc, #68]	; 8f50 <emit.constprop.0+0x318>
    8f08:	e3a03079 	mov	r3, #121, 0	; 0x79
    8f0c:	e59f1040 	ldr	r1, [pc, #64]	; 8f54 <emit.constprop.0+0x31c>
    8f10:	e58d2000 	str	r2, [sp]
    8f14:	e59f003c 	ldr	r0, [pc, #60]	; 8f58 <emit.constprop.0+0x320>
    8f18:	e59f203c 	ldr	r2, [pc, #60]	; 8f5c <emit.constprop.0+0x324>
    8f1c:	ebffff21 	bl	8ba8 <printk>
    8f20:	eb0001b1 	bl	95ec <clean_reboot>
    8f24:	e5cd2008 	strb	r2, [sp, #8]
    8f28:	e3a0307f 	mov	r3, #127, 0	; 0x7f
    8f2c:	e3a01001 	mov	r1, #1, 0
    8f30:	e28de009 	add	lr, sp, #9, 0
    8f34:	e28d2008 	add	r2, sp, #8, 0
    8f38:	eaffff6a 	b	8ce8 <emit.constprop.0+0xb0>
    8f3c:	0000a644 	andeq	sl, r0, r4, asr #12
    8f40:	20202020 	eorcs	r2, r0, r0, lsr #32
    8f44:	0000a658 	andeq	sl, r0, r8, asr r6
    8f48:	0000a65c 	andeq	sl, r0, ip, asr r6
    8f4c:	cccccccd 	stclgt	12, cr12, [ip], {205}	; 0xcd
    8f50:	0000a4a0 	andeq	sl, r0, r0, lsr #9
    8f54:	0000a630 	andeq	sl, r0, r0, lsr r6
    8f58:	0000a128 	andeq	sl, r0, r8, lsr #2
    8f5c:	0000a770 	andeq	sl, r0, r0, ror r7

00008f60 <rpi_set_output>:
    8f60:	e3500000 	cmp	r0, #0, 0
    8f64:	0a000005 	beq	8f80 <rpi_set_output+0x20>
    8f68:	e59f3038 	ldr	r3, [pc, #56]	; 8fa8 <rpi_set_output+0x48>
    8f6c:	e3510000 	cmp	r1, #0, 0
    8f70:	e5830000 	str	r0, [r3]
    8f74:	159f3030 	ldrne	r3, [pc, #48]	; 8fac <rpi_set_output+0x4c>
    8f78:	15831000 	strne	r1, [r3]
    8f7c:	e12fff1e 	bx	lr
    8f80:	e52de004 	push	{lr}		; (str lr, [sp, #-4]!)
    8f84:	e59f2024 	ldr	r2, [pc, #36]	; 8fb0 <rpi_set_output+0x50>
    8f88:	e24dd00c 	sub	sp, sp, #12, 0
    8f8c:	e3a03020 	mov	r3, #32, 0
    8f90:	e59f101c 	ldr	r1, [pc, #28]	; 8fb4 <rpi_set_output+0x54>
    8f94:	e58d2000 	str	r2, [sp]
    8f98:	e59f0018 	ldr	r0, [pc, #24]	; 8fb8 <rpi_set_output+0x58>
    8f9c:	e59f2018 	ldr	r2, [pc, #24]	; 8fbc <rpi_set_output+0x5c>
    8fa0:	ebffff00 	bl	8ba8 <printk>
    8fa4:	eb000190 	bl	95ec <clean_reboot>
    8fa8:	0000a9ac 	andeq	sl, r0, ip, lsr #19
    8fac:	0000a99c 	muleq	r0, ip, r9
    8fb0:	0000a668 	andeq	sl, r0, r8, ror #12
    8fb4:	0000a630 	andeq	sl, r0, r0, lsr r6
    8fb8:	0000a128 	andeq	sl, r0, r8, lsr #2
    8fbc:	0000a778 	andeq	sl, r0, r8, ror r7

00008fc0 <va_printk>:
    8fc0:	e92d4ff0 	push	{r4, r5, r6, r7, r8, r9, sl, fp, lr}
    8fc4:	e1a0b000 	mov	fp, r0
    8fc8:	e3a00000 	mov	r0, #0, 0
    8fcc:	e5cb0000 	strb	r0, [fp]
    8fd0:	e5d2c000 	ldrb	ip, [r2]
    8fd4:	e2417001 	sub	r7, r1, #1, 0
    8fd8:	e08b7007 	add	r7, fp, r7
    8fdc:	e15c0000 	cmp	ip, r0
    8fe0:	115b0007 	cmpne	fp, r7
    8fe4:	e24ddf47 	sub	sp, sp, #284	; 0x11c
    8fe8:	e58d2010 	str	r2, [sp, #16]
    8fec:	2a000159 	bcs	9558 <va_printk+0x598>
    8ff0:	e1a06002 	mov	r6, r2
    8ff4:	e1a08003 	mov	r8, r3
    8ff8:	e1a0400b 	mov	r4, fp
    8ffc:	e59fa5a4 	ldr	sl, [pc, #1444]	; 95a8 <va_printk+0x5e8>
    9000:	e58db00c 	str	fp, [sp, #12]
    9004:	ea000005 	b	9020 <va_printk+0x60>
    9008:	e4c4c001 	strb	ip, [r4], #1
    900c:	e2866001 	add	r6, r6, #1, 0
    9010:	e5d6c000 	ldrb	ip, [r6]
    9014:	e35c0000 	cmp	ip, #0, 0
    9018:	11570004 	cmpne	r7, r4
    901c:	9a00002f 	bls	90e0 <va_printk+0x120>
    9020:	e35c0025 	cmp	ip, #37, 0	; 0x25
    9024:	1afffff7 	bne	9008 <va_printk+0x48>
    9028:	e5d62001 	ldrb	r2, [r6, #1]
    902c:	e3520025 	cmp	r2, #37, 0	; 0x25
    9030:	04c4c001 	strbeq	ip, [r4], #1
    9034:	02866002 	addeq	r6, r6, #2, 0
    9038:	0afffff4 	beq	9010 <va_printk+0x50>
    903c:	e2423030 	sub	r3, r2, #48, 0	; 0x30
    9040:	e3530009 	cmp	r3, #9, 0
    9044:	e3a05000 	mov	r5, #0, 0
    9048:	e2866001 	add	r6, r6, #1, 0
    904c:	8a000008 	bhi	9074 <va_printk+0xb4>
    9050:	e0855105 	add	r5, r5, r5, lsl #2
    9054:	e0825085 	add	r5, r2, r5, lsl #1
    9058:	e5f62001 	ldrb	r2, [r6, #1]!
    905c:	e2455030 	sub	r5, r5, #48, 0	; 0x30
    9060:	e2423030 	sub	r3, r2, #48, 0	; 0x30
    9064:	e3530009 	cmp	r3, #9, 0
    9068:	9afffff8 	bls	9050 <va_printk+0x90>
    906c:	e355001f 	cmp	r5, #31, 0
    9070:	8a00013a 	bhi	9560 <va_printk+0x5a0>
    9074:	e2423062 	sub	r3, r2, #98, 0	; 0x62
    9078:	e3530016 	cmp	r3, #22, 0
    907c:	979ff103 	ldrls	pc, [pc, r3, lsl #2]
    9080:	ea00011b 	b	94f4 <va_printk+0x534>
    9084:	00009338 	andeq	r9, r0, r8, lsr r3
    9088:	00009234 	andeq	r9, r0, r4, lsr r2
    908c:	0000922c 	andeq	r9, r0, ip, lsr #4
    9090:	000094f4 	strdeq	r9, [r0], -r4
    9094:	00009530 	andeq	r9, r0, r0, lsr r5
    9098:	000094f4 	strdeq	r9, [r0], -r4
    909c:	000094f4 	strdeq	r9, [r0], -r4
    90a0:	000094f4 	strdeq	r9, [r0], -r4
    90a4:	000094f4 	strdeq	r9, [r0], -r4
    90a8:	000094f4 	strdeq	r9, [r0], -r4
    90ac:	0000913c 	andeq	r9, r0, ip, lsr r1
    90b0:	000094f4 	strdeq	r9, [r0], -r4
    90b4:	000094f4 	strdeq	r9, [r0], -r4
    90b8:	000094f4 	strdeq	r9, [r0], -r4
    90bc:	000090f8 	strdeq	r9, [r0], -r8
    90c0:	000094f4 	strdeq	r9, [r0], -r4
    90c4:	000094f4 	strdeq	r9, [r0], -r4
    90c8:	00009430 	andeq	r9, r0, r0, lsr r4
    90cc:	000094f4 	strdeq	r9, [r0], -r4
    90d0:	00009208 	andeq	r9, r0, r8, lsl #4
    90d4:	000094f4 	strdeq	r9, [r0], -r4
    90d8:	000094f4 	strdeq	r9, [r0], -r4
    90dc:	000090f8 	strdeq	r9, [r0], -r8
    90e0:	e59db00c 	ldr	fp, [sp, #12]
    90e4:	e3a03000 	mov	r3, #0, 0
    90e8:	e4c43001 	strb	r3, [r4], #1
    90ec:	e044000b 	sub	r0, r4, fp
    90f0:	e28ddf47 	add	sp, sp, #284	; 0x11c
    90f4:	e8bd8ff0 	pop	{r4, r5, r6, r7, r8, r9, sl, fp, pc}
    90f8:	e3a01000 	mov	r1, #0, 0
    90fc:	e1a03005 	mov	r3, r5
    9100:	e4982004 	ldr	r2, [r8], #4
    9104:	e3a00010 	mov	r0, #16, 0
    9108:	e58d1000 	str	r1, [sp]
    910c:	e28d1018 	add	r1, sp, #24, 0
    9110:	ebfffec8 	bl	8c38 <emit.constprop.0>
    9114:	e1a05000 	mov	r5, r0
    9118:	e2866001 	add	r6, r6, #1, 0
    911c:	e2455001 	sub	r5, r5, #1, 0
    9120:	e5f53001 	ldrb	r3, [r5, #1]!
    9124:	e3530000 	cmp	r3, #0, 0
    9128:	0affffb8 	beq	9010 <va_printk+0x50>
    912c:	e4c43001 	strb	r3, [r4], #1
    9130:	e1570004 	cmp	r7, r4
    9134:	8afffff9 	bhi	9120 <va_printk+0x160>
    9138:	eaffffb4 	b	9010 <va_printk+0x50>
    913c:	e3a02003 	mov	r2, #3, 0
    9140:	e1a00006 	mov	r0, r6
    9144:	e59f1460 	ldr	r1, [pc, #1120]	; 95ac <va_printk+0x5ec>
    9148:	eb0003da 	bl	a0b8 <strncmp>
    914c:	e3500000 	cmp	r0, #0, 0
    9150:	0a000005 	beq	916c <va_printk+0x1ac>
    9154:	e3a02003 	mov	r2, #3, 0
    9158:	e1a00006 	mov	r0, r6
    915c:	e59f144c 	ldr	r1, [pc, #1100]	; 95b0 <va_printk+0x5f0>
    9160:	eb0003d4 	bl	a0b8 <strncmp>
    9164:	e3500000 	cmp	r0, #0, 0
    9168:	1a00010b 	bne	959c <va_printk+0x5dc>
    916c:	e2888007 	add	r8, r8, #7, 0
    9170:	e3c88007 	bic	r8, r8, #7, 0
    9174:	e598b004 	ldr	fp, [r8, #4]
    9178:	e4989008 	ldr	r9, [r8], #8
    917c:	e1a0100b 	mov	r1, fp
    9180:	e59f042c 	ldr	r0, [pc, #1068]	; 95b4 <va_printk+0x5f4>
    9184:	ebfffe87 	bl	8ba8 <printk>
    9188:	e1a01009 	mov	r1, r9
    918c:	e59f0424 	ldr	r0, [pc, #1060]	; 95b8 <va_printk+0x5f8>
    9190:	ebfffe84 	bl	8ba8 <printk>
    9194:	e3a02003 	mov	r2, #3, 0
    9198:	e1a00006 	mov	r0, r6
    919c:	e59f1408 	ldr	r1, [pc, #1032]	; 95ac <va_printk+0x5ec>
    91a0:	eb0003c4 	bl	a0b8 <strncmp>
    91a4:	e2503000 	subs	r3, r0, #0, 0
    91a8:	e1a02003 	mov	r2, r3
    91ac:	e2863002 	add	r3, r6, #2, 0
    91b0:	e58d3014 	str	r3, [sp, #20]
    91b4:	1a00009f 	bne	9438 <va_printk+0x478>
    91b8:	e1a06002 	mov	r6, r2
    91bc:	e1a03005 	mov	r3, r5
    91c0:	e58d2000 	str	r2, [sp]
    91c4:	e28d1018 	add	r1, sp, #24, 0
    91c8:	e1a0200b 	mov	r2, fp
    91cc:	e3a00010 	mov	r0, #16, 0
    91d0:	ebfffe98 	bl	8c38 <emit.constprop.0>
    91d4:	e1a0c000 	mov	ip, r0
    91d8:	e1a03005 	mov	r3, r5
    91dc:	e58d6000 	str	r6, [sp]
    91e0:	e28d1098 	add	r1, sp, #152, 0	; 0x98
    91e4:	e1a02009 	mov	r2, r9
    91e8:	e3a00010 	mov	r0, #16, 0
    91ec:	e1a0500c 	mov	r5, ip
    91f0:	ebfffe90 	bl	8c38 <emit.constprop.0>
    91f4:	e28d0018 	add	r0, sp, #24, 0
    91f8:	e28d109a 	add	r1, sp, #154, 0	; 0x9a
    91fc:	e59d6014 	ldr	r6, [sp, #20]
    9200:	eb00038a 	bl	a030 <strcat>
    9204:	eaffffc3 	b	9118 <va_printk+0x158>
    9208:	e3a01000 	mov	r1, #0, 0
    920c:	e1a03005 	mov	r3, r5
    9210:	e4982004 	ldr	r2, [r8], #4
    9214:	e3a0000a 	mov	r0, #10, 0
    9218:	e58d1000 	str	r1, [sp]
    921c:	e28d1018 	add	r1, sp, #24, 0
    9220:	ebfffe84 	bl	8c38 <emit.constprop.0>
    9224:	e1a05000 	mov	r5, r0
    9228:	eaffffba 	b	9118 <va_printk+0x158>
    922c:	e3a01001 	mov	r1, #1, 0
    9230:	eafffff5 	b	920c <va_printk+0x24c>
    9234:	e4983004 	ldr	r3, [r8], #4
    9238:	e3550001 	cmp	r5, #1, 0
    923c:	e5cd3098 	strb	r3, [sp, #152]	; 0x98
    9240:	9a0000a6 	bls	94e0 <va_printk+0x520>
    9244:	e2453002 	sub	r3, r5, #2, 0
    9248:	e3530002 	cmp	r3, #2, 0
    924c:	e2451001 	sub	r1, r5, #1, 0
    9250:	9a0000bc 	bls	9548 <va_printk+0x588>
    9254:	e59f0360 	ldr	r0, [pc, #864]	; 95bc <va_printk+0x5fc>
    9258:	e1a02121 	lsr	r2, r1, #2
    925c:	e3520001 	cmp	r2, #1, 0
    9260:	e58d0099 	str	r0, [sp, #153]	; 0x99
    9264:	0a00000e 	beq	92a4 <va_printk+0x2e4>
    9268:	e3520002 	cmp	r2, #2, 0
    926c:	e58d009d 	str	r0, [sp, #157]	; 0x9d
    9270:	0a00000b 	beq	92a4 <va_printk+0x2e4>
    9274:	e3520003 	cmp	r2, #3, 0
    9278:	e58d00a1 	str	r0, [sp, #161]	; 0xa1
    927c:	0a000008 	beq	92a4 <va_printk+0x2e4>
    9280:	e3520004 	cmp	r2, #4, 0
    9284:	e58d00a5 	str	r0, [sp, #165]	; 0xa5
    9288:	0a000005 	beq	92a4 <va_printk+0x2e4>
    928c:	e3520005 	cmp	r2, #5, 0
    9290:	e58d00a9 	str	r0, [sp, #169]	; 0xa9
    9294:	0a000002 	beq	92a4 <va_printk+0x2e4>
    9298:	e3520007 	cmp	r2, #7, 0
    929c:	e58d00ad 	str	r0, [sp, #173]	; 0xad
    92a0:	058d00b1 	streq	r0, [sp, #177]	; 0xb1
    92a4:	e3c12003 	bic	r2, r1, #3, 0
    92a8:	e1510002 	cmp	r1, r2
    92ac:	e28dc099 	add	ip, sp, #153, 0	; 0x99
    92b0:	e08c0002 	add	r0, ip, r2
    92b4:	e2822001 	add	r2, r2, #1, 0
    92b8:	0a000008 	beq	92e0 <va_printk+0x320>
    92bc:	e3a0e020 	mov	lr, #32, 0
    92c0:	e2829001 	add	r9, r2, #1, 0
    92c4:	e1550009 	cmp	r5, r9
    92c8:	e5c0e000 	strb	lr, [r0]
    92cc:	da000003 	ble	92e0 <va_printk+0x320>
    92d0:	e2822002 	add	r2, r2, #2, 0
    92d4:	e1550002 	cmp	r5, r2
    92d8:	e5c0e001 	strb	lr, [r0, #1]
    92dc:	c5c0e002 	strbgt	lr, [r0, #2]
    92e0:	e3a0e000 	mov	lr, #0, 0
    92e4:	e28d0098 	add	r0, sp, #152, 0	; 0x98
    92e8:	e08c2001 	add	r2, ip, r1
    92ec:	e0422000 	sub	r2, r2, r0
    92f0:	e352007f 	cmp	r2, #127, 0	; 0x7f
    92f4:	c242207f 	subgt	r2, r2, #127, 0	; 0x7f
    92f8:	e08c3003 	add	r3, ip, r3
    92fc:	c0800002 	addgt	r0, r0, r2
    9300:	e1530000 	cmp	r3, r0
    9304:	e7cce001 	strb	lr, [ip, r1]
    9308:	3a00006c 	bcc	94c0 <va_printk+0x500>
    930c:	e283c001 	add	ip, r3, #1, 0
    9310:	e1a0300c 	mov	r3, ip
    9314:	e28d5018 	add	r5, sp, #24, 0
    9318:	e2452001 	sub	r2, r5, #1, 0
    931c:	e5731001 	ldrb	r1, [r3, #-1]!
    9320:	e1500003 	cmp	r0, r3
    9324:	e5e21001 	strb	r1, [r2, #1]!
    9328:	1afffffb 	bne	931c <va_printk+0x35c>
    932c:	e04c3000 	sub	r3, ip, r0
    9330:	e0853003 	add	r3, r5, r3
    9334:	ea00003a 	b	9424 <va_printk+0x464>
    9338:	e28d1098 	add	r1, sp, #152, 0	; 0x98
    933c:	e1a03001 	mov	r3, r1
    9340:	e4980004 	ldr	r0, [r8], #4
    9344:	e200c001 	and	ip, r0, #1, 0
    9348:	e7dac00c 	ldrb	ip, [sl, ip]
    934c:	e3500001 	cmp	r0, #1, 0
    9350:	e1a02003 	mov	r2, r3
    9354:	e1a000a0 	lsr	r0, r0, #1
    9358:	e4c3c001 	strb	ip, [r3], #1
    935c:	8afffff8 	bhi	9344 <va_printk+0x384>
    9360:	e0430001 	sub	r0, r3, r1
    9364:	e1550000 	cmp	r5, r0
    9368:	da000057 	ble	94cc <va_printk+0x50c>
    936c:	e045c000 	sub	ip, r5, r0
    9370:	e24ce001 	sub	lr, ip, #1, 0
    9374:	e35e0002 	cmp	lr, #2, 0
    9378:	e1a0e003 	mov	lr, r3
    937c:	9a00000a 	bls	93ac <va_printk+0x3ec>
    9380:	e3cc9003 	bic	r9, ip, #3, 0
    9384:	e0899003 	add	r9, r9, r3
    9388:	e59fb22c 	ldr	fp, [pc, #556]	; 95bc <va_printk+0x5fc>
    938c:	e48eb004 	str	fp, [lr], #4
    9390:	e15e0009 	cmp	lr, r9
    9394:	1afffffb 	bne	9388 <va_printk+0x3c8>
    9398:	e3cce003 	bic	lr, ip, #3, 0
    939c:	e15e000c 	cmp	lr, ip
    93a0:	e080000e 	add	r0, r0, lr
    93a4:	e083e00e 	add	lr, r3, lr
    93a8:	0a000008 	beq	93d0 <va_printk+0x410>
    93ac:	e3a09020 	mov	r9, #32, 0
    93b0:	e280b001 	add	fp, r0, #1, 0
    93b4:	e155000b 	cmp	r5, fp
    93b8:	e5ce9000 	strb	r9, [lr]
    93bc:	da000003 	ble	93d0 <va_printk+0x410>
    93c0:	e2800002 	add	r0, r0, #2, 0
    93c4:	e1550000 	cmp	r5, r0
    93c8:	e5ce9001 	strb	r9, [lr, #1]
    93cc:	c5ce9002 	strbgt	r9, [lr, #2]
    93d0:	e3a0e000 	mov	lr, #0, 0
    93d4:	e083000c 	add	r0, r3, ip
    93d8:	e0400001 	sub	r0, r0, r1
    93dc:	e350007f 	cmp	r0, #127, 0	; 0x7f
    93e0:	e082200c 	add	r2, r2, ip
    93e4:	e7c3e00c 	strb	lr, [r3, ip]
    93e8:	da000001 	ble	93f4 <va_printk+0x434>
    93ec:	e240007f 	sub	r0, r0, #127, 0	; 0x7f
    93f0:	e0811000 	add	r1, r1, r0
    93f4:	e1510002 	cmp	r1, r2
    93f8:	8a000030 	bhi	94c0 <va_printk+0x500>
    93fc:	e2822001 	add	r2, r2, #1, 0
    9400:	e1a03002 	mov	r3, r2
    9404:	e28d5018 	add	r5, sp, #24, 0
    9408:	e245c001 	sub	ip, r5, #1, 0
    940c:	e5730001 	ldrb	r0, [r3, #-1]!
    9410:	e1530001 	cmp	r3, r1
    9414:	e5ec0001 	strb	r0, [ip, #1]!
    9418:	1afffffb 	bne	940c <va_printk+0x44c>
    941c:	e0423003 	sub	r3, r2, r3
    9420:	e0853003 	add	r3, r5, r3
    9424:	e3a02000 	mov	r2, #0, 0
    9428:	e5c32000 	strb	r2, [r3]
    942c:	eaffff39 	b	9118 <va_printk+0x158>
    9430:	e4985004 	ldr	r5, [r8], #4
    9434:	eaffff37 	b	9118 <va_printk+0x158>
    9438:	e3a02003 	mov	r2, #3, 0
    943c:	e1a00006 	mov	r0, r6
    9440:	e59f1168 	ldr	r1, [pc, #360]	; 95b0 <va_printk+0x5f0>
    9444:	eb00031b 	bl	a0b8 <strncmp>
    9448:	e2503000 	subs	r3, r0, #0, 0
    944c:	1a00004b 	bne	9580 <va_printk+0x5c0>
    9450:	e1a06003 	mov	r6, r3
    9454:	e1a0200b 	mov	r2, fp
    9458:	e58d3000 	str	r3, [sp]
    945c:	e28d1018 	add	r1, sp, #24, 0
    9460:	e1a03005 	mov	r3, r5
    9464:	e3a0000a 	mov	r0, #10, 0
    9468:	ebfffdf2 	bl	8c38 <emit.constprop.0>
    946c:	e1a0c000 	mov	ip, r0
    9470:	e1a03005 	mov	r3, r5
    9474:	e1a02009 	mov	r2, r9
    9478:	e28d1098 	add	r1, sp, #152, 0	; 0x98
    947c:	e3a0000a 	mov	r0, #10, 0
    9480:	e58d6000 	str	r6, [sp]
    9484:	e1a0500c 	mov	r5, ip
    9488:	ebfffdea 	bl	8c38 <emit.constprop.0>
    948c:	e59f112c 	ldr	r1, [pc, #300]	; 95c0 <va_printk+0x600>
    9490:	e28d0018 	add	r0, sp, #24, 0
    9494:	eb0002f0 	bl	a05c <strcmp>
    9498:	e3500000 	cmp	r0, #0, 0
    949c:	e28d1098 	add	r1, sp, #152, 0	; 0x98
    94a0:	e28d0018 	add	r0, sp, #24, 0
    94a4:	1a000002 	bne	94b4 <va_printk+0x4f4>
    94a8:	eb0002fc 	bl	a0a0 <strcpy>
    94ac:	e59d6014 	ldr	r6, [sp, #20]
    94b0:	eaffff18 	b	9118 <va_printk+0x158>
    94b4:	eb0002dd 	bl	a030 <strcat>
    94b8:	e59d6014 	ldr	r6, [sp, #20]
    94bc:	eaffff15 	b	9118 <va_printk+0x158>
    94c0:	e28d5018 	add	r5, sp, #24, 0
    94c4:	e1a03005 	mov	r3, r5
    94c8:	eaffffd5 	b	9424 <va_printk+0x464>
    94cc:	e3a0c000 	mov	ip, #0, 0
    94d0:	e350007f 	cmp	r0, #127, 0	; 0x7f
    94d4:	e5c3c000 	strb	ip, [r3]
    94d8:	caffffc3 	bgt	93ec <va_printk+0x42c>
    94dc:	eaffffc6 	b	93fc <va_printk+0x43c>
    94e0:	e3a02000 	mov	r2, #0, 0
    94e4:	e28d3098 	add	r3, sp, #152, 0	; 0x98
    94e8:	e1a00003 	mov	r0, r3
    94ec:	e5cd2099 	strb	r2, [sp, #153]	; 0x99
    94f0:	eaffff85 	b	930c <va_printk+0x34c>
    94f4:	e3a03000 	mov	r3, #0, 0
    94f8:	e1a01002 	mov	r1, r2
    94fc:	e5c63001 	strb	r3, [r6, #1]
    9500:	e59f00bc 	ldr	r0, [pc, #188]	; 95c4 <va_printk+0x604>
    9504:	ebfffda7 	bl	8ba8 <printk>
    9508:	e59f30b8 	ldr	r3, [pc, #184]	; 95c8 <va_printk+0x608>
    950c:	e59d0010 	ldr	r0, [sp, #16]
    9510:	e5933000 	ldr	r3, [r3]
    9514:	e12fff33 	blx	r3
    9518:	e3a030e2 	mov	r3, #226, 0	; 0xe2
    951c:	e59f20a8 	ldr	r2, [pc, #168]	; 95cc <va_printk+0x60c>
    9520:	e59f10a8 	ldr	r1, [pc, #168]	; 95d0 <va_printk+0x610>
    9524:	e59f00a8 	ldr	r0, [pc, #168]	; 95d4 <va_printk+0x614>
    9528:	ebfffd9e 	bl	8ba8 <printk>
    952c:	eb00002e 	bl	95ec <clean_reboot>
    9530:	e3a030be 	mov	r3, #190, 0	; 0xbe
    9534:	e59f2090 	ldr	r2, [pc, #144]	; 95cc <va_printk+0x60c>
    9538:	e59f1090 	ldr	r1, [pc, #144]	; 95d0 <va_printk+0x610>
    953c:	e59f0094 	ldr	r0, [pc, #148]	; 95d8 <va_printk+0x618>
    9540:	ebfffd98 	bl	8ba8 <printk>
    9544:	eb000028 	bl	95ec <clean_reboot>
    9548:	e28dc099 	add	ip, sp, #153, 0	; 0x99
    954c:	e1a0000c 	mov	r0, ip
    9550:	e3a02001 	mov	r2, #1, 0
    9554:	eaffff58 	b	92bc <va_printk+0x2fc>
    9558:	e1a0400b 	mov	r4, fp
    955c:	eafffee0 	b	90e4 <va_printk+0x124>
    9560:	e3a03098 	mov	r3, #152, 0	; 0x98
    9564:	e59f2070 	ldr	r2, [pc, #112]	; 95dc <va_printk+0x61c>
    9568:	e59f1060 	ldr	r1, [pc, #96]	; 95d0 <va_printk+0x610>
    956c:	e58d2000 	str	r2, [sp]
    9570:	e59f0068 	ldr	r0, [pc, #104]	; 95e0 <va_printk+0x620>
    9574:	e59f2050 	ldr	r2, [pc, #80]	; 95cc <va_printk+0x60c>
    9578:	ebfffd8a 	bl	8ba8 <printk>
    957c:	eb00001a 	bl	95ec <clean_reboot>
    9580:	e3a030b6 	mov	r3, #182, 0	; 0xb6
    9584:	e59f2040 	ldr	r2, [pc, #64]	; 95cc <va_printk+0x60c>
    9588:	e59f1040 	ldr	r1, [pc, #64]	; 95d0 <va_printk+0x610>
    958c:	e59f0050 	ldr	r0, [pc, #80]	; 95e4 <va_printk+0x624>
    9590:	e58d6000 	str	r6, [sp]
    9594:	ebfffd83 	bl	8ba8 <printk>
    9598:	eb000013 	bl	95ec <clean_reboot>
    959c:	e3a0309f 	mov	r3, #159, 0	; 0x9f
    95a0:	e59f2040 	ldr	r2, [pc, #64]	; 95e8 <va_printk+0x628>
    95a4:	eaffffef 	b	9568 <va_printk+0x5a8>
    95a8:	0000a658 	andeq	sl, r0, r8, asr r6
    95ac:	0000a67c 	andeq	sl, r0, ip, ror r6
    95b0:	0000a690 	muleq	r0, r0, r6
    95b4:	0000a680 	andeq	sl, r0, r0, lsl #13
    95b8:	0000a688 	andeq	sl, r0, r8, lsl #13
    95bc:	20202020 	eorcs	r2, r0, r0, lsr #32
    95c0:	0000a4a0 	andeq	sl, r0, r0, lsr #9
    95c4:	0000a720 	andeq	sl, r0, r0, lsr #14
    95c8:	0000a99c 	muleq	r0, ip, r9
    95cc:	0000a788 	andeq	sl, r0, r8, lsl #15
    95d0:	0000a630 	andeq	sl, r0, r0, lsr r6
    95d4:	0000a750 	andeq	sl, r0, r0, asr r7
    95d8:	0000a6f8 	strdeq	sl, [r0], -r8
    95dc:	0000a670 	andeq	sl, r0, r0, ror r6
    95e0:	0000a128 	andeq	sl, r0, r8, lsr #2
    95e4:	0000a6d0 	ldrdeq	sl, [r0], -r0
    95e8:	0000a694 	muleq	r0, r4, r6

000095ec <clean_reboot>:
    95ec:	e59f301c 	ldr	r3, [pc, #28]	; 9610 <clean_reboot+0x24>
    95f0:	e92d4010 	push	{r4, lr}
    95f4:	e5933000 	ldr	r3, [r3]
    95f8:	e59f0014 	ldr	r0, [pc, #20]	; 9614 <clean_reboot+0x28>
    95fc:	e12fff33 	blx	r3
    9600:	eb00011b 	bl	9a74 <uart_flush_tx>
    9604:	e3a0000a 	mov	r0, #10, 0
    9608:	eb000082 	bl	9818 <delay_ms>
    960c:	eb00004b 	bl	9740 <rpi_reboot>
    9610:	0000a99c 	muleq	r0, ip, r9
    9614:	0000a794 	muleq	r0, r4, r7

00009618 <_cstart>:
    9618:	e92d4070 	push	{r4, r5, r6, lr}
    961c:	eb00003b 	bl	9710 <custom_loader>
    9620:	e59f20e0 	ldr	r2, [pc, #224]	; 9708 <_cstart+0xf0>
    9624:	e59fc0e0 	ldr	ip, [pc, #224]	; 970c <_cstart+0xf4>
    9628:	e152000c 	cmp	r2, ip
    962c:	2a00002e 	bcs	96ec <_cstart+0xd4>
    9630:	e24c1001 	sub	r1, ip, #1, 0
    9634:	e0411002 	sub	r1, r1, r2
    9638:	e3510017 	cmp	r1, #23, 0
    963c:	e1a03122 	lsr	r3, r2, #2
    9640:	e1a01121 	lsr	r1, r1, #2
    9644:	e2811001 	add	r1, r1, #1, 0
    9648:	e2033001 	and	r3, r3, #1, 0
    964c:	9a00002b 	bls	9700 <_cstart+0xe8>
    9650:	e3530000 	cmp	r3, #0, 0
    9654:	11a00002 	movne	r0, r2
    9658:	13a0e000 	movne	lr, #0, 0
    965c:	e3a04000 	mov	r4, #0, 0
    9660:	e3a05000 	mov	r5, #0, 0
    9664:	e0411003 	sub	r1, r1, r3
    9668:	01a00002 	moveq	r0, r2
    966c:	e0823103 	add	r3, r2, r3, lsl #2
    9670:	e1a020a1 	lsr	r2, r1, #1
    9674:	1480e004 	strne	lr, [r0], #4
    9678:	e0832182 	add	r2, r3, r2, lsl #3
    967c:	e0c340f8 	strd	r4, [r3], #8
    9680:	e1520003 	cmp	r2, r3
    9684:	1afffffc 	bne	967c <_cstart+0x64>
    9688:	e3c13001 	bic	r3, r1, #1, 0
    968c:	e1510003 	cmp	r1, r3
    9690:	e0803103 	add	r3, r0, r3, lsl #2
    9694:	0a000014 	beq	96ec <_cstart+0xd4>
    9698:	e1a01003 	mov	r1, r3
    969c:	e3a02000 	mov	r2, #0, 0
    96a0:	e4812004 	str	r2, [r1], #4
    96a4:	e151000c 	cmp	r1, ip
    96a8:	2a00000f 	bcs	96ec <_cstart+0xd4>
    96ac:	e2831008 	add	r1, r3, #8, 0
    96b0:	e151000c 	cmp	r1, ip
    96b4:	e5832004 	str	r2, [r3, #4]
    96b8:	2a00000b 	bcs	96ec <_cstart+0xd4>
    96bc:	e283100c 	add	r1, r3, #12, 0
    96c0:	e151000c 	cmp	r1, ip
    96c4:	e5832008 	str	r2, [r3, #8]
    96c8:	2a000007 	bcs	96ec <_cstart+0xd4>
    96cc:	e2831010 	add	r1, r3, #16, 0
    96d0:	e151000c 	cmp	r1, ip
    96d4:	e583200c 	str	r2, [r3, #12]
    96d8:	2a000003 	bcs	96ec <_cstart+0xd4>
    96dc:	e2831014 	add	r1, r3, #20, 0
    96e0:	e151000c 	cmp	r1, ip
    96e4:	e5832010 	str	r2, [r3, #16]
    96e8:	35832014 	strcc	r2, [r3, #20]
    96ec:	eb000082 	bl	98fc <uart_init>
    96f0:	e3a03001 	mov	r3, #1, 0
    96f4:	ee0f3f1c 	mcr	15, 0, r3, cr15, cr12, {0}
    96f8:	ebfffa8d 	bl	8134 <notmain>
    96fc:	ebffffba 	bl	95ec <clean_reboot>
    9700:	e1a03002 	mov	r3, r2
    9704:	eaffffe3 	b	9698 <_cstart+0x80>
    9708:	0000a9b0 			; <UNDEFINED> instruction: 0x0000a9b0
    970c:	0000add8 	ldrdeq	sl, [r0], -r8

00009710 <custom_loader>:
    9710:	e12fff1e 	bx	lr

00009714 <at_user_level>:
    9714:	e10f0000 	mrs	r0, CPSR
    9718:	e200001f 	and	r0, r0, #31, 0
    971c:	e2400010 	sub	r0, r0, #16, 0
    9720:	e16f0f10 	clz	r0, r0
    9724:	e1a002a0 	lsr	r0, r0, #5
    9728:	e12fff1e 	bx	lr

0000972c <set_user_level>:
    972c:	e10f3000 	mrs	r3, CPSR
    9730:	e3c3301f 	bic	r3, r3, #31, 0
    9734:	e3833010 	orr	r3, r3, #16, 0
    9738:	e129f003 	msr	CPSR_fc, r3
    973c:	e12fff1e 	bx	lr

00009740 <rpi_reboot>:
    9740:	e92d4010 	push	{r4, lr}
    9744:	e10f3000 	mrs	r3, CPSR
    9748:	e203301f 	and	r3, r3, #31, 0
    974c:	e3530010 	cmp	r3, #16, 0
    9750:	1a000003 	bne	9764 <rpi_reboot+0x24>
    9754:	e10f3000 	mrs	r3, CPSR
    9758:	e3c3301f 	bic	r3, r3, #31, 0
    975c:	e3833010 	orr	r3, r3, #16, 0
    9760:	e129f003 	msr	CPSR_fc, r3
    9764:	eb00025f 	bl	a0e8 <reboot_callout>
    9768:	eb0000c1 	bl	9a74 <uart_flush_tx>
    976c:	e3a0000a 	mov	r0, #10, 0
    9770:	eb000028 	bl	9818 <delay_ms>
    9774:	e59f1014 	ldr	r1, [pc, #20]	; 9790 <rpi_reboot+0x50>
    9778:	e59f0014 	ldr	r0, [pc, #20]	; 9794 <rpi_reboot+0x54>
    977c:	ebfffa28 	bl	8024 <PUT32>
    9780:	e59f1010 	ldr	r1, [pc, #16]	; 9798 <rpi_reboot+0x58>
    9784:	e59f0010 	ldr	r0, [pc, #16]	; 979c <rpi_reboot+0x5c>
    9788:	ebfffa25 	bl	8024 <PUT32>
    978c:	eafffffe 	b	978c <rpi_reboot+0x4c>
    9790:	5a000001 	bpl	979c <rpi_reboot+0x5c>
    9794:	20100024 	andscs	r0, r0, r4, lsr #32
    9798:	5a000020 	bpl	9820 <delay_ms+0x8>
    979c:	2010001c 	andscs	r0, r0, ip, lsl r0

000097a0 <timer_get_usec_raw>:
    97a0:	e59f0000 	ldr	r0, [pc]	; 97a8 <timer_get_usec_raw+0x8>
    97a4:	eafffa20 	b	802c <GET32>
    97a8:	20003004 	andcs	r3, r0, r4

000097ac <timer_get_usec>:
    97ac:	e92d4010 	push	{r4, lr}
    97b0:	eb00024d 	bl	a0ec <dev_barrier>
    97b4:	e59f0010 	ldr	r0, [pc, #16]	; 97cc <timer_get_usec+0x20>
    97b8:	ebfffa1b 	bl	802c <GET32>
    97bc:	e1a04000 	mov	r4, r0
    97c0:	eb000249 	bl	a0ec <dev_barrier>
    97c4:	e1a00004 	mov	r0, r4
    97c8:	e8bd8010 	pop	{r4, pc}
    97cc:	20003004 	andcs	r3, r0, r4

000097d0 <delay_us>:
    97d0:	e92d41f0 	push	{r4, r5, r6, r7, r8, lr}
    97d4:	e1a06000 	mov	r6, r0
    97d8:	eb000243 	bl	a0ec <dev_barrier>
    97dc:	e59f0030 	ldr	r0, [pc, #48]	; 9814 <delay_us+0x44>
    97e0:	ebfffa11 	bl	802c <GET32>
    97e4:	e1a05000 	mov	r5, r0
    97e8:	eb00023f 	bl	a0ec <dev_barrier>
    97ec:	e59f7020 	ldr	r7, [pc, #32]	; 9814 <delay_us+0x44>
    97f0:	eb00023d 	bl	a0ec <dev_barrier>
    97f4:	e1a00007 	mov	r0, r7
    97f8:	ebfffa0b 	bl	802c <GET32>
    97fc:	e1a04000 	mov	r4, r0
    9800:	e0444005 	sub	r4, r4, r5
    9804:	eb000238 	bl	a0ec <dev_barrier>
    9808:	e1540006 	cmp	r4, r6
    980c:	3afffff7 	bcc	97f0 <delay_us+0x20>
    9810:	e8bd81f0 	pop	{r4, r5, r6, r7, r8, pc}
    9814:	20003004 	andcs	r3, r0, r4

00009818 <delay_ms>:
    9818:	e92d41f0 	push	{r4, r5, r6, r7, r8, lr}
    981c:	e0604280 	rsb	r4, r0, r0, lsl #5
    9820:	e0800104 	add	r0, r0, r4, lsl #2
    9824:	e1a04180 	lsl	r4, r0, #3
    9828:	eb00022f 	bl	a0ec <dev_barrier>
    982c:	e59f0030 	ldr	r0, [pc, #48]	; 9864 <delay_ms+0x4c>
    9830:	ebfff9fd 	bl	802c <GET32>
    9834:	e1a06000 	mov	r6, r0
    9838:	eb00022b 	bl	a0ec <dev_barrier>
    983c:	e59f7020 	ldr	r7, [pc, #32]	; 9864 <delay_ms+0x4c>
    9840:	eb000229 	bl	a0ec <dev_barrier>
    9844:	e1a00007 	mov	r0, r7
    9848:	ebfff9f7 	bl	802c <GET32>
    984c:	e1a05000 	mov	r5, r0
    9850:	e0455006 	sub	r5, r5, r6
    9854:	eb000224 	bl	a0ec <dev_barrier>
    9858:	e1540005 	cmp	r4, r5
    985c:	8afffff7 	bhi	9840 <delay_ms+0x28>
    9860:	e8bd81f0 	pop	{r4, r5, r6, r7, r8, pc}
    9864:	20003004 	andcs	r3, r0, r4

00009868 <delay_sec>:
    9868:	e92d41f0 	push	{r4, r5, r6, r7, r8, lr}
    986c:	e0604280 	rsb	r4, r0, r0, lsl #5
    9870:	e0644304 	rsb	r4, r4, r4, lsl #6
    9874:	e0800184 	add	r0, r0, r4, lsl #3
    9878:	e1a04300 	lsl	r4, r0, #6
    987c:	eb00021a 	bl	a0ec <dev_barrier>
    9880:	e59f0030 	ldr	r0, [pc, #48]	; 98b8 <delay_sec+0x50>
    9884:	ebfff9e8 	bl	802c <GET32>
    9888:	e1a06000 	mov	r6, r0
    988c:	eb000216 	bl	a0ec <dev_barrier>
    9890:	e59f7020 	ldr	r7, [pc, #32]	; 98b8 <delay_sec+0x50>
    9894:	eb000214 	bl	a0ec <dev_barrier>
    9898:	e1a00007 	mov	r0, r7
    989c:	ebfff9e2 	bl	802c <GET32>
    98a0:	e1a05000 	mov	r5, r0
    98a4:	e0455006 	sub	r5, r5, r6
    98a8:	eb00020f 	bl	a0ec <dev_barrier>
    98ac:	e1540005 	cmp	r4, r5
    98b0:	8afffff7 	bhi	9894 <delay_sec+0x2c>
    98b4:	e8bd81f0 	pop	{r4, r5, r6, r7, r8, pc}
    98b8:	20003004 	andcs	r3, r0, r4

000098bc <and_in32>:
    98bc:	e92d4070 	push	{r4, r5, r6, lr}
    98c0:	e1a04000 	mov	r4, r0
    98c4:	e1a05001 	mov	r5, r1
    98c8:	ebfff9d7 	bl	802c <GET32>
    98cc:	e0001005 	and	r1, r0, r5
    98d0:	e1a00004 	mov	r0, r4
    98d4:	ebfff9d2 	bl	8024 <PUT32>
    98d8:	e8bd8070 	pop	{r4, r5, r6, pc}

000098dc <or_in32>:
    98dc:	e92d4070 	push	{r4, r5, r6, lr}
    98e0:	e1a04000 	mov	r4, r0
    98e4:	e1a05001 	mov	r5, r1
    98e8:	ebfff9cf 	bl	802c <GET32>
    98ec:	e1801005 	orr	r1, r0, r5
    98f0:	e1a00004 	mov	r0, r4
    98f4:	ebfff9ca 	bl	8024 <PUT32>
    98f8:	e8bd8070 	pop	{r4, r5, r6, pc}

000098fc <uart_init>:
    98fc:	e92d4010 	push	{r4, lr}
    9900:	e3a01002 	mov	r1, #2, 0
    9904:	e3a0000e 	mov	r0, #14, 0
    9908:	eb000153 	bl	9e5c <gpio_set_function>
    990c:	e3a01002 	mov	r1, #2, 0
    9910:	e3a0000f 	mov	r0, #15, 0
    9914:	eb000150 	bl	9e5c <gpio_set_function>
    9918:	eb0001f3 	bl	a0ec <dev_barrier>
    991c:	e3a01001 	mov	r1, #1, 0
    9920:	e59f0064 	ldr	r0, [pc, #100]	; 998c <uart_init+0x90>
    9924:	ebffffec 	bl	98dc <or_in32>
    9928:	eb0001ef 	bl	a0ec <dev_barrier>
    992c:	e59f405c 	ldr	r4, [pc, #92]	; 9990 <uart_init+0x94>
    9930:	e3a01000 	mov	r1, #0, 0
    9934:	e1a00004 	mov	r0, r4
    9938:	ebfff9b9 	bl	8024 <PUT32>
    993c:	e3a01000 	mov	r1, #0, 0
    9940:	e59f004c 	ldr	r0, [pc, #76]	; 9994 <uart_init+0x98>
    9944:	ebfff9b6 	bl	8024 <PUT32>
    9948:	e3a01003 	mov	r1, #3, 0
    994c:	e59f0044 	ldr	r0, [pc, #68]	; 9998 <uart_init+0x9c>
    9950:	ebfff9b3 	bl	8024 <PUT32>
    9954:	e3a01000 	mov	r1, #0, 0
    9958:	e59f003c 	ldr	r0, [pc, #60]	; 999c <uart_init+0xa0>
    995c:	ebfff9b0 	bl	8024 <PUT32>
    9960:	e3a010c7 	mov	r1, #199, 0	; 0xc7
    9964:	e59f0034 	ldr	r0, [pc, #52]	; 99a0 <uart_init+0xa4>
    9968:	ebfff9ad 	bl	8024 <PUT32>
    996c:	e59f1030 	ldr	r1, [pc, #48]	; 99a4 <uart_init+0xa8>
    9970:	e59f0030 	ldr	r0, [pc, #48]	; 99a8 <uart_init+0xac>
    9974:	ebfff9aa 	bl	8024 <PUT32>
    9978:	e3a01003 	mov	r1, #3, 0
    997c:	e1a00004 	mov	r0, r4
    9980:	ebfff9a7 	bl	8024 <PUT32>
    9984:	eb0001d8 	bl	a0ec <dev_barrier>
    9988:	e8bd8010 	pop	{r4, pc}
    998c:	20215004 	eorcs	r5, r1, r4
    9990:	20215060 	eorcs	r5, r1, r0, rrx
    9994:	20215044 	eorcs	r5, r1, r4, asr #32
    9998:	2021504c 	eorcs	r5, r1, ip, asr #32
    999c:	20215050 	eorcs	r5, r1, r0, asr r0
    99a0:	20215048 	eorcs	r5, r1, r8, asr #32
    99a4:	0000010e 	andeq	r0, r0, lr, lsl #2
    99a8:	20215068 	eorcs	r5, r1, r8, rrx

000099ac <uart_can_getc>:
    99ac:	e92d4010 	push	{r4, lr}
    99b0:	e59f0008 	ldr	r0, [pc, #8]	; 99c0 <uart_can_getc+0x14>
    99b4:	ebfff99c 	bl	802c <GET32>
    99b8:	e2000001 	and	r0, r0, #1, 0
    99bc:	e8bd8010 	pop	{r4, pc}
    99c0:	20215064 	eorcs	r5, r1, r4, rrx

000099c4 <uart_can_putc>:
    99c4:	e92d4010 	push	{r4, lr}
    99c8:	e59f0010 	ldr	r0, [pc, #16]	; 99e0 <uart_can_putc+0x1c>
    99cc:	ebfff996 	bl	802c <GET32>
    99d0:	e3100002 	tst	r0, #2, 0
    99d4:	13a00001 	movne	r0, #1, 0
    99d8:	03a00000 	moveq	r0, #0, 0
    99dc:	e8bd8010 	pop	{r4, pc}
    99e0:	20215064 	eorcs	r5, r1, r4, rrx

000099e4 <uart_getc>:
    99e4:	e92d4010 	push	{r4, lr}
    99e8:	eb0001bf 	bl	a0ec <dev_barrier>
    99ec:	ebffffee 	bl	99ac <uart_can_getc>
    99f0:	e3500000 	cmp	r0, #0, 0
    99f4:	0afffffc 	beq	99ec <uart_getc+0x8>
    99f8:	e59f0010 	ldr	r0, [pc, #16]	; 9a10 <uart_getc+0x2c>
    99fc:	ebfff98a 	bl	802c <GET32>
    9a00:	e6ef4070 	uxtb	r4, r0
    9a04:	eb0001b8 	bl	a0ec <dev_barrier>
    9a08:	e1a00004 	mov	r0, r4
    9a0c:	e8bd8010 	pop	{r4, pc}
    9a10:	20215040 	eorcs	r5, r1, r0, asr #32

00009a14 <uart_putc>:
    9a14:	e92d4010 	push	{r4, lr}
    9a18:	e1a04000 	mov	r4, r0
    9a1c:	eb0001b2 	bl	a0ec <dev_barrier>
    9a20:	ebffffe7 	bl	99c4 <uart_can_putc>
    9a24:	e3500000 	cmp	r0, #0, 0
    9a28:	0afffffc 	beq	9a20 <uart_putc+0xc>
    9a2c:	e6ef1074 	uxtb	r1, r4
    9a30:	e59f0008 	ldr	r0, [pc, #8]	; 9a40 <uart_putc+0x2c>
    9a34:	ebfff97a 	bl	8024 <PUT32>
    9a38:	eb0001ab 	bl	a0ec <dev_barrier>
    9a3c:	e8bd8010 	pop	{r4, pc}
    9a40:	20215040 	eorcs	r5, r1, r0, asr #32

00009a44 <uart_has_data>:
    9a44:	e92d4010 	push	{r4, lr}
    9a48:	eb0001a7 	bl	a0ec <dev_barrier>
    9a4c:	ebffffd6 	bl	99ac <uart_can_getc>
    9a50:	e8bd8010 	pop	{r4, pc}

00009a54 <uart_tx_is_empty>:
    9a54:	e92d4010 	push	{r4, lr}
    9a58:	eb0001a3 	bl	a0ec <dev_barrier>
    9a5c:	e59f000c 	ldr	r0, [pc, #12]	; 9a70 <uart_tx_is_empty+0x1c>
    9a60:	ebfff971 	bl	802c <GET32>
    9a64:	e1a004a0 	lsr	r0, r0, #9
    9a68:	e2000001 	and	r0, r0, #1, 0
    9a6c:	e8bd8010 	pop	{r4, pc}
    9a70:	20215064 	eorcs	r5, r1, r4, rrx

00009a74 <uart_flush_tx>:
    9a74:	e92d4010 	push	{r4, lr}
    9a78:	ebfffff5 	bl	9a54 <uart_tx_is_empty>
    9a7c:	e3500000 	cmp	r0, #0, 0
    9a80:	0afffffc 	beq	9a78 <uart_flush_tx+0x4>
    9a84:	e8bd8010 	pop	{r4, pc}

00009a88 <uart_disable>:
    9a88:	e92d4010 	push	{r4, lr}
    9a8c:	ebfffff8 	bl	9a74 <uart_flush_tx>
    9a90:	eb000195 	bl	a0ec <dev_barrier>
    9a94:	e3e01001 	mvn	r1, #1, 0
    9a98:	e59f0008 	ldr	r0, [pc, #8]	; 9aa8 <uart_disable+0x20>
    9a9c:	ebffff86 	bl	98bc <and_in32>
    9aa0:	eb000191 	bl	a0ec <dev_barrier>
    9aa4:	e8bd8010 	pop	{r4, pc}
    9aa8:	20215004 	eorcs	r5, r1, r4

00009aac <kmalloc_heap_end>:
    9aac:	e59f3004 	ldr	r3, [pc, #4]	; 9ab8 <kmalloc_heap_end+0xc>
    9ab0:	e5930000 	ldr	r0, [r3]
    9ab4:	e12fff1e 	bx	lr
    9ab8:	0000a9a0 	andeq	sl, r0, r0, lsr #19

00009abc <kmalloc_heap_start>:
    9abc:	e59f3004 	ldr	r3, [pc, #4]	; 9ac8 <kmalloc_heap_start+0xc>
    9ac0:	e5930004 	ldr	r0, [r3, #4]
    9ac4:	e12fff1e 	bx	lr
    9ac8:	0000a9a0 	andeq	sl, r0, r0, lsr #19

00009acc <kmalloc_heap_ptr>:
    9acc:	e59f3004 	ldr	r3, [pc, #4]	; 9ad8 <kmalloc_heap_ptr+0xc>
    9ad0:	e5930000 	ldr	r0, [r3]
    9ad4:	e12fff1e 	bx	lr
    9ad8:	0000a9a0 	andeq	sl, r0, r0, lsr #19

00009adc <kmalloc_init_set_start>:
    9adc:	e52de004 	push	{lr}		; (str lr, [sp, #-4]!)
    9ae0:	e24dd00c 	sub	sp, sp, #12, 0
    9ae4:	e3510000 	cmp	r1, #0, 0
    9ae8:	0a00000a 	beq	9b18 <kmalloc_init_set_start+0x3c>
    9aec:	e59f306c 	ldr	r3, [pc, #108]	; 9b60 <kmalloc_init_set_start+0x84>
    9af0:	e5933000 	ldr	r3, [r3]
    9af4:	e1530000 	cmp	r3, r0
    9af8:	8a00000e 	bhi	9b38 <kmalloc_init_set_start+0x5c>
    9afc:	e59f305c 	ldr	r3, [pc, #92]	; 9b60 <kmalloc_init_set_start+0x84>
    9b00:	e5830000 	str	r0, [r3]
    9b04:	e5830004 	str	r0, [r3, #4]
    9b08:	e0800001 	add	r0, r0, r1
    9b0c:	e5830008 	str	r0, [r3, #8]
    9b10:	e28dd00c 	add	sp, sp, #12, 0
    9b14:	e49df004 	pop	{pc}		; (ldr pc, [sp], #4)
    9b18:	e59f3044 	ldr	r3, [pc, #68]	; 9b64 <kmalloc_init_set_start+0x88>
    9b1c:	e58d3000 	str	r3, [sp]
    9b20:	e3a03030 	mov	r3, #48, 0	; 0x30
    9b24:	e59f203c 	ldr	r2, [pc, #60]	; 9b68 <kmalloc_init_set_start+0x8c>
    9b28:	e59f103c 	ldr	r1, [pc, #60]	; 9b6c <kmalloc_init_set_start+0x90>
    9b2c:	e59f003c 	ldr	r0, [pc, #60]	; 9b70 <kmalloc_init_set_start+0x94>
    9b30:	ebfffc1c 	bl	8ba8 <printk>
    9b34:	ebfffeac 	bl	95ec <clean_reboot>
    9b38:	e59f3020 	ldr	r3, [pc, #32]	; 9b60 <kmalloc_init_set_start+0x84>
    9b3c:	e5933008 	ldr	r3, [r3, #8]
    9b40:	e58d3004 	str	r3, [sp, #4]
    9b44:	e58d0000 	str	r0, [sp]
    9b48:	e3a03034 	mov	r3, #52, 0	; 0x34
    9b4c:	e59f2014 	ldr	r2, [pc, #20]	; 9b68 <kmalloc_init_set_start+0x8c>
    9b50:	e59f1014 	ldr	r1, [pc, #20]	; 9b6c <kmalloc_init_set_start+0x90>
    9b54:	e59f0018 	ldr	r0, [pc, #24]	; 9b74 <kmalloc_init_set_start+0x98>
    9b58:	ebfffc12 	bl	8ba8 <printk>
    9b5c:	ebfffea2 	bl	95ec <clean_reboot>
    9b60:	0000a9a0 	andeq	sl, r0, r0, lsr #19
    9b64:	0000a7ac 	andeq	sl, r0, ip, lsr #15
    9b68:	0000a938 	andeq	sl, r0, r8, lsr r9
    9b6c:	0000a7a0 	andeq	sl, r0, r0, lsr #15
    9b70:	0000a128 	andeq	sl, r0, r8, lsr #2
    9b74:	0000a7b8 			; <UNDEFINED> instruction: 0x0000a7b8

00009b78 <kmalloc_init>:
    9b78:	e92d4010 	push	{r4, lr}
    9b7c:	e59f303c 	ldr	r3, [pc, #60]	; 9bc0 <kmalloc_init+0x48>
    9b80:	e5933000 	ldr	r3, [r3]
    9b84:	e3530000 	cmp	r3, #0, 0
    9b88:	1a000006 	bne	9ba8 <kmalloc_init+0x30>
    9b8c:	e59f302c 	ldr	r3, [pc, #44]	; 9bc0 <kmalloc_init+0x48>
    9b90:	e3a02001 	mov	r2, #1, 0
    9b94:	e5832000 	str	r2, [r3]
    9b98:	e3a01201 	mov	r1, #268435456	; 0x10000000
    9b9c:	e3a00601 	mov	r0, #1048576	; 0x100000
    9ba0:	ebffffcd 	bl	9adc <kmalloc_init_set_start>
    9ba4:	e8bd8010 	pop	{r4, pc}
    9ba8:	e3a03040 	mov	r3, #64, 0	; 0x40
    9bac:	e59f2010 	ldr	r2, [pc, #16]	; 9bc4 <kmalloc_init+0x4c>
    9bb0:	e59f1010 	ldr	r1, [pc, #16]	; 9bc8 <kmalloc_init+0x50>
    9bb4:	e59f0010 	ldr	r0, [pc, #16]	; 9bcc <kmalloc_init+0x54>
    9bb8:	ebfffbfa 	bl	8ba8 <printk>
    9bbc:	ebfffe8a 	bl	95ec <clean_reboot>
    9bc0:	0000add4 	ldrdeq	sl, [r0], -r4
    9bc4:	0000a950 	andeq	sl, r0, r0, asr r9
    9bc8:	0000a7a0 	andeq	sl, r0, r0, lsr #15
    9bcc:	0000a7fc 	strdeq	sl, [r0], -ip

00009bd0 <kmalloc_notzero>:
    9bd0:	e52de004 	push	{lr}		; (str lr, [sp, #-4]!)
    9bd4:	e24dd00c 	sub	sp, sp, #12, 0
    9bd8:	e3500000 	cmp	r0, #0, 0
    9bdc:	0a00000a 	beq	9c0c <kmalloc_notzero+0x3c>
    9be0:	e2800007 	add	r0, r0, #7, 0
    9be4:	e3c03007 	bic	r3, r0, #7, 0
    9be8:	e59f2060 	ldr	r2, [pc, #96]	; 9c50 <kmalloc_notzero+0x80>
    9bec:	e5920000 	ldr	r0, [r2]
    9bf0:	e0801003 	add	r1, r0, r3
    9bf4:	e5821000 	str	r1, [r2]
    9bf8:	e5922008 	ldr	r2, [r2, #8]
    9bfc:	e1510002 	cmp	r1, r2
    9c00:	8a000009 	bhi	9c2c <kmalloc_notzero+0x5c>
    9c04:	e28dd00c 	add	sp, sp, #12, 0
    9c08:	e49df004 	pop	{pc}		; (ldr pc, [sp], #4)
    9c0c:	e59f3040 	ldr	r3, [pc, #64]	; 9c54 <kmalloc_notzero+0x84>
    9c10:	e58d3000 	str	r3, [sp]
    9c14:	e3a03048 	mov	r3, #72, 0	; 0x48
    9c18:	e59f2038 	ldr	r2, [pc, #56]	; 9c58 <kmalloc_notzero+0x88>
    9c1c:	e59f1038 	ldr	r1, [pc, #56]	; 9c5c <kmalloc_notzero+0x8c>
    9c20:	e59f0038 	ldr	r0, [pc, #56]	; 9c60 <kmalloc_notzero+0x90>
    9c24:	ebfffbdf 	bl	8ba8 <printk>
    9c28:	ebfffe6f 	bl	95ec <clean_reboot>
    9c2c:	e0422000 	sub	r2, r2, r0
    9c30:	e58d2004 	str	r2, [sp, #4]
    9c34:	e58d3000 	str	r3, [sp]
    9c38:	e3a0304e 	mov	r3, #78, 0	; 0x4e
    9c3c:	e59f2014 	ldr	r2, [pc, #20]	; 9c58 <kmalloc_notzero+0x88>
    9c40:	e59f1014 	ldr	r1, [pc, #20]	; 9c5c <kmalloc_notzero+0x8c>
    9c44:	e59f0018 	ldr	r0, [pc, #24]	; 9c64 <kmalloc_notzero+0x94>
    9c48:	ebfffbd6 	bl	8ba8 <printk>
    9c4c:	ebfffe66 	bl	95ec <clean_reboot>
    9c50:	0000a9a0 	andeq	sl, r0, r0, lsr #19
    9c54:	0000a7b0 			; <UNDEFINED> instruction: 0x0000a7b0
    9c58:	0000a960 	andeq	sl, r0, r0, ror #18
    9c5c:	0000a7a0 	andeq	sl, r0, r0, lsr #15
    9c60:	0000a128 	andeq	sl, r0, r8, lsr #2
    9c64:	0000a82c 	andeq	sl, r0, ip, lsr #16

00009c68 <kmalloc>:
    9c68:	e92d4030 	push	{r4, r5, lr}
    9c6c:	e24dd00c 	sub	sp, sp, #12, 0
    9c70:	e2504000 	subs	r4, r0, #0, 0
    9c74:	0a000008 	beq	9c9c <kmalloc+0x34>
    9c78:	e1a00004 	mov	r0, r4
    9c7c:	ebffffd3 	bl	9bd0 <kmalloc_notzero>
    9c80:	e1a05000 	mov	r5, r0
    9c84:	e1a02004 	mov	r2, r4
    9c88:	e3a01000 	mov	r1, #0, 0
    9c8c:	ebfffba7 	bl	8b30 <memset>
    9c90:	e1a00005 	mov	r0, r5
    9c94:	e28dd00c 	add	sp, sp, #12, 0
    9c98:	e8bd8030 	pop	{r4, r5, pc}
    9c9c:	e59f3018 	ldr	r3, [pc, #24]	; 9cbc <kmalloc+0x54>
    9ca0:	e58d3000 	str	r3, [sp]
    9ca4:	e3a03054 	mov	r3, #84, 0	; 0x54
    9ca8:	e59f2010 	ldr	r2, [pc, #16]	; 9cc0 <kmalloc+0x58>
    9cac:	e59f1010 	ldr	r1, [pc, #16]	; 9cc4 <kmalloc+0x5c>
    9cb0:	e59f0010 	ldr	r0, [pc, #16]	; 9cc8 <kmalloc+0x60>
    9cb4:	ebfffbbb 	bl	8ba8 <printk>
    9cb8:	ebfffe4b 	bl	95ec <clean_reboot>
    9cbc:	0000a7b0 			; <UNDEFINED> instruction: 0x0000a7b0
    9cc0:	0000a970 	andeq	sl, r0, r0, ror r9
    9cc4:	0000a7a0 	andeq	sl, r0, r0, lsr #15
    9cc8:	0000a128 	andeq	sl, r0, r8, lsr #2

00009ccc <kmalloc_aligned>:
    9ccc:	e52de004 	push	{lr}		; (str lr, [sp, #-4]!)
    9cd0:	e24dd00c 	sub	sp, sp, #12, 0
    9cd4:	e3500000 	cmp	r0, #0, 0
    9cd8:	0a000014 	beq	9d30 <kmalloc_aligned+0x64>
    9cdc:	e2613000 	rsb	r3, r1, #0, 0
    9ce0:	e1d13003 	bics	r3, r1, r3
    9ce4:	1a000019 	bne	9d50 <kmalloc_aligned+0x84>
    9ce8:	e3510008 	cmp	r1, #8, 0
    9cec:	33a01008 	movcc	r1, #8, 0
    9cf0:	e59f30c0 	ldr	r3, [pc, #192]	; 9db8 <kmalloc_aligned+0xec>
    9cf4:	e5932000 	ldr	r2, [r3]
    9cf8:	e2613000 	rsb	r3, r1, #0, 0
    9cfc:	e1d1c003 	bics	ip, r1, r3
    9d00:	1a00001b 	bne	9d74 <kmalloc_aligned+0xa8>
    9d04:	e0822001 	add	r2, r2, r1
    9d08:	e2422001 	sub	r2, r2, #1, 0
    9d0c:	e0033002 	and	r3, r3, r2
    9d10:	e2411001 	sub	r1, r1, #1, 0
    9d14:	e1110003 	tst	r1, r3
    9d18:	1a00001d 	bne	9d94 <kmalloc_aligned+0xc8>
    9d1c:	e59f2094 	ldr	r2, [pc, #148]	; 9db8 <kmalloc_aligned+0xec>
    9d20:	e5823000 	str	r3, [r2]
    9d24:	ebffffcf 	bl	9c68 <kmalloc>
    9d28:	e28dd00c 	add	sp, sp, #12, 0
    9d2c:	e49df004 	pop	{pc}		; (ldr pc, [sp], #4)
    9d30:	e59f3084 	ldr	r3, [pc, #132]	; 9dbc <kmalloc_aligned+0xf0>
    9d34:	e58d3000 	str	r3, [sp]
    9d38:	e3a0305f 	mov	r3, #95, 0	; 0x5f
    9d3c:	e59f207c 	ldr	r2, [pc, #124]	; 9dc0 <kmalloc_aligned+0xf4>
    9d40:	e59f107c 	ldr	r1, [pc, #124]	; 9dc4 <kmalloc_aligned+0xf8>
    9d44:	e59f007c 	ldr	r0, [pc, #124]	; 9dc8 <kmalloc_aligned+0xfc>
    9d48:	ebfffb96 	bl	8ba8 <printk>
    9d4c:	ebfffe26 	bl	95ec <clean_reboot>
    9d50:	eb0000ac 	bl	a008 <rpi_reset_putc>
    9d54:	e59f3070 	ldr	r3, [pc, #112]	; 9dcc <kmalloc_aligned+0x100>
    9d58:	e58d3000 	str	r3, [sp]
    9d5c:	e3a03060 	mov	r3, #96, 0	; 0x60
    9d60:	e59f2058 	ldr	r2, [pc, #88]	; 9dc0 <kmalloc_aligned+0xf4>
    9d64:	e59f1058 	ldr	r1, [pc, #88]	; 9dc4 <kmalloc_aligned+0xf8>
    9d68:	e59f0060 	ldr	r0, [pc, #96]	; 9dd0 <kmalloc_aligned+0x104>
    9d6c:	ebfffb8d 	bl	8ba8 <printk>
    9d70:	ebfffe1d 	bl	95ec <clean_reboot>
    9d74:	e59f3058 	ldr	r3, [pc, #88]	; 9dd4 <kmalloc_aligned+0x108>
    9d78:	e58d3000 	str	r3, [sp]
    9d7c:	e3a03011 	mov	r3, #17, 0
    9d80:	e59f2050 	ldr	r2, [pc, #80]	; 9dd8 <kmalloc_aligned+0x10c>
    9d84:	e59f1038 	ldr	r1, [pc, #56]	; 9dc4 <kmalloc_aligned+0xf8>
    9d88:	e59f0038 	ldr	r0, [pc, #56]	; 9dc8 <kmalloc_aligned+0xfc>
    9d8c:	ebfffb85 	bl	8ba8 <printk>
    9d90:	ebfffe15 	bl	95ec <clean_reboot>
    9d94:	eb00009b 	bl	a008 <rpi_reset_putc>
    9d98:	e59f303c 	ldr	r3, [pc, #60]	; 9ddc <kmalloc_aligned+0x110>
    9d9c:	e58d3000 	str	r3, [sp]
    9da0:	e3a03068 	mov	r3, #104, 0	; 0x68
    9da4:	e59f2014 	ldr	r2, [pc, #20]	; 9dc0 <kmalloc_aligned+0xf4>
    9da8:	e59f1014 	ldr	r1, [pc, #20]	; 9dc4 <kmalloc_aligned+0xf8>
    9dac:	e59f002c 	ldr	r0, [pc, #44]	; 9de0 <kmalloc_aligned+0x114>
    9db0:	ebfffb7c 	bl	8ba8 <printk>
    9db4:	ebfffe0c 	bl	95ec <clean_reboot>
    9db8:	0000a9a0 	andeq	sl, r0, r0, lsr #19
    9dbc:	0000a7b0 			; <UNDEFINED> instruction: 0x0000a7b0
    9dc0:	0000a978 	andeq	sl, r0, r8, ror r9
    9dc4:	0000a7a0 	andeq	sl, r0, r0, lsr #15
    9dc8:	0000a128 	andeq	sl, r0, r8, lsr #2
    9dcc:	0000a8a0 	andeq	sl, r0, r0, lsr #17
    9dd0:	0000a86c 	andeq	sl, r0, ip, ror #16
    9dd4:	0000a8b4 			; <UNDEFINED> instruction: 0x0000a8b4
    9dd8:	0000a988 	andeq	sl, r0, r8, lsl #19
    9ddc:	0000a8ec 	andeq	sl, r0, ip, ror #17
    9de0:	0000a8c0 	andeq	sl, r0, r0, asr #17

00009de4 <kfree>:
    9de4:	e12fff1e 	bx	lr

00009de8 <kfree_all>:
    9de8:	e59f3008 	ldr	r3, [pc, #8]	; 9df8 <kfree_all+0x10>
    9dec:	e5932004 	ldr	r2, [r3, #4]
    9df0:	e5832000 	str	r2, [r3]
    9df4:	e12fff1e 	bx	lr
    9df8:	0000a9a0 	andeq	sl, r0, r0, lsr #19

00009dfc <kfree_pop>:
    9dfc:	e59f3048 	ldr	r3, [pc, #72]	; 9e4c <kfree_pop+0x50>
    9e00:	e5933004 	ldr	r3, [r3, #4]
    9e04:	e1530000 	cmp	r3, r0
    9e08:	8a000006 	bhi	9e28 <kfree_pop+0x2c>
    9e0c:	e59f3038 	ldr	r3, [pc, #56]	; 9e4c <kfree_pop+0x50>
    9e10:	e5933008 	ldr	r3, [r3, #8]
    9e14:	e1530000 	cmp	r3, r0
    9e18:	3a000002 	bcc	9e28 <kfree_pop+0x2c>
    9e1c:	e59f3028 	ldr	r3, [pc, #40]	; 9e4c <kfree_pop+0x50>
    9e20:	e5830000 	str	r0, [r3]
    9e24:	e12fff1e 	bx	lr
    9e28:	e52de004 	push	{lr}		; (str lr, [sp, #-4]!)
    9e2c:	e24dd00c 	sub	sp, sp, #12, 0
    9e30:	e58d0000 	str	r0, [sp]
    9e34:	e3a03077 	mov	r3, #119, 0	; 0x77
    9e38:	e59f2010 	ldr	r2, [pc, #16]	; 9e50 <kfree_pop+0x54>
    9e3c:	e59f1010 	ldr	r1, [pc, #16]	; 9e54 <kfree_pop+0x58>
    9e40:	e59f0010 	ldr	r0, [pc, #16]	; 9e58 <kfree_pop+0x5c>
    9e44:	ebfffb57 	bl	8ba8 <printk>
    9e48:	ebfffde7 	bl	95ec <clean_reboot>
    9e4c:	0000a9a0 	andeq	sl, r0, r0, lsr #19
    9e50:	0000a990 	muleq	r0, r0, r9
    9e54:	0000a7a0 	andeq	sl, r0, r0, lsr #15
    9e58:	0000a908 	andeq	sl, r0, r8, lsl #18

00009e5c <gpio_set_function>:
    9e5c:	e350001f 	cmp	r0, #31, 0
    9e60:	812fff1e 	bxhi	lr
    9e64:	e3d13007 	bics	r3, r1, #7, 0
    9e68:	e92d4070 	push	{r4, r5, r6, lr}
    9e6c:	e1a05001 	mov	r5, r1
    9e70:	18bd8070 	popne	{r4, r5, r6, pc}
    9e74:	e59f403c 	ldr	r4, [pc, #60]	; 9eb8 <gpio_set_function+0x5c>
    9e78:	e0843094 	umull	r3, r4, r4, r0
    9e7c:	e1a041a4 	lsr	r4, r4, #3
    9e80:	e2843302 	add	r3, r4, #134217728	; 0x8000000
    9e84:	e2833702 	add	r3, r3, #524288	; 0x80000
    9e88:	e1a06103 	lsl	r6, r3, #2
    9e8c:	e0844104 	add	r4, r4, r4, lsl #2
    9e90:	e0404084 	sub	r4, r0, r4, lsl #1
    9e94:	e1a00006 	mov	r0, r6
    9e98:	ebfff863 	bl	802c <GET32>
    9e9c:	e3a01007 	mov	r1, #7, 0
    9ea0:	e0844084 	add	r4, r4, r4, lsl #1
    9ea4:	e1c01411 	bic	r1, r0, r1, lsl r4
    9ea8:	e1811415 	orr	r1, r1, r5, lsl r4
    9eac:	e1a00006 	mov	r0, r6
    9eb0:	e8bd4070 	pop	{r4, r5, r6, lr}
    9eb4:	eafff85a 	b	8024 <PUT32>
    9eb8:	cccccccd 	stclgt	12, cr12, [ip], {205}	; 0xcd

00009ebc <gpio_set_output>:
    9ebc:	e350001f 	cmp	r0, #31, 0
    9ec0:	812fff1e 	bxhi	lr
    9ec4:	e92d4070 	push	{r4, r5, r6, lr}
    9ec8:	e59f4040 	ldr	r4, [pc, #64]	; 9f10 <gpio_set_output+0x54>
    9ecc:	e0843094 	umull	r3, r4, r4, r0
    9ed0:	e1a041a4 	lsr	r4, r4, #3
    9ed4:	e2843302 	add	r3, r4, #134217728	; 0x8000000
    9ed8:	e2833702 	add	r3, r3, #524288	; 0x80000
    9edc:	e1a05103 	lsl	r5, r3, #2
    9ee0:	e0844104 	add	r4, r4, r4, lsl #2
    9ee4:	e0404084 	sub	r4, r0, r4, lsl #1
    9ee8:	e1a00005 	mov	r0, r5
    9eec:	ebfff84e 	bl	802c <GET32>
    9ef0:	e3a03007 	mov	r3, #7, 0
    9ef4:	e3a01001 	mov	r1, #1, 0
    9ef8:	e0844084 	add	r4, r4, r4, lsl #1
    9efc:	e1c03413 	bic	r3, r0, r3, lsl r4
    9f00:	e1831411 	orr	r1, r3, r1, lsl r4
    9f04:	e1a00005 	mov	r0, r5
    9f08:	e8bd4070 	pop	{r4, r5, r6, lr}
    9f0c:	eafff844 	b	8024 <PUT32>
    9f10:	cccccccd 	stclgt	12, cr12, [ip], {205}	; 0xcd

00009f14 <gpio_set_on>:
    9f14:	e1a03000 	mov	r3, r0
    9f18:	e3a01001 	mov	r1, #1, 0
    9f1c:	e59f0004 	ldr	r0, [pc, #4]	; 9f28 <gpio_set_on+0x14>
    9f20:	e1a01311 	lsl	r1, r1, r3
    9f24:	eafff83e 	b	8024 <PUT32>
    9f28:	2020001c 	eorcs	r0, r0, ip, lsl r0

00009f2c <gpio_set_off>:
    9f2c:	e1a03000 	mov	r3, r0
    9f30:	e3a01001 	mov	r1, #1, 0
    9f34:	e59f0004 	ldr	r0, [pc, #4]	; 9f40 <gpio_set_off+0x14>
    9f38:	e1a01311 	lsl	r1, r1, r3
    9f3c:	eafff838 	b	8024 <PUT32>
    9f40:	20200028 	eorcs	r0, r0, r8, lsr #32

00009f44 <gpio_set_input>:
    9f44:	e350001f 	cmp	r0, #31, 0
    9f48:	812fff1e 	bxhi	lr
    9f4c:	e92d4070 	push	{r4, r5, r6, lr}
    9f50:	e59f5040 	ldr	r5, [pc, #64]	; 9f98 <gpio_set_input+0x54>
    9f54:	e1a04000 	mov	r4, r0
    9f58:	e0853095 	umull	r3, r5, r5, r0
    9f5c:	e1a051a5 	lsr	r5, r5, #3
    9f60:	e2850302 	add	r0, r5, #134217728	; 0x8000000
    9f64:	e2800702 	add	r0, r0, #524288	; 0x80000
    9f68:	e1a06100 	lsl	r6, r0, #2
    9f6c:	e1a00006 	mov	r0, r6
    9f70:	ebfff82d 	bl	802c <GET32>
    9f74:	e3a01007 	mov	r1, #7, 0
    9f78:	e1a03000 	mov	r3, r0
    9f7c:	e0855105 	add	r5, r5, r5, lsl #2
    9f80:	e0444085 	sub	r4, r4, r5, lsl #1
    9f84:	e0844084 	add	r4, r4, r4, lsl #1
    9f88:	e1a00006 	mov	r0, r6
    9f8c:	e1c31411 	bic	r1, r3, r1, lsl r4
    9f90:	e8bd4070 	pop	{r4, r5, r6, lr}
    9f94:	eafff822 	b	8024 <PUT32>
    9f98:	cccccccd 	stclgt	12, cr12, [ip], {205}	; 0xcd

00009f9c <gpio_write>:
    9f9c:	e3510000 	cmp	r1, #0, 0
    9fa0:	e3a03001 	mov	r3, #1, 0
    9fa4:	e1a01000 	mov	r1, r0
    9fa8:	0a000002 	beq	9fb8 <gpio_write+0x1c>
    9fac:	e59f0010 	ldr	r0, [pc, #16]	; 9fc4 <gpio_write+0x28>
    9fb0:	e1a01113 	lsl	r1, r3, r1
    9fb4:	eafff81a 	b	8024 <PUT32>
    9fb8:	e59f0008 	ldr	r0, [pc, #8]	; 9fc8 <gpio_write+0x2c>
    9fbc:	e1a01113 	lsl	r1, r3, r1
    9fc0:	eafff817 	b	8024 <PUT32>
    9fc4:	2020001c 	eorcs	r0, r0, ip, lsl r0
    9fc8:	20200028 	eorcs	r0, r0, r8, lsr #32

00009fcc <gpio_read>:
    9fcc:	e92d4010 	push	{r4, lr}
    9fd0:	e1a04000 	mov	r4, r0
    9fd4:	e59f0014 	ldr	r0, [pc, #20]	; 9ff0 <gpio_read+0x24>
    9fd8:	e08002a4 	add	r0, r0, r4, lsr #5
    9fdc:	ebfff812 	bl	802c <GET32>
    9fe0:	e204401f 	and	r4, r4, #31, 0
    9fe4:	e1a00430 	lsr	r0, r0, r4
    9fe8:	e2000001 	and	r0, r0, #1, 0
    9fec:	e8bd8010 	pop	{r4, pc}
    9ff0:	20200034 	eorcs	r0, r0, r4, lsr r0

00009ff4 <internal_putchar>:
    9ff4:	e92d4010 	push	{r4, lr}
    9ff8:	e1a04000 	mov	r4, r0
    9ffc:	ebfffe84 	bl	9a14 <uart_putc>
    a000:	e1a00004 	mov	r0, r4
    a004:	e8bd8010 	pop	{r4, pc}

0000a008 <rpi_reset_putc>:
    a008:	e59f3008 	ldr	r3, [pc, #8]	; a018 <rpi_reset_putc+0x10>
    a00c:	e59f2008 	ldr	r2, [pc, #8]	; a01c <rpi_reset_putc+0x14>
    a010:	e5832000 	str	r2, [r3]
    a014:	e12fff1e 	bx	lr
    a018:	0000a9ac 	andeq	sl, r0, ip, lsr #19
    a01c:	00009ff4 	strdeq	r9, [r0], -r4

0000a020 <rpi_set_putc>:
    a020:	e59f3004 	ldr	r3, [pc, #4]	; a02c <rpi_set_putc+0xc>
    a024:	e5830000 	str	r0, [r3]
    a028:	e12fff1e 	bx	lr
    a02c:	0000a9ac 	andeq	sl, r0, ip, lsr #19

0000a030 <strcat>:
    a030:	e1a02000 	mov	r2, r0
    a034:	e1a03002 	mov	r3, r2
    a038:	e4d2c001 	ldrb	ip, [r2], #1
    a03c:	e35c0000 	cmp	ip, #0, 0
    a040:	1afffffb 	bne	a034 <strcat+0x4>
    a044:	e2433001 	sub	r3, r3, #1, 0
    a048:	e4d12001 	ldrb	r2, [r1], #1
    a04c:	e3520000 	cmp	r2, #0, 0
    a050:	e5e32001 	strb	r2, [r3, #1]!
    a054:	1afffffb 	bne	a048 <strcat+0x18>
    a058:	e12fff1e 	bx	lr

0000a05c <strcmp>:
    a05c:	e5d03000 	ldrb	r3, [r0]
    a060:	e3530000 	cmp	r3, #0, 0
    a064:	05d12000 	ldrbeq	r2, [r1]
    a068:	1a000003 	bne	a07c <strcmp+0x20>
    a06c:	ea000006 	b	a08c <strcmp+0x30>
    a070:	e5f03001 	ldrb	r3, [r0, #1]!
    a074:	e3530000 	cmp	r3, #0, 0
    a078:	0a000005 	beq	a094 <strcmp+0x38>
    a07c:	e1a0c001 	mov	ip, r1
    a080:	e4d12001 	ldrb	r2, [r1], #1
    a084:	e1520003 	cmp	r2, r3
    a088:	0afffff8 	beq	a070 <strcmp+0x14>
    a08c:	e0430002 	sub	r0, r3, r2
    a090:	e12fff1e 	bx	lr
    a094:	e5dc2001 	ldrb	r2, [ip, #1]
    a098:	e0430002 	sub	r0, r3, r2
    a09c:	e12fff1e 	bx	lr

0000a0a0 <strcpy>:
    a0a0:	e2402001 	sub	r2, r0, #1, 0
    a0a4:	e4d13001 	ldrb	r3, [r1], #1
    a0a8:	e3530000 	cmp	r3, #0, 0
    a0ac:	e5e23001 	strb	r3, [r2, #1]!
    a0b0:	1afffffb 	bne	a0a4 <strcpy+0x4>
    a0b4:	e12fff1e 	bx	lr

0000a0b8 <strncmp>:
    a0b8:	e0802002 	add	r2, r0, r2
    a0bc:	ea000003 	b	a0d0 <strncmp+0x18>
    a0c0:	e4d03001 	ldrb	r3, [r0], #1
    a0c4:	e4d1c001 	ldrb	ip, [r1], #1
    a0c8:	e153000c 	cmp	r3, ip
    a0cc:	1a000003 	bne	a0e0 <strncmp+0x28>
    a0d0:	e1500002 	cmp	r0, r2
    a0d4:	1afffff9 	bne	a0c0 <strncmp+0x8>
    a0d8:	e3a00000 	mov	r0, #0, 0
    a0dc:	e12fff1e 	bx	lr
    a0e0:	e043000c 	sub	r0, r3, ip
    a0e4:	e12fff1e 	bx	lr

0000a0e8 <reboot_callout>:
    a0e8:	e12fff1e 	bx	lr

0000a0ec <dev_barrier>:
    a0ec:	ea000002 	b	a0fc <dsb>

0000a0f0 <dmb>:
    a0f0:	e3a00000 	mov	r0, #0, 0
    a0f4:	ee070fba 	mcr	15, 0, r0, cr7, cr10, {5}
    a0f8:	e12fff1e 	bx	lr

0000a0fc <dsb>:
    a0fc:	ee070f9a 	mcr	15, 0, r0, cr7, cr10, {4}
    a100:	e12fff1e 	bx	lr

0000a104 <__code_end__>:
    a104:	00000000 	andeq	r0, r0, r0

Disassembly of section .rodata:

0000a108 <__FUNCTION__.4030-0xa8>:
    a108:	74736574 	ldrbtvc	r6, [r3], #-1396	; 0xfffffa8c
    a10c:	2e322d73 	mrccs	13, 1, r2, cr2, cr3, {3}
    a110:	61702f30 	cmnvs	r0, r0, lsr pc
    a114:	2d327472 	cfldrscs	mvf7, [r2, #-456]!	; 0xfffffe38
    a118:	74736574 	ldrbtvc	r6, [r3], #-1396	; 0xfffffa8c
    a11c:	6f6e2d34 	svcvs	0x006e2d34
    a120:	61656c2d 	cmnvs	r5, sp, lsr #24
    a124:	00632e6b 	rsbeq	r2, r3, fp, ror #28
    a128:	494e4150 	stmdbmi	lr, {r4, r6, r8, lr}^
    a12c:	73253a43 			; <UNDEFINED> instruction: 0x73253a43
    a130:	3a73253a 	bcc	1cd3620 <__bss_end__+0x1cc8848>
    a134:	253a6425 	ldrcs	r6, [sl, #-1061]!	; 0xfffffbdb
    a138:	00000a73 	andeq	r0, r0, r3, ror sl
    a13c:	3e2d6821 	cdpcc	8, 2, cr6, cr13, cr1, {1}
    a140:	76657270 			; <UNDEFINED> instruction: 0x76657270
    a144:	00000000 	andeq	r0, r0, r0
    a148:	74204347 	strtvc	r4, [r0], #-839	; 0xfffffcb9
    a14c:	3a747365 	bcc	1d26ee8 <__bss_end__+0x1d1c110>
    a150:	65686320 	strbvs	r6, [r8, #-800]!	; 0xfffffce0
    a154:	6e696b63 	vnmulvs.f64	d22, d9, d19
    a158:	68742067 	ldmdavs	r4!, {r0, r1, r2, r5, r6, sp}^
    a15c:	61207461 			; <UNDEFINED> instruction: 0x61207461
    a160:	756f6420 	strbvc	r6, [pc, #-1056]!	; 9d48 <kmalloc_aligned+0x7c>
    a164:	2d796c62 	ldclcs	12, cr6, [r9, #-392]!	; 0xfffffe78
    a168:	6b6e696c 	blvs	1ba4720 <__bss_end__+0x1b99948>
    a16c:	6c206465 	cfstrsvs	mvf6, [r0], #-404	; 0xfffffe6c
    a170:	20747369 	rsbscs	r7, r4, r9, ror #6
    a174:	68207369 	stmdavs	r0!, {r0, r3, r5, r6, r8, r9, ip, sp, lr}
    a178:	6c646e61 	stclvs	14, cr6, [r4], #-388	; 0xfffffe7c
    a17c:	0a2e6465 	beq	ba3318 <__bss_end__+0xb98540>
    a180:	00000000 	andeq	r0, r0, r0
    a184:	43415254 	movtmi	r5, #4692	; 0x1254
    a188:	616c3a45 	cmnvs	ip, r5, asr #20
    a18c:	61207473 			; <UNDEFINED> instruction: 0x61207473
    a190:	636f6c6c 	cmnvs	pc, #108, 24	; 0x6c00
    a194:	62203d20 	eorvs	r3, r0, #32, 26	; 0x800
    a198:	6b636f6c 	blvs	18e5f50 <__bss_end__+0x18db178>
    a19c:	3d646920 			; <UNDEFINED> instruction: 0x3d646920
    a1a0:	5b207525 	blpl	82763c <__bss_end__+0x81c864>
    a1a4:	72646461 	rsbvc	r6, r4, #1627389952	; 0x61000000
    a1a8:	5d70253d 	cfldr64pl	mvdx2, [r0, #-244]!	; 0xffffff0c
    a1ac:	0000000a 	andeq	r0, r0, sl

0000a1b0 <__FUNCTION__.4030>:
    a1b0:	74736574 	ldrbtvc	r6, [r3], #-1396	; 0xfffffa8c
    a1b4:	00000000 	andeq	r0, r0, r0
    a1b8:	6e756f66 	cdpvs	15, 7, cr6, cr5, cr6, {3}
    a1bc:	70252064 	eorvc	r2, r5, r4, rrx
    a1c0:	206e6920 	rsbcs	r6, lr, r0, lsr #18
    a1c4:	000a7025 	andeq	r7, sl, r5, lsr #32
    a1c8:	253a7325 	ldrcs	r7, [sl, #-805]!	; 0xfffffcdb
    a1cc:	64253a73 	strtvs	r3, [r5], #-2675	; 0xfffff58d
    a1d0:	0000003a 	andeq	r0, r0, sl, lsr r0
    a1d4:	65657266 	strbvs	r7, [r5, #-614]!	; 0xfffffd9a
    a1d8:	20676e69 	rsbcs	r6, r7, r9, ror #28
    a1dc:	0a702509 	beq	1c13608 <__bss_end__+0x1c08830>
    a1e0:	00000000 	andeq	r0, r0, r0
    a1e4:	5f434f4c 	svcpl	0x00434f4c
    a1e8:	494e4150 	stmdbmi	lr, {r4, r6, r8, lr}^
    a1ec:	25203a43 	strcs	r3, [r0, #-2627]!	; 0xfffff5bd
    a1f0:	73253a73 			; <UNDEFINED> instruction: 0x73253a73
    a1f4:	3a64253a 	bcc	19136e4 <__bss_end__+0x190890c>
    a1f8:	00000000 	andeq	r0, r0, r0
    a1fc:	65657266 	strbvs	r7, [r5, #-614]!	; 0xfffffd9a
    a200:	20676e69 	rsbcs	r6, r7, r9, ror #28
    a204:	6c616e75 	stclvs	14, cr6, [r1], #-468	; 0xfffffe2c
    a208:	61636f6c 	cmnvs	r3, ip, ror #30
    a20c:	20646574 	rsbcs	r6, r4, r4, ror r5
    a210:	6f6d656d 	svcvs	0x006d656d
    a214:	203a7972 	eorscs	r7, sl, r2, ror r9
    a218:	74617473 	strbtvc	r7, [r1], #-1139	; 0xfffffb8d
    a21c:	64253d65 	strtvs	r3, [r5], #-3429	; 0xfffff29b
    a220:	0000000a 	andeq	r0, r0, sl
    a224:	6c616b63 			; <UNDEFINED> instruction: 0x6c616b63
    a228:	2e636f6c 	cdpcs	15, 6, cr6, cr3, cr12, {3}
    a22c:	00000063 	andeq	r0, r0, r3, rrx
    a230:	705f6b63 	subsvc	r6, pc, r3, ror #22
    a234:	695f7274 	ldmdbvs	pc, {r2, r4, r5, r6, r9, ip, sp, lr}^	; <UNPREDICTABLE>
    a238:	6c615f73 	stclvs	15, cr5, [r1], #-460	; 0xfffffe34
    a23c:	65636f6c 	strbvs	r6, [r3, #-3948]!	; 0xfffff094
    a240:	64612864 	strbtvs	r2, [r1], #-2148	; 0xfffff79c
    a244:	00297264 	eoreq	r7, r9, r4, ror #4
    a248:	494e4150 	stmdbmi	lr, {r4, r6, r8, lr}^
    a24c:	73253a43 			; <UNDEFINED> instruction: 0x73253a43
    a250:	3a73253a 	bcc	1cd3740 <__bss_end__+0x1cc8968>
    a254:	643a6425 	ldrtvs	r6, [sl], #-1061	; 0xfffffbdb
    a258:	6e206469 	cdpvs	4, 2, cr6, cr0, cr9, {3}
    a25c:	6620746f 	strtvs	r7, [r0], -pc, ror #8
    a260:	20646e69 	rsbcs	r6, r4, r9, ror #28
    a264:	69207025 	stmdbvs	r0!, {r0, r2, r5, ip, sp, lr}
    a268:	696c206e 	stmdbvs	ip!, {r1, r2, r3, r5, r6, sp}^
    a26c:	0a0a7473 	beq	2a7440 <__bss_end__+0x29c668>
    a270:	00000000 	andeq	r0, r0, r0
    a274:	6f6c6c61 	svcvs	0x006c6c61
    a278:	69746163 	ldmdbvs	r4!, {r0, r1, r5, r6, r8, sp, lr}^
    a27c:	2520676e 	strcs	r6, [r0, #-1902]!	; 0xfffff892
    a280:	25282070 	strcs	r2, [r8, #-112]!	; 0xffffff90
    a284:	79622064 	stmdbvc	r2!, {r2, r5, r6, sp}^
    a288:	29736574 	ldmdbcs	r3!, {r2, r4, r5, r6, r8, sl, sp, lr}^
    a28c:	0000000a 	andeq	r0, r0, sl

0000a290 <__FUNCTION__.4069>:
    a290:	72666b63 	rsbvc	r6, r6, #101376	; 0x18c00
    a294:	00006565 	andeq	r6, r0, r5, ror #10

0000a298 <__FUNCTION__.4058>:
    a298:	7473696c 	ldrbtvc	r6, [r3], #-2412	; 0xfffff694
    a29c:	6d65725f 	sfmvs	f7, 2, [r5, #-380]!	; 0xfffffe84
    a2a0:	0065766f 	rsbeq	r7, r5, pc, ror #12
    a2a4:	75716552 	ldrbvc	r6, [r1, #-1362]!	; 0xfffffaae
    a2a8:	74737265 	ldrbtvc	r7, [r3], #-613	; 0xfffffd9b
    a2ac:	20676e69 	rsbcs	r6, r7, r9, ror #28
    a2b0:	65726f6d 	ldrbvs	r6, [r2, #-3949]!	; 0xfffff093
    a2b4:	6d656d20 	stclvs	13, cr6, [r5, #-128]!	; 0xffffff80
    a2b8:	2079726f 	rsbscs	r7, r9, pc, ror #4
    a2bc:	29642528 	stmdbcs	r4!, {r3, r5, r8, sl, sp}^
    a2c0:	0a2e2e2e 	beq	b95b80 <__bss_end__+0xb8ada8>
    a2c4:	00000000 	andeq	r0, r0, r0
    a2c8:	672d6b63 	strvs	r6, [sp, -r3, ror #22]!
    a2cc:	00632e63 	rsbeq	r2, r3, r3, ror #28
    a2d0:	203c2070 	eorscs	r2, ip, r0, ror r0
    a2d4:	00000065 	andeq	r0, r0, r5, rrx
    a2d8:	67696c61 	strbvs	r6, [r9, -r1, ror #24]!
    a2dc:	2864656e 	stmdacs	r4!, {r1, r2, r3, r5, r6, r8, sl, sp, lr}^
    a2e0:	34202c70 	strtcc	r2, [r0], #-3184	; 0xfffff390
    a2e4:	00000029 	andeq	r0, r0, r9, lsr #32
    a2e8:	67696c61 	strbvs	r6, [r9, -r1, ror #24]!
    a2ec:	2864656e 	stmdacs	r4!, {r1, r2, r3, r5, r6, r8, sl, sp, lr}^
    a2f0:	34202c65 	strtcc	r2, [r0], #-3173	; 0xfffff39b
    a2f4:	00000029 	andeq	r0, r0, r9, lsr #32
    a2f8:	6e696f67 	cdpvs	15, 6, cr6, cr9, cr7, {3}
    a2fc:	6f742067 	svcvs	0x00742067
    a300:	72616d20 	rsbvc	r6, r1, #32, 26	; 0x800
    a304:	7025206b 	eorvc	r2, r5, fp, rrx
    a308:	20692820 	rsbcs	r2, r9, r0, lsr #16
    a30c:	70252040 	eorvc	r2, r5, r0, asr #32
    a310:	25203d20 	strcs	r3, [r0, #-3360]!	; 0xfffff2e0
    a314:	202c2970 	eorcs	r2, ip, r0, ror r9
    a318:	20707865 	rsbscs	r7, r0, r5, ror #16
    a31c:	7025203d 	eorvc	r2, r5, sp, lsr r0
    a320:	0000000a 	andeq	r0, r0, sl
    a324:	6b72616d 	blvs	1ca28e0 <__bss_end__+0x1c97b08>
    a328:	20676e69 	rsbcs	r6, r7, r9, ror #28
    a32c:	25207361 	strcs	r7, [r0, #-865]!	; 0xfffffc9f
    a330:	00000a64 	andeq	r0, r0, r4, ror #20
    a334:	20746f6e 	rsbscs	r6, r4, lr, ror #30
    a338:	6b72616d 	blvs	1ca28f4 <__bss_end__+0x1c97b1c>
    a33c:	21676e69 	cmncs	r7, r9, ror #28
    a340:	0000000a 	andeq	r0, r0, sl
    a344:	63656863 	cmnvs	r5, #6488064	; 0x630000
    a348:	676e696b 	strbvs	r6, [lr, -fp, ror #18]!
    a34c:	61747320 	cmnvs	r4, r0, lsr #6
    a350:	203a6b63 	eorscs	r6, sl, r3, ror #22
    a354:	74207025 	strtvc	r7, [r0], #-37	; 0xffffffdb
    a358:	7025206f 	eorvc	r2, r5, pc, rrx
    a35c:	0000000a 	andeq	r0, r0, sl
    a360:	2d2d2d2d 	stccs	13, cr2, [sp, #-180]!	; 0xffffff4c
    a364:	2d2d2d2d 	stccs	13, cr2, [sp, #-180]!	; 0xffffff4c
    a368:	2d2d2d2d 	stccs	13, cr2, [sp, #-180]!	; 0xffffff4c
    a36c:	2d2d2d2d 	stccs	13, cr2, [sp, #-180]!	; 0xffffff4c
    a370:	2d2d2d2d 	stccs	13, cr2, [sp, #-180]!	; 0xffffff4c
    a374:	2d2d2d2d 	stccs	13, cr2, [sp, #-180]!	; 0xffffff4c
    a378:	2d2d2d2d 	stccs	13, cr2, [sp, #-180]!	; 0xffffff4c
    a37c:	2d2d2d2d 	stccs	13, cr2, [sp, #-180]!	; 0xffffff4c
    a380:	2d2d2d2d 	stccs	13, cr2, [sp, #-180]!	; 0xffffff4c
    a384:	2d2d2d2d 	stccs	13, cr2, [sp, #-180]!	; 0xffffff4c
    a388:	2d2d2d2d 	stccs	13, cr2, [sp, #-180]!	; 0xffffff4c
    a38c:	2d2d2d2d 	stccs	13, cr2, [sp, #-180]!	; 0xffffff4c
    a390:	2d2d2d2d 	stccs	13, cr2, [sp, #-180]!	; 0xffffff4c
    a394:	2d2d2d2d 	stccs	13, cr2, [sp, #-180]!	; 0xffffff4c
    a398:	00000a2d 	andeq	r0, r0, sp, lsr #20
    a39c:	63656863 	cmnvs	r5, #6488064	; 0x630000
    a3a0:	676e696b 	strbvs	r6, [lr, -fp, ror #18]!
    a3a4:	726f6620 	rsbvc	r6, pc, #32, 12	; 0x2000000
    a3a8:	61656c20 	cmnvs	r5, r0, lsr #24
    a3ac:	0a3a736b 	beq	ea7160 <__bss_end__+0xe9c388>
    a3b0:	00000000 	andeq	r0, r0, r0
    a3b4:	4c3a4347 	ldcmi	3, cr4, [sl], #-284	; 0xfffffee4
    a3b8:	2054534f 	subscs	r5, r4, pc, asr #6
    a3bc:	2d206425 	cfstrscs	mvf6, [r0, #-148]!	; 0xffffff6c
    a3c0:	7025203e 	eorvc	r2, r5, lr, lsr r0
    a3c4:	0000000a 	andeq	r0, r0, sl
    a3c8:	4d3a4347 	ldcmi	3, cr4, [sl, #-284]!	; 0xfffffee4
    a3cc:	45425941 	strbmi	r5, [r2, #-2369]	; 0xfffff6bf
    a3d0:	534f4c20 	movtpl	r4, #64544	; 0xfc20
    a3d4:	64252054 	strtvs	r2, [r5], #-84	; 0xffffffac
    a3d8:	203e2d20 	eorscs	r2, lr, r0, lsr #26
    a3dc:	000a7025 	andeq	r7, sl, r5, lsr #32
    a3e0:	43415254 	movtmi	r5, #4692	; 0x1254
    a3e4:	47093a45 	strmi	r3, [r9, -r5, asr #20]
    a3e8:	68433a43 	stmdavs	r3, {r0, r1, r6, r9, fp, ip, sp}^
    a3ec:	656b6365 	strbvs	r6, [fp, #-869]!	; 0xfffffc9b
    a3f0:	64252064 	strtvs	r2, [r5], #-100	; 0xffffff9c
    a3f4:	6f6c6220 	svcvs	0x006c6220
    a3f8:	2e736b63 	vsubcs.f64	d22, d3, d19
    a3fc:	0000000a 	andeq	r0, r0, sl
    a400:	43415254 	movtmi	r5, #4692	; 0x1254
    a404:	09093a45 	stmdbeq	r9, {r0, r2, r6, r9, fp, ip, sp}
    a408:	533a4347 	teqpl	sl, #469762049	; 0x1c000001
    a40c:	45434355 	strbmi	r4, [r3, #-853]	; 0xfffffcab
    a410:	203a5353 	eorscs	r5, sl, r3, asr r3
    a414:	6c206f4e 	stcvs	15, cr6, [r0], #-312	; 0xfffffec8
    a418:	736b6165 	cmnvc	fp, #1073741849	; 0x40000019
    a41c:	756f6620 	strbvc	r6, [pc, #-1568]!	; 9e04 <kfree_pop+0x8>
    a420:	0a21646e 	beq	8635e0 <__bss_end__+0x858808>
    a424:	00000000 	andeq	r0, r0, r0
    a428:	43415254 	movtmi	r5, #4692	; 0x1254
    a42c:	09093a45 	stmdbeq	r9, {r0, r2, r6, r9, fp, ip, sp}
    a430:	453a4347 	ldrmi	r4, [sl, #-839]!	; 0xfffffcb9
    a434:	524f5252 	subpl	r5, pc, #536870917	; 0x20000005
    a438:	25203a53 	strcs	r3, [r0, #-2643]!	; 0xfffff5ad
    a43c:	72652064 	rsbvc	r2, r5, #100, 0	; 0x64
    a440:	73726f72 	cmnvc	r2, #456	; 0x1c8
    a444:	6425202c 	strtvs	r2, [r5], #-44	; 0xffffffd4
    a448:	79616d20 	stmdbvc	r1!, {r5, r8, sl, fp, sp, lr}^
    a44c:	655f6562 	ldrbvs	r6, [pc, #-1378]	; 9ef2 <gpio_set_output+0x36>
    a450:	726f7272 	rsbvc	r7, pc, #536870919	; 0x20000007
    a454:	00000a73 	andeq	r0, r0, r3, ror sl
    a458:	2d2d2d2d 	stccs	13, cr2, [sp, #-180]!	; 0xffffff4c
    a45c:	2d2d2d2d 	stccs	13, cr2, [sp, #-180]!	; 0xffffff4c
    a460:	2d2d2d2d 	stccs	13, cr2, [sp, #-180]!	; 0xffffff4c
    a464:	2d2d2d2d 	stccs	13, cr2, [sp, #-180]!	; 0xffffff4c
    a468:	2d2d2d2d 	stccs	13, cr2, [sp, #-180]!	; 0xffffff4c
    a46c:	2d2d2d2d 	stccs	13, cr2, [sp, #-180]!	; 0xffffff4c
    a470:	2d2d2d2d 	stccs	13, cr2, [sp, #-180]!	; 0xffffff4c
    a474:	2d2d2d2d 	stccs	13, cr2, [sp, #-180]!	; 0xffffff4c
    a478:	2d2d2d2d 	stccs	13, cr2, [sp, #-180]!	; 0xffffff4c
    a47c:	2d2d2d2d 	stccs	13, cr2, [sp, #-180]!	; 0xffffff4c
    a480:	2d2d2d2d 	stccs	13, cr2, [sp, #-180]!	; 0xffffff4c
    a484:	2d2d2d2d 	stccs	13, cr2, [sp, #-180]!	; 0xffffff4c
    a488:	2d2d2d2d 	stccs	13, cr2, [sp, #-180]!	; 0xffffff4c
    a48c:	2d2d2d2d 	stccs	13, cr2, [sp, #-180]!	; 0xffffff4c
    a490:	000a2d2d 	andeq	r2, sl, sp, lsr #26
    a494:	72636e69 	rsbvc	r6, r3, #1680	; 0x690
    a498:	6e656d65 	cdpvs	13, 6, cr6, cr5, cr5, {3}
    a49c:	203e2074 	eorscs	r2, lr, r4, ror r0
    a4a0:	00000030 	andeq	r0, r0, r0, lsr r0
    a4a4:	494e4150 	stmdbmi	lr, {r4, r6, r8, lr}^
    a4a8:	73253a43 			; <UNDEFINED> instruction: 0x73253a43
    a4ac:	3a73253a 	bcc	1cd399c <__bss_end__+0x1cc8bc4>
    a4b0:	6e3a6425 	cdpvs	4, 3, cr6, cr10, cr5, {1}
    a4b4:	6820746f 	stmdavs	r0!, {r0, r1, r2, r3, r5, r6, sl, ip, sp, lr}
    a4b8:	6c646e61 	stclvs	14, cr6, [r4], #-388	; 0xfffffe7c
    a4bc:	0a676e69 	beq	19e5e68 <__bss_end__+0x19db090>
    a4c0:	0000000a 	andeq	r0, r0, sl
    a4c4:	494e4150 	stmdbmi	lr, {r4, r6, r8, lr}^
    a4c8:	73253a43 			; <UNDEFINED> instruction: 0x73253a43
    a4cc:	3a73253a 	bcc	1cd39bc <__bss_end__+0x1cc8be4>
    a4d0:	473a6425 	ldrmi	r6, [sl, -r5, lsr #8]!
    a4d4:	73203a43 			; <UNDEFINED> instruction: 0x73203a43
    a4d8:	6c756f68 	ldclvs	15, cr6, [r5], #-416	; 0xfffffe60
    a4dc:	61682064 	cmnvs	r8, r4, rrx
    a4e0:	6e206576 	mcrvs	5, 1, r6, cr0, cr6, {3}
    a4e4:	656c206f 	strbvs	r2, [ip, #-111]!	; 0xffffff91
    a4e8:	21736b61 	cmncs	r3, r1, ror #22
    a4ec:	00000a0a 	andeq	r0, r0, sl, lsl #20
    a4f0:	43415254 	movtmi	r5, #4692	; 0x1254
    a4f4:	43473a45 	movtmi	r3, #31301	; 0x7a45
    a4f8:	5553203a 	ldrbpl	r2, [r3, #-58]	; 0xffffffc6
    a4fc:	53454343 	movtpl	r4, #21315	; 0x5343
    a500:	6e203a53 			; <UNDEFINED> instruction: 0x6e203a53
    a504:	656c206f 	strbvs	r2, [ip, #-111]!	; 0xffffff91
    a508:	21736b61 	cmncs	r3, r1, ror #22
    a50c:	0000000a 	andeq	r0, r0, sl
    a510:	494e4150 	stmdbmi	lr, {r4, r6, r8, lr}^
    a514:	73253a43 			; <UNDEFINED> instruction: 0x73253a43
    a518:	3a73253a 	bcc	1cd3a08 <__bss_end__+0x1cc8c30>
    a51c:	473a6425 	ldrmi	r6, [sl, -r5, lsr #8]!
    a520:	73203a43 			; <UNDEFINED> instruction: 0x73203a43
    a524:	6c756f68 	ldclvs	15, cr6, [r5], #-416	; 0xfffffe60
    a528:	61682064 	cmnvs	r8, r4, rrx
    a52c:	6c206576 	cfstr32vs	mvfx6, [r0], #-472	; 0xfffffe28
    a530:	736b6165 	cmnvc	fp, #1073741849	; 0x40000019
    a534:	000a0a21 	andeq	r0, sl, r1, lsr #20
    a538:	43415254 	movtmi	r5, #4692	; 0x1254
    a53c:	43473a45 	movtmi	r3, #31301	; 0x7a45
    a540:	5553203a 	ldrbpl	r2, [r3, #-58]	; 0xffffffc6
    a544:	53454343 	movtpl	r4, #21315	; 0x5343
    a548:	66203a53 			; <UNDEFINED> instruction: 0x66203a53
    a54c:	646e756f 	strbtvs	r7, [lr], #-1391	; 0xfffffa91
    a550:	20642520 	rsbcs	r2, r4, r0, lsr #10
    a554:	6b61656c 	blvs	1863b0c <__bss_end__+0x1858d34>
    a558:	000a2173 	andeq	r2, sl, r3, ror r1
    a55c:	706d6f63 	rsbvc	r6, sp, r3, ror #30
    a560:	69746361 	ldmdbvs	r4!, {r0, r5, r6, r8, r9, sp, lr}^
    a564:	0a3a676e 	beq	ea4324 <__bss_end__+0xe9954c>
    a568:	00000000 	andeq	r0, r0, r0
    a56c:	463a4347 	ldrtmi	r4, [sl], -r7, asr #6
    a570:	44454552 	strbmi	r4, [r5], #-1362	; 0xfffffaae
    a574:	0a702520 	beq	1c139fc <__bss_end__+0x1c08c24>
    a578:	00000000 	andeq	r0, r0, r0
    a57c:	43415254 	movtmi	r5, #4692	; 0x1254
    a580:	47093a45 	strmi	r3, [r9, -r5, asr #20]
    a584:	68433a43 	stmdavs	r3, {r0, r1, r6, r9, fp, ip, sp}^
    a588:	656b6365 	strbvs	r6, [fp, #-869]!	; 0xfffffc9b
    a58c:	64252064 	strtvs	r2, [r5], #-100	; 0xffffff9c
    a590:	6f6c6220 	svcvs	0x006c6220
    a594:	2c736b63 			; <UNDEFINED> instruction: 0x2c736b63
    a598:	65726620 	ldrbvs	r6, [r2, #-1568]!	; 0xfffff9e0
    a59c:	25206465 	strcs	r6, [r0, #-1125]!	; 0xfffffb9b
    a5a0:	25202c64 	strcs	r2, [r0, #-3172]!	; 0xfffff39c
    a5a4:	79622064 	stmdbvc	r2!, {r2, r5, r6, sp}^
    a5a8:	0a736574 	beq	1ce3b80 <__bss_end__+0x1cd8da8>
    a5ac:	00000000 	andeq	r0, r0, r0
    a5b0:	494e4150 	stmdbmi	lr, {r4, r6, r8, lr}^
    a5b4:	73253a43 			; <UNDEFINED> instruction: 0x73253a43
    a5b8:	3a73253a 	bcc	1cd3aa8 <__bss_end__+0x1cc8cd0>
    a5bc:	643a6425 	ldrtvs	r6, [sl], #-1061	; 0xfffffbdb
    a5c0:	6e206469 	cdpvs	4, 2, cr6, cr0, cr9, {3}
    a5c4:	6920746f 	stmdbvs	r0!, {r0, r1, r2, r3, r5, r6, sl, ip, sp, lr}
    a5c8:	656c706d 	strbvs	r7, [ip, #-109]!	; 0xffffff93
    a5cc:	746e656d 	strbtvc	r6, [lr], #-1389	; 0xfffffa93
    a5d0:	6d756420 	cfldrdvs	mvd6, [r5, #-128]!	; 0xffffff80
    a5d4:	65725f70 	ldrbvs	r5, [r2, #-3952]!	; 0xfffff090
    a5d8:	0a217367 	beq	86737c <__bss_end__+0x85c5a4>
    a5dc:	0000000a 	andeq	r0, r0, sl

0000a5e0 <__FUNCTION__.4045>:
    a5e0:	6b72616d 	blvs	1ca2b9c <__bss_end__+0x1c97dc4>
    a5e4:	00000000 	andeq	r0, r0, r0

0000a5e8 <__FUNCTION__.4032>:
    a5e8:	6b726273 	blvs	1ca2fbc <__bss_end__+0x1c981e4>
    a5ec:	00000000 	andeq	r0, r0, r0

0000a5f0 <__FUNCTION__.4088>:
    a5f0:	63656863 	cmnvs	r5, #6488064	; 0x630000
    a5f4:	6f6e5f6b 	svcvs	0x006e5f6b
    a5f8:	61656c5f 	cmnvs	r5, pc, asr ip
    a5fc:	0000006b 	andeq	r0, r0, fp, rrx

0000a600 <__FUNCTION__.4093>:
    a600:	63656863 	cmnvs	r5, #6488064	; 0x630000
    a604:	68735f6b 	ldmdavs	r3!, {r0, r1, r3, r5, r6, r8, r9, sl, fp, ip, lr}^
    a608:	646c756f 	strbtvs	r7, [ip], #-1391	; 0xfffffa91
    a60c:	61656c5f 	cmnvs	r5, pc, asr ip
    a610:	0000006b 	andeq	r0, r0, fp, rrx

0000a614 <__FUNCTION__.4101>:
    a614:	65657773 	strbvs	r7, [r5, #-1907]!	; 0xfffff88d
    a618:	72665f70 	rsbvc	r5, r6, #112, 30	; 0x1c0
    a61c:	00006565 	andeq	r6, r0, r5, ror #10

0000a620 <__FUNCTION__.4112>:
    a620:	6c706d69 	ldclvs	13, cr6, [r0], #-420	; 0xfffffe5c
    a624:	6e656d65 	cdpvs	13, 6, cr6, cr5, cr5, {3}
    a628:	68745f74 	ldmdavs	r4!, {r2, r4, r5, r6, r8, r9, sl, fp, ip, lr}^
    a62c:	00007369 	andeq	r7, r0, r9, ror #6
    a630:	696c2f2e 	stmdbvs	ip!, {r1, r2, r3, r5, r8, r9, sl, fp, sp}^
    a634:	762f6362 	strtvc	r6, [pc], -r2, ror #6
    a638:	72702d61 	rsbsvc	r2, r0, #6208	; 0x1840
    a63c:	6b746e69 	blvs	1d25fe8 <__bss_end__+0x1d1b210>
    a640:	0000632e 	andeq	r6, r0, lr, lsr #6
    a644:	33323130 	teqcc	r2, #12
    a648:	37363534 			; <UNDEFINED> instruction: 0x37363534
    a64c:	62613938 	rsbvs	r3, r1, #56, 18	; 0xe0000
    a650:	66656463 	strbtvs	r6, [r5], -r3, ror #8
    a654:	00000000 	andeq	r0, r0, r0
    a658:	00003130 	andeq	r3, r0, r0, lsr r1
    a65c:	33323130 	teqcc	r2, #12
    a660:	37363534 			; <UNDEFINED> instruction: 0x37363534
    a664:	00003938 	andeq	r3, r0, r8, lsr r9
    a668:	63747570 	cmnvs	r4, #112, 10	; 0x1c000000
    a66c:	0070665f 	rsbseq	r6, r0, pc, asr r6
    a670:	74646977 	strbtvc	r6, [r4], #-2423	; 0xfffff689
    a674:	203c2068 	eorscs	r2, ip, r8, rrx
    a678:	00003233 	andeq	r3, r0, r3, lsr r2
    a67c:	00786c6c 	rsbseq	r6, r8, ip, ror #24
    a680:	253d3078 	ldrcs	r3, [sp, #-120]!	; 0xffffff88
    a684:	00000a78 	andeq	r0, r0, r8, ror sl
    a688:	253d3178 	ldrcs	r3, [sp, #-376]!	; 0xfffffe88
    a68c:	00000a78 	andeq	r0, r0, r8, ror sl
    a690:	00646c6c 	rsbeq	r6, r4, ip, ror #24
    a694:	6e727473 	mrcvs	4, 3, r7, cr2, cr3, {3}
    a698:	28706d63 	ldmdacs	r0!, {r0, r1, r5, r6, r8, sl, fp, sp, lr}^
    a69c:	202c7974 	eorcs	r7, ip, r4, ror r9
    a6a0:	786c6c22 	stmdavc	ip!, {r1, r5, sl, fp, sp, lr}^
    a6a4:	33202c22 			; <UNDEFINED> instruction: 0x33202c22
    a6a8:	3d3d2029 	ldccc	0, cr2, [sp, #-164]!	; 0xffffff5c
    a6ac:	7c203020 	stcvc	0, cr3, [r0], #-128	; 0xffffff80
    a6b0:	7473207c 	ldrbtvc	r2, [r3], #-124	; 0xffffff84
    a6b4:	6d636e72 	stclvs	14, cr6, [r3, #-456]!	; 0xfffffe38
    a6b8:	79742870 	ldmdbvc	r4!, {r4, r5, r6, fp, sp}^
    a6bc:	6c22202c 	stcvs	0, cr2, [r2], #-176	; 0xffffff50
    a6c0:	2c22646c 	cfstrscs	mvf6, [r2], #-432	; 0xfffffe50
    a6c4:	20293320 	eorcs	r3, r9, r0, lsr #6
    a6c8:	30203d3d 	eorcc	r3, r0, sp, lsr sp
    a6cc:	00000000 	andeq	r0, r0, r0
    a6d0:	494e4150 	stmdbmi	lr, {r4, r6, r8, lr}^
    a6d4:	73253a43 			; <UNDEFINED> instruction: 0x73253a43
    a6d8:	3a73253a 	bcc	1cd3bc8 <__bss_end__+0x1cc8df0>
    a6dc:	693a6425 	ldmdbvs	sl!, {r0, r2, r5, sl, sp, lr}
    a6e0:	736f706d 	cmnvc	pc, #109, 0	; 0x6d
    a6e4:	6c626973 			; <UNDEFINED> instruction: 0x6c626973
    a6e8:	66203a65 	strtvs	r3, [r0], -r5, ror #20
    a6ec:	3c3d746d 	cfldrscc	mvf7, [sp], #-436	; 0xfffffe4c
    a6f0:	0a3e7325 	beq	fa738c <__bss_end__+0xf9c5b4>
    a6f4:	0000000a 	andeq	r0, r0, sl
    a6f8:	494e4150 	stmdbmi	lr, {r4, r6, r8, lr}^
    a6fc:	73253a43 			; <UNDEFINED> instruction: 0x73253a43
    a700:	3a73253a 	bcc	1cd3bf0 <__bss_end__+0x1cc8e18>
    a704:	663a6425 	ldrtvs	r6, [sl], -r5, lsr #8
    a708:	74616f6c 	strbtvc	r6, [r1], #-3948	; 0xfffff094
    a70c:	746f6e20 	strbtvc	r6, [pc], #-3616	; a714 <__FUNCTION__.4112+0xf4>
    a710:	616e6520 	cmnvs	lr, r0, lsr #10
    a714:	64656c62 	strbtvs	r6, [r5], #-3170	; 0xfffff39e
    a718:	0a212121 	beq	852ba4 <__bss_end__+0x847dcc>
    a71c:	00000000 	andeq	r0, r0, r0
    a720:	6e697270 	mcrvs	2, 3, r7, cr9, cr0, {3}
    a724:	203a6b74 	eorscs	r6, sl, r4, ror fp
    a728:	20746f6e 	rsbscs	r6, r4, lr, ror #30
    a72c:	646e6168 	strbtvs	r6, [lr], #-360	; 0xfffffe98
    a730:	676e696c 	strbvs	r6, [lr, -ip, ror #18]!
    a734:	65707320 	ldrbvs	r7, [r0, #-800]!	; 0xfffffce0
    a738:	69666963 	stmdbvs	r6!, {r0, r1, r5, r6, r8, fp, sp, lr}^
    a73c:	27207265 	strcs	r7, [r0, -r5, ror #4]!
    a740:	20276325 	eorcs	r6, r7, r5, lsr #6
    a744:	63736128 	cmnvs	r3, #10
    a748:	253d6969 	ldrcs	r6, [sp, #-2409]!	; 0xfffff697
    a74c:	000a2964 	andeq	r2, sl, r4, ror #18
    a750:	494e4150 	stmdbmi	lr, {r4, r6, r8, lr}^
    a754:	73253a43 			; <UNDEFINED> instruction: 0x73253a43
    a758:	3a73253a 	bcc	1cd3c48 <__bss_end__+0x1cc8e70>
    a75c:	703a6425 	eorsvc	r6, sl, r5, lsr #8
    a760:	746e6972 	strbtvc	r6, [lr], #-2418	; 0xfffff68e
    a764:	7265206b 	rsbvc	r2, r5, #107, 0	; 0x6b
    a768:	0a726f72 	beq	1ca6538 <__bss_end__+0x1c9b760>
    a76c:	0000000a 	andeq	r0, r0, sl

0000a770 <__FUNCTION__.4004>:
    a770:	74696d65 	strbtvc	r6, [r9], #-3429	; 0xfffff29b
    a774:	00000000 	andeq	r0, r0, r0

0000a778 <__FUNCTION__.3952>:
    a778:	5f697072 	svcpl	0x00697072
    a77c:	5f746573 	svcpl	0x00746573
    a780:	7074756f 	rsbsvc	r7, r4, pc, ror #10
    a784:	00007475 	andeq	r7, r0, r5, ror r4

0000a788 <__FUNCTION__.4030>:
    a788:	705f6176 	subsvc	r6, pc, r6, ror r1	; <UNPREDICTABLE>
    a78c:	746e6972 	strbtvc	r6, [lr], #-2418	; 0xfffff68e
    a790:	0000006b 	andeq	r0, r0, fp, rrx
    a794:	454e4f44 	strbmi	r4, [lr, #-3908]	; 0xfffff0bc
    a798:	0a212121 	beq	852c24 <__bss_end__+0x847e4c>
    a79c:	00000000 	andeq	r0, r0, r0
    a7a0:	6c616d6b 	stclvs	13, cr6, [r1], #-428	; 0xfffffe54
    a7a4:	2e636f6c 	cdpcs	15, 6, cr6, cr3, cr12, {3}
    a7a8:	00000063 	andeq	r0, r0, r3, rrx
    a7ac:	5f78616d 	svcpl	0x0078616d
    a7b0:	7479626e 	ldrbtvc	r6, [r9], #-622	; 0xfffffd92
    a7b4:	00007365 	andeq	r7, r0, r5, ror #6
    a7b8:	494e4150 	stmdbmi	lr, {r4, r6, r8, lr}^
    a7bc:	73253a43 			; <UNDEFINED> instruction: 0x73253a43
    a7c0:	3a73253a 	bcc	1cd3cb0 <__bss_end__+0x1cc8ed8>
    a7c4:	733a6425 	teqvc	sl, #620756992	; 0x25000000
    a7c8:	69747465 	ldmdbvs	r4!, {r0, r2, r5, r6, sl, ip, sp, lr}^
    a7cc:	6820676e 	stmdavs	r0!, {r1, r2, r3, r5, r6, r8, r9, sl, sp, lr}
    a7d0:	20706165 	rsbscs	r6, r0, r5, ror #2
    a7d4:	25206f74 	strcs	r6, [r0, #-3956]!	; 0xfffff08c
    a7d8:	77203a70 			; <UNDEFINED> instruction: 0x77203a70
    a7dc:	206c6c69 	rsbcs	r6, ip, r9, ror #24
    a7e0:	20746968 	rsbscs	r6, r4, r8, ror #18
    a7e4:	20656874 	rsbcs	r6, r5, r4, ror r8
    a7e8:	20646c6f 	rsbcs	r6, r4, pc, ror #24
    a7ec:	70616568 	rsbvc	r6, r1, r8, ror #10
    a7f0:	20746120 	rsbscs	r6, r4, r0, lsr #2
    a7f4:	0a0a7025 	beq	2a6890 <__bss_end__+0x29bab8>
    a7f8:	00000000 	andeq	r0, r0, r0
    a7fc:	494e4150 	stmdbmi	lr, {r4, r6, r8, lr}^
    a800:	73253a43 			; <UNDEFINED> instruction: 0x73253a43
    a804:	3a73253a 	bcc	1cd3cf4 <__bss_end__+0x1cc8f1c>
    a808:	613a6425 	teqvs	sl, r5, lsr #8
    a80c:	6165726c 	cmnvs	r5, ip, ror #4
    a810:	63207964 			; <UNDEFINED> instruction: 0x63207964
    a814:	656c6c61 	strbvs	r6, [ip, #-3169]!	; 0xfffff39f
    a818:	6d6b2064 	stclvs	0, cr2, [fp, #-400]!	; 0xfffffe70
    a81c:	6f6c6c61 	svcvs	0x006c6c61
    a820:	6e695f63 	cdpvs	15, 6, cr5, cr9, cr3, {3}
    a824:	0a0a7469 	beq	2a79d0 <__bss_end__+0x29cbf8>
    a828:	00000000 	andeq	r0, r0, r0
    a82c:	494e4150 	stmdbmi	lr, {r4, r6, r8, lr}^
    a830:	73253a43 			; <UNDEFINED> instruction: 0x73253a43
    a834:	3a73253a 	bcc	1cd3d24 <__bss_end__+0x1cc8f4c>
    a838:	253a6425 	ldrcs	r6, [sl, #-1061]!	; 0xfffffbdb
    a83c:	626e2064 	rsbvs	r2, lr, #100, 0	; 0x64
    a840:	73657479 	cmnvc	r5, #2030043136	; 0x79000000
    a844:	63786520 	cmnvs	r8, #32, 10	; 0x8000000
    a848:	65646565 	strbvs	r6, [r4, #-1381]!	; 0xfffffa9b
    a84c:	69732064 	ldmdbvs	r3!, {r2, r5, r6, sp}^
    a850:	6f20657a 	svcvs	0x0020657a
    a854:	65682066 	strbvs	r2, [r8, #-102]!	; 0xffffff9a
    a858:	62207061 	eorvs	r7, r0, #97, 0	; 0x61
    a85c:	75252079 	strvc	r2, [r5, #-121]!	; 0xffffff87
    a860:	79626e20 	stmdbvc	r2!, {r5, r9, sl, fp, sp, lr}^
    a864:	0a736574 	beq	1ce3e3c <__bss_end__+0x1cd9064>
    a868:	0000000a 	andeq	r0, r0, sl
    a86c:	4f525245 	svcmi	0x00525245
    a870:	73253a52 			; <UNDEFINED> instruction: 0x73253a52
    a874:	3a73253a 	bcc	1cd3d64 <__bss_end__+0x1cc8f8c>
    a878:	203a6425 	eorscs	r6, sl, r5, lsr #8
    a87c:	534c4146 	movtpl	r4, #49478	; 0xc146
    a880:	253c2845 	ldrcs	r2, [ip, #-2117]!	; 0xfffff7bb
    a884:	3a293e73 	bcc	a5a258 <__bss_end__+0xa4f480>
    a888:	73736120 	cmnvc	r3, #8
    a88c:	6e696d75 	mcrvs	13, 3, r6, cr9, cr5, {3}
    a890:	6f702067 	svcvs	0x00702067
    a894:	20726577 	rsbscs	r6, r2, r7, ror r5
    a898:	7420666f 	strtvc	r6, [r0], #-1647	; 0xfffff991
    a89c:	000a6f77 	andeq	r6, sl, r7, ror pc
    a8a0:	705f7369 	subsvc	r7, pc, r9, ror #6
    a8a4:	2832776f 	ldmdacs	r2!, {r0, r1, r2, r3, r5, r6, r8, r9, sl, ip, sp, lr}
    a8a8:	67696c61 	strbvs	r6, [r9, -r1, ror #24]!
    a8ac:	6e656d6e 	cdpvs	13, 6, cr6, cr5, cr14, {3}
    a8b0:	00002974 	andeq	r2, r0, r4, ror r9
    a8b4:	705f7369 	subsvc	r7, pc, r9, ror #6
    a8b8:	2832776f 	ldmdacs	r2!, {r0, r1, r2, r3, r5, r6, r8, r9, sl, ip, sp, lr}
    a8bc:	0000296e 	andeq	r2, r0, lr, ror #18
    a8c0:	4f525245 	svcmi	0x00525245
    a8c4:	73253a52 			; <UNDEFINED> instruction: 0x73253a52
    a8c8:	3a73253a 	bcc	1cd3db8 <__bss_end__+0x1cc8fe0>
    a8cc:	203a6425 	eorscs	r6, sl, r5, lsr #8
    a8d0:	534c4146 	movtpl	r4, #49478	; 0xc146
    a8d4:	253c2845 	ldrcs	r2, [ip, #-2117]!	; 0xfffff7bb
    a8d8:	3a293e73 	bcc	a5a2ac <__bss_end__+0xa4f4d4>
    a8dc:	706d6920 	rsbvc	r6, sp, r0, lsr #18
    a8e0:	6973736f 	ldmdbvs	r3!, {r0, r1, r2, r3, r5, r6, r8, r9, ip, sp, lr}^
    a8e4:	0a656c62 	beq	1965a74 <__bss_end__+0x195ac9c>
    a8e8:	00000000 	andeq	r0, r0, r0
    a8ec:	615f7369 	cmpvs	pc, r9, ror #6
    a8f0:	6e67696c 	vnmulvs.f16	s13, s14, s25	; <UNPREDICTABLE>
    a8f4:	68286465 	stmdavs	r8!, {r0, r2, r5, r6, sl, sp, lr}
    a8f8:	6c61202c 	stclvs	0, cr2, [r1], #-176	; 0xffffff50
    a8fc:	6d6e6769 	stclvs	7, cr6, [lr, #-420]!	; 0xfffffe5c
    a900:	29746e65 	ldmdbcs	r4!, {r0, r2, r5, r6, r9, sl, fp, sp, lr}^
    a904:	00000000 	andeq	r0, r0, r0
    a908:	494e4150 	stmdbmi	lr, {r4, r6, r8, lr}^
    a90c:	73253a43 			; <UNDEFINED> instruction: 0x73253a43
    a910:	3a73253a 	bcc	1cd3e00 <__bss_end__+0x1cc9028>
    a914:	703a6425 	eorsvc	r6, sl, r5, lsr #8
    a918:	746e696f 	strbtvc	r6, [lr], #-2415	; 0xfffff691
    a91c:	25207265 	strcs	r7, [r0, #-613]!	; 0xfffffd9b
    a920:	61772070 	cmnvs	r7, r0, ror r0
    a924:	656e2073 	strbvs	r2, [lr, #-115]!	; 0xffffff8d
    a928:	20726576 	rsbscs	r6, r2, r6, ror r5
    a92c:	6f6c6c61 	svcvs	0x006c6c61
    a930:	65746163 	ldrbvs	r6, [r4, #-355]!	; 0xfffffe9d
    a934:	000a0a64 	andeq	r0, sl, r4, ror #20

0000a938 <__FUNCTION__.7>:
    a938:	6c616d6b 	stclvs	13, cr6, [r1], #-428	; 0xfffffe54
    a93c:	5f636f6c 	svcpl	0x00636f6c
    a940:	74696e69 	strbtvc	r6, [r9], #-3689	; 0xfffff197
    a944:	7465735f 	strbtvc	r7, [r5], #-863	; 0xfffffca1
    a948:	6174735f 	cmnvs	r4, pc, asr r3
    a94c:	00007472 	andeq	r7, r0, r2, ror r4

0000a950 <__FUNCTION__.5>:
    a950:	6c616d6b 	stclvs	13, cr6, [r1], #-428	; 0xfffffe54
    a954:	5f636f6c 	svcpl	0x00636f6c
    a958:	74696e69 	strbtvc	r6, [r9], #-3689	; 0xfffff197
    a95c:	00000000 	andeq	r0, r0, r0

0000a960 <__FUNCTION__.4>:
    a960:	6c616d6b 	stclvs	13, cr6, [r1], #-428	; 0xfffffe54
    a964:	5f636f6c 	svcpl	0x00636f6c
    a968:	7a746f6e 	bvc	1d26728 <__bss_end__+0x1d1b950>
    a96c:	006f7265 	rsbeq	r7, pc, r5, ror #4

0000a970 <__FUNCTION__.2>:
    a970:	6c616d6b 	stclvs	13, cr6, [r1], #-428	; 0xfffffe54
    a974:	00636f6c 	rsbeq	r6, r3, ip, ror #30

0000a978 <__FUNCTION__.1>:
    a978:	6c616d6b 	stclvs	13, cr6, [r1], #-428	; 0xfffffe54
    a97c:	5f636f6c 	svcpl	0x00636f6c
    a980:	67696c61 	strbvs	r6, [r9, -r1, ror #24]!
    a984:	0064656e 	rsbeq	r6, r4, lr, ror #10

0000a988 <__FUNCTION__.3>:
    a988:	6e756f72 	mrcvs	15, 3, r6, cr5, cr2, {3}
    a98c:	00707564 	rsbseq	r7, r0, r4, ror #10

0000a990 <__FUNCTION__.0>:
    a990:	6572666b 	ldrbvs	r6, [r2, #-1643]!	; 0xfffff995
    a994:	6f705f65 	svcvs	0x00705f65
    a998:	Address 0x000000000000a998 is out of bounds.


Disassembly of section .data:

0000a99c <putk>:
    a99c:	00008c00 	andeq	r8, r0, r0, lsl #24

0000a9a0 <heap>:
    a9a0:	0000add8 	ldrdeq	sl, [r0], -r8

0000a9a4 <heap_start>:
    a9a4:	0000add8 	ldrdeq	sl, [r0], -r8

0000a9a8 <heap_end>:
    a9a8:	0020add8 	ldrdeq	sl, [r0], -r8	; <UNPREDICTABLE>

0000a9ac <rpi_putchar>:
    a9ac:	00009ff4 	strdeq	r9, [r0], -r4

Disassembly of section .bss:

0000a9b0 <__bss_start__>:
	...

0000a9b8 <freep>:
	...

0000a9c0 <base>:
	...

0000a9c8 <heap_start>:
    a9c8:	00000000 	andeq	r0, r0, r0

0000a9cc <heap_end>:
    a9cc:	00000000 	andeq	r0, r0, r0

0000a9d0 <init_p.4031>:
    a9d0:	00000000 	andeq	r0, r0, r0

0000a9d4 <buf.3944>:
	...

0000add4 <init_p.6>:
    add4:	00000000 	andeq	r0, r0, r0

Disassembly of section .ARM.attributes:

00000000 <.ARM.attributes>:
   0:	00002a41 	andeq	r2, r0, r1, asr #20
   4:	61656100 	cmnvs	r5, r0, lsl #2
   8:	01006962 	tsteq	r0, r2, ror #18
   c:	00000020 	andeq	r0, r0, r0, lsr #32
  10:	4b5a3605 	blmi	168d82c <__bss_end__+0x1682a54>
  14:	08070600 	stmdaeq	r7, {r9, sl}
  18:	12010901 	andne	r0, r1, #16384	; 0x4000
  1c:	15011404 	strne	r1, [r1, #-1028]	; 0xfffffbfc
  20:	18031701 	stmdane	r3, {r0, r8, r9, sl, ip}
  24:	22011a01 	andcs	r1, r1, #4096	; 0x1000
  28:	Address 0x0000000000000028 is out of bounds.


Disassembly of section .comment:

00000000 <.comment>:
   0:	3a434347 	bcc	10d0d24 <__bss_end__+0x10c5f4c>
   4:	4e472820 	cdpmi	8, 4, cr2, cr7, cr0, {1}
   8:	6f542055 	svcvs	0x00542055
   c:	20736c6f 	rsbscs	r6, r3, pc, ror #24
  10:	20726f66 	rsbscs	r6, r2, r6, ror #30
  14:	206d7241 	rsbcs	r7, sp, r1, asr #4
  18:	65626d45 	strbvs	r6, [r2, #-3397]!	; 0xfffff2bb
  1c:	64656464 	strbtvs	r6, [r5], #-1124	; 0xfffffb9c
  20:	6f725020 	svcvs	0x00725020
  24:	73736563 	cmnvc	r3, #415236096	; 0x18c00000
  28:	2073726f 	rsbscs	r7, r3, pc, ror #4
  2c:	30322d39 	eorscc	r2, r2, r9, lsr sp
  30:	712d3931 			; <UNDEFINED> instruction: 0x712d3931
  34:	616d2d34 	cmnvs	sp, r4, lsr sp
  38:	29726f6a 	ldmdbcs	r2!, {r1, r3, r5, r6, r8, r9, sl, fp, sp, lr}^
  3c:	322e3920 	eorcc	r3, lr, #32, 18	; 0x80000
  40:	3220312e 	eorcc	r3, r0, #-2147483637	; 0x8000000b
  44:	31393130 	teqcc	r9, r0, lsr r1
  48:	20353230 	eorscs	r3, r5, r0, lsr r2
  4c:	6c657228 	sfmvs	f7, 2, [r5], #-160	; 0xffffff60
  50:	65736165 	ldrbvs	r6, [r3, #-357]!	; 0xfffffe9b
  54:	415b2029 	cmpmi	fp, r9, lsr #32
  58:	612f4d52 			; <UNDEFINED> instruction: 0x612f4d52
  5c:	392d6d72 	pushcc	{r1, r4, r5, r6, r8, sl, fp, sp, lr}
  60:	6172622d 	cmnvs	r2, sp, lsr #4
  64:	2068636e 	rsbcs	r6, r8, lr, ror #6
  68:	69766572 	ldmdbvs	r6!, {r1, r4, r5, r6, r8, sl, sp, lr}^
  6c:	6e6f6973 			; <UNDEFINED> instruction: 0x6e6f6973
  70:	37373220 	ldrcc	r3, [r7, -r0, lsr #4]!
  74:	5d393935 			; <UNDEFINED> instruction: 0x5d393935
  78:	43434700 	movtmi	r4, #14080	; 0x3700
  7c:	4728203a 			; <UNDEFINED> instruction: 0x4728203a
  80:	4120554e 			; <UNDEFINED> instruction: 0x4120554e
  84:	45206d72 	strmi	r6, [r0, #-3442]!	; 0xfffff28e
  88:	6465626d 	strbtvs	r6, [r5], #-621	; 0xfffffd93
  8c:	20646564 	rsbcs	r6, r4, r4, ror #10
  90:	6c6f6f54 	stclvs	15, cr6, [pc], #-336	; ffffff48 <__bss_end__+0xffff5170>
  94:	69616863 	stmdbvs	r1!, {r0, r1, r5, r6, fp, sp, lr}^
  98:	3031206e 	eorscc	r2, r1, lr, rrx
  9c:	322d332e 	eorcc	r3, sp, #-1207959552	; 0xb8000000
  a0:	2e313230 	mrccs	2, 1, r3, cr1, cr0, {1}
  a4:	20293031 	eorcs	r3, r9, r1, lsr r0
  a8:	332e3031 			; <UNDEFINED> instruction: 0x332e3031
  ac:	3220312e 	eorcc	r3, r0, #-2147483637	; 0x8000000b
  b0:	30313230 	eorscc	r3, r1, r0, lsr r2
  b4:	20343238 	eorscs	r3, r4, r8, lsr r2
  b8:	6c657228 	sfmvs	f7, 2, [r5], #-160	; 0xffffff60
  bc:	65736165 	ldrbvs	r6, [r3, #-357]!	; 0xfffffe9b
  c0:	Address 0x00000000000000c0 is out of bounds.


Disassembly of section .debug_info:

00000000 <.debug_info>:
       0:	000004a8 	andeq	r0, r0, r8, lsr #9
       4:	00000004 	andeq	r0, r0, r4
       8:	01040000 	mrseq	r0, (UNDEF: 4)
       c:	000000b4 	strheq	r0, [r0], -r4
      10:	0000690c 	andeq	r6, r0, ip, lsl #18
      14:	00018e00 	andeq	r8, r1, r0, lsl #28
      18:	00803800 	addeq	r3, r0, r0, lsl #16
      1c:	00012800 	andeq	r2, r1, r0, lsl #16
      20:	00000000 	andeq	r0, r0, r0
      24:	05040200 	streq	r0, [r4, #-512]	; 0xfffffe00
      28:	00746e69 	rsbseq	r6, r4, r9, ror #28
      2c:	df070403 	svcle	0x00070403
      30:	03000001 	movweq	r0, #1
      34:	01770601 	cmneq	r7, r1, lsl #12
      38:	02030000 	andeq	r0, r3, #0, 0
      3c:	00002105 	andeq	r2, r0, r5, lsl #2
      40:	05040300 	streq	r0, [r4, #-768]	; 0xfffffd00
      44:	00000056 	andeq	r0, r0, r6, asr r0
      48:	51050803 	tstpl	r5, r3, lsl #16
      4c:	04000000 	streq	r0, [r0], #-0
      50:	00000044 	andeq	r0, r0, r4, asr #32
      54:	5b182e04 	blpl	60b86c <__bss_end__+0x600a94>
      58:	03000000 	movweq	r0, #0
      5c:	01750801 	cmneq	r5, r1, lsl #16
      60:	f5040000 			; <UNDEFINED> instruction: 0xf5040000
      64:	04000001 	streq	r0, [r0], #-1
      68:	006e1931 	rsbeq	r1, lr, r1, lsr r9
      6c:	02030000 	andeq	r0, r3, #0, 0
      70:	00020607 	andeq	r0, r2, r7, lsl #12
      74:	01ec0400 	mvneq	r0, r0, lsl #8
      78:	34040000 	strcc	r0, [r4], #-0
      7c:	00008119 	andeq	r8, r0, r9, lsl r1
      80:	07040300 	streq	r0, [r4, -r0, lsl #6]
      84:	000001da 	ldrdeq	r0, [r0], -sl
      88:	d5070803 	strle	r0, [r7, #-2051]	; 0xfffff7fd
      8c:	05000001 	streq	r0, [r0, #-1]
      90:	00000025 	andeq	r0, r0, r5, lsr #32
      94:	0000009e 	muleq	r0, lr, r0
      98:	00002506 	andeq	r2, r0, r6, lsl #10
      9c:	2b070000 	blcs	1c00a4 <__bss_end__+0x1b52cc>
      a0:	05000000 	streq	r0, [r0, #-0]
      a4:	00aa0e1c 	adceq	r0, sl, ip, lsl lr
      a8:	04080000 	streq	r0, [r8], #-0
      ac:	0000008f 	andeq	r0, r0, pc, lsl #1
      b0:	00002505 	andeq	r2, r0, r5, lsl #10
      b4:	0000bf00 	andeq	fp, r0, r0, lsl #30
      b8:	00bf0600 	adcseq	r0, pc, r0, lsl #12
      bc:	08000000 	stmdaeq	r0, {}	; <UNPREDICTABLE>
      c0:	0000cc04 	andeq	ip, r0, r4, lsl #24
      c4:	08010300 	stmdaeq	r1, {r8, r9}
      c8:	0000017e 	andeq	r0, r0, lr, ror r1
      cc:	0000c509 	andeq	ip, r0, r9, lsl #10
      d0:	05d20700 	ldrbeq	r0, [r2, #1792]	; 0x700
      d4:	21050000 	mrscs	r0, (UNDEF: 5)
      d8:	0000dd0e 	andeq	sp, r0, lr, lsl #26
      dc:	b0040800 	andlt	r0, r4, r0, lsl #16
      e0:	0a000000 	beq	e8 <__code_start__-0x7f18>
      e4:	0904020c 	stmdbeq	r4, {r2, r3, r9}
      e8:	00000114 	andeq	r0, r0, r4, lsl r1
      ec:	00003f0b 	andeq	r3, r0, fp, lsl #30
      f0:	11060200 	mrsne	r0, LR_usr
      f4:	000000bf 	strheq	r0, [r0], -pc	; <UNPREDICTABLE>
      f8:	004c0b00 	subeq	r0, ip, r0, lsl #22
      fc:	07020000 	streq	r0, [r2, -r0]
     100:	0000bf11 	andeq	fp, r0, r1, lsl pc
     104:	ce0b0400 	cfcpysgt	mvf0, mvf11
     108:	02000001 	andeq	r0, r0, #1, 0
     10c:	002c0e08 	eoreq	r0, ip, r8, lsl #28
     110:	00080000 	andeq	r0, r8, r0
     114:	00024704 	andeq	r4, r2, r4, lsl #14
     118:	03090200 	movweq	r0, #37376	; 0x9200
     11c:	000000e3 	andeq	r0, r0, r3, ror #1
     120:	0000890c 	andeq	r8, r0, ip, lsl #18
     124:	0d03a800 	stceq	8, cr10, [r3, #-0]
     128:	0001a310 	andeq	sl, r1, r0, lsl r3
     12c:	02420b00 	subeq	r0, r2, #0, 22
     130:	0e030000 	cdpeq	0, 0, cr0, cr3, cr0, {0}
     134:	0001a314 	andeq	sl, r1, r4, lsl r3
     138:	1e0b0000 	cdpne	0, 0, cr0, cr11, cr0, {0}
     13c:	03000002 	movweq	r0, #2
     140:	00750e0f 	rsbseq	r0, r5, pc, lsl #28
     144:	0b040000 	bleq	10014c <__bss_end__+0xf5374>
     148:	0000000f 	andeq	r0, r0, pc
     14c:	750e1003 	strvc	r1, [lr, #-3]
     150:	08000000 	stmdaeq	r0, {}	; <UNPREDICTABLE>
     154:	0000060b 	andeq	r0, r0, fp, lsl #12
     158:	0e140300 	cdpeq	3, 1, cr0, cr4, cr0, {0}
     15c:	00000075 	andeq	r0, r0, r5, ror r0
     160:	009d0b0c 	addseq	r0, sp, ip, lsl #22
     164:	16030000 	strne	r0, [r3], -r0
     168:	0001140f 	andeq	r1, r1, pc, lsl #8
     16c:	830b1000 	movwhi	r1, #45056	; 0xb000
     170:	03000001 	movweq	r0, #1
     174:	00750e19 	rsbseq	r0, r5, r9, lsl lr
     178:	0b1c0000 	bleq	700180 <__bss_end__+0x6f53a8>
     17c:	00000015 	andeq	r0, r0, r5, lsl r0
     180:	750e1a03 	strvc	r1, [lr, #-2563]	; 0xfffff5fd
     184:	20000000 	andcs	r0, r0, r0
     188:	0003b30b 	andeq	fp, r3, fp, lsl #6
     18c:	0e1c0300 	cdpeq	3, 1, cr0, cr12, cr0, {0}
     190:	00000062 	andeq	r0, r0, r2, rrx
     194:	7a720d24 	bvc	1c8362c <__bss_end__+0x1c78854>
     198:	1e030031 	mcrne	0, 0, r0, cr3, cr1, {1}
     19c:	0001a90d 	andeq	sl, r1, sp, lsl #18
     1a0:	08002600 	stmdaeq	r0, {r9, sl, sp}
     1a4:	00012004 	andeq	r2, r1, r4
     1a8:	004f0e00 	subeq	r0, pc, r0, lsl #28
     1ac:	01b90000 			; <UNDEFINED> instruction: 0x01b90000
     1b0:	2c0f0000 	stccs	0, cr0, [pc], {-0}
     1b4:	7f000000 	svcvc	0x00000000
     1b8:	00000400 	andeq	r0, r0, r0, lsl #8
     1bc:	1f030000 	svcne	0x00030000
     1c0:	00012003 	andeq	r2, r1, r3
     1c4:	07041000 	streq	r1, [r4, -r0]
     1c8:	00000168 	andeq	r0, r0, r8, ror #2
     1cc:	2c11a503 	cfldr32cs	mvfx10, [r1], {3}
     1d0:	11000000 	mrsne	r0, (UNDEF: 0)
     1d4:	000001fe 	strdeq	r0, [r0], -lr
     1d8:	34062401 	strcc	r2, [r6], #-1025	; 0xfffffbff
     1dc:	2c000081 	stccs	0, cr0, [r0], {129}	; 0x81
     1e0:	01000000 	mrseq	r0, (UNDEF: 0)
     1e4:	0002639c 	muleq	r2, ip, r3
     1e8:	00701200 	rsbseq	r1, r0, r0, lsl #4
     1ec:	c50b2801 	strgt	r2, [fp, #-2049]	; 0xfffff7ff
     1f0:	04000001 	streq	r0, [r0], #-1
     1f4:	00000000 	andeq	r0, r0, r0
     1f8:	13000000 	movwne	r0, #0
     1fc:	00000404 	andeq	r0, r0, r4, lsl #8
     200:	00008148 	andeq	r8, r0, r8, asr #2
     204:	00814802 	addeq	r4, r1, r2, lsl #16
     208:	00000000 	andeq	r0, r0, r0
     20c:	05290100 	streq	r0, [r9, #-256]!	; 0xffffff00
     210:	0000022f 	andeq	r0, r0, pc, lsr #4
     214:	00041514 	andeq	r1, r4, r4, lsl r5
     218:	00002400 	andeq	r2, r0, r0, lsl #8
     21c:	00002200 	andeq	r2, r0, r0, lsl #4
     220:	041f1500 	ldreq	r1, [pc], #-1280	; 228 <__code_start__-0x7dd8>
     224:	003b0000 	eorseq	r0, fp, r0
     228:	00370000 	eorseq	r0, r7, r0
     22c:	16000000 	strne	r0, [r0], -r0
     230:	00008140 	andeq	r8, r0, r0, asr #2
     234:	00000466 	andeq	r0, r0, r6, ror #8
     238:	00000246 	andeq	r0, r0, r6, asr #4
     23c:	05500117 	ldrbeq	r0, [r0, #-279]	; 0xfffffee9
     240:	00a14803 	adceq	r4, r1, r3, lsl #16
     244:	44180000 	ldrmi	r0, [r8], #-0
     248:	63000081 	movwvs	r0, #129	; 0x81
     24c:	19000002 	stmdbne	r0, {r1}
     250:	00008154 	andeq	r8, r0, r4, asr r1
     254:	00000466 	andeq	r0, r0, r6, ror #8
     258:	05500117 	ldrbeq	r0, [r0, #-279]	; 0xfffffee9
     25c:	00a18403 	adceq	r8, r1, r3, lsl #8
     260:	1a000000 	bne	268 <__code_start__-0x7d98>
     264:	00000219 	andeq	r0, r0, r9, lsl r2
     268:	c5070801 	strgt	r0, [r7, #-2049]	; 0xfffff7ff
     26c:	38000001 	stmdacc	r0, {r0}
     270:	fc000080 	stc2	0, cr0, [r0], {128}	; 0x80
     274:	01000000 	mrseq	r0, (UNDEF: 0)
     278:	0003e99c 	muleq	r3, ip, r9
     27c:	05c40c00 	strbeq	r0, [r4, #3072]	; 0xc00
     280:	010c0000 	mrseq	r0, (UNDEF: 12)
     284:	02b00c09 	adcseq	r0, r0, #2304	; 0x900
     288:	780d0000 	stmdavc	sp, {}	; <UNPREDICTABLE>
     28c:	0d0a0100 	stfeqs	f0, [sl, #-0]
     290:	00000025 	andeq	r0, r0, r5, lsr #32
     294:	02420b00 	subeq	r0, r2, #0, 22
     298:	0b010000 	bleq	402a0 <__bss_end__+0x354c8>
     29c:	0003e916 	andeq	lr, r3, r6, lsl r9
     2a0:	320b0400 	andcc	r0, fp, #0, 8
     2a4:	01000002 	tsteq	r0, r2
     2a8:	03e9160c 	mvneq	r1, #12, 12	; 0xc00000
     2ac:	00080000 	andeq	r0, r8, r0
     2b0:	01006812 	tsteq	r0, r2, lsl r8
     2b4:	03e9080d 	mvneq	r0, #851968	; 0xd0000
     2b8:	00610000 	rsbeq	r0, r1, r0
     2bc:	00590000 	subseq	r0, r9, r0
     2c0:	901b0000 	andsls	r0, fp, r0
     2c4:	ff000000 			; <UNDEFINED> instruction: 0xff000000
     2c8:	05000003 	streq	r0, [r0, #-3]
     2cc:	00a1b003 	adceq	fp, r1, r3
     2d0:	80401c00 	subhi	r1, r0, r0, lsl #24
     2d4:	00d40000 	sbcseq	r0, r4, r0
     2d8:	03df0000 	bicseq	r0, pc, #0, 0
     2dc:	69120000 	ldmdbvs	r2, {}	; <UNPREDICTABLE>
     2e0:	0d0f0100 	stfeqs	f0, [pc, #-0]	; 2e8 <__code_start__-0x7d18>
     2e4:	00000025 	andeq	r0, r0, r5, lsr #32
     2e8:	000000a2 	andeq	r0, r0, r2, lsr #1
     2ec:	00000096 	muleq	r0, r6, r0
     2f0:	0000001d 	andeq	r0, r0, sp, lsl r0
     2f4:	00651200 	rsbeq	r1, r5, r0, lsl #4
     2f8:	e9161001 	ldmdb	r6, {r0, ip}
     2fc:	16000003 	strne	r0, [r0], -r3
     300:	06000001 	streq	r0, [r0], -r1
     304:	1e000001 	cdpne	0, 0, cr0, cr0, cr1, {0}
     308:	00000430 	andeq	r0, r0, r0, lsr r4
     30c:	00008040 	andeq	r8, r0, r0, asr #32
     310:	00001805 	andeq	r1, r0, r5, lsl #16
     314:	1a100100 	bne	40071c <__bss_end__+0x3f5944>
     318:	00000344 	andeq	r0, r0, r4, asr #6
     31c:	00045914 	andeq	r5, r4, r4, lsl r9
     320:	00017a00 	andeq	r7, r1, r0, lsl #20
     324:	00017600 	andeq	r7, r1, r0, lsl #12
     328:	044d1400 	strbeq	r1, [sp], #-1024	; 0xfffffc00
     32c:	019e0000 	orrseq	r0, lr, r0
     330:	019a0000 	orrseq	r0, sl, r0
     334:	41140000 	tstmi	r4, r0
     338:	ca000004 	bgt	350 <__code_start__-0x7cb0>
     33c:	c6000001 	strgt	r0, [r0], -r1
     340:	00000001 	andeq	r0, r0, r1
     344:	00806816 	addeq	r6, r0, r6, lsl r8
     348:	00047b00 	andeq	r7, r4, r0, lsl #22
     34c:	00035700 	andeq	r5, r3, r0, lsl #14
     350:	50011700 	andpl	r1, r1, r0, lsl #14
     354:	16003c01 	strne	r3, [r0], -r1, lsl #24
     358:	00008078 	andeq	r8, r0, r8, ror r0
     35c:	00000487 	andeq	r0, r0, r7, lsl #9
     360:	00000375 	andeq	r0, r0, r5, ror r3
     364:	02500117 	subseq	r0, r0, #-1073741819	; 0xc0000005
     368:	01170075 	tsteq	r7, r5, ror r0
     36c:	17300151 			; <UNDEFINED> instruction: 0x17300151
     370:	3c015201 	sfmcc	f5, 4, [r1], {1}
     374:	80b01600 	adcshi	r1, r0, r0, lsl #12
     378:	04660000 	strbteq	r0, [r6], #-0
     37c:	03a70000 			; <UNDEFINED> instruction: 0x03a70000
     380:	01170000 	tsteq	r7, r0
     384:	28030550 	stmdacs	r3, {r4, r6, r8, sl}
     388:	170000a1 	strne	r0, [r0, -r1, lsr #1]
     38c:	79025101 	stmdbvc	r2, {r0, r8, ip, lr}
     390:	52011700 	andpl	r1, r1, #0, 14
     394:	17007802 	strne	r7, [r0, -r2, lsl #16]
     398:	44015301 	strmi	r5, [r1], #-769	; 0xfffffcff
     39c:	007d0217 	rsbseq	r0, sp, r7, lsl r2
     3a0:	a13c0305 	teqge	ip, r5, lsl #6
     3a4:	18000000 	stmdane	r0, {}	; <UNPREDICTABLE>
     3a8:	000080b4 	strheq	r8, [r0], -r4
     3ac:	00000493 	muleq	r0, r3, r4
     3b0:	0080dc16 	addeq	sp, r0, r6, lsl ip
     3b4:	00047b00 	andeq	r7, r4, r0, lsl #22
     3b8:	0003c300 	andeq	ip, r3, r0, lsl #6
     3bc:	50011700 	andpl	r1, r1, r0, lsl #14
     3c0:	19003c01 	stmdbne	r0, {r0, sl, fp, ip, sp}
     3c4:	000080ec 	andeq	r8, r0, ip, ror #1
     3c8:	00000487 	andeq	r0, r0, r7, lsl #9
     3cc:	02500117 	subseq	r0, r0, #-1073741819	; 0xc0000005
     3d0:	01170074 	tsteq	r7, r4, ror r0
     3d4:	17300151 			; <UNDEFINED> instruction: 0x17300151
     3d8:	3c015201 	sfmcc	f5, 4, [r1], {1}
     3dc:	18000000 	stmdane	r0, {}	; <UNPREDICTABLE>
     3e0:	00008118 	andeq	r8, r0, r8, lsl r1
     3e4:	0000049f 	muleq	r0, pc, r4	; <UNPREDICTABLE>
     3e8:	7d040800 	stcvc	8, cr0, [r4, #-0]
     3ec:	0e000002 	cdpeq	0, 0, cr0, cr0, cr2, {0}
     3f0:	000000cc 	andeq	r0, r0, ip, asr #1
     3f4:	000003ff 	strdeq	r0, [r0], -pc	; <UNPREDICTABLE>
     3f8:	00002c0f 	andeq	r2, r0, pc, lsl #24
     3fc:	09000400 	stmdbeq	r0, {sl}
     400:	000003ef 	andeq	r0, r0, pc, ror #7
     404:	00005f1f 	andeq	r5, r0, pc, lsl pc
     408:	11220300 			; <UNDEFINED> instruction: 0x11220300
     40c:	0000002c 	andeq	r0, r0, ip, lsr #32
     410:	00042a01 	andeq	r2, r4, r1, lsl #20
     414:	00702000 	rsbseq	r2, r0, r0
     418:	c5212203 	strgt	r2, [r1, #-515]!	; 0xfffffdfd
     41c:	21000001 	tstcs	r0, r1
     420:	23030068 	movwcs	r0, #12392	; 0x3068
     424:	00042a0c 	andeq	r2, r4, ip, lsl #20
     428:	04080000 	streq	r0, [r8], #-0
     42c:	000001b9 			; <UNDEFINED> instruction: 0x000001b9
     430:	0002371f 	andeq	r3, r2, pc, lsl r7
     434:	0b0c0200 	bleq	300c3c <__bss_end__+0x2f5e64>
     438:	00000114 	andeq	r0, r0, r4, lsl r1
     43c:	00046603 	andeq	r6, r4, r3, lsl #12
     440:	003f2200 	eorseq	r2, pc, r0, lsl #4
     444:	0c020000 	stceq	0, cr0, [r2], {-0}
     448:	0000bf22 	andeq	fp, r0, r2, lsr #30
     44c:	004c2200 	subeq	r2, ip, r0, lsl #4
     450:	0c020000 	stceq	0, cr0, [r2], {-0}
     454:	0000bf34 	andeq	fp, r0, r4, lsr pc
     458:	01ce2200 	biceq	r2, lr, r0, lsl #4
     45c:	0c020000 	stceq	0, cr0, [r2], {-0}
     460:	00002c43 	andeq	r2, r0, r3, asr #24
     464:	94230000 	strtls	r0, [r3], #-0
     468:	94000005 	strls	r0, [r0], #-5
     46c:	05000005 	streq	r0, [r0, #-5]
     470:	07240628 	streq	r0, [r4, -r8, lsr #12]!
     474:	6574059e 	ldrbvs	r0, [r4, #-1438]!	; 0xfffffa62
     478:	23007473 	movwcs	r7, #1139	; 0x473
     47c:	00000037 	andeq	r0, r0, r7, lsr r0
     480:	00000037 	andeq	r0, r0, r7, lsr r0
     484:	23084903 	movwcs	r4, #35075	; 0x8903
     488:	0000022b 	andeq	r0, r0, fp, lsr #4
     48c:	0000022b 	andeq	r0, r0, fp, lsr #4
     490:	2307f205 	movwcs	pc, #29189	; 0x7205	; <UNPREDICTABLE>
     494:	000000a7 	andeq	r0, r0, r7, lsr #1
     498:	000000a7 	andeq	r0, r0, r7, lsr #1
     49c:	23066e05 	movwcs	r6, #28165	; 0x6e05
     4a0:	000001c0 	andeq	r0, r0, r0, asr #3
     4a4:	000001c0 	andeq	r0, r0, r0, asr #3
     4a8:	00066c03 	andeq	r6, r6, r3, lsl #24
     4ac:	0000083d 	andeq	r0, r0, sp, lsr r8
     4b0:	02070004 	andeq	r0, r7, #4, 0
     4b4:	01040000 	mrseq	r0, (UNDEF: 4)
     4b8:	000000b4 	strheq	r0, [r0], -r4
     4bc:	0002d30c 	andeq	sp, r2, ip, lsl #6
     4c0:	00018e00 	andeq	r8, r1, r0, lsl #28
     4c4:	00816000 	addeq	r6, r1, r0
     4c8:	00029400 	andeq	r9, r2, r0, lsl #8
     4cc:	00021800 	andeq	r1, r2, r0, lsl #16
     4d0:	05040200 	streq	r0, [r4, #-512]	; 0xfffffe00
     4d4:	00746e69 	rsbseq	r6, r4, r9, ror #28
     4d8:	df070403 	svcle	0x00070403
     4dc:	03000001 	movweq	r0, #1
     4e0:	01770601 	cmneq	r7, r1, lsl #12
     4e4:	02030000 	andeq	r0, r3, #0, 0
     4e8:	00002105 	andeq	r2, r0, r5, lsl #2
     4ec:	05040300 	streq	r0, [r4, #-768]	; 0xfffffd00
     4f0:	00000056 	andeq	r0, r0, r6, asr r0
     4f4:	51050803 	tstpl	r5, r3, lsl #16
     4f8:	04000000 	streq	r0, [r0], #-0
     4fc:	00000044 	andeq	r0, r0, r4, asr #32
     500:	5b182e03 	blpl	60bd14 <__bss_end__+0x600f3c>
     504:	03000000 	movweq	r0, #0
     508:	01750801 	cmneq	r5, r1, lsl #16
     50c:	f5040000 			; <UNDEFINED> instruction: 0xf5040000
     510:	03000001 	movweq	r0, #1
     514:	006e1931 	rsbeq	r1, lr, r1, lsr r9
     518:	02030000 	andeq	r0, r3, #0, 0
     51c:	00020607 	andeq	r0, r2, r7, lsl #12
     520:	01ec0400 	mvneq	r0, r0, lsl #8
     524:	34030000 	strcc	r0, [r3], #-0
     528:	00008119 	andeq	r8, r0, r9, lsl r1
     52c:	07040300 	streq	r0, [r4, -r0, lsl #6]
     530:	000001da 	ldrdeq	r0, [r0], -sl
     534:	d5070803 	strle	r0, [r7, #-2051]	; 0xfffff7fd
     538:	05000001 	streq	r0, [r0, #-1]
     53c:	00000025 	andeq	r0, r0, r5, lsr #32
     540:	0000009e 	muleq	r0, lr, r0
     544:	00002506 	andeq	r2, r0, r6, lsl #10
     548:	2b070000 	blcs	1c0550 <__bss_end__+0x1b5778>
     54c:	04000000 	streq	r0, [r0], #-0
     550:	00aa0e1c 	adceq	r0, sl, ip, lsl lr
     554:	04080000 	streq	r0, [r8], #-0
     558:	0000008f 	andeq	r0, r0, pc, lsl #1
     55c:	00002505 	andeq	r2, r0, r5, lsl #10
     560:	0000bf00 	andeq	fp, r0, r0, lsl #30
     564:	00bf0600 	adcseq	r0, pc, r0, lsl #12
     568:	08000000 	stmdaeq	r0, {}	; <UNPREDICTABLE>
     56c:	0000cc04 	andeq	ip, r0, r4, lsl #24
     570:	08010300 	stmdaeq	r1, {r8, r9}
     574:	0000017e 	andeq	r0, r0, lr, ror r1
     578:	0000c509 	andeq	ip, r0, r9, lsl #10
     57c:	05d20700 	ldrbeq	r0, [r2, #1792]	; 0x700
     580:	21040000 	mrscs	r0, (UNDEF: 4)
     584:	0000dd0e 	andeq	sp, r0, lr, lsl #26
     588:	b0040800 	andlt	r0, r4, r0, lsl #16
     58c:	0a000000 	beq	594 <__code_start__-0x7a6c>
     590:	0904050c 	stmdbeq	r4, {r2, r3, r8, sl}
     594:	00000114 	andeq	r0, r0, r4, lsl r1
     598:	00003f0b 	andeq	r3, r0, fp, lsl #30
     59c:	11060500 	tstne	r6, r0, lsl #10
     5a0:	000000bf 	strheq	r0, [r0], -pc	; <UNPREDICTABLE>
     5a4:	004c0b00 	subeq	r0, ip, r0, lsl #22
     5a8:	07050000 	streq	r0, [r5, -r0]
     5ac:	0000bf11 	andeq	fp, r0, r1, lsl pc
     5b0:	ce0b0400 	cfcpysgt	mvf0, mvf11
     5b4:	05000001 	streq	r0, [r0, #-1]
     5b8:	002c0e08 	eoreq	r0, ip, r8, lsl #28
     5bc:	00080000 	andeq	r0, r8, r0
     5c0:	00024704 	andeq	r4, r2, r4, lsl #14
     5c4:	03090500 	movweq	r0, #38144	; 0x9500
     5c8:	000000e3 	andeq	r0, r0, r3, ror #1
     5cc:	5b01070c 	blpl	42204 <__bss_end__+0x3742c>
     5d0:	02000000 	andeq	r0, r0, #0, 0
     5d4:	013b0e09 	teqeq	fp, r9, lsl #28
     5d8:	dd0d0000 	stcle	0, cr0, [sp, #-0]
     5dc:	0b000002 	bleq	5ec <__code_start__-0x7a14>
     5e0:	0002610d 	andeq	r6, r2, sp, lsl #2
     5e4:	0c000c00 	stceq	12, cr0, [r0], {-0}
     5e8:	005b0107 	subseq	r0, fp, r7, lsl #2
     5ec:	0a020000 	beq	805f4 <__bss_end__+0x7581c>
     5f0:	00015606 	andeq	r5, r1, r6, lsl #12
     5f4:	027b0d00 	rsbseq	r0, fp, #0, 26
     5f8:	0d800000 	stceq	0, cr0, [r0]
     5fc:	00000267 	andeq	r0, r0, r7, ror #4
     600:	890e00fe 	stmdbhi	lr, {r1, r2, r3, r4, r5, r6, r7}
     604:	a8000000 	stmdage	r0, {}	; <UNPREDICTABLE>
     608:	d9100d02 	ldmdble	r0, {r1, r8, sl, fp}
     60c:	0b000001 	bleq	618 <__code_start__-0x79e8>
     610:	00000242 	andeq	r0, r0, r2, asr #4
     614:	d9140e02 	ldmdble	r4, {r1, r9, sl, fp}
     618:	00000001 	andeq	r0, r0, r1
     61c:	00021e0b 	andeq	r1, r2, fp, lsl #28
     620:	0e0f0200 	cdpeq	2, 0, cr0, cr15, cr0, {0}
     624:	00000075 	andeq	r0, r0, r5, ror r0
     628:	000f0b04 	andeq	r0, pc, r4, lsl #22
     62c:	10020000 	andne	r0, r2, r0
     630:	0000750e 	andeq	r7, r0, lr, lsl #10
     634:	060b0800 	streq	r0, [fp], -r0, lsl #16
     638:	02000000 	andeq	r0, r0, #0, 0
     63c:	00750e14 	rsbseq	r0, r5, r4, lsl lr
     640:	0b0c0000 	bleq	300648 <__bss_end__+0x2f5870>
     644:	0000009d 	muleq	r0, sp, r0
     648:	140f1602 	strne	r1, [pc], #-1538	; 650 <__code_start__-0x79b0>
     64c:	10000001 	andne	r0, r0, r1
     650:	0001830b 	andeq	r8, r1, fp, lsl #6
     654:	0e190200 	cdpeq	2, 1, cr0, cr9, cr0, {0}
     658:	00000075 	andeq	r0, r0, r5, ror r0
     65c:	00150b1c 	andseq	r0, r5, ip, lsl fp
     660:	1a020000 	bne	80668 <__bss_end__+0x75890>
     664:	0000750e 	andeq	r7, r0, lr, lsl #10
     668:	b30b2000 	movwlt	r2, #45056	; 0xb000
     66c:	02000003 	andeq	r0, r0, #3, 0
     670:	00620e1c 	rsbeq	r0, r2, ip, lsl lr
     674:	0f240000 	svceq	0x00240000
     678:	00317a72 	eorseq	r7, r1, r2, ror sl
     67c:	df0d1e02 	svcle	0x000d1e02
     680:	26000001 	strcs	r0, [r0], -r1
     684:	56040800 	strpl	r0, [r4], -r0, lsl #16
     688:	10000001 	andne	r0, r0, r1
     68c:	0000004f 	andeq	r0, r0, pc, asr #32
     690:	000001ef 	andeq	r0, r0, pc, ror #3
     694:	00002c11 	andeq	r2, r0, r1, lsl ip
     698:	04007f00 	streq	r7, [r0], #-3840	; 0xfffff100
     69c:	00000000 	andeq	r0, r0, r0
     6a0:	56031f02 	strpl	r1, [r3], -r2, lsl #30
     6a4:	12000001 	andne	r0, r0, #1, 0
     6a8:	01680704 	cmneq	r8, r4, lsl #14
     6ac:	a5020000 	strge	r0, [r2, #-0]
     6b0:	00002c11 	andeq	r2, r0, r1, lsl ip
     6b4:	029e1300 	addseq	r1, lr, #0, 6
     6b8:	08010000 	stmdaeq	r1, {}	; <UNPREDICTABLE>
     6bc:	00021b0f 	andeq	r1, r2, pc, lsl #22
     6c0:	b0030500 	andlt	r0, r3, r0, lsl #10
     6c4:	080000a9 	stmdaeq	r0, {r0, r3, r5, r7}
     6c8:	0001ef04 	andeq	lr, r1, r4, lsl #30
     6cc:	00371400 	eorseq	r1, r7, r0, lsl #8
     6d0:	66010000 	strvs	r0, [r1], -r0
     6d4:	0001fb08 	andeq	pc, r1, r8, lsl #22
     6d8:	00836000 	addeq	r6, r3, r0
     6dc:	00009400 	andeq	r9, r0, r0, lsl #8
     6e0:	ee9c0100 	fmle	f0, f4, f0
     6e4:	15000002 	strne	r0, [r0, #-2]
     6e8:	00000300 	andeq	r0, r0, r0, lsl #6
     6ec:	751a6601 	ldrvc	r6, [sl, #-1537]	; 0xfffff9ff
     6f0:	f8000000 			; <UNDEFINED> instruction: 0xf8000000
     6f4:	f2000001 	vhadd.s8	d0, d0, d1
     6f8:	16000001 	strne	r0, [r0], -r1
     6fc:	6601006c 	strvs	r0, [r1], -ip, rrx
     700:	0001142c 	andeq	r1, r1, ip, lsr #8
     704:	64910200 	ldrvs	r0, [r1], #512	; 0x200
     708:	01006817 	tsteq	r0, r7, lsl r8
     70c:	021b0c68 	andseq	r0, fp, #104, 24	; 0x6800
     710:	022a0000 	eoreq	r0, sl, #0, 0
     714:	02240000 	eoreq	r0, r4, #0, 0
     718:	7c180000 	ldcvc	0, cr0, [r8], {-0}
     71c:	04000083 	streq	r0, [r0], #-131	; 0xffffff7d
     720:	83000008 	movwhi	r0, #8
     724:	19000002 	stmdbne	r0, {r1}
     728:	76035001 	strvc	r5, [r3], -r1
     72c:	180001a8 	stmdane	r0, {r3, r5, r7, r8}
     730:	0000838c 	andeq	r8, r0, ip, lsl #7
     734:	00000810 	andeq	r0, r0, r0, lsl r8
     738:	000002a2 	andeq	r0, r0, r2, lsr #5
     73c:	02500119 	subseq	r0, r0, #1073741830	; 0x40000006
     740:	01190074 	tsteq	r9, r4, ror r0
     744:	19300151 	ldmdbne	r0!, {r0, r4, r6, r8}
     748:	08025201 	stmdaeq	r2, {r0, r9, ip, lr}
     74c:	b81800a8 	ldmdalt	r8, {r3, r5, r7}
     750:	1c000083 	stcne	0, cr0, [r0], {131}	; 0x83
     754:	ce000008 	cdpgt	0, 0, cr0, cr0, cr8, {0}
     758:	19000002 	stmdbne	r0, {r1}
     75c:	03055001 	movweq	r5, #20481	; 0x5001
     760:	0000a1c8 	andeq	sl, r0, r8, asr #3
     764:	03510119 	cmpeq	r1, #1073741830	; 0x40000006
     768:	19060075 	stmdbne	r6, {r0, r2, r4, r5, r6}
     76c:	91035201 	tstls	r3, r1, lsl #4
     770:	01190660 	tsteq	r9, r0, ror #12
     774:	64910353 	ldrvs	r0, [r1], #851	; 0x353
     778:	cc1a0006 	ldcgt	0, cr0, [sl], {6}
     77c:	1c000083 	stcne	0, cr0, [r0], {131}	; 0x83
     780:	19000008 	stmdbne	r0, {r3}
     784:	03055001 	movweq	r5, #20481	; 0x5001
     788:	0000a274 	andeq	sl, r0, r4, ror r2
     78c:	02510119 	subseq	r0, r1, #1073741830	; 0x40000006
     790:	01190075 	tsteq	r9, r5, ror r0
     794:	00760252 	rsbseq	r0, r6, r2, asr r2
     798:	971b0000 	ldrls	r0, [fp, -r0]
     79c:	01000002 	tsteq	r0, r2
     7a0:	82140653 	andshi	r0, r4, #87031808	; 0x5300000
     7a4:	014c0000 	mrseq	r0, (UNDEF: 76)
     7a8:	9c010000 	stcls	0, cr0, [r1], {-0}
     7ac:	000004f3 	strdeq	r0, [r0], -r3
     7b0:	000a5115 	andeq	r5, sl, r5, lsl r1
     7b4:	14530100 	ldrbne	r0, [r3], #-256	; 0xffffff00
     7b8:	000001fb 	strdeq	r0, [r0], -fp
     7bc:	0000025b 	andeq	r0, r0, fp, asr r2
     7c0:	00000257 	andeq	r0, r0, r7, asr r2
     7c4:	01006c1c 	tsteq	r0, ip, lsl ip
     7c8:	01142453 	tsteq	r4, r3, asr r4
     7cc:	02810000 	addeq	r0, r1, #0, 0
     7d0:	02790000 	rsbseq	r0, r9, #0, 0
     7d4:	68170000 	ldmdavs	r7, {}	; <UNPREDICTABLE>
     7d8:	0c550100 	ldfeqe	f0, [r5], {-0}
     7dc:	0000021b 	andeq	r0, r0, fp, lsl r2
     7e0:	000002da 	ldrdeq	r0, [r0], -sl
     7e4:	000002d0 	ldrdeq	r0, [r0], -r0	; <UNPREDICTABLE>
     7e8:	0000901d 	andeq	r9, r0, sp, lsl r0
     7ec:	00050300 	andeq	r0, r5, r0, lsl #6
     7f0:	90030500 	andls	r0, r3, r0, lsl #10
     7f4:	1e0000a2 	cdpne	0, 0, cr0, cr0, cr2, {5}
     7f8:	00000508 	andeq	r0, r0, r8, lsl #10
     7fc:	0000827c 	andeq	r8, r0, ip, ror r2
     800:	00007003 	andeq	r7, r0, r3
     804:	055f0100 	ldrbeq	r0, [pc, #-256]	; 70c <__code_start__-0x78f4>
     808:	000003fd 	strdeq	r0, [r0], -sp
     80c:	00051f1f 	andeq	r1, r5, pc, lsl pc
     810:	00032500 	andeq	r2, r3, r0, lsl #10
     814:	00031f00 	andeq	r1, r3, r0, lsl #30
     818:	05151f00 	ldreq	r1, [r5, #-3840]	; 0xfffff100
     81c:	03540000 	cmpeq	r4, #0, 0
     820:	034e0000 	movteq	r0, #57344	; 0xe000
     824:	70200000 	eorvc	r0, r0, r0
     828:	21000000 	mrscs	r0, (UNDEF: 0)
     82c:	00000538 	andeq	r0, r0, r8, lsr r5
     830:	00000394 	muleq	r0, r4, r3
     834:	0000038c 	andeq	r0, r0, ip, lsl #7
     838:	00054421 	andeq	r4, r5, r1, lsr #8
     83c:	0003d200 	andeq	sp, r3, r0, lsl #4
     840:	0003cc00 	andeq	ip, r3, r0, lsl #24
     844:	072a1e00 	streq	r1, [sl, -r0, lsl #28]!
     848:	83100000 	tsthi	r0, #0, 0
     84c:	90020000 	andls	r0, r2, r0
     850:	01000000 	mrseq	r0, (UNDEF: 0)
     854:	03bc1146 			; <UNDEFINED> instruction: 0x03bc1146
     858:	3b1f0000 	blcc	7c0860 <__bss_end__+0x7b5a88>
     85c:	00000007 	andeq	r0, r0, r7
     860:	fc000004 	stc2	0, cr0, [r0], {4}
     864:	00000003 	andeq	r0, r0, r3
     868:	00833018 	addeq	r3, r3, r8, lsl r0
     86c:	00081c00 	andeq	r1, r8, r0, lsl #24
     870:	0003f200 	andeq	pc, r3, r0, lsl #4
     874:	50011900 	andpl	r1, r1, r0, lsl #18
     878:	a2480305 	subge	r0, r8, #335544320	; 0x14000000
     87c:	01190000 	tsteq	r9, r0
     880:	24030551 	strcs	r0, [r3], #-1361	; 0xfffffaaf
     884:	190000a2 	stmdbne	r0, {r1, r5, r7}
     888:	03055201 	movweq	r5, #20993	; 0x5201
     88c:	0000a298 	muleq	r0, r8, r2
     890:	02530119 	subseq	r0, r3, #1073741830	; 0x40000006
     894:	02194f08 	andseq	r4, r9, #8, 30
     898:	7802007d 	stmdavc	r2, {r0, r2, r3, r4, r5, r6}
     89c:	34220000 	strtcc	r0, [r2], #-0
     8a0:	28000083 	stmdacs	r0, {r0, r1, r7}
     8a4:	00000008 	andeq	r0, r0, r8
     8a8:	82481800 	subhi	r1, r8, #0, 16
     8ac:	081c0000 	ldmdaeq	ip, {}	; <UNPREDICTABLE>
     8b0:	04260000 	strteq	r0, [r6], #-0
     8b4:	01190000 	tsteq	r9, r0
     8b8:	c8030550 	stmdagt	r3, {r4, r6, r8, sl}
     8bc:	190000a1 	stmdbne	r0, {r0, r5, r7}
     8c0:	75025101 	strvc	r5, [r2, #-257]	; 0xfffffeff
     8c4:	52011900 	andpl	r1, r1, #0, 18
     8c8:	19007602 	stmdbne	r0, {r1, r9, sl, ip, sp, lr}
     8cc:	77025301 	strvc	r5, [r2, -r1, lsl #6]
     8d0:	54180000 	ldrpl	r0, [r8], #-0
     8d4:	1c000082 	stcne	0, cr0, [r0], {130}	; 0x82
     8d8:	43000008 	movwmi	r0, #8
     8dc:	19000004 	stmdbne	r0, {r2}
     8e0:	03055001 	movweq	r5, #20481	; 0x5001
     8e4:	0000a1d4 	ldrdeq	sl, [r0], -r4
     8e8:	02510119 	subseq	r0, r1, #1073741830	; 0x40000006
     8ec:	18000074 	stmdane	r0, {r2, r4, r5, r6}
     8f0:	00008274 	andeq	r8, r0, r4, ror r2
     8f4:	0000056a 	andeq	r0, r0, sl, ror #10
     8f8:	00000457 	andeq	r0, r0, r7, asr r4
     8fc:	02500119 	subseq	r0, r0, #1073741830	; 0x40000006
     900:	18000074 	stmdane	r0, {r2, r4, r5, r6}
     904:	000082b0 			; <UNDEFINED> instruction: 0x000082b0
     908:	0000081c 	andeq	r0, r0, ip, lsl r8
     90c:	00000480 	andeq	r0, r0, r0, lsl #9
     910:	05500119 	ldrbeq	r0, [r0, #-281]	; 0xfffffee7
     914:	00a1e403 	adceq	lr, r1, r3, lsl #8
     918:	51011900 	tstpl	r1, r0, lsl #18
     91c:	19007502 	stmdbne	r0, {r1, r8, sl, ip, sp, lr}
     920:	76025201 	strvc	r5, [r2], -r1, lsl #4
     924:	53011900 	movwpl	r1, #6400	; 0x1900
     928:	00007702 	andeq	r7, r0, r2, lsl #14
     92c:	0082bc18 	addeq	fp, r2, r8, lsl ip
     930:	00081c00 	andeq	r1, r8, r0, lsl #24
     934:	00049700 	andeq	r9, r4, r0, lsl #14
     938:	50011900 	andpl	r1, r1, r0, lsl #18
     93c:	a1fc0305 	mvnsge	r0, r5, lsl #6
     940:	22000000 	andcs	r0, r0, #0, 0
     944:	000082c0 	andeq	r8, r0, r0, asr #5
     948:	00000828 	andeq	r0, r0, r8, lsr #16
     94c:	0082dc18 	addeq	sp, r2, r8, lsl ip
     950:	00081c00 	andeq	r1, r8, r0, lsl #24
     954:	0004d900 	andeq	sp, r4, r0, lsl #18
     958:	50011900 	andpl	r1, r1, r0, lsl #18
     95c:	a1280305 			; <UNDEFINED> instruction: 0xa1280305
     960:	01190000 	tsteq	r9, r0
     964:	24030551 	strcs	r0, [r3], #-1361	; 0xfffffaaf
     968:	190000a2 	stmdbne	r0, {r1, r5, r7}
     96c:	03055201 	movweq	r5, #20993	; 0x5201
     970:	0000a290 	muleq	r0, r0, r2
     974:	02530119 	subseq	r0, r3, #1073741830	; 0x40000006
     978:	02195d08 	andseq	r5, r9, #8, 26	; 0x200
     97c:	0305007d 	movweq	r0, #20605	; 0x507d
     980:	0000a230 	andeq	sl, r0, r0, lsr r2
     984:	82e02200 	rschi	r2, r0, #0, 4
     988:	08280000 	stmdaeq	r8!, {}	; <UNPREDICTABLE>
     98c:	f01a0000 			; <UNDEFINED> instruction: 0xf01a0000
     990:	34000082 	strcc	r0, [r0], #-130	; 0xffffff7e
     994:	19000008 	stmdbne	r0, {r3}
     998:	78025001 	stmdavc	r2, {r0, ip, lr}
     99c:	10000000 	andne	r0, r0, r0
     9a0:	000000cc 	andeq	r0, r0, ip, asr #1
     9a4:	00000503 	andeq	r0, r0, r3, lsl #10
     9a8:	00002c11 	andeq	r2, r0, r1, lsl ip
     9ac:	09000600 	stmdbeq	r0, {r9, sl}
     9b0:	000004f3 	strdeq	r0, [r0], -r3
     9b4:	0002a923 	andeq	sl, r2, r3, lsr #18
     9b8:	0d3a0100 	ldfeqs	f0, [sl, #-0]
     9bc:	00054f01 	andeq	r4, r5, r1, lsl #30
     9c0:	006c2400 	rsbeq	r2, ip, r0, lsl #8
     9c4:	4f213a01 	svcmi	0x00213a01
     9c8:	24000005 	strcs	r0, [r0], #-5
     9cc:	3a010068 	bcc	40b74 <__bss_end__+0x35d9c>
     9d0:	00021b2b 	andeq	r1, r2, fp, lsr #22
     9d4:	00901d00 	addseq	r1, r0, r0, lsl #26
     9d8:	05650000 	strbeq	r0, [r5, #-0]!
     9dc:	03050000 	movweq	r0, #20480	; 0x5000
     9e0:	0000a298 	muleq	r0, r8, r2
     9e4:	00023225 	andeq	r3, r2, r5, lsr #4
     9e8:	0c3d0100 	ldfeqs	f0, [sp], #-0
     9ec:	0000021b 	andeq	r0, r0, fp, lsl r2
     9f0:	01007026 	tsteq	r0, r6, lsr #32
     9f4:	021b0c45 	andseq	r0, fp, #17664	; 0x4500
     9f8:	08000000 	stmdaeq	r0, {}	; <UNPREDICTABLE>
     9fc:	00021b04 	andeq	r1, r2, r4, lsl #22
     a00:	00cc1000 	sbceq	r1, ip, r0
     a04:	05650000 	strbeq	r0, [r5, #-0]!
     a08:	2c110000 	ldccs	0, cr0, [r1], {-0}
     a0c:	0b000000 	bleq	a14 <__code_start__-0x75ec>
     a10:	05550900 	ldrbeq	r0, [r5, #-2304]	; 0xfffff700
     a14:	b5140000 	ldrlt	r0, [r4, #-0]
     a18:	01000002 	tsteq	r0, r2
     a1c:	021b082b 	andseq	r0, fp, #2818048	; 0x2b0000
     a20:	81b80000 			; <UNDEFINED> instruction: 0x81b80000
     a24:	005c0000 	subseq	r0, ip, r0
     a28:	9c010000 	stcls	0, cr0, [r1], {-0}
     a2c:	0000062a 	andeq	r0, r0, sl, lsr #12
     a30:	7274701c 	rsbsvc	r7, r4, #28, 0
     a34:	202b0100 	eorcs	r0, fp, r0, lsl #2
     a38:	000001fb 	strdeq	r0, [r0], -fp
     a3c:	00000422 	andeq	r0, r0, r2, lsr #8
     a40:	0000041e 	andeq	r0, r0, lr, lsl r4
     a44:	0081c027 	addeq	ip, r1, r7, lsr #32
     a48:	00004400 	andeq	r4, r0, r0, lsl #8
     a4c:	00681700 	rsbeq	r1, r8, r0, lsl #14
     a50:	1b112e01 	blne	44c25c <__bss_end__+0x441484>
     a54:	42000002 	andmi	r0, r0, #2, 0
     a58:	40000004 	andmi	r0, r0, r4
     a5c:	28000004 	stmdacs	r0, {r2}
     a60:	00000746 	andeq	r0, r0, r6, asr #14
     a64:	000081c0 	andeq	r8, r0, r0, asr #3
     a68:	0081c002 	addeq	ip, r1, r2
     a6c:	00000800 	andeq	r0, r0, r0, lsl #16
     a70:	152e0100 	strne	r0, [lr, #-256]!	; 0xffffff00
     a74:	00072a29 	andeq	r2, r7, r9, lsr #20
     a78:	0081e400 	addeq	lr, r1, r0, lsl #8
     a7c:	81e40100 	mvnhi	r0, r0, lsl #2
     a80:	00040000 	andeq	r0, r4, r0
     a84:	2e010000 	cdpcs	0, 0, cr0, cr1, cr0, {0}
     a88:	0005ef2c 	andeq	lr, r5, ip, lsr #30
     a8c:	073b1f00 	ldreq	r1, [fp, -r0, lsl #30]!
     a90:	04570000 	ldrbeq	r0, [r7], #-0
     a94:	04550000 	ldrbeq	r0, [r5], #-0
     a98:	18000000 	stmdane	r0, {}	; <UNPREDICTABLE>
     a9c:	000081dc 	ldrdeq	r8, [r0], -ip
     aa0:	0000062a 	andeq	r0, r0, sl, lsr #12
     aa4:	00000609 	andeq	r0, r0, r9, lsl #12
     aa8:	02500119 	subseq	r0, r0, #1073741830	; 0x40000006
     aac:	01190074 	tsteq	r9, r4, ror r0
     ab0:	00750251 	rsbseq	r0, r5, r1, asr r2
     ab4:	82041a00 	andhi	r1, r4, #0, 20
     ab8:	081c0000 	ldmdaeq	ip, {}	; <UNPREDICTABLE>
     abc:	01190000 	tsteq	r9, r0
     ac0:	b8030550 	stmdalt	r3, {r4, r6, r8, sl}
     ac4:	190000a1 	stmdbne	r0, {r0, r5, r7}
     ac8:	75025101 	strvc	r5, [r2, #-257]	; 0xfffffeff
     acc:	52011900 	andpl	r1, r1, #0, 18
     ad0:	00007402 	andeq	r7, r0, r2, lsl #8
     ad4:	51140000 	tstpl	r4, r0
     ad8:	01000002 	tsteq	r0, r2
     adc:	002c0a24 	eoreq	r0, ip, r4, lsr #20
     ae0:	81940000 	orrshi	r0, r4, r0
     ae4:	00240000 	eoreq	r0, r4, r0
     ae8:	9c010000 	stcls	0, cr0, [r1], {-0}
     aec:	000006f2 	strdeq	r0, [r0], -r2
     af0:	0100681c 	tsteq	r0, ip, lsl r8
     af4:	021b2124 	andseq	r2, fp, #9
     af8:	04700000 	ldrbteq	r0, [r0], #-0
     afc:	046a0000 	strbteq	r0, [sl], #-0
     b00:	70160000 	andsvc	r0, r6, r0
     b04:	01007274 	tsteq	r0, r4, ror r2
     b08:	01fb2a24 	mvnseq	r2, r4, lsr #20
     b0c:	51010000 	mrspl	r0, (UNDEF: 1)
     b10:	6e696d17 	mcrvs	13, 3, r6, cr9, cr7, {0}
     b14:	0b260100 	bleq	980f1c <__bss_end__+0x976144>
     b18:	000001fb 	strdeq	r0, [r0], -fp
     b1c:	000004a5 	andeq	r0, r0, r5, lsr #9
     b20:	0000049f 	muleq	r0, pc, r4	; <UNPREDICTABLE>
     b24:	78616d17 	stmdavc	r1!, {r0, r1, r2, r4, r8, sl, fp, sp, lr}^
     b28:	0b270100 	bleq	9c0f30 <__bss_end__+0x9b6158>
     b2c:	000001fb 	strdeq	r0, [r0], -fp
     b30:	000004dd 	ldrdeq	r0, [r0], -sp
     b34:	000004d7 	ldrdeq	r0, [r0], -r7
     b38:	00070e1e 	andeq	r0, r7, lr, lsl lr
     b3c:	00819400 	addeq	r9, r1, r0, lsl #8
     b40:	00380200 	eorseq	r0, r8, r0, lsl #4
     b44:	26010000 	strcs	r0, [r1], -r0
     b48:	0006af11 	andeq	sl, r6, r1, lsl pc
     b4c:	071f1f00 	ldreq	r1, [pc, -r0, lsl #30]
     b50:	05250000 	streq	r0, [r5, #-0]!
     b54:	05230000 	streq	r0, [r3, #-0]!
     b58:	2a000000 	bcs	b60 <__code_start__-0x74a0>
     b5c:	000006f2 	strdeq	r0, [r0], -r2
     b60:	00008194 	muleq	r0, r4, r1
     b64:	00005006 	andeq	r5, r0, r6
     b68:	11270100 			; <UNDEFINED> instruction: 0x11270100
     b6c:	0007031f 	andeq	r0, r7, pc, lsl r3
     b70:	00053a00 	andeq	r3, r5, r0, lsl #20
     b74:	00053800 	andeq	r3, r5, r0, lsl #16
     b78:	07532b00 	ldrbeq	r2, [r3, -r0, lsl #22]
     b7c:	81940000 	orrshi	r0, r4, r0
     b80:	940a0000 	strls	r0, [sl], #-0
     b84:	00000081 	andeq	r0, r0, r1, lsl #1
     b88:	01000000 	mrseq	r0, (UNDEF: 0)
     b8c:	641f2620 	ldrvs	r2, [pc], #-1568	; b94 <__code_start__-0x746c>
     b90:	4f000007 	svcmi	0x00000007
     b94:	4d000005 	stcmi	0, cr0, [r0, #-20]	; 0xffffffec
     b98:	00000005 	andeq	r0, r0, r5
     b9c:	f22c0000 	vhadd.s32	d0, d12, d0
     ba0:	01000002 	tsteq	r0, r2
     ba4:	01fb071e 	mvnseq	r0, lr, lsl r7
     ba8:	0e010000 	cdpeq	0, 0, cr0, cr1, cr0, {0}
     bac:	24000007 	strcs	r0, [r0], #-7
     bb0:	1e010068 	cdpne	0, 0, cr0, cr1, cr8, {3}
     bb4:	00021b19 	andeq	r1, r2, r9, lsl fp
     bb8:	e52c0000 	str	r0, [ip, #-0]!
     bbc:	01000002 	tsteq	r0, r2
     bc0:	01fb0718 	mvnseq	r0, r8, lsl r7
     bc4:	2a010000 	bcs	40bcc <__bss_end__+0x35df4>
     bc8:	24000007 	strcs	r0, [r0], #-7
     bcc:	18010068 	stmdane	r1, {r3, r5, r6}
     bd0:	00021b1b 	andeq	r1, r2, fp, lsl fp
     bd4:	c72c0000 	strgt	r0, [ip, -r0]!
     bd8:	01000002 	tsteq	r0, r2
     bdc:	021b0811 	andseq	r0, fp, #1114112	; 0x110000
     be0:	46010000 	strmi	r0, [r1], -r0
     be4:	24000007 	strcs	r0, [r0], #-7
     be8:	11010070 	tstne	r1, r0, ror r0
     bec:	00021b1b 	andeq	r1, r2, fp, lsl fp
     bf0:	8a2d0000 	bhi	b40bf8 <__bss_end__+0xb35e20>
     bf4:	01000002 	tsteq	r0, r2
     bf8:	021b080b 	andseq	r0, fp, #720896	; 0xb0000
     bfc:	2e010000 	cdpcs	0, 0, cr0, cr1, cr0, {0}
     c00:	000002fd 	strdeq	r0, [r0], -sp
     c04:	2c182e02 	ldccs	14, cr2, [r8], {2}
     c08:	03000000 	movweq	r0, #0
     c0c:	0000076f 	andeq	r0, r0, pc, ror #14
     c10:	02006824 	andeq	r6, r0, #36, 16	; 0x240000
     c14:	021b292e 	andseq	r2, fp, #753664	; 0xb8000
     c18:	2f000000 	svccs	0x00000000
     c1c:	00000746 	andeq	r0, r0, r6, asr #14
     c20:	00008160 	andeq	r8, r0, r0, ror #2
     c24:	00000010 	andeq	r0, r0, r0, lsl r0
     c28:	2a309c01 	bcs	c27c34 <__bss_end__+0xc1ce5c>
     c2c:	70000007 	andvc	r0, r0, r7
     c30:	0c000081 	stceq	0, cr0, [r0], {129}	; 0x81
     c34:	01000000 	mrseq	r0, (UNDEF: 0)
     c38:	00079f9c 	muleq	r7, ip, pc	; <UNPREDICTABLE>
     c3c:	073b1f00 	ldreq	r1, [fp, -r0, lsl #30]!
     c40:	05660000 	strbeq	r0, [r6, #-0]!
     c44:	05620000 	strbeq	r0, [r2, #-0]!
     c48:	30000000 	andcc	r0, r0, r0
     c4c:	0000070e 	andeq	r0, r0, lr, lsl #14
     c50:	0000817c 	andeq	r8, r0, ip, ror r1
     c54:	00000008 	andeq	r0, r0, r8
     c58:	07c09c01 	strbeq	r9, [r0, r1, lsl #24]
     c5c:	1f1f0000 	svcne	0x001f0000
     c60:	8b000007 	blhi	c84 <__code_start__-0x737c>
     c64:	87000005 	strhi	r0, [r0, -r5]
     c68:	00000005 	andeq	r0, r0, r5
     c6c:	0006f230 	andeq	pc, r6, r0, lsr r2	; <UNPREDICTABLE>
     c70:	00818400 	addeq	r8, r1, r0, lsl #8
     c74:	00001000 	andeq	r1, r0, r0
     c78:	049c0100 	ldreq	r0, [ip], #256	; 0x100
     c7c:	1f000008 	svcne	0x00000008
     c80:	00000703 	andeq	r0, r0, r3, lsl #14
     c84:	000005b0 			; <UNDEFINED> instruction: 0x000005b0
     c88:	000005ac 	andeq	r0, r0, ip, lsr #11
     c8c:	0007532b 	andeq	r5, r7, fp, lsr #6
     c90:	00818400 	addeq	r8, r1, r0, lsl #8
     c94:	81840300 	orrhi	r0, r4, r0, lsl #6
     c98:	00000000 	andeq	r0, r0, r0
     c9c:	20010000 	andcs	r0, r1, r0
     ca0:	07641f26 	strbeq	r1, [r4, -r6, lsr #30]!
     ca4:	05d30000 	ldrbeq	r0, [r3]
     ca8:	05d10000 	ldrbeq	r0, [r1]
     cac:	00000000 	andeq	r0, r0, r0
     cb0:	00030731 	andeq	r0, r3, r1, lsr r7
     cb4:	00030700 	andeq	r0, r3, r0, lsl #14
     cb8:	071e0600 	ldreq	r0, [lr, -r0, lsl #12]
     cbc:	00022b31 	andeq	r2, r2, r1, lsr fp
     cc0:	00022b00 	andeq	r2, r2, r0, lsl #22
     cc4:	07f20400 	ldrbeq	r0, [r2, r0, lsl #8]!
     cc8:	00059431 	andeq	r9, r5, r1, lsr r4
     ccc:	00059400 	andeq	r9, r5, r0, lsl #8
     cd0:	06280400 	strteq	r0, [r8], -r0, lsl #8
     cd4:	0000a731 	andeq	sl, r0, r1, lsr r7
     cd8:	0000a700 	andeq	sl, r0, r0, lsl #14
     cdc:	066e0400 	strbteq	r0, [lr], -r0, lsl #8
     ce0:	00027331 	andeq	r7, r2, r1, lsr r3
     ce4:	00027300 	andeq	r7, r2, r0, lsl #6
     ce8:	061f0600 	ldreq	r0, [pc], -r0, lsl #12
     cec:	0002f100 	andeq	pc, r2, r0, lsl #2
     cf0:	0c000400 	cfstrseq	mvf0, [r0], {-0}
     cf4:	04000005 	streq	r0, [r0], #-5
     cf8:	0000b401 	andeq	fp, r0, r1, lsl #8
     cfc:	03310c00 	teqeq	r1, #0, 24
     d00:	018e0000 	orreq	r0, lr, r0
     d04:	83f40000 	mvnshi	r0, #0, 0
     d08:	01900000 	orrseq	r0, r0, r0
     d0c:	05030000 	streq	r0, [r3, #-0]
     d10:	04020000 	streq	r0, [r2], #-0
     d14:	746e6905 	strbtvc	r6, [lr], #-2309	; 0xfffff6fb
     d18:	07040300 	streq	r0, [r4, -r0, lsl #6]
     d1c:	000001df 	ldrdeq	r0, [r0], -pc	; <UNPREDICTABLE>
     d20:	77060103 	strvc	r0, [r6, -r3, lsl #2]
     d24:	03000001 	movweq	r0, #1
     d28:	00210502 	eoreq	r0, r1, r2, lsl #10
     d2c:	04030000 	streq	r0, [r3], #-0
     d30:	00005605 	andeq	r5, r0, r5, lsl #12
     d34:	05080300 	streq	r0, [r8, #-768]	; 0xfffffd00
     d38:	00000051 	andeq	r0, r0, r1, asr r0
     d3c:	75080103 	strvc	r0, [r8, #-259]	; 0xfffffefd
     d40:	03000001 	movweq	r0, #1
     d44:	02060702 	andeq	r0, r6, #524288	; 0x80000
     d48:	04030000 	streq	r0, [r3], #-0
     d4c:	0001da07 	andeq	sp, r1, r7, lsl #20
     d50:	07080300 	streq	r0, [r8, -r0, lsl #6]
     d54:	000001d5 	ldrdeq	r0, [r0], -r5
     d58:	00002504 	andeq	r2, r0, r4, lsl #10
     d5c:	00007a00 	andeq	r7, r0, r0, lsl #20
     d60:	00250500 	eoreq	r0, r5, r0, lsl #10
     d64:	06000000 	streq	r0, [r0], -r0
     d68:	0000002b 	andeq	r0, r0, fp, lsr #32
     d6c:	860e1c02 	strhi	r1, [lr], -r2, lsl #24
     d70:	07000000 	streq	r0, [r0, -r0]
     d74:	00006b04 	andeq	r6, r0, r4, lsl #22
     d78:	00250400 	eoreq	r0, r5, r0, lsl #8
     d7c:	009b0000 	addseq	r0, fp, r0
     d80:	9b050000 	blls	140d88 <__bss_end__+0x135fb0>
     d84:	00000000 	andeq	r0, r0, r0
     d88:	00a80407 	adceq	r0, r8, r7, lsl #8
     d8c:	01030000 	mrseq	r0, (UNDEF: 3)
     d90:	00017e08 	andeq	r7, r1, r8, lsl #28
     d94:	00a10800 	adceq	r0, r1, r0, lsl #16
     d98:	d2060000 	andle	r0, r6, #0, 0
     d9c:	02000005 	andeq	r0, r0, #5, 0
     da0:	00b90e21 	adcseq	r0, r9, r1, lsr #28
     da4:	04070000 	streq	r0, [r7], #-0
     da8:	0000008c 	andeq	r0, r0, ip, lsl #1
     dac:	00031e09 	andeq	r1, r3, r9, lsl #28
     db0:	05010800 	streq	r0, [r1, #-2048]	; 0xfffff800
     db4:	0000ec07 	andeq	lr, r0, r7, lsl #24
     db8:	00640a00 	rsbeq	r0, r4, r0, lsl #20
     dbc:	ec090701 	stc	7, cr0, [r9], {1}
     dc0:	0a000000 	beq	dc8 <__code_start__-0x7238>
     dc4:	08010070 	stmdaeq	r1, {r4, r5, r6}
     dc8:	0000f308 	andeq	pc, r0, r8, lsl #6
     dcc:	70660a00 	rsbvc	r0, r6, r0, lsl #20
     dd0:	09090100 	stmdbeq	r9, {r8}
     dd4:	000000f6 	strdeq	r0, [r0], -r6
     dd8:	04080300 	streq	r0, [r8], #-768	; 0xfffffd00
     ddc:	0000033d 	andeq	r0, r0, sp, lsr r3
     de0:	070c040b 	streq	r0, [ip, -fp, lsl #8]
     de4:	0000f504 	andeq	pc, r0, r4, lsl #10
     de8:	01080d00 	tsteq	r8, r0, lsl #26
     dec:	0120020e 			; <UNDEFINED> instruction: 0x0120020e
     df0:	700e0000 	andvc	r0, lr, r0
     df4:	01007274 	tsteq	r0, r4, ror r2
     df8:	01421110 	cmpeq	r2, r0, lsl r1
     dfc:	0f000000 	svceq	0x00000000
     e00:	00000357 	andeq	r0, r0, r7, asr r3
     e04:	2c0c1101 	stfcss	f1, [ip], {1}
     e08:	04000000 	streq	r0, [r0], #-0
     e0c:	03110900 	tsteq	r1, #0, 18
     e10:	01080000 	mrseq	r0, (UNDEF: 8)
     e14:	01420f0c 	cmpeq	r2, ip, lsl #30
     e18:	730a0000 	movwvc	r0, #40960	; 0xa000
     e1c:	04120100 	ldreq	r0, [r2], #-256	; 0xffffff00
     e20:	000000fc 	strdeq	r0, [r0], -ip
     e24:	0100780a 	tsteq	r0, sl, lsl #16
     e28:	00bf0e13 	adcseq	r0, pc, r3, lsl lr	; <UNPREDICTABLE>
     e2c:	07000000 	streq	r0, [r0, -r0]
     e30:	00012004 	andeq	r2, r1, r4
     e34:	035c1000 	cmpeq	ip, #0, 0
     e38:	14010000 	strne	r0, [r1], #-0
     e3c:	00012003 	andeq	r2, r1, r3
     e40:	03441100 	movteq	r1, #16640	; 0x4100
     e44:	18010000 	stmdane	r1, {}	; <UNPREDICTABLE>
     e48:	0001480f 	andeq	r4, r1, pc, lsl #16
     e4c:	c0030500 	andgt	r0, r3, r0, lsl #10
     e50:	110000a9 	smlatbne	r0, r9, r0, r0
     e54:	00000324 	andeq	r0, r0, r4, lsr #6
     e58:	78101901 	ldmdavc	r0, {r0, r8, fp, ip}
     e5c:	05000001 	streq	r0, [r0, #-1]
     e60:	00a9b803 	adceq	fp, r9, r3, lsl #16
     e64:	48040700 	stmdami	r4, {r8, r9, sl}
     e68:	12000001 	andne	r0, r0, #1, 0
     e6c:	00000273 	andeq	r0, r0, r3, ror r2
     e70:	f4065301 	vst2.8	{d5-d8}, [r6], r1
     e74:	a4000083 	strge	r0, [r0], #-131	; 0xffffff7d
     e78:	01000000 	mrseq	r0, (UNDEF: 0)
     e7c:	0001c79c 	muleq	r1, ip, r7
     e80:	70611300 	rsbvc	r1, r1, r0, lsl #6
     e84:	14530100 	ldrbne	r0, [r3], #-256	; 0xffffff00
     e88:	000000f3 	strdeq	r0, [r0], -r3
     e8c:	62145001 	andsvs	r5, r4, #1, 0
     e90:	55010070 	strpl	r0, [r1, #-112]	; 0xffffff90
     e94:	0001780a 	andeq	r7, r1, sl, lsl #16
     e98:	0005ea00 	andeq	lr, r5, r0, lsl #20
     e9c:	0005e600 	andeq	lr, r5, r0, lsl #12
     ea0:	00701400 	rsbseq	r1, r0, r0, lsl #8
     ea4:	780f5501 	stmdavc	pc, {r0, r8, sl, ip, lr}	; <UNPREDICTABLE>
     ea8:	0c000001 	stceq	0, cr0, [r0], {1}
     eac:	0a000006 	beq	ecc <__code_start__-0x7134>
     eb0:	00000006 	andeq	r0, r0, r6
     eb4:	00030715 	andeq	r0, r3, r5, lsl r7
     eb8:	072b0100 	streq	r0, [fp, -r0, lsl #2]!
     ebc:	000000f3 	strdeq	r0, [r0], -r3
     ec0:	00008498 	muleq	r0, r8, r4
     ec4:	000000ec 	andeq	r0, r0, ip, ror #1
     ec8:	02a39c01 	adceq	r9, r3, #256	; 0x100
     ecc:	00160000 	andseq	r0, r6, r0
     ed0:	01000003 	tsteq	r0, r3
     ed4:	002c1a2b 	eoreq	r1, ip, fp, lsr #20
     ed8:	06230000 	strteq	r0, [r3], -r0
     edc:	061f0000 	ldreq	r0, [pc], -r0
     ee0:	70140000 	andsvc	r0, r4, r0
     ee4:	0a2d0100 	beq	b412ec <__bss_end__+0xb36514>
     ee8:	00000178 	andeq	r0, r0, r8, ror r1
     eec:	00000650 	andeq	r0, r0, r0, asr r6
     ef0:	00000644 	andeq	r0, r0, r4, asr #12
     ef4:	00031817 	andeq	r1, r3, r7, lsl r8
     ef8:	0e2d0100 	sufeqe	f0, f5, f0
     efc:	00000178 	andeq	r0, r0, r8, ror r1
     f00:	000006ae 	andeq	r0, r0, lr, lsr #13
     f04:	000006a6 	andeq	r0, r0, r6, lsr #13
     f08:	00032a17 	andeq	r2, r3, r7, lsl sl
     f0c:	0b2e0100 	bleq	b81314 <__bss_end__+0xb7653c>
     f10:	0000002c 	andeq	r0, r0, ip, lsr #32
     f14:	000006e9 	andeq	r0, r0, r9, ror #13
     f18:	000006e7 	andeq	r0, r0, r7, ror #13
     f1c:	0002a318 	andeq	sl, r2, r8, lsl r3
     f20:	00855800 	addeq	r5, r5, r0, lsl #16
     f24:	00b00100 	adcseq	r0, r0, r0, lsl #2
     f28:	4a010000 	bmi	40f30 <__bss_end__+0x36158>
     f2c:	02b4190d 	adcseq	r1, r4, #212992	; 0x34000
     f30:	07000000 	streq	r0, [r0, -r0]
     f34:	06fc0000 	ldrbteq	r0, [ip], r0
     f38:	b01a0000 	andslt	r0, sl, r0
     f3c:	1b000000 	blne	f44 <__code_start__-0x70bc>
     f40:	000002bf 			; <UNDEFINED> instruction: 0x000002bf
     f44:	0000072a 	andeq	r0, r0, sl, lsr #14
     f48:	00000724 	andeq	r0, r0, r4, lsr #14
     f4c:	0002ca1b 	andeq	ip, r2, fp, lsl sl
     f50:	00075900 	andeq	r5, r7, r0, lsl #18
     f54:	00075500 	andeq	r5, r7, r0, lsl #10
     f58:	852c1c00 	strhi	r1, [ip, #-3072]!	; 0xfffff400
     f5c:	017e0000 	cmneq	lr, r0
     f60:	641d0000 	ldrvs	r0, [sp], #-0
     f64:	dc000085 	stcle	0, cr0, [r0], {133}	; 0x85
     f68:	8f000002 	svchi	0x00000002
     f6c:	1e000002 	cdpne	0, 0, cr0, cr0, cr2, {0}
     f70:	77025001 	strvc	r5, [r2, -r1]
     f74:	51011e00 	tstpl	r1, r0, lsl #28
     f78:	00007602 	andeq	r7, r0, r2, lsl #12
     f7c:	00856c1f 	addeq	r6, r5, pc, lsl ip
     f80:	0002e800 	andeq	lr, r2, r0, lsl #16
     f84:	50011e00 	andpl	r1, r1, r0, lsl #28
     f88:	243e4003 	ldrtcs	r4, [lr], #-3
     f8c:	00000000 	andeq	r0, r0, r0
     f90:	00034e20 	andeq	r4, r3, r0, lsr #28
     f94:	101c0100 	andsne	r0, ip, r0, lsl #2
     f98:	00000178 	andeq	r0, r0, r8, ror r1
     f9c:	0002d601 	andeq	sp, r2, r1, lsl #12
     fa0:	756e2100 	strbvc	r2, [lr, #-256]!	; 0xffffff00
     fa4:	221c0100 	andscs	r0, ip, #0
     fa8:	0000002c 	andeq	r0, r0, ip, lsr #32
     fac:	00706322 	rsbseq	r6, r0, r2, lsr #6
     fb0:	d6082101 	strle	r2, [r8], -r1, lsl #2
     fb4:	22000002 	andcs	r0, r0, #2, 0
     fb8:	01007075 	tsteq	r0, r5, ror r0
     fbc:	01780a24 	cmneq	r8, r4, lsr #20
     fc0:	07000000 	streq	r0, [r0, -r0]
     fc4:	0000a104 	andeq	sl, r0, r4, lsl #2
     fc8:	05942300 	ldreq	r2, [r4, #768]	; 0x300
     fcc:	05940000 	ldreq	r0, [r4]
     fd0:	28020000 	stmdacs	r2, {}	; <UNPREDICTABLE>
     fd4:	03492306 	movteq	r2, #37638	; 0x9306
     fd8:	03490000 	movteq	r0, #36864	; 0x9000
     fdc:	1a030000 	bne	c0fe4 <__bss_end__+0xb620c>
     fe0:	0d8b000b 	stceq	0, cr0, [fp, #44]	; 0x2c
     fe4:	00040000 	andeq	r0, r4, r0
     fe8:	00000719 	andeq	r0, r0, r9, lsl r7
     fec:	00b40104 	adcseq	r0, r4, r4, lsl #2
     ff0:	1d0c0000 	stcne	0, cr0, [ip, #-0]
     ff4:	8e000004 	cdphi	0, 0, cr0, cr0, cr4, {0}
     ff8:	84000001 	strhi	r0, [r0], #-1
     ffc:	a4000085 	strge	r0, [r0], #-133	; 0xffffff7b
    1000:	2d000005 	stccs	0, cr0, [r0, #-20]	; 0xffffffec
    1004:	02000007 	andeq	r0, r0, #7, 0
    1008:	6e690504 	cdpvs	5, 6, cr0, cr9, cr4, {0}
    100c:	04030074 	streq	r0, [r3], #-116	; 0xffffff8c
    1010:	0001df07 	andeq	sp, r1, r7, lsl #30
    1014:	06010300 	streq	r0, [r1], -r0, lsl #6
    1018:	00000177 	andeq	r0, r0, r7, ror r1
    101c:	21050203 	tstcs	r5, r3, lsl #4
    1020:	03000000 	movweq	r0, #0
    1024:	00560504 	subseq	r0, r6, r4, lsl #10
    1028:	08030000 	stmdaeq	r3, {}	; <UNPREDICTABLE>
    102c:	00005105 	andeq	r5, r0, r5, lsl #2
    1030:	00440400 	subeq	r0, r4, r0, lsl #8
    1034:	2e030000 	cdpcs	0, 0, cr0, cr3, cr0, {0}
    1038:	00005b18 	andeq	r5, r0, r8, lsl fp
    103c:	08010300 	stmdaeq	r1, {r8, r9}
    1040:	00000175 	andeq	r0, r0, r5, ror r1
    1044:	0001f504 	andeq	pc, r1, r4, lsl #10
    1048:	19310300 	ldmdbne	r1!, {r8, r9}
    104c:	0000006e 	andeq	r0, r0, lr, rrx
    1050:	06070203 	streq	r0, [r7], -r3, lsl #4
    1054:	04000002 	streq	r0, [r0], #-2
    1058:	000001ec 	andeq	r0, r0, ip, ror #3
    105c:	81193403 	tsthi	r9, r3, lsl #8
    1060:	03000000 	movweq	r0, #0
    1064:	01da0704 	bicseq	r0, sl, r4, lsl #14
    1068:	08030000 	stmdaeq	r3, {}	; <UNPREDICTABLE>
    106c:	0001d507 	andeq	sp, r1, r7, lsl #10
    1070:	00250500 	eoreq	r0, r5, r0, lsl #10
    1074:	009e0000 	addseq	r0, lr, r0
    1078:	25060000 	strcs	r0, [r6, #-0]
    107c:	00000000 	andeq	r0, r0, r0
    1080:	00002b07 	andeq	r2, r0, r7, lsl #22
    1084:	0e1c0400 	cfmulseq	mvf0, mvf12, mvf0
    1088:	000000aa 	andeq	r0, r0, sl, lsr #1
    108c:	008f0408 	addeq	r0, pc, r8, lsl #8
    1090:	25050000 	strcs	r0, [r5, #-0]
    1094:	bf000000 	svclt	0x00000000
    1098:	06000000 	streq	r0, [r0], -r0
    109c:	000000bf 	strheq	r0, [r0], -pc	; <UNPREDICTABLE>
    10a0:	cc040800 	stcgt	8, cr0, [r4], {-0}
    10a4:	03000000 	movweq	r0, #0
    10a8:	017e0801 	cmneq	lr, r1, lsl #16
    10ac:	c5090000 	strgt	r0, [r9, #-0]
    10b0:	07000000 	streq	r0, [r0, -r0]
    10b4:	000005d2 	ldrdeq	r0, [r0], -r2
    10b8:	dd0e2104 	stfles	f2, [lr, #-16]
    10bc:	08000000 	stmdaeq	r0, {}	; <UNPREDICTABLE>
    10c0:	0000b004 	andeq	fp, r0, r4
    10c4:	020c0a00 	andeq	r0, ip, #0, 20
    10c8:	01140904 	tsteq	r4, r4, lsl #18
    10cc:	3f0b0000 	svccc	0x000b0000
    10d0:	02000000 	andeq	r0, r0, #0, 0
    10d4:	00bf1106 	adcseq	r1, pc, r6, lsl #2
    10d8:	0b000000 	bleq	10e0 <__code_start__-0x6f20>
    10dc:	0000004c 	andeq	r0, r0, ip, asr #32
    10e0:	bf110702 	svclt	0x00110702
    10e4:	04000000 	streq	r0, [r0], #-0
    10e8:	0001ce0b 	andeq	ip, r1, fp, lsl #28
    10ec:	0e080200 	cdpeq	2, 0, cr0, cr8, cr0, {0}
    10f0:	0000002c 	andeq	r0, r0, ip, lsr #32
    10f4:	47040008 	strmi	r0, [r4, -r8]
    10f8:	02000002 	andeq	r0, r0, #2, 0
    10fc:	00e30309 	rsceq	r0, r3, r9, lsl #6
    1100:	070c0000 	streq	r0, [ip, -r0]
    1104:	00005b01 	andeq	r5, r0, r1, lsl #22
    1108:	060a0500 	streq	r0, [sl], -r0, lsl #10
    110c:	0000013b 	andeq	r0, r0, fp, lsr r1
    1110:	00027b0d 	andeq	r7, r2, sp, lsl #22
    1114:	670d8000 	strvs	r8, [sp, -r0]
    1118:	fe000002 	cdp2	0, 0, cr0, cr0, cr2, {0}
    111c:	00890e00 	addeq	r0, r9, r0, lsl #28
    1120:	05a80000 	streq	r0, [r8, #0]!
    1124:	01be100d 			; <UNDEFINED> instruction: 0x01be100d
    1128:	420b0000 	andmi	r0, fp, #0, 0
    112c:	05000002 	streq	r0, [r0, #-2]
    1130:	01be140e 			; <UNDEFINED> instruction: 0x01be140e
    1134:	0b000000 	bleq	113c <__code_start__-0x6ec4>
    1138:	0000021e 	andeq	r0, r0, lr, lsl r2
    113c:	750e0f05 	strvc	r0, [lr, #-3845]	; 0xfffff0fb
    1140:	04000000 	streq	r0, [r0], #-0
    1144:	00000f0b 	andeq	r0, r0, fp, lsl #30
    1148:	0e100500 	cfmul32eq	mvfx0, mvfx0, mvfx0
    114c:	00000075 	andeq	r0, r0, r5, ror r0
    1150:	00060b08 	andeq	r0, r6, r8, lsl #22
    1154:	14050000 	strne	r0, [r5], #-0
    1158:	0000750e 	andeq	r7, r0, lr, lsl #10
    115c:	9d0b0c00 	stcls	12, cr0, [fp, #-0]
    1160:	05000000 	streq	r0, [r0, #-0]
    1164:	01140f16 	tsteq	r4, r6, lsl pc
    1168:	0b100000 	bleq	401170 <__bss_end__+0x3f6398>
    116c:	00000183 	andeq	r0, r0, r3, lsl #3
    1170:	750e1905 	strvc	r1, [lr, #-2309]	; 0xfffff6fb
    1174:	1c000000 	stcne	0, cr0, [r0], {-0}
    1178:	0000150b 	andeq	r1, r0, fp, lsl #10
    117c:	0e1a0500 	cfmul32eq	mvfx0, mvfx10, mvfx0
    1180:	00000075 	andeq	r0, r0, r5, ror r0
    1184:	03b30b20 			; <UNDEFINED> instruction: 0x03b30b20
    1188:	1c050000 	stcne	0, cr0, [r5], {-0}
    118c:	0000620e 	andeq	r6, r0, lr, lsl #4
    1190:	720f2400 	andvc	r2, pc, #0, 8
    1194:	0500317a 	streq	r3, [r0, #-378]	; 0xfffffe86
    1198:	01c40d1e 	biceq	r0, r4, lr, lsl sp
    119c:	00260000 	eoreq	r0, r6, r0
    11a0:	013b0408 	teqeq	fp, r8, lsl #8
    11a4:	4f100000 	svcmi	0x00100000
    11a8:	d4000000 	strle	r0, [r0], #-0
    11ac:	11000001 	tstne	r0, r1
    11b0:	0000002c 	andeq	r0, r0, ip, lsr #32
    11b4:	0004007f 	andeq	r0, r4, pc, ror r0
    11b8:	05000000 	streq	r0, [r0, #-0]
    11bc:	013b031f 	teqeq	fp, pc, lsl r3
    11c0:	04120000 	ldreq	r0, [r2], #-0
    11c4:	00016807 	andeq	r6, r1, r7, lsl #16
    11c8:	11a50500 			; <UNDEFINED> instruction: 0x11a50500
    11cc:	0000002c 	andeq	r0, r0, ip, lsr #32
    11d0:	000a3a13 	andeq	r3, sl, r3, lsl sl
    11d4:	0e100100 	mufeqs	f0, f0, f0
    11d8:	000001e0 	andeq	r0, r0, r0, ror #3
    11dc:	a9c80305 	stmibge	r8, {r0, r2, r8, r9}^
    11e0:	9b130000 	blls	4c11e8 <__bss_end__+0x4b6410>
    11e4:	0100000a 	tsteq	r0, sl
    11e8:	01e00e11 	mvneq	r0, r1, lsl lr
    11ec:	03050000 	movweq	r0, #20480	; 0x5000
    11f0:	0000a9cc 	andeq	sl, r0, ip, asr #19
    11f4:	00037614 	andeq	r7, r3, r4, lsl r6
    11f8:	01150100 	tsteq	r5, r0, lsl #2
    11fc:	008afc06 	addeq	pc, sl, r6, lsl #24
    1200:	00002c00 	andeq	r2, r0, r0, lsl #24
    1204:	729c0100 	addsvc	r0, ip, #0
    1208:	15000002 	strne	r0, [r0, #-2]
    120c:	00000090 	muleq	r0, r0, r0
    1210:	00000282 	andeq	r0, r0, r2, lsl #5
    1214:	a6200305 	strtge	r0, [r0], -r5, lsl #6
    1218:	14160000 	ldrne	r0, [r6], #-0
    121c:	0700008b 	streq	r0, [r0, -fp, lsl #1]
    1220:	6800000d 	stmdavs	r0, {r0, r2, r3}
    1224:	17000002 	strne	r0, [r0, -r2]
    1228:	03055001 	movweq	r5, #20481	; 0x5001
    122c:	0000a5b0 			; <UNDEFINED> instruction: 0x0000a5b0
    1230:	05510117 	ldrbeq	r0, [r1, #-279]	; 0xfffffee9
    1234:	00a2c803 	adceq	ip, r2, r3, lsl #16
    1238:	52011700 	andpl	r1, r1, #0, 14
    123c:	a6200305 	strtge	r0, [r0], -r5, lsl #6
    1240:	01170000 	tsteq	r7, r0
    1244:	170a0353 	smlsdne	sl, r3, r3, r0
    1248:	18180001 	ldmdane	r8, {r0}
    124c:	1300008b 	movwne	r0, #139	; 0x8b
    1250:	0000000d 	andeq	r0, r0, sp
    1254:	0000cc10 	andeq	ip, r0, r0, lsl ip
    1258:	00028200 	andeq	r8, r2, r0, lsl #4
    125c:	002c1100 	eoreq	r1, ip, r0, lsl #2
    1260:	000e0000 	andeq	r0, lr, r0
    1264:	00027209 	andeq	r7, r2, r9, lsl #4
    1268:	03d31900 	bicseq	r1, r3, #0, 18
    126c:	0b010000 	bleq	41274 <__bss_end__+0x3649c>
    1270:	002c0a01 	eoreq	r0, ip, r1, lsl #20
    1274:	8a100000 	bhi	40127c <__bss_end__+0x3f64a4>
    1278:	00ec0000 	rsceq	r0, ip, r0
    127c:	9c010000 	stcls	0, cr0, [r1], {-0}
    1280:	00000402 	andeq	r0, r0, r2, lsl #8
    1284:	0003001a 	andeq	r0, r3, sl, lsl r0
    1288:	010e0100 	mrseq	r0, (UNDEF: 30)
    128c:	00002c0e 	andeq	r2, r0, lr, lsl #24
    1290:	00077d00 	andeq	r7, r7, r0, lsl #26
    1294:	00077900 	andeq	r7, r7, r0, lsl #18
    1298:	04021b00 	streq	r1, [r2], #-2816	; 0xfffff500
    129c:	8a1c0000 	bhi	7012a4 <__bss_end__+0x6f64cc>
    12a0:	1c010000 	stcne	0, cr0, [r1], {-0}
    12a4:	b800008a 	stmdalt	r0, {r1, r3, r7}
    12a8:	01000000 	mrseq	r0, (UNDEF: 0)
    12ac:	f817010e 			; <UNDEFINED> instruction: 0xf817010e
    12b0:	1c000003 	stcne	0, cr0, [r0], {3}
    12b4:	00000413 	andeq	r0, r0, r3, lsl r4
    12b8:	000007a1 	andeq	r0, r0, r1, lsr #15
    12bc:	0000079b 	muleq	r0, fp, r7
    12c0:	00041f1c 	andeq	r1, r4, ip, lsl pc
    12c4:	0007d200 	andeq	sp, r7, r0, lsl #4
    12c8:	0007cc00 	andeq	ip, r7, r0, lsl #24
    12cc:	042b1c00 	strteq	r1, [fp], #-3072	; 0xfffff400
    12d0:	08030000 	stmdaeq	r3, {}	; <UNPREDICTABLE>
    12d4:	07fd0000 	ldrbeq	r0, [sp, r0]!
    12d8:	461d0000 	ldrmi	r0, [sp], -r0
    12dc:	70000004 	andvc	r0, r0, r4
    12e0:	9b000001 	blls	12ec <__code_start__-0x6d14>
    12e4:	1c000003 	stcne	0, cr0, [r0], {3}
    12e8:	00000447 	andeq	r0, r0, r7, asr #8
    12ec:	00000836 	andeq	r0, r0, r6, lsr r8
    12f0:	0000082e 	andeq	r0, r0, lr, lsr #16
    12f4:	000c9f1e 	andeq	r9, ip, lr, lsl pc
    12f8:	008a6800 	addeq	r6, sl, r0, lsl #16
    12fc:	01880000 	orreq	r0, r8, r0
    1300:	01010000 	mrseq	r0, (UNDEF: 1)
    1304:	03500d01 	cmpeq	r0, #64	; 0x40
    1308:	c81f0000 	ldmdagt	pc, {}	; <UNPREDICTABLE>
    130c:	6c00000c 	stcvs	0, cr0, [r0], {12}
    1310:	6a000008 	bvs	1338 <__code_start__-0x6cc8>
    1314:	1f000008 	svcne	0x00000008
    1318:	00000cbc 			; <UNDEFINED> instruction: 0x00000cbc
    131c:	00000884 	andeq	r0, r0, r4, lsl #17
    1320:	00000882 	andeq	r0, r0, r2, lsl #17
    1324:	000cb01f 	andeq	fp, ip, pc, lsl r0
    1328:	00089e00 	andeq	r9, r8, r0, lsl #28
    132c:	00089c00 	andeq	r9, r8, r0, lsl #24
    1330:	34180000 	ldrcc	r0, [r8], #-0
    1334:	2e00008a 	cdpcs	0, 0, cr0, cr0, cr10, {4}
    1338:	1600000d 	strne	r0, [r0], -sp
    133c:	00008a84 	andeq	r8, r0, r4, lsl #21
    1340:	00000d3a 	andeq	r0, r0, sl, lsr sp
    1344:	0000036d 	andeq	r0, r0, sp, ror #6
    1348:	02500117 	subseq	r0, r0, #-1073741819	; 0xc0000005
    134c:	16000076 			; <UNDEFINED> instruction: 0x16000076
    1350:	00008a90 	muleq	r0, r0, sl
    1354:	00000d07 	andeq	r0, r0, r7, lsl #26
    1358:	0000038a 	andeq	r0, r0, sl, lsl #7
    135c:	05500117 	ldrbeq	r0, [r0, #-279]	; 0xfffffee9
    1360:	00a56c03 	adceq	r6, r5, r3, lsl #24
    1364:	51011700 	tstpl	r1, r0, lsl #14
    1368:	00007602 	andeq	r7, r0, r2, lsl #12
    136c:	008a9820 	addeq	r9, sl, r0, lsr #16
    1370:	000d4600 	andeq	r4, sp, r0, lsl #12
    1374:	50011700 	andpl	r1, r1, r0, lsl #14
    1378:	00007402 	andeq	r7, r0, r2, lsl #8
    137c:	8a241600 	bhi	906b84 <__bss_end__+0x8fbdac>
    1380:	0d070000 	stceq	0, cr0, [r7, #-0]
    1384:	03b20000 			; <UNDEFINED> instruction: 0x03b20000
    1388:	01170000 	tsteq	r7, r0
    138c:	60030550 	andvs	r0, r3, r0, asr r5
    1390:	000000a3 	andeq	r0, r0, r3, lsr #1
    1394:	008a2c16 	addeq	r2, sl, r6, lsl ip
    1398:	000d0700 	andeq	r0, sp, r0, lsl #14
    139c:	0003c900 	andeq	ip, r3, r0, lsl #18
    13a0:	50011700 	andpl	r1, r1, r0, lsl #14
    13a4:	a55c0305 	ldrbge	r0, [ip, #-773]	; 0xfffffcfb
    13a8:	18000000 	stmdane	r0, {}	; <UNPREDICTABLE>
    13ac:	00008a30 	andeq	r8, r0, r0, lsr sl
    13b0:	000007c7 	andeq	r0, r0, r7, asr #15
    13b4:	008ad420 	addeq	sp, sl, r0, lsr #8
    13b8:	000d0700 	andeq	r0, sp, r0, lsl #14
    13bc:	50011700 	andpl	r1, r1, r0, lsl #14
    13c0:	a57c0305 	ldrbge	r0, [ip, #-773]!	; 0xfffffcfb
    13c4:	01170000 	tsteq	r7, r0
    13c8:	00770251 	rsbseq	r0, r7, r1, asr r2
    13cc:	02520117 	subseq	r0, r2, #-1073741819	; 0xc0000005
    13d0:	01170078 	tsteq	r7, r8, ror r0
    13d4:	00750253 	rsbseq	r0, r5, r3, asr r2
    13d8:	1c180000 	ldcne	0, cr0, [r8], {-0}
    13dc:	c700008a 	strgt	r0, [r0, -sl, lsl #1]
    13e0:	00000007 	andeq	r0, r0, r7
    13e4:	00047c21 	andeq	r7, r4, r1, lsr #24
    13e8:	11f30100 	mvnsne	r0, r0, lsl #2
    13ec:	0000002c 	andeq	r0, r0, ip, lsr #32
    13f0:	00045301 	andeq	r5, r4, r1, lsl #6
    13f4:	03932200 	orrseq	r2, r3, #0, 4
    13f8:	f5010000 			; <UNDEFINED> instruction: 0xf5010000
    13fc:	00002c0e 	andeq	r2, r0, lr, lsl #24
    1400:	04082200 	streq	r2, [r8], #-512	; 0xfffffe00
    1404:	f5010000 			; <UNDEFINED> instruction: 0xf5010000
    1408:	00002c1b 	andeq	r2, r0, fp, lsl ip
    140c:	03a22200 			; <UNDEFINED> instruction: 0x03a22200
    1410:	f5010000 			; <UNDEFINED> instruction: 0xf5010000
    1414:	00002c27 	andeq	r2, r0, r7, lsr #24
    1418:	00901500 	addseq	r1, r0, r0, lsl #10
    141c:	04630000 	strbteq	r0, [r3], #-0
    1420:	03050000 	movweq	r0, #20480	; 0x5000
    1424:	0000a614 	andeq	sl, r0, r4, lsl r6
    1428:	00682423 	rsbeq	r2, r8, r3, lsr #8
    142c:	6811fa01 	ldmdavs	r1, {r0, r9, fp, ip, sp, lr, pc}
    1430:	00000004 	andeq	r0, r0, r4
    1434:	00cc1000 	sbceq	r1, ip, r0
    1438:	04630000 	strbteq	r0, [r3], #-0
    143c:	2c110000 	ldccs	0, cr0, [r1], {-0}
    1440:	0a000000 	beq	1448 <__code_start__-0x6bb8>
    1444:	04530900 	ldrbeq	r0, [r3], #-2304	; 0xfffff700
    1448:	04080000 	streq	r0, [r8], #-0
    144c:	000001d4 	ldrdeq	r0, [r0], -r4
    1450:	00042525 	andeq	r2, r4, r5, lsr #10
    1454:	0ae30100 	beq	ff8c185c <__bss_end__+0xff8b6a84>
    1458:	0000002c 	andeq	r0, r0, ip, lsr #32
    145c:	000089c0 	andeq	r8, r0, r0, asr #19
    1460:	00000050 	andeq	r0, r0, r0, asr r0
    1464:	05379c01 	ldreq	r9, [r7, #-3073]!	; 0xfffff3ff
    1468:	e3260000 			; <UNDEFINED> instruction: 0xe3260000
    146c:	01000003 	tsteq	r0, r3
    1470:	002c0ee9 	eoreq	r0, ip, r9, ror #29
    1474:	08bc0000 	ldmeq	ip!, {}	; <UNPREDICTABLE>
    1478:	08b60000 	ldmeq	r6!, {}	; <UNPREDICTABLE>
    147c:	90150000 	andsls	r0, r5, r0
    1480:	47000000 	strmi	r0, [r0, -r0]
    1484:	05000005 	streq	r0, [r0, #-5]
    1488:	00a60003 	adceq	r0, r6, r3
    148c:	060c2700 	streq	r2, [ip], -r0, lsl #14
    1490:	89c40000 	stmibhi	r4, {}^	; <UNPREDICTABLE>
    1494:	c4020000 	strgt	r0, [r2], #-0
    1498:	08000089 	stmdaeq	r0, {r0, r3, r7}
    149c:	01000000 	mrseq	r0, (UNDEF: 0)
    14a0:	04e117e9 	strbteq	r1, [r1], #2025	; 0x7e9
    14a4:	1d1f0000 	ldcne	0, cr0, [pc, #-0]	; 14ac <__code_start__-0x6b54>
    14a8:	e7000006 	str	r0, [r0, -r6]
    14ac:	e5000008 	str	r0, [r0, #-8]
    14b0:	20000008 	andcs	r0, r0, r8
    14b4:	000089cc 	andeq	r8, r0, ip, asr #19
    14b8:	0000062a 	andeq	r0, r0, sl, lsr #12
    14bc:	01500117 	cmpeq	r0, r7, lsl r1
    14c0:	16000031 			; <UNDEFINED> instruction: 0x16000031
    14c4:	000089e0 	andeq	r8, r0, r0, ror #19
    14c8:	00000d07 	andeq	r0, r0, r7, lsl #26
    14cc:	000004fe 	strdeq	r0, [r0], -lr
    14d0:	05500117 	ldrbeq	r0, [r0, #-279]	; 0xfffffee9
    14d4:	00a53803 	adceq	r3, r5, r3, lsl #16
    14d8:	51011700 	tstpl	r1, r0, lsl #14
    14dc:	00007402 	andeq	r7, r0, r2, lsl #8
    14e0:	0089fc16 	addeq	pc, r9, r6, lsl ip	; <UNPREDICTABLE>
    14e4:	000d0700 	andeq	r0, sp, r0, lsl #14
    14e8:	00052d00 	andeq	r2, r5, r0, lsl #26
    14ec:	50011700 	andpl	r1, r1, r0, lsl #14
    14f0:	a5100305 	ldrge	r0, [r0, #-773]	; 0xfffffcfb
    14f4:	01170000 	tsteq	r7, r0
    14f8:	c8030551 	stmdagt	r3, {r0, r4, r6, r8, sl}
    14fc:	170000a2 	strne	r0, [r0, -r2, lsr #1]
    1500:	03055201 	movweq	r5, #20993	; 0x5201
    1504:	0000a600 	andeq	sl, r0, r0, lsl #12
    1508:	02530117 	subseq	r0, r3, #-1073741819	; 0xc0000005
    150c:	1800eb08 	stmdane	r0, {r3, r8, r9, fp, sp, lr, pc}
    1510:	00008a00 	andeq	r8, r0, r0, lsl #20
    1514:	00000d13 	andeq	r0, r0, r3, lsl sp
    1518:	00cc1000 	sbceq	r1, ip, r0
    151c:	05470000 	strbeq	r0, [r7, #-0]
    1520:	2c110000 	ldccs	0, cr0, [r1], {-0}
    1524:	11000000 	mrsne	r0, (UNDEF: 0)
    1528:	05370900 	ldreq	r0, [r7, #-2304]!	; 0xfffff700
    152c:	c0280000 	eorgt	r0, r8, r0
    1530:	01000001 	tsteq	r0, r1
    1534:	897806d5 	ldmdbhi	r8!, {r0, r2, r4, r6, r7, r9, sl}^
    1538:	00480000 	subeq	r0, r8, r0
    153c:	9c010000 	stcls	0, cr0, [r1], {-0}
    1540:	000005f7 	strdeq	r0, [r0], -r7
    1544:	00009015 	andeq	r9, r0, r5, lsl r0
    1548:	00060700 	andeq	r0, r6, r0, lsl #14
    154c:	f0030500 			; <UNDEFINED> instruction: 0xf0030500
    1550:	270000a5 	strcs	r0, [r0, -r5, lsr #1]
    1554:	0000060c 	andeq	r0, r0, ip, lsl #12
    1558:	0000897c 	andeq	r8, r0, ip, ror r9
    155c:	00897c02 	addeq	r7, r9, r2, lsl #24
    1560:	00000800 	andeq	r0, r0, r0, lsl #16
    1564:	09db0100 	ldmibeq	fp, {r8}^
    1568:	000005a7 	andeq	r0, r0, r7, lsr #11
    156c:	00061d1f 	andeq	r1, r6, pc, lsl sp
    1570:	0008fd00 	andeq	pc, r8, r0, lsl #26
    1574:	0008fb00 	andeq	pc, r8, r0, lsl #22
    1578:	89842000 	stmibhi	r4, {sp}
    157c:	062a0000 	strteq	r0, [sl], -r0
    1580:	01170000 	tsteq	r7, r0
    1584:	00310150 	eorseq	r0, r1, r0, asr r1
    1588:	89941600 	ldmibhi	r4, {r9, sl, ip}
    158c:	0d070000 	stceq	0, cr0, [r7, #-0]
    1590:	05be0000 	ldreq	r0, [lr, #0]!
    1594:	01170000 	tsteq	r7, r0
    1598:	f0030550 			; <UNDEFINED> instruction: 0xf0030550
    159c:	000000a4 	andeq	r0, r0, r4, lsr #1
    15a0:	0089ac16 	addeq	sl, r9, r6, lsl ip
    15a4:	000d0700 	andeq	r0, sp, r0, lsl #14
    15a8:	0005ed00 	andeq	lr, r5, r0, lsl #26
    15ac:	50011700 	andpl	r1, r1, r0, lsl #14
    15b0:	a4c40305 	strbge	r0, [r4], #773	; 0x305
    15b4:	01170000 	tsteq	r7, r0
    15b8:	c8030551 	stmdagt	r3, {r0, r4, r6, r8, sl}
    15bc:	170000a2 	strne	r0, [r0, -r2, lsr #1]
    15c0:	03055201 	movweq	r5, #20993	; 0x5201
    15c4:	0000a5f0 	strdeq	sl, [r0], -r0
    15c8:	02530117 	subseq	r0, r3, #-1073741819	; 0xc0000005
    15cc:	1800dc08 	stmdane	r0, {r3, sl, fp, ip, lr, pc}
    15d0:	000089b0 			; <UNDEFINED> instruction: 0x000089b0
    15d4:	00000d13 	andeq	r0, r0, r3, lsl sp
    15d8:	00cc1000 	sbceq	r1, ip, r0
    15dc:	06070000 	streq	r0, [r7], -r0
    15e0:	2c110000 	ldccs	0, cr0, [r1], {-0}
    15e4:	0d000000 	stceq	0, cr0, [r0, #-0]
    15e8:	05f70900 	ldrbeq	r0, [r7, #2304]!	; 0x900
    15ec:	b8290000 	stmdalt	r9!, {}	; <UNPREDICTABLE>
    15f0:	01000003 	tsteq	r0, r3
    15f4:	002c0ace 	eoreq	r0, ip, lr, asr #21
    15f8:	2a010000 	bcs	41600 <__bss_end__+0x36828>
    15fc:	2a000006 	bcs	161c <__code_start__-0x69e4>
    1600:	00000487 	andeq	r0, r0, r7, lsl #9
    1604:	251cce01 	ldrcs	ip, [ip, #-3585]	; 0xfffff1ff
    1608:	00000000 	andeq	r0, r0, r0
    160c:	0004622b 	andeq	r6, r4, fp, lsr #4
    1610:	11a50100 			; <UNDEFINED> instruction: 0x11a50100
    1614:	0000002c 	andeq	r0, r0, ip, lsr #32
    1618:	000087b8 			; <UNDEFINED> instruction: 0x000087b8
    161c:	00000110 	andeq	r0, r0, r0, lsl r1
    1620:	07c79c01 	strbeq	r9, [r7, r1, lsl #24]
    1624:	872c0000 	strhi	r0, [ip, -r0]!
    1628:	01000004 	tsteq	r0, r4
    162c:	002520a5 	eoreq	r2, r5, r5, lsr #1
    1630:	09150000 	ldmdbeq	r5, {}	; <UNPREDICTABLE>
    1634:	09110000 	ldmdbeq	r1, {}	; <UNPREDICTABLE>
    1638:	93260000 			; <UNDEFINED> instruction: 0x93260000
    163c:	01000003 	tsteq	r0, r3
    1640:	002c0ea7 	eoreq	r0, ip, r7, lsr #29
    1644:	09390000 	ldmdbeq	r9!, {}	; <UNPREDICTABLE>
    1648:	09330000 	ldmdbeq	r3!, {}	; <UNPREDICTABLE>
    164c:	cc260000 	stcgt	0, cr0, [r6], #-0
    1650:	01000003 	tsteq	r0, r3
    1654:	002c1ba7 	eoreq	r1, ip, r7, lsr #23
    1658:	096a0000 	stmdbeq	sl!, {}^	; <UNPREDICTABLE>
    165c:	09640000 	stmdbeq	r4!, {}^	; <UNPREDICTABLE>
    1660:	c6260000 	strtgt	r0, [r6], -r0
    1664:	01000003 	tsteq	r0, r3
    1668:	002c27a7 	eoreq	r2, ip, r7, lsr #15
    166c:	099b0000 	ldmibeq	fp, {}	; <UNPREDICTABLE>
    1670:	09950000 	ldmibeq	r5, {}	; <UNPREDICTABLE>
    1674:	582d0000 	stmdapl	sp!, {}	; <UNPREDICTABLE>
    1678:	09000001 	stmdbeq	r0, {r0}
    167c:	2e000007 	cdpcs	0, 0, cr0, cr0, cr7, {0}
    1680:	ac010068 	stcge	0, cr0, [r1], {104}	; 0x68
    1684:	00046811 	andeq	r6, r4, r1, lsl r8
    1688:	0009d800 	andeq	sp, r9, r0, lsl #16
    168c:	0009c600 	andeq	ip, r9, r0, lsl #12
    1690:	87d81800 	ldrbhi	r1, [r8, r0, lsl #16]
    1694:	0d2e0000 	stceq	0, cr0, [lr, #-0]
    1698:	0c160000 	ldceq	0, cr0, [r6], {-0}
    169c:	07000088 	streq	r0, [r0, -r8, lsl #1]
    16a0:	d800000d 	stmdale	r0, {r0, r2, r3}
    16a4:	17000006 	strne	r0, [r0, -r6]
    16a8:	79025001 	stmdbvc	r2, {r0, ip, lr}
    16ac:	51011700 	tstpl	r1, r0, lsl #14
    16b0:	17007502 	strne	r7, [r0, -r2, lsl #10]
    16b4:	74025201 	strvc	r5, [r2], #-513	; 0xfffffdff
    16b8:	14160000 	ldrne	r0, [r6], #-0
    16bc:	46000088 	strmi	r0, [r0], -r8, lsl #1
    16c0:	ec00000d 	stc	0, cr0, [r0], {13}
    16c4:	17000006 	strne	r0, [r0, -r6]
    16c8:	74025001 	strvc	r5, [r2], #-1
    16cc:	48200000 	stmdami	r0!, {}	; <UNPREDICTABLE>
    16d0:	07000088 	streq	r0, [r0, -r8, lsl #1]
    16d4:	1700000d 	strne	r0, [r0, -sp]
    16d8:	7a025001 	bvc	956e4 <__bss_end__+0x8a90c>
    16dc:	51011700 	tstpl	r1, r0, lsl #14
    16e0:	17007502 	strne	r7, [r0, -r2, lsl #10]
    16e4:	74025201 	strvc	r5, [r2], #-513	; 0xfffffdff
    16e8:	16000000 	strne	r0, [r0], -r0
    16ec:	000087c8 	andeq	r8, r0, r8, asr #15
    16f0:	00000d07 	andeq	r0, r0, r7, lsl #26
    16f4:	00000720 	andeq	r0, r0, r0, lsr #14
    16f8:	05500117 	ldrbeq	r0, [r0, #-279]	; 0xfffffee9
    16fc:	00a36003 	adceq	r6, r3, r3
    1700:	d0160000 	andsle	r0, r6, r0
    1704:	07000087 	streq	r0, [r0, -r7, lsl #1]
    1708:	3700000d 	strcc	r0, [r0, -sp]
    170c:	17000007 	strne	r0, [r0, -r7]
    1710:	03055001 	movweq	r5, #20481	; 0x5001
    1714:	0000a39c 	muleq	r0, ip, r3
    1718:	87d41800 	ldrbhi	r1, [r4, r0, lsl #16]
    171c:	07c70000 	strbeq	r0, [r7, r0]
    1720:	58160000 	ldmdapl	r6, {}	; <UNPREDICTABLE>
    1724:	07000088 	streq	r0, [r0, -r8, lsl #1]
    1728:	5d00000d 	stcpl	0, cr0, [r0, #-52]	; 0xffffffcc
    172c:	17000007 	strne	r0, [r0, -r7]
    1730:	03055001 	movweq	r5, #20481	; 0x5001
    1734:	0000a3e0 	andeq	sl, r0, r0, ror #7
    1738:	02510117 	subseq	r0, r1, #-1073741819	; 0xc0000005
    173c:	16000075 			; <UNDEFINED> instruction: 0x16000075
    1740:	00008870 	andeq	r8, r0, r0, ror r8
    1744:	00000d07 	andeq	r0, r0, r7, lsl #26
    1748:	00000780 	andeq	r0, r0, r0, lsl #15
    174c:	05500117 	ldrbeq	r0, [r0, #-279]	; 0xfffffee9
    1750:	00a42803 	adceq	r2, r4, r3, lsl #16
    1754:	51011700 	tstpl	r1, r0, lsl #14
    1758:	17007602 	strne	r7, [r0, -r2, lsl #12]
    175c:	77025201 	strvc	r5, [r2, -r1, lsl #4]
    1760:	80160000 	andshi	r0, r6, r0
    1764:	07000088 	streq	r0, [r0, -r8, lsl #1]
    1768:	9c00000d 	stcls	0, cr0, [r0], {13}
    176c:	17000007 	strne	r0, [r0, -r7]
    1770:	03055001 	movweq	r5, #20481	; 0x5001
    1774:	0000a3e0 	andeq	sl, r0, r0, ror #7
    1778:	01510117 	cmpeq	r1, r7, lsl r1
    177c:	90160030 	andsls	r0, r6, r0, lsr r0
    1780:	07000088 	streq	r0, [r0, -r8, lsl #1]
    1784:	b300000d 	movwlt	r0, #13
    1788:	17000007 	strne	r0, [r0, -r7]
    178c:	03055001 	movweq	r5, #20481	; 0x5001
    1790:	0000a400 	andeq	sl, r0, r0, lsl #8
    1794:	88982000 	ldmhi	r8, {sp}
    1798:	0d070000 	stceq	0, cr0, [r7, #-0]
    179c:	01170000 	tsteq	r7, r0
    17a0:	58030550 	stmdapl	r3, {r4, r6, r8, sl}
    17a4:	000000a4 	andeq	r0, r0, r4, lsr #1
    17a8:	036d2f00 	cmneq	sp, #0, 30
    17ac:	79010000 	stmdbvc	r1, {}	; <UNPREDICTABLE>
    17b0:	0087100d 	addeq	r1, r7, sp
    17b4:	0000a800 	andeq	sl, r0, r0, lsl #16
    17b8:	d39c0100 	orrsle	r0, ip, #0
    17bc:	13000008 	movwne	r0, #8
    17c0:	000003de 	ldrdeq	r0, [r0], -lr
    17c4:	d30e8501 	movwle	r8, #58625	; 0xe501
    17c8:	03000008 	movweq	r0, #8
    17cc:	307fb891 			; <UNDEFINED> instruction: 0x307fb891
    17d0:	00000363 	andeq	r0, r0, r3, ror #6
    17d4:	e30f9601 	movw	r9, #62977	; 0xf601
    17d8:	00000008 	andeq	r0, r0, r8
    17dc:	07080000 	streq	r0, [r8, -r0]
    17e0:	00000385 	andeq	r0, r0, r5, lsl #7
    17e4:	75159b01 	ldrvc	r9, [r5, #-2817]	; 0xfffff4ff
    17e8:	07000000 	streq	r0, [r0, -r0]
    17ec:	00000437 	andeq	r0, r0, r7, lsr r4
    17f0:	75249b01 	strvc	r9, [r4, #-2817]!	; 0xfffff4ff
    17f4:	07000000 	streq	r0, [r0, -r0]
    17f8:	0000046d 	andeq	r0, r0, sp, ror #8
    17fc:	75159e01 	ldrvc	r9, [r5, #-3585]	; 0xfffff1ff
    1800:	07000000 	streq	r0, [r0, -r0]
    1804:	000003f4 	strdeq	r0, [r0], -r4
    1808:	75259e01 	strvc	r9, [r5, #-3585]!	; 0xfffff1ff
    180c:	31000000 	mrscc	r0, (UNDEF: 0)
    1810:	00008718 	andeq	r8, r0, r8, lsl r7
    1814:	00000028 	andeq	r0, r0, r8, lsr #32
    1818:	0000085f 	andeq	r0, r0, pc, asr r8
    181c:	0100682e 	tsteq	r0, lr, lsr #16
    1820:	0468117e 	strbteq	r1, [r8], #-382	; 0xfffffe82
    1824:	0a470000 	beq	11c182c <__bss_end__+0x11b6a54>
    1828:	0a430000 	beq	10c1830 <__bss_end__+0x10b6a58>
    182c:	1c180000 	ldcne	0, cr0, [r8], {-0}
    1830:	2e000087 	cdpcs	0, 0, cr0, cr0, cr7, {4}
    1834:	1800000d 	stmdane	r0, {r0, r2, r3}
    1838:	00008738 	andeq	r8, r0, r8, lsr r7
    183c:	00000d46 	andeq	r0, r0, r6, asr #26
    1840:	87481600 	strbhi	r1, [r8, -r0, lsl #12]
    1844:	0d520000 	ldcleq	0, cr0, [r2, #-0]
    1848:	08730000 	ldmdaeq	r3!, {}^	; <UNPREDICTABLE>
    184c:	01170000 	tsteq	r7, r0
    1850:	007d0250 	rsbseq	r0, sp, r0, asr r2
    1854:	87681600 	strbhi	r1, [r8, -r0, lsl #12]!
    1858:	08e90000 	stmiaeq	r9!, {}^	; <UNPREDICTABLE>
    185c:	088d0000 	stmeq	sp, {}	; <UNPREDICTABLE>
    1860:	01170000 	tsteq	r7, r0
    1864:	007d0250 	rsbseq	r0, sp, r0, asr r2
    1868:	02510117 	subseq	r0, r1, #-1073741819	; 0xc0000005
    186c:	16006891 			; <UNDEFINED> instruction: 0x16006891
    1870:	00008778 	andeq	r8, r0, r8, ror r7
    1874:	00000d07 	andeq	r0, r0, r7, lsl #26
    1878:	000008ab 	andeq	r0, r0, fp, lsr #17
    187c:	05500117 	ldrbeq	r0, [r0, #-279]	; 0xfffffee9
    1880:	00a34403 	adceq	r4, r3, r3, lsl #8
    1884:	52011700 	andpl	r1, r1, #0, 14
    1888:	24474003 	strbcs	r4, [r7], #-3
    188c:	87841600 	strhi	r1, [r4, r0, lsl #12]
    1890:	08e90000 	stmiaeq	r9!, {}^	; <UNPREDICTABLE>
    1894:	08c00000 	stmiaeq	r0, {}^	; <UNPREDICTABLE>
    1898:	01170000 	tsteq	r7, r0
    189c:	47400351 	smlsldmi	r0, r0, r1, r3	; <UNPREDICTABLE>
    18a0:	90180024 	andsls	r0, r8, r4, lsr #32
    18a4:	e9000087 	stmdb	r0, {r0, r1, r2, r7}
    18a8:	18000008 	stmdane	r0, {r3}
    18ac:	0000879c 	muleq	r0, ip, r7
    18b0:	000008e9 	andeq	r0, r0, r9, ror #17
    18b4:	00751000 	rsbseq	r1, r5, r0
    18b8:	08e30000 	stmiaeq	r3!, {}^	; <UNPREDICTABLE>
    18bc:	2c110000 	ldccs	0, cr0, [r1], {-0}
    18c0:	0f000000 	svceq	0x00000000
    18c4:	75040800 	strvc	r0, [r4, #-2048]	; 0xfffff800
    18c8:	2f000000 	svccs	0x00000000
    18cc:	000003b3 			; <UNDEFINED> instruction: 0x000003b3
    18d0:	840d5001 	strhi	r5, [sp], #-1
    18d4:	8c000085 	stchi	0, cr0, [r0], {133}	; 0x85
    18d8:	01000001 	tsteq	r0, r1
    18dc:	000b309c 	muleq	fp, ip, r0
    18e0:	00703200 	rsbseq	r3, r0, r0, lsl #4
    18e4:	e31c5001 	tst	ip, #1, 0
    18e8:	77000008 	strvc	r0, [r0, -r8]
    18ec:	6500000a 	strvs	r0, [r0, #-10]
    18f0:	3200000a 	andcc	r0, r0, #10, 0
    18f4:	50010065 	andpl	r0, r1, r5, rrx
    18f8:	0008e329 	andeq	lr, r8, r9, lsr #6
    18fc:	000af400 	andeq	pc, sl, r0, lsl #8
    1900:	000ae800 	andeq	lr, sl, r0, lsl #16
    1904:	00901500 	addseq	r1, r0, r0, lsl #10
    1908:	0b400000 	bleq	1001910 <__bss_end__+0xff6b38>
    190c:	03050000 	movweq	r0, #20480	; 0x5000
    1910:	0000a5e0 	andeq	sl, r0, r0, ror #11
    1914:	0000d02d 	andeq	sp, r0, sp, lsr #32
    1918:	000a6900 	andeq	r6, sl, r0, lsl #18
    191c:	00692e00 	rsbeq	r2, r9, r0, lsl #28
    1920:	e3145801 	tst	r4, #65536	; 0x10000
    1924:	51000008 	tstpl	r0, r8
    1928:	4700000b 	strmi	r0, [r0, -fp]
    192c:	3300000b 	movwcc	r0, #11
    1930:	000000e8 	andeq	r0, r0, r8, ror #1
    1934:	0100622e 	tsteq	r0, lr, lsr #4
    1938:	0468105a 	strbteq	r1, [r8], #-90	; 0xffffffa6
    193c:	0b960000 	bleq	fe581944 <__bss_end__+0xfe576b6c>
    1940:	0b900000 	bleq	fe401948 <__bss_end__+0xfe3f6b70>
    1944:	382d0000 	stmdacc	sp!, {}	; <UNPREDICTABLE>
    1948:	09000001 	stmdbeq	r0, {r0}
    194c:	2e00000a 	cdpcs	0, 0, cr0, cr0, cr10, {0}
    1950:	00707865 	rsbseq	r7, r0, r5, ror #16
    1954:	75165d01 	ldrvc	r5, [r6, #-3329]	; 0xfffff2ff
    1958:	c3000000 	movwgt	r0, #0
    195c:	bf00000b 	svclt	0x0000000b
    1960:	2600000b 	strcs	r0, [r0], -fp
    1964:	000003af 	andeq	r0, r0, pc, lsr #7
    1968:	62165e01 	andsvs	r5, r6, #1, 28
    196c:	e5000000 	str	r0, [r0, #-0]
    1970:	e100000b 	tst	r0, fp
    1974:	1600000b 	strne	r0, [r0], -fp
    1978:	0000862c 	andeq	r8, r0, ip, lsr #12
    197c:	00000d07 	andeq	r0, r0, r7, lsl #26
    1980:	000009ac 	andeq	r0, r0, ip, lsr #19
    1984:	05500117 	ldrbeq	r0, [r0, #-279]	; 0xfffffee9
    1988:	00a33403 	adceq	r3, r3, r3, lsl #8
    198c:	74160000 	ldrvc	r0, [r6], #-0
    1990:	5e000086 	cdppl	0, 0, cr0, cr0, cr6, {4}
    1994:	c000000d 	andgt	r0, r0, sp
    1998:	17000009 	strne	r0, [r0, -r9]
    199c:	75025001 	strvc	r5, [r2, #-1]
    19a0:	8c160000 	ldchi	0, cr0, [r6], {-0}
    19a4:	07000086 	streq	r0, [r0, -r6, lsl #1]
    19a8:	e100000d 	tst	r0, sp
    19ac:	17000009 	strne	r0, [r0, -r9]
    19b0:	7b025001 	blvc	959bc <__bss_end__+0x8abe4>
    19b4:	52011700 	andpl	r1, r1, #0, 14
    19b8:	17007702 	strne	r7, [r0, -r2, lsl #14]
    19bc:	02007d02 	andeq	r7, r0, #128	; 0x80
    19c0:	16000079 			; <UNDEFINED> instruction: 0x16000079
    19c4:	000086c0 	andeq	r8, r0, r0, asr #13
    19c8:	00000d07 	andeq	r0, r0, r7, lsl #26
    19cc:	000009f8 	strdeq	r0, [r0], -r8
    19d0:	05500117 	ldrbeq	r0, [r0, #-279]	; 0xfffffee9
    19d4:	00a32403 	adceq	r2, r3, r3, lsl #8
    19d8:	dc200000 	stcle	0, cr0, [r0], #-0
    19dc:	e9000086 	stmdb	r0, {r1, r2, r7}
    19e0:	17000008 	strne	r0, [r0, -r8]
    19e4:	75025001 	strvc	r5, [r2, #-1]
    19e8:	34000004 	strcc	r0, [r0], #-4
    19ec:	00000b45 	andeq	r0, r0, r5, asr #22
    19f0:	0000863c 	andeq	r8, r0, ip, lsr r6
    19f4:	00010800 	andeq	r0, r1, r0, lsl #16
    19f8:	145a0100 	ldrbne	r0, [sl], #-256	; 0xffffff00
    19fc:	000b561f 	andeq	r5, fp, pc, lsl r6
    1a00:	000c0500 	andeq	r0, ip, r0, lsl #10
    1a04:	000c0300 	andeq	r0, ip, r0, lsl #6
    1a08:	01083300 	mrseq	r3, (UNDEF: 56)
    1a0c:	621c0000 	andsvs	r0, ip, #0, 0
    1a10:	1b00000b 	blne	1a44 <__code_start__-0x65bc>
    1a14:	1900000c 	stmdbne	r0, {r2, r3}
    1a18:	3500000c 	strcc	r0, [r0, #-12]
    1a1c:	00000b6d 	andeq	r0, r0, sp, ror #22
    1a20:	00008640 	andeq	r8, r0, r0, asr #12
    1a24:	00012001 	andeq	r2, r1, r1
    1a28:	0a400100 	beq	1001e30 <__bss_end__+0xff7058>
    1a2c:	00000a5c 	andeq	r0, r0, ip, asr sl
    1a30:	000b7e1f 	andeq	r7, fp, pc, lsl lr
    1a34:	000c3100 	andeq	r3, ip, r0, lsl #2
    1a38:	000c2f00 	andeq	r2, ip, r0, lsl #30
    1a3c:	5c180000 	ldcpl	0, cr0, [r8], {-0}
    1a40:	6a000086 	bvs	1c60 <__code_start__-0x63a0>
    1a44:	0000000d 	andeq	r0, r0, sp
    1a48:	16000000 	strne	r0, [r0], -r0
    1a4c:	000085e0 	andeq	r8, r0, r0, ror #11
    1a50:	00000d07 	andeq	r0, r0, r7, lsl #26
    1a54:	00000aa2 	andeq	r0, r0, r2, lsr #21
    1a58:	05500117 	ldrbeq	r0, [r0, #-279]	; 0xfffffee9
    1a5c:	00a12803 	adceq	r2, r1, r3, lsl #16
    1a60:	51011700 	tstpl	r1, r0, lsl #14
    1a64:	a2c80305 	sbcge	r0, r8, #335544320	; 0x14000000
    1a68:	01170000 	tsteq	r7, r0
    1a6c:	e0030552 	and	r0, r3, r2, asr r5
    1a70:	170000a5 	strne	r0, [r0, -r5, lsr #1]
    1a74:	08025301 	stmdaeq	r2, {r0, r8, r9, ip, lr}
    1a78:	7d021752 	stcvc	7, cr1, [r2, #-328]	; 0xfffffeb8
    1a7c:	d0030500 	andle	r0, r3, r0, lsl #10
    1a80:	000000a2 	andeq	r0, r0, r2, lsr #1
    1a84:	0085e418 	addeq	lr, r5, r8, lsl r4
    1a88:	000d1300 	andeq	r1, sp, r0, lsl #6
    1a8c:	86001600 	strhi	r1, [r0], -r0, lsl #12
    1a90:	0d070000 	stceq	0, cr0, [r7, #-0]
    1a94:	0ae40000 	beq	ff901a9c <__bss_end__+0xff8f6cc4>
    1a98:	01170000 	tsteq	r7, r0
    1a9c:	28030550 	stmdacs	r3, {r4, r6, r8, sl}
    1aa0:	170000a1 	strne	r0, [r0, -r1, lsr #1]
    1aa4:	03055101 	movweq	r5, #20737	; 0x5101
    1aa8:	0000a2c8 	andeq	sl, r0, r8, asr #5
    1aac:	05520117 	ldrbeq	r0, [r2, #-279]	; 0xfffffee9
    1ab0:	00a5e003 	adceq	lr, r5, r3
    1ab4:	53011700 	movwpl	r1, #5888	; 0x1700
    1ab8:	17550802 	ldrbne	r0, [r5, -r2, lsl #16]
    1abc:	05007d02 	streq	r7, [r0, #-3330]	; 0xfffff2fe
    1ac0:	00a2d803 	adceq	sp, r2, r3, lsl #16
    1ac4:	04180000 	ldreq	r0, [r8], #-0
    1ac8:	13000086 	movwne	r0, #134	; 0x86
    1acc:	1600000d 	strne	r0, [r0], -sp
    1ad0:	00008620 	andeq	r8, r0, r0, lsr #12
    1ad4:	00000d07 	andeq	r0, r0, r7, lsl #26
    1ad8:	00000b26 	andeq	r0, r0, r6, lsr #22
    1adc:	05500117 	ldrbeq	r0, [r0, #-279]	; 0xfffffee9
    1ae0:	00a12803 	adceq	r2, r1, r3, lsl #16
    1ae4:	51011700 	tstpl	r1, r0, lsl #14
    1ae8:	a2c80305 	sbcge	r0, r8, #335544320	; 0x14000000
    1aec:	01170000 	tsteq	r7, r0
    1af0:	e0030552 	and	r0, r3, r2, asr r5
    1af4:	170000a5 	strne	r0, [r0, -r5, lsr #1]
    1af8:	08025301 	stmdaeq	r2, {r0, r8, r9, ip, lr}
    1afc:	7d021756 	stcvc	7, cr1, [r2, #-344]	; 0xfffffea8
    1b00:	e8030500 	stmda	r3, {r8, sl}
    1b04:	000000a2 	andeq	r0, r0, r2, lsr #1
    1b08:	00862418 	addeq	r2, r6, r8, lsl r4
    1b0c:	000d1300 	andeq	r1, sp, r0, lsl #6
    1b10:	cc100000 	ldcgt	0, cr0, [r0], {-0}
    1b14:	40000000 	andmi	r0, r0, r0
    1b18:	1100000b 	tstne	r0, fp
    1b1c:	0000002c 	andeq	r0, r0, ip, lsr #32
    1b20:	30090004 	andcc	r0, r9, r4
    1b24:	2100000b 	tstcs	r0, fp
    1b28:	00000401 	andeq	r0, r0, r1, lsl #8
    1b2c:	680f3c01 	stmdavs	pc, {r0, sl, fp, ip, sp}	; <UNPREDICTABLE>
    1b30:	01000004 	tsteq	r0, r4
    1b34:	00000b6d 	andeq	r0, r0, sp, ror #22
    1b38:	000a512a 	andeq	r5, sl, sl, lsr #2
    1b3c:	1f3c0100 	svcne	0x003c0100
    1b40:	00000075 	andeq	r0, r0, r5, ror r0
    1b44:	01007024 	tsteq	r0, r4, lsr #32
    1b48:	01e00b3e 	mvneq	r0, lr, lsr fp
    1b4c:	21000000 	mrscs	r0, (UNDEF: 0)
    1b50:	0000040f 	andeq	r0, r0, pc, lsl #8
    1b54:	250c2b01 	strcs	r2, [ip, #-2817]	; 0xfffff4ff
    1b58:	01000000 	mrseq	r0, (UNDEF: 0)
    1b5c:	00000b89 	andeq	r0, r0, r9, lsl #23
    1b60:	01007036 	tsteq	r0, r6, lsr r0
    1b64:	01e01a2b 	mvneq	r1, fp, lsr #20
    1b68:	25000000 	strcs	r0, [r0, #-0]
    1b6c:	00000349 	andeq	r0, r0, r9, asr #6
    1b70:	e0071301 	and	r1, r7, r1, lsl #6
    1b74:	c8000001 	stmdagt	r0, {r0}
    1b78:	a4000088 	strge	r0, [r0], #-136	; 0xffffff78
    1b7c:	01000000 	mrseq	r0, (UNDEF: 0)
    1b80:	000c9f9c 	muleq	ip, ip, pc	; <UNPREDICTABLE>
    1b84:	03ea2c00 	mvneq	r2, #0, 24
    1b88:	13010000 	movwne	r0, #4096	; 0x1000
    1b8c:	00004111 	andeq	r4, r0, r1, lsl r1
    1b90:	000c5100 	andeq	r5, ip, r0, lsl #2
    1b94:	000c4500 	andeq	r4, ip, r0, lsl #10
    1b98:	039b1300 	orrseq	r1, fp, #0, 6
    1b9c:	15010000 	strne	r0, [r1, #-0]
    1ba0:	00002510 	andeq	r2, r0, r0, lsl r5
    1ba4:	d0030500 	andle	r0, r3, r0, lsl #10
    1ba8:	150000a9 	strne	r0, [r0, #-169]	; 0xffffff57
    1bac:	00000090 	muleq	r0, r0, r0
    1bb0:	00000b40 	andeq	r0, r0, r0, asr #22
    1bb4:	a5e80305 	strbge	r0, [r8, #773]!	; 0x305
    1bb8:	e8310000 	ldmda	r1!, {}	; <UNPREDICTABLE>
    1bbc:	24000088 	strcs	r0, [r0], #-136	; 0xffffff78
    1bc0:	12000000 	andne	r0, r0, #0, 0
    1bc4:	2600000c 	strcs	r0, [r0], -ip
    1bc8:	00000417 	andeq	r0, r0, r7, lsl r4
    1bcc:	2c121c01 	ldccs	12, cr1, [r2], {1}
    1bd0:	9d000000 	stcls	0, cr0, [r0, #-0]
    1bd4:	9b00000c 	blls	1c0c <__code_start__-0x63f4>
    1bd8:	2000000c 	andcs	r0, r0, ip
    1bdc:	00008904 	andeq	r8, r0, r4, lsl #18
    1be0:	00000d76 	andeq	r0, r0, r6, ror sp
    1be4:	03500117 	cmpeq	r0, #-1073741819	; 0xc0000005
    1be8:	17244040 	strne	r4, [r4, -r0, asr #32]!
    1bec:	40035101 	andmi	r5, r3, r1, lsl #2
    1bf0:	00002440 	andeq	r2, r0, r0, asr #8
    1bf4:	00891416 	addeq	r1, r9, r6, lsl r4
    1bf8:	000d8200 	andeq	r8, sp, r0, lsl #4
    1bfc:	000c2600 	andeq	r2, ip, r0, lsl #12
    1c00:	50011700 	andpl	r1, r1, r0, lsl #14
    1c04:	00007402 	andeq	r7, r0, r2, lsl #8
    1c08:	00893816 	addeq	r3, r9, r6, lsl r8
    1c0c:	000d0700 	andeq	r0, sp, r0, lsl #14
    1c10:	000c5e00 	andeq	r5, ip, r0, lsl #28
    1c14:	50011700 	andpl	r1, r1, r0, lsl #14
    1c18:	a1280305 			; <UNDEFINED> instruction: 0xa1280305
    1c1c:	01170000 	tsteq	r7, r0
    1c20:	c8030551 	stmdagt	r3, {r0, r4, r6, r8, sl}
    1c24:	170000a2 	strne	r0, [r0, -r2, lsr #1]
    1c28:	03055201 	movweq	r5, #20993	; 0x5201
    1c2c:	0000a5e8 	andeq	sl, r0, r8, ror #11
    1c30:	01530117 	cmpeq	r3, r7, lsl r1
    1c34:	7d021747 	stcvc	7, cr1, [r2, #-284]	; 0xfffffee4
    1c38:	94030500 	strls	r0, [r3], #-1280	; 0xfffffb00
    1c3c:	000000a4 	andeq	r0, r0, r4, lsr #1
    1c40:	00893c18 	addeq	r3, r9, r8, lsl ip
    1c44:	000d1300 	andeq	r1, sp, r0, lsl #6
    1c48:	89501600 	ldmdbhi	r0, {r9, sl, ip}^
    1c4c:	0d070000 	stceq	0, cr0, [r7, #-0]
    1c50:	0c950000 	ldceq	0, cr0, [r5], {0}
    1c54:	01170000 	tsteq	r7, r0
    1c58:	a4030550 	strge	r0, [r3], #-1360	; 0xfffffab0
    1c5c:	170000a4 	strne	r0, [r0, -r4, lsr #1]
    1c60:	03055101 	movweq	r5, #20737	; 0x5101
    1c64:	0000a2c8 	andeq	sl, r0, r8, asr #5
    1c68:	05520117 	ldrbeq	r0, [r2, #-279]	; 0xfffffee9
    1c6c:	00a5e803 	adceq	lr, r5, r3, lsl #16
    1c70:	53011700 	movwpl	r1, #5888	; 0x1700
    1c74:	18004901 	stmdane	r0, {r0, r8, fp, lr}
    1c78:	00008954 	andeq	r8, r0, r4, asr r9
    1c7c:	00000d13 	andeq	r0, r0, r3, lsl sp
    1c80:	02372100 	eorseq	r2, r7, #0
    1c84:	0c020000 	stceq	0, cr0, [r2], {-0}
    1c88:	0001140b 	andeq	r1, r1, fp, lsl #8
    1c8c:	0cd50300 	ldcleq	3, cr0, [r5], {0}
    1c90:	3f2a0000 	svccc	0x002a0000
    1c94:	02000000 	andeq	r0, r0, #0, 0
    1c98:	00bf220c 	adcseq	r2, pc, ip, lsl #4
    1c9c:	4c2a0000 	stcmi	0, cr0, [sl], #-0
    1ca0:	02000000 	andeq	r0, r0, #0, 0
    1ca4:	00bf340c 	adcseq	r3, pc, ip, lsl #8
    1ca8:	ce2a0000 	cdpgt	0, 2, cr0, cr10, cr0, {0}
    1cac:	02000001 	andeq	r0, r0, #1, 0
    1cb0:	002c430c 	eoreq	r4, ip, ip, lsl #6
    1cb4:	37000000 	strcc	r0, [r0, -r0]
    1cb8:	0000060c 	andeq	r0, r0, ip, lsl #12
    1cbc:	0000896c 	andeq	r8, r0, ip, ror #18
    1cc0:	0000000c 	andeq	r0, r0, ip
    1cc4:	0d079c01 	stceq	12, cr9, [r7, #-4]
    1cc8:	1d1f0000 	ldcne	0, cr0, [pc, #-0]	; 1cd0 <__code_start__-0x6330>
    1ccc:	b7000006 	strlt	r0, [r0, -r6]
    1cd0:	b300000c 	movwlt	r0, #12
    1cd4:	2000000c 	andcs	r0, r0, ip
    1cd8:	00008974 	andeq	r8, r0, r4, ror r9
    1cdc:	0000062a 	andeq	r0, r0, sl, lsr #12
    1ce0:	03500117 	cmpeq	r0, #-1073741819	; 0xc0000005
    1ce4:	005001f3 	ldrsheq	r0, [r0], #-19	; 0xffffffed
    1ce8:	05943800 	ldreq	r3, [r4, #2048]	; 0x800
    1cec:	05940000 	ldreq	r0, [r4]
    1cf0:	28040000 	stmdacs	r4, {}	; <UNPREDICTABLE>
    1cf4:	00a73806 	adceq	r3, r7, r6, lsl #16
    1cf8:	00a70000 	adceq	r0, r7, r0
    1cfc:	6e040000 	cdpvs	0, 0, cr0, cr4, cr0, {0}
    1d00:	9e0d3906 	vmlals.f16	s6, s26, s12	; <UNPREDICTABLE>
    1d04:	6577730b 	ldrbvs	r7, [r7, #-779]!	; 0xfffffcf5
    1d08:	665f7065 	ldrbvs	r7, [pc], -r5, rrx
    1d0c:	00656572 	rsbeq	r6, r5, r2, ror r5
    1d10:	00028a38 	andeq	r8, r2, r8, lsr sl
    1d14:	00028a00 	andeq	r8, r2, r0, lsl #20
    1d18:	08280500 	stmdaeq	r8!, {r8, sl}
    1d1c:	00029738 	andeq	r9, r2, r8, lsr r7
    1d20:	00029700 	andeq	r9, r2, r0, lsl #14
    1d24:	074a0500 	strbeq	r0, [sl, -r0, lsl #10]
    1d28:	0002c738 	andeq	ip, r2, r8, lsr r7
    1d2c:	0002c700 	andeq	ip, r2, r0, lsl #14
    1d30:	082b0500 	stmdaeq	fp!, {r8, sl}
    1d34:	0003d938 	andeq	sp, r3, r8, lsr r9
    1d38:	0003d900 	andeq	sp, r3, r0, lsl #18
    1d3c:	06760100 	ldrbteq	r0, [r6], -r0, lsl #2
    1d40:	0002e538 	andeq	lr, r2, r8, lsr r5
    1d44:	0002e500 	andeq	lr, r2, r0, lsl #10
    1d48:	07320500 	ldreq	r0, [r2, -r0, lsl #10]!
    1d4c:	0002b538 	andeq	fp, r2, r8, lsr r5
    1d50:	0002b500 	andeq	fp, r2, r0, lsl #10
    1d54:	08450500 	stmdaeq	r5, {r8, sl}^
    1d58:	00044b38 	andeq	r4, r4, r8, lsr fp
    1d5c:	00044b00 	andeq	r4, r4, r0, lsl #22
    1d60:	06820400 	streq	r0, [r2], r0, lsl #8
    1d64:	00044338 	andeq	r4, r4, r8, lsr r3
    1d68:	00044300 	andeq	r4, r4, r0, lsl #6
    1d6c:	077b0400 	ldrbeq	r0, [fp, -r0, lsl #8]!
    1d70:	00014000 	andeq	r4, r1, r0
    1d74:	b1000400 	tstlt	r0, r0, lsl #8
    1d78:	0400000a 	streq	r0, [r0], #-10
    1d7c:	0004b201 	andeq	fp, r4, r1, lsl #4
    1d80:	04a20c00 	strteq	r0, [r2], #3072	; 0xc00
    1d84:	056a0000 	strbeq	r0, [sl, #-0]!
    1d88:	8b300000 	blhi	c01d90 <__bss_end__+0xbf6fb8>
    1d8c:	00780000 	rsbseq	r0, r8, r0
    1d90:	0c680000 	stcleq	0, cr0, [r8], #-0
    1d94:	04020000 	streq	r0, [r2], #-0
    1d98:	746e6905 	strbtvc	r6, [lr], #-2309	; 0xfffff6fb
    1d9c:	049b0300 	ldreq	r0, [fp], #768	; 0x300
    1da0:	d1030000 	mrsle	r0, (UNDEF: 3)
    1da4:	00003817 	andeq	r3, r0, r7, lsl r8
    1da8:	07040400 	streq	r0, [r4, -r0, lsl #8]
    1dac:	000001df 	ldrdeq	r0, [r0], -pc	; <UNPREDICTABLE>
    1db0:	77060104 	strvc	r0, [r6, -r4, lsl #2]
    1db4:	04000001 	streq	r0, [r0], #-1
    1db8:	00210502 	eoreq	r0, r1, r2, lsl #10
    1dbc:	04040000 	streq	r0, [r4], #-0
    1dc0:	00005605 	andeq	r5, r0, r5, lsl #12
    1dc4:	05080400 	streq	r0, [r8, #-1024]	; 0xfffffc00
    1dc8:	00000051 	andeq	r0, r0, r1, asr r0
    1dcc:	75080104 	strvc	r0, [r8, #-260]	; 0xfffffefc
    1dd0:	04000001 	streq	r0, [r0], #-1
    1dd4:	02060702 	andeq	r0, r6, #524288	; 0x80000
    1dd8:	04040000 	streq	r0, [r4], #-0
    1ddc:	0001da07 	andeq	sp, r1, r7, lsl #20
    1de0:	07080400 	streq	r0, [r8, -r0, lsl #8]
    1de4:	000001d5 	ldrdeq	r0, [r0], -r5
    1de8:	00002505 	andeq	r2, r0, r5, lsl #10
    1dec:	00008600 	andeq	r8, r0, r0, lsl #12
    1df0:	00250600 	eoreq	r0, r5, r0, lsl #12
    1df4:	07000000 	streq	r0, [r0, -r0]
    1df8:	0000002b 	andeq	r0, r0, fp, lsr #32
    1dfc:	920e1c02 	andls	r1, lr, #512	; 0x200
    1e00:	08000000 	stmdaeq	r0, {}	; <UNPREDICTABLE>
    1e04:	00007704 	andeq	r7, r0, r4, lsl #14
    1e08:	00250500 	eoreq	r0, r5, r0, lsl #10
    1e0c:	00a70000 	adceq	r0, r7, r0
    1e10:	a7060000 	strge	r0, [r6, -r0]
    1e14:	00000000 	andeq	r0, r0, r0
    1e18:	00b40408 	adcseq	r0, r4, r8, lsl #8
    1e1c:	01040000 	mrseq	r0, (UNDEF: 4)
    1e20:	00017e08 	andeq	r7, r1, r8, lsl #28
    1e24:	00ad0900 	adceq	r0, sp, r0, lsl #18
    1e28:	d2070000 	andle	r0, r7, #0, 0
    1e2c:	02000005 	andeq	r0, r0, #5, 0
    1e30:	00c50e21 	sbceq	r0, r5, r1, lsr #28
    1e34:	04080000 	streq	r0, [r8], #-0
    1e38:	00000098 	muleq	r0, r8, r0
    1e3c:	00022b0a 	andeq	r2, r2, sl, lsl #22
    1e40:	07040100 	streq	r0, [r4, -r0, lsl #2]
    1e44:	0000013b 	andeq	r0, r0, fp, lsr r1
    1e48:	00008b30 	andeq	r8, r0, r0, lsr fp
    1e4c:	00000078 	andeq	r0, r0, r8, ror r0
    1e50:	013b9c01 	teqeq	fp, r1, lsl #24
    1e54:	5f0b0000 	svcpl	0x000b0000
    1e58:	04010070 	streq	r0, [r1], #-112	; 0xffffff90
    1e5c:	00013b14 	andeq	r3, r1, r4, lsl fp
    1e60:	0c500100 	ldfeqe	f0, [r0], {-0}
    1e64:	04010063 	streq	r0, [r1], #-99	; 0xffffff9d
    1e68:	0000251c 	andeq	r2, r0, ip, lsl r5
    1e6c:	000cdc00 	andeq	sp, ip, r0, lsl #24
    1e70:	000cd800 	andeq	sp, ip, r0, lsl #16
    1e74:	006e0c00 	rsbeq	r0, lr, r0, lsl #24
    1e78:	2c260401 	cfstrscs	mvf0, [r6], #-4
    1e7c:	01000000 	mrseq	r0, (UNDEF: 0)
    1e80:	fd00000d 	stc2	0, cr0, [r0, #-52]	; 0xffffffcc
    1e84:	0d00000c 	stceq	0, cr0, [r0, #-48]	; 0xffffffd0
    1e88:	05010070 	streq	r0, [r1, #-112]	; 0xffffff90
    1e8c:	00013d0b 	andeq	r3, r1, fp, lsl #26
    1e90:	000d3000 	andeq	r3, sp, r0
    1e94:	000d2200 	andeq	r2, sp, r0, lsl #4
    1e98:	00650d00 	rsbeq	r0, r5, r0, lsl #26
    1e9c:	3d140501 	cfldr32cc	mvfx0, [r4, #-4]
    1ea0:	8d000001 	stchi	0, cr0, [r0, #-4]
    1ea4:	8b00000d 	blhi	1ee0 <__code_start__-0x6120>
    1ea8:	0000000d 	andeq	r0, r0, sp
    1eac:	0408040e 	streq	r0, [r8], #-1038	; 0xfffffbf2
    1eb0:	000000ad 	andeq	r0, r0, sp, lsr #1
    1eb4:	00019d00 	andeq	r9, r1, r0, lsl #26
    1eb8:	7d000400 	cfstrsvc	mvf0, [r0, #-0]
    1ebc:	0400000b 	streq	r0, [r0], #-11
    1ec0:	0004b201 	andeq	fp, r4, r1, lsl #4
    1ec4:	05af0c00 	streq	r0, [pc, #3072]!	; 2acc <__code_start__-0x5534>
    1ec8:	056a0000 	strbeq	r0, [sl, #-0]!
    1ecc:	8ba80000 	blhi	fea01ed4 <__bss_end__+0xfe9f70fc>
    1ed0:	00580000 	subseq	r0, r8, r0
    1ed4:	0d8d0000 	stceq	0, cr0, [sp]
    1ed8:	9b020000 	blls	81ee0 <__bss_end__+0x77108>
    1edc:	02000005 	andeq	r0, r0, #5, 0
    1ee0:	00311b28 	eorseq	r1, r1, r8, lsr #22
    1ee4:	bf030000 	svclt	0x00030000
    1ee8:	04000005 	streq	r0, [r0], #-5
    1eec:	00480004 	subeq	r0, r8, r4
    1ef0:	aa040000 	bge	101ef8 <__bss_end__+0xf7120>
    1ef4:	48000005 	stmdami	r0, {r0, r2}
    1ef8:	00000000 	andeq	r0, r0, r0
    1efc:	02040500 	andeq	r0, r4, #0, 10
    1f00:	000005c1 	andeq	r0, r0, r1, asr #11
    1f04:	25186302 	ldrcs	r6, [r8, #-770]	; 0xfffffcfe
    1f08:	06000000 	streq	r0, [r0], -r0
    1f0c:	6e690504 	cdpvs	5, 6, cr0, cr9, cr4, {0}
    1f10:	04070074 	streq	r0, [r7], #-116	; 0xffffff8c
    1f14:	0001df07 	andeq	sp, r1, r7, lsl #30
    1f18:	06010700 	streq	r0, [r1], -r0, lsl #14
    1f1c:	00000177 	andeq	r0, r0, r7, ror r1
    1f20:	21050207 	tstcs	r5, r7, lsl #4
    1f24:	07000000 	streq	r0, [r0, -r0]
    1f28:	00560504 	subseq	r0, r6, r4, lsl #10
    1f2c:	08070000 	stmdaeq	r7, {}	; <UNPREDICTABLE>
    1f30:	00005105 	andeq	r5, r0, r5, lsl #2
    1f34:	08010700 	stmdaeq	r1, {r8, r9, sl}
    1f38:	00000175 	andeq	r0, r0, r5, ror r1
    1f3c:	06070207 	streq	r0, [r7], -r7, lsl #4
    1f40:	07000002 	streq	r0, [r0, -r2]
    1f44:	01da0704 	bicseq	r0, sl, r4, lsl #14
    1f48:	08070000 	stmdaeq	r7, {}	; <UNPREDICTABLE>
    1f4c:	0001d507 	andeq	sp, r1, r7, lsl #10
    1f50:	00560800 	subseq	r0, r6, r0, lsl #16
    1f54:	00ab0000 	adceq	r0, fp, r0
    1f58:	56090000 	strpl	r0, [r9], -r0
    1f5c:	00000000 	andeq	r0, r0, r0
    1f60:	00002b0a 	andeq	r2, r0, sl, lsl #22
    1f64:	0e1c0300 	cdpeq	3, 1, cr0, cr12, cr0, {0}
    1f68:	000000b7 	strheq	r0, [r0], -r7
    1f6c:	009c040b 	addseq	r0, ip, fp, lsl #8
    1f70:	56080000 	strpl	r0, [r8], -r0
    1f74:	cc000000 	stcgt	0, cr0, [r0], {-0}
    1f78:	09000000 	stmdbeq	r0, {}	; <UNPREDICTABLE>
    1f7c:	000000cc 	andeq	r0, r0, ip, asr #1
    1f80:	d9040b00 	stmdble	r4, {r8, r9, fp}
    1f84:	07000000 	streq	r0, [r0, -r0]
    1f88:	017e0801 	cmneq	lr, r1, lsl #16
    1f8c:	d20c0000 	andle	r0, ip, #0, 0
    1f90:	0a000000 	beq	1f98 <__code_start__-0x6068>
    1f94:	000005d2 	ldrdeq	r0, [r0], -r2
    1f98:	ea0e2103 	b	38a3ac <__bss_end__+0x37f5d4>
    1f9c:	0b000000 	bleq	1fa4 <__code_start__-0x605c>
    1fa0:	0000bd04 	andeq	fp, r0, r4, lsl #26
    1fa4:	05940d00 	ldreq	r0, [r4, #3328]	; 0xd00
    1fa8:	06010000 	streq	r0, [r1], -r0
    1fac:	00005605 	andeq	r5, r0, r5, lsl #12
    1fb0:	008ba800 	addeq	sl, fp, r0, lsl #16
    1fb4:	00005800 	andeq	r5, r0, r0, lsl #16
    1fb8:	839c0100 	orrshi	r0, ip, #0
    1fbc:	0e000001 	cdpeq	0, 0, cr0, cr0, cr1, {0}
    1fc0:	00746d66 	rsbseq	r6, r4, r6, ror #26
    1fc4:	cc180601 	ldcgt	6, cr0, [r8], {1}
    1fc8:	02000000 	andeq	r0, r0, #0, 0
    1fcc:	100f7091 	mulne	pc, r1, r0	; <UNPREDICTABLE>
    1fd0:	00667562 	rsbeq	r7, r6, r2, ror #10
    1fd4:	83110801 	tsthi	r1, #65536	; 0x10000
    1fd8:	05000001 	streq	r0, [r0, #-1]
    1fdc:	00a9d403 	adceq	sp, r9, r3, lsl #8
    1fe0:	058c1100 	streq	r1, [ip, #256]	; 0x100
    1fe4:	09010000 	stmdbeq	r1, {}	; <UNPREDICTABLE>
    1fe8:	00004a0d 	andeq	r4, r0, sp, lsl #20
    1fec:	5c910200 	lfmpl	f0, 4, [r1], {0}
    1ff0:	007a7312 	rsbseq	r7, sl, r2, lsl r3
    1ff4:	560d0c01 	strpl	r0, [sp], -r1, lsl #24
    1ff8:	a6000000 	strge	r0, [r0], -r0
    1ffc:	a000000d 	andge	r0, r0, sp
    2000:	1300000d 	movwne	r0, #13
    2004:	00008bd0 	ldrdeq	r8, [r0], -r0
    2008:	00000194 	muleq	r0, r4, r1
    200c:	00000176 	andeq	r0, r0, r6, ror r1
    2010:	02500114 	subseq	r0, r0, #5
    2014:	01140075 	tsteq	r4, r5, ror r0
    2018:	000a0351 	andeq	r0, sl, r1, asr r3
    201c:	52011404 	andpl	r1, r1, #4, 8	; 0x4000000
    2020:	06489103 	strbeq	r9, [r8], -r3, lsl #2
    2024:	02530114 	subseq	r0, r3, #5
    2028:	15004c91 	strne	r4, [r0, #-3217]	; 0xfffff36f
    202c:	00008be4 	andeq	r8, r0, r4, ror #23
    2030:	02500114 	subseq	r0, r0, #5
    2034:	00000075 	andeq	r0, r0, r5, ror r0
    2038:	0000d216 	andeq	sp, r0, r6, lsl r2
    203c:	00019400 	andeq	r9, r1, r0, lsl #8
    2040:	005d1700 	subseq	r1, sp, r0, lsl #14
    2044:	03ff0000 	mvnseq	r0, #0, 0
    2048:	05911800 	ldreq	r1, [r1, #2048]	; 0x800
    204c:	05910000 	ldreq	r0, [r1]
    2050:	02050000 	andeq	r0, r5, #0, 0
    2054:	00f30005 	rscseq	r0, r3, r5
    2058:	00040000 	andeq	r0, r4, r0
    205c:	00000cbf 			; <UNDEFINED> instruction: 0x00000cbf
    2060:	04b20104 	ldrteq	r0, [r2], #260	; 0x104
    2064:	d70c0000 	strle	r0, [ip, -r0]
    2068:	6a000005 	bvs	2084 <__code_start__-0x5f7c>
    206c:	00000005 	andeq	r0, r0, r5
    2070:	3800008c 	stmdacc	r0, {r2, r3, r7}
    2074:	b1000000 	mrslt	r0, (UNDEF: 0)
    2078:	0200000e 	andeq	r0, r0, #14, 0
    207c:	6e690504 	cdpvs	5, 6, cr0, cr9, cr4, {0}
    2080:	04030074 	streq	r0, [r3], #-116	; 0xffffff8c
    2084:	0001df07 	andeq	sp, r1, r7, lsl #30
    2088:	06010300 	streq	r0, [r1], -r0, lsl #6
    208c:	00000177 	andeq	r0, r0, r7, ror r1
    2090:	21050203 	tstcs	r5, r3, lsl #4
    2094:	03000000 	movweq	r0, #0
    2098:	00560504 	subseq	r0, r6, r4, lsl #10
    209c:	08030000 	stmdaeq	r3, {}	; <UNPREDICTABLE>
    20a0:	00005105 	andeq	r5, r0, r5, lsl #2
    20a4:	08010300 	stmdaeq	r1, {r8, r9}
    20a8:	00000175 	andeq	r0, r0, r5, ror r1
    20ac:	06070203 	streq	r0, [r7], -r3, lsl #4
    20b0:	03000002 	movweq	r0, #2
    20b4:	01da0704 	bicseq	r0, sl, r4, lsl #14
    20b8:	08030000 	stmdaeq	r3, {}	; <UNPREDICTABLE>
    20bc:	0001d507 	andeq	sp, r1, r7, lsl #10
    20c0:	00250400 	eoreq	r0, r5, r0, lsl #8
    20c4:	007a0000 	rsbseq	r0, sl, r0
    20c8:	25050000 	strcs	r0, [r5, #-0]
    20cc:	00000000 	andeq	r0, r0, r0
    20d0:	00002b06 	andeq	r2, r0, r6, lsl #22
    20d4:	0e1c0200 	cdpeq	2, 1, cr0, cr12, cr0, {0}
    20d8:	00000086 	andeq	r0, r0, r6, lsl #1
    20dc:	006b0407 	rsbeq	r0, fp, r7, lsl #8
    20e0:	25040000 	strcs	r0, [r4, #-0]
    20e4:	9b000000 	blls	20ec <__code_start__-0x5f14>
    20e8:	05000000 	streq	r0, [r0, #-0]
    20ec:	0000009b 	muleq	r0, fp, r0
    20f0:	a8040700 	stmdage	r4, {r8, r9, sl}
    20f4:	03000000 	movweq	r0, #0
    20f8:	017e0801 	cmneq	lr, r1, lsl #16
    20fc:	a1080000 	mrsge	r0, (UNDEF: 8)
    2100:	06000000 	streq	r0, [r0], -r0
    2104:	000005d2 	ldrdeq	r0, [r0], -r2
    2108:	b90e2102 	stmdblt	lr, {r1, r8, sp}
    210c:	07000000 	streq	r0, [r0, -r0]
    2110:	00008c04 	andeq	r8, r0, r4, lsl #24
    2114:	00ad0900 	adceq	r0, sp, r0, lsl #18
    2118:	0c010000 	stceq	0, cr0, [r1], {-0}
    211c:	9c030507 	cfstr32ls	mvfx0, [r3], {7}
    2120:	0a0000a9 	beq	23cc <__code_start__-0x5c34>
    2124:	000005c9 	andeq	r0, r0, r9, asr #11
    2128:	25050401 	strcs	r0, [r5, #-1025]	; 0xfffffbff
    212c:	00000000 	andeq	r0, r0, r0
    2130:	3800008c 	stmdacc	r0, {r2, r3, r7}
    2134:	01000000 	mrseq	r0, (UNDEF: 0)
    2138:	00700b9c 			; <UNDEFINED> instruction: 0x00700b9c
    213c:	9b1f0401 	blls	7c3148 <__bss_end__+0x7b8370>
    2140:	d7000000 	strle	r0, [r0, -r0]
    2144:	cf00000d 	svcgt	0x0000000d
    2148:	0000000d 	andeq	r0, r0, sp
    214c:	000c7f00 	andeq	r7, ip, r0, lsl #30
    2150:	5d000400 	cfstrspl	mvf0, [r0, #-0]
    2154:	0400000d 	streq	r0, [r0], #-13
    2158:	0004b201 	andeq	fp, r4, r1, lsl #4
    215c:	05f60c00 	ldrbeq	r0, [r6, #3072]!	; 0xc00
    2160:	056a0000 	strbeq	r0, [sl, #-0]!
    2164:	8c380000 	ldchi	0, cr0, [r8], #-0
    2168:	09b40000 	ldmibeq	r4!, {}	; <UNPREDICTABLE>
    216c:	0f550000 	svceq	0x00550000
    2170:	08020000 	stmdaeq	r2, {}	; <UNPREDICTABLE>
    2174:	0001d507 	andeq	sp, r1, r7, lsl #10
    2178:	07040200 	streq	r0, [r4, -r0, lsl #4]
    217c:	000001df 	ldrdeq	r0, [r0], -pc	; <UNPREDICTABLE>
    2180:	69050403 	stmdbvs	r5, {r0, r1, sl}
    2184:	0200746e 	andeq	r7, r0, #1845493760	; 0x6e000000
    2188:	01770601 	cmneq	r7, r1, lsl #12
    218c:	02020000 	andeq	r0, r2, #0, 0
    2190:	00002105 	andeq	r2, r0, r5, lsl #2
    2194:	05040200 	streq	r0, [r4, #-512]	; 0xfffffe00
    2198:	00000056 	andeq	r0, r0, r6, asr r0
    219c:	51050802 	tstpl	r5, r2, lsl #16
    21a0:	02000000 	andeq	r0, r0, #0, 0
    21a4:	01750801 	cmneq	r5, r1, lsl #16
    21a8:	02020000 	andeq	r0, r2, #0, 0
    21ac:	00020607 	andeq	r0, r2, r7, lsl #12
    21b0:	01ec0400 	mvneq	r0, r0, lsl #8
    21b4:	34020000 	strcc	r0, [r2], #-0
    21b8:	00007019 	andeq	r7, r0, r9, lsl r0
    21bc:	07040200 	streq	r0, [r4, -r0, lsl #4]
    21c0:	000001da 	ldrdeq	r0, [r0], -sl
    21c4:	0005ed04 	andeq	lr, r5, r4, lsl #26
    21c8:	19370200 	ldmdbne	r7!, {r9}
    21cc:	00000025 	andeq	r0, r0, r5, lsr #32
    21d0:	00003305 	andeq	r3, r0, r5, lsl #6
    21d4:	00009200 	andeq	r9, r0, r0, lsl #4
    21d8:	00330600 	eorseq	r0, r3, r0, lsl #12
    21dc:	07000000 	streq	r0, [r0, -r0]
    21e0:	0000002b 	andeq	r0, r0, fp, lsr #32
    21e4:	9e0e1c03 	cdpls	12, 0, cr1, cr14, cr3, {0}
    21e8:	08000000 	stmdaeq	r0, {}	; <UNPREDICTABLE>
    21ec:	00008304 	andeq	r8, r0, r4, lsl #6
    21f0:	00330500 	eorseq	r0, r3, r0, lsl #10
    21f4:	00b30000 	adcseq	r0, r3, r0
    21f8:	b3060000 	movwlt	r0, #24576	; 0x6000
    21fc:	00000000 	andeq	r0, r0, r0
    2200:	00c00408 	sbceq	r0, r0, r8, lsl #8
    2204:	01020000 	mrseq	r0, (UNDEF: 2)
    2208:	00017e08 	andeq	r7, r1, r8, lsl #28
    220c:	00b90900 	adcseq	r0, r9, r0, lsl #18
    2210:	d2070000 	andle	r0, r7, #0, 0
    2214:	03000005 	movweq	r0, #5
    2218:	00d10e21 	sbcseq	r0, r1, r1, lsr #28
    221c:	04080000 	streq	r0, [r8], #-0
    2220:	000000a4 	andeq	r0, r0, r4, lsr #1
    2224:	00060907 	andeq	r0, r6, r7, lsl #18
    2228:	0d0b0400 	cfstrseq	mvf0, [fp, #-0]
    222c:	000000b9 	strheq	r0, [r0], -r9
    2230:	00066207 	andeq	r6, r6, r7, lsl #4
    2234:	0d0c0400 	cfstrseq	mvf0, [ip, #-0]
    2238:	000000b9 	strheq	r0, [r0], -r9
    223c:	00038507 	andeq	r8, r3, r7, lsl #10
    2240:	0d0d0400 	cfstrseq	mvf0, [sp, #-0]
    2244:	000000b9 	strheq	r0, [r0], -r9
    2248:	00043707 	andeq	r3, r4, r7, lsl #14
    224c:	0d0e0400 	cfstrseq	mvf0, [lr, #-0]
    2250:	000000b9 	strheq	r0, [r0], -r9
    2254:	00046d07 	andeq	r6, r4, r7, lsl #26
    2258:	0d0f0400 	cfstrseq	mvf0, [pc, #-0]	; 2260 <__code_start__-0x5da0>
    225c:	000000b9 	strheq	r0, [r0], -r9
    2260:	0003f407 	andeq	pc, r3, r7, lsl #8
    2264:	0d100400 	cfldrseq	mvf0, [r0, #-0]
    2268:	000000b9 	strheq	r0, [r0], -r9
    226c:	00068b07 	andeq	r8, r6, r7, lsl #22
    2270:	0d110400 	cfldrseq	mvf0, [r1, #-0]
    2274:	000000b9 	strheq	r0, [r0], -r9
    2278:	00062607 	andeq	r2, r6, r7, lsl #12
    227c:	0d120400 	cfldrseq	mvf0, [r2, #-0]
    2280:	000000b9 	strheq	r0, [r0], -r9
    2284:	00059b04 	andeq	r9, r5, r4, lsl #22
    2288:	1b280500 	blne	a03690 <__bss_end__+0x9f88b8>
    228c:	00000143 	andeq	r0, r0, r3, asr #2
    2290:	0005bf0a 	andeq	fp, r5, sl, lsl #30
    2294:	00060400 	andeq	r0, r6, r0, lsl #8
    2298:	0000015a 	andeq	r0, r0, sl, asr r1
    229c:	0005aa0b 	andeq	sl, r5, fp, lsl #20
    22a0:	00015a00 	andeq	r5, r1, r0, lsl #20
    22a4:	0c000000 	stceq	0, cr0, [r0], {-0}
    22a8:	05c10404 	strbeq	r0, [r1, #1028]	; 0x404
    22ac:	63050000 	movwvs	r0, #20480	; 0x5000
    22b0:	00013718 	andeq	r3, r1, r8, lsl r7
    22b4:	05910d00 	ldreq	r0, [r1, #3328]	; 0xd00
    22b8:	81010000 	mrshi	r0, (UNDEF: 1)
    22bc:	00003305 	andeq	r3, r0, r5, lsl #6
    22c0:	008fc000 	addeq	ip, pc, r0
    22c4:	00062c00 	andeq	r2, r6, r0, lsl #24
    22c8:	6a9c0100 	bvs	fe7026d0 <__bss_end__+0xfe6f78f8>
    22cc:	0e000008 	cdpeq	0, 0, cr0, cr0, cr8, {0}
    22d0:	00667562 	rsbeq	r7, r6, r2, ror #10
    22d4:	6a158101 	bvs	5626e0 <__bss_end__+0x557908>
    22d8:	17000008 	strne	r0, [r0, -r8]
    22dc:	0d00000e 	stceq	0, cr0, [r0, #-56]	; 0xffffffc8
    22e0:	0e00000e 	cdpeq	0, 0, cr0, cr0, cr14, {0}
    22e4:	8101006e 	tsthi	r1, lr, rrx
    22e8:	0000331e 	andeq	r3, r0, lr, lsl r3
    22ec:	000e6400 	andeq	r6, lr, r0, lsl #8
    22f0:	000e5c00 	andeq	r5, lr, r0, lsl #24
    22f4:	6d660e00 	stclvs	14, cr0, [r6, #-0]
    22f8:	81010074 	tsthi	r1, r4, ror r0
    22fc:	0000b32d 	andeq	fp, r0, sp, lsr #6
    2300:	000eb600 	andeq	fp, lr, r0, lsl #12
    2304:	000e9e00 	andeq	r9, lr, r0, lsl #28
    2308:	058c0f00 	streq	r0, [ip, #3840]	; 0xf00
    230c:	81010000 	mrshi	r0, (UNDEF: 1)
    2310:	00015c3a 	andeq	r5, r1, sl, lsr ip
    2314:	000f7800 	andeq	r7, pc, r0, lsl #16
    2318:	000f4a00 	andeq	r4, pc, r0, lsl #20
    231c:	00701000 	rsbseq	r1, r0, r0
    2320:	6a088201 	bvs	222b2c <__bss_end__+0x217d54>
    2324:	cb000008 	blgt	234c <__code_start__-0x5cb4>
    2328:	b5000010 	strlt	r0, [r0, #-16]
    232c:	10000010 	andne	r0, r0, r0, lsl r0
    2330:	82010065 	andhi	r0, r1, #101, 0	; 0x65
    2334:	00086a12 	andeq	r6, r8, r2, lsl sl
    2338:	00115400 	andseq	r5, r1, r0, lsl #8
    233c:	00115200 	andseq	r5, r1, r0, lsl #4
    2340:	30781000 	rsbscc	r1, r8, r0
    2344:	0e830100 	rmfeqs	f0, f3, f0
    2348:	00000064 	andeq	r0, r0, r4, rrx
    234c:	0000116d 	andeq	r1, r0, sp, ror #2
    2350:	00001167 	andeq	r1, r0, r7, ror #2
    2354:	00317810 	eorseq	r7, r1, r0, lsl r8
    2358:	64118301 	ldrvs	r8, [r1], #-769	; 0xfffffcff
    235c:	9c000000 	stcls	0, cr0, [r0], {-0}
    2360:	96000011 			; <UNDEFINED> instruction: 0x96000011
    2364:	11000011 	tstne	r0, r1, lsl r0
    2368:	00000644 	andeq	r0, r0, r4, asr #12
    236c:	b3118601 	tstlt	r1, #1048576	; 0x100000
    2370:	cd000000 	stcgt	0, cr0, [r0, #-0]
    2374:	c5000011 	strgt	r0, [r0, #-17]	; 0xffffffef
    2378:	12000011 	andne	r0, r0, #17, 0
    237c:	00000090 	muleq	r0, r0, r0
    2380:	00000880 	andeq	r0, r0, r0, lsl #17
    2384:	a7880305 	strge	r0, [r8, r5, lsl #6]
    2388:	08130000 	ldmdaeq	r3, {}	; <UNPREDICTABLE>
    238c:	10000002 	andne	r0, r0, r2
    2390:	91010073 	tstls	r1, r3, ror r0
    2394:	00086a0a 	andeq	r6, r8, sl, lsl #20
    2398:	00121300 	andseq	r1, r2, r0, lsl #6
    239c:	00120700 	andseq	r0, r2, r0, lsl #14
    23a0:	756e1400 	strbvc	r1, [lr, #-1024]!	; 0xfffffc00
    23a4:	9101006d 	tstls	r1, sp, rrx
    23a8:	0008850d 	andeq	r8, r8, sp, lsl #10
    23ac:	d8910300 	ldmle	r1, {r8, r9}
    23b0:	0698157d 			; <UNDEFINED> instruction: 0x0698157d
    23b4:	91010000 	mrsls	r0, (UNDEF: 1)
    23b8:	00088517 	andeq	r8, r8, r7, lsl r5
    23bc:	d8910300 	ldmle	r1, {r8, r9}
    23c0:	0618117e 			; <UNDEFINED> instruction: 0x0618117e
    23c4:	92010000 	andls	r0, r1, #0, 0
    23c8:	00002c0d 	andeq	r2, r0, sp, lsl #24
    23cc:	00126500 	andseq	r6, r2, r0, lsl #10
    23d0:	00125d00 	andseq	r5, r2, r0, lsl #26
    23d4:	02301600 	eorseq	r1, r0, #0, 12
    23d8:	04f10000 	ldrbteq	r0, [r1], #0
    23dc:	74100000 	ldrvc	r0, [r0], #-0
    23e0:	9e010079 	mcrls	0, 0, r0, cr1, cr9, {3}
    23e4:	0000b31d 	andeq	fp, r0, sp, lsl r3
    23e8:	0012a600 	andseq	sl, r2, r0, lsl #12
    23ec:	00129a00 	andseq	r9, r2, r0, lsl #20
    23f0:	78781400 	ldmdavc	r8!, {sl, ip}^
    23f4:	1aa20100 	bne	fe8827fc <__bss_end__+0xfe877a24>
    23f8:	00000077 	andeq	r0, r0, r7, ror r0
    23fc:	04935906 	ldreq	r5, [r3], #2310	; 0x906
    2400:	1704935b 	smlsdne	r4, fp, r3, r9
    2404:	0000914c 	andeq	r9, r0, ip, asr #2
    2408:	00000c3a 	andeq	r0, r0, sl, lsr ip
    240c:	000002d8 	ldrdeq	r0, [r0], -r8
    2410:	02500118 	subseq	r0, r0, #6
    2414:	01180076 	tsteq	r8, r6, ror r0
    2418:	7c030551 	cfstr32vc	mvfx0, [r3], {81}	; 0x51
    241c:	180000a6 	stmdane	r0, {r1, r2, r5, r7}
    2420:	33015201 	movwcc	r5, #4609	; 0x1201
    2424:	91641700 	cmnls	r4, r0, lsl #14
    2428:	0c3a0000 	ldceq	0, cr0, [sl], #-0
    242c:	02fa0000 	rscseq	r0, sl, #0, 0
    2430:	01180000 	tsteq	r8, r0
    2434:	00760250 	rsbseq	r0, r6, r0, asr r2
    2438:	05510118 	ldrbeq	r0, [r1, #-280]	; 0xfffffee8
    243c:	00a69003 	adceq	r9, r6, r3
    2440:	52011800 	andpl	r1, r1, #0, 16
    2444:	17003301 	strne	r3, [r0, -r1, lsl #6]
    2448:	00009188 	andeq	r9, r0, r8, lsl #3
    244c:	00000c46 	andeq	r0, r0, r6, asr #24
    2450:	00000317 	andeq	r0, r0, r7, lsl r3
    2454:	05500118 	ldrbeq	r0, [r0, #-280]	; 0xfffffee8
    2458:	00a68003 	adceq	r8, r6, r3
    245c:	51011800 	tstpl	r1, r0, lsl #16
    2460:	00007b02 	andeq	r7, r0, r2, lsl #22
    2464:	00919417 	addseq	r9, r1, r7, lsl r4
    2468:	000c4600 	andeq	r4, ip, r0, lsl #12
    246c:	00033400 	andeq	r3, r3, r0, lsl #8
    2470:	50011800 	andpl	r1, r1, r0, lsl #16
    2474:	a6880305 	strge	r0, [r8], r5, lsl #6
    2478:	01180000 	tsteq	r8, r0
    247c:	00790251 	rsbseq	r0, r9, r1, asr r2
    2480:	91a41700 			; <UNDEFINED> instruction: 0x91a41700
    2484:	0c3a0000 	ldceq	0, cr0, [sl], #-0
    2488:	03560000 	cmpeq	r6, #0, 0
    248c:	01180000 	tsteq	r8, r0
    2490:	00760250 	rsbseq	r0, r6, r0, asr r2
    2494:	05510118 	ldrbeq	r0, [r1, #-280]	; 0xfffffee8
    2498:	00a67c03 	adceq	r7, r6, r3, lsl #24
    249c:	52011800 	andpl	r1, r1, #0, 16
    24a0:	17003301 	strne	r3, [r0, -r1, lsl #6]
    24a4:	000091d4 	ldrdeq	r9, [r0], -r4
    24a8:	00000aa4 	andeq	r0, r0, r4, lsr #21
    24ac:	00000383 	andeq	r0, r0, r3, lsl #7
    24b0:	01500118 	cmpeq	r0, r8, lsl r1
    24b4:	51011840 	tstpl	r1, r0, asr #16
    24b8:	7dd09103 	ldfvcp	f1, [r0, #12]
    24bc:	02520118 	subseq	r0, r2, #6
    24c0:	0118007b 	tsteq	r8, fp, ror r0
    24c4:	00750253 	rsbseq	r0, r5, r3, asr r2
    24c8:	007d0218 	rsbseq	r0, sp, r8, lsl r2
    24cc:	00007602 	andeq	r7, r0, r2, lsl #12
    24d0:	0091f417 	addseq	pc, r1, r7, lsl r4	; <UNPREDICTABLE>
    24d4:	000aa400 	andeq	sl, sl, r0, lsl #8
    24d8:	0003aa00 	andeq	sl, r3, r0, lsl #20
    24dc:	50011800 	andpl	r1, r1, r0, lsl #16
    24e0:	01184001 	tsteq	r8, r1
    24e4:	d0910351 	addsle	r0, r1, r1, asr r3
    24e8:	5201187e 	andpl	r1, r1, #8257536	; 0x7e0000
    24ec:	18007902 	stmdane	r0, {r1, r8, fp, ip, sp, lr}
    24f0:	02007d02 	andeq	r7, r0, #128	; 0x80
    24f4:	17000076 	smlsdxne	r0, r6, r0, r0
    24f8:	00009204 	andeq	r9, r0, r4, lsl #4
    24fc:	00000c52 	andeq	r0, r0, r2, asr ip
    2500:	000003c6 	andeq	r0, r0, r6, asr #7
    2504:	03500118 	cmpeq	r0, #6
    2508:	187dd091 	ldmdane	sp!, {r0, r4, r7, ip, lr, pc}^
    250c:	91035101 	tstls	r3, r1, lsl #2
    2510:	17007ed2 			; <UNDEFINED> instruction: 0x17007ed2
    2514:	00009448 	andeq	r9, r0, r8, asr #8
    2518:	00000c3a 	andeq	r0, r0, sl, lsr ip
    251c:	000003e8 	andeq	r0, r0, r8, ror #7
    2520:	02500118 	subseq	r0, r0, #6
    2524:	01180076 	tsteq	r8, r6, ror r0
    2528:	90030551 	andls	r0, r3, r1, asr r5
    252c:	180000a6 	stmdane	r0, {r1, r2, r5, r7}
    2530:	33015201 	movwcc	r5, #4609	; 0x1201
    2534:	946c1700 	strbtls	r1, [ip], #-1792	; 0xfffff900
    2538:	0aa40000 	beq	fe902540 <__bss_end__+0xfe8f7768>
    253c:	04150000 	ldreq	r0, [r5], #-0
    2540:	01180000 	tsteq	r8, r0
    2544:	183a0150 	ldmdane	sl!, {r4, r6, r8}
    2548:	91035101 	tstls	r3, r1, lsl #2
    254c:	01187dd0 			; <UNDEFINED> instruction: 0x01187dd0
    2550:	007b0252 	rsbseq	r0, fp, r2, asr r2
    2554:	02530118 	subseq	r0, r3, #6
    2558:	02180075 	andseq	r0, r8, #117, 0	; 0x75
    255c:	7602007d 			; <UNDEFINED> instruction: 0x7602007d
    2560:	8c170000 	ldchi	0, cr0, [r7], {-0}
    2564:	a4000094 	strge	r0, [r0], #-148	; 0xffffff6c
    2568:	3c00000a 	stccc	0, cr0, [r0], {10}
    256c:	18000004 	stmdane	r0, {r2}
    2570:	3a015001 	bcc	5657c <__bss_end__+0x4b7a4>
    2574:	03510118 	cmpeq	r1, #6
    2578:	187ed091 	ldmdane	lr!, {r0, r4, r7, ip, lr, pc}^
    257c:	79025201 	stmdbvc	r2, {r0, r9, ip, lr}
    2580:	7d021800 	stcvc	8, cr1, [r2, #-0]
    2584:	00760200 	rsbseq	r0, r6, r0, lsl #4
    2588:	94981700 	ldrls	r1, [r8], #1792	; 0x700
    258c:	0c5e0000 	mraeq	r0, lr, acc0
    2590:	045a0000 	ldrbeq	r0, [sl], #-0
    2594:	01180000 	tsteq	r8, r0
    2598:	d0910350 	addsle	r0, r1, r0, asr r3
    259c:	5101187d 	tstpl	r1, sp, ror r8
    25a0:	a4a00305 	strtge	r0, [r0], #773	; 0x305
    25a4:	17000000 	strne	r0, [r0, -r0]
    25a8:	000094ac 	andeq	r9, r0, ip, lsr #9
    25ac:	00000c6a 	andeq	r0, r0, sl, ror #24
    25b0:	00000476 	andeq	r0, r0, r6, ror r4
    25b4:	03500118 	cmpeq	r0, #6
    25b8:	187dd091 	ldmdane	sp!, {r0, r4, r7, ip, lr, pc}^
    25bc:	91035101 	tstls	r3, r1, lsl #2
    25c0:	19007ed0 	stmdbne	r0, {r4, r6, r7, r9, sl, fp, ip, sp, lr}
    25c4:	000094b8 			; <UNDEFINED> instruction: 0x000094b8
    25c8:	00000c52 	andeq	r0, r0, r2, asr ip
    25cc:	00957c17 	addseq	r7, r5, r7, lsl ip
    25d0:	000c4600 	andeq	r4, ip, r0, lsl #12
    25d4:	0004a800 	andeq	sl, r4, r0, lsl #16
    25d8:	50011800 	andpl	r1, r1, r0, lsl #16
    25dc:	a1280305 			; <UNDEFINED> instruction: 0xa1280305
    25e0:	01180000 	tsteq	r8, r0
    25e4:	30030551 	andcc	r0, r3, r1, asr r5
    25e8:	180000a6 	stmdane	r0, {r1, r2, r5, r7}
    25ec:	03055201 	movweq	r5, #20993	; 0x5201
    25f0:	0000a788 	andeq	sl, r0, r8, lsl #15
    25f4:	95801900 	strls	r1, [r0, #2304]	; 0x900
    25f8:	0c760000 	ldcleq	0, cr0, [r6], #-0
    25fc:	98170000 	ldmdals	r7, {}	; <UNPREDICTABLE>
    2600:	46000095 			; <UNDEFINED> instruction: 0x46000095
    2604:	e700000c 	str	r0, [r0, -ip]
    2608:	18000004 	stmdane	r0, {r2}
    260c:	03055001 	movweq	r5, #20481	; 0x5001
    2610:	0000a6d0 	ldrdeq	sl, [r0], -r0
    2614:	05510118 	ldrbeq	r0, [r1, #-280]	; 0xfffffee8
    2618:	00a63003 	adceq	r3, r6, r3
    261c:	52011800 	andpl	r1, r1, #0, 16
    2620:	a7880305 	strge	r0, [r8, r5, lsl #6]
    2624:	01180000 	tsteq	r8, r0
    2628:	b6080253 			; <UNDEFINED> instruction: 0xb6080253
    262c:	007d0218 	rsbseq	r0, sp, r8, lsl r2
    2630:	00007602 	andeq	r7, r0, r2, lsl #12
    2634:	00959c19 	addseq	r9, r5, r9, lsl ip
    2638:	000c7600 	andeq	r7, ip, r0, lsl #12
    263c:	e31a0000 	tst	sl, #0, 0
    2640:	4c000009 	stcmi	0, cr0, [r0], {9}
    2644:	04000090 	streq	r0, [r0], #-144	; 0xffffff70
    2648:	00025800 	andeq	r5, r2, r0, lsl #16
    264c:	0a940100 	beq	fe502a54 <__bss_end__+0xfe4f7c7c>
    2650:	00000515 	andeq	r0, r0, r5, lsl r5
    2654:	0009f41b 	andeq	pc, r9, fp, lsl r4	; <UNPREDICTABLE>
    2658:	00130200 	andseq	r0, r3, r0, lsl #4
    265c:	0012fe00 	andseq	pc, r2, r0, lsl #28
    2660:	951a0000 	ldrls	r0, [sl, #-0]
    2664:	34000008 	strcc	r0, [r0], #-8
    2668:	01000092 	swpeq	r0, r2, [r0]	; <UNPREDICTABLE>
    266c:	00027800 	andeq	r7, r2, r0, lsl #16
    2670:	09dc0100 	ldmibeq	ip, {r8}^
    2674:	0000064b 	andeq	r0, r0, fp, asr #12
    2678:	0008be1b 	andeq	fp, r8, fp, lsl lr
    267c:	00133000 	andseq	r3, r3, r0
    2680:	00132a00 	andseq	r2, r3, r0, lsl #20
    2684:	08e01b00 	stmiaeq	r0!, {r8, r9, fp, ip}^
    2688:	13650000 	cmnne	r5, #0, 0
    268c:	135f0000 	cmpne	pc, #0, 0
    2690:	d41b0000 	ldrle	r0, [fp], #-0
    2694:	97000008 	strls	r0, [r0, -r8]
    2698:	91000013 	tstls	r0, r3, lsl r0
    269c:	1c000013 	stcne	0, cr0, [r0], {19}
    26a0:	000008c8 	andeq	r0, r0, r8, asr #17
    26a4:	0008b21b 	andeq	fp, r8, fp, lsl r2
    26a8:	0013c800 	andseq	ip, r3, r0, lsl #16
    26ac:	0013c000 	andseq	ip, r3, r0
    26b0:	08a61b00 	stmiaeq	r6!, {r8, r9, fp, ip}
    26b4:	140b0000 	strne	r0, [fp], #-0
    26b8:	14050000 	strne	r0, [r5], #-0
    26bc:	78130000 	ldmdavc	r3, {}	; <UNPREDICTABLE>
    26c0:	1d000002 	stcne	0, cr0, [r0, #-8]
    26c4:	000008ec 	andeq	r0, r0, ip, ror #17
    26c8:	7ed89103 	atnvce	f1, f3
    26cc:	0008f81e 	andeq	pc, r8, lr, lsl r8	; <UNPREDICTABLE>
    26d0:	00144500 	andseq	r4, r4, r0, lsl #10
    26d4:	00143700 	andseq	r3, r4, r0, lsl #14
    26d8:	09021f00 	stmdbeq	r2, {r8, r9, sl, fp, ip}
    26dc:	a31a0000 	tstge	sl, #0, 0
    26e0:	40000009 	andmi	r0, r0, r9
    26e4:	04000092 	streq	r0, [r0], #-146	; 0xffffff6e
    26e8:	0002a800 	andeq	sl, r2, r0, lsl #16
    26ec:	097c0100 	ldmdbeq	ip!, {r8}^
    26f0:	000005e2 	andeq	r0, r0, r2, ror #11
    26f4:	0009ca1b 	andeq	ip, r9, fp, lsl sl
    26f8:	0014af00 	andseq	sl, r4, r0, lsl #30
    26fc:	0014a900 	andseq	sl, r4, r0, lsl #18
    2700:	09be1b00 	ldmibeq	lr!, {r8, r9, fp, ip}
    2704:	14e40000 	strbtne	r0, [r4], #0
    2708:	14d80000 	ldrbne	r0, [r8], #0
    270c:	b41b0000 	ldrlt	r0, [fp], #-0
    2710:	4a000009 	bmi	273c <__code_start__-0x58c4>
    2714:	3a000015 	bcc	2770 <__code_start__-0x5890>
    2718:	13000015 	movwne	r0, #21
    271c:	000002a8 	andeq	r0, r0, r8, lsr #5
    2720:	0009d61e 	andeq	sp, r9, lr, lsl r6
    2724:	0015c700 	andseq	ip, r5, r0, lsl #14
    2728:	0015b900 	andseq	fp, r5, r0, lsl #18
    272c:	20000000 	andcs	r0, r0, r0
    2730:	0000094f 	andeq	r0, r0, pc, asr #18
    2734:	00009308 	andeq	r9, r0, r8, lsl #6
    2738:	02d80002 	sbcseq	r0, r8, #2, 0
    273c:	7c010000 	stcvc	0, cr0, [r1], {-0}
    2740:	09801b09 	stmibeq	r0, {r0, r3, r8, r9, fp, ip}
    2744:	16270000 	strtne	r0, [r7], -r0
    2748:	16210000 	strtne	r0, [r1], -r0
    274c:	761b0000 	ldrvc	r0, [fp], -r0
    2750:	5d000009 	stcpl	0, cr0, [r0, #-36]	; 0xffffffdc
    2754:	53000016 	movwpl	r0, #22
    2758:	1b000016 	blne	27b8 <__code_start__-0x5848>
    275c:	0000096c 	andeq	r0, r0, ip, ror #18
    2760:	000016ac 	andeq	r1, r0, ip, lsr #13
    2764:	000016a8 	andeq	r1, r0, r8, lsr #13
    2768:	0009601b 	andeq	r6, r9, fp, lsl r0
    276c:	0016dc00 	andseq	sp, r6, r0, lsl #24
    2770:	0016ce00 	andseq	ip, r6, r0, lsl #28
    2774:	02d81300 	sbcseq	r1, r8, #0, 6
    2778:	8c1e0000 	ldchi	0, cr0, [lr], {-0}
    277c:	41000009 	tstmi	r0, r9
    2780:	3f000017 	svccc	0x00000017
    2784:	1e000017 	mcrne	0, 0, r0, cr0, cr7, {0}
    2788:	00000998 	muleq	r0, r8, r9
    278c:	0000175b 	andeq	r1, r0, fp, asr r7
    2790:	00001755 	andeq	r1, r0, r5, asr r7
    2794:	00000000 	andeq	r0, r0, r0
    2798:	0008951a 	andeq	r9, r8, sl, lsl r5
    279c:	00934400 	addseq	r4, r3, r0, lsl #8
    27a0:	08000000 	stmdaeq	r0, {}	; <UNPREDICTABLE>
    27a4:	01000003 	tsteq	r0, r3
    27a8:	078909d6 			; <UNDEFINED> instruction: 0x078909d6
    27ac:	be1b0000 	cdplt	0, 1, cr0, cr11, cr0, {0}
    27b0:	8e000008 	cdphi	0, 0, cr0, cr0, cr8, {0}
    27b4:	8a000017 	bhi	2818 <__code_start__-0x57e8>
    27b8:	1b000017 	blne	281c <__code_start__-0x57e4>
    27bc:	000008e0 	andeq	r0, r0, r0, ror #17
    27c0:	000017b4 			; <UNDEFINED> instruction: 0x000017b4
    27c4:	000017b0 			; <UNDEFINED> instruction: 0x000017b0
    27c8:	0008d41b 	andeq	sp, r8, fp, lsl r4
    27cc:	0017d800 	andseq	sp, r7, r0, lsl #16
    27d0:	0017d400 	andseq	sp, r7, r0, lsl #8
    27d4:	08c81c00 	stmiaeq	r8, {sl, fp, ip}^
    27d8:	b21b0000 	andslt	r0, fp, #0, 0
    27dc:	fc000008 	stc2	0, cr0, [r0], {8}
    27e0:	f6000017 			; <UNDEFINED> instruction: 0xf6000017
    27e4:	1b000017 	blne	2848 <__code_start__-0x57b8>
    27e8:	000008a6 	andeq	r0, r0, r6, lsr #17
    27ec:	0000182f 	andeq	r1, r0, pc, lsr #16
    27f0:	0000182b 	andeq	r1, r0, fp, lsr #16
    27f4:	00030813 	andeq	r0, r3, r3, lsl r8
    27f8:	08ec1d00 	stmiaeq	ip!, {r8, sl, fp, ip}^
    27fc:	91030000 	mrsls	r0, (UNDEF: 3)
    2800:	f81e7ed8 			; <UNDEFINED> instruction: 0xf81e7ed8
    2804:	59000008 	stmdbpl	r0, {r3}
    2808:	4f000018 	svcmi	0x00000018
    280c:	1e000018 	mcrne	0, 0, r0, cr0, cr8, {0}
    2810:	00000902 	andeq	r0, r0, r2, lsl #18
    2814:	0000189e 	muleq	r0, lr, r8
    2818:	0000189a 	muleq	r0, sl, r8
    281c:	0009a31a 	andeq	sl, r9, sl, lsl r3
    2820:	00936000 	addseq	r6, r3, r0
    2824:	28000300 	stmdacs	r0, {r8, r9}
    2828:	01000003 	tsteq	r0, r3
    282c:	0720097c 			; <UNDEFINED> instruction: 0x0720097c
    2830:	ca1b0000 	bgt	6c2838 <__bss_end__+0x6b7a60>
    2834:	c0000009 	andgt	r0, r0, r9
    2838:	bc000018 	stclt	0, cr0, [r0], {24}
    283c:	1b000018 	blne	28a4 <__code_start__-0x575c>
    2840:	000009be 			; <UNDEFINED> instruction: 0x000009be
    2844:	000018e2 	andeq	r1, r0, r2, ror #17
    2848:	000018de 	ldrdeq	r1, [r0], -lr
    284c:	0009b41b 	andeq	fp, r9, fp, lsl r4
    2850:	00190c00 	andseq	r0, r9, r0, lsl #24
    2854:	00190000 	andseq	r0, r9, r0
    2858:	03281300 			; <UNDEFINED> instruction: 0x03281300
    285c:	d61e0000 	ldrle	r0, [lr], -r0
    2860:	68000009 	stmdavs	r0, {r0, r3}
    2864:	5c000019 	stcpl	0, cr0, [r0], {25}
    2868:	00000019 	andeq	r0, r0, r9, lsl r0
    286c:	094f2000 	stmdbeq	pc, {sp}^	; <UNPREDICTABLE>
    2870:	93e80000 	mvnls	r0, #0, 0
    2874:	00020000 	andeq	r0, r2, r0
    2878:	00000350 	andeq	r0, r0, r0, asr r3
    287c:	1b097c01 	blne	261888 <__bss_end__+0x256ab0>
    2880:	00000980 	andeq	r0, r0, r0, lsl #19
    2884:	000019b8 			; <UNDEFINED> instruction: 0x000019b8
    2888:	000019b4 			; <UNDEFINED> instruction: 0x000019b4
    288c:	0009761b 	andeq	r7, r9, fp, lsl r6
    2890:	0019e000 	andseq	lr, r9, r0
    2894:	0019d600 	andseq	sp, r9, r0, lsl #12
    2898:	096c1b00 	stmdbeq	ip!, {r8, r9, fp, ip}^
    289c:	1a2c0000 	bne	b028a4 <__bss_end__+0xaf7acc>
    28a0:	1a280000 	bne	a028a8 <__bss_end__+0x9f7ad0>
    28a4:	601b0000 	andsvs	r0, fp, r0
    28a8:	5a000009 	bpl	28d4 <__code_start__-0x572c>
    28ac:	4e00001a 	mcrmi	0, 0, r0, cr0, cr10, {0}
    28b0:	1300001a 	movwne	r0, #26
    28b4:	00000350 	andeq	r0, r0, r0, asr r3
    28b8:	00098c1e 	andeq	r8, r9, lr, lsl ip
    28bc:	001ab400 	andseq	fp, sl, r0, lsl #8
    28c0:	001ab000 	andseq	fp, sl, r0
    28c4:	09981e00 	ldmibeq	r8, {r9, sl, fp, ip}
    28c8:	1ada0000 	bne	ff6828d0 <__bss_end__+0xff677af8>
    28cc:	1ad60000 	bne	ff5828d4 <__bss_end__+0xff577afc>
    28d0:	00000000 	andeq	r0, r0, r0
    28d4:	14170000 	ldrne	r0, [r7], #-0
    28d8:	a4000091 	strge	r0, [r0], #-145	; 0xffffff6f
    28dc:	af00000a 	svcge	0x0000000a
    28e0:	18000007 	stmdane	r0, {r0, r1, r2}
    28e4:	40015001 	andmi	r5, r1, r1
    28e8:	03510118 	cmpeq	r1, #6
    28ec:	187dd091 	ldmdane	sp!, {r0, r4, r7, ip, lr, pc}^
    28f0:	75025301 	strvc	r5, [r2, #-769]	; 0xfffffcff
    28f4:	7d021800 	stcvc	8, cr1, [r2, #-0]
    28f8:	00300100 	eorseq	r0, r0, r0, lsl #2
    28fc:	00922417 	addseq	r2, r2, r7, lsl r4
    2900:	000aa400 	andeq	sl, sl, r0, lsl #8
    2904:	0007cf00 	andeq	ip, r7, r0, lsl #30
    2908:	50011800 	andpl	r1, r1, r0, lsl #16
    290c:	01183a01 	tsteq	r8, r1, lsl #20
    2910:	d0910351 	addsle	r0, r1, r1, asr r3
    2914:	5301187d 	movwpl	r1, #6269	; 0x187d
    2918:	00007502 	andeq	r7, r0, r2, lsl #10
    291c:	00950817 	addseq	r0, r5, r7, lsl r8
    2920:	000c4600 	andeq	r4, ip, r0, lsl #12
    2924:	0007e600 	andeq	lr, r7, r0, lsl #12
    2928:	50011800 	andpl	r1, r1, r0, lsl #16
    292c:	a7200305 	strge	r0, [r0, -r5, lsl #6]!
    2930:	21000000 	mrscs	r0, (UNDEF: 0)
    2934:	00009518 	andeq	r9, r0, r8, lsl r5
    2938:	000007f8 	strdeq	r0, [r0], -r8
    293c:	04500118 	ldrbeq	r0, [r0], #-280	; 0xfffffee8
    2940:	067dc891 			; <UNDEFINED> instruction: 0x067dc891
    2944:	952c1700 	strls	r1, [ip, #-1792]!	; 0xfffff900
    2948:	0c460000 	mareq	acc0, r0, r6
    294c:	08270000 	stmdaeq	r7!, {}	; <UNPREDICTABLE>
    2950:	01180000 	tsteq	r8, r0
    2954:	50030550 	andpl	r0, r3, r0, asr r5
    2958:	180000a7 	stmdane	r0, {r0, r1, r2, r5, r7}
    295c:	03055101 	movweq	r5, #20737	; 0x5101
    2960:	0000a630 	andeq	sl, r0, r0, lsr r6
    2964:	05520118 	ldrbeq	r0, [r2, #-280]	; 0xfffffee8
    2968:	00a78803 	adceq	r8, r7, r3, lsl #16
    296c:	53011800 	movwpl	r1, #6144	; 0x1800
    2970:	00e20802 	rsceq	r0, r2, r2, lsl #16
    2974:	00953019 	addseq	r3, r5, r9, lsl r0
    2978:	000c7600 	andeq	r7, ip, r0, lsl #12
    297c:	95441700 	strbls	r1, [r4, #-1792]	; 0xfffff900
    2980:	0c460000 	mareq	acc0, r0, r6
    2984:	085f0000 	ldmdaeq	pc, {}^	; <UNPREDICTABLE>
    2988:	01180000 	tsteq	r8, r0
    298c:	f8030550 			; <UNDEFINED> instruction: 0xf8030550
    2990:	180000a6 	stmdane	r0, {r1, r2, r5, r7}
    2994:	03055101 	movweq	r5, #20737	; 0x5101
    2998:	0000a630 	andeq	sl, r0, r0, lsr r6
    299c:	05520118 	ldrbeq	r0, [r2, #-280]	; 0xfffffee8
    29a0:	00a78803 	adceq	r8, r7, r3, lsl #16
    29a4:	53011800 	movwpl	r1, #6144	; 0x1800
    29a8:	00be0802 	adcseq	r0, lr, r2, lsl #16
    29ac:	00954819 	addseq	r4, r5, r9, lsl r8
    29b0:	000c7600 	andeq	r7, ip, r0, lsl #12
    29b4:	08000000 	stmdaeq	r0, {}	; <UNPREDICTABLE>
    29b8:	0000b904 	andeq	fp, r0, r4, lsl #18
    29bc:	00c02200 	sbceq	r2, r0, r0, lsl #4
    29c0:	08800000 	stmeq	r0, {}	; <UNPREDICTABLE>
    29c4:	2c230000 	stccs	0, cr0, [r3], #-0
    29c8:	09000000 	stmdbeq	r0, {}	; <UNPREDICTABLE>
    29cc:	08700900 	ldmdaeq	r0!, {r8, fp}^
    29d0:	b9220000 	stmdblt	r2!, {}	; <UNPREDICTABLE>
    29d4:	95000000 	strls	r0, [r0, #-0]
    29d8:	23000008 	movwcs	r0, #8
    29dc:	0000002c 	andeq	r0, r0, ip, lsr #32
    29e0:	6f24007f 	svcvs	0x0024007f
    29e4:	01000006 	tsteq	r0, r6
    29e8:	086a0149 	stmdaeq	sl!, {r0, r3, r6, r8}^
    29ec:	2a010000 	bcs	429f4 <__bss_end__+0x37c1c>
    29f0:	25000009 	strcs	r0, [r0, #-9]
    29f4:	00000344 	andeq	r0, r0, r4, asr #6
    29f8:	2c0f4901 			; <UNDEFINED> instruction: 0x2c0f4901
    29fc:	26000000 	strcs	r0, [r0], -r0
    2a00:	00747364 	rsbseq	r7, r4, r4, ror #6
    2a04:	6a1b4901 	bvs	6d4e10 <__bss_end__+0x6ca038>
    2a08:	26000008 	strcs	r0, [r0], -r8
    2a0c:	4901006e 	stmdbmi	r1, {r1, r2, r3, r5, r6}
    2a10:	00003324 	andeq	r3, r0, r4, lsr #6
    2a14:	61762600 	cmnvs	r6, r0, lsl #12
    2a18:	4901006c 	stmdbmi	r1, {r2, r3, r5, r6}
    2a1c:	0000332b 	andeq	r3, r0, fp, lsr #6
    2a20:	06182500 	ldreq	r2, [r8], -r0, lsl #10
    2a24:	49010000 	stmdbmi	r1, {}	; <UNPREDICTABLE>
    2a28:	00003334 	andeq	r3, r0, r4, lsr r3
    2a2c:	06a52500 	strteq	r2, [r5], r0, lsl #10
    2a30:	49010000 	stmdbmi	r1, {}	; <UNPREDICTABLE>
    2a34:	0000333f 	andeq	r3, r0, pc, lsr r3
    2a38:	75622700 	strbvc	r2, [r2, #-1792]!	; 0xfffff900
    2a3c:	4e010066 	cdpmi	0, 0, cr0, cr1, cr6, {3}
    2a40:	00092a07 	andeq	r2, r9, r7, lsl #20
    2a44:	00702700 	rsbseq	r2, r0, r0, lsl #14
    2a48:	6a114e01 	bvs	456254 <__bss_end__+0x44b47c>
    2a4c:	27000008 	strcs	r0, [r0, -r8]
    2a50:	4f010075 	svcmi	0x00010075
    2a54:	00002c0b 	andeq	r2, r0, fp, lsl #24
    2a58:	00901200 	addseq	r1, r0, r0, lsl #4
    2a5c:	094a0000 	stmdbeq	sl, {}^	; <UNPREDICTABLE>
    2a60:	03050000 	movweq	r0, #20480	; 0x5000
    2a64:	0000a770 	andeq	sl, r0, r0, ror r7
    2a68:	065c2928 	ldrbeq	r2, [ip], -r8, lsr #18
    2a6c:	54010000 	strpl	r0, [r1], #-0
    2a70:	00002c0d 	andeq	r2, r0, sp, lsl #24
    2a74:	22000000 	andcs	r0, r0, #0, 0
    2a78:	000000b9 	strheq	r0, [r0], -r9
    2a7c:	0000093a 	andeq	r0, r0, sl, lsr r9
    2a80:	00002c23 	andeq	r2, r0, r3, lsr #24
    2a84:	22003f00 	andcs	r3, r0, #0, 30
    2a88:	000000c0 	andeq	r0, r0, r0, asr #1
    2a8c:	0000094a 	andeq	r0, r0, sl, asr #18
    2a90:	00002c23 	andeq	r2, r0, r3, lsr #24
    2a94:	09000400 	stmdbeq	r0, {sl}
    2a98:	0000093a 	andeq	r0, r0, sl, lsr r9
    2a9c:	00067424 	andeq	r7, r6, r4, lsr #8
    2aa0:	0e380100 	rsfeqe	f0, f0, f0
    2aa4:	0000086a 	andeq	r0, r0, sl, ror #16
    2aa8:	0009a301 	andeq	sl, r9, r1, lsl #6
    2aac:	73642600 	cmnvc	r4, #0, 12
    2ab0:	38010074 	stmdacc	r1, {r2, r4, r5, r6}
    2ab4:	00086a1c 	andeq	r6, r8, ip, lsl sl
    2ab8:	006e2600 	rsbeq	r2, lr, r0, lsl #12
    2abc:	33253801 			; <UNDEFINED> instruction: 0x33253801
    2ac0:	26000000 	strcs	r0, [r0], -r0
    2ac4:	38010070 	stmdacc	r1, {r4, r5, r6}
    2ac8:	00086a2e 	andeq	r6, r8, lr, lsr #20
    2acc:	0a3f2500 	beq	fcbed4 <__bss_end__+0xfc10fc>
    2ad0:	38010000 	stmdacc	r1, {}	; <UNPREDICTABLE>
    2ad4:	00086a37 	andeq	r6, r8, r7, lsr sl
    2ad8:	656c2700 	strbvs	r2, [ip, #-1792]!	; 0xfffff900
    2adc:	3a01006e 	bcc	42c9c <__bss_end__+0x37ec4>
    2ae0:	00003306 	andeq	r3, r0, r6, lsl #6
    2ae4:	00732700 	rsbseq	r2, r3, r0, lsl #14
    2ae8:	6a083e01 	bvs	2122f4 <__bss_end__+0x20751c>
    2aec:	00000008 	andeq	r0, r0, r8
    2af0:	6461702a 	strbtvs	r7, [r1], #-42	; 0xffffffd6
    2af4:	0e2e0100 	sufeqe	f0, f6, f0
    2af8:	0000086a 	andeq	r0, r0, sl, ror #16
    2afc:	0009e301 	andeq	lr, r9, r1, lsl #6
    2b00:	00702600 	rsbseq	r2, r0, r0, lsl #12
    2b04:	6a182e01 	bvs	60e310 <__bss_end__+0x603538>
    2b08:	25000008 	strcs	r0, [r0, #-8]
    2b0c:	00000344 	andeq	r0, r0, r4, asr #6
    2b10:	6a222e01 	bvs	88e31c <__bss_end__+0x883544>
    2b14:	25000008 	strcs	r0, [r0, #-8]
    2b18:	00000618 	andeq	r0, r0, r8, lsl r6
    2b1c:	332c2e01 			; <UNDEFINED> instruction: 0x332c2e01
    2b20:	27000000 	strcs	r0, [r0, -r0]
    2b24:	006e656c 	rsbeq	r6, lr, ip, ror #10
    2b28:	33062f01 	movwcc	r2, #28417	; 0x6f01
    2b2c:	00000000 	andeq	r0, r0, r0
    2b30:	0005e524 	andeq	lr, r5, r4, lsr #10
    2b34:	0c270100 	stfeqs	f0, [r7], #-0
    2b38:	00000033 	andeq	r0, r0, r3, lsr r0
    2b3c:	0009ff01 	andeq	pc, r9, r1, lsl #30
    2b40:	00632600 	rsbeq	r2, r3, r0, lsl #12
    2b44:	33182701 	tstcc	r8, #262144	; 0x40000
    2b48:	00000000 	andeq	r0, r0, r0
    2b4c:	0006352b 	andeq	r3, r6, fp, lsr #10
    2b50:	061f0100 	ldreq	r0, [pc], -r0, lsl #2
    2b54:	00008f60 	andeq	r8, r0, r0, ror #30
    2b58:	00000060 	andeq	r0, r0, r0, rrx
    2b5c:	0a8f9c01 	beq	fe3e9b68 <__bss_end__+0xfe3ded90>
    2b60:	1e0f0000 	cdpne	0, 0, cr0, cr15, cr0, {0}
    2b64:	01000006 	tsteq	r0, r6
    2b68:	009e1b1f 	addseq	r1, lr, pc, lsl fp
    2b6c:	1aff0000 	bne	fffc2b74 <__bss_end__+0xfffb7d9c>
    2b70:	1afb0000 	bne	ffec2b78 <__bss_end__+0xffeb7da0>
    2b74:	830f0000 	movwhi	r0, #61440	; 0xf000
    2b78:	01000006 	tsteq	r0, r6
    2b7c:	00d1301f 	sbcseq	r3, r1, pc, lsl r0
    2b80:	1b240000 	blne	902b88 <__bss_end__+0x8f7db0>
    2b84:	1b200000 	blne	802b8c <__bss_end__+0x7f7db4>
    2b88:	90120000 	andsls	r0, r2, r0
    2b8c:	9f000000 	svcls	0x00000000
    2b90:	0500000a 	streq	r0, [r0, #-10]
    2b94:	00a77803 	adceq	r7, r7, r3, lsl #16
    2b98:	8fa41700 	svchi	0x00a41700
    2b9c:	0c460000 	mareq	acc0, r0, r6
    2ba0:	0a850000 	beq	fe142ba8 <__bss_end__+0xfe137dd0>
    2ba4:	01180000 	tsteq	r8, r0
    2ba8:	28030550 	stmdacs	r3, {r4, r6, r8, sl}
    2bac:	180000a1 	stmdane	r0, {r0, r5, r7}
    2bb0:	03055101 	movweq	r5, #20737	; 0x5101
    2bb4:	0000a630 	andeq	sl, r0, r0, lsr r6
    2bb8:	05520118 	ldrbeq	r0, [r2, #-280]	; 0xfffffee8
    2bbc:	00a77803 	adceq	r7, r7, r3, lsl #16
    2bc0:	53011800 	movwpl	r1, #6144	; 0x1800
    2bc4:	18200802 	stmdane	r0!, {r1, fp}
    2bc8:	05007d02 	streq	r7, [r0, #-3330]	; 0xfffff2fe
    2bcc:	00a66803 	adceq	r6, r6, r3, lsl #16
    2bd0:	a8190000 	ldmdage	r9, {}	; <UNPREDICTABLE>
    2bd4:	7600008f 	strvc	r0, [r0], -pc, lsl #1
    2bd8:	0000000c 	andeq	r0, r0, ip
    2bdc:	0000c022 	andeq	ip, r0, r2, lsr #32
    2be0:	000a9f00 	andeq	r9, sl, r0, lsl #30
    2be4:	002c2300 	eoreq	r2, ip, r0, lsl #6
    2be8:	000e0000 	andeq	r0, lr, r0
    2bec:	000a8f09 	andeq	r8, sl, r9, lsl #30
    2bf0:	08952c00 	ldmeq	r5, {sl, fp, sp}
    2bf4:	8c380000 	ldchi	0, cr0, [r8], #-0
    2bf8:	03280000 			; <UNDEFINED> instruction: 0x03280000
    2bfc:	9c010000 	stcls	0, cr0, [r1], {-0}
    2c00:	00000c3a 	andeq	r0, r0, sl, lsr ip
    2c04:	0008a61b 	andeq	sl, r8, fp, lsl r6
    2c08:	001b5d00 	andseq	r5, fp, r0, lsl #26
    2c0c:	001b4500 	andseq	r4, fp, r0, lsl #10
    2c10:	08b21b00 	ldmeq	r2!, {r8, r9, fp, ip}
    2c14:	1c070000 	stcne	0, cr0, [r7], {-0}
    2c18:	1bff0000 	blne	fffc2c20 <__bss_end__+0xfffb7e48>
    2c1c:	c81b0000 	ldmdagt	fp, {}	; <UNPREDICTABLE>
    2c20:	5e000008 	cdppl	0, 0, cr0, cr0, cr8, {0}
    2c24:	3e00001c 	mcrcc	0, 0, r0, cr0, cr12, {0}
    2c28:	1b00001c 	blne	2ca0 <__code_start__-0x5360>
    2c2c:	000008d4 	ldrdeq	r0, [r0], -r4
    2c30:	00001d34 	andeq	r1, r0, r4, lsr sp
    2c34:	00001d26 	andeq	r1, r0, r6, lsr #26
    2c38:	0008e02d 	andeq	lr, r8, sp, lsr #32
    2c3c:	00910200 	addseq	r0, r1, r0, lsl #4
    2c40:	0008ec1d 	andeq	lr, r8, sp, lsl ip
    2c44:	a8910300 	ldmge	r1, {r8, r9}
    2c48:	08f81e7f 	ldmeq	r8!, {r0, r1, r2, r3, r4, r5, r6, r9, sl, fp, ip}^
    2c4c:	1dc80000 	stclne	0, cr0, [r8]
    2c50:	1d940000 	ldcne	0, cr0, [r4]
    2c54:	021e0000 	andseq	r0, lr, #0, 0
    2c58:	2f000009 	svccs	0x00000009
    2c5c:	0d00001f 	stceq	0, cr0, [r0, #-124]	; 0xffffff84
    2c60:	2e00001f 	mcrcs	0, 0, r0, cr0, cr15, {0}
    2c64:	000008be 			; <UNDEFINED> instruction: 0x000008be
    2c68:	09a31a80 	stmibeq	r3!, {r7, r9, fp, ip}
    2c6c:	8cdc0000 	ldclhi	0, cr0, [ip], {0}
    2c70:	00040000 	andeq	r0, r4, r0
    2c74:	000001a0 	andeq	r0, r0, r0, lsr #3
    2c78:	6d097c01 	stcvs	12, cr7, [r9, #-4]
    2c7c:	1b00000b 	blne	2cb0 <__code_start__-0x5350>
    2c80:	000009ca 	andeq	r0, r0, sl, asr #19
    2c84:	00002017 	andeq	r2, r0, r7, lsl r0
    2c88:	0000200d 	andeq	r2, r0, sp
    2c8c:	0009be1b 	andeq	fp, r9, fp, lsl lr
    2c90:	00206b00 	eoreq	r6, r0, r0, lsl #22
    2c94:	00205b00 	eoreq	r5, r0, r0, lsl #22
    2c98:	09b41b00 	ldmibeq	r4!, {r8, r9, fp, ip}
    2c9c:	20eb0000 	rsccs	r0, fp, r0
    2ca0:	20d70000 	sbcscs	r0, r7, r0
    2ca4:	a0130000 	andsge	r0, r3, r0
    2ca8:	1e000001 	cdpne	0, 0, cr0, cr0, cr1, {0}
    2cac:	000009d6 	ldrdeq	r0, [r0], -r6
    2cb0:	0000217d 	andeq	r2, r0, sp, ror r1
    2cb4:	0000216d 	andeq	r2, r0, sp, ror #2
    2cb8:	4f1a0000 	svcmi	0x001a0000
    2cbc:	94000009 	strls	r0, [r0], #-9
    2cc0:	0200008d 	andeq	r0, r0, #141, 0	; 0x8d
    2cc4:	0001e800 	andeq	lr, r1, r0, lsl #16
    2cc8:	097c0100 	ldmdbeq	ip!, {r8}^
    2ccc:	00000bd8 	ldrdeq	r0, [r0], -r8
    2cd0:	0009801b 	andeq	r8, r9, fp, lsl r0
    2cd4:	0021e900 	eoreq	lr, r1, r0, lsl #18
    2cd8:	0021e100 	eoreq	lr, r1, r0, lsl #2
    2cdc:	09761b00 	ldmdbeq	r6!, {r8, r9, fp, ip}^
    2ce0:	22280000 	eorcs	r0, r8, #0, 0
    2ce4:	22200000 	eorcs	r0, r0, #0, 0
    2ce8:	6c1b0000 	ldcvs	0, cr0, [fp], {-0}
    2cec:	67000009 	strvs	r0, [r0, -r9]
    2cf0:	63000022 	movwvs	r0, #34	; 0x22
    2cf4:	1b000022 	blne	2d84 <__code_start__-0x527c>
    2cf8:	00000960 	andeq	r0, r0, r0, ror #18
    2cfc:	00002297 	muleq	r0, r7, r2
    2d00:	00002289 	andeq	r2, r0, r9, lsl #5
    2d04:	0001e813 	andeq	lr, r1, r3, lsl r8
    2d08:	098c1e00 	stmibeq	ip, {r9, sl, fp, ip}
    2d0c:	22fc0000 	rscscs	r0, ip, #0, 0
    2d10:	22f60000 	rscscs	r0, r6, #0, 0
    2d14:	981e0000 	ldmdals	lr, {}	; <UNPREDICTABLE>
    2d18:	2e000009 	cdpcs	0, 0, cr0, cr0, cr9, {0}
    2d1c:	2a000023 	bcs	2db0 <__code_start__-0x5250>
    2d20:	00000023 	andeq	r0, r0, r3, lsr #32
    2d24:	091b2f00 	ldmdbeq	fp, {r8, r9, sl, fp, sp}
    2d28:	8e4c0000 	cdphi	0, 4, cr0, cr12, cr0, {0}
    2d2c:	00600000 	rsbeq	r0, r0, r0
    2d30:	0bf70000 	bleq	ffdc2d38 <__bss_end__+0xffdb7f60>
    2d34:	1c1e0000 	ldcne	0, cr0, [lr], {-0}
    2d38:	50000009 	andpl	r0, r0, r9
    2d3c:	4c000023 	stcmi	0, cr0, [r0], {35}	; 0x23
    2d40:	00000023 	andeq	r0, r0, r3, lsr #32
    2d44:	008f2017 	addeq	r2, pc, r7, lsl r0	; <UNPREDICTABLE>
    2d48:	000c4600 	andeq	r4, ip, r0, lsl #12
    2d4c:	000c3000 	andeq	r3, ip, r0
    2d50:	50011800 	andpl	r1, r1, r0, lsl #16
    2d54:	a1280305 			; <UNDEFINED> instruction: 0xa1280305
    2d58:	01180000 	tsteq	r8, r0
    2d5c:	30030551 	andcc	r0, r3, r1, asr r5
    2d60:	180000a6 	stmdane	r0, {r1, r2, r5, r7}
    2d64:	03055201 	movweq	r5, #20993	; 0x5201
    2d68:	0000a770 	andeq	sl, r0, r0, ror r7
    2d6c:	02530118 	subseq	r0, r3, #6
    2d70:	02187908 	andseq	r7, r8, #8, 18	; 0x20000
    2d74:	0305007d 	movweq	r0, #20605	; 0x507d
    2d78:	0000a4a0 	andeq	sl, r0, r0, lsr #9
    2d7c:	8f241900 	svchi	0x00241900
    2d80:	0c760000 	ldcleq	0, cr0, [r6], #-0
    2d84:	30000000 	andcc	r0, r0, r0
    2d88:	0000069d 	muleq	r0, sp, r6
    2d8c:	0000069d 	muleq	r0, sp, r6
    2d90:	3005eb03 	andcc	lr, r5, r3, lsl #22
    2d94:	00000594 	muleq	r0, r4, r5
    2d98:	00000594 	muleq	r0, r4, r5
    2d9c:	30062803 	andcc	r2, r6, r3, lsl #16
    2da0:	0000064e 	andeq	r0, r0, lr, asr #12
    2da4:	0000064e 	andeq	r0, r0, lr, asr #12
    2da8:	3007ee03 	andcc	lr, r7, r3, lsl #28
    2dac:	0000067c 	andeq	r0, r0, ip, ror r6
    2db0:	0000067c 	andeq	r0, r0, ip, ror r6
    2db4:	3005ea03 	andcc	lr, r5, r3, lsl #20
    2db8:	00000655 	andeq	r0, r0, r5, asr r6
    2dbc:	00000655 	andeq	r0, r0, r5, asr r6
    2dc0:	3007ed03 	andcc	lr, r7, r3, lsl #26
    2dc4:	000000a7 	andeq	r0, r0, r7, lsr #1
    2dc8:	000000a7 	andeq	r0, r0, r7, lsr #1
    2dcc:	00066e03 	andeq	r6, r6, r3, lsl #28
    2dd0:	0000012f 	andeq	r0, r0, pc, lsr #2
    2dd4:	10000004 	andne	r0, r0, r4
    2dd8:	01040000 	mrseq	r0, (UNDEF: 4)
    2ddc:	000004b2 			; <UNDEFINED> instruction: 0x000004b2
    2de0:	0006c20c 	andeq	ip, r6, ip, lsl #4
    2de4:	00056a00 	andeq	r6, r5, r0, lsl #20
    2de8:	0095ec00 	addseq	lr, r5, r0, lsl #24
    2dec:	00002c00 	andeq	r2, r0, r0, lsl #24
    2df0:	00185300 	andseq	r5, r8, r0, lsl #6
    2df4:	05040200 	streq	r0, [r4, #-512]	; 0xfffffe00
    2df8:	00746e69 	rsbseq	r6, r4, r9, ror #28
    2dfc:	df070403 	svcle	0x00070403
    2e00:	03000001 	movweq	r0, #1
    2e04:	01770601 	cmneq	r7, r1, lsl #12
    2e08:	02030000 	andeq	r0, r3, #0, 0
    2e0c:	00002105 	andeq	r2, r0, r5, lsl #2
    2e10:	05040300 	streq	r0, [r4, #-768]	; 0xfffffd00
    2e14:	00000056 	andeq	r0, r0, r6, asr r0
    2e18:	51050803 	tstpl	r5, r3, lsl #16
    2e1c:	03000000 	movweq	r0, #0
    2e20:	01750801 	cmneq	r5, r1, lsl #16
    2e24:	02030000 	andeq	r0, r3, #0, 0
    2e28:	00020607 	andeq	r0, r2, r7, lsl #12
    2e2c:	07040300 	streq	r0, [r4, -r0, lsl #6]
    2e30:	000001da 	ldrdeq	r0, [r0], -sl
    2e34:	d5070803 	strle	r0, [r7, #-2051]	; 0xfffff7fd
    2e38:	04000001 	streq	r0, [r0], #-1
    2e3c:	00000025 	andeq	r0, r0, r5, lsr #32
    2e40:	0000007a 	andeq	r0, r0, sl, ror r0
    2e44:	00002505 	andeq	r2, r0, r5, lsl #10
    2e48:	2b060000 	blcs	182e50 <__bss_end__+0x178078>
    2e4c:	02000000 	andeq	r0, r0, #0, 0
    2e50:	00860e1c 	addeq	r0, r6, ip, lsl lr
    2e54:	04070000 	streq	r0, [r7], #-0
    2e58:	0000006b 	andeq	r0, r0, fp, rrx
    2e5c:	00002504 	andeq	r2, r0, r4, lsl #10
    2e60:	00009b00 	andeq	r9, r0, r0, lsl #22
    2e64:	009b0500 	addseq	r0, fp, r0, lsl #10
    2e68:	07000000 	streq	r0, [r0, -r0]
    2e6c:	0000a804 	andeq	sl, r0, r4, lsl #16
    2e70:	08010300 	stmdaeq	r1, {r8, r9}
    2e74:	0000017e 	andeq	r0, r0, lr, ror r1
    2e78:	0000a108 	andeq	sl, r0, r8, lsl #2
    2e7c:	05d20600 	ldrbeq	r0, [r2, #1536]	; 0x600
    2e80:	21020000 	mrscs	r0, (UNDEF: 2)
    2e84:	0000b90e 	andeq	fp, r0, lr, lsl #18
    2e88:	8c040700 	stchi	7, cr0, [r4], {-0}
    2e8c:	09000000 	stmdbeq	r0, {}	; <UNPREDICTABLE>
    2e90:	000000a7 	andeq	r0, r0, r7, lsr #1
    2e94:	ec060401 	cfstrs	mvf0, [r6], {1}
    2e98:	2c000095 	stccs	0, cr0, [r0], {149}	; 0x95
    2e9c:	01000000 	mrseq	r0, (UNDEF: 0)
    2ea0:	00010e9c 	muleq	r1, ip, lr
    2ea4:	96000a00 	strls	r0, [r0], -r0, lsl #20
    2ea8:	00e80000 	rsceq	r0, r8, r0
    2eac:	010b0000 	mrseq	r0, (UNDEF: 11)
    2eb0:	94030550 	strls	r0, [r3], #-1360	; 0xfffffab0
    2eb4:	000000a7 	andeq	r0, r0, r7, lsr #1
    2eb8:	0096040c 	addseq	r0, r6, ip, lsl #8
    2ebc:	00010e00 	andeq	r0, r1, r0, lsl #28
    2ec0:	960c0d00 	strls	r0, [ip], -r0, lsl #26
    2ec4:	011a0000 	tsteq	sl, r0
    2ec8:	01040000 	mrseq	r0, (UNDEF: 4)
    2ecc:	010b0000 	mrseq	r0, (UNDEF: 11)
    2ed0:	003a0150 	eorseq	r0, sl, r0, asr r1
    2ed4:	0096100c 	addseq	r1, r6, ip
    2ed8:	00012600 	andeq	r2, r1, r0, lsl #12
    2edc:	dd0e0000 	stcle	0, cr0, [lr, #-0]
    2ee0:	dd000006 	stcle	0, cr0, [r0, #-24]	; 0xffffffe8
    2ee4:	02000006 	andeq	r0, r0, #6, 0
    2ee8:	b90e064d 	stmdblt	lr, {r0, r2, r3, r6, r9, sl}
    2eec:	b9000006 	stmdblt	r0, {r1, r2}
    2ef0:	02000006 	andeq	r0, r0, #6, 0
    2ef4:	ae0e0658 	mcrge	6, 0, r0, cr14, cr8, {2}
    2ef8:	ae000006 	cdpge	0, 0, cr0, cr0, cr6, {0}
    2efc:	02000006 	andeq	r0, r0, #6, 0
    2f00:	9000066b 	andls	r0, r0, fp, ror #12
    2f04:	04000001 	streq	r0, [r0], #-1
    2f08:	0010c000 	andseq	ip, r0, r0
    2f0c:	b2010400 	andlt	r0, r1, #0, 8
    2f10:	0c000004 	stceq	0, cr0, [r0], {4}
    2f14:	00000713 	andeq	r0, r0, r3, lsl r7
    2f18:	0000056a 	andeq	r0, r0, sl, ror #10
    2f1c:	00009618 	andeq	r9, r0, r8, lsl r6
    2f20:	000000f8 	strdeq	r0, [r0], -r8
    2f24:	000018de 	ldrdeq	r1, [r0], -lr
    2f28:	69050402 	stmdbvs	r5, {r1, sl}
    2f2c:	0300746e 	movweq	r7, #1134	; 0x46e
    2f30:	01df0704 	bicseq	r0, pc, r4, lsl #14
    2f34:	01030000 	mrseq	r0, (UNDEF: 3)
    2f38:	00017706 	andeq	r7, r1, r6, lsl #14
    2f3c:	05020300 	streq	r0, [r2, #-768]	; 0xfffffd00
    2f40:	00000021 	andeq	r0, r0, r1, lsr #32
    2f44:	56050403 	strpl	r0, [r5], -r3, lsl #8
    2f48:	03000000 	movweq	r0, #0
    2f4c:	00510508 	subseq	r0, r1, r8, lsl #10
    2f50:	01030000 	mrseq	r0, (UNDEF: 3)
    2f54:	00017508 	andeq	r7, r1, r8, lsl #10
    2f58:	07020300 	streq	r0, [r2, -r0, lsl #6]
    2f5c:	00000206 	andeq	r0, r0, r6, lsl #4
    2f60:	da070403 	ble	1c3f74 <__bss_end__+0x1b919c>
    2f64:	03000001 	movweq	r0, #1
    2f68:	01d50708 	bicseq	r0, r5, r8, lsl #14
    2f6c:	25040000 	strcs	r0, [r4, #-0]
    2f70:	7a000000 	bvc	2f78 <__code_start__-0x5088>
    2f74:	05000000 	streq	r0, [r0, #-0]
    2f78:	00000025 	andeq	r0, r0, r5, lsr #32
    2f7c:	002b0600 	eoreq	r0, fp, r0, lsl #12
    2f80:	1c020000 	stcne	0, cr0, [r2], {-0}
    2f84:	0000860e 	andeq	r8, r0, lr, lsl #12
    2f88:	6b040700 	blvs	104b90 <__bss_end__+0xf9db8>
    2f8c:	04000000 	streq	r0, [r0], #-0
    2f90:	00000025 	andeq	r0, r0, r5, lsr #32
    2f94:	0000009b 	muleq	r0, fp, r0
    2f98:	00009b05 	andeq	r9, r0, r5, lsl #22
    2f9c:	04070000 	streq	r0, [r7], #-0
    2fa0:	000000a8 	andeq	r0, r0, r8, lsr #1
    2fa4:	7e080103 	adfvce	f0, f0, f3
    2fa8:	08000001 	stmdaeq	r0, {r0}
    2fac:	000000a1 	andeq	r0, r0, r1, lsr #1
    2fb0:	0005d206 	andeq	sp, r5, r6, lsl #4
    2fb4:	0e210200 	cdpeq	2, 2, cr0, cr1, cr0, {0}
    2fb8:	000000b9 	strheq	r0, [r0], -r9
    2fbc:	008c0407 	addeq	r0, ip, r7, lsl #8
    2fc0:	eb090000 	bl	242fc8 <__bss_end__+0x2381f0>
    2fc4:	01000006 	tsteq	r0, r6
    2fc8:	96180604 	ldrls	r0, [r8], -r4, lsl #12
    2fcc:	00f80000 	rscseq	r0, r8, r0
    2fd0:	9c010000 	stcls	0, cr0, [r1], {-0}
    2fd4:	0000015b 	andeq	r0, r0, fp, asr r1
    2fd8:	00038506 	andeq	r8, r3, r6, lsl #10
    2fdc:	10050100 	andne	r0, r5, r0, lsl #2
    2fe0:	00000025 	andeq	r0, r0, r5, lsr #32
    2fe4:	00043706 	andeq	r3, r4, r6, lsl #14
    2fe8:	1f050100 	svcne	0x00050100
    2fec:	00000025 	andeq	r0, r0, r5, lsr #32
    2ff0:	0001fe0a 	andeq	pc, r1, sl, lsl #28
    2ff4:	07060100 	streq	r0, [r6, -r0, lsl #2]
    2ff8:	7373620b 	cmnvc	r3, #-1342177280	; 0xb0000000
    2ffc:	0a0a0100 	beq	283404 <__bss_end__+0x27862c>
    3000:	0000015b 	andeq	r0, r0, fp, asr r1
    3004:	00002388 	andeq	r2, r0, r8, lsl #7
    3008:	00002370 	andeq	r2, r0, r0, ror r3
    300c:	0006f30c 	andeq	pc, r6, ip, lsl #6
    3010:	0a0b0100 	beq	2c3418 <__bss_end__+0x2b8640>
    3014:	0000015b 	andeq	r0, r0, fp, asr r1
    3018:	0096f00d 	addseq	pc, r6, sp
    301c:	00000800 	andeq	r0, r0, r0, lsl #16
    3020:	00013600 	andeq	r3, r1, r0, lsl #12
    3024:	6e690b00 	vmulvs.f64	d16, d9, d0
    3028:	05140100 	ldreq	r0, [r4, #-256]	; 0xffffff00
    302c:	0000002c 	andeq	r0, r0, ip, lsr #32
    3030:	00002422 	andeq	r2, r0, r2, lsr #8
    3034:	00002420 	andeq	r2, r0, r0, lsr #8
    3038:	96200e00 	strtls	r0, [r0], -r0, lsl #28
    303c:	01610000 	cmneq	r1, r0
    3040:	f00e0000 			; <UNDEFINED> instruction: 0xf00e0000
    3044:	6e000096 	mcrvs	0, 0, r0, cr0, cr6, {4}
    3048:	0e000001 	cdpeq	0, 0, cr0, cr0, cr1, {0}
    304c:	000096fc 	strdeq	r9, [r0], -ip
    3050:	0000017a 	andeq	r0, r0, sl, ror r1
    3054:	0097000e 	addseq	r0, r7, lr
    3058:	00018700 	andeq	r8, r1, r0, lsl #14
    305c:	04070000 	streq	r0, [r7], #-0
    3060:	00000025 	andeq	r0, r0, r5, lsr #32
    3064:	0007050f 	andeq	r0, r7, pc, lsl #10
    3068:	00070500 	andeq	r0, r7, r0, lsl #10
    306c:	01310200 	teqeq	r1, r0, lsl #4
    3070:	06fb1006 	ldrbteq	r1, [fp], r6
    3074:	06fb0000 	ldrbteq	r0, [fp], r0
    3078:	3b020000 	blcc	83080 <__bss_end__+0x782a8>
    307c:	01fe0f06 	mvnseq	r0, r6, lsl #30
    3080:	01fe0000 	mvnseq	r0, r0
    3084:	05020000 	streq	r0, [r2, #-0]
    3088:	a7100601 	ldrge	r0, [r0, -r1, lsl #12]
    308c:	a7000000 	strge	r0, [r0, -r0]
    3090:	02000000 	andeq	r0, r0, #0, 0
    3094:	ce00066e 	cfmadd32gt	mvax3, mvfx0, mvfx0, mvfx14
    3098:	04000000 	streq	r0, [r0], #-0
    309c:	0011ab00 	andseq	sl, r1, r0, lsl #22
    30a0:	b2010400 	andlt	r0, r1, #0, 8
    30a4:	0c000004 	stceq	0, cr0, [r0], {4}
    30a8:	00000728 	andeq	r0, r0, r8, lsr #14
    30ac:	0000056a 	andeq	r0, r0, sl, ror #10
    30b0:	00009710 	andeq	r9, r0, r0, lsl r7
    30b4:	00000004 	andeq	r0, r0, r4
    30b8:	000019f4 	strdeq	r1, [r0], -r4
    30bc:	69050402 	stmdbvs	r5, {r1, sl}
    30c0:	0300746e 	movweq	r7, #1134	; 0x46e
    30c4:	01df0704 	bicseq	r0, pc, r4, lsl #14
    30c8:	01030000 	mrseq	r0, (UNDEF: 3)
    30cc:	00017706 	andeq	r7, r1, r6, lsl #14
    30d0:	05020300 	streq	r0, [r2, #-768]	; 0xfffffd00
    30d4:	00000021 	andeq	r0, r0, r1, lsr #32
    30d8:	56050403 	strpl	r0, [r5], -r3, lsl #8
    30dc:	03000000 	movweq	r0, #0
    30e0:	00510508 	subseq	r0, r1, r8, lsl #10
    30e4:	01030000 	mrseq	r0, (UNDEF: 3)
    30e8:	00017508 	andeq	r7, r1, r8, lsl #10
    30ec:	07020300 	streq	r0, [r2, -r0, lsl #6]
    30f0:	00000206 	andeq	r0, r0, r6, lsl #4
    30f4:	da070403 	ble	1c4108 <__bss_end__+0x1b9330>
    30f8:	03000001 	movweq	r0, #1
    30fc:	01d50708 	bicseq	r0, r5, r8, lsl #14
    3100:	25040000 	strcs	r0, [r4, #-0]
    3104:	7a000000 	bvc	310c <__code_start__-0x4ef4>
    3108:	05000000 	streq	r0, [r0, #-0]
    310c:	00000025 	andeq	r0, r0, r5, lsr #32
    3110:	002b0600 	eoreq	r0, fp, r0, lsl #12
    3114:	1c020000 	stcne	0, cr0, [r2], {-0}
    3118:	0000860e 	andeq	r8, r0, lr, lsl #12
    311c:	6b040700 	blvs	104d24 <__bss_end__+0xf9f4c>
    3120:	04000000 	streq	r0, [r0], #-0
    3124:	00000025 	andeq	r0, r0, r5, lsr #32
    3128:	0000009b 	muleq	r0, fp, r0
    312c:	00009b05 	andeq	r9, r0, r5, lsl #22
    3130:	04070000 	streq	r0, [r7], #-0
    3134:	000000a8 	andeq	r0, r0, r8, lsr #1
    3138:	7e080103 	adfvce	f0, f0, f3
    313c:	08000001 	stmdaeq	r0, {r0}
    3140:	000000a1 	andeq	r0, r0, r1, lsr #1
    3144:	0005d206 	andeq	sp, r5, r6, lsl #4
    3148:	0e210200 	cdpeq	2, 2, cr0, cr1, cr0, {0}
    314c:	000000b9 	strheq	r0, [r0], -r9
    3150:	008c0407 	addeq	r0, ip, r7, lsl #8
    3154:	05090000 	streq	r0, [r9, #-0]
    3158:	01000007 	tsteq	r0, r7
    315c:	97100604 	ldrls	r0, [r0, -r4, lsl #12]
    3160:	00040000 	andeq	r0, r4, r0
    3164:	9c010000 	stcls	0, cr0, [r1], {-0}
    3168:	00027d00 	andeq	r7, r2, r0, lsl #26
    316c:	24000400 	strcs	r0, [r0], #-1024	; 0xfffffc00
    3170:	04000012 	streq	r0, [r0], #-18	; 0xffffffee
    3174:	0004b201 	andeq	fp, r4, r1, lsl #4
    3178:	07700c00 	ldrbeq	r0, [r0, -r0, lsl #24]!
    317c:	056a0000 	strbeq	r0, [sl, #-0]!
    3180:	03900000 	orrseq	r0, r0, #0, 0
    3184:	00000000 	andeq	r0, r0, r0
    3188:	1a750000 	bne	1d43190 <__bss_end__+0x1d383b8>
    318c:	04020000 	streq	r0, [r2], #-0
    3190:	746e6905 	strbtvc	r6, [lr], #-2309	; 0xfffff6fb
    3194:	00250300 	eoreq	r0, r5, r0, lsl #6
    3198:	04040000 	streq	r0, [r4], #-0
    319c:	0001df07 	andeq	sp, r1, r7, lsl #30
    31a0:	06010400 	streq	r0, [r1], -r0, lsl #8
    31a4:	00000177 	andeq	r0, r0, r7, ror r1
    31a8:	21050204 	tstcs	r5, r4, lsl #4
    31ac:	04000000 	streq	r0, [r0], #-0
    31b0:	00560504 	subseq	r0, r6, r4, lsl #10
    31b4:	08040000 	stmdaeq	r4, {}	; <UNPREDICTABLE>
    31b8:	00005105 	andeq	r5, r0, r5, lsl #2
    31bc:	08010400 	stmdaeq	r1, {sl}
    31c0:	00000175 	andeq	r0, r0, r5, ror r1
    31c4:	06070204 	streq	r0, [r7], -r4, lsl #4
    31c8:	04000002 	streq	r0, [r0], #-2
    31cc:	01da0704 	bicseq	r0, sl, r4, lsl #14
    31d0:	08040000 	stmdaeq	r4, {}	; <UNPREDICTABLE>
    31d4:	0001d507 	andeq	sp, r1, r7, lsl #10
    31d8:	00250500 	eoreq	r0, r5, r0, lsl #10
    31dc:	007f0000 	rsbseq	r0, pc, r0
    31e0:	25060000 	strcs	r0, [r6, #-0]
    31e4:	00000000 	andeq	r0, r0, r0
    31e8:	00002b07 	andeq	r2, r0, r7, lsl #22
    31ec:	0e1c0200 	cdpeq	2, 1, cr0, cr12, cr0, {0}
    31f0:	0000008b 	andeq	r0, r0, fp, lsl #1
    31f4:	00700408 	rsbseq	r0, r0, r8, lsl #8
    31f8:	25050000 	strcs	r0, [r5, #-0]
    31fc:	a0000000 	andge	r0, r0, r0
    3200:	06000000 	streq	r0, [r0], -r0
    3204:	000000a0 	andeq	r0, r0, r0, lsr #1
    3208:	ad040800 	stcge	8, cr0, [r4, #-0]
    320c:	04000000 	streq	r0, [r0], #-0
    3210:	017e0801 	cmneq	lr, r1, lsl #16
    3214:	a6030000 	strge	r0, [r3], -r0
    3218:	07000000 	streq	r0, [r0, -r0]
    321c:	000005d2 	ldrdeq	r0, [r0], -r2
    3220:	be0e2102 	adflte	f2, f6, f2
    3224:	08000000 	stmdaeq	r0, {}	; <UNPREDICTABLE>
    3228:	00009104 	andeq	r9, r0, r4, lsl #2
    322c:	07940900 	ldreq	r0, [r4, r0, lsl #18]
    3230:	0d010000 	stceq	0, cr0, [r1, #-0]
    3234:	00003111 	andeq	r3, r0, r1, lsl r1
    3238:	06ae0a00 	strteq	r0, [lr], r0, lsl #20
    323c:	1f010000 	svcne	0x00010000
    3240:	00974006 	addseq	r4, r7, r6
    3244:	00006000 	andeq	r6, r0, r0
    3248:	d59c0100 	ldrle	r0, [ip, #256]	; 0x100
    324c:	0b000001 	bleq	3258 <__code_start__-0x4da8>
    3250:	000007b8 			; <UNDEFINED> instruction: 0x000007b8
    3254:	2c0f2c01 	stccs	12, cr2, [pc], {1}
    3258:	1c000000 	stcne	0, cr0, [r0], {-0}
    325c:	0b201000 	bleq	807264 <__bss_end__+0x7fc48c>
    3260:	00000753 	andeq	r0, r0, r3, asr r7
    3264:	2c0f2d01 	stccs	13, cr2, [pc], {1}
    3268:	24000000 	strcs	r0, [r0], #-0
    326c:	0b201000 	bleq	807274 <__bss_end__+0x7fc49c>
    3270:	00000785 	andeq	r0, r0, r5, lsl #15
    3274:	2c0f2e01 	stccs	14, cr2, [pc], {1}
    3278:	00000000 	andeq	r0, r0, r0
    327c:	0c5a0000 	mraeq	r0, sl, acc0
    3280:	0000079f 	muleq	r0, pc, r7	; <UNPREDICTABLE>
    3284:	2c0f2f01 	stccs	15, cr2, [pc], {1}
    3288:	20000000 	andcs	r0, r0, r0
    328c:	0001ef0d 	andeq	lr, r1, sp, lsl #30
    3290:	00974000 	addseq	r4, r7, r0
    3294:	03780200 	cmneq	r8, #0, 4
    3298:	20010000 	andcs	r0, r1, r0
    329c:	00014c08 	andeq	r4, r1, r8, lsl #24
    32a0:	03780e00 	cmneq	r8, #0, 28
    32a4:	000f0000 	andeq	r0, pc, r0
    32a8:	3a000002 	bcc	32b8 <__code_start__-0x4d48>
    32ac:	36000024 	strcc	r0, [r0], -r4, lsr #32
    32b0:	00000024 	andeq	r0, r0, r4, lsr #32
    32b4:	01d51000 	bicseq	r1, r5, r0
    32b8:	97540000 	ldrbls	r0, [r4, -r0]
    32bc:	54010000 	strpl	r0, [r1], #-0
    32c0:	10000097 	mulne	r0, r7, r0
    32c4:	01000000 	mrseq	r0, (UNDEF: 0)
    32c8:	01730921 	cmneq	r3, r1, lsr #18
    32cc:	e20f0000 	and	r0, pc, #0, 0
    32d0:	61000001 	tstvs	r0, r1
    32d4:	59000024 	stmdbpl	r0, {r2, r5}
    32d8:	00000024 	andeq	r0, r0, r4, lsr #32
    32dc:	00976811 	addseq	r6, r7, r1, lsl r8
    32e0:	00024f00 	andeq	r4, r2, r0, lsl #30
    32e4:	976c1100 	strbls	r1, [ip, -r0, lsl #2]!
    32e8:	025c0000 	subseq	r0, ip, #0, 0
    32ec:	74120000 	ldrvc	r0, [r2], #-0
    32f0:	68000097 	stmdavs	r0, {r0, r1, r2, r4, r7}
    32f4:	98000002 	stmdals	r0, {r1}
    32f8:	13000001 	movwne	r0, #1
    32fc:	3a015001 	bcc	57308 <__bss_end__+0x4c530>
    3300:	97801200 	strls	r1, [r0, r0, lsl #4]
    3304:	02740000 	rsbseq	r0, r4, #0, 0
    3308:	01b80000 			; <UNDEFINED> instruction: 0x01b80000
    330c:	01130000 	tsteq	r3, r0
    3310:	240c0550 	strcs	r0, [ip], #-1360	; 0xfffffab0
    3314:	13201000 	nopne	{0}	; <UNPREDICTABLE>
    3318:	0c055101 	stfeqs	f5, [r5], {1}
    331c:	5a000001 	bpl	3328 <__code_start__-0x4cd8>
    3320:	978c1400 	strls	r1, [ip, r0, lsl #8]
    3324:	02740000 	rsbseq	r0, r4, #0, 0
    3328:	01130000 	tsteq	r3, r0
    332c:	1c0c0550 	cfstr32ne	mvfx0, [ip], {80}	; 0x50
    3330:	13201000 	nopne	{0}	; <UNPREDICTABLE>
    3334:	0c055101 	stfeqs	f5, [r5], {1}
    3338:	5a000020 	bpl	33c0 <__code_start__-0x4c40>
    333c:	61150000 	tstvs	r5, r0
    3340:	01000007 	tsteq	r0, r7
    3344:	ef010617 	svc	0x00010617
    3348:	09000001 	stmdbeq	r0, {r0}
    334c:	000007c0 	andeq	r0, r0, r0, asr #15
    3350:	310e1801 	tstcc	lr, r1, lsl #16
    3354:	00000000 	andeq	r0, r0, r0
    3358:	00079116 	andeq	r9, r7, r6, lsl r1
    335c:	050e0100 	streq	r0, [lr, #-256]	; 0xffffff00
    3360:	00000025 	andeq	r0, r0, r5, lsr #32
    3364:	00020d01 	andeq	r0, r2, r1, lsl #26
    3368:	07c00900 	strbeq	r0, [r0, r0, lsl #18]
    336c:	0f010000 	svceq	0x00010000
    3370:	0000310e 	andeq	r3, r0, lr, lsl #2
    3374:	ef170000 	svc	0x00170000
    3378:	14000001 	strne	r0, [r0], #-1
    337c:	18000097 	stmdane	r0, {r0, r1, r2, r4, r7}
    3380:	01000000 	mrseq	r0, (UNDEF: 0)
    3384:	00022e9c 	muleq	r2, ip, lr
    3388:	02000f00 	andeq	r0, r0, #0, 30
    338c:	249e0000 	ldrcs	r0, [lr], #0
    3390:	249a0000 	ldrcs	r0, [sl], #0
    3394:	17000000 	strne	r0, [r0, -r0]
    3398:	000001d5 	ldrdeq	r0, [r0], -r5
    339c:	0000972c 	andeq	r9, r0, ip, lsr #14
    33a0:	00000014 	andeq	r0, r0, r4, lsl r0
    33a4:	024f9c01 	subeq	r9, pc, #256	; 0x100
    33a8:	e20f0000 	and	r0, pc, #0, 0
    33ac:	c5000001 	strgt	r0, [r0, #-1]
    33b0:	bd000024 	stclt	0, cr0, [r0, #-144]	; 0xffffff70
    33b4:	00000024 	andeq	r0, r0, r4, lsr #32
    33b8:	00074418 	andeq	r4, r7, r8, lsl r4
    33bc:	00074400 	andeq	r4, r7, r0, lsl #8
    33c0:	01360200 	teqeq	r6, r0, lsl #4
    33c4:	06dd1906 	ldrbeq	r1, [sp], r6, lsl #18
    33c8:	06dd0000 	ldrbeq	r0, [sp], r0
    33cc:	4d020000 	stcmi	0, cr0, [r2, #-0]
    33d0:	06b91906 	ldrteq	r1, [r9], r6, lsl #18
    33d4:	06b90000 	ldrteq	r0, [r9], r0
    33d8:	58020000 	stmdapl	r2, {}	; <UNPREDICTABLE>
    33dc:	075b1906 	ldrbeq	r1, [fp, -r6, lsl #18]
    33e0:	075b0000 	ldrbeq	r0, [fp, -r0]
    33e4:	ad020000 	stcge	0, cr0, [r2, #-0]
    33e8:	053f0006 	ldreq	r0, [pc, #-6]!	; 33ea <__code_start__-0x4c16>
    33ec:	00040000 	andeq	r0, r4, r0
    33f0:	000013a7 	andeq	r1, r0, r7, lsr #7
    33f4:	04b20104 	ldrteq	r0, [r2], #260	; 0x104
    33f8:	db0c0000 	blle	303400 <__bss_end__+0x2f8628>
    33fc:	6a000007 	bvs	3420 <__code_start__-0x4be0>
    3400:	a0000005 	andge	r0, r0, r5
    3404:	1c000097 	stcne	0, cr0, [r0], {151}	; 0x97
    3408:	8d000001 	stchi	0, cr0, [r0, #-4]
    340c:	0200001b 	andeq	r0, r0, #27, 0
    3410:	6e690504 	cdpvs	5, 6, cr0, cr9, cr4, {0}
    3414:	04030074 	streq	r0, [r3], #-116	; 0xffffff8c
    3418:	0001df07 	andeq	sp, r1, r7, lsl #30
    341c:	06010300 	streq	r0, [r1], -r0, lsl #6
    3420:	00000177 	andeq	r0, r0, r7, ror r1
    3424:	21050203 	tstcs	r5, r3, lsl #4
    3428:	03000000 	movweq	r0, #0
    342c:	00560504 	subseq	r0, r6, r4, lsl #10
    3430:	08030000 	stmdaeq	r3, {}	; <UNPREDICTABLE>
    3434:	00005105 	andeq	r5, r0, r5, lsl #2
    3438:	08010300 	stmdaeq	r1, {r8, r9}
    343c:	00000175 	andeq	r0, r0, r5, ror r1
    3440:	06070203 	streq	r0, [r7], -r3, lsl #4
    3444:	03000002 	movweq	r0, #2
    3448:	01da0704 	bicseq	r0, sl, r4, lsl #14
    344c:	08030000 	stmdaeq	r3, {}	; <UNPREDICTABLE>
    3450:	0001d507 	andeq	sp, r1, r7, lsl #10
    3454:	00250400 	eoreq	r0, r5, r0, lsl #8
    3458:	007a0000 	rsbseq	r0, sl, r0
    345c:	25050000 	strcs	r0, [r5, #-0]
    3460:	00000000 	andeq	r0, r0, r0
    3464:	00002b06 	andeq	r2, r0, r6, lsl #22
    3468:	0e1c0200 	cdpeq	2, 1, cr0, cr12, cr0, {0}
    346c:	00000086 	andeq	r0, r0, r6, lsl #1
    3470:	006b0407 	rsbeq	r0, fp, r7, lsl #8
    3474:	25040000 	strcs	r0, [r4, #-0]
    3478:	9b000000 	blls	3480 <__code_start__-0x4b80>
    347c:	05000000 	streq	r0, [r0, #-0]
    3480:	0000009b 	muleq	r0, fp, r0
    3484:	a8040700 	stmdage	r4, {r8, r9, sl}
    3488:	03000000 	movweq	r0, #0
    348c:	017e0801 	cmneq	lr, r1, lsl #16
    3490:	a1080000 	mrsge	r0, (UNDEF: 8)
    3494:	06000000 	streq	r0, [r0], -r0
    3498:	000005d2 	ldrdeq	r0, [r0], -r2
    349c:	b90e2102 	stmdblt	lr, {r1, r8, sp}
    34a0:	07000000 	streq	r0, [r0, -r0]
    34a4:	00008c04 	andeq	r8, r0, r4, lsl #24
    34a8:	07d10900 	ldrbeq	r0, [r1, r0, lsl #18]
    34ac:	1e010000 	cdpne	0, 0, cr0, cr1, cr0, {0}
    34b0:	00986806 	addseq	r6, r8, r6, lsl #16
    34b4:	00005400 	andeq	r5, r0, r0, lsl #8
    34b8:	0b9c0100 	bleq	fe7038c0 <__bss_end__+0xfe6f8ae8>
    34bc:	0a000002 	beq	34cc <__code_start__-0x4b34>
    34c0:	00636573 	rsbeq	r6, r3, r3, ror r5
    34c4:	2c191e01 	ldccs	14, cr1, [r9], {1}
    34c8:	02000000 	andeq	r0, r0, #0, 0
    34cc:	fe000025 	cdp2	0, 0, cr0, cr0, cr5, {1}
    34d0:	0b000024 	bleq	3568 <__code_start__-0x4a98>
    34d4:	0000020b 	andeq	r0, r0, fp, lsl #4
    34d8:	00009868 	andeq	r9, r0, r8, ror #16
    34dc:	00045802 	andeq	r5, r4, r2, lsl #16
    34e0:	051f0100 	ldreq	r0, [pc, #-256]	; 33e8 <__code_start__-0x4c18>
    34e4:	0002180c 	andeq	r1, r2, ip, lsl #16
    34e8:	00252700 	eoreq	r2, r5, r0, lsl #14
    34ec:	00252300 	eoreq	r2, r5, r0, lsl #6
    34f0:	02240d00 	eoreq	r0, r4, #0, 26
    34f4:	987c0000 	ldmdals	ip!, {}^	; <UNPREDICTABLE>
    34f8:	7c000000 	stcvc	0, cr0, [r0], {-0}
    34fc:	40000098 	mulmi	r0, r8, r0
    3500:	01000000 	mrseq	r0, (UNDEF: 0)
    3504:	310c051c 	tstcc	ip, ip, lsl r5
    3508:	54000002 	strpl	r0, [r0], #-2
    350c:	52000025 	andpl	r0, r0, #37, 0	; 0x25
    3510:	0e000025 	cdpeq	0, 0, cr0, cr0, cr5, {1}
    3514:	0000023c 	andeq	r0, r0, ip, lsr r2
    3518:	00002569 	andeq	r2, r0, r9, ror #10
    351c:	00002567 	andeq	r2, r0, r7, ror #10
    3520:	0002550f 	andeq	r5, r2, pc, lsl #10
    3524:	00987c00 	addseq	r7, r8, r0, lsl #24
    3528:	987c0200 	ldmdals	ip!, {r9}^
    352c:	00140000 	andseq	r0, r4, r0
    3530:	13010000 	movwne	r0, #4096	; 0x1000
    3534:	00019c13 	andeq	r9, r1, r3, lsl ip
    3538:	02660e00 	rsbeq	r0, r6, #0, 28
    353c:	25800000 	strcs	r0, [r0]
    3540:	257c0000 	ldrbcs	r0, [ip, #-0]!
    3544:	710f0000 	mrsvc	r0, CPSR
    3548:	80000002 	andhi	r0, r0, r2
    354c:	01000098 	swpeq	r0, r8, [r0]	; <UNPREDICTABLE>
    3550:	00009880 	andeq	r9, r0, r0, lsl #17
    3554:	0000000c 	andeq	r0, r0, ip
    3558:	89120d01 	ldmdbhi	r2, {r0, r8, sl, fp}
    355c:	10000001 	andne	r0, r0, r1
    3560:	00009888 	andeq	r9, r0, r8, lsl #17
    3564:	0000052a 	andeq	r0, r0, sl, lsr #10
    3568:	05500111 	ldrbeq	r0, [r0, #-273]	; 0xfffffeef
    356c:	0030040c 	eorseq	r0, r0, ip, lsl #8
    3570:	12000020 	andne	r0, r0, #32, 0
    3574:	00009880 	andeq	r9, r0, r0, lsl #17
    3578:	00000536 	andeq	r0, r0, r6, lsr r5
    357c:	00989012 	addseq	r9, r8, r2, lsl r0
    3580:	00053600 	andeq	r3, r5, r0, lsl #12
    3584:	47130000 	ldrmi	r0, [r3, -r0]
    3588:	70000002 	andvc	r0, r0, r2
    358c:	14000004 	strne	r0, [r0], #-4
    3590:	00000248 	andeq	r0, r0, r8, asr #4
    3594:	0002550b 	andeq	r5, r2, fp, lsl #10
    3598:	00989400 	addseq	r9, r8, r0, lsl #8
    359c:	04880200 	streq	r0, [r8], #512	; 0x200
    35a0:	15010000 	strne	r0, [r1, #-0]
    35a4:	04881517 	streq	r1, [r8], #1303	; 0x517
    35a8:	660e0000 	strvs	r0, [lr], -r0
    35ac:	a0000002 	andge	r0, r0, r2
    35b0:	9e000025 	cdpls	0, 0, cr0, cr0, cr5, {1}
    35b4:	16000025 	strne	r0, [r0], -r5, lsr #32
    35b8:	00000271 	andeq	r0, r0, r1, ror r2
    35bc:	00009898 	muleq	r0, r8, r8
    35c0:	0004a801 	andeq	sl, r4, r1, lsl #16
    35c4:	120d0100 	andne	r0, sp, #0
    35c8:	000001f3 	strdeq	r0, [r0], -r3
    35cc:	0098a010 	addseq	sl, r8, r0, lsl r0
    35d0:	00052a00 	andeq	r2, r5, r0, lsl #20
    35d4:	50011100 	andpl	r1, r1, r0, lsl #2
    35d8:	00007702 	andeq	r7, r0, r2, lsl #14
    35dc:	98981200 	ldmls	r8, {r9, ip}
    35e0:	05360000 	ldreq	r0, [r6, #-0]!
    35e4:	ac120000 	ldcge	0, cr0, [r2], {-0}
    35e8:	36000098 			; <UNDEFINED> instruction: 0x36000098
    35ec:	00000005 	andeq	r0, r0, r5
    35f0:	00000000 	andeq	r0, r0, r0
    35f4:	06b91700 	ldrteq	r1, [r9], r0, lsl #14
    35f8:	1b010000 	blne	43600 <__bss_end__+0x38828>
    35fc:	02240106 	eoreq	r0, r4, #-2147483647	; 0x80000001
    3600:	6d180000 	ldcvs	0, cr0, [r8, #-0]
    3604:	1b010073 	blne	437d8 <__bss_end__+0x38a00>
    3608:	00002c18 	andeq	r2, r0, r8, lsl ip
    360c:	04170000 	ldreq	r0, [r7], #-0
    3610:	01000008 	tsteq	r0, r8
    3614:	55010612 	strpl	r0, [r1, #-1554]	; 0xfffff9ee
    3618:	18000002 	stmdane	r0, {r1}
    361c:	01007375 	tsteq	r0, r5, ror r3
    3620:	002c1812 	eoreq	r1, ip, r2, lsl r8
    3624:	72190000 	andsvc	r0, r9, #0, 0
    3628:	13010062 	movwne	r0, #4194	; 0x1062
    362c:	00002c0e 	andeq	r2, r0, lr, lsl #24
    3630:	72191a00 	andsvc	r1, r9, #0, 20
    3634:	15010061 	strne	r0, [r1, #-97]	; 0xffffff9f
    3638:	00002c12 	andeq	r2, r0, r2, lsl ip
    363c:	1b000000 	blne	3644 <__code_start__-0x49bc>
    3640:	000007f5 	strdeq	r0, [r0], -r5
    3644:	2c0a0901 			; <UNDEFINED> instruction: 0x2c0a0901
    3648:	01000000 	mrseq	r0, (UNDEF: 0)
    364c:	00000271 	andeq	r0, r0, r1, ror r2
    3650:	01007519 	tsteq	r0, r9, lsl r5
    3654:	002c0e0d 	eoreq	r0, ip, sp, lsl #28
    3658:	1c000000 	stcne	0, cr0, [r0], {-0}
    365c:	0000080d 	andeq	r0, r0, sp, lsl #16
    3660:	2c0a0401 	cfstrscs	mvf0, [sl], {1}
    3664:	01000000 	mrseq	r0, (UNDEF: 0)
    3668:	0002711d 	andeq	r7, r2, sp, lsl r1
    366c:	0097a000 	addseq	sl, r7, r0
    3670:	00000c00 	andeq	r0, r0, r0, lsl #24
    3674:	a59c0100 	ldrge	r0, [ip, #256]	; 0x100
    3678:	1e000002 	cdpne	0, 0, cr0, cr0, cr2, {0}
    367c:	000097a8 	andeq	r9, r0, r8, lsr #15
    3680:	0000052a 	andeq	r0, r0, sl, lsr #10
    3684:	05500111 	ldrbeq	r0, [r0, #-273]	; 0xfffffeef
    3688:	0030040c 	eorseq	r0, r0, ip, lsl #8
    368c:	1d000020 	stcne	0, cr0, [r0, #-128]	; 0xffffff80
    3690:	00000255 	andeq	r0, r0, r5, asr r2
    3694:	000097ac 	andeq	r9, r0, ip, lsr #15
    3698:	00000024 	andeq	r0, r0, r4, lsr #32
    369c:	03059c01 	movweq	r9, #23553	; 0x5c01
    36a0:	660e0000 	strvs	r0, [lr], -r0
    36a4:	b7000002 	strlt	r0, [r0, -r2]
    36a8:	b3000025 	movwlt	r0, #37	; 0x25
    36ac:	0f000025 	svceq	0x00000025
    36b0:	00000271 	andeq	r0, r0, r1, ror r2
    36b4:	000097b4 			; <UNDEFINED> instruction: 0x000097b4
    36b8:	0097b401 	addseq	fp, r7, r1, lsl #8
    36bc:	00000c00 	andeq	r0, r0, r0, lsl #24
    36c0:	120d0100 	andne	r0, sp, #0
    36c4:	000002f2 	strdeq	r0, [r0], -r2
    36c8:	0097bc10 	addseq	fp, r7, r0, lsl ip
    36cc:	00052a00 	andeq	r2, r5, r0, lsl #20
    36d0:	50011100 	andpl	r1, r1, r0, lsl #2
    36d4:	30040c05 	andcc	r0, r4, r5, lsl #24
    36d8:	00002000 	andeq	r2, r0, r0
    36dc:	0097b412 	addseq	fp, r7, r2, lsl r4
    36e0:	00053600 	andeq	r3, r5, r0, lsl #12
    36e4:	97c41200 	strbls	r1, [r4, r0, lsl #4]
    36e8:	05360000 	ldreq	r0, [r6, #-0]!
    36ec:	1d000000 	stcne	0, cr0, [r0, #-0]
    36f0:	00000224 	andeq	r0, r0, r4, lsr #4
    36f4:	000097d0 	ldrdeq	r9, [r0], -r0
    36f8:	00000048 	andeq	r0, r0, r8, asr #32
    36fc:	04079c01 	streq	r9, [r7], #-3073	; 0xfffff3ff
    3700:	310c0000 	mrscc	r0, (UNDEF: 12)
    3704:	d9000002 	stmdble	r0, {r1}
    3708:	d5000025 	strle	r0, [r0, #-37]	; 0xffffffdb
    370c:	0e000025 	cdpeq	0, 0, cr0, cr0, cr5, {1}
    3710:	0000023c 	andeq	r0, r0, ip, lsr r2
    3714:	000025f9 	strdeq	r2, [r0], -r9
    3718:	000025f7 	strdeq	r2, [r0], -r7
    371c:	00025516 	andeq	r5, r2, r6, lsl r5
    3720:	0097d000 	addseq	sp, r7, r0
    3724:	03a00200 	moveq	r0, #0, 4
    3728:	13010000 	movwne	r0, #4096	; 0x1000
    372c:	00039a13 	andeq	r9, r3, r3, lsl sl
    3730:	03a01500 	moveq	r1, #0, 10
    3734:	660e0000 	strvs	r0, [lr], -r0
    3738:	10000002 	andne	r0, r0, r2
    373c:	0c000026 	stceq	0, cr0, [r0], {38}	; 0x26
    3740:	0f000026 	svceq	0x00000026
    3744:	00000271 	andeq	r0, r0, r1, ror r2
    3748:	000097dc 	ldrdeq	r9, [r0], -ip
    374c:	0097dc01 	addseq	sp, r7, r1, lsl #24
    3750:	00000c00 	andeq	r0, r0, r0, lsl #24
    3754:	120d0100 	andne	r0, sp, #0
    3758:	00000386 	andeq	r0, r0, r6, lsl #7
    375c:	0097e410 	addseq	lr, r7, r0, lsl r4
    3760:	00052a00 	andeq	r2, r5, r0, lsl #20
    3764:	50011100 	andpl	r1, r1, r0, lsl #2
    3768:	30040c05 	andcc	r0, r4, r5, lsl #24
    376c:	00002000 	andeq	r2, r0, r0
    3770:	0097dc12 	addseq	sp, r7, r2, lsl ip
    3774:	00053600 	andeq	r3, r5, r0, lsl #12
    3778:	97ec1200 	strbls	r1, [ip, r0, lsl #4]!
    377c:	05360000 	ldreq	r0, [r6, #-0]!
    3780:	00000000 	andeq	r0, r0, r0
    3784:	00024713 	andeq	r4, r2, r3, lsl r7
    3788:	0003b800 	andeq	fp, r3, r0, lsl #16
    378c:	02481400 	subeq	r1, r8, #0, 8
    3790:	550b0000 	strpl	r0, [fp, #-0]
    3794:	f0000002 			; <UNDEFINED> instruction: 0xf0000002
    3798:	02000097 	andeq	r0, r0, #151, 0	; 0x97
    379c:	000003d0 	ldrdeq	r0, [r0], -r0	; <UNPREDICTABLE>
    37a0:	15171501 	ldrne	r1, [r7, #-1281]	; 0xfffffaff
    37a4:	000003d0 	ldrdeq	r0, [r0], -r0	; <UNPREDICTABLE>
    37a8:	0002660e 	andeq	r6, r2, lr, lsl #12
    37ac:	00263000 	eoreq	r3, r6, r0
    37b0:	00262e00 	eoreq	r2, r6, r0, lsl #28
    37b4:	02711600 	rsbseq	r1, r1, #0, 12
    37b8:	97f40000 	ldrbls	r0, [r4, r0]!
    37bc:	f0010000 			; <UNDEFINED> instruction: 0xf0010000
    37c0:	01000003 	tsteq	r0, r3
    37c4:	03f1120d 	mvnseq	r1, #-805306368	; 0xd0000000
    37c8:	fc100000 	ldc2	0, cr0, [r0], {-0}
    37cc:	2a000097 	bcs	3a30 <__code_start__-0x45d0>
    37d0:	11000005 	tstne	r0, r5
    37d4:	77025001 	strvc	r5, [r2, -r1]
    37d8:	12000000 	andne	r0, r0, #0, 0
    37dc:	000097f4 	strdeq	r9, [r0], -r4
    37e0:	00000536 	andeq	r0, r0, r6, lsr r5
    37e4:	00980812 	addseq	r0, r8, r2, lsl r8
    37e8:	00053600 	andeq	r3, r5, r0, lsl #12
    37ec:	00000000 	andeq	r0, r0, r0
    37f0:	020b1d00 	andeq	r1, fp, #0, 26
    37f4:	98180000 	ldmdals	r8, {}	; <UNPREDICTABLE>
    37f8:	00500000 	subseq	r0, r0, r0
    37fc:	9c010000 	stcls	0, cr0, [r1], {-0}
    3800:	0000052a 	andeq	r0, r0, sl, lsr #10
    3804:	0002180c 	andeq	r1, r2, ip, lsl #16
    3808:	00264700 	eoreq	r4, r6, r0, lsl #14
    380c:	00264300 	eoreq	r4, r6, r0, lsl #6
    3810:	02240d00 	eoreq	r0, r4, #0, 26
    3814:	98280000 	stmdals	r8!, {}	; <UNPREDICTABLE>
    3818:	28000000 	stmdacs	r0, {}	; <UNPREDICTABLE>
    381c:	40000098 	mulmi	r0, r8, r0
    3820:	01000000 	mrseq	r0, (UNDEF: 0)
    3824:	310c051c 	tstcc	ip, ip, lsl r5
    3828:	6a000002 	bvs	3838 <__code_start__-0x47c8>
    382c:	68000026 	stmdavs	r0, {r1, r2, r5}
    3830:	0e000026 	cdpeq	0, 0, cr0, cr0, cr6, {1}
    3834:	0000023c 	andeq	r0, r0, ip, lsr r2
    3838:	0000267f 	andeq	r2, r0, pc, ror r6
    383c:	0000267d 	andeq	r2, r0, sp, ror r6
    3840:	0002550f 	andeq	r5, r2, pc, lsl #10
    3844:	00982800 	addseq	r2, r8, r0, lsl #16
    3848:	98280200 	stmdals	r8!, {r9}
    384c:	00140000 	andseq	r0, r4, r0
    3850:	13010000 	movwne	r0, #4096	; 0x1000
    3854:	0004bc13 	andeq	fp, r4, r3, lsl ip
    3858:	02660e00 	rsbeq	r0, r6, #0, 28
    385c:	26960000 	ldrcs	r0, [r6], r0
    3860:	26920000 	ldrcs	r0, [r2], r0
    3864:	710f0000 	mrsvc	r0, CPSR
    3868:	2c000002 	stccs	0, cr0, [r0], {2}
    386c:	01000098 	swpeq	r0, r8, [r0]	; <UNPREDICTABLE>
    3870:	0000982c 	andeq	r9, r0, ip, lsr #16
    3874:	0000000c 	andeq	r0, r0, ip
    3878:	a9120d01 	ldmdbge	r2, {r0, r8, sl, fp}
    387c:	10000004 	andne	r0, r0, r4
    3880:	00009834 	andeq	r9, r0, r4, lsr r8
    3884:	0000052a 	andeq	r0, r0, sl, lsr #10
    3888:	05500111 	ldrbeq	r0, [r0, #-273]	; 0xfffffeef
    388c:	0030040c 	eorseq	r0, r0, ip, lsl #8
    3890:	12000020 	andne	r0, r0, #32, 0
    3894:	0000982c 	andeq	r9, r0, ip, lsr #16
    3898:	00000536 	andeq	r0, r0, r6, lsr r5
    389c:	00983c12 	addseq	r3, r8, r2, lsl ip
    38a0:	00053600 	andeq	r3, r5, r0, lsl #12
    38a4:	47130000 	ldrmi	r0, [r3, -r0]
    38a8:	08000002 	stmdaeq	r0, {r1}
    38ac:	14000004 	strne	r0, [r0], #-4
    38b0:	00000248 	andeq	r0, r0, r8, asr #4
    38b4:	0002550b 	andeq	r5, r2, fp, lsl #10
    38b8:	00984000 	addseq	r4, r8, r0
    38bc:	04200200 	strteq	r0, [r0], #-512	; 0xfffffe00
    38c0:	15010000 	strne	r0, [r1, #-0]
    38c4:	04201517 	strteq	r1, [r0], #-1303	; 0xfffffae9
    38c8:	660e0000 	strvs	r0, [lr], -r0
    38cc:	b6000002 	strlt	r0, [r0], -r2
    38d0:	b4000026 	strlt	r0, [r0], #-38	; 0xffffffda
    38d4:	16000026 	strne	r0, [r0], -r6, lsr #32
    38d8:	00000271 	andeq	r0, r0, r1, ror r2
    38dc:	00009844 	andeq	r9, r0, r4, asr #16
    38e0:	00044001 	andeq	r4, r4, r1
    38e4:	120d0100 	andne	r0, sp, #0
    38e8:	00000513 	andeq	r0, r0, r3, lsl r5
    38ec:	00984c10 	addseq	r4, r8, r0, lsl ip
    38f0:	00052a00 	andeq	r2, r5, r0, lsl #20
    38f4:	50011100 	andpl	r1, r1, r0, lsl #2
    38f8:	00007702 	andeq	r7, r0, r2, lsl #14
    38fc:	98441200 	stmdals	r4, {r9, ip}^
    3900:	05360000 	ldreq	r0, [r6, #-0]!
    3904:	58120000 	ldmdapl	r2, {}	; <UNPREDICTABLE>
    3908:	36000098 			; <UNDEFINED> instruction: 0x36000098
    390c:	00000005 	andeq	r0, r0, r5
    3910:	00000000 	andeq	r0, r0, r0
    3914:	0007ef1f 	andeq	lr, r7, pc, lsl pc
    3918:	0007ef00 	andeq	lr, r7, r0, lsl #30
    391c:	0ac20200 	beq	ff084124 <__bss_end__+0xff07934c>
    3920:	0007c51f 	andeq	ip, r7, pc, lsl r5
    3924:	0007c500 	andeq	ip, r7, r0, lsl #10
    3928:	069c0200 	ldreq	r0, [ip], r0, lsl #4
    392c:	0005cd00 	andeq	ip, r5, r0, lsl #26
    3930:	76000400 	strvc	r0, [r0], -r0, lsl #8
    3934:	04000015 	streq	r0, [r0], #-21	; 0xffffffeb
    3938:	00092001 	andeq	r2, r9, r1
    393c:	085f0c00 	ldmdaeq	pc, {sl, fp}^	; <UNPREDICTABLE>
    3940:	08d00000 	ldmeq	r0, {}^	; <UNPREDICTABLE>
    3944:	98bc0000 	ldmls	ip!, {}	; <UNPREDICTABLE>
    3948:	01f00000 	mvnseq	r0, r0
    394c:	1d8b0000 	stcne	0, cr0, [fp]
    3950:	04020000 	streq	r0, [r2], #-0
    3954:	746e6905 	strbtvc	r6, [lr], #-2309	; 0xfffff6fb
    3958:	07040300 	streq	r0, [r4, -r0, lsl #6]
    395c:	000001df 	ldrdeq	r0, [r0], -pc	; <UNPREDICTABLE>
    3960:	00002c04 	andeq	r2, r0, r4, lsl #24
    3964:	06010300 	streq	r0, [r1], -r0, lsl #6
    3968:	00000177 	andeq	r0, r0, r7, ror r1
    396c:	21050203 	tstcs	r5, r3, lsl #4
    3970:	03000000 	movweq	r0, #0
    3974:	00560504 	subseq	r0, r6, r4, lsl #10
    3978:	08030000 	stmdaeq	r3, {}	; <UNPREDICTABLE>
    397c:	00005105 	andeq	r5, r0, r5, lsl #2
    3980:	08010300 	stmdaeq	r1, {r8, r9}
    3984:	00000175 	andeq	r0, r0, r5, ror r1
    3988:	06070203 	streq	r0, [r7], -r3, lsl #4
    398c:	05000002 	streq	r0, [r0, #-2]
    3990:	000001ec 	andeq	r0, r0, ip, ror #3
    3994:	6e193405 	cfmulsvs	mvf3, mvf9, mvf5
    3998:	03000000 	movweq	r0, #0
    399c:	01da0704 	bicseq	r0, sl, r4, lsl #14
    39a0:	08030000 	stmdaeq	r3, {}	; <UNPREDICTABLE>
    39a4:	0001d507 	andeq	sp, r1, r7, lsl #10
    39a8:	08010300 	stmdaeq	r1, {r8, r9}
    39ac:	0000017e 	andeq	r0, r0, lr, ror r1
    39b0:	54010706 	strpl	r0, [r1], #-1798	; 0xfffff8fa
    39b4:	04000000 	streq	r0, [r0], #-0
    39b8:	00c20e0c 	sbceq	r0, r2, ip, lsl #28
    39bc:	0a070000 	beq	1c39c4 <__bss_end__+0x1b8bec>
    39c0:	0000000a 	andeq	r0, r0, sl
    39c4:	00084207 	andeq	r4, r8, r7, lsl #4
    39c8:	85070100 	strhi	r0, [r7, #-256]	; 0xffffff00
    39cc:	04000008 	streq	r0, [r0], #-8
    39d0:	00089407 	andeq	r9, r8, r7, lsl #8
    39d4:	a3070500 	movwge	r0, #29952	; 0x7500
    39d8:	06000008 	streq	r0, [r0], -r8
    39dc:	0008b207 	andeq	fp, r8, r7, lsl #4
    39e0:	d3070700 	movwle	r0, #30464	; 0x7700
    39e4:	03000009 	movweq	r0, #9
    39e8:	0008c107 	andeq	ip, r8, r7, lsl #2
    39ec:	08000200 	stmdaeq	r0, {r9}
    39f0:	00000853 	andeq	r0, r0, r3, asr r8
    39f4:	0806022c 	stmdaeq	r6, {r2, r3, r5, r9}
    39f8:	0000015e 	andeq	r0, r0, lr, asr r1
    39fc:	006f6909 	rsbeq	r6, pc, r9, lsl #18
    3a00:	33090902 	movwcc	r0, #39170	; 0x9902
    3a04:	00000000 	andeq	r0, r0, r0
    3a08:	72656909 	rsbvc	r6, r5, #147456	; 0x24000
    3a0c:	090a0200 	stmdbeq	sl, {r9}
    3a10:	00000033 	andeq	r0, r0, r3, lsr r0
    3a14:	69690904 	stmdbvs	r9!, {r2, r8, fp}^
    3a18:	11020072 	tstne	r2, r2, ror r0
    3a1c:	00003309 	andeq	r3, r0, r9, lsl #6
    3a20:	6c090800 	stcvs	8, cr0, [r9], {-0}
    3a24:	02007263 	andeq	r7, r0, #805306374	; 0x30000006
    3a28:	00330913 	eorseq	r0, r3, r3, lsl r9
    3a2c:	090c0000 	stmdbeq	ip, {}	; <UNPREDICTABLE>
    3a30:	0072636d 	rsbseq	r6, r2, sp, ror #6
    3a34:	33091402 	movwcc	r1, #37890	; 0x9402
    3a38:	10000000 	andne	r0, r0, r0
    3a3c:	72736c09 	rsbsvc	r6, r3, #2304	; 0x900
    3a40:	09150200 	ldmdbeq	r5, {r9}
    3a44:	00000033 	andeq	r0, r0, r3, lsr r0
    3a48:	736d0914 	cmnvc	sp, #20, 18	; 0x50000
    3a4c:	16020072 			; <UNDEFINED> instruction: 0x16020072
    3a50:	00003309 	andeq	r3, r0, r9, lsl #6
    3a54:	ea0a1800 	b	289a5c <__bss_end__+0x27ec84>
    3a58:	02000009 	andeq	r0, r0, #9, 0
    3a5c:	00330917 	eorseq	r0, r3, r7, lsl r9
    3a60:	0a1c0000 	beq	703a68 <__bss_end__+0x6f8c90>
    3a64:	000009b3 			; <UNDEFINED> instruction: 0x000009b3
    3a68:	33091b02 	movwcc	r1, #39682	; 0x9b02
    3a6c:	20000000 	andcs	r0, r0, r0
    3a70:	00082f0a 	andeq	r2, r8, sl, lsl #30
    3a74:	091d0200 	ldmdbeq	sp, {r9}
    3a78:	00000033 	andeq	r0, r0, r3, lsr r0
    3a7c:	09050a24 	stmdbeq	r5, {r2, r5, r9, fp}
    3a80:	1e020000 	cdpne	0, 0, cr0, cr2, cr0, {0}
    3a84:	00003309 	andeq	r3, r0, r9, lsl #6
    3a88:	0b002800 	bleq	da90 <__bss_end__+0x2cb8>
    3a8c:	0000090a 	andeq	r0, r0, sl, lsl #18
    3a90:	74090801 	strvc	r0, [r9], #-2049	; 0xfffff7ff
    3a94:	04000001 	streq	r0, [r0], #-1
    3a98:	0c202150 	stfeqs	f2, [r0], #-320	; 0xfffffec0
    3a9c:	00003304 	andeq	r3, r0, r4, lsl #6
    3aa0:	016e0d00 	cmneq	lr, r0, lsl #26
    3aa4:	f20b0000 	vhadd.s8	d0, d11, d0
    3aa8:	01000009 	tsteq	r0, r9
    3aac:	018f2329 	orreq	r2, pc, r9, lsr #6
    3ab0:	50400000 	subpl	r0, r0, r0
    3ab4:	040c2021 	streq	r2, [ip], #-33	; 0xffffffdf
    3ab8:	000000c2 	andeq	r0, r0, r2, asr #1
    3abc:	0001890d 	andeq	r8, r1, sp, lsl #18
    3ac0:	06dd0e00 	ldrbeq	r0, [sp], r0, lsl #28
    3ac4:	cc010000 	stcgt	0, cr0, [r1], {-0}
    3ac8:	009a7406 	addseq	r7, sl, r6, lsl #8
    3acc:	00001400 	andeq	r1, r0, r0, lsl #8
    3ad0:	b49c0100 	ldrlt	r0, [ip], #256	; 0x100
    3ad4:	0f000001 	svceq	0x00000001
    3ad8:	00009a7c 	andeq	r9, r0, ip, ror sl
    3adc:	000001b4 			; <UNDEFINED> instruction: 0x000001b4
    3ae0:	08741000 	ldmdaeq	r4!, {ip}^
    3ae4:	b6010000 	strlt	r0, [r1], -r0
    3ae8:	00002505 	andeq	r2, r0, r5, lsl #10
    3aec:	009a5400 	addseq	r5, sl, r0, lsl #8
    3af0:	00002000 	andeq	r2, r0, r0
    3af4:	eb9c0100 	bl	fe703efc <__bss_end__+0xfe6f9124>
    3af8:	0f000001 	svceq	0x00000001
    3afc:	00009a5c 	andeq	r9, r0, ip, asr sl
    3b00:	000005a0 	andeq	r0, r0, r0, lsr #11
    3b04:	009a6411 	addseq	r6, sl, r1, lsl r4
    3b08:	0005ac00 	andeq	sl, r5, r0, lsl #24
    3b0c:	50011200 	andpl	r1, r1, r0, lsl #4
    3b10:	50640c05 	rsbpl	r0, r4, r5, lsl #24
    3b14:	00002021 	andeq	r2, r0, r1, lsr #32
    3b18:	0009c510 	andeq	ip, r9, r0, lsl r5
    3b1c:	05b30100 	ldreq	r0, [r3, #256]!	; 0x100
    3b20:	00000025 	andeq	r0, r0, r5, lsr #32
    3b24:	00009a44 	andeq	r9, r0, r4, asr #20
    3b28:	00000010 	andeq	r0, r0, r0, lsl r0
    3b2c:	02189c01 	andseq	r9, r8, #256	; 0x100
    3b30:	4c0f0000 	stcmi	0, cr0, [pc], {-0}
    3b34:	a000009a 	mulge	r0, sl, r0
    3b38:	0f000005 	svceq	0x00000005
    3b3c:	00009a50 	andeq	r9, r0, r0, asr sl
    3b40:	00000309 	andeq	r0, r0, r9, lsl #6
    3b44:	0a000e00 	beq	734c <__code_start__-0xcb4>
    3b48:	ab010000 	blge	43b50 <__bss_end__+0x38d78>
    3b4c:	009a1406 	addseq	r1, sl, r6, lsl #8
    3b50:	00003000 	andeq	r3, r0, r0
    3b54:	7c9c0100 	ldfvcs	f0, [ip], {0}
    3b58:	13000002 	movwne	r0, #2
    3b5c:	ab010063 	blge	43cf0 <__bss_end__+0x38f18>
    3b60:	00002c19 	andeq	r2, r0, r9, lsl ip
    3b64:	0026cd00 	eoreq	ip, r6, r0, lsl #26
    3b68:	0026c900 	eoreq	ip, r6, r0, lsl #18
    3b6c:	9a200f00 	bls	807774 <__bss_end__+0x7fc99c>
    3b70:	05a00000 	streq	r0, [r0, #0]!
    3b74:	240f0000 	strcs	r0, [pc], #-0	; 3b7c <__code_start__-0x4484>
    3b78:	db00009a 	blle	3de8 <__code_start__-0x4218>
    3b7c:	14000002 	strne	r0, [r0], #-2
    3b80:	00009a38 	andeq	r9, r0, r8, lsr sl
    3b84:	000005b8 			; <UNDEFINED> instruction: 0x000005b8
    3b88:	00000272 	andeq	r0, r0, r2, ror r2
    3b8c:	05500112 	ldrbeq	r0, [r0, #-274]	; 0xfffffeee
    3b90:	2150400c 	cmpcs	r0, ip
    3b94:	51011220 	tstpl	r1, r0, lsr #4
    3b98:	08007405 	stmdaeq	r0, {r0, r2, sl, ip, sp, lr}
    3b9c:	0f001aff 	svceq	0x00001aff
    3ba0:	00009a3c 	andeq	r9, r0, ip, lsr sl
    3ba4:	000005a0 	andeq	r0, r0, r0, lsr #11
    3ba8:	09161000 	ldmdbeq	r6, {ip}
    3bac:	a3010000 	movwge	r0, #4096	; 0x1000
    3bb0:	00002505 	andeq	r2, r0, r5, lsl #10
    3bb4:	0099e400 	addseq	lr, r9, r0, lsl #8
    3bb8:	00003000 	andeq	r3, r0, r0
    3bbc:	db9c0100 	blle	fe703fc4 <__bss_end__+0xfe6f91ec>
    3bc0:	15000002 	strne	r0, [r0, #-2]
    3bc4:	a7010063 	strge	r0, [r1, -r3, rrx]
    3bc8:	00002509 	andeq	r2, r0, r9, lsl #10
    3bcc:	0026ed00 	eoreq	lr, r6, r0, lsl #26
    3bd0:	0026eb00 	eoreq	lr, r6, r0, lsl #22
    3bd4:	99ec0f00 	stmibls	ip!, {r8, r9, sl, fp}^
    3bd8:	05a00000 	streq	r0, [r0, #0]!
    3bdc:	f00f0000 			; <UNDEFINED> instruction: 0xf00f0000
    3be0:	09000099 	stmdbeq	r0, {r0, r3, r4, r7}
    3be4:	14000003 	strne	r0, [r0], #-3
    3be8:	00009a00 	andeq	r9, r0, r0, lsl #20
    3bec:	000005ac 	andeq	r0, r0, ip, lsr #11
    3bf0:	000002d1 	ldrdeq	r0, [r0], -r1
    3bf4:	05500112 	ldrbeq	r0, [r0, #-274]	; 0xfffffeee
    3bf8:	2150400c 	cmpcs	r0, ip
    3bfc:	080f0020 	stmdaeq	pc, {r5}	; <UNPREDICTABLE>
    3c00:	a000009a 	mulge	r0, sl, r0
    3c04:	00000005 	andeq	r0, r0, r5
    3c08:	00086610 	andeq	r6, r8, r0, lsl r6
    3c0c:	05940100 	ldreq	r0, [r4, #256]	; 0x100
    3c10:	00000025 	andeq	r0, r0, r5, lsr #32
    3c14:	000099c4 	andeq	r9, r0, r4, asr #19
    3c18:	00000020 	andeq	r0, r0, r0, lsr #32
    3c1c:	03099c01 	movweq	r9, #39937	; 0x9c01
    3c20:	d0110000 	andsle	r0, r1, r0
    3c24:	ac000099 	stcge	0, cr0, [r0], {153}	; 0x99
    3c28:	12000005 	andne	r0, r0, #5, 0
    3c2c:	0c055001 	stceq	0, cr5, [r5], {1}
    3c30:	20215064 	eorcs	r5, r1, r4, rrx
    3c34:	34100000 	ldrcc	r0, [r0], #-0
    3c38:	01000008 	tsteq	r0, r8
    3c3c:	0025058b 	eoreq	r0, r5, fp, lsl #11
    3c40:	99ac0000 	stmibls	ip!, {}	; <UNPREDICTABLE>
    3c44:	00180000 	andseq	r0, r8, r0
    3c48:	9c010000 	stcls	0, cr0, [r1], {-0}
    3c4c:	00000337 	andeq	r0, r0, r7, lsr r3
    3c50:	0099b811 	addseq	fp, r9, r1, lsl r8
    3c54:	0005ac00 	andeq	sl, r5, r0, lsl #24
    3c58:	50011200 	andpl	r1, r1, r0, lsl #4
    3c5c:	50640c05 	rsbpl	r0, r4, r5, lsl #24
    3c60:	00002021 	andeq	r2, r0, r1, lsr #32
    3c64:	0006fb0e 	andeq	pc, r6, lr, lsl #22
    3c68:	06450100 	strbeq	r0, [r5], -r0, lsl #2
    3c6c:	000098fc 	strdeq	r9, [r0], -ip
    3c70:	000000b0 	strheq	r0, [r0], -r0	; <UNPREDICTABLE>
    3c74:	04849c01 	streq	r9, [r4], #3073	; 0xc01
    3c78:	26160000 	ldrcs	r0, [r6], -r0
    3c7c:	01000008 	tsteq	r0, r8
    3c80:	00620e7e 	rsbeq	r0, r2, lr, ror lr
    3c84:	010e0000 	mrseq	r0, (UNDEF: 14)
    3c88:	00990c14 	addseq	r0, r9, r4, lsl ip
    3c8c:	0005c400 	andeq	ip, r5, r0, lsl #8
    3c90:	00037300 	andeq	r7, r3, r0, lsl #6
    3c94:	50011200 	andpl	r1, r1, r0, lsl #4
    3c98:	01123e01 	tsteq	r2, r1, lsl #28
    3c9c:	00320151 	eorseq	r0, r2, r1, asr r1
    3ca0:	00991814 	addseq	r1, r9, r4, lsl r8
    3ca4:	0005c400 	andeq	ip, r5, r0, lsl #8
    3ca8:	00038b00 	andeq	r8, r3, r0, lsl #22
    3cac:	50011200 	andpl	r1, r1, r0, lsl #4
    3cb0:	01123f01 	tsteq	r2, r1, lsl #30
    3cb4:	00320151 	eorseq	r0, r2, r1, asr r1
    3cb8:	00991c0f 	addseq	r1, r9, pc, lsl #24
    3cbc:	0005a000 	andeq	sl, r5, r0
    3cc0:	99281400 	stmdbls	r8!, {sl, ip}
    3cc4:	053d0000 	ldreq	r0, [sp, #-0]!
    3cc8:	03b00000 	movseq	r0, #0, 0
    3ccc:	01120000 	tsteq	r2, r0
    3cd0:	040c0550 	streq	r0, [ip], #-1360	; 0xfffffab0
    3cd4:	12202150 	eorne	r2, r0, #20
    3cd8:	31015101 	tstcc	r1, r1, lsl #2
    3cdc:	992c0f00 	stmdbls	ip!, {r8, r9, sl, fp}
    3ce0:	05a00000 	streq	r0, [r0, #0]!
    3ce4:	3c140000 	ldccc	0, cr0, [r4], {-0}
    3ce8:	b8000099 	stmdalt	r0, {r0, r3, r4, r7}
    3cec:	d2000005 	andle	r0, r0, #5, 0
    3cf0:	12000003 	andne	r0, r0, #3, 0
    3cf4:	74025001 	strvc	r5, [r2], #-1
    3cf8:	51011200 	mrspl	r1, R9_usr
    3cfc:	14003001 	strne	r3, [r0], #-1
    3d00:	00009948 	andeq	r9, r0, r8, asr #18
    3d04:	000005b8 			; <UNDEFINED> instruction: 0x000005b8
    3d08:	000003ee 	andeq	r0, r0, lr, ror #7
    3d0c:	05500112 	ldrbeq	r0, [r0, #-274]	; 0xfffffeee
    3d10:	2150440c 	cmpcs	r0, ip, lsl #8
    3d14:	51011220 	tstpl	r1, r0, lsr #4
    3d18:	14003001 	strne	r3, [r0], #-1
    3d1c:	00009954 	andeq	r9, r0, r4, asr r9
    3d20:	000005b8 			; <UNDEFINED> instruction: 0x000005b8
    3d24:	0000040a 	andeq	r0, r0, sl, lsl #8
    3d28:	05500112 	ldrbeq	r0, [r0, #-274]	; 0xfffffeee
    3d2c:	21504c0c 	cmpcs	r0, ip, lsl #24
    3d30:	51011220 	tstpl	r1, r0, lsr #4
    3d34:	14003301 	strne	r3, [r0], #-769	; 0xfffffcff
    3d38:	00009960 	andeq	r9, r0, r0, ror #18
    3d3c:	000005b8 			; <UNDEFINED> instruction: 0x000005b8
    3d40:	00000426 	andeq	r0, r0, r6, lsr #8
    3d44:	05500112 	ldrbeq	r0, [r0, #-274]	; 0xfffffeee
    3d48:	2150500c 	cmpcs	r0, ip
    3d4c:	51011220 	tstpl	r1, r0, lsr #4
    3d50:	14003001 	strne	r3, [r0], #-1
    3d54:	0000996c 	andeq	r9, r0, ip, ror #18
    3d58:	000005b8 			; <UNDEFINED> instruction: 0x000005b8
    3d5c:	00000443 	andeq	r0, r0, r3, asr #8
    3d60:	05500112 	ldrbeq	r0, [r0, #-274]	; 0xfffffeee
    3d64:	2150480c 	cmpcs	r0, ip, lsl #16
    3d68:	51011220 	tstpl	r1, r0, lsr #4
    3d6c:	00c70802 	sbceq	r0, r7, r2, lsl #16
    3d70:	00997814 	addseq	r7, r9, r4, lsl r8
    3d74:	0005b800 	andeq	fp, r5, r0, lsl #16
    3d78:	00046100 	andeq	r6, r4, r0, lsl #2
    3d7c:	50011200 	andpl	r1, r1, r0, lsl #4
    3d80:	50680c05 	rsbpl	r0, r8, r5, lsl #24
    3d84:	01122021 	tsteq	r2, r1, lsr #32
    3d88:	0e0a0351 	mcreq	3, 0, r0, cr10, cr1, {2}
    3d8c:	84140001 	ldrhi	r0, [r4], #-1
    3d90:	b8000099 	stmdalt	r0, {r0, r3, r4, r7}
    3d94:	7a000005 	bvc	3db0 <__code_start__-0x4250>
    3d98:	12000004 	andne	r0, r0, #4, 0
    3d9c:	74025001 	strvc	r5, [r2], #-1
    3da0:	51011200 	mrspl	r1, R9_usr
    3da4:	0f003301 	svceq	0x00003301
    3da8:	00009988 	andeq	r9, r0, r8, lsl #19
    3dac:	000005a0 	andeq	r0, r0, r0, lsr #11
    3db0:	09b80e00 	ldmibeq	r8!, {r9, sl, fp}
    3db4:	35010000 	strcc	r0, [r1, #-0]
    3db8:	009a8806 	addseq	r8, sl, r6, lsl #16
    3dbc:	00002400 	andeq	r2, r0, r0, lsl #8
    3dc0:	d39c0100 	orrsle	r0, ip, #0
    3dc4:	0f000004 	svceq	0x00000004
    3dc8:	00009a90 	muleq	r0, r0, sl
    3dcc:	00000194 	muleq	r0, r4, r1
    3dd0:	009a940f 	addseq	r9, sl, pc, lsl #8
    3dd4:	0005a000 	andeq	sl, r5, r0
    3dd8:	9aa01400 	bls	fe808de0 <__bss_end__+0xfe7fe008>
    3ddc:	04d30000 	ldrbeq	r0, [r3], #0
    3de0:	04c90000 	strbeq	r0, [r9], #0
    3de4:	01120000 	tsteq	r2, r0
    3de8:	040c0550 	streq	r0, [ip], #-1360	; 0xfffffab0
    3dec:	12202150 	eorne	r2, r0, #20
    3df0:	09025101 	stmdbeq	r2, {r0, r8, ip, lr}
    3df4:	a40f00fe 	strge	r0, [pc], #-254	; 3dfc <__code_start__-0x4204>
    3df8:	a000009a 	mulge	r0, sl, r0
    3dfc:	00000005 	andeq	r0, r0, r5
    3e00:	0009f717 	andeq	pc, r9, r7, lsl r7	; <UNPREDICTABLE>
    3e04:	0d310100 	ldfeqs	f0, [r1, #-0]
    3e08:	000098bc 			; <UNDEFINED> instruction: 0x000098bc
    3e0c:	00000020 	andeq	r0, r0, r0, lsr #32
    3e10:	05369c01 	ldreq	r9, [r6, #-3073]!	; 0xfffff3ff
    3e14:	51180000 	tstpl	r8, r0
    3e18:	0100000a 	tsteq	r0, sl
    3e1c:	05362531 	ldreq	r2, [r6, #-1329]!	; 0xfffffacf
    3e20:	27040000 	strcs	r0, [r4, -r0]
    3e24:	27000000 	strcs	r0, [r0, -r0]
    3e28:	76130000 	ldrvc	r0, [r3], -r0
    3e2c:	01006c61 	tsteq	r0, r1, ror #24
    3e30:	002c3431 	eoreq	r3, ip, r1, lsr r4
    3e34:	27260000 	strcs	r0, [r6, -r0]!
    3e38:	27220000 	strcs	r0, [r2, -r0]!
    3e3c:	cc140000 	ldcgt	0, cr0, [r4], {-0}
    3e40:	ac000098 	stcge	0, cr0, [r0], {152}	; 0x98
    3e44:	25000005 	strcs	r0, [r0, #-5]
    3e48:	12000005 	andne	r0, r0, #5, 0
    3e4c:	74025001 	strvc	r5, [r2], #-1
    3e50:	d8110000 	ldmdale	r1, {}	; <UNPREDICTABLE>
    3e54:	b8000098 	stmdalt	r0, {r3, r4, r7}
    3e58:	12000005 	andne	r0, r0, #5, 0
    3e5c:	74025001 	strvc	r5, [r2], #-1
    3e60:	0c000000 	stceq	0, cr0, [r0], {-0}
    3e64:	00053c04 	andeq	r3, r5, r4, lsl #24
    3e68:	e2171900 	ands	r1, r7, #0, 18
    3e6c:	01000009 	tsteq	r0, r9
    3e70:	98dc0d2e 	ldmls	ip, {r1, r2, r3, r5, r8, sl, fp}^
    3e74:	00200000 	eoreq	r0, r0, r0
    3e78:	9c010000 	stcls	0, cr0, [r1], {-0}
    3e7c:	000005a0 	andeq	r0, r0, r0, lsr #11
    3e80:	000a5118 	andeq	r5, sl, r8, lsl r1
    3e84:	242e0100 	strtcs	r0, [lr], #-256	; 0xffffff00
    3e88:	00000536 	andeq	r0, r0, r6, lsr r5
    3e8c:	00002748 	andeq	r2, r0, r8, asr #14
    3e90:	00002744 	andeq	r2, r0, r4, asr #14
    3e94:	6c617613 	stclvs	6, cr7, [r1], #-76	; 0xffffffb4
    3e98:	332e0100 			; <UNDEFINED> instruction: 0x332e0100
    3e9c:	0000002c 	andeq	r0, r0, ip, lsr #32
    3ea0:	0000276a 	andeq	r2, r0, sl, ror #14
    3ea4:	00002766 	andeq	r2, r0, r6, ror #14
    3ea8:	0098ec14 	addseq	lr, r8, r4, lsl ip
    3eac:	0005ac00 	andeq	sl, r5, r0, lsl #24
    3eb0:	00058f00 	andeq	r8, r5, r0, lsl #30
    3eb4:	50011200 	andpl	r1, r1, r0, lsl #4
    3eb8:	00007402 	andeq	r7, r0, r2, lsl #8
    3ebc:	0098f811 	addseq	pc, r8, r1, lsl r8	; <UNPREDICTABLE>
    3ec0:	0005b800 	andeq	fp, r5, r0, lsl #16
    3ec4:	50011200 	andpl	r1, r1, r0, lsl #4
    3ec8:	00007402 	andeq	r7, r0, r2, lsl #8
    3ecc:	07c51a00 	strbeq	r1, [r5, r0, lsl #20]
    3ed0:	07c50000 	strbeq	r0, [r5, r0]
    3ed4:	9c030000 	stcls	0, cr0, [r3], {-0}
    3ed8:	0a2c1a06 	beq	b0a6f8 <__bss_end__+0xaff920>
    3edc:	0a2c0000 	beq	b03ee4 <__bss_end__+0xaf910c>
    3ee0:	c3030000 	movwgt	r0, #12288	; 0x3000
    3ee4:	08201a0b 	stmdaeq	r0!, {r0, r1, r3, r9, fp, ip}
    3ee8:	08200000 	stmdaeq	r0!, {}	; <UNPREDICTABLE>
    3eec:	ae030000 	cdpge	0, 0, cr0, cr3, cr0, {0}
    3ef0:	0a1a1a06 	beq	68a710 <__bss_end__+0x67f938>
    3ef4:	0a1a0000 	beq	683efc <__bss_end__+0x679124>
    3ef8:	19040000 	stmdbne	r4, {}	; <UNPREDICTABLE>
    3efc:	08e90006 	stmiaeq	r9!, {r1, r2}^
    3f00:	00040000 	andeq	r0, r4, r0
    3f04:	0000170e 	andeq	r1, r0, lr, lsl #14
    3f08:	09200104 	stmdbeq	r0!, {r2, r8}
    3f0c:	bc0c0000 	stclt	0, cr0, [ip], {-0}
    3f10:	d000000a 	andle	r0, r0, sl
    3f14:	ac000008 	stcge	0, cr0, [r0], {8}
    3f18:	b000009a 	mullt	r0, sl, r0
    3f1c:	93000003 	movwls	r0, #3
    3f20:	0200001f 	andeq	r0, r0, #31, 0
    3f24:	6e690504 	cdpvs	5, 6, cr0, cr9, cr4, {0}
    3f28:	04030074 	streq	r0, [r3], #-116	; 0xffffff8c
    3f2c:	0001df07 	andeq	sp, r1, r7, lsl #30
    3f30:	06010300 	streq	r0, [r1], -r0, lsl #6
    3f34:	00000177 	andeq	r0, r0, r7, ror r1
    3f38:	21050203 	tstcs	r5, r3, lsl #4
    3f3c:	03000000 	movweq	r0, #0
    3f40:	00560504 	subseq	r0, r6, r4, lsl #10
    3f44:	08030000 	stmdaeq	r3, {}	; <UNPREDICTABLE>
    3f48:	00005105 	andeq	r5, r0, r5, lsl #2
    3f4c:	08010300 	stmdaeq	r1, {r8, r9}
    3f50:	00000175 	andeq	r0, r0, r5, ror r1
    3f54:	06070203 	streq	r0, [r7], -r3, lsl #4
    3f58:	04000002 	streq	r0, [r0], #-2
    3f5c:	000001ec 	andeq	r0, r0, ip, ror #3
    3f60:	69193403 	ldmdbvs	r9, {r0, r1, sl, ip, sp}
    3f64:	03000000 	movweq	r0, #0
    3f68:	01da0704 	bicseq	r0, sl, r4, lsl #14
    3f6c:	08030000 	stmdaeq	r3, {}	; <UNPREDICTABLE>
    3f70:	0001d507 	andeq	sp, r1, r7, lsl #10
    3f74:	08010300 	stmdaeq	r1, {r8, r9}
    3f78:	0000017e 	andeq	r0, r0, lr, ror r1
    3f7c:	00007705 	andeq	r7, r0, r5, lsl #14
    3f80:	04080300 	streq	r0, [r8], #-768	; 0xfffffd00
    3f84:	0000033d 	andeq	r0, r0, sp, lsr r3
    3f88:	07070406 	streq	r0, [r7, -r6, lsl #8]
    3f8c:	00002c04 	andeq	r2, r0, r4, lsl #24
    3f90:	061f0100 	ldreq	r0, [pc], -r0, lsl #2
    3f94:	000000a4 	andeq	r0, r0, r4, lsr #1
    3f98:	000a5608 	andeq	r5, sl, r8, lsl #12
    3f9c:	20000000 	andcs	r0, r0, r0
    3fa0:	26090000 	strcs	r0, [r9], -r0
    3fa4:	01000006 	tsteq	r0, r6
    3fa8:	00770d22 	rsbseq	r0, r7, r2, lsr #26
    3fac:	120a0000 	andne	r0, sl, #0, 0
    3fb0:	01000004 	tsteq	r0, r4
    3fb4:	00c20e23 	sbceq	r0, r2, r3, lsr #28
    3fb8:	03050000 	movweq	r0, #20480	; 0x5000
    3fbc:	0000a9a0 	andeq	sl, r0, r0, lsr #19
    3fc0:	0077040b 	rsbseq	r0, r7, fp, lsl #8
    3fc4:	3a0a0000 	bcc	283fcc <__bss_end__+0x2791f4>
    3fc8:	0100000a 	tsteq	r0, sl
    3fcc:	00c20e24 	sbceq	r0, r2, r4, lsr #28
    3fd0:	03050000 	movweq	r0, #20480	; 0x5000
    3fd4:	0000a9a4 	andeq	sl, r0, r4, lsr #19
    3fd8:	000a9b0a 	andeq	r9, sl, sl, lsl #22
    3fdc:	0e250100 	sufeqs	f0, f5, f0
    3fe0:	000000c2 	andeq	r0, r0, r2, asr #1
    3fe4:	a9a80305 	stmibge	r8!, {r0, r2, r8, r9}
    3fe8:	710c0000 	mrsvc	r0, (UNDEF: 12)
    3fec:	0100000a 	tsteq	r0, sl
    3ff0:	9dfc0675 	ldclls	6, cr0, [ip, #468]!	; 0x1d4
    3ff4:	00600000 	rsbeq	r0, r0, r0
    3ff8:	9c010000 	stcls	0, cr0, [r1], {-0}
    3ffc:	00000164 	andeq	r0, r0, r4, ror #2
    4000:	0100700d 	tsteq	r0, sp
    4004:	008a1675 	addeq	r1, sl, r5, ror r6
    4008:	278e0000 	strcs	r0, [lr, r0]
    400c:	27880000 	strcs	r0, [r8, r0]
    4010:	900e0000 	andls	r0, lr, r0
    4014:	74000000 	strvc	r0, [r0], #-0
    4018:	05000001 	streq	r0, [r0, #-1]
    401c:	00a99003 	adceq	r9, r9, r3
    4020:	9e480f00 	cdpls	15, 4, cr0, cr8, cr0, {0}
    4024:	08bc0000 	ldmeq	ip!, {}	; <UNPREDICTABLE>
    4028:	015a0000 	cmpeq	sl, r0
    402c:	01100000 	tsteq	r0, r0
    4030:	08030550 	stmdaeq	r3, {r4, r6, r8, sl}
    4034:	100000a9 	andne	r0, r0, r9, lsr #1
    4038:	03055101 	movweq	r5, #20737	; 0x5101
    403c:	0000a7a0 	andeq	sl, r0, r0, lsr #15
    4040:	05520110 	ldrbeq	r0, [r2, #-272]	; 0xfffffef0
    4044:	00a99003 	adceq	r9, r9, r3
    4048:	53011000 	movwpl	r1, #4096	; 0x1000
    404c:	10770802 	rsbsne	r0, r7, r2, lsl #16
    4050:	03007d02 	movweq	r7, #3330	; 0xd02
    4054:	005001f3 	ldrsheq	r0, [r0], #-19	; 0xffffffed
    4058:	009e4c11 	addseq	r4, lr, r1, lsl ip
    405c:	0008c800 	andeq	ip, r8, r0, lsl #16
    4060:	7e120000 	cdpvc	0, 1, cr0, cr2, cr0, {0}
    4064:	74000000 	strvc	r0, [r0], #-0
    4068:	13000001 	movwne	r0, #1
    406c:	0000002c 	andeq	r0, r0, ip, lsr #32
    4070:	64050009 	strvs	r0, [r5], #-9
    4074:	14000001 	strne	r0, [r0], #-1
    4078:	00000a5f 	andeq	r0, r0, pc, asr sl
    407c:	e8067201 	stmda	r6, {r0, r9, ip, sp, lr}
    4080:	1400009d 	strne	r0, [r0], #-157	; 0xffffff63
    4084:	01000000 	mrseq	r0, (UNDEF: 0)
    4088:	02980c9c 	addseq	r0, r8, #156, 24	; 0x9c00
    408c:	6f010000 	svcvs	0x00010000
    4090:	009de406 	addseq	lr, sp, r6, lsl #8
    4094:	00000400 	andeq	r0, r0, r0, lsl #8
    4098:	ae9c0100 	fmlgee	f0, f4, f0
    409c:	15000001 	strne	r0, [r0, #-1]
    40a0:	6f010070 	svcvs	0x00010070
    40a4:	00008a12 	andeq	r8, r0, r2, lsl sl
    40a8:	00500100 	subseq	r0, r0, r0, lsl #2
    40ac:	000afe16 	andeq	pc, sl, r6, lsl lr	; <UNPREDICTABLE>
    40b0:	075e0100 	ldrbeq	r0, [lr, -r0, lsl #2]
    40b4:	0000008a 	andeq	r0, r0, sl, lsl #1
    40b8:	00009ccc 	andeq	r9, r0, ip, asr #25
    40bc:	00000118 	andeq	r0, r0, r8, lsl r1
    40c0:	042c9c01 	strteq	r9, [ip], #-3073	; 0xfffff3ff
    40c4:	00170000 	andseq	r0, r7, r0
    40c8:	01000003 	tsteq	r0, r3
    40cc:	002c205e 	eoreq	r2, ip, lr, asr r0
    40d0:	27cf0000 	strbcs	r0, [pc, r0]
    40d4:	27bb0000 	ldrcs	r0, [fp, r0]!
    40d8:	7b170000 	blvc	5c40e0 <__bss_end__+0x5b9308>
    40dc:	0100000a 	tsteq	r0, sl
    40e0:	002c315e 	eoreq	r3, ip, lr, asr r1
    40e4:	28680000 	stmdacs	r8!, {}^	; <UNPREDICTABLE>
    40e8:	28540000 	ldmdacs	r4, {}^	; <UNPREDICTABLE>
    40ec:	900e0000 	andls	r0, lr, r0
    40f0:	3c000000 	stccc	0, cr0, [r0], {-0}
    40f4:	05000004 	streq	r0, [r0, #-4]
    40f8:	00a97803 	adceq	r7, r9, r3, lsl #16
    40fc:	00681800 	rsbeq	r1, r8, r0, lsl #16
    4100:	2c0e6601 	stccs	6, cr6, [lr], {1}
    4104:	1e000000 	cdpne	0, 0, cr0, cr0, cr0, {0}
    4108:	12000029 	andne	r0, r0, #41, 0	; 0x29
    410c:	19000029 	stmdbne	r0, {r0, r3, r5}
    4110:	00000854 	andeq	r0, r0, r4, asr r8
    4114:	00009cdc 	ldrdeq	r9, [r0], -ip
    4118:	009cdc04 	addseq	sp, ip, r4, lsl #24
    411c:	00000400 	andeq	r0, r0, r0, lsl #8
    4120:	05600100 	strbeq	r0, [r0, #-256]!	; 0xffffff00
    4124:	00000238 	andeq	r0, r0, r8, lsr r2
    4128:	0008651a 	andeq	r6, r8, sl, lsl r5
    412c:	00297200 	eoreq	r7, r9, r0, lsl #4
    4130:	00297000 	eoreq	r7, r9, r0
    4134:	96190000 	ldrls	r0, [r9], -r0
    4138:	e8000008 	stmda	r0, {r3}
    413c:	0200009c 	andeq	r0, r0, #156, 0	; 0x9c
    4140:	00009ce8 	andeq	r9, r0, r8, ror #25
    4144:	00000008 	andeq	r0, r0, r8
    4148:	6c116101 	ldfvss	f6, [r1], {1}
    414c:	1a000002 	bne	415c <__code_start__-0x3ea4>
    4150:	000008b1 			; <UNDEFINED> instruction: 0x000008b1
    4154:	00002987 	andeq	r2, r0, r7, lsl #19
    4158:	00002985 	andeq	r2, r0, r5, lsl #19
    415c:	0008a71a 	andeq	sl, r8, sl, lsl r7
    4160:	00299d00 	eoreq	r9, r9, r0, lsl #26
    4164:	00299b00 	eoreq	r9, r9, r0, lsl #22
    4168:	1f1b0000 	svcne	0x001b0000
    416c:	f8000008 			; <UNDEFINED> instruction: 0xf8000008
    4170:	0100009c 	swpeq	r0, ip, [r0]	; <UNPREDICTABLE>
    4174:	000004d8 	ldrdeq	r0, [r0], -r8
    4178:	0a096701 	beq	25dd84 <__bss_end__+0x252fac>
    417c:	1a000003 	bne	4190 <__code_start__-0x3e70>
    4180:	0000083a 	andeq	r0, r0, sl, lsr r8
    4184:	000029b6 			; <UNDEFINED> instruction: 0x000029b6
    4188:	000029b0 			; <UNDEFINED> instruction: 0x000029b0
    418c:	0008301a 	andeq	r3, r8, sl, lsl r0
    4190:	0029fd00 	eoreq	pc, r9, r0, lsl #26
    4194:	0029f500 	eoreq	pc, r9, r0, lsl #10
    4198:	04d81c00 	ldrbeq	r1, [r8], #3072	; 0xc00
    419c:	54190000 	ldrpl	r0, [r9], #-0
    41a0:	f8000008 			; <UNDEFINED> instruction: 0xf8000008
    41a4:	0400009c 	streq	r0, [r0], #-156	; 0xffffff64
    41a8:	00009cf8 	strdeq	r9, [r0], -r8
    41ac:	00000004 	andeq	r0, r0, r4
    41b0:	c7051101 	strgt	r1, [r5, -r1, lsl #2]
    41b4:	1a000002 	bne	41c4 <__code_start__-0x3e3c>
    41b8:	00000865 	andeq	r0, r0, r5, ror #16
    41bc:	00002a3b 	andeq	r2, r0, fp, lsr sl
    41c0:	00002a39 	andeq	r2, r0, r9, lsr sl
    41c4:	9d900f00 	ldcls	15, cr0, [r0]
    41c8:	08bc0000 	ldmeq	ip!, {}	; <UNPREDICTABLE>
    41cc:	02ff0000 	rscseq	r0, pc, #0, 0
    41d0:	01100000 	tsteq	r0, r0
    41d4:	28030550 	stmdacs	r3, {r4, r6, r8, sl}
    41d8:	100000a1 	andne	r0, r0, r1, lsr #1
    41dc:	03055101 	movweq	r5, #20737	; 0x5101
    41e0:	0000a7a0 	andeq	sl, r0, r0, lsr #15
    41e4:	05520110 	ldrbeq	r0, [r2, #-272]	; 0xfffffef0
    41e8:	00a98803 	adceq	r8, r9, r3, lsl #16
    41ec:	53011000 	movwpl	r1, #4096	; 0x1000
    41f0:	02104101 	andseq	r4, r0, #1073741824	; 0x40000000
    41f4:	0305007d 	movweq	r0, #20605	; 0x507d
    41f8:	0000a8b4 			; <UNDEFINED> instruction: 0x0000a8b4
    41fc:	9d941100 	ldflss	f1, [r4]
    4200:	08c80000 	stmiaeq	r8, {}^	; <UNPREDICTABLE>
    4204:	00000000 	andeq	r0, r0, r0
    4208:	00087019 	andeq	r7, r8, r9, lsl r0
    420c:	009d1000 	addseq	r1, sp, r0
    4210:	9d100300 	ldcls	3, cr0, [r0, #-0]
    4214:	00040000 	andeq	r0, r4, r0
    4218:	68010000 	stmdavs	r1, {}	; <UNPREDICTABLE>
    421c:	00033e05 	andeq	r3, r3, r5, lsl #28
    4220:	088b1a00 	stmeq	fp, {r9, fp, ip}
    4224:	2a500000 	bcs	140422c <__bss_end__+0x13f9454>
    4228:	2a4e0000 	bcs	1384230 <__bss_end__+0x1379458>
    422c:	811a0000 	tsthi	sl, r0
    4230:	65000008 	strvs	r0, [r0, #-8]
    4234:	6300002a 	movwvs	r0, #42	; 0x2a
    4238:	0000002a 	andeq	r0, r0, sl, lsr #32
    423c:	009d280f 	addseq	r2, sp, pc, lsl #16
    4240:	00044100 	andeq	r4, r4, r0, lsl #2
    4244:	00035300 	andeq	r5, r3, r0, lsl #6
    4248:	50011000 	andpl	r1, r1, r0
    424c:	5001f303 	andpl	pc, r1, r3, lsl #6
    4250:	9d4c0f00 	stclls	15, cr0, [ip, #-0]
    4254:	08bc0000 	ldmeq	ip!, {}	; <UNPREDICTABLE>
    4258:	038c0000 	orreq	r0, ip, #0, 0
    425c:	01100000 	tsteq	r0, r0
    4260:	28030550 	stmdacs	r3, {r4, r6, r8, sl}
    4264:	100000a1 	andne	r0, r0, r1, lsr #1
    4268:	03055101 	movweq	r5, #20737	; 0x5101
    426c:	0000a7a0 	andeq	sl, r0, r0, lsr #15
    4270:	05520110 	ldrbeq	r0, [r2, #-272]	; 0xfffffef0
    4274:	00a97803 	adceq	r7, r9, r3, lsl #16
    4278:	53011000 	movwpl	r1, #4096	; 0x1000
    427c:	105f0802 	subsne	r0, pc, r2, lsl #16
    4280:	05007d02 	streq	r7, [r0, #-3330]	; 0xfffff2fe
    4284:	00a7b003 	adceq	fp, r7, r3
    4288:	50110000 	andspl	r0, r1, r0
    428c:	c800009d 	stmdagt	r0, {r0, r2, r3, r4, r7}
    4290:	11000008 	tstne	r0, r8
    4294:	00009d54 	andeq	r9, r0, r4, asr sp
    4298:	000008d4 	ldrdeq	r0, [r0], -r4
    429c:	009d700f 	addseq	r7, sp, pc
    42a0:	0008bc00 	andeq	fp, r8, r0, lsl #24
    42a4:	0003d700 	andeq	sp, r3, r0, lsl #14
    42a8:	50011000 	andpl	r1, r1, r0
    42ac:	a86c0305 	stmdage	ip!, {r0, r2, r8, r9}^
    42b0:	01100000 	tsteq	r0, r0
    42b4:	a0030551 	andge	r0, r3, r1, asr r5
    42b8:	100000a7 	andne	r0, r0, r7, lsr #1
    42bc:	03055201 	movweq	r5, #20993	; 0x5201
    42c0:	0000a978 	andeq	sl, r0, r8, ror r9
    42c4:	02530110 	subseq	r0, r3, #4
    42c8:	02106008 	andseq	r6, r0, #8, 0
    42cc:	0305007d 	movweq	r0, #20605	; 0x507d
    42d0:	0000a8a0 	andeq	sl, r0, r0, lsr #17
    42d4:	9d741100 	ldflse	f1, [r4, #-0]
    42d8:	08c80000 	stmiaeq	r8, {}^	; <UNPREDICTABLE>
    42dc:	98110000 	ldmdals	r1, {}	; <UNPREDICTABLE>
    42e0:	d400009d 	strle	r0, [r0], #-157	; 0xffffff63
    42e4:	0f000008 	svceq	0x00000008
    42e8:	00009db4 			; <UNDEFINED> instruction: 0x00009db4
    42ec:	000008bc 			; <UNDEFINED> instruction: 0x000008bc
    42f0:	00000422 	andeq	r0, r0, r2, lsr #8
    42f4:	05500110 	ldrbeq	r0, [r0, #-272]	; 0xfffffef0
    42f8:	00a8c003 	adceq	ip, r8, r3
    42fc:	51011000 	mrspl	r1, (UNDEF: 1)
    4300:	a7a00305 	strge	r0, [r0, r5, lsl #6]!
    4304:	01100000 	tsteq	r0, r0
    4308:	78030552 	stmdavc	r3, {r1, r4, r6, r8, sl}
    430c:	100000a9 	andne	r0, r0, r9, lsr #1
    4310:	08025301 	stmdaeq	r2, {r0, r8, r9, ip, lr}
    4314:	7d021068 	stcvc	0, cr1, [r2, #-416]	; 0xfffffe60
    4318:	ec030500 	cfstr32	mvfx0, [r3], {-0}
    431c:	000000a8 	andeq	r0, r0, r8, lsr #1
    4320:	009db811 	addseq	fp, sp, r1, lsl r8
    4324:	0008c800 	andeq	ip, r8, r0, lsl #16
    4328:	7e120000 	cdpvc	0, 1, cr0, cr2, cr0, {0}
    432c:	3c000000 	stccc	0, cr0, [r0], {-0}
    4330:	13000004 	movwne	r0, #4
    4334:	0000002c 	andeq	r0, r0, ip, lsr #32
    4338:	2c05000f 	stccs	0, cr0, [r5], {15}
    433c:	16000004 	strne	r0, [r0], -r4
    4340:	00000443 	andeq	r0, r0, r3, asr #8
    4344:	8a075301 	bhi	1d8f50 <__bss_end__+0x1ce178>
    4348:	68000000 	stmdavs	r0, {}	; <UNPREDICTABLE>
    434c:	6400009c 	strvs	r0, [r0], #-156	; 0xffffff64
    4350:	01000000 	mrseq	r0, (UNDEF: 0)
    4354:	0005089c 	muleq	r5, ip, r8
    4358:	03001700 	movweq	r1, #1792	; 0x700
    435c:	53010000 	movwpl	r0, #4096	; 0x1000
    4360:	00002c18 	andeq	r2, r0, r8, lsl ip
    4364:	002a8000 	eoreq	r8, sl, r0
    4368:	002a7800 	eoreq	r7, sl, r0, lsl #16
    436c:	00900e00 	addseq	r0, r0, r0, lsl #28
    4370:	05180000 	ldreq	r0, [r8, #-0]
    4374:	03050000 	movweq	r0, #20480	; 0x5000
    4378:	0000a970 	andeq	sl, r0, r0, ror r9
    437c:	000a511d 	andeq	r5, sl, sp, lsl r1
    4380:	0b550100 	bleq	1544788 <__bss_end__+0x15399b0>
    4384:	0000008a 	andeq	r0, r0, sl, lsl #1
    4388:	00002ab8 			; <UNDEFINED> instruction: 0x00002ab8
    438c:	00002ab4 			; <UNDEFINED> instruction: 0x00002ab4
    4390:	009c800f 	addseq	r8, ip, pc
    4394:	00051d00 	andeq	r1, r5, r0, lsl #26
    4398:	0004a600 	andeq	sl, r4, r0, lsl #12
    439c:	50011000 	andpl	r1, r1, r0
    43a0:	00007402 	andeq	r7, r0, r2, lsl #8
    43a4:	009c900f 	addseq	r9, ip, pc
    43a8:	0008e000 	andeq	lr, r8, r0
    43ac:	0004c500 	andeq	ip, r4, r0, lsl #10
    43b0:	50011000 	andpl	r1, r1, r0
    43b4:	10007502 	andne	r7, r0, r2, lsl #10
    43b8:	30015101 	andcc	r5, r1, r1, lsl #2
    43bc:	02520110 	subseq	r0, r2, #4
    43c0:	0f000074 	svceq	0x00000074
    43c4:	00009cb8 			; <UNDEFINED> instruction: 0x00009cb8
    43c8:	000008bc 			; <UNDEFINED> instruction: 0x000008bc
    43cc:	000004fe 	strdeq	r0, [r0], -lr
    43d0:	05500110 	ldrbeq	r0, [r0, #-272]	; 0xfffffef0
    43d4:	00a12803 	adceq	r2, r1, r3, lsl #16
    43d8:	51011000 	mrspl	r1, (UNDEF: 1)
    43dc:	a7a00305 	strge	r0, [r0, r5, lsl #6]!
    43e0:	01100000 	tsteq	r0, r0
    43e4:	70030552 	andvc	r0, r3, r2, asr r5
    43e8:	100000a9 	andne	r0, r0, r9, lsr #1
    43ec:	08025301 	stmdaeq	r2, {r0, r8, r9, ip, lr}
    43f0:	7d021054 	stcvc	0, cr1, [r2, #-336]	; 0xfffffeb0
    43f4:	b0030500 	andlt	r0, r3, r0, lsl #10
    43f8:	000000a7 	andeq	r0, r0, r7, lsr #1
    43fc:	009cbc11 	addseq	fp, ip, r1, lsl ip
    4400:	0008c800 	andeq	ip, r8, r0, lsl #16
    4404:	7e120000 	cdpvc	0, 1, cr0, cr2, cr0, {0}
    4408:	18000000 	stmdane	r0, {}	; <UNPREDICTABLE>
    440c:	13000005 	movwne	r0, #5
    4410:	0000002c 	andeq	r0, r0, ip, lsr #32
    4414:	08050007 	stmdaeq	r5, {r0, r1, r2}
    4418:	16000005 	strne	r0, [r0], -r5
    441c:	00000aa4 	andeq	r0, r0, r4, lsr #21
    4420:	8a074701 	bhi	1d602c <__bss_end__+0x1cb254>
    4424:	d0000000 	andle	r0, r0, r0
    4428:	9800009b 	stmdals	r0, {r0, r1, r3, r4, r7}
    442c:	01000000 	mrseq	r0, (UNDEF: 0)
    4430:	00062b9c 	muleq	r6, ip, fp
    4434:	03001700 	movweq	r1, #1792	; 0x700
    4438:	47010000 	strmi	r0, [r1, -r0]
    443c:	00002c20 	andeq	r2, r0, r0, lsr #24
    4440:	002ae600 	eoreq	lr, sl, r0, lsl #12
    4444:	002ad600 	eoreq	sp, sl, r0, lsl #12
    4448:	00900e00 	addseq	r0, r0, r0, lsl #28
    444c:	043c0000 	ldrteq	r0, [ip], #-0
    4450:	03050000 	movweq	r0, #20480	; 0x5000
    4454:	0000a960 	andeq	sl, r0, r0, ror #18
    4458:	000a511d 	andeq	r5, sl, sp, lsl r1
    445c:	0b4b0100 	bleq	12c4864 <__bss_end__+0x12b9a8c>
    4460:	0000008a 	andeq	r0, r0, sl, lsl #1
    4464:	00002b58 	andeq	r2, r0, r8, asr fp
    4468:	00002b54 	andeq	r2, r0, r4, asr fp
    446c:	00081f1b 	andeq	r1, r8, fp, lsl pc
    4470:	009be000 	addseq	lr, fp, r0
    4474:	04c00300 	strbeq	r0, [r0], #768	; 0x300
    4478:	49010000 	stmdbmi	r1, {}	; <UNPREDICTABLE>
    447c:	0005a30e 	andeq	sl, r5, lr, lsl #6
    4480:	083a1a00 	ldmdaeq	sl!, {r9, fp, ip}
    4484:	2b780000 	blcs	1e0448c <__bss_end__+0x1df96b4>
    4488:	2b760000 	blcs	1d84490 <__bss_end__+0x1d796b8>
    448c:	301a0000 	andscc	r0, sl, r0
    4490:	90000008 	andls	r0, r0, r8
    4494:	8c00002b 	stchi	0, cr0, [r0], {43}	; 0x2b
    4498:	1e00002b 	cdpne	0, 0, cr0, cr0, cr11, {1}
    449c:	000004c0 	andeq	r0, r0, r0, asr #9
    44a0:	9c280f00 	stcls	15, cr0, [r8], #-0
    44a4:	08bc0000 	ldmeq	ip!, {}	; <UNPREDICTABLE>
    44a8:	05dc0000 	ldrbeq	r0, [ip]
    44ac:	01100000 	tsteq	r0, r0
    44b0:	28030550 	stmdacs	r3, {r4, r6, r8, sl}
    44b4:	100000a1 	andne	r0, r0, r1, lsr #1
    44b8:	03055101 	movweq	r5, #20737	; 0x5101
    44bc:	0000a7a0 	andeq	sl, r0, r0, lsr #15
    44c0:	05520110 	ldrbeq	r0, [r2, #-272]	; 0xfffffef0
    44c4:	00a96003 	adceq	r6, r9, r3
    44c8:	53011000 	movwpl	r1, #4096	; 0x1000
    44cc:	10480802 	subne	r0, r8, r2, lsl #16
    44d0:	05007d02 	streq	r7, [r0, #-3330]	; 0xfffff2fe
    44d4:	00a7b003 	adceq	fp, r7, r3
    44d8:	2c110000 	ldccs	0, cr0, [r1], {-0}
    44dc:	c800009c 	stmdagt	r0, {r2, r3, r4, r7}
    44e0:	0f000008 	svceq	0x00000008
    44e4:	00009c4c 	andeq	r9, r0, ip, asr #24
    44e8:	000008bc 			; <UNDEFINED> instruction: 0x000008bc
    44ec:	00000621 	andeq	r0, r0, r1, lsr #12
    44f0:	05500110 	ldrbeq	r0, [r0, #-272]	; 0xfffffef0
    44f4:	00a82c03 	adceq	r2, r8, r3, lsl #24
    44f8:	51011000 	mrspl	r1, (UNDEF: 1)
    44fc:	a7a00305 	strge	r0, [r0, r5, lsl #6]!
    4500:	01100000 	tsteq	r0, r0
    4504:	60030552 	andvs	r0, r3, r2, asr r5
    4508:	100000a9 	andne	r0, r0, r9, lsr #1
    450c:	08025301 	stmdaeq	r2, {r0, r8, r9, ip, lr}
    4510:	7d02104e 	stcvc	0, cr1, [r2, #-312]	; 0xfffffec8
    4514:	01f30800 	mvnseq	r0, r0, lsl #16
    4518:	09072350 	stmdbeq	r7, {r4, r6, r8, r9, sp}
    451c:	11001af8 	strdne	r1, [r0, -r8]
    4520:	00009c50 	andeq	r9, r0, r0, asr ip
    4524:	000008c8 	andeq	r0, r0, r8, asr #17
    4528:	0ac60c00 	beq	ff187530 <__bss_end__+0xff17c758>
    452c:	3c010000 	stccc	0, cr0, [r1], {-0}
    4530:	009b7806 	addseq	r7, fp, r6, lsl #16
    4534:	00005800 	andeq	r5, r0, r0, lsl #16
    4538:	cf9c0100 	svcgt	0x009c0100
    453c:	0a000006 	beq	455c <__code_start__-0x3aa4>
    4540:	0000039b 	muleq	r0, fp, r3
    4544:	25103d01 	ldrcs	r3, [r0, #-3329]	; 0xfffff2ff
    4548:	05000000 	streq	r0, [r0, #-0]
    454c:	00add403 	adceq	sp, sp, r3, lsl #8
    4550:	00900e00 	addseq	r0, r0, r0, lsl #28
    4554:	06df0000 	ldrbeq	r0, [pc], r0
    4558:	03050000 	movweq	r0, #20480	; 0x5000
    455c:	0000a950 	andeq	sl, r0, r0, asr r9
    4560:	2c040707 	stccs	7, cr0, [r4], {7}
    4564:	01000000 	mrseq	r0, (UNDEF: 0)
    4568:	067a0a42 	ldrbteq	r0, [sl], -r2, asr #20
    456c:	8d080000 	stchi	0, cr0, [r8, #-0]
    4570:	0000000a 	andeq	r0, r0, sl
    4574:	00001000 	andeq	r1, r0, r0
    4578:	009ba40f 	addseq	sl, fp, pc, lsl #8
    457c:	0006e400 	andeq	lr, r6, r0, lsl #8
    4580:	00069600 	andeq	r9, r6, r0, lsl #12
    4584:	50011000 	andpl	r1, r1, r0
    4588:	24404003 	strbcs	r4, [r0], #-3
    458c:	03510110 	cmpeq	r1, #4
    4590:	00244840 	eoreq	r4, r4, r0, asr #16
    4594:	009bbc0f 	addseq	fp, fp, pc, lsl #24
    4598:	0008bc00 	andeq	fp, r8, r0, lsl #24
    459c:	0006c500 	andeq	ip, r6, r0, lsl #10
    45a0:	50011000 	andpl	r1, r1, r0
    45a4:	a7fc0305 	ldrbge	r0, [ip, r5, lsl #6]!
    45a8:	01100000 	tsteq	r0, r0
    45ac:	a0030551 	andge	r0, r3, r1, asr r5
    45b0:	100000a7 	andne	r0, r0, r7, lsr #1
    45b4:	03055201 	movweq	r5, #20993	; 0x5201
    45b8:	0000a950 	andeq	sl, r0, r0, asr r9
    45bc:	02530110 	subseq	r0, r3, #4
    45c0:	11004008 	tstne	r0, r8
    45c4:	00009bc0 	andeq	r9, r0, r0, asr #23
    45c8:	000008c8 	andeq	r0, r0, r8, asr #17
    45cc:	007e1200 	rsbseq	r1, lr, r0, lsl #4
    45d0:	06df0000 	ldrbeq	r0, [pc], r0
    45d4:	2c130000 	ldccs	0, cr0, [r3], {-0}
    45d8:	0c000000 	stceq	0, cr0, [r0], {-0}
    45dc:	06cf0500 	strbeq	r0, [pc], r0, lsl #10
    45e0:	4b0c0000 	blmi	3045e8 <__bss_end__+0x2f9810>
    45e4:	01000004 	tsteq	r0, r4
    45e8:	9adc062d 	bls	ff705ea4 <__bss_end__+0xff6fb0cc>
    45ec:	009c0000 	addseq	r0, ip, r0
    45f0:	9c010000 	stcls	0, cr0, [r1], {-0}
    45f4:	000007c8 	andeq	r0, r0, r8, asr #15
    45f8:	000a5017 	andeq	r5, sl, r7, lsl r0
    45fc:	262d0100 	strtcs	r0, [sp], -r0, lsl #2
    4600:	0000002c 	andeq	r0, r0, ip, lsr #32
    4604:	00002bbe 			; <UNDEFINED> instruction: 0x00002bbe
    4608:	00002bb0 			; <UNDEFINED> instruction: 0x00002bb0
    460c:	000a4517 	andeq	r4, sl, r7, lsl r5
    4610:	362d0100 	strtcc	r0, [sp], -r0, lsl #2
    4614:	0000002c 	andeq	r0, r0, ip, lsr #32
    4618:	00002c26 	andeq	r2, r0, r6, lsr #24
    461c:	00002c1e 	andeq	r2, r0, lr, lsl ip
    4620:	000a511d 	andeq	r5, sl, sp, lsl r1
    4624:	0b2e0100 	bleq	b84a2c <__bss_end__+0xb79c54>
    4628:	000000c2 	andeq	r0, r0, r2, asr #1
    462c:	00002c6e 	andeq	r2, r0, lr, ror #24
    4630:	00002c60 	andeq	r2, r0, r0, ror #24
    4634:	0000900e 	andeq	r9, r0, lr
    4638:	0007d800 	andeq	sp, r7, r0, lsl #16
    463c:	38030500 	stmdacc	r3, {r8, sl}
    4640:	0f0000a9 	svceq	0x000000a9
    4644:	00009b34 	andeq	r9, r0, r4, lsr fp
    4648:	000008bc 			; <UNDEFINED> instruction: 0x000008bc
    464c:	0000077e 	andeq	r0, r0, lr, ror r7
    4650:	05500110 	ldrbeq	r0, [r0, #-272]	; 0xfffffef0
    4654:	00a12803 	adceq	r2, r1, r3, lsl #16
    4658:	51011000 	mrspl	r1, (UNDEF: 1)
    465c:	a7a00305 	strge	r0, [r0, r5, lsl #6]!
    4660:	01100000 	tsteq	r0, r0
    4664:	38030552 	stmdacc	r3, {r1, r4, r6, r8, sl}
    4668:	100000a9 	andne	r0, r0, r9, lsr #1
    466c:	08025301 	stmdaeq	r2, {r0, r8, r9, ip, lr}
    4670:	7d021030 	stcvc	0, cr1, [r2, #-192]	; 0xffffff40
    4674:	ac030500 	cfstr32ge	mvfx0, [r3], {-0}
    4678:	000000a7 	andeq	r0, r0, r7, lsr #1
    467c:	009b3811 	addseq	r3, fp, r1, lsl r8
    4680:	0008c800 	andeq	ip, r8, r0, lsl #16
    4684:	9b5c0f00 	blls	170828c <__bss_end__+0x16fd4b4>
    4688:	08bc0000 	ldmeq	ip!, {}	; <UNPREDICTABLE>
    468c:	07be0000 	ldreq	r0, [lr, r0]!
    4690:	01100000 	tsteq	r0, r0
    4694:	b8030550 	stmdalt	r3, {r4, r6, r8, sl}
    4698:	100000a7 	andne	r0, r0, r7, lsr #1
    469c:	03055101 	movweq	r5, #20737	; 0x5101
    46a0:	0000a7a0 	andeq	sl, r0, r0, lsr #15
    46a4:	05520110 	ldrbeq	r0, [r2, #-272]	; 0xfffffef0
    46a8:	00a93803 	adceq	r3, r9, r3, lsl #16
    46ac:	53011000 	movwpl	r1, #4096	; 0x1000
    46b0:	10340802 	eorsne	r0, r4, r2, lsl #16
    46b4:	03007d02 	movweq	r7, #3330	; 0xd02
    46b8:	005001f3 	ldrsheq	r0, [r0], #-19	; 0xffffffed
    46bc:	009b6011 	addseq	r6, fp, r1, lsl r0
    46c0:	0008c800 	andeq	ip, r8, r0, lsl #16
    46c4:	7e120000 	cdpvc	0, 1, cr0, cr2, cr0, {0}
    46c8:	d8000000 	stmdale	r0, {}	; <UNPREDICTABLE>
    46cc:	13000007 	movwne	r0, #7
    46d0:	0000002c 	andeq	r0, r0, ip, lsr #32
    46d4:	c8050016 	stmdagt	r5, {r1, r2, r4}
    46d8:	1f000007 	svcne	0x00000007
    46dc:	00000ade 	ldrdeq	r0, [r0], -lr
    46e0:	8a072a01 	bhi	1ceeec <__bss_end__+0x1c4114>
    46e4:	cc000000 	stcgt	0, cr0, [r0], {-0}
    46e8:	1000009a 	mulne	r0, sl, r0
    46ec:	01000000 	mrseq	r0, (UNDEF: 0)
    46f0:	0a321f9c 	beq	c8c568 <__bss_end__+0xc81790>
    46f4:	29010000 	stmdbcs	r1, {}	; <UNPREDICTABLE>
    46f8:	00008a07 	andeq	r8, r0, r7, lsl #20
    46fc:	009abc00 	addseq	fp, sl, r0, lsl #24
    4700:	00001000 	andeq	r1, r0, r0
    4704:	1f9c0100 	svcne	0x009c0100
    4708:	00000a93 	muleq	r0, r3, sl
    470c:	8a072801 	bhi	1ce718 <__bss_end__+0x1c3940>
    4710:	ac000000 	stcge	0, cr0, [r0], {-0}
    4714:	1000009a 	mulne	r0, sl, r0
    4718:	01000000 	mrseq	r0, (UNDEF: 0)
    471c:	0a69209c 	beq	1a4c994 <__bss_end__+0x1a41bbc>
    4720:	10010000 	andne	r0, r1, r0
    4724:	00002c18 	andeq	r2, r0, r8, lsl ip
    4728:	08540300 	ldmdaeq	r4, {r8, r9}^
    472c:	78210000 	stmdavc	r1!, {}	; <UNPREDICTABLE>
    4730:	29100100 	ldmdbcs	r0, {r8}
    4734:	0000002c 	andeq	r0, r0, ip, lsr #32
    4738:	01006e21 	tsteq	r0, r1, lsr #28
    473c:	002c3510 	eoreq	r3, ip, r0, lsl r5
    4740:	900e0000 	andls	r0, lr, r0
    4744:	18000000 	stmdane	r0, {}	; <UNPREDICTABLE>
    4748:	05000005 	streq	r0, [r0, #-5]
    474c:	00a98803 	adceq	r8, r9, r3, lsl #16
    4750:	b4200000 	strtlt	r0, [r0], #-0
    4754:	0100000a 	tsteq	r0, sl
    4758:	002c180d 	eoreq	r1, ip, sp, lsl #16
    475c:	70030000 	andvc	r0, r3, r0
    4760:	21000008 	tstcs	r0, r8
    4764:	0d010078 	stceq	0, cr0, [r1, #-480]	; 0xfffffe20
    4768:	00002c29 	andeq	r2, r0, r9, lsr #24
    476c:	d3200000 	nople	{0}	; <UNPREDICTABLE>
    4770:	0100000a 	tsteq	r0, sl
    4774:	002c1807 	eoreq	r1, ip, r7, lsl #16
    4778:	96030000 	strls	r0, [r3], -r0
    477c:	21000008 	tstcs	r0, r8
    4780:	07010078 	smlsdxeq	r1, r8, r0, r0
    4784:	00002c2c 	andeq	r2, r0, ip, lsr #24
    4788:	006e2100 	rsbeq	r2, lr, r0, lsl #2
    478c:	2c380701 	ldccs	7, cr0, [r8], #-4
    4790:	00000000 	andeq	r0, r0, r0
    4794:	000a8520 	andeq	r8, sl, r0, lsr #10
    4798:	18040100 	stmdane	r4, {r8}
    479c:	0000005d 	andeq	r0, r0, sp, asr r0
    47a0:	0008bc03 	andeq	fp, r8, r3, lsl #24
    47a4:	00782100 	rsbseq	r2, r8, r0, lsl #2
    47a8:	5d290401 	cfstrspl	mvf0, [r9, #-4]!
    47ac:	21000000 	mrscs	r0, (UNDEF: 0)
    47b0:	04010079 	streq	r0, [r1], #-121	; 0xffffff87
    47b4:	00005d35 	andeq	r5, r0, r5, lsr sp
    47b8:	94220000 	strtls	r0, [r2], #-0
    47bc:	94000005 	strls	r0, [r0], #-5
    47c0:	02000005 	andeq	r0, r0, #5, 0
    47c4:	a7220628 	strge	r0, [r2, -r8, lsr #12]!
    47c8:	a7000000 	strge	r0, [r0, -r0]
    47cc:	02000000 	andeq	r0, r0, #0, 0
    47d0:	ef22066e 	svc	0x0022066e
    47d4:	ef00000a 	svc	0x0000000a
    47d8:	0200000a 	andeq	r0, r0, #10, 0
    47dc:	2b22061d 	blcs	886058 <__bss_end__+0x87b280>
    47e0:	2b000002 	blcs	47f0 <__code_start__-0x3810>
    47e4:	02000002 	andeq	r0, r0, #2, 0
    47e8:	730007f2 	movwvc	r0, #2034	; 0x7f2
    47ec:	04000006 	streq	r0, [r0], #-6
    47f0:	00193100 	andseq	r3, r9, r0, lsl #2
    47f4:	b2010400 	andlt	r0, r1, #0, 8
    47f8:	0c000004 	stceq	0, cr0, [r0], {4}
    47fc:	00000b41 	andeq	r0, r0, r1, asr #22
    4800:	0000056a 	andeq	r0, r0, sl, ror #10
    4804:	00009e5c 	andeq	r9, r0, ip, asr lr
    4808:	00000198 	muleq	r0, r8, r1
    480c:	00002329 	andeq	r2, r0, r9, lsr #6
    4810:	d5070802 	strle	r0, [r7, #-2050]	; 0xfffff7fe
    4814:	02000001 	andeq	r0, r0, #1, 0
    4818:	01df0704 	bicseq	r0, pc, r4, lsl #14
    481c:	04030000 	streq	r0, [r3], #-0
    4820:	746e6905 	strbtvc	r6, [lr], #-2309	; 0xfffff6fb
    4824:	002c0400 	eoreq	r0, ip, r0, lsl #8
    4828:	01020000 	mrseq	r0, (UNDEF: 2)
    482c:	00017706 	andeq	r7, r1, r6, lsl #14
    4830:	05020200 	streq	r0, [r2, #-512]	; 0xfffffe00
    4834:	00000021 	andeq	r0, r0, r1, lsr #32
    4838:	56050402 	strpl	r0, [r5], -r2, lsl #8
    483c:	02000000 	andeq	r0, r0, #0, 0
    4840:	00510508 	subseq	r0, r1, r8, lsl #10
    4844:	01020000 	mrseq	r0, (UNDEF: 2)
    4848:	00017508 	andeq	r7, r1, r8, lsl #10
    484c:	07020200 	streq	r0, [r2, -r0, lsl #4]
    4850:	00000206 	andeq	r0, r0, r6, lsl #4
    4854:	0001ec05 	andeq	lr, r1, r5, lsl #24
    4858:	19340300 	ldmdbne	r4!, {r8, r9}
    485c:	00000075 	andeq	r0, r0, r5, ror r0
    4860:	da070402 	ble	1c5870 <__bss_end__+0x1baa98>
    4864:	06000001 	streq	r0, [r0], -r1
    4868:	00000033 	andeq	r0, r0, r3, lsr r0
    486c:	0000008b 	andeq	r0, r0, fp, lsl #1
    4870:	00003307 	andeq	r3, r0, r7, lsl #6
    4874:	2b080000 	blcs	20487c <__bss_end__+0x1f9aa4>
    4878:	02000000 	andeq	r0, r0, #0, 0
    487c:	00970e1c 	addseq	r0, r7, ip, lsl lr
    4880:	04090000 	streq	r0, [r9], #-0
    4884:	0000007c 	andeq	r0, r0, ip, ror r0
    4888:	00003306 	andeq	r3, r0, r6, lsl #6
    488c:	0000ac00 	andeq	sl, r0, r0, lsl #24
    4890:	00ac0700 	adceq	r0, ip, r0, lsl #14
    4894:	09000000 	stmdbeq	r0, {}	; <UNPREDICTABLE>
    4898:	0000b904 	andeq	fp, r0, r4, lsl #18
    489c:	08010200 	stmdaeq	r1, {r9}
    48a0:	0000017e 	andeq	r0, r0, lr, ror r1
    48a4:	0000b204 	andeq	fp, r0, r4, lsl #4
    48a8:	05d20800 	ldrbeq	r0, [r2, #2048]	; 0x800
    48ac:	21020000 	mrscs	r0, (UNDEF: 2)
    48b0:	0000ca0e 	andeq	ip, r0, lr, lsl #20
    48b4:	9d040900 	vstrls.16	s0, [r4, #-0]	; <UNPREDICTABLE>
    48b8:	0a000000 	beq	48c0 <__code_start__-0x3740>
    48bc:	005b0107 	subseq	r0, fp, r7, lsl #2
    48c0:	0c040000 	stceq	0, cr0, [r4], {-0}
    48c4:	00010f0e 	andeq	r0, r1, lr, lsl #30
    48c8:	0a0a0b00 	beq	2874d0 <__bss_end__+0x27c6f8>
    48cc:	0b000000 	bleq	48d4 <__code_start__-0x372c>
    48d0:	00000842 	andeq	r0, r0, r2, asr #16
    48d4:	08850b01 	stmeq	r5, {r0, r8, r9, fp}
    48d8:	0b040000 	bleq	1048e0 <__bss_end__+0xf9b08>
    48dc:	00000894 	muleq	r0, r4, r8
    48e0:	08a30b05 	stmiaeq	r3!, {r0, r2, r8, r9, fp}
    48e4:	0b060000 	bleq	1848ec <__bss_end__+0x179b14>
    48e8:	000008b2 			; <UNDEFINED> instruction: 0x000008b2
    48ec:	09d30b07 	ldmibeq	r3, {r0, r1, r2, r8, r9, fp}^
    48f0:	0b030000 	bleq	c48f8 <__bss_end__+0xb9b20>
    48f4:	000008c1 	andeq	r0, r0, r1, asr #17
    48f8:	7a050002 	bvc	144908 <__bss_end__+0x139b30>
    48fc:	0400000b 	streq	r0, [r0], #-11
    4900:	00d00315 	sbcseq	r0, r0, r5, lsl r3
    4904:	180c0000 	stmdane	ip, {}	; <UNPREDICTABLE>
    4908:	0100000b 	tsteq	r0, fp
    490c:	003a171d 	eorseq	r1, sl, sp, lsl r7
    4910:	001c0000 	andseq	r0, ip, r0
    4914:	0e0c2020 	cdpeq	0, 0, cr2, cr12, cr0, {1}
    4918:	0100000b 	tsteq	r0, fp
    491c:	003a171e 	eorseq	r1, sl, lr, lsl r7
    4920:	00280000 	eoreq	r0, r8, r0
    4924:	860c2020 	strhi	r2, [ip], -r0, lsr #32
    4928:	0100000b 	tsteq	r0, fp
    492c:	003a171f 	eorseq	r1, sl, pc, lsl r7
    4930:	00340000 	eorseq	r0, r4, r0
    4934:	370d2020 	strcc	r2, [sp, -r0, lsr #32]
    4938:	0100000b 	tsteq	r0, fp
    493c:	00330551 	eorseq	r0, r3, r1, asr r5
    4940:	9fcc0000 	svcls	0x00cc0000
    4944:	00280000 	eoreq	r0, r8, r0
    4948:	9c010000 	stcls	0, cr0, [r1], {-0}
    494c:	000001ba 			; <UNDEFINED> instruction: 0x000001ba
    4950:	6e69700e 	cdpvs	0, 6, cr7, cr9, cr14, {0}
    4954:	18510100 	ldmdane	r1, {r8}^
    4958:	0000002c 	andeq	r0, r0, ip, lsr #32
    495c:	00002cd4 	ldrdeq	r2, [r0], -r4
    4960:	00002cce 	andeq	r2, r0, lr, asr #25
    4964:	000b900f 	andeq	r9, fp, pc
    4968:	0e520100 	rdfeqs	f0, f2, f0
    496c:	0000002c 	andeq	r0, r0, ip, lsr #32
    4970:	00002d0a 	andeq	r2, r0, sl, lsl #26
    4974:	00002d00 	andeq	r2, r0, r0, lsl #26
    4978:	66666f10 	uqadd16vs	r6, r6, r0
    497c:	0e530100 	rdfeqs	f0, f3, f0
    4980:	0000002c 	andeq	r0, r0, ip, lsr #32
    4984:	00002d78 	andeq	r2, r0, r8, ror sp
    4988:	00002d72 	andeq	r2, r0, r2, ror sp
    498c:	009fe011 	addseq	lr, pc, r1, lsl r0	; <UNPREDICTABLE>
    4990:	00065e00 	andeq	r5, r6, r0, lsl #28
    4994:	50011200 	andpl	r1, r1, r0, lsl #4
    4998:	3500740a 	strcc	r7, [r0, #-1034]	; 0xfffffbf6
    499c:	80b42325 	adcshi	r2, r4, r5, lsr #6
    49a0:	00028180 	andeq	r8, r2, r0, lsl #3
    49a4:	0b221300 	bleq	8895ac <__bss_end__+0x87e7d4>
    49a8:	4a010000 	bmi	449b0 <__bss_end__+0x39bd8>
    49ac:	009f9c06 	addseq	r9, pc, r6, lsl #24
    49b0:	00003000 	andeq	r3, r0, r0
    49b4:	759c0100 	ldrvc	r0, [ip, #256]	; 0x100
    49b8:	0e000002 	cdpeq	0, 0, cr0, cr0, cr2, {0}
    49bc:	006e6970 	rsbeq	r6, lr, r0, ror r9
    49c0:	2c1a4a01 			; <UNDEFINED> instruction: 0x2c1a4a01
    49c4:	b5000000 	strlt	r0, [r0, #-0]
    49c8:	a900002d 	stmdbge	r0, {r0, r2, r3, r5}
    49cc:	0e00002d 	cdpeq	0, 0, cr0, cr0, cr13, {1}
    49d0:	4a010076 	bmi	44bb0 <__bss_end__+0x39dd8>
    49d4:	00002c28 	andeq	r2, r0, r8, lsr #24
    49d8:	002e0900 	eoreq	r0, lr, r0, lsl #18
    49dc:	002e0500 	eoreq	r0, lr, r0, lsl #10
    49e0:	038d1400 	orreq	r1, sp, #0, 8
    49e4:	9fac0000 	svcls	0x00ac0000
    49e8:	90010000 	andls	r0, r1, r0
    49ec:	01000005 	tsteq	r0, r5
    49f0:	0235094c 	eorseq	r0, r5, #76, 18	; 0x130000
    49f4:	9a150000 	bls	5449fc <__bss_end__+0x539c24>
    49f8:	30000003 	andcc	r0, r0, r3
    49fc:	2a00002e 	bcs	4abc <__code_start__-0x3544>
    4a00:	1600002e 	strne	r0, [r0], -lr, lsr #32
    4a04:	00009fb8 			; <UNDEFINED> instruction: 0x00009fb8
    4a08:	0000066a 	andeq	r0, r0, sl, ror #12
    4a0c:	05500112 	ldrbeq	r0, [r0, #-274]	; 0xfffffeee
    4a10:	20001c0c 	andcs	r1, r0, ip, lsl #24
    4a14:	51011220 	tstpl	r1, r0, lsr #4
    4a18:	01f33105 	mvnseq	r3, r5, lsl #2
    4a1c:	00002450 	andeq	r2, r0, r0, asr r4
    4a20:	00037317 	andeq	r7, r3, r7, lsl r3
    4a24:	009fb800 	addseq	fp, pc, r0, lsl #16
    4a28:	9fb80200 	svcls	0x00b80200
    4a2c:	00140000 	andseq	r0, r4, r0
    4a30:	4e010000 	cdpmi	0, 0, cr0, cr1, cr0, {0}
    4a34:	03801509 	orreq	r1, r0, #37748736	; 0x2400000
    4a38:	2e620000 	cdpcs	0, 6, cr0, cr2, cr0, {0}
    4a3c:	2e5c0000 	cdpcs	0, 5, cr0, cr12, cr0, {0}
    4a40:	c4160000 	ldrgt	r0, [r6], #-0
    4a44:	6a00009f 	bvs	4cc8 <__code_start__-0x3338>
    4a48:	12000006 	andne	r0, r0, #6, 0
    4a4c:	0c055001 	stceq	0, cr5, [r5], {1}
    4a50:	20200028 	eorcs	r0, r0, r8, lsr #32
    4a54:	05510112 	ldrbeq	r0, [r1, #-274]	; 0xfffffeee
    4a58:	5001f331 	andpl	pc, r1, r1, lsr r3	; <UNPREDICTABLE>
    4a5c:	00000024 	andeq	r0, r0, r4, lsr #32
    4a60:	000b4e13 	andeq	r4, fp, r3, lsl lr
    4a64:	06450100 	strbeq	r0, [r5], -r0, lsl #2
    4a68:	00009f44 	andeq	r9, r0, r4, asr #30
    4a6c:	00000058 	andeq	r0, r0, r8, asr r0
    4a70:	03739c01 	cmneq	r3, #256	; 0x100
    4a74:	700e0000 	andvc	r0, lr, r0
    4a78:	01006e69 	tsteq	r0, r9, ror #28
    4a7c:	002c1e45 	eoreq	r1, ip, r5, asr #28
    4a80:	2e940000 	cdpcs	0, 9, cr0, cr4, cr0, {0}
    4a84:	2e8e0000 	cdpcs	0, 8, cr0, cr14, cr0, {0}
    4a88:	a5180000 	ldrge	r0, [r8, #-0]
    4a8c:	44000004 	strmi	r0, [r0], #-4
    4a90:	0200009f 	andeq	r0, r0, #159, 0	; 0x9f
    4a94:	00000550 	andeq	r0, r0, r0, asr r5
    4a98:	19054601 	stmdbne	r5, {r0, r9, sl, lr}
    4a9c:	000004be 			; <UNDEFINED> instruction: 0x000004be
    4aa0:	04b21500 	ldrteq	r1, [r2], #1280	; 0x500
    4aa4:	2ec60000 	cdpcs	0, 12, cr0, cr6, cr0, {0}
    4aa8:	2ec00000 	cdpcs	0, 12, cr0, cr0, cr0, {0}
    4aac:	501a0000 	andspl	r0, sl, r0
    4ab0:	1b000005 	blne	4acc <__code_start__-0x3534>
    4ab4:	000004ca 	andeq	r0, r0, sl, asr #9
    4ab8:	0004d61b 	andeq	sp, r4, fp, lsl r6
    4abc:	04e01b00 	strbteq	r1, [r0], #2816	; 0xb00
    4ac0:	a5180000 	ldrge	r0, [r8, #-0]
    4ac4:	4c000004 	stcmi	0, cr0, [r0], {4}
    4ac8:	0000009f 	muleq	r0, pc, r0	; <UNPREDICTABLE>
    4acc:	00000570 	andeq	r0, r0, r0, ror r5
    4ad0:	19062801 	stmdbne	r6, {r0, fp, sp}
    4ad4:	000004be 			; <UNDEFINED> instruction: 0x000004be
    4ad8:	04b21500 	ldrteq	r1, [r2], #1280	; 0x500
    4adc:	2ef80000 	cdpcs	0, 15, cr0, cr8, cr0, {0}
    4ae0:	2ef20000 	cdpcs	0, 15, cr0, cr2, cr0, {0}
    4ae4:	701a0000 	andsvc	r0, sl, r0
    4ae8:	1c000005 	stcne	0, cr0, [r0], {5}
    4aec:	000004ca 	andeq	r0, r0, sl, asr #9
    4af0:	00002f2a 	andeq	r2, r0, sl, lsr #30
    4af4:	00002f24 	andeq	r2, r0, r4, lsr #30
    4af8:	0004d61c 	andeq	sp, r4, ip, lsl r6
    4afc:	002f6c00 	eoreq	r6, pc, r0, lsl #24
    4b00:	002f6600 	eoreq	r6, pc, r0, lsl #12
    4b04:	04e01c00 	strbteq	r1, [r0], #3072	; 0xc00
    4b08:	2fc20000 	svccs	0x00c20000
    4b0c:	2fba0000 	svccs	0x00ba0000
    4b10:	741d0000 	ldrvc	r0, [sp], #-0
    4b14:	5e00009f 	mcrpl	0, 0, r0, cr0, cr15, {4}
    4b18:	3b000006 	blcc	4b38 <__code_start__-0x34c8>
    4b1c:	12000003 	andne	r0, r0, #3, 0
    4b20:	76025001 	strvc	r5, [r2], -r1
    4b24:	98160000 	ldmdals	r6, {}	; <UNPREDICTABLE>
    4b28:	6a00009f 	bvs	4dac <__code_start__-0x3254>
    4b2c:	12000006 	andne	r0, r0, #6, 0
    4b30:	f3255001 	vhadd.u32	d5, d5, d1
    4b34:	2cf75001 	ldclcs	0, cr5, [r7], #4
    4b38:	25f425f7 	ldrbcs	r2, [r4, #1527]!	; 0x5f7
    4b3c:	cccccd08 	stclgt	13, cr12, [ip], {8}
    4b40:	000000cc 	andeq	r0, r0, ip, asr #1
    4b44:	20081e00 	andcs	r1, r8, r0, lsl #28
    4b48:	f72525f7 			; <UNDEFINED> instruction: 0xf72525f7
    4b4c:	3300f72c 	movwcc	pc, #1836	; 0x72c	; <UNPREDICTABLE>
    4b50:	80802325 	addhi	r2, r0, r5, lsr #6
    4b54:	243240a0 	ldrtcs	r4, [r2], #-160	; 0xffffff60
    4b58:	00000000 	andeq	r0, r0, r0
    4b5c:	5d1e0000 	ldcpl	0, cr0, [lr, #-0]
    4b60:	0100000b 	tsteq	r0, fp
    4b64:	8d030d40 	stchi	13, cr0, [r3, #-256]	; 0xffffff00
    4b68:	1f000003 	svcne	0x00000003
    4b6c:	006e6970 	rsbeq	r6, lr, r0, ror r9
    4b70:	2c234001 	stccs	0, cr4, [r3], #-4
    4b74:	00000000 	andeq	r0, r0, r0
    4b78:	000b951e 	andeq	r9, fp, lr, lsl r5
    4b7c:	0d3b0100 	ldfeqs	f0, [fp, #-0]
    4b80:	0003a703 	andeq	sl, r3, r3, lsl #14
    4b84:	69701f00 	ldmdbvs	r0!, {r8, r9, sl, fp, ip}^
    4b88:	3b01006e 	blcc	44d48 <__bss_end__+0x39f70>
    4b8c:	00002c22 	andeq	r2, r0, r2, lsr #24
    4b90:	6a130000 	bvs	4c4b98 <__bss_end__+0x4b9dc0>
    4b94:	0100000b 	tsteq	r0, fp
    4b98:	9ebc0636 	mrcls	6, 5, r0, cr12, cr6, {1}
    4b9c:	00580000 	subseq	r0, r8, r0
    4ba0:	9c010000 	stcls	0, cr0, [r1], {-0}
    4ba4:	000004a5 	andeq	r0, r0, r5, lsr #9
    4ba8:	6e69700e 	cdpvs	0, 6, cr7, cr9, cr14, {0}
    4bac:	1f360100 	svcne	0x00360100
    4bb0:	0000002c 	andeq	r0, r0, ip, lsr #32
    4bb4:	00003020 	andeq	r3, r0, r0, lsr #32
    4bb8:	0000301c 	andeq	r3, r0, ip, lsl r0
    4bbc:	0004a518 	andeq	sl, r4, r8, lsl r5
    4bc0:	009ebc00 	addseq	fp, lr, r0, lsl #24
    4bc4:	05100200 	ldreq	r0, [r0, #-512]	; 0xfffffe00
    4bc8:	37010000 	strcc	r0, [r1, -r0]
    4bcc:	04be1905 	ldrteq	r1, [lr], #2309	; 0x905
    4bd0:	15010000 	strne	r0, [r1, #-0]
    4bd4:	000004b2 			; <UNDEFINED> instruction: 0x000004b2
    4bd8:	00003045 	andeq	r3, r0, r5, asr #32
    4bdc:	00003041 	andeq	r3, r0, r1, asr #32
    4be0:	0005101a 	andeq	r1, r5, sl, lsl r0
    4be4:	04ca1b00 	strbeq	r1, [sl], #2816	; 0xb00
    4be8:	d61b0000 	ldrle	r0, [fp], -r0
    4bec:	1b000004 	blne	4c04 <__code_start__-0x33fc>
    4bf0:	000004e0 	andeq	r0, r0, r0, ror #9
    4bf4:	0004a518 	andeq	sl, r4, r8, lsl r5
    4bf8:	009ec400 	addseq	ip, lr, r0, lsl #8
    4bfc:	05300000 	ldreq	r0, [r0, #-0]!
    4c00:	28010000 	stmdacs	r1, {}	; <UNPREDICTABLE>
    4c04:	04be1906 	ldrteq	r1, [lr], #2310	; 0x906
    4c08:	15010000 	strne	r0, [r1, #-0]
    4c0c:	000004b2 			; <UNDEFINED> instruction: 0x000004b2
    4c10:	0000306a 	andeq	r3, r0, sl, rrx
    4c14:	00003066 	andeq	r3, r0, r6, rrx
    4c18:	0005301a 	andeq	r3, r5, sl, lsl r0
    4c1c:	04ca1c00 	strbeq	r1, [sl], #3072	; 0xc00
    4c20:	308f0000 	addcc	r0, pc, r0
    4c24:	308b0000 	addcc	r0, fp, r0
    4c28:	d61c0000 	ldrle	r0, [ip], -r0
    4c2c:	db000004 	blle	4c44 <__code_start__-0x33bc>
    4c30:	d5000030 	strle	r0, [r0, #-48]	; 0xffffffd0
    4c34:	1c000030 	stcne	0, cr0, [r0], {48}	; 0x30
    4c38:	000004e0 	andeq	r0, r0, r0, ror #9
    4c3c:	00003131 	andeq	r3, r0, r1, lsr r1
    4c40:	00003129 	andeq	r3, r0, r9, lsr #2
    4c44:	009ef01d 	addseq	pc, lr, sp, lsl r0	; <UNPREDICTABLE>
    4c48:	00065e00 	andeq	r5, r6, r0, lsl #28
    4c4c:	00046d00 	andeq	r6, r4, r0, lsl #26
    4c50:	50011200 	andpl	r1, r1, r0, lsl #4
    4c54:	00007502 	andeq	r7, r0, r2, lsl #10
    4c58:	009f1016 	addseq	r1, pc, r6, lsl r0	; <UNPREDICTABLE>
    4c5c:	00066a00 	andeq	r6, r6, r0, lsl #20
    4c60:	50011200 	andpl	r1, r1, r0, lsl #4
    4c64:	5001f325 	andpl	pc, r1, r5, lsr #6
    4c68:	25f72cf7 	ldrbcs	r2, [r7, #3319]!	; 0xcf7
    4c6c:	cd0825f4 	cfstr32gt	mvfx2, [r8, #-976]	; 0xfffffc30
    4c70:	00cccccc 	sbceq	ip, ip, ip, asr #25
    4c74:	1e000000 	cdpne	0, 0, cr0, cr0, cr0, {0}
    4c78:	25f72008 	ldrbcs	r2, [r7, #8]!
    4c7c:	f72cf725 			; <UNDEFINED> instruction: 0xf72cf725
    4c80:	23253300 			; <UNDEFINED> instruction: 0x23253300
    4c84:	40a08080 	adcmi	r8, r0, r0, lsl #1
    4c88:	00002432 	andeq	r2, r0, r2, lsr r4
    4c8c:	00000000 	andeq	r0, r0, r0
    4c90:	000a1a1e 	andeq	r1, sl, lr, lsl sl
    4c94:	06280100 	strteq	r0, [r8], -r0, lsl #2
    4c98:	0004eb01 	andeq	lr, r4, r1, lsl #22
    4c9c:	69701f00 	ldmdbvs	r0!, {r8, r9, sl, fp, ip}^
    4ca0:	2801006e 	stmdacs	r1, {r1, r2, r3, r5, r6}
    4ca4:	00002c21 	andeq	r2, r0, r1, lsr #24
    4ca8:	004c2000 	subeq	r2, ip, r0
    4cac:	28010000 	stmdacs	r1, {}	; <UNPREDICTABLE>
    4cb0:	00010f32 	andeq	r0, r1, r2, lsr pc
    4cb4:	666f2100 	strbtvs	r2, [pc], -r0, lsl #2
    4cb8:	2d010066 	stccs	0, cr0, [r1, #-408]	; 0xfffffe68
    4cbc:	00002c0e 	andeq	r2, r0, lr, lsl #24
    4cc0:	00672100 	rsbeq	r2, r7, r0, lsl #2
    4cc4:	2c0e2e01 	stccs	14, cr2, [lr], {1}
    4cc8:	21000000 	mrscs	r0, (UNDEF: 0)
    4ccc:	30010076 	andcc	r0, r1, r6, ror r0
    4cd0:	00002c0e 	andeq	r2, r0, lr, lsl #24
    4cd4:	2d220000 	stccs	0, cr0, [r2, #-0]
    4cd8:	0200000b 	andeq	r0, r0, #11, 0
    4cdc:	006918b1 	strhteq	r1, [r9], #-129	; 0xffffff7f
    4ce0:	07030000 	streq	r0, [r3, -r0]
    4ce4:	1f000005 	svcne	0x00000005
    4ce8:	b1020078 	tstlt	r2, r8, ror r0
    4cec:	0000692b 	andeq	r6, r0, fp, lsr #18
    4cf0:	a5230000 	strge	r0, [r3, #-0]!
    4cf4:	5c000004 	stcpl	0, cr0, [r0], {4}
    4cf8:	6000009e 	mulvs	r0, lr, r0
    4cfc:	01000000 	mrseq	r0, (UNDEF: 0)
    4d00:	0005e49c 	muleq	r5, ip, r4
    4d04:	04b21500 	ldrteq	r1, [r2], #1280	; 0x500
    4d08:	31700000 	cmncc	r0, r0
    4d0c:	316c0000 	cmncc	ip, r0
    4d10:	be150000 	cdplt	0, 1, cr0, cr5, cr0, {0}
    4d14:	95000004 	strls	r0, [r0, #-4]
    4d18:	91000031 	tstls	r0, r1, lsr r0
    4d1c:	1b000031 	blne	4de8 <__code_start__-0x3218>
    4d20:	000004ca 	andeq	r0, r0, sl, asr #9
    4d24:	0004d61b 	andeq	sp, r4, fp, lsl r6
    4d28:	04e01b00 	strbteq	r1, [r0], #2816	; 0xb00
    4d2c:	a5180000 	ldrge	r0, [r8, #-0]
    4d30:	64000004 	strvs	r0, [r0], #-4
    4d34:	0000009e 	muleq	r0, lr, r0
    4d38:	000004f0 	strdeq	r0, [r0], -r0	; <UNPREDICTABLE>
    4d3c:	15062801 	strne	r2, [r6, #-2049]	; 0xfffff7ff
    4d40:	000004be 			; <UNDEFINED> instruction: 0x000004be
    4d44:	000031ba 			; <UNDEFINED> instruction: 0x000031ba
    4d48:	000031b6 			; <UNDEFINED> instruction: 0x000031b6
    4d4c:	0004b215 	andeq	fp, r4, r5, lsl r2
    4d50:	0031df00 	eorseq	sp, r1, r0, lsl #30
    4d54:	0031db00 	eorseq	sp, r1, r0, lsl #22
    4d58:	04f01a00 	ldrbteq	r1, [r0], #2560	; 0xa00
    4d5c:	ca1c0000 	bgt	704d64 <__bss_end__+0x6f9f8c>
    4d60:	04000004 	streq	r0, [r0], #-4
    4d64:	00000032 	andeq	r0, r0, r2, lsr r0
    4d68:	1c000032 	stcne	0, cr0, [r0], {50}	; 0x32
    4d6c:	000004d6 	ldrdeq	r0, [r0], -r6
    4d70:	00003250 	andeq	r3, r0, r0, asr r2
    4d74:	0000324a 	andeq	r3, r0, sl, asr #4
    4d78:	0004e01c 	andeq	lr, r4, ip, lsl r0
    4d7c:	0032a600 	eorseq	sl, r2, r0, lsl #12
    4d80:	00329e00 	eorseq	r9, r2, r0, lsl #28
    4d84:	9e9c1d00 	cdpls	13, 9, cr1, cr12, cr0, {0}
    4d88:	065e0000 	ldrbeq	r0, [lr], -r0
    4d8c:	05ae0000 	streq	r0, [lr, #0]!
    4d90:	01120000 	tsteq	r2, r0
    4d94:	00760250 	rsbseq	r0, r6, r0, asr r2
    4d98:	9eb81600 	cdpls	6, 11, cr1, cr8, cr0, {0}
    4d9c:	066a0000 	strbteq	r0, [sl], -r0
    4da0:	01120000 	tsteq	r2, r0
    4da4:	01f32550 	mvnseq	r2, r0, asr r5
    4da8:	f72cf750 			; <UNDEFINED> instruction: 0xf72cf750
    4dac:	0825f425 	stmdaeq	r5!, {r0, r2, r5, sl, ip, sp, lr, pc}
    4db0:	cccccccd 	stclgt	12, cr12, [ip], {205}	; 0xcd
    4db4:	00000000 	andeq	r0, r0, r0
    4db8:	f720081e 			; <UNDEFINED> instruction: 0xf720081e
    4dbc:	2cf72525 	cfldr64cs	mvdx2, [r7], #148	; 0x94
    4dc0:	253300f7 	ldrcs	r0, [r3, #-247]!	; 0xffffff09
    4dc4:	a0808023 	addge	r8, r0, r3, lsr #32
    4dc8:	00243240 	eoreq	r3, r4, r0, asr #4
    4dcc:	23000000 	movwcs	r0, #0
    4dd0:	0000038d 	andeq	r0, r0, sp, lsl #7
    4dd4:	00009f14 	andeq	r9, r0, r4, lsl pc
    4dd8:	00000018 	andeq	r0, r0, r8, lsl r0
    4ddc:	06219c01 	strteq	r9, [r1], -r1, lsl #24
    4de0:	9a150000 	bls	544de8 <__bss_end__+0x53a010>
    4de4:	fc000003 	stc2	0, cr0, [r0], {3}
    4de8:	f6000032 			; <UNDEFINED> instruction: 0xf6000032
    4dec:	16000032 			; <UNDEFINED> instruction: 0x16000032
    4df0:	00009f28 	andeq	r9, r0, r8, lsr #30
    4df4:	0000066a 	andeq	r0, r0, sl, ror #12
    4df8:	05500112 	ldrbeq	r0, [r0, #-274]	; 0xfffffeee
    4dfc:	20001c0c 	andcs	r1, r0, ip, lsl #24
    4e00:	51011220 	tstpl	r1, r0, lsr #4
    4e04:	01f33105 	mvnseq	r3, r5, lsl #2
    4e08:	00002450 	andeq	r2, r0, r0, asr r4
    4e0c:	00037323 	andeq	r7, r3, r3, lsr #6
    4e10:	009f2c00 	addseq	r2, pc, r0, lsl #24
    4e14:	00001800 	andeq	r1, r0, r0, lsl #16
    4e18:	5e9c0100 	fmlple	f0, f4, f0
    4e1c:	15000006 	strne	r0, [r0, #-6]
    4e20:	00000380 	andeq	r0, r0, r0, lsl #7
    4e24:	0000332e 	andeq	r3, r0, lr, lsr #6
    4e28:	00003328 	andeq	r3, r0, r8, lsr #6
    4e2c:	009f4016 	addseq	r4, pc, r6, lsl r0	; <UNPREDICTABLE>
    4e30:	00066a00 	andeq	r6, r6, r0, lsl #20
    4e34:	50011200 	andpl	r1, r1, r0, lsl #4
    4e38:	00280c05 	eoreq	r0, r8, r5, lsl #24
    4e3c:	01122020 	tsteq	r2, r0, lsr #32
    4e40:	f3310551 	vqrshl.u64	q0, <illegal reg q0.5>, <illegal reg q0.5>
    4e44:	00245001 	eoreq	r5, r4, r1
    4e48:	07ef2400 	strbeq	r2, [pc, r0, lsl #8]!
    4e4c:	07ef0000 	strbeq	r0, [pc, r0]!
    4e50:	c2020000 	andgt	r0, r2, #0, 0
    4e54:	075b240a 	ldrbeq	r2, [fp, -sl, lsl #8]
    4e58:	075b0000 	ldrbeq	r0, [fp, -r0]
    4e5c:	ad020000 	stcge	0, cr0, [r2, #-0]
    4e60:	01490006 	cmpeq	r9, r6
    4e64:	00040000 	andeq	r0, r4, r0
    4e68:	00001b5f 	andeq	r1, r0, pc, asr fp
    4e6c:	04b20104 	ldrteq	r0, [r2], #260	; 0x104
    4e70:	bf0c0000 	svclt	0x000c0000
    4e74:	6a00000b 	bvs	4ea8 <__code_start__-0x3158>
    4e78:	f4000005 	vst4.8	{d0-d3}, [r0], r5
    4e7c:	3c00009f 	stccc	0, cr0, [r0], {159}	; 0x9f
    4e80:	b6000000 	strlt	r0, [r0], -r0
    4e84:	02000025 	andeq	r0, r0, #37, 0	; 0x25
    4e88:	6e690504 	cdpvs	5, 6, cr0, cr9, cr4, {0}
    4e8c:	04030074 	streq	r0, [r3], #-116	; 0xffffff8c
    4e90:	0001df07 	andeq	sp, r1, r7, lsl #30
    4e94:	06010300 	streq	r0, [r1], -r0, lsl #6
    4e98:	00000177 	andeq	r0, r0, r7, ror r1
    4e9c:	21050203 	tstcs	r5, r3, lsl #4
    4ea0:	03000000 	movweq	r0, #0
    4ea4:	00560504 	subseq	r0, r6, r4, lsl #10
    4ea8:	08030000 	stmdaeq	r3, {}	; <UNPREDICTABLE>
    4eac:	00005105 	andeq	r5, r0, r5, lsl #2
    4eb0:	08010300 	stmdaeq	r1, {r8, r9}
    4eb4:	00000175 	andeq	r0, r0, r5, ror r1
    4eb8:	06070203 	streq	r0, [r7], -r3, lsl #4
    4ebc:	03000002 	movweq	r0, #2
    4ec0:	01da0704 	bicseq	r0, sl, r4, lsl #14
    4ec4:	08030000 	stmdaeq	r3, {}	; <UNPREDICTABLE>
    4ec8:	0001d507 	andeq	sp, r1, r7, lsl #10
    4ecc:	00250400 	eoreq	r0, r5, r0, lsl #8
    4ed0:	007a0000 	rsbseq	r0, sl, r0
    4ed4:	25050000 	strcs	r0, [r5, #-0]
    4ed8:	00000000 	andeq	r0, r0, r0
    4edc:	00002b06 	andeq	r2, r0, r6, lsl #22
    4ee0:	0e1c0200 	cdpeq	2, 1, cr0, cr12, cr0, {0}
    4ee4:	00000086 	andeq	r0, r0, r6, lsl #1
    4ee8:	006b0407 	rsbeq	r0, fp, r7, lsl #8
    4eec:	25040000 	strcs	r0, [r4, #-0]
    4ef0:	9b000000 	blls	4ef8 <__code_start__-0x3108>
    4ef4:	05000000 	streq	r0, [r0, #-0]
    4ef8:	0000009b 	muleq	r0, fp, r0
    4efc:	a8040700 	stmdage	r4, {r8, r9, sl}
    4f00:	03000000 	movweq	r0, #0
    4f04:	017e0801 	cmneq	lr, r1, lsl #16
    4f08:	a1080000 	mrsge	r0, (UNDEF: 8)
    4f0c:	06000000 	streq	r0, [r0], -r0
    4f10:	000005d2 	ldrdeq	r0, [r0], -r2
    4f14:	b90e2102 	stmdblt	lr, {r1, r8, sp}
    4f18:	07000000 	streq	r0, [r0, -r0]
    4f1c:	00008c04 	andeq	r8, r0, r4, lsl #24
    4f20:	007a0900 	rsbseq	r0, sl, r0, lsl #18
    4f24:	06010000 	streq	r0, [r1], -r0
    4f28:	ac030507 	cfstr32ge	mvfx0, [r3], {7}
    4f2c:	0a0000a9 	beq	51d8 <__code_start__-0x2e28>
    4f30:	00000bb2 			; <UNDEFINED> instruction: 0x00000bb2
    4f34:	20060b01 	andcs	r0, r6, r1, lsl #22
    4f38:	100000a0 	andne	r0, r0, r0, lsr #1
    4f3c:	01000000 	mrseq	r0, (UNDEF: 0)
    4f40:	0000f19c 	muleq	r0, ip, r1
    4f44:	70660b00 	rsbvc	r0, r6, r0, lsl #22
    4f48:	190b0100 	stmdbne	fp, {r8}
    4f4c:	00000086 	andeq	r0, r0, r6, lsl #1
    4f50:	0c005001 	stceq	0, cr5, [r0], {1}
    4f54:	00000aef 	andeq	r0, r0, pc, ror #21
    4f58:	08060801 	stmdaeq	r6, {r0, fp}
    4f5c:	180000a0 	stmdane	r0, {r5, r7}
    4f60:	01000000 	mrseq	r0, (UNDEF: 0)
    4f64:	0ba10d9c 	bleq	fe8485dc <__bss_end__+0xfe83d804>
    4f68:	03010000 	movweq	r0, #4096	; 0x1000
    4f6c:	0000250c 	andeq	r2, r0, ip, lsl #10
    4f70:	009ff400 	addseq	pc, pc, r0, lsl #8
    4f74:	00001400 	andeq	r1, r0, r0, lsl #8
    4f78:	409c0100 	addsmi	r0, ip, r0, lsl #2
    4f7c:	0e000001 	cdpeq	0, 0, cr0, cr0, cr1, {0}
    4f80:	03010063 	movweq	r0, #4195	; 0x1063
    4f84:	00002521 	andeq	r2, r0, r1, lsr #10
    4f88:	00335e00 	eorseq	r5, r3, r0, lsl #28
    4f8c:	00335a00 	eorseq	r5, r3, r0, lsl #20
    4f90:	a0000f00 	andge	r0, r0, r0, lsl #30
    4f94:	01400000 	mrseq	r0, (UNDEF: 64)
    4f98:	01100000 	tsteq	r0, r0
    4f9c:	00740250 	rsbseq	r0, r4, r0, asr r2
    4fa0:	00110000 	andseq	r0, r1, r0
    4fa4:	0000000a 	andeq	r0, r0, sl
    4fa8:	0200000a 	andeq	r0, r0, #10, 0
    4fac:	37000642 	strcc	r0, [r0, -r2, asr #12]
    4fb0:	04000001 	streq	r0, [r0], #-1
    4fb4:	001c6e00 	andseq	r6, ip, r0, lsl #28
    4fb8:	b2010400 	andlt	r0, r1, #0, 8
    4fbc:	0c000004 	stceq	0, cr0, [r0], {4}
    4fc0:	00000bd0 	ldrdeq	r0, [r0], -r0	; <UNPREDICTABLE>
    4fc4:	0000056a 	andeq	r0, r0, sl, ror #10
    4fc8:	0000a030 	andeq	sl, r0, r0, lsr r0
    4fcc:	0000002c 	andeq	r0, r0, ip, lsr #32
    4fd0:	00002658 	andeq	r2, r0, r8, asr r6
    4fd4:	69050402 	stmdbvs	r5, {r1, sl}
    4fd8:	0300746e 	movweq	r7, #1134	; 0x46e
    4fdc:	01df0704 	bicseq	r0, pc, r4, lsl #14
    4fe0:	01030000 	mrseq	r0, (UNDEF: 3)
    4fe4:	00017706 	andeq	r7, r1, r6, lsl #14
    4fe8:	05020300 	streq	r0, [r2, #-768]	; 0xfffffd00
    4fec:	00000021 	andeq	r0, r0, r1, lsr #32
    4ff0:	56050403 	strpl	r0, [r5], -r3, lsl #8
    4ff4:	03000000 	movweq	r0, #0
    4ff8:	00510508 	subseq	r0, r1, r8, lsl #10
    4ffc:	01030000 	mrseq	r0, (UNDEF: 3)
    5000:	00017508 	andeq	r7, r1, r8, lsl #10
    5004:	07020300 	streq	r0, [r2, -r0, lsl #6]
    5008:	00000206 	andeq	r0, r0, r6, lsl #4
    500c:	da070403 	ble	1c6020 <__bss_end__+0x1bb248>
    5010:	03000001 	movweq	r0, #1
    5014:	01d50708 	bicseq	r0, r5, r8, lsl #14
    5018:	25040000 	strcs	r0, [r4, #-0]
    501c:	7a000000 	bvc	5024 <__code_start__-0x2fdc>
    5020:	05000000 	streq	r0, [r0, #-0]
    5024:	00000025 	andeq	r0, r0, r5, lsr #32
    5028:	002b0600 	eoreq	r0, fp, r0, lsl #12
    502c:	1c020000 	stcne	0, cr0, [r2], {-0}
    5030:	0000860e 	andeq	r8, r0, lr, lsl #12
    5034:	6b040700 	blvs	106c3c <__bss_end__+0xfbe64>
    5038:	04000000 	streq	r0, [r0], #-0
    503c:	00000025 	andeq	r0, r0, r5, lsr #32
    5040:	0000009b 	muleq	r0, fp, r0
    5044:	00009b05 	andeq	r9, r0, r5, lsl #22
    5048:	04070000 	streq	r0, [r7], #-0
    504c:	000000a8 	andeq	r0, r0, r8, lsr #1
    5050:	7e080103 	adfvce	f0, f0, f3
    5054:	08000001 	stmdaeq	r0, {r0}
    5058:	000000a1 	andeq	r0, r0, r1, lsr #1
    505c:	0005d206 	andeq	sp, r5, r6, lsl #4
    5060:	0e210200 	cdpeq	2, 2, cr0, cr1, cr0, {0}
    5064:	000000b9 	strheq	r0, [r0], -r9
    5068:	008c0407 	addeq	r0, ip, r7, lsl #8
    506c:	4e090000 	cdpmi	0, 0, cr0, cr9, cr0, {0}
    5070:	01000006 	tsteq	r0, r6
    5074:	01340704 	teqeq	r4, r4, lsl #14
    5078:	a0300000 	eorsge	r0, r0, r0
    507c:	002c0000 	eoreq	r0, ip, r0
    5080:	9c010000 	stcls	0, cr0, [r1], {-0}
    5084:	00000134 	andeq	r0, r0, r4, lsr r1
    5088:	000be00a 	andeq	lr, fp, sl
    508c:	15040100 	strne	r0, [r4, #-256]	; 0xffffff00
    5090:	00000134 	andeq	r0, r0, r4, lsr r1
    5094:	730b5001 	movwvc	r5, #45057	; 0xb001
    5098:	01006372 	tsteq	r0, r2, ror r3
    509c:	009b2704 	addseq	r2, fp, r4, lsl #14
    50a0:	33800000 	orrcc	r0, r0, #0, 0
    50a4:	337c0000 	cmncc	ip, #0, 0
    50a8:	730c0000 	movwvc	r0, #49152	; 0xc000
    50ac:	05010031 	streq	r0, [r1, #-49]	; 0xffffffcf
    50b0:	0001340b 	andeq	r3, r1, fp, lsl #8
    50b4:	0033af00 	eorseq	sl, r3, r0, lsl #30
    50b8:	0033a100 	eorseq	sl, r3, r0, lsl #2
    50bc:	32730c00 	rsbscc	r0, r3, #0, 24
    50c0:	11060100 	mrsne	r0, (UNDEF: 22)
    50c4:	0000009b 	muleq	r0, fp, r0
    50c8:	0000340e 	andeq	r3, r0, lr, lsl #8
    50cc:	00003408 	andeq	r3, r0, r8, lsl #8
    50d0:	0100630c 	tsteq	r0, ip, lsl #6
    50d4:	00a10a07 	adceq	r0, r1, r7, lsl #20
    50d8:	343f0000 	ldrtcc	r0, [pc], #-0	; 50e0 <__code_start__-0x2f20>
    50dc:	34390000 	ldrtcc	r0, [r9], #-0
    50e0:	07000000 	streq	r0, [r0, -r0]
    50e4:	0000a104 	andeq	sl, r0, r4, lsl #2
    50e8:	00f70000 	rscseq	r0, r7, r0
    50ec:	00040000 	andeq	r0, r4, r0
    50f0:	00001d24 	andeq	r1, r0, r4, lsr #26
    50f4:	04b20104 	ldrteq	r0, [r2], #260	; 0x104
    50f8:	e50c0000 	str	r0, [ip, #-0]
    50fc:	6a00000b 	bvs	5130 <__code_start__-0x2ed0>
    5100:	5c000005 	stcpl	0, cr0, [r0], {5}
    5104:	440000a0 	strmi	r0, [r0], #-160	; 0xffffff60
    5108:	3e000000 	cdpcc	0, 0, cr0, cr0, cr0, {0}
    510c:	02000027 	andeq	r0, r0, #39, 0	; 0x27
    5110:	6e690504 	cdpvs	5, 6, cr0, cr9, cr4, {0}
    5114:	04030074 	streq	r0, [r3], #-116	; 0xffffff8c
    5118:	0001df07 	andeq	sp, r1, r7, lsl #30
    511c:	06010300 	streq	r0, [r1], -r0, lsl #6
    5120:	00000177 	andeq	r0, r0, r7, ror r1
    5124:	21050203 	tstcs	r5, r3, lsl #4
    5128:	03000000 	movweq	r0, #0
    512c:	00560504 	subseq	r0, r6, r4, lsl #10
    5130:	08030000 	stmdaeq	r3, {}	; <UNPREDICTABLE>
    5134:	00005105 	andeq	r5, r0, r5, lsl #2
    5138:	08010300 	stmdaeq	r1, {r8, r9}
    513c:	00000175 	andeq	r0, r0, r5, ror r1
    5140:	06070203 	streq	r0, [r7], -r3, lsl #4
    5144:	03000002 	movweq	r0, #2
    5148:	01da0704 	bicseq	r0, sl, r4, lsl #14
    514c:	08030000 	stmdaeq	r3, {}	; <UNPREDICTABLE>
    5150:	0001d507 	andeq	sp, r1, r7, lsl #10
    5154:	00250400 	eoreq	r0, r5, r0, lsl #8
    5158:	007a0000 	rsbseq	r0, sl, r0
    515c:	25050000 	strcs	r0, [r5, #-0]
    5160:	00000000 	andeq	r0, r0, r0
    5164:	00002b06 	andeq	r2, r0, r6, lsl #22
    5168:	0e1c0200 	cdpeq	2, 1, cr0, cr12, cr0, {0}
    516c:	00000086 	andeq	r0, r0, r6, lsl #1
    5170:	006b0407 	rsbeq	r0, fp, r7, lsl #8
    5174:	25040000 	strcs	r0, [r4, #-0]
    5178:	9b000000 	blls	5180 <__code_start__-0x2e80>
    517c:	05000000 	streq	r0, [r0, #-0]
    5180:	0000009b 	muleq	r0, fp, r0
    5184:	a8040700 	stmdage	r4, {r8, r9, sl}
    5188:	03000000 	movweq	r0, #0
    518c:	017e0801 	cmneq	lr, r1, lsl #16
    5190:	a1080000 	mrsge	r0, (UNDEF: 8)
    5194:	06000000 	streq	r0, [r0], -r0
    5198:	000005d2 	ldrdeq	r0, [r0], -r2
    519c:	b90e2102 	stmdblt	lr, {r1, r8, sp}
    51a0:	07000000 	streq	r0, [r0, -r0]
    51a4:	00008c04 	andeq	r8, r0, r4, lsl #24
    51a8:	067c0900 	ldrbteq	r0, [ip], -r0, lsl #18
    51ac:	03010000 	movweq	r0, #4096	; 0x1000
    51b0:	00002505 	andeq	r2, r0, r5, lsl #10
    51b4:	00a05c00 	adceq	r5, r0, r0, lsl #24
    51b8:	00004400 	andeq	r4, r0, r0, lsl #8
    51bc:	0a9c0100 	beq	fe7055c4 <__bss_end__+0xfe6fa7ec>
    51c0:	03010061 	movweq	r0, #4193	; 0x1061
    51c4:	00009b18 	andeq	r9, r0, r8, lsl fp
    51c8:	00347600 	eorseq	r7, r4, r0, lsl #12
    51cc:	00346a00 	eorseq	r6, r4, r0, lsl #20
    51d0:	00620a00 	rsbeq	r0, r2, r0, lsl #20
    51d4:	9b270301 	blls	9c5de0 <__bss_end__+0x9bb008>
    51d8:	ca000000 	bgt	51e0 <__code_start__-0x2e20>
    51dc:	c4000034 	strgt	r0, [r0], #-52	; 0xffffffcc
    51e0:	00000034 	andeq	r0, r0, r4, lsr r0
    51e4:	00010f00 	andeq	r0, r1, r0, lsl #30
    51e8:	b3000400 	movwlt	r0, #1024	; 0x400
    51ec:	0400001d 	streq	r0, [r0], #-29	; 0xffffffe3
    51f0:	0004b201 	andeq	fp, r4, r1, lsl #4
    51f4:	0bf50c00 	bleq	ffd481fc <__bss_end__+0xffd3d424>
    51f8:	056a0000 	strbeq	r0, [sl, #-0]!
    51fc:	a0a00000 	adcge	r0, r0, r0
    5200:	00180000 	andseq	r0, r8, r0
    5204:	27f40000 	ldrbcs	r0, [r4, r0]!
    5208:	04020000 	streq	r0, [r2], #-0
    520c:	746e6905 	strbtvc	r6, [lr], #-2309	; 0xfffff6fb
    5210:	07040300 	streq	r0, [r4, -r0, lsl #6]
    5214:	000001df 	ldrdeq	r0, [r0], -pc	; <UNPREDICTABLE>
    5218:	77060103 	strvc	r0, [r6, -r3, lsl #2]
    521c:	03000001 	movweq	r0, #1
    5220:	00210502 	eoreq	r0, r1, r2, lsl #10
    5224:	04030000 	streq	r0, [r3], #-0
    5228:	00005605 	andeq	r5, r0, r5, lsl #12
    522c:	05080300 	streq	r0, [r8, #-768]	; 0xfffffd00
    5230:	00000051 	andeq	r0, r0, r1, asr r0
    5234:	75080103 	strvc	r0, [r8, #-259]	; 0xfffffefd
    5238:	03000001 	movweq	r0, #1
    523c:	02060702 	andeq	r0, r6, #524288	; 0x80000
    5240:	04030000 	streq	r0, [r3], #-0
    5244:	0001da07 	andeq	sp, r1, r7, lsl #20
    5248:	07080300 	streq	r0, [r8, -r0, lsl #6]
    524c:	000001d5 	ldrdeq	r0, [r0], -r5
    5250:	00002504 	andeq	r2, r0, r4, lsl #10
    5254:	00007a00 	andeq	r7, r0, r0, lsl #20
    5258:	00250500 	eoreq	r0, r5, r0, lsl #10
    525c:	06000000 	streq	r0, [r0], -r0
    5260:	0000002b 	andeq	r0, r0, fp, lsr #32
    5264:	860e1c02 	strhi	r1, [lr], -r2, lsl #24
    5268:	07000000 	streq	r0, [r0, -r0]
    526c:	00006b04 	andeq	r6, r0, r4, lsl #22
    5270:	00250400 	eoreq	r0, r5, r0, lsl #8
    5274:	009b0000 	addseq	r0, fp, r0
    5278:	9b050000 	blls	145280 <__bss_end__+0x13a4a8>
    527c:	00000000 	andeq	r0, r0, r0
    5280:	00a80407 	adceq	r0, r8, r7, lsl #8
    5284:	01030000 	mrseq	r0, (UNDEF: 3)
    5288:	00017e08 	andeq	r7, r1, r8, lsl #28
    528c:	00a10800 	adceq	r0, r1, r0, lsl #16
    5290:	d2060000 	andle	r0, r6, #0, 0
    5294:	02000005 	andeq	r0, r0, #5, 0
    5298:	00b90e21 	adcseq	r0, r9, r1, lsr #28
    529c:	04070000 	streq	r0, [r7], #-0
    52a0:	0000008c 	andeq	r0, r0, ip, lsl #1
    52a4:	00065509 	andeq	r5, r6, r9, lsl #10
    52a8:	07030100 	streq	r0, [r3, -r0, lsl #2]
    52ac:	0000010c 	andeq	r0, r0, ip, lsl #2
    52b0:	0000a0a0 	andeq	sl, r0, r0, lsr #1
    52b4:	00000018 	andeq	r0, r0, r8, lsl r0
    52b8:	010c9c01 	tsteq	ip, r1, lsl #24
    52bc:	730a0000 	movwvc	r0, #40960	; 0xa000
    52c0:	03010031 	movweq	r0, #4145	; 0x1031
    52c4:	00010c15 	andeq	r0, r1, r5, lsl ip
    52c8:	0b500100 	bleq	14056d0 <__bss_end__+0x13fa8f8>
    52cc:	01003273 	tsteq	r0, r3, ror r2
    52d0:	009b2603 	addseq	r2, fp, r3, lsl #12
    52d4:	34f90000 	ldrbtcc	r0, [r9], #0
    52d8:	34f30000 	ldrbtcc	r0, [r3], #0
    52dc:	730c0000 	movwvc	r0, #49152	; 0xc000
    52e0:	14040100 	strne	r0, [r4], #-256	; 0xffffff00
    52e4:	0000010c 	andeq	r0, r0, ip, lsl #2
    52e8:	00003526 	andeq	r3, r0, r6, lsr #10
    52ec:	00003524 	andeq	r3, r0, r4, lsr #10
    52f0:	a1040700 	tstge	r4, r0, lsl #14
    52f4:	00000000 	andeq	r0, r0, r0
    52f8:	0000014e 	andeq	r0, r0, lr, asr #2
    52fc:	1e690004 	cdpne	0, 6, cr0, cr9, cr4, {0}
    5300:	01040000 	mrseq	r0, (UNDEF: 4)
    5304:	000004b2 			; <UNDEFINED> instruction: 0x000004b2
    5308:	000c050c 	andeq	r0, ip, ip, lsl #10
    530c:	00056a00 	andeq	r6, r5, r0, lsl #20
    5310:	00a0b800 	adceq	fp, r0, r0, lsl #16
    5314:	00003000 	andeq	r3, r0, r0
    5318:	00289500 	eoreq	r9, r8, r0, lsl #10
    531c:	05040200 	streq	r0, [r4, #-512]	; 0xfffffe00
    5320:	00746e69 	rsbseq	r6, r4, r9, ror #28
    5324:	00049b03 	andeq	r9, r4, r3, lsl #22
    5328:	17d10300 	ldrbne	r0, [r1, r0, lsl #6]
    532c:	00000038 	andeq	r0, r0, r8, lsr r0
    5330:	df070404 	svcle	0x00070404
    5334:	04000001 	streq	r0, [r0], #-1
    5338:	01770601 	cmneq	r7, r1, lsl #12
    533c:	02040000 	andeq	r0, r4, #0, 0
    5340:	00002105 	andeq	r2, r0, r5, lsl #2
    5344:	05040400 	streq	r0, [r4, #-1024]	; 0xfffffc00
    5348:	00000056 	andeq	r0, r0, r6, asr r0
    534c:	51050804 	tstpl	r5, r4, lsl #16
    5350:	04000000 	streq	r0, [r0], #-0
    5354:	01750801 	cmneq	r5, r1, lsl #16
    5358:	5b050000 	blpl	145360 <__bss_end__+0x13a588>
    535c:	04000000 	streq	r0, [r0], #-0
    5360:	02060702 	andeq	r0, r6, #524288	; 0x80000
    5364:	04040000 	streq	r0, [r4], #-0
    5368:	0001da07 	andeq	sp, r1, r7, lsl #20
    536c:	07080400 	streq	r0, [r8, -r0, lsl #8]
    5370:	000001d5 	ldrdeq	r0, [r0], -r5
    5374:	00002506 	andeq	r2, r0, r6, lsl #10
    5378:	00008b00 	andeq	r8, r0, r0, lsl #22
    537c:	00250700 	eoreq	r0, r5, r0, lsl #14
    5380:	08000000 	stmdaeq	r0, {}	; <UNPREDICTABLE>
    5384:	0000002b 	andeq	r0, r0, fp, lsr #32
    5388:	970e1c02 	strls	r1, [lr, -r2, lsl #24]
    538c:	09000000 	stmdbeq	r0, {}	; <UNPREDICTABLE>
    5390:	00007c04 	andeq	r7, r0, r4, lsl #24
    5394:	00250600 	eoreq	r0, r5, r0, lsl #12
    5398:	00ac0000 	adceq	r0, ip, r0
    539c:	ac070000 	stcge	0, cr0, [r7], {-0}
    53a0:	00000000 	andeq	r0, r0, r0
    53a4:	00b90409 	adcseq	r0, r9, r9, lsl #8
    53a8:	01040000 	mrseq	r0, (UNDEF: 4)
    53ac:	00017e08 	andeq	r7, r1, r8, lsl #28
    53b0:	00b20500 	adcseq	r0, r2, r0, lsl #10
    53b4:	d2080000 	andle	r0, r8, #0, 0
    53b8:	02000005 	andeq	r0, r0, #5, 0
    53bc:	00ca0e21 	sbceq	r0, sl, r1, lsr #28
    53c0:	04090000 	streq	r0, [r9], #-0
    53c4:	0000009d 	muleq	r0, sp, r0
    53c8:	00069d0a 	andeq	r9, r6, sl, lsl #26
    53cc:	05040100 	streq	r0, [r4, #-256]	; 0xffffff00
    53d0:	00000025 	andeq	r0, r0, r5, lsr #32
    53d4:	0000a0b8 	strheq	sl, [r0], -r8
    53d8:	00000030 	andeq	r0, r0, r0, lsr r0
    53dc:	014b9c01 	cmpeq	fp, r1, lsl #24
    53e0:	5f0b0000 	svcpl	0x000b0000
    53e4:	01003173 	tsteq	r0, r3, ror r1
    53e8:	00ac1904 	adceq	r1, ip, r4, lsl #18
    53ec:	353d0000 	ldrcc	r0, [sp, #-0]!
    53f0:	35390000 	ldrcc	r0, [r9, #-0]!
    53f4:	5f0b0000 	svcpl	0x000b0000
    53f8:	01003273 	tsteq	r0, r3, ror r2
    53fc:	00ac2a04 	adceq	r2, ip, r4, lsl #20
    5400:	35620000 	strbcc	r0, [r2, #-0]!
    5404:	355e0000 	ldrbcc	r0, [lr, #-0]
    5408:	6e0b0000 	cdpvs	0, 0, cr0, cr11, cr0, {0}
    540c:	36040100 	strcc	r0, [r4], -r0, lsl #2
    5410:	0000002c 	andeq	r0, r0, ip, lsr #32
    5414:	0000358d 	andeq	r3, r0, sp, lsl #11
    5418:	00003583 	andeq	r3, r0, r3, lsl #11
    541c:	0031730c 	eorseq	r7, r1, ip, lsl #6
    5420:	4b1a0501 	blmi	68682c <__bss_end__+0x67ba54>
    5424:	e4000001 	str	r0, [r0], #-1
    5428:	dc000035 	stcle	0, cr0, [r0], {53}	; 0x35
    542c:	0c000035 	stceq	0, cr0, [r0], {53}	; 0x35
    5430:	01003273 	tsteq	r0, r3, ror r2
    5434:	014b2c05 	cmpeq	fp, r5, lsl #24
    5438:	36220000 	strtcc	r0, [r2], -r0
    543c:	361c0000 	ldrcc	r0, [ip], -r0
    5440:	09000000 	stmdbeq	r0, {}	; <UNPREDICTABLE>
    5444:	00006204 	andeq	r6, r0, r4, lsl #4
    5448:	00ce0000 	sbceq	r0, lr, r0
    544c:	00040000 	andeq	r0, r4, r0
    5450:	00001f1d 	andeq	r1, r0, sp, lsl pc
    5454:	04b20104 	ldrteq	r0, [r2], #260	; 0x104
    5458:	160c0000 	strne	r0, [ip], -r0
    545c:	6a00000c 	bvs	5494 <__code_start__-0x2b6c>
    5460:	e8000005 	stmda	r0, {r0, r2}
    5464:	040000a0 	streq	r0, [r0], #-160	; 0xffffff60
    5468:	96000000 	strls	r0, [r0], -r0
    546c:	02000029 	andeq	r0, r0, #41, 0	; 0x29
    5470:	6e690504 	cdpvs	5, 6, cr0, cr9, cr4, {0}
    5474:	04030074 	streq	r0, [r3], #-116	; 0xffffff8c
    5478:	0001df07 	andeq	sp, r1, r7, lsl #30
    547c:	06010300 	streq	r0, [r1], -r0, lsl #6
    5480:	00000177 	andeq	r0, r0, r7, ror r1
    5484:	21050203 	tstcs	r5, r3, lsl #4
    5488:	03000000 	movweq	r0, #0
    548c:	00560504 	subseq	r0, r6, r4, lsl #10
    5490:	08030000 	stmdaeq	r3, {}	; <UNPREDICTABLE>
    5494:	00005105 	andeq	r5, r0, r5, lsl #2
    5498:	08010300 	stmdaeq	r1, {r8, r9}
    549c:	00000175 	andeq	r0, r0, r5, ror r1
    54a0:	06070203 	streq	r0, [r7], -r3, lsl #4
    54a4:	03000002 	movweq	r0, #2
    54a8:	01da0704 	bicseq	r0, sl, r4, lsl #14
    54ac:	08030000 	stmdaeq	r3, {}	; <UNPREDICTABLE>
    54b0:	0001d507 	andeq	sp, r1, r7, lsl #10
    54b4:	00250400 	eoreq	r0, r5, r0, lsl #8
    54b8:	007a0000 	rsbseq	r0, sl, r0
    54bc:	25050000 	strcs	r0, [r5, #-0]
    54c0:	00000000 	andeq	r0, r0, r0
    54c4:	00002b06 	andeq	r2, r0, r6, lsl #22
    54c8:	0e1c0200 	cdpeq	2, 1, cr0, cr12, cr0, {0}
    54cc:	00000086 	andeq	r0, r0, r6, lsl #1
    54d0:	006b0407 	rsbeq	r0, fp, r7, lsl #8
    54d4:	25040000 	strcs	r0, [r4, #-0]
    54d8:	9b000000 	blls	54e0 <__code_start__-0x2b20>
    54dc:	05000000 	streq	r0, [r0, #-0]
    54e0:	0000009b 	muleq	r0, fp, r0
    54e4:	a8040700 	stmdage	r4, {r8, r9, sl}
    54e8:	03000000 	movweq	r0, #0
    54ec:	017e0801 	cmneq	lr, r1, lsl #16
    54f0:	a1080000 	mrsge	r0, (UNDEF: 8)
    54f4:	06000000 	streq	r0, [r0], -r0
    54f8:	000005d2 	ldrdeq	r0, [r0], -r2
    54fc:	b90e2102 	stmdblt	lr, {r1, r8, sp}
    5500:	07000000 	streq	r0, [r0, -r0]
    5504:	00008c04 	andeq	r8, r0, r4, lsl #24
    5508:	07440900 	strbeq	r0, [r4, -r0, lsl #18]
    550c:	03010000 	movweq	r0, #4096	; 0x1000
    5510:	00a0e806 	adceq	lr, r0, r6, lsl #16
    5514:	00000400 	andeq	r0, r0, r0, lsl #8
    5518:	009c0100 	addseq	r0, ip, r0, lsl #2

Disassembly of section .debug_abbrev:

00000000 <.debug_abbrev>:
       0:	25011101 	strcs	r1, [r1, #-257]	; 0xfffffeff
       4:	030b130e 	movweq	r1, #45838	; 0xb30e
       8:	110e1b0e 	tstne	lr, lr, lsl #22
       c:	10061201 	andne	r1, r6, r1, lsl #4
      10:	02000017 	andeq	r0, r0, #23, 0
      14:	0b0b0024 	bleq	2c00ac <__bss_end__+0x2b52d4>
      18:	08030b3e 	stmdaeq	r3, {r1, r2, r3, r4, r5, r8, r9, fp}
      1c:	24030000 	strcs	r0, [r3], #-0
      20:	3e0b0b00 	vmlacc.f64	d0, d11, d0
      24:	000e030b 	andeq	r0, lr, fp, lsl #6
      28:	00160400 	andseq	r0, r6, r0, lsl #8
      2c:	0b3a0e03 	bleq	e83840 <__bss_end__+0xe78a68>
      30:	0b390b3b 	bleq	e42d24 <__bss_end__+0xe37f4c>
      34:	00001349 	andeq	r1, r0, r9, asr #6
      38:	27011505 	strcs	r1, [r1, -r5, lsl #10]
      3c:	01134919 	tsteq	r3, r9, lsl r9
      40:	06000013 			; <UNDEFINED> instruction: 0x06000013
      44:	13490005 	movtne	r0, #36869	; 0x9005
      48:	34070000 	strcc	r0, [r7], #-0
      4c:	3a0e0300 	bcc	380c54 <__bss_end__+0x375e7c>
      50:	390b3b0b 	stmdbcc	fp, {r0, r1, r3, r8, r9, fp, ip, sp}
      54:	3f13490b 	svccc	0x0013490b
      58:	00193c19 	andseq	r3, r9, r9, lsl ip
      5c:	000f0800 	andeq	r0, pc, r0, lsl #16
      60:	13490b0b 	movtne	r0, #39691	; 0x9b0b
      64:	26090000 	strcs	r0, [r9], -r0
      68:	00134900 	andseq	r4, r3, r0, lsl #18
      6c:	01130a00 	tsteq	r3, r0, lsl #20
      70:	0b3a0b0b 	bleq	e82ca4 <__bss_end__+0xe77ecc>
      74:	0b390b3b 	bleq	e42d68 <__bss_end__+0xe37f90>
      78:	00001301 	andeq	r1, r0, r1, lsl #6
      7c:	03000d0b 	movweq	r0, #3339	; 0xd0b
      80:	3b0b3a0e 	blcc	2ce8c0 <__bss_end__+0x2c3ae8>
      84:	490b390b 	stmdbmi	fp, {r0, r1, r3, r8, fp, ip, sp}
      88:	000b3813 	andeq	r3, fp, r3, lsl r8
      8c:	01130c00 	tsteq	r3, r0, lsl #24
      90:	0b0b0e03 	bleq	2c38a4 <__bss_end__+0x2b8acc>
      94:	0b3b0b3a 	bleq	ec2d84 <__bss_end__+0xeb7fac>
      98:	13010b39 	movwne	r0, #6969	; 0x1b39
      9c:	0d0d0000 	stceq	0, cr0, [sp, #-0]
      a0:	3a080300 	bcc	200ca8 <__bss_end__+0x1f5ed0>
      a4:	390b3b0b 	stmdbcc	fp, {r0, r1, r3, r8, r9, fp, ip, sp}
      a8:	3813490b 	ldmdacc	r3, {r0, r1, r3, r8, fp, lr}
      ac:	0e00000b 	cdpeq	0, 0, cr0, cr0, cr11, {0}
      b0:	13490101 	movtne	r0, #37121	; 0x9101
      b4:	00001301 	andeq	r1, r0, r1, lsl #6
      b8:	4900210f 	stmdbmi	r0, {r0, r1, r2, r3, r8, sp}
      bc:	000b2f13 	andeq	r2, fp, r3, lsl pc
      c0:	000f1000 	andeq	r1, pc, r0
      c4:	00000b0b 	andeq	r0, r0, fp, lsl #22
      c8:	3f012e11 	svccc	0x00012e11
      cc:	3a0e0319 	bcc	380d38 <__bss_end__+0x375f60>
      d0:	390b3b0b 	stmdbcc	fp, {r0, r1, r3, r8, r9, fp, ip, sp}
      d4:	1119270b 	tstne	r9, fp, lsl #14
      d8:	40061201 	andmi	r1, r6, r1, lsl #4
      dc:	19429718 	stmdbne	r2, {r3, r4, r8, r9, sl, ip, pc}^
      e0:	00001301 	andeq	r1, r0, r1, lsl #6
      e4:	03003412 	movweq	r3, #1042	; 0x412
      e8:	3b0b3a08 	blcc	2ce910 <__bss_end__+0x2c3b38>
      ec:	490b390b 	stmdbmi	fp, {r0, r1, r3, r8, fp, ip, sp}
      f0:	b7170213 			; <UNDEFINED> instruction: 0xb7170213
      f4:	00001742 	andeq	r1, r0, r2, asr #14
      f8:	31011d13 	tstcc	r1, r3, lsl sp
      fc:	b8015213 	stmdalt	r1, {r0, r1, r4, r9, ip, lr}
     100:	01110b42 	tsteq	r1, r2, asr #22
     104:	0b580612 	bleq	1601954 <__bss_end__+0x15f6b7c>
     108:	0b570b59 	bleq	15c2e74 <__bss_end__+0x15b809c>
     10c:	00001301 	andeq	r1, r0, r1, lsl #6
     110:	31000514 	tstcc	r0, r4, lsl r5
     114:	b7170213 			; <UNDEFINED> instruction: 0xb7170213
     118:	00001742 	andeq	r1, r0, r2, asr #14
     11c:	31003415 	tstcc	r0, r5, lsl r4
     120:	b7170213 			; <UNDEFINED> instruction: 0xb7170213
     124:	00001742 	andeq	r1, r0, r2, asr #14
     128:	01828916 	orreq	r8, r2, r6, lsl r9
     12c:	31011101 	tstcc	r1, r1, lsl #2
     130:	00130113 	andseq	r0, r3, r3, lsl r1
     134:	828a1700 	addhi	r1, sl, #0, 14
     138:	18020001 	stmdane	r2, {r0}
     13c:	00184291 	mulseq	r8, r1, r2
     140:	82891800 	addhi	r1, r9, #0, 16
     144:	01110001 	tsteq	r1, r1
     148:	00001331 	andeq	r1, r0, r1, lsr r3
     14c:	01828919 	orreq	r8, r2, r9, lsl r9
     150:	31011101 	tstcc	r1, r1, lsl #2
     154:	1a000013 	bne	1a8 <__code_start__-0x7e58>
     158:	193f012e 	ldmdbne	pc!, {r1, r2, r3, r5, r8}	; <UNPREDICTABLE>
     15c:	0b3a0e03 	bleq	e83970 <__bss_end__+0xe78b98>
     160:	0b390b3b 	bleq	e42e54 <__bss_end__+0xe3807c>
     164:	13491927 	movtne	r1, #39207	; 0x9927
     168:	06120111 			; <UNDEFINED> instruction: 0x06120111
     16c:	42971840 	addsmi	r1, r7, #64, 16	; 0x400000
     170:	00130119 	andseq	r0, r3, r9, lsl r1
     174:	00341b00 	eorseq	r1, r4, r0, lsl #22
     178:	13490e03 	movtne	r0, #40451	; 0x9e03
     17c:	18021934 	stmdane	r2, {r2, r4, r5, r8, fp, ip}
     180:	0b1c0000 	bleq	700188 <__bss_end__+0x6f53b0>
     184:	12011101 	andne	r1, r1, #1073741824	; 0x40000000
     188:	00130106 	andseq	r0, r3, r6, lsl #2
     18c:	010b1d00 	tsteq	fp, r0, lsl #26
     190:	00001755 	andeq	r1, r0, r5, asr r7
     194:	31011d1e 	tstcc	r1, lr, lsl sp
     198:	b8015213 	stmdalt	r1, {r0, r1, r4, r9, ip, lr}
     19c:	17550b42 	ldrbne	r0, [r5, -r2, asr #22]
     1a0:	0b590b58 	bleq	1642f08 <__bss_end__+0x1638130>
     1a4:	13010b57 	movwne	r0, #6999	; 0x1b57
     1a8:	2e1f0000 	cdpcs	0, 1, cr0, cr15, cr0, {0}
     1ac:	3a0e0301 	bcc	380db8 <__bss_end__+0x375fe0>
     1b0:	390b3b0b 	stmdbcc	fp, {r0, r1, r3, r8, r9, fp, ip, sp}
     1b4:	4919270b 	ldmdbmi	r9, {r0, r1, r3, r8, r9, sl, sp}
     1b8:	010b2013 	tsteq	fp, r3, lsl r0
     1bc:	20000013 	andcs	r0, r0, r3, lsl r0
     1c0:	08030005 	stmdaeq	r3, {r0, r2}
     1c4:	0b3b0b3a 	bleq	ec2eb4 <__bss_end__+0xeb80dc>
     1c8:	13490b39 	movtne	r0, #39737	; 0x9b39
     1cc:	34210000 	strtcc	r0, [r1], #-0
     1d0:	3a080300 	bcc	200dd8 <__bss_end__+0x1f6000>
     1d4:	390b3b0b 	stmdbcc	fp, {r0, r1, r3, r8, r9, fp, ip, sp}
     1d8:	0013490b 	andseq	r4, r3, fp, lsl #18
     1dc:	00052200 	andeq	r2, r5, r0, lsl #4
     1e0:	0b3a0e03 	bleq	e839f4 <__bss_end__+0xe78c1c>
     1e4:	0b390b3b 	bleq	e42ed8 <__bss_end__+0xe38100>
     1e8:	00001349 	andeq	r1, r0, r9, asr #6
     1ec:	3f002e23 	svccc	0x00002e23
     1f0:	6e193c19 	mrcvs	12, 0, r3, cr9, cr9, {0}
     1f4:	3a0e030e 	bcc	380e34 <__bss_end__+0x37605c>
     1f8:	390b3b0b 	stmdbcc	fp, {r0, r1, r3, r8, r9, fp, ip, sp}
     1fc:	2400000b 	strcs	r0, [r0], #-11
     200:	18020036 	stmdane	r2, {r1, r2, r4, r5}
     204:	01000000 	mrseq	r0, (UNDEF: 0)
     208:	0e250111 	mcreq	1, 1, r0, cr5, cr1, {0}
     20c:	0e030b13 	vmoveq.32	d3[0], r0
     210:	01110e1b 	tsteq	r1, fp, lsl lr
     214:	17100612 			; <UNDEFINED> instruction: 0x17100612
     218:	24020000 	strcs	r0, [r2], #-0
     21c:	3e0b0b00 	vmlacc.f64	d0, d11, d0
     220:	0008030b 	andeq	r0, r8, fp, lsl #6
     224:	00240300 	eoreq	r0, r4, r0, lsl #6
     228:	0b3e0b0b 	bleq	f82e5c <__bss_end__+0xf78084>
     22c:	00000e03 	andeq	r0, r0, r3, lsl #28
     230:	03001604 	movweq	r1, #1540	; 0x604
     234:	3b0b3a0e 	blcc	2cea74 <__bss_end__+0x2c3c9c>
     238:	490b390b 	stmdbmi	fp, {r0, r1, r3, r8, fp, ip, sp}
     23c:	05000013 	streq	r0, [r0, #-19]	; 0xffffffed
     240:	19270115 	stmdbne	r7!, {r0, r2, r4, r8}
     244:	13011349 	movwne	r1, #4937	; 0x1349
     248:	05060000 	streq	r0, [r6, #-0]
     24c:	00134900 	andseq	r4, r3, r0, lsl #18
     250:	00340700 	eorseq	r0, r4, r0, lsl #14
     254:	0b3a0e03 	bleq	e83a68 <__bss_end__+0xe78c90>
     258:	0b390b3b 	bleq	e42f4c <__bss_end__+0xe38174>
     25c:	193f1349 	ldmdbne	pc!, {r0, r3, r6, r8, r9, ip}	; <UNPREDICTABLE>
     260:	0000193c 	andeq	r1, r0, ip, lsr r9
     264:	0b000f08 	bleq	3e8c <__code_start__-0x4174>
     268:	0013490b 	andseq	r4, r3, fp, lsl #18
     26c:	00260900 	eoreq	r0, r6, r0, lsl #18
     270:	00001349 	andeq	r1, r0, r9, asr #6
     274:	0b01130a 	bleq	44ea4 <__bss_end__+0x3a0cc>
     278:	3b0b3a0b 	blcc	2ceaac <__bss_end__+0x2c3cd4>
     27c:	010b390b 	tsteq	fp, fp, lsl #18
     280:	0b000013 	bleq	2d4 <__code_start__-0x7d2c>
     284:	0e03000d 	cdpeq	0, 0, cr0, cr3, cr13, {0}
     288:	0b3b0b3a 	bleq	ec2f78 <__bss_end__+0xeb81a0>
     28c:	13490b39 	movtne	r0, #39737	; 0x9b39
     290:	00000b38 	andeq	r0, r0, r8, lsr fp
     294:	3e01040c 	cdpcc	4, 0, cr0, cr1, cr12, {0}
     298:	490b0b0b 	stmdbmi	fp, {r0, r1, r3, r8, r9, fp}
     29c:	3b0b3a13 	blcc	2ceaf0 <__bss_end__+0x2c3d18>
     2a0:	010b390b 	tsteq	fp, fp, lsl #18
     2a4:	0d000013 	stceq	0, cr0, [r0, #-76]	; 0xffffffb4
     2a8:	0e030028 	cdpeq	0, 0, cr0, cr3, cr8, {1}
     2ac:	00000b1c 	andeq	r0, r0, ip, lsl fp
     2b0:	0301130e 	movweq	r1, #4878	; 0x130e
     2b4:	3a0b0b0e 	bcc	2c2ef4 <__bss_end__+0x2b811c>
     2b8:	390b3b0b 	stmdbcc	fp, {r0, r1, r3, r8, r9, fp, ip, sp}
     2bc:	0013010b 	andseq	r0, r3, fp, lsl #2
     2c0:	000d0f00 	andeq	r0, sp, r0, lsl #30
     2c4:	0b3a0803 	bleq	e822d8 <__bss_end__+0xe77500>
     2c8:	0b390b3b 	bleq	e42fbc <__bss_end__+0xe381e4>
     2cc:	0b381349 	bleq	e04ff8 <__bss_end__+0xdfa220>
     2d0:	01100000 	tsteq	r0, r0
     2d4:	01134901 	tsteq	r3, r1, lsl #18
     2d8:	11000013 	tstne	r0, r3, lsl r0
     2dc:	13490021 	movtne	r0, #36897	; 0x9021
     2e0:	00000b2f 	andeq	r0, r0, pc, lsr #22
     2e4:	0b000f12 	bleq	3f34 <__code_start__-0x40cc>
     2e8:	1300000b 	movwne	r0, #11
     2ec:	0e030034 	mcreq	0, 0, r0, cr3, cr4, {1}
     2f0:	0b3b0b3a 	bleq	ec2fe0 <__bss_end__+0xeb8208>
     2f4:	13490b39 	movtne	r0, #39737	; 0x9b39
     2f8:	00001802 	andeq	r1, r0, r2, lsl #16
     2fc:	3f012e14 	svccc	0x00012e14
     300:	3a0e0319 	bcc	380f6c <__bss_end__+0x376194>
     304:	390b3b0b 	stmdbcc	fp, {r0, r1, r3, r8, r9, fp, ip, sp}
     308:	4919270b 	ldmdbmi	r9, {r0, r1, r3, r8, r9, sl, sp}
     30c:	12011113 	andne	r1, r1, #-1073741820	; 0xc0000004
     310:	97184006 	ldrls	r4, [r8, -r6]
     314:	13011942 	movwne	r1, #6466	; 0x1942
     318:	05150000 	ldreq	r0, [r5, #-0]
     31c:	3a0e0300 	bcc	380f24 <__bss_end__+0x37614c>
     320:	390b3b0b 	stmdbcc	fp, {r0, r1, r3, r8, r9, fp, ip, sp}
     324:	0213490b 	andseq	r4, r3, #180224	; 0x2c000
     328:	1742b717 	smlaldne	fp, r2, r7, r7
     32c:	05160000 	ldreq	r0, [r6, #-0]
     330:	3a080300 	bcc	200f38 <__bss_end__+0x1f6160>
     334:	390b3b0b 	stmdbcc	fp, {r0, r1, r3, r8, r9, fp, ip, sp}
     338:	0213490b 	andseq	r4, r3, #180224	; 0x2c000
     33c:	17000018 	smladne	r0, r8, r0, r0
     340:	08030034 	stmdaeq	r3, {r2, r4, r5}
     344:	0b3b0b3a 	bleq	ec3034 <__bss_end__+0xeb825c>
     348:	13490b39 	movtne	r0, #39737	; 0x9b39
     34c:	42b71702 	adcsmi	r1, r7, #524288	; 0x80000
     350:	18000017 	stmdane	r0, {r0, r1, r2, r4}
     354:	01018289 	smlabbeq	r1, r9, r2, r8
     358:	13310111 	teqne	r1, #1073741828	; 0x40000004
     35c:	00001301 	andeq	r1, r0, r1, lsl #6
     360:	01828a19 	orreq	r8, r2, r9, lsl sl
     364:	91180200 	tstls	r8, r0, lsl #4
     368:	00001842 	andeq	r1, r0, r2, asr #16
     36c:	0182891a 	orreq	r8, r2, sl, lsl r9
     370:	31011101 	tstcc	r1, r1, lsl #2
     374:	1b000013 	blne	3c8 <__code_start__-0x7c38>
     378:	193f012e 	ldmdbne	pc!, {r1, r2, r3, r5, r8}	; <UNPREDICTABLE>
     37c:	0b3a0e03 	bleq	e83b90 <__bss_end__+0xe78db8>
     380:	0b390b3b 	bleq	e43074 <__bss_end__+0xe3829c>
     384:	01111927 	tsteq	r1, r7, lsr #18
     388:	18400612 	stmdane	r0, {r1, r4, r9, sl}^
     38c:	01194297 			; <UNDEFINED> instruction: 0x01194297
     390:	1c000013 	stcne	0, cr0, [r0], {19}
     394:	08030005 	stmdaeq	r3, {r0, r2}
     398:	0b3b0b3a 	bleq	ec3088 <__bss_end__+0xeb82b0>
     39c:	13490b39 	movtne	r0, #39737	; 0x9b39
     3a0:	42b71702 	adcsmi	r1, r7, #524288	; 0x80000
     3a4:	1d000017 	stcne	0, cr0, [r0, #-92]	; 0xffffffa4
     3a8:	0e030034 	mcreq	0, 0, r0, cr3, cr4, {1}
     3ac:	19341349 	ldmdbne	r4!, {r0, r3, r6, r8, r9, ip}
     3b0:	00001802 	andeq	r1, r0, r2, lsl #16
     3b4:	31011d1e 	tstcc	r1, lr, lsl sp
     3b8:	b8015213 	stmdalt	r1, {r0, r1, r4, r9, ip, lr}
     3bc:	17550b42 	ldrbne	r0, [r5, -r2, asr #22]
     3c0:	0b590b58 	bleq	1643128 <__bss_end__+0x1638350>
     3c4:	13010b57 	movwne	r0, #6999	; 0x1b57
     3c8:	051f0000 	ldreq	r0, [pc, #-0]	; 3d0 <__code_start__-0x7c30>
     3cc:	02133100 	andseq	r3, r3, #0
     3d0:	1742b717 	smlaldne	fp, r2, r7, r7
     3d4:	0b200000 	bleq	8003dc <__bss_end__+0x7f5604>
     3d8:	00175501 	andseq	r5, r7, r1, lsl #10
     3dc:	00342100 	eorseq	r2, r4, r0, lsl #2
     3e0:	17021331 	smladxne	r2, r1, r3, r1
     3e4:	001742b7 			; <UNDEFINED> instruction: 0x001742b7
     3e8:	82892200 	addhi	r2, r9, #0, 4
     3ec:	01110001 	tsteq	r1, r1
     3f0:	00001331 	andeq	r1, r0, r1, lsr r3
     3f4:	03012e23 	movweq	r2, #7715	; 0x1e23
     3f8:	3b0b3a0e 	blcc	2cec38 <__bss_end__+0x2c3e60>
     3fc:	270b390b 	strcs	r3, [fp, -fp, lsl #18]
     400:	010b2019 	tsteq	fp, r9, lsl r0
     404:	24000013 	strcs	r0, [r0], #-19	; 0xffffffed
     408:	08030005 	stmdaeq	r3, {r0, r2}
     40c:	0b3b0b3a 	bleq	ec30fc <__bss_end__+0xeb8324>
     410:	13490b39 	movtne	r0, #39737	; 0x9b39
     414:	34250000 	strtcc	r0, [r5], #-0
     418:	3a0e0300 	bcc	381020 <__bss_end__+0x376248>
     41c:	390b3b0b 	stmdbcc	fp, {r0, r1, r3, r8, r9, fp, ip, sp}
     420:	0013490b 	andseq	r4, r3, fp, lsl #18
     424:	00342600 	eorseq	r2, r4, r0, lsl #12
     428:	0b3a0803 	bleq	e8243c <__bss_end__+0xe77664>
     42c:	0b390b3b 	bleq	e43120 <__bss_end__+0xe38348>
     430:	00001349 	andeq	r1, r0, r9, asr #6
     434:	11010b27 	tstne	r1, r7, lsr #22
     438:	00061201 	andeq	r1, r6, r1, lsl #4
     43c:	001d2800 	andseq	r2, sp, r0, lsl #16
     440:	01521331 	cmpeq	r2, r1, lsr r3
     444:	110b42b8 			; <UNDEFINED> instruction: 0x110b42b8
     448:	58061201 	stmdapl	r6, {r0, r9, ip}
     44c:	570b590b 	strpl	r5, [fp, -fp, lsl #18]
     450:	2900000b 	stmdbcs	r0, {r0, r1, r3}
     454:	1331011d 	teqne	r1, #1073741831	; 0x40000007
     458:	42b80152 	adcsmi	r0, r8, #-2147483628	; 0x80000014
     45c:	1201110b 	andne	r1, r1, #-1073741822	; 0xc0000002
     460:	590b5806 	stmdbpl	fp, {r1, r2, fp, ip, lr}
     464:	010b570b 	tsteq	fp, fp, lsl #14
     468:	2a000013 	bcs	4bc <__code_start__-0x7b44>
     46c:	1331011d 	teqne	r1, #1073741831	; 0x40000007
     470:	42b80152 	adcsmi	r0, r8, #-2147483628	; 0x80000014
     474:	5817550b 	ldmdapl	r7, {r0, r1, r3, r8, sl, ip, lr}
     478:	570b590b 	strpl	r5, [fp, -fp, lsl #18]
     47c:	2b00000b 	blcs	4b0 <__code_start__-0x7b50>
     480:	1331011d 	teqne	r1, #1073741831	; 0x40000007
     484:	42b80152 	adcsmi	r0, r8, #-2147483628	; 0x80000014
     488:	1201110b 	andne	r1, r1, #-1073741822	; 0xc0000002
     48c:	590b5806 	stmdbpl	fp, {r1, r2, fp, ip, lr}
     490:	000b570b 	andeq	r5, fp, fp, lsl #14
     494:	012e2c00 			; <UNDEFINED> instruction: 0x012e2c00
     498:	0e03193f 			; <UNDEFINED> instruction: 0x0e03193f
     49c:	0b3b0b3a 	bleq	ec318c <__bss_end__+0xeb83b4>
     4a0:	19270b39 	stmdbne	r7!, {r0, r3, r4, r5, r8, r9, fp}
     4a4:	0b201349 	bleq	8051d0 <__bss_end__+0x7fa3f8>
     4a8:	00001301 	andeq	r1, r0, r1, lsl #6
     4ac:	3f002e2d 	svccc	0x00002e2d
     4b0:	3a0e0319 	bcc	38111c <__bss_end__+0x376344>
     4b4:	390b3b0b 	stmdbcc	fp, {r0, r1, r3, r8, r9, fp, ip, sp}
     4b8:	4919270b 	ldmdbmi	r9, {r0, r1, r3, r8, r9, sl, sp}
     4bc:	000b2013 	andeq	r2, fp, r3, lsl r0
     4c0:	012e2e00 			; <UNDEFINED> instruction: 0x012e2e00
     4c4:	0b3a0e03 	bleq	e83cd8 <__bss_end__+0xe78f00>
     4c8:	0b390b3b 	bleq	e431bc <__bss_end__+0xe383e4>
     4cc:	13491927 	movtne	r1, #39207	; 0x9927
     4d0:	13010b20 	movwne	r0, #6944	; 0x1b20
     4d4:	2e2f0000 	cdpcs	0, 2, cr0, cr15, cr0, {0}
     4d8:	11133100 	tstne	r3, r0, lsl #2
     4dc:	40061201 	andmi	r1, r6, r1, lsl #4
     4e0:	19429718 	stmdbne	r2, {r3, r4, r8, r9, sl, ip, pc}^
     4e4:	2e300000 	cdpcs	0, 3, cr0, cr0, cr0, {0}
     4e8:	11133101 	tstne	r3, r1, lsl #2
     4ec:	40061201 	andmi	r1, r6, r1, lsl #4
     4f0:	19429718 	stmdbne	r2, {r3, r4, r8, r9, sl, ip, pc}^
     4f4:	00001301 	andeq	r1, r0, r1, lsl #6
     4f8:	3f002e31 	svccc	0x00002e31
     4fc:	6e193c19 	mrcvs	12, 0, r3, cr9, cr9, {0}
     500:	3a0e030e 	bcc	381140 <__bss_end__+0x376368>
     504:	390b3b0b 	stmdbcc	fp, {r0, r1, r3, r8, r9, fp, ip, sp}
     508:	0000000b 	andeq	r0, r0, fp
     50c:	25011101 	strcs	r1, [r1, #-257]	; 0xfffffeff
     510:	030b130e 	movweq	r1, #45838	; 0xb30e
     514:	110e1b0e 	tstne	lr, lr, lsl #22
     518:	10061201 	andne	r1, r6, r1, lsl #4
     51c:	02000017 	andeq	r0, r0, #23, 0
     520:	0b0b0024 	bleq	2c05b8 <__bss_end__+0x2b57e0>
     524:	08030b3e 	stmdaeq	r3, {r1, r2, r3, r4, r5, r8, r9, fp}
     528:	24030000 	strcs	r0, [r3], #-0
     52c:	3e0b0b00 	vmlacc.f64	d0, d11, d0
     530:	000e030b 	andeq	r0, lr, fp, lsl #6
     534:	01150400 	tsteq	r5, r0, lsl #8
     538:	13491927 	movtne	r1, #39207	; 0x9927
     53c:	00001301 	andeq	r1, r0, r1, lsl #6
     540:	49000505 	stmdbmi	r0, {r0, r2, r8, sl}
     544:	06000013 			; <UNDEFINED> instruction: 0x06000013
     548:	0e030034 	mcreq	0, 0, r0, cr3, cr4, {1}
     54c:	0b3b0b3a 	bleq	ec323c <__bss_end__+0xeb8464>
     550:	13490b39 	movtne	r0, #39737	; 0x9b39
     554:	193c193f 	ldmdbne	ip!, {r0, r1, r2, r3, r4, r5, r8, fp, ip}
     558:	0f070000 	svceq	0x00070000
     55c:	490b0b00 	stmdbmi	fp, {r8, r9, fp}
     560:	08000013 	stmdaeq	r0, {r0, r1, r4}
     564:	13490026 	movtne	r0, #36902	; 0x9026
     568:	17090000 	strne	r0, [r9, -r0]
     56c:	0b0e0301 	bleq	381178 <__bss_end__+0x3763a0>
     570:	3b0b3a0b 	blcc	2ceda4 <__bss_end__+0x2c3fcc>
     574:	010b390b 	tsteq	fp, fp, lsl #18
     578:	0a000013 	beq	5cc <__code_start__-0x7a34>
     57c:	0803000d 	stmdaeq	r3, {r0, r2, r3}
     580:	0b3b0b3a 	bleq	ec3270 <__bss_end__+0xeb8498>
     584:	13490b39 	movtne	r0, #39737	; 0x9b39
     588:	0f0b0000 	svceq	0x000b0000
     58c:	000b0b00 	andeq	r0, fp, r0, lsl #22
     590:	00150c00 	andseq	r0, r5, r0, lsl #24
     594:	00001927 	andeq	r1, r0, r7, lsr #18
     598:	0b01130d 	bleq	451d4 <__bss_end__+0x3a3fc>
     59c:	3b0b3a0b 	blcc	2cedd0 <__bss_end__+0x2c3ff8>
     5a0:	010b390b 	tsteq	fp, fp, lsl #18
     5a4:	0e000013 	mcreq	0, 0, r0, cr0, cr3, {0}
     5a8:	0803000d 	stmdaeq	r3, {r0, r2, r3}
     5ac:	0b3b0b3a 	bleq	ec329c <__bss_end__+0xeb84c4>
     5b0:	13490b39 	movtne	r0, #39737	; 0x9b39
     5b4:	00000b38 	andeq	r0, r0, r8, lsr fp
     5b8:	03000d0f 	movweq	r0, #3343	; 0xd0f
     5bc:	3b0b3a0e 	blcc	2cedfc <__bss_end__+0x2c4024>
     5c0:	490b390b 	stmdbmi	fp, {r0, r1, r3, r8, fp, ip, sp}
     5c4:	000b3813 	andeq	r3, fp, r3, lsl r8
     5c8:	00161000 	andseq	r1, r6, r0
     5cc:	0b3a0e03 	bleq	e83de0 <__bss_end__+0xe79008>
     5d0:	0b390b3b 	bleq	e432c4 <__bss_end__+0xe384ec>
     5d4:	00001349 	andeq	r1, r0, r9, asr #6
     5d8:	03003411 	movweq	r3, #1041	; 0x411
     5dc:	3b0b3a0e 	blcc	2cee1c <__bss_end__+0x2c4044>
     5e0:	490b390b 	stmdbmi	fp, {r0, r1, r3, r8, fp, ip, sp}
     5e4:	00180213 	andseq	r0, r8, r3, lsl r2
     5e8:	012e1200 			; <UNDEFINED> instruction: 0x012e1200
     5ec:	0e03193f 			; <UNDEFINED> instruction: 0x0e03193f
     5f0:	0b3b0b3a 	bleq	ec32e0 <__bss_end__+0xeb8508>
     5f4:	19270b39 	stmdbne	r7!, {r0, r3, r4, r5, r8, r9, fp}
     5f8:	06120111 			; <UNDEFINED> instruction: 0x06120111
     5fc:	42971840 	addsmi	r1, r7, #64, 16	; 0x400000
     600:	00130119 	andseq	r0, r3, r9, lsl r1
     604:	00051300 	andeq	r1, r5, r0, lsl #6
     608:	0b3a0803 	bleq	e8261c <__bss_end__+0xe77844>
     60c:	0b390b3b 	bleq	e43300 <__bss_end__+0xe38528>
     610:	18021349 	stmdane	r2, {r0, r3, r6, r8, r9, ip}
     614:	34140000 	ldrcc	r0, [r4], #-0
     618:	3a080300 	bcc	201220 <__bss_end__+0x1f6448>
     61c:	390b3b0b 	stmdbcc	fp, {r0, r1, r3, r8, r9, fp, ip, sp}
     620:	0213490b 	andseq	r4, r3, #180224	; 0x2c000
     624:	1742b717 	smlaldne	fp, r2, r7, r7
     628:	2e150000 	cdpcs	0, 1, cr0, cr5, cr0, {0}
     62c:	03193f01 	tsteq	r9, #1, 30
     630:	3b0b3a0e 	blcc	2cee70 <__bss_end__+0x2c4098>
     634:	270b390b 	strcs	r3, [fp, -fp, lsl #18]
     638:	11134919 	tstne	r3, r9, lsl r9
     63c:	40061201 	andmi	r1, r6, r1, lsl #4
     640:	19429718 	stmdbne	r2, {r3, r4, r8, r9, sl, ip, pc}^
     644:	00001301 	andeq	r1, r0, r1, lsl #6
     648:	03000516 	movweq	r0, #1302	; 0x516
     64c:	3b0b3a0e 	blcc	2cee8c <__bss_end__+0x2c40b4>
     650:	490b390b 	stmdbmi	fp, {r0, r1, r3, r8, fp, ip, sp}
     654:	b7170213 			; <UNDEFINED> instruction: 0xb7170213
     658:	00001742 	andeq	r1, r0, r2, asr #14
     65c:	03003417 	movweq	r3, #1047	; 0x417
     660:	3b0b3a0e 	blcc	2ceea0 <__bss_end__+0x2c40c8>
     664:	490b390b 	stmdbmi	fp, {r0, r1, r3, r8, fp, ip, sp}
     668:	b7170213 			; <UNDEFINED> instruction: 0xb7170213
     66c:	00001742 	andeq	r1, r0, r2, asr #14
     670:	31011d18 	tstcc	r1, r8, lsl sp
     674:	b8015213 	stmdalt	r1, {r0, r1, r4, r9, ip, lr}
     678:	17550b42 	ldrbne	r0, [r5, -r2, asr #22]
     67c:	0b590b58 	bleq	16433e4 <__bss_end__+0x163860c>
     680:	00000b57 	andeq	r0, r0, r7, asr fp
     684:	31000519 	tstcc	r0, r9, lsl r5
     688:	b7170213 			; <UNDEFINED> instruction: 0xb7170213
     68c:	00001742 	andeq	r1, r0, r2, asr #14
     690:	55010b1a 	strpl	r0, [r1, #-2842]	; 0xfffff4e6
     694:	1b000017 	blne	6f8 <__code_start__-0x7908>
     698:	13310034 	teqne	r1, #52, 0	; 0x34
     69c:	42b71702 	adcsmi	r1, r7, #524288	; 0x80000
     6a0:	1c000017 	stcne	0, cr0, [r0], {23}
     6a4:	00018289 	andeq	r8, r1, r9, lsl #5
     6a8:	13310111 	teqne	r1, #1073741828	; 0x40000004
     6ac:	891d0000 	ldmdbhi	sp, {}	; <UNPREDICTABLE>
     6b0:	11010182 	smlabbne	r1, r2, r1, r0
     6b4:	01133101 	tsteq	r3, r1, lsl #2
     6b8:	1e000013 	mcrne	0, 0, r0, cr0, cr3, {0}
     6bc:	0001828a 	andeq	r8, r1, sl, lsl #5
     6c0:	42911802 	addsmi	r1, r1, #131072	; 0x20000
     6c4:	1f000018 	svcne	0x00000018
     6c8:	01018289 	smlabbeq	r1, r9, r2, r8
     6cc:	13310111 	teqne	r1, #1073741828	; 0x40000004
     6d0:	2e200000 	cdpcs	0, 2, cr0, cr0, cr0, {0}
     6d4:	3a0e0301 	bcc	3812e0 <__bss_end__+0x376508>
     6d8:	390b3b0b 	stmdbcc	fp, {r0, r1, r3, r8, r9, fp, ip, sp}
     6dc:	4919270b 	ldmdbmi	r9, {r0, r1, r3, r8, r9, sl, sp}
     6e0:	010b2013 	tsteq	fp, r3, lsl r0
     6e4:	21000013 	tstcs	r0, r3, lsl r0
     6e8:	08030005 	stmdaeq	r3, {r0, r2}
     6ec:	0b3b0b3a 	bleq	ec33dc <__bss_end__+0xeb8604>
     6f0:	13490b39 	movtne	r0, #39737	; 0x9b39
     6f4:	34220000 	strtcc	r0, [r2], #-0
     6f8:	3a080300 	bcc	201300 <__bss_end__+0x1f6528>
     6fc:	390b3b0b 	stmdbcc	fp, {r0, r1, r3, r8, r9, fp, ip, sp}
     700:	0013490b 	andseq	r4, r3, fp, lsl #18
     704:	002e2300 	eoreq	r2, lr, r0, lsl #6
     708:	193c193f 	ldmdbne	ip!, {r0, r1, r2, r3, r4, r5, r8, fp, ip}
     70c:	0e030e6e 	cdpeq	14, 0, cr0, cr3, cr14, {3}
     710:	0b3b0b3a 	bleq	ec3400 <__bss_end__+0xeb8628>
     714:	00000b39 	andeq	r0, r0, r9, lsr fp
     718:	01110100 	tsteq	r1, r0, lsl #2
     71c:	0b130e25 	bleq	4c3fb8 <__bss_end__+0x4b91e0>
     720:	0e1b0e03 	cdpeq	14, 1, cr0, cr11, cr3, {0}
     724:	06120111 			; <UNDEFINED> instruction: 0x06120111
     728:	00001710 	andeq	r1, r0, r0, lsl r7
     72c:	0b002402 	bleq	973c <set_user_level+0x10>
     730:	030b3e0b 	movweq	r3, #48651	; 0xbe0b
     734:	03000008 	movweq	r0, #8
     738:	0b0b0024 	bleq	2c07d0 <__bss_end__+0x2b59f8>
     73c:	0e030b3e 	vmoveq.16	d3[0], r0
     740:	16040000 	strne	r0, [r4], -r0
     744:	3a0e0300 	bcc	38134c <__bss_end__+0x376574>
     748:	390b3b0b 	stmdbcc	fp, {r0, r1, r3, r8, r9, fp, ip, sp}
     74c:	0013490b 	andseq	r4, r3, fp, lsl #18
     750:	01150500 	tsteq	r5, r0, lsl #10
     754:	13491927 	movtne	r1, #39207	; 0x9927
     758:	00001301 	andeq	r1, r0, r1, lsl #6
     75c:	49000506 	stmdbmi	r0, {r1, r2, r8, sl}
     760:	07000013 	smladeq	r0, r3, r0, r0
     764:	0e030034 	mcreq	0, 0, r0, cr3, cr4, {1}
     768:	0b3b0b3a 	bleq	ec3458 <__bss_end__+0xeb8680>
     76c:	13490b39 	movtne	r0, #39737	; 0x9b39
     770:	193c193f 	ldmdbne	ip!, {r0, r1, r2, r3, r4, r5, r8, fp, ip}
     774:	0f080000 	svceq	0x00080000
     778:	490b0b00 	stmdbmi	fp, {r8, r9, fp}
     77c:	09000013 	stmdbeq	r0, {r0, r1, r4}
     780:	13490026 	movtne	r0, #36902	; 0x9026
     784:	130a0000 	movwne	r0, #40960	; 0xa000
     788:	3a0b0b01 	bcc	2c3394 <__bss_end__+0x2b85bc>
     78c:	390b3b0b 	stmdbcc	fp, {r0, r1, r3, r8, r9, fp, ip, sp}
     790:	0013010b 	andseq	r0, r3, fp, lsl #2
     794:	000d0b00 	andeq	r0, sp, r0, lsl #22
     798:	0b3a0e03 	bleq	e83fac <__bss_end__+0xe791d4>
     79c:	0b390b3b 	bleq	e43490 <__bss_end__+0xe386b8>
     7a0:	0b381349 	bleq	e054cc <__bss_end__+0xdfa6f4>
     7a4:	040c0000 	streq	r0, [ip], #-0
     7a8:	0b0b3e01 	bleq	2cffb4 <__bss_end__+0x2c51dc>
     7ac:	3a13490b 	bcc	4d2be0 <__bss_end__+0x4c7e08>
     7b0:	390b3b0b 	stmdbcc	fp, {r0, r1, r3, r8, r9, fp, ip, sp}
     7b4:	0013010b 	andseq	r0, r3, fp, lsl #2
     7b8:	00280d00 	eoreq	r0, r8, r0, lsl #26
     7bc:	0b1c0e03 	bleq	703fd0 <__bss_end__+0x6f91f8>
     7c0:	130e0000 	movwne	r0, #57344	; 0xe000
     7c4:	0b0e0301 	bleq	3813d0 <__bss_end__+0x3765f8>
     7c8:	3b0b3a0b 	blcc	2ceffc <__bss_end__+0x2c4224>
     7cc:	010b390b 	tsteq	fp, fp, lsl #18
     7d0:	0f000013 	svceq	0x00000013
     7d4:	0803000d 	stmdaeq	r3, {r0, r2, r3}
     7d8:	0b3b0b3a 	bleq	ec34c8 <__bss_end__+0xeb86f0>
     7dc:	13490b39 	movtne	r0, #39737	; 0x9b39
     7e0:	00000b38 	andeq	r0, r0, r8, lsr fp
     7e4:	49010110 	stmdbmi	r1, {r4, r8}
     7e8:	00130113 	andseq	r0, r3, r3, lsl r1
     7ec:	00211100 	eoreq	r1, r1, r0, lsl #2
     7f0:	0b2f1349 	bleq	bc551c <__bss_end__+0xbba744>
     7f4:	0f120000 	svceq	0x00120000
     7f8:	000b0b00 	andeq	r0, fp, r0, lsl #22
     7fc:	00341300 	eorseq	r1, r4, r0, lsl #6
     800:	0b3a0e03 	bleq	e84014 <__bss_end__+0xe7923c>
     804:	0b390b3b 	bleq	e434f8 <__bss_end__+0xe38720>
     808:	18021349 	stmdane	r2, {r0, r3, r6, r8, r9, ip}
     80c:	2e140000 	cdpcs	0, 1, cr0, cr4, cr0, {0}
     810:	03193f01 	tsteq	r9, #1, 30
     814:	3b0b3a0e 	blcc	2cf054 <__bss_end__+0x2c427c>
     818:	270b3905 	strcs	r3, [fp, -r5, lsl #18]
     81c:	12011119 	andne	r1, r1, #1073741830	; 0x40000006
     820:	97184006 	ldrls	r4, [r8, -r6]
     824:	13011942 	movwne	r1, #6466	; 0x1942
     828:	34150000 	ldrcc	r0, [r5], #-0
     82c:	490e0300 	stmdbmi	lr, {r8, r9}
     830:	02193413 	andseq	r3, r9, #318767104	; 0x13000000
     834:	16000018 			; <UNDEFINED> instruction: 0x16000018
     838:	01018289 	smlabbeq	r1, r9, r2, r8
     83c:	13310111 	teqne	r1, #1073741828	; 0x40000004
     840:	00001301 	andeq	r1, r0, r1, lsl #6
     844:	01828a17 	orreq	r8, r2, r7, lsl sl
     848:	91180200 	tstls	r8, r0, lsl #4
     84c:	00001842 	andeq	r1, r0, r2, asr #16
     850:	01828918 	orreq	r8, r2, r8, lsl r9
     854:	31011100 	mrscc	r1, (UNDEF: 17)
     858:	19000013 	stmdbne	r0, {r0, r1, r4}
     85c:	193f012e 	ldmdbne	pc!, {r1, r2, r3, r5, r8}	; <UNPREDICTABLE>
     860:	0b3a0e03 	bleq	e84074 <__bss_end__+0xe7929c>
     864:	0b39053b 	bleq	e41d58 <__bss_end__+0xe36f80>
     868:	13491927 	movtne	r1, #39207	; 0x9927
     86c:	06120111 			; <UNDEFINED> instruction: 0x06120111
     870:	42971840 	addsmi	r1, r7, #64, 16	; 0x400000
     874:	00130119 	andseq	r0, r3, r9, lsl r1
     878:	00341a00 	eorseq	r1, r4, r0, lsl #20
     87c:	0b3a0e03 	bleq	e84090 <__bss_end__+0xe792b8>
     880:	0b39053b 	bleq	e41d74 <__bss_end__+0xe36f9c>
     884:	17021349 	strne	r1, [r2, -r9, asr #6]
     888:	001742b7 			; <UNDEFINED> instruction: 0x001742b7
     88c:	011d1b00 	tsteq	sp, r0, lsl #22
     890:	01521331 	cmpeq	r2, r1, lsr r3
     894:	110b42b8 			; <UNDEFINED> instruction: 0x110b42b8
     898:	58061201 	stmdapl	r6, {r0, r9, ip}
     89c:	5705590b 	strpl	r5, [r5, -fp, lsl #18]
     8a0:	0013010b 	andseq	r0, r3, fp, lsl #2
     8a4:	00341c00 	eorseq	r1, r4, r0, lsl #24
     8a8:	17021331 	smladxne	r2, r1, r3, r1
     8ac:	001742b7 			; <UNDEFINED> instruction: 0x001742b7
     8b0:	010b1d00 	tsteq	fp, r0, lsl #26
     8b4:	17551331 	smmlarne	r5, r1, r3, r1
     8b8:	00001301 	andeq	r1, r0, r1, lsl #6
     8bc:	31011d1e 	tstcc	r1, lr, lsl sp
     8c0:	b8015213 	stmdalt	r1, {r0, r1, r4, r9, ip, lr}
     8c4:	17550b42 	ldrbne	r0, [r5, -r2, asr #22]
     8c8:	05590b58 	ldrbeq	r0, [r9, #-2904]	; 0xfffff4a8
     8cc:	13010b57 	movwne	r0, #6999	; 0x1b57
     8d0:	051f0000 	ldreq	r0, [pc, #-0]	; 8d8 <__code_start__-0x7728>
     8d4:	02133100 	andseq	r3, r3, #0
     8d8:	1742b717 	smlaldne	fp, r2, r7, r7
     8dc:	89200000 	stmdbhi	r0!, {}	; <UNPREDICTABLE>
     8e0:	11010182 	smlabbne	r1, r2, r1, r0
     8e4:	00133101 	andseq	r3, r3, r1, lsl #2
     8e8:	012e2100 			; <UNDEFINED> instruction: 0x012e2100
     8ec:	0b3a0e03 	bleq	e84100 <__bss_end__+0xe79328>
     8f0:	0b390b3b 	bleq	e435e4 <__bss_end__+0xe3880c>
     8f4:	13491927 	movtne	r1, #39207	; 0x9927
     8f8:	13010b20 	movwne	r0, #6944	; 0x1b20
     8fc:	34220000 	strtcc	r0, [r2], #-0
     900:	3a0e0300 	bcc	381508 <__bss_end__+0x376730>
     904:	390b3b0b 	stmdbcc	fp, {r0, r1, r3, r8, r9, fp, ip, sp}
     908:	0013490b 	andseq	r4, r3, fp, lsl #18
     90c:	010b2300 	mrseq	r2, (UNDEF: 59)
     910:	34240000 	strtcc	r0, [r4], #-0
     914:	3a080300 	bcc	20151c <__bss_end__+0x1f6744>
     918:	390b3b0b 	stmdbcc	fp, {r0, r1, r3, r8, r9, fp, ip, sp}
     91c:	0013490b 	andseq	r4, r3, fp, lsl #18
     920:	012e2500 			; <UNDEFINED> instruction: 0x012e2500
     924:	0e03193f 			; <UNDEFINED> instruction: 0x0e03193f
     928:	0b3b0b3a 	bleq	ec3618 <__bss_end__+0xeb8840>
     92c:	19270b39 	stmdbne	r7!, {r0, r3, r4, r5, r8, r9, fp}
     930:	01111349 	tsteq	r1, r9, asr #6
     934:	18400612 	stmdane	r0, {r1, r4, r9, sl}^
     938:	01194297 			; <UNDEFINED> instruction: 0x01194297
     93c:	26000013 			; <UNDEFINED> instruction: 0x26000013
     940:	0e030034 	mcreq	0, 0, r0, cr3, cr4, {1}
     944:	0b3b0b3a 	bleq	ec3634 <__bss_end__+0xeb885c>
     948:	13490b39 	movtne	r0, #39737	; 0x9b39
     94c:	42b71702 	adcsmi	r1, r7, #524288	; 0x80000
     950:	27000017 	smladcs	r0, r7, r0, r0
     954:	1331011d 	teqne	r1, #1073741831	; 0x40000007
     958:	42b80152 	adcsmi	r0, r8, #-2147483628	; 0x80000014
     95c:	1201110b 	andne	r1, r1, #-1073741822	; 0xc0000002
     960:	590b5806 	stmdbpl	fp, {r1, r2, fp, ip, lr}
     964:	010b570b 	tsteq	fp, fp, lsl #14
     968:	28000013 	stmdacs	r0, {r0, r1, r4}
     96c:	193f012e 	ldmdbne	pc!, {r1, r2, r3, r5, r8}	; <UNPREDICTABLE>
     970:	0b3a0e03 	bleq	e84184 <__bss_end__+0xe793ac>
     974:	0b390b3b 	bleq	e43668 <__bss_end__+0xe38890>
     978:	01111927 	tsteq	r1, r7, lsr #18
     97c:	18400612 	stmdane	r0, {r1, r4, r9, sl}^
     980:	01194297 			; <UNDEFINED> instruction: 0x01194297
     984:	29000013 	stmdbcs	r0, {r0, r1, r4}
     988:	193f012e 	ldmdbne	pc!, {r1, r2, r3, r5, r8}	; <UNPREDICTABLE>
     98c:	0b3a0e03 	bleq	e841a0 <__bss_end__+0xe793c8>
     990:	0b390b3b 	bleq	e43684 <__bss_end__+0xe388ac>
     994:	13491927 	movtne	r1, #39207	; 0x9927
     998:	13010b20 	movwne	r0, #6944	; 0x1b20
     99c:	052a0000 	streq	r0, [sl, #-0]!
     9a0:	3a0e0300 	bcc	3815a8 <__bss_end__+0x3767d0>
     9a4:	390b3b0b 	stmdbcc	fp, {r0, r1, r3, r8, r9, fp, ip, sp}
     9a8:	0013490b 	andseq	r4, r3, fp, lsl #18
     9ac:	012e2b00 			; <UNDEFINED> instruction: 0x012e2b00
     9b0:	0b3a0e03 	bleq	e841c4 <__bss_end__+0xe793ec>
     9b4:	0b390b3b 	bleq	e436a8 <__bss_end__+0xe388d0>
     9b8:	13491927 	movtne	r1, #39207	; 0x9927
     9bc:	06120111 			; <UNDEFINED> instruction: 0x06120111
     9c0:	42971840 	addsmi	r1, r7, #64, 16	; 0x400000
     9c4:	00130119 	andseq	r0, r3, r9, lsl r1
     9c8:	00052c00 	andeq	r2, r5, r0, lsl #24
     9cc:	0b3a0e03 	bleq	e841e0 <__bss_end__+0xe79408>
     9d0:	0b390b3b 	bleq	e436c4 <__bss_end__+0xe388ec>
     9d4:	17021349 	strne	r1, [r2, -r9, asr #6]
     9d8:	001742b7 			; <UNDEFINED> instruction: 0x001742b7
     9dc:	010b2d00 	tsteq	fp, r0, lsl #26
     9e0:	13011755 	movwne	r1, #5973	; 0x1755
     9e4:	342e0000 	strtcc	r0, [lr], #-0
     9e8:	3a080300 	bcc	2015f0 <__bss_end__+0x1f6818>
     9ec:	390b3b0b 	stmdbcc	fp, {r0, r1, r3, r8, r9, fp, ip, sp}
     9f0:	0213490b 	andseq	r4, r3, #180224	; 0x2c000
     9f4:	1742b717 	smlaldne	fp, r2, r7, r7
     9f8:	2e2f0000 	cdpcs	0, 2, cr0, cr15, cr0, {0}
     9fc:	3a0e0301 	bcc	381608 <__bss_end__+0x376830>
     a00:	390b3b0b 	stmdbcc	fp, {r0, r1, r3, r8, r9, fp, ip, sp}
     a04:	1119270b 	tstne	r9, fp, lsl #14
     a08:	40061201 	andmi	r1, r6, r1, lsl #4
     a0c:	19429718 	stmdbne	r2, {r3, r4, r8, r9, sl, ip, pc}^
     a10:	00001301 	andeq	r1, r0, r1, lsl #6
     a14:	03003430 	movweq	r3, #1072	; 0x430
     a18:	3b0b3a0e 	blcc	2cf258 <__bss_end__+0x2c4480>
     a1c:	490b390b 	stmdbmi	fp, {r0, r1, r3, r8, fp, ip, sp}
     a20:	00061c13 	andeq	r1, r6, r3, lsl ip
     a24:	010b3100 	mrseq	r3, (UNDEF: 27)
     a28:	06120111 			; <UNDEFINED> instruction: 0x06120111
     a2c:	00001301 	andeq	r1, r0, r1, lsl #6
     a30:	03000532 	movweq	r0, #1330	; 0x532
     a34:	3b0b3a08 	blcc	2cf25c <__bss_end__+0x2c4484>
     a38:	490b390b 	stmdbmi	fp, {r0, r1, r3, r8, fp, ip, sp}
     a3c:	b7170213 			; <UNDEFINED> instruction: 0xb7170213
     a40:	00001742 	andeq	r1, r0, r2, asr #14
     a44:	55010b33 	strpl	r0, [r1, #-2867]	; 0xfffff4cd
     a48:	34000017 	strcc	r0, [r0], #-23	; 0xffffffe9
     a4c:	1331011d 	teqne	r1, #1073741831	; 0x40000007
     a50:	42b80152 	adcsmi	r0, r8, #-2147483628	; 0x80000014
     a54:	5817550b 	ldmdapl	r7, {r0, r1, r3, r8, sl, ip, lr}
     a58:	570b590b 	strpl	r5, [fp, -fp, lsl #18]
     a5c:	3500000b 	strcc	r0, [r0, #-11]
     a60:	1331011d 	teqne	r1, #1073741831	; 0x40000007
     a64:	42b80152 	adcsmi	r0, r8, #-2147483628	; 0x80000014
     a68:	5817550b 	ldmdapl	r7, {r0, r1, r3, r8, sl, ip, lr}
     a6c:	570b590b 	strpl	r5, [fp, -fp, lsl #18]
     a70:	0013010b 	andseq	r0, r3, fp, lsl #2
     a74:	00053600 	andeq	r3, r5, r0, lsl #12
     a78:	0b3a0803 	bleq	e82a8c <__bss_end__+0xe77cb4>
     a7c:	0b390b3b 	bleq	e43770 <__bss_end__+0xe38998>
     a80:	00001349 	andeq	r1, r0, r9, asr #6
     a84:	31012e37 	tstcc	r1, r7, lsr lr
     a88:	12011113 	andne	r1, r1, #-1073741820	; 0xc0000004
     a8c:	97184006 	ldrls	r4, [r8, -r6]
     a90:	13011942 	movwne	r1, #6466	; 0x1942
     a94:	2e380000 	cdpcs	0, 3, cr0, cr8, cr0, {0}
     a98:	3c193f00 	ldccc	15, cr3, [r9], {-0}
     a9c:	030e6e19 	movweq	r6, #60953	; 0xee19
     aa0:	3b0b3a0e 	blcc	2cf2e0 <__bss_end__+0x2c4508>
     aa4:	000b390b 	andeq	r3, fp, fp, lsl #18
     aa8:	00363900 	eorseq	r3, r6, r0, lsl #18
     aac:	00001802 	andeq	r1, r0, r2, lsl #16
     ab0:	01110100 	tsteq	r1, r0, lsl #2
     ab4:	0b130e25 	bleq	4c4350 <__bss_end__+0x4b9578>
     ab8:	0e1b0e03 	cdpeq	14, 1, cr0, cr11, cr3, {0}
     abc:	06120111 			; <UNDEFINED> instruction: 0x06120111
     ac0:	00001710 	andeq	r1, r0, r0, lsl r7
     ac4:	0b002402 	bleq	9ad4 <kmalloc_heap_ptr+0x8>
     ac8:	030b3e0b 	movweq	r3, #48651	; 0xbe0b
     acc:	03000008 	movweq	r0, #8
     ad0:	0e030016 	mcreq	0, 0, r0, cr3, cr6, {0}
     ad4:	0b3b0b3a 	bleq	ec37c4 <__bss_end__+0xeb89ec>
     ad8:	13490b39 	movtne	r0, #39737	; 0x9b39
     adc:	24040000 	strcs	r0, [r4], #-0
     ae0:	3e0b0b00 	vmlacc.f64	d0, d11, d0
     ae4:	000e030b 	andeq	r0, lr, fp, lsl #6
     ae8:	01150500 	tsteq	r5, r0, lsl #10
     aec:	13491927 	movtne	r1, #39207	; 0x9927
     af0:	00001301 	andeq	r1, r0, r1, lsl #6
     af4:	49000506 	stmdbmi	r0, {r1, r2, r8, sl}
     af8:	07000013 	smladeq	r0, r3, r0, r0
     afc:	0e030034 	mcreq	0, 0, r0, cr3, cr4, {1}
     b00:	0b3b0b3a 	bleq	ec37f0 <__bss_end__+0xeb8a18>
     b04:	13490b39 	movtne	r0, #39737	; 0x9b39
     b08:	193c193f 	ldmdbne	ip!, {r0, r1, r2, r3, r4, r5, r8, fp, ip}
     b0c:	0f080000 	svceq	0x00080000
     b10:	490b0b00 	stmdbmi	fp, {r8, r9, fp}
     b14:	09000013 	stmdbeq	r0, {r0, r1, r4}
     b18:	13490026 	movtne	r0, #36902	; 0x9026
     b1c:	2e0a0000 	cdpcs	0, 0, cr0, cr10, cr0, {0}
     b20:	03193f01 	tsteq	r9, #1, 30
     b24:	3b0b3a0e 	blcc	2cf364 <__bss_end__+0x2c458c>
     b28:	270b390b 	strcs	r3, [fp, -fp, lsl #18]
     b2c:	11134919 	tstne	r3, r9, lsl r9
     b30:	40061201 	andmi	r1, r6, r1, lsl #4
     b34:	19429718 	stmdbne	r2, {r3, r4, r8, r9, sl, ip, pc}^
     b38:	00001301 	andeq	r1, r0, r1, lsl #6
     b3c:	0300050b 	movweq	r0, #1291	; 0x50b
     b40:	3b0b3a08 	blcc	2cf368 <__bss_end__+0x2c4590>
     b44:	490b390b 	stmdbmi	fp, {r0, r1, r3, r8, fp, ip, sp}
     b48:	00180213 	andseq	r0, r8, r3, lsl r2
     b4c:	00050c00 	andeq	r0, r5, r0, lsl #24
     b50:	0b3a0803 	bleq	e82b64 <__bss_end__+0xe77d8c>
     b54:	0b390b3b 	bleq	e43848 <__bss_end__+0xe38a70>
     b58:	17021349 	strne	r1, [r2, -r9, asr #6]
     b5c:	001742b7 			; <UNDEFINED> instruction: 0x001742b7
     b60:	00340d00 	eorseq	r0, r4, r0, lsl #26
     b64:	0b3a0803 	bleq	e82b78 <__bss_end__+0xe77da0>
     b68:	0b390b3b 	bleq	e4385c <__bss_end__+0xe38a84>
     b6c:	17021349 	strne	r1, [r2, -r9, asr #6]
     b70:	001742b7 			; <UNDEFINED> instruction: 0x001742b7
     b74:	000f0e00 	andeq	r0, pc, r0, lsl #28
     b78:	00000b0b 	andeq	r0, r0, fp, lsl #22
     b7c:	01110100 	tsteq	r1, r0, lsl #2
     b80:	0b130e25 	bleq	4c441c <__bss_end__+0x4b9644>
     b84:	0e1b0e03 	cdpeq	14, 1, cr0, cr11, cr3, {0}
     b88:	06120111 			; <UNDEFINED> instruction: 0x06120111
     b8c:	00001710 	andeq	r1, r0, r0, lsl r7
     b90:	03001602 	movweq	r1, #1538	; 0x602
     b94:	3b0b3a0e 	blcc	2cf3d4 <__bss_end__+0x2c45fc>
     b98:	490b390b 	stmdbmi	fp, {r0, r1, r3, r8, fp, ip, sp}
     b9c:	03000013 	movweq	r0, #19
     ba0:	0e030113 	mcreq	1, 0, r0, cr3, cr3, {0}
     ba4:	0b3a0b0b 	bleq	e837d8 <__bss_end__+0xe78a00>
     ba8:	13010b3b 	movwne	r0, #6971	; 0x1b3b
     bac:	0d040000 	stceq	0, cr0, [r4, #-0]
     bb0:	490e0300 	stmdbmi	lr, {r8, r9}
     bb4:	340b3813 	strcc	r3, [fp], #-2067	; 0xfffff7ed
     bb8:	05000019 	streq	r0, [r0, #-25]	; 0xffffffe7
     bbc:	0b0b000f 	bleq	2c0c00 <__bss_end__+0x2b5e28>
     bc0:	24060000 	strcs	r0, [r6], #-0
     bc4:	3e0b0b00 	vmlacc.f64	d0, d11, d0
     bc8:	0008030b 	andeq	r0, r8, fp, lsl #6
     bcc:	00240700 	eoreq	r0, r4, r0, lsl #14
     bd0:	0b3e0b0b 	bleq	f83804 <__bss_end__+0xf78a2c>
     bd4:	00000e03 	andeq	r0, r0, r3, lsl #28
     bd8:	27011508 	strcs	r1, [r1, -r8, lsl #10]
     bdc:	01134919 	tsteq	r3, r9, lsl r9
     be0:	09000013 	stmdbeq	r0, {r0, r1, r4}
     be4:	13490005 	movtne	r0, #36869	; 0x9005
     be8:	340a0000 	strcc	r0, [sl], #-0
     bec:	3a0e0300 	bcc	3817f4 <__bss_end__+0x376a1c>
     bf0:	390b3b0b 	stmdbcc	fp, {r0, r1, r3, r8, r9, fp, ip, sp}
     bf4:	3f13490b 	svccc	0x0013490b
     bf8:	00193c19 	andseq	r3, r9, r9, lsl ip
     bfc:	000f0b00 	andeq	r0, pc, r0, lsl #22
     c00:	13490b0b 	movtne	r0, #39691	; 0x9b0b
     c04:	260c0000 	strcs	r0, [ip], -r0
     c08:	00134900 	andseq	r4, r3, r0, lsl #18
     c0c:	012e0d00 			; <UNDEFINED> instruction: 0x012e0d00
     c10:	0e03193f 			; <UNDEFINED> instruction: 0x0e03193f
     c14:	0b3b0b3a 	bleq	ec3904 <__bss_end__+0xeb8b2c>
     c18:	19270b39 	stmdbne	r7!, {r0, r3, r4, r5, r8, r9, fp}
     c1c:	01111349 	tsteq	r1, r9, asr #6
     c20:	18400612 	stmdane	r0, {r1, r4, r9, sl}^
     c24:	01194297 			; <UNDEFINED> instruction: 0x01194297
     c28:	0e000013 	mcreq	0, 0, r0, cr0, cr3, {0}
     c2c:	08030005 	stmdaeq	r3, {r0, r2}
     c30:	0b3b0b3a 	bleq	ec3920 <__bss_end__+0xeb8b48>
     c34:	13490b39 	movtne	r0, #39737	; 0x9b39
     c38:	00001802 	andeq	r1, r0, r2, lsl #16
     c3c:	0000180f 	andeq	r1, r0, pc, lsl #16
     c40:	00341000 	eorseq	r1, r4, r0
     c44:	0b3a0803 	bleq	e82c58 <__bss_end__+0xe77e80>
     c48:	0b390b3b 	bleq	e4393c <__bss_end__+0xe38b64>
     c4c:	18021349 	stmdane	r2, {r0, r3, r6, r8, r9, ip}
     c50:	34110000 	ldrcc	r0, [r1], #-0
     c54:	3a0e0300 	bcc	38185c <__bss_end__+0x376a84>
     c58:	390b3b0b 	stmdbcc	fp, {r0, r1, r3, r8, r9, fp, ip, sp}
     c5c:	0213490b 	andseq	r4, r3, #180224	; 0x2c000
     c60:	12000018 	andne	r0, r0, #24, 0
     c64:	08030034 	stmdaeq	r3, {r2, r4, r5}
     c68:	0b3b0b3a 	bleq	ec3958 <__bss_end__+0xeb8b80>
     c6c:	13490b39 	movtne	r0, #39737	; 0x9b39
     c70:	42b71702 	adcsmi	r1, r7, #524288	; 0x80000
     c74:	13000017 	movwne	r0, #23
     c78:	01018289 	smlabbeq	r1, r9, r2, r8
     c7c:	13310111 	teqne	r1, #1073741828	; 0x40000004
     c80:	00001301 	andeq	r1, r0, r1, lsl #6
     c84:	01828a14 	orreq	r8, r2, r4, lsl sl
     c88:	91180200 	tstls	r8, r0, lsl #4
     c8c:	00001842 	andeq	r1, r0, r2, asr #16
     c90:	01828915 	orreq	r8, r2, r5, lsl r9
     c94:	00011101 	andeq	r1, r1, r1, lsl #2
     c98:	01011600 	tsteq	r1, r0, lsl #12
     c9c:	13011349 	movwne	r1, #4937	; 0x1349
     ca0:	21170000 	tstcs	r7, r0
     ca4:	2f134900 	svccs	0x00134900
     ca8:	18000005 	stmdane	r0, {r0, r2}
     cac:	193f002e 	ldmdbne	pc!, {r1, r2, r3, r5}	; <UNPREDICTABLE>
     cb0:	0e6e193c 			; <UNDEFINED> instruction: 0x0e6e193c
     cb4:	0b3a0e03 	bleq	e844c8 <__bss_end__+0xe796f0>
     cb8:	0b390b3b 	bleq	e439ac <__bss_end__+0xe38bd4>
     cbc:	01000000 	mrseq	r0, (UNDEF: 0)
     cc0:	0e250111 	mcreq	1, 1, r0, cr5, cr1, {0}
     cc4:	0e030b13 	vmoveq.32	d3[0], r0
     cc8:	01110e1b 	tsteq	r1, fp, lsl lr
     ccc:	17100612 			; <UNDEFINED> instruction: 0x17100612
     cd0:	24020000 	strcs	r0, [r2], #-0
     cd4:	3e0b0b00 	vmlacc.f64	d0, d11, d0
     cd8:	0008030b 	andeq	r0, r8, fp, lsl #6
     cdc:	00240300 	eoreq	r0, r4, r0, lsl #6
     ce0:	0b3e0b0b 	bleq	f83914 <__bss_end__+0xf78b3c>
     ce4:	00000e03 	andeq	r0, r0, r3, lsl #28
     ce8:	27011504 	strcs	r1, [r1, -r4, lsl #10]
     cec:	01134919 	tsteq	r3, r9, lsl r9
     cf0:	05000013 	streq	r0, [r0, #-19]	; 0xffffffed
     cf4:	13490005 	movtne	r0, #36869	; 0x9005
     cf8:	34060000 	strcc	r0, [r6], #-0
     cfc:	3a0e0300 	bcc	381904 <__bss_end__+0x376b2c>
     d00:	390b3b0b 	stmdbcc	fp, {r0, r1, r3, r8, r9, fp, ip, sp}
     d04:	3f13490b 	svccc	0x0013490b
     d08:	00193c19 	andseq	r3, r9, r9, lsl ip
     d0c:	000f0700 	andeq	r0, pc, r0, lsl #14
     d10:	13490b0b 	movtne	r0, #39691	; 0x9b0b
     d14:	26080000 	strcs	r0, [r8], -r0
     d18:	00134900 	andseq	r4, r3, r0, lsl #18
     d1c:	00340900 	eorseq	r0, r4, r0, lsl #18
     d20:	0b3a1347 	bleq	e85a44 <__bss_end__+0xe7ac6c>
     d24:	0b390b3b 	bleq	e43a18 <__bss_end__+0xe38c40>
     d28:	00001802 	andeq	r1, r0, r2, lsl #16
     d2c:	3f012e0a 	svccc	0x00012e0a
     d30:	3a0e0319 	bcc	38199c <__bss_end__+0x376bc4>
     d34:	390b3b0b 	stmdbcc	fp, {r0, r1, r3, r8, r9, fp, ip, sp}
     d38:	4919270b 	ldmdbmi	r9, {r0, r1, r3, r8, r9, sl, sp}
     d3c:	12011113 	andne	r1, r1, #-1073741820	; 0xc0000004
     d40:	96184006 	ldrls	r4, [r8], -r6
     d44:	00001942 	andeq	r1, r0, r2, asr #18
     d48:	0300050b 	movweq	r0, #1291	; 0x50b
     d4c:	3b0b3a08 	blcc	2cf574 <__bss_end__+0x2c479c>
     d50:	490b390b 	stmdbmi	fp, {r0, r1, r3, r8, fp, ip, sp}
     d54:	b7170213 			; <UNDEFINED> instruction: 0xb7170213
     d58:	00001742 	andeq	r1, r0, r2, asr #14
     d5c:	01110100 	tsteq	r1, r0, lsl #2
     d60:	0b130e25 	bleq	4c45fc <__bss_end__+0x4b9824>
     d64:	0e1b0e03 	cdpeq	14, 1, cr0, cr11, cr3, {0}
     d68:	06120111 			; <UNDEFINED> instruction: 0x06120111
     d6c:	00001710 	andeq	r1, r0, r0, lsl r7
     d70:	0b002402 	bleq	9d80 <kmalloc_aligned+0xb4>
     d74:	030b3e0b 	movweq	r3, #48651	; 0xbe0b
     d78:	0300000e 	movweq	r0, #14
     d7c:	0b0b0024 	bleq	2c0e14 <__bss_end__+0x2b603c>
     d80:	08030b3e 	stmdaeq	r3, {r1, r2, r3, r4, r5, r8, r9, fp}
     d84:	16040000 	strne	r0, [r4], -r0
     d88:	3a0e0300 	bcc	381990 <__bss_end__+0x376bb8>
     d8c:	390b3b0b 	stmdbcc	fp, {r0, r1, r3, r8, r9, fp, ip, sp}
     d90:	0013490b 	andseq	r4, r3, fp, lsl #18
     d94:	01150500 	tsteq	r5, r0, lsl #10
     d98:	13491927 	movtne	r1, #39207	; 0x9927
     d9c:	00001301 	andeq	r1, r0, r1, lsl #6
     da0:	49000506 	stmdbmi	r0, {r1, r2, r8, sl}
     da4:	07000013 	smladeq	r0, r3, r0, r0
     da8:	0e030034 	mcreq	0, 0, r0, cr3, cr4, {1}
     dac:	0b3b0b3a 	bleq	ec3a9c <__bss_end__+0xeb8cc4>
     db0:	13490b39 	movtne	r0, #39737	; 0x9b39
     db4:	193c193f 	ldmdbne	ip!, {r0, r1, r2, r3, r4, r5, r8, fp, ip}
     db8:	0f080000 	svceq	0x00080000
     dbc:	490b0b00 	stmdbmi	fp, {r8, r9, fp}
     dc0:	09000013 	stmdbeq	r0, {r0, r1, r4}
     dc4:	13490026 	movtne	r0, #36902	; 0x9026
     dc8:	130a0000 	movwne	r0, #40960	; 0xa000
     dcc:	0b0e0301 	bleq	3819d8 <__bss_end__+0x376c00>
     dd0:	3b0b3a0b 	blcc	2cf604 <__bss_end__+0x2c482c>
     dd4:	0013010b 	andseq	r0, r3, fp, lsl #2
     dd8:	000d0b00 	andeq	r0, sp, r0, lsl #22
     ddc:	13490e03 	movtne	r0, #40451	; 0x9e03
     de0:	19340b38 	ldmdbne	r4!, {r3, r4, r5, r8, r9, fp}
     de4:	0f0c0000 	svceq	0x000c0000
     de8:	000b0b00 	andeq	r0, fp, r0, lsl #22
     dec:	012e0d00 			; <UNDEFINED> instruction: 0x012e0d00
     df0:	0e03193f 			; <UNDEFINED> instruction: 0x0e03193f
     df4:	0b3b0b3a 	bleq	ec3ae4 <__bss_end__+0xeb8d0c>
     df8:	19270b39 	stmdbne	r7!, {r0, r3, r4, r5, r8, r9, fp}
     dfc:	01111349 	tsteq	r1, r9, asr #6
     e00:	18400612 	stmdane	r0, {r1, r4, r9, sl}^
     e04:	01194297 			; <UNDEFINED> instruction: 0x01194297
     e08:	0e000013 	mcreq	0, 0, r0, cr0, cr3, {0}
     e0c:	08030005 	stmdaeq	r3, {r0, r2}
     e10:	0b3b0b3a 	bleq	ec3b00 <__bss_end__+0xeb8d28>
     e14:	13490b39 	movtne	r0, #39737	; 0x9b39
     e18:	42b71702 	adcsmi	r1, r7, #524288	; 0x80000
     e1c:	0f000017 	svceq	0x00000017
     e20:	0e030005 	cdpeq	0, 0, cr0, cr3, cr5, {0}
     e24:	0b3b0b3a 	bleq	ec3b14 <__bss_end__+0xeb8d3c>
     e28:	13490b39 	movtne	r0, #39737	; 0x9b39
     e2c:	42b71702 	adcsmi	r1, r7, #524288	; 0x80000
     e30:	10000017 	andne	r0, r0, r7, lsl r0
     e34:	08030034 	stmdaeq	r3, {r2, r4, r5}
     e38:	0b3b0b3a 	bleq	ec3b28 <__bss_end__+0xeb8d50>
     e3c:	13490b39 	movtne	r0, #39737	; 0x9b39
     e40:	42b71702 	adcsmi	r1, r7, #524288	; 0x80000
     e44:	11000017 	tstne	r0, r7, lsl r0
     e48:	0e030034 	mcreq	0, 0, r0, cr3, cr4, {1}
     e4c:	0b3b0b3a 	bleq	ec3b3c <__bss_end__+0xeb8d64>
     e50:	13490b39 	movtne	r0, #39737	; 0x9b39
     e54:	42b71702 	adcsmi	r1, r7, #524288	; 0x80000
     e58:	12000017 	andne	r0, r0, #23, 0
     e5c:	0e030034 	mcreq	0, 0, r0, cr3, cr4, {1}
     e60:	19341349 	ldmdbne	r4!, {r0, r3, r6, r8, r9, ip}
     e64:	00001802 	andeq	r1, r0, r2, lsl #16
     e68:	55010b13 	strpl	r0, [r1, #-2835]	; 0xfffff4ed
     e6c:	14000017 	strne	r0, [r0], #-23	; 0xffffffe9
     e70:	08030034 	stmdaeq	r3, {r2, r4, r5}
     e74:	0b3b0b3a 	bleq	ec3b64 <__bss_end__+0xeb8d8c>
     e78:	13490b39 	movtne	r0, #39737	; 0x9b39
     e7c:	00001802 	andeq	r1, r0, r2, lsl #16
     e80:	03003415 	movweq	r3, #1045	; 0x415
     e84:	3b0b3a0e 	blcc	2cf6c4 <__bss_end__+0x2c48ec>
     e88:	490b390b 	stmdbmi	fp, {r0, r1, r3, r8, fp, ip, sp}
     e8c:	00180213 	andseq	r0, r8, r3, lsl r2
     e90:	010b1600 	tsteq	fp, r0, lsl #12
     e94:	13011755 	movwne	r1, #5973	; 0x1755
     e98:	89170000 	ldmdbhi	r7, {}	; <UNPREDICTABLE>
     e9c:	11010182 	smlabbne	r1, r2, r1, r0
     ea0:	01133101 	tsteq	r3, r1, lsl #2
     ea4:	18000013 	stmdane	r0, {r0, r1, r4}
     ea8:	0001828a 	andeq	r8, r1, sl, lsl #5
     eac:	42911802 	addsmi	r1, r1, #131072	; 0x20000
     eb0:	19000018 	stmdbne	r0, {r3, r4}
     eb4:	00018289 	andeq	r8, r1, r9, lsl #5
     eb8:	13310111 	teqne	r1, #1073741828	; 0x40000004
     ebc:	1d1a0000 	ldcne	0, cr0, [sl, #-0]
     ec0:	52133101 	andspl	r3, r3, #1073741824	; 0x40000000
     ec4:	0542b801 	strbeq	fp, [r2, #-2049]	; 0xfffff7ff
     ec8:	0b581755 	bleq	1606c24 <__bss_end__+0x15fbe4c>
     ecc:	0b570b59 	bleq	15c3c38 <__bss_end__+0x15b8e60>
     ed0:	00001301 	andeq	r1, r0, r1, lsl #6
     ed4:	3100051b 	tstcc	r0, fp, lsl r5
     ed8:	b7170213 			; <UNDEFINED> instruction: 0xb7170213
     edc:	00001742 	andeq	r1, r0, r2, asr #14
     ee0:	3100051c 	tstcc	r0, ip, lsl r5
     ee4:	1d000013 	stcne	0, cr0, [r0, #-76]	; 0xffffffb4
     ee8:	13310034 	teqne	r1, #52, 0	; 0x34
     eec:	00001802 	andeq	r1, r0, r2, lsl #16
     ef0:	3100341e 	tstcc	r0, lr, lsl r4
     ef4:	b7170213 			; <UNDEFINED> instruction: 0xb7170213
     ef8:	00001742 	andeq	r1, r0, r2, asr #14
     efc:	3100341f 	tstcc	r0, pc, lsl r4
     f00:	20000013 	andcs	r0, r0, r3, lsl r0
     f04:	1331011d 	teqne	r1, #1073741831	; 0x40000007
     f08:	42b80152 	adcsmi	r0, r8, #-2147483628	; 0x80000014
     f0c:	58175505 	ldmdapl	r7, {r0, r2, r8, sl, ip, lr}
     f10:	570b590b 	strpl	r5, [fp, -fp, lsl #18]
     f14:	2100000b 	tstcs	r0, fp
     f18:	01018289 	smlabbeq	r1, r9, r2, r8
     f1c:	13010111 	movwne	r0, #4369	; 0x1111
     f20:	01220000 			; <UNDEFINED> instruction: 0x01220000
     f24:	01134901 	tsteq	r3, r1, lsl #18
     f28:	23000013 	movwcs	r0, #19
     f2c:	13490021 	movtne	r0, #36897	; 0x9021
     f30:	00000b2f 	andeq	r0, r0, pc, lsr #22
     f34:	03012e24 	movweq	r2, #7716	; 0x1e24
     f38:	3b0b3a0e 	blcc	2cf778 <__bss_end__+0x2c49a0>
     f3c:	270b390b 	strcs	r3, [fp, -fp, lsl #18]
     f40:	20134919 	andscs	r4, r3, r9, lsl r9
     f44:	0013010b 	andseq	r0, r3, fp, lsl #2
     f48:	00052500 	andeq	r2, r5, r0, lsl #10
     f4c:	0b3a0e03 	bleq	e84760 <__bss_end__+0xe79988>
     f50:	0b390b3b 	bleq	e43c44 <__bss_end__+0xe38e6c>
     f54:	00001349 	andeq	r1, r0, r9, asr #6
     f58:	03000526 	movweq	r0, #1318	; 0x526
     f5c:	3b0b3a08 	blcc	2cf784 <__bss_end__+0x2c49ac>
     f60:	490b390b 	stmdbmi	fp, {r0, r1, r3, r8, fp, ip, sp}
     f64:	27000013 	smladcs	r0, r3, r0, r0
     f68:	08030034 	stmdaeq	r3, {r2, r4, r5}
     f6c:	0b3b0b3a 	bleq	ec3c5c <__bss_end__+0xeb8e84>
     f70:	13490b39 	movtne	r0, #39737	; 0x9b39
     f74:	0b280000 	bleq	a00f7c <__bss_end__+0x9f61a4>
     f78:	29000001 	stmdbcs	r0, {r0}
     f7c:	0e030034 	mcreq	0, 0, r0, cr3, cr4, {1}
     f80:	0b3b0b3a 	bleq	ec3c70 <__bss_end__+0xeb8e98>
     f84:	13490b39 	movtne	r0, #39737	; 0x9b39
     f88:	2e2a0000 	cdpcs	0, 2, cr0, cr10, cr0, {0}
     f8c:	3a080301 	bcc	201b98 <__bss_end__+0x1f6dc0>
     f90:	390b3b0b 	stmdbcc	fp, {r0, r1, r3, r8, r9, fp, ip, sp}
     f94:	4919270b 	ldmdbmi	r9, {r0, r1, r3, r8, r9, sl, sp}
     f98:	010b2013 	tsteq	fp, r3, lsl r0
     f9c:	2b000013 	blcs	ff0 <__code_start__-0x7010>
     fa0:	193f012e 	ldmdbne	pc!, {r1, r2, r3, r5, r8}	; <UNPREDICTABLE>
     fa4:	0b3a0e03 	bleq	e847b8 <__bss_end__+0xe799e0>
     fa8:	0b390b3b 	bleq	e43c9c <__bss_end__+0xe38ec4>
     fac:	01111927 	tsteq	r1, r7, lsr #18
     fb0:	18400612 	stmdane	r0, {r1, r4, r9, sl}^
     fb4:	01194297 			; <UNDEFINED> instruction: 0x01194297
     fb8:	2c000013 	stccs	0, cr0, [r0], {19}
     fbc:	1331012e 	teqne	r1, #-2147483637	; 0x8000000b
     fc0:	06120111 			; <UNDEFINED> instruction: 0x06120111
     fc4:	42971840 	addsmi	r1, r7, #64, 16	; 0x400000
     fc8:	00130119 	andseq	r0, r3, r9, lsl r1
     fcc:	00052d00 	andeq	r2, r5, r0, lsl #26
     fd0:	18021331 	stmdane	r2, {r0, r4, r5, r8, r9, ip}
     fd4:	052e0000 	streq	r0, [lr, #-0]!
     fd8:	1c133100 	ldfnes	f3, [r3], {-0}
     fdc:	2f00000b 	svccs	0x0000000b
     fe0:	1331010b 	teqne	r1, #-1073741822	; 0xc0000002
     fe4:	06120111 			; <UNDEFINED> instruction: 0x06120111
     fe8:	00001301 	andeq	r1, r0, r1, lsl #6
     fec:	3f002e30 	svccc	0x00002e30
     ff0:	6e193c19 	mrcvs	12, 0, r3, cr9, cr9, {0}
     ff4:	3a0e030e 	bcc	381c34 <__bss_end__+0x376e5c>
     ff8:	390b3b0b 	stmdbcc	fp, {r0, r1, r3, r8, r9, fp, ip, sp}
     ffc:	0000000b 	andeq	r0, r0, fp
    1000:	25011101 	strcs	r1, [r1, #-257]	; 0xfffffeff
    1004:	030b130e 	movweq	r1, #45838	; 0xb30e
    1008:	110e1b0e 	tstne	lr, lr, lsl #22
    100c:	10061201 	andne	r1, r6, r1, lsl #4
    1010:	02000017 	andeq	r0, r0, #23, 0
    1014:	0b0b0024 	bleq	2c10ac <__bss_end__+0x2b62d4>
    1018:	08030b3e 	stmdaeq	r3, {r1, r2, r3, r4, r5, r8, r9, fp}
    101c:	24030000 	strcs	r0, [r3], #-0
    1020:	3e0b0b00 	vmlacc.f64	d0, d11, d0
    1024:	000e030b 	andeq	r0, lr, fp, lsl #6
    1028:	01150400 	tsteq	r5, r0, lsl #8
    102c:	13491927 	movtne	r1, #39207	; 0x9927
    1030:	00001301 	andeq	r1, r0, r1, lsl #6
    1034:	49000505 	stmdbmi	r0, {r0, r2, r8, sl}
    1038:	06000013 			; <UNDEFINED> instruction: 0x06000013
    103c:	0e030034 	mcreq	0, 0, r0, cr3, cr4, {1}
    1040:	0b3b0b3a 	bleq	ec3d30 <__bss_end__+0xeb8f58>
    1044:	13490b39 	movtne	r0, #39737	; 0x9b39
    1048:	193c193f 	ldmdbne	ip!, {r0, r1, r2, r3, r4, r5, r8, fp, ip}
    104c:	0f070000 	svceq	0x00070000
    1050:	490b0b00 	stmdbmi	fp, {r8, r9, fp}
    1054:	08000013 	stmdaeq	r0, {r0, r1, r4}
    1058:	13490026 	movtne	r0, #36902	; 0x9026
    105c:	2e090000 	cdpcs	0, 0, cr0, cr9, cr0, {0}
    1060:	03193f01 	tsteq	r9, #1, 30
    1064:	3b0b3a0e 	blcc	2cf8a4 <__bss_end__+0x2c4acc>
    1068:	270b390b 	strcs	r3, [fp, -fp, lsl #18]
    106c:	19018719 	stmdbne	r1, {r0, r3, r4, r8, r9, sl, pc}
    1070:	06120111 			; <UNDEFINED> instruction: 0x06120111
    1074:	42971840 	addsmi	r1, r7, #64, 16	; 0x400000
    1078:	00130119 	andseq	r0, r3, r9, lsl r1
    107c:	82890a00 	addhi	r0, r9, #0, 20
    1080:	01110101 	tsteq	r1, r1, lsl #2
    1084:	00001301 	andeq	r1, r0, r1, lsl #6
    1088:	01828a0b 	orreq	r8, r2, fp, lsl #20
    108c:	91180200 	tstls	r8, r0, lsl #4
    1090:	00001842 	andeq	r1, r0, r2, asr #16
    1094:	0182890c 	orreq	r8, r2, ip, lsl #18
    1098:	31011100 	mrscc	r1, (UNDEF: 17)
    109c:	0d000013 	stceq	0, cr0, [r0, #-76]	; 0xffffffb4
    10a0:	01018289 	smlabbeq	r1, r9, r2, r8
    10a4:	13310111 	teqne	r1, #1073741828	; 0x40000004
    10a8:	00001301 	andeq	r1, r0, r1, lsl #6
    10ac:	3f002e0e 	svccc	0x00002e0e
    10b0:	6e193c19 	mrcvs	12, 0, r3, cr9, cr9, {0}
    10b4:	3a0e030e 	bcc	381cf4 <__bss_end__+0x376f1c>
    10b8:	390b3b0b 	stmdbcc	fp, {r0, r1, r3, r8, r9, fp, ip, sp}
    10bc:	0000000b 	andeq	r0, r0, fp
    10c0:	25011101 	strcs	r1, [r1, #-257]	; 0xfffffeff
    10c4:	030b130e 	movweq	r1, #45838	; 0xb30e
    10c8:	110e1b0e 	tstne	lr, lr, lsl #22
    10cc:	10061201 	andne	r1, r6, r1, lsl #4
    10d0:	02000017 	andeq	r0, r0, #23, 0
    10d4:	0b0b0024 	bleq	2c116c <__bss_end__+0x2b6394>
    10d8:	08030b3e 	stmdaeq	r3, {r1, r2, r3, r4, r5, r8, r9, fp}
    10dc:	24030000 	strcs	r0, [r3], #-0
    10e0:	3e0b0b00 	vmlacc.f64	d0, d11, d0
    10e4:	000e030b 	andeq	r0, lr, fp, lsl #6
    10e8:	01150400 	tsteq	r5, r0, lsl #8
    10ec:	13491927 	movtne	r1, #39207	; 0x9927
    10f0:	00001301 	andeq	r1, r0, r1, lsl #6
    10f4:	49000505 	stmdbmi	r0, {r0, r2, r8, sl}
    10f8:	06000013 			; <UNDEFINED> instruction: 0x06000013
    10fc:	0e030034 	mcreq	0, 0, r0, cr3, cr4, {1}
    1100:	0b3b0b3a 	bleq	ec3df0 <__bss_end__+0xeb9018>
    1104:	13490b39 	movtne	r0, #39737	; 0x9b39
    1108:	193c193f 	ldmdbne	ip!, {r0, r1, r2, r3, r4, r5, r8, fp, ip}
    110c:	0f070000 	svceq	0x00070000
    1110:	490b0b00 	stmdbmi	fp, {r8, r9, fp}
    1114:	08000013 	stmdaeq	r0, {r0, r1, r4}
    1118:	13490026 	movtne	r0, #36902	; 0x9026
    111c:	2e090000 	cdpcs	0, 0, cr0, cr9, cr0, {0}
    1120:	03193f01 	tsteq	r9, #1, 30
    1124:	3b0b3a0e 	blcc	2cf964 <__bss_end__+0x2c4b8c>
    1128:	110b390b 	tstne	fp, fp, lsl #18
    112c:	40061201 	andmi	r1, r6, r1, lsl #4
    1130:	19429718 	stmdbne	r2, {r3, r4, r8, r9, sl, ip, pc}^
    1134:	00001301 	andeq	r1, r0, r1, lsl #6
    1138:	3f002e0a 	svccc	0x00002e0a
    113c:	3a0e0319 	bcc	381da8 <__bss_end__+0x376fd0>
    1140:	390b3b0b 	stmdbcc	fp, {r0, r1, r3, r8, r9, fp, ip, sp}
    1144:	3c19270b 	ldccc	7, cr2, [r9], {11}
    1148:	0b000019 	bleq	11b4 <__code_start__-0x6e4c>
    114c:	08030034 	stmdaeq	r3, {r2, r4, r5}
    1150:	0b3b0b3a 	bleq	ec3e40 <__bss_end__+0xeb9068>
    1154:	13490b39 	movtne	r0, #39737	; 0x9b39
    1158:	42b71702 	adcsmi	r1, r7, #524288	; 0x80000
    115c:	0c000017 	stceq	0, cr0, [r0], {23}
    1160:	0e030034 	mcreq	0, 0, r0, cr3, cr4, {1}
    1164:	0b3b0b3a 	bleq	ec3e54 <__bss_end__+0xeb907c>
    1168:	13490b39 	movtne	r0, #39737	; 0x9b39
    116c:	0b0d0000 	bleq	341174 <__bss_end__+0x33639c>
    1170:	12011101 	andne	r1, r1, #1073741824	; 0x40000000
    1174:	00130106 	andseq	r0, r3, r6, lsl #2
    1178:	82890e00 	addhi	r0, r9, #0, 28
    117c:	01110001 	tsteq	r1, r1
    1180:	00001331 	andeq	r1, r0, r1, lsr r3
    1184:	3f002e0f 	svccc	0x00002e0f
    1188:	6e193c19 	mrcvs	12, 0, r3, cr9, cr9, {0}
    118c:	3a0e030e 	bcc	381dcc <__bss_end__+0x376ff4>
    1190:	39053b0b 	stmdbcc	r5, {r0, r1, r3, r8, r9, fp, ip, sp}
    1194:	1000000b 	andne	r0, r0, fp
    1198:	193f002e 	ldmdbne	pc!, {r1, r2, r3, r5}	; <UNPREDICTABLE>
    119c:	0e6e193c 			; <UNDEFINED> instruction: 0x0e6e193c
    11a0:	0b3a0e03 	bleq	e849b4 <__bss_end__+0xe79bdc>
    11a4:	0b390b3b 	bleq	e43e98 <__bss_end__+0xe390c0>
    11a8:	01000000 	mrseq	r0, (UNDEF: 0)
    11ac:	0e250111 	mcreq	1, 1, r0, cr5, cr1, {0}
    11b0:	0e030b13 	vmoveq.32	d3[0], r0
    11b4:	01110e1b 	tsteq	r1, fp, lsl lr
    11b8:	17100612 			; <UNDEFINED> instruction: 0x17100612
    11bc:	24020000 	strcs	r0, [r2], #-0
    11c0:	3e0b0b00 	vmlacc.f64	d0, d11, d0
    11c4:	0008030b 	andeq	r0, r8, fp, lsl #6
    11c8:	00240300 	eoreq	r0, r4, r0, lsl #6
    11cc:	0b3e0b0b 	bleq	f83e00 <__bss_end__+0xf79028>
    11d0:	00000e03 	andeq	r0, r0, r3, lsl #28
    11d4:	27011504 	strcs	r1, [r1, -r4, lsl #10]
    11d8:	01134919 	tsteq	r3, r9, lsl r9
    11dc:	05000013 	streq	r0, [r0, #-19]	; 0xffffffed
    11e0:	13490005 	movtne	r0, #36869	; 0x9005
    11e4:	34060000 	strcc	r0, [r6], #-0
    11e8:	3a0e0300 	bcc	381df0 <__bss_end__+0x377018>
    11ec:	390b3b0b 	stmdbcc	fp, {r0, r1, r3, r8, r9, fp, ip, sp}
    11f0:	3f13490b 	svccc	0x0013490b
    11f4:	00193c19 	andseq	r3, r9, r9, lsl ip
    11f8:	000f0700 	andeq	r0, pc, r0, lsl #14
    11fc:	13490b0b 	movtne	r0, #39691	; 0x9b0b
    1200:	26080000 	strcs	r0, [r8], -r0
    1204:	00134900 	andseq	r4, r3, r0, lsl #18
    1208:	002e0900 	eoreq	r0, lr, r0, lsl #18
    120c:	0e03193f 			; <UNDEFINED> instruction: 0x0e03193f
    1210:	0b3b0b3a 	bleq	ec3f00 <__bss_end__+0xeb9128>
    1214:	19270b39 	stmdbne	r7!, {r0, r3, r4, r5, r8, r9, fp}
    1218:	06120111 			; <UNDEFINED> instruction: 0x06120111
    121c:	42971840 	addsmi	r1, r7, #64, 16	; 0x400000
    1220:	00000019 	andeq	r0, r0, r9, lsl r0
    1224:	25011101 	strcs	r1, [r1, #-257]	; 0xfffffeff
    1228:	030b130e 	movweq	r1, #45838	; 0xb30e
    122c:	550e1b0e 	strpl	r1, [lr, #-2830]	; 0xfffff4f2
    1230:	10011117 	andne	r1, r1, r7, lsl r1
    1234:	02000017 	andeq	r0, r0, #23, 0
    1238:	0b0b0024 	bleq	2c12d0 <__bss_end__+0x2b64f8>
    123c:	08030b3e 	stmdaeq	r3, {r1, r2, r3, r4, r5, r8, r9, fp}
    1240:	26030000 	strcs	r0, [r3], -r0
    1244:	00134900 	andseq	r4, r3, r0, lsl #18
    1248:	00240400 	eoreq	r0, r4, r0, lsl #8
    124c:	0b3e0b0b 	bleq	f83e80 <__bss_end__+0xf790a8>
    1250:	00000e03 	andeq	r0, r0, r3, lsl #28
    1254:	27011505 	strcs	r1, [r1, -r5, lsl #10]
    1258:	01134919 	tsteq	r3, r9, lsl r9
    125c:	06000013 			; <UNDEFINED> instruction: 0x06000013
    1260:	13490005 	movtne	r0, #36869	; 0x9005
    1264:	34070000 	strcc	r0, [r7], #-0
    1268:	3a0e0300 	bcc	381e70 <__bss_end__+0x377098>
    126c:	390b3b0b 	stmdbcc	fp, {r0, r1, r3, r8, r9, fp, ip, sp}
    1270:	3f13490b 	svccc	0x0013490b
    1274:	00193c19 	andseq	r3, r9, r9, lsl ip
    1278:	000f0800 	andeq	r0, pc, r0, lsl #16
    127c:	13490b0b 	movtne	r0, #39691	; 0x9b0b
    1280:	34090000 	strcc	r0, [r9], #-0
    1284:	3a0e0300 	bcc	381e8c <__bss_end__+0x3770b4>
    1288:	390b3b0b 	stmdbcc	fp, {r0, r1, r3, r8, r9, fp, ip, sp}
    128c:	0013490b 	andseq	r4, r3, fp, lsl #18
    1290:	012e0a00 			; <UNDEFINED> instruction: 0x012e0a00
    1294:	0e03193f 			; <UNDEFINED> instruction: 0x0e03193f
    1298:	0b3b0b3a 	bleq	ec3f88 <__bss_end__+0xeb91b0>
    129c:	19270b39 	stmdbne	r7!, {r0, r3, r4, r5, r8, r9, fp}
    12a0:	11190187 	tstne	r9, r7, lsl #3
    12a4:	40061201 	andmi	r1, r6, r1, lsl #4
    12a8:	19429718 	stmdbne	r2, {r3, r4, r8, r9, sl, ip, pc}^
    12ac:	00001301 	andeq	r1, r0, r1, lsl #6
    12b0:	0300340b 	movweq	r3, #1035	; 0x40b
    12b4:	3b0b3a0e 	blcc	2cfaf4 <__bss_end__+0x2c4d1c>
    12b8:	490b390b 	stmdbmi	fp, {r0, r1, r3, r8, fp, ip, sp}
    12bc:	00061c13 	andeq	r1, r6, r3, lsl ip
    12c0:	00340c00 	eorseq	r0, r4, r0, lsl #24
    12c4:	0b3a0e03 	bleq	e84ad8 <__bss_end__+0xe79d00>
    12c8:	0b390b3b 	bleq	e43fbc <__bss_end__+0xe391e4>
    12cc:	0b1c1349 	bleq	705ff8 <__bss_end__+0x6fb220>
    12d0:	1d0d0000 	stcne	0, cr0, [sp, #-0]
    12d4:	52133101 	andspl	r3, r3, #1073741824	; 0x40000000
    12d8:	0b42b801 	bleq	10af2e4 <__bss_end__+0x10a450c>
    12dc:	0b581755 	bleq	1607038 <__bss_end__+0x15fc260>
    12e0:	0b570b59 	bleq	15c404c <__bss_end__+0x15b9274>
    12e4:	00001301 	andeq	r1, r0, r1, lsl #6
    12e8:	55010b0e 	strpl	r0, [r1, #-2830]	; 0xfffff4f2
    12ec:	0f000017 	svceq	0x00000017
    12f0:	13310034 	teqne	r1, #52, 0	; 0x34
    12f4:	42b71702 	adcsmi	r1, r7, #524288	; 0x80000
    12f8:	10000017 	andne	r0, r0, r7, lsl r0
    12fc:	1331011d 	teqne	r1, #1073741831	; 0x40000007
    1300:	42b80152 	adcsmi	r0, r8, #-2147483628	; 0x80000014
    1304:	1201110b 	andne	r1, r1, #-1073741822	; 0xc0000002
    1308:	590b5806 	stmdbpl	fp, {r1, r2, fp, ip, lr}
    130c:	010b570b 	tsteq	fp, fp, lsl #14
    1310:	11000013 	tstne	r0, r3, lsl r0
    1314:	00018289 	andeq	r8, r1, r9, lsl #5
    1318:	13310111 	teqne	r1, #1073741828	; 0x40000004
    131c:	89120000 	ldmdbhi	r2, {}	; <UNPREDICTABLE>
    1320:	11010182 	smlabbne	r1, r2, r1, r0
    1324:	01133101 	tsteq	r3, r1, lsl #2
    1328:	13000013 	movwne	r0, #19
    132c:	0001828a 	andeq	r8, r1, sl, lsl #5
    1330:	42911802 	addsmi	r1, r1, #131072	; 0x20000
    1334:	14000018 	strne	r0, [r0], #-24	; 0xffffffe8
    1338:	01018289 	smlabbeq	r1, r9, r2, r8
    133c:	13310111 	teqne	r1, #1073741828	; 0x40000004
    1340:	2e150000 	cdpcs	0, 1, cr0, cr5, cr0, {0}
    1344:	03193f01 	tsteq	r9, #1, 30
    1348:	3b0b3a0e 	blcc	2cfb88 <__bss_end__+0x2c4db0>
    134c:	270b390b 	strcs	r3, [fp, -fp, lsl #18]
    1350:	010b2019 	tsteq	fp, r9, lsl r0
    1354:	16000013 			; <UNDEFINED> instruction: 0x16000013
    1358:	193f012e 	ldmdbne	pc!, {r1, r2, r3, r5, r8}	; <UNPREDICTABLE>
    135c:	0b3a0e03 	bleq	e84b70 <__bss_end__+0xe79d98>
    1360:	0b390b3b 	bleq	e44054 <__bss_end__+0xe3927c>
    1364:	13491927 	movtne	r1, #39207	; 0x9927
    1368:	13010b20 	movwne	r0, #6944	; 0x1b20
    136c:	2e170000 	cdpcs	0, 1, cr0, cr7, cr0, {0}
    1370:	11133101 	tstne	r3, r1, lsl #2
    1374:	40061201 	andmi	r1, r6, r1, lsl #4
    1378:	19429718 	stmdbne	r2, {r3, r4, r8, r9, sl, ip, pc}^
    137c:	00001301 	andeq	r1, r0, r1, lsl #6
    1380:	3f002e18 	svccc	0x00002e18
    1384:	6e193c19 	mrcvs	12, 0, r3, cr9, cr9, {0}
    1388:	3a0e030e 	bcc	381fc8 <__bss_end__+0x3771f0>
    138c:	39053b0b 	stmdbcc	r5, {r0, r1, r3, r8, r9, fp, ip, sp}
    1390:	1900000b 	stmdbne	r0, {r0, r1, r3}
    1394:	193f002e 	ldmdbne	pc!, {r1, r2, r3, r5}	; <UNPREDICTABLE>
    1398:	0e6e193c 			; <UNDEFINED> instruction: 0x0e6e193c
    139c:	0b3a0e03 	bleq	e84bb0 <__bss_end__+0xe79dd8>
    13a0:	0b390b3b 	bleq	e44094 <__bss_end__+0xe392bc>
    13a4:	01000000 	mrseq	r0, (UNDEF: 0)
    13a8:	0e250111 	mcreq	1, 1, r0, cr5, cr1, {0}
    13ac:	0e030b13 	vmoveq.32	d3[0], r0
    13b0:	01110e1b 	tsteq	r1, fp, lsl lr
    13b4:	17100612 			; <UNDEFINED> instruction: 0x17100612
    13b8:	24020000 	strcs	r0, [r2], #-0
    13bc:	3e0b0b00 	vmlacc.f64	d0, d11, d0
    13c0:	0008030b 	andeq	r0, r8, fp, lsl #6
    13c4:	00240300 	eoreq	r0, r4, r0, lsl #6
    13c8:	0b3e0b0b 	bleq	f83ffc <__bss_end__+0xf79224>
    13cc:	00000e03 	andeq	r0, r0, r3, lsl #28
    13d0:	27011504 	strcs	r1, [r1, -r4, lsl #10]
    13d4:	01134919 	tsteq	r3, r9, lsl r9
    13d8:	05000013 	streq	r0, [r0, #-19]	; 0xffffffed
    13dc:	13490005 	movtne	r0, #36869	; 0x9005
    13e0:	34060000 	strcc	r0, [r6], #-0
    13e4:	3a0e0300 	bcc	381fec <__bss_end__+0x377214>
    13e8:	390b3b0b 	stmdbcc	fp, {r0, r1, r3, r8, r9, fp, ip, sp}
    13ec:	3f13490b 	svccc	0x0013490b
    13f0:	00193c19 	andseq	r3, r9, r9, lsl ip
    13f4:	000f0700 	andeq	r0, pc, r0, lsl #14
    13f8:	13490b0b 	movtne	r0, #39691	; 0x9b0b
    13fc:	26080000 	strcs	r0, [r8], -r0
    1400:	00134900 	andseq	r4, r3, r0, lsl #18
    1404:	012e0900 			; <UNDEFINED> instruction: 0x012e0900
    1408:	0e03193f 			; <UNDEFINED> instruction: 0x0e03193f
    140c:	0b3b0b3a 	bleq	ec40fc <__bss_end__+0xeb9324>
    1410:	19270b39 	stmdbne	r7!, {r0, r3, r4, r5, r8, r9, fp}
    1414:	06120111 			; <UNDEFINED> instruction: 0x06120111
    1418:	42971840 	addsmi	r1, r7, #64, 16	; 0x400000
    141c:	00130119 	andseq	r0, r3, r9, lsl r1
    1420:	00050a00 	andeq	r0, r5, r0, lsl #20
    1424:	0b3a0803 	bleq	e83438 <__bss_end__+0xe78660>
    1428:	0b390b3b 	bleq	e4411c <__bss_end__+0xe39344>
    142c:	17021349 	strne	r1, [r2, -r9, asr #6]
    1430:	001742b7 			; <UNDEFINED> instruction: 0x001742b7
    1434:	011d0b00 	tsteq	sp, r0, lsl #22
    1438:	01521331 	cmpeq	r2, r1, lsr r3
    143c:	550b42b8 	strpl	r4, [fp, #-696]	; 0xfffffd48
    1440:	590b5817 	stmdbpl	fp, {r0, r1, r2, r4, fp, ip, lr}
    1444:	000b570b 	andeq	r5, fp, fp, lsl #14
    1448:	00050c00 	andeq	r0, r5, r0, lsl #24
    144c:	17021331 	smladxne	r2, r1, r3, r1
    1450:	001742b7 			; <UNDEFINED> instruction: 0x001742b7
    1454:	011d0d00 	tsteq	sp, r0, lsl #26
    1458:	01521331 	cmpeq	r2, r1, lsr r3
    145c:	110b42b8 			; <UNDEFINED> instruction: 0x110b42b8
    1460:	58061201 	stmdapl	r6, {r0, r9, ip}
    1464:	570b590b 	strpl	r5, [fp, -fp, lsl #18]
    1468:	0e00000b 	cdpeq	0, 0, cr0, cr0, cr11, {0}
    146c:	13310034 	teqne	r1, #52, 0	; 0x34
    1470:	42b71702 	adcsmi	r1, r7, #524288	; 0x80000
    1474:	0f000017 	svceq	0x00000017
    1478:	1331011d 	teqne	r1, #1073741831	; 0x40000007
    147c:	42b80152 	adcsmi	r0, r8, #-2147483628	; 0x80000014
    1480:	1201110b 	andne	r1, r1, #-1073741822	; 0xc0000002
    1484:	590b5806 	stmdbpl	fp, {r1, r2, fp, ip, lr}
    1488:	010b570b 	tsteq	fp, fp, lsl #14
    148c:	10000013 	andne	r0, r0, r3, lsl r0
    1490:	01018289 	smlabbeq	r1, r9, r2, r8
    1494:	13310111 	teqne	r1, #1073741828	; 0x40000004
    1498:	8a110000 	bhi	4414a0 <__bss_end__+0x4366c8>
    149c:	02000182 	andeq	r0, r0, #-2147483616	; 0x80000020
    14a0:	18429118 	stmdane	r2, {r3, r4, r8, ip, pc}^
    14a4:	89120000 	ldmdbhi	r2, {}	; <UNPREDICTABLE>
    14a8:	11000182 	smlabbne	r0, r2, r1, r0
    14ac:	00133101 	andseq	r3, r3, r1, lsl #2
    14b0:	010b1300 	mrseq	r1, (UNDEF: 59)
    14b4:	17551331 	smmlarne	r5, r1, r3, r1
    14b8:	34140000 	ldrcc	r0, [r4], #-0
    14bc:	00133100 	andseq	r3, r3, r0, lsl #2
    14c0:	010b1500 	tsteq	fp, r0, lsl #10
    14c4:	00001755 	andeq	r1, r0, r5, asr r7
    14c8:	31011d16 	tstcc	r1, r6, lsl sp
    14cc:	b8015213 	stmdalt	r1, {r0, r1, r4, r9, ip, lr}
    14d0:	17550b42 	ldrbne	r0, [r5, -r2, asr #22]
    14d4:	0b590b58 	bleq	164423c <__bss_end__+0x1639464>
    14d8:	13010b57 	movwne	r0, #6999	; 0x1b57
    14dc:	2e170000 	cdpcs	0, 1, cr0, cr7, cr0, {0}
    14e0:	03193f01 	tsteq	r9, #1, 30
    14e4:	3b0b3a0e 	blcc	2cfd24 <__bss_end__+0x2c4f4c>
    14e8:	270b390b 	strcs	r3, [fp, -fp, lsl #18]
    14ec:	010b2019 	tsteq	fp, r9, lsl r0
    14f0:	18000013 	stmdane	r0, {r0, r1, r4}
    14f4:	08030005 	stmdaeq	r3, {r0, r2}
    14f8:	0b3b0b3a 	bleq	ec41e8 <__bss_end__+0xeb9410>
    14fc:	13490b39 	movtne	r0, #39737	; 0x9b39
    1500:	34190000 	ldrcc	r0, [r9], #-0
    1504:	3a080300 	bcc	20210c <__bss_end__+0x1f7334>
    1508:	390b3b0b 	stmdbcc	fp, {r0, r1, r3, r8, r9, fp, ip, sp}
    150c:	0013490b 	andseq	r4, r3, fp, lsl #18
    1510:	010b1a00 	tsteq	fp, r0, lsl #20
    1514:	2e1b0000 	cdpcs	0, 1, cr0, cr11, cr0, {0}
    1518:	03193f01 	tsteq	r9, #1, 30
    151c:	3b0b3a0e 	blcc	2cfd5c <__bss_end__+0x2c4f84>
    1520:	270b390b 	strcs	r3, [fp, -fp, lsl #18]
    1524:	20134919 	andscs	r4, r3, r9, lsl r9
    1528:	0013010b 	andseq	r0, r3, fp, lsl #2
    152c:	002e1c00 	eoreq	r1, lr, r0, lsl #24
    1530:	0e03193f 			; <UNDEFINED> instruction: 0x0e03193f
    1534:	0b3b0b3a 	bleq	ec4224 <__bss_end__+0xeb944c>
    1538:	19270b39 	stmdbne	r7!, {r0, r3, r4, r5, r8, r9, fp}
    153c:	0b201349 	bleq	806268 <__bss_end__+0x7fb490>
    1540:	2e1d0000 	cdpcs	0, 1, cr0, cr13, cr0, {0}
    1544:	11133101 	tstne	r3, r1, lsl #2
    1548:	40061201 	andmi	r1, r6, r1, lsl #4
    154c:	19429718 	stmdbne	r2, {r3, r4, r8, r9, sl, ip, pc}^
    1550:	00001301 	andeq	r1, r0, r1, lsl #6
    1554:	0182891e 	orreq	r8, r2, lr, lsl r9
    1558:	95011101 	strls	r1, [r1, #-257]	; 0xfffffeff
    155c:	13311942 	teqne	r1, #1081344	; 0x108000
    1560:	2e1f0000 	cdpcs	0, 1, cr0, cr15, cr0, {0}
    1564:	3c193f00 	ldccc	15, cr3, [r9], {-0}
    1568:	030e6e19 	movweq	r6, #60953	; 0xee19
    156c:	3b0b3a0e 	blcc	2cfdac <__bss_end__+0x2c4fd4>
    1570:	000b390b 	andeq	r3, fp, fp, lsl #18
    1574:	11010000 	mrsne	r0, (UNDEF: 1)
    1578:	130e2501 	movwne	r2, #58625	; 0xe501
    157c:	1b0e030b 	blne	3821b0 <__bss_end__+0x3773d8>
    1580:	1201110e 	andne	r1, r1, #-2147483645	; 0x80000003
    1584:	00171006 	andseq	r1, r7, r6
    1588:	00240200 	eoreq	r0, r4, r0, lsl #4
    158c:	0b3e0b0b 	bleq	f841c0 <__bss_end__+0xf793e8>
    1590:	00000803 	andeq	r0, r0, r3, lsl #16
    1594:	0b002403 	bleq	a5a8 <__FUNCTION__.4058+0x310>
    1598:	030b3e0b 	movweq	r3, #48651	; 0xbe0b
    159c:	0400000e 	streq	r0, [r0], #-14
    15a0:	13490035 	movtne	r0, #36917	; 0x9035
    15a4:	16050000 	strne	r0, [r5], -r0
    15a8:	3a0e0300 	bcc	3821b0 <__bss_end__+0x3773d8>
    15ac:	390b3b0b 	stmdbcc	fp, {r0, r1, r3, r8, r9, fp, ip, sp}
    15b0:	0013490b 	andseq	r4, r3, fp, lsl #18
    15b4:	01040600 	tsteq	r4, r0, lsl #12
    15b8:	0b0b0b3e 	bleq	2c42b8 <__bss_end__+0x2b94e0>
    15bc:	0b3a1349 	bleq	e862e8 <__bss_end__+0xe7b510>
    15c0:	0b390b3b 	bleq	e442b4 <__bss_end__+0xe394dc>
    15c4:	00001301 	andeq	r1, r0, r1, lsl #6
    15c8:	03002807 	movweq	r2, #2055	; 0x807
    15cc:	000b1c0e 	andeq	r1, fp, lr, lsl #24
    15d0:	01130800 	tsteq	r3, r0, lsl #16
    15d4:	0b0b0e03 	bleq	2c4de8 <__bss_end__+0x2ba010>
    15d8:	0b3b0b3a 	bleq	ec42c8 <__bss_end__+0xeb94f0>
    15dc:	13010b39 	movwne	r0, #6969	; 0x1b39
    15e0:	0d090000 	stceq	0, cr0, [r9, #-0]
    15e4:	3a080300 	bcc	2021ec <__bss_end__+0x1f7414>
    15e8:	390b3b0b 	stmdbcc	fp, {r0, r1, r3, r8, r9, fp, ip, sp}
    15ec:	3813490b 	ldmdacc	r3, {r0, r1, r3, r8, fp, lr}
    15f0:	0a00000b 	beq	1624 <__code_start__-0x69dc>
    15f4:	0e03000d 	cdpeq	0, 0, cr0, cr3, cr13, {0}
    15f8:	0b3b0b3a 	bleq	ec42e8 <__bss_end__+0xeb9510>
    15fc:	13490b39 	movtne	r0, #39737	; 0x9b39
    1600:	00000b38 	andeq	r0, r0, r8, lsr fp
    1604:	0300340b 	movweq	r3, #1035	; 0x40b
    1608:	3b0b3a0e 	blcc	2cfe48 <__bss_end__+0x2c5070>
    160c:	490b390b 	stmdbmi	fp, {r0, r1, r3, r8, fp, ip, sp}
    1610:	00061c13 	andeq	r1, r6, r3, lsl ip
    1614:	000f0c00 	andeq	r0, pc, r0, lsl #24
    1618:	13490b0b 	movtne	r0, #39691	; 0x9b0b
    161c:	260d0000 	strcs	r0, [sp], -r0
    1620:	00134900 	andseq	r4, r3, r0, lsl #18
    1624:	012e0e00 			; <UNDEFINED> instruction: 0x012e0e00
    1628:	0e03193f 			; <UNDEFINED> instruction: 0x0e03193f
    162c:	0b3b0b3a 	bleq	ec431c <__bss_end__+0xeb9544>
    1630:	19270b39 	stmdbne	r7!, {r0, r3, r4, r5, r8, r9, fp}
    1634:	06120111 			; <UNDEFINED> instruction: 0x06120111
    1638:	42971840 	addsmi	r1, r7, #64, 16	; 0x400000
    163c:	00130119 	andseq	r0, r3, r9, lsl r1
    1640:	82890f00 	addhi	r0, r9, #0, 30
    1644:	01110001 	tsteq	r1, r1
    1648:	00001331 	andeq	r1, r0, r1, lsr r3
    164c:	3f012e10 	svccc	0x00012e10
    1650:	3a0e0319 	bcc	3822bc <__bss_end__+0x3774e4>
    1654:	390b3b0b 	stmdbcc	fp, {r0, r1, r3, r8, r9, fp, ip, sp}
    1658:	4919270b 	ldmdbmi	r9, {r0, r1, r3, r8, r9, sl, sp}
    165c:	12011113 	andne	r1, r1, #-1073741820	; 0xc0000004
    1660:	97184006 	ldrls	r4, [r8, -r6]
    1664:	13011942 	movwne	r1, #6466	; 0x1942
    1668:	89110000 	ldmdbhi	r1, {}	; <UNPREDICTABLE>
    166c:	11010182 	smlabbne	r1, r2, r1, r0
    1670:	00133101 	andseq	r3, r3, r1, lsl #2
    1674:	828a1200 	addhi	r1, sl, #0, 4
    1678:	18020001 	stmdane	r2, {r0}
    167c:	00184291 	mulseq	r8, r1, r2
    1680:	00051300 	andeq	r1, r5, r0, lsl #6
    1684:	0b3a0803 	bleq	e83698 <__bss_end__+0xe788c0>
    1688:	0b390b3b 	bleq	e4437c <__bss_end__+0xe395a4>
    168c:	17021349 	strne	r1, [r2, -r9, asr #6]
    1690:	001742b7 			; <UNDEFINED> instruction: 0x001742b7
    1694:	82891400 	addhi	r1, r9, #0, 8
    1698:	01110101 	tsteq	r1, r1, lsl #2
    169c:	13011331 	movwne	r1, #4913	; 0x1331
    16a0:	34150000 	ldrcc	r0, [r5], #-0
    16a4:	3a080300 	bcc	2022ac <__bss_end__+0x1f74d4>
    16a8:	390b3b0b 	stmdbcc	fp, {r0, r1, r3, r8, r9, fp, ip, sp}
    16ac:	0213490b 	andseq	r4, r3, #180224	; 0x2c000
    16b0:	1742b717 	smlaldne	fp, r2, r7, r7
    16b4:	34160000 	ldrcc	r0, [r6], #-0
    16b8:	3a0e0300 	bcc	3822c0 <__bss_end__+0x3774e8>
    16bc:	390b3b0b 	stmdbcc	fp, {r0, r1, r3, r8, r9, fp, ip, sp}
    16c0:	1c13490b 			; <UNDEFINED> instruction: 0x1c13490b
    16c4:	17000005 	strne	r0, [r0, -r5]
    16c8:	0e03012e 	adfeqsp	f0, f3, #0.5
    16cc:	0b3b0b3a 	bleq	ec43bc <__bss_end__+0xeb95e4>
    16d0:	19270b39 	stmdbne	r7!, {r0, r3, r4, r5, r8, r9, fp}
    16d4:	06120111 			; <UNDEFINED> instruction: 0x06120111
    16d8:	42971840 	addsmi	r1, r7, #64, 16	; 0x400000
    16dc:	00130119 	andseq	r0, r3, r9, lsl r1
    16e0:	00051800 	andeq	r1, r5, r0, lsl #16
    16e4:	0b3a0e03 	bleq	e84ef8 <__bss_end__+0xe7a120>
    16e8:	0b390b3b 	bleq	e443dc <__bss_end__+0xe39604>
    16ec:	17021349 	strne	r1, [r2, -r9, asr #6]
    16f0:	001742b7 			; <UNDEFINED> instruction: 0x001742b7
    16f4:	00351900 	eorseq	r1, r5, r0, lsl #18
    16f8:	2e1a0000 	cdpcs	0, 1, cr0, cr10, cr0, {0}
    16fc:	3c193f00 	ldccc	15, cr3, [r9], {-0}
    1700:	030e6e19 	movweq	r6, #60953	; 0xee19
    1704:	3b0b3a0e 	blcc	2cff44 <__bss_end__+0x2c516c>
    1708:	000b390b 	andeq	r3, fp, fp, lsl #18
    170c:	11010000 	mrsne	r0, (UNDEF: 1)
    1710:	130e2501 	movwne	r2, #58625	; 0xe501
    1714:	1b0e030b 	blne	382348 <__bss_end__+0x377570>
    1718:	1201110e 	andne	r1, r1, #-2147483645	; 0x80000003
    171c:	00171006 	andseq	r1, r7, r6
    1720:	00240200 	eoreq	r0, r4, r0, lsl #4
    1724:	0b3e0b0b 	bleq	f84358 <__bss_end__+0xf79580>
    1728:	00000803 	andeq	r0, r0, r3, lsl #16
    172c:	0b002403 	bleq	a740 <__FUNCTION__.4112+0x120>
    1730:	030b3e0b 	movweq	r3, #48651	; 0xbe0b
    1734:	0400000e 	streq	r0, [r0], #-14
    1738:	0e030016 	mcreq	0, 0, r0, cr3, cr6, {0}
    173c:	0b3b0b3a 	bleq	ec442c <__bss_end__+0xeb9654>
    1740:	13490b39 	movtne	r0, #39737	; 0x9b39
    1744:	26050000 	strcs	r0, [r5], -r0
    1748:	00134900 	andseq	r4, r3, r0, lsl #18
    174c:	000f0600 	andeq	r0, pc, r0, lsl #12
    1750:	00000b0b 	andeq	r0, r0, fp, lsl #22
    1754:	3e010407 	cdpcc	4, 0, cr0, cr1, cr7, {0}
    1758:	490b0b0b 	stmdbmi	fp, {r0, r1, r3, r8, r9, fp}
    175c:	3b0b3a13 	blcc	2cffb0 <__bss_end__+0x2c51d8>
    1760:	010b390b 	tsteq	fp, fp, lsl #18
    1764:	08000013 	stmdaeq	r0, {r0, r1, r4}
    1768:	0e030028 	cdpeq	0, 0, cr0, cr3, cr8, {1}
    176c:	0000061c 	andeq	r0, r0, ip, lsl r6
    1770:	03003409 	movweq	r3, #1033	; 0x409
    1774:	3b0b3a0e 	blcc	2cffb4 <__bss_end__+0x2c51dc>
    1778:	490b390b 	stmdbmi	fp, {r0, r1, r3, r8, fp, ip, sp}
    177c:	3c193f13 	ldccc	15, cr3, [r9], {19}
    1780:	0a000019 	beq	17ec <__code_start__-0x6814>
    1784:	0e030034 	mcreq	0, 0, r0, cr3, cr4, {1}
    1788:	0b3b0b3a 	bleq	ec4478 <__bss_end__+0xeb96a0>
    178c:	13490b39 	movtne	r0, #39737	; 0x9b39
    1790:	00001802 	andeq	r1, r0, r2, lsl #16
    1794:	0b000f0b 	bleq	53c8 <__code_start__-0x2c38>
    1798:	0013490b 	andseq	r4, r3, fp, lsl #18
    179c:	012e0c00 			; <UNDEFINED> instruction: 0x012e0c00
    17a0:	0e03193f 			; <UNDEFINED> instruction: 0x0e03193f
    17a4:	0b3b0b3a 	bleq	ec4494 <__bss_end__+0xeb96bc>
    17a8:	19270b39 	stmdbne	r7!, {r0, r3, r4, r5, r8, r9, fp}
    17ac:	06120111 			; <UNDEFINED> instruction: 0x06120111
    17b0:	42971840 	addsmi	r1, r7, #64, 16	; 0x400000
    17b4:	00130119 	andseq	r0, r3, r9, lsl r1
    17b8:	00050d00 	andeq	r0, r5, r0, lsl #26
    17bc:	0b3a0803 	bleq	e837d0 <__bss_end__+0xe789f8>
    17c0:	0b390b3b 	bleq	e444b4 <__bss_end__+0xe396dc>
    17c4:	17021349 	strne	r1, [r2, -r9, asr #6]
    17c8:	001742b7 			; <UNDEFINED> instruction: 0x001742b7
    17cc:	00340e00 	eorseq	r0, r4, r0, lsl #28
    17d0:	13490e03 	movtne	r0, #40451	; 0x9e03
    17d4:	18021934 	stmdane	r2, {r2, r4, r5, r8, fp, ip}
    17d8:	890f0000 	stmdbhi	pc, {}	; <UNPREDICTABLE>
    17dc:	11010182 	smlabbne	r1, r2, r1, r0
    17e0:	01133101 	tsteq	r3, r1, lsl #2
    17e4:	10000013 	andne	r0, r0, r3, lsl r0
    17e8:	0001828a 	andeq	r8, r1, sl, lsl #5
    17ec:	42911802 	addsmi	r1, r1, #131072	; 0x20000
    17f0:	11000018 	tstne	r0, r8, lsl r0
    17f4:	00018289 	andeq	r8, r1, r9, lsl #5
    17f8:	13310111 	teqne	r1, #1073741828	; 0x40000004
    17fc:	01120000 	tsteq	r2, r0
    1800:	01134901 	tsteq	r3, r1, lsl #18
    1804:	13000013 	movwne	r0, #19
    1808:	13490021 	movtne	r0, #36897	; 0x9021
    180c:	00000b2f 	andeq	r0, r0, pc, lsr #22
    1810:	3f002e14 	svccc	0x00002e14
    1814:	3a0e0319 	bcc	382480 <__bss_end__+0x3776a8>
    1818:	390b3b0b 	stmdbcc	fp, {r0, r1, r3, r8, r9, fp, ip, sp}
    181c:	1119270b 	tstne	r9, fp, lsl #14
    1820:	40061201 	andmi	r1, r6, r1, lsl #4
    1824:	19429718 	stmdbne	r2, {r3, r4, r8, r9, sl, ip, pc}^
    1828:	05150000 	ldreq	r0, [r5, #-0]
    182c:	3a080300 	bcc	202434 <__bss_end__+0x1f765c>
    1830:	390b3b0b 	stmdbcc	fp, {r0, r1, r3, r8, r9, fp, ip, sp}
    1834:	0213490b 	andseq	r4, r3, #180224	; 0x2c000
    1838:	16000018 			; <UNDEFINED> instruction: 0x16000018
    183c:	193f012e 	ldmdbne	pc!, {r1, r2, r3, r5, r8}	; <UNPREDICTABLE>
    1840:	0b3a0e03 	bleq	e85054 <__bss_end__+0xe7a27c>
    1844:	0b390b3b 	bleq	e44538 <__bss_end__+0xe39760>
    1848:	13491927 	movtne	r1, #39207	; 0x9927
    184c:	06120111 			; <UNDEFINED> instruction: 0x06120111
    1850:	42971840 	addsmi	r1, r7, #64, 16	; 0x400000
    1854:	00130119 	andseq	r0, r3, r9, lsl r1
    1858:	00051700 	andeq	r1, r5, r0, lsl #14
    185c:	0b3a0e03 	bleq	e85070 <__bss_end__+0xe7a298>
    1860:	0b390b3b 	bleq	e44554 <__bss_end__+0xe3977c>
    1864:	17021349 	strne	r1, [r2, -r9, asr #6]
    1868:	001742b7 			; <UNDEFINED> instruction: 0x001742b7
    186c:	00341800 	eorseq	r1, r4, r0, lsl #16
    1870:	0b3a0803 	bleq	e83884 <__bss_end__+0xe78aac>
    1874:	0b390b3b 	bleq	e44568 <__bss_end__+0xe39790>
    1878:	17021349 	strne	r1, [r2, -r9, asr #6]
    187c:	001742b7 			; <UNDEFINED> instruction: 0x001742b7
    1880:	011d1900 	tsteq	sp, r0, lsl #18
    1884:	01521331 	cmpeq	r2, r1, lsr r3
    1888:	110b42b8 			; <UNDEFINED> instruction: 0x110b42b8
    188c:	58061201 	stmdapl	r6, {r0, r9, ip}
    1890:	570b590b 	strpl	r5, [fp, -fp, lsl #18]
    1894:	0013010b 	andseq	r0, r3, fp, lsl #2
    1898:	00051a00 	andeq	r1, r5, r0, lsl #20
    189c:	17021331 	smladxne	r2, r1, r3, r1
    18a0:	001742b7 			; <UNDEFINED> instruction: 0x001742b7
    18a4:	011d1b00 	tsteq	sp, r0, lsl #22
    18a8:	01521331 	cmpeq	r2, r1, lsr r3
    18ac:	550b42b8 	strpl	r4, [fp, #-696]	; 0xfffffd48
    18b0:	590b5817 	stmdbpl	fp, {r0, r1, r2, r4, fp, ip, lr}
    18b4:	010b570b 	tsteq	fp, fp, lsl #14
    18b8:	1c000013 	stcne	0, cr0, [r0], {19}
    18bc:	1755010b 	ldrbne	r0, [r5, -fp, lsl #2]
    18c0:	341d0000 	ldrcc	r0, [sp], #-0
    18c4:	3a0e0300 	bcc	3824cc <__bss_end__+0x3776f4>
    18c8:	390b3b0b 	stmdbcc	fp, {r0, r1, r3, r8, r9, fp, ip, sp}
    18cc:	0213490b 	andseq	r4, r3, #180224	; 0x2c000
    18d0:	1742b717 	smlaldne	fp, r2, r7, r7
    18d4:	0b1e0000 	bleq	7818dc <__bss_end__+0x776b04>
    18d8:	00175500 	andseq	r5, r7, r0, lsl #10
    18dc:	002e1f00 	eoreq	r1, lr, r0, lsl #30
    18e0:	0e03193f 			; <UNDEFINED> instruction: 0x0e03193f
    18e4:	0b3b0b3a 	bleq	ec45d4 <__bss_end__+0xeb97fc>
    18e8:	19270b39 	stmdbne	r7!, {r0, r3, r4, r5, r8, r9, fp}
    18ec:	01111349 	tsteq	r1, r9, asr #6
    18f0:	18400612 	stmdane	r0, {r1, r4, r9, sl}^
    18f4:	00194297 	mulseq	r9, r7, r2
    18f8:	012e2000 			; <UNDEFINED> instruction: 0x012e2000
    18fc:	0b3a0e03 	bleq	e85110 <__bss_end__+0xe7a338>
    1900:	0b390b3b 	bleq	e445f4 <__bss_end__+0xe3981c>
    1904:	13491927 	movtne	r1, #39207	; 0x9927
    1908:	13010b20 	movwne	r0, #6944	; 0x1b20
    190c:	05210000 	streq	r0, [r1, #-0]!
    1910:	3a080300 	bcc	202518 <__bss_end__+0x1f7740>
    1914:	390b3b0b 	stmdbcc	fp, {r0, r1, r3, r8, r9, fp, ip, sp}
    1918:	0013490b 	andseq	r4, r3, fp, lsl #18
    191c:	002e2200 	eoreq	r2, lr, r0, lsl #4
    1920:	193c193f 	ldmdbne	ip!, {r0, r1, r2, r3, r4, r5, r8, fp, ip}
    1924:	0e030e6e 	cdpeq	14, 0, cr0, cr3, cr14, {3}
    1928:	0b3b0b3a 	bleq	ec4618 <__bss_end__+0xeb9840>
    192c:	00000b39 	andeq	r0, r0, r9, lsr fp
    1930:	01110100 	tsteq	r1, r0, lsl #2
    1934:	0b130e25 	bleq	4c51d0 <__bss_end__+0x4ba3f8>
    1938:	0e1b0e03 	cdpeq	14, 1, cr0, cr11, cr3, {0}
    193c:	06120111 			; <UNDEFINED> instruction: 0x06120111
    1940:	00001710 	andeq	r1, r0, r0, lsl r7
    1944:	0b002402 	bleq	a954 <__FUNCTION__.5+0x4>
    1948:	030b3e0b 	movweq	r3, #48651	; 0xbe0b
    194c:	0300000e 	movweq	r0, #14
    1950:	0b0b0024 	bleq	2c19e8 <__bss_end__+0x2b6c10>
    1954:	08030b3e 	stmdaeq	r3, {r1, r2, r3, r4, r5, r8, r9, fp}
    1958:	26040000 	strcs	r0, [r4], -r0
    195c:	00134900 	andseq	r4, r3, r0, lsl #18
    1960:	00160500 	andseq	r0, r6, r0, lsl #10
    1964:	0b3a0e03 	bleq	e85178 <__bss_end__+0xe7a3a0>
    1968:	0b390b3b 	bleq	e4465c <__bss_end__+0xe39884>
    196c:	00001349 	andeq	r1, r0, r9, asr #6
    1970:	27011506 	strcs	r1, [r1, -r6, lsl #10]
    1974:	01134919 	tsteq	r3, r9, lsl r9
    1978:	07000013 	smladeq	r0, r3, r0, r0
    197c:	13490005 	movtne	r0, #36869	; 0x9005
    1980:	34080000 	strcc	r0, [r8], #-0
    1984:	3a0e0300 	bcc	38258c <__bss_end__+0x3777b4>
    1988:	390b3b0b 	stmdbcc	fp, {r0, r1, r3, r8, r9, fp, ip, sp}
    198c:	3f13490b 	svccc	0x0013490b
    1990:	00193c19 	andseq	r3, r9, r9, lsl ip
    1994:	000f0900 	andeq	r0, pc, r0, lsl #18
    1998:	13490b0b 	movtne	r0, #39691	; 0x9b0b
    199c:	040a0000 	streq	r0, [sl], #-0
    19a0:	0b0b3e01 	bleq	2d11ac <__bss_end__+0x2c63d4>
    19a4:	3a13490b 	bcc	4d3dd8 <__bss_end__+0x4c9000>
    19a8:	390b3b0b 	stmdbcc	fp, {r0, r1, r3, r8, r9, fp, ip, sp}
    19ac:	0013010b 	andseq	r0, r3, fp, lsl #2
    19b0:	00280b00 	eoreq	r0, r8, r0, lsl #22
    19b4:	0b1c0e03 	bleq	7051c8 <__bss_end__+0x6fa3f0>
    19b8:	340c0000 	strcc	r0, [ip], #-0
    19bc:	3a0e0300 	bcc	3825c4 <__bss_end__+0x3777ec>
    19c0:	390b3b0b 	stmdbcc	fp, {r0, r1, r3, r8, r9, fp, ip, sp}
    19c4:	1c13490b 			; <UNDEFINED> instruction: 0x1c13490b
    19c8:	0d000006 	stceq	0, cr0, [r0, #-24]	; 0xffffffe8
    19cc:	193f012e 	ldmdbne	pc!, {r1, r2, r3, r5, r8}	; <UNPREDICTABLE>
    19d0:	0b3a0e03 	bleq	e851e4 <__bss_end__+0xe7a40c>
    19d4:	0b390b3b 	bleq	e446c8 <__bss_end__+0xe398f0>
    19d8:	13491927 	movtne	r1, #39207	; 0x9927
    19dc:	06120111 			; <UNDEFINED> instruction: 0x06120111
    19e0:	42971840 	addsmi	r1, r7, #64, 16	; 0x400000
    19e4:	00130119 	andseq	r0, r3, r9, lsl r1
    19e8:	00050e00 	andeq	r0, r5, r0, lsl #28
    19ec:	0b3a0803 	bleq	e83a00 <__bss_end__+0xe78c28>
    19f0:	0b390b3b 	bleq	e446e4 <__bss_end__+0xe3990c>
    19f4:	17021349 	strne	r1, [r2, -r9, asr #6]
    19f8:	001742b7 			; <UNDEFINED> instruction: 0x001742b7
    19fc:	00340f00 	eorseq	r0, r4, r0, lsl #30
    1a00:	0b3a0e03 	bleq	e85214 <__bss_end__+0xe7a43c>
    1a04:	0b390b3b 	bleq	e446f8 <__bss_end__+0xe39920>
    1a08:	17021349 	strne	r1, [r2, -r9, asr #6]
    1a0c:	001742b7 			; <UNDEFINED> instruction: 0x001742b7
    1a10:	00341000 	eorseq	r1, r4, r0
    1a14:	0b3a0803 	bleq	e83a28 <__bss_end__+0xe78c50>
    1a18:	0b390b3b 	bleq	e4470c <__bss_end__+0xe39934>
    1a1c:	17021349 	strne	r1, [r2, -r9, asr #6]
    1a20:	001742b7 			; <UNDEFINED> instruction: 0x001742b7
    1a24:	82891100 	addhi	r1, r9, #0
    1a28:	01110101 	tsteq	r1, r1, lsl #2
    1a2c:	00001331 	andeq	r1, r0, r1, lsr r3
    1a30:	01828a12 	orreq	r8, r2, r2, lsl sl
    1a34:	91180200 	tstls	r8, r0, lsl #4
    1a38:	00001842 	andeq	r1, r0, r2, asr #16
    1a3c:	3f012e13 	svccc	0x00012e13
    1a40:	3a0e0319 	bcc	3826ac <__bss_end__+0x3778d4>
    1a44:	390b3b0b 	stmdbcc	fp, {r0, r1, r3, r8, r9, fp, ip, sp}
    1a48:	1119270b 	tstne	r9, fp, lsl #14
    1a4c:	40061201 	andmi	r1, r6, r1, lsl #4
    1a50:	19429718 	stmdbne	r2, {r3, r4, r8, r9, sl, ip, pc}^
    1a54:	00001301 	andeq	r1, r0, r1, lsl #6
    1a58:	31011d14 	tstcc	r1, r4, lsl sp
    1a5c:	b8015213 	stmdalt	r1, {r0, r1, r4, r9, ip, lr}
    1a60:	17550b42 	ldrbne	r0, [r5, -r2, asr #22]
    1a64:	0b590b58 	bleq	16447cc <__bss_end__+0x16399f4>
    1a68:	13010b57 	movwne	r0, #6999	; 0x1b57
    1a6c:	05150000 	ldreq	r0, [r5, #-0]
    1a70:	02133100 	andseq	r3, r3, #0
    1a74:	1742b717 	smlaldne	fp, r2, r7, r7
    1a78:	89160000 	ldmdbhi	r6, {}	; <UNPREDICTABLE>
    1a7c:	11010182 	smlabbne	r1, r2, r1, r0
    1a80:	19429501 	stmdbne	r2, {r0, r8, sl, ip, pc}^
    1a84:	00001331 	andeq	r1, r0, r1, lsr r3
    1a88:	31011d17 	tstcc	r1, r7, lsl sp
    1a8c:	b8015213 	stmdalt	r1, {r0, r1, r4, r9, ip, lr}
    1a90:	01110b42 	tsteq	r1, r2, asr #22
    1a94:	0b580612 	bleq	16032e4 <__bss_end__+0x15f850c>
    1a98:	0b570b59 	bleq	15c4804 <__bss_end__+0x15b9a2c>
    1a9c:	1d180000 	ldcne	0, cr0, [r8, #-0]
    1aa0:	52133101 	andspl	r3, r3, #1073741824	; 0x40000000
    1aa4:	0b42b801 	bleq	10afab0 <__bss_end__+0x10a4cd8>
    1aa8:	0b581755 	bleq	1607804 <__bss_end__+0x15fca2c>
    1aac:	0b570b59 	bleq	15c4818 <__bss_end__+0x15b9a40>
    1ab0:	05190000 	ldreq	r0, [r9, #-0]
    1ab4:	1c133100 	ldfnes	f3, [r3], {-0}
    1ab8:	1a00000b 	bne	1aec <__code_start__-0x6514>
    1abc:	1755010b 	ldrbne	r0, [r5, -fp, lsl #2]
    1ac0:	341b0000 	ldrcc	r0, [fp], #-0
    1ac4:	00133100 	andseq	r3, r3, r0, lsl #2
    1ac8:	00341c00 	eorseq	r1, r4, r0, lsl #24
    1acc:	17021331 	smladxne	r2, r1, r3, r1
    1ad0:	001742b7 			; <UNDEFINED> instruction: 0x001742b7
    1ad4:	82891d00 	addhi	r1, r9, #0, 26
    1ad8:	01110101 	tsteq	r1, r1, lsl #2
    1adc:	13011331 	movwne	r1, #4913	; 0x1331
    1ae0:	2e1e0000 	cdpcs	0, 1, cr0, cr14, cr0, {0}
    1ae4:	03193f01 	tsteq	r9, #1, 30
    1ae8:	3b0b3a0e 	blcc	2d0328 <__bss_end__+0x2c5550>
    1aec:	270b390b 	strcs	r3, [fp, -fp, lsl #18]
    1af0:	010b2019 	tsteq	fp, r9, lsl r0
    1af4:	1f000013 	svcne	0x00000013
    1af8:	08030005 	stmdaeq	r3, {r0, r2}
    1afc:	0b3b0b3a 	bleq	ec47ec <__bss_end__+0xeb9a14>
    1b00:	13490b39 	movtne	r0, #39737	; 0x9b39
    1b04:	05200000 	streq	r0, [r0, #-0]!
    1b08:	3a0e0300 	bcc	382710 <__bss_end__+0x377938>
    1b0c:	390b3b0b 	stmdbcc	fp, {r0, r1, r3, r8, r9, fp, ip, sp}
    1b10:	0013490b 	andseq	r4, r3, fp, lsl #18
    1b14:	00342100 	eorseq	r2, r4, r0, lsl #2
    1b18:	0b3a0803 	bleq	e83b2c <__bss_end__+0xe78d54>
    1b1c:	0b390b3b 	bleq	e44810 <__bss_end__+0xe39a38>
    1b20:	00001349 	andeq	r1, r0, r9, asr #6
    1b24:	03012e22 	movweq	r2, #7714	; 0x1e22
    1b28:	3b0b3a0e 	blcc	2d0368 <__bss_end__+0x2c5590>
    1b2c:	270b390b 	strcs	r3, [fp, -fp, lsl #18]
    1b30:	20134919 	andscs	r4, r3, r9, lsl r9
    1b34:	0013010b 	andseq	r0, r3, fp, lsl #2
    1b38:	012e2300 			; <UNDEFINED> instruction: 0x012e2300
    1b3c:	01111331 	tsteq	r1, r1, lsr r3
    1b40:	18400612 	stmdane	r0, {r1, r4, r9, sl}^
    1b44:	01194297 			; <UNDEFINED> instruction: 0x01194297
    1b48:	24000013 	strcs	r0, [r0], #-19	; 0xffffffed
    1b4c:	193f002e 	ldmdbne	pc!, {r1, r2, r3, r5}	; <UNPREDICTABLE>
    1b50:	0e6e193c 			; <UNDEFINED> instruction: 0x0e6e193c
    1b54:	0b3a0e03 	bleq	e85368 <__bss_end__+0xe7a590>
    1b58:	0b390b3b 	bleq	e4484c <__bss_end__+0xe39a74>
    1b5c:	01000000 	mrseq	r0, (UNDEF: 0)
    1b60:	0e250111 	mcreq	1, 1, r0, cr5, cr1, {0}
    1b64:	0e030b13 	vmoveq.32	d3[0], r0
    1b68:	01110e1b 	tsteq	r1, fp, lsl lr
    1b6c:	17100612 			; <UNDEFINED> instruction: 0x17100612
    1b70:	24020000 	strcs	r0, [r2], #-0
    1b74:	3e0b0b00 	vmlacc.f64	d0, d11, d0
    1b78:	0008030b 	andeq	r0, r8, fp, lsl #6
    1b7c:	00240300 	eoreq	r0, r4, r0, lsl #6
    1b80:	0b3e0b0b 	bleq	f847b4 <__bss_end__+0xf799dc>
    1b84:	00000e03 	andeq	r0, r0, r3, lsl #28
    1b88:	27011504 	strcs	r1, [r1, -r4, lsl #10]
    1b8c:	01134919 	tsteq	r3, r9, lsl r9
    1b90:	05000013 	streq	r0, [r0, #-19]	; 0xffffffed
    1b94:	13490005 	movtne	r0, #36869	; 0x9005
    1b98:	34060000 	strcc	r0, [r6], #-0
    1b9c:	3a0e0300 	bcc	3827a4 <__bss_end__+0x3779cc>
    1ba0:	390b3b0b 	stmdbcc	fp, {r0, r1, r3, r8, r9, fp, ip, sp}
    1ba4:	3f13490b 	svccc	0x0013490b
    1ba8:	00193c19 	andseq	r3, r9, r9, lsl ip
    1bac:	000f0700 	andeq	r0, pc, r0, lsl #14
    1bb0:	13490b0b 	movtne	r0, #39691	; 0x9b0b
    1bb4:	26080000 	strcs	r0, [r8], -r0
    1bb8:	00134900 	andseq	r4, r3, r0, lsl #18
    1bbc:	00340900 	eorseq	r0, r4, r0, lsl #18
    1bc0:	0b3a1347 	bleq	e868e4 <__bss_end__+0xe7bb0c>
    1bc4:	0b390b3b 	bleq	e448b8 <__bss_end__+0xe39ae0>
    1bc8:	00001802 	andeq	r1, r0, r2, lsl #16
    1bcc:	3f012e0a 	svccc	0x00012e0a
    1bd0:	3a0e0319 	bcc	38283c <__bss_end__+0x377a64>
    1bd4:	390b3b0b 	stmdbcc	fp, {r0, r1, r3, r8, r9, fp, ip, sp}
    1bd8:	1119270b 	tstne	r9, fp, lsl #14
    1bdc:	40061201 	andmi	r1, r6, r1, lsl #4
    1be0:	19429718 	stmdbne	r2, {r3, r4, r8, r9, sl, ip, pc}^
    1be4:	00001301 	andeq	r1, r0, r1, lsl #6
    1be8:	0300050b 	movweq	r0, #1291	; 0x50b
    1bec:	3b0b3a08 	blcc	2d0414 <__bss_end__+0x2c563c>
    1bf0:	490b390b 	stmdbmi	fp, {r0, r1, r3, r8, fp, ip, sp}
    1bf4:	00180213 	andseq	r0, r8, r3, lsl r2
    1bf8:	002e0c00 	eoreq	r0, lr, r0, lsl #24
    1bfc:	0e03193f 			; <UNDEFINED> instruction: 0x0e03193f
    1c00:	0b3b0b3a 	bleq	ec48f0 <__bss_end__+0xeb9b18>
    1c04:	19270b39 	stmdbne	r7!, {r0, r3, r4, r5, r8, r9, fp}
    1c08:	06120111 			; <UNDEFINED> instruction: 0x06120111
    1c0c:	42971840 	addsmi	r1, r7, #64, 16	; 0x400000
    1c10:	0d000019 	stceq	0, cr0, [r0, #-100]	; 0xffffff9c
    1c14:	0e03012e 	adfeqsp	f0, f3, #0.5
    1c18:	0b3b0b3a 	bleq	ec4908 <__bss_end__+0xeb9b30>
    1c1c:	19270b39 	stmdbne	r7!, {r0, r3, r4, r5, r8, r9, fp}
    1c20:	01111349 	tsteq	r1, r9, asr #6
    1c24:	18400612 	stmdane	r0, {r1, r4, r9, sl}^
    1c28:	01194297 			; <UNDEFINED> instruction: 0x01194297
    1c2c:	0e000013 	mcreq	0, 0, r0, cr0, cr3, {0}
    1c30:	08030005 	stmdaeq	r3, {r0, r2}
    1c34:	0b3b0b3a 	bleq	ec4924 <__bss_end__+0xeb9b4c>
    1c38:	13490b39 	movtne	r0, #39737	; 0x9b39
    1c3c:	42b71702 	adcsmi	r1, r7, #524288	; 0x80000
    1c40:	0f000017 	svceq	0x00000017
    1c44:	01018289 	smlabbeq	r1, r9, r2, r8
    1c48:	13310111 	teqne	r1, #1073741828	; 0x40000004
    1c4c:	8a100000 	bhi	401c54 <__bss_end__+0x3f6e7c>
    1c50:	02000182 	andeq	r0, r0, #-2147483616	; 0x80000020
    1c54:	18429118 	stmdane	r2, {r3, r4, r8, ip, pc}^
    1c58:	2e110000 	cdpcs	0, 1, cr0, cr1, cr0, {0}
    1c5c:	3c193f00 	ldccc	15, cr3, [r9], {-0}
    1c60:	030e6e19 	movweq	r6, #60953	; 0xee19
    1c64:	3b0b3a0e 	blcc	2d04a4 <__bss_end__+0x2c56cc>
    1c68:	000b390b 	andeq	r3, fp, fp, lsl #18
    1c6c:	11010000 	mrsne	r0, (UNDEF: 1)
    1c70:	130e2501 	movwne	r2, #58625	; 0xe501
    1c74:	1b0e030b 	blne	3828a8 <__bss_end__+0x377ad0>
    1c78:	1201110e 	andne	r1, r1, #-2147483645	; 0x80000003
    1c7c:	00171006 	andseq	r1, r7, r6
    1c80:	00240200 	eoreq	r0, r4, r0, lsl #4
    1c84:	0b3e0b0b 	bleq	f848b8 <__bss_end__+0xf79ae0>
    1c88:	00000803 	andeq	r0, r0, r3, lsl #16
    1c8c:	0b002403 	bleq	aca0 <buf.3944+0x2cc>
    1c90:	030b3e0b 	movweq	r3, #48651	; 0xbe0b
    1c94:	0400000e 	streq	r0, [r0], #-14
    1c98:	19270115 	stmdbne	r7!, {r0, r2, r4, r8}
    1c9c:	13011349 	movwne	r1, #4937	; 0x1349
    1ca0:	05050000 	streq	r0, [r5, #-0]
    1ca4:	00134900 	andseq	r4, r3, r0, lsl #18
    1ca8:	00340600 	eorseq	r0, r4, r0, lsl #12
    1cac:	0b3a0e03 	bleq	e854c0 <__bss_end__+0xe7a6e8>
    1cb0:	0b390b3b 	bleq	e449a4 <__bss_end__+0xe39bcc>
    1cb4:	193f1349 	ldmdbne	pc!, {r0, r3, r6, r8, r9, ip}	; <UNPREDICTABLE>
    1cb8:	0000193c 	andeq	r1, r0, ip, lsr r9
    1cbc:	0b000f07 	bleq	58e0 <__code_start__-0x2720>
    1cc0:	0013490b 	andseq	r4, r3, fp, lsl #18
    1cc4:	00260800 	eoreq	r0, r6, r0, lsl #16
    1cc8:	00001349 	andeq	r1, r0, r9, asr #6
    1ccc:	3f012e09 	svccc	0x00012e09
    1cd0:	3a0e0319 	bcc	38293c <__bss_end__+0x377b64>
    1cd4:	390b3b0b 	stmdbcc	fp, {r0, r1, r3, r8, r9, fp, ip, sp}
    1cd8:	4919270b 	ldmdbmi	r9, {r0, r1, r3, r8, r9, sl, sp}
    1cdc:	12011113 	andne	r1, r1, #-1073741820	; 0xc0000004
    1ce0:	97184006 	ldrls	r4, [r8, -r6]
    1ce4:	13011942 	movwne	r1, #6466	; 0x1942
    1ce8:	050a0000 	streq	r0, [sl, #-0]
    1cec:	3a0e0300 	bcc	3828f4 <__bss_end__+0x377b1c>
    1cf0:	390b3b0b 	stmdbcc	fp, {r0, r1, r3, r8, r9, fp, ip, sp}
    1cf4:	0213490b 	andseq	r4, r3, #180224	; 0x2c000
    1cf8:	0b000018 	bleq	1d60 <__code_start__-0x62a0>
    1cfc:	08030005 	stmdaeq	r3, {r0, r2}
    1d00:	0b3b0b3a 	bleq	ec49f0 <__bss_end__+0xeb9c18>
    1d04:	13490b39 	movtne	r0, #39737	; 0x9b39
    1d08:	42b71702 	adcsmi	r1, r7, #524288	; 0x80000
    1d0c:	0c000017 	stceq	0, cr0, [r0], {23}
    1d10:	08030034 	stmdaeq	r3, {r2, r4, r5}
    1d14:	0b3b0b3a 	bleq	ec4a04 <__bss_end__+0xeb9c2c>
    1d18:	13490b39 	movtne	r0, #39737	; 0x9b39
    1d1c:	42b71702 	adcsmi	r1, r7, #524288	; 0x80000
    1d20:	00000017 	andeq	r0, r0, r7, lsl r0
    1d24:	25011101 	strcs	r1, [r1, #-257]	; 0xfffffeff
    1d28:	030b130e 	movweq	r1, #45838	; 0xb30e
    1d2c:	110e1b0e 	tstne	lr, lr, lsl #22
    1d30:	10061201 	andne	r1, r6, r1, lsl #4
    1d34:	02000017 	andeq	r0, r0, #23, 0
    1d38:	0b0b0024 	bleq	2c1dd0 <__bss_end__+0x2b6ff8>
    1d3c:	08030b3e 	stmdaeq	r3, {r1, r2, r3, r4, r5, r8, r9, fp}
    1d40:	24030000 	strcs	r0, [r3], #-0
    1d44:	3e0b0b00 	vmlacc.f64	d0, d11, d0
    1d48:	000e030b 	andeq	r0, lr, fp, lsl #6
    1d4c:	01150400 	tsteq	r5, r0, lsl #8
    1d50:	13491927 	movtne	r1, #39207	; 0x9927
    1d54:	00001301 	andeq	r1, r0, r1, lsl #6
    1d58:	49000505 	stmdbmi	r0, {r0, r2, r8, sl}
    1d5c:	06000013 			; <UNDEFINED> instruction: 0x06000013
    1d60:	0e030034 	mcreq	0, 0, r0, cr3, cr4, {1}
    1d64:	0b3b0b3a 	bleq	ec4a54 <__bss_end__+0xeb9c7c>
    1d68:	13490b39 	movtne	r0, #39737	; 0x9b39
    1d6c:	193c193f 	ldmdbne	ip!, {r0, r1, r2, r3, r4, r5, r8, fp, ip}
    1d70:	0f070000 	svceq	0x00070000
    1d74:	490b0b00 	stmdbmi	fp, {r8, r9, fp}
    1d78:	08000013 	stmdaeq	r0, {r0, r1, r4}
    1d7c:	13490026 	movtne	r0, #36902	; 0x9026
    1d80:	2e090000 	cdpcs	0, 0, cr0, cr9, cr0, {0}
    1d84:	03193f01 	tsteq	r9, #1, 30
    1d88:	3b0b3a0e 	blcc	2d05c8 <__bss_end__+0x2c57f0>
    1d8c:	270b390b 	strcs	r3, [fp, -fp, lsl #18]
    1d90:	11134919 	tstne	r3, r9, lsl r9
    1d94:	40061201 	andmi	r1, r6, r1, lsl #4
    1d98:	19429718 	stmdbne	r2, {r3, r4, r8, r9, sl, ip, pc}^
    1d9c:	050a0000 	streq	r0, [sl, #-0]
    1da0:	3a080300 	bcc	2029a8 <__bss_end__+0x1f7bd0>
    1da4:	390b3b0b 	stmdbcc	fp, {r0, r1, r3, r8, r9, fp, ip, sp}
    1da8:	0213490b 	andseq	r4, r3, #180224	; 0x2c000
    1dac:	1742b717 	smlaldne	fp, r2, r7, r7
    1db0:	01000000 	mrseq	r0, (UNDEF: 0)
    1db4:	0e250111 	mcreq	1, 1, r0, cr5, cr1, {0}
    1db8:	0e030b13 	vmoveq.32	d3[0], r0
    1dbc:	01110e1b 	tsteq	r1, fp, lsl lr
    1dc0:	17100612 			; <UNDEFINED> instruction: 0x17100612
    1dc4:	24020000 	strcs	r0, [r2], #-0
    1dc8:	3e0b0b00 	vmlacc.f64	d0, d11, d0
    1dcc:	0008030b 	andeq	r0, r8, fp, lsl #6
    1dd0:	00240300 	eoreq	r0, r4, r0, lsl #6
    1dd4:	0b3e0b0b 	bleq	f84a08 <__bss_end__+0xf79c30>
    1dd8:	00000e03 	andeq	r0, r0, r3, lsl #28
    1ddc:	27011504 	strcs	r1, [r1, -r4, lsl #10]
    1de0:	01134919 	tsteq	r3, r9, lsl r9
    1de4:	05000013 	streq	r0, [r0, #-19]	; 0xffffffed
    1de8:	13490005 	movtne	r0, #36869	; 0x9005
    1dec:	34060000 	strcc	r0, [r6], #-0
    1df0:	3a0e0300 	bcc	3829f8 <__bss_end__+0x377c20>
    1df4:	390b3b0b 	stmdbcc	fp, {r0, r1, r3, r8, r9, fp, ip, sp}
    1df8:	3f13490b 	svccc	0x0013490b
    1dfc:	00193c19 	andseq	r3, r9, r9, lsl ip
    1e00:	000f0700 	andeq	r0, pc, r0, lsl #14
    1e04:	13490b0b 	movtne	r0, #39691	; 0x9b0b
    1e08:	26080000 	strcs	r0, [r8], -r0
    1e0c:	00134900 	andseq	r4, r3, r0, lsl #18
    1e10:	012e0900 			; <UNDEFINED> instruction: 0x012e0900
    1e14:	0e03193f 			; <UNDEFINED> instruction: 0x0e03193f
    1e18:	0b3b0b3a 	bleq	ec4b08 <__bss_end__+0xeb9d30>
    1e1c:	19270b39 	stmdbne	r7!, {r0, r3, r4, r5, r8, r9, fp}
    1e20:	01111349 	tsteq	r1, r9, asr #6
    1e24:	18400612 	stmdane	r0, {r1, r4, r9, sl}^
    1e28:	01194297 			; <UNDEFINED> instruction: 0x01194297
    1e2c:	0a000013 	beq	1e80 <__code_start__-0x6180>
    1e30:	08030005 	stmdaeq	r3, {r0, r2}
    1e34:	0b3b0b3a 	bleq	ec4b24 <__bss_end__+0xeb9d4c>
    1e38:	13490b39 	movtne	r0, #39737	; 0x9b39
    1e3c:	00001802 	andeq	r1, r0, r2, lsl #16
    1e40:	0300050b 	movweq	r0, #1291	; 0x50b
    1e44:	3b0b3a08 	blcc	2d066c <__bss_end__+0x2c5894>
    1e48:	490b390b 	stmdbmi	fp, {r0, r1, r3, r8, fp, ip, sp}
    1e4c:	b7170213 			; <UNDEFINED> instruction: 0xb7170213
    1e50:	00001742 	andeq	r1, r0, r2, asr #14
    1e54:	0300340c 	movweq	r3, #1036	; 0x40c
    1e58:	3b0b3a08 	blcc	2d0680 <__bss_end__+0x2c58a8>
    1e5c:	490b390b 	stmdbmi	fp, {r0, r1, r3, r8, fp, ip, sp}
    1e60:	b7170213 			; <UNDEFINED> instruction: 0xb7170213
    1e64:	00001742 	andeq	r1, r0, r2, asr #14
    1e68:	01110100 	tsteq	r1, r0, lsl #2
    1e6c:	0b130e25 	bleq	4c5708 <__bss_end__+0x4ba930>
    1e70:	0e1b0e03 	cdpeq	14, 1, cr0, cr11, cr3, {0}
    1e74:	06120111 			; <UNDEFINED> instruction: 0x06120111
    1e78:	00001710 	andeq	r1, r0, r0, lsl r7
    1e7c:	0b002402 	bleq	ae8c <__bss_end__+0xb4>
    1e80:	030b3e0b 	movweq	r3, #48651	; 0xbe0b
    1e84:	03000008 	movweq	r0, #8
    1e88:	0e030016 	mcreq	0, 0, r0, cr3, cr6, {0}
    1e8c:	0b3b0b3a 	bleq	ec4b7c <__bss_end__+0xeb9da4>
    1e90:	13490b39 	movtne	r0, #39737	; 0x9b39
    1e94:	24040000 	strcs	r0, [r4], #-0
    1e98:	3e0b0b00 	vmlacc.f64	d0, d11, d0
    1e9c:	000e030b 	andeq	r0, lr, fp, lsl #6
    1ea0:	00260500 	eoreq	r0, r6, r0, lsl #10
    1ea4:	00001349 	andeq	r1, r0, r9, asr #6
    1ea8:	27011506 	strcs	r1, [r1, -r6, lsl #10]
    1eac:	01134919 	tsteq	r3, r9, lsl r9
    1eb0:	07000013 	smladeq	r0, r3, r0, r0
    1eb4:	13490005 	movtne	r0, #36869	; 0x9005
    1eb8:	34080000 	strcc	r0, [r8], #-0
    1ebc:	3a0e0300 	bcc	382ac4 <__bss_end__+0x377cec>
    1ec0:	390b3b0b 	stmdbcc	fp, {r0, r1, r3, r8, r9, fp, ip, sp}
    1ec4:	3f13490b 	svccc	0x0013490b
    1ec8:	00193c19 	andseq	r3, r9, r9, lsl ip
    1ecc:	000f0900 	andeq	r0, pc, r0, lsl #18
    1ed0:	13490b0b 	movtne	r0, #39691	; 0x9b0b
    1ed4:	2e0a0000 	cdpcs	0, 0, cr0, cr10, cr0, {0}
    1ed8:	03193f01 	tsteq	r9, #1, 30
    1edc:	3b0b3a0e 	blcc	2d071c <__bss_end__+0x2c5944>
    1ee0:	270b390b 	strcs	r3, [fp, -fp, lsl #18]
    1ee4:	11134919 	tstne	r3, r9, lsl r9
    1ee8:	40061201 	andmi	r1, r6, r1, lsl #4
    1eec:	19429718 	stmdbne	r2, {r3, r4, r8, r9, sl, ip, pc}^
    1ef0:	00001301 	andeq	r1, r0, r1, lsl #6
    1ef4:	0300050b 	movweq	r0, #1291	; 0x50b
    1ef8:	3b0b3a08 	blcc	2d0720 <__bss_end__+0x2c5948>
    1efc:	490b390b 	stmdbmi	fp, {r0, r1, r3, r8, fp, ip, sp}
    1f00:	b7170213 			; <UNDEFINED> instruction: 0xb7170213
    1f04:	00001742 	andeq	r1, r0, r2, asr #14
    1f08:	0300340c 	movweq	r3, #1036	; 0x40c
    1f0c:	3b0b3a08 	blcc	2d0734 <__bss_end__+0x2c595c>
    1f10:	490b390b 	stmdbmi	fp, {r0, r1, r3, r8, fp, ip, sp}
    1f14:	b7170213 			; <UNDEFINED> instruction: 0xb7170213
    1f18:	00001742 	andeq	r1, r0, r2, asr #14
    1f1c:	01110100 	tsteq	r1, r0, lsl #2
    1f20:	0b130e25 	bleq	4c57bc <__bss_end__+0x4ba9e4>
    1f24:	0e1b0e03 	cdpeq	14, 1, cr0, cr11, cr3, {0}
    1f28:	06120111 			; <UNDEFINED> instruction: 0x06120111
    1f2c:	00001710 	andeq	r1, r0, r0, lsl r7
    1f30:	0b002402 	bleq	af40 <__bss_end__+0x168>
    1f34:	030b3e0b 	movweq	r3, #48651	; 0xbe0b
    1f38:	03000008 	movweq	r0, #8
    1f3c:	0b0b0024 	bleq	2c1fd4 <__bss_end__+0x2b71fc>
    1f40:	0e030b3e 	vmoveq.16	d3[0], r0
    1f44:	15040000 	strne	r0, [r4, #-0]
    1f48:	49192701 	ldmdbmi	r9, {r0, r8, r9, sl, sp}
    1f4c:	00130113 	andseq	r0, r3, r3, lsl r1
    1f50:	00050500 	andeq	r0, r5, r0, lsl #10
    1f54:	00001349 	andeq	r1, r0, r9, asr #6
    1f58:	03003406 	movweq	r3, #1030	; 0x406
    1f5c:	3b0b3a0e 	blcc	2d079c <__bss_end__+0x2c59c4>
    1f60:	490b390b 	stmdbmi	fp, {r0, r1, r3, r8, fp, ip, sp}
    1f64:	3c193f13 	ldccc	15, cr3, [r9], {19}
    1f68:	07000019 	smladeq	r0, r9, r0, r0
    1f6c:	0b0b000f 	bleq	2c1fb0 <__bss_end__+0x2b71d8>
    1f70:	00001349 	andeq	r1, r0, r9, asr #6
    1f74:	49002608 	stmdbmi	r0, {r3, r9, sl, sp}
    1f78:	09000013 	stmdbeq	r0, {r0, r1, r4}
    1f7c:	193f002e 	ldmdbne	pc!, {r1, r2, r3, r5}	; <UNPREDICTABLE>
    1f80:	0b3a0e03 	bleq	e85794 <__bss_end__+0xe7a9bc>
    1f84:	0b390b3b 	bleq	e44c78 <__bss_end__+0xe39ea0>
    1f88:	01111927 	tsteq	r1, r7, lsr #18
    1f8c:	18400612 	stmdane	r0, {r1, r4, r9, sl}^
    1f90:	00194297 	mulseq	r9, r7, r2
	...

Disassembly of section .debug_loc:

00000000 <.debug_loc>:
       0:	00000000 	andeq	r0, r0, r0
       4:	00000110 	andeq	r0, r0, r0, lsl r1
       8:	00000118 	andeq	r0, r0, r8, lsl r1
       c:	18500001 	ldmdane	r0, {r0}^
      10:	1b000001 	blne	1c <__code_start__-0x7fe4>
      14:	01000001 	tsteq	r0, r1
      18:	00005200 	andeq	r5, r0, r0, lsl #4
      1c:	00000000 	andeq	r0, r0, r0
      20:	05020000 	streq	r0, [r2, #-0]
      24:	00000110 	andeq	r0, r0, r0, lsl r1
      28:	00000110 	andeq	r0, r0, r0, lsl r1
      2c:	00500001 	subseq	r0, r0, r1
      30:	00000000 	andeq	r0, r0, r0
      34:	04000000 	streq	r0, [r0], #-0
      38:	10000000 	andne	r0, r0, r0
      3c:	18000001 	stmdane	r0, {r0}
      40:	01000001 	tsteq	r0, r1
      44:	01185000 	tsteq	r8, r0
      48:	011b0000 	tsteq	fp, r0
      4c:	00010000 	andeq	r0, r1, r0
      50:	00000052 	andeq	r0, r0, r2, asr r0
      54:	00000000 	andeq	r0, r0, r0
      58:	00000100 	andeq	r0, r0, r0, lsl #2
      5c:	00000100 	andeq	r0, r0, r0, lsl #2
      60:	00000800 	andeq	r0, r0, r0, lsl #16
      64:	00005c00 	andeq	r5, r0, r0, lsl #24
      68:	30000200 	andcc	r0, r0, r0, lsl #4
      6c:	00005c9f 	muleq	r0, pc, ip	; <UNPREDICTABLE>
      70:	00008000 	andeq	r8, r0, r0
      74:	55000100 	strpl	r0, [r0, #-256]	; 0xffffff00
      78:	00000080 	andeq	r0, r0, r0, lsl #1
      7c:	000000ec 	andeq	r0, r0, ip, ror #1
      80:	ec550001 	mrrc	0, 0, r0, r5, cr1
      84:	fc000000 	stc2	0, cr0, [r0], {-0}
      88:	01000000 	mrseq	r0, (UNDEF: 0)
      8c:	00005000 	andeq	r5, r0, r0
      90:	00000000 	andeq	r0, r0, r0
      94:	00030000 	andeq	r0, r3, r0
      98:	00030000 	andeq	r0, r3, r0
      9c:	00000000 	andeq	r0, r0, r0
      a0:	00080000 	andeq	r0, r8, r0
      a4:	005c0000 	subseq	r0, ip, r0
      a8:	00020000 	andeq	r0, r2, r0
      ac:	005c9f30 	subseq	r9, ip, r0, lsr pc
      b0:	00800000 	addeq	r0, r0, r0
      b4:	00060000 	andeq	r0, r6, r0
      b8:	00766508 	rsbseq	r6, r6, r8, lsl #10
      bc:	00809f1c 	addeq	r9, r0, ip, lsl pc
      c0:	00840000 	addeq	r0, r4, r0
      c4:	00060000 	andeq	r0, r6, r0
      c8:	00766508 	rsbseq	r6, r6, r8, lsl #10
      cc:	00849f1c 	addeq	r9, r4, ip, lsl pc
      d0:	00880000 	addeq	r0, r8, r0
      d4:	00060000 	andeq	r0, r6, r0
      d8:	00766408 	rsbseq	r6, r6, r8, lsl #8
      dc:	00889f1c 	addeq	r9, r8, ip, lsl pc
      e0:	00dc0000 	sbcseq	r0, ip, r0
      e4:	00060000 	andeq	r0, r6, r0
      e8:	00766508 	rsbseq	r6, r6, r8, lsl #10
      ec:	00dc9f1c 	sbcseq	r9, ip, ip, lsl pc
      f0:	00ec0000 	rsceq	r0, ip, r0
      f4:	00060000 	andeq	r0, r6, r0
      f8:	00766408 	rsbseq	r6, r6, r8, lsl #8
      fc:	00009f1c 	andeq	r9, r0, ip, lsl pc
	...
     114:	00340000 	eorseq	r0, r4, r0
     118:	003f0000 	eorseq	r0, pc, r0
     11c:	00010000 	andeq	r0, r1, r0
     120:	00003f50 	andeq	r3, r0, r0, asr pc
     124:	00005c00 	andeq	r5, r0, r0, lsl #24
     128:	55000100 	strpl	r0, [r0, #-256]	; 0xffffff00
     12c:	0000005c 	andeq	r0, r0, ip, asr r0
     130:	00000080 	andeq	r0, r0, r0, lsl #1
     134:	80540001 	subshi	r0, r4, r1
     138:	a8000000 	stmdage	r0, {}	; <UNPREDICTABLE>
     13c:	01000000 	mrseq	r0, (UNDEF: 0)
     140:	00a85500 	adceq	r5, r8, r0, lsl #10
     144:	00b30000 	adcseq	r0, r3, r0
     148:	00010000 	andeq	r0, r1, r0
     14c:	0000b350 	andeq	fp, r0, r0, asr r3
     150:	0000dc00 	andeq	sp, r0, r0, lsl #24
     154:	54000100 	strpl	r0, [r0], #-256	; 0xffffff00
     158:	000000dc 	ldrdeq	r0, [r0], -ip
     15c:	000000ec 	andeq	r0, r0, ip, ror #1
     160:	ec550001 	mrrc	0, 0, r0, r5, cr1
     164:	fc000000 	stc2	0, cr0, [r0], {-0}
     168:	01000000 	mrseq	r0, (UNDEF: 0)
     16c:	00005000 	andeq	r5, r0, r0
     170:	00000000 	andeq	r0, r0, r0
     174:	00050000 	andeq	r0, r5, r0
     178:	00080001 	andeq	r0, r8, r1
     17c:	00200000 	eoreq	r0, r0, r0
     180:	00020000 	andeq	r0, r2, r0
     184:	00889f40 	addeq	r9, r8, r0, asr #30
     188:	00940000 	addseq	r0, r4, r0
     18c:	00020000 	andeq	r0, r2, r0
     190:	00009f40 	andeq	r9, r0, r0, asr #30
     194:	00000000 	andeq	r0, r0, r0
     198:	00050000 	andeq	r0, r5, r0
     19c:	00080001 	andeq	r0, r8, r1
     1a0:	00200000 	eoreq	r0, r0, r0
     1a4:	00060000 	andeq	r0, r6, r0
     1a8:	000472f2 	strdeq	r7, [r4], -r2
     1ac:	00880000 	addeq	r0, r8, r0
     1b0:	00940000 	addseq	r0, r4, r0
     1b4:	00060000 	andeq	r0, r6, r0
     1b8:	000472f2 	strdeq	r7, [r4], -r2
	...
     1c4:	00050000 	andeq	r0, r5, r0
     1c8:	00080001 	andeq	r0, r8, r1
     1cc:	00200000 	eoreq	r0, r0, r0
     1d0:	00060000 	andeq	r0, r6, r0
     1d4:	00a10803 	adceq	r0, r1, r3, lsl #16
     1d8:	00889f00 	addeq	r9, r8, r0, lsl #30
     1dc:	00940000 	addseq	r0, r4, r0
     1e0:	00060000 	andeq	r0, r6, r0
     1e4:	00a10803 	adceq	r0, r1, r3, lsl #16
     1e8:	00009f00 	andeq	r9, r0, r0, lsl #30
	...
     1f8:	00000200 	andeq	r0, r0, r0, lsl #4
     1fc:	00000218 	andeq	r0, r0, r8, lsl r2
     200:	18500001 	ldmdane	r0, {r0}^
     204:	88000002 	stmdahi	r0, {r1}
     208:	01000002 	tsteq	r0, r2
     20c:	02885600 	addeq	r5, r8, #0, 12
     210:	02940000 	addseq	r0, r4, #0, 0
     214:	00040000 	andeq	r0, r4, r0
     218:	9f5001f3 	svcls	0x005001f3
	...
     228:	02200000 	eoreq	r0, r0, #0, 0
     22c:	022b0000 	eoreq	r0, fp, #0, 0
     230:	00010000 	andeq	r0, r1, r0
     234:	00022b50 	andeq	r2, r2, r0, asr fp
     238:	00028800 	andeq	r8, r2, r0, lsl #16
     23c:	54000100 	strpl	r0, [r0], #-256	; 0xffffff00
     240:	00000288 	andeq	r0, r0, r8, lsl #5
     244:	00000294 	muleq	r0, r4, r2
     248:	b0030005 	andlt	r0, r3, r5
     24c:	000000a9 	andeq	r0, r0, r9, lsr #1
	...
     258:	b4000000 	strlt	r0, [r0], #-0
     25c:	c4000000 	strgt	r0, [r0], #-0
     260:	01000000 	mrseq	r0, (UNDEF: 0)
     264:	00c45000 	sbceq	r5, r4, r0
     268:	02000000 	andeq	r0, r0, #0, 0
     26c:	00010000 	andeq	r0, r1, r0
     270:	00000054 	andeq	r0, r0, r4, asr r0
	...
     280:	0000cc00 	andeq	ip, r0, r0, lsl #24
     284:	0000d000 	andeq	sp, r0, r0
     288:	55000500 	strpl	r0, [r0, #-1280]	; 0xfffffb00
     28c:	08930493 	ldmeq	r3, {r0, r1, r4, r7, sl}
     290:	000000d0 	ldrdeq	r0, [r0], -r0	; <UNPREDICTABLE>
     294:	000000d4 	ldrdeq	r0, [r0], -r4
     298:	93550008 	cmpls	r5, #8, 0
     29c:	04935604 	ldreq	r5, [r3], #1540	; 0x604
     2a0:	00d40493 	smullseq	r0, r4, r3, r4
     2a4:	01980000 	orrseq	r0, r8, r0
     2a8:	00090000 	andeq	r0, r9, r0
     2ac:	56049355 			; <UNDEFINED> instruction: 0x56049355
     2b0:	93570493 	cmpls	r7, #-1828716544	; 0x93000000
     2b4:	00019804 	andeq	r9, r1, r4, lsl #16
     2b8:	00020000 	andeq	r0, r2, r0
     2bc:	55000900 	strpl	r0, [r0, #-2304]	; 0xfffff700
     2c0:	93560493 	cmpls	r6, #-1828716544	; 0x93000000
     2c4:	04935704 	ldreq	r5, [r3], #1796	; 0x704
	...
     2d0:	00020201 	andeq	r0, r2, r1, lsl #4
     2d4:	00000000 	andeq	r0, r0, r0
     2d8:	00d40000 	sbcseq	r0, r4, r0
     2dc:	00d40000 	sbcseq	r0, r4, r0
     2e0:	00010000 	andeq	r0, r1, r0
     2e4:	0000d454 	andeq	sp, r0, r4, asr r4
     2e8:	00010400 	andeq	r0, r1, r0, lsl #8
     2ec:	74000400 	strvc	r0, [r0], #-1024	; 0xfffffc00
     2f0:	049f7ed8 	ldreq	r7, [pc], #3800	; 2f8 <__code_start__-0x7d08>
     2f4:	3c000001 	stccc	0, cr0, [r0], {1}
     2f8:	01000001 	tsteq	r0, r1
     2fc:	013c5800 	teqeq	ip, r0, lsl #16
     300:	01600000 	cmneq	r0, r0
     304:	00040000 	andeq	r0, r4, r0
     308:	9f7ed874 	svcls	0x007ed874
     30c:	00000160 	andeq	r0, r0, r0, ror #2
     310:	00000200 	andeq	r0, r0, r0, lsl #4
     314:	00580001 	subseq	r0, r8, r1
     318:	00000000 	andeq	r0, r0, r0
     31c:	03000000 	movweq	r0, #0
     320:	00020000 	andeq	r0, r2, r0
     324:	00011c00 	andeq	r1, r1, r0, lsl #24
     328:	00013c00 	andeq	r3, r1, r0, lsl #24
     32c:	58000100 	stmdapl	r0, {r8}
     330:	00000180 	andeq	r0, r0, r0, lsl #3
     334:	00000188 	andeq	r0, r0, r8, lsl #3
     338:	98580001 	ldmdals	r8, {r0}^
     33c:	00000001 	andeq	r0, r0, r1
     340:	01000002 	tsteq	r0, r2
     344:	00005800 	andeq	r5, r0, r0, lsl #16
     348:	00000000 	andeq	r0, r0, r0
     34c:	00030000 	andeq	r0, r3, r0
     350:	00000200 	andeq	r0, r0, r0, lsl #4
     354:	0000011c 	andeq	r0, r0, ip, lsl r1
     358:	0000013c 	andeq	r0, r0, ip, lsr r1
     35c:	b0030006 	andlt	r0, r3, r6
     360:	9f0000a9 	svcls	0x000000a9
     364:	00000180 	andeq	r0, r0, r0, lsl #3
     368:	00000188 	andeq	r0, r0, r8, lsl #3
     36c:	b0030006 	andlt	r0, r3, r6
     370:	9f0000a9 	svcls	0x000000a9
     374:	00000198 	muleq	r0, r8, r1
     378:	00000200 	andeq	r0, r0, r0, lsl #4
     37c:	b0030006 	andlt	r0, r3, r6
     380:	9f0000a9 	svcls	0x000000a9
	...
     390:	00000100 	andeq	r0, r0, r0, lsl #2
     394:	00000124 	andeq	r0, r0, r4, lsr #2
     398:	00000134 	andeq	r0, r0, r4, lsr r1
     39c:	34530001 	ldrbcc	r0, [r3], #-1
     3a0:	38000001 	stmdacc	r0, {r0}
     3a4:	05000001 	streq	r0, [r0, #-1]
     3a8:	a9b00300 	ldmibge	r0!, {r8, r9}
     3ac:	01800000 	orreq	r0, r0, r0
     3b0:	01880000 	orreq	r0, r8, r0
     3b4:	00010000 	andeq	r0, r1, r0
     3b8:	00019853 	andeq	r9, r1, r3, asr r8
     3bc:	0001c000 	andeq	ip, r1, r0
     3c0:	53000100 	movwpl	r0, #256	; 0x100
	...
     3d0:	01800000 	orreq	r0, r0, r0
     3d4:	01840000 	orreq	r0, r4, r0
     3d8:	00010000 	andeq	r0, r1, r0
     3dc:	00018452 	andeq	r8, r1, r2, asr r4
     3e0:	00018800 	andeq	r8, r1, r0, lsl #16
     3e4:	73000200 	movwvc	r0, #512	; 0x200
     3e8:	00019c00 	andeq	r9, r1, r0, lsl #24
     3ec:	0001b000 	andeq	fp, r1, r0
     3f0:	52000100 	andpl	r0, r0, #0
	...
     3fc:	00020000 	andeq	r0, r2, r0
     400:	00000198 	muleq	r0, r8, r1
     404:	0000019c 	muleq	r0, ip, r1
     408:	b0530001 	subslt	r0, r3, r1
     40c:	b8000001 	stmdalt	r0, {r0}
     410:	01000001 	tsteq	r0, r1
     414:	00005300 	andeq	r5, r0, r0, lsl #6
	...
     420:	00580000 	subseq	r0, r8, r0
     424:	00700000 	rsbseq	r0, r0, r0
     428:	00010000 	andeq	r0, r1, r0
     42c:	00007050 	andeq	r7, r0, r0, asr r0
     430:	0000b400 	andeq	fp, r0, r0, lsl #8
     434:	55000100 	strpl	r0, [r0, #-256]	; 0xffffff00
	...
     440:	00680000 	rsbeq	r0, r8, r0
     444:	00b40000 	adcseq	r0, r4, r0
     448:	00010000 	andeq	r0, r1, r0
     44c:	00000054 	andeq	r0, r0, r4, asr r0
     450:	00000000 	andeq	r0, r0, r0
     454:	84000100 	strhi	r0, [r0], #-256	; 0xffffff00
     458:	88000000 	stmdahi	r0, {}	; <UNPREDICTABLE>
     45c:	01000000 	mrseq	r0, (UNDEF: 0)
     460:	00005400 	andeq	r5, r0, r0, lsl #8
	...
     470:	00000034 	andeq	r0, r0, r4, lsr r0
     474:	00000044 	andeq	r0, r0, r4, asr #32
     478:	44500001 	ldrbmi	r0, [r0], #-1
     47c:	50000000 	andpl	r0, r0, r0
     480:	04000000 	streq	r0, [r0], #-0
     484:	7ed87000 	cdpvc	0, 13, cr7, cr8, cr0, {0}
     488:	0000509f 	muleq	r0, pc, r0	; <UNPREDICTABLE>
     48c:	00005800 	andeq	r5, r0, r0, lsl #16
     490:	f3000400 	vshl.u8	d0, d0, d0
     494:	009f5001 	addseq	r5, pc, r1
     498:	00000000 	andeq	r0, r0, r0
     49c:	04000000 	streq	r0, [r0], #-0
     4a0:	00000000 	andeq	r0, r0, r0
     4a4:	00003400 	andeq	r3, r0, r0, lsl #8
     4a8:	00004400 	andeq	r4, r0, r0, lsl #8
     4ac:	70000400 	andvc	r0, r0, r0, lsl #8
     4b0:	449f01a8 	ldrmi	r0, [pc], #424	; 4b8 <__code_start__-0x7b48>
     4b4:	50000000 	andpl	r0, r0, r0
     4b8:	01000000 	mrseq	r0, (UNDEF: 0)
     4bc:	00505000 	subseq	r5, r0, r0
     4c0:	00580000 	subseq	r0, r8, r0
     4c4:	00070000 	andeq	r0, r7, r0
     4c8:	235001f3 	cmpcs	r0, #-1073741764	; 0xc000003c
     4cc:	009f01a8 	addseq	r0, pc, r8, lsr #3
     4d0:	00000000 	andeq	r0, r0, r0
     4d4:	0c000000 	stceq	0, cr0, [r0], {-0}
     4d8:	00000000 	andeq	r0, r0, r0
     4dc:	00003400 	andeq	r3, r0, r0, lsl #8
     4e0:	00004400 	andeq	r4, r0, r0, lsl #8
     4e4:	70000a00 	andvc	r0, r0, r0, lsl #20
     4e8:	06047000 	streq	r7, [r4], -r0
     4ec:	01a82322 			; <UNDEFINED> instruction: 0x01a82322
     4f0:	0000449f 	muleq	r0, pc, r4	; <UNPREDICTABLE>
     4f4:	00005000 	andeq	r5, r0, r0
     4f8:	70000800 	andvc	r0, r0, r0, lsl #16
     4fc:	7edc7000 	cdpvc	0, 13, cr7, cr12, cr0, {0}
     500:	509f2206 	addspl	r2, pc, r6, lsl #4
     504:	58000000 	stmdapl	r0, {}	; <UNPREDICTABLE>
     508:	0e000000 	cdpeq	0, 0, cr0, cr0, cr0, {0}
     50c:	5001f300 	andpl	pc, r1, r0, lsl #6
     510:	235001f3 	cmpcs	r0, #-1073741764	; 0xc000003c
     514:	23220604 			; <UNDEFINED> instruction: 0x23220604
     518:	009f01a8 	addseq	r0, pc, r8, lsr #3
     51c:	00000000 	andeq	r0, r0, r0
     520:	02000000 	andeq	r0, r0, #0, 0
     524:	00003404 	andeq	r3, r0, r4, lsl #8
     528:	00003400 	andeq	r3, r0, r0, lsl #8
     52c:	50000100 	andpl	r0, r0, r0, lsl #2
	...
     538:	00340c06 	eorseq	r0, r4, r6, lsl #24
     53c:	00340000 	eorseq	r0, r4, r0
     540:	00010000 	andeq	r0, r1, r0
     544:	00000050 	andeq	r0, r0, r0, asr r0
     548:	00000000 	andeq	r0, r0, r0
     54c:	340c0a00 	strcc	r0, [ip], #-2560	; 0xfffff600
     550:	34000000 	strcc	r0, [r0], #-0
     554:	01000000 	mrseq	r0, (UNDEF: 0)
     558:	00005000 	andeq	r5, r0, r0
	...
     564:	00100000 	andseq	r0, r0, r0
     568:	00180000 	andseq	r0, r8, r0
     56c:	00010000 	andeq	r0, r1, r0
     570:	00001850 	andeq	r1, r0, r0, asr r8
     574:	00001c00 	andeq	r1, r0, r0, lsl #24
     578:	f3000400 	vshl.u8	d0, d0, d0
     57c:	009f5001 	addseq	r5, pc, r1
	...
     588:	1c000000 	stcne	0, cr0, [r0], {-0}
     58c:	20000000 	andcs	r0, r0, r0
     590:	01000000 	mrseq	r0, (UNDEF: 0)
     594:	00205000 	eoreq	r5, r0, r0
     598:	00240000 	eoreq	r0, r4, r0
     59c:	00040000 	andeq	r0, r4, r0
     5a0:	9f7ed870 	svcls	0x007ed870
	...
     5b0:	00000024 	andeq	r0, r0, r4, lsr #32
     5b4:	00000030 	andeq	r0, r0, r0, lsr r0
     5b8:	30500001 	subscc	r0, r0, r1
     5bc:	34000000 	strcc	r0, [r0], #-0
     5c0:	04000000 	streq	r0, [r0], #-0
     5c4:	5001f300 	andpl	pc, r1, r0, lsl #6
     5c8:	0000009f 	muleq	r0, pc, r0	; <UNPREDICTABLE>
     5cc:	00000000 	andeq	r0, r0, r0
     5d0:	24050300 	strcs	r0, [r5], #-768	; 0xfffffd00
     5d4:	24000000 	strcs	r0, [r0], #-0
     5d8:	01000000 	mrseq	r0, (UNDEF: 0)
     5dc:	00005000 	andeq	r5, r0, r0
	...
     5e8:	00080000 	andeq	r0, r8, r0
     5ec:	00800000 	addeq	r0, r0, r0
     5f0:	00010000 	andeq	r0, r1, r0
     5f4:	00008051 	andeq	r8, r0, r1, asr r0
     5f8:	0000a400 	andeq	sl, r0, r0, lsl #8
     5fc:	70000300 	andvc	r0, r0, r0, lsl #6
     600:	00009f78 	andeq	r9, r0, r8, ror pc
	...
     60c:	00000010 	andeq	r0, r0, r0, lsl r0
     610:	000000a4 	andeq	r0, r0, r4, lsr #1
     614:	00530001 	subseq	r0, r3, r1
	...
     620:	a4000000 	strge	r0, [r0], #-0
     624:	bc000000 	stclt	0, cr0, [r0], {-0}
     628:	01000000 	mrseq	r0, (UNDEF: 0)
     62c:	00bc5000 	adcseq	r5, ip, r0
     630:	01900000 	orrseq	r0, r0, r0
     634:	00040000 	andeq	r0, r4, r0
     638:	9f5001f3 	svcls	0x005001f3
	...
     644:	00010000 	andeq	r0, r1, r0
     648:	00010100 	andeq	r0, r1, r0, lsl #2
     64c:	00000000 	andeq	r0, r0, r0
     650:	000000c8 	andeq	r0, r0, r8, asr #1
     654:	000000d4 	ldrdeq	r0, [r0], -r4
     658:	fc530001 	mrrc2	0, 0, r0, r3, cr1
     65c:	00000000 	andeq	r0, r0, r0
     660:	06000001 	streq	r0, [r0], -r1
     664:	a9c00300 	stmibge	r0, {r8, r9}^
     668:	009f0000 	addseq	r0, pc, r0
     66c:	14000001 	strne	r0, [r0], #-1
     670:	01000001 	tsteq	r0, r1
     674:	01145300 	tsteq	r4, r0, lsl #6
     678:	01180000 	tsteq	r8, r0
     67c:	00080000 	andeq	r0, r8, r0
     680:	24330072 	ldrtcs	r0, [r3], #-114	; 0xffffff8e
     684:	9f220073 	svcls	0x00220073
     688:	0000013c 	andeq	r0, r0, ip, lsr r1
     68c:	00000148 	andeq	r0, r0, r8, asr #2
     690:	48500001 	ldmdami	r0, {r0}^
     694:	54000001 	strpl	r0, [r0], #-1
     698:	01000001 	tsteq	r0, r1
     69c:	00005300 	andeq	r5, r0, r0, lsl #6
	...
     6a8:	00020200 	andeq	r0, r2, r0, lsl #4
     6ac:	00bc0001 	adcseq	r0, ip, r1
     6b0:	00d40000 	sbcseq	r0, r4, r0
     6b4:	00010000 	andeq	r0, r1, r0
     6b8:	0000e450 	andeq	lr, r0, r0, asr r4
     6bc:	0000e400 	andeq	lr, r0, r0, lsl #8
     6c0:	50000100 	andpl	r0, r0, r0, lsl #2
     6c4:	000000e4 	andeq	r0, r0, r4, ror #1
     6c8:	00000100 	andeq	r0, r0, r0, lsl #2
     6cc:	c0030006 	andgt	r0, r3, r6
     6d0:	9f0000a9 	svcls	0x000000a9
     6d4:	00000144 	andeq	r0, r0, r4, asr #2
     6d8:	00000154 	andeq	r0, r0, r4, asr r1
     6dc:	00500001 	subseq	r0, r0, r1
	...
     6e8:	0000b400 	andeq	fp, r0, r0, lsl #8
     6ec:	00019000 	andeq	r9, r1, r0
     6f0:	54000100 	strpl	r0, [r0], #-256	; 0xffffff00
	...
     6fc:	00010000 	andeq	r0, r1, r0
     700:	0000012c 	andeq	r0, r0, ip, lsr #2
     704:	0000013c 	andeq	r0, r0, ip, lsr r1
     708:	000a0004 	andeq	r0, sl, r4
     70c:	01649f80 	cmneq	r4, r0, lsl #31
     710:	01840000 	orreq	r0, r4, r0
     714:	00040000 	andeq	r0, r4, r0
     718:	9f80000a 	svcls	0x0080000a
	...
     728:	012c0000 			; <UNDEFINED> instruction: 0x012c0000
     72c:	01340000 	teqeq	r4, r0
     730:	00010000 	andeq	r0, r1, r0
     734:	00013450 	andeq	r3, r1, r0, asr r4
     738:	00013700 	andeq	r3, r1, r0, lsl #14
     73c:	70000300 	andvc	r0, r0, r0, lsl #6
     740:	01789f78 	cmneq	r8, r8, ror pc
     744:	01840000 	orreq	r0, r4, r0
     748:	00010000 	andeq	r0, r1, r0
     74c:	00000050 	andeq	r0, r0, r0, asr r0
     750:	00000000 	andeq	r0, r0, r0
     754:	00000100 	andeq	r0, r0, r0, lsl #2
     758:	00012c00 	andeq	r2, r1, r0, lsl #24
     75c:	00013400 	andeq	r3, r1, r0, lsl #8
     760:	50000100 	andpl	r0, r0, r0, lsl #2
     764:	00000134 	andeq	r0, r0, r4, lsr r1
     768:	00000137 	andeq	r0, r0, r7, lsr r1
     76c:	78700003 	ldmdavc	r0!, {r0, r1}^
     770:	0000009f 	muleq	r0, pc, r0	; <UNPREDICTABLE>
     774:	00000000 	andeq	r0, r0, r0
     778:	00000200 	andeq	r0, r0, r0, lsl #4
     77c:	00055000 	andeq	r5, r5, r0
     780:	00055c00 	andeq	r5, r5, r0, lsl #24
     784:	55000100 	strpl	r0, [r0, #-256]	; 0xffffff00
     788:	0000055c 	andeq	r0, r0, ip, asr r5
     78c:	00000578 	andeq	r0, r0, r8, ror r5
     790:	00500001 	subseq	r0, r0, r1
     794:	00000000 	andeq	r0, r0, r0
     798:	03000000 	movweq	r0, #0
     79c:	00000000 	andeq	r0, r0, r0
     7a0:	00049800 	andeq	r9, r4, r0, lsl #16
     7a4:	0004d400 	andeq	sp, r4, r0, lsl #8
     7a8:	30000200 	andcc	r0, r0, r0, lsl #4
     7ac:	0004d49f 	muleq	r4, pc, r4	; <UNPREDICTABLE>
     7b0:	00053000 	andeq	r3, r5, r0
     7b4:	57000100 	strpl	r0, [r0, -r0, lsl #2]
     7b8:	00000530 	andeq	r0, r0, r0, lsr r5
     7bc:	0000053c 	andeq	r0, r0, ip, lsr r5
     7c0:	9f300002 	svcls	0x00300002
	...
     7cc:	00000003 	andeq	r0, r0, r3
     7d0:	04980000 	ldreq	r0, [r8], #0
     7d4:	04d40000 	ldrbeq	r0, [r4], #0
     7d8:	00020000 	andeq	r0, r2, r0
     7dc:	04d49f30 	ldrbeq	r9, [r4], #3888	; 0xf30
     7e0:	05300000 	ldreq	r0, [r0, #-0]!
     7e4:	00010000 	andeq	r0, r1, r0
     7e8:	00053058 	andeq	r3, r5, r8, asr r0
     7ec:	00053c00 	andeq	r3, r5, r0, lsl #24
     7f0:	30000200 	andcc	r0, r0, r0, lsl #4
     7f4:	0000009f 	muleq	r0, pc, r0	; <UNPREDICTABLE>
     7f8:	00000000 	andeq	r0, r0, r0
     7fc:	00000300 	andeq	r0, r0, r0, lsl #6
     800:	98000000 	stmdals	r0, {}	; <UNPREDICTABLE>
     804:	d4000004 	strle	r0, [r0], #-4
     808:	02000004 	andeq	r0, r0, #4, 0
     80c:	d49f3000 	ldrle	r3, [pc], #0	; 814 <__code_start__-0x77ec>
     810:	30000004 	andcc	r0, r0, r4
     814:	01000005 	tsteq	r0, r5
     818:	05305500 	ldreq	r5, [r0, #-1280]!	; 0xfffffb00
     81c:	053c0000 	ldreq	r0, [ip, #-0]!
     820:	00020000 	andeq	r0, r2, r0
     824:	00009f30 	andeq	r9, r0, r0, lsr pc
	...
     834:	04b00200 	ldrteq	r0, [r0], #512	; 0x200
     838:	04fc0000 	ldrbteq	r0, [ip], #0
     83c:	00010000 	andeq	r0, r1, r0
     840:	0004fc50 	andeq	pc, r4, r0, asr ip	; <UNPREDICTABLE>
     844:	00051400 	andeq	r1, r5, r0, lsl #8
     848:	54000100 	strpl	r0, [r0], #-256	; 0xffffff00
     84c:	00000514 	andeq	r0, r0, r4, lsl r5
     850:	0000054c 	andeq	r0, r0, ip, asr #10
     854:	4c500001 	mrrcmi	0, 0, r0, r0, cr1	; <UNPREDICTABLE>
     858:	50000005 	andpl	r0, r0, r5
     85c:	01000005 	tsteq	r0, r5
     860:	00005400 	andeq	r5, r0, r0, lsl #8
	...
     86c:	000004e4 	andeq	r0, r0, r4, ror #9
     870:	000004f4 	strdeq	r0, [r0], -r4
     874:	010a0004 	tsteq	sl, r4
     878:	00009f01 	andeq	r9, r0, r1, lsl #30
	...
     884:	000004e4 	andeq	r0, r0, r4, ror #9
     888:	000004f4 	strdeq	r0, [r0], -r4
     88c:	01f20006 	mvnseq	r0, r6
     890:	0000001d 	andeq	r0, r0, sp, lsl r0
	...
     89c:	04e40000 	strbteq	r0, [r4], #0
     8a0:	04f40000 	ldrbteq	r0, [r4], #0
     8a4:	00060000 	andeq	r0, r6, r0
     8a8:	00a2c803 	adceq	ip, r2, r3, lsl #16
     8ac:	00009f00 	andeq	r9, r0, r0, lsl #30
	...
     8bc:	00000448 	andeq	r0, r0, r8, asr #8
     8c0:	00000458 	andeq	r0, r0, r8, asr r4
     8c4:	58500001 	ldmdapl	r0, {r0}^
     8c8:	5b000004 	blpl	8e0 <__code_start__-0x7720>
     8cc:	01000004 	tsteq	r0, r4
     8d0:	045b5100 	ldrbeq	r5, [fp], #-256	; 0xffffff00
     8d4:	048c0000 	streq	r0, [ip], #0
     8d8:	00010000 	andeq	r0, r1, r0
     8dc:	00000054 	andeq	r0, r0, r4, asr r0
     8e0:	00000000 	andeq	r0, r0, r0
     8e4:	40000200 	andmi	r0, r0, r0, lsl #4
     8e8:	48000004 	stmdami	r0, {r2}
     8ec:	02000004 	andeq	r0, r0, #4, 0
     8f0:	009f3100 	addseq	r3, pc, r0, lsl #2
     8f4:	00000000 	andeq	r0, r0, r0
     8f8:	02000000 	andeq	r0, r0, #0, 0
     8fc:	0003f800 	andeq	pc, r3, r0, lsl #16
     900:	00040000 	andeq	r0, r4, r0
     904:	31000200 	mrscc	r0, R8_usr
     908:	0000009f 	muleq	r0, pc, r0	; <UNPREDICTABLE>
	...
     914:	00023400 	andeq	r3, r2, r0, lsl #8
     918:	00024000 	andeq	r4, r2, r0
     91c:	50000100 	andpl	r0, r0, r0, lsl #2
     920:	00000240 	andeq	r0, r0, r0, asr #4
     924:	00000344 	andeq	r0, r0, r4, asr #6
     928:	00580001 	subseq	r0, r8, r1
     92c:	00000000 	andeq	r0, r0, r0
     930:	01000000 	mrseq	r0, (UNDEF: 0)
     934:	00000000 	andeq	r0, r0, r0
     938:	00023c00 	andeq	r3, r2, r0, lsl #24
     93c:	00027400 	andeq	r7, r2, r0, lsl #8
     940:	30000200 	andcc	r0, r0, r0, lsl #4
     944:	0002749f 	muleq	r2, pc, r4	; <UNPREDICTABLE>
     948:	0002f000 	andeq	pc, r2, r0
     94c:	55000100 	strpl	r0, [r0, #-256]	; 0xffffff00
     950:	000002f0 	strdeq	r0, [r0], -r0	; <UNPREDICTABLE>
     954:	00000304 	andeq	r0, r0, r4, lsl #6
     958:	9f300002 	svcls	0x00300002
	...
     964:	00000001 	andeq	r0, r0, r1
     968:	023c0000 	eorseq	r0, ip, #0, 0
     96c:	02740000 	rsbseq	r0, r4, #0, 0
     970:	00020000 	andeq	r0, r2, r0
     974:	02749f30 	rsbseq	r9, r4, #48, 30	; 0xc0
     978:	02f00000 	rscseq	r0, r0, #0, 0
     97c:	00010000 	andeq	r0, r1, r0
     980:	0002f056 	andeq	pc, r2, r6, asr r0	; <UNPREDICTABLE>
     984:	00030400 	andeq	r0, r3, r0, lsl #8
     988:	30000200 	andcc	r0, r0, r0, lsl #4
     98c:	0000009f 	muleq	r0, pc, r0	; <UNPREDICTABLE>
     990:	00000000 	andeq	r0, r0, r0
     994:	00000100 	andeq	r0, r0, r0, lsl #2
     998:	3c000000 	stccc	0, cr0, [r0], {-0}
     99c:	74000002 	strvc	r0, [r0], #-2
     9a0:	02000002 	andeq	r0, r0, #2, 0
     9a4:	749f3000 	ldrvc	r3, [pc], #0	; 9ac <__code_start__-0x7654>
     9a8:	f0000002 			; <UNDEFINED> instruction: 0xf0000002
     9ac:	01000002 	tsteq	r0, r2
     9b0:	02f05700 	rscseq	r5, r0, #0, 14
     9b4:	03040000 	movweq	r0, #16384	; 0x4000
     9b8:	00020000 	andeq	r0, r2, r0
     9bc:	00009f30 	andeq	r9, r0, r0, lsr pc
	...
     9d8:	00000254 	andeq	r0, r0, r4, asr r2
     9dc:	00000284 	andeq	r0, r0, r4, lsl #5
     9e0:	84500001 	ldrbhi	r0, [r0], #-1
     9e4:	90000002 	andls	r0, r0, r2
     9e8:	01000002 	tsteq	r0, r2
     9ec:	02905400 	addseq	r5, r0, #0, 8
     9f0:	02c00000 	sbceq	r0, r0, #0, 0
     9f4:	00010000 	andeq	r0, r1, r0
     9f8:	0002c050 	andeq	ip, r2, r0, asr r0
     9fc:	0002c300 	andeq	ip, r2, r0, lsl #6
     a00:	52000100 	andpl	r0, r0, #0
     a04:	000002c3 	andeq	r0, r0, r3, asr #5
     a08:	000002c8 	andeq	r0, r0, r8, asr #5
     a0c:	c8540001 	ldmdagt	r4, {r0}^
     a10:	d0000002 	andle	r0, r0, r2
     a14:	01000002 	tsteq	r0, r2
     a18:	02d05000 	sbcseq	r5, r0, #0, 0
     a1c:	02f00000 	rscseq	r0, r0, #0, 0
     a20:	00010000 	andeq	r0, r1, r0
     a24:	0002f054 	andeq	pc, r2, r4, asr r0	; <UNPREDICTABLE>
     a28:	0002f800 	andeq	pc, r2, r0, lsl #16
     a2c:	50000100 	andpl	r0, r0, r0, lsl #2
     a30:	000002f8 	strdeq	r0, [r0], -r8
     a34:	00000344 	andeq	r0, r0, r4, asr #6
     a38:	00540001 	subseq	r0, r4, r1
	...
     a44:	98000000 	stmdals	r0, {}	; <UNPREDICTABLE>
     a48:	b3000001 	movwlt	r0, #1
     a4c:	01000001 	tsteq	r0, r1
     a50:	01b45000 			; <UNDEFINED> instruction: 0x01b45000
     a54:	01c00000 	biceq	r0, r0, r0
     a58:	00010000 	andeq	r0, r1, r0
     a5c:	00000050 	andeq	r0, r0, r0, asr r0
	...
     a78:	30000000 	andcc	r0, r0, r0
     a7c:	01000000 	mrseq	r0, (UNDEF: 0)
     a80:	00305000 	eorseq	r5, r0, r0
     a84:	00400000 	subeq	r0, r0, r0
     a88:	00010000 	andeq	r0, r1, r0
     a8c:	00004054 	andeq	r4, r0, r4, asr r0
     a90:	00005800 	andeq	r5, r0, r0, lsl #16
     a94:	50000100 	andpl	r0, r0, r0, lsl #2
     a98:	00000058 	andeq	r0, r0, r8, asr r0
     a9c:	00000060 	andeq	r0, r0, r0, rrx
     aa0:	01f30004 	mvnseq	r0, r4
     aa4:	00609f50 	rsbeq	r9, r0, r0, asr pc
     aa8:	00780000 	rsbseq	r0, r8, r0
     aac:	00010000 	andeq	r0, r1, r0
     ab0:	00007850 	andeq	r7, r0, r0, asr r8
     ab4:	00008000 	andeq	r8, r0, r0
     ab8:	54000100 	strpl	r0, [r0], #-256	; 0xffffff00
     abc:	00000080 	andeq	r0, r0, r0, lsl #1
     ac0:	00000098 	muleq	r0, r8, r0
     ac4:	98500001 	ldmdals	r0, {r0}^
     ac8:	a0000000 	andge	r0, r0, r0
     acc:	01000000 	mrseq	r0, (UNDEF: 0)
     ad0:	00a05400 	adceq	r5, r0, r0, lsl #8
     ad4:	018c0000 	orreq	r0, ip, r0
     ad8:	00040000 	andeq	r0, r4, r0
     adc:	9f5001f3 	svcls	0x005001f3
	...
     af8:	00000054 	andeq	r0, r0, r4, asr r0
     afc:	54510001 	ldrbpl	r0, [r1], #-1
     b00:	60000000 	andvs	r0, r0, r0
     b04:	04000000 	streq	r0, [r0], #-0
     b08:	5101f300 	mrspl	pc, SP_irq	; <UNPREDICTABLE>
     b0c:	0000609f 	muleq	r0, pc, r0	; <UNPREDICTABLE>
     b10:	00007400 	andeq	r7, r0, r0, lsl #8
     b14:	51000100 	mrspl	r0, (UNDEF: 16)
     b18:	00000074 	andeq	r0, r0, r4, ror r0
     b1c:	00000080 	andeq	r0, r0, r0, lsl #1
     b20:	01f30004 	mvnseq	r0, r4
     b24:	00809f51 	addeq	r9, r0, r1, asr pc
     b28:	00940000 	addseq	r0, r4, r0
     b2c:	00010000 	andeq	r0, r1, r0
     b30:	00009451 	andeq	r9, r0, r1, asr r4
     b34:	00018c00 	andeq	r8, r1, r0, lsl #24
     b38:	f3000400 	vshl.u8	d0, d0, d0
     b3c:	009f5101 	addseq	r5, pc, r1, lsl #2
	...
     b48:	00000202 	andeq	r0, r0, r2, lsl #4
     b4c:	00000000 	andeq	r0, r0, r0
     b50:	0000a000 	andeq	sl, r0, r0
     b54:	0000a800 	andeq	sl, r0, r0, lsl #16
     b58:	57000100 	strpl	r0, [r0, -r0, lsl #2]
     b5c:	000000a8 	andeq	r0, r0, r8, lsr #1
     b60:	000000b0 	strheq	r0, [r0], -r0	; <UNPREDICTABLE>
     b64:	b4540001 	ldrblt	r0, [r4], #-1
     b68:	b8000000 	stmdalt	r0, {}	; <UNPREDICTABLE>
     b6c:	01000000 	mrseq	r0, (UNDEF: 0)
     b70:	00b85400 	adcseq	r5, r8, r0, lsl #8
     b74:	015c0000 	cmpeq	ip, r0
     b78:	00010000 	andeq	r0, r1, r0
     b7c:	00015c57 	andeq	r5, r1, r7, asr ip
     b80:	00016400 	andeq	r6, r1, r0, lsl #8
     b84:	54000100 	strpl	r0, [r0], #-256	; 0xffffff00
	...
     b94:	00a00000 	adceq	r0, r0, r0
     b98:	00a80000 	adceq	r0, r8, r0
     b9c:	00010000 	andeq	r0, r1, r0
     ba0:	0000d855 	andeq	sp, r0, r5, asr r8
     ba4:	0000ef00 	andeq	lr, r0, r0, lsl #30
     ba8:	50000100 	andpl	r0, r0, r0, lsl #2
     bac:	000000ef 	andeq	r0, r0, pc, ror #1
     bb0:	0000015c 	andeq	r0, r0, ip, asr r1
     bb4:	00550001 	subseq	r0, r5, r1
	...
     bc0:	a0000000 	andge	r0, r0, r0
     bc4:	a8000000 	stmdage	r0, {}	; <UNPREDICTABLE>
     bc8:	01000000 	mrseq	r0, (UNDEF: 0)
     bcc:	00e45900 	rsceq	r5, r4, r0, lsl #18
     bd0:	015c0000 	cmpeq	ip, r0
     bd4:	00010000 	andeq	r0, r1, r0
     bd8:	00000059 	andeq	r0, r0, r9, asr r0
	...
     be4:	0000a000 	andeq	sl, r0, r0
     be8:	0000a800 	andeq	sl, r0, r0, lsl #16
     bec:	5a000100 	bpl	ff4 <__code_start__-0x700c>
     bf0:	000000e8 	andeq	r0, r0, r8, ror #1
     bf4:	0000015c 	andeq	r0, r0, ip, asr r1
     bf8:	005a0001 	subseq	r0, sl, r1
	...
     c04:	0000b800 	andeq	fp, r0, r0, lsl #16
     c08:	0000d700 	andeq	sp, r0, r0, lsl #14
     c0c:	77000200 	strvc	r0, [r0, -r0, lsl #4]
	...
     c18:	bc000000 	stclt	0, cr0, [r0], {-0}
     c1c:	d7000000 	strle	r0, [r0, -r0]
     c20:	02000000 	andeq	r0, r0, #0, 0
     c24:	00007700 	andeq	r7, r0, r0, lsl #14
     c28:	00000000 	andeq	r0, r0, r0
     c2c:	01000000 	mrseq	r0, (UNDEF: 0)
     c30:	0000bc00 	andeq	fp, r0, r0, lsl #24
     c34:	0000d400 	andeq	sp, r0, r0, lsl #8
     c38:	77000200 	strvc	r0, [r0, -r0, lsl #4]
	...
     c50:	00034400 	andeq	r4, r3, r0, lsl #8
     c54:	00036c00 	andeq	r6, r3, r0, lsl #24
     c58:	50000100 	andpl	r0, r0, r0, lsl #2
     c5c:	0000036c 	andeq	r0, r0, ip, ror #6
     c60:	00000398 	muleq	r0, r8, r3
     c64:	98540001 	ldmdals	r4, {r0}^
     c68:	b0000003 	andlt	r0, r0, r3
     c6c:	01000003 	tsteq	r0, r3
     c70:	03b05000 	movseq	r5, #0, 0
     c74:	03b80000 			; <UNDEFINED> instruction: 0x03b80000
     c78:	00010000 	andeq	r0, r1, r0
     c7c:	0003b854 	andeq	fp, r3, r4, asr r8
     c80:	0003c800 	andeq	ip, r3, r0, lsl #16
     c84:	50000100 	andpl	r0, r0, r0, lsl #2
     c88:	000003c8 	andeq	r0, r0, r8, asr #7
     c8c:	000003e8 	andeq	r0, r0, r8, ror #7
     c90:	00540001 	subseq	r0, r4, r1
     c94:	00000000 	andeq	r0, r0, r0
     c98:	02000000 	andeq	r0, r0, #0, 0
     c9c:	00036400 	andeq	r6, r3, r0, lsl #8
     ca0:	00039800 	andeq	r9, r3, r0, lsl #16
     ca4:	40000400 	andmi	r0, r0, r0, lsl #8
     ca8:	009f2440 	addseq	r2, pc, r0, asr #8
	...
     cb4:	e8000000 	stmda	r0, {}	; <UNPREDICTABLE>
     cb8:	ef000003 	svc	0x00000003
     cbc:	01000003 	tsteq	r0, r3
     cc0:	03ef5000 	mvneq	r5, #0, 0
     cc4:	03f40000 	mvnseq	r0, #0, 0
     cc8:	00040000 	andeq	r0, r4, r0
     ccc:	9f5001f3 	svcls	0x005001f3
	...
     ce0:	0000001c 	andeq	r0, r0, ip, lsl r0
     ce4:	1c510001 	mrrcne	0, 0, r0, r1, cr1
     ce8:	78000000 	stmdavc	r0, {}	; <UNPREDICTABLE>
     cec:	04000000 	streq	r0, [r0], #-0
     cf0:	5101f300 	mrspl	pc, SP_irq	; <UNPREDICTABLE>
     cf4:	0000009f 	muleq	r0, pc, r0	; <UNPREDICTABLE>
	...
     d04:	00005800 	andeq	r5, r0, r0, lsl #16
     d08:	52000100 	andpl	r0, r0, #0
     d0c:	00000058 	andeq	r0, r0, r8, asr r0
     d10:	00000078 	andeq	r0, r0, r8, ror r0
     d14:	01f30004 	mvnseq	r0, r4
     d18:	00009f52 	andeq	r9, r0, r2, asr pc
     d1c:	00000000 	andeq	r0, r0, r0
     d20:	00020000 	andeq	r0, r2, r0
     d24:	00010100 	andeq	r0, r1, r0, lsl #2
     d28:	00010100 	andeq	r0, r1, r0, lsl #2
     d2c:	00010100 	andeq	r0, r1, r0, lsl #2
     d30:	00000000 	andeq	r0, r0, r0
     d34:	00000038 	andeq	r0, r0, r8, lsr r0
     d38:	54500001 	ldrbpl	r0, [r0], #-1
     d3c:	54000000 	strpl	r0, [r0], #-0
     d40:	01000000 	mrseq	r0, (UNDEF: 0)
     d44:	00545300 	subseq	r5, r4, r0, lsl #6
     d48:	005c0000 	subseq	r0, ip, r0
     d4c:	00030000 	andeq	r0, r3, r0
     d50:	5c9f0173 	ldfpls	f0, [pc], {115}	; 0x73
     d54:	64000000 	strvs	r0, [r0], #-0
     d58:	01000000 	mrseq	r0, (UNDEF: 0)
     d5c:	00645200 	rsbeq	r5, r4, r0, lsl #4
     d60:	00680000 	rsbeq	r0, r8, r0
     d64:	00030000 	andeq	r0, r3, r0
     d68:	689f0273 	ldmvs	pc, {r0, r1, r4, r5, r6, r9}	; <UNPREDICTABLE>
     d6c:	74000000 	strvc	r0, [r0], #-0
     d70:	01000000 	mrseq	r0, (UNDEF: 0)
     d74:	00745200 	rsbseq	r5, r4, r0, lsl #4
     d78:	00780000 	rsbseq	r0, r8, r0
     d7c:	00030000 	andeq	r0, r3, r0
     d80:	009f0172 	addseq	r0, pc, r2, ror r1	; <UNPREDICTABLE>
	...
     d8c:	00000800 	andeq	r0, r0, r0, lsl #16
     d90:	00007800 	andeq	r7, r0, r0, lsl #16
     d94:	54000100 	strpl	r0, [r0], #-256	; 0xffffff00
	...
     da4:	002c0000 	eoreq	r0, ip, r0
     da8:	00340000 	eorseq	r0, r4, r0
     dac:	00010000 	andeq	r0, r1, r0
     db0:	00003450 	andeq	r3, r0, r0, asr r4
     db4:	00004800 	andeq	r4, r0, r0, lsl #16
     db8:	54000100 	strpl	r0, [r0], #-256	; 0xffffff00
     dbc:	00000048 	andeq	r0, r0, r8, asr #32
     dc0:	00000058 	andeq	r0, r0, r8, asr r0
     dc4:	00500001 	subseq	r0, r0, r1
	...
     dd0:	01010000 	mrseq	r0, (UNDEF: 1)
     dd4:	00000000 	andeq	r0, r0, r0
     dd8:	0c000000 	stceq	0, cr0, [r0], {-0}
     ddc:	01000000 	mrseq	r0, (UNDEF: 0)
     de0:	000c5000 	andeq	r5, ip, r0
     de4:	00200000 	eoreq	r0, r0, r0
     de8:	00010000 	andeq	r0, r1, r0
     dec:	00002054 	andeq	r2, r0, r4, asr r0
     df0:	00002400 	andeq	r2, r0, r0, lsl #8
     df4:	74000300 	strvc	r0, [r0], #-768	; 0xfffffd00
     df8:	00249f01 	eoreq	r9, r4, r1, lsl #30
     dfc:	00380000 	eorseq	r0, r8, r0
     e00:	00010000 	andeq	r0, r1, r0
     e04:	00000054 	andeq	r0, r0, r4, asr r0
	...
     e14:	88000000 	stmdahi	r0, {}	; <UNPREDICTABLE>
     e18:	94000003 	strls	r0, [r0], #-3
     e1c:	01000003 	tsteq	r0, r3
     e20:	03945000 	orrseq	r5, r4, #0, 0
     e24:	03d00000 	bicseq	r0, r0, #0, 0
     e28:	00010000 	andeq	r0, r1, r0
     e2c:	0003d05b 	andeq	sp, r3, fp, asr r0
     e30:	00092000 	andeq	r2, r9, r0
     e34:	f3000400 	vshl.u8	d0, d0, d0
     e38:	209f5001 	addscs	r5, pc, r1
     e3c:	28000009 	stmdacs	r0, {r0, r3}
     e40:	01000009 	tsteq	r0, r9
     e44:	09285b00 	stmdbeq	r8!, {r8, r9, fp, ip, lr}
     e48:	09b40000 	ldmibeq	r4!, {}	; <UNPREDICTABLE>
     e4c:	00040000 	andeq	r0, r4, r0
     e50:	9f5001f3 	svcls	0x005001f3
	...
     e64:	00000388 	andeq	r0, r0, r8, lsl #7
     e68:	000003d0 	ldrdeq	r0, [r0], -r0	; <UNPREDICTABLE>
     e6c:	d0510001 	subsle	r0, r1, r1
     e70:	20000003 	andcs	r0, r0, r3
     e74:	04000009 	streq	r0, [r0], #-9
     e78:	5101f300 	mrspl	pc, SP_irq	; <UNPREDICTABLE>
     e7c:	0009209f 	muleq	r9, pc, r0	; <UNPREDICTABLE>
     e80:	00092800 	andeq	r2, r9, r0, lsl #16
     e84:	51000100 	mrspl	r0, (UNDEF: 16)
     e88:	00000928 	andeq	r0, r0, r8, lsr #18
     e8c:	000009b4 			; <UNDEFINED> instruction: 0x000009b4
     e90:	01f30004 	mvnseq	r0, r4
     e94:	00009f51 	andeq	r9, r0, r1, asr pc
	...
     ea4:	00000100 	andeq	r0, r0, r0, lsl #2
     ea8:	00000001 	andeq	r0, r0, r1
	...
     eb4:	03880000 	orreq	r0, r8, #0, 0
     eb8:	03d00000 	bicseq	r0, r0, #0, 0
     ebc:	00010000 	andeq	r0, r1, r0
     ec0:	0003d052 	andeq	sp, r3, r2, asr r0
     ec4:	00040000 	andeq	r0, r4, r0
     ec8:	56000100 	strpl	r0, [r0], -r0, lsl #2
     ecc:	00000414 	andeq	r0, r0, r4, lsl r4
     ed0:	00000424 	andeq	r0, r0, r4, lsr #8
     ed4:	24560001 	ldrbcs	r0, [r6], #-1
     ed8:	28000004 	stmdacs	r0, {r2}
     edc:	03000004 	movweq	r0, #4
     ee0:	9f7f7600 	svcls	0x007f7600
     ee4:	000004a8 	andeq	r0, r0, r8, lsr #9
     ee8:	000004ac 	andeq	r0, r0, ip, lsr #9
     eec:	e0560001 	subs	r0, r6, r1
     ef0:	04000004 	streq	r0, [r0], #-4
     ef4:	01000005 	tsteq	r0, r5
     ef8:	057c5600 	ldrbeq	r5, [ip, #-1536]!	; 0xfffffa00
     efc:	05880000 	streq	r0, [r8]
     f00:	00010000 	andeq	r0, r1, r0
     f04:	00058853 	andeq	r8, r5, r3, asr r8
     f08:	0005d000 	andeq	sp, r5, r0
     f0c:	91000300 	mrsls	r0, LR_irq
     f10:	08007dcc 	stmdaeq	r0, {r2, r3, r6, r7, r8, sl, fp, ip, sp, lr}
     f14:	080f0000 	stmdaeq	pc, {}	; <UNPREDICTABLE>
     f18:	00010000 	andeq	r0, r1, r0
     f1c:	00080f53 	andeq	r0, r8, r3, asr pc
     f20:	00088800 	andeq	r8, r8, r0, lsl #16
     f24:	91000300 	mrsls	r0, LR_irq
     f28:	09207dcc 	stmdbeq	r0!, {r2, r3, r6, r7, r8, sl, fp, ip, sp, lr}
     f2c:	09280000 	stmdbeq	r8!, {}	; <UNPREDICTABLE>
     f30:	00010000 	andeq	r0, r1, r0
     f34:	00094852 	andeq	r4, r9, r2, asr r8
     f38:	00096400 	andeq	r6, r9, r0, lsl #8
     f3c:	91000300 	mrsls	r0, LR_irq
     f40:	00007dcc 	andeq	r7, r0, ip, asr #27
	...
     f50:	01000000 	mrseq	r0, (UNDEF: 0)
     f54:	01000001 	tsteq	r0, r1
     f58:	00000001 	andeq	r0, r0, r1
     f5c:	00020200 	andeq	r0, r2, r0, lsl #4
     f60:	00020200 	andeq	r0, r2, r0, lsl #4
     f64:	00010100 	andeq	r0, r1, r0, lsl #2
     f68:	00020200 	andeq	r0, r2, r0, lsl #4
     f6c:	00010100 	andeq	r0, r1, r0, lsl #2
	...
     f78:	00000388 	andeq	r0, r0, r8, lsl #7
     f7c:	000003ac 	andeq	r0, r0, ip, lsr #7
     f80:	ac530001 	mrrcge	0, 0, r0, r3, cr1
     f84:	c0000003 	andgt	r0, r0, r3
     f88:	03000003 	movweq	r0, #3
     f8c:	04935300 	ldreq	r5, [r3], #768	; 0x300
     f90:	000003d0 	ldrdeq	r0, [r0], -r0	; <UNPREDICTABLE>
     f94:	000003e8 	andeq	r0, r0, r8, ror #7
     f98:	93580003 	cmpls	r8, #3, 0
     f9c:	0003e804 	andeq	lr, r3, r4, lsl #16
     fa0:	0004ac00 	andeq	sl, r4, r0, lsl #24
     fa4:	58000300 	stmdapl	r0, {r8, r9}
     fa8:	04c00493 	strbeq	r0, [r0], #1171	; 0x493
     fac:	04c00000 	strbeq	r0, [r0], #0
     fb0:	00030000 	andeq	r0, r3, r0
     fb4:	c0049358 	andgt	r9, r4, r8, asr r3
     fb8:	cc000004 	stcgt	0, cr0, [r0], {4}
     fbc:	05000004 	streq	r0, [r0, #-4]
     fc0:	9f047800 	svcls	0x00047800
     fc4:	04cc0493 	strbeq	r0, [ip], #1171	; 0x493
     fc8:	04e00000 	strbteq	r0, [r0], #0
     fcc:	00030000 	andeq	r0, r3, r0
     fd0:	e0049358 	and	r9, r4, r8, asr r3
     fd4:	38000004 	stmdacc	r0, {r2}
     fd8:	03000005 	movweq	r0, #5
     fdc:	04935800 	ldreq	r5, [r3], #2048	; 0x800
     fe0:	00000538 	andeq	r0, r0, r8, lsr r5
     fe4:	0000053c 	andeq	r0, r0, ip, lsr r5
     fe8:	79780005 	ldmdbvc	r8!, {r0, r2}^
     fec:	d004939f 	mulle	r4, pc, r3	; <UNPREDICTABLE>
     ff0:	d0000005 	andle	r0, r0, r5
     ff4:	03000005 	movweq	r0, #5
     ff8:	04935800 	ldreq	r5, [r3], #2048	; 0x800
     ffc:	000005d0 	ldrdeq	r0, [r0], -r0	; <UNPREDICTABLE>
    1000:	000005d4 	ldrdeq	r0, [r0], -r4
    1004:	04780005 	ldrbteq	r0, [r8], #-5
    1008:	f404939f 	vst2.32	{d9-d12}, [r4 :64]
    100c:	f4000005 	vst4.8	{d0-d3}, [r0], r5
    1010:	03000005 	movweq	r0, #5
    1014:	04935800 	ldreq	r5, [r3], #2048	; 0x800
    1018:	000005f4 	strdeq	r0, [r0], -r4
    101c:	000005fc 	strdeq	r0, [r0], -ip
    1020:	04780005 	ldrbteq	r0, [r8], #-5
    1024:	fc04939f 	stc2	3, cr9, [r4], {159}	; 0x9f
    1028:	fc000005 	stc2	0, cr0, [r0], {5}
    102c:	03000005 	movweq	r0, #5
    1030:	04935800 	ldreq	r5, [r3], #2048	; 0x800
    1034:	000005fc 	strdeq	r0, [r0], -ip
    1038:	00000600 	andeq	r0, r0, r0, lsl #12
    103c:	04780005 	ldrbteq	r0, [r8], #-5
    1040:	0004939f 	muleq	r4, pc, r3	; <UNPREDICTABLE>
    1044:	00000006 	andeq	r0, r0, r6
    1048:	03000007 	movweq	r0, #7
    104c:	04935800 	ldreq	r5, [r3], #2048	; 0x800
    1050:	00000700 	andeq	r0, r0, r0, lsl #14
    1054:	0000070c 	andeq	r0, r0, ip, lsl #14
    1058:	04780005 	ldrbteq	r0, [r8], #-5
    105c:	0c04939f 	stceq	3, cr9, [r4], {159}	; 0x9f
    1060:	f8000007 			; <UNDEFINED> instruction: 0xf8000007
    1064:	03000007 	movweq	r0, #7
    1068:	04935800 	ldreq	r5, [r3], #2048	; 0x800
    106c:	000007f8 	strdeq	r0, [r0], -r8
    1070:	000007fc 	strdeq	r0, [r0], -ip
    1074:	04780005 	ldrbteq	r0, [r8], #-5
    1078:	fc04939f 	stc2	3, cr9, [r4], {159}	; 0x9f
    107c:	00000007 	andeq	r0, r0, r7
    1080:	03000008 	movweq	r0, #8
    1084:	04935800 	ldreq	r5, [r3], #2048	; 0x800
    1088:	00000888 	andeq	r0, r0, r8, lsl #17
    108c:	00000920 	andeq	r0, r0, r0, lsr #18
    1090:	93580003 	cmpls	r8, #3, 0
    1094:	00092004 	andeq	r2, r9, r4
    1098:	00092800 	andeq	r2, r9, r0, lsl #16
    109c:	53000100 	movwpl	r0, #256	; 0x100
    10a0:	00000964 	andeq	r0, r0, r4, ror #18
    10a4:	000009b4 			; <UNDEFINED> instruction: 0x000009b4
    10a8:	93580003 	cmpls	r8, #3, 0
    10ac:	00000004 	andeq	r0, r0, r4
    10b0:	00000000 	andeq	r0, r0, r0
    10b4:	00000100 	andeq	r0, r0, r0, lsl #2
    10b8:	00000000 	andeq	r0, r0, r0
    10bc:	02020000 	andeq	r0, r2, #0, 0
    10c0:	01000000 	mrseq	r0, (UNDEF: 0)
    10c4:	00000101 	andeq	r0, r0, r1, lsl #2
    10c8:	ac000000 	stcge	0, cr0, [r0], {-0}
    10cc:	d0000003 	andle	r0, r0, r3
    10d0:	01000003 	tsteq	r0, r3
    10d4:	03d05b00 	bicseq	r5, r0, #0, 22
    10d8:	03d40000 	bicseq	r0, r4, #0, 0
    10dc:	00010000 	andeq	r0, r1, r0
    10e0:	0003d454 	andeq	sp, r3, r4, asr r4
    10e4:	0003d800 	andeq	sp, r3, r0, lsl #16
    10e8:	74000300 	strvc	r0, [r0], #-768	; 0xfffffd00
    10ec:	03d89f7f 	bicseq	r9, r8, #508	; 0x1fc
    10f0:	03fc0000 	mvnseq	r0, #0, 0
    10f4:	00010000 	andeq	r0, r1, r0
    10f8:	0004a854 	andeq	sl, r4, r4, asr r8
    10fc:	0004ac00 	andeq	sl, r4, r0, lsl #24
    1100:	54000100 	strpl	r0, [r0], #-256	; 0xffffff00
    1104:	000004ac 	andeq	r0, r0, ip, lsr #9
    1108:	000004b4 			; <UNDEFINED> instruction: 0x000004b4
    110c:	01740003 	cmneq	r4, r3
    1110:	0004b49f 	muleq	r4, pc, r4	; <UNPREDICTABLE>
    1114:	0004c000 	andeq	ip, r4, r0
    1118:	54000100 	strpl	r0, [r0], #-256	; 0xffffff00
    111c:	000004e4 	andeq	r0, r0, r4, ror #9
    1120:	000004f4 	strdeq	r0, [r0], -r4
    1124:	f4540001 			; <UNDEFINED> instruction: 0xf4540001
    1128:	f8000004 			; <UNDEFINED> instruction: 0xf8000004
    112c:	03000004 	movweq	r0, #4
    1130:	9f017400 	svcls	0x00017400
    1134:	000004f8 	strdeq	r0, [r0], -r8
    1138:	00000504 	andeq	r0, r0, r4, lsl #10
    113c:	20540001 	subscs	r0, r4, r1
    1140:	28000009 	stmdacs	r0, {r0, r3}
    1144:	01000009 	tsteq	r0, r9
    1148:	00005b00 	andeq	r5, r0, r0, lsl #22
    114c:	00000000 	andeq	r0, r0, r0
    1150:	00010000 	andeq	r0, r1, r0
    1154:	000003ac 	andeq	r0, r0, ip, lsr #7
    1158:	000009b4 			; <UNDEFINED> instruction: 0x000009b4
    115c:	00570001 	subseq	r0, r7, r1
    1160:	00000000 	andeq	r0, r0, r0
    1164:	02000000 	andeq	r0, r0, #0, 0
    1168:	00000000 	andeq	r0, r0, r0
    116c:	00057c00 	andeq	r7, r5, r0, lsl #24
    1170:	0005d000 	andeq	sp, r5, r0
    1174:	5b000100 	blpl	157c <__code_start__-0x6a84>
    1178:	00000800 	andeq	r0, r0, r0, lsl #16
    117c:	00000888 	andeq	r0, r0, r8, lsl #17
    1180:	485b0001 	ldmdami	fp, {r0}^
    1184:	64000009 	strvs	r0, [r0], #-9
    1188:	01000009 	tsteq	r0, r9
    118c:	00005b00 	andeq	r5, r0, r0, lsl #22
    1190:	00000000 	andeq	r0, r0, r0
    1194:	00030000 	andeq	r0, r3, r0
    1198:	00000000 	andeq	r0, r0, r0
    119c:	0000057c 	andeq	r0, r0, ip, ror r5
    11a0:	000005d0 	ldrdeq	r0, [r0], -r0	; <UNPREDICTABLE>
    11a4:	00590001 	subseq	r0, r9, r1
    11a8:	88000008 	stmdahi	r0, {r3}
    11ac:	01000008 	tsteq	r0, r8
    11b0:	09485900 	stmdbeq	r8, {r8, fp, ip, lr}^
    11b4:	09640000 	stmdbeq	r4!, {}^	; <UNPREDICTABLE>
    11b8:	00010000 	andeq	r0, r1, r0
    11bc:	00000059 	andeq	r0, r0, r9, asr r0
    11c0:	00000000 	andeq	r0, r0, r0
    11c4:	00000400 	andeq	r0, r0, r0, lsl #8
    11c8:	00000000 	andeq	r0, r0, r0
    11cc:	0003ac00 	andeq	sl, r3, r0, lsl #24
    11d0:	0003d000 	andeq	sp, r3, r0
    11d4:	52000100 	andpl	r0, r0, #0
    11d8:	000003d0 	ldrdeq	r0, [r0], -r0	; <UNPREDICTABLE>
    11dc:	00000920 	andeq	r0, r0, r0, lsr #18
    11e0:	01f30004 	mvnseq	r0, r4
    11e4:	09209f52 	stmdbeq	r0!, {r1, r4, r6, r8, r9, sl, fp, ip, pc}
    11e8:	09280000 	stmdbeq	r8!, {}	; <UNPREDICTABLE>
    11ec:	00010000 	andeq	r0, r1, r0
    11f0:	00092852 	andeq	r2, r9, r2, asr r8
    11f4:	0009b400 	andeq	fp, r9, r0, lsl #8
    11f8:	f3000400 	vshl.u8	d0, d0, d0
    11fc:	009f5201 	addseq	r5, pc, r1, lsl #4
	...
    1208:	00000101 	andeq	r0, r0, r1, lsl #2
    120c:	01000000 	mrseq	r0, (UNDEF: 0)
    1210:	e0000000 	and	r0, r0, r0
    1214:	e0000004 	and	r0, r0, r4
    1218:	01000004 	tsteq	r0, r4
    121c:	04e05000 	strbteq	r5, [r0], #0
    1220:	04e80000 	strbteq	r0, [r8], #0
    1224:	00010000 	andeq	r0, r1, r0
    1228:	0005b855 	andeq	fp, r5, r5, asr r8
    122c:	0005d000 	andeq	sp, r5, r0
    1230:	55000100 	strpl	r0, [r0, #-256]	; 0xffffff00
    1234:	000005f0 	strdeq	r0, [r0], -r0	; <UNPREDICTABLE>
    1238:	000005f4 	strdeq	r0, [r0], -r4
    123c:	f4500001 			; <UNDEFINED> instruction: 0xf4500001
    1240:	f8000007 			; <UNDEFINED> instruction: 0xf8000007
    1244:	01000007 	tsteq	r0, r7
    1248:	08505500 	ldmdaeq	r0, {r8, sl, ip, lr}^
    124c:	08880000 	stmeq	r8, {}	; <UNPREDICTABLE>
    1250:	00010000 	andeq	r0, r1, r0
    1254:	00000055 	andeq	r0, r0, r5, asr r0
    1258:	00000000 	andeq	r0, r0, r0
    125c:	00000200 	andeq	r0, r0, r0, lsl #4
    1260:	00000000 	andeq	r0, r0, r0
    1264:	00041400 	andeq	r1, r4, r0, lsl #8
    1268:	00041800 	andeq	r1, r4, r0, lsl #16
    126c:	30000200 	andcc	r0, r0, r0, lsl #4
    1270:	0004189f 	muleq	r4, pc, r8	; <UNPREDICTABLE>
    1274:	00041c00 	andeq	r1, r4, r0, lsl #24
    1278:	55000100 	strpl	r0, [r0, #-256]	; 0xffffff00
    127c:	00000428 	andeq	r0, r0, r8, lsr #8
    1280:	0000043c 	andeq	r0, r0, ip, lsr r4
    1284:	28550001 	ldmdacs	r5, {r0}^
    1288:	30000009 	andcc	r0, r0, r9
    128c:	01000009 	tsteq	r0, r9
    1290:	00005500 	andeq	r5, r0, r0, lsl #10
    1294:	00000000 	andeq	r0, r0, r0
    1298:	00010000 	andeq	r0, r1, r0
	...
    12a4:	05040000 	streq	r0, [r4, #-0]
    12a8:	05840000 	streq	r0, [r4]
    12ac:	00010000 	andeq	r0, r1, r0
    12b0:	00058456 	andeq	r8, r5, r6, asr r4
    12b4:	00058800 	andeq	r8, r5, r0, lsl #16
    12b8:	73000300 	movwvc	r0, #768	; 0x300
    12bc:	05889f7e 	streq	r9, [r8, #3966]	; 0xf7e
    12c0:	05d00000 	ldrbeq	r0, [r0]
    12c4:	00070000 	andeq	r0, r7, r0
    12c8:	067dcc91 			; <UNDEFINED> instruction: 0x067dcc91
    12cc:	009f1c32 	addseq	r1, pc, r2, lsr ip	; <UNPREDICTABLE>
    12d0:	1c000008 	stcne	0, cr0, [r0], {8}
    12d4:	01000008 	tsteq	r0, r8
    12d8:	081c5600 	ldmdaeq	ip, {r9, sl, ip, lr}
    12dc:	08880000 	stmeq	r8, {}	; <UNPREDICTABLE>
    12e0:	00070000 	andeq	r0, r7, r0
    12e4:	067dcc91 			; <UNDEFINED> instruction: 0x067dcc91
    12e8:	489f1c32 	ldmmi	pc, {r1, r4, r5, sl, fp, ip}	; <UNPREDICTABLE>
    12ec:	b4000009 	strlt	r0, [r0], #-9
    12f0:	01000009 	tsteq	r0, r9
    12f4:	00005600 	andeq	r5, r0, r0, lsl #12
    12f8:	00000000 	andeq	r0, r0, r0
    12fc:	06040000 	streq	r0, [r4], -r0
    1300:	04140402 	ldreq	r0, [r4], #-1026	; 0xfffffbfe
    1304:	04140000 	ldreq	r0, [r4], #-0
    1308:	00060000 	andeq	r0, r6, r0
    130c:	ff080072 			; <UNDEFINED> instruction: 0xff080072
    1310:	04289f1a 	strteq	r9, [r8], #-3866	; 0xfffff0e6
    1314:	04280000 	strteq	r0, [r8], #-0
    1318:	00060000 	andeq	r0, r6, r0
    131c:	ff080072 			; <UNDEFINED> instruction: 0xff080072
    1320:	00009f1a 	andeq	r9, r0, sl, lsl pc
    1324:	00000000 	andeq	r0, r0, r0
    1328:	00020000 	andeq	r0, r2, r0
    132c:	00000000 	andeq	r0, r0, r0
    1330:	000005fc 	strdeq	r0, [r0], -ip
    1334:	00000700 	andeq	r0, r0, r0, lsl #14
    1338:	80080003 	andhi	r0, r8, r3
    133c:	0008a89f 	muleq	r8, pc, r8	; <UNPREDICTABLE>
    1340:	0008bc00 	andeq	fp, r8, r0, lsl #24
    1344:	08000300 	stmdaeq	r0, {r8, r9}
    1348:	09109f80 	ldmdbeq	r0, {r7, r8, r9, sl, fp, ip, pc}
    134c:	09200000 	stmdbeq	r0!, {}	; <UNPREDICTABLE>
    1350:	00030000 	andeq	r0, r3, r0
    1354:	009f8008 	addseq	r8, pc, r8
    1358:	00000000 	andeq	r0, r0, r0
    135c:	01000000 	mrseq	r0, (UNDEF: 0)
    1360:	00000000 	andeq	r0, r0, r0
    1364:	0005fc00 	andeq	pc, r5, r0, lsl #24
    1368:	00070000 	andeq	r0, r7, r0
    136c:	30000200 	andcc	r0, r0, r0, lsl #4
    1370:	0008a89f 	muleq	r8, pc, r8	; <UNPREDICTABLE>
    1374:	0008bc00 	andeq	fp, r8, r0, lsl #24
    1378:	30000200 	andcc	r0, r0, r0, lsl #4
    137c:	0009109f 	muleq	r9, pc, r0	; <UNPREDICTABLE>
    1380:	00092000 	andeq	r2, r9, r0
    1384:	30000200 	andcc	r0, r0, r0, lsl #4
    1388:	0000009f 	muleq	r0, pc, r0	; <UNPREDICTABLE>
    138c:	00000000 	andeq	r0, r0, r0
    1390:	00000100 	andeq	r0, r0, r0, lsl #2
    1394:	fc000000 	stc2	0, cr0, [r0], {-0}
    1398:	e0000005 	and	r0, r0, r5
    139c:	01000006 	tsteq	r0, r6
    13a0:	08a85500 	stmiaeq	r8!, {r8, sl, ip, lr}
    13a4:	08bc0000 	ldmeq	ip!, {}	; <UNPREDICTABLE>
    13a8:	00010000 	andeq	r0, r1, r0
    13ac:	00091055 	andeq	r1, r9, r5, asr r0
    13b0:	00092000 	andeq	r2, r9, r0
    13b4:	55000100 	strpl	r0, [r0, #-256]	; 0xffffff00
	...
    13c0:	00000001 	andeq	r0, r0, r1
    13c4:	00000000 	andeq	r0, r0, r0
    13c8:	000005fc 	strdeq	r0, [r0], -ip
    13cc:	000006e0 	andeq	r0, r0, r0, ror #13
    13d0:	d0910004 	addsle	r0, r1, r4
    13d4:	06e09f7d 			; <UNDEFINED> instruction: 0x06e09f7d
    13d8:	07000000 	streq	r0, [r0, -r0]
    13dc:	00010000 	andeq	r0, r1, r0
    13e0:	0008a855 	andeq	sl, r8, r5, asr r8
    13e4:	0008bc00 	andeq	fp, r8, r0, lsl #24
    13e8:	91000400 	tstls	r0, r0, lsl #8
    13ec:	109f7dd0 			; <UNDEFINED> instruction: 0x109f7dd0
    13f0:	20000009 	andcs	r0, r0, r9
    13f4:	04000009 	streq	r0, [r0], #-9
    13f8:	7dd09100 	ldfvcp	f1, [r0]
    13fc:	0000009f 	muleq	r0, pc, r0	; <UNPREDICTABLE>
    1400:	00000000 	andeq	r0, r0, r0
    1404:	00000100 	andeq	r0, r0, r0, lsl #2
    1408:	fc000000 	stc2	0, cr0, [r0], {-0}
    140c:	00000005 	andeq	r0, r0, r5
    1410:	02000007 	andeq	r0, r0, #7, 0
    1414:	a89f3800 	ldmge	pc, {fp, ip, sp}	; <UNPREDICTABLE>
    1418:	bc000008 	stclt	0, cr0, [r0], {8}
    141c:	02000008 	andeq	r0, r0, #8, 0
    1420:	109f3800 	addsne	r3, pc, r0, lsl #16
    1424:	20000009 	andcs	r0, r0, r9
    1428:	02000009 	andeq	r0, r0, #9, 0
    142c:	009f3800 	addseq	r3, pc, r0, lsl #16
    1430:	00000000 	andeq	r0, r0, r0
    1434:	04000000 	streq	r0, [r0], #-0
    1438:	00000707 	andeq	r0, r0, r7, lsl #14
	...
    1444:	0005fc00 	andeq	pc, r5, r0, lsl #24
    1448:	0005fc00 	andeq	pc, r5, r0, lsl #24
    144c:	91000400 	tstls	r0, r0, lsl #8
    1450:	fc9f7ed0 	ldc2	14, cr7, [pc], {208}	; 0xd0
    1454:	78000005 	stmdavc	r0, {r0, r2}
    1458:	04000006 	streq	r0, [r0], #-6
    145c:	7ed19100 	atnvcs	f1, f0
    1460:	0006789f 	muleq	r6, pc, r8	; <UNPREDICTABLE>
    1464:	0006d400 	andeq	sp, r6, r0, lsl #8
    1468:	5c000100 	stfpls	f0, [r0], {-0}
    146c:	000006d4 	ldrdeq	r0, [r0], -r4
    1470:	00000700 	andeq	r0, r0, r0, lsl #14
    1474:	d1910004 	orrsle	r0, r1, r4
    1478:	08a89f7e 	stmiaeq	r8!, {r1, r2, r3, r4, r5, r6, r8, r9, sl, fp, ip, pc}
    147c:	08bc0000 	ldmeq	ip!, {}	; <UNPREDICTABLE>
    1480:	00040000 	andeq	r0, r4, r0
    1484:	9f7ed191 	svcls	0x007ed191
    1488:	00000910 	andeq	r0, r0, r0, lsl r9
    148c:	00000914 	andeq	r0, r0, r4, lsl r9
    1490:	d1910004 	orrsle	r0, r1, r4
    1494:	09149f7e 	ldmdbeq	r4, {r1, r2, r3, r4, r5, r6, r8, r9, sl, fp, ip, pc}
    1498:	09200000 	stmdbeq	r0!, {}	; <UNPREDICTABLE>
    149c:	00010000 	andeq	r0, r1, r0
    14a0:	0000005c 	andeq	r0, r0, ip, asr r0
    14a4:	00000000 	andeq	r0, r0, r0
    14a8:	00010400 	andeq	r0, r1, r0, lsl #8
    14ac:	08000001 	stmdaeq	r0, {r0}
    14b0:	d0000006 	andle	r0, r0, r6
    14b4:	01000006 	tsteq	r0, r6
    14b8:	08a85500 	stmiaeq	r8!, {r8, sl, ip, lr}
    14bc:	08b80000 	ldmeq	r8!, {}	; <UNPREDICTABLE>
    14c0:	00010000 	andeq	r0, r1, r0
    14c4:	00091055 	andeq	r1, r9, r5, asr r0
    14c8:	00092000 	andeq	r2, r9, r0
    14cc:	55000100 	strpl	r0, [r0, #-256]	; 0xffffff00
	...
    14d8:	00000004 	andeq	r0, r0, r4
    14dc:	00000100 	andeq	r0, r0, r0, lsl #2
    14e0:	00000100 	andeq	r0, r0, r0, lsl #2
    14e4:	00000608 	andeq	r0, r0, r8, lsl #12
    14e8:	000006b0 			; <UNDEFINED> instruction: 0x000006b0
    14ec:	d0910004 	addsle	r0, r1, r4
    14f0:	06b09f7e 			; <UNDEFINED> instruction: 0x06b09f7e
    14f4:	06c80000 	strbeq	r0, [r8], r0
    14f8:	00010000 	andeq	r0, r1, r0
    14fc:	0006c850 	andeq	ip, r6, r0, asr r8
    1500:	0006d000 	andeq	sp, r6, r0
    1504:	91000400 	tstls	r0, r0, lsl #8
    1508:	a89f7ed0 	ldmge	pc, {r4, r6, r7, r9, sl, fp, ip, sp, lr}	; <UNPREDICTABLE>
    150c:	b0000008 	andlt	r0, r0, r8
    1510:	04000008 	streq	r0, [r0], #-8
    1514:	7ed09100 	atnvcs	f1, f0
    1518:	0008b09f 	muleq	r8, pc, r0	; <UNPREDICTABLE>
    151c:	0008b800 	andeq	fp, r8, r0, lsl #16
    1520:	53000100 	movwpl	r0, #256	; 0x100
    1524:	00000910 	andeq	r0, r0, r0, lsl r9
    1528:	00000920 	andeq	r0, r0, r0, lsr #18
    152c:	d0910004 	addsle	r0, r1, r4
    1530:	00009f7e 	andeq	r9, r0, lr, ror pc
    1534:	00000000 	andeq	r0, r0, r0
    1538:	00040000 	andeq	r0, r4, r0
    153c:	01010100 	mrseq	r0, (UNDEF: 17)
    1540:	02030301 	andeq	r0, r3, #67108864	; 0x4000000
    1544:	00000100 	andeq	r0, r0, r0, lsl #2
    1548:	06080000 	streq	r0, [r8], -r0
    154c:	06240000 	strteq	r0, [r4], -r0
    1550:	00040000 	andeq	r0, r4, r0
    1554:	9f7ed191 	svcls	0x007ed191
    1558:	00000684 	andeq	r0, r0, r4, lsl #13
    155c:	00000684 	andeq	r0, r0, r4, lsl #13
    1560:	84500001 	ldrbhi	r0, [r0], #-1
    1564:	98000006 	stmdals	r0, {r1, r2}
    1568:	03000006 	movweq	r0, #6
    156c:	9f017000 	svcls	0x00017000
    1570:	00000698 	muleq	r0, r8, r6
    1574:	000006a4 	andeq	r0, r0, r4, lsr #13
    1578:	02700003 	rsbseq	r0, r0, #3, 0
    157c:	0006a49f 	muleq	r6, pc, r4	; <UNPREDICTABLE>
    1580:	0006a800 	andeq	sl, r6, r0, lsl #16
    1584:	70000300 	andvc	r0, r0, r0, lsl #6
    1588:	08a89f03 	stmiaeq	r8!, {r0, r1, r8, r9, sl, fp, ip, pc}
    158c:	08b80000 	ldmeq	r8!, {}	; <UNPREDICTABLE>
    1590:	00040000 	andeq	r0, r4, r0
    1594:	9f7ed191 	svcls	0x007ed191
    1598:	00000910 	andeq	r0, r0, r0, lsl r9
    159c:	00000914 	andeq	r0, r0, r4, lsl r9
    15a0:	d1910004 	orrsle	r0, r1, r4
    15a4:	09149f7e 	ldmdbeq	r4, {r1, r2, r3, r4, r5, r6, r8, r9, sl, fp, ip, pc}
    15a8:	09200000 	stmdbeq	r0!, {}	; <UNPREDICTABLE>
    15ac:	00010000 	andeq	r0, r1, r0
    15b0:	0000005c 	andeq	r0, r0, ip, asr r0
    15b4:	00000000 	andeq	r0, r0, r0
    15b8:	00000600 	andeq	r0, r0, r0, lsl #12
    15bc:	01010101 	tsteq	r1, r1, lsl #2
    15c0:	00020101 	andeq	r0, r2, r1, lsl #2
    15c4:	08000001 	stmdaeq	r0, {r0}
    15c8:	24000006 	strcs	r0, [r0], #-6
    15cc:	02000006 	andeq	r0, r0, #6, 0
    15d0:	849f3100 	ldrhi	r3, [pc], #256	; 15d8 <__code_start__-0x6a28>
    15d4:	94000006 	strls	r0, [r0], #-6
    15d8:	01000006 	tsteq	r0, r6
    15dc:	06945200 	ldreq	r5, [r4], r0, lsl #4
    15e0:	06a40000 	strteq	r0, [r4], r0
    15e4:	00010000 	andeq	r0, r1, r0
    15e8:	0006a459 	andeq	sl, r6, r9, asr r4
    15ec:	0006a800 	andeq	sl, r6, r0, lsl #16
    15f0:	52000100 	andpl	r0, r0, #0
    15f4:	000006a8 	andeq	r0, r0, r8, lsr #13
    15f8:	000006a8 	andeq	r0, r0, r8, lsr #13
    15fc:	01720003 	cmneq	r2, r3
    1600:	0008a89f 	muleq	r8, pc, r8	; <UNPREDICTABLE>
    1604:	0008b800 	andeq	fp, r8, r0, lsl #16
    1608:	31000200 	mrscc	r0, R8_usr
    160c:	0009109f 	muleq	r9, pc, r0	; <UNPREDICTABLE>
    1610:	00092000 	andeq	r2, r9, r0
    1614:	31000200 	mrscc	r0, R8_usr
    1618:	0000009f 	muleq	r0, pc, r0	; <UNPREDICTABLE>
    161c:	00000000 	andeq	r0, r0, r0
    1620:	06060100 	streq	r0, [r6], -r0, lsl #2
    1624:	d0000100 	andle	r0, r0, r0, lsl #2
    1628:	d0000006 	andle	r0, r0, r6
    162c:	04000006 	streq	r0, [r0], #-6
    1630:	7ed09100 	atnvcs	f1, f0
    1634:	0006d09f 	muleq	r6, pc, r0	; <UNPREDICTABLE>
    1638:	00070000 	andeq	r0, r7, r0
    163c:	50000100 	andpl	r0, r0, r0, lsl #2
    1640:	000008b8 			; <UNDEFINED> instruction: 0x000008b8
    1644:	000008bc 			; <UNDEFINED> instruction: 0x000008bc
    1648:	00530001 	subseq	r0, r3, r1
    164c:	00000000 	andeq	r0, r0, r0
    1650:	01000000 	mrseq	r0, (UNDEF: 0)
    1654:	00000008 	andeq	r0, r0, r8
    1658:	01000101 	tsteq	r0, r1, lsl #2
    165c:	0006d007 	andeq	sp, r6, r7
    1660:	0006d000 	andeq	sp, r6, r0
    1664:	7c000600 	stcvc	6, cr0, [r0], {-0}
    1668:	22007100 	andcs	r7, r0, #0
    166c:	0006e49f 	muleq	r6, pc, r4	; <UNPREDICTABLE>
    1670:	0006e800 	andeq	lr, r6, r0, lsl #16
    1674:	73000300 	movwvc	r0, #768	; 0x300
    1678:	06e89f7f 			; <UNDEFINED> instruction: 0x06e89f7f
    167c:	06f00000 	ldrbteq	r0, [r0], r0
    1680:	00010000 	andeq	r0, r1, r0
    1684:	0006f053 	andeq	pc, r6, r3, asr r0	; <UNPREDICTABLE>
    1688:	0006f800 	andeq	pc, r6, r0, lsl #16
    168c:	73000300 	movwvc	r0, #768	; 0x300
    1690:	08b89f7f 	ldmeq	r8!, {r0, r1, r2, r3, r4, r5, r6, r8, r9, sl, fp, ip, pc}
    1694:	08b80000 	ldmeq	r8!, {}	; <UNPREDICTABLE>
    1698:	00040000 	andeq	r0, r4, r0
    169c:	9f7ed191 	svcls	0x007ed191
	...
    16a8:	00010001 	andeq	r0, r1, r1
    16ac:	000006d0 	ldrdeq	r0, [r0], -r0	; <UNPREDICTABLE>
    16b0:	00000700 	andeq	r0, r0, r0, lsl #14
    16b4:	80080003 	andhi	r0, r8, r3
    16b8:	0008b89f 	muleq	r8, pc, r8	; <UNPREDICTABLE>
    16bc:	0008bc00 	andeq	fp, r8, r0, lsl #24
    16c0:	08000300 	stmdaeq	r0, {r8, r9}
    16c4:	00009f80 	andeq	r9, r0, r0, lsl #31
    16c8:	00000000 	andeq	r0, r0, r0
    16cc:	00010000 	andeq	r0, r1, r0
    16d0:	01000000 	mrseq	r0, (UNDEF: 0)
    16d4:	00000001 	andeq	r0, r0, r1
    16d8:	00010102 	andeq	r0, r1, r2, lsl #2
    16dc:	000006d0 	ldrdeq	r0, [r0], -r0	; <UNPREDICTABLE>
    16e0:	000006e0 	andeq	r0, r0, r0, ror #13
    16e4:	d0910004 	addsle	r0, r1, r4
    16e8:	06e09f7d 			; <UNDEFINED> instruction: 0x06e09f7d
    16ec:	06e40000 	strbteq	r0, [r4], r0
    16f0:	00010000 	andeq	r0, r1, r0
    16f4:	0006e455 	andeq	lr, r6, r5, asr r4
    16f8:	0006e400 	andeq	lr, r6, r0, lsl #8
    16fc:	72000300 	andvc	r0, r0, #0, 6
    1700:	06e49f01 	strbteq	r9, [r4], r1, lsl #30
    1704:	06f00000 	ldrbteq	r0, [r0], r0
    1708:	00030000 	andeq	r0, r3, r0
    170c:	f09f0272 			; <UNDEFINED> instruction: 0xf09f0272
    1710:	00000006 	andeq	r0, r0, r6
    1714:	03000007 	movweq	r0, #7
    1718:	9f017200 	svcls	0x00017200
    171c:	000007ec 	andeq	r0, r0, ip, ror #15
    1720:	000007f4 	strdeq	r0, [r0], -r4
    1724:	01730003 	cmneq	r3, r3
    1728:	0008b89f 	muleq	r8, pc, r8	; <UNPREDICTABLE>
    172c:	0008bc00 	andeq	fp, r8, r0, lsl #24
    1730:	91000400 	tstls	r0, r0, lsl #8
    1734:	009f7dd0 			; <UNDEFINED> instruction: 0x009f7dd0
    1738:	00000000 	andeq	r0, r0, r0
    173c:	04000000 	streq	r0, [r0], #-0
    1740:	0008b800 	andeq	fp, r8, r0, lsl #16
    1744:	0008bc00 	andeq	fp, r8, r0, lsl #24
    1748:	32000200 	andcc	r0, r0, #0, 4
    174c:	0000009f 	muleq	r0, pc, r0	; <UNPREDICTABLE>
    1750:	00000000 	andeq	r0, r0, r0
    1754:	00000700 	andeq	r0, r0, r0, lsl #14
    1758:	d0000600 	andle	r0, r0, r0, lsl #12
    175c:	e0000006 	and	r0, r0, r6
    1760:	04000006 	streq	r0, [r0], #-6
    1764:	7dd09100 	ldfvcp	f1, [r0]
    1768:	0006e09f 	muleq	r6, pc, r0	; <UNPREDICTABLE>
    176c:	00070000 	andeq	r0, r7, r0
    1770:	55000100 	strpl	r0, [r0, #-256]	; 0xffffff00
    1774:	000008b8 			; <UNDEFINED> instruction: 0x000008b8
    1778:	000008bc 			; <UNDEFINED> instruction: 0x000008bc
    177c:	d0910004 	addsle	r0, r1, r4
    1780:	00009f7d 	andeq	r9, r0, sp, ror pc
    1784:	00000000 	andeq	r0, r0, r0
    1788:	00010000 	andeq	r0, r1, r0
    178c:	070c0000 	streq	r0, [ip, -r0]
    1790:	07ec0000 	strbeq	r0, [ip, r0]!
    1794:	00030000 	andeq	r0, r3, r0
    1798:	949f8008 	ldrls	r8, [pc], #8	; 17a0 <__code_start__-0x6860>
    179c:	a8000008 	stmdage	r0, {r3}
    17a0:	03000008 	movweq	r0, #8
    17a4:	9f800800 	svcls	0x00800800
	...
    17b4:	0000070c 	andeq	r0, r0, ip, lsl #14
    17b8:	000007ec 	andeq	r0, r0, ip, ror #15
    17bc:	9f300002 	svcls	0x00300002
    17c0:	00000894 	muleq	r0, r4, r8
    17c4:	000008a8 	andeq	r0, r0, r8, lsr #17
    17c8:	9f300002 	svcls	0x00300002
	...
    17d8:	0000070c 	andeq	r0, r0, ip, lsl #14
    17dc:	000007d0 	ldrdeq	r0, [r0], -r0	; <UNPREDICTABLE>
    17e0:	94550001 	ldrbls	r0, [r5], #-1
    17e4:	a8000008 	stmdage	r0, {r3}
    17e8:	01000008 	tsteq	r0, r8
    17ec:	00005500 	andeq	r5, r0, r0, lsl #10
	...
    17fc:	0000070c 	andeq	r0, r0, ip, lsl #14
    1800:	000007d0 	ldrdeq	r0, [r0], -r0	; <UNPREDICTABLE>
    1804:	d0910004 	addsle	r0, r1, r4
    1808:	07d09f7d 			; <UNDEFINED> instruction: 0x07d09f7d
    180c:	07ec0000 	strbeq	r0, [ip, r0]!
    1810:	00010000 	andeq	r0, r1, r0
    1814:	00089455 	andeq	r9, r8, r5, asr r4
    1818:	0008a800 	andeq	sl, r8, r0, lsl #16
    181c:	91000400 	tstls	r0, r0, lsl #8
    1820:	009f7dd0 			; <UNDEFINED> instruction: 0x009f7dd0
	...
    182c:	0c000000 	stceq	0, cr0, [r0], {-0}
    1830:	ec000007 	stc	0, cr0, [r0], {7}
    1834:	02000007 	andeq	r0, r0, #7, 0
    1838:	949f3200 	ldrls	r3, [pc], #512	; 1840 <__code_start__-0x67c0>
    183c:	a8000008 	stmdage	r0, {r3}
    1840:	02000008 	andeq	r0, r0, #8, 0
    1844:	009f3200 	addseq	r3, pc, r0, lsl #4
    1848:	00000000 	andeq	r0, r0, r0
    184c:	03000000 	movweq	r0, #0
    1850:	00000505 	andeq	r0, r0, r5, lsl #10
    1854:	00000000 	andeq	r0, r0, r0
    1858:	00070c00 	andeq	r0, r7, r0, lsl #24
    185c:	00070c00 	andeq	r0, r7, r0, lsl #24
    1860:	51000100 	mrspl	r0, (UNDEF: 16)
    1864:	0000070c 	andeq	r0, r0, ip, lsl #14
    1868:	0000071c 	andeq	r0, r0, ip, lsl r7
    186c:	1c530001 	mrrcne	0, 0, r0, r3, cr1
    1870:	24000007 	strcs	r0, [r0], #-7
    1874:	03000007 	movweq	r0, #7
    1878:	9f017200 	svcls	0x00017200
    187c:	00000724 	andeq	r0, r0, r4, lsr #14
    1880:	000007cc 	andeq	r0, r0, ip, asr #15
    1884:	94530001 	ldrbls	r0, [r3], #-1
    1888:	a8000008 	stmdage	r0, {r3}
    188c:	01000008 	tsteq	r0, r8
    1890:	00005300 	andeq	r5, r0, r0, lsl #6
    1894:	00000000 	andeq	r0, r0, r0
    1898:	00050000 	andeq	r0, r5, r0
    189c:	070c0001 	streq	r0, [ip, -r1]
    18a0:	07200000 	streq	r0, [r0, -r0]!
    18a4:	00010000 	andeq	r0, r1, r0
    18a8:	00072450 	andeq	r2, r7, r0, asr r4
    18ac:	00072c00 	andeq	r2, r7, r0, lsl #24
    18b0:	50000100 	andpl	r0, r0, r0, lsl #2
	...
    18bc:	01000103 	tsteq	r0, r3, lsl #2
    18c0:	00000728 	andeq	r0, r0, r8, lsr #14
    18c4:	000007b0 			; <UNDEFINED> instruction: 0x000007b0
    18c8:	94550001 	ldrbls	r0, [r5], #-1
    18cc:	a0000008 	andge	r0, r0, r8
    18d0:	01000008 	tsteq	r0, r8
    18d4:	00005500 	andeq	r5, r0, r0, lsl #10
    18d8:	00000000 	andeq	r0, r0, r0
    18dc:	01030000 	mrseq	r0, (UNDEF: 3)
    18e0:	07280100 	streq	r0, [r8, -r0, lsl #2]!
    18e4:	07b00000 	ldreq	r0, [r0, r0]!
    18e8:	00010000 	andeq	r0, r1, r0
    18ec:	00089451 	andeq	r9, r8, r1, asr r4
    18f0:	0008a000 	andeq	sl, r8, r0
    18f4:	51000100 	mrspl	r0, (UNDEF: 16)
	...
    1900:	01000003 	tsteq	r0, r3
    1904:	03010101 	movweq	r0, #4353	; 0x1101
    1908:	01000203 	tsteq	r0, r3, lsl #4
    190c:	00000728 	andeq	r0, r0, r8, lsr #14
    1910:	00000750 	andeq	r0, r0, r0, asr r7
    1914:	74530001 	ldrbvc	r0, [r3], #-1
    1918:	74000007 	strvc	r0, [r0], #-7
    191c:	01000007 	tsteq	r0, r7
    1920:	07745e00 	ldrbeq	r5, [r4, -r0, lsl #28]!
    1924:	07880000 	streq	r0, [r8, r0]
    1928:	00030000 	andeq	r0, r3, r0
    192c:	889f017e 	ldmhi	pc, {r1, r2, r3, r4, r5, r6, r8}	; <UNPREDICTABLE>
    1930:	94000007 	strls	r0, [r0], #-7
    1934:	03000007 	movweq	r0, #7
    1938:	9f027e00 	svcls	0x00027e00
    193c:	00000794 	muleq	r0, r4, r7
    1940:	00000798 	muleq	r0, r8, r7
    1944:	037e0003 	cmneq	lr, #3, 0
    1948:	0008949f 	muleq	r8, pc, r4	; <UNPREDICTABLE>
    194c:	0008a000 	andeq	sl, r8, r0
    1950:	53000100 	movwpl	r0, #256	; 0x100
	...
    195c:	01000000 	mrseq	r0, (UNDEF: 0)
    1960:	01010101 	tsteq	r1, r1, lsl #2
    1964:	01000201 	tsteq	r0, r1, lsl #4
    1968:	0000072c 	andeq	r0, r0, ip, lsr #14
    196c:	00000750 	andeq	r0, r0, r0, asr r7
    1970:	74500001 	ldrbvc	r0, [r0], #-1
    1974:	84000007 	strhi	r0, [r0], #-7
    1978:	01000007 	tsteq	r0, r7
    197c:	07845000 	streq	r5, [r4, r0]
    1980:	07940000 	ldreq	r0, [r4, r0]
    1984:	00010000 	andeq	r0, r1, r0
    1988:	0007945b 	andeq	r9, r7, fp, asr r4
    198c:	00079800 	andeq	r9, r7, r0, lsl #16
    1990:	50000100 	andpl	r0, r0, r0, lsl #2
    1994:	00000798 	muleq	r0, r8, r7
    1998:	00000798 	muleq	r0, r8, r7
    199c:	01700003 	cmneq	r0, r3
    19a0:	0008949f 	muleq	r8, pc, r4	; <UNPREDICTABLE>
    19a4:	0008a000 	andeq	sl, r8, r0
    19a8:	50000100 	andpl	r0, r0, r0, lsl #2
	...
    19b4:	00010001 	andeq	r0, r1, r1
    19b8:	000007b0 			; <UNDEFINED> instruction: 0x000007b0
    19bc:	000007ec 	andeq	r0, r0, ip, ror #15
    19c0:	a0510001 	subsge	r0, r1, r1
    19c4:	a8000008 	stmdage	r0, {r3}
    19c8:	01000008 	tsteq	r0, r8
    19cc:	00005100 	andeq	r5, r0, r0, lsl #2
    19d0:	00000000 	andeq	r0, r0, r0
    19d4:	00010000 	andeq	r0, r1, r0
    19d8:	01000000 	mrseq	r0, (UNDEF: 0)
    19dc:	00010001 	andeq	r0, r1, r1
    19e0:	000007b0 			; <UNDEFINED> instruction: 0x000007b0
    19e4:	000007b4 			; <UNDEFINED> instruction: 0x000007b4
    19e8:	00730006 	rsbseq	r0, r3, r6
    19ec:	9f22007c 	svcls	0x0022007c
    19f0:	000007d4 	ldrdeq	r0, [r0], -r4
    19f4:	000007d8 	ldrdeq	r0, [r0], -r8
    19f8:	7f730003 	svcvc	0x00730003
    19fc:	0007d89f 	muleq	r7, pc, r8	; <UNPREDICTABLE>
    1a00:	0007e000 	andeq	lr, r7, r0
    1a04:	53000100 	movwpl	r0, #256	; 0x100
    1a08:	000007e0 	andeq	r0, r0, r0, ror #15
    1a0c:	000007e8 	andeq	r0, r0, r8, ror #15
    1a10:	7f730003 	svcvc	0x00730003
    1a14:	0008a09f 	muleq	r8, pc, r0	; <UNPREDICTABLE>
    1a18:	0008a800 	andeq	sl, r8, r0, lsl #16
    1a1c:	53000100 	movwpl	r0, #256	; 0x100
	...
    1a28:	00010001 	andeq	r0, r1, r1
    1a2c:	000007b0 			; <UNDEFINED> instruction: 0x000007b0
    1a30:	000007ec 	andeq	r0, r0, ip, ror #15
    1a34:	80080003 	andhi	r0, r8, r3
    1a38:	0008a09f 	muleq	r8, pc, r0	; <UNPREDICTABLE>
    1a3c:	0008a800 	andeq	sl, r8, r0, lsl #16
    1a40:	08000300 	stmdaeq	r0, {r8, r9}
    1a44:	00009f80 	andeq	r9, r0, r0, lsl #31
    1a48:	00000000 	andeq	r0, r0, r0
    1a4c:	00010000 	andeq	r0, r1, r0
    1a50:	01000000 	mrseq	r0, (UNDEF: 0)
    1a54:	00000001 	andeq	r0, r0, r1
    1a58:	07b00001 	ldreq	r0, [r0, r1]!
    1a5c:	07d00000 	ldrbeq	r0, [r0, r0]
    1a60:	00040000 	andeq	r0, r4, r0
    1a64:	9f7dd091 	svcls	0x007dd091
    1a68:	000007d0 	ldrdeq	r0, [r0], -r0	; <UNPREDICTABLE>
    1a6c:	000007d4 	ldrdeq	r0, [r0], -r4
    1a70:	d4550001 	ldrble	r0, [r5], #-1
    1a74:	d4000007 	strle	r0, [r0], #-7
    1a78:	03000007 	movweq	r0, #7
    1a7c:	9f017c00 	svcls	0x00017c00
    1a80:	000007d4 	ldrdeq	r0, [r0], -r4
    1a84:	000007e0 	andeq	r0, r0, r0, ror #15
    1a88:	027c0003 	rsbseq	r0, ip, #3, 0
    1a8c:	0007e09f 	muleq	r7, pc, r0	; <UNPREDICTABLE>
    1a90:	0007ec00 	andeq	lr, r7, r0, lsl #24
    1a94:	7c000300 	stcvc	3, cr0, [r0], {-0}
    1a98:	08a09f01 	stmiaeq	r0!, {r0, r8, r9, sl, fp, ip, pc}
    1a9c:	08a80000 	stmiaeq	r8!, {}	; <UNPREDICTABLE>
    1aa0:	00040000 	andeq	r0, r4, r0
    1aa4:	9f7dd091 	svcls	0x007dd091
	...
    1ab0:	00040004 	andeq	r0, r4, r4
    1ab4:	000007b0 			; <UNDEFINED> instruction: 0x000007b0
    1ab8:	000007b4 			; <UNDEFINED> instruction: 0x000007b4
    1abc:	01700003 	cmneq	r0, r3
    1ac0:	0008a09f 	muleq	r8, pc, r0	; <UNPREDICTABLE>
    1ac4:	0008a800 	andeq	sl, r8, r0, lsl #16
    1ac8:	70000300 	andvc	r0, r0, r0, lsl #6
    1acc:	00009f01 	andeq	r9, r0, r1, lsl #30
    1ad0:	00000000 	andeq	r0, r0, r0
    1ad4:	00010000 	andeq	r0, r1, r0
    1ad8:	07bc0000 	ldreq	r0, [ip, r0]!
    1adc:	07d00000 	ldrbeq	r0, [r0, r0]
    1ae0:	00040000 	andeq	r0, r4, r0
    1ae4:	9f7dd091 	svcls	0x007dd091
    1ae8:	000007d0 	ldrdeq	r0, [r0], -r0	; <UNPREDICTABLE>
    1aec:	000007ec 	andeq	r0, r0, ip, ror #15
    1af0:	00550001 	subseq	r0, r5, r1
	...
    1afc:	28000000 	stmdacs	r0, {}	; <UNPREDICTABLE>
    1b00:	64000003 	strvs	r0, [r0], #-3
    1b04:	01000003 	tsteq	r0, r3
    1b08:	03645000 	cmneq	r4, #0, 0
    1b0c:	03880000 	orreq	r0, r8, #0, 0
    1b10:	00040000 	andeq	r0, r4, r0
    1b14:	9f5001f3 	svcls	0x005001f3
	...
    1b24:	00000328 	andeq	r0, r0, r8, lsr #6
    1b28:	0000035c 	andeq	r0, r0, ip, asr r3
    1b2c:	5c510001 	mrrcpl	0, 0, r0, r1, cr1
    1b30:	88000003 	stmdahi	r0, {r0, r1}
    1b34:	04000003 	streq	r0, [r0], #-3
    1b38:	5101f300 	mrspl	pc, SP_irq	; <UNPREDICTABLE>
    1b3c:	0000009f 	muleq	r0, pc, r0	; <UNPREDICTABLE>
	...
    1b60:	00001400 	andeq	r1, r0, r0, lsl #8
    1b64:	50000100 	andpl	r0, r0, r0, lsl #2
    1b68:	00000014 	andeq	r0, r0, r4, lsl r0
    1b6c:	00000020 	andeq	r0, r0, r0, lsr #32
    1b70:	205c0001 	subscs	r0, ip, r1
    1b74:	68000000 	stmdavs	r0, {}	; <UNPREDICTABLE>
    1b78:	03000000 	movweq	r0, #0
    1b7c:	9f027100 	svcls	0x00027100
    1b80:	00000068 	andeq	r0, r0, r8, rrx
    1b84:	0000006c 	andeq	r0, r0, ip, rrx
    1b88:	02730003 	rsbseq	r0, r3, #3, 0
    1b8c:	00006c9f 	muleq	r0, pc, ip	; <UNPREDICTABLE>
    1b90:	00019400 	andeq	r9, r1, r0, lsl #8
    1b94:	f3000400 	vshl.u8	d0, d0, d0
    1b98:	949f5001 	ldrls	r5, [pc], #1	; 1ba0 <__code_start__-0x6460>
    1b9c:	98000001 	stmdals	r0, {r0}
    1ba0:	03000001 	movweq	r0, #1
    1ba4:	9f027300 	svcls	0x00027300
    1ba8:	00000198 	muleq	r0, r8, r1
    1bac:	000001c0 	andeq	r0, r0, r0, asr #3
    1bb0:	01f30004 	mvnseq	r0, r4
    1bb4:	01c09f50 	biceq	r9, r0, r0, asr pc
    1bb8:	01c80000 	biceq	r0, r8, r0
    1bbc:	00010000 	andeq	r0, r1, r0
    1bc0:	0001c85c 	andeq	ip, r1, ip, asr r8
    1bc4:	00021400 	andeq	r1, r2, r0, lsl #8
    1bc8:	73000300 	movwvc	r0, #768	; 0x300
    1bcc:	02149f02 	andseq	r9, r4, #2, 30
    1bd0:	02ec0000 	rsceq	r0, ip, #0, 0
    1bd4:	00040000 	andeq	r0, r4, r0
    1bd8:	9f5001f3 	svcls	0x005001f3
    1bdc:	000002ec 	andeq	r0, r0, ip, ror #5
    1be0:	000002f4 	strdeq	r0, [r0], -r4
    1be4:	02730003 	rsbseq	r0, r3, #3, 0
    1be8:	0002f49f 	muleq	r2, pc, r4	; <UNPREDICTABLE>
    1bec:	00032800 	andeq	r2, r3, r0, lsl #16
    1bf0:	f3000400 	vshl.u8	d0, d0, d0
    1bf4:	009f5001 	addseq	r5, pc, r1
	...
    1c08:	1c000000 	stcne	0, cr0, [r0], {-0}
    1c0c:	01000000 	mrseq	r0, (UNDEF: 0)
    1c10:	001c5100 	andseq	r5, ip, r0, lsl #2
    1c14:	02e00000 	rsceq	r0, r0, #0, 0
    1c18:	00010000 	andeq	r0, r1, r0
    1c1c:	0002e050 	andeq	lr, r2, r0, asr r0
    1c20:	0002ec00 	andeq	lr, r2, r0, lsl #24
    1c24:	f3000400 	vshl.u8	d0, d0, d0
    1c28:	ec9f5101 	ldfs	f5, [pc], {1}
    1c2c:	28000002 	stmdacs	r0, {r1}
    1c30:	01000003 	tsteq	r0, r3
    1c34:	00005000 	andeq	r5, r0, r0
	...
    1c40:	01000000 	mrseq	r0, (UNDEF: 0)
    1c44:	00000000 	andeq	r0, r0, r0
    1c48:	02000000 	andeq	r0, r0, #0, 0
    1c4c:	00000002 	andeq	r0, r0, r2
	...
    1c60:	00700000 	rsbseq	r0, r0, r0
    1c64:	00010000 	andeq	r0, r1, r0
    1c68:	00007052 	andeq	r7, r0, r2, asr r0
    1c6c:	00007800 	andeq	r7, r0, r0, lsl #16
    1c70:	5c000100 	stfpls	f0, [r0], {-0}
    1c74:	00000078 	andeq	r0, r0, r8, ror r0
    1c78:	000000a4 	andeq	r0, r0, r4, lsr #1
    1c7c:	01f30004 	mvnseq	r0, r4
    1c80:	01949f52 	orrseq	r9, r4, r2, asr pc
    1c84:	019c0000 	orrseq	r0, ip, r0
    1c88:	00010000 	andeq	r0, r1, r0
    1c8c:	00019c52 	andeq	r9, r1, r2, asr ip
    1c90:	0001a400 	andeq	sl, r1, r0, lsl #8
    1c94:	5c000100 	stfpls	f0, [r0], {-0}
    1c98:	000001a4 	andeq	r0, r0, r4, lsr #3
    1c9c:	000001c0 	andeq	r0, r0, r0, asr #3
    1ca0:	01f30004 	mvnseq	r0, r4
    1ca4:	01c09f52 	biceq	r9, r0, r2, asr pc
    1ca8:	02200000 	eoreq	r0, r0, #0, 0
    1cac:	00010000 	andeq	r0, r1, r0
    1cb0:	00022052 	andeq	r2, r2, r2, asr r0
    1cb4:	00022800 	andeq	r2, r2, r0, lsl #16
    1cb8:	72000400 	andvc	r0, r0, #0, 8
    1cbc:	289f1f00 	ldmcs	pc, {r8, r9, sl, fp, ip}	; <UNPREDICTABLE>
    1cc0:	74000002 	strvc	r0, [r0], #-2
    1cc4:	05000002 	streq	r0, [r0, #-2]
    1cc8:	5201f300 	andpl	pc, r1, #0, 6
    1ccc:	02749f1f 	rsbseq	r9, r4, #124	; 0x7c
    1cd0:	02880000 	addeq	r0, r8, #0, 0
    1cd4:	00010000 	andeq	r0, r1, r0
    1cd8:	00028852 	andeq	r8, r2, r2, asr r8
    1cdc:	0002a000 	andeq	sl, r2, r0
    1ce0:	5c000100 	stfpls	f0, [r0], {-0}
    1ce4:	000002cc 	andeq	r0, r0, ip, asr #5
    1ce8:	000002d0 	ldrdeq	r0, [r0], -r0	; <UNPREDICTABLE>
    1cec:	d0520001 	subsle	r0, r2, r1
    1cf0:	e7000002 	str	r0, [r0, -r2]
    1cf4:	01000002 	tsteq	r0, r2
    1cf8:	02e75c00 	rsceq	r5, r7, #0, 24
    1cfc:	02ec0000 	rsceq	r0, ip, #0, 0
    1d00:	00040000 	andeq	r0, r4, r0
    1d04:	9f5201f3 	svcls	0x005201f3
    1d08:	000002ec 	andeq	r0, r0, ip, ror #5
    1d0c:	00000300 	andeq	r0, r0, r0, lsl #6
    1d10:	00520001 	subseq	r0, r2, r1
    1d14:	28000003 	stmdacs	r0, {r0, r1}
    1d18:	01000003 	tsteq	r0, r3
    1d1c:	00005c00 	andeq	r5, r0, r0, lsl #24
	...
    1d38:	00000068 	andeq	r0, r0, r8, rrx
    1d3c:	68530001 	ldmdavs	r3, {r0}^
    1d40:	6c000000 	stcvs	0, cr0, [r0], {-0}
    1d44:	03000000 	movweq	r0, #0
    1d48:	9f7f0800 	svcls	0x007f0800
    1d4c:	00000194 	muleq	r0, r4, r1
    1d50:	00000198 	muleq	r0, r8, r1
    1d54:	7f080003 	svcvc	0x00080003
    1d58:	0001c09f 	muleq	r1, pc, r0	; <UNPREDICTABLE>
    1d5c:	00021400 	andeq	r1, r2, r0, lsl #8
    1d60:	08000300 	stmdaeq	r0, {r8, r9}
    1d64:	02749f7f 	rsbseq	r9, r4, #508	; 0x1fc
    1d68:	02900000 	addseq	r0, r0, #0, 0
    1d6c:	00010000 	andeq	r0, r1, r0
    1d70:	00029053 	andeq	r9, r2, r3, asr r0
    1d74:	0002a000 	andeq	sl, r2, r0
    1d78:	f3000400 	vshl.u8	d0, d0, d0
    1d7c:	ec9f5301 	ldc	3, cr5, [pc], {1}
    1d80:	28000002 	stmdacs	r0, {r1}
    1d84:	03000003 	movweq	r0, #3
    1d88:	9f7f0800 	svcls	0x007f0800
	...
    1d94:	00000001 	andeq	r0, r0, r1
    1d98:	00020200 	andeq	r0, r2, r0, lsl #4
    1d9c:	00010100 	andeq	r0, r1, r0, lsl #2
    1da0:	00000000 	andeq	r0, r0, r0
    1da4:	02000000 	andeq	r0, r0, #0, 0
    1da8:	00000002 	andeq	r0, r0, r2
    1dac:	00000001 	andeq	r0, r0, r1
    1db0:	00000000 	andeq	r0, r0, r0
    1db4:	00010100 	andeq	r0, r1, r0, lsl #2
    1db8:	02000000 	andeq	r0, r0, #0, 0
    1dbc:	00000002 	andeq	r0, r0, r2
    1dc0:	01000000 	mrseq	r0, (UNDEF: 0)
    1dc4:	00000001 	andeq	r0, r0, r1
    1dc8:	00000018 	andeq	r0, r0, r8, lsl r0
    1dcc:	00000070 	andeq	r0, r0, r0, ror r0
    1dd0:	a0910004 	addsge	r0, r1, r4
    1dd4:	00709f7f 	rsbseq	r9, r0, pc, ror pc
    1dd8:	00780000 	rsbseq	r0, r8, r0
    1ddc:	00010000 	andeq	r0, r1, r0
    1de0:	00007852 	andeq	r7, r0, r2, asr r8
    1de4:	00007800 	andeq	r7, r0, r0, lsl #16
    1de8:	54000100 	strpl	r0, [r0], #-256	; 0xffffff00
    1dec:	00000078 	andeq	r0, r0, r8, ror r0
    1df0:	00000088 	andeq	r0, r0, r8, lsl #1
    1df4:	01740003 	cmneq	r4, r3
    1df8:	0000889f 	muleq	r0, pc, r8	; <UNPREDICTABLE>
    1dfc:	00009000 	andeq	r9, r0, r0
    1e00:	54000100 	strpl	r0, [r0], #-256	; 0xffffff00
    1e04:	00000090 	muleq	r0, r0, r0
    1e08:	000000a0 	andeq	r0, r0, r0, lsr #1
    1e0c:	02740003 	rsbseq	r0, r4, #3, 0
    1e10:	0000a09f 	muleq	r0, pc, r0	; <UNPREDICTABLE>
    1e14:	0000b000 	andeq	fp, r0, r0
    1e18:	5e000100 	adfpls	f0, f0, f0
    1e1c:	00000194 	muleq	r0, r4, r1
    1e20:	0000019c 	muleq	r0, ip, r1
    1e24:	a0910004 	addsge	r0, r1, r4
    1e28:	019c9f7f 	orrseq	r9, ip, pc, ror pc
    1e2c:	01a40000 			; <UNDEFINED> instruction: 0x01a40000
    1e30:	00010000 	andeq	r0, r1, r0
    1e34:	0001a452 	andeq	sl, r1, r2, asr r4
    1e38:	0001a400 	andeq	sl, r1, r0, lsl #8
    1e3c:	5e000100 	adfpls	f0, f0, f0
    1e40:	000001a4 	andeq	r0, r0, r4, lsr #3
    1e44:	000001b4 			; <UNDEFINED> instruction: 0x000001b4
    1e48:	017e0003 	cmneq	lr, r3
    1e4c:	0001b49f 	muleq	r1, pc, r4	; <UNPREDICTABLE>
    1e50:	0001c000 	andeq	ip, r1, r0
    1e54:	5e000100 	adfpls	f0, f0, f0
    1e58:	000001c0 	andeq	r0, r0, r0, asr #3
    1e5c:	00000228 	andeq	r0, r0, r8, lsr #4
    1e60:	a0910004 	addsge	r0, r1, r4
    1e64:	02289f7f 	eoreq	r9, r8, #508	; 0x1fc
    1e68:	02340000 	eorseq	r0, r4, #0, 0
    1e6c:	00010000 	andeq	r0, r1, r0
    1e70:	00023452 	andeq	r3, r2, r2, asr r4
    1e74:	00025800 	andeq	r5, r2, r0, lsl #16
    1e78:	5e000100 	adfpls	f0, f0, f0
    1e7c:	00000258 	andeq	r0, r0, r8, asr r2
    1e80:	0000025c 	andeq	r0, r0, ip, asr r2
    1e84:	017e0003 	cmneq	lr, r3
    1e88:	00025c9f 	muleq	r2, pc, ip	; <UNPREDICTABLE>
    1e8c:	00026400 	andeq	r6, r2, r0, lsl #8
    1e90:	5e000100 	adfpls	f0, f0, f0
    1e94:	00000264 	andeq	r0, r0, r4, ror #4
    1e98:	00000270 	andeq	r0, r0, r0, ror r2
    1e9c:	02710003 	rsbseq	r0, r1, #3, 0
    1ea0:	0002709f 	muleq	r2, pc, r0	; <UNPREDICTABLE>
    1ea4:	00027400 	andeq	r7, r2, r0, lsl #8
    1ea8:	5e000100 	adfpls	f0, f0, f0
    1eac:	00000274 	andeq	r0, r0, r4, ror r2
    1eb0:	00000274 	andeq	r0, r0, r4, ror r2
    1eb4:	a0910004 	addsge	r0, r1, r4
    1eb8:	02749f7f 	rsbseq	r9, r4, #508	; 0x1fc
    1ebc:	02a00000 	adceq	r0, r0, #0, 0
    1ec0:	00040000 	andeq	r0, r4, r0
    1ec4:	9f7fa191 	svcls	0x007fa191
    1ec8:	000002c0 	andeq	r0, r0, r0, asr #5
    1ecc:	000002c8 	andeq	r0, r0, r8, asr #5
    1ed0:	c85e0001 	ldmdagt	lr, {r0}^
    1ed4:	cc000002 	stcgt	0, cr0, [r0], {2}
    1ed8:	01000002 	tsteq	r0, r2
    1edc:	02cc5600 	sbceq	r5, ip, #0, 12
    1ee0:	02ec0000 	rsceq	r0, ip, #0, 0
    1ee4:	00040000 	andeq	r0, r4, r0
    1ee8:	9f7fa091 	svcls	0x007fa091
    1eec:	000002ec 	andeq	r0, r0, ip, ror #5
    1ef0:	000002fc 	strdeq	r0, [r0], -ip
    1ef4:	a1910004 	orrsge	r0, r1, r4
    1ef8:	02fc9f7f 	rscseq	r9, ip, #508	; 0x1fc
    1efc:	03280000 			; <UNDEFINED> instruction: 0x03280000
    1f00:	00010000 	andeq	r0, r1, r0
    1f04:	0000005e 	andeq	r0, r0, lr, asr r0
	...
    1f1c:	00000101 	andeq	r0, r0, r1, lsl #2
	...
    1f2c:	20000000 	andcs	r0, r0, r0
    1f30:	70000000 	andvc	r0, r0, r0
    1f34:	01000000 	mrseq	r0, (UNDEF: 0)
    1f38:	00705200 	rsbseq	r5, r0, r0, lsl #4
    1f3c:	00940000 	addseq	r0, r4, r0
    1f40:	00010000 	andeq	r0, r1, r0
    1f44:	0001945c 	andeq	r9, r1, ip, asr r4
    1f48:	00019c00 	andeq	r9, r1, r0, lsl #24
    1f4c:	52000100 	andpl	r0, r0, #0
    1f50:	0000019c 	muleq	r0, ip, r1
    1f54:	000001c0 	andeq	r0, r0, r0, asr #3
    1f58:	c85c0001 	ldmdagt	ip, {r0}^
    1f5c:	10000001 	andne	r0, r0, r1
    1f60:	01000002 	tsteq	r0, r2
    1f64:	02105c00 	andseq	r5, r0, #0, 24
    1f68:	02240000 	eoreq	r0, r4, #0, 0
    1f6c:	00010000 	andeq	r0, r1, r0
    1f70:	00022452 	andeq	r2, r2, r2, asr r4
    1f74:	00024800 	andeq	r4, r2, r0, lsl #16
    1f78:	5c000100 	stfpls	f0, [r0], {-0}
    1f7c:	00000248 	andeq	r0, r0, r8, asr #4
    1f80:	0000025c 	andeq	r0, r0, ip, asr r2
    1f84:	5c550001 	mrrcpl	0, 0, r0, r5, cr1
    1f88:	68000002 	stmdavs	r0, {r1}
    1f8c:	01000002 	tsteq	r0, r2
    1f90:	02685c00 	rsbeq	r5, r8, #0, 24
    1f94:	02740000 	rsbseq	r0, r4, #0, 0
    1f98:	00190000 	andseq	r0, r9, r0
    1f9c:	2cf70075 	ldclcs	0, cr0, [r7], #468	; 0x1d4
    1fa0:	007625f7 	ldrshteq	r2, [r6], #-87	; 0xffffffa9
    1fa4:	25f72cf7 	ldrbcs	r2, [r7, #3319]!	; 0xcf7
    1fa8:	f720081e 			; <UNDEFINED> instruction: 0xf720081e
    1fac:	2cf72525 	cfldr64cs	mvdx2, [r7], #148	; 0x94
    1fb0:	253300f7 	ldrcs	r0, [r3, #-247]!	; 0xffffff09
    1fb4:	0002749f 	muleq	r2, pc, r4	; <UNPREDICTABLE>
    1fb8:	00028800 	andeq	r8, r2, r0, lsl #16
    1fbc:	52000100 	andpl	r0, r0, #0
    1fc0:	00000288 	andeq	r0, r0, r8, lsl #5
    1fc4:	000002a0 	andeq	r0, r0, r0, lsr #5
    1fc8:	cc5c0001 	mrrcgt	0, 0, r0, ip, cr1
    1fcc:	d0000002 	andle	r0, r0, r2
    1fd0:	01000002 	tsteq	r0, r2
    1fd4:	02d05200 	sbcseq	r5, r0, #0, 4
    1fd8:	02e70000 	rsceq	r0, r7, #0, 0
    1fdc:	00010000 	andeq	r0, r1, r0
    1fe0:	0002e75c 	andeq	lr, r2, ip, asr r7
    1fe4:	0002ec00 	andeq	lr, r2, r0, lsl #24
    1fe8:	f3000400 	vshl.u8	d0, d0, d0
    1fec:	ec9f5201 	lfm	f5, 4, [pc], {1}
    1ff0:	00000002 	andeq	r0, r0, r2
    1ff4:	01000003 	tsteq	r0, r3
    1ff8:	03005200 	movweq	r5, #512	; 0x200
    1ffc:	03280000 			; <UNDEFINED> instruction: 0x03280000
    2000:	00010000 	andeq	r0, r1, r0
    2004:	0000005c 	andeq	r0, r0, ip, asr r0
    2008:	00000000 	andeq	r0, r0, r0
    200c:	04000400 	streq	r0, [r0], #-1024	; 0xfffffc00
    2010:	00010000 	andeq	r0, r1, r0
    2014:	a4000400 	strge	r0, [r0], #-1024	; 0xfffffc00
    2018:	b0000000 	andlt	r0, r0, r0
    201c:	01000000 	mrseq	r0, (UNDEF: 0)
    2020:	027c5300 	rsbseq	r5, ip, #0, 6
    2024:	02900000 	addseq	r0, r0, #0, 0
    2028:	00010000 	andeq	r0, r1, r0
    202c:	00029053 	andeq	r9, r2, r3, asr r0
    2030:	00029c00 	andeq	r9, r2, r0, lsl #24
    2034:	f3000400 	vshl.u8	d0, d0, d0
    2038:	c09f5301 	addsgt	r5, pc, r1, lsl #6
    203c:	cc000002 	stcgt	0, cr0, [r0], {2}
    2040:	01000002 	tsteq	r0, r2
    2044:	02f05300 	rscseq	r5, r0, #0, 6
    2048:	03280000 			; <UNDEFINED> instruction: 0x03280000
    204c:	00030000 	andeq	r0, r3, r0
    2050:	009f7f08 	addseq	r7, pc, r8, lsl #30
    2054:	00000000 	andeq	r0, r0, r0
    2058:	04000000 	streq	r0, [r0], #-0
    205c:	04010000 	streq	r0, [r1], #-0
    2060:	00010000 	andeq	r0, r1, r0
    2064:	04000000 	streq	r0, [r0], #-0
    2068:	a4000000 	strge	r0, [r0], #-0
    206c:	b0000000 	andlt	r0, r0, r0
    2070:	01000000 	mrseq	r0, (UNDEF: 0)
    2074:	00b05200 	adcseq	r5, r0, r0, lsl #4
    2078:	015c0000 	cmpeq	ip, r0
    207c:	00040000 	andeq	r0, r4, r0
    2080:	9f7fa091 	svcls	0x007fa091
    2084:	0000027c 	andeq	r0, r0, ip, ror r2
    2088:	00000294 	muleq	r0, r4, r2
    208c:	a0910004 	addsge	r0, r1, r4
    2090:	02949f7f 	addseq	r9, r4, #508	; 0x1fc
    2094:	029c0000 	addseq	r0, ip, #0, 0
    2098:	00010000 	andeq	r0, r1, r0
    209c:	0002b45e 	andeq	fp, r2, lr, asr r4
    20a0:	0002c000 	andeq	ip, r2, r0
    20a4:	91000400 	tstls	r0, r0, lsl #8
    20a8:	c09f7fa0 	addsgt	r7, pc, r0, lsr #31
    20ac:	cc000002 	stcgt	0, cr0, [r0], {2}
    20b0:	01000002 	tsteq	r0, r2
    20b4:	02f05200 	rscseq	r5, r0, #0, 4
    20b8:	03000000 	movweq	r0, #0
    20bc:	00040000 	andeq	r0, r4, r0
    20c0:	9f7fa091 	svcls	0x007fa091
    20c4:	00000300 	andeq	r0, r0, r0, lsl #6
    20c8:	00000328 	andeq	r0, r0, r8, lsr #6
    20cc:	00520001 	subseq	r0, r2, r1
    20d0:	00000000 	andeq	r0, r0, r0
    20d4:	04000000 	streq	r0, [r0], #-0
    20d8:	01010000 	mrseq	r0, (UNDEF: 1)
    20dc:	03030101 	movweq	r0, #12545	; 0x3101
    20e0:	00010402 	andeq	r0, r1, r2, lsl #8
    20e4:	04000000 	streq	r0, [r0], #-0
    20e8:	a4000000 	strge	r0, [r0], #-0
    20ec:	b0000000 	andlt	r0, r0, r0
    20f0:	01000000 	mrseq	r0, (UNDEF: 0)
    20f4:	010c5e00 	tsteq	ip, r0, lsl #28
    20f8:	010c0000 	mrseq	r0, (UNDEF: 12)
    20fc:	00010000 	andeq	r0, r1, r0
    2100:	00010c55 	andeq	r0, r1, r5, asr ip
    2104:	00012000 	andeq	r2, r1, r0
    2108:	75000300 	strvc	r0, [r0, #-768]	; 0xfffffd00
    210c:	01209f01 			; <UNDEFINED> instruction: 0x01209f01
    2110:	012c0000 			; <UNDEFINED> instruction: 0x012c0000
    2114:	00030000 	andeq	r0, r3, r0
    2118:	2c9f0275 	lfmcs	f0, 4, [pc], {117}	; 0x75
    211c:	30000001 	andcc	r0, r0, r1
    2120:	03000001 	movweq	r0, #1
    2124:	9f037500 	svcls	0x00037500
    2128:	0000027c 	andeq	r0, r0, ip, ror r2
    212c:	0000029c 	muleq	r0, ip, r2
    2130:	a1910004 	orrsge	r0, r1, r4
    2134:	02c09f7f 	sbceq	r9, r0, #508	; 0x1fc
    2138:	02c80000 	sbceq	r0, r8, #0, 0
    213c:	00010000 	andeq	r0, r1, r0
    2140:	0002c85e 	andeq	ip, r2, lr, asr r8
    2144:	0002cc00 	andeq	ip, r2, r0, lsl #24
    2148:	56000100 	strpl	r0, [r0], -r0, lsl #2
    214c:	000002f0 	strdeq	r0, [r0], -r0	; <UNPREDICTABLE>
    2150:	000002fc 	strdeq	r0, [r0], -ip
    2154:	a1910004 	orrsge	r0, r1, r4
    2158:	02fc9f7f 	rscseq	r9, ip, #508	; 0x1fc
    215c:	03280000 			; <UNDEFINED> instruction: 0x03280000
    2160:	00010000 	andeq	r0, r1, r0
    2164:	0000005e 	andeq	r0, r0, lr, asr r0
	...
    2170:	01010101 	tsteq	r1, r1, lsl #2
    2174:	06020101 	streq	r0, [r2], -r1, lsl #2
    2178:	06000001 	streq	r0, [r0], -r1
    217c:	0000a800 	andeq	sl, r0, r0, lsl #16
    2180:	0000b000 	andeq	fp, r0, r0
    2184:	51000100 	mrspl	r0, (UNDEF: 16)
    2188:	0000010c 	andeq	r0, r0, ip, lsl #2
    218c:	0000011c 	andeq	r0, r0, ip, lsl r1
    2190:	1c5c0001 	mrrcne	0, 0, r0, ip, cr1
    2194:	2c000001 	stccs	0, cr0, [r0], {1}
    2198:	01000001 	tsteq	r0, r1
    219c:	012c5800 			; <UNDEFINED> instruction: 0x012c5800
    21a0:	01300000 	teqeq	r0, r0
    21a4:	00010000 	andeq	r0, r1, r0
    21a8:	0001305c 	andeq	r3, r1, ip, asr r0
    21ac:	00013000 	andeq	r3, r1, r0
    21b0:	7c000300 	stcvc	3, cr0, [r0], {-0}
    21b4:	027c9f01 	rsbseq	r9, ip, #1, 30
    21b8:	029c0000 	addseq	r0, ip, #0, 0
    21bc:	00020000 	andeq	r0, r2, r0
    21c0:	02c09f31 	sbceq	r9, r0, #196	; 0xc4
    21c4:	02cc0000 	sbceq	r0, ip, #0, 0
    21c8:	00010000 	andeq	r0, r1, r0
    21cc:	0002f051 	andeq	pc, r2, r1, asr r0	; <UNPREDICTABLE>
    21d0:	00032800 	andeq	r2, r3, r0, lsl #16
    21d4:	31000200 	mrscc	r0, R8_usr
    21d8:	0000009f 	muleq	r0, pc, r0	; <UNPREDICTABLE>
    21dc:	00000000 	andeq	r0, r0, r0
    21e0:	06060100 	streq	r0, [r6], -r0, lsl #2
    21e4:	00000101 	andeq	r0, r0, r1, lsl #2
    21e8:	00015c01 	andeq	r5, r1, r1, lsl #24
    21ec:	00015c00 	andeq	r5, r1, r0, lsl #24
    21f0:	91000400 	tstls	r0, r0, lsl #8
    21f4:	5c9f7fa0 	ldcpl	15, cr7, [pc], {160}	; 0xa0
    21f8:	8c000001 	stchi	0, cr0, [r0], {1}
    21fc:	01000001 	tsteq	r0, r1
    2200:	029c5200 	addseq	r5, ip, #0, 4
    2204:	02a00000 	adceq	r0, r0, #0, 0
    2208:	00010000 	andeq	r0, r1, r0
    220c:	0002a05e 	andeq	sl, r2, lr, asr r0
    2210:	0002ac00 	andeq	sl, r2, r0, lsl #24
    2214:	52000100 	andpl	r0, r0, #0
	...
    2220:	01000000 	mrseq	r0, (UNDEF: 0)
    2224:	07010001 	streq	r0, [r1, -r1]
    2228:	0000016c 	andeq	r0, r0, ip, ror #2
    222c:	00000170 	andeq	r0, r0, r0, ror r1
    2230:	7f730003 	svcvc	0x00730003
    2234:	0001709f 	muleq	r1, pc, r0	; <UNPREDICTABLE>
    2238:	00017800 	andeq	r7, r1, r0, lsl #16
    223c:	53000100 	movwpl	r0, #256	; 0x100
    2240:	00000178 	andeq	r0, r0, r8, ror r1
    2244:	00000184 	andeq	r0, r0, r4, lsl #3
    2248:	7f730003 	svcvc	0x00730003
    224c:	00029c9f 	muleq	r2, pc, ip	; <UNPREDICTABLE>
    2250:	00029c00 	andeq	r9, r2, r0, lsl #24
    2254:	91000400 	tstls	r0, r0, lsl #8
    2258:	009f7fa1 	addseq	r7, pc, r1, lsr #31
    225c:	00000000 	andeq	r0, r0, r0
    2260:	01000000 	mrseq	r0, (UNDEF: 0)
    2264:	5c010101 	stfpls	f0, [r1], {1}
    2268:	8c000001 	stchi	0, cr0, [r0], {1}
    226c:	03000001 	movweq	r0, #1
    2270:	9f800800 	svcls	0x00800800
    2274:	0000029c 	muleq	r0, ip, r2
    2278:	000002ac 	andeq	r0, r0, ip, lsr #5
    227c:	80080003 	andhi	r0, r8, r3
    2280:	0000009f 	muleq	r0, pc, r0	; <UNPREDICTABLE>
    2284:	00000000 	andeq	r0, r0, r0
    2288:	00000100 	andeq	r0, r0, r0, lsl #2
    228c:	00000101 	andeq	r0, r0, r1, lsl #2
    2290:	01010101 	tsteq	r1, r1, lsl #2
    2294:	5c010101 	stfpls	f0, [r1], {1}
    2298:	6c000001 	stcvs	0, cr0, [r0], {1}
    229c:	01000001 	tsteq	r0, r1
    22a0:	016c5000 	cmneq	ip, r0
    22a4:	016c0000 	cmneq	ip, r0
    22a8:	00030000 	andeq	r0, r3, r0
    22ac:	6c9f017c 	ldfvss	f0, [pc], {124}	; 0x7c
    22b0:	78000001 	stmdavc	r0, {r0}
    22b4:	03000001 	movweq	r0, #1
    22b8:	9f027c00 	svcls	0x00027c00
    22bc:	00000178 	andeq	r0, r0, r8, ror r1
    22c0:	00000188 	andeq	r0, r0, r8, lsl #3
    22c4:	017c0003 	cmneq	ip, r3
    22c8:	0001889f 	muleq	r1, pc, r8	; <UNPREDICTABLE>
    22cc:	00018c00 	andeq	r8, r1, r0, lsl #24
    22d0:	7e000300 	cdpvc	3, 0, cr0, cr0, cr0, {0}
    22d4:	029c9f01 	addseq	r9, ip, #1, 30
    22d8:	02a40000 	adceq	r0, r4, #0, 0
    22dc:	00010000 	andeq	r0, r1, r0
    22e0:	0002a450 	andeq	sl, r2, r0, asr r4
    22e4:	0002ac00 	andeq	sl, r2, r0, lsl #24
    22e8:	7e000300 	cdpvc	3, 0, cr0, cr0, cr0, {0}
    22ec:	00009f01 	andeq	r9, r0, r1, lsl #30
    22f0:	00000000 	andeq	r0, r0, r0
    22f4:	00040000 	andeq	r0, r4, r0
    22f8:	01000004 	tsteq	r0, r4
    22fc:	0000015c 	andeq	r0, r0, ip, asr r1
    2300:	00000160 	andeq	r0, r0, r0, ror #2
    2304:	01710003 	cmneq	r1, r3
    2308:	00029c9f 	muleq	r2, pc, ip	; <UNPREDICTABLE>
    230c:	0002a000 	andeq	sl, r2, r0
    2310:	32000200 	andcc	r0, r0, #0, 4
    2314:	0002a09f 	muleq	r2, pc, r0	; <UNPREDICTABLE>
    2318:	0002ac00 	andeq	sl, r2, r0, lsl #24
    231c:	71000300 	mrsvc	r0, LR_irq
    2320:	00009f01 	andeq	r9, r0, r1, lsl #30
    2324:	00000000 	andeq	r0, r0, r0
    2328:	00070000 	andeq	r0, r7, r0
    232c:	015c0006 	cmpeq	ip, r6
    2330:	01940000 	orrseq	r0, r4, r0
    2334:	00010000 	andeq	r0, r1, r0
    2338:	00029c50 	andeq	r9, r2, r0, asr ip
    233c:	0002b400 	andeq	fp, r2, r0, lsl #8
    2340:	50000100 	andpl	r0, r0, r0, lsl #2
	...
    234c:	00010101 	andeq	r0, r1, r1, lsl #2
    2350:	00000214 	andeq	r0, r0, r4, lsl r2
    2354:	00000220 	andeq	r0, r0, r0, lsr #4
    2358:	9f300002 	svcls	0x00300002
    235c:	00000220 	andeq	r0, r0, r0, lsr #4
    2360:	00000234 	andeq	r0, r0, r4, lsr r2
    2364:	9f310002 	svcls	0x00310002
	...
    2370:	00010100 	andeq	r0, r1, r0, lsl #2
    2374:	00010100 	andeq	r0, r1, r0, lsl #2
    2378:	00010100 	andeq	r0, r1, r0, lsl #2
    237c:	00010100 	andeq	r0, r1, r0, lsl #2
    2380:	00010100 	andeq	r0, r1, r0, lsl #2
    2384:	01020200 	mrseq	r0, R10_usr
    2388:	00000080 	andeq	r0, r0, r0, lsl #1
    238c:	00000080 	andeq	r0, r0, r0, lsl #1
    2390:	80530001 	subshi	r0, r3, r1
    2394:	8c000000 	stchi	0, cr0, [r0], {-0}
    2398:	03000000 	movweq	r0, #0
    239c:	9f047300 	svcls	0x00047300
    23a0:	0000008c 	andeq	r0, r0, ip, lsl #1
    23a4:	00000094 	muleq	r0, r4, r0
    23a8:	94510001 	ldrbls	r0, [r1], #-1
    23ac:	98000000 	stmdals	r0, {}	; <UNPREDICTABLE>
    23b0:	03000000 	movweq	r0, #0
    23b4:	9f087300 	svcls	0x00087300
    23b8:	00000098 	muleq	r0, r8, r0
    23bc:	000000a4 	andeq	r0, r0, r4, lsr #1
    23c0:	a4510001 	ldrbge	r0, [r1], #-1
    23c4:	a8000000 	stmdage	r0, {}	; <UNPREDICTABLE>
    23c8:	03000000 	movweq	r0, #0
    23cc:	9f0c7300 	svcls	0x000c7300
    23d0:	000000a8 	andeq	r0, r0, r8, lsr #1
    23d4:	000000b4 	strheq	r0, [r0], -r4
    23d8:	b4510001 	ldrblt	r0, [r1], #-1
    23dc:	b8000000 	stmdalt	r0, {}	; <UNPREDICTABLE>
    23e0:	03000000 	movweq	r0, #0
    23e4:	9f107300 	svcls	0x00107300
    23e8:	000000b8 	strheq	r0, [r0], -r8
    23ec:	000000c4 	andeq	r0, r0, r4, asr #1
    23f0:	c4510001 	ldrbgt	r0, [r1], #-1
    23f4:	c8000000 	stmdagt	r0, {}	; <UNPREDICTABLE>
    23f8:	03000000 	movweq	r0, #0
    23fc:	9f147300 	svcls	0x00147300
    2400:	000000c8 	andeq	r0, r0, r8, asr #1
    2404:	000000d0 	ldrdeq	r0, [r0], -r0	; <UNPREDICTABLE>
    2408:	d0510001 	subsle	r0, r1, r1
    240c:	d4000000 	strle	r0, [r0], #-0
    2410:	03000000 	movweq	r0, #0
    2414:	9f047100 	svcls	0x00047100
	...
    2420:	00d80002 	sbcseq	r0, r8, r2
    2424:	00e80000 	rsceq	r0, r8, r0
    2428:	00020000 	andeq	r0, r2, r0
    242c:	00009f31 	andeq	r9, r0, r1, lsr pc
    2430:	00000000 	andeq	r0, r0, r0
    2434:	00040000 	andeq	r0, r4, r0
    2438:	97400100 	strbls	r0, [r0, -r0, lsl #2]
    243c:	97480000 	strbls	r0, [r8, -r0]
    2440:	00020000 	andeq	r0, r2, r0
    2444:	97489f30 	smlaldxls	r9, r8, r0, pc	; <UNPREDICTABLE>
    2448:	97480000 	strbls	r0, [r8, -r0]
    244c:	00010000 	andeq	r0, r1, r0
    2450:	00000053 	andeq	r0, r0, r3, asr r0
    2454:	00000000 	andeq	r0, r0, r0
    2458:	00000300 	andeq	r0, r0, r0, lsl #6
    245c:	00000000 	andeq	r0, r0, r0
    2460:	00975400 	addseq	r5, r7, r0, lsl #8
    2464:	00975800 	addseq	r5, r7, r0, lsl #16
    2468:	30000200 	andcc	r0, r0, r0, lsl #4
    246c:	0097589f 	umullseq	r5, r7, pc, r8	; <UNPREDICTABLE>
    2470:	00975c00 	addseq	r5, r7, r0, lsl #24
    2474:	53000100 	movwpl	r0, #256	; 0x100
    2478:	0000975c 	andeq	r9, r0, ip, asr r7
    247c:	00009760 	andeq	r9, r0, r0, ror #14
    2480:	00730005 	rsbseq	r0, r3, r5
    2484:	609f2140 	addsvs	r2, pc, r0, asr #2
    2488:	64000097 	strvs	r0, [r0], #-151	; 0xffffff69
    248c:	01000097 	swpeq	r0, r7, [r0]	; <UNPREDICTABLE>
    2490:	00005300 	andeq	r5, r0, r0, lsl #6
    2494:	00000000 	andeq	r0, r0, r0
    2498:	00020000 	andeq	r0, r2, r0
    249c:	97140000 	ldrls	r0, [r4, -r0]
    24a0:	97180000 	ldrls	r0, [r8, -r0]
    24a4:	00020000 	andeq	r0, r2, r0
    24a8:	97189f30 			; <UNDEFINED> instruction: 0x97189f30
    24ac:	971c0000 	ldrls	r0, [ip, -r0]
    24b0:	00010000 	andeq	r0, r1, r0
    24b4:	00000050 	andeq	r0, r0, r0, asr r0
    24b8:	00000000 	andeq	r0, r0, r0
    24bc:	00000200 	andeq	r0, r0, r0, lsl #4
    24c0:	00000000 	andeq	r0, r0, r0
    24c4:	00972c00 	addseq	r2, r7, r0, lsl #24
    24c8:	00973000 	addseq	r3, r7, r0
    24cc:	30000200 	andcc	r0, r0, r0, lsl #4
    24d0:	0097309f 	umullseq	r3, r7, pc, r0	; <UNPREDICTABLE>
    24d4:	00973400 	addseq	r3, r7, r0, lsl #8
    24d8:	53000100 	movwpl	r0, #256	; 0x100
    24dc:	00009734 	andeq	r9, r0, r4, lsr r7
    24e0:	00009738 	andeq	r9, r0, r8, lsr r7
    24e4:	00730005 	rsbseq	r0, r3, r5
    24e8:	389f2140 	ldmcc	pc, {r6, r8, sp}	; <UNPREDICTABLE>
    24ec:	40000097 	mulmi	r0, r7, r0
    24f0:	01000097 	swpeq	r0, r7, [r0]	; <UNPREDICTABLE>
    24f4:	00005300 	andeq	r5, r0, r0, lsl #6
	...
    2500:	00c80000 	sbceq	r0, r8, r0
    2504:	00d80000 	sbcseq	r0, r8, r0
    2508:	00010000 	andeq	r0, r1, r0
    250c:	0000d850 	andeq	sp, r0, r0, asr r8
    2510:	00011c00 	andeq	r1, r1, r0, lsl #24
    2514:	f3000400 	vshl.u8	d0, d0, d0
    2518:	009f5001 	addseq	r5, pc, r1
    251c:	00000000 	andeq	r0, r0, r0
    2520:	02000000 	andeq	r0, r0, #0, 0
    2524:	c8000000 	stmdagt	r0, {}	; <UNPREDICTABLE>
    2528:	d8000000 	stmdale	r0, {}	; <UNPREDICTABLE>
    252c:	07000000 	streq	r0, [r0, -r0]
    2530:	0a007000 	beq	1e538 <__bss_end__+0x13760>
    2534:	9f1e03e8 	svcls	0x001e03e8
    2538:	000000d8 	ldrdeq	r0, [r0], -r8
    253c:	0000011c 	andeq	r0, r0, ip, lsl r1
    2540:	01f30008 	mvnseq	r0, r8
    2544:	03e80a50 	mvneq	r0, #80, 20	; 0x50000
    2548:	00009f1e 	andeq	r9, r0, lr, lsl pc
	...
    2554:	000000dc 	ldrdeq	r0, [r0], -ip
    2558:	0000011c 	andeq	r0, r0, ip, lsl r1
    255c:	00540001 	subseq	r0, r4, r1
    2560:	00000000 	andeq	r0, r0, r0
    2564:	01000000 	mrseq	r0, (UNDEF: 0)
    2568:	0000f000 	andeq	pc, r0, r0
    256c:	00011c00 	andeq	r1, r1, r0, lsl #24
    2570:	56000100 	strpl	r0, [r0], -r0, lsl #2
	...
    2580:	000000ec 	andeq	r0, r0, ip, ror #1
    2584:	000000ef 	andeq	r0, r0, pc, ror #1
    2588:	ef500001 	svc	0x00500001
    258c:	1c000000 	stcne	0, cr0, [r0], {-0}
    2590:	01000001 	tsteq	r0, r1
    2594:	00005600 	andeq	r5, r0, r0, lsl #12
	...
    25a0:	00000104 	andeq	r0, r0, r4, lsl #2
    25a4:	0000010b 	andeq	r0, r0, fp, lsl #2
    25a8:	00500001 	subseq	r0, r0, r1
	...
    25b4:	20000000 	andcs	r0, r0, r0
    25b8:	23000000 	movwcs	r0, #0
    25bc:	01000000 	mrseq	r0, (UNDEF: 0)
    25c0:	00235000 	eoreq	r5, r3, r0
    25c4:	00300000 	eorseq	r0, r0, r0
    25c8:	00010000 	andeq	r0, r1, r0
    25cc:	00000054 	andeq	r0, r0, r4, asr r0
	...
    25d8:	00003000 	andeq	r3, r0, r0
    25dc:	00003b00 	andeq	r3, r0, r0, lsl #22
    25e0:	50000100 	andpl	r0, r0, r0, lsl #2
    25e4:	0000003b 	andeq	r0, r0, fp, lsr r0
    25e8:	00000078 	andeq	r0, r0, r8, ror r0
    25ec:	00560001 	subseq	r0, r6, r1
    25f0:	00000000 	andeq	r0, r0, r0
    25f4:	01000000 	mrseq	r0, (UNDEF: 0)
    25f8:	00004c00 	andeq	r4, r0, r0, lsl #24
    25fc:	00007800 	andeq	r7, r0, r0, lsl #16
    2600:	55000100 	strpl	r0, [r0, #-256]	; 0xffffff00
	...
    2610:	00000048 	andeq	r0, r0, r8, asr #32
    2614:	0000004b 	andeq	r0, r0, fp, asr #32
    2618:	4b500001 	blmi	1402624 <__bss_end__+0x13f784c>
    261c:	78000000 	stmdavc	r0, {}	; <UNPREDICTABLE>
    2620:	01000000 	mrseq	r0, (UNDEF: 0)
    2624:	00005500 	andeq	r5, r0, r0, lsl #10
	...
    2630:	00000060 	andeq	r0, r0, r0, rrx
    2634:	00000067 	andeq	r0, r0, r7, rrx
    2638:	00500001 	subseq	r0, r0, r1
	...
    2644:	78000000 	stmdavc	r0, {}	; <UNPREDICTABLE>
    2648:	84000000 	strhi	r0, [r0], #-0
    264c:	01000000 	mrseq	r0, (UNDEF: 0)
    2650:	00845000 	addeq	r5, r4, r0
    2654:	00c80000 	sbceq	r0, r8, r0
    2658:	00040000 	andeq	r0, r4, r0
    265c:	9f5001f3 	svcls	0x005001f3
	...
    2668:	00880000 	addeq	r0, r8, r0
    266c:	00c80000 	sbceq	r0, r8, r0
    2670:	00010000 	andeq	r0, r1, r0
    2674:	00000054 	andeq	r0, r0, r4, asr r0
    2678:	00000000 	andeq	r0, r0, r0
    267c:	9c000100 	stflss	f0, [r0], {-0}
    2680:	c8000000 	stmdagt	r0, {}	; <UNPREDICTABLE>
    2684:	01000000 	mrseq	r0, (UNDEF: 0)
    2688:	00005600 	andeq	r5, r0, r0, lsl #12
	...
    2694:	00980000 	addseq	r0, r8, r0
    2698:	009b0000 	addseq	r0, fp, r0
    269c:	00010000 	andeq	r0, r1, r0
    26a0:	00009b50 	andeq	r9, r0, r0, asr fp
    26a4:	0000c800 	andeq	ip, r0, r0, lsl #16
    26a8:	56000100 	strpl	r0, [r0], -r0, lsl #2
	...
    26b4:	00b00000 	adcseq	r0, r0, r0
    26b8:	00b70000 	adcseq	r0, r7, r0
    26bc:	00010000 	andeq	r0, r1, r0
    26c0:	00000050 	andeq	r0, r0, r0, asr r0
	...
    26cc:	00015800 	andeq	r5, r1, r0, lsl #16
    26d0:	00016300 	andeq	r6, r1, r0, lsl #6
    26d4:	50000100 	andpl	r0, r0, r0, lsl #2
    26d8:	00000163 	andeq	r0, r0, r3, ror #2
    26dc:	00000188 	andeq	r0, r0, r8, lsl #3
    26e0:	00540001 	subseq	r0, r4, r1
	...
    26ec:	00014800 	andeq	r4, r1, r0, lsl #16
    26f0:	00015800 	andeq	r5, r1, r0, lsl #16
    26f4:	54000100 	strpl	r0, [r0], #-256	; 0xffffff00
	...
    2708:	0000000f 	andeq	r0, r0, pc
    270c:	0f500001 	svceq	0x00500001
    2710:	20000000 	andcs	r0, r0, r0
    2714:	01000000 	mrseq	r0, (UNDEF: 0)
    2718:	00005400 	andeq	r5, r0, r0, lsl #8
	...
    2728:	000f0000 	andeq	r0, pc, r0
    272c:	00010000 	andeq	r0, r1, r0
    2730:	00000f51 	andeq	r0, r0, r1, asr pc
    2734:	00002000 	andeq	r2, r0, r0
    2738:	55000100 	strpl	r0, [r0, #-256]	; 0xffffff00
	...
    2748:	00000020 	andeq	r0, r0, r0, lsr #32
    274c:	0000002f 	andeq	r0, r0, pc, lsr #32
    2750:	2f500001 	svccs	0x00500001
    2754:	40000000 	andmi	r0, r0, r0
    2758:	01000000 	mrseq	r0, (UNDEF: 0)
    275c:	00005400 	andeq	r5, r0, r0, lsl #8
	...
    2768:	00200000 	eoreq	r0, r0, r0
    276c:	002f0000 	eoreq	r0, pc, r0
    2770:	00010000 	andeq	r0, r1, r0
    2774:	00002f51 	andeq	r2, r0, r1, asr pc
    2778:	00004000 	andeq	r4, r0, r0
    277c:	55000100 	strpl	r0, [r0, #-256]	; 0xffffff00
	...
    278c:	03500000 	cmpeq	r0, #0, 0
    2790:	03980000 	orrseq	r0, r8, #0, 0
    2794:	00010000 	andeq	r0, r1, r0
    2798:	00039850 	andeq	r9, r3, r0, asr r8
    279c:	00039b00 	andeq	r9, r3, r0, lsl #22
    27a0:	91000200 	mrsls	r0, R8_usr
    27a4:	00039b68 	andeq	r9, r3, r8, ror #22
    27a8:	0003b000 	andeq	fp, r3, r0
    27ac:	f3000400 	vshl.u8	d0, d0, d0
    27b0:	009f5001 	addseq	r5, pc, r1
	...
    27cc:	20000000 	andcs	r0, r0, r0
    27d0:	7b000002 	blvc	27e0 <__code_start__-0x5820>
    27d4:	01000002 	tsteq	r0, r2
    27d8:	027b5000 	rsbseq	r5, fp, #0, 0
    27dc:	02840000 	addeq	r0, r4, #0, 0
    27e0:	00040000 	andeq	r0, r4, r0
    27e4:	9f5001f3 	svcls	0x005001f3
    27e8:	00000284 	andeq	r0, r0, r4, lsl #5
    27ec:	0000029c 	muleq	r0, ip, r2
    27f0:	9c500001 	mrrcls	0, 0, r0, r0, cr1	; <UNPREDICTABLE>
    27f4:	a4000002 	strge	r0, [r0], #-2
    27f8:	04000002 	streq	r0, [r0], #-2
    27fc:	5001f300 	andpl	pc, r1, r0, lsl #6
    2800:	0002a49f 	muleq	r2, pc, r4	; <UNPREDICTABLE>
    2804:	0002a700 	andeq	sl, r2, r0, lsl #14
    2808:	50000100 	andpl	r0, r0, r0, lsl #2
    280c:	000002a7 	andeq	r0, r0, r7, lsr #5
    2810:	000002c8 	andeq	r0, r0, r8, asr #5
    2814:	01f30004 	mvnseq	r0, r4
    2818:	02c89f50 	sbceq	r9, r8, #80, 30	; 0x140
    281c:	02e00000 	rsceq	r0, r0, #0, 0
    2820:	00010000 	andeq	r0, r1, r0
    2824:	0002e050 	andeq	lr, r2, r0, asr r0
    2828:	0002e800 	andeq	lr, r2, r0, lsl #16
    282c:	f3000400 	vshl.u8	d0, d0, d0
    2830:	e89f5001 	ldm	pc, {r0, ip, lr}	; <UNPREDICTABLE>
    2834:	eb000002 	bl	2844 <__code_start__-0x57bc>
    2838:	01000002 	tsteq	r0, r2
    283c:	02eb5000 	rsceq	r5, fp, #0, 0
    2840:	03380000 	teqeq	r8, #0, 0
    2844:	00040000 	andeq	r0, r4, r0
    2848:	9f5001f3 	svcls	0x005001f3
	...
    2868:	00000220 	andeq	r0, r0, r0, lsr #4
    286c:	00000244 	andeq	r0, r0, r4, asr #4
    2870:	44510001 	ldrbmi	r0, [r1], #-1
    2874:	68000002 	stmdavs	r0, {r1}
    2878:	01000002 	tsteq	r0, r2
    287c:	02685100 	rsbeq	r5, r8, #0
    2880:	027b0000 	rsbseq	r0, fp, #0, 0
    2884:	00030000 	andeq	r0, r3, r0
    2888:	7b9f0171 	blvc	fe7c2e54 <__bss_end__+0xfe7b807c>
    288c:	84000002 	strhi	r0, [r0], #-2
    2890:	17000002 	strne	r0, [r0, -r2]
    2894:	01f33800 	mvnseq	r3, r0, lsl #16
    2898:	5101f351 	tstpl	r1, r1, asr r3	; <UNPREDICTABLE>
    289c:	22244b40 	eorcs	r4, r4, #64, 22	; 0x10000
    28a0:	0000080c 	andeq	r0, r0, ip, lsl #16
    28a4:	01282d80 	smlawbeq	r8, r0, sp, r2
    28a8:	9f131600 	svcls	0x00131600
    28ac:	00000284 	andeq	r0, r0, r4, lsl #5
    28b0:	00000298 	muleq	r0, r8, r2
    28b4:	98510001 	ldmdals	r1, {r0}^
    28b8:	a4000002 	strge	r0, [r0], #-2
    28bc:	04000002 	streq	r0, [r0], #-2
    28c0:	5101f300 	mrspl	pc, SP_irq	; <UNPREDICTABLE>
    28c4:	0002a49f 	muleq	r2, pc, r4	; <UNPREDICTABLE>
    28c8:	0002a700 	andeq	sl, r2, r0, lsl #14
    28cc:	51000100 	mrspl	r0, (UNDEF: 16)
    28d0:	000002a7 	andeq	r0, r0, r7, lsr #5
    28d4:	000002c8 	andeq	r0, r0, r8, asr #5
    28d8:	01f30004 	mvnseq	r0, r4
    28dc:	02c89f51 	sbceq	r9, r8, #324	; 0x144
    28e0:	02dc0000 	sbcseq	r0, ip, #0, 0
    28e4:	00010000 	andeq	r0, r1, r0
    28e8:	0002dc51 	andeq	sp, r2, r1, asr ip
    28ec:	00033800 	andeq	r3, r3, r0, lsl #16
    28f0:	38001700 	stmdacc	r0, {r8, r9, sl, ip}
    28f4:	f35101f3 	vbsl	q8, <illegal reg q8.5>, <illegal reg q9.5>
    28f8:	4b405101 	blmi	1016d04 <__bss_end__+0x100bf2c>
    28fc:	080c2224 	stmdaeq	ip, {r2, r5, r9, sp}
    2900:	2d800000 	stccs	0, cr0, [r0]
    2904:	16000128 	strne	r0, [r0], -r8, lsr #2
    2908:	00009f13 	andeq	r9, r0, r3, lsl pc
	...
    291c:	024c0000 	subeq	r0, ip, #0, 0
    2920:	025c0000 	subseq	r0, ip, #0, 0
    2924:	00010000 	andeq	r0, r1, r0
    2928:	00025c52 	andeq	r5, r2, r2, asr ip
    292c:	00026400 	andeq	r6, r2, r0, lsl #8
    2930:	03000500 	movweq	r0, #1280	; 0x500
    2934:	0000a9a0 	andeq	sl, r0, r0, lsr #19
    2938:	00000264 	andeq	r0, r0, r4, ror #4
    293c:	0000027b 	andeq	r0, r0, fp, ror r2
    2940:	c8530001 	ldmdagt	r3, {r0}^
    2944:	d8000002 	stmdale	r0, {r1}
    2948:	01000002 	tsteq	r0, r2
    294c:	02d85200 	sbcseq	r5, r8, #0, 4
    2950:	02e30000 	rsceq	r0, r3, #0, 0
    2954:	00050000 	andeq	r0, r5, r0
    2958:	00a9a003 	adceq	sl, r9, r3
    295c:	0002e800 	andeq	lr, r2, r0, lsl #16
    2960:	0002eb00 	andeq	lr, r2, r0, lsl #22
    2964:	53000100 	movwpl	r0, #256	; 0x100
	...
    2970:	02300004 	eorseq	r0, r0, #4, 0
    2974:	02340000 	eorseq	r0, r4, #0, 0
    2978:	00010000 	andeq	r0, r1, r0
    297c:	00000051 	andeq	r0, r0, r1, asr r0
    2980:	00000000 	andeq	r0, r0, r0
    2984:	3c000200 	sfmcc	f0, 4, [r0], {-0}
    2988:	44000002 	strmi	r0, [r0], #-2
    298c:	02000002 	andeq	r0, r0, #2, 0
    2990:	009f3800 	addseq	r3, pc, r0, lsl #16
    2994:	00000000 	andeq	r0, r0, r0
    2998:	02000000 	andeq	r0, r0, #0, 0
    299c:	00023c00 	andeq	r3, r2, r0, lsl #24
    29a0:	00024400 	andeq	r4, r2, r0, lsl #8
    29a4:	51000100 	mrspl	r0, (UNDEF: 16)
	...
    29b0:	00000001 	andeq	r0, r0, r1
    29b4:	024c0000 	subeq	r0, ip, #0, 0
    29b8:	02640000 	rsbeq	r0, r4, #0, 0
    29bc:	00010000 	andeq	r0, r1, r0
    29c0:	0002c851 	andeq	ip, r2, r1, asr r8
    29c4:	0002dc00 	andeq	sp, r2, r0, lsl #24
    29c8:	51000100 	mrspl	r0, (UNDEF: 16)
    29cc:	000002dc 	ldrdeq	r0, [r0], -ip
    29d0:	000002e8 	andeq	r0, r0, r8, ror #5
    29d4:	f3380017 	vqadd.u64	d0, d8, d7
    29d8:	01f35101 	mvnseq	r5, r1, lsl #2
    29dc:	244b4051 	strbcs	r4, [fp], #-81	; 0xffffffaf
    29e0:	00080c22 	andeq	r0, r8, r2, lsr #24
    29e4:	282d8000 	stmdacs	sp!, {pc}
    29e8:	13160001 	tstne	r6, #1, 0
    29ec:	0000009f 	muleq	r0, pc, r0	; <UNPREDICTABLE>
    29f0:	00000000 	andeq	r0, r0, r0
    29f4:	00000100 	andeq	r0, r0, r0, lsl #2
    29f8:	00000000 	andeq	r0, r0, r0
    29fc:	00024c00 	andeq	r4, r2, r0, lsl #24
    2a00:	00025c00 	andeq	r5, r2, r0, lsl #24
    2a04:	52000100 	andpl	r0, r0, #0
    2a08:	0000025c 	andeq	r0, r0, ip, asr r2
    2a0c:	00000264 	andeq	r0, r0, r4, ror #4
    2a10:	a0030005 	andge	r0, r3, r5
    2a14:	c80000a9 	stmdagt	r0, {r0, r3, r5, r7}
    2a18:	d8000002 	stmdale	r0, {r1}
    2a1c:	01000002 	tsteq	r0, r2
    2a20:	02d85200 	sbcseq	r5, r8, #0, 4
    2a24:	02e30000 	rsceq	r0, r3, #0, 0
    2a28:	00050000 	andeq	r0, r5, r0
    2a2c:	00a9a003 	adceq	sl, r9, r3
	...
    2a38:	4c000400 	cfstrsmi	mvf0, [r0], {-0}
    2a3c:	50000002 	andpl	r0, r0, r2
    2a40:	01000002 	tsteq	r0, r2
    2a44:	00005100 	andeq	r5, r0, r0, lsl #2
    2a48:	00000000 	andeq	r0, r0, r0
    2a4c:	00030000 	andeq	r0, r3, r0
    2a50:	00000264 	andeq	r0, r0, r4, ror #4
    2a54:	00000268 	andeq	r0, r0, r8, ror #4
    2a58:	00510001 	subseq	r0, r1, r1
    2a5c:	00000000 	andeq	r0, r0, r0
    2a60:	03000000 	movweq	r0, #0
    2a64:	00026400 	andeq	r6, r2, r0, lsl #8
    2a68:	00026800 	andeq	r6, r2, r0, lsl #16
    2a6c:	53000100 	movwpl	r0, #256	; 0x100
	...
    2a80:	000001bc 			; <UNDEFINED> instruction: 0x000001bc
    2a84:	000001d3 	ldrdeq	r0, [r0], -r3
    2a88:	d3500001 	cmple	r0, #1, 0
    2a8c:	f0000001 			; <UNDEFINED> instruction: 0xf0000001
    2a90:	01000001 	tsteq	r0, r1
    2a94:	01f05400 	mvnseq	r5, r0, lsl #8
    2a98:	02080000 	andeq	r0, r8, #0, 0
    2a9c:	00010000 	andeq	r0, r1, r0
    2aa0:	00020850 	andeq	r0, r2, r0, asr r8
    2aa4:	00022000 	andeq	r2, r2, r0
    2aa8:	54000100 	strpl	r0, [r0], #-256	; 0xffffff00
	...
    2ab8:	000001d8 	ldrdeq	r0, [r0], -r8
    2abc:	000001e3 	andeq	r0, r0, r3, ror #3
    2ac0:	e3500001 	cmp	r0, #1, 0
    2ac4:	f0000001 			; <UNDEFINED> instruction: 0xf0000001
    2ac8:	01000001 	tsteq	r0, r1
    2acc:	00005500 	andeq	r5, r0, r0, lsl #10
	...
    2ae4:	01240000 			; <UNDEFINED> instruction: 0x01240000
    2ae8:	01380000 	teqeq	r8, r0
    2aec:	00010000 	andeq	r0, r1, r0
    2af0:	00013850 	andeq	r3, r1, r0, asr r8
    2af4:	00013c00 	andeq	r3, r1, r0, lsl #24
    2af8:	70000300 	andvc	r0, r0, r0, lsl #6
    2afc:	013c9f79 	teqeq	ip, r9, ror pc
    2b00:	01600000 	cmneq	r0, r0
    2b04:	00010000 	andeq	r0, r1, r0
    2b08:	00016053 	andeq	r6, r1, r3, asr r0
    2b0c:	00017800 	andeq	r7, r1, r0, lsl #16
    2b10:	50000100 	andpl	r0, r0, r0, lsl #2
    2b14:	00000178 	andeq	r0, r0, r8, ror r1
    2b18:	00000180 	andeq	r0, r0, r0, lsl #3
    2b1c:	01f30004 	mvnseq	r0, r4
    2b20:	01809f50 	orreq	r9, r0, r0, asr pc
    2b24:	01900000 	orrseq	r0, r0, r0
    2b28:	00010000 	andeq	r0, r1, r0
    2b2c:	00019053 	andeq	r9, r1, r3, asr r0
    2b30:	00019f00 	andeq	r9, r1, r0, lsl #30
    2b34:	91000200 	mrsls	r0, R8_usr
    2b38:	00019f68 	andeq	r9, r1, r8, ror #30
    2b3c:	0001bc00 	andeq	fp, r1, r0, lsl #24
    2b40:	f3000900 	vmls.i8	d0, d0, d0
    2b44:	07235001 	streq	r5, [r3, -r1]!
    2b48:	9f1af809 	svcls	0x001af809
	...
    2b58:	00000144 	andeq	r0, r0, r4, asr #2
    2b5c:	00000160 	andeq	r0, r0, r0, ror #2
    2b60:	80500001 	subshi	r0, r0, r1
    2b64:	9c000001 	stcls	0, cr0, [r0], {1}
    2b68:	01000001 	tsteq	r0, r1
    2b6c:	00005000 	andeq	r5, r0, r0
    2b70:	00000000 	andeq	r0, r0, r0
    2b74:	00030000 	andeq	r0, r3, r0
    2b78:	00000134 	andeq	r0, r0, r4, lsr r1
    2b7c:	0000013c 	andeq	r0, r0, ip, lsr r1
    2b80:	9f380002 	svcls	0x00380002
	...
    2b8c:	00000003 	andeq	r0, r0, r3
    2b90:	00000134 	andeq	r0, r0, r4, lsr r1
    2b94:	00000138 	andeq	r0, r0, r8, lsr r1
    2b98:	38500001 	ldmdacc	r0, {r0}^
    2b9c:	3c000001 	stccc	0, cr0, [r0], {1}
    2ba0:	03000001 	movweq	r0, #1
    2ba4:	9f797000 	svcls	0x00797000
	...
    2bbc:	00300000 	eorseq	r0, r0, r0
    2bc0:	00600000 	rsbeq	r0, r0, r0
    2bc4:	00010000 	andeq	r0, r1, r0
    2bc8:	00006050 	andeq	r6, r0, r0, asr r0
    2bcc:	00006c00 	andeq	r6, r0, r0, lsl #24
    2bd0:	03000500 	movweq	r0, #1280	; 0x500
    2bd4:	0000a9a0 	andeq	sl, r0, r0, lsr #19
    2bd8:	0000006c 	andeq	r0, r0, ip, rrx
    2bdc:	00000084 	andeq	r0, r0, r4, lsl #1
    2be0:	84500001 	ldrbhi	r0, [r0], #-1
    2be4:	8c000000 	stchi	0, cr0, [r0], {-0}
    2be8:	04000000 	streq	r0, [r0], #-0
    2bec:	5001f300 	andpl	pc, r1, r0, lsl #6
    2bf0:	00008c9f 	muleq	r0, pc, ip	; <UNPREDICTABLE>
    2bf4:	0000ac00 	andeq	sl, r0, r0, lsl #24
    2bf8:	50000100 	andpl	r0, r0, r0, lsl #2
    2bfc:	000000ac 	andeq	r0, r0, ip, lsr #1
    2c00:	000000af 	andeq	r0, r0, pc, lsr #1
    2c04:	68910002 	ldmvs	r1, {r1}
    2c08:	000000af 	andeq	r0, r0, pc, lsr #1
    2c0c:	000000cc 	andeq	r0, r0, ip, asr #1
    2c10:	01f30004 	mvnseq	r0, r4
    2c14:	00009f50 	andeq	r9, r0, r0, asr pc
	...
    2c24:	00300000 	eorseq	r0, r0, r0
    2c28:	00800000 	addeq	r0, r0, r0
    2c2c:	00010000 	andeq	r0, r1, r0
    2c30:	00008051 	andeq	r8, r0, r1, asr r0
    2c34:	00008c00 	andeq	r8, r0, r0, lsl #24
    2c38:	f3000400 	vshl.u8	d0, d0, d0
    2c3c:	8c9f5101 	ldfhis	f5, [pc], {1}
    2c40:	a8000000 	stmdage	r0, {}	; <UNPREDICTABLE>
    2c44:	01000000 	mrseq	r0, (UNDEF: 0)
    2c48:	00a85100 	adceq	r5, r8, r0, lsl #2
    2c4c:	00cc0000 	sbceq	r0, ip, r0
    2c50:	00040000 	andeq	r0, r4, r0
    2c54:	9f5101f3 	svcls	0x005101f3
	...
    2c60:	00000001 	andeq	r0, r0, r1
	...
    2c6c:	00380000 	eorseq	r0, r8, r0
    2c70:	00600000 	rsbeq	r0, r0, r0
    2c74:	00010000 	andeq	r0, r1, r0
    2c78:	00006050 	andeq	r6, r0, r0, asr r0
    2c7c:	00006c00 	andeq	r6, r0, r0, lsl #24
    2c80:	03000500 	movweq	r0, #1280	; 0x500
    2c84:	0000a9a0 	andeq	sl, r0, r0, lsr #19
    2c88:	0000006c 	andeq	r0, r0, ip, rrx
    2c8c:	00000084 	andeq	r0, r0, r4, lsl #1
    2c90:	84500001 	ldrbhi	r0, [r0], #-1
    2c94:	8c000000 	stchi	0, cr0, [r0], {-0}
    2c98:	04000000 	streq	r0, [r0], #-0
    2c9c:	5001f300 	andpl	pc, r1, r0, lsl #6
    2ca0:	00008c9f 	muleq	r0, pc, ip	; <UNPREDICTABLE>
    2ca4:	0000ac00 	andeq	sl, r0, r0, lsl #24
    2ca8:	50000100 	andpl	r0, r0, r0, lsl #2
    2cac:	000000ac 	andeq	r0, r0, ip, lsr #1
    2cb0:	000000af 	andeq	r0, r0, pc, lsr #1
    2cb4:	68910002 	ldmvs	r1, {r1}
    2cb8:	000000af 	andeq	r0, r0, pc, lsr #1
    2cbc:	000000cc 	andeq	r0, r0, ip, asr #1
    2cc0:	01f30004 	mvnseq	r0, r4
    2cc4:	00009f50 	andeq	r9, r0, r0, asr pc
	...
    2cd4:	00000170 	andeq	r0, r0, r0, ror r1
    2cd8:	0000017c 	andeq	r0, r0, ip, ror r1
    2cdc:	7c500001 	mrrcvc	0, 0, r0, r0, cr1	; <UNPREDICTABLE>
    2ce0:	88000001 	stmdahi	r0, {r0}
    2ce4:	01000001 	tsteq	r0, r1
    2ce8:	01885400 	orreq	r5, r8, r0, lsl #8
    2cec:	01980000 	orrseq	r0, r8, r0
    2cf0:	00040000 	andeq	r0, r4, r0
    2cf4:	9f5001f3 	svcls	0x005001f3
	...
    2d08:	01780000 	cmneq	r8, r0
    2d0c:	017c0000 	cmneq	ip, r0
    2d10:	000b0000 	andeq	r0, fp, r0
    2d14:	25350070 	ldrcs	r0, [r5, #-112]!	; 0xffffff90
    2d18:	8080b423 	addhi	fp, r0, r3, lsr #8
    2d1c:	7c9f0281 	lfmvc	f0, 4, [pc], {129}	; 0x81
    2d20:	80000001 	andhi	r0, r0, r1
    2d24:	0b000001 	bleq	2d30 <__code_start__-0x52d0>
    2d28:	35007400 	strcc	r7, [r0, #-1024]	; 0xfffffc00
    2d2c:	80b42325 	adcshi	r2, r4, r5, lsr #6
    2d30:	9f028180 	svcls	0x00028180
    2d34:	00000180 	andeq	r0, r0, r0, lsl #3
    2d38:	00000183 	andeq	r0, r0, r3, lsl #3
    2d3c:	83500001 	cmphi	r0, #1, 0
    2d40:	88000001 	stmdahi	r0, {r0}
    2d44:	0b000001 	bleq	2d50 <__code_start__-0x52b0>
    2d48:	35007400 	strcc	r7, [r0, #-1024]	; 0xfffffc00
    2d4c:	80b42325 	adcshi	r2, r4, r5, lsr #6
    2d50:	9f028180 	svcls	0x00028180
    2d54:	00000188 	andeq	r0, r0, r8, lsl #3
    2d58:	00000198 	muleq	r0, r8, r1
    2d5c:	01f3000c 	mvnseq	r0, ip
    2d60:	23253550 			; <UNDEFINED> instruction: 0x23253550
    2d64:	818080b4 	strhhi	r8, [r0, r4]
    2d68:	00009f02 	andeq	r9, r0, r2, lsl #30
    2d6c:	00000000 	andeq	r0, r0, r0
    2d70:	00010000 	andeq	r0, r1, r0
    2d74:	00000000 	andeq	r0, r0, r0
    2d78:	00000178 	andeq	r0, r0, r8, ror r1
    2d7c:	0000017c 	andeq	r0, r0, ip, ror r1
    2d80:	00700005 	rsbseq	r0, r0, r5
    2d84:	7c9f1a4f 	vldmiavc	pc, {s2-s80}
    2d88:	88000001 	stmdahi	r0, {r0}
    2d8c:	05000001 	streq	r0, [r0, #-1]
    2d90:	4f007400 	svcmi	0x00007400
    2d94:	01889f1a 	orreq	r9, r8, sl, lsl pc
    2d98:	01980000 	orrseq	r0, r8, r0
    2d9c:	00010000 	andeq	r0, r1, r0
    2da0:	00000054 	andeq	r0, r0, r4, asr r0
	...
    2db4:	00014000 	andeq	r4, r1, r0
    2db8:	00015400 	andeq	r5, r1, r0, lsl #8
    2dbc:	50000100 	andpl	r0, r0, r0, lsl #2
    2dc0:	00000154 	andeq	r0, r0, r4, asr r1
    2dc4:	00000158 	andeq	r0, r0, r8, asr r1
    2dc8:	58510001 	ldmdapl	r1, {r0}^
    2dcc:	5c000001 	stcpl	0, cr0, [r0], {1}
    2dd0:	04000001 	streq	r0, [r0], #-1
    2dd4:	5001f300 	andpl	pc, r1, r0, lsl #6
    2dd8:	00015c9f 	muleq	r1, pc, ip	; <UNPREDICTABLE>
    2ddc:	00016000 	andeq	r6, r1, r0
    2de0:	50000100 	andpl	r0, r0, r0, lsl #2
    2de4:	00000160 	andeq	r0, r0, r0, ror #2
    2de8:	00000164 	andeq	r0, r0, r4, ror #2
    2dec:	64510001 	ldrbvs	r0, [r1], #-1
    2df0:	70000001 	andvc	r0, r0, r1
    2df4:	04000001 	streq	r0, [r0], #-1
    2df8:	5001f300 	andpl	pc, r1, r0, lsl #6
    2dfc:	0000009f 	muleq	r0, pc, r0	; <UNPREDICTABLE>
	...
    2e08:	00014000 	andeq	r4, r1, r0
    2e0c:	00014c00 	andeq	r4, r1, r0, lsl #24
    2e10:	51000100 	mrspl	r0, (UNDEF: 16)
    2e14:	0000014c 	andeq	r0, r0, ip, asr #2
    2e18:	00000170 	andeq	r0, r0, r0, ror r1
    2e1c:	01f30004 	mvnseq	r0, r4
    2e20:	00009f51 	andeq	r9, r0, r1, asr pc
    2e24:	00000000 	andeq	r0, r0, r0
    2e28:	00010000 	andeq	r0, r1, r0
    2e2c:	00000000 	andeq	r0, r0, r0
    2e30:	00000150 	andeq	r0, r0, r0, asr r1
    2e34:	00000154 	andeq	r0, r0, r4, asr r1
    2e38:	54500001 	ldrbpl	r0, [r0], #-1
    2e3c:	58000001 	stmdapl	r0, {r0}
    2e40:	01000001 	tsteq	r0, r1
    2e44:	01585100 	cmpeq	r8, r0, lsl #2
    2e48:	015c0000 	cmpeq	ip, r0
    2e4c:	00040000 	andeq	r0, r4, r0
    2e50:	9f5001f3 	svcls	0x005001f3
	...
    2e5c:	00000002 	andeq	r0, r0, r2
    2e60:	015c0000 	cmpeq	ip, r0
    2e64:	01600000 	cmneq	r0, r0
    2e68:	00010000 	andeq	r0, r1, r0
    2e6c:	00016050 	andeq	r6, r1, r0, asr r0
    2e70:	00016400 	andeq	r6, r1, r0, lsl #8
    2e74:	51000100 	mrspl	r0, (UNDEF: 16)
    2e78:	00000164 	andeq	r0, r0, r4, ror #2
    2e7c:	00000170 	andeq	r0, r0, r0, ror r1
    2e80:	01f30004 	mvnseq	r0, r4
    2e84:	00009f50 	andeq	r9, r0, r0, asr pc
	...
    2e94:	000000e8 	andeq	r0, r0, r8, ror #1
    2e98:	00000108 	andeq	r0, r0, r8, lsl #2
    2e9c:	08500001 	ldmdaeq	r0, {r0}^
    2ea0:	28000001 	stmdacs	r0, {r0}
    2ea4:	01000001 	tsteq	r0, r1
    2ea8:	01285400 			; <UNDEFINED> instruction: 0x01285400
    2eac:	01400000 	mrseq	r0, (UNDEF: 64)
    2eb0:	00040000 	andeq	r0, r4, r0
    2eb4:	9f5001f3 	svcls	0x005001f3
	...
    2ec0:	00000002 	andeq	r0, r0, r2
    2ec4:	00e80000 	rsceq	r0, r8, r0
    2ec8:	01080000 	mrseq	r0, (UNDEF: 8)
    2ecc:	00010000 	andeq	r0, r1, r0
    2ed0:	00010850 	andeq	r0, r1, r0, asr r8
    2ed4:	00012800 	andeq	r2, r1, r0, lsl #16
    2ed8:	54000100 	strpl	r0, [r0], #-256	; 0xffffff00
    2edc:	00000128 	andeq	r0, r0, r8, lsr #2
    2ee0:	00000140 	andeq	r0, r0, r0, asr #2
    2ee4:	01f30004 	mvnseq	r0, r4
    2ee8:	00009f50 	andeq	r9, r0, r0, asr pc
	...
    2ef8:	000000f0 	strdeq	r0, [r0], -r0	; <UNPREDICTABLE>
    2efc:	00000108 	andeq	r0, r0, r8, lsl #2
    2f00:	08500001 	ldmdaeq	r0, {r0}^
    2f04:	28000001 	stmdacs	r0, {r0}
    2f08:	01000001 	tsteq	r0, r1
    2f0c:	01285400 			; <UNDEFINED> instruction: 0x01285400
    2f10:	01400000 	mrseq	r0, (UNDEF: 64)
    2f14:	00040000 	andeq	r0, r4, r0
    2f18:	9f5001f3 	svcls	0x005001f3
	...
    2f24:	00000003 	andeq	r0, r0, r3
    2f28:	00f00000 	rscseq	r0, r0, r0
    2f2c:	01080000 	mrseq	r0, (UNDEF: 8)
    2f30:	00070000 	andeq	r0, r7, r0
    2f34:	1d3a0070 	ldcne	0, cr0, [sl, #-448]!	; 0xfffffe40
    2f38:	089f1e33 	ldmeq	pc, {r0, r1, r4, r5, r9, sl, fp, ip}	; <UNPREDICTABLE>
    2f3c:	28000001 	stmdacs	r0, {r0}
    2f40:	07000001 	streq	r0, [r0, -r1]
    2f44:	3a007400 	bcc	1ff4c <__bss_end__+0x15174>
    2f48:	9f1e331d 	svcls	0x001e331d
    2f4c:	00000128 	andeq	r0, r0, r8, lsr #2
    2f50:	00000140 	andeq	r0, r0, r0, asr #2
    2f54:	01f30008 	mvnseq	r0, r8
    2f58:	331d3a50 	tstcc	sp, #80, 20	; 0x50000
    2f5c:	00009f1e 	andeq	r9, r0, lr, lsl pc
	...
    2f6c:	00000110 	andeq	r0, r0, r0, lsl r1
    2f70:	00000138 	andeq	r0, r0, r8, lsr r1
    2f74:	38560001 	ldmdacc	r6, {r0}^
    2f78:	3b000001 	blcc	2f84 <__code_start__-0x507c>
    2f7c:	01000001 	tsteq	r0, r1
    2f80:	013b5000 	teqeq	fp, r0
    2f84:	01400000 	mrseq	r0, (UNDEF: 64)
    2f88:	00260000 	eoreq	r0, r6, r0
    2f8c:	f75001f3 			; <UNDEFINED> instruction: 0xf75001f3
    2f90:	f425f72c 	vld1.8	{d15}, [r5 :128], ip
    2f94:	cccd0825 	stclgt	8, cr0, [sp], {37}	; 0x25
    2f98:	0000cccc 	andeq	ip, r0, ip, asr #25
    2f9c:	081e0000 	ldmdaeq	lr, {}	; <UNPREDICTABLE>
    2fa0:	2525f720 	strcs	pc, [r5, #-1824]!	; 0xfffff8e0
    2fa4:	00f72cf7 	ldrshteq	r2, [r7], #199	; 0xc7
    2fa8:	80232533 	eorhi	r2, r3, r3, lsr r5
    2fac:	3240a080 	subcc	sl, r0, #128, 0	; 0x80
    2fb0:	00009f24 	andeq	r9, r0, r4, lsr #30
    2fb4:	00000000 	andeq	r0, r0, r0
    2fb8:	01000000 	mrseq	r0, (UNDEF: 0)
    2fbc:	00000001 	andeq	r0, r0, r1
    2fc0:	01200000 			; <UNDEFINED> instruction: 0x01200000
    2fc4:	01200000 			; <UNDEFINED> instruction: 0x01200000
    2fc8:	00010000 	andeq	r0, r1, r0
    2fcc:	00012050 	andeq	r2, r1, r0, asr r0
    2fd0:	00012800 	andeq	r2, r1, r0, lsl #16
    2fd4:	37000d00 	strcc	r0, [r0, -r0, lsl #26]
    2fd8:	1d3a0074 	ldcne	0, cr0, [sl, #-464]!	; 0xfffffe30
    2fdc:	20241e33 	eorcs	r1, r4, r3, lsr lr
    2fe0:	9f1a0070 	svcls	0x001a0070
    2fe4:	00000128 	andeq	r0, r0, r8, lsr #2
    2fe8:	00000130 	andeq	r0, r0, r0, lsr r1
    2fec:	f337000e 	vhadd.u<illegal width 64>	d0, d7, d14
    2ff0:	1d3a5001 	ldcne	0, cr5, [sl, #-4]!
    2ff4:	20241e33 	eorcs	r1, r4, r3, lsr lr
    2ff8:	9f1a0070 	svcls	0x001a0070
    2ffc:	00000130 	andeq	r0, r0, r0, lsr r1
    3000:	0000013b 	andeq	r0, r0, fp, lsr r1
    3004:	f337000e 	vhadd.u<illegal width 64>	d0, d7, d14
    3008:	1d3a5001 	ldcne	0, cr5, [sl, #-4]!
    300c:	20241e33 	eorcs	r1, r4, r3, lsr lr
    3010:	9f1a0073 	svcls	0x001a0073
	...
    3020:	00000060 	andeq	r0, r0, r0, rrx
    3024:	00000090 	muleq	r0, r0, r0
    3028:	90500001 	subsls	r0, r0, r1
    302c:	b8000000 	stmdalt	r0, {}	; <UNPREDICTABLE>
    3030:	04000000 	streq	r0, [r0], #-0
    3034:	5001f300 	andpl	pc, r1, r0, lsl #6
    3038:	0000009f 	muleq	r0, pc, r0	; <UNPREDICTABLE>
    303c:	00000000 	andeq	r0, r0, r0
    3040:	00000200 	andeq	r0, r0, r0, lsl #4
    3044:	00006000 	andeq	r6, r0, r0
    3048:	00009000 	andeq	r9, r0, r0
    304c:	50000100 	andpl	r0, r0, r0, lsl #2
    3050:	00000090 	muleq	r0, r0, r0
    3054:	000000b8 	strheq	r0, [r0], -r8
    3058:	01f30004 	mvnseq	r0, r4
    305c:	00009f50 	andeq	r9, r0, r0, asr pc
	...
    3068:	00680000 	rsbeq	r0, r8, r0
    306c:	00900000 	addseq	r0, r0, r0
    3070:	00010000 	andeq	r0, r1, r0
    3074:	00009050 	andeq	r9, r0, r0, asr r0
    3078:	0000b800 	andeq	fp, r0, r0, lsl #16
    307c:	f3000400 	vshl.u8	d0, d0, d0
    3080:	009f5001 	addseq	r5, pc, r1
	...
    308c:	a0000000 	andge	r0, r0, r0
    3090:	b0000000 	andlt	r0, r0, r0
    3094:	01000000 	mrseq	r0, (UNDEF: 0)
    3098:	00b05400 	adcseq	r5, r0, r0, lsl #8
    309c:	00b80000 	adcseq	r0, r8, r0
    30a0:	00290000 	eoreq	r0, r9, r0
    30a4:	f35001f3 	vbsl	q8, q8, <illegal reg q9.5>
    30a8:	2cf75001 	ldclcs	0, cr5, [r7], #4
    30ac:	25f425f7 	ldrbcs	r2, [r4, #1527]!	; 0x5f7
    30b0:	cccccd08 	stclgt	13, cr12, [ip], {8}
    30b4:	000000cc 	andeq	r0, r0, ip, asr #1
    30b8:	20081e00 	andcs	r1, r8, r0, lsl #28
    30bc:	f72525f7 			; <UNDEFINED> instruction: 0xf72525f7
    30c0:	3300f72c 	movwcc	pc, #1836	; 0x72c	; <UNPREDICTABLE>
    30c4:	311e3525 	tstcc	lr, r5, lsr #10
    30c8:	1e331c24 	cdpne	12, 3, cr1, cr3, cr4, {1}
    30cc:	0000009f 	muleq	r0, pc, r0	; <UNPREDICTABLE>
    30d0:	00000000 	andeq	r0, r0, r0
    30d4:	00000100 	andeq	r0, r0, r0, lsl #2
    30d8:	a0000000 	andge	r0, r0, r0
    30dc:	b0000000 	andlt	r0, r0, r0
    30e0:	01000000 	mrseq	r0, (UNDEF: 0)
    30e4:	00b05500 	adcseq	r5, r0, r0, lsl #10
    30e8:	00b30000 	adcseq	r0, r3, r0
    30ec:	00010000 	andeq	r0, r1, r0
    30f0:	0000b350 	andeq	fp, r0, r0, asr r3
    30f4:	0000b800 	andeq	fp, r0, r0, lsl #16
    30f8:	f3002600 	vmax.u8	d2, d0, d0
    30fc:	2cf75001 	ldclcs	0, cr5, [r7], #4
    3100:	25f425f7 	ldrbcs	r2, [r4, #1527]!	; 0x5f7
    3104:	cccccd08 	stclgt	13, cr12, [ip], {8}
    3108:	000000cc 	andeq	r0, r0, ip, asr #1
    310c:	20081e00 	andcs	r1, r8, r0, lsl #28
    3110:	f72525f7 			; <UNDEFINED> instruction: 0xf72525f7
    3114:	3300f72c 	movwcc	pc, #1836	; 0x72c	; <UNPREDICTABLE>
    3118:	80802325 	addhi	r2, r0, r5, lsr #6
    311c:	243240a0 	ldrtcs	r4, [r2], #-160	; 0xffffff60
    3120:	0000009f 	muleq	r0, pc, r0	; <UNPREDICTABLE>
    3124:	00000000 	andeq	r0, r0, r0
    3128:	00000200 	andeq	r0, r0, r0, lsl #4
    312c:	00000101 	andeq	r0, r0, r1, lsl #2
    3130:	0000a000 	andeq	sl, r0, r0
    3134:	0000a400 	andeq	sl, r0, r0, lsl #8
    3138:	50000100 	andpl	r0, r0, r0, lsl #2
    313c:	000000a4 	andeq	r0, r0, r4, lsr #1
    3140:	000000a4 	andeq	r0, r0, r4, lsr #1
    3144:	a4530001 	ldrbge	r0, [r3], #-1
    3148:	a8000000 	stmdage	r0, {}	; <UNPREDICTABLE>
    314c:	08000000 	stmdaeq	r0, {}	; <UNPREDICTABLE>
    3150:	00743100 	rsbseq	r3, r4, r0, lsl #2
    3154:	21007324 	tstcs	r0, r4, lsr #6
    3158:	0000a89f 	muleq	r0, pc, r8	; <UNPREDICTABLE>
    315c:	0000b300 	andeq	fp, r0, r0, lsl #6
    3160:	51000100 	mrspl	r0, (UNDEF: 16)
	...
    3174:	0000003c 	andeq	r0, r0, ip, lsr r0
    3178:	3c500001 	mrrccc	0, 0, r0, r0, cr1	; <UNPREDICTABLE>
    317c:	60000000 	andvs	r0, r0, r0
    3180:	04000000 	streq	r0, [r0], #-0
    3184:	5001f300 	andpl	pc, r1, r0, lsl #6
    3188:	0000009f 	muleq	r0, pc, r0	; <UNPREDICTABLE>
	...
    3198:	00003f00 	andeq	r3, r0, r0, lsl #30
    319c:	51000100 	mrspl	r0, (UNDEF: 16)
    31a0:	0000003f 	andeq	r0, r0, pc, lsr r0
    31a4:	00000060 	andeq	r0, r0, r0, rrx
    31a8:	01f30004 	mvnseq	r0, r4
    31ac:	00009f51 	andeq	r9, r0, r1, asr pc
	...
    31b8:	00080000 	andeq	r0, r8, r0
    31bc:	003f0000 	eorseq	r0, pc, r0
    31c0:	00010000 	andeq	r0, r1, r0
    31c4:	00003f51 	andeq	r3, r0, r1, asr pc
    31c8:	00006000 	andeq	r6, r0, r0
    31cc:	f3000400 	vshl.u8	d0, d0, d0
    31d0:	009f5101 	addseq	r5, pc, r1, lsl #2
	...
    31dc:	08000000 	stmdaeq	r0, {}	; <UNPREDICTABLE>
    31e0:	3c000000 	stccc	0, cr0, [r0], {-0}
    31e4:	01000000 	mrseq	r0, (UNDEF: 0)
    31e8:	003c5000 	eorseq	r5, ip, r0
    31ec:	00600000 	rsbeq	r0, r0, r0
    31f0:	00040000 	andeq	r0, r4, r0
    31f4:	9f5001f3 	svcls	0x005001f3
	...
    3204:	00000048 	andeq	r0, r0, r8, asr #32
    3208:	00000058 	andeq	r0, r0, r8, asr r0
    320c:	58540001 	ldmdapl	r4, {r0}^
    3210:	60000000 	andvs	r0, r0, r0
    3214:	29000000 	stmdbcs	r0, {}	; <UNPREDICTABLE>
    3218:	5001f300 	andpl	pc, r1, r0, lsl #6
    321c:	f75001f3 			; <UNDEFINED> instruction: 0xf75001f3
    3220:	f425f72c 	vld1.8	{d15}, [r5 :128], ip
    3224:	cccd0825 	stclgt	8, cr0, [sp], {37}	; 0x25
    3228:	0000cccc 	andeq	ip, r0, ip, asr #25
    322c:	081e0000 	ldmdaeq	lr, {}	; <UNPREDICTABLE>
    3230:	2525f720 	strcs	pc, [r5, #-1824]!	; 0xfffff8e0
    3234:	00f72cf7 	ldrshteq	r2, [r7], #199	; 0xc7
    3238:	1e352533 	mrcne	5, 1, r2, cr5, cr3, {1}
    323c:	331c2431 	tstcc	ip, #822083584	; 0x31000000
    3240:	00009f1e 	andeq	r9, r0, lr, lsl pc
    3244:	00000000 	andeq	r0, r0, r0
    3248:	00010000 	andeq	r0, r1, r0
    324c:	00000000 	andeq	r0, r0, r0
    3250:	00000048 	andeq	r0, r0, r8, asr #32
    3254:	00000058 	andeq	r0, r0, r8, asr r0
    3258:	58560001 	ldmdapl	r6, {r0}^
    325c:	5b000000 	blpl	3264 <__code_start__-0x4d9c>
    3260:	01000000 	mrseq	r0, (UNDEF: 0)
    3264:	005b5000 	subseq	r5, fp, r0
    3268:	00600000 	rsbeq	r0, r0, r0
    326c:	00260000 	eoreq	r0, r6, r0
    3270:	f75001f3 			; <UNDEFINED> instruction: 0xf75001f3
    3274:	f425f72c 	vld1.8	{d15}, [r5 :128], ip
    3278:	cccd0825 	stclgt	8, cr0, [sp], {37}	; 0x25
    327c:	0000cccc 	andeq	ip, r0, ip, asr #25
    3280:	081e0000 	ldmdaeq	lr, {}	; <UNPREDICTABLE>
    3284:	2525f720 	strcs	pc, [r5, #-1824]!	; 0xfffff8e0
    3288:	00f72cf7 	ldrshteq	r2, [r7], #199	; 0xc7
    328c:	80232533 	eorhi	r2, r3, r3, lsr r5
    3290:	3240a080 	subcc	sl, r0, #128, 0	; 0x80
    3294:	00009f24 	andeq	r9, r0, r4, lsr #30
    3298:	00000000 	andeq	r0, r0, r0
    329c:	00020000 	andeq	r0, r2, r0
    32a0:	00010100 	andeq	r0, r1, r0, lsl #2
    32a4:	00480000 	subeq	r0, r8, r0
    32a8:	004c0000 	subeq	r0, ip, r0
    32ac:	00010000 	andeq	r0, r1, r0
    32b0:	00004c50 	andeq	r4, r0, r0, asr ip
    32b4:	00004c00 	andeq	r4, r0, r0, lsl #24
    32b8:	51000100 	mrspl	r0, (UNDEF: 16)
    32bc:	0000004c 	andeq	r0, r0, ip, asr #32
    32c0:	00000050 	andeq	r0, r0, r0, asr r0
    32c4:	0075000c 	rsbseq	r0, r5, ip
    32c8:	741aff08 	ldrvc	pc, [sl], #-3848	; 0xfffff0f8
    32cc:	00712400 	rsbseq	r2, r1, r0, lsl #8
    32d0:	00509f21 	subseq	r9, r0, r1, lsr #30
    32d4:	00540000 	subseq	r0, r4, r0
    32d8:	00120000 	andseq	r0, r2, r0
    32dc:	24007437 	strcs	r7, [r0], #-1079	; 0xfffffbc9
    32e0:	1a007020 	bne	1f368 <__bss_end__+0x14590>
    32e4:	ff080075 			; <UNDEFINED> instruction: 0xff080075
    32e8:	2400741a 	strcs	r7, [r0], #-1050	; 0xfffffbe6
    32ec:	00009f21 	andeq	r9, r0, r1, lsr #30
	...
    32fc:	000000b8 	strheq	r0, [r0], -r8
    3300:	000000c4 	andeq	r0, r0, r4, asr #1
    3304:	c4500001 	ldrbgt	r0, [r0], #-1
    3308:	cb000000 	blgt	3310 <__code_start__-0x4cf0>
    330c:	01000000 	mrseq	r0, (UNDEF: 0)
    3310:	00cb5300 	sbceq	r5, fp, r0, lsl #6
    3314:	00d00000 	sbcseq	r0, r0, r0
    3318:	00040000 	andeq	r0, r4, r0
    331c:	9f5001f3 	svcls	0x005001f3
	...
    332c:	00d00000 	sbcseq	r0, r0, r0
    3330:	00dc0000 	sbcseq	r0, ip, r0
    3334:	00010000 	andeq	r0, r1, r0
    3338:	0000dc50 	andeq	sp, r0, r0, asr ip
    333c:	0000e300 	andeq	lr, r0, r0, lsl #6
    3340:	53000100 	movwpl	r0, #256	; 0x100
    3344:	000000e3 	andeq	r0, r0, r3, ror #1
    3348:	000000e8 	andeq	r0, r0, r8, ror #1
    334c:	01f30004 	mvnseq	r0, r4
    3350:	00009f50 	andeq	r9, r0, r0, asr pc
	...
    3360:	000b0000 	andeq	r0, fp, r0
    3364:	00010000 	andeq	r0, r1, r0
    3368:	00000b50 	andeq	r0, r0, r0, asr fp
    336c:	00001400 	andeq	r1, r0, r0, lsl #8
    3370:	54000100 	strpl	r0, [r0], #-256	; 0xffffff00
	...
    3384:	00000018 	andeq	r0, r0, r8, lsl r0
    3388:	18510001 	ldmdane	r1, {r0}^
    338c:	2c000000 	stccs	0, cr0, [r0], {-0}
    3390:	04000000 	streq	r0, [r0], #-0
    3394:	5101f300 	mrspl	pc, SP_irq	; <UNPREDICTABLE>
    3398:	0000009f 	muleq	r0, pc, r0	; <UNPREDICTABLE>
    339c:	00000000 	andeq	r0, r0, r0
    33a0:	00000200 	andeq	r0, r0, r0, lsl #4
    33a4:	00000000 	andeq	r0, r0, r0
    33a8:	01010000 	mrseq	r0, (UNDEF: 1)
    33ac:	00000000 	andeq	r0, r0, r0
    33b0:	04000000 	streq	r0, [r0], #-0
    33b4:	01000000 	mrseq	r0, (UNDEF: 0)
    33b8:	00045000 	andeq	r5, r4, r0
    33bc:	00080000 	andeq	r0, r8, r0
    33c0:	00010000 	andeq	r0, r1, r0
    33c4:	00000852 	andeq	r0, r0, r2, asr r8
    33c8:	00000c00 	andeq	r0, r0, r0, lsl #24
    33cc:	72000300 	andvc	r0, r0, #0, 6
    33d0:	000c9f01 	andeq	r9, ip, r1, lsl #30
    33d4:	00180000 	andseq	r0, r8, r0
    33d8:	00010000 	andeq	r0, r1, r0
    33dc:	00001852 	andeq	r1, r0, r2, asr r8
    33e0:	00001c00 	andeq	r1, r0, r0, lsl #24
    33e4:	53000100 	movwpl	r0, #256	; 0x100
    33e8:	0000001c 	andeq	r0, r0, ip, lsl r0
    33ec:	00000024 	andeq	r0, r0, r4, lsr #32
    33f0:	01730003 	cmneq	r3, r3
    33f4:	0000249f 	muleq	r0, pc, r4	; <UNPREDICTABLE>
    33f8:	00002c00 	andeq	r2, r0, r0, lsl #24
    33fc:	53000100 	movwpl	r0, #256	; 0x100
	...
    3408:	00020203 	andeq	r0, r2, r3, lsl #4
    340c:	00000000 	andeq	r0, r0, r0
    3410:	00180000 	andseq	r0, r8, r0
    3414:	00010000 	andeq	r0, r1, r0
    3418:	00001851 	andeq	r1, r0, r1, asr r8
    341c:	00001c00 	andeq	r1, r0, r0, lsl #24
    3420:	71000300 	mrsvc	r0, LR_irq
    3424:	001c9f01 	andseq	r9, ip, r1, lsl #30
    3428:	002c0000 	eoreq	r0, ip, r0
    342c:	00010000 	andeq	r0, r1, r0
    3430:	00000051 	andeq	r0, r0, r1, asr r0
	...
    343c:	08000000 	stmdaeq	r0, {}	; <UNPREDICTABLE>
    3440:	0c000000 	stceq	0, cr0, [r0], {-0}
    3444:	02000000 	andeq	r0, r0, #0, 0
    3448:	0c007200 	sfmeq	f7, 4, [r0], {-0}
    344c:	18000000 	stmdane	r0, {}	; <UNPREDICTABLE>
    3450:	02000000 	andeq	r0, r0, #0, 0
    3454:	1c007300 	stcne	3, cr7, [r0], {-0}
    3458:	2c000000 	stccs	0, cr0, [r0], {-0}
    345c:	01000000 	mrseq	r0, (UNDEF: 0)
    3460:	00005200 	andeq	r5, r0, r0, lsl #4
	...
    3478:	00140000 	andseq	r0, r4, r0
    347c:	00010000 	andeq	r0, r1, r0
    3480:	00001450 	andeq	r1, r0, r0, asr r4
    3484:	00001800 	andeq	r1, r0, r0, lsl #16
    3488:	70000300 	andvc	r0, r0, r0, lsl #6
    348c:	00189f01 	andseq	r9, r8, r1, lsl #30
    3490:	00200000 	eoreq	r0, r0, r0
    3494:	00010000 	andeq	r0, r1, r0
    3498:	00002450 	andeq	r2, r0, r0, asr r4
    349c:	00002800 	andeq	r2, r0, r0, lsl #16
    34a0:	50000100 	andpl	r0, r0, r0, lsl #2
    34a4:	00000028 	andeq	r0, r0, r8, lsr #32
    34a8:	00000030 	andeq	r0, r0, r0, lsr r0
    34ac:	01700003 	cmneq	r0, r3
    34b0:	0000389f 	muleq	r0, pc, r8	; <UNPREDICTABLE>
    34b4:	00004000 	andeq	r4, r0, r0
    34b8:	50000100 	andpl	r0, r0, r0, lsl #2
	...
    34cc:	00240000 	eoreq	r0, r4, r0
    34d0:	00010000 	andeq	r0, r1, r0
    34d4:	00002451 	andeq	r2, r0, r1, asr r4
    34d8:	00002800 	andeq	r2, r0, r0, lsl #16
    34dc:	5c000100 	stfpls	f0, [r0], {-0}
    34e0:	00000028 	andeq	r0, r0, r8, lsr #32
    34e4:	00000044 	andeq	r0, r0, r4, asr #32
    34e8:	00510001 	subseq	r0, r1, r1
	...
    34f4:	00000202 	andeq	r0, r0, r2, lsl #4
    34f8:	00000000 	andeq	r0, r0, r0
    34fc:	00000400 	andeq	r0, r0, r0, lsl #8
    3500:	51000100 	mrspl	r0, (UNDEF: 16)
    3504:	00000004 	andeq	r0, r0, r4
    3508:	00000008 	andeq	r0, r0, r8
    350c:	01710003 	cmneq	r1, r3
    3510:	0000089f 	muleq	r0, pc, r8	; <UNPREDICTABLE>
    3514:	00001800 	andeq	r1, r0, r0, lsl #16
    3518:	51000100 	mrspl	r0, (UNDEF: 16)
	...
    3524:	00000002 	andeq	r0, r0, r2
    3528:	00040000 	andeq	r0, r4, r0
    352c:	00010000 	andeq	r0, r1, r0
    3530:	00000050 	andeq	r0, r0, r0, asr r0
	...
    3540:	00000800 	andeq	r0, r0, r0, lsl #16
    3544:	50000100 	andpl	r0, r0, r0, lsl #2
    3548:	00000008 	andeq	r0, r0, r8
    354c:	00000030 	andeq	r0, r0, r0, lsr r0
    3550:	01f30004 	mvnseq	r0, r4
    3554:	00009f50 	andeq	r9, r0, r0, asr pc
	...
    3564:	00080000 	andeq	r0, r8, r0
    3568:	00010000 	andeq	r0, r1, r0
    356c:	00000851 	andeq	r0, r0, r1, asr r8
    3570:	00003000 	andeq	r3, r0, r0
    3574:	f3000400 	vshl.u8	d0, d0, d0
    3578:	009f5101 	addseq	r5, pc, r1, lsl #2
	...
    3588:	02020100 	andeq	r0, r2, #0
    358c:	00000000 	andeq	r0, r0, r0
    3590:	00000400 	andeq	r0, r0, r0, lsl #8
    3594:	52000100 	andpl	r0, r0, #0
    3598:	00000004 	andeq	r0, r0, r4
    359c:	00000008 	andeq	r0, r0, r8
    35a0:	01f30004 	mvnseq	r0, r4
    35a4:	00089f52 	andeq	r9, r8, r2, asr pc
    35a8:	00180000 	andseq	r0, r8, r0
    35ac:	00060000 	andeq	r0, r6, r0
    35b0:	315201f3 	ldrshcc	r0, [r2, #-19]	; 0xffffffed
    35b4:	00189f1c 	andseq	r9, r8, ip, lsl pc
    35b8:	00180000 	andseq	r0, r8, r0
    35bc:	00040000 	andeq	r0, r4, r0
    35c0:	9f5201f3 	svcls	0x005201f3
    35c4:	00000018 	andeq	r0, r0, r8, lsl r0
    35c8:	00000030 	andeq	r0, r0, r0, lsr r0
    35cc:	01f30006 	mvnseq	r0, r6
    35d0:	9f1c3152 	svcls	0x001c3152
	...
    35dc:	00000002 	andeq	r0, r0, r2
    35e0:	00000001 	andeq	r0, r0, r1
    35e4:	00000000 	andeq	r0, r0, r0
    35e8:	0000000c 	andeq	r0, r0, ip
    35ec:	0c500001 	mrrceq	0, 0, r0, r0, cr1	; <UNPREDICTABLE>
    35f0:	18000000 	stmdane	r0, {}	; <UNPREDICTABLE>
    35f4:	03000000 	movweq	r0, #0
    35f8:	9f7f7000 	svcls	0x007f7000
    35fc:	00000018 	andeq	r0, r0, r8, lsl r0
    3600:	00000024 	andeq	r0, r0, r4, lsr #32
    3604:	28500001 	ldmdacs	r0, {r0}^
    3608:	2c000000 	stccs	0, cr0, [r0], {-0}
    360c:	03000000 	movweq	r0, #0
    3610:	9f7f7000 	svcls	0x007f7000
	...
    361c:	00000002 	andeq	r0, r0, r2
    3620:	00000000 	andeq	r0, r0, r0
    3624:	000c0000 	andeq	r0, ip, r0
    3628:	00010000 	andeq	r0, r1, r0
    362c:	00000c51 	andeq	r0, r0, r1, asr ip
    3630:	00001000 	andeq	r1, r0, r0
    3634:	71000300 	mrsvc	r0, LR_irq
    3638:	00109f01 	andseq	r9, r0, r1, lsl #30
    363c:	00300000 	eorseq	r0, r0, r0
    3640:	00010000 	andeq	r0, r1, r0
    3644:	00000051 	andeq	r0, r0, r1, asr r0
    3648:	00000000 	andeq	r0, r0, r0
	...

Disassembly of section .debug_aranges:

00000000 <.debug_aranges>:
   0:	0000001c 	andeq	r0, r0, ip, lsl r0
   4:	00000002 	andeq	r0, r0, r2
   8:	00040000 	andeq	r0, r4, r0
   c:	00000000 	andeq	r0, r0, r0
  10:	00008038 	andeq	r8, r0, r8, lsr r0
  14:	00000128 	andeq	r0, r0, r8, lsr #2
	...
  20:	0000001c 	andeq	r0, r0, ip, lsl r0
  24:	04ac0002 	strteq	r0, [ip], #2
  28:	00040000 	andeq	r0, r4, r0
  2c:	00000000 	andeq	r0, r0, r0
  30:	00008160 	andeq	r8, r0, r0, ror #2
  34:	00000294 	muleq	r0, r4, r2
	...
  40:	0000001c 	andeq	r0, r0, ip, lsl r0
  44:	0ced0002 	stcleq	0, cr0, [sp], #8
  48:	00040000 	andeq	r0, r4, r0
  4c:	00000000 	andeq	r0, r0, r0
  50:	000083f4 	strdeq	r8, [r0], -r4
  54:	00000190 	muleq	r0, r0, r1
	...
  60:	0000001c 	andeq	r0, r0, ip, lsl r0
  64:	0fe20002 	svceq	0x00e20002
  68:	00040000 	andeq	r0, r4, r0
  6c:	00000000 	andeq	r0, r0, r0
  70:	00008584 	andeq	r8, r0, r4, lsl #11
  74:	000005a4 	andeq	r0, r0, r4, lsr #11
	...
  80:	0000001c 	andeq	r0, r0, ip, lsl r0
  84:	1d710002 	ldclne	0, cr0, [r1, #-8]!
  88:	00040000 	andeq	r0, r4, r0
  8c:	00000000 	andeq	r0, r0, r0
  90:	00008b30 	andeq	r8, r0, r0, lsr fp
  94:	00000078 	andeq	r0, r0, r8, ror r0
	...
  a0:	0000001c 	andeq	r0, r0, ip, lsl r0
  a4:	1eb50002 	cdpne	0, 11, cr0, cr5, cr2, {0}
  a8:	00040000 	andeq	r0, r4, r0
  ac:	00000000 	andeq	r0, r0, r0
  b0:	00008ba8 	andeq	r8, r0, r8, lsr #23
  b4:	00000058 	andeq	r0, r0, r8, asr r0
	...
  c0:	0000001c 	andeq	r0, r0, ip, lsl r0
  c4:	20560002 	subscs	r0, r6, r2
  c8:	00040000 	andeq	r0, r4, r0
  cc:	00000000 	andeq	r0, r0, r0
  d0:	00008c00 	andeq	r8, r0, r0, lsl #24
  d4:	00000038 	andeq	r0, r0, r8, lsr r0
	...
  e0:	0000001c 	andeq	r0, r0, ip, lsl r0
  e4:	214d0002 	cmpcs	sp, r2
  e8:	00040000 	andeq	r0, r4, r0
  ec:	00000000 	andeq	r0, r0, r0
  f0:	00008c38 	andeq	r8, r0, r8, lsr ip
  f4:	000009b4 			; <UNDEFINED> instruction: 0x000009b4
	...
 100:	0000001c 	andeq	r0, r0, ip, lsl r0
 104:	2dd00002 	ldclcs	0, cr0, [r0, #8]
 108:	00040000 	andeq	r0, r4, r0
 10c:	00000000 	andeq	r0, r0, r0
 110:	000095ec 	andeq	r9, r0, ip, ror #11
 114:	0000002c 	andeq	r0, r0, ip, lsr #32
	...
 120:	0000001c 	andeq	r0, r0, ip, lsl r0
 124:	2f030002 	svccs	0x00030002
 128:	00040000 	andeq	r0, r4, r0
 12c:	00000000 	andeq	r0, r0, r0
 130:	00009618 	andeq	r9, r0, r8, lsl r6
 134:	000000f8 	strdeq	r0, [r0], -r8
	...
 140:	0000001c 	andeq	r0, r0, ip, lsl r0
 144:	30970002 	addscc	r0, r7, r2
 148:	00040000 	andeq	r0, r4, r0
 14c:	00000000 	andeq	r0, r0, r0
 150:	00009710 	andeq	r9, r0, r0, lsl r7
 154:	00000004 	andeq	r0, r0, r4
	...
 160:	0000001c 	andeq	r0, r0, ip, lsl r0
 164:	31690002 	cmncc	r9, r2
 168:	00040000 	andeq	r0, r4, r0
 16c:	00000000 	andeq	r0, r0, r0
 170:	00009714 	andeq	r9, r0, r4, lsl r7
 174:	0000008c 	andeq	r0, r0, ip, lsl #1
	...
 180:	0000001c 	andeq	r0, r0, ip, lsl r0
 184:	33ea0002 	mvncc	r0, #2, 0
 188:	00040000 	andeq	r0, r4, r0
 18c:	00000000 	andeq	r0, r0, r0
 190:	000097a0 	andeq	r9, r0, r0, lsr #15
 194:	0000011c 	andeq	r0, r0, ip, lsl r1
	...
 1a0:	0000001c 	andeq	r0, r0, ip, lsl r0
 1a4:	392d0002 	stmfdcc	sp!, {r1}
 1a8:	00040000 	andeq	r0, r4, r0
 1ac:	00000000 	andeq	r0, r0, r0
 1b0:	000098bc 			; <UNDEFINED> instruction: 0x000098bc
 1b4:	000001f0 	strdeq	r0, [r0], -r0	; <UNPREDICTABLE>
	...
 1c0:	0000001c 	andeq	r0, r0, ip, lsl r0
 1c4:	3efe0002 	cdpcc	0, 15, cr0, cr14, cr2, {0}
 1c8:	00040000 	andeq	r0, r4, r0
 1cc:	00000000 	andeq	r0, r0, r0
 1d0:	00009aac 	andeq	r9, r0, ip, lsr #21
 1d4:	000003b0 			; <UNDEFINED> instruction: 0x000003b0
	...
 1e0:	0000001c 	andeq	r0, r0, ip, lsl r0
 1e4:	47eb0002 	strbmi	r0, [fp, r2]!
 1e8:	00040000 	andeq	r0, r4, r0
 1ec:	00000000 	andeq	r0, r0, r0
 1f0:	00009e5c 	andeq	r9, r0, ip, asr lr
 1f4:	00000198 	muleq	r0, r8, r1
	...
 200:	0000001c 	andeq	r0, r0, ip, lsl r0
 204:	4e620002 	cdpmi	0, 6, cr0, cr2, cr2, {0}
 208:	00040000 	andeq	r0, r4, r0
 20c:	00000000 	andeq	r0, r0, r0
 210:	00009ff4 	strdeq	r9, [r0], -r4
 214:	0000003c 	andeq	r0, r0, ip, lsr r0
	...
 220:	0000001c 	andeq	r0, r0, ip, lsl r0
 224:	4faf0002 	svcmi	0x00af0002
 228:	00040000 	andeq	r0, r4, r0
 22c:	00000000 	andeq	r0, r0, r0
 230:	0000a030 	andeq	sl, r0, r0, lsr r0
 234:	0000002c 	andeq	r0, r0, ip, lsr #32
	...
 240:	0000001c 	andeq	r0, r0, ip, lsl r0
 244:	50ea0002 	rscpl	r0, sl, r2
 248:	00040000 	andeq	r0, r4, r0
 24c:	00000000 	andeq	r0, r0, r0
 250:	0000a05c 	andeq	sl, r0, ip, asr r0
 254:	00000044 	andeq	r0, r0, r4, asr #32
	...
 260:	0000001c 	andeq	r0, r0, ip, lsl r0
 264:	51e50002 	mvnpl	r0, r2
 268:	00040000 	andeq	r0, r4, r0
 26c:	00000000 	andeq	r0, r0, r0
 270:	0000a0a0 	andeq	sl, r0, r0, lsr #1
 274:	00000018 	andeq	r0, r0, r8, lsl r0
	...
 280:	0000001c 	andeq	r0, r0, ip, lsl r0
 284:	52f80002 	rscspl	r0, r8, #2, 0
 288:	00040000 	andeq	r0, r4, r0
 28c:	00000000 	andeq	r0, r0, r0
 290:	0000a0b8 	strheq	sl, [r0], -r8
 294:	00000030 	andeq	r0, r0, r0, lsr r0
	...
 2a0:	0000001c 	andeq	r0, r0, ip, lsl r0
 2a4:	544a0002 	strbpl	r0, [sl], #-2
 2a8:	00040000 	andeq	r0, r4, r0
 2ac:	00000000 	andeq	r0, r0, r0
 2b0:	0000a0e8 	andeq	sl, r0, r8, ror #1
 2b4:	00000004 	andeq	r0, r0, r4
	...

Disassembly of section .debug_ranges:

00000000 <.debug_ranges>:
   0:	00000008 	andeq	r0, r0, r8
   4:	00000080 	andeq	r0, r0, r0, lsl #1
   8:	00000088 	andeq	r0, r0, r8, lsl #1
   c:	000000dc 	ldrdeq	r0, [r0], -ip
	...
  18:	00000008 	andeq	r0, r0, r8
  1c:	00000020 	andeq	r0, r0, r0, lsr #32
  20:	0000004c 	andeq	r0, r0, ip, asr #32
  24:	0000005c 	andeq	r0, r0, ip, asr r0
  28:	00000088 	andeq	r0, r0, r8, lsl #1
  2c:	00000094 	muleq	r0, r4, r0
	...
  38:	00000034 	andeq	r0, r0, r4, lsr r0
  3c:	00000034 	andeq	r0, r0, r4, lsr r0
  40:	00000040 	andeq	r0, r0, r0, asr #32
  44:	00000044 	andeq	r0, r0, r4, asr #32
	...
  50:	00000034 	andeq	r0, r0, r4, lsr r0
  54:	00000034 	andeq	r0, r0, r4, lsr r0
  58:	00000034 	andeq	r0, r0, r4, lsr r0
  5c:	00000034 	andeq	r0, r0, r4, lsr r0
  60:	00000034 	andeq	r0, r0, r4, lsr r0
  64:	00000040 	andeq	r0, r0, r0, asr #32
	...
  70:	0000011c 	andeq	r0, r0, ip, lsl r1
  74:	0000013c 	andeq	r0, r0, ip, lsr r1
  78:	00000180 	andeq	r0, r0, r0, lsl #3
  7c:	00000188 	andeq	r0, r0, r8, lsl #3
  80:	00000198 	muleq	r0, r8, r1
  84:	00000200 	andeq	r0, r0, r0, lsl #4
	...
  90:	00000198 	muleq	r0, r8, r1
  94:	0000019c 	muleq	r0, ip, r1
  98:	000001ac 	andeq	r0, r0, ip, lsr #3
  9c:	000001b0 			; <UNDEFINED> instruction: 0x000001b0
  a0:	000001b0 			; <UNDEFINED> instruction: 0x000001b0
  a4:	000001b8 			; <UNDEFINED> instruction: 0x000001b8
	...
  b0:	000000d8 	ldrdeq	r0, [r0], -r8
  b4:	000000e4 	andeq	r0, r0, r4, ror #1
  b8:	0000012c 	andeq	r0, r0, ip, lsr #2
  bc:	0000013c 	andeq	r0, r0, ip, lsr r1
  c0:	00000164 	andeq	r0, r0, r4, ror #2
  c4:	00000180 	andeq	r0, r0, r0, lsl #3
	...
  d0:	00000034 	andeq	r0, r0, r4, lsr r0
  d4:	00000040 	andeq	r0, r0, r0, asr #32
  d8:	000000a0 	andeq	r0, r0, r0, lsr #1
  dc:	0000015c 	andeq	r0, r0, ip, asr r1
	...
  e8:	00000034 	andeq	r0, r0, r4, lsr r0
  ec:	00000040 	andeq	r0, r0, r0, asr #32
  f0:	000000a0 	andeq	r0, r0, r0, lsr #1
  f4:	000000a8 	andeq	r0, r0, r8, lsr #1
  f8:	000000b4 	strheq	r0, [r0], -r4
  fc:	0000015c 	andeq	r0, r0, ip, asr r1
	...
 108:	00000034 	andeq	r0, r0, r4, lsr r0
 10c:	00000038 	andeq	r0, r0, r8, lsr r0
 110:	000000b8 	strheq	r0, [r0], -r8
 114:	000000d8 	ldrdeq	r0, [r0], -r8
	...
 120:	00000034 	andeq	r0, r0, r4, lsr r0
 124:	00000038 	andeq	r0, r0, r8, lsr r0
 128:	000000bc 	strheq	r0, [r0], -ip
 12c:	000000d4 	ldrdeq	r0, [r0], -r4
	...
 138:	00000038 	andeq	r0, r0, r8, lsr r0
 13c:	00000040 	andeq	r0, r0, r0, asr #32
 140:	000000a0 	andeq	r0, r0, r0, lsr #1
 144:	000000a8 	andeq	r0, r0, r8, lsr #1
 148:	000000e0 	andeq	r0, r0, r0, ror #1
 14c:	0000015c 	andeq	r0, r0, ip, asr r1
	...
 158:	00000250 	andeq	r0, r0, r0, asr r2
 15c:	0000025c 	andeq	r0, r0, ip, asr r2
 160:	00000268 	andeq	r0, r0, r8, ror #4
 164:	000002c8 	andeq	r0, r0, r8, asr #5
	...
 170:	000004ac 	andeq	r0, r0, ip, lsr #9
 174:	000004b8 			; <UNDEFINED> instruction: 0x000004b8
 178:	000004c4 	andeq	r0, r0, r4, asr #9
 17c:	00000530 	andeq	r0, r0, r0, lsr r5
	...
 188:	000004c4 	andeq	r0, r0, r4, asr #9
 18c:	000004cc 	andeq	r0, r0, ip, asr #9
 190:	000004e4 	andeq	r0, r0, r4, ror #9
 194:	000004f4 	strdeq	r0, [r0], -r4
	...
 1a0:	000000a4 	andeq	r0, r0, r4, lsr #1
 1a4:	00000148 	andeq	r0, r0, r8, asr #2
 1a8:	00000158 	andeq	r0, r0, r8, asr r1
 1ac:	0000015c 	andeq	r0, r0, ip, asr r1
 1b0:	00000274 	andeq	r0, r0, r4, ror r2
 1b4:	00000278 	andeq	r0, r0, r8, ror r2
 1b8:	0000027c 	andeq	r0, r0, ip, ror r2
 1bc:	00000280 	andeq	r0, r0, r0, lsl #5
 1c0:	00000288 	andeq	r0, r0, r8, lsl #5
 1c4:	0000029c 	muleq	r0, ip, r2
 1c8:	000002c0 	andeq	r0, r0, r0, asr #5
 1cc:	000002cc 	andeq	r0, r0, ip, asr #5
 1d0:	000002f0 	strdeq	r0, [r0], -r0	; <UNPREDICTABLE>
 1d4:	000002f0 	strdeq	r0, [r0], -r0	; <UNPREDICTABLE>
 1d8:	000002f4 	strdeq	r0, [r0], -r4
 1dc:	000002f8 	strdeq	r0, [r0], -r8
	...
 1e8:	00000148 	andeq	r0, r0, r8, asr #2
 1ec:	00000158 	andeq	r0, r0, r8, asr r1
 1f0:	0000015c 	andeq	r0, r0, ip, asr r1
 1f4:	0000018c 	andeq	r0, r0, ip, lsl #3
 1f8:	0000029c 	muleq	r0, ip, r2
 1fc:	000002ac 	andeq	r0, r0, ip, lsr #5
	...
 208:	000003c8 	andeq	r0, r0, r8, asr #7
 20c:	000003d0 	ldrdeq	r0, [r0], -r0	; <UNPREDICTABLE>
 210:	00000404 	andeq	r0, r0, r4, lsl #8
 214:	000004ac 	andeq	r0, r0, ip, lsr #9
 218:	000004c0 	andeq	r0, r0, r0, asr #9
 21c:	00000920 	andeq	r0, r0, r0, lsr #18
 220:	00000928 	andeq	r0, r0, r8, lsr #18
 224:	000009b4 			; <UNDEFINED> instruction: 0x000009b4
	...
 230:	000003c8 	andeq	r0, r0, r8, asr #7
 234:	000003d0 	ldrdeq	r0, [r0], -r0	; <UNPREDICTABLE>
 238:	00000504 	andeq	r0, r0, r4, lsl #10
 23c:	000005d0 	ldrdeq	r0, [r0], -r0	; <UNPREDICTABLE>
 240:	00000800 	andeq	r0, r0, r0, lsl #16
 244:	00000888 	andeq	r0, r0, r8, lsl #17
 248:	00000930 	andeq	r0, r0, r0, lsr r9
 24c:	000009b4 			; <UNDEFINED> instruction: 0x000009b4
	...
 258:	00000404 	andeq	r0, r0, r4, lsl #8
 25c:	00000408 	andeq	r0, r0, r8, lsl #8
 260:	00000414 	andeq	r0, r0, r4, lsl r4
 264:	00000414 	andeq	r0, r0, r4, lsl r4
 268:	00000428 	andeq	r0, r0, r8, lsr #8
 26c:	0000042c 	andeq	r0, r0, ip, lsr #8
	...
 278:	000005fc 	strdeq	r0, [r0], -ip
 27c:	00000700 	andeq	r0, r0, r0, lsl #14
 280:	000007ec 	andeq	r0, r0, ip, ror #15
 284:	000007f4 	strdeq	r0, [r0], -r4
 288:	00000888 	andeq	r0, r0, r8, lsl #17
 28c:	00000894 	muleq	r0, r4, r8
 290:	000008a8 	andeq	r0, r0, r8, lsr #17
 294:	000008bc 			; <UNDEFINED> instruction: 0x000008bc
 298:	00000910 	andeq	r0, r0, r0, lsl r9
 29c:	00000920 	andeq	r0, r0, r0, lsr #18
	...
 2a8:	00000600 	andeq	r0, r0, r0, lsl #12
 2ac:	00000604 	andeq	r0, r0, r4, lsl #12
 2b0:	00000608 	andeq	r0, r0, r8, lsl #12
 2b4:	000006b4 			; <UNDEFINED> instruction: 0x000006b4
 2b8:	000006cc 	andeq	r0, r0, ip, asr #13
 2bc:	000006d0 	ldrdeq	r0, [r0], -r0	; <UNPREDICTABLE>
 2c0:	000008a8 	andeq	r0, r0, r8, lsr #17
 2c4:	000008b8 			; <UNDEFINED> instruction: 0x000008b8
 2c8:	00000910 	andeq	r0, r0, r0, lsl r9
 2cc:	00000920 	andeq	r0, r0, r0, lsr #18
	...
 2d8:	000006b4 			; <UNDEFINED> instruction: 0x000006b4
 2dc:	000006cc 	andeq	r0, r0, ip, asr #13
 2e0:	000006d0 	ldrdeq	r0, [r0], -r0	; <UNPREDICTABLE>
 2e4:	00000700 	andeq	r0, r0, r0, lsl #14
 2e8:	000007ec 	andeq	r0, r0, ip, ror #15
 2ec:	000007f4 	strdeq	r0, [r0], -r4
 2f0:	00000888 	andeq	r0, r0, r8, lsl #17
 2f4:	00000894 	muleq	r0, r4, r8
 2f8:	000008b8 			; <UNDEFINED> instruction: 0x000008b8
 2fc:	000008bc 			; <UNDEFINED> instruction: 0x000008bc
	...
 308:	00000700 	andeq	r0, r0, r0, lsl #14
 30c:	00000708 	andeq	r0, r0, r8, lsl #14
 310:	0000070c 	andeq	r0, r0, ip, lsl #14
 314:	000007ec 	andeq	r0, r0, ip, ror #15
 318:	00000894 	muleq	r0, r4, r8
 31c:	000008a8 	andeq	r0, r0, r8, lsr #17
	...
 328:	00000728 	andeq	r0, r0, r8, lsr #14
 32c:	000007a4 	andeq	r0, r0, r4, lsr #15
 330:	000007ac 	andeq	r0, r0, ip, lsr #15
 334:	000007b0 			; <UNDEFINED> instruction: 0x000007b0
 338:	00000894 	muleq	r0, r4, r8
 33c:	00000898 	muleq	r0, r8, r8
 340:	0000089c 	muleq	r0, ip, r8
 344:	000008a0 	andeq	r0, r0, r0, lsr #17
	...
 350:	000007a4 	andeq	r0, r0, r4, lsr #15
 354:	000007ac 	andeq	r0, r0, ip, lsr #15
 358:	000007b0 			; <UNDEFINED> instruction: 0x000007b0
 35c:	000007ec 	andeq	r0, r0, ip, ror #15
 360:	00000898 	muleq	r0, r8, r8
 364:	0000089c 	muleq	r0, ip, r8
 368:	000008a0 	andeq	r0, r0, r0, lsr #17
 36c:	000008a8 	andeq	r0, r0, r8, lsr #17
	...
 378:	00009740 	andeq	r9, r0, r0, asr #14
 37c:	00009740 	andeq	r9, r0, r0, asr #14
 380:	00009744 	andeq	r9, r0, r4, asr #14
 384:	0000974c 	andeq	r9, r0, ip, asr #14
	...
 390:	00009714 	andeq	r9, r0, r4, lsl r7
 394:	000097a0 	andeq	r9, r0, r0, lsr #15
	...
 3a0:	00000030 	andeq	r0, r0, r0, lsr r0
 3a4:	00000030 	andeq	r0, r0, r0, lsr r0
 3a8:	00000038 	andeq	r0, r0, r8, lsr r0
 3ac:	0000004c 	andeq	r0, r0, ip, asr #32
	...
 3b8:	0000004c 	andeq	r0, r0, ip, asr #32
 3bc:	00000050 	andeq	r0, r0, r0, asr r0
 3c0:	00000050 	andeq	r0, r0, r0, asr r0
 3c4:	00000078 	andeq	r0, r0, r8, ror r0
	...
 3d0:	0000004c 	andeq	r0, r0, ip, asr #32
 3d4:	00000050 	andeq	r0, r0, r0, asr r0
 3d8:	00000050 	andeq	r0, r0, r0, asr r0
 3dc:	00000060 	andeq	r0, r0, r0, rrx
 3e0:	00000064 	andeq	r0, r0, r4, rrx
 3e4:	00000068 	andeq	r0, r0, r8, rrx
	...
 3f0:	0000004c 	andeq	r0, r0, ip, asr #32
 3f4:	00000050 	andeq	r0, r0, r0, asr r0
 3f8:	00000054 	andeq	r0, r0, r4, asr r0
 3fc:	00000060 	andeq	r0, r0, r0, rrx
	...
 408:	0000009c 	muleq	r0, ip, r0
 40c:	000000a0 	andeq	r0, r0, r0, lsr #1
 410:	000000a0 	andeq	r0, r0, r0, lsr #1
 414:	000000c8 	andeq	r0, r0, r8, asr #1
	...
 420:	0000009c 	muleq	r0, ip, r0
 424:	000000a0 	andeq	r0, r0, r0, lsr #1
 428:	000000a0 	andeq	r0, r0, r0, lsr #1
 42c:	000000b0 	strheq	r0, [r0], -r0	; <UNPREDICTABLE>
 430:	000000b4 	strheq	r0, [r0], -r4
 434:	000000b8 	strheq	r0, [r0], -r8
	...
 440:	0000009c 	muleq	r0, ip, r0
 444:	000000a0 	andeq	r0, r0, r0, lsr #1
 448:	000000a4 	andeq	r0, r0, r4, lsr #1
 44c:	000000b0 	strheq	r0, [r0], -r0	; <UNPREDICTABLE>
	...
 458:	000000c8 	andeq	r0, r0, r8, asr #1
 45c:	000000c8 	andeq	r0, r0, r8, asr #1
 460:	000000cc 	andeq	r0, r0, ip, asr #1
 464:	0000011c 	andeq	r0, r0, ip, lsl r1
	...
 470:	000000f0 	strdeq	r0, [r0], -r0	; <UNPREDICTABLE>
 474:	000000f4 	strdeq	r0, [r0], -r4
 478:	000000f4 	strdeq	r0, [r0], -r4
 47c:	0000011c 	andeq	r0, r0, ip, lsl r1
	...
 488:	000000f0 	strdeq	r0, [r0], -r0	; <UNPREDICTABLE>
 48c:	000000f4 	strdeq	r0, [r0], -r4
 490:	000000f4 	strdeq	r0, [r0], -r4
 494:	00000104 	andeq	r0, r0, r4, lsl #2
 498:	00000108 	andeq	r0, r0, r8, lsl #2
 49c:	0000010c 	andeq	r0, r0, ip, lsl #2
	...
 4a8:	000000f0 	strdeq	r0, [r0], -r0	; <UNPREDICTABLE>
 4ac:	000000f4 	strdeq	r0, [r0], -r4
 4b0:	000000f8 	strdeq	r0, [r0], -r8
 4b4:	00000104 	andeq	r0, r0, r4, lsl #2
	...
 4c0:	00000134 	andeq	r0, r0, r4, lsr r1
 4c4:	00000134 	andeq	r0, r0, r4, lsr r1
 4c8:	00000134 	andeq	r0, r0, r4, lsr r1
 4cc:	0000013c 	andeq	r0, r0, ip, lsr r1
	...
 4d8:	0000024c 	andeq	r0, r0, ip, asr #4
 4dc:	00000264 	andeq	r0, r0, r4, ror #4
 4e0:	000002c8 	andeq	r0, r0, r8, asr #5
 4e4:	000002e8 	andeq	r0, r0, r8, ror #5
	...
 4f0:	00000008 	andeq	r0, r0, r8
 4f4:	0000000c 	andeq	r0, r0, ip
 4f8:	00000014 	andeq	r0, r0, r4, lsl r0
 4fc:	00000054 	andeq	r0, r0, r4, asr r0
 500:	00000058 	andeq	r0, r0, r8, asr r0
 504:	00000060 	andeq	r0, r0, r0, rrx
	...
 510:	00000060 	andeq	r0, r0, r0, rrx
 514:	00000068 	andeq	r0, r0, r8, rrx
 518:	0000006c 	andeq	r0, r0, ip, rrx
 51c:	000000ac 	andeq	r0, r0, ip, lsr #1
 520:	000000b0 	strheq	r0, [r0], -r0	; <UNPREDICTABLE>
 524:	000000b8 	strheq	r0, [r0], -r8
	...
 530:	00000068 	andeq	r0, r0, r8, rrx
 534:	00000068 	andeq	r0, r0, r8, rrx
 538:	0000006c 	andeq	r0, r0, ip, rrx
 53c:	000000ac 	andeq	r0, r0, ip, lsr #1
 540:	000000b0 	strheq	r0, [r0], -r0	; <UNPREDICTABLE>
 544:	000000b8 	strheq	r0, [r0], -r8
	...
 550:	000000e8 	andeq	r0, r0, r8, ror #1
 554:	000000f0 	strdeq	r0, [r0], -r0	; <UNPREDICTABLE>
 558:	000000f4 	strdeq	r0, [r0], -r4
 55c:	00000134 	andeq	r0, r0, r4, lsr r1
 560:	00000138 	andeq	r0, r0, r8, lsr r1
 564:	00000140 	andeq	r0, r0, r0, asr #2
	...
 570:	000000f0 	strdeq	r0, [r0], -r0	; <UNPREDICTABLE>
 574:	000000f0 	strdeq	r0, [r0], -r0	; <UNPREDICTABLE>
 578:	000000f4 	strdeq	r0, [r0], -r4
 57c:	00000134 	andeq	r0, r0, r4, lsr r1
 580:	00000138 	andeq	r0, r0, r8, lsr r1
 584:	00000140 	andeq	r0, r0, r0, asr #2
	...
 590:	00000144 	andeq	r0, r0, r4, asr #2
 594:	00000148 	andeq	r0, r0, r8, asr #2
 598:	00000150 	andeq	r0, r0, r0, asr r1
 59c:	0000015c 	andeq	r0, r0, ip, asr r1
	...

Disassembly of section .debug_line:

00000000 <.debug_line>:
       0:	00000214 	andeq	r0, r0, r4, lsl r2
       4:	00ee0003 	rsceq	r0, lr, r3
       8:	01020000 	mrseq	r0, (UNDEF: 2)
       c:	000d0efb 	strdeq	r0, [sp], -fp
      10:	01010101 	tsteq	r1, r1, lsl #2
      14:	01000000 	mrseq	r0, (UNDEF: 0)
      18:	74010000 	strvc	r0, [r1], #-0
      1c:	73747365 	cmnvc	r4, #-1811939327	; 0x94000001
      20:	302e322d 	eorcc	r3, lr, sp, lsr #4
      24:	2f002e00 	svccs	0x00002e00
      28:	2f74706f 	svccs	0x0074706f
      2c:	656d6f68 	strbvs	r6, [sp, #-3944]!	; 0xfffff098
      30:	77657262 	strbvc	r7, [r5, -r2, ror #4]!
      34:	6c65432f 	stclvs	3, cr4, [r5], #-188	; 0xffffff44
      38:	2f72616c 	svccs	0x0072616c
      3c:	2d6d7261 	sfmcs	f7, 2, [sp, #-388]!	; 0xfffffe7c
      40:	656e6f6e 	strbvs	r6, [lr, #-3950]!	; 0xfffff092
      44:	6261652d 	rsbvs	r6, r1, #188743680	; 0xb400000
      48:	2f392d69 	svccs	0x00392d69
      4c:	30322d39 	eorscc	r2, r2, r9, lsr sp
      50:	34713931 	ldrbtcc	r3, [r1], #-2353	; 0xfffff6cf
      54:	3173632d 	cmncc	r3, sp, lsr #6
      58:	2f653730 	svccs	0x00653730
      5c:	2f62696c 	svccs	0x0062696c
      60:	2f636367 	svccs	0x00636367
      64:	2d6d7261 	sfmcs	f7, 2, [sp, #-388]!	; 0xfffffe7c
      68:	656e6f6e 	strbvs	r6, [lr, #-3950]!	; 0xfffff092
      6c:	6261652d 	rsbvs	r6, r1, #188743680	; 0xb400000
      70:	2e392f69 	cdpcs	15, 3, cr2, cr9, cr9, {3}
      74:	2f312e32 	svccs	0x00312e32
      78:	6c636e69 	stclvs	14, cr6, [r3], #-420	; 0xfffffe5c
      7c:	00656475 	rsbeq	r6, r5, r5, ror r4
      80:	6573552f 	ldrbvs	r5, [r3, #-1327]!	; 0xfffffad1
      84:	6d2f7372 	stcvs	3, cr7, [pc, #-456]!	; fffffec4 <__bss_end__+0xffff50ec>
      88:	73656c69 	cmnvc	r5, #26880	; 0x6900
      8c:	756f532f 	strbvc	r5, [pc, #-815]!	; fffffd65 <__bss_end__+0xffff4f8d>
      90:	2f656372 	svccs	0x00656372
      94:	34327363 	ldrtcc	r7, [r2], #-867	; 0xfffffc9d
      98:	2f786c30 	svccs	0x00786c30
      9c:	7062696c 	rsbvc	r6, r2, ip, ror #18
      a0:	6e692f69 	cdpvs	15, 6, cr2, cr9, cr9, {3}
      a4:	64756c63 	ldrbtvs	r6, [r5], #-3171	; 0xfffff39d
      a8:	70000065 	andvc	r0, r0, r5, rrx
      ac:	32747261 	rsbscc	r7, r4, #268435462	; 0x10000006
      b0:	7365742d 	cmnvc	r5, #754974720	; 0x2d000000
      b4:	6e2d3474 	mcrvs	4, 1, r3, cr13, cr4, {3}
      b8:	656c2d6f 	strbvs	r2, [ip, #-3439]!	; 0xfffff291
      bc:	632e6b61 			; <UNDEFINED> instruction: 0x632e6b61
      c0:	00000100 	andeq	r0, r0, r0, lsl #2
      c4:	2d637273 	sfmcs	f7, 2, [r3, #-460]!	; 0xfffffe34
      c8:	2e636f6c 	cdpcs	15, 6, cr6, cr3, cr12, {3}
      cc:	00020068 	andeq	r0, r2, r8, rrx
      d0:	616b6300 	cmnvs	fp, r0, lsl #6
      d4:	636f6c6c 	cmnvs	pc, #108, 24	; 0x6c00
      d8:	0200682e 	andeq	r6, r0, #3014656	; 0x2e0000
      dc:	74730000 	ldrbtvc	r0, [r3], #-0
      e0:	746e6964 	strbtvc	r6, [lr], #-2404	; 0xfffff69c
      e4:	6363672d 	cmnvs	r3, #11796480	; 0xb40000
      e8:	0300682e 	movweq	r6, #2094	; 0x82e
      ec:	70720000 	rsbsvc	r0, r2, r0
      f0:	00682e69 	rsbeq	r2, r8, r9, ror #28
      f4:	00000004 	andeq	r0, r0, r4
      f8:	05001205 	streq	r1, [r0, #-517]	; 0xfffffdfb
      fc:	00803802 	addeq	r3, r0, r2, lsl #16
     100:	05051900 	streq	r1, [r5, #-2304]	; 0xfffff700
     104:	0905184b 	stmdbeq	r5, {r0, r1, r3, r6, fp, ip}
     108:	01140501 	tsteq	r4, r1, lsl #10
     10c:	04130905 	ldreq	r0, [r3], #-2309	; 0xfffff6fb
     110:	0e0b0502 	cfsh32eq	mvfx0, mvfx11, #2
     114:	05130505 	ldreq	r0, [r3, #-1285]	; 0xfffffafb
     118:	ba01060c 	blt	41950 <__bss_end__+0x36b78>
     11c:	1a050104 	bne	140534 <__bss_end__+0x13575c>
     120:	06090515 			; <UNDEFINED> instruction: 0x06090515
     124:	0e05679f 	mcreq	7, 0, r6, cr5, cr15, {4}
     128:	09050106 	stmdbeq	r5, {r1, r2, r8}
     12c:	0e054b06 	vmlaeq.f64	d4, d5, d6
     130:	02041106 	andeq	r1, r4, #-2147483647	; 0x80000001
     134:	82290c05 	eorhi	r0, r9, #1280	; 0x500
     138:	0d050104 	stfeqs	f0, [r5, #-16]
     13c:	01040200 	mrseq	r0, R12_usr
     140:	02001906 	andeq	r1, r0, #98304	; 0x18000
     144:	00010104 	andeq	r0, r1, r4, lsl #2
     148:	d6010402 	strle	r0, [r1], -r2, lsl #8
     14c:	02001a05 	andeq	r1, r0, #20480	; 0x5000
     150:	2a060204 	bcs	180968 <__bss_end__+0x175b90>
     154:	02000905 	andeq	r0, r0, #81920	; 0x14000
     158:	36060204 	strcc	r0, [r6], -r4, lsl #4
     15c:	02040200 	andeq	r0, r4, #0, 4
     160:	1d050106 	stfnes	f0, [r5, #-24]	; 0xffffffe8
     164:	02040200 	andeq	r0, r4, #0, 4
     168:	01770306 	cmneq	r7, r6, lsl #6
     16c:	02001405 	andeq	r1, r0, #83886080	; 0x5000000
     170:	05010204 	streq	r0, [r1, #-516]	; 0xfffffdfc
     174:	04020005 	streq	r0, [r2], #-5
     178:	00010602 	andeq	r0, r1, r2, lsl #12
     17c:	2e020402 	cdpcs	4, 0, cr0, cr2, cr2, {0}
     180:	2f060905 	svccs	0x00060905
     184:	0b050204 	bleq	14099c <__bss_end__+0x135bc4>
     188:	1305050e 	movwne	r0, #21774	; 0x550e
     18c:	01060c05 	tsteq	r6, r5, lsl #24
     190:	05010466 	streq	r0, [r1, #-1126]	; 0xfffffb9a
     194:	0905151a 	stmdbeq	r5, {r1, r3, r4, r8, sl, ip}
     198:	05679f06 	strbeq	r9, [r7, #-3846]!	; 0xfffff0fa
     19c:	0501060e 	streq	r0, [r1, #-1550]	; 0xfffff9f2
     1a0:	054b0609 	strbeq	r0, [fp, #-1545]	; 0xfffff9f7
     1a4:	0501060b 	streq	r0, [r1, #-1547]	; 0xfffff9f5
     1a8:	014b060d 	cmpeq	fp, sp, lsl #12
     1ac:	02040200 	andeq	r0, r4, #0, 4
     1b0:	04020066 	streq	r0, [r2], #-102	; 0xffffff9a
     1b4:	02000102 	andeq	r0, r0, #-2147483648	; 0x80000000
     1b8:	05130204 	ldreq	r0, [r3, #-516]	; 0xfffffdfc
     1bc:	04020015 	streq	r0, [r2], #-21	; 0xffffffeb
     1c0:	05010602 	streq	r0, [r1, #-1538]	; 0xfffff9fe
     1c4:	0402000d 	streq	r0, [r2], #-13
     1c8:	052f0602 	streq	r0, [pc, #-1538]!	; fffffbce <__bss_end__+0xffff4df6>
     1cc:	04020015 	streq	r0, [r2], #-21	; 0xffffffeb
     1d0:	00010602 	andeq	r0, r1, r2, lsl #12
     1d4:	4a020402 	bmi	811e4 <__bss_end__+0x7640c>
     1d8:	03060505 	movweq	r0, #25861	; 0x6505
     1dc:	05300109 	ldreq	r0, [r0, #-265]!	; 0xfffffef7
     1e0:	66130601 	ldrvs	r0, [r3], -r1, lsl #12
     1e4:	00061405 	andeq	r1, r6, r5, lsl #8
     1e8:	81340205 	teqhi	r4, r5, lsl #4
     1ec:	05140000 	ldreq	r0, [r4, #-0]
     1f0:	054d2f05 	strbeq	r2, [sp, #-3845]	; 0xfffff0fb
     1f4:	0501060f 	streq	r0, [r1, #-1551]	; 0xfffff9f1
     1f8:	014b0605 	cmpeq	fp, r5, lsl #12
     1fc:	11050304 	tstne	r5, r4, lsl #6
     200:	05017903 	streq	r7, [r1, #-2307]	; 0xfffff6fd
     204:	06131305 	ldreq	r1, [r3], -r5, lsl #6
     208:	17010401 	strne	r0, [r1, -r1, lsl #8]
     20c:	052e064a 	streq	r0, [lr, #-1610]!	; 0xfffff9b6
     210:	02130601 	andseq	r0, r3, #1048576	; 0x100000
     214:	01010006 	tsteq	r1, r6
     218:	000002e7 	andeq	r0, r0, r7, ror #5
     21c:	00e50003 	rsceq	r0, r5, r3
     220:	01020000 	mrseq	r0, (UNDEF: 2)
     224:	000d0efb 	strdeq	r0, [sp], -fp
     228:	01010101 	tsteq	r1, r1, lsl #2
     22c:	01000000 	mrseq	r0, (UNDEF: 0)
     230:	2f010000 	svccs	0x00010000
     234:	2f74706f 	svccs	0x0074706f
     238:	656d6f68 	strbvs	r6, [sp, #-3944]!	; 0xfffff098
     23c:	77657262 	strbvc	r7, [r5, -r2, ror #4]!
     240:	6c65432f 	stclvs	3, cr4, [r5], #-188	; 0xffffff44
     244:	2f72616c 	svccs	0x0072616c
     248:	2d6d7261 	sfmcs	f7, 2, [sp, #-388]!	; 0xfffffe7c
     24c:	656e6f6e 	strbvs	r6, [lr, #-3950]!	; 0xfffff092
     250:	6261652d 	rsbvs	r6, r1, #188743680	; 0xb400000
     254:	2f392d69 	svccs	0x00392d69
     258:	30322d39 	eorscc	r2, r2, r9, lsr sp
     25c:	34713931 	ldrbtcc	r3, [r1], #-2353	; 0xfffff6cf
     260:	3173632d 	cmncc	r3, sp, lsr #6
     264:	2f653730 	svccs	0x00653730
     268:	2f62696c 	svccs	0x0062696c
     26c:	2f636367 	svccs	0x00636367
     270:	2d6d7261 	sfmcs	f7, 2, [sp, #-388]!	; 0xfffffe7c
     274:	656e6f6e 	strbvs	r6, [lr, #-3950]!	; 0xfffff092
     278:	6261652d 	rsbvs	r6, r1, #188743680	; 0xb400000
     27c:	2e392f69 	cdpcs	15, 3, cr2, cr9, cr9, {3}
     280:	2f312e32 	svccs	0x00312e32
     284:	6c636e69 	stclvs	14, cr6, [r3], #-420	; 0xfffffe5c
     288:	00656475 	rsbeq	r6, r5, r5, ror r4
     28c:	6573552f 	ldrbvs	r5, [r3, #-1327]!	; 0xfffffad1
     290:	6d2f7372 	stcvs	3, cr7, [pc, #-456]!	; d0 <__code_start__-0x7f30>
     294:	73656c69 	cmnvc	r5, #26880	; 0x6900
     298:	756f532f 	strbvc	r5, [pc, #-815]!	; ffffff71 <__bss_end__+0xffff5199>
     29c:	2f656372 	svccs	0x00656372
     2a0:	34327363 	ldrtcc	r7, [r2], #-867	; 0xfffffc9d
     2a4:	2f786c30 	svccs	0x00786c30
     2a8:	7062696c 	rsbvc	r6, r2, ip, ror #18
     2ac:	6e692f69 	cdpvs	15, 6, cr2, cr9, cr9, {3}
     2b0:	64756c63 	ldrbtvs	r6, [r5], #-3171	; 0xfffff39d
     2b4:	63000065 	movwvs	r0, #101	; 0x65
     2b8:	6c6c616b 	stfvse	f6, [ip], #-428	; 0xfffffe54
     2bc:	632e636f 			; <UNDEFINED> instruction: 0x632e636f
     2c0:	00000000 	andeq	r0, r0, r0
     2c4:	6c616b63 			; <UNDEFINED> instruction: 0x6c616b63
     2c8:	2e636f6c 	cdpcs	15, 6, cr6, cr3, cr12, {3}
     2cc:	00000068 	andeq	r0, r0, r8, rrx
     2d0:	64747300 	ldrbtvs	r7, [r4], #-768	; 0xfffffd00
     2d4:	2d746e69 	ldclcs	14, cr6, [r4, #-420]!	; 0xfffffe5c
     2d8:	2e636367 	cdpcs	3, 6, cr6, cr3, cr7, {3}
     2dc:	00010068 	andeq	r0, r1, r8, rrx
     2e0:	69707200 	ldmdbvs	r0!, {r9, ip, sp, lr}^
     2e4:	0200682e 	andeq	r6, r0, #3014656	; 0x2e0000
     2e8:	72730000 	rsbsvc	r0, r3, #0, 0
     2ec:	6f6c2d63 	svcvs	0x006c2d63
     2f0:	00682e63 	rsbeq	r2, r8, r3, ror #28
     2f4:	6b000000 	blvs	2fc <__code_start__-0x7d04>
     2f8:	616d2d72 	smcvs	53970	; 0xd2d2
     2fc:	636f6c6c 	cmnvs	pc, #108, 24	; 0x6c00
     300:	0000682e 	andeq	r6, r0, lr, lsr #16
     304:	05000000 	streq	r0, [r0, #-0]
     308:	02050001 	andeq	r0, r5, #1, 0
     30c:	00008160 	andeq	r8, r0, r0, ror #2
     310:	05010b03 	streq	r0, [r1, #-2819]	; 0xfffff4fd
     314:	01051305 	tsteq	r5, r5, lsl #6
     318:	86061306 	strhi	r1, [r6], -r6, lsl #6
     31c:	05130505 	ldreq	r0, [r3, #-1285]	; 0xfffffafb
     320:	05010608 	streq	r0, [r1, #-1544]	; 0xfffff9f8
     324:	052f0609 	streq	r0, [pc, #-1545]!	; fffffd23 <__bss_end__+0xffff4f4b>
     328:	05010611 	streq	r0, [r1, #-1553]	; 0xfffff9ef
     32c:	31063001 	tstcc	r6, r1
     330:	05130505 	ldreq	r0, [r3, #-1285]	; 0xfffffafb
     334:	2e130601 	cfmsub32cs	mvax0, mvfx0, mvfx3, mvfx1
     338:	05053206 	streq	r3, [r5, #-518]	; 0xfffffdfa
     33c:	017a0313 	cmneq	sl, r3, lsl r3
     340:	18050204 	stmdane	r5, {r2, r9}
     344:	05011403 	streq	r1, [r1, #-1027]	; 0xfffffbfd
     348:	01061305 	tsteq	r6, r5, lsl #6
     34c:	24050104 	strcs	r0, [r5], #-260	; 0xfffffefc
     350:	05017103 	streq	r7, [r1, #-259]	; 0xfffffefd
     354:	062e4b01 	strteq	r4, [lr], -r1, lsl #22
     358:	13050532 	movwne	r0, #21810	; 0x5532
     35c:	72030705 	andvc	r0, r3, #1310720	; 0x140000
     360:	14050501 	strne	r0, [r5], #-1281	; 0xfffffaff
     364:	03060106 	movweq	r0, #24838	; 0x6106
     368:	0705010d 	streq	r0, [r5, -sp, lsl #2]
     36c:	05017703 	streq	r7, [r1, #-1795]	; 0xfffff8fd
     370:	01061405 	tsteq	r6, r5, lsl #8
     374:	017a0306 	cmneq	sl, r6, lsl #6
     378:	18050204 	stmdane	r5, {r2, r9}
     37c:	05011403 	streq	r1, [r1, #-1027]	; 0xfffffbfd
     380:	01061305 	tsteq	r6, r5, lsl #6
     384:	03060104 	movweq	r0, #24836	; 0x6104
     388:	24050179 	strcs	r0, [r5], #-377	; 0xfffffe87
     38c:	01780306 	cmneq	r8, r6, lsl #6
     390:	7a030c05 	bvc	c33ac <__bss_end__+0xb85d4>
     394:	01052e66 	tsteq	r5, r6, ror #28
     398:	66010f03 	strvs	r0, [r1], -r3, lsl #30
     39c:	01064d06 	tsteq	r6, r6, lsl #26
     3a0:	4c060505 	cfstr32mi	mvfx0, [r6], {5}
     3a4:	05010a05 	streq	r0, [r1, #-2565]	; 0xfffff5fb
     3a8:	015d0308 	cmpeq	sp, r8, lsl #6
     3ac:	05140505 	ldreq	r0, [r4, #-1285]	; 0xfffffafb
     3b0:	4a01060c 	bmi	41be8 <__bss_end__+0x36e10>
     3b4:	03062505 	movweq	r2, #25861	; 0x6505
     3b8:	05050121 	streq	r0, [r5, #-289]	; 0xfffffedf
     3bc:	09050106 	stmdbeq	r5, {r1, r2, r8}
     3c0:	0d054d06 	stceq	13, cr4, [r5, #-24]	; 0xffffffe8
     3c4:	0c050106 	stfeqs	f0, [r5], {6}
     3c8:	06280566 	strteq	r0, [r8], -r6, ror #10
     3cc:	03080547 	movweq	r0, #34119	; 0x8547
     3d0:	05050163 	streq	r0, [r5, #-355]	; 0xfffffe9d
     3d4:	13090514 	movwne	r0, #38164	; 0x9514
     3d8:	01061105 	tsteq	r6, r5, lsl #2
     3dc:	0625052e 	strteq	r0, [r5], -lr, lsr #10
     3e0:	05011a03 	streq	r1, [r1, #-2563]	; 0xfffff5fd
     3e4:	05010605 	streq	r0, [r1, #-1541]	; 0xfffff9fb
     3e8:	836b060d 	cmnhi	fp, #13631488	; 0xd00000
     3ec:	01050106 	tsteq	r5, r6, lsl #2
     3f0:	1c030616 	stcne	6, cr0, [r3], {22}
     3f4:	82010682 	andhi	r0, r1, #136314880	; 0x8200000
     3f8:	05052e4a 	streq	r2, [r5, #-3658]	; 0xfffff1b6
     3fc:	14132f06 	ldrne	r2, [r3], #-3846	; 0xfffff0fa
     400:	13669e01 	cmnne	r6, #1, 28
     404:	01060805 	tsteq	r6, r5, lsl #16
     408:	83060905 	movwhi	r0, #26885	; 0x6905
     40c:	05140505 	ldreq	r0, [r4, #-1285]	; 0xfffffafb
     410:	0501060e 	streq	r0, [r1, #-1550]	; 0xfffff9f2
     414:	014b0605 	cmpeq	fp, r5, lsl #12
     418:	05140182 	ldreq	r0, [r4, #-386]	; 0xfffffe7e
     41c:	015b030d 	cmpeq	fp, sp, lsl #6
     420:	01140505 	tsteq	r4, r5, lsl #10
     424:	05130101 	ldreq	r0, [r3, #-257]	; 0xfffffeff
     428:	0501060c 	streq	r0, [r1, #-1548]	; 0xfffff9f4
     42c:	054c0605 	strbeq	r0, [ip, #-1541]	; 0xfffff9fb
     430:	05010608 	streq	r0, [r1, #-1544]	; 0xfffff9f8
     434:	054c0609 	strbeq	r0, [ip, #-1545]	; 0xfffff9f7
     438:	0501060f 	streq	r0, [r1, #-1551]	; 0xfffff9f1
     43c:	052e2e0c 	streq	r2, [lr, #-3596]!	; 0xfffff1f4
     440:	062f0609 	strteq	r0, [pc], -r9, lsl #12
     444:	1803062e 	stmdane	r3, {r1, r2, r3, r5, r9, sl}
     448:	669e0101 	ldrvs	r0, [lr], r1, lsl #2
     44c:	02000505 	andeq	r0, r0, #20971520	; 0x1400000
     450:	00310104 	eorseq	r0, r1, r4, lsl #2
     454:	01010402 	tsteq	r1, r2, lsl #8
     458:	01040200 	mrseq	r0, R12_usr
     45c:	030d05d6 	movweq	r0, #54742	; 0xd5d6
     460:	1b052e6d 	blne	14be1c <__bss_end__+0x141044>
     464:	18050106 	stmdane	r5, {r1, r2, r8}
     468:	060d052e 	streq	r0, [sp], -lr, lsr #10
     46c:	1605052f 	strne	r0, [r5], -pc, lsr #10
     470:	03060106 	movweq	r0, #24838	; 0x6106
     474:	01050111 	tsteq	r5, r1, lsl r1
     478:	09054b06 	stmdbeq	r5, {r1, r2, r8, r9, fp, lr}
     47c:	7fb30306 	svcvc	0x00b30306
     480:	0611054a 	ldreq	r0, [r1], -sl, asr #10
     484:	0b052e01 	bleq	14bc90 <__bss_end__+0x140eb8>
     488:	05013203 	streq	r3, [r1, #-515]	; 0xfffffdfd
     48c:	054c0609 	strbeq	r0, [ip, #-1545]	; 0xfffff9f7
     490:	0501060c 	streq	r0, [r1, #-1548]	; 0xfffff9f4
     494:	4a4c0311 	bmi	13010e0 <__bss_end__+0x12f6308>
     498:	060b052e 	streq	r0, [fp], -lr, lsr #10
     49c:	05013203 	streq	r3, [r1, #-515]	; 0xfffffdfd
     4a0:	014b0308 	cmpeq	fp, r8, lsl #6
     4a4:	05140505 	ldreq	r0, [r4, #-1285]	; 0xfffffafb
     4a8:	4a010608 	bmi	41cd0 <__bss_end__+0x36ef8>
     4ac:	03060505 	movweq	r0, #25861	; 0x6505
     4b0:	0601013c 			; <UNDEFINED> instruction: 0x0601013c
     4b4:	0582064a 	streq	r0, [r2, #1610]	; 0x64a
     4b8:	08180301 	ldmdaeq	r8, {r0, r8, r9}
     4bc:	05010674 	streq	r0, [r1, #-1652]	; 0xfffff98c
     4c0:	059f0605 	ldreq	r0, [pc, #1541]	; acd <__code_start__-0x7533>
     4c4:	2e010610 	mcrcs	6, 0, r0, cr1, cr0, {0}
     4c8:	4b060505 	blmi	1818e4 <__bss_end__+0x176b0c>
     4cc:	06150568 	ldreq	r0, [r5], -r8, ror #10
     4d0:	06050501 	streq	r0, [r5], -r1, lsl #10
     4d4:	060e052f 	streq	r0, [lr], -pc, lsr #10
     4d8:	06050501 	streq	r0, [r5], -r1, lsl #10
     4dc:	0612054b 	ldreq	r0, [r2], -fp, asr #10
     4e0:	06050501 	streq	r0, [r5], -r1, lsl #10
     4e4:	9e9e0168 	fmllsez	f0, f6, #0.0
     4e8:	060d0514 			; <UNDEFINED> instruction: 0x060d0514
     4ec:	06050501 	streq	r0, [r5], -r1, lsl #10
     4f0:	06100567 	ldreq	r0, [r0], -r7, ror #10
     4f4:	06050501 	streq	r0, [r5], -r1, lsl #10
     4f8:	06010530 			; <UNDEFINED> instruction: 0x06010530
     4fc:	06026613 			; <UNDEFINED> instruction: 0x06026613
     500:	26010100 	strcs	r0, [r1], -r0, lsl #2
     504:	03000002 	movweq	r0, #2
     508:	00006400 	andeq	r6, r0, r0, lsl #8
     50c:	fb010200 	blx	40d16 <__bss_end__+0x35f3e>
     510:	01000d0e 	tsteq	r0, lr, lsl #26
     514:	00010101 	andeq	r0, r1, r1, lsl #2
     518:	00010000 	andeq	r0, r1, r0
     51c:	552f0100 	strpl	r0, [pc, #-256]!	; 424 <__code_start__-0x7bdc>
     520:	73726573 	cmnvc	r2, #482344960	; 0x1cc00000
     524:	6c696d2f 	stclvs	13, cr6, [r9], #-188	; 0xffffff44
     528:	532f7365 			; <UNDEFINED> instruction: 0x532f7365
     52c:	6372756f 	cmnvs	r2, #465567744	; 0x1bc00000
     530:	73632f65 	cmnvc	r3, #404	; 0x194
     534:	6c303432 	cfldrsvs	mvf3, [r0], #-200	; 0xffffff38
     538:	696c2f78 	stmdbvs	ip!, {r3, r4, r5, r6, r8, r9, sl, fp, sp}^
     53c:	2f697062 	svccs	0x00697062
     540:	6c636e69 	stclvs	14, cr6, [r3], #-420	; 0xfffffe5c
     544:	00656475 	rsbeq	r6, r5, r5, ror r4
     548:	2d726b00 	vldmdbcs	r2!, {d22-d21}
     54c:	6c6c616d 	stfvse	f6, [ip], #-436	; 0xfffffe4c
     550:	632e636f 			; <UNDEFINED> instruction: 0x632e636f
     554:	00000000 	andeq	r0, r0, r0
     558:	2e697072 	mcrcs	0, 3, r7, cr9, cr2, {3}
     55c:	00010068 	andeq	r0, r1, r8, rrx
     560:	2d726b00 	vldmdbcs	r2!, {d22-d21}
     564:	6c6c616d 	stfvse	f6, [ip], #-436	; 0xfffffe4c
     568:	682e636f 	stmdavs	lr!, {r0, r1, r2, r3, r5, r6, r8, r9, sp, lr}
     56c:	00000000 	andeq	r0, r0, r0
     570:	00010500 	andeq	r0, r1, r0, lsl #10
     574:	83f40205 	mvnshi	r0, #1342177280	; 0x50000000
     578:	d3030000 	movwle	r0, #12288	; 0x3000
     57c:	01060100 	mrseq	r0, (UNDEF: 22)
     580:	2f060205 	svccs	0x00060205
     584:	06050513 			; <UNDEFINED> instruction: 0x06050513
     588:	06020501 	streq	r0, [r2], -r1, lsl #10
     58c:	0609052f 	streq	r0, [r9], -pc, lsr #10
     590:	4a020501 	bmi	8199c <__bss_end__+0x76bc4>
     594:	2f060305 	svccs	0x00060305
     598:	01061005 	tsteq	r6, r5
     59c:	052e0605 	streq	r0, [lr, #-1541]!	; 0xfffff9fb
     5a0:	04020020 	streq	r0, [r2], #-32	; 0xffffffe0
     5a4:	01054a02 	tsteq	r5, r2, lsl #20
     5a8:	01040200 	mrseq	r0, R12_usr
     5ac:	00120546 	andseq	r0, r2, r6, asr #10
     5b0:	06010402 	streq	r0, [r1], -r2, lsl #8
     5b4:	00020531 	andeq	r0, r2, r1, lsr r5
     5b8:	06010402 	streq	r0, [r1], -r2, lsl #8
     5bc:	00270501 	eoreq	r0, r7, r1, lsl #10
     5c0:	4a030402 	bmi	c15d0 <__bss_end__+0xb67f8>
     5c4:	02001205 	andeq	r1, r0, #1342177280	; 0x50000000
     5c8:	052e0304 	streq	r0, [lr, #-772]!	; 0xfffffcfc
     5cc:	054b0603 	strbeq	r0, [fp, #-1539]	; 0xfffff9fd
     5d0:	05010606 	streq	r0, [r1, #-1542]	; 0xfffff9fa
     5d4:	054c0602 	strbeq	r0, [ip, #-1538]	; 0xfffff9fe
     5d8:	05010610 	streq	r0, [r1, #-1552]	; 0xfffff9f0
     5dc:	09052e1d 	stmdbeq	r5, {r0, r2, r3, r4, r9, sl, fp, sp}
     5e0:	2e05052e 	cfsh32cs	mvfx0, mvfx5, #30
     5e4:	30060305 	andcc	r0, r6, r5, lsl #6
     5e8:	01060e05 	tsteq	r6, r5, lsl #28
     5ec:	67060305 	strvs	r0, [r6, -r5, lsl #6]
     5f0:	01061a05 	tsteq	r6, r5, lsl #20
     5f4:	4d060305 	stcmi	3, cr0, [r6, #-20]	; 0xffffffec
     5f8:	01060d05 	tsteq	r6, r5, lsl #26
     5fc:	2f060205 	svccs	0x00060205
     600:	01060e05 	tsteq	r6, r5, lsl #28
     604:	052e0805 	streq	r0, [lr, #-2053]!	; 0xfffff7fb
     608:	03052e05 	movweq	r2, #24069	; 0x5e05
     60c:	0d053006 	stceq	0, cr3, [r5, #-24]	; 0xffffffe8
     610:	052e0106 	streq	r0, [lr, #-262]!	; 0xfffffefa
     614:	054b0603 	strbeq	r0, [fp, #-1539]	; 0xfffff9fd
     618:	05010613 	streq	r0, [r1, #-1555]	; 0xfffff9ed
     61c:	03052e0c 	movweq	r2, #24076	; 0x5e0c
     620:	0c053106 	stfeqs	f3, [r5], {6}
     624:	02050106 	andeq	r0, r5, #-2147483647	; 0x80000001
     628:	08052f06 	stmdaeq	r5, {r1, r2, r8, r9, sl, fp, sp}
     62c:	01050106 	tsteq	r5, r6, lsl #2
     630:	4303064b 	movwmi	r0, #13899	; 0x364b
     634:	0501064a 	streq	r0, [r1, #-1610]	; 0xfffff9b6
     638:	132f0602 			; <UNDEFINED> instruction: 0x132f0602
     63c:	06240514 			; <UNDEFINED> instruction: 0x06240514
     640:	2e290501 	cfsh64cs	mvdx0, mvdx9, #1
     644:	052e0905 	streq	r0, [lr, #-2309]!	; 0xfffff6fb
     648:	052f0602 	streq	r0, [pc, #-1538]!	; 4e <__code_start__-0x7fb2>
     64c:	0501060d 	streq	r0, [r1, #-1549]	; 0xfffff9f3
     650:	02054a05 	andeq	r4, r5, #20480	; 0x5000
     654:	09055006 	stmdbeq	r5, {r1, r2, ip, lr}
     658:	03050106 	movweq	r0, #20742	; 0x5106
     65c:	0b053006 	bleq	14c67c <__bss_end__+0x1418a4>
     660:	06050106 	streq	r0, [r5], -r6, lsl #2
     664:	0309052e 	movweq	r0, #38190	; 0x952e
     668:	02054a0f 	andeq	r4, r5, #61440	; 0xf000
     66c:	662e5803 	strtvs	r5, [lr], -r3, lsl #16
     670:	03060305 	movweq	r0, #25349	; 0x6305
     674:	16050113 			; <UNDEFINED> instruction: 0x16050113
     678:	0e050106 	adfeqs	f0, f5, f6
     67c:	06030566 	streq	r0, [r3], -r6, ror #10
     680:	060f052f 	streq	r0, [pc], -pc, lsr #10
     684:	06020501 	streq	r0, [r2], -r1, lsl #10
     688:	1403054d 	strne	r0, [r3], #-1357	; 0xfffffab3
     68c:	05300405 	ldreq	r0, [r0, #-1029]!	; 0xfffffbfb
     690:	05010607 	streq	r0, [r1, #-1543]	; 0xfffff9f9
     694:	05300605 	ldreq	r0, [r0, #-1541]!	; 0xfffff9fb
     698:	05010618 	streq	r0, [r1, #-1560]	; 0xfffff9e8
     69c:	05052e12 	streq	r2, [r5, #-3602]	; 0xfffff1ee
     6a0:	0f053206 	svceq	0x00053206
     6a4:	05050106 	streq	r0, [r5, #-262]	; 0xfffffefa
     6a8:	07054b06 	streq	r4, [r5, -r6, lsl #22]
     6ac:	05050106 	streq	r0, [r5, #-262]	; 0xfffffefa
     6b0:	0f052f06 	svceq	0x00052f06
     6b4:	04050106 	streq	r0, [r5], #-262	; 0xfffffefa
     6b8:	0a053006 	beq	14c6d8 <__bss_end__+0x141900>
     6bc:	052e0106 	streq	r0, [lr, #-262]!	; 0xfffffefa
     6c0:	052f0604 	streq	r0, [pc, #-1540]!	; c4 <__code_start__-0x7f3c>
     6c4:	0501060b 	streq	r0, [r1, #-1547]	; 0xfffff9f5
     6c8:	5e030602 	cfmadd32pl	mvax0, mvfx0, mvfx3, mvfx2
     6cc:	0d05134a 	stceq	3, cr1, [r5, #-296]	; 0xfffffed8
     6d0:	02050106 	andeq	r0, r5, #-2147483647	; 0x80000001
     6d4:	2e062f06 	cdpcs	15, 0, cr2, cr6, cr6, {0}
     6d8:	09052f06 	stmdbeq	r5, {r1, r2, r8, r9, sl, fp, sp}
     6dc:	052e0106 	streq	r0, [lr, #-262]!	; 0xfffffefa
     6e0:	01230307 			; <UNDEFINED> instruction: 0x01230307
     6e4:	03061a05 	movweq	r1, #27141	; 0x6a05
     6e8:	27054a6d 	strcs	r4, [r5, -sp, ror #20]
     6ec:	18050106 	stmdane	r5, {r1, r2, r8}
     6f0:	03052e06 	movweq	r2, #24070	; 0x5e06
     6f4:	060b0514 			; <UNDEFINED> instruction: 0x060b0514
     6f8:	2e060501 	cfsh32cs	mvfx0, mvfx6, #1
     6fc:	03060305 	movweq	r0, #25349	; 0x6305
     700:	06054a0f 	streq	r4, [r5], -pc, lsl #20
     704:	04050106 	streq	r0, [r5], #-262	; 0xfffffefa
     708:	10058406 	andne	r8, r5, r6, lsl #8
     70c:	05015203 	streq	r5, [r1, #-515]	; 0xfffffdfd
     710:	67141402 	ldrvs	r1, [r4, -r2, lsl #8]
     714:	01060d05 	tsteq	r6, r5, lsl #26
     718:	4b060205 	blmi	180f34 <__bss_end__+0x17615c>
     71c:	01060505 	tsteq	r6, r5, lsl #10
     720:	2a030c05 	bcs	c373c <__bss_end__+0xb8964>
     724:	3201054a 	andcc	r0, r1, #310378496	; 0x12800000
     728:	01000602 	tsteq	r0, r2, lsl #12
     72c:	00053701 	andeq	r3, r5, r1, lsl #14
     730:	d4000300 	strle	r0, [r0], #-768	; 0xfffffd00
     734:	02000000 	andeq	r0, r0, #0, 0
     738:	0d0efb01 	vstreq	d15, [lr, #-4]
     73c:	01010100 	mrseq	r0, (UNDEF: 17)
     740:	00000001 	andeq	r0, r0, r1
     744:	01000001 	tsteq	r0, r1
     748:	74706f2f 	ldrbtvc	r6, [r0], #-3887	; 0xfffff0d1
     74c:	6d6f682f 	stclvs	8, cr6, [pc, #-188]!	; 698 <__code_start__-0x7968>
     750:	65726265 	ldrbvs	r6, [r2, #-613]!	; 0xfffffd9b
     754:	65432f77 	strbvs	r2, [r3, #-3959]	; 0xfffff089
     758:	72616c6c 	rsbvc	r6, r1, #108, 24	; 0x6c00
     75c:	6d72612f 	ldfvse	f6, [r2, #-188]!	; 0xffffff44
     760:	6e6f6e2d 	cdpvs	14, 6, cr6, cr15, cr13, {1}
     764:	61652d65 	cmnvs	r5, r5, ror #26
     768:	392d6962 	pushcc	{r1, r5, r6, r8, fp, sp, lr}
     76c:	322d392f 	eorcc	r3, sp, #770048	; 0xbc000
     770:	71393130 	teqvc	r9, r0, lsr r1
     774:	73632d34 	cmnvc	r3, #52, 26	; 0xd00
     778:	65373031 	ldrvs	r3, [r7, #-49]!	; 0xffffffcf
     77c:	62696c2f 	rsbvs	r6, r9, #12032	; 0x2f00
     780:	6363672f 	cmnvs	r3, #12320768	; 0xbc0000
     784:	6d72612f 	ldfvse	f6, [r2, #-188]!	; 0xffffff44
     788:	6e6f6e2d 	cdpvs	14, 6, cr6, cr15, cr13, {1}
     78c:	61652d65 	cmnvs	r5, r5, ror #26
     790:	392f6962 	stmdbcc	pc!, {r1, r5, r6, r8, fp, sp, lr}	; <UNPREDICTABLE>
     794:	312e322e 			; <UNDEFINED> instruction: 0x312e322e
     798:	636e692f 	cmnvs	lr, #770048	; 0xbc000
     79c:	6564756c 	strbvs	r7, [r4, #-1388]!	; 0xfffffa94
     7a0:	73552f00 	cmpvc	r5, #0, 30
     7a4:	2f737265 	svccs	0x00737265
     7a8:	656c696d 	strbvs	r6, [ip, #-2413]!	; 0xfffff693
     7ac:	6f532f73 	svcvs	0x00532f73
     7b0:	65637275 	strbvs	r7, [r3, #-629]!	; 0xfffffd8b
     7b4:	3273632f 	rsbscc	r6, r3, #-1140850688	; 0xbc000000
     7b8:	786c3034 	stmdavc	ip!, {r2, r4, r5, ip, sp}^
     7bc:	62696c2f 	rsbvs	r6, r9, #12032	; 0x2f00
     7c0:	692f6970 	stmdbvs	pc!, {r4, r5, r6, r8, fp, sp, lr}	; <UNPREDICTABLE>
     7c4:	756c636e 	strbvc	r6, [ip, #-878]!	; 0xfffffc92
     7c8:	00006564 	andeq	r6, r0, r4, ror #10
     7cc:	672d6b63 	strvs	r6, [sp, -r3, ror #22]!
     7d0:	00632e63 	rsbeq	r2, r3, r3, ror #28
     7d4:	73000000 	movwvc	r0, #0
     7d8:	6c2d6372 	stcvs	3, cr6, [sp], #-456	; 0xfffffe38
     7dc:	682e636f 	stmdavs	lr!, {r0, r1, r2, r3, r5, r6, r8, r9, sp, lr}
     7e0:	00000000 	andeq	r0, r0, r0
     7e4:	69647473 	stmdbvs	r4!, {r0, r1, r4, r5, r6, sl, ip, sp, lr}^
     7e8:	672d746e 	strvs	r7, [sp, -lr, ror #8]!
     7ec:	682e6363 	stmdavs	lr!, {r0, r1, r5, r6, r8, r9, sp, lr}
     7f0:	00000100 	andeq	r0, r0, r0, lsl #2
     7f4:	2e697072 	mcrcs	0, 3, r7, cr9, cr2, {3}
     7f8:	00020068 	andeq	r0, r2, r8, rrx
     7fc:	616b6300 	cmnvs	fp, r0, lsl #6
     800:	636f6c6c 	cmnvs	pc, #108, 24	; 0x6c00
     804:	0000682e 	andeq	r6, r0, lr, lsr #16
     808:	05000000 	streq	r0, [r0, #-0]
     80c:	02050001 	andeq	r0, r5, #1, 0
     810:	00008584 	andeq	r8, r0, r4, lsl #11
     814:	0100d003 	tsteq	r0, r3
     818:	05050106 	streq	r0, [r5, #-262]	; 0xfffffefa
     81c:	00014b06 	andeq	r4, r1, r6, lsl #22
     820:	4a020402 	bmi	81830 <__bss_end__+0x76a58>
     824:	02040200 	andeq	r0, r4, #0, 4
     828:	04020001 	streq	r0, [r2], #-1
     82c:	02001502 	andeq	r1, r0, #8388608	; 0x800000
     830:	00010204 	andeq	r0, r1, r4, lsl #4
     834:	66020402 	strvs	r0, [r2], -r2, lsl #8
     838:	02040200 	andeq	r0, r4, #0, 4
     83c:	04020001 	streq	r0, [r2], #-1
     840:	02001302 	andeq	r1, r0, #134217728	; 0x8000000
     844:	00010204 	andeq	r0, r1, r4, lsl #4
     848:	06020402 	streq	r0, [r2], -r2, lsl #8
     84c:	030b059e 	movweq	r0, #46494	; 0xb59e
     850:	0d052e58 	stceq	14, cr2, [r5, #-352]	; 0xfffffea0
     854:	4a2e3103 	bmi	b8cc68 <__bss_end__+0xb81e90>
     858:	02000505 	andeq	r0, r0, #20971520	; 0x1400000
     85c:	03060104 	movweq	r0, #24836	; 0x6104
     860:	02000173 	andeq	r0, r0, #-1073741796	; 0xc000001c
     864:	00010104 	andeq	r0, r1, r4, lsl #2
     868:	06010402 	streq	r0, [r1], -r2, lsl #8
     86c:	0402009e 	streq	r0, [r2], #-158	; 0xffffff62
     870:	02002e01 	andeq	r2, r0, #1, 28
     874:	2e060104 	adfcss	f0, f6, f4
     878:	01040200 	mrseq	r0, R12_usr
     87c:	04020031 	streq	r0, [r2], #-49	; 0xffffffcf
     880:	02000101 	andeq	r0, r0, #1073741824	; 0x40000000
     884:	9e060104 	adflss	f0, f6, f4
     888:	01040200 	mrseq	r0, R12_usr
     88c:	0402002e 	streq	r0, [r2], #-46	; 0xffffffd2
     890:	002e0601 	eoreq	r0, lr, r1, lsl #12
     894:	2f010402 	svccs	0x00010402
     898:	01040200 	mrseq	r0, R12_usr
     89c:	04020001 	streq	r0, [r2], #-1
     8a0:	009e0601 	addseq	r0, lr, r1, lsl #12
     8a4:	2e010402 	cdpcs	4, 0, cr0, cr1, cr2, {0}
     8a8:	01040200 	mrseq	r0, R12_usr
     8ac:	11052e06 	tstne	r5, r6, lsl #28
     8b0:	062e1703 	strteq	r1, [lr], -r3, lsl #14
     8b4:	0023054a 	eoreq	r0, r3, sl, asr #10
     8b8:	06020402 	streq	r0, [r2], -r2, lsl #8
     8bc:	05016b03 	streq	r6, [r1, #-2819]	; 0xfffff4fd
     8c0:	0402001b 	streq	r0, [r2], #-27	; 0xffffffe5
     8c4:	05050102 	streq	r0, [r5, #-258]	; 0xfffffefe
     8c8:	02040200 	andeq	r0, r4, #0, 4
     8cc:	02000106 	andeq	r0, r0, #-2147483647	; 0x80000001
     8d0:	054a0204 	strbeq	r0, [sl, #-516]	; 0xfffffdfc
     8d4:	05300609 	ldreq	r0, [r0, #-1545]!	; 0xfffff9f7
     8d8:	2e62030f 	cdpcs	3, 6, cr0, cr2, cr15, {0}
     8dc:	05140505 	ldreq	r0, [r4, #-1285]	; 0xfffffafb
     8e0:	0501060b 	streq	r0, [r1, #-1547]	; 0xfffff9f5
     8e4:	05300605 	ldreq	r0, [r0, #-1541]!	; 0xfffff9fb
     8e8:	016b030c 	cmneq	fp, ip, lsl #6
     8ec:	05150505 	ldreq	r0, [r5, #-1285]	; 0xfffffafb
     8f0:	05010608 	streq	r0, [r1, #-1544]	; 0xfffff9f8
     8f4:	05666618 	strbeq	r6, [r6, #-1560]!	; 0xfffff9e8
     8f8:	14030605 	strne	r0, [r3], #-1541	; 0xfffff9fb
     8fc:	060c0501 	streq	r0, [ip], -r1, lsl #10
     900:	09052e01 	stmdbeq	r5, {r0, r9, sl, fp, sp}
     904:	01190306 	tsteq	r9, r6, lsl #6
     908:	01060c05 	tsteq	r6, r5, lsl #24
     90c:	4c060d05 	stcmi	13, cr0, [r6], {5}
     910:	01062905 	tsteq	r6, r5, lsl #18
     914:	2f060d05 	svccs	0x00060d05
     918:	01061605 	tsteq	r6, r5, lsl #12
     91c:	2f060d05 	svccs	0x00060d05
     920:	062e2e06 	strteq	r2, [lr], -r6, lsl #28
     924:	061005bb 			; <UNDEFINED> instruction: 0x061005bb
     928:	06110501 	ldreq	r0, [r1], -r1, lsl #10
     92c:	0619054c 	ldreq	r0, [r9], -ip, asr #10
     930:	06110501 	ldreq	r0, [r1], -r1, lsl #10
     934:	1405bd9f 	strne	fp, [r5], #-3487	; 0xfffff261
     938:	15050106 	strne	r0, [r5, #-262]	; 0xfffffefa
     93c:	ba064c06 	blt	19395c <__bss_end__+0x188b84>
     940:	09030105 	stmdbeq	r3, {r0, r2, r8}
     944:	00064a01 	andeq	r4, r6, r1, lsl #20
     948:	87100205 	ldrhi	r0, [r0, -r5, lsl #4]
     94c:	09030000 	stmdbeq	r3, {}	; <UNPREDICTABLE>
     950:	4e050501 	cfsh32mi	mvfx0, mvfx5, #1
     954:	05010a05 	streq	r0, [r1, #-2565]	; 0xfffff5fb
     958:	05010615 	streq	r0, [r1, #-1557]	; 0xfffff9eb
     95c:	052e0625 	streq	r0, [lr, #-1573]!	; 0xfffff9db
     960:	2e010605 	cfmadd32cs	mvax0, mvfx0, mvfx1, mvfx5
     964:	05303205 	ldreq	r3, [r0, #-517]!	; 0xfffffdfb
     968:	04020009 	streq	r0, [r2], #-9
     96c:	052e0603 	streq	r0, [lr, #-1539]!	; 0xfffff9fd
     970:	04020032 	streq	r0, [r2], #-50	; 0xffffffce
     974:	05010603 	streq	r0, [r1, #-1539]	; 0xfffff9fd
     978:	04020021 	streq	r0, [r2], #-33	; 0xffffffdf
     97c:	11052e03 	tstne	r5, r3, lsl #28
     980:	03040200 	movweq	r0, #16896	; 0x4200
     984:	0028052e 	eoreq	r0, r8, lr, lsr #10
     988:	06030402 	streq	r0, [r3], -r2, lsl #8
     98c:	002c052c 	eoreq	r0, ip, ip, lsr #10
     990:	06030402 	streq	r0, [r3], -r2, lsl #8
     994:	00250501 	eoreq	r0, r5, r1, lsl #10
     998:	06030402 	streq	r0, [r3], -r2, lsl #8
     99c:	0005052e 	andeq	r0, r5, lr, lsr #10
     9a0:	06030402 	streq	r0, [r3], -r2, lsl #8
     9a4:	04020001 	streq	r0, [r2], #-1
     9a8:	02002e03 	andeq	r2, r0, #3, 28	; 0x30
     9ac:	062e0304 	strteq	r0, [lr], -r4, lsl #6
     9b0:	2e061319 	mcrcs	3, 0, r1, cr6, cr9, {0}
     9b4:	0d053006 	stceq	0, cr3, [r5, #-24]	; 0xffffffe8
     9b8:	05050106 	streq	r0, [r5, #-262]	; 0xfffffefa
     9bc:	0d054b06 	vstreq	d4, [r5, #-24]	; 0xffffffe8
     9c0:	05050106 	streq	r0, [r5, #-262]	; 0xfffffefa
     9c4:	0d052f06 	stceq	15, cr2, [r5, #-24]	; 0xffffffe8
     9c8:	05050106 	streq	r0, [r5, #-262]	; 0xfffffefa
     9cc:	0d052f06 	stceq	15, cr2, [r5, #-24]	; 0xffffffe8
     9d0:	05050106 	streq	r0, [r5, #-262]	; 0xfffffefa
     9d4:	136a3506 	cmnne	sl, #25165824	; 0x1800000
     9d8:	68136983 	ldmdavs	r3, {r0, r1, r7, r8, fp, sp, lr}
     9dc:	06010513 			; <UNDEFINED> instruction: 0x06010513
     9e0:	06dc0667 	ldrbeq	r0, [ip], r7, ror #12
     9e4:	06050501 	streq	r0, [r5], -r1, lsl #10
     9e8:	2e06134b 	cdpcs	3, 0, cr1, cr6, cr11, {2}
     9ec:	2f4c2f06 	svccs	0x004c2f06
     9f0:	05010a05 	streq	r0, [r1, #-2565]	; 0xfffff5fb
     9f4:	05010615 	streq	r0, [r1, #-1557]	; 0xfffff9eb
     9f8:	052e0625 	streq	r0, [lr, #-1573]!	; 0xfffff9db
     9fc:	05010605 	streq	r0, [r1, #-1541]	; 0xfffff9fb
     a00:	1b054527 	blne	151ea4 <__bss_end__+0x1470cc>
     a04:	2e0e052e 	cfsh32cs	mvfx0, mvfx14, #30
     a08:	10030d05 	andne	r0, r3, r5, lsl #26
     a0c:	4906292e 	stmdbmi	r6, {r1, r2, r3, r5, r8, fp, sp}
     a10:	01061305 	tsteq	r6, r5, lsl #6
     a14:	2f060d05 	svccs	0x00060d05
     a18:	28056606 	stmdacs	r5, {r1, r2, r9, sl, sp, lr}
     a1c:	02040200 	andeq	r0, r4, #0, 4
     a20:	2e7a0306 	cdpcs	3, 7, cr0, cr10, cr6, {0}
     a24:	02002c05 	andeq	r2, r0, #1280	; 0x500
     a28:	01060204 	tsteq	r6, r4, lsl #4
     a2c:	02002505 	andeq	r2, r0, #20971520	; 0x1400000
     a30:	4a060204 	bmi	181248 <__bss_end__+0x176470>
     a34:	02000505 	andeq	r0, r0, #20971520	; 0x1400000
     a38:	01060204 	tsteq	r6, r4, lsl #4
     a3c:	4c060905 			; <UNDEFINED> instruction: 0x4c060905
     a40:	01061005 	tsteq	r6, r5
     a44:	2f060905 	svccs	0x00060905
     a48:	01060e05 	tsteq	r6, r5, lsl #28
     a4c:	052e0c05 	streq	r0, [lr, #-3077]!	; 0xfffff3fb
     a50:	054f060e 	strbeq	r0, [pc, #-1550]	; 44a <__code_start__-0x7bb6>
     a54:	05010611 	streq	r0, [r1, #-1553]	; 0xfffff9ef
     a58:	054c060d 	strbeq	r0, [ip, #-1549]	; 0xfffff9f3
     a5c:	05010619 	streq	r0, [r1, #-1561]	; 0xfffff9e7
     a60:	062f060d 	strteq	r0, [pc], -sp, lsl #12
     a64:	052e2e66 	streq	r2, [lr, #-3686]!	; 0xfffff19a
     a68:	01160605 	tsteq	r6, r5, lsl #12
     a6c:	2e064a06 	vmlacs.f32	s8, s12, s12
     a70:	06080513 			; <UNDEFINED> instruction: 0x06080513
     a74:	06090501 	streq	r0, [r9], -r1, lsl #10
     a78:	0505014d 	streq	r0, [r5, #-333]	; 0xfffffeb3
     a7c:	4a06019a 	bmi	1810ec <__bss_end__+0x176314>
     a80:	05132e06 	ldreq	r2, [r3, #-3590]	; 0xfffff1fa
     a84:	6b030627 	blvs	c2328 <__bss_end__+0xb7550>
     a88:	2e1b0501 	cfmul32cs	mvfx0, mvfx11, mvfx1
     a8c:	03060905 	movweq	r0, #26885	; 0x6905
     a90:	4a012e16 	bmi	4c2f0 <__bss_end__+0x41518>
     a94:	01040200 	mrseq	r0, R12_usr
     a98:	00050514 	andeq	r0, r5, r4, lsl r5
     a9c:	14010402 	strne	r0, [r1], #-1026	; 0xfffffbfe
     aa0:	01040200 	mrseq	r0, R12_usr
     aa4:	0008054b 	andeq	r0, r8, fp, asr #10
     aa8:	06010402 	streq	r0, [r1], -r2, lsl #8
     aac:	00170501 	andseq	r0, r7, r1, lsl #10
     ab0:	30010402 	andcc	r0, r1, r2, lsl #8
     ab4:	02000105 	andeq	r0, r0, #1073741825	; 0x40000001
     ab8:	06340104 	ldrteq	r0, [r4], -r4, lsl #2
     abc:	087eca03 	ldmdaeq	lr!, {r0, r1, r9, fp, lr, pc}^
     ac0:	0501063c 	streq	r0, [r1, #-1596]	; 0xfffff9c4
     ac4:	144b0605 	strbne	r0, [fp], #-1541	; 0xfffff9fb
     ac8:	04020001 	streq	r0, [r2], #-1
     acc:	02004a02 	andeq	r4, r0, #8192	; 0x2000
     ad0:	00010204 	andeq	r0, r1, r4, lsl #4
     ad4:	13020402 	movwne	r0, #9218	; 0x2402
     ad8:	02000905 	andeq	r0, r0, #81920	; 0x14000
     adc:	01060204 	tsteq	r6, r4, lsl #4
     ae0:	02000805 	andeq	r0, r0, #327680	; 0x50000
     ae4:	052e0204 	streq	r0, [lr, #-516]!	; 0xfffffdfc
     ae8:	15670609 	strbne	r0, [r7, #-1545]!	; 0xfffff9f7
     aec:	06140513 			; <UNDEFINED> instruction: 0x06140513
     af0:	09054a01 	stmdbeq	r5, {r0, r9, fp, lr}
     af4:	12052f06 	andne	r2, r5, #6, 30
     af8:	09050106 	stmdbeq	r5, {r1, r2, r8}
     afc:	054b4b06 	strbeq	r4, [fp, #-2822]	; 0xfffff4fa
     b00:	05010610 	streq	r0, [r1, #-1552]	; 0xfffff9f0
     b04:	054c0605 	strbeq	r0, [ip, #-1541]	; 0xfffff9fb
     b08:	0501060c 	streq	r0, [r1, #-1548]	; 0xfffff9f4
     b0c:	05054b01 	streq	r4, [r5, #-2817]	; 0xfffff4ff
     b10:	01040200 	mrseq	r0, R12_usr
     b14:	4a740306 	bmi	1d01734 <__bss_end__+0x1cf695c>
     b18:	01040200 	mrseq	r0, R12_usr
     b1c:	04020001 	streq	r0, [r2], #-1
     b20:	00ba0601 	adcseq	r0, sl, r1, lsl #12
     b24:	06010402 	streq	r0, [r1], -r2, lsl #8
     b28:	3009052e 	andcc	r0, r9, lr, lsr #10
     b2c:	06820601 	streq	r0, [r2], r1, lsl #12
     b30:	0301052e 	movweq	r0, #5422	; 0x152e
     b34:	06d601b6 			; <UNDEFINED> instruction: 0x06d601b6
     b38:	06050501 	streq	r0, [r5], -r1, lsl #10
     b3c:	060c0530 			; <UNDEFINED> instruction: 0x060c0530
     b40:	2f010501 	svccs	0x00010501
     b44:	05053206 	streq	r3, [r5, #-518]	; 0xfffffdfa
     b48:	0a051332 	beq	145818 <__bss_end__+0x13aa40>
     b4c:	05017303 	streq	r7, [r1, #-771]	; 0xfffffcfd
     b50:	0c051505 	cfstr32eq	mvfx1, [r5], {5}
     b54:	054a0106 	strbeq	r0, [sl, #-262]	; 0xfffffefa
     b58:	010a0308 	tsteq	sl, r8, lsl #6
     b5c:	4b060905 	blmi	182f78 <__bss_end__+0x1781a0>
     b60:	054a0114 	strbeq	r0, [sl, #-276]	; 0xfffffeec
     b64:	01051305 	tsteq	r5, r5, lsl #6
     b68:	09051306 	stmdbeq	r5, {r1, r2, r8, r9, ip}
     b6c:	9e012a06 	vmlals.f32	s4, s2, s12
     b70:	05a60105 	streq	r0, [r6, #261]!	; 0x105
     b74:	05133205 	ldreq	r3, [r3, #-517]	; 0xfffffdfb
     b78:	0165030a 	cmneq	r5, sl, lsl #6
     b7c:	05150505 	ldreq	r0, [r5, #-1285]	; 0xfffffafb
     b80:	4a01060c 	bmi	423b8 <__bss_end__+0x375e0>
     b84:	03060505 	movweq	r0, #25861	; 0x6505
     b88:	08050119 	stmdaeq	r5, {r0, r3, r4, r8}
     b8c:	09050106 	stmdbeq	r5, {r1, r2, r8}
     b90:	01144b06 	tsteq	r4, r6, lsl #22
     b94:	2e064a06 	vmlacs.f32	s8, s12, s12
     b98:	13130505 	tstne	r3, #20971520	; 0x1400000
     b9c:	13060105 	movwne	r0, #24837	; 0x6105
     ba0:	45060905 	strmi	r0, [r6, #-2309]	; 0xfffff6fb
     ba4:	01059e01 	tsteq	r5, r1, lsl #28
     ba8:	059e2103 	ldreq	r2, [lr, #259]	; 0x103
     bac:	052f4b05 	streq	r4, [pc, #-2821]!	; af <__code_start__-0x7f51>
     bb0:	01650311 	cmneq	r5, r1, lsl r3
     bb4:	13140505 	tstne	r4, #20971520	; 0x1400000
     bb8:	052f4c4b 	streq	r4, [pc, #-3147]!	; ffffff75 <__bss_end__+0xffff519d>
     bbc:	1505010a 	strne	r0, [r5, #-266]	; 0xfffffef6
     bc0:	25050106 	strcs	r0, [r5, #-262]	; 0xfffffefa
     bc4:	05052e06 	streq	r2, [r5, #-3590]	; 0xfffff1fa
     bc8:	27050106 	strcs	r0, [r5, -r6, lsl #2]
     bcc:	2e1b0545 	cfmac32cs	mvfx0, mvfx11, mvfx5
     bd0:	042e0e05 	strteq	r0, [lr], #-3589	; 0xfffff1fb
     bd4:	030c0502 	movweq	r0, #50434	; 0xc502
     bd8:	042e7e98 	strteq	r7, [lr], #-3736	; 0xfffff168
     bdc:	030d0501 	movweq	r0, #54529	; 0xd501
     be0:	064a01f4 			; <UNDEFINED> instruction: 0x064a01f4
     be4:	06130548 	ldreq	r0, [r3], -r8, asr #10
     be8:	060d0501 	streq	r0, [sp], -r1, lsl #10
     bec:	061a052f 	ldreq	r0, [sl], -pc, lsr #10
     bf0:	060d0501 	streq	r0, [sp], -r1, lsl #10
     bf4:	0502044b 	streq	r0, [r2, #-1099]	; 0xfffffbb5
     bf8:	7e8b030b 	cdpvc	3, 8, cr0, cr11, cr11, {0}
     bfc:	1305052e 	movwne	r0, #21806	; 0x552e
     c00:	01060c05 	tsteq	r6, r5, lsl #24
     c04:	05010482 	streq	r0, [r1, #-1154]	; 0xfffffb7e
     c08:	01f4030d 	mvnseq	r0, sp, lsl #6
     c0c:	2f064a01 	svccs	0x00064a01
     c10:	78032805 	stmdavc	r3, {r0, r2, fp, sp}
     c14:	062c0566 	strteq	r0, [ip], -r6, ror #10
     c18:	06250501 	strteq	r0, [r5], -r1, lsl #10
     c1c:	0605054a 	streq	r0, [r5], -sl, asr #10
     c20:	06090501 	streq	r0, [r9], -r1, lsl #10
     c24:	0610054c 	ldreq	r0, [r0], -ip, asr #10
     c28:	06090501 	streq	r0, [r9], -r1, lsl #10
     c2c:	060c052f 	streq	r0, [ip], -pc, lsr #10
     c30:	052e6601 	streq	r6, [lr, #-1537]!	; 0xfffff9ff
     c34:	01780327 	cmneq	r8, r7, lsr #6
     c38:	052e1b05 	streq	r1, [lr, #-2821]!	; 0xfffff4fb
     c3c:	05052e0e 	streq	r2, [r5, #-3598]	; 0xfffff1f2
     c40:	2e110306 	cdpcs	3, 1, cr0, cr1, cr6, {0}
     c44:	06820601 	streq	r0, [r2], r1, lsl #12
     c48:	0106142e 	tsteq	r6, lr, lsr #8
     c4c:	010a0306 	tsteq	sl, r6, lsl #6
     c50:	13060105 	movwne	r0, #24837	; 0x6105
     c54:	05000666 	streq	r0, [r0, #-1638]	; 0xfffff99a
     c58:	008afc02 	addeq	pc, sl, r2, lsl #24
     c5c:	05051500 	streq	r1, [r5, #-1280]	; 0xfffffb00
     c60:	029e012f 	addseq	r0, lr, #-1073741813	; 0xc000000b
     c64:	0101000a 	tsteq	r1, sl
     c68:	00000121 	andeq	r0, r0, r1, lsr #2
     c6c:	00be0003 	adcseq	r0, lr, r3
     c70:	01020000 	mrseq	r0, (UNDEF: 2)
     c74:	000d0efb 	strdeq	r0, [sp], -fp
     c78:	01010101 	tsteq	r1, r1, lsl #2
     c7c:	01000000 	mrseq	r0, (UNDEF: 0)
     c80:	2e010000 	cdpcs	0, 0, cr0, cr1, cr0, {0}
     c84:	62696c2f 	rsbvs	r6, r9, #12032	; 0x2f00
     c88:	552f0063 	strpl	r0, [pc, #-99]!	; c2d <__code_start__-0x73d3>
     c8c:	73726573 	cmnvc	r2, #482344960	; 0x1cc00000
     c90:	6c696d2f 	stclvs	13, cr6, [r9], #-188	; 0xffffff44
     c94:	532f7365 			; <UNDEFINED> instruction: 0x532f7365
     c98:	6372756f 	cmnvs	r2, #465567744	; 0x1bc00000
     c9c:	73632f65 	cmnvc	r3, #404	; 0x194
     ca0:	6c303432 	cfldrsvs	mvf3, [r0], #-200	; 0xffffff38
     ca4:	696c2f78 	stmdbvs	ip!, {r3, r4, r5, r6, r8, r9, sl, fp, sp}^
     ca8:	2f697062 	svccs	0x00697062
     cac:	6c636e69 	stclvs	14, cr6, [r3], #-420	; 0xfffffe5c
     cb0:	00656475 	rsbeq	r6, r5, r5, ror r4
     cb4:	74706f2f 	ldrbtvc	r6, [r0], #-3887	; 0xfffff0d1
     cb8:	6d6f682f 	stclvs	8, cr6, [pc, #-188]!	; c04 <__code_start__-0x73fc>
     cbc:	65726265 	ldrbvs	r6, [r2, #-613]!	; 0xfffffd9b
     cc0:	65432f77 	strbvs	r2, [r3, #-3959]	; 0xfffff089
     cc4:	72616c6c 	rsbvc	r6, r1, #108, 24	; 0x6c00
     cc8:	6d72612f 	ldfvse	f6, [r2, #-188]!	; 0xffffff44
     ccc:	6e6f6e2d 	cdpvs	14, 6, cr6, cr15, cr13, {1}
     cd0:	61652d65 	cmnvs	r5, r5, ror #26
     cd4:	392d6962 	pushcc	{r1, r5, r6, r8, fp, sp, lr}
     cd8:	322d392f 	eorcc	r3, sp, #770048	; 0xbc000
     cdc:	71393130 	teqvc	r9, r0, lsr r1
     ce0:	73632d34 	cmnvc	r3, #52, 26	; 0xd00
     ce4:	65373031 	ldrvs	r3, [r7, #-49]!	; 0xffffffcf
     ce8:	62696c2f 	rsbvs	r6, r9, #12032	; 0x2f00
     cec:	6363672f 	cmnvs	r3, #12320768	; 0xbc0000
     cf0:	6d72612f 	ldfvse	f6, [r2, #-188]!	; 0xffffff44
     cf4:	6e6f6e2d 	cdpvs	14, 6, cr6, cr15, cr13, {1}
     cf8:	61652d65 	cmnvs	r5, r5, ror #26
     cfc:	392f6962 	stmdbcc	pc!, {r1, r5, r6, r8, fp, sp, lr}	; <UNPREDICTABLE>
     d00:	312e322e 			; <UNDEFINED> instruction: 0x312e322e
     d04:	636e692f 	cmnvs	lr, #770048	; 0xbc000
     d08:	6564756c 	strbvs	r7, [r4, #-1388]!	; 0xfffffa94
     d0c:	656d0000 	strbvs	r0, [sp, #-0]!
     d10:	7465736d 	strbtvc	r7, [r5], #-877	; 0xfffffc93
     d14:	0100632e 	tsteq	r0, lr, lsr #6
     d18:	70720000 	rsbsvc	r0, r2, r0
     d1c:	00682e69 	rsbeq	r2, r8, r9, ror #28
     d20:	73000002 	movwvc	r0, #2
     d24:	65646474 	strbvs	r6, [r4, #-1140]!	; 0xfffffb8c
     d28:	00682e66 	rsbeq	r2, r8, r6, ror #28
     d2c:	00000003 	andeq	r0, r0, r3
     d30:	05002905 	streq	r2, [r0, #-2309]	; 0xfffff6fb
     d34:	008b3002 	addeq	r3, fp, r2
     d38:	05051500 	streq	r1, [r5, #-1280]	; 0xfffffb00
     d3c:	06290513 			; <UNDEFINED> instruction: 0x06290513
     d40:	2f140511 	svccs	0x00140511
     d44:	30060505 	andcc	r0, r6, r5, lsl #10
     d48:	06010a05 	streq	r0, [r1], -r5, lsl #20
     d4c:	0609059e 			; <UNDEFINED> instruction: 0x0609059e
     d50:	060e05d7 			; <UNDEFINED> instruction: 0x060e05d7
     d54:	060a0501 	streq	r0, [sl], -r1, lsl #10
     d58:	bb09052d 	bllt	242214 <__bss_end__+0x23743c>
     d5c:	01060e05 	tsteq	r6, r5, lsl #28
     d60:	060a052e 	streq	r0, [sl], -lr, lsr #10
     d64:	4b09052d 	blmi	242220 <__bss_end__+0x237448>
     d68:	01060b05 	tsteq	r6, r5, lsl #22
     d6c:	052d0a05 	streq	r0, [sp, #-2565]!	; 0xfffff5fb
     d70:	0a052f0e 	beq	14c9b0 <__bss_end__+0x141bd8>
     d74:	0e052d06 	cdpeq	13, 0, cr2, cr5, cr6, {0}
     d78:	09051306 	stmdbeq	r5, {r1, r2, r8, r9, ip}
     d7c:	0a052e06 	beq	14c59c <__bss_end__+0x1417c4>
     d80:	14050511 	strne	r0, [r5], #-1297	; 0xfffffaef
     d84:	13060105 	movwne	r0, #24837	; 0x6105
     d88:	01000202 	tsteq	r0, r2, lsl #4
     d8c:	00012001 	andeq	r2, r1, r1
     d90:	db000300 	blle	1998 <__code_start__-0x6668>
     d94:	02000000 	andeq	r0, r0, #0, 0
     d98:	0d0efb01 	vstreq	d15, [lr, #-4]
     d9c:	01010100 	mrseq	r0, (UNDEF: 17)
     da0:	00000001 	andeq	r0, r0, r1
     da4:	01000001 	tsteq	r0, r1
     da8:	696c2f2e 	stmdbvs	ip!, {r1, r2, r3, r5, r8, r9, sl, fp, sp}^
     dac:	2f006362 	svccs	0x00006362
     db0:	2f74706f 	svccs	0x0074706f
     db4:	656d6f68 	strbvs	r6, [sp, #-3944]!	; 0xfffff098
     db8:	77657262 	strbvc	r7, [r5, -r2, ror #4]!
     dbc:	6c65432f 	stclvs	3, cr4, [r5], #-188	; 0xffffff44
     dc0:	2f72616c 	svccs	0x0072616c
     dc4:	2d6d7261 	sfmcs	f7, 2, [sp, #-388]!	; 0xfffffe7c
     dc8:	656e6f6e 	strbvs	r6, [lr, #-3950]!	; 0xfffff092
     dcc:	6261652d 	rsbvs	r6, r1, #188743680	; 0xb400000
     dd0:	2f392d69 	svccs	0x00392d69
     dd4:	30322d39 	eorscc	r2, r2, r9, lsr sp
     dd8:	34713931 	ldrbtcc	r3, [r1], #-2353	; 0xfffff6cf
     ddc:	3173632d 	cmncc	r3, sp, lsr #6
     de0:	2f653730 	svccs	0x00653730
     de4:	2f62696c 	svccs	0x0062696c
     de8:	2f636367 	svccs	0x00636367
     dec:	2d6d7261 	sfmcs	f7, 2, [sp, #-388]!	; 0xfffffe7c
     df0:	656e6f6e 	strbvs	r6, [lr, #-3950]!	; 0xfffff092
     df4:	6261652d 	rsbvs	r6, r1, #188743680	; 0xb400000
     df8:	2e392f69 	cdpcs	15, 3, cr2, cr9, cr9, {3}
     dfc:	2f312e32 	svccs	0x00312e32
     e00:	6c636e69 	stclvs	14, cr6, [r3], #-420	; 0xfffffe5c
     e04:	00656475 	rsbeq	r6, r5, r5, ror r4
     e08:	6573552f 	ldrbvs	r5, [r3, #-1327]!	; 0xfffffad1
     e0c:	6d2f7372 	stcvs	3, cr7, [pc, #-456]!	; c4c <__code_start__-0x73b4>
     e10:	73656c69 	cmnvc	r5, #26880	; 0x6900
     e14:	756f532f 	strbvc	r5, [pc, #-815]!	; aed <__code_start__-0x7513>
     e18:	2f656372 	svccs	0x00656372
     e1c:	34327363 	ldrtcc	r7, [r2], #-867	; 0xfffffc9d
     e20:	2f786c30 	svccs	0x00786c30
     e24:	7062696c 	rsbvc	r6, r2, ip, ror #18
     e28:	6e692f69 	cdpvs	15, 6, cr2, cr9, cr9, {3}
     e2c:	64756c63 	ldrbtvs	r6, [r5], #-3171	; 0xfffff39d
     e30:	70000065 	andvc	r0, r0, r5, rrx
     e34:	746e6972 	strbtvc	r6, [lr], #-2418	; 0xfffff68e
     e38:	00632e6b 	rsbeq	r2, r3, fp, ror #28
     e3c:	73000001 	movwvc	r0, #1
     e40:	72616474 	rsbvc	r6, r1, #116, 8	; 0x74000000
     e44:	00682e67 	rsbeq	r2, r8, r7, ror #28
     e48:	72000002 	andvc	r0, r0, #2, 0
     e4c:	682e6970 	stmdavs	lr!, {r4, r5, r6, r8, fp, sp, lr}
     e50:	00000300 	andeq	r0, r0, r0, lsl #6
     e54:	6975623c 	ldmdbvs	r5!, {r2, r3, r4, r5, r9, sp, lr}^
     e58:	692d746c 	pushvs	{r2, r3, r5, r6, sl, ip, sp, lr}
     e5c:	00003e6e 	andeq	r3, r0, lr, ror #28
     e60:	61760000 	cmnvs	r6, r0
     e64:	6972702d 	ldmdbvs	r2!, {r0, r2, r3, r5, ip, sp, lr}^
     e68:	2e6b746e 	cdpcs	4, 6, cr7, cr11, cr14, {3}
     e6c:	00010068 	andeq	r0, r1, r8, rrx
     e70:	22050000 	andcs	r0, r5, #0, 0
     e74:	a8020500 	stmdage	r2, {r8, sl}
     e78:	1700008b 	strne	r0, [r0, -fp, lsl #1]
     e7c:	13140505 	tstne	r4, #20971520	; 0x1400000
     e80:	06220514 			; <UNDEFINED> instruction: 0x06220514
     e84:	5012050d 	andspl	r0, r2, sp, lsl #10
     e88:	7a032205 	bvc	c96a4 <__bss_end__+0xbe8cc>
     e8c:	3305052e 	movwcc	r0, #21806	; 0x552e
     e90:	052f1205 	streq	r1, [pc, #-517]!	; c93 <__code_start__-0x736d>
     e94:	09056505 	stmdbeq	r5, {r0, r2, r8, sl, sp, lr}
     e98:	12052f06 	andne	r2, r5, #6, 30
     e9c:	05050106 	streq	r0, [r5, #-262]	; 0xfffffefa
     ea0:	06164b06 	ldreq	r4, [r6], -r6, lsl #22
     ea4:	0550064a 	ldrbeq	r0, [r0, #-1610]	; 0xfffff9b6
     ea8:	66130601 	ldrvs	r0, [r3], -r1, lsl #12
     eac:	01000802 	tsteq	r0, r2, lsl #16
     eb0:	0000a001 	andeq	sl, r0, r1
     eb4:	57000300 	strpl	r0, [r0, -r0, lsl #6]
     eb8:	02000000 	andeq	r0, r0, #0, 0
     ebc:	0d0efb01 	vstreq	d15, [lr, #-4]
     ec0:	01010100 	mrseq	r0, (UNDEF: 17)
     ec4:	00000001 	andeq	r0, r0, r1
     ec8:	01000001 	tsteq	r0, r1
     ecc:	696c2f2e 	stmdbvs	ip!, {r1, r2, r3, r5, r8, r9, sl, fp, sp}^
     ed0:	2f006362 	svccs	0x00006362
     ed4:	72657355 	rsbvc	r7, r5, #1409286145	; 0x54000001
     ed8:	696d2f73 	stmdbvs	sp!, {r0, r1, r4, r5, r6, r8, r9, sl, fp, sp}^
     edc:	2f73656c 	svccs	0x0073656c
     ee0:	72756f53 	rsbsvc	r6, r5, #332	; 0x14c
     ee4:	632f6563 			; <UNDEFINED> instruction: 0x632f6563
     ee8:	30343273 	eorscc	r3, r4, r3, ror r2
     eec:	6c2f786c 	stcvs	8, cr7, [pc], #-432	; d44 <__code_start__-0x72bc>
     ef0:	69706269 	ldmdbvs	r0!, {r0, r3, r5, r6, r9, sp, lr}^
     ef4:	636e692f 	cmnvs	lr, #770048	; 0xbc000
     ef8:	6564756c 	strbvs	r7, [r4, #-1388]!	; 0xfffffa94
     efc:	75700000 	ldrbvc	r0, [r0, #-0]!
     f00:	632e6b74 			; <UNDEFINED> instruction: 0x632e6b74
     f04:	00000100 	andeq	r0, r0, r0, lsl #2
     f08:	2e697072 	mcrcs	0, 3, r7, cr9, cr2, {3}
     f0c:	00020068 	andeq	r0, r2, r8, rrx
     f10:	22050000 	andcs	r0, r5, #0, 0
     f14:	00020500 	andeq	r0, r2, r0, lsl #10
     f18:	1500008c 	strne	r0, [r0, #-140]	; 0xffffff74
     f1c:	05130505 	ldreq	r0, [r3, #-1285]	; 0xfffffafb
     f20:	2e110622 	cfmsub32cs	mvax1, mvfx0, mvfx1, mvfx2
     f24:	2f060b05 	svccs	0x00060b05
     f28:	2e060505 	cfsh32cs	mvfx0, mvfx6, #5
     f2c:	02000905 	andeq	r0, r0, #81920	; 0x14000
     f30:	67060204 	strvs	r0, [r6, -r4, lsl #4]
     f34:	02000f05 	andeq	r0, r0, #5, 30
     f38:	05490204 	strbeq	r0, [r9, #-516]	; 0xfffffdfc
     f3c:	0402000b 	streq	r0, [r2], #-11
     f40:	05050102 	streq	r0, [r5, #-258]	; 0xfffffefe
     f44:	02040200 	andeq	r0, r4, #0, 4
     f48:	4e062e06 	cdpmi	14, 0, cr2, cr6, cr6, {0}
     f4c:	13060105 	movwne	r0, #24837	; 0x6105
     f50:	01000602 	tsteq	r0, r2, lsl #12
     f54:	0008fa01 	andeq	pc, r8, r1, lsl #20
     f58:	f1000300 			; <UNDEFINED> instruction: 0xf1000300
     f5c:	02000000 	andeq	r0, r0, #0, 0
     f60:	0d0efb01 	vstreq	d15, [lr, #-4]
     f64:	01010100 	mrseq	r0, (UNDEF: 17)
     f68:	00000001 	andeq	r0, r0, r1
     f6c:	01000001 	tsteq	r0, r1
     f70:	696c2f2e 	stmdbvs	ip!, {r1, r2, r3, r5, r8, r9, sl, fp, sp}^
     f74:	2f006362 	svccs	0x00006362
     f78:	2f74706f 	svccs	0x0074706f
     f7c:	656d6f68 	strbvs	r6, [sp, #-3944]!	; 0xfffff098
     f80:	77657262 	strbvc	r7, [r5, -r2, ror #4]!
     f84:	6c65432f 	stclvs	3, cr4, [r5], #-188	; 0xffffff44
     f88:	2f72616c 	svccs	0x0072616c
     f8c:	2d6d7261 	sfmcs	f7, 2, [sp, #-388]!	; 0xfffffe7c
     f90:	656e6f6e 	strbvs	r6, [lr, #-3950]!	; 0xfffff092
     f94:	6261652d 	rsbvs	r6, r1, #188743680	; 0xb400000
     f98:	2f392d69 	svccs	0x00392d69
     f9c:	30322d39 	eorscc	r2, r2, r9, lsr sp
     fa0:	34713931 	ldrbtcc	r3, [r1], #-2353	; 0xfffff6cf
     fa4:	3173632d 	cmncc	r3, sp, lsr #6
     fa8:	2f653730 	svccs	0x00653730
     fac:	2f62696c 	svccs	0x0062696c
     fb0:	2f636367 	svccs	0x00636367
     fb4:	2d6d7261 	sfmcs	f7, 2, [sp, #-388]!	; 0xfffffe7c
     fb8:	656e6f6e 	strbvs	r6, [lr, #-3950]!	; 0xfffff092
     fbc:	6261652d 	rsbvs	r6, r1, #188743680	; 0xb400000
     fc0:	2e392f69 	cdpcs	15, 3, cr2, cr9, cr9, {3}
     fc4:	2f312e32 	svccs	0x00312e32
     fc8:	6c636e69 	stclvs	14, cr6, [r3], #-420	; 0xfffffe5c
     fcc:	00656475 	rsbeq	r6, r5, r5, ror r4
     fd0:	6573552f 	ldrbvs	r5, [r3, #-1327]!	; 0xfffffad1
     fd4:	6d2f7372 	stcvs	3, cr7, [pc, #-456]!	; e14 <__code_start__-0x71ec>
     fd8:	73656c69 	cmnvc	r5, #26880	; 0x6900
     fdc:	756f532f 	strbvc	r5, [pc, #-815]!	; cb5 <__code_start__-0x734b>
     fe0:	2f656372 	svccs	0x00656372
     fe4:	34327363 	ldrtcc	r7, [r2], #-867	; 0xfffffc9d
     fe8:	2f786c30 	svccs	0x00786c30
     fec:	7062696c 	rsbvc	r6, r2, ip, ror #18
     ff0:	6e692f69 	cdpvs	15, 6, cr2, cr9, cr9, {3}
     ff4:	64756c63 	ldrbtvs	r6, [r5], #-3171	; 0xfffff39d
     ff8:	76000065 	strvc	r0, [r0], -r5, rrx
     ffc:	72702d61 	rsbsvc	r2, r0, #6208	; 0x1840
    1000:	6b746e69 	blvs	1d1c9ac <__bss_end__+0x1d11bd4>
    1004:	0100632e 	tsteq	r0, lr, lsr #6
    1008:	74730000 	ldrbtvc	r0, [r3], #-0
    100c:	746e6964 	strbtvc	r6, [lr], #-2404	; 0xfffff69c
    1010:	6363672d 	cmnvs	r3, #11796480	; 0xb40000
    1014:	0200682e 	andeq	r6, r0, #3014656	; 0x2e0000
    1018:	70720000 	rsbsvc	r0, r2, r0
    101c:	00682e69 	rsbeq	r2, r8, r9, ror #28
    1020:	72000003 	andvc	r0, r0, #3, 0
    1024:	692d6970 	pushvs	{r4, r5, r6, r8, fp, sp, lr}
    1028:	7265746e 	rsbvc	r7, r5, #1845493760	; 0x6e000000
    102c:	2e6c616e 	powcsez	f6, f4, #0.5
    1030:	00030068 	andeq	r0, r3, r8, rrx
    1034:	64747300 	ldrbtvs	r7, [r4], #-768	; 0xfffffd00
    1038:	2e677261 	cdpcs	2, 6, cr7, cr7, cr1, {3}
    103c:	00020068 	andeq	r0, r2, r8, rrx
    1040:	75623c00 	strbvc	r3, [r2, #-3072]!	; 0xfffff400
    1044:	2d746c69 	ldclcs	12, cr6, [r4, #-420]!	; 0xfffffe5c
    1048:	003e6e69 	eorseq	r6, lr, r9, ror #28
    104c:	00000000 	andeq	r0, r0, r0
    1050:	05000105 	streq	r0, [r0, #-261]	; 0xfffffefb
    1054:	008c3802 	addeq	r3, ip, r2, lsl #16
    1058:	00c80300 	sbceq	r0, r8, r0, lsl #6
    105c:	14020501 	strne	r0, [r2], #-1281	; 0xfffffaff
    1060:	10060105 	andne	r0, r6, r5, lsl #2
    1064:	05300405 	ldreq	r0, [r0, #-1029]!	; 0xfffffbfb
    1068:	054a2c01 	strbeq	r2, [sl, #-3073]	; 0xfffff3ff
    106c:	02053004 	andeq	r3, r5, #4, 0
    1070:	05133106 	ldreq	r3, [r3, #-262]	; 0xfffffefa
    1074:	052e060b 	streq	r0, [lr, #-1547]!	; 0xfffff9f5
    1078:	05300602 	ldreq	r0, [r0, #-1538]!	; 0xfffff9fe
    107c:	24020609 	strcs	r0, [r2], #-1545	; 0xfffff9f7
    1080:	052e2e0d 	streq	r2, [lr, #-3597]!	; 0xfffff1f3
    1084:	1703060d 	strne	r0, [r3, -sp, lsl #12]
    1088:	1311054a 	tstne	r1, #310378496	; 0x12800000
    108c:	01062d05 	tsteq	r6, r5, lsl #26
    1090:	052e1605 	streq	r1, [lr, #-1541]!	; 0xfffff9fb
    1094:	16052f0d 	strne	r2, [r5], -sp, lsl #30
    1098:	0614052d 	ldreq	r0, [r4], -sp, lsr #10
    109c:	0617052f 	ldreq	r0, [r7], -pc, lsr #10
    10a0:	2e0d0501 	cfsh32cs	mvfx0, mvfx13, #1
    10a4:	12052f06 	andne	r2, r5, #6, 30
    10a8:	2f2e0106 	svccs	0x002e0106
    10ac:	060d052d 	streq	r0, [sp], -sp, lsr #10
    10b0:	0612052f 	ldreq	r0, [r2], -pc, lsr #10
    10b4:	06190501 	ldreq	r0, [r9], -r1, lsl #10
    10b8:	0304052f 	movweq	r0, #17711	; 0x452f
    10bc:	05010111 	streq	r0, [r1, #-273]	; 0xfffffeef
    10c0:	0e051502 	cfsh32eq	mvfx1, mvfx5, #2
    10c4:	017fb203 	cmneq	pc, r3, lsl #4
    10c8:	05130205 	ldreq	r0, [r3, #-517]	; 0xfffffdfb
    10cc:	05010606 	streq	r0, [r1, #-1542]	; 0xfffff9fa
    10d0:	05300602 	ldreq	r0, [r0, #-1538]!	; 0xfffff9fe
    10d4:	02050108 	andeq	r0, r5, #2
    10d8:	054a0106 	strbeq	r0, [sl, #-262]	; 0xfffffefa
    10dc:	05910808 	ldreq	r0, [r1, #2056]	; 0x808
    10e0:	054a0603 	strbeq	r0, [sl, #-1539]	; 0xfffff9fd
    10e4:	05010608 	streq	r0, [r1, #-1544]	; 0xfffff9f8
    10e8:	052d0615 	streq	r0, [sp, #-1557]!	; 0xfffff9eb
    10ec:	03050108 	movweq	r0, #20744	; 0x5108
    10f0:	060805d7 			; <UNDEFINED> instruction: 0x060805d7
    10f4:	2d180501 	cfldr32cs	mvfx0, [r8, #-4]
    10f8:	052e0205 	streq	r0, [lr, #-517]!	; 0xfffffdfb
    10fc:	15052f08 	strne	r2, [r5, #-3848]	; 0xfffff0f8
    1100:	08052d06 	stmdaeq	r5, {r1, r2, r8, sl, fp, sp}
    1104:	06020501 	streq	r0, [r2], -r1, lsl #10
    1108:	06030501 	streq	r0, [r3], -r1, lsl #10
    110c:	0618052f 	ldreq	r0, [r8], -pc, lsr #10
    1110:	2e020511 	mcrcs	5, 0, r0, cr2, cr1, {0}
    1114:	052f0805 	streq	r0, [pc, #-2053]!	; 917 <__code_start__-0x76e9>
    1118:	052d0615 	streq	r0, [sp, #-1557]!	; 0xfffff9eb
    111c:	03050108 	movweq	r0, #20744	; 0x5108
    1120:	06080513 			; <UNDEFINED> instruction: 0x06080513
    1124:	06150501 	ldreq	r0, [r5], -r1, lsl #10
    1128:	0108052d 	tsteq	r8, sp, lsr #10
    112c:	02050106 	andeq	r0, r5, #-2147483647	; 0x80000001
    1130:	0505a006 	streq	sl, [r5, #-6]
    1134:	04050106 	streq	r0, [r5], #-262	; 0xfffffefa
    1138:	2f110536 	svccs	0x00110536
    113c:	052e0905 	streq	r0, [lr, #-2309]!	; 0xfffff6fb
    1140:	05053302 	streq	r3, [r5, #-770]	; 0xfffffcfe
    1144:	052e7203 	streq	r7, [lr, #-515]!	; 0xfffffdfd
    1148:	062f0602 	strteq	r0, [pc], -r2, lsl #12
    114c:	060e0501 	streq	r0, [lr], -r1, lsl #10
    1150:	14020516 	strne	r0, [r2], #-1302	; 0xfffffaea
    1154:	13030513 	movwne	r0, #13587	; 0x3513
    1158:	15140205 	ldrne	r0, [r4, #-517]	; 0xfffffdfb
    115c:	05010b05 	streq	r0, [r1, #-2821]	; 0xfffff4fb
    1160:	2e010602 	cfmadd32cs	mvax0, mvfx0, mvfx1, mvfx2
    1164:	67060305 	strvs	r0, [r6, -r5, lsl #6]
    1168:	01060a05 	tsteq	r6, r5, lsl #20
    116c:	052d0205 	streq	r0, [sp, #-517]!	; 0xfffffdfb
    1170:	17052f0a 	strne	r2, [r5, -sl, lsl #30]
    1174:	0b052d06 	bleq	14c594 <__bss_end__+0x1417bc>
    1178:	06020501 	streq	r0, [r2], -r1, lsl #10
    117c:	4c090501 	cfstr32mi	mvfx0, [r9], {1}
    1180:	0602052e 	streq	r0, [r2], -lr, lsr #10
    1184:	0609052e 	streq	r0, [r9], -lr, lsr #10
    1188:	06020501 	streq	r0, [r2], -r1, lsl #10
    118c:	05010630 	streq	r0, [r1, #-1584]	; 0xfffff9d0
    1190:	01380301 	teqeq	r8, r1, lsl #6
    1194:	4f030905 	svcmi	0x00030905
    1198:	052e2e4a 	streq	r2, [lr, #-3658]!	; 0xfffff1b6
    119c:	27030619 	smladcs	r3, r9, r6, r0
    11a0:	131a054a 	tstne	sl, #310378496	; 0x12800000
    11a4:	01062805 	tsteq	r6, r5, lsl #16
    11a8:	052e1f05 	streq	r1, [lr, #-3845]!	; 0xfffff0fb
    11ac:	1f052f04 	svcne	0x00052f04
    11b0:	060b052d 	streq	r0, [fp], -sp, lsr #10
    11b4:	060e052f 	streq	r0, [lr], -pc, lsr #10
    11b8:	2e040501 	cfsh32cs	mvfx0, mvfx4, #1
    11bc:	03060205 	movweq	r0, #25093	; 0x6205
    11c0:	05134a59 	ldreq	r4, [r3, #-2649]	; 0xfffff5a7
    11c4:	052e060b 	streq	r0, [lr, #-1547]!	; 0xfffff9f5
    11c8:	05300602 	ldreq	r0, [r0, #-1538]!	; 0xfffff9fe
    11cc:	24020609 	strcs	r0, [r2], #-1545	; 0xfffff9f7
    11d0:	0604050d 	streq	r0, [r4], -sp, lsl #10
    11d4:	06051336 			; <UNDEFINED> instruction: 0x06051336
    11d8:	05050106 	streq	r0, [r5, #-262]	; 0xfffffefa
    11dc:	13136706 	tstne	r3, #1572864	; 0x180000
    11e0:	11060905 	tstne	r6, r5, lsl #18
    11e4:	052b0d05 	streq	r0, [fp, #-3333]!	; 0xfffff2fb
    11e8:	0d05300b 	stceq	0, cr3, [r5, #-44]	; 0xffffffd4
    11ec:	351b052c 	ldrcc	r0, [fp, #-1324]	; 0xfffffad4
    11f0:	2d060405 	cfstrscs	mvf0, [r6, #-20]	; 0xffffffec
    11f4:	05130505 	ldreq	r0, [r3, #-1285]	; 0xfffffafb
    11f8:	052e061b 	streq	r0, [lr, #-1563]!	; 0xfffff9e5
    11fc:	0405820a 	streq	r8, [r5], #-522	; 0xfffffdf6
    1200:	2e0e052f 	cfsh32cs	mvfx0, mvfx14, #31
    1204:	05490a05 	strbeq	r0, [r9, #-2565]	; 0xfffff5fb
    1208:	052f060b 	streq	r0, [pc, #-1547]!	; c05 <__code_start__-0x73fb>
    120c:	06010604 	streq	r0, [r1], -r4, lsl #12
    1210:	0606052f 	streq	r0, [r6], -pc, lsr #10
    1214:	06050501 	streq	r0, [r5], -r1, lsl #10
    1218:	060a052f 	streq	r0, [sl], -pc, lsr #10
    121c:	07052e01 	streq	r2, [r5, -r1, lsl #28]
    1220:	052e2e2e 	streq	r2, [lr, #-3630]!	; 0xfffff1d2
    1224:	0d030604 	stceq	6, cr0, [r3, #-16]
    1228:	06020501 	streq	r0, [r2], -r1, lsl #10
    122c:	05014603 	streq	r4, [r1, #-1539]	; 0xfffff9fd
    1230:	2e3a0309 	cdpcs	3, 3, cr0, cr10, cr9, {0}
    1234:	2f060405 	svccs	0x00060405
    1238:	01010d03 	tsteq	r1, r3, lsl #26
    123c:	05150205 	ldreq	r0, [r5, #-517]	; 0xfffffdfb
    1240:	7fb2030e 	svcvc	0x00b2030e
    1244:	13020501 	movwne	r0, #9473	; 0x2501
    1248:	01080514 	tsteq	r8, r4, lsl r5
    124c:	10060605 	andne	r0, r6, r5, lsl #12
    1250:	052e3c03 	streq	r3, [lr, #-3075]!	; 0xfffff3fd
    1254:	4a460302 	bmi	1181e64 <__bss_end__+0x117708c>
    1258:	05053006 	streq	r3, [r5, #-6]
    125c:	2e2e0106 	sufcse	f0, f6, f6
    1260:	4b060205 	blmi	181a7c <__bss_end__+0x176ca4>
    1264:	0e050106 	adfeqs	f0, f5, f6
    1268:	02051606 	andeq	r1, r5, #6291456	; 0x600000
    126c:	15151314 	ldrne	r1, [r5, #-788]	; 0xfffffcec
    1270:	05010b05 	streq	r0, [r1, #-2821]	; 0xfffff4fb
    1274:	062e0602 	strteq	r0, [lr], -r2, lsl #12
    1278:	06090530 			; <UNDEFINED> instruction: 0x06090530
    127c:	06020501 	streq	r0, [r2], -r1, lsl #10
    1280:	0501064c 	streq	r0, [r1, #-1612]	; 0xfffff9b4
    1284:	01380301 	teqeq	r8, r1, lsl #6
    1288:	6e030605 	cfmadd32vs	mvax0, mvfx0, mvfx3, mvfx5
    128c:	0302054a 	movweq	r0, #9546	; 0x254a
    1290:	2e4a6646 	cdpcs	6, 4, cr6, cr10, cr6, {2}
    1294:	03060405 	movweq	r0, #25605	; 0x6405
    1298:	010100c8 	smlabteq	r1, r8, r0, r0
    129c:	2e060101 	adfcss	f0, f6, f1
    12a0:	034a0682 	movteq	r0, #42626	; 0xa682
    12a4:	09052e72 	stmdbeq	r5, {r1, r4, r5, r6, r9, sl, fp, sp}
    12a8:	04050106 	streq	r0, [r5], #-262	; 0xfffffefa
    12ac:	0d032f06 	stceq	15, cr2, [r3, #-24]	; 0xffffffe8
    12b0:	02050101 	andeq	r0, r5, #1073741824	; 0x40000000
    12b4:	030e0515 	movweq	r0, #58645	; 0xe515
    12b8:	05017fb2 	streq	r7, [r1, #-4018]	; 0xfffff04e
    12bc:	05141302 	ldreq	r1, [r4, #-770]	; 0xfffffcfe
    12c0:	09050108 	stmdbeq	r5, {r3, r8}
    12c4:	011b0306 	tsteq	fp, r6, lsl #6
    12c8:	63030605 	movwvs	r0, #13829	; 0x3605
    12cc:	2e3c032e 	cdpcs	3, 3, cr0, cr12, cr14, {1}
    12d0:	48052e2e 	stmdami	r5, {r1, r2, r3, r5, r9, sl, fp, sp}
    12d4:	7fb40306 	svcvc	0x00b40306
    12d8:	05053c08 	streq	r3, [r5, #-3080]	; 0xfffff3f8
    12dc:	2e060113 	mcrcs	1, 0, r0, cr6, cr3, {0}
    12e0:	02040200 	andeq	r0, r4, #0, 4
    12e4:	02002e06 	andeq	r2, r0, #96	; 0x60
    12e8:	00010204 	andeq	r0, r1, r4, lsl #4
    12ec:	13020402 	movwne	r0, #9218	; 0x2402
    12f0:	02001105 	andeq	r1, r0, #1073741825	; 0x40000001
    12f4:	01060204 	tsteq	r6, r4, lsl #4
    12f8:	02000705 	andeq	r0, r0, #1310720	; 0x140000
    12fc:	052f0204 	streq	r0, [pc, #-516]!	; 1100 <__code_start__-0x6f00>
    1300:	04020011 	streq	r0, [r2], #-17	; 0xffffffef
    1304:	05052d02 	streq	r2, [r5, #-3330]	; 0xfffff2fe
    1308:	02040200 	andeq	r0, r4, #0, 4
    130c:	09052f06 	stmdbeq	r5, {r1, r2, r8, r9, sl, fp, sp}
    1310:	02040200 	andeq	r0, r4, #0, 4
    1314:	000e0513 	andeq	r0, lr, r3, lsl r5
    1318:	06020402 	streq	r0, [r2], -r2, lsl #8
    131c:	00050501 	andeq	r0, r5, r1, lsl #10
    1320:	06010402 	streq	r0, [r1], -r2, lsl #8
    1324:	04020063 	streq	r0, [r2], #-99	; 0xffffff9d
    1328:	48050101 	stmdami	r5, {r0, r8}
    132c:	01040200 	mrseq	r0, R12_usr
    1330:	05051106 	streq	r1, [r5, #-262]	; 0xfffffefa
    1334:	01040200 	mrseq	r0, R12_usr
    1338:	0048052f 	subeq	r0, r8, pc, lsr #10
    133c:	2d010402 	cfstrscs	mvf0, [r1, #-8]
    1340:	02000505 	andeq	r0, r0, #20971520	; 0x1400000
    1344:	002f0104 	eoreq	r0, pc, r4, lsl #2
    1348:	4a010402 	bmi	42358 <__bss_end__+0x37580>
    134c:	01040200 	mrseq	r0, R12_usr
    1350:	0402004a 	streq	r0, [r2], #-74	; 0xffffffb6
    1354:	054a0601 	strbeq	r0, [sl, #-1537]	; 0xfffff9ff
    1358:	00e10340 	rsceq	r0, r1, r0, asr #6
    135c:	050106d6 	streq	r0, [r1, #-1750]	; 0xfffff92a
    1360:	052e4e09 	streq	r4, [lr, #-3593]!	; 0xfffff1f7
    1364:	1e053008 	cdpne	0, 0, cr3, cr5, cr8, {0}
    1368:	2e120529 	cfmul64cs	mvdx0, mvdx2, mvdx9
    136c:	05330d05 	ldreq	r0, [r3, #-3333]!	; 0xfffff2fb
    1370:	05450602 	strbeq	r0, [r5, #-1538]	; 0xfffff9fe
    1374:	02051305 	andeq	r1, r5, #335544320	; 0x14000000
    1378:	13050514 	movwne	r0, #21780	; 0x5514
    137c:	05130205 	ldreq	r0, [r3, #-517]	; 0xfffffdfb
    1380:	40050108 	andmi	r0, r5, r8, lsl #2
    1384:	017a0306 	cmneq	sl, r6, lsl #6
    1388:	340d052e 	strcc	r0, [sp], #-1326	; 0xfffffad2
    138c:	03110566 	tsteq	r1, #427819008	; 0x19800000
    1390:	054a4a20 	strbeq	r4, [sl, #-2592]	; 0xfffff5e0
    1394:	62030604 	andvs	r0, r3, #4, 12	; 0x400000
    1398:	06090501 	streq	r0, [r9], -r1, lsl #10
    139c:	2e0f0501 	cfsh32cs	mvfx0, mvfx15, #1
    13a0:	2c060805 	stccs	8, cr0, [r6], {5}
    13a4:	2e060d05 	cdpcs	13, 0, cr0, cr6, cr5, {0}
    13a8:	67060305 	strvs	r0, [r6, -r5, lsl #6]
    13ac:	01060505 	tsteq	r6, r5, lsl #10
    13b0:	4d060805 	stcmi	8, cr0, [r6, #-20]	; 0xffffffec
    13b4:	01060e05 	tsteq	r6, r5, lsl #28
    13b8:	052e0a05 	streq	r0, [lr, #-2565]!	; 0xfffff5fb
    13bc:	04052f09 	streq	r2, [r5], #-3849	; 0xfffff0f7
    13c0:	07052f06 	streq	r2, [r5, -r6, lsl #30]
    13c4:	0a050106 	beq	1417e4 <__bss_end__+0x136a0c>
    13c8:	0604052c 	streq	r0, [r4], -ip, lsr #10
    13cc:	062d0532 			; <UNDEFINED> instruction: 0x062d0532
    13d0:	017f9803 	cmneq	pc, r3, lsl #16
    13d4:	ed030905 	vstr.16	s0, [r3, #-10]
    13d8:	0d052e00 	stceq	14, cr2, [r5, #-0]
    13dc:	2b07052c 	blcs	1c2894 <__bss_end__+0x1b7abc>
    13e0:	30060405 	andcc	r0, r6, r5, lsl #8
    13e4:	09051413 	stmdbeq	r5, {r0, r1, r4, sl, ip}
    13e8:	030c0501 	movweq	r0, #50433	; 0xc501
    13ec:	05017f93 	streq	r7, [r1, #-3987]	; 0xfffff06d
    13f0:	0106011d 	tsteq	r6, sp, lsl r1
    13f4:	ed030905 	vstr.16	s0, [r3, #-10]
    13f8:	05050100 	streq	r0, [r5, #-256]	; 0xffffff00
    13fc:	12052f06 	andne	r2, r5, #6, 30
    1400:	2d2e0106 	stfcss	f0, [lr, #-24]!	; 0xffffffe8
    1404:	052f0b05 	streq	r0, [pc, #-2821]!	; 907 <__code_start__-0x76f9>
    1408:	052f0605 	streq	r0, [pc, #-1541]!	; e0b <__code_start__-0x71f5>
    140c:	0c051009 	stceq	0, cr1, [r5], {9}
    1410:	017f9303 	cmneq	pc, r3, lsl #6
    1414:	05011d05 	streq	r1, [r1, #-3333]	; 0xfffff2fb
    1418:	0501062d 	streq	r0, [r1, #-1581]	; 0xfffff9d3
    141c:	00ed0309 	rsceq	r0, sp, r9, lsl #6
    1420:	0604052e 	streq	r0, [r4], -lr, lsr #10
    1424:	0200014e 	andeq	r0, r0, #-2147483629	; 0x80000013
    1428:	004a0204 	subeq	r0, sl, r4, lsl #4
    142c:	01020402 	tsteq	r2, r2, lsl #8
    1430:	02040200 	andeq	r0, r4, #0, 4
    1434:	04020015 	streq	r0, [r2], #-21	; 0xffffffeb
    1438:	36020602 	strcc	r0, [r2], -r2, lsl #12
    143c:	04020012 	streq	r0, [r2], #-18	; 0xffffffee
    1440:	02052e02 	andeq	r2, r5, #2, 28
    1444:	00d10306 	sbcseq	r0, r1, r6, lsl #6
    1448:	06070501 	streq	r0, [r7], -r1, lsl #10
    144c:	02052e01 	andeq	r2, r5, #1, 28
    1450:	0b052f06 	bleq	14d070 <__bss_end__+0x142298>
    1454:	01050106 	tsteq	r5, r6, lsl #2
    1458:	0605052f 	streq	r0, [r5], -pc, lsr #10
    145c:	054a6503 	strbeq	r6, [sl, #-1283]	; 0xfffffafd
    1460:	66010609 	strvs	r0, [r1], -r9, lsl #12
    1464:	9f060505 	svcls	0x00060505
    1468:	11030405 	tstne	r3, r5, lsl #8
    146c:	06070501 	streq	r0, [r7], -r1, lsl #10
    1470:	06040501 	streq	r0, [r4], -r1, lsl #10
    1474:	010a0531 	tsteq	sl, r1, lsr r5
    1478:	02001305 	andeq	r1, r0, #335544320	; 0x14000000
    147c:	2e060104 	adfcss	f0, f6, f4
    1480:	02001005 	andeq	r1, r0, #5, 0
    1484:	052e0104 	streq	r0, [lr, #-260]!	; 0xfffffefc
    1488:	054b0605 	strbeq	r0, [fp, #-1541]	; 0xfffff9fb
    148c:	0601060a 	streq	r0, [r1], -sl, lsl #12
    1490:	0604052d 	streq	r0, [r4], -sp, lsr #10
    1494:	06110501 	ldreq	r0, [r1], -r1, lsl #10
    1498:	667fb603 	ldrbtvs	fp, [pc], -r3, lsl #12
    149c:	02000113 	andeq	r0, r0, #-1073741820	; 0xc0000004
    14a0:	ba060204 	blt	181cb8 <__bss_end__+0x176ee0>
    14a4:	1401ba06 	strne	fp, [r1], #-2566	; 0xfffff5fa
    14a8:	13061a05 	movwne	r1, #27141	; 0x6a05
    14ac:	11052e2e 	tstne	r5, lr, lsr #28
    14b0:	1405674e 	strne	r6, [r5], #-1870	; 0xfffff8b2
    14b4:	82130568 	andshi	r0, r3, #104, 10	; 0x1a000000
    14b8:	78031505 	stmdavc	r3, {r0, r2, r8, sl, ip}
    14bc:	0611054a 	ldreq	r0, [r1], -sl, asr #10
    14c0:	1413134b 	ldrne	r1, [r3], #-843	; 0xfffffcb5
    14c4:	13051413 	movwne	r1, #21523	; 0x5413
    14c8:	09050106 	stmdbeq	r5, {r1, r2, r8}
    14cc:	0d052f06 	stceq	15, cr2, [r5, #-24]	; 0xffffffe8
    14d0:	2e2e0106 	sufcse	f0, f6, f6
    14d4:	05bb0905 	ldreq	r0, [fp, #2309]!	; 0x905
    14d8:	09059d0d 	stmdbeq	r5, {r0, r2, r3, r8, sl, fp, ip, pc}
    14dc:	15052f06 	strne	r2, [r5, #-3846]	; 0xfffff0fa
    14e0:	7503062f 	strvc	r0, [r3, #-1583]	; 0xfffff9d1
    14e4:	2e0b034a 	cdpcs	3, 0, cr0, cr11, cr10, {2}
    14e8:	0605054a 	streq	r0, [r5], -sl, asr #10
    14ec:	05012303 	streq	r2, [r1, #-771]	; 0xfffffcfd
    14f0:	2e010609 	cfmadd32cs	mvax0, mvfx0, mvfx1, mvfx9
    14f4:	d7060505 	strle	r0, [r6, -r5, lsl #10]
    14f8:	032e6e03 			; <UNDEFINED> instruction: 0x032e6e03
    14fc:	0905010e 	stmdbeq	r5, {r1, r2, r3, r8}
    1500:	05050106 	streq	r0, [r5, #-262]	; 0xfffffefa
    1504:	4a100306 	bmi	402124 <__bss_end__+0x3f734c>
    1508:	ed030105 	stfs	f0, [r3, #-20]	; 0xffffffec
    150c:	0205017e 	andeq	r0, r5, #-2147483617	; 0x8000001f
    1510:	14131514 	ldrne	r1, [r3], #-1300	; 0xfffffaec
    1514:	1a030405 	bne	c2530 <__bss_end__+0xb7758>
    1518:	06090501 	streq	r0, [r9], -r1, lsl #10
    151c:	03020501 	movweq	r0, #9473	; 0x2501
    1520:	09052e46 	stmdbeq	r5, {r1, r2, r6, r9, sl, fp, sp}
    1524:	052e3a03 	streq	r3, [lr, #-2563]!	; 0xfffff5fd
    1528:	032f0604 			; <UNDEFINED> instruction: 0x032f0604
    152c:	0501010d 	streq	r0, [r1, #-269]	; 0xfffffef3
    1530:	0e051502 	cfsh32eq	mvfx1, mvfx5, #2
    1534:	017fb203 	cmneq	pc, r3, lsl #4
    1538:	14130205 	ldrne	r0, [r3], #-517	; 0xfffffdfb
    153c:	05010805 	streq	r0, [r1, #-2053]	; 0xfffff7fb
    1540:	05010602 	streq	r0, [r1, #-1538]	; 0xfffff9fe
    1544:	03059f08 	movweq	r9, #24328	; 0x5f08
    1548:	01064a06 	tsteq	r6, r6, lsl #20
    154c:	052e0805 	streq	r0, [lr, #-2053]!	; 0xfffff7fb
    1550:	052d0615 	streq	r0, [sp, #-1557]!	; 0xfffff9eb
    1554:	03050108 	movweq	r0, #20744	; 0x5108
    1558:	0501062f 	streq	r0, [r1, #-1583]	; 0xfffff9d1
    155c:	15052e08 	strne	r2, [r5, #-3592]	; 0xfffff1f8
    1560:	08052d06 	stmdaeq	r5, {r1, r2, r8, sl, fp, sp}
    1564:	2f030501 	svccs	0x00030501
    1568:	08050106 	stmdaeq	r5, {r1, r2, r8}
    156c:	0615052e 	ldreq	r0, [r5], -lr, lsr #10
    1570:	0108052d 	tsteq	r8, sp, lsr #10
    1574:	062f0305 	strteq	r0, [pc], -r5, lsl #6
    1578:	2e080501 	cfsh32cs	mvfx0, mvfx8, #1
    157c:	2d061505 	cfstr32cs	mvfx1, [r6, #-20]	; 0xffffffec
    1580:	05010805 	streq	r0, [r1, #-2053]	; 0xfffff7fb
    1584:	01062f03 	tsteq	r6, r3, lsl #30
    1588:	052e0805 	streq	r0, [lr, #-2053]!	; 0xfffff7fb
    158c:	052d0615 	streq	r0, [sp, #-1557]!	; 0xfffff9eb
    1590:	03050108 	movweq	r0, #20744	; 0x5108
    1594:	0501062f 	streq	r0, [r1, #-1583]	; 0xfffff9d1
    1598:	15052e08 	strne	r2, [r5, #-3592]	; 0xfffff1f8
    159c:	08052d06 	stmdaeq	r5, {r1, r2, r8, sl, fp, sp}
    15a0:	13030501 	movwne	r0, #13569	; 0x3501
    15a4:	01060805 	tsteq	r6, r5, lsl #16
    15a8:	2d061505 	cfstr32cs	mvfx1, [r6, #-20]	; 0xffffffec
    15ac:	06010805 	streq	r0, [r1], -r5, lsl #16
    15b0:	06030566 	streq	r0, [r3], -r6, ror #10
    15b4:	06080567 	streq	r0, [r8], -r7, ror #10
    15b8:	2d180501 	cfldr32cs	mvfx0, [r8, #-4]
    15bc:	052e0205 	streq	r0, [lr, #-517]!	; 0xfffffdfb
    15c0:	15052f08 	strne	r2, [r5, #-3848]	; 0xfffff0f8
    15c4:	08052d06 	stmdaeq	r5, {r1, r2, r8, sl, fp, sp}
    15c8:	06020501 	streq	r0, [r2], -r1, lsl #10
    15cc:	06030501 	streq	r0, [r3], -r1, lsl #10
    15d0:	0618052f 	ldreq	r0, [r8], -pc, lsr #10
    15d4:	2e020511 	mcrcs	5, 0, r0, cr2, cr1, {0}
    15d8:	052f0805 	streq	r0, [pc, #-2053]!	; ddb <__code_start__-0x7225>
    15dc:	052d0615 	streq	r0, [sp, #-1557]!	; 0xfffff9eb
    15e0:	03050108 	movweq	r0, #20744	; 0x5108
    15e4:	06080513 			; <UNDEFINED> instruction: 0x06080513
    15e8:	06150501 	ldreq	r0, [r5], -r1, lsl #10
    15ec:	0108052d 	tsteq	r8, sp, lsr #10
    15f0:	14060505 	strne	r0, [r6], #-1285	; 0xfffffafb
    15f4:	0602054a 	streq	r0, [r2], -sl, asr #10
    15f8:	060e052e 	streq	r0, [lr], -lr, lsr #10
    15fc:	2f040519 	svccs	0x00040519
    1600:	052f1105 	streq	r1, [pc, #-261]!	; 1503 <__code_start__-0x6afd>
    1604:	02054a09 	andeq	r4, r5, #36864	; 0x9000
    1608:	03050533 	movweq	r0, #21811	; 0x5533
    160c:	02052e72 	andeq	r2, r5, #1824	; 0x720
    1610:	01062f06 	tsteq	r6, r6, lsl #30
    1614:	16060e05 	strne	r0, [r6], -r5, lsl #28
    1618:	13140205 	tstne	r4, #1342177280	; 0x50000000
    161c:	05130305 	ldreq	r0, [r3, #-773]	; 0xfffffcfb
    1620:	05151402 	ldreq	r1, [r5, #-1026]	; 0xfffffbfe
    1624:	0205010b 	andeq	r0, r5, #-1073741822	; 0xc0000002
    1628:	662e0106 	strtvs	r0, [lr], -r6, lsl #2
    162c:	2f060305 	svccs	0x00060305
    1630:	01060a05 	tsteq	r6, r5, lsl #20
    1634:	052d0205 	streq	r0, [sp, #-517]!	; 0xfffffdfb
    1638:	17052f0a 	strne	r2, [r5, -sl, lsl #30]
    163c:	0b052d06 	bleq	14ca5c <__bss_end__+0x141c84>
    1640:	06020501 	streq	r0, [r2], -r1, lsl #10
    1644:	054a4a01 	strbeq	r4, [sl, #-2561]	; 0xfffff5ff
    1648:	95030605 	strls	r0, [r3, #-1541]	; 0xfffff9fb
    164c:	11050101 	tstne	r5, r1, lsl #2
    1650:	7ef80306 	cdpvc	3, 15, cr0, cr8, cr6, {0}
    1654:	031b0501 	tsteq	fp, #4194304	; 0x400000
    1658:	054a0188 	strbeq	r0, [sl, #-392]	; 0xfffffe78
    165c:	f3030601 	vmax.u8	d0, d3, d1
    1660:	02052e7e 	andeq	r2, r5, #2016	; 0x7e0
    1664:	14131514 	ldrne	r1, [r3], #-1300	; 0xfffffaec
    1668:	22031905 	andcs	r1, r3, #81920	; 0x14000
    166c:	131a0501 	tstne	sl, #4194304	; 0x400000
    1670:	01062805 	tsteq	r6, r5, lsl #16
    1674:	052e1f05 	streq	r1, [lr, #-3845]!	; 0xfffff0fb
    1678:	0e052f04 	cdpeq	15, 0, cr2, cr5, cr4, {0}
    167c:	2d1f054a 	cfldr32cs	mvfx0, [pc, #-296]	; 155c <__code_start__-0x6aa4>
    1680:	2f060b05 	svccs	0x00060b05
    1684:	01060405 	tsteq	r6, r5, lsl #8
    1688:	05013206 	streq	r3, [r1, #-518]	; 0xfffffdfa
    168c:	0e051502 	cfsh32eq	mvfx1, mvfx5, #2
    1690:	017fb203 	cmneq	pc, r3, lsl #4
    1694:	05130205 	ldreq	r0, [r3, #-517]	; 0xfffffdfb
    1698:	05010606 	streq	r0, [r1, #-1542]	; 0xfffff9fa
    169c:	05300602 	ldreq	r0, [r0, #-1538]!	; 0xfffff9fe
    16a0:	02050108 	andeq	r0, r5, #2
    16a4:	03050106 	movweq	r0, #20742	; 0x5106
    16a8:	05210806 	streq	r0, [r1, #-2054]!	; 0xfffff7fa
    16ac:	05010608 	streq	r0, [r1, #-1544]	; 0xfffff9f8
    16b0:	05490615 	strbeq	r0, [r9, #-1557]	; 0xfffff9eb
    16b4:	03050108 	movweq	r0, #20744	; 0x5108
    16b8:	060805d7 			; <UNDEFINED> instruction: 0x060805d7
    16bc:	2d180501 	cfldr32cs	mvfx0, [r8, #-4]
    16c0:	052e0205 	streq	r0, [lr, #-517]!	; 0xfffffdfb
    16c4:	15052f08 	strne	r2, [r5, #-3848]	; 0xfffff0f8
    16c8:	08052d06 	stmdaeq	r5, {r1, r2, r8, sl, fp, sp}
    16cc:	06020501 	streq	r0, [r2], -r1, lsl #10
    16d0:	06030501 	streq	r0, [r3], -r1, lsl #10
    16d4:	0618052f 	ldreq	r0, [r8], -pc, lsr #10
    16d8:	2e020511 	mcrcs	5, 0, r0, cr2, cr1, {0}
    16dc:	052f0805 	streq	r0, [pc, #-2053]!	; edf <__code_start__-0x7121>
    16e0:	052d0615 	streq	r0, [sp, #-1557]!	; 0xfffff9eb
    16e4:	03050108 	movweq	r0, #20744	; 0x5108
    16e8:	06080513 			; <UNDEFINED> instruction: 0x06080513
    16ec:	06150501 	ldreq	r0, [r5], -r1, lsl #10
    16f0:	0108052d 	tsteq	r8, sp, lsr #10
    16f4:	14060505 	strne	r0, [r6], #-1285	; 0xfffffafb
    16f8:	66060205 	strvs	r0, [r6], -r5, lsl #4
    16fc:	1a060405 	bne	182718 <__bss_end__+0x177940>
    1700:	78030505 	stmdavc	r3, {r0, r2, r8, sl}
    1704:	0602054a 	streq	r0, [r2], -sl, asr #10
    1708:	0501062f 	streq	r0, [r1, #-1583]	; 0xfffff9d1
    170c:	0516060e 	ldreq	r0, [r6, #-1550]	; 0xfffff9f2
    1710:	05131402 	ldreq	r1, [r3, #-1026]	; 0xfffffbfe
    1714:	05010604 	streq	r0, [r1, #-1540]	; 0xfffff9fc
    1718:	052f0603 	streq	r0, [pc, #-1539]!	; 111d <__code_start__-0x6ee3>
    171c:	05010611 	streq	r0, [r1, #-1553]	; 0xfffff9ef
    1720:	02052e09 	andeq	r2, r5, #144	; 0x90
    1724:	05153006 	ldreq	r3, [r5, #-6]
    1728:	0205010b 	andeq	r0, r5, #-1073741822	; 0xc0000002
    172c:	4a4a0106 	bmi	1281b4c <__bss_end__+0x1276d74>
    1730:	0603052e 	streq	r0, [r3], -lr, lsr #10
    1734:	060a052f 	streq	r0, [sl], -pc, lsr #10
    1738:	2d020501 	cfstr32cs	mvfx0, [r2, #-4]
    173c:	052f0a05 	streq	r0, [pc, #-2565]!	; d3f <__code_start__-0x72c1>
    1740:	052d0617 	streq	r0, [sp, #-1559]!	; 0xfffff9e9
    1744:	0205010b 	andeq	r0, r5, #-1073741822	; 0xc0000002
    1748:	2e4a0106 	dvfcse	f0, f2, f6
    174c:	09051406 	stmdbeq	r5, {r1, r2, sl, ip}
    1750:	02050106 	andeq	r0, r5, #-2147483647	; 0x80000001
    1754:	01064c06 	tsteq	r6, r6, lsl #24
    1758:	03060505 	movweq	r0, #25861	; 0x6505
    175c:	2a010198 	bcs	41dc4 <__bss_end__+0x36fec>
    1760:	01060705 	tsteq	r6, r5, lsl #14
    1764:	2f060505 	svccs	0x00060505
    1768:	53031805 	movwpl	r1, #14341	; 0x3805
    176c:	061b052e 	ldreq	r0, [fp], -lr, lsr #10
    1770:	821a0501 	andshi	r0, sl, #4194304	; 0x400000
    1774:	4b060905 	blmi	183b90 <__bss_end__+0x178db8>
    1778:	01060d05 	tsteq	r6, r5, lsl #26
    177c:	d709052e 	strle	r0, [r9, -lr, lsr #10]
    1780:	059d0d05 	ldreq	r0, [sp, #3333]	; 0xd05
    1784:	052f0609 	streq	r0, [pc, #-1545]!	; 1183 <__code_start__-0x6e7d>
    1788:	18053015 	stmdane	r5, {r0, r2, r4, ip, sp}
    178c:	17050106 	strne	r0, [r5, -r6, lsl #2]
    1790:	2f190566 	svccs	0x00190566
    1794:	05491705 	strbeq	r1, [r9, #-1797]	; 0xfffff8fb
    1798:	052f0619 	streq	r0, [pc, #-1561]!	; 1187 <__code_start__-0x6e79>
    179c:	6f030615 	svcvs	0x00030615
    17a0:	0619052e 	ldreq	r0, [r9], -lr, lsr #10
    17a4:	054a1303 	strbeq	r1, [sl, #-771]	; 0xfffffcfd
    17a8:	6d030615 	stcvs	6, cr0, [r3, #-84]	; 0xffffffac
    17ac:	02054a2e 	andeq	r4, r5, #188416	; 0x2e000
    17b0:	017fa003 	cmneq	pc, r3
    17b4:	72030666 	andvc	r0, r3, #106954752	; 0x6600000
    17b8:	06050501 	streq	r0, [r5], -r1, lsl #10
    17bc:	36040501 	strcc	r0, [r4], -r1, lsl #10
    17c0:	78030505 	stmdavc	r3, {r0, r2, r8, sl}
    17c4:	0602052e 	streq	r0, [r2], -lr, lsr #10
    17c8:	0501062f 	streq	r0, [r1, #-1583]	; 0xfffff9d1
    17cc:	0516060e 	ldreq	r0, [r6, #-1550]	; 0xfffff9f2
    17d0:	05131402 	ldreq	r1, [r3, #-1026]	; 0xfffffbfe
    17d4:	4a010604 	bmi	42fec <__bss_end__+0x38214>
    17d8:	03060205 	movweq	r0, #25093	; 0x6205
    17dc:	05050178 	streq	r0, [r5, #-376]	; 0xfffffe88
    17e0:	054a0106 	strbeq	r0, [sl, #-262]	; 0xfffffefa
    17e4:	064b0602 	strbeq	r0, [fp], -r2, lsl #12
    17e8:	060e0501 	streq	r0, [lr], -r1, lsl #10
    17ec:	14020516 	strne	r0, [r2], #-1302	; 0xfffffaea
    17f0:	05151513 	ldreq	r1, [r5, #-1299]	; 0xfffffaed
    17f4:	2e06010b 	adfcss	f0, f6, #3.0
    17f8:	03061105 	movweq	r1, #24837	; 0x6105
    17fc:	0501019e 	streq	r0, [r1, #-414]	; 0xfffffe62
    1800:	05010622 	streq	r0, [r1, #-1570]	; 0xfffff9de
    1804:	22052f05 	andcs	r2, r5, #5, 30
    1808:	0605052d 	streq	r0, [r5], -sp, lsr #10
    180c:	4b11052f 	blmi	442cd0 <__bss_end__+0x437ef8>
    1810:	01830505 	orreq	r0, r3, r5, lsl #10
    1814:	2e5c039e 	mrccs	3, 2, r0, cr12, cr14, {4}
    1818:	02059e01 	andeq	r9, r5, #1, 28
    181c:	7ef30306 	cdpvc	3, 15, cr0, cr3, cr6, {0}
    1820:	06052e2e 	streq	r2, [r5], -lr, lsr #28
    1824:	0d054a2c 	vstreq	s8, [r5, #-176]	; 0xffffff50
    1828:	0100d803 	tsteq	r0, r3, lsl #16
    182c:	02000405 	andeq	r0, r0, #83886080	; 0x5000000
    1830:	03060104 	movweq	r0, #24836	; 0x6104
    1834:	02004a11 	andeq	r4, r0, #69632	; 0x11000
    1838:	05010104 	streq	r0, [r1, #-260]	; 0xfffffefc
    183c:	06510611 			; <UNDEFINED> instruction: 0x06510611
    1840:	0315059e 	tsteq	r5, #662700032	; 0x27800000
    1844:	ba012e17 	blt	4d0a8 <__bss_end__+0x422d0>
    1848:	69031105 	stmdbvs	r3, {r0, r2, r8, ip}
    184c:	2802012e 	stmdacs	r2, {r1, r2, r3, r5, r8}
    1850:	87010100 	strhi	r0, [r1, -r0, lsl #2]
    1854:	03000000 	movweq	r0, #0
    1858:	00006400 	andeq	r6, r0, r0, lsl #8
    185c:	fb010200 	blx	42066 <__bss_end__+0x3728e>
    1860:	01000d0e 	tsteq	r0, lr, lsl #26
    1864:	00010101 	andeq	r0, r1, r1, lsl #2
    1868:	00010000 	andeq	r0, r1, r0
    186c:	2f2e0100 	svccs	0x002e0100
    1870:	66617473 			; <UNDEFINED> instruction: 0x66617473
    1874:	72732d66 	rsbsvc	r2, r3, #6528	; 0x1980
    1878:	552f0063 	strpl	r0, [pc, #-99]!	; 181d <__code_start__-0x67e3>
    187c:	73726573 	cmnvc	r2, #482344960	; 0x1cc00000
    1880:	6c696d2f 	stclvs	13, cr6, [r9], #-188	; 0xffffff44
    1884:	532f7365 			; <UNDEFINED> instruction: 0x532f7365
    1888:	6372756f 	cmnvs	r2, #465567744	; 0x1bc00000
    188c:	73632f65 	cmnvc	r3, #404	; 0x194
    1890:	6c303432 	cfldrsvs	mvf3, [r0], #-200	; 0xffffff38
    1894:	696c2f78 	stmdbvs	ip!, {r3, r4, r5, r6, r8, r9, sl, fp, sp}^
    1898:	2f697062 	svccs	0x00697062
    189c:	6c636e69 	stclvs	14, cr6, [r3], #-420	; 0xfffffe5c
    18a0:	00656475 	rsbeq	r6, r5, r5, ror r4
    18a4:	656c6300 	strbvs	r6, [ip, #-768]!	; 0xfffffd00
    18a8:	722d6e61 	eorvc	r6, sp, #1552	; 0x610
    18ac:	6f6f6265 	svcvs	0x006f6265
    18b0:	00632e74 	rsbeq	r2, r3, r4, ror lr
    18b4:	72000001 	andvc	r0, r0, #1, 0
    18b8:	682e6970 	stmdavs	lr!, {r4, r5, r6, r8, fp, sp, lr}
    18bc:	00000200 	andeq	r0, r0, r0, lsl #4
    18c0:	00190500 	andseq	r0, r9, r0, lsl #10
    18c4:	95ec0205 	strbls	r0, [ip, #517]!	; 0x205
    18c8:	05150000 	ldreq	r0, [r5, #-0]
    18cc:	19051305 	stmdbne	r5, {r0, r2, r8, r9, ip}
    18d0:	05052d06 	streq	r2, [r5, #-3334]	; 0xfffff2fa
    18d4:	2f67062f 	svccs	0x0067062f
    18d8:	0006024b 	andeq	r0, r6, fp, asr #4
    18dc:	01120101 	tsteq	r2, r1, lsl #2
    18e0:	00030000 	andeq	r0, r3, r0
    18e4:	0000005e 	andeq	r0, r0, lr, asr r0
    18e8:	0efb0102 	cdpeq	1, 15, cr0, cr11, cr2, {0}
    18ec:	0101000d 	tsteq	r1, sp
    18f0:	00000101 	andeq	r0, r0, r1, lsl #2
    18f4:	00000100 	andeq	r0, r0, r0, lsl #2
    18f8:	732f2e01 			; <UNDEFINED> instruction: 0x732f2e01
    18fc:	66666174 			; <UNDEFINED> instruction: 0x66666174
    1900:	6372732d 	cmnvs	r2, #-1275068416	; 0xb4000000
    1904:	73552f00 	cmpvc	r5, #0, 30
    1908:	2f737265 	svccs	0x00737265
    190c:	656c696d 	strbvs	r6, [ip, #-2413]!	; 0xfffff693
    1910:	6f532f73 	svcvs	0x00532f73
    1914:	65637275 	strbvs	r7, [r3, #-629]!	; 0xfffffd8b
    1918:	3273632f 	rsbscc	r6, r3, #-1140850688	; 0xbc000000
    191c:	786c3034 	stmdavc	ip!, {r2, r4, r5, ip, sp}^
    1920:	62696c2f 	rsbvs	r6, r9, #12032	; 0x2f00
    1924:	692f6970 	stmdbvs	pc!, {r4, r5, r6, r8, fp, sp, lr}	; <UNPREDICTABLE>
    1928:	756c636e 	strbvc	r6, [ip, #-878]!	; 0xfffffc92
    192c:	00006564 	andeq	r6, r0, r4, ror #10
    1930:	61747363 	cmnvs	r4, r3, ror #6
    1934:	632e7472 			; <UNDEFINED> instruction: 0x632e7472
    1938:	00000100 	andeq	r0, r0, r0, lsl #2
    193c:	2e697072 	mcrcs	0, 3, r7, cr9, cr2, {3}
    1940:	00020068 	andeq	r0, r2, r8, rrx
    1944:	10050000 	andne	r0, r5, r0
    1948:	18020500 	stmdane	r2, {r8, sl}
    194c:	15000096 	strne	r0, [r0, #-150]	; 0xffffff6a
    1950:	05130505 	ldreq	r0, [r3, #-1285]	; 0xfffffafb
    1954:	05051302 	streq	r1, [r5, #-770]	; 0xfffffcfe
    1958:	06100514 			; <UNDEFINED> instruction: 0x06100514
    195c:	3205050e 	andcc	r0, r5, #58720256	; 0x3800000
    1960:	14133006 	ldrne	r3, [r3], #-6
    1964:	05010a05 	streq	r0, [r1, #-2565]	; 0xfffff5fb
    1968:	05910809 	ldreq	r0, [r1, #2057]	; 0x809
    196c:	05010610 	streq	r0, [r1, #-1552]	; 0xfffff9f0
    1970:	10059a0a 	andne	r9, r5, sl, lsl #20
    1974:	060a056a 	streq	r0, [sl], -sl, ror #10
    1978:	2f09052d 	svccs	0x0009052d
    197c:	01061005 	tsteq	r6, r5
    1980:	2d060a05 	vstrcs	s0, [r6, #-20]	; 0xffffffec
    1984:	05bb0905 	ldreq	r0, [fp, #2309]!	; 0x905
    1988:	05010610 	streq	r0, [r1, #-1552]	; 0xfffff9f0
    198c:	0565060a 	strbeq	r0, [r5, #-1546]!	; 0xfffff9f6
    1990:	0d054b09 	vstreq	d4, [r5, #-36]	; 0xffffffdc
    1994:	0a050106 	beq	141db4 <__bss_end__+0x136fdc>
    1998:	2f10052d 	svccs	0x0010052d
    199c:	2d060a05 	vstrcs	s0, [r6, #-20]	; 0xffffffec
    19a0:	052f0905 	streq	r0, [pc, #-2309]!	; 10a3 <__code_start__-0x6f5d>
    19a4:	0501060d 	streq	r0, [r1, #-1549]	; 0xfffff9f3
    19a8:	10052d0a 	andne	r2, r5, sl, lsl #26
    19ac:	060a052f 	streq	r0, [sl], -pc, lsr #10
    19b0:	2f09052d 	svccs	0x0009052d
    19b4:	01060d05 	tsteq	r6, r5, lsl #26
    19b8:	052d0a05 	streq	r0, [sp, #-2565]!	; 0xfffff5fb
    19bc:	0a052f10 	beq	14d604 <__bss_end__+0x14282c>
    19c0:	09052d06 	stmdbeq	r5, {r1, r2, r8, sl, fp, sp}
    19c4:	060d052f 	streq	r0, [sp], -pc, lsr #10
    19c8:	2d0a0501 	cfstr32cs	mvfx0, [sl, #-4]
    19cc:	052f1005 	streq	r1, [pc, #-5]!	; 19cf <__code_start__-0x6631>
    19d0:	052d060a 	streq	r0, [sp, #-1546]!	; 0xfffff9f6
    19d4:	10051309 	andne	r1, r5, r9, lsl #6
    19d8:	0a050106 	beq	141df8 <__bss_end__+0x137020>
    19dc:	05052d06 	streq	r2, [r5, #-3334]	; 0xfffff2fa
    19e0:	01013215 	tsteq	r1, r5, lsl r2
    19e4:	0205144a 	andeq	r1, r5, #1241513984	; 0x4a000000
    19e8:	060a052f 	streq	r0, [sl], -pc, lsr #10
    19ec:	022e7303 	eoreq	r7, lr, #201326592	; 0xc000000
    19f0:	01010008 	tsteq	r1, r8
    19f4:	0000007d 	andeq	r0, r0, sp, ror r0
    19f8:	00650003 	rsbeq	r0, r5, r3
    19fc:	01020000 	mrseq	r0, (UNDEF: 2)
    1a00:	000d0efb 	strdeq	r0, [sp], -fp
    1a04:	01010101 	tsteq	r1, r1, lsl #2
    1a08:	01000000 	mrseq	r0, (UNDEF: 0)
    1a0c:	2e010000 	cdpcs	0, 0, cr0, cr1, cr0, {0}
    1a10:	6174732f 	cmnvs	r4, pc, lsr #6
    1a14:	732d6666 			; <UNDEFINED> instruction: 0x732d6666
    1a18:	2f006372 	svccs	0x00006372
    1a1c:	72657355 	rsbvc	r7, r5, #1409286145	; 0x54000001
    1a20:	696d2f73 	stmdbvs	sp!, {r0, r1, r4, r5, r6, r8, r9, sl, fp, sp}^
    1a24:	2f73656c 	svccs	0x0073656c
    1a28:	72756f53 	rsbsvc	r6, r5, #332	; 0x14c
    1a2c:	632f6563 			; <UNDEFINED> instruction: 0x632f6563
    1a30:	30343273 	eorscc	r3, r4, r3, ror r2
    1a34:	6c2f786c 	stcvs	8, cr7, [pc], #-432	; 188c <__code_start__-0x6774>
    1a38:	69706269 	ldmdbvs	r0!, {r0, r3, r5, r6, r9, sp, lr}^
    1a3c:	636e692f 	cmnvs	lr, #770048	; 0xbc000
    1a40:	6564756c 	strbvs	r7, [r4, #-1388]!	; 0xfffffa94
    1a44:	75630000 	strbvc	r0, [r3, #-0]!
    1a48:	6d6f7473 	cfstrdvs	mvd7, [pc, #-460]!	; 1884 <__code_start__-0x677c>
    1a4c:	616f6c2d 	cmnvs	pc, sp, lsr #24
    1a50:	2e726564 	cdpcs	5, 7, cr6, cr2, cr4, {3}
    1a54:	00010063 	andeq	r0, r1, r3, rrx
    1a58:	69707200 	ldmdbvs	r0!, {r9, ip, sp, lr}^
    1a5c:	0200682e 	andeq	r6, r0, #3014656	; 0x2e0000
    1a60:	05000000 	streq	r0, [r0, #-0]
    1a64:	0205001a 	andeq	r0, r5, #26, 0
    1a68:	00009710 	andeq	r9, r0, r0, lsl r7
    1a6c:	14010515 	strne	r0, [r1], #-1301	; 0xfffffaeb
    1a70:	01000202 	tsteq	r0, r2, lsl #4
    1a74:	00011401 	andeq	r1, r1, r1, lsl #8
    1a78:	5e000300 	cdppl	3, 0, cr0, cr0, cr0, {0}
    1a7c:	02000000 	andeq	r0, r0, #0, 0
    1a80:	0d0efb01 	vstreq	d15, [lr, #-4]
    1a84:	01010100 	mrseq	r0, (UNDEF: 17)
    1a88:	00000001 	andeq	r0, r0, r1
    1a8c:	01000001 	tsteq	r0, r1
    1a90:	74732f2e 	ldrbtvc	r2, [r3], #-3886	; 0xfffff0d2
    1a94:	2d666661 	stclcs	6, cr6, [r6, #-388]!	; 0xfffffe7c
    1a98:	00637273 	rsbeq	r7, r3, r3, ror r2
    1a9c:	6573552f 	ldrbvs	r5, [r3, #-1327]!	; 0xfffffad1
    1aa0:	6d2f7372 	stcvs	3, cr7, [pc, #-456]!	; 18e0 <__code_start__-0x6720>
    1aa4:	73656c69 	cmnvc	r5, #26880	; 0x6900
    1aa8:	756f532f 	strbvc	r5, [pc, #-815]!	; 1781 <__code_start__-0x687f>
    1aac:	2f656372 	svccs	0x00656372
    1ab0:	34327363 	ldrtcc	r7, [r2], #-867	; 0xfffffc9d
    1ab4:	2f786c30 	svccs	0x00786c30
    1ab8:	7062696c 	rsbvc	r6, r2, ip, ror #18
    1abc:	6e692f69 	cdpvs	15, 6, cr2, cr9, cr9, {3}
    1ac0:	64756c63 	ldrbtvs	r6, [r5], #-3171	; 0xfffff39d
    1ac4:	72000065 	andvc	r0, r0, #101, 0	; 0x65
    1ac8:	6f6f6265 	svcvs	0x006f6265
    1acc:	00632e74 	rsbeq	r2, r3, r4, ror lr
    1ad0:	72000001 	andvc	r0, r0, #1, 0
    1ad4:	682e6970 	stmdavs	lr!, {r4, r5, r6, r8, fp, sp, lr}
    1ad8:	00000200 	andeq	r0, r0, r0, lsl #4
    1adc:	00190500 	andseq	r0, r9, r0, lsl #10
    1ae0:	97140205 	ldrls	r0, [r4, -r5, lsl #4]
    1ae4:	0d030000 	stceq	0, cr0, [r3, #-0]
    1ae8:	13050501 	movwne	r0, #21761	; 0x5501
    1aec:	13053113 	movwne	r3, #20755	; 0x5113
    1af0:	01050106 	tsteq	r5, r6, lsl #2
    1af4:	061b052f 	ldreq	r0, [fp], -pc, lsr #10
    1af8:	13050585 	movwne	r0, #21893	; 0x5585
    1afc:	2f090514 	svccs	0x00090514
    1b00:	01061605 	tsteq	r6, r5, lsl #12
    1b04:	2f060505 	svccs	0x00060505
    1b08:	11060e05 	tstne	r6, r5, lsl #28
    1b0c:	052f0505 	streq	r0, [pc, #-1285]!	; 160f <__code_start__-0x69f1>
    1b10:	17052f01 	strne	r2, [r5, -r1, lsl #30]
    1b14:	05053006 	streq	r3, [r5, #-6]
    1b18:	016e0313 	cmneq	lr, r3, lsl r3
    1b1c:	17051313 	smladne	r5, r3, r3, r1
    1b20:	010f0306 	tsteq	pc, r6, lsl #6
    1b24:	71030505 	tstvc	r3, r5, lsl #10
    1b28:	0531062e 	ldreq	r0, [r1, #-1582]!	; 0xfffff9d2
    1b2c:	05010613 	streq	r0, [r1, #-1555]	; 0xfffff9ed
    1b30:	2e0d0307 	cdpcs	3, 0, cr0, cr13, cr7, {0}
    1b34:	4b060905 	blmi	183f50 <__bss_end__+0x179178>
    1b38:	76030605 	strvc	r0, [r3], -r5, lsl #12
    1b3c:	13050501 	movwne	r0, #21761	; 0x5501
    1b40:	2f090514 	svccs	0x00090514
    1b44:	01061605 	tsteq	r6, r5, lsl #12
    1b48:	2f060505 	svccs	0x00060505
    1b4c:	11060e05 	tstne	r6, r5, lsl #28
    1b50:	2e2f0505 	cfsh64cs	mvdx0, mvdx15, #5
    1b54:	010a0306 	tsteq	sl, r6, lsl #6
    1b58:	134d2f30 	movtne	r2, #57136	; 0xdf30
    1b5c:	67151313 			; <UNDEFINED> instruction: 0x67151313
    1b60:	01040200 	mrseq	r0, R12_usr
    1b64:	000d0567 	andeq	r0, sp, r7, ror #10
    1b68:	01010402 	tsteq	r1, r2, lsl #8
    1b6c:	02000a05 	andeq	r0, r0, #20480	; 0x5000
    1b70:	05010104 	streq	r0, [r1, #-260]	; 0xfffffefc
    1b74:	04020005 	streq	r0, [r2], #-5
    1b78:	0d050101 	stfeqs	f0, [r5, #-4]
    1b7c:	01040200 	mrseq	r0, R12_usr
    1b80:	000a0501 	andeq	r0, sl, r1, lsl #10
    1b84:	01010402 	tsteq	r1, r2, lsl #8
    1b88:	01000a02 	tsteq	r0, r2, lsl #20
    1b8c:	0001fa01 	andeq	pc, r1, r1, lsl #20
    1b90:	5d000300 	stcpl	3, cr0, [r0, #-0]
    1b94:	02000000 	andeq	r0, r0, #0, 0
    1b98:	0d0efb01 	vstreq	d15, [lr, #-4]
    1b9c:	01010100 	mrseq	r0, (UNDEF: 17)
    1ba0:	00000001 	andeq	r0, r0, r1
    1ba4:	01000001 	tsteq	r0, r1
    1ba8:	74732f2e 	ldrbtvc	r2, [r3], #-3886	; 0xfffff0d2
    1bac:	2d666661 	stclcs	6, cr6, [r6, #-388]!	; 0xfffffe7c
    1bb0:	00637273 	rsbeq	r7, r3, r3, ror r2
    1bb4:	6573552f 	ldrbvs	r5, [r3, #-1327]!	; 0xfffffad1
    1bb8:	6d2f7372 	stcvs	3, cr7, [pc, #-456]!	; 19f8 <__code_start__-0x6608>
    1bbc:	73656c69 	cmnvc	r5, #26880	; 0x6900
    1bc0:	756f532f 	strbvc	r5, [pc, #-815]!	; 1899 <__code_start__-0x6767>
    1bc4:	2f656372 	svccs	0x00656372
    1bc8:	34327363 	ldrtcc	r7, [r2], #-867	; 0xfffffc9d
    1bcc:	2f786c30 	svccs	0x00786c30
    1bd0:	7062696c 	rsbvc	r6, r2, ip, ror #18
    1bd4:	6e692f69 	cdpvs	15, 6, cr2, cr9, cr9, {3}
    1bd8:	64756c63 	ldrbtvs	r6, [r5], #-3171	; 0xfffff39d
    1bdc:	74000065 	strvc	r0, [r0], #-101	; 0xffffff9b
    1be0:	72656d69 	rsbvc	r6, r5, #6720	; 0x1a40
    1be4:	0100632e 	tsteq	r0, lr, lsr #6
    1be8:	70720000 	rsbsvc	r0, r2, r0
    1bec:	00682e69 	rsbeq	r2, r8, r9, ror #28
    1bf0:	00000002 	andeq	r0, r0, r2
    1bf4:	05002305 	streq	r2, [r0, #-773]	; 0xfffffcfb
    1bf8:	0097a002 	addseq	sl, r7, r2
    1bfc:	05051500 	streq	r1, [r5, #-1280]	; 0xfffffb00
    1c00:	060c0513 			; <UNDEFINED> instruction: 0x060c0513
    1c04:	061f0501 	ldreq	r0, [pc], -r1, lsl #10
    1c08:	1505056a 	strne	r0, [r5, #-1386]	; 0xfffffa96
    1c0c:	0f061f05 	svceq	0x00061f05
    1c10:	06310505 	ldrteq	r0, [r1], -r5, lsl #10
    1c14:	030a052f 	movweq	r0, #42287	; 0xa52f
    1c18:	05050177 	streq	r0, [r5, #-375]	; 0xfffffe89
    1c1c:	060c0513 			; <UNDEFINED> instruction: 0x060c0513
    1c20:	05056601 	streq	r6, [r5, #-1537]	; 0xfffff9ff
    1c24:	01090306 	tsteq	r9, r6, lsl #6
    1c28:	0601052f 	streq	r0, [r1], -pc, lsr #10
    1c2c:	061c0513 			; <UNDEFINED> instruction: 0x061c0513
    1c30:	13050568 	movwne	r0, #21864	; 0x5568
    1c34:	76030a05 	strvc	r0, [r3], -r5, lsl #20
    1c38:	15050501 	strne	r0, [r5, #-1281]	; 0xfffffaff
    1c3c:	18061c05 	stmdane	r6, {r0, r2, sl, fp, ip}
    1c40:	0305052e 	movweq	r0, #21806	; 0x552e
    1c44:	2f062e7a 	svccs	0x00062e7a
    1c48:	77030a05 	strvc	r0, [r3, -r5, lsl #20]
    1c4c:	13050501 	movwne	r0, #21761	; 0x5501
    1c50:	01060c05 	tsteq	r6, r5, lsl #24
    1c54:	06050566 	streq	r0, [r5], -r6, ror #10
    1c58:	2f010903 	svccs	0x00010903
    1c5c:	0c050106 	stfeqs	f0, [r5], {6}
    1c60:	05017603 	streq	r7, [r1, #-1539]	; 0xfffff9fd
    1c64:	0f030605 	svceq	0x00030605
    1c68:	1309052e 	movwne	r0, #38190	; 0x952e
    1c6c:	74030a05 	strvc	r0, [r3], #-2565	; 0xfffff5fb
    1c70:	15050501 	strne	r0, [r5, #-1281]	; 0xfffffaff
    1c74:	030a052f 	movweq	r0, #42287	; 0xa52f
    1c78:	05050177 	streq	r0, [r5, #-375]	; 0xfffffe89
    1c7c:	060c0513 			; <UNDEFINED> instruction: 0x060c0513
    1c80:	05056601 	streq	r6, [r5, #-1537]	; 0xfffff9ff
    1c84:	01090306 	tsteq	r9, r6, lsl #6
    1c88:	1a061105 	bne	1860a4 <__bss_end__+0x17b2cc>
    1c8c:	78030505 	stmdavc	r3, {r0, r2, r8, sl}
    1c90:	052f062e 	streq	r0, [pc, #-1582]!	; 166a <__code_start__-0x6996>
    1c94:	0c051909 			; <UNDEFINED> instruction: 0x0c051909
    1c98:	1c050106 	stfnes	f0, [r5], {6}
    1c9c:	05058706 	streq	r8, [r5, #-1798]	; 0xfffff8fa
    1ca0:	061c0513 			; <UNDEFINED> instruction: 0x061c0513
    1ca4:	2f050511 	svccs	0x00050511
    1ca8:	0606054a 	streq	r0, [r6], -sl, asr #10
    1cac:	052e7603 	streq	r7, [lr, #-1539]!	; 0xfffff9fd
    1cb0:	0a051305 	beq	1468cc <__bss_end__+0x13baf4>
    1cb4:	05017603 	streq	r7, [r1, #-1539]	; 0xfffff9fd
    1cb8:	052f1505 	streq	r1, [pc, #-1285]!	; 17bb <__code_start__-0x6845>
    1cbc:	0177030a 	cmneq	r7, sl, lsl #6
    1cc0:	05130505 	ldreq	r0, [r3, #-1285]	; 0xfffffafb
    1cc4:	6601060c 	strvs	r0, [r1], -ip, lsl #12
    1cc8:	03060505 	movweq	r0, #25861	; 0x6505
    1ccc:	062f0109 	strteq	r0, [pc], -r9, lsl #2
    1cd0:	030c0501 	movweq	r0, #50433	; 0xc501
    1cd4:	05050176 	streq	r0, [r5, #-374]	; 0xfffffe8a
    1cd8:	2e0f0306 	cdpcs	3, 0, cr0, cr15, cr6, {0}
    1cdc:	05130905 	ldreq	r0, [r3, #-2309]	; 0xfffff6fb
    1ce0:	0174030a 	cmneq	r4, sl, lsl #6
    1ce4:	2f150505 	svccs	0x00150505
    1ce8:	77030a05 	strvc	r0, [r3, -r5, lsl #20]
    1cec:	13050501 	movwne	r0, #21761	; 0x5501
    1cf0:	01060c05 	tsteq	r6, r5, lsl #24
    1cf4:	06050566 	streq	r0, [r5], -r6, ror #10
    1cf8:	05010903 	streq	r0, [r1, #-2307]	; 0xfffff6fd
    1cfc:	051a0611 	ldreq	r0, [sl, #-1553]	; 0xfffff9ef
    1d00:	2e780305 	cdpcs	3, 7, cr0, cr8, cr5, {0}
    1d04:	09052f06 	stmdbeq	r5, {r1, r2, r8, r9, sl, fp, sp}
    1d08:	060c0519 			; <UNDEFINED> instruction: 0x060c0519
    1d0c:	061e0501 	ldreq	r0, [lr], -r1, lsl #10
    1d10:	1305058a 	movwne	r0, #21898	; 0x558a
    1d14:	050e0605 	streq	r0, [lr, #-1541]	; 0xfffff9fb
    1d18:	1e051305 	cdpne	3, 0, cr1, cr5, cr5, {0}
    1d1c:	05051406 	streq	r1, [r5, #-1030]	; 0xfffffbfa
    1d20:	0605662c 	streq	r6, [r5], -ip, lsr #12
    1d24:	2e760306 	cdpcs	3, 7, cr0, cr6, cr6, {0}
    1d28:	05130505 	ldreq	r0, [r3, #-1285]	; 0xfffffafb
    1d2c:	0176030a 	cmneq	r6, sl, lsl #6
    1d30:	2f150505 	svccs	0x00150505
    1d34:	77030a05 	strvc	r0, [r3, -r5, lsl #20]
    1d38:	13050501 	movwne	r0, #21761	; 0x5501
    1d3c:	01060c05 	tsteq	r6, r5, lsl #24
    1d40:	06050566 	streq	r0, [r5], -r6, ror #10
    1d44:	2f010903 	svccs	0x00010903
    1d48:	0c050106 	stfeqs	f0, [r5], {6}
    1d4c:	05017603 	streq	r7, [r1, #-1539]	; 0xfffff9fd
    1d50:	0f030605 	svceq	0x00030605
    1d54:	1309052e 	movwne	r0, #38190	; 0x952e
    1d58:	74030a05 	strvc	r0, [r3], #-2565	; 0xfffff5fb
    1d5c:	15050501 	strne	r0, [r5, #-1281]	; 0xfffffaff
    1d60:	030a052f 	movweq	r0, #42287	; 0xa52f
    1d64:	05050177 	streq	r0, [r5, #-375]	; 0xfffffe89
    1d68:	060c0513 			; <UNDEFINED> instruction: 0x060c0513
    1d6c:	05056601 	streq	r6, [r5, #-1537]	; 0xfffff9ff
    1d70:	01090306 	tsteq	r9, r6, lsl #6
    1d74:	1a061105 	bne	186190 <__bss_end__+0x17b3b8>
    1d78:	78030505 	stmdavc	r3, {r0, r2, r8, sl}
    1d7c:	052f062e 	streq	r0, [pc, #-1582]!	; 1756 <__code_start__-0x68aa>
    1d80:	0c051909 			; <UNDEFINED> instruction: 0x0c051909
    1d84:	08020106 	stmdaeq	r2, {r1, r2, r8}
    1d88:	04010100 	streq	r0, [r1], #-256	; 0xffffff00
    1d8c:	03000002 	movweq	r0, #2
    1d90:	0000c800 	andeq	ip, r0, r0, lsl #16
    1d94:	fb010200 	blx	4259e <__bss_end__+0x377c6>
    1d98:	01000d0e 	tsteq	r0, lr, lsl #26
    1d9c:	00010101 	andeq	r0, r1, r1, lsl #2
    1da0:	00010000 	andeq	r0, r1, r0
    1da4:	682f0100 	stmdavs	pc!, {r8}	; <UNPREDICTABLE>
    1da8:	2f656d6f 	svccs	0x00656d6f
    1dac:	6c676e65 	stclvs	14, cr6, [r7], #-404	; 0xfffffe6c
    1db0:	632f7265 			; <UNDEFINED> instruction: 0x632f7265
    1db4:	7373616c 	cmnvc	r3, #27
    1db8:	3173632f 	cmncc	r3, pc, lsr #6
    1dbc:	2d653034 	stclcs	0, cr3, [r5, #-208]!	; 0xffffff30
    1dc0:	69773232 	ldmdbvs	r7!, {r1, r4, r5, r9, ip, sp}^
    1dc4:	6c2f2f6e 	stcvs	15, cr2, [pc], #-440	; 1c14 <__code_start__-0x63ec>
    1dc8:	69706269 	ldmdbvs	r0!, {r0, r3, r5, r6, r9, sp, lr}^
    1dcc:	636e692f 	cmnvs	lr, #770048	; 0xbc000
    1dd0:	6564756c 	strbvs	r7, [r4, #-1388]!	; 0xfffffa94
    1dd4:	73752f00 	cmnvc	r5, #0, 30
    1dd8:	68732f72 	ldmdavs	r3!, {r1, r4, r5, r6, r8, r9, sl, fp, sp}^
    1ddc:	2f657261 	svccs	0x00657261
    1de0:	2d636367 	stclcs	3, cr6, [r3, #-412]!	; 0xfffffe64
    1de4:	2d6d7261 	sfmcs	f7, 2, [sp, #-388]!	; 0xfffffe7c
    1de8:	656e6f6e 	strbvs	r6, [lr, #-3950]!	; 0xfffff092
    1dec:	6261652d 	rsbvs	r6, r1, #188743680	; 0xb400000
    1df0:	30312d69 	eorscc	r2, r1, r9, ror #26
    1df4:	322d332e 	eorcc	r3, sp, #-1207959552	; 0xb8000000
    1df8:	2e313230 	mrccs	2, 1, r3, cr1, cr0, {1}
    1dfc:	6c2f3031 	stcvs	0, cr3, [pc], #-196	; 1d40 <__code_start__-0x62c0>
    1e00:	672f6269 	strvs	r6, [pc, -r9, ror #4]!
    1e04:	612f6363 			; <UNDEFINED> instruction: 0x612f6363
    1e08:	6e2d6d72 	mcrvs	13, 1, r6, cr13, cr2, {3}
    1e0c:	2d656e6f 	stclcs	14, cr6, [r5, #-444]!	; 0xfffffe44
    1e10:	69626165 	stmdbvs	r2!, {r0, r2, r5, r6, r8, sp, lr}^
    1e14:	2e30312f 	rsfcssp	f3, f0, #10.0
    1e18:	2f312e33 	svccs	0x00312e33
    1e1c:	6c636e69 	stclvs	14, cr6, [r3], #-420	; 0xfffffe5c
    1e20:	00656475 	rsbeq	r6, r5, r5, ror r4
    1e24:	72617500 	rsbvc	r7, r1, #0, 10
    1e28:	00632e74 	rsbeq	r2, r3, r4, ror lr
    1e2c:	75000000 	strvc	r0, [r0, #-0]
    1e30:	2e747261 	cdpcs	2, 7, cr7, cr4, cr1, {3}
    1e34:	00010068 	andeq	r0, r1, r8, rrx
    1e38:	69707200 	ldmdbvs	r0!, {r9, ip, sp, lr}^
    1e3c:	0100682e 	tsteq	r0, lr, lsr #16
    1e40:	70670000 	rsbvc	r0, r7, r0
    1e44:	682e6f69 	stmdavs	lr!, {r0, r3, r5, r6, r8, r9, sl, fp, sp, lr}
    1e48:	00000100 	andeq	r0, r0, r0, lsl #2
    1e4c:	69647473 	stmdbvs	r4!, {r0, r1, r4, r5, r6, sl, ip, sp, lr}^
    1e50:	672d746e 	strvs	r7, [sp, -lr, ror #8]!
    1e54:	682e6363 	stmdavs	lr!, {r0, r1, r5, r6, r8, r9, sp, lr}
    1e58:	00000200 	andeq	r0, r0, r0, lsl #4
    1e5c:	00390500 	eorseq	r0, r9, r0, lsl #10
    1e60:	98bc0205 	ldmls	ip!, {r0, r2, r9}
    1e64:	30030000 	andcc	r0, r3, r0
    1e68:	05010601 	streq	r0, [r1, #-1537]	; 0xfffff9ff
    1e6c:	05670605 	strbeq	r0, [r7, #-1541]!	; 0xfffff9fb
    1e70:	05010611 	streq	r0, [r1, #-1553]	; 0xfffff9ef
    1e74:	01052e05 	tsteq	r5, r5, lsl #28
    1e78:	06380567 	ldrteq	r0, [r8], -r7, ror #10
    1e7c:	05010629 	streq	r0, [r1, #-1577]	; 0xfffff9d7
    1e80:	05670605 	strbeq	r0, [r7, #-1541]!	; 0xfffff9fb
    1e84:	05010611 	streq	r0, [r1, #-1553]	; 0xfffff9ef
    1e88:	01052e05 	tsteq	r5, r5, lsl #28
    1e8c:	06160567 	ldreq	r0, [r6], -r7, ror #10
    1e90:	052e1503 	streq	r1, [lr, #-1283]!	; 0xfffffafd
    1e94:	68673505 	stmdavs	r7!, {r0, r2, r8, sl, ip, sp}^
    1e98:	0c036835 	stceq	8, cr6, [r3], {53}	; 0x35
    1e9c:	696b852e 	stmdbvs	fp!, {r1, r2, r3, r5, r8, sl, pc}^
    1ea0:	660c0369 	strvs	r0, [ip], -r9, ror #6
    1ea4:	05676b13 	strbeq	r6, [r7, #-2835]!	; 0xfffff4ed
    1ea8:	052f0601 	streq	r0, [pc, #-1537]!	; 18af <__code_start__-0x6751>
    1eac:	25080619 	strcs	r0, [r8, #-1561]	; 0xfffff9e7
    1eb0:	05340505 	ldreq	r0, [r4, #-1285]!	; 0xfffffafb
    1eb4:	0501060d 	streq	r0, [r1, #-1549]	; 0xfffff9f3
    1eb8:	19054c01 	stmdbne	r5, {r0, sl, fp, lr}
    1ebc:	05056706 	streq	r6, [r5, #-1798]	; 0xfffff8fa
    1ec0:	060d0536 			; <UNDEFINED> instruction: 0x060d0536
    1ec4:	4a280501 	bmi	a032d0 <__bss_end__+0x9f84f8>
    1ec8:	05300105 	ldreq	r0, [r0, #-261]!	; 0xfffffefb
    1ecc:	05870615 	streq	r0, [r7, #1557]	; 0x615
    1ed0:	052f2f05 	streq	r2, [pc, #-3845]!	; fd3 <__code_start__-0x702d>
    1ed4:	04020009 	streq	r0, [r2], #-9
    1ed8:	0a051301 	beq	146ae4 <__bss_end__+0x13bd0c>
    1edc:	01040200 	mrseq	r0, R12_usr
    1ee0:	000c0511 	andeq	r0, ip, r1, lsl r5
    1ee4:	06010402 	streq	r0, [r1], -r2, lsl #8
    1ee8:	000a0501 	andeq	r0, sl, r1, lsl #10
    1eec:	2e010402 	cdpcs	4, 0, cr0, cr1, cr2, {0}
    1ef0:	4c060505 	cfstr32mi	mvfx0, [r6], {5}
    1ef4:	01060e05 	tsteq	r6, r5, lsl #28
    1ef8:	054a0905 	strbeq	r0, [sl, #-2309]	; 0xfffff6fb
    1efc:	2f2f0605 	svccs	0x002f0605
    1f00:	13060105 	movwne	r0, #24837	; 0x6105
    1f04:	67061c05 	strvs	r1, [r6, -r5, lsl #24]
    1f08:	05050106 	streq	r0, [r5, #-262]	; 0xfffffefa
    1f0c:	052f4b06 	streq	r4, [pc, #-2822]!	; 140e <__code_start__-0x6bf2>
    1f10:	04020009 	streq	r0, [r2], #-9
    1f14:	0a051301 	beq	146b20 <__bss_end__+0x13bd48>
    1f18:	01040200 	mrseq	r0, R12_usr
    1f1c:	000c0511 	andeq	r0, ip, r1, lsl r5
    1f20:	06010402 	streq	r0, [r1], -r2, lsl #8
    1f24:	000a0501 	andeq	r0, sl, r1, lsl #10
    1f28:	2e010402 	cdpcs	4, 0, cr0, cr1, cr2, {0}
    1f2c:	4c060505 	cfstr32mi	mvfx0, [r6], {5}
    1f30:	06010567 	streq	r0, [r1], -r7, ror #10
    1f34:	0619052f 	ldreq	r0, [r9], -pc, lsr #10
    1f38:	2e1b054c 	cfmac32cs	mvfx0, mvfx11, mvfx12
    1f3c:	052e2a05 	streq	r2, [lr, #-2565]!	; 0xfffff5fb
    1f40:	05010631 	streq	r0, [r1, #-1585]	; 0xfffff9cf
    1f44:	1c052e42 	stcne	14, cr2, [r5], {66}	; 0x42
    1f48:	05053106 	streq	r3, [r5, #-262]	; 0xfffffefa
    1f4c:	2e09032f 	cdpcs	3, 0, cr0, cr9, cr15, {1}
    1f50:	01060e05 	tsteq	r6, r5, lsl #28
    1f54:	054a2105 	strbeq	r2, [sl, #-261]	; 0xfffffefb
    1f58:	2e0a0301 	cdpcs	3, 0, cr0, cr10, cr1, {0}
    1f5c:	68061a05 	stmdavs	r6, {r0, r2, r9, fp, ip}
    1f60:	02000905 	andeq	r0, r0, #81920	; 0x14000
    1f64:	05300104 	ldreq	r0, [r0, #-260]!	; 0xfffffefc
    1f68:	0402000a 	streq	r0, [r2], #-10
    1f6c:	0c051101 	stfeqs	f1, [r5], {1}
    1f70:	01040200 	mrseq	r0, R12_usr
    1f74:	0a050106 	beq	142394 <__bss_end__+0x1375bc>
    1f78:	01040200 	mrseq	r0, R12_usr
    1f7c:	0619052e 	ldreq	r0, [r9], -lr, lsr #10
    1f80:	667ee803 	ldrbtvs	lr, [lr], -r3, lsl #16
    1f84:	2f2f0505 	svccs	0x002f0505
    1f88:	0105672f 	tsteq	r5, pc, lsr #14
    1f8c:	04022f06 	streq	r2, [r2], #-3846	; 0xfffff0fa
    1f90:	92010100 	andls	r0, r1, #0
    1f94:	03000003 	movweq	r0, #3
    1f98:	0000b700 	andeq	fp, r0, r0, lsl #14
    1f9c:	fb010200 	blx	427a6 <__bss_end__+0x379ce>
    1fa0:	01000d0e 	tsteq	r0, lr, lsl #26
    1fa4:	00010101 	andeq	r0, r1, r1, lsl #2
    1fa8:	00010000 	andeq	r0, r1, r0
    1fac:	682f0100 	stmdavs	pc!, {r8}	; <UNPREDICTABLE>
    1fb0:	2f656d6f 	svccs	0x00656d6f
    1fb4:	6c676e65 	stclvs	14, cr6, [r7], #-404	; 0xfffffe6c
    1fb8:	632f7265 			; <UNDEFINED> instruction: 0x632f7265
    1fbc:	7373616c 	cmnvc	r3, #27
    1fc0:	3173632f 	cmncc	r3, pc, lsr #6
    1fc4:	2d653034 	stclcs	0, cr3, [r5, #-208]!	; 0xffffff30
    1fc8:	69773232 	ldmdbvs	r7!, {r1, r4, r5, r9, ip, sp}^
    1fcc:	6c2f2f6e 	stcvs	15, cr2, [pc], #-440	; 1e1c <__code_start__-0x61e4>
    1fd0:	69706269 	ldmdbvs	r0!, {r0, r3, r5, r6, r9, sp, lr}^
    1fd4:	636e692f 	cmnvs	lr, #770048	; 0xbc000
    1fd8:	6564756c 	strbvs	r7, [r4, #-1388]!	; 0xfffffa94
    1fdc:	73752f00 	cmnvc	r5, #0, 30
    1fe0:	68732f72 	ldmdavs	r3!, {r1, r4, r5, r6, r8, r9, sl, fp, sp}^
    1fe4:	2f657261 	svccs	0x00657261
    1fe8:	2d636367 	stclcs	3, cr6, [r3, #-412]!	; 0xfffffe64
    1fec:	2d6d7261 	sfmcs	f7, 2, [sp, #-388]!	; 0xfffffe7c
    1ff0:	656e6f6e 	strbvs	r6, [lr, #-3950]!	; 0xfffff092
    1ff4:	6261652d 	rsbvs	r6, r1, #188743680	; 0xb400000
    1ff8:	30312d69 	eorscc	r2, r1, r9, ror #26
    1ffc:	322d332e 	eorcc	r3, sp, #-1207959552	; 0xb8000000
    2000:	2e313230 	mrccs	2, 1, r3, cr1, cr0, {1}
    2004:	6c2f3031 	stcvs	0, cr3, [pc], #-196	; 1f48 <__code_start__-0x60b8>
    2008:	672f6269 	strvs	r6, [pc, -r9, ror #4]!
    200c:	612f6363 			; <UNDEFINED> instruction: 0x612f6363
    2010:	6e2d6d72 	mcrvs	13, 1, r6, cr13, cr2, {3}
    2014:	2d656e6f 	stclcs	14, cr6, [r5, #-444]!	; 0xfffffe44
    2018:	69626165 	stmdbvs	r2!, {r0, r2, r5, r6, r8, sp, lr}^
    201c:	2e30312f 	rsfcssp	f3, f0, #10.0
    2020:	2f312e33 	svccs	0x00312e33
    2024:	6c636e69 	stclvs	14, cr6, [r3], #-420	; 0xfffffe5c
    2028:	00656475 	rsbeq	r6, r5, r5, ror r4
    202c:	616d6b00 	cmnvs	sp, r0, lsl #22
    2030:	636f6c6c 	cmnvs	pc, #108, 24	; 0x6c00
    2034:	0000632e 	andeq	r6, r0, lr, lsr #6
    2038:	70720000 	rsbsvc	r0, r2, r0
    203c:	00682e69 	rsbeq	r2, r8, r9, ror #28
    2040:	73000001 	movwvc	r0, #1
    2044:	6e696474 	mcrvs	4, 3, r6, cr9, cr4, {3}
    2048:	63672d74 	cmnvs	r7, #116, 26	; 0x1d00
    204c:	00682e63 	rsbeq	r2, r8, r3, ror #28
    2050:	00000002 	andeq	r0, r0, r2
    2054:	05001e05 	streq	r1, [r0, #-3589]	; 0xfffff1fb
    2058:	009aac02 	addseq	sl, sl, r2, lsl #24
    205c:	01270300 			; <UNDEFINED> instruction: 0x01270300
    2060:	05012005 	streq	r2, [r1, #-5]
    2064:	0501062d 	streq	r0, [r1, #-1581]	; 0xfffff9d3
    2068:	05830620 	streq	r0, [r3, #1568]	; 0x620
    206c:	35050122 	strcc	r0, [r5, #-290]	; 0xfffffede
    2070:	1e050106 	adfnes	f0, f5, f6
    2074:	20058306 	andcs	r8, r5, r6, lsl #6
    2078:	062d0501 	strteq	r0, [sp], -r1, lsl #10
    207c:	06420501 	strbeq	r0, [r2], -r1, lsl #10
    2080:	05010685 	streq	r0, [r1, #-1669]	; 0xfffff97b
    2084:	144b0605 	strbne	r0, [fp], #-1541	; 0xfffff9fb
    2088:	002e0601 	eoreq	r0, lr, r1, lsl #12
    208c:	06020402 	streq	r0, [r2], -r2, lsl #8
    2090:	0402002e 	streq	r0, [r2], #-46	; 0xffffffd2
    2094:	02000102 	andeq	r0, r0, #-2147483648	; 0x80000000
    2098:	05150204 	ldreq	r0, [r5, #-516]	; 0xfffffdfc
    209c:	0402000d 	streq	r0, [r2], #-13
    20a0:	05010602 	streq	r0, [r1, #-1538]	; 0xfffff9fe
    20a4:	04020007 	streq	r0, [r2], #-7
    20a8:	09054a02 	stmdbeq	r5, {r1, r9, fp, lr}
    20ac:	05054b06 	streq	r4, [r5, #-2822]	; 0xfffff4fa
    20b0:	06170515 			; <UNDEFINED> instruction: 0x06170515
    20b4:	4a100501 	bmi	4034c0 <__bss_end__+0x3f86e8>
    20b8:	2f060505 	svccs	0x00060505
    20bc:	01061b05 	tsteq	r6, r5, lsl #22
    20c0:	052e0e05 	streq	r0, [lr, #-3589]!	; 0xfffff1fb
    20c4:	05052f01 	streq	r2, [r5, #-3841]	; 0xfffff0ff
    20c8:	01040200 	mrseq	r0, R12_usr
    20cc:	4a770306 	bmi	1dc2cec <__bss_end__+0x1db7f14>
    20d0:	01040200 	mrseq	r0, R12_usr
    20d4:	04020001 	streq	r0, [r2], #-1
    20d8:	009e0601 	addseq	r0, lr, r1, lsl #12
    20dc:	2e010402 	cdpcs	4, 0, cr0, cr1, cr2, {0}
    20e0:	01040200 	mrseq	r0, R12_usr
    20e4:	09052e06 	stmdbeq	r5, {r1, r2, r9, sl, fp, sp}
    20e8:	d6060132 			; <UNDEFINED> instruction: 0xd6060132
    20ec:	052e062e 	streq	r0, [lr, #-1582]!	; 0xfffff9d2
    20f0:	0505de19 	streq	sp, [r5, #-3609]	; 0xfffff1e7
    20f4:	0805142f 	stmdaeq	r5, {r0, r1, r2, r3, r5, sl, ip}
    20f8:	07050106 	streq	r0, [r5, -r6, lsl #2]
    20fc:	0609054a 	streq	r0, [r9], -sl, asr #10
    2100:	1305054b 	movwne	r0, #21835	; 0x554b
    2104:	01060c05 	tsteq	r6, r5, lsl #24
    2108:	67060505 	strvs	r0, [r6, -r5, lsl #10]
    210c:	06010513 			; <UNDEFINED> instruction: 0x06010513
    2110:	06090567 	streq	r0, [r9], -r7, ror #10
    2114:	059e012a 	ldreq	r0, [lr, #298]	; 0x12a
    2118:	0106a528 	tsteq	r6, r8, lsr #10
    211c:	4b060505 	blmi	183538 <__bss_end__+0x178760>
    2120:	062e0601 	strteq	r0, [lr], -r1, lsl #12
    2124:	0513012e 	ldreq	r0, [r3, #-302]	; 0xfffffed2
    2128:	01470318 	cmpeq	r7, r8, lsl r3
    212c:	01130505 	tsteq	r3, r5, lsl #10
    2130:	0f060106 	svceq	0x00060106
    2134:	05130115 	ldreq	r0, [r3, #-277]	; 0xfffffeeb
    2138:	0501060e 	streq	r0, [r1, #-1550]	; 0xfffff9f2
    213c:	052e2e16 	streq	r2, [lr, #-3606]!	; 0xfffff1ea
    2140:	39030605 	stmdbcc	r3, {r0, r2, r9, sl}
    2144:	060b0501 	streq	r0, [fp], -r1, lsl #10
    2148:	06050501 	streq	r0, [r5], -r1, lsl #10
    214c:	060a054b 	streq	r0, [sl], -fp, asr #10
    2150:	06050501 	streq	r0, [r5], -r1, lsl #10
    2154:	060d054b 	streq	r0, [sp], -fp, asr #10
    2158:	2e070501 	cfsh32cs	mvfx0, mvfx7, #1
    215c:	054d0105 	strbeq	r0, [sp, #-261]	; 0xfffffefb
    2160:	04020005 	streq	r0, [r2], #-5
    2164:	78030601 	stmdavc	r3, {r0, r9, sl}
    2168:	0402004a 	streq	r0, [r2], #-74	; 0xffffffb6
    216c:	02000101 	andeq	r0, r0, #1073741824	; 0x40000000
    2170:	ba060104 	blt	182588 <__bss_end__+0x1777b0>
    2174:	01040200 	mrseq	r0, R12_usr
    2178:	09052e06 	stmdbeq	r5, {r1, r2, r9, sl, fp, sp}
    217c:	82060134 	andhi	r0, r6, #13
    2180:	052e0666 	streq	r0, [lr, #-1638]!	; 0xfffff99a
    2184:	0106db20 	tsteq	r6, r0, lsr #22
    2188:	4b060505 	blmi	1835a4 <__bss_end__+0x1787cc>
    218c:	04020001 	streq	r0, [r2], #-1
    2190:	02004a02 	andeq	r4, r0, #8192	; 0x2000
    2194:	00010204 	andeq	r0, r1, r4, lsl #4
    2198:	13020402 	movwne	r0, #9218	; 0x2402
    219c:	02001205 	andeq	r1, r0, #1342177280	; 0x50000000
    21a0:	01060204 	tsteq	r6, r4, lsl #4
    21a4:	02040200 	andeq	r0, r4, #0, 4
    21a8:	0402002e 	streq	r0, [r2], #-46	; 0xffffffd2
    21ac:	05052e02 	streq	r2, [r5, #-3586]	; 0xfffff1fe
    21b0:	02040200 	andeq	r0, r4, #0, 4
    21b4:	02002f06 	andeq	r2, r0, #6, 30
    21b8:	05670204 	strbeq	r0, [r7, #-516]!	; 0xfffffdfc
    21bc:	04020001 	streq	r0, [r2], #-1
    21c0:	05130602 	ldreq	r0, [r3, #-1538]	; 0xfffff9fe
    21c4:	04020005 	streq	r0, [r2], #-5
    21c8:	00620601 	rsbeq	r0, r2, r1, lsl #12
    21cc:	01010402 	tsteq	r1, r2, lsl #8
    21d0:	01040200 	mrseq	r0, R12_usr
    21d4:	0200ba06 	andeq	fp, r0, #24576	; 0x6000
    21d8:	2e060104 	adfcss	f0, f6, f4
    21dc:	0a033c05 	beq	d11f8 <__bss_end__+0xc6420>
    21e0:	0501069e 	streq	r0, [r1, #-1694]	; 0xfffff962
    21e4:	014b0605 	cmpeq	fp, r5, lsl #12
    21e8:	2e062e06 	cdpcs	14, 0, cr2, cr6, cr6, {0}
    21ec:	05011301 	streq	r1, [r1, #-769]	; 0xfffffcff
    21f0:	7fad0318 	svcvc	0x00ad0318
    21f4:	13050501 	movwne	r0, #21761	; 0x5501
    21f8:	01061105 	tsteq	r6, r5, lsl #2
    21fc:	0305052e 	movweq	r0, #21806	; 0x552e
    2200:	060100d2 			; <UNDEFINED> instruction: 0x060100d2
    2204:	1805134a 	stmdane	r5, {r1, r3, r6, r8, r9, ip}
    2208:	017fa303 	cmneq	pc, r3, lsl #6
    220c:	05130505 	ldreq	r0, [r3, #-1285]	; 0xfffffafb
    2210:	4a010616 	bmi	43a70 <__bss_end__+0x38c98>
    2214:	03060505 	movweq	r0, #25861	; 0x6505
    2218:	050100e1 	streq	r0, [r1, #-225]	; 0xffffff1f
    221c:	05010612 	streq	r0, [r1, #-1554]	; 0xfffff9ee
    2220:	054b0605 	strbeq	r0, [fp, #-1541]	; 0xfffff9fb
    2224:	7fa90318 	svcvc	0x00a90318
    2228:	13050501 	movwne	r0, #21761	; 0x5501
    222c:	0e180501 	cfmul32eq	mvfx0, mvfx8, mvfx1
    2230:	05130505 	ldreq	r0, [r3, #-1285]	; 0xfffffafb
    2234:	2e010611 	mcrcs	6, 0, r0, cr1, cr1, {0}
    2238:	06150505 	ldreq	r0, [r5], -r5, lsl #10
    223c:	0513014a 	ldreq	r0, [r3, #-330]	; 0xfffffeb6
    2240:	2e01060e 	cfmadd32cs	mvax0, mvfx0, mvfx1, mvfx14
    2244:	2e2e1605 	cfmadda32cs	mvax0, mvax1, mvfx14, mvfx5
    2248:	03060505 	movweq	r0, #25861	; 0x6505
    224c:	010100d6 	ldrdeq	r0, [r1, -r6]
    2250:	9f031805 	svcls	0x00031805
    2254:	0505017f 	streq	r0, [r5, #-383]	; 0xfffffe81
    2258:	06190513 			; <UNDEFINED> instruction: 0x06190513
    225c:	05052e01 	streq	r2, [r5, #-3585]	; 0xfffff1ff
    2260:	0100e003 	tsteq	r0, r3
    2264:	02040200 	andeq	r0, r4, #0, 4
    2268:	02004a06 	andeq	r4, r0, #24576	; 0x6000
    226c:	05140204 	ldreq	r0, [r4, #-516]	; 0xfffffdfc
    2270:	0402000a 	streq	r0, [r2], #-10
    2274:	05010602 	streq	r0, [r1, #-1538]	; 0xfffff9fe
    2278:	04020005 	streq	r0, [r2], #-5
    227c:	054b0602 	strbeq	r0, [fp, #-1538]	; 0xfffff9fe
    2280:	0402000c 	streq	r0, [r2], #-12
    2284:	05010602 	streq	r0, [r1, #-1538]	; 0xfffff9fe
    2288:	04020001 	streq	r0, [r2], #-1
    228c:	05052f02 	streq	r2, [r5, #-3842]	; 0xfffff0fe
    2290:	01040200 	mrseq	r0, R12_usr
    2294:	4a730306 	bmi	1cc2eb4 <__bss_end__+0x1cb80dc>
    2298:	01040200 	mrseq	r0, R12_usr
    229c:	04020001 	streq	r0, [r2], #-1
    22a0:	009e0601 	addseq	r0, lr, r1, lsl #12
    22a4:	2e010402 	cdpcs	4, 0, cr0, cr1, cr2, {0}
    22a8:	01040200 	mrseq	r0, R12_usr
    22ac:	02002e06 	andeq	r2, r0, #96	; 0x60
    22b0:	002f0104 	eoreq	r0, pc, r4, lsl #2
    22b4:	2e010402 	cdpcs	4, 0, cr0, cr1, cr2, {0}
    22b8:	01040200 	mrseq	r0, R12_usr
    22bc:	7fb103d6 	svcvc	0x00b103d6
    22c0:	8206012e 	andhi	r0, r6, #-2147483637	; 0x8000000b
    22c4:	2e062e2e 	cdpcs	14, 0, cr2, cr6, cr14, {1}
    22c8:	02002e06 	andeq	r2, r0, #96	; 0x60
    22cc:	03060104 	movweq	r0, #24836	; 0x6104
    22d0:	000100d7 	ldrdeq	r0, [r1], -r7
    22d4:	2e010402 	cdpcs	4, 0, cr0, cr1, cr2, {0}
    22d8:	01040200 	mrseq	r0, R12_usr
    22dc:	081505d6 	ldmdaeq	r5, {r1, r2, r4, r6, r7, r8, sl}
    22e0:	0117057b 	tsteq	r7, fp, ror r5
    22e4:	05311605 	ldreq	r1, [r1, #-1541]!	; 0xfffff9fb
    22e8:	1d050118 	stfnes	f0, [r5, #-96]	; 0xffffffa0
    22ec:	2b050106 	blcs	14270c <__bss_end__+0x137934>
    22f0:	06190566 	ldreq	r0, [r9], -r6, ror #10
    22f4:	1305054d 	movwne	r0, #21837	; 0x554d
    22f8:	01060c05 	tsteq	r6, r5, lsl #24
    22fc:	054a0705 	strbeq	r0, [sl, #-1797]	; 0xfffff8fb
    2300:	04020025 	streq	r0, [r2], #-37	; 0xffffffdb
    2304:	1e054a01 	vmlane.f32	s8, s10, s2
    2308:	01040200 	mrseq	r0, R12_usr
    230c:	0609054a 	streq	r0, [r9], -sl, asr #10
    2310:	1305054b 	movwne	r0, #21835	; 0x554b
    2314:	01060a05 	tsteq	r6, r5, lsl #20
    2318:	05631905 	strbeq	r1, [r3, #-2309]!	; 0xfffff6fb
    231c:	014c0609 	cmpeq	ip, r9, lsl #12
    2320:	2e069e06 	cdpcs	14, 0, cr9, cr6, cr6, {0}
    2324:	01000a02 	tsteq	r0, r2, lsl #20
    2328:	00028901 	andeq	r8, r2, r1, lsl #18
    232c:	c9000300 	stmdbgt	r0, {r8, r9}
    2330:	02000000 	andeq	r0, r0, #0, 0
    2334:	0d0efb01 	vstreq	d15, [lr, #-4]
    2338:	01010100 	mrseq	r0, (UNDEF: 17)
    233c:	00000001 	andeq	r0, r0, r1
    2340:	01000001 	tsteq	r0, r1
    2344:	72732f2e 	rsbsvc	r2, r3, #184	; 0xb8
    2348:	552f0063 	strpl	r0, [pc, #-99]!	; 22ed <__code_start__-0x5d13>
    234c:	73726573 	cmnvc	r2, #482344960	; 0x1cc00000
    2350:	6c696d2f 	stclvs	13, cr6, [r9], #-188	; 0xffffff44
    2354:	532f7365 			; <UNDEFINED> instruction: 0x532f7365
    2358:	6372756f 	cmnvs	r2, #465567744	; 0x1bc00000
    235c:	73632f65 	cmnvc	r3, #404	; 0x194
    2360:	6c303432 	cfldrsvs	mvf3, [r0], #-200	; 0xffffff38
    2364:	696c2f78 	stmdbvs	ip!, {r3, r4, r5, r6, r8, r9, sl, fp, sp}^
    2368:	2f697062 	svccs	0x00697062
    236c:	6c636e69 	stclvs	14, cr6, [r3], #-420	; 0xfffffe5c
    2370:	00656475 	rsbeq	r6, r5, r5, ror r4
    2374:	74706f2f 	ldrbtvc	r6, [r0], #-3887	; 0xfffff0d1
    2378:	6d6f682f 	stclvs	8, cr6, [pc, #-188]!	; 22c4 <__code_start__-0x5d3c>
    237c:	65726265 	ldrbvs	r6, [r2, #-613]!	; 0xfffffd9b
    2380:	65432f77 	strbvs	r2, [r3, #-3959]	; 0xfffff089
    2384:	72616c6c 	rsbvc	r6, r1, #108, 24	; 0x6c00
    2388:	6d72612f 	ldfvse	f6, [r2, #-188]!	; 0xffffff44
    238c:	6e6f6e2d 	cdpvs	14, 6, cr6, cr15, cr13, {1}
    2390:	61652d65 	cmnvs	r5, r5, ror #26
    2394:	392d6962 	pushcc	{r1, r5, r6, r8, fp, sp, lr}
    2398:	322d392f 	eorcc	r3, sp, #770048	; 0xbc000
    239c:	71393130 	teqvc	r9, r0, lsr r1
    23a0:	73632d34 	cmnvc	r3, #52, 26	; 0xd00
    23a4:	65373031 	ldrvs	r3, [r7, #-49]!	; 0xffffffcf
    23a8:	62696c2f 	rsbvs	r6, r9, #12032	; 0x2f00
    23ac:	6363672f 	cmnvs	r3, #12320768	; 0xbc0000
    23b0:	6d72612f 	ldfvse	f6, [r2, #-188]!	; 0xffffff44
    23b4:	6e6f6e2d 	cdpvs	14, 6, cr6, cr15, cr13, {1}
    23b8:	61652d65 	cmnvs	r5, r5, ror #26
    23bc:	392f6962 	stmdbcc	pc!, {r1, r5, r6, r8, fp, sp, lr}	; <UNPREDICTABLE>
    23c0:	312e322e 			; <UNDEFINED> instruction: 0x312e322e
    23c4:	636e692f 	cmnvs	lr, #770048	; 0xbc000
    23c8:	6564756c 	strbvs	r7, [r4, #-1388]!	; 0xfffffa94
    23cc:	70670000 	rsbvc	r0, r7, r0
    23d0:	632e6f69 			; <UNDEFINED> instruction: 0x632e6f69
    23d4:	00000100 	andeq	r0, r0, r0, lsl #2
    23d8:	2e697072 	mcrcs	0, 3, r7, cr9, cr2, {3}
    23dc:	00020068 	andeq	r0, r2, r8, rrx
    23e0:	64747300 	ldrbtvs	r7, [r4], #-768	; 0xfffffd00
    23e4:	2d746e69 	ldclcs	14, cr6, [r4, #-420]!	; 0xfffffe5c
    23e8:	2e636367 	cdpcs	3, 6, cr6, cr3, cr7, {3}
    23ec:	00030068 	andeq	r0, r3, r8, rrx
    23f0:	69706700 	ldmdbvs	r0!, {r8, r9, sl, sp, lr}^
    23f4:	00682e6f 	rsbeq	r2, r8, pc, ror #28
    23f8:	00000002 	andeq	r0, r0, r2
    23fc:	05003805 	streq	r3, [r0, #-2053]	; 0xfffff7fb
    2400:	009e5c02 	addseq	r5, lr, r2, lsl #24
    2404:	01270300 			; <UNDEFINED> instruction: 0x01270300
    2408:	05130505 	ldreq	r0, [r3, #-1285]	; 0xfffffafb
    240c:	05010607 	streq	r0, [r1, #-1543]	; 0xfffff9f9
    2410:	05490606 	strbeq	r0, [r9, #-1542]	; 0xfffff9fa
    2414:	07051505 	streq	r1, [r5, -r5, lsl #10]
    2418:	38050106 	stmdacc	r5, {r1, r2, r8}
    241c:	4d07052b 	cfstr32mi	mvfx0, [r7, #-172]	; 0xffffff54
    2420:	30060505 	andcc	r0, r6, r5, lsl #10
    2424:	01061805 	tsteq	r6, r5, lsl #16
    2428:	05671c05 	strbeq	r1, [r7, #-3077]!	; 0xfffff3fb
    242c:	18054a0e 	stmdane	r5, {r1, r2, r3, r9, fp, lr}
    2430:	4d12052d 	cfldr32mi	mvfx0, [r2, #-180]	; 0xffffff4c
    2434:	0e052f2e 	cdpeq	15, 0, cr2, cr5, cr14, {1}
    2438:	0605052a 	streq	r0, [r5], -sl, lsr #10
    243c:	0513142f 	ldreq	r1, [r3, #-1071]	; 0xfffffbd1
    2440:	05010607 	streq	r0, [r1, #-1543]	; 0xfffff9f9
    2444:	132f0605 			; <UNDEFINED> instruction: 0x132f0605
    2448:	052e2e06 	streq	r2, [lr, #-3590]!	; 0xfffff1fa
    244c:	05051301 	streq	r1, [r5, #-769]	; 0xfffffcff
    2450:	24052e2d 	strcs	r2, [r5], #-3629	; 0xfffff1d3
    2454:	02050006 	andeq	r0, r5, #6, 0
    2458:	00009ebc 			; <UNDEFINED> instruction: 0x00009ebc
    245c:	13050515 	movwne	r0, #21781	; 0x5515
    2460:	71030605 	tstvc	r3, r5, lsl #12
    2464:	13050501 	movwne	r0, #21761	; 0x5501
    2468:	01060705 	tsteq	r6, r5, lsl #14
    246c:	49060605 	stmdbmi	r6, {r0, r2, r9, sl}
    2470:	14150505 	ldrne	r0, [r5], #-1285	; 0xfffffafb
    2474:	03062405 	movweq	r2, #25605	; 0x6405
    2478:	18050109 	stmdane	r5, {r0, r3, r8}
    247c:	052e7703 	streq	r7, [lr, #-1795]!	; 0xfffff8fd
    2480:	0e05671c 	mcreq	7, 0, r6, cr5, cr12, {0}
    2484:	2d18054a 	cfldr32cs	mvfx0, [r8, #-296]	; 0xfffffed8
    2488:	2e4d1205 	cdpcs	2, 4, cr1, cr13, cr5, {0}
    248c:	2f0f052f 	svccs	0x000f052f
    2490:	05290e05 	streq	r0, [r9, #-3589]!	; 0xfffff1fb
    2494:	142f0605 	strtne	r0, [pc], #-1541	; 249c <__code_start__-0x5b64>
    2498:	06070513 			; <UNDEFINED> instruction: 0x06070513
    249c:	06050501 	streq	r0, [r5], -r1, lsl #10
    24a0:	2e06132f 	cdpcs	3, 0, cr1, cr6, cr15, {1}
    24a4:	05330105 	ldreq	r0, [r3, #-261]!	; 0xfffffefb
    24a8:	052e2905 	streq	r2, [lr, #-2309]!	; 0xfffff6fb
    24ac:	05000627 	streq	r0, [r0, #-1575]	; 0xfffff9d9
    24b0:	009f1402 	addseq	r1, pc, r2, lsl #8
    24b4:	05051a00 	streq	r1, [r5, #-2560]	; 0xfffff600
    24b8:	06270513 			; <UNDEFINED> instruction: 0x06270513
    24bc:	2f180511 	svccs	0x00180511
    24c0:	2e2e0505 	cfsh64cs	mvdx0, mvdx14, #5
    24c4:	0628054a 	strteq	r0, [r8], -sl, asr #10
    24c8:	2c020500 	cfstr32cs	mvfx0, [r2], {-0}
    24cc:	1600009f 			; <UNDEFINED> instruction: 0x1600009f
    24d0:	05130505 	ldreq	r0, [r3, #-1285]	; 0xfffffafb
    24d4:	05110628 	ldreq	r0, [r1, #-1576]	; 0xfffff9d8
    24d8:	05052f18 	streq	r2, [r5, #-3864]	; 0xfffff0e8
    24dc:	054a2e2e 	strbeq	r2, [sl, #-3630]	; 0xfffff1d2
    24e0:	05000623 	streq	r0, [r0, #-1571]	; 0xfffff9dd
    24e4:	009f4402 	addseq	r4, pc, r2, lsl #8
    24e8:	05051600 	streq	r1, [r5, #-1536]	; 0xfffffa00
    24ec:	03060513 	movweq	r0, #25875	; 0x6513
    24f0:	05050162 	streq	r0, [r5, #-354]	; 0xfffffe9e
    24f4:	06070513 			; <UNDEFINED> instruction: 0x06070513
    24f8:	06060501 	streq	r0, [r6], -r1, lsl #10
    24fc:	15050549 	strne	r0, [r5, #-1353]	; 0xfffffab7
    2500:	23051314 	movwcs	r1, #21268	; 0x5314
    2504:	01170306 	tsteq	r7, r6, lsl #6
    2508:	69032205 	stmdbvs	r3, {r0, r2, r9, sp}
    250c:	821c052e 	andshi	r0, ip, #192937984	; 0xb800000
    2510:	2e0e052e 	cfsh32cs	mvfx0, mvfx14, #30
    2514:	30060505 	andcc	r0, r6, r5, lsl #10
    2518:	01061205 	tsteq	r6, r5, lsl #4
    251c:	05052d4b 	streq	r2, [r5, #-3403]	; 0xfffff2b5
    2520:	13132f06 	tstne	r3, #6, 30
    2524:	03061805 	movweq	r1, #26629	; 0x6805
    2528:	0e05017a 	mcreq	1, 0, r0, cr5, cr10, {3}
    252c:	3405054a 	strcc	r0, [r5], #-1354	; 0xfffffab6
    2530:	0301052e 	movweq	r0, #5422	; 0x152e
    2534:	05052e14 	streq	r2, [r5, #-3604]	; 0xfffff1ec
    2538:	2e2e6c03 	cdpcs	12, 2, cr6, cr14, cr3, {0}
    253c:	00062b05 	andeq	r2, r6, r5, lsl #22
    2540:	9f9c0205 	svcls	0x009c0205
    2544:	17030000 	strne	r0, [r3, -r0]
    2548:	13050501 	movwne	r0, #21761	; 0x5501
    254c:	01060705 	tsteq	r6, r5, lsl #14
    2550:	71031805 	tstvc	r3, r5, lsl #16
    2554:	032b052e 			; <UNDEFINED> instruction: 0x032b052e
    2558:	07052e0e 	streq	r2, [r5, -lr, lsl #28]
    255c:	0609052f 	streq	r0, [r9], -pc, lsr #10
    2560:	030d052f 	movweq	r0, #54575	; 0xd52f
    2564:	0505016f 	streq	r0, [r5, #-367]	; 0xfffffe91
    2568:	2e2e0613 	mcrcs	6, 1, r0, cr14, cr3, {0}
    256c:	0609052e 	streq	r0, [r9], -lr, lsr #10
    2570:	05011203 	streq	r1, [r1, #-515]	; 0xfffffdfd
    2574:	0172030d 	cmneq	r2, sp, lsl #6
    2578:	06130505 	ldreq	r0, [r3], -r5, lsl #10
    257c:	1d052e2e 	stcne	14, cr2, [r5, #-184]	; 0xffffff48
    2580:	66100306 	ldrvs	r0, [r0], -r6, lsl #6
    2584:	05130505 	ldreq	r0, [r3, #-1285]	; 0xfffffafb
    2588:	2e11061d 	mrccs	6, 0, r0, cr1, cr13, {0}
    258c:	30060505 	andcc	r0, r6, r5, lsl #10
    2590:	060e0513 			; <UNDEFINED> instruction: 0x060e0513
    2594:	30170510 	andscc	r0, r7, r0, lsl r5
    2598:	0502042e 	streq	r0, [r2, #-1070]	; 0xfffffbd2
    259c:	dd030630 	stcle	6, cr0, [r3, #-192]	; 0xffffff40
    25a0:	01042e00 	tsteq	r4, r0, lsl #28
    25a4:	03060e05 	movweq	r0, #28165	; 0x6e05
    25a8:	05017fa2 	streq	r7, [r1, #-4002]	; 0xfffff05e
    25ac:	01052f23 	tsteq	r5, r3, lsr #30
    25b0:	0006022f 	andeq	r0, r6, pc, lsr #4
    25b4:	009e0101 	addseq	r0, lr, r1, lsl #2
    25b8:	00030000 	andeq	r0, r3, r0
    25bc:	0000005a 	andeq	r0, r0, sl, asr r0
    25c0:	0efb0102 	cdpeq	1, 15, cr0, cr11, cr2, {0}
    25c4:	0101000d 	tsteq	r1, sp
    25c8:	00000101 	andeq	r0, r0, r1, lsl #2
    25cc:	00000100 	andeq	r0, r0, r0, lsl #2
    25d0:	6c2f2e01 	stcvs	14, cr2, [pc], #-4	; 25d4 <__code_start__-0x5a2c>
    25d4:	00636269 	rsbeq	r6, r3, r9, ror #4
    25d8:	6573552f 	ldrbvs	r5, [r3, #-1327]!	; 0xfffffad1
    25dc:	6d2f7372 	stcvs	3, cr7, [pc, #-456]!	; 241c <__code_start__-0x5be4>
    25e0:	73656c69 	cmnvc	r5, #26880	; 0x6900
    25e4:	756f532f 	strbvc	r5, [pc, #-815]!	; 22bd <__code_start__-0x5d43>
    25e8:	2f656372 	svccs	0x00656372
    25ec:	34327363 	ldrtcc	r7, [r2], #-867	; 0xfffffc9d
    25f0:	2f786c30 	svccs	0x00786c30
    25f4:	7062696c 	rsbvc	r6, r2, ip, ror #18
    25f8:	6e692f69 	cdpvs	15, 6, cr2, cr9, cr9, {3}
    25fc:	64756c63 	ldrbtvs	r6, [r5], #-3171	; 0xfffff39d
    2600:	70000065 	andvc	r0, r0, r5, rrx
    2604:	68637475 	stmdavs	r3!, {r0, r2, r4, r5, r6, sl, ip, sp, lr}^
    2608:	632e7261 			; <UNDEFINED> instruction: 0x632e7261
    260c:	00000100 	andeq	r0, r0, r0, lsl #2
    2610:	2e697072 	mcrcs	0, 3, r7, cr9, cr2, {3}
    2614:	00020068 	andeq	r0, r2, r8, rrx
    2618:	24050000 	strcs	r0, [r5], #-0
    261c:	f4020500 	vst3.8	{d0,d2,d4}, [r2], r0
    2620:	1400009f 	strne	r0, [r0], #-159	; 0xffffff61
    2624:	05012605 	streq	r2, [r1, #-1541]	; 0xfffff9fb
    2628:	2e010624 	cfmadd32cs	mvax1, mvfx0, mvfx1, mvfx4
    262c:	052e2605 	streq	r2, [lr, #-1541]!	; 0xfffff9fb
    2630:	052e0634 	streq	r0, [lr, #-1588]!	; 0xfffff9cc
    2634:	05010601 	streq	r0, [r1, #-1537]	; 0xfffff9ff
    2638:	054f061b 	strbeq	r0, [pc, #-1563]	; 2025 <__code_start__-0x5fdb>
    263c:	11051305 	tstne	r5, r5, lsl #6
    2640:	01050106 	tsteq	r5, r6, lsl #2
    2644:	06230567 	strteq	r0, [r3], -r7, ror #10
    2648:	13050567 	movwne	r0, #21863	; 0x5567
    264c:	01061105 	tsteq	r6, r5, lsl #2
    2650:	024b0105 	subeq	r0, fp, #1073741825	; 0x40000001
    2654:	01010004 	tsteq	r1, r4
    2658:	000000e2 	andeq	r0, r0, r2, ror #1
    265c:	00590003 	subseq	r0, r9, r3
    2660:	01020000 	mrseq	r0, (UNDEF: 2)
    2664:	000d0efb 	strdeq	r0, [sp], -fp
    2668:	01010101 	tsteq	r1, r1, lsl #2
    266c:	01000000 	mrseq	r0, (UNDEF: 0)
    2670:	2e010000 	cdpcs	0, 0, cr0, cr1, cr0, {0}
    2674:	62696c2f 	rsbvs	r6, r9, #12032	; 0x2f00
    2678:	552f0063 	strpl	r0, [pc, #-99]!	; 261d <__code_start__-0x59e3>
    267c:	73726573 	cmnvc	r2, #482344960	; 0x1cc00000
    2680:	6c696d2f 	stclvs	13, cr6, [r9], #-188	; 0xffffff44
    2684:	532f7365 			; <UNDEFINED> instruction: 0x532f7365
    2688:	6372756f 	cmnvs	r2, #465567744	; 0x1bc00000
    268c:	73632f65 	cmnvc	r3, #404	; 0x194
    2690:	6c303432 	cfldrsvs	mvf3, [r0], #-200	; 0xffffff38
    2694:	696c2f78 	stmdbvs	ip!, {r3, r4, r5, r6, r8, r9, sl, fp, sp}^
    2698:	2f697062 	svccs	0x00697062
    269c:	6c636e69 	stclvs	14, cr6, [r3], #-420	; 0xfffffe5c
    26a0:	00656475 	rsbeq	r6, r5, r5, ror r4
    26a4:	72747300 	rsbsvc	r7, r4, #0, 6
    26a8:	2e746163 	rpwcssz	f6, f4, f3
    26ac:	00010063 	andeq	r0, r1, r3, rrx
    26b0:	69707200 	ldmdbvs	r0!, {r9, ip, sp, lr}^
    26b4:	0200682e 	andeq	r6, r0, #3014656	; 0x2e0000
    26b8:	05000000 	streq	r0, [r0, #-0]
    26bc:	0205002c 	andeq	r0, r5, #44, 0	; 0x2c
    26c0:	0000a030 	andeq	sl, r0, r0, lsr r0
    26c4:	13050515 	movwne	r0, #21781	; 0x5515
    26c8:	060b0513 			; <UNDEFINED> instruction: 0x060b0513
    26cc:	00050511 	andeq	r0, r5, r1, lsl r5
    26d0:	06010402 	streq	r0, [r1], -r2, lsl #8
    26d4:	04020030 	streq	r0, [r2], #-48	; 0xffffffd0
    26d8:	09051501 	stmdbeq	r5, {r0, r8, sl, ip}
    26dc:	01040200 	mrseq	r0, R12_usr
    26e0:	000b0513 	andeq	r0, fp, r3, lsl r5
    26e4:	2f010402 	svccs	0x00010402
    26e8:	02000505 	andeq	r0, r0, #20971520	; 0x1400000
    26ec:	01060104 	tsteq	r6, r4, lsl #2
    26f0:	01040200 	mrseq	r0, R12_usr
    26f4:	054e062e 	strbeq	r0, [lr, #-1582]	; 0xfffff9d2
    26f8:	05010608 	streq	r0, [r1, #-1544]	; 0xfffff9f8
    26fc:	04020005 	streq	r0, [r2], #-5
    2700:	052f0601 	streq	r0, [pc, #-1537]!	; 2107 <__code_start__-0x5ef9>
    2704:	04020009 	streq	r0, [r2], #-9
    2708:	0b051301 	bleq	147314 <__bss_end__+0x13c53c>
    270c:	01040200 	mrseq	r0, R12_usr
    2710:	09050106 	stmdbeq	r5, {r1, r2, r8}
    2714:	01040200 	mrseq	r0, R12_usr
    2718:	05052f06 	streq	r2, [r5, #-3846]	; 0xfffff0fa
    271c:	01040200 	mrseq	r0, R12_usr
    2720:	0f051306 	svceq	0x00051306
    2724:	01040200 	mrseq	r0, R12_usr
    2728:	000d052d 	andeq	r0, sp, sp, lsr #10
    272c:	06010402 	streq	r0, [r1], -r2, lsl #8
    2730:	0005052f 	andeq	r0, r5, pc, lsr #10
    2734:	06010402 	streq	r0, [r1], -r2, lsl #8
    2738:	00040201 	andeq	r0, r4, r1, lsl #4
    273c:	00b20101 	adcseq	r0, r2, r1, lsl #2
    2740:	00030000 	andeq	r0, r3, r0
    2744:	00000059 	andeq	r0, r0, r9, asr r0
    2748:	0efb0102 	cdpeq	1, 15, cr0, cr11, cr2, {0}
    274c:	0101000d 	tsteq	r1, sp
    2750:	00000101 	andeq	r0, r0, r1, lsl #2
    2754:	00000100 	andeq	r0, r0, r0, lsl #2
    2758:	6c2f2e01 	stcvs	14, cr2, [pc], #-4	; 275c <__code_start__-0x58a4>
    275c:	00636269 	rsbeq	r6, r3, r9, ror #4
    2760:	6573552f 	ldrbvs	r5, [r3, #-1327]!	; 0xfffffad1
    2764:	6d2f7372 	stcvs	3, cr7, [pc, #-456]!	; 25a4 <__code_start__-0x5a5c>
    2768:	73656c69 	cmnvc	r5, #26880	; 0x6900
    276c:	756f532f 	strbvc	r5, [pc, #-815]!	; 2445 <__code_start__-0x5bbb>
    2770:	2f656372 	svccs	0x00656372
    2774:	34327363 	ldrtcc	r7, [r2], #-867	; 0xfffffc9d
    2778:	2f786c30 	svccs	0x00786c30
    277c:	7062696c 	rsbvc	r6, r2, ip, ror #18
    2780:	6e692f69 	cdpvs	15, 6, cr2, cr9, cr9, {3}
    2784:	64756c63 	ldrbtvs	r6, [r5], #-3171	; 0xfffff39d
    2788:	73000065 	movwvc	r0, #101	; 0x65
    278c:	6d637274 	sfmvs	f7, 2, [r3, #-464]!	; 0xfffffe30
    2790:	00632e70 	rsbeq	r2, r3, r0, ror lr
    2794:	72000001 	andvc	r0, r0, #1, 0
    2798:	682e6970 	stmdavs	lr!, {r4, r5, r6, r8, fp, sp, lr}
    279c:	00000200 	andeq	r0, r0, r0, lsl #4
    27a0:	002a0500 	eoreq	r0, sl, r0, lsl #10
    27a4:	a05c0205 	subsge	r0, ip, r5, lsl #4
    27a8:	05140000 	ldreq	r0, [r4, #-0]
    27ac:	10051309 	andne	r1, r5, r9, lsl #6
    27b0:	0f050106 	svceq	0x00050106
    27b4:	10052e06 	andne	r2, r5, r6, lsl #28
    27b8:	0f058206 	svceq	0x00058206
    27bc:	0011052e 	andseq	r0, r1, lr, lsr #10
    27c0:	06010402 	streq	r0, [r1], -r2, lsl #8
    27c4:	001c054b 	andseq	r0, ip, fp, asr #10
    27c8:	06010402 	streq	r0, [r1], -r2, lsl #8
    27cc:	000f052d 	andeq	r0, pc, sp, lsr #10
    27d0:	06010402 	streq	r0, [r1], -r2, lsl #8
    27d4:	0013052e 	andseq	r0, r3, lr, lsr #10
    27d8:	06010402 	streq	r0, [r1], -r2, lsl #8
    27dc:	06090501 	streq	r0, [r9], -r1, lsl #10
    27e0:	0601054c 	streq	r0, [r1], -ip, asr #10
    27e4:	09054a13 	stmdbeq	r5, {r0, r1, r4, r9, fp, lr}
    27e8:	01052d06 	tsteq	r5, r6, lsl #26
    27ec:	022e1306 	eoreq	r1, lr, #402653184	; 0x18000000
    27f0:	01010002 	tsteq	r1, r2
    27f4:	0000009d 	muleq	r0, sp, r0
    27f8:	00590003 	subseq	r0, r9, r3
    27fc:	01020000 	mrseq	r0, (UNDEF: 2)
    2800:	000d0efb 	strdeq	r0, [sp], -fp
    2804:	01010101 	tsteq	r1, r1, lsl #2
    2808:	01000000 	mrseq	r0, (UNDEF: 0)
    280c:	2e010000 	cdpcs	0, 0, cr0, cr1, cr0, {0}
    2810:	62696c2f 	rsbvs	r6, r9, #12032	; 0x2f00
    2814:	552f0063 	strpl	r0, [pc, #-99]!	; 27b9 <__code_start__-0x5847>
    2818:	73726573 	cmnvc	r2, #482344960	; 0x1cc00000
    281c:	6c696d2f 	stclvs	13, cr6, [r9], #-188	; 0xffffff44
    2820:	532f7365 			; <UNDEFINED> instruction: 0x532f7365
    2824:	6372756f 	cmnvs	r2, #465567744	; 0x1bc00000
    2828:	73632f65 	cmnvc	r3, #404	; 0x194
    282c:	6c303432 	cfldrsvs	mvf3, [r0], #-200	; 0xffffff38
    2830:	696c2f78 	stmdbvs	ip!, {r3, r4, r5, r6, r8, r9, sl, fp, sp}^
    2834:	2f697062 	svccs	0x00697062
    2838:	6c636e69 	stclvs	14, cr6, [r3], #-420	; 0xfffffe5c
    283c:	00656475 	rsbeq	r6, r5, r5, ror r4
    2840:	72747300 	rsbsvc	r7, r4, #0, 6
    2844:	2e797063 	cdpcs	0, 7, cr7, cr9, cr3, {3}
    2848:	00010063 	andeq	r0, r1, r3, rrx
    284c:	69707200 	ldmdbvs	r0!, {r9, ip, sp, lr}^
    2850:	0200682e 	andeq	r6, r0, #3014656	; 0x2e0000
    2854:	05000000 	streq	r0, [r0, #-0]
    2858:	0205002a 	andeq	r0, r5, #42, 0	; 0x2a
    285c:	0000a0a0 	andeq	sl, r0, r0, lsr #1
    2860:	13050514 	movwne	r0, #21780	; 0x5514
    2864:	00220513 	eoreq	r0, r2, r3, lsl r5
    2868:	2e010402 	cdpcs	4, 0, cr0, cr1, cr2, {0}
    286c:	02000b05 	andeq	r0, r0, #5120	; 0x1400
    2870:	05010104 	streq	r0, [r1, #-260]	; 0xfffffefc
    2874:	04020015 	streq	r0, [r2], #-21	; 0xffffffeb
    2878:	05010601 	streq	r0, [r1, #-1537]	; 0xfffff9ff
    287c:	0402000b 	streq	r0, [r2], #-11
    2880:	13052e01 	movwne	r2, #24065	; 0x5e01
    2884:	01040200 	mrseq	r0, R12_usr
    2888:	000b052e 	andeq	r0, fp, lr, lsr #10
    288c:	2e010402 	cdpcs	4, 0, cr0, cr1, cr2, {0}
    2890:	01000402 	tsteq	r0, r2, lsl #8
    2894:	0000fd01 	andeq	pc, r0, r1, lsl #26
    2898:	bf000300 	svclt	0x00000300
    289c:	02000000 	andeq	r0, r0, #0, 0
    28a0:	0d0efb01 	vstreq	d15, [lr, #-4]
    28a4:	01010100 	mrseq	r0, (UNDEF: 17)
    28a8:	00000001 	andeq	r0, r0, r1
    28ac:	01000001 	tsteq	r0, r1
    28b0:	696c2f2e 	stmdbvs	ip!, {r1, r2, r3, r5, r8, r9, sl, fp, sp}^
    28b4:	2f006362 	svccs	0x00006362
    28b8:	72657355 	rsbvc	r7, r5, #1409286145	; 0x54000001
    28bc:	696d2f73 	stmdbvs	sp!, {r0, r1, r4, r5, r6, r8, r9, sl, fp, sp}^
    28c0:	2f73656c 	svccs	0x0073656c
    28c4:	72756f53 	rsbsvc	r6, r5, #332	; 0x14c
    28c8:	632f6563 			; <UNDEFINED> instruction: 0x632f6563
    28cc:	30343273 	eorscc	r3, r4, r3, ror r2
    28d0:	6c2f786c 	stcvs	8, cr7, [pc], #-432	; 2728 <__code_start__-0x58d8>
    28d4:	69706269 	ldmdbvs	r0!, {r0, r3, r5, r6, r9, sp, lr}^
    28d8:	636e692f 	cmnvs	lr, #770048	; 0xbc000
    28dc:	6564756c 	strbvs	r7, [r4, #-1388]!	; 0xfffffa94
    28e0:	706f2f00 	rsbvc	r2, pc, r0, lsl #30
    28e4:	6f682f74 	svcvs	0x00682f74
    28e8:	7262656d 	rsbvc	r6, r2, #457179136	; 0x1b400000
    28ec:	432f7765 			; <UNDEFINED> instruction: 0x432f7765
    28f0:	616c6c65 	cmnvs	ip, r5, ror #24
    28f4:	72612f72 	rsbvc	r2, r1, #456	; 0x1c8
    28f8:	6f6e2d6d 	svcvs	0x006e2d6d
    28fc:	652d656e 	strvs	r6, [sp, #-1390]!	; 0xfffffa92
    2900:	2d696261 	sfmcs	f6, 2, [r9, #-388]!	; 0xfffffe7c
    2904:	2d392f39 	ldccs	15, cr2, [r9, #-228]!	; 0xffffff1c
    2908:	39313032 	ldmdbcc	r1!, {r1, r4, r5, ip, sp}
    290c:	632d3471 			; <UNDEFINED> instruction: 0x632d3471
    2910:	37303173 			; <UNDEFINED> instruction: 0x37303173
    2914:	696c2f65 	stmdbvs	ip!, {r0, r2, r5, r6, r8, r9, sl, fp, sp}^
    2918:	63672f62 	cmnvs	r7, #392	; 0x188
    291c:	72612f63 	rsbvc	r2, r1, #396	; 0x18c
    2920:	6f6e2d6d 	svcvs	0x006e2d6d
    2924:	652d656e 	strvs	r6, [sp, #-1390]!	; 0xfffffa92
    2928:	2f696261 	svccs	0x00696261
    292c:	2e322e39 	mrccs	14, 1, r2, cr2, cr9, {1}
    2930:	6e692f31 	mcrvs	15, 3, r2, cr9, cr1, {1}
    2934:	64756c63 	ldrbtvs	r6, [r5], #-3171	; 0xfffff39d
    2938:	73000065 	movwvc	r0, #101	; 0x65
    293c:	636e7274 	cmnvs	lr, #116, 4	; 0x40000007
    2940:	632e706d 			; <UNDEFINED> instruction: 0x632e706d
    2944:	00000100 	andeq	r0, r0, r0, lsl #2
    2948:	2e697072 	mcrcs	0, 3, r7, cr9, cr2, {3}
    294c:	00020068 	andeq	r0, r2, r8, rrx
    2950:	64747300 	ldrbtvs	r7, [r4], #-768	; 0xfffffd00
    2954:	2e666564 	cdpcs	5, 6, cr6, cr6, cr4, {3}
    2958:	00030068 	andeq	r0, r3, r8, rrx
    295c:	39050000 	stmdbcc	r5, {}	; <UNPREDICTABLE>
    2960:	b8020500 	stmdalt	r2, {r8, sl}
    2964:	150000a0 	strne	r0, [r0, #-160]	; 0xffffff60
    2968:	13130505 	tstne	r3, #20971520	; 0x1400000
    296c:	2e060a05 	vmlacs.f32	s0, s12, s10
    2970:	052f0c05 	streq	r0, [pc, #-3077]!	; 1d73 <__code_start__-0x628d>
    2974:	0b052e13 	bleq	14e1c8 <__bss_end__+0x1433f0>
    2978:	0609052e 	streq	r0, [r9], -lr, lsr #10
    297c:	110a054a 	tstne	sl, sl, asr #10
    2980:	0c050106 	stfeqs	f0, [r5], {6}
    2984:	2f01054e 	svccs	0x0001054e
    2988:	2b060d05 	blcs	185da4 <__bss_end__+0x17afcc>
    298c:	01061b05 	tsteq	r6, r5, lsl #22
    2990:	0002022e 	andeq	r0, r2, lr, lsr #4
    2994:	008a0101 	addeq	r0, sl, r1, lsl #2
    2998:	00030000 	andeq	r0, r3, r0
    299c:	0000006e 	andeq	r0, r0, lr, rrx
    29a0:	0efb0102 	cdpeq	1, 15, cr0, cr11, cr2, {0}
    29a4:	0101000d 	tsteq	r1, sp
    29a8:	00000101 	andeq	r0, r0, r1, lsl #2
    29ac:	00000100 	andeq	r0, r0, r0, lsl #2
    29b0:	732f2e01 			; <UNDEFINED> instruction: 0x732f2e01
    29b4:	66666174 			; <UNDEFINED> instruction: 0x66666174
    29b8:	6372732d 	cmnvs	r2, #-1275068416	; 0xb4000000
    29bc:	73552f00 	cmpvc	r5, #0, 30
    29c0:	2f737265 	svccs	0x00737265
    29c4:	656c696d 	strbvs	r6, [ip, #-2413]!	; 0xfffff693
    29c8:	6f532f73 	svcvs	0x00532f73
    29cc:	65637275 	strbvs	r7, [r3, #-629]!	; 0xfffffd8b
    29d0:	3273632f 	rsbscc	r6, r3, #-1140850688	; 0xbc000000
    29d4:	786c3034 	stmdavc	ip!, {r2, r4, r5, ip, sp}^
    29d8:	62696c2f 	rsbvs	r6, r9, #12032	; 0x2f00
    29dc:	692f6970 	stmdbvs	pc!, {r4, r5, r6, r8, fp, sp, lr}	; <UNPREDICTABLE>
    29e0:	756c636e 	strbvc	r6, [ip, #-878]!	; 0xfffffc92
    29e4:	00006564 	andeq	r6, r0, r4, ror #10
    29e8:	61666564 	cmnvs	r6, r4, ror #10
    29ec:	2d746c75 	ldclcs	12, cr6, [r4, #-468]!	; 0xfffffe2c
    29f0:	6f626572 	svcvs	0x00626572
    29f4:	632d746f 			; <UNDEFINED> instruction: 0x632d746f
    29f8:	6f6c6c61 	svcvs	0x006c6c61
    29fc:	632e7475 			; <UNDEFINED> instruction: 0x632e7475
    2a00:	00000100 	andeq	r0, r0, r0, lsl #2
    2a04:	2e697072 	mcrcs	0, 3, r7, cr9, cr2, {3}
    2a08:	00020068 	andeq	r0, r2, r8, rrx
    2a0c:	1b050000 	blne	142a14 <__bss_end__+0x137c3c>
    2a10:	e8020500 	stmda	r2, {r8, sl}
    2a14:	140000a0 	strne	r0, [r0], #-160	; 0xffffff60
    2a18:	05011c05 	streq	r1, [r1, #-3077]	; 0xfffff3fb
    2a1c:	02010601 	andeq	r0, r1, #1048576	; 0x100000
    2a20:	01010002 	tsteq	r1, r2

Disassembly of section .debug_str:

00000000 <.debug_str>:
   0:	5f726468 	svcpl	0x00726468
   4:	6c620074 	stclvs	0, cr0, [r2], #-464	; 0xfffffe30
   8:	5f6b636f 	svcpl	0x006b636f
   c:	73006469 	movwvc	r6, #1129	; 0x469
  10:	65746174 	ldrbvs	r6, [r4, #-372]!	; 0xfffffe8c
  14:	66657200 	strbtvs	r7, [r5], -r0, lsl #4
  18:	696d5f73 	stmdbvs	sp!, {r0, r1, r4, r5, r6, r8, r9, sl, fp, ip, lr}^
  1c:	656c6464 	strbvs	r6, [ip, #-1124]!	; 0xfffffb9c
  20:	6f687300 	svcvs	0x00687300
  24:	69207472 	stmdbvs	r0!, {r1, r4, r5, r6, sl, ip, sp, lr}
  28:	7200746e 	andvc	r7, r0, #1845493760	; 0x6e000000
  2c:	705f6970 	subsvc	r6, pc, r0, ror r9	; <UNPREDICTABLE>
  30:	68637475 	stmdavs	r3!, {r0, r2, r4, r5, r6, sl, ip, sp, lr}^
  34:	63007261 	movwvs	r7, #609	; 0x261
  38:	6c6c616b 	stfvse	f6, [ip], #-428	; 0xfffffe54
  3c:	6600636f 	strvs	r6, [r0], -pc, ror #6
  40:	00656c69 	rsbeq	r6, r5, r9, ror #24
  44:	746e6975 	strbtvc	r6, [lr], #-2421	; 0xfffff68b
  48:	00745f38 	rsbseq	r5, r4, r8, lsr pc
  4c:	636e7566 	cmnvs	lr, #427819008	; 0x19800000
  50:	6e6f6c00 	cdpvs	12, 6, cr6, cr15, cr0, {0}
  54:	6f6c2067 	svcvs	0x006c2067
  58:	6920676e 	stmdbvs	r0!, {r1, r2, r3, r5, r6, r8, r9, sl, sp, lr}
  5c:	6300746e 	movwvs	r7, #1134	; 0x46e
  60:	6c625f6b 	stclvs	15, cr5, [r2], #-428	; 0xfffffe54
  64:	64695f6b 	strbtvs	r5, [r9], #-3947	; 0xfffff095
  68:	73657400 	cmnvc	r5, #0, 8
  6c:	322d7374 	eorcc	r7, sp, #116, 6	; 0xd0000001
  70:	702f302e 	eorvc	r3, pc, lr, lsr #32
  74:	32747261 	rsbscc	r7, r4, #268435462	; 0x10000006
  78:	7365742d 	cmnvc	r5, #754974720	; 0x2d000000
  7c:	6e2d3474 	mcrvs	4, 1, r3, cr13, cr4, {3}
  80:	656c2d6f 	strbvs	r2, [ip, #-3439]!	; 0xfffff291
  84:	632e6b61 			; <UNDEFINED> instruction: 0x632e6b61
  88:	5f6b6300 	svcpl	0x006b6300
  8c:	00726468 	rsbseq	r6, r2, r8, ror #8
  90:	55465f5f 	strbpl	r5, [r6, #-3935]	; 0xfffff0a1
  94:	4954434e 	ldmdbmi	r4, {r1, r2, r3, r6, r8, r9, lr}^
  98:	5f5f4e4f 	svcpl	0x005f4e4f
  9c:	6c6c6100 	stfvse	f6, [ip], #-0
  a0:	6c5f636f 	mrrcvs	3, 6, r6, pc, cr15	; <UNPREDICTABLE>
  a4:	6300636f 	movwvs	r6, #879	; 0x36f
  a8:	6e61656c 	cdpvs	5, 6, cr6, cr1, cr12, {3}
  ac:	6265725f 	rsbvs	r7, r5, #-268435451	; 0xf0000005
  b0:	00746f6f 	rsbseq	r6, r4, pc, ror #30
  b4:	20554e47 	subscs	r4, r5, r7, asr #28
  b8:	20393943 	eorscs	r3, r9, r3, asr #18
  bc:	2e322e39 	mrccs	14, 1, r2, cr2, cr9, {1}
  c0:	30322031 	eorscc	r2, r2, r1, lsr r0
  c4:	30313931 	eorscc	r3, r1, r1, lsr r9
  c8:	28203532 	stmdacs	r0!, {r1, r4, r5, r8, sl, ip, sp}
  cc:	656c6572 	strbvs	r6, [ip, #-1394]!	; 0xfffffa8e
  d0:	29657361 	stmdbcs	r5!, {r0, r5, r6, r8, r9, ip, sp, lr}^
  d4:	52415b20 	subpl	r5, r1, #32, 22	; 0x8000
  d8:	72612f4d 	rsbvc	r2, r1, #308	; 0x134
  dc:	2d392d6d 	ldccs	13, cr2, [r9, #-436]!	; 0xfffffe4c
  e0:	6e617262 	cdpvs	2, 6, cr7, cr1, cr2, {3}
  e4:	72206863 	eorvc	r6, r0, #6488064	; 0x630000
  e8:	73697665 	cmnvc	r9, #105906176	; 0x6500000
  ec:	206e6f69 	rsbcs	r6, lr, r9, ror #30
  f0:	35373732 	ldrcc	r3, [r7, #-1842]!	; 0xfffff8ce
  f4:	205d3939 	subscs	r3, sp, r9, lsr r9
  f8:	70636d2d 	rsbvc	r6, r3, sp, lsr #26
  fc:	72613d75 	rsbvc	r3, r1, #7488	; 0x1d40
 100:	3731316d 	ldrcc	r3, [r1, -sp, ror #2]!
 104:	667a6a36 			; <UNDEFINED> instruction: 0x667a6a36
 108:	2d20732d 	stccs	3, cr7, [r0, #-180]!	; 0xffffff4c
 10c:	6e75746d 	cdpvs	4, 7, cr7, cr5, cr13, {3}
 110:	72613d65 	rsbvc	r3, r1, #6464	; 0x1940
 114:	3731316d 	ldrcc	r3, [r1, -sp, ror #2]!
 118:	667a6a36 			; <UNDEFINED> instruction: 0x667a6a36
 11c:	2d20732d 	stccs	3, cr7, [r0, #-180]!	; 0xffffff4c
 120:	6f6c666d 	svcvs	0x006c666d
 124:	612d7461 			; <UNDEFINED> instruction: 0x612d7461
 128:	733d6962 	teqvc	sp, #1605632	; 0x188000
 12c:	2074666f 	rsbscs	r6, r4, pc, ror #12
 130:	72616d2d 	rsbvc	r6, r1, #2880	; 0xb40
 134:	6d2d206d 	stcvs	0, cr2, [sp, #-436]!	; 0xfffffe4c
 138:	68637261 	stmdavs	r3!, {r0, r5, r6, r9, ip, sp, lr}^
 13c:	6d72613d 	ldfvse	f6, [r2, #-244]!	; 0xffffff0c
 140:	7a6b3676 	bvc	1acdb20 <__bss_end__+0x1ac2d48>
 144:	67672d20 	strbvs	r2, [r7, -r0, lsr #26]!
 148:	2d206264 	sfmcs	f6, 4, [r0, #-400]!	; 0xfffffe70
 14c:	732d204f 			; <UNDEFINED> instruction: 0x732d204f
 150:	673d6474 			; <UNDEFINED> instruction: 0x673d6474
 154:	3939756e 	ldmdbcc	r9!, {r1, r2, r3, r5, r6, r8, sl, ip, sp, lr}
 158:	66662d20 	strbtvs	r2, [r6], -r0, lsr #26
 15c:	73656572 	cmnvc	r5, #478150656	; 0x1c800000
 160:	646e6174 	strbtvs	r6, [lr], #-372	; 0xfffffe8c
 164:	00676e69 	rsbeq	r6, r7, r9, ror #28
 168:	765f6b63 	ldrbvc	r6, [pc], -r3, ror #22
 16c:	6f627265 	svcvs	0x00627265
 170:	705f6573 	subsvc	r6, pc, r3, ror r5	; <UNPREDICTABLE>
 174:	736e7500 	cmnvc	lr, #0, 10
 178:	656e6769 	strbvs	r6, [lr, #-1897]!	; 0xfffff897
 17c:	68632064 	stmdavs	r3!, {r2, r5, r6, sp}^
 180:	72007261 	andvc	r7, r0, #268435462	; 0x10000006
 184:	5f736665 	svcpl	0x00736665
 188:	72617473 	rsbvc	r7, r1, #1929379840	; 0x73000000
 18c:	552f0074 	strpl	r0, [pc, #-116]!	; 120 <__code_start__-0x7ee0>
 190:	73726573 	cmnvc	r2, #482344960	; 0x1cc00000
 194:	6c696d2f 	stclvs	13, cr6, [r9], #-188	; 0xffffff44
 198:	532f7365 			; <UNDEFINED> instruction: 0x532f7365
 19c:	6372756f 	cmnvs	r2, #465567744	; 0x1bc00000
 1a0:	73632f65 	cmnvc	r3, #404	; 0x194
 1a4:	6c303432 	cfldrsvs	mvf3, [r0], #-200	; 0xffffff38
 1a8:	616c2f78 	smcvs	49912	; 0xc2f8
 1ac:	352f7362 	strcc	r7, [pc, #-866]!	; fffffe52 <__bss_end__+0xffff507a>
 1b0:	6c616d2d 	stclvs	13, cr6, [r1], #-180	; 0xffffff4c
 1b4:	2b636f6c 	blcs	18dbf6c <__bss_end__+0x18d1194>
 1b8:	632f6367 			; <UNDEFINED> instruction: 0x632f6367
 1bc:	0065646f 	rsbeq	r6, r5, pc, ror #8
 1c0:	63656863 	cmnvs	r5, #6488064	; 0x630000
 1c4:	6f6e5f6b 	svcvs	0x006e5f6b
 1c8:	61656c5f 	cmnvs	r5, pc, asr ip
 1cc:	696c006b 	stmdbvs	ip!, {r0, r1, r3, r5, r6}^
 1d0:	6f6e656e 	svcvs	0x006e656e
 1d4:	6e6f6c00 	cdpvs	12, 6, cr6, cr15, cr0, {0}
 1d8:	6f6c2067 	svcvs	0x006c2067
 1dc:	7520676e 	strvc	r6, [r0, #-1902]!	; 0xfffff892
 1e0:	6769736e 	strbvs	r7, [r9, -lr, ror #6]!
 1e4:	2064656e 	rsbcs	r6, r4, lr, ror #10
 1e8:	00746e69 	rsbseq	r6, r4, r9, ror #28
 1ec:	746e6975 	strbtvc	r6, [lr], #-2421	; 0xfffff68b
 1f0:	745f3233 	ldrbvc	r3, [pc], #-563	; 1f8 <__code_start__-0x7e08>
 1f4:	6e697500 	cdpvs	5, 6, cr7, cr9, cr0, {0}
 1f8:	5f363174 	svcpl	0x00363174
 1fc:	6f6e0074 	svcvs	0x006e0074
 200:	69616d74 	stmdbvs	r1!, {r2, r4, r5, r6, r8, sl, fp, sp, lr}^
 204:	6873006e 	ldmdavs	r3!, {r1, r2, r3, r5, r6}^
 208:	2074726f 	rsbscs	r7, r4, pc, ror #4
 20c:	69736e75 	ldmdbvs	r3!, {r0, r2, r4, r5, r6, r9, sl, fp, sp, lr}^
 210:	64656e67 	strbtvs	r6, [r5], #-3687	; 0xfffff199
 214:	746e6920 	strbtvc	r6, [lr], #-2336	; 0xfffff6e0
 218:	73657400 	cmnvc	r5, #0, 8
 21c:	626e0074 	rsbvs	r0, lr, #116, 0	; 0x74
 220:	73657479 	cmnvc	r5, #2030043136	; 0x79000000
 224:	6c6c615f 	stfvse	f6, [ip], #-380	; 0xfffffe84
 228:	6d00636f 	stcvs	3, cr6, [r0, #-444]	; 0xfffffe44
 22c:	65736d65 	ldrbvs	r6, [r3, #-3429]!	; 0xfffff29b
 230:	72700074 	rsbsvc	r0, r0, #116, 0	; 0x74
 234:	73007665 	movwvc	r7, #1637	; 0x665
 238:	6c5f6372 	mrrcvs	3, 7, r6, pc, cr2	; <UNPREDICTABLE>
 23c:	6d5f636f 	ldclvs	3, cr6, [pc, #-444]	; 88 <__code_start__-0x7f78>
 240:	656e006b 	strbvs	r0, [lr, #-107]!	; 0xffffff95
 244:	73007478 	movwvc	r7, #1144	; 0x478
 248:	6c5f6372 	mrrcvs	3, 7, r6, pc, cr2	; <UNPREDICTABLE>
 24c:	745f636f 	ldrbvc	r6, [pc], #-879	; 254 <__code_start__-0x7dac>
 250:	5f6b6300 	svcpl	0x006b6300
 254:	5f727470 	svcpl	0x00727470
 258:	625f6e69 	subsvs	r6, pc, #1680	; 0x690
 25c:	6b636f6c 	blvs	18dc014 <__bss_end__+0x18d123c>
 260:	45524600 	ldrbmi	r4, [r2, #-1536]	; 0xfffffa00
 264:	52004445 	andpl	r4, r0, #1157627904	; 0x45000000
 268:	4f5a4445 	svcmi	0x005a4445
 26c:	565f454e 	ldrbpl	r4, [pc], -lr, asr #10
 270:	6b004c41 	blvs	1337c <__bss_end__+0x85a4>
 274:	72665f72 	rsbvc	r5, r6, #456	; 0x1c8
 278:	52006565 	andpl	r6, r0, #423624704	; 0x19400000
 27c:	4f5a4445 	svcmi	0x005a4445
 280:	4e5f454e 	cdpmi	5, 5, cr4, cr15, cr14, {2}
 284:	45545942 	ldrbmi	r5, [r4, #-2370]	; 0xfffff6be
 288:	6b630053 	blvs	18c03dc <__bss_end__+0x18b5604>
 28c:	7269665f 	rsbvc	r6, r9, #99614720	; 0x5f00000
 290:	685f7473 	ldmdavs	pc, {r0, r1, r4, r5, r6, sl, ip, sp, lr}^	; <UNPREDICTABLE>
 294:	63007264 	movwvs	r7, #612	; 0x264
 298:	6572666b 	ldrbvs	r6, [r2, #-1643]!	; 0xfffff995
 29c:	6c610065 	stclvs	0, cr0, [r1], #-404	; 0xfffffe6c
 2a0:	5f636f6c 	svcpl	0x00636f6c
 2a4:	7473696c 	ldrbtvc	r6, [r3], #-2412	; 0xfffff694
 2a8:	73696c00 	cmnvc	r9, #0, 24
 2ac:	65725f74 	ldrbvs	r5, [r2, #-3956]!	; 0xfffff08c
 2b0:	65766f6d 	ldrbvs	r6, [r6, #-3949]!	; 0xfffff093
 2b4:	5f6b6300 	svcpl	0x006b6300
 2b8:	5f727470 	svcpl	0x00727470
 2bc:	615f7369 	cmpvs	pc, r9, ror #6
 2c0:	636f6c6c 	cmnvs	pc, #108, 24	; 0x6c00
 2c4:	63006465 	movwvs	r6, #1125	; 0x465
 2c8:	656e5f6b 	strbvs	r5, [lr, #-3947]!	; 0xfffff095
 2cc:	685f7478 	ldmdavs	pc, {r3, r4, r5, r6, sl, ip, sp, lr}^	; <UNPREDICTABLE>
 2d0:	63007264 	movwvs	r7, #612	; 0x264
 2d4:	6c6c616b 	stfvse	f6, [ip], #-428	; 0xfffffe54
 2d8:	632e636f 			; <UNDEFINED> instruction: 0x632e636f
 2dc:	4c4c4100 	stfmie	f4, [ip], {-0}
 2e0:	4445434f 	strbmi	r4, [r5], #-847	; 0xfffffcb1
 2e4:	5f6b6300 	svcpl	0x006b6300
 2e8:	5f726468 	svcpl	0x00726468
 2ec:	72617473 	rsbvc	r7, r1, #1929379840	; 0x73000000
 2f0:	6b630074 	blvs	18c04c8 <__bss_end__+0x18b56f0>
 2f4:	7264685f 	rsbvc	r6, r4, #6225920	; 0x5f0000
 2f8:	646e655f 	strbtvs	r6, [lr], #-1375	; 0xfffffaa1
 2fc:	5f6b6300 	svcpl	0x006b6300
 300:	7479626e 	ldrbtvc	r6, [r9], #-622	; 0xfffffd92
 304:	6b007365 	blvs	1d0a0 <__bss_end__+0x122c8>
 308:	616d5f72 	smcvs	54770	; 0xd5f2
 30c:	636f6c6c 	cmnvs	pc, #108, 24	; 0x6c00
 310:	61656800 	cmnvs	r5, r0, lsl #16
 314:	00726564 	rsbseq	r6, r2, r4, ror #10
 318:	76657270 			; <UNDEFINED> instruction: 0x76657270
 31c:	6c610070 	stclvs	0, cr0, [r1], #-448	; 0xfffffe40
 320:	006e6769 	rsbeq	r6, lr, r9, ror #14
 324:	65657266 	strbvs	r7, [r5, #-614]!	; 0xfffffd9a
 328:	756e0070 	strbvc	r0, [lr, #-112]!	; 0xffffff90
 32c:	7374696e 	cmnvc	r4, #1802240	; 0x1b8000
 330:	2d726b00 	vldmdbcs	r2!, {d22-d21}
 334:	6c6c616d 	stfvse	f6, [ip], #-436	; 0xfffffe4c
 338:	632e636f 			; <UNDEFINED> instruction: 0x632e636f
 33c:	756f6400 	strbvc	r6, [pc, #-1024]!	; ffffff44 <__bss_end__+0xffff516c>
 340:	00656c62 	rsbeq	r6, r5, r2, ror #24
 344:	65736162 	ldrbvs	r6, [r3, #-354]!	; 0xfffffe9e
 348:	72627300 	rsbvc	r7, r2, #0, 6
 34c:	6f6d006b 	svcvs	0x006d006b
 350:	6f636572 	svcvs	0x00636572
 354:	73006572 	movwvc	r6, #1394	; 0x572
 358:	00657a69 	rsbeq	r7, r5, r9, ror #20
 35c:	64616548 	strbtvs	r6, [r1], #-1352	; 0xfffffab8
 360:	73007265 	movwvc	r7, #613	; 0x265
 364:	6b636174 	blvs	18d893c <__bss_end__+0x18cdb64>
 368:	706f745f 	rsbvc	r7, pc, pc, asr r4	; <UNPREDICTABLE>
 36c:	72616d00 	rsbvc	r6, r1, #0, 26
 370:	6c615f6b 	stclvs	15, cr5, [r1], #-428	; 0xfffffe54
 374:	6d69006c 	stclvs	0, cr0, [r9, #-432]!	; 0xfffffe50
 378:	6d656c70 	stclvs	12, cr6, [r5, #-448]!	; 0xfffffe40
 37c:	5f746e65 	svcpl	0x00746e65
 380:	73696874 	cmnvc	r9, #116, 16	; 0x740000
 384:	625f5f00 	subsvs	r5, pc, #0, 30
 388:	735f7373 	cmpvc	pc, #-872415231	; 0xcc000001
 38c:	74726174 	ldrbtvc	r6, [r2], #-372	; 0xfffffe8c
 390:	6e005f5f 	mcrvs	15, 0, r5, cr0, cr15, {2}
 394:	636f6c62 	cmnvs	pc, #25088	; 0x6200
 398:	6900736b 	stmdbvs	r0, {r0, r1, r3, r5, r6, r8, r9, ip, sp, lr}
 39c:	5f74696e 	svcpl	0x0074696e
 3a0:	626e0070 	rsbvs	r0, lr, #112, 0	; 0x70
 3a4:	73657479 	cmnvc	r5, #2030043136	; 0x79000000
 3a8:	6572665f 	ldrbvs	r6, [r2, #-1631]!	; 0xfffff9a1
 3ac:	6f006465 	svcvs	0x00006465
 3b0:	6d5f646c 	cfldrdvs	mvd6, [pc, #-432]	; 208 <__code_start__-0x7df8>
 3b4:	006b7261 	rsbeq	r7, fp, r1, ror #4
 3b8:	665f6b63 	ldrbvs	r6, [pc], -r3, ror #22
 3bc:	5f646e69 	svcpl	0x00646e69
 3c0:	6b61656c 	blvs	1859978 <__bss_end__+0x184eba0>
 3c4:	616d0073 	smcvs	53251	; 0xd003
 3c8:	5f656279 	svcpl	0x00656279
 3cc:	6f727265 	svcvs	0x00727265
 3d0:	63007372 	movwvs	r7, #882	; 0x372
 3d4:	63675f6b 	cmnvs	r7, #428	; 0x1ac
 3d8:	6d756400 	cfldrdvs	mvd6, [r5, #-0]
 3dc:	65725f70 	ldrbvs	r5, [r2, #-3952]!	; 0xfffff090
 3e0:	6e007367 	cdpvs	3, 0, cr7, cr0, cr7, {3}
 3e4:	6b61656c 	blvs	185999c <__bss_end__+0x184ebc4>
 3e8:	6e690073 	mcrvs	0, 3, r0, cr9, cr3, {3}
 3ec:	6d657263 	sfmvs	f7, 2, [r5, #-396]!	; 0xfffffe74
 3f0:	00746e65 	rsbseq	r6, r4, r5, ror #28
 3f4:	61645f5f 	cmnvs	r4, pc, asr pc
 3f8:	655f6174 	ldrbvs	r6, [pc, #-372]	; 28c <__code_start__-0x7d74>
 3fc:	5f5f646e 	svcpl	0x005f646e
 400:	5f736900 	svcpl	0x00736900
 404:	00727470 	rsbseq	r7, r2, r0, ror r4
 408:	6572666e 	ldrbvs	r6, [r2, #-1646]!	; 0xfffff992
 40c:	69006465 	stmdbvs	r0, {r0, r2, r5, r6, sl, sp, lr}
 410:	65685f6e 	strbvs	r5, [r8, #-3950]!	; 0xfffff092
 414:	6f007061 	svcvs	0x00007061
 418:	626d656e 	rsbvs	r6, sp, #461373440	; 0x1b800000
 41c:	2d6b6300 	stclcs	3, cr6, [fp, #-0]
 420:	632e6367 			; <UNDEFINED> instruction: 0x632e6367
 424:	65686300 	strbvs	r6, [r8, #-768]!	; 0xfffffd00
 428:	735f6b63 	cmpvc	pc, #101376	; 0x18c00
 42c:	6c756f68 	ldclvs	15, cr6, [r5], #-416	; 0xfffffe60
 430:	656c5f64 	strbvs	r5, [ip, #-3940]!	; 0xfffff09c
 434:	5f006b61 	svcpl	0x00006b61
 438:	7373625f 	cmnvc	r3, #-268435451	; 0xf0000005
 43c:	646e655f 	strbtvs	r6, [lr], #-1375	; 0xfffffaa1
 440:	6b005f5f 	blvs	181c4 <__bss_end__+0xd3ec>
 444:	6c6c616d 	stfvse	f6, [ip], #-436	; 0xfffffe4c
 448:	6b00636f 	blvs	1920c <__bss_end__+0xe434>
 44c:	6c6c616d 	stfvse	f6, [ip], #-436	; 0xfffffe4c
 450:	695f636f 	ldmdbvs	pc, {r0, r1, r2, r3, r5, r6, r8, r9, sp, lr}^	; <UNPREDICTABLE>
 454:	5f74696e 	svcpl	0x0074696e
 458:	5f746573 	svcpl	0x00746573
 45c:	72617473 	rsbvc	r7, r1, #1929379840	; 0x73000000
 460:	77730074 			; <UNDEFINED> instruction: 0x77730074
 464:	5f706565 	svcpl	0x00706565
 468:	6b61656c 	blvs	1859a20 <__bss_end__+0x184ec48>
 46c:	645f5f00 	ldrbvs	r5, [pc], #-3840	; 474 <__code_start__-0x7b8c>
 470:	5f617461 	svcpl	0x00617461
 474:	72617473 	rsbvc	r7, r1, #1929379840	; 0x73000000
 478:	005f5f74 	subseq	r5, pc, r4, ror pc	; <UNPREDICTABLE>
 47c:	65657773 	strbvs	r7, [r5, #-1907]!	; 0xfffff88d
 480:	72665f70 	rsbvc	r5, r6, #112, 30	; 0x1c0
 484:	77006565 	strvc	r6, [r0, -r5, ror #10]
 488:	5f6e7261 	svcpl	0x006e7261
 48c:	735f6f6e 	cmpvc	pc, #440	; 0x1b8
 490:	74726174 	ldrbtvc	r6, [r2], #-372	; 0xfffffe8c
 494:	6665725f 			; <UNDEFINED> instruction: 0x6665725f
 498:	7300705f 	movwvc	r7, #95	; 0x5f
 49c:	5f657a69 	svcpl	0x00657a69
 4a0:	2f2e0074 	svccs	0x002e0074
 4a4:	6362696c 	cmnvs	r2, #108, 18	; 0x1b0000
 4a8:	6d656d2f 	stclvs	13, cr6, [r5, #-188]!	; 0xffffff44
 4ac:	2e746573 	mrccs	5, 3, r6, cr4, cr3, {3}
 4b0:	4e470063 	cdpmi	0, 4, cr0, cr7, cr3, {3}
 4b4:	39432055 	stmdbcc	r3, {r0, r2, r4, r6, sp}^
 4b8:	2e392039 	mrccs	0, 1, r2, cr9, cr9, {1}
 4bc:	20312e32 	eorscs	r2, r1, r2, lsr lr
 4c0:	39313032 	ldmdbcc	r1!, {r1, r4, r5, ip, sp}
 4c4:	35323031 	ldrcc	r3, [r2, #-49]!	; 0xffffffcf
 4c8:	65722820 	ldrbvs	r2, [r2, #-2080]!	; 0xfffff7e0
 4cc:	7361656c 	cmnvc	r1, #108, 10	; 0x1b000000
 4d0:	5b202965 	blpl	80aa6c <__bss_end__+0x7ffc94>
 4d4:	2f4d5241 	svccs	0x004d5241
 4d8:	2d6d7261 	sfmcs	f7, 2, [sp, #-388]!	; 0xfffffe7c
 4dc:	72622d39 	rsbvc	r2, r2, #3648	; 0xe40
 4e0:	68636e61 	stmdavs	r3!, {r0, r5, r6, r9, sl, fp, sp, lr}^
 4e4:	76657220 	strbtvc	r7, [r5], -r0, lsr #4
 4e8:	6f697369 	svcvs	0x00697369
 4ec:	3732206e 	ldrcc	r2, [r2, -lr, rrx]!
 4f0:	39393537 	ldmdbcc	r9!, {r0, r1, r2, r4, r5, r8, sl, ip, sp}
 4f4:	6d2d205d 	stcvs	0, cr2, [sp, #-372]!	; 0xfffffe8c
 4f8:	3d757063 	ldclcc	0, cr7, [r5, #-396]!	; 0xfffffe74
 4fc:	316d7261 	cmncc	sp, r1, ror #4
 500:	6a363731 	bvs	d8e1cc <__bss_end__+0xd833f4>
 504:	732d667a 			; <UNDEFINED> instruction: 0x732d667a
 508:	746d2d20 	strbtvc	r2, [sp], #-3360	; 0xfffff2e0
 50c:	3d656e75 	stclcc	14, cr6, [r5, #-468]!	; 0xfffffe2c
 510:	316d7261 	cmncc	sp, r1, ror #4
 514:	6a363731 	bvs	d8e1e0 <__bss_end__+0xd83408>
 518:	732d667a 			; <UNDEFINED> instruction: 0x732d667a
 51c:	666d2d20 	strbtvs	r2, [sp], -r0, lsr #26
 520:	74616f6c 	strbtvc	r6, [r1], #-3948	; 0xfffff094
 524:	6962612d 	stmdbvs	r2!, {r0, r2, r3, r5, r8, sp, lr}^
 528:	666f733d 			; <UNDEFINED> instruction: 0x666f733d
 52c:	6d2d2074 	stcvs	0, cr2, [sp, #-464]!	; 0xfffffe30
 530:	206d7261 	rsbcs	r7, sp, r1, ror #4
 534:	72616d2d 	rsbvc	r6, r1, #2880	; 0xb40
 538:	613d6863 	teqvs	sp, r3, ror #16
 53c:	36766d72 			; <UNDEFINED> instruction: 0x36766d72
 540:	2d207a6b 	vstmdbcs	r0!, {s14-s120}
 544:	62646767 	rsbvs	r6, r4, #27000832	; 0x19c0000
 548:	664f2d20 	strbvs	r2, [pc], -r0, lsr #26
 54c:	20747361 	rsbscs	r7, r4, r1, ror #6
 550:	6474732d 	ldrbtvs	r7, [r4], #-813	; 0xfffffcd3
 554:	756e673d 	strbvc	r6, [lr, #-1853]!	; 0xfffff8c3
 558:	2d203939 			; <UNDEFINED> instruction: 0x2d203939
 55c:	65726666 	ldrbvs	r6, [r2, #-1638]!	; 0xfffff99a
 560:	61747365 	cmnvs	r4, r5, ror #6
 564:	6e69646e 	cdpvs	4, 6, cr6, cr9, cr14, {3}
 568:	552f0067 	strpl	r0, [pc, #-103]!	; 509 <__code_start__-0x7af7>
 56c:	73726573 	cmnvc	r2, #482344960	; 0x1cc00000
 570:	6c696d2f 	stclvs	13, cr6, [r9], #-188	; 0xffffff44
 574:	532f7365 			; <UNDEFINED> instruction: 0x532f7365
 578:	6372756f 	cmnvs	r2, #465567744	; 0x1bc00000
 57c:	73632f65 	cmnvc	r3, #404	; 0x194
 580:	6c303432 	cfldrsvs	mvf3, [r0], #-200	; 0xffffff38
 584:	696c2f78 	stmdbvs	ip!, {r3, r4, r5, r6, r8, r9, sl, fp, sp}^
 588:	00697062 	rsbeq	r7, r9, r2, rrx
 58c:	73677261 	cmnvc	r7, #268435462	; 0x10000006
 590:	5f617600 	svcpl	0x00617600
 594:	6e697270 	mcrvs	2, 3, r7, cr9, cr0, {3}
 598:	5f006b74 	svcpl	0x00006b74
 59c:	756e675f 	strbvc	r6, [lr, #-1887]!	; 0xfffff8a1
 5a0:	61765f63 	cmnvs	r6, r3, ror #30
 5a4:	73696c5f 	cmnvc	r9, #24320	; 0x5f00
 5a8:	5f5f0074 	svcpl	0x005f0074
 5ac:	2e007061 	cdpcs	0, 0, cr7, cr0, cr1, {3}
 5b0:	62696c2f 	rsbvs	r6, r9, #12032	; 0x2f00
 5b4:	72702f63 	rsbsvc	r2, r0, #396	; 0x18c
 5b8:	6b746e69 	blvs	1d1bf64 <__bss_end__+0x1d1118c>
 5bc:	5f00632e 	svcpl	0x0000632e
 5c0:	5f61765f 	svcpl	0x0061765f
 5c4:	7473696c 	ldrbtvc	r6, [r3], #-2412	; 0xfffff694
 5c8:	746e6900 	strbtvc	r6, [lr], #-2304	; 0xfffff700
 5cc:	616e7265 	cmnvs	lr, r5, ror #4
 5d0:	75705f6c 	ldrbvc	r5, [r0, #-3948]!	; 0xfffff094
 5d4:	2e006b74 	vmovcs.16	d0[1], r6
 5d8:	62696c2f 	rsbvs	r6, r9, #12032	; 0x2f00
 5dc:	75702f63 	ldrbvc	r2, [r0, #-3939]!	; 0xfffff09d
 5e0:	632e6b74 			; <UNDEFINED> instruction: 0x632e6b74
 5e4:	64736900 	ldrbtvs	r6, [r3], #-2304	; 0xfffff700
 5e8:	74696769 	strbtvc	r6, [r9], #-1897	; 0xfffff897
 5ec:	6e697500 	cdpvs	5, 6, cr7, cr9, cr0, {0}
 5f0:	5f343674 	svcpl	0x00343674
 5f4:	2f2e0074 	svccs	0x002e0074
 5f8:	6362696c 	cmnvs	r2, #108, 18	; 0x1b0000
 5fc:	2d61762f 	stclcs	6, cr7, [r1, #-188]!	; 0xffffff44
 600:	6e697270 	mcrvs	2, 3, r7, cr9, cr0, {3}
 604:	632e6b74 			; <UNDEFINED> instruction: 0x632e6b74
 608:	635f5f00 	cmpvs	pc, #0, 30
 60c:	5f65646f 	svcpl	0x0065646f
 610:	72617473 	rsbvc	r7, r1, #1929379840	; 0x73000000
 614:	005f5f74 	subseq	r5, pc, r4, ror pc	; <UNPREDICTABLE>
 618:	74646977 	strbtvc	r6, [r4], #-2423	; 0xfffff689
 61c:	75700068 	ldrbvc	r0, [r0, #-104]!	; 0xffffff98
 620:	665f6374 			; <UNDEFINED> instruction: 0x665f6374
 624:	5f5f0070 	svcpl	0x005f0070
 628:	70616568 	rsbvc	r6, r1, r8, ror #10
 62c:	6174735f 	cmnvs	r4, pc, asr r3
 630:	5f5f7472 	svcpl	0x005f7472
 634:	69707200 	ldmdbvs	r0!, {r9, ip, sp, lr}^
 638:	7465735f 	strbtvc	r7, [r5], #-863	; 0xfffffca1
 63c:	74756f5f 	ldrbtvc	r6, [r5], #-3935	; 0xfffff0a1
 640:	00747570 	rsbseq	r7, r4, r0, ror r5
 644:	5f746d66 	svcpl	0x00746d66
 648:	72617473 	rsbvc	r7, r1, #1929379840	; 0x73000000
 64c:	74730074 	ldrbtvc	r0, [r3], #-116	; 0xffffff8c
 650:	74616372 	strbtvc	r6, [r1], #-882	; 0xfffffc8e
 654:	72747300 	rsbsvc	r7, r4, #0, 6
 658:	00797063 	rsbseq	r7, r9, r3, rrx
 65c:	5f67656e 	svcpl	0x0067656e
 660:	5f5f0070 	svcpl	0x005f0070
 664:	65646f63 	strbvs	r6, [r4, #-3939]!	; 0xfffff09d
 668:	646e655f 	strbtvs	r6, [lr], #-1375	; 0xfffffaa1
 66c:	65005f5f 	strvs	r5, [r0, #-3935]	; 0xfffff0a1
 670:	0074696d 	rsbseq	r6, r4, sp, ror #18
 674:	65766572 	ldrbvs	r6, [r6, #-1394]!	; 0xfffffa8e
 678:	00657372 	rsbeq	r7, r5, r2, ror r3
 67c:	63727473 	cmnvs	r2, #1929379840	; 0x73000000
 680:	7000706d 	andvc	r7, r0, sp, rrx
 684:	5f737475 	svcpl	0x00737475
 688:	5f007066 	svcpl	0x00007066
 68c:	6f72705f 	svcvs	0x0072705f
 690:	6e655f67 	cdpvs	15, 6, cr5, cr5, cr7, {3}
 694:	005f5f64 	subseq	r5, pc, r4, ror #30
 698:	316d756e 	cmncc	sp, lr, ror #10
 69c:	72747300 	rsbsvc	r7, r4, #0, 6
 6a0:	706d636e 	rsbvc	r6, sp, lr, ror #6
 6a4:	67697300 	strbvs	r7, [r9, -r0, lsl #6]!
 6a8:	5f64656e 	svcpl	0x0064656e
 6ac:	70720070 	rsbsvc	r0, r2, r0, ror r0
 6b0:	65725f69 	ldrbvs	r5, [r2, #-3945]!	; 0xfffff097
 6b4:	746f6f62 	strbtvc	r6, [pc], #-3938	; 6bc <__code_start__-0x7944>
 6b8:	6c656400 	cfstrdvs	mvd6, [r5], #-0
 6bc:	6d5f7961 	vldrvs.16	s15, [pc, #-194]	; 602 <__code_start__-0x79fe>	; <UNPREDICTABLE>
 6c0:	2f2e0073 	svccs	0x002e0073
 6c4:	66617473 			; <UNDEFINED> instruction: 0x66617473
 6c8:	72732d66 	rsbsvc	r2, r3, #6528	; 0x1980
 6cc:	6c632f63 	stclvs	15, cr2, [r3], #-396	; 0xfffffe74
 6d0:	2d6e6165 	stfcse	f6, [lr, #-404]!	; 0xfffffe6c
 6d4:	6f626572 	svcvs	0x00626572
 6d8:	632e746f 			; <UNDEFINED> instruction: 0x632e746f
 6dc:	72617500 	rsbvc	r7, r1, #0, 10
 6e0:	6c665f74 	stclvs	15, cr5, [r6], #-464	; 0xfffffe30
 6e4:	5f687375 	svcpl	0x00687375
 6e8:	5f007874 	svcpl	0x00007874
 6ec:	61747363 	cmnvs	r4, r3, ror #6
 6f0:	62007472 	andvs	r7, r0, #1912602624	; 0x72000000
 6f4:	655f7373 	ldrbvs	r7, [pc, #-883]	; 389 <__code_start__-0x7c77>
 6f8:	7500646e 	strvc	r6, [r0, #-1134]	; 0xfffffb92
 6fc:	5f747261 	svcpl	0x00747261
 700:	74696e69 	strbtvc	r6, [r9], #-3689	; 0xfffff197
 704:	73756300 	cmnvc	r5, #0, 6
 708:	5f6d6f74 	svcpl	0x006d6f74
 70c:	64616f6c 	strbtvs	r6, [r1], #-3948	; 0xfffff094
 710:	2e007265 	cdpcs	2, 0, cr7, cr0, cr5, {3}
 714:	6174732f 	cmnvs	r4, pc, lsr #6
 718:	732d6666 			; <UNDEFINED> instruction: 0x732d6666
 71c:	632f6372 			; <UNDEFINED> instruction: 0x632f6372
 720:	72617473 	rsbvc	r7, r1, #1929379840	; 0x73000000
 724:	00632e74 	rsbeq	r2, r3, r4, ror lr
 728:	74732f2e 	ldrbtvc	r2, [r3], #-3886	; 0xfffff0d2
 72c:	2d666661 	stclcs	6, cr6, [r6, #-388]!	; 0xfffffe7c
 730:	2f637273 	svccs	0x00637273
 734:	74737563 	ldrbtvc	r7, [r3], #-1379	; 0xfffffa9d
 738:	6c2d6d6f 	stcvs	13, cr6, [sp], #-444	; 0xfffffe44
 73c:	6564616f 	strbvs	r6, [r4, #-367]!	; 0xfffffe91
 740:	00632e72 	rsbeq	r2, r3, r2, ror lr
 744:	6f626572 	svcvs	0x00626572
 748:	635f746f 	cmpvs	pc, #1862270976	; 0x6f000000
 74c:	6f6c6c61 	svcvs	0x006c6c61
 750:	50007475 	andpl	r7, r0, r5, ror r4
 754:	44575f4d 	ldrbmi	r5, [r7], #-3917	; 0xfffff0b3
 758:	5000474f 	andpl	r4, r0, pc, asr #14
 75c:	32335455 	eorscc	r5, r3, #1426063360	; 0x55000000
 760:	74657300 	strbtvc	r7, [r5], #-768	; 0xfffffd00
 764:	6573755f 	ldrbvs	r7, [r3, #-1375]!	; 0xfffffaa1
 768:	656c5f72 	strbvs	r5, [ip, #-3954]!	; 0xfffff08e
 76c:	006c6576 	rsbeq	r6, ip, r6, ror r5
 770:	74732f2e 	ldrbtvc	r2, [r3], #-3886	; 0xfffff0d2
 774:	2d666661 	stclcs	6, cr6, [r6, #-388]!	; 0xfffffe7c
 778:	2f637273 	svccs	0x00637273
 77c:	6f626572 	svcvs	0x00626572
 780:	632e746f 			; <UNDEFINED> instruction: 0x632e746f
 784:	5f4d5000 	svcpl	0x004d5000
 788:	53534150 	cmppl	r3, #20
 78c:	44524f57 	ldrbmi	r4, [r2], #-3927	; 0xfffff0a9
 790:	5f746100 	svcpl	0x00746100
 794:	72657375 	rsbvc	r7, r5, #-738197503	; 0xd4000001
 798:	76656c5f 			; <UNDEFINED> instruction: 0x76656c5f
 79c:	50006c65 	andpl	r6, r0, r5, ror #24
 7a0:	53525f4d 	cmppl	r2, #308	; 0x134
 7a4:	575f4354 			; <UNDEFINED> instruction: 0x575f4354
 7a8:	47464352 	smlsldmi	r4, r6, r2, r3
 7ac:	4c55465f 	mrrcmi	6, 5, r4, r5, cr15
 7b0:	45525f4c 	ldrbmi	r5, [r2, #-3916]	; 0xfffff0b4
 7b4:	00544553 	subseq	r4, r4, r3, asr r5
 7b8:	525f4d50 	subspl	r4, pc, #80, 26	; 0x1400
 7bc:	00435453 	subeq	r5, r3, r3, asr r4
 7c0:	72737063 	rsbsvc	r7, r3, #99, 0	; 0x63
 7c4:	76656400 	strbtvc	r6, [r5], -r0, lsl #8
 7c8:	7261625f 	rsbvc	r6, r1, #-268435451	; 0xf0000005
 7cc:	72656972 	rsbvc	r6, r5, #1867776	; 0x1c8000
 7d0:	6c656400 	cfstrdvs	mvd6, [r5], #-0
 7d4:	735f7961 	cmpvc	pc, #1589248	; 0x184000
 7d8:	2e006365 	cdpcs	3, 0, cr6, cr0, cr5, {3}
 7dc:	6174732f 	cmnvs	r4, pc, lsr #6
 7e0:	732d6666 			; <UNDEFINED> instruction: 0x732d6666
 7e4:	742f6372 	strtvc	r6, [pc], #-882	; 7ec <__code_start__-0x7814>
 7e8:	72656d69 	rsbvc	r6, r5, #6720	; 0x1a40
 7ec:	4700632e 	strmi	r6, [r0, -lr, lsr #6]
 7f0:	32335445 	eorscc	r5, r3, #1157627904	; 0x45000000
 7f4:	6d697400 	cfstrdvs	mvd7, [r9, #-0]
 7f8:	675f7265 	ldrbvs	r7, [pc, -r5, ror #4]
 7fc:	755f7465 	ldrbvc	r7, [pc, #-1125]	; 39f <__code_start__-0x7c61>
 800:	00636573 	rsbeq	r6, r3, r3, ror r5
 804:	616c6564 	cmnvs	ip, r4, ror #10
 808:	73755f79 	cmnvc	r5, #484	; 0x1e4
 80c:	6d697400 	cfstrdvs	mvd7, [r9, #-0]
 810:	675f7265 	ldrbvs	r7, [pc, -r5, ror #4]
 814:	755f7465 	ldrbvc	r7, [pc, #-1125]	; 3b7 <__code_start__-0x7c49>
 818:	5f636573 	svcpl	0x00636573
 81c:	00776172 	rsbseq	r6, r7, r2, ror r1
 820:	33747570 	cmncc	r4, #112, 10	; 0x1c000000
 824:	61620032 	cmnvs	r2, r2, lsr r0
 828:	765f6475 			; <UNDEFINED> instruction: 0x765f6475
 82c:	73006c61 	movwvc	r6, #3169	; 0xc61
 830:	00746174 	rsbseq	r6, r4, r4, ror r1
 834:	74726175 	ldrbtvc	r6, [r2], #-373	; 0xfffffe8b
 838:	6e61635f 	mcrvs	3, 3, r6, cr1, cr15, {2}
 83c:	7465675f 	strbtvc	r6, [r5], #-1887	; 0xfffff8a1
 840:	50470063 	subpl	r0, r7, r3, rrx
 844:	465f4f49 	ldrbmi	r4, [pc], -r9, asr #30
 848:	5f434e55 	svcpl	0x00434e55
 84c:	5054554f 	subspl	r5, r4, pc, asr #10
 850:	61005455 	tstvs	r0, r5, asr r4
 854:	705f7875 	subsvc	r7, pc, r5, ror r8	; <UNPREDICTABLE>
 858:	70697265 	rsbvc	r7, r9, r5, ror #4
 85c:	75007368 	strvc	r7, [r0, #-872]	; 0xfffffc98
 860:	2e747261 	cdpcs	2, 7, cr7, cr4, cr1, {3}
 864:	61750063 	cmnvs	r5, r3, rrx
 868:	635f7472 	cmpvs	pc, #1912602624	; 0x72000000
 86c:	705f6e61 	subsvc	r6, pc, r1, ror #28
 870:	00637475 	rsbeq	r7, r3, r5, ror r4
 874:	74726175 	ldrbtvc	r6, [r2], #-373	; 0xfffffe8b
 878:	5f78745f 	svcpl	0x0078745f
 87c:	655f7369 	ldrbvs	r7, [pc, #-873]	; 51b <__code_start__-0x7ae5>
 880:	7974706d 	ldmdbvc	r4!, {r0, r2, r3, r5, r6, ip, sp, lr}^
 884:	49504700 	ldmdbmi	r0, {r8, r9, sl, lr}^
 888:	55465f4f 	strbpl	r5, [r6, #-3919]	; 0xfffff0b1
 88c:	415f434e 	cmpmi	pc, lr, asr #6
 890:	0030544c 	eorseq	r5, r0, ip, asr #8
 894:	4f495047 	svcmi	0x00495047
 898:	4e55465f 	mrcmi	6, 2, r4, cr5, cr15, {2}
 89c:	4c415f43 	mcrrmi	15, 4, r5, r1, cr3
 8a0:	47003154 	smlsdmi	r0, r4, r1, r3
 8a4:	5f4f4950 	svcpl	0x004f4950
 8a8:	434e5546 	movtmi	r5, #58694	; 0xe546
 8ac:	544c415f 	strbpl	r4, [ip], #-351	; 0xfffffea1
 8b0:	50470032 	subpl	r0, r7, r2, lsr r0
 8b4:	465f4f49 	ldrbmi	r4, [pc], -r9, asr #30
 8b8:	5f434e55 	svcpl	0x00434e55
 8bc:	33544c41 	cmpcc	r4, #16640	; 0x4100
 8c0:	49504700 	ldmdbmi	r0, {r8, r9, sl, lr}^
 8c4:	55465f4f 	strbpl	r5, [r6, #-3919]	; 0xfffff0b1
 8c8:	415f434e 	cmpmi	pc, lr, asr #6
 8cc:	0035544c 	eorseq	r5, r5, ip, asr #8
 8d0:	6d6f682f 	stclvs	8, cr6, [pc, #-188]!	; 81c <__code_start__-0x77e4>
 8d4:	6e652f65 	cdpvs	15, 6, cr2, cr5, cr5, {3}
 8d8:	72656c67 	rsbvc	r6, r5, #26368	; 0x6700
 8dc:	616c632f 	cmnvs	ip, pc, lsr #6
 8e0:	632f7373 			; <UNDEFINED> instruction: 0x632f7373
 8e4:	30343273 	eorscc	r3, r4, r3, ror r2
 8e8:	322d786c 	eorcc	r7, sp, #108, 16	; 0x6c0000
 8ec:	72707332 	rsbsvc	r7, r0, #-939524096	; 0xc8000000
 8f0:	62696c2f 	rsbvs	r6, r9, #12032	; 0x2f00
 8f4:	732f6970 			; <UNDEFINED> instruction: 0x732f6970
 8f8:	66666174 			; <UNDEFINED> instruction: 0x66666174
 8fc:	6972702d 	ldmdbvs	r2!, {r0, r2, r3, r5, ip, sp, lr}^
 900:	65746176 	ldrbvs	r6, [r4, #-374]!	; 0xfffffe8a
 904:	75616200 	strbvc	r6, [r1, #-512]!	; 0xfffffe00
 908:	75610064 	strbvc	r0, [r1, #-100]!	; 0xffffff9c
 90c:	6e655f78 	mcrvs	15, 3, r5, cr5, cr8, {3}
 910:	656c6261 	strbvs	r6, [ip, #-609]!	; 0xfffffd9f
 914:	61750073 	cmnvs	r5, r3, ror r0
 918:	675f7472 			; <UNDEFINED> instruction: 0x675f7472
 91c:	00637465 	rsbeq	r7, r3, r5, ror #8
 920:	20554e47 	subscs	r4, r5, r7, asr #28
 924:	20393943 	eorscs	r3, r9, r3, asr #18
 928:	332e3031 			; <UNDEFINED> instruction: 0x332e3031
 92c:	3220312e 	eorcc	r3, r0, #-2147483637	; 0x8000000b
 930:	30313230 	eorscc	r3, r1, r0, lsr r2
 934:	20343238 	eorscs	r3, r4, r8, lsr r2
 938:	6c657228 	sfmvs	f7, 2, [r5], #-160	; 0xffffff60
 93c:	65736165 	ldrbvs	r6, [r3, #-357]!	; 0xfffffe9b
 940:	6d2d2029 	stcvs	0, cr2, [sp, #-164]!	; 0xffffff5c
 944:	3d757063 	ldclcc	0, cr7, [r5, #-396]!	; 0xfffffe74
 948:	316d7261 	cmncc	sp, r1, ror #4
 94c:	6a363731 	bvs	d8e618 <__bss_end__+0xd83840>
 950:	732d667a 			; <UNDEFINED> instruction: 0x732d667a
 954:	746d2d20 	strbtvc	r2, [sp], #-3360	; 0xfffff2e0
 958:	3d656e75 	stclcc	14, cr6, [r5, #-468]!	; 0xfffffe2c
 95c:	316d7261 	cmncc	sp, r1, ror #4
 960:	6a363731 	bvs	d8e62c <__bss_end__+0xd83854>
 964:	732d667a 			; <UNDEFINED> instruction: 0x732d667a
 968:	666d2d20 	strbtvs	r2, [sp], -r0, lsr #26
 96c:	74616f6c 	strbtvc	r6, [r1], #-3948	; 0xfffff094
 970:	6962612d 	stmdbvs	r2!, {r0, r2, r3, r5, r8, sp, lr}^
 974:	666f733d 			; <UNDEFINED> instruction: 0x666f733d
 978:	6d2d2074 	stcvs	0, cr2, [sp, #-464]!	; 0xfffffe30
 97c:	206d7261 	rsbcs	r7, sp, r1, ror #4
 980:	72616d2d 	rsbvc	r6, r1, #2880	; 0xb40
 984:	613d6863 	teqvs	sp, r3, ror #16
 988:	36766d72 			; <UNDEFINED> instruction: 0x36766d72
 98c:	2d207a6b 	vstmdbcs	r0!, {s14-s120}
 990:	62646767 	rsbvs	r6, r4, #27000832	; 0x19c0000
 994:	674f2d20 	strbvs	r2, [pc, -r0, lsr #26]
 998:	74732d20 	ldrbtvc	r2, [r3], #-3360	; 0xfffff2e0
 99c:	6e673d64 	cdpvs	13, 6, cr3, cr7, cr4, {3}
 9a0:	20393975 	eorscs	r3, r9, r5, ror r9
 9a4:	7266662d 	rsbvc	r6, r6, #47185920	; 0x2d00000
 9a8:	74736565 	ldrbtvc	r6, [r3], #-1381	; 0xfffffa9b
 9ac:	69646e61 	stmdbvs	r4!, {r0, r5, r6, r9, sl, fp, sp, lr}^
 9b0:	6300676e 	movwvs	r6, #1902	; 0x76e
 9b4:	006c746e 	rsbeq	r7, ip, lr, ror #8
 9b8:	74726175 	ldrbtvc	r6, [r2], #-373	; 0xfffffe8b
 9bc:	7369645f 	cmnvc	r9, #1593835520	; 0x5f000000
 9c0:	656c6261 	strbvs	r6, [ip, #-609]!	; 0xfffffd9f
 9c4:	72617500 	rsbvc	r7, r1, #0, 10
 9c8:	61685f74 	smcvs	34292	; 0x85f4
 9cc:	61645f73 	smcvs	17907	; 0x45f3
 9d0:	47006174 	smlsdxmi	r0, r4, r1, r6
 9d4:	5f4f4950 	svcpl	0x004f4950
 9d8:	434e5546 	movtmi	r5, #58694	; 0xe546
 9dc:	544c415f 	strbpl	r4, [ip], #-351	; 0xfffffea1
 9e0:	726f0034 	rsbvc	r0, pc, #52, 0	; 0x34
 9e4:	336e695f 	cmncc	lr, #1556480	; 0x17c000
 9e8:	63730032 	cmnvs	r3, #50, 0	; 0x32
 9ec:	63746172 	cmnvs	r4, #-2147483620	; 0x8000001c
 9f0:	61750068 	cmnvs	r5, r8, rrx
 9f4:	61007472 	tstvs	r0, r2, ror r4
 9f8:	695f646e 	ldmdbvs	pc, {r1, r2, r3, r5, r6, sl, sp, lr}^	; <UNPREDICTABLE>
 9fc:	0032336e 	eorseq	r3, r2, lr, ror #6
 a00:	74726175 	ldrbtvc	r6, [r2], #-373	; 0xfffffe8b
 a04:	7475705f 	ldrbtvc	r7, [r5], #-95	; 0xffffffa1
 a08:	50470063 	subpl	r0, r7, r3, rrx
 a0c:	465f4f49 	ldrbmi	r4, [pc], -r9, asr #30
 a10:	5f434e55 	svcpl	0x00434e55
 a14:	55504e49 	ldrbpl	r4, [r0, #-3657]	; 0xfffff1b7
 a18:	70670054 	rsbvc	r0, r7, r4, asr r0
 a1c:	735f6f69 	cmpvc	pc, #420	; 0x1a4
 a20:	665f7465 	ldrbvs	r7, [pc], -r5, ror #8
 a24:	74636e75 	strbtvc	r6, [r3], #-3701	; 0xfffff18b
 a28:	006e6f69 	rsbeq	r6, lr, r9, ror #30
 a2c:	33746567 	cmncc	r4, #432013312	; 0x19c00000
 a30:	6d6b0032 	stclvs	0, cr0, [fp, #-200]!	; 0xffffff38
 a34:	6f6c6c61 	svcvs	0x006c6c61
 a38:	65685f63 	strbvs	r5, [r8, #-3939]!	; 0xfffff09d
 a3c:	735f7061 	cmpvc	pc, #97, 0	; 0x61
 a40:	74726174 	ldrbtvc	r6, [r2], #-372	; 0xfffffe8c
 a44:	78616d00 	stmdavc	r1!, {r8, sl, fp, sp, lr}^
 a48:	79626e5f 	stmdbvc	r2!, {r0, r1, r2, r3, r4, r6, r9, sl, fp, sp, lr}^
 a4c:	00736574 	rsbseq	r6, r3, r4, ror r5
 a50:	6464615f 	strbtvs	r6, [r4], #-351	; 0xfffffea1
 a54:	65680072 	strbvs	r0, [r8, #-114]!	; 0xffffff8e
 a58:	6d5f7061 	ldclvs	0, cr7, [pc, #-388]	; 8dc <__code_start__-0x7724>
 a5c:	6b007861 	blvs	1ebe8 <__bss_end__+0x13e10>
 a60:	65657266 	strbvs	r7, [r5, #-614]!	; 0xfffffd9a
 a64:	6c6c615f 	stfvse	f6, [ip], #-380	; 0xfffffe84
 a68:	756f7200 	strbvc	r7, [pc, #-512]!	; 870 <__code_start__-0x7790>
 a6c:	7075646e 	rsbsvc	r6, r5, lr, ror #8
 a70:	72666b00 	rsbvc	r6, r6, #0, 22
 a74:	705f6565 	subsvc	r6, pc, r5, ror #10
 a78:	6100706f 	tstvs	r0, pc, rrx
 a7c:	6e67696c 	vnmulvs.f16	s13, s14, s25	; <UNPREDICTABLE>
 a80:	746e656d 	strbtvc	r6, [lr], #-1389	; 0xfffffa93
 a84:	78616d00 	stmdavc	r1!, {r8, sl, fp, sp, lr}^
 a88:	3233755f 	eorscc	r7, r3, #398458880	; 0x17c00000
 a8c:	656e4f00 	strbvs	r4, [lr, #-3840]!	; 0xfffff100
 a90:	6b00424d 	blvs	113cc <__bss_end__+0x65f4>
 a94:	6c6c616d 	stfvse	f6, [ip], #-436	; 0xfffffe4c
 a98:	685f636f 	ldmdavs	pc, {r0, r1, r2, r3, r5, r6, r8, r9, sp, lr}^	; <UNPREDICTABLE>
 a9c:	5f706165 	svcpl	0x00706165
 aa0:	00646e65 	rsbeq	r6, r4, r5, ror #28
 aa4:	6c616d6b 	stclvs	13, cr6, [r1], #-428	; 0xfffffe54
 aa8:	5f636f6c 	svcpl	0x00636f6c
 aac:	7a746f6e 	bvc	1d1c86c <__bss_end__+0x1d11a94>
 ab0:	006f7265 	rsbeq	r7, pc, r5, ror #4
 ab4:	705f7369 	subsvc	r7, pc, r9, ror #6
 ab8:	0032776f 	eorseq	r7, r2, pc, ror #14
 abc:	6c616d6b 	stclvs	13, cr6, [r1], #-428	; 0xfffffe54
 ac0:	2e636f6c 	cdpcs	15, 6, cr6, cr3, cr12, {3}
 ac4:	6d6b0063 	stclvs	0, cr0, [fp, #-396]!	; 0xfffffe74
 ac8:	6f6c6c61 	svcvs	0x006c6c61
 acc:	6e695f63 	cdpvs	15, 6, cr5, cr9, cr3, {3}
 ad0:	69007469 	stmdbvs	r0, {r0, r3, r5, r6, sl, ip, sp, lr}
 ad4:	6c615f73 	stclvs	15, cr5, [r1], #-460	; 0xfffffe34
 ad8:	656e6769 	strbvs	r6, [lr, #-1897]!	; 0xfffff897
 adc:	6d6b0064 	stclvs	0, cr0, [fp, #-400]!	; 0xfffffe70
 ae0:	6f6c6c61 	svcvs	0x006c6c61
 ae4:	65685f63 	strbvs	r5, [r8, #-3939]!	; 0xfffff09d
 ae8:	705f7061 	subsvc	r7, pc, r1, rrx
 aec:	72007274 	andvc	r7, r0, #116, 4	; 0x40000007
 af0:	725f6970 	subsvc	r6, pc, #112, 18	; 0x1c0000
 af4:	74657365 	strbtvc	r7, [r5], #-869	; 0xfffffc9b
 af8:	7475705f 	ldrbtvc	r7, [r5], #-95	; 0xffffffa1
 afc:	6d6b0063 	stclvs	0, cr0, [fp, #-396]!	; 0xfffffe74
 b00:	6f6c6c61 	svcvs	0x006c6c61
 b04:	6c615f63 	stclvs	15, cr5, [r1], #-396	; 0xfffffe74
 b08:	656e6769 	strbvs	r6, [lr, #-1897]!	; 0xfffff897
 b0c:	70670064 	rsbvc	r0, r7, r4, rrx
 b10:	635f6f69 	cmpvs	pc, #420	; 0x1a4
 b14:	0030726c 	eorseq	r7, r0, ip, ror #4
 b18:	6f697067 	svcvs	0x00697067
 b1c:	7465735f 	strbtvc	r7, [r5], #-863	; 0xfffffca1
 b20:	70670030 	rsbvc	r0, r7, r0, lsr r0
 b24:	775f6f69 	ldrbvc	r6, [pc, -r9, ror #30]
 b28:	65746972 	ldrbvs	r6, [r4, #-2418]!	; 0xfffff68e
 b2c:	56454400 	strbpl	r4, [r5], -r0, lsl #8
 b30:	4c41565f 	mcrrmi	6, 5, r5, r1, cr15
 b34:	67003233 	smladxvs	r0, r3, r2, r3
 b38:	5f6f6970 	svcpl	0x006f6970
 b3c:	64616572 	strbtvs	r6, [r1], #-1394	; 0xfffffa8e
 b40:	732f2e00 			; <UNDEFINED> instruction: 0x732f2e00
 b44:	672f6372 			; <UNDEFINED> instruction: 0x672f6372
 b48:	2e6f6970 			; <UNDEFINED> instruction: 0x2e6f6970
 b4c:	70670063 	rsbvc	r0, r7, r3, rrx
 b50:	735f6f69 	cmpvc	pc, #420	; 0x1a4
 b54:	695f7465 	ldmdbvs	pc, {r0, r2, r5, r6, sl, ip, sp, lr}^	; <UNPREDICTABLE>
 b58:	7475706e 	ldrbtvc	r7, [r5], #-110	; 0xffffff92
 b5c:	69706700 	ldmdbvs	r0!, {r8, r9, sl, sp, lr}^
 b60:	65735f6f 	ldrbvs	r5, [r3, #-3951]!	; 0xfffff091
 b64:	666f5f74 	uqsub16vs	r5, pc, r4	; <UNPREDICTABLE>
 b68:	70670066 	rsbvc	r0, r7, r6, rrx
 b6c:	735f6f69 	cmpvc	pc, #420	; 0x1a4
 b70:	6f5f7465 	svcvs	0x005f7465
 b74:	75707475 	ldrbvc	r7, [r0, #-1141]!	; 0xfffffb8b
 b78:	70670074 	rsbvc	r0, r7, r4, ror r0
 b7c:	665f6f69 	ldrbvs	r6, [pc], -r9, ror #30
 b80:	5f636e75 	svcpl	0x00636e75
 b84:	70670074 	rsbvc	r0, r7, r4, ror r0
 b88:	6c5f6f69 	mrrcvs	15, 6, r6, pc, cr9	; <UNPREDICTABLE>
 b8c:	00307665 	eorseq	r7, r0, r5, ror #12
 b90:	6b6e6162 	blvs	1b99120 <__bss_end__+0x1b8e348>
 b94:	69706700 	ldmdbvs	r0!, {r8, r9, sl, sp, lr}^
 b98:	65735f6f 	ldrbvs	r5, [r3, #-3951]!	; 0xfffff091
 b9c:	6e6f5f74 	mcrvs	15, 3, r5, cr15, cr4, {3}
 ba0:	746e6900 	strbtvc	r6, [lr], #-2304	; 0xfffff700
 ba4:	616e7265 	cmnvs	lr, r5, ror #4
 ba8:	75705f6c 	ldrbvc	r5, [r0, #-3948]!	; 0xfffff094
 bac:	61686374 	smcvs	34356	; 0x8634
 bb0:	70720072 	rsbsvc	r0, r2, r2, ror r0
 bb4:	65735f69 	ldrbvs	r5, [r3, #-3945]!	; 0xfffff097
 bb8:	75705f74 	ldrbvc	r5, [r0, #-3956]!	; 0xfffff08c
 bbc:	2e006374 	mcrcs	3, 0, r6, cr0, cr4, {3}
 bc0:	62696c2f 	rsbvs	r6, r9, #12032	; 0x2f00
 bc4:	75702f63 	ldrbvc	r2, [r0, #-3939]!	; 0xfffff09d
 bc8:	61686374 	smcvs	34356	; 0x8634
 bcc:	00632e72 	rsbeq	r2, r3, r2, ror lr
 bd0:	696c2f2e 	stmdbvs	ip!, {r1, r2, r3, r5, r8, r9, sl, fp, sp}^
 bd4:	732f6362 			; <UNDEFINED> instruction: 0x732f6362
 bd8:	61637274 	smcvs	14116	; 0x3724
 bdc:	00632e74 	rsbeq	r2, r3, r4, ror lr
 be0:	74736564 	ldrbtvc	r6, [r3], #-1380	; 0xfffffa9c
 be4:	6c2f2e00 	stcvs	14, cr2, [pc], #-0	; bec <__code_start__-0x7414>
 be8:	2f636269 	svccs	0x00636269
 bec:	63727473 	cmnvs	r2, #1929379840	; 0x73000000
 bf0:	632e706d 			; <UNDEFINED> instruction: 0x632e706d
 bf4:	6c2f2e00 	stcvs	14, cr2, [pc], #-0	; bfc <__code_start__-0x7404>
 bf8:	2f636269 	svccs	0x00636269
 bfc:	63727473 	cmnvs	r2, #1929379840	; 0x73000000
 c00:	632e7970 			; <UNDEFINED> instruction: 0x632e7970
 c04:	6c2f2e00 	stcvs	14, cr2, [pc], #-0	; c0c <__code_start__-0x73f4>
 c08:	2f636269 	svccs	0x00636269
 c0c:	6e727473 	mrcvs	4, 3, r7, cr2, cr3, {3}
 c10:	2e706d63 	cdpcs	13, 7, cr6, cr0, cr3, {3}
 c14:	2f2e0063 	svccs	0x002e0063
 c18:	66617473 			; <UNDEFINED> instruction: 0x66617473
 c1c:	72732d66 	rsbsvc	r2, r3, #6528	; 0x1980
 c20:	65642f63 	strbvs	r2, [r4, #-3939]!	; 0xfffff09d
 c24:	6c756166 	ldfvse	f6, [r5], #-408	; 0xfffffe68
 c28:	65722d74 	ldrbvs	r2, [r2, #-3444]!	; 0xfffff28c
 c2c:	746f6f62 	strbtvc	r6, [pc], #-3938	; c34 <__code_start__-0x73cc>
 c30:	6c61632d 	stclvs	3, cr6, [r1], #-180	; 0xffffff4c
 c34:	74756f6c 	ldrbtvc	r6, [r5], #-3948	; 0xfffff094
 c38:	Address 0x0000000000000c38 is out of bounds.


Disassembly of section .debug_frame:

00000000 <.debug_frame>:
   0:	0000000c 	andeq	r0, r0, ip
   4:	ffffffff 			; <UNDEFINED> instruction: 0xffffffff
   8:	7c020001 	stcvc	0, cr0, [r2], {1}
   c:	000d0c0e 	andeq	r0, sp, lr, lsl #24
  10:	00000024 	andeq	r0, r0, r4, lsr #32
  14:	00000000 	andeq	r0, r0, r0
  18:	00008038 	andeq	r8, r0, r8, lsr r0
  1c:	000000fc 	strdeq	r0, [r0], -ip
  20:	841c0e42 	ldrhi	r0, [ip], #-3650	; 0xfffff1be
  24:	86068507 	strhi	r8, [r6], -r7, lsl #10
  28:	88048705 	stmdahi	r4, {r0, r2, r8, r9, sl, pc}
  2c:	8e028903 	vmlahi.f16	s16, s4, s6	; <UNPREDICTABLE>
  30:	380e4201 	stmdacc	lr, {r0, r9, lr}
  34:	1c0e7002 	stcne	0, cr7, [lr], {2}
  38:	00000014 	andeq	r0, r0, r4, lsl r0
  3c:	00000000 	andeq	r0, r0, r0
  40:	00008134 	andeq	r8, r0, r4, lsr r1
  44:	0000002c 	andeq	r0, r0, ip, lsr #32
  48:	84080e42 	strhi	r0, [r8], #-3650	; 0xfffff1be
  4c:	00018e02 	andeq	r8, r1, r2, lsl #28
  50:	0000000c 	andeq	r0, r0, ip
  54:	ffffffff 			; <UNDEFINED> instruction: 0xffffffff
  58:	7c020001 	stcvc	0, cr0, [r2], {1}
  5c:	000d0c0e 	andeq	r0, sp, lr, lsl #24
  60:	0000000c 	andeq	r0, r0, ip
  64:	00000050 	andeq	r0, r0, r0, asr r0
  68:	00008160 	andeq	r8, r0, r0, ror #2
  6c:	00000010 	andeq	r0, r0, r0, lsl r0
  70:	0000000c 	andeq	r0, r0, ip
  74:	00000050 	andeq	r0, r0, r0, asr r0
  78:	00008170 	andeq	r8, r0, r0, ror r1
  7c:	0000000c 	andeq	r0, r0, ip
  80:	0000000c 	andeq	r0, r0, ip
  84:	00000050 	andeq	r0, r0, r0, asr r0
  88:	0000817c 	andeq	r8, r0, ip, ror r1
  8c:	00000008 	andeq	r0, r0, r8
  90:	0000000c 	andeq	r0, r0, ip
  94:	00000050 	andeq	r0, r0, r0, asr r0
  98:	00008184 	andeq	r8, r0, r4, lsl #3
  9c:	00000010 	andeq	r0, r0, r0, lsl r0
  a0:	0000000c 	andeq	r0, r0, ip
  a4:	00000050 	andeq	r0, r0, r0, asr r0
  a8:	00008194 	muleq	r0, r4, r1
  ac:	00000024 	andeq	r0, r0, r4, lsr #32
  b0:	00000018 	andeq	r0, r0, r8, lsl r0
  b4:	00000050 	andeq	r0, r0, r0, asr r0
  b8:	000081b8 			; <UNDEFINED> instruction: 0x000081b8
  bc:	0000005c 	andeq	r0, r0, ip, asr r0
  c0:	84100e42 	ldrhi	r0, [r0], #-3650	; 0xfffff1be
  c4:	86038504 	strhi	r8, [r3], -r4, lsl #10
  c8:	00018e02 	andeq	r8, r1, r2, lsl #28
  cc:	00000028 	andeq	r0, r0, r8, lsr #32
  d0:	00000050 	andeq	r0, r0, r0, asr r0
  d4:	00008214 	andeq	r8, r0, r4, lsl r2
  d8:	0000014c 	andeq	r0, r0, ip, asr #2
  dc:	84180e42 	ldrhi	r0, [r8], #-3650	; 0xfffff1be
  e0:	86058506 	strhi	r8, [r5], -r6, lsl #10
  e4:	88038704 	stmdahi	r3, {r2, r8, r9, sl, pc}
  e8:	42018e02 	andmi	r8, r1, #2, 28
  ec:	6c02300e 	stcvs	0, cr3, [r2], {14}
  f0:	42180e0a 	andsmi	r0, r8, #160	; 0xa0
  f4:	0000000b 	andeq	r0, r0, fp
  f8:	00000020 	andeq	r0, r0, r0, lsr #32
  fc:	00000050 	andeq	r0, r0, r0, asr r0
 100:	00008360 	andeq	r8, r0, r0, ror #6
 104:	00000094 	muleq	r0, r4, r0
 108:	84100e42 	ldrhi	r0, [r0], #-3650	; 0xfffff1be
 10c:	86038504 	strhi	r8, [r3], -r4, lsl #10
 110:	42018e02 	andmi	r8, r1, #2, 28
 114:	0e7e200e 	cdpeq	0, 7, cr2, cr14, cr14, {0}
 118:	00000010 	andeq	r0, r0, r0, lsl r0
 11c:	0000000c 	andeq	r0, r0, ip
 120:	ffffffff 			; <UNDEFINED> instruction: 0xffffffff
 124:	7c020001 	stcvc	0, cr0, [r2], {1}
 128:	000d0c0e 	andeq	r0, sp, lr, lsl #24
 12c:	00000014 	andeq	r0, r0, r4, lsl r0
 130:	0000011c 	andeq	r0, r0, ip, lsl r1
 134:	000083f4 	strdeq	r8, [r0], -r4
 138:	000000a4 	andeq	r0, r0, r4, lsr #1
 13c:	8e040e42 	cdphi	14, 0, cr0, cr4, cr2, {2}
 140:	00000001 	andeq	r0, r0, r1
 144:	0000001c 	andeq	r0, r0, ip, lsl r0
 148:	0000011c 	andeq	r0, r0, ip, lsl r1
 14c:	00008498 	muleq	r0, r8, r4
 150:	000000ec 	andeq	r0, r0, ip, ror #1
 154:	84180e42 	ldrhi	r0, [r8], #-3650	; 0xfffff1be
 158:	86058506 	strhi	r8, [r5], -r6, lsl #10
 15c:	88038704 	stmdahi	r3, {r2, r8, r9, sl, pc}
 160:	00018e02 	andeq	r8, r1, r2, lsl #28
 164:	0000000c 	andeq	r0, r0, ip
 168:	ffffffff 			; <UNDEFINED> instruction: 0xffffffff
 16c:	7c020001 	stcvc	0, cr0, [r2], {1}
 170:	000d0c0e 	andeq	r0, sp, lr, lsl #24
 174:	00000028 	andeq	r0, r0, r8, lsr #32
 178:	00000164 	andeq	r0, r0, r4, ror #2
 17c:	00008584 	andeq	r8, r0, r4, lsl #11
 180:	0000018c 	andeq	r0, r0, ip, lsl #3
 184:	84240e42 	strthi	r0, [r4], #-3650	; 0xfffff1be
 188:	86088509 	strhi	r8, [r8], -r9, lsl #10
 18c:	88068707 	stmdahi	r6, {r0, r1, r2, r8, r9, sl, pc}
 190:	8a048905 	bhi	1225ac <__bss_end__+0x1177d4>
 194:	8e028b03 	vmlahi.f64	d8, d2, d3
 198:	300e4201 	andcc	r4, lr, r1, lsl #4
 19c:	240eac02 	strcs	sl, [lr], #-3074	; 0xfffff3fe
 1a0:	0000001c 	andeq	r0, r0, ip, lsl r0
 1a4:	00000164 	andeq	r0, r0, r4, ror #2
 1a8:	00008710 	andeq	r8, r0, r0, lsl r7
 1ac:	000000a8 	andeq	r0, r0, r8, lsr #1
 1b0:	84080e42 	strhi	r0, [r8], #-3650	; 0xfffff1be
 1b4:	42018e02 	andmi	r8, r1, #2, 28
 1b8:	4402480e 	strmi	r4, [r2], #-2062	; 0xfffff7f2
 1bc:	0000080e 	andeq	r0, r0, lr, lsl #16
 1c0:	00000020 	andeq	r0, r0, r0, lsr #32
 1c4:	00000164 	andeq	r0, r0, r4, ror #2
 1c8:	000087b8 			; <UNDEFINED> instruction: 0x000087b8
 1cc:	00000110 	andeq	r0, r0, r0, lsl r1
 1d0:	84200e42 	strthi	r0, [r0], #-3650	; 0xfffff1be
 1d4:	86078508 	strhi	r8, [r7], -r8, lsl #10
 1d8:	88058706 	stmdahi	r5, {r1, r2, r8, r9, sl, pc}
 1dc:	8a038904 	bhi	e25f4 <__bss_end__+0xd781c>
 1e0:	00018e02 	andeq	r8, r1, r2, lsl #28
 1e4:	00000020 	andeq	r0, r0, r0, lsr #32
 1e8:	00000164 	andeq	r0, r0, r4, ror #2
 1ec:	000088c8 	andeq	r8, r0, r8, asr #17
 1f0:	000000a4 	andeq	r0, r0, r4, lsr #1
 1f4:	840c0e42 	strhi	r0, [ip], #-3650	; 0xfffff1be
 1f8:	8e028503 	cfsh32hi	mvfx8, mvfx2, #3
 1fc:	180e4201 	stmdane	lr, {r0, r9, lr}
 200:	0c0e0a64 			; <UNDEFINED> instruction: 0x0c0e0a64
 204:	00000b42 	andeq	r0, r0, r2, asr #22
 208:	00000014 	andeq	r0, r0, r4, lsl r0
 20c:	00000164 	andeq	r0, r0, r4, ror #2
 210:	0000896c 	andeq	r8, r0, ip, ror #18
 214:	0000000c 	andeq	r0, r0, ip
 218:	84080e42 	strhi	r0, [r8], #-3650	; 0xfffff1be
 21c:	00018e02 	andeq	r8, r1, r2, lsl #28
 220:	00000014 	andeq	r0, r0, r4, lsl r0
 224:	00000164 	andeq	r0, r0, r4, ror #2
 228:	00008978 	andeq	r8, r0, r8, ror r9
 22c:	00000048 	andeq	r0, r0, r8, asr #32
 230:	84080e42 	strhi	r0, [r8], #-3650	; 0xfffff1be
 234:	00018e02 	andeq	r8, r1, r2, lsl #28
 238:	00000014 	andeq	r0, r0, r4, lsl r0
 23c:	00000164 	andeq	r0, r0, r4, ror #2
 240:	000089c0 	andeq	r8, r0, r0, asr #19
 244:	00000050 	andeq	r0, r0, r0, asr r0
 248:	84080e42 	strhi	r0, [r8], #-3650	; 0xfffff1be
 24c:	00018e02 	andeq	r8, r1, r2, lsl #28
 250:	00000028 	andeq	r0, r0, r8, lsr #32
 254:	00000164 	andeq	r0, r0, r4, ror #2
 258:	00008a10 	andeq	r8, r0, r0, lsl sl
 25c:	000000ec 	andeq	r0, r0, ip, ror #1
 260:	84240e42 	strthi	r0, [r4], #-3650	; 0xfffff1be
 264:	86088509 	strhi	r8, [r8], -r9, lsl #10
 268:	88068707 	stmdahi	r6, {r0, r1, r2, r8, r9, sl, pc}
 26c:	8a048905 	bhi	122688 <__bss_end__+0x1178b0>
 270:	8e028b03 	vmlahi.f64	d8, d2, d3
 274:	380e4201 	stmdacc	lr, {r0, r9, lr}
 278:	240e6202 	strcs	r6, [lr], #-514	; 0xfffffdfe
 27c:	00000014 	andeq	r0, r0, r4, lsl r0
 280:	00000164 	andeq	r0, r0, r4, ror #2
 284:	00008afc 	strdeq	r8, [r0], -ip
 288:	0000002c 	andeq	r0, r0, ip, lsr #32
 28c:	84080e42 	strhi	r0, [r8], #-3650	; 0xfffff1be
 290:	00018e02 	andeq	r8, r1, r2, lsl #28
 294:	0000000c 	andeq	r0, r0, ip
 298:	ffffffff 			; <UNDEFINED> instruction: 0xffffffff
 29c:	7c020001 	stcvc	0, cr0, [r2], {1}
 2a0:	000d0c0e 	andeq	r0, sp, lr, lsl #24
 2a4:	00000014 	andeq	r0, r0, r4, lsl r0
 2a8:	00000294 	muleq	r0, r4, r2
 2ac:	00008b30 	andeq	r8, r0, r0, lsr fp
 2b0:	00000078 	andeq	r0, r0, r8, ror r0
 2b4:	84080e42 	strhi	r0, [r8], #-3650	; 0xfffff1be
 2b8:	00018e02 	andeq	r8, r1, r2, lsl #28
 2bc:	0000000c 	andeq	r0, r0, ip
 2c0:	ffffffff 			; <UNDEFINED> instruction: 0xffffffff
 2c4:	7c020001 	stcvc	0, cr0, [r2], {1}
 2c8:	000d0c0e 	andeq	r0, sp, lr, lsl #24
 2cc:	00000034 	andeq	r0, r0, r4, lsr r0
 2d0:	000002bc 			; <UNDEFINED> instruction: 0x000002bc
 2d4:	00008ba8 	andeq	r8, r0, r8, lsr #23
 2d8:	00000058 	andeq	r0, r0, r8, asr r0
 2dc:	80100e42 	andshi	r0, r0, r2, asr #28
 2e0:	82038104 	andhi	r8, r3, #1
 2e4:	42018302 	andmi	r8, r1, #134217728	; 0x8000000
 2e8:	07841c0e 	streq	r1, [r4, lr, lsl #24]
 2ec:	058e0685 	streq	r0, [lr, #1669]	; 0x685
 2f0:	5a280e44 	bpl	a03c08 <__bss_end__+0x9f8e30>
 2f4:	ce421c0e 	cdpgt	12, 4, cr1, cr2, cr14, {0}
 2f8:	100ec4c5 	andne	ip, lr, r5, asr #9
 2fc:	c1c2c342 	bicgt	ip, r2, r2, asr #6
 300:	00000ec0 	andeq	r0, r0, r0, asr #29
 304:	0000000c 	andeq	r0, r0, ip
 308:	ffffffff 			; <UNDEFINED> instruction: 0xffffffff
 30c:	7c020001 	stcvc	0, cr0, [r2], {1}
 310:	000d0c0e 	andeq	r0, sp, lr, lsl #24
 314:	00000018 	andeq	r0, r0, r8, lsl r0
 318:	00000304 	andeq	r0, r0, r4, lsl #6
 31c:	00008c00 	andeq	r8, r0, r0, lsl #24
 320:	00000038 	andeq	r0, r0, r8, lsr r0
 324:	84100e42 	ldrhi	r0, [r0], #-3650	; 0xfffff1be
 328:	86038504 	strhi	r8, [r3], -r4, lsl #10
 32c:	00018e02 	andeq	r8, r1, r2, lsl #28
 330:	0000000c 	andeq	r0, r0, ip
 334:	ffffffff 			; <UNDEFINED> instruction: 0xffffffff
 338:	7c020001 	stcvc	0, cr0, [r2], {1}
 33c:	000d0c0e 	andeq	r0, sp, lr, lsl #24
 340:	0000002c 	andeq	r0, r0, ip, lsr #32
 344:	00000330 	andeq	r0, r0, r0, lsr r3
 348:	00008c38 	andeq	r8, r0, r8, lsr ip
 34c:	00000328 	andeq	r0, r0, r8, lsr #6
 350:	84180e42 	ldrhi	r0, [r8], #-3650	; 0xfffff1be
 354:	86058506 	strhi	r8, [r5], -r6, lsl #10
 358:	88038704 	stmdahi	r3, {r2, r8, r9, sl, pc}
 35c:	46018e02 	strmi	r8, [r1], -r2, lsl #28
 360:	c002600e 	andgt	r6, r2, lr
 364:	42180e0a 	andsmi	r0, r8, #160	; 0xa0
 368:	0a8e020b 	beq	fe380b9c <__bss_end__+0xfe375dc4>
 36c:	0b42180e 	bleq	10863ac <__bss_end__+0x107b5d4>
 370:	00000014 	andeq	r0, r0, r4, lsl r0
 374:	00000330 	andeq	r0, r0, r0, lsr r3
 378:	00008f60 	andeq	r8, r0, r0, ror #30
 37c:	00000060 	andeq	r0, r0, r0, rrx
 380:	8e040e52 	mcrhi	14, 0, r0, cr4, cr2, {2}
 384:	100e4401 	andne	r4, lr, r1, lsl #8
 388:	0000002c 	andeq	r0, r0, ip, lsr #32
 38c:	00000330 	andeq	r0, r0, r0, lsr r3
 390:	00008fc0 	andeq	r8, r0, r0, asr #31
 394:	0000062c 	andeq	r0, r0, ip, lsr #12
 398:	84240e42 	strthi	r0, [r4], #-3650	; 0xfffff1be
 39c:	86088509 	strhi	r8, [r8], -r9, lsl #10
 3a0:	88068707 	stmdahi	r6, {r0, r1, r2, r8, r9, sl, pc}
 3a4:	8a048905 	bhi	1227c0 <__bss_end__+0x1179e8>
 3a8:	8e028b03 	vmlahi.f64	d8, d2, d3
 3ac:	c00e5201 	andgt	r5, lr, r1, lsl #4
 3b0:	0a860202 	beq	fe180bc0 <__bss_end__+0xfe175de8>
 3b4:	0b42240e 	bleq	10893f4 <__bss_end__+0x107e61c>
 3b8:	0000000c 	andeq	r0, r0, ip
 3bc:	ffffffff 			; <UNDEFINED> instruction: 0xffffffff
 3c0:	7c020001 	stcvc	0, cr0, [r2], {1}
 3c4:	000d0c0e 	andeq	r0, sp, lr, lsl #24
 3c8:	00000014 	andeq	r0, r0, r4, lsl r0
 3cc:	000003b8 			; <UNDEFINED> instruction: 0x000003b8
 3d0:	000095ec 	andeq	r9, r0, ip, ror #11
 3d4:	0000002c 	andeq	r0, r0, ip, lsr #32
 3d8:	84080e44 	strhi	r0, [r8], #-3652	; 0xfffff1bc
 3dc:	00018e02 	andeq	r8, r1, r2, lsl #28
 3e0:	0000000c 	andeq	r0, r0, ip
 3e4:	ffffffff 			; <UNDEFINED> instruction: 0xffffffff
 3e8:	7c020001 	stcvc	0, cr0, [r2], {1}
 3ec:	000d0c0e 	andeq	r0, sp, lr, lsl #24
 3f0:	00000018 	andeq	r0, r0, r8, lsl r0
 3f4:	000003e0 	andeq	r0, r0, r0, ror #7
 3f8:	00009618 	andeq	r9, r0, r8, lsl r6
 3fc:	000000f8 	strdeq	r0, [r0], -r8
 400:	84100e42 	ldrhi	r0, [r0], #-3650	; 0xfffff1be
 404:	86038504 	strhi	r8, [r3], -r4, lsl #10
 408:	00018e02 	andeq	r8, r1, r2, lsl #28
 40c:	0000000c 	andeq	r0, r0, ip
 410:	ffffffff 			; <UNDEFINED> instruction: 0xffffffff
 414:	7c020001 	stcvc	0, cr0, [r2], {1}
 418:	000d0c0e 	andeq	r0, sp, lr, lsl #24
 41c:	0000000c 	andeq	r0, r0, ip
 420:	0000040c 	andeq	r0, r0, ip, lsl #8
 424:	00009710 	andeq	r9, r0, r0, lsl r7
 428:	00000004 	andeq	r0, r0, r4
 42c:	0000000c 	andeq	r0, r0, ip
 430:	ffffffff 			; <UNDEFINED> instruction: 0xffffffff
 434:	7c020001 	stcvc	0, cr0, [r2], {1}
 438:	000d0c0e 	andeq	r0, sp, lr, lsl #24
 43c:	0000000c 	andeq	r0, r0, ip
 440:	0000042c 	andeq	r0, r0, ip, lsr #8
 444:	00009714 	andeq	r9, r0, r4, lsl r7
 448:	00000018 	andeq	r0, r0, r8, lsl r0
 44c:	0000000c 	andeq	r0, r0, ip
 450:	0000042c 	andeq	r0, r0, ip, lsr #8
 454:	0000972c 	andeq	r9, r0, ip, lsr #14
 458:	00000014 	andeq	r0, r0, r4, lsl r0
 45c:	00000014 	andeq	r0, r0, r4, lsl r0
 460:	0000042c 	andeq	r0, r0, ip, lsr #8
 464:	00009740 	andeq	r9, r0, r0, asr #14
 468:	00000060 	andeq	r0, r0, r0, rrx
 46c:	84080e42 	strhi	r0, [r8], #-3650	; 0xfffff1be
 470:	00018e02 	andeq	r8, r1, r2, lsl #28
 474:	0000000c 	andeq	r0, r0, ip
 478:	ffffffff 			; <UNDEFINED> instruction: 0xffffffff
 47c:	7c020001 	stcvc	0, cr0, [r2], {1}
 480:	000d0c0e 	andeq	r0, sp, lr, lsl #24
 484:	0000000c 	andeq	r0, r0, ip
 488:	00000474 	andeq	r0, r0, r4, ror r4
 48c:	000097a0 	andeq	r9, r0, r0, lsr #15
 490:	0000000c 	andeq	r0, r0, ip
 494:	00000014 	andeq	r0, r0, r4, lsl r0
 498:	00000474 	andeq	r0, r0, r4, ror r4
 49c:	000097ac 	andeq	r9, r0, ip, lsr #15
 4a0:	00000024 	andeq	r0, r0, r4, lsr #32
 4a4:	84080e42 	strhi	r0, [r8], #-3650	; 0xfffff1be
 4a8:	00018e02 	andeq	r8, r1, r2, lsl #28
 4ac:	0000001c 	andeq	r0, r0, ip, lsl r0
 4b0:	00000474 	andeq	r0, r0, r4, ror r4
 4b4:	000097d0 	ldrdeq	r9, [r0], -r0
 4b8:	00000048 	andeq	r0, r0, r8, asr #32
 4bc:	84180e42 	ldrhi	r0, [r8], #-3650	; 0xfffff1be
 4c0:	86058506 	strhi	r8, [r5], -r6, lsl #10
 4c4:	88038704 	stmdahi	r3, {r2, r8, r9, sl, pc}
 4c8:	00018e02 	andeq	r8, r1, r2, lsl #28
 4cc:	0000001c 	andeq	r0, r0, ip, lsl r0
 4d0:	00000474 	andeq	r0, r0, r4, ror r4
 4d4:	00009818 	andeq	r9, r0, r8, lsl r8
 4d8:	00000050 	andeq	r0, r0, r0, asr r0
 4dc:	84180e42 	ldrhi	r0, [r8], #-3650	; 0xfffff1be
 4e0:	86058506 	strhi	r8, [r5], -r6, lsl #10
 4e4:	88038704 	stmdahi	r3, {r2, r8, r9, sl, pc}
 4e8:	00018e02 	andeq	r8, r1, r2, lsl #28
 4ec:	0000001c 	andeq	r0, r0, ip, lsl r0
 4f0:	00000474 	andeq	r0, r0, r4, ror r4
 4f4:	00009868 	andeq	r9, r0, r8, ror #16
 4f8:	00000054 	andeq	r0, r0, r4, asr r0
 4fc:	84180e42 	ldrhi	r0, [r8], #-3650	; 0xfffff1be
 500:	86058506 	strhi	r8, [r5], -r6, lsl #10
 504:	88038704 	stmdahi	r3, {r2, r8, r9, sl, pc}
 508:	00018e02 	andeq	r8, r1, r2, lsl #28
 50c:	0000000c 	andeq	r0, r0, ip
 510:	ffffffff 			; <UNDEFINED> instruction: 0xffffffff
 514:	7c020001 	stcvc	0, cr0, [r2], {1}
 518:	000d0c0e 	andeq	r0, sp, lr, lsl #24
 51c:	00000018 	andeq	r0, r0, r8, lsl r0
 520:	0000050c 	andeq	r0, r0, ip, lsl #10
 524:	000098bc 			; <UNDEFINED> instruction: 0x000098bc
 528:	00000020 	andeq	r0, r0, r0, lsr #32
 52c:	84100e42 	ldrhi	r0, [r0], #-3650	; 0xfffff1be
 530:	86038504 	strhi	r8, [r3], -r4, lsl #10
 534:	00018e02 	andeq	r8, r1, r2, lsl #28
 538:	00000018 	andeq	r0, r0, r8, lsl r0
 53c:	0000050c 	andeq	r0, r0, ip, lsl #10
 540:	000098dc 	ldrdeq	r9, [r0], -ip
 544:	00000020 	andeq	r0, r0, r0, lsr #32
 548:	84100e42 	ldrhi	r0, [r0], #-3650	; 0xfffff1be
 54c:	86038504 	strhi	r8, [r3], -r4, lsl #10
 550:	00018e02 	andeq	r8, r1, r2, lsl #28
 554:	00000014 	andeq	r0, r0, r4, lsl r0
 558:	0000050c 	andeq	r0, r0, ip, lsl #10
 55c:	000098fc 	strdeq	r9, [r0], -ip
 560:	000000b0 	strheq	r0, [r0], -r0	; <UNPREDICTABLE>
 564:	84080e42 	strhi	r0, [r8], #-3650	; 0xfffff1be
 568:	00018e02 	andeq	r8, r1, r2, lsl #28
 56c:	00000014 	andeq	r0, r0, r4, lsl r0
 570:	0000050c 	andeq	r0, r0, ip, lsl #10
 574:	000099ac 	andeq	r9, r0, ip, lsr #19
 578:	00000018 	andeq	r0, r0, r8, lsl r0
 57c:	84080e42 	strhi	r0, [r8], #-3650	; 0xfffff1be
 580:	00018e02 	andeq	r8, r1, r2, lsl #28
 584:	00000014 	andeq	r0, r0, r4, lsl r0
 588:	0000050c 	andeq	r0, r0, ip, lsl #10
 58c:	000099c4 	andeq	r9, r0, r4, asr #19
 590:	00000020 	andeq	r0, r0, r0, lsr #32
 594:	84080e42 	strhi	r0, [r8], #-3650	; 0xfffff1be
 598:	00018e02 	andeq	r8, r1, r2, lsl #28
 59c:	00000014 	andeq	r0, r0, r4, lsl r0
 5a0:	0000050c 	andeq	r0, r0, ip, lsl #10
 5a4:	000099e4 	andeq	r9, r0, r4, ror #19
 5a8:	00000030 	andeq	r0, r0, r0, lsr r0
 5ac:	84080e42 	strhi	r0, [r8], #-3650	; 0xfffff1be
 5b0:	00018e02 	andeq	r8, r1, r2, lsl #28
 5b4:	00000014 	andeq	r0, r0, r4, lsl r0
 5b8:	0000050c 	andeq	r0, r0, ip, lsl #10
 5bc:	00009a14 	andeq	r9, r0, r4, lsl sl
 5c0:	00000030 	andeq	r0, r0, r0, lsr r0
 5c4:	84080e42 	strhi	r0, [r8], #-3650	; 0xfffff1be
 5c8:	00018e02 	andeq	r8, r1, r2, lsl #28
 5cc:	00000014 	andeq	r0, r0, r4, lsl r0
 5d0:	0000050c 	andeq	r0, r0, ip, lsl #10
 5d4:	00009a44 	andeq	r9, r0, r4, asr #20
 5d8:	00000010 	andeq	r0, r0, r0, lsl r0
 5dc:	84080e42 	strhi	r0, [r8], #-3650	; 0xfffff1be
 5e0:	00018e02 	andeq	r8, r1, r2, lsl #28
 5e4:	00000014 	andeq	r0, r0, r4, lsl r0
 5e8:	0000050c 	andeq	r0, r0, ip, lsl #10
 5ec:	00009a54 	andeq	r9, r0, r4, asr sl
 5f0:	00000020 	andeq	r0, r0, r0, lsr #32
 5f4:	84080e42 	strhi	r0, [r8], #-3650	; 0xfffff1be
 5f8:	00018e02 	andeq	r8, r1, r2, lsl #28
 5fc:	00000014 	andeq	r0, r0, r4, lsl r0
 600:	0000050c 	andeq	r0, r0, ip, lsl #10
 604:	00009a74 	andeq	r9, r0, r4, ror sl
 608:	00000014 	andeq	r0, r0, r4, lsl r0
 60c:	84080e42 	strhi	r0, [r8], #-3650	; 0xfffff1be
 610:	00018e02 	andeq	r8, r1, r2, lsl #28
 614:	00000014 	andeq	r0, r0, r4, lsl r0
 618:	0000050c 	andeq	r0, r0, ip, lsl #10
 61c:	00009a88 	andeq	r9, r0, r8, lsl #21
 620:	00000024 	andeq	r0, r0, r4, lsr #32
 624:	84080e42 	strhi	r0, [r8], #-3650	; 0xfffff1be
 628:	00018e02 	andeq	r8, r1, r2, lsl #28
 62c:	0000000c 	andeq	r0, r0, ip
 630:	ffffffff 			; <UNDEFINED> instruction: 0xffffffff
 634:	7c020001 	stcvc	0, cr0, [r2], {1}
 638:	000d0c0e 	andeq	r0, sp, lr, lsl #24
 63c:	0000000c 	andeq	r0, r0, ip
 640:	0000062c 	andeq	r0, r0, ip, lsr #12
 644:	00009aac 	andeq	r9, r0, ip, lsr #21
 648:	00000010 	andeq	r0, r0, r0, lsl r0
 64c:	0000000c 	andeq	r0, r0, ip
 650:	0000062c 	andeq	r0, r0, ip, lsr #12
 654:	00009abc 			; <UNDEFINED> instruction: 0x00009abc
 658:	00000010 	andeq	r0, r0, r0, lsl r0
 65c:	0000000c 	andeq	r0, r0, ip
 660:	0000062c 	andeq	r0, r0, ip, lsr #12
 664:	00009acc 	andeq	r9, r0, ip, asr #21
 668:	00000010 	andeq	r0, r0, r0, lsl r0
 66c:	0000001c 	andeq	r0, r0, ip, lsl r0
 670:	0000062c 	andeq	r0, r0, ip, lsr #12
 674:	00009adc 	ldrdeq	r9, [r0], -ip
 678:	0000009c 	muleq	r0, ip, r0
 67c:	8e040e42 	cdphi	14, 0, cr0, cr4, cr2, {2}
 680:	100e4201 	andne	r4, lr, r1, lsl #4
 684:	040e0a58 	streq	r0, [lr], #-2648	; 0xfffff5a8
 688:	00000b42 	andeq	r0, r0, r2, asr #22
 68c:	00000014 	andeq	r0, r0, r4, lsl r0
 690:	0000062c 	andeq	r0, r0, ip, lsr #12
 694:	00009b78 	andeq	r9, r0, r8, ror fp
 698:	00000058 	andeq	r0, r0, r8, asr r0
 69c:	84080e42 	strhi	r0, [r8], #-3650	; 0xfffff1be
 6a0:	00018e02 	andeq	r8, r1, r2, lsl #28
 6a4:	0000001c 	andeq	r0, r0, ip, lsl r0
 6a8:	0000062c 	andeq	r0, r0, ip, lsr #12
 6ac:	00009bd0 	ldrdeq	r9, [r0], -r0
 6b0:	00000098 	muleq	r0, r8, r0
 6b4:	8e040e42 	cdphi	14, 0, cr0, cr4, cr2, {2}
 6b8:	100e4201 	andne	r4, lr, r1, lsl #4
 6bc:	040e0a58 	streq	r0, [lr], #-2648	; 0xfffff5a8
 6c0:	00000b42 	andeq	r0, r0, r2, asr #22
 6c4:	00000020 	andeq	r0, r0, r0, lsr #32
 6c8:	0000062c 	andeq	r0, r0, ip, lsr #12
 6cc:	00009c68 	andeq	r9, r0, r8, ror #24
 6d0:	00000064 	andeq	r0, r0, r4, rrx
 6d4:	840c0e42 	strhi	r0, [ip], #-3650	; 0xfffff1be
 6d8:	8e028503 	cfsh32hi	mvfx8, mvfx2, #3
 6dc:	180e4201 	stmdane	lr, {r0, r9, lr}
 6e0:	0c0e0a54 			; <UNDEFINED> instruction: 0x0c0e0a54
 6e4:	00000b42 	andeq	r0, r0, r2, asr #22
 6e8:	0000001c 	andeq	r0, r0, ip, lsl r0
 6ec:	0000062c 	andeq	r0, r0, ip, lsr #12
 6f0:	00009ccc 	andeq	r9, r0, ip, asr #25
 6f4:	00000118 	andeq	r0, r0, r8, lsl r1
 6f8:	8e040e42 	cdphi	14, 0, cr0, cr4, cr2, {2}
 6fc:	100e4201 	andne	r4, lr, r1, lsl #4
 700:	040e0a6c 	streq	r0, [lr], #-2668	; 0xfffff594
 704:	00000b42 	andeq	r0, r0, r2, asr #22
 708:	0000000c 	andeq	r0, r0, ip
 70c:	0000062c 	andeq	r0, r0, ip, lsr #12
 710:	00009de4 	andeq	r9, r0, r4, ror #27
 714:	00000004 	andeq	r0, r0, r4
 718:	0000000c 	andeq	r0, r0, ip
 71c:	0000062c 	andeq	r0, r0, ip, lsr #12
 720:	00009de8 	andeq	r9, r0, r8, ror #27
 724:	00000014 	andeq	r0, r0, r4, lsl r0
 728:	00000014 	andeq	r0, r0, r4, lsl r0
 72c:	0000062c 	andeq	r0, r0, ip, lsr #12
 730:	00009dfc 	strdeq	r9, [r0], -ip
 734:	00000060 	andeq	r0, r0, r0, rrx
 738:	8e040e58 	mcrhi	14, 0, r0, cr4, cr8, {2}
 73c:	100e4201 	andne	r4, lr, r1, lsl #4
 740:	0000000c 	andeq	r0, r0, ip
 744:	ffffffff 			; <UNDEFINED> instruction: 0xffffffff
 748:	7c020001 	stcvc	0, cr0, [r2], {1}
 74c:	000d0c0e 	andeq	r0, sp, lr, lsl #24
 750:	00000020 	andeq	r0, r0, r0, lsr #32
 754:	00000740 	andeq	r0, r0, r0, asr #14
 758:	00009e5c 	andeq	r9, r0, ip, asr lr
 75c:	00000060 	andeq	r0, r0, r0, rrx
 760:	84100e48 	ldrhi	r0, [r0], #-3656	; 0xfffff1b8
 764:	86038504 	strhi	r8, [r3], -r4, lsl #10
 768:	64018e02 	strvs	r8, [r1], #-3586	; 0xfffff1fe
 76c:	c4c5c6ce 	strbgt	ip, [r5], #1742	; 0x6ce
 770:	0000000e 	andeq	r0, r0, lr
 774:	00000020 	andeq	r0, r0, r0, lsr #32
 778:	00000740 	andeq	r0, r0, r0, asr #14
 77c:	00009ebc 			; <UNDEFINED> instruction: 0x00009ebc
 780:	00000058 	andeq	r0, r0, r8, asr r0
 784:	84100e46 	ldrhi	r0, [r0], #-3654	; 0xfffff1ba
 788:	86038504 	strhi	r8, [r3], -r4, lsl #10
 78c:	62018e02 	andvs	r8, r1, #2, 28
 790:	c4c5c6ce 	strbgt	ip, [r5], #1742	; 0x6ce
 794:	0000000e 	andeq	r0, r0, lr
 798:	0000000c 	andeq	r0, r0, ip
 79c:	00000740 	andeq	r0, r0, r0, asr #14
 7a0:	00009f14 	andeq	r9, r0, r4, lsl pc
 7a4:	00000018 	andeq	r0, r0, r8, lsl r0
 7a8:	0000000c 	andeq	r0, r0, ip
 7ac:	00000740 	andeq	r0, r0, r0, asr #14
 7b0:	00009f2c 	andeq	r9, r0, ip, lsr #30
 7b4:	00000018 	andeq	r0, r0, r8, lsl r0
 7b8:	00000020 	andeq	r0, r0, r0, lsr #32
 7bc:	00000740 	andeq	r0, r0, r0, asr #14
 7c0:	00009f44 	andeq	r9, r0, r4, asr #30
 7c4:	00000058 	andeq	r0, r0, r8, asr r0
 7c8:	84100e46 	ldrhi	r0, [r0], #-3654	; 0xfffff1ba
 7cc:	86038504 	strhi	r8, [r3], -r4, lsl #10
 7d0:	62018e02 	andvs	r8, r1, #2, 28
 7d4:	c4c5c6ce 	strbgt	ip, [r5], #1742	; 0x6ce
 7d8:	0000000e 	andeq	r0, r0, lr
 7dc:	0000000c 	andeq	r0, r0, ip
 7e0:	00000740 	andeq	r0, r0, r0, asr #14
 7e4:	00009f9c 	muleq	r0, ip, pc	; <UNPREDICTABLE>
 7e8:	00000030 	andeq	r0, r0, r0, lsr r0
 7ec:	00000014 	andeq	r0, r0, r4, lsl r0
 7f0:	00000740 	andeq	r0, r0, r0, asr #14
 7f4:	00009fcc 	andeq	r9, r0, ip, asr #31
 7f8:	00000028 	andeq	r0, r0, r8, lsr #32
 7fc:	84080e42 	strhi	r0, [r8], #-3650	; 0xfffff1be
 800:	00018e02 	andeq	r8, r1, r2, lsl #28
 804:	0000000c 	andeq	r0, r0, ip
 808:	ffffffff 			; <UNDEFINED> instruction: 0xffffffff
 80c:	7c020001 	stcvc	0, cr0, [r2], {1}
 810:	000d0c0e 	andeq	r0, sp, lr, lsl #24
 814:	00000014 	andeq	r0, r0, r4, lsl r0
 818:	00000804 	andeq	r0, r0, r4, lsl #16
 81c:	00009ff4 	strdeq	r9, [r0], -r4
 820:	00000014 	andeq	r0, r0, r4, lsl r0
 824:	84080e42 	strhi	r0, [r8], #-3650	; 0xfffff1be
 828:	00018e02 	andeq	r8, r1, r2, lsl #28
 82c:	0000000c 	andeq	r0, r0, ip
 830:	00000804 	andeq	r0, r0, r4, lsl #16
 834:	0000a008 	andeq	sl, r0, r8
 838:	00000018 	andeq	r0, r0, r8, lsl r0
 83c:	0000000c 	andeq	r0, r0, ip
 840:	00000804 	andeq	r0, r0, r4, lsl #16
 844:	0000a020 	andeq	sl, r0, r0, lsr #32
 848:	00000010 	andeq	r0, r0, r0, lsl r0
 84c:	0000000c 	andeq	r0, r0, ip
 850:	ffffffff 			; <UNDEFINED> instruction: 0xffffffff
 854:	7c020001 	stcvc	0, cr0, [r2], {1}
 858:	000d0c0e 	andeq	r0, sp, lr, lsl #24
 85c:	0000000c 	andeq	r0, r0, ip
 860:	0000084c 	andeq	r0, r0, ip, asr #16
 864:	0000a030 	andeq	sl, r0, r0, lsr r0
 868:	0000002c 	andeq	r0, r0, ip, lsr #32
 86c:	0000000c 	andeq	r0, r0, ip
 870:	ffffffff 			; <UNDEFINED> instruction: 0xffffffff
 874:	7c020001 	stcvc	0, cr0, [r2], {1}
 878:	000d0c0e 	andeq	r0, sp, lr, lsl #24
 87c:	0000000c 	andeq	r0, r0, ip
 880:	0000086c 	andeq	r0, r0, ip, ror #16
 884:	0000a05c 	andeq	sl, r0, ip, asr r0
 888:	00000044 	andeq	r0, r0, r4, asr #32
 88c:	0000000c 	andeq	r0, r0, ip
 890:	ffffffff 			; <UNDEFINED> instruction: 0xffffffff
 894:	7c020001 	stcvc	0, cr0, [r2], {1}
 898:	000d0c0e 	andeq	r0, sp, lr, lsl #24
 89c:	0000000c 	andeq	r0, r0, ip
 8a0:	0000088c 	andeq	r0, r0, ip, lsl #17
 8a4:	0000a0a0 	andeq	sl, r0, r0, lsr #1
 8a8:	00000018 	andeq	r0, r0, r8, lsl r0
 8ac:	0000000c 	andeq	r0, r0, ip
 8b0:	ffffffff 			; <UNDEFINED> instruction: 0xffffffff
 8b4:	7c020001 	stcvc	0, cr0, [r2], {1}
 8b8:	000d0c0e 	andeq	r0, sp, lr, lsl #24
 8bc:	0000000c 	andeq	r0, r0, ip
 8c0:	000008ac 	andeq	r0, r0, ip, lsr #17
 8c4:	0000a0b8 	strheq	sl, [r0], -r8
 8c8:	00000030 	andeq	r0, r0, r0, lsr r0
 8cc:	0000000c 	andeq	r0, r0, ip
 8d0:	ffffffff 			; <UNDEFINED> instruction: 0xffffffff
 8d4:	7c020001 	stcvc	0, cr0, [r2], {1}
 8d8:	000d0c0e 	andeq	r0, sp, lr, lsl #24
 8dc:	0000000c 	andeq	r0, r0, ip
 8e0:	000008cc 	andeq	r0, r0, ip, asr #17
 8e4:	0000a0e8 	andeq	sl, r0, r8, ror #1
 8e8:	00000004 	andeq	r0, r0, r4
